; Listing generated by Microsoft (R) Optimizing Compiler Version 19.16.27045.0 

	TITLE	C:\Users\nhv90\Projects\eech\aphavoc\source\gunships\dynamics\hokum\ho_dyn.c
	.686P
	.XMM
	include listing.inc
	.model	flat

INCLUDELIB MSVCRTD
INCLUDELIB OLDNAMES

PUBLIC	___local_stdio_printf_options
PUBLIC	__vsnprintf_l
PUBLIC	__vsprintf_l
PUBLIC	_sprintf
PUBLIC	_asinf
PUBLIC	_fabsf
PUBLIC	_powf
PUBLIC	_sinf
PUBLIC	?pow@@YGNNH@Z					; pow
PUBLIC	?asin@@YGMM@Z					; asin
PUBLIC	?fabs@@YGMM@Z					; fabs
PUBLIC	?pow@@YGMMM@Z					; pow
PUBLIC	?pow@@YGMMH@Z					; pow
PUBLIC	?sin@@YGMM@Z					; sin
PUBLIC	?initialise_hokum_advanced_dynamics@@YGXPAUENTITY@@@Z ; initialise_hokum_advanced_dynamics
PUBLIC	?update_hokum_advanced_dynamics@@YGXXZ		; update_hokum_advanced_dynamics
PUBLIC	??$max@M@std@@YGABMABM0@Z			; std::max<float>
PUBLIC	??$max@N@std@@YGABNABN0@Z			; std::max<double>
PUBLIC	??$min@N@std@@YGABNABN0@Z			; std::min<double>
PUBLIC	??$min@M@std@@YGABMABM0@Z			; std::min<float>
PUBLIC	?hokum_restore_damage_values@@YGXXZ		; hokum_restore_damage_values
PUBLIC	?_OptionsStorage@?1??__local_stdio_printf_options@@9@4_KA ; `__local_stdio_printf_options'::`2'::_OptionsStorage
PUBLIC	??_C@_02DKCKIIND@?$CFs@				; `string'
PUBLIC	??_C@_0BJ@GKCIPEIG@?4?4?2common?2data?2hokum?4dyn@ ; `string'
PUBLIC	?__LINE__Var@?0??set_dynamics_defaults@@YGXPAUENTITY@@@Z@4JA ; `set_dynamics_defaults'::`1'::__LINE__Var
PUBLIC	??_C@_0EN@OILCBPIN@c?3?2users?2nhv90?2projects?2eech?2ap@ ; `string'
PUBLIC	?__LINE__Var@?0??update_attitude_dynamics@@YGXXZ@4JA ; `update_attitude_dynamics'::`1'::__LINE__Var
PUBLIC	??_C@_0BD@EHBODOFB@DYNAMICS?3?5UNSTABLE@	; `string'
PUBLIC	??_C@_0O@DAHLPFDH@Taxiing?5force@		; `string'
PUBLIC	??_C@_0BD@BBEFFKGJ@Middle?5rotor?5force@	; `string'
PUBLIC	??_C@_0BC@MEMJFFEH@Front?5rotor?5force@		; `string'
PUBLIC	??_C@_0BB@LJEAAOI@Back?5rotor?5force@		; `string'
PUBLIC	??_C@_0BB@JNCAICOI@Left?5rotor?5force@		; `string'
PUBLIC	??_C@_0BC@BCPABIID@Right?5rotor?5force@		; `string'
PUBLIC	??_C@_07JMGDFJEK@Gravity@			; `string'
PUBLIC	??_C@_0BC@GCGACPAK@Transitional?5lift@		; `string'
PUBLIC	??_C@_0O@JIJAGCOD@Sonic?5buildup@		; `string'
PUBLIC	??_C@_0BK@DILBAPLM@Main?5rotor?5angular?5torque@ ; `string'
PUBLIC	??_C@_0BB@FPOJGHNF@Pitch?5resistance@		; `string'
PUBLIC	??_C@_0BA@JHNCKIDL@Roll?5resistance@		; `string'
PUBLIC	??_C@_0P@OJCKBBIP@Yaw?5resistance@		; `string'
PUBLIC	??_C@_0BH@EICDHFJI@Realign?5force?5?$CIY?5axis?$CJ@ ; `string'
PUBLIC	??_C@_0BH@IEIJHFAG@Realign?5force?5?$CIX?5axis?$CJ@ ; `string'
PUBLIC	??_C@_0BE@JPPEFMCN@Forward?5motion?5drag@	; `string'
PUBLIC	??_C@_0BE@DICEDONG@Lateral?5motion?5drag@	; `string'
PUBLIC	??_C@_0BF@LAMOPNAJ@Vertical?5motion?5drag@	; `string'
PUBLIC	??_C@_0BL@CBNCBPEP@Middle?5rotor?5Ground?5effect@ ; `string'
PUBLIC	??_C@_0BK@BDABDLEI@Front?5rotor?5Ground?5effect@ ; `string'
PUBLIC	??_C@_0BJ@MKNEGMFL@Back?5rotor?5Ground?5effect@	; `string'
PUBLIC	??_C@_0BJ@KEABEFD@Left?5rotor?5Ground?5effect@	; `string'
PUBLIC	??_C@_0BK@ONPBLKKA@Right?5rotor?5Ground?5effect@ ; `string'
PUBLIC	??_C@_0BC@MPODPIKD@Vortex?5ring?5force@		; `string'
PUBLIC	??_C@_04LGBIOLDJ@Wind@				; `string'
PUBLIC	??_C@_0BG@EBOEKGCA@Ground?5Friction?5force@	; `string'
PUBLIC	?__LINE__Var@?0??update_acceleration_dynamics@@YGXXZ@4JA ; `update_acceleration_dynamics'::`1'::__LINE__Var
PUBLIC	??_C@_0BD@FEEMDEPI@invalid?5comparator@		; `string'
PUBLIC	??_C@_0GK@JMBMHIBC@c?3?2program?5files?5?$CIx86?$CJ?2microsof@ ; `string'
PUBLIC	??_C@_1NE@FKBPBJEB@?$AAc?$AA?3?$AA?2?$AAp?$AAr?$AAo?$AAg?$AAr?$AAa?$AAm?$AA?5?$AAf?$AAi?$AAl?$AAe@ ; `string'
PUBLIC	??_C@_1BC@ICCOKLEG@?$AAs?$AAt?$AAd?$AA?3?$AA?3?$AAm?$AAa?$AAx@ ; `string'
PUBLIC	??_C@_1CK@NDNHPKPI@?$AA?$CC?$AAi?$AAn?$AAv?$AAa?$AAl?$AAi?$AAd?$AA?5?$AAc?$AAo?$AAm?$AAp?$AAa?$AAr@ ; `string'
PUBLIC	??_C@_1BC@BLAPCBGI@?$AAs?$AAt?$AAd?$AA?3?$AA?3?$AAm?$AAi?$AAn@ ; `string'
PUBLIC	__real@00000000
PUBLIC	__real@0000000000000000
PUBLIC	__real@3c23d70a
PUBLIC	__real@3c8efa35
PUBLIC	__real@3d0efa35
PUBLIC	__real@3db2b8c2
PUBLIC	__real@3dc49809
PUBLIC	__real@3dcccccd
PUBLIC	__real@3de8a71e
PUBLIC	__real@3e060a92
PUBLIC	__real@3e99999a
PUBLIC	__real@3ecccccd
PUBLIC	__real@3ecda922
PUBLIC	__real@3f000000
PUBLIC	__real@3f00002000400080
PUBLIC	__real@3f10000000000000
PUBLIC	__real@3f1a36e2eb1c432d
PUBLIC	__real@3f333333
PUBLIC	__real@3f364840e1719f80
PUBLIC	__real@3f50624dd2f1a9fc
PUBLIC	__real@3f666666
PUBLIC	__real@3f689374bc6a7efa
PUBLIC	__real@3f800000
PUBLIC	__real@3f8b4cc25072085c
PUBLIC	__real@3f99999a
PUBLIC	__real@3fa16872b020c49c
PUBLIC	__real@3fa999999999999a
PUBLIC	__real@3fb6571848000000
PUBLIC	__real@3fb999999999999a
PUBLIC	__real@3fc00000
PUBLIC	__real@3fc999999999999a
PUBLIC	__real@3fcccccd
PUBLIC	__real@3fd0000000000000
PUBLIC	__real@3fd3333333333333
PUBLIC	__real@3fd999999999999a
PUBLIC	__real@3fe0000000000000
PUBLIC	__real@3fe3333333333333
PUBLIC	__real@3fe4cccccccccccd
PUBLIC	__real@3fe8000000000000
PUBLIC	__real@3fe999999999999a
PUBLIC	__real@3feccccccccccccd
PUBLIC	__real@3ff0000000000000
PUBLIC	__real@3ff8000000000000
PUBLIC	__real@40000000
PUBLIC	__real@4000000000000000
PUBLIC	__real@4008000000000000
PUBLIC	__real@400921fb60000000
PUBLIC	__real@4010000000000000
PUBLIC	__real@4012000000000000
PUBLIC	__real@4020000000000000
PUBLIC	__real@4024000000000000
PUBLIC	__real@402e000000000000
PUBLIC	__real@4030000000000000
PUBLIC	__real@40309d14e3bcd35b
PUBLIC	__real@40328f5c
PUBLIC	__real@4034000000000000
PUBLIC	__real@403e000000000000
PUBLIC	__real@403eec14e0000000
PUBLIC	__real@40400000
PUBLIC	__real@4041800000000000
PUBLIC	__real@4046800000000000
PUBLIC	__real@404b800000000000
PUBLIC	__real@404e000000000000
PUBLIC	__real@4059000000000000
PUBLIC	__real@405f400000000000
PUBLIC	__real@40900000
PUBLIC	__real@4099c40000000000
PUBLIC	__real@40a00000
PUBLIC	__real@40a4eb1a
PUBLIC	__real@40c00000
PUBLIC	__real@40c90fdb
PUBLIC	__real@40e99168
PUBLIC	__real@41000000
PUBLIC	__real@411cf5c3
PUBLIC	__real@41200000
PUBLIC	__real@412970a4
PUBLIC	__real@4131999a
PUBLIC	__real@416a147b
PUBLIC	__real@41700000
PUBLIC	__real@417b3333
PUBLIC	__real@41a00000
PUBLIC	__real@41d00000
PUBLIC	__real@41f00000
PUBLIC	__real@41f760a7
PUBLIC	__real@42200000
PUBLIC	__real@42480000
PUBLIC	__real@42652ee0
PUBLIC	__real@42c80000
PUBLIC	__real@42cb0e45
PUBLIC	__real@42ce25e0
PUBLIC	__real@42f00000
PUBLIC	__real@441d1463
PUBLIC	__real@44480000
PUBLIC	__real@447a0000
PUBLIC	__real@44b98000
PUBLIC	__real@44ce2000
PUBLIC	__real@450b6000
PUBLIC	__real@45e9c000
PUBLIC	__real@461c4000
PUBLIC	__real@469c4000
PUBLIC	__real@80000000
PUBLIC	__real@bd0efa35
PUBLIC	__real@bd567750
PUBLIC	__real@bdc49809
PUBLIC	__real@be4ccccd
PUBLIC	__real@bf800000
PUBLIC	__real@bfd999999999999a
PUBLIC	__real@bff0000000000000
PUBLIC	__real@c000000000000000
PUBLIC	__real@c024000000000000
PUBLIC	__real@c0400000
PUBLIC	__real@c059000000000000
PUBLIC	__real@c0a00000
PUBLIC	__real@c0c90fdb
PUBLIC	__real@c0e00000
PUBLIC	__real@c0e99168
PUBLIC	__real@c10547ae
PUBLIC	__real@c1200000
PUBLIC	__real@c131999a
PUBLIC	__real@c1a00000
PUBLIC	__real@c1c80000
PUBLIC	__real@c2200000
PUBLIC	__real@c2c80000
PUBLIC	__real@c47a0000
PUBLIC	__xmm@80000000000000008000000000000000
PUBLIC	__xmm@80000000800000008000000080000000
EXTRN	__imp___invalid_parameter:PROC
EXTRN	__imp____stdio_common_vsprintf:PROC
EXTRN	_memset:PROC
EXTRN	__imp___CrtDbgReport:PROC
EXTRN	_asin:PROC
EXTRN	_exp:PROC
EXTRN	_fabs:PROC
EXTRN	_pow:PROC
EXTRN	_sin:PROC
EXTRN	?process_assert@@YGXPBD0H@Z:PROC		; process_assert
EXTRN	?debug_log@@YAXPBDZZ:PROC			; debug_log
EXTRN	?normalise_any_3d_vector@@YGMPAUVEC3D@@@Z:PROC	; normalise_any_3d_vector
EXTRN	?get_3d_vector_magnitude@@YGMPBUVEC3D@@@Z:PROC	; get_3d_vector_magnitude
EXTRN	?invert_3d_vector@@YGXPAUVEC3D@@@Z:PROC		; invert_3d_vector
EXTRN	?get_3d_transformation_heading_pitch_matrix@@YGXQAY02MMM@Z:PROC ; get_3d_transformation_heading_pitch_matrix
EXTRN	?multiply_matrix3x3_vec3d@@YGXPAUVEC3D@@QAY02$$CBMPBU1@@Z:PROC ; multiply_matrix3x3_vec3d
EXTRN	?multiply_transpose_matrix3x3_vec3d@@YGXPAUVEC3D@@QAY02$$CBMPBU1@@Z:PROC ; multiply_transpose_matrix3x3_vec3d
EXTRN	?get_identity_matrix3x3@@YGXQAY02M@Z:PROC	; get_identity_matrix3x3
EXTRN	?get_3d_terrain_point_data@@YGMMMPAUTERRAIN_3D_POINT_DATA@@@Z:PROC ; get_3d_terrain_point_data
EXTRN	?get_3d_terrain_point_data_elevation@@YGMPAUTERRAIN_3D_POINT_DATA@@@Z:PROC ; get_3d_terrain_point_data_elevation
EXTRN	?get_3d_terrain_point_data_type@@YGHPAUTERRAIN_3D_POINT_DATA@@@Z:PROC ; get_3d_terrain_point_data_type
EXTRN	?bound_position_to_adjusted_map_volume@@YGHPAUVEC3D@@@Z:PROC ; bound_position_to_adjusted_map_volume
EXTRN	?bound_double_position_to_adjusted_map_volume@@YGHPAUDOUBLE_VEC3D@@@Z:PROC ; bound_double_position_to_adjusted_map_volume
EXTRN	?helicopter_within_keysite_area@@YGHPAUENTITY@@@Z:PROC ; helicopter_within_keysite_area
EXTRN	?play_client_server_cpg_message@@YGHPAUENTITY@@MMHMH@Z:PROC ; play_client_server_cpg_message
EXTRN	?play_client_server_warning_message@@YGHPAUENTITY@@H@Z:PROC ; play_client_server_warning_message
EXTRN	?get_session_wind_velocity_at_point@@YGMPAUVEC3D@@0@Z:PROC ; get_session_wind_velocity_at_point
EXTRN	?dynamics_damage_model@@YGXIH@Z:PROC		; dynamics_damage_model
EXTRN	?set_current_dynamics_options@@YGXW4DYNAMICS_OPTIONS_TYPES@@H@Z:PROC ; set_current_dynamics_options
EXTRN	?add_dynamic_force@@YGXPBDMMPAUVEC3D@@1H@Z:PROC	; add_dynamic_force
EXTRN	?update_dynamic_forces@@YGXXZ:PROC		; update_dynamic_forces
EXTRN	?resolve_dynamic_forces@@YGXXZ:PROC		; resolve_dynamic_forces
EXTRN	?update_apu_rpm_dynamics@@YGXXZ:PROC		; update_apu_rpm_dynamics
EXTRN	?update_engine_rpm_dynamics@@YGXH@Z:PROC	; update_engine_rpm_dynamics
EXTRN	?update_engine_temperature_dynamics@@YGXH@Z:PROC ; update_engine_temperature_dynamics
EXTRN	?update_dynamics_external_values@@YGXXZ:PROC	; update_dynamics_external_values
EXTRN	?get_current_dynamics_options@@YGHW4DYNAMICS_OPTIONS_TYPES@@@Z:PROC ; get_current_dynamics_options
EXTRN	?set_flight_dynamics_mass@@YGMXZ:PROC		; set_flight_dynamics_mass
EXTRN	?create_rotor_vibration@@YGXM@Z:PROC		; create_rotor_vibration
EXTRN	?get_terrain_type_class@@YG?AW4TERRAIN_CLASSES@@H@Z:PROC ; get_terrain_type_class
EXTRN	?update_undercarriage_dynamics@@YGXXZ:PROC	; update_undercarriage_dynamics
EXTRN	?random_number_seed@@3HA:DWORD			; random_number_seed
EXTRN	?command_line_dynamics_advanced_engine_model@@3HA:DWORD ; command_line_dynamics_advanced_engine_model
EXTRN	?command_line_dynamics_flight_model@@3HA:DWORD	; command_line_dynamics_flight_model
EXTRN	?command_line_dynamics_rudder_value@@3MA:DWORD	; command_line_dynamics_rudder_value
EXTRN	?command_line_dynamics_main_rotor_drag@@3MA:DWORD ; command_line_dynamics_main_rotor_drag
EXTRN	?command_line_dynamics_main_rotor_lift@@3MA:DWORD ; command_line_dynamics_main_rotor_lift
EXTRN	?null_entity_pointer_message@@3PBDB:DWORD	; null_entity_pointer_message
EXTRN	?global_options@@3UGLOBAL_OPTIONS_DATA@@A:BYTE	; global_options
EXTRN	?system_comms_model@@3W4COMMS_MODEL_TYPES@@A:DWORD ; system_comms_model
EXTRN	?world_map@@3UWORLD_MAP_DATA@@A:BYTE		; world_map
EXTRN	?overload_invalid_list_type_message@@3PBDB:DWORD ; overload_invalid_list_type_message
EXTRN	?fn_get_local_entity_parent@@3PAY0CN@P6GPAUENTITY@@PAU1@W4LIST_TYPES@@@ZA:BYTE ; fn_get_local_entity_parent
EXTRN	?fn_get_local_entity_attitude_matrix@@3PAP6GXPAUENTITY@@QAY02M@ZA:BYTE ; fn_get_local_entity_attitude_matrix
EXTRN	?fn_kill_client_server_entity@@3PAY01P6GXPAUENTITY@@@ZA:BYTE ; fn_kill_client_server_entity
EXTRN	?overload_invalid_float_type_message@@3PBDB:DWORD ; overload_invalid_float_type_message
EXTRN	?fn_set_client_server_entity_float_value@@3PAY1KP@1P6GXPAUENTITY@@W4FLOAT_TYPES@@M@ZA:BYTE ; fn_set_client_server_entity_float_value
EXTRN	?fn_get_local_entity_float_value@@3PAY0KP@P6GMPAUENTITY@@W4FLOAT_TYPES@@@ZA:BYTE ; fn_get_local_entity_float_value
EXTRN	?overload_invalid_int_type_message@@3PBDB:DWORD	; overload_invalid_int_type_message
EXTRN	?fn_set_client_server_entity_int_value@@3PAY1BBH@1P6GXPAUENTITY@@W4INT_TYPES@@H@ZA:BYTE ; fn_set_client_server_entity_int_value
EXTRN	?fn_get_local_entity_int_value@@3PAY0BBH@P6GHPAUENTITY@@W4INT_TYPES@@@ZA:BYTE ; fn_get_local_entity_int_value
EXTRN	?overload_invalid_vec3d_type_message@@3PBDB:DWORD ; overload_invalid_vec3d_type_message
EXTRN	?fn_set_client_server_entity_vec3d@@3PAY1BI@1P6GXPAUENTITY@@W4VEC3D_TYPES@@PAUVEC3D@@@ZA:BYTE ; fn_set_client_server_entity_vec3d
EXTRN	?fn_get_local_entity_vec3d@@3PAY0BI@P6GXPAUENTITY@@W4VEC3D_TYPES@@PAUVEC3D@@@ZA:BYTE ; fn_get_local_entity_vec3d
EXTRN	?aircraft_database@@3PAUAIRCRAFT_DATA@@A:BYTE	; aircraft_database
EXTRN	?gunship_entity@@3PAUENTITY@@A:DWORD		; gunship_entity
EXTRN	?fixed_collision_count@@3HA:DWORD		; fixed_collision_count
EXTRN	?moving_collision_count@@3HA:DWORD		; moving_collision_count
EXTRN	?current_flight_dynamics_landed_at_keysite@@3PAUENTITY@@A:DWORD ; current_flight_dynamics_landed_at_keysite
EXTRN	?current_flight_dynamics@@3PAUDYNAMICS_TYPE@@A:DWORD ; current_flight_dynamics
EXTRN	?parser_flight_dynamics_options@@3HA:DWORD	; parser_flight_dynamics_options
EXTRN	__fltused:DWORD
;	COMDAT ?_OptionsStorage@?1??__local_stdio_printf_options@@9@4_KA
_BSS	SEGMENT
?_OptionsStorage@?1??__local_stdio_printf_options@@9@4_KA DQ 01H DUP (?) ; `__local_stdio_printf_options'::`2'::_OptionsStorage
_BSS	ENDS
_BSS	SEGMENT
?advanced_flight_dynamics@@3UDYNAMICS_TYPE@@A DB 02540H DUP (?) ; advanced_flight_dynamics
?right_g_e_force@@3MA DD 01H DUP (?)			; right_g_e_force
?left_g_e_force@@3MA DD 01H DUP (?)			; left_g_e_force
?back_g_e_force@@3MA DD 01H DUP (?)			; back_g_e_force
?front_g_e_force@@3MA DD 01H DUP (?)			; front_g_e_force
?this_reaction_force@@3MA DD 01H DUP (?)		; this_reaction_force
?time@?BM@??update_main_rotor_rpm_dynamics@@YGXXZ@4MA DD 01H DUP (?) ; `update_main_rotor_rpm_dynamics'::`28'::time
?time@?DG@??update_attitude_dynamics@@YGXXZ@4MA DD 01H DUP (?) ; `update_attitude_dynamics'::`54'::time
?force@?LD@??update_attitude_dynamics@@YGXXZ@4MA DD 01H DUP (?) ; `update_attitude_dynamics'::`179'::force
?desired_force@?LD@??update_attitude_dynamics@@YGXXZ@4MA DD 01H DUP (?) ; `update_attitude_dynamics'::`179'::desired_force
_BSS	ENDS
;	COMDAT __xmm@80000000800000008000000080000000
CONST	SEGMENT
__xmm@80000000800000008000000080000000 DB 00H, 00H, 00H, 080H, 00H, 00H, 00H
	DB	080H, 00H, 00H, 00H, 080H, 00H, 00H, 00H, 080H
CONST	ENDS
;	COMDAT __xmm@80000000000000008000000000000000
CONST	SEGMENT
__xmm@80000000000000008000000000000000 DB 00H, 00H, 00H, 00H, 00H, 00H, 00H
	DB	080H, 00H, 00H, 00H, 00H, 00H, 00H, 00H, 080H
CONST	ENDS
;	COMDAT __real@c47a0000
CONST	SEGMENT
__real@c47a0000 DD 0c47a0000r			; -1000
CONST	ENDS
;	COMDAT __real@c2c80000
CONST	SEGMENT
__real@c2c80000 DD 0c2c80000r			; -100
CONST	ENDS
;	COMDAT __real@c2200000
CONST	SEGMENT
__real@c2200000 DD 0c2200000r			; -40
CONST	ENDS
;	COMDAT __real@c1c80000
CONST	SEGMENT
__real@c1c80000 DD 0c1c80000r			; -25
CONST	ENDS
;	COMDAT __real@c1a00000
CONST	SEGMENT
__real@c1a00000 DD 0c1a00000r			; -20
CONST	ENDS
;	COMDAT __real@c131999a
CONST	SEGMENT
__real@c131999a DD 0c131999ar			; -11.1
CONST	ENDS
;	COMDAT __real@c1200000
CONST	SEGMENT
__real@c1200000 DD 0c1200000r			; -10
CONST	ENDS
;	COMDAT __real@c10547ae
CONST	SEGMENT
__real@c10547ae DD 0c10547aer			; -8.33
CONST	ENDS
;	COMDAT __real@c0e99168
CONST	SEGMENT
__real@c0e99168 DD 0c0e99168r			; -7.299
CONST	ENDS
;	COMDAT __real@c0e00000
CONST	SEGMENT
__real@c0e00000 DD 0c0e00000r			; -7
CONST	ENDS
;	COMDAT __real@c0c90fdb
CONST	SEGMENT
__real@c0c90fdb DD 0c0c90fdbr			; -6.28319
CONST	ENDS
;	COMDAT __real@c0a00000
CONST	SEGMENT
__real@c0a00000 DD 0c0a00000r			; -5
CONST	ENDS
;	COMDAT __real@c059000000000000
CONST	SEGMENT
__real@c059000000000000 DQ 0c059000000000000r	; -100
CONST	ENDS
;	COMDAT __real@c0400000
CONST	SEGMENT
__real@c0400000 DD 0c0400000r			; -3
CONST	ENDS
;	COMDAT __real@c024000000000000
CONST	SEGMENT
__real@c024000000000000 DQ 0c024000000000000r	; -10
CONST	ENDS
;	COMDAT __real@c000000000000000
CONST	SEGMENT
__real@c000000000000000 DQ 0c000000000000000r	; -2
CONST	ENDS
;	COMDAT __real@bff0000000000000
CONST	SEGMENT
__real@bff0000000000000 DQ 0bff0000000000000r	; -1
CONST	ENDS
;	COMDAT __real@bfd999999999999a
CONST	SEGMENT
__real@bfd999999999999a DQ 0bfd999999999999ar	; -0.4
CONST	ENDS
;	COMDAT __real@bf800000
CONST	SEGMENT
__real@bf800000 DD 0bf800000r			; -1
CONST	ENDS
;	COMDAT __real@be4ccccd
CONST	SEGMENT
__real@be4ccccd DD 0be4ccccdr			; -0.2
CONST	ENDS
;	COMDAT __real@bdc49809
CONST	SEGMENT
__real@bdc49809 DD 0bdc49809r			; -0.0959931
CONST	ENDS
;	COMDAT __real@bd567750
CONST	SEGMENT
__real@bd567750 DD 0bd567750r			; -0.0523599
CONST	ENDS
;	COMDAT __real@bd0efa35
CONST	SEGMENT
__real@bd0efa35 DD 0bd0efa35r			; -0.0349066
CONST	ENDS
;	COMDAT __real@80000000
CONST	SEGMENT
__real@80000000 DD 080000000r			; -0
CONST	ENDS
;	COMDAT __real@469c4000
CONST	SEGMENT
__real@469c4000 DD 0469c4000r			; 20000
CONST	ENDS
;	COMDAT __real@461c4000
CONST	SEGMENT
__real@461c4000 DD 0461c4000r			; 10000
CONST	ENDS
;	COMDAT __real@45e9c000
CONST	SEGMENT
__real@45e9c000 DD 045e9c000r			; 7480
CONST	ENDS
;	COMDAT __real@450b6000
CONST	SEGMENT
__real@450b6000 DD 0450b6000r			; 2230
CONST	ENDS
;	COMDAT __real@44ce2000
CONST	SEGMENT
__real@44ce2000 DD 044ce2000r			; 1649
CONST	ENDS
;	COMDAT __real@44b98000
CONST	SEGMENT
__real@44b98000 DD 044b98000r			; 1484
CONST	ENDS
;	COMDAT __real@447a0000
CONST	SEGMENT
__real@447a0000 DD 0447a0000r			; 1000
CONST	ENDS
;	COMDAT __real@44480000
CONST	SEGMENT
__real@44480000 DD 044480000r			; 800
CONST	ENDS
;	COMDAT __real@441d1463
CONST	SEGMENT
__real@441d1463 DD 0441d1463r			; 628.319
CONST	ENDS
;	COMDAT __real@42f00000
CONST	SEGMENT
__real@42f00000 DD 042f00000r			; 120
CONST	ENDS
;	COMDAT __real@42ce25e0
CONST	SEGMENT
__real@42ce25e0 DD 042ce25e0r			; 103.074
CONST	ENDS
;	COMDAT __real@42cb0e45
CONST	SEGMENT
__real@42cb0e45 DD 042cb0e45r			; 101.528
CONST	ENDS
;	COMDAT __real@42c80000
CONST	SEGMENT
__real@42c80000 DD 042c80000r			; 100
CONST	ENDS
;	COMDAT __real@42652ee0
CONST	SEGMENT
__real@42652ee0 DD 042652ee0r			; 57.2958
CONST	ENDS
;	COMDAT __real@42480000
CONST	SEGMENT
__real@42480000 DD 042480000r			; 50
CONST	ENDS
;	COMDAT __real@42200000
CONST	SEGMENT
__real@42200000 DD 042200000r			; 40
CONST	ENDS
;	COMDAT __real@41f760a7
CONST	SEGMENT
__real@41f760a7 DD 041f760a7r			; 30.9222
CONST	ENDS
;	COMDAT __real@41f00000
CONST	SEGMENT
__real@41f00000 DD 041f00000r			; 30
CONST	ENDS
;	COMDAT __real@41d00000
CONST	SEGMENT
__real@41d00000 DD 041d00000r			; 26
CONST	ENDS
;	COMDAT __real@41a00000
CONST	SEGMENT
__real@41a00000 DD 041a00000r			; 20
CONST	ENDS
;	COMDAT __real@417b3333
CONST	SEGMENT
__real@417b3333 DD 0417b3333r			; 15.7
CONST	ENDS
;	COMDAT __real@41700000
CONST	SEGMENT
__real@41700000 DD 041700000r			; 15
CONST	ENDS
;	COMDAT __real@416a147b
CONST	SEGMENT
__real@416a147b DD 0416a147br			; 14.63
CONST	ENDS
;	COMDAT __real@4131999a
CONST	SEGMENT
__real@4131999a DD 04131999ar			; 11.1
CONST	ENDS
;	COMDAT __real@412970a4
CONST	SEGMENT
__real@412970a4 DD 0412970a4r			; 10.59
CONST	ENDS
;	COMDAT __real@41200000
CONST	SEGMENT
__real@41200000 DD 041200000r			; 10
CONST	ENDS
;	COMDAT __real@411cf5c3
CONST	SEGMENT
__real@411cf5c3 DD 0411cf5c3r			; 9.81
CONST	ENDS
;	COMDAT __real@41000000
CONST	SEGMENT
__real@41000000 DD 041000000r			; 8
CONST	ENDS
;	COMDAT __real@40e99168
CONST	SEGMENT
__real@40e99168 DD 040e99168r			; 7.299
CONST	ENDS
;	COMDAT __real@40c90fdb
CONST	SEGMENT
__real@40c90fdb DD 040c90fdbr			; 6.28319
CONST	ENDS
;	COMDAT __real@40c00000
CONST	SEGMENT
__real@40c00000 DD 040c00000r			; 6
CONST	ENDS
;	COMDAT __real@40a4eb1a
CONST	SEGMENT
__real@40a4eb1a DD 040a4eb1ar			; 5.1537
CONST	ENDS
;	COMDAT __real@40a00000
CONST	SEGMENT
__real@40a00000 DD 040a00000r			; 5
CONST	ENDS
;	COMDAT __real@4099c40000000000
CONST	SEGMENT
__real@4099c40000000000 DQ 04099c40000000000r	; 1649
CONST	ENDS
;	COMDAT __real@40900000
CONST	SEGMENT
__real@40900000 DD 040900000r			; 4.5
CONST	ENDS
;	COMDAT __real@405f400000000000
CONST	SEGMENT
__real@405f400000000000 DQ 0405f400000000000r	; 125
CONST	ENDS
;	COMDAT __real@4059000000000000
CONST	SEGMENT
__real@4059000000000000 DQ 04059000000000000r	; 100
CONST	ENDS
;	COMDAT __real@404e000000000000
CONST	SEGMENT
__real@404e000000000000 DQ 0404e000000000000r	; 60
CONST	ENDS
;	COMDAT __real@404b800000000000
CONST	SEGMENT
__real@404b800000000000 DQ 0404b800000000000r	; 55
CONST	ENDS
;	COMDAT __real@4046800000000000
CONST	SEGMENT
__real@4046800000000000 DQ 04046800000000000r	; 45
CONST	ENDS
;	COMDAT __real@4041800000000000
CONST	SEGMENT
__real@4041800000000000 DQ 04041800000000000r	; 35
CONST	ENDS
;	COMDAT __real@40400000
CONST	SEGMENT
__real@40400000 DD 040400000r			; 3
CONST	ENDS
;	COMDAT __real@403eec14e0000000
CONST	SEGMENT
__real@403eec14e0000000 DQ 0403eec14e0000000r	; 30.9222
CONST	ENDS
;	COMDAT __real@403e000000000000
CONST	SEGMENT
__real@403e000000000000 DQ 0403e000000000000r	; 30
CONST	ENDS
;	COMDAT __real@4034000000000000
CONST	SEGMENT
__real@4034000000000000 DQ 04034000000000000r	; 20
CONST	ENDS
;	COMDAT __real@40328f5c
CONST	SEGMENT
__real@40328f5c DD 040328f5cr			; 2.79
CONST	ENDS
;	COMDAT __real@40309d14e3bcd35b
CONST	SEGMENT
__real@40309d14e3bcd35b DQ 040309d14e3bcd35br	; 16.6136
CONST	ENDS
;	COMDAT __real@4030000000000000
CONST	SEGMENT
__real@4030000000000000 DQ 04030000000000000r	; 16
CONST	ENDS
;	COMDAT __real@402e000000000000
CONST	SEGMENT
__real@402e000000000000 DQ 0402e000000000000r	; 15
CONST	ENDS
;	COMDAT __real@4024000000000000
CONST	SEGMENT
__real@4024000000000000 DQ 04024000000000000r	; 10
CONST	ENDS
;	COMDAT __real@4020000000000000
CONST	SEGMENT
__real@4020000000000000 DQ 04020000000000000r	; 8
CONST	ENDS
;	COMDAT __real@4012000000000000
CONST	SEGMENT
__real@4012000000000000 DQ 04012000000000000r	; 4.5
CONST	ENDS
;	COMDAT __real@4010000000000000
CONST	SEGMENT
__real@4010000000000000 DQ 04010000000000000r	; 4
CONST	ENDS
;	COMDAT __real@400921fb60000000
CONST	SEGMENT
__real@400921fb60000000 DQ 0400921fb60000000r	; 3.14159
CONST	ENDS
;	COMDAT __real@4008000000000000
CONST	SEGMENT
__real@4008000000000000 DQ 04008000000000000r	; 3
CONST	ENDS
;	COMDAT __real@4000000000000000
CONST	SEGMENT
__real@4000000000000000 DQ 04000000000000000r	; 2
CONST	ENDS
;	COMDAT __real@40000000
CONST	SEGMENT
__real@40000000 DD 040000000r			; 2
CONST	ENDS
;	COMDAT __real@3ff8000000000000
CONST	SEGMENT
__real@3ff8000000000000 DQ 03ff8000000000000r	; 1.5
CONST	ENDS
;	COMDAT __real@3ff0000000000000
CONST	SEGMENT
__real@3ff0000000000000 DQ 03ff0000000000000r	; 1
CONST	ENDS
;	COMDAT __real@3feccccccccccccd
CONST	SEGMENT
__real@3feccccccccccccd DQ 03feccccccccccccdr	; 0.9
CONST	ENDS
;	COMDAT __real@3fe999999999999a
CONST	SEGMENT
__real@3fe999999999999a DQ 03fe999999999999ar	; 0.8
CONST	ENDS
;	COMDAT __real@3fe8000000000000
CONST	SEGMENT
__real@3fe8000000000000 DQ 03fe8000000000000r	; 0.75
CONST	ENDS
;	COMDAT __real@3fe4cccccccccccd
CONST	SEGMENT
__real@3fe4cccccccccccd DQ 03fe4cccccccccccdr	; 0.65
CONST	ENDS
;	COMDAT __real@3fe3333333333333
CONST	SEGMENT
__real@3fe3333333333333 DQ 03fe3333333333333r	; 0.6
CONST	ENDS
;	COMDAT __real@3fe0000000000000
CONST	SEGMENT
__real@3fe0000000000000 DQ 03fe0000000000000r	; 0.5
CONST	ENDS
;	COMDAT __real@3fd999999999999a
CONST	SEGMENT
__real@3fd999999999999a DQ 03fd999999999999ar	; 0.4
CONST	ENDS
;	COMDAT __real@3fd3333333333333
CONST	SEGMENT
__real@3fd3333333333333 DQ 03fd3333333333333r	; 0.3
CONST	ENDS
;	COMDAT __real@3fd0000000000000
CONST	SEGMENT
__real@3fd0000000000000 DQ 03fd0000000000000r	; 0.25
CONST	ENDS
;	COMDAT __real@3fcccccd
CONST	SEGMENT
__real@3fcccccd DD 03fcccccdr			; 1.6
CONST	ENDS
;	COMDAT __real@3fc999999999999a
CONST	SEGMENT
__real@3fc999999999999a DQ 03fc999999999999ar	; 0.2
CONST	ENDS
;	COMDAT __real@3fc00000
CONST	SEGMENT
__real@3fc00000 DD 03fc00000r			; 1.5
CONST	ENDS
;	COMDAT __real@3fb999999999999a
CONST	SEGMENT
__real@3fb999999999999a DQ 03fb999999999999ar	; 0.1
CONST	ENDS
;	COMDAT __real@3fb6571848000000
CONST	SEGMENT
__real@3fb6571848000000 DQ 03fb6571848000000r	; 0.0872665
CONST	ENDS
;	COMDAT __real@3fa999999999999a
CONST	SEGMENT
__real@3fa999999999999a DQ 03fa999999999999ar	; 0.05
CONST	ENDS
;	COMDAT __real@3fa16872b020c49c
CONST	SEGMENT
__real@3fa16872b020c49c DQ 03fa16872b020c49cr	; 0.034
CONST	ENDS
;	COMDAT __real@3f99999a
CONST	SEGMENT
__real@3f99999a DD 03f99999ar			; 1.2
CONST	ENDS
;	COMDAT __real@3f8b4cc25072085c
CONST	SEGMENT
__real@3f8b4cc25072085c DQ 03f8b4cc25072085cr	; 0.01333
CONST	ENDS
;	COMDAT __real@3f800000
CONST	SEGMENT
__real@3f800000 DD 03f800000r			; 1
CONST	ENDS
;	COMDAT __real@3f689374bc6a7efa
CONST	SEGMENT
__real@3f689374bc6a7efa DQ 03f689374bc6a7efar	; 0.003
CONST	ENDS
;	COMDAT __real@3f666666
CONST	SEGMENT
__real@3f666666 DD 03f666666r			; 0.9
CONST	ENDS
;	COMDAT __real@3f50624dd2f1a9fc
CONST	SEGMENT
__real@3f50624dd2f1a9fc DQ 03f50624dd2f1a9fcr	; 0.001
CONST	ENDS
;	COMDAT __real@3f364840e1719f80
CONST	SEGMENT
__real@3f364840e1719f80 DQ 03f364840e1719f80r	; 0.00034
CONST	ENDS
;	COMDAT __real@3f333333
CONST	SEGMENT
__real@3f333333 DD 03f333333r			; 0.7
CONST	ENDS
;	COMDAT __real@3f1a36e2eb1c432d
CONST	SEGMENT
__real@3f1a36e2eb1c432d DQ 03f1a36e2eb1c432dr	; 0.0001
CONST	ENDS
;	COMDAT __real@3f10000000000000
CONST	SEGMENT
__real@3f10000000000000 DQ 03f10000000000000r	; 6.10352e-05
CONST	ENDS
;	COMDAT __real@3f00002000400080
CONST	SEGMENT
__real@3f00002000400080 DQ 03f00002000400080r	; 3.05185e-05
CONST	ENDS
;	COMDAT __real@3f000000
CONST	SEGMENT
__real@3f000000 DD 03f000000r			; 0.5
CONST	ENDS
;	COMDAT __real@3ecda922
CONST	SEGMENT
__real@3ecda922 DD 03ecda922r			; 0.401681
CONST	ENDS
;	COMDAT __real@3ecccccd
CONST	SEGMENT
__real@3ecccccd DD 03ecccccdr			; 0.4
CONST	ENDS
;	COMDAT __real@3e99999a
CONST	SEGMENT
__real@3e99999a DD 03e99999ar			; 0.3
CONST	ENDS
;	COMDAT __real@3e060a92
CONST	SEGMENT
__real@3e060a92 DD 03e060a92r			; 0.1309
CONST	ENDS
;	COMDAT __real@3de8a71e
CONST	SEGMENT
__real@3de8a71e DD 03de8a71er			; 0.1136
CONST	ENDS
;	COMDAT __real@3dcccccd
CONST	SEGMENT
__real@3dcccccd DD 03dcccccdr			; 0.1
CONST	ENDS
;	COMDAT __real@3dc49809
CONST	SEGMENT
__real@3dc49809 DD 03dc49809r			; 0.0959931
CONST	ENDS
;	COMDAT __real@3db2b8c2
CONST	SEGMENT
__real@3db2b8c2 DD 03db2b8c2r			; 0.0872665
CONST	ENDS
;	COMDAT __real@3d0efa35
CONST	SEGMENT
__real@3d0efa35 DD 03d0efa35r			; 0.0349066
CONST	ENDS
;	COMDAT __real@3c8efa35
CONST	SEGMENT
__real@3c8efa35 DD 03c8efa35r			; 0.0174533
CONST	ENDS
;	COMDAT __real@3c23d70a
CONST	SEGMENT
__real@3c23d70a DD 03c23d70ar			; 0.01
CONST	ENDS
;	COMDAT __real@0000000000000000
CONST	SEGMENT
__real@0000000000000000 DQ 00000000000000000r	; 0
CONST	ENDS
;	COMDAT __real@00000000
CONST	SEGMENT
__real@00000000 DD 000000000r			; 0
CONST	ENDS
;	COMDAT ??_C@_1BC@BLAPCBGI@?$AAs?$AAt?$AAd?$AA?3?$AA?3?$AAm?$AAi?$AAn@
CONST	SEGMENT
??_C@_1BC@BLAPCBGI@?$AAs?$AAt?$AAd?$AA?3?$AA?3?$AAm?$AAi?$AAn@ DB 's', 00H
	DB	't', 00H, 'd', 00H, ':', 00H, ':', 00H, 'm', 00H, 'i', 00H, 'n'
	DB	00H, 00H, 00H				; `string'
CONST	ENDS
;	COMDAT ??_C@_1CK@NDNHPKPI@?$AA?$CC?$AAi?$AAn?$AAv?$AAa?$AAl?$AAi?$AAd?$AA?5?$AAc?$AAo?$AAm?$AAp?$AAa?$AAr@
CONST	SEGMENT
??_C@_1CK@NDNHPKPI@?$AA?$CC?$AAi?$AAn?$AAv?$AAa?$AAl?$AAi?$AAd?$AA?5?$AAc?$AAo?$AAm?$AAp?$AAa?$AAr@ DB '"'
	DB	00H, 'i', 00H, 'n', 00H, 'v', 00H, 'a', 00H, 'l', 00H, 'i', 00H
	DB	'd', 00H, ' ', 00H, 'c', 00H, 'o', 00H, 'm', 00H, 'p', 00H, 'a'
	DB	00H, 'r', 00H, 'a', 00H, 't', 00H, 'o', 00H, 'r', 00H, '"', 00H
	DB	00H, 00H					; `string'
CONST	ENDS
;	COMDAT ??_C@_1BC@ICCOKLEG@?$AAs?$AAt?$AAd?$AA?3?$AA?3?$AAm?$AAa?$AAx@
CONST	SEGMENT
??_C@_1BC@ICCOKLEG@?$AAs?$AAt?$AAd?$AA?3?$AA?3?$AAm?$AAa?$AAx@ DB 's', 00H
	DB	't', 00H, 'd', 00H, ':', 00H, ':', 00H, 'm', 00H, 'a', 00H, 'x'
	DB	00H, 00H, 00H				; `string'
CONST	ENDS
;	COMDAT ??_C@_1NE@FKBPBJEB@?$AAc?$AA?3?$AA?2?$AAp?$AAr?$AAo?$AAg?$AAr?$AAa?$AAm?$AA?5?$AAf?$AAi?$AAl?$AAe@
CONST	SEGMENT
??_C@_1NE@FKBPBJEB@?$AAc?$AA?3?$AA?2?$AAp?$AAr?$AAo?$AAg?$AAr?$AAa?$AAm?$AA?5?$AAf?$AAi?$AAl?$AAe@ DB 'c'
	DB	00H, ':', 00H, '\', 00H, 'p', 00H, 'r', 00H, 'o', 00H, 'g', 00H
	DB	'r', 00H, 'a', 00H, 'm', 00H, ' ', 00H, 'f', 00H, 'i', 00H, 'l'
	DB	00H, 'e', 00H, 's', 00H, ' ', 00H, '(', 00H, 'x', 00H, '8', 00H
	DB	'6', 00H, ')', 00H, '\', 00H, 'm', 00H, 'i', 00H, 'c', 00H, 'r'
	DB	00H, 'o', 00H, 's', 00H, 'o', 00H, 'f', 00H, 't', 00H, ' ', 00H
	DB	'v', 00H, 'i', 00H, 's', 00H, 'u', 00H, 'a', 00H, 'l', 00H, ' '
	DB	00H, 's', 00H, 't', 00H, 'u', 00H, 'd', 00H, 'i', 00H, 'o', 00H
	DB	'\', 00H, '2', 00H, '0', 00H, '1', 00H, '7', 00H, '\', 00H, 'c'
	DB	00H, 'o', 00H, 'm', 00H, 'm', 00H, 'u', 00H, 'n', 00H, 'i', 00H
	DB	't', 00H, 'y', 00H, '\', 00H, 'v', 00H, 'c', 00H, '\', 00H, 't'
	DB	00H, 'o', 00H, 'o', 00H, 'l', 00H, 's', 00H, '\', 00H, 'm', 00H
	DB	's', 00H, 'v', 00H, 'c', 00H, '\', 00H, '1', 00H, '4', 00H, '.'
	DB	00H, '1', 00H, '6', 00H, '.', 00H, '2', 00H, '7', 00H, '0', 00H
	DB	'2', 00H, '3', 00H, '\', 00H, 'i', 00H, 'n', 00H, 'c', 00H, 'l'
	DB	00H, 'u', 00H, 'd', 00H, 'e', 00H, '\', 00H, 'a', 00H, 'l', 00H
	DB	'g', 00H, 'o', 00H, 'r', 00H, 'i', 00H, 't', 00H, 'h', 00H, 'm'
	DB	00H, 00H, 00H				; `string'
CONST	ENDS
;	COMDAT ??_C@_0GK@JMBMHIBC@c?3?2program?5files?5?$CIx86?$CJ?2microsof@
CONST	SEGMENT
??_C@_0GK@JMBMHIBC@c?3?2program?5files?5?$CIx86?$CJ?2microsof@ DB 'c:\pro'
	DB	'gram files (x86)\microsoft visual studio\2017\community\vc\to'
	DB	'ols\msvc\14.16.27023\include\algorithm', 00H ; `string'
CONST	ENDS
;	COMDAT ??_C@_0BD@FEEMDEPI@invalid?5comparator@
CONST	SEGMENT
??_C@_0BD@FEEMDEPI@invalid?5comparator@ DB 'invalid comparator', 00H ; `string'
CONST	ENDS
;	COMDAT ?__LINE__Var@?0??update_acceleration_dynamics@@YGXXZ@4JA
_DATA	SEGMENT
?__LINE__Var@?0??update_acceleration_dynamics@@YGXXZ@4JA DD 0a75H ; `update_acceleration_dynamics'::`1'::__LINE__Var
_DATA	ENDS
;	COMDAT ??_C@_0BG@EBOEKGCA@Ground?5Friction?5force@
CONST	SEGMENT
??_C@_0BG@EBOEKGCA@Ground?5Friction?5force@ DB 'Ground Friction force', 00H ; `string'
CONST	ENDS
;	COMDAT ??_C@_04LGBIOLDJ@Wind@
CONST	SEGMENT
??_C@_04LGBIOLDJ@Wind@ DB 'Wind', 00H			; `string'
CONST	ENDS
;	COMDAT ??_C@_0BC@MPODPIKD@Vortex?5ring?5force@
CONST	SEGMENT
??_C@_0BC@MPODPIKD@Vortex?5ring?5force@ DB 'Vortex ring force', 00H ; `string'
CONST	ENDS
;	COMDAT ??_C@_0BK@ONPBLKKA@Right?5rotor?5Ground?5effect@
CONST	SEGMENT
??_C@_0BK@ONPBLKKA@Right?5rotor?5Ground?5effect@ DB 'Right rotor Ground e'
	DB	'ffect', 00H					; `string'
CONST	ENDS
;	COMDAT ??_C@_0BJ@KEABEFD@Left?5rotor?5Ground?5effect@
CONST	SEGMENT
??_C@_0BJ@KEABEFD@Left?5rotor?5Ground?5effect@ DB 'Left rotor Ground effe'
	DB	'ct', 00H					; `string'
CONST	ENDS
;	COMDAT ??_C@_0BJ@MKNEGMFL@Back?5rotor?5Ground?5effect@
CONST	SEGMENT
??_C@_0BJ@MKNEGMFL@Back?5rotor?5Ground?5effect@ DB 'Back rotor Ground eff'
	DB	'ect', 00H					; `string'
CONST	ENDS
;	COMDAT ??_C@_0BK@BDABDLEI@Front?5rotor?5Ground?5effect@
CONST	SEGMENT
??_C@_0BK@BDABDLEI@Front?5rotor?5Ground?5effect@ DB 'Front rotor Ground e'
	DB	'ffect', 00H					; `string'
CONST	ENDS
;	COMDAT ??_C@_0BL@CBNCBPEP@Middle?5rotor?5Ground?5effect@
CONST	SEGMENT
??_C@_0BL@CBNCBPEP@Middle?5rotor?5Ground?5effect@ DB 'Middle rotor Ground'
	DB	' effect', 00H				; `string'
CONST	ENDS
;	COMDAT ??_C@_0BF@LAMOPNAJ@Vertical?5motion?5drag@
CONST	SEGMENT
??_C@_0BF@LAMOPNAJ@Vertical?5motion?5drag@ DB 'Vertical motion drag', 00H ; `string'
CONST	ENDS
;	COMDAT ??_C@_0BE@DICEDONG@Lateral?5motion?5drag@
CONST	SEGMENT
??_C@_0BE@DICEDONG@Lateral?5motion?5drag@ DB 'Lateral motion drag', 00H ; `string'
CONST	ENDS
;	COMDAT ??_C@_0BE@JPPEFMCN@Forward?5motion?5drag@
CONST	SEGMENT
??_C@_0BE@JPPEFMCN@Forward?5motion?5drag@ DB 'Forward motion drag', 00H ; `string'
CONST	ENDS
;	COMDAT ??_C@_0BH@IEIJHFAG@Realign?5force?5?$CIX?5axis?$CJ@
CONST	SEGMENT
??_C@_0BH@IEIJHFAG@Realign?5force?5?$CIX?5axis?$CJ@ DB 'Realign force (X '
	DB	'axis)', 00H					; `string'
CONST	ENDS
;	COMDAT ??_C@_0BH@EICDHFJI@Realign?5force?5?$CIY?5axis?$CJ@
CONST	SEGMENT
??_C@_0BH@EICDHFJI@Realign?5force?5?$CIY?5axis?$CJ@ DB 'Realign force (Y '
	DB	'axis)', 00H					; `string'
CONST	ENDS
;	COMDAT ??_C@_0P@OJCKBBIP@Yaw?5resistance@
CONST	SEGMENT
??_C@_0P@OJCKBBIP@Yaw?5resistance@ DB 'Yaw resistance', 00H ; `string'
CONST	ENDS
;	COMDAT ??_C@_0BA@JHNCKIDL@Roll?5resistance@
CONST	SEGMENT
??_C@_0BA@JHNCKIDL@Roll?5resistance@ DB 'Roll resistance', 00H ; `string'
CONST	ENDS
;	COMDAT ??_C@_0BB@FPOJGHNF@Pitch?5resistance@
CONST	SEGMENT
??_C@_0BB@FPOJGHNF@Pitch?5resistance@ DB 'Pitch resistance', 00H ; `string'
CONST	ENDS
;	COMDAT ??_C@_0BK@DILBAPLM@Main?5rotor?5angular?5torque@
CONST	SEGMENT
??_C@_0BK@DILBAPLM@Main?5rotor?5angular?5torque@ DB 'Main rotor angular t'
	DB	'orque', 00H					; `string'
CONST	ENDS
;	COMDAT ??_C@_0O@JIJAGCOD@Sonic?5buildup@
CONST	SEGMENT
??_C@_0O@JIJAGCOD@Sonic?5buildup@ DB 'Sonic buildup', 00H ; `string'
CONST	ENDS
;	COMDAT ??_C@_0BC@GCGACPAK@Transitional?5lift@
CONST	SEGMENT
??_C@_0BC@GCGACPAK@Transitional?5lift@ DB 'Transitional lift', 00H ; `string'
CONST	ENDS
;	COMDAT ??_C@_07JMGDFJEK@Gravity@
CONST	SEGMENT
??_C@_07JMGDFJEK@Gravity@ DB 'Gravity', 00H		; `string'
CONST	ENDS
;	COMDAT ??_C@_0BC@BCPABIID@Right?5rotor?5force@
CONST	SEGMENT
??_C@_0BC@BCPABIID@Right?5rotor?5force@ DB 'Right rotor force', 00H ; `string'
CONST	ENDS
;	COMDAT ??_C@_0BB@JNCAICOI@Left?5rotor?5force@
CONST	SEGMENT
??_C@_0BB@JNCAICOI@Left?5rotor?5force@ DB 'Left rotor force', 00H ; `string'
CONST	ENDS
;	COMDAT ??_C@_0BB@LJEAAOI@Back?5rotor?5force@
CONST	SEGMENT
??_C@_0BB@LJEAAOI@Back?5rotor?5force@ DB 'Back rotor force', 00H ; `string'
CONST	ENDS
;	COMDAT ??_C@_0BC@MEMJFFEH@Front?5rotor?5force@
CONST	SEGMENT
??_C@_0BC@MEMJFFEH@Front?5rotor?5force@ DB 'Front rotor force', 00H ; `string'
CONST	ENDS
;	COMDAT ??_C@_0BD@BBEFFKGJ@Middle?5rotor?5force@
CONST	SEGMENT
??_C@_0BD@BBEFFKGJ@Middle?5rotor?5force@ DB 'Middle rotor force', 00H ; `string'
CONST	ENDS
;	COMDAT ??_C@_0O@DAHLPFDH@Taxiing?5force@
CONST	SEGMENT
??_C@_0O@DAHLPFDH@Taxiing?5force@ DB 'Taxiing force', 00H ; `string'
CONST	ENDS
;	COMDAT ??_C@_0BD@EHBODOFB@DYNAMICS?3?5UNSTABLE@
CONST	SEGMENT
??_C@_0BD@EHBODOFB@DYNAMICS?3?5UNSTABLE@ DB 'DYNAMICS: UNSTABLE', 00H ; `string'
CONST	ENDS
;	COMDAT ?__LINE__Var@?0??update_attitude_dynamics@@YGXXZ@4JA
_DATA	SEGMENT
?__LINE__Var@?0??update_attitude_dynamics@@YGXXZ@4JA DD 04e6H ; `update_attitude_dynamics'::`1'::__LINE__Var
_DATA	ENDS
;	COMDAT ??_C@_0EN@OILCBPIN@c?3?2users?2nhv90?2projects?2eech?2ap@
CONST	SEGMENT
??_C@_0EN@OILCBPIN@c?3?2users?2nhv90?2projects?2eech?2ap@ DB 'c:\users\nh'
	DB	'v90\projects\eech\aphavoc\source\gunships\dynamics\hokum\ho_d'
	DB	'yn.c', 00H					; `string'
CONST	ENDS
;	COMDAT ?__LINE__Var@?0??set_dynamics_defaults@@YGXPAUENTITY@@@Z@4JA
_DATA	SEGMENT
?__LINE__Var@?0??set_dynamics_defaults@@YGXPAUENTITY@@@Z@4JA DD 091H ; `set_dynamics_defaults'::`1'::__LINE__Var
_DATA	ENDS
;	COMDAT ??_C@_0BJ@GKCIPEIG@?4?4?2common?2data?2hokum?4dyn@
CONST	SEGMENT
??_C@_0BJ@GKCIPEIG@?4?4?2common?2data?2hokum?4dyn@ DB '..\common\data\hok'
	DB	'um.dyn', 00H				; `string'
CONST	ENDS
;	COMDAT ??_C@_02DKCKIIND@?$CFs@
CONST	SEGMENT
??_C@_02DKCKIIND@?$CFs@ DB '%s', 00H			; `string'
CONST	ENDS
; Function compile flags: /Odtp /ZI
; File c:\users\nhv90\projects\eech\aphavoc\source\gunships\dynamics\hokum\ho_dyn.c
;	COMDAT ?hokum_restore_damage_values@@YGXXZ
_TEXT	SEGMENT
?hokum_restore_damage_values@@YGXXZ PROC		; hokum_restore_damage_values, COMDAT

; 2811 : {

  00000	55		 push	 ebp
  00001	8b ec		 mov	 ebp, esp
  00003	83 ec 40	 sub	 esp, 64			; 00000040H
  00006	53		 push	 ebx
  00007	56		 push	 esi
  00008	57		 push	 edi

; 2812 : 
; 2813 : 	current_flight_dynamics->centre_of_gravity.x = 0.00;

  00009	a1 00 00 00 00	 mov	 eax, DWORD PTR ?current_flight_dynamics@@3PAUDYNAMICS_TYPE@@A ; current_flight_dynamics
  0000e	0f 57 c0	 xorps	 xmm0, xmm0
  00011	f3 0f 11 80 24
	1c 00 00	 movss	 DWORD PTR [eax+7204], xmm0

; 2814 : 	current_flight_dynamics->centre_of_gravity.y = -0.2;

  00019	a1 00 00 00 00	 mov	 eax, DWORD PTR ?current_flight_dynamics@@3PAUDYNAMICS_TYPE@@A ; current_flight_dynamics
  0001e	f3 0f 10 05 00
	00 00 00	 movss	 xmm0, DWORD PTR __real@be4ccccd
  00026	f3 0f 11 80 28
	1c 00 00	 movss	 DWORD PTR [eax+7208], xmm0

; 2815 : 	current_flight_dynamics->centre_of_gravity.z = -0.0;

  0002e	a1 00 00 00 00	 mov	 eax, DWORD PTR ?current_flight_dynamics@@3PAUDYNAMICS_TYPE@@A ; current_flight_dynamics
  00033	f3 0f 10 05 00
	00 00 00	 movss	 xmm0, DWORD PTR __real@80000000
  0003b	f3 0f 11 80 2c
	1c 00 00	 movss	 DWORD PTR [eax+7212], xmm0

; 2816 : }

  00043	5f		 pop	 edi
  00044	5e		 pop	 esi
  00045	5b		 pop	 ebx
  00046	8b e5		 mov	 esp, ebp
  00048	5d		 pop	 ebp
  00049	c3		 ret	 0
?hokum_restore_damage_values@@YGXXZ ENDP		; hokum_restore_damage_values
_TEXT	ENDS
; Function compile flags: /Odtp /ZI
; File c:\program files (x86)\microsoft visual studio\2017\community\vc\tools\msvc\14.16.27023\include\algorithm
;	COMDAT ??$min@M@std@@YGABMABM0@Z
_TEXT	SEGMENT
__Left$ = 8						; size = 4
__Right$ = 12						; size = 4
??$min@M@std@@YGABMABM0@Z PROC				; std::min<float>, COMDAT

; 5427 : 	{	// return smaller of _Left and _Right

  00000	55		 push	 ebp
  00001	8b ec		 mov	 ebp, esp
  00003	83 ec 40	 sub	 esp, 64			; 00000040H
  00006	53		 push	 ebx
  00007	56		 push	 esi
  00008	57		 push	 edi

; 5428 : 	if (_Right < _Left)

  00009	8b 45 08	 mov	 eax, DWORD PTR __Left$[ebp]
  0000c	8b 4d 0c	 mov	 ecx, DWORD PTR __Right$[ebp]
  0000f	f3 0f 10 00	 movss	 xmm0, DWORD PTR [eax]
  00013	0f 2f 01	 comiss	 xmm0, DWORD PTR [ecx]
  00016	76 64		 jbe	 SHORT $LN8@min
$LN4@min:

; 5429 : 		{
; 5430 : 		_STL_ASSERT(!(_Left < _Right), "invalid comparator");

  00018	8b 45 0c	 mov	 eax, DWORD PTR __Right$[ebp]
  0001b	8b 4d 08	 mov	 ecx, DWORD PTR __Left$[ebp]
  0001e	f3 0f 10 00	 movss	 xmm0, DWORD PTR [eax]
  00022	0f 2f 01	 comiss	 xmm0, DWORD PTR [ecx]
  00025	77 02		 ja	 SHORT $LN9@min
  00027	eb 4a		 jmp	 SHORT $LN6@min
$LN9@min:
  00029	68 00 00 00 00	 push	 OFFSET ??_C@_0BD@FEEMDEPI@invalid?5comparator@
  0002e	68 00 00 00 00	 push	 OFFSET ??_C@_02DKCKIIND@?$CFs@
  00033	6a 00		 push	 0
  00035	68 36 15 00 00	 push	 5430			; 00001536H
  0003a	68 00 00 00 00	 push	 OFFSET ??_C@_0GK@JMBMHIBC@c?3?2program?5files?5?$CIx86?$CJ?2microsof@
  0003f	6a 02		 push	 2
  00041	ff 15 00 00 00
	00		 call	 DWORD PTR __imp___CrtDbgReport
  00047	83 c4 18	 add	 esp, 24			; 00000018H
  0004a	83 f8 01	 cmp	 eax, 1
  0004d	75 01		 jne	 SHORT $LN12@min
  0004f	cc		 int	 3
$LN12@min:
  00050	6a 00		 push	 0
  00052	68 36 15 00 00	 push	 5430			; 00001536H
  00057	68 00 00 00 00	 push	 OFFSET ??_C@_1NE@FKBPBJEB@?$AAc?$AA?3?$AA?2?$AAp?$AAr?$AAo?$AAg?$AAr?$AAa?$AAm?$AA?5?$AAf?$AAi?$AAl?$AAe@
  0005c	68 00 00 00 00	 push	 OFFSET ??_C@_1BC@BLAPCBGI@?$AAs?$AAt?$AAd?$AA?3?$AA?3?$AAm?$AAi?$AAn@
  00061	68 00 00 00 00	 push	 OFFSET ??_C@_1CK@NDNHPKPI@?$AA?$CC?$AAi?$AAn?$AAv?$AAa?$AAl?$AAi?$AAd?$AA?5?$AAc?$AAo?$AAm?$AAp?$AAa?$AAr@
  00066	ff 15 00 00 00
	00		 call	 DWORD PTR __imp___invalid_parameter
  0006c	83 c4 14	 add	 esp, 20			; 00000014H
  0006f	33 c0		 xor	 eax, eax
  00071	75 b6		 jne	 SHORT $LN9@min
$LN6@min:
  00073	33 c0		 xor	 eax, eax
  00075	75 a1		 jne	 SHORT $LN4@min

; 5431 : 		return (_Right);

  00077	8b 45 0c	 mov	 eax, DWORD PTR __Right$[ebp]
  0007a	eb 03		 jmp	 SHORT $LN1@min
$LN8@min:

; 5432 : 		}
; 5433 : 
; 5434 : 	return (_Left);

  0007c	8b 45 08	 mov	 eax, DWORD PTR __Left$[ebp]
$LN1@min:

; 5435 : 	}

  0007f	5f		 pop	 edi
  00080	5e		 pop	 esi
  00081	5b		 pop	 ebx
  00082	8b e5		 mov	 esp, ebp
  00084	5d		 pop	 ebp
  00085	c2 08 00	 ret	 8
??$min@M@std@@YGABMABM0@Z ENDP				; std::min<float>
_TEXT	ENDS
; Function compile flags: /Odtp /ZI
; File c:\program files (x86)\microsoft visual studio\2017\community\vc\tools\msvc\14.16.27023\include\algorithm
;	COMDAT ??$min@N@std@@YGABNABN0@Z
_TEXT	SEGMENT
__Left$ = 8						; size = 4
__Right$ = 12						; size = 4
??$min@N@std@@YGABNABN0@Z PROC				; std::min<double>, COMDAT

; 5427 : 	{	// return smaller of _Left and _Right

  00000	55		 push	 ebp
  00001	8b ec		 mov	 ebp, esp
  00003	83 ec 40	 sub	 esp, 64			; 00000040H
  00006	53		 push	 ebx
  00007	56		 push	 esi
  00008	57		 push	 edi

; 5428 : 	if (_Right < _Left)

  00009	8b 45 08	 mov	 eax, DWORD PTR __Left$[ebp]
  0000c	8b 4d 0c	 mov	 ecx, DWORD PTR __Right$[ebp]
  0000f	f2 0f 10 00	 movsd	 xmm0, QWORD PTR [eax]
  00013	66 0f 2f 01	 comisd	 xmm0, QWORD PTR [ecx]
  00017	76 65		 jbe	 SHORT $LN8@min
$LN4@min:

; 5429 : 		{
; 5430 : 		_STL_ASSERT(!(_Left < _Right), "invalid comparator");

  00019	8b 45 0c	 mov	 eax, DWORD PTR __Right$[ebp]
  0001c	8b 4d 08	 mov	 ecx, DWORD PTR __Left$[ebp]
  0001f	f2 0f 10 00	 movsd	 xmm0, QWORD PTR [eax]
  00023	66 0f 2f 01	 comisd	 xmm0, QWORD PTR [ecx]
  00027	77 02		 ja	 SHORT $LN9@min
  00029	eb 4a		 jmp	 SHORT $LN6@min
$LN9@min:
  0002b	68 00 00 00 00	 push	 OFFSET ??_C@_0BD@FEEMDEPI@invalid?5comparator@
  00030	68 00 00 00 00	 push	 OFFSET ??_C@_02DKCKIIND@?$CFs@
  00035	6a 00		 push	 0
  00037	68 36 15 00 00	 push	 5430			; 00001536H
  0003c	68 00 00 00 00	 push	 OFFSET ??_C@_0GK@JMBMHIBC@c?3?2program?5files?5?$CIx86?$CJ?2microsof@
  00041	6a 02		 push	 2
  00043	ff 15 00 00 00
	00		 call	 DWORD PTR __imp___CrtDbgReport
  00049	83 c4 18	 add	 esp, 24			; 00000018H
  0004c	83 f8 01	 cmp	 eax, 1
  0004f	75 01		 jne	 SHORT $LN12@min
  00051	cc		 int	 3
$LN12@min:
  00052	6a 00		 push	 0
  00054	68 36 15 00 00	 push	 5430			; 00001536H
  00059	68 00 00 00 00	 push	 OFFSET ??_C@_1NE@FKBPBJEB@?$AAc?$AA?3?$AA?2?$AAp?$AAr?$AAo?$AAg?$AAr?$AAa?$AAm?$AA?5?$AAf?$AAi?$AAl?$AAe@
  0005e	68 00 00 00 00	 push	 OFFSET ??_C@_1BC@BLAPCBGI@?$AAs?$AAt?$AAd?$AA?3?$AA?3?$AAm?$AAi?$AAn@
  00063	68 00 00 00 00	 push	 OFFSET ??_C@_1CK@NDNHPKPI@?$AA?$CC?$AAi?$AAn?$AAv?$AAa?$AAl?$AAi?$AAd?$AA?5?$AAc?$AAo?$AAm?$AAp?$AAa?$AAr@
  00068	ff 15 00 00 00
	00		 call	 DWORD PTR __imp___invalid_parameter
  0006e	83 c4 14	 add	 esp, 20			; 00000014H
  00071	33 c0		 xor	 eax, eax
  00073	75 b6		 jne	 SHORT $LN9@min
$LN6@min:
  00075	33 c0		 xor	 eax, eax
  00077	75 a0		 jne	 SHORT $LN4@min

; 5431 : 		return (_Right);

  00079	8b 45 0c	 mov	 eax, DWORD PTR __Right$[ebp]
  0007c	eb 03		 jmp	 SHORT $LN1@min
$LN8@min:

; 5432 : 		}
; 5433 : 
; 5434 : 	return (_Left);

  0007e	8b 45 08	 mov	 eax, DWORD PTR __Left$[ebp]
$LN1@min:

; 5435 : 	}

  00081	5f		 pop	 edi
  00082	5e		 pop	 esi
  00083	5b		 pop	 ebx
  00084	8b e5		 mov	 esp, ebp
  00086	5d		 pop	 ebp
  00087	c2 08 00	 ret	 8
??$min@N@std@@YGABNABN0@Z ENDP				; std::min<double>
_TEXT	ENDS
; Function compile flags: /Odtp /ZI
; File c:\program files (x86)\microsoft visual studio\2017\community\vc\tools\msvc\14.16.27023\include\algorithm
;	COMDAT ??$max@N@std@@YGABNABN0@Z
_TEXT	SEGMENT
__Left$ = 8						; size = 4
__Right$ = 12						; size = 4
??$max@N@std@@YGABNABN0@Z PROC				; std::max<double>, COMDAT

; 5387 : 	{	// return larger of _Left and _Right

  00000	55		 push	 ebp
  00001	8b ec		 mov	 ebp, esp
  00003	83 ec 40	 sub	 esp, 64			; 00000040H
  00006	53		 push	 ebx
  00007	56		 push	 esi
  00008	57		 push	 edi

; 5388 : 	if (_Left < _Right)

  00009	8b 45 0c	 mov	 eax, DWORD PTR __Right$[ebp]
  0000c	8b 4d 08	 mov	 ecx, DWORD PTR __Left$[ebp]
  0000f	f2 0f 10 00	 movsd	 xmm0, QWORD PTR [eax]
  00013	66 0f 2f 01	 comisd	 xmm0, QWORD PTR [ecx]
  00017	76 65		 jbe	 SHORT $LN8@max
$LN4@max:

; 5389 : 		{
; 5390 : 		_STL_ASSERT(!(_Right < _Left), "invalid comparator");

  00019	8b 45 08	 mov	 eax, DWORD PTR __Left$[ebp]
  0001c	8b 4d 0c	 mov	 ecx, DWORD PTR __Right$[ebp]
  0001f	f2 0f 10 00	 movsd	 xmm0, QWORD PTR [eax]
  00023	66 0f 2f 01	 comisd	 xmm0, QWORD PTR [ecx]
  00027	77 02		 ja	 SHORT $LN9@max
  00029	eb 4a		 jmp	 SHORT $LN6@max
$LN9@max:
  0002b	68 00 00 00 00	 push	 OFFSET ??_C@_0BD@FEEMDEPI@invalid?5comparator@
  00030	68 00 00 00 00	 push	 OFFSET ??_C@_02DKCKIIND@?$CFs@
  00035	6a 00		 push	 0
  00037	68 0e 15 00 00	 push	 5390			; 0000150eH
  0003c	68 00 00 00 00	 push	 OFFSET ??_C@_0GK@JMBMHIBC@c?3?2program?5files?5?$CIx86?$CJ?2microsof@
  00041	6a 02		 push	 2
  00043	ff 15 00 00 00
	00		 call	 DWORD PTR __imp___CrtDbgReport
  00049	83 c4 18	 add	 esp, 24			; 00000018H
  0004c	83 f8 01	 cmp	 eax, 1
  0004f	75 01		 jne	 SHORT $LN12@max
  00051	cc		 int	 3
$LN12@max:
  00052	6a 00		 push	 0
  00054	68 0e 15 00 00	 push	 5390			; 0000150eH
  00059	68 00 00 00 00	 push	 OFFSET ??_C@_1NE@FKBPBJEB@?$AAc?$AA?3?$AA?2?$AAp?$AAr?$AAo?$AAg?$AAr?$AAa?$AAm?$AA?5?$AAf?$AAi?$AAl?$AAe@
  0005e	68 00 00 00 00	 push	 OFFSET ??_C@_1BC@ICCOKLEG@?$AAs?$AAt?$AAd?$AA?3?$AA?3?$AAm?$AAa?$AAx@
  00063	68 00 00 00 00	 push	 OFFSET ??_C@_1CK@NDNHPKPI@?$AA?$CC?$AAi?$AAn?$AAv?$AAa?$AAl?$AAi?$AAd?$AA?5?$AAc?$AAo?$AAm?$AAp?$AAa?$AAr@
  00068	ff 15 00 00 00
	00		 call	 DWORD PTR __imp___invalid_parameter
  0006e	83 c4 14	 add	 esp, 20			; 00000014H
  00071	33 c0		 xor	 eax, eax
  00073	75 b6		 jne	 SHORT $LN9@max
$LN6@max:
  00075	33 c0		 xor	 eax, eax
  00077	75 a0		 jne	 SHORT $LN4@max

; 5391 : 		return (_Right);

  00079	8b 45 0c	 mov	 eax, DWORD PTR __Right$[ebp]
  0007c	eb 03		 jmp	 SHORT $LN1@max
$LN8@max:

; 5392 : 		}
; 5393 : 
; 5394 : 	return (_Left);

  0007e	8b 45 08	 mov	 eax, DWORD PTR __Left$[ebp]
$LN1@max:

; 5395 : 	}

  00081	5f		 pop	 edi
  00082	5e		 pop	 esi
  00083	5b		 pop	 ebx
  00084	8b e5		 mov	 esp, ebp
  00086	5d		 pop	 ebp
  00087	c2 08 00	 ret	 8
??$max@N@std@@YGABNABN0@Z ENDP				; std::max<double>
_TEXT	ENDS
; Function compile flags: /Odtp /ZI
; File c:\program files (x86)\microsoft visual studio\2017\community\vc\tools\msvc\14.16.27023\include\algorithm
;	COMDAT ??$max@M@std@@YGABMABM0@Z
_TEXT	SEGMENT
__Left$ = 8						; size = 4
__Right$ = 12						; size = 4
??$max@M@std@@YGABMABM0@Z PROC				; std::max<float>, COMDAT

; 5387 : 	{	// return larger of _Left and _Right

  00000	55		 push	 ebp
  00001	8b ec		 mov	 ebp, esp
  00003	83 ec 40	 sub	 esp, 64			; 00000040H
  00006	53		 push	 ebx
  00007	56		 push	 esi
  00008	57		 push	 edi

; 5388 : 	if (_Left < _Right)

  00009	8b 45 0c	 mov	 eax, DWORD PTR __Right$[ebp]
  0000c	8b 4d 08	 mov	 ecx, DWORD PTR __Left$[ebp]
  0000f	f3 0f 10 00	 movss	 xmm0, DWORD PTR [eax]
  00013	0f 2f 01	 comiss	 xmm0, DWORD PTR [ecx]
  00016	76 64		 jbe	 SHORT $LN8@max
$LN4@max:

; 5389 : 		{
; 5390 : 		_STL_ASSERT(!(_Right < _Left), "invalid comparator");

  00018	8b 45 08	 mov	 eax, DWORD PTR __Left$[ebp]
  0001b	8b 4d 0c	 mov	 ecx, DWORD PTR __Right$[ebp]
  0001e	f3 0f 10 00	 movss	 xmm0, DWORD PTR [eax]
  00022	0f 2f 01	 comiss	 xmm0, DWORD PTR [ecx]
  00025	77 02		 ja	 SHORT $LN9@max
  00027	eb 4a		 jmp	 SHORT $LN6@max
$LN9@max:
  00029	68 00 00 00 00	 push	 OFFSET ??_C@_0BD@FEEMDEPI@invalid?5comparator@
  0002e	68 00 00 00 00	 push	 OFFSET ??_C@_02DKCKIIND@?$CFs@
  00033	6a 00		 push	 0
  00035	68 0e 15 00 00	 push	 5390			; 0000150eH
  0003a	68 00 00 00 00	 push	 OFFSET ??_C@_0GK@JMBMHIBC@c?3?2program?5files?5?$CIx86?$CJ?2microsof@
  0003f	6a 02		 push	 2
  00041	ff 15 00 00 00
	00		 call	 DWORD PTR __imp___CrtDbgReport
  00047	83 c4 18	 add	 esp, 24			; 00000018H
  0004a	83 f8 01	 cmp	 eax, 1
  0004d	75 01		 jne	 SHORT $LN12@max
  0004f	cc		 int	 3
$LN12@max:
  00050	6a 00		 push	 0
  00052	68 0e 15 00 00	 push	 5390			; 0000150eH
  00057	68 00 00 00 00	 push	 OFFSET ??_C@_1NE@FKBPBJEB@?$AAc?$AA?3?$AA?2?$AAp?$AAr?$AAo?$AAg?$AAr?$AAa?$AAm?$AA?5?$AAf?$AAi?$AAl?$AAe@
  0005c	68 00 00 00 00	 push	 OFFSET ??_C@_1BC@ICCOKLEG@?$AAs?$AAt?$AAd?$AA?3?$AA?3?$AAm?$AAa?$AAx@
  00061	68 00 00 00 00	 push	 OFFSET ??_C@_1CK@NDNHPKPI@?$AA?$CC?$AAi?$AAn?$AAv?$AAa?$AAl?$AAi?$AAd?$AA?5?$AAc?$AAo?$AAm?$AAp?$AAa?$AAr@
  00066	ff 15 00 00 00
	00		 call	 DWORD PTR __imp___invalid_parameter
  0006c	83 c4 14	 add	 esp, 20			; 00000014H
  0006f	33 c0		 xor	 eax, eax
  00071	75 b6		 jne	 SHORT $LN9@max
$LN6@max:
  00073	33 c0		 xor	 eax, eax
  00075	75 a1		 jne	 SHORT $LN4@max

; 5391 : 		return (_Right);

  00077	8b 45 0c	 mov	 eax, DWORD PTR __Right$[ebp]
  0007a	eb 03		 jmp	 SHORT $LN1@max
$LN8@max:

; 5392 : 		}
; 5393 : 
; 5394 : 	return (_Left);

  0007c	8b 45 08	 mov	 eax, DWORD PTR __Left$[ebp]
$LN1@max:

; 5395 : 	}

  0007f	5f		 pop	 edi
  00080	5e		 pop	 esi
  00081	5b		 pop	 ebx
  00082	8b e5		 mov	 esp, ebp
  00084	5d		 pop	 ebp
  00085	c2 08 00	 ret	 8
??$max@M@std@@YGABMABM0@Z ENDP				; std::max<float>
_TEXT	ENDS
; Function compile flags: /Odtp /ZI
; File c:\users\nhv90\projects\eech\aphavoc\source\gunships\dynamics\hokum\ho_dyn.c
;	COMDAT ?update_hokum_advanced_dynamics@@YGXXZ
_TEXT	SEGMENT
tv157 = -120						; size = 8
tv158 = -112						; size = 8
tv296 = -104						; size = 8
tv215 = -104						; size = 8
tv177 = -104						; size = 8
tv141 = -104						; size = 8
tv92 = -104						; size = 8
tv372 = -100						; size = 4
tv471 = -96						; size = 4
tv297 = -96						; size = 8
tv216 = -96						; size = 8
tv178 = -96						; size = 8
tv142 = -96						; size = 8
tv93 = -96						; size = 8
tv365 = -92						; size = 4
_rotor_rpm_diff$1 = -24					; size = 4
_rotor_rpm_diff$2 = -20					; size = 4
_left_power_ratio$ = -16				; size = 4
_total_rpm$ = -12					; size = 4
_workload$ = -8						; size = 4
_rpm$ = -4						; size = 4
?update_hokum_advanced_dynamics@@YGXXZ PROC		; update_hokum_advanced_dynamics, COMDAT

; 601  : {

  00000	55		 push	 ebp
  00001	8b ec		 mov	 ebp, esp
  00003	83 ec 78	 sub	 esp, 120		; 00000078H
  00006	53		 push	 ebx
  00007	56		 push	 esi
  00008	57		 push	 edi

; 602  : 
; 603  : 	float
; 604  : 		rpm, workload=0.0, total_rpm, left_power_ratio;

  00009	0f 57 c0	 xorps	 xmm0, xmm0
  0000c	f3 0f 11 45 f8	 movss	 DWORD PTR _workload$[ebp], xmm0

; 605  : 
; 606  : 	update_power_dynamics ();

  00011	e8 00 00 00 00	 call	 ?update_power_dynamics@@YGXXZ ; update_power_dynamics

; 607  : 
; 608  : 	update_apu_rpm_dynamics();

  00016	e8 00 00 00 00	 call	 ?update_apu_rpm_dynamics@@YGXXZ ; update_apu_rpm_dynamics

; 609  : 	update_engine_rpm_dynamics(1);

  0001b	6a 01		 push	 1
  0001d	e8 00 00 00 00	 call	 ?update_engine_rpm_dynamics@@YGXH@Z ; update_engine_rpm_dynamics

; 610  : 	update_engine_rpm_dynamics(2);

  00022	6a 02		 push	 2
  00024	e8 00 00 00 00	 call	 ?update_engine_rpm_dynamics@@YGXH@Z ; update_engine_rpm_dynamics

; 611  : 
; 612  : 	update_engine_temperature_dynamics (1);

  00029	6a 01		 push	 1
  0002b	e8 00 00 00 00	 call	 ?update_engine_temperature_dynamics@@YGXH@Z ; update_engine_temperature_dynamics

; 613  : 	update_engine_temperature_dynamics (2);

  00030	6a 02		 push	 2
  00032	e8 00 00 00 00	 call	 ?update_engine_temperature_dynamics@@YGXH@Z ; update_engine_temperature_dynamics

; 614  : 
; 615  : 	update_main_rotor_dynamics ();

  00037	e8 00 00 00 00	 call	 ?update_main_rotor_dynamics@@YGXXZ ; update_main_rotor_dynamics

; 616  : 
; 617  : 	update_tail_rotor_dynamics ();

  0003c	e8 00 00 00 00	 call	 ?update_tail_rotor_dynamics@@YGXXZ ; update_tail_rotor_dynamics

; 618  : 
; 619  : 	update_main_rotor_rpm_dynamics ();

  00041	e8 00 00 00 00	 call	 ?update_main_rotor_rpm_dynamics@@YGXXZ ; update_main_rotor_rpm_dynamics

; 620  : 
; 621  : 	update_tail_rotor_rpm_dynamics ();

  00046	e8 00 00 00 00	 call	 ?update_tail_rotor_rpm_dynamics@@YGXXZ ; update_tail_rotor_rpm_dynamics

; 622  : 
; 623  : 	update_main_rotor_coning_angle ();

  0004b	e8 00 00 00 00	 call	 ?update_main_rotor_coning_angle@@YGXXZ ; update_main_rotor_coning_angle

; 624  : 
; 625  : 	update_main_rotor_thrust_dynamics ();

  00050	e8 00 00 00 00	 call	 ?update_main_rotor_thrust_dynamics@@YGXXZ ; update_main_rotor_thrust_dynamics

; 626  : 
; 627  : 	update_tail_rotor_thrust_dynamics ();

  00055	e8 00 00 00 00	 call	 ?update_tail_rotor_thrust_dynamics@@YGXXZ ; update_tail_rotor_thrust_dynamics

; 628  : 
; 629  : 	update_power_dynamics ();

  0005a	e8 00 00 00 00	 call	 ?update_power_dynamics@@YGXXZ ; update_power_dynamics

; 630  : 
; 631  : 	update_air_density_dynamics ();

  0005f	e8 00 00 00 00	 call	 ?update_air_density_dynamics@@YGXXZ ; update_air_density_dynamics

; 632  : 
; 633  : 	update_acceleration_dynamics ();

  00064	e8 00 00 00 00	 call	 ?update_acceleration_dynamics@@YGXXZ ; update_acceleration_dynamics

; 634  : 
; 635  : 	update_attitude_dynamics ();

  00069	e8 00 00 00 00	 call	 ?update_attitude_dynamics@@YGXXZ ; update_attitude_dynamics

; 636  : 
; 637  : 	if (command_line_dynamics_flight_model >= 2)

  0006e	83 3d 00 00 00
	00 02		 cmp	 DWORD PTR ?command_line_dynamics_flight_model@@3HA, 2 ; command_line_dynamics_flight_model
  00075	7c 05		 jl	 SHORT $LN2@update_hok

; 638  : 		update_undercarriage_dynamics();

  00077	e8 00 00 00 00	 call	 ?update_undercarriage_dynamics@@YGXXZ ; update_undercarriage_dynamics
$LN2@update_hok:

; 639  : 
; 640  : 	resolve_dynamic_forces ();

  0007c	e8 00 00 00 00	 call	 ?resolve_dynamic_forces@@YGXXZ ; resolve_dynamic_forces

; 641  : 
; 642  : 	update_dynamics_external_values ();

  00081	e8 00 00 00 00	 call	 ?update_dynamics_external_values@@YGXXZ ; update_dynamics_external_values

; 643  : 
; 644  : 	// Leave the last iteration of forces to allow the draw function to work.
; 645  : 	if (get_current_dynamics_options (DYNAMICS_OPTIONS_DRAW_FLIGHT_PATH))

  00086	6a 02		 push	 2
  00088	e8 00 00 00 00	 call	 ?get_current_dynamics_options@@YGHW4DYNAMICS_OPTIONS_TYPES@@@Z ; get_current_dynamics_options
  0008d	85 c0		 test	 eax, eax
  0008f	74 15		 je	 SHORT $LN3@update_hok

; 646  : 	{
; 647  : 
; 648  : 		if (current_flight_dynamics->model_iterations > 0)

  00091	a1 00 00 00 00	 mov	 eax, DWORD PTR ?current_flight_dynamics@@3PAUDYNAMICS_TYPE@@A ; current_flight_dynamics
  00096	83 b8 8c 00 00
	00 00		 cmp	 DWORD PTR [eax+140], 0
  0009d	7e 05		 jle	 SHORT $LN5@update_hok

; 649  : 		{
; 650  : 
; 651  : 			update_dynamic_forces ();

  0009f	e8 00 00 00 00	 call	 ?update_dynamic_forces@@YGXXZ ; update_dynamic_forces
$LN5@update_hok:

; 652  : 		}
; 653  : 	}
; 654  : 	else

  000a4	eb 05		 jmp	 SHORT $LN4@update_hok
$LN3@update_hok:

; 655  : 	{
; 656  : 
; 657  : 		update_dynamic_forces ();

  000a6	e8 00 00 00 00	 call	 ?update_dynamic_forces@@YGXXZ ; update_dynamic_forces
$LN4@update_hok:

; 658  : 	}
; 659  : 
; 660  : 	//debug
; 661  : 
; 662  : 	//Werewolf engine torque management
; 663  : 	//Rotor RPM is reduced by workload, so we have to have twice as much workload on the engine to circumvent the whacky way EECH mixes RPM into the engine torque
; 664  : 	if (command_line_dynamics_advanced_engine_model == TRUE)

  000ab	83 3d 00 00 00
	00 01		 cmp	 DWORD PTR ?command_line_dynamics_advanced_engine_model@@3HA, 1 ; command_line_dynamics_advanced_engine_model
  000b2	0f 85 b4 00 00
	00		 jne	 $LN6@update_hok

; 665  : 	{
; 666  : 	  workload = ((float) fabs (current_flight_dynamics->main_rotor_pitch_angle.value) + (float) fabs (current_flight_dynamics->main_rotor_roll_angle.value))

  000b8	a1 00 00 00 00	 mov	 eax, DWORD PTR ?current_flight_dynamics@@3PAUDYNAMICS_TYPE@@A ; current_flight_dynamics
  000bd	51		 push	 ecx
  000be	f3 0f 10 80 fc
	1d 00 00	 movss	 xmm0, DWORD PTR [eax+7676]
  000c6	f3 0f 11 04 24	 movss	 DWORD PTR [esp], xmm0
  000cb	e8 00 00 00 00	 call	 ?fabs@@YGMM@Z		; fabs
  000d0	d9 5d a4	 fstp	 DWORD PTR tv365[ebp]
  000d3	f3 0f 10 45 a4	 movss	 xmm0, DWORD PTR tv365[ebp]
  000d8	8b 0d 00 00 00
	00		 mov	 ecx, DWORD PTR ?current_flight_dynamics@@3PAUDYNAMICS_TYPE@@A ; current_flight_dynamics
  000de	51		 push	 ecx
  000df	f3 0f 10 89 e4
	1d 00 00	 movss	 xmm1, DWORD PTR [ecx+7652]
  000e7	f3 0f 11 0c 24	 movss	 DWORD PTR [esp], xmm1
  000ec	f3 0f 11 45 a0	 movss	 DWORD PTR tv471[ebp], xmm0
  000f1	e8 00 00 00 00	 call	 ?fabs@@YGMM@Z		; fabs
  000f6	d9 5d 9c	 fstp	 DWORD PTR tv372[ebp]
  000f9	f3 0f 10 45 a0	 movss	 xmm0, DWORD PTR tv471[ebp]
  000fe	f3 0f 58 45 9c	 addss	 xmm0, DWORD PTR tv372[ebp]
  00103	f3 0f 5a c0	 cvtss2sd xmm0, xmm0
  00107	f2 0f 59 05 00
	00 00 00	 mulsd	 xmm0, QWORD PTR __real@4059000000000000
  0010f	f2 0f 5a c0	 cvtsd2ss xmm0, xmm0
  00113	f3 0f 11 45 f8	 movss	 DWORD PTR _workload$[ebp], xmm0

; 667  : 		  * 100.0;
; 668  : 	  workload = bound (workload, 0.0, 100.0);

  00118	f3 0f 5a 45 f8	 cvtss2sd xmm0, DWORD PTR _workload$[ebp]
  0011d	0f 57 c9	 xorps	 xmm1, xmm1
  00120	66 0f 2f c8	 comisd	 xmm1, xmm0
  00124	76 0a		 jbe	 SHORT $LN22@update_hok
  00126	0f 57 c0	 xorps	 xmm0, xmm0
  00129	f2 0f 11 45 a0	 movsd	 QWORD PTR tv93[ebp], xmm0
  0012e	eb 32		 jmp	 SHORT $LN23@update_hok
$LN22@update_hok:
  00130	f3 0f 5a 45 f8	 cvtss2sd xmm0, DWORD PTR _workload$[ebp]
  00135	66 0f 2f 05 00
	00 00 00	 comisd	 xmm0, QWORD PTR __real@4059000000000000
  0013d	76 0f		 jbe	 SHORT $LN20@update_hok
  0013f	f2 0f 10 05 00
	00 00 00	 movsd	 xmm0, QWORD PTR __real@4059000000000000
  00147	f2 0f 11 45 98	 movsd	 QWORD PTR tv92[ebp], xmm0
  0014c	eb 0a		 jmp	 SHORT $LN21@update_hok
$LN20@update_hok:
  0014e	f3 0f 5a 45 f8	 cvtss2sd xmm0, DWORD PTR _workload$[ebp]
  00153	f2 0f 11 45 98	 movsd	 QWORD PTR tv92[ebp], xmm0
$LN21@update_hok:
  00158	f2 0f 10 45 98	 movsd	 xmm0, QWORD PTR tv92[ebp]
  0015d	f2 0f 11 45 a0	 movsd	 QWORD PTR tv93[ebp], xmm0
$LN23@update_hok:
  00162	f2 0f 5a 45 a0	 cvtsd2ss xmm0, QWORD PTR tv93[ebp]
  00167	f3 0f 11 45 f8	 movss	 DWORD PTR _workload$[ebp], xmm0
$LN6@update_hok:

; 669  : 	}
; 670  : 
; 671  : 	// arneh - distribute torque among engines depending on the N1 RPM of each engine
; 672  : 	total_rpm = bound(current_flight_dynamics->left_engine_n1_rpm.value - 55.0, 0.0, 100.0) +

  0016c	a1 00 00 00 00	 mov	 eax, DWORD PTR ?current_flight_dynamics@@3PAUDYNAMICS_TYPE@@A ; current_flight_dynamics
  00171	f3 0f 5a 80 94
	1c 00 00	 cvtss2sd xmm0, DWORD PTR [eax+7316]
  00179	f2 0f 5c 05 00
	00 00 00	 subsd	 xmm0, QWORD PTR __real@404b800000000000
  00181	0f 57 c9	 xorps	 xmm1, xmm1
  00184	66 0f 2f c8	 comisd	 xmm1, xmm0
  00188	76 0a		 jbe	 SHORT $LN26@update_hok
  0018a	0f 57 c0	 xorps	 xmm0, xmm0
  0018d	f2 0f 11 45 a0	 movsd	 QWORD PTR tv142[ebp], xmm0
  00192	eb 54		 jmp	 SHORT $LN27@update_hok
$LN26@update_hok:
  00194	8b 0d 00 00 00
	00		 mov	 ecx, DWORD PTR ?current_flight_dynamics@@3PAUDYNAMICS_TYPE@@A ; current_flight_dynamics
  0019a	f3 0f 5a 81 94
	1c 00 00	 cvtss2sd xmm0, DWORD PTR [ecx+7316]
  001a2	f2 0f 5c 05 00
	00 00 00	 subsd	 xmm0, QWORD PTR __real@404b800000000000
  001aa	66 0f 2f 05 00
	00 00 00	 comisd	 xmm0, QWORD PTR __real@4059000000000000
  001b2	76 0f		 jbe	 SHORT $LN24@update_hok
  001b4	f2 0f 10 05 00
	00 00 00	 movsd	 xmm0, QWORD PTR __real@4059000000000000
  001bc	f2 0f 11 45 98	 movsd	 QWORD PTR tv141[ebp], xmm0
  001c1	eb 1b		 jmp	 SHORT $LN25@update_hok
$LN24@update_hok:
  001c3	8b 15 00 00 00
	00		 mov	 edx, DWORD PTR ?current_flight_dynamics@@3PAUDYNAMICS_TYPE@@A ; current_flight_dynamics
  001c9	f3 0f 5a 82 94
	1c 00 00	 cvtss2sd xmm0, DWORD PTR [edx+7316]
  001d1	f2 0f 5c 05 00
	00 00 00	 subsd	 xmm0, QWORD PTR __real@404b800000000000
  001d9	f2 0f 11 45 98	 movsd	 QWORD PTR tv141[ebp], xmm0
$LN25@update_hok:
  001de	f2 0f 10 45 98	 movsd	 xmm0, QWORD PTR tv141[ebp]
  001e3	f2 0f 11 45 a0	 movsd	 QWORD PTR tv142[ebp], xmm0
$LN27@update_hok:
  001e8	a1 00 00 00 00	 mov	 eax, DWORD PTR ?current_flight_dynamics@@3PAUDYNAMICS_TYPE@@A ; current_flight_dynamics
  001ed	f3 0f 5a 80 f4
	1c 00 00	 cvtss2sd xmm0, DWORD PTR [eax+7412]
  001f5	f2 0f 5c 05 00
	00 00 00	 subsd	 xmm0, QWORD PTR __real@404b800000000000
  001fd	0f 57 c9	 xorps	 xmm1, xmm1
  00200	66 0f 2f c8	 comisd	 xmm1, xmm0
  00204	76 0a		 jbe	 SHORT $LN30@update_hok
  00206	0f 57 c0	 xorps	 xmm0, xmm0
  00209	f2 0f 11 45 90	 movsd	 QWORD PTR tv158[ebp], xmm0
  0020e	eb 54		 jmp	 SHORT $LN31@update_hok
$LN30@update_hok:
  00210	8b 0d 00 00 00
	00		 mov	 ecx, DWORD PTR ?current_flight_dynamics@@3PAUDYNAMICS_TYPE@@A ; current_flight_dynamics
  00216	f3 0f 5a 81 f4
	1c 00 00	 cvtss2sd xmm0, DWORD PTR [ecx+7412]
  0021e	f2 0f 5c 05 00
	00 00 00	 subsd	 xmm0, QWORD PTR __real@404b800000000000
  00226	66 0f 2f 05 00
	00 00 00	 comisd	 xmm0, QWORD PTR __real@4059000000000000
  0022e	76 0f		 jbe	 SHORT $LN28@update_hok
  00230	f2 0f 10 05 00
	00 00 00	 movsd	 xmm0, QWORD PTR __real@4059000000000000
  00238	f2 0f 11 45 88	 movsd	 QWORD PTR tv157[ebp], xmm0
  0023d	eb 1b		 jmp	 SHORT $LN29@update_hok
$LN28@update_hok:
  0023f	8b 15 00 00 00
	00		 mov	 edx, DWORD PTR ?current_flight_dynamics@@3PAUDYNAMICS_TYPE@@A ; current_flight_dynamics
  00245	f3 0f 5a 82 f4
	1c 00 00	 cvtss2sd xmm0, DWORD PTR [edx+7412]
  0024d	f2 0f 5c 05 00
	00 00 00	 subsd	 xmm0, QWORD PTR __real@404b800000000000
  00255	f2 0f 11 45 88	 movsd	 QWORD PTR tv157[ebp], xmm0
$LN29@update_hok:
  0025a	f2 0f 10 45 88	 movsd	 xmm0, QWORD PTR tv157[ebp]
  0025f	f2 0f 11 45 90	 movsd	 QWORD PTR tv158[ebp], xmm0
$LN31@update_hok:
  00264	f2 0f 10 45 a0	 movsd	 xmm0, QWORD PTR tv142[ebp]
  00269	f2 0f 58 45 90	 addsd	 xmm0, QWORD PTR tv158[ebp]
  0026e	f2 0f 5a c0	 cvtsd2ss xmm0, xmm0
  00272	f3 0f 11 45 f4	 movss	 DWORD PTR _total_rpm$[ebp], xmm0

; 673  : 		bound(current_flight_dynamics->right_engine_n1_rpm.value - 55.0, 0.0, 100.0);
; 674  : 	if (total_rpm > 0.0)

  00277	f3 0f 5a 45 f4	 cvtss2sd xmm0, DWORD PTR _total_rpm$[ebp]
  0027c	66 0f 2f 05 00
	00 00 00	 comisd	 xmm0, QWORD PTR __real@0000000000000000
  00284	0f 86 95 00 00
	00		 jbe	 $LN7@update_hok

; 675  : 		left_power_ratio = bound(current_flight_dynamics->left_engine_n1_rpm.value -55.0, 0.0, 100.0) / total_rpm;

  0028a	a1 00 00 00 00	 mov	 eax, DWORD PTR ?current_flight_dynamics@@3PAUDYNAMICS_TYPE@@A ; current_flight_dynamics
  0028f	f3 0f 5a 80 94
	1c 00 00	 cvtss2sd xmm0, DWORD PTR [eax+7316]
  00297	f2 0f 5c 05 00
	00 00 00	 subsd	 xmm0, QWORD PTR __real@404b800000000000
  0029f	0f 57 c9	 xorps	 xmm1, xmm1
  002a2	66 0f 2f c8	 comisd	 xmm1, xmm0
  002a6	76 0a		 jbe	 SHORT $LN34@update_hok
  002a8	0f 57 c0	 xorps	 xmm0, xmm0
  002ab	f2 0f 11 45 a0	 movsd	 QWORD PTR tv178[ebp], xmm0
  002b0	eb 54		 jmp	 SHORT $LN35@update_hok
$LN34@update_hok:
  002b2	8b 0d 00 00 00
	00		 mov	 ecx, DWORD PTR ?current_flight_dynamics@@3PAUDYNAMICS_TYPE@@A ; current_flight_dynamics
  002b8	f3 0f 5a 81 94
	1c 00 00	 cvtss2sd xmm0, DWORD PTR [ecx+7316]
  002c0	f2 0f 5c 05 00
	00 00 00	 subsd	 xmm0, QWORD PTR __real@404b800000000000
  002c8	66 0f 2f 05 00
	00 00 00	 comisd	 xmm0, QWORD PTR __real@4059000000000000
  002d0	76 0f		 jbe	 SHORT $LN32@update_hok
  002d2	f2 0f 10 05 00
	00 00 00	 movsd	 xmm0, QWORD PTR __real@4059000000000000
  002da	f2 0f 11 45 98	 movsd	 QWORD PTR tv177[ebp], xmm0
  002df	eb 1b		 jmp	 SHORT $LN33@update_hok
$LN32@update_hok:
  002e1	8b 15 00 00 00
	00		 mov	 edx, DWORD PTR ?current_flight_dynamics@@3PAUDYNAMICS_TYPE@@A ; current_flight_dynamics
  002e7	f3 0f 5a 82 94
	1c 00 00	 cvtss2sd xmm0, DWORD PTR [edx+7316]
  002ef	f2 0f 5c 05 00
	00 00 00	 subsd	 xmm0, QWORD PTR __real@404b800000000000
  002f7	f2 0f 11 45 98	 movsd	 QWORD PTR tv177[ebp], xmm0
$LN33@update_hok:
  002fc	f2 0f 10 45 98	 movsd	 xmm0, QWORD PTR tv177[ebp]
  00301	f2 0f 11 45 a0	 movsd	 QWORD PTR tv178[ebp], xmm0
$LN35@update_hok:
  00306	f3 0f 5a 45 f4	 cvtss2sd xmm0, DWORD PTR _total_rpm$[ebp]
  0030b	f2 0f 10 4d a0	 movsd	 xmm1, QWORD PTR tv178[ebp]
  00310	f2 0f 5e c8	 divsd	 xmm1, xmm0
  00314	f2 0f 5a c1	 cvtsd2ss xmm0, xmm1
  00318	f3 0f 11 45 f0	 movss	 DWORD PTR _left_power_ratio$[ebp], xmm0

; 676  : 	else

  0031d	eb 0d		 jmp	 SHORT $LN8@update_hok
$LN7@update_hok:

; 677  : 		left_power_ratio = 0.5;

  0031f	f3 0f 10 05 00
	00 00 00	 movss	 xmm0, DWORD PTR __real@3f000000
  00327	f3 0f 11 45 f0	 movss	 DWORD PTR _left_power_ratio$[ebp], xmm0
$LN8@update_hok:

; 678  : 
; 679  : 	if (!current_flight_dynamics->left_engine_torque.damaged)

  0032c	a1 00 00 00 00	 mov	 eax, DWORD PTR ?current_flight_dynamics@@3PAUDYNAMICS_TYPE@@A ; current_flight_dynamics
  00331	0f b7 88 bc 1c
	00 00		 movzx	 ecx, WORD PTR [eax+7356]
  00338	85 c9		 test	 ecx, ecx
  0033a	0f 85 c8 01 00
	00		 jne	 $LN9@update_hok

; 680  : 	{
; 681  : 		rpm = 0.0;

  00340	0f 57 c0	 xorps	 xmm0, xmm0
  00343	f3 0f 11 45 fc	 movss	 DWORD PTR _rpm$[ebp], xmm0

; 682  : 
; 683  : 		if (current_flight_dynamics->main_rotor_rpm.max != 0.0)

  00348	a1 00 00 00 00	 mov	 eax, DWORD PTR ?current_flight_dynamics@@3PAUDYNAMICS_TYPE@@A ; current_flight_dynamics
  0034d	f3 0f 5a 80 20
	1e 00 00	 cvtss2sd xmm0, DWORD PTR [eax+7712]
  00355	66 0f 2e 05 00
	00 00 00	 ucomisd xmm0, QWORD PTR __real@0000000000000000
  0035d	9f		 lahf
  0035e	f6 c4 44	 test	 ah, 68			; 00000044H
  00361	0f 8b f3 00 00
	00		 jnp	 $LN12@update_hok

; 684  : 		{
; 685  : 			float rotor_rpm_diff = current_flight_dynamics->main_rotor_rpm.value - current_flight_dynamics->left_engine_rpm.value;

  00367	a1 00 00 00 00	 mov	 eax, DWORD PTR ?current_flight_dynamics@@3PAUDYNAMICS_TYPE@@A ; current_flight_dynamics
  0036c	8b 0d 00 00 00
	00		 mov	 ecx, DWORD PTR ?current_flight_dynamics@@3PAUDYNAMICS_TYPE@@A ; current_flight_dynamics
  00372	f3 0f 10 80 14
	1e 00 00	 movss	 xmm0, DWORD PTR [eax+7700]
  0037a	f3 0f 5c 81 7c
	1c 00 00	 subss	 xmm0, DWORD PTR [ecx+7292]
  00382	f3 0f 11 45 ec	 movss	 DWORD PTR _rotor_rpm_diff$2[ebp], xmm0

; 686  : 
; 687  : 			rpm = current_flight_dynamics->main_rotor_rpm.value / current_flight_dynamics->main_rotor_rpm.max;

  00387	a1 00 00 00 00	 mov	 eax, DWORD PTR ?current_flight_dynamics@@3PAUDYNAMICS_TYPE@@A ; current_flight_dynamics
  0038c	8b 0d 00 00 00
	00		 mov	 ecx, DWORD PTR ?current_flight_dynamics@@3PAUDYNAMICS_TYPE@@A ; current_flight_dynamics
  00392	f3 0f 10 80 14
	1e 00 00	 movss	 xmm0, DWORD PTR [eax+7700]
  0039a	f3 0f 5e 81 20
	1e 00 00	 divss	 xmm0, DWORD PTR [ecx+7712]
  003a2	f3 0f 11 45 fc	 movss	 DWORD PTR _rpm$[ebp], xmm0

; 688  : 			rpm *= 0.5 + left_power_ratio;

  003a7	f3 0f 5a 45 f0	 cvtss2sd xmm0, DWORD PTR _left_power_ratio$[ebp]
  003ac	f2 0f 58 05 00
	00 00 00	 addsd	 xmm0, QWORD PTR __real@3fe0000000000000
  003b4	f3 0f 5a 4d fc	 cvtss2sd xmm1, DWORD PTR _rpm$[ebp]
  003b9	f2 0f 59 c8	 mulsd	 xmm1, xmm0
  003bd	f2 0f 5a c1	 cvtsd2ss xmm0, xmm1
  003c1	f3 0f 11 45 fc	 movss	 DWORD PTR _rpm$[ebp], xmm0

; 689  : 			if (rotor_rpm_diff > 0.0)

  003c6	f3 0f 5a 45 ec	 cvtss2sd xmm0, DWORD PTR _rotor_rpm_diff$2[ebp]
  003cb	66 0f 2f 05 00
	00 00 00	 comisd	 xmm0, QWORD PTR __real@0000000000000000
  003d3	0f 86 81 00 00
	00		 jbe	 $LN12@update_hok

; 690  : 				rpm *= 1.0 - bound(rotor_rpm_diff * 0.75, 0.0, 1.0);

  003d9	f3 0f 5a 45 ec	 cvtss2sd xmm0, DWORD PTR _rotor_rpm_diff$2[ebp]
  003de	f2 0f 59 05 00
	00 00 00	 mulsd	 xmm0, QWORD PTR __real@3fe8000000000000
  003e6	0f 57 c9	 xorps	 xmm1, xmm1
  003e9	66 0f 2f c8	 comisd	 xmm1, xmm0
  003ed	76 0a		 jbe	 SHORT $LN38@update_hok
  003ef	0f 57 c0	 xorps	 xmm0, xmm0
  003f2	f2 0f 11 45 a0	 movsd	 QWORD PTR tv216[ebp], xmm0
  003f7	eb 42		 jmp	 SHORT $LN39@update_hok
$LN38@update_hok:
  003f9	f3 0f 5a 45 ec	 cvtss2sd xmm0, DWORD PTR _rotor_rpm_diff$2[ebp]
  003fe	f2 0f 59 05 00
	00 00 00	 mulsd	 xmm0, QWORD PTR __real@3fe8000000000000
  00406	66 0f 2f 05 00
	00 00 00	 comisd	 xmm0, QWORD PTR __real@3ff0000000000000
  0040e	76 0f		 jbe	 SHORT $LN36@update_hok
  00410	f2 0f 10 05 00
	00 00 00	 movsd	 xmm0, QWORD PTR __real@3ff0000000000000
  00418	f2 0f 11 45 98	 movsd	 QWORD PTR tv215[ebp], xmm0
  0041d	eb 12		 jmp	 SHORT $LN37@update_hok
$LN36@update_hok:
  0041f	f3 0f 5a 45 ec	 cvtss2sd xmm0, DWORD PTR _rotor_rpm_diff$2[ebp]
  00424	f2 0f 59 05 00
	00 00 00	 mulsd	 xmm0, QWORD PTR __real@3fe8000000000000
  0042c	f2 0f 11 45 98	 movsd	 QWORD PTR tv215[ebp], xmm0
$LN37@update_hok:
  00431	f2 0f 10 45 98	 movsd	 xmm0, QWORD PTR tv215[ebp]
  00436	f2 0f 11 45 a0	 movsd	 QWORD PTR tv216[ebp], xmm0
$LN39@update_hok:
  0043b	f2 0f 10 05 00
	00 00 00	 movsd	 xmm0, QWORD PTR __real@3ff0000000000000
  00443	f2 0f 5c 45 a0	 subsd	 xmm0, QWORD PTR tv216[ebp]
  00448	f3 0f 5a 4d fc	 cvtss2sd xmm1, DWORD PTR _rpm$[ebp]
  0044d	f2 0f 59 c8	 mulsd	 xmm1, xmm0
  00451	f2 0f 5a c1	 cvtsd2ss xmm0, xmm1
  00455	f3 0f 11 45 fc	 movss	 DWORD PTR _rpm$[ebp], xmm0
$LN12@update_hok:

; 691  : 		}
; 692  : 
; 693  : //Werewolf: engine torque should INCREASE when the aircraft works harder
; 694  : //Rotor RPM drops under workload, so we use twice as much workload here to make the torque sum increase under workload
; 695  : 		current_flight_dynamics->left_engine_torque.value += ((current_flight_dynamics->input_data.collective.value * rpm) - current_flight_dynamics->left_engine_torque.value) * (4.0 * get_model_delta_time ());

  0045a	a1 00 00 00 00	 mov	 eax, DWORD PTR ?current_flight_dynamics@@3PAUDYNAMICS_TYPE@@A ; current_flight_dynamics
  0045f	f3 0f 10 80 a8
	1b 00 00	 movss	 xmm0, DWORD PTR [eax+7080]
  00467	f3 0f 59 45 fc	 mulss	 xmm0, DWORD PTR _rpm$[ebp]
  0046c	8b 0d 00 00 00
	00		 mov	 ecx, DWORD PTR ?current_flight_dynamics@@3PAUDYNAMICS_TYPE@@A ; current_flight_dynamics
  00472	f3 0f 5c 81 ac
	1c 00 00	 subss	 xmm0, DWORD PTR [ecx+7340]
  0047a	f3 0f 5a c0	 cvtss2sd xmm0, xmm0
  0047e	8b 15 00 00 00
	00		 mov	 edx, DWORD PTR ?current_flight_dynamics@@3PAUDYNAMICS_TYPE@@A ; current_flight_dynamics
  00484	f3 0f 5a 8a 90
	00 00 00	 cvtss2sd xmm1, DWORD PTR [edx+144]
  0048c	f2 0f 59 0d 00
	00 00 00	 mulsd	 xmm1, QWORD PTR __real@4010000000000000
  00494	f2 0f 59 c1	 mulsd	 xmm0, xmm1
  00498	a1 00 00 00 00	 mov	 eax, DWORD PTR ?current_flight_dynamics@@3PAUDYNAMICS_TYPE@@A ; current_flight_dynamics
  0049d	f3 0f 5a 88 ac
	1c 00 00	 cvtss2sd xmm1, DWORD PTR [eax+7340]
  004a5	f2 0f 58 c8	 addsd	 xmm1, xmm0
  004a9	f2 0f 5a c1	 cvtsd2ss xmm0, xmm1
  004ad	8b 0d 00 00 00
	00		 mov	 ecx, DWORD PTR ?current_flight_dynamics@@3PAUDYNAMICS_TYPE@@A ; current_flight_dynamics
  004b3	f3 0f 11 81 ac
	1c 00 00	 movss	 DWORD PTR [ecx+7340], xmm0

; 696  : 		if (command_line_dynamics_advanced_engine_model == TRUE)

  004bb	83 3d 00 00 00
	00 01		 cmp	 DWORD PTR ?command_line_dynamics_advanced_engine_model@@3HA, 1 ; command_line_dynamics_advanced_engine_model
  004c2	75 42		 jne	 SHORT $LN13@update_hok

; 697  : 		  current_flight_dynamics->left_engine_torque.value += (workload) * (4.0 * get_model_delta_time ());

  004c4	f3 0f 5a 45 f8	 cvtss2sd xmm0, DWORD PTR _workload$[ebp]
  004c9	a1 00 00 00 00	 mov	 eax, DWORD PTR ?current_flight_dynamics@@3PAUDYNAMICS_TYPE@@A ; current_flight_dynamics
  004ce	f3 0f 5a 88 90
	00 00 00	 cvtss2sd xmm1, DWORD PTR [eax+144]
  004d6	f2 0f 59 0d 00
	00 00 00	 mulsd	 xmm1, QWORD PTR __real@4010000000000000
  004de	f2 0f 59 c1	 mulsd	 xmm0, xmm1
  004e2	8b 0d 00 00 00
	00		 mov	 ecx, DWORD PTR ?current_flight_dynamics@@3PAUDYNAMICS_TYPE@@A ; current_flight_dynamics
  004e8	f3 0f 5a 89 ac
	1c 00 00	 cvtss2sd xmm1, DWORD PTR [ecx+7340]
  004f0	f2 0f 58 c8	 addsd	 xmm1, xmm0
  004f4	f2 0f 5a c1	 cvtsd2ss xmm0, xmm1
  004f8	8b 15 00 00 00
	00		 mov	 edx, DWORD PTR ?current_flight_dynamics@@3PAUDYNAMICS_TYPE@@A ; current_flight_dynamics
  004fe	f3 0f 11 82 ac
	1c 00 00	 movss	 DWORD PTR [edx+7340], xmm0
$LN13@update_hok:

; 698  : 	}
; 699  : 	else

  00506	eb 3a		 jmp	 SHORT $LN10@update_hok
$LN9@update_hok:

; 700  : 	{
; 701  : 
; 702  : 		current_flight_dynamics->left_engine_torque.value -= current_flight_dynamics->left_engine_torque.value * get_model_delta_time ();

  00508	a1 00 00 00 00	 mov	 eax, DWORD PTR ?current_flight_dynamics@@3PAUDYNAMICS_TYPE@@A ; current_flight_dynamics
  0050d	8b 0d 00 00 00
	00		 mov	 ecx, DWORD PTR ?current_flight_dynamics@@3PAUDYNAMICS_TYPE@@A ; current_flight_dynamics
  00513	f3 0f 10 80 ac
	1c 00 00	 movss	 xmm0, DWORD PTR [eax+7340]
  0051b	f3 0f 59 81 90
	00 00 00	 mulss	 xmm0, DWORD PTR [ecx+144]
  00523	8b 15 00 00 00
	00		 mov	 edx, DWORD PTR ?current_flight_dynamics@@3PAUDYNAMICS_TYPE@@A ; current_flight_dynamics
  00529	f3 0f 10 8a ac
	1c 00 00	 movss	 xmm1, DWORD PTR [edx+7340]
  00531	f3 0f 5c c8	 subss	 xmm1, xmm0
  00535	a1 00 00 00 00	 mov	 eax, DWORD PTR ?current_flight_dynamics@@3PAUDYNAMICS_TYPE@@A ; current_flight_dynamics
  0053a	f3 0f 11 88 ac
	1c 00 00	 movss	 DWORD PTR [eax+7340], xmm1
$LN10@update_hok:

; 703  : 	}
; 704  : 
; 705  : 	if (!current_flight_dynamics->right_engine_torque.damaged)

  00542	a1 00 00 00 00	 mov	 eax, DWORD PTR ?current_flight_dynamics@@3PAUDYNAMICS_TYPE@@A ; current_flight_dynamics
  00547	0f b7 88 1c 1d
	00 00		 movzx	 ecx, WORD PTR [eax+7452]
  0054e	85 c9		 test	 ecx, ecx
  00550	0f 85 d4 01 00
	00		 jne	 $LN14@update_hok

; 706  : 	{
; 707  : 		rpm = 0.0;

  00556	0f 57 c0	 xorps	 xmm0, xmm0
  00559	f3 0f 11 45 fc	 movss	 DWORD PTR _rpm$[ebp], xmm0

; 708  : 
; 709  : 		if (current_flight_dynamics->main_rotor_rpm.max != 0.0)

  0055e	a1 00 00 00 00	 mov	 eax, DWORD PTR ?current_flight_dynamics@@3PAUDYNAMICS_TYPE@@A ; current_flight_dynamics
  00563	f3 0f 5a 80 20
	1e 00 00	 cvtss2sd xmm0, DWORD PTR [eax+7712]
  0056b	66 0f 2e 05 00
	00 00 00	 ucomisd xmm0, QWORD PTR __real@0000000000000000
  00573	9f		 lahf
  00574	f6 c4 44	 test	 ah, 68			; 00000044H
  00577	0f 8b ff 00 00
	00		 jnp	 $LN17@update_hok

; 710  : 		{
; 711  : 			float rotor_rpm_diff = current_flight_dynamics->main_rotor_rpm.value - current_flight_dynamics->right_engine_rpm.value;

  0057d	a1 00 00 00 00	 mov	 eax, DWORD PTR ?current_flight_dynamics@@3PAUDYNAMICS_TYPE@@A ; current_flight_dynamics
  00582	8b 0d 00 00 00
	00		 mov	 ecx, DWORD PTR ?current_flight_dynamics@@3PAUDYNAMICS_TYPE@@A ; current_flight_dynamics
  00588	f3 0f 10 80 14
	1e 00 00	 movss	 xmm0, DWORD PTR [eax+7700]
  00590	f3 0f 5c 81 dc
	1c 00 00	 subss	 xmm0, DWORD PTR [ecx+7388]
  00598	f3 0f 11 45 e8	 movss	 DWORD PTR _rotor_rpm_diff$1[ebp], xmm0

; 712  : 
; 713  : 			rpm = current_flight_dynamics->main_rotor_rpm.value / current_flight_dynamics->main_rotor_rpm.max;

  0059d	a1 00 00 00 00	 mov	 eax, DWORD PTR ?current_flight_dynamics@@3PAUDYNAMICS_TYPE@@A ; current_flight_dynamics
  005a2	8b 0d 00 00 00
	00		 mov	 ecx, DWORD PTR ?current_flight_dynamics@@3PAUDYNAMICS_TYPE@@A ; current_flight_dynamics
  005a8	f3 0f 10 80 14
	1e 00 00	 movss	 xmm0, DWORD PTR [eax+7700]
  005b0	f3 0f 5e 81 20
	1e 00 00	 divss	 xmm0, DWORD PTR [ecx+7712]
  005b8	f3 0f 11 45 fc	 movss	 DWORD PTR _rpm$[ebp], xmm0

; 714  : 			rpm *= 0.5 + (1.0 - left_power_ratio);

  005bd	f3 0f 5a 45 f0	 cvtss2sd xmm0, DWORD PTR _left_power_ratio$[ebp]
  005c2	f2 0f 10 0d 00
	00 00 00	 movsd	 xmm1, QWORD PTR __real@3ff0000000000000
  005ca	f2 0f 5c c8	 subsd	 xmm1, xmm0
  005ce	f2 0f 58 0d 00
	00 00 00	 addsd	 xmm1, QWORD PTR __real@3fe0000000000000
  005d6	f3 0f 5a 45 fc	 cvtss2sd xmm0, DWORD PTR _rpm$[ebp]
  005db	f2 0f 59 c1	 mulsd	 xmm0, xmm1
  005df	f2 0f 5a c0	 cvtsd2ss xmm0, xmm0
  005e3	f3 0f 11 45 fc	 movss	 DWORD PTR _rpm$[ebp], xmm0

; 715  : 			if (rotor_rpm_diff > 0.0)

  005e8	f3 0f 5a 45 e8	 cvtss2sd xmm0, DWORD PTR _rotor_rpm_diff$1[ebp]
  005ed	66 0f 2f 05 00
	00 00 00	 comisd	 xmm0, QWORD PTR __real@0000000000000000
  005f5	0f 86 81 00 00
	00		 jbe	 $LN17@update_hok

; 716  : 				rpm *= 1.0 - bound(rotor_rpm_diff * 0.75, 0.0, 1.0);

  005fb	f3 0f 5a 45 e8	 cvtss2sd xmm0, DWORD PTR _rotor_rpm_diff$1[ebp]
  00600	f2 0f 59 05 00
	00 00 00	 mulsd	 xmm0, QWORD PTR __real@3fe8000000000000
  00608	0f 57 c9	 xorps	 xmm1, xmm1
  0060b	66 0f 2f c8	 comisd	 xmm1, xmm0
  0060f	76 0a		 jbe	 SHORT $LN42@update_hok
  00611	0f 57 c0	 xorps	 xmm0, xmm0
  00614	f2 0f 11 45 a0	 movsd	 QWORD PTR tv297[ebp], xmm0
  00619	eb 42		 jmp	 SHORT $LN43@update_hok
$LN42@update_hok:
  0061b	f3 0f 5a 45 e8	 cvtss2sd xmm0, DWORD PTR _rotor_rpm_diff$1[ebp]
  00620	f2 0f 59 05 00
	00 00 00	 mulsd	 xmm0, QWORD PTR __real@3fe8000000000000
  00628	66 0f 2f 05 00
	00 00 00	 comisd	 xmm0, QWORD PTR __real@3ff0000000000000
  00630	76 0f		 jbe	 SHORT $LN40@update_hok
  00632	f2 0f 10 05 00
	00 00 00	 movsd	 xmm0, QWORD PTR __real@3ff0000000000000
  0063a	f2 0f 11 45 98	 movsd	 QWORD PTR tv296[ebp], xmm0
  0063f	eb 12		 jmp	 SHORT $LN41@update_hok
$LN40@update_hok:
  00641	f3 0f 5a 45 e8	 cvtss2sd xmm0, DWORD PTR _rotor_rpm_diff$1[ebp]
  00646	f2 0f 59 05 00
	00 00 00	 mulsd	 xmm0, QWORD PTR __real@3fe8000000000000
  0064e	f2 0f 11 45 98	 movsd	 QWORD PTR tv296[ebp], xmm0
$LN41@update_hok:
  00653	f2 0f 10 45 98	 movsd	 xmm0, QWORD PTR tv296[ebp]
  00658	f2 0f 11 45 a0	 movsd	 QWORD PTR tv297[ebp], xmm0
$LN43@update_hok:
  0065d	f2 0f 10 05 00
	00 00 00	 movsd	 xmm0, QWORD PTR __real@3ff0000000000000
  00665	f2 0f 5c 45 a0	 subsd	 xmm0, QWORD PTR tv297[ebp]
  0066a	f3 0f 5a 4d fc	 cvtss2sd xmm1, DWORD PTR _rpm$[ebp]
  0066f	f2 0f 59 c8	 mulsd	 xmm1, xmm0
  00673	f2 0f 5a c1	 cvtsd2ss xmm0, xmm1
  00677	f3 0f 11 45 fc	 movss	 DWORD PTR _rpm$[ebp], xmm0
$LN17@update_hok:

; 717  : 		}
; 718  : 
; 719  : //Werewolf
; 720  : 		current_flight_dynamics->right_engine_torque.value += ((current_flight_dynamics->input_data.collective.value * rpm) - current_flight_dynamics->right_engine_torque.value) * (4.0 * get_model_delta_time ());

  0067c	a1 00 00 00 00	 mov	 eax, DWORD PTR ?current_flight_dynamics@@3PAUDYNAMICS_TYPE@@A ; current_flight_dynamics
  00681	f3 0f 10 80 a8
	1b 00 00	 movss	 xmm0, DWORD PTR [eax+7080]
  00689	f3 0f 59 45 fc	 mulss	 xmm0, DWORD PTR _rpm$[ebp]
  0068e	8b 0d 00 00 00
	00		 mov	 ecx, DWORD PTR ?current_flight_dynamics@@3PAUDYNAMICS_TYPE@@A ; current_flight_dynamics
  00694	f3 0f 5c 81 0c
	1d 00 00	 subss	 xmm0, DWORD PTR [ecx+7436]
  0069c	f3 0f 5a c0	 cvtss2sd xmm0, xmm0
  006a0	8b 15 00 00 00
	00		 mov	 edx, DWORD PTR ?current_flight_dynamics@@3PAUDYNAMICS_TYPE@@A ; current_flight_dynamics
  006a6	f3 0f 5a 8a 90
	00 00 00	 cvtss2sd xmm1, DWORD PTR [edx+144]
  006ae	f2 0f 59 0d 00
	00 00 00	 mulsd	 xmm1, QWORD PTR __real@4010000000000000
  006b6	f2 0f 59 c1	 mulsd	 xmm0, xmm1
  006ba	a1 00 00 00 00	 mov	 eax, DWORD PTR ?current_flight_dynamics@@3PAUDYNAMICS_TYPE@@A ; current_flight_dynamics
  006bf	f3 0f 5a 88 0c
	1d 00 00	 cvtss2sd xmm1, DWORD PTR [eax+7436]
  006c7	f2 0f 58 c8	 addsd	 xmm1, xmm0
  006cb	f2 0f 5a c1	 cvtsd2ss xmm0, xmm1
  006cf	8b 0d 00 00 00
	00		 mov	 ecx, DWORD PTR ?current_flight_dynamics@@3PAUDYNAMICS_TYPE@@A ; current_flight_dynamics
  006d5	f3 0f 11 81 0c
	1d 00 00	 movss	 DWORD PTR [ecx+7436], xmm0

; 721  : 		if (command_line_dynamics_advanced_engine_model == TRUE)

  006dd	83 3d 00 00 00
	00 01		 cmp	 DWORD PTR ?command_line_dynamics_advanced_engine_model@@3HA, 1 ; command_line_dynamics_advanced_engine_model
  006e4	75 42		 jne	 SHORT $LN18@update_hok

; 722  : 			current_flight_dynamics->right_engine_torque.value += (workload) * (4.0 * get_model_delta_time ());

  006e6	f3 0f 5a 45 f8	 cvtss2sd xmm0, DWORD PTR _workload$[ebp]
  006eb	a1 00 00 00 00	 mov	 eax, DWORD PTR ?current_flight_dynamics@@3PAUDYNAMICS_TYPE@@A ; current_flight_dynamics
  006f0	f3 0f 5a 88 90
	00 00 00	 cvtss2sd xmm1, DWORD PTR [eax+144]
  006f8	f2 0f 59 0d 00
	00 00 00	 mulsd	 xmm1, QWORD PTR __real@4010000000000000
  00700	f2 0f 59 c1	 mulsd	 xmm0, xmm1
  00704	8b 0d 00 00 00
	00		 mov	 ecx, DWORD PTR ?current_flight_dynamics@@3PAUDYNAMICS_TYPE@@A ; current_flight_dynamics
  0070a	f3 0f 5a 89 0c
	1d 00 00	 cvtss2sd xmm1, DWORD PTR [ecx+7436]
  00712	f2 0f 58 c8	 addsd	 xmm1, xmm0
  00716	f2 0f 5a c1	 cvtsd2ss xmm0, xmm1
  0071a	8b 15 00 00 00
	00		 mov	 edx, DWORD PTR ?current_flight_dynamics@@3PAUDYNAMICS_TYPE@@A ; current_flight_dynamics
  00720	f3 0f 11 82 0c
	1d 00 00	 movss	 DWORD PTR [edx+7436], xmm0
$LN18@update_hok:

; 723  : 	}
; 724  : 	else

  00728	eb 3a		 jmp	 SHORT $LN15@update_hok
$LN14@update_hok:

; 725  : 	{
; 726  : 
; 727  : 		current_flight_dynamics->right_engine_torque.value -= current_flight_dynamics->right_engine_torque.value * get_model_delta_time ();

  0072a	a1 00 00 00 00	 mov	 eax, DWORD PTR ?current_flight_dynamics@@3PAUDYNAMICS_TYPE@@A ; current_flight_dynamics
  0072f	8b 0d 00 00 00
	00		 mov	 ecx, DWORD PTR ?current_flight_dynamics@@3PAUDYNAMICS_TYPE@@A ; current_flight_dynamics
  00735	f3 0f 10 80 0c
	1d 00 00	 movss	 xmm0, DWORD PTR [eax+7436]
  0073d	f3 0f 59 81 90
	00 00 00	 mulss	 xmm0, DWORD PTR [ecx+144]
  00745	8b 15 00 00 00
	00		 mov	 edx, DWORD PTR ?current_flight_dynamics@@3PAUDYNAMICS_TYPE@@A ; current_flight_dynamics
  0074b	f3 0f 10 8a 0c
	1d 00 00	 movss	 xmm1, DWORD PTR [edx+7436]
  00753	f3 0f 5c c8	 subss	 xmm1, xmm0
  00757	a1 00 00 00 00	 mov	 eax, DWORD PTR ?current_flight_dynamics@@3PAUDYNAMICS_TYPE@@A ; current_flight_dynamics
  0075c	f3 0f 11 88 0c
	1d 00 00	 movss	 DWORD PTR [eax+7436], xmm1
$LN15@update_hok:

; 728  : 	}
; 729  : }

  00764	5f		 pop	 edi
  00765	5e		 pop	 esi
  00766	5b		 pop	 ebx
  00767	8b e5		 mov	 esp, ebp
  00769	5d		 pop	 ebp
  0076a	c3		 ret	 0
?update_hokum_advanced_dynamics@@YGXXZ ENDP		; update_hokum_advanced_dynamics
_TEXT	ENDS
; Function compile flags: /Odtp /ZI
; File c:\users\nhv90\projects\eech\aphavoc\source\gunships\dynamics\hokum\ho_dyn.c
;	COMDAT ?initialise_hokum_advanced_dynamics@@YGXPAUENTITY@@@Z
_TEXT	SEGMENT
_en$ = 8						; size = 4
?initialise_hokum_advanced_dynamics@@YGXPAUENTITY@@@Z PROC ; initialise_hokum_advanced_dynamics, COMDAT

; 127  : {

  00000	55		 push	 ebp
  00001	8b ec		 mov	 ebp, esp
  00003	83 ec 40	 sub	 esp, 64			; 00000040H
  00006	53		 push	 ebx
  00007	56		 push	 esi
  00008	57		 push	 edi

; 128  : 
; 129  : 	current_flight_dynamics = &advanced_flight_dynamics;

  00009	c7 05 00 00 00
	00 00 00 00 00	 mov	 DWORD PTR ?current_flight_dynamics@@3PAUDYNAMICS_TYPE@@A, OFFSET ?advanced_flight_dynamics@@3UDYNAMICS_TYPE@@A ; current_flight_dynamics

; 130  : 
; 131  : 	memset (current_flight_dynamics, 0, sizeof (dynamics_type));

  00013	68 40 25 00 00	 push	 9536			; 00002540H
  00018	6a 00		 push	 0
  0001a	a1 00 00 00 00	 mov	 eax, DWORD PTR ?current_flight_dynamics@@3PAUDYNAMICS_TYPE@@A ; current_flight_dynamics
  0001f	50		 push	 eax
  00020	e8 00 00 00 00	 call	 _memset
  00025	83 c4 0c	 add	 esp, 12			; 0000000cH

; 132  : 
; 133  : 	set_dynamics_defaults (en);

  00028	8b 45 08	 mov	 eax, DWORD PTR _en$[ebp]
  0002b	50		 push	 eax
  0002c	e8 00 00 00 00	 call	 ?set_dynamics_defaults@@YGXPAUENTITY@@@Z ; set_dynamics_defaults

; 134  : 
; 135  : 	current_flight_dynamics->sub_type = ENTITY_SUB_TYPE_AIRCRAFT_KA52_HOKUM_B;

  00031	a1 00 00 00 00	 mov	 eax, DWORD PTR ?current_flight_dynamics@@3PAUDYNAMICS_TYPE@@A ; current_flight_dynamics
  00036	c7 40 04 03 00
	00 00		 mov	 DWORD PTR [eax+4], 3

; 136  : 
; 137  : 	sprintf (current_flight_dynamics->filename, "..\\common\\data\\hokum.dyn");

  0003d	68 00 00 00 00	 push	 OFFSET ??_C@_0BJ@GKCIPEIG@?4?4?2common?2data?2hokum?4dyn@
  00042	a1 00 00 00 00	 mov	 eax, DWORD PTR ?current_flight_dynamics@@3PAUDYNAMICS_TYPE@@A ; current_flight_dynamics
  00047	83 c0 08	 add	 eax, 8
  0004a	50		 push	 eax
  0004b	e8 00 00 00 00	 call	 _sprintf
  00050	83 c4 08	 add	 esp, 8

; 138  : }

  00053	5f		 pop	 edi
  00054	5e		 pop	 esi
  00055	5b		 pop	 ebx
  00056	8b e5		 mov	 esp, ebp
  00058	5d		 pop	 ebp
  00059	c2 04 00	 ret	 4
?initialise_hokum_advanced_dynamics@@YGXPAUENTITY@@@Z ENDP ; initialise_hokum_advanced_dynamics
_TEXT	ENDS
; Function compile flags: /Odtp /ZI
; File c:\users\nhv90\projects\eech\aphavoc\source\gunships\dynamics\hokum\ho_dyn.c
;	COMDAT ?update_acceleration_dynamics@@YGXXZ
_TEXT	SEGMENT
tv586 = -152						; size = 8
tv587 = -144						; size = 8
tv918 = -136						; size = 8
tv417 = -136						; size = 4
tv409 = -132						; size = 4
tv571 = -128						; size = 4
tv397 = -128						; size = 4
tv563 = -124						; size = 4
tv389 = -124						; size = 4
tv901 = -120						; size = 8
tv864 = -120						; size = 8
tv377 = -120						; size = 4
tv255 = -120						; size = 8
tv241 = -120						; size = 8
tv369 = -116						; size = 4
tv609 = -112						; size = 4
tv548 = -112						; size = 4
tv522 = -112						; size = 4
tv501 = -112						; size = 4
tv480 = -112						; size = 4
tv456 = -112						; size = 4
tv436 = -112						; size = 4
tv270 = -112						; size = 4
tv256 = -112						; size = 8
tv242 = -112						; size = 8
tv601 = -108						; size = 4
tv540 = -108						; size = 4
tv514 = -108						; size = 4
tv494 = -108						; size = 4
tv473 = -108						; size = 4
tv449 = -108						; size = 4
tv428 = -108						; size = 4
tv263 = -108						; size = 4
$T1 = -104						; size = 4
$T2 = -100						; size = 4
$T3 = -96						; size = 4
$T4 = -92						; size = 4
$T5 = -88						; size = 4
$T6 = -84						; size = 4
$T7 = -80						; size = 4
$T8 = -76						; size = 4
_keysite$9 = -8						; size = 4
_raw$ = -4						; size = 4
?update_acceleration_dynamics@@YGXXZ PROC		; update_acceleration_dynamics, COMDAT

; 2677 : {

  00000	55		 push	 ebp
  00001	8b ec		 mov	 ebp, esp
  00003	81 ec 98 00 00
	00		 sub	 esp, 152		; 00000098H
  00009	53		 push	 ebx
  0000a	56		 push	 esi
  0000b	57		 push	 edi

; 2678 : 
; 2679 : 	helicopter
; 2680 : 		*raw;
; 2681 : 
; 2682 : 	raw = (helicopter *) get_local_entity_data (get_gunship_entity ());

  0000c	a1 00 00 00 00	 mov	 eax, DWORD PTR ?gunship_entity@@3PAUENTITY@@A ; gunship_entity
  00011	8b 48 04	 mov	 ecx, DWORD PTR [eax+4]
  00014	89 4d fc	 mov	 DWORD PTR _raw$[ebp], ecx

; 2683 : 
; 2684 : 	// calculate total lift provided by main rotor
; 2685 : 
; 2686 : 	current_flight_dynamics->lift.value = current_flight_dynamics->power_surplus.value * 50;

  00017	a1 00 00 00 00	 mov	 eax, DWORD PTR ?current_flight_dynamics@@3PAUDYNAMICS_TYPE@@A ; current_flight_dynamics
  0001c	f3 0f 10 80 54
	20 00 00	 movss	 xmm0, DWORD PTR [eax+8276]
  00024	f3 0f 59 05 00
	00 00 00	 mulss	 xmm0, DWORD PTR __real@42480000
  0002c	8b 0d 00 00 00
	00		 mov	 ecx, DWORD PTR ?current_flight_dynamics@@3PAUDYNAMICS_TYPE@@A ; current_flight_dynamics
  00032	f3 0f 11 81 a4
	21 00 00	 movss	 DWORD PTR [ecx+8612], xmm0

; 2687 : 
; 2688 : 	current_flight_dynamics->lift.value /= current_flight_dynamics->mass.value;

  0003a	a1 00 00 00 00	 mov	 eax, DWORD PTR ?current_flight_dynamics@@3PAUDYNAMICS_TYPE@@A ; current_flight_dynamics
  0003f	8b 0d 00 00 00
	00		 mov	 ecx, DWORD PTR ?current_flight_dynamics@@3PAUDYNAMICS_TYPE@@A ; current_flight_dynamics
  00045	f3 0f 10 80 a4
	21 00 00	 movss	 xmm0, DWORD PTR [eax+8612]
  0004d	f3 0f 5e 81 b4
	23 00 00	 divss	 xmm0, DWORD PTR [ecx+9140]
  00055	8b 15 00 00 00
	00		 mov	 edx, DWORD PTR ?current_flight_dynamics@@3PAUDYNAMICS_TYPE@@A ; current_flight_dynamics
  0005b	f3 0f 11 82 a4
	21 00 00	 movss	 DWORD PTR [edx+8612], xmm0

; 2689 : 
; 2690 : 	// transform model acceleration into world acceleration
; 2691 : 
; 2692 : 	multiply_matrix3x3_vec3d (&current_flight_dynamics->world_acceleration_vector, current_flight_dynamics->attitude, &current_flight_dynamics->model_acceleration_vector);

  00063	a1 00 00 00 00	 mov	 eax, DWORD PTR ?current_flight_dynamics@@3PAUDYNAMICS_TYPE@@A ; current_flight_dynamics
  00068	05 48 1c 00 00	 add	 eax, 7240		; 00001c48H
  0006d	50		 push	 eax
  0006e	8b 0d 00 00 00
	00		 mov	 ecx, DWORD PTR ?current_flight_dynamics@@3PAUDYNAMICS_TYPE@@A ; current_flight_dynamics
  00074	81 c1 d0 00 00
	00		 add	 ecx, 208		; 000000d0H
  0007a	51		 push	 ecx
  0007b	8b 15 00 00 00
	00		 mov	 edx, DWORD PTR ?current_flight_dynamics@@3PAUDYNAMICS_TYPE@@A ; current_flight_dynamics
  00081	81 c2 54 1c 00
	00		 add	 edx, 7252		; 00001c54H
  00087	52		 push	 edx
  00088	e8 00 00 00 00	 call	 ?multiply_matrix3x3_vec3d@@YGXPAUVEC3D@@QAY02$$CBMPBU1@@Z ; multiply_matrix3x3_vec3d

; 2693 : 
; 2694 : 	// calculate the motion vector, in world coords
; 2695 : 
; 2696 : 	current_flight_dynamics->world_motion_vector.x += current_flight_dynamics->world_acceleration_vector.x * get_model_delta_time ();

  0008d	a1 00 00 00 00	 mov	 eax, DWORD PTR ?current_flight_dynamics@@3PAUDYNAMICS_TYPE@@A ; current_flight_dynamics
  00092	8b 0d 00 00 00
	00		 mov	 ecx, DWORD PTR ?current_flight_dynamics@@3PAUDYNAMICS_TYPE@@A ; current_flight_dynamics
  00098	f3 0f 10 80 54
	1c 00 00	 movss	 xmm0, DWORD PTR [eax+7252]
  000a0	f3 0f 59 81 90
	00 00 00	 mulss	 xmm0, DWORD PTR [ecx+144]
  000a8	8b 15 00 00 00
	00		 mov	 edx, DWORD PTR ?current_flight_dynamics@@3PAUDYNAMICS_TYPE@@A ; current_flight_dynamics
  000ae	f3 0f 58 82 3c
	1c 00 00	 addss	 xmm0, DWORD PTR [edx+7228]
  000b6	a1 00 00 00 00	 mov	 eax, DWORD PTR ?current_flight_dynamics@@3PAUDYNAMICS_TYPE@@A ; current_flight_dynamics
  000bb	f3 0f 11 80 3c
	1c 00 00	 movss	 DWORD PTR [eax+7228], xmm0

; 2697 : 	current_flight_dynamics->world_motion_vector.y += current_flight_dynamics->world_acceleration_vector.y * get_model_delta_time ();

  000c3	a1 00 00 00 00	 mov	 eax, DWORD PTR ?current_flight_dynamics@@3PAUDYNAMICS_TYPE@@A ; current_flight_dynamics
  000c8	8b 0d 00 00 00
	00		 mov	 ecx, DWORD PTR ?current_flight_dynamics@@3PAUDYNAMICS_TYPE@@A ; current_flight_dynamics
  000ce	f3 0f 10 80 58
	1c 00 00	 movss	 xmm0, DWORD PTR [eax+7256]
  000d6	f3 0f 59 81 90
	00 00 00	 mulss	 xmm0, DWORD PTR [ecx+144]
  000de	8b 15 00 00 00
	00		 mov	 edx, DWORD PTR ?current_flight_dynamics@@3PAUDYNAMICS_TYPE@@A ; current_flight_dynamics
  000e4	f3 0f 58 82 40
	1c 00 00	 addss	 xmm0, DWORD PTR [edx+7232]
  000ec	a1 00 00 00 00	 mov	 eax, DWORD PTR ?current_flight_dynamics@@3PAUDYNAMICS_TYPE@@A ; current_flight_dynamics
  000f1	f3 0f 11 80 40
	1c 00 00	 movss	 DWORD PTR [eax+7232], xmm0

; 2698 : 	current_flight_dynamics->world_motion_vector.z += current_flight_dynamics->world_acceleration_vector.z * get_model_delta_time ();

  000f9	a1 00 00 00 00	 mov	 eax, DWORD PTR ?current_flight_dynamics@@3PAUDYNAMICS_TYPE@@A ; current_flight_dynamics
  000fe	8b 0d 00 00 00
	00		 mov	 ecx, DWORD PTR ?current_flight_dynamics@@3PAUDYNAMICS_TYPE@@A ; current_flight_dynamics
  00104	f3 0f 10 80 5c
	1c 00 00	 movss	 xmm0, DWORD PTR [eax+7260]
  0010c	f3 0f 59 81 90
	00 00 00	 mulss	 xmm0, DWORD PTR [ecx+144]
  00114	8b 15 00 00 00
	00		 mov	 edx, DWORD PTR ?current_flight_dynamics@@3PAUDYNAMICS_TYPE@@A ; current_flight_dynamics
  0011a	f3 0f 58 82 44
	1c 00 00	 addss	 xmm0, DWORD PTR [edx+7236]
  00122	a1 00 00 00 00	 mov	 eax, DWORD PTR ?current_flight_dynamics@@3PAUDYNAMICS_TYPE@@A ; current_flight_dynamics
  00127	f3 0f 11 80 44
	1c 00 00	 movss	 DWORD PTR [eax+7236], xmm0

; 2699 : 
; 2700 : 	current_flight_dynamics->world_velocity_x.value = current_flight_dynamics->world_motion_vector.x;

  0012f	a1 00 00 00 00	 mov	 eax, DWORD PTR ?current_flight_dynamics@@3PAUDYNAMICS_TYPE@@A ; current_flight_dynamics
  00134	8b 0d 00 00 00
	00		 mov	 ecx, DWORD PTR ?current_flight_dynamics@@3PAUDYNAMICS_TYPE@@A ; current_flight_dynamics
  0013a	8b 91 3c 1c 00
	00		 mov	 edx, DWORD PTR [ecx+7228]
  00140	89 90 fc 20 00
	00		 mov	 DWORD PTR [eax+8444], edx

; 2701 : 	current_flight_dynamics->world_velocity_y.value = current_flight_dynamics->world_motion_vector.y;

  00146	a1 00 00 00 00	 mov	 eax, DWORD PTR ?current_flight_dynamics@@3PAUDYNAMICS_TYPE@@A ; current_flight_dynamics
  0014b	8b 0d 00 00 00
	00		 mov	 ecx, DWORD PTR ?current_flight_dynamics@@3PAUDYNAMICS_TYPE@@A ; current_flight_dynamics
  00151	8b 91 40 1c 00
	00		 mov	 edx, DWORD PTR [ecx+7232]
  00157	89 90 14 21 00
	00		 mov	 DWORD PTR [eax+8468], edx

; 2702 : 	current_flight_dynamics->world_velocity_z.value = current_flight_dynamics->world_motion_vector.z;

  0015d	a1 00 00 00 00	 mov	 eax, DWORD PTR ?current_flight_dynamics@@3PAUDYNAMICS_TYPE@@A ; current_flight_dynamics
  00162	8b 0d 00 00 00
	00		 mov	 ecx, DWORD PTR ?current_flight_dynamics@@3PAUDYNAMICS_TYPE@@A ; current_flight_dynamics
  00168	8b 91 44 1c 00
	00		 mov	 edx, DWORD PTR [ecx+7236]
  0016e	89 90 2c 21 00
	00		 mov	 DWORD PTR [eax+8492], edx

; 2703 : 
; 2704 : 	// transform the motion vector back into model coords ready for read-out and bounding
; 2705 : 
; 2706 : 	multiply_transpose_matrix3x3_vec3d (&current_flight_dynamics->model_motion_vector, current_flight_dynamics->attitude, &current_flight_dynamics->world_motion_vector);

  00174	a1 00 00 00 00	 mov	 eax, DWORD PTR ?current_flight_dynamics@@3PAUDYNAMICS_TYPE@@A ; current_flight_dynamics
  00179	05 3c 1c 00 00	 add	 eax, 7228		; 00001c3cH
  0017e	50		 push	 eax
  0017f	8b 0d 00 00 00
	00		 mov	 ecx, DWORD PTR ?current_flight_dynamics@@3PAUDYNAMICS_TYPE@@A ; current_flight_dynamics
  00185	81 c1 d0 00 00
	00		 add	 ecx, 208		; 000000d0H
  0018b	51		 push	 ecx
  0018c	8b 15 00 00 00
	00		 mov	 edx, DWORD PTR ?current_flight_dynamics@@3PAUDYNAMICS_TYPE@@A ; current_flight_dynamics
  00192	81 c2 30 1c 00
	00		 add	 edx, 7216		; 00001c30H
  00198	52		 push	 edx
  00199	e8 00 00 00 00	 call	 ?multiply_transpose_matrix3x3_vec3d@@YGXPAUVEC3D@@QAY02$$CBMPBU1@@Z ; multiply_transpose_matrix3x3_vec3d

; 2707 : 
; 2708 : 	// output values for HUD etc..
; 2709 : 
; 2710 : 	current_flight_dynamics->velocity_x.delta = current_flight_dynamics->world_acceleration_vector.x * get_model_delta_time ();

  0019e	a1 00 00 00 00	 mov	 eax, DWORD PTR ?current_flight_dynamics@@3PAUDYNAMICS_TYPE@@A ; current_flight_dynamics
  001a3	8b 0d 00 00 00
	00		 mov	 ecx, DWORD PTR ?current_flight_dynamics@@3PAUDYNAMICS_TYPE@@A ; current_flight_dynamics
  001a9	f3 0f 10 80 54
	1c 00 00	 movss	 xmm0, DWORD PTR [eax+7252]
  001b1	f3 0f 59 81 90
	00 00 00	 mulss	 xmm0, DWORD PTR [ecx+144]
  001b9	8b 15 00 00 00
	00		 mov	 edx, DWORD PTR ?current_flight_dynamics@@3PAUDYNAMICS_TYPE@@A ; current_flight_dynamics
  001bf	f3 0f 11 82 70
	20 00 00	 movss	 DWORD PTR [edx+8304], xmm0

; 2711 : 	current_flight_dynamics->velocity_y.delta = current_flight_dynamics->world_acceleration_vector.y * get_model_delta_time ();

  001c7	a1 00 00 00 00	 mov	 eax, DWORD PTR ?current_flight_dynamics@@3PAUDYNAMICS_TYPE@@A ; current_flight_dynamics
  001cc	8b 0d 00 00 00
	00		 mov	 ecx, DWORD PTR ?current_flight_dynamics@@3PAUDYNAMICS_TYPE@@A ; current_flight_dynamics
  001d2	f3 0f 10 80 58
	1c 00 00	 movss	 xmm0, DWORD PTR [eax+7256]
  001da	f3 0f 59 81 90
	00 00 00	 mulss	 xmm0, DWORD PTR [ecx+144]
  001e2	8b 15 00 00 00
	00		 mov	 edx, DWORD PTR ?current_flight_dynamics@@3PAUDYNAMICS_TYPE@@A ; current_flight_dynamics
  001e8	f3 0f 11 82 88
	20 00 00	 movss	 DWORD PTR [edx+8328], xmm0

; 2712 : 	current_flight_dynamics->velocity_z.delta = current_flight_dynamics->world_acceleration_vector.z * get_model_delta_time ();

  001f0	a1 00 00 00 00	 mov	 eax, DWORD PTR ?current_flight_dynamics@@3PAUDYNAMICS_TYPE@@A ; current_flight_dynamics
  001f5	8b 0d 00 00 00
	00		 mov	 ecx, DWORD PTR ?current_flight_dynamics@@3PAUDYNAMICS_TYPE@@A ; current_flight_dynamics
  001fb	f3 0f 10 80 5c
	1c 00 00	 movss	 xmm0, DWORD PTR [eax+7260]
  00203	f3 0f 59 81 90
	00 00 00	 mulss	 xmm0, DWORD PTR [ecx+144]
  0020b	8b 15 00 00 00
	00		 mov	 edx, DWORD PTR ?current_flight_dynamics@@3PAUDYNAMICS_TYPE@@A ; current_flight_dynamics
  00211	f3 0f 11 82 a0
	20 00 00	 movss	 DWORD PTR [edx+8352], xmm0

; 2713 : 
; 2714 : 	current_flight_dynamics->velocity_x.value = current_flight_dynamics->model_motion_vector.x;

  00219	a1 00 00 00 00	 mov	 eax, DWORD PTR ?current_flight_dynamics@@3PAUDYNAMICS_TYPE@@A ; current_flight_dynamics
  0021e	8b 0d 00 00 00
	00		 mov	 ecx, DWORD PTR ?current_flight_dynamics@@3PAUDYNAMICS_TYPE@@A ; current_flight_dynamics
  00224	8b 91 30 1c 00
	00		 mov	 edx, DWORD PTR [ecx+7216]
  0022a	89 90 6c 20 00
	00		 mov	 DWORD PTR [eax+8300], edx

; 2715 : 	current_flight_dynamics->velocity_y.value = current_flight_dynamics->model_motion_vector.y;

  00230	a1 00 00 00 00	 mov	 eax, DWORD PTR ?current_flight_dynamics@@3PAUDYNAMICS_TYPE@@A ; current_flight_dynamics
  00235	8b 0d 00 00 00
	00		 mov	 ecx, DWORD PTR ?current_flight_dynamics@@3PAUDYNAMICS_TYPE@@A ; current_flight_dynamics
  0023b	8b 91 34 1c 00
	00		 mov	 edx, DWORD PTR [ecx+7220]
  00241	89 90 84 20 00
	00		 mov	 DWORD PTR [eax+8324], edx

; 2716 : 	current_flight_dynamics->velocity_z.value = current_flight_dynamics->model_motion_vector.z;

  00247	a1 00 00 00 00	 mov	 eax, DWORD PTR ?current_flight_dynamics@@3PAUDYNAMICS_TYPE@@A ; current_flight_dynamics
  0024c	8b 0d 00 00 00
	00		 mov	 ecx, DWORD PTR ?current_flight_dynamics@@3PAUDYNAMICS_TYPE@@A ; current_flight_dynamics
  00252	8b 91 38 1c 00
	00		 mov	 edx, DWORD PTR [ecx+7224]
  00258	89 90 9c 20 00
	00		 mov	 DWORD PTR [eax+8348], edx

; 2717 : 
; 2718 : 	// move position
; 2719 : 
; 2720 : 	current_flight_dynamics->position.x += current_flight_dynamics->world_motion_vector.x * get_model_delta_time ();

  0025e	a1 00 00 00 00	 mov	 eax, DWORD PTR ?current_flight_dynamics@@3PAUDYNAMICS_TYPE@@A ; current_flight_dynamics
  00263	8b 0d 00 00 00
	00		 mov	 ecx, DWORD PTR ?current_flight_dynamics@@3PAUDYNAMICS_TYPE@@A ; current_flight_dynamics
  00269	f3 0f 10 80 3c
	1c 00 00	 movss	 xmm0, DWORD PTR [eax+7228]
  00271	f3 0f 59 81 90
	00 00 00	 mulss	 xmm0, DWORD PTR [ecx+144]
  00279	f3 0f 5a c0	 cvtss2sd xmm0, xmm0
  0027d	8b 15 00 00 00
	00		 mov	 edx, DWORD PTR ?current_flight_dynamics@@3PAUDYNAMICS_TYPE@@A ; current_flight_dynamics
  00283	f2 0f 58 82 ac
	00 00 00	 addsd	 xmm0, QWORD PTR [edx+172]
  0028b	a1 00 00 00 00	 mov	 eax, DWORD PTR ?current_flight_dynamics@@3PAUDYNAMICS_TYPE@@A ; current_flight_dynamics
  00290	f2 0f 11 80 ac
	00 00 00	 movsd	 QWORD PTR [eax+172], xmm0

; 2721 : 	current_flight_dynamics->position.y += current_flight_dynamics->world_motion_vector.y * get_model_delta_time ();

  00298	a1 00 00 00 00	 mov	 eax, DWORD PTR ?current_flight_dynamics@@3PAUDYNAMICS_TYPE@@A ; current_flight_dynamics
  0029d	8b 0d 00 00 00
	00		 mov	 ecx, DWORD PTR ?current_flight_dynamics@@3PAUDYNAMICS_TYPE@@A ; current_flight_dynamics
  002a3	f3 0f 10 80 40
	1c 00 00	 movss	 xmm0, DWORD PTR [eax+7232]
  002ab	f3 0f 59 81 90
	00 00 00	 mulss	 xmm0, DWORD PTR [ecx+144]
  002b3	f3 0f 5a c0	 cvtss2sd xmm0, xmm0
  002b7	8b 15 00 00 00
	00		 mov	 edx, DWORD PTR ?current_flight_dynamics@@3PAUDYNAMICS_TYPE@@A ; current_flight_dynamics
  002bd	f2 0f 58 82 b4
	00 00 00	 addsd	 xmm0, QWORD PTR [edx+180]
  002c5	a1 00 00 00 00	 mov	 eax, DWORD PTR ?current_flight_dynamics@@3PAUDYNAMICS_TYPE@@A ; current_flight_dynamics
  002ca	f2 0f 11 80 b4
	00 00 00	 movsd	 QWORD PTR [eax+180], xmm0

; 2722 : 	current_flight_dynamics->position.z += current_flight_dynamics->world_motion_vector.z * get_model_delta_time ();

  002d2	a1 00 00 00 00	 mov	 eax, DWORD PTR ?current_flight_dynamics@@3PAUDYNAMICS_TYPE@@A ; current_flight_dynamics
  002d7	8b 0d 00 00 00
	00		 mov	 ecx, DWORD PTR ?current_flight_dynamics@@3PAUDYNAMICS_TYPE@@A ; current_flight_dynamics
  002dd	f3 0f 10 80 44
	1c 00 00	 movss	 xmm0, DWORD PTR [eax+7236]
  002e5	f3 0f 59 81 90
	00 00 00	 mulss	 xmm0, DWORD PTR [ecx+144]
  002ed	f3 0f 5a c0	 cvtss2sd xmm0, xmm0
  002f1	8b 15 00 00 00
	00		 mov	 edx, DWORD PTR ?current_flight_dynamics@@3PAUDYNAMICS_TYPE@@A ; current_flight_dynamics
  002f7	f2 0f 58 82 bc
	00 00 00	 addsd	 xmm0, QWORD PTR [edx+188]
  002ff	a1 00 00 00 00	 mov	 eax, DWORD PTR ?current_flight_dynamics@@3PAUDYNAMICS_TYPE@@A ; current_flight_dynamics
  00304	f2 0f 11 80 bc
	00 00 00	 movsd	 QWORD PTR [eax+188], xmm0

; 2723 : 
; 2724 : 	// bound to the world
; 2725 : 
; 2726 : 	bound_double_position_to_adjusted_map_volume (&current_flight_dynamics->position);

  0030c	a1 00 00 00 00	 mov	 eax, DWORD PTR ?current_flight_dynamics@@3PAUDYNAMICS_TYPE@@A ; current_flight_dynamics
  00311	05 ac 00 00 00	 add	 eax, 172		; 000000acH
  00316	50		 push	 eax
  00317	e8 00 00 00 00	 call	 ?bound_double_position_to_adjusted_map_volume@@YGHPAUDOUBLE_VEC3D@@@Z ; bound_double_position_to_adjusted_map_volume

; 2727 : 	//current_flight_dynamics->position.x = bound (current_flight_dynamics->position.x, MIN_MAP_X, MAX_MAP_X);
; 2728 : 	//current_flight_dynamics->position.z = bound (current_flight_dynamics->position.z, MIN_MAP_Z, MAX_MAP_Z);
; 2729 : 
; 2730 : 	if (get_terrain_type_class (get_3d_terrain_point_data_type (&raw->ac.terrain_info)) == TERRAIN_CLASS_LAND)

  0031c	8b 45 fc	 mov	 eax, DWORD PTR _raw$[ebp]
  0031f	05 54 01 00 00	 add	 eax, 340		; 00000154H
  00324	50		 push	 eax
  00325	e8 00 00 00 00	 call	 ?get_3d_terrain_point_data_type@@YGHPAUTERRAIN_3D_POINT_DATA@@@Z ; get_3d_terrain_point_data_type
  0032a	50		 push	 eax
  0032b	e8 00 00 00 00	 call	 ?get_terrain_type_class@@YG?AW4TERRAIN_CLASSES@@H@Z ; get_terrain_type_class
  00330	83 f8 03	 cmp	 eax, 3
  00333	75 7b		 jne	 SHORT $LN2@update_acc

; 2731 : 	{
; 2732 : 
; 2733 : 		current_flight_dynamics->position.y = bound (current_flight_dynamics->position.y, 0.0, MAX_MAP_Y);

  00335	a1 00 00 00 00	 mov	 eax, DWORD PTR ?current_flight_dynamics@@3PAUDYNAMICS_TYPE@@A ; current_flight_dynamics
  0033a	0f 57 c0	 xorps	 xmm0, xmm0
  0033d	66 0f 2f 80 b4
	00 00 00	 comisd	 xmm0, QWORD PTR [eax+180]
  00345	76 0a		 jbe	 SHORT $LN18@update_acc
  00347	0f 57 c0	 xorps	 xmm0, xmm0
  0034a	f2 0f 11 45 90	 movsd	 QWORD PTR tv242[ebp], xmm0
  0034f	eb 48		 jmp	 SHORT $LN19@update_acc
$LN18@update_acc:
  00351	f3 0f 5a 05 40
	00 00 00	 cvtss2sd xmm0, DWORD PTR ?world_map@@3UWORLD_MAP_DATA@@A+64
  00359	8b 0d 00 00 00
	00		 mov	 ecx, DWORD PTR ?current_flight_dynamics@@3PAUDYNAMICS_TYPE@@A ; current_flight_dynamics
  0035f	f2 0f 10 89 b4
	00 00 00	 movsd	 xmm1, QWORD PTR [ecx+180]
  00367	66 0f 2f c8	 comisd	 xmm1, xmm0
  0036b	76 0f		 jbe	 SHORT $LN16@update_acc
  0036d	f3 0f 5a 05 40
	00 00 00	 cvtss2sd xmm0, DWORD PTR ?world_map@@3UWORLD_MAP_DATA@@A+64
  00375	f2 0f 11 45 88	 movsd	 QWORD PTR tv241[ebp], xmm0
  0037a	eb 13		 jmp	 SHORT $LN17@update_acc
$LN16@update_acc:
  0037c	8b 15 00 00 00
	00		 mov	 edx, DWORD PTR ?current_flight_dynamics@@3PAUDYNAMICS_TYPE@@A ; current_flight_dynamics
  00382	f2 0f 10 82 b4
	00 00 00	 movsd	 xmm0, QWORD PTR [edx+180]
  0038a	f2 0f 11 45 88	 movsd	 QWORD PTR tv241[ebp], xmm0
$LN17@update_acc:
  0038f	f2 0f 10 45 88	 movsd	 xmm0, QWORD PTR tv241[ebp]
  00394	f2 0f 11 45 90	 movsd	 QWORD PTR tv242[ebp], xmm0
$LN19@update_acc:
  00399	a1 00 00 00 00	 mov	 eax, DWORD PTR ?current_flight_dynamics@@3PAUDYNAMICS_TYPE@@A ; current_flight_dynamics
  0039e	f2 0f 10 45 90	 movsd	 xmm0, QWORD PTR tv242[ebp]
  003a3	f2 0f 11 80 b4
	00 00 00	 movsd	 QWORD PTR [eax+180], xmm0

; 2734 : 	}
; 2735 : 	else

  003ab	e9 80 00 00 00	 jmp	 $LN3@update_acc
$LN2@update_acc:

; 2736 : 	{
; 2737 : 
; 2738 : 		//
; 2739 : 		// allow model to go 1m into water/forest and then blow up
; 2740 : 		//
; 2741 : 
; 2742 : 		current_flight_dynamics->position.y = bound (current_flight_dynamics->position.y, -1.0, MAX_MAP_Y);

  003b0	a1 00 00 00 00	 mov	 eax, DWORD PTR ?current_flight_dynamics@@3PAUDYNAMICS_TYPE@@A ; current_flight_dynamics
  003b5	f2 0f 10 05 00
	00 00 00	 movsd	 xmm0, QWORD PTR __real@bff0000000000000
  003bd	66 0f 2f 80 b4
	00 00 00	 comisd	 xmm0, QWORD PTR [eax+180]
  003c5	76 0f		 jbe	 SHORT $LN22@update_acc
  003c7	f2 0f 10 05 00
	00 00 00	 movsd	 xmm0, QWORD PTR __real@bff0000000000000
  003cf	f2 0f 11 45 90	 movsd	 QWORD PTR tv256[ebp], xmm0
  003d4	eb 48		 jmp	 SHORT $LN23@update_acc
$LN22@update_acc:
  003d6	f3 0f 5a 05 40
	00 00 00	 cvtss2sd xmm0, DWORD PTR ?world_map@@3UWORLD_MAP_DATA@@A+64
  003de	8b 0d 00 00 00
	00		 mov	 ecx, DWORD PTR ?current_flight_dynamics@@3PAUDYNAMICS_TYPE@@A ; current_flight_dynamics
  003e4	f2 0f 10 89 b4
	00 00 00	 movsd	 xmm1, QWORD PTR [ecx+180]
  003ec	66 0f 2f c8	 comisd	 xmm1, xmm0
  003f0	76 0f		 jbe	 SHORT $LN20@update_acc
  003f2	f3 0f 5a 05 40
	00 00 00	 cvtss2sd xmm0, DWORD PTR ?world_map@@3UWORLD_MAP_DATA@@A+64
  003fa	f2 0f 11 45 88	 movsd	 QWORD PTR tv255[ebp], xmm0
  003ff	eb 13		 jmp	 SHORT $LN21@update_acc
$LN20@update_acc:
  00401	8b 15 00 00 00
	00		 mov	 edx, DWORD PTR ?current_flight_dynamics@@3PAUDYNAMICS_TYPE@@A ; current_flight_dynamics
  00407	f2 0f 10 82 b4
	00 00 00	 movsd	 xmm0, QWORD PTR [edx+180]
  0040f	f2 0f 11 45 88	 movsd	 QWORD PTR tv255[ebp], xmm0
$LN21@update_acc:
  00414	f2 0f 10 45 88	 movsd	 xmm0, QWORD PTR tv255[ebp]
  00419	f2 0f 11 45 90	 movsd	 QWORD PTR tv256[ebp], xmm0
$LN23@update_acc:
  0041e	a1 00 00 00 00	 mov	 eax, DWORD PTR ?current_flight_dynamics@@3PAUDYNAMICS_TYPE@@A ; current_flight_dynamics
  00423	f2 0f 10 45 90	 movsd	 xmm0, QWORD PTR tv256[ebp]
  00428	f2 0f 11 80 b4
	00 00 00	 movsd	 QWORD PTR [eax+180], xmm0
$LN3@update_acc:

; 2743 : 	}
; 2744 : 
; 2745 : 	// debug - for ships, VSI = 0 when landed.
; 2746 : 
; 2747 : 	if (command_line_dynamics_flight_model < 2 && !get_local_entity_int_value (get_gunship_entity (), INT_TYPE_AIRBORNE_AIRCRAFT))

  00430	83 3d 00 00 00
	00 02		 cmp	 DWORD PTR ?command_line_dynamics_flight_model@@3HA, 2 ; command_line_dynamics_flight_model
  00437	0f 8d bc 02 00
	00		 jge	 $LN9@update_acc
  0043d	83 3d 00 00 00
	00 00		 cmp	 DWORD PTR ?gunship_entity@@3PAUENTITY@@A, 0 ; gunship_entity
  00444	74 0c		 je	 SHORT $LN24@update_acc
  00446	a1 00 00 00 00	 mov	 eax, DWORD PTR ?gunship_entity@@3PAUENTITY@@A ; gunship_entity
  0044b	8b 08		 mov	 ecx, DWORD PTR [eax]
  0044d	89 4d 94	 mov	 DWORD PTR tv263[ebp], ecx
  00450	eb 1d		 jmp	 SHORT $LN25@update_acc
$LN24@update_acc:
  00452	68 bb 0a 00 00	 push	 2747			; 00000abbH
  00457	68 00 00 00 00	 push	 OFFSET ??_C@_0EN@OILCBPIN@c?3?2users?2nhv90?2projects?2eech?2ap@
  0045c	8b 15 00 00 00
	00		 mov	 edx, DWORD PTR ?null_entity_pointer_message@@3PBDB ; null_entity_pointer_message
  00462	52		 push	 edx
  00463	e8 00 00 00 00	 call	 ?process_assert@@YGXPBD0H@Z ; process_assert
  00468	c7 45 94 00 00
	00 00		 mov	 DWORD PTR tv263[ebp], 0
$LN25@update_acc:
  0046f	b8 01 00 00 00	 mov	 eax, 1
  00474	85 c0		 test	 eax, eax
  00476	74 09		 je	 SHORT $LN26@update_acc
  00478	c7 45 90 04 00
	00 00		 mov	 DWORD PTR tv270[ebp], 4
  0047f	eb 1d		 jmp	 SHORT $LN27@update_acc
$LN26@update_acc:
  00481	68 bb 0a 00 00	 push	 2747			; 00000abbH
  00486	68 00 00 00 00	 push	 OFFSET ??_C@_0EN@OILCBPIN@c?3?2users?2nhv90?2projects?2eech?2ap@
  0048b	8b 0d 00 00 00
	00		 mov	 ecx, DWORD PTR ?overload_invalid_int_type_message@@3PBDB ; overload_invalid_int_type_message
  00491	51		 push	 ecx
  00492	e8 00 00 00 00	 call	 ?process_assert@@YGXPBD0H@Z ; process_assert
  00497	c7 45 90 00 00
	00 00		 mov	 DWORD PTR tv270[ebp], 0
$LN27@update_acc:
  0049e	6a 04		 push	 4
  004a0	8b 15 00 00 00
	00		 mov	 edx, DWORD PTR ?gunship_entity@@3PAUENTITY@@A ; gunship_entity
  004a6	52		 push	 edx
  004a7	69 45 94 5c 04
	00 00		 imul	 eax, DWORD PTR tv263[ebp], 1116
  004ae	8b 4d 90	 mov	 ecx, DWORD PTR tv270[ebp]
  004b1	8b 94 88 00 00
	00 00		 mov	 edx, DWORD PTR ?fn_get_local_entity_int_value@@3PAY0BBH@P6GHPAUENTITY@@W4INT_TYPES@@@ZA[eax+ecx*4]
  004b8	ff d2		 call	 edx
  004ba	85 c0		 test	 eax, eax
  004bc	0f 85 37 02 00
	00		 jne	 $LN9@update_acc

; 2748 : 	{
; 2749 : 
; 2750 : 		current_flight_dynamics->world_velocity_y.value = max (current_flight_dynamics->world_velocity_y.value, 0.0f);

  004c2	0f 57 c0	 xorps	 xmm0, xmm0
  004c5	f3 0f 11 45 b4	 movss	 DWORD PTR $T8[ebp], xmm0
  004ca	8d 45 b4	 lea	 eax, DWORD PTR $T8[ebp]
  004cd	50		 push	 eax
  004ce	8b 0d 00 00 00
	00		 mov	 ecx, DWORD PTR ?current_flight_dynamics@@3PAUDYNAMICS_TYPE@@A ; current_flight_dynamics
  004d4	81 c1 14 21 00
	00		 add	 ecx, 8468		; 00002114H
  004da	51		 push	 ecx
  004db	e8 00 00 00 00	 call	 ??$max@M@std@@YGABMABM0@Z ; std::max<float>
  004e0	8b 15 00 00 00
	00		 mov	 edx, DWORD PTR ?current_flight_dynamics@@3PAUDYNAMICS_TYPE@@A ; current_flight_dynamics
  004e6	8b 00		 mov	 eax, DWORD PTR [eax]
  004e8	89 82 14 21 00
	00		 mov	 DWORD PTR [edx+8468], eax

; 2751 : 		current_flight_dynamics->velocity_y.value = max (current_flight_dynamics->velocity_y.value, 0.0f);

  004ee	0f 57 c0	 xorps	 xmm0, xmm0
  004f1	f3 0f 11 45 b0	 movss	 DWORD PTR $T7[ebp], xmm0
  004f6	8d 45 b0	 lea	 eax, DWORD PTR $T7[ebp]
  004f9	50		 push	 eax
  004fa	8b 0d 00 00 00
	00		 mov	 ecx, DWORD PTR ?current_flight_dynamics@@3PAUDYNAMICS_TYPE@@A ; current_flight_dynamics
  00500	81 c1 84 20 00
	00		 add	 ecx, 8324		; 00002084H
  00506	51		 push	 ecx
  00507	e8 00 00 00 00	 call	 ??$max@M@std@@YGABMABM0@Z ; std::max<float>
  0050c	8b 15 00 00 00
	00		 mov	 edx, DWORD PTR ?current_flight_dynamics@@3PAUDYNAMICS_TYPE@@A ; current_flight_dynamics
  00512	8b 00		 mov	 eax, DWORD PTR [eax]
  00514	89 82 84 20 00
	00		 mov	 DWORD PTR [edx+8324], eax

; 2752 : 		current_flight_dynamics->model_motion_vector.y = max (current_flight_dynamics->model_motion_vector.y, 0.0f);

  0051a	0f 57 c0	 xorps	 xmm0, xmm0
  0051d	f3 0f 11 45 ac	 movss	 DWORD PTR $T6[ebp], xmm0
  00522	8d 45 ac	 lea	 eax, DWORD PTR $T6[ebp]
  00525	50		 push	 eax
  00526	8b 0d 00 00 00
	00		 mov	 ecx, DWORD PTR ?current_flight_dynamics@@3PAUDYNAMICS_TYPE@@A ; current_flight_dynamics
  0052c	81 c1 34 1c 00
	00		 add	 ecx, 7220		; 00001c34H
  00532	51		 push	 ecx
  00533	e8 00 00 00 00	 call	 ??$max@M@std@@YGABMABM0@Z ; std::max<float>
  00538	8b 15 00 00 00
	00		 mov	 edx, DWORD PTR ?current_flight_dynamics@@3PAUDYNAMICS_TYPE@@A ; current_flight_dynamics
  0053e	8b 00		 mov	 eax, DWORD PTR [eax]
  00540	89 82 34 1c 00
	00		 mov	 DWORD PTR [edx+7220], eax

; 2753 : 		current_flight_dynamics->world_motion_vector.y = max (current_flight_dynamics->world_motion_vector.y, 0.0f);

  00546	0f 57 c0	 xorps	 xmm0, xmm0
  00549	f3 0f 11 45 a8	 movss	 DWORD PTR $T5[ebp], xmm0
  0054e	8d 45 a8	 lea	 eax, DWORD PTR $T5[ebp]
  00551	50		 push	 eax
  00552	8b 0d 00 00 00
	00		 mov	 ecx, DWORD PTR ?current_flight_dynamics@@3PAUDYNAMICS_TYPE@@A ; current_flight_dynamics
  00558	81 c1 40 1c 00
	00		 add	 ecx, 7232		; 00001c40H
  0055e	51		 push	 ecx
  0055f	e8 00 00 00 00	 call	 ??$max@M@std@@YGABMABM0@Z ; std::max<float>
  00564	8b 15 00 00 00
	00		 mov	 edx, DWORD PTR ?current_flight_dynamics@@3PAUDYNAMICS_TYPE@@A ; current_flight_dynamics
  0056a	8b 00		 mov	 eax, DWORD PTR [eax]
  0056c	89 82 40 1c 00
	00		 mov	 DWORD PTR [edx+7232], eax

; 2754 : 
; 2755 : 		if (current_flight_dynamics->wheel_brake)

  00572	a1 00 00 00 00	 mov	 eax, DWORD PTR ?current_flight_dynamics@@3PAUDYNAMICS_TYPE@@A ; current_flight_dynamics
  00577	8b 88 28 25 00
	00		 mov	 ecx, DWORD PTR [eax+9512]
  0057d	c1 e9 06	 shr	 ecx, 6
  00580	83 e1 01	 and	 ecx, 1
  00583	0f 84 70 01 00
	00		 je	 $LN9@update_acc

; 2756 : 		{
; 2757 : 			// arneh, june 2006 - reduces effectivness of wheel brakes
; 2758 : 			if (current_flight_dynamics->world_motion_vector.x > 0)

  00589	a1 00 00 00 00	 mov	 eax, DWORD PTR ?current_flight_dynamics@@3PAUDYNAMICS_TYPE@@A ; current_flight_dynamics
  0058e	f3 0f 10 80 3c
	1c 00 00	 movss	 xmm0, DWORD PTR [eax+7228]
  00596	0f 2f 05 00 00
	00 00		 comiss	 xmm0, DWORD PTR __real@00000000
  0059d	76 52		 jbe	 SHORT $LN6@update_acc

; 2759 : 				current_flight_dynamics->world_motion_vector.x -= min(20.0f * get_model_delta_time (), current_flight_dynamics->world_motion_vector.x );

  0059f	a1 00 00 00 00	 mov	 eax, DWORD PTR ?current_flight_dynamics@@3PAUDYNAMICS_TYPE@@A ; current_flight_dynamics
  005a4	f3 0f 10 05 00
	00 00 00	 movss	 xmm0, DWORD PTR __real@41a00000
  005ac	f3 0f 59 80 90
	00 00 00	 mulss	 xmm0, DWORD PTR [eax+144]
  005b4	f3 0f 11 45 a4	 movss	 DWORD PTR $T4[ebp], xmm0
  005b9	8b 0d 00 00 00
	00		 mov	 ecx, DWORD PTR ?current_flight_dynamics@@3PAUDYNAMICS_TYPE@@A ; current_flight_dynamics
  005bf	81 c1 3c 1c 00
	00		 add	 ecx, 7228		; 00001c3cH
  005c5	51		 push	 ecx
  005c6	8d 55 a4	 lea	 edx, DWORD PTR $T4[ebp]
  005c9	52		 push	 edx
  005ca	e8 00 00 00 00	 call	 ??$min@M@std@@YGABMABM0@Z ; std::min<float>
  005cf	8b 0d 00 00 00
	00		 mov	 ecx, DWORD PTR ?current_flight_dynamics@@3PAUDYNAMICS_TYPE@@A ; current_flight_dynamics
  005d5	f3 0f 10 81 3c
	1c 00 00	 movss	 xmm0, DWORD PTR [ecx+7228]
  005dd	f3 0f 5c 00	 subss	 xmm0, DWORD PTR [eax]
  005e1	8b 15 00 00 00
	00		 mov	 edx, DWORD PTR ?current_flight_dynamics@@3PAUDYNAMICS_TYPE@@A ; current_flight_dynamics
  005e7	f3 0f 11 82 3c
	1c 00 00	 movss	 DWORD PTR [edx+7228], xmm0

; 2760 : 			else

  005ef	eb 50		 jmp	 SHORT $LN7@update_acc
$LN6@update_acc:

; 2761 : 				current_flight_dynamics->world_motion_vector.x -= max(-20.0f * get_model_delta_time (), current_flight_dynamics->world_motion_vector.x );

  005f1	a1 00 00 00 00	 mov	 eax, DWORD PTR ?current_flight_dynamics@@3PAUDYNAMICS_TYPE@@A ; current_flight_dynamics
  005f6	f3 0f 10 05 00
	00 00 00	 movss	 xmm0, DWORD PTR __real@c1a00000
  005fe	f3 0f 59 80 90
	00 00 00	 mulss	 xmm0, DWORD PTR [eax+144]
  00606	f3 0f 11 45 a0	 movss	 DWORD PTR $T3[ebp], xmm0
  0060b	8b 0d 00 00 00
	00		 mov	 ecx, DWORD PTR ?current_flight_dynamics@@3PAUDYNAMICS_TYPE@@A ; current_flight_dynamics
  00611	81 c1 3c 1c 00
	00		 add	 ecx, 7228		; 00001c3cH
  00617	51		 push	 ecx
  00618	8d 55 a0	 lea	 edx, DWORD PTR $T3[ebp]
  0061b	52		 push	 edx
  0061c	e8 00 00 00 00	 call	 ??$max@M@std@@YGABMABM0@Z ; std::max<float>
  00621	8b 0d 00 00 00
	00		 mov	 ecx, DWORD PTR ?current_flight_dynamics@@3PAUDYNAMICS_TYPE@@A ; current_flight_dynamics
  00627	f3 0f 10 81 3c
	1c 00 00	 movss	 xmm0, DWORD PTR [ecx+7228]
  0062f	f3 0f 5c 00	 subss	 xmm0, DWORD PTR [eax]
  00633	8b 15 00 00 00
	00		 mov	 edx, DWORD PTR ?current_flight_dynamics@@3PAUDYNAMICS_TYPE@@A ; current_flight_dynamics
  00639	f3 0f 11 82 3c
	1c 00 00	 movss	 DWORD PTR [edx+7228], xmm0
$LN7@update_acc:

; 2762 : 
; 2763 : 			if (current_flight_dynamics->world_motion_vector.z > 0)

  00641	a1 00 00 00 00	 mov	 eax, DWORD PTR ?current_flight_dynamics@@3PAUDYNAMICS_TYPE@@A ; current_flight_dynamics
  00646	f3 0f 10 80 44
	1c 00 00	 movss	 xmm0, DWORD PTR [eax+7236]
  0064e	0f 2f 05 00 00
	00 00		 comiss	 xmm0, DWORD PTR __real@00000000
  00655	76 52		 jbe	 SHORT $LN8@update_acc

; 2764 : 				current_flight_dynamics->world_motion_vector.z -= min(5.0f * get_model_delta_time (), current_flight_dynamics->world_motion_vector.z);

  00657	a1 00 00 00 00	 mov	 eax, DWORD PTR ?current_flight_dynamics@@3PAUDYNAMICS_TYPE@@A ; current_flight_dynamics
  0065c	f3 0f 10 05 00
	00 00 00	 movss	 xmm0, DWORD PTR __real@40a00000
  00664	f3 0f 59 80 90
	00 00 00	 mulss	 xmm0, DWORD PTR [eax+144]
  0066c	f3 0f 11 45 9c	 movss	 DWORD PTR $T2[ebp], xmm0
  00671	8b 0d 00 00 00
	00		 mov	 ecx, DWORD PTR ?current_flight_dynamics@@3PAUDYNAMICS_TYPE@@A ; current_flight_dynamics
  00677	81 c1 44 1c 00
	00		 add	 ecx, 7236		; 00001c44H
  0067d	51		 push	 ecx
  0067e	8d 55 9c	 lea	 edx, DWORD PTR $T2[ebp]
  00681	52		 push	 edx
  00682	e8 00 00 00 00	 call	 ??$min@M@std@@YGABMABM0@Z ; std::min<float>
  00687	8b 0d 00 00 00
	00		 mov	 ecx, DWORD PTR ?current_flight_dynamics@@3PAUDYNAMICS_TYPE@@A ; current_flight_dynamics
  0068d	f3 0f 10 81 44
	1c 00 00	 movss	 xmm0, DWORD PTR [ecx+7236]
  00695	f3 0f 5c 00	 subss	 xmm0, DWORD PTR [eax]
  00699	8b 15 00 00 00
	00		 mov	 edx, DWORD PTR ?current_flight_dynamics@@3PAUDYNAMICS_TYPE@@A ; current_flight_dynamics
  0069f	f3 0f 11 82 44
	1c 00 00	 movss	 DWORD PTR [edx+7236], xmm0

; 2765 : 			else

  006a7	eb 50		 jmp	 SHORT $LN9@update_acc
$LN8@update_acc:

; 2766 : 				current_flight_dynamics->world_motion_vector.z -= max(-5.0f * get_model_delta_time (), current_flight_dynamics->world_motion_vector.z);

  006a9	a1 00 00 00 00	 mov	 eax, DWORD PTR ?current_flight_dynamics@@3PAUDYNAMICS_TYPE@@A ; current_flight_dynamics
  006ae	f3 0f 10 05 00
	00 00 00	 movss	 xmm0, DWORD PTR __real@c0a00000
  006b6	f3 0f 59 80 90
	00 00 00	 mulss	 xmm0, DWORD PTR [eax+144]
  006be	f3 0f 11 45 98	 movss	 DWORD PTR $T1[ebp], xmm0
  006c3	8b 0d 00 00 00
	00		 mov	 ecx, DWORD PTR ?current_flight_dynamics@@3PAUDYNAMICS_TYPE@@A ; current_flight_dynamics
  006c9	81 c1 44 1c 00
	00		 add	 ecx, 7236		; 00001c44H
  006cf	51		 push	 ecx
  006d0	8d 55 98	 lea	 edx, DWORD PTR $T1[ebp]
  006d3	52		 push	 edx
  006d4	e8 00 00 00 00	 call	 ??$max@M@std@@YGABMABM0@Z ; std::max<float>
  006d9	8b 0d 00 00 00
	00		 mov	 ecx, DWORD PTR ?current_flight_dynamics@@3PAUDYNAMICS_TYPE@@A ; current_flight_dynamics
  006df	f3 0f 10 81 44
	1c 00 00	 movss	 xmm0, DWORD PTR [ecx+7236]
  006e7	f3 0f 5c 00	 subss	 xmm0, DWORD PTR [eax]
  006eb	8b 15 00 00 00
	00		 mov	 edx, DWORD PTR ?current_flight_dynamics@@3PAUDYNAMICS_TYPE@@A ; current_flight_dynamics
  006f1	f3 0f 11 82 44
	1c 00 00	 movss	 DWORD PTR [edx+7236], xmm0
$LN9@update_acc:

; 2767 : 		}
; 2768 : 	}
; 2769 : 	{
; 2770 : 
; 2771 : 		entity
; 2772 : 			*keysite;
; 2773 : 
; 2774 : 		keysite = get_local_entity_parent (get_local_entity_parent (get_gunship_entity (), LIST_TYPE_MEMBER), LIST_TYPE_KEYSITE_GROUP);

  006f9	83 3d 00 00 00
	00 00		 cmp	 DWORD PTR ?gunship_entity@@3PAUENTITY@@A, 0 ; gunship_entity
  00700	74 0c		 je	 SHORT $LN40@update_acc
  00702	a1 00 00 00 00	 mov	 eax, DWORD PTR ?gunship_entity@@3PAUENTITY@@A ; gunship_entity
  00707	8b 08		 mov	 ecx, DWORD PTR [eax]
  00709	89 4d 94	 mov	 DWORD PTR tv428[ebp], ecx
  0070c	eb 21		 jmp	 SHORT $LN41@update_acc
$LN40@update_acc:
  0070e	8b 15 00 00 00
	00		 mov	 edx, DWORD PTR ?__LINE__Var@?0??update_acceleration_dynamics@@YGXXZ@4JA
  00714	83 c2 61	 add	 edx, 97			; 00000061H
  00717	52		 push	 edx
  00718	68 00 00 00 00	 push	 OFFSET ??_C@_0EN@OILCBPIN@c?3?2users?2nhv90?2projects?2eech?2ap@
  0071d	a1 00 00 00 00	 mov	 eax, DWORD PTR ?null_entity_pointer_message@@3PBDB ; null_entity_pointer_message
  00722	50		 push	 eax
  00723	e8 00 00 00 00	 call	 ?process_assert@@YGXPBD0H@Z ; process_assert
  00728	c7 45 94 00 00
	00 00		 mov	 DWORD PTR tv428[ebp], 0
$LN41@update_acc:
  0072f	b9 01 00 00 00	 mov	 ecx, 1
  00734	85 c9		 test	 ecx, ecx
  00736	74 09		 je	 SHORT $LN42@update_acc
  00738	c7 45 90 19 00
	00 00		 mov	 DWORD PTR tv436[ebp], 25 ; 00000019H
  0073f	eb 21		 jmp	 SHORT $LN43@update_acc
$LN42@update_acc:
  00741	8b 15 00 00 00
	00		 mov	 edx, DWORD PTR ?__LINE__Var@?0??update_acceleration_dynamics@@YGXXZ@4JA
  00747	83 c2 61	 add	 edx, 97			; 00000061H
  0074a	52		 push	 edx
  0074b	68 00 00 00 00	 push	 OFFSET ??_C@_0EN@OILCBPIN@c?3?2users?2nhv90?2projects?2eech?2ap@
  00750	a1 00 00 00 00	 mov	 eax, DWORD PTR ?overload_invalid_list_type_message@@3PBDB ; overload_invalid_list_type_message
  00755	50		 push	 eax
  00756	e8 00 00 00 00	 call	 ?process_assert@@YGXPBD0H@Z ; process_assert
  0075b	c7 45 90 00 00
	00 00		 mov	 DWORD PTR tv436[ebp], 0
$LN43@update_acc:
  00762	83 3d 00 00 00
	00 00		 cmp	 DWORD PTR ?gunship_entity@@3PAUENTITY@@A, 0 ; gunship_entity
  00769	74 0d		 je	 SHORT $LN28@update_acc
  0076b	8b 0d 00 00 00
	00		 mov	 ecx, DWORD PTR ?gunship_entity@@3PAUENTITY@@A ; gunship_entity
  00771	8b 11		 mov	 edx, DWORD PTR [ecx]
  00773	89 55 8c	 mov	 DWORD PTR tv369[ebp], edx
  00776	eb 21		 jmp	 SHORT $LN29@update_acc
$LN28@update_acc:
  00778	a1 00 00 00 00	 mov	 eax, DWORD PTR ?__LINE__Var@?0??update_acceleration_dynamics@@YGXXZ@4JA
  0077d	83 c0 61	 add	 eax, 97			; 00000061H
  00780	50		 push	 eax
  00781	68 00 00 00 00	 push	 OFFSET ??_C@_0EN@OILCBPIN@c?3?2users?2nhv90?2projects?2eech?2ap@
  00786	8b 0d 00 00 00
	00		 mov	 ecx, DWORD PTR ?null_entity_pointer_message@@3PBDB ; null_entity_pointer_message
  0078c	51		 push	 ecx
  0078d	e8 00 00 00 00	 call	 ?process_assert@@YGXPBD0H@Z ; process_assert
  00792	c7 45 8c 00 00
	00 00		 mov	 DWORD PTR tv369[ebp], 0
$LN29@update_acc:
  00799	ba 01 00 00 00	 mov	 edx, 1
  0079e	85 d2		 test	 edx, edx
  007a0	74 09		 je	 SHORT $LN30@update_acc
  007a2	c7 45 88 19 00
	00 00		 mov	 DWORD PTR tv377[ebp], 25 ; 00000019H
  007a9	eb 21		 jmp	 SHORT $LN31@update_acc
$LN30@update_acc:
  007ab	a1 00 00 00 00	 mov	 eax, DWORD PTR ?__LINE__Var@?0??update_acceleration_dynamics@@YGXXZ@4JA
  007b0	83 c0 61	 add	 eax, 97			; 00000061H
  007b3	50		 push	 eax
  007b4	68 00 00 00 00	 push	 OFFSET ??_C@_0EN@OILCBPIN@c?3?2users?2nhv90?2projects?2eech?2ap@
  007b9	8b 0d 00 00 00
	00		 mov	 ecx, DWORD PTR ?overload_invalid_list_type_message@@3PBDB ; overload_invalid_list_type_message
  007bf	51		 push	 ecx
  007c0	e8 00 00 00 00	 call	 ?process_assert@@YGXPBD0H@Z ; process_assert
  007c5	c7 45 88 00 00
	00 00		 mov	 DWORD PTR tv377[ebp], 0
$LN31@update_acc:
  007cc	6a 19		 push	 25			; 00000019H
  007ce	8b 15 00 00 00
	00		 mov	 edx, DWORD PTR ?gunship_entity@@3PAUENTITY@@A ; gunship_entity
  007d4	52		 push	 edx
  007d5	69 45 8c b4 00
	00 00		 imul	 eax, DWORD PTR tv369[ebp], 180
  007dc	8b 4d 88	 mov	 ecx, DWORD PTR tv377[ebp]
  007df	8b 94 88 00 00
	00 00		 mov	 edx, DWORD PTR ?fn_get_local_entity_parent@@3PAY0CN@P6GPAUENTITY@@PAU1@W4LIST_TYPES@@@ZA[eax+ecx*4]
  007e6	ff d2		 call	 edx
  007e8	85 c0		 test	 eax, eax
  007ea	0f 84 8f 00 00
	00		 je	 $LN36@update_acc
  007f0	83 3d 00 00 00
	00 00		 cmp	 DWORD PTR ?gunship_entity@@3PAUENTITY@@A, 0 ; gunship_entity
  007f7	74 0c		 je	 SHORT $LN32@update_acc
  007f9	a1 00 00 00 00	 mov	 eax, DWORD PTR ?gunship_entity@@3PAUENTITY@@A ; gunship_entity
  007fe	8b 08		 mov	 ecx, DWORD PTR [eax]
  00800	89 4d 84	 mov	 DWORD PTR tv389[ebp], ecx
  00803	eb 21		 jmp	 SHORT $LN33@update_acc
$LN32@update_acc:
  00805	8b 15 00 00 00
	00		 mov	 edx, DWORD PTR ?__LINE__Var@?0??update_acceleration_dynamics@@YGXXZ@4JA
  0080b	83 c2 61	 add	 edx, 97			; 00000061H
  0080e	52		 push	 edx
  0080f	68 00 00 00 00	 push	 OFFSET ??_C@_0EN@OILCBPIN@c?3?2users?2nhv90?2projects?2eech?2ap@
  00814	a1 00 00 00 00	 mov	 eax, DWORD PTR ?null_entity_pointer_message@@3PBDB ; null_entity_pointer_message
  00819	50		 push	 eax
  0081a	e8 00 00 00 00	 call	 ?process_assert@@YGXPBD0H@Z ; process_assert
  0081f	c7 45 84 00 00
	00 00		 mov	 DWORD PTR tv389[ebp], 0
$LN33@update_acc:
  00826	b9 01 00 00 00	 mov	 ecx, 1
  0082b	85 c9		 test	 ecx, ecx
  0082d	74 09		 je	 SHORT $LN34@update_acc
  0082f	c7 45 80 19 00
	00 00		 mov	 DWORD PTR tv397[ebp], 25 ; 00000019H
  00836	eb 21		 jmp	 SHORT $LN35@update_acc
$LN34@update_acc:
  00838	8b 15 00 00 00
	00		 mov	 edx, DWORD PTR ?__LINE__Var@?0??update_acceleration_dynamics@@YGXXZ@4JA
  0083e	83 c2 61	 add	 edx, 97			; 00000061H
  00841	52		 push	 edx
  00842	68 00 00 00 00	 push	 OFFSET ??_C@_0EN@OILCBPIN@c?3?2users?2nhv90?2projects?2eech?2ap@
  00847	a1 00 00 00 00	 mov	 eax, DWORD PTR ?overload_invalid_list_type_message@@3PBDB ; overload_invalid_list_type_message
  0084c	50		 push	 eax
  0084d	e8 00 00 00 00	 call	 ?process_assert@@YGXPBD0H@Z ; process_assert
  00852	c7 45 80 00 00
	00 00		 mov	 DWORD PTR tv397[ebp], 0
$LN35@update_acc:
  00859	6a 19		 push	 25			; 00000019H
  0085b	8b 0d 00 00 00
	00		 mov	 ecx, DWORD PTR ?gunship_entity@@3PAUENTITY@@A ; gunship_entity
  00861	51		 push	 ecx
  00862	69 55 84 b4 00
	00 00		 imul	 edx, DWORD PTR tv389[ebp], 180
  00869	8b 45 80	 mov	 eax, DWORD PTR tv397[ebp]
  0086c	8b 8c 82 00 00
	00 00		 mov	 ecx, DWORD PTR ?fn_get_local_entity_parent@@3PAY0CN@P6GPAUENTITY@@PAU1@W4LIST_TYPES@@@ZA[edx+eax*4]
  00873	ff d1		 call	 ecx
  00875	8b 10		 mov	 edx, DWORD PTR [eax]
  00877	89 95 7c ff ff
	ff		 mov	 DWORD PTR tv409[ebp], edx
  0087d	eb 24		 jmp	 SHORT $LN37@update_acc
$LN36@update_acc:
  0087f	a1 00 00 00 00	 mov	 eax, DWORD PTR ?__LINE__Var@?0??update_acceleration_dynamics@@YGXXZ@4JA
  00884	83 c0 61	 add	 eax, 97			; 00000061H
  00887	50		 push	 eax
  00888	68 00 00 00 00	 push	 OFFSET ??_C@_0EN@OILCBPIN@c?3?2users?2nhv90?2projects?2eech?2ap@
  0088d	8b 0d 00 00 00
	00		 mov	 ecx, DWORD PTR ?null_entity_pointer_message@@3PBDB ; null_entity_pointer_message
  00893	51		 push	 ecx
  00894	e8 00 00 00 00	 call	 ?process_assert@@YGXPBD0H@Z ; process_assert
  00899	c7 85 7c ff ff
	ff 00 00 00 00	 mov	 DWORD PTR tv409[ebp], 0
$LN37@update_acc:
  008a3	ba 01 00 00 00	 mov	 edx, 1
  008a8	85 d2		 test	 edx, edx
  008aa	74 0c		 je	 SHORT $LN38@update_acc
  008ac	c7 85 78 ff ff
	ff 16 00 00 00	 mov	 DWORD PTR tv417[ebp], 22 ; 00000016H
  008b6	eb 24		 jmp	 SHORT $LN39@update_acc
$LN38@update_acc:
  008b8	a1 00 00 00 00	 mov	 eax, DWORD PTR ?__LINE__Var@?0??update_acceleration_dynamics@@YGXXZ@4JA
  008bd	83 c0 61	 add	 eax, 97			; 00000061H
  008c0	50		 push	 eax
  008c1	68 00 00 00 00	 push	 OFFSET ??_C@_0EN@OILCBPIN@c?3?2users?2nhv90?2projects?2eech?2ap@
  008c6	8b 0d 00 00 00
	00		 mov	 ecx, DWORD PTR ?overload_invalid_list_type_message@@3PBDB ; overload_invalid_list_type_message
  008cc	51		 push	 ecx
  008cd	e8 00 00 00 00	 call	 ?process_assert@@YGXPBD0H@Z ; process_assert
  008d2	c7 85 78 ff ff
	ff 00 00 00 00	 mov	 DWORD PTR tv417[ebp], 0
$LN39@update_acc:
  008dc	6a 16		 push	 22			; 00000016H
  008de	6a 19		 push	 25			; 00000019H
  008e0	8b 15 00 00 00
	00		 mov	 edx, DWORD PTR ?gunship_entity@@3PAUENTITY@@A ; gunship_entity
  008e6	52		 push	 edx
  008e7	69 45 94 b4 00
	00 00		 imul	 eax, DWORD PTR tv428[ebp], 180
  008ee	8b 4d 90	 mov	 ecx, DWORD PTR tv436[ebp]
  008f1	8b 94 88 00 00
	00 00		 mov	 edx, DWORD PTR ?fn_get_local_entity_parent@@3PAY0CN@P6GPAUENTITY@@PAU1@W4LIST_TYPES@@@ZA[eax+ecx*4]
  008f8	ff d2		 call	 edx
  008fa	50		 push	 eax
  008fb	69 85 7c ff ff
	ff b4 00 00 00	 imul	 eax, DWORD PTR tv409[ebp], 180
  00905	8b 8d 78 ff ff
	ff		 mov	 ecx, DWORD PTR tv417[ebp]
  0090b	8b 94 88 00 00
	00 00		 mov	 edx, DWORD PTR ?fn_get_local_entity_parent@@3PAY0CN@P6GPAUENTITY@@PAU1@W4LIST_TYPES@@@ZA[eax+ecx*4]
  00912	ff d2		 call	 edx
  00914	89 45 f8	 mov	 DWORD PTR _keysite$9[ebp], eax

; 2775 : 
; 2776 : 		if (keysite)

  00917	83 7d f8 00	 cmp	 DWORD PTR _keysite$9[ebp], 0
  0091b	0f 84 00 04 00
	00		 je	 $LN13@update_acc

; 2777 : 		{
; 2778 : 
; 2779 : 			if (get_local_entity_int_value (keysite, INT_TYPE_ENTITY_SUB_TYPE) == ENTITY_SUB_TYPE_KEYSITE_ANCHORAGE)

  00921	83 7d f8 00	 cmp	 DWORD PTR _keysite$9[ebp], 0
  00925	74 0a		 je	 SHORT $LN44@update_acc
  00927	8b 45 f8	 mov	 eax, DWORD PTR _keysite$9[ebp]
  0092a	8b 08		 mov	 ecx, DWORD PTR [eax]
  0092c	89 4d 94	 mov	 DWORD PTR tv449[ebp], ecx
  0092f	eb 1d		 jmp	 SHORT $LN45@update_acc
$LN44@update_acc:
  00931	68 db 0a 00 00	 push	 2779			; 00000adbH
  00936	68 00 00 00 00	 push	 OFFSET ??_C@_0EN@OILCBPIN@c?3?2users?2nhv90?2projects?2eech?2ap@
  0093b	8b 15 00 00 00
	00		 mov	 edx, DWORD PTR ?null_entity_pointer_message@@3PBDB ; null_entity_pointer_message
  00941	52		 push	 edx
  00942	e8 00 00 00 00	 call	 ?process_assert@@YGXPBD0H@Z ; process_assert
  00947	c7 45 94 00 00
	00 00		 mov	 DWORD PTR tv449[ebp], 0
$LN45@update_acc:
  0094e	b8 01 00 00 00	 mov	 eax, 1
  00953	85 c0		 test	 eax, eax
  00955	74 09		 je	 SHORT $LN46@update_acc
  00957	c7 45 90 34 00
	00 00		 mov	 DWORD PTR tv456[ebp], 52 ; 00000034H
  0095e	eb 1d		 jmp	 SHORT $LN47@update_acc
$LN46@update_acc:
  00960	68 db 0a 00 00	 push	 2779			; 00000adbH
  00965	68 00 00 00 00	 push	 OFFSET ??_C@_0EN@OILCBPIN@c?3?2users?2nhv90?2projects?2eech?2ap@
  0096a	8b 0d 00 00 00
	00		 mov	 ecx, DWORD PTR ?overload_invalid_int_type_message@@3PBDB ; overload_invalid_int_type_message
  00970	51		 push	 ecx
  00971	e8 00 00 00 00	 call	 ?process_assert@@YGXPBD0H@Z ; process_assert
  00976	c7 45 90 00 00
	00 00		 mov	 DWORD PTR tv456[ebp], 0
$LN47@update_acc:
  0097d	6a 34		 push	 52			; 00000034H
  0097f	8b 55 f8	 mov	 edx, DWORD PTR _keysite$9[ebp]
  00982	52		 push	 edx
  00983	69 45 94 5c 04
	00 00		 imul	 eax, DWORD PTR tv449[ebp], 1116
  0098a	8b 4d 90	 mov	 ecx, DWORD PTR tv456[ebp]
  0098d	8b 94 88 00 00
	00 00		 mov	 edx, DWORD PTR ?fn_get_local_entity_int_value@@3PAY0BBH@P6GHPAUENTITY@@W4INT_TYPES@@@ZA[eax+ecx*4]
  00994	ff d2		 call	 edx
  00996	83 f8 01	 cmp	 eax, 1
  00999	0f 85 82 03 00
	00		 jne	 $LN13@update_acc

; 2780 : 			{
; 2781 : 
; 2782 : 				if (helicopter_within_keysite_area (get_gunship_entity ()))

  0099f	a1 00 00 00 00	 mov	 eax, DWORD PTR ?gunship_entity@@3PAUENTITY@@A ; gunship_entity
  009a4	50		 push	 eax
  009a5	e8 00 00 00 00	 call	 ?helicopter_within_keysite_area@@YGHPAUENTITY@@@Z ; helicopter_within_keysite_area
  009aa	85 c0		 test	 eax, eax
  009ac	0f 84 6f 03 00
	00		 je	 $LN13@update_acc

; 2783 : 				{
; 2784 : 
; 2785 : 					if (current_flight_dynamics->position.y < 16.6136 + get_local_entity_float_value (get_gunship_entity (), FLOAT_TYPE_CENTRE_OF_GRAVITY_TO_GROUND_DISTANCE))

  009b2	83 3d 00 00 00
	00 00		 cmp	 DWORD PTR ?gunship_entity@@3PAUENTITY@@A, 0 ; gunship_entity
  009b9	74 0c		 je	 SHORT $LN48@update_acc
  009bb	a1 00 00 00 00	 mov	 eax, DWORD PTR ?gunship_entity@@3PAUENTITY@@A ; gunship_entity
  009c0	8b 08		 mov	 ecx, DWORD PTR [eax]
  009c2	89 4d 94	 mov	 DWORD PTR tv473[ebp], ecx
  009c5	eb 1d		 jmp	 SHORT $LN49@update_acc
$LN48@update_acc:
  009c7	68 e1 0a 00 00	 push	 2785			; 00000ae1H
  009cc	68 00 00 00 00	 push	 OFFSET ??_C@_0EN@OILCBPIN@c?3?2users?2nhv90?2projects?2eech?2ap@
  009d1	8b 15 00 00 00
	00		 mov	 edx, DWORD PTR ?null_entity_pointer_message@@3PBDB ; null_entity_pointer_message
  009d7	52		 push	 edx
  009d8	e8 00 00 00 00	 call	 ?process_assert@@YGXPBD0H@Z ; process_assert
  009dd	c7 45 94 00 00
	00 00		 mov	 DWORD PTR tv473[ebp], 0
$LN49@update_acc:
  009e4	b8 01 00 00 00	 mov	 eax, 1
  009e9	85 c0		 test	 eax, eax
  009eb	74 09		 je	 SHORT $LN50@update_acc
  009ed	c7 45 90 12 00
	00 00		 mov	 DWORD PTR tv480[ebp], 18 ; 00000012H
  009f4	eb 1d		 jmp	 SHORT $LN51@update_acc
$LN50@update_acc:
  009f6	68 e1 0a 00 00	 push	 2785			; 00000ae1H
  009fb	68 00 00 00 00	 push	 OFFSET ??_C@_0EN@OILCBPIN@c?3?2users?2nhv90?2projects?2eech?2ap@
  00a00	8b 0d 00 00 00
	00		 mov	 ecx, DWORD PTR ?overload_invalid_float_type_message@@3PBDB ; overload_invalid_float_type_message
  00a06	51		 push	 ecx
  00a07	e8 00 00 00 00	 call	 ?process_assert@@YGXPBD0H@Z ; process_assert
  00a0c	c7 45 90 00 00
	00 00		 mov	 DWORD PTR tv480[ebp], 0
$LN51@update_acc:
  00a13	6a 12		 push	 18			; 00000012H
  00a15	8b 15 00 00 00
	00		 mov	 edx, DWORD PTR ?gunship_entity@@3PAUENTITY@@A ; gunship_entity
  00a1b	52		 push	 edx
  00a1c	69 45 94 bc 02
	00 00		 imul	 eax, DWORD PTR tv473[ebp], 700
  00a23	8b 4d 90	 mov	 ecx, DWORD PTR tv480[ebp]
  00a26	8b 94 88 00 00
	00 00		 mov	 edx, DWORD PTR ?fn_get_local_entity_float_value@@3PAY0KP@P6GMPAUENTITY@@W4FLOAT_TYPES@@@ZA[eax+ecx*4]
  00a2d	ff d2		 call	 edx
  00a2f	dd 5d 88	 fstp	 QWORD PTR tv864[ebp]
  00a32	f2 0f 10 45 88	 movsd	 xmm0, QWORD PTR tv864[ebp]
  00a37	f2 0f 58 05 00
	00 00 00	 addsd	 xmm0, QWORD PTR __real@40309d14e3bcd35b
  00a3f	a1 00 00 00 00	 mov	 eax, DWORD PTR ?current_flight_dynamics@@3PAUDYNAMICS_TYPE@@A ; current_flight_dynamics
  00a44	66 0f 2f 80 b4
	00 00 00	 comisd	 xmm0, QWORD PTR [eax+180]
  00a4c	0f 86 cf 02 00
	00		 jbe	 $LN13@update_acc

; 2786 : 					{
; 2787 : 
; 2788 : 						if (get_local_entity_int_value (get_gunship_entity (), INT_TYPE_AIRBORNE_AIRCRAFT))

  00a52	83 3d 00 00 00
	00 00		 cmp	 DWORD PTR ?gunship_entity@@3PAUENTITY@@A, 0 ; gunship_entity
  00a59	74 0c		 je	 SHORT $LN52@update_acc
  00a5b	a1 00 00 00 00	 mov	 eax, DWORD PTR ?gunship_entity@@3PAUENTITY@@A ; gunship_entity
  00a60	8b 08		 mov	 ecx, DWORD PTR [eax]
  00a62	89 4d 94	 mov	 DWORD PTR tv494[ebp], ecx
  00a65	eb 1d		 jmp	 SHORT $LN53@update_acc
$LN52@update_acc:
  00a67	68 e4 0a 00 00	 push	 2788			; 00000ae4H
  00a6c	68 00 00 00 00	 push	 OFFSET ??_C@_0EN@OILCBPIN@c?3?2users?2nhv90?2projects?2eech?2ap@
  00a71	8b 15 00 00 00
	00		 mov	 edx, DWORD PTR ?null_entity_pointer_message@@3PBDB ; null_entity_pointer_message
  00a77	52		 push	 edx
  00a78	e8 00 00 00 00	 call	 ?process_assert@@YGXPBD0H@Z ; process_assert
  00a7d	c7 45 94 00 00
	00 00		 mov	 DWORD PTR tv494[ebp], 0
$LN53@update_acc:
  00a84	b8 01 00 00 00	 mov	 eax, 1
  00a89	85 c0		 test	 eax, eax
  00a8b	74 09		 je	 SHORT $LN54@update_acc
  00a8d	c7 45 90 04 00
	00 00		 mov	 DWORD PTR tv501[ebp], 4
  00a94	eb 1d		 jmp	 SHORT $LN55@update_acc
$LN54@update_acc:
  00a96	68 e4 0a 00 00	 push	 2788			; 00000ae4H
  00a9b	68 00 00 00 00	 push	 OFFSET ??_C@_0EN@OILCBPIN@c?3?2users?2nhv90?2projects?2eech?2ap@
  00aa0	8b 0d 00 00 00
	00		 mov	 ecx, DWORD PTR ?overload_invalid_int_type_message@@3PBDB ; overload_invalid_int_type_message
  00aa6	51		 push	 ecx
  00aa7	e8 00 00 00 00	 call	 ?process_assert@@YGXPBD0H@Z ; process_assert
  00aac	c7 45 90 00 00
	00 00		 mov	 DWORD PTR tv501[ebp], 0
$LN55@update_acc:
  00ab3	6a 04		 push	 4
  00ab5	8b 15 00 00 00
	00		 mov	 edx, DWORD PTR ?gunship_entity@@3PAUENTITY@@A ; gunship_entity
  00abb	52		 push	 edx
  00abc	69 45 94 5c 04
	00 00		 imul	 eax, DWORD PTR tv494[ebp], 1116
  00ac3	8b 4d 90	 mov	 ecx, DWORD PTR tv501[ebp]
  00ac6	8b 94 88 00 00
	00 00		 mov	 edx, DWORD PTR ?fn_get_local_entity_int_value@@3PAY0BBH@P6GHPAUENTITY@@W4INT_TYPES@@@ZA[eax+ecx*4]
  00acd	ff d2		 call	 edx
  00acf	85 c0		 test	 eax, eax
  00ad1	0f 84 93 00 00
	00		 je	 $LN14@update_acc

; 2789 : 						{
; 2790 : 
; 2791 : 							set_client_server_entity_int_value (get_gunship_entity (), INT_TYPE_OPERATIONAL_STATE, OPERATIONAL_STATE_TAXIING);

  00ad7	83 3d 00 00 00
	00 00		 cmp	 DWORD PTR ?gunship_entity@@3PAUENTITY@@A, 0 ; gunship_entity
  00ade	74 0c		 je	 SHORT $LN56@update_acc
  00ae0	a1 00 00 00 00	 mov	 eax, DWORD PTR ?gunship_entity@@3PAUENTITY@@A ; gunship_entity
  00ae5	8b 08		 mov	 ecx, DWORD PTR [eax]
  00ae7	89 4d 94	 mov	 DWORD PTR tv514[ebp], ecx
  00aea	eb 21		 jmp	 SHORT $LN57@update_acc
$LN56@update_acc:
  00aec	8b 15 00 00 00
	00		 mov	 edx, DWORD PTR ?__LINE__Var@?0??update_acceleration_dynamics@@YGXXZ@4JA
  00af2	83 c2 72	 add	 edx, 114		; 00000072H
  00af5	52		 push	 edx
  00af6	68 00 00 00 00	 push	 OFFSET ??_C@_0EN@OILCBPIN@c?3?2users?2nhv90?2projects?2eech?2ap@
  00afb	a1 00 00 00 00	 mov	 eax, DWORD PTR ?null_entity_pointer_message@@3PBDB ; null_entity_pointer_message
  00b00	50		 push	 eax
  00b01	e8 00 00 00 00	 call	 ?process_assert@@YGXPBD0H@Z ; process_assert
  00b06	c7 45 94 00 00
	00 00		 mov	 DWORD PTR tv514[ebp], 0
$LN57@update_acc:
  00b0d	b9 01 00 00 00	 mov	 ecx, 1
  00b12	85 c9		 test	 ecx, ecx
  00b14	74 09		 je	 SHORT $LN58@update_acc
  00b16	c7 45 90 97 00
	00 00		 mov	 DWORD PTR tv522[ebp], 151 ; 00000097H
  00b1d	eb 21		 jmp	 SHORT $LN59@update_acc
$LN58@update_acc:
  00b1f	8b 15 00 00 00
	00		 mov	 edx, DWORD PTR ?__LINE__Var@?0??update_acceleration_dynamics@@YGXXZ@4JA
  00b25	83 c2 72	 add	 edx, 114		; 00000072H
  00b28	52		 push	 edx
  00b29	68 00 00 00 00	 push	 OFFSET ??_C@_0EN@OILCBPIN@c?3?2users?2nhv90?2projects?2eech?2ap@
  00b2e	a1 00 00 00 00	 mov	 eax, DWORD PTR ?overload_invalid_int_type_message@@3PBDB ; overload_invalid_int_type_message
  00b33	50		 push	 eax
  00b34	e8 00 00 00 00	 call	 ?process_assert@@YGXPBD0H@Z ; process_assert
  00b39	c7 45 90 00 00
	00 00		 mov	 DWORD PTR tv522[ebp], 0
$LN59@update_acc:
  00b40	6a 0b		 push	 11			; 0000000bH
  00b42	68 97 00 00 00	 push	 151			; 00000097H
  00b47	8b 0d 00 00 00
	00		 mov	 ecx, DWORD PTR ?gunship_entity@@3PAUENTITY@@A ; gunship_entity
  00b4d	51		 push	 ecx
  00b4e	69 55 94 b8 08
	00 00		 imul	 edx, DWORD PTR tv514[ebp], 2232
  00b55	8b 45 90	 mov	 eax, DWORD PTR tv522[ebp]
  00b58	8d 8c c2 00 00
	00 00		 lea	 ecx, DWORD PTR ?fn_set_client_server_entity_int_value@@3PAY1BBH@1P6GXPAUENTITY@@W4INT_TYPES@@H@ZA[edx+eax*8]
  00b5f	8b 15 00 00 00
	00		 mov	 edx, DWORD PTR ?system_comms_model@@3W4COMMS_MODEL_TYPES@@A ; system_comms_model
  00b65	8b 04 91	 mov	 eax, DWORD PTR [ecx+edx*4]
  00b68	ff d0		 call	 eax
$LN14@update_acc:

; 2792 : 						}
; 2793 : 
; 2794 : 						current_flight_dynamics->position.y = bound (current_flight_dynamics->position.y, 16.6136 + get_local_entity_float_value (get_gunship_entity (), FLOAT_TYPE_CENTRE_OF_GRAVITY_TO_GROUND_DISTANCE), MAX_MAP_Y);

  00b6a	83 3d 00 00 00
	00 00		 cmp	 DWORD PTR ?gunship_entity@@3PAUENTITY@@A, 0 ; gunship_entity
  00b71	74 0c		 je	 SHORT $LN60@update_acc
  00b73	a1 00 00 00 00	 mov	 eax, DWORD PTR ?gunship_entity@@3PAUENTITY@@A ; gunship_entity
  00b78	8b 08		 mov	 ecx, DWORD PTR [eax]
  00b7a	89 4d 94	 mov	 DWORD PTR tv540[ebp], ecx
  00b7d	eb 21		 jmp	 SHORT $LN61@update_acc
$LN60@update_acc:
  00b7f	8b 15 00 00 00
	00		 mov	 edx, DWORD PTR ?__LINE__Var@?0??update_acceleration_dynamics@@YGXXZ@4JA
  00b85	83 c2 75	 add	 edx, 117		; 00000075H
  00b88	52		 push	 edx
  00b89	68 00 00 00 00	 push	 OFFSET ??_C@_0EN@OILCBPIN@c?3?2users?2nhv90?2projects?2eech?2ap@
  00b8e	a1 00 00 00 00	 mov	 eax, DWORD PTR ?null_entity_pointer_message@@3PBDB ; null_entity_pointer_message
  00b93	50		 push	 eax
  00b94	e8 00 00 00 00	 call	 ?process_assert@@YGXPBD0H@Z ; process_assert
  00b99	c7 45 94 00 00
	00 00		 mov	 DWORD PTR tv540[ebp], 0
$LN61@update_acc:
  00ba0	b9 01 00 00 00	 mov	 ecx, 1
  00ba5	85 c9		 test	 ecx, ecx
  00ba7	74 09		 je	 SHORT $LN62@update_acc
  00ba9	c7 45 90 12 00
	00 00		 mov	 DWORD PTR tv548[ebp], 18 ; 00000012H
  00bb0	eb 21		 jmp	 SHORT $LN63@update_acc
$LN62@update_acc:
  00bb2	8b 15 00 00 00
	00		 mov	 edx, DWORD PTR ?__LINE__Var@?0??update_acceleration_dynamics@@YGXXZ@4JA
  00bb8	83 c2 75	 add	 edx, 117		; 00000075H
  00bbb	52		 push	 edx
  00bbc	68 00 00 00 00	 push	 OFFSET ??_C@_0EN@OILCBPIN@c?3?2users?2nhv90?2projects?2eech?2ap@
  00bc1	a1 00 00 00 00	 mov	 eax, DWORD PTR ?overload_invalid_float_type_message@@3PBDB ; overload_invalid_float_type_message
  00bc6	50		 push	 eax
  00bc7	e8 00 00 00 00	 call	 ?process_assert@@YGXPBD0H@Z ; process_assert
  00bcc	c7 45 90 00 00
	00 00		 mov	 DWORD PTR tv548[ebp], 0
$LN63@update_acc:
  00bd3	6a 12		 push	 18			; 00000012H
  00bd5	8b 0d 00 00 00
	00		 mov	 ecx, DWORD PTR ?gunship_entity@@3PAUENTITY@@A ; gunship_entity
  00bdb	51		 push	 ecx
  00bdc	69 55 94 bc 02
	00 00		 imul	 edx, DWORD PTR tv540[ebp], 700
  00be3	8b 45 90	 mov	 eax, DWORD PTR tv548[ebp]
  00be6	8b 8c 82 00 00
	00 00		 mov	 ecx, DWORD PTR ?fn_get_local_entity_float_value@@3PAY0KP@P6GMPAUENTITY@@W4FLOAT_TYPES@@@ZA[edx+eax*4]
  00bed	ff d1		 call	 ecx
  00bef	dd 5d 88	 fstp	 QWORD PTR tv901[ebp]
  00bf2	f2 0f 10 45 88	 movsd	 xmm0, QWORD PTR tv901[ebp]
  00bf7	f2 0f 58 05 00
	00 00 00	 addsd	 xmm0, QWORD PTR __real@40309d14e3bcd35b
  00bff	8b 15 00 00 00
	00		 mov	 edx, DWORD PTR ?current_flight_dynamics@@3PAUDYNAMICS_TYPE@@A ; current_flight_dynamics
  00c05	66 0f 2f 82 b4
	00 00 00	 comisd	 xmm0, QWORD PTR [edx+180]
  00c0d	0f 86 a5 00 00
	00		 jbe	 $LN70@update_acc
  00c13	83 3d 00 00 00
	00 00		 cmp	 DWORD PTR ?gunship_entity@@3PAUENTITY@@A, 0 ; gunship_entity
  00c1a	74 0c		 je	 SHORT $LN64@update_acc
  00c1c	a1 00 00 00 00	 mov	 eax, DWORD PTR ?gunship_entity@@3PAUENTITY@@A ; gunship_entity
  00c21	8b 08		 mov	 ecx, DWORD PTR [eax]
  00c23	89 4d 84	 mov	 DWORD PTR tv563[ebp], ecx
  00c26	eb 21		 jmp	 SHORT $LN65@update_acc
$LN64@update_acc:
  00c28	8b 15 00 00 00
	00		 mov	 edx, DWORD PTR ?__LINE__Var@?0??update_acceleration_dynamics@@YGXXZ@4JA
  00c2e	83 c2 75	 add	 edx, 117		; 00000075H
  00c31	52		 push	 edx
  00c32	68 00 00 00 00	 push	 OFFSET ??_C@_0EN@OILCBPIN@c?3?2users?2nhv90?2projects?2eech?2ap@
  00c37	a1 00 00 00 00	 mov	 eax, DWORD PTR ?null_entity_pointer_message@@3PBDB ; null_entity_pointer_message
  00c3c	50		 push	 eax
  00c3d	e8 00 00 00 00	 call	 ?process_assert@@YGXPBD0H@Z ; process_assert
  00c42	c7 45 84 00 00
	00 00		 mov	 DWORD PTR tv563[ebp], 0
$LN65@update_acc:
  00c49	b9 01 00 00 00	 mov	 ecx, 1
  00c4e	85 c9		 test	 ecx, ecx
  00c50	74 09		 je	 SHORT $LN66@update_acc
  00c52	c7 45 80 12 00
	00 00		 mov	 DWORD PTR tv571[ebp], 18 ; 00000012H
  00c59	eb 21		 jmp	 SHORT $LN67@update_acc
$LN66@update_acc:
  00c5b	8b 15 00 00 00
	00		 mov	 edx, DWORD PTR ?__LINE__Var@?0??update_acceleration_dynamics@@YGXXZ@4JA
  00c61	83 c2 75	 add	 edx, 117		; 00000075H
  00c64	52		 push	 edx
  00c65	68 00 00 00 00	 push	 OFFSET ??_C@_0EN@OILCBPIN@c?3?2users?2nhv90?2projects?2eech?2ap@
  00c6a	a1 00 00 00 00	 mov	 eax, DWORD PTR ?overload_invalid_float_type_message@@3PBDB ; overload_invalid_float_type_message
  00c6f	50		 push	 eax
  00c70	e8 00 00 00 00	 call	 ?process_assert@@YGXPBD0H@Z ; process_assert
  00c75	c7 45 80 00 00
	00 00		 mov	 DWORD PTR tv571[ebp], 0
$LN67@update_acc:
  00c7c	6a 12		 push	 18			; 00000012H
  00c7e	8b 0d 00 00 00
	00		 mov	 ecx, DWORD PTR ?gunship_entity@@3PAUENTITY@@A ; gunship_entity
  00c84	51		 push	 ecx
  00c85	69 55 84 bc 02
	00 00		 imul	 edx, DWORD PTR tv563[ebp], 700
  00c8c	8b 45 80	 mov	 eax, DWORD PTR tv571[ebp]
  00c8f	8b 8c 82 00 00
	00 00		 mov	 ecx, DWORD PTR ?fn_get_local_entity_float_value@@3PAY0KP@P6GMPAUENTITY@@W4FLOAT_TYPES@@@ZA[edx+eax*4]
  00c96	ff d1		 call	 ecx
  00c98	dd 9d 78 ff ff
	ff		 fstp	 QWORD PTR tv918[ebp]
  00c9e	f2 0f 10 85 78
	ff ff ff	 movsd	 xmm0, QWORD PTR tv918[ebp]
  00ca6	f2 0f 58 05 00
	00 00 00	 addsd	 xmm0, QWORD PTR __real@40309d14e3bcd35b
  00cae	f2 0f 11 85 70
	ff ff ff	 movsd	 QWORD PTR tv587[ebp], xmm0
  00cb6	eb 53		 jmp	 SHORT $LN71@update_acc
$LN70@update_acc:
  00cb8	f3 0f 5a 05 40
	00 00 00	 cvtss2sd xmm0, DWORD PTR ?world_map@@3UWORLD_MAP_DATA@@A+64
  00cc0	8b 15 00 00 00
	00		 mov	 edx, DWORD PTR ?current_flight_dynamics@@3PAUDYNAMICS_TYPE@@A ; current_flight_dynamics
  00cc6	f2 0f 10 8a b4
	00 00 00	 movsd	 xmm1, QWORD PTR [edx+180]
  00cce	66 0f 2f c8	 comisd	 xmm1, xmm0
  00cd2	76 12		 jbe	 SHORT $LN68@update_acc
  00cd4	f3 0f 5a 05 40
	00 00 00	 cvtss2sd xmm0, DWORD PTR ?world_map@@3UWORLD_MAP_DATA@@A+64
  00cdc	f2 0f 11 85 68
	ff ff ff	 movsd	 QWORD PTR tv586[ebp], xmm0
  00ce4	eb 15		 jmp	 SHORT $LN69@update_acc
$LN68@update_acc:
  00ce6	a1 00 00 00 00	 mov	 eax, DWORD PTR ?current_flight_dynamics@@3PAUDYNAMICS_TYPE@@A ; current_flight_dynamics
  00ceb	f2 0f 10 80 b4
	00 00 00	 movsd	 xmm0, QWORD PTR [eax+180]
  00cf3	f2 0f 11 85 68
	ff ff ff	 movsd	 QWORD PTR tv586[ebp], xmm0
$LN69@update_acc:
  00cfb	f2 0f 10 85 68
	ff ff ff	 movsd	 xmm0, QWORD PTR tv586[ebp]
  00d03	f2 0f 11 85 70
	ff ff ff	 movsd	 QWORD PTR tv587[ebp], xmm0
$LN71@update_acc:
  00d0b	8b 0d 00 00 00
	00		 mov	 ecx, DWORD PTR ?current_flight_dynamics@@3PAUDYNAMICS_TYPE@@A ; current_flight_dynamics
  00d11	f2 0f 10 85 70
	ff ff ff	 movsd	 xmm0, QWORD PTR tv587[ebp]
  00d19	f2 0f 11 81 b4
	00 00 00	 movsd	 QWORD PTR [ecx+180], xmm0
$LN13@update_acc:

; 2795 : 					}
; 2796 : 				}
; 2797 : 			}
; 2798 : 		}
; 2799 : 	}
; 2800 : 
; 2801 : 	current_flight_dynamics->altitude.value = current_flight_dynamics->position.y;

  00d21	a1 00 00 00 00	 mov	 eax, DWORD PTR ?current_flight_dynamics@@3PAUDYNAMICS_TYPE@@A ; current_flight_dynamics
  00d26	f2 0f 5a 80 b4
	00 00 00	 cvtsd2ss xmm0, QWORD PTR [eax+180]
  00d2e	8b 0d 00 00 00
	00		 mov	 ecx, DWORD PTR ?current_flight_dynamics@@3PAUDYNAMICS_TYPE@@A ; current_flight_dynamics
  00d34	f3 0f 11 81 d4
	21 00 00	 movss	 DWORD PTR [ecx+8660], xmm0

; 2802 : 
; 2803 : 	current_flight_dynamics->altitude.min = get_local_entity_float_value (get_gunship_entity (), FLOAT_TYPE_TERRAIN_ELEVATION);

  00d3c	83 3d 00 00 00
	00 00		 cmp	 DWORD PTR ?gunship_entity@@3PAUENTITY@@A, 0 ; gunship_entity
  00d43	74 0c		 je	 SHORT $LN72@update_acc
  00d45	a1 00 00 00 00	 mov	 eax, DWORD PTR ?gunship_entity@@3PAUENTITY@@A ; gunship_entity
  00d4a	8b 08		 mov	 ecx, DWORD PTR [eax]
  00d4c	89 4d 94	 mov	 DWORD PTR tv601[ebp], ecx
  00d4f	eb 21		 jmp	 SHORT $LN73@update_acc
$LN72@update_acc:
  00d51	8b 15 00 00 00
	00		 mov	 edx, DWORD PTR ?__LINE__Var@?0??update_acceleration_dynamics@@YGXXZ@4JA
  00d57	83 c2 7e	 add	 edx, 126		; 0000007eH
  00d5a	52		 push	 edx
  00d5b	68 00 00 00 00	 push	 OFFSET ??_C@_0EN@OILCBPIN@c?3?2users?2nhv90?2projects?2eech?2ap@
  00d60	a1 00 00 00 00	 mov	 eax, DWORD PTR ?null_entity_pointer_message@@3PBDB ; null_entity_pointer_message
  00d65	50		 push	 eax
  00d66	e8 00 00 00 00	 call	 ?process_assert@@YGXPBD0H@Z ; process_assert
  00d6b	c7 45 94 00 00
	00 00		 mov	 DWORD PTR tv601[ebp], 0
$LN73@update_acc:
  00d72	b9 01 00 00 00	 mov	 ecx, 1
  00d77	85 c9		 test	 ecx, ecx
  00d79	74 09		 je	 SHORT $LN74@update_acc
  00d7b	c7 45 90 8d 00
	00 00		 mov	 DWORD PTR tv609[ebp], 141 ; 0000008dH
  00d82	eb 21		 jmp	 SHORT $LN75@update_acc
$LN74@update_acc:
  00d84	8b 15 00 00 00
	00		 mov	 edx, DWORD PTR ?__LINE__Var@?0??update_acceleration_dynamics@@YGXXZ@4JA
  00d8a	83 c2 7e	 add	 edx, 126		; 0000007eH
  00d8d	52		 push	 edx
  00d8e	68 00 00 00 00	 push	 OFFSET ??_C@_0EN@OILCBPIN@c?3?2users?2nhv90?2projects?2eech?2ap@
  00d93	a1 00 00 00 00	 mov	 eax, DWORD PTR ?overload_invalid_float_type_message@@3PBDB ; overload_invalid_float_type_message
  00d98	50		 push	 eax
  00d99	e8 00 00 00 00	 call	 ?process_assert@@YGXPBD0H@Z ; process_assert
  00d9e	c7 45 90 00 00
	00 00		 mov	 DWORD PTR tv609[ebp], 0
$LN75@update_acc:
  00da5	68 8d 00 00 00	 push	 141			; 0000008dH
  00daa	8b 0d 00 00 00
	00		 mov	 ecx, DWORD PTR ?gunship_entity@@3PAUENTITY@@A ; gunship_entity
  00db0	51		 push	 ecx
  00db1	69 55 94 bc 02
	00 00		 imul	 edx, DWORD PTR tv601[ebp], 700
  00db8	8b 45 90	 mov	 eax, DWORD PTR tv609[ebp]
  00dbb	8b 8c 82 00 00
	00 00		 mov	 ecx, DWORD PTR ?fn_get_local_entity_float_value@@3PAY0KP@P6GMPAUENTITY@@W4FLOAT_TYPES@@@ZA[edx+eax*4]
  00dc2	ff d1		 call	 ecx
  00dc4	8b 15 00 00 00
	00		 mov	 edx, DWORD PTR ?current_flight_dynamics@@3PAUDYNAMICS_TYPE@@A ; current_flight_dynamics
  00dca	d9 9a dc 21 00
	00		 fstp	 DWORD PTR [edx+8668]

; 2804 : }

  00dd0	5f		 pop	 edi
  00dd1	5e		 pop	 esi
  00dd2	5b		 pop	 ebx
  00dd3	8b e5		 mov	 esp, ebp
  00dd5	5d		 pop	 ebp
  00dd6	c3		 ret	 0
?update_acceleration_dynamics@@YGXXZ ENDP		; update_acceleration_dynamics
_TEXT	ENDS
; Function compile flags: /Odtp /ZI
; File c:\users\nhv90\projects\eech\aphavoc\source\gunships\dynamics\hokum\ho_dyn.c
;	COMDAT ?update_air_density_dynamics@@YGXXZ
_TEXT	SEGMENT
_Amin$ = -8						; size = 4
_Amax$ = -4						; size = 4
?update_air_density_dynamics@@YGXXZ PROC		; update_air_density_dynamics, COMDAT

; 2659 : {

  00000	55		 push	 ebp
  00001	8b ec		 mov	 ebp, esp
  00003	83 ec 48	 sub	 esp, 72			; 00000048H
  00006	53		 push	 ebx
  00007	56		 push	 esi
  00008	57		 push	 edi

; 2660 : 
; 2661 : 	float
; 2662 : 		Amax,
; 2663 : 		Amin;
; 2664 : 
; 2665 : 	Amax = current_flight_dynamics->air_density.max;

  00009	a1 00 00 00 00	 mov	 eax, DWORD PTR ?current_flight_dynamics@@3PAUDYNAMICS_TYPE@@A ; current_flight_dynamics
  0000e	f3 0f 10 80 50
	21 00 00	 movss	 xmm0, DWORD PTR [eax+8528]
  00016	f3 0f 11 45 fc	 movss	 DWORD PTR _Amax$[ebp], xmm0

; 2666 : 
; 2667 : 	Amin = current_flight_dynamics->air_density.min;

  0001b	a1 00 00 00 00	 mov	 eax, DWORD PTR ?current_flight_dynamics@@3PAUDYNAMICS_TYPE@@A ; current_flight_dynamics
  00020	f3 0f 10 80 4c
	21 00 00	 movss	 xmm0, DWORD PTR [eax+8524]
  00028	f3 0f 11 45 f8	 movss	 DWORD PTR _Amin$[ebp], xmm0

; 2668 : 
; 2669 : 	current_flight_dynamics->air_density.value = Amax - (((Amax - Amin) / 10000) * current_flight_dynamics->position.y);

  0002d	f3 0f 5a 45 fc	 cvtss2sd xmm0, DWORD PTR _Amax$[ebp]
  00032	f3 0f 10 4d fc	 movss	 xmm1, DWORD PTR _Amax$[ebp]
  00037	f3 0f 5c 4d f8	 subss	 xmm1, DWORD PTR _Amin$[ebp]
  0003c	f3 0f 5e 0d 00
	00 00 00	 divss	 xmm1, DWORD PTR __real@461c4000
  00044	f3 0f 5a c9	 cvtss2sd xmm1, xmm1
  00048	a1 00 00 00 00	 mov	 eax, DWORD PTR ?current_flight_dynamics@@3PAUDYNAMICS_TYPE@@A ; current_flight_dynamics
  0004d	f2 0f 59 88 b4
	00 00 00	 mulsd	 xmm1, QWORD PTR [eax+180]
  00055	f2 0f 5c c1	 subsd	 xmm0, xmm1
  00059	f2 0f 5a c0	 cvtsd2ss xmm0, xmm0
  0005d	8b 0d 00 00 00
	00		 mov	 ecx, DWORD PTR ?current_flight_dynamics@@3PAUDYNAMICS_TYPE@@A ; current_flight_dynamics
  00063	f3 0f 11 81 44
	21 00 00	 movss	 DWORD PTR [ecx+8516], xmm0

; 2670 : }

  0006b	5f		 pop	 edi
  0006c	5e		 pop	 esi
  0006d	5b		 pop	 ebx
  0006e	8b e5		 mov	 esp, ebp
  00070	5d		 pop	 ebp
  00071	c3		 ret	 0
?update_air_density_dynamics@@YGXXZ ENDP		; update_air_density_dynamics
_TEXT	ENDS
; Function compile flags: /Odtp /ZI
; File c:\users\nhv90\projects\eech\aphavoc\source\gunships\dynamics\hokum\ho_dyn.c
;	COMDAT ?update_power_dynamics@@YGXXZ
_TEXT	SEGMENT
tv286 = -112						; size = 4
tv262 = -112						; size = 4
tv334 = -108						; size = 4
tv332 = -108						; size = 4
tv278 = -104						; size = 4
tv255 = -104						; size = 4
$T1 = -100						; size = 4
_total_velocity$ = -32					; size = 4
_Bmax$ = -28						; size = 4
_Vmax$ = -24						; size = 4
_blade_pitch$ = -20					; size = 4
_induced_max$ = -16					; size = 4
_induced_min$ = -12					; size = 4
_profile_max$ = -8					; size = 4
_profile_min$ = -4					; size = 4
?update_power_dynamics@@YGXXZ PROC			; update_power_dynamics, COMDAT

; 2585 : {

  00000	55		 push	 ebp
  00001	8b ec		 mov	 ebp, esp
  00003	83 ec 70	 sub	 esp, 112		; 00000070H
  00006	53		 push	 ebx
  00007	56		 push	 esi
  00008	57		 push	 edi

; 2586 : 
; 2587 : 	float
; 2588 : 		profile_min = 20.0,

  00009	f3 0f 10 05 00
	00 00 00	 movss	 xmm0, DWORD PTR __real@41a00000
  00011	f3 0f 11 45 fc	 movss	 DWORD PTR _profile_min$[ebp], xmm0

; 2589 : 		profile_max = 40.0,

  00016	f3 0f 10 05 00
	00 00 00	 movss	 xmm0, DWORD PTR __real@42200000
  0001e	f3 0f 11 45 f8	 movss	 DWORD PTR _profile_max$[ebp], xmm0

; 2590 : 		induced_min = 50.0,

  00023	f3 0f 10 05 00
	00 00 00	 movss	 xmm0, DWORD PTR __real@42480000
  0002b	f3 0f 11 45 f4	 movss	 DWORD PTR _induced_min$[ebp], xmm0

; 2591 : 		induced_max = 30.0,

  00030	f3 0f 10 05 00
	00 00 00	 movss	 xmm0, DWORD PTR __real@41f00000
  00038	f3 0f 11 45 f0	 movss	 DWORD PTR _induced_max$[ebp], xmm0

; 2592 : 		blade_pitch,
; 2593 : 		Vmax,
; 2594 : 		Bmax,
; 2595 : 		total_velocity;
; 2596 : 
; 2597 : 	current_flight_dynamics->power_avaliable.value = current_flight_dynamics->main_rotor_thrust.value * ((current_flight_dynamics->main_rotor_induced_air.value) - (current_flight_dynamics->velocity_y.value / 10.0));

  0003d	a1 00 00 00 00	 mov	 eax, DWORD PTR ?current_flight_dynamics@@3PAUDYNAMICS_TYPE@@A ; current_flight_dynamics
  00042	f3 0f 5a 80 cc
	1d 00 00	 cvtss2sd xmm0, DWORD PTR [eax+7628]
  0004a	8b 0d 00 00 00
	00		 mov	 ecx, DWORD PTR ?current_flight_dynamics@@3PAUDYNAMICS_TYPE@@A ; current_flight_dynamics
  00050	f3 0f 5a 89 6c
	1d 00 00	 cvtss2sd xmm1, DWORD PTR [ecx+7532]
  00058	8b 15 00 00 00
	00		 mov	 edx, DWORD PTR ?current_flight_dynamics@@3PAUDYNAMICS_TYPE@@A ; current_flight_dynamics
  0005e	f3 0f 5a 92 84
	20 00 00	 cvtss2sd xmm2, DWORD PTR [edx+8324]
  00066	f2 0f 5e 15 00
	00 00 00	 divsd	 xmm2, QWORD PTR __real@4024000000000000
  0006e	f2 0f 5c ca	 subsd	 xmm1, xmm2
  00072	f2 0f 59 c1	 mulsd	 xmm0, xmm1
  00076	f2 0f 5a c0	 cvtsd2ss xmm0, xmm0
  0007a	a1 00 00 00 00	 mov	 eax, DWORD PTR ?current_flight_dynamics@@3PAUDYNAMICS_TYPE@@A ; current_flight_dynamics
  0007f	f3 0f 11 80 dc
	1f 00 00	 movss	 DWORD PTR [eax+8156], xmm0

; 2598 : 
; 2599 : 	total_velocity = (fabs (current_flight_dynamics->velocity_x.value) + fabs (current_flight_dynamics->velocity_z.value));

  00087	a1 00 00 00 00	 mov	 eax, DWORD PTR ?current_flight_dynamics@@3PAUDYNAMICS_TYPE@@A ; current_flight_dynamics
  0008c	51		 push	 ecx
  0008d	f3 0f 10 80 6c
	20 00 00	 movss	 xmm0, DWORD PTR [eax+8300]
  00095	f3 0f 11 04 24	 movss	 DWORD PTR [esp], xmm0
  0009a	e8 00 00 00 00	 call	 ?fabs@@YGMM@Z		; fabs
  0009f	d9 5d 98	 fstp	 DWORD PTR tv255[ebp]
  000a2	f3 0f 10 45 98	 movss	 xmm0, DWORD PTR tv255[ebp]
  000a7	8b 0d 00 00 00
	00		 mov	 ecx, DWORD PTR ?current_flight_dynamics@@3PAUDYNAMICS_TYPE@@A ; current_flight_dynamics
  000ad	51		 push	 ecx
  000ae	f3 0f 10 89 9c
	20 00 00	 movss	 xmm1, DWORD PTR [ecx+8348]
  000b6	f3 0f 11 0c 24	 movss	 DWORD PTR [esp], xmm1
  000bb	f3 0f 11 45 94	 movss	 DWORD PTR tv332[ebp], xmm0
  000c0	e8 00 00 00 00	 call	 ?fabs@@YGMM@Z		; fabs
  000c5	d9 5d 90	 fstp	 DWORD PTR tv262[ebp]
  000c8	f3 0f 10 45 94	 movss	 xmm0, DWORD PTR tv332[ebp]
  000cd	f3 0f 58 45 90	 addss	 xmm0, DWORD PTR tv262[ebp]
  000d2	f3 0f 11 45 e0	 movss	 DWORD PTR _total_velocity$[ebp], xmm0

; 2600 : 
; 2601 : 	blade_pitch = current_flight_dynamics->main_blade_pitch.value;

  000d7	a1 00 00 00 00	 mov	 eax, DWORD PTR ?current_flight_dynamics@@3PAUDYNAMICS_TYPE@@A ; current_flight_dynamics
  000dc	f3 0f 10 80 8c
	1e 00 00	 movss	 xmm0, DWORD PTR [eax+7820]
  000e4	f3 0f 11 45 ec	 movss	 DWORD PTR _blade_pitch$[ebp], xmm0

; 2602 : 
; 2603 : 	Bmax = current_flight_dynamics->main_blade_pitch.max;

  000e9	a1 00 00 00 00	 mov	 eax, DWORD PTR ?current_flight_dynamics@@3PAUDYNAMICS_TYPE@@A ; current_flight_dynamics
  000ee	f3 0f 10 80 98
	1e 00 00	 movss	 xmm0, DWORD PTR [eax+7832]
  000f6	f3 0f 11 45 e4	 movss	 DWORD PTR _Bmax$[ebp], xmm0

; 2604 : 
; 2605 : 	Vmax = (current_flight_dynamics->velocity_x.max + current_flight_dynamics->velocity_z.max);

  000fb	a1 00 00 00 00	 mov	 eax, DWORD PTR ?current_flight_dynamics@@3PAUDYNAMICS_TYPE@@A ; current_flight_dynamics
  00100	8b 0d 00 00 00
	00		 mov	 ecx, DWORD PTR ?current_flight_dynamics@@3PAUDYNAMICS_TYPE@@A ; current_flight_dynamics
  00106	f3 0f 10 80 78
	20 00 00	 movss	 xmm0, DWORD PTR [eax+8312]
  0010e	f3 0f 58 81 a8
	20 00 00	 addss	 xmm0, DWORD PTR [ecx+8360]
  00116	f3 0f 11 45 e8	 movss	 DWORD PTR _Vmax$[ebp], xmm0

; 2606 : 
; 2607 : 	// parasitic drag = square of velocity
; 2608 : 
; 2609 : 	if (total_velocity)

  0011b	f3 0f 10 45 e0	 movss	 xmm0, DWORD PTR _total_velocity$[ebp]
  00120	0f 2e 05 00 00
	00 00		 ucomiss xmm0, DWORD PTR __real@00000000
  00127	9f		 lahf
  00128	f6 c4 44	 test	 ah, 68			; 00000044H
  0012b	0f 8b 89 00 00
	00		 jnp	 $LN2@update_pow

; 2610 : 	{
; 2611 : 
; 2612 : 		current_flight_dynamics->power_parasite.value = (current_flight_dynamics->power_avaliable.value * pow (total_velocity, 2) / pow (Vmax, 2)) / 10;

  00131	6a 02		 push	 2
  00133	51		 push	 ecx
  00134	f3 0f 10 45 e0	 movss	 xmm0, DWORD PTR _total_velocity$[ebp]
  00139	f3 0f 11 04 24	 movss	 DWORD PTR [esp], xmm0
  0013e	e8 00 00 00 00	 call	 ?pow@@YGMMH@Z		; pow
  00143	d9 5d 98	 fstp	 DWORD PTR tv278[ebp]
  00146	a1 00 00 00 00	 mov	 eax, DWORD PTR ?current_flight_dynamics@@3PAUDYNAMICS_TYPE@@A ; current_flight_dynamics
  0014b	f3 0f 10 45 98	 movss	 xmm0, DWORD PTR tv278[ebp]
  00150	f3 0f 59 80 dc
	1f 00 00	 mulss	 xmm0, DWORD PTR [eax+8156]
  00158	6a 02		 push	 2
  0015a	51		 push	 ecx
  0015b	f3 0f 10 4d e8	 movss	 xmm1, DWORD PTR _Vmax$[ebp]
  00160	f3 0f 11 0c 24	 movss	 DWORD PTR [esp], xmm1
  00165	f3 0f 11 45 94	 movss	 DWORD PTR tv334[ebp], xmm0
  0016a	e8 00 00 00 00	 call	 ?pow@@YGMMH@Z		; pow
  0016f	d9 5d 90	 fstp	 DWORD PTR tv286[ebp]
  00172	f3 0f 10 45 94	 movss	 xmm0, DWORD PTR tv334[ebp]
  00177	f3 0f 5e 45 90	 divss	 xmm0, DWORD PTR tv286[ebp]
  0017c	f3 0f 5e 05 00
	00 00 00	 divss	 xmm0, DWORD PTR __real@41200000
  00184	8b 0d 00 00 00
	00		 mov	 ecx, DWORD PTR ?current_flight_dynamics@@3PAUDYNAMICS_TYPE@@A ; current_flight_dynamics
  0018a	f3 0f 11 81 3c
	20 00 00	 movss	 DWORD PTR [ecx+8252], xmm0

; 2613 : 
; 2614 : 		// rotor profile drag = linear from min to max across V
; 2615 : 
; 2616 : 		current_flight_dynamics->power_profile.value = ((profile_max - profile_min) / Vmax) * total_velocity + profile_min;

  00192	f3 0f 10 45 f8	 movss	 xmm0, DWORD PTR _profile_max$[ebp]
  00197	f3 0f 5c 45 fc	 subss	 xmm0, DWORD PTR _profile_min$[ebp]
  0019c	f3 0f 5e 45 e8	 divss	 xmm0, DWORD PTR _Vmax$[ebp]
  001a1	f3 0f 59 45 e0	 mulss	 xmm0, DWORD PTR _total_velocity$[ebp]
  001a6	f3 0f 58 45 fc	 addss	 xmm0, DWORD PTR _profile_min$[ebp]
  001ab	a1 00 00 00 00	 mov	 eax, DWORD PTR ?current_flight_dynamics@@3PAUDYNAMICS_TYPE@@A ; current_flight_dynamics
  001b0	f3 0f 11 80 24
	20 00 00	 movss	 DWORD PTR [eax+8228], xmm0

; 2617 : 	}
; 2618 : 	else

  001b8	eb 22		 jmp	 SHORT $LN3@update_pow
$LN2@update_pow:

; 2619 : 	{
; 2620 : 		current_flight_dynamics->power_parasite.value = 0;

  001ba	a1 00 00 00 00	 mov	 eax, DWORD PTR ?current_flight_dynamics@@3PAUDYNAMICS_TYPE@@A ; current_flight_dynamics
  001bf	0f 57 c0	 xorps	 xmm0, xmm0
  001c2	f3 0f 11 80 3c
	20 00 00	 movss	 DWORD PTR [eax+8252], xmm0

; 2621 : 
; 2622 : 		current_flight_dynamics->power_profile.value = profile_min;

  001ca	a1 00 00 00 00	 mov	 eax, DWORD PTR ?current_flight_dynamics@@3PAUDYNAMICS_TYPE@@A ; current_flight_dynamics
  001cf	f3 0f 10 45 fc	 movss	 xmm0, DWORD PTR _profile_min$[ebp]
  001d4	f3 0f 11 80 24
	20 00 00	 movss	 DWORD PTR [eax+8228], xmm0
$LN3@update_pow:

; 2623 : 	}
; 2624 : 
; 2625 : 	// rotor induced power = linear wrt blade angle
; 2626 : 
; 2627 : 	current_flight_dynamics->power_induced.value = ((induced_max - induced_min) / Bmax) * blade_pitch + induced_min;

  001dc	f3 0f 10 45 f0	 movss	 xmm0, DWORD PTR _induced_max$[ebp]
  001e1	f3 0f 5c 45 f4	 subss	 xmm0, DWORD PTR _induced_min$[ebp]
  001e6	f3 0f 5e 45 e4	 divss	 xmm0, DWORD PTR _Bmax$[ebp]
  001eb	f3 0f 59 45 ec	 mulss	 xmm0, DWORD PTR _blade_pitch$[ebp]
  001f0	f3 0f 58 45 f4	 addss	 xmm0, DWORD PTR _induced_min$[ebp]
  001f5	a1 00 00 00 00	 mov	 eax, DWORD PTR ?current_flight_dynamics@@3PAUDYNAMICS_TYPE@@A ; current_flight_dynamics
  001fa	f3 0f 11 80 0c
	20 00 00	 movss	 DWORD PTR [eax+8204], xmm0

; 2628 : 
; 2629 : //tg
; 2630 : 	// induced power decreases upto 60kts and then increases. 100% @ 0kts -> 50% @ 60 kts-> 100% @ max kts
; 2631 : 
; 2632 : 	if (current_flight_dynamics->velocity_z.value < knots_to_metres_per_second (60.0))

  00202	a1 00 00 00 00	 mov	 eax, DWORD PTR ?current_flight_dynamics@@3PAUDYNAMICS_TYPE@@A ; current_flight_dynamics
  00207	f3 0f 5a 80 9c
	20 00 00	 cvtss2sd xmm0, DWORD PTR [eax+8348]
  0020f	f2 0f 10 0d 00
	00 00 00	 movsd	 xmm1, QWORD PTR __real@403eec14e0000000
  00217	66 0f 2f c8	 comisd	 xmm1, xmm0
  0021b	76 54		 jbe	 SHORT $LN4@update_pow

; 2633 : 	{
; 2634 : 
; 2635 : 		current_flight_dynamics->power_induced.value -= (current_flight_dynamics->power_induced.value / 2.0) * (current_flight_dynamics->velocity_z.value / knots_to_metres_per_second (60.0));

  0021d	a1 00 00 00 00	 mov	 eax, DWORD PTR ?current_flight_dynamics@@3PAUDYNAMICS_TYPE@@A ; current_flight_dynamics
  00222	f3 0f 5a 80 0c
	20 00 00	 cvtss2sd xmm0, DWORD PTR [eax+8204]
  0022a	f2 0f 5e 05 00
	00 00 00	 divsd	 xmm0, QWORD PTR __real@4000000000000000
  00232	8b 0d 00 00 00
	00		 mov	 ecx, DWORD PTR ?current_flight_dynamics@@3PAUDYNAMICS_TYPE@@A ; current_flight_dynamics
  00238	f3 0f 5a 89 9c
	20 00 00	 cvtss2sd xmm1, DWORD PTR [ecx+8348]
  00240	f2 0f 5e 0d 00
	00 00 00	 divsd	 xmm1, QWORD PTR __real@403eec14e0000000
  00248	f2 0f 59 c1	 mulsd	 xmm0, xmm1
  0024c	8b 15 00 00 00
	00		 mov	 edx, DWORD PTR ?current_flight_dynamics@@3PAUDYNAMICS_TYPE@@A ; current_flight_dynamics
  00252	f3 0f 5a 8a 0c
	20 00 00	 cvtss2sd xmm1, DWORD PTR [edx+8204]
  0025a	f2 0f 5c c8	 subsd	 xmm1, xmm0
  0025e	f2 0f 5a c1	 cvtsd2ss xmm0, xmm1
  00262	a1 00 00 00 00	 mov	 eax, DWORD PTR ?current_flight_dynamics@@3PAUDYNAMICS_TYPE@@A ; current_flight_dynamics
  00267	f3 0f 11 80 0c
	20 00 00	 movss	 DWORD PTR [eax+8204], xmm0

; 2636 : 	}
; 2637 : 	else

  0026f	eb 76		 jmp	 SHORT $LN5@update_pow
$LN4@update_pow:

; 2638 : 	{
; 2639 : 
; 2640 : 		current_flight_dynamics->power_induced.value -= (current_flight_dynamics->power_induced.value / 2.0) * ((current_flight_dynamics->velocity_z.max - current_flight_dynamics->velocity_z.value) + knots_to_metres_per_second (60.0)) / (current_flight_dynamics->velocity_z.max);

  00271	a1 00 00 00 00	 mov	 eax, DWORD PTR ?current_flight_dynamics@@3PAUDYNAMICS_TYPE@@A ; current_flight_dynamics
  00276	f3 0f 5a 80 0c
	20 00 00	 cvtss2sd xmm0, DWORD PTR [eax+8204]
  0027e	f2 0f 5e 05 00
	00 00 00	 divsd	 xmm0, QWORD PTR __real@4000000000000000
  00286	8b 0d 00 00 00
	00		 mov	 ecx, DWORD PTR ?current_flight_dynamics@@3PAUDYNAMICS_TYPE@@A ; current_flight_dynamics
  0028c	8b 15 00 00 00
	00		 mov	 edx, DWORD PTR ?current_flight_dynamics@@3PAUDYNAMICS_TYPE@@A ; current_flight_dynamics
  00292	f3 0f 10 89 a8
	20 00 00	 movss	 xmm1, DWORD PTR [ecx+8360]
  0029a	f3 0f 5c 8a 9c
	20 00 00	 subss	 xmm1, DWORD PTR [edx+8348]
  002a2	f3 0f 5a c9	 cvtss2sd xmm1, xmm1
  002a6	f2 0f 58 0d 00
	00 00 00	 addsd	 xmm1, QWORD PTR __real@403eec14e0000000
  002ae	f2 0f 59 c1	 mulsd	 xmm0, xmm1
  002b2	a1 00 00 00 00	 mov	 eax, DWORD PTR ?current_flight_dynamics@@3PAUDYNAMICS_TYPE@@A ; current_flight_dynamics
  002b7	f3 0f 5a 88 a8
	20 00 00	 cvtss2sd xmm1, DWORD PTR [eax+8360]
  002bf	f2 0f 5e c1	 divsd	 xmm0, xmm1
  002c3	8b 0d 00 00 00
	00		 mov	 ecx, DWORD PTR ?current_flight_dynamics@@3PAUDYNAMICS_TYPE@@A ; current_flight_dynamics
  002c9	f3 0f 5a 89 0c
	20 00 00	 cvtss2sd xmm1, DWORD PTR [ecx+8204]
  002d1	f2 0f 5c c8	 subsd	 xmm1, xmm0
  002d5	f2 0f 5a c1	 cvtsd2ss xmm0, xmm1
  002d9	8b 15 00 00 00
	00		 mov	 edx, DWORD PTR ?current_flight_dynamics@@3PAUDYNAMICS_TYPE@@A ; current_flight_dynamics
  002df	f3 0f 11 82 0c
	20 00 00	 movss	 DWORD PTR [edx+8204], xmm0
$LN5@update_pow:

; 2641 : 	}
; 2642 : 
; 2643 : 	current_flight_dynamics->power_required.value = current_flight_dynamics->power_induced.value + current_flight_dynamics->power_profile.value + current_flight_dynamics->power_parasite.value;

  002e7	a1 00 00 00 00	 mov	 eax, DWORD PTR ?current_flight_dynamics@@3PAUDYNAMICS_TYPE@@A ; current_flight_dynamics
  002ec	8b 0d 00 00 00
	00		 mov	 ecx, DWORD PTR ?current_flight_dynamics@@3PAUDYNAMICS_TYPE@@A ; current_flight_dynamics
  002f2	f3 0f 10 80 0c
	20 00 00	 movss	 xmm0, DWORD PTR [eax+8204]
  002fa	f3 0f 58 81 24
	20 00 00	 addss	 xmm0, DWORD PTR [ecx+8228]
  00302	8b 15 00 00 00
	00		 mov	 edx, DWORD PTR ?current_flight_dynamics@@3PAUDYNAMICS_TYPE@@A ; current_flight_dynamics
  00308	f3 0f 58 82 3c
	20 00 00	 addss	 xmm0, DWORD PTR [edx+8252]
  00310	a1 00 00 00 00	 mov	 eax, DWORD PTR ?current_flight_dynamics@@3PAUDYNAMICS_TYPE@@A ; current_flight_dynamics
  00315	f3 0f 11 80 f4
	1f 00 00	 movss	 DWORD PTR [eax+8180], xmm0

; 2644 : 
; 2645 : 	current_flight_dynamics->power_required.value /= 100;

  0031d	a1 00 00 00 00	 mov	 eax, DWORD PTR ?current_flight_dynamics@@3PAUDYNAMICS_TYPE@@A ; current_flight_dynamics
  00322	f3 0f 10 80 f4
	1f 00 00	 movss	 xmm0, DWORD PTR [eax+8180]
  0032a	f3 0f 5e 05 00
	00 00 00	 divss	 xmm0, DWORD PTR __real@42c80000
  00332	8b 0d 00 00 00
	00		 mov	 ecx, DWORD PTR ?current_flight_dynamics@@3PAUDYNAMICS_TYPE@@A ; current_flight_dynamics
  00338	f3 0f 11 81 f4
	1f 00 00	 movss	 DWORD PTR [ecx+8180], xmm0

; 2646 : 
; 2647 : 	current_flight_dynamics->power_required.value *= current_flight_dynamics->power_avaliable.max;

  00340	a1 00 00 00 00	 mov	 eax, DWORD PTR ?current_flight_dynamics@@3PAUDYNAMICS_TYPE@@A ; current_flight_dynamics
  00345	8b 0d 00 00 00
	00		 mov	 ecx, DWORD PTR ?current_flight_dynamics@@3PAUDYNAMICS_TYPE@@A ; current_flight_dynamics
  0034b	f3 0f 10 80 f4
	1f 00 00	 movss	 xmm0, DWORD PTR [eax+8180]
  00353	f3 0f 59 81 e8
	1f 00 00	 mulss	 xmm0, DWORD PTR [ecx+8168]
  0035b	8b 15 00 00 00
	00		 mov	 edx, DWORD PTR ?current_flight_dynamics@@3PAUDYNAMICS_TYPE@@A ; current_flight_dynamics
  00361	f3 0f 11 82 f4
	1f 00 00	 movss	 DWORD PTR [edx+8180], xmm0

; 2648 : 
; 2649 : 	current_flight_dynamics->power_surplus.value = current_flight_dynamics->power_avaliable.value - current_flight_dynamics->power_required.value;

  00369	a1 00 00 00 00	 mov	 eax, DWORD PTR ?current_flight_dynamics@@3PAUDYNAMICS_TYPE@@A ; current_flight_dynamics
  0036e	8b 0d 00 00 00
	00		 mov	 ecx, DWORD PTR ?current_flight_dynamics@@3PAUDYNAMICS_TYPE@@A ; current_flight_dynamics
  00374	f3 0f 10 80 dc
	1f 00 00	 movss	 xmm0, DWORD PTR [eax+8156]
  0037c	f3 0f 5c 81 f4
	1f 00 00	 subss	 xmm0, DWORD PTR [ecx+8180]
  00384	8b 15 00 00 00
	00		 mov	 edx, DWORD PTR ?current_flight_dynamics@@3PAUDYNAMICS_TYPE@@A ; current_flight_dynamics
  0038a	f3 0f 11 82 54
	20 00 00	 movss	 DWORD PTR [edx+8276], xmm0

; 2650 : 
; 2651 : 	current_flight_dynamics->power_surplus.value = max (current_flight_dynamics->power_surplus.value, 0.0f);

  00392	0f 57 c0	 xorps	 xmm0, xmm0
  00395	f3 0f 11 45 9c	 movss	 DWORD PTR $T1[ebp], xmm0
  0039a	8d 45 9c	 lea	 eax, DWORD PTR $T1[ebp]
  0039d	50		 push	 eax
  0039e	8b 0d 00 00 00
	00		 mov	 ecx, DWORD PTR ?current_flight_dynamics@@3PAUDYNAMICS_TYPE@@A ; current_flight_dynamics
  003a4	81 c1 54 20 00
	00		 add	 ecx, 8276		; 00002054H
  003aa	51		 push	 ecx
  003ab	e8 00 00 00 00	 call	 ??$max@M@std@@YGABMABM0@Z ; std::max<float>
  003b0	8b 15 00 00 00
	00		 mov	 edx, DWORD PTR ?current_flight_dynamics@@3PAUDYNAMICS_TYPE@@A ; current_flight_dynamics
  003b6	8b 00		 mov	 eax, DWORD PTR [eax]
  003b8	89 82 54 20 00
	00		 mov	 DWORD PTR [edx+8276], eax

; 2652 : }

  003be	5f		 pop	 edi
  003bf	5e		 pop	 esi
  003c0	5b		 pop	 ebx
  003c1	8b e5		 mov	 esp, ebp
  003c3	5d		 pop	 ebp
  003c4	c3		 ret	 0
?update_power_dynamics@@YGXXZ ENDP			; update_power_dynamics
_TEXT	ENDS
; Function compile flags: /Odtp /ZI
; File c:\users\nhv90\projects\eech\aphavoc\source\gunships\dynamics\hokum\ho_dyn.c
;	COMDAT ?update_attitude_dynamics@@YGXXZ
_TEXT	SEGMENT
tv2666 = -780						; size = 8
tv1757 = -780						; size = 8
tv1676 = -780						; size = 8
tv1593 = -780						; size = 8
tv1510 = -780						; size = 8
tv1427 = -780						; size = 8
tv1311 = -780						; size = 8
tv1234 = -780						; size = 8
tv1119 = -780						; size = 8
tv862 = -780						; size = 8
tv411 = -780						; size = 8
tv3018 = -776						; size = 4
tv2969 = -776						; size = 4
tv90 = -776						; size = 4
tv3533 = -772						; size = 4
tv3531 = -772						; size = 4
tv3529 = -772						; size = 8
tv3527 = -772						; size = 8
tv3458 = -772						; size = 8
tv3422 = -772						; size = 8
tv3045 = -772						; size = 8
tv2858 = -772						; size = 8
tv2765 = -772						; size = 8
tv2734 = -772						; size = 8
tv2691 = -772						; size = 8
tv2680 = -772						; size = 8
tv2645 = -772						; size = 8
tv2636 = -772						; size = 8
tv1876 = -772						; size = 4
tv1758 = -772						; size = 8
tv1677 = -772						; size = 8
tv1594 = -772						; size = 8
tv1511 = -772						; size = 8
tv1428 = -772						; size = 8
tv1312 = -772						; size = 8
tv1235 = -772						; size = 8
tv1120 = -772						; size = 8
tv863 = -772						; size = 8
tv412 = -772						; size = 8
tv393 = -772						; size = 4
tv278 = -772						; size = 4
tv256 = -772						; size = 4
tv179 = -772						; size = 4
tv83 = -772						; size = 4
tv3378 = -768						; size = 4
tv3358 = -768						; size = 4
tv3351 = -768						; size = 4
tv3345 = -768						; size = 4
tv3324 = -768						; size = 4
tv3297 = -768						; size = 4
tv3261 = -768						; size = 4
tv3234 = -768						; size = 4
tv3198 = -768						; size = 4
tv3171 = -768						; size = 4
tv3135 = -768						; size = 4
tv3108 = -768						; size = 4
tv3066 = -768						; size = 4
tv3008 = -768						; size = 4
tv2959 = -768						; size = 4
tv2587 = -768						; size = 4
tv1869 = -768						; size = 4
tv386 = -768						; size = 4
tv293 = -768						; size = 4
tv270 = -768						; size = 4
tv248 = -768						; size = 4
tv172 = -768						; size = 4
tv129 = -768						; size = 4
tv75 = -768						; size = 4
$T1 = -764						; size = 4
$T2 = -760						; size = 4
$T3 = -756						; size = 4
$T4 = -752						; size = 4
$T5 = -748						; size = 4
$T6 = -744						; size = 4
$T7 = -740						; size = 4
$T8 = -736						; size = 4
$T9 = -732						; size = 4
$T10 = -728						; size = 4
$T11 = -724						; size = 4
$T12 = -720						; size = 8
$T13 = -712						; size = 8
$T14 = -704						; size = 4
$T15 = -700						; size = 4
$T16 = -696						; size = 8
$T17 = -688						; size = 8
$T18 = -680						; size = 8
$T19 = -672						; size = 8
$T20 = -664						; size = 4
$T21 = -660						; size = 8
$T22 = -652						; size = 8
_position$23 = -516					; size = 12
_direction$24 = -504					; size = 12
_force$25 = -492					; size = 4
_velocity_factor$26 = -488				; size = 4
_vibration_limit$27 = -484				; size = 4
_air_over_rotor$28 = -480				; size = 4
_tuning_value$29 = -476					; size = 4
_tuning_value$30 = -472					; size = 4
_tuning_value$31 = -468					; size = 4
_tuning_value$32 = -464					; size = 4
_over_all_g_e_force$33 = -460				; size = 4
_world_position$34 = -456				; size = 12
_terrain_info$35 = -444					; size = 44
_altitude$36 = -400					; size = 4
_Fmax$37 = -396						; size = 4
_drag$38 = -392						; size = 4
_Fmax$39 = -388						; size = 4
_drag$40 = -384						; size = 4
_sign$41 = -380						; size = 4
_unnormalised_direction$42 = -376			; size = 12
_calibrated_velocity$43 = -364				; size = 4
_drag$44 = -360						; size = 4
_scaling$45 = -356					; size = 4
_a$46 = -352						; size = 4
_normalised_world_motion_vector$47 = -348		; size = 12
_motion_vector_pitch$48 = -336				; size = 4
_vel$49 = -332						; size = 4
_force$50 = -328					; size = 4
_normalised_model_motion_vector$51 = -324		; size = 12
_position$52 = -312					; size = 12
_wind$53 = -300						; size = 12
_temp_model_motion_vector$54 = -288			; size = 12
_mass_percentage$55 = -276				; size = 4
_model_motion_vector$ = -272				; size = 12
_world_motion_vector$ = -260				; size = 12
_rotor_direction$ = -248				; size = 12
_direction$ = -236					; size = 12
_position$ = -224					; size = 12
_model_wind$ = -212					; size = 12
_wind$ = -200						; size = 12
_main_blade_pitch_value$ = -188				; size = 4
_horizontal_velocity$ = -184				; size = 4
_velocity_z_value$ = -180				; size = 4
_main_blade_y_pitch_value$ = -176			; size = 4
_main_blade_x_pitch_value$ = -172			; size = 4
_pitch_value$ = -168					; size = 4
_roll_inertia_value$ = -164				; size = 4
_pitch_inertia_value$ = -160				; size = 4
_heading_inertia_value$ = -156				; size = 4
_tail_rotor_induced_air_value$ = -152			; size = 4
_main_rotor_roll_angle_value$ = -148			; size = 4
_main_rotor_rpm_value$ = -144				; size = 4
_main_rotor_pitch_angle_value$ = -140			; size = 4
_main_rotor_induced_air_value$ = -136			; size = 4
_main_angular_force$ = -132				; size = 4
_reaction_force$ = -128					; size = 4
_right_rotor_force$ = -124				; size = 4
_left_rotor_force$ = -120				; size = 4
_back_rotor_force$ = -116				; size = 4
_front_rotor_force$ = -112				; size = 4
_rotor_force$ = -108					; size = 4
_force$ = -104						; size = 4
_edge_rotor_split$ = -100				; size = 4
_rotor_split$ = -96					; size = 4
_motion_vector_magnitude$ = -92				; size = 4
_rotor_edge_value$ = -88				; size = 4
_angle$ = -84						; size = 4
_rotor_radius$ = -80					; size = 4
_attitude$ = -76					; size = 36
_rotor_attitude$ = -40					; size = 36
_model_landed$ = -4					; size = 4
?update_attitude_dynamics@@YGXXZ PROC			; update_attitude_dynamics, COMDAT

; 1254 : {

  00000	55		 push	 ebp
  00001	8b ec		 mov	 ebp, esp
  00003	81 ec 0c 03 00
	00		 sub	 esp, 780		; 0000030cH
  00009	53		 push	 ebx
  0000a	56		 push	 esi
  0000b	57		 push	 edi

; 1255 : 
; 1256 : 	int
; 1257 : 		model_landed;
; 1258 : 
; 1259 : 	matrix3x3
; 1260 : 		rotor_attitude,
; 1261 : 		attitude;
; 1262 : 
; 1263 : 	float
; 1264 : 		rotor_radius = current_flight_dynamics->main_rotor_diameter.value * 0.5,

  0000c	a1 00 00 00 00	 mov	 eax, DWORD PTR ?current_flight_dynamics@@3PAUDYNAMICS_TYPE@@A ; current_flight_dynamics
  00011	f3 0f 5a 80 9c
	1d 00 00	 cvtss2sd xmm0, DWORD PTR [eax+7580]
  00019	f2 0f 59 05 00
	00 00 00	 mulsd	 xmm0, QWORD PTR __real@3fe0000000000000
  00021	f2 0f 5a c0	 cvtsd2ss xmm0, xmm0
  00025	f3 0f 11 45 b0	 movss	 DWORD PTR _rotor_radius$[ebp], xmm0

; 1265 : 		angle,
; 1266 : 		rotor_edge_value,
; 1267 : 		motion_vector_magnitude,
; 1268 : 		rotor_split,
; 1269 : 		edge_rotor_split,
; 1270 : 		force,
; 1271 : 		rotor_force,
; 1272 : 		front_rotor_force,
; 1273 : 		back_rotor_force,
; 1274 : 		left_rotor_force,
; 1275 : 		right_rotor_force,
; 1276 : 		reaction_force,
; 1277 : 		main_angular_force;
; 1278 : 
; 1279 : 	float
; 1280 : 		main_rotor_induced_air_value,
; 1281 : 		main_rotor_pitch_angle_value,
; 1282 : 		main_rotor_rpm_value,
; 1283 : 		main_rotor_roll_angle_value,
; 1284 : 		tail_rotor_induced_air_value,
; 1285 : 		heading_inertia_value,
; 1286 : 		pitch_inertia_value,
; 1287 : 		roll_inertia_value,
; 1288 : 		pitch_value,
; 1289 : 		main_blade_x_pitch_value,
; 1290 : 		main_blade_y_pitch_value,
; 1291 : 		velocity_z_value,
; 1292 : 		horizontal_velocity,
; 1293 : 		main_blade_pitch_value;
; 1294 : 
; 1295 : 	vec3d
; 1296 : 		wind,
; 1297 : 		model_wind,
; 1298 : 		position,
; 1299 : 		direction,
; 1300 : 		rotor_direction,
; 1301 : 		world_motion_vector,
; 1302 : 		model_motion_vector;
; 1303 : 
; 1304 : 	model_landed = !get_local_entity_int_value (get_gunship_entity (), INT_TYPE_AIRBORNE_AIRCRAFT);

  0002a	83 3d 00 00 00
	00 00		 cmp	 DWORD PTR ?gunship_entity@@3PAUENTITY@@A, 0 ; gunship_entity
  00031	74 0f		 je	 SHORT $LN73@update_att
  00033	a1 00 00 00 00	 mov	 eax, DWORD PTR ?gunship_entity@@3PAUENTITY@@A ; gunship_entity
  00038	8b 08		 mov	 ecx, DWORD PTR [eax]
  0003a	89 8d 00 fd ff
	ff		 mov	 DWORD PTR tv75[ebp], ecx
  00040	eb 24		 jmp	 SHORT $LN74@update_att
$LN73@update_att:
  00042	8b 15 00 00 00
	00		 mov	 edx, DWORD PTR ?__LINE__Var@?0??update_attitude_dynamics@@YGXXZ@4JA
  00048	83 c2 32	 add	 edx, 50			; 00000032H
  0004b	52		 push	 edx
  0004c	68 00 00 00 00	 push	 OFFSET ??_C@_0EN@OILCBPIN@c?3?2users?2nhv90?2projects?2eech?2ap@
  00051	a1 00 00 00 00	 mov	 eax, DWORD PTR ?null_entity_pointer_message@@3PBDB ; null_entity_pointer_message
  00056	50		 push	 eax
  00057	e8 00 00 00 00	 call	 ?process_assert@@YGXPBD0H@Z ; process_assert
  0005c	c7 85 00 fd ff
	ff 00 00 00 00	 mov	 DWORD PTR tv75[ebp], 0
$LN74@update_att:
  00066	b9 01 00 00 00	 mov	 ecx, 1
  0006b	85 c9		 test	 ecx, ecx
  0006d	74 0c		 je	 SHORT $LN75@update_att
  0006f	c7 85 fc fc ff
	ff 04 00 00 00	 mov	 DWORD PTR tv83[ebp], 4
  00079	eb 24		 jmp	 SHORT $LN76@update_att
$LN75@update_att:
  0007b	8b 15 00 00 00
	00		 mov	 edx, DWORD PTR ?__LINE__Var@?0??update_attitude_dynamics@@YGXXZ@4JA
  00081	83 c2 32	 add	 edx, 50			; 00000032H
  00084	52		 push	 edx
  00085	68 00 00 00 00	 push	 OFFSET ??_C@_0EN@OILCBPIN@c?3?2users?2nhv90?2projects?2eech?2ap@
  0008a	a1 00 00 00 00	 mov	 eax, DWORD PTR ?overload_invalid_int_type_message@@3PBDB ; overload_invalid_int_type_message
  0008f	50		 push	 eax
  00090	e8 00 00 00 00	 call	 ?process_assert@@YGXPBD0H@Z ; process_assert
  00095	c7 85 fc fc ff
	ff 00 00 00 00	 mov	 DWORD PTR tv83[ebp], 0
$LN76@update_att:
  0009f	6a 04		 push	 4
  000a1	8b 0d 00 00 00
	00		 mov	 ecx, DWORD PTR ?gunship_entity@@3PAUENTITY@@A ; gunship_entity
  000a7	51		 push	 ecx
  000a8	69 95 00 fd ff
	ff 5c 04 00 00	 imul	 edx, DWORD PTR tv75[ebp], 1116
  000b2	8b 85 fc fc ff
	ff		 mov	 eax, DWORD PTR tv83[ebp]
  000b8	8b 8c 82 00 00
	00 00		 mov	 ecx, DWORD PTR ?fn_get_local_entity_int_value@@3PAY0BBH@P6GHPAUENTITY@@W4INT_TYPES@@@ZA[edx+eax*4]
  000bf	ff d1		 call	 ecx
  000c1	85 c0		 test	 eax, eax
  000c3	75 0c		 jne	 SHORT $LN77@update_att
  000c5	c7 85 f8 fc ff
	ff 01 00 00 00	 mov	 DWORD PTR tv90[ebp], 1
  000cf	eb 0a		 jmp	 SHORT $LN78@update_att
$LN77@update_att:
  000d1	c7 85 f8 fc ff
	ff 00 00 00 00	 mov	 DWORD PTR tv90[ebp], 0
$LN78@update_att:
  000db	8b 95 f8 fc ff
	ff		 mov	 edx, DWORD PTR tv90[ebp]
  000e1	89 55 fc	 mov	 DWORD PTR _model_landed$[ebp], edx

; 1305 : 
; 1306 : 	get_local_entity_attitude_matrix (get_gunship_entity (), attitude);

  000e4	83 3d 00 00 00
	00 00		 cmp	 DWORD PTR ?gunship_entity@@3PAUENTITY@@A, 0 ; gunship_entity
  000eb	74 0f		 je	 SHORT $LN79@update_att
  000ed	a1 00 00 00 00	 mov	 eax, DWORD PTR ?gunship_entity@@3PAUENTITY@@A ; gunship_entity
  000f2	8b 08		 mov	 ecx, DWORD PTR [eax]
  000f4	89 8d 00 fd ff
	ff		 mov	 DWORD PTR tv129[ebp], ecx
  000fa	eb 24		 jmp	 SHORT $LN80@update_att
$LN79@update_att:
  000fc	8b 15 00 00 00
	00		 mov	 edx, DWORD PTR ?__LINE__Var@?0??update_attitude_dynamics@@YGXXZ@4JA
  00102	83 c2 34	 add	 edx, 52			; 00000034H
  00105	52		 push	 edx
  00106	68 00 00 00 00	 push	 OFFSET ??_C@_0EN@OILCBPIN@c?3?2users?2nhv90?2projects?2eech?2ap@
  0010b	a1 00 00 00 00	 mov	 eax, DWORD PTR ?null_entity_pointer_message@@3PBDB ; null_entity_pointer_message
  00110	50		 push	 eax
  00111	e8 00 00 00 00	 call	 ?process_assert@@YGXPBD0H@Z ; process_assert
  00116	c7 85 00 fd ff
	ff 00 00 00 00	 mov	 DWORD PTR tv129[ebp], 0
$LN80@update_att:
  00120	8d 4d b4	 lea	 ecx, DWORD PTR _attitude$[ebp]
  00123	51		 push	 ecx
  00124	8b 15 00 00 00
	00		 mov	 edx, DWORD PTR ?gunship_entity@@3PAUENTITY@@A ; gunship_entity
  0012a	52		 push	 edx
  0012b	8b 85 00 fd ff
	ff		 mov	 eax, DWORD PTR tv129[ebp]
  00131	8b 0c 85 00 00
	00 00		 mov	 ecx, DWORD PTR ?fn_get_local_entity_attitude_matrix@@3PAP6GXPAUENTITY@@QAY02M@ZA[eax*4]
  00138	ff d1		 call	 ecx

; 1307 : 
; 1308 : 	world_motion_vector = current_flight_dynamics->world_motion_vector;

  0013a	a1 00 00 00 00	 mov	 eax, DWORD PTR ?current_flight_dynamics@@3PAUDYNAMICS_TYPE@@A ; current_flight_dynamics
  0013f	05 3c 1c 00 00	 add	 eax, 7228		; 00001c3cH
  00144	8b 08		 mov	 ecx, DWORD PTR [eax]
  00146	89 8d fc fe ff
	ff		 mov	 DWORD PTR _world_motion_vector$[ebp], ecx
  0014c	8b 50 04	 mov	 edx, DWORD PTR [eax+4]
  0014f	89 95 00 ff ff
	ff		 mov	 DWORD PTR _world_motion_vector$[ebp+4], edx
  00155	8b 40 08	 mov	 eax, DWORD PTR [eax+8]
  00158	89 85 04 ff ff
	ff		 mov	 DWORD PTR _world_motion_vector$[ebp+8], eax

; 1309 : 
; 1310 : 	model_motion_vector = current_flight_dynamics->model_motion_vector;

  0015e	a1 00 00 00 00	 mov	 eax, DWORD PTR ?current_flight_dynamics@@3PAUDYNAMICS_TYPE@@A ; current_flight_dynamics
  00163	05 30 1c 00 00	 add	 eax, 7216		; 00001c30H
  00168	8b 08		 mov	 ecx, DWORD PTR [eax]
  0016a	89 8d f0 fe ff
	ff		 mov	 DWORD PTR _model_motion_vector$[ebp], ecx
  00170	8b 50 04	 mov	 edx, DWORD PTR [eax+4]
  00173	89 95 f4 fe ff
	ff		 mov	 DWORD PTR _model_motion_vector$[ebp+4], edx
  00179	8b 40 08	 mov	 eax, DWORD PTR [eax+8]
  0017c	89 85 f8 fe ff
	ff		 mov	 DWORD PTR _model_motion_vector$[ebp+8], eax

; 1311 : 
; 1312 : 	//
; 1313 : 	// allow for wind
; 1314 : 	//
; 1315 : 
; 1316 : 	position.x = current_flight_dynamics->position.x;

  00182	a1 00 00 00 00	 mov	 eax, DWORD PTR ?current_flight_dynamics@@3PAUDYNAMICS_TYPE@@A ; current_flight_dynamics
  00187	f2 0f 5a 80 ac
	00 00 00	 cvtsd2ss xmm0, QWORD PTR [eax+172]
  0018f	f3 0f 11 85 20
	ff ff ff	 movss	 DWORD PTR _position$[ebp], xmm0

; 1317 : 	position.y = current_flight_dynamics->position.y;

  00197	a1 00 00 00 00	 mov	 eax, DWORD PTR ?current_flight_dynamics@@3PAUDYNAMICS_TYPE@@A ; current_flight_dynamics
  0019c	f2 0f 5a 80 b4
	00 00 00	 cvtsd2ss xmm0, QWORD PTR [eax+180]
  001a4	f3 0f 11 85 24
	ff ff ff	 movss	 DWORD PTR _position$[ebp+4], xmm0

; 1318 : 	position.z = current_flight_dynamics->position.z;

  001ac	a1 00 00 00 00	 mov	 eax, DWORD PTR ?current_flight_dynamics@@3PAUDYNAMICS_TYPE@@A ; current_flight_dynamics
  001b1	f2 0f 5a 80 bc
	00 00 00	 cvtsd2ss xmm0, QWORD PTR [eax+188]
  001b9	f3 0f 11 85 28
	ff ff ff	 movss	 DWORD PTR _position$[ebp+8], xmm0

; 1319 : 
; 1320 : 	if (get_current_dynamics_options (DYNAMICS_OPTIONS_WIND))

  001c1	6a 0c		 push	 12			; 0000000cH
  001c3	e8 00 00 00 00	 call	 ?get_current_dynamics_options@@YGHW4DYNAMICS_OPTIONS_TYPES@@@Z ; get_current_dynamics_options
  001c8	85 c0		 test	 eax, eax
  001ca	0f 84 c5 00 00
	00		 je	 $LN2@update_att

; 1321 : 	{
; 1322 : 
; 1323 : 		get_session_wind_velocity_at_point (&position, &wind);

  001d0	8d 85 38 ff ff
	ff		 lea	 eax, DWORD PTR _wind$[ebp]
  001d6	50		 push	 eax
  001d7	8d 8d 20 ff ff
	ff		 lea	 ecx, DWORD PTR _position$[ebp]
  001dd	51		 push	 ecx
  001de	e8 00 00 00 00	 call	 ?get_session_wind_velocity_at_point@@YGMPAUVEC3D@@0@Z ; get_session_wind_velocity_at_point
  001e3	dd d8		 fstp	 ST(0)

; 1324 : 
; 1325 : 		multiply_matrix3x3_vec3d (&model_wind, current_flight_dynamics->attitude, &wind);

  001e5	8d 85 38 ff ff
	ff		 lea	 eax, DWORD PTR _wind$[ebp]
  001eb	50		 push	 eax
  001ec	8b 0d 00 00 00
	00		 mov	 ecx, DWORD PTR ?current_flight_dynamics@@3PAUDYNAMICS_TYPE@@A ; current_flight_dynamics
  001f2	81 c1 d0 00 00
	00		 add	 ecx, 208		; 000000d0H
  001f8	51		 push	 ecx
  001f9	8d 95 2c ff ff
	ff		 lea	 edx, DWORD PTR _model_wind$[ebp]
  001ff	52		 push	 edx
  00200	e8 00 00 00 00	 call	 ?multiply_matrix3x3_vec3d@@YGXPAUVEC3D@@QAY02$$CBMPBU1@@Z ; multiply_matrix3x3_vec3d

; 1326 : 
; 1327 : 		world_motion_vector.x -= wind.x;

  00205	f3 0f 10 85 fc
	fe ff ff	 movss	 xmm0, DWORD PTR _world_motion_vector$[ebp]
  0020d	f3 0f 5c 85 38
	ff ff ff	 subss	 xmm0, DWORD PTR _wind$[ebp]
  00215	f3 0f 11 85 fc
	fe ff ff	 movss	 DWORD PTR _world_motion_vector$[ebp], xmm0

; 1328 : 		world_motion_vector.y -= wind.y;

  0021d	f3 0f 10 85 00
	ff ff ff	 movss	 xmm0, DWORD PTR _world_motion_vector$[ebp+4]
  00225	f3 0f 5c 85 3c
	ff ff ff	 subss	 xmm0, DWORD PTR _wind$[ebp+4]
  0022d	f3 0f 11 85 00
	ff ff ff	 movss	 DWORD PTR _world_motion_vector$[ebp+4], xmm0

; 1329 : 		world_motion_vector.z -= wind.z;

  00235	f3 0f 10 85 04
	ff ff ff	 movss	 xmm0, DWORD PTR _world_motion_vector$[ebp+8]
  0023d	f3 0f 5c 85 40
	ff ff ff	 subss	 xmm0, DWORD PTR _wind$[ebp+8]
  00245	f3 0f 11 85 04
	ff ff ff	 movss	 DWORD PTR _world_motion_vector$[ebp+8], xmm0

; 1330 : 
; 1331 : 		model_motion_vector.x -= model_wind.x;

  0024d	f3 0f 10 85 f0
	fe ff ff	 movss	 xmm0, DWORD PTR _model_motion_vector$[ebp]
  00255	f3 0f 5c 85 2c
	ff ff ff	 subss	 xmm0, DWORD PTR _model_wind$[ebp]
  0025d	f3 0f 11 85 f0
	fe ff ff	 movss	 DWORD PTR _model_motion_vector$[ebp], xmm0

; 1332 : 		model_motion_vector.y -= model_wind.y;

  00265	f3 0f 10 85 f4
	fe ff ff	 movss	 xmm0, DWORD PTR _model_motion_vector$[ebp+4]
  0026d	f3 0f 5c 85 30
	ff ff ff	 subss	 xmm0, DWORD PTR _model_wind$[ebp+4]
  00275	f3 0f 11 85 f4
	fe ff ff	 movss	 DWORD PTR _model_motion_vector$[ebp+4], xmm0

; 1333 : 		model_motion_vector.z -= model_wind.z;

  0027d	f3 0f 10 85 f8
	fe ff ff	 movss	 xmm0, DWORD PTR _model_motion_vector$[ebp+8]
  00285	f3 0f 5c 85 34
	ff ff ff	 subss	 xmm0, DWORD PTR _model_wind$[ebp+8]
  0028d	f3 0f 11 85 f8
	fe ff ff	 movss	 DWORD PTR _model_motion_vector$[ebp+8], xmm0
$LN2@update_att:

; 1334 : 	}
; 1335 : 
; 1336 : 	motion_vector_magnitude = get_3d_vector_magnitude (&current_flight_dynamics->model_motion_vector);

  00295	a1 00 00 00 00	 mov	 eax, DWORD PTR ?current_flight_dynamics@@3PAUDYNAMICS_TYPE@@A ; current_flight_dynamics
  0029a	05 30 1c 00 00	 add	 eax, 7216		; 00001c30H
  0029f	50		 push	 eax
  002a0	e8 00 00 00 00	 call	 ?get_3d_vector_magnitude@@YGMPBUVEC3D@@@Z ; get_3d_vector_magnitude
  002a5	d9 5d a4	 fstp	 DWORD PTR _motion_vector_magnitude$[ebp]

; 1337 : 
; 1338 : 	//////////////////////////////////////////////////////////
; 1339 : 	// safey check
; 1340 : 	//////////////////////////////////////////////////////////
; 1341 : 	if (motion_vector_magnitude > 1000)

  002a8	f3 0f 10 45 a4	 movss	 xmm0, DWORD PTR _motion_vector_magnitude$[ebp]
  002ad	0f 2f 05 00 00
	00 00		 comiss	 xmm0, DWORD PTR __real@447a0000
  002b4	0f 86 1c 03 00
	00		 jbe	 $LN3@update_att

; 1342 : 	{
; 1343 : 
; 1344 : 		debug_log ("DYNAMICS: UNSTABLE");

  002ba	68 00 00 00 00	 push	 OFFSET ??_C@_0BD@EHBODOFB@DYNAMICS?3?5UNSTABLE@
  002bf	e8 00 00 00 00	 call	 ?debug_log@@YAXPBDZZ	; debug_log
  002c4	83 c4 04	 add	 esp, 4

; 1345 : 
; 1346 : 		if (get_local_entity_int_value (get_gunship_entity (), INT_TYPE_ALIVE))

  002c7	83 3d 00 00 00
	00 00		 cmp	 DWORD PTR ?gunship_entity@@3PAUENTITY@@A, 0 ; gunship_entity
  002ce	74 0f		 je	 SHORT $LN81@update_att
  002d0	a1 00 00 00 00	 mov	 eax, DWORD PTR ?gunship_entity@@3PAUENTITY@@A ; gunship_entity
  002d5	8b 08		 mov	 ecx, DWORD PTR [eax]
  002d7	89 8d 00 fd ff
	ff		 mov	 DWORD PTR tv172[ebp], ecx
  002dd	eb 20		 jmp	 SHORT $LN82@update_att
$LN81@update_att:
  002df	68 42 05 00 00	 push	 1346			; 00000542H
  002e4	68 00 00 00 00	 push	 OFFSET ??_C@_0EN@OILCBPIN@c?3?2users?2nhv90?2projects?2eech?2ap@
  002e9	8b 15 00 00 00
	00		 mov	 edx, DWORD PTR ?null_entity_pointer_message@@3PBDB ; null_entity_pointer_message
  002ef	52		 push	 edx
  002f0	e8 00 00 00 00	 call	 ?process_assert@@YGXPBD0H@Z ; process_assert
  002f5	c7 85 00 fd ff
	ff 00 00 00 00	 mov	 DWORD PTR tv172[ebp], 0
$LN82@update_att:
  002ff	b8 01 00 00 00	 mov	 eax, 1
  00304	85 c0		 test	 eax, eax
  00306	74 0c		 je	 SHORT $LN83@update_att
  00308	c7 85 fc fc ff
	ff 07 00 00 00	 mov	 DWORD PTR tv179[ebp], 7
  00312	eb 20		 jmp	 SHORT $LN84@update_att
$LN83@update_att:
  00314	68 42 05 00 00	 push	 1346			; 00000542H
  00319	68 00 00 00 00	 push	 OFFSET ??_C@_0EN@OILCBPIN@c?3?2users?2nhv90?2projects?2eech?2ap@
  0031e	8b 0d 00 00 00
	00		 mov	 ecx, DWORD PTR ?overload_invalid_int_type_message@@3PBDB ; overload_invalid_int_type_message
  00324	51		 push	 ecx
  00325	e8 00 00 00 00	 call	 ?process_assert@@YGXPBD0H@Z ; process_assert
  0032a	c7 85 fc fc ff
	ff 00 00 00 00	 mov	 DWORD PTR tv179[ebp], 0
$LN84@update_att:
  00334	6a 07		 push	 7
  00336	8b 15 00 00 00
	00		 mov	 edx, DWORD PTR ?gunship_entity@@3PAUENTITY@@A ; gunship_entity
  0033c	52		 push	 edx
  0033d	69 85 00 fd ff
	ff 5c 04 00 00	 imul	 eax, DWORD PTR tv172[ebp], 1116
  00347	8b 8d fc fc ff
	ff		 mov	 ecx, DWORD PTR tv179[ebp]
  0034d	8b 94 88 00 00
	00 00		 mov	 edx, DWORD PTR ?fn_get_local_entity_int_value@@3PAY0BBH@P6GHPAUENTITY@@W4INT_TYPES@@@ZA[eax+ecx*4]
  00354	ff d2		 call	 edx
  00356	85 c0		 test	 eax, eax
  00358	0f 84 73 02 00
	00		 je	 $LN4@update_att

; 1347 : 		{
; 1348 : 
; 1349 : 			current_flight_dynamics->model_motion_vector.x = 0.0;

  0035e	a1 00 00 00 00	 mov	 eax, DWORD PTR ?current_flight_dynamics@@3PAUDYNAMICS_TYPE@@A ; current_flight_dynamics
  00363	0f 57 c0	 xorps	 xmm0, xmm0
  00366	f3 0f 11 80 30
	1c 00 00	 movss	 DWORD PTR [eax+7216], xmm0

; 1350 : 			current_flight_dynamics->model_motion_vector.y = 0.0;

  0036e	a1 00 00 00 00	 mov	 eax, DWORD PTR ?current_flight_dynamics@@3PAUDYNAMICS_TYPE@@A ; current_flight_dynamics
  00373	0f 57 c0	 xorps	 xmm0, xmm0
  00376	f3 0f 11 80 34
	1c 00 00	 movss	 DWORD PTR [eax+7220], xmm0

; 1351 : 			current_flight_dynamics->model_motion_vector.z = 0.0;

  0037e	a1 00 00 00 00	 mov	 eax, DWORD PTR ?current_flight_dynamics@@3PAUDYNAMICS_TYPE@@A ; current_flight_dynamics
  00383	0f 57 c0	 xorps	 xmm0, xmm0
  00386	f3 0f 11 80 38
	1c 00 00	 movss	 DWORD PTR [eax+7224], xmm0

; 1352 : 
; 1353 : 			current_flight_dynamics->model_acceleration_vector.x = 0.0;

  0038e	a1 00 00 00 00	 mov	 eax, DWORD PTR ?current_flight_dynamics@@3PAUDYNAMICS_TYPE@@A ; current_flight_dynamics
  00393	0f 57 c0	 xorps	 xmm0, xmm0
  00396	f3 0f 11 80 48
	1c 00 00	 movss	 DWORD PTR [eax+7240], xmm0

; 1354 : 			current_flight_dynamics->model_acceleration_vector.y = 0.0;

  0039e	a1 00 00 00 00	 mov	 eax, DWORD PTR ?current_flight_dynamics@@3PAUDYNAMICS_TYPE@@A ; current_flight_dynamics
  003a3	0f 57 c0	 xorps	 xmm0, xmm0
  003a6	f3 0f 11 80 4c
	1c 00 00	 movss	 DWORD PTR [eax+7244], xmm0

; 1355 : 			current_flight_dynamics->model_acceleration_vector.z = 0.0;

  003ae	a1 00 00 00 00	 mov	 eax, DWORD PTR ?current_flight_dynamics@@3PAUDYNAMICS_TYPE@@A ; current_flight_dynamics
  003b3	0f 57 c0	 xorps	 xmm0, xmm0
  003b6	f3 0f 11 80 50
	1c 00 00	 movss	 DWORD PTR [eax+7248], xmm0

; 1356 : 
; 1357 : 			current_flight_dynamics->world_motion_vector.x = 0.0;

  003be	a1 00 00 00 00	 mov	 eax, DWORD PTR ?current_flight_dynamics@@3PAUDYNAMICS_TYPE@@A ; current_flight_dynamics
  003c3	0f 57 c0	 xorps	 xmm0, xmm0
  003c6	f3 0f 11 80 3c
	1c 00 00	 movss	 DWORD PTR [eax+7228], xmm0

; 1358 : 			current_flight_dynamics->world_motion_vector.y = 0.0;

  003ce	a1 00 00 00 00	 mov	 eax, DWORD PTR ?current_flight_dynamics@@3PAUDYNAMICS_TYPE@@A ; current_flight_dynamics
  003d3	0f 57 c0	 xorps	 xmm0, xmm0
  003d6	f3 0f 11 80 40
	1c 00 00	 movss	 DWORD PTR [eax+7232], xmm0

; 1359 : 			current_flight_dynamics->world_motion_vector.z = 0.0;

  003de	a1 00 00 00 00	 mov	 eax, DWORD PTR ?current_flight_dynamics@@3PAUDYNAMICS_TYPE@@A ; current_flight_dynamics
  003e3	0f 57 c0	 xorps	 xmm0, xmm0
  003e6	f3 0f 11 80 44
	1c 00 00	 movss	 DWORD PTR [eax+7236], xmm0

; 1360 : 
; 1361 : 			current_flight_dynamics->world_acceleration_vector.x = 0.0;

  003ee	a1 00 00 00 00	 mov	 eax, DWORD PTR ?current_flight_dynamics@@3PAUDYNAMICS_TYPE@@A ; current_flight_dynamics
  003f3	0f 57 c0	 xorps	 xmm0, xmm0
  003f6	f3 0f 11 80 54
	1c 00 00	 movss	 DWORD PTR [eax+7252], xmm0

; 1362 : 			current_flight_dynamics->world_acceleration_vector.y = 0.0;

  003fe	a1 00 00 00 00	 mov	 eax, DWORD PTR ?current_flight_dynamics@@3PAUDYNAMICS_TYPE@@A ; current_flight_dynamics
  00403	0f 57 c0	 xorps	 xmm0, xmm0
  00406	f3 0f 11 80 58
	1c 00 00	 movss	 DWORD PTR [eax+7256], xmm0

; 1363 : 			current_flight_dynamics->world_acceleration_vector.z = 0.0;

  0040e	a1 00 00 00 00	 mov	 eax, DWORD PTR ?current_flight_dynamics@@3PAUDYNAMICS_TYPE@@A ; current_flight_dynamics
  00413	0f 57 c0	 xorps	 xmm0, xmm0
  00416	f3 0f 11 80 5c
	1c 00 00	 movss	 DWORD PTR [eax+7260], xmm0

; 1364 : 
; 1365 : 			set_client_server_entity_float_value (get_gunship_entity (), FLOAT_TYPE_VELOCITY, 0.0);

  0041e	83 3d 00 00 00
	00 00		 cmp	 DWORD PTR ?gunship_entity@@3PAUENTITY@@A, 0 ; gunship_entity
  00425	74 0f		 je	 SHORT $LN85@update_att
  00427	a1 00 00 00 00	 mov	 eax, DWORD PTR ?gunship_entity@@3PAUENTITY@@A ; gunship_entity
  0042c	8b 08		 mov	 ecx, DWORD PTR [eax]
  0042e	89 8d 00 fd ff
	ff		 mov	 DWORD PTR tv248[ebp], ecx
  00434	eb 24		 jmp	 SHORT $LN86@update_att
$LN85@update_att:
  00436	8b 15 00 00 00
	00		 mov	 edx, DWORD PTR ?__LINE__Var@?0??update_attitude_dynamics@@YGXXZ@4JA
  0043c	83 c2 6f	 add	 edx, 111		; 0000006fH
  0043f	52		 push	 edx
  00440	68 00 00 00 00	 push	 OFFSET ??_C@_0EN@OILCBPIN@c?3?2users?2nhv90?2projects?2eech?2ap@
  00445	a1 00 00 00 00	 mov	 eax, DWORD PTR ?null_entity_pointer_message@@3PBDB ; null_entity_pointer_message
  0044a	50		 push	 eax
  0044b	e8 00 00 00 00	 call	 ?process_assert@@YGXPBD0H@Z ; process_assert
  00450	c7 85 00 fd ff
	ff 00 00 00 00	 mov	 DWORD PTR tv248[ebp], 0
$LN86@update_att:
  0045a	b9 01 00 00 00	 mov	 ecx, 1
  0045f	85 c9		 test	 ecx, ecx
  00461	74 0c		 je	 SHORT $LN87@update_att
  00463	c7 85 fc fc ff
	ff 93 00 00 00	 mov	 DWORD PTR tv256[ebp], 147 ; 00000093H
  0046d	eb 24		 jmp	 SHORT $LN88@update_att
$LN87@update_att:
  0046f	8b 15 00 00 00
	00		 mov	 edx, DWORD PTR ?__LINE__Var@?0??update_attitude_dynamics@@YGXXZ@4JA
  00475	83 c2 6f	 add	 edx, 111		; 0000006fH
  00478	52		 push	 edx
  00479	68 00 00 00 00	 push	 OFFSET ??_C@_0EN@OILCBPIN@c?3?2users?2nhv90?2projects?2eech?2ap@
  0047e	a1 00 00 00 00	 mov	 eax, DWORD PTR ?overload_invalid_float_type_message@@3PBDB ; overload_invalid_float_type_message
  00483	50		 push	 eax
  00484	e8 00 00 00 00	 call	 ?process_assert@@YGXPBD0H@Z ; process_assert
  00489	c7 85 fc fc ff
	ff 00 00 00 00	 mov	 DWORD PTR tv256[ebp], 0
$LN88@update_att:
  00493	51		 push	 ecx
  00494	0f 57 c0	 xorps	 xmm0, xmm0
  00497	f3 0f 11 04 24	 movss	 DWORD PTR [esp], xmm0
  0049c	68 93 00 00 00	 push	 147			; 00000093H
  004a1	8b 0d 00 00 00
	00		 mov	 ecx, DWORD PTR ?gunship_entity@@3PAUENTITY@@A ; gunship_entity
  004a7	51		 push	 ecx
  004a8	69 95 00 fd ff
	ff 78 05 00 00	 imul	 edx, DWORD PTR tv248[ebp], 1400
  004b2	8b 85 fc fc ff
	ff		 mov	 eax, DWORD PTR tv256[ebp]
  004b8	8d 8c c2 00 00
	00 00		 lea	 ecx, DWORD PTR ?fn_set_client_server_entity_float_value@@3PAY1KP@1P6GXPAUENTITY@@W4FLOAT_TYPES@@M@ZA[edx+eax*8]
  004bf	8b 15 00 00 00
	00		 mov	 edx, DWORD PTR ?system_comms_model@@3W4COMMS_MODEL_TYPES@@A ; system_comms_model
  004c5	8b 04 91	 mov	 eax, DWORD PTR [ecx+edx*4]
  004c8	ff d0		 call	 eax

; 1366 : 
; 1367 : 			set_client_server_entity_vec3d (get_gunship_entity (), VEC3D_TYPE_MOTION_VECTOR, &current_flight_dynamics->model_motion_vector);

  004ca	83 3d 00 00 00
	00 00		 cmp	 DWORD PTR ?gunship_entity@@3PAUENTITY@@A, 0 ; gunship_entity
  004d1	74 0f		 je	 SHORT $LN89@update_att
  004d3	a1 00 00 00 00	 mov	 eax, DWORD PTR ?gunship_entity@@3PAUENTITY@@A ; gunship_entity
  004d8	8b 08		 mov	 ecx, DWORD PTR [eax]
  004da	89 8d 00 fd ff
	ff		 mov	 DWORD PTR tv270[ebp], ecx
  004e0	eb 24		 jmp	 SHORT $LN90@update_att
$LN89@update_att:
  004e2	8b 15 00 00 00
	00		 mov	 edx, DWORD PTR ?__LINE__Var@?0??update_attitude_dynamics@@YGXXZ@4JA
  004e8	83 c2 71	 add	 edx, 113		; 00000071H
  004eb	52		 push	 edx
  004ec	68 00 00 00 00	 push	 OFFSET ??_C@_0EN@OILCBPIN@c?3?2users?2nhv90?2projects?2eech?2ap@
  004f1	a1 00 00 00 00	 mov	 eax, DWORD PTR ?null_entity_pointer_message@@3PBDB ; null_entity_pointer_message
  004f6	50		 push	 eax
  004f7	e8 00 00 00 00	 call	 ?process_assert@@YGXPBD0H@Z ; process_assert
  004fc	c7 85 00 fd ff
	ff 00 00 00 00	 mov	 DWORD PTR tv270[ebp], 0
$LN90@update_att:
  00506	b9 01 00 00 00	 mov	 ecx, 1
  0050b	85 c9		 test	 ecx, ecx
  0050d	74 0c		 je	 SHORT $LN91@update_att
  0050f	c7 85 fc fc ff
	ff 06 00 00 00	 mov	 DWORD PTR tv278[ebp], 6
  00519	eb 24		 jmp	 SHORT $LN92@update_att
$LN91@update_att:
  0051b	8b 15 00 00 00
	00		 mov	 edx, DWORD PTR ?__LINE__Var@?0??update_attitude_dynamics@@YGXXZ@4JA
  00521	83 c2 71	 add	 edx, 113		; 00000071H
  00524	52		 push	 edx
  00525	68 00 00 00 00	 push	 OFFSET ??_C@_0EN@OILCBPIN@c?3?2users?2nhv90?2projects?2eech?2ap@
  0052a	a1 00 00 00 00	 mov	 eax, DWORD PTR ?overload_invalid_vec3d_type_message@@3PBDB ; overload_invalid_vec3d_type_message
  0052f	50		 push	 eax
  00530	e8 00 00 00 00	 call	 ?process_assert@@YGXPBD0H@Z ; process_assert
  00535	c7 85 fc fc ff
	ff 00 00 00 00	 mov	 DWORD PTR tv278[ebp], 0
$LN92@update_att:
  0053f	8b 0d 00 00 00
	00		 mov	 ecx, DWORD PTR ?current_flight_dynamics@@3PAUDYNAMICS_TYPE@@A ; current_flight_dynamics
  00545	81 c1 30 1c 00
	00		 add	 ecx, 7216		; 00001c30H
  0054b	51		 push	 ecx
  0054c	6a 06		 push	 6
  0054e	8b 15 00 00 00
	00		 mov	 edx, DWORD PTR ?gunship_entity@@3PAUENTITY@@A ; gunship_entity
  00554	52		 push	 edx
  00555	69 85 00 fd ff
	ff c0 00 00 00	 imul	 eax, DWORD PTR tv270[ebp], 192
  0055f	8b 8d fc fc ff
	ff		 mov	 ecx, DWORD PTR tv278[ebp]
  00565	8d 94 c8 00 00
	00 00		 lea	 edx, DWORD PTR ?fn_set_client_server_entity_vec3d@@3PAY1BI@1P6GXPAUENTITY@@W4VEC3D_TYPES@@PAUVEC3D@@@ZA[eax+ecx*8]
  0056c	a1 00 00 00 00	 mov	 eax, DWORD PTR ?system_comms_model@@3W4COMMS_MODEL_TYPES@@A ; system_comms_model
  00571	8b 0c 82	 mov	 ecx, DWORD PTR [edx+eax*4]
  00574	ff d1		 call	 ecx

; 1368 : 
; 1369 : 			kill_client_server_entity (get_gunship_entity ());

  00576	83 3d 00 00 00
	00 00		 cmp	 DWORD PTR ?gunship_entity@@3PAUENTITY@@A, 0 ; gunship_entity
  0057d	74 0f		 je	 SHORT $LN93@update_att
  0057f	a1 00 00 00 00	 mov	 eax, DWORD PTR ?gunship_entity@@3PAUENTITY@@A ; gunship_entity
  00584	8b 08		 mov	 ecx, DWORD PTR [eax]
  00586	89 8d 00 fd ff
	ff		 mov	 DWORD PTR tv293[ebp], ecx
  0058c	eb 24		 jmp	 SHORT $LN94@update_att
$LN93@update_att:
  0058e	8b 15 00 00 00
	00		 mov	 edx, DWORD PTR ?__LINE__Var@?0??update_attitude_dynamics@@YGXXZ@4JA
  00594	83 c2 73	 add	 edx, 115		; 00000073H
  00597	52		 push	 edx
  00598	68 00 00 00 00	 push	 OFFSET ??_C@_0EN@OILCBPIN@c?3?2users?2nhv90?2projects?2eech?2ap@
  0059d	a1 00 00 00 00	 mov	 eax, DWORD PTR ?null_entity_pointer_message@@3PBDB ; null_entity_pointer_message
  005a2	50		 push	 eax
  005a3	e8 00 00 00 00	 call	 ?process_assert@@YGXPBD0H@Z ; process_assert
  005a8	c7 85 00 fd ff
	ff 00 00 00 00	 mov	 DWORD PTR tv293[ebp], 0
$LN94@update_att:
  005b2	8b 0d 00 00 00
	00		 mov	 ecx, DWORD PTR ?gunship_entity@@3PAUENTITY@@A ; gunship_entity
  005b8	51		 push	 ecx
  005b9	8b 15 00 00 00
	00		 mov	 edx, DWORD PTR ?system_comms_model@@3W4COMMS_MODEL_TYPES@@A ; system_comms_model
  005bf	c1 e2 02	 shl	 edx, 2
  005c2	8b 85 00 fd ff
	ff		 mov	 eax, DWORD PTR tv293[ebp]
  005c8	8b 8c c2 00 00
	00 00		 mov	 ecx, DWORD PTR ?fn_kill_client_server_entity@@3PAY01P6GXPAUENTITY@@@ZA[edx+eax*8]
  005cf	ff d1		 call	 ecx
$LN4@update_att:

; 1370 : 
; 1371 : //			start_game_exit (GAME_EXIT_CRASH, FALSE);
; 1372 : 		}
; 1373 : 
; 1374 : 		return;

  005d1	e9 a1 39 00 00	 jmp	 $LN1@update_att
$LN3@update_att:

; 1375 : 	}
; 1376 : 	//////////////////////////////////////////////////////////
; 1377 : 
; 1378 : 	//
; 1379 : 	// Set up variables
; 1380 : 	//
; 1381 : 
; 1382 : 	main_rotor_induced_air_value = current_flight_dynamics->main_rotor_induced_air.value * current_flight_dynamics->main_rotor_induced_air.modifier;

  005d6	a1 00 00 00 00	 mov	 eax, DWORD PTR ?current_flight_dynamics@@3PAUDYNAMICS_TYPE@@A ; current_flight_dynamics
  005db	8b 0d 00 00 00
	00		 mov	 ecx, DWORD PTR ?current_flight_dynamics@@3PAUDYNAMICS_TYPE@@A ; current_flight_dynamics
  005e1	f3 0f 10 80 6c
	1d 00 00	 movss	 xmm0, DWORD PTR [eax+7532]
  005e9	f3 0f 59 81 68
	1d 00 00	 mulss	 xmm0, DWORD PTR [ecx+7528]
  005f1	f3 0f 11 85 78
	ff ff ff	 movss	 DWORD PTR _main_rotor_induced_air_value$[ebp], xmm0

; 1383 : 	main_rotor_pitch_angle_value = current_flight_dynamics->main_rotor_pitch_angle.value * current_flight_dynamics->main_rotor_pitch_angle.modifier;

  005f9	a1 00 00 00 00	 mov	 eax, DWORD PTR ?current_flight_dynamics@@3PAUDYNAMICS_TYPE@@A ; current_flight_dynamics
  005fe	8b 0d 00 00 00
	00		 mov	 ecx, DWORD PTR ?current_flight_dynamics@@3PAUDYNAMICS_TYPE@@A ; current_flight_dynamics
  00604	f3 0f 10 80 fc
	1d 00 00	 movss	 xmm0, DWORD PTR [eax+7676]
  0060c	f3 0f 59 81 f8
	1d 00 00	 mulss	 xmm0, DWORD PTR [ecx+7672]
  00614	f3 0f 11 85 74
	ff ff ff	 movss	 DWORD PTR _main_rotor_pitch_angle_value$[ebp], xmm0

; 1384 : 	main_rotor_rpm_value = current_flight_dynamics->main_rotor_rpm.value * current_flight_dynamics->main_rotor_rpm.modifier;

  0061c	a1 00 00 00 00	 mov	 eax, DWORD PTR ?current_flight_dynamics@@3PAUDYNAMICS_TYPE@@A ; current_flight_dynamics
  00621	8b 0d 00 00 00
	00		 mov	 ecx, DWORD PTR ?current_flight_dynamics@@3PAUDYNAMICS_TYPE@@A ; current_flight_dynamics
  00627	f3 0f 10 80 14
	1e 00 00	 movss	 xmm0, DWORD PTR [eax+7700]
  0062f	f3 0f 59 81 10
	1e 00 00	 mulss	 xmm0, DWORD PTR [ecx+7696]
  00637	f3 0f 11 85 70
	ff ff ff	 movss	 DWORD PTR _main_rotor_rpm_value$[ebp], xmm0

; 1385 : 	main_rotor_roll_angle_value = current_flight_dynamics->main_rotor_roll_angle.value * current_flight_dynamics->main_rotor_roll_angle.modifier;

  0063f	a1 00 00 00 00	 mov	 eax, DWORD PTR ?current_flight_dynamics@@3PAUDYNAMICS_TYPE@@A ; current_flight_dynamics
  00644	8b 0d 00 00 00
	00		 mov	 ecx, DWORD PTR ?current_flight_dynamics@@3PAUDYNAMICS_TYPE@@A ; current_flight_dynamics
  0064a	f3 0f 10 80 e4
	1d 00 00	 movss	 xmm0, DWORD PTR [eax+7652]
  00652	f3 0f 59 81 e0
	1d 00 00	 mulss	 xmm0, DWORD PTR [ecx+7648]
  0065a	f3 0f 11 85 6c
	ff ff ff	 movss	 DWORD PTR _main_rotor_roll_angle_value$[ebp], xmm0

; 1386 : 	tail_rotor_induced_air_value = current_flight_dynamics->tail_rotor_induced_air.value * current_flight_dynamics->tail_rotor_induced_air.modifier;

  00662	a1 00 00 00 00	 mov	 eax, DWORD PTR ?current_flight_dynamics@@3PAUDYNAMICS_TYPE@@A ; current_flight_dynamics
  00667	8b 0d 00 00 00
	00		 mov	 ecx, DWORD PTR ?current_flight_dynamics@@3PAUDYNAMICS_TYPE@@A ; current_flight_dynamics
  0066d	f3 0f 10 80 04
	1f 00 00	 movss	 xmm0, DWORD PTR [eax+7940]
  00675	f3 0f 59 81 00
	1f 00 00	 mulss	 xmm0, DWORD PTR [ecx+7936]
  0067d	f3 0f 11 85 68
	ff ff ff	 movss	 DWORD PTR _tail_rotor_induced_air_value$[ebp], xmm0

; 1387 : 	heading_inertia_value = current_flight_dynamics->heading_inertia.value * current_flight_dynamics->heading_inertia.modifier;

  00685	a1 00 00 00 00	 mov	 eax, DWORD PTR ?current_flight_dynamics@@3PAUDYNAMICS_TYPE@@A ; current_flight_dynamics
  0068a	8b 0d 00 00 00
	00		 mov	 ecx, DWORD PTR ?current_flight_dynamics@@3PAUDYNAMICS_TYPE@@A ; current_flight_dynamics
  00690	f3 0f 10 80 34
	22 00 00	 movss	 xmm0, DWORD PTR [eax+8756]
  00698	f3 0f 59 81 30
	22 00 00	 mulss	 xmm0, DWORD PTR [ecx+8752]
  006a0	f3 0f 11 85 64
	ff ff ff	 movss	 DWORD PTR _heading_inertia_value$[ebp], xmm0

; 1388 : 	pitch_inertia_value = current_flight_dynamics->pitch_inertia.value * current_flight_dynamics->pitch_inertia.modifier;

  006a8	a1 00 00 00 00	 mov	 eax, DWORD PTR ?current_flight_dynamics@@3PAUDYNAMICS_TYPE@@A ; current_flight_dynamics
  006ad	8b 0d 00 00 00
	00		 mov	 ecx, DWORD PTR ?current_flight_dynamics@@3PAUDYNAMICS_TYPE@@A ; current_flight_dynamics
  006b3	f3 0f 10 80 4c
	22 00 00	 movss	 xmm0, DWORD PTR [eax+8780]
  006bb	f3 0f 59 81 48
	22 00 00	 mulss	 xmm0, DWORD PTR [ecx+8776]
  006c3	f3 0f 11 85 60
	ff ff ff	 movss	 DWORD PTR _pitch_inertia_value$[ebp], xmm0

; 1389 : 	roll_inertia_value = current_flight_dynamics->roll_inertia.value * current_flight_dynamics->roll_inertia.modifier;

  006cb	a1 00 00 00 00	 mov	 eax, DWORD PTR ?current_flight_dynamics@@3PAUDYNAMICS_TYPE@@A ; current_flight_dynamics
  006d0	8b 0d 00 00 00
	00		 mov	 ecx, DWORD PTR ?current_flight_dynamics@@3PAUDYNAMICS_TYPE@@A ; current_flight_dynamics
  006d6	f3 0f 10 80 64
	22 00 00	 movss	 xmm0, DWORD PTR [eax+8804]
  006de	f3 0f 59 81 60
	22 00 00	 mulss	 xmm0, DWORD PTR [ecx+8800]
  006e6	f3 0f 11 85 5c
	ff ff ff	 movss	 DWORD PTR _roll_inertia_value$[ebp], xmm0

; 1390 : 	pitch_value = current_flight_dynamics->pitch.value * current_flight_dynamics->pitch.modifier;

  006ee	a1 00 00 00 00	 mov	 eax, DWORD PTR ?current_flight_dynamics@@3PAUDYNAMICS_TYPE@@A ; current_flight_dynamics
  006f3	8b 0d 00 00 00
	00		 mov	 ecx, DWORD PTR ?current_flight_dynamics@@3PAUDYNAMICS_TYPE@@A ; current_flight_dynamics
  006f9	f3 0f 10 80 5c
	21 00 00	 movss	 xmm0, DWORD PTR [eax+8540]
  00701	f3 0f 59 81 58
	21 00 00	 mulss	 xmm0, DWORD PTR [ecx+8536]
  00709	f3 0f 11 85 58
	ff ff ff	 movss	 DWORD PTR _pitch_value$[ebp], xmm0

; 1391 : 	main_blade_x_pitch_value = current_flight_dynamics->main_blade_x_pitch.value * current_flight_dynamics->main_blade_x_pitch.modifier;

  00711	a1 00 00 00 00	 mov	 eax, DWORD PTR ?current_flight_dynamics@@3PAUDYNAMICS_TYPE@@A ; current_flight_dynamics
  00716	8b 0d 00 00 00
	00		 mov	 ecx, DWORD PTR ?current_flight_dynamics@@3PAUDYNAMICS_TYPE@@A ; current_flight_dynamics
  0071c	f3 0f 10 80 a4
	1e 00 00	 movss	 xmm0, DWORD PTR [eax+7844]
  00724	f3 0f 59 81 a0
	1e 00 00	 mulss	 xmm0, DWORD PTR [ecx+7840]
  0072c	f3 0f 11 85 54
	ff ff ff	 movss	 DWORD PTR _main_blade_x_pitch_value$[ebp], xmm0

; 1392 : 	main_blade_y_pitch_value = current_flight_dynamics->main_blade_y_pitch.value * current_flight_dynamics->main_blade_y_pitch.modifier;

  00734	a1 00 00 00 00	 mov	 eax, DWORD PTR ?current_flight_dynamics@@3PAUDYNAMICS_TYPE@@A ; current_flight_dynamics
  00739	8b 0d 00 00 00
	00		 mov	 ecx, DWORD PTR ?current_flight_dynamics@@3PAUDYNAMICS_TYPE@@A ; current_flight_dynamics
  0073f	f3 0f 10 80 bc
	1e 00 00	 movss	 xmm0, DWORD PTR [eax+7868]
  00747	f3 0f 59 81 b8
	1e 00 00	 mulss	 xmm0, DWORD PTR [ecx+7864]
  0074f	f3 0f 11 85 50
	ff ff ff	 movss	 DWORD PTR _main_blade_y_pitch_value$[ebp], xmm0

; 1393 : 	velocity_z_value = current_flight_dynamics->velocity_z.value * current_flight_dynamics->velocity_z.modifier;

  00757	a1 00 00 00 00	 mov	 eax, DWORD PTR ?current_flight_dynamics@@3PAUDYNAMICS_TYPE@@A ; current_flight_dynamics
  0075c	8b 0d 00 00 00
	00		 mov	 ecx, DWORD PTR ?current_flight_dynamics@@3PAUDYNAMICS_TYPE@@A ; current_flight_dynamics
  00762	f3 0f 10 80 9c
	20 00 00	 movss	 xmm0, DWORD PTR [eax+8348]
  0076a	f3 0f 59 81 98
	20 00 00	 mulss	 xmm0, DWORD PTR [ecx+8344]
  00772	f3 0f 11 85 4c
	ff ff ff	 movss	 DWORD PTR _velocity_z_value$[ebp], xmm0

; 1394 : 	main_blade_pitch_value = current_flight_dynamics->main_blade_pitch.value * current_flight_dynamics->main_blade_pitch.modifier;

  0077a	a1 00 00 00 00	 mov	 eax, DWORD PTR ?current_flight_dynamics@@3PAUDYNAMICS_TYPE@@A ; current_flight_dynamics
  0077f	8b 0d 00 00 00
	00		 mov	 ecx, DWORD PTR ?current_flight_dynamics@@3PAUDYNAMICS_TYPE@@A ; current_flight_dynamics
  00785	f3 0f 10 80 8c
	1e 00 00	 movss	 xmm0, DWORD PTR [eax+7820]
  0078d	f3 0f 59 81 88
	1e 00 00	 mulss	 xmm0, DWORD PTR [ecx+7816]
  00795	f3 0f 11 85 44
	ff ff ff	 movss	 DWORD PTR _main_blade_pitch_value$[ebp], xmm0

; 1395 : 
; 1396 : 	rotor_direction.x = 0.0;

  0079d	0f 57 c0	 xorps	 xmm0, xmm0
  007a0	f3 0f 11 85 08
	ff ff ff	 movss	 DWORD PTR _rotor_direction$[ebp], xmm0

; 1397 : 	rotor_direction.y = 1.0;

  007a8	f3 0f 10 05 00
	00 00 00	 movss	 xmm0, DWORD PTR __real@3f800000
  007b0	f3 0f 11 85 0c
	ff ff ff	 movss	 DWORD PTR _rotor_direction$[ebp+4], xmm0

; 1398 : 	rotor_direction.z = 0.0;

  007b8	0f 57 c0	 xorps	 xmm0, xmm0
  007bb	f3 0f 11 85 10
	ff ff ff	 movss	 DWORD PTR _rotor_direction$[ebp+8], xmm0

; 1399 : 
; 1400 : 	if (command_line_dynamics_flight_model == 2)

  007c3	83 3d 00 00 00
	00 02		 cmp	 DWORD PTR ?command_line_dynamics_flight_model@@3HA, 2 ; command_line_dynamics_flight_model
  007ca	75 4c		 jne	 SHORT $LN5@update_att

; 1401 : 	{
; 1402 : 		get_3d_transformation_heading_pitch_matrix(rotor_attitude, main_rotor_roll_angle_value, rad(5.0) - main_rotor_pitch_angle_value);

  007cc	f3 0f 5a 85 74
	ff ff ff	 cvtss2sd xmm0, DWORD PTR _main_rotor_pitch_angle_value$[ebp]
  007d4	f2 0f 10 0d 00
	00 00 00	 movsd	 xmm1, QWORD PTR __real@3fb6571848000000
  007dc	f2 0f 5c c8	 subsd	 xmm1, xmm0
  007e0	f2 0f 5a c1	 cvtsd2ss xmm0, xmm1
  007e4	51		 push	 ecx
  007e5	f3 0f 11 04 24	 movss	 DWORD PTR [esp], xmm0
  007ea	51		 push	 ecx
  007eb	f3 0f 10 85 6c
	ff ff ff	 movss	 xmm0, DWORD PTR _main_rotor_roll_angle_value$[ebp]
  007f3	f3 0f 11 04 24	 movss	 DWORD PTR [esp], xmm0
  007f8	8d 45 d8	 lea	 eax, DWORD PTR _rotor_attitude$[ebp]
  007fb	50		 push	 eax
  007fc	e8 00 00 00 00	 call	 ?get_3d_transformation_heading_pitch_matrix@@YGXQAY02MMM@Z ; get_3d_transformation_heading_pitch_matrix

; 1403 : 		multiply_transpose_matrix3x3_vec3d(&rotor_direction, rotor_attitude, &rotor_direction);

  00801	8d 85 08 ff ff
	ff		 lea	 eax, DWORD PTR _rotor_direction$[ebp]
  00807	50		 push	 eax
  00808	8d 4d d8	 lea	 ecx, DWORD PTR _rotor_attitude$[ebp]
  0080b	51		 push	 ecx
  0080c	8d 95 08 ff ff
	ff		 lea	 edx, DWORD PTR _rotor_direction$[ebp]
  00812	52		 push	 edx
  00813	e8 00 00 00 00	 call	 ?multiply_transpose_matrix3x3_vec3d@@YGXPAUVEC3D@@QAY02$$CBMPBU1@@Z ; multiply_transpose_matrix3x3_vec3d
$LN5@update_att:

; 1404 : 	}
; 1405 : 
; 1406 : 	/////////////////////////////////////////////////////////////////////////////////////////////////////////////////////////////////
; 1407 : 	// Rotor Force Analysis
; 1408 : 	/////////////////////////////////////////////////////////////////////////////////////////////////////////////////////////////////
; 1409 : 
; 1410 : 	angle = 1.0;

  00818	f3 0f 10 05 00
	00 00 00	 movss	 xmm0, DWORD PTR __real@3f800000
  00820	f3 0f 11 45 ac	 movss	 DWORD PTR _angle$[ebp], xmm0

; 1411 : 
; 1412 : 	rotor_split = 0.90;

  00825	f3 0f 10 05 00
	00 00 00	 movss	 xmm0, DWORD PTR __real@3f666666
  0082d	f3 0f 11 45 a0	 movss	 DWORD PTR _rotor_split$[ebp], xmm0

; 1413 : 
; 1414 : 	edge_rotor_split = 1.0 - rotor_split;

  00832	f3 0f 5a 45 a0	 cvtss2sd xmm0, DWORD PTR _rotor_split$[ebp]
  00837	f2 0f 10 0d 00
	00 00 00	 movsd	 xmm1, QWORD PTR __real@3ff0000000000000
  0083f	f2 0f 5c c8	 subsd	 xmm1, xmm0
  00843	f2 0f 5a c1	 cvtsd2ss xmm0, xmm1
  00847	f3 0f 11 45 9c	 movss	 DWORD PTR _edge_rotor_split$[ebp], xmm0

; 1415 : 
; 1416 : 	edge_rotor_split /= 8.0;

  0084c	f3 0f 5a 45 9c	 cvtss2sd xmm0, DWORD PTR _edge_rotor_split$[ebp]
  00851	f2 0f 5e 05 00
	00 00 00	 divsd	 xmm0, QWORD PTR __real@4020000000000000
  00859	f2 0f 5a c0	 cvtsd2ss xmm0, xmm0
  0085d	f3 0f 11 45 9c	 movss	 DWORD PTR _edge_rotor_split$[ebp], xmm0

; 1417 : 
; 1418 : 	rotor_edge_value = 0.401681;

  00862	f3 0f 10 05 00
	00 00 00	 movss	 xmm0, DWORD PTR __real@3ecda922
  0086a	f3 0f 11 45 a8	 movss	 DWORD PTR _rotor_edge_value$[ebp], xmm0

; 1419 : 
; 1420 : 	////////////////////////////////////////////
; 1421 : 	// Taxiing
; 1422 : 	////////////////////////////////////////////
; 1423 : 	if (command_line_dynamics_flight_model < 2 && !get_local_entity_int_value (get_gunship_entity (), INT_TYPE_AIRBORNE_AIRCRAFT))

  0086f	83 3d 00 00 00
	00 02		 cmp	 DWORD PTR ?command_line_dynamics_flight_model@@3HA, 2 ; command_line_dynamics_flight_model
  00876	0f 8d b2 01 00
	00		 jge	 $LN6@update_att
  0087c	83 3d 00 00 00
	00 00		 cmp	 DWORD PTR ?gunship_entity@@3PAUENTITY@@A, 0 ; gunship_entity
  00883	74 0f		 je	 SHORT $LN95@update_att
  00885	a1 00 00 00 00	 mov	 eax, DWORD PTR ?gunship_entity@@3PAUENTITY@@A ; gunship_entity
  0088a	8b 08		 mov	 ecx, DWORD PTR [eax]
  0088c	89 8d 00 fd ff
	ff		 mov	 DWORD PTR tv386[ebp], ecx
  00892	eb 20		 jmp	 SHORT $LN96@update_att
$LN95@update_att:
  00894	68 8f 05 00 00	 push	 1423			; 0000058fH
  00899	68 00 00 00 00	 push	 OFFSET ??_C@_0EN@OILCBPIN@c?3?2users?2nhv90?2projects?2eech?2ap@
  0089e	8b 15 00 00 00
	00		 mov	 edx, DWORD PTR ?null_entity_pointer_message@@3PBDB ; null_entity_pointer_message
  008a4	52		 push	 edx
  008a5	e8 00 00 00 00	 call	 ?process_assert@@YGXPBD0H@Z ; process_assert
  008aa	c7 85 00 fd ff
	ff 00 00 00 00	 mov	 DWORD PTR tv386[ebp], 0
$LN96@update_att:
  008b4	b8 01 00 00 00	 mov	 eax, 1
  008b9	85 c0		 test	 eax, eax
  008bb	74 0c		 je	 SHORT $LN97@update_att
  008bd	c7 85 fc fc ff
	ff 04 00 00 00	 mov	 DWORD PTR tv393[ebp], 4
  008c7	eb 20		 jmp	 SHORT $LN98@update_att
$LN97@update_att:
  008c9	68 8f 05 00 00	 push	 1423			; 0000058fH
  008ce	68 00 00 00 00	 push	 OFFSET ??_C@_0EN@OILCBPIN@c?3?2users?2nhv90?2projects?2eech?2ap@
  008d3	8b 0d 00 00 00
	00		 mov	 ecx, DWORD PTR ?overload_invalid_int_type_message@@3PBDB ; overload_invalid_int_type_message
  008d9	51		 push	 ecx
  008da	e8 00 00 00 00	 call	 ?process_assert@@YGXPBD0H@Z ; process_assert
  008df	c7 85 fc fc ff
	ff 00 00 00 00	 mov	 DWORD PTR tv393[ebp], 0
$LN98@update_att:
  008e9	6a 04		 push	 4
  008eb	8b 15 00 00 00
	00		 mov	 edx, DWORD PTR ?gunship_entity@@3PAUENTITY@@A ; gunship_entity
  008f1	52		 push	 edx
  008f2	69 85 00 fd ff
	ff 5c 04 00 00	 imul	 eax, DWORD PTR tv386[ebp], 1116
  008fc	8b 8d fc fc ff
	ff		 mov	 ecx, DWORD PTR tv393[ebp]
  00902	8b 94 88 00 00
	00 00		 mov	 edx, DWORD PTR ?fn_get_local_entity_int_value@@3PAY0BBH@P6GHPAUENTITY@@W4INT_TYPES@@@ZA[eax+ecx*4]
  00909	ff d2		 call	 edx
  0090b	85 c0		 test	 eax, eax
  0090d	0f 85 1b 01 00
	00		 jne	 $LN6@update_att

; 1424 : 	{
; 1425 : 
; 1426 : 		// rotor
; 1427 : 
; 1428 : 		rotor_force = main_rotor_induced_air_value * 35.0;// ball park number to give about 50kts at 60%

  00913	f3 0f 5a 85 78
	ff ff ff	 cvtss2sd xmm0, DWORD PTR _main_rotor_induced_air_value$[ebp]
  0091b	f2 0f 59 05 00
	00 00 00	 mulsd	 xmm0, QWORD PTR __real@4041800000000000
  00923	f2 0f 5a c0	 cvtsd2ss xmm0, xmm0
  00927	f3 0f 11 45 94	 movss	 DWORD PTR _rotor_force$[ebp], xmm0

; 1429 : 
; 1430 : 		direction.x = 0.0;

  0092c	0f 57 c0	 xorps	 xmm0, xmm0
  0092f	f3 0f 11 85 14
	ff ff ff	 movss	 DWORD PTR _direction$[ebp], xmm0

; 1431 : 		direction.y = 0.0;

  00937	0f 57 c0	 xorps	 xmm0, xmm0
  0093a	f3 0f 11 85 18
	ff ff ff	 movss	 DWORD PTR _direction$[ebp+4], xmm0

; 1432 : 		direction.z = bound (-main_rotor_pitch_angle_value, -1.0, 1.0);

  00942	f3 0f 10 85 74
	ff ff ff	 movss	 xmm0, DWORD PTR _main_rotor_pitch_angle_value$[ebp]
  0094a	0f 57 05 00 00
	00 00		 xorps	 xmm0, DWORD PTR __xmm@80000000800000008000000080000000
  00951	f3 0f 5a c0	 cvtss2sd xmm0, xmm0
  00955	f2 0f 10 0d 00
	00 00 00	 movsd	 xmm1, QWORD PTR __real@bff0000000000000
  0095d	66 0f 2f c8	 comisd	 xmm1, xmm0
  00961	76 12		 jbe	 SHORT $LN101@update_att
  00963	f2 0f 10 05 00
	00 00 00	 movsd	 xmm0, QWORD PTR __real@bff0000000000000
  0096b	f2 0f 11 85 fc
	fc ff ff	 movsd	 QWORD PTR tv412[ebp], xmm0
  00973	eb 5a		 jmp	 SHORT $LN102@update_att
$LN101@update_att:
  00975	f3 0f 10 85 74
	ff ff ff	 movss	 xmm0, DWORD PTR _main_rotor_pitch_angle_value$[ebp]
  0097d	0f 57 05 00 00
	00 00		 xorps	 xmm0, DWORD PTR __xmm@80000000800000008000000080000000
  00984	f3 0f 5a c0	 cvtss2sd xmm0, xmm0
  00988	66 0f 2f 05 00
	00 00 00	 comisd	 xmm0, QWORD PTR __real@3ff0000000000000
  00990	76 12		 jbe	 SHORT $LN99@update_att
  00992	f2 0f 10 05 00
	00 00 00	 movsd	 xmm0, QWORD PTR __real@3ff0000000000000
  0099a	f2 0f 11 85 f4
	fc ff ff	 movsd	 QWORD PTR tv411[ebp], xmm0
  009a2	eb 1b		 jmp	 SHORT $LN100@update_att
$LN99@update_att:
  009a4	f3 0f 10 85 74
	ff ff ff	 movss	 xmm0, DWORD PTR _main_rotor_pitch_angle_value$[ebp]
  009ac	0f 57 05 00 00
	00 00		 xorps	 xmm0, DWORD PTR __xmm@80000000800000008000000080000000
  009b3	f3 0f 5a c0	 cvtss2sd xmm0, xmm0
  009b7	f2 0f 11 85 f4
	fc ff ff	 movsd	 QWORD PTR tv411[ebp], xmm0
$LN100@update_att:
  009bf	f2 0f 10 85 f4
	fc ff ff	 movsd	 xmm0, QWORD PTR tv411[ebp]
  009c7	f2 0f 11 85 fc
	fc ff ff	 movsd	 QWORD PTR tv412[ebp], xmm0
$LN102@update_att:
  009cf	f2 0f 5a 85 fc
	fc ff ff	 cvtsd2ss xmm0, QWORD PTR tv412[ebp]
  009d7	f3 0f 11 85 1c
	ff ff ff	 movss	 DWORD PTR _direction$[ebp+8], xmm0

; 1433 : 
; 1434 : 		position.x = 0.0;

  009df	0f 57 c0	 xorps	 xmm0, xmm0
  009e2	f3 0f 11 85 20
	ff ff ff	 movss	 DWORD PTR _position$[ebp], xmm0

; 1435 : 		position.y = 0.0;

  009ea	0f 57 c0	 xorps	 xmm0, xmm0
  009ed	f3 0f 11 85 24
	ff ff ff	 movss	 DWORD PTR _position$[ebp+4], xmm0

; 1436 : 		position.z = 0.0;

  009f5	0f 57 c0	 xorps	 xmm0, xmm0
  009f8	f3 0f 11 85 28
	ff ff ff	 movss	 DWORD PTR _position$[ebp+8], xmm0

; 1437 : 
; 1438 : 		add_dynamic_force ("Taxiing force", rotor_force, 0.0, &position, &direction, FALSE);

  00a00	6a 00		 push	 0
  00a02	8d 85 14 ff ff
	ff		 lea	 eax, DWORD PTR _direction$[ebp]
  00a08	50		 push	 eax
  00a09	8d 8d 20 ff ff
	ff		 lea	 ecx, DWORD PTR _position$[ebp]
  00a0f	51		 push	 ecx
  00a10	51		 push	 ecx
  00a11	0f 57 c0	 xorps	 xmm0, xmm0
  00a14	f3 0f 11 04 24	 movss	 DWORD PTR [esp], xmm0
  00a19	51		 push	 ecx
  00a1a	f3 0f 10 45 94	 movss	 xmm0, DWORD PTR _rotor_force$[ebp]
  00a1f	f3 0f 11 04 24	 movss	 DWORD PTR [esp], xmm0
  00a24	68 00 00 00 00	 push	 OFFSET ??_C@_0O@DAHLPFDH@Taxiing?5force@
  00a29	e8 00 00 00 00	 call	 ?add_dynamic_force@@YGXPBDMMPAUVEC3D@@1H@Z ; add_dynamic_force
$LN6@update_att:

; 1439 : 	}
; 1440 : 
; 1441 : 	////////////////////////////////////////////
; 1442 : 	// middle of rotor disc
; 1443 : 	////////////////////////////////////////////
; 1444 : 	{
; 1445 : 
; 1446 : 		rotor_force = rotor_split * main_rotor_induced_air_value;

  00a2e	f3 0f 10 45 a0	 movss	 xmm0, DWORD PTR _rotor_split$[ebp]
  00a33	f3 0f 59 85 78
	ff ff ff	 mulss	 xmm0, DWORD PTR _main_rotor_induced_air_value$[ebp]
  00a3b	f3 0f 11 45 94	 movss	 DWORD PTR _rotor_force$[ebp], xmm0

; 1447 : 
; 1448 : 		if ((current_flight_dynamics->rotor_brake) && (current_flight_dynamics->main_rotor_rpm.max != 0.0))

  00a40	a1 00 00 00 00	 mov	 eax, DWORD PTR ?current_flight_dynamics@@3PAUDYNAMICS_TYPE@@A ; current_flight_dynamics
  00a45	8b 88 28 25 00
	00		 mov	 ecx, DWORD PTR [eax+9512]
  00a4b	c1 e9 05	 shr	 ecx, 5
  00a4e	83 e1 01	 and	 ecx, 1
  00a51	74 3a		 je	 SHORT $LN7@update_att
  00a53	a1 00 00 00 00	 mov	 eax, DWORD PTR ?current_flight_dynamics@@3PAUDYNAMICS_TYPE@@A ; current_flight_dynamics
  00a58	f3 0f 5a 80 20
	1e 00 00	 cvtss2sd xmm0, DWORD PTR [eax+7712]
  00a60	66 0f 2e 05 00
	00 00 00	 ucomisd xmm0, QWORD PTR __real@0000000000000000
  00a68	9f		 lahf
  00a69	f6 c4 44	 test	 ah, 68			; 00000044H
  00a6c	7b 1f		 jnp	 SHORT $LN7@update_att

; 1449 : 		{
; 1450 : 
; 1451 : 			rotor_force *= main_rotor_rpm_value / current_flight_dynamics->main_rotor_rpm.max;

  00a6e	a1 00 00 00 00	 mov	 eax, DWORD PTR ?current_flight_dynamics@@3PAUDYNAMICS_TYPE@@A ; current_flight_dynamics
  00a73	f3 0f 10 85 70
	ff ff ff	 movss	 xmm0, DWORD PTR _main_rotor_rpm_value$[ebp]
  00a7b	f3 0f 5e 80 20
	1e 00 00	 divss	 xmm0, DWORD PTR [eax+7712]
  00a83	f3 0f 59 45 94	 mulss	 xmm0, DWORD PTR _rotor_force$[ebp]
  00a88	f3 0f 11 45 94	 movss	 DWORD PTR _rotor_force$[ebp], xmm0
$LN7@update_att:

; 1452 : 		}
; 1453 : 
; 1454 : 		position.x = 0.0;

  00a8d	0f 57 c0	 xorps	 xmm0, xmm0
  00a90	f3 0f 11 85 20
	ff ff ff	 movss	 DWORD PTR _position$[ebp], xmm0

; 1455 : 		position.y = 0.0;

  00a98	0f 57 c0	 xorps	 xmm0, xmm0
  00a9b	f3 0f 11 85 24
	ff ff ff	 movss	 DWORD PTR _position$[ebp+4], xmm0

; 1456 : 		position.z = 0.0;

  00aa3	0f 57 c0	 xorps	 xmm0, xmm0
  00aa6	f3 0f 11 85 28
	ff ff ff	 movss	 DWORD PTR _position$[ebp+8], xmm0

; 1457 : 
; 1458 : 		add_dynamic_force ("Middle rotor force", command_line_dynamics_main_rotor_lift * rotor_force, 0.0, &position, &rotor_direction, FALSE);

  00aae	6a 00		 push	 0
  00ab0	8d 85 08 ff ff
	ff		 lea	 eax, DWORD PTR _rotor_direction$[ebp]
  00ab6	50		 push	 eax
  00ab7	8d 8d 20 ff ff
	ff		 lea	 ecx, DWORD PTR _position$[ebp]
  00abd	51		 push	 ecx
  00abe	51		 push	 ecx
  00abf	0f 57 c0	 xorps	 xmm0, xmm0
  00ac2	f3 0f 11 04 24	 movss	 DWORD PTR [esp], xmm0
  00ac7	f3 0f 10 05 00
	00 00 00	 movss	 xmm0, DWORD PTR ?command_line_dynamics_main_rotor_lift@@3MA
  00acf	f3 0f 59 45 94	 mulss	 xmm0, DWORD PTR _rotor_force$[ebp]
  00ad4	51		 push	 ecx
  00ad5	f3 0f 11 04 24	 movss	 DWORD PTR [esp], xmm0
  00ada	68 00 00 00 00	 push	 OFFSET ??_C@_0BD@BBEFFKGJ@Middle?5rotor?5force@
  00adf	e8 00 00 00 00	 call	 ?add_dynamic_force@@YGXPBDMMPAUVEC3D@@1H@Z ; add_dynamic_force

; 1459 : 	}
; 1460 : 
; 1461 : 	////////////////////////////////////////////
; 1462 : 	// front of rotor disc
; 1463 : 	////////////////////////////////////////////
; 1464 : 	{
; 1465 : 
; 1466 : 		angle = main_rotor_pitch_angle_value;

  00ae4	f3 0f 10 85 74
	ff ff ff	 movss	 xmm0, DWORD PTR _main_rotor_pitch_angle_value$[ebp]
  00aec	f3 0f 11 45 ac	 movss	 DWORD PTR _angle$[ebp], xmm0

; 1467 : 
; 1468 : 		front_rotor_force = rotor_edge_value +

  00af1	f3 0f 5a 45 a8	 cvtss2sd xmm0, DWORD PTR _rotor_edge_value$[ebp]
  00af6	f3 0f 5a 4d ac	 cvtss2sd xmm1, DWORD PTR _angle$[ebp]
  00afb	f2 0f 59 0d 00
	00 00 00	 mulsd	 xmm1, QWORD PTR __real@3fe3333333333333
  00b03	a1 00 00 00 00	 mov	 eax, DWORD PTR ?current_flight_dynamics@@3PAUDYNAMICS_TYPE@@A ; current_flight_dynamics
  00b08	8b 0d 00 00 00
	00		 mov	 ecx, DWORD PTR ?current_flight_dynamics@@3PAUDYNAMICS_TYPE@@A ; current_flight_dynamics
  00b0e	f3 0f 10 90 08
	1e 00 00	 movss	 xmm2, DWORD PTR [eax+7688]
  00b16	f3 0f 5c 91 04
	1e 00 00	 subss	 xmm2, DWORD PTR [ecx+7684]
  00b1e	f3 0f 5a d2	 cvtss2sd xmm2, xmm2
  00b22	f2 0f 5e ca	 divsd	 xmm1, xmm2
  00b26	f2 0f 58 c1	 addsd	 xmm0, xmm1
  00b2a	8b 15 00 00 00
	00		 mov	 edx, DWORD PTR ?current_flight_dynamics@@3PAUDYNAMICS_TYPE@@A ; current_flight_dynamics
  00b30	f3 0f 5a 8a a8
	1b 00 00	 cvtss2sd xmm1, DWORD PTR [edx+7080]
  00b38	f2 0f 59 0d 00
	00 00 00	 mulsd	 xmm1, QWORD PTR __real@3fc999999999999a
  00b40	a1 00 00 00 00	 mov	 eax, DWORD PTR ?current_flight_dynamics@@3PAUDYNAMICS_TYPE@@A ; current_flight_dynamics
  00b45	8b 0d 00 00 00
	00		 mov	 ecx, DWORD PTR ?current_flight_dynamics@@3PAUDYNAMICS_TYPE@@A ; current_flight_dynamics
  00b4b	f3 0f 10 90 b4
	1b 00 00	 movss	 xmm2, DWORD PTR [eax+7092]
  00b53	f3 0f 5c 91 b0
	1b 00 00	 subss	 xmm2, DWORD PTR [ecx+7088]
  00b5b	f3 0f 5a d2	 cvtss2sd xmm2, xmm2
  00b5f	f2 0f 5e ca	 divsd	 xmm1, xmm2
  00b63	f2 0f 58 c1	 addsd	 xmm0, xmm1
  00b67	f2 0f 5a c0	 cvtsd2ss xmm0, xmm0
  00b6b	f3 0f 11 45 90	 movss	 DWORD PTR _front_rotor_force$[ebp], xmm0

; 1469 : 				(0.6 * angle) / (current_flight_dynamics->main_rotor_pitch_angle.max - current_flight_dynamics->main_rotor_pitch_angle.min) +
; 1470 : 				(0.2 * current_flight_dynamics->input_data.collective.value) / (current_flight_dynamics->input_data.collective.max - current_flight_dynamics->input_data.collective.min);
; 1471 : 
; 1472 : 		front_rotor_force *= main_rotor_rpm_value / current_flight_dynamics->main_rotor_rpm.max;

  00b70	a1 00 00 00 00	 mov	 eax, DWORD PTR ?current_flight_dynamics@@3PAUDYNAMICS_TYPE@@A ; current_flight_dynamics
  00b75	f3 0f 10 85 70
	ff ff ff	 movss	 xmm0, DWORD PTR _main_rotor_rpm_value$[ebp]
  00b7d	f3 0f 5e 80 20
	1e 00 00	 divss	 xmm0, DWORD PTR [eax+7712]
  00b85	f3 0f 59 45 90	 mulss	 xmm0, DWORD PTR _front_rotor_force$[ebp]
  00b8a	f3 0f 11 45 90	 movss	 DWORD PTR _front_rotor_force$[ebp], xmm0

; 1473 : 
; 1474 : 		position.x = 0.0;

  00b8f	0f 57 c0	 xorps	 xmm0, xmm0
  00b92	f3 0f 11 85 20
	ff ff ff	 movss	 DWORD PTR _position$[ebp], xmm0

; 1475 : 		position.y = 0.0;

  00b9a	0f 57 c0	 xorps	 xmm0, xmm0
  00b9d	f3 0f 11 85 24
	ff ff ff	 movss	 DWORD PTR _position$[ebp+4], xmm0

; 1476 : 		position.z = rotor_radius;

  00ba5	f3 0f 10 45 b0	 movss	 xmm0, DWORD PTR _rotor_radius$[ebp]
  00baa	f3 0f 11 85 28
	ff ff ff	 movss	 DWORD PTR _position$[ebp+8], xmm0

; 1477 : 
; 1478 : 		add_dynamic_force ("Front rotor force", command_line_dynamics_main_rotor_lift * front_rotor_force, 0.0, &position, &rotor_direction, FALSE);

  00bb2	6a 00		 push	 0
  00bb4	8d 85 08 ff ff
	ff		 lea	 eax, DWORD PTR _rotor_direction$[ebp]
  00bba	50		 push	 eax
  00bbb	8d 8d 20 ff ff
	ff		 lea	 ecx, DWORD PTR _position$[ebp]
  00bc1	51		 push	 ecx
  00bc2	51		 push	 ecx
  00bc3	0f 57 c0	 xorps	 xmm0, xmm0
  00bc6	f3 0f 11 04 24	 movss	 DWORD PTR [esp], xmm0
  00bcb	f3 0f 10 05 00
	00 00 00	 movss	 xmm0, DWORD PTR ?command_line_dynamics_main_rotor_lift@@3MA
  00bd3	f3 0f 59 45 90	 mulss	 xmm0, DWORD PTR _front_rotor_force$[ebp]
  00bd8	51		 push	 ecx
  00bd9	f3 0f 11 04 24	 movss	 DWORD PTR [esp], xmm0
  00bde	68 00 00 00 00	 push	 OFFSET ??_C@_0BC@MEMJFFEH@Front?5rotor?5force@
  00be3	e8 00 00 00 00	 call	 ?add_dynamic_force@@YGXPBDMMPAUVEC3D@@1H@Z ; add_dynamic_force

; 1479 : 	}
; 1480 : 	////////////////////////////////////////////
; 1481 : 	// back of rotor disc
; 1482 : 	////////////////////////////////////////////
; 1483 : 	{
; 1484 : 
; 1485 : 		angle = main_rotor_pitch_angle_value;

  00be8	f3 0f 10 85 74
	ff ff ff	 movss	 xmm0, DWORD PTR _main_rotor_pitch_angle_value$[ebp]
  00bf0	f3 0f 11 45 ac	 movss	 DWORD PTR _angle$[ebp], xmm0

; 1486 : 
; 1487 : 		back_rotor_force = rotor_edge_value -

  00bf5	f3 0f 5a 45 a8	 cvtss2sd xmm0, DWORD PTR _rotor_edge_value$[ebp]
  00bfa	f3 0f 5a 4d ac	 cvtss2sd xmm1, DWORD PTR _angle$[ebp]
  00bff	f2 0f 59 0d 00
	00 00 00	 mulsd	 xmm1, QWORD PTR __real@3fe3333333333333
  00c07	a1 00 00 00 00	 mov	 eax, DWORD PTR ?current_flight_dynamics@@3PAUDYNAMICS_TYPE@@A ; current_flight_dynamics
  00c0c	8b 0d 00 00 00
	00		 mov	 ecx, DWORD PTR ?current_flight_dynamics@@3PAUDYNAMICS_TYPE@@A ; current_flight_dynamics
  00c12	f3 0f 10 90 08
	1e 00 00	 movss	 xmm2, DWORD PTR [eax+7688]
  00c1a	f3 0f 5c 91 04
	1e 00 00	 subss	 xmm2, DWORD PTR [ecx+7684]
  00c22	f3 0f 5a d2	 cvtss2sd xmm2, xmm2
  00c26	f2 0f 5e ca	 divsd	 xmm1, xmm2
  00c2a	f2 0f 5c c1	 subsd	 xmm0, xmm1
  00c2e	8b 15 00 00 00
	00		 mov	 edx, DWORD PTR ?current_flight_dynamics@@3PAUDYNAMICS_TYPE@@A ; current_flight_dynamics
  00c34	f3 0f 5a 8a a8
	1b 00 00	 cvtss2sd xmm1, DWORD PTR [edx+7080]
  00c3c	f2 0f 59 0d 00
	00 00 00	 mulsd	 xmm1, QWORD PTR __real@3fc999999999999a
  00c44	a1 00 00 00 00	 mov	 eax, DWORD PTR ?current_flight_dynamics@@3PAUDYNAMICS_TYPE@@A ; current_flight_dynamics
  00c49	8b 0d 00 00 00
	00		 mov	 ecx, DWORD PTR ?current_flight_dynamics@@3PAUDYNAMICS_TYPE@@A ; current_flight_dynamics
  00c4f	f3 0f 10 90 b4
	1b 00 00	 movss	 xmm2, DWORD PTR [eax+7092]
  00c57	f3 0f 5c 91 b0
	1b 00 00	 subss	 xmm2, DWORD PTR [ecx+7088]
  00c5f	f3 0f 5a d2	 cvtss2sd xmm2, xmm2
  00c63	f2 0f 5e ca	 divsd	 xmm1, xmm2
  00c67	f2 0f 58 c1	 addsd	 xmm0, xmm1
  00c6b	f2 0f 5a c0	 cvtsd2ss xmm0, xmm0
  00c6f	f3 0f 11 45 8c	 movss	 DWORD PTR _back_rotor_force$[ebp], xmm0

; 1488 : 				(0.6 * angle) / (current_flight_dynamics->main_rotor_pitch_angle.max - current_flight_dynamics->main_rotor_pitch_angle.min) +
; 1489 : 				(0.2 * current_flight_dynamics->input_data.collective.value) / (current_flight_dynamics->input_data.collective.max - current_flight_dynamics->input_data.collective.min);
; 1490 : 
; 1491 : 		back_rotor_force *= main_rotor_rpm_value / current_flight_dynamics->main_rotor_rpm.max;

  00c74	a1 00 00 00 00	 mov	 eax, DWORD PTR ?current_flight_dynamics@@3PAUDYNAMICS_TYPE@@A ; current_flight_dynamics
  00c79	f3 0f 10 85 70
	ff ff ff	 movss	 xmm0, DWORD PTR _main_rotor_rpm_value$[ebp]
  00c81	f3 0f 5e 80 20
	1e 00 00	 divss	 xmm0, DWORD PTR [eax+7712]
  00c89	f3 0f 59 45 8c	 mulss	 xmm0, DWORD PTR _back_rotor_force$[ebp]
  00c8e	f3 0f 11 45 8c	 movss	 DWORD PTR _back_rotor_force$[ebp], xmm0

; 1492 : 
; 1493 : 		position.x = 0.0;

  00c93	0f 57 c0	 xorps	 xmm0, xmm0
  00c96	f3 0f 11 85 20
	ff ff ff	 movss	 DWORD PTR _position$[ebp], xmm0

; 1494 : 		position.y = 0.0;

  00c9e	0f 57 c0	 xorps	 xmm0, xmm0
  00ca1	f3 0f 11 85 24
	ff ff ff	 movss	 DWORD PTR _position$[ebp+4], xmm0

; 1495 : 		position.z = -rotor_radius;

  00ca9	f3 0f 10 45 b0	 movss	 xmm0, DWORD PTR _rotor_radius$[ebp]
  00cae	0f 57 05 00 00
	00 00		 xorps	 xmm0, DWORD PTR __xmm@80000000800000008000000080000000
  00cb5	f3 0f 11 85 28
	ff ff ff	 movss	 DWORD PTR _position$[ebp+8], xmm0

; 1496 : 
; 1497 : 		add_dynamic_force ("Back rotor force", command_line_dynamics_main_rotor_lift * back_rotor_force, 0.0, &position, &rotor_direction, FALSE);

  00cbd	6a 00		 push	 0
  00cbf	8d 85 08 ff ff
	ff		 lea	 eax, DWORD PTR _rotor_direction$[ebp]
  00cc5	50		 push	 eax
  00cc6	8d 8d 20 ff ff
	ff		 lea	 ecx, DWORD PTR _position$[ebp]
  00ccc	51		 push	 ecx
  00ccd	51		 push	 ecx
  00cce	0f 57 c0	 xorps	 xmm0, xmm0
  00cd1	f3 0f 11 04 24	 movss	 DWORD PTR [esp], xmm0
  00cd6	f3 0f 10 05 00
	00 00 00	 movss	 xmm0, DWORD PTR ?command_line_dynamics_main_rotor_lift@@3MA
  00cde	f3 0f 59 45 8c	 mulss	 xmm0, DWORD PTR _back_rotor_force$[ebp]
  00ce3	51		 push	 ecx
  00ce4	f3 0f 11 04 24	 movss	 DWORD PTR [esp], xmm0
  00ce9	68 00 00 00 00	 push	 OFFSET ??_C@_0BB@LJEAAOI@Back?5rotor?5force@
  00cee	e8 00 00 00 00	 call	 ?add_dynamic_force@@YGXPBDMMPAUVEC3D@@1H@Z ; add_dynamic_force

; 1498 : 	}
; 1499 : 	////////////////////////////////////////////
; 1500 : 	// left of rotor disc
; 1501 : 	////////////////////////////////////////////
; 1502 : 	{
; 1503 : 
; 1504 : 		angle = main_rotor_roll_angle_value;

  00cf3	f3 0f 10 85 6c
	ff ff ff	 movss	 xmm0, DWORD PTR _main_rotor_roll_angle_value$[ebp]
  00cfb	f3 0f 11 45 ac	 movss	 DWORD PTR _angle$[ebp], xmm0

; 1505 : 
; 1506 : 		left_rotor_force = rotor_edge_value -

  00d00	f3 0f 5a 45 a8	 cvtss2sd xmm0, DWORD PTR _rotor_edge_value$[ebp]
  00d05	f3 0f 5a 4d ac	 cvtss2sd xmm1, DWORD PTR _angle$[ebp]
  00d0a	f2 0f 59 0d 00
	00 00 00	 mulsd	 xmm1, QWORD PTR __real@3fe3333333333333
  00d12	a1 00 00 00 00	 mov	 eax, DWORD PTR ?current_flight_dynamics@@3PAUDYNAMICS_TYPE@@A ; current_flight_dynamics
  00d17	8b 0d 00 00 00
	00		 mov	 ecx, DWORD PTR ?current_flight_dynamics@@3PAUDYNAMICS_TYPE@@A ; current_flight_dynamics
  00d1d	f3 0f 10 90 f0
	1d 00 00	 movss	 xmm2, DWORD PTR [eax+7664]
  00d25	f3 0f 5c 91 ec
	1d 00 00	 subss	 xmm2, DWORD PTR [ecx+7660]
  00d2d	f3 0f 5a d2	 cvtss2sd xmm2, xmm2
  00d31	f2 0f 5e ca	 divsd	 xmm1, xmm2
  00d35	f2 0f 5c c1	 subsd	 xmm0, xmm1
  00d39	8b 15 00 00 00
	00		 mov	 edx, DWORD PTR ?current_flight_dynamics@@3PAUDYNAMICS_TYPE@@A ; current_flight_dynamics
  00d3f	f3 0f 5a 8a a8
	1b 00 00	 cvtss2sd xmm1, DWORD PTR [edx+7080]
  00d47	f2 0f 59 0d 00
	00 00 00	 mulsd	 xmm1, QWORD PTR __real@3fc999999999999a
  00d4f	a1 00 00 00 00	 mov	 eax, DWORD PTR ?current_flight_dynamics@@3PAUDYNAMICS_TYPE@@A ; current_flight_dynamics
  00d54	8b 0d 00 00 00
	00		 mov	 ecx, DWORD PTR ?current_flight_dynamics@@3PAUDYNAMICS_TYPE@@A ; current_flight_dynamics
  00d5a	f3 0f 10 90 b4
	1b 00 00	 movss	 xmm2, DWORD PTR [eax+7092]
  00d62	f3 0f 5c 91 b0
	1b 00 00	 subss	 xmm2, DWORD PTR [ecx+7088]
  00d6a	f3 0f 5a d2	 cvtss2sd xmm2, xmm2
  00d6e	f2 0f 5e ca	 divsd	 xmm1, xmm2
  00d72	f2 0f 58 c1	 addsd	 xmm0, xmm1
  00d76	f2 0f 5a c0	 cvtsd2ss xmm0, xmm0
  00d7a	f3 0f 11 45 88	 movss	 DWORD PTR _left_rotor_force$[ebp], xmm0

; 1507 : 				(0.6 * angle) / (current_flight_dynamics->main_rotor_roll_angle.max - current_flight_dynamics->main_rotor_roll_angle.min) +
; 1508 : 				(0.2 * current_flight_dynamics->input_data.collective.value) / (current_flight_dynamics->input_data.collective.max - current_flight_dynamics->input_data.collective.min);
; 1509 : 
; 1510 : 		left_rotor_force *= main_rotor_rpm_value / current_flight_dynamics->main_rotor_rpm.max;

  00d7f	a1 00 00 00 00	 mov	 eax, DWORD PTR ?current_flight_dynamics@@3PAUDYNAMICS_TYPE@@A ; current_flight_dynamics
  00d84	f3 0f 10 85 70
	ff ff ff	 movss	 xmm0, DWORD PTR _main_rotor_rpm_value$[ebp]
  00d8c	f3 0f 5e 80 20
	1e 00 00	 divss	 xmm0, DWORD PTR [eax+7712]
  00d94	f3 0f 59 45 88	 mulss	 xmm0, DWORD PTR _left_rotor_force$[ebp]
  00d99	f3 0f 11 45 88	 movss	 DWORD PTR _left_rotor_force$[ebp], xmm0

; 1511 : 
; 1512 : 		position.x = rotor_radius;

  00d9e	f3 0f 10 45 b0	 movss	 xmm0, DWORD PTR _rotor_radius$[ebp]
  00da3	f3 0f 11 85 20
	ff ff ff	 movss	 DWORD PTR _position$[ebp], xmm0

; 1513 : 		position.y = 0.0;

  00dab	0f 57 c0	 xorps	 xmm0, xmm0
  00dae	f3 0f 11 85 24
	ff ff ff	 movss	 DWORD PTR _position$[ebp+4], xmm0

; 1514 : 		position.z = 0.0;

  00db6	0f 57 c0	 xorps	 xmm0, xmm0
  00db9	f3 0f 11 85 28
	ff ff ff	 movss	 DWORD PTR _position$[ebp+8], xmm0

; 1515 : 
; 1516 : 		add_dynamic_force ("Left rotor force", command_line_dynamics_main_rotor_lift * left_rotor_force, 0.0, &position, &rotor_direction, FALSE);

  00dc1	6a 00		 push	 0
  00dc3	8d 85 08 ff ff
	ff		 lea	 eax, DWORD PTR _rotor_direction$[ebp]
  00dc9	50		 push	 eax
  00dca	8d 8d 20 ff ff
	ff		 lea	 ecx, DWORD PTR _position$[ebp]
  00dd0	51		 push	 ecx
  00dd1	51		 push	 ecx
  00dd2	0f 57 c0	 xorps	 xmm0, xmm0
  00dd5	f3 0f 11 04 24	 movss	 DWORD PTR [esp], xmm0
  00dda	f3 0f 10 05 00
	00 00 00	 movss	 xmm0, DWORD PTR ?command_line_dynamics_main_rotor_lift@@3MA
  00de2	f3 0f 59 45 88	 mulss	 xmm0, DWORD PTR _left_rotor_force$[ebp]
  00de7	51		 push	 ecx
  00de8	f3 0f 11 04 24	 movss	 DWORD PTR [esp], xmm0
  00ded	68 00 00 00 00	 push	 OFFSET ??_C@_0BB@JNCAICOI@Left?5rotor?5force@
  00df2	e8 00 00 00 00	 call	 ?add_dynamic_force@@YGXPBDMMPAUVEC3D@@1H@Z ; add_dynamic_force

; 1517 : 	}
; 1518 : 	////////////////////////////////////////////
; 1519 : 	// right of rotor disc
; 1520 : 	////////////////////////////////////////////
; 1521 : 	{
; 1522 : 
; 1523 : 		angle = main_rotor_roll_angle_value;

  00df7	f3 0f 10 85 6c
	ff ff ff	 movss	 xmm0, DWORD PTR _main_rotor_roll_angle_value$[ebp]
  00dff	f3 0f 11 45 ac	 movss	 DWORD PTR _angle$[ebp], xmm0

; 1524 : 
; 1525 : 		right_rotor_force = rotor_edge_value +

  00e04	f3 0f 5a 45 a8	 cvtss2sd xmm0, DWORD PTR _rotor_edge_value$[ebp]
  00e09	f3 0f 5a 4d ac	 cvtss2sd xmm1, DWORD PTR _angle$[ebp]
  00e0e	f2 0f 59 0d 00
	00 00 00	 mulsd	 xmm1, QWORD PTR __real@3fe3333333333333
  00e16	a1 00 00 00 00	 mov	 eax, DWORD PTR ?current_flight_dynamics@@3PAUDYNAMICS_TYPE@@A ; current_flight_dynamics
  00e1b	8b 0d 00 00 00
	00		 mov	 ecx, DWORD PTR ?current_flight_dynamics@@3PAUDYNAMICS_TYPE@@A ; current_flight_dynamics
  00e21	f3 0f 10 90 f0
	1d 00 00	 movss	 xmm2, DWORD PTR [eax+7664]
  00e29	f3 0f 5c 91 ec
	1d 00 00	 subss	 xmm2, DWORD PTR [ecx+7660]
  00e31	f3 0f 5a d2	 cvtss2sd xmm2, xmm2
  00e35	f2 0f 5e ca	 divsd	 xmm1, xmm2
  00e39	f2 0f 58 c1	 addsd	 xmm0, xmm1
  00e3d	8b 15 00 00 00
	00		 mov	 edx, DWORD PTR ?current_flight_dynamics@@3PAUDYNAMICS_TYPE@@A ; current_flight_dynamics
  00e43	f3 0f 5a 8a a8
	1b 00 00	 cvtss2sd xmm1, DWORD PTR [edx+7080]
  00e4b	f2 0f 59 0d 00
	00 00 00	 mulsd	 xmm1, QWORD PTR __real@3fc999999999999a
  00e53	a1 00 00 00 00	 mov	 eax, DWORD PTR ?current_flight_dynamics@@3PAUDYNAMICS_TYPE@@A ; current_flight_dynamics
  00e58	8b 0d 00 00 00
	00		 mov	 ecx, DWORD PTR ?current_flight_dynamics@@3PAUDYNAMICS_TYPE@@A ; current_flight_dynamics
  00e5e	f3 0f 10 90 b4
	1b 00 00	 movss	 xmm2, DWORD PTR [eax+7092]
  00e66	f3 0f 5c 91 b0
	1b 00 00	 subss	 xmm2, DWORD PTR [ecx+7088]
  00e6e	f3 0f 5a d2	 cvtss2sd xmm2, xmm2
  00e72	f2 0f 5e ca	 divsd	 xmm1, xmm2
  00e76	f2 0f 58 c1	 addsd	 xmm0, xmm1
  00e7a	f2 0f 5a c0	 cvtsd2ss xmm0, xmm0
  00e7e	f3 0f 11 45 84	 movss	 DWORD PTR _right_rotor_force$[ebp], xmm0

; 1526 : 				(0.6 * angle) / (current_flight_dynamics->main_rotor_roll_angle.max - current_flight_dynamics->main_rotor_roll_angle.min) +
; 1527 : 				(0.2 * current_flight_dynamics->input_data.collective.value) / (current_flight_dynamics->input_data.collective.max - current_flight_dynamics->input_data.collective.min);
; 1528 : 
; 1529 : 		right_rotor_force *= main_rotor_rpm_value / current_flight_dynamics->main_rotor_rpm.max;

  00e83	a1 00 00 00 00	 mov	 eax, DWORD PTR ?current_flight_dynamics@@3PAUDYNAMICS_TYPE@@A ; current_flight_dynamics
  00e88	f3 0f 10 85 70
	ff ff ff	 movss	 xmm0, DWORD PTR _main_rotor_rpm_value$[ebp]
  00e90	f3 0f 5e 80 20
	1e 00 00	 divss	 xmm0, DWORD PTR [eax+7712]
  00e98	f3 0f 59 45 84	 mulss	 xmm0, DWORD PTR _right_rotor_force$[ebp]
  00e9d	f3 0f 11 45 84	 movss	 DWORD PTR _right_rotor_force$[ebp], xmm0

; 1530 : 
; 1531 : 		position.x = -rotor_radius;

  00ea2	f3 0f 10 45 b0	 movss	 xmm0, DWORD PTR _rotor_radius$[ebp]
  00ea7	0f 57 05 00 00
	00 00		 xorps	 xmm0, DWORD PTR __xmm@80000000800000008000000080000000
  00eae	f3 0f 11 85 20
	ff ff ff	 movss	 DWORD PTR _position$[ebp], xmm0

; 1532 : 		position.y = 0.0;

  00eb6	0f 57 c0	 xorps	 xmm0, xmm0
  00eb9	f3 0f 11 85 24
	ff ff ff	 movss	 DWORD PTR _position$[ebp+4], xmm0

; 1533 : 		position.z = 0.0;

  00ec1	0f 57 c0	 xorps	 xmm0, xmm0
  00ec4	f3 0f 11 85 28
	ff ff ff	 movss	 DWORD PTR _position$[ebp+8], xmm0

; 1534 : 
; 1535 : 		add_dynamic_force ("Right rotor force", command_line_dynamics_main_rotor_lift * right_rotor_force, 0.0, &position, &rotor_direction, FALSE);

  00ecc	6a 00		 push	 0
  00ece	8d 85 08 ff ff
	ff		 lea	 eax, DWORD PTR _rotor_direction$[ebp]
  00ed4	50		 push	 eax
  00ed5	8d 8d 20 ff ff
	ff		 lea	 ecx, DWORD PTR _position$[ebp]
  00edb	51		 push	 ecx
  00edc	51		 push	 ecx
  00edd	0f 57 c0	 xorps	 xmm0, xmm0
  00ee0	f3 0f 11 04 24	 movss	 DWORD PTR [esp], xmm0
  00ee5	f3 0f 10 05 00
	00 00 00	 movss	 xmm0, DWORD PTR ?command_line_dynamics_main_rotor_lift@@3MA
  00eed	f3 0f 59 45 84	 mulss	 xmm0, DWORD PTR _right_rotor_force$[ebp]
  00ef2	51		 push	 ecx
  00ef3	f3 0f 11 04 24	 movss	 DWORD PTR [esp], xmm0
  00ef8	68 00 00 00 00	 push	 OFFSET ??_C@_0BC@BCPABIID@Right?5rotor?5force@
  00efd	e8 00 00 00 00	 call	 ?add_dynamic_force@@YGXPBDMMPAUVEC3D@@1H@Z ; add_dynamic_force

; 1536 : 	}
; 1537 : 	////////////////////////////////////////////
; 1538 : 	// gravity
; 1539 : 	////////////////////////////////////////////
; 1540 : 	{
; 1541 : 
; 1542 : 		float
; 1543 : 			mass_percentage;
; 1544 : 
; 1545 : 		set_flight_dynamics_mass ();

  00f02	e8 00 00 00 00	 call	 ?set_flight_dynamics_mass@@YGMXZ ; set_flight_dynamics_mass
  00f07	dd d8		 fstp	 ST(0)

; 1546 : 
; 1547 : 		mass_percentage = current_flight_dynamics->mass.value;

  00f09	a1 00 00 00 00	 mov	 eax, DWORD PTR ?current_flight_dynamics@@3PAUDYNAMICS_TYPE@@A ; current_flight_dynamics
  00f0e	f3 0f 10 80 b4
	23 00 00	 movss	 xmm0, DWORD PTR [eax+9140]
  00f16	f3 0f 11 85 ec
	fe ff ff	 movss	 DWORD PTR _mass_percentage$55[ebp], xmm0

; 1548 : 		mass_percentage /= (current_flight_dynamics->mass.min + current_flight_dynamics->fuel_weight.max);

  00f1e	a1 00 00 00 00	 mov	 eax, DWORD PTR ?current_flight_dynamics@@3PAUDYNAMICS_TYPE@@A ; current_flight_dynamics
  00f23	8b 0d 00 00 00
	00		 mov	 ecx, DWORD PTR ?current_flight_dynamics@@3PAUDYNAMICS_TYPE@@A ; current_flight_dynamics
  00f29	f3 0f 10 80 bc
	23 00 00	 movss	 xmm0, DWORD PTR [eax+9148]
  00f31	f3 0f 58 81 b0
	24 00 00	 addss	 xmm0, DWORD PTR [ecx+9392]
  00f39	f3 0f 10 8d ec
	fe ff ff	 movss	 xmm1, DWORD PTR _mass_percentage$55[ebp]
  00f41	f3 0f 5e c8	 divss	 xmm1, xmm0
  00f45	f3 0f 11 8d ec
	fe ff ff	 movss	 DWORD PTR _mass_percentage$55[ebp], xmm1

; 1549 : 
; 1550 : 		force = G * mass_percentage;

  00f4d	f3 0f 10 05 00
	00 00 00	 movss	 xmm0, DWORD PTR __real@411cf5c3
  00f55	f3 0f 59 85 ec
	fe ff ff	 mulss	 xmm0, DWORD PTR _mass_percentage$55[ebp]
  00f5d	f3 0f 11 45 98	 movss	 DWORD PTR _force$[ebp], xmm0

; 1551 : 
; 1552 : 		position.x = current_flight_dynamics->centre_of_gravity.x;

  00f62	a1 00 00 00 00	 mov	 eax, DWORD PTR ?current_flight_dynamics@@3PAUDYNAMICS_TYPE@@A ; current_flight_dynamics
  00f67	f3 0f 10 80 24
	1c 00 00	 movss	 xmm0, DWORD PTR [eax+7204]
  00f6f	f3 0f 11 85 20
	ff ff ff	 movss	 DWORD PTR _position$[ebp], xmm0

; 1553 : 		position.y = current_flight_dynamics->centre_of_gravity.y;

  00f77	a1 00 00 00 00	 mov	 eax, DWORD PTR ?current_flight_dynamics@@3PAUDYNAMICS_TYPE@@A ; current_flight_dynamics
  00f7c	f3 0f 10 80 28
	1c 00 00	 movss	 xmm0, DWORD PTR [eax+7208]
  00f84	f3 0f 11 85 24
	ff ff ff	 movss	 DWORD PTR _position$[ebp+4], xmm0

; 1554 : 		position.z = current_flight_dynamics->centre_of_gravity.z;

  00f8c	a1 00 00 00 00	 mov	 eax, DWORD PTR ?current_flight_dynamics@@3PAUDYNAMICS_TYPE@@A ; current_flight_dynamics
  00f91	f3 0f 10 80 2c
	1c 00 00	 movss	 xmm0, DWORD PTR [eax+7212]
  00f99	f3 0f 11 85 28
	ff ff ff	 movss	 DWORD PTR _position$[ebp+8], xmm0

; 1555 : 
; 1556 : 		direction.x = 0.0;

  00fa1	0f 57 c0	 xorps	 xmm0, xmm0
  00fa4	f3 0f 11 85 14
	ff ff ff	 movss	 DWORD PTR _direction$[ebp], xmm0

; 1557 : 		direction.y = -1.0;

  00fac	f3 0f 10 05 00
	00 00 00	 movss	 xmm0, DWORD PTR __real@bf800000
  00fb4	f3 0f 11 85 18
	ff ff ff	 movss	 DWORD PTR _direction$[ebp+4], xmm0

; 1558 : 		direction.z = 0.0;

  00fbc	0f 57 c0	 xorps	 xmm0, xmm0
  00fbf	f3 0f 11 85 1c
	ff ff ff	 movss	 DWORD PTR _direction$[ebp+8], xmm0

; 1559 : 
; 1560 : 		multiply_transpose_matrix3x3_vec3d (&direction, attitude, &direction);

  00fc7	8d 85 14 ff ff
	ff		 lea	 eax, DWORD PTR _direction$[ebp]
  00fcd	50		 push	 eax
  00fce	8d 4d b4	 lea	 ecx, DWORD PTR _attitude$[ebp]
  00fd1	51		 push	 ecx
  00fd2	8d 95 14 ff ff
	ff		 lea	 edx, DWORD PTR _direction$[ebp]
  00fd8	52		 push	 edx
  00fd9	e8 00 00 00 00	 call	 ?multiply_transpose_matrix3x3_vec3d@@YGXPAUVEC3D@@QAY02$$CBMPBU1@@Z ; multiply_transpose_matrix3x3_vec3d

; 1561 : 
; 1562 : 		add_dynamic_force ("Gravity", force, 0.0, &position, &direction, FALSE);

  00fde	6a 00		 push	 0
  00fe0	8d 85 14 ff ff
	ff		 lea	 eax, DWORD PTR _direction$[ebp]
  00fe6	50		 push	 eax
  00fe7	8d 8d 20 ff ff
	ff		 lea	 ecx, DWORD PTR _position$[ebp]
  00fed	51		 push	 ecx
  00fee	51		 push	 ecx
  00fef	0f 57 c0	 xorps	 xmm0, xmm0
  00ff2	f3 0f 11 04 24	 movss	 DWORD PTR [esp], xmm0
  00ff7	51		 push	 ecx
  00ff8	f3 0f 10 45 98	 movss	 xmm0, DWORD PTR _force$[ebp]
  00ffd	f3 0f 11 04 24	 movss	 DWORD PTR [esp], xmm0
  01002	68 00 00 00 00	 push	 OFFSET ??_C@_07JMGDFJEK@Gravity@
  01007	e8 00 00 00 00	 call	 ?add_dynamic_force@@YGXPBDMMPAUVEC3D@@1H@Z ; add_dynamic_force

; 1563 : 	}
; 1564 : 	/////////////////////////////////////////////////////////////////////////////////////////////////////////////////////////////////
; 1565 : 	// Rotor Aerodynamic Analysis
; 1566 : 	/////////////////////////////////////////////////////////////////////////////////////////////////////////////////////////////////
; 1567 : 	{
; 1568 : 		vec3d
; 1569 : 			temp_model_motion_vector;
; 1570 : 
; 1571 : 		temp_model_motion_vector = current_flight_dynamics->model_motion_vector;

  0100c	a1 00 00 00 00	 mov	 eax, DWORD PTR ?current_flight_dynamics@@3PAUDYNAMICS_TYPE@@A ; current_flight_dynamics
  01011	05 30 1c 00 00	 add	 eax, 7216		; 00001c30H
  01016	8b 08		 mov	 ecx, DWORD PTR [eax]
  01018	89 8d e0 fe ff
	ff		 mov	 DWORD PTR _temp_model_motion_vector$54[ebp], ecx
  0101e	8b 50 04	 mov	 edx, DWORD PTR [eax+4]
  01021	89 95 e4 fe ff
	ff		 mov	 DWORD PTR _temp_model_motion_vector$54[ebp+4], edx
  01027	8b 40 08	 mov	 eax, DWORD PTR [eax+8]
  0102a	89 85 e8 fe ff
	ff		 mov	 DWORD PTR _temp_model_motion_vector$54[ebp+8], eax

; 1572 : 		temp_model_motion_vector.y = 0.0;

  01030	0f 57 c0	 xorps	 xmm0, xmm0
  01033	f3 0f 11 85 e4
	fe ff ff	 movss	 DWORD PTR _temp_model_motion_vector$54[ebp+4], xmm0

; 1573 : 		horizontal_velocity = (get_3d_vector_magnitude (&temp_model_motion_vector));

  0103b	8d 85 e0 fe ff
	ff		 lea	 eax, DWORD PTR _temp_model_motion_vector$54[ebp]
  01041	50		 push	 eax
  01042	e8 00 00 00 00	 call	 ?get_3d_vector_magnitude@@YGMPBUVEC3D@@@Z ; get_3d_vector_magnitude
  01047	d9 9d 48 ff ff
	ff		 fstp	 DWORD PTR _horizontal_velocity$[ebp]

; 1574 : 	}
; 1575 : 	////////////////////////////////////////////
; 1576 : 	// Transitional Lift generated by 'Wing' effect
; 1577 : 	////////////////////////////////////////////
; 1578 : 	//if ((!model_landed) &&
; 1579 : 	if ((get_current_dynamics_options (DYNAMICS_OPTIONS_TRANSITIONAL_LIFT)) &&

  0104d	6a 0a		 push	 10			; 0000000aH
  0104f	e8 00 00 00 00	 call	 ?get_current_dynamics_options@@YGHW4DYNAMICS_OPTIONS_TYPES@@@Z ; get_current_dynamics_options
  01054	85 c0		 test	 eax, eax
  01056	0f 84 f2 04 00
	00		 je	 $LN8@update_att
  0105c	a1 00 00 00 00	 mov	 eax, DWORD PTR ?current_flight_dynamics@@3PAUDYNAMICS_TYPE@@A ; current_flight_dynamics
  01061	8b 88 24 25 00
	00		 mov	 ecx, DWORD PTR [eax+9508]
  01067	83 e1 02	 and	 ecx, 2
  0106a	0f 85 de 04 00
	00		 jne	 $LN8@update_att

; 1580 : 		(!(current_flight_dynamics->dynamics_damage & DYNAMICS_DAMAGE_MAIN_ROTOR)))
; 1581 : 	{
; 1582 : 
; 1583 : 		vec3d
; 1584 : 			wind,
; 1585 : 			position,
; 1586 : 			normalised_model_motion_vector;
; 1587 : 
; 1588 : 		float
; 1589 : 			force,
; 1590 : 			vel;
; 1591 : 
; 1592 : 		normalised_model_motion_vector = model_motion_vector;

  01070	8b 85 f0 fe ff
	ff		 mov	 eax, DWORD PTR _model_motion_vector$[ebp]
  01076	89 85 bc fe ff
	ff		 mov	 DWORD PTR _normalised_model_motion_vector$51[ebp], eax
  0107c	8b 8d f4 fe ff
	ff		 mov	 ecx, DWORD PTR _model_motion_vector$[ebp+4]
  01082	89 8d c0 fe ff
	ff		 mov	 DWORD PTR _normalised_model_motion_vector$51[ebp+4], ecx
  01088	8b 95 f8 fe ff
	ff		 mov	 edx, DWORD PTR _model_motion_vector$[ebp+8]
  0108e	89 95 c4 fe ff
	ff		 mov	 DWORD PTR _normalised_model_motion_vector$51[ebp+8], edx

; 1593 : 
; 1594 : 		position.x = current_flight_dynamics->position.x;

  01094	a1 00 00 00 00	 mov	 eax, DWORD PTR ?current_flight_dynamics@@3PAUDYNAMICS_TYPE@@A ; current_flight_dynamics
  01099	f2 0f 5a 80 ac
	00 00 00	 cvtsd2ss xmm0, QWORD PTR [eax+172]
  010a1	f3 0f 11 85 c8
	fe ff ff	 movss	 DWORD PTR _position$52[ebp], xmm0

; 1595 : 		position.y = current_flight_dynamics->position.y;

  010a9	a1 00 00 00 00	 mov	 eax, DWORD PTR ?current_flight_dynamics@@3PAUDYNAMICS_TYPE@@A ; current_flight_dynamics
  010ae	f2 0f 5a 80 b4
	00 00 00	 cvtsd2ss xmm0, QWORD PTR [eax+180]
  010b6	f3 0f 11 85 cc
	fe ff ff	 movss	 DWORD PTR _position$52[ebp+4], xmm0

; 1596 : 		position.z = current_flight_dynamics->position.z;

  010be	a1 00 00 00 00	 mov	 eax, DWORD PTR ?current_flight_dynamics@@3PAUDYNAMICS_TYPE@@A ; current_flight_dynamics
  010c3	f2 0f 5a 80 bc
	00 00 00	 cvtsd2ss xmm0, QWORD PTR [eax+188]
  010cb	f3 0f 11 85 d0
	fe ff ff	 movss	 DWORD PTR _position$52[ebp+8], xmm0

; 1597 : 
; 1598 : 		if (get_current_dynamics_options (DYNAMICS_OPTIONS_WIND))

  010d3	6a 0c		 push	 12			; 0000000cH
  010d5	e8 00 00 00 00	 call	 ?get_current_dynamics_options@@YGHW4DYNAMICS_OPTIONS_TYPES@@@Z ; get_current_dynamics_options
  010da	85 c0		 test	 eax, eax
  010dc	74 7d		 je	 SHORT $LN9@update_att

; 1599 : 		{
; 1600 : 
; 1601 : 			get_session_wind_velocity_at_point (&position, &wind);

  010de	8d 85 d4 fe ff
	ff		 lea	 eax, DWORD PTR _wind$53[ebp]
  010e4	50		 push	 eax
  010e5	8d 8d c8 fe ff
	ff		 lea	 ecx, DWORD PTR _position$52[ebp]
  010eb	51		 push	 ecx
  010ec	e8 00 00 00 00	 call	 ?get_session_wind_velocity_at_point@@YGMPAUVEC3D@@0@Z ; get_session_wind_velocity_at_point
  010f1	dd d8		 fstp	 ST(0)

; 1602 : 
; 1603 : 			multiply_transpose_matrix3x3_vec3d (&wind, current_flight_dynamics->attitude, &wind);

  010f3	8d 85 d4 fe ff
	ff		 lea	 eax, DWORD PTR _wind$53[ebp]
  010f9	50		 push	 eax
  010fa	8b 0d 00 00 00
	00		 mov	 ecx, DWORD PTR ?current_flight_dynamics@@3PAUDYNAMICS_TYPE@@A ; current_flight_dynamics
  01100	81 c1 d0 00 00
	00		 add	 ecx, 208		; 000000d0H
  01106	51		 push	 ecx
  01107	8d 95 d4 fe ff
	ff		 lea	 edx, DWORD PTR _wind$53[ebp]
  0110d	52		 push	 edx
  0110e	e8 00 00 00 00	 call	 ?multiply_transpose_matrix3x3_vec3d@@YGXPAUVEC3D@@QAY02$$CBMPBU1@@Z ; multiply_transpose_matrix3x3_vec3d

; 1604 : 
; 1605 : 			normalised_model_motion_vector.x -= wind.x;

  01113	f3 0f 10 85 bc
	fe ff ff	 movss	 xmm0, DWORD PTR _normalised_model_motion_vector$51[ebp]
  0111b	f3 0f 5c 85 d4
	fe ff ff	 subss	 xmm0, DWORD PTR _wind$53[ebp]
  01123	f3 0f 11 85 bc
	fe ff ff	 movss	 DWORD PTR _normalised_model_motion_vector$51[ebp], xmm0

; 1606 : 			normalised_model_motion_vector.y -= wind.y;

  0112b	f3 0f 10 85 c0
	fe ff ff	 movss	 xmm0, DWORD PTR _normalised_model_motion_vector$51[ebp+4]
  01133	f3 0f 5c 85 d8
	fe ff ff	 subss	 xmm0, DWORD PTR _wind$53[ebp+4]
  0113b	f3 0f 11 85 c0
	fe ff ff	 movss	 DWORD PTR _normalised_model_motion_vector$51[ebp+4], xmm0

; 1607 : 			normalised_model_motion_vector.z -= wind.z;

  01143	f3 0f 10 85 c4
	fe ff ff	 movss	 xmm0, DWORD PTR _normalised_model_motion_vector$51[ebp+8]
  0114b	f3 0f 5c 85 dc
	fe ff ff	 subss	 xmm0, DWORD PTR _wind$53[ebp+8]
  01153	f3 0f 11 85 c4
	fe ff ff	 movss	 DWORD PTR _normalised_model_motion_vector$51[ebp+8], xmm0
$LN9@update_att:

; 1608 : 		}
; 1609 : 
; 1610 : 		normalised_model_motion_vector.y = 0.0;

  0115b	0f 57 c0	 xorps	 xmm0, xmm0
  0115e	f3 0f 11 85 c0
	fe ff ff	 movss	 DWORD PTR _normalised_model_motion_vector$51[ebp+4], xmm0

; 1611 : 
; 1612 : 		vel = normalise_any_3d_vector (&normalised_model_motion_vector);

  01166	8d 85 bc fe ff
	ff		 lea	 eax, DWORD PTR _normalised_model_motion_vector$51[ebp]
  0116c	50		 push	 eax
  0116d	e8 00 00 00 00	 call	 ?normalise_any_3d_vector@@YGMPAUVEC3D@@@Z ; normalise_any_3d_vector
  01172	d9 9d b4 fe ff
	ff		 fstp	 DWORD PTR _vel$49[ebp]

; 1613 : 
; 1614 : 		// * 3 because induced air at normal is 9 and max is about 26... needs to scale 0.0 -> 1.0
; 1615 : 		vel *= min (fabs ((3.0 * current_flight_dynamics->main_rotor_induced_air.value) / (current_flight_dynamics->main_rotor_induced_air.max - current_flight_dynamics->main_rotor_induced_air.min)), 1.0);

  01178	f2 0f 10 05 00
	00 00 00	 movsd	 xmm0, QWORD PTR __real@3ff0000000000000
  01180	f2 0f 11 85 74
	fd ff ff	 movsd	 QWORD PTR $T22[ebp], xmm0
  01188	a1 00 00 00 00	 mov	 eax, DWORD PTR ?current_flight_dynamics@@3PAUDYNAMICS_TYPE@@A ; current_flight_dynamics
  0118d	f3 0f 5a 80 6c
	1d 00 00	 cvtss2sd xmm0, DWORD PTR [eax+7532]
  01195	f2 0f 59 05 00
	00 00 00	 mulsd	 xmm0, QWORD PTR __real@4008000000000000
  0119d	8b 0d 00 00 00
	00		 mov	 ecx, DWORD PTR ?current_flight_dynamics@@3PAUDYNAMICS_TYPE@@A ; current_flight_dynamics
  011a3	8b 15 00 00 00
	00		 mov	 edx, DWORD PTR ?current_flight_dynamics@@3PAUDYNAMICS_TYPE@@A ; current_flight_dynamics
  011a9	f3 0f 10 89 78
	1d 00 00	 movss	 xmm1, DWORD PTR [ecx+7544]
  011b1	f3 0f 5c 8a 74
	1d 00 00	 subss	 xmm1, DWORD PTR [edx+7540]
  011b9	f3 0f 5a c9	 cvtss2sd xmm1, xmm1
  011bd	f2 0f 5e c1	 divsd	 xmm0, xmm1
  011c1	83 ec 08	 sub	 esp, 8
  011c4	f2 0f 11 04 24	 movsd	 QWORD PTR [esp], xmm0
  011c9	e8 00 00 00 00	 call	 _fabs
  011ce	83 c4 08	 add	 esp, 8
  011d1	dd 9d 6c fd ff
	ff		 fstp	 QWORD PTR $T21[ebp]
  011d7	8d 85 74 fd ff
	ff		 lea	 eax, DWORD PTR $T22[ebp]
  011dd	50		 push	 eax
  011de	8d 8d 6c fd ff
	ff		 lea	 ecx, DWORD PTR $T21[ebp]
  011e4	51		 push	 ecx
  011e5	e8 00 00 00 00	 call	 ??$min@N@std@@YGABNABN0@Z ; std::min<double>
  011ea	f3 0f 5a 85 b4
	fe ff ff	 cvtss2sd xmm0, DWORD PTR _vel$49[ebp]
  011f2	f2 0f 59 00	 mulsd	 xmm0, QWORD PTR [eax]
  011f6	f2 0f 5a c0	 cvtsd2ss xmm0, xmm0
  011fa	f3 0f 11 85 b4
	fe ff ff	 movss	 DWORD PTR _vel$49[ebp], xmm0

; 1616 : 
; 1617 : 		if (vel >= current_flight_dynamics->translational_lift.min)

  01202	a1 00 00 00 00	 mov	 eax, DWORD PTR ?current_flight_dynamics@@3PAUDYNAMICS_TYPE@@A ; current_flight_dynamics
  01207	f3 0f 10 85 b4
	fe ff ff	 movss	 xmm0, DWORD PTR _vel$49[ebp]
  0120f	0f 2f 80 c4 21
	00 00		 comiss	 xmm0, DWORD PTR [eax+8644]
  01216	0f 82 57 01 00
	00		 jb	 $LN10@update_att

; 1618 : 		{
; 1619 : 
; 1620 : 			if (vel <= current_flight_dynamics->translational_lift.max)

  0121c	a1 00 00 00 00	 mov	 eax, DWORD PTR ?current_flight_dynamics@@3PAUDYNAMICS_TYPE@@A ; current_flight_dynamics
  01221	f3 0f 10 80 c8
	21 00 00	 movss	 xmm0, DWORD PTR [eax+8648]
  01229	0f 2f 85 b4 fe
	ff ff		 comiss	 xmm0, DWORD PTR _vel$49[ebp]
  01230	72 4c		 jb	 SHORT $LN11@update_att

; 1621 : 			{
; 1622 : 
; 1623 : 				force = (current_flight_dynamics->translational_lift.value * (vel - current_flight_dynamics->translational_lift.min)) / (current_flight_dynamics->translational_lift.max - current_flight_dynamics->translational_lift.min);

  01232	a1 00 00 00 00	 mov	 eax, DWORD PTR ?current_flight_dynamics@@3PAUDYNAMICS_TYPE@@A ; current_flight_dynamics
  01237	f3 0f 10 85 b4
	fe ff ff	 movss	 xmm0, DWORD PTR _vel$49[ebp]
  0123f	f3 0f 5c 80 c4
	21 00 00	 subss	 xmm0, DWORD PTR [eax+8644]
  01247	8b 0d 00 00 00
	00		 mov	 ecx, DWORD PTR ?current_flight_dynamics@@3PAUDYNAMICS_TYPE@@A ; current_flight_dynamics
  0124d	f3 0f 59 81 bc
	21 00 00	 mulss	 xmm0, DWORD PTR [ecx+8636]
  01255	8b 15 00 00 00
	00		 mov	 edx, DWORD PTR ?current_flight_dynamics@@3PAUDYNAMICS_TYPE@@A ; current_flight_dynamics
  0125b	a1 00 00 00 00	 mov	 eax, DWORD PTR ?current_flight_dynamics@@3PAUDYNAMICS_TYPE@@A ; current_flight_dynamics
  01260	f3 0f 10 8a c8
	21 00 00	 movss	 xmm1, DWORD PTR [edx+8648]
  01268	f3 0f 5c 88 c4
	21 00 00	 subss	 xmm1, DWORD PTR [eax+8644]
  01270	f3 0f 5e c1	 divss	 xmm0, xmm1
  01274	f3 0f 11 85 b8
	fe ff ff	 movss	 DWORD PTR _force$50[ebp], xmm0

; 1624 : 			}
; 1625 : 			else

  0127c	eb 15		 jmp	 SHORT $LN12@update_att
$LN11@update_att:

; 1626 : 			{
; 1627 : 
; 1628 : 				force = current_flight_dynamics->translational_lift.value;

  0127e	a1 00 00 00 00	 mov	 eax, DWORD PTR ?current_flight_dynamics@@3PAUDYNAMICS_TYPE@@A ; current_flight_dynamics
  01283	f3 0f 10 80 bc
	21 00 00	 movss	 xmm0, DWORD PTR [eax+8636]
  0128b	f3 0f 11 85 b8
	fe ff ff	 movss	 DWORD PTR _force$50[ebp], xmm0
$LN12@update_att:

; 1629 : 			}
; 1630 : 
; 1631 : 			position.x = (current_flight_dynamics->translational_lift.modifier * current_flight_dynamics->main_rotor_diameter.value / 2.0) * normalised_model_motion_vector.x;

  01293	a1 00 00 00 00	 mov	 eax, DWORD PTR ?current_flight_dynamics@@3PAUDYNAMICS_TYPE@@A ; current_flight_dynamics
  01298	8b 0d 00 00 00
	00		 mov	 ecx, DWORD PTR ?current_flight_dynamics@@3PAUDYNAMICS_TYPE@@A ; current_flight_dynamics
  0129e	f3 0f 10 80 b8
	21 00 00	 movss	 xmm0, DWORD PTR [eax+8632]
  012a6	f3 0f 59 81 9c
	1d 00 00	 mulss	 xmm0, DWORD PTR [ecx+7580]
  012ae	f3 0f 5a c0	 cvtss2sd xmm0, xmm0
  012b2	f2 0f 5e 05 00
	00 00 00	 divsd	 xmm0, QWORD PTR __real@4000000000000000
  012ba	f3 0f 5a 8d bc
	fe ff ff	 cvtss2sd xmm1, DWORD PTR _normalised_model_motion_vector$51[ebp]
  012c2	f2 0f 59 c1	 mulsd	 xmm0, xmm1
  012c6	f2 0f 5a c0	 cvtsd2ss xmm0, xmm0
  012ca	f3 0f 11 85 c8
	fe ff ff	 movss	 DWORD PTR _position$52[ebp], xmm0

; 1632 : 			position.y = 0.0;

  012d2	0f 57 c0	 xorps	 xmm0, xmm0
  012d5	f3 0f 11 85 cc
	fe ff ff	 movss	 DWORD PTR _position$52[ebp+4], xmm0

; 1633 : 			position.z = (current_flight_dynamics->translational_lift.modifier * current_flight_dynamics->main_rotor_diameter.value / 2.0) * normalised_model_motion_vector.z;

  012dd	a1 00 00 00 00	 mov	 eax, DWORD PTR ?current_flight_dynamics@@3PAUDYNAMICS_TYPE@@A ; current_flight_dynamics
  012e2	8b 0d 00 00 00
	00		 mov	 ecx, DWORD PTR ?current_flight_dynamics@@3PAUDYNAMICS_TYPE@@A ; current_flight_dynamics
  012e8	f3 0f 10 80 b8
	21 00 00	 movss	 xmm0, DWORD PTR [eax+8632]
  012f0	f3 0f 59 81 9c
	1d 00 00	 mulss	 xmm0, DWORD PTR [ecx+7580]
  012f8	f3 0f 5a c0	 cvtss2sd xmm0, xmm0
  012fc	f2 0f 5e 05 00
	00 00 00	 divsd	 xmm0, QWORD PTR __real@4000000000000000
  01304	f3 0f 5a 8d c4
	fe ff ff	 cvtss2sd xmm1, DWORD PTR _normalised_model_motion_vector$51[ebp+8]
  0130c	f2 0f 59 c1	 mulsd	 xmm0, xmm1
  01310	f2 0f 5a c0	 cvtsd2ss xmm0, xmm0
  01314	f3 0f 11 85 d0
	fe ff ff	 movss	 DWORD PTR _position$52[ebp+8], xmm0

; 1634 : 
; 1635 : 			direction.x = 0.0;

  0131c	0f 57 c0	 xorps	 xmm0, xmm0
  0131f	f3 0f 11 85 14
	ff ff ff	 movss	 DWORD PTR _direction$[ebp], xmm0

; 1636 : 			direction.y = 1.0;

  01327	f3 0f 10 05 00
	00 00 00	 movss	 xmm0, DWORD PTR __real@3f800000
  0132f	f3 0f 11 85 18
	ff ff ff	 movss	 DWORD PTR _direction$[ebp+4], xmm0

; 1637 : 			direction.z = 0.0;

  01337	0f 57 c0	 xorps	 xmm0, xmm0
  0133a	f3 0f 11 85 1c
	ff ff ff	 movss	 DWORD PTR _direction$[ebp+8], xmm0

; 1638 : 
; 1639 : 			add_dynamic_force ("Transitional lift", force, 0.0, &position, &direction, FALSE);

  01342	6a 00		 push	 0
  01344	8d 85 14 ff ff
	ff		 lea	 eax, DWORD PTR _direction$[ebp]
  0134a	50		 push	 eax
  0134b	8d 8d c8 fe ff
	ff		 lea	 ecx, DWORD PTR _position$52[ebp]
  01351	51		 push	 ecx
  01352	51		 push	 ecx
  01353	0f 57 c0	 xorps	 xmm0, xmm0
  01356	f3 0f 11 04 24	 movss	 DWORD PTR [esp], xmm0
  0135b	51		 push	 ecx
  0135c	f3 0f 10 85 b8
	fe ff ff	 movss	 xmm0, DWORD PTR _force$50[ebp]
  01364	f3 0f 11 04 24	 movss	 DWORD PTR [esp], xmm0
  01369	68 00 00 00 00	 push	 OFFSET ??_C@_0BC@GCGACPAK@Transitional?5lift@
  0136e	e8 00 00 00 00	 call	 ?add_dynamic_force@@YGXPBDMMPAUVEC3D@@1H@Z ; add_dynamic_force
$LN10@update_att:

; 1640 : /*
; 1641 : 			// debug
; 1642 : 			{
; 1643 : 				multiply_matrix3x3_vec3d (&position, current_flight_dynamics->attitude, &position);
; 1644 : 
; 1645 : 				multiply_matrix3x3_vec3d (&direction, current_flight_dynamics->attitude, &direction);
; 1646 : 
; 1647 : 				position.x += current_flight_dynamics->position.x;
; 1648 : 				position.y += current_flight_dynamics->position.y;
; 1649 : 				position.z += current_flight_dynamics->position.z;
; 1650 : 
; 1651 : 				create_vectored_debug_3d_object (&position, &direction, OBJECT_3D_ARROW_FORCES, 0, 10.0);
; 1652 : 			}
; 1653 : 			// debug
; 1654 : 			*/
; 1655 : 		}
; 1656 : 		{
; 1657 : 			float
; 1658 : 				motion_vector_pitch;
; 1659 : 
; 1660 : 			vec3d
; 1661 : 				normalised_world_motion_vector;
; 1662 : 
; 1663 : 			normalised_world_motion_vector = world_motion_vector;

  01373	8b 85 fc fe ff
	ff		 mov	 eax, DWORD PTR _world_motion_vector$[ebp]
  01379	89 85 a4 fe ff
	ff		 mov	 DWORD PTR _normalised_world_motion_vector$47[ebp], eax
  0137f	8b 8d 00 ff ff
	ff		 mov	 ecx, DWORD PTR _world_motion_vector$[ebp+4]
  01385	89 8d a8 fe ff
	ff		 mov	 DWORD PTR _normalised_world_motion_vector$47[ebp+4], ecx
  0138b	8b 95 04 ff ff
	ff		 mov	 edx, DWORD PTR _world_motion_vector$[ebp+8]
  01391	89 95 ac fe ff
	ff		 mov	 DWORD PTR _normalised_world_motion_vector$47[ebp+8], edx

; 1664 : 			normalise_any_3d_vector (&normalised_world_motion_vector);

  01397	8d 85 a4 fe ff
	ff		 lea	 eax, DWORD PTR _normalised_world_motion_vector$47[ebp]
  0139d	50		 push	 eax
  0139e	e8 00 00 00 00	 call	 ?normalise_any_3d_vector@@YGMPAUVEC3D@@@Z ; normalise_any_3d_vector
  013a3	dd d8		 fstp	 ST(0)

; 1665 : 
; 1666 : 			motion_vector_pitch = asin (normalised_world_motion_vector.y) - aircraft_database [current_flight_dynamics->sub_type].main_rotor_shaft_angle;

  013a5	51		 push	 ecx
  013a6	f3 0f 10 85 a8
	fe ff ff	 movss	 xmm0, DWORD PTR _normalised_world_motion_vector$47[ebp+4]
  013ae	f3 0f 11 04 24	 movss	 DWORD PTR [esp], xmm0
  013b3	e8 00 00 00 00	 call	 ?asin@@YGMM@Z		; asin
  013b8	d9 9d 00 fd ff
	ff		 fstp	 DWORD PTR tv2587[ebp]
  013be	f3 0f 10 85 00
	fd ff ff	 movss	 xmm0, DWORD PTR tv2587[ebp]
  013c6	a1 00 00 00 00	 mov	 eax, DWORD PTR ?current_flight_dynamics@@3PAUDYNAMICS_TYPE@@A ; current_flight_dynamics
  013cb	69 48 04 f4 00
	00 00		 imul	 ecx, DWORD PTR [eax+4], 244
  013d2	f3 0f 5c 81 88
	00 00 00	 subss	 xmm0, DWORD PTR ?aircraft_database@@3PAUAIRCRAFT_DATA@@A[ecx+136]
  013da	f3 0f 11 85 b0
	fe ff ff	 movss	 DWORD PTR _motion_vector_pitch$48[ebp], xmm0

; 1667 : 
; 1668 : 			if (current_flight_dynamics->model_motion_vector.z < 0.0)

  013e2	a1 00 00 00 00	 mov	 eax, DWORD PTR ?current_flight_dynamics@@3PAUDYNAMICS_TYPE@@A ; current_flight_dynamics
  013e7	f3 0f 5a 80 38
	1c 00 00	 cvtss2sd xmm0, DWORD PTR [eax+7224]
  013ef	0f 57 c9	 xorps	 xmm1, xmm1
  013f2	66 0f 2f c8	 comisd	 xmm1, xmm0
  013f6	76 1c		 jbe	 SHORT $LN13@update_att

; 1669 : 				pitch_value *= -1.0;

  013f8	f3 0f 5a 85 58
	ff ff ff	 cvtss2sd xmm0, DWORD PTR _pitch_value$[ebp]
  01400	f2 0f 59 05 00
	00 00 00	 mulsd	 xmm0, QWORD PTR __real@bff0000000000000
  01408	f2 0f 5a c0	 cvtsd2ss xmm0, xmm0
  0140c	f3 0f 11 85 58
	ff ff ff	 movss	 DWORD PTR _pitch_value$[ebp], xmm0
$LN13@update_att:

; 1670 : 
; 1671 : 			force = horizontal_velocity *

  01414	f3 0f 10 85 58
	ff ff ff	 movss	 xmm0, DWORD PTR _pitch_value$[ebp]
  0141c	f3 0f 58 85 74
	ff ff ff	 addss	 xmm0, DWORD PTR _main_rotor_pitch_angle_value$[ebp]
  01424	f3 0f 5c 85 b0
	fe ff ff	 subss	 xmm0, DWORD PTR _motion_vector_pitch$48[ebp]
  0142c	f3 0f 59 85 48
	ff ff ff	 mulss	 xmm0, DWORD PTR _horizontal_velocity$[ebp]
  01434	f3 0f 11 85 b8
	fe ff ff	 movss	 DWORD PTR _force$50[ebp], xmm0

; 1672 : 						((pitch_value +
; 1673 : 						main_rotor_pitch_angle_value) -
; 1674 : 						motion_vector_pitch);
; 1675 : 
; 1676 : 			force = max (force, 0.0f);

  0143c	0f 57 c0	 xorps	 xmm0, xmm0
  0143f	f3 0f 11 85 68
	fd ff ff	 movss	 DWORD PTR $T20[ebp], xmm0
  01447	8d 85 68 fd ff
	ff		 lea	 eax, DWORD PTR $T20[ebp]
  0144d	50		 push	 eax
  0144e	8d 8d b8 fe ff
	ff		 lea	 ecx, DWORD PTR _force$50[ebp]
  01454	51		 push	 ecx
  01455	e8 00 00 00 00	 call	 ??$max@M@std@@YGABMABM0@Z ; std::max<float>
  0145a	f3 0f 10 00	 movss	 xmm0, DWORD PTR [eax]
  0145e	f3 0f 11 85 b8
	fe ff ff	 movss	 DWORD PTR _force$50[ebp], xmm0

; 1677 : 
; 1678 : 			position.x = -0.4 * sin (main_blade_x_pitch_value);

  01466	51		 push	 ecx
  01467	f3 0f 10 85 54
	ff ff ff	 movss	 xmm0, DWORD PTR _main_blade_x_pitch_value$[ebp]
  0146f	f3 0f 11 04 24	 movss	 DWORD PTR [esp], xmm0
  01474	e8 00 00 00 00	 call	 ?sin@@YGMM@Z		; sin
  01479	dd 9d fc fc ff
	ff		 fstp	 QWORD PTR tv2636[ebp]
  0147f	f2 0f 10 85 fc
	fc ff ff	 movsd	 xmm0, QWORD PTR tv2636[ebp]
  01487	f2 0f 59 05 00
	00 00 00	 mulsd	 xmm0, QWORD PTR __real@bfd999999999999a
  0148f	f2 0f 5a c0	 cvtsd2ss xmm0, xmm0
  01493	f3 0f 11 85 c8
	fe ff ff	 movss	 DWORD PTR _position$52[ebp], xmm0

; 1679 : 			position.y = 0.0;

  0149b	0f 57 c0	 xorps	 xmm0, xmm0
  0149e	f3 0f 11 85 cc
	fe ff ff	 movss	 DWORD PTR _position$52[ebp+4], xmm0

; 1680 : 			position.z = 0.4 * sin (main_blade_y_pitch_value);

  014a6	51		 push	 ecx
  014a7	f3 0f 10 85 50
	ff ff ff	 movss	 xmm0, DWORD PTR _main_blade_y_pitch_value$[ebp]
  014af	f3 0f 11 04 24	 movss	 DWORD PTR [esp], xmm0
  014b4	e8 00 00 00 00	 call	 ?sin@@YGMM@Z		; sin
  014b9	dd 9d fc fc ff
	ff		 fstp	 QWORD PTR tv2645[ebp]
  014bf	f2 0f 10 85 fc
	fc ff ff	 movsd	 xmm0, QWORD PTR tv2645[ebp]
  014c7	f2 0f 59 05 00
	00 00 00	 mulsd	 xmm0, QWORD PTR __real@3fd999999999999a
  014cf	f2 0f 5a c0	 cvtsd2ss xmm0, xmm0
  014d3	f3 0f 11 85 d0
	fe ff ff	 movss	 DWORD PTR _position$52[ebp+8], xmm0

; 1681 : 
; 1682 : 			direction.x = 0.0;

  014db	0f 57 c0	 xorps	 xmm0, xmm0
  014de	f3 0f 11 85 14
	ff ff ff	 movss	 DWORD PTR _direction$[ebp], xmm0

; 1683 : 			direction.y = 1.0;

  014e6	f3 0f 10 05 00
	00 00 00	 movss	 xmm0, DWORD PTR __real@3f800000
  014ee	f3 0f 11 85 18
	ff ff ff	 movss	 DWORD PTR _direction$[ebp+4], xmm0

; 1684 : 			direction.z = 0.0;

  014f6	0f 57 c0	 xorps	 xmm0, xmm0
  014f9	f3 0f 11 85 1c
	ff ff ff	 movss	 DWORD PTR _direction$[ebp+8], xmm0

; 1685 : 
; 1686 : 			// arneh - this force seems too strong, impossible to decend faster than
; 1687 : 			// about 7-8 m/s by default with forward speed. So reduce it a little
; 1688 : 			force *= 0.9;

  01501	f3 0f 5a 85 b8
	fe ff ff	 cvtss2sd xmm0, DWORD PTR _force$50[ebp]
  01509	f2 0f 59 05 00
	00 00 00	 mulsd	 xmm0, QWORD PTR __real@3feccccccccccccd
  01511	f2 0f 5a c0	 cvtsd2ss xmm0, xmm0
  01515	f3 0f 11 85 b8
	fe ff ff	 movss	 DWORD PTR _force$50[ebp], xmm0

; 1689 : 			add_dynamic_force ("Transitional lift", force, 0.0, &position, &direction, FALSE);

  0151d	6a 00		 push	 0
  0151f	8d 85 14 ff ff
	ff		 lea	 eax, DWORD PTR _direction$[ebp]
  01525	50		 push	 eax
  01526	8d 8d c8 fe ff
	ff		 lea	 ecx, DWORD PTR _position$52[ebp]
  0152c	51		 push	 ecx
  0152d	51		 push	 ecx
  0152e	0f 57 c0	 xorps	 xmm0, xmm0
  01531	f3 0f 11 04 24	 movss	 DWORD PTR [esp], xmm0
  01536	51		 push	 ecx
  01537	f3 0f 10 85 b8
	fe ff ff	 movss	 xmm0, DWORD PTR _force$50[ebp]
  0153f	f3 0f 11 04 24	 movss	 DWORD PTR [esp], xmm0
  01544	68 00 00 00 00	 push	 OFFSET ??_C@_0BC@GCGACPAK@Transitional?5lift@
  01549	e8 00 00 00 00	 call	 ?add_dynamic_force@@YGXPBDMMPAUVEC3D@@1H@Z ; add_dynamic_force
$LN8@update_att:

; 1690 : 		}
; 1691 : 	}
; 1692 : 
; 1693 : 	/////////////////////////////////////////////////////////////////////////////////////////////////////////////////////////////////
; 1694 : 	// Secondary effects
; 1695 : 	/////////////////////////////////////////////////////////////////////////////////////////////////////////////////////////////////
; 1696 : 	////////////////////////////////////////////
; 1697 : 	// Advancing Blade Sonic Buildup effect
; 1698 : 	////////////////////////////////////////////
; 1699 : 	if (!(current_flight_dynamics->dynamics_damage & DYNAMICS_DAMAGE_MAIN_ROTOR))

  0154e	a1 00 00 00 00	 mov	 eax, DWORD PTR ?current_flight_dynamics@@3PAUDYNAMICS_TYPE@@A ; current_flight_dynamics
  01553	8b 88 24 25 00
	00		 mov	 ecx, DWORD PTR [eax+9508]
  01559	83 e1 02	 and	 ecx, 2
  0155c	0f 85 99 02 00
	00		 jne	 $LN14@update_att

; 1700 : 	{
; 1701 : 
; 1702 : 		// 0.2 defines the buildup
; 1703 : 		force = sfrand1 () * exp (0.2 * (velocity_z_value - current_flight_dynamics->velocity_z.max));

  01562	69 05 00 00 00
	00 6d 4e c6 41	 imul	 eax, DWORD PTR ?random_number_seed@@3HA, 1103515245 ; random_number_seed
  0156c	05 39 30 00 00	 add	 eax, 12345		; 00003039H
  01571	a3 00 00 00 00	 mov	 DWORD PTR ?random_number_seed@@3HA, eax ; random_number_seed
  01576	8b 0d 00 00 00
	00		 mov	 ecx, DWORD PTR ?random_number_seed@@3HA ; random_number_seed
  0157c	c1 f9 10	 sar	 ecx, 16			; 00000010H
  0157f	81 e1 ff 7f 00
	00		 and	 ecx, 32767		; 00007fffH
  01585	81 e9 00 40 00
	00		 sub	 ecx, 16384		; 00004000H
  0158b	f2 0f 2a c1	 cvtsi2sd xmm0, ecx
  0158f	f2 0f 59 05 00
	00 00 00	 mulsd	 xmm0, QWORD PTR __real@3f10000000000000
  01597	8b 15 00 00 00
	00		 mov	 edx, DWORD PTR ?current_flight_dynamics@@3PAUDYNAMICS_TYPE@@A ; current_flight_dynamics
  0159d	f3 0f 10 8d 4c
	ff ff ff	 movss	 xmm1, DWORD PTR _velocity_z_value$[ebp]
  015a5	f3 0f 5c 8a a8
	20 00 00	 subss	 xmm1, DWORD PTR [edx+8360]
  015ad	f3 0f 5a c9	 cvtss2sd xmm1, xmm1
  015b1	f2 0f 59 0d 00
	00 00 00	 mulsd	 xmm1, QWORD PTR __real@3fc999999999999a
  015b9	83 ec 08	 sub	 esp, 8
  015bc	f2 0f 11 0c 24	 movsd	 QWORD PTR [esp], xmm1
  015c1	f2 0f 11 85 fc
	fc ff ff	 movsd	 QWORD PTR tv3527[ebp], xmm0
  015c9	e8 00 00 00 00	 call	 _exp
  015ce	83 c4 08	 add	 esp, 8
  015d1	dd 9d f4 fc ff
	ff		 fstp	 QWORD PTR tv2666[ebp]
  015d7	f2 0f 10 85 fc
	fc ff ff	 movsd	 xmm0, QWORD PTR tv3527[ebp]
  015df	f2 0f 59 85 f4
	fc ff ff	 mulsd	 xmm0, QWORD PTR tv2666[ebp]
  015e7	f2 0f 5a c0	 cvtsd2ss xmm0, xmm0
  015eb	f3 0f 11 45 98	 movss	 DWORD PTR _force$[ebp], xmm0

; 1704 : 
; 1705 : 		// scale on blade pitch.
; 1706 : 		force *= ((current_flight_dynamics->main_blade_pitch.value - current_flight_dynamics->main_blade_pitch.min) / (current_flight_dynamics->main_blade_pitch.max - current_flight_dynamics->main_blade_pitch.min));

  015f0	a1 00 00 00 00	 mov	 eax, DWORD PTR ?current_flight_dynamics@@3PAUDYNAMICS_TYPE@@A ; current_flight_dynamics
  015f5	8b 0d 00 00 00
	00		 mov	 ecx, DWORD PTR ?current_flight_dynamics@@3PAUDYNAMICS_TYPE@@A ; current_flight_dynamics
  015fb	f3 0f 10 80 8c
	1e 00 00	 movss	 xmm0, DWORD PTR [eax+7820]
  01603	f3 0f 5c 81 94
	1e 00 00	 subss	 xmm0, DWORD PTR [ecx+7828]
  0160b	8b 15 00 00 00
	00		 mov	 edx, DWORD PTR ?current_flight_dynamics@@3PAUDYNAMICS_TYPE@@A ; current_flight_dynamics
  01611	a1 00 00 00 00	 mov	 eax, DWORD PTR ?current_flight_dynamics@@3PAUDYNAMICS_TYPE@@A ; current_flight_dynamics
  01616	f3 0f 10 8a 98
	1e 00 00	 movss	 xmm1, DWORD PTR [edx+7832]
  0161e	f3 0f 5c 88 94
	1e 00 00	 subss	 xmm1, DWORD PTR [eax+7828]
  01626	f3 0f 5e c1	 divss	 xmm0, xmm1
  0162a	f3 0f 59 45 98	 mulss	 xmm0, DWORD PTR _force$[ebp]
  0162f	f3 0f 11 45 98	 movss	 DWORD PTR _force$[ebp], xmm0

; 1707 : 
; 1708 : 		if (fabs (force) > 2.0)

  01634	51		 push	 ecx
  01635	f3 0f 10 45 98	 movss	 xmm0, DWORD PTR _force$[ebp]
  0163a	f3 0f 11 04 24	 movss	 DWORD PTR [esp], xmm0
  0163f	e8 00 00 00 00	 call	 ?fabs@@YGMM@Z		; fabs
  01644	dd 9d fc fc ff
	ff		 fstp	 QWORD PTR tv2680[ebp]
  0164a	f2 0f 10 85 fc
	fc ff ff	 movsd	 xmm0, QWORD PTR tv2680[ebp]
  01652	66 0f 2f 05 00
	00 00 00	 comisd	 xmm0, QWORD PTR __real@4000000000000000
  0165a	76 7e		 jbe	 SHORT $LN15@update_att

; 1709 : 		{
; 1710 : 
; 1711 : 			dynamics_damage_model (DYNAMICS_DAMAGE_MAIN_ROTOR, FALSE);

  0165c	6a 00		 push	 0
  0165e	6a 02		 push	 2
  01660	e8 00 00 00 00	 call	 ?dynamics_damage_model@@YGXIH@Z ; dynamics_damage_model

; 1712 : 
; 1713 : 			force = bound (force, -2.0, 2.0);

  01665	f3 0f 5a 45 98	 cvtss2sd xmm0, DWORD PTR _force$[ebp]
  0166a	f2 0f 10 0d 00
	00 00 00	 movsd	 xmm1, QWORD PTR __real@c000000000000000
  01672	66 0f 2f c8	 comisd	 xmm1, xmm0
  01676	76 12		 jbe	 SHORT $LN105@update_att
  01678	f2 0f 10 05 00
	00 00 00	 movsd	 xmm0, QWORD PTR __real@c000000000000000
  01680	f2 0f 11 85 fc
	fc ff ff	 movsd	 QWORD PTR tv863[ebp], xmm0
  01688	eb 3e		 jmp	 SHORT $LN106@update_att
$LN105@update_att:
  0168a	f3 0f 5a 45 98	 cvtss2sd xmm0, DWORD PTR _force$[ebp]
  0168f	66 0f 2f 05 00
	00 00 00	 comisd	 xmm0, QWORD PTR __real@4000000000000000
  01697	76 12		 jbe	 SHORT $LN103@update_att
  01699	f2 0f 10 05 00
	00 00 00	 movsd	 xmm0, QWORD PTR __real@4000000000000000
  016a1	f2 0f 11 85 f4
	fc ff ff	 movsd	 QWORD PTR tv862[ebp], xmm0
  016a9	eb 0d		 jmp	 SHORT $LN104@update_att
$LN103@update_att:
  016ab	f3 0f 5a 45 98	 cvtss2sd xmm0, DWORD PTR _force$[ebp]
  016b0	f2 0f 11 85 f4
	fc ff ff	 movsd	 QWORD PTR tv862[ebp], xmm0
$LN104@update_att:
  016b8	f2 0f 10 85 f4
	fc ff ff	 movsd	 xmm0, QWORD PTR tv862[ebp]
  016c0	f2 0f 11 85 fc
	fc ff ff	 movsd	 QWORD PTR tv863[ebp], xmm0
$LN106@update_att:
  016c8	f2 0f 5a 85 fc
	fc ff ff	 cvtsd2ss xmm0, QWORD PTR tv863[ebp]
  016d0	f3 0f 11 45 98	 movss	 DWORD PTR _force$[ebp], xmm0
  016d5	e9 9f 00 00 00	 jmp	 $LN18@update_att
$LN15@update_att:

; 1714 : 		}
; 1715 : 		else if (fabs (force) > 1.0)

  016da	51		 push	 ecx
  016db	f3 0f 10 45 98	 movss	 xmm0, DWORD PTR _force$[ebp]
  016e0	f3 0f 11 04 24	 movss	 DWORD PTR [esp], xmm0
  016e5	e8 00 00 00 00	 call	 ?fabs@@YGMM@Z		; fabs
  016ea	dd 9d fc fc ff
	ff		 fstp	 QWORD PTR tv2691[ebp]
  016f0	f2 0f 10 85 fc
	fc ff ff	 movsd	 xmm0, QWORD PTR tv2691[ebp]
  016f8	66 0f 2f 05 00
	00 00 00	 comisd	 xmm0, QWORD PTR __real@3ff0000000000000
  01700	76 77		 jbe	 SHORT $LN18@update_att

; 1716 : 		{
; 1717 : 
; 1718 : 			static float
; 1719 : 				time = 0.0;
; 1720 : 
; 1721 : 			// Approaching VNE speech
; 1722 : 
; 1723 : 			time -= get_model_delta_time ();

  01702	a1 00 00 00 00	 mov	 eax, DWORD PTR ?current_flight_dynamics@@3PAUDYNAMICS_TYPE@@A ; current_flight_dynamics
  01707	f3 0f 10 05 00
	00 00 00	 movss	 xmm0, DWORD PTR ?time@?DG@??update_attitude_dynamics@@YGXXZ@4MA
  0170f	f3 0f 5c 80 90
	00 00 00	 subss	 xmm0, DWORD PTR [eax+144]
  01717	f3 0f 11 05 00
	00 00 00	 movss	 DWORD PTR ?time@?DG@??update_attitude_dynamics@@YGXXZ@4MA, xmm0

; 1724 : 
; 1725 : 			if (time <= 0.0)

  0171f	f3 0f 5a 05 00
	00 00 00	 cvtss2sd xmm0, DWORD PTR ?time@?DG@??update_attitude_dynamics@@YGXXZ@4MA
  01727	0f 57 c9	 xorps	 xmm1, xmm1
  0172a	66 0f 2f c8	 comisd	 xmm1, xmm0
  0172e	72 49		 jb	 SHORT $LN18@update_att

; 1726 : 			{
; 1727 : 
; 1728 : 				play_client_server_cpg_message (get_gunship_entity (), 0.5, 1.0, SPEECH_CATEGORY_CPG_SYSTEMS, 1.0, SPEECH_CPG_HOVER_HOLD_TOO_FAST1);

  01730	6a 0a		 push	 10			; 0000000aH
  01732	51		 push	 ecx
  01733	f3 0f 10 05 00
	00 00 00	 movss	 xmm0, DWORD PTR __real@3f800000
  0173b	f3 0f 11 04 24	 movss	 DWORD PTR [esp], xmm0
  01740	6a 04		 push	 4
  01742	51		 push	 ecx
  01743	f3 0f 10 05 00
	00 00 00	 movss	 xmm0, DWORD PTR __real@3f800000
  0174b	f3 0f 11 04 24	 movss	 DWORD PTR [esp], xmm0
  01750	51		 push	 ecx
  01751	f3 0f 10 05 00
	00 00 00	 movss	 xmm0, DWORD PTR __real@3f000000
  01759	f3 0f 11 04 24	 movss	 DWORD PTR [esp], xmm0
  0175e	a1 00 00 00 00	 mov	 eax, DWORD PTR ?gunship_entity@@3PAUENTITY@@A ; gunship_entity
  01763	50		 push	 eax
  01764	e8 00 00 00 00	 call	 ?play_client_server_cpg_message@@YGHPAUENTITY@@MMHMH@Z ; play_client_server_cpg_message

; 1729 : 
; 1730 : 				time = DYNAMICS_EXCEEDING_VNE_SPEECH_TIME;

  01769	f3 0f 10 05 00
	00 00 00	 movss	 xmm0, DWORD PTR __real@41a00000
  01771	f3 0f 11 05 00
	00 00 00	 movss	 DWORD PTR ?time@?DG@??update_attitude_dynamics@@YGXXZ@4MA, xmm0
$LN18@update_att:

; 1731 : 			}
; 1732 : 		}
; 1733 : 
; 1734 : 		position.x = -7.299;

  01779	f3 0f 10 05 00
	00 00 00	 movss	 xmm0, DWORD PTR __real@c0e99168
  01781	f3 0f 11 85 20
	ff ff ff	 movss	 DWORD PTR _position$[ebp], xmm0

; 1735 : 		position.y = 0.0;

  01789	0f 57 c0	 xorps	 xmm0, xmm0
  0178c	f3 0f 11 85 24
	ff ff ff	 movss	 DWORD PTR _position$[ebp+4], xmm0

; 1736 : 		position.z = 0.0;

  01794	0f 57 c0	 xorps	 xmm0, xmm0
  01797	f3 0f 11 85 28
	ff ff ff	 movss	 DWORD PTR _position$[ebp+8], xmm0

; 1737 : 
; 1738 : 		direction.x = 0.0;

  0179f	0f 57 c0	 xorps	 xmm0, xmm0
  017a2	f3 0f 11 85 14
	ff ff ff	 movss	 DWORD PTR _direction$[ebp], xmm0

; 1739 : 		direction.y = current_flight_dynamics->rotor_rotation_direction;

  017aa	a1 00 00 00 00	 mov	 eax, DWORD PTR ?current_flight_dynamics@@3PAUDYNAMICS_TYPE@@A ; current_flight_dynamics
  017af	0f bf 88 1c 25
	00 00		 movsx	 ecx, WORD PTR [eax+9500]
  017b6	f3 0f 2a c1	 cvtsi2ss xmm0, ecx
  017ba	f3 0f 11 85 18
	ff ff ff	 movss	 DWORD PTR _direction$[ebp+4], xmm0

; 1740 : 		direction.z = 0.0;

  017c2	0f 57 c0	 xorps	 xmm0, xmm0
  017c5	f3 0f 11 85 1c
	ff ff ff	 movss	 DWORD PTR _direction$[ebp+8], xmm0

; 1741 : 
; 1742 : 		add_dynamic_force ("Sonic buildup", force, 0.0, &position, &direction, FALSE);

  017cd	6a 00		 push	 0
  017cf	8d 85 14 ff ff
	ff		 lea	 eax, DWORD PTR _direction$[ebp]
  017d5	50		 push	 eax
  017d6	8d 8d 20 ff ff
	ff		 lea	 ecx, DWORD PTR _position$[ebp]
  017dc	51		 push	 ecx
  017dd	51		 push	 ecx
  017de	0f 57 c0	 xorps	 xmm0, xmm0
  017e1	f3 0f 11 04 24	 movss	 DWORD PTR [esp], xmm0
  017e6	51		 push	 ecx
  017e7	f3 0f 10 45 98	 movss	 xmm0, DWORD PTR _force$[ebp]
  017ec	f3 0f 11 04 24	 movss	 DWORD PTR [esp], xmm0
  017f1	68 00 00 00 00	 push	 OFFSET ??_C@_0O@JIJAGCOD@Sonic?5buildup@
  017f6	e8 00 00 00 00	 call	 ?add_dynamic_force@@YGXPBDMMPAUVEC3D@@1H@Z ; add_dynamic_force
$LN14@update_att:

; 1743 : 	}
; 1744 : 	////////////////////////////////////////////
; 1745 : 	// main rotor disc torque effect 1
; 1746 : 	////////////////////////////////////////////
; 1747 : 	//if (!model_landed)
; 1748 : 	{
; 1749 : 
; 1750 : 		main_angular_force = heading_inertia_value * (main_rotor_rpm_value * 2.0 * PI * (current_flight_dynamics->main_rotor_diameter.value / 2.0)) / 1649.0;

  017fb	f3 0f 5a 85 64
	ff ff ff	 cvtss2sd xmm0, DWORD PTR _heading_inertia_value$[ebp]
  01803	f3 0f 5a 8d 70
	ff ff ff	 cvtss2sd xmm1, DWORD PTR _main_rotor_rpm_value$[ebp]
  0180b	f2 0f 59 0d 00
	00 00 00	 mulsd	 xmm1, QWORD PTR __real@4000000000000000
  01813	f2 0f 59 0d 00
	00 00 00	 mulsd	 xmm1, QWORD PTR __real@400921fb60000000
  0181b	a1 00 00 00 00	 mov	 eax, DWORD PTR ?current_flight_dynamics@@3PAUDYNAMICS_TYPE@@A ; current_flight_dynamics
  01820	f3 0f 5a 90 9c
	1d 00 00	 cvtss2sd xmm2, DWORD PTR [eax+7580]
  01828	f2 0f 5e 15 00
	00 00 00	 divsd	 xmm2, QWORD PTR __real@4000000000000000
  01830	f2 0f 59 ca	 mulsd	 xmm1, xmm2
  01834	f2 0f 59 c1	 mulsd	 xmm0, xmm1
  01838	f2 0f 5e 05 00
	00 00 00	 divsd	 xmm0, QWORD PTR __real@4099c40000000000
  01840	f2 0f 5a c0	 cvtsd2ss xmm0, xmm0
  01844	f3 0f 11 85 7c
	ff ff ff	 movss	 DWORD PTR _main_angular_force$[ebp], xmm0

; 1751 : 
; 1752 : 		position.x = 0.0;

  0184c	0f 57 c0	 xorps	 xmm0, xmm0
  0184f	f3 0f 11 85 20
	ff ff ff	 movss	 DWORD PTR _position$[ebp], xmm0

; 1753 : 		position.y = 0.0;

  01857	0f 57 c0	 xorps	 xmm0, xmm0
  0185a	f3 0f 11 85 24
	ff ff ff	 movss	 DWORD PTR _position$[ebp+4], xmm0

; 1754 : 		position.z = -current_flight_dynamics->tail_boom_length.value;

  01862	a1 00 00 00 00	 mov	 eax, DWORD PTR ?current_flight_dynamics@@3PAUDYNAMICS_TYPE@@A ; current_flight_dynamics
  01867	f3 0f 10 80 ac
	1f 00 00	 movss	 xmm0, DWORD PTR [eax+8108]
  0186f	0f 57 05 00 00
	00 00		 xorps	 xmm0, DWORD PTR __xmm@80000000800000008000000080000000
  01876	f3 0f 11 85 28
	ff ff ff	 movss	 DWORD PTR _position$[ebp+8], xmm0

; 1755 : 
; 1756 : 		direction.x = current_flight_dynamics->rotor_rotation_direction;

  0187e	a1 00 00 00 00	 mov	 eax, DWORD PTR ?current_flight_dynamics@@3PAUDYNAMICS_TYPE@@A ; current_flight_dynamics
  01883	0f bf 88 1c 25
	00 00		 movsx	 ecx, WORD PTR [eax+9500]
  0188a	f3 0f 2a c1	 cvtsi2ss xmm0, ecx
  0188e	f3 0f 11 85 14
	ff ff ff	 movss	 DWORD PTR _direction$[ebp], xmm0

; 1757 : 		direction.y = 0.0;

  01896	0f 57 c0	 xorps	 xmm0, xmm0
  01899	f3 0f 11 85 18
	ff ff ff	 movss	 DWORD PTR _direction$[ebp+4], xmm0

; 1758 : 		direction.z = 0.0;

  018a1	0f 57 c0	 xorps	 xmm0, xmm0
  018a4	f3 0f 11 85 1c
	ff ff ff	 movss	 DWORD PTR _direction$[ebp+8], xmm0

; 1759 : 
; 1760 : 		if (model_landed)

  018ac	83 7d fc 00	 cmp	 DWORD PTR _model_landed$[ebp], 0
  018b0	0f 84 a0 00 00
	00		 je	 $LN21@update_att

; 1761 : 		{
; 1762 : 
; 1763 : 			position.y = 0.0;

  018b6	0f 57 c0	 xorps	 xmm0, xmm0
  018b9	f3 0f 11 85 24
	ff ff ff	 movss	 DWORD PTR _position$[ebp+4], xmm0

; 1764 : 
; 1765 : 			if ((current_flight_dynamics->input_data.pedal_input_pressure != PEDAL_PRESSURE_LEFT) &&

  018c1	a1 00 00 00 00	 mov	 eax, DWORD PTR ?current_flight_dynamics@@3PAUDYNAMICS_TYPE@@A ; current_flight_dynamics
  018c6	83 b8 20 1c 00
	00 01		 cmp	 DWORD PTR [eax+7200], 1
  018cd	74 1b		 je	 SHORT $LN20@update_att
  018cf	a1 00 00 00 00	 mov	 eax, DWORD PTR ?current_flight_dynamics@@3PAUDYNAMICS_TYPE@@A ; current_flight_dynamics
  018d4	83 b8 20 1c 00
	00 02		 cmp	 DWORD PTR [eax+7200], 2
  018db	74 0d		 je	 SHORT $LN20@update_att

; 1766 : 				(current_flight_dynamics->input_data.pedal_input_pressure != PEDAL_PRESSURE_RIGHT))
; 1767 : 			{
; 1768 : 
; 1769 : 				main_angular_force = 0.0;

  018dd	0f 57 c0	 xorps	 xmm0, xmm0
  018e0	f3 0f 11 85 7c
	ff ff ff	 movss	 DWORD PTR _main_angular_force$[ebp], xmm0

; 1770 : 			}
; 1771 : 			else

  018e8	eb 6c		 jmp	 SHORT $LN21@update_att
$LN20@update_att:

; 1772 : 			{
; 1773 : 
; 1774 : 				main_angular_force *= min (fabs (velocity_z_value) / 15.0, 1.0);

  018ea	f2 0f 10 05 00
	00 00 00	 movsd	 xmm0, QWORD PTR __real@3ff0000000000000
  018f2	f2 0f 11 85 60
	fd ff ff	 movsd	 QWORD PTR $T19[ebp], xmm0
  018fa	51		 push	 ecx
  018fb	f3 0f 10 85 4c
	ff ff ff	 movss	 xmm0, DWORD PTR _velocity_z_value$[ebp]
  01903	f3 0f 11 04 24	 movss	 DWORD PTR [esp], xmm0
  01908	e8 00 00 00 00	 call	 ?fabs@@YGMM@Z		; fabs
  0190d	dd 9d fc fc ff
	ff		 fstp	 QWORD PTR tv2734[ebp]
  01913	f2 0f 10 85 fc
	fc ff ff	 movsd	 xmm0, QWORD PTR tv2734[ebp]
  0191b	f2 0f 5e 05 00
	00 00 00	 divsd	 xmm0, QWORD PTR __real@402e000000000000
  01923	f2 0f 11 85 58
	fd ff ff	 movsd	 QWORD PTR $T18[ebp], xmm0
  0192b	8d 85 60 fd ff
	ff		 lea	 eax, DWORD PTR $T19[ebp]
  01931	50		 push	 eax
  01932	8d 8d 58 fd ff
	ff		 lea	 ecx, DWORD PTR $T18[ebp]
  01938	51		 push	 ecx
  01939	e8 00 00 00 00	 call	 ??$min@N@std@@YGABNABN0@Z ; std::min<double>
  0193e	f3 0f 5a 85 7c
	ff ff ff	 cvtss2sd xmm0, DWORD PTR _main_angular_force$[ebp]
  01946	f2 0f 59 00	 mulsd	 xmm0, QWORD PTR [eax]
  0194a	f2 0f 5a c0	 cvtsd2ss xmm0, xmm0
  0194e	f3 0f 11 85 7c
	ff ff ff	 movss	 DWORD PTR _main_angular_force$[ebp], xmm0
$LN21@update_att:

; 1775 : 			}
; 1776 : 		}
; 1777 : 
; 1778 : 		main_angular_force *= command_line_dynamics_rudder_value;

  01956	f3 0f 10 85 7c
	ff ff ff	 movss	 xmm0, DWORD PTR _main_angular_force$[ebp]
  0195e	f3 0f 59 05 00
	00 00 00	 mulss	 xmm0, DWORD PTR ?command_line_dynamics_rudder_value@@3MA
  01966	f3 0f 11 85 7c
	ff ff ff	 movss	 DWORD PTR _main_angular_force$[ebp], xmm0

; 1779 : 
; 1780 : 		add_dynamic_force ("Main rotor angular torque", main_angular_force, 0.0, &position, &direction, FALSE);

  0196e	6a 00		 push	 0
  01970	8d 85 14 ff ff
	ff		 lea	 eax, DWORD PTR _direction$[ebp]
  01976	50		 push	 eax
  01977	8d 8d 20 ff ff
	ff		 lea	 ecx, DWORD PTR _position$[ebp]
  0197d	51		 push	 ecx
  0197e	51		 push	 ecx
  0197f	0f 57 c0	 xorps	 xmm0, xmm0
  01982	f3 0f 11 04 24	 movss	 DWORD PTR [esp], xmm0
  01987	51		 push	 ecx
  01988	f3 0f 10 85 7c
	ff ff ff	 movss	 xmm0, DWORD PTR _main_angular_force$[ebp]
  01990	f3 0f 11 04 24	 movss	 DWORD PTR [esp], xmm0
  01995	68 00 00 00 00	 push	 OFFSET ??_C@_0BK@DILBAPLM@Main?5rotor?5angular?5torque@
  0199a	e8 00 00 00 00	 call	 ?add_dynamic_force@@YGXPBDMMPAUVEC3D@@1H@Z ; add_dynamic_force

; 1781 : 	}
; 1782 : 	////////////////////////////////////////////
; 1783 : 	// main rotor disc torque effect 2
; 1784 : 	////////////////////////////////////////////
; 1785 : 	//if (!model_landed)
; 1786 : 	{
; 1787 : 
; 1788 : 		if (!current_flight_dynamics->main_rotor_rpm.damaged)

  0199f	a1 00 00 00 00	 mov	 eax, DWORD PTR ?current_flight_dynamics@@3PAUDYNAMICS_TYPE@@A ; current_flight_dynamics
  019a4	0f b7 88 24 1e
	00 00		 movzx	 ecx, WORD PTR [eax+7716]
  019ab	85 c9		 test	 ecx, ecx
  019ad	0f 85 e5 01 00
	00		 jne	 $LN22@update_att

; 1789 : 		{
; 1790 : 
; 1791 : 			main_angular_force = heading_inertia_value * (main_rotor_rpm_value * 2.0 * PI * (current_flight_dynamics->main_rotor_diameter.value / 2.0)) / 1649.0;

  019b3	f3 0f 5a 85 64
	ff ff ff	 cvtss2sd xmm0, DWORD PTR _heading_inertia_value$[ebp]
  019bb	f3 0f 5a 8d 70
	ff ff ff	 cvtss2sd xmm1, DWORD PTR _main_rotor_rpm_value$[ebp]
  019c3	f2 0f 59 0d 00
	00 00 00	 mulsd	 xmm1, QWORD PTR __real@4000000000000000
  019cb	f2 0f 59 0d 00
	00 00 00	 mulsd	 xmm1, QWORD PTR __real@400921fb60000000
  019d3	a1 00 00 00 00	 mov	 eax, DWORD PTR ?current_flight_dynamics@@3PAUDYNAMICS_TYPE@@A ; current_flight_dynamics
  019d8	f3 0f 5a 90 9c
	1d 00 00	 cvtss2sd xmm2, DWORD PTR [eax+7580]
  019e0	f2 0f 5e 15 00
	00 00 00	 divsd	 xmm2, QWORD PTR __real@4000000000000000
  019e8	f2 0f 59 ca	 mulsd	 xmm1, xmm2
  019ec	f2 0f 59 c1	 mulsd	 xmm0, xmm1
  019f0	f2 0f 5e 05 00
	00 00 00	 divsd	 xmm0, QWORD PTR __real@4099c40000000000
  019f8	f2 0f 5a c0	 cvtsd2ss xmm0, xmm0
  019fc	f3 0f 11 85 7c
	ff ff ff	 movss	 DWORD PTR _main_angular_force$[ebp], xmm0

; 1792 : 
; 1793 : 			position.x = 0.0;

  01a04	0f 57 c0	 xorps	 xmm0, xmm0
  01a07	f3 0f 11 85 20
	ff ff ff	 movss	 DWORD PTR _position$[ebp], xmm0

; 1794 : 			position.y = 0.0;

  01a0f	0f 57 c0	 xorps	 xmm0, xmm0
  01a12	f3 0f 11 85 24
	ff ff ff	 movss	 DWORD PTR _position$[ebp+4], xmm0

; 1795 : 			position.z = -current_flight_dynamics->tail_boom_length.value;

  01a1a	a1 00 00 00 00	 mov	 eax, DWORD PTR ?current_flight_dynamics@@3PAUDYNAMICS_TYPE@@A ; current_flight_dynamics
  01a1f	f3 0f 10 80 ac
	1f 00 00	 movss	 xmm0, DWORD PTR [eax+8108]
  01a27	0f 57 05 00 00
	00 00		 xorps	 xmm0, DWORD PTR __xmm@80000000800000008000000080000000
  01a2e	f3 0f 11 85 28
	ff ff ff	 movss	 DWORD PTR _position$[ebp+8], xmm0

; 1796 : 
; 1797 : 			//direction.x = 1.0;
; 1798 : 			direction.x = -current_flight_dynamics->rotor_rotation_direction;

  01a36	a1 00 00 00 00	 mov	 eax, DWORD PTR ?current_flight_dynamics@@3PAUDYNAMICS_TYPE@@A ; current_flight_dynamics
  01a3b	0f bf 88 1c 25
	00 00		 movsx	 ecx, WORD PTR [eax+9500]
  01a42	f7 d9		 neg	 ecx
  01a44	f3 0f 2a c1	 cvtsi2ss xmm0, ecx
  01a48	f3 0f 11 85 14
	ff ff ff	 movss	 DWORD PTR _direction$[ebp], xmm0

; 1799 : 			direction.y = 0.0;

  01a50	0f 57 c0	 xorps	 xmm0, xmm0
  01a53	f3 0f 11 85 18
	ff ff ff	 movss	 DWORD PTR _direction$[ebp+4], xmm0

; 1800 : 			direction.z = 0.0;

  01a5b	0f 57 c0	 xorps	 xmm0, xmm0
  01a5e	f3 0f 11 85 1c
	ff ff ff	 movss	 DWORD PTR _direction$[ebp+8], xmm0

; 1801 : 
; 1802 : 			if (model_landed)

  01a66	83 7d fc 00	 cmp	 DWORD PTR _model_landed$[ebp], 0
  01a6a	0f 84 a0 00 00
	00		 je	 $LN25@update_att

; 1803 : 			{
; 1804 : 
; 1805 : 				position.y = 0.0;

  01a70	0f 57 c0	 xorps	 xmm0, xmm0
  01a73	f3 0f 11 85 24
	ff ff ff	 movss	 DWORD PTR _position$[ebp+4], xmm0

; 1806 : 
; 1807 : 				if ((current_flight_dynamics->input_data.pedal_input_pressure != PEDAL_PRESSURE_LEFT) &&

  01a7b	a1 00 00 00 00	 mov	 eax, DWORD PTR ?current_flight_dynamics@@3PAUDYNAMICS_TYPE@@A ; current_flight_dynamics
  01a80	83 b8 20 1c 00
	00 01		 cmp	 DWORD PTR [eax+7200], 1
  01a87	74 1b		 je	 SHORT $LN24@update_att
  01a89	a1 00 00 00 00	 mov	 eax, DWORD PTR ?current_flight_dynamics@@3PAUDYNAMICS_TYPE@@A ; current_flight_dynamics
  01a8e	83 b8 20 1c 00
	00 02		 cmp	 DWORD PTR [eax+7200], 2
  01a95	74 0d		 je	 SHORT $LN24@update_att

; 1808 : 					(current_flight_dynamics->input_data.pedal_input_pressure != PEDAL_PRESSURE_RIGHT))
; 1809 : 				{
; 1810 : 
; 1811 : 					main_angular_force = 0.0;

  01a97	0f 57 c0	 xorps	 xmm0, xmm0
  01a9a	f3 0f 11 85 7c
	ff ff ff	 movss	 DWORD PTR _main_angular_force$[ebp], xmm0

; 1812 : 				}
; 1813 : 				else

  01aa2	eb 6c		 jmp	 SHORT $LN25@update_att
$LN24@update_att:

; 1814 : 				{
; 1815 : 
; 1816 : 					main_angular_force *= min (fabs (velocity_z_value) / 15.0, 1.0);

  01aa4	f2 0f 10 05 00
	00 00 00	 movsd	 xmm0, QWORD PTR __real@3ff0000000000000
  01aac	f2 0f 11 85 50
	fd ff ff	 movsd	 QWORD PTR $T17[ebp], xmm0
  01ab4	51		 push	 ecx
  01ab5	f3 0f 10 85 4c
	ff ff ff	 movss	 xmm0, DWORD PTR _velocity_z_value$[ebp]
  01abd	f3 0f 11 04 24	 movss	 DWORD PTR [esp], xmm0
  01ac2	e8 00 00 00 00	 call	 ?fabs@@YGMM@Z		; fabs
  01ac7	dd 9d fc fc ff
	ff		 fstp	 QWORD PTR tv2765[ebp]
  01acd	f2 0f 10 85 fc
	fc ff ff	 movsd	 xmm0, QWORD PTR tv2765[ebp]
  01ad5	f2 0f 5e 05 00
	00 00 00	 divsd	 xmm0, QWORD PTR __real@402e000000000000
  01add	f2 0f 11 85 48
	fd ff ff	 movsd	 QWORD PTR $T16[ebp], xmm0
  01ae5	8d 85 50 fd ff
	ff		 lea	 eax, DWORD PTR $T17[ebp]
  01aeb	50		 push	 eax
  01aec	8d 8d 48 fd ff
	ff		 lea	 ecx, DWORD PTR $T16[ebp]
  01af2	51		 push	 ecx
  01af3	e8 00 00 00 00	 call	 ??$min@N@std@@YGABNABN0@Z ; std::min<double>
  01af8	f3 0f 5a 85 7c
	ff ff ff	 cvtss2sd xmm0, DWORD PTR _main_angular_force$[ebp]
  01b00	f2 0f 59 00	 mulsd	 xmm0, QWORD PTR [eax]
  01b04	f2 0f 5a c0	 cvtsd2ss xmm0, xmm0
  01b08	f3 0f 11 85 7c
	ff ff ff	 movss	 DWORD PTR _main_angular_force$[ebp], xmm0
$LN25@update_att:

; 1817 : 				}
; 1818 : 			}
; 1819 : 
; 1820 : 			main_angular_force *= command_line_dynamics_rudder_value;

  01b10	f3 0f 10 85 7c
	ff ff ff	 movss	 xmm0, DWORD PTR _main_angular_force$[ebp]
  01b18	f3 0f 59 05 00
	00 00 00	 mulss	 xmm0, DWORD PTR ?command_line_dynamics_rudder_value@@3MA
  01b20	f3 0f 11 85 7c
	ff ff ff	 movss	 DWORD PTR _main_angular_force$[ebp], xmm0

; 1821 : 
; 1822 : 			main_angular_force *= 1.0 + (current_flight_dynamics->tail_blade_pitch.value / current_flight_dynamics->tail_blade_pitch.max);

  01b28	a1 00 00 00 00	 mov	 eax, DWORD PTR ?current_flight_dynamics@@3PAUDYNAMICS_TYPE@@A ; current_flight_dynamics
  01b2d	8b 0d 00 00 00
	00		 mov	 ecx, DWORD PTR ?current_flight_dynamics@@3PAUDYNAMICS_TYPE@@A ; current_flight_dynamics
  01b33	f3 0f 10 80 94
	1f 00 00	 movss	 xmm0, DWORD PTR [eax+8084]
  01b3b	f3 0f 5e 81 a0
	1f 00 00	 divss	 xmm0, DWORD PTR [ecx+8096]
  01b43	f3 0f 5a c0	 cvtss2sd xmm0, xmm0
  01b47	f2 0f 58 05 00
	00 00 00	 addsd	 xmm0, QWORD PTR __real@3ff0000000000000
  01b4f	f3 0f 5a 8d 7c
	ff ff ff	 cvtss2sd xmm1, DWORD PTR _main_angular_force$[ebp]
  01b57	f2 0f 59 c8	 mulsd	 xmm1, xmm0
  01b5b	f2 0f 5a c1	 cvtsd2ss xmm0, xmm1
  01b5f	f3 0f 11 85 7c
	ff ff ff	 movss	 DWORD PTR _main_angular_force$[ebp], xmm0

; 1823 : 
; 1824 : 			add_dynamic_force ("Main rotor angular torque", main_angular_force, 0.0, &position, &direction, FALSE);

  01b67	6a 00		 push	 0
  01b69	8d 85 14 ff ff
	ff		 lea	 eax, DWORD PTR _direction$[ebp]
  01b6f	50		 push	 eax
  01b70	8d 8d 20 ff ff
	ff		 lea	 ecx, DWORD PTR _position$[ebp]
  01b76	51		 push	 ecx
  01b77	51		 push	 ecx
  01b78	0f 57 c0	 xorps	 xmm0, xmm0
  01b7b	f3 0f 11 04 24	 movss	 DWORD PTR [esp], xmm0
  01b80	51		 push	 ecx
  01b81	f3 0f 10 85 7c
	ff ff ff	 movss	 xmm0, DWORD PTR _main_angular_force$[ebp]
  01b89	f3 0f 11 04 24	 movss	 DWORD PTR [esp], xmm0
  01b8e	68 00 00 00 00	 push	 OFFSET ??_C@_0BK@DILBAPLM@Main?5rotor?5angular?5torque@
  01b93	e8 00 00 00 00	 call	 ?add_dynamic_force@@YGXPBDMMPAUVEC3D@@1H@Z ; add_dynamic_force
$LN22@update_att:

; 1825 : 		}
; 1826 : 	}
; 1827 : 	////////////////////////////////////////////
; 1828 : 	// Rotor Resistance to movement (Pitch) raw delta pitch
; 1829 : 	////////////////////////////////////////////
; 1830 : 	{
; 1831 : 
; 1832 : 		reaction_force = pitch_inertia_value *

  01b98	a1 00 00 00 00	 mov	 eax, DWORD PTR ?current_flight_dynamics@@3PAUDYNAMICS_TYPE@@A ; current_flight_dynamics
  01b9d	8b 0d 00 00 00
	00		 mov	 ecx, DWORD PTR ?current_flight_dynamics@@3PAUDYNAMICS_TYPE@@A ; current_flight_dynamics
  01ba3	f3 0f 10 80 60
	21 00 00	 movss	 xmm0, DWORD PTR [eax+8544]
  01bab	f3 0f 58 81 00
	1e 00 00	 addss	 xmm0, DWORD PTR [ecx+7680]
  01bb3	f3 0f 59 85 60
	ff ff ff	 mulss	 xmm0, DWORD PTR _pitch_inertia_value$[ebp]
  01bbb	f3 0f 11 45 80	 movss	 DWORD PTR _reaction_force$[ebp], xmm0

; 1833 : 							(current_flight_dynamics->pitch.delta + current_flight_dynamics->main_rotor_pitch_angle.delta);
; 1834 : 
; 1835 : 		position.x = 0.0;

  01bc0	0f 57 c0	 xorps	 xmm0, xmm0
  01bc3	f3 0f 11 85 20
	ff ff ff	 movss	 DWORD PTR _position$[ebp], xmm0

; 1836 : 		position.y = 0.0;

  01bcb	0f 57 c0	 xorps	 xmm0, xmm0
  01bce	f3 0f 11 85 24
	ff ff ff	 movss	 DWORD PTR _position$[ebp+4], xmm0

; 1837 : 		position.z = 7.299;

  01bd6	f3 0f 10 05 00
	00 00 00	 movss	 xmm0, DWORD PTR __real@40e99168
  01bde	f3 0f 11 85 28
	ff ff ff	 movss	 DWORD PTR _position$[ebp+8], xmm0

; 1838 : 
; 1839 : 		direction.x = 0.0;

  01be6	0f 57 c0	 xorps	 xmm0, xmm0
  01be9	f3 0f 11 85 14
	ff ff ff	 movss	 DWORD PTR _direction$[ebp], xmm0

; 1840 : 		direction.y = -1.0;

  01bf1	f3 0f 10 05 00
	00 00 00	 movss	 xmm0, DWORD PTR __real@bf800000
  01bf9	f3 0f 11 85 18
	ff ff ff	 movss	 DWORD PTR _direction$[ebp+4], xmm0

; 1841 : 		direction.z = 0.0;

  01c01	0f 57 c0	 xorps	 xmm0, xmm0
  01c04	f3 0f 11 85 1c
	ff ff ff	 movss	 DWORD PTR _direction$[ebp+8], xmm0

; 1842 : 
; 1843 : 		add_dynamic_force ("Pitch resistance", reaction_force, 0.0, &position, &direction, FALSE);

  01c0c	6a 00		 push	 0
  01c0e	8d 85 14 ff ff
	ff		 lea	 eax, DWORD PTR _direction$[ebp]
  01c14	50		 push	 eax
  01c15	8d 8d 20 ff ff
	ff		 lea	 ecx, DWORD PTR _position$[ebp]
  01c1b	51		 push	 ecx
  01c1c	51		 push	 ecx
  01c1d	0f 57 c0	 xorps	 xmm0, xmm0
  01c20	f3 0f 11 04 24	 movss	 DWORD PTR [esp], xmm0
  01c25	51		 push	 ecx
  01c26	f3 0f 10 45 80	 movss	 xmm0, DWORD PTR _reaction_force$[ebp]
  01c2b	f3 0f 11 04 24	 movss	 DWORD PTR [esp], xmm0
  01c30	68 00 00 00 00	 push	 OFFSET ??_C@_0BB@FPOJGHNF@Pitch?5resistance@
  01c35	e8 00 00 00 00	 call	 ?add_dynamic_force@@YGXPBDMMPAUVEC3D@@1H@Z ; add_dynamic_force

; 1844 : 	}
; 1845 : 	////////////////////////////////////////////
; 1846 : 	// Rotor Resistance to movement (Roll)
; 1847 : 	////////////////////////////////////////////
; 1848 : 	{
; 1849 : 
; 1850 : 		reaction_force = roll_inertia_value *

  01c3a	a1 00 00 00 00	 mov	 eax, DWORD PTR ?current_flight_dynamics@@3PAUDYNAMICS_TYPE@@A ; current_flight_dynamics
  01c3f	8b 0d 00 00 00
	00		 mov	 ecx, DWORD PTR ?current_flight_dynamics@@3PAUDYNAMICS_TYPE@@A ; current_flight_dynamics
  01c45	f3 0f 10 80 78
	21 00 00	 movss	 xmm0, DWORD PTR [eax+8568]
  01c4d	f3 0f 58 81 e8
	1d 00 00	 addss	 xmm0, DWORD PTR [ecx+7656]
  01c55	f3 0f 59 85 5c
	ff ff ff	 mulss	 xmm0, DWORD PTR _roll_inertia_value$[ebp]
  01c5d	f3 0f 11 45 80	 movss	 DWORD PTR _reaction_force$[ebp], xmm0

; 1851 : 							(current_flight_dynamics->roll.delta + current_flight_dynamics->main_rotor_roll_angle.delta);
; 1852 : 
; 1853 : 		position.x = 7.299;

  01c62	f3 0f 10 05 00
	00 00 00	 movss	 xmm0, DWORD PTR __real@40e99168
  01c6a	f3 0f 11 85 20
	ff ff ff	 movss	 DWORD PTR _position$[ebp], xmm0

; 1854 : 		position.y = 0.0;

  01c72	0f 57 c0	 xorps	 xmm0, xmm0
  01c75	f3 0f 11 85 24
	ff ff ff	 movss	 DWORD PTR _position$[ebp+4], xmm0

; 1855 : 		position.z = 0.0;

  01c7d	0f 57 c0	 xorps	 xmm0, xmm0
  01c80	f3 0f 11 85 28
	ff ff ff	 movss	 DWORD PTR _position$[ebp+8], xmm0

; 1856 : 
; 1857 : 		direction.x = 0.0;

  01c88	0f 57 c0	 xorps	 xmm0, xmm0
  01c8b	f3 0f 11 85 14
	ff ff ff	 movss	 DWORD PTR _direction$[ebp], xmm0

; 1858 : 		direction.y = 1.0;

  01c93	f3 0f 10 05 00
	00 00 00	 movss	 xmm0, DWORD PTR __real@3f800000
  01c9b	f3 0f 11 85 18
	ff ff ff	 movss	 DWORD PTR _direction$[ebp+4], xmm0

; 1859 : 		direction.z = 0.0;

  01ca3	0f 57 c0	 xorps	 xmm0, xmm0
  01ca6	f3 0f 11 85 1c
	ff ff ff	 movss	 DWORD PTR _direction$[ebp+8], xmm0

; 1860 : 
; 1861 : 		add_dynamic_force ("Roll resistance", reaction_force, 0.0, &position, &direction, FALSE);

  01cae	6a 00		 push	 0
  01cb0	8d 85 14 ff ff
	ff		 lea	 eax, DWORD PTR _direction$[ebp]
  01cb6	50		 push	 eax
  01cb7	8d 8d 20 ff ff
	ff		 lea	 ecx, DWORD PTR _position$[ebp]
  01cbd	51		 push	 ecx
  01cbe	51		 push	 ecx
  01cbf	0f 57 c0	 xorps	 xmm0, xmm0
  01cc2	f3 0f 11 04 24	 movss	 DWORD PTR [esp], xmm0
  01cc7	51		 push	 ecx
  01cc8	f3 0f 10 45 80	 movss	 xmm0, DWORD PTR _reaction_force$[ebp]
  01ccd	f3 0f 11 04 24	 movss	 DWORD PTR [esp], xmm0
  01cd2	68 00 00 00 00	 push	 OFFSET ??_C@_0BA@JHNCKIDL@Roll?5resistance@
  01cd7	e8 00 00 00 00	 call	 ?add_dynamic_force@@YGXPBDMMPAUVEC3D@@1H@Z ; add_dynamic_force

; 1862 : 	}
; 1863 : 	////////////////////////////////////////////
; 1864 : 	// Tail Rotor Resistance to movement. raw delta heading resistance
; 1865 : 	////////////////////////////////////////////
; 1866 : 	//if (!model_landed)
; 1867 : 	{
; 1868 : 		float
; 1869 : 			a,
; 1870 : 			scaling,
; 1871 : 			drag;
; 1872 : 
; 1873 : 		drag = -40.0;

  01cdc	f3 0f 10 05 00
	00 00 00	 movss	 xmm0, DWORD PTR __real@c2200000
  01ce4	f3 0f 11 85 98
	fe ff ff	 movss	 DWORD PTR _drag$44[ebp], xmm0

; 1874 : 
; 1875 : 		reaction_force = drag * current_flight_dynamics->heading.delta * current_flight_dynamics->tail_boom_length.value;

  01cec	a1 00 00 00 00	 mov	 eax, DWORD PTR ?current_flight_dynamics@@3PAUDYNAMICS_TYPE@@A ; current_flight_dynamics
  01cf1	f3 0f 10 85 98
	fe ff ff	 movss	 xmm0, DWORD PTR _drag$44[ebp]
  01cf9	f3 0f 59 80 90
	21 00 00	 mulss	 xmm0, DWORD PTR [eax+8592]
  01d01	8b 0d 00 00 00
	00		 mov	 ecx, DWORD PTR ?current_flight_dynamics@@3PAUDYNAMICS_TYPE@@A ; current_flight_dynamics
  01d07	f3 0f 59 81 ac
	1f 00 00	 mulss	 xmm0, DWORD PTR [ecx+8108]
  01d0f	f3 0f 11 45 80	 movss	 DWORD PTR _reaction_force$[ebp], xmm0

; 1876 : 
; 1877 : 		a = exp (velocity_z_value / 45.0);

  01d14	f3 0f 5a 85 4c
	ff ff ff	 cvtss2sd xmm0, DWORD PTR _velocity_z_value$[ebp]
  01d1c	f2 0f 5e 05 00
	00 00 00	 divsd	 xmm0, QWORD PTR __real@4046800000000000
  01d24	83 ec 08	 sub	 esp, 8
  01d27	f2 0f 11 04 24	 movsd	 QWORD PTR [esp], xmm0
  01d2c	e8 00 00 00 00	 call	 _exp
  01d31	83 c4 08	 add	 esp, 8
  01d34	d9 9d a0 fe ff
	ff		 fstp	 DWORD PTR _a$46[ebp]

; 1878 : 
; 1879 : 		if (a != 0.0)

  01d3a	f3 0f 5a 85 a0
	fe ff ff	 cvtss2sd xmm0, DWORD PTR _a$46[ebp]
  01d42	66 0f 2e 05 00
	00 00 00	 ucomisd xmm0, QWORD PTR __real@0000000000000000
  01d4a	9f		 lahf
  01d4b	f6 c4 44	 test	 ah, 68			; 00000044H
  01d4e	7b 2c		 jnp	 SHORT $LN26@update_att

; 1880 : 		{
; 1881 : 
; 1882 : 			scaling = 1.0 - (1.0 / a);

  01d50	f3 0f 5a 85 a0
	fe ff ff	 cvtss2sd xmm0, DWORD PTR _a$46[ebp]
  01d58	f2 0f 10 0d 00
	00 00 00	 movsd	 xmm1, QWORD PTR __real@3ff0000000000000
  01d60	f2 0f 5e c8	 divsd	 xmm1, xmm0
  01d64	f2 0f 10 05 00
	00 00 00	 movsd	 xmm0, QWORD PTR __real@3ff0000000000000
  01d6c	f2 0f 5c c1	 subsd	 xmm0, xmm1
  01d70	f2 0f 5a c0	 cvtsd2ss xmm0, xmm0
  01d74	f3 0f 11 85 9c
	fe ff ff	 movss	 DWORD PTR _scaling$45[ebp], xmm0
$LN26@update_att:

; 1883 : 		}
; 1884 : 
; 1885 : 		scaling = min (fabs (scaling), 1.0f);

  01d7c	f3 0f 10 05 00
	00 00 00	 movss	 xmm0, DWORD PTR __real@3f800000
  01d84	f3 0f 11 85 44
	fd ff ff	 movss	 DWORD PTR $T15[ebp], xmm0
  01d8c	51		 push	 ecx
  01d8d	f3 0f 10 85 9c
	fe ff ff	 movss	 xmm0, DWORD PTR _scaling$45[ebp]
  01d95	f3 0f 11 04 24	 movss	 DWORD PTR [esp], xmm0
  01d9a	e8 00 00 00 00	 call	 ?fabs@@YGMM@Z		; fabs
  01d9f	d9 9d 40 fd ff
	ff		 fstp	 DWORD PTR $T14[ebp]
  01da5	8d 85 44 fd ff
	ff		 lea	 eax, DWORD PTR $T15[ebp]
  01dab	50		 push	 eax
  01dac	8d 8d 40 fd ff
	ff		 lea	 ecx, DWORD PTR $T14[ebp]
  01db2	51		 push	 ecx
  01db3	e8 00 00 00 00	 call	 ??$min@M@std@@YGABMABM0@Z ; std::min<float>
  01db8	f3 0f 10 00	 movss	 xmm0, DWORD PTR [eax]
  01dbc	f3 0f 11 85 9c
	fe ff ff	 movss	 DWORD PTR _scaling$45[ebp], xmm0

; 1886 : 
; 1887 : 		//reaction_force += (0.0 - main_angular_force) * scaling;
; 1888 : 
; 1889 : 		position.x = 0.0;

  01dc4	0f 57 c0	 xorps	 xmm0, xmm0
  01dc7	f3 0f 11 85 20
	ff ff ff	 movss	 DWORD PTR _position$[ebp], xmm0

; 1890 : 		position.y = 0.0;

  01dcf	0f 57 c0	 xorps	 xmm0, xmm0
  01dd2	f3 0f 11 85 24
	ff ff ff	 movss	 DWORD PTR _position$[ebp+4], xmm0

; 1891 : 		position.z = -current_flight_dynamics->tail_boom_length.value;

  01dda	a1 00 00 00 00	 mov	 eax, DWORD PTR ?current_flight_dynamics@@3PAUDYNAMICS_TYPE@@A ; current_flight_dynamics
  01ddf	f3 0f 10 80 ac
	1f 00 00	 movss	 xmm0, DWORD PTR [eax+8108]
  01de7	0f 57 05 00 00
	00 00		 xorps	 xmm0, DWORD PTR __xmm@80000000800000008000000080000000
  01dee	f3 0f 11 85 28
	ff ff ff	 movss	 DWORD PTR _position$[ebp+8], xmm0

; 1892 : 
; 1893 : 		direction.x = 1.0;

  01df6	f3 0f 10 05 00
	00 00 00	 movss	 xmm0, DWORD PTR __real@3f800000
  01dfe	f3 0f 11 85 14
	ff ff ff	 movss	 DWORD PTR _direction$[ebp], xmm0

; 1894 : 		direction.y = 0.0;

  01e06	0f 57 c0	 xorps	 xmm0, xmm0
  01e09	f3 0f 11 85 18
	ff ff ff	 movss	 DWORD PTR _direction$[ebp+4], xmm0

; 1895 : 		direction.z = 0.0;

  01e11	0f 57 c0	 xorps	 xmm0, xmm0
  01e14	f3 0f 11 85 1c
	ff ff ff	 movss	 DWORD PTR _direction$[ebp+8], xmm0

; 1896 : 
; 1897 : 		if (current_flight_dynamics->tail_rotor_rpm.damaged)

  01e1c	a1 00 00 00 00	 mov	 eax, DWORD PTR ?current_flight_dynamics@@3PAUDYNAMICS_TYPE@@A ; current_flight_dynamics
  01e21	0f b7 88 5c 1f
	00 00		 movzx	 ecx, WORD PTR [eax+8028]
  01e28	85 c9		 test	 ecx, ecx
  01e2a	74 3b		 je	 SHORT $LN27@update_att

; 1898 : 		{
; 1899 : 
; 1900 : 			reaction_force *= 0.25 + 0.65 * (velocity_z_value / current_flight_dynamics->velocity_z.max);

  01e2c	a1 00 00 00 00	 mov	 eax, DWORD PTR ?current_flight_dynamics@@3PAUDYNAMICS_TYPE@@A ; current_flight_dynamics
  01e31	f3 0f 10 85 4c
	ff ff ff	 movss	 xmm0, DWORD PTR _velocity_z_value$[ebp]
  01e39	f3 0f 5e 80 a8
	20 00 00	 divss	 xmm0, DWORD PTR [eax+8360]
  01e41	f3 0f 5a c0	 cvtss2sd xmm0, xmm0
  01e45	f2 0f 59 05 00
	00 00 00	 mulsd	 xmm0, QWORD PTR __real@3fe4cccccccccccd
  01e4d	f2 0f 58 05 00
	00 00 00	 addsd	 xmm0, QWORD PTR __real@3fd0000000000000
  01e55	f3 0f 5a 4d 80	 cvtss2sd xmm1, DWORD PTR _reaction_force$[ebp]
  01e5a	f2 0f 59 c8	 mulsd	 xmm1, xmm0
  01e5e	f2 0f 5a c1	 cvtsd2ss xmm0, xmm1
  01e62	f3 0f 11 45 80	 movss	 DWORD PTR _reaction_force$[ebp], xmm0
$LN27@update_att:

; 1901 : 		}
; 1902 : 
; 1903 : 		add_dynamic_force ("Yaw resistance", reaction_force, 0.0, &position, &direction, FALSE);

  01e67	6a 00		 push	 0
  01e69	8d 85 14 ff ff
	ff		 lea	 eax, DWORD PTR _direction$[ebp]
  01e6f	50		 push	 eax
  01e70	8d 8d 20 ff ff
	ff		 lea	 ecx, DWORD PTR _position$[ebp]
  01e76	51		 push	 ecx
  01e77	51		 push	 ecx
  01e78	0f 57 c0	 xorps	 xmm0, xmm0
  01e7b	f3 0f 11 04 24	 movss	 DWORD PTR [esp], xmm0
  01e80	51		 push	 ecx
  01e81	f3 0f 10 45 80	 movss	 xmm0, DWORD PTR _reaction_force$[ebp]
  01e86	f3 0f 11 04 24	 movss	 DWORD PTR [esp], xmm0
  01e8b	68 00 00 00 00	 push	 OFFSET ??_C@_0P@OJCKBBIP@Yaw?5resistance@
  01e90	e8 00 00 00 00	 call	 ?add_dynamic_force@@YGXPBDMMPAUVEC3D@@1H@Z ; add_dynamic_force

; 1904 : 	}
; 1905 : 	////////////////////////////////////////////
; 1906 : 	// Fuselage aerodynamics motion_vector -> attitude realignment force in the y axis
; 1907 : 	////////////////////////////////////////////
; 1908 : 	if ((!model_landed) &&

  01e95	83 7d fc 00	 cmp	 DWORD PTR _model_landed$[ebp], 0
  01e99	0f 85 5e 02 00
	00		 jne	 $LN29@update_att
  01e9f	a1 00 00 00 00	 mov	 eax, DWORD PTR ?current_flight_dynamics@@3PAUDYNAMICS_TYPE@@A ; current_flight_dynamics
  01ea4	8b 88 24 25 00
	00		 mov	 ecx, DWORD PTR [eax+9508]
  01eaa	83 e1 02	 and	 ecx, 2
  01ead	0f 85 4a 02 00
	00		 jne	 $LN29@update_att

; 1909 : 		(!(current_flight_dynamics->dynamics_damage & DYNAMICS_DAMAGE_MAIN_ROTOR)))
; 1910 : 	{
; 1911 : 
; 1912 : 		if (!check_zero_3d_vector (&model_motion_vector))

  01eb3	8d 85 f0 fe ff
	ff		 lea	 eax, DWORD PTR _model_motion_vector$[ebp]
  01eb9	50		 push	 eax
  01eba	e8 00 00 00 00	 call	 ?get_3d_vector_magnitude@@YGMPBUVEC3D@@@Z ; get_3d_vector_magnitude
  01ebf	dd 9d fc fc ff
	ff		 fstp	 QWORD PTR tv2858[ebp]
  01ec5	f2 0f 10 85 fc
	fc ff ff	 movsd	 xmm0, QWORD PTR tv2858[ebp]
  01ecd	66 0f 2e 05 00
	00 00 00	 ucomisd xmm0, QWORD PTR __real@0000000000000000
  01ed5	9f		 lahf
  01ed6	f6 c4 44	 test	 ah, 68			; 00000044H
  01ed9	0f 8b 1e 02 00
	00		 jnp	 $LN29@update_att

; 1913 : 		{
; 1914 : 			float calibrated_velocity = max(horizontal_velocity - 3.0, 0.0);

  01edf	0f 57 c0	 xorps	 xmm0, xmm0
  01ee2	f2 0f 11 85 38
	fd ff ff	 movsd	 QWORD PTR $T13[ebp], xmm0
  01eea	f3 0f 5a 85 48
	ff ff ff	 cvtss2sd xmm0, DWORD PTR _horizontal_velocity$[ebp]
  01ef2	f2 0f 5c 05 00
	00 00 00	 subsd	 xmm0, QWORD PTR __real@4008000000000000
  01efa	f2 0f 11 85 30
	fd ff ff	 movsd	 QWORD PTR $T12[ebp], xmm0
  01f02	8d 85 38 fd ff
	ff		 lea	 eax, DWORD PTR $T13[ebp]
  01f08	50		 push	 eax
  01f09	8d 8d 30 fd ff
	ff		 lea	 ecx, DWORD PTR $T12[ebp]
  01f0f	51		 push	 ecx
  01f10	e8 00 00 00 00	 call	 ??$max@N@std@@YGABNABN0@Z ; std::max<double>
  01f15	f2 0f 5a 00	 cvtsd2ss xmm0, QWORD PTR [eax]
  01f19	f3 0f 11 85 94
	fe ff ff	 movss	 DWORD PTR _calibrated_velocity$43[ebp], xmm0

; 1915 : 
; 1916 : 			vec3d
; 1917 : 				unnormalised_direction;
; 1918 : 
; 1919 : 			direction = model_motion_vector;

  01f21	8b 85 f0 fe ff
	ff		 mov	 eax, DWORD PTR _model_motion_vector$[ebp]
  01f27	89 85 14 ff ff
	ff		 mov	 DWORD PTR _direction$[ebp], eax
  01f2d	8b 8d f4 fe ff
	ff		 mov	 ecx, DWORD PTR _model_motion_vector$[ebp+4]
  01f33	89 8d 18 ff ff
	ff		 mov	 DWORD PTR _direction$[ebp+4], ecx
  01f39	8b 95 f8 fe ff
	ff		 mov	 edx, DWORD PTR _model_motion_vector$[ebp+8]
  01f3f	89 95 1c ff ff
	ff		 mov	 DWORD PTR _direction$[ebp+8], edx

; 1920 : 
; 1921 : 			invert_3d_vector (&direction);

  01f45	8d 85 14 ff ff
	ff		 lea	 eax, DWORD PTR _direction$[ebp]
  01f4b	50		 push	 eax
  01f4c	e8 00 00 00 00	 call	 ?invert_3d_vector@@YGXPAUVEC3D@@@Z ; invert_3d_vector

; 1922 : 
; 1923 : 			unnormalised_direction = direction;

  01f51	8b 85 14 ff ff
	ff		 mov	 eax, DWORD PTR _direction$[ebp]
  01f57	89 85 88 fe ff
	ff		 mov	 DWORD PTR _unnormalised_direction$42[ebp], eax
  01f5d	8b 8d 18 ff ff
	ff		 mov	 ecx, DWORD PTR _direction$[ebp+4]
  01f63	89 8d 8c fe ff
	ff		 mov	 DWORD PTR _unnormalised_direction$42[ebp+4], ecx
  01f69	8b 95 1c ff ff
	ff		 mov	 edx, DWORD PTR _direction$[ebp+8]
  01f6f	89 95 90 fe ff
	ff		 mov	 DWORD PTR _unnormalised_direction$42[ebp+8], edx

; 1924 : 
; 1925 : 			// arneh, 20060813 - reduce banking effect on heading change at slow speed
; 1926 : //			force = 0.003 * (horizontal_velocity * horizontal_velocity) * current_flight_dynamics->tail_boom_length.value;
; 1927 : 			force = 0.0030 * (calibrated_velocity * calibrated_velocity) * current_flight_dynamics->tail_boom_length.value;

  01f75	f3 0f 10 85 94
	fe ff ff	 movss	 xmm0, DWORD PTR _calibrated_velocity$43[ebp]
  01f7d	f3 0f 59 85 94
	fe ff ff	 mulss	 xmm0, DWORD PTR _calibrated_velocity$43[ebp]
  01f85	f3 0f 5a c0	 cvtss2sd xmm0, xmm0
  01f89	f2 0f 59 05 00
	00 00 00	 mulsd	 xmm0, QWORD PTR __real@3f689374bc6a7efa
  01f91	a1 00 00 00 00	 mov	 eax, DWORD PTR ?current_flight_dynamics@@3PAUDYNAMICS_TYPE@@A ; current_flight_dynamics
  01f96	f3 0f 5a 88 ac
	1f 00 00	 cvtss2sd xmm1, DWORD PTR [eax+8108]
  01f9e	f2 0f 59 c1	 mulsd	 xmm0, xmm1
  01fa2	f2 0f 5a c0	 cvtsd2ss xmm0, xmm0
  01fa6	f3 0f 11 45 98	 movss	 DWORD PTR _force$[ebp], xmm0

; 1928 : 
; 1929 : //			force = (motion_vector_magnitude * motion_vector_magnitude) / (3.5 * current_flight_dynamics->tail_boom_length.value);
; 1930 : 
; 1931 : 			this_reaction_force += (force - this_reaction_force) * get_model_delta_time ();

  01fab	f3 0f 10 45 98	 movss	 xmm0, DWORD PTR _force$[ebp]
  01fb0	f3 0f 5c 05 00
	00 00 00	 subss	 xmm0, DWORD PTR ?this_reaction_force@@3MA
  01fb8	a1 00 00 00 00	 mov	 eax, DWORD PTR ?current_flight_dynamics@@3PAUDYNAMICS_TYPE@@A ; current_flight_dynamics
  01fbd	f3 0f 59 80 90
	00 00 00	 mulss	 xmm0, DWORD PTR [eax+144]
  01fc5	f3 0f 58 05 00
	00 00 00	 addss	 xmm0, DWORD PTR ?this_reaction_force@@3MA
  01fcd	f3 0f 11 05 00
	00 00 00	 movss	 DWORD PTR ?this_reaction_force@@3MA, xmm0

; 1932 : 
; 1933 : 			this_reaction_force = bound (this_reaction_force, -100.0, 100.0);

  01fd5	f3 0f 5a 05 00
	00 00 00	 cvtss2sd xmm0, DWORD PTR ?this_reaction_force@@3MA
  01fdd	f2 0f 10 0d 00
	00 00 00	 movsd	 xmm1, QWORD PTR __real@c059000000000000
  01fe5	66 0f 2f c8	 comisd	 xmm1, xmm0
  01fe9	76 12		 jbe	 SHORT $LN109@update_att
  01feb	f2 0f 10 05 00
	00 00 00	 movsd	 xmm0, QWORD PTR __real@c059000000000000
  01ff3	f2 0f 11 85 fc
	fc ff ff	 movsd	 QWORD PTR tv1120[ebp], xmm0
  01ffb	eb 44		 jmp	 SHORT $LN110@update_att
$LN109@update_att:
  01ffd	f3 0f 5a 05 00
	00 00 00	 cvtss2sd xmm0, DWORD PTR ?this_reaction_force@@3MA
  02005	66 0f 2f 05 00
	00 00 00	 comisd	 xmm0, QWORD PTR __real@4059000000000000
  0200d	76 12		 jbe	 SHORT $LN107@update_att
  0200f	f2 0f 10 05 00
	00 00 00	 movsd	 xmm0, QWORD PTR __real@4059000000000000
  02017	f2 0f 11 85 f4
	fc ff ff	 movsd	 QWORD PTR tv1119[ebp], xmm0
  0201f	eb 10		 jmp	 SHORT $LN108@update_att
$LN107@update_att:
  02021	f3 0f 5a 05 00
	00 00 00	 cvtss2sd xmm0, DWORD PTR ?this_reaction_force@@3MA
  02029	f2 0f 11 85 f4
	fc ff ff	 movsd	 QWORD PTR tv1119[ebp], xmm0
$LN108@update_att:
  02031	f2 0f 10 85 f4
	fc ff ff	 movsd	 xmm0, QWORD PTR tv1119[ebp]
  02039	f2 0f 11 85 fc
	fc ff ff	 movsd	 QWORD PTR tv1120[ebp], xmm0
$LN110@update_att:
  02041	f2 0f 5a 85 fc
	fc ff ff	 cvtsd2ss xmm0, QWORD PTR tv1120[ebp]
  02049	f3 0f 11 05 00
	00 00 00	 movss	 DWORD PTR ?this_reaction_force@@3MA, xmm0

; 1934 : 
; 1935 : 			normalise_any_3d_vector (&direction);

  02051	8d 85 14 ff ff
	ff		 lea	 eax, DWORD PTR _direction$[ebp]
  02057	50		 push	 eax
  02058	e8 00 00 00 00	 call	 ?normalise_any_3d_vector@@YGMPAUVEC3D@@@Z ; normalise_any_3d_vector
  0205d	dd d8		 fstp	 ST(0)

; 1936 : 
; 1937 : 			direction.y = 0.0;

  0205f	0f 57 c0	 xorps	 xmm0, xmm0
  02062	f3 0f 11 85 18
	ff ff ff	 movss	 DWORD PTR _direction$[ebp+4], xmm0

; 1938 : 			direction.z = 0.0;

  0206a	0f 57 c0	 xorps	 xmm0, xmm0
  0206d	f3 0f 11 85 1c
	ff ff ff	 movss	 DWORD PTR _direction$[ebp+8], xmm0

; 1939 : 
; 1940 : 			position.x = 0.0;

  02075	0f 57 c0	 xorps	 xmm0, xmm0
  02078	f3 0f 11 85 20
	ff ff ff	 movss	 DWORD PTR _position$[ebp], xmm0

; 1941 : 			position.y = 0.0;

  02080	0f 57 c0	 xorps	 xmm0, xmm0
  02083	f3 0f 11 85 24
	ff ff ff	 movss	 DWORD PTR _position$[ebp+4], xmm0

; 1942 : 			position.z = -current_flight_dynamics->tail_boom_length.value;

  0208b	a1 00 00 00 00	 mov	 eax, DWORD PTR ?current_flight_dynamics@@3PAUDYNAMICS_TYPE@@A ; current_flight_dynamics
  02090	f3 0f 10 80 ac
	1f 00 00	 movss	 xmm0, DWORD PTR [eax+8108]
  02098	0f 57 05 00 00
	00 00		 xorps	 xmm0, DWORD PTR __xmm@80000000800000008000000080000000
  0209f	f3 0f 11 85 28
	ff ff ff	 movss	 DWORD PTR _position$[ebp+8], xmm0

; 1943 : 
; 1944 : 			//Werewolf 3 Jan 04
; 1945 : 			if (command_line_dynamics_flight_model == 1)

  020a7	83 3d 00 00 00
	00 01		 cmp	 DWORD PTR ?command_line_dynamics_flight_model@@3HA, 1 ; command_line_dynamics_flight_model
  020ae	75 1c		 jne	 SHORT $LN30@update_att

; 1946 : 				this_reaction_force *= 0.2;

  020b0	f3 0f 5a 05 00
	00 00 00	 cvtss2sd xmm0, DWORD PTR ?this_reaction_force@@3MA
  020b8	f2 0f 59 05 00
	00 00 00	 mulsd	 xmm0, QWORD PTR __real@3fc999999999999a
  020c0	f2 0f 5a c0	 cvtsd2ss xmm0, xmm0
  020c4	f3 0f 11 05 00
	00 00 00	 movss	 DWORD PTR ?this_reaction_force@@3MA, xmm0
$LN30@update_att:

; 1947 : 
; 1948 : 			add_dynamic_force ("Realign force (Y axis)", this_reaction_force, 0.0, &position, &direction, FALSE);

  020cc	6a 00		 push	 0
  020ce	8d 85 14 ff ff
	ff		 lea	 eax, DWORD PTR _direction$[ebp]
  020d4	50		 push	 eax
  020d5	8d 8d 20 ff ff
	ff		 lea	 ecx, DWORD PTR _position$[ebp]
  020db	51		 push	 ecx
  020dc	51		 push	 ecx
  020dd	0f 57 c0	 xorps	 xmm0, xmm0
  020e0	f3 0f 11 04 24	 movss	 DWORD PTR [esp], xmm0
  020e5	51		 push	 ecx
  020e6	f3 0f 10 05 00
	00 00 00	 movss	 xmm0, DWORD PTR ?this_reaction_force@@3MA
  020ee	f3 0f 11 04 24	 movss	 DWORD PTR [esp], xmm0
  020f3	68 00 00 00 00	 push	 OFFSET ??_C@_0BH@EICDHFJI@Realign?5force?5?$CIY?5axis?$CJ@
  020f8	e8 00 00 00 00	 call	 ?add_dynamic_force@@YGXPBDMMPAUVEC3D@@1H@Z ; add_dynamic_force
$LN29@update_att:

; 1949 : 		}
; 1950 : 	}
; 1951 : 
; 1952 : 	/////////////////////////////////////////////////////////////////////////////////////////////////////////////////////////////////
; 1953 : 	// Aerodynamics
; 1954 : 	/////////////////////////////////////////////////////////////////////////////////////////////////////////////////////////////////
; 1955 : 
; 1956 : 	////////////////////////////////////////////
; 1957 : 	// Fuselage aerodynamics motion_vector -> attitude realignment force in the x axis
; 1958 : 	////////////////////////////////////////////
; 1959 : 	if ((!model_landed) &&

  020fd	83 7d fc 00	 cmp	 DWORD PTR _model_landed$[ebp], 0
  02101	0f 85 21 01 00
	00		 jne	 $LN31@update_att
  02107	a1 00 00 00 00	 mov	 eax, DWORD PTR ?current_flight_dynamics@@3PAUDYNAMICS_TYPE@@A ; current_flight_dynamics
  0210c	8b 88 24 25 00
	00		 mov	 ecx, DWORD PTR [eax+9508]
  02112	83 e1 02	 and	 ecx, 2
  02115	0f 85 0d 01 00
	00		 jne	 $LN31@update_att

; 1960 : 		(!(current_flight_dynamics->dynamics_damage & DYNAMICS_DAMAGE_MAIN_ROTOR)))
; 1961 : 	{
; 1962 : 
; 1963 : 		reaction_force = 10.0 * (current_flight_dynamics->pitch.delta + current_flight_dynamics->main_rotor_pitch_angle.delta);

  0211b	a1 00 00 00 00	 mov	 eax, DWORD PTR ?current_flight_dynamics@@3PAUDYNAMICS_TYPE@@A ; current_flight_dynamics
  02120	8b 0d 00 00 00
	00		 mov	 ecx, DWORD PTR ?current_flight_dynamics@@3PAUDYNAMICS_TYPE@@A ; current_flight_dynamics
  02126	f3 0f 10 80 60
	21 00 00	 movss	 xmm0, DWORD PTR [eax+8544]
  0212e	f3 0f 58 81 00
	1e 00 00	 addss	 xmm0, DWORD PTR [ecx+7680]
  02136	f3 0f 5a c0	 cvtss2sd xmm0, xmm0
  0213a	f2 0f 59 05 00
	00 00 00	 mulsd	 xmm0, QWORD PTR __real@4024000000000000
  02142	f2 0f 5a c0	 cvtsd2ss xmm0, xmm0
  02146	f3 0f 11 45 80	 movss	 DWORD PTR _reaction_force$[ebp], xmm0

; 1964 : 
; 1965 : 		if (current_flight_dynamics->velocity_z.max != 0.0)

  0214b	a1 00 00 00 00	 mov	 eax, DWORD PTR ?current_flight_dynamics@@3PAUDYNAMICS_TYPE@@A ; current_flight_dynamics
  02150	f3 0f 5a 80 a8
	20 00 00	 cvtss2sd xmm0, DWORD PTR [eax+8360]
  02158	66 0f 2e 05 00
	00 00 00	 ucomisd xmm0, QWORD PTR __real@0000000000000000
  02160	9f		 lahf
  02161	f6 c4 44	 test	 ah, 68			; 00000044H
  02164	7b 21		 jnp	 SHORT $LN32@update_att

; 1966 : 			reaction_force *= horizontal_velocity / current_flight_dynamics->velocity_z.max;

  02166	a1 00 00 00 00	 mov	 eax, DWORD PTR ?current_flight_dynamics@@3PAUDYNAMICS_TYPE@@A ; current_flight_dynamics
  0216b	f3 0f 10 85 48
	ff ff ff	 movss	 xmm0, DWORD PTR _horizontal_velocity$[ebp]
  02173	f3 0f 5e 80 a8
	20 00 00	 divss	 xmm0, DWORD PTR [eax+8360]
  0217b	f3 0f 59 45 80	 mulss	 xmm0, DWORD PTR _reaction_force$[ebp]
  02180	f3 0f 11 45 80	 movss	 DWORD PTR _reaction_force$[ebp], xmm0

; 1967 : 		else

  02185	eb 08		 jmp	 SHORT $LN33@update_att
$LN32@update_att:

; 1968 : 			reaction_force = 0.0;

  02187	0f 57 c0	 xorps	 xmm0, xmm0
  0218a	f3 0f 11 45 80	 movss	 DWORD PTR _reaction_force$[ebp], xmm0
$LN33@update_att:

; 1969 : 
; 1970 : 		position.x = 0.0;

  0218f	0f 57 c0	 xorps	 xmm0, xmm0
  02192	f3 0f 11 85 20
	ff ff ff	 movss	 DWORD PTR _position$[ebp], xmm0

; 1971 : 		position.y = 0.0;

  0219a	0f 57 c0	 xorps	 xmm0, xmm0
  0219d	f3 0f 11 85 24
	ff ff ff	 movss	 DWORD PTR _position$[ebp+4], xmm0

; 1972 : 		position.z = 7.299;

  021a5	f3 0f 10 05 00
	00 00 00	 movss	 xmm0, DWORD PTR __real@40e99168
  021ad	f3 0f 11 85 28
	ff ff ff	 movss	 DWORD PTR _position$[ebp+8], xmm0

; 1973 : 
; 1974 : 		direction.x = 0.0;

  021b5	0f 57 c0	 xorps	 xmm0, xmm0
  021b8	f3 0f 11 85 14
	ff ff ff	 movss	 DWORD PTR _direction$[ebp], xmm0

; 1975 : 		direction.y = -1.0;

  021c0	f3 0f 10 05 00
	00 00 00	 movss	 xmm0, DWORD PTR __real@bf800000
  021c8	f3 0f 11 85 18
	ff ff ff	 movss	 DWORD PTR _direction$[ebp+4], xmm0

; 1976 : 		direction.z = 0.0;

  021d0	0f 57 c0	 xorps	 xmm0, xmm0
  021d3	f3 0f 11 85 1c
	ff ff ff	 movss	 DWORD PTR _direction$[ebp+8], xmm0

; 1977 : 
; 1978 : 		//Werewolf 3 Jan 04
; 1979 : 		if (command_line_dynamics_flight_model == 1)

  021db	83 3d 00 00 00
	00 01		 cmp	 DWORD PTR ?command_line_dynamics_flight_model@@3HA, 1 ; command_line_dynamics_flight_model
  021e2	75 16		 jne	 SHORT $LN34@update_att

; 1980 : 			reaction_force *= 0.2;

  021e4	f3 0f 5a 45 80	 cvtss2sd xmm0, DWORD PTR _reaction_force$[ebp]
  021e9	f2 0f 59 05 00
	00 00 00	 mulsd	 xmm0, QWORD PTR __real@3fc999999999999a
  021f1	f2 0f 5a c0	 cvtsd2ss xmm0, xmm0
  021f5	f3 0f 11 45 80	 movss	 DWORD PTR _reaction_force$[ebp], xmm0
$LN34@update_att:

; 1981 : 
; 1982 : 		add_dynamic_force ("Realign force (X axis)", reaction_force, 0.0, &position, &direction, FALSE);

  021fa	6a 00		 push	 0
  021fc	8d 85 14 ff ff
	ff		 lea	 eax, DWORD PTR _direction$[ebp]
  02202	50		 push	 eax
  02203	8d 8d 20 ff ff
	ff		 lea	 ecx, DWORD PTR _position$[ebp]
  02209	51		 push	 ecx
  0220a	51		 push	 ecx
  0220b	0f 57 c0	 xorps	 xmm0, xmm0
  0220e	f3 0f 11 04 24	 movss	 DWORD PTR [esp], xmm0
  02213	51		 push	 ecx
  02214	f3 0f 10 45 80	 movss	 xmm0, DWORD PTR _reaction_force$[ebp]
  02219	f3 0f 11 04 24	 movss	 DWORD PTR [esp], xmm0
  0221e	68 00 00 00 00	 push	 OFFSET ??_C@_0BH@IEIJHFAG@Realign?5force?5?$CIX?5axis?$CJ@
  02223	e8 00 00 00 00	 call	 ?add_dynamic_force@@YGXPBDMMPAUVEC3D@@1H@Z ; add_dynamic_force
$LN31@update_att:

; 1983 : 	}
; 1984 : 	////////////////////////////////////////////
; 1985 : 	// forward drag caused by yaw input
; 1986 : 	////////////////////////////////////////////
; 1987 : /*	{
; 1988 : 	// arneh 20061008 - removed this force. yaw itself doesn't cause extra drag with co-axial
; 1989 : 	// rotors, but drag of exposing the side of the aircraft to the airstream does increase drag
; 1990 : 
; 1991 : 		float
; 1992 : 			a;
; 1993 : 
; 1994 : 		float
; 1995 : 			drag;
; 1996 : 
; 1997 : 		a = 0.0823;
; 1998 : 
; 1999 : 		drag = a * command_line_dynamics_tail_rotor_drag * fabs (current_flight_dynamics->tail_blade_pitch.value);
; 2000 : 
; 2001 : 		reaction_force = drag * motion_vector_magnitude * motion_vector_magnitude;
; 2002 : 
; 2003 : 		position.x = 0.0;
; 2004 : 		position.y = 0.0;
; 2005 : 		position.z = 7.299;
; 2006 : 
; 2007 : 		direction.x = 0.0;
; 2008 : 		direction.y = 0.0;
; 2009 : 		direction.z = -1.0;
; 2010 : 
; 2011 : 		add_dynamic_force ("Forward motion Yaw input drag", reaction_force, 0.0, &position, &direction, FALSE);
; 2012 : 	} */
; 2013 : 	////////////////////////////////////////////
; 2014 : 	// Resistance to forward movement
; 2015 : 	////////////////////////////////////////////
; 2016 : 	if (!model_landed)

  02228	83 7d fc 00	 cmp	 DWORD PTR _model_landed$[ebp], 0
  0222c	0f 85 63 01 00
	00		 jne	 $LN35@update_att

; 2017 : 	{
; 2018 : 
; 2019 : 		float
; 2020 : 			sign,
; 2021 : 			drag;
; 2022 : 
; 2023 : 		drag = 0.00034 + (0.034 * command_line_dynamics_main_rotor_drag * max (current_flight_dynamics->pitch.value, 0.0f));

  02232	0f 57 c0	 xorps	 xmm0, xmm0
  02235	f3 0f 11 85 2c
	fd ff ff	 movss	 DWORD PTR $T11[ebp], xmm0
  0223d	f3 0f 5a 05 00
	00 00 00	 cvtss2sd xmm0, DWORD PTR ?command_line_dynamics_main_rotor_drag@@3MA
  02245	f2 0f 59 05 00
	00 00 00	 mulsd	 xmm0, QWORD PTR __real@3fa16872b020c49c
  0224d	8d 85 2c fd ff
	ff		 lea	 eax, DWORD PTR $T11[ebp]
  02253	50		 push	 eax
  02254	8b 0d 00 00 00
	00		 mov	 ecx, DWORD PTR ?current_flight_dynamics@@3PAUDYNAMICS_TYPE@@A ; current_flight_dynamics
  0225a	81 c1 5c 21 00
	00		 add	 ecx, 8540		; 0000215cH
  02260	51		 push	 ecx
  02261	f2 0f 11 85 fc
	fc ff ff	 movsd	 QWORD PTR tv3529[ebp], xmm0
  02269	e8 00 00 00 00	 call	 ??$max@M@std@@YGABMABM0@Z ; std::max<float>
  0226e	f3 0f 5a 00	 cvtss2sd xmm0, DWORD PTR [eax]
  02272	f2 0f 10 8d fc
	fc ff ff	 movsd	 xmm1, QWORD PTR tv3529[ebp]
  0227a	f2 0f 59 c8	 mulsd	 xmm1, xmm0
  0227e	f2 0f 58 0d 00
	00 00 00	 addsd	 xmm1, QWORD PTR __real@3f364840e1719f80
  02286	f2 0f 5a c1	 cvtsd2ss xmm0, xmm1
  0228a	f3 0f 11 85 80
	fe ff ff	 movss	 DWORD PTR _drag$40[ebp], xmm0

; 2024 : 
; 2025 : 		reaction_force = drag * motion_vector_magnitude * motion_vector_magnitude;

  02292	f3 0f 10 85 80
	fe ff ff	 movss	 xmm0, DWORD PTR _drag$40[ebp]
  0229a	f3 0f 59 45 a4	 mulss	 xmm0, DWORD PTR _motion_vector_magnitude$[ebp]
  0229f	f3 0f 59 45 a4	 mulss	 xmm0, DWORD PTR _motion_vector_magnitude$[ebp]
  022a4	f3 0f 11 45 80	 movss	 DWORD PTR _reaction_force$[ebp], xmm0

; 2026 : 
; 2027 : 		sign = 1.0;

  022a9	f3 0f 10 05 00
	00 00 00	 movss	 xmm0, DWORD PTR __real@3f800000
  022b1	f3 0f 11 85 84
	fe ff ff	 movss	 DWORD PTR _sign$41[ebp], xmm0

; 2028 : 		if (velocity_z_value != 0.0 && velocity_z_value < 0.0)

  022b9	f3 0f 5a 85 4c
	ff ff ff	 cvtss2sd xmm0, DWORD PTR _velocity_z_value$[ebp]
  022c1	66 0f 2e 05 00
	00 00 00	 ucomisd xmm0, QWORD PTR __real@0000000000000000
  022c9	9f		 lahf
  022ca	f6 c4 44	 test	 ah, 68			; 00000044H
  022cd	7b 21		 jnp	 SHORT $LN36@update_att
  022cf	f3 0f 5a 85 4c
	ff ff ff	 cvtss2sd xmm0, DWORD PTR _velocity_z_value$[ebp]
  022d7	0f 57 c9	 xorps	 xmm1, xmm1
  022da	66 0f 2f c8	 comisd	 xmm1, xmm0
  022de	76 10		 jbe	 SHORT $LN36@update_att

; 2029 : 			sign = -1.0;

  022e0	f3 0f 10 05 00
	00 00 00	 movss	 xmm0, DWORD PTR __real@bf800000
  022e8	f3 0f 11 85 84
	fe ff ff	 movss	 DWORD PTR _sign$41[ebp], xmm0
$LN36@update_att:

; 2030 : 
; 2031 : 		position.x = 0.0;

  022f0	0f 57 c0	 xorps	 xmm0, xmm0
  022f3	f3 0f 11 85 20
	ff ff ff	 movss	 DWORD PTR _position$[ebp], xmm0

; 2032 : 		position.y = 0.0;

  022fb	0f 57 c0	 xorps	 xmm0, xmm0
  022fe	f3 0f 11 85 24
	ff ff ff	 movss	 DWORD PTR _position$[ebp+4], xmm0

; 2033 : 		position.z = 7.299;

  02306	f3 0f 10 05 00
	00 00 00	 movss	 xmm0, DWORD PTR __real@40e99168
  0230e	f3 0f 11 85 28
	ff ff ff	 movss	 DWORD PTR _position$[ebp+8], xmm0

; 2034 : 
; 2035 : 		direction.x = 0.0;

  02316	0f 57 c0	 xorps	 xmm0, xmm0
  02319	f3 0f 11 85 14
	ff ff ff	 movss	 DWORD PTR _direction$[ebp], xmm0

; 2036 : 		direction.y = 0.0;

  02321	0f 57 c0	 xorps	 xmm0, xmm0
  02324	f3 0f 11 85 18
	ff ff ff	 movss	 DWORD PTR _direction$[ebp+4], xmm0

; 2037 : 		direction.z = -1.0 * sign;

  0232c	f3 0f 5a 85 84
	fe ff ff	 cvtss2sd xmm0, DWORD PTR _sign$41[ebp]
  02334	f2 0f 59 05 00
	00 00 00	 mulsd	 xmm0, QWORD PTR __real@bff0000000000000
  0233c	f2 0f 5a c0	 cvtsd2ss xmm0, xmm0
  02340	f3 0f 11 85 1c
	ff ff ff	 movss	 DWORD PTR _direction$[ebp+8], xmm0

; 2038 : 
; 2039 : 		//Werewolf 3 Jan 04
; 2040 : 		if (command_line_dynamics_flight_model == 1)

  02348	83 3d 00 00 00
	00 01		 cmp	 DWORD PTR ?command_line_dynamics_flight_model@@3HA, 1 ; command_line_dynamics_flight_model
  0234f	75 16		 jne	 SHORT $LN37@update_att

; 2041 : 			reaction_force *= 0.6;

  02351	f3 0f 5a 45 80	 cvtss2sd xmm0, DWORD PTR _reaction_force$[ebp]
  02356	f2 0f 59 05 00
	00 00 00	 mulsd	 xmm0, QWORD PTR __real@3fe3333333333333
  0235e	f2 0f 5a c0	 cvtsd2ss xmm0, xmm0
  02362	f3 0f 11 45 80	 movss	 DWORD PTR _reaction_force$[ebp], xmm0
$LN37@update_att:

; 2042 : 
; 2043 : 		add_dynamic_force ("Forward motion drag", reaction_force, 0.0, &position, &direction, FALSE);

  02367	6a 00		 push	 0
  02369	8d 85 14 ff ff
	ff		 lea	 eax, DWORD PTR _direction$[ebp]
  0236f	50		 push	 eax
  02370	8d 8d 20 ff ff
	ff		 lea	 ecx, DWORD PTR _position$[ebp]
  02376	51		 push	 ecx
  02377	51		 push	 ecx
  02378	0f 57 c0	 xorps	 xmm0, xmm0
  0237b	f3 0f 11 04 24	 movss	 DWORD PTR [esp], xmm0
  02380	51		 push	 ecx
  02381	f3 0f 10 45 80	 movss	 xmm0, DWORD PTR _reaction_force$[ebp]
  02386	f3 0f 11 04 24	 movss	 DWORD PTR [esp], xmm0
  0238b	68 00 00 00 00	 push	 OFFSET ??_C@_0BE@JPPEFMCN@Forward?5motion?5drag@
  02390	e8 00 00 00 00	 call	 ?add_dynamic_force@@YGXPBDMMPAUVEC3D@@1H@Z ; add_dynamic_force
$LN35@update_att:

; 2044 : 	}
; 2045 : 	////////////////////////////////////////////
; 2046 : 	// Resistance to lateral movement
; 2047 : 	////////////////////////////////////////////
; 2048 : 	if (!model_landed)

  02395	83 7d fc 00	 cmp	 DWORD PTR _model_landed$[ebp], 0
  02399	0f 85 48 01 00
	00		 jne	 $LN38@update_att

; 2049 : 	{
; 2050 : 
; 2051 : 		float
; 2052 : 			Fmax;
; 2053 : 
; 2054 : 		// arneh 20060813 - reduce drag in sideway flight - compensated by reduced lift.
; 2055 : 		// makes it impossible to keep flying sideways at insane bank angles without losing altitude
; 2056 : 		Fmax = 0.5;

  0239f	f3 0f 10 05 00
	00 00 00	 movss	 xmm0, DWORD PTR __real@3f000000
  023a7	f3 0f 11 85 7c
	fe ff ff	 movss	 DWORD PTR _Fmax$39[ebp], xmm0

; 2057 : 
; 2058 : 		if (current_flight_dynamics->velocity_x.max != 0.0)

  023af	a1 00 00 00 00	 mov	 eax, DWORD PTR ?current_flight_dynamics@@3PAUDYNAMICS_TYPE@@A ; current_flight_dynamics
  023b4	f3 0f 5a 80 78
	20 00 00	 cvtss2sd xmm0, DWORD PTR [eax+8312]
  023bc	66 0f 2e 05 00
	00 00 00	 ucomisd xmm0, QWORD PTR __real@0000000000000000
  023c4	9f		 lahf
  023c5	f6 c4 44	 test	 ah, 68			; 00000044H
  023c8	7b 7c		 jnp	 SHORT $LN39@update_att

; 2059 : 			reaction_force = Fmax * (fabs (model_motion_vector.x) * model_motion_vector.x) / pow (current_flight_dynamics->velocity_x.max, 2.0f);

  023ca	51		 push	 ecx
  023cb	f3 0f 10 85 f0
	fe ff ff	 movss	 xmm0, DWORD PTR _model_motion_vector$[ebp]
  023d3	f3 0f 11 04 24	 movss	 DWORD PTR [esp], xmm0
  023d8	e8 00 00 00 00	 call	 ?fabs@@YGMM@Z		; fabs
  023dd	d9 9d 00 fd ff
	ff		 fstp	 DWORD PTR tv2959[ebp]
  023e3	f3 0f 10 85 00
	fd ff ff	 movss	 xmm0, DWORD PTR tv2959[ebp]
  023eb	f3 0f 59 85 f0
	fe ff ff	 mulss	 xmm0, DWORD PTR _model_motion_vector$[ebp]
  023f3	f3 0f 59 85 7c
	fe ff ff	 mulss	 xmm0, DWORD PTR _Fmax$39[ebp]
  023fb	51		 push	 ecx
  023fc	f3 0f 10 0d 00
	00 00 00	 movss	 xmm1, DWORD PTR __real@40000000
  02404	f3 0f 11 0c 24	 movss	 DWORD PTR [esp], xmm1
  02409	a1 00 00 00 00	 mov	 eax, DWORD PTR ?current_flight_dynamics@@3PAUDYNAMICS_TYPE@@A ; current_flight_dynamics
  0240e	51		 push	 ecx
  0240f	f3 0f 10 88 78
	20 00 00	 movss	 xmm1, DWORD PTR [eax+8312]
  02417	f3 0f 11 0c 24	 movss	 DWORD PTR [esp], xmm1
  0241c	f3 0f 11 85 fc
	fc ff ff	 movss	 DWORD PTR tv3531[ebp], xmm0
  02424	e8 00 00 00 00	 call	 ?pow@@YGMMM@Z		; pow
  02429	d9 9d f8 fc ff
	ff		 fstp	 DWORD PTR tv2969[ebp]
  0242f	f3 0f 10 85 fc
	fc ff ff	 movss	 xmm0, DWORD PTR tv3531[ebp]
  02437	f3 0f 5e 85 f8
	fc ff ff	 divss	 xmm0, DWORD PTR tv2969[ebp]
  0243f	f3 0f 11 45 80	 movss	 DWORD PTR _reaction_force$[ebp], xmm0

; 2060 : 		else

  02444	eb 08		 jmp	 SHORT $LN40@update_att
$LN39@update_att:

; 2061 : 			reaction_force = 0.0;

  02446	0f 57 c0	 xorps	 xmm0, xmm0
  02449	f3 0f 11 45 80	 movss	 DWORD PTR _reaction_force$[ebp], xmm0
$LN40@update_att:

; 2062 : 
; 2063 : 		position.x = 7.299;

  0244e	f3 0f 10 05 00
	00 00 00	 movss	 xmm0, DWORD PTR __real@40e99168
  02456	f3 0f 11 85 20
	ff ff ff	 movss	 DWORD PTR _position$[ebp], xmm0

; 2064 : 		position.y = 0.0;

  0245e	0f 57 c0	 xorps	 xmm0, xmm0
  02461	f3 0f 11 85 24
	ff ff ff	 movss	 DWORD PTR _position$[ebp+4], xmm0

; 2065 : 		position.z = 0.0;

  02469	0f 57 c0	 xorps	 xmm0, xmm0
  0246c	f3 0f 11 85 28
	ff ff ff	 movss	 DWORD PTR _position$[ebp+8], xmm0

; 2066 : 
; 2067 : 		direction.x = -1.0;

  02474	f3 0f 10 05 00
	00 00 00	 movss	 xmm0, DWORD PTR __real@bf800000
  0247c	f3 0f 11 85 14
	ff ff ff	 movss	 DWORD PTR _direction$[ebp], xmm0

; 2068 : 		direction.y = 0.0;

  02484	0f 57 c0	 xorps	 xmm0, xmm0
  02487	f3 0f 11 85 18
	ff ff ff	 movss	 DWORD PTR _direction$[ebp+4], xmm0

; 2069 : 		direction.z = 0.0;

  0248f	0f 57 c0	 xorps	 xmm0, xmm0
  02492	f3 0f 11 85 1c
	ff ff ff	 movss	 DWORD PTR _direction$[ebp+8], xmm0

; 2070 : 
; 2071 : 		//Werewolf 3 Jan 04
; 2072 : 		if (command_line_dynamics_flight_model == 1)

  0249a	83 3d 00 00 00
	00 01		 cmp	 DWORD PTR ?command_line_dynamics_flight_model@@3HA, 1 ; command_line_dynamics_flight_model
  024a1	75 16		 jne	 SHORT $LN41@update_att

; 2073 : 			reaction_force *= 0.8;

  024a3	f3 0f 5a 45 80	 cvtss2sd xmm0, DWORD PTR _reaction_force$[ebp]
  024a8	f2 0f 59 05 00
	00 00 00	 mulsd	 xmm0, QWORD PTR __real@3fe999999999999a
  024b0	f2 0f 5a c0	 cvtsd2ss xmm0, xmm0
  024b4	f3 0f 11 45 80	 movss	 DWORD PTR _reaction_force$[ebp], xmm0
$LN41@update_att:

; 2074 : 
; 2075 : 		add_dynamic_force ("Lateral motion drag", reaction_force, 0.0, &position, &direction, FALSE);

  024b9	6a 00		 push	 0
  024bb	8d 85 14 ff ff
	ff		 lea	 eax, DWORD PTR _direction$[ebp]
  024c1	50		 push	 eax
  024c2	8d 8d 20 ff ff
	ff		 lea	 ecx, DWORD PTR _position$[ebp]
  024c8	51		 push	 ecx
  024c9	51		 push	 ecx
  024ca	0f 57 c0	 xorps	 xmm0, xmm0
  024cd	f3 0f 11 04 24	 movss	 DWORD PTR [esp], xmm0
  024d2	51		 push	 ecx
  024d3	f3 0f 10 45 80	 movss	 xmm0, DWORD PTR _reaction_force$[ebp]
  024d8	f3 0f 11 04 24	 movss	 DWORD PTR [esp], xmm0
  024dd	68 00 00 00 00	 push	 OFFSET ??_C@_0BE@DICEDONG@Lateral?5motion?5drag@
  024e2	e8 00 00 00 00	 call	 ?add_dynamic_force@@YGXPBDMMPAUVEC3D@@1H@Z ; add_dynamic_force
$LN38@update_att:

; 2076 : 	}
; 2077 : 	////////////////////////////////////////////
; 2078 : 	// Resistance to vertical movement
; 2079 : 	////////////////////////////////////////////
; 2080 : 	{
; 2081 : 
; 2082 : 		float
; 2083 : 			drag,
; 2084 : 			Fmax;
; 2085 : 
; 2086 : 		// ball park figures
; 2087 : 		if (world_motion_vector.y < 0.0)

  024e7	f3 0f 5a 85 00
	ff ff ff	 cvtss2sd xmm0, DWORD PTR _world_motion_vector$[ebp+4]
  024ef	0f 57 c9	 xorps	 xmm1, xmm1
  024f2	66 0f 2f c8	 comisd	 xmm1, xmm0
  024f6	0f 86 b1 00 00
	00		 jbe	 $LN42@update_att

; 2088 : 		{
; 2089 : 
; 2090 : 			// y = mx + c, drag 0.4 at 0m/s ->0.0001 at -30m/s
; 2091 : 
; 2092 : 			drag = 0.4 - (((0.4 - 0.0001) / 30.0) * -world_motion_vector.y);

  024fc	f3 0f 10 85 00
	ff ff ff	 movss	 xmm0, DWORD PTR _world_motion_vector$[ebp+4]
  02504	0f 57 05 00 00
	00 00		 xorps	 xmm0, DWORD PTR __xmm@80000000800000008000000080000000
  0250b	f3 0f 5a c0	 cvtss2sd xmm0, xmm0
  0250f	f2 0f 59 05 00
	00 00 00	 mulsd	 xmm0, QWORD PTR __real@3f8b4cc25072085c
  02517	f2 0f 10 0d 00
	00 00 00	 movsd	 xmm1, QWORD PTR __real@3fd999999999999a
  0251f	f2 0f 5c c8	 subsd	 xmm1, xmm0
  02523	f2 0f 5a c1	 cvtsd2ss xmm0, xmm1
  02527	f3 0f 11 85 78
	fe ff ff	 movss	 DWORD PTR _drag$38[ebp], xmm0

; 2093 : 
; 2094 : 			drag = bound (drag, 0.0001, 0.4);

  0252f	f3 0f 5a 85 78
	fe ff ff	 cvtss2sd xmm0, DWORD PTR _drag$38[ebp]
  02537	f2 0f 10 0d 00
	00 00 00	 movsd	 xmm1, QWORD PTR __real@3f1a36e2eb1c432d
  0253f	66 0f 2f c8	 comisd	 xmm1, xmm0
  02543	76 12		 jbe	 SHORT $LN113@update_att
  02545	f2 0f 10 05 00
	00 00 00	 movsd	 xmm0, QWORD PTR __real@3f1a36e2eb1c432d
  0254d	f2 0f 11 85 fc
	fc ff ff	 movsd	 QWORD PTR tv1235[ebp], xmm0
  02555	eb 44		 jmp	 SHORT $LN114@update_att
$LN113@update_att:
  02557	f3 0f 5a 85 78
	fe ff ff	 cvtss2sd xmm0, DWORD PTR _drag$38[ebp]
  0255f	66 0f 2f 05 00
	00 00 00	 comisd	 xmm0, QWORD PTR __real@3fd999999999999a
  02567	76 12		 jbe	 SHORT $LN111@update_att
  02569	f2 0f 10 05 00
	00 00 00	 movsd	 xmm0, QWORD PTR __real@3fd999999999999a
  02571	f2 0f 11 85 f4
	fc ff ff	 movsd	 QWORD PTR tv1234[ebp], xmm0
  02579	eb 10		 jmp	 SHORT $LN112@update_att
$LN111@update_att:
  0257b	f3 0f 5a 85 78
	fe ff ff	 cvtss2sd xmm0, DWORD PTR _drag$38[ebp]
  02583	f2 0f 11 85 f4
	fc ff ff	 movsd	 QWORD PTR tv1234[ebp], xmm0
$LN112@update_att:
  0258b	f2 0f 10 85 f4
	fc ff ff	 movsd	 xmm0, QWORD PTR tv1234[ebp]
  02593	f2 0f 11 85 fc
	fc ff ff	 movsd	 QWORD PTR tv1235[ebp], xmm0
$LN114@update_att:
  0259b	f2 0f 5a 85 fc
	fc ff ff	 cvtsd2ss xmm0, QWORD PTR tv1235[ebp]
  025a3	f3 0f 11 85 78
	fe ff ff	 movss	 DWORD PTR _drag$38[ebp], xmm0

; 2095 : 		}
; 2096 : 		else

  025ab	eb 10		 jmp	 SHORT $LN43@update_att
$LN42@update_att:

; 2097 : 		{
; 2098 : 
; 2099 : 			drag = 0.4;

  025ad	f3 0f 10 05 00
	00 00 00	 movss	 xmm0, DWORD PTR __real@3ecccccd
  025b5	f3 0f 11 85 78
	fe ff ff	 movss	 DWORD PTR _drag$38[ebp], xmm0
$LN43@update_att:

; 2100 : 		}
; 2101 : 
; 2102 : 		Fmax = 0.0;

  025bd	0f 57 c0	 xorps	 xmm0, xmm0
  025c0	f3 0f 11 85 74
	fe ff ff	 movss	 DWORD PTR _Fmax$37[ebp], xmm0

; 2103 : 
; 2104 : 		if (current_flight_dynamics->main_rotor_rpm.max != 0.0)

  025c8	a1 00 00 00 00	 mov	 eax, DWORD PTR ?current_flight_dynamics@@3PAUDYNAMICS_TYPE@@A ; current_flight_dynamics
  025cd	f3 0f 5a 80 20
	1e 00 00	 cvtss2sd xmm0, DWORD PTR [eax+7712]
  025d5	66 0f 2e 05 00
	00 00 00	 ucomisd xmm0, QWORD PTR __real@0000000000000000
  025dd	9f		 lahf
  025de	f6 c4 44	 test	 ah, 68			; 00000044H
  025e1	7b 39		 jnp	 SHORT $LN44@update_att

; 2105 : 		{
; 2106 : 			Fmax = drag + 4.5 * (main_rotor_rpm_value / current_flight_dynamics->main_rotor_rpm.max);

  025e3	f3 0f 5a 85 78
	fe ff ff	 cvtss2sd xmm0, DWORD PTR _drag$38[ebp]
  025eb	a1 00 00 00 00	 mov	 eax, DWORD PTR ?current_flight_dynamics@@3PAUDYNAMICS_TYPE@@A ; current_flight_dynamics
  025f0	f3 0f 10 8d 70
	ff ff ff	 movss	 xmm1, DWORD PTR _main_rotor_rpm_value$[ebp]
  025f8	f3 0f 5e 88 20
	1e 00 00	 divss	 xmm1, DWORD PTR [eax+7712]
  02600	f3 0f 5a c9	 cvtss2sd xmm1, xmm1
  02604	f2 0f 59 0d 00
	00 00 00	 mulsd	 xmm1, QWORD PTR __real@4012000000000000
  0260c	f2 0f 58 c1	 addsd	 xmm0, xmm1
  02610	f2 0f 5a c0	 cvtsd2ss xmm0, xmm0
  02614	f3 0f 11 85 74
	fe ff ff	 movss	 DWORD PTR _Fmax$37[ebp], xmm0
$LN44@update_att:

; 2107 : 		}
; 2108 : 
; 2109 : 		reaction_force = 0.0;

  0261c	0f 57 c0	 xorps	 xmm0, xmm0
  0261f	f3 0f 11 45 80	 movss	 DWORD PTR _reaction_force$[ebp], xmm0

; 2110 : 
; 2111 : 		if (current_flight_dynamics->velocity_y.max != 0.0)

  02624	a1 00 00 00 00	 mov	 eax, DWORD PTR ?current_flight_dynamics@@3PAUDYNAMICS_TYPE@@A ; current_flight_dynamics
  02629	f3 0f 5a 80 90
	20 00 00	 cvtss2sd xmm0, DWORD PTR [eax+8336]
  02631	66 0f 2e 05 00
	00 00 00	 ucomisd xmm0, QWORD PTR __real@0000000000000000
  02639	9f		 lahf
  0263a	f6 c4 44	 test	 ah, 68			; 00000044H
  0263d	7b 7a		 jnp	 SHORT $LN45@update_att

; 2112 : 		{
; 2113 : 
; 2114 : 			reaction_force = Fmax * (fabs (model_motion_vector.y) * model_motion_vector.y) / pow (current_flight_dynamics->velocity_y.max, 2.0f);

  0263f	51		 push	 ecx
  02640	f3 0f 10 85 f4
	fe ff ff	 movss	 xmm0, DWORD PTR _model_motion_vector$[ebp+4]
  02648	f3 0f 11 04 24	 movss	 DWORD PTR [esp], xmm0
  0264d	e8 00 00 00 00	 call	 ?fabs@@YGMM@Z		; fabs
  02652	d9 9d 00 fd ff
	ff		 fstp	 DWORD PTR tv3008[ebp]
  02658	f3 0f 10 85 00
	fd ff ff	 movss	 xmm0, DWORD PTR tv3008[ebp]
  02660	f3 0f 59 85 f4
	fe ff ff	 mulss	 xmm0, DWORD PTR _model_motion_vector$[ebp+4]
  02668	f3 0f 59 85 74
	fe ff ff	 mulss	 xmm0, DWORD PTR _Fmax$37[ebp]
  02670	51		 push	 ecx
  02671	f3 0f 10 0d 00
	00 00 00	 movss	 xmm1, DWORD PTR __real@40000000
  02679	f3 0f 11 0c 24	 movss	 DWORD PTR [esp], xmm1
  0267e	a1 00 00 00 00	 mov	 eax, DWORD PTR ?current_flight_dynamics@@3PAUDYNAMICS_TYPE@@A ; current_flight_dynamics
  02683	51		 push	 ecx
  02684	f3 0f 10 88 90
	20 00 00	 movss	 xmm1, DWORD PTR [eax+8336]
  0268c	f3 0f 11 0c 24	 movss	 DWORD PTR [esp], xmm1
  02691	f3 0f 11 85 fc
	fc ff ff	 movss	 DWORD PTR tv3533[ebp], xmm0
  02699	e8 00 00 00 00	 call	 ?pow@@YGMMM@Z		; pow
  0269e	d9 9d f8 fc ff
	ff		 fstp	 DWORD PTR tv3018[ebp]
  026a4	f3 0f 10 85 fc
	fc ff ff	 movss	 xmm0, DWORD PTR tv3533[ebp]
  026ac	f3 0f 5e 85 f8
	fc ff ff	 divss	 xmm0, DWORD PTR tv3018[ebp]
  026b4	f3 0f 11 45 80	 movss	 DWORD PTR _reaction_force$[ebp], xmm0
$LN45@update_att:

; 2115 : 		}
; 2116 : 
; 2117 : 		//
; 2118 : 		// Only add resistane lift
; 2119 : 		//
; 2120 : 
; 2121 : 		if (reaction_force > 0.0)

  026b9	f3 0f 5a 45 80	 cvtss2sd xmm0, DWORD PTR _reaction_force$[ebp]
  026be	66 0f 2f 05 00
	00 00 00	 comisd	 xmm0, QWORD PTR __real@0000000000000000
  026c6	76 7a		 jbe	 SHORT $LN46@update_att

; 2122 : 		{
; 2123 : 
; 2124 : 			position.x = 0.0;

  026c8	0f 57 c0	 xorps	 xmm0, xmm0
  026cb	f3 0f 11 85 20
	ff ff ff	 movss	 DWORD PTR _position$[ebp], xmm0

; 2125 : 			position.y = 1.0;

  026d3	f3 0f 10 05 00
	00 00 00	 movss	 xmm0, DWORD PTR __real@3f800000
  026db	f3 0f 11 85 24
	ff ff ff	 movss	 DWORD PTR _position$[ebp+4], xmm0

; 2126 : 			position.z = 0.0;

  026e3	0f 57 c0	 xorps	 xmm0, xmm0
  026e6	f3 0f 11 85 28
	ff ff ff	 movss	 DWORD PTR _position$[ebp+8], xmm0

; 2127 : 
; 2128 : 			direction.x = 0.0;

  026ee	0f 57 c0	 xorps	 xmm0, xmm0
  026f1	f3 0f 11 85 14
	ff ff ff	 movss	 DWORD PTR _direction$[ebp], xmm0

; 2129 : 			direction.y = -1.0;

  026f9	f3 0f 10 05 00
	00 00 00	 movss	 xmm0, DWORD PTR __real@bf800000
  02701	f3 0f 11 85 18
	ff ff ff	 movss	 DWORD PTR _direction$[ebp+4], xmm0

; 2130 : 			direction.z = 0.0;

  02709	0f 57 c0	 xorps	 xmm0, xmm0
  0270c	f3 0f 11 85 1c
	ff ff ff	 movss	 DWORD PTR _direction$[ebp+8], xmm0

; 2131 : 
; 2132 : 			add_dynamic_force ("Vertical motion drag", reaction_force, 0.0, &position, &direction, FALSE);

  02714	6a 00		 push	 0
  02716	8d 85 14 ff ff
	ff		 lea	 eax, DWORD PTR _direction$[ebp]
  0271c	50		 push	 eax
  0271d	8d 8d 20 ff ff
	ff		 lea	 ecx, DWORD PTR _position$[ebp]
  02723	51		 push	 ecx
  02724	51		 push	 ecx
  02725	0f 57 c0	 xorps	 xmm0, xmm0
  02728	f3 0f 11 04 24	 movss	 DWORD PTR [esp], xmm0
  0272d	51		 push	 ecx
  0272e	f3 0f 10 45 80	 movss	 xmm0, DWORD PTR _reaction_force$[ebp]
  02733	f3 0f 11 04 24	 movss	 DWORD PTR [esp], xmm0
  02738	68 00 00 00 00	 push	 OFFSET ??_C@_0BF@LAMOPNAJ@Vertical?5motion?5drag@
  0273d	e8 00 00 00 00	 call	 ?add_dynamic_force@@YGXPBDMMPAUVEC3D@@1H@Z ; add_dynamic_force
$LN46@update_att:

; 2133 : 		}
; 2134 : 	}
; 2135 : 
; 2136 : 	/////////////////////////////////////////////////////////////////////////////////////////////////////////////////////////////////
; 2137 : 	// External forces
; 2138 : 	/////////////////////////////////////////////////////////////////////////////////////////////////////////////////////////////////
; 2139 : 
; 2140 : 	////////////////////////////////////////////
; 2141 : 	// In Ground Effect
; 2142 : 	////////////////////////////////////////////
; 2143 : 	if ((get_current_dynamics_options (DYNAMICS_OPTIONS_GROUND_EFFECT)) &&

  02742	6a 04		 push	 4
  02744	e8 00 00 00 00	 call	 ?get_current_dynamics_options@@YGHW4DYNAMICS_OPTIONS_TYPES@@@Z ; get_current_dynamics_options
  02749	85 c0		 test	 eax, eax
  0274b	0f 84 8e 0f 00
	00		 je	 $LN55@update_att
  02751	a1 00 00 00 00	 mov	 eax, DWORD PTR ?current_flight_dynamics@@3PAUDYNAMICS_TYPE@@A ; current_flight_dynamics
  02756	8b 88 24 25 00
	00		 mov	 ecx, DWORD PTR [eax+9508]
  0275c	83 e1 02	 and	 ecx, 2
  0275f	0f 85 7a 0f 00
	00		 jne	 $LN55@update_att

; 2144 : 		(!(current_flight_dynamics->dynamics_damage & DYNAMICS_DAMAGE_MAIN_ROTOR)))
; 2145 : 	{
; 2146 : 
; 2147 : 		float
; 2148 : 			altitude;
; 2149 : 
; 2150 : 		terrain_3d_point_data
; 2151 : 			terrain_info;
; 2152 : 
; 2153 : 		vec3d
; 2154 : 			world_position;
; 2155 : 
; 2156 : 		memset (&terrain_info, 0, sizeof (terrain_3d_point_data));

  02765	6a 2c		 push	 44			; 0000002cH
  02767	6a 00		 push	 0
  02769	8d 85 44 fe ff
	ff		 lea	 eax, DWORD PTR _terrain_info$35[ebp]
  0276f	50		 push	 eax
  02770	e8 00 00 00 00	 call	 _memset
  02775	83 c4 0c	 add	 esp, 12			; 0000000cH

; 2157 : 
; 2158 : 		get_3d_terrain_point_data (current_flight_dynamics->position.x, current_flight_dynamics->position.z, &terrain_info);

  02778	8d 85 44 fe ff
	ff		 lea	 eax, DWORD PTR _terrain_info$35[ebp]
  0277e	50		 push	 eax
  0277f	8b 0d 00 00 00
	00		 mov	 ecx, DWORD PTR ?current_flight_dynamics@@3PAUDYNAMICS_TYPE@@A ; current_flight_dynamics
  02785	f2 0f 5a 81 bc
	00 00 00	 cvtsd2ss xmm0, QWORD PTR [ecx+188]
  0278d	51		 push	 ecx
  0278e	f3 0f 11 04 24	 movss	 DWORD PTR [esp], xmm0
  02793	8b 15 00 00 00
	00		 mov	 edx, DWORD PTR ?current_flight_dynamics@@3PAUDYNAMICS_TYPE@@A ; current_flight_dynamics
  02799	f2 0f 5a 82 ac
	00 00 00	 cvtsd2ss xmm0, QWORD PTR [edx+172]
  027a1	51		 push	 ecx
  027a2	f3 0f 11 04 24	 movss	 DWORD PTR [esp], xmm0
  027a7	e8 00 00 00 00	 call	 ?get_3d_terrain_point_data@@YGMMMPAUTERRAIN_3D_POINT_DATA@@@Z ; get_3d_terrain_point_data
  027ac	dd d8		 fstp	 ST(0)

; 2159 : 
; 2160 : 		altitude = current_flight_dynamics->position.y - get_3d_terrain_point_data_elevation (&terrain_info);

  027ae	8d 85 44 fe ff
	ff		 lea	 eax, DWORD PTR _terrain_info$35[ebp]
  027b4	50		 push	 eax
  027b5	e8 00 00 00 00	 call	 ?get_3d_terrain_point_data_elevation@@YGMPAUTERRAIN_3D_POINT_DATA@@@Z ; get_3d_terrain_point_data_elevation
  027ba	dd 9d fc fc ff
	ff		 fstp	 QWORD PTR tv3045[ebp]
  027c0	8b 0d 00 00 00
	00		 mov	 ecx, DWORD PTR ?current_flight_dynamics@@3PAUDYNAMICS_TYPE@@A ; current_flight_dynamics
  027c6	f2 0f 10 81 b4
	00 00 00	 movsd	 xmm0, QWORD PTR [ecx+180]
  027ce	f2 0f 5c 85 fc
	fc ff ff	 subsd	 xmm0, QWORD PTR tv3045[ebp]
  027d6	f2 0f 5a c0	 cvtsd2ss xmm0, xmm0
  027da	f3 0f 11 85 70
	fe ff ff	 movss	 DWORD PTR _altitude$36[ebp], xmm0

; 2161 : 
; 2162 : 		////////////////////////////////////////////
; 2163 : 		// In Ground Effect on middle side of rotor disc
; 2164 : 		////////////////////////////////////////////
; 2165 : 		{
; 2166 : 
; 2167 : 			float
; 2168 : 				over_all_g_e_force;
; 2169 : 
; 2170 : 			over_all_g_e_force = (1.0 - ((altitude * altitude) / (current_flight_dynamics->main_rotor_diameter.value * current_flight_dynamics->main_rotor_diameter.value)));

  027e2	f3 0f 10 85 70
	fe ff ff	 movss	 xmm0, DWORD PTR _altitude$36[ebp]
  027ea	f3 0f 59 85 70
	fe ff ff	 mulss	 xmm0, DWORD PTR _altitude$36[ebp]
  027f2	a1 00 00 00 00	 mov	 eax, DWORD PTR ?current_flight_dynamics@@3PAUDYNAMICS_TYPE@@A ; current_flight_dynamics
  027f7	8b 0d 00 00 00
	00		 mov	 ecx, DWORD PTR ?current_flight_dynamics@@3PAUDYNAMICS_TYPE@@A ; current_flight_dynamics
  027fd	f3 0f 10 88 9c
	1d 00 00	 movss	 xmm1, DWORD PTR [eax+7580]
  02805	f3 0f 59 89 9c
	1d 00 00	 mulss	 xmm1, DWORD PTR [ecx+7580]
  0280d	f3 0f 5e c1	 divss	 xmm0, xmm1
  02811	f3 0f 5a c0	 cvtss2sd xmm0, xmm0
  02815	f2 0f 10 0d 00
	00 00 00	 movsd	 xmm1, QWORD PTR __real@3ff0000000000000
  0281d	f2 0f 5c c8	 subsd	 xmm1, xmm0
  02821	f2 0f 5a c1	 cvtsd2ss xmm0, xmm1
  02825	f3 0f 11 85 34
	fe ff ff	 movss	 DWORD PTR _over_all_g_e_force$33[ebp], xmm0

; 2171 : 
; 2172 : 			over_all_g_e_force = bound (over_all_g_e_force, 0.0, 1.0);

  0282d	f3 0f 5a 85 34
	fe ff ff	 cvtss2sd xmm0, DWORD PTR _over_all_g_e_force$33[ebp]
  02835	0f 57 c9	 xorps	 xmm1, xmm1
  02838	66 0f 2f c8	 comisd	 xmm1, xmm0
  0283c	76 0d		 jbe	 SHORT $LN117@update_att
  0283e	0f 57 c0	 xorps	 xmm0, xmm0
  02841	f2 0f 11 85 fc
	fc ff ff	 movsd	 QWORD PTR tv1312[ebp], xmm0
  02849	eb 44		 jmp	 SHORT $LN118@update_att
$LN117@update_att:
  0284b	f3 0f 5a 85 34
	fe ff ff	 cvtss2sd xmm0, DWORD PTR _over_all_g_e_force$33[ebp]
  02853	66 0f 2f 05 00
	00 00 00	 comisd	 xmm0, QWORD PTR __real@3ff0000000000000
  0285b	76 12		 jbe	 SHORT $LN115@update_att
  0285d	f2 0f 10 05 00
	00 00 00	 movsd	 xmm0, QWORD PTR __real@3ff0000000000000
  02865	f2 0f 11 85 f4
	fc ff ff	 movsd	 QWORD PTR tv1311[ebp], xmm0
  0286d	eb 10		 jmp	 SHORT $LN116@update_att
$LN115@update_att:
  0286f	f3 0f 5a 85 34
	fe ff ff	 cvtss2sd xmm0, DWORD PTR _over_all_g_e_force$33[ebp]
  02877	f2 0f 11 85 f4
	fc ff ff	 movsd	 QWORD PTR tv1311[ebp], xmm0
$LN116@update_att:
  0287f	f2 0f 10 85 f4
	fc ff ff	 movsd	 xmm0, QWORD PTR tv1311[ebp]
  02887	f2 0f 11 85 fc
	fc ff ff	 movsd	 QWORD PTR tv1312[ebp], xmm0
$LN118@update_att:
  0288f	f2 0f 5a 85 fc
	fc ff ff	 cvtsd2ss xmm0, QWORD PTR tv1312[ebp]
  02897	f3 0f 11 85 34
	fe ff ff	 movss	 DWORD PTR _over_all_g_e_force$33[ebp], xmm0

; 2173 : 
; 2174 : 			over_all_g_e_force *= 0.1 * main_rotor_induced_air_value;

  0289f	f3 0f 5a 85 78
	ff ff ff	 cvtss2sd xmm0, DWORD PTR _main_rotor_induced_air_value$[ebp]
  028a7	f2 0f 59 05 00
	00 00 00	 mulsd	 xmm0, QWORD PTR __real@3fb999999999999a
  028af	f3 0f 5a 8d 34
	fe ff ff	 cvtss2sd xmm1, DWORD PTR _over_all_g_e_force$33[ebp]
  028b7	f2 0f 59 c8	 mulsd	 xmm1, xmm0
  028bb	f2 0f 5a c1	 cvtsd2ss xmm0, xmm1
  028bf	f3 0f 11 85 34
	fe ff ff	 movss	 DWORD PTR _over_all_g_e_force$33[ebp], xmm0

; 2175 : 
; 2176 : 			if (current_flight_dynamics->velocity_z.max != 0.0)

  028c7	a1 00 00 00 00	 mov	 eax, DWORD PTR ?current_flight_dynamics@@3PAUDYNAMICS_TYPE@@A ; current_flight_dynamics
  028cc	f3 0f 5a 80 a8
	20 00 00	 cvtss2sd xmm0, DWORD PTR [eax+8360]
  028d4	66 0f 2e 05 00
	00 00 00	 ucomisd xmm0, QWORD PTR __real@0000000000000000
  028dc	9f		 lahf
  028dd	f6 c4 44	 test	 ah, 68			; 00000044H
  028e0	7b 4c		 jnp	 SHORT $LN48@update_att

; 2177 : 			{
; 2178 : 
; 2179 : 				over_all_g_e_force *= (current_flight_dynamics->velocity_z.max - fabs (velocity_z_value)) / current_flight_dynamics->velocity_z.max;

  028e2	51		 push	 ecx
  028e3	f3 0f 10 85 4c
	ff ff ff	 movss	 xmm0, DWORD PTR _velocity_z_value$[ebp]
  028eb	f3 0f 11 04 24	 movss	 DWORD PTR [esp], xmm0
  028f0	e8 00 00 00 00	 call	 ?fabs@@YGMM@Z		; fabs
  028f5	d9 9d 00 fd ff
	ff		 fstp	 DWORD PTR tv3066[ebp]
  028fb	a1 00 00 00 00	 mov	 eax, DWORD PTR ?current_flight_dynamics@@3PAUDYNAMICS_TYPE@@A ; current_flight_dynamics
  02900	f3 0f 10 80 a8
	20 00 00	 movss	 xmm0, DWORD PTR [eax+8360]
  02908	f3 0f 5c 85 00
	fd ff ff	 subss	 xmm0, DWORD PTR tv3066[ebp]
  02910	8b 0d 00 00 00
	00		 mov	 ecx, DWORD PTR ?current_flight_dynamics@@3PAUDYNAMICS_TYPE@@A ; current_flight_dynamics
  02916	f3 0f 5e 81 a8
	20 00 00	 divss	 xmm0, DWORD PTR [ecx+8360]
  0291e	f3 0f 59 85 34
	fe ff ff	 mulss	 xmm0, DWORD PTR _over_all_g_e_force$33[ebp]
  02926	f3 0f 11 85 34
	fe ff ff	 movss	 DWORD PTR _over_all_g_e_force$33[ebp], xmm0
$LN48@update_att:

; 2180 : 			}
; 2181 : 
; 2182 : 			position.x = 0.0;

  0292e	0f 57 c0	 xorps	 xmm0, xmm0
  02931	f3 0f 11 85 20
	ff ff ff	 movss	 DWORD PTR _position$[ebp], xmm0

; 2183 : 			position.y = 0.0;

  02939	0f 57 c0	 xorps	 xmm0, xmm0
  0293c	f3 0f 11 85 24
	ff ff ff	 movss	 DWORD PTR _position$[ebp+4], xmm0

; 2184 : 			position.z = 0.0;

  02944	0f 57 c0	 xorps	 xmm0, xmm0
  02947	f3 0f 11 85 28
	ff ff ff	 movss	 DWORD PTR _position$[ebp+8], xmm0

; 2185 : 
; 2186 : 			direction.x = 0.0;

  0294f	0f 57 c0	 xorps	 xmm0, xmm0
  02952	f3 0f 11 85 14
	ff ff ff	 movss	 DWORD PTR _direction$[ebp], xmm0

; 2187 : 			direction.y = 1.0;

  0295a	f3 0f 10 05 00
	00 00 00	 movss	 xmm0, DWORD PTR __real@3f800000
  02962	f3 0f 11 85 18
	ff ff ff	 movss	 DWORD PTR _direction$[ebp+4], xmm0

; 2188 : 			direction.z = 0.0;

  0296a	0f 57 c0	 xorps	 xmm0, xmm0
  0296d	f3 0f 11 85 1c
	ff ff ff	 movss	 DWORD PTR _direction$[ebp+8], xmm0

; 2189 : 
; 2190 : 			over_all_g_e_force *= current_flight_dynamics->ground_effect.modifier;

  02975	a1 00 00 00 00	 mov	 eax, DWORD PTR ?current_flight_dynamics@@3PAUDYNAMICS_TYPE@@A ; current_flight_dynamics
  0297a	f3 0f 10 85 34
	fe ff ff	 movss	 xmm0, DWORD PTR _over_all_g_e_force$33[ebp]
  02982	f3 0f 59 80 e0
	23 00 00	 mulss	 xmm0, DWORD PTR [eax+9184]
  0298a	f3 0f 11 85 34
	fe ff ff	 movss	 DWORD PTR _over_all_g_e_force$33[ebp], xmm0

; 2191 : 
; 2192 : 			add_dynamic_force ("Middle rotor Ground effect", over_all_g_e_force, 0.0, &position, &direction, FALSE);

  02992	6a 00		 push	 0
  02994	8d 85 14 ff ff
	ff		 lea	 eax, DWORD PTR _direction$[ebp]
  0299a	50		 push	 eax
  0299b	8d 8d 20 ff ff
	ff		 lea	 ecx, DWORD PTR _position$[ebp]
  029a1	51		 push	 ecx
  029a2	51		 push	 ecx
  029a3	0f 57 c0	 xorps	 xmm0, xmm0
  029a6	f3 0f 11 04 24	 movss	 DWORD PTR [esp], xmm0
  029ab	51		 push	 ecx
  029ac	f3 0f 10 85 34
	fe ff ff	 movss	 xmm0, DWORD PTR _over_all_g_e_force$33[ebp]
  029b4	f3 0f 11 04 24	 movss	 DWORD PTR [esp], xmm0
  029b9	68 00 00 00 00	 push	 OFFSET ??_C@_0BL@CBNCBPEP@Middle?5rotor?5Ground?5effect@
  029be	e8 00 00 00 00	 call	 ?add_dynamic_force@@YGXPBDMMPAUVEC3D@@1H@Z ; add_dynamic_force

; 2193 : 		}
; 2194 : 		////////////////////////////////////////////
; 2195 : 		// In Ground Effect on front side of rotor disc
; 2196 : 		////////////////////////////////////////////
; 2197 : 		{
; 2198 : 
; 2199 : 			float
; 2200 : 				tuning_value;
; 2201 : 
; 2202 : 			tuning_value = 0.1;

  029c3	f3 0f 10 05 00
	00 00 00	 movss	 xmm0, DWORD PTR __real@3dcccccd
  029cb	f3 0f 11 85 30
	fe ff ff	 movss	 DWORD PTR _tuning_value$32[ebp], xmm0

; 2203 : 
; 2204 : 			position.x = 0.0;

  029d3	0f 57 c0	 xorps	 xmm0, xmm0
  029d6	f3 0f 11 85 20
	ff ff ff	 movss	 DWORD PTR _position$[ebp], xmm0

; 2205 : 			position.y = 0.0;

  029de	0f 57 c0	 xorps	 xmm0, xmm0
  029e1	f3 0f 11 85 24
	ff ff ff	 movss	 DWORD PTR _position$[ebp+4], xmm0

; 2206 : 			position.z = 7.299;

  029e9	f3 0f 10 05 00
	00 00 00	 movss	 xmm0, DWORD PTR __real@40e99168
  029f1	f3 0f 11 85 28
	ff ff ff	 movss	 DWORD PTR _position$[ebp+8], xmm0

; 2207 : 
; 2208 : 			direction.x = 0.0;

  029f9	0f 57 c0	 xorps	 xmm0, xmm0
  029fc	f3 0f 11 85 14
	ff ff ff	 movss	 DWORD PTR _direction$[ebp], xmm0

; 2209 : 			direction.y = 1.0;

  02a04	f3 0f 10 05 00
	00 00 00	 movss	 xmm0, DWORD PTR __real@3f800000
  02a0c	f3 0f 11 85 18
	ff ff ff	 movss	 DWORD PTR _direction$[ebp+4], xmm0

; 2210 : 			direction.z = 0.0;

  02a14	0f 57 c0	 xorps	 xmm0, xmm0
  02a17	f3 0f 11 85 1c
	ff ff ff	 movss	 DWORD PTR _direction$[ebp+8], xmm0

; 2211 : 
; 2212 : 			multiply_matrix3x3_vec3d (&world_position, current_flight_dynamics->attitude, &position);

  02a1f	8d 85 20 ff ff
	ff		 lea	 eax, DWORD PTR _position$[ebp]
  02a25	50		 push	 eax
  02a26	8b 0d 00 00 00
	00		 mov	 ecx, DWORD PTR ?current_flight_dynamics@@3PAUDYNAMICS_TYPE@@A ; current_flight_dynamics
  02a2c	81 c1 d0 00 00
	00		 add	 ecx, 208		; 000000d0H
  02a32	51		 push	 ecx
  02a33	8d 95 38 fe ff
	ff		 lea	 edx, DWORD PTR _world_position$34[ebp]
  02a39	52		 push	 edx
  02a3a	e8 00 00 00 00	 call	 ?multiply_matrix3x3_vec3d@@YGXPAUVEC3D@@QAY02$$CBMPBU1@@Z ; multiply_matrix3x3_vec3d

; 2213 : 
; 2214 : 			world_position.x += current_flight_dynamics->position.x;

  02a3f	f3 0f 5a 85 38
	fe ff ff	 cvtss2sd xmm0, DWORD PTR _world_position$34[ebp]
  02a47	a1 00 00 00 00	 mov	 eax, DWORD PTR ?current_flight_dynamics@@3PAUDYNAMICS_TYPE@@A ; current_flight_dynamics
  02a4c	f2 0f 58 80 ac
	00 00 00	 addsd	 xmm0, QWORD PTR [eax+172]
  02a54	f2 0f 5a c0	 cvtsd2ss xmm0, xmm0
  02a58	f3 0f 11 85 38
	fe ff ff	 movss	 DWORD PTR _world_position$34[ebp], xmm0

; 2215 : 			world_position.y += current_flight_dynamics->position.y;

  02a60	f3 0f 5a 85 3c
	fe ff ff	 cvtss2sd xmm0, DWORD PTR _world_position$34[ebp+4]
  02a68	a1 00 00 00 00	 mov	 eax, DWORD PTR ?current_flight_dynamics@@3PAUDYNAMICS_TYPE@@A ; current_flight_dynamics
  02a6d	f2 0f 58 80 b4
	00 00 00	 addsd	 xmm0, QWORD PTR [eax+180]
  02a75	f2 0f 5a c0	 cvtsd2ss xmm0, xmm0
  02a79	f3 0f 11 85 3c
	fe ff ff	 movss	 DWORD PTR _world_position$34[ebp+4], xmm0

; 2216 : 			world_position.z += current_flight_dynamics->position.z;

  02a81	f3 0f 5a 85 40
	fe ff ff	 cvtss2sd xmm0, DWORD PTR _world_position$34[ebp+8]
  02a89	a1 00 00 00 00	 mov	 eax, DWORD PTR ?current_flight_dynamics@@3PAUDYNAMICS_TYPE@@A ; current_flight_dynamics
  02a8e	f2 0f 58 80 bc
	00 00 00	 addsd	 xmm0, QWORD PTR [eax+188]
  02a96	f2 0f 5a c0	 cvtsd2ss xmm0, xmm0
  02a9a	f3 0f 11 85 40
	fe ff ff	 movss	 DWORD PTR _world_position$34[ebp+8], xmm0

; 2217 : 
; 2218 : 			bound_position_to_adjusted_map_volume (&world_position);

  02aa2	8d 85 38 fe ff
	ff		 lea	 eax, DWORD PTR _world_position$34[ebp]
  02aa8	50		 push	 eax
  02aa9	e8 00 00 00 00	 call	 ?bound_position_to_adjusted_map_volume@@YGHPAUVEC3D@@@Z ; bound_position_to_adjusted_map_volume

; 2219 : 
; 2220 : 			get_3d_terrain_point_data (world_position.x, world_position.z, &terrain_info);

  02aae	8d 85 44 fe ff
	ff		 lea	 eax, DWORD PTR _terrain_info$35[ebp]
  02ab4	50		 push	 eax
  02ab5	51		 push	 ecx
  02ab6	f3 0f 10 85 40
	fe ff ff	 movss	 xmm0, DWORD PTR _world_position$34[ebp+8]
  02abe	f3 0f 11 04 24	 movss	 DWORD PTR [esp], xmm0
  02ac3	51		 push	 ecx
  02ac4	f3 0f 10 85 38
	fe ff ff	 movss	 xmm0, DWORD PTR _world_position$34[ebp]
  02acc	f3 0f 11 04 24	 movss	 DWORD PTR [esp], xmm0
  02ad1	e8 00 00 00 00	 call	 ?get_3d_terrain_point_data@@YGMMMPAUTERRAIN_3D_POINT_DATA@@@Z ; get_3d_terrain_point_data
  02ad6	dd d8		 fstp	 ST(0)

; 2221 : 
; 2222 : 			altitude = world_position.y - get_3d_terrain_point_data_elevation (&terrain_info);

  02ad8	8d 85 44 fe ff
	ff		 lea	 eax, DWORD PTR _terrain_info$35[ebp]
  02ade	50		 push	 eax
  02adf	e8 00 00 00 00	 call	 ?get_3d_terrain_point_data_elevation@@YGMPAUTERRAIN_3D_POINT_DATA@@@Z ; get_3d_terrain_point_data_elevation
  02ae4	d9 9d 00 fd ff
	ff		 fstp	 DWORD PTR tv3108[ebp]
  02aea	f3 0f 10 85 3c
	fe ff ff	 movss	 xmm0, DWORD PTR _world_position$34[ebp+4]
  02af2	f3 0f 5c 85 00
	fd ff ff	 subss	 xmm0, DWORD PTR tv3108[ebp]
  02afa	f3 0f 11 85 70
	fe ff ff	 movss	 DWORD PTR _altitude$36[ebp], xmm0

; 2223 : 
; 2224 : 			altitude = max (altitude, 0.0f);

  02b02	0f 57 c0	 xorps	 xmm0, xmm0
  02b05	f3 0f 11 85 28
	fd ff ff	 movss	 DWORD PTR $T10[ebp], xmm0
  02b0d	8d 85 28 fd ff
	ff		 lea	 eax, DWORD PTR $T10[ebp]
  02b13	50		 push	 eax
  02b14	8d 8d 70 fe ff
	ff		 lea	 ecx, DWORD PTR _altitude$36[ebp]
  02b1a	51		 push	 ecx
  02b1b	e8 00 00 00 00	 call	 ??$max@M@std@@YGABMABM0@Z ; std::max<float>
  02b20	f3 0f 10 00	 movss	 xmm0, DWORD PTR [eax]
  02b24	f3 0f 11 85 70
	fe ff ff	 movss	 DWORD PTR _altitude$36[ebp], xmm0

; 2225 : 
; 2226 : 			front_g_e_force += ((0.05 - ((altitude * altitude) / (20.0 * current_flight_dynamics->main_rotor_diameter.value * current_flight_dynamics->main_rotor_diameter.value))) - front_g_e_force) * get_model_delta_time ();

  02b2c	f3 0f 10 85 70
	fe ff ff	 movss	 xmm0, DWORD PTR _altitude$36[ebp]
  02b34	f3 0f 59 85 70
	fe ff ff	 mulss	 xmm0, DWORD PTR _altitude$36[ebp]
  02b3c	f3 0f 5a c0	 cvtss2sd xmm0, xmm0
  02b40	a1 00 00 00 00	 mov	 eax, DWORD PTR ?current_flight_dynamics@@3PAUDYNAMICS_TYPE@@A ; current_flight_dynamics
  02b45	f3 0f 5a 88 9c
	1d 00 00	 cvtss2sd xmm1, DWORD PTR [eax+7580]
  02b4d	f2 0f 59 0d 00
	00 00 00	 mulsd	 xmm1, QWORD PTR __real@4034000000000000
  02b55	8b 0d 00 00 00
	00		 mov	 ecx, DWORD PTR ?current_flight_dynamics@@3PAUDYNAMICS_TYPE@@A ; current_flight_dynamics
  02b5b	f3 0f 5a 91 9c
	1d 00 00	 cvtss2sd xmm2, DWORD PTR [ecx+7580]
  02b63	f2 0f 59 ca	 mulsd	 xmm1, xmm2
  02b67	f2 0f 5e c1	 divsd	 xmm0, xmm1
  02b6b	f2 0f 10 0d 00
	00 00 00	 movsd	 xmm1, QWORD PTR __real@3fa999999999999a
  02b73	f2 0f 5c c8	 subsd	 xmm1, xmm0
  02b77	f3 0f 5a 05 00
	00 00 00	 cvtss2sd xmm0, DWORD PTR ?front_g_e_force@@3MA
  02b7f	f2 0f 5c c8	 subsd	 xmm1, xmm0
  02b83	8b 15 00 00 00
	00		 mov	 edx, DWORD PTR ?current_flight_dynamics@@3PAUDYNAMICS_TYPE@@A ; current_flight_dynamics
  02b89	f3 0f 5a 82 90
	00 00 00	 cvtss2sd xmm0, DWORD PTR [edx+144]
  02b91	f2 0f 59 c8	 mulsd	 xmm1, xmm0
  02b95	f3 0f 5a 05 00
	00 00 00	 cvtss2sd xmm0, DWORD PTR ?front_g_e_force@@3MA
  02b9d	f2 0f 58 c1	 addsd	 xmm0, xmm1
  02ba1	f2 0f 5a c0	 cvtsd2ss xmm0, xmm0
  02ba5	f3 0f 11 05 00
	00 00 00	 movss	 DWORD PTR ?front_g_e_force@@3MA, xmm0

; 2227 : 
; 2228 : 			front_g_e_force = bound (front_g_e_force, 0.0, 0.05);

  02bad	f3 0f 5a 05 00
	00 00 00	 cvtss2sd xmm0, DWORD PTR ?front_g_e_force@@3MA
  02bb5	0f 57 c9	 xorps	 xmm1, xmm1
  02bb8	66 0f 2f c8	 comisd	 xmm1, xmm0
  02bbc	76 0d		 jbe	 SHORT $LN121@update_att
  02bbe	0f 57 c0	 xorps	 xmm0, xmm0
  02bc1	f2 0f 11 85 fc
	fc ff ff	 movsd	 QWORD PTR tv1428[ebp], xmm0
  02bc9	eb 44		 jmp	 SHORT $LN122@update_att
$LN121@update_att:
  02bcb	f3 0f 5a 05 00
	00 00 00	 cvtss2sd xmm0, DWORD PTR ?front_g_e_force@@3MA
  02bd3	66 0f 2f 05 00
	00 00 00	 comisd	 xmm0, QWORD PTR __real@3fa999999999999a
  02bdb	76 12		 jbe	 SHORT $LN119@update_att
  02bdd	f2 0f 10 05 00
	00 00 00	 movsd	 xmm0, QWORD PTR __real@3fa999999999999a
  02be5	f2 0f 11 85 f4
	fc ff ff	 movsd	 QWORD PTR tv1427[ebp], xmm0
  02bed	eb 10		 jmp	 SHORT $LN120@update_att
$LN119@update_att:
  02bef	f3 0f 5a 05 00
	00 00 00	 cvtss2sd xmm0, DWORD PTR ?front_g_e_force@@3MA
  02bf7	f2 0f 11 85 f4
	fc ff ff	 movsd	 QWORD PTR tv1427[ebp], xmm0
$LN120@update_att:
  02bff	f2 0f 10 85 f4
	fc ff ff	 movsd	 xmm0, QWORD PTR tv1427[ebp]
  02c07	f2 0f 11 85 fc
	fc ff ff	 movsd	 QWORD PTR tv1428[ebp], xmm0
$LN122@update_att:
  02c0f	f2 0f 5a 85 fc
	fc ff ff	 cvtsd2ss xmm0, QWORD PTR tv1428[ebp]
  02c17	f3 0f 11 05 00
	00 00 00	 movss	 DWORD PTR ?front_g_e_force@@3MA, xmm0

; 2229 : 
; 2230 : 			if (front_g_e_force > 0.0)

  02c1f	f3 0f 5a 05 00
	00 00 00	 cvtss2sd xmm0, DWORD PTR ?front_g_e_force@@3MA
  02c27	66 0f 2f 05 00
	00 00 00	 comisd	 xmm0, QWORD PTR __real@0000000000000000
  02c2f	0f 86 d5 00 00
	00		 jbe	 $LN49@update_att

; 2231 : 			{
; 2232 : 
; 2233 : 				front_g_e_force *= tuning_value * main_rotor_induced_air_value;

  02c35	f3 0f 10 85 30
	fe ff ff	 movss	 xmm0, DWORD PTR _tuning_value$32[ebp]
  02c3d	f3 0f 59 85 78
	ff ff ff	 mulss	 xmm0, DWORD PTR _main_rotor_induced_air_value$[ebp]
  02c45	f3 0f 59 05 00
	00 00 00	 mulss	 xmm0, DWORD PTR ?front_g_e_force@@3MA
  02c4d	f3 0f 11 05 00
	00 00 00	 movss	 DWORD PTR ?front_g_e_force@@3MA, xmm0

; 2234 : 
; 2235 : 				if (current_flight_dynamics->velocity_z.max != 0.0)

  02c55	a1 00 00 00 00	 mov	 eax, DWORD PTR ?current_flight_dynamics@@3PAUDYNAMICS_TYPE@@A ; current_flight_dynamics
  02c5a	f3 0f 5a 80 a8
	20 00 00	 cvtss2sd xmm0, DWORD PTR [eax+8360]
  02c62	66 0f 2e 05 00
	00 00 00	 ucomisd xmm0, QWORD PTR __real@0000000000000000
  02c6a	9f		 lahf
  02c6b	f6 c4 44	 test	 ah, 68			; 00000044H
  02c6e	7b 4c		 jnp	 SHORT $LN50@update_att

; 2236 : 				{
; 2237 : 
; 2238 : 					front_g_e_force *= (current_flight_dynamics->velocity_z.max - fabs (velocity_z_value)) / current_flight_dynamics->velocity_z.max;

  02c70	51		 push	 ecx
  02c71	f3 0f 10 85 4c
	ff ff ff	 movss	 xmm0, DWORD PTR _velocity_z_value$[ebp]
  02c79	f3 0f 11 04 24	 movss	 DWORD PTR [esp], xmm0
  02c7e	e8 00 00 00 00	 call	 ?fabs@@YGMM@Z		; fabs
  02c83	d9 9d 00 fd ff
	ff		 fstp	 DWORD PTR tv3135[ebp]
  02c89	a1 00 00 00 00	 mov	 eax, DWORD PTR ?current_flight_dynamics@@3PAUDYNAMICS_TYPE@@A ; current_flight_dynamics
  02c8e	f3 0f 10 80 a8
	20 00 00	 movss	 xmm0, DWORD PTR [eax+8360]
  02c96	f3 0f 5c 85 00
	fd ff ff	 subss	 xmm0, DWORD PTR tv3135[ebp]
  02c9e	8b 0d 00 00 00
	00		 mov	 ecx, DWORD PTR ?current_flight_dynamics@@3PAUDYNAMICS_TYPE@@A ; current_flight_dynamics
  02ca4	f3 0f 5e 81 a8
	20 00 00	 divss	 xmm0, DWORD PTR [ecx+8360]
  02cac	f3 0f 59 05 00
	00 00 00	 mulss	 xmm0, DWORD PTR ?front_g_e_force@@3MA
  02cb4	f3 0f 11 05 00
	00 00 00	 movss	 DWORD PTR ?front_g_e_force@@3MA, xmm0
$LN50@update_att:

; 2239 : 				}
; 2240 : 
; 2241 : 				#if DEBUG_MODULE
; 2242 : 
; 2243 : 				debug_log ("DYNAMICS: IGE front force %f, alt %f, y %f, el %f, x %f, z %f, tuning %f induced %f",
; 2244 : 								front_g_e_force, altitude, current_flight_dynamics->position.y,
; 2245 : 								get_3d_terrain_point_data_elevation (&terrain_info), world_position.x, world_position.z,
; 2246 : 								tuning_value, main_rotor_induced_air_value);
; 2247 : 
; 2248 : 				create_vectored_debug_3d_object (&world_position, &direction, OBJECT_3D_ARROW_FORCES, 0, 20.0 * front_g_e_force);
; 2249 : 
; 2250 : 				#endif
; 2251 : 
; 2252 : 				front_g_e_force *= current_flight_dynamics->ground_effect.modifier;

  02cbc	a1 00 00 00 00	 mov	 eax, DWORD PTR ?current_flight_dynamics@@3PAUDYNAMICS_TYPE@@A ; current_flight_dynamics
  02cc1	f3 0f 10 05 00
	00 00 00	 movss	 xmm0, DWORD PTR ?front_g_e_force@@3MA
  02cc9	f3 0f 59 80 e0
	23 00 00	 mulss	 xmm0, DWORD PTR [eax+9184]
  02cd1	f3 0f 11 05 00
	00 00 00	 movss	 DWORD PTR ?front_g_e_force@@3MA, xmm0

; 2253 : 
; 2254 : 				add_dynamic_force ("Front rotor Ground effect", front_g_e_force, 0.0, &position, &direction, FALSE);

  02cd9	6a 00		 push	 0
  02cdb	8d 85 14 ff ff
	ff		 lea	 eax, DWORD PTR _direction$[ebp]
  02ce1	50		 push	 eax
  02ce2	8d 8d 20 ff ff
	ff		 lea	 ecx, DWORD PTR _position$[ebp]
  02ce8	51		 push	 ecx
  02ce9	51		 push	 ecx
  02cea	0f 57 c0	 xorps	 xmm0, xmm0
  02ced	f3 0f 11 04 24	 movss	 DWORD PTR [esp], xmm0
  02cf2	51		 push	 ecx
  02cf3	f3 0f 10 05 00
	00 00 00	 movss	 xmm0, DWORD PTR ?front_g_e_force@@3MA
  02cfb	f3 0f 11 04 24	 movss	 DWORD PTR [esp], xmm0
  02d00	68 00 00 00 00	 push	 OFFSET ??_C@_0BK@BDABDLEI@Front?5rotor?5Ground?5effect@
  02d05	e8 00 00 00 00	 call	 ?add_dynamic_force@@YGXPBDMMPAUVEC3D@@1H@Z ; add_dynamic_force
$LN49@update_att:

; 2255 : 			}
; 2256 : 		}
; 2257 : 		////////////////////////////////////////////
; 2258 : 		// In Ground Effect on back side of rotor disc
; 2259 : 		////////////////////////////////////////////
; 2260 : 		{
; 2261 : 
; 2262 : 			float
; 2263 : 				tuning_value = 0.1;

  02d0a	f3 0f 10 05 00
	00 00 00	 movss	 xmm0, DWORD PTR __real@3dcccccd
  02d12	f3 0f 11 85 2c
	fe ff ff	 movss	 DWORD PTR _tuning_value$31[ebp], xmm0

; 2264 : 
; 2265 : 			position.x = 0.0;

  02d1a	0f 57 c0	 xorps	 xmm0, xmm0
  02d1d	f3 0f 11 85 20
	ff ff ff	 movss	 DWORD PTR _position$[ebp], xmm0

; 2266 : 			position.y = 0.0;

  02d25	0f 57 c0	 xorps	 xmm0, xmm0
  02d28	f3 0f 11 85 24
	ff ff ff	 movss	 DWORD PTR _position$[ebp+4], xmm0

; 2267 : 			position.z = -7.299;

  02d30	f3 0f 10 05 00
	00 00 00	 movss	 xmm0, DWORD PTR __real@c0e99168
  02d38	f3 0f 11 85 28
	ff ff ff	 movss	 DWORD PTR _position$[ebp+8], xmm0

; 2268 : 
; 2269 : 			direction.x = 0.0;

  02d40	0f 57 c0	 xorps	 xmm0, xmm0
  02d43	f3 0f 11 85 14
	ff ff ff	 movss	 DWORD PTR _direction$[ebp], xmm0

; 2270 : 			direction.y = 1.0;

  02d4b	f3 0f 10 05 00
	00 00 00	 movss	 xmm0, DWORD PTR __real@3f800000
  02d53	f3 0f 11 85 18
	ff ff ff	 movss	 DWORD PTR _direction$[ebp+4], xmm0

; 2271 : 			direction.z = 0.0;

  02d5b	0f 57 c0	 xorps	 xmm0, xmm0
  02d5e	f3 0f 11 85 1c
	ff ff ff	 movss	 DWORD PTR _direction$[ebp+8], xmm0

; 2272 : 
; 2273 : 			multiply_matrix3x3_vec3d (&world_position, current_flight_dynamics->attitude, &position);

  02d66	8d 85 20 ff ff
	ff		 lea	 eax, DWORD PTR _position$[ebp]
  02d6c	50		 push	 eax
  02d6d	8b 0d 00 00 00
	00		 mov	 ecx, DWORD PTR ?current_flight_dynamics@@3PAUDYNAMICS_TYPE@@A ; current_flight_dynamics
  02d73	81 c1 d0 00 00
	00		 add	 ecx, 208		; 000000d0H
  02d79	51		 push	 ecx
  02d7a	8d 95 38 fe ff
	ff		 lea	 edx, DWORD PTR _world_position$34[ebp]
  02d80	52		 push	 edx
  02d81	e8 00 00 00 00	 call	 ?multiply_matrix3x3_vec3d@@YGXPAUVEC3D@@QAY02$$CBMPBU1@@Z ; multiply_matrix3x3_vec3d

; 2274 : 
; 2275 : 			world_position.x += current_flight_dynamics->position.x;

  02d86	f3 0f 5a 85 38
	fe ff ff	 cvtss2sd xmm0, DWORD PTR _world_position$34[ebp]
  02d8e	a1 00 00 00 00	 mov	 eax, DWORD PTR ?current_flight_dynamics@@3PAUDYNAMICS_TYPE@@A ; current_flight_dynamics
  02d93	f2 0f 58 80 ac
	00 00 00	 addsd	 xmm0, QWORD PTR [eax+172]
  02d9b	f2 0f 5a c0	 cvtsd2ss xmm0, xmm0
  02d9f	f3 0f 11 85 38
	fe ff ff	 movss	 DWORD PTR _world_position$34[ebp], xmm0

; 2276 : 			world_position.y += current_flight_dynamics->position.y;

  02da7	f3 0f 5a 85 3c
	fe ff ff	 cvtss2sd xmm0, DWORD PTR _world_position$34[ebp+4]
  02daf	a1 00 00 00 00	 mov	 eax, DWORD PTR ?current_flight_dynamics@@3PAUDYNAMICS_TYPE@@A ; current_flight_dynamics
  02db4	f2 0f 58 80 b4
	00 00 00	 addsd	 xmm0, QWORD PTR [eax+180]
  02dbc	f2 0f 5a c0	 cvtsd2ss xmm0, xmm0
  02dc0	f3 0f 11 85 3c
	fe ff ff	 movss	 DWORD PTR _world_position$34[ebp+4], xmm0

; 2277 : 			world_position.z += current_flight_dynamics->position.z;

  02dc8	f3 0f 5a 85 40
	fe ff ff	 cvtss2sd xmm0, DWORD PTR _world_position$34[ebp+8]
  02dd0	a1 00 00 00 00	 mov	 eax, DWORD PTR ?current_flight_dynamics@@3PAUDYNAMICS_TYPE@@A ; current_flight_dynamics
  02dd5	f2 0f 58 80 bc
	00 00 00	 addsd	 xmm0, QWORD PTR [eax+188]
  02ddd	f2 0f 5a c0	 cvtsd2ss xmm0, xmm0
  02de1	f3 0f 11 85 40
	fe ff ff	 movss	 DWORD PTR _world_position$34[ebp+8], xmm0

; 2278 : 
; 2279 : 			bound_position_to_adjusted_map_volume (&world_position);

  02de9	8d 85 38 fe ff
	ff		 lea	 eax, DWORD PTR _world_position$34[ebp]
  02def	50		 push	 eax
  02df0	e8 00 00 00 00	 call	 ?bound_position_to_adjusted_map_volume@@YGHPAUVEC3D@@@Z ; bound_position_to_adjusted_map_volume

; 2280 : 
; 2281 : 			get_3d_terrain_point_data (world_position.x, world_position.z, &terrain_info);

  02df5	8d 85 44 fe ff
	ff		 lea	 eax, DWORD PTR _terrain_info$35[ebp]
  02dfb	50		 push	 eax
  02dfc	51		 push	 ecx
  02dfd	f3 0f 10 85 40
	fe ff ff	 movss	 xmm0, DWORD PTR _world_position$34[ebp+8]
  02e05	f3 0f 11 04 24	 movss	 DWORD PTR [esp], xmm0
  02e0a	51		 push	 ecx
  02e0b	f3 0f 10 85 38
	fe ff ff	 movss	 xmm0, DWORD PTR _world_position$34[ebp]
  02e13	f3 0f 11 04 24	 movss	 DWORD PTR [esp], xmm0
  02e18	e8 00 00 00 00	 call	 ?get_3d_terrain_point_data@@YGMMMPAUTERRAIN_3D_POINT_DATA@@@Z ; get_3d_terrain_point_data
  02e1d	dd d8		 fstp	 ST(0)

; 2282 : 
; 2283 : 			altitude = world_position.y - get_3d_terrain_point_data_elevation (&terrain_info);

  02e1f	8d 85 44 fe ff
	ff		 lea	 eax, DWORD PTR _terrain_info$35[ebp]
  02e25	50		 push	 eax
  02e26	e8 00 00 00 00	 call	 ?get_3d_terrain_point_data_elevation@@YGMPAUTERRAIN_3D_POINT_DATA@@@Z ; get_3d_terrain_point_data_elevation
  02e2b	d9 9d 00 fd ff
	ff		 fstp	 DWORD PTR tv3171[ebp]
  02e31	f3 0f 10 85 3c
	fe ff ff	 movss	 xmm0, DWORD PTR _world_position$34[ebp+4]
  02e39	f3 0f 5c 85 00
	fd ff ff	 subss	 xmm0, DWORD PTR tv3171[ebp]
  02e41	f3 0f 11 85 70
	fe ff ff	 movss	 DWORD PTR _altitude$36[ebp], xmm0

; 2284 : 
; 2285 : 			altitude = max (altitude, 0.0f);

  02e49	0f 57 c0	 xorps	 xmm0, xmm0
  02e4c	f3 0f 11 85 24
	fd ff ff	 movss	 DWORD PTR $T9[ebp], xmm0
  02e54	8d 85 24 fd ff
	ff		 lea	 eax, DWORD PTR $T9[ebp]
  02e5a	50		 push	 eax
  02e5b	8d 8d 70 fe ff
	ff		 lea	 ecx, DWORD PTR _altitude$36[ebp]
  02e61	51		 push	 ecx
  02e62	e8 00 00 00 00	 call	 ??$max@M@std@@YGABMABM0@Z ; std::max<float>
  02e67	f3 0f 10 00	 movss	 xmm0, DWORD PTR [eax]
  02e6b	f3 0f 11 85 70
	fe ff ff	 movss	 DWORD PTR _altitude$36[ebp], xmm0

; 2286 : 
; 2287 : 			back_g_e_force += ((0.05 - ((altitude * altitude) / (20.0 * current_flight_dynamics->main_rotor_diameter.value * current_flight_dynamics->main_rotor_diameter.value))) - back_g_e_force) * get_model_delta_time ();

  02e73	f3 0f 10 85 70
	fe ff ff	 movss	 xmm0, DWORD PTR _altitude$36[ebp]
  02e7b	f3 0f 59 85 70
	fe ff ff	 mulss	 xmm0, DWORD PTR _altitude$36[ebp]
  02e83	f3 0f 5a c0	 cvtss2sd xmm0, xmm0
  02e87	a1 00 00 00 00	 mov	 eax, DWORD PTR ?current_flight_dynamics@@3PAUDYNAMICS_TYPE@@A ; current_flight_dynamics
  02e8c	f3 0f 5a 88 9c
	1d 00 00	 cvtss2sd xmm1, DWORD PTR [eax+7580]
  02e94	f2 0f 59 0d 00
	00 00 00	 mulsd	 xmm1, QWORD PTR __real@4034000000000000
  02e9c	8b 0d 00 00 00
	00		 mov	 ecx, DWORD PTR ?current_flight_dynamics@@3PAUDYNAMICS_TYPE@@A ; current_flight_dynamics
  02ea2	f3 0f 5a 91 9c
	1d 00 00	 cvtss2sd xmm2, DWORD PTR [ecx+7580]
  02eaa	f2 0f 59 ca	 mulsd	 xmm1, xmm2
  02eae	f2 0f 5e c1	 divsd	 xmm0, xmm1
  02eb2	f2 0f 10 0d 00
	00 00 00	 movsd	 xmm1, QWORD PTR __real@3fa999999999999a
  02eba	f2 0f 5c c8	 subsd	 xmm1, xmm0
  02ebe	f3 0f 5a 05 00
	00 00 00	 cvtss2sd xmm0, DWORD PTR ?back_g_e_force@@3MA
  02ec6	f2 0f 5c c8	 subsd	 xmm1, xmm0
  02eca	8b 15 00 00 00
	00		 mov	 edx, DWORD PTR ?current_flight_dynamics@@3PAUDYNAMICS_TYPE@@A ; current_flight_dynamics
  02ed0	f3 0f 5a 82 90
	00 00 00	 cvtss2sd xmm0, DWORD PTR [edx+144]
  02ed8	f2 0f 59 c8	 mulsd	 xmm1, xmm0
  02edc	f3 0f 5a 05 00
	00 00 00	 cvtss2sd xmm0, DWORD PTR ?back_g_e_force@@3MA
  02ee4	f2 0f 58 c1	 addsd	 xmm0, xmm1
  02ee8	f2 0f 5a c0	 cvtsd2ss xmm0, xmm0
  02eec	f3 0f 11 05 00
	00 00 00	 movss	 DWORD PTR ?back_g_e_force@@3MA, xmm0

; 2288 : 
; 2289 : 			back_g_e_force = bound (back_g_e_force, 0.0, 0.05);

  02ef4	f3 0f 5a 05 00
	00 00 00	 cvtss2sd xmm0, DWORD PTR ?back_g_e_force@@3MA
  02efc	0f 57 c9	 xorps	 xmm1, xmm1
  02eff	66 0f 2f c8	 comisd	 xmm1, xmm0
  02f03	76 0d		 jbe	 SHORT $LN125@update_att
  02f05	0f 57 c0	 xorps	 xmm0, xmm0
  02f08	f2 0f 11 85 fc
	fc ff ff	 movsd	 QWORD PTR tv1511[ebp], xmm0
  02f10	eb 44		 jmp	 SHORT $LN126@update_att
$LN125@update_att:
  02f12	f3 0f 5a 05 00
	00 00 00	 cvtss2sd xmm0, DWORD PTR ?back_g_e_force@@3MA
  02f1a	66 0f 2f 05 00
	00 00 00	 comisd	 xmm0, QWORD PTR __real@3fa999999999999a
  02f22	76 12		 jbe	 SHORT $LN123@update_att
  02f24	f2 0f 10 05 00
	00 00 00	 movsd	 xmm0, QWORD PTR __real@3fa999999999999a
  02f2c	f2 0f 11 85 f4
	fc ff ff	 movsd	 QWORD PTR tv1510[ebp], xmm0
  02f34	eb 10		 jmp	 SHORT $LN124@update_att
$LN123@update_att:
  02f36	f3 0f 5a 05 00
	00 00 00	 cvtss2sd xmm0, DWORD PTR ?back_g_e_force@@3MA
  02f3e	f2 0f 11 85 f4
	fc ff ff	 movsd	 QWORD PTR tv1510[ebp], xmm0
$LN124@update_att:
  02f46	f2 0f 10 85 f4
	fc ff ff	 movsd	 xmm0, QWORD PTR tv1510[ebp]
  02f4e	f2 0f 11 85 fc
	fc ff ff	 movsd	 QWORD PTR tv1511[ebp], xmm0
$LN126@update_att:
  02f56	f2 0f 5a 85 fc
	fc ff ff	 cvtsd2ss xmm0, QWORD PTR tv1511[ebp]
  02f5e	f3 0f 11 05 00
	00 00 00	 movss	 DWORD PTR ?back_g_e_force@@3MA, xmm0

; 2290 : 
; 2291 : 			if (back_g_e_force > 0.0)

  02f66	f3 0f 5a 05 00
	00 00 00	 cvtss2sd xmm0, DWORD PTR ?back_g_e_force@@3MA
  02f6e	66 0f 2f 05 00
	00 00 00	 comisd	 xmm0, QWORD PTR __real@0000000000000000
  02f76	0f 86 d5 00 00
	00		 jbe	 $LN51@update_att

; 2292 : 			{
; 2293 : 
; 2294 : 				back_g_e_force *= tuning_value * main_rotor_induced_air_value;

  02f7c	f3 0f 10 85 2c
	fe ff ff	 movss	 xmm0, DWORD PTR _tuning_value$31[ebp]
  02f84	f3 0f 59 85 78
	ff ff ff	 mulss	 xmm0, DWORD PTR _main_rotor_induced_air_value$[ebp]
  02f8c	f3 0f 59 05 00
	00 00 00	 mulss	 xmm0, DWORD PTR ?back_g_e_force@@3MA
  02f94	f3 0f 11 05 00
	00 00 00	 movss	 DWORD PTR ?back_g_e_force@@3MA, xmm0

; 2295 : 
; 2296 : 				if (current_flight_dynamics->velocity_z.max != 0.0)

  02f9c	a1 00 00 00 00	 mov	 eax, DWORD PTR ?current_flight_dynamics@@3PAUDYNAMICS_TYPE@@A ; current_flight_dynamics
  02fa1	f3 0f 5a 80 a8
	20 00 00	 cvtss2sd xmm0, DWORD PTR [eax+8360]
  02fa9	66 0f 2e 05 00
	00 00 00	 ucomisd xmm0, QWORD PTR __real@0000000000000000
  02fb1	9f		 lahf
  02fb2	f6 c4 44	 test	 ah, 68			; 00000044H
  02fb5	7b 4c		 jnp	 SHORT $LN52@update_att

; 2297 : 				{
; 2298 : 
; 2299 : 					back_g_e_force *= (current_flight_dynamics->velocity_z.max - fabs (velocity_z_value)) / current_flight_dynamics->velocity_z.max;

  02fb7	51		 push	 ecx
  02fb8	f3 0f 10 85 4c
	ff ff ff	 movss	 xmm0, DWORD PTR _velocity_z_value$[ebp]
  02fc0	f3 0f 11 04 24	 movss	 DWORD PTR [esp], xmm0
  02fc5	e8 00 00 00 00	 call	 ?fabs@@YGMM@Z		; fabs
  02fca	d9 9d 00 fd ff
	ff		 fstp	 DWORD PTR tv3198[ebp]
  02fd0	a1 00 00 00 00	 mov	 eax, DWORD PTR ?current_flight_dynamics@@3PAUDYNAMICS_TYPE@@A ; current_flight_dynamics
  02fd5	f3 0f 10 80 a8
	20 00 00	 movss	 xmm0, DWORD PTR [eax+8360]
  02fdd	f3 0f 5c 85 00
	fd ff ff	 subss	 xmm0, DWORD PTR tv3198[ebp]
  02fe5	8b 0d 00 00 00
	00		 mov	 ecx, DWORD PTR ?current_flight_dynamics@@3PAUDYNAMICS_TYPE@@A ; current_flight_dynamics
  02feb	f3 0f 5e 81 a8
	20 00 00	 divss	 xmm0, DWORD PTR [ecx+8360]
  02ff3	f3 0f 59 05 00
	00 00 00	 mulss	 xmm0, DWORD PTR ?back_g_e_force@@3MA
  02ffb	f3 0f 11 05 00
	00 00 00	 movss	 DWORD PTR ?back_g_e_force@@3MA, xmm0
$LN52@update_att:

; 2300 : 				}
; 2301 : 
; 2302 : 				#if DEBUG_MODULE
; 2303 : 
; 2304 : 				debug_log ("DYNAMICS: IGE back force %f, alt %f, y %f, el %f, x %f, z %f",
; 2305 : 								back_g_e_force, altitude, current_flight_dynamics->position.y,
; 2306 : 								get_3d_terrain_point_data_elevation (&terrain_info), world_position.x, world_position.z);
; 2307 : 
; 2308 : 				create_vectored_debug_3d_object (&world_position, &direction, OBJECT_3D_ARROW_FORCES, 0, 20.0 * back_g_e_force);
; 2309 : 
; 2310 : 				#endif
; 2311 : 
; 2312 : 				back_g_e_force *= current_flight_dynamics->ground_effect.modifier;

  03003	a1 00 00 00 00	 mov	 eax, DWORD PTR ?current_flight_dynamics@@3PAUDYNAMICS_TYPE@@A ; current_flight_dynamics
  03008	f3 0f 10 05 00
	00 00 00	 movss	 xmm0, DWORD PTR ?back_g_e_force@@3MA
  03010	f3 0f 59 80 e0
	23 00 00	 mulss	 xmm0, DWORD PTR [eax+9184]
  03018	f3 0f 11 05 00
	00 00 00	 movss	 DWORD PTR ?back_g_e_force@@3MA, xmm0

; 2313 : 
; 2314 : 				add_dynamic_force ("Back rotor Ground effect", back_g_e_force, 0.0, &position, &direction, FALSE);

  03020	6a 00		 push	 0
  03022	8d 85 14 ff ff
	ff		 lea	 eax, DWORD PTR _direction$[ebp]
  03028	50		 push	 eax
  03029	8d 8d 20 ff ff
	ff		 lea	 ecx, DWORD PTR _position$[ebp]
  0302f	51		 push	 ecx
  03030	51		 push	 ecx
  03031	0f 57 c0	 xorps	 xmm0, xmm0
  03034	f3 0f 11 04 24	 movss	 DWORD PTR [esp], xmm0
  03039	51		 push	 ecx
  0303a	f3 0f 10 05 00
	00 00 00	 movss	 xmm0, DWORD PTR ?back_g_e_force@@3MA
  03042	f3 0f 11 04 24	 movss	 DWORD PTR [esp], xmm0
  03047	68 00 00 00 00	 push	 OFFSET ??_C@_0BJ@MKNEGMFL@Back?5rotor?5Ground?5effect@
  0304c	e8 00 00 00 00	 call	 ?add_dynamic_force@@YGXPBDMMPAUVEC3D@@1H@Z ; add_dynamic_force
$LN51@update_att:

; 2315 : 			}
; 2316 : 		}
; 2317 : 		////////////////////////////////////////////
; 2318 : 		// In Ground Effect on left side of rotor disc
; 2319 : 		////////////////////////////////////////////
; 2320 : 		{
; 2321 : 
; 2322 : 			float
; 2323 : 				tuning_value = 0.1;

  03051	f3 0f 10 05 00
	00 00 00	 movss	 xmm0, DWORD PTR __real@3dcccccd
  03059	f3 0f 11 85 28
	fe ff ff	 movss	 DWORD PTR _tuning_value$30[ebp], xmm0

; 2324 : 
; 2325 : 			position.x = 7.299;

  03061	f3 0f 10 05 00
	00 00 00	 movss	 xmm0, DWORD PTR __real@40e99168
  03069	f3 0f 11 85 20
	ff ff ff	 movss	 DWORD PTR _position$[ebp], xmm0

; 2326 : 			position.y = 0.0;

  03071	0f 57 c0	 xorps	 xmm0, xmm0
  03074	f3 0f 11 85 24
	ff ff ff	 movss	 DWORD PTR _position$[ebp+4], xmm0

; 2327 : 			position.z = 0.0;

  0307c	0f 57 c0	 xorps	 xmm0, xmm0
  0307f	f3 0f 11 85 28
	ff ff ff	 movss	 DWORD PTR _position$[ebp+8], xmm0

; 2328 : 
; 2329 : 			direction.x = 0.0;

  03087	0f 57 c0	 xorps	 xmm0, xmm0
  0308a	f3 0f 11 85 14
	ff ff ff	 movss	 DWORD PTR _direction$[ebp], xmm0

; 2330 : 			direction.y = 1.0;

  03092	f3 0f 10 05 00
	00 00 00	 movss	 xmm0, DWORD PTR __real@3f800000
  0309a	f3 0f 11 85 18
	ff ff ff	 movss	 DWORD PTR _direction$[ebp+4], xmm0

; 2331 : 			direction.z = 0.0;

  030a2	0f 57 c0	 xorps	 xmm0, xmm0
  030a5	f3 0f 11 85 1c
	ff ff ff	 movss	 DWORD PTR _direction$[ebp+8], xmm0

; 2332 : 
; 2333 : 			multiply_matrix3x3_vec3d (&world_position, current_flight_dynamics->attitude, &position);

  030ad	8d 85 20 ff ff
	ff		 lea	 eax, DWORD PTR _position$[ebp]
  030b3	50		 push	 eax
  030b4	8b 0d 00 00 00
	00		 mov	 ecx, DWORD PTR ?current_flight_dynamics@@3PAUDYNAMICS_TYPE@@A ; current_flight_dynamics
  030ba	81 c1 d0 00 00
	00		 add	 ecx, 208		; 000000d0H
  030c0	51		 push	 ecx
  030c1	8d 95 38 fe ff
	ff		 lea	 edx, DWORD PTR _world_position$34[ebp]
  030c7	52		 push	 edx
  030c8	e8 00 00 00 00	 call	 ?multiply_matrix3x3_vec3d@@YGXPAUVEC3D@@QAY02$$CBMPBU1@@Z ; multiply_matrix3x3_vec3d

; 2334 : 
; 2335 : 			world_position.x += current_flight_dynamics->position.x;

  030cd	f3 0f 5a 85 38
	fe ff ff	 cvtss2sd xmm0, DWORD PTR _world_position$34[ebp]
  030d5	a1 00 00 00 00	 mov	 eax, DWORD PTR ?current_flight_dynamics@@3PAUDYNAMICS_TYPE@@A ; current_flight_dynamics
  030da	f2 0f 58 80 ac
	00 00 00	 addsd	 xmm0, QWORD PTR [eax+172]
  030e2	f2 0f 5a c0	 cvtsd2ss xmm0, xmm0
  030e6	f3 0f 11 85 38
	fe ff ff	 movss	 DWORD PTR _world_position$34[ebp], xmm0

; 2336 : 			world_position.y += current_flight_dynamics->position.y;

  030ee	f3 0f 5a 85 3c
	fe ff ff	 cvtss2sd xmm0, DWORD PTR _world_position$34[ebp+4]
  030f6	a1 00 00 00 00	 mov	 eax, DWORD PTR ?current_flight_dynamics@@3PAUDYNAMICS_TYPE@@A ; current_flight_dynamics
  030fb	f2 0f 58 80 b4
	00 00 00	 addsd	 xmm0, QWORD PTR [eax+180]
  03103	f2 0f 5a c0	 cvtsd2ss xmm0, xmm0
  03107	f3 0f 11 85 3c
	fe ff ff	 movss	 DWORD PTR _world_position$34[ebp+4], xmm0

; 2337 : 			world_position.z += current_flight_dynamics->position.z;

  0310f	f3 0f 5a 85 40
	fe ff ff	 cvtss2sd xmm0, DWORD PTR _world_position$34[ebp+8]
  03117	a1 00 00 00 00	 mov	 eax, DWORD PTR ?current_flight_dynamics@@3PAUDYNAMICS_TYPE@@A ; current_flight_dynamics
  0311c	f2 0f 58 80 bc
	00 00 00	 addsd	 xmm0, QWORD PTR [eax+188]
  03124	f2 0f 5a c0	 cvtsd2ss xmm0, xmm0
  03128	f3 0f 11 85 40
	fe ff ff	 movss	 DWORD PTR _world_position$34[ebp+8], xmm0

; 2338 : 
; 2339 : 			bound_position_to_adjusted_map_volume (&world_position);

  03130	8d 85 38 fe ff
	ff		 lea	 eax, DWORD PTR _world_position$34[ebp]
  03136	50		 push	 eax
  03137	e8 00 00 00 00	 call	 ?bound_position_to_adjusted_map_volume@@YGHPAUVEC3D@@@Z ; bound_position_to_adjusted_map_volume

; 2340 : 
; 2341 : 			get_3d_terrain_point_data (world_position.x, world_position.z, &terrain_info);

  0313c	8d 85 44 fe ff
	ff		 lea	 eax, DWORD PTR _terrain_info$35[ebp]
  03142	50		 push	 eax
  03143	51		 push	 ecx
  03144	f3 0f 10 85 40
	fe ff ff	 movss	 xmm0, DWORD PTR _world_position$34[ebp+8]
  0314c	f3 0f 11 04 24	 movss	 DWORD PTR [esp], xmm0
  03151	51		 push	 ecx
  03152	f3 0f 10 85 38
	fe ff ff	 movss	 xmm0, DWORD PTR _world_position$34[ebp]
  0315a	f3 0f 11 04 24	 movss	 DWORD PTR [esp], xmm0
  0315f	e8 00 00 00 00	 call	 ?get_3d_terrain_point_data@@YGMMMPAUTERRAIN_3D_POINT_DATA@@@Z ; get_3d_terrain_point_data
  03164	dd d8		 fstp	 ST(0)

; 2342 : 
; 2343 : 			altitude = world_position.y - get_3d_terrain_point_data_elevation (&terrain_info);

  03166	8d 85 44 fe ff
	ff		 lea	 eax, DWORD PTR _terrain_info$35[ebp]
  0316c	50		 push	 eax
  0316d	e8 00 00 00 00	 call	 ?get_3d_terrain_point_data_elevation@@YGMPAUTERRAIN_3D_POINT_DATA@@@Z ; get_3d_terrain_point_data_elevation
  03172	d9 9d 00 fd ff
	ff		 fstp	 DWORD PTR tv3234[ebp]
  03178	f3 0f 10 85 3c
	fe ff ff	 movss	 xmm0, DWORD PTR _world_position$34[ebp+4]
  03180	f3 0f 5c 85 00
	fd ff ff	 subss	 xmm0, DWORD PTR tv3234[ebp]
  03188	f3 0f 11 85 70
	fe ff ff	 movss	 DWORD PTR _altitude$36[ebp], xmm0

; 2344 : 
; 2345 : 			altitude = max (altitude, 0.0f);

  03190	0f 57 c0	 xorps	 xmm0, xmm0
  03193	f3 0f 11 85 20
	fd ff ff	 movss	 DWORD PTR $T8[ebp], xmm0
  0319b	8d 85 20 fd ff
	ff		 lea	 eax, DWORD PTR $T8[ebp]
  031a1	50		 push	 eax
  031a2	8d 8d 70 fe ff
	ff		 lea	 ecx, DWORD PTR _altitude$36[ebp]
  031a8	51		 push	 ecx
  031a9	e8 00 00 00 00	 call	 ??$max@M@std@@YGABMABM0@Z ; std::max<float>
  031ae	f3 0f 10 00	 movss	 xmm0, DWORD PTR [eax]
  031b2	f3 0f 11 85 70
	fe ff ff	 movss	 DWORD PTR _altitude$36[ebp], xmm0

; 2346 : 
; 2347 : 			left_g_e_force += ((0.05 - ((altitude * altitude) / (20.0 * current_flight_dynamics->main_rotor_diameter.value * current_flight_dynamics->main_rotor_diameter.value))) - left_g_e_force) * get_model_delta_time ();

  031ba	f3 0f 10 85 70
	fe ff ff	 movss	 xmm0, DWORD PTR _altitude$36[ebp]
  031c2	f3 0f 59 85 70
	fe ff ff	 mulss	 xmm0, DWORD PTR _altitude$36[ebp]
  031ca	f3 0f 5a c0	 cvtss2sd xmm0, xmm0
  031ce	a1 00 00 00 00	 mov	 eax, DWORD PTR ?current_flight_dynamics@@3PAUDYNAMICS_TYPE@@A ; current_flight_dynamics
  031d3	f3 0f 5a 88 9c
	1d 00 00	 cvtss2sd xmm1, DWORD PTR [eax+7580]
  031db	f2 0f 59 0d 00
	00 00 00	 mulsd	 xmm1, QWORD PTR __real@4034000000000000
  031e3	8b 0d 00 00 00
	00		 mov	 ecx, DWORD PTR ?current_flight_dynamics@@3PAUDYNAMICS_TYPE@@A ; current_flight_dynamics
  031e9	f3 0f 5a 91 9c
	1d 00 00	 cvtss2sd xmm2, DWORD PTR [ecx+7580]
  031f1	f2 0f 59 ca	 mulsd	 xmm1, xmm2
  031f5	f2 0f 5e c1	 divsd	 xmm0, xmm1
  031f9	f2 0f 10 0d 00
	00 00 00	 movsd	 xmm1, QWORD PTR __real@3fa999999999999a
  03201	f2 0f 5c c8	 subsd	 xmm1, xmm0
  03205	f3 0f 5a 05 00
	00 00 00	 cvtss2sd xmm0, DWORD PTR ?left_g_e_force@@3MA
  0320d	f2 0f 5c c8	 subsd	 xmm1, xmm0
  03211	8b 15 00 00 00
	00		 mov	 edx, DWORD PTR ?current_flight_dynamics@@3PAUDYNAMICS_TYPE@@A ; current_flight_dynamics
  03217	f3 0f 5a 82 90
	00 00 00	 cvtss2sd xmm0, DWORD PTR [edx+144]
  0321f	f2 0f 59 c8	 mulsd	 xmm1, xmm0
  03223	f3 0f 5a 05 00
	00 00 00	 cvtss2sd xmm0, DWORD PTR ?left_g_e_force@@3MA
  0322b	f2 0f 58 c1	 addsd	 xmm0, xmm1
  0322f	f2 0f 5a c0	 cvtsd2ss xmm0, xmm0
  03233	f3 0f 11 05 00
	00 00 00	 movss	 DWORD PTR ?left_g_e_force@@3MA, xmm0

; 2348 : 
; 2349 : 			left_g_e_force = bound (left_g_e_force, 0.0, 0.05);

  0323b	f3 0f 5a 05 00
	00 00 00	 cvtss2sd xmm0, DWORD PTR ?left_g_e_force@@3MA
  03243	0f 57 c9	 xorps	 xmm1, xmm1
  03246	66 0f 2f c8	 comisd	 xmm1, xmm0
  0324a	76 0d		 jbe	 SHORT $LN129@update_att
  0324c	0f 57 c0	 xorps	 xmm0, xmm0
  0324f	f2 0f 11 85 fc
	fc ff ff	 movsd	 QWORD PTR tv1594[ebp], xmm0
  03257	eb 44		 jmp	 SHORT $LN130@update_att
$LN129@update_att:
  03259	f3 0f 5a 05 00
	00 00 00	 cvtss2sd xmm0, DWORD PTR ?left_g_e_force@@3MA
  03261	66 0f 2f 05 00
	00 00 00	 comisd	 xmm0, QWORD PTR __real@3fa999999999999a
  03269	76 12		 jbe	 SHORT $LN127@update_att
  0326b	f2 0f 10 05 00
	00 00 00	 movsd	 xmm0, QWORD PTR __real@3fa999999999999a
  03273	f2 0f 11 85 f4
	fc ff ff	 movsd	 QWORD PTR tv1593[ebp], xmm0
  0327b	eb 10		 jmp	 SHORT $LN128@update_att
$LN127@update_att:
  0327d	f3 0f 5a 05 00
	00 00 00	 cvtss2sd xmm0, DWORD PTR ?left_g_e_force@@3MA
  03285	f2 0f 11 85 f4
	fc ff ff	 movsd	 QWORD PTR tv1593[ebp], xmm0
$LN128@update_att:
  0328d	f2 0f 10 85 f4
	fc ff ff	 movsd	 xmm0, QWORD PTR tv1593[ebp]
  03295	f2 0f 11 85 fc
	fc ff ff	 movsd	 QWORD PTR tv1594[ebp], xmm0
$LN130@update_att:
  0329d	f2 0f 5a 85 fc
	fc ff ff	 cvtsd2ss xmm0, QWORD PTR tv1594[ebp]
  032a5	f3 0f 11 05 00
	00 00 00	 movss	 DWORD PTR ?left_g_e_force@@3MA, xmm0

; 2350 : 
; 2351 : 			if (left_g_e_force > 0.0)

  032ad	f3 0f 5a 05 00
	00 00 00	 cvtss2sd xmm0, DWORD PTR ?left_g_e_force@@3MA
  032b5	66 0f 2f 05 00
	00 00 00	 comisd	 xmm0, QWORD PTR __real@0000000000000000
  032bd	0f 86 d5 00 00
	00		 jbe	 $LN53@update_att

; 2352 : 			{
; 2353 : 
; 2354 : 				left_g_e_force *= tuning_value * main_rotor_induced_air_value;

  032c3	f3 0f 10 85 28
	fe ff ff	 movss	 xmm0, DWORD PTR _tuning_value$30[ebp]
  032cb	f3 0f 59 85 78
	ff ff ff	 mulss	 xmm0, DWORD PTR _main_rotor_induced_air_value$[ebp]
  032d3	f3 0f 59 05 00
	00 00 00	 mulss	 xmm0, DWORD PTR ?left_g_e_force@@3MA
  032db	f3 0f 11 05 00
	00 00 00	 movss	 DWORD PTR ?left_g_e_force@@3MA, xmm0

; 2355 : 
; 2356 : 				if (current_flight_dynamics->velocity_z.max != 0.0)

  032e3	a1 00 00 00 00	 mov	 eax, DWORD PTR ?current_flight_dynamics@@3PAUDYNAMICS_TYPE@@A ; current_flight_dynamics
  032e8	f3 0f 5a 80 a8
	20 00 00	 cvtss2sd xmm0, DWORD PTR [eax+8360]
  032f0	66 0f 2e 05 00
	00 00 00	 ucomisd xmm0, QWORD PTR __real@0000000000000000
  032f8	9f		 lahf
  032f9	f6 c4 44	 test	 ah, 68			; 00000044H
  032fc	7b 4c		 jnp	 SHORT $LN54@update_att

; 2357 : 				{
; 2358 : 
; 2359 : 					left_g_e_force *= (current_flight_dynamics->velocity_z.max - fabs (velocity_z_value)) / current_flight_dynamics->velocity_z.max;

  032fe	51		 push	 ecx
  032ff	f3 0f 10 85 4c
	ff ff ff	 movss	 xmm0, DWORD PTR _velocity_z_value$[ebp]
  03307	f3 0f 11 04 24	 movss	 DWORD PTR [esp], xmm0
  0330c	e8 00 00 00 00	 call	 ?fabs@@YGMM@Z		; fabs
  03311	d9 9d 00 fd ff
	ff		 fstp	 DWORD PTR tv3261[ebp]
  03317	a1 00 00 00 00	 mov	 eax, DWORD PTR ?current_flight_dynamics@@3PAUDYNAMICS_TYPE@@A ; current_flight_dynamics
  0331c	f3 0f 10 80 a8
	20 00 00	 movss	 xmm0, DWORD PTR [eax+8360]
  03324	f3 0f 5c 85 00
	fd ff ff	 subss	 xmm0, DWORD PTR tv3261[ebp]
  0332c	8b 0d 00 00 00
	00		 mov	 ecx, DWORD PTR ?current_flight_dynamics@@3PAUDYNAMICS_TYPE@@A ; current_flight_dynamics
  03332	f3 0f 5e 81 a8
	20 00 00	 divss	 xmm0, DWORD PTR [ecx+8360]
  0333a	f3 0f 59 05 00
	00 00 00	 mulss	 xmm0, DWORD PTR ?left_g_e_force@@3MA
  03342	f3 0f 11 05 00
	00 00 00	 movss	 DWORD PTR ?left_g_e_force@@3MA, xmm0
$LN54@update_att:

; 2360 : 				}
; 2361 : 
; 2362 : 				#if DEBUG_MODULE
; 2363 : 
; 2364 : 				debug_log ("DYNAMICS: IGE left force %f, alt %f, y %f, el %f, x %f, z %f",
; 2365 : 								left_g_e_force, altitude, current_flight_dynamics->position.y,
; 2366 : 								get_3d_terrain_point_data_elevation (&terrain_info), world_position.x, world_position.z);
; 2367 : 
; 2368 : 				create_vectored_debug_3d_object (&world_position, &direction, OBJECT_3D_ARROW_FORCES, 0, 20.0 * left_g_e_force);
; 2369 : 
; 2370 : 				#endif
; 2371 : 
; 2372 : 				left_g_e_force *= current_flight_dynamics->ground_effect.modifier;

  0334a	a1 00 00 00 00	 mov	 eax, DWORD PTR ?current_flight_dynamics@@3PAUDYNAMICS_TYPE@@A ; current_flight_dynamics
  0334f	f3 0f 10 05 00
	00 00 00	 movss	 xmm0, DWORD PTR ?left_g_e_force@@3MA
  03357	f3 0f 59 80 e0
	23 00 00	 mulss	 xmm0, DWORD PTR [eax+9184]
  0335f	f3 0f 11 05 00
	00 00 00	 movss	 DWORD PTR ?left_g_e_force@@3MA, xmm0

; 2373 : 
; 2374 : 				add_dynamic_force ("Left rotor Ground effect", left_g_e_force, 0.0, &position, &direction, FALSE);

  03367	6a 00		 push	 0
  03369	8d 85 14 ff ff
	ff		 lea	 eax, DWORD PTR _direction$[ebp]
  0336f	50		 push	 eax
  03370	8d 8d 20 ff ff
	ff		 lea	 ecx, DWORD PTR _position$[ebp]
  03376	51		 push	 ecx
  03377	51		 push	 ecx
  03378	0f 57 c0	 xorps	 xmm0, xmm0
  0337b	f3 0f 11 04 24	 movss	 DWORD PTR [esp], xmm0
  03380	51		 push	 ecx
  03381	f3 0f 10 05 00
	00 00 00	 movss	 xmm0, DWORD PTR ?left_g_e_force@@3MA
  03389	f3 0f 11 04 24	 movss	 DWORD PTR [esp], xmm0
  0338e	68 00 00 00 00	 push	 OFFSET ??_C@_0BJ@KEABEFD@Left?5rotor?5Ground?5effect@
  03393	e8 00 00 00 00	 call	 ?add_dynamic_force@@YGXPBDMMPAUVEC3D@@1H@Z ; add_dynamic_force
$LN53@update_att:

; 2375 : 			}
; 2376 : 		}
; 2377 : 		////////////////////////////////////////////
; 2378 : 		// In Ground Effect on right side of rotor disc
; 2379 : 		////////////////////////////////////////////
; 2380 : 		{
; 2381 : 
; 2382 : 			float
; 2383 : 				tuning_value = 0.1;

  03398	f3 0f 10 05 00
	00 00 00	 movss	 xmm0, DWORD PTR __real@3dcccccd
  033a0	f3 0f 11 85 24
	fe ff ff	 movss	 DWORD PTR _tuning_value$29[ebp], xmm0

; 2384 : 
; 2385 : 			position.x = -7.299;

  033a8	f3 0f 10 05 00
	00 00 00	 movss	 xmm0, DWORD PTR __real@c0e99168
  033b0	f3 0f 11 85 20
	ff ff ff	 movss	 DWORD PTR _position$[ebp], xmm0

; 2386 : 			position.y = 0.0;

  033b8	0f 57 c0	 xorps	 xmm0, xmm0
  033bb	f3 0f 11 85 24
	ff ff ff	 movss	 DWORD PTR _position$[ebp+4], xmm0

; 2387 : 			position.z = 0.0;

  033c3	0f 57 c0	 xorps	 xmm0, xmm0
  033c6	f3 0f 11 85 28
	ff ff ff	 movss	 DWORD PTR _position$[ebp+8], xmm0

; 2388 : 
; 2389 : 			direction.x = 0.0;

  033ce	0f 57 c0	 xorps	 xmm0, xmm0
  033d1	f3 0f 11 85 14
	ff ff ff	 movss	 DWORD PTR _direction$[ebp], xmm0

; 2390 : 			direction.y = 1.0;

  033d9	f3 0f 10 05 00
	00 00 00	 movss	 xmm0, DWORD PTR __real@3f800000
  033e1	f3 0f 11 85 18
	ff ff ff	 movss	 DWORD PTR _direction$[ebp+4], xmm0

; 2391 : 			direction.z = 0.0;

  033e9	0f 57 c0	 xorps	 xmm0, xmm0
  033ec	f3 0f 11 85 1c
	ff ff ff	 movss	 DWORD PTR _direction$[ebp+8], xmm0

; 2392 : 
; 2393 : 			multiply_matrix3x3_vec3d (&world_position, current_flight_dynamics->attitude, &position);

  033f4	8d 85 20 ff ff
	ff		 lea	 eax, DWORD PTR _position$[ebp]
  033fa	50		 push	 eax
  033fb	8b 0d 00 00 00
	00		 mov	 ecx, DWORD PTR ?current_flight_dynamics@@3PAUDYNAMICS_TYPE@@A ; current_flight_dynamics
  03401	81 c1 d0 00 00
	00		 add	 ecx, 208		; 000000d0H
  03407	51		 push	 ecx
  03408	8d 95 38 fe ff
	ff		 lea	 edx, DWORD PTR _world_position$34[ebp]
  0340e	52		 push	 edx
  0340f	e8 00 00 00 00	 call	 ?multiply_matrix3x3_vec3d@@YGXPAUVEC3D@@QAY02$$CBMPBU1@@Z ; multiply_matrix3x3_vec3d

; 2394 : 
; 2395 : 			world_position.x += current_flight_dynamics->position.x;

  03414	f3 0f 5a 85 38
	fe ff ff	 cvtss2sd xmm0, DWORD PTR _world_position$34[ebp]
  0341c	a1 00 00 00 00	 mov	 eax, DWORD PTR ?current_flight_dynamics@@3PAUDYNAMICS_TYPE@@A ; current_flight_dynamics
  03421	f2 0f 58 80 ac
	00 00 00	 addsd	 xmm0, QWORD PTR [eax+172]
  03429	f2 0f 5a c0	 cvtsd2ss xmm0, xmm0
  0342d	f3 0f 11 85 38
	fe ff ff	 movss	 DWORD PTR _world_position$34[ebp], xmm0

; 2396 : 			world_position.y += current_flight_dynamics->position.y;

  03435	f3 0f 5a 85 3c
	fe ff ff	 cvtss2sd xmm0, DWORD PTR _world_position$34[ebp+4]
  0343d	a1 00 00 00 00	 mov	 eax, DWORD PTR ?current_flight_dynamics@@3PAUDYNAMICS_TYPE@@A ; current_flight_dynamics
  03442	f2 0f 58 80 b4
	00 00 00	 addsd	 xmm0, QWORD PTR [eax+180]
  0344a	f2 0f 5a c0	 cvtsd2ss xmm0, xmm0
  0344e	f3 0f 11 85 3c
	fe ff ff	 movss	 DWORD PTR _world_position$34[ebp+4], xmm0

; 2397 : 			world_position.z += current_flight_dynamics->position.z;

  03456	f3 0f 5a 85 40
	fe ff ff	 cvtss2sd xmm0, DWORD PTR _world_position$34[ebp+8]
  0345e	a1 00 00 00 00	 mov	 eax, DWORD PTR ?current_flight_dynamics@@3PAUDYNAMICS_TYPE@@A ; current_flight_dynamics
  03463	f2 0f 58 80 bc
	00 00 00	 addsd	 xmm0, QWORD PTR [eax+188]
  0346b	f2 0f 5a c0	 cvtsd2ss xmm0, xmm0
  0346f	f3 0f 11 85 40
	fe ff ff	 movss	 DWORD PTR _world_position$34[ebp+8], xmm0

; 2398 : 
; 2399 : 			bound_position_to_adjusted_map_volume (&world_position);

  03477	8d 85 38 fe ff
	ff		 lea	 eax, DWORD PTR _world_position$34[ebp]
  0347d	50		 push	 eax
  0347e	e8 00 00 00 00	 call	 ?bound_position_to_adjusted_map_volume@@YGHPAUVEC3D@@@Z ; bound_position_to_adjusted_map_volume

; 2400 : 
; 2401 : 			get_3d_terrain_point_data (world_position.x, world_position.z, &terrain_info);

  03483	8d 85 44 fe ff
	ff		 lea	 eax, DWORD PTR _terrain_info$35[ebp]
  03489	50		 push	 eax
  0348a	51		 push	 ecx
  0348b	f3 0f 10 85 40
	fe ff ff	 movss	 xmm0, DWORD PTR _world_position$34[ebp+8]
  03493	f3 0f 11 04 24	 movss	 DWORD PTR [esp], xmm0
  03498	51		 push	 ecx
  03499	f3 0f 10 85 38
	fe ff ff	 movss	 xmm0, DWORD PTR _world_position$34[ebp]
  034a1	f3 0f 11 04 24	 movss	 DWORD PTR [esp], xmm0
  034a6	e8 00 00 00 00	 call	 ?get_3d_terrain_point_data@@YGMMMPAUTERRAIN_3D_POINT_DATA@@@Z ; get_3d_terrain_point_data
  034ab	dd d8		 fstp	 ST(0)

; 2402 : 
; 2403 : 			altitude = world_position.y - get_3d_terrain_point_data_elevation (&terrain_info);

  034ad	8d 85 44 fe ff
	ff		 lea	 eax, DWORD PTR _terrain_info$35[ebp]
  034b3	50		 push	 eax
  034b4	e8 00 00 00 00	 call	 ?get_3d_terrain_point_data_elevation@@YGMPAUTERRAIN_3D_POINT_DATA@@@Z ; get_3d_terrain_point_data_elevation
  034b9	d9 9d 00 fd ff
	ff		 fstp	 DWORD PTR tv3297[ebp]
  034bf	f3 0f 10 85 3c
	fe ff ff	 movss	 xmm0, DWORD PTR _world_position$34[ebp+4]
  034c7	f3 0f 5c 85 00
	fd ff ff	 subss	 xmm0, DWORD PTR tv3297[ebp]
  034cf	f3 0f 11 85 70
	fe ff ff	 movss	 DWORD PTR _altitude$36[ebp], xmm0

; 2404 : 
; 2405 : 			altitude = max (altitude, 0.0f);

  034d7	0f 57 c0	 xorps	 xmm0, xmm0
  034da	f3 0f 11 85 1c
	fd ff ff	 movss	 DWORD PTR $T7[ebp], xmm0
  034e2	8d 85 1c fd ff
	ff		 lea	 eax, DWORD PTR $T7[ebp]
  034e8	50		 push	 eax
  034e9	8d 8d 70 fe ff
	ff		 lea	 ecx, DWORD PTR _altitude$36[ebp]
  034ef	51		 push	 ecx
  034f0	e8 00 00 00 00	 call	 ??$max@M@std@@YGABMABM0@Z ; std::max<float>
  034f5	f3 0f 10 00	 movss	 xmm0, DWORD PTR [eax]
  034f9	f3 0f 11 85 70
	fe ff ff	 movss	 DWORD PTR _altitude$36[ebp], xmm0

; 2406 : 
; 2407 : 			right_g_e_force += ((0.05 - ((altitude * altitude) / (20.0 * current_flight_dynamics->main_rotor_diameter.value * current_flight_dynamics->main_rotor_diameter.value))) - right_g_e_force) * get_model_delta_time ();

  03501	f3 0f 10 85 70
	fe ff ff	 movss	 xmm0, DWORD PTR _altitude$36[ebp]
  03509	f3 0f 59 85 70
	fe ff ff	 mulss	 xmm0, DWORD PTR _altitude$36[ebp]
  03511	f3 0f 5a c0	 cvtss2sd xmm0, xmm0
  03515	a1 00 00 00 00	 mov	 eax, DWORD PTR ?current_flight_dynamics@@3PAUDYNAMICS_TYPE@@A ; current_flight_dynamics
  0351a	f3 0f 5a 88 9c
	1d 00 00	 cvtss2sd xmm1, DWORD PTR [eax+7580]
  03522	f2 0f 59 0d 00
	00 00 00	 mulsd	 xmm1, QWORD PTR __real@4034000000000000
  0352a	8b 0d 00 00 00
	00		 mov	 ecx, DWORD PTR ?current_flight_dynamics@@3PAUDYNAMICS_TYPE@@A ; current_flight_dynamics
  03530	f3 0f 5a 91 9c
	1d 00 00	 cvtss2sd xmm2, DWORD PTR [ecx+7580]
  03538	f2 0f 59 ca	 mulsd	 xmm1, xmm2
  0353c	f2 0f 5e c1	 divsd	 xmm0, xmm1
  03540	f2 0f 10 0d 00
	00 00 00	 movsd	 xmm1, QWORD PTR __real@3fa999999999999a
  03548	f2 0f 5c c8	 subsd	 xmm1, xmm0
  0354c	f3 0f 5a 05 00
	00 00 00	 cvtss2sd xmm0, DWORD PTR ?right_g_e_force@@3MA
  03554	f2 0f 5c c8	 subsd	 xmm1, xmm0
  03558	8b 15 00 00 00
	00		 mov	 edx, DWORD PTR ?current_flight_dynamics@@3PAUDYNAMICS_TYPE@@A ; current_flight_dynamics
  0355e	f3 0f 5a 82 90
	00 00 00	 cvtss2sd xmm0, DWORD PTR [edx+144]
  03566	f2 0f 59 c8	 mulsd	 xmm1, xmm0
  0356a	f3 0f 5a 05 00
	00 00 00	 cvtss2sd xmm0, DWORD PTR ?right_g_e_force@@3MA
  03572	f2 0f 58 c1	 addsd	 xmm0, xmm1
  03576	f2 0f 5a c0	 cvtsd2ss xmm0, xmm0
  0357a	f3 0f 11 05 00
	00 00 00	 movss	 DWORD PTR ?right_g_e_force@@3MA, xmm0

; 2408 : 
; 2409 : 			right_g_e_force = bound (right_g_e_force, 0.0, 0.05);

  03582	f3 0f 5a 05 00
	00 00 00	 cvtss2sd xmm0, DWORD PTR ?right_g_e_force@@3MA
  0358a	0f 57 c9	 xorps	 xmm1, xmm1
  0358d	66 0f 2f c8	 comisd	 xmm1, xmm0
  03591	76 0d		 jbe	 SHORT $LN133@update_att
  03593	0f 57 c0	 xorps	 xmm0, xmm0
  03596	f2 0f 11 85 fc
	fc ff ff	 movsd	 QWORD PTR tv1677[ebp], xmm0
  0359e	eb 44		 jmp	 SHORT $LN134@update_att
$LN133@update_att:
  035a0	f3 0f 5a 05 00
	00 00 00	 cvtss2sd xmm0, DWORD PTR ?right_g_e_force@@3MA
  035a8	66 0f 2f 05 00
	00 00 00	 comisd	 xmm0, QWORD PTR __real@3fa999999999999a
  035b0	76 12		 jbe	 SHORT $LN131@update_att
  035b2	f2 0f 10 05 00
	00 00 00	 movsd	 xmm0, QWORD PTR __real@3fa999999999999a
  035ba	f2 0f 11 85 f4
	fc ff ff	 movsd	 QWORD PTR tv1676[ebp], xmm0
  035c2	eb 10		 jmp	 SHORT $LN132@update_att
$LN131@update_att:
  035c4	f3 0f 5a 05 00
	00 00 00	 cvtss2sd xmm0, DWORD PTR ?right_g_e_force@@3MA
  035cc	f2 0f 11 85 f4
	fc ff ff	 movsd	 QWORD PTR tv1676[ebp], xmm0
$LN132@update_att:
  035d4	f2 0f 10 85 f4
	fc ff ff	 movsd	 xmm0, QWORD PTR tv1676[ebp]
  035dc	f2 0f 11 85 fc
	fc ff ff	 movsd	 QWORD PTR tv1677[ebp], xmm0
$LN134@update_att:
  035e4	f2 0f 5a 85 fc
	fc ff ff	 cvtsd2ss xmm0, QWORD PTR tv1677[ebp]
  035ec	f3 0f 11 05 00
	00 00 00	 movss	 DWORD PTR ?right_g_e_force@@3MA, xmm0

; 2410 : 
; 2411 : 			if (right_g_e_force > 0.0)

  035f4	f3 0f 5a 05 00
	00 00 00	 cvtss2sd xmm0, DWORD PTR ?right_g_e_force@@3MA
  035fc	66 0f 2f 05 00
	00 00 00	 comisd	 xmm0, QWORD PTR __real@0000000000000000
  03604	0f 86 d5 00 00
	00		 jbe	 $LN55@update_att

; 2412 : 			{
; 2413 : 
; 2414 : 				right_g_e_force *= tuning_value * main_rotor_induced_air_value;

  0360a	f3 0f 10 85 24
	fe ff ff	 movss	 xmm0, DWORD PTR _tuning_value$29[ebp]
  03612	f3 0f 59 85 78
	ff ff ff	 mulss	 xmm0, DWORD PTR _main_rotor_induced_air_value$[ebp]
  0361a	f3 0f 59 05 00
	00 00 00	 mulss	 xmm0, DWORD PTR ?right_g_e_force@@3MA
  03622	f3 0f 11 05 00
	00 00 00	 movss	 DWORD PTR ?right_g_e_force@@3MA, xmm0

; 2415 : 
; 2416 : 				if (current_flight_dynamics->velocity_z.max != 0.0)

  0362a	a1 00 00 00 00	 mov	 eax, DWORD PTR ?current_flight_dynamics@@3PAUDYNAMICS_TYPE@@A ; current_flight_dynamics
  0362f	f3 0f 5a 80 a8
	20 00 00	 cvtss2sd xmm0, DWORD PTR [eax+8360]
  03637	66 0f 2e 05 00
	00 00 00	 ucomisd xmm0, QWORD PTR __real@0000000000000000
  0363f	9f		 lahf
  03640	f6 c4 44	 test	 ah, 68			; 00000044H
  03643	7b 4c		 jnp	 SHORT $LN56@update_att

; 2417 : 				{
; 2418 : 
; 2419 : 					right_g_e_force *= (current_flight_dynamics->velocity_z.max - fabs (velocity_z_value)) / current_flight_dynamics->velocity_z.max;

  03645	51		 push	 ecx
  03646	f3 0f 10 85 4c
	ff ff ff	 movss	 xmm0, DWORD PTR _velocity_z_value$[ebp]
  0364e	f3 0f 11 04 24	 movss	 DWORD PTR [esp], xmm0
  03653	e8 00 00 00 00	 call	 ?fabs@@YGMM@Z		; fabs
  03658	d9 9d 00 fd ff
	ff		 fstp	 DWORD PTR tv3324[ebp]
  0365e	a1 00 00 00 00	 mov	 eax, DWORD PTR ?current_flight_dynamics@@3PAUDYNAMICS_TYPE@@A ; current_flight_dynamics
  03663	f3 0f 10 80 a8
	20 00 00	 movss	 xmm0, DWORD PTR [eax+8360]
  0366b	f3 0f 5c 85 00
	fd ff ff	 subss	 xmm0, DWORD PTR tv3324[ebp]
  03673	8b 0d 00 00 00
	00		 mov	 ecx, DWORD PTR ?current_flight_dynamics@@3PAUDYNAMICS_TYPE@@A ; current_flight_dynamics
  03679	f3 0f 5e 81 a8
	20 00 00	 divss	 xmm0, DWORD PTR [ecx+8360]
  03681	f3 0f 59 05 00
	00 00 00	 mulss	 xmm0, DWORD PTR ?right_g_e_force@@3MA
  03689	f3 0f 11 05 00
	00 00 00	 movss	 DWORD PTR ?right_g_e_force@@3MA, xmm0
$LN56@update_att:

; 2420 : 				}
; 2421 : 
; 2422 : 				#if DEBUG_MODULE
; 2423 : 
; 2424 : 				debug_log ("DYNAMICS: IGE right force %f, alt %f, y %f, el %f, x %f, z %f",
; 2425 : 								right_g_e_force, altitude, current_flight_dynamics->position.y,
; 2426 : 								get_3d_terrain_point_data_elevation (&terrain_info), world_position.x, world_position.z);
; 2427 : 
; 2428 : 				create_vectored_debug_3d_object (&world_position, &direction, OBJECT_3D_ARROW_FORCES, 0, 20.0 * right_g_e_force);
; 2429 : 
; 2430 : 				#endif
; 2431 : 
; 2432 : 				right_g_e_force *= current_flight_dynamics->ground_effect.modifier;

  03691	a1 00 00 00 00	 mov	 eax, DWORD PTR ?current_flight_dynamics@@3PAUDYNAMICS_TYPE@@A ; current_flight_dynamics
  03696	f3 0f 10 05 00
	00 00 00	 movss	 xmm0, DWORD PTR ?right_g_e_force@@3MA
  0369e	f3 0f 59 80 e0
	23 00 00	 mulss	 xmm0, DWORD PTR [eax+9184]
  036a6	f3 0f 11 05 00
	00 00 00	 movss	 DWORD PTR ?right_g_e_force@@3MA, xmm0

; 2433 : 
; 2434 : 				add_dynamic_force ("Right rotor Ground effect", right_g_e_force, 0.0, &position, &direction, FALSE);

  036ae	6a 00		 push	 0
  036b0	8d 85 14 ff ff
	ff		 lea	 eax, DWORD PTR _direction$[ebp]
  036b6	50		 push	 eax
  036b7	8d 8d 20 ff ff
	ff		 lea	 ecx, DWORD PTR _position$[ebp]
  036bd	51		 push	 ecx
  036be	51		 push	 ecx
  036bf	0f 57 c0	 xorps	 xmm0, xmm0
  036c2	f3 0f 11 04 24	 movss	 DWORD PTR [esp], xmm0
  036c7	51		 push	 ecx
  036c8	f3 0f 10 05 00
	00 00 00	 movss	 xmm0, DWORD PTR ?right_g_e_force@@3MA
  036d0	f3 0f 11 04 24	 movss	 DWORD PTR [esp], xmm0
  036d5	68 00 00 00 00	 push	 OFFSET ??_C@_0BK@ONPBLKKA@Right?5rotor?5Ground?5effect@
  036da	e8 00 00 00 00	 call	 ?add_dynamic_force@@YGXPBDMMPAUVEC3D@@1H@Z ; add_dynamic_force
$LN55@update_att:

; 2435 : 			}
; 2436 : 		}
; 2437 : 	}
; 2438 : 	////////////////////////////////////////////
; 2439 : 	// Vortex ring
; 2440 : 	////////////////////////////////////////////
; 2441 : 	if ((!model_landed) &&
; 2442 : 		(get_current_dynamics_options (DYNAMICS_OPTIONS_VORTEX_RING)) &&

  036df	83 7d fc 00	 cmp	 DWORD PTR _model_landed$[ebp], 0
  036e3	0f 85 ee 02 00
	00		 jne	 $LN59@update_att
  036e9	6a 0b		 push	 11			; 0000000bH
  036eb	e8 00 00 00 00	 call	 ?get_current_dynamics_options@@YGHW4DYNAMICS_OPTIONS_TYPES@@@Z ; get_current_dynamics_options
  036f0	85 c0		 test	 eax, eax
  036f2	0f 84 df 02 00
	00		 je	 $LN59@update_att
  036f8	a1 00 00 00 00	 mov	 eax, DWORD PTR ?current_flight_dynamics@@3PAUDYNAMICS_TYPE@@A ; current_flight_dynamics
  036fd	8b 88 24 25 00
	00		 mov	 ecx, DWORD PTR [eax+9508]
  03703	83 e1 02	 and	 ecx, 2
  03706	0f 85 cb 02 00
	00		 jne	 $LN59@update_att

; 2443 : 		(!(current_flight_dynamics->dynamics_damage & DYNAMICS_DAMAGE_MAIN_ROTOR)))
; 2444 : 	{
; 2445 : 		float air_over_rotor = -fabs(main_rotor_induced_air_value) - model_motion_vector.y;

  0370c	51		 push	 ecx
  0370d	f3 0f 10 85 78
	ff ff ff	 movss	 xmm0, DWORD PTR _main_rotor_induced_air_value$[ebp]
  03715	f3 0f 11 04 24	 movss	 DWORD PTR [esp], xmm0
  0371a	e8 00 00 00 00	 call	 ?fabs@@YGMM@Z		; fabs
  0371f	d9 9d 00 fd ff
	ff		 fstp	 DWORD PTR tv3345[ebp]
  03725	f3 0f 10 85 00
	fd ff ff	 movss	 xmm0, DWORD PTR tv3345[ebp]
  0372d	0f 57 05 00 00
	00 00		 xorps	 xmm0, DWORD PTR __xmm@80000000800000008000000080000000
  03734	f3 0f 5c 85 f4
	fe ff ff	 subss	 xmm0, DWORD PTR _model_motion_vector$[ebp+4]
  0373c	f3 0f 11 85 20
	fe ff ff	 movss	 DWORD PTR _air_over_rotor$28[ebp], xmm0

; 2446 : 		float vibration_limit = -fabs(main_rotor_induced_air_value) - model_motion_vector.y * 0.6;

  03744	51		 push	 ecx
  03745	f3 0f 10 85 78
	ff ff ff	 movss	 xmm0, DWORD PTR _main_rotor_induced_air_value$[ebp]
  0374d	f3 0f 11 04 24	 movss	 DWORD PTR [esp], xmm0
  03752	e8 00 00 00 00	 call	 ?fabs@@YGMM@Z		; fabs
  03757	d9 9d 00 fd ff
	ff		 fstp	 DWORD PTR tv3351[ebp]
  0375d	f3 0f 10 85 00
	fd ff ff	 movss	 xmm0, DWORD PTR tv3351[ebp]
  03765	0f 57 05 00 00
	00 00		 xorps	 xmm0, DWORD PTR __xmm@80000000800000008000000080000000
  0376c	f3 0f 5a c0	 cvtss2sd xmm0, xmm0
  03770	f3 0f 5a 8d f4
	fe ff ff	 cvtss2sd xmm1, DWORD PTR _model_motion_vector$[ebp+4]
  03778	f2 0f 59 0d 00
	00 00 00	 mulsd	 xmm1, QWORD PTR __real@3fe3333333333333
  03780	f2 0f 5c c1	 subsd	 xmm0, xmm1
  03784	f2 0f 5a c0	 cvtsd2ss xmm0, xmm0
  03788	f3 0f 11 85 1c
	fe ff ff	 movss	 DWORD PTR _vibration_limit$27[ebp], xmm0

; 2447 : 		float velocity_factor = max (((current_flight_dynamics->main_rotor_induced_vortex_air_flow.min -

  03790	0f 57 c0	 xorps	 xmm0, xmm0
  03793	f3 0f 11 85 18
	fd ff ff	 movss	 DWORD PTR $T6[ebp], xmm0
  0379b	51		 push	 ecx
  0379c	f3 0f 10 85 f8
	fe ff ff	 movss	 xmm0, DWORD PTR _model_motion_vector$[ebp+8]
  037a4	f3 0f 11 04 24	 movss	 DWORD PTR [esp], xmm0
  037a9	e8 00 00 00 00	 call	 ?fabs@@YGMM@Z		; fabs
  037ae	d9 9d 00 fd ff
	ff		 fstp	 DWORD PTR tv3358[ebp]
  037b4	a1 00 00 00 00	 mov	 eax, DWORD PTR ?current_flight_dynamics@@3PAUDYNAMICS_TYPE@@A ; current_flight_dynamics
  037b9	f3 0f 10 80 8c
	1d 00 00	 movss	 xmm0, DWORD PTR [eax+7564]
  037c1	f3 0f 5c 85 00
	fd ff ff	 subss	 xmm0, DWORD PTR tv3358[ebp]
  037c9	8b 0d 00 00 00
	00		 mov	 ecx, DWORD PTR ?current_flight_dynamics@@3PAUDYNAMICS_TYPE@@A ; current_flight_dynamics
  037cf	f3 0f 5e 81 8c
	1d 00 00	 divss	 xmm0, DWORD PTR [ecx+7564]
  037d7	f3 0f 11 85 14
	fd ff ff	 movss	 DWORD PTR $T5[ebp], xmm0
  037df	8d 95 18 fd ff
	ff		 lea	 edx, DWORD PTR $T6[ebp]
  037e5	52		 push	 edx
  037e6	8d 85 14 fd ff
	ff		 lea	 eax, DWORD PTR $T5[ebp]
  037ec	50		 push	 eax
  037ed	e8 00 00 00 00	 call	 ??$max@M@std@@YGABMABM0@Z ; std::max<float>
  037f2	f3 0f 10 00	 movss	 xmm0, DWORD PTR [eax]
  037f6	f3 0f 11 85 18
	fe ff ff	 movss	 DWORD PTR _velocity_factor$26[ebp], xmm0

; 2448 : 					   fabs (model_motion_vector.z)) / current_flight_dynamics->main_rotor_induced_vortex_air_flow.min), 0.0f);
; 2449 : 
; 2450 : 		// arneh - create vibration when close to vortex ring state
; 2451 : 		if (vibration_limit > 0.0 && !(current_flight_dynamics->dynamics_damage & DYNAMICS_DAMAGE_MAIN_ROTOR_BLADE) && velocity_factor > 0.0)

  037fe	f3 0f 5a 85 1c
	fe ff ff	 cvtss2sd xmm0, DWORD PTR _vibration_limit$27[ebp]
  03806	66 0f 2f 05 00
	00 00 00	 comisd	 xmm0, QWORD PTR __real@0000000000000000
  0380e	0f 86 de 00 00
	00		 jbe	 $LN58@update_att
  03814	a1 00 00 00 00	 mov	 eax, DWORD PTR ?current_flight_dynamics@@3PAUDYNAMICS_TYPE@@A ; current_flight_dynamics
  03819	8b 88 24 25 00
	00		 mov	 ecx, DWORD PTR [eax+9508]
  0381f	81 e1 00 00 01
	00		 and	 ecx, 65536		; 00010000H
  03825	0f 85 c7 00 00
	00		 jne	 $LN58@update_att
  0382b	f3 0f 5a 85 18
	fe ff ff	 cvtss2sd xmm0, DWORD PTR _velocity_factor$26[ebp]
  03833	66 0f 2f 05 00
	00 00 00	 comisd	 xmm0, QWORD PTR __real@0000000000000000
  0383b	0f 86 b1 00 00
	00		 jbe	 $LN58@update_att

; 2452 : 			create_rotor_vibration(bound(vibration_limit * 0.3 * velocity_factor, 0.0, 1.0));

  03841	f3 0f 5a 85 1c
	fe ff ff	 cvtss2sd xmm0, DWORD PTR _vibration_limit$27[ebp]
  03849	f2 0f 59 05 00
	00 00 00	 mulsd	 xmm0, QWORD PTR __real@3fd3333333333333
  03851	f3 0f 5a 8d 18
	fe ff ff	 cvtss2sd xmm1, DWORD PTR _velocity_factor$26[ebp]
  03859	f2 0f 59 c1	 mulsd	 xmm0, xmm1
  0385d	0f 57 c9	 xorps	 xmm1, xmm1
  03860	66 0f 2f c8	 comisd	 xmm1, xmm0
  03864	76 0d		 jbe	 SHORT $LN137@update_att
  03866	0f 57 c0	 xorps	 xmm0, xmm0
  03869	f2 0f 11 85 fc
	fc ff ff	 movsd	 QWORD PTR tv1758[ebp], xmm0
  03871	eb 6c		 jmp	 SHORT $LN138@update_att
$LN137@update_att:
  03873	f3 0f 5a 85 1c
	fe ff ff	 cvtss2sd xmm0, DWORD PTR _vibration_limit$27[ebp]
  0387b	f2 0f 59 05 00
	00 00 00	 mulsd	 xmm0, QWORD PTR __real@3fd3333333333333
  03883	f3 0f 5a 8d 18
	fe ff ff	 cvtss2sd xmm1, DWORD PTR _velocity_factor$26[ebp]
  0388b	f2 0f 59 c1	 mulsd	 xmm0, xmm1
  0388f	66 0f 2f 05 00
	00 00 00	 comisd	 xmm0, QWORD PTR __real@3ff0000000000000
  03897	76 12		 jbe	 SHORT $LN135@update_att
  03899	f2 0f 10 05 00
	00 00 00	 movsd	 xmm0, QWORD PTR __real@3ff0000000000000
  038a1	f2 0f 11 85 f4
	fc ff ff	 movsd	 QWORD PTR tv1757[ebp], xmm0
  038a9	eb 24		 jmp	 SHORT $LN136@update_att
$LN135@update_att:
  038ab	f3 0f 5a 85 1c
	fe ff ff	 cvtss2sd xmm0, DWORD PTR _vibration_limit$27[ebp]
  038b3	f2 0f 59 05 00
	00 00 00	 mulsd	 xmm0, QWORD PTR __real@3fd3333333333333
  038bb	f3 0f 5a 8d 18
	fe ff ff	 cvtss2sd xmm1, DWORD PTR _velocity_factor$26[ebp]
  038c3	f2 0f 59 c1	 mulsd	 xmm0, xmm1
  038c7	f2 0f 11 85 f4
	fc ff ff	 movsd	 QWORD PTR tv1757[ebp], xmm0
$LN136@update_att:
  038cf	f2 0f 10 85 f4
	fc ff ff	 movsd	 xmm0, QWORD PTR tv1757[ebp]
  038d7	f2 0f 11 85 fc
	fc ff ff	 movsd	 QWORD PTR tv1758[ebp], xmm0
$LN138@update_att:
  038df	f2 0f 5a 85 fc
	fc ff ff	 cvtsd2ss xmm0, QWORD PTR tv1758[ebp]
  038e7	51		 push	 ecx
  038e8	f3 0f 11 04 24	 movss	 DWORD PTR [esp], xmm0
  038ed	e8 00 00 00 00	 call	 ?create_rotor_vibration@@YGXM@Z ; create_rotor_vibration
$LN58@update_att:

; 2453 : 
; 2454 : 		if (air_over_rotor > 0.0)     //model_motion_vector.y < -fabs (main_rotor_induced_air_value))

  038f2	f3 0f 5a 85 20
	fe ff ff	 cvtss2sd xmm0, DWORD PTR _air_over_rotor$28[ebp]
  038fa	66 0f 2f 05 00
	00 00 00	 comisd	 xmm0, QWORD PTR __real@0000000000000000
  03902	0f 86 cf 00 00
	00		 jbe	 $LN59@update_att

; 2455 : 		{
; 2456 : 
; 2457 : 			force = current_flight_dynamics->main_rotor_induced_vortex_air_flow.modifier * fabs (main_rotor_induced_air_value) * velocity_factor;

  03908	51		 push	 ecx
  03909	f3 0f 10 85 78
	ff ff ff	 movss	 xmm0, DWORD PTR _main_rotor_induced_air_value$[ebp]
  03911	f3 0f 11 04 24	 movss	 DWORD PTR [esp], xmm0
  03916	e8 00 00 00 00	 call	 ?fabs@@YGMM@Z		; fabs
  0391b	d9 9d 00 fd ff
	ff		 fstp	 DWORD PTR tv3378[ebp]
  03921	a1 00 00 00 00	 mov	 eax, DWORD PTR ?current_flight_dynamics@@3PAUDYNAMICS_TYPE@@A ; current_flight_dynamics
  03926	f3 0f 10 85 00
	fd ff ff	 movss	 xmm0, DWORD PTR tv3378[ebp]
  0392e	f3 0f 59 80 80
	1d 00 00	 mulss	 xmm0, DWORD PTR [eax+7552]
  03936	f3 0f 59 85 18
	fe ff ff	 mulss	 xmm0, DWORD PTR _velocity_factor$26[ebp]
  0393e	f3 0f 11 45 98	 movss	 DWORD PTR _force$[ebp], xmm0

; 2458 : 
; 2459 : 			force *= deg (current_flight_dynamics->main_blade_pitch.value);

  03943	a1 00 00 00 00	 mov	 eax, DWORD PTR ?current_flight_dynamics@@3PAUDYNAMICS_TYPE@@A ; current_flight_dynamics
  03948	f3 0f 10 80 8c
	1e 00 00	 movss	 xmm0, DWORD PTR [eax+7820]
  03950	f3 0f 59 05 00
	00 00 00	 mulss	 xmm0, DWORD PTR __real@42652ee0
  03958	f3 0f 59 45 98	 mulss	 xmm0, DWORD PTR _force$[ebp]
  0395d	f3 0f 11 45 98	 movss	 DWORD PTR _force$[ebp], xmm0

; 2460 : 
; 2461 : 			position.x = 0.0;

  03962	0f 57 c0	 xorps	 xmm0, xmm0
  03965	f3 0f 11 85 20
	ff ff ff	 movss	 DWORD PTR _position$[ebp], xmm0

; 2462 : 			position.y = 0.0;

  0396d	0f 57 c0	 xorps	 xmm0, xmm0
  03970	f3 0f 11 85 24
	ff ff ff	 movss	 DWORD PTR _position$[ebp+4], xmm0

; 2463 : 			position.z = 0.0;

  03978	0f 57 c0	 xorps	 xmm0, xmm0
  0397b	f3 0f 11 85 28
	ff ff ff	 movss	 DWORD PTR _position$[ebp+8], xmm0

; 2464 : 
; 2465 : 			direction.x = 0.0;

  03983	0f 57 c0	 xorps	 xmm0, xmm0
  03986	f3 0f 11 85 14
	ff ff ff	 movss	 DWORD PTR _direction$[ebp], xmm0

; 2466 : 			direction.y = -1.0;

  0398e	f3 0f 10 05 00
	00 00 00	 movss	 xmm0, DWORD PTR __real@bf800000
  03996	f3 0f 11 85 18
	ff ff ff	 movss	 DWORD PTR _direction$[ebp+4], xmm0

; 2467 : 			direction.z = 0.0;

  0399e	0f 57 c0	 xorps	 xmm0, xmm0
  039a1	f3 0f 11 85 1c
	ff ff ff	 movss	 DWORD PTR _direction$[ebp+8], xmm0

; 2468 : 
; 2469 : 			add_dynamic_force ("Vortex ring force", force, 0.0, &position, &direction, FALSE);

  039a9	6a 00		 push	 0
  039ab	8d 85 14 ff ff
	ff		 lea	 eax, DWORD PTR _direction$[ebp]
  039b1	50		 push	 eax
  039b2	8d 8d 20 ff ff
	ff		 lea	 ecx, DWORD PTR _position$[ebp]
  039b8	51		 push	 ecx
  039b9	51		 push	 ecx
  039ba	0f 57 c0	 xorps	 xmm0, xmm0
  039bd	f3 0f 11 04 24	 movss	 DWORD PTR [esp], xmm0
  039c2	51		 push	 ecx
  039c3	f3 0f 10 45 98	 movss	 xmm0, DWORD PTR _force$[ebp]
  039c8	f3 0f 11 04 24	 movss	 DWORD PTR [esp], xmm0
  039cd	68 00 00 00 00	 push	 OFFSET ??_C@_0BC@MPODPIKD@Vortex?5ring?5force@
  039d2	e8 00 00 00 00	 call	 ?add_dynamic_force@@YGXPBDMMPAUVEC3D@@1H@Z ; add_dynamic_force
$LN59@update_att:

; 2470 : 		}
; 2471 : 	}
; 2472 : 
; 2473 : 	////////////////////////////////////////////
; 2474 : 	// Wind
; 2475 : 	////////////////////////////////////////////
; 2476 : 	if ((!model_landed) &&
; 2477 : 		(get_current_dynamics_options (DYNAMICS_OPTIONS_WIND)) &&

  039d7	83 7d fc 00	 cmp	 DWORD PTR _model_landed$[ebp], 0
  039db	0f 85 ab 01 00
	00		 jne	 $LN60@update_att
  039e1	6a 0c		 push	 12			; 0000000cH
  039e3	e8 00 00 00 00	 call	 ?get_current_dynamics_options@@YGHW4DYNAMICS_OPTIONS_TYPES@@@Z ; get_current_dynamics_options
  039e8	85 c0		 test	 eax, eax
  039ea	0f 84 9c 01 00
	00		 je	 $LN60@update_att
  039f0	a1 00 00 00 00	 mov	 eax, DWORD PTR ?current_flight_dynamics@@3PAUDYNAMICS_TYPE@@A ; current_flight_dynamics
  039f5	8b 88 24 25 00
	00		 mov	 ecx, DWORD PTR [eax+9508]
  039fb	83 e1 02	 and	 ecx, 2
  039fe	0f 85 88 01 00
	00		 jne	 $LN60@update_att

; 2478 : 		(!(current_flight_dynamics->dynamics_damage & DYNAMICS_DAMAGE_MAIN_ROTOR)))
; 2479 : 	{
; 2480 : 
; 2481 : 		static float
; 2482 : 			force = 0.0,
; 2483 : 			desired_force = 0.0;
; 2484 : 
; 2485 : 		position.x = current_flight_dynamics->position.x;

  03a04	a1 00 00 00 00	 mov	 eax, DWORD PTR ?current_flight_dynamics@@3PAUDYNAMICS_TYPE@@A ; current_flight_dynamics
  03a09	f2 0f 5a 80 ac
	00 00 00	 cvtsd2ss xmm0, QWORD PTR [eax+172]
  03a11	f3 0f 11 85 20
	ff ff ff	 movss	 DWORD PTR _position$[ebp], xmm0

; 2486 : 		position.y = current_flight_dynamics->position.y;

  03a19	a1 00 00 00 00	 mov	 eax, DWORD PTR ?current_flight_dynamics@@3PAUDYNAMICS_TYPE@@A ; current_flight_dynamics
  03a1e	f2 0f 5a 80 b4
	00 00 00	 cvtsd2ss xmm0, QWORD PTR [eax+180]
  03a26	f3 0f 11 85 24
	ff ff ff	 movss	 DWORD PTR _position$[ebp+4], xmm0

; 2487 : 		position.z = current_flight_dynamics->position.z;

  03a2e	a1 00 00 00 00	 mov	 eax, DWORD PTR ?current_flight_dynamics@@3PAUDYNAMICS_TYPE@@A ; current_flight_dynamics
  03a33	f2 0f 5a 80 bc
	00 00 00	 cvtsd2ss xmm0, QWORD PTR [eax+188]
  03a3b	f3 0f 11 85 28
	ff ff ff	 movss	 DWORD PTR _position$[ebp+8], xmm0

; 2488 : 
; 2489 : 		get_session_wind_velocity_at_point (&position, &direction);

  03a43	8d 85 14 ff ff
	ff		 lea	 eax, DWORD PTR _direction$[ebp]
  03a49	50		 push	 eax
  03a4a	8d 8d 20 ff ff
	ff		 lea	 ecx, DWORD PTR _position$[ebp]
  03a50	51		 push	 ecx
  03a51	e8 00 00 00 00	 call	 ?get_session_wind_velocity_at_point@@YGMPAUVEC3D@@0@Z ; get_session_wind_velocity_at_point
  03a56	dd d8		 fstp	 ST(0)

; 2490 : 
; 2491 : 		position.x = current_flight_dynamics->rotation_origin.x;

  03a58	a1 00 00 00 00	 mov	 eax, DWORD PTR ?current_flight_dynamics@@3PAUDYNAMICS_TYPE@@A ; current_flight_dynamics
  03a5d	f3 0f 10 80 c4
	00 00 00	 movss	 xmm0, DWORD PTR [eax+196]
  03a65	f3 0f 11 85 20
	ff ff ff	 movss	 DWORD PTR _position$[ebp], xmm0

; 2492 : 		position.y = current_flight_dynamics->rotation_origin.y;

  03a6d	a1 00 00 00 00	 mov	 eax, DWORD PTR ?current_flight_dynamics@@3PAUDYNAMICS_TYPE@@A ; current_flight_dynamics
  03a72	f3 0f 10 80 c8
	00 00 00	 movss	 xmm0, DWORD PTR [eax+200]
  03a7a	f3 0f 11 85 24
	ff ff ff	 movss	 DWORD PTR _position$[ebp+4], xmm0

; 2493 : 		position.z = current_flight_dynamics->rotation_origin.z;

  03a82	a1 00 00 00 00	 mov	 eax, DWORD PTR ?current_flight_dynamics@@3PAUDYNAMICS_TYPE@@A ; current_flight_dynamics
  03a87	f3 0f 10 80 cc
	00 00 00	 movss	 xmm0, DWORD PTR [eax+204]
  03a8f	f3 0f 11 85 28
	ff ff ff	 movss	 DWORD PTR _position$[ebp+8], xmm0

; 2494 : 
; 2495 : 		multiply_transpose_matrix3x3_vec3d (&direction, attitude, &direction);

  03a97	8d 85 14 ff ff
	ff		 lea	 eax, DWORD PTR _direction$[ebp]
  03a9d	50		 push	 eax
  03a9e	8d 4d b4	 lea	 ecx, DWORD PTR _attitude$[ebp]
  03aa1	51		 push	 ecx
  03aa2	8d 95 14 ff ff
	ff		 lea	 edx, DWORD PTR _direction$[ebp]
  03aa8	52		 push	 edx
  03aa9	e8 00 00 00 00	 call	 ?multiply_transpose_matrix3x3_vec3d@@YGXPAUVEC3D@@QAY02$$CBMPBU1@@Z ; multiply_transpose_matrix3x3_vec3d

; 2496 : 
; 2497 : 		force += (desired_force - force) * get_model_delta_time ();

  03aae	f3 0f 10 05 00
	00 00 00	 movss	 xmm0, DWORD PTR ?desired_force@?LD@??update_attitude_dynamics@@YGXXZ@4MA
  03ab6	f3 0f 5c 05 00
	00 00 00	 subss	 xmm0, DWORD PTR ?force@?LD@??update_attitude_dynamics@@YGXXZ@4MA
  03abe	a1 00 00 00 00	 mov	 eax, DWORD PTR ?current_flight_dynamics@@3PAUDYNAMICS_TYPE@@A ; current_flight_dynamics
  03ac3	f3 0f 59 80 90
	00 00 00	 mulss	 xmm0, DWORD PTR [eax+144]
  03acb	f3 0f 58 05 00
	00 00 00	 addss	 xmm0, DWORD PTR ?force@?LD@??update_attitude_dynamics@@YGXXZ@4MA
  03ad3	f3 0f 11 05 00
	00 00 00	 movss	 DWORD PTR ?force@?LD@??update_attitude_dynamics@@YGXXZ@4MA, xmm0

; 2498 : 
; 2499 : 		if ((fabs (force - desired_force) < 0.001))

  03adb	f3 0f 10 05 00
	00 00 00	 movss	 xmm0, DWORD PTR ?force@?LD@??update_attitude_dynamics@@YGXXZ@4MA
  03ae3	f3 0f 5c 05 00
	00 00 00	 subss	 xmm0, DWORD PTR ?desired_force@?LD@??update_attitude_dynamics@@YGXXZ@4MA
  03aeb	51		 push	 ecx
  03aec	f3 0f 11 04 24	 movss	 DWORD PTR [esp], xmm0
  03af1	e8 00 00 00 00	 call	 ?fabs@@YGMM@Z		; fabs
  03af6	dd 9d fc fc ff
	ff		 fstp	 QWORD PTR tv3422[ebp]
  03afc	f2 0f 10 05 00
	00 00 00	 movsd	 xmm0, QWORD PTR __real@3f50624dd2f1a9fc
  03b04	66 0f 2f 85 fc
	fc ff ff	 comisd	 xmm0, QWORD PTR tv3422[ebp]
  03b0c	76 4d		 jbe	 SHORT $LN61@update_att

; 2500 : 		{
; 2501 : 
; 2502 : 			desired_force = frand1 () * get_model_delta_time ();

  03b0e	69 05 00 00 00
	00 6d 4e c6 41	 imul	 eax, DWORD PTR ?random_number_seed@@3HA, 1103515245 ; random_number_seed
  03b18	05 39 30 00 00	 add	 eax, 12345		; 00003039H
  03b1d	a3 00 00 00 00	 mov	 DWORD PTR ?random_number_seed@@3HA, eax ; random_number_seed
  03b22	8b 0d 00 00 00
	00		 mov	 ecx, DWORD PTR ?random_number_seed@@3HA ; random_number_seed
  03b28	c1 f9 10	 sar	 ecx, 16			; 00000010H
  03b2b	81 e1 ff 7f 00
	00		 and	 ecx, 32767		; 00007fffH
  03b31	f2 0f 2a c1	 cvtsi2sd xmm0, ecx
  03b35	f2 0f 59 05 00
	00 00 00	 mulsd	 xmm0, QWORD PTR __real@3f00002000400080
  03b3d	8b 15 00 00 00
	00		 mov	 edx, DWORD PTR ?current_flight_dynamics@@3PAUDYNAMICS_TYPE@@A ; current_flight_dynamics
  03b43	f3 0f 5a 8a 90
	00 00 00	 cvtss2sd xmm1, DWORD PTR [edx+144]
  03b4b	f2 0f 59 c1	 mulsd	 xmm0, xmm1
  03b4f	f2 0f 5a c0	 cvtsd2ss xmm0, xmm0
  03b53	f3 0f 11 05 00
	00 00 00	 movss	 DWORD PTR ?desired_force@?LD@??update_attitude_dynamics@@YGXXZ@4MA, xmm0
$LN61@update_att:

; 2503 : 		}
; 2504 : 
; 2505 : 		add_dynamic_force ("Wind", force, 0.0, &position, &direction, FALSE);

  03b5b	6a 00		 push	 0
  03b5d	8d 85 14 ff ff
	ff		 lea	 eax, DWORD PTR _direction$[ebp]
  03b63	50		 push	 eax
  03b64	8d 8d 20 ff ff
	ff		 lea	 ecx, DWORD PTR _position$[ebp]
  03b6a	51		 push	 ecx
  03b6b	51		 push	 ecx
  03b6c	0f 57 c0	 xorps	 xmm0, xmm0
  03b6f	f3 0f 11 04 24	 movss	 DWORD PTR [esp], xmm0
  03b74	51		 push	 ecx
  03b75	f3 0f 10 05 00
	00 00 00	 movss	 xmm0, DWORD PTR ?force@?LD@??update_attitude_dynamics@@YGXXZ@4MA
  03b7d	f3 0f 11 04 24	 movss	 DWORD PTR [esp], xmm0
  03b82	68 00 00 00 00	 push	 OFFSET ??_C@_04LGBIOLDJ@Wind@
  03b87	e8 00 00 00 00	 call	 ?add_dynamic_force@@YGXPBDMMPAUVEC3D@@1H@Z ; add_dynamic_force
$LN60@update_att:

; 2506 : 	}
; 2507 : 	////////////////////////////////////////////
; 2508 : 
; 2509 : 	// If colliding with something, then the collision will move the helicopter. Combined with gravity
; 2510 : 	// and no drag this can make the helicopter fall down hillsides very rapidly.  So add some "friction"
; 2511 : 	// so it won't move as fast.
; 2512 : 	if (fixed_collision_count || moving_collision_count)

  03b8c	83 3d 00 00 00
	00 00		 cmp	 DWORD PTR ?fixed_collision_count@@3HA, 0 ; fixed_collision_count
  03b93	75 0d		 jne	 SHORT $LN63@update_att
  03b95	83 3d 00 00 00
	00 00		 cmp	 DWORD PTR ?moving_collision_count@@3HA, 0 ; moving_collision_count
  03b9c	0f 84 3f 01 00
	00		 je	 $LN62@update_att
$LN63@update_att:

; 2513 : 	{
; 2514 : 
; 2515 : 		float
; 2516 : 			force;
; 2517 : 
; 2518 : 		vec3d
; 2519 : 			direction,
; 2520 : 			position;
; 2521 : 
; 2522 : 		direction = current_flight_dynamics->model_motion_vector;

  03ba2	a1 00 00 00 00	 mov	 eax, DWORD PTR ?current_flight_dynamics@@3PAUDYNAMICS_TYPE@@A ; current_flight_dynamics
  03ba7	05 30 1c 00 00	 add	 eax, 7216		; 00001c30H
  03bac	8b 08		 mov	 ecx, DWORD PTR [eax]
  03bae	89 8d 08 fe ff
	ff		 mov	 DWORD PTR _direction$24[ebp], ecx
  03bb4	8b 50 04	 mov	 edx, DWORD PTR [eax+4]
  03bb7	89 95 0c fe ff
	ff		 mov	 DWORD PTR _direction$24[ebp+4], edx
  03bbd	8b 40 08	 mov	 eax, DWORD PTR [eax+8]
  03bc0	89 85 10 fe ff
	ff		 mov	 DWORD PTR _direction$24[ebp+8], eax

; 2523 : 
; 2524 : 		direction.x += current_flight_dynamics->model_acceleration_vector.x * get_model_delta_time ();

  03bc6	a1 00 00 00 00	 mov	 eax, DWORD PTR ?current_flight_dynamics@@3PAUDYNAMICS_TYPE@@A ; current_flight_dynamics
  03bcb	8b 0d 00 00 00
	00		 mov	 ecx, DWORD PTR ?current_flight_dynamics@@3PAUDYNAMICS_TYPE@@A ; current_flight_dynamics
  03bd1	f3 0f 10 80 48
	1c 00 00	 movss	 xmm0, DWORD PTR [eax+7240]
  03bd9	f3 0f 59 81 90
	00 00 00	 mulss	 xmm0, DWORD PTR [ecx+144]
  03be1	f3 0f 58 85 08
	fe ff ff	 addss	 xmm0, DWORD PTR _direction$24[ebp]
  03be9	f3 0f 11 85 08
	fe ff ff	 movss	 DWORD PTR _direction$24[ebp], xmm0

; 2525 : 		direction.y += current_flight_dynamics->model_acceleration_vector.y * get_model_delta_time ();

  03bf1	a1 00 00 00 00	 mov	 eax, DWORD PTR ?current_flight_dynamics@@3PAUDYNAMICS_TYPE@@A ; current_flight_dynamics
  03bf6	8b 0d 00 00 00
	00		 mov	 ecx, DWORD PTR ?current_flight_dynamics@@3PAUDYNAMICS_TYPE@@A ; current_flight_dynamics
  03bfc	f3 0f 10 80 4c
	1c 00 00	 movss	 xmm0, DWORD PTR [eax+7244]
  03c04	f3 0f 59 81 90
	00 00 00	 mulss	 xmm0, DWORD PTR [ecx+144]
  03c0c	f3 0f 58 85 0c
	fe ff ff	 addss	 xmm0, DWORD PTR _direction$24[ebp+4]
  03c14	f3 0f 11 85 0c
	fe ff ff	 movss	 DWORD PTR _direction$24[ebp+4], xmm0

; 2526 : 		direction.z += current_flight_dynamics->model_acceleration_vector.z * get_model_delta_time ();

  03c1c	a1 00 00 00 00	 mov	 eax, DWORD PTR ?current_flight_dynamics@@3PAUDYNAMICS_TYPE@@A ; current_flight_dynamics
  03c21	8b 0d 00 00 00
	00		 mov	 ecx, DWORD PTR ?current_flight_dynamics@@3PAUDYNAMICS_TYPE@@A ; current_flight_dynamics
  03c27	f3 0f 10 80 50
	1c 00 00	 movss	 xmm0, DWORD PTR [eax+7248]
  03c2f	f3 0f 59 81 90
	00 00 00	 mulss	 xmm0, DWORD PTR [ecx+144]
  03c37	f3 0f 58 85 10
	fe ff ff	 addss	 xmm0, DWORD PTR _direction$24[ebp+8]
  03c3f	f3 0f 11 85 10
	fe ff ff	 movss	 DWORD PTR _direction$24[ebp+8], xmm0

; 2527 : 
; 2528 : 		force = 3.0 * get_3d_vector_magnitude(&direction);// / get_model_delta_time ();

  03c47	8d 85 08 fe ff
	ff		 lea	 eax, DWORD PTR _direction$24[ebp]
  03c4d	50		 push	 eax
  03c4e	e8 00 00 00 00	 call	 ?get_3d_vector_magnitude@@YGMPBUVEC3D@@@Z ; get_3d_vector_magnitude
  03c53	dd 9d fc fc ff
	ff		 fstp	 QWORD PTR tv3458[ebp]
  03c59	f2 0f 10 85 fc
	fc ff ff	 movsd	 xmm0, QWORD PTR tv3458[ebp]
  03c61	f2 0f 59 05 00
	00 00 00	 mulsd	 xmm0, QWORD PTR __real@4008000000000000
  03c69	f2 0f 5a c0	 cvtsd2ss xmm0, xmm0
  03c6d	f3 0f 11 85 14
	fe ff ff	 movss	 DWORD PTR _force$25[ebp], xmm0

; 2529 : 
; 2530 : 		invert_3d_vector (&direction);

  03c75	8d 85 08 fe ff
	ff		 lea	 eax, DWORD PTR _direction$24[ebp]
  03c7b	50		 push	 eax
  03c7c	e8 00 00 00 00	 call	 ?invert_3d_vector@@YGXPAUVEC3D@@@Z ; invert_3d_vector

; 2531 : 
; 2532 : 		normalise_any_3d_vector (&direction);

  03c81	8d 85 08 fe ff
	ff		 lea	 eax, DWORD PTR _direction$24[ebp]
  03c87	50		 push	 eax
  03c88	e8 00 00 00 00	 call	 ?normalise_any_3d_vector@@YGMPAUVEC3D@@@Z ; normalise_any_3d_vector
  03c8d	dd d8		 fstp	 ST(0)

; 2533 : 
; 2534 : 		position.x = 0.0;

  03c8f	0f 57 c0	 xorps	 xmm0, xmm0
  03c92	f3 0f 11 85 fc
	fd ff ff	 movss	 DWORD PTR _position$23[ebp], xmm0

; 2535 : 		position.y = 0.0;

  03c9a	0f 57 c0	 xorps	 xmm0, xmm0
  03c9d	f3 0f 11 85 00
	fe ff ff	 movss	 DWORD PTR _position$23[ebp+4], xmm0

; 2536 : 		position.z = 0.0;

  03ca5	0f 57 c0	 xorps	 xmm0, xmm0
  03ca8	f3 0f 11 85 04
	fe ff ff	 movss	 DWORD PTR _position$23[ebp+8], xmm0

; 2537 : 
; 2538 : 		add_dynamic_force ("Ground Friction force", force, 0.0, &position, &direction, TRUE);

  03cb0	6a 01		 push	 1
  03cb2	8d 85 08 fe ff
	ff		 lea	 eax, DWORD PTR _direction$24[ebp]
  03cb8	50		 push	 eax
  03cb9	8d 8d fc fd ff
	ff		 lea	 ecx, DWORD PTR _position$23[ebp]
  03cbf	51		 push	 ecx
  03cc0	51		 push	 ecx
  03cc1	0f 57 c0	 xorps	 xmm0, xmm0
  03cc4	f3 0f 11 04 24	 movss	 DWORD PTR [esp], xmm0
  03cc9	51		 push	 ecx
  03cca	f3 0f 10 85 14
	fe ff ff	 movss	 xmm0, DWORD PTR _force$25[ebp]
  03cd2	f3 0f 11 04 24	 movss	 DWORD PTR [esp], xmm0
  03cd7	68 00 00 00 00	 push	 OFFSET ??_C@_0BG@EBOEKGCA@Ground?5Friction?5force@
  03cdc	e8 00 00 00 00	 call	 ?add_dynamic_force@@YGXPBDMMPAUVEC3D@@1H@Z ; add_dynamic_force
$LN62@update_att:

; 2539 : 
; 2540 : 		#if DEBUG_MODULE
; 2541 : 
; 2542 : 		multiply_matrix3x3_vec3d (&direction, raw->ac.mob.attitude, &direction);
; 2543 : 
; 2544 : 		position.x += current_flight_dynamics->position.x;
; 2545 : 		position.y += current_flight_dynamics->position.y;
; 2546 : 		position.z += current_flight_dynamics->position.z;
; 2547 : 
; 2548 : 		create_vectored_debug_3d_object (&position, &direction, OBJECT_3D_ARROW_FORCES, 0, 5 * force);
; 2549 : 
; 2550 : 		#endif
; 2551 : 	}
; 2552 : 
; 2553 : 	if (current_flight_dynamics_landed_at_keysite
; 2554 : 		&& get_local_entity_int_value(current_flight_dynamics_landed_at_keysite, INT_TYPE_ENTITY_SUB_TYPE) == ENTITY_SUB_TYPE_KEYSITE_ANCHORAGE)

  03ce1	83 3d 00 00 00
	00 00		 cmp	 DWORD PTR ?current_flight_dynamics_landed_at_keysite@@3PAUENTITY@@A, 0 ; current_flight_dynamics_landed_at_keysite
  03ce8	0f 84 5d 02 00
	00		 je	 $LN70@update_att
  03cee	83 3d 00 00 00
	00 00		 cmp	 DWORD PTR ?current_flight_dynamics_landed_at_keysite@@3PAUENTITY@@A, 0 ; current_flight_dynamics_landed_at_keysite
  03cf5	74 0f		 je	 SHORT $LN139@update_att
  03cf7	a1 00 00 00 00	 mov	 eax, DWORD PTR ?current_flight_dynamics_landed_at_keysite@@3PAUENTITY@@A ; current_flight_dynamics_landed_at_keysite
  03cfc	8b 08		 mov	 ecx, DWORD PTR [eax]
  03cfe	89 8d 00 fd ff
	ff		 mov	 DWORD PTR tv1869[ebp], ecx
  03d04	eb 20		 jmp	 SHORT $LN140@update_att
$LN139@update_att:
  03d06	68 fa 09 00 00	 push	 2554			; 000009faH
  03d0b	68 00 00 00 00	 push	 OFFSET ??_C@_0EN@OILCBPIN@c?3?2users?2nhv90?2projects?2eech?2ap@
  03d10	8b 15 00 00 00
	00		 mov	 edx, DWORD PTR ?null_entity_pointer_message@@3PBDB ; null_entity_pointer_message
  03d16	52		 push	 edx
  03d17	e8 00 00 00 00	 call	 ?process_assert@@YGXPBD0H@Z ; process_assert
  03d1c	c7 85 00 fd ff
	ff 00 00 00 00	 mov	 DWORD PTR tv1869[ebp], 0
$LN140@update_att:
  03d26	b8 01 00 00 00	 mov	 eax, 1
  03d2b	85 c0		 test	 eax, eax
  03d2d	74 0c		 je	 SHORT $LN141@update_att
  03d2f	c7 85 fc fc ff
	ff 34 00 00 00	 mov	 DWORD PTR tv1876[ebp], 52 ; 00000034H
  03d39	eb 20		 jmp	 SHORT $LN142@update_att
$LN141@update_att:
  03d3b	68 fa 09 00 00	 push	 2554			; 000009faH
  03d40	68 00 00 00 00	 push	 OFFSET ??_C@_0EN@OILCBPIN@c?3?2users?2nhv90?2projects?2eech?2ap@
  03d45	8b 0d 00 00 00
	00		 mov	 ecx, DWORD PTR ?overload_invalid_int_type_message@@3PBDB ; overload_invalid_int_type_message
  03d4b	51		 push	 ecx
  03d4c	e8 00 00 00 00	 call	 ?process_assert@@YGXPBD0H@Z ; process_assert
  03d51	c7 85 fc fc ff
	ff 00 00 00 00	 mov	 DWORD PTR tv1876[ebp], 0
$LN142@update_att:
  03d5b	6a 34		 push	 52			; 00000034H
  03d5d	8b 15 00 00 00
	00		 mov	 edx, DWORD PTR ?current_flight_dynamics_landed_at_keysite@@3PAUENTITY@@A ; current_flight_dynamics_landed_at_keysite
  03d63	52		 push	 edx
  03d64	69 85 00 fd ff
	ff 5c 04 00 00	 imul	 eax, DWORD PTR tv1869[ebp], 1116
  03d6e	8b 8d fc fc ff
	ff		 mov	 ecx, DWORD PTR tv1876[ebp]
  03d74	8b 94 88 00 00
	00 00		 mov	 edx, DWORD PTR ?fn_get_local_entity_int_value@@3PAY0BBH@P6GHPAUENTITY@@W4INT_TYPES@@@ZA[eax+ecx*4]
  03d7b	ff d2		 call	 edx
  03d7d	83 f8 01	 cmp	 eax, 1
  03d80	0f 85 c5 01 00
	00		 jne	 $LN70@update_att

; 2555 : 	{
; 2556 : 		// cludge to make carrier landings possible.  New suspension doesn't work there,
; 2557 : 		// but at least don't let the helicopter roll off the deck
; 2558 : 		if (current_flight_dynamics->wheel_brake)

  03d86	a1 00 00 00 00	 mov	 eax, DWORD PTR ?current_flight_dynamics@@3PAUDYNAMICS_TYPE@@A ; current_flight_dynamics
  03d8b	8b 88 28 25 00
	00		 mov	 ecx, DWORD PTR [eax+9512]
  03d91	c1 e9 06	 shr	 ecx, 6
  03d94	83 e1 01	 and	 ecx, 1
  03d97	0f 84 ae 01 00
	00		 je	 $LN70@update_att

; 2559 : 		{
; 2560 : 			if (current_flight_dynamics->world_motion_vector.x > 0)

  03d9d	a1 00 00 00 00	 mov	 eax, DWORD PTR ?current_flight_dynamics@@3PAUDYNAMICS_TYPE@@A ; current_flight_dynamics
  03da2	f3 0f 10 80 3c
	1c 00 00	 movss	 xmm0, DWORD PTR [eax+7228]
  03daa	0f 2f 05 00 00
	00 00		 comiss	 xmm0, DWORD PTR __real@00000000
  03db1	76 58		 jbe	 SHORT $LN66@update_att

; 2561 : 				current_flight_dynamics->world_motion_vector.x -= min(20.0f * get_model_delta_time (), current_flight_dynamics->world_motion_vector.x );

  03db3	a1 00 00 00 00	 mov	 eax, DWORD PTR ?current_flight_dynamics@@3PAUDYNAMICS_TYPE@@A ; current_flight_dynamics
  03db8	f3 0f 10 05 00
	00 00 00	 movss	 xmm0, DWORD PTR __real@41a00000
  03dc0	f3 0f 59 80 90
	00 00 00	 mulss	 xmm0, DWORD PTR [eax+144]
  03dc8	f3 0f 11 85 10
	fd ff ff	 movss	 DWORD PTR $T4[ebp], xmm0
  03dd0	8b 0d 00 00 00
	00		 mov	 ecx, DWORD PTR ?current_flight_dynamics@@3PAUDYNAMICS_TYPE@@A ; current_flight_dynamics
  03dd6	81 c1 3c 1c 00
	00		 add	 ecx, 7228		; 00001c3cH
  03ddc	51		 push	 ecx
  03ddd	8d 95 10 fd ff
	ff		 lea	 edx, DWORD PTR $T4[ebp]
  03de3	52		 push	 edx
  03de4	e8 00 00 00 00	 call	 ??$min@M@std@@YGABMABM0@Z ; std::min<float>
  03de9	8b 0d 00 00 00
	00		 mov	 ecx, DWORD PTR ?current_flight_dynamics@@3PAUDYNAMICS_TYPE@@A ; current_flight_dynamics
  03def	f3 0f 10 81 3c
	1c 00 00	 movss	 xmm0, DWORD PTR [ecx+7228]
  03df7	f3 0f 5c 00	 subss	 xmm0, DWORD PTR [eax]
  03dfb	8b 15 00 00 00
	00		 mov	 edx, DWORD PTR ?current_flight_dynamics@@3PAUDYNAMICS_TYPE@@A ; current_flight_dynamics
  03e01	f3 0f 11 82 3c
	1c 00 00	 movss	 DWORD PTR [edx+7228], xmm0

; 2562 : 			else

  03e09	eb 56		 jmp	 SHORT $LN67@update_att
$LN66@update_att:

; 2563 : 				current_flight_dynamics->world_motion_vector.x -= max(-20.0f * get_model_delta_time (), current_flight_dynamics->world_motion_vector.x );

  03e0b	a1 00 00 00 00	 mov	 eax, DWORD PTR ?current_flight_dynamics@@3PAUDYNAMICS_TYPE@@A ; current_flight_dynamics
  03e10	f3 0f 10 05 00
	00 00 00	 movss	 xmm0, DWORD PTR __real@c1a00000
  03e18	f3 0f 59 80 90
	00 00 00	 mulss	 xmm0, DWORD PTR [eax+144]
  03e20	f3 0f 11 85 0c
	fd ff ff	 movss	 DWORD PTR $T3[ebp], xmm0
  03e28	8b 0d 00 00 00
	00		 mov	 ecx, DWORD PTR ?current_flight_dynamics@@3PAUDYNAMICS_TYPE@@A ; current_flight_dynamics
  03e2e	81 c1 3c 1c 00
	00		 add	 ecx, 7228		; 00001c3cH
  03e34	51		 push	 ecx
  03e35	8d 95 0c fd ff
	ff		 lea	 edx, DWORD PTR $T3[ebp]
  03e3b	52		 push	 edx
  03e3c	e8 00 00 00 00	 call	 ??$max@M@std@@YGABMABM0@Z ; std::max<float>
  03e41	8b 0d 00 00 00
	00		 mov	 ecx, DWORD PTR ?current_flight_dynamics@@3PAUDYNAMICS_TYPE@@A ; current_flight_dynamics
  03e47	f3 0f 10 81 3c
	1c 00 00	 movss	 xmm0, DWORD PTR [ecx+7228]
  03e4f	f3 0f 5c 00	 subss	 xmm0, DWORD PTR [eax]
  03e53	8b 15 00 00 00
	00		 mov	 edx, DWORD PTR ?current_flight_dynamics@@3PAUDYNAMICS_TYPE@@A ; current_flight_dynamics
  03e59	f3 0f 11 82 3c
	1c 00 00	 movss	 DWORD PTR [edx+7228], xmm0
$LN67@update_att:

; 2564 : 
; 2565 : 			if (current_flight_dynamics->world_motion_vector.z > 0)

  03e61	a1 00 00 00 00	 mov	 eax, DWORD PTR ?current_flight_dynamics@@3PAUDYNAMICS_TYPE@@A ; current_flight_dynamics
  03e66	f3 0f 10 80 44
	1c 00 00	 movss	 xmm0, DWORD PTR [eax+7236]
  03e6e	0f 2f 05 00 00
	00 00		 comiss	 xmm0, DWORD PTR __real@00000000
  03e75	76 58		 jbe	 SHORT $LN68@update_att

; 2566 : 				current_flight_dynamics->world_motion_vector.z -= min(5.0f * get_model_delta_time (), current_flight_dynamics->world_motion_vector.z);

  03e77	a1 00 00 00 00	 mov	 eax, DWORD PTR ?current_flight_dynamics@@3PAUDYNAMICS_TYPE@@A ; current_flight_dynamics
  03e7c	f3 0f 10 05 00
	00 00 00	 movss	 xmm0, DWORD PTR __real@40a00000
  03e84	f3 0f 59 80 90
	00 00 00	 mulss	 xmm0, DWORD PTR [eax+144]
  03e8c	f3 0f 11 85 08
	fd ff ff	 movss	 DWORD PTR $T2[ebp], xmm0
  03e94	8b 0d 00 00 00
	00		 mov	 ecx, DWORD PTR ?current_flight_dynamics@@3PAUDYNAMICS_TYPE@@A ; current_flight_dynamics
  03e9a	81 c1 44 1c 00
	00		 add	 ecx, 7236		; 00001c44H
  03ea0	51		 push	 ecx
  03ea1	8d 95 08 fd ff
	ff		 lea	 edx, DWORD PTR $T2[ebp]
  03ea7	52		 push	 edx
  03ea8	e8 00 00 00 00	 call	 ??$min@M@std@@YGABMABM0@Z ; std::min<float>
  03ead	8b 0d 00 00 00
	00		 mov	 ecx, DWORD PTR ?current_flight_dynamics@@3PAUDYNAMICS_TYPE@@A ; current_flight_dynamics
  03eb3	f3 0f 10 81 44
	1c 00 00	 movss	 xmm0, DWORD PTR [ecx+7236]
  03ebb	f3 0f 5c 00	 subss	 xmm0, DWORD PTR [eax]
  03ebf	8b 15 00 00 00
	00		 mov	 edx, DWORD PTR ?current_flight_dynamics@@3PAUDYNAMICS_TYPE@@A ; current_flight_dynamics
  03ec5	f3 0f 11 82 44
	1c 00 00	 movss	 DWORD PTR [edx+7236], xmm0

; 2567 : 			else

  03ecd	eb 56		 jmp	 SHORT $LN69@update_att
$LN68@update_att:

; 2568 : 				current_flight_dynamics->world_motion_vector.z -= max(-5.0f * get_model_delta_time (), current_flight_dynamics->world_motion_vector.z);

  03ecf	a1 00 00 00 00	 mov	 eax, DWORD PTR ?current_flight_dynamics@@3PAUDYNAMICS_TYPE@@A ; current_flight_dynamics
  03ed4	f3 0f 10 05 00
	00 00 00	 movss	 xmm0, DWORD PTR __real@c0a00000
  03edc	f3 0f 59 80 90
	00 00 00	 mulss	 xmm0, DWORD PTR [eax+144]
  03ee4	f3 0f 11 85 04
	fd ff ff	 movss	 DWORD PTR $T1[ebp], xmm0
  03eec	8b 0d 00 00 00
	00		 mov	 ecx, DWORD PTR ?current_flight_dynamics@@3PAUDYNAMICS_TYPE@@A ; current_flight_dynamics
  03ef2	81 c1 44 1c 00
	00		 add	 ecx, 7236		; 00001c44H
  03ef8	51		 push	 ecx
  03ef9	8d 95 04 fd ff
	ff		 lea	 edx, DWORD PTR $T1[ebp]
  03eff	52		 push	 edx
  03f00	e8 00 00 00 00	 call	 ??$max@M@std@@YGABMABM0@Z ; std::max<float>
  03f05	8b 0d 00 00 00
	00		 mov	 ecx, DWORD PTR ?current_flight_dynamics@@3PAUDYNAMICS_TYPE@@A ; current_flight_dynamics
  03f0b	f3 0f 10 81 44
	1c 00 00	 movss	 xmm0, DWORD PTR [ecx+7236]
  03f13	f3 0f 5c 00	 subss	 xmm0, DWORD PTR [eax]
  03f17	8b 15 00 00 00
	00		 mov	 edx, DWORD PTR ?current_flight_dynamics@@3PAUDYNAMICS_TYPE@@A ; current_flight_dynamics
  03f1d	f3 0f 11 82 44
	1c 00 00	 movss	 DWORD PTR [edx+7236], xmm0
$LN69@update_att:

; 2569 : 
; 2570 : 			if (current_flight_dynamics->world_motion_vector.y < 0.0)

  03f25	a1 00 00 00 00	 mov	 eax, DWORD PTR ?current_flight_dynamics@@3PAUDYNAMICS_TYPE@@A ; current_flight_dynamics
  03f2a	f3 0f 5a 80 40
	1c 00 00	 cvtss2sd xmm0, DWORD PTR [eax+7232]
  03f32	0f 57 c9	 xorps	 xmm1, xmm1
  03f35	66 0f 2f c8	 comisd	 xmm1, xmm0
  03f39	76 10		 jbe	 SHORT $LN70@update_att

; 2571 : 				current_flight_dynamics->world_motion_vector.y = 0.0;

  03f3b	a1 00 00 00 00	 mov	 eax, DWORD PTR ?current_flight_dynamics@@3PAUDYNAMICS_TYPE@@A ; current_flight_dynamics
  03f40	0f 57 c0	 xorps	 xmm0, xmm0
  03f43	f3 0f 11 80 40
	1c 00 00	 movss	 DWORD PTR [eax+7232], xmm0
$LN70@update_att:

; 2572 : 		}
; 2573 : 	}
; 2574 : 
; 2575 : 	// arneh - add vibration if rotor damaged
; 2576 : 	if (!model_landed && current_flight_dynamics->dynamics_damage & DYNAMICS_DAMAGE_MAIN_ROTOR_BLADE)

  03f4b	83 7d fc 00	 cmp	 DWORD PTR _model_landed$[ebp], 0
  03f4f	75 26		 jne	 SHORT $LN71@update_att
  03f51	a1 00 00 00 00	 mov	 eax, DWORD PTR ?current_flight_dynamics@@3PAUDYNAMICS_TYPE@@A ; current_flight_dynamics
  03f56	8b 88 24 25 00
	00		 mov	 ecx, DWORD PTR [eax+9508]
  03f5c	81 e1 00 00 01
	00		 and	 ecx, 65536		; 00010000H
  03f62	74 13		 je	 SHORT $LN71@update_att

; 2577 : 		create_rotor_vibration(1.2);

  03f64	51		 push	 ecx
  03f65	f3 0f 10 05 00
	00 00 00	 movss	 xmm0, DWORD PTR __real@3f99999a
  03f6d	f3 0f 11 04 24	 movss	 DWORD PTR [esp], xmm0
  03f72	e8 00 00 00 00	 call	 ?create_rotor_vibration@@YGXM@Z ; create_rotor_vibration
$LN71@update_att:
$LN1@update_att:

; 2578 : }

  03f77	5f		 pop	 edi
  03f78	5e		 pop	 esi
  03f79	5b		 pop	 ebx
  03f7a	8b e5		 mov	 esp, ebp
  03f7c	5d		 pop	 ebp
  03f7d	c3		 ret	 0
?update_attitude_dynamics@@YGXXZ ENDP			; update_attitude_dynamics
_TEXT	ENDS
; Function compile flags: /Odtp /ZI
; File c:\users\nhv90\projects\eech\aphavoc\source\gunships\dynamics\hokum\ho_dyn.c
;	COMDAT ?update_tail_rotor_thrust_dynamics@@YGXXZ
_TEXT	SEGMENT
_blade_pitch_induced_thrust_percentage$ = -24		; size = 4
_Tl$ = -20						; size = 4
_Pmax$ = -16						; size = 4
_Md$ = -12						; size = 4
_Mrpm$ = -8						; size = 4
_desired$ = -4						; size = 4
?update_tail_rotor_thrust_dynamics@@YGXXZ PROC		; update_tail_rotor_thrust_dynamics, COMDAT

; 1202 : {

  00000	55		 push	 ebp
  00001	8b ec		 mov	 ebp, esp
  00003	83 ec 58	 sub	 esp, 88			; 00000058H
  00006	53		 push	 ebx
  00007	56		 push	 esi
  00008	57		 push	 edi

; 1203 : 
; 1204 : 	// the thrust_at_0.. will cause a constant yaw input = correct.
; 1205 : 
; 1206 : 	float
; 1207 : 		desired,
; 1208 : 		Mrpm,
; 1209 : 		Md,
; 1210 : 		Pmax,
; 1211 : 		Tl,
; 1212 : 		blade_pitch_induced_thrust_percentage;
; 1213 : 
; 1214 : 	Mrpm = current_flight_dynamics->main_rotor_rpm.value;

  00009	a1 00 00 00 00	 mov	 eax, DWORD PTR ?current_flight_dynamics@@3PAUDYNAMICS_TYPE@@A ; current_flight_dynamics
  0000e	f3 0f 10 80 14
	1e 00 00	 movss	 xmm0, DWORD PTR [eax+7700]
  00016	f3 0f 11 45 f8	 movss	 DWORD PTR _Mrpm$[ebp], xmm0

; 1215 : 
; 1216 : 	Md = current_flight_dynamics->main_rotor_diameter.value;

  0001b	a1 00 00 00 00	 mov	 eax, DWORD PTR ?current_flight_dynamics@@3PAUDYNAMICS_TYPE@@A ; current_flight_dynamics
  00020	f3 0f 10 80 9c
	1d 00 00	 movss	 xmm0, DWORD PTR [eax+7580]
  00028	f3 0f 11 45 f4	 movss	 DWORD PTR _Md$[ebp], xmm0

; 1217 : 
; 1218 : 	Pmax = current_flight_dynamics->tail_blade_pitch.max;

  0002d	a1 00 00 00 00	 mov	 eax, DWORD PTR ?current_flight_dynamics@@3PAUDYNAMICS_TYPE@@A ; current_flight_dynamics
  00032	f3 0f 10 80 a0
	1f 00 00	 movss	 xmm0, DWORD PTR [eax+8096]
  0003a	f3 0f 11 45 f0	 movss	 DWORD PTR _Pmax$[ebp], xmm0

; 1219 : 
; 1220 : 	Tl = current_flight_dynamics->tail_boom_length.value;

  0003f	a1 00 00 00 00	 mov	 eax, DWORD PTR ?current_flight_dynamics@@3PAUDYNAMICS_TYPE@@A ; current_flight_dynamics
  00044	f3 0f 10 80 ac
	1f 00 00	 movss	 xmm0, DWORD PTR [eax+8108]
  0004c	f3 0f 11 45 ec	 movss	 DWORD PTR _Tl$[ebp], xmm0

; 1221 : 
; 1222 : 	// arneh - when rotor is disengaged it produces no torque, so 0 tail rotor adjustment is desired
; 1223 : 	if (current_flight_dynamics->rotor_brake ||

  00051	a1 00 00 00 00	 mov	 eax, DWORD PTR ?current_flight_dynamics@@3PAUDYNAMICS_TYPE@@A ; current_flight_dynamics
  00056	8b 88 28 25 00
	00		 mov	 ecx, DWORD PTR [eax+9512]
  0005c	c1 e9 05	 shr	 ecx, 5
  0005f	83 e1 01	 and	 ecx, 1
  00062	75 1b		 jne	 SHORT $LN4@update_tai
  00064	a1 00 00 00 00	 mov	 eax, DWORD PTR ?current_flight_dynamics@@3PAUDYNAMICS_TYPE@@A ; current_flight_dynamics
  00069	0f b7 88 d4 1f
	00 00		 movzx	 ecx, WORD PTR [eax+8148]
  00070	85 c9		 test	 ecx, ecx
  00072	75 15		 jne	 SHORT $LN2@update_tai
  00074	6a 00		 push	 0
  00076	e8 00 00 00 00	 call	 ?get_current_dynamics_options@@YGHW4DYNAMICS_OPTIONS_TYPES@@@Z ; get_current_dynamics_options
  0007b	85 c0		 test	 eax, eax
  0007d	74 0a		 je	 SHORT $LN2@update_tai
$LN4@update_tai:

; 1224 : 		(!current_flight_dynamics->cross_coupling_effect.damaged) &&
; 1225 : 		(get_current_dynamics_options (DYNAMICS_OPTIONS_CROSS_COUPLING)))
; 1226 : 		desired = 0.0;

  0007f	0f 57 c0	 xorps	 xmm0, xmm0
  00082	f3 0f 11 45 fc	 movss	 DWORD PTR _desired$[ebp], xmm0

; 1227 : 	else

  00087	eb 32		 jmp	 SHORT $LN3@update_tai
$LN2@update_tai:

; 1228 : 		desired = (((200 * PI * Mrpm * Md * Pmax) / (1649 * Tl))) / (Pmax);

  00089	f3 0f 10 05 00
	00 00 00	 movss	 xmm0, DWORD PTR __real@441d1463
  00091	f3 0f 59 45 f8	 mulss	 xmm0, DWORD PTR _Mrpm$[ebp]
  00096	f3 0f 59 45 f4	 mulss	 xmm0, DWORD PTR _Md$[ebp]
  0009b	f3 0f 59 45 f0	 mulss	 xmm0, DWORD PTR _Pmax$[ebp]
  000a0	f3 0f 10 0d 00
	00 00 00	 movss	 xmm1, DWORD PTR __real@44ce2000
  000a8	f3 0f 59 4d ec	 mulss	 xmm1, DWORD PTR _Tl$[ebp]
  000ad	f3 0f 5e c1	 divss	 xmm0, xmm1
  000b1	f3 0f 5e 45 f0	 divss	 xmm0, DWORD PTR _Pmax$[ebp]
  000b6	f3 0f 11 45 fc	 movss	 DWORD PTR _desired$[ebp], xmm0
$LN3@update_tai:

; 1229 : 
; 1230 : 	current_flight_dynamics->cross_coupling_effect.value += (desired - current_flight_dynamics->cross_coupling_effect.value) * get_model_delta_time ();

  000bb	a1 00 00 00 00	 mov	 eax, DWORD PTR ?current_flight_dynamics@@3PAUDYNAMICS_TYPE@@A ; current_flight_dynamics
  000c0	f3 0f 10 45 fc	 movss	 xmm0, DWORD PTR _desired$[ebp]
  000c5	f3 0f 5c 80 c4
	1f 00 00	 subss	 xmm0, DWORD PTR [eax+8132]
  000cd	8b 0d 00 00 00
	00		 mov	 ecx, DWORD PTR ?current_flight_dynamics@@3PAUDYNAMICS_TYPE@@A ; current_flight_dynamics
  000d3	f3 0f 59 81 90
	00 00 00	 mulss	 xmm0, DWORD PTR [ecx+144]
  000db	8b 15 00 00 00
	00		 mov	 edx, DWORD PTR ?current_flight_dynamics@@3PAUDYNAMICS_TYPE@@A ; current_flight_dynamics
  000e1	f3 0f 58 82 c4
	1f 00 00	 addss	 xmm0, DWORD PTR [edx+8132]
  000e9	a1 00 00 00 00	 mov	 eax, DWORD PTR ?current_flight_dynamics@@3PAUDYNAMICS_TYPE@@A ; current_flight_dynamics
  000ee	f3 0f 11 80 c4
	1f 00 00	 movss	 DWORD PTR [eax+8132], xmm0

; 1231 : 
; 1232 : 	blade_pitch_induced_thrust_percentage = (((100.0 - current_flight_dynamics->cross_coupling_effect.value) /

  000f6	a1 00 00 00 00	 mov	 eax, DWORD PTR ?current_flight_dynamics@@3PAUDYNAMICS_TYPE@@A ; current_flight_dynamics
  000fb	f3 0f 5a 80 c4
	1f 00 00	 cvtss2sd xmm0, DWORD PTR [eax+8132]
  00103	f2 0f 10 0d 00
	00 00 00	 movsd	 xmm1, QWORD PTR __real@4059000000000000
  0010b	f2 0f 5c c8	 subsd	 xmm1, xmm0
  0010f	8b 0d 00 00 00
	00		 mov	 ecx, DWORD PTR ?current_flight_dynamics@@3PAUDYNAMICS_TYPE@@A ; current_flight_dynamics
  00115	f3 0f 5a 81 a0
	1f 00 00	 cvtss2sd xmm0, DWORD PTR [ecx+8096]
  0011d	f2 0f 5e c8	 divsd	 xmm1, xmm0
  00121	8b 15 00 00 00
	00		 mov	 edx, DWORD PTR ?current_flight_dynamics@@3PAUDYNAMICS_TYPE@@A ; current_flight_dynamics
  00127	f3 0f 5a 82 94
	1f 00 00	 cvtss2sd xmm0, DWORD PTR [edx+8084]
  0012f	f2 0f 59 c8	 mulsd	 xmm1, xmm0
  00133	a1 00 00 00 00	 mov	 eax, DWORD PTR ?current_flight_dynamics@@3PAUDYNAMICS_TYPE@@A ; current_flight_dynamics
  00138	f3 0f 5a 80 c4
	1f 00 00	 cvtss2sd xmm0, DWORD PTR [eax+8132]
  00140	f2 0f 58 c8	 addsd	 xmm1, xmm0
  00144	f2 0f 5e 0d 00
	00 00 00	 divsd	 xmm1, QWORD PTR __real@4059000000000000
  0014c	f2 0f 5a c1	 cvtsd2ss xmm0, xmm1
  00150	f3 0f 11 45 e8	 movss	 DWORD PTR _blade_pitch_induced_thrust_percentage$[ebp], xmm0

; 1233 : 															current_flight_dynamics->tail_blade_pitch.max) *
; 1234 : 															current_flight_dynamics->tail_blade_pitch.value +
; 1235 : 															current_flight_dynamics->cross_coupling_effect.value) / 100.0;
; 1236 : 
; 1237 : 	current_flight_dynamics->tail_rotor_induced_air.value = 0.0;

  00155	a1 00 00 00 00	 mov	 eax, DWORD PTR ?current_flight_dynamics@@3PAUDYNAMICS_TYPE@@A ; current_flight_dynamics
  0015a	0f 57 c0	 xorps	 xmm0, xmm0
  0015d	f3 0f 11 80 04
	1f 00 00	 movss	 DWORD PTR [eax+7940], xmm0

; 1238 : 
; 1239 : 	if (current_flight_dynamics->tail_rotor_rpm.max != 0.0)

  00165	a1 00 00 00 00	 mov	 eax, DWORD PTR ?current_flight_dynamics@@3PAUDYNAMICS_TYPE@@A ; current_flight_dynamics
  0016a	f3 0f 5a 80 58
	1f 00 00	 cvtss2sd xmm0, DWORD PTR [eax+8024]
  00172	66 0f 2e 05 00
	00 00 00	 ucomisd xmm0, QWORD PTR __real@0000000000000000
  0017a	9f		 lahf
  0017b	f6 c4 44	 test	 ah, 68			; 00000044H
  0017e	7b 42		 jnp	 SHORT $LN5@update_tai

; 1240 : 	{
; 1241 : 
; 1242 : 		current_flight_dynamics->tail_rotor_induced_air.value = (current_flight_dynamics->tail_rotor_rpm.value / current_flight_dynamics->tail_rotor_rpm.max) *

  00180	a1 00 00 00 00	 mov	 eax, DWORD PTR ?current_flight_dynamics@@3PAUDYNAMICS_TYPE@@A ; current_flight_dynamics
  00185	8b 0d 00 00 00
	00		 mov	 ecx, DWORD PTR ?current_flight_dynamics@@3PAUDYNAMICS_TYPE@@A ; current_flight_dynamics
  0018b	f3 0f 10 80 4c
	1f 00 00	 movss	 xmm0, DWORD PTR [eax+8012]
  00193	f3 0f 5e 81 58
	1f 00 00	 divss	 xmm0, DWORD PTR [ecx+8024]
  0019b	f3 0f 5a c0	 cvtss2sd xmm0, xmm0
  0019f	f3 0f 5a 4d e8	 cvtss2sd xmm1, DWORD PTR _blade_pitch_induced_thrust_percentage$[ebp]
  001a4	f2 0f 5e 0d 00
	00 00 00	 divsd	 xmm1, QWORD PTR __real@4000000000000000
  001ac	f2 0f 59 c1	 mulsd	 xmm0, xmm1
  001b0	f2 0f 5a c0	 cvtsd2ss xmm0, xmm0
  001b4	8b 15 00 00 00
	00		 mov	 edx, DWORD PTR ?current_flight_dynamics@@3PAUDYNAMICS_TYPE@@A ; current_flight_dynamics
  001ba	f3 0f 11 82 04
	1f 00 00	 movss	 DWORD PTR [edx+7940], xmm0
$LN5@update_tai:

; 1243 : 																					(blade_pitch_induced_thrust_percentage / 2.0);
; 1244 : 	}
; 1245 : 
; 1246 : 	//debug_log ("tail induced %f, cross %f, tail pitch value %f", current_flight_dynamics->tail_rotor_induced_air.value, current_flight_dynamics->cross_coupling_effect.value, current_flight_dynamics->tail_blade_pitch.value);
; 1247 : }

  001c2	5f		 pop	 edi
  001c3	5e		 pop	 esi
  001c4	5b		 pop	 ebx
  001c5	8b e5		 mov	 esp, ebp
  001c7	5d		 pop	 ebp
  001c8	c3		 ret	 0
?update_tail_rotor_thrust_dynamics@@YGXXZ ENDP		; update_tail_rotor_thrust_dynamics
_TEXT	ENDS
; Function compile flags: /Odtp /ZI
; File c:\users\nhv90\projects\eech\aphavoc\source\gunships\dynamics\hokum\ho_dyn.c
;	COMDAT ?update_main_rotor_thrust_dynamics@@YGXXZ
_TEXT	SEGMENT
_x$ = -16						; size = 4
_x_min$ = -12						; size = 4
_x_max$ = -8						; size = 4
_rpm_ratio$ = -4					; size = 4
?update_main_rotor_thrust_dynamics@@YGXXZ PROC		; update_main_rotor_thrust_dynamics, COMDAT

; 1137 : {

  00000	55		 push	 ebp
  00001	8b ec		 mov	 ebp, esp
  00003	83 ec 50	 sub	 esp, 80			; 00000050H
  00006	53		 push	 ebx
  00007	56		 push	 esi
  00008	57		 push	 edi

; 1138 : 
; 1139 : 	float
; 1140 : 		rpm_ratio,
; 1141 : 		x_max,
; 1142 : 		x_min,
; 1143 : 		x;
; 1144 : 
; 1145 : 	x_max = current_flight_dynamics->main_blade_pitch.max;

  00009	a1 00 00 00 00	 mov	 eax, DWORD PTR ?current_flight_dynamics@@3PAUDYNAMICS_TYPE@@A ; current_flight_dynamics
  0000e	f3 0f 10 80 98
	1e 00 00	 movss	 xmm0, DWORD PTR [eax+7832]
  00016	f3 0f 11 45 f8	 movss	 DWORD PTR _x_max$[ebp], xmm0

; 1146 : 
; 1147 : 	x_min = current_flight_dynamics->main_blade_pitch.min;

  0001b	a1 00 00 00 00	 mov	 eax, DWORD PTR ?current_flight_dynamics@@3PAUDYNAMICS_TYPE@@A ; current_flight_dynamics
  00020	f3 0f 10 80 94
	1e 00 00	 movss	 xmm0, DWORD PTR [eax+7828]
  00028	f3 0f 11 45 f4	 movss	 DWORD PTR _x_min$[ebp], xmm0

; 1148 : 
; 1149 : 	x = current_flight_dynamics->main_blade_pitch.value;

  0002d	a1 00 00 00 00	 mov	 eax, DWORD PTR ?current_flight_dynamics@@3PAUDYNAMICS_TYPE@@A ; current_flight_dynamics
  00032	f3 0f 10 80 8c
	1e 00 00	 movss	 xmm0, DWORD PTR [eax+7820]
  0003a	f3 0f 11 45 f0	 movss	 DWORD PTR _x$[ebp], xmm0

; 1150 : 
; 1151 : 	//  arneh - let rotor have thrust even when rotor is disengaged from engine
; 1152 : 	// if (!current_flight_dynamics->rotor_brake)
; 1153 : 	{
; 1154 : 
; 1155 : 		rpm_ratio = 0.0;

  0003f	0f 57 c0	 xorps	 xmm0, xmm0
  00042	f3 0f 11 45 fc	 movss	 DWORD PTR _rpm_ratio$[ebp], xmm0

; 1156 : 
; 1157 : 		if (current_flight_dynamics->main_rotor_rpm.max)

  00047	a1 00 00 00 00	 mov	 eax, DWORD PTR ?current_flight_dynamics@@3PAUDYNAMICS_TYPE@@A ; current_flight_dynamics
  0004c	f3 0f 10 80 20
	1e 00 00	 movss	 xmm0, DWORD PTR [eax+7712]
  00054	0f 2e 05 00 00
	00 00		 ucomiss xmm0, DWORD PTR __real@00000000
  0005b	9f		 lahf
  0005c	f6 c4 44	 test	 ah, 68			; 00000044H
  0005f	7b 20		 jnp	 SHORT $LN2@update_mai

; 1158 : 		{
; 1159 : 
; 1160 : 			rpm_ratio = current_flight_dynamics->main_rotor_rpm.value / current_flight_dynamics->main_rotor_rpm.max;

  00061	a1 00 00 00 00	 mov	 eax, DWORD PTR ?current_flight_dynamics@@3PAUDYNAMICS_TYPE@@A ; current_flight_dynamics
  00066	8b 0d 00 00 00
	00		 mov	 ecx, DWORD PTR ?current_flight_dynamics@@3PAUDYNAMICS_TYPE@@A ; current_flight_dynamics
  0006c	f3 0f 10 80 14
	1e 00 00	 movss	 xmm0, DWORD PTR [eax+7700]
  00074	f3 0f 5e 81 20
	1e 00 00	 divss	 xmm0, DWORD PTR [ecx+7712]
  0007c	f3 0f 11 45 fc	 movss	 DWORD PTR _rpm_ratio$[ebp], xmm0
$LN2@update_mai:

; 1161 : 		}
; 1162 : 
; 1163 : 		// loss of lift due to rotating the helicopter about the y axis.
; 1164 : 		// no loss in the HOKUM
; 1165 : /*
; 1166 : 		if (fabs (current_flight_dynamics->main_rotor_rps.value) > 1.0)
; 1167 : 		{
; 1168 : 
; 1169 : 			if (current_flight_dynamics->main_rotor_rps.value != 0.0)
; 1170 : 			{
; 1171 : 
; 1172 : 				rpm_ratio -= command_line_dynamics_yaw_altitude_loss * (current_flight_dynamics->heading.delta / (2 * PI * current_flight_dynamics->main_rotor_rps.value * get_model_delta_time ()));
; 1173 : 			}
; 1174 : 		}
; 1175 : */
; 1176 : 		current_flight_dynamics->main_rotor_induced_air.value =

  00081	a1 00 00 00 00	 mov	 eax, DWORD PTR ?current_flight_dynamics@@3PAUDYNAMICS_TYPE@@A ; current_flight_dynamics
  00086	8b 0d 00 00 00
	00		 mov	 ecx, DWORD PTR ?current_flight_dynamics@@3PAUDYNAMICS_TYPE@@A ; current_flight_dynamics
  0008c	f3 0f 10 80 78
	1d 00 00	 movss	 xmm0, DWORD PTR [eax+7544]
  00094	f3 0f 5c 81 74
	1d 00 00	 subss	 xmm0, DWORD PTR [ecx+7540]
  0009c	f3 0f 10 4d f0	 movss	 xmm1, DWORD PTR _x$[ebp]
  000a1	f3 0f 5c 4d f4	 subss	 xmm1, DWORD PTR _x_min$[ebp]
  000a6	f3 0f 59 c1	 mulss	 xmm0, xmm1
  000aa	f3 0f 10 4d f8	 movss	 xmm1, DWORD PTR _x_max$[ebp]
  000af	f3 0f 5c 4d f4	 subss	 xmm1, DWORD PTR _x_min$[ebp]
  000b4	f3 0f 5e c1	 divss	 xmm0, xmm1
  000b8	8b 15 00 00 00
	00		 mov	 edx, DWORD PTR ?current_flight_dynamics@@3PAUDYNAMICS_TYPE@@A ; current_flight_dynamics
  000be	f3 0f 58 82 74
	1d 00 00	 addss	 xmm0, DWORD PTR [edx+7540]
  000c6	f3 0f 59 45 fc	 mulss	 xmm0, DWORD PTR _rpm_ratio$[ebp]
  000cb	a1 00 00 00 00	 mov	 eax, DWORD PTR ?current_flight_dynamics@@3PAUDYNAMICS_TYPE@@A ; current_flight_dynamics
  000d0	f3 0f 11 80 6c
	1d 00 00	 movss	 DWORD PTR [eax+7532], xmm0

; 1177 : 			rpm_ratio * (current_flight_dynamics->main_rotor_induced_air.min +
; 1178 : 			(current_flight_dynamics->main_rotor_induced_air.max - current_flight_dynamics->main_rotor_induced_air.min) *
; 1179 : 			(x - x_min) / (x_max - x_min));
; 1180 : 
; 1181 : 		current_flight_dynamics->main_rotor_induced_air.value *=

  000d8	a1 00 00 00 00	 mov	 eax, DWORD PTR ?current_flight_dynamics@@3PAUDYNAMICS_TYPE@@A ; current_flight_dynamics
  000dd	8b 0d 00 00 00
	00		 mov	 ecx, DWORD PTR ?current_flight_dynamics@@3PAUDYNAMICS_TYPE@@A ; current_flight_dynamics
  000e3	f3 0f 10 80 44
	21 00 00	 movss	 xmm0, DWORD PTR [eax+8516]
  000eb	f3 0f 5e 81 50
	21 00 00	 divss	 xmm0, DWORD PTR [ecx+8528]
  000f3	8b 15 00 00 00
	00		 mov	 edx, DWORD PTR ?current_flight_dynamics@@3PAUDYNAMICS_TYPE@@A ; current_flight_dynamics
  000f9	f3 0f 59 82 6c
	1d 00 00	 mulss	 xmm0, DWORD PTR [edx+7532]
  00101	a1 00 00 00 00	 mov	 eax, DWORD PTR ?current_flight_dynamics@@3PAUDYNAMICS_TYPE@@A ; current_flight_dynamics
  00106	f3 0f 11 80 6c
	1d 00 00	 movss	 DWORD PTR [eax+7532], xmm0

; 1182 : 			(current_flight_dynamics->air_density.value / current_flight_dynamics->air_density.max);
; 1183 : 	}
; 1184 : 
; 1185 : 	current_flight_dynamics->main_rotor_thrust.value =

  0010e	a1 00 00 00 00	 mov	 eax, DWORD PTR ?current_flight_dynamics@@3PAUDYNAMICS_TYPE@@A ; current_flight_dynamics
  00113	f3 0f 5a 80 44
	21 00 00	 cvtss2sd xmm0, DWORD PTR [eax+8516]
  0011b	f2 0f 59 05 00
	00 00 00	 mulsd	 xmm0, QWORD PTR __real@4000000000000000
  00123	8b 0d 00 00 00
	00		 mov	 ecx, DWORD PTR ?current_flight_dynamics@@3PAUDYNAMICS_TYPE@@A ; current_flight_dynamics
  00129	f3 0f 5a 89 b4
	1d 00 00	 cvtss2sd xmm1, DWORD PTR [ecx+7604]
  00131	f2 0f 59 c1	 mulsd	 xmm0, xmm1
  00135	8b 15 00 00 00
	00		 mov	 edx, DWORD PTR ?current_flight_dynamics@@3PAUDYNAMICS_TYPE@@A ; current_flight_dynamics
  0013b	f3 0f 5a 8a 6c
	1d 00 00	 cvtss2sd xmm1, DWORD PTR [edx+7532]
  00143	a1 00 00 00 00	 mov	 eax, DWORD PTR ?current_flight_dynamics@@3PAUDYNAMICS_TYPE@@A ; current_flight_dynamics
  00148	f3 0f 5a 90 84
	20 00 00	 cvtss2sd xmm2, DWORD PTR [eax+8324]
  00150	f2 0f 5e 15 00
	00 00 00	 divsd	 xmm2, QWORD PTR __real@4024000000000000
  00158	f2 0f 5c ca	 subsd	 xmm1, xmm2
  0015c	8b 0d 00 00 00
	00		 mov	 ecx, DWORD PTR ?current_flight_dynamics@@3PAUDYNAMICS_TYPE@@A ; current_flight_dynamics
  00162	f3 0f 5a 91 6c
	1d 00 00	 cvtss2sd xmm2, DWORD PTR [ecx+7532]
  0016a	f2 0f 59 ca	 mulsd	 xmm1, xmm2
  0016e	f2 0f 59 c1	 mulsd	 xmm0, xmm1
  00172	f2 0f 5a c0	 cvtsd2ss xmm0, xmm0
  00176	8b 15 00 00 00
	00		 mov	 edx, DWORD PTR ?current_flight_dynamics@@3PAUDYNAMICS_TYPE@@A ; current_flight_dynamics
  0017c	f3 0f 11 82 cc
	1d 00 00	 movss	 DWORD PTR [edx+7628], xmm0

; 1186 : 		2.0 * current_flight_dynamics->air_density.value * current_flight_dynamics->main_rotor_area.value *
; 1187 : 		((current_flight_dynamics->main_rotor_induced_air.value - (current_flight_dynamics->velocity_y.value / 10.0)) *
; 1188 : 		current_flight_dynamics->main_rotor_induced_air.value);
; 1189 : 
; 1190 : 	// debug everything seems to powerful..
; 1191 : 	current_flight_dynamics->main_rotor_thrust.value /= 16.0;

  00184	a1 00 00 00 00	 mov	 eax, DWORD PTR ?current_flight_dynamics@@3PAUDYNAMICS_TYPE@@A ; current_flight_dynamics
  00189	f3 0f 5a 80 cc
	1d 00 00	 cvtss2sd xmm0, DWORD PTR [eax+7628]
  00191	f2 0f 5e 05 00
	00 00 00	 divsd	 xmm0, QWORD PTR __real@4030000000000000
  00199	f2 0f 5a c0	 cvtsd2ss xmm0, xmm0
  0019d	8b 0d 00 00 00
	00		 mov	 ecx, DWORD PTR ?current_flight_dynamics@@3PAUDYNAMICS_TYPE@@A ; current_flight_dynamics
  001a3	f3 0f 11 81 cc
	1d 00 00	 movss	 DWORD PTR [ecx+7628], xmm0

; 1192 : 	// end debug
; 1193 : 
; 1194 : 	//debug_log ("main induced %f, cross %f, main pitch value %f", current_flight_dynamics->main_rotor_induced_air.value, current_flight_dynamics->cross_coupling_effect.value, current_flight_dynamics->main_blade_pitch.value);
; 1195 : }

  001ab	5f		 pop	 edi
  001ac	5e		 pop	 esi
  001ad	5b		 pop	 ebx
  001ae	8b e5		 mov	 esp, ebp
  001b0	5d		 pop	 ebp
  001b1	c3		 ret	 0
?update_main_rotor_thrust_dynamics@@YGXXZ ENDP		; update_main_rotor_thrust_dynamics
_TEXT	ENDS
; Function compile flags: /Odtp /ZI
; File c:\users\nhv90\projects\eech\aphavoc\source\gunships\dynamics\hokum\ho_dyn.c
;	COMDAT ?update_main_rotor_coning_angle@@YGXXZ
_TEXT	SEGMENT
tv143 = -92						; size = 4
tv144 = -88						; size = 4
_cm$ = -20						; size = 4
_cx$ = -16						; size = 4
_rx$ = -12						; size = 4
_lift$ = -8						; size = 4
_coning_angle$ = -4					; size = 4
?update_main_rotor_coning_angle@@YGXXZ PROC		; update_main_rotor_coning_angle, COMDAT

; 1106 : {

  00000	55		 push	 ebp
  00001	8b ec		 mov	 ebp, esp
  00003	83 ec 5c	 sub	 esp, 92			; 0000005cH
  00006	53		 push	 ebx
  00007	56		 push	 esi
  00008	57		 push	 edi

; 1107 : 
; 1108 : 	float
; 1109 : 		coning_angle,
; 1110 : 		lift,
; 1111 : 		rx,
; 1112 : 		cx,
; 1113 : 		cm;
; 1114 : 
; 1115 : 	// simple, linear coning from Cmin to Cmax over Rx wrt lift.
; 1116 : 
; 1117 : 	rx = current_flight_dynamics->lift.max;

  00009	a1 00 00 00 00	 mov	 eax, DWORD PTR ?current_flight_dynamics@@3PAUDYNAMICS_TYPE@@A ; current_flight_dynamics
  0000e	f3 0f 10 80 b0
	21 00 00	 movss	 xmm0, DWORD PTR [eax+8624]
  00016	f3 0f 11 45 f4	 movss	 DWORD PTR _rx$[ebp], xmm0

; 1118 : 	cx = current_flight_dynamics->main_rotor_coning_angle.max;

  0001b	a1 00 00 00 00	 mov	 eax, DWORD PTR ?current_flight_dynamics@@3PAUDYNAMICS_TYPE@@A ; current_flight_dynamics
  00020	f3 0f 10 80 50
	1e 00 00	 movss	 xmm0, DWORD PTR [eax+7760]
  00028	f3 0f 11 45 f0	 movss	 DWORD PTR _cx$[ebp], xmm0

; 1119 : 	cm = current_flight_dynamics->main_rotor_coning_angle.min;

  0002d	a1 00 00 00 00	 mov	 eax, DWORD PTR ?current_flight_dynamics@@3PAUDYNAMICS_TYPE@@A ; current_flight_dynamics
  00032	f3 0f 10 80 4c
	1e 00 00	 movss	 xmm0, DWORD PTR [eax+7756]
  0003a	f3 0f 11 45 ec	 movss	 DWORD PTR _cm$[ebp], xmm0

; 1120 : 	lift = current_flight_dynamics->lift.value;

  0003f	a1 00 00 00 00	 mov	 eax, DWORD PTR ?current_flight_dynamics@@3PAUDYNAMICS_TYPE@@A ; current_flight_dynamics
  00044	f3 0f 10 80 a4
	21 00 00	 movss	 xmm0, DWORD PTR [eax+8612]
  0004c	f3 0f 11 45 f8	 movss	 DWORD PTR _lift$[ebp], xmm0

; 1121 : 
; 1122 : 	// arneh - multiply with inverse rotor rpm, as high rotor rpm creates centrifugal force to counteract the lift
; 1123 : 	coning_angle = (((cx - cm) / rx) * lift + cm) * 100.0 / current_flight_dynamics->main_rotor_rpm.value;

  00051	f3 0f 10 45 f0	 movss	 xmm0, DWORD PTR _cx$[ebp]
  00056	f3 0f 5c 45 ec	 subss	 xmm0, DWORD PTR _cm$[ebp]
  0005b	f3 0f 5e 45 f4	 divss	 xmm0, DWORD PTR _rx$[ebp]
  00060	f3 0f 59 45 f8	 mulss	 xmm0, DWORD PTR _lift$[ebp]
  00065	f3 0f 58 45 ec	 addss	 xmm0, DWORD PTR _cm$[ebp]
  0006a	f3 0f 5a c0	 cvtss2sd xmm0, xmm0
  0006e	f2 0f 59 05 00
	00 00 00	 mulsd	 xmm0, QWORD PTR __real@4059000000000000
  00076	a1 00 00 00 00	 mov	 eax, DWORD PTR ?current_flight_dynamics@@3PAUDYNAMICS_TYPE@@A ; current_flight_dynamics
  0007b	f3 0f 5a 88 14
	1e 00 00	 cvtss2sd xmm1, DWORD PTR [eax+7700]
  00083	f2 0f 5e c1	 divsd	 xmm0, xmm1
  00087	f2 0f 5a c0	 cvtsd2ss xmm0, xmm0
  0008b	f3 0f 11 45 fc	 movss	 DWORD PTR _coning_angle$[ebp], xmm0

; 1124 : 
; 1125 : 	current_flight_dynamics->main_rotor_coning_angle.value += (coning_angle - current_flight_dynamics->main_rotor_coning_angle.value) * get_model_delta_time ();

  00090	a1 00 00 00 00	 mov	 eax, DWORD PTR ?current_flight_dynamics@@3PAUDYNAMICS_TYPE@@A ; current_flight_dynamics
  00095	f3 0f 10 45 fc	 movss	 xmm0, DWORD PTR _coning_angle$[ebp]
  0009a	f3 0f 5c 80 44
	1e 00 00	 subss	 xmm0, DWORD PTR [eax+7748]
  000a2	8b 0d 00 00 00
	00		 mov	 ecx, DWORD PTR ?current_flight_dynamics@@3PAUDYNAMICS_TYPE@@A ; current_flight_dynamics
  000a8	f3 0f 59 81 90
	00 00 00	 mulss	 xmm0, DWORD PTR [ecx+144]
  000b0	8b 15 00 00 00
	00		 mov	 edx, DWORD PTR ?current_flight_dynamics@@3PAUDYNAMICS_TYPE@@A ; current_flight_dynamics
  000b6	f3 0f 58 82 44
	1e 00 00	 addss	 xmm0, DWORD PTR [edx+7748]
  000be	a1 00 00 00 00	 mov	 eax, DWORD PTR ?current_flight_dynamics@@3PAUDYNAMICS_TYPE@@A ; current_flight_dynamics
  000c3	f3 0f 11 80 44
	1e 00 00	 movss	 DWORD PTR [eax+7748], xmm0

; 1126 : 
; 1127 : 	current_flight_dynamics->main_rotor_coning_angle.value = bound (current_flight_dynamics->main_rotor_coning_angle.value,

  000cb	a1 00 00 00 00	 mov	 eax, DWORD PTR ?current_flight_dynamics@@3PAUDYNAMICS_TYPE@@A ; current_flight_dynamics
  000d0	8b 0d 00 00 00
	00		 mov	 ecx, DWORD PTR ?current_flight_dynamics@@3PAUDYNAMICS_TYPE@@A ; current_flight_dynamics
  000d6	f3 0f 10 80 4c
	1e 00 00	 movss	 xmm0, DWORD PTR [eax+7756]
  000de	0f 2f 81 44 1e
	00 00		 comiss	 xmm0, DWORD PTR [ecx+7748]
  000e5	76 15		 jbe	 SHORT $LN5@update_mai
  000e7	8b 15 00 00 00
	00		 mov	 edx, DWORD PTR ?current_flight_dynamics@@3PAUDYNAMICS_TYPE@@A ; current_flight_dynamics
  000ed	f3 0f 10 82 4c
	1e 00 00	 movss	 xmm0, DWORD PTR [edx+7756]
  000f5	f3 0f 11 45 a8	 movss	 DWORD PTR tv144[ebp], xmm0
  000fa	eb 4d		 jmp	 SHORT $LN6@update_mai
$LN5@update_mai:
  000fc	a1 00 00 00 00	 mov	 eax, DWORD PTR ?current_flight_dynamics@@3PAUDYNAMICS_TYPE@@A ; current_flight_dynamics
  00101	8b 0d 00 00 00
	00		 mov	 ecx, DWORD PTR ?current_flight_dynamics@@3PAUDYNAMICS_TYPE@@A ; current_flight_dynamics
  00107	f3 0f 10 80 44
	1e 00 00	 movss	 xmm0, DWORD PTR [eax+7748]
  0010f	0f 2f 81 50 1e
	00 00		 comiss	 xmm0, DWORD PTR [ecx+7760]
  00116	76 15		 jbe	 SHORT $LN3@update_mai
  00118	8b 15 00 00 00
	00		 mov	 edx, DWORD PTR ?current_flight_dynamics@@3PAUDYNAMICS_TYPE@@A ; current_flight_dynamics
  0011e	f3 0f 10 82 50
	1e 00 00	 movss	 xmm0, DWORD PTR [edx+7760]
  00126	f3 0f 11 45 a4	 movss	 DWORD PTR tv143[ebp], xmm0
  0012b	eb 12		 jmp	 SHORT $LN4@update_mai
$LN3@update_mai:
  0012d	a1 00 00 00 00	 mov	 eax, DWORD PTR ?current_flight_dynamics@@3PAUDYNAMICS_TYPE@@A ; current_flight_dynamics
  00132	f3 0f 10 80 44
	1e 00 00	 movss	 xmm0, DWORD PTR [eax+7748]
  0013a	f3 0f 11 45 a4	 movss	 DWORD PTR tv143[ebp], xmm0
$LN4@update_mai:
  0013f	f3 0f 10 45 a4	 movss	 xmm0, DWORD PTR tv143[ebp]
  00144	f3 0f 11 45 a8	 movss	 DWORD PTR tv144[ebp], xmm0
$LN6@update_mai:
  00149	8b 0d 00 00 00
	00		 mov	 ecx, DWORD PTR ?current_flight_dynamics@@3PAUDYNAMICS_TYPE@@A ; current_flight_dynamics
  0014f	f3 0f 10 45 a8	 movss	 xmm0, DWORD PTR tv144[ebp]
  00154	f3 0f 11 81 44
	1e 00 00	 movss	 DWORD PTR [ecx+7748], xmm0

; 1128 : 																current_flight_dynamics->main_rotor_coning_angle.min,
; 1129 : 																current_flight_dynamics->main_rotor_coning_angle.max);
; 1130 : }

  0015c	5f		 pop	 edi
  0015d	5e		 pop	 esi
  0015e	5b		 pop	 ebx
  0015f	8b e5		 mov	 esp, ebp
  00161	5d		 pop	 ebp
  00162	c3		 ret	 0
?update_main_rotor_coning_angle@@YGXXZ ENDP		; update_main_rotor_coning_angle
_TEXT	ENDS
; Function compile flags: /Odtp /ZI
; File c:\users\nhv90\projects\eech\aphavoc\source\gunships\dynamics\hokum\ho_dyn.c
;	COMDAT ?update_tail_rotor_rpm_dynamics@@YGXXZ
_TEXT	SEGMENT
tv144 = -100						; size = 8
tv166 = -92						; size = 4
tv145 = -92						; size = 8
tv167 = -88						; size = 4
_rpm$ = -20						; size = 4
_rpm_max$ = -16						; size = 4
_rpm_min$ = -12						; size = 4
_engine_rpm$ = -8					; size = 4
_number_of_engines$ = -4				; size = 4
?update_tail_rotor_rpm_dynamics@@YGXXZ PROC		; update_tail_rotor_rpm_dynamics, COMDAT

; 1057 : {

  00000	55		 push	 ebp
  00001	8b ec		 mov	 ebp, esp
  00003	83 ec 64	 sub	 esp, 100		; 00000064H
  00006	53		 push	 ebx
  00007	56		 push	 esi
  00008	57		 push	 edi

; 1058 : 
; 1059 : 	int
; 1060 : 		number_of_engines;
; 1061 : 
; 1062 : 	float
; 1063 : 		engine_rpm,
; 1064 : 		rpm_min,
; 1065 : 		rpm_max,
; 1066 : 		rpm;
; 1067 : 
; 1068 : 	rpm_min = current_flight_dynamics->tail_rotor_rpm.min;

  00009	a1 00 00 00 00	 mov	 eax, DWORD PTR ?current_flight_dynamics@@3PAUDYNAMICS_TYPE@@A ; current_flight_dynamics
  0000e	f3 0f 10 80 54
	1f 00 00	 movss	 xmm0, DWORD PTR [eax+8020]
  00016	f3 0f 11 45 f4	 movss	 DWORD PTR _rpm_min$[ebp], xmm0

; 1069 : 
; 1070 : 	rpm_max = current_flight_dynamics->tail_rotor_rpm.max;

  0001b	a1 00 00 00 00	 mov	 eax, DWORD PTR ?current_flight_dynamics@@3PAUDYNAMICS_TYPE@@A ; current_flight_dynamics
  00020	f3 0f 10 80 58
	1f 00 00	 movss	 xmm0, DWORD PTR [eax+8024]
  00028	f3 0f 11 45 f0	 movss	 DWORD PTR _rpm_max$[ebp], xmm0

; 1071 : 
; 1072 : 	number_of_engines = 2 - current_flight_dynamics->left_engine_rpm.damaged - current_flight_dynamics->right_engine_rpm.damaged;

  0002d	a1 00 00 00 00	 mov	 eax, DWORD PTR ?current_flight_dynamics@@3PAUDYNAMICS_TYPE@@A ; current_flight_dynamics
  00032	0f b7 88 8c 1c
	00 00		 movzx	 ecx, WORD PTR [eax+7308]
  00039	ba 02 00 00 00	 mov	 edx, 2
  0003e	2b d1		 sub	 edx, ecx
  00040	a1 00 00 00 00	 mov	 eax, DWORD PTR ?current_flight_dynamics@@3PAUDYNAMICS_TYPE@@A ; current_flight_dynamics
  00045	0f b7 88 ec 1c
	00 00		 movzx	 ecx, WORD PTR [eax+7404]
  0004c	2b d1		 sub	 edx, ecx
  0004e	89 55 fc	 mov	 DWORD PTR _number_of_engines$[ebp], edx

; 1073 : 
; 1074 : 	engine_rpm = 0.0;

  00051	0f 57 c0	 xorps	 xmm0, xmm0
  00054	f3 0f 11 45 f8	 movss	 DWORD PTR _engine_rpm$[ebp], xmm0

; 1075 : 
; 1076 : 	if (number_of_engines)

  00059	83 7d fc 00	 cmp	 DWORD PTR _number_of_engines$[ebp], 0
  0005d	74 29		 je	 SHORT $LN2@update_tai

; 1077 : 	{
; 1078 : 
; 1079 : 		engine_rpm = (current_flight_dynamics->left_engine_rpm.value + current_flight_dynamics->right_engine_rpm.value) / number_of_engines;

  0005f	a1 00 00 00 00	 mov	 eax, DWORD PTR ?current_flight_dynamics@@3PAUDYNAMICS_TYPE@@A ; current_flight_dynamics
  00064	8b 0d 00 00 00
	00		 mov	 ecx, DWORD PTR ?current_flight_dynamics@@3PAUDYNAMICS_TYPE@@A ; current_flight_dynamics
  0006a	f3 0f 10 80 7c
	1c 00 00	 movss	 xmm0, DWORD PTR [eax+7292]
  00072	f3 0f 58 81 dc
	1c 00 00	 addss	 xmm0, DWORD PTR [ecx+7388]
  0007a	f3 0f 2a 4d fc	 cvtsi2ss xmm1, DWORD PTR _number_of_engines$[ebp]
  0007f	f3 0f 5e c1	 divss	 xmm0, xmm1
  00083	f3 0f 11 45 f8	 movss	 DWORD PTR _engine_rpm$[ebp], xmm0
$LN2@update_tai:

; 1080 : 	}
; 1081 : 
; 1082 : 	rpm = 0.0;

  00088	0f 57 c0	 xorps	 xmm0, xmm0
  0008b	f3 0f 11 45 ec	 movss	 DWORD PTR _rpm$[ebp], xmm0

; 1083 : 	if (!current_flight_dynamics->tail_rotor_rpm.damaged)

  00090	a1 00 00 00 00	 mov	 eax, DWORD PTR ?current_flight_dynamics@@3PAUDYNAMICS_TYPE@@A ; current_flight_dynamics
  00095	0f b7 88 5c 1f
	00 00		 movzx	 ecx, WORD PTR [eax+8028]
  0009c	85 c9		 test	 ecx, ecx
  0009e	75 31		 jne	 SHORT $LN5@update_tai

; 1084 : 	{
; 1085 : 		if (!current_flight_dynamics->rotor_brake)

  000a0	a1 00 00 00 00	 mov	 eax, DWORD PTR ?current_flight_dynamics@@3PAUDYNAMICS_TYPE@@A ; current_flight_dynamics
  000a5	8b 88 28 25 00
	00		 mov	 ecx, DWORD PTR [eax+9512]
  000ab	c1 e9 05	 shr	 ecx, 5
  000ae	83 e1 01	 and	 ecx, 1
  000b1	75 0c		 jne	 SHORT $LN4@update_tai

; 1086 : 			rpm = engine_rpm;

  000b3	f3 0f 10 45 f8	 movss	 xmm0, DWORD PTR _engine_rpm$[ebp]
  000b8	f3 0f 11 45 ec	 movss	 DWORD PTR _rpm$[ebp], xmm0

; 1087 : 		// arneh, june 2006 - when rotor is disengaged from engines, main rotor drives tail rotor
; 1088 : 		else

  000bd	eb 12		 jmp	 SHORT $LN5@update_tai
$LN4@update_tai:

; 1089 : 			rpm = current_flight_dynamics->main_rotor_rpm.value;

  000bf	a1 00 00 00 00	 mov	 eax, DWORD PTR ?current_flight_dynamics@@3PAUDYNAMICS_TYPE@@A ; current_flight_dynamics
  000c4	f3 0f 10 80 14
	1e 00 00	 movss	 xmm0, DWORD PTR [eax+7700]
  000cc	f3 0f 11 45 ec	 movss	 DWORD PTR _rpm$[ebp], xmm0
$LN5@update_tai:

; 1090 : 	}
; 1091 : 
; 1092 : 	current_flight_dynamics->tail_rotor_rpm.delta = rpm - current_flight_dynamics->tail_rotor_rpm.value;

  000d1	a1 00 00 00 00	 mov	 eax, DWORD PTR ?current_flight_dynamics@@3PAUDYNAMICS_TYPE@@A ; current_flight_dynamics
  000d6	f3 0f 10 45 ec	 movss	 xmm0, DWORD PTR _rpm$[ebp]
  000db	f3 0f 5c 80 4c
	1f 00 00	 subss	 xmm0, DWORD PTR [eax+8012]
  000e3	8b 0d 00 00 00
	00		 mov	 ecx, DWORD PTR ?current_flight_dynamics@@3PAUDYNAMICS_TYPE@@A ; current_flight_dynamics
  000e9	f3 0f 11 81 50
	1f 00 00	 movss	 DWORD PTR [ecx+8016], xmm0

; 1093 : 
; 1094 : 	current_flight_dynamics->tail_rotor_rpm.delta = bound (current_flight_dynamics->tail_rotor_rpm.delta, -10.0, 10.0);

  000f1	a1 00 00 00 00	 mov	 eax, DWORD PTR ?current_flight_dynamics@@3PAUDYNAMICS_TYPE@@A ; current_flight_dynamics
  000f6	f3 0f 5a 80 50
	1f 00 00	 cvtss2sd xmm0, DWORD PTR [eax+8016]
  000fe	f2 0f 10 0d 00
	00 00 00	 movsd	 xmm1, QWORD PTR __real@c024000000000000
  00106	66 0f 2f c8	 comisd	 xmm1, xmm0
  0010a	76 0f		 jbe	 SHORT $LN9@update_tai
  0010c	f2 0f 10 05 00
	00 00 00	 movsd	 xmm0, QWORD PTR __real@c024000000000000
  00114	f2 0f 11 45 a4	 movsd	 QWORD PTR tv145[ebp], xmm0
  00119	eb 44		 jmp	 SHORT $LN10@update_tai
$LN9@update_tai:
  0011b	8b 0d 00 00 00
	00		 mov	 ecx, DWORD PTR ?current_flight_dynamics@@3PAUDYNAMICS_TYPE@@A ; current_flight_dynamics
  00121	f3 0f 5a 81 50
	1f 00 00	 cvtss2sd xmm0, DWORD PTR [ecx+8016]
  00129	66 0f 2f 05 00
	00 00 00	 comisd	 xmm0, QWORD PTR __real@4024000000000000
  00131	76 0f		 jbe	 SHORT $LN7@update_tai
  00133	f2 0f 10 05 00
	00 00 00	 movsd	 xmm0, QWORD PTR __real@4024000000000000
  0013b	f2 0f 11 45 9c	 movsd	 QWORD PTR tv144[ebp], xmm0
  00140	eb 13		 jmp	 SHORT $LN8@update_tai
$LN7@update_tai:
  00142	8b 15 00 00 00
	00		 mov	 edx, DWORD PTR ?current_flight_dynamics@@3PAUDYNAMICS_TYPE@@A ; current_flight_dynamics
  00148	f3 0f 5a 82 50
	1f 00 00	 cvtss2sd xmm0, DWORD PTR [edx+8016]
  00150	f2 0f 11 45 9c	 movsd	 QWORD PTR tv144[ebp], xmm0
$LN8@update_tai:
  00155	f2 0f 10 45 9c	 movsd	 xmm0, QWORD PTR tv144[ebp]
  0015a	f2 0f 11 45 a4	 movsd	 QWORD PTR tv145[ebp], xmm0
$LN10@update_tai:
  0015f	f2 0f 5a 45 a4	 cvtsd2ss xmm0, QWORD PTR tv145[ebp]
  00164	a1 00 00 00 00	 mov	 eax, DWORD PTR ?current_flight_dynamics@@3PAUDYNAMICS_TYPE@@A ; current_flight_dynamics
  00169	f3 0f 11 80 50
	1f 00 00	 movss	 DWORD PTR [eax+8016], xmm0

; 1095 : 
; 1096 : 	current_flight_dynamics->tail_rotor_rpm.value += current_flight_dynamics->tail_rotor_rpm.delta * get_model_delta_time ();

  00171	a1 00 00 00 00	 mov	 eax, DWORD PTR ?current_flight_dynamics@@3PAUDYNAMICS_TYPE@@A ; current_flight_dynamics
  00176	8b 0d 00 00 00
	00		 mov	 ecx, DWORD PTR ?current_flight_dynamics@@3PAUDYNAMICS_TYPE@@A ; current_flight_dynamics
  0017c	f3 0f 10 80 50
	1f 00 00	 movss	 xmm0, DWORD PTR [eax+8016]
  00184	f3 0f 59 81 90
	00 00 00	 mulss	 xmm0, DWORD PTR [ecx+144]
  0018c	8b 15 00 00 00
	00		 mov	 edx, DWORD PTR ?current_flight_dynamics@@3PAUDYNAMICS_TYPE@@A ; current_flight_dynamics
  00192	f3 0f 58 82 4c
	1f 00 00	 addss	 xmm0, DWORD PTR [edx+8012]
  0019a	a1 00 00 00 00	 mov	 eax, DWORD PTR ?current_flight_dynamics@@3PAUDYNAMICS_TYPE@@A ; current_flight_dynamics
  0019f	f3 0f 11 80 4c
	1f 00 00	 movss	 DWORD PTR [eax+8012], xmm0

; 1097 : 
; 1098 : 	current_flight_dynamics->tail_rotor_rpm.value = bound (current_flight_dynamics->tail_rotor_rpm.value, rpm_min, rpm_max);

  001a7	a1 00 00 00 00	 mov	 eax, DWORD PTR ?current_flight_dynamics@@3PAUDYNAMICS_TYPE@@A ; current_flight_dynamics
  001ac	f3 0f 10 45 f4	 movss	 xmm0, DWORD PTR _rpm_min$[ebp]
  001b1	0f 2f 80 4c 1f
	00 00		 comiss	 xmm0, DWORD PTR [eax+8012]
  001b8	76 0c		 jbe	 SHORT $LN13@update_tai
  001ba	f3 0f 10 45 f4	 movss	 xmm0, DWORD PTR _rpm_min$[ebp]
  001bf	f3 0f 11 45 a8	 movss	 DWORD PTR tv167[ebp], xmm0
  001c4	eb 3d		 jmp	 SHORT $LN14@update_tai
$LN13@update_tai:
  001c6	8b 0d 00 00 00
	00		 mov	 ecx, DWORD PTR ?current_flight_dynamics@@3PAUDYNAMICS_TYPE@@A ; current_flight_dynamics
  001cc	f3 0f 10 81 4c
	1f 00 00	 movss	 xmm0, DWORD PTR [ecx+8012]
  001d4	0f 2f 45 f0	 comiss	 xmm0, DWORD PTR _rpm_max$[ebp]
  001d8	76 0c		 jbe	 SHORT $LN11@update_tai
  001da	f3 0f 10 45 f0	 movss	 xmm0, DWORD PTR _rpm_max$[ebp]
  001df	f3 0f 11 45 a4	 movss	 DWORD PTR tv166[ebp], xmm0
  001e4	eb 13		 jmp	 SHORT $LN12@update_tai
$LN11@update_tai:
  001e6	8b 15 00 00 00
	00		 mov	 edx, DWORD PTR ?current_flight_dynamics@@3PAUDYNAMICS_TYPE@@A ; current_flight_dynamics
  001ec	f3 0f 10 82 4c
	1f 00 00	 movss	 xmm0, DWORD PTR [edx+8012]
  001f4	f3 0f 11 45 a4	 movss	 DWORD PTR tv166[ebp], xmm0
$LN12@update_tai:
  001f9	f3 0f 10 45 a4	 movss	 xmm0, DWORD PTR tv166[ebp]
  001fe	f3 0f 11 45 a8	 movss	 DWORD PTR tv167[ebp], xmm0
$LN14@update_tai:
  00203	a1 00 00 00 00	 mov	 eax, DWORD PTR ?current_flight_dynamics@@3PAUDYNAMICS_TYPE@@A ; current_flight_dynamics
  00208	f3 0f 10 45 a8	 movss	 xmm0, DWORD PTR tv167[ebp]
  0020d	f3 0f 11 80 4c
	1f 00 00	 movss	 DWORD PTR [eax+8012], xmm0

; 1099 : }

  00215	5f		 pop	 edi
  00216	5e		 pop	 esi
  00217	5b		 pop	 ebx
  00218	8b e5		 mov	 esp, ebp
  0021a	5d		 pop	 ebp
  0021b	c3		 ret	 0
?update_tail_rotor_rpm_dynamics@@YGXXZ ENDP		; update_tail_rotor_rpm_dynamics
_TEXT	ENDS
; Function compile flags: /Odtp /ZI
; File c:\users\nhv90\projects\eech\aphavoc\source\gunships\dynamics\hokum\ho_dyn.c
;	COMDAT ?update_main_rotor_rpm_dynamics@@YGXXZ
_TEXT	SEGMENT
tv499 = -176						; size = 8
tv559 = -168						; size = 8
tv488 = -160						; size = 8
tv145 = -160						; size = 8
tv424 = -156						; size = 4
tv557 = -152						; size = 8
tv555 = -152						; size = 8
tv553 = -152						; size = 4
tv335 = -152						; size = 4
tv307 = -152						; size = 4
tv284 = -152						; size = 4
tv195 = -152						; size = 4
tv175 = -152						; size = 4
tv146 = -152						; size = 8
tv417 = -148						; size = 4
tv328 = -148						; size = 4
tv308 = -148						; size = 4
tv285 = -148						; size = 4
tv188 = -148						; size = 4
tv176 = -148						; size = 4
$T1 = -144						; size = 8
$T2 = -136						; size = 8
_profile_drag_factor$3 = -64				; size = 4
_induced_drag_factor$4 = -60				; size = 4
_autorotation_factor$5 = -56				; size = 4
_air_flow$6 = -52					; size = 4
_rpm_ratio$7 = -48					; size = 4
_autorotational_acceleration$8 = -44			; size = 4
_profile_drag$9 = -40					; size = 4
_induced_drag$10 = -36					; size = 4
_rotor_workload$ = -32					; size = 4
_rpm_max$ = -28						; size = 4
_rpm_min$ = -24						; size = 4
_rotor_rpm$ = -20					; size = 4
_blade_pitch$ = -16					; size = 4
_auto_min_delta$ = -12					; size = 4
_max_delta$ = -8					; size = 4
_number_of_engines$ = -4				; size = 4
?update_main_rotor_rpm_dynamics@@YGXXZ PROC		; update_main_rotor_rpm_dynamics, COMDAT

; 913  : {

  00000	55		 push	 ebp
  00001	8b ec		 mov	 ebp, esp
  00003	81 ec b0 00 00
	00		 sub	 esp, 176		; 000000b0H
  00009	53		 push	 ebx
  0000a	56		 push	 esi
  0000b	57		 push	 edi

; 914  : 
; 915  : 	int
; 916  : 		number_of_engines;
; 917  : 
; 918  : 	float
; 919  : 		max_delta,
; 920  : 		auto_min_delta,
; 921  : 		blade_pitch,
; 922  : 		rotor_rpm,
; 923  : 		rpm_min,
; 924  : 		rpm_max,
; 925  : 		rotor_workload = 0.0;

  0000c	0f 57 c0	 xorps	 xmm0, xmm0
  0000f	f3 0f 11 45 e0	 movss	 DWORD PTR _rotor_workload$[ebp], xmm0

; 926  : 
; 927  : 	rpm_min = current_flight_dynamics->main_rotor_rpm.min;

  00014	a1 00 00 00 00	 mov	 eax, DWORD PTR ?current_flight_dynamics@@3PAUDYNAMICS_TYPE@@A ; current_flight_dynamics
  00019	f3 0f 10 80 1c
	1e 00 00	 movss	 xmm0, DWORD PTR [eax+7708]
  00021	f3 0f 11 45 e8	 movss	 DWORD PTR _rpm_min$[ebp], xmm0

; 928  : 
; 929  : 	rpm_max = current_flight_dynamics->main_rotor_rpm.max;

  00026	a1 00 00 00 00	 mov	 eax, DWORD PTR ?current_flight_dynamics@@3PAUDYNAMICS_TYPE@@A ; current_flight_dynamics
  0002b	f3 0f 10 80 20
	1e 00 00	 movss	 xmm0, DWORD PTR [eax+7712]
  00033	f3 0f 11 45 e4	 movss	 DWORD PTR _rpm_max$[ebp], xmm0

; 930  : 	max_delta = 100.0 / 20.0;

  00038	f3 0f 10 05 00
	00 00 00	 movss	 xmm0, DWORD PTR __real@40a00000
  00040	f3 0f 11 45 f8	 movss	 DWORD PTR _max_delta$[ebp], xmm0

; 931  : 	auto_min_delta = -100.0 / 4.0;

  00045	f3 0f 10 05 00
	00 00 00	 movss	 xmm0, DWORD PTR __real@c1c80000
  0004d	f3 0f 11 45 f4	 movss	 DWORD PTR _auto_min_delta$[ebp], xmm0

; 932  : 
; 933  : 	blade_pitch = ((current_flight_dynamics->main_blade_pitch.value - current_flight_dynamics->main_blade_pitch.min) /

  00052	a1 00 00 00 00	 mov	 eax, DWORD PTR ?current_flight_dynamics@@3PAUDYNAMICS_TYPE@@A ; current_flight_dynamics
  00057	8b 0d 00 00 00
	00		 mov	 ecx, DWORD PTR ?current_flight_dynamics@@3PAUDYNAMICS_TYPE@@A ; current_flight_dynamics
  0005d	f3 0f 10 80 8c
	1e 00 00	 movss	 xmm0, DWORD PTR [eax+7820]
  00065	f3 0f 5c 81 94
	1e 00 00	 subss	 xmm0, DWORD PTR [ecx+7828]
  0006d	8b 15 00 00 00
	00		 mov	 edx, DWORD PTR ?current_flight_dynamics@@3PAUDYNAMICS_TYPE@@A ; current_flight_dynamics
  00073	a1 00 00 00 00	 mov	 eax, DWORD PTR ?current_flight_dynamics@@3PAUDYNAMICS_TYPE@@A ; current_flight_dynamics
  00078	f3 0f 10 8a 98
	1e 00 00	 movss	 xmm1, DWORD PTR [edx+7832]
  00080	f3 0f 5c 88 94
	1e 00 00	 subss	 xmm1, DWORD PTR [eax+7828]
  00088	f3 0f 5e c1	 divss	 xmm0, xmm1
  0008c	f3 0f 11 45 f0	 movss	 DWORD PTR _blade_pitch$[ebp], xmm0

; 934  : 						(current_flight_dynamics->main_blade_pitch.max - current_flight_dynamics->main_blade_pitch.min));
; 935  : 
; 936  : 	if ((!current_flight_dynamics->rotor_brake) && (!current_flight_dynamics->main_rotor_rpm.damaged))

  00091	a1 00 00 00 00	 mov	 eax, DWORD PTR ?current_flight_dynamics@@3PAUDYNAMICS_TYPE@@A ; current_flight_dynamics
  00096	8b 88 28 25 00
	00		 mov	 ecx, DWORD PTR [eax+9512]
  0009c	c1 e9 05	 shr	 ecx, 5
  0009f	83 e1 01	 and	 ecx, 1
  000a2	0f 85 1c 02 00
	00		 jne	 $LN2@update_mai
  000a8	a1 00 00 00 00	 mov	 eax, DWORD PTR ?current_flight_dynamics@@3PAUDYNAMICS_TYPE@@A ; current_flight_dynamics
  000ad	0f b7 88 24 1e
	00 00		 movzx	 ecx, WORD PTR [eax+7716]
  000b4	85 c9		 test	 ecx, ecx
  000b6	0f 85 08 02 00
	00		 jne	 $LN2@update_mai

; 937  : 	{
; 938  : 
; 939  : 		// brake off
; 940  : 
; 941  : 		rotor_rpm = 0.0;

  000bc	0f 57 c0	 xorps	 xmm0, xmm0
  000bf	f3 0f 11 45 ec	 movss	 DWORD PTR _rotor_rpm$[ebp], xmm0

; 942  : 
; 943  : 		number_of_engines = 2 - current_flight_dynamics->left_engine_rpm.damaged - current_flight_dynamics->right_engine_rpm.damaged;

  000c4	a1 00 00 00 00	 mov	 eax, DWORD PTR ?current_flight_dynamics@@3PAUDYNAMICS_TYPE@@A ; current_flight_dynamics
  000c9	0f b7 88 8c 1c
	00 00		 movzx	 ecx, WORD PTR [eax+7308]
  000d0	ba 02 00 00 00	 mov	 edx, 2
  000d5	2b d1		 sub	 edx, ecx
  000d7	a1 00 00 00 00	 mov	 eax, DWORD PTR ?current_flight_dynamics@@3PAUDYNAMICS_TYPE@@A ; current_flight_dynamics
  000dc	0f b7 88 ec 1c
	00 00		 movzx	 ecx, WORD PTR [eax+7404]
  000e3	2b d1		 sub	 edx, ecx
  000e5	89 55 fc	 mov	 DWORD PTR _number_of_engines$[ebp], edx

; 944  : 
; 945  : 		//Werewolf - Rotor RPM depending on workload
; 946  : 		if (command_line_dynamics_advanced_engine_model == TRUE)

  000e8	83 3d 00 00 00
	00 01		 cmp	 DWORD PTR ?command_line_dynamics_advanced_engine_model@@3HA, 1 ; command_line_dynamics_advanced_engine_model
  000ef	0f 85 d8 00 00
	00		 jne	 $LN4@update_mai

; 947  : 		{
; 948  : 		  rotor_workload = ((float) fabs (current_flight_dynamics->main_rotor_pitch_angle.value) + (float) fabs (current_flight_dynamics->main_rotor_roll_angle.value))

  000f5	a1 00 00 00 00	 mov	 eax, DWORD PTR ?current_flight_dynamics@@3PAUDYNAMICS_TYPE@@A ; current_flight_dynamics
  000fa	51		 push	 ecx
  000fb	f3 0f 10 80 fc
	1d 00 00	 movss	 xmm0, DWORD PTR [eax+7676]
  00103	f3 0f 11 04 24	 movss	 DWORD PTR [esp], xmm0
  00108	e8 00 00 00 00	 call	 ?fabs@@YGMM@Z		; fabs
  0010d	d9 9d 6c ff ff
	ff		 fstp	 DWORD PTR tv417[ebp]
  00113	f3 0f 10 85 6c
	ff ff ff	 movss	 xmm0, DWORD PTR tv417[ebp]
  0011b	8b 0d 00 00 00
	00		 mov	 ecx, DWORD PTR ?current_flight_dynamics@@3PAUDYNAMICS_TYPE@@A ; current_flight_dynamics
  00121	51		 push	 ecx
  00122	f3 0f 10 89 e4
	1d 00 00	 movss	 xmm1, DWORD PTR [ecx+7652]
  0012a	f3 0f 11 0c 24	 movss	 DWORD PTR [esp], xmm1
  0012f	f3 0f 11 85 68
	ff ff ff	 movss	 DWORD PTR tv553[ebp], xmm0
  00137	e8 00 00 00 00	 call	 ?fabs@@YGMM@Z		; fabs
  0013c	d9 9d 64 ff ff
	ff		 fstp	 DWORD PTR tv424[ebp]
  00142	f3 0f 10 85 68
	ff ff ff	 movss	 xmm0, DWORD PTR tv553[ebp]
  0014a	f3 0f 58 85 64
	ff ff ff	 addss	 xmm0, DWORD PTR tv424[ebp]
  00152	f3 0f 5a c0	 cvtss2sd xmm0, xmm0
  00156	f2 0f 59 05 00
	00 00 00	 mulsd	 xmm0, QWORD PTR __real@403e000000000000
  0015e	f2 0f 5a c0	 cvtsd2ss xmm0, xmm0
  00162	f3 0f 11 45 e0	 movss	 DWORD PTR _rotor_workload$[ebp], xmm0

; 949  : 				  * 30.0;
; 950  : 		  rotor_workload = bound (rotor_workload, 0.0, 100.0);

  00167	f3 0f 5a 45 e0	 cvtss2sd xmm0, DWORD PTR _rotor_workload$[ebp]
  0016c	0f 57 c9	 xorps	 xmm1, xmm1
  0016f	66 0f 2f c8	 comisd	 xmm1, xmm0
  00173	76 0d		 jbe	 SHORT $LN17@update_mai
  00175	0f 57 c0	 xorps	 xmm0, xmm0
  00178	f2 0f 11 85 68
	ff ff ff	 movsd	 QWORD PTR tv146[ebp], xmm0
  00180	eb 3e		 jmp	 SHORT $LN18@update_mai
$LN17@update_mai:
  00182	f3 0f 5a 45 e0	 cvtss2sd xmm0, DWORD PTR _rotor_workload$[ebp]
  00187	66 0f 2f 05 00
	00 00 00	 comisd	 xmm0, QWORD PTR __real@4059000000000000
  0018f	76 12		 jbe	 SHORT $LN15@update_mai
  00191	f2 0f 10 05 00
	00 00 00	 movsd	 xmm0, QWORD PTR __real@4059000000000000
  00199	f2 0f 11 85 60
	ff ff ff	 movsd	 QWORD PTR tv145[ebp], xmm0
  001a1	eb 0d		 jmp	 SHORT $LN16@update_mai
$LN15@update_mai:
  001a3	f3 0f 5a 45 e0	 cvtss2sd xmm0, DWORD PTR _rotor_workload$[ebp]
  001a8	f2 0f 11 85 60
	ff ff ff	 movsd	 QWORD PTR tv145[ebp], xmm0
$LN16@update_mai:
  001b0	f2 0f 10 85 60
	ff ff ff	 movsd	 xmm0, QWORD PTR tv145[ebp]
  001b8	f2 0f 11 85 68
	ff ff ff	 movsd	 QWORD PTR tv146[ebp], xmm0
$LN18@update_mai:
  001c0	f2 0f 5a 85 68
	ff ff ff	 cvtsd2ss xmm0, QWORD PTR tv146[ebp]
  001c8	f3 0f 11 45 e0	 movss	 DWORD PTR _rotor_workload$[ebp], xmm0
$LN4@update_mai:

; 951  : 		  //debug_log ( "Rotor Workload=%.2f ", rotor_workload);
; 952  : 		}
; 953  : 
; 954  : 		if (number_of_engines)

  001cd	83 7d fc 00	 cmp	 DWORD PTR _number_of_engines$[ebp], 0
  001d1	74 3e		 je	 SHORT $LN6@update_mai

; 955  : 		{
; 956  : 			// arneh - rotor spins at the speed of the fastest engine
; 957  : 			rotor_rpm = max(current_flight_dynamics->left_engine_rpm.value, current_flight_dynamics->right_engine_rpm.value);

  001d3	a1 00 00 00 00	 mov	 eax, DWORD PTR ?current_flight_dynamics@@3PAUDYNAMICS_TYPE@@A ; current_flight_dynamics
  001d8	05 dc 1c 00 00	 add	 eax, 7388		; 00001cdcH
  001dd	50		 push	 eax
  001de	8b 0d 00 00 00
	00		 mov	 ecx, DWORD PTR ?current_flight_dynamics@@3PAUDYNAMICS_TYPE@@A ; current_flight_dynamics
  001e4	81 c1 7c 1c 00
	00		 add	 ecx, 7292		; 00001c7cH
  001ea	51		 push	 ecx
  001eb	e8 00 00 00 00	 call	 ??$max@M@std@@YGABMABM0@Z ; std::max<float>
  001f0	f3 0f 10 00	 movss	 xmm0, DWORD PTR [eax]
  001f4	f3 0f 11 45 ec	 movss	 DWORD PTR _rotor_rpm$[ebp], xmm0

; 958  : 			if (command_line_dynamics_advanced_engine_model == TRUE)

  001f9	83 3d 00 00 00
	00 01		 cmp	 DWORD PTR ?command_line_dynamics_advanced_engine_model@@3HA, 1 ; command_line_dynamics_advanced_engine_model
  00200	75 0f		 jne	 SHORT $LN6@update_mai

; 959  : 			  rotor_rpm -= rotor_workload; //Werewolf

  00202	f3 0f 10 45 ec	 movss	 xmm0, DWORD PTR _rotor_rpm$[ebp]
  00207	f3 0f 5c 45 e0	 subss	 xmm0, DWORD PTR _rotor_workload$[ebp]
  0020c	f3 0f 11 45 ec	 movss	 DWORD PTR _rotor_rpm$[ebp], xmm0
$LN6@update_mai:

; 960  : 		}
; 961  : 
; 962  : 		current_flight_dynamics->main_rotor_rpm.delta = rotor_rpm - current_flight_dynamics->main_rotor_rpm.value;

  00211	a1 00 00 00 00	 mov	 eax, DWORD PTR ?current_flight_dynamics@@3PAUDYNAMICS_TYPE@@A ; current_flight_dynamics
  00216	f3 0f 10 45 ec	 movss	 xmm0, DWORD PTR _rotor_rpm$[ebp]
  0021b	f3 0f 5c 80 14
	1e 00 00	 subss	 xmm0, DWORD PTR [eax+7700]
  00223	8b 0d 00 00 00
	00		 mov	 ecx, DWORD PTR ?current_flight_dynamics@@3PAUDYNAMICS_TYPE@@A ; current_flight_dynamics
  00229	f3 0f 11 81 18
	1e 00 00	 movss	 DWORD PTR [ecx+7704], xmm0

; 963  : 		current_flight_dynamics->main_rotor_rpm.delta = bound (current_flight_dynamics->main_rotor_rpm.delta, -max_delta, max_delta);

  00231	f3 0f 10 45 f8	 movss	 xmm0, DWORD PTR _max_delta$[ebp]
  00236	0f 57 05 00 00
	00 00		 xorps	 xmm0, DWORD PTR __xmm@80000000800000008000000080000000
  0023d	a1 00 00 00 00	 mov	 eax, DWORD PTR ?current_flight_dynamics@@3PAUDYNAMICS_TYPE@@A ; current_flight_dynamics
  00242	0f 2f 80 18 1e
	00 00		 comiss	 xmm0, DWORD PTR [eax+7704]
  00249	76 16		 jbe	 SHORT $LN21@update_mai
  0024b	f3 0f 10 45 f8	 movss	 xmm0, DWORD PTR _max_delta$[ebp]
  00250	0f 57 05 00 00
	00 00		 xorps	 xmm0, DWORD PTR __xmm@80000000800000008000000080000000
  00257	f3 0f 11 85 6c
	ff ff ff	 movss	 DWORD PTR tv176[ebp], xmm0
  0025f	eb 49		 jmp	 SHORT $LN22@update_mai
$LN21@update_mai:
  00261	8b 0d 00 00 00
	00		 mov	 ecx, DWORD PTR ?current_flight_dynamics@@3PAUDYNAMICS_TYPE@@A ; current_flight_dynamics
  00267	f3 0f 10 81 18
	1e 00 00	 movss	 xmm0, DWORD PTR [ecx+7704]
  0026f	0f 2f 45 f8	 comiss	 xmm0, DWORD PTR _max_delta$[ebp]
  00273	76 0f		 jbe	 SHORT $LN19@update_mai
  00275	f3 0f 10 45 f8	 movss	 xmm0, DWORD PTR _max_delta$[ebp]
  0027a	f3 0f 11 85 68
	ff ff ff	 movss	 DWORD PTR tv175[ebp], xmm0
  00282	eb 16		 jmp	 SHORT $LN20@update_mai
$LN19@update_mai:
  00284	8b 15 00 00 00
	00		 mov	 edx, DWORD PTR ?current_flight_dynamics@@3PAUDYNAMICS_TYPE@@A ; current_flight_dynamics
  0028a	f3 0f 10 82 18
	1e 00 00	 movss	 xmm0, DWORD PTR [edx+7704]
  00292	f3 0f 11 85 68
	ff ff ff	 movss	 DWORD PTR tv175[ebp], xmm0
$LN20@update_mai:
  0029a	f3 0f 10 85 68
	ff ff ff	 movss	 xmm0, DWORD PTR tv175[ebp]
  002a2	f3 0f 11 85 6c
	ff ff ff	 movss	 DWORD PTR tv176[ebp], xmm0
$LN22@update_mai:
  002aa	a1 00 00 00 00	 mov	 eax, DWORD PTR ?current_flight_dynamics@@3PAUDYNAMICS_TYPE@@A ; current_flight_dynamics
  002af	f3 0f 10 85 6c
	ff ff ff	 movss	 xmm0, DWORD PTR tv176[ebp]
  002b7	f3 0f 11 80 18
	1e 00 00	 movss	 DWORD PTR [eax+7704], xmm0

; 964  : 	}
; 965  : 	else

  002bf	e9 9e 03 00 00	 jmp	 $LN8@update_mai
$LN2@update_mai:

; 966  : 	{
; 967  : 		// arneh - rotor brake on (rotor disengaged)
; 968  : 		// modelling of how autorotation affects rotor RPM
; 969  : 
; 970  : 		float
; 971  : 			induced_drag, profile_drag,
; 972  : 			autorotational_acceleration,
; 973  : 			rpm_ratio, air_flow,
; 974  : 			autorotation_factor = 1.6,

  002c4	f3 0f 10 05 00
	00 00 00	 movss	 xmm0, DWORD PTR __real@3fcccccd
  002cc	f3 0f 11 45 c8	 movss	 DWORD PTR _autorotation_factor$5[ebp], xmm0

; 975  : 			induced_drag_factor = 8.0,

  002d1	f3 0f 10 05 00
	00 00 00	 movss	 xmm0, DWORD PTR __real@41000000
  002d9	f3 0f 11 45 c4	 movss	 DWORD PTR _induced_drag_factor$4[ebp], xmm0

; 976  : 			profile_drag_factor = 2.0;

  002de	f3 0f 10 05 00
	00 00 00	 movss	 xmm0, DWORD PTR __real@40000000
  002e6	f3 0f 11 45 c0	 movss	 DWORD PTR _profile_drag_factor$3[ebp], xmm0

; 977  : 
; 978  : 		// when not engaged to engine, rpm may exceed max
; 979  : 		// (but rotor will fail before reaching the new limit)
; 980  : 		rpm_max *= 1.5;

  002eb	f3 0f 5a 45 e4	 cvtss2sd xmm0, DWORD PTR _rpm_max$[ebp]
  002f0	f2 0f 59 05 00
	00 00 00	 mulsd	 xmm0, QWORD PTR __real@3ff8000000000000
  002f8	f2 0f 5a c0	 cvtsd2ss xmm0, xmm0
  002fc	f3 0f 11 45 e4	 movss	 DWORD PTR _rpm_max$[ebp], xmm0

; 981  : 		rpm_ratio = current_flight_dynamics->main_rotor_rpm.value / rpm_max;

  00301	a1 00 00 00 00	 mov	 eax, DWORD PTR ?current_flight_dynamics@@3PAUDYNAMICS_TYPE@@A ; current_flight_dynamics
  00306	f3 0f 10 80 14
	1e 00 00	 movss	 xmm0, DWORD PTR [eax+7700]
  0030e	f3 0f 5e 45 e4	 divss	 xmm0, DWORD PTR _rpm_max$[ebp]
  00313	f3 0f 11 45 d0	 movss	 DWORD PTR _rpm_ratio$7[ebp], xmm0

; 982  : 
; 983  : 		if (get_local_entity_int_value (get_gunship_entity (), INT_TYPE_AIRBORNE_AIRCRAFT))

  00318	83 3d 00 00 00
	00 00		 cmp	 DWORD PTR ?gunship_entity@@3PAUENTITY@@A, 0 ; gunship_entity
  0031f	74 0f		 je	 SHORT $LN23@update_mai
  00321	a1 00 00 00 00	 mov	 eax, DWORD PTR ?gunship_entity@@3PAUENTITY@@A ; gunship_entity
  00326	8b 08		 mov	 ecx, DWORD PTR [eax]
  00328	89 8d 6c ff ff
	ff		 mov	 DWORD PTR tv188[ebp], ecx
  0032e	eb 20		 jmp	 SHORT $LN24@update_mai
$LN23@update_mai:
  00330	68 d7 03 00 00	 push	 983			; 000003d7H
  00335	68 00 00 00 00	 push	 OFFSET ??_C@_0EN@OILCBPIN@c?3?2users?2nhv90?2projects?2eech?2ap@
  0033a	8b 15 00 00 00
	00		 mov	 edx, DWORD PTR ?null_entity_pointer_message@@3PBDB ; null_entity_pointer_message
  00340	52		 push	 edx
  00341	e8 00 00 00 00	 call	 ?process_assert@@YGXPBD0H@Z ; process_assert
  00346	c7 85 6c ff ff
	ff 00 00 00 00	 mov	 DWORD PTR tv188[ebp], 0
$LN24@update_mai:
  00350	b8 01 00 00 00	 mov	 eax, 1
  00355	85 c0		 test	 eax, eax
  00357	74 0c		 je	 SHORT $LN25@update_mai
  00359	c7 85 68 ff ff
	ff 04 00 00 00	 mov	 DWORD PTR tv195[ebp], 4
  00363	eb 20		 jmp	 SHORT $LN26@update_mai
$LN25@update_mai:
  00365	68 d7 03 00 00	 push	 983			; 000003d7H
  0036a	68 00 00 00 00	 push	 OFFSET ??_C@_0EN@OILCBPIN@c?3?2users?2nhv90?2projects?2eech?2ap@
  0036f	8b 0d 00 00 00
	00		 mov	 ecx, DWORD PTR ?overload_invalid_int_type_message@@3PBDB ; overload_invalid_int_type_message
  00375	51		 push	 ecx
  00376	e8 00 00 00 00	 call	 ?process_assert@@YGXPBD0H@Z ; process_assert
  0037b	c7 85 68 ff ff
	ff 00 00 00 00	 mov	 DWORD PTR tv195[ebp], 0
$LN26@update_mai:
  00385	6a 04		 push	 4
  00387	8b 15 00 00 00
	00		 mov	 edx, DWORD PTR ?gunship_entity@@3PAUENTITY@@A ; gunship_entity
  0038d	52		 push	 edx
  0038e	69 85 6c ff ff
	ff 5c 04 00 00	 imul	 eax, DWORD PTR tv188[ebp], 1116
  00398	8b 8d 68 ff ff
	ff		 mov	 ecx, DWORD PTR tv195[ebp]
  0039e	8b 94 88 00 00
	00 00		 mov	 edx, DWORD PTR ?fn_get_local_entity_int_value@@3PAY0BBH@P6GHPAUENTITY@@W4INT_TYPES@@@ZA[eax+ecx*4]
  003a5	ff d2		 call	 edx
  003a7	85 c0		 test	 eax, eax
  003a9	0f 84 9e 02 00
	00		 je	 $LN7@update_mai

; 984  : 		{
; 985  : 			air_flow = get_3d_vector_magnitude (&current_flight_dynamics->model_motion_vector);

  003af	a1 00 00 00 00	 mov	 eax, DWORD PTR ?current_flight_dynamics@@3PAUDYNAMICS_TYPE@@A ; current_flight_dynamics
  003b4	05 30 1c 00 00	 add	 eax, 7216		; 00001c30H
  003b9	50		 push	 eax
  003ba	e8 00 00 00 00	 call	 ?get_3d_vector_magnitude@@YGMPBUVEC3D@@@Z ; get_3d_vector_magnitude
  003bf	d9 5d cc	 fstp	 DWORD PTR _air_flow$6[ebp]

; 986  : 
; 987  : 			// function of vertical speed through air, but adjusted for blade pitch, which reduces the autorotational part of the rotor
; 988  : 			// at about 10 m/s drag and autorotational acceleration should cancel each other out (all other things being ideal)
; 989  : 			autorotational_acceleration = current_flight_dynamics->g_force.value *

  003c2	0f 57 c0	 xorps	 xmm0, xmm0
  003c5	f2 0f 11 85 78
	ff ff ff	 movsd	 QWORD PTR $T2[ebp], xmm0
  003cd	f3 0f 5a 45 f0	 cvtss2sd xmm0, DWORD PTR _blade_pitch$[ebp]
  003d2	f2 0f 10 0d 00
	00 00 00	 movsd	 xmm1, QWORD PTR __real@3fe3333333333333
  003da	f2 0f 5c c8	 subsd	 xmm1, xmm0
  003de	f2 0f 11 8d 70
	ff ff ff	 movsd	 QWORD PTR $T1[ebp], xmm1
  003e6	a1 00 00 00 00	 mov	 eax, DWORD PTR ?current_flight_dynamics@@3PAUDYNAMICS_TYPE@@A ; current_flight_dynamics
  003eb	f3 0f 5a 80 5c
	24 00 00	 cvtss2sd xmm0, DWORD PTR [eax+9308]
  003f3	8b 0d 00 00 00
	00		 mov	 ecx, DWORD PTR ?current_flight_dynamics@@3PAUDYNAMICS_TYPE@@A ; current_flight_dynamics
  003f9	f3 0f 5a 89 84
	20 00 00	 cvtss2sd xmm1, DWORD PTR [ecx+8324]
  00401	f2 0f 5e 0d 00
	00 00 00	 divsd	 xmm1, QWORD PTR __real@4024000000000000
  00409	0f 57 0d 00 00
	00 00		 xorps	 xmm1, QWORD PTR __xmm@80000000000000008000000000000000
  00410	f2 0f 59 c1	 mulsd	 xmm0, xmm1
  00414	8d 95 78 ff ff
	ff		 lea	 edx, DWORD PTR $T2[ebp]
  0041a	52		 push	 edx
  0041b	8d 85 70 ff ff
	ff		 lea	 eax, DWORD PTR $T1[ebp]
  00421	50		 push	 eax
  00422	f2 0f 11 85 68
	ff ff ff	 movsd	 QWORD PTR tv555[ebp], xmm0
  0042a	e8 00 00 00 00	 call	 ??$max@N@std@@YGABNABN0@Z ; std::max<double>
  0042f	f2 0f 10 85 68
	ff ff ff	 movsd	 xmm0, QWORD PTR tv555[ebp]
  00437	f2 0f 59 00	 mulsd	 xmm0, QWORD PTR [eax]
  0043b	f2 0f 5a c0	 cvtsd2ss xmm0, xmm0
  0043f	f3 0f 11 45 d4	 movss	 DWORD PTR _autorotational_acceleration$8[ebp], xmm0

; 990  : 				-(current_flight_dynamics->velocity_y.value / 10.0) *
; 991  : 				max(0.6 - blade_pitch, 0.0);
; 992  : 
; 993  : 			// induced drag on rotor.  drops sharpy up to 60kts, slowly after that
; 994  : 			// clean air produces less drag, hence a hover (where lots of vortexes
; 995  : 			// creates dirty air) has the most induced drag
; 996  : 			induced_drag = blade_pitch * (1.0 - rpm_ratio);

  00444	f3 0f 5a 45 f0	 cvtss2sd xmm0, DWORD PTR _blade_pitch$[ebp]
  00449	f3 0f 5a 4d d0	 cvtss2sd xmm1, DWORD PTR _rpm_ratio$7[ebp]
  0044e	f2 0f 10 15 00
	00 00 00	 movsd	 xmm2, QWORD PTR __real@3ff0000000000000
  00456	f2 0f 5c d1	 subsd	 xmm2, xmm1
  0045a	f2 0f 59 c2	 mulsd	 xmm0, xmm2
  0045e	f2 0f 5a c0	 cvtsd2ss xmm0, xmm0
  00462	f3 0f 11 45 dc	 movss	 DWORD PTR _induced_drag$10[ebp], xmm0

; 997  : 			if (air_flow < knots_to_metres_per_second(60))

  00467	f3 0f 10 05 00
	00 00 00	 movss	 xmm0, DWORD PTR __real@41f760a7
  0046f	0f 2f 45 cc	 comiss	 xmm0, DWORD PTR _air_flow$6[ebp]
  00473	76 39		 jbe	 SHORT $LN9@update_mai

; 998  : 				induced_drag *= 1.0 - (air_flow / knots_to_metres_per_second(60) * 0.6);

  00475	f3 0f 10 45 cc	 movss	 xmm0, DWORD PTR _air_flow$6[ebp]
  0047a	f3 0f 5e 05 00
	00 00 00	 divss	 xmm0, DWORD PTR __real@41f760a7
  00482	f3 0f 5a c0	 cvtss2sd xmm0, xmm0
  00486	f2 0f 59 05 00
	00 00 00	 mulsd	 xmm0, QWORD PTR __real@3fe3333333333333
  0048e	f2 0f 10 0d 00
	00 00 00	 movsd	 xmm1, QWORD PTR __real@3ff0000000000000
  00496	f2 0f 5c c8	 subsd	 xmm1, xmm0
  0049a	f3 0f 5a 45 dc	 cvtss2sd xmm0, DWORD PTR _induced_drag$10[ebp]
  0049f	f2 0f 59 c1	 mulsd	 xmm0, xmm1
  004a3	f2 0f 5a c0	 cvtsd2ss xmm0, xmm0
  004a7	f3 0f 11 45 dc	 movss	 DWORD PTR _induced_drag$10[ebp], xmm0

; 999  : 			else

  004ac	eb 37		 jmp	 SHORT $LN10@update_mai
$LN9@update_mai:

; 1000 : 				induced_drag *= 0.6 - (air_flow / knots_to_metres_per_second(200) * 0.3);

  004ae	f3 0f 10 45 cc	 movss	 xmm0, DWORD PTR _air_flow$6[ebp]
  004b3	f3 0f 5e 05 00
	00 00 00	 divss	 xmm0, DWORD PTR __real@42ce25e0
  004bb	f3 0f 5a c0	 cvtss2sd xmm0, xmm0
  004bf	f2 0f 59 05 00
	00 00 00	 mulsd	 xmm0, QWORD PTR __real@3fd3333333333333
  004c7	f2 0f 10 0d 00
	00 00 00	 movsd	 xmm1, QWORD PTR __real@3fe3333333333333
  004cf	f2 0f 5c c8	 subsd	 xmm1, xmm0
  004d3	f3 0f 5a 45 dc	 cvtss2sd xmm0, DWORD PTR _induced_drag$10[ebp]
  004d8	f2 0f 59 c1	 mulsd	 xmm0, xmm1
  004dc	f2 0f 5a c0	 cvtsd2ss xmm0, xmm0
  004e0	f3 0f 11 45 dc	 movss	 DWORD PTR _induced_drag$10[ebp], xmm0
$LN10@update_mai:

; 1001 : 
; 1002 : 			// profile drag increases with speed and rotor rpm
; 1003 : 			profile_drag = rpm_ratio * (0.5 + 0.5 * blade_pitch) *

  004e5	f3 0f 5a 45 d0	 cvtss2sd xmm0, DWORD PTR _rpm_ratio$7[ebp]
  004ea	f3 0f 5a 4d f0	 cvtss2sd xmm1, DWORD PTR _blade_pitch$[ebp]
  004ef	f2 0f 59 0d 00
	00 00 00	 mulsd	 xmm1, QWORD PTR __real@3fe0000000000000
  004f7	f2 0f 58 0d 00
	00 00 00	 addsd	 xmm1, QWORD PTR __real@3fe0000000000000
  004ff	f2 0f 59 c1	 mulsd	 xmm0, xmm1
  00503	a1 00 00 00 00	 mov	 eax, DWORD PTR ?current_flight_dynamics@@3PAUDYNAMICS_TYPE@@A ; current_flight_dynamics
  00508	8b 0d 00 00 00
	00		 mov	 ecx, DWORD PTR ?current_flight_dynamics@@3PAUDYNAMICS_TYPE@@A ; current_flight_dynamics
  0050e	f3 0f 10 88 9c
	20 00 00	 movss	 xmm1, DWORD PTR [eax+8348]
  00516	f3 0f 5e 89 a8
	20 00 00	 divss	 xmm1, DWORD PTR [ecx+8360]
  0051e	51		 push	 ecx
  0051f	f3 0f 11 0c 24	 movss	 DWORD PTR [esp], xmm1
  00524	f2 0f 11 85 68
	ff ff ff	 movsd	 QWORD PTR tv557[ebp], xmm0
  0052c	e8 00 00 00 00	 call	 ?fabs@@YGMM@Z		; fabs
  00531	dd 9d 60 ff ff
	ff		 fstp	 QWORD PTR tv488[ebp]
  00537	f2 0f 10 85 60
	ff ff ff	 movsd	 xmm0, QWORD PTR tv488[ebp]
  0053f	f2 0f 59 05 00
	00 00 00	 mulsd	 xmm0, QWORD PTR __real@3fd999999999999a
  00547	f2 0f 58 05 00
	00 00 00	 addsd	 xmm0, QWORD PTR __real@3fe0000000000000
  0054f	8b 15 00 00 00
	00		 mov	 edx, DWORD PTR ?current_flight_dynamics@@3PAUDYNAMICS_TYPE@@A ; current_flight_dynamics
  00555	a1 00 00 00 00	 mov	 eax, DWORD PTR ?current_flight_dynamics@@3PAUDYNAMICS_TYPE@@A ; current_flight_dynamics
  0055a	f3 0f 10 8a 6c
	20 00 00	 movss	 xmm1, DWORD PTR [edx+8300]
  00562	f3 0f 5e 88 a8
	20 00 00	 divss	 xmm1, DWORD PTR [eax+8360]
  0056a	51		 push	 ecx
  0056b	f3 0f 11 0c 24	 movss	 DWORD PTR [esp], xmm1
  00570	f2 0f 11 85 58
	ff ff ff	 movsd	 QWORD PTR tv559[ebp], xmm0
  00578	e8 00 00 00 00	 call	 ?fabs@@YGMM@Z		; fabs
  0057d	dd 9d 50 ff ff
	ff		 fstp	 QWORD PTR tv499[ebp]
  00583	f2 0f 10 85 58
	ff ff ff	 movsd	 xmm0, QWORD PTR tv559[ebp]
  0058b	f2 0f 58 85 50
	ff ff ff	 addsd	 xmm0, QWORD PTR tv499[ebp]
  00593	f2 0f 10 8d 68
	ff ff ff	 movsd	 xmm1, QWORD PTR tv557[ebp]
  0059b	f2 0f 59 c8	 mulsd	 xmm1, xmm0
  0059f	f2 0f 5a c1	 cvtsd2ss xmm0, xmm1
  005a3	f3 0f 11 45 d8	 movss	 DWORD PTR _profile_drag$9[ebp], xmm0

; 1004 : 				(0.5 + 0.4 * fabs(current_flight_dynamics->velocity_z.value / current_flight_dynamics->velocity_z.max) +
; 1005 : 				fabs(current_flight_dynamics->velocity_x.value / current_flight_dynamics->velocity_z.max));
; 1006 : 
; 1007 : 			// calulate change in rotor RPM.  The factors for autorotational_acceleration,
; 1008 : 			// profile_drag and induced_drag have been arrived at by experimentation.
; 1009 : 			// Feel free to change the factors if you feel they are wrong.
; 1010 : 			current_flight_dynamics->main_rotor_rpm.delta = max_delta *

  005a8	f3 0f 10 45 c8	 movss	 xmm0, DWORD PTR _autorotation_factor$5[ebp]
  005ad	f3 0f 59 45 d4	 mulss	 xmm0, DWORD PTR _autorotational_acceleration$8[ebp]
  005b2	f3 0f 10 4d c0	 movss	 xmm1, DWORD PTR _profile_drag_factor$3[ebp]
  005b7	f3 0f 59 4d d8	 mulss	 xmm1, DWORD PTR _profile_drag$9[ebp]
  005bc	f3 0f 5c c1	 subss	 xmm0, xmm1
  005c0	f3 0f 10 4d c4	 movss	 xmm1, DWORD PTR _induced_drag_factor$4[ebp]
  005c5	f3 0f 59 4d dc	 mulss	 xmm1, DWORD PTR _induced_drag$10[ebp]
  005ca	f3 0f 5c c1	 subss	 xmm0, xmm1
  005ce	f3 0f 59 45 f8	 mulss	 xmm0, DWORD PTR _max_delta$[ebp]
  005d3	a1 00 00 00 00	 mov	 eax, DWORD PTR ?current_flight_dynamics@@3PAUDYNAMICS_TYPE@@A ; current_flight_dynamics
  005d8	f3 0f 11 80 18
	1e 00 00	 movss	 DWORD PTR [eax+7704], xmm0

; 1011 : 				(autorotation_factor * autorotational_acceleration -
; 1012 : 				 profile_drag_factor * profile_drag -
; 1013 : 				 induced_drag_factor * induced_drag);
; 1014 : 
; 1015 : 			bound (current_flight_dynamics->main_rotor_rpm.delta, auto_min_delta, max_delta);

  005e0	a1 00 00 00 00	 mov	 eax, DWORD PTR ?current_flight_dynamics@@3PAUDYNAMICS_TYPE@@A ; current_flight_dynamics
  005e5	f3 0f 10 45 f4	 movss	 xmm0, DWORD PTR _auto_min_delta$[ebp]
  005ea	0f 2f 80 18 1e
	00 00		 comiss	 xmm0, DWORD PTR [eax+7704]
  005f1	76 0f		 jbe	 SHORT $LN29@update_mai
  005f3	f3 0f 10 45 f4	 movss	 xmm0, DWORD PTR _auto_min_delta$[ebp]
  005f8	f3 0f 11 85 6c
	ff ff ff	 movss	 DWORD PTR tv285[ebp], xmm0
  00600	eb 49		 jmp	 SHORT $LN30@update_mai
$LN29@update_mai:
  00602	8b 0d 00 00 00
	00		 mov	 ecx, DWORD PTR ?current_flight_dynamics@@3PAUDYNAMICS_TYPE@@A ; current_flight_dynamics
  00608	f3 0f 10 81 18
	1e 00 00	 movss	 xmm0, DWORD PTR [ecx+7704]
  00610	0f 2f 45 f8	 comiss	 xmm0, DWORD PTR _max_delta$[ebp]
  00614	76 0f		 jbe	 SHORT $LN27@update_mai
  00616	f3 0f 10 45 f8	 movss	 xmm0, DWORD PTR _max_delta$[ebp]
  0061b	f3 0f 11 85 68
	ff ff ff	 movss	 DWORD PTR tv284[ebp], xmm0
  00623	eb 16		 jmp	 SHORT $LN28@update_mai
$LN27@update_mai:
  00625	8b 15 00 00 00
	00		 mov	 edx, DWORD PTR ?current_flight_dynamics@@3PAUDYNAMICS_TYPE@@A ; current_flight_dynamics
  0062b	f3 0f 10 82 18
	1e 00 00	 movss	 xmm0, DWORD PTR [edx+7704]
  00633	f3 0f 11 85 68
	ff ff ff	 movss	 DWORD PTR tv284[ebp], xmm0
$LN28@update_mai:
  0063b	f3 0f 10 85 68
	ff ff ff	 movss	 xmm0, DWORD PTR tv284[ebp]
  00643	f3 0f 11 85 6c
	ff ff ff	 movss	 DWORD PTR tv285[ebp], xmm0
$LN30@update_mai:

; 1016 : 		}
; 1017 : 		else

  0064b	eb 15		 jmp	 SHORT $LN8@update_mai
$LN7@update_mai:

; 1018 : 		{
; 1019 : 
; 1020 : 			current_flight_dynamics->main_rotor_rpm.delta = -5.0;

  0064d	a1 00 00 00 00	 mov	 eax, DWORD PTR ?current_flight_dynamics@@3PAUDYNAMICS_TYPE@@A ; current_flight_dynamics
  00652	f3 0f 10 05 00
	00 00 00	 movss	 xmm0, DWORD PTR __real@c0a00000
  0065a	f3 0f 11 80 18
	1e 00 00	 movss	 DWORD PTR [eax+7704], xmm0
$LN8@update_mai:

; 1021 : 		}
; 1022 : 
; 1023 : 		//debug_log ("DYNAMICS: rotor rpm %f delta %f, velocity y %f, accelaration y %f", current_flight_dynamics->main_rotor_rpm.value, current_flight_dynamics->main_rotor_rpm.delta, current_flight_dynamics->velocity_y.value, current_flight_dynamics->velocity_y.delta);
; 1024 : 	}
; 1025 : 
; 1026 : 	current_flight_dynamics->main_rotor_rpm.value += current_flight_dynamics->main_rotor_rpm.delta * get_model_delta_time ();

  00662	a1 00 00 00 00	 mov	 eax, DWORD PTR ?current_flight_dynamics@@3PAUDYNAMICS_TYPE@@A ; current_flight_dynamics
  00667	8b 0d 00 00 00
	00		 mov	 ecx, DWORD PTR ?current_flight_dynamics@@3PAUDYNAMICS_TYPE@@A ; current_flight_dynamics
  0066d	f3 0f 10 80 18
	1e 00 00	 movss	 xmm0, DWORD PTR [eax+7704]
  00675	f3 0f 59 81 90
	00 00 00	 mulss	 xmm0, DWORD PTR [ecx+144]
  0067d	8b 15 00 00 00
	00		 mov	 edx, DWORD PTR ?current_flight_dynamics@@3PAUDYNAMICS_TYPE@@A ; current_flight_dynamics
  00683	f3 0f 58 82 14
	1e 00 00	 addss	 xmm0, DWORD PTR [edx+7700]
  0068b	a1 00 00 00 00	 mov	 eax, DWORD PTR ?current_flight_dynamics@@3PAUDYNAMICS_TYPE@@A ; current_flight_dynamics
  00690	f3 0f 11 80 14
	1e 00 00	 movss	 DWORD PTR [eax+7700], xmm0

; 1027 : 	current_flight_dynamics->main_rotor_rpm.value = bound (current_flight_dynamics->main_rotor_rpm.value, rpm_min, rpm_max);

  00698	a1 00 00 00 00	 mov	 eax, DWORD PTR ?current_flight_dynamics@@3PAUDYNAMICS_TYPE@@A ; current_flight_dynamics
  0069d	f3 0f 10 45 e8	 movss	 xmm0, DWORD PTR _rpm_min$[ebp]
  006a2	0f 2f 80 14 1e
	00 00		 comiss	 xmm0, DWORD PTR [eax+7700]
  006a9	76 0f		 jbe	 SHORT $LN33@update_mai
  006ab	f3 0f 10 45 e8	 movss	 xmm0, DWORD PTR _rpm_min$[ebp]
  006b0	f3 0f 11 85 6c
	ff ff ff	 movss	 DWORD PTR tv308[ebp], xmm0
  006b8	eb 49		 jmp	 SHORT $LN34@update_mai
$LN33@update_mai:
  006ba	8b 0d 00 00 00
	00		 mov	 ecx, DWORD PTR ?current_flight_dynamics@@3PAUDYNAMICS_TYPE@@A ; current_flight_dynamics
  006c0	f3 0f 10 81 14
	1e 00 00	 movss	 xmm0, DWORD PTR [ecx+7700]
  006c8	0f 2f 45 e4	 comiss	 xmm0, DWORD PTR _rpm_max$[ebp]
  006cc	76 0f		 jbe	 SHORT $LN31@update_mai
  006ce	f3 0f 10 45 e4	 movss	 xmm0, DWORD PTR _rpm_max$[ebp]
  006d3	f3 0f 11 85 68
	ff ff ff	 movss	 DWORD PTR tv307[ebp], xmm0
  006db	eb 16		 jmp	 SHORT $LN32@update_mai
$LN31@update_mai:
  006dd	8b 15 00 00 00
	00		 mov	 edx, DWORD PTR ?current_flight_dynamics@@3PAUDYNAMICS_TYPE@@A ; current_flight_dynamics
  006e3	f3 0f 10 82 14
	1e 00 00	 movss	 xmm0, DWORD PTR [edx+7700]
  006eb	f3 0f 11 85 68
	ff ff ff	 movss	 DWORD PTR tv307[ebp], xmm0
$LN32@update_mai:
  006f3	f3 0f 10 85 68
	ff ff ff	 movss	 xmm0, DWORD PTR tv307[ebp]
  006fb	f3 0f 11 85 6c
	ff ff ff	 movss	 DWORD PTR tv308[ebp], xmm0
$LN34@update_mai:
  00703	a1 00 00 00 00	 mov	 eax, DWORD PTR ?current_flight_dynamics@@3PAUDYNAMICS_TYPE@@A ; current_flight_dynamics
  00708	f3 0f 10 85 6c
	ff ff ff	 movss	 xmm0, DWORD PTR tv308[ebp]
  00710	f3 0f 11 80 14
	1e 00 00	 movss	 DWORD PTR [eax+7700], xmm0

; 1028 : 
; 1029 : 	// arneh - damage rotor if rpm too high (can only happen when rotor is disengaged)
; 1030 : 	if (current_flight_dynamics->main_rotor_rpm.value > 125.0)

  00718	a1 00 00 00 00	 mov	 eax, DWORD PTR ?current_flight_dynamics@@3PAUDYNAMICS_TYPE@@A ; current_flight_dynamics
  0071d	f3 0f 5a 80 14
	1e 00 00	 cvtss2sd xmm0, DWORD PTR [eax+7700]
  00725	66 0f 2f 05 00
	00 00 00	 comisd	 xmm0, QWORD PTR __real@405f400000000000
  0072d	76 09		 jbe	 SHORT $LN11@update_mai

; 1031 : 		dynamics_damage_model(DYNAMICS_DAMAGE_MAIN_ROTOR, FALSE);

  0072f	6a 00		 push	 0
  00731	6a 02		 push	 2
  00733	e8 00 00 00 00	 call	 ?dynamics_damage_model@@YGXIH@Z ; dynamics_damage_model
$LN11@update_mai:

; 1032 : 
; 1033 : 	// low rotor speech
; 1034 : 	if ((current_flight_dynamics->main_rotor_rpm.value < 60.0) && (current_flight_dynamics->main_rotor_rpm.delta < 0.0) && (get_local_entity_int_value (get_gunship_entity (), INT_TYPE_AIRBORNE_AIRCRAFT)))

  00738	a1 00 00 00 00	 mov	 eax, DWORD PTR ?current_flight_dynamics@@3PAUDYNAMICS_TYPE@@A ; current_flight_dynamics
  0073d	f3 0f 5a 80 14
	1e 00 00	 cvtss2sd xmm0, DWORD PTR [eax+7700]
  00745	f2 0f 10 0d 00
	00 00 00	 movsd	 xmm1, QWORD PTR __real@404e000000000000
  0074d	66 0f 2f c8	 comisd	 xmm1, xmm0
  00751	0f 86 f8 00 00
	00		 jbe	 $LN13@update_mai
  00757	a1 00 00 00 00	 mov	 eax, DWORD PTR ?current_flight_dynamics@@3PAUDYNAMICS_TYPE@@A ; current_flight_dynamics
  0075c	f3 0f 5a 80 18
	1e 00 00	 cvtss2sd xmm0, DWORD PTR [eax+7704]
  00764	0f 57 c9	 xorps	 xmm1, xmm1
  00767	66 0f 2f c8	 comisd	 xmm1, xmm0
  0076b	0f 86 de 00 00
	00		 jbe	 $LN13@update_mai
  00771	83 3d 00 00 00
	00 00		 cmp	 DWORD PTR ?gunship_entity@@3PAUENTITY@@A, 0 ; gunship_entity
  00778	74 0f		 je	 SHORT $LN35@update_mai
  0077a	a1 00 00 00 00	 mov	 eax, DWORD PTR ?gunship_entity@@3PAUENTITY@@A ; gunship_entity
  0077f	8b 08		 mov	 ecx, DWORD PTR [eax]
  00781	89 8d 6c ff ff
	ff		 mov	 DWORD PTR tv328[ebp], ecx
  00787	eb 20		 jmp	 SHORT $LN36@update_mai
$LN35@update_mai:
  00789	68 0a 04 00 00	 push	 1034			; 0000040aH
  0078e	68 00 00 00 00	 push	 OFFSET ??_C@_0EN@OILCBPIN@c?3?2users?2nhv90?2projects?2eech?2ap@
  00793	8b 15 00 00 00
	00		 mov	 edx, DWORD PTR ?null_entity_pointer_message@@3PBDB ; null_entity_pointer_message
  00799	52		 push	 edx
  0079a	e8 00 00 00 00	 call	 ?process_assert@@YGXPBD0H@Z ; process_assert
  0079f	c7 85 6c ff ff
	ff 00 00 00 00	 mov	 DWORD PTR tv328[ebp], 0
$LN36@update_mai:
  007a9	b8 01 00 00 00	 mov	 eax, 1
  007ae	85 c0		 test	 eax, eax
  007b0	74 0c		 je	 SHORT $LN37@update_mai
  007b2	c7 85 68 ff ff
	ff 04 00 00 00	 mov	 DWORD PTR tv335[ebp], 4
  007bc	eb 20		 jmp	 SHORT $LN38@update_mai
$LN37@update_mai:
  007be	68 0a 04 00 00	 push	 1034			; 0000040aH
  007c3	68 00 00 00 00	 push	 OFFSET ??_C@_0EN@OILCBPIN@c?3?2users?2nhv90?2projects?2eech?2ap@
  007c8	8b 0d 00 00 00
	00		 mov	 ecx, DWORD PTR ?overload_invalid_int_type_message@@3PBDB ; overload_invalid_int_type_message
  007ce	51		 push	 ecx
  007cf	e8 00 00 00 00	 call	 ?process_assert@@YGXPBD0H@Z ; process_assert
  007d4	c7 85 68 ff ff
	ff 00 00 00 00	 mov	 DWORD PTR tv335[ebp], 0
$LN38@update_mai:
  007de	6a 04		 push	 4
  007e0	8b 15 00 00 00
	00		 mov	 edx, DWORD PTR ?gunship_entity@@3PAUENTITY@@A ; gunship_entity
  007e6	52		 push	 edx
  007e7	69 85 6c ff ff
	ff 5c 04 00 00	 imul	 eax, DWORD PTR tv328[ebp], 1116
  007f1	8b 8d 68 ff ff
	ff		 mov	 ecx, DWORD PTR tv335[ebp]
  007f7	8b 94 88 00 00
	00 00		 mov	 edx, DWORD PTR ?fn_get_local_entity_int_value@@3PAY0BBH@P6GHPAUENTITY@@W4INT_TYPES@@@ZA[eax+ecx*4]
  007fe	ff d2		 call	 edx
  00800	85 c0		 test	 eax, eax
  00802	74 4b		 je	 SHORT $LN13@update_mai

; 1035 : 	{
; 1036 : 
; 1037 : 		static float
; 1038 : 			time = 0.0;
; 1039 : 
; 1040 : 		time -= get_model_delta_time ();

  00804	a1 00 00 00 00	 mov	 eax, DWORD PTR ?current_flight_dynamics@@3PAUDYNAMICS_TYPE@@A ; current_flight_dynamics
  00809	f3 0f 10 05 00
	00 00 00	 movss	 xmm0, DWORD PTR ?time@?BM@??update_main_rotor_rpm_dynamics@@YGXXZ@4MA
  00811	f3 0f 5c 80 90
	00 00 00	 subss	 xmm0, DWORD PTR [eax+144]
  00819	f3 0f 11 05 00
	00 00 00	 movss	 DWORD PTR ?time@?BM@??update_main_rotor_rpm_dynamics@@YGXXZ@4MA, xmm0

; 1041 : 
; 1042 : 		if (time <= 0.0)

  00821	f3 0f 5a 05 00
	00 00 00	 cvtss2sd xmm0, DWORD PTR ?time@?BM@??update_main_rotor_rpm_dynamics@@YGXXZ@4MA
  00829	0f 57 c9	 xorps	 xmm1, xmm1
  0082c	66 0f 2f c8	 comisd	 xmm1, xmm0
  00830	72 1d		 jb	 SHORT $LN13@update_mai

; 1043 : 		{
; 1044 : 
; 1045 : 			play_client_server_warning_message (get_gunship_entity (), SPEECH_SYSTEM_LOW_ROTOR_RPM);

  00832	6a 29		 push	 41			; 00000029H
  00834	a1 00 00 00 00	 mov	 eax, DWORD PTR ?gunship_entity@@3PAUENTITY@@A ; gunship_entity
  00839	50		 push	 eax
  0083a	e8 00 00 00 00	 call	 ?play_client_server_warning_message@@YGHPAUENTITY@@H@Z ; play_client_server_warning_message

; 1046 : 
; 1047 : 			time = DYNAMICS_LOW_ROTOR_RPM_SPEECH_TIME;

  0083f	f3 0f 10 05 00
	00 00 00	 movss	 xmm0, DWORD PTR __real@41a00000
  00847	f3 0f 11 05 00
	00 00 00	 movss	 DWORD PTR ?time@?BM@??update_main_rotor_rpm_dynamics@@YGXXZ@4MA, xmm0
$LN13@update_mai:

; 1048 : 		}
; 1049 : 	}
; 1050 : }

  0084f	5f		 pop	 edi
  00850	5e		 pop	 esi
  00851	5b		 pop	 ebx
  00852	8b e5		 mov	 esp, ebp
  00854	5d		 pop	 ebp
  00855	c3		 ret	 0
?update_main_rotor_rpm_dynamics@@YGXXZ ENDP		; update_main_rotor_rpm_dynamics
_TEXT	ENDS
; Function compile flags: /Odtp /ZI
; File c:\users\nhv90\projects\eech\aphavoc\source\gunships\dynamics\hokum\ho_dyn.c
;	COMDAT ?update_tail_rotor_dynamics@@YGXXZ
_TEXT	SEGMENT
tv175 = -80						; size = 4
tv176 = -76						; size = 4
_blade_pitch$ = -8					; size = 4
_pedal$ = -4						; size = 4
?update_tail_rotor_dynamics@@YGXXZ PROC			; update_tail_rotor_dynamics, COMDAT

; 861  : {

  00000	55		 push	 ebp
  00001	8b ec		 mov	 ebp, esp
  00003	83 ec 50	 sub	 esp, 80			; 00000050H
  00006	53		 push	 ebx
  00007	56		 push	 esi
  00008	57		 push	 edi

; 862  : 
; 863  : 	float
; 864  : 		pedal,
; 865  : 		blade_pitch;
; 866  : 
; 867  : 	// tail rotor angular position
; 868  : 
; 869  : 	current_flight_dynamics->tail_rotor_angular_position.value += current_flight_dynamics->tail_rotor_rps.value * PI2 * get_model_delta_time ();

  00009	a1 00 00 00 00	 mov	 eax, DWORD PTR ?current_flight_dynamics@@3PAUDYNAMICS_TYPE@@A ; current_flight_dynamics
  0000e	f3 0f 10 80 64
	1f 00 00	 movss	 xmm0, DWORD PTR [eax+8036]
  00016	f3 0f 59 05 00
	00 00 00	 mulss	 xmm0, DWORD PTR __real@40c90fdb
  0001e	8b 0d 00 00 00
	00		 mov	 ecx, DWORD PTR ?current_flight_dynamics@@3PAUDYNAMICS_TYPE@@A ; current_flight_dynamics
  00024	f3 0f 59 81 90
	00 00 00	 mulss	 xmm0, DWORD PTR [ecx+144]
  0002c	8b 15 00 00 00
	00		 mov	 edx, DWORD PTR ?current_flight_dynamics@@3PAUDYNAMICS_TYPE@@A ; current_flight_dynamics
  00032	f3 0f 58 82 7c
	1f 00 00	 addss	 xmm0, DWORD PTR [edx+8060]
  0003a	a1 00 00 00 00	 mov	 eax, DWORD PTR ?current_flight_dynamics@@3PAUDYNAMICS_TYPE@@A ; current_flight_dynamics
  0003f	f3 0f 11 80 7c
	1f 00 00	 movss	 DWORD PTR [eax+8060], xmm0

; 870  : 
; 871  : 	if (current_flight_dynamics->tail_rotor_angular_position.value >= PI2)

  00047	a1 00 00 00 00	 mov	 eax, DWORD PTR ?current_flight_dynamics@@3PAUDYNAMICS_TYPE@@A ; current_flight_dynamics
  0004c	f3 0f 10 80 7c
	1f 00 00	 movss	 xmm0, DWORD PTR [eax+8060]
  00054	0f 2f 05 00 00
	00 00		 comiss	 xmm0, DWORD PTR __real@40c90fdb
  0005b	72 25		 jb	 SHORT $LN2@update_tai

; 872  : 	{
; 873  : 
; 874  : 		current_flight_dynamics->tail_rotor_angular_position.value -= PI2;

  0005d	a1 00 00 00 00	 mov	 eax, DWORD PTR ?current_flight_dynamics@@3PAUDYNAMICS_TYPE@@A ; current_flight_dynamics
  00062	f3 0f 10 80 7c
	1f 00 00	 movss	 xmm0, DWORD PTR [eax+8060]
  0006a	f3 0f 5c 05 00
	00 00 00	 subss	 xmm0, DWORD PTR __real@40c90fdb
  00072	8b 0d 00 00 00
	00		 mov	 ecx, DWORD PTR ?current_flight_dynamics@@3PAUDYNAMICS_TYPE@@A ; current_flight_dynamics
  00078	f3 0f 11 81 7c
	1f 00 00	 movss	 DWORD PTR [ecx+8060], xmm0
  00080	eb 34		 jmp	 SHORT $LN4@update_tai
$LN2@update_tai:

; 875  : 	}
; 876  : 	else if (current_flight_dynamics->tail_rotor_angular_position.value < 0)

  00082	a1 00 00 00 00	 mov	 eax, DWORD PTR ?current_flight_dynamics@@3PAUDYNAMICS_TYPE@@A ; current_flight_dynamics
  00087	0f 57 c0	 xorps	 xmm0, xmm0
  0008a	0f 2f 80 7c 1f
	00 00		 comiss	 xmm0, DWORD PTR [eax+8060]
  00091	76 23		 jbe	 SHORT $LN4@update_tai

; 877  : 	{
; 878  : 
; 879  : 		current_flight_dynamics->tail_rotor_angular_position.value += PI2;

  00093	a1 00 00 00 00	 mov	 eax, DWORD PTR ?current_flight_dynamics@@3PAUDYNAMICS_TYPE@@A ; current_flight_dynamics
  00098	f3 0f 10 80 7c
	1f 00 00	 movss	 xmm0, DWORD PTR [eax+8060]
  000a0	f3 0f 58 05 00
	00 00 00	 addss	 xmm0, DWORD PTR __real@40c90fdb
  000a8	8b 0d 00 00 00
	00		 mov	 ecx, DWORD PTR ?current_flight_dynamics@@3PAUDYNAMICS_TYPE@@A ; current_flight_dynamics
  000ae	f3 0f 11 81 7c
	1f 00 00	 movss	 DWORD PTR [ecx+8060], xmm0
$LN4@update_tai:

; 880  : 	}
; 881  : 
; 882  : 	// calculate blade pitch 0->5 Degs, linearly
; 883  : 
; 884  : 	pedal = current_flight_dynamics->input_data.pedal.value;

  000b6	a1 00 00 00 00	 mov	 eax, DWORD PTR ?current_flight_dynamics@@3PAUDYNAMICS_TYPE@@A ; current_flight_dynamics
  000bb	f3 0f 10 80 dc
	1b 00 00	 movss	 xmm0, DWORD PTR [eax+7132]
  000c3	f3 0f 11 45 fc	 movss	 DWORD PTR _pedal$[ebp], xmm0

; 885  : 
; 886  : 	blade_pitch = rad (pedal / (current_flight_dynamics->input_data.pedal.max / deg (current_flight_dynamics->tail_blade_pitch.max)));

  000c8	a1 00 00 00 00	 mov	 eax, DWORD PTR ?current_flight_dynamics@@3PAUDYNAMICS_TYPE@@A ; current_flight_dynamics
  000cd	f3 0f 10 80 a0
	1f 00 00	 movss	 xmm0, DWORD PTR [eax+8096]
  000d5	f3 0f 59 05 00
	00 00 00	 mulss	 xmm0, DWORD PTR __real@42652ee0
  000dd	8b 0d 00 00 00
	00		 mov	 ecx, DWORD PTR ?current_flight_dynamics@@3PAUDYNAMICS_TYPE@@A ; current_flight_dynamics
  000e3	f3 0f 10 89 e8
	1b 00 00	 movss	 xmm1, DWORD PTR [ecx+7144]
  000eb	f3 0f 5e c8	 divss	 xmm1, xmm0
  000ef	f3 0f 10 45 fc	 movss	 xmm0, DWORD PTR _pedal$[ebp]
  000f4	f3 0f 5e c1	 divss	 xmm0, xmm1
  000f8	f3 0f 59 05 00
	00 00 00	 mulss	 xmm0, DWORD PTR __real@3c8efa35
  00100	f3 0f 11 45 f8	 movss	 DWORD PTR _blade_pitch$[ebp], xmm0

; 887  : 
; 888  : 	current_flight_dynamics->tail_blade_pitch.delta = 2.0 * (blade_pitch - current_flight_dynamics->tail_blade_pitch.value);

  00105	a1 00 00 00 00	 mov	 eax, DWORD PTR ?current_flight_dynamics@@3PAUDYNAMICS_TYPE@@A ; current_flight_dynamics
  0010a	f3 0f 10 45 f8	 movss	 xmm0, DWORD PTR _blade_pitch$[ebp]
  0010f	f3 0f 5c 80 94
	1f 00 00	 subss	 xmm0, DWORD PTR [eax+8084]
  00117	f3 0f 5a c0	 cvtss2sd xmm0, xmm0
  0011b	f2 0f 59 05 00
	00 00 00	 mulsd	 xmm0, QWORD PTR __real@4000000000000000
  00123	f2 0f 5a c0	 cvtsd2ss xmm0, xmm0
  00127	8b 0d 00 00 00
	00		 mov	 ecx, DWORD PTR ?current_flight_dynamics@@3PAUDYNAMICS_TYPE@@A ; current_flight_dynamics
  0012d	f3 0f 11 81 98
	1f 00 00	 movss	 DWORD PTR [ecx+8088], xmm0

; 889  : 
; 890  : 
; 891  : 	if (!current_flight_dynamics->tail_blade_pitch.damaged)

  00135	a1 00 00 00 00	 mov	 eax, DWORD PTR ?current_flight_dynamics@@3PAUDYNAMICS_TYPE@@A ; current_flight_dynamics
  0013a	0f b7 88 a4 1f
	00 00		 movzx	 ecx, WORD PTR [eax+8100]
  00141	85 c9		 test	 ecx, ecx
  00143	75 38		 jne	 SHORT $LN5@update_tai

; 892  : 	{
; 893  : 
; 894  : 		current_flight_dynamics->tail_blade_pitch.value += current_flight_dynamics->tail_blade_pitch.delta * get_model_delta_time ();

  00145	a1 00 00 00 00	 mov	 eax, DWORD PTR ?current_flight_dynamics@@3PAUDYNAMICS_TYPE@@A ; current_flight_dynamics
  0014a	8b 0d 00 00 00
	00		 mov	 ecx, DWORD PTR ?current_flight_dynamics@@3PAUDYNAMICS_TYPE@@A ; current_flight_dynamics
  00150	f3 0f 10 80 98
	1f 00 00	 movss	 xmm0, DWORD PTR [eax+8088]
  00158	f3 0f 59 81 90
	00 00 00	 mulss	 xmm0, DWORD PTR [ecx+144]
  00160	8b 15 00 00 00
	00		 mov	 edx, DWORD PTR ?current_flight_dynamics@@3PAUDYNAMICS_TYPE@@A ; current_flight_dynamics
  00166	f3 0f 58 82 94
	1f 00 00	 addss	 xmm0, DWORD PTR [edx+8084]
  0016e	a1 00 00 00 00	 mov	 eax, DWORD PTR ?current_flight_dynamics@@3PAUDYNAMICS_TYPE@@A ; current_flight_dynamics
  00173	f3 0f 11 80 94
	1f 00 00	 movss	 DWORD PTR [eax+8084], xmm0

; 895  : 	}
; 896  : 	else

  0017b	eb 10		 jmp	 SHORT $LN6@update_tai
$LN5@update_tai:

; 897  : 	{
; 898  : 
; 899  : 		current_flight_dynamics->tail_blade_pitch.value = 0.0;

  0017d	a1 00 00 00 00	 mov	 eax, DWORD PTR ?current_flight_dynamics@@3PAUDYNAMICS_TYPE@@A ; current_flight_dynamics
  00182	0f 57 c0	 xorps	 xmm0, xmm0
  00185	f3 0f 11 80 94
	1f 00 00	 movss	 DWORD PTR [eax+8084], xmm0
$LN6@update_tai:

; 900  : 	}
; 901  : 
; 902  : 	current_flight_dynamics->tail_blade_pitch.value = bound (

  0018d	a1 00 00 00 00	 mov	 eax, DWORD PTR ?current_flight_dynamics@@3PAUDYNAMICS_TYPE@@A ; current_flight_dynamics
  00192	8b 0d 00 00 00
	00		 mov	 ecx, DWORD PTR ?current_flight_dynamics@@3PAUDYNAMICS_TYPE@@A ; current_flight_dynamics
  00198	f3 0f 10 80 9c
	1f 00 00	 movss	 xmm0, DWORD PTR [eax+8092]
  001a0	0f 2f 81 94 1f
	00 00		 comiss	 xmm0, DWORD PTR [ecx+8084]
  001a7	76 15		 jbe	 SHORT $LN10@update_tai
  001a9	8b 15 00 00 00
	00		 mov	 edx, DWORD PTR ?current_flight_dynamics@@3PAUDYNAMICS_TYPE@@A ; current_flight_dynamics
  001af	f3 0f 10 82 9c
	1f 00 00	 movss	 xmm0, DWORD PTR [edx+8092]
  001b7	f3 0f 11 45 b4	 movss	 DWORD PTR tv176[ebp], xmm0
  001bc	eb 4d		 jmp	 SHORT $LN11@update_tai
$LN10@update_tai:
  001be	a1 00 00 00 00	 mov	 eax, DWORD PTR ?current_flight_dynamics@@3PAUDYNAMICS_TYPE@@A ; current_flight_dynamics
  001c3	8b 0d 00 00 00
	00		 mov	 ecx, DWORD PTR ?current_flight_dynamics@@3PAUDYNAMICS_TYPE@@A ; current_flight_dynamics
  001c9	f3 0f 10 80 94
	1f 00 00	 movss	 xmm0, DWORD PTR [eax+8084]
  001d1	0f 2f 81 a0 1f
	00 00		 comiss	 xmm0, DWORD PTR [ecx+8096]
  001d8	76 15		 jbe	 SHORT $LN8@update_tai
  001da	8b 15 00 00 00
	00		 mov	 edx, DWORD PTR ?current_flight_dynamics@@3PAUDYNAMICS_TYPE@@A ; current_flight_dynamics
  001e0	f3 0f 10 82 a0
	1f 00 00	 movss	 xmm0, DWORD PTR [edx+8096]
  001e8	f3 0f 11 45 b0	 movss	 DWORD PTR tv175[ebp], xmm0
  001ed	eb 12		 jmp	 SHORT $LN9@update_tai
$LN8@update_tai:
  001ef	a1 00 00 00 00	 mov	 eax, DWORD PTR ?current_flight_dynamics@@3PAUDYNAMICS_TYPE@@A ; current_flight_dynamics
  001f4	f3 0f 10 80 94
	1f 00 00	 movss	 xmm0, DWORD PTR [eax+8084]
  001fc	f3 0f 11 45 b0	 movss	 DWORD PTR tv175[ebp], xmm0
$LN9@update_tai:
  00201	f3 0f 10 45 b0	 movss	 xmm0, DWORD PTR tv175[ebp]
  00206	f3 0f 11 45 b4	 movss	 DWORD PTR tv176[ebp], xmm0
$LN11@update_tai:
  0020b	8b 0d 00 00 00
	00		 mov	 ecx, DWORD PTR ?current_flight_dynamics@@3PAUDYNAMICS_TYPE@@A ; current_flight_dynamics
  00211	f3 0f 10 45 b4	 movss	 xmm0, DWORD PTR tv176[ebp]
  00216	f3 0f 11 81 94
	1f 00 00	 movss	 DWORD PTR [ecx+8084], xmm0

; 903  : 																current_flight_dynamics->tail_blade_pitch.value,
; 904  : 																current_flight_dynamics->tail_blade_pitch.min,
; 905  : 																current_flight_dynamics->tail_blade_pitch.max);
; 906  : }

  0021e	5f		 pop	 edi
  0021f	5e		 pop	 esi
  00220	5b		 pop	 ebx
  00221	8b e5		 mov	 esp, ebp
  00223	5d		 pop	 ebp
  00224	c3		 ret	 0
?update_tail_rotor_dynamics@@YGXXZ ENDP			; update_tail_rotor_dynamics
_TEXT	ENDS
; Function compile flags: /Odtp /ZI
; File c:\users\nhv90\projects\eech\aphavoc\source\gunships\dynamics\hokum\ho_dyn.c
;	COMDAT ?update_main_rotor_dynamics@@YGXXZ
_TEXT	SEGMENT
tv189 = -100						; size = 8
tv324 = -92						; size = 4
tv277 = -92						; size = 4
tv232 = -92						; size = 4
tv190 = -92						; size = 8
tv325 = -88						; size = 4
tv278 = -88						; size = 4
tv233 = -88						; size = 4
_blade_pitch$ = -20					; size = 4
_rotor_pitch$ = -16					; size = 4
_rotor_roll$ = -12					; size = 4
_average_blade_input$ = -8				; size = 4
_coll$ = -4						; size = 4
?update_main_rotor_dynamics@@YGXXZ PROC			; update_main_rotor_dynamics, COMDAT

; 736  : {

  00000	55		 push	 ebp
  00001	8b ec		 mov	 ebp, esp
  00003	83 ec 64	 sub	 esp, 100		; 00000064H
  00006	53		 push	 ebx
  00007	56		 push	 esi
  00008	57		 push	 edi

; 737  : 
; 738  : 	float
; 739  : 		coll,
; 740  : 		average_blade_input,
; 741  : 		rotor_roll,
; 742  : 		rotor_pitch,
; 743  : 		blade_pitch;
; 744  : 
; 745  : 	// main rotor angular position
; 746  : 
; 747  : 	if (current_flight_dynamics->main_rotor_rpm.max != 0.0)

  00009	a1 00 00 00 00	 mov	 eax, DWORD PTR ?current_flight_dynamics@@3PAUDYNAMICS_TYPE@@A ; current_flight_dynamics
  0000e	f3 0f 5a 80 20
	1e 00 00	 cvtss2sd xmm0, DWORD PTR [eax+7712]
  00016	66 0f 2e 05 00
	00 00 00	 ucomisd xmm0, QWORD PTR __real@0000000000000000
  0001e	9f		 lahf
  0001f	f6 c4 44	 test	 ah, 68			; 00000044H
  00022	7b 77		 jnp	 SHORT $LN2@update_mai

; 748  : 	{
; 749  : 
; 750  : 		current_flight_dynamics->main_rotor_rps.value = 4.5 * (current_flight_dynamics->main_rotor_rpm.value / current_flight_dynamics->main_rotor_rpm.max);

  00024	a1 00 00 00 00	 mov	 eax, DWORD PTR ?current_flight_dynamics@@3PAUDYNAMICS_TYPE@@A ; current_flight_dynamics
  00029	8b 0d 00 00 00
	00		 mov	 ecx, DWORD PTR ?current_flight_dynamics@@3PAUDYNAMICS_TYPE@@A ; current_flight_dynamics
  0002f	f3 0f 10 80 14
	1e 00 00	 movss	 xmm0, DWORD PTR [eax+7700]
  00037	f3 0f 5e 81 20
	1e 00 00	 divss	 xmm0, DWORD PTR [ecx+7712]
  0003f	f3 0f 5a c0	 cvtss2sd xmm0, xmm0
  00043	f2 0f 59 05 00
	00 00 00	 mulsd	 xmm0, QWORD PTR __real@4012000000000000
  0004b	f2 0f 5a c0	 cvtsd2ss xmm0, xmm0
  0004f	8b 15 00 00 00
	00		 mov	 edx, DWORD PTR ?current_flight_dynamics@@3PAUDYNAMICS_TYPE@@A ; current_flight_dynamics
  00055	f3 0f 11 82 2c
	1e 00 00	 movss	 DWORD PTR [edx+7724], xmm0

; 751  : 
; 752  : 		current_flight_dynamics->main_rotor_angular_position.value += current_flight_dynamics->main_rotor_rps.value * PI2 * get_model_delta_time ();

  0005d	a1 00 00 00 00	 mov	 eax, DWORD PTR ?current_flight_dynamics@@3PAUDYNAMICS_TYPE@@A ; current_flight_dynamics
  00062	f3 0f 10 80 2c
	1e 00 00	 movss	 xmm0, DWORD PTR [eax+7724]
  0006a	f3 0f 59 05 00
	00 00 00	 mulss	 xmm0, DWORD PTR __real@40c90fdb
  00072	8b 0d 00 00 00
	00		 mov	 ecx, DWORD PTR ?current_flight_dynamics@@3PAUDYNAMICS_TYPE@@A ; current_flight_dynamics
  00078	f3 0f 59 81 90
	00 00 00	 mulss	 xmm0, DWORD PTR [ecx+144]
  00080	8b 15 00 00 00
	00		 mov	 edx, DWORD PTR ?current_flight_dynamics@@3PAUDYNAMICS_TYPE@@A ; current_flight_dynamics
  00086	f3 0f 58 82 5c
	1e 00 00	 addss	 xmm0, DWORD PTR [edx+7772]
  0008e	a1 00 00 00 00	 mov	 eax, DWORD PTR ?current_flight_dynamics@@3PAUDYNAMICS_TYPE@@A ; current_flight_dynamics
  00093	f3 0f 11 80 5c
	1e 00 00	 movss	 DWORD PTR [eax+7772], xmm0
$LN2@update_mai:

; 753  : 	}
; 754  : 
; 755  : 	if (current_flight_dynamics->main_rotor_angular_position.value >= PI2)

  0009b	a1 00 00 00 00	 mov	 eax, DWORD PTR ?current_flight_dynamics@@3PAUDYNAMICS_TYPE@@A ; current_flight_dynamics
  000a0	f3 0f 10 80 5c
	1e 00 00	 movss	 xmm0, DWORD PTR [eax+7772]
  000a8	0f 2f 05 00 00
	00 00		 comiss	 xmm0, DWORD PTR __real@40c90fdb
  000af	72 25		 jb	 SHORT $LN3@update_mai

; 756  : 	{
; 757  : 
; 758  : 		current_flight_dynamics->main_rotor_angular_position.value -= PI2;

  000b1	a1 00 00 00 00	 mov	 eax, DWORD PTR ?current_flight_dynamics@@3PAUDYNAMICS_TYPE@@A ; current_flight_dynamics
  000b6	f3 0f 10 80 5c
	1e 00 00	 movss	 xmm0, DWORD PTR [eax+7772]
  000be	f3 0f 5c 05 00
	00 00 00	 subss	 xmm0, DWORD PTR __real@40c90fdb
  000c6	8b 0d 00 00 00
	00		 mov	 ecx, DWORD PTR ?current_flight_dynamics@@3PAUDYNAMICS_TYPE@@A ; current_flight_dynamics
  000cc	f3 0f 11 81 5c
	1e 00 00	 movss	 DWORD PTR [ecx+7772], xmm0
  000d4	eb 34		 jmp	 SHORT $LN5@update_mai
$LN3@update_mai:

; 759  : 	}
; 760  : 	else if (current_flight_dynamics->main_rotor_angular_position.value < 0)

  000d6	a1 00 00 00 00	 mov	 eax, DWORD PTR ?current_flight_dynamics@@3PAUDYNAMICS_TYPE@@A ; current_flight_dynamics
  000db	0f 57 c0	 xorps	 xmm0, xmm0
  000de	0f 2f 80 5c 1e
	00 00		 comiss	 xmm0, DWORD PTR [eax+7772]
  000e5	76 23		 jbe	 SHORT $LN5@update_mai

; 761  : 	{
; 762  : 
; 763  : 		current_flight_dynamics->main_rotor_angular_position.value += PI2;

  000e7	a1 00 00 00 00	 mov	 eax, DWORD PTR ?current_flight_dynamics@@3PAUDYNAMICS_TYPE@@A ; current_flight_dynamics
  000ec	f3 0f 10 80 5c
	1e 00 00	 movss	 xmm0, DWORD PTR [eax+7772]
  000f4	f3 0f 58 05 00
	00 00 00	 addss	 xmm0, DWORD PTR __real@40c90fdb
  000fc	8b 0d 00 00 00
	00		 mov	 ecx, DWORD PTR ?current_flight_dynamics@@3PAUDYNAMICS_TYPE@@A ; current_flight_dynamics
  00102	f3 0f 11 81 5c
	1e 00 00	 movss	 DWORD PTR [ecx+7772], xmm0
$LN5@update_mai:

; 764  : 	}
; 765  : 
; 766  : 	// calculate blade pitch 0->5 Degs. collective = blade_pitch^3
; 767  : 
; 768  : 	current_flight_dynamics->main_blade_x_pitch.value = (current_flight_dynamics->main_blade_pitch.max - current_flight_dynamics->main_blade_pitch.min) *

  0010a	a1 00 00 00 00	 mov	 eax, DWORD PTR ?current_flight_dynamics@@3PAUDYNAMICS_TYPE@@A ; current_flight_dynamics
  0010f	8b 0d 00 00 00
	00		 mov	 ecx, DWORD PTR ?current_flight_dynamics@@3PAUDYNAMICS_TYPE@@A ; current_flight_dynamics
  00115	f3 0f 10 80 98
	1e 00 00	 movss	 xmm0, DWORD PTR [eax+7832]
  0011d	f3 0f 5c 81 94
	1e 00 00	 subss	 xmm0, DWORD PTR [ecx+7828]
  00125	f3 0f 5a c0	 cvtss2sd xmm0, xmm0
  00129	8b 15 00 00 00
	00		 mov	 edx, DWORD PTR ?current_flight_dynamics@@3PAUDYNAMICS_TYPE@@A ; current_flight_dynamics
  0012f	f3 0f 5a 8a f8
	00 00 00	 cvtss2sd xmm1, DWORD PTR [edx+248]
  00137	f2 0f 5e 0d 00
	00 00 00	 divsd	 xmm1, QWORD PTR __real@4059000000000000
  0013f	f2 0f 59 c1	 mulsd	 xmm0, xmm1
  00143	a1 00 00 00 00	 mov	 eax, DWORD PTR ?current_flight_dynamics@@3PAUDYNAMICS_TYPE@@A ; current_flight_dynamics
  00148	f3 0f 5a 88 94
	1e 00 00	 cvtss2sd xmm1, DWORD PTR [eax+7828]
  00150	f2 0f 58 c1	 addsd	 xmm0, xmm1
  00154	f2 0f 5a c0	 cvtsd2ss xmm0, xmm0
  00158	8b 0d 00 00 00
	00		 mov	 ecx, DWORD PTR ?current_flight_dynamics@@3PAUDYNAMICS_TYPE@@A ; current_flight_dynamics
  0015e	f3 0f 11 81 a4
	1e 00 00	 movss	 DWORD PTR [ecx+7844], xmm0

; 769  : 						(current_flight_dynamics->input_data.cyclic_x.value / 100.0) + current_flight_dynamics->main_blade_pitch.min;
; 770  : 
; 771  : 	current_flight_dynamics->main_blade_y_pitch.value = (current_flight_dynamics->main_blade_pitch.max - current_flight_dynamics->main_blade_pitch.min) *

  00166	a1 00 00 00 00	 mov	 eax, DWORD PTR ?current_flight_dynamics@@3PAUDYNAMICS_TYPE@@A ; current_flight_dynamics
  0016b	8b 0d 00 00 00
	00		 mov	 ecx, DWORD PTR ?current_flight_dynamics@@3PAUDYNAMICS_TYPE@@A ; current_flight_dynamics
  00171	f3 0f 10 80 98
	1e 00 00	 movss	 xmm0, DWORD PTR [eax+7832]
  00179	f3 0f 5c 81 94
	1e 00 00	 subss	 xmm0, DWORD PTR [ecx+7828]
  00181	f3 0f 5a c0	 cvtss2sd xmm0, xmm0
  00185	8b 15 00 00 00
	00		 mov	 edx, DWORD PTR ?current_flight_dynamics@@3PAUDYNAMICS_TYPE@@A ; current_flight_dynamics
  0018b	f3 0f 5a 8a 10
	01 00 00	 cvtss2sd xmm1, DWORD PTR [edx+272]
  00193	f2 0f 5e 0d 00
	00 00 00	 divsd	 xmm1, QWORD PTR __real@4059000000000000
  0019b	f2 0f 59 c1	 mulsd	 xmm0, xmm1
  0019f	a1 00 00 00 00	 mov	 eax, DWORD PTR ?current_flight_dynamics@@3PAUDYNAMICS_TYPE@@A ; current_flight_dynamics
  001a4	f3 0f 5a 88 94
	1e 00 00	 cvtss2sd xmm1, DWORD PTR [eax+7828]
  001ac	f2 0f 58 c1	 addsd	 xmm0, xmm1
  001b0	f2 0f 5a c0	 cvtsd2ss xmm0, xmm0
  001b4	8b 0d 00 00 00
	00		 mov	 ecx, DWORD PTR ?current_flight_dynamics@@3PAUDYNAMICS_TYPE@@A ; current_flight_dynamics
  001ba	f3 0f 11 81 bc
	1e 00 00	 movss	 DWORD PTR [ecx+7868], xmm0

; 772  : 						(current_flight_dynamics->input_data.cyclic_y.value / 100.0) + current_flight_dynamics->main_blade_pitch.min;
; 773  : 
; 774  : 	coll = current_flight_dynamics->input_data.collective.value / 100.0;

  001c2	a1 00 00 00 00	 mov	 eax, DWORD PTR ?current_flight_dynamics@@3PAUDYNAMICS_TYPE@@A ; current_flight_dynamics
  001c7	f3 0f 5a 80 a8
	1b 00 00	 cvtss2sd xmm0, DWORD PTR [eax+7080]
  001cf	f2 0f 5e 05 00
	00 00 00	 divsd	 xmm0, QWORD PTR __real@4059000000000000
  001d7	f2 0f 5a c0	 cvtsd2ss xmm0, xmm0
  001db	f3 0f 11 45 fc	 movss	 DWORD PTR _coll$[ebp], xmm0

; 775  : 
; 776  : 	coll *= coll;

  001e0	f3 0f 10 45 fc	 movss	 xmm0, DWORD PTR _coll$[ebp]
  001e5	f3 0f 59 45 fc	 mulss	 xmm0, DWORD PTR _coll$[ebp]
  001ea	f3 0f 11 45 fc	 movss	 DWORD PTR _coll$[ebp], xmm0

; 777  : 
; 778  : 	coll *= 100.0;

  001ef	f3 0f 5a 45 fc	 cvtss2sd xmm0, DWORD PTR _coll$[ebp]
  001f4	f2 0f 59 05 00
	00 00 00	 mulsd	 xmm0, QWORD PTR __real@4059000000000000
  001fc	f2 0f 5a c0	 cvtsd2ss xmm0, xmm0
  00200	f3 0f 11 45 fc	 movss	 DWORD PTR _coll$[ebp], xmm0

; 779  : 
; 780  : 	average_blade_input = coll;

  00205	f3 0f 10 45 fc	 movss	 xmm0, DWORD PTR _coll$[ebp]
  0020a	f3 0f 11 45 f8	 movss	 DWORD PTR _average_blade_input$[ebp], xmm0

; 781  : 
; 782  : 	average_blade_input = bound (average_blade_input, 0.0, 100.0);

  0020f	f3 0f 5a 45 f8	 cvtss2sd xmm0, DWORD PTR _average_blade_input$[ebp]
  00214	0f 57 c9	 xorps	 xmm1, xmm1
  00217	66 0f 2f c8	 comisd	 xmm1, xmm0
  0021b	76 0a		 jbe	 SHORT $LN15@update_mai
  0021d	0f 57 c0	 xorps	 xmm0, xmm0
  00220	f2 0f 11 45 a4	 movsd	 QWORD PTR tv190[ebp], xmm0
  00225	eb 32		 jmp	 SHORT $LN16@update_mai
$LN15@update_mai:
  00227	f3 0f 5a 45 f8	 cvtss2sd xmm0, DWORD PTR _average_blade_input$[ebp]
  0022c	66 0f 2f 05 00
	00 00 00	 comisd	 xmm0, QWORD PTR __real@4059000000000000
  00234	76 0f		 jbe	 SHORT $LN13@update_mai
  00236	f2 0f 10 05 00
	00 00 00	 movsd	 xmm0, QWORD PTR __real@4059000000000000
  0023e	f2 0f 11 45 9c	 movsd	 QWORD PTR tv189[ebp], xmm0
  00243	eb 0a		 jmp	 SHORT $LN14@update_mai
$LN13@update_mai:
  00245	f3 0f 5a 45 f8	 cvtss2sd xmm0, DWORD PTR _average_blade_input$[ebp]
  0024a	f2 0f 11 45 9c	 movsd	 QWORD PTR tv189[ebp], xmm0
$LN14@update_mai:
  0024f	f2 0f 10 45 9c	 movsd	 xmm0, QWORD PTR tv189[ebp]
  00254	f2 0f 11 45 a4	 movsd	 QWORD PTR tv190[ebp], xmm0
$LN16@update_mai:
  00259	f2 0f 5a 45 a4	 cvtsd2ss xmm0, QWORD PTR tv190[ebp]
  0025e	f3 0f 11 45 f8	 movss	 DWORD PTR _average_blade_input$[ebp], xmm0

; 783  : 
; 784  : 	blade_pitch = (current_flight_dynamics->main_blade_pitch.max - current_flight_dynamics->main_blade_pitch.min) *

  00263	a1 00 00 00 00	 mov	 eax, DWORD PTR ?current_flight_dynamics@@3PAUDYNAMICS_TYPE@@A ; current_flight_dynamics
  00268	8b 0d 00 00 00
	00		 mov	 ecx, DWORD PTR ?current_flight_dynamics@@3PAUDYNAMICS_TYPE@@A ; current_flight_dynamics
  0026e	f3 0f 10 80 98
	1e 00 00	 movss	 xmm0, DWORD PTR [eax+7832]
  00276	f3 0f 5c 81 94
	1e 00 00	 subss	 xmm0, DWORD PTR [ecx+7828]
  0027e	f3 0f 5a c0	 cvtss2sd xmm0, xmm0
  00282	f3 0f 5a 4d f8	 cvtss2sd xmm1, DWORD PTR _average_blade_input$[ebp]
  00287	f2 0f 5e 0d 00
	00 00 00	 divsd	 xmm1, QWORD PTR __real@4059000000000000
  0028f	f2 0f 59 c1	 mulsd	 xmm0, xmm1
  00293	8b 15 00 00 00
	00		 mov	 edx, DWORD PTR ?current_flight_dynamics@@3PAUDYNAMICS_TYPE@@A ; current_flight_dynamics
  00299	f3 0f 5a 8a 94
	1e 00 00	 cvtss2sd xmm1, DWORD PTR [edx+7828]
  002a1	f2 0f 58 c1	 addsd	 xmm0, xmm1
  002a5	f2 0f 5a c0	 cvtsd2ss xmm0, xmm0
  002a9	f3 0f 11 45 ec	 movss	 DWORD PTR _blade_pitch$[ebp], xmm0

; 785  : 						(average_blade_input / 100.0) + current_flight_dynamics->main_blade_pitch.min;
; 786  : 
; 787  : 	if (!current_flight_dynamics->main_blade_pitch.damaged)

  002ae	a1 00 00 00 00	 mov	 eax, DWORD PTR ?current_flight_dynamics@@3PAUDYNAMICS_TYPE@@A ; current_flight_dynamics
  002b3	0f b7 88 9c 1e
	00 00		 movzx	 ecx, WORD PTR [eax+7836]
  002ba	85 c9		 test	 ecx, ecx
  002bc	75 14		 jne	 SHORT $LN6@update_mai

; 788  : 	{
; 789  : 
; 790  : 		current_flight_dynamics->main_blade_pitch.value = blade_pitch;

  002be	a1 00 00 00 00	 mov	 eax, DWORD PTR ?current_flight_dynamics@@3PAUDYNAMICS_TYPE@@A ; current_flight_dynamics
  002c3	f3 0f 10 45 ec	 movss	 xmm0, DWORD PTR _blade_pitch$[ebp]
  002c8	f3 0f 11 80 8c
	1e 00 00	 movss	 DWORD PTR [eax+7820], xmm0

; 791  : 	}
; 792  : 	else

  002d0	eb 10		 jmp	 SHORT $LN7@update_mai
$LN6@update_mai:

; 793  : 	{
; 794  : 
; 795  : 		current_flight_dynamics->main_blade_pitch.value = 0.0;

  002d2	a1 00 00 00 00	 mov	 eax, DWORD PTR ?current_flight_dynamics@@3PAUDYNAMICS_TYPE@@A ; current_flight_dynamics
  002d7	0f 57 c0	 xorps	 xmm0, xmm0
  002da	f3 0f 11 80 8c
	1e 00 00	 movss	 DWORD PTR [eax+7820], xmm0
$LN7@update_mai:

; 796  : 	}
; 797  : 
; 798  : 	current_flight_dynamics->main_blade_pitch.value = bound (

  002e2	a1 00 00 00 00	 mov	 eax, DWORD PTR ?current_flight_dynamics@@3PAUDYNAMICS_TYPE@@A ; current_flight_dynamics
  002e7	8b 0d 00 00 00
	00		 mov	 ecx, DWORD PTR ?current_flight_dynamics@@3PAUDYNAMICS_TYPE@@A ; current_flight_dynamics
  002ed	f3 0f 10 80 94
	1e 00 00	 movss	 xmm0, DWORD PTR [eax+7828]
  002f5	0f 2f 81 8c 1e
	00 00		 comiss	 xmm0, DWORD PTR [ecx+7820]
  002fc	76 15		 jbe	 SHORT $LN19@update_mai
  002fe	8b 15 00 00 00
	00		 mov	 edx, DWORD PTR ?current_flight_dynamics@@3PAUDYNAMICS_TYPE@@A ; current_flight_dynamics
  00304	f3 0f 10 82 94
	1e 00 00	 movss	 xmm0, DWORD PTR [edx+7828]
  0030c	f3 0f 11 45 a8	 movss	 DWORD PTR tv233[ebp], xmm0
  00311	eb 4d		 jmp	 SHORT $LN20@update_mai
$LN19@update_mai:
  00313	a1 00 00 00 00	 mov	 eax, DWORD PTR ?current_flight_dynamics@@3PAUDYNAMICS_TYPE@@A ; current_flight_dynamics
  00318	8b 0d 00 00 00
	00		 mov	 ecx, DWORD PTR ?current_flight_dynamics@@3PAUDYNAMICS_TYPE@@A ; current_flight_dynamics
  0031e	f3 0f 10 80 8c
	1e 00 00	 movss	 xmm0, DWORD PTR [eax+7820]
  00326	0f 2f 81 98 1e
	00 00		 comiss	 xmm0, DWORD PTR [ecx+7832]
  0032d	76 15		 jbe	 SHORT $LN17@update_mai
  0032f	8b 15 00 00 00
	00		 mov	 edx, DWORD PTR ?current_flight_dynamics@@3PAUDYNAMICS_TYPE@@A ; current_flight_dynamics
  00335	f3 0f 10 82 98
	1e 00 00	 movss	 xmm0, DWORD PTR [edx+7832]
  0033d	f3 0f 11 45 a4	 movss	 DWORD PTR tv232[ebp], xmm0
  00342	eb 12		 jmp	 SHORT $LN18@update_mai
$LN17@update_mai:
  00344	a1 00 00 00 00	 mov	 eax, DWORD PTR ?current_flight_dynamics@@3PAUDYNAMICS_TYPE@@A ; current_flight_dynamics
  00349	f3 0f 10 80 8c
	1e 00 00	 movss	 xmm0, DWORD PTR [eax+7820]
  00351	f3 0f 11 45 a4	 movss	 DWORD PTR tv232[ebp], xmm0
$LN18@update_mai:
  00356	f3 0f 10 45 a4	 movss	 xmm0, DWORD PTR tv232[ebp]
  0035b	f3 0f 11 45 a8	 movss	 DWORD PTR tv233[ebp], xmm0
$LN20@update_mai:
  00360	8b 0d 00 00 00
	00		 mov	 ecx, DWORD PTR ?current_flight_dynamics@@3PAUDYNAMICS_TYPE@@A ; current_flight_dynamics
  00366	f3 0f 10 45 a8	 movss	 xmm0, DWORD PTR tv233[ebp]
  0036b	f3 0f 11 81 8c
	1e 00 00	 movss	 DWORD PTR [ecx+7820], xmm0

; 799  : 																current_flight_dynamics->main_blade_pitch.value,
; 800  : 																current_flight_dynamics->main_blade_pitch.min,
; 801  : 																current_flight_dynamics->main_blade_pitch.max);
; 802  : 
; 803  : 	// calculate 'Tip Plane Path' roll and pitch
; 804  : 
; 805  : 	// roll
; 806  : 
; 807  : 	rotor_roll = (current_flight_dynamics->input_data.cyclic_x.value / (current_flight_dynamics->input_data.cyclic_x.max - current_flight_dynamics->input_data.cyclic_x.min)) *

  00373	a1 00 00 00 00	 mov	 eax, DWORD PTR ?current_flight_dynamics@@3PAUDYNAMICS_TYPE@@A ; current_flight_dynamics
  00378	8b 0d 00 00 00
	00		 mov	 ecx, DWORD PTR ?current_flight_dynamics@@3PAUDYNAMICS_TYPE@@A ; current_flight_dynamics
  0037e	f3 0f 10 80 04
	01 00 00	 movss	 xmm0, DWORD PTR [eax+260]
  00386	f3 0f 5c 81 00
	01 00 00	 subss	 xmm0, DWORD PTR [ecx+256]
  0038e	8b 15 00 00 00
	00		 mov	 edx, DWORD PTR ?current_flight_dynamics@@3PAUDYNAMICS_TYPE@@A ; current_flight_dynamics
  00394	f3 0f 10 8a f8
	00 00 00	 movss	 xmm1, DWORD PTR [edx+248]
  0039c	f3 0f 5e c8	 divss	 xmm1, xmm0
  003a0	a1 00 00 00 00	 mov	 eax, DWORD PTR ?current_flight_dynamics@@3PAUDYNAMICS_TYPE@@A ; current_flight_dynamics
  003a5	8b 0d 00 00 00
	00		 mov	 ecx, DWORD PTR ?current_flight_dynamics@@3PAUDYNAMICS_TYPE@@A ; current_flight_dynamics
  003ab	f3 0f 10 80 f0
	1d 00 00	 movss	 xmm0, DWORD PTR [eax+7664]
  003b3	f3 0f 5c 81 ec
	1d 00 00	 subss	 xmm0, DWORD PTR [ecx+7660]
  003bb	f3 0f 59 c8	 mulss	 xmm1, xmm0
  003bf	f3 0f 11 4d f4	 movss	 DWORD PTR _rotor_roll$[ebp], xmm1

; 808  : 					(current_flight_dynamics->main_rotor_roll_angle.max - current_flight_dynamics->main_rotor_roll_angle.min);
; 809  : 
; 810  : 	if (!current_flight_dynamics->main_rotor_roll_angle.damaged)

  003c4	a1 00 00 00 00	 mov	 eax, DWORD PTR ?current_flight_dynamics@@3PAUDYNAMICS_TYPE@@A ; current_flight_dynamics
  003c9	0f b7 88 f4 1d
	00 00		 movzx	 ecx, WORD PTR [eax+7668]
  003d0	85 c9		 test	 ecx, ecx
  003d2	75 14		 jne	 SHORT $LN8@update_mai

; 811  : 	{
; 812  : 
; 813  : 		current_flight_dynamics->main_rotor_roll_angle.value = rotor_roll;

  003d4	a1 00 00 00 00	 mov	 eax, DWORD PTR ?current_flight_dynamics@@3PAUDYNAMICS_TYPE@@A ; current_flight_dynamics
  003d9	f3 0f 10 45 f4	 movss	 xmm0, DWORD PTR _rotor_roll$[ebp]
  003de	f3 0f 11 80 e4
	1d 00 00	 movss	 DWORD PTR [eax+7652], xmm0

; 814  : 	}
; 815  : 	else

  003e6	eb 10		 jmp	 SHORT $LN9@update_mai
$LN8@update_mai:

; 816  : 	{
; 817  : 
; 818  : 		current_flight_dynamics->main_rotor_roll_angle.value = 0.0;

  003e8	a1 00 00 00 00	 mov	 eax, DWORD PTR ?current_flight_dynamics@@3PAUDYNAMICS_TYPE@@A ; current_flight_dynamics
  003ed	0f 57 c0	 xorps	 xmm0, xmm0
  003f0	f3 0f 11 80 e4
	1d 00 00	 movss	 DWORD PTR [eax+7652], xmm0
$LN9@update_mai:

; 819  : 	}
; 820  : 
; 821  : 	current_flight_dynamics->main_rotor_roll_angle.value = bound (

  003f8	a1 00 00 00 00	 mov	 eax, DWORD PTR ?current_flight_dynamics@@3PAUDYNAMICS_TYPE@@A ; current_flight_dynamics
  003fd	8b 0d 00 00 00
	00		 mov	 ecx, DWORD PTR ?current_flight_dynamics@@3PAUDYNAMICS_TYPE@@A ; current_flight_dynamics
  00403	f3 0f 10 80 ec
	1d 00 00	 movss	 xmm0, DWORD PTR [eax+7660]
  0040b	0f 2f 81 e4 1d
	00 00		 comiss	 xmm0, DWORD PTR [ecx+7652]
  00412	76 15		 jbe	 SHORT $LN23@update_mai
  00414	8b 15 00 00 00
	00		 mov	 edx, DWORD PTR ?current_flight_dynamics@@3PAUDYNAMICS_TYPE@@A ; current_flight_dynamics
  0041a	f3 0f 10 82 ec
	1d 00 00	 movss	 xmm0, DWORD PTR [edx+7660]
  00422	f3 0f 11 45 a8	 movss	 DWORD PTR tv278[ebp], xmm0
  00427	eb 4d		 jmp	 SHORT $LN24@update_mai
$LN23@update_mai:
  00429	a1 00 00 00 00	 mov	 eax, DWORD PTR ?current_flight_dynamics@@3PAUDYNAMICS_TYPE@@A ; current_flight_dynamics
  0042e	8b 0d 00 00 00
	00		 mov	 ecx, DWORD PTR ?current_flight_dynamics@@3PAUDYNAMICS_TYPE@@A ; current_flight_dynamics
  00434	f3 0f 10 80 e4
	1d 00 00	 movss	 xmm0, DWORD PTR [eax+7652]
  0043c	0f 2f 81 f0 1d
	00 00		 comiss	 xmm0, DWORD PTR [ecx+7664]
  00443	76 15		 jbe	 SHORT $LN21@update_mai
  00445	8b 15 00 00 00
	00		 mov	 edx, DWORD PTR ?current_flight_dynamics@@3PAUDYNAMICS_TYPE@@A ; current_flight_dynamics
  0044b	f3 0f 10 82 f0
	1d 00 00	 movss	 xmm0, DWORD PTR [edx+7664]
  00453	f3 0f 11 45 a4	 movss	 DWORD PTR tv277[ebp], xmm0
  00458	eb 12		 jmp	 SHORT $LN22@update_mai
$LN21@update_mai:
  0045a	a1 00 00 00 00	 mov	 eax, DWORD PTR ?current_flight_dynamics@@3PAUDYNAMICS_TYPE@@A ; current_flight_dynamics
  0045f	f3 0f 10 80 e4
	1d 00 00	 movss	 xmm0, DWORD PTR [eax+7652]
  00467	f3 0f 11 45 a4	 movss	 DWORD PTR tv277[ebp], xmm0
$LN22@update_mai:
  0046c	f3 0f 10 45 a4	 movss	 xmm0, DWORD PTR tv277[ebp]
  00471	f3 0f 11 45 a8	 movss	 DWORD PTR tv278[ebp], xmm0
$LN24@update_mai:
  00476	8b 0d 00 00 00
	00		 mov	 ecx, DWORD PTR ?current_flight_dynamics@@3PAUDYNAMICS_TYPE@@A ; current_flight_dynamics
  0047c	f3 0f 10 45 a8	 movss	 xmm0, DWORD PTR tv278[ebp]
  00481	f3 0f 11 81 e4
	1d 00 00	 movss	 DWORD PTR [ecx+7652], xmm0

; 822  : 																current_flight_dynamics->main_rotor_roll_angle.value,
; 823  : 																current_flight_dynamics->main_rotor_roll_angle.min,
; 824  : 																current_flight_dynamics->main_rotor_roll_angle.max);
; 825  : 
; 826  : 	// pitch
; 827  : 
; 828  : 	rotor_pitch = -(current_flight_dynamics->input_data.cyclic_y.value / (current_flight_dynamics->input_data.cyclic_y.max - current_flight_dynamics->input_data.cyclic_y.min)) *

  00489	a1 00 00 00 00	 mov	 eax, DWORD PTR ?current_flight_dynamics@@3PAUDYNAMICS_TYPE@@A ; current_flight_dynamics
  0048e	8b 0d 00 00 00
	00		 mov	 ecx, DWORD PTR ?current_flight_dynamics@@3PAUDYNAMICS_TYPE@@A ; current_flight_dynamics
  00494	f3 0f 10 80 1c
	01 00 00	 movss	 xmm0, DWORD PTR [eax+284]
  0049c	f3 0f 5c 81 18
	01 00 00	 subss	 xmm0, DWORD PTR [ecx+280]
  004a4	8b 15 00 00 00
	00		 mov	 edx, DWORD PTR ?current_flight_dynamics@@3PAUDYNAMICS_TYPE@@A ; current_flight_dynamics
  004aa	f3 0f 10 8a 10
	01 00 00	 movss	 xmm1, DWORD PTR [edx+272]
  004b2	f3 0f 5e c8	 divss	 xmm1, xmm0
  004b6	0f 57 0d 00 00
	00 00		 xorps	 xmm1, DWORD PTR __xmm@80000000800000008000000080000000
  004bd	a1 00 00 00 00	 mov	 eax, DWORD PTR ?current_flight_dynamics@@3PAUDYNAMICS_TYPE@@A ; current_flight_dynamics
  004c2	8b 0d 00 00 00
	00		 mov	 ecx, DWORD PTR ?current_flight_dynamics@@3PAUDYNAMICS_TYPE@@A ; current_flight_dynamics
  004c8	f3 0f 10 80 08
	1e 00 00	 movss	 xmm0, DWORD PTR [eax+7688]
  004d0	f3 0f 5c 81 04
	1e 00 00	 subss	 xmm0, DWORD PTR [ecx+7684]
  004d8	f3 0f 59 c8	 mulss	 xmm1, xmm0
  004dc	f3 0f 11 4d f0	 movss	 DWORD PTR _rotor_pitch$[ebp], xmm1

; 829  : 					(current_flight_dynamics->main_rotor_pitch_angle.max - current_flight_dynamics->main_rotor_pitch_angle.min);
; 830  : 
; 831  : 	if (!current_flight_dynamics->main_rotor_pitch_angle.damaged)

  004e1	a1 00 00 00 00	 mov	 eax, DWORD PTR ?current_flight_dynamics@@3PAUDYNAMICS_TYPE@@A ; current_flight_dynamics
  004e6	0f b7 88 0c 1e
	00 00		 movzx	 ecx, WORD PTR [eax+7692]
  004ed	85 c9		 test	 ecx, ecx
  004ef	75 14		 jne	 SHORT $LN10@update_mai

; 832  : 	{
; 833  : 
; 834  : 		current_flight_dynamics->main_rotor_pitch_angle.value = rotor_pitch;

  004f1	a1 00 00 00 00	 mov	 eax, DWORD PTR ?current_flight_dynamics@@3PAUDYNAMICS_TYPE@@A ; current_flight_dynamics
  004f6	f3 0f 10 45 f0	 movss	 xmm0, DWORD PTR _rotor_pitch$[ebp]
  004fb	f3 0f 11 80 fc
	1d 00 00	 movss	 DWORD PTR [eax+7676], xmm0

; 835  : 	}
; 836  : 	else

  00503	eb 10		 jmp	 SHORT $LN11@update_mai
$LN10@update_mai:

; 837  : 	{
; 838  : 
; 839  : 		current_flight_dynamics->main_rotor_pitch_angle.value = 0.0;

  00505	a1 00 00 00 00	 mov	 eax, DWORD PTR ?current_flight_dynamics@@3PAUDYNAMICS_TYPE@@A ; current_flight_dynamics
  0050a	0f 57 c0	 xorps	 xmm0, xmm0
  0050d	f3 0f 11 80 fc
	1d 00 00	 movss	 DWORD PTR [eax+7676], xmm0
$LN11@update_mai:

; 840  : 	}
; 841  : 
; 842  : 	current_flight_dynamics->main_rotor_pitch_angle.value = bound (

  00515	a1 00 00 00 00	 mov	 eax, DWORD PTR ?current_flight_dynamics@@3PAUDYNAMICS_TYPE@@A ; current_flight_dynamics
  0051a	8b 0d 00 00 00
	00		 mov	 ecx, DWORD PTR ?current_flight_dynamics@@3PAUDYNAMICS_TYPE@@A ; current_flight_dynamics
  00520	f3 0f 10 80 04
	1e 00 00	 movss	 xmm0, DWORD PTR [eax+7684]
  00528	0f 2f 81 fc 1d
	00 00		 comiss	 xmm0, DWORD PTR [ecx+7676]
  0052f	76 15		 jbe	 SHORT $LN27@update_mai
  00531	8b 15 00 00 00
	00		 mov	 edx, DWORD PTR ?current_flight_dynamics@@3PAUDYNAMICS_TYPE@@A ; current_flight_dynamics
  00537	f3 0f 10 82 04
	1e 00 00	 movss	 xmm0, DWORD PTR [edx+7684]
  0053f	f3 0f 11 45 a8	 movss	 DWORD PTR tv325[ebp], xmm0
  00544	eb 4d		 jmp	 SHORT $LN28@update_mai
$LN27@update_mai:
  00546	a1 00 00 00 00	 mov	 eax, DWORD PTR ?current_flight_dynamics@@3PAUDYNAMICS_TYPE@@A ; current_flight_dynamics
  0054b	8b 0d 00 00 00
	00		 mov	 ecx, DWORD PTR ?current_flight_dynamics@@3PAUDYNAMICS_TYPE@@A ; current_flight_dynamics
  00551	f3 0f 10 80 fc
	1d 00 00	 movss	 xmm0, DWORD PTR [eax+7676]
  00559	0f 2f 81 08 1e
	00 00		 comiss	 xmm0, DWORD PTR [ecx+7688]
  00560	76 15		 jbe	 SHORT $LN25@update_mai
  00562	8b 15 00 00 00
	00		 mov	 edx, DWORD PTR ?current_flight_dynamics@@3PAUDYNAMICS_TYPE@@A ; current_flight_dynamics
  00568	f3 0f 10 82 08
	1e 00 00	 movss	 xmm0, DWORD PTR [edx+7688]
  00570	f3 0f 11 45 a4	 movss	 DWORD PTR tv324[ebp], xmm0
  00575	eb 12		 jmp	 SHORT $LN26@update_mai
$LN25@update_mai:
  00577	a1 00 00 00 00	 mov	 eax, DWORD PTR ?current_flight_dynamics@@3PAUDYNAMICS_TYPE@@A ; current_flight_dynamics
  0057c	f3 0f 10 80 fc
	1d 00 00	 movss	 xmm0, DWORD PTR [eax+7676]
  00584	f3 0f 11 45 a4	 movss	 DWORD PTR tv324[ebp], xmm0
$LN26@update_mai:
  00589	f3 0f 10 45 a4	 movss	 xmm0, DWORD PTR tv324[ebp]
  0058e	f3 0f 11 45 a8	 movss	 DWORD PTR tv325[ebp], xmm0
$LN28@update_mai:
  00593	8b 0d 00 00 00
	00		 mov	 ecx, DWORD PTR ?current_flight_dynamics@@3PAUDYNAMICS_TYPE@@A ; current_flight_dynamics
  00599	f3 0f 10 45 a8	 movss	 xmm0, DWORD PTR tv325[ebp]
  0059e	f3 0f 11 81 fc
	1d 00 00	 movss	 DWORD PTR [ecx+7676], xmm0

; 843  : 																current_flight_dynamics->main_rotor_pitch_angle.value,
; 844  : 																current_flight_dynamics->main_rotor_pitch_angle.min,
; 845  : 																current_flight_dynamics->main_rotor_pitch_angle.max);
; 846  : 
; 847  : 	// debug
; 848  : 
; 849  : 	current_flight_dynamics->main_rotor_swash_plate_pitch.value = current_flight_dynamics->main_rotor_pitch_angle.value;

  005a6	a1 00 00 00 00	 mov	 eax, DWORD PTR ?current_flight_dynamics@@3PAUDYNAMICS_TYPE@@A ; current_flight_dynamics
  005ab	8b 0d 00 00 00
	00		 mov	 ecx, DWORD PTR ?current_flight_dynamics@@3PAUDYNAMICS_TYPE@@A ; current_flight_dynamics
  005b1	8b 91 fc 1d 00
	00		 mov	 edx, DWORD PTR [ecx+7676]
  005b7	89 90 d4 1e 00
	00		 mov	 DWORD PTR [eax+7892], edx

; 850  : 
; 851  : 	current_flight_dynamics->main_rotor_swash_plate_roll.value = current_flight_dynamics->main_rotor_roll_angle.value;

  005bd	a1 00 00 00 00	 mov	 eax, DWORD PTR ?current_flight_dynamics@@3PAUDYNAMICS_TYPE@@A ; current_flight_dynamics
  005c2	8b 0d 00 00 00
	00		 mov	 ecx, DWORD PTR ?current_flight_dynamics@@3PAUDYNAMICS_TYPE@@A ; current_flight_dynamics
  005c8	8b 91 e4 1d 00
	00		 mov	 edx, DWORD PTR [ecx+7652]
  005ce	89 90 ec 1e 00
	00		 mov	 DWORD PTR [eax+7916], edx

; 852  : 
; 853  : 	// end
; 854  : }

  005d4	5f		 pop	 edi
  005d5	5e		 pop	 esi
  005d6	5b		 pop	 ebx
  005d7	8b e5		 mov	 esp, ebp
  005d9	5d		 pop	 ebp
  005da	c3		 ret	 0
?update_main_rotor_dynamics@@YGXXZ ENDP			; update_main_rotor_dynamics
_TEXT	ENDS
; Function compile flags: /Odtp /ZI
; File c:\users\nhv90\projects\eech\aphavoc\source\gunships\dynamics\hokum\ho_dyn.c
;	COMDAT ?set_dynamics_defaults@@YGXPAUENTITY@@@Z
_TEXT	SEGMENT
tv1067 = -108						; size = 8
tv347 = -108						; size = 4
tv339 = -104						; size = 4
_Tl$1 = -36						; size = 4
_Pmax$2 = -32						; size = 4
_Md$3 = -28						; size = 4
_Mrpm$4 = -24						; size = 4
_option$5 = -20						; size = 4
_flag$6 = -16						; size = 4
_position$ = -12					; size = 12
_en$ = 8						; size = 4
?set_dynamics_defaults@@YGXPAUENTITY@@@Z PROC		; set_dynamics_defaults, COMDAT

; 145  : {

  00000	55		 push	 ebp
  00001	8b ec		 mov	 ebp, esp
  00003	83 ec 6c	 sub	 esp, 108		; 0000006cH
  00006	53		 push	 ebx
  00007	56		 push	 esi
  00008	57		 push	 edi

; 146  : 
; 147  : 	vec3d
; 148  : 		position;
; 149  : 
; 150  : 	memset (current_flight_dynamics, 0, sizeof (dynamics_type));

  00009	68 40 25 00 00	 push	 9536			; 00002540H
  0000e	6a 00		 push	 0
  00010	a1 00 00 00 00	 mov	 eax, DWORD PTR ?current_flight_dynamics@@3PAUDYNAMICS_TYPE@@A ; current_flight_dynamics
  00015	50		 push	 eax
  00016	e8 00 00 00 00	 call	 _memset
  0001b	83 c4 0c	 add	 esp, 12			; 0000000cH

; 151  : 
; 152  : 	if (parser_flight_dynamics_options == 0)

  0001e	83 3d 00 00 00
	00 00		 cmp	 DWORD PTR ?parser_flight_dynamics_options@@3HA, 0 ; parser_flight_dynamics_options
  00025	0f 85 f9 00 00
	00		 jne	 $LN4@set_dynami

; 153  : 	{
; 154  : 
; 155  : 		set_current_dynamics_options (DYNAMICS_OPTIONS_CROSS_COUPLING, get_global_dynamics_options_cross_coupling());

  0002b	a1 50 00 00 00	 mov	 eax, DWORD PTR ?global_options@@3UGLOBAL_OPTIONS_DATA@@A+80
  00030	c1 e8 09	 shr	 eax, 9
  00033	83 e0 01	 and	 eax, 1
  00036	50		 push	 eax
  00037	6a 00		 push	 0
  00039	e8 00 00 00 00	 call	 ?set_current_dynamics_options@@YGXW4DYNAMICS_OPTIONS_TYPES@@H@Z ; set_current_dynamics_options

; 156  : 		set_current_dynamics_options (DYNAMICS_OPTIONS_DAMAGE, get_global_dynamics_options_damage());

  0003e	a1 50 00 00 00	 mov	 eax, DWORD PTR ?global_options@@3UGLOBAL_OPTIONS_DATA@@A+80
  00043	c1 e8 0d	 shr	 eax, 13			; 0000000dH
  00046	83 e0 01	 and	 eax, 1
  00049	50		 push	 eax
  0004a	6a 01		 push	 1
  0004c	e8 00 00 00 00	 call	 ?set_current_dynamics_options@@YGXW4DYNAMICS_OPTIONS_TYPES@@H@Z ; set_current_dynamics_options

; 157  : 		set_current_dynamics_options (DYNAMICS_OPTIONS_DRAW_FLIGHT_PATH, get_global_dynamics_options_draw_flight_path());

  00051	a1 50 00 00 00	 mov	 eax, DWORD PTR ?global_options@@3UGLOBAL_OPTIONS_DATA@@A+80
  00056	c1 e8 0f	 shr	 eax, 15			; 0000000fH
  00059	83 e0 01	 and	 eax, 1
  0005c	50		 push	 eax
  0005d	6a 02		 push	 2
  0005f	e8 00 00 00 00	 call	 ?set_current_dynamics_options@@YGXW4DYNAMICS_OPTIONS_TYPES@@H@Z ; set_current_dynamics_options

; 158  : 		set_current_dynamics_options (DYNAMICS_OPTIONS_GROUND_COLLISIONS, get_global_dynamics_options_ground_collisions());

  00064	a1 50 00 00 00	 mov	 eax, DWORD PTR ?global_options@@3UGLOBAL_OPTIONS_DATA@@A+80
  00069	c1 e8 0c	 shr	 eax, 12			; 0000000cH
  0006c	83 e0 01	 and	 eax, 1
  0006f	50		 push	 eax
  00070	6a 03		 push	 3
  00072	e8 00 00 00 00	 call	 ?set_current_dynamics_options@@YGXW4DYNAMICS_OPTIONS_TYPES@@H@Z ; set_current_dynamics_options

; 159  : 		set_current_dynamics_options (DYNAMICS_OPTIONS_GROUND_EFFECT, get_global_dynamics_options_ground_effect());

  00077	a1 50 00 00 00	 mov	 eax, DWORD PTR ?global_options@@3UGLOBAL_OPTIONS_DATA@@A+80
  0007c	c1 e8 0a	 shr	 eax, 10			; 0000000aH
  0007f	83 e0 01	 and	 eax, 1
  00082	50		 push	 eax
  00083	6a 04		 push	 4
  00085	e8 00 00 00 00	 call	 ?set_current_dynamics_options@@YGXW4DYNAMICS_OPTIONS_TYPES@@H@Z ; set_current_dynamics_options

; 160  : 		set_current_dynamics_options (DYNAMICS_OPTIONS_KEYBOARD_ASSISTANCE, get_global_dynamics_options_keyboard_assistance());

  0008a	a1 50 00 00 00	 mov	 eax, DWORD PTR ?global_options@@3UGLOBAL_OPTIONS_DATA@@A+80
  0008f	c1 e8 08	 shr	 eax, 8
  00092	83 e0 01	 and	 eax, 1
  00095	50		 push	 eax
  00096	6a 05		 push	 5
  00098	e8 00 00 00 00	 call	 ?set_current_dynamics_options@@YGXW4DYNAMICS_OPTIONS_TYPES@@H@Z ; set_current_dynamics_options

; 161  : 		set_current_dynamics_options (DYNAMICS_OPTIONS_OBJECT_COLLISIONS, get_global_dynamics_options_object_collisions());

  0009d	a1 50 00 00 00	 mov	 eax, DWORD PTR ?global_options@@3UGLOBAL_OPTIONS_DATA@@A+80
  000a2	c1 e8 0b	 shr	 eax, 11			; 0000000bH
  000a5	83 e0 01	 and	 eax, 1
  000a8	50		 push	 eax
  000a9	6a 06		 push	 6
  000ab	e8 00 00 00 00	 call	 ?set_current_dynamics_options@@YGXW4DYNAMICS_OPTIONS_TYPES@@H@Z ; set_current_dynamics_options

; 162  : 		set_current_dynamics_options (DYNAMICS_OPTIONS_OVER_TORQUE, get_global_dynamics_options_over_torque());

  000b0	a1 50 00 00 00	 mov	 eax, DWORD PTR ?global_options@@3UGLOBAL_OPTIONS_DATA@@A+80
  000b5	c1 e8 0e	 shr	 eax, 14			; 0000000eH
  000b8	83 e0 01	 and	 eax, 1
  000bb	50		 push	 eax
  000bc	6a 07		 push	 7
  000be	e8 00 00 00 00	 call	 ?set_current_dynamics_options@@YGXW4DYNAMICS_OPTIONS_TYPES@@H@Z ; set_current_dynamics_options

; 163  : 		set_current_dynamics_options (DYNAMICS_OPTIONS_RETREATING_BLADE_STALL, get_global_dynamics_options_retreating_blade_stall());

  000c3	a1 50 00 00 00	 mov	 eax, DWORD PTR ?global_options@@3UGLOBAL_OPTIONS_DATA@@A+80
  000c8	c1 e8 06	 shr	 eax, 6
  000cb	83 e0 01	 and	 eax, 1
  000ce	50		 push	 eax
  000cf	6a 08		 push	 8
  000d1	e8 00 00 00 00	 call	 ?set_current_dynamics_options@@YGXW4DYNAMICS_OPTIONS_TYPES@@H@Z ; set_current_dynamics_options

; 164  : 		set_current_dynamics_options (DYNAMICS_OPTIONS_REVERSE_THROTTLE_INPUT, get_global_dynamics_options_reverse_throttle_input());

  000d6	a1 50 00 00 00	 mov	 eax, DWORD PTR ?global_options@@3UGLOBAL_OPTIONS_DATA@@A+80
  000db	c1 e8 07	 shr	 eax, 7
  000de	83 e0 01	 and	 eax, 1
  000e1	50		 push	 eax
  000e2	6a 09		 push	 9
  000e4	e8 00 00 00 00	 call	 ?set_current_dynamics_options@@YGXW4DYNAMICS_OPTIONS_TYPES@@H@Z ; set_current_dynamics_options

; 165  : 		set_current_dynamics_options (DYNAMICS_OPTIONS_TRANSITIONAL_LIFT, get_global_dynamics_options_transitional_lift());

  000e9	a1 50 00 00 00	 mov	 eax, DWORD PTR ?global_options@@3UGLOBAL_OPTIONS_DATA@@A+80
  000ee	c1 e8 04	 shr	 eax, 4
  000f1	83 e0 01	 and	 eax, 1
  000f4	50		 push	 eax
  000f5	6a 0a		 push	 10			; 0000000aH
  000f7	e8 00 00 00 00	 call	 ?set_current_dynamics_options@@YGXW4DYNAMICS_OPTIONS_TYPES@@H@Z ; set_current_dynamics_options

; 166  : 		set_current_dynamics_options (DYNAMICS_OPTIONS_VORTEX_RING, get_global_dynamics_options_vortex_ring());

  000fc	a1 50 00 00 00	 mov	 eax, DWORD PTR ?global_options@@3UGLOBAL_OPTIONS_DATA@@A+80
  00101	c1 e8 05	 shr	 eax, 5
  00104	83 e0 01	 and	 eax, 1
  00107	50		 push	 eax
  00108	6a 0b		 push	 11			; 0000000bH
  0010a	e8 00 00 00 00	 call	 ?set_current_dynamics_options@@YGXW4DYNAMICS_OPTIONS_TYPES@@H@Z ; set_current_dynamics_options

; 167  : 		set_current_dynamics_options (DYNAMICS_OPTIONS_WIND, get_global_dynamics_options_wind());

  0010f	a1 50 00 00 00	 mov	 eax, DWORD PTR ?global_options@@3UGLOBAL_OPTIONS_DATA@@A+80
  00114	c1 e8 03	 shr	 eax, 3
  00117	83 e0 01	 and	 eax, 1
  0011a	50		 push	 eax
  0011b	6a 0c		 push	 12			; 0000000cH
  0011d	e8 00 00 00 00	 call	 ?set_current_dynamics_options@@YGXW4DYNAMICS_OPTIONS_TYPES@@H@Z ; set_current_dynamics_options

; 168  : 	}
; 169  : 	else

  00122	eb 3a		 jmp	 SHORT $LN3@set_dynami
$LN4@set_dynami:

; 170  : 	{
; 171  : 
; 172  : 		unsigned int
; 173  : 			flag;
; 174  : 
; 175  : 		int
; 176  : 			option;
; 177  : 
; 178  : 		flag = parser_flight_dynamics_options;

  00124	a1 00 00 00 00	 mov	 eax, DWORD PTR ?parser_flight_dynamics_options@@3HA ; parser_flight_dynamics_options
  00129	89 45 f0	 mov	 DWORD PTR _flag$6[ebp], eax

; 179  : 
; 180  : 		option = DYNAMICS_OPTIONS_CROSS_COUPLING;

  0012c	c7 45 ec 00 00
	00 00		 mov	 DWORD PTR _option$5[ebp], 0
$LN2@set_dynami:

; 181  : 
; 182  : 		while (option < NUM_DYNAMICS_OPTIONS_TYPES)

  00133	83 7d ec 0d	 cmp	 DWORD PTR _option$5[ebp], 13 ; 0000000dH
  00137	7d 25		 jge	 SHORT $LN3@set_dynami

; 183  : 		{
; 184  : 
; 185  : 			if (flag & (1 << option))

  00139	b8 01 00 00 00	 mov	 eax, 1
  0013e	8b 4d ec	 mov	 ecx, DWORD PTR _option$5[ebp]
  00141	d3 e0		 shl	 eax, cl
  00143	23 45 f0	 and	 eax, DWORD PTR _flag$6[ebp]
  00146	74 0b		 je	 SHORT $LN6@set_dynami

; 186  : 			{
; 187  : 
; 188  : 				set_current_dynamics_options ((dynamics_options_types) option, TRUE);

  00148	6a 01		 push	 1
  0014a	8b 45 ec	 mov	 eax, DWORD PTR _option$5[ebp]
  0014d	50		 push	 eax
  0014e	e8 00 00 00 00	 call	 ?set_current_dynamics_options@@YGXW4DYNAMICS_OPTIONS_TYPES@@H@Z ; set_current_dynamics_options
$LN6@set_dynami:

; 189  : 
; 190  : 				#if DEBUG_MODULE
; 191  : 
; 192  : 				debug_log ("DYNAMICS: flight dynamics %s = %d", dynamics_options_type_names [option], TRUE);
; 193  : 
; 194  : 				#endif
; 195  : 			}
; 196  : 
; 197  : 			option ++;

  00153	8b 45 ec	 mov	 eax, DWORD PTR _option$5[ebp]
  00156	83 c0 01	 add	 eax, 1
  00159	89 45 ec	 mov	 DWORD PTR _option$5[ebp], eax

; 198  : 		}

  0015c	eb d5		 jmp	 SHORT $LN2@set_dynami
$LN3@set_dynami:

; 199  : 	}
; 200  : 
; 201  : 	// set default modifier values
; 202  : 
; 203  : 	current_flight_dynamics->undercarriage_state.modifier = 1.0;

  0015e	a1 00 00 00 00	 mov	 eax, DWORD PTR ?current_flight_dynamics@@3PAUDYNAMICS_TYPE@@A ; current_flight_dynamics
  00163	f3 0f 10 05 00
	00 00 00	 movss	 xmm0, DWORD PTR __real@3f800000
  0016b	f3 0f 11 80 60
	1c 00 00	 movss	 DWORD PTR [eax+7264], xmm0

; 204  : 	current_flight_dynamics->apu_rpm.modifier = 1.0;

  00173	a1 00 00 00 00	 mov	 eax, DWORD PTR ?current_flight_dynamics@@3PAUDYNAMICS_TYPE@@A ; current_flight_dynamics
  00178	f3 0f 10 05 00
	00 00 00	 movss	 xmm0, DWORD PTR __real@3f800000
  00180	f3 0f 11 80 38
	1d 00 00	 movss	 DWORD PTR [eax+7480], xmm0

; 205  : 	current_flight_dynamics->left_engine_rpm.modifier = 1.0;

  00188	a1 00 00 00 00	 mov	 eax, DWORD PTR ?current_flight_dynamics@@3PAUDYNAMICS_TYPE@@A ; current_flight_dynamics
  0018d	f3 0f 10 05 00
	00 00 00	 movss	 xmm0, DWORD PTR __real@3f800000
  00195	f3 0f 11 80 78
	1c 00 00	 movss	 DWORD PTR [eax+7288], xmm0

; 206  : 	current_flight_dynamics->left_engine_torque.modifier = 1.0;

  0019d	a1 00 00 00 00	 mov	 eax, DWORD PTR ?current_flight_dynamics@@3PAUDYNAMICS_TYPE@@A ; current_flight_dynamics
  001a2	f3 0f 10 05 00
	00 00 00	 movss	 xmm0, DWORD PTR __real@3f800000
  001aa	f3 0f 11 80 a8
	1c 00 00	 movss	 DWORD PTR [eax+7336], xmm0

; 207  : 	current_flight_dynamics->left_engine_temp.modifier = 1.0;

  001b2	a1 00 00 00 00	 mov	 eax, DWORD PTR ?current_flight_dynamics@@3PAUDYNAMICS_TYPE@@A ; current_flight_dynamics
  001b7	f3 0f 10 05 00
	00 00 00	 movss	 xmm0, DWORD PTR __real@3f800000
  001bf	f3 0f 11 80 c0
	1c 00 00	 movss	 DWORD PTR [eax+7360], xmm0

; 208  : 	current_flight_dynamics->right_engine_rpm.modifier = 1.0;

  001c7	a1 00 00 00 00	 mov	 eax, DWORD PTR ?current_flight_dynamics@@3PAUDYNAMICS_TYPE@@A ; current_flight_dynamics
  001cc	f3 0f 10 05 00
	00 00 00	 movss	 xmm0, DWORD PTR __real@3f800000
  001d4	f3 0f 11 80 d8
	1c 00 00	 movss	 DWORD PTR [eax+7384], xmm0

; 209  : 	current_flight_dynamics->right_engine_torque.modifier = 1.0;

  001dc	a1 00 00 00 00	 mov	 eax, DWORD PTR ?current_flight_dynamics@@3PAUDYNAMICS_TYPE@@A ; current_flight_dynamics
  001e1	f3 0f 10 05 00
	00 00 00	 movss	 xmm0, DWORD PTR __real@3f800000
  001e9	f3 0f 11 80 08
	1d 00 00	 movss	 DWORD PTR [eax+7432], xmm0

; 210  : 	current_flight_dynamics->right_engine_temp.modifier = 1.0;

  001f1	a1 00 00 00 00	 mov	 eax, DWORD PTR ?current_flight_dynamics@@3PAUDYNAMICS_TYPE@@A ; current_flight_dynamics
  001f6	f3 0f 10 05 00
	00 00 00	 movss	 xmm0, DWORD PTR __real@3f800000
  001fe	f3 0f 11 80 20
	1d 00 00	 movss	 DWORD PTR [eax+7456], xmm0

; 211  : 	current_flight_dynamics->main_rotor_number_of_blades.modifier = 1.0;

  00206	a1 00 00 00 00	 mov	 eax, DWORD PTR ?current_flight_dynamics@@3PAUDYNAMICS_TYPE@@A ; current_flight_dynamics
  0020b	f3 0f 10 05 00
	00 00 00	 movss	 xmm0, DWORD PTR __real@3f800000
  00213	f3 0f 11 80 50
	1d 00 00	 movss	 DWORD PTR [eax+7504], xmm0

; 212  : 	current_flight_dynamics->main_rotor_induced_air.modifier = 0.7;

  0021b	a1 00 00 00 00	 mov	 eax, DWORD PTR ?current_flight_dynamics@@3PAUDYNAMICS_TYPE@@A ; current_flight_dynamics
  00220	f3 0f 10 05 00
	00 00 00	 movss	 xmm0, DWORD PTR __real@3f333333
  00228	f3 0f 11 80 68
	1d 00 00	 movss	 DWORD PTR [eax+7528], xmm0

; 213  : 	current_flight_dynamics->main_rotor_induced_vortex_air_flow.modifier = 0.3;

  00230	a1 00 00 00 00	 mov	 eax, DWORD PTR ?current_flight_dynamics@@3PAUDYNAMICS_TYPE@@A ; current_flight_dynamics
  00235	f3 0f 10 05 00
	00 00 00	 movss	 xmm0, DWORD PTR __real@3e99999a
  0023d	f3 0f 11 80 80
	1d 00 00	 movss	 DWORD PTR [eax+7552], xmm0

; 214  : 	current_flight_dynamics->main_rotor_diameter.modifier = 1.0;

  00245	a1 00 00 00 00	 mov	 eax, DWORD PTR ?current_flight_dynamics@@3PAUDYNAMICS_TYPE@@A ; current_flight_dynamics
  0024a	f3 0f 10 05 00
	00 00 00	 movss	 xmm0, DWORD PTR __real@3f800000
  00252	f3 0f 11 80 98
	1d 00 00	 movss	 DWORD PTR [eax+7576], xmm0

; 215  : 	current_flight_dynamics->main_rotor_area.modifier = 1.0;

  0025a	a1 00 00 00 00	 mov	 eax, DWORD PTR ?current_flight_dynamics@@3PAUDYNAMICS_TYPE@@A ; current_flight_dynamics
  0025f	f3 0f 10 05 00
	00 00 00	 movss	 xmm0, DWORD PTR __real@3f800000
  00267	f3 0f 11 80 b0
	1d 00 00	 movss	 DWORD PTR [eax+7600], xmm0

; 216  : 	current_flight_dynamics->main_rotor_thrust.modifier = 1.0;

  0026f	a1 00 00 00 00	 mov	 eax, DWORD PTR ?current_flight_dynamics@@3PAUDYNAMICS_TYPE@@A ; current_flight_dynamics
  00274	f3 0f 10 05 00
	00 00 00	 movss	 xmm0, DWORD PTR __real@3f800000
  0027c	f3 0f 11 80 c8
	1d 00 00	 movss	 DWORD PTR [eax+7624], xmm0

; 217  : 	current_flight_dynamics->main_rotor_roll_angle.modifier = 1.0;

  00284	a1 00 00 00 00	 mov	 eax, DWORD PTR ?current_flight_dynamics@@3PAUDYNAMICS_TYPE@@A ; current_flight_dynamics
  00289	f3 0f 10 05 00
	00 00 00	 movss	 xmm0, DWORD PTR __real@3f800000
  00291	f3 0f 11 80 e0
	1d 00 00	 movss	 DWORD PTR [eax+7648], xmm0

; 218  : 	current_flight_dynamics->main_rotor_pitch_angle.modifier = 1.0;

  00299	a1 00 00 00 00	 mov	 eax, DWORD PTR ?current_flight_dynamics@@3PAUDYNAMICS_TYPE@@A ; current_flight_dynamics
  0029e	f3 0f 10 05 00
	00 00 00	 movss	 xmm0, DWORD PTR __real@3f800000
  002a6	f3 0f 11 80 f8
	1d 00 00	 movss	 DWORD PTR [eax+7672], xmm0

; 219  : 	current_flight_dynamics->main_rotor_rpm.modifier = 1.0;

  002ae	a1 00 00 00 00	 mov	 eax, DWORD PTR ?current_flight_dynamics@@3PAUDYNAMICS_TYPE@@A ; current_flight_dynamics
  002b3	f3 0f 10 05 00
	00 00 00	 movss	 xmm0, DWORD PTR __real@3f800000
  002bb	f3 0f 11 80 10
	1e 00 00	 movss	 DWORD PTR [eax+7696], xmm0

; 220  : 	current_flight_dynamics->main_rotor_rps.modifier = 1.0;

  002c3	a1 00 00 00 00	 mov	 eax, DWORD PTR ?current_flight_dynamics@@3PAUDYNAMICS_TYPE@@A ; current_flight_dynamics
  002c8	f3 0f 10 05 00
	00 00 00	 movss	 xmm0, DWORD PTR __real@3f800000
  002d0	f3 0f 11 80 28
	1e 00 00	 movss	 DWORD PTR [eax+7720], xmm0

; 221  : 	current_flight_dynamics->main_rotor_coning_angle.modifier = 1.0;

  002d8	a1 00 00 00 00	 mov	 eax, DWORD PTR ?current_flight_dynamics@@3PAUDYNAMICS_TYPE@@A ; current_flight_dynamics
  002dd	f3 0f 10 05 00
	00 00 00	 movss	 xmm0, DWORD PTR __real@3f800000
  002e5	f3 0f 11 80 40
	1e 00 00	 movss	 DWORD PTR [eax+7744], xmm0

; 222  : 	current_flight_dynamics->main_rotor_angular_position.modifier = 1.0;

  002ed	a1 00 00 00 00	 mov	 eax, DWORD PTR ?current_flight_dynamics@@3PAUDYNAMICS_TYPE@@A ; current_flight_dynamics
  002f2	f3 0f 10 05 00
	00 00 00	 movss	 xmm0, DWORD PTR __real@3f800000
  002fa	f3 0f 11 80 58
	1e 00 00	 movss	 DWORD PTR [eax+7768], xmm0

; 223  : 	current_flight_dynamics->main_rotor_angular_increment.modifier = 1.0;

  00302	a1 00 00 00 00	 mov	 eax, DWORD PTR ?current_flight_dynamics@@3PAUDYNAMICS_TYPE@@A ; current_flight_dynamics
  00307	f3 0f 10 05 00
	00 00 00	 movss	 xmm0, DWORD PTR __real@3f800000
  0030f	f3 0f 11 80 70
	1e 00 00	 movss	 DWORD PTR [eax+7792], xmm0

; 224  : 	current_flight_dynamics->main_blade_pitch.modifier = 1.0;

  00317	a1 00 00 00 00	 mov	 eax, DWORD PTR ?current_flight_dynamics@@3PAUDYNAMICS_TYPE@@A ; current_flight_dynamics
  0031c	f3 0f 10 05 00
	00 00 00	 movss	 xmm0, DWORD PTR __real@3f800000
  00324	f3 0f 11 80 88
	1e 00 00	 movss	 DWORD PTR [eax+7816], xmm0

; 225  : 	current_flight_dynamics->main_blade_x_pitch.modifier = 1.0;

  0032c	a1 00 00 00 00	 mov	 eax, DWORD PTR ?current_flight_dynamics@@3PAUDYNAMICS_TYPE@@A ; current_flight_dynamics
  00331	f3 0f 10 05 00
	00 00 00	 movss	 xmm0, DWORD PTR __real@3f800000
  00339	f3 0f 11 80 a0
	1e 00 00	 movss	 DWORD PTR [eax+7840], xmm0

; 226  : 	current_flight_dynamics->main_blade_y_pitch.modifier = 1.0;

  00341	a1 00 00 00 00	 mov	 eax, DWORD PTR ?current_flight_dynamics@@3PAUDYNAMICS_TYPE@@A ; current_flight_dynamics
  00346	f3 0f 10 05 00
	00 00 00	 movss	 xmm0, DWORD PTR __real@3f800000
  0034e	f3 0f 11 80 b8
	1e 00 00	 movss	 DWORD PTR [eax+7864], xmm0

; 227  : 	current_flight_dynamics->main_rotor_swash_plate_pitch.modifier = 1.0;

  00356	a1 00 00 00 00	 mov	 eax, DWORD PTR ?current_flight_dynamics@@3PAUDYNAMICS_TYPE@@A ; current_flight_dynamics
  0035b	f3 0f 10 05 00
	00 00 00	 movss	 xmm0, DWORD PTR __real@3f800000
  00363	f3 0f 11 80 d0
	1e 00 00	 movss	 DWORD PTR [eax+7888], xmm0

; 228  : 	current_flight_dynamics->main_rotor_swash_plate_roll.modifier = 1.0;

  0036b	a1 00 00 00 00	 mov	 eax, DWORD PTR ?current_flight_dynamics@@3PAUDYNAMICS_TYPE@@A ; current_flight_dynamics
  00370	f3 0f 10 05 00
	00 00 00	 movss	 xmm0, DWORD PTR __real@3f800000
  00378	f3 0f 11 80 e8
	1e 00 00	 movss	 DWORD PTR [eax+7912], xmm0

; 229  : 	current_flight_dynamics->tail_rotor_induced_air.modifier = 1.0;

  00380	a1 00 00 00 00	 mov	 eax, DWORD PTR ?current_flight_dynamics@@3PAUDYNAMICS_TYPE@@A ; current_flight_dynamics
  00385	f3 0f 10 05 00
	00 00 00	 movss	 xmm0, DWORD PTR __real@3f800000
  0038d	f3 0f 11 80 00
	1f 00 00	 movss	 DWORD PTR [eax+7936], xmm0

; 230  : 	current_flight_dynamics->tail_rotor_diameter.modifier = 1.0;

  00395	a1 00 00 00 00	 mov	 eax, DWORD PTR ?current_flight_dynamics@@3PAUDYNAMICS_TYPE@@A ; current_flight_dynamics
  0039a	f3 0f 10 05 00
	00 00 00	 movss	 xmm0, DWORD PTR __real@3f800000
  003a2	f3 0f 11 80 18
	1f 00 00	 movss	 DWORD PTR [eax+7960], xmm0

; 231  : 	current_flight_dynamics->tail_rotor_thrust.modifier = 1.0;

  003aa	a1 00 00 00 00	 mov	 eax, DWORD PTR ?current_flight_dynamics@@3PAUDYNAMICS_TYPE@@A ; current_flight_dynamics
  003af	f3 0f 10 05 00
	00 00 00	 movss	 xmm0, DWORD PTR __real@3f800000
  003b7	f3 0f 11 80 30
	1f 00 00	 movss	 DWORD PTR [eax+7984], xmm0

; 232  : 	current_flight_dynamics->tail_rotor_rpm.modifier = 1.0;

  003bf	a1 00 00 00 00	 mov	 eax, DWORD PTR ?current_flight_dynamics@@3PAUDYNAMICS_TYPE@@A ; current_flight_dynamics
  003c4	f3 0f 10 05 00
	00 00 00	 movss	 xmm0, DWORD PTR __real@3f800000
  003cc	f3 0f 11 80 48
	1f 00 00	 movss	 DWORD PTR [eax+8008], xmm0

; 233  : 	current_flight_dynamics->tail_rotor_rps.modifier = 1.0;

  003d4	a1 00 00 00 00	 mov	 eax, DWORD PTR ?current_flight_dynamics@@3PAUDYNAMICS_TYPE@@A ; current_flight_dynamics
  003d9	f3 0f 10 05 00
	00 00 00	 movss	 xmm0, DWORD PTR __real@3f800000
  003e1	f3 0f 11 80 60
	1f 00 00	 movss	 DWORD PTR [eax+8032], xmm0

; 234  : 	current_flight_dynamics->tail_rotor_angular_position.modifier = 1.0;

  003e9	a1 00 00 00 00	 mov	 eax, DWORD PTR ?current_flight_dynamics@@3PAUDYNAMICS_TYPE@@A ; current_flight_dynamics
  003ee	f3 0f 10 05 00
	00 00 00	 movss	 xmm0, DWORD PTR __real@3f800000
  003f6	f3 0f 11 80 78
	1f 00 00	 movss	 DWORD PTR [eax+8056], xmm0

; 235  : 	current_flight_dynamics->tail_blade_pitch.modifier = 1.0;

  003fe	a1 00 00 00 00	 mov	 eax, DWORD PTR ?current_flight_dynamics@@3PAUDYNAMICS_TYPE@@A ; current_flight_dynamics
  00403	f3 0f 10 05 00
	00 00 00	 movss	 xmm0, DWORD PTR __real@3f800000
  0040b	f3 0f 11 80 90
	1f 00 00	 movss	 DWORD PTR [eax+8080], xmm0

; 236  : 	current_flight_dynamics->tail_boom_length.modifier = 1.0;

  00413	a1 00 00 00 00	 mov	 eax, DWORD PTR ?current_flight_dynamics@@3PAUDYNAMICS_TYPE@@A ; current_flight_dynamics
  00418	f3 0f 10 05 00
	00 00 00	 movss	 xmm0, DWORD PTR __real@3f800000
  00420	f3 0f 11 80 a8
	1f 00 00	 movss	 DWORD PTR [eax+8104], xmm0

; 237  : 	current_flight_dynamics->cross_coupling_effect.modifier = 1.0;

  00428	a1 00 00 00 00	 mov	 eax, DWORD PTR ?current_flight_dynamics@@3PAUDYNAMICS_TYPE@@A ; current_flight_dynamics
  0042d	f3 0f 10 05 00
	00 00 00	 movss	 xmm0, DWORD PTR __real@3f800000
  00435	f3 0f 11 80 c0
	1f 00 00	 movss	 DWORD PTR [eax+8128], xmm0

; 238  : 	current_flight_dynamics->power_avaliable.modifier = 1.0;

  0043d	a1 00 00 00 00	 mov	 eax, DWORD PTR ?current_flight_dynamics@@3PAUDYNAMICS_TYPE@@A ; current_flight_dynamics
  00442	f3 0f 10 05 00
	00 00 00	 movss	 xmm0, DWORD PTR __real@3f800000
  0044a	f3 0f 11 80 d8
	1f 00 00	 movss	 DWORD PTR [eax+8152], xmm0

; 239  : 	current_flight_dynamics->power_required.modifier = 1.0;

  00452	a1 00 00 00 00	 mov	 eax, DWORD PTR ?current_flight_dynamics@@3PAUDYNAMICS_TYPE@@A ; current_flight_dynamics
  00457	f3 0f 10 05 00
	00 00 00	 movss	 xmm0, DWORD PTR __real@3f800000
  0045f	f3 0f 11 80 f0
	1f 00 00	 movss	 DWORD PTR [eax+8176], xmm0

; 240  : 	current_flight_dynamics->power_induced.modifier = 1.0;

  00467	a1 00 00 00 00	 mov	 eax, DWORD PTR ?current_flight_dynamics@@3PAUDYNAMICS_TYPE@@A ; current_flight_dynamics
  0046c	f3 0f 10 05 00
	00 00 00	 movss	 xmm0, DWORD PTR __real@3f800000
  00474	f3 0f 11 80 08
	20 00 00	 movss	 DWORD PTR [eax+8200], xmm0

; 241  : 	current_flight_dynamics->power_profile.modifier = 1.0;

  0047c	a1 00 00 00 00	 mov	 eax, DWORD PTR ?current_flight_dynamics@@3PAUDYNAMICS_TYPE@@A ; current_flight_dynamics
  00481	f3 0f 10 05 00
	00 00 00	 movss	 xmm0, DWORD PTR __real@3f800000
  00489	f3 0f 11 80 20
	20 00 00	 movss	 DWORD PTR [eax+8224], xmm0

; 242  : 	current_flight_dynamics->power_parasite.modifier = 1.0;

  00491	a1 00 00 00 00	 mov	 eax, DWORD PTR ?current_flight_dynamics@@3PAUDYNAMICS_TYPE@@A ; current_flight_dynamics
  00496	f3 0f 10 05 00
	00 00 00	 movss	 xmm0, DWORD PTR __real@3f800000
  0049e	f3 0f 11 80 38
	20 00 00	 movss	 DWORD PTR [eax+8248], xmm0

; 243  : 	current_flight_dynamics->power_surplus.modifier = 1.0;

  004a6	a1 00 00 00 00	 mov	 eax, DWORD PTR ?current_flight_dynamics@@3PAUDYNAMICS_TYPE@@A ; current_flight_dynamics
  004ab	f3 0f 10 05 00
	00 00 00	 movss	 xmm0, DWORD PTR __real@3f800000
  004b3	f3 0f 11 80 50
	20 00 00	 movss	 DWORD PTR [eax+8272], xmm0

; 244  : 	current_flight_dynamics->velocity_x.modifier = 1.0;

  004bb	a1 00 00 00 00	 mov	 eax, DWORD PTR ?current_flight_dynamics@@3PAUDYNAMICS_TYPE@@A ; current_flight_dynamics
  004c0	f3 0f 10 05 00
	00 00 00	 movss	 xmm0, DWORD PTR __real@3f800000
  004c8	f3 0f 11 80 68
	20 00 00	 movss	 DWORD PTR [eax+8296], xmm0

; 245  : 	current_flight_dynamics->velocity_y.modifier = 1.0;

  004d0	a1 00 00 00 00	 mov	 eax, DWORD PTR ?current_flight_dynamics@@3PAUDYNAMICS_TYPE@@A ; current_flight_dynamics
  004d5	f3 0f 10 05 00
	00 00 00	 movss	 xmm0, DWORD PTR __real@3f800000
  004dd	f3 0f 11 80 80
	20 00 00	 movss	 DWORD PTR [eax+8320], xmm0

; 246  : 	current_flight_dynamics->velocity_z.modifier = 1.0;

  004e5	a1 00 00 00 00	 mov	 eax, DWORD PTR ?current_flight_dynamics@@3PAUDYNAMICS_TYPE@@A ; current_flight_dynamics
  004ea	f3 0f 10 05 00
	00 00 00	 movss	 xmm0, DWORD PTR __real@3f800000
  004f2	f3 0f 11 80 98
	20 00 00	 movss	 DWORD PTR [eax+8344], xmm0

; 247  : 	current_flight_dynamics->acceleration_x.modifier = 1.0;

  004fa	a1 00 00 00 00	 mov	 eax, DWORD PTR ?current_flight_dynamics@@3PAUDYNAMICS_TYPE@@A ; current_flight_dynamics
  004ff	f3 0f 10 05 00
	00 00 00	 movss	 xmm0, DWORD PTR __real@3f800000
  00507	f3 0f 11 80 b0
	20 00 00	 movss	 DWORD PTR [eax+8368], xmm0

; 248  : 	current_flight_dynamics->acceleration_y.modifier = 1.0;

  0050f	a1 00 00 00 00	 mov	 eax, DWORD PTR ?current_flight_dynamics@@3PAUDYNAMICS_TYPE@@A ; current_flight_dynamics
  00514	f3 0f 10 05 00
	00 00 00	 movss	 xmm0, DWORD PTR __real@3f800000
  0051c	f3 0f 11 80 c8
	20 00 00	 movss	 DWORD PTR [eax+8392], xmm0

; 249  : 	current_flight_dynamics->acceleration_z.modifier = 1.0;

  00524	a1 00 00 00 00	 mov	 eax, DWORD PTR ?current_flight_dynamics@@3PAUDYNAMICS_TYPE@@A ; current_flight_dynamics
  00529	f3 0f 10 05 00
	00 00 00	 movss	 xmm0, DWORD PTR __real@3f800000
  00531	f3 0f 11 80 e0
	20 00 00	 movss	 DWORD PTR [eax+8416], xmm0

; 250  : 	current_flight_dynamics->world_velocity_x.modifier = 1.0;

  00539	a1 00 00 00 00	 mov	 eax, DWORD PTR ?current_flight_dynamics@@3PAUDYNAMICS_TYPE@@A ; current_flight_dynamics
  0053e	f3 0f 10 05 00
	00 00 00	 movss	 xmm0, DWORD PTR __real@3f800000
  00546	f3 0f 11 80 f8
	20 00 00	 movss	 DWORD PTR [eax+8440], xmm0

; 251  : 	current_flight_dynamics->world_velocity_y.modifier = 1.0;

  0054e	a1 00 00 00 00	 mov	 eax, DWORD PTR ?current_flight_dynamics@@3PAUDYNAMICS_TYPE@@A ; current_flight_dynamics
  00553	f3 0f 10 05 00
	00 00 00	 movss	 xmm0, DWORD PTR __real@3f800000
  0055b	f3 0f 11 80 10
	21 00 00	 movss	 DWORD PTR [eax+8464], xmm0

; 252  : 	current_flight_dynamics->world_velocity_z.modifier = 1.0;

  00563	a1 00 00 00 00	 mov	 eax, DWORD PTR ?current_flight_dynamics@@3PAUDYNAMICS_TYPE@@A ; current_flight_dynamics
  00568	f3 0f 10 05 00
	00 00 00	 movss	 xmm0, DWORD PTR __real@3f800000
  00570	f3 0f 11 80 28
	21 00 00	 movss	 DWORD PTR [eax+8488], xmm0

; 253  : 	current_flight_dynamics->air_density.modifier = 1.0;

  00578	a1 00 00 00 00	 mov	 eax, DWORD PTR ?current_flight_dynamics@@3PAUDYNAMICS_TYPE@@A ; current_flight_dynamics
  0057d	f3 0f 10 05 00
	00 00 00	 movss	 xmm0, DWORD PTR __real@3f800000
  00585	f3 0f 11 80 40
	21 00 00	 movss	 DWORD PTR [eax+8512], xmm0

; 254  : 	current_flight_dynamics->pitch.modifier = 1.0;

  0058d	a1 00 00 00 00	 mov	 eax, DWORD PTR ?current_flight_dynamics@@3PAUDYNAMICS_TYPE@@A ; current_flight_dynamics
  00592	f3 0f 10 05 00
	00 00 00	 movss	 xmm0, DWORD PTR __real@3f800000
  0059a	f3 0f 11 80 58
	21 00 00	 movss	 DWORD PTR [eax+8536], xmm0

; 255  : 	current_flight_dynamics->roll.modifier = 1.0;

  005a2	a1 00 00 00 00	 mov	 eax, DWORD PTR ?current_flight_dynamics@@3PAUDYNAMICS_TYPE@@A ; current_flight_dynamics
  005a7	f3 0f 10 05 00
	00 00 00	 movss	 xmm0, DWORD PTR __real@3f800000
  005af	f3 0f 11 80 70
	21 00 00	 movss	 DWORD PTR [eax+8560], xmm0

; 256  : 	current_flight_dynamics->heading.modifier = 1.0;

  005b7	a1 00 00 00 00	 mov	 eax, DWORD PTR ?current_flight_dynamics@@3PAUDYNAMICS_TYPE@@A ; current_flight_dynamics
  005bc	f3 0f 10 05 00
	00 00 00	 movss	 xmm0, DWORD PTR __real@3f800000
  005c4	f3 0f 11 80 88
	21 00 00	 movss	 DWORD PTR [eax+8584], xmm0

; 257  : 	current_flight_dynamics->lift.modifier = 1.0;

  005cc	a1 00 00 00 00	 mov	 eax, DWORD PTR ?current_flight_dynamics@@3PAUDYNAMICS_TYPE@@A ; current_flight_dynamics
  005d1	f3 0f 10 05 00
	00 00 00	 movss	 xmm0, DWORD PTR __real@3f800000
  005d9	f3 0f 11 80 a0
	21 00 00	 movss	 DWORD PTR [eax+8608], xmm0

; 258  : 	current_flight_dynamics->translational_lift.modifier = 0.01;

  005e1	a1 00 00 00 00	 mov	 eax, DWORD PTR ?current_flight_dynamics@@3PAUDYNAMICS_TYPE@@A ; current_flight_dynamics
  005e6	f3 0f 10 05 00
	00 00 00	 movss	 xmm0, DWORD PTR __real@3c23d70a
  005ee	f3 0f 11 80 b8
	21 00 00	 movss	 DWORD PTR [eax+8632], xmm0

; 259  : 	current_flight_dynamics->altitude.modifier = 1.0;

  005f6	a1 00 00 00 00	 mov	 eax, DWORD PTR ?current_flight_dynamics@@3PAUDYNAMICS_TYPE@@A ; current_flight_dynamics
  005fb	f3 0f 10 05 00
	00 00 00	 movss	 xmm0, DWORD PTR __real@3f800000
  00603	f3 0f 11 80 d0
	21 00 00	 movss	 DWORD PTR [eax+8656], xmm0

; 260  : 	current_flight_dynamics->drag_x.modifier = 1.0;

  0060b	a1 00 00 00 00	 mov	 eax, DWORD PTR ?current_flight_dynamics@@3PAUDYNAMICS_TYPE@@A ; current_flight_dynamics
  00610	f3 0f 10 05 00
	00 00 00	 movss	 xmm0, DWORD PTR __real@3f800000
  00618	f3 0f 11 80 e8
	21 00 00	 movss	 DWORD PTR [eax+8680], xmm0

; 261  : 	current_flight_dynamics->drag_y.modifier = 1.0;

  00620	a1 00 00 00 00	 mov	 eax, DWORD PTR ?current_flight_dynamics@@3PAUDYNAMICS_TYPE@@A ; current_flight_dynamics
  00625	f3 0f 10 05 00
	00 00 00	 movss	 xmm0, DWORD PTR __real@3f800000
  0062d	f3 0f 11 80 00
	22 00 00	 movss	 DWORD PTR [eax+8704], xmm0

; 262  : 	current_flight_dynamics->drag_z.modifier = 1.0;

  00635	a1 00 00 00 00	 mov	 eax, DWORD PTR ?current_flight_dynamics@@3PAUDYNAMICS_TYPE@@A ; current_flight_dynamics
  0063a	f3 0f 10 05 00
	00 00 00	 movss	 xmm0, DWORD PTR __real@3f800000
  00642	f3 0f 11 80 18
	22 00 00	 movss	 DWORD PTR [eax+8728], xmm0

; 263  : 	current_flight_dynamics->heading_inertia.modifier = 1.0;

  0064a	a1 00 00 00 00	 mov	 eax, DWORD PTR ?current_flight_dynamics@@3PAUDYNAMICS_TYPE@@A ; current_flight_dynamics
  0064f	f3 0f 10 05 00
	00 00 00	 movss	 xmm0, DWORD PTR __real@3f800000
  00657	f3 0f 11 80 30
	22 00 00	 movss	 DWORD PTR [eax+8752], xmm0

; 264  : 	current_flight_dynamics->pitch_inertia.modifier = 1.0;

  0065f	a1 00 00 00 00	 mov	 eax, DWORD PTR ?current_flight_dynamics@@3PAUDYNAMICS_TYPE@@A ; current_flight_dynamics
  00664	f3 0f 10 05 00
	00 00 00	 movss	 xmm0, DWORD PTR __real@3f800000
  0066c	f3 0f 11 80 48
	22 00 00	 movss	 DWORD PTR [eax+8776], xmm0

; 265  : 	current_flight_dynamics->roll_inertia.modifier = 1.0;

  00674	a1 00 00 00 00	 mov	 eax, DWORD PTR ?current_flight_dynamics@@3PAUDYNAMICS_TYPE@@A ; current_flight_dynamics
  00679	f3 0f 10 05 00
	00 00 00	 movss	 xmm0, DWORD PTR __real@3f800000
  00681	f3 0f 11 80 60
	22 00 00	 movss	 DWORD PTR [eax+8800], xmm0

; 266  : 	current_flight_dynamics->heading_moment.modifier = 1.0;

  00689	a1 00 00 00 00	 mov	 eax, DWORD PTR ?current_flight_dynamics@@3PAUDYNAMICS_TYPE@@A ; current_flight_dynamics
  0068e	f3 0f 10 05 00
	00 00 00	 movss	 xmm0, DWORD PTR __real@3f800000
  00696	f3 0f 11 80 78
	22 00 00	 movss	 DWORD PTR [eax+8824], xmm0

; 267  : 	current_flight_dynamics->pitch_moment.modifier = 1.0;

  0069e	a1 00 00 00 00	 mov	 eax, DWORD PTR ?current_flight_dynamics@@3PAUDYNAMICS_TYPE@@A ; current_flight_dynamics
  006a3	f3 0f 10 05 00
	00 00 00	 movss	 xmm0, DWORD PTR __real@3f800000
  006ab	f3 0f 11 80 90
	22 00 00	 movss	 DWORD PTR [eax+8848], xmm0

; 268  : 	current_flight_dynamics->roll_moment.modifier = 1.0;

  006b3	a1 00 00 00 00	 mov	 eax, DWORD PTR ?current_flight_dynamics@@3PAUDYNAMICS_TYPE@@A ; current_flight_dynamics
  006b8	f3 0f 10 05 00
	00 00 00	 movss	 xmm0, DWORD PTR __real@3f800000
  006c0	f3 0f 11 80 a8
	22 00 00	 movss	 DWORD PTR [eax+8872], xmm0

; 269  : 	current_flight_dynamics->heading_moment_reaction.modifier = 1.0;

  006c8	a1 00 00 00 00	 mov	 eax, DWORD PTR ?current_flight_dynamics@@3PAUDYNAMICS_TYPE@@A ; current_flight_dynamics
  006cd	f3 0f 10 05 00
	00 00 00	 movss	 xmm0, DWORD PTR __real@3f800000
  006d5	f3 0f 11 80 c0
	22 00 00	 movss	 DWORD PTR [eax+8896], xmm0

; 270  : 	current_flight_dynamics->pitch_moment_reaction.modifier = 1.0;

  006dd	a1 00 00 00 00	 mov	 eax, DWORD PTR ?current_flight_dynamics@@3PAUDYNAMICS_TYPE@@A ; current_flight_dynamics
  006e2	f3 0f 10 05 00
	00 00 00	 movss	 xmm0, DWORD PTR __real@3f800000
  006ea	f3 0f 11 80 d8
	22 00 00	 movss	 DWORD PTR [eax+8920], xmm0

; 271  : 	current_flight_dynamics->roll_moment_reaction.modifier = 1.0;

  006f2	a1 00 00 00 00	 mov	 eax, DWORD PTR ?current_flight_dynamics@@3PAUDYNAMICS_TYPE@@A ; current_flight_dynamics
  006f7	f3 0f 10 05 00
	00 00 00	 movss	 xmm0, DWORD PTR __real@3f800000
  006ff	f3 0f 11 80 f0
	22 00 00	 movss	 DWORD PTR [eax+8944], xmm0

; 272  : 	current_flight_dynamics->angular_heading_acceleration.modifier = 1.0;

  00707	a1 00 00 00 00	 mov	 eax, DWORD PTR ?current_flight_dynamics@@3PAUDYNAMICS_TYPE@@A ; current_flight_dynamics
  0070c	f3 0f 10 05 00
	00 00 00	 movss	 xmm0, DWORD PTR __real@3f800000
  00714	f3 0f 11 80 08
	23 00 00	 movss	 DWORD PTR [eax+8968], xmm0

; 273  : 	current_flight_dynamics->angular_pitch_acceleration.modifier = 1.0;

  0071c	a1 00 00 00 00	 mov	 eax, DWORD PTR ?current_flight_dynamics@@3PAUDYNAMICS_TYPE@@A ; current_flight_dynamics
  00721	f3 0f 10 05 00
	00 00 00	 movss	 xmm0, DWORD PTR __real@3f800000
  00729	f3 0f 11 80 20
	23 00 00	 movss	 DWORD PTR [eax+8992], xmm0

; 274  : 	current_flight_dynamics->angular_roll_acceleration.modifier = 1.0;

  00731	a1 00 00 00 00	 mov	 eax, DWORD PTR ?current_flight_dynamics@@3PAUDYNAMICS_TYPE@@A ; current_flight_dynamics
  00736	f3 0f 10 05 00
	00 00 00	 movss	 xmm0, DWORD PTR __real@3f800000
  0073e	f3 0f 11 80 38
	23 00 00	 movss	 DWORD PTR [eax+9016], xmm0

; 275  : 	current_flight_dynamics->angular_heading_velocity.modifier = 1.0;

  00746	a1 00 00 00 00	 mov	 eax, DWORD PTR ?current_flight_dynamics@@3PAUDYNAMICS_TYPE@@A ; current_flight_dynamics
  0074b	f3 0f 10 05 00
	00 00 00	 movss	 xmm0, DWORD PTR __real@3f800000
  00753	f3 0f 11 80 50
	23 00 00	 movss	 DWORD PTR [eax+9040], xmm0

; 276  : 	current_flight_dynamics->angular_pitch_velocity.modifier = 1.0;

  0075b	a1 00 00 00 00	 mov	 eax, DWORD PTR ?current_flight_dynamics@@3PAUDYNAMICS_TYPE@@A ; current_flight_dynamics
  00760	f3 0f 10 05 00
	00 00 00	 movss	 xmm0, DWORD PTR __real@3f800000
  00768	f3 0f 11 80 68
	23 00 00	 movss	 DWORD PTR [eax+9064], xmm0

; 277  : 	current_flight_dynamics->angular_roll_velocity.modifier = 1.0;

  00770	a1 00 00 00 00	 mov	 eax, DWORD PTR ?current_flight_dynamics@@3PAUDYNAMICS_TYPE@@A ; current_flight_dynamics
  00775	f3 0f 10 05 00
	00 00 00	 movss	 xmm0, DWORD PTR __real@3f800000
  0077d	f3 0f 11 80 80
	23 00 00	 movss	 DWORD PTR [eax+9088], xmm0

; 278  : 	current_flight_dynamics->landing_quality.modifier = 1.0;

  00785	a1 00 00 00 00	 mov	 eax, DWORD PTR ?current_flight_dynamics@@3PAUDYNAMICS_TYPE@@A ; current_flight_dynamics
  0078a	f3 0f 10 05 00
	00 00 00	 movss	 xmm0, DWORD PTR __real@3f800000
  00792	f3 0f 11 80 98
	23 00 00	 movss	 DWORD PTR [eax+9112], xmm0

; 279  : 	current_flight_dynamics->mass.modifier = 1.0;

  0079a	a1 00 00 00 00	 mov	 eax, DWORD PTR ?current_flight_dynamics@@3PAUDYNAMICS_TYPE@@A ; current_flight_dynamics
  0079f	f3 0f 10 05 00
	00 00 00	 movss	 xmm0, DWORD PTR __real@3f800000
  007a7	f3 0f 11 80 b0
	23 00 00	 movss	 DWORD PTR [eax+9136], xmm0

; 280  : 	current_flight_dynamics->weapon_mass.modifier = 1.0;

  007af	a1 00 00 00 00	 mov	 eax, DWORD PTR ?current_flight_dynamics@@3PAUDYNAMICS_TYPE@@A ; current_flight_dynamics
  007b4	f3 0f 10 05 00
	00 00 00	 movss	 xmm0, DWORD PTR __real@3f800000
  007bc	f3 0f 11 80 c8
	23 00 00	 movss	 DWORD PTR [eax+9160], xmm0

; 281  : 	current_flight_dynamics->ground_effect.modifier = 1.5;

  007c4	a1 00 00 00 00	 mov	 eax, DWORD PTR ?current_flight_dynamics@@3PAUDYNAMICS_TYPE@@A ; current_flight_dynamics
  007c9	f3 0f 10 05 00
	00 00 00	 movss	 xmm0, DWORD PTR __real@3fc00000
  007d1	f3 0f 11 80 e0
	23 00 00	 movss	 DWORD PTR [eax+9184], xmm0

; 282  : 	current_flight_dynamics->indicated_airspeed.modifier = 1.0;

  007d9	a1 00 00 00 00	 mov	 eax, DWORD PTR ?current_flight_dynamics@@3PAUDYNAMICS_TYPE@@A ; current_flight_dynamics
  007de	f3 0f 10 05 00
	00 00 00	 movss	 xmm0, DWORD PTR __real@3f800000
  007e6	f3 0f 11 80 f8
	23 00 00	 movss	 DWORD PTR [eax+9208], xmm0

; 283  : 	current_flight_dynamics->indicated_slip.modifier = 1.0;

  007ee	a1 00 00 00 00	 mov	 eax, DWORD PTR ?current_flight_dynamics@@3PAUDYNAMICS_TYPE@@A ; current_flight_dynamics
  007f3	f3 0f 10 05 00
	00 00 00	 movss	 xmm0, DWORD PTR __real@3f800000
  007fb	f3 0f 11 80 10
	24 00 00	 movss	 DWORD PTR [eax+9232], xmm0

; 284  : 	current_flight_dynamics->barometric_altitude.modifier = 1.0;

  00803	a1 00 00 00 00	 mov	 eax, DWORD PTR ?current_flight_dynamics@@3PAUDYNAMICS_TYPE@@A ; current_flight_dynamics
  00808	f3 0f 10 05 00
	00 00 00	 movss	 xmm0, DWORD PTR __real@3f800000
  00810	f3 0f 11 80 28
	24 00 00	 movss	 DWORD PTR [eax+9256], xmm0

; 285  : 	current_flight_dynamics->radar_altitude.modifier = 1.0;

  00818	a1 00 00 00 00	 mov	 eax, DWORD PTR ?current_flight_dynamics@@3PAUDYNAMICS_TYPE@@A ; current_flight_dynamics
  0081d	f3 0f 10 05 00
	00 00 00	 movss	 xmm0, DWORD PTR __real@3f800000
  00825	f3 0f 11 80 40
	24 00 00	 movss	 DWORD PTR [eax+9280], xmm0

; 286  : 	current_flight_dynamics->g_force.modifier = 1.0;

  0082d	a1 00 00 00 00	 mov	 eax, DWORD PTR ?current_flight_dynamics@@3PAUDYNAMICS_TYPE@@A ; current_flight_dynamics
  00832	f3 0f 10 05 00
	00 00 00	 movss	 xmm0, DWORD PTR __real@3f800000
  0083a	f3 0f 11 80 58
	24 00 00	 movss	 DWORD PTR [eax+9304], xmm0

; 287  : 	current_flight_dynamics->combined_engine_rpm.modifier = 1.0;

  00842	a1 00 00 00 00	 mov	 eax, DWORD PTR ?current_flight_dynamics@@3PAUDYNAMICS_TYPE@@A ; current_flight_dynamics
  00847	f3 0f 10 05 00
	00 00 00	 movss	 xmm0, DWORD PTR __real@3f800000
  0084f	f3 0f 11 80 70
	24 00 00	 movss	 DWORD PTR [eax+9328], xmm0

; 288  : 	current_flight_dynamics->combined_engine_torque.modifier = 1.0;

  00857	a1 00 00 00 00	 mov	 eax, DWORD PTR ?current_flight_dynamics@@3PAUDYNAMICS_TYPE@@A ; current_flight_dynamics
  0085c	f3 0f 10 05 00
	00 00 00	 movss	 xmm0, DWORD PTR __real@3f800000
  00864	f3 0f 11 80 88
	24 00 00	 movss	 DWORD PTR [eax+9352], xmm0

; 289  : 	current_flight_dynamics->fuel_weight.modifier = 1.0;

  0086c	a1 00 00 00 00	 mov	 eax, DWORD PTR ?current_flight_dynamics@@3PAUDYNAMICS_TYPE@@A ; current_flight_dynamics
  00871	f3 0f 10 05 00
	00 00 00	 movss	 xmm0, DWORD PTR __real@3f800000
  00879	f3 0f 11 80 a0
	24 00 00	 movss	 DWORD PTR [eax+9376], xmm0

; 290  : 
; 291  : 	//
; 292  : 
; 293  : 	get_local_entity_vec3d (get_gunship_entity (), VEC3D_TYPE_POSITION, &position);

  00881	83 3d 00 00 00
	00 00		 cmp	 DWORD PTR ?gunship_entity@@3PAUENTITY@@A, 0 ; gunship_entity
  00888	74 0c		 je	 SHORT $LN8@set_dynami
  0088a	a1 00 00 00 00	 mov	 eax, DWORD PTR ?gunship_entity@@3PAUENTITY@@A ; gunship_entity
  0088f	8b 08		 mov	 ecx, DWORD PTR [eax]
  00891	89 4d 98	 mov	 DWORD PTR tv339[ebp], ecx
  00894	eb 24		 jmp	 SHORT $LN9@set_dynami
$LN8@set_dynami:
  00896	8b 15 00 00 00
	00		 mov	 edx, DWORD PTR ?__LINE__Var@?0??set_dynamics_defaults@@YGXPAUENTITY@@@Z@4JA
  0089c	81 c2 94 00 00
	00		 add	 edx, 148		; 00000094H
  008a2	52		 push	 edx
  008a3	68 00 00 00 00	 push	 OFFSET ??_C@_0EN@OILCBPIN@c?3?2users?2nhv90?2projects?2eech?2ap@
  008a8	a1 00 00 00 00	 mov	 eax, DWORD PTR ?null_entity_pointer_message@@3PBDB ; null_entity_pointer_message
  008ad	50		 push	 eax
  008ae	e8 00 00 00 00	 call	 ?process_assert@@YGXPBD0H@Z ; process_assert
  008b3	c7 45 98 00 00
	00 00		 mov	 DWORD PTR tv339[ebp], 0
$LN9@set_dynami:
  008ba	b9 01 00 00 00	 mov	 ecx, 1
  008bf	85 c9		 test	 ecx, ecx
  008c1	74 09		 je	 SHORT $LN10@set_dynami
  008c3	c7 45 94 08 00
	00 00		 mov	 DWORD PTR tv347[ebp], 8
  008ca	eb 24		 jmp	 SHORT $LN11@set_dynami
$LN10@set_dynami:
  008cc	8b 15 00 00 00
	00		 mov	 edx, DWORD PTR ?__LINE__Var@?0??set_dynamics_defaults@@YGXPAUENTITY@@@Z@4JA
  008d2	81 c2 94 00 00
	00		 add	 edx, 148		; 00000094H
  008d8	52		 push	 edx
  008d9	68 00 00 00 00	 push	 OFFSET ??_C@_0EN@OILCBPIN@c?3?2users?2nhv90?2projects?2eech?2ap@
  008de	a1 00 00 00 00	 mov	 eax, DWORD PTR ?overload_invalid_vec3d_type_message@@3PBDB ; overload_invalid_vec3d_type_message
  008e3	50		 push	 eax
  008e4	e8 00 00 00 00	 call	 ?process_assert@@YGXPBD0H@Z ; process_assert
  008e9	c7 45 94 00 00
	00 00		 mov	 DWORD PTR tv347[ebp], 0
$LN11@set_dynami:
  008f0	8d 4d f4	 lea	 ecx, DWORD PTR _position$[ebp]
  008f3	51		 push	 ecx
  008f4	6a 08		 push	 8
  008f6	8b 15 00 00 00
	00		 mov	 edx, DWORD PTR ?gunship_entity@@3PAUENTITY@@A ; gunship_entity
  008fc	52		 push	 edx
  008fd	6b 45 98 60	 imul	 eax, DWORD PTR tv339[ebp], 96
  00901	8b 4d 94	 mov	 ecx, DWORD PTR tv347[ebp]
  00904	8b 94 88 00 00
	00 00		 mov	 edx, DWORD PTR ?fn_get_local_entity_vec3d@@3PAY0BI@P6GXPAUENTITY@@W4VEC3D_TYPES@@PAUVEC3D@@@ZA[eax+ecx*4]
  0090b	ff d2		 call	 edx

; 294  : 
; 295  : 	current_flight_dynamics->dynamics_damage = DYNAMICS_DAMAGE_NONE;

  0090d	a1 00 00 00 00	 mov	 eax, DWORD PTR ?current_flight_dynamics@@3PAUDYNAMICS_TYPE@@A ; current_flight_dynamics
  00912	c7 80 24 25 00
	00 01 00 00 00	 mov	 DWORD PTR [eax+9508], 1

; 296  : 	current_flight_dynamics->repairing_damage = DYNAMICS_DAMAGE_NONE;

  0091c	a1 00 00 00 00	 mov	 eax, DWORD PTR ?current_flight_dynamics@@3PAUDYNAMICS_TYPE@@A ; current_flight_dynamics
  00921	c7 80 20 25 00
	00 01 00 00 00	 mov	 DWORD PTR [eax+9504], 1

; 297  : 
; 298  : 	// input values
; 299  : 
; 300  : 	current_flight_dynamics->input_data.collective.value = 0.0;

  0092b	a1 00 00 00 00	 mov	 eax, DWORD PTR ?current_flight_dynamics@@3PAUDYNAMICS_TYPE@@A ; current_flight_dynamics
  00930	0f 57 c0	 xorps	 xmm0, xmm0
  00933	f3 0f 11 80 a8
	1b 00 00	 movss	 DWORD PTR [eax+7080], xmm0

; 301  : 	current_flight_dynamics->input_data.collective.min = 0.0;

  0093b	a1 00 00 00 00	 mov	 eax, DWORD PTR ?current_flight_dynamics@@3PAUDYNAMICS_TYPE@@A ; current_flight_dynamics
  00940	0f 57 c0	 xorps	 xmm0, xmm0
  00943	f3 0f 11 80 b0
	1b 00 00	 movss	 DWORD PTR [eax+7088], xmm0

; 302  : 	current_flight_dynamics->input_data.collective.max = 120;

  0094b	a1 00 00 00 00	 mov	 eax, DWORD PTR ?current_flight_dynamics@@3PAUDYNAMICS_TYPE@@A ; current_flight_dynamics
  00950	f3 0f 10 05 00
	00 00 00	 movss	 xmm0, DWORD PTR __real@42f00000
  00958	f3 0f 11 80 b4
	1b 00 00	 movss	 DWORD PTR [eax+7092], xmm0

; 303  : 
; 304  : 	current_flight_dynamics->input_data.cyclic_x_trim.value = 0.0;

  00960	a1 00 00 00 00	 mov	 eax, DWORD PTR ?current_flight_dynamics@@3PAUDYNAMICS_TYPE@@A ; current_flight_dynamics
  00965	0f 57 c0	 xorps	 xmm0, xmm0
  00968	f3 0f 11 80 28
	01 00 00	 movss	 DWORD PTR [eax+296], xmm0

; 305  : 	current_flight_dynamics->input_data.cyclic_y_trim.value = 6.0;

  00970	a1 00 00 00 00	 mov	 eax, DWORD PTR ?current_flight_dynamics@@3PAUDYNAMICS_TYPE@@A ; current_flight_dynamics
  00975	f3 0f 10 05 00
	00 00 00	 movss	 xmm0, DWORD PTR __real@40c00000
  0097d	f3 0f 11 80 40
	01 00 00	 movss	 DWORD PTR [eax+320], xmm0

; 306  : 
; 307  : 	current_flight_dynamics->input_data.cyclic_x.min = -100.0;

  00985	a1 00 00 00 00	 mov	 eax, DWORD PTR ?current_flight_dynamics@@3PAUDYNAMICS_TYPE@@A ; current_flight_dynamics
  0098a	f3 0f 10 05 00
	00 00 00	 movss	 xmm0, DWORD PTR __real@c2c80000
  00992	f3 0f 11 80 00
	01 00 00	 movss	 DWORD PTR [eax+256], xmm0

; 308  : 	current_flight_dynamics->input_data.cyclic_x.max = 100.0;

  0099a	a1 00 00 00 00	 mov	 eax, DWORD PTR ?current_flight_dynamics@@3PAUDYNAMICS_TYPE@@A ; current_flight_dynamics
  0099f	f3 0f 10 05 00
	00 00 00	 movss	 xmm0, DWORD PTR __real@42c80000
  009a7	f3 0f 11 80 04
	01 00 00	 movss	 DWORD PTR [eax+260], xmm0

; 309  : 
; 310  : 	current_flight_dynamics->input_data.cyclic_y.min = -100.0;

  009af	a1 00 00 00 00	 mov	 eax, DWORD PTR ?current_flight_dynamics@@3PAUDYNAMICS_TYPE@@A ; current_flight_dynamics
  009b4	f3 0f 10 05 00
	00 00 00	 movss	 xmm0, DWORD PTR __real@c2c80000
  009bc	f3 0f 11 80 18
	01 00 00	 movss	 DWORD PTR [eax+280], xmm0

; 311  : 	current_flight_dynamics->input_data.cyclic_y.max = 100.0;

  009c4	a1 00 00 00 00	 mov	 eax, DWORD PTR ?current_flight_dynamics@@3PAUDYNAMICS_TYPE@@A ; current_flight_dynamics
  009c9	f3 0f 10 05 00
	00 00 00	 movss	 xmm0, DWORD PTR __real@42c80000
  009d1	f3 0f 11 80 1c
	01 00 00	 movss	 DWORD PTR [eax+284], xmm0

; 312  : 
; 313  : 	current_flight_dynamics->input_data.cyclic_horizontal_pressure.min = -100.0;

  009d9	a1 00 00 00 00	 mov	 eax, DWORD PTR ?current_flight_dynamics@@3PAUDYNAMICS_TYPE@@A ; current_flight_dynamics
  009de	f3 0f 10 05 00
	00 00 00	 movss	 xmm0, DWORD PTR __real@c2c80000
  009e6	f3 0f 11 80 78
	01 00 00	 movss	 DWORD PTR [eax+376], xmm0

; 314  : 	current_flight_dynamics->input_data.cyclic_horizontal_pressure.max = 100.0;

  009ee	a1 00 00 00 00	 mov	 eax, DWORD PTR ?current_flight_dynamics@@3PAUDYNAMICS_TYPE@@A ; current_flight_dynamics
  009f3	f3 0f 10 05 00
	00 00 00	 movss	 xmm0, DWORD PTR __real@42c80000
  009fb	f3 0f 11 80 7c
	01 00 00	 movss	 DWORD PTR [eax+380], xmm0

; 315  : 
; 316  : 	current_flight_dynamics->input_data.cyclic_vertical_pressure.min = -100.0;

  00a03	a1 00 00 00 00	 mov	 eax, DWORD PTR ?current_flight_dynamics@@3PAUDYNAMICS_TYPE@@A ; current_flight_dynamics
  00a08	f3 0f 10 05 00
	00 00 00	 movss	 xmm0, DWORD PTR __real@c2c80000
  00a10	f3 0f 11 80 60
	01 00 00	 movss	 DWORD PTR [eax+352], xmm0

; 317  : 	current_flight_dynamics->input_data.cyclic_vertical_pressure.max = 100.0;

  00a18	a1 00 00 00 00	 mov	 eax, DWORD PTR ?current_flight_dynamics@@3PAUDYNAMICS_TYPE@@A ; current_flight_dynamics
  00a1d	f3 0f 10 05 00
	00 00 00	 movss	 xmm0, DWORD PTR __real@42c80000
  00a25	f3 0f 11 80 64
	01 00 00	 movss	 DWORD PTR [eax+356], xmm0

; 318  : 
; 319  : 	current_flight_dynamics->input_data.collective_pressure.min = -5.0;

  00a2d	a1 00 00 00 00	 mov	 eax, DWORD PTR ?current_flight_dynamics@@3PAUDYNAMICS_TYPE@@A ; current_flight_dynamics
  00a32	f3 0f 10 05 00
	00 00 00	 movss	 xmm0, DWORD PTR __real@c0a00000
  00a3a	f3 0f 11 80 c8
	1b 00 00	 movss	 DWORD PTR [eax+7112], xmm0

; 320  : 	current_flight_dynamics->input_data.collective_pressure.max = 5.0;

  00a42	a1 00 00 00 00	 mov	 eax, DWORD PTR ?current_flight_dynamics@@3PAUDYNAMICS_TYPE@@A ; current_flight_dynamics
  00a47	f3 0f 10 05 00
	00 00 00	 movss	 xmm0, DWORD PTR __real@40a00000
  00a4f	f3 0f 11 80 cc
	1b 00 00	 movss	 DWORD PTR [eax+7116], xmm0

; 321  : 
; 322  : 	current_flight_dynamics->input_data.pedal.min = -100.0;

  00a57	a1 00 00 00 00	 mov	 eax, DWORD PTR ?current_flight_dynamics@@3PAUDYNAMICS_TYPE@@A ; current_flight_dynamics
  00a5c	f3 0f 10 05 00
	00 00 00	 movss	 xmm0, DWORD PTR __real@c2c80000
  00a64	f3 0f 11 80 e4
	1b 00 00	 movss	 DWORD PTR [eax+7140], xmm0

; 323  : 	current_flight_dynamics->input_data.pedal.max = 100.0;

  00a6c	a1 00 00 00 00	 mov	 eax, DWORD PTR ?current_flight_dynamics@@3PAUDYNAMICS_TYPE@@A ; current_flight_dynamics
  00a71	f3 0f 10 05 00
	00 00 00	 movss	 xmm0, DWORD PTR __real@42c80000
  00a79	f3 0f 11 80 e8
	1b 00 00	 movss	 DWORD PTR [eax+7144], xmm0

; 324  : 
; 325  : 	current_flight_dynamics->input_data.pedal_pressure.min = -10.0;

  00a81	a1 00 00 00 00	 mov	 eax, DWORD PTR ?current_flight_dynamics@@3PAUDYNAMICS_TYPE@@A ; current_flight_dynamics
  00a86	f3 0f 10 05 00
	00 00 00	 movss	 xmm0, DWORD PTR __real@c1200000
  00a8e	f3 0f 11 80 14
	1c 00 00	 movss	 DWORD PTR [eax+7188], xmm0

; 326  : 	current_flight_dynamics->input_data.pedal_pressure.max = 10.0;

  00a96	a1 00 00 00 00	 mov	 eax, DWORD PTR ?current_flight_dynamics@@3PAUDYNAMICS_TYPE@@A ; current_flight_dynamics
  00a9b	f3 0f 10 05 00
	00 00 00	 movss	 xmm0, DWORD PTR __real@41200000
  00aa3	f3 0f 11 80 18
	1c 00 00	 movss	 DWORD PTR [eax+7192], xmm0

; 327  : 
; 328  : 	// general
; 329  : 
; 330  : 	current_flight_dynamics->undercarriage_state.damaged = FALSE;

  00aab	33 c0		 xor	 eax, eax
  00aad	8b 0d 00 00 00
	00		 mov	 ecx, DWORD PTR ?current_flight_dynamics@@3PAUDYNAMICS_TYPE@@A ; current_flight_dynamics
  00ab3	66 89 81 74 1c
	00 00		 mov	 WORD PTR [ecx+7284], ax

; 331  : 	current_flight_dynamics->undercarriage_state.value = 1.0;

  00aba	a1 00 00 00 00	 mov	 eax, DWORD PTR ?current_flight_dynamics@@3PAUDYNAMICS_TYPE@@A ; current_flight_dynamics
  00abf	f3 0f 10 05 00
	00 00 00	 movss	 xmm0, DWORD PTR __real@3f800000
  00ac7	f3 0f 11 80 64
	1c 00 00	 movss	 DWORD PTR [eax+7268], xmm0

; 332  : 	current_flight_dynamics->undercarriage_state.min = 0.0;

  00acf	a1 00 00 00 00	 mov	 eax, DWORD PTR ?current_flight_dynamics@@3PAUDYNAMICS_TYPE@@A ; current_flight_dynamics
  00ad4	0f 57 c0	 xorps	 xmm0, xmm0
  00ad7	f3 0f 11 80 6c
	1c 00 00	 movss	 DWORD PTR [eax+7276], xmm0

; 333  : 	current_flight_dynamics->undercarriage_state.max = 1.0;

  00adf	a1 00 00 00 00	 mov	 eax, DWORD PTR ?current_flight_dynamics@@3PAUDYNAMICS_TYPE@@A ; current_flight_dynamics
  00ae4	f3 0f 10 05 00
	00 00 00	 movss	 xmm0, DWORD PTR __real@3f800000
  00aec	f3 0f 11 80 70
	1c 00 00	 movss	 DWORD PTR [eax+7280], xmm0

; 334  : 
; 335  : 	current_flight_dynamics->repairing = TRUE;

  00af4	a1 00 00 00 00	 mov	 eax, DWORD PTR ?current_flight_dynamics@@3PAUDYNAMICS_TYPE@@A ; current_flight_dynamics
  00af9	8b 88 28 25 00
	00		 mov	 ecx, DWORD PTR [eax+9512]
  00aff	83 c9 08	 or	 ecx, 8
  00b02	8b 15 00 00 00
	00		 mov	 edx, DWORD PTR ?current_flight_dynamics@@3PAUDYNAMICS_TYPE@@A ; current_flight_dynamics
  00b08	89 8a 28 25 00
	00		 mov	 DWORD PTR [edx+9512], ecx

; 336  : 	current_flight_dynamics->refuelling = TRUE;

  00b0e	a1 00 00 00 00	 mov	 eax, DWORD PTR ?current_flight_dynamics@@3PAUDYNAMICS_TYPE@@A ; current_flight_dynamics
  00b13	8b 88 28 25 00
	00		 mov	 ecx, DWORD PTR [eax+9512]
  00b19	83 c9 04	 or	 ecx, 4
  00b1c	8b 15 00 00 00
	00		 mov	 edx, DWORD PTR ?current_flight_dynamics@@3PAUDYNAMICS_TYPE@@A ; current_flight_dynamics
  00b22	89 8a 28 25 00
	00		 mov	 DWORD PTR [edx+9512], ecx

; 337  : 
; 338  : 	current_flight_dynamics->position.x = position.x;

  00b28	f3 0f 5a 45 f4	 cvtss2sd xmm0, DWORD PTR _position$[ebp]
  00b2d	a1 00 00 00 00	 mov	 eax, DWORD PTR ?current_flight_dynamics@@3PAUDYNAMICS_TYPE@@A ; current_flight_dynamics
  00b32	f2 0f 11 80 ac
	00 00 00	 movsd	 QWORD PTR [eax+172], xmm0

; 339  : 	current_flight_dynamics->position.y = position.y;

  00b3a	f3 0f 5a 45 f8	 cvtss2sd xmm0, DWORD PTR _position$[ebp+4]
  00b3f	a1 00 00 00 00	 mov	 eax, DWORD PTR ?current_flight_dynamics@@3PAUDYNAMICS_TYPE@@A ; current_flight_dynamics
  00b44	f2 0f 11 80 b4
	00 00 00	 movsd	 QWORD PTR [eax+180], xmm0

; 340  : 	current_flight_dynamics->position.z = position.z;

  00b4c	f3 0f 5a 45 fc	 cvtss2sd xmm0, DWORD PTR _position$[ebp+8]
  00b51	a1 00 00 00 00	 mov	 eax, DWORD PTR ?current_flight_dynamics@@3PAUDYNAMICS_TYPE@@A ; current_flight_dynamics
  00b56	f2 0f 11 80 bc
	00 00 00	 movsd	 QWORD PTR [eax+188], xmm0

; 341  : 
; 342  : 	// attitutde
; 343  : 
; 344  : 	get_identity_matrix3x3 (current_flight_dynamics->attitude);

  00b5e	a1 00 00 00 00	 mov	 eax, DWORD PTR ?current_flight_dynamics@@3PAUDYNAMICS_TYPE@@A ; current_flight_dynamics
  00b63	05 d0 00 00 00	 add	 eax, 208		; 000000d0H
  00b68	50		 push	 eax
  00b69	e8 00 00 00 00	 call	 ?get_identity_matrix3x3@@YGXQAY02M@Z ; get_identity_matrix3x3

; 345  : 
; 346  : 	current_flight_dynamics->roll.min = rad (-360.0);

  00b6e	a1 00 00 00 00	 mov	 eax, DWORD PTR ?current_flight_dynamics@@3PAUDYNAMICS_TYPE@@A ; current_flight_dynamics
  00b73	f3 0f 10 05 00
	00 00 00	 movss	 xmm0, DWORD PTR __real@c0c90fdb
  00b7b	f3 0f 11 80 7c
	21 00 00	 movss	 DWORD PTR [eax+8572], xmm0

; 347  : 	current_flight_dynamics->roll.max = rad (360.0);

  00b83	a1 00 00 00 00	 mov	 eax, DWORD PTR ?current_flight_dynamics@@3PAUDYNAMICS_TYPE@@A ; current_flight_dynamics
  00b88	f3 0f 10 05 00
	00 00 00	 movss	 xmm0, DWORD PTR __real@40c90fdb
  00b90	f3 0f 11 80 80
	21 00 00	 movss	 DWORD PTR [eax+8576], xmm0

; 348  : 
; 349  : 	current_flight_dynamics->pitch.min = rad (-360.0);

  00b98	a1 00 00 00 00	 mov	 eax, DWORD PTR ?current_flight_dynamics@@3PAUDYNAMICS_TYPE@@A ; current_flight_dynamics
  00b9d	f3 0f 10 05 00
	00 00 00	 movss	 xmm0, DWORD PTR __real@c0c90fdb
  00ba5	f3 0f 11 80 64
	21 00 00	 movss	 DWORD PTR [eax+8548], xmm0

; 350  : 	current_flight_dynamics->pitch.max = rad (360.0);

  00bad	a1 00 00 00 00	 mov	 eax, DWORD PTR ?current_flight_dynamics@@3PAUDYNAMICS_TYPE@@A ; current_flight_dynamics
  00bb2	f3 0f 10 05 00
	00 00 00	 movss	 xmm0, DWORD PTR __real@40c90fdb
  00bba	f3 0f 11 80 68
	21 00 00	 movss	 DWORD PTR [eax+8552], xmm0

; 351  : 
; 352  : 	current_flight_dynamics->air_density.value = 1.0;

  00bc2	a1 00 00 00 00	 mov	 eax, DWORD PTR ?current_flight_dynamics@@3PAUDYNAMICS_TYPE@@A ; current_flight_dynamics
  00bc7	f3 0f 10 05 00
	00 00 00	 movss	 xmm0, DWORD PTR __real@3f800000
  00bcf	f3 0f 11 80 44
	21 00 00	 movss	 DWORD PTR [eax+8516], xmm0

; 353  : 	current_flight_dynamics->air_density.max = 1.0;

  00bd7	a1 00 00 00 00	 mov	 eax, DWORD PTR ?current_flight_dynamics@@3PAUDYNAMICS_TYPE@@A ; current_flight_dynamics
  00bdc	f3 0f 10 05 00
	00 00 00	 movss	 xmm0, DWORD PTR __real@3f800000
  00be4	f3 0f 11 80 50
	21 00 00	 movss	 DWORD PTR [eax+8528], xmm0

; 354  : 	current_flight_dynamics->air_density.min = 0.0;

  00bec	a1 00 00 00 00	 mov	 eax, DWORD PTR ?current_flight_dynamics@@3PAUDYNAMICS_TYPE@@A ; current_flight_dynamics
  00bf1	0f 57 c0	 xorps	 xmm0, xmm0
  00bf4	f3 0f 11 80 4c
	21 00 00	 movss	 DWORD PTR [eax+8524], xmm0

; 355  : 
; 356  : 	current_flight_dynamics->altitude.min = 0.0;

  00bfc	a1 00 00 00 00	 mov	 eax, DWORD PTR ?current_flight_dynamics@@3PAUDYNAMICS_TYPE@@A ; current_flight_dynamics
  00c01	0f 57 c0	 xorps	 xmm0, xmm0
  00c04	f3 0f 11 80 dc
	21 00 00	 movss	 DWORD PTR [eax+8668], xmm0

; 357  : 	current_flight_dynamics->altitude.max = 20000.0;

  00c0c	a1 00 00 00 00	 mov	 eax, DWORD PTR ?current_flight_dynamics@@3PAUDYNAMICS_TYPE@@A ; current_flight_dynamics
  00c11	f3 0f 10 05 00
	00 00 00	 movss	 xmm0, DWORD PTR __real@469c4000
  00c19	f3 0f 11 80 e0
	21 00 00	 movss	 DWORD PTR [eax+8672], xmm0

; 358  : 
; 359  : 	// engine characteristics
; 360  : 	current_flight_dynamics->apu_rpm.value = 0.0;

  00c21	a1 00 00 00 00	 mov	 eax, DWORD PTR ?current_flight_dynamics@@3PAUDYNAMICS_TYPE@@A ; current_flight_dynamics
  00c26	0f 57 c0	 xorps	 xmm0, xmm0
  00c29	f3 0f 11 80 3c
	1d 00 00	 movss	 DWORD PTR [eax+7484], xmm0

; 361  : 	current_flight_dynamics->apu_rpm.min = 0.0;

  00c31	a1 00 00 00 00	 mov	 eax, DWORD PTR ?current_flight_dynamics@@3PAUDYNAMICS_TYPE@@A ; current_flight_dynamics
  00c36	0f 57 c0	 xorps	 xmm0, xmm0
  00c39	f3 0f 11 80 44
	1d 00 00	 movss	 DWORD PTR [eax+7492], xmm0

; 362  : 	current_flight_dynamics->apu_rpm.max = 0.0;

  00c41	a1 00 00 00 00	 mov	 eax, DWORD PTR ?current_flight_dynamics@@3PAUDYNAMICS_TYPE@@A ; current_flight_dynamics
  00c46	0f 57 c0	 xorps	 xmm0, xmm0
  00c49	f3 0f 11 80 48
	1d 00 00	 movss	 DWORD PTR [eax+7496], xmm0

; 363  : 	current_flight_dynamics->apu_rpm.damaged = FALSE;

  00c51	33 c0		 xor	 eax, eax
  00c53	8b 0d 00 00 00
	00		 mov	 ecx, DWORD PTR ?current_flight_dynamics@@3PAUDYNAMICS_TYPE@@A ; current_flight_dynamics
  00c59	66 89 81 4c 1d
	00 00		 mov	 WORD PTR [ecx+7500], ax

; 364  : 
; 365  : 	current_flight_dynamics->left_engine_rpm.value = 0.0;

  00c60	a1 00 00 00 00	 mov	 eax, DWORD PTR ?current_flight_dynamics@@3PAUDYNAMICS_TYPE@@A ; current_flight_dynamics
  00c65	0f 57 c0	 xorps	 xmm0, xmm0
  00c68	f3 0f 11 80 7c
	1c 00 00	 movss	 DWORD PTR [eax+7292], xmm0

; 366  : 	current_flight_dynamics->left_engine_rpm.max = 100.0;  // engine is always trying for 100% N2 RPM

  00c70	a1 00 00 00 00	 mov	 eax, DWORD PTR ?current_flight_dynamics@@3PAUDYNAMICS_TYPE@@A ; current_flight_dynamics
  00c75	f3 0f 10 05 00
	00 00 00	 movss	 xmm0, DWORD PTR __real@42c80000
  00c7d	f3 0f 11 80 88
	1c 00 00	 movss	 DWORD PTR [eax+7304], xmm0

; 367  : 	current_flight_dynamics->left_engine_n1_rpm.value = 0.0;

  00c85	a1 00 00 00 00	 mov	 eax, DWORD PTR ?current_flight_dynamics@@3PAUDYNAMICS_TYPE@@A ; current_flight_dynamics
  00c8a	0f 57 c0	 xorps	 xmm0, xmm0
  00c8d	f3 0f 11 80 94
	1c 00 00	 movss	 DWORD PTR [eax+7316], xmm0

; 368  : 	current_flight_dynamics->left_engine_n1_rpm.max = 100.0;

  00c95	a1 00 00 00 00	 mov	 eax, DWORD PTR ?current_flight_dynamics@@3PAUDYNAMICS_TYPE@@A ; current_flight_dynamics
  00c9a	f3 0f 10 05 00
	00 00 00	 movss	 xmm0, DWORD PTR __real@42c80000
  00ca2	f3 0f 11 80 a0
	1c 00 00	 movss	 DWORD PTR [eax+7328], xmm0

; 369  : 	current_flight_dynamics->left_engine_torque.value = 0.0;

  00caa	a1 00 00 00 00	 mov	 eax, DWORD PTR ?current_flight_dynamics@@3PAUDYNAMICS_TYPE@@A ; current_flight_dynamics
  00caf	0f 57 c0	 xorps	 xmm0, xmm0
  00cb2	f3 0f 11 80 ac
	1c 00 00	 movss	 DWORD PTR [eax+7340], xmm0

; 370  : 	current_flight_dynamics->left_engine_torque.max = 120.0;

  00cba	a1 00 00 00 00	 mov	 eax, DWORD PTR ?current_flight_dynamics@@3PAUDYNAMICS_TYPE@@A ; current_flight_dynamics
  00cbf	f3 0f 10 05 00
	00 00 00	 movss	 xmm0, DWORD PTR __real@42f00000
  00cc7	f3 0f 11 80 b8
	1c 00 00	 movss	 DWORD PTR [eax+7352], xmm0

; 371  : 
; 372  : 	current_flight_dynamics->left_engine_temp.value = 800.0;

  00ccf	a1 00 00 00 00	 mov	 eax, DWORD PTR ?current_flight_dynamics@@3PAUDYNAMICS_TYPE@@A ; current_flight_dynamics
  00cd4	f3 0f 10 05 00
	00 00 00	 movss	 xmm0, DWORD PTR __real@44480000
  00cdc	f3 0f 11 80 c4
	1c 00 00	 movss	 DWORD PTR [eax+7364], xmm0

; 373  : 	current_flight_dynamics->left_engine_temp.max = 1000.0;

  00ce4	a1 00 00 00 00	 mov	 eax, DWORD PTR ?current_flight_dynamics@@3PAUDYNAMICS_TYPE@@A ; current_flight_dynamics
  00ce9	f3 0f 10 05 00
	00 00 00	 movss	 xmm0, DWORD PTR __real@447a0000
  00cf1	f3 0f 11 80 d0
	1c 00 00	 movss	 DWORD PTR [eax+7376], xmm0

; 374  : 
; 375  : 	current_flight_dynamics->right_engine_rpm.value = 0.0;

  00cf9	a1 00 00 00 00	 mov	 eax, DWORD PTR ?current_flight_dynamics@@3PAUDYNAMICS_TYPE@@A ; current_flight_dynamics
  00cfe	0f 57 c0	 xorps	 xmm0, xmm0
  00d01	f3 0f 11 80 dc
	1c 00 00	 movss	 DWORD PTR [eax+7388], xmm0

; 376  : 	current_flight_dynamics->right_engine_rpm.max = 100.0;

  00d09	a1 00 00 00 00	 mov	 eax, DWORD PTR ?current_flight_dynamics@@3PAUDYNAMICS_TYPE@@A ; current_flight_dynamics
  00d0e	f3 0f 10 05 00
	00 00 00	 movss	 xmm0, DWORD PTR __real@42c80000
  00d16	f3 0f 11 80 e8
	1c 00 00	 movss	 DWORD PTR [eax+7400], xmm0

; 377  : 	current_flight_dynamics->right_engine_n1_rpm.value = 0.0;

  00d1e	a1 00 00 00 00	 mov	 eax, DWORD PTR ?current_flight_dynamics@@3PAUDYNAMICS_TYPE@@A ; current_flight_dynamics
  00d23	0f 57 c0	 xorps	 xmm0, xmm0
  00d26	f3 0f 11 80 f4
	1c 00 00	 movss	 DWORD PTR [eax+7412], xmm0

; 378  : 	current_flight_dynamics->right_engine_n1_rpm.max = 100.0;

  00d2e	a1 00 00 00 00	 mov	 eax, DWORD PTR ?current_flight_dynamics@@3PAUDYNAMICS_TYPE@@A ; current_flight_dynamics
  00d33	f3 0f 10 05 00
	00 00 00	 movss	 xmm0, DWORD PTR __real@42c80000
  00d3b	f3 0f 11 80 00
	1d 00 00	 movss	 DWORD PTR [eax+7424], xmm0

; 379  : 	current_flight_dynamics->right_engine_torque.value = 0.0;

  00d43	a1 00 00 00 00	 mov	 eax, DWORD PTR ?current_flight_dynamics@@3PAUDYNAMICS_TYPE@@A ; current_flight_dynamics
  00d48	0f 57 c0	 xorps	 xmm0, xmm0
  00d4b	f3 0f 11 80 0c
	1d 00 00	 movss	 DWORD PTR [eax+7436], xmm0

; 380  : 	current_flight_dynamics->right_engine_torque.max = 120.0;

  00d53	a1 00 00 00 00	 mov	 eax, DWORD PTR ?current_flight_dynamics@@3PAUDYNAMICS_TYPE@@A ; current_flight_dynamics
  00d58	f3 0f 10 05 00
	00 00 00	 movss	 xmm0, DWORD PTR __real@42f00000
  00d60	f3 0f 11 80 18
	1d 00 00	 movss	 DWORD PTR [eax+7448], xmm0

; 381  : 
; 382  : 	current_flight_dynamics->right_engine_temp.value = 800.0;

  00d68	a1 00 00 00 00	 mov	 eax, DWORD PTR ?current_flight_dynamics@@3PAUDYNAMICS_TYPE@@A ; current_flight_dynamics
  00d6d	f3 0f 10 05 00
	00 00 00	 movss	 xmm0, DWORD PTR __real@44480000
  00d75	f3 0f 11 80 24
	1d 00 00	 movss	 DWORD PTR [eax+7460], xmm0

; 383  : 	current_flight_dynamics->right_engine_temp.max = 1000.0;

  00d7d	a1 00 00 00 00	 mov	 eax, DWORD PTR ?current_flight_dynamics@@3PAUDYNAMICS_TYPE@@A ; current_flight_dynamics
  00d82	f3 0f 10 05 00
	00 00 00	 movss	 xmm0, DWORD PTR __real@447a0000
  00d8a	f3 0f 11 80 30
	1d 00 00	 movss	 DWORD PTR [eax+7472], xmm0

; 384  : 
; 385  : 	// main rotor characteristics
; 386  : 
; 387  : 	current_flight_dynamics->main_rotor_diameter.value = 14.63;

  00d92	a1 00 00 00 00	 mov	 eax, DWORD PTR ?current_flight_dynamics@@3PAUDYNAMICS_TYPE@@A ; current_flight_dynamics
  00d97	f3 0f 10 05 00
	00 00 00	 movss	 xmm0, DWORD PTR __real@416a147b
  00d9f	f3 0f 11 80 9c
	1d 00 00	 movss	 DWORD PTR [eax+7580], xmm0

; 388  : 	current_flight_dynamics->main_rotor_area.value = PI * pow ((current_flight_dynamics->main_rotor_diameter.value / 2.0), 2);

  00da7	6a 02		 push	 2
  00da9	a1 00 00 00 00	 mov	 eax, DWORD PTR ?current_flight_dynamics@@3PAUDYNAMICS_TYPE@@A ; current_flight_dynamics
  00dae	f3 0f 5a 80 9c
	1d 00 00	 cvtss2sd xmm0, DWORD PTR [eax+7580]
  00db6	f2 0f 5e 05 00
	00 00 00	 divsd	 xmm0, QWORD PTR __real@4000000000000000
  00dbe	83 ec 08	 sub	 esp, 8
  00dc1	f2 0f 11 04 24	 movsd	 QWORD PTR [esp], xmm0
  00dc6	e8 00 00 00 00	 call	 ?pow@@YGNNH@Z		; pow
  00dcb	dd 5d 94	 fstp	 QWORD PTR tv1067[ebp]
  00dce	f2 0f 10 45 94	 movsd	 xmm0, QWORD PTR tv1067[ebp]
  00dd3	f2 0f 59 05 00
	00 00 00	 mulsd	 xmm0, QWORD PTR __real@400921fb60000000
  00ddb	f2 0f 5a c0	 cvtsd2ss xmm0, xmm0
  00ddf	8b 0d 00 00 00
	00		 mov	 ecx, DWORD PTR ?current_flight_dynamics@@3PAUDYNAMICS_TYPE@@A ; current_flight_dynamics
  00de5	f3 0f 11 81 b4
	1d 00 00	 movss	 DWORD PTR [ecx+7604], xmm0

; 389  : 
; 390  : 	current_flight_dynamics->main_rotor_induced_air.value = 0.0;

  00ded	a1 00 00 00 00	 mov	 eax, DWORD PTR ?current_flight_dynamics@@3PAUDYNAMICS_TYPE@@A ; current_flight_dynamics
  00df2	0f 57 c0	 xorps	 xmm0, xmm0
  00df5	f3 0f 11 80 6c
	1d 00 00	 movss	 DWORD PTR [eax+7532], xmm0

; 391  : 	current_flight_dynamics->main_rotor_induced_air.min = 0.0;

  00dfd	a1 00 00 00 00	 mov	 eax, DWORD PTR ?current_flight_dynamics@@3PAUDYNAMICS_TYPE@@A ; current_flight_dynamics
  00e02	0f 57 c0	 xorps	 xmm0, xmm0
  00e05	f3 0f 11 80 74
	1d 00 00	 movss	 DWORD PTR [eax+7540], xmm0

; 392  : 	current_flight_dynamics->main_rotor_induced_air.max = 26.0;

  00e0d	a1 00 00 00 00	 mov	 eax, DWORD PTR ?current_flight_dynamics@@3PAUDYNAMICS_TYPE@@A ; current_flight_dynamics
  00e12	f3 0f 10 05 00
	00 00 00	 movss	 xmm0, DWORD PTR __real@41d00000
  00e1a	f3 0f 11 80 78
	1d 00 00	 movss	 DWORD PTR [eax+7544], xmm0

; 393  : 
; 394  : 	current_flight_dynamics->main_rotor_induced_vortex_air_flow.min = knots_to_metres_per_second (10.0); // actually used for the max velocity for vortex ring to occur

  00e22	a1 00 00 00 00	 mov	 eax, DWORD PTR ?current_flight_dynamics@@3PAUDYNAMICS_TYPE@@A ; current_flight_dynamics
  00e27	f3 0f 10 05 00
	00 00 00	 movss	 xmm0, DWORD PTR __real@40a4eb1a
  00e2f	f3 0f 11 80 8c
	1d 00 00	 movss	 DWORD PTR [eax+7564], xmm0

; 395  : 
; 396  : 	current_flight_dynamics->main_rotor_roll_angle.min = rad (-5.5);

  00e37	a1 00 00 00 00	 mov	 eax, DWORD PTR ?current_flight_dynamics@@3PAUDYNAMICS_TYPE@@A ; current_flight_dynamics
  00e3c	f3 0f 10 05 00
	00 00 00	 movss	 xmm0, DWORD PTR __real@bdc49809
  00e44	f3 0f 11 80 ec
	1d 00 00	 movss	 DWORD PTR [eax+7660], xmm0

; 397  : 	current_flight_dynamics->main_rotor_roll_angle.max = rad (5.5);

  00e4c	a1 00 00 00 00	 mov	 eax, DWORD PTR ?current_flight_dynamics@@3PAUDYNAMICS_TYPE@@A ; current_flight_dynamics
  00e51	f3 0f 10 05 00
	00 00 00	 movss	 xmm0, DWORD PTR __real@3dc49809
  00e59	f3 0f 11 80 f0
	1d 00 00	 movss	 DWORD PTR [eax+7664], xmm0

; 398  : 
; 399  : 	current_flight_dynamics->main_rotor_pitch_angle.min = rad (-5.5);

  00e61	a1 00 00 00 00	 mov	 eax, DWORD PTR ?current_flight_dynamics@@3PAUDYNAMICS_TYPE@@A ; current_flight_dynamics
  00e66	f3 0f 10 05 00
	00 00 00	 movss	 xmm0, DWORD PTR __real@bdc49809
  00e6e	f3 0f 11 80 04
	1e 00 00	 movss	 DWORD PTR [eax+7684], xmm0

; 400  : 	current_flight_dynamics->main_rotor_pitch_angle.max = rad (5.5);

  00e76	a1 00 00 00 00	 mov	 eax, DWORD PTR ?current_flight_dynamics@@3PAUDYNAMICS_TYPE@@A ; current_flight_dynamics
  00e7b	f3 0f 10 05 00
	00 00 00	 movss	 xmm0, DWORD PTR __real@3dc49809
  00e83	f3 0f 11 80 08
	1e 00 00	 movss	 DWORD PTR [eax+7688], xmm0

; 401  : 
; 402  : 	current_flight_dynamics->main_rotor_thrust.value = 0.0;

  00e8b	a1 00 00 00 00	 mov	 eax, DWORD PTR ?current_flight_dynamics@@3PAUDYNAMICS_TYPE@@A ; current_flight_dynamics
  00e90	0f 57 c0	 xorps	 xmm0, xmm0
  00e93	f3 0f 11 80 cc
	1d 00 00	 movss	 DWORD PTR [eax+7628], xmm0

; 403  : 	current_flight_dynamics->main_rotor_thrust.min = 0.0;

  00e9b	a1 00 00 00 00	 mov	 eax, DWORD PTR ?current_flight_dynamics@@3PAUDYNAMICS_TYPE@@A ; current_flight_dynamics
  00ea0	0f 57 c0	 xorps	 xmm0, xmm0
  00ea3	f3 0f 11 80 d4
	1d 00 00	 movss	 DWORD PTR [eax+7636], xmm0

; 404  : 	current_flight_dynamics->main_rotor_thrust.max = 100.0;

  00eab	a1 00 00 00 00	 mov	 eax, DWORD PTR ?current_flight_dynamics@@3PAUDYNAMICS_TYPE@@A ; current_flight_dynamics
  00eb0	f3 0f 10 05 00
	00 00 00	 movss	 xmm0, DWORD PTR __real@42c80000
  00eb8	f3 0f 11 80 d8
	1d 00 00	 movss	 DWORD PTR [eax+7640], xmm0

; 405  : 
; 406  : 	current_flight_dynamics->main_rotor_rpm.value = 0.0;

  00ec0	a1 00 00 00 00	 mov	 eax, DWORD PTR ?current_flight_dynamics@@3PAUDYNAMICS_TYPE@@A ; current_flight_dynamics
  00ec5	0f 57 c0	 xorps	 xmm0, xmm0
  00ec8	f3 0f 11 80 14
	1e 00 00	 movss	 DWORD PTR [eax+7700], xmm0

; 407  : 	current_flight_dynamics->main_rotor_rpm.min = 0.0;

  00ed0	a1 00 00 00 00	 mov	 eax, DWORD PTR ?current_flight_dynamics@@3PAUDYNAMICS_TYPE@@A ; current_flight_dynamics
  00ed5	0f 57 c0	 xorps	 xmm0, xmm0
  00ed8	f3 0f 11 80 1c
	1e 00 00	 movss	 DWORD PTR [eax+7708], xmm0

; 408  : 	current_flight_dynamics->main_rotor_rpm.max = 100.0;

  00ee0	a1 00 00 00 00	 mov	 eax, DWORD PTR ?current_flight_dynamics@@3PAUDYNAMICS_TYPE@@A ; current_flight_dynamics
  00ee5	f3 0f 10 05 00
	00 00 00	 movss	 xmm0, DWORD PTR __real@42c80000
  00eed	f3 0f 11 80 20
	1e 00 00	 movss	 DWORD PTR [eax+7712], xmm0

; 409  : 
; 410  : 	current_flight_dynamics->main_rotor_rps.value = 0.0;

  00ef5	a1 00 00 00 00	 mov	 eax, DWORD PTR ?current_flight_dynamics@@3PAUDYNAMICS_TYPE@@A ; current_flight_dynamics
  00efa	0f 57 c0	 xorps	 xmm0, xmm0
  00efd	f3 0f 11 80 2c
	1e 00 00	 movss	 DWORD PTR [eax+7724], xmm0

; 411  : 	current_flight_dynamics->main_rotor_rps.min = 0.0;

  00f05	a1 00 00 00 00	 mov	 eax, DWORD PTR ?current_flight_dynamics@@3PAUDYNAMICS_TYPE@@A ; current_flight_dynamics
  00f0a	0f 57 c0	 xorps	 xmm0, xmm0
  00f0d	f3 0f 11 80 34
	1e 00 00	 movss	 DWORD PTR [eax+7732], xmm0

; 412  : 	current_flight_dynamics->main_rotor_rps.max = 4.5;

  00f15	a1 00 00 00 00	 mov	 eax, DWORD PTR ?current_flight_dynamics@@3PAUDYNAMICS_TYPE@@A ; current_flight_dynamics
  00f1a	f3 0f 10 05 00
	00 00 00	 movss	 xmm0, DWORD PTR __real@40900000
  00f22	f3 0f 11 80 38
	1e 00 00	 movss	 DWORD PTR [eax+7736], xmm0

; 413  : 
; 414  : 	current_flight_dynamics->main_rotor_angular_position.value = 0;

  00f2a	a1 00 00 00 00	 mov	 eax, DWORD PTR ?current_flight_dynamics@@3PAUDYNAMICS_TYPE@@A ; current_flight_dynamics
  00f2f	0f 57 c0	 xorps	 xmm0, xmm0
  00f32	f3 0f 11 80 5c
	1e 00 00	 movss	 DWORD PTR [eax+7772], xmm0

; 415  : 	current_flight_dynamics->main_rotor_angular_position.min = 0;

  00f3a	a1 00 00 00 00	 mov	 eax, DWORD PTR ?current_flight_dynamics@@3PAUDYNAMICS_TYPE@@A ; current_flight_dynamics
  00f3f	0f 57 c0	 xorps	 xmm0, xmm0
  00f42	f3 0f 11 80 64
	1e 00 00	 movss	 DWORD PTR [eax+7780], xmm0

; 416  : 	current_flight_dynamics->main_rotor_angular_position.max = PI2;

  00f4a	a1 00 00 00 00	 mov	 eax, DWORD PTR ?current_flight_dynamics@@3PAUDYNAMICS_TYPE@@A ; current_flight_dynamics
  00f4f	f3 0f 10 05 00
	00 00 00	 movss	 xmm0, DWORD PTR __real@40c90fdb
  00f57	f3 0f 11 80 68
	1e 00 00	 movss	 DWORD PTR [eax+7784], xmm0

; 417  : 
; 418  : 	current_flight_dynamics->main_rotor_coning_angle.min = rad (-3.0);

  00f5f	a1 00 00 00 00	 mov	 eax, DWORD PTR ?current_flight_dynamics@@3PAUDYNAMICS_TYPE@@A ; current_flight_dynamics
  00f64	f3 0f 10 05 00
	00 00 00	 movss	 xmm0, DWORD PTR __real@bd567750
  00f6c	f3 0f 11 80 4c
	1e 00 00	 movss	 DWORD PTR [eax+7756], xmm0

; 419  : 	current_flight_dynamics->main_rotor_coning_angle.max = rad (5.0);

  00f74	a1 00 00 00 00	 mov	 eax, DWORD PTR ?current_flight_dynamics@@3PAUDYNAMICS_TYPE@@A ; current_flight_dynamics
  00f79	f3 0f 10 05 00
	00 00 00	 movss	 xmm0, DWORD PTR __real@3db2b8c2
  00f81	f3 0f 11 80 50
	1e 00 00	 movss	 DWORD PTR [eax+7760], xmm0

; 420  : 
; 421  : 	current_flight_dynamics->main_blade_pitch.value = 2.0;

  00f89	a1 00 00 00 00	 mov	 eax, DWORD PTR ?current_flight_dynamics@@3PAUDYNAMICS_TYPE@@A ; current_flight_dynamics
  00f8e	f3 0f 10 05 00
	00 00 00	 movss	 xmm0, DWORD PTR __real@40000000
  00f96	f3 0f 11 80 8c
	1e 00 00	 movss	 DWORD PTR [eax+7820], xmm0

; 422  : 	current_flight_dynamics->main_blade_pitch.min = rad (1.0);

  00f9e	a1 00 00 00 00	 mov	 eax, DWORD PTR ?current_flight_dynamics@@3PAUDYNAMICS_TYPE@@A ; current_flight_dynamics
  00fa3	f3 0f 10 05 00
	00 00 00	 movss	 xmm0, DWORD PTR __real@3c8efa35
  00fab	f3 0f 11 80 94
	1e 00 00	 movss	 DWORD PTR [eax+7828], xmm0

; 423  : 	current_flight_dynamics->main_blade_pitch.max = rad (7.5);

  00fb3	a1 00 00 00 00	 mov	 eax, DWORD PTR ?current_flight_dynamics@@3PAUDYNAMICS_TYPE@@A ; current_flight_dynamics
  00fb8	f3 0f 10 05 00
	00 00 00	 movss	 xmm0, DWORD PTR __real@3e060a92
  00fc0	f3 0f 11 80 98
	1e 00 00	 movss	 DWORD PTR [eax+7832], xmm0

; 424  : 
; 425  : 	// tail rotor characteristics
; 426  : 
; 427  : 	current_flight_dynamics->tail_rotor_diameter.value = 2.79;

  00fc8	a1 00 00 00 00	 mov	 eax, DWORD PTR ?current_flight_dynamics@@3PAUDYNAMICS_TYPE@@A ; current_flight_dynamics
  00fcd	f3 0f 10 05 00
	00 00 00	 movss	 xmm0, DWORD PTR __real@40328f5c
  00fd5	f3 0f 11 80 1c
	1f 00 00	 movss	 DWORD PTR [eax+7964], xmm0

; 428  : 
; 429  : 	current_flight_dynamics->tail_rotor_rpm.value = 0.0;

  00fdd	a1 00 00 00 00	 mov	 eax, DWORD PTR ?current_flight_dynamics@@3PAUDYNAMICS_TYPE@@A ; current_flight_dynamics
  00fe2	0f 57 c0	 xorps	 xmm0, xmm0
  00fe5	f3 0f 11 80 4c
	1f 00 00	 movss	 DWORD PTR [eax+8012], xmm0

; 430  : 	current_flight_dynamics->tail_rotor_rpm.min = 0.0;

  00fed	a1 00 00 00 00	 mov	 eax, DWORD PTR ?current_flight_dynamics@@3PAUDYNAMICS_TYPE@@A ; current_flight_dynamics
  00ff2	0f 57 c0	 xorps	 xmm0, xmm0
  00ff5	f3 0f 11 80 54
	1f 00 00	 movss	 DWORD PTR [eax+8020], xmm0

; 431  : 	current_flight_dynamics->tail_rotor_rpm.max = 100.0;

  00ffd	a1 00 00 00 00	 mov	 eax, DWORD PTR ?current_flight_dynamics@@3PAUDYNAMICS_TYPE@@A ; current_flight_dynamics
  01002	f3 0f 10 05 00
	00 00 00	 movss	 xmm0, DWORD PTR __real@42c80000
  0100a	f3 0f 11 80 58
	1f 00 00	 movss	 DWORD PTR [eax+8024], xmm0

; 432  : 
; 433  : 	current_flight_dynamics->tail_rotor_rps.value = 0.0;

  01012	a1 00 00 00 00	 mov	 eax, DWORD PTR ?current_flight_dynamics@@3PAUDYNAMICS_TYPE@@A ; current_flight_dynamics
  01017	0f 57 c0	 xorps	 xmm0, xmm0
  0101a	f3 0f 11 80 64
	1f 00 00	 movss	 DWORD PTR [eax+8036], xmm0

; 434  : 	current_flight_dynamics->tail_rotor_rps.min = 0.0;

  01022	a1 00 00 00 00	 mov	 eax, DWORD PTR ?current_flight_dynamics@@3PAUDYNAMICS_TYPE@@A ; current_flight_dynamics
  01027	0f 57 c0	 xorps	 xmm0, xmm0
  0102a	f3 0f 11 80 6c
	1f 00 00	 movss	 DWORD PTR [eax+8044], xmm0

; 435  : 	current_flight_dynamics->tail_rotor_rps.max = 10;

  01032	a1 00 00 00 00	 mov	 eax, DWORD PTR ?current_flight_dynamics@@3PAUDYNAMICS_TYPE@@A ; current_flight_dynamics
  01037	f3 0f 10 05 00
	00 00 00	 movss	 xmm0, DWORD PTR __real@41200000
  0103f	f3 0f 11 80 70
	1f 00 00	 movss	 DWORD PTR [eax+8048], xmm0

; 436  : 
; 437  : 	current_flight_dynamics->tail_rotor_angular_position.value = 0;

  01047	a1 00 00 00 00	 mov	 eax, DWORD PTR ?current_flight_dynamics@@3PAUDYNAMICS_TYPE@@A ; current_flight_dynamics
  0104c	0f 57 c0	 xorps	 xmm0, xmm0
  0104f	f3 0f 11 80 7c
	1f 00 00	 movss	 DWORD PTR [eax+8060], xmm0

; 438  : 	current_flight_dynamics->tail_rotor_angular_position.min = 0;

  01057	a1 00 00 00 00	 mov	 eax, DWORD PTR ?current_flight_dynamics@@3PAUDYNAMICS_TYPE@@A ; current_flight_dynamics
  0105c	0f 57 c0	 xorps	 xmm0, xmm0
  0105f	f3 0f 11 80 84
	1f 00 00	 movss	 DWORD PTR [eax+8068], xmm0

; 439  : 	current_flight_dynamics->tail_rotor_angular_position.max = PI2;

  01067	a1 00 00 00 00	 mov	 eax, DWORD PTR ?current_flight_dynamics@@3PAUDYNAMICS_TYPE@@A ; current_flight_dynamics
  0106c	f3 0f 10 05 00
	00 00 00	 movss	 xmm0, DWORD PTR __real@40c90fdb
  01074	f3 0f 11 80 88
	1f 00 00	 movss	 DWORD PTR [eax+8072], xmm0

; 440  : 
; 441  : 	current_flight_dynamics->tail_rotor_thrust.value = 0.0;

  0107c	a1 00 00 00 00	 mov	 eax, DWORD PTR ?current_flight_dynamics@@3PAUDYNAMICS_TYPE@@A ; current_flight_dynamics
  01081	0f 57 c0	 xorps	 xmm0, xmm0
  01084	f3 0f 11 80 34
	1f 00 00	 movss	 DWORD PTR [eax+7988], xmm0

; 442  : 	current_flight_dynamics->tail_rotor_thrust.min = 0.0;

  0108c	a1 00 00 00 00	 mov	 eax, DWORD PTR ?current_flight_dynamics@@3PAUDYNAMICS_TYPE@@A ; current_flight_dynamics
  01091	0f 57 c0	 xorps	 xmm0, xmm0
  01094	f3 0f 11 80 3c
	1f 00 00	 movss	 DWORD PTR [eax+7996], xmm0

; 443  : 	current_flight_dynamics->tail_rotor_thrust.max = 100.0;

  0109c	a1 00 00 00 00	 mov	 eax, DWORD PTR ?current_flight_dynamics@@3PAUDYNAMICS_TYPE@@A ; current_flight_dynamics
  010a1	f3 0f 10 05 00
	00 00 00	 movss	 xmm0, DWORD PTR __real@42c80000
  010a9	f3 0f 11 80 40
	1f 00 00	 movss	 DWORD PTR [eax+8000], xmm0

; 444  : 
; 445  : 	current_flight_dynamics->tail_blade_pitch.value = 0.0;

  010b1	a1 00 00 00 00	 mov	 eax, DWORD PTR ?current_flight_dynamics@@3PAUDYNAMICS_TYPE@@A ; current_flight_dynamics
  010b6	0f 57 c0	 xorps	 xmm0, xmm0
  010b9	f3 0f 11 80 94
	1f 00 00	 movss	 DWORD PTR [eax+8084], xmm0

; 446  : 	current_flight_dynamics->tail_blade_pitch.min = rad (-2.0);

  010c1	a1 00 00 00 00	 mov	 eax, DWORD PTR ?current_flight_dynamics@@3PAUDYNAMICS_TYPE@@A ; current_flight_dynamics
  010c6	f3 0f 10 05 00
	00 00 00	 movss	 xmm0, DWORD PTR __real@bd0efa35
  010ce	f3 0f 11 80 9c
	1f 00 00	 movss	 DWORD PTR [eax+8092], xmm0

; 447  : 	current_flight_dynamics->tail_blade_pitch.max = rad (2.0);

  010d6	a1 00 00 00 00	 mov	 eax, DWORD PTR ?current_flight_dynamics@@3PAUDYNAMICS_TYPE@@A ; current_flight_dynamics
  010db	f3 0f 10 05 00
	00 00 00	 movss	 xmm0, DWORD PTR __real@3d0efa35
  010e3	f3 0f 11 80 a0
	1f 00 00	 movss	 DWORD PTR [eax+8096], xmm0

; 448  : 
; 449  : 	current_flight_dynamics->tail_rotor_induced_air.value = 0.0;

  010eb	a1 00 00 00 00	 mov	 eax, DWORD PTR ?current_flight_dynamics@@3PAUDYNAMICS_TYPE@@A ; current_flight_dynamics
  010f0	0f 57 c0	 xorps	 xmm0, xmm0
  010f3	f3 0f 11 80 04
	1f 00 00	 movss	 DWORD PTR [eax+7940], xmm0

; 450  : 	current_flight_dynamics->tail_rotor_induced_air.min = -1.0;

  010fb	a1 00 00 00 00	 mov	 eax, DWORD PTR ?current_flight_dynamics@@3PAUDYNAMICS_TYPE@@A ; current_flight_dynamics
  01100	f3 0f 10 05 00
	00 00 00	 movss	 xmm0, DWORD PTR __real@bf800000
  01108	f3 0f 11 80 0c
	1f 00 00	 movss	 DWORD PTR [eax+7948], xmm0

; 451  : 	current_flight_dynamics->tail_rotor_induced_air.max = 1.0;

  01110	a1 00 00 00 00	 mov	 eax, DWORD PTR ?current_flight_dynamics@@3PAUDYNAMICS_TYPE@@A ; current_flight_dynamics
  01115	f3 0f 10 05 00
	00 00 00	 movss	 xmm0, DWORD PTR __real@3f800000
  0111d	f3 0f 11 80 10
	1f 00 00	 movss	 DWORD PTR [eax+7952], xmm0

; 452  : 
; 453  : 	current_flight_dynamics->tail_boom_length.value = 10.59; // actually the wheelbase (but close enough)

  01125	a1 00 00 00 00	 mov	 eax, DWORD PTR ?current_flight_dynamics@@3PAUDYNAMICS_TYPE@@A ; current_flight_dynamics
  0112a	f3 0f 10 05 00
	00 00 00	 movss	 xmm0, DWORD PTR __real@412970a4
  01132	f3 0f 11 80 ac
	1f 00 00	 movss	 DWORD PTR [eax+8108], xmm0

; 454  : 
; 455  : 	current_flight_dynamics->cross_coupling_effect.value = 0.0;

  0113a	a1 00 00 00 00	 mov	 eax, DWORD PTR ?current_flight_dynamics@@3PAUDYNAMICS_TYPE@@A ; current_flight_dynamics
  0113f	0f 57 c0	 xorps	 xmm0, xmm0
  01142	f3 0f 11 80 c4
	1f 00 00	 movss	 DWORD PTR [eax+8132], xmm0

; 456  : 
; 457  : 	// other
; 458  : 
; 459  : 	current_flight_dynamics->velocity_x.min = -11.1;

  0114a	a1 00 00 00 00	 mov	 eax, DWORD PTR ?current_flight_dynamics@@3PAUDYNAMICS_TYPE@@A ; current_flight_dynamics
  0114f	f3 0f 10 05 00
	00 00 00	 movss	 xmm0, DWORD PTR __real@c131999a
  01157	f3 0f 11 80 74
	20 00 00	 movss	 DWORD PTR [eax+8308], xmm0

; 460  : 	current_flight_dynamics->velocity_x.max = 11.1;

  0115f	a1 00 00 00 00	 mov	 eax, DWORD PTR ?current_flight_dynamics@@3PAUDYNAMICS_TYPE@@A ; current_flight_dynamics
  01164	f3 0f 10 05 00
	00 00 00	 movss	 xmm0, DWORD PTR __real@4131999a
  0116c	f3 0f 11 80 78
	20 00 00	 movss	 DWORD PTR [eax+8312], xmm0

; 461  : 
; 462  : 	current_flight_dynamics->model_acceleration_vector.x = 0.0;

  01174	a1 00 00 00 00	 mov	 eax, DWORD PTR ?current_flight_dynamics@@3PAUDYNAMICS_TYPE@@A ; current_flight_dynamics
  01179	0f 57 c0	 xorps	 xmm0, xmm0
  0117c	f3 0f 11 80 48
	1c 00 00	 movss	 DWORD PTR [eax+7240], xmm0

; 463  : 	current_flight_dynamics->model_acceleration_vector.y = 0.0;

  01184	a1 00 00 00 00	 mov	 eax, DWORD PTR ?current_flight_dynamics@@3PAUDYNAMICS_TYPE@@A ; current_flight_dynamics
  01189	0f 57 c0	 xorps	 xmm0, xmm0
  0118c	f3 0f 11 80 4c
	1c 00 00	 movss	 DWORD PTR [eax+7244], xmm0

; 464  : 	current_flight_dynamics->model_acceleration_vector.z = 0.0;

  01194	a1 00 00 00 00	 mov	 eax, DWORD PTR ?current_flight_dynamics@@3PAUDYNAMICS_TYPE@@A ; current_flight_dynamics
  01199	0f 57 c0	 xorps	 xmm0, xmm0
  0119c	f3 0f 11 80 50
	1c 00 00	 movss	 DWORD PTR [eax+7248], xmm0

; 465  : 
; 466  : 	current_flight_dynamics->world_acceleration_vector.x = 0.0;

  011a4	a1 00 00 00 00	 mov	 eax, DWORD PTR ?current_flight_dynamics@@3PAUDYNAMICS_TYPE@@A ; current_flight_dynamics
  011a9	0f 57 c0	 xorps	 xmm0, xmm0
  011ac	f3 0f 11 80 54
	1c 00 00	 movss	 DWORD PTR [eax+7252], xmm0

; 467  : 	current_flight_dynamics->world_acceleration_vector.y = 0.0;

  011b4	a1 00 00 00 00	 mov	 eax, DWORD PTR ?current_flight_dynamics@@3PAUDYNAMICS_TYPE@@A ; current_flight_dynamics
  011b9	0f 57 c0	 xorps	 xmm0, xmm0
  011bc	f3 0f 11 80 58
	1c 00 00	 movss	 DWORD PTR [eax+7256], xmm0

; 468  : 	current_flight_dynamics->world_acceleration_vector.z = 0.0;

  011c4	a1 00 00 00 00	 mov	 eax, DWORD PTR ?current_flight_dynamics@@3PAUDYNAMICS_TYPE@@A ; current_flight_dynamics
  011c9	0f 57 c0	 xorps	 xmm0, xmm0
  011cc	f3 0f 11 80 5c
	1c 00 00	 movss	 DWORD PTR [eax+7260], xmm0

; 469  : 
; 470  : 	current_flight_dynamics->velocity_y.value = 0.0;

  011d4	a1 00 00 00 00	 mov	 eax, DWORD PTR ?current_flight_dynamics@@3PAUDYNAMICS_TYPE@@A ; current_flight_dynamics
  011d9	0f 57 c0	 xorps	 xmm0, xmm0
  011dc	f3 0f 11 80 84
	20 00 00	 movss	 DWORD PTR [eax+8324], xmm0

; 471  : 	current_flight_dynamics->velocity_y.min = -1000.0;

  011e4	a1 00 00 00 00	 mov	 eax, DWORD PTR ?current_flight_dynamics@@3PAUDYNAMICS_TYPE@@A ; current_flight_dynamics
  011e9	f3 0f 10 05 00
	00 00 00	 movss	 xmm0, DWORD PTR __real@c47a0000
  011f1	f3 0f 11 80 8c
	20 00 00	 movss	 DWORD PTR [eax+8332], xmm0

; 472  : 	current_flight_dynamics->velocity_y.max = 15.7;

  011f9	a1 00 00 00 00	 mov	 eax, DWORD PTR ?current_flight_dynamics@@3PAUDYNAMICS_TYPE@@A ; current_flight_dynamics
  011fe	f3 0f 10 05 00
	00 00 00	 movss	 xmm0, DWORD PTR __real@417b3333
  01206	f3 0f 11 80 90
	20 00 00	 movss	 DWORD PTR [eax+8336], xmm0

; 473  : 
; 474  : 	current_flight_dynamics->velocity_z.min = -8.33;

  0120e	a1 00 00 00 00	 mov	 eax, DWORD PTR ?current_flight_dynamics@@3PAUDYNAMICS_TYPE@@A ; current_flight_dynamics
  01213	f3 0f 10 05 00
	00 00 00	 movss	 xmm0, DWORD PTR __real@c10547ae
  0121b	f3 0f 11 80 a4
	20 00 00	 movss	 DWORD PTR [eax+8356], xmm0

; 475  : 	current_flight_dynamics->velocity_z.max = knots_to_metres_per_second (197);

  01223	a1 00 00 00 00	 mov	 eax, DWORD PTR ?current_flight_dynamics@@3PAUDYNAMICS_TYPE@@A ; current_flight_dynamics
  01228	f3 0f 10 05 00
	00 00 00	 movss	 xmm0, DWORD PTR __real@42cb0e45
  01230	f3 0f 11 80 a8
	20 00 00	 movss	 DWORD PTR [eax+8360], xmm0

; 476  : 
; 477  : 	current_flight_dynamics->power_avaliable.min = 0.0;

  01238	a1 00 00 00 00	 mov	 eax, DWORD PTR ?current_flight_dynamics@@3PAUDYNAMICS_TYPE@@A ; current_flight_dynamics
  0123d	0f 57 c0	 xorps	 xmm0, xmm0
  01240	f3 0f 11 80 e4
	1f 00 00	 movss	 DWORD PTR [eax+8164], xmm0

; 478  : 	current_flight_dynamics->power_avaliable.max = 2230.0;

  01248	a1 00 00 00 00	 mov	 eax, DWORD PTR ?current_flight_dynamics@@3PAUDYNAMICS_TYPE@@A ; current_flight_dynamics
  0124d	f3 0f 10 05 00
	00 00 00	 movss	 xmm0, DWORD PTR __real@450b6000
  01255	f3 0f 11 80 e8
	1f 00 00	 movss	 DWORD PTR [eax+8168], xmm0

; 479  : 
; 480  : 	current_flight_dynamics->lift.min = -10.0;

  0125d	a1 00 00 00 00	 mov	 eax, DWORD PTR ?current_flight_dynamics@@3PAUDYNAMICS_TYPE@@A ; current_flight_dynamics
  01262	f3 0f 10 05 00
	00 00 00	 movss	 xmm0, DWORD PTR __real@c1200000
  0126a	f3 0f 11 80 ac
	21 00 00	 movss	 DWORD PTR [eax+8620], xmm0

; 481  : 	current_flight_dynamics->lift.max = 20.0;

  01272	a1 00 00 00 00	 mov	 eax, DWORD PTR ?current_flight_dynamics@@3PAUDYNAMICS_TYPE@@A ; current_flight_dynamics
  01277	f3 0f 10 05 00
	00 00 00	 movss	 xmm0, DWORD PTR __real@41a00000
  0127f	f3 0f 11 80 b0
	21 00 00	 movss	 DWORD PTR [eax+8624], xmm0

; 482  : 
; 483  : 	current_flight_dynamics->translational_lift.value = 3;

  01287	a1 00 00 00 00	 mov	 eax, DWORD PTR ?current_flight_dynamics@@3PAUDYNAMICS_TYPE@@A ; current_flight_dynamics
  0128c	f3 0f 10 05 00
	00 00 00	 movss	 xmm0, DWORD PTR __real@40400000
  01294	f3 0f 11 80 bc
	21 00 00	 movss	 DWORD PTR [eax+8636], xmm0

; 484  : 	current_flight_dynamics->translational_lift.min = 8.0;

  0129c	a1 00 00 00 00	 mov	 eax, DWORD PTR ?current_flight_dynamics@@3PAUDYNAMICS_TYPE@@A ; current_flight_dynamics
  012a1	f3 0f 10 05 00
	00 00 00	 movss	 xmm0, DWORD PTR __real@41000000
  012a9	f3 0f 11 80 c4
	21 00 00	 movss	 DWORD PTR [eax+8644], xmm0

; 485  : 	current_flight_dynamics->translational_lift.max = 15.0;

  012b1	a1 00 00 00 00	 mov	 eax, DWORD PTR ?current_flight_dynamics@@3PAUDYNAMICS_TYPE@@A ; current_flight_dynamics
  012b6	f3 0f 10 05 00
	00 00 00	 movss	 xmm0, DWORD PTR __real@41700000
  012be	f3 0f 11 80 c8
	21 00 00	 movss	 DWORD PTR [eax+8648], xmm0

; 486  : 
; 487  : 	current_flight_dynamics->heading_moment.value = 0.0;

  012c6	a1 00 00 00 00	 mov	 eax, DWORD PTR ?current_flight_dynamics@@3PAUDYNAMICS_TYPE@@A ; current_flight_dynamics
  012cb	0f 57 c0	 xorps	 xmm0, xmm0
  012ce	f3 0f 11 80 7c
	22 00 00	 movss	 DWORD PTR [eax+8828], xmm0

; 488  : 	current_flight_dynamics->heading_moment_reaction.value = 0.0;

  012d6	a1 00 00 00 00	 mov	 eax, DWORD PTR ?current_flight_dynamics@@3PAUDYNAMICS_TYPE@@A ; current_flight_dynamics
  012db	0f 57 c0	 xorps	 xmm0, xmm0
  012de	f3 0f 11 80 c4
	22 00 00	 movss	 DWORD PTR [eax+8900], xmm0

; 489  : 
; 490  : 	current_flight_dynamics->pitch_moment.value = 0.0;

  012e6	a1 00 00 00 00	 mov	 eax, DWORD PTR ?current_flight_dynamics@@3PAUDYNAMICS_TYPE@@A ; current_flight_dynamics
  012eb	0f 57 c0	 xorps	 xmm0, xmm0
  012ee	f3 0f 11 80 94
	22 00 00	 movss	 DWORD PTR [eax+8852], xmm0

; 491  : 	current_flight_dynamics->pitch_moment_reaction.value = 0.0;

  012f6	a1 00 00 00 00	 mov	 eax, DWORD PTR ?current_flight_dynamics@@3PAUDYNAMICS_TYPE@@A ; current_flight_dynamics
  012fb	0f 57 c0	 xorps	 xmm0, xmm0
  012fe	f3 0f 11 80 dc
	22 00 00	 movss	 DWORD PTR [eax+8924], xmm0

; 492  : 
; 493  : 	current_flight_dynamics->roll_moment.value = 0.0;

  01306	a1 00 00 00 00	 mov	 eax, DWORD PTR ?current_flight_dynamics@@3PAUDYNAMICS_TYPE@@A ; current_flight_dynamics
  0130b	0f 57 c0	 xorps	 xmm0, xmm0
  0130e	f3 0f 11 80 ac
	22 00 00	 movss	 DWORD PTR [eax+8876], xmm0

; 494  : 	current_flight_dynamics->roll_moment_reaction.value = 0.0;

  01316	a1 00 00 00 00	 mov	 eax, DWORD PTR ?current_flight_dynamics@@3PAUDYNAMICS_TYPE@@A ; current_flight_dynamics
  0131b	0f 57 c0	 xorps	 xmm0, xmm0
  0131e	f3 0f 11 80 f4
	22 00 00	 movss	 DWORD PTR [eax+8948], xmm0

; 495  : 
; 496  : 	// drag
; 497  : 
; 498  : 	current_flight_dynamics->drag_x.min = 0.01;

  01326	a1 00 00 00 00	 mov	 eax, DWORD PTR ?current_flight_dynamics@@3PAUDYNAMICS_TYPE@@A ; current_flight_dynamics
  0132b	f3 0f 10 05 00
	00 00 00	 movss	 xmm0, DWORD PTR __real@3c23d70a
  01333	f3 0f 11 80 f4
	21 00 00	 movss	 DWORD PTR [eax+8692], xmm0

; 499  : 	current_flight_dynamics->drag_x.max = 0.1;

  0133b	a1 00 00 00 00	 mov	 eax, DWORD PTR ?current_flight_dynamics@@3PAUDYNAMICS_TYPE@@A ; current_flight_dynamics
  01340	f3 0f 10 05 00
	00 00 00	 movss	 xmm0, DWORD PTR __real@3dcccccd
  01348	f3 0f 11 80 f8
	21 00 00	 movss	 DWORD PTR [eax+8696], xmm0

; 500  : 
; 501  : 	current_flight_dynamics->drag_y.min = 0.01;

  01350	a1 00 00 00 00	 mov	 eax, DWORD PTR ?current_flight_dynamics@@3PAUDYNAMICS_TYPE@@A ; current_flight_dynamics
  01355	f3 0f 10 05 00
	00 00 00	 movss	 xmm0, DWORD PTR __real@3c23d70a
  0135d	f3 0f 11 80 0c
	22 00 00	 movss	 DWORD PTR [eax+8716], xmm0

; 502  : 	current_flight_dynamics->drag_y.max = 0.1;

  01365	a1 00 00 00 00	 mov	 eax, DWORD PTR ?current_flight_dynamics@@3PAUDYNAMICS_TYPE@@A ; current_flight_dynamics
  0136a	f3 0f 10 05 00
	00 00 00	 movss	 xmm0, DWORD PTR __real@3dcccccd
  01372	f3 0f 11 80 10
	22 00 00	 movss	 DWORD PTR [eax+8720], xmm0

; 503  : 
; 504  : 	current_flight_dynamics->drag_z.min = 0.01;

  0137a	a1 00 00 00 00	 mov	 eax, DWORD PTR ?current_flight_dynamics@@3PAUDYNAMICS_TYPE@@A ; current_flight_dynamics
  0137f	f3 0f 10 05 00
	00 00 00	 movss	 xmm0, DWORD PTR __real@3c23d70a
  01387	f3 0f 11 80 24
	22 00 00	 movss	 DWORD PTR [eax+8740], xmm0

; 505  : 	current_flight_dynamics->drag_z.max = 0.1;

  0138f	a1 00 00 00 00	 mov	 eax, DWORD PTR ?current_flight_dynamics@@3PAUDYNAMICS_TYPE@@A ; current_flight_dynamics
  01394	f3 0f 10 05 00
	00 00 00	 movss	 xmm0, DWORD PTR __real@3dcccccd
  0139c	f3 0f 11 80 28
	22 00 00	 movss	 DWORD PTR [eax+8744], xmm0

; 506  : 
; 507  : 	// inertia
; 508  : 
; 509  : 	current_flight_dynamics->heading_inertia.value = 5.0;

  013a4	a1 00 00 00 00	 mov	 eax, DWORD PTR ?current_flight_dynamics@@3PAUDYNAMICS_TYPE@@A ; current_flight_dynamics
  013a9	f3 0f 10 05 00
	00 00 00	 movss	 xmm0, DWORD PTR __real@40a00000
  013b1	f3 0f 11 80 34
	22 00 00	 movss	 DWORD PTR [eax+8756], xmm0

; 510  : 	current_flight_dynamics->pitch_inertia.value = 40.0;

  013b9	a1 00 00 00 00	 mov	 eax, DWORD PTR ?current_flight_dynamics@@3PAUDYNAMICS_TYPE@@A ; current_flight_dynamics
  013be	f3 0f 10 05 00
	00 00 00	 movss	 xmm0, DWORD PTR __real@42200000
  013c6	f3 0f 11 80 4c
	22 00 00	 movss	 DWORD PTR [eax+8780], xmm0

; 511  : 	current_flight_dynamics->roll_inertia.value = 30.0;

  013ce	a1 00 00 00 00	 mov	 eax, DWORD PTR ?current_flight_dynamics@@3PAUDYNAMICS_TYPE@@A ; current_flight_dynamics
  013d3	f3 0f 10 05 00
	00 00 00	 movss	 xmm0, DWORD PTR __real@41f00000
  013db	f3 0f 11 80 64
	22 00 00	 movss	 DWORD PTR [eax+8804], xmm0

; 512  : 
; 513  : 	// mass
; 514  : 
; 515  : 	current_flight_dynamics->mass.value = 0.0;

  013e3	a1 00 00 00 00	 mov	 eax, DWORD PTR ?current_flight_dynamics@@3PAUDYNAMICS_TYPE@@A ; current_flight_dynamics
  013e8	0f 57 c0	 xorps	 xmm0, xmm0
  013eb	f3 0f 11 80 b4
	23 00 00	 movss	 DWORD PTR [eax+9140], xmm0

; 516  : 	current_flight_dynamics->mass.min = 7480.0;

  013f3	a1 00 00 00 00	 mov	 eax, DWORD PTR ?current_flight_dynamics@@3PAUDYNAMICS_TYPE@@A ; current_flight_dynamics
  013f8	f3 0f 10 05 00
	00 00 00	 movss	 xmm0, DWORD PTR __real@45e9c000
  01400	f3 0f 11 80 bc
	23 00 00	 movss	 DWORD PTR [eax+9148], xmm0

; 517  : 	current_flight_dynamics->mass.max = 0.0;

  01408	a1 00 00 00 00	 mov	 eax, DWORD PTR ?current_flight_dynamics@@3PAUDYNAMICS_TYPE@@A ; current_flight_dynamics
  0140d	0f 57 c0	 xorps	 xmm0, xmm0
  01410	f3 0f 11 80 c0
	23 00 00	 movss	 DWORD PTR [eax+9152], xmm0

; 518  : 
; 519  : 	current_flight_dynamics->fuel_weight.value = 1484.0;

  01418	a1 00 00 00 00	 mov	 eax, DWORD PTR ?current_flight_dynamics@@3PAUDYNAMICS_TYPE@@A ; current_flight_dynamics
  0141d	f3 0f 10 05 00
	00 00 00	 movss	 xmm0, DWORD PTR __real@44b98000
  01425	f3 0f 11 80 a4
	24 00 00	 movss	 DWORD PTR [eax+9380], xmm0

; 520  : 	current_flight_dynamics->fuel_weight.min = 0.0;

  0142d	a1 00 00 00 00	 mov	 eax, DWORD PTR ?current_flight_dynamics@@3PAUDYNAMICS_TYPE@@A ; current_flight_dynamics
  01432	0f 57 c0	 xorps	 xmm0, xmm0
  01435	f3 0f 11 80 ac
	24 00 00	 movss	 DWORD PTR [eax+9388], xmm0

; 521  : 	current_flight_dynamics->fuel_weight.max = 1484.0;

  0143d	a1 00 00 00 00	 mov	 eax, DWORD PTR ?current_flight_dynamics@@3PAUDYNAMICS_TYPE@@A ; current_flight_dynamics
  01442	f3 0f 10 05 00
	00 00 00	 movss	 xmm0, DWORD PTR __real@44b98000
  0144a	f3 0f 11 80 b0
	24 00 00	 movss	 DWORD PTR [eax+9392], xmm0

; 522  : 	current_flight_dynamics->fuel_weight.delta = 0.1136; // kg/s

  01452	a1 00 00 00 00	 mov	 eax, DWORD PTR ?current_flight_dynamics@@3PAUDYNAMICS_TYPE@@A ; current_flight_dynamics
  01457	f3 0f 10 05 00
	00 00 00	 movss	 xmm0, DWORD PTR __real@3de8a71e
  0145f	f3 0f 11 80 a8
	24 00 00	 movss	 DWORD PTR [eax+9384], xmm0

; 523  : 
; 524  : 	// cog
; 525  : 	// havoc at 	0.0, -0.2, -0.022
; 526  : 	// apache at 	0.0, -0.2, -0.012
; 527  : 	// hokum at 	0.0, -0.2, -0.0
; 528  : 
; 529  : 	current_flight_dynamics->centre_of_gravity.x = 0.00;

  01467	a1 00 00 00 00	 mov	 eax, DWORD PTR ?current_flight_dynamics@@3PAUDYNAMICS_TYPE@@A ; current_flight_dynamics
  0146c	0f 57 c0	 xorps	 xmm0, xmm0
  0146f	f3 0f 11 80 24
	1c 00 00	 movss	 DWORD PTR [eax+7204], xmm0

; 530  : 	current_flight_dynamics->centre_of_gravity.y = -0.2;

  01477	a1 00 00 00 00	 mov	 eax, DWORD PTR ?current_flight_dynamics@@3PAUDYNAMICS_TYPE@@A ; current_flight_dynamics
  0147c	f3 0f 10 05 00
	00 00 00	 movss	 xmm0, DWORD PTR __real@be4ccccd
  01484	f3 0f 11 80 28
	1c 00 00	 movss	 DWORD PTR [eax+7208], xmm0

; 531  : 	current_flight_dynamics->centre_of_gravity.z = 0.0;

  0148c	a1 00 00 00 00	 mov	 eax, DWORD PTR ?current_flight_dynamics@@3PAUDYNAMICS_TYPE@@A ; current_flight_dynamics
  01491	0f 57 c0	 xorps	 xmm0, xmm0
  01494	f3 0f 11 80 2c
	1c 00 00	 movss	 DWORD PTR [eax+7212], xmm0

; 532  : 
; 533  : 	// landing
; 534  : 	// havoc at 	1.0, 3.0, 7.0, 10.0
; 535  : 	// apache at 	0.75, 2.5, 6.0, 9.0
; 536  : 
; 537  : 	current_flight_dynamics->landing_quality.min = -1.0;

  0149c	a1 00 00 00 00	 mov	 eax, DWORD PTR ?current_flight_dynamics@@3PAUDYNAMICS_TYPE@@A ; current_flight_dynamics
  014a1	f3 0f 10 05 00
	00 00 00	 movss	 xmm0, DWORD PTR __real@bf800000
  014a9	f3 0f 11 80 a4
	23 00 00	 movss	 DWORD PTR [eax+9124], xmm0

; 538  : 	current_flight_dynamics->landing_quality.delta = -3.0;

  014b1	a1 00 00 00 00	 mov	 eax, DWORD PTR ?current_flight_dynamics@@3PAUDYNAMICS_TYPE@@A ; current_flight_dynamics
  014b6	f3 0f 10 05 00
	00 00 00	 movss	 xmm0, DWORD PTR __real@c0400000
  014be	f3 0f 11 80 a0
	23 00 00	 movss	 DWORD PTR [eax+9120], xmm0

; 539  : 	current_flight_dynamics->landing_quality.value = -7.0;

  014c6	a1 00 00 00 00	 mov	 eax, DWORD PTR ?current_flight_dynamics@@3PAUDYNAMICS_TYPE@@A ; current_flight_dynamics
  014cb	f3 0f 10 05 00
	00 00 00	 movss	 xmm0, DWORD PTR __real@c0e00000
  014d3	f3 0f 11 80 9c
	23 00 00	 movss	 DWORD PTR [eax+9116], xmm0

; 540  : 	current_flight_dynamics->landing_quality.max = -10.0;

  014db	a1 00 00 00 00	 mov	 eax, DWORD PTR ?current_flight_dynamics@@3PAUDYNAMICS_TYPE@@A ; current_flight_dynamics
  014e0	f3 0f 10 05 00
	00 00 00	 movss	 xmm0, DWORD PTR __real@c1200000
  014e8	f3 0f 11 80 a8
	23 00 00	 movss	 DWORD PTR [eax+9128], xmm0

; 541  : 
; 542  : 	// g force
; 543  : 
; 544  : 	current_flight_dynamics->g_force.value = 1.0;

  014f0	a1 00 00 00 00	 mov	 eax, DWORD PTR ?current_flight_dynamics@@3PAUDYNAMICS_TYPE@@A ; current_flight_dynamics
  014f5	f3 0f 10 05 00
	00 00 00	 movss	 xmm0, DWORD PTR __real@3f800000
  014fd	f3 0f 11 80 5c
	24 00 00	 movss	 DWORD PTR [eax+9308], xmm0

; 545  : 
; 546  : 	//
; 547  : 	// debug to start with engine on.
; 548  : 	//
; 549  : 
; 550  : 	// havoc 1
; 551  : 	// apache -1
; 552  : 
; 553  : 	current_flight_dynamics->rotor_rotation_direction = 1.0;

  01505	b8 01 00 00 00	 mov	 eax, 1
  0150a	8b 0d 00 00 00
	00		 mov	 ecx, DWORD PTR ?current_flight_dynamics@@3PAUDYNAMICS_TYPE@@A ; current_flight_dynamics
  01510	66 89 81 1c 25
	00 00		 mov	 WORD PTR [ecx+9500], ax

; 554  : 
; 555  : 	current_flight_dynamics->rotor_brake = TRUE;

  01517	a1 00 00 00 00	 mov	 eax, DWORD PTR ?current_flight_dynamics@@3PAUDYNAMICS_TYPE@@A ; current_flight_dynamics
  0151c	8b 88 28 25 00
	00		 mov	 ecx, DWORD PTR [eax+9512]
  01522	83 c9 20	 or	 ecx, 32			; 00000020H
  01525	8b 15 00 00 00
	00		 mov	 edx, DWORD PTR ?current_flight_dynamics@@3PAUDYNAMICS_TYPE@@A ; current_flight_dynamics
  0152b	89 8a 28 25 00
	00		 mov	 DWORD PTR [edx+9512], ecx

; 556  : 
; 557  : 	current_flight_dynamics->auto_hover = HOVER_HOLD_NONE;

  01531	a1 00 00 00 00	 mov	 eax, DWORD PTR ?current_flight_dynamics@@3PAUDYNAMICS_TYPE@@A ; current_flight_dynamics
  01536	8b 88 28 25 00
	00		 mov	 ecx, DWORD PTR [eax+9512]
  0153c	81 e1 7f fc ff
	ff		 and	 ecx, -897		; fffffc7fH
  01542	8b 15 00 00 00
	00		 mov	 edx, DWORD PTR ?current_flight_dynamics@@3PAUDYNAMICS_TYPE@@A ; current_flight_dynamics
  01548	89 8a 28 25 00
	00		 mov	 DWORD PTR [edx+9512], ecx

; 558  : 
; 559  : 	current_flight_dynamics->wheel_brake = TRUE;

  0154e	a1 00 00 00 00	 mov	 eax, DWORD PTR ?current_flight_dynamics@@3PAUDYNAMICS_TYPE@@A ; current_flight_dynamics
  01553	8b 88 28 25 00
	00		 mov	 ecx, DWORD PTR [eax+9512]
  01559	83 c9 40	 or	 ecx, 64			; 00000040H
  0155c	8b 15 00 00 00
	00		 mov	 edx, DWORD PTR ?current_flight_dynamics@@3PAUDYNAMICS_TYPE@@A ; current_flight_dynamics
  01562	89 8a 28 25 00
	00		 mov	 DWORD PTR [edx+9512], ecx

; 560  : 
; 561  : 	//if (get_local_entity_int_value (en, INT_TYPE_OPERATIONAL_STATE) != OPERATIONAL_STATE_LANDED)
; 562  : 	{
; 563  : 
; 564  : 		float
; 565  : 			Mrpm,
; 566  : 			Md,
; 567  : 			Pmax,
; 568  : 			Tl;
; 569  : 
; 570  : 		current_flight_dynamics->rotor_brake = FALSE;

  01568	a1 00 00 00 00	 mov	 eax, DWORD PTR ?current_flight_dynamics@@3PAUDYNAMICS_TYPE@@A ; current_flight_dynamics
  0156d	8b 88 28 25 00
	00		 mov	 ecx, DWORD PTR [eax+9512]
  01573	83 e1 df	 and	 ecx, -33		; ffffffdfH
  01576	8b 15 00 00 00
	00		 mov	 edx, DWORD PTR ?current_flight_dynamics@@3PAUDYNAMICS_TYPE@@A ; current_flight_dynamics
  0157c	89 8a 28 25 00
	00		 mov	 DWORD PTR [edx+9512], ecx

; 571  : 
; 572  : 		current_flight_dynamics->auto_hover = HOVER_HOLD_NONE;

  01582	a1 00 00 00 00	 mov	 eax, DWORD PTR ?current_flight_dynamics@@3PAUDYNAMICS_TYPE@@A ; current_flight_dynamics
  01587	8b 88 28 25 00
	00		 mov	 ecx, DWORD PTR [eax+9512]
  0158d	81 e1 7f fc ff
	ff		 and	 ecx, -897		; fffffc7fH
  01593	8b 15 00 00 00
	00		 mov	 edx, DWORD PTR ?current_flight_dynamics@@3PAUDYNAMICS_TYPE@@A ; current_flight_dynamics
  01599	89 8a 28 25 00
	00		 mov	 DWORD PTR [edx+9512], ecx

; 573  : 
; 574  : 		current_flight_dynamics->wheel_brake = FALSE;

  0159f	a1 00 00 00 00	 mov	 eax, DWORD PTR ?current_flight_dynamics@@3PAUDYNAMICS_TYPE@@A ; current_flight_dynamics
  015a4	8b 88 28 25 00
	00		 mov	 ecx, DWORD PTR [eax+9512]
  015aa	83 e1 bf	 and	 ecx, -65		; ffffffbfH
  015ad	8b 15 00 00 00
	00		 mov	 edx, DWORD PTR ?current_flight_dynamics@@3PAUDYNAMICS_TYPE@@A ; current_flight_dynamics
  015b3	89 8a 28 25 00
	00		 mov	 DWORD PTR [edx+9512], ecx

; 575  : 
; 576  : 		// cross coupling to match main rotor rpm
; 577  : 
; 578  : 		Mrpm = current_flight_dynamics->main_rotor_rpm.value;

  015b9	a1 00 00 00 00	 mov	 eax, DWORD PTR ?current_flight_dynamics@@3PAUDYNAMICS_TYPE@@A ; current_flight_dynamics
  015be	f3 0f 10 80 14
	1e 00 00	 movss	 xmm0, DWORD PTR [eax+7700]
  015c6	f3 0f 11 45 e8	 movss	 DWORD PTR _Mrpm$4[ebp], xmm0

; 579  : 
; 580  : 		Md = current_flight_dynamics->main_rotor_diameter.value;

  015cb	a1 00 00 00 00	 mov	 eax, DWORD PTR ?current_flight_dynamics@@3PAUDYNAMICS_TYPE@@A ; current_flight_dynamics
  015d0	f3 0f 10 80 9c
	1d 00 00	 movss	 xmm0, DWORD PTR [eax+7580]
  015d8	f3 0f 11 45 e4	 movss	 DWORD PTR _Md$3[ebp], xmm0

; 581  : 
; 582  : 		Pmax = current_flight_dynamics->tail_blade_pitch.max;

  015dd	a1 00 00 00 00	 mov	 eax, DWORD PTR ?current_flight_dynamics@@3PAUDYNAMICS_TYPE@@A ; current_flight_dynamics
  015e2	f3 0f 10 80 a0
	1f 00 00	 movss	 xmm0, DWORD PTR [eax+8096]
  015ea	f3 0f 11 45 e0	 movss	 DWORD PTR _Pmax$2[ebp], xmm0

; 583  : 
; 584  : 		Tl = current_flight_dynamics->tail_boom_length.value;

  015ef	a1 00 00 00 00	 mov	 eax, DWORD PTR ?current_flight_dynamics@@3PAUDYNAMICS_TYPE@@A ; current_flight_dynamics
  015f4	f3 0f 10 80 ac
	1f 00 00	 movss	 xmm0, DWORD PTR [eax+8108]
  015fc	f3 0f 11 45 dc	 movss	 DWORD PTR _Tl$1[ebp], xmm0

; 585  : 
; 586  : 		current_flight_dynamics->cross_coupling_effect.value = (((200 * PI * Mrpm * Md * Pmax) / (1649 * Tl))) / (Pmax);

  01601	f3 0f 10 05 00
	00 00 00	 movss	 xmm0, DWORD PTR __real@441d1463
  01609	f3 0f 59 45 e8	 mulss	 xmm0, DWORD PTR _Mrpm$4[ebp]
  0160e	f3 0f 59 45 e4	 mulss	 xmm0, DWORD PTR _Md$3[ebp]
  01613	f3 0f 59 45 e0	 mulss	 xmm0, DWORD PTR _Pmax$2[ebp]
  01618	f3 0f 10 0d 00
	00 00 00	 movss	 xmm1, DWORD PTR __real@44ce2000
  01620	f3 0f 59 4d dc	 mulss	 xmm1, DWORD PTR _Tl$1[ebp]
  01625	f3 0f 5e c1	 divss	 xmm0, xmm1
  01629	f3 0f 5e 45 e0	 divss	 xmm0, DWORD PTR _Pmax$2[ebp]
  0162e	a1 00 00 00 00	 mov	 eax, DWORD PTR ?current_flight_dynamics@@3PAUDYNAMICS_TYPE@@A ; current_flight_dynamics
  01633	f3 0f 11 80 c4
	1f 00 00	 movss	 DWORD PTR [eax+8132], xmm0

; 587  : 	}
; 588  : 
; 589  : 	right_g_e_force = 0.0;

  0163b	0f 57 c0	 xorps	 xmm0, xmm0
  0163e	f3 0f 11 05 00
	00 00 00	 movss	 DWORD PTR ?right_g_e_force@@3MA, xmm0

; 590  : 	left_g_e_force = 0.0;

  01646	0f 57 c0	 xorps	 xmm0, xmm0
  01649	f3 0f 11 05 00
	00 00 00	 movss	 DWORD PTR ?left_g_e_force@@3MA, xmm0

; 591  : 	back_g_e_force = 0.0;

  01651	0f 57 c0	 xorps	 xmm0, xmm0
  01654	f3 0f 11 05 00
	00 00 00	 movss	 DWORD PTR ?back_g_e_force@@3MA, xmm0

; 592  : 	front_g_e_force = 0.0;

  0165c	0f 57 c0	 xorps	 xmm0, xmm0
  0165f	f3 0f 11 05 00
	00 00 00	 movss	 DWORD PTR ?front_g_e_force@@3MA, xmm0

; 593  : 	this_reaction_force = 0.0;

  01667	0f 57 c0	 xorps	 xmm0, xmm0
  0166a	f3 0f 11 05 00
	00 00 00	 movss	 DWORD PTR ?this_reaction_force@@3MA, xmm0

; 594  : }

  01672	5f		 pop	 edi
  01673	5e		 pop	 esi
  01674	5b		 pop	 ebx
  01675	8b e5		 mov	 esp, ebp
  01677	5d		 pop	 ebp
  01678	c2 04 00	 ret	 4
?set_dynamics_defaults@@YGXPAUENTITY@@@Z ENDP		; set_dynamics_defaults
_TEXT	ENDS
; Function compile flags: /Odtp /ZI
; File c:\program files (x86)\microsoft visual studio\2017\community\vc\tools\msvc\14.16.27023\include\cmath
;	COMDAT ?sin@@YGMM@Z
_TEXT	SEGMENT
__Xx$ = 8						; size = 4
?sin@@YGMM@Z PROC					; sin, COMDAT

; 284  : 	{

  00000	55		 push	 ebp
  00001	8b ec		 mov	 ebp, esp
  00003	83 ec 40	 sub	 esp, 64			; 00000040H
  00006	53		 push	 ebx
  00007	56		 push	 esi
  00008	57		 push	 edi

; 285  : 	return (_CSTD sinf(_Xx));

  00009	51		 push	 ecx
  0000a	f3 0f 10 45 08	 movss	 xmm0, DWORD PTR __Xx$[ebp]
  0000f	f3 0f 11 04 24	 movss	 DWORD PTR [esp], xmm0
  00014	e8 00 00 00 00	 call	 _sinf
  00019	83 c4 04	 add	 esp, 4

; 286  : 	}

  0001c	5f		 pop	 edi
  0001d	5e		 pop	 esi
  0001e	5b		 pop	 ebx
  0001f	8b e5		 mov	 esp, ebp
  00021	5d		 pop	 ebp
  00022	c2 04 00	 ret	 4
?sin@@YGMM@Z ENDP					; sin
_TEXT	ENDS
; Function compile flags: /Odtp /ZI
; File c:\program files (x86)\microsoft visual studio\2017\community\vc\tools\msvc\14.16.27023\include\cmath
;	COMDAT ?pow@@YGMMH@Z
_TEXT	SEGMENT
tv74 = -68						; size = 4
__Xx$ = 8						; size = 4
__Yx$ = 12						; size = 4
?pow@@YGMMH@Z PROC					; pow, COMDAT

; 245  : 	{

  00000	55		 push	 ebp
  00001	8b ec		 mov	 ebp, esp
  00003	83 ec 44	 sub	 esp, 68			; 00000044H
  00006	53		 push	 ebx
  00007	56		 push	 esi
  00008	57		 push	 edi

; 246  : 	if (_Yx == 2)

  00009	83 7d 0c 02	 cmp	 DWORD PTR __Yx$[ebp], 2
  0000d	75 14		 jne	 SHORT $LN2@pow

; 247  : 		return (_Xx * _Xx);

  0000f	f3 0f 10 45 08	 movss	 xmm0, DWORD PTR __Xx$[ebp]
  00014	f3 0f 59 45 08	 mulss	 xmm0, DWORD PTR __Xx$[ebp]
  00019	f3 0f 11 45 bc	 movss	 DWORD PTR tv74[ebp], xmm0
  0001e	d9 45 bc	 fld	 DWORD PTR tv74[ebp]
  00021	eb 1e		 jmp	 SHORT $LN1@pow
$LN2@pow:

; 248  : 
; 249  : 	return (_CSTD powf(_Xx, static_cast<float>(_Yx)));

  00023	f3 0f 2a 45 0c	 cvtsi2ss xmm0, DWORD PTR __Yx$[ebp]
  00028	51		 push	 ecx
  00029	f3 0f 11 04 24	 movss	 DWORD PTR [esp], xmm0
  0002e	51		 push	 ecx
  0002f	f3 0f 10 45 08	 movss	 xmm0, DWORD PTR __Xx$[ebp]
  00034	f3 0f 11 04 24	 movss	 DWORD PTR [esp], xmm0
  00039	e8 00 00 00 00	 call	 _powf
  0003e	83 c4 08	 add	 esp, 8
$LN1@pow:

; 250  : 	}

  00041	5f		 pop	 edi
  00042	5e		 pop	 esi
  00043	5b		 pop	 ebx
  00044	8b e5		 mov	 esp, ebp
  00046	5d		 pop	 ebp
  00047	c2 08 00	 ret	 8
?pow@@YGMMH@Z ENDP					; pow
_TEXT	ENDS
; Function compile flags: /Odtp /ZI
; File c:\program files (x86)\microsoft visual studio\2017\community\vc\tools\msvc\14.16.27023\include\cmath
;	COMDAT ?pow@@YGMMM@Z
_TEXT	SEGMENT
__Xx$ = 8						; size = 4
__Yx$ = 12						; size = 4
?pow@@YGMMM@Z PROC					; pow, COMDAT

; 240  : 	{

  00000	55		 push	 ebp
  00001	8b ec		 mov	 ebp, esp
  00003	83 ec 40	 sub	 esp, 64			; 00000040H
  00006	53		 push	 ebx
  00007	56		 push	 esi
  00008	57		 push	 edi

; 241  : 	return (_CSTD powf(_Xx, _Yx));

  00009	51		 push	 ecx
  0000a	f3 0f 10 45 0c	 movss	 xmm0, DWORD PTR __Yx$[ebp]
  0000f	f3 0f 11 04 24	 movss	 DWORD PTR [esp], xmm0
  00014	51		 push	 ecx
  00015	f3 0f 10 45 08	 movss	 xmm0, DWORD PTR __Xx$[ebp]
  0001a	f3 0f 11 04 24	 movss	 DWORD PTR [esp], xmm0
  0001f	e8 00 00 00 00	 call	 _powf
  00024	83 c4 08	 add	 esp, 8

; 242  : 	}

  00027	5f		 pop	 edi
  00028	5e		 pop	 esi
  00029	5b		 pop	 ebx
  0002a	8b e5		 mov	 esp, ebp
  0002c	5d		 pop	 ebp
  0002d	c2 08 00	 ret	 8
?pow@@YGMMM@Z ENDP					; pow
_TEXT	ENDS
; Function compile flags: /Odtp /ZI
; File c:\program files (x86)\microsoft visual studio\2017\community\vc\tools\msvc\14.16.27023\include\cmath
;	COMDAT ?fabs@@YGMM@Z
_TEXT	SEGMENT
__Xx$ = 8						; size = 4
?fabs@@YGMM@Z PROC					; fabs, COMDAT

; 112  : 	{

  00000	55		 push	 ebp
  00001	8b ec		 mov	 ebp, esp
  00003	83 ec 40	 sub	 esp, 64			; 00000040H
  00006	53		 push	 ebx
  00007	56		 push	 esi
  00008	57		 push	 edi

; 113  : 	return (_CSTD fabsf(_Xx));

  00009	51		 push	 ecx
  0000a	f3 0f 10 45 08	 movss	 xmm0, DWORD PTR __Xx$[ebp]
  0000f	f3 0f 11 04 24	 movss	 DWORD PTR [esp], xmm0
  00014	e8 00 00 00 00	 call	 _fabsf
  00019	83 c4 04	 add	 esp, 4

; 114  : 	}

  0001c	5f		 pop	 edi
  0001d	5e		 pop	 esi
  0001e	5b		 pop	 ebx
  0001f	8b e5		 mov	 esp, ebp
  00021	5d		 pop	 ebp
  00022	c2 04 00	 ret	 4
?fabs@@YGMM@Z ENDP					; fabs
_TEXT	ENDS
; Function compile flags: /Odtp /ZI
; File c:\program files (x86)\microsoft visual studio\2017\community\vc\tools\msvc\14.16.27023\include\cmath
;	COMDAT ?asin@@YGMM@Z
_TEXT	SEGMENT
__Xx$ = 8						; size = 4
?asin@@YGMM@Z PROC					; asin, COMDAT

; 36   : 	{

  00000	55		 push	 ebp
  00001	8b ec		 mov	 ebp, esp
  00003	83 ec 40	 sub	 esp, 64			; 00000040H
  00006	53		 push	 ebx
  00007	56		 push	 esi
  00008	57		 push	 edi

; 37   : 	return (_CSTD asinf(_Xx));

  00009	51		 push	 ecx
  0000a	f3 0f 10 45 08	 movss	 xmm0, DWORD PTR __Xx$[ebp]
  0000f	f3 0f 11 04 24	 movss	 DWORD PTR [esp], xmm0
  00014	e8 00 00 00 00	 call	 _asinf
  00019	83 c4 04	 add	 esp, 4

; 38   : 	}

  0001c	5f		 pop	 edi
  0001d	5e		 pop	 esi
  0001e	5b		 pop	 ebx
  0001f	8b e5		 mov	 esp, ebp
  00021	5d		 pop	 ebp
  00022	c2 04 00	 ret	 4
?asin@@YGMM@Z ENDP					; asin
_TEXT	ENDS
; Function compile flags: /Odtp /ZI
; File c:\program files (x86)\microsoft visual studio\2017\community\vc\tools\msvc\14.16.27023\include\cmath
;	COMDAT ?pow@@YGNNH@Z
_TEXT	SEGMENT
tv74 = -72						; size = 8
__Xx$ = 8						; size = 8
__Yx$ = 16						; size = 4
?pow@@YGNNH@Z PROC					; pow, COMDAT

; 18   : 	{

  00000	55		 push	 ebp
  00001	8b ec		 mov	 ebp, esp
  00003	83 ec 48	 sub	 esp, 72			; 00000048H
  00006	53		 push	 ebx
  00007	56		 push	 esi
  00008	57		 push	 edi

; 19   : 	if (_Yx == 2)

  00009	83 7d 10 02	 cmp	 DWORD PTR __Yx$[ebp], 2
  0000d	75 14		 jne	 SHORT $LN2@pow

; 20   : 		return (_Xx * _Xx);

  0000f	f2 0f 10 45 08	 movsd	 xmm0, QWORD PTR __Xx$[ebp]
  00014	f2 0f 59 45 08	 mulsd	 xmm0, QWORD PTR __Xx$[ebp]
  00019	f2 0f 11 45 b8	 movsd	 QWORD PTR tv74[ebp], xmm0
  0001e	dd 45 b8	 fld	 QWORD PTR tv74[ebp]
  00021	eb 22		 jmp	 SHORT $LN1@pow
$LN2@pow:

; 21   : 
; 22   : 	return (_CSTD pow(_Xx, static_cast<double>(_Yx)));

  00023	f2 0f 2a 45 10	 cvtsi2sd xmm0, DWORD PTR __Yx$[ebp]
  00028	83 ec 08	 sub	 esp, 8
  0002b	f2 0f 11 04 24	 movsd	 QWORD PTR [esp], xmm0
  00030	83 ec 08	 sub	 esp, 8
  00033	f2 0f 10 45 08	 movsd	 xmm0, QWORD PTR __Xx$[ebp]
  00038	f2 0f 11 04 24	 movsd	 QWORD PTR [esp], xmm0
  0003d	e8 00 00 00 00	 call	 _pow
  00042	83 c4 10	 add	 esp, 16			; 00000010H
$LN1@pow:

; 23   : 	}

  00045	5f		 pop	 edi
  00046	5e		 pop	 esi
  00047	5b		 pop	 ebx
  00048	8b e5		 mov	 esp, ebp
  0004a	5d		 pop	 ebp
  0004b	c2 0c 00	 ret	 12			; 0000000cH
?pow@@YGNNH@Z ENDP					; pow
_TEXT	ENDS
; Function compile flags: /Odtp /ZI
; File c:\program files (x86)\windows kits\10\include\10.0.18362.0\ucrt\corecrt_math.h
;	COMDAT _sinf
_TEXT	SEGMENT
tv71 = -68						; size = 4
__X$ = 8						; size = 4
_sinf	PROC						; COMDAT

; 749  :         {

  00000	55		 push	 ebp
  00001	8b ec		 mov	 ebp, esp
  00003	83 ec 44	 sub	 esp, 68			; 00000044H
  00006	53		 push	 ebx
  00007	56		 push	 esi
  00008	57		 push	 edi

; 750  :             return (float)sin(_X);

  00009	f3 0f 5a 45 08	 cvtss2sd xmm0, DWORD PTR __X$[ebp]
  0000e	83 ec 08	 sub	 esp, 8
  00011	f2 0f 11 04 24	 movsd	 QWORD PTR [esp], xmm0
  00016	e8 00 00 00 00	 call	 _sin
  0001b	83 c4 08	 add	 esp, 8
  0001e	d9 5d bc	 fstp	 DWORD PTR tv71[ebp]
  00021	d9 45 bc	 fld	 DWORD PTR tv71[ebp]

; 751  :         }

  00024	5f		 pop	 edi
  00025	5e		 pop	 esi
  00026	5b		 pop	 ebx
  00027	8b e5		 mov	 esp, ebp
  00029	5d		 pop	 ebp
  0002a	c3		 ret	 0
_sinf	ENDP
_TEXT	ENDS
; Function compile flags: /Odtp /ZI
; File c:\program files (x86)\windows kits\10\include\10.0.18362.0\ucrt\corecrt_math.h
;	COMDAT _powf
_TEXT	SEGMENT
tv74 = -68						; size = 4
__X$ = 8						; size = 4
__Y$ = 12						; size = 4
_powf	PROC						; COMDAT

; 744  :         {

  00000	55		 push	 ebp
  00001	8b ec		 mov	 ebp, esp
  00003	83 ec 44	 sub	 esp, 68			; 00000044H
  00006	53		 push	 ebx
  00007	56		 push	 esi
  00008	57		 push	 edi

; 745  :             return (float)pow(_X, _Y);

  00009	f3 0f 5a 45 0c	 cvtss2sd xmm0, DWORD PTR __Y$[ebp]
  0000e	83 ec 08	 sub	 esp, 8
  00011	f2 0f 11 04 24	 movsd	 QWORD PTR [esp], xmm0
  00016	f3 0f 5a 45 08	 cvtss2sd xmm0, DWORD PTR __X$[ebp]
  0001b	83 ec 08	 sub	 esp, 8
  0001e	f2 0f 11 04 24	 movsd	 QWORD PTR [esp], xmm0
  00023	e8 00 00 00 00	 call	 _pow
  00028	83 c4 10	 add	 esp, 16			; 00000010H
  0002b	d9 5d bc	 fstp	 DWORD PTR tv74[ebp]
  0002e	d9 45 bc	 fld	 DWORD PTR tv74[ebp]

; 746  :         }

  00031	5f		 pop	 edi
  00032	5e		 pop	 esi
  00033	5b		 pop	 ebx
  00034	8b e5		 mov	 esp, ebp
  00036	5d		 pop	 ebp
  00037	c3		 ret	 0
_powf	ENDP
_TEXT	ENDS
; Function compile flags: /Odtp /ZI
; File c:\program files (x86)\windows kits\10\include\10.0.18362.0\ucrt\corecrt_math.h
;	COMDAT _fabsf
_TEXT	SEGMENT
tv71 = -68						; size = 4
__X$ = 8						; size = 4
_fabsf	PROC						; COMDAT

; 671  :         {

  00000	55		 push	 ebp
  00001	8b ec		 mov	 ebp, esp
  00003	83 ec 44	 sub	 esp, 68			; 00000044H
  00006	53		 push	 ebx
  00007	56		 push	 esi
  00008	57		 push	 edi

; 672  :             return (float)fabs(_X);

  00009	f3 0f 5a 45 08	 cvtss2sd xmm0, DWORD PTR __X$[ebp]
  0000e	83 ec 08	 sub	 esp, 8
  00011	f2 0f 11 04 24	 movsd	 QWORD PTR [esp], xmm0
  00016	e8 00 00 00 00	 call	 _fabs
  0001b	83 c4 08	 add	 esp, 8
  0001e	d9 5d bc	 fstp	 DWORD PTR tv71[ebp]
  00021	d9 45 bc	 fld	 DWORD PTR tv71[ebp]

; 673  :         }

  00024	5f		 pop	 edi
  00025	5e		 pop	 esi
  00026	5b		 pop	 ebx
  00027	8b e5		 mov	 esp, ebp
  00029	5d		 pop	 ebp
  0002a	c3		 ret	 0
_fabsf	ENDP
_TEXT	ENDS
; Function compile flags: /Odtp /ZI
; File c:\program files (x86)\windows kits\10\include\10.0.18362.0\ucrt\corecrt_math.h
;	COMDAT _asinf
_TEXT	SEGMENT
tv71 = -68						; size = 4
__X$ = 8						; size = 4
_asinf	PROC						; COMDAT

; 628  :         {

  00000	55		 push	 ebp
  00001	8b ec		 mov	 ebp, esp
  00003	83 ec 44	 sub	 esp, 68			; 00000044H
  00006	53		 push	 ebx
  00007	56		 push	 esi
  00008	57		 push	 edi

; 629  :             return (float)asin(_X);

  00009	f3 0f 5a 45 08	 cvtss2sd xmm0, DWORD PTR __X$[ebp]
  0000e	83 ec 08	 sub	 esp, 8
  00011	f2 0f 11 04 24	 movsd	 QWORD PTR [esp], xmm0
  00016	e8 00 00 00 00	 call	 _asin
  0001b	83 c4 08	 add	 esp, 8
  0001e	d9 5d bc	 fstp	 DWORD PTR tv71[ebp]
  00021	d9 45 bc	 fld	 DWORD PTR tv71[ebp]

; 630  :         }

  00024	5f		 pop	 edi
  00025	5e		 pop	 esi
  00026	5b		 pop	 ebx
  00027	8b e5		 mov	 esp, ebp
  00029	5d		 pop	 ebp
  0002a	c3		 ret	 0
_asinf	ENDP
_TEXT	ENDS
; Function compile flags: /Odtp /ZI
; File c:\program files (x86)\windows kits\10\include\10.0.18362.0\ucrt\stdio.h
;	COMDAT _sprintf
_TEXT	SEGMENT
__ArgList$ = -8						; size = 4
__Result$ = -4						; size = 4
__Buffer$ = 8						; size = 4
__Format$ = 12						; size = 4
_sprintf PROC						; COMDAT

; 1781 :     {

  00000	55		 push	 ebp
  00001	8b ec		 mov	 ebp, esp
  00003	83 ec 4c	 sub	 esp, 76			; 0000004cH
  00006	53		 push	 ebx
  00007	56		 push	 esi
  00008	57		 push	 edi

; 1782 :         int _Result;
; 1783 :         va_list _ArgList;
; 1784 :         __crt_va_start(_ArgList, _Format);

  00009	8d 45 10	 lea	 eax, DWORD PTR __Format$[ebp+4]
  0000c	89 45 f8	 mov	 DWORD PTR __ArgList$[ebp], eax

; 1785 : 
; 1786 :         #pragma warning(push)
; 1787 :         #pragma warning(disable: 4996) // Deprecation
; 1788 :         _Result = _vsprintf_l(_Buffer, _Format, NULL, _ArgList);

  0000f	8b 45 f8	 mov	 eax, DWORD PTR __ArgList$[ebp]
  00012	50		 push	 eax
  00013	6a 00		 push	 0
  00015	8b 4d 0c	 mov	 ecx, DWORD PTR __Format$[ebp]
  00018	51		 push	 ecx
  00019	8b 55 08	 mov	 edx, DWORD PTR __Buffer$[ebp]
  0001c	52		 push	 edx
  0001d	e8 00 00 00 00	 call	 __vsprintf_l
  00022	83 c4 10	 add	 esp, 16			; 00000010H
  00025	89 45 fc	 mov	 DWORD PTR __Result$[ebp], eax

; 1789 :         #pragma warning(pop)
; 1790 : 
; 1791 :         __crt_va_end(_ArgList);

  00028	c7 45 f8 00 00
	00 00		 mov	 DWORD PTR __ArgList$[ebp], 0

; 1792 :         return _Result;

  0002f	8b 45 fc	 mov	 eax, DWORD PTR __Result$[ebp]

; 1793 :     }

  00032	5f		 pop	 edi
  00033	5e		 pop	 esi
  00034	5b		 pop	 ebx
  00035	8b e5		 mov	 esp, ebp
  00037	5d		 pop	 ebp
  00038	c3		 ret	 0
_sprintf ENDP
_TEXT	ENDS
; Function compile flags: /Odtp /ZI
; File c:\program files (x86)\windows kits\10\include\10.0.18362.0\ucrt\stdio.h
;	COMDAT __vsprintf_l
_TEXT	SEGMENT
__Buffer$ = 8						; size = 4
__Format$ = 12						; size = 4
__Locale$ = 16						; size = 4
__ArgList$ = 20						; size = 4
__vsprintf_l PROC					; COMDAT

; 1459 :     {

  00000	55		 push	 ebp
  00001	8b ec		 mov	 ebp, esp
  00003	83 ec 40	 sub	 esp, 64			; 00000040H
  00006	53		 push	 ebx
  00007	56		 push	 esi
  00008	57		 push	 edi

; 1460 :         #pragma warning(push)
; 1461 :         #pragma warning(disable: 4996) // Deprecation
; 1462 :         return _vsnprintf_l(_Buffer, (size_t)-1, _Format, _Locale, _ArgList);

  00009	8b 45 14	 mov	 eax, DWORD PTR __ArgList$[ebp]
  0000c	50		 push	 eax
  0000d	8b 4d 10	 mov	 ecx, DWORD PTR __Locale$[ebp]
  00010	51		 push	 ecx
  00011	8b 55 0c	 mov	 edx, DWORD PTR __Format$[ebp]
  00014	52		 push	 edx
  00015	6a ff		 push	 -1
  00017	8b 45 08	 mov	 eax, DWORD PTR __Buffer$[ebp]
  0001a	50		 push	 eax
  0001b	e8 00 00 00 00	 call	 __vsnprintf_l
  00020	83 c4 14	 add	 esp, 20			; 00000014H

; 1463 :         #pragma warning(pop)
; 1464 :     }

  00023	5f		 pop	 edi
  00024	5e		 pop	 esi
  00025	5b		 pop	 ebx
  00026	8b e5		 mov	 esp, ebp
  00028	5d		 pop	 ebp
  00029	c3		 ret	 0
__vsprintf_l ENDP
_TEXT	ENDS
; Function compile flags: /Odtp /ZI
; File c:\program files (x86)\windows kits\10\include\10.0.18362.0\ucrt\stdio.h
;	COMDAT __vsnprintf_l
_TEXT	SEGMENT
tv74 = -72						; size = 4
__Result$ = -4						; size = 4
__Buffer$ = 8						; size = 4
__BufferCount$ = 12					; size = 4
__Format$ = 16						; size = 4
__Locale$ = 20						; size = 4
__ArgList$ = 24						; size = 4
__vsnprintf_l PROC					; COMDAT

; 1389 :     {

  00000	55		 push	 ebp
  00001	8b ec		 mov	 ebp, esp
  00003	83 ec 48	 sub	 esp, 72			; 00000048H
  00006	53		 push	 ebx
  00007	56		 push	 esi
  00008	57		 push	 edi

; 1390 :         int const _Result = __stdio_common_vsprintf(

  00009	8b 45 18	 mov	 eax, DWORD PTR __ArgList$[ebp]
  0000c	50		 push	 eax
  0000d	8b 4d 14	 mov	 ecx, DWORD PTR __Locale$[ebp]
  00010	51		 push	 ecx
  00011	8b 55 10	 mov	 edx, DWORD PTR __Format$[ebp]
  00014	52		 push	 edx
  00015	8b 45 0c	 mov	 eax, DWORD PTR __BufferCount$[ebp]
  00018	50		 push	 eax
  00019	8b 4d 08	 mov	 ecx, DWORD PTR __Buffer$[ebp]
  0001c	51		 push	 ecx
  0001d	e8 00 00 00 00	 call	 ___local_stdio_printf_options
  00022	8b 10		 mov	 edx, DWORD PTR [eax]
  00024	83 ca 01	 or	 edx, 1
  00027	8b 40 04	 mov	 eax, DWORD PTR [eax+4]
  0002a	50		 push	 eax
  0002b	52		 push	 edx
  0002c	ff 15 00 00 00
	00		 call	 DWORD PTR __imp____stdio_common_vsprintf
  00032	83 c4 1c	 add	 esp, 28			; 0000001cH
  00035	89 45 fc	 mov	 DWORD PTR __Result$[ebp], eax

; 1391 :             _CRT_INTERNAL_LOCAL_PRINTF_OPTIONS | _CRT_INTERNAL_PRINTF_LEGACY_VSPRINTF_NULL_TERMINATION,
; 1392 :             _Buffer, _BufferCount, _Format, _Locale, _ArgList);
; 1393 : 
; 1394 :         return _Result < 0 ? -1 : _Result;

  00038	83 7d fc 00	 cmp	 DWORD PTR __Result$[ebp], 0
  0003c	7d 09		 jge	 SHORT $LN3@vsnprintf_
  0003e	c7 45 b8 ff ff
	ff ff		 mov	 DWORD PTR tv74[ebp], -1
  00045	eb 06		 jmp	 SHORT $LN4@vsnprintf_
$LN3@vsnprintf_:
  00047	8b 45 fc	 mov	 eax, DWORD PTR __Result$[ebp]
  0004a	89 45 b8	 mov	 DWORD PTR tv74[ebp], eax
$LN4@vsnprintf_:
  0004d	8b 45 b8	 mov	 eax, DWORD PTR tv74[ebp]

; 1395 :     }

  00050	5f		 pop	 edi
  00051	5e		 pop	 esi
  00052	5b		 pop	 ebx
  00053	8b e5		 mov	 esp, ebp
  00055	5d		 pop	 ebp
  00056	c3		 ret	 0
__vsnprintf_l ENDP
_TEXT	ENDS
; Function compile flags: /Odtp /ZI
; File c:\program files (x86)\windows kits\10\include\10.0.18362.0\ucrt\corecrt_stdio_config.h
;	COMDAT ___local_stdio_printf_options
_TEXT	SEGMENT
___local_stdio_printf_options PROC			; COMDAT

; 86   :     {

  00000	55		 push	 ebp
  00001	8b ec		 mov	 ebp, esp
  00003	83 ec 40	 sub	 esp, 64			; 00000040H
  00006	53		 push	 ebx
  00007	56		 push	 esi
  00008	57		 push	 edi

; 87   :         static unsigned __int64 _OptionsStorage;
; 88   :         return &_OptionsStorage;

  00009	b8 00 00 00 00	 mov	 eax, OFFSET ?_OptionsStorage@?1??__local_stdio_printf_options@@9@4_KA ; `__local_stdio_printf_options'::`2'::_OptionsStorage

; 89   :     }

  0000e	5f		 pop	 edi
  0000f	5e		 pop	 esi
  00010	5b		 pop	 ebx
  00011	8b e5		 mov	 esp, ebp
  00013	5d		 pop	 ebp
  00014	c3		 ret	 0
___local_stdio_printf_options ENDP
_TEXT	ENDS
END
