; Listing generated by Microsoft (R) Optimizing Compiler Version 19.16.27045.0 

	TITLE	C:\Users\nhv90\Projects\eech\aphavoc\source\init.c
	.686P
	.XMM
	include listing.inc
	.model	flat

INCLUDELIB MSVCRTD
INCLUDELIB OLDNAMES

PUBLIC	___local_stdio_printf_options
PUBLIC	__vsnprintf_l
PUBLIC	__vsprintf_l
PUBLIC	_sprintf
PUBLIC	?brief_initialise_game@@YGXXZ			; brief_initialise_game
PUBLIC	?full_initialise_game@@YGXXZ			; full_initialise_game
PUBLIC	?_OptionsStorage@?1??__local_stdio_printf_options@@9@4_KA ; `__local_stdio_printf_options'::`2'::_OptionsStorage
PUBLIC	??_C@_0DM@IMPDMHAB@Game?5status?5?5?5?5?5?5?5?5?5?5?5?5?5?5?5?5?5?5?5?5@ ; `string'
PUBLIC	??_C@_0DM@CEBOBOID@Comms?5model?5?5?5?5?5?5?5?5?5?5?5?5?5?5?5?5?5?5?5?5@ ; `string'
PUBLIC	??_C@_0BL@EJHDCBGJ@Initialising?5memory?5system@ ; `string'
PUBLIC	??_C@_0BK@HKNBPAMD@Installing?5graphics?5files@	; `string'
PUBLIC	??_C@_0BH@NJCNFMHJ@Opening?5graphics?5files@	; `string'
PUBLIC	??_C@_0BH@NEDABEEH@Installing?5event?5stack@	; `string'
PUBLIC	??_C@_0O@GKFCJLDC@Installing?5ui@		; `string'
PUBLIC	??_C@_09NMJHJDNG@ui?5events@			; `string'
PUBLIC	??_C@_0BH@EKHBBBDG@Initialising?5ui?5system@	; `string'
PUBLIC	??_C@_0BF@JBEJJLMA@Initialising?5ui?5font@	; `string'
PUBLIC	??_C@_0BI@MKOKAIKP@Initialising?5ui?5objects@	; `string'
PUBLIC	??_C@_0BG@LOFCCDEL@Initialising?5ui?5menus@	; `string'
PUBLIC	??_C@_0BJ@KPCNALIB@Initialising?5ui?5mouseptr@	; `string'
PUBLIC	??_C@_0BH@MEPKBEGH@Finished?5brief?5install@	; `string'
PUBLIC	??_C@_00CNPNBAHC@@				; `string'
PUBLIC	??_C@_07NGFJPNPN@Version@			; `string'
PUBLIC	??_C@_0BA@DAKHGCJL@?$CFs?3?5?$CFd?4?$CFd?4?$CFd?5?$CFs@ ; `string'
PUBLIC	??_C@_0BP@JIFNHJIE@First?5time?5graphics?5conversion@ ; `string'
PUBLIC	??_C@_0BP@LEBDOIIE@First?5Time?5Graphics?5Conversion@ ; `string'
PUBLIC	??_C@_07BINAGFIJ@Loading@			; `string'
PUBLIC	??_C@_07MPOFAFAC@?$CFs?4?4?4?$CFs@		; `string'
PUBLIC	??_C@_0P@DJAEGCPL@?$CFs?4?4?4?$CFs?5?$CF?40f?$CF?$CF@ ; `string'
PUBLIC	??_C@_03DMMBGDPD@WUT@				; `string'
PUBLIC	??_C@_06DJHOIPC@?$CFs?3?5?$CFs@			; `string'
PUBLIC	??_C@_04OKGDLNCL@NONE@				; `string'
PUBLIC	??_C@_08MKHMICKL@Graphics@			; `string'
PUBLIC	??_C@_0N@IFNFAIGC@Maps?5enabled@		; `string'
PUBLIC	??_C@_0BB@HEJBBAJC@Apache?5Havoc?3?5?$CFs@	; `string'
PUBLIC	??_C@_0N@MPFKLIBG@MP_INSTALLED@			; `string'
PUBLIC	??_C@_0BL@LJJOBPMF@Initialising?5maths?5library@ ; `string'
PUBLIC	??_C@_05PPCCJOHF@Maths@				; `string'
PUBLIC	??_C@_0BG@KNOFNEA@Initialising?5CD?5audio@	; `string'
PUBLIC	??_C@_06LAKEHGMF@CD?5Rom@			; `string'
PUBLIC	??_C@_0BH@CAHILLDK@Initialising?5joysticks@	; `string'
PUBLIC	??_C@_08CJCDADNL@Joystick@			; `string'
PUBLIC	??_C@_0BF@EFGAEBMF@Initialising?5trackIR@	; `string'
PUBLIC	??_C@_07DGJNDEFB@TrackIR@			; `string'
PUBLIC	??_C@_0BL@HFMACMOL@Initialising?5Shared?5Memory@ ; `string'
PUBLIC	??_C@_0O@CNNKHHKK@Shared?5Memory@		; `string'
PUBLIC	??_C@_0CD@NEJPKGMB@Failed?5to?5initialise?5shared?5mem@ ; `string'
PUBLIC	??_C@_0CC@CEACECHK@Initialising?5update?5function?5li@ ; `string'
PUBLIC	??_C@_06LMAGPFNF@Update@			; `string'
PUBLIC	??_C@_0BJ@OLNHCFI@Initialising?5direct?5play@	; `string'
PUBLIC	??_C@_0N@NPHLGAAO@Comms?5System@		; `string'
PUBLIC	??_C@_0M@OOPKIANM@cohokum?4exe@			; `string'
PUBLIC	??_C@_0P@NFMEDLKH@COMANCHE?5HOKUM@		; `string'
PUBLIC	??_C@_0BL@BIDEGNOI@Initialising?5comms?5manager@ ; `string'
PUBLIC	??_C@_0BK@FCALFFLF@Initialising?5sound?5system@	; `string'
PUBLIC	??_C@_0N@FMNPHHOB@Sound?5System@		; `string'
PUBLIC	??_C@_0BH@CIJKIBIG@Initialising?53d?5system@	; `string'
PUBLIC	??_C@_09BPMJIADJ@3D?5System@			; `string'
PUBLIC	??_C@_0BL@HKDCEPLJ@Installing?5file?5tag?5system@ ; `string'
PUBLIC	??_C@_0L@FJDOBPBG@Tag?5System@			; `string'
PUBLIC	??_C@_0L@IBNOOMAD@UI?5Manager@			; `string'
PUBLIC	??_C@_0BL@OJPJONJF@Initialising?5entity?5system@ ; `string'
PUBLIC	??_C@_0P@KIPJNODB@System?5Manager@		; `string'
PUBLIC	??_C@_0BH@GEDEDAKE@Initialising?5ai?5system@	; `string'
PUBLIC	??_C@_09BMDKDCML@AI?5System@			; `string'
PUBLIC	??_C@_0CB@HCMAOGFE@Initialising?5user?5defined?5event@ ; `string'
PUBLIC	??_C@_0BJ@GLOEDMEI@Initialising?5player?5list@	; `string'
PUBLIC	??_C@_07OLBIDKLK@Players@			; `string'
PUBLIC	??_C@_0BE@HGKBBAIB@reading?5WUT?5file?5?$CFs@	; `string'
PUBLIC	??_C@_0BP@KBKHFHPP@Initialising?5ballistics?5tables@ ; `string'
PUBLIC	??_C@_0BJ@OKJGLPIG@Finished?5Full?5initialise@	; `string'
PUBLIC	??_C@_0BI@MJPGMNML@Finished?5Initialisation@	; `string'
PUBLIC	??_C@_0CI@GMGDIOMB@?4?4?2common?2maps?2map1?2terrain?2ter@ ; `string'
PUBLIC	??_C@_0CI@FFBLCDIB@?4?4?2common?2maps?2map2?2terrain?2ter@ ; `string'
PUBLIC	??_C@_0CI@ECDDEHEB@?4?4?2common?2maps?2map3?2terrain?2ter@ ; `string'
PUBLIC	__real@3f800000
PUBLIC	__real@4059000000000000
EXTRN	__imp____stdio_common_vsprintf:PROC
EXTRN	?capture_cd_audio_device@@YGHXZ:PROC		; capture_cd_audio_device
EXTRN	?set_fpu_rounding_mode_zero@@YGXXZ:PROC		; set_fpu_rounding_mode_zero
EXTRN	?debug_log@@YAXPBDZZ:PROC			; debug_log
EXTRN	?debug_watch@@YGXPBDW4mt_type@@PAX@Z:PROC	; debug_watch
EXTRN	?initialise_joysticks@@YGXXZ:PROC		; initialise_joysticks
EXTRN	?InitTrackIR@@YAXXZ:PROC			; InitTrackIR
EXTRN	?TIR_SetTimeout@@YGXI@Z:PROC			; TIR_SetTimeout
EXTRN	?TIR_SetMaxXY@@YGXI@Z:PROC			; TIR_SetMaxXY
EXTRN	?initialise_event_stack@@YGXXZ:PROC		; initialise_event_stack
EXTRN	?push_event@@YGXP6GXXZPBD@Z:PROC		; push_event
EXTRN	?reset_safe_memory_counter@@YGXXZ:PROC		; reset_safe_memory_counter
EXTRN	?file_exist@@YGHPBD@Z:PROC			; file_exist
EXTRN	?reset_safe_memory_mapped_file_counter@@YGXXZ:PROC ; reset_safe_memory_mapped_file_counter
EXTRN	?initialise_memory_block_system@@YGXXZ:PROC	; initialise_memory_block_system
EXTRN	?create_memory_block_configuration@@YGXPAUMEMORY_BLOCK_CONFIGURATION@@H@Z:PROC ; create_memory_block_configuration
EXTRN	?initialise_dinput_to_ascii_conversion_table@@YGXXZ:PROC ; initialise_dinput_to_ascii_conversion_table
EXTRN	?initialise_utf8_conversion_table@@YGXXZ:PROC	; initialise_utf8_conversion_table
EXTRN	?initialise_maths_library@@YGXXZ:PROC		; initialise_maths_library
EXTRN	?get_screen_pixel_format@@YGXPAH000@Z:PROC	; get_screen_pixel_format
EXTRN	?initialise_mouse_pointer@@YGXPAG@Z:PROC	; initialise_mouse_pointer
EXTRN	?initialise_file_tag_system@@YGXXZ:PROC		; initialise_file_tag_system
EXTRN	?direct_play_initialise_system@@YGHXZ:PROC	; direct_play_initialise_system
EXTRN	?direct_play_register_application@@YGXPBD0@Z:PROC ; direct_play_register_application
EXTRN	?ui_force_update@@YGXXZ:PROC			; ui_force_update
EXTRN	?set_ui_font_resolution@@YGXHH@Z:PROC		; set_ui_font_resolution
EXTRN	?initialise_ui_font@@YGXXZ:PROC			; initialise_ui_font
EXTRN	?set_ui_font_type@@YGXW4FONT_TYPES@@@Z:PROC	; set_ui_font_type
EXTRN	?initialise_ui_system@@YGXH@Z:PROC		; initialise_ui_system
EXTRN	?initialise_ui_objects@@YGXXZ:PROC		; initialise_ui_objects
EXTRN	?get_uninstalled_graphics_file_count@@YGHH@Z:PROC ; get_uninstalled_graphics_file_count
EXTRN	?install_graphics_files@@YGHH@Z:PROC		; install_graphics_files
EXTRN	?uninstall_graphics_files@@YGXXZ:PROC		; uninstall_graphics_files
EXTRN	?mopen_all_graphics_files@@YGXH@Z:PROC		; mopen_all_graphics_files
EXTRN	?set_game_status@@YGXW4GAME_STATUS_TYPES@@@Z:PROC ; set_game_status
EXTRN	?save_global_options_data@@YGXXZ:PROC		; save_global_options_data
EXTRN	?initialise_update_function_list@@YGXXZ:PROC	; initialise_update_function_list
EXTRN	?initialise_application_sound_system@@YGXXZ:PROC ; initialise_application_sound_system
EXTRN	?set_comms_model@@YGXW4COMMS_MODEL_TYPES@@@Z:PROC ; set_comms_model
EXTRN	?initialise_comms@@YGXXZ:PROC			; initialise_comms
EXTRN	?initialise_comms_debug@@YGXXZ:PROC		; initialise_comms_debug
EXTRN	?initialise_comms_manager@@YGXXZ:PROC		; initialise_comms_manager
EXTRN	?net_init_heartbeat@@YGXXZ:PROC			; net_init_heartbeat
EXTRN	?initialise_entity_system@@YGXH@Z:PROC		; initialise_entity_system
EXTRN	?generate_ballistics_tables@@YGXXZ:PROC		; generate_ballistics_tables
EXTRN	?initialise_ai_system@@YGXXZ:PROC		; initialise_ai_system
EXTRN	?initialise_application_3d_system@@YGXXZ:PROC	; initialise_application_3d_system
EXTRN	?ui_events@@YGXXZ:PROC				; ui_events
EXTRN	?initialise_user_defined_events@@YGXXZ:PROC	; initialise_user_defined_events
EXTRN	?initialise_game_initialisation_phases@@YGXXZ:PROC ; initialise_game_initialisation_phases
EXTRN	?initialise_terrain_database@@YGXXZ:PROC	; initialise_terrain_database
EXTRN	?initialise_language_database@@YGXXZ:PROC	; initialise_language_database
EXTRN	?get_trans@@YGPBDPBD@Z:PROC			; get_trans
EXTRN	?initialise_title_screen@@YGXXZ:PROC		; initialise_title_screen
EXTRN	?load_player_list@@YGXXZ:PROC			; load_player_list
EXTRN	?initialise_medal_and_promotion_names@@YGXXZ:PROC ; initialise_medal_and_promotion_names
EXTRN	?initialise_init_screen@@YGXXZ:PROC		; initialise_init_screen
EXTRN	?initialise_ui_menus@@YGXXZ:PROC		; initialise_ui_menus
EXTRN	?process_ingame_text_object_size@@YGXPAUUI_OBJECT@@0PAPBDHW4RESIZE_UI_OBJECT_TYPES@@@Z:PROC ; process_ingame_text_object_size
EXTRN	?parse_WUT_file@@YGXPBD@Z:PROC			; parse_WUT_file
EXTRN	?Initialise_Shared_Memory@@YGHXZ:PROC		; Initialise_Shared_Memory
EXTRN	?fn_set_ui_object_redraw@@3PAP6GXPAUUI_OBJECT@@H@ZA:BYTE ; fn_set_ui_object_redraw
EXTRN	?fn_set_ui_object_text@@3PAP6GXPAUUI_OBJECT@@PBD@ZA:BYTE ; fn_set_ui_object_text
EXTRN	?command_line_clean_graphics@@3HA:DWORD		; command_line_clean_graphics
EXTRN	?command_line_new_graphics@@3HA:DWORD		; command_line_new_graphics
EXTRN	?command_line_no_graphics_conversion@@3HA:DWORD	; command_line_no_graphics_conversion
EXTRN	?command_line_run_mode@@3HA:DWORD		; command_line_run_mode
EXTRN	?command_line_downwash@@3HA:DWORD		; command_line_downwash
EXTRN	?command_line_wut@@3HA:DWORD			; command_line_wut
EXTRN	?command_line_shared_mem_export@@3HA:DWORD	; command_line_shared_mem_export
EXTRN	?global_aphavoc_maps@@3HA:DWORD			; global_aphavoc_maps
EXTRN	?graphics_files@@3PAUFILE_DATA@@A:BYTE		; graphics_files
EXTRN	?game_status_string@@3PBDB:DWORD		; game_status_string
EXTRN	?global_options@@3UGLOBAL_OPTIONS_DATA@@A:BYTE	; global_options
EXTRN	?comms_model_string@@3PBDB:DWORD		; comms_model_string
EXTRN	?WUT_text@@3PAUUI_OBJECT@@A:DWORD		; WUT_text
EXTRN	?version_text@@3PAUUI_OBJECT@@A:DWORD		; version_text
EXTRN	?ah_installed_text@@3PAUUI_OBJECT@@A:DWORD	; ah_installed_text
EXTRN	?initialising_text@@3PAUUI_OBJECT@@A:DWORD	; initialising_text
EXTRN	?init_screen@@3PAUUI_OBJECT@@A:DWORD		; init_screen
EXTRN	?WUT_filename@@3PADA:BYTE			; WUT_filename
EXTRN	__fltused:DWORD
;	COMDAT ?_OptionsStorage@?1??__local_stdio_printf_options@@9@4_KA
_BSS	SEGMENT
?_OptionsStorage@?1??__local_stdio_printf_options@@9@4_KA DQ 01H DUP (?) ; `__local_stdio_printf_options'::`2'::_OptionsStorage
_BSS	ENDS
;	COMDAT __real@4059000000000000
CONST	SEGMENT
__real@4059000000000000 DQ 04059000000000000r	; 100
CONST	ENDS
;	COMDAT __real@3f800000
CONST	SEGMENT
__real@3f800000 DD 03f800000r			; 1
CONST	ENDS
;	COMDAT ??_C@_0CI@ECDDEHEB@?4?4?2common?2maps?2map3?2terrain?2ter@
CONST	SEGMENT
??_C@_0CI@ECDDEHEB@?4?4?2common?2maps?2map3?2terrain?2ter@ DB '..\common\'
	DB	'maps\map3\terrain\terrain.ffp', 00H		; `string'
CONST	ENDS
;	COMDAT ??_C@_0CI@FFBLCDIB@?4?4?2common?2maps?2map2?2terrain?2ter@
CONST	SEGMENT
??_C@_0CI@FFBLCDIB@?4?4?2common?2maps?2map2?2terrain?2ter@ DB '..\common\'
	DB	'maps\map2\terrain\terrain.ffp', 00H		; `string'
CONST	ENDS
;	COMDAT ??_C@_0CI@GMGDIOMB@?4?4?2common?2maps?2map1?2terrain?2ter@
CONST	SEGMENT
??_C@_0CI@GMGDIOMB@?4?4?2common?2maps?2map1?2terrain?2ter@ DB '..\common\'
	DB	'maps\map1\terrain\terrain.ffp', 00H		; `string'
CONST	ENDS
;	COMDAT ??_C@_0BI@MJPGMNML@Finished?5Initialisation@
CONST	SEGMENT
??_C@_0BI@MJPGMNML@Finished?5Initialisation@ DB 'Finished Initialisation', 00H ; `string'
CONST	ENDS
;	COMDAT ??_C@_0BJ@OKJGLPIG@Finished?5Full?5initialise@
CONST	SEGMENT
??_C@_0BJ@OKJGLPIG@Finished?5Full?5initialise@ DB 'Finished Full initiali'
	DB	'se', 00H					; `string'
CONST	ENDS
;	COMDAT ??_C@_0BP@KBKHFHPP@Initialising?5ballistics?5tables@
CONST	SEGMENT
??_C@_0BP@KBKHFHPP@Initialising?5ballistics?5tables@ DB 'Initialising bal'
	DB	'listics tables', 00H			; `string'
CONST	ENDS
;	COMDAT ??_C@_0BE@HGKBBAIB@reading?5WUT?5file?5?$CFs@
CONST	SEGMENT
??_C@_0BE@HGKBBAIB@reading?5WUT?5file?5?$CFs@ DB 'reading WUT file %s', 00H ; `string'
CONST	ENDS
;	COMDAT ??_C@_07OLBIDKLK@Players@
CONST	SEGMENT
??_C@_07OLBIDKLK@Players@ DB 'Players', 00H		; `string'
CONST	ENDS
;	COMDAT ??_C@_0BJ@GLOEDMEI@Initialising?5player?5list@
CONST	SEGMENT
??_C@_0BJ@GLOEDMEI@Initialising?5player?5list@ DB 'Initialising player li'
	DB	'st', 00H					; `string'
CONST	ENDS
;	COMDAT ??_C@_0CB@HCMAOGFE@Initialising?5user?5defined?5event@
CONST	SEGMENT
??_C@_0CB@HCMAOGFE@Initialising?5user?5defined?5event@ DB 'Initialising u'
	DB	'ser defined events', 00H			; `string'
CONST	ENDS
;	COMDAT ??_C@_09BMDKDCML@AI?5System@
CONST	SEGMENT
??_C@_09BMDKDCML@AI?5System@ DB 'AI System', 00H	; `string'
CONST	ENDS
;	COMDAT ??_C@_0BH@GEDEDAKE@Initialising?5ai?5system@
CONST	SEGMENT
??_C@_0BH@GEDEDAKE@Initialising?5ai?5system@ DB 'Initialising ai system', 00H ; `string'
CONST	ENDS
;	COMDAT ??_C@_0P@KIPJNODB@System?5Manager@
CONST	SEGMENT
??_C@_0P@KIPJNODB@System?5Manager@ DB 'System Manager', 00H ; `string'
CONST	ENDS
;	COMDAT ??_C@_0BL@OJPJONJF@Initialising?5entity?5system@
CONST	SEGMENT
??_C@_0BL@OJPJONJF@Initialising?5entity?5system@ DB 'Initialising entity '
	DB	'system', 00H				; `string'
CONST	ENDS
;	COMDAT ??_C@_0L@IBNOOMAD@UI?5Manager@
CONST	SEGMENT
??_C@_0L@IBNOOMAD@UI?5Manager@ DB 'UI Manager', 00H	; `string'
CONST	ENDS
;	COMDAT ??_C@_0L@FJDOBPBG@Tag?5System@
CONST	SEGMENT
??_C@_0L@FJDOBPBG@Tag?5System@ DB 'Tag System', 00H	; `string'
CONST	ENDS
;	COMDAT ??_C@_0BL@HKDCEPLJ@Installing?5file?5tag?5system@
CONST	SEGMENT
??_C@_0BL@HKDCEPLJ@Installing?5file?5tag?5system@ DB 'Installing file tag'
	DB	' system', 00H				; `string'
CONST	ENDS
;	COMDAT ??_C@_09BPMJIADJ@3D?5System@
CONST	SEGMENT
??_C@_09BPMJIADJ@3D?5System@ DB '3D System', 00H	; `string'
CONST	ENDS
;	COMDAT ??_C@_0BH@CIJKIBIG@Initialising?53d?5system@
CONST	SEGMENT
??_C@_0BH@CIJKIBIG@Initialising?53d?5system@ DB 'Initialising 3d system', 00H ; `string'
CONST	ENDS
;	COMDAT ??_C@_0N@FMNPHHOB@Sound?5System@
CONST	SEGMENT
??_C@_0N@FMNPHHOB@Sound?5System@ DB 'Sound System', 00H	; `string'
CONST	ENDS
;	COMDAT ??_C@_0BK@FCALFFLF@Initialising?5sound?5system@
CONST	SEGMENT
??_C@_0BK@FCALFFLF@Initialising?5sound?5system@ DB 'Initialising sound sy'
	DB	'stem', 00H					; `string'
CONST	ENDS
;	COMDAT ??_C@_0BL@BIDEGNOI@Initialising?5comms?5manager@
CONST	SEGMENT
??_C@_0BL@BIDEGNOI@Initialising?5comms?5manager@ DB 'Initialising comms m'
	DB	'anager', 00H				; `string'
CONST	ENDS
;	COMDAT ??_C@_0P@NFMEDLKH@COMANCHE?5HOKUM@
CONST	SEGMENT
??_C@_0P@NFMEDLKH@COMANCHE?5HOKUM@ DB 'COMANCHE HOKUM', 00H ; `string'
CONST	ENDS
;	COMDAT ??_C@_0M@OOPKIANM@cohokum?4exe@
CONST	SEGMENT
??_C@_0M@OOPKIANM@cohokum?4exe@ DB 'cohokum.exe', 00H	; `string'
CONST	ENDS
;	COMDAT ??_C@_0N@NPHLGAAO@Comms?5System@
CONST	SEGMENT
??_C@_0N@NPHLGAAO@Comms?5System@ DB 'Comms System', 00H	; `string'
CONST	ENDS
;	COMDAT ??_C@_0BJ@OLNHCFI@Initialising?5direct?5play@
CONST	SEGMENT
??_C@_0BJ@OLNHCFI@Initialising?5direct?5play@ DB 'Initialising direct pla'
	DB	'y', 00H					; `string'
CONST	ENDS
;	COMDAT ??_C@_06LMAGPFNF@Update@
CONST	SEGMENT
??_C@_06LMAGPFNF@Update@ DB 'Update', 00H		; `string'
CONST	ENDS
;	COMDAT ??_C@_0CC@CEACECHK@Initialising?5update?5function?5li@
CONST	SEGMENT
??_C@_0CC@CEACECHK@Initialising?5update?5function?5li@ DB 'Initialising u'
	DB	'pdate function list', 00H			; `string'
CONST	ENDS
;	COMDAT ??_C@_0CD@NEJPKGMB@Failed?5to?5initialise?5shared?5mem@
CONST	SEGMENT
??_C@_0CD@NEJPKGMB@Failed?5to?5initialise?5shared?5mem@ DB 'Failed to ini'
	DB	'tialise shared memory', 00H			; `string'
CONST	ENDS
;	COMDAT ??_C@_0O@CNNKHHKK@Shared?5Memory@
CONST	SEGMENT
??_C@_0O@CNNKHHKK@Shared?5Memory@ DB 'Shared Memory', 00H ; `string'
CONST	ENDS
;	COMDAT ??_C@_0BL@HFMACMOL@Initialising?5Shared?5Memory@
CONST	SEGMENT
??_C@_0BL@HFMACMOL@Initialising?5Shared?5Memory@ DB 'Initialising Shared '
	DB	'Memory', 00H				; `string'
CONST	ENDS
;	COMDAT ??_C@_07DGJNDEFB@TrackIR@
CONST	SEGMENT
??_C@_07DGJNDEFB@TrackIR@ DB 'TrackIR', 00H		; `string'
CONST	ENDS
;	COMDAT ??_C@_0BF@EFGAEBMF@Initialising?5trackIR@
CONST	SEGMENT
??_C@_0BF@EFGAEBMF@Initialising?5trackIR@ DB 'Initialising trackIR', 00H ; `string'
CONST	ENDS
;	COMDAT ??_C@_08CJCDADNL@Joystick@
CONST	SEGMENT
??_C@_08CJCDADNL@Joystick@ DB 'Joystick', 00H		; `string'
CONST	ENDS
;	COMDAT ??_C@_0BH@CAHILLDK@Initialising?5joysticks@
CONST	SEGMENT
??_C@_0BH@CAHILLDK@Initialising?5joysticks@ DB 'Initialising joysticks', 00H ; `string'
CONST	ENDS
;	COMDAT ??_C@_06LAKEHGMF@CD?5Rom@
CONST	SEGMENT
??_C@_06LAKEHGMF@CD?5Rom@ DB 'CD Rom', 00H		; `string'
CONST	ENDS
;	COMDAT ??_C@_0BG@KNOFNEA@Initialising?5CD?5audio@
CONST	SEGMENT
??_C@_0BG@KNOFNEA@Initialising?5CD?5audio@ DB 'Initialising CD audio', 00H ; `string'
CONST	ENDS
;	COMDAT ??_C@_05PPCCJOHF@Maths@
CONST	SEGMENT
??_C@_05PPCCJOHF@Maths@ DB 'Maths', 00H			; `string'
CONST	ENDS
;	COMDAT ??_C@_0BL@LJJOBPMF@Initialising?5maths?5library@
CONST	SEGMENT
??_C@_0BL@LJJOBPMF@Initialising?5maths?5library@ DB 'Initialising maths l'
	DB	'ibrary', 00H				; `string'
CONST	ENDS
;	COMDAT ??_C@_0N@MPFKLIBG@MP_INSTALLED@
CONST	SEGMENT
??_C@_0N@MPFKLIBG@MP_INSTALLED@ DB 'MP_INSTALLED', 00H	; `string'
CONST	ENDS
;	COMDAT ??_C@_0BB@HEJBBAJC@Apache?5Havoc?3?5?$CFs@
CONST	SEGMENT
??_C@_0BB@HEJBBAJC@Apache?5Havoc?3?5?$CFs@ DB 'Apache Havoc: %s', 00H ; `string'
CONST	ENDS
;	COMDAT ??_C@_0N@IFNFAIGC@Maps?5enabled@
CONST	SEGMENT
??_C@_0N@IFNFAIGC@Maps?5enabled@ DB 'Maps enabled', 00H	; `string'
CONST	ENDS
;	COMDAT ??_C@_08MKHMICKL@Graphics@
CONST	SEGMENT
??_C@_08MKHMICKL@Graphics@ DB 'Graphics', 00H		; `string'
CONST	ENDS
;	COMDAT ??_C@_04OKGDLNCL@NONE@
CONST	SEGMENT
??_C@_04OKGDLNCL@NONE@ DB 'NONE', 00H			; `string'
CONST	ENDS
;	COMDAT ??_C@_06DJHOIPC@?$CFs?3?5?$CFs@
CONST	SEGMENT
??_C@_06DJHOIPC@?$CFs?3?5?$CFs@ DB '%s: %s', 00H	; `string'
CONST	ENDS
;	COMDAT ??_C@_03DMMBGDPD@WUT@
CONST	SEGMENT
??_C@_03DMMBGDPD@WUT@ DB 'WUT', 00H			; `string'
CONST	ENDS
;	COMDAT ??_C@_0P@DJAEGCPL@?$CFs?4?4?4?$CFs?5?$CF?40f?$CF?$CF@
CONST	SEGMENT
??_C@_0P@DJAEGCPL@?$CFs?4?4?4?$CFs?5?$CF?40f?$CF?$CF@ DB '%s...%s %.0f%%', 00H ; `string'
CONST	ENDS
;	COMDAT ??_C@_07MPOFAFAC@?$CFs?4?4?4?$CFs@
CONST	SEGMENT
??_C@_07MPOFAFAC@?$CFs?4?4?4?$CFs@ DB '%s...%s', 00H	; `string'
CONST	ENDS
;	COMDAT ??_C@_07BINAGFIJ@Loading@
CONST	SEGMENT
??_C@_07BINAGFIJ@Loading@ DB 'Loading', 00H		; `string'
CONST	ENDS
;	COMDAT ??_C@_0BP@LEBDOIIE@First?5Time?5Graphics?5Conversion@
CONST	SEGMENT
??_C@_0BP@LEBDOIIE@First?5Time?5Graphics?5Conversion@ DB 'First Time Grap'
	DB	'hics Conversion', 00H			; `string'
CONST	ENDS
;	COMDAT ??_C@_0BP@JIFNHJIE@First?5time?5graphics?5conversion@
CONST	SEGMENT
??_C@_0BP@JIFNHJIE@First?5time?5graphics?5conversion@ DB 'First time grap'
	DB	'hics conversion', 00H			; `string'
CONST	ENDS
;	COMDAT ??_C@_0BA@DAKHGCJL@?$CFs?3?5?$CFd?4?$CFd?4?$CFd?5?$CFs@
CONST	SEGMENT
??_C@_0BA@DAKHGCJL@?$CFs?3?5?$CFd?4?$CFd?4?$CFd?5?$CFs@ DB '%s: %d.%d.%d '
	DB	'%s', 00H					; `string'
CONST	ENDS
;	COMDAT ??_C@_07NGFJPNPN@Version@
CONST	SEGMENT
??_C@_07NGFJPNPN@Version@ DB 'Version', 00H		; `string'
CONST	ENDS
;	COMDAT ??_C@_00CNPNBAHC@@
CONST	SEGMENT
??_C@_00CNPNBAHC@@ DB 00H				; `string'
CONST	ENDS
;	COMDAT ??_C@_0BH@MEPKBEGH@Finished?5brief?5install@
CONST	SEGMENT
??_C@_0BH@MEPKBEGH@Finished?5brief?5install@ DB 'Finished brief install', 00H ; `string'
CONST	ENDS
;	COMDAT ??_C@_0BJ@KPCNALIB@Initialising?5ui?5mouseptr@
CONST	SEGMENT
??_C@_0BJ@KPCNALIB@Initialising?5ui?5mouseptr@ DB 'Initialising ui mousep'
	DB	'tr', 00H					; `string'
CONST	ENDS
;	COMDAT ??_C@_0BG@LOFCCDEL@Initialising?5ui?5menus@
CONST	SEGMENT
??_C@_0BG@LOFCCDEL@Initialising?5ui?5menus@ DB 'Initialising ui menus', 00H ; `string'
CONST	ENDS
;	COMDAT ??_C@_0BI@MKOKAIKP@Initialising?5ui?5objects@
CONST	SEGMENT
??_C@_0BI@MKOKAIKP@Initialising?5ui?5objects@ DB 'Initialising ui objects'
	DB	00H						; `string'
CONST	ENDS
;	COMDAT ??_C@_0BF@JBEJJLMA@Initialising?5ui?5font@
CONST	SEGMENT
??_C@_0BF@JBEJJLMA@Initialising?5ui?5font@ DB 'Initialising ui font', 00H ; `string'
CONST	ENDS
;	COMDAT ??_C@_0BH@EKHBBBDG@Initialising?5ui?5system@
CONST	SEGMENT
??_C@_0BH@EKHBBBDG@Initialising?5ui?5system@ DB 'Initialising ui system', 00H ; `string'
CONST	ENDS
;	COMDAT ??_C@_09NMJHJDNG@ui?5events@
CONST	SEGMENT
??_C@_09NMJHJDNG@ui?5events@ DB 'ui events', 00H	; `string'
CONST	ENDS
;	COMDAT ??_C@_0O@GKFCJLDC@Installing?5ui@
CONST	SEGMENT
??_C@_0O@GKFCJLDC@Installing?5ui@ DB 'Installing ui', 00H ; `string'
CONST	ENDS
;	COMDAT ??_C@_0BH@NEDABEEH@Installing?5event?5stack@
CONST	SEGMENT
??_C@_0BH@NEDABEEH@Installing?5event?5stack@ DB 'Installing event stack', 00H ; `string'
CONST	ENDS
;	COMDAT ??_C@_0BH@NJCNFMHJ@Opening?5graphics?5files@
CONST	SEGMENT
??_C@_0BH@NJCNFMHJ@Opening?5graphics?5files@ DB 'Opening graphics files', 00H ; `string'
CONST	ENDS
;	COMDAT ??_C@_0BK@HKNBPAMD@Installing?5graphics?5files@
CONST	SEGMENT
??_C@_0BK@HKNBPAMD@Installing?5graphics?5files@ DB 'Installing graphics f'
	DB	'iles', 00H					; `string'
CONST	ENDS
;	COMDAT ??_C@_0BL@EJHDCBGJ@Initialising?5memory?5system@
CONST	SEGMENT
??_C@_0BL@EJHDCBGJ@Initialising?5memory?5system@ DB 'Initialising memory '
	DB	'system', 00H				; `string'
CONST	ENDS
;	COMDAT ??_C@_0DM@CEBOBOID@Comms?5model?5?5?5?5?5?5?5?5?5?5?5?5?5?5?5?5?5?5?5?5@
CONST	SEGMENT
??_C@_0DM@CEBOBOID@Comms?5model?5?5?5?5?5?5?5?5?5?5?5?5?5?5?5?5?5?5?5?5@ DB 'C'
	DB	'omms model                                           =  %s', 00H ; `string'
CONST	ENDS
;	COMDAT ??_C@_0DM@IMPDMHAB@Game?5status?5?5?5?5?5?5?5?5?5?5?5?5?5?5?5?5?5?5?5?5@
CONST	SEGMENT
??_C@_0DM@IMPDMHAB@Game?5status?5?5?5?5?5?5?5?5?5?5?5?5?5?5?5?5?5?5?5?5@ DB 'G'
	DB	'ame status                                           =  %s', 00H ; `string'
CONST	ENDS
_DATA	SEGMENT
?memory_block_config@@3PAUMEMORY_BLOCK_CONFIGURATION@@A DD 04H ; memory_block_config
	DD	0dacH
	DD	08H
	DD	01f4H
	DD	0cH
	DD	03e8H
	DD	010H
	DD	03e8H
	DD	020H
	DD	064H
	DD	030H
	DD	01f4H
	DD	040H
	DD	064H
	DD	060H
	DD	064H
	DD	080H
	DD	064H
	DD	084H
	DD	03e8H
	DD	0c0H
	DD	064H
	DD	0100H
	DD	064H
	DD	0180H
	DD	064H
	DD	0200H
	DD	064H
	DD	0178H
	DD	03e8H
	DD	020H
	DD	03e8H
	DD	0164H
	DD	01H
	DD	0c8H
	DD	01388H
	DD	060H
	DD	038a4H
	DD	050H
	DD	0d6d8H
	DD	054H
	DD	01f4H
	DD	058H
	DD	012cH
	DD	048H
	DD	064H
	DD	0190H
	DD	0c8H
	DD	04a4H
	DD	02H
	DD	0ccH
	DD	03e8H
	DD	098H
	DD	0190H
	DD	01e4H
	DD	0190H
	DD	01a4H
	DD	0faH
	DD	054H
	DD	07dH
	DD	04cH
	DD	064H
	DD	054H
	DD	064H
	DD	017cH
	DD	064H
	DD	0144H
	DD	010H
	DD	048H
	DD	0157cH
	DD	040H
	DD	064H
	DD	0184H
	DD	03e8H
	DD	044H
	DD	0157cH
	DD	05cH
	DD	02328H
	DD	064H
	DD	02cecH
	DD	0a8H
	DD	01H
	DD	0178H
	DD	064H
	DD	050H
	DD	0109aH
	DD	068H
	DD	0190H
	DD	08cH
	DD	09c4H
	DD	044H
	DD	01194H
	DD	064H
	DD	064H
	DD	0acH
	DD	02eeH
	DD	04H
	DD	01H
	DD	044H
	DD	0dacH
	DD	0a8H
	DD	0faH
	DD	0200H
	DD	07d0H
	DD	08H
	DD	09c4H
	DD	01cH
	DD	09c4H
	DD	054H
	DD	01388H
	DD	0b4H
	DD	09c4H
	DD	018cH
	DD	01f4H
	DD	01ecH
	DD	01f4H
	DD	020H
	DD	07d0H
_DATA	ENDS
; Function compile flags: /Odtp /ZI
; File c:\users\nhv90\projects\eech\aphavoc\source\init.c
;	COMDAT ?check_apache_havoc_ffp_files@@YGHXZ
_TEXT	SEGMENT
_flag$ = -4						; size = 4
?check_apache_havoc_ffp_files@@YGHXZ PROC		; check_apache_havoc_ffp_files, COMDAT

; 1019 : {

  00000	55		 push	 ebp
  00001	8b ec		 mov	 ebp, esp
  00003	83 ec 44	 sub	 esp, 68			; 00000044H
  00006	53		 push	 ebx
  00007	56		 push	 esi
  00008	57		 push	 edi

; 1020 : 
; 1021 : 	int
; 1022 : 		flag;
; 1023 : 
; 1024 : // VJ 050118 aphavoc install hack, check even if graphics not installed
; 1025 : /*
; 1026 : 	if (get_global_apache_havoc_installed ())
; 1027 : 	{
; 1028 : */
; 1029 : 		flag = TRUE;

  00009	c7 45 fc 01 00
	00 00		 mov	 DWORD PTR _flag$[ebp], 1

; 1030 : 
; 1031 : 		if (!file_exist ("..\\common\\maps\\map1\\terrain\\terrain.ffp"))

  00010	68 00 00 00 00	 push	 OFFSET ??_C@_0CI@GMGDIOMB@?4?4?2common?2maps?2map1?2terrain?2ter@
  00015	e8 00 00 00 00	 call	 ?file_exist@@YGHPBD@Z	; file_exist
  0001a	85 c0		 test	 eax, eax
  0001c	75 07		 jne	 SHORT $LN2@check_apac

; 1032 : 		{
; 1033 : 
; 1034 : 			flag = FALSE;

  0001e	c7 45 fc 00 00
	00 00		 mov	 DWORD PTR _flag$[ebp], 0
$LN2@check_apac:

; 1035 : 		}
; 1036 : 
; 1037 : 		if (!file_exist ("..\\common\\maps\\map2\\terrain\\terrain.ffp"))

  00025	68 00 00 00 00	 push	 OFFSET ??_C@_0CI@FFBLCDIB@?4?4?2common?2maps?2map2?2terrain?2ter@
  0002a	e8 00 00 00 00	 call	 ?file_exist@@YGHPBD@Z	; file_exist
  0002f	85 c0		 test	 eax, eax
  00031	75 07		 jne	 SHORT $LN3@check_apac

; 1038 : 		{
; 1039 : 
; 1040 : 			flag = FALSE;

  00033	c7 45 fc 00 00
	00 00		 mov	 DWORD PTR _flag$[ebp], 0
$LN3@check_apac:

; 1041 : 		}
; 1042 : 
; 1043 : 		if (!file_exist ("..\\common\\maps\\map3\\terrain\\terrain.ffp"))

  0003a	68 00 00 00 00	 push	 OFFSET ??_C@_0CI@ECDDEHEB@?4?4?2common?2maps?2map3?2terrain?2ter@
  0003f	e8 00 00 00 00	 call	 ?file_exist@@YGHPBD@Z	; file_exist
  00044	85 c0		 test	 eax, eax
  00046	75 07		 jne	 SHORT $LN4@check_apac

; 1044 : 		{
; 1045 : 
; 1046 : 			flag = FALSE;

  00048	c7 45 fc 00 00
	00 00		 mov	 DWORD PTR _flag$[ebp], 0
$LN4@check_apac:

; 1047 : 		}
; 1048 : 
; 1049 : 		if (!flag)

  0004f	83 7d fc 00	 cmp	 DWORD PTR _flag$[ebp], 0
  00053	75 0e		 jne	 SHORT $LN5@check_apac

; 1050 : 		{
; 1051 : 
; 1052 : 			set_global_apache_havoc_installed (FALSE);

  00055	c7 05 60 03 00
	00 00 00 00 00	 mov	 DWORD PTR ?global_options@@3UGLOBAL_OPTIONS_DATA@@A+864, 0

; 1053 : 
; 1054 : 			return FALSE;

  0005f	33 c0		 xor	 eax, eax
  00061	eb 05		 jmp	 SHORT $LN1@check_apac
$LN5@check_apac:

; 1055 : 		}
; 1056 : // VJ 050118 aphavoc install hack, check even if graphics not installed
; 1057 : /*
; 1058 : 	}
; 1059 : */
; 1060 : 	return TRUE;

  00063	b8 01 00 00 00	 mov	 eax, 1
$LN1@check_apac:

; 1061 : }

  00068	5f		 pop	 edi
  00069	5e		 pop	 esi
  0006a	5b		 pop	 ebx
  0006b	8b e5		 mov	 esp, ebp
  0006d	5d		 pop	 ebp
  0006e	c3		 ret	 0
?check_apache_havoc_ffp_files@@YGHXZ ENDP		; check_apache_havoc_ffp_files
_TEXT	ENDS
; Function compile flags: /Odtp /ZI
; File c:\users\nhv90\projects\eech\aphavoc\source\init.c
;	COMDAT ?full_initialise_game@@YGXXZ
_TEXT	SEGMENT
_buffer$1 = -1804					; size = 256
_buffer$2 = -1548					; size = 256
_graphics_count_to_convert$3 = -1292			; size = 4
_percentage$4 = -1288					; size = 4
_file_count$5 = -1284					; size = 4
_buffer$6 = -1280					; size = 256
_buffer$ = -1024					; size = 1024
?full_initialise_game@@YGXXZ PROC			; full_initialise_game, COMDAT

; 527  : {

  00000	55		 push	 ebp
  00001	8b ec		 mov	 ebp, esp
  00003	81 ec 0c 08 00
	00		 sub	 esp, 2060		; 0000080cH
  00009	53		 push	 ebx
  0000a	56		 push	 esi
  0000b	57		 push	 edi

; 528  : 
; 529  : 	char
; 530  : 		buffer [1024];
; 531  : 
; 532  : 	////////////////////////////////////////
; 533  : 	//
; 534  : 	// WARNING!     INITIALISATION ORDER IS CRITICAL
; 535  : 	//
; 536  : 	// NOTE :       MEMORY BLOCK SYSTEM CONSTRAINTS;
; 537  : 	//                      DO NOT USE REGISTER_EXIT_FUNCTION
; 538  : 	//                      FOR DEINITIALISATION.
; 539  : 	//
; 540  : 	////////////////////////////////////////
; 541  : 
; 542  : 	////////////////////////////////////////
; 543  : 	//
; 544  : 	// INITIALISE GRAPHICS FILES
; 545  : 	//
; 546  : 	////////////////////////////////////////
; 547  : 
; 548  : 	{
; 549  : 
; 550  : 		char
; 551  : 			buffer[256];
; 552  : 
; 553  : 
; 554  : #if ( OEM_3DLABS_VERSION )
; 555  : 		sprintf ( buffer, "3DLabs Demonstration version" );
; 556  : #else
; 557  : 		sprintf ( buffer, "%s: %d.%d.%d %s", get_trans ("Version"), MAJOR_VERSION, DATA_VERSION, MINOR_VERSION, BUILD_TYPE);

  0000c	68 00 00 00 00	 push	 OFFSET ??_C@_00CNPNBAHC@@
  00011	6a 00		 push	 0
  00013	6a 0f		 push	 15			; 0000000fH
  00015	6a 01		 push	 1
  00017	68 00 00 00 00	 push	 OFFSET ??_C@_07NGFJPNPN@Version@
  0001c	e8 00 00 00 00	 call	 ?get_trans@@YGPBDPBD@Z	; get_trans
  00021	50		 push	 eax
  00022	68 00 00 00 00	 push	 OFFSET ??_C@_0BA@DAKHGCJL@?$CFs?3?5?$CFd?4?$CFd?4?$CFd?5?$CFs@
  00027	8d 85 00 fb ff
	ff		 lea	 eax, DWORD PTR _buffer$6[ebp]
  0002d	50		 push	 eax
  0002e	e8 00 00 00 00	 call	 _sprintf
  00033	83 c4 1c	 add	 esp, 28			; 0000001cH

; 558  : #endif
; 559  : 
; 560  : 		set_ui_object_text (version_text, buffer);

  00036	8d 85 00 fb ff
	ff		 lea	 eax, DWORD PTR _buffer$6[ebp]
  0003c	50		 push	 eax
  0003d	8b 0d 00 00 00
	00		 mov	 ecx, DWORD PTR ?version_text@@3PAUUI_OBJECT@@A ; version_text
  00043	51		 push	 ecx
  00044	8b 15 00 00 00
	00		 mov	 edx, DWORD PTR ?version_text@@3PAUUI_OBJECT@@A ; version_text
  0004a	8b 02		 mov	 eax, DWORD PTR [edx]
  0004c	8b 0c 85 00 00
	00 00		 mov	 ecx, DWORD PTR ?fn_set_ui_object_text@@3PAP6GXPAUUI_OBJECT@@PBD@ZA[eax*4]
  00053	ff d1		 call	 ecx

; 561  : 
; 562  : //		add_to_pop_up_list ( buffer, init_screen_message_area, NULL, 0, UI_FONT_ARIAL_14, ui_colour_white );
; 563  : 	}
; 564  : 
; 565  : 	if ( ( !get_global_graphics_files_installed () ) || command_line_new_graphics )

  00055	83 3d 24 00 00
	00 00		 cmp	 DWORD PTR ?global_options@@3UGLOBAL_OPTIONS_DATA@@A+36, 0
  0005c	74 0d		 je	 SHORT $LN5@full_initi
  0005e	83 3d 00 00 00
	00 00		 cmp	 DWORD PTR ?command_line_new_graphics@@3HA, 0 ; command_line_new_graphics
  00065	0f 84 93 01 00
	00		 je	 $LN6@full_initi
$LN5@full_initi:

; 566  : 	{
; 567  : 
; 568  : 		float
; 569  : 			file_count,
; 570  : 			percentage;
; 571  : 
; 572  : 		int
; 573  : 			graphics_count_to_convert;
; 574  : 
; 575  : 		char
; 576  : 			buffer [256];
; 577  : 
; 578  : 		file_count = 0;

  0006b	0f 57 c0	 xorps	 xmm0, xmm0
  0006e	f3 0f 11 85 fc
	fa ff ff	 movss	 DWORD PTR _file_count$5[ebp], xmm0

; 579  : 
; 580  : 		graphics_count_to_convert = get_uninstalled_graphics_file_count ( GRAPHICS_CONVERSION_SECOND_PASS );

  00076	6a 01		 push	 1
  00078	e8 00 00 00 00	 call	 ?get_uninstalled_graphics_file_count@@YGHH@Z ; get_uninstalled_graphics_file_count
  0007d	89 85 f4 fa ff
	ff		 mov	 DWORD PTR _graphics_count_to_convert$3[ebp], eax

; 581  : 
; 582  : 		if ( graphics_count_to_convert )

  00083	83 bd f4 fa ff
	ff 00		 cmp	 DWORD PTR _graphics_count_to_convert$3[ebp], 0
  0008a	0f 84 6e 01 00
	00		 je	 $LN6@full_initi

; 583  : 		{
; 584  : 
; 585  : 			debug_log ( "First time graphics conversion" );

  00090	68 00 00 00 00	 push	 OFFSET ??_C@_0BP@JIFNHJIE@First?5time?5graphics?5conversion@
  00095	e8 00 00 00 00	 call	 ?debug_log@@YAXPBDZZ	; debug_log
  0009a	83 c4 04	 add	 esp, 4

; 586  : 
; 587  : 			sprintf (buffer, "%s...%s", get_trans ("Loading"), get_trans ("First Time Graphics Conversion"));

  0009d	68 00 00 00 00	 push	 OFFSET ??_C@_0BP@LEBDOIIE@First?5Time?5Graphics?5Conversion@
  000a2	e8 00 00 00 00	 call	 ?get_trans@@YGPBDPBD@Z	; get_trans
  000a7	50		 push	 eax
  000a8	68 00 00 00 00	 push	 OFFSET ??_C@_07BINAGFIJ@Loading@
  000ad	e8 00 00 00 00	 call	 ?get_trans@@YGPBDPBD@Z	; get_trans
  000b2	50		 push	 eax
  000b3	68 00 00 00 00	 push	 OFFSET ??_C@_07MPOFAFAC@?$CFs?4?4?4?$CFs@
  000b8	8d 85 f4 f9 ff
	ff		 lea	 eax, DWORD PTR _buffer$2[ebp]
  000be	50		 push	 eax
  000bf	e8 00 00 00 00	 call	 _sprintf
  000c4	83 c4 10	 add	 esp, 16			; 00000010H

; 588  : 
; 589  : 			set_ui_object_text (initialising_text, buffer);

  000c7	8d 85 f4 f9 ff
	ff		 lea	 eax, DWORD PTR _buffer$2[ebp]
  000cd	50		 push	 eax
  000ce	8b 0d 00 00 00
	00		 mov	 ecx, DWORD PTR ?initialising_text@@3PAUUI_OBJECT@@A ; initialising_text
  000d4	51		 push	 ecx
  000d5	8b 15 00 00 00
	00		 mov	 edx, DWORD PTR ?initialising_text@@3PAUUI_OBJECT@@A ; initialising_text
  000db	8b 02		 mov	 eax, DWORD PTR [edx]
  000dd	8b 0c 85 00 00
	00 00		 mov	 ecx, DWORD PTR ?fn_set_ui_object_text@@3PAP6GXPAUUI_OBJECT@@PBD@ZA[eax*4]
  000e4	ff d1		 call	 ecx
$LN2@full_initi:

; 590  : 
; 591  : 			while (!install_graphics_files (GRAPHICS_CONVERSION_SECOND_PASS))

  000e6	6a 01		 push	 1
  000e8	e8 00 00 00 00	 call	 ?install_graphics_files@@YGHH@Z ; install_graphics_files
  000ed	85 c0		 test	 eax, eax
  000ef	0f 85 c0 00 00
	00		 jne	 $LN3@full_initi

; 592  : 			{
; 593  : 
; 594  : 				file_count ++;

  000f5	f3 0f 10 85 fc
	fa ff ff	 movss	 xmm0, DWORD PTR _file_count$5[ebp]
  000fd	f3 0f 58 05 00
	00 00 00	 addss	 xmm0, DWORD PTR __real@3f800000
  00105	f3 0f 11 85 fc
	fa ff ff	 movss	 DWORD PTR _file_count$5[ebp], xmm0

; 595  : 
; 596  : 				percentage = (file_count / graphics_count_to_convert) * 100.0;

  0010d	f3 0f 2a 85 f4
	fa ff ff	 cvtsi2ss xmm0, DWORD PTR _graphics_count_to_convert$3[ebp]
  00115	f3 0f 10 8d fc
	fa ff ff	 movss	 xmm1, DWORD PTR _file_count$5[ebp]
  0011d	f3 0f 5e c8	 divss	 xmm1, xmm0
  00121	f3 0f 5a c1	 cvtss2sd xmm0, xmm1
  00125	f2 0f 59 05 00
	00 00 00	 mulsd	 xmm0, QWORD PTR __real@4059000000000000
  0012d	f2 0f 5a c0	 cvtsd2ss xmm0, xmm0
  00131	f3 0f 11 85 f8
	fa ff ff	 movss	 DWORD PTR _percentage$4[ebp], xmm0

; 597  : 
; 598  : 				sprintf ( buffer, "%s...%s %.0f%%", get_trans ("Loading"), get_trans ("First Time Graphics Conversion"), percentage );

  00139	f3 0f 5a 85 f8
	fa ff ff	 cvtss2sd xmm0, DWORD PTR _percentage$4[ebp]
  00141	83 ec 08	 sub	 esp, 8
  00144	f2 0f 11 04 24	 movsd	 QWORD PTR [esp], xmm0
  00149	68 00 00 00 00	 push	 OFFSET ??_C@_0BP@LEBDOIIE@First?5Time?5Graphics?5Conversion@
  0014e	e8 00 00 00 00	 call	 ?get_trans@@YGPBDPBD@Z	; get_trans
  00153	50		 push	 eax
  00154	68 00 00 00 00	 push	 OFFSET ??_C@_07BINAGFIJ@Loading@
  00159	e8 00 00 00 00	 call	 ?get_trans@@YGPBDPBD@Z	; get_trans
  0015e	50		 push	 eax
  0015f	68 00 00 00 00	 push	 OFFSET ??_C@_0P@DJAEGCPL@?$CFs?4?4?4?$CFs?5?$CF?40f?$CF?$CF@
  00164	8d 85 f4 f9 ff
	ff		 lea	 eax, DWORD PTR _buffer$2[ebp]
  0016a	50		 push	 eax
  0016b	e8 00 00 00 00	 call	 _sprintf
  00170	83 c4 18	 add	 esp, 24			; 00000018H

; 599  : 
; 600  : 				set_ui_object_text (initialising_text, buffer);

  00173	8d 85 f4 f9 ff
	ff		 lea	 eax, DWORD PTR _buffer$2[ebp]
  00179	50		 push	 eax
  0017a	8b 0d 00 00 00
	00		 mov	 ecx, DWORD PTR ?initialising_text@@3PAUUI_OBJECT@@A ; initialising_text
  00180	51		 push	 ecx
  00181	8b 15 00 00 00
	00		 mov	 edx, DWORD PTR ?initialising_text@@3PAUUI_OBJECT@@A ; initialising_text
  00187	8b 02		 mov	 eax, DWORD PTR [edx]
  00189	8b 0c 85 00 00
	00 00		 mov	 ecx, DWORD PTR ?fn_set_ui_object_text@@3PAP6GXPAUUI_OBJECT@@PBD@ZA[eax*4]
  00190	ff d1		 call	 ecx

; 601  : 
; 602  : 				set_ui_object_redraw (init_screen, TRUE);

  00192	6a 01		 push	 1
  00194	a1 00 00 00 00	 mov	 eax, DWORD PTR ?init_screen@@3PAUUI_OBJECT@@A ; init_screen
  00199	50		 push	 eax
  0019a	8b 0d 00 00 00
	00		 mov	 ecx, DWORD PTR ?init_screen@@3PAUUI_OBJECT@@A ; init_screen
  001a0	8b 11		 mov	 edx, DWORD PTR [ecx]
  001a2	8b 04 95 00 00
	00 00		 mov	 eax, DWORD PTR ?fn_set_ui_object_redraw@@3PAP6GXPAUUI_OBJECT@@H@ZA[edx*4]
  001a9	ff d0		 call	 eax

; 603  : 
; 604  : 				ui_force_update ();

  001ab	e8 00 00 00 00	 call	 ?ui_force_update@@YGXXZ	; ui_force_update

; 605  : 			}

  001b0	e9 31 ff ff ff	 jmp	 $LN2@full_initi
$LN3@full_initi:

; 606  : 
; 607  : 			sprintf (buffer, "%s...%s", get_trans ("Loading"), get_trans ("First Time Graphics Conversion"));

  001b5	68 00 00 00 00	 push	 OFFSET ??_C@_0BP@LEBDOIIE@First?5Time?5Graphics?5Conversion@
  001ba	e8 00 00 00 00	 call	 ?get_trans@@YGPBDPBD@Z	; get_trans
  001bf	50		 push	 eax
  001c0	68 00 00 00 00	 push	 OFFSET ??_C@_07BINAGFIJ@Loading@
  001c5	e8 00 00 00 00	 call	 ?get_trans@@YGPBDPBD@Z	; get_trans
  001ca	50		 push	 eax
  001cb	68 00 00 00 00	 push	 OFFSET ??_C@_07MPOFAFAC@?$CFs?4?4?4?$CFs@
  001d0	8d 85 f4 f9 ff
	ff		 lea	 eax, DWORD PTR _buffer$2[ebp]
  001d6	50		 push	 eax
  001d7	e8 00 00 00 00	 call	 _sprintf
  001dc	83 c4 10	 add	 esp, 16			; 00000010H

; 608  : 
; 609  : 			set_ui_object_text (initialising_text, buffer);

  001df	8d 85 f4 f9 ff
	ff		 lea	 eax, DWORD PTR _buffer$2[ebp]
  001e5	50		 push	 eax
  001e6	8b 0d 00 00 00
	00		 mov	 ecx, DWORD PTR ?initialising_text@@3PAUUI_OBJECT@@A ; initialising_text
  001ec	51		 push	 ecx
  001ed	8b 15 00 00 00
	00		 mov	 edx, DWORD PTR ?initialising_text@@3PAUUI_OBJECT@@A ; initialising_text
  001f3	8b 02		 mov	 eax, DWORD PTR [edx]
  001f5	8b 0c 85 00 00
	00 00		 mov	 ecx, DWORD PTR ?fn_set_ui_object_text@@3PAP6GXPAUUI_OBJECT@@PBD@ZA[eax*4]
  001fc	ff d1		 call	 ecx
$LN6@full_initi:

; 610  : 		}
; 611  : 	}
; 612  : 
; 613  : 	save_global_options_data ();

  001fe	e8 00 00 00 00	 call	 ?save_global_options_data@@YGXXZ ; save_global_options_data

; 614  : 
; 615  : //VJ 030807 added wut file name display for startup screen
; 616  :    if (command_line_wut)

  00203	83 3d 00 00 00
	00 00		 cmp	 DWORD PTR ?command_line_wut@@3HA, 0 ; command_line_wut
  0020a	74 20		 je	 SHORT $LN7@full_initi

; 617  : 		sprintf ( buffer, "%s: %s", "WUT", WUT_filename);

  0020c	68 00 00 00 00	 push	 OFFSET ?WUT_filename@@3PADA ; WUT_filename
  00211	68 00 00 00 00	 push	 OFFSET ??_C@_03DMMBGDPD@WUT@
  00216	68 00 00 00 00	 push	 OFFSET ??_C@_06DJHOIPC@?$CFs?3?5?$CFs@
  0021b	8d 85 00 fc ff
	ff		 lea	 eax, DWORD PTR _buffer$[ebp]
  00221	50		 push	 eax
  00222	e8 00 00 00 00	 call	 _sprintf
  00227	83 c4 10	 add	 esp, 16			; 00000010H

; 618  : 	else

  0022a	eb 1e		 jmp	 SHORT $LN8@full_initi
$LN7@full_initi:

; 619  : 		sprintf ( buffer, "%s: %s", "WUT", "NONE");

  0022c	68 00 00 00 00	 push	 OFFSET ??_C@_04OKGDLNCL@NONE@
  00231	68 00 00 00 00	 push	 OFFSET ??_C@_03DMMBGDPD@WUT@
  00236	68 00 00 00 00	 push	 OFFSET ??_C@_06DJHOIPC@?$CFs?3?5?$CFs@
  0023b	8d 85 00 fc ff
	ff		 lea	 eax, DWORD PTR _buffer$[ebp]
  00241	50		 push	 eax
  00242	e8 00 00 00 00	 call	 _sprintf
  00247	83 c4 10	 add	 esp, 16			; 00000010H
$LN8@full_initi:

; 620  : 
; 621  : 	set_ui_object_text (WUT_text, buffer);

  0024a	8d 85 00 fc ff
	ff		 lea	 eax, DWORD PTR _buffer$[ebp]
  00250	50		 push	 eax
  00251	8b 0d 00 00 00
	00		 mov	 ecx, DWORD PTR ?WUT_text@@3PAUUI_OBJECT@@A ; WUT_text
  00257	51		 push	 ecx
  00258	8b 15 00 00 00
	00		 mov	 edx, DWORD PTR ?WUT_text@@3PAUUI_OBJECT@@A ; WUT_text
  0025e	8b 02		 mov	 eax, DWORD PTR [edx]
  00260	8b 0c 85 00 00
	00 00		 mov	 ecx, DWORD PTR ?fn_set_ui_object_text@@3PAP6GXPAUUI_OBJECT@@PBD@ZA[eax*4]
  00267	ff d1		 call	 ecx

; 622  : 
; 623  : 	ui_force_update ();

  00269	e8 00 00 00 00	 call	 ?ui_force_update@@YGXXZ	; ui_force_update

; 624  : 
; 625  : 	debug_log ( "Opening graphics files" );

  0026e	68 00 00 00 00	 push	 OFFSET ??_C@_0BH@NJCNFMHJ@Opening?5graphics?5files@
  00273	e8 00 00 00 00	 call	 ?debug_log@@YAXPBDZZ	; debug_log
  00278	83 c4 04	 add	 esp, 4

; 626  : 
; 627  : 	sprintf (buffer, "%s...%s", get_trans ("Loading"), get_trans ("Graphics"));

  0027b	68 00 00 00 00	 push	 OFFSET ??_C@_08MKHMICKL@Graphics@
  00280	e8 00 00 00 00	 call	 ?get_trans@@YGPBDPBD@Z	; get_trans
  00285	50		 push	 eax
  00286	68 00 00 00 00	 push	 OFFSET ??_C@_07BINAGFIJ@Loading@
  0028b	e8 00 00 00 00	 call	 ?get_trans@@YGPBDPBD@Z	; get_trans
  00290	50		 push	 eax
  00291	68 00 00 00 00	 push	 OFFSET ??_C@_07MPOFAFAC@?$CFs?4?4?4?$CFs@
  00296	8d 85 00 fc ff
	ff		 lea	 eax, DWORD PTR _buffer$[ebp]
  0029c	50		 push	 eax
  0029d	e8 00 00 00 00	 call	 _sprintf
  002a2	83 c4 10	 add	 esp, 16			; 00000010H

; 628  : 
; 629  : 	set_ui_object_text (initialising_text, buffer);

  002a5	8d 85 00 fc ff
	ff		 lea	 eax, DWORD PTR _buffer$[ebp]
  002ab	50		 push	 eax
  002ac	8b 0d 00 00 00
	00		 mov	 ecx, DWORD PTR ?initialising_text@@3PAUUI_OBJECT@@A ; initialising_text
  002b2	51		 push	 ecx
  002b3	8b 15 00 00 00
	00		 mov	 edx, DWORD PTR ?initialising_text@@3PAUUI_OBJECT@@A ; initialising_text
  002b9	8b 02		 mov	 eax, DWORD PTR [edx]
  002bb	8b 0c 85 00 00
	00 00		 mov	 ecx, DWORD PTR ?fn_set_ui_object_text@@3PAP6GXPAUUI_OBJECT@@PBD@ZA[eax*4]
  002c2	ff d1		 call	 ecx

; 630  : 
; 631  : 	ui_force_update ();

  002c4	e8 00 00 00 00	 call	 ?ui_force_update@@YGXXZ	; ui_force_update

; 632  : 
; 633  : 	mopen_all_graphics_files (GRAPHICS_CONVERSION_SECOND_PASS);

  002c9	6a 01		 push	 1
  002cb	e8 00 00 00 00	 call	 ?mopen_all_graphics_files@@YGXH@Z ; mopen_all_graphics_files

; 634  : 
; 635  : 	//
; 636  : 	// Check Apache Havoc FFP files exist
; 637  : 	//
; 638  : 
; 639  : // VJ 050123 aphavoc install hack: this function gives true or false depending on presence of terrain.ffp files in EEAH map dirs
; 640  : 	global_aphavoc_maps = check_apache_havoc_ffp_files ();

  002d0	e8 00 00 00 00	 call	 ?check_apache_havoc_ffp_files@@YGHXZ ; check_apache_havoc_ffp_files
  002d5	a3 00 00 00 00	 mov	 DWORD PTR ?global_aphavoc_maps@@3HA, eax ; global_aphavoc_maps

; 641  : 
; 642  : 	////////////////////////////////////////
; 643  : 	//
; 644  : 	// STATE IF APHAVOC INSTALLED
; 645  : 	//
; 646  : 	////////////////////////////////////////
; 647  : 
; 648  : 	#if !DEMO_VERSION
; 649  : 		if (get_global_apache_havoc_installed () || global_aphavoc_maps)

  002da	83 3d 60 03 00
	00 00		 cmp	 DWORD PTR ?global_options@@3UGLOBAL_OPTIONS_DATA@@A+864, 0
  002e1	75 0d		 jne	 SHORT $LN10@full_initi
  002e3	83 3d 00 00 00
	00 00		 cmp	 DWORD PTR ?global_aphavoc_maps@@3HA, 0 ; global_aphavoc_maps
  002ea	0f 84 83 00 00
	00		 je	 $LN9@full_initi
$LN10@full_initi:

; 650  : 		{
; 651  : 			char
; 652  : 				buffer [256];
; 653  : 
; 654  : // VJ 050123 aphavoc install hack
; 655  : 			if (global_aphavoc_maps && !get_global_apache_havoc_installed ())

  002f0	83 3d 00 00 00
	00 00		 cmp	 DWORD PTR ?global_aphavoc_maps@@3HA, 0 ; global_aphavoc_maps
  002f7	74 24		 je	 SHORT $LN11@full_initi
  002f9	83 3d 60 03 00
	00 00		 cmp	 DWORD PTR ?global_options@@3UGLOBAL_OPTIONS_DATA@@A+864, 0
  00300	75 1b		 jne	 SHORT $LN11@full_initi

; 656  : 				sprintf (buffer, "Apache Havoc: %s", "Maps enabled");

  00302	68 00 00 00 00	 push	 OFFSET ??_C@_0N@IFNFAIGC@Maps?5enabled@
  00307	68 00 00 00 00	 push	 OFFSET ??_C@_0BB@HEJBBAJC@Apache?5Havoc?3?5?$CFs@
  0030c	8d 85 f4 f8 ff
	ff		 lea	 eax, DWORD PTR _buffer$1[ebp]
  00312	50		 push	 eax
  00313	e8 00 00 00 00	 call	 _sprintf
  00318	83 c4 0c	 add	 esp, 12			; 0000000cH

; 657  : 			else

  0031b	eb 1f		 jmp	 SHORT $LN12@full_initi
$LN11@full_initi:

; 658  : 				sprintf (buffer, "Apache Havoc: %s", get_trans ("MP_INSTALLED"));

  0031d	68 00 00 00 00	 push	 OFFSET ??_C@_0N@MPFKLIBG@MP_INSTALLED@
  00322	e8 00 00 00 00	 call	 ?get_trans@@YGPBDPBD@Z	; get_trans
  00327	50		 push	 eax
  00328	68 00 00 00 00	 push	 OFFSET ??_C@_0BB@HEJBBAJC@Apache?5Havoc?3?5?$CFs@
  0032d	8d 85 f4 f8 ff
	ff		 lea	 eax, DWORD PTR _buffer$1[ebp]
  00333	50		 push	 eax
  00334	e8 00 00 00 00	 call	 _sprintf
  00339	83 c4 0c	 add	 esp, 12			; 0000000cH
$LN12@full_initi:

; 659  : 
; 660  : 			set_ui_object_text (ah_installed_text, buffer);

  0033c	8d 85 f4 f8 ff
	ff		 lea	 eax, DWORD PTR _buffer$1[ebp]
  00342	50		 push	 eax
  00343	8b 0d 00 00 00
	00		 mov	 ecx, DWORD PTR ?ah_installed_text@@3PAUUI_OBJECT@@A ; ah_installed_text
  00349	51		 push	 ecx
  0034a	8b 15 00 00 00
	00		 mov	 edx, DWORD PTR ?ah_installed_text@@3PAUUI_OBJECT@@A ; ah_installed_text
  00350	8b 02		 mov	 eax, DWORD PTR [edx]
  00352	8b 0c 85 00 00
	00 00		 mov	 ecx, DWORD PTR ?fn_set_ui_object_text@@3PAP6GXPAUUI_OBJECT@@PBD@ZA[eax*4]
  00359	ff d1		 call	 ecx

; 661  : 
; 662  : 			process_ingame_text_object_size (ah_installed_text, NULL, NULL, 0, RESIZE_OPTION_FIXED_BUTTON);

  0035b	6a 02		 push	 2
  0035d	6a 00		 push	 0
  0035f	6a 00		 push	 0
  00361	6a 00		 push	 0
  00363	a1 00 00 00 00	 mov	 eax, DWORD PTR ?ah_installed_text@@3PAUUI_OBJECT@@A ; ah_installed_text
  00368	50		 push	 eax
  00369	e8 00 00 00 00	 call	 ?process_ingame_text_object_size@@YGXPAUUI_OBJECT@@0PAPBDHW4RESIZE_UI_OBJECT_TYPES@@@Z ; process_ingame_text_object_size

; 663  : 
; 664  : 			ui_force_update ();

  0036e	e8 00 00 00 00	 call	 ?ui_force_update@@YGXXZ	; ui_force_update
$LN9@full_initi:

; 665  : 		}
; 666  : 	#else
; 667  : 		set_global_apache_havoc_installed (FALSE);
; 668  : 	#endif
; 669  : 
; 670  : 	////////////////////////////////////////
; 671  : 	//
; 672  : 	// INITIALISE MATHS LIBRARY
; 673  : 	//
; 674  : 	////////////////////////////////////////
; 675  : 
; 676  : 	debug_log ( "Initialising maths library" );

  00373	68 00 00 00 00	 push	 OFFSET ??_C@_0BL@LJJOBPMF@Initialising?5maths?5library@
  00378	e8 00 00 00 00	 call	 ?debug_log@@YAXPBDZZ	; debug_log
  0037d	83 c4 04	 add	 esp, 4

; 677  : 
; 678  : 	sprintf (buffer, "%s...%s", get_trans ("Loading"), get_trans ("Maths"));

  00380	68 00 00 00 00	 push	 OFFSET ??_C@_05PPCCJOHF@Maths@
  00385	e8 00 00 00 00	 call	 ?get_trans@@YGPBDPBD@Z	; get_trans
  0038a	50		 push	 eax
  0038b	68 00 00 00 00	 push	 OFFSET ??_C@_07BINAGFIJ@Loading@
  00390	e8 00 00 00 00	 call	 ?get_trans@@YGPBDPBD@Z	; get_trans
  00395	50		 push	 eax
  00396	68 00 00 00 00	 push	 OFFSET ??_C@_07MPOFAFAC@?$CFs?4?4?4?$CFs@
  0039b	8d 85 00 fc ff
	ff		 lea	 eax, DWORD PTR _buffer$[ebp]
  003a1	50		 push	 eax
  003a2	e8 00 00 00 00	 call	 _sprintf
  003a7	83 c4 10	 add	 esp, 16			; 00000010H

; 679  : 
; 680  : 	set_ui_object_text (initialising_text, buffer);

  003aa	8d 85 00 fc ff
	ff		 lea	 eax, DWORD PTR _buffer$[ebp]
  003b0	50		 push	 eax
  003b1	8b 0d 00 00 00
	00		 mov	 ecx, DWORD PTR ?initialising_text@@3PAUUI_OBJECT@@A ; initialising_text
  003b7	51		 push	 ecx
  003b8	8b 15 00 00 00
	00		 mov	 edx, DWORD PTR ?initialising_text@@3PAUUI_OBJECT@@A ; initialising_text
  003be	8b 02		 mov	 eax, DWORD PTR [edx]
  003c0	8b 0c 85 00 00
	00 00		 mov	 ecx, DWORD PTR ?fn_set_ui_object_text@@3PAP6GXPAUUI_OBJECT@@PBD@ZA[eax*4]
  003c7	ff d1		 call	 ecx

; 681  : 
; 682  : 	ui_force_update ();

  003c9	e8 00 00 00 00	 call	 ?ui_force_update@@YGXXZ	; ui_force_update

; 683  : 
; 684  : 	initialise_maths_library ();

  003ce	e8 00 00 00 00	 call	 ?initialise_maths_library@@YGXXZ ; initialise_maths_library

; 685  : 
; 686  : 	////////////////////////////////////////
; 687  : 	//
; 688  : 	// INITIALISE CD PLAYER
; 689  : 	//
; 690  : 	////////////////////////////////////////
; 691  : 
; 692  : 	debug_log ( "Initialising CD audio" );

  003d3	68 00 00 00 00	 push	 OFFSET ??_C@_0BG@KNOFNEA@Initialising?5CD?5audio@
  003d8	e8 00 00 00 00	 call	 ?debug_log@@YAXPBDZZ	; debug_log
  003dd	83 c4 04	 add	 esp, 4

; 693  : 
; 694  : 	sprintf (buffer, "%s...%s", get_trans ("Loading"), get_trans ("CD Rom"));

  003e0	68 00 00 00 00	 push	 OFFSET ??_C@_06LAKEHGMF@CD?5Rom@
  003e5	e8 00 00 00 00	 call	 ?get_trans@@YGPBDPBD@Z	; get_trans
  003ea	50		 push	 eax
  003eb	68 00 00 00 00	 push	 OFFSET ??_C@_07BINAGFIJ@Loading@
  003f0	e8 00 00 00 00	 call	 ?get_trans@@YGPBDPBD@Z	; get_trans
  003f5	50		 push	 eax
  003f6	68 00 00 00 00	 push	 OFFSET ??_C@_07MPOFAFAC@?$CFs?4?4?4?$CFs@
  003fb	8d 85 00 fc ff
	ff		 lea	 eax, DWORD PTR _buffer$[ebp]
  00401	50		 push	 eax
  00402	e8 00 00 00 00	 call	 _sprintf
  00407	83 c4 10	 add	 esp, 16			; 00000010H

; 695  : 
; 696  : 	set_ui_object_text (initialising_text, buffer);

  0040a	8d 85 00 fc ff
	ff		 lea	 eax, DWORD PTR _buffer$[ebp]
  00410	50		 push	 eax
  00411	8b 0d 00 00 00
	00		 mov	 ecx, DWORD PTR ?initialising_text@@3PAUUI_OBJECT@@A ; initialising_text
  00417	51		 push	 ecx
  00418	8b 15 00 00 00
	00		 mov	 edx, DWORD PTR ?initialising_text@@3PAUUI_OBJECT@@A ; initialising_text
  0041e	8b 02		 mov	 eax, DWORD PTR [edx]
  00420	8b 0c 85 00 00
	00 00		 mov	 ecx, DWORD PTR ?fn_set_ui_object_text@@3PAP6GXPAUUI_OBJECT@@PBD@ZA[eax*4]
  00427	ff d1		 call	 ecx

; 697  : 
; 698  : 	ui_force_update ();

  00429	e8 00 00 00 00	 call	 ?ui_force_update@@YGXXZ	; ui_force_update

; 699  : 
; 700  : 	capture_cd_audio_device ();

  0042e	e8 00 00 00 00	 call	 ?capture_cd_audio_device@@YGHXZ ; capture_cd_audio_device

; 701  : 
; 702  : #ifdef COMMERCIAL
; 703  : #if !DEMO_VERSION
; 704  : #if ( LANGUAGE != LANGUAGE_SPANISH )
; 705  : //	if ( !check_cd_for_80_minutes () )
; 706  : //	{
; 707  : //
; 708  : //		debug_fatal ("Unable to find the Enemy Engaged RAH66 Comanche Vs KA52 Hokum CD\n\nPlease insert the CD and try again ...");
; 709  : //	}
; 710  : #endif
; 711  : #endif
; 712  : #endif
; 713  : 
; 714  : 	////////////////////////////////////////
; 715  : 	//
; 716  : 	// INITIALISE JOYSTICK
; 717  : 	//
; 718  : 	////////////////////////////////////////
; 719  : 
; 720  : 	debug_log ( "Initialising joysticks" );

  00433	68 00 00 00 00	 push	 OFFSET ??_C@_0BH@CAHILLDK@Initialising?5joysticks@
  00438	e8 00 00 00 00	 call	 ?debug_log@@YAXPBDZZ	; debug_log
  0043d	83 c4 04	 add	 esp, 4

; 721  : 	sprintf (buffer, "%s...%s", get_trans ("Loading"), get_trans ("Joystick"));

  00440	68 00 00 00 00	 push	 OFFSET ??_C@_08CJCDADNL@Joystick@
  00445	e8 00 00 00 00	 call	 ?get_trans@@YGPBDPBD@Z	; get_trans
  0044a	50		 push	 eax
  0044b	68 00 00 00 00	 push	 OFFSET ??_C@_07BINAGFIJ@Loading@
  00450	e8 00 00 00 00	 call	 ?get_trans@@YGPBDPBD@Z	; get_trans
  00455	50		 push	 eax
  00456	68 00 00 00 00	 push	 OFFSET ??_C@_07MPOFAFAC@?$CFs?4?4?4?$CFs@
  0045b	8d 85 00 fc ff
	ff		 lea	 eax, DWORD PTR _buffer$[ebp]
  00461	50		 push	 eax
  00462	e8 00 00 00 00	 call	 _sprintf
  00467	83 c4 10	 add	 esp, 16			; 00000010H

; 722  : 
; 723  : 	set_ui_object_text (initialising_text, buffer);

  0046a	8d 85 00 fc ff
	ff		 lea	 eax, DWORD PTR _buffer$[ebp]
  00470	50		 push	 eax
  00471	8b 0d 00 00 00
	00		 mov	 ecx, DWORD PTR ?initialising_text@@3PAUUI_OBJECT@@A ; initialising_text
  00477	51		 push	 ecx
  00478	8b 15 00 00 00
	00		 mov	 edx, DWORD PTR ?initialising_text@@3PAUUI_OBJECT@@A ; initialising_text
  0047e	8b 02		 mov	 eax, DWORD PTR [edx]
  00480	8b 0c 85 00 00
	00 00		 mov	 ecx, DWORD PTR ?fn_set_ui_object_text@@3PAP6GXPAUUI_OBJECT@@PBD@ZA[eax*4]
  00487	ff d1		 call	 ecx

; 724  : 
; 725  : 	ui_force_update ();

  00489	e8 00 00 00 00	 call	 ?ui_force_update@@YGXXZ	; ui_force_update

; 726  : 
; 727  : 	initialise_joysticks ();

  0048e	e8 00 00 00 00	 call	 ?initialise_joysticks@@YGXXZ ; initialise_joysticks

; 728  : 
; 729  : 	////////////////////////////////////////
; 730  : 	//
; 731  : 	// INITIALISE TRACKIR
; 732  : 	//	Retro 030317
; 733  : 	//	THIS IS NOT LOCALIZED YET !!
; 734  : 	//	(well.. doesnt have to be)
; 735  : 	////////////////////////////////////////
; 736  : 
; 737  : 	debug_log ( "Initialising trackIR" );

  00493	68 00 00 00 00	 push	 OFFSET ??_C@_0BF@EFGAEBMF@Initialising?5trackIR@
  00498	e8 00 00 00 00	 call	 ?debug_log@@YAXPBDZZ	; debug_log
  0049d	83 c4 04	 add	 esp, 4

; 738  : 	sprintf (buffer, "%s...%s", get_trans ("Loading"), "TrackIR");

  004a0	68 00 00 00 00	 push	 OFFSET ??_C@_07DGJNDEFB@TrackIR@
  004a5	68 00 00 00 00	 push	 OFFSET ??_C@_07BINAGFIJ@Loading@
  004aa	e8 00 00 00 00	 call	 ?get_trans@@YGPBDPBD@Z	; get_trans
  004af	50		 push	 eax
  004b0	68 00 00 00 00	 push	 OFFSET ??_C@_07MPOFAFAC@?$CFs?4?4?4?$CFs@
  004b5	8d 85 00 fc ff
	ff		 lea	 eax, DWORD PTR _buffer$[ebp]
  004bb	50		 push	 eax
  004bc	e8 00 00 00 00	 call	 _sprintf
  004c1	83 c4 10	 add	 esp, 16			; 00000010H

; 739  : 
; 740  : 	set_ui_object_text (initialising_text, buffer);

  004c4	8d 85 00 fc ff
	ff		 lea	 eax, DWORD PTR _buffer$[ebp]
  004ca	50		 push	 eax
  004cb	8b 0d 00 00 00
	00		 mov	 ecx, DWORD PTR ?initialising_text@@3PAUUI_OBJECT@@A ; initialising_text
  004d1	51		 push	 ecx
  004d2	8b 15 00 00 00
	00		 mov	 edx, DWORD PTR ?initialising_text@@3PAUUI_OBJECT@@A ; initialising_text
  004d8	8b 02		 mov	 eax, DWORD PTR [edx]
  004da	8b 0c 85 00 00
	00 00		 mov	 ecx, DWORD PTR ?fn_set_ui_object_text@@3PAP6GXPAUUI_OBJECT@@PBD@ZA[eax*4]
  004e1	ff d1		 call	 ecx

; 741  : 
; 742  : 	ui_force_update ();

  004e3	e8 00 00 00 00	 call	 ?ui_force_update@@YGXXZ	; ui_force_update

; 743  : 
; 744  : 	InitTrackIR ();

  004e8	e8 00 00 00 00	 call	 ?InitTrackIR@@YAXXZ	; InitTrackIR

; 745  : 	// Retro 6Feb2005 - maybe make the following command-line-vars
; 746  : 	TIR_SetTimeout(60);		// TIR deactivates itself after 60 frames without update

  004ed	6a 3c		 push	 60			; 0000003cH
  004ef	e8 00 00 00 00	 call	 ?TIR_SetTimeout@@YGXI@Z	; TIR_SetTimeout

; 747  : 	TIR_SetMaxXY (8192);	// Movement range for vector expansion

  004f4	68 00 20 00 00	 push	 8192			; 00002000H
  004f9	e8 00 00 00 00	 call	 ?TIR_SetMaxXY@@YGXI@Z	; TIR_SetMaxXY

; 748  : 
; 749  : 	////////////////////////////////////////
; 750  : 	//
; 751  : 	// INIT SHARED MEM
; 752  : 	//
; 753  : 	////////////////////////////////////////
; 754  : 
; 755  : 	// Retro 8Mar2005 - 14Aug2006
; 756  : 	if (command_line_shared_mem_export != 0)

  004fe	83 3d 00 00 00
	00 00		 cmp	 DWORD PTR ?command_line_shared_mem_export@@3HA, 0 ; command_line_shared_mem_export
  00505	74 70		 je	 SHORT $LN14@full_initi

; 757  : 	{
; 758  : 		debug_log ( "Initialising Shared Memory" );

  00507	68 00 00 00 00	 push	 OFFSET ??_C@_0BL@HFMACMOL@Initialising?5Shared?5Memory@
  0050c	e8 00 00 00 00	 call	 ?debug_log@@YAXPBDZZ	; debug_log
  00511	83 c4 04	 add	 esp, 4

; 759  : 
; 760  : 		sprintf (buffer, "%s...%s", get_trans ("Loading"), "Shared Memory");

  00514	68 00 00 00 00	 push	 OFFSET ??_C@_0O@CNNKHHKK@Shared?5Memory@
  00519	68 00 00 00 00	 push	 OFFSET ??_C@_07BINAGFIJ@Loading@
  0051e	e8 00 00 00 00	 call	 ?get_trans@@YGPBDPBD@Z	; get_trans
  00523	50		 push	 eax
  00524	68 00 00 00 00	 push	 OFFSET ??_C@_07MPOFAFAC@?$CFs?4?4?4?$CFs@
  00529	8d 85 00 fc ff
	ff		 lea	 eax, DWORD PTR _buffer$[ebp]
  0052f	50		 push	 eax
  00530	e8 00 00 00 00	 call	 _sprintf
  00535	83 c4 10	 add	 esp, 16			; 00000010H

; 761  : 
; 762  : 		set_ui_object_text (initialising_text, buffer);

  00538	8d 85 00 fc ff
	ff		 lea	 eax, DWORD PTR _buffer$[ebp]
  0053e	50		 push	 eax
  0053f	8b 0d 00 00 00
	00		 mov	 ecx, DWORD PTR ?initialising_text@@3PAUUI_OBJECT@@A ; initialising_text
  00545	51		 push	 ecx
  00546	8b 15 00 00 00
	00		 mov	 edx, DWORD PTR ?initialising_text@@3PAUUI_OBJECT@@A ; initialising_text
  0054c	8b 02		 mov	 eax, DWORD PTR [edx]
  0054e	8b 0c 85 00 00
	00 00		 mov	 ecx, DWORD PTR ?fn_set_ui_object_text@@3PAP6GXPAUUI_OBJECT@@PBD@ZA[eax*4]
  00555	ff d1		 call	 ecx

; 763  : 
; 764  : 		if (Initialise_Shared_Memory() == 0)

  00557	e8 00 00 00 00	 call	 ?Initialise_Shared_Memory@@YGHXZ ; Initialise_Shared_Memory
  0055c	85 c0		 test	 eax, eax
  0055e	75 17		 jne	 SHORT $LN14@full_initi

; 765  : 		{
; 766  : 			debug_log ( "Failed to initialise shared memory" );

  00560	68 00 00 00 00	 push	 OFFSET ??_C@_0CD@NEJPKGMB@Failed?5to?5initialise?5shared?5mem@
  00565	e8 00 00 00 00	 call	 ?debug_log@@YAXPBDZZ	; debug_log
  0056a	83 c4 04	 add	 esp, 4

; 767  : 			command_line_shared_mem_export = 0;

  0056d	c7 05 00 00 00
	00 00 00 00 00	 mov	 DWORD PTR ?command_line_shared_mem_export@@3HA, 0 ; command_line_shared_mem_export
$LN14@full_initi:

; 768  : 		}
; 769  : 	}
; 770  : 
; 771  : 	////////////////////////////////////////
; 772  : 	//
; 773  : 	// INITIALISE UPDATE FUNCTIONS
; 774  : 	//
; 775  : 	////////////////////////////////////////
; 776  : 
; 777  : 	debug_log ( "Initialising update function list" );

  00577	68 00 00 00 00	 push	 OFFSET ??_C@_0CC@CEACECHK@Initialising?5update?5function?5li@
  0057c	e8 00 00 00 00	 call	 ?debug_log@@YAXPBDZZ	; debug_log
  00581	83 c4 04	 add	 esp, 4

; 778  : 
; 779  : 	sprintf (buffer, "%s...%s", get_trans ("Loading"), get_trans ("Update"));

  00584	68 00 00 00 00	 push	 OFFSET ??_C@_06LMAGPFNF@Update@
  00589	e8 00 00 00 00	 call	 ?get_trans@@YGPBDPBD@Z	; get_trans
  0058e	50		 push	 eax
  0058f	68 00 00 00 00	 push	 OFFSET ??_C@_07BINAGFIJ@Loading@
  00594	e8 00 00 00 00	 call	 ?get_trans@@YGPBDPBD@Z	; get_trans
  00599	50		 push	 eax
  0059a	68 00 00 00 00	 push	 OFFSET ??_C@_07MPOFAFAC@?$CFs?4?4?4?$CFs@
  0059f	8d 85 00 fc ff
	ff		 lea	 eax, DWORD PTR _buffer$[ebp]
  005a5	50		 push	 eax
  005a6	e8 00 00 00 00	 call	 _sprintf
  005ab	83 c4 10	 add	 esp, 16			; 00000010H

; 780  : 
; 781  : 	set_ui_object_text (initialising_text, buffer);

  005ae	8d 85 00 fc ff
	ff		 lea	 eax, DWORD PTR _buffer$[ebp]
  005b4	50		 push	 eax
  005b5	8b 0d 00 00 00
	00		 mov	 ecx, DWORD PTR ?initialising_text@@3PAUUI_OBJECT@@A ; initialising_text
  005bb	51		 push	 ecx
  005bc	8b 15 00 00 00
	00		 mov	 edx, DWORD PTR ?initialising_text@@3PAUUI_OBJECT@@A ; initialising_text
  005c2	8b 02		 mov	 eax, DWORD PTR [edx]
  005c4	8b 0c 85 00 00
	00 00		 mov	 ecx, DWORD PTR ?fn_set_ui_object_text@@3PAP6GXPAUUI_OBJECT@@PBD@ZA[eax*4]
  005cb	ff d1		 call	 ecx

; 782  : 
; 783  : 	ui_force_update ();

  005cd	e8 00 00 00 00	 call	 ?ui_force_update@@YGXXZ	; ui_force_update

; 784  : 
; 785  : 	initialise_update_function_list ();

  005d2	e8 00 00 00 00	 call	 ?initialise_update_function_list@@YGXXZ ; initialise_update_function_list

; 786  : 
; 787  : 	////////////////////////////////////////
; 788  : 	//
; 789  : 	// INITIALISE DIRECT PLAY
; 790  : 	//
; 791  : 	////////////////////////////////////////
; 792  : 
; 793  : 	debug_log ( "Initialising direct play" );

  005d7	68 00 00 00 00	 push	 OFFSET ??_C@_0BJ@OLNHCFI@Initialising?5direct?5play@
  005dc	e8 00 00 00 00	 call	 ?debug_log@@YAXPBDZZ	; debug_log
  005e1	83 c4 04	 add	 esp, 4

; 794  : 
; 795  : 	sprintf (buffer, "%s...%s", get_trans ("Loading"), get_trans ("Comms System"));

  005e4	68 00 00 00 00	 push	 OFFSET ??_C@_0N@NPHLGAAO@Comms?5System@
  005e9	e8 00 00 00 00	 call	 ?get_trans@@YGPBDPBD@Z	; get_trans
  005ee	50		 push	 eax
  005ef	68 00 00 00 00	 push	 OFFSET ??_C@_07BINAGFIJ@Loading@
  005f4	e8 00 00 00 00	 call	 ?get_trans@@YGPBDPBD@Z	; get_trans
  005f9	50		 push	 eax
  005fa	68 00 00 00 00	 push	 OFFSET ??_C@_07MPOFAFAC@?$CFs?4?4?4?$CFs@
  005ff	8d 85 00 fc ff
	ff		 lea	 eax, DWORD PTR _buffer$[ebp]
  00605	50		 push	 eax
  00606	e8 00 00 00 00	 call	 _sprintf
  0060b	83 c4 10	 add	 esp, 16			; 00000010H

; 796  : 
; 797  : 	set_ui_object_text (initialising_text, buffer);

  0060e	8d 85 00 fc ff
	ff		 lea	 eax, DWORD PTR _buffer$[ebp]
  00614	50		 push	 eax
  00615	8b 0d 00 00 00
	00		 mov	 ecx, DWORD PTR ?initialising_text@@3PAUUI_OBJECT@@A ; initialising_text
  0061b	51		 push	 ecx
  0061c	8b 15 00 00 00
	00		 mov	 edx, DWORD PTR ?initialising_text@@3PAUUI_OBJECT@@A ; initialising_text
  00622	8b 02		 mov	 eax, DWORD PTR [edx]
  00624	8b 0c 85 00 00
	00 00		 mov	 ecx, DWORD PTR ?fn_set_ui_object_text@@3PAP6GXPAUUI_OBJECT@@PBD@ZA[eax*4]
  0062b	ff d1		 call	 ecx

; 798  : 
; 799  : 	ui_force_update ();

  0062d	e8 00 00 00 00	 call	 ?ui_force_update@@YGXXZ	; ui_force_update

; 800  : 
; 801  : 	direct_play_initialise_system ();

  00632	e8 00 00 00 00	 call	 ?direct_play_initialise_system@@YGHXZ ; direct_play_initialise_system

; 802  : 
; 803  : 	//
; 804  : 	// Register the application for any lobbies
; 805  : 	//
; 806  : 
; 807  : 	direct_play_register_application ( "COMANCHE HOKUM", "cohokum.exe" );

  00637	68 00 00 00 00	 push	 OFFSET ??_C@_0M@OOPKIANM@cohokum?4exe@
  0063c	68 00 00 00 00	 push	 OFFSET ??_C@_0P@NFMEDLKH@COMANCHE?5HOKUM@
  00641	e8 00 00 00 00	 call	 ?direct_play_register_application@@YGXPBD0@Z ; direct_play_register_application

; 808  : 
; 809  : 	////////////////////////////////////////
; 810  : 	//
; 811  : 	// INITIALISE COMMS
; 812  : 	//
; 813  : 	////////////////////////////////////////
; 814  : 
; 815  : 	//
; 816  : 	// DEPENDENCY: initialise_comms BEFORE initialise_entity_system
; 817  : 	//
; 818  : 
; 819  : 	debug_log ( "Initialising comms manager" );

  00646	68 00 00 00 00	 push	 OFFSET ??_C@_0BL@BIDEGNOI@Initialising?5comms?5manager@
  0064b	e8 00 00 00 00	 call	 ?debug_log@@YAXPBDZZ	; debug_log
  00650	83 c4 04	 add	 esp, 4

; 820  : 
; 821  : 	sprintf (buffer, "%s...%s", get_trans ("Loading"), get_trans ("Comms System"));

  00653	68 00 00 00 00	 push	 OFFSET ??_C@_0N@NPHLGAAO@Comms?5System@
  00658	e8 00 00 00 00	 call	 ?get_trans@@YGPBDPBD@Z	; get_trans
  0065d	50		 push	 eax
  0065e	68 00 00 00 00	 push	 OFFSET ??_C@_07BINAGFIJ@Loading@
  00663	e8 00 00 00 00	 call	 ?get_trans@@YGPBDPBD@Z	; get_trans
  00668	50		 push	 eax
  00669	68 00 00 00 00	 push	 OFFSET ??_C@_07MPOFAFAC@?$CFs?4?4?4?$CFs@
  0066e	8d 85 00 fc ff
	ff		 lea	 eax, DWORD PTR _buffer$[ebp]
  00674	50		 push	 eax
  00675	e8 00 00 00 00	 call	 _sprintf
  0067a	83 c4 10	 add	 esp, 16			; 00000010H

; 822  : 
; 823  : 	set_ui_object_text (initialising_text, buffer);

  0067d	8d 85 00 fc ff
	ff		 lea	 eax, DWORD PTR _buffer$[ebp]
  00683	50		 push	 eax
  00684	8b 0d 00 00 00
	00		 mov	 ecx, DWORD PTR ?initialising_text@@3PAUUI_OBJECT@@A ; initialising_text
  0068a	51		 push	 ecx
  0068b	8b 15 00 00 00
	00		 mov	 edx, DWORD PTR ?initialising_text@@3PAUUI_OBJECT@@A ; initialising_text
  00691	8b 02		 mov	 eax, DWORD PTR [edx]
  00693	8b 0c 85 00 00
	00 00		 mov	 ecx, DWORD PTR ?fn_set_ui_object_text@@3PAP6GXPAUUI_OBJECT@@PBD@ZA[eax*4]
  0069a	ff d1		 call	 ecx

; 824  : 
; 825  : 	ui_force_update ();

  0069c	e8 00 00 00 00	 call	 ?ui_force_update@@YGXXZ	; ui_force_update

; 826  : 
; 827  : 	initialise_comms_manager ();

  006a1	e8 00 00 00 00	 call	 ?initialise_comms_manager@@YGXXZ ; initialise_comms_manager

; 828  : 
; 829  : 	initialise_comms ();

  006a6	e8 00 00 00 00	 call	 ?initialise_comms@@YGXXZ ; initialise_comms

; 830  : 
; 831  : 	initialise_comms_debug ();

  006ab	e8 00 00 00 00	 call	 ?initialise_comms_debug@@YGXXZ ; initialise_comms_debug

; 832  : 
; 833  : 	////////////////////////////////////////
; 834  : 	//
; 835  : 	// INITIALISE SOUND SYSTEM
; 836  : 	//
; 837  : 	////////////////////////////////////////
; 838  : 
; 839  : 	debug_log ( "Initialising sound system" );

  006b0	68 00 00 00 00	 push	 OFFSET ??_C@_0BK@FCALFFLF@Initialising?5sound?5system@
  006b5	e8 00 00 00 00	 call	 ?debug_log@@YAXPBDZZ	; debug_log
  006ba	83 c4 04	 add	 esp, 4

; 840  : 
; 841  : 	sprintf (buffer, "%s...%s", get_trans ("Loading"), get_trans ("Sound System"));

  006bd	68 00 00 00 00	 push	 OFFSET ??_C@_0N@FMNPHHOB@Sound?5System@
  006c2	e8 00 00 00 00	 call	 ?get_trans@@YGPBDPBD@Z	; get_trans
  006c7	50		 push	 eax
  006c8	68 00 00 00 00	 push	 OFFSET ??_C@_07BINAGFIJ@Loading@
  006cd	e8 00 00 00 00	 call	 ?get_trans@@YGPBDPBD@Z	; get_trans
  006d2	50		 push	 eax
  006d3	68 00 00 00 00	 push	 OFFSET ??_C@_07MPOFAFAC@?$CFs?4?4?4?$CFs@
  006d8	8d 85 00 fc ff
	ff		 lea	 eax, DWORD PTR _buffer$[ebp]
  006de	50		 push	 eax
  006df	e8 00 00 00 00	 call	 _sprintf
  006e4	83 c4 10	 add	 esp, 16			; 00000010H

; 842  : 
; 843  : 	set_ui_object_text (initialising_text, buffer);

  006e7	8d 85 00 fc ff
	ff		 lea	 eax, DWORD PTR _buffer$[ebp]
  006ed	50		 push	 eax
  006ee	8b 0d 00 00 00
	00		 mov	 ecx, DWORD PTR ?initialising_text@@3PAUUI_OBJECT@@A ; initialising_text
  006f4	51		 push	 ecx
  006f5	8b 15 00 00 00
	00		 mov	 edx, DWORD PTR ?initialising_text@@3PAUUI_OBJECT@@A ; initialising_text
  006fb	8b 02		 mov	 eax, DWORD PTR [edx]
  006fd	8b 0c 85 00 00
	00 00		 mov	 ecx, DWORD PTR ?fn_set_ui_object_text@@3PAP6GXPAUUI_OBJECT@@PBD@ZA[eax*4]
  00704	ff d1		 call	 ecx

; 844  : 
; 845  : 	ui_force_update ();

  00706	e8 00 00 00 00	 call	 ?ui_force_update@@YGXXZ	; ui_force_update

; 846  : 
; 847  : 	initialise_application_sound_system ();

  0070b	e8 00 00 00 00	 call	 ?initialise_application_sound_system@@YGXXZ ; initialise_application_sound_system

; 848  : 
; 849  : 	////////////////////////////////////////
; 850  : 	//
; 851  : 	// INITIALISE 3D SYSTEM
; 852  : 	//
; 853  : 	////////////////////////////////////////
; 854  : 
; 855  : 	debug_log ( "Initialising 3d system" );

  00710	68 00 00 00 00	 push	 OFFSET ??_C@_0BH@CIJKIBIG@Initialising?53d?5system@
  00715	e8 00 00 00 00	 call	 ?debug_log@@YAXPBDZZ	; debug_log
  0071a	83 c4 04	 add	 esp, 4

; 856  : 
; 857  : 	sprintf (buffer, "%s...%s", get_trans ("Loading"), get_trans ("3D System"));

  0071d	68 00 00 00 00	 push	 OFFSET ??_C@_09BPMJIADJ@3D?5System@
  00722	e8 00 00 00 00	 call	 ?get_trans@@YGPBDPBD@Z	; get_trans
  00727	50		 push	 eax
  00728	68 00 00 00 00	 push	 OFFSET ??_C@_07BINAGFIJ@Loading@
  0072d	e8 00 00 00 00	 call	 ?get_trans@@YGPBDPBD@Z	; get_trans
  00732	50		 push	 eax
  00733	68 00 00 00 00	 push	 OFFSET ??_C@_07MPOFAFAC@?$CFs?4?4?4?$CFs@
  00738	8d 85 00 fc ff
	ff		 lea	 eax, DWORD PTR _buffer$[ebp]
  0073e	50		 push	 eax
  0073f	e8 00 00 00 00	 call	 _sprintf
  00744	83 c4 10	 add	 esp, 16			; 00000010H

; 858  : 
; 859  : 	set_ui_object_text (initialising_text, buffer);

  00747	8d 85 00 fc ff
	ff		 lea	 eax, DWORD PTR _buffer$[ebp]
  0074d	50		 push	 eax
  0074e	8b 0d 00 00 00
	00		 mov	 ecx, DWORD PTR ?initialising_text@@3PAUUI_OBJECT@@A ; initialising_text
  00754	51		 push	 ecx
  00755	8b 15 00 00 00
	00		 mov	 edx, DWORD PTR ?initialising_text@@3PAUUI_OBJECT@@A ; initialising_text
  0075b	8b 02		 mov	 eax, DWORD PTR [edx]
  0075d	8b 0c 85 00 00
	00 00		 mov	 ecx, DWORD PTR ?fn_set_ui_object_text@@3PAP6GXPAUUI_OBJECT@@PBD@ZA[eax*4]
  00764	ff d1		 call	 ecx

; 860  : 
; 861  : 	ui_force_update ();

  00766	e8 00 00 00 00	 call	 ?ui_force_update@@YGXXZ	; ui_force_update

; 862  : 
; 863  : 	initialise_application_3d_system ();

  0076b	e8 00 00 00 00	 call	 ?initialise_application_3d_system@@YGXXZ ; initialise_application_3d_system

; 864  : 
; 865  : 	initialise_terrain_database ();

  00770	e8 00 00 00 00	 call	 ?initialise_terrain_database@@YGXXZ ; initialise_terrain_database

; 866  : 
; 867  : 	set_fpu_rounding_mode_zero ();

  00775	e8 00 00 00 00	 call	 ?set_fpu_rounding_mode_zero@@YGXXZ ; set_fpu_rounding_mode_zero

; 868  : 
; 869  : 	////////////////////////////////////////
; 870  : 	//
; 871  : 	// INITIALISE FILE TAG SYSTEM
; 872  : 	//
; 873  : 	////////////////////////////////////////
; 874  : 
; 875  : 	debug_log ( "Installing file tag system" );

  0077a	68 00 00 00 00	 push	 OFFSET ??_C@_0BL@HKDCEPLJ@Installing?5file?5tag?5system@
  0077f	e8 00 00 00 00	 call	 ?debug_log@@YAXPBDZZ	; debug_log
  00784	83 c4 04	 add	 esp, 4

; 876  : 
; 877  : 	sprintf (buffer, "%s...%s", get_trans ("Loading"), get_trans ("Tag System"));

  00787	68 00 00 00 00	 push	 OFFSET ??_C@_0L@FJDOBPBG@Tag?5System@
  0078c	e8 00 00 00 00	 call	 ?get_trans@@YGPBDPBD@Z	; get_trans
  00791	50		 push	 eax
  00792	68 00 00 00 00	 push	 OFFSET ??_C@_07BINAGFIJ@Loading@
  00797	e8 00 00 00 00	 call	 ?get_trans@@YGPBDPBD@Z	; get_trans
  0079c	50		 push	 eax
  0079d	68 00 00 00 00	 push	 OFFSET ??_C@_07MPOFAFAC@?$CFs?4?4?4?$CFs@
  007a2	8d 85 00 fc ff
	ff		 lea	 eax, DWORD PTR _buffer$[ebp]
  007a8	50		 push	 eax
  007a9	e8 00 00 00 00	 call	 _sprintf
  007ae	83 c4 10	 add	 esp, 16			; 00000010H

; 878  : 
; 879  : 	set_ui_object_text (initialising_text, buffer);

  007b1	8d 85 00 fc ff
	ff		 lea	 eax, DWORD PTR _buffer$[ebp]
  007b7	50		 push	 eax
  007b8	8b 0d 00 00 00
	00		 mov	 ecx, DWORD PTR ?initialising_text@@3PAUUI_OBJECT@@A ; initialising_text
  007be	51		 push	 ecx
  007bf	8b 15 00 00 00
	00		 mov	 edx, DWORD PTR ?initialising_text@@3PAUUI_OBJECT@@A ; initialising_text
  007c5	8b 02		 mov	 eax, DWORD PTR [edx]
  007c7	8b 0c 85 00 00
	00 00		 mov	 ecx, DWORD PTR ?fn_set_ui_object_text@@3PAP6GXPAUUI_OBJECT@@PBD@ZA[eax*4]
  007ce	ff d1		 call	 ecx

; 880  : 
; 881  : 	ui_force_update ();

  007d0	e8 00 00 00 00	 call	 ?ui_force_update@@YGXXZ	; ui_force_update

; 882  : 
; 883  : 	initialise_file_tag_system ();

  007d5	e8 00 00 00 00	 call	 ?initialise_file_tag_system@@YGXXZ ; initialise_file_tag_system

; 884  : 
; 885  : 	////////////////////////////////////////
; 886  : 	//
; 887  : 	// INITIALISE USER-INTERFACE
; 888  : 	//
; 889  : 	////////////////////////////////////////
; 890  : 
; 891  : 	debug_log ( "Initialising ui menus" );

  007da	68 00 00 00 00	 push	 OFFSET ??_C@_0BG@LOFCCDEL@Initialising?5ui?5menus@
  007df	e8 00 00 00 00	 call	 ?debug_log@@YAXPBDZZ	; debug_log
  007e4	83 c4 04	 add	 esp, 4

; 892  : 
; 893  : 	sprintf (buffer, "%s...%s", get_trans ("Loading"), get_trans ("UI Manager"));

  007e7	68 00 00 00 00	 push	 OFFSET ??_C@_0L@IBNOOMAD@UI?5Manager@
  007ec	e8 00 00 00 00	 call	 ?get_trans@@YGPBDPBD@Z	; get_trans
  007f1	50		 push	 eax
  007f2	68 00 00 00 00	 push	 OFFSET ??_C@_07BINAGFIJ@Loading@
  007f7	e8 00 00 00 00	 call	 ?get_trans@@YGPBDPBD@Z	; get_trans
  007fc	50		 push	 eax
  007fd	68 00 00 00 00	 push	 OFFSET ??_C@_07MPOFAFAC@?$CFs?4?4?4?$CFs@
  00802	8d 85 00 fc ff
	ff		 lea	 eax, DWORD PTR _buffer$[ebp]
  00808	50		 push	 eax
  00809	e8 00 00 00 00	 call	 _sprintf
  0080e	83 c4 10	 add	 esp, 16			; 00000010H

; 894  : 
; 895  : 	set_ui_object_text (initialising_text, buffer);

  00811	8d 85 00 fc ff
	ff		 lea	 eax, DWORD PTR _buffer$[ebp]
  00817	50		 push	 eax
  00818	8b 0d 00 00 00
	00		 mov	 ecx, DWORD PTR ?initialising_text@@3PAUUI_OBJECT@@A ; initialising_text
  0081e	51		 push	 ecx
  0081f	8b 15 00 00 00
	00		 mov	 edx, DWORD PTR ?initialising_text@@3PAUUI_OBJECT@@A ; initialising_text
  00825	8b 02		 mov	 eax, DWORD PTR [edx]
  00827	8b 0c 85 00 00
	00 00		 mov	 ecx, DWORD PTR ?fn_set_ui_object_text@@3PAP6GXPAUUI_OBJECT@@PBD@ZA[eax*4]
  0082e	ff d1		 call	 ecx

; 896  : 
; 897  : 	ui_force_update ();

  00830	e8 00 00 00 00	 call	 ?ui_force_update@@YGXXZ	; ui_force_update

; 898  : 
; 899  : 	initialise_ui_menus ();

  00835	e8 00 00 00 00	 call	 ?initialise_ui_menus@@YGXXZ ; initialise_ui_menus

; 900  : 
; 901  : 	////////////////////////////////////////
; 902  : 	//
; 903  : 	// INITIALISE ENTITY SYSTEM
; 904  : 	//
; 905  : 	////////////////////////////////////////
; 906  : 
; 907  : 	debug_log ( "Initialising entity system" );

  0083a	68 00 00 00 00	 push	 OFFSET ??_C@_0BL@OJPJONJF@Initialising?5entity?5system@
  0083f	e8 00 00 00 00	 call	 ?debug_log@@YAXPBDZZ	; debug_log
  00844	83 c4 04	 add	 esp, 4

; 908  : 
; 909  : 	sprintf (buffer, "%s...%s", get_trans ("Loading"), get_trans ("System Manager"));

  00847	68 00 00 00 00	 push	 OFFSET ??_C@_0P@KIPJNODB@System?5Manager@
  0084c	e8 00 00 00 00	 call	 ?get_trans@@YGPBDPBD@Z	; get_trans
  00851	50		 push	 eax
  00852	68 00 00 00 00	 push	 OFFSET ??_C@_07BINAGFIJ@Loading@
  00857	e8 00 00 00 00	 call	 ?get_trans@@YGPBDPBD@Z	; get_trans
  0085c	50		 push	 eax
  0085d	68 00 00 00 00	 push	 OFFSET ??_C@_07MPOFAFAC@?$CFs?4?4?4?$CFs@
  00862	8d 85 00 fc ff
	ff		 lea	 eax, DWORD PTR _buffer$[ebp]
  00868	50		 push	 eax
  00869	e8 00 00 00 00	 call	 _sprintf
  0086e	83 c4 10	 add	 esp, 16			; 00000010H

; 910  : 
; 911  : 	set_ui_object_text (initialising_text, buffer);

  00871	8d 85 00 fc ff
	ff		 lea	 eax, DWORD PTR _buffer$[ebp]
  00877	50		 push	 eax
  00878	8b 0d 00 00 00
	00		 mov	 ecx, DWORD PTR ?initialising_text@@3PAUUI_OBJECT@@A ; initialising_text
  0087e	51		 push	 ecx
  0087f	8b 15 00 00 00
	00		 mov	 edx, DWORD PTR ?initialising_text@@3PAUUI_OBJECT@@A ; initialising_text
  00885	8b 02		 mov	 eax, DWORD PTR [edx]
  00887	8b 0c 85 00 00
	00 00		 mov	 ecx, DWORD PTR ?fn_set_ui_object_text@@3PAP6GXPAUUI_OBJECT@@PBD@ZA[eax*4]
  0088e	ff d1		 call	 ecx

; 912  : 
; 913  : 	ui_force_update ();

  00890	e8 00 00 00 00	 call	 ?ui_force_update@@YGXXZ	; ui_force_update

; 914  : 
; 915  : 	//Xhit: added another 10000 enities (prev. 125000) that are reserved no comms local entities (030428)
; 916  : 	//VJ 030508 if downwash
; 917  : 	if (command_line_downwash)

  00895	83 3d 00 00 00
	00 00		 cmp	 DWORD PTR ?command_line_downwash@@3HA, 0 ; command_line_downwash
  0089c	74 0c		 je	 SHORT $LN15@full_initi

; 918  : 		initialise_entity_system (135000);

  0089e	68 58 0f 02 00	 push	 135000			; 00020f58H
  008a3	e8 00 00 00 00	 call	 ?initialise_entity_system@@YGXH@Z ; initialise_entity_system

; 919  : 	else

  008a8	eb 0a		 jmp	 SHORT $LN16@full_initi
$LN15@full_initi:

; 920  : 		initialise_entity_system (125000);

  008aa	68 48 e8 01 00	 push	 125000			; 0001e848H
  008af	e8 00 00 00 00	 call	 ?initialise_entity_system@@YGXH@Z ; initialise_entity_system
$LN16@full_initi:

; 921  : 
; 922  : 	////////////////////////////////////////
; 923  : 	//
; 924  : 	// INITIALISE AI SYSTEM
; 925  : 	//
; 926  : 	////////////////////////////////////////
; 927  : 
; 928  : 	debug_log ( "Initialising ai system" );

  008b4	68 00 00 00 00	 push	 OFFSET ??_C@_0BH@GEDEDAKE@Initialising?5ai?5system@
  008b9	e8 00 00 00 00	 call	 ?debug_log@@YAXPBDZZ	; debug_log
  008be	83 c4 04	 add	 esp, 4

; 929  : 
; 930  : 	sprintf (buffer, "%s...%s", get_trans ("Loading"), get_trans ("AI System"));

  008c1	68 00 00 00 00	 push	 OFFSET ??_C@_09BMDKDCML@AI?5System@
  008c6	e8 00 00 00 00	 call	 ?get_trans@@YGPBDPBD@Z	; get_trans
  008cb	50		 push	 eax
  008cc	68 00 00 00 00	 push	 OFFSET ??_C@_07BINAGFIJ@Loading@
  008d1	e8 00 00 00 00	 call	 ?get_trans@@YGPBDPBD@Z	; get_trans
  008d6	50		 push	 eax
  008d7	68 00 00 00 00	 push	 OFFSET ??_C@_07MPOFAFAC@?$CFs?4?4?4?$CFs@
  008dc	8d 85 00 fc ff
	ff		 lea	 eax, DWORD PTR _buffer$[ebp]
  008e2	50		 push	 eax
  008e3	e8 00 00 00 00	 call	 _sprintf
  008e8	83 c4 10	 add	 esp, 16			; 00000010H

; 931  : 
; 932  : 	set_ui_object_text (initialising_text, buffer);

  008eb	8d 85 00 fc ff
	ff		 lea	 eax, DWORD PTR _buffer$[ebp]
  008f1	50		 push	 eax
  008f2	8b 0d 00 00 00
	00		 mov	 ecx, DWORD PTR ?initialising_text@@3PAUUI_OBJECT@@A ; initialising_text
  008f8	51		 push	 ecx
  008f9	8b 15 00 00 00
	00		 mov	 edx, DWORD PTR ?initialising_text@@3PAUUI_OBJECT@@A ; initialising_text
  008ff	8b 02		 mov	 eax, DWORD PTR [edx]
  00901	8b 0c 85 00 00
	00 00		 mov	 ecx, DWORD PTR ?fn_set_ui_object_text@@3PAP6GXPAUUI_OBJECT@@PBD@ZA[eax*4]
  00908	ff d1		 call	 ecx

; 933  : 
; 934  : 	ui_force_update ();

  0090a	e8 00 00 00 00	 call	 ?ui_force_update@@YGXXZ	; ui_force_update

; 935  : 
; 936  : 	initialise_ai_system ();

  0090f	e8 00 00 00 00	 call	 ?initialise_ai_system@@YGXXZ ; initialise_ai_system

; 937  : 
; 938  : 	////////////////////////////////////////
; 939  : 	//
; 940  : 	// INITIALISE USER DEFINED KEYS
; 941  : 	//
; 942  : 	////////////////////////////////////////
; 943  : 
; 944  : 	debug_log ( "Initialising user defined events" );

  00914	68 00 00 00 00	 push	 OFFSET ??_C@_0CB@HCMAOGFE@Initialising?5user?5defined?5event@
  00919	e8 00 00 00 00	 call	 ?debug_log@@YAXPBDZZ	; debug_log
  0091e	83 c4 04	 add	 esp, 4

; 945  : 
; 946  : 	initialise_user_defined_events ();

  00921	e8 00 00 00 00	 call	 ?initialise_user_defined_events@@YGXXZ ; initialise_user_defined_events

; 947  : 
; 948  : 	////////////////////////////////////////
; 949  : 	//
; 950  : 	// INITIALISE PLAYER LIST
; 951  : 	//
; 952  : 	////////////////////////////////////////
; 953  : 
; 954  : 	debug_log ( "Initialising player list" );

  00926	68 00 00 00 00	 push	 OFFSET ??_C@_0BJ@GLOEDMEI@Initialising?5player?5list@
  0092b	e8 00 00 00 00	 call	 ?debug_log@@YAXPBDZZ	; debug_log
  00930	83 c4 04	 add	 esp, 4

; 955  : 
; 956  : 	sprintf (buffer, "%s...%s", get_trans ("Loading"), get_trans ("Players"));

  00933	68 00 00 00 00	 push	 OFFSET ??_C@_07OLBIDKLK@Players@
  00938	e8 00 00 00 00	 call	 ?get_trans@@YGPBDPBD@Z	; get_trans
  0093d	50		 push	 eax
  0093e	68 00 00 00 00	 push	 OFFSET ??_C@_07BINAGFIJ@Loading@
  00943	e8 00 00 00 00	 call	 ?get_trans@@YGPBDPBD@Z	; get_trans
  00948	50		 push	 eax
  00949	68 00 00 00 00	 push	 OFFSET ??_C@_07MPOFAFAC@?$CFs?4?4?4?$CFs@
  0094e	8d 85 00 fc ff
	ff		 lea	 eax, DWORD PTR _buffer$[ebp]
  00954	50		 push	 eax
  00955	e8 00 00 00 00	 call	 _sprintf
  0095a	83 c4 10	 add	 esp, 16			; 00000010H

; 957  : 
; 958  : 	set_ui_object_text (initialising_text, buffer);

  0095d	8d 85 00 fc ff
	ff		 lea	 eax, DWORD PTR _buffer$[ebp]
  00963	50		 push	 eax
  00964	8b 0d 00 00 00
	00		 mov	 ecx, DWORD PTR ?initialising_text@@3PAUUI_OBJECT@@A ; initialising_text
  0096a	51		 push	 ecx
  0096b	8b 15 00 00 00
	00		 mov	 edx, DWORD PTR ?initialising_text@@3PAUUI_OBJECT@@A ; initialising_text
  00971	8b 02		 mov	 eax, DWORD PTR [edx]
  00973	8b 0c 85 00 00
	00 00		 mov	 ecx, DWORD PTR ?fn_set_ui_object_text@@3PAP6GXPAUUI_OBJECT@@PBD@ZA[eax*4]
  0097a	ff d1		 call	 ecx

; 959  : 
; 960  : 	ui_force_update ();

  0097c	e8 00 00 00 00	 call	 ?ui_force_update@@YGXXZ	; ui_force_update

; 961  : 
; 962  : 	load_player_list ();

  00981	e8 00 00 00 00	 call	 ?load_player_list@@YGXXZ ; load_player_list

; 963  : 
; 964  : 	////////////////////////////////////////
; 965  : 	//
; 966  : 	// INITIALISE MEDAL / PROMOTION NAME DATABASE
; 967  : 	//
; 968  : 	////////////////////////////////////////
; 969  : 
; 970  : 	initialise_medal_and_promotion_names ();

  00986	e8 00 00 00 00	 call	 ?initialise_medal_and_promotion_names@@YGXXZ ; initialise_medal_and_promotion_names

; 971  : 
; 972  : 	initialise_game_initialisation_phases ();

  0098b	e8 00 00 00 00	 call	 ?initialise_game_initialisation_phases@@YGXXZ ; initialise_game_initialisation_phases

; 973  : 
; 974  : //VJ WUT mod 26-mar-03
; 975  : 
; 976  : 	////////////////////////////////////////
; 977  : 	//
; 978  : 	// Parse the WUT text file
; 979  : 	//
; 980  : 	////////////////////////////////////////
; 981  : 
; 982  :     if (command_line_wut)

  00990	83 3d 00 00 00
	00 00		 cmp	 DWORD PTR ?command_line_wut@@3HA, 0 ; command_line_wut
  00997	74 1c		 je	 SHORT $LN17@full_initi

; 983  :     {
; 984  : 		debug_log ( "reading WUT file %s",WUT_filename );

  00999	68 00 00 00 00	 push	 OFFSET ?WUT_filename@@3PADA ; WUT_filename
  0099e	68 00 00 00 00	 push	 OFFSET ??_C@_0BE@HGKBBAIB@reading?5WUT?5file?5?$CFs@
  009a3	e8 00 00 00 00	 call	 ?debug_log@@YAXPBDZZ	; debug_log
  009a8	83 c4 08	 add	 esp, 8

; 985  : /*
; 986  : //VJ 030807 moved to beginning of this function as separate ui_object
; 987  : 	sprintf (buffer, "%s...%s: %s", get_trans ("Loading"), get_trans ("WUT file"), WUT_filename);
; 988  : 
; 989  : 	set_ui_object_text (initialising_text, buffer);
; 990  : 
; 991  : 	ui_force_update ();
; 992  : */
; 993  :     	parse_WUT_file(WUT_filename);

  009ab	68 00 00 00 00	 push	 OFFSET ?WUT_filename@@3PADA ; WUT_filename
  009b0	e8 00 00 00 00	 call	 ?parse_WUT_file@@YGXPBD@Z ; parse_WUT_file
$LN17@full_initi:

; 994  :     }
; 995  : 
; 996  :     //Werewolf
; 997  :     net_init_heartbeat();

  009b5	e8 00 00 00 00	 call	 ?net_init_heartbeat@@YGXXZ ; net_init_heartbeat

; 998  : 
; 999  : //	play_avi ( "wenesday.avi", 0 );
; 1000 : 
; 1001 : 	debug_log ( "Initialising ballistics tables" );

  009ba	68 00 00 00 00	 push	 OFFSET ??_C@_0BP@KBKHFHPP@Initialising?5ballistics?5tables@
  009bf	e8 00 00 00 00	 call	 ?debug_log@@YAXPBDZZ	; debug_log
  009c4	83 c4 04	 add	 esp, 4

; 1002 : 	set_ui_object_text ( initialising_text, "Initialising ballistics tables");

  009c7	68 00 00 00 00	 push	 OFFSET ??_C@_0BP@KBKHFHPP@Initialising?5ballistics?5tables@
  009cc	a1 00 00 00 00	 mov	 eax, DWORD PTR ?initialising_text@@3PAUUI_OBJECT@@A ; initialising_text
  009d1	50		 push	 eax
  009d2	8b 0d 00 00 00
	00		 mov	 ecx, DWORD PTR ?initialising_text@@3PAUUI_OBJECT@@A ; initialising_text
  009d8	8b 11		 mov	 edx, DWORD PTR [ecx]
  009da	8b 04 95 00 00
	00 00		 mov	 eax, DWORD PTR ?fn_set_ui_object_text@@3PAP6GXPAUUI_OBJECT@@PBD@ZA[edx*4]
  009e1	ff d0		 call	 eax

; 1003 : 
; 1004 : 	ui_force_update ();

  009e3	e8 00 00 00 00	 call	 ?ui_force_update@@YGXXZ	; ui_force_update

; 1005 : 
; 1006 : 	generate_ballistics_tables();

  009e8	e8 00 00 00 00	 call	 ?generate_ballistics_tables@@YGXXZ ; generate_ballistics_tables

; 1007 : 
; 1008 : 	debug_log ( "Finished Full initialise" );

  009ed	68 00 00 00 00	 push	 OFFSET ??_C@_0BJ@OKJGLPIG@Finished?5Full?5initialise@
  009f2	e8 00 00 00 00	 call	 ?debug_log@@YAXPBDZZ	; debug_log
  009f7	83 c4 04	 add	 esp, 4

; 1009 : 	set_ui_object_text ( initialising_text, get_trans ("Finished Initialisation") );

  009fa	68 00 00 00 00	 push	 OFFSET ??_C@_0BI@MJPGMNML@Finished?5Initialisation@
  009ff	e8 00 00 00 00	 call	 ?get_trans@@YGPBDPBD@Z	; get_trans
  00a04	50		 push	 eax
  00a05	a1 00 00 00 00	 mov	 eax, DWORD PTR ?initialising_text@@3PAUUI_OBJECT@@A ; initialising_text
  00a0a	50		 push	 eax
  00a0b	8b 0d 00 00 00
	00		 mov	 ecx, DWORD PTR ?initialising_text@@3PAUUI_OBJECT@@A ; initialising_text
  00a11	8b 11		 mov	 edx, DWORD PTR [ecx]
  00a13	8b 04 95 00 00
	00 00		 mov	 eax, DWORD PTR ?fn_set_ui_object_text@@3PAP6GXPAUUI_OBJECT@@PBD@ZA[edx*4]
  00a1a	ff d0		 call	 eax

; 1010 : 
; 1011 : 	ui_force_update ();

  00a1c	e8 00 00 00 00	 call	 ?ui_force_update@@YGXXZ	; ui_force_update

; 1012 : }

  00a21	5f		 pop	 edi
  00a22	5e		 pop	 esi
  00a23	5b		 pop	 ebx
  00a24	8b e5		 mov	 esp, ebp
  00a26	5d		 pop	 ebp
  00a27	c3		 ret	 0
?full_initialise_game@@YGXXZ ENDP			; full_initialise_game
_TEXT	ENDS
; Function compile flags: /Odtp /ZI
; File c:\users\nhv90\projects\eech\aphavoc\source\init.c
;	COMDAT ?brief_initialise_game@@YGXXZ
_TEXT	SEGMENT
tv128 = -84						; size = 4
_alpha_mask$1 = -16					; size = 4
_blue_mask$2 = -12					; size = 4
_green_mask$3 = -8					; size = 4
_red_mask$4 = -4					; size = 4
?brief_initialise_game@@YGXXZ PROC			; brief_initialise_game, COMDAT

; 349  : {

  00000	55		 push	 ebp
  00001	8b ec		 mov	 ebp, esp
  00003	83 ec 54	 sub	 esp, 84			; 00000054H
  00006	53		 push	 ebx
  00007	56		 push	 esi
  00008	57		 push	 edi

; 350  : 
; 351  : 	////////////////////////////////////////
; 352  : 	set_game_status (GAME_STATUS_UNINITIALISED);

  00009	6a 00		 push	 0
  0000b	e8 00 00 00 00	 call	 ?set_game_status@@YGXW4GAME_STATUS_TYPES@@@Z ; set_game_status

; 353  : 	set_comms_model (COMMS_MODEL_SERVER);

  00010	6a 00		 push	 0
  00012	e8 00 00 00 00	 call	 ?set_comms_model@@YGXW4COMMS_MODEL_TYPES@@@Z ; set_comms_model

; 354  : 	////////////////////////////////////////
; 355  : 
; 356  : 	////////////////////////////////////////
; 357  : 	debug_watch ("Game status                                           =  %s", MT_STRING_PTR, (void*)&game_status_string);

  00017	68 00 00 00 00	 push	 OFFSET ?game_status_string@@3PBDB ; game_status_string
  0001c	6a 05		 push	 5
  0001e	68 00 00 00 00	 push	 OFFSET ??_C@_0DM@IMPDMHAB@Game?5status?5?5?5?5?5?5?5?5?5?5?5?5?5?5?5?5?5?5?5?5@
  00023	e8 00 00 00 00	 call	 ?debug_watch@@YGXPBDW4mt_type@@PAX@Z ; debug_watch

; 358  : 	debug_watch ("Comms model                                           =  %s", MT_STRING_PTR, (void*)&comms_model_string);

  00028	68 00 00 00 00	 push	 OFFSET ?comms_model_string@@3PBDB ; comms_model_string
  0002d	6a 05		 push	 5
  0002f	68 00 00 00 00	 push	 OFFSET ??_C@_0DM@CEBOBOID@Comms?5model?5?5?5?5?5?5?5?5?5?5?5?5?5?5?5?5?5?5?5?5@
  00034	e8 00 00 00 00	 call	 ?debug_watch@@YGXPBDW4mt_type@@PAX@Z ; debug_watch

; 359  : 	////////////////////////////////////////
; 360  : 
; 361  : 	////////////////////////////////////////
; 362  : 	//
; 363  : 	// WARNING!     INITIALISATION ORDER IS CRITICAL
; 364  : 	//
; 365  : 	// NOTE :       MEMORY BLOCK SYSTEM CONSTRAINTS;
; 366  : 	//                      DO NOT USE REGISTER_EXIT_FUNCTION
; 367  : 	//                      FOR DEINITIALISATION.
; 368  : 	//
; 369  : 	////////////////////////////////////////
; 370  : 
; 371  : 	////////////////////////////////////////
; 372  : 	//
; 373  : 	// INITIALISE GLOBAL OPTIONS
; 374  : 	//
; 375  : 	////////////////////////////////////////
; 376  : 
; 377  : 	debug_log ( "Initialising memory system" );

  00039	68 00 00 00 00	 push	 OFFSET ??_C@_0BL@EJHDCBGJ@Initialising?5memory?5system@
  0003e	e8 00 00 00 00	 call	 ?debug_log@@YAXPBDZZ	; debug_log
  00043	83 c4 04	 add	 esp, 4

; 378  : 
; 379  : 	reset_safe_memory_counter ();

  00046	e8 00 00 00 00	 call	 ?reset_safe_memory_counter@@YGXXZ ; reset_safe_memory_counter

; 380  : 
; 381  : 	reset_safe_memory_mapped_file_counter ();

  0004b	e8 00 00 00 00	 call	 ?reset_safe_memory_mapped_file_counter@@YGXXZ ; reset_safe_memory_mapped_file_counter

; 382  : 
; 383  : 	initialise_memory_block_system ();

  00050	e8 00 00 00 00	 call	 ?initialise_memory_block_system@@YGXXZ ; initialise_memory_block_system

; 384  : 
; 385  : 	create_memory_block_configuration (memory_block_config, sizeof (memory_block_config) / sizeof (memory_block_configuration));

  00055	6a 3b		 push	 59			; 0000003bH
  00057	68 00 00 00 00	 push	 OFFSET ?memory_block_config@@3PAUMEMORY_BLOCK_CONFIGURATION@@A
  0005c	e8 00 00 00 00	 call	 ?create_memory_block_configuration@@YGXPAUMEMORY_BLOCK_CONFIGURATION@@H@Z ; create_memory_block_configuration

; 386  : 
; 387  : 	////////////////////////////////////////
; 388  : 	//
; 389  : 	// INITIALISE GRAPHICS FILES
; 390  : 	//
; 391  : 	// NB. FIRST PASS CONVERSION ONLY
; 392  : 	//
; 393  : 	////////////////////////////////////////
; 394  : 
; 395  : 	debug_log ( "Installing graphics files" );

  00061	68 00 00 00 00	 push	 OFFSET ??_C@_0BK@HKNBPAMD@Installing?5graphics?5files@
  00066	e8 00 00 00 00	 call	 ?debug_log@@YAXPBDZZ	; debug_log
  0006b	83 c4 04	 add	 esp, 4

; 396  : 
; 397  : 	//
; 398  : 	// Check the graphics file format
; 399  : 	//
; 400  : 
; 401  : 	{
; 402  : 
; 403  : 		int
; 404  : 		red_mask,
; 405  : 		green_mask,
; 406  : 		blue_mask,
; 407  : 		alpha_mask;
; 408  : 
; 409  : 		get_screen_pixel_format ( &red_mask, &green_mask, &blue_mask, &alpha_mask );

  0006e	8d 45 f0	 lea	 eax, DWORD PTR _alpha_mask$1[ebp]
  00071	50		 push	 eax
  00072	8d 4d f4	 lea	 ecx, DWORD PTR _blue_mask$2[ebp]
  00075	51		 push	 ecx
  00076	8d 55 f8	 lea	 edx, DWORD PTR _green_mask$3[ebp]
  00079	52		 push	 edx
  0007a	8d 45 fc	 lea	 eax, DWORD PTR _red_mask$4[ebp]
  0007d	50		 push	 eax
  0007e	e8 00 00 00 00	 call	 ?get_screen_pixel_format@@YGXPAH000@Z ; get_screen_pixel_format

; 410  : 
; 411  : 		if (	( red_mask != get_global_graphics_files_red_mask () ) ||
; 412  : 				( green_mask != get_global_graphics_files_green_mask () ) ||
; 413  : 				( blue_mask != get_global_graphics_files_blue_mask () ) ||

  00083	8b 45 fc	 mov	 eax, DWORD PTR _red_mask$4[ebp]
  00086	3b 05 68 00 00
	00		 cmp	 eax, DWORD PTR ?global_options@@3UGLOBAL_OPTIONS_DATA@@A+104
  0008c	75 21		 jne	 SHORT $LN7@brief_init
  0008e	8b 45 f8	 mov	 eax, DWORD PTR _green_mask$3[ebp]
  00091	3b 05 6c 00 00
	00		 cmp	 eax, DWORD PTR ?global_options@@3UGLOBAL_OPTIONS_DATA@@A+108
  00097	75 16		 jne	 SHORT $LN7@brief_init
  00099	8b 45 f4	 mov	 eax, DWORD PTR _blue_mask$2[ebp]
  0009c	3b 05 70 00 00
	00		 cmp	 eax, DWORD PTR ?global_options@@3UGLOBAL_OPTIONS_DATA@@A+112
  000a2	75 0b		 jne	 SHORT $LN7@brief_init
  000a4	8b 45 f0	 mov	 eax, DWORD PTR _alpha_mask$1[ebp]
  000a7	3b 05 74 00 00
	00		 cmp	 eax, DWORD PTR ?global_options@@3UGLOBAL_OPTIONS_DATA@@A+116
  000ad	74 2a		 je	 SHORT $LN6@brief_init
$LN7@brief_init:

; 414  : 				( alpha_mask != get_global_graphics_files_alpha_mask () ) )
; 415  : 		{
; 416  : 
; 417  : 			set_global_graphics_files_red_mask ( red_mask );

  000af	8b 45 fc	 mov	 eax, DWORD PTR _red_mask$4[ebp]
  000b2	a3 68 00 00 00	 mov	 DWORD PTR ?global_options@@3UGLOBAL_OPTIONS_DATA@@A+104, eax

; 418  : 
; 419  : 			set_global_graphics_files_green_mask ( green_mask );

  000b7	8b 45 f8	 mov	 eax, DWORD PTR _green_mask$3[ebp]
  000ba	a3 6c 00 00 00	 mov	 DWORD PTR ?global_options@@3UGLOBAL_OPTIONS_DATA@@A+108, eax

; 420  : 
; 421  : 			set_global_graphics_files_blue_mask ( blue_mask );

  000bf	8b 45 f4	 mov	 eax, DWORD PTR _blue_mask$2[ebp]
  000c2	a3 70 00 00 00	 mov	 DWORD PTR ?global_options@@3UGLOBAL_OPTIONS_DATA@@A+112, eax

; 422  : 
; 423  : 			set_global_graphics_files_alpha_mask ( alpha_mask );

  000c7	8b 45 f0	 mov	 eax, DWORD PTR _alpha_mask$1[ebp]
  000ca	a3 74 00 00 00	 mov	 DWORD PTR ?global_options@@3UGLOBAL_OPTIONS_DATA@@A+116, eax

; 424  : 
; 425  : 			set_global_graphics_files_wrong_format ( TRUE );

  000cf	c7 05 64 00 00
	00 01 00 00 00	 mov	 DWORD PTR ?global_options@@3UGLOBAL_OPTIONS_DATA@@A+100, 1
$LN6@brief_init:

; 426  : 		}
; 427  : 	}
; 428  : 
; 429  : 	if ( (command_line_clean_graphics) || ( ( get_global_graphics_files_wrong_format () ) && ( !command_line_no_graphics_conversion ) ) )

  000d9	83 3d 00 00 00
	00 00		 cmp	 DWORD PTR ?command_line_clean_graphics@@3HA, 0 ; command_line_clean_graphics
  000e0	75 12		 jne	 SHORT $LN9@brief_init
  000e2	83 3d 64 00 00
	00 00		 cmp	 DWORD PTR ?global_options@@3UGLOBAL_OPTIONS_DATA@@A+100, 0
  000e9	74 0e		 je	 SHORT $LN8@brief_init
  000eb	83 3d 00 00 00
	00 00		 cmp	 DWORD PTR ?command_line_no_graphics_conversion@@3HA, 0 ; command_line_no_graphics_conversion
  000f2	75 05		 jne	 SHORT $LN8@brief_init
$LN9@brief_init:

; 430  : 	{
; 431  : 
; 432  : 		uninstall_graphics_files ();

  000f4	e8 00 00 00 00	 call	 ?uninstall_graphics_files@@YGXXZ ; uninstall_graphics_files
$LN8@brief_init:

; 433  : 	}
; 434  : 
; 435  : 	if ((!get_global_graphics_files_installed ()) || command_line_new_graphics)

  000f9	83 3d 24 00 00
	00 00		 cmp	 DWORD PTR ?global_options@@3UGLOBAL_OPTIONS_DATA@@A+36, 0
  00100	74 09		 je	 SHORT $LN11@brief_init
  00102	83 3d 00 00 00
	00 00		 cmp	 DWORD PTR ?command_line_new_graphics@@3HA, 0 ; command_line_new_graphics
  00109	74 0d		 je	 SHORT $LN3@brief_init
$LN11@brief_init:

; 436  : 	{
; 437  : 		while (!install_graphics_files (GRAPHICS_CONVERSION_FIRST_PASS));

  0010b	6a 00		 push	 0
  0010d	e8 00 00 00 00	 call	 ?install_graphics_files@@YGHH@Z ; install_graphics_files
  00112	85 c0		 test	 eax, eax
  00114	75 02		 jne	 SHORT $LN3@brief_init
  00116	eb f3		 jmp	 SHORT $LN11@brief_init
$LN3@brief_init:

; 438  : 	}
; 439  : 
; 440  : 	debug_log ( "Opening graphics files" );

  00118	68 00 00 00 00	 push	 OFFSET ??_C@_0BH@NJCNFMHJ@Opening?5graphics?5files@
  0011d	e8 00 00 00 00	 call	 ?debug_log@@YAXPBDZZ	; debug_log
  00122	83 c4 04	 add	 esp, 4

; 441  : 
; 442  : 	mopen_all_graphics_files (GRAPHICS_CONVERSION_FIRST_PASS);

  00125	6a 00		 push	 0
  00127	e8 00 00 00 00	 call	 ?mopen_all_graphics_files@@YGXH@Z ; mopen_all_graphics_files

; 443  : 
; 444  : 	//
; 445  : 	// Reset the graphics file format change flag now
; 446  : 	//
; 447  : 
; 448  : 	set_global_graphics_files_wrong_format ( FALSE );

  0012c	c7 05 64 00 00
	00 00 00 00 00	 mov	 DWORD PTR ?global_options@@3UGLOBAL_OPTIONS_DATA@@A+100, 0

; 449  : 
; 450  : 	debug_log ( "Installing event stack" );

  00136	68 00 00 00 00	 push	 OFFSET ??_C@_0BH@NEDABEEH@Installing?5event?5stack@
  0013b	e8 00 00 00 00	 call	 ?debug_log@@YAXPBDZZ	; debug_log
  00140	83 c4 04	 add	 esp, 4

; 451  : 
; 452  : 	initialise_event_stack ();

  00143	e8 00 00 00 00	 call	 ?initialise_event_stack@@YGXXZ ; initialise_event_stack

; 453  : 
; 454  : 	debug_log ( "Installing ui" );

  00148	68 00 00 00 00	 push	 OFFSET ??_C@_0O@GKFCJLDC@Installing?5ui@
  0014d	e8 00 00 00 00	 call	 ?debug_log@@YAXPBDZZ	; debug_log
  00152	83 c4 04	 add	 esp, 4

; 455  : 
; 456  : 	switch (command_line_run_mode)

  00155	a1 00 00 00 00	 mov	 eax, DWORD PTR ?command_line_run_mode@@3HA ; command_line_run_mode
  0015a	89 45 ac	 mov	 DWORD PTR tv128[ebp], eax

; 457  : 	{
; 458  : /*
; 459  : 		case RUN_MODE_AITOOL:
; 460  : 		{
; 461  : 
; 462  : 			push_event (aitool_events, "aitool events");
; 463  : 
; 464  : 			break;
; 465  : 		}
; 466  : */
; 467  : 		case RUN_MODE_NORMAL:
; 468  : 		default:
; 469  : 		{
; 470  : 
; 471  : 			push_event (ui_events, "ui events");

  0015d	68 00 00 00 00	 push	 OFFSET ??_C@_09NMJHJDNG@ui?5events@
  00162	68 00 00 00 00	 push	 OFFSET ?ui_events@@YGXXZ ; ui_events
  00167	e8 00 00 00 00	 call	 ?push_event@@YGXP6GXXZPBD@Z ; push_event

; 472  : 
; 473  : 			break;
; 474  : 		}
; 475  : 	}
; 476  : 
; 477  : 	initialise_dinput_to_ascii_conversion_table ();

  0016c	e8 00 00 00 00	 call	 ?initialise_dinput_to_ascii_conversion_table@@YGXXZ ; initialise_dinput_to_ascii_conversion_table

; 478  : 	initialise_utf8_conversion_table();

  00171	e8 00 00 00 00	 call	 ?initialise_utf8_conversion_table@@YGXXZ ; initialise_utf8_conversion_table

; 479  : 
; 480  : 	debug_log ( "Initialising ui system" );

  00176	68 00 00 00 00	 push	 OFFSET ??_C@_0BH@EKHBBBDG@Initialising?5ui?5system@
  0017b	e8 00 00 00 00	 call	 ?debug_log@@YAXPBDZZ	; debug_log
  00180	83 c4 04	 add	 esp, 4

; 481  : 
; 482  : 	initialise_ui_system (2000);

  00183	68 d0 07 00 00	 push	 2000			; 000007d0H
  00188	e8 00 00 00 00	 call	 ?initialise_ui_system@@YGXH@Z ; initialise_ui_system

; 483  : 
; 484  : 	debug_log ( "Initialising ui font" );

  0018d	68 00 00 00 00	 push	 OFFSET ??_C@_0BF@JBEJJLMA@Initialising?5ui?5font@
  00192	e8 00 00 00 00	 call	 ?debug_log@@YAXPBDZZ	; debug_log
  00197	83 c4 04	 add	 esp, 4

; 485  : 
; 486  : 	//
; 487  : 	// Hack in to support all font resolutions
; 488  : 	//
; 489  : 
; 490  : 	set_ui_font_resolution (get_global_3d_visual_screen_width (), get_global_3d_visual_screen_height ());

  0019a	f3 0f 2c 05 c8
	01 00 00	 cvttss2si eax, DWORD PTR ?global_options@@3UGLOBAL_OPTIONS_DATA@@A+456
  001a2	50		 push	 eax
  001a3	f3 0f 2c 0d c4
	01 00 00	 cvttss2si ecx, DWORD PTR ?global_options@@3UGLOBAL_OPTIONS_DATA@@A+452
  001ab	51		 push	 ecx
  001ac	e8 00 00 00 00	 call	 ?set_ui_font_resolution@@YGXHH@Z ; set_ui_font_resolution

; 491  : 	initialise_ui_font ();

  001b1	e8 00 00 00 00	 call	 ?initialise_ui_font@@YGXXZ ; initialise_ui_font

; 492  : 
; 493  : 	set_ui_font_type (UI_FONT_ARIAL_18);

  001b6	6a 05		 push	 5
  001b8	e8 00 00 00 00	 call	 ?set_ui_font_type@@YGXW4FONT_TYPES@@@Z ; set_ui_font_type

; 494  : 
; 495  : 	debug_log ( "Initialising ui objects" );

  001bd	68 00 00 00 00	 push	 OFFSET ??_C@_0BI@MKOKAIKP@Initialising?5ui?5objects@
  001c2	e8 00 00 00 00	 call	 ?debug_log@@YAXPBDZZ	; debug_log
  001c7	83 c4 04	 add	 esp, 4

; 496  : 
; 497  : 	initialise_ui_objects ();

  001ca	e8 00 00 00 00	 call	 ?initialise_ui_objects@@YGXXZ ; initialise_ui_objects

; 498  : 
; 499  : 	debug_log ( "Initialising ui menus" );

  001cf	68 00 00 00 00	 push	 OFFSET ??_C@_0BG@LOFCCDEL@Initialising?5ui?5menus@
  001d4	e8 00 00 00 00	 call	 ?debug_log@@YAXPBDZZ	; debug_log
  001d9	83 c4 04	 add	 esp, 4

; 500  : 
; 501  : 
; 502  : 	////////////////////////////////////////
; 503  : 	//
; 504  : 	// INITIALISE LANGUAGE DATABASE
; 505  : 	//
; 506  : 	////////////////////////////////////////
; 507  : 
; 508  : 	initialise_language_database ();

  001dc	e8 00 00 00 00	 call	 ?initialise_language_database@@YGXXZ ; initialise_language_database

; 509  : 
; 510  : 
; 511  : 
; 512  : 	initialise_title_screen ();

  001e1	e8 00 00 00 00	 call	 ?initialise_title_screen@@YGXXZ ; initialise_title_screen

; 513  : 	initialise_init_screen ();

  001e6	e8 00 00 00 00	 call	 ?initialise_init_screen@@YGXXZ ; initialise_init_screen

; 514  : 
; 515  : 	debug_log ( "Initialising ui mouseptr" );

  001eb	68 00 00 00 00	 push	 OFFSET ??_C@_0BJ@KPCNALIB@Initialising?5ui?5mouseptr@
  001f0	e8 00 00 00 00	 call	 ?debug_log@@YAXPBDZZ	; debug_log
  001f5	83 c4 04	 add	 esp, 4

; 516  : 
; 517  : 	initialise_mouse_pointer ((rgb_packed *) get_graphics_file_data (GRAPHICS_UI_COMMON_MOUSE_POINTER));

  001f8	b8 28 00 00 00	 mov	 eax, 40			; 00000028H
  001fd	d1 e0		 shl	 eax, 1
  001ff	8b 88 1c 00 00
	00		 mov	 ecx, DWORD PTR ?graphics_files@@3PAUFILE_DATA@@A[eax+28]
  00205	51		 push	 ecx
  00206	e8 00 00 00 00	 call	 ?initialise_mouse_pointer@@YGXPAG@Z ; initialise_mouse_pointer

; 518  : 
; 519  : 	debug_log ( "Finished brief install" );

  0020b	68 00 00 00 00	 push	 OFFSET ??_C@_0BH@MEPKBEGH@Finished?5brief?5install@
  00210	e8 00 00 00 00	 call	 ?debug_log@@YAXPBDZZ	; debug_log
  00215	83 c4 04	 add	 esp, 4

; 520  : }

  00218	5f		 pop	 edi
  00219	5e		 pop	 esi
  0021a	5b		 pop	 ebx
  0021b	8b e5		 mov	 esp, ebp
  0021d	5d		 pop	 ebp
  0021e	c3		 ret	 0
?brief_initialise_game@@YGXXZ ENDP			; brief_initialise_game
_TEXT	ENDS
; Function compile flags: /Odtp /ZI
; File c:\program files (x86)\windows kits\10\include\10.0.18362.0\ucrt\stdio.h
;	COMDAT _sprintf
_TEXT	SEGMENT
__ArgList$ = -8						; size = 4
__Result$ = -4						; size = 4
__Buffer$ = 8						; size = 4
__Format$ = 12						; size = 4
_sprintf PROC						; COMDAT

; 1781 :     {

  00000	55		 push	 ebp
  00001	8b ec		 mov	 ebp, esp
  00003	83 ec 4c	 sub	 esp, 76			; 0000004cH
  00006	53		 push	 ebx
  00007	56		 push	 esi
  00008	57		 push	 edi

; 1782 :         int _Result;
; 1783 :         va_list _ArgList;
; 1784 :         __crt_va_start(_ArgList, _Format);

  00009	8d 45 10	 lea	 eax, DWORD PTR __Format$[ebp+4]
  0000c	89 45 f8	 mov	 DWORD PTR __ArgList$[ebp], eax

; 1785 : 
; 1786 :         #pragma warning(push)
; 1787 :         #pragma warning(disable: 4996) // Deprecation
; 1788 :         _Result = _vsprintf_l(_Buffer, _Format, NULL, _ArgList);

  0000f	8b 45 f8	 mov	 eax, DWORD PTR __ArgList$[ebp]
  00012	50		 push	 eax
  00013	6a 00		 push	 0
  00015	8b 4d 0c	 mov	 ecx, DWORD PTR __Format$[ebp]
  00018	51		 push	 ecx
  00019	8b 55 08	 mov	 edx, DWORD PTR __Buffer$[ebp]
  0001c	52		 push	 edx
  0001d	e8 00 00 00 00	 call	 __vsprintf_l
  00022	83 c4 10	 add	 esp, 16			; 00000010H
  00025	89 45 fc	 mov	 DWORD PTR __Result$[ebp], eax

; 1789 :         #pragma warning(pop)
; 1790 : 
; 1791 :         __crt_va_end(_ArgList);

  00028	c7 45 f8 00 00
	00 00		 mov	 DWORD PTR __ArgList$[ebp], 0

; 1792 :         return _Result;

  0002f	8b 45 fc	 mov	 eax, DWORD PTR __Result$[ebp]

; 1793 :     }

  00032	5f		 pop	 edi
  00033	5e		 pop	 esi
  00034	5b		 pop	 ebx
  00035	8b e5		 mov	 esp, ebp
  00037	5d		 pop	 ebp
  00038	c3		 ret	 0
_sprintf ENDP
_TEXT	ENDS
; Function compile flags: /Odtp /ZI
; File c:\program files (x86)\windows kits\10\include\10.0.18362.0\ucrt\stdio.h
;	COMDAT __vsprintf_l
_TEXT	SEGMENT
__Buffer$ = 8						; size = 4
__Format$ = 12						; size = 4
__Locale$ = 16						; size = 4
__ArgList$ = 20						; size = 4
__vsprintf_l PROC					; COMDAT

; 1459 :     {

  00000	55		 push	 ebp
  00001	8b ec		 mov	 ebp, esp
  00003	83 ec 40	 sub	 esp, 64			; 00000040H
  00006	53		 push	 ebx
  00007	56		 push	 esi
  00008	57		 push	 edi

; 1460 :         #pragma warning(push)
; 1461 :         #pragma warning(disable: 4996) // Deprecation
; 1462 :         return _vsnprintf_l(_Buffer, (size_t)-1, _Format, _Locale, _ArgList);

  00009	8b 45 14	 mov	 eax, DWORD PTR __ArgList$[ebp]
  0000c	50		 push	 eax
  0000d	8b 4d 10	 mov	 ecx, DWORD PTR __Locale$[ebp]
  00010	51		 push	 ecx
  00011	8b 55 0c	 mov	 edx, DWORD PTR __Format$[ebp]
  00014	52		 push	 edx
  00015	6a ff		 push	 -1
  00017	8b 45 08	 mov	 eax, DWORD PTR __Buffer$[ebp]
  0001a	50		 push	 eax
  0001b	e8 00 00 00 00	 call	 __vsnprintf_l
  00020	83 c4 14	 add	 esp, 20			; 00000014H

; 1463 :         #pragma warning(pop)
; 1464 :     }

  00023	5f		 pop	 edi
  00024	5e		 pop	 esi
  00025	5b		 pop	 ebx
  00026	8b e5		 mov	 esp, ebp
  00028	5d		 pop	 ebp
  00029	c3		 ret	 0
__vsprintf_l ENDP
_TEXT	ENDS
; Function compile flags: /Odtp /ZI
; File c:\program files (x86)\windows kits\10\include\10.0.18362.0\ucrt\stdio.h
;	COMDAT __vsnprintf_l
_TEXT	SEGMENT
tv74 = -72						; size = 4
__Result$ = -4						; size = 4
__Buffer$ = 8						; size = 4
__BufferCount$ = 12					; size = 4
__Format$ = 16						; size = 4
__Locale$ = 20						; size = 4
__ArgList$ = 24						; size = 4
__vsnprintf_l PROC					; COMDAT

; 1389 :     {

  00000	55		 push	 ebp
  00001	8b ec		 mov	 ebp, esp
  00003	83 ec 48	 sub	 esp, 72			; 00000048H
  00006	53		 push	 ebx
  00007	56		 push	 esi
  00008	57		 push	 edi

; 1390 :         int const _Result = __stdio_common_vsprintf(

  00009	8b 45 18	 mov	 eax, DWORD PTR __ArgList$[ebp]
  0000c	50		 push	 eax
  0000d	8b 4d 14	 mov	 ecx, DWORD PTR __Locale$[ebp]
  00010	51		 push	 ecx
  00011	8b 55 10	 mov	 edx, DWORD PTR __Format$[ebp]
  00014	52		 push	 edx
  00015	8b 45 0c	 mov	 eax, DWORD PTR __BufferCount$[ebp]
  00018	50		 push	 eax
  00019	8b 4d 08	 mov	 ecx, DWORD PTR __Buffer$[ebp]
  0001c	51		 push	 ecx
  0001d	e8 00 00 00 00	 call	 ___local_stdio_printf_options
  00022	8b 10		 mov	 edx, DWORD PTR [eax]
  00024	83 ca 01	 or	 edx, 1
  00027	8b 40 04	 mov	 eax, DWORD PTR [eax+4]
  0002a	50		 push	 eax
  0002b	52		 push	 edx
  0002c	ff 15 00 00 00
	00		 call	 DWORD PTR __imp____stdio_common_vsprintf
  00032	83 c4 1c	 add	 esp, 28			; 0000001cH
  00035	89 45 fc	 mov	 DWORD PTR __Result$[ebp], eax

; 1391 :             _CRT_INTERNAL_LOCAL_PRINTF_OPTIONS | _CRT_INTERNAL_PRINTF_LEGACY_VSPRINTF_NULL_TERMINATION,
; 1392 :             _Buffer, _BufferCount, _Format, _Locale, _ArgList);
; 1393 : 
; 1394 :         return _Result < 0 ? -1 : _Result;

  00038	83 7d fc 00	 cmp	 DWORD PTR __Result$[ebp], 0
  0003c	7d 09		 jge	 SHORT $LN3@vsnprintf_
  0003e	c7 45 b8 ff ff
	ff ff		 mov	 DWORD PTR tv74[ebp], -1
  00045	eb 06		 jmp	 SHORT $LN4@vsnprintf_
$LN3@vsnprintf_:
  00047	8b 45 fc	 mov	 eax, DWORD PTR __Result$[ebp]
  0004a	89 45 b8	 mov	 DWORD PTR tv74[ebp], eax
$LN4@vsnprintf_:
  0004d	8b 45 b8	 mov	 eax, DWORD PTR tv74[ebp]

; 1395 :     }

  00050	5f		 pop	 edi
  00051	5e		 pop	 esi
  00052	5b		 pop	 ebx
  00053	8b e5		 mov	 esp, ebp
  00055	5d		 pop	 ebp
  00056	c3		 ret	 0
__vsnprintf_l ENDP
_TEXT	ENDS
; Function compile flags: /Odtp /ZI
; File c:\program files (x86)\windows kits\10\include\10.0.18362.0\ucrt\corecrt_stdio_config.h
;	COMDAT ___local_stdio_printf_options
_TEXT	SEGMENT
___local_stdio_printf_options PROC			; COMDAT

; 86   :     {

  00000	55		 push	 ebp
  00001	8b ec		 mov	 ebp, esp
  00003	83 ec 40	 sub	 esp, 64			; 00000040H
  00006	53		 push	 ebx
  00007	56		 push	 esi
  00008	57		 push	 edi

; 87   :         static unsigned __int64 _OptionsStorage;
; 88   :         return &_OptionsStorage;

  00009	b8 00 00 00 00	 mov	 eax, OFFSET ?_OptionsStorage@?1??__local_stdio_printf_options@@9@4_KA ; `__local_stdio_printf_options'::`2'::_OptionsStorage

; 89   :     }

  0000e	5f		 pop	 edi
  0000f	5e		 pop	 esi
  00010	5b		 pop	 ebx
  00011	8b e5		 mov	 esp, ebp
  00013	5d		 pop	 ebp
  00014	c3		 ret	 0
___local_stdio_printf_options ENDP
_TEXT	ENDS
END
