; Listing generated by Microsoft (R) Optimizing Compiler Version 19.16.27045.0 

	TITLE	C:\Users\nhv90\Projects\eech\modules\maths\initmath.c
	.686P
	.XMM
	include listing.inc
	.model	flat

INCLUDELIB MSVCRTD
INCLUDELIB OLDNAMES

PUBLIC	?initialise_maths_library@@YGXXZ		; initialise_maths_library
EXTRN	?initialise_random_number_generator@@YGXXZ:PROC	; initialise_random_number_generator
EXTRN	?initialise_reciprocal_tables@@YGXXZ:PROC	; initialise_reciprocal_tables
EXTRN	?initialise_trig_tables@@YGXXZ:PROC		; initialise_trig_tables
EXTRN	?initialise_inverse_square_root_table@@YGXXZ:PROC ; initialise_inverse_square_root_table
; Function compile flags: /Odtp /ZI
; File c:\users\nhv90\projects\eech\modules\maths\initmath.c
;	COMDAT ?initialise_maths_library@@YGXXZ
_TEXT	SEGMENT
?initialise_maths_library@@YGXXZ PROC			; initialise_maths_library, COMDAT

; 74   : {

  00000	55		 push	 ebp
  00001	8b ec		 mov	 ebp, esp
  00003	83 ec 40	 sub	 esp, 64			; 00000040H
  00006	53		 push	 ebx
  00007	56		 push	 esi
  00008	57		 push	 edi

; 75   : 	initialise_random_number_generator ();

  00009	e8 00 00 00 00	 call	 ?initialise_random_number_generator@@YGXXZ ; initialise_random_number_generator

; 76   : 
; 77   : 	initialise_trig_tables ();

  0000e	e8 00 00 00 00	 call	 ?initialise_trig_tables@@YGXXZ ; initialise_trig_tables

; 78   : 
; 79   : 	initialise_reciprocal_tables ();

  00013	e8 00 00 00 00	 call	 ?initialise_reciprocal_tables@@YGXXZ ; initialise_reciprocal_tables

; 80   : 
; 81   : 	initialise_inverse_square_root_table ();

  00018	e8 00 00 00 00	 call	 ?initialise_inverse_square_root_table@@YGXXZ ; initialise_inverse_square_root_table

; 82   : }

  0001d	5f		 pop	 edi
  0001e	5e		 pop	 esi
  0001f	5b		 pop	 ebx
  00020	8b e5		 mov	 esp, ebp
  00022	5d		 pop	 ebp
  00023	c3		 ret	 0
?initialise_maths_library@@YGXXZ ENDP			; initialise_maths_library
_TEXT	ENDS
END
