; Listing generated by Microsoft (R) Optimizing Compiler Version 19.16.27045.0 

	TITLE	C:\Users\nhv90\Projects\eech\modules\system\keymapping.c
	.686P
	.XMM
	include listing.inc
	.model	flat

INCLUDELIB MSVCRTD
INCLUDELIB OLDNAMES

PUBLIC	?standard_key_mapping@@3PAPBDA			; standard_key_mapping
PUBLIC	??_C@_0FJ@MDNHMOOO@?$CD?$CD?$CD?$CD?$CD?$CD?$CD?$CD?$CD?$CD?$CD?$CD?$CD?$CD?$CD?$CD?$CD?$CD?$CD?$CD?$CD?$CD?$CD?$CD?$CD?$CD?$CD?$CD?$CD?$CD?$CD@ ; `string'
PUBLIC	??_C@_0FJ@BKAFGAEA@?$CD?5Key?5Mapping?5File?5?5?5?5?5?5?5?5?5?5?5?5?5@ ; `string'
PUBLIC	??_C@_0FJ@GMODOHCF@?$CD?5If?5you?5want?5to?5deactivate?5a?5c@ ; `string'
PUBLIC	??_C@_0FJ@DFGCFEEJ@?$CD?5?5?5?5?5?5?5?5?5?5?5?5?5?5?5?5?5?5?5?5?5?5?5?5?5?5?5?5?5?5@ ; `string'
PUBLIC	??_C@_0FJ@JGFDACPN@?$CD?5Everything?5in?5here?5is?5case?9se@ ; `string'
PUBLIC	??_C@_0FJ@MEFHEKO@?$CD?5Right?5now?5there?5are?5no?5checks@ ; `string'
PUBLIC	??_C@_0BJ@OMHOFJPH@?$CD?7?7?7?7?7?7?7?7?7?7?7?7?7?7?7?7?7?7?7?7?7?7?6@ ; `string'
PUBLIC	??_C@_0CE@FCPDDFCP@?$CD?5Padlock?5target?7?7?7?7?7?7?7?7?7?7?7?7?7?7?7@ ; `string'
PUBLIC	??_C@_0ED@DGJJHCKE@virtual_cockpit_track_target?7?71@ ; `string'
PUBLIC	??_C@_0DO@BMKENNFI@?$CD?5Set?5Left?1Right?5Hand?5Side?5MFD?5@ ; `string'
PUBLIC	??_C@_0EM@OCFEIFM@select_lhs_ground_radar_main_mf@ ; `string'
PUBLIC	??_C@_0EJ@PNDMIEMG@select_rhs_ground_radar_main_mf@ ; `string'
PUBLIC	??_C@_0BM@BLAFECNK@?$CD?5?$DP?$DP?$DP?7?7?7?7?7?7?7?7?7?7?7?7?7?7?7?7?7?7?7?7?7?6@ ; `string'
PUBLIC	??_C@_0DK@OHANIONL@set_padlock_view?7?7?72?7MODIFIER_N@ ; `string'
PUBLIC	??_C@_0DM@PHJHKHEI@?$CD?5Set?5Left?1Right?5Hand?5Side?5MFD?5@ ; `string'
PUBLIC	??_C@_0EG@OBCAOHLH@select_lhs_air_radar_mfd?7?72?7MOD@ ; `string'
PUBLIC	??_C@_0ED@OEEDBEMH@select_rhs_air_radar_mfd?7?72?7MOD@ ; `string'
PUBLIC	??_C@_0DK@KJIEIFHC@set_padlock_view?7?7?73?7MODIFIER_N@ ; `string'
PUBLIC	??_C@_0DI@EJGGLGFO@?$CD?5Set?5Left?1Right?5Hand?5Side?5MFD?5@ ; `string'
PUBLIC	??_C@_0EC@JIBCPGI@select_lhs_tads_mfd?7?7?73?7MODIFIE@ ; `string'
PUBLIC	??_C@_0DP@NPAHFGFO@select_rhs_tads_mfd?7?7?73?7MODIFIE@ ; `string'
PUBLIC	??_C@_0DK@JLEKLBGM@set_padlock_view?7?7?74?7MODIFIER_N@ ; `string'
PUBLIC	??_C@_0DI@MDEIDFFJ@?$CD?5Set?5Left?1Right?5Hand?5Side?5MFD?5@ ; `string'
PUBLIC	??_C@_0EC@PCENFNEL@select_lhs_tsd_mfd?7?7?74?7MODIFIER@ ; `string'
PUBLIC	??_C@_0DP@KOHJHLA@select_rhs_tsd_mfd?7?7?74?7MODIFIER@ ; `string'
PUBLIC	??_C@_0DK@NFMDLKMF@set_padlock_view?7?7?75?7MODIFIER_N@ ; `string'
PUBLIC	??_C@_0DI@EEFBLDJO@?$CD?5Set?5Left?1Right?5Hand?5Side?5MFD?5@ ; `string'
PUBLIC	??_C@_0EC@MIKGIBNF@select_lhs_ase_mfd?7?7?75?7MODIFIER@ ; `string'
PUBLIC	??_C@_0DP@BABLNPEC@select_rhs_ase_mfd?7?7?75?7MODIFIER@ ; `string'
PUBLIC	??_C@_0DK@GFIKGDO@set_padlock_view?7?7?76?7MODIFIER_N@ ; `string'
PUBLIC	??_C@_0DK@KCLKLLPK@?$CD?5Set?5Left?1Right?5Hand?5Side?5MFD?5@ ; `string'
PUBLIC	??_C@_0EE@ICFHOKMC@select_lhs_weapon_mfd?7?7?76?7MODIF@ ; `string'
PUBLIC	??_C@_0EB@KMKPIMAD@select_rhs_weapon_mfd?7?7?76?7MODIF@ ; `string'
PUBLIC	??_C@_0DK@KLDGOALB@?$CD?5Set?5Left?1Right?5Hand?5Side?5MFD?5@ ; `string'
PUBLIC	??_C@_0EE@FKPCGAMB@select_lhs_system_mfd?7?7?77?7MODIF@ ; `string'
PUBLIC	??_C@_0EB@KGILJDDJ@select_rhs_system_mfd?7?7?77?7MODIF@ ; `string'
PUBLIC	??_C@_0DI@CMJLJMEH@?$CD?5Set?5the?5Field?5of?5View?5to?5the?5@ ; `string'
PUBLIC	??_C@_0DD@FPHIOKC@lo_fov?7?7?7?7?77?7MODIFIER_NONE?7?7KEY@ ; `string'
PUBLIC	??_C@_0DL@KAMDHBPN@?$CD?5Cheat?0?5gives?5your?5AC?5an?5air?5t@ ; `string'
PUBLIC	??_C@_0EH@GMLDCBJF@load_air_to_ground_weapons?7?77?7M@ ; `string'
PUBLIC	??_C@_0DL@NIEDKFON@?$CD?5Set?5the?5Field?5of?5View?5to?5the?5@ ; `string'
PUBLIC	??_C@_0DD@PDKDCECP@std_fov?7?7?7?7?78?7MODIFIER_NONE?7?7KE@ ; `string'
PUBLIC	??_C@_0DJ@KCOGBEFN@?$CD?5Cheat?0?5gives?5your?5AC?5an?5air?5t@ ; `string'
PUBLIC	??_C@_0EE@CGKLFIOF@load_air_to_air_weapons?7?7?78?7MOD@ ; `string'
PUBLIC	??_C@_0DK@DOBLBADN@?$CD?5Set?5Left?1Right?5Hand?5Side?5MFD?5@ ; `string'
PUBLIC	??_C@_0EE@LINKBNGN@select_lhs_engine_mfd?7?7?78?7MODIF@ ; `string'
PUBLIC	??_C@_0EB@LOHGJDAO@select_rhs_engine_mfd?7?7?78?7MODIF@ ; `string'
PUBLIC	??_C@_0DI@JPKDMGDL@?$CD?5Set?5the?5Field?5of?5View?5to?5the?5@ ; `string'
PUBLIC	??_C@_0DD@BKKAPECH@hi_fov?7?7?7?7?79?7MODIFIER_NONE?7?7KEY@ ; `string'
PUBLIC	??_C@_0DF@DMLBFMDP@?$CD?5Cheat?0?5gives?5your?5AC?5an?5scout@ ; `string'
PUBLIC	??_C@_0EB@DBHIHFAC@load_scout_weapons?7?7?79?7MODIFIER@ ; `string'
PUBLIC	??_C@_0DK@NDGNDMEL@?$CD?5Set?5Left?1Right?5Hand?5Side?5MFD?5@ ; `string'
PUBLIC	??_C@_0EI@LDKDHGKN@select_lhs_flight_main_mfd?7?79?7M@ ; `string'
PUBLIC	??_C@_0EF@NJHCINIF@select_rhs_flight_main_mfd?7?79?7M@ ; `string'
PUBLIC	??_C@_0DK@HKBPJJIJ@set_padlock_view?7?7?70?7MODIFIER_N@ ; `string'
PUBLIC	??_C@_0EE@EIFBNMEC@special_cockpit_toggle?7?7?70?7MODI@ ; `string'
PUBLIC	??_C@_0DL@LNLDDKMJ@?$CD?5Set?5Left?1Right?5Hand?5Side?5MFD?5@ ; `string'
PUBLIC	??_C@_0EF@BAENOMND@select_lhs_mission_mfd?7?7?70?7MODI@ ; `string'
PUBLIC	??_C@_0EC@CJFLHCME@select_rhs_mission_mfd?7?7?70?7MODI@ ; `string'
PUBLIC	??_C@_0CF@GCJACHFN@?$CD?5Outside?5panning?7?7?7?7?7?7?7?7?7?7?7?7?7?7@ ; `string'
PUBLIC	??_C@_0EA@BKIBBBAF@adjust_view_left?7?7?7LEFT?7MODIFIE@ ; `string'
PUBLIC	??_C@_0EC@OCENNHIH@adjust_view_right?7?7?7RIGHT?7MODIF@ ; `string'
PUBLIC	??_C@_0DO@IOKECKKI@adjust_view_up?7?7?7?7UP?7MODIFIER_L@ ; `string'
PUBLIC	??_C@_0EA@LAONOHEG@adjust_view_down?7?7?7DOWN?7MODIFIE@ ; `string'
PUBLIC	??_C@_0EE@LGOCFMNF@adjust_view_zoom_in?7?7?7PERIOD?7MO@ ; `string'
PUBLIC	??_C@_0EE@HBLANGEF@adjust_view_zoom_out?7?7?7COMMA?7MO@ ; `string'
PUBLIC	??_C@_0CH@DAKNHMDJ@?$CD?5Sets?53D?5to?5640?$CK480?7?7?7?7?7?7?7?7?7?7?7@ ; `string'
PUBLIC	??_C@_0EI@CMBLENEM@set_default_3d_resolutions?7?7F1?7@ ; `string'
PUBLIC	??_C@_0CD@GFENIIGH@?$CD?5Forward?5View?7?7?7?7?7?7?7?7?7?7?7?7?7?7?7?7?7@ ; `string'
PUBLIC	??_C@_0DI@GNNPGNEG@forward_view?7?7?7?7F1?7MODIFIER_NON@ ; `string'
PUBLIC	??_C@_0CL@MGMILNDF@?$CD?5Toggles?5No?5Cockpit?5View?7?7?7?7?7?7@ ; `string'
PUBLIC	??_C@_0EK@COGFIJMK@toggle_draw_cockpit_graphics?7?7F@ ; `string'
PUBLIC	??_C@_0CJ@EHLJDMCG@?$CD?5Toggles?5unscaled?5HUD?7?7?7?7?7?7?7?7?7@ ; `string'
PUBLIC	??_C@_0EE@BIBGBHBK@toggle_unscaled_displays?7?7F1?7MO@ ; `string'
PUBLIC	??_C@_0CF@POEIILOO@?$CD?5Instrument?5view?7?7?7?7?7?7?7?7?7?7?7?7?7?7@ ; `string'
PUBLIC	??_C@_0DK@FPFNMNEH@instrument_view?7?7?7?7F2?7MODIFIER_@ ; `string'
PUBLIC	??_C@_0CP@POLKMKNH@?$CD?5Toggles?5HUD?5in?5external?5view?7@ ; `string'
PUBLIC	??_C@_0EM@KDCKPJKA@toggle_display_hud_on_external_@ ; `string'
PUBLIC	??_C@_0EN@DHNOMLFJ@toggle_draw_overlaid_instrument@ ; `string'
PUBLIC	??_C@_0DD@NEJAAIIG@?$CD?5Toggles?5see?9through?5cockpit?5s@ ; `string'
PUBLIC	??_C@_0EE@OHBJCPPE@toggle_glass_cockpit?7?7?7F2?7MODIF@ ; `string'
PUBLIC	??_C@_0CG@ELIHEJEN@?$CD?5Toggles?5HUD?5view?7?7?7?7?7?7?7?7?7?7?7?7?7@ ; `string'
PUBLIC	??_C@_0DK@BALOHPHI@hud_view?7?7?7?7F2?7MODIFIER_LEFT_SH@ ; `string'
PUBLIC	??_C@_0EG@OOFHKHFG@decrease_cockpit_detail?7?7?7F3?7MO@ ; `string'
PUBLIC	??_C@_0EF@PLBEEDJF@decrease_3d_resolutions?7?7?7F3?7MO@ ; `string'
PUBLIC	??_C@_0DL@BDIMLCCI@look_at_special1?7?7?7F3?7MODIFIER_@ ; `string'
PUBLIC	??_C@_0EG@BLJAAJIL@increase_cockpit_detail?7?7?7F4?7MO@ ; `string'
PUBLIC	??_C@_0EF@DDHOMJMC@increase_3d_resolutions?7?7?7F4?7MO@ ; `string'
PUBLIC	??_C@_0DL@FPDKMOJA@look_at_special2?7?7?7F4?7MODIFIER_@ ; `string'
PUBLIC	??_C@_0DO@BMPAIJFJ@?$CD?5?8Side?8?5setting?5when?5viewing?5a@ ; `string'
PUBLIC	??_C@_0DM@DOLJJEHE@next_side?7?7?7?7F5?7MODIFIER_LEFT_C@ ; `string'
PUBLIC	??_C@_0DO@CEKMNPHH@previous_side?7?7?7?7F5?7MODIFIER_LE@ ; `string'
PUBLIC	??_C@_0CN@CKBOLBHD@?$CD?5View?5all?5available?5objects?7?7?7@ ; `string'
PUBLIC	??_C@_0DI@DKMNDFCD@view_all?7?7?7?7F5?7MODIFIER_LEFT_AL@ ; `string'
PUBLIC	??_C@_0CD@EAJMHPIC@?$CD?5Outside?5view?7?7?7?7?7?7?7?7?7?7?7?7?7?7?7?7?7@ ; `string'
PUBLIC	??_C@_0DK@ELIMNKDP@players_gunship?7?7?7?7F5?7MODIFIER_@ ; `string'
PUBLIC	??_C@_0CC@LGHFJKDO@?$CD?5Target?5View?7?7?7?7?7?7?7?7?7?7?7?7?7?7?7?7?7?7@ ; `string'
PUBLIC	??_C@_0DK@ENFGDLJN@players_target?7?7?7?7F6?7MODIFIER_N@ ; `string'
PUBLIC	??_C@_0CD@OOKAMJEL@?$CD?5Wingman?5View?7?7?7?7?7?7?7?7?7?7?7?7?7?7?7?7?7@ ; `string'
PUBLIC	??_C@_0DL@CNHLGJDM@view_wingmen?7?7?7?7F6?7MODIFIER_LEF@ ; `string'
PUBLIC	??_C@_0DO@HGEFNFAA@?$CD?5Next?5category?5when?5viewing?5al@ ; `string'
PUBLIC	??_C@_0DP@HMNHOKIC@next_category?7?7?7?7F6?7MODIFIER_LE@ ; `string'
PUBLIC	??_C@_0EB@MOPBBENI@previous_category?7?7?7F6?7MODIFIER@ ; `string'
PUBLIC	??_C@_0DL@EEHJJABL@?$CD?5Next?5type?5when?5viewing?5all?5av@ ; `string'
PUBLIC	??_C@_0DM@JFCGPLBD@next_type?7?7?7?7F7?7MODIFIER_LEFT_C@ ; `string'
PUBLIC	??_C@_0DK@MFFBICKM@players_weapon?7?7?7?7F7?7MODIFIER_N@ ; `string'
PUBLIC	??_C@_0DO@HCBBKEJF@previous_type?7?7?7?7F7?7MODIFIER_LE@ ; `string'
PUBLIC	??_C@_0DL@CDMPEABE@view_players?7?7?7?7F7?7MODIFIER_LEF@ ; `string'
PUBLIC	??_C@_0DN@IDJNDELC@next_object?7?7?7?7F8?7MODIFIER_LEFT@ ; `string'
PUBLIC	??_C@_0CJ@KCDDFNDE@?$CD?5View?5padlocked?5object?7?7?7?7?7?7?7?7@ ; `string'
PUBLIC	??_C@_0DK@KNKCAKPE@players_padlock?7?7?7?7F8?7MODIFIER_@ ; `string'
PUBLIC	??_C@_0DP@MCIHNHB@previous_object?7?7?7?7F8?7MODIFIER_@ ; `string'
PUBLIC	??_C@_0ED@LAAOMHIM@view_available_gunships?7?7?7F8?7MO@ ; `string'
PUBLIC	??_C@_0CD@JBLBIFD@?$CD?5Chase?5camera?7?7?7?7?7?7?7?7?7?7?7?7?7?7?7?7?7@ ; `string'
PUBLIC	??_C@_0DI@KMNDOMLP@chase_camera?7?7?7?7F9?7MODIFIER_NON@ ; `string'
PUBLIC	??_C@_0EI@FLFGHLCE@reset_chase_camera_position?7?7F9@ ; `string'
PUBLIC	??_C@_0EJ@CKGGALIF@toggle_chase_camera_lock_rotate@ ; `string'
PUBLIC	??_C@_0CD@IGBMPKC@?$CD?5Fly?5by?5camera?7?7?7?7?7?7?7?7?7?7?7?7?7?7?7?7@ ; `string'
PUBLIC	??_C@_0DK@ODOACDOJ@fly_by_camera?7?7?7?7F10?7MODIFIER_N@ ; `string'
PUBLIC	??_C@_0CC@DICGFNFH@?$CD?5Drop?5Camera?7?7?7?7?7?7?7?7?7?7?7?7?7?7?7?7?7?7@ ; `string'
PUBLIC	??_C@_0DN@NPPNPGE@drop_camera?7?7?7?7F10?7MODIFIER_LEF@ ; `string'
PUBLIC	??_C@_0CD@NMHPKFKN@?$CD?5Static?5camera?7?7?7?7?7?7?7?7?7?7?7?7?7?7?7?7@ ; `string'
PUBLIC	??_C@_0EA@IPIACGNC@static_camera?7?7?7?7F10?7MODIFIER_L@ ; `string'
PUBLIC	??_C@_0CC@PLBCLLDE@?$CD?5Weapon?5view?7?7?7?7?7?7?7?7?7?7?7?7?7?7?7?7?7?7@ ; `string'
PUBLIC	??_C@_0DN@JPNCNIJN@weapon_camera?7?7?7?7F10?7MODIFIER_L@ ; `string'
PUBLIC	??_C@_0CC@DCGCJOGO@?$CD?5Crew?5Camera?7?7?7?7?7?7?7?7?7?7?7?7?7?7?7?7?7?7@ ; `string'
PUBLIC	??_C@_0DO@ILINIPPD@crew_camera?7?7?7?7F11?7MODIFIER_LEF@ ; `string'
PUBLIC	??_C@_0CG@BFLPKMAA@?$CD?5Auto?5Action?5View?7?7?7?7?7?7?7?7?7?7?7?7?7@ ; `string'
PUBLIC	??_C@_0DM@HFIKIHIM@camera_auto_edit?7?7?7F11?7MODIFIER@ ; `string'
PUBLIC	??_C@_0CG@PDEPGBHJ@?$CD?5Cinematic?5camera?7?7?7?7?7?7?7?7?7?7?7?7?7@ ; `string'
PUBLIC	??_C@_0EB@EOEPBAHN@cinematic_camera?7?7?7F11?7MODIFIER@ ; `string'
PUBLIC	??_C@_0CN@BJGOGAMF@?$CD?5Toggle?5?8view?5objects?8?5menu?7?7?7@ ; `string'
PUBLIC	??_C@_0DM@JOJEMPFC@toggle_view_menu?7?7?7F12?7MODIFIER@ ; `string'
PUBLIC	??_C@_0CM@IAOKOEII@?$CD?5Toggle?5viewed?5object?5text?7?7?7?7@ ; `string'
PUBLIC	??_C@_0EE@HNPHAJLF@toggle_object_text?7?7?7F12?7MODIFI@ ; `string'
PUBLIC	??_C@_0CI@NCLPNAAM@?$CD?5Toggle?5inset?5target?7?7?7?7?7?7?7?7?7?7@ ; `string'
PUBLIC	??_C@_0EB@ODCFOKAG@toggle_inset_target?7?7?7F12?7MODIF@ ; `string'
PUBLIC	??_C@_0CP@EGCJDEOD@?$CD?5Toggle?5intelligence?5messages?7@ ; `string'
PUBLIC	??_C@_0FJ@FHHIAOJE@toggle_display_in_flight_intell@ ; `string'
PUBLIC	??_C@_0EA@KKGBEAJM@look_rel_left?7?7?7?7LEFT?7MODIFIER_@ ; `string'
PUBLIC	??_C@_0EC@CDOODIAG@look_rel_right?7?7?7?7RIGHT?7MODIFIE@ ; `string'
PUBLIC	??_C@_0DN@FIJLGMDN@look_rel_up?7?7?7?7UP?7MODIFIER_LEFT@ ; `string'
PUBLIC	??_C@_0EA@FBKHKEFD@look_rel_down?7?7?7?7DOWN?7MODIFIER_@ ; `string'
PUBLIC	??_C@_0DP@HJKPNDKD@look_abs_left?7?7?7?7LEFT?7MODIFIER_@ ; `string'
PUBLIC	??_C@_0EB@EBLOFMIB@look_abs_right?7?7?7?7RIGHT?7MODIFIE@ ; `string'
PUBLIC	??_C@_0DN@FCBHOMKD@look_abs_up?7?7?7?7UP?7MODIFIER_LEFT@ ; `string'
PUBLIC	??_C@_0EA@PIBEMBNH@look_abs_down?7?7?7?7DOWN?7MODIFIER_@ ; `string'
PUBLIC	??_C@_0EC@LOIAFONE@release_virtual_cockpit?7?7?7LALT?7@ ; `string'
PUBLIC	??_C@_0EA@MDDKKKHP@look_abs_left?7?7?7?7LEFT?7MODIFIER_@ ; `string'
PUBLIC	??_C@_0EC@BGGCPKBE@look_abs_right?7?7?7?7RIGHT?7MODIFIE@ ; `string'
PUBLIC	??_C@_0DO@EDIBFEKE@forward_view?7?7?7?7UP?7MODIFIER_LEF@ ; `string'
PUBLIC	??_C@_0EB@LHIMFOLK@instrument_view?7?7?7?7DOWN?7MODIFIE@ ; `string'
PUBLIC	??_C@_0EB@CDBLDCNA@look_at_special1?7?7?7LEFT?7MODIFIE@ ; `string'
PUBLIC	??_C@_0EC@LFPOOBDJ@look_at_special2?7?7?7RIGHT?7MODIFI@ ; `string'
PUBLIC	??_C@_0CJ@LEPGFBHE@?$CD?5Set?5to?5pilot?5position?7?7?7?7?7?7?7?7@ ; `string'
PUBLIC	??_C@_0EF@FLGHNIGH@set_pilot_seat_position?7?7?7UP?7MO@ ; `string'
PUBLIC	??_C@_0CJ@MNCBPLND@?$CD?5Set?5to?5CP?1G?5position?7?7?7?7?7?7?7?7?7@ ; `string'
PUBLIC	??_C@_0EJ@JNKIDJFH@set_co_pilot_seat_position?7?7DOW@ ; `string'
PUBLIC	??_C@_0CJ@BGLEFFJG@?$CD?5Switch?5seat?5position?7?7?7?7?7?7?7?7?7@ ; `string'
PUBLIC	??_C@_0EB@GIKDLLBM@switch_seat_position?7?7?7ESCAPE?7?7@ ; `string'
PUBLIC	??_C@_0CD@HIMCLDMK@?$CD?5Wideview?5keys?7?7?7?7?7?7?7?7?7?7?7?7?7?7?7?7@ ; `string'
PUBLIC	??_C@_0EC@BOKPCCKN@wide_cockpit_toggle?7?7?7BACKSLASH@ ; `string'
PUBLIC	??_C@_0EH@BFACNKLC@wide_cockpit_edit?7?7?7BACKSLASH?7M@ ; `string'
PUBLIC	??_C@_0EE@PIPEOPMH@wide_cockpit_save?7?7?7BACKSLASH?7M@ ; `string'
PUBLIC	??_C@_0EC@FBMDFOLK@hokum_pilot_view1?7?7?7DELETE?7?7MOD@ ; `string'
PUBLIC	??_C@_0EA@IGKOBLBE@hokum_pilot_view2?7?7?7END?7MODIFIE@ ; `string'
PUBLIC	??_C@_0EA@IMNOFPBH@hokum_pilot_view3?7?7?7NEXT?7MODIFI@ ; `string'
PUBLIC	??_C@_0EA@MNKDJEKH@next_view_range?7?7?7?7EQUALS?7MODIF@ ; `string'
PUBLIC	??_C@_0EC@CGIOHFOI@previous_view_range?7?7?7MINUS?7?7MO@ ; `string'
PUBLIC	??_C@_0ED@HFEBEMCB@next_view_range?7?7?7?7NUMPADPLUS?7M@ ; `string'
PUBLIC	??_C@_0EH@NCKAAJME@previous_view_range?7?7?7NUMPADMIN@ ; `string'
PUBLIC	??_C@_0ED@KCNJPCNJ@look_rel_left?7?7?7?7NUMPAD4?7?7MODIF@ ; `string'
PUBLIC	??_C@_0EE@DMDCDLAE@look_rel_right?7?7?7?7NUMPAD6?7?7MODI@ ; `string'
PUBLIC	??_C@_0EB@NPKPNJBH@look_rel_up?7?7?7?7NUMPAD8?7?7MODIFIE@ ; `string'
PUBLIC	??_C@_0ED@EMPHMJOC@look_rel_down?7?7?7?7NUMPAD2?7?7MODIF@ ; `string'
PUBLIC	??_C@_0EC@INABIOPP@look_abs_left?7?7?7?7NUMPAD4?7?7MODIF@ ; `string'
PUBLIC	??_C@_0ED@MEFNMPGA@look_abs_right?7?7?7?7NUMPAD6?7?7MODI@ ; `string'
PUBLIC	??_C@_0EB@LECGPLEA@look_abs_up?7?7?7?7NUMPAD8?7?7MODIFIE@ ; `string'
PUBLIC	??_C@_0ED@ONJIPOBH@look_abs_down?7?7?7?7NUMPAD2?7?7MODIF@ ; `string'
PUBLIC	??_C@_0ED@FEENJDDO@adjust_view_left?7?7?7NUMPAD4?7?7MOD@ ; `string'
PUBLIC	??_C@_0EE@LGEPOCBM@adjust_view_right?7?7?7NUMPAD6?7?7MO@ ; `string'
PUBLIC	??_C@_0EC@JPDPPEPJ@adjust_view_up?7?7?7?7NUMPAD8?7?7MODI@ ; `string'
PUBLIC	??_C@_0ED@BOMBGDPF@adjust_view_down?7?7?7NUMPAD2?7?7MOD@ ; `string'
PUBLIC	??_C@_0EC@FOCKPLOI@wide_cockpit_toggle?7?7?7BACKSLASH@ ; `string'
PUBLIC	??_C@_0EK@FFCKOEOE@comms_shortcut_attack_my_target@ ; `string'
PUBLIC	??_C@_0ED@BPLAAJDM@toggle_ase_auto_page?7?7?7A?7MODIFI@ ; `string'
PUBLIC	??_C@_0DO@LMIGIDLE@hokum_pilot_view2?7?7?7B?7MODIFIER_@ ; `string'
PUBLIC	??_C@_0DH@LPHGGGL@launch_chaff?7?7?7?7C?7MODIFIER_NONE@ ; `string'
PUBLIC	??_C@_0EI@CDNFCMOK@toggle_auto_countermeasures?7?7C?7@ ; `string'
PUBLIC	??_C@_0EF@NGFJMAOO@select_next_tsd_declutter_level@ ; `string'
PUBLIC	??_C@_0EN@FDGDBLPH@select_previous_tsd_declutter_l@ ; `string'
PUBLIC	??_C@_0EB@DHHDDIHJ@select_next_tsd_ase_range?7?7E?7MO@ ; `string'
PUBLIC	??_C@_0EJ@LLKHFCDD@select_previous_tsd_ase_range?7?7@ ; `string'
PUBLIC	??_C@_0DF@CBLHAPOD@eject?7?7?7?7?7E?7MODIFIER_LEFT_ALT?7K@ ; `string'
PUBLIC	??_C@_0DH@LFLHHBEF@launch_flare?7?7?7?7F?7MODIFIER_NONE@ ; `string'
PUBLIC	??_C@_0EH@GBGIALJE@fire_extinguisher_release?7?7F?7MO@ ; `string'
PUBLIC	??_C@_0DM@FBOFPDAB@toggle_gear?7?7?7?7G?7MODIFIER_LEFT_@ ; `string'
PUBLIC	??_C@_0DP@MNEEEAAP@toggle_infra_red_jammer?7?7?7I?7MOD@ ; `string'
PUBLIC	??_C@_0DM@OKBFGJHH@toggle_radar_jammer?7?7?7J?7MODIFIE@ ; `string'
PUBLIC	??_C@_0DM@ENNMCFDO@set_next_hud_colour?7?7?7K?7MODIFIE@ ; `string'
PUBLIC	??_C@_0EB@BMPHDPJP@set_prev_hud_colour?7?7?7K?7MODIFIE@ ; `string'
PUBLIC	??_C@_0EC@FILAKJJJ@toggle_hud_enlarge?7?7?7K?7MODIFIER@ ; `string'
PUBLIC	??_C@_0DK@PCLHIJL@toggle_lobl_loal?7?7?7L?7MODIFIER_N@ ; `string'
PUBLIC	??_C@_0EC@ENCKBPK@acknowledge_master_caution?7?7M?7M@ ; `string'
PUBLIC	??_C@_0EC@IAFFLHAK@toggle_night_vision_system?7?7N?7M@ ; `string'
PUBLIC	??_C@_0DO@CDKBDFOL@hokum_pilot_view3?7?7?7N?7MODIFIER_@ ; `string'
PUBLIC	??_C@_0DP@FFEPECNO@set_hud_bob_up_overlay?7?7?7O?7MODI@ ; `string'
PUBLIC	??_C@_0EG@ELMJIGDJ@clear_hud_bob_up_overlay?7?7O?7MOD@ ; `string'
PUBLIC	??_C@_0FE@IHMGJBDB@toggle_blurred_main_rotors_visi@ ; `string'
PUBLIC	??_C@_0EC@NEEJIEIB@rearm_refuel_repair?7?7?7R?7MODIFIE@ ; `string'
PUBLIC	??_C@_0EC@NPEENKHN@increase_rocket_salvo_size?7?7S?7M@ ; `string'
PUBLIC	??_C@_0EH@CDCBMGNL@decrease_rocket_salvo_size?7?7S?7M@ ; `string'
PUBLIC	??_C@_0EI@LDDJHEAD@toggle_ground_stabilisation?7?7S?7@ ; `string'
PUBLIC	??_C@_0EA@JHOMEBFA@toggle_navigation_lights?7?7V?7MOD@ ; `string'
PUBLIC	??_C@_0DO@MGJPFPBE@hokum_pilot_view1?7?7?7V?7MODIFIER_@ ; `string'
PUBLIC	??_C@_0DL@OEILCH@set_next_waypoint?7?7?7W?7MODIFIER_@ ; `string'
PUBLIC	??_C@_0EA@BDBGIPLF@set_prev_waypoint?7?7?7W?7MODIFIER_@ ; `string'
PUBLIC	??_C@_0DJ@PBDGGHCM@toggle_wiper_on?7?7?7?7Y?7MODIFIER_N@ ; `string'
PUBLIC	??_C@_0ED@JAFGJACH@toggle_intermittent_wipe?7?7Y?7MOD@ ; `string'
PUBLIC	??_C@_0DM@DEHMJDLJ@launch_weapon?7?7?7?7SPACE?7?7MODIFIE@ ; `string'
PUBLIC	??_C@_0EC@BJPLDKLL@select_next_weapon?7?7?7BACKSPACE?7@ ; `string'
PUBLIC	??_C@_0EK@MKMJOJCI@select_previous_weapon?7?7?7BACKSP@ ; `string'
PUBLIC	??_C@_0ED@MHJMFIEK@weapons_safe?7?7?7?7BACKSPACE?7MODIF@ ; `string'
PUBLIC	??_C@_0EB@NBJMNHPM@select_cannon?7?7?7?7BACKSPACE?7MODI@ ; `string'
PUBLIC	??_C@_0FE@PKKPNHJB@select_target_acquisition_syste@ ; `string'
PUBLIC	??_C@_0FE@PFBMFFMK@select_target_acquisition_syste@ ; `string'
PUBLIC	??_C@_0FA@EONGPLNN@select_target_acquisition_syste@ ; `string'
PUBLIC	??_C@_0EO@NPCPAACE@select_target_acquisition_syste@ ; `string'
PUBLIC	??_C@_0EL@IKGJFBOF@select_target_acquisition_syste@ ; `string'
PUBLIC	??_C@_0EL@INDIFPBM@select_target_acquisition_syste@ ; `string'
PUBLIC	??_C@_0EO@OEEKKGKH@select_target_acquisition_syste@ ; `string'
PUBLIC	??_C@_0EO@LOOFFKHB@select_target_acquisition_syste@ ; `string'
PUBLIC	??_C@_0FA@GKAABDNK@select_target_acquisition_syste@ ; `string'
PUBLIC	??_C@_0EM@OBJEAOCO@select_target_acquisition_syste@ ; `string'
PUBLIC	??_C@_0DM@CEPBCHEB@steer_left?7?7?7?7NUMPAD4?7?7MODIFIER@ ; `string'
PUBLIC	??_C@_0EE@HAFADOKO@steer_left_fast?7?7?7?7NUMPAD4?7?7MOD@ ; `string'
PUBLIC	??_C@_0EC@JABPJGKO@steer_left_fine?7?7?7?7NUMPAD4?7?7MOD@ ; `string'
PUBLIC	??_C@_0DM@MBAHHKGB@steer_right?7?7?7?7NUMPAD6?7?7MODIFIE@ ; `string'
PUBLIC	??_C@_0EF@GCKPGACE@steer_right_fast?7?7?7NUMPAD6?7?7MOD@ ; `string'
PUBLIC	??_C@_0ED@OFIPAOEB@steer_right_fine?7?7?7NUMPAD6?7?7MOD@ ; `string'
PUBLIC	??_C@_0DK@LCBLEDDP@steer_up?7?7?7?7NUMPAD8?7?7MODIFIER_N@ ; `string'
PUBLIC	??_C@_0EE@FKNNKKCP@vsteer_up_fast?7?7?7?7NUMPAD8?7?7MODI@ ; `string'
PUBLIC	??_C@_0EB@HPHLBBCF@steer_up_fine?7?7?7?7NUMPAD8?7?7MODIF@ ; `string'
PUBLIC	??_C@_0DM@DPDPKFDA@steer_down?7?7?7?7NUMPAD2?7?7MODIFIER@ ; `string'
PUBLIC	??_C@_0EE@PHEMNHLP@steer_down_fast?7?7?7?7NUMPAD2?7?7MOD@ ; `string'
PUBLIC	??_C@_0EC@NLIAEILC@steer_down_fine?7?7?7?7NUMPAD2?7?7MOD@ ; `string'
PUBLIC	??_C@_0DH@PAJHBDGK@inc_range?7?7?7?7ADD?7?7MODIFIER_NONE@ ; `string'
PUBLIC	??_C@_0EA@PPJGDOHA@inc_range_fast?7?7?7?7ADD?7?7MODIFIER@ ; `string'
PUBLIC	??_C@_0DK@BIMBDFDK@dec_range?7?7?7?7SUBTRACT?7MODIFIER_@ ; `string'
PUBLIC	??_C@_0ED@JPAFDGGO@dec_range_fast?7?7?7?7SUBTRACT?7MODI@ ; `string'
PUBLIC	??_C@_0DM@LBKIAMOE@steer_centre?7?7?7?7NUMPAD5?7?7MODIFI@ ; `string'
PUBLIC	??_C@_0EB@HOOCEPMJ@steer_centre?7?7?7?7NUMPAD5?7?7MODIFI@ ; `string'
PUBLIC	??_C@_0EH@BNDFOONG@toggle_show_allied_targets?7?7NUM@ ; `string'
PUBLIC	??_C@_0EB@CEGHLGEK@inc_target_priority?7?7?7NUMPAD9?7?7@ ; `string'
PUBLIC	??_C@_0EK@PCOCPENI@inc_target_priority_fast?7?7NUMPA@ ; `string'
PUBLIC	??_C@_0EC@JFKFCJAC@vdec_target_priority?7?7?7NUMPAD3?7@ ; `string'
PUBLIC	??_C@_0EK@OJNBKPLM@dec_target_priority_fast?7?7NUMPA@ ; `string'
PUBLIC	??_C@_0EB@NHGAAKHK@select_next_target?7?7?7NUMPAD0?7?7M@ ; `string'
PUBLIC	??_C@_0EJ@OMKAAFN@select_previous_target?7?7?7NUMPAD@ ; `string'
PUBLIC	??_C@_0EB@LLJGEHAN@toggle_auto_target?7?7?7NUMPAD1?7?7M@ ; `string'
PUBLIC	??_C@_0EE@LCGDKDEG@toggle_lock_target?7?7?7NUMPADENTE@ ; `string'
PUBLIC	??_C@_0EH@BBDOFIEC@toggle_lock_target?7?7?7NUMPADENTE@ ; `string'
PUBLIC	??_C@_0EJ@NHNKKAAO@toggle_lock_target?7?7?7NUMPADENTE@ ; `string'
PUBLIC	??_C@_0FB@DMCPPFKE@target_acquisition_system_misc_@ ; `string'
PUBLIC	??_C@_0FA@HDJOOCMJ@target_acquisition_system_misc_@ ; `string'
PUBLIC	??_C@_0EB@IILGDDH@select_next_lhs_mfd?7?7?7LBRACKET?7@ ; `string'
PUBLIC	??_C@_0EJ@FNEBGBNL@select_previous_lhs_mfd?7?7?7LBRAC@ ; `string'
PUBLIC	??_C@_0EJ@CPFIENKB@toggle_lhs_mfd_on_off?7?7?7LBRACKE@ ; `string'
PUBLIC	??_C@_0EK@JNDHBIN@toggle_lhs_side_mfd_on_off?7?7LBR@ ; `string'
PUBLIC	??_C@_0EF@ENFMPMCN@select_next_lhs_main_mfd?7?7LBRAC@ ; `string'
PUBLIC	??_C@_0EN@COCCNPI@select_previous_lhs_main_mfd?7?7L@ ; `string'
PUBLIC	??_C@_0EN@OEOPAGEG@toggle_lhs_main_mfd_on_off?7?7LBR@ ; `string'
PUBLIC	??_C@_0EF@DMCEFFCC@select_next_rhs_main_mfd?7?7RBRAC@ ; `string'
PUBLIC	??_C@_0EK@DPCPEPDH@select_previous_rhs_main?7?7RBRAC@ ; `string'
PUBLIC	??_C@_0EK@IIKFEOGE@toggle_rhs_main_mfd_on?7?7?7RBRACK@ ; `string'
PUBLIC	??_C@_0EK@JKIIFEFB@toggle_rhs_side_mfd_on_off?7?7RBR@ ; `string'
PUBLIC	??_C@_0EB@KDENKABI@select_next_rhs_mfd?7?7?7RBRACKET?7@ ; `string'
PUBLIC	??_C@_0EJ@OKFNPMAC@select_previous_rhs_mfd?7?7?7RBRAC@ ; `string'
PUBLIC	??_C@_0EJ@ILFEFMGE@toggle_rhs_mfd_on_off?7?7?7RBRACKE@ ; `string'
PUBLIC	??_C@_0CA@KGFKBNME@?$CD?5Exit?5game?7?7?7?7?7?7?7?7?7?7?7?7?7?7?7?7?7?7?7?6@ ; `string'
PUBLIC	??_C@_0DP@MHHGDOAD@exit_apache_havoc?7?7?7X?7?7MODIFIER@ ; `string'
PUBLIC	??_C@_0CD@GGGPKPIF@?$CD?5Quit?5mission?7?7?7?7?7?7?7?7?7?7?7?7?7?7?7?7?7@ ; `string'
PUBLIC	??_C@_0EB@FCOHCAAK@ingame_quit_function?7?7?7Q?7?7MODIF@ ; `string'
PUBLIC	??_C@_0CJ@OLIKNMJO@?$CD?5Toggles?52d?13d?5screen?7?7?7?7?7?7?7?7?7@ ; `string'
PUBLIC	??_C@_0EG@FFIEBOEO@toggle_in_flight_game_modes?7?7RE@ ; `string'
PUBLIC	??_C@_0FG@CAPKNPNJ@campaign_screen_show_external_v@ ; `string'
PUBLIC	??_C@_0DC@EJGHKGOC@?$CD?5Take?5control?5of?5displayed?5gun@ ; `string'
PUBLIC	??_C@_0EO@NCBJKGDC@set_gunship_entity_to_external_@ ; `string'
PUBLIC	??_C@_0CG@NLLFKAOI@?$CD?5Time?5acceleration?7?7?7?7?7?7?7?7?7?7?7?7@ ; `string'
PUBLIC	??_C@_0EP@MDFLNMIF@set_small_inc_time_acceleration@ ; `string'
PUBLIC	??_C@_0EO@DEDJKPKE@set_small_dec_time_acceleration@ ; `string'
PUBLIC	??_C@_0FC@CBIPHJKI@set_small_inc_time_acceleration@ ; `string'
PUBLIC	??_C@_0FD@ONJNBDPD@set_small_dec_time_acceleration@ ; `string'
PUBLIC	??_C@_0CD@FEMDHPOL@?$CD?5Toggle?5Pause?7?7?7?7?7?7?7?7?7?7?7?7?7?7?7?7?7@ ; `string'
PUBLIC	??_C@_0EF@PMBNGKFP@toggle_pause_time_acceleration?7@ ; `string'
PUBLIC	??_C@_0CF@BEFFHOAL@?$CD?5Take?5screenshow?7?7?7?7?7?7?7?7?7?7?7?7?7?7@ ; `string'
PUBLIC	??_C@_0EC@GPFPBFBF@save_screen_image_event?7?7?7SYSRQ@ ; `string'
PUBLIC	??_C@_0CN@PGOFIJCI@?$CD?5Opens?5communication?5screen?7?7?7@ ; `string'
PUBLIC	??_C@_0EB@IDOIGOCN@start_messaging_system?7?7?7TAB?7?7M@ ; `string'
PUBLIC	??_C@_0CJ@PPBHJHAA@?$CD?5Displays?5last?5message?7?7?7?7?7?7?7?7@ ; `string'
PUBLIC	??_C@_0EM@OHOAAJEB@display_last_received_message?7?7@ ; `string'
PUBLIC	??_C@_0BO@CHJJLMPI@?$CD?5Cyclic?7?7?7?7?7?7?7?7?7?7?7?7?7?7?7?7?7?7?7?7?6@ ; `string'
PUBLIC	??_C@_0DJ@KPBJEIOM@cyclic_left?7?7?7?7LEFT?7?7MODIFIER_N@ ; `string'
PUBLIC	??_C@_0DL@LOJHNAEO@cyclic_right?7?7?7?7RIGHT?7?7MODIFIER@ ; `string'
PUBLIC	??_C@_0DL@EEAJJELA@cyclic_forward?7?7?7?7UP?7?7MODIFIER_@ ; `string'
PUBLIC	??_C@_0DM@HIBBLPEN@cyclic_backward?7?7?7?7DOWN?7?7MODIFI@ ; `string'
PUBLIC	??_C@_0CB@JNHIPKAI@?$CD?5Collective?7?7?7?7?7?7?7?7?7?7?7?7?7?7?7?7?7?7?7@ ; `string'
PUBLIC	??_C@_0DN@JJHECPM@collective_forward?7?7?7Q?7?7MODIFIE@ ; `string'
PUBLIC	??_C@_0DN@JJKHKOL@collective_backward?7?7?7A?7?7MODIFI@ ; `string'
PUBLIC	??_C@_0EB@GBLHHMMI@collective_forward?7?7?7EQUALS?7?7MO@ ; `string'
PUBLIC	??_C@_0EA@FOFEGDHJ@collective_backward?7?7?7MINUS?7?7MO@ ; `string'
PUBLIC	??_C@_0BO@IAAADDMF@?$CD?5Pedals?7?7?7?7?7?7?7?7?7?7?7?7?7?7?7?7?7?7?7?7?6@ ; `string'
PUBLIC	??_C@_0DH@EPDHDDNE@pedal_left?7?7?7?7Z?7?7MODIFIER_NONE?7@ ; `string'
PUBLIC	??_C@_0DH@EHNBPOGJ@pedal_right?7?7?7?7X?7?7MODIFIER_NONE@ ; `string'
PUBLIC	??_C@_0CA@MDHAGABE@?$CD?5Sets?5Trim?7?7?7?7?7?7?7?7?7?7?7?7?7?7?7?7?7?7?7?6@ ; `string'
PUBLIC	??_C@_0DK@JGPKMECI@set_trim_control?7?7?7T?7?7MODIFIER_@ ; `string'
PUBLIC	??_C@_0CC@CDODAPKH@?$CD?5Clears?5trim?7?7?7?7?7?7?7?7?7?7?7?7?7?7?7?7?7?7@ ; `string'
PUBLIC	??_C@_0EB@MPPKIFBP@clear_trim_control?7?7?7T?7?7MODIFIE@ ; `string'
PUBLIC	??_C@_0CI@OJHDINMC@?$CD?5Toggles?5rotor?5brake?7?7?7?7?7?7?7?7?7?7@ ; `string'
PUBLIC	??_C@_0DM@JKBKAGHA@toggle_rotor_brake?7?7?7R?7?7MODIFIE@ ; `string'
PUBLIC	??_C@_0CI@BDCDIMOH@?$CD?5Toggles?5wheel?5brake?7?7?7?7?7?7?7?7?7?7@ ; `string'
PUBLIC	??_C@_0DM@GLGNGOEO@toggle_wheel_brake?7?7?7B?7?7MODIFIE@ ; `string'
PUBLIC	??_C@_0CH@CMPHGHCB@?$CD?5Toggles?5auto?5hover?7?7?7?7?7?7?7?7?7?7?7@ ; `string'
PUBLIC	??_C@_0DL@MJBGMAAP@toggle_auto_hover?7?7?7H?7?7MODIFIER@ ; `string'
PUBLIC	??_C@_0EA@MCHIENGP@toggle_auto_hover?7?7?7H?7?7MODIFIER@ ; `string'
PUBLIC	??_C@_0CN@BLFIFECB@?$CD?5Toggles?5auto?5altitude?5hold?7?7?7@ ; `string'
PUBLIC	??_C@_0EA@OPNMBKBP@toggle_altitude_lock?7?7?7H?7?7MODIF@ ; `string'
PUBLIC	??_C@_0DC@EKGEOJBF@?$CD?5In?1Decrease?5altitude?5hold?5val@ ; `string'
PUBLIC	??_C@_0EC@GGPHMBCC@decrease_altitude_lock?7?7?7J?7?7MOD@ ; `string'
PUBLIC	??_C@_0EC@JPDLFPEH@increase_altitude_lock?7?7?7K?7?7MOD@ ; `string'
PUBLIC	??_C@_0CG@LIOJOAAC@?$CD?5Toggles?5autopilot?7?7?7?7?7?7?7?7?7?7?7?7@ ; `string'
PUBLIC	??_C@_0DL@MLMGCDPA@toggle_auto_pilot?7?7?7G?7?7MODIFIER@ ; `string'
PUBLIC	??_C@_0CK@JMIBPLEJ@?$CD?5Razorworks?5debug?5stuff?7?7?7?7?7?7?7@ ; `string'
PUBLIC	??_C@_0ED@CPEEOKD@load_dynamics_model?7?7?7TAB?7?7MODI@ ; `string'
PUBLIC	??_C@_0EE@GCFAMIIM@save_dynamics_model?7?7?7TAB?7?7MODI@ ; `string'
PUBLIC	??_C@_06GFLBNKMJ@?$CD?5End?6@			; `string'
PUBLIC	?all_keys@@3PAUkey@@A				; all_keys
PUBLIC	??_C@_06CDPDIIDH@ESCAPE@			; `string'
PUBLIC	??_C@_01HIHLOKLC@1@				; `string'
PUBLIC	??_C@_01FDFGLJHB@2@				; `string'
PUBLIC	??_C@_01EKENIIDA@3@				; `string'
PUBLIC	??_C@_01FAMBOPH@4@				; `string'
PUBLIC	??_C@_01BMBHCPLG@5@				; `string'
PUBLIC	??_C@_01DHDKHMHF@6@				; `string'
PUBLIC	??_C@_01COCBENDE@7@				; `string'
PUBLIC	??_C@_01KJLJFBPL@8@				; `string'
PUBLIC	??_C@_01LAKCGALK@9@				; `string'
PUBLIC	??_C@_01GBGANLPD@0@				; `string'
PUBLIC	??_C@_05CIDCLABE@MINUS@				; `string'
PUBLIC	??_C@_06IIDPKENN@EQUALS@			; `string'
PUBLIC	??_C@_04FJBHJJME@BACK@				; `string'
PUBLIC	??_C@_09MALOLBMO@BACKSPACE@			; `string'
PUBLIC	??_C@_03CJMDHCGG@TAB@				; `string'
PUBLIC	??_C@_01BNIGIBBF@Q@				; `string'
PUBLIC	??_C@_01ELNMCGJD@W@				; `string'
PUBLIC	??_C@_01DDCIFGEA@E@				; `string'
PUBLIC	??_C@_01DGKLNCNG@R@				; `string'
PUBLIC	??_C@_01GAPBHFFA@T@				; `string'
PUBLIC	??_C@_01NFFPALBN@Y@				; `string'
PUBLIC	??_C@_01HJOKEEBB@U@				; `string'
PUBLIC	??_C@_01JPJNBJEM@I@				; `string'
PUBLIC	??_C@_01MJMHLOMK@O@				; `string'
PUBLIC	??_C@_01EJNLAFE@P@				; `string'
PUBLIC	??_C@_08MBGGNFFL@LBRACKET@			; `string'
PUBLIC	??_C@_08KFGEEMLI@RBRACKET@			; `string'
PUBLIC	??_C@_06LJMOENAO@RETURN@			; `string'
PUBLIC	??_C@_08IKMONEBG@LCONTROL@			; `string'
PUBLIC	??_C@_01FHEEJDEE@A@				; `string'
PUBLIC	??_C@_01CPLAODJH@S@				; `string'
PUBLIC	??_C@_01CKDDGHAB@D@				; `string'
PUBLIC	??_C@_01BIAFAFID@F@				; `string'
PUBLIC	??_C@_01BBODEMC@G@				; `string'
PUBLIC	??_C@_01IGIGCIAN@H@				; `string'
PUBLIC	??_C@_01LELAEKIP@J@				; `string'
PUBLIC	??_C@_01KNKLHLMO@K@				; `string'
PUBLIC	??_C@_01OCOKONAJ@L@				; `string'
PUBLIC	??_C@_09COMJPDLF@SEMICOLON@			; `string'
PUBLIC	??_C@_0L@JENNPFNN@APOSTROPHE@			; `string'
PUBLIC	??_C@_05NICECODJ@GRAVE@				; `string'
PUBLIC	??_C@_06EPHNCIMI@LSHIFT@			; `string'
PUBLIC	??_C@_09MMCGBGHA@BACKSLASH@			; `string'
PUBLIC	??_C@_01POHCFINO@Z@				; `string'
PUBLIC	??_C@_01MMEEDKFM@X@				; `string'
PUBLIC	??_C@_01GFHCPBMG@C@				; `string'
PUBLIC	??_C@_01FCMHBHNC@V@				; `string'
PUBLIC	??_C@_01HMGJMAIH@B@				; `string'
PUBLIC	??_C@_01NANMIPIL@N@				; `string'
PUBLIC	??_C@_01PLPBNMEI@M@				; `string'
PUBLIC	??_C@_05OFAMAJDB@COMMA@				; `string'
PUBLIC	??_C@_06FFMPJJAJ@PERIOD@			; `string'
PUBLIC	??_C@_05CMNGPLPB@SLASH@				; `string'
PUBLIC	??_C@_06HIJMMPFL@RSHIFT@			; `string'
PUBLIC	??_C@_08LDEOAAGM@MULTIPLY@			; `string'
PUBLIC	??_C@_0L@IBDMOFBI@NUMPADSTAR@			; `string'
PUBLIC	??_C@_05IHMGKJGH@LMENU@				; `string'
PUBLIC	??_C@_04CACBGOAG@LALT@				; `string'
PUBLIC	??_C@_05CAEOFMEP@SPACE@				; `string'
PUBLIC	??_C@_07OPCFNGJB@CAPITAL@			; `string'
PUBLIC	??_C@_08INDENNHK@CAPSLOCK@			; `string'
PUBLIC	??_C@_02LCPENACN@F1@				; `string'
PUBLIC	??_C@_02JJNJIDOO@F2@				; `string'
PUBLIC	??_C@_02IAMCLCKP@F3@				; `string'
PUBLIC	??_C@_02MPIDCEGI@F4@				; `string'
PUBLIC	??_C@_02NGJIBFCJ@F5@				; `string'
PUBLIC	??_C@_02PNLFEGOK@F6@				; `string'
PUBLIC	??_C@_02OEKOHHKL@F7@				; `string'
PUBLIC	??_C@_02GDDGGLGE@F8@				; `string'
PUBLIC	??_C@_02HKCNFKCF@F9@				; `string'
PUBLIC	??_C@_03JKCLJOFG@F10@				; `string'
PUBLIC	??_C@_07FLMEHHJP@NUMLOCK@			; `string'
PUBLIC	??_C@_06FNIKALAE@SCROLL@			; `string'
PUBLIC	??_C@_07JIMOFKFA@NUMPAD7@			; `string'
PUBLIC	??_C@_07BPFGEGJP@NUMPAD8@			; `string'
PUBLIC	??_C@_07GENHHNO@NUMPAD9@			; `string'
PUBLIC	??_C@_08MGBEENML@SUBTRACT@			; `string'
PUBLIC	??_C@_0M@HOPLJMCP@NUMPADMINUS@			; `string'
PUBLIC	??_C@_07LDODAJJD@NUMPAD4@			; `string'
PUBLIC	??_C@_07KKPIDINC@NUMPAD5@			; `string'
PUBLIC	??_C@_07IBNFGLBB@NUMPAD6@			; `string'
PUBLIC	??_C@_03BOJFLAKG@ADD@				; `string'
PUBLIC	??_C@_0L@FBAFNKFF@NUMPADPLUS@			; `string'
PUBLIC	??_C@_07MOJEPNNG@NUMPAD1@			; `string'
PUBLIC	??_C@_07OFLJKOBF@NUMPAD2@			; `string'
PUBLIC	??_C@_07PMKCJPFE@NUMPAD3@			; `string'
PUBLIC	??_C@_07NHIPMMJH@NUMPAD0@			; `string'
PUBLIC	??_C@_07LJPMJDLL@DECIMAL@			; `string'
PUBLIC	??_C@_0N@OEJCLJAB@NUMPADPERIOD@			; `string'
PUBLIC	??_C@_07PEFKMFIE@OEM_102@			; `string'
PUBLIC	??_C@_03IDDAKPBH@F11@				; `string'
PUBLIC	??_C@_03KIBNPMNE@F12@				; `string'
PUBLIC	??_C@_03LBAGMNJF@F13@				; `string'
PUBLIC	??_C@_03POEHFLFC@F14@				; `string'
PUBLIC	??_C@_03OHFMGKBD@F15@				; `string'
PUBLIC	??_C@_04KGDAIAGM@KANA@				; `string'
PUBLIC	??_C@_07HDFAKPHN@ABNT_C1@			; `string'
PUBLIC	??_C@_07BAKIHLPO@CONVERT@			; `string'
PUBLIC	??_C@_09BHFIDHCE@NOCONVERT@			; `string'
PUBLIC	??_C@_03HABFENGL@YEN@				; `string'
PUBLIC	??_C@_07FIHNPMLO@ABNT_C2@			; `string'
PUBLIC	??_C@_0N@DJGCIENF@NUMPADEQUALS@			; `string'
PUBLIC	??_C@_0L@ICKCLMNA@CIRCUMFLEX@			; `string'
PUBLIC	??_C@_02KPDBFJEK@AT@				; `string'
PUBLIC	??_C@_05NJKMKGPF@COLON@				; `string'
PUBLIC	??_C@_09CDKPIEFA@UNDERLINE@			; `string'
PUBLIC	??_C@_05GJEMAGFO@KANJI@				; `string'
PUBLIC	??_C@_04MDHMLCKF@STOP@				; `string'
PUBLIC	??_C@_02DIEBGEG@AX@				; `string'
PUBLIC	??_C@_09CIFDPFIO@UNLABELED@			; `string'
PUBLIC	??_C@_0M@BKBBOHJI@NUMPADENTER@			; `string'
PUBLIC	??_C@_08OOMMENPF@RCONTROL@			; `string'
PUBLIC	??_C@_0M@LDMFCFAK@NUMPADCOMMA@			; `string'
PUBLIC	??_C@_06FBFCJJMP@DIVIDE@			; `string'
PUBLIC	??_C@_0M@HKBPNHMK@NUMPADSLASH@			; `string'
PUBLIC	??_C@_05OEAELPDI@SYSRQ@				; `string'
PUBLIC	??_C@_05LOBKMKIM@RMENU@				; `string'
PUBLIC	??_C@_04PPPBEHOF@RALT@				; `string'
PUBLIC	??_C@_05DIAHPDGL@PAUSE@				; `string'
PUBLIC	??_C@_04GHGFPGNC@HOME@				; `string'
PUBLIC	??_C@_02NAHCJHOC@UP@				; `string'
PUBLIC	??_C@_07MNCBLHKG@UPARROW@			; `string'
PUBLIC	??_C@_05BFDHCIJM@PRIOR@				; `string'
PUBLIC	??_C@_04NHMBBGKC@PGUP@				; `string'
PUBLIC	??_C@_04KCNEHMIH@LEFT@				; `string'
PUBLIC	??_C@_09FNHBLDAE@LEFTARROW@			; `string'
PUBLIC	??_C@_05PMAFOJDE@RIGHT@				; `string'
PUBLIC	??_C@_0L@CIPLPPIL@RIGHTARROW@			; `string'
PUBLIC	??_C@_03JMGAKCCH@END@				; `string'
PUBLIC	??_C@_04FANAOELO@DOWN@				; `string'
PUBLIC	??_C@_09KIDHILFL@DOWNARROW@			; `string'
PUBLIC	??_C@_04MOKMKBJN@NEXT@				; `string'
PUBLIC	??_C@_04BOGEOADK@PGDN@				; `string'
PUBLIC	??_C@_06OEMEAEKN@INSERT@			; `string'
PUBLIC	??_C@_06FKDAMKFP@DELETE@			; `string'
PUBLIC	??_C@_04ODLFFOHF@LWIN@				; `string'
PUBLIC	??_C@_04DMGFHHJG@RWIN@				; `string'
PUBLIC	??_C@_04GKGJFGJO@APPS@				; `string'
PUBLIC	??_C@_05DABGNONF@POWER@				; `string'
PUBLIC	??_C@_05DJAECLDN@SLEEP@				; `string'
PUBLIC	??_C@_04GBIHPNAA@WAKE@				; `string'
;	COMDAT ??_C@_04GBIHPNAA@WAKE@
CONST	SEGMENT
??_C@_04GBIHPNAA@WAKE@ DB 'WAKE', 00H			; `string'
CONST	ENDS
;	COMDAT ??_C@_05DJAECLDN@SLEEP@
CONST	SEGMENT
??_C@_05DJAECLDN@SLEEP@ DB 'SLEEP', 00H			; `string'
CONST	ENDS
;	COMDAT ??_C@_05DABGNONF@POWER@
CONST	SEGMENT
??_C@_05DABGNONF@POWER@ DB 'POWER', 00H			; `string'
CONST	ENDS
;	COMDAT ??_C@_04GKGJFGJO@APPS@
CONST	SEGMENT
??_C@_04GKGJFGJO@APPS@ DB 'APPS', 00H			; `string'
CONST	ENDS
;	COMDAT ??_C@_04DMGFHHJG@RWIN@
CONST	SEGMENT
??_C@_04DMGFHHJG@RWIN@ DB 'RWIN', 00H			; `string'
CONST	ENDS
;	COMDAT ??_C@_04ODLFFOHF@LWIN@
CONST	SEGMENT
??_C@_04ODLFFOHF@LWIN@ DB 'LWIN', 00H			; `string'
CONST	ENDS
;	COMDAT ??_C@_06FKDAMKFP@DELETE@
CONST	SEGMENT
??_C@_06FKDAMKFP@DELETE@ DB 'DELETE', 00H		; `string'
CONST	ENDS
;	COMDAT ??_C@_06OEMEAEKN@INSERT@
CONST	SEGMENT
??_C@_06OEMEAEKN@INSERT@ DB 'INSERT', 00H		; `string'
CONST	ENDS
;	COMDAT ??_C@_04BOGEOADK@PGDN@
CONST	SEGMENT
??_C@_04BOGEOADK@PGDN@ DB 'PGDN', 00H			; `string'
CONST	ENDS
;	COMDAT ??_C@_04MOKMKBJN@NEXT@
CONST	SEGMENT
??_C@_04MOKMKBJN@NEXT@ DB 'NEXT', 00H			; `string'
CONST	ENDS
;	COMDAT ??_C@_09KIDHILFL@DOWNARROW@
CONST	SEGMENT
??_C@_09KIDHILFL@DOWNARROW@ DB 'DOWNARROW', 00H		; `string'
CONST	ENDS
;	COMDAT ??_C@_04FANAOELO@DOWN@
CONST	SEGMENT
??_C@_04FANAOELO@DOWN@ DB 'DOWN', 00H			; `string'
CONST	ENDS
;	COMDAT ??_C@_03JMGAKCCH@END@
CONST	SEGMENT
??_C@_03JMGAKCCH@END@ DB 'END', 00H			; `string'
CONST	ENDS
;	COMDAT ??_C@_0L@CIPLPPIL@RIGHTARROW@
CONST	SEGMENT
??_C@_0L@CIPLPPIL@RIGHTARROW@ DB 'RIGHTARROW', 00H	; `string'
CONST	ENDS
;	COMDAT ??_C@_05PMAFOJDE@RIGHT@
CONST	SEGMENT
??_C@_05PMAFOJDE@RIGHT@ DB 'RIGHT', 00H			; `string'
CONST	ENDS
;	COMDAT ??_C@_09FNHBLDAE@LEFTARROW@
CONST	SEGMENT
??_C@_09FNHBLDAE@LEFTARROW@ DB 'LEFTARROW', 00H		; `string'
CONST	ENDS
;	COMDAT ??_C@_04KCNEHMIH@LEFT@
CONST	SEGMENT
??_C@_04KCNEHMIH@LEFT@ DB 'LEFT', 00H			; `string'
CONST	ENDS
;	COMDAT ??_C@_04NHMBBGKC@PGUP@
CONST	SEGMENT
??_C@_04NHMBBGKC@PGUP@ DB 'PGUP', 00H			; `string'
CONST	ENDS
;	COMDAT ??_C@_05BFDHCIJM@PRIOR@
CONST	SEGMENT
??_C@_05BFDHCIJM@PRIOR@ DB 'PRIOR', 00H			; `string'
CONST	ENDS
;	COMDAT ??_C@_07MNCBLHKG@UPARROW@
CONST	SEGMENT
??_C@_07MNCBLHKG@UPARROW@ DB 'UPARROW', 00H		; `string'
CONST	ENDS
;	COMDAT ??_C@_02NAHCJHOC@UP@
CONST	SEGMENT
??_C@_02NAHCJHOC@UP@ DB 'UP', 00H			; `string'
CONST	ENDS
;	COMDAT ??_C@_04GHGFPGNC@HOME@
CONST	SEGMENT
??_C@_04GHGFPGNC@HOME@ DB 'HOME', 00H			; `string'
CONST	ENDS
;	COMDAT ??_C@_05DIAHPDGL@PAUSE@
CONST	SEGMENT
??_C@_05DIAHPDGL@PAUSE@ DB 'PAUSE', 00H			; `string'
CONST	ENDS
;	COMDAT ??_C@_04PPPBEHOF@RALT@
CONST	SEGMENT
??_C@_04PPPBEHOF@RALT@ DB 'RALT', 00H			; `string'
CONST	ENDS
;	COMDAT ??_C@_05LOBKMKIM@RMENU@
CONST	SEGMENT
??_C@_05LOBKMKIM@RMENU@ DB 'RMENU', 00H			; `string'
CONST	ENDS
;	COMDAT ??_C@_05OEAELPDI@SYSRQ@
CONST	SEGMENT
??_C@_05OEAELPDI@SYSRQ@ DB 'SYSRQ', 00H			; `string'
CONST	ENDS
;	COMDAT ??_C@_0M@HKBPNHMK@NUMPADSLASH@
CONST	SEGMENT
??_C@_0M@HKBPNHMK@NUMPADSLASH@ DB 'NUMPADSLASH', 00H	; `string'
CONST	ENDS
;	COMDAT ??_C@_06FBFCJJMP@DIVIDE@
CONST	SEGMENT
??_C@_06FBFCJJMP@DIVIDE@ DB 'DIVIDE', 00H		; `string'
CONST	ENDS
;	COMDAT ??_C@_0M@LDMFCFAK@NUMPADCOMMA@
CONST	SEGMENT
??_C@_0M@LDMFCFAK@NUMPADCOMMA@ DB 'NUMPADCOMMA', 00H	; `string'
CONST	ENDS
;	COMDAT ??_C@_08OOMMENPF@RCONTROL@
CONST	SEGMENT
??_C@_08OOMMENPF@RCONTROL@ DB 'RCONTROL', 00H		; `string'
CONST	ENDS
;	COMDAT ??_C@_0M@BKBBOHJI@NUMPADENTER@
CONST	SEGMENT
??_C@_0M@BKBBOHJI@NUMPADENTER@ DB 'NUMPADENTER', 00H	; `string'
CONST	ENDS
;	COMDAT ??_C@_09CIFDPFIO@UNLABELED@
CONST	SEGMENT
??_C@_09CIFDPFIO@UNLABELED@ DB 'UNLABELED', 00H		; `string'
CONST	ENDS
;	COMDAT ??_C@_02DIEBGEG@AX@
CONST	SEGMENT
??_C@_02DIEBGEG@AX@ DB 'AX', 00H			; `string'
CONST	ENDS
;	COMDAT ??_C@_04MDHMLCKF@STOP@
CONST	SEGMENT
??_C@_04MDHMLCKF@STOP@ DB 'STOP', 00H			; `string'
CONST	ENDS
;	COMDAT ??_C@_05GJEMAGFO@KANJI@
CONST	SEGMENT
??_C@_05GJEMAGFO@KANJI@ DB 'KANJI', 00H			; `string'
CONST	ENDS
;	COMDAT ??_C@_09CDKPIEFA@UNDERLINE@
CONST	SEGMENT
??_C@_09CDKPIEFA@UNDERLINE@ DB 'UNDERLINE', 00H		; `string'
CONST	ENDS
;	COMDAT ??_C@_05NJKMKGPF@COLON@
CONST	SEGMENT
??_C@_05NJKMKGPF@COLON@ DB 'COLON', 00H			; `string'
CONST	ENDS
;	COMDAT ??_C@_02KPDBFJEK@AT@
CONST	SEGMENT
??_C@_02KPDBFJEK@AT@ DB 'AT', 00H			; `string'
CONST	ENDS
;	COMDAT ??_C@_0L@ICKCLMNA@CIRCUMFLEX@
CONST	SEGMENT
??_C@_0L@ICKCLMNA@CIRCUMFLEX@ DB 'CIRCUMFLEX', 00H	; `string'
CONST	ENDS
;	COMDAT ??_C@_0N@DJGCIENF@NUMPADEQUALS@
CONST	SEGMENT
??_C@_0N@DJGCIENF@NUMPADEQUALS@ DB 'NUMPADEQUALS', 00H	; `string'
CONST	ENDS
;	COMDAT ??_C@_07FIHNPMLO@ABNT_C2@
CONST	SEGMENT
??_C@_07FIHNPMLO@ABNT_C2@ DB 'ABNT_C2', 00H		; `string'
CONST	ENDS
;	COMDAT ??_C@_03HABFENGL@YEN@
CONST	SEGMENT
??_C@_03HABFENGL@YEN@ DB 'YEN', 00H			; `string'
CONST	ENDS
;	COMDAT ??_C@_09BHFIDHCE@NOCONVERT@
CONST	SEGMENT
??_C@_09BHFIDHCE@NOCONVERT@ DB 'NOCONVERT', 00H		; `string'
CONST	ENDS
;	COMDAT ??_C@_07BAKIHLPO@CONVERT@
CONST	SEGMENT
??_C@_07BAKIHLPO@CONVERT@ DB 'CONVERT', 00H		; `string'
CONST	ENDS
;	COMDAT ??_C@_07HDFAKPHN@ABNT_C1@
CONST	SEGMENT
??_C@_07HDFAKPHN@ABNT_C1@ DB 'ABNT_C1', 00H		; `string'
CONST	ENDS
;	COMDAT ??_C@_04KGDAIAGM@KANA@
CONST	SEGMENT
??_C@_04KGDAIAGM@KANA@ DB 'KANA', 00H			; `string'
CONST	ENDS
;	COMDAT ??_C@_03OHFMGKBD@F15@
CONST	SEGMENT
??_C@_03OHFMGKBD@F15@ DB 'F15', 00H			; `string'
CONST	ENDS
;	COMDAT ??_C@_03POEHFLFC@F14@
CONST	SEGMENT
??_C@_03POEHFLFC@F14@ DB 'F14', 00H			; `string'
CONST	ENDS
;	COMDAT ??_C@_03LBAGMNJF@F13@
CONST	SEGMENT
??_C@_03LBAGMNJF@F13@ DB 'F13', 00H			; `string'
CONST	ENDS
;	COMDAT ??_C@_03KIBNPMNE@F12@
CONST	SEGMENT
??_C@_03KIBNPMNE@F12@ DB 'F12', 00H			; `string'
CONST	ENDS
;	COMDAT ??_C@_03IDDAKPBH@F11@
CONST	SEGMENT
??_C@_03IDDAKPBH@F11@ DB 'F11', 00H			; `string'
CONST	ENDS
;	COMDAT ??_C@_07PEFKMFIE@OEM_102@
CONST	SEGMENT
??_C@_07PEFKMFIE@OEM_102@ DB 'OEM_102', 00H		; `string'
CONST	ENDS
;	COMDAT ??_C@_0N@OEJCLJAB@NUMPADPERIOD@
CONST	SEGMENT
??_C@_0N@OEJCLJAB@NUMPADPERIOD@ DB 'NUMPADPERIOD', 00H	; `string'
CONST	ENDS
;	COMDAT ??_C@_07LJPMJDLL@DECIMAL@
CONST	SEGMENT
??_C@_07LJPMJDLL@DECIMAL@ DB 'DECIMAL', 00H		; `string'
CONST	ENDS
;	COMDAT ??_C@_07NHIPMMJH@NUMPAD0@
CONST	SEGMENT
??_C@_07NHIPMMJH@NUMPAD0@ DB 'NUMPAD0', 00H		; `string'
CONST	ENDS
;	COMDAT ??_C@_07PMKCJPFE@NUMPAD3@
CONST	SEGMENT
??_C@_07PMKCJPFE@NUMPAD3@ DB 'NUMPAD3', 00H		; `string'
CONST	ENDS
;	COMDAT ??_C@_07OFLJKOBF@NUMPAD2@
CONST	SEGMENT
??_C@_07OFLJKOBF@NUMPAD2@ DB 'NUMPAD2', 00H		; `string'
CONST	ENDS
;	COMDAT ??_C@_07MOJEPNNG@NUMPAD1@
CONST	SEGMENT
??_C@_07MOJEPNNG@NUMPAD1@ DB 'NUMPAD1', 00H		; `string'
CONST	ENDS
;	COMDAT ??_C@_0L@FBAFNKFF@NUMPADPLUS@
CONST	SEGMENT
??_C@_0L@FBAFNKFF@NUMPADPLUS@ DB 'NUMPADPLUS', 00H	; `string'
CONST	ENDS
;	COMDAT ??_C@_03BOJFLAKG@ADD@
CONST	SEGMENT
??_C@_03BOJFLAKG@ADD@ DB 'ADD', 00H			; `string'
CONST	ENDS
;	COMDAT ??_C@_07IBNFGLBB@NUMPAD6@
CONST	SEGMENT
??_C@_07IBNFGLBB@NUMPAD6@ DB 'NUMPAD6', 00H		; `string'
CONST	ENDS
;	COMDAT ??_C@_07KKPIDINC@NUMPAD5@
CONST	SEGMENT
??_C@_07KKPIDINC@NUMPAD5@ DB 'NUMPAD5', 00H		; `string'
CONST	ENDS
;	COMDAT ??_C@_07LDODAJJD@NUMPAD4@
CONST	SEGMENT
??_C@_07LDODAJJD@NUMPAD4@ DB 'NUMPAD4', 00H		; `string'
CONST	ENDS
;	COMDAT ??_C@_0M@HOPLJMCP@NUMPADMINUS@
CONST	SEGMENT
??_C@_0M@HOPLJMCP@NUMPADMINUS@ DB 'NUMPADMINUS', 00H	; `string'
CONST	ENDS
;	COMDAT ??_C@_08MGBEENML@SUBTRACT@
CONST	SEGMENT
??_C@_08MGBEENML@SUBTRACT@ DB 'SUBTRACT', 00H		; `string'
CONST	ENDS
;	COMDAT ??_C@_07GENHHNO@NUMPAD9@
CONST	SEGMENT
??_C@_07GENHHNO@NUMPAD9@ DB 'NUMPAD9', 00H		; `string'
CONST	ENDS
;	COMDAT ??_C@_07BPFGEGJP@NUMPAD8@
CONST	SEGMENT
??_C@_07BPFGEGJP@NUMPAD8@ DB 'NUMPAD8', 00H		; `string'
CONST	ENDS
;	COMDAT ??_C@_07JIMOFKFA@NUMPAD7@
CONST	SEGMENT
??_C@_07JIMOFKFA@NUMPAD7@ DB 'NUMPAD7', 00H		; `string'
CONST	ENDS
;	COMDAT ??_C@_06FNIKALAE@SCROLL@
CONST	SEGMENT
??_C@_06FNIKALAE@SCROLL@ DB 'SCROLL', 00H		; `string'
CONST	ENDS
;	COMDAT ??_C@_07FLMEHHJP@NUMLOCK@
CONST	SEGMENT
??_C@_07FLMEHHJP@NUMLOCK@ DB 'NUMLOCK', 00H		; `string'
CONST	ENDS
;	COMDAT ??_C@_03JKCLJOFG@F10@
CONST	SEGMENT
??_C@_03JKCLJOFG@F10@ DB 'F10', 00H			; `string'
CONST	ENDS
;	COMDAT ??_C@_02HKCNFKCF@F9@
CONST	SEGMENT
??_C@_02HKCNFKCF@F9@ DB 'F9', 00H			; `string'
CONST	ENDS
;	COMDAT ??_C@_02GDDGGLGE@F8@
CONST	SEGMENT
??_C@_02GDDGGLGE@F8@ DB 'F8', 00H			; `string'
CONST	ENDS
;	COMDAT ??_C@_02OEKOHHKL@F7@
CONST	SEGMENT
??_C@_02OEKOHHKL@F7@ DB 'F7', 00H			; `string'
CONST	ENDS
;	COMDAT ??_C@_02PNLFEGOK@F6@
CONST	SEGMENT
??_C@_02PNLFEGOK@F6@ DB 'F6', 00H			; `string'
CONST	ENDS
;	COMDAT ??_C@_02NGJIBFCJ@F5@
CONST	SEGMENT
??_C@_02NGJIBFCJ@F5@ DB 'F5', 00H			; `string'
CONST	ENDS
;	COMDAT ??_C@_02MPIDCEGI@F4@
CONST	SEGMENT
??_C@_02MPIDCEGI@F4@ DB 'F4', 00H			; `string'
CONST	ENDS
;	COMDAT ??_C@_02IAMCLCKP@F3@
CONST	SEGMENT
??_C@_02IAMCLCKP@F3@ DB 'F3', 00H			; `string'
CONST	ENDS
;	COMDAT ??_C@_02JJNJIDOO@F2@
CONST	SEGMENT
??_C@_02JJNJIDOO@F2@ DB 'F2', 00H			; `string'
CONST	ENDS
;	COMDAT ??_C@_02LCPENACN@F1@
CONST	SEGMENT
??_C@_02LCPENACN@F1@ DB 'F1', 00H			; `string'
CONST	ENDS
;	COMDAT ??_C@_08INDENNHK@CAPSLOCK@
CONST	SEGMENT
??_C@_08INDENNHK@CAPSLOCK@ DB 'CAPSLOCK', 00H		; `string'
CONST	ENDS
;	COMDAT ??_C@_07OPCFNGJB@CAPITAL@
CONST	SEGMENT
??_C@_07OPCFNGJB@CAPITAL@ DB 'CAPITAL', 00H		; `string'
CONST	ENDS
;	COMDAT ??_C@_05CAEOFMEP@SPACE@
CONST	SEGMENT
??_C@_05CAEOFMEP@SPACE@ DB 'SPACE', 00H			; `string'
CONST	ENDS
;	COMDAT ??_C@_04CACBGOAG@LALT@
CONST	SEGMENT
??_C@_04CACBGOAG@LALT@ DB 'LALT', 00H			; `string'
CONST	ENDS
;	COMDAT ??_C@_05IHMGKJGH@LMENU@
CONST	SEGMENT
??_C@_05IHMGKJGH@LMENU@ DB 'LMENU', 00H			; `string'
CONST	ENDS
;	COMDAT ??_C@_0L@IBDMOFBI@NUMPADSTAR@
CONST	SEGMENT
??_C@_0L@IBDMOFBI@NUMPADSTAR@ DB 'NUMPADSTAR', 00H	; `string'
CONST	ENDS
;	COMDAT ??_C@_08LDEOAAGM@MULTIPLY@
CONST	SEGMENT
??_C@_08LDEOAAGM@MULTIPLY@ DB 'MULTIPLY', 00H		; `string'
CONST	ENDS
;	COMDAT ??_C@_06HIJMMPFL@RSHIFT@
CONST	SEGMENT
??_C@_06HIJMMPFL@RSHIFT@ DB 'RSHIFT', 00H		; `string'
CONST	ENDS
;	COMDAT ??_C@_05CMNGPLPB@SLASH@
CONST	SEGMENT
??_C@_05CMNGPLPB@SLASH@ DB 'SLASH', 00H			; `string'
CONST	ENDS
;	COMDAT ??_C@_06FFMPJJAJ@PERIOD@
CONST	SEGMENT
??_C@_06FFMPJJAJ@PERIOD@ DB 'PERIOD', 00H		; `string'
CONST	ENDS
;	COMDAT ??_C@_05OFAMAJDB@COMMA@
CONST	SEGMENT
??_C@_05OFAMAJDB@COMMA@ DB 'COMMA', 00H			; `string'
CONST	ENDS
;	COMDAT ??_C@_01PLPBNMEI@M@
CONST	SEGMENT
??_C@_01PLPBNMEI@M@ DB 'M', 00H				; `string'
CONST	ENDS
;	COMDAT ??_C@_01NANMIPIL@N@
CONST	SEGMENT
??_C@_01NANMIPIL@N@ DB 'N', 00H				; `string'
CONST	ENDS
;	COMDAT ??_C@_01HMGJMAIH@B@
CONST	SEGMENT
??_C@_01HMGJMAIH@B@ DB 'B', 00H				; `string'
CONST	ENDS
;	COMDAT ??_C@_01FCMHBHNC@V@
CONST	SEGMENT
??_C@_01FCMHBHNC@V@ DB 'V', 00H				; `string'
CONST	ENDS
;	COMDAT ??_C@_01GFHCPBMG@C@
CONST	SEGMENT
??_C@_01GFHCPBMG@C@ DB 'C', 00H				; `string'
CONST	ENDS
;	COMDAT ??_C@_01MMEEDKFM@X@
CONST	SEGMENT
??_C@_01MMEEDKFM@X@ DB 'X', 00H				; `string'
CONST	ENDS
;	COMDAT ??_C@_01POHCFINO@Z@
CONST	SEGMENT
??_C@_01POHCFINO@Z@ DB 'Z', 00H				; `string'
CONST	ENDS
;	COMDAT ??_C@_09MMCGBGHA@BACKSLASH@
CONST	SEGMENT
??_C@_09MMCGBGHA@BACKSLASH@ DB 'BACKSLASH', 00H		; `string'
CONST	ENDS
;	COMDAT ??_C@_06EPHNCIMI@LSHIFT@
CONST	SEGMENT
??_C@_06EPHNCIMI@LSHIFT@ DB 'LSHIFT', 00H		; `string'
CONST	ENDS
;	COMDAT ??_C@_05NICECODJ@GRAVE@
CONST	SEGMENT
??_C@_05NICECODJ@GRAVE@ DB 'GRAVE', 00H			; `string'
CONST	ENDS
;	COMDAT ??_C@_0L@JENNPFNN@APOSTROPHE@
CONST	SEGMENT
??_C@_0L@JENNPFNN@APOSTROPHE@ DB 'APOSTROPHE', 00H	; `string'
CONST	ENDS
;	COMDAT ??_C@_09COMJPDLF@SEMICOLON@
CONST	SEGMENT
??_C@_09COMJPDLF@SEMICOLON@ DB 'SEMICOLON', 00H		; `string'
CONST	ENDS
;	COMDAT ??_C@_01OCOKONAJ@L@
CONST	SEGMENT
??_C@_01OCOKONAJ@L@ DB 'L', 00H				; `string'
CONST	ENDS
;	COMDAT ??_C@_01KNKLHLMO@K@
CONST	SEGMENT
??_C@_01KNKLHLMO@K@ DB 'K', 00H				; `string'
CONST	ENDS
;	COMDAT ??_C@_01LELAEKIP@J@
CONST	SEGMENT
??_C@_01LELAEKIP@J@ DB 'J', 00H				; `string'
CONST	ENDS
;	COMDAT ??_C@_01IGIGCIAN@H@
CONST	SEGMENT
??_C@_01IGIGCIAN@H@ DB 'H', 00H				; `string'
CONST	ENDS
;	COMDAT ??_C@_01BBODEMC@G@
CONST	SEGMENT
??_C@_01BBODEMC@G@ DB 'G', 00H				; `string'
CONST	ENDS
;	COMDAT ??_C@_01BIAFAFID@F@
CONST	SEGMENT
??_C@_01BIAFAFID@F@ DB 'F', 00H				; `string'
CONST	ENDS
;	COMDAT ??_C@_01CKDDGHAB@D@
CONST	SEGMENT
??_C@_01CKDDGHAB@D@ DB 'D', 00H				; `string'
CONST	ENDS
;	COMDAT ??_C@_01CPLAODJH@S@
CONST	SEGMENT
??_C@_01CPLAODJH@S@ DB 'S', 00H				; `string'
CONST	ENDS
;	COMDAT ??_C@_01FHEEJDEE@A@
CONST	SEGMENT
??_C@_01FHEEJDEE@A@ DB 'A', 00H				; `string'
CONST	ENDS
;	COMDAT ??_C@_08IKMONEBG@LCONTROL@
CONST	SEGMENT
??_C@_08IKMONEBG@LCONTROL@ DB 'LCONTROL', 00H		; `string'
CONST	ENDS
;	COMDAT ??_C@_06LJMOENAO@RETURN@
CONST	SEGMENT
??_C@_06LJMOENAO@RETURN@ DB 'RETURN', 00H		; `string'
CONST	ENDS
;	COMDAT ??_C@_08KFGEEMLI@RBRACKET@
CONST	SEGMENT
??_C@_08KFGEEMLI@RBRACKET@ DB 'RBRACKET', 00H		; `string'
CONST	ENDS
;	COMDAT ??_C@_08MBGGNFFL@LBRACKET@
CONST	SEGMENT
??_C@_08MBGGNFFL@LBRACKET@ DB 'LBRACKET', 00H		; `string'
CONST	ENDS
;	COMDAT ??_C@_01EJNLAFE@P@
CONST	SEGMENT
??_C@_01EJNLAFE@P@ DB 'P', 00H				; `string'
CONST	ENDS
;	COMDAT ??_C@_01MJMHLOMK@O@
CONST	SEGMENT
??_C@_01MJMHLOMK@O@ DB 'O', 00H				; `string'
CONST	ENDS
;	COMDAT ??_C@_01JPJNBJEM@I@
CONST	SEGMENT
??_C@_01JPJNBJEM@I@ DB 'I', 00H				; `string'
CONST	ENDS
;	COMDAT ??_C@_01HJOKEEBB@U@
CONST	SEGMENT
??_C@_01HJOKEEBB@U@ DB 'U', 00H				; `string'
CONST	ENDS
;	COMDAT ??_C@_01NFFPALBN@Y@
CONST	SEGMENT
??_C@_01NFFPALBN@Y@ DB 'Y', 00H				; `string'
CONST	ENDS
;	COMDAT ??_C@_01GAPBHFFA@T@
CONST	SEGMENT
??_C@_01GAPBHFFA@T@ DB 'T', 00H				; `string'
CONST	ENDS
;	COMDAT ??_C@_01DGKLNCNG@R@
CONST	SEGMENT
??_C@_01DGKLNCNG@R@ DB 'R', 00H				; `string'
CONST	ENDS
;	COMDAT ??_C@_01DDCIFGEA@E@
CONST	SEGMENT
??_C@_01DDCIFGEA@E@ DB 'E', 00H				; `string'
CONST	ENDS
;	COMDAT ??_C@_01ELNMCGJD@W@
CONST	SEGMENT
??_C@_01ELNMCGJD@W@ DB 'W', 00H				; `string'
CONST	ENDS
;	COMDAT ??_C@_01BNIGIBBF@Q@
CONST	SEGMENT
??_C@_01BNIGIBBF@Q@ DB 'Q', 00H				; `string'
CONST	ENDS
;	COMDAT ??_C@_03CJMDHCGG@TAB@
CONST	SEGMENT
??_C@_03CJMDHCGG@TAB@ DB 'TAB', 00H			; `string'
CONST	ENDS
;	COMDAT ??_C@_09MALOLBMO@BACKSPACE@
CONST	SEGMENT
??_C@_09MALOLBMO@BACKSPACE@ DB 'BACKSPACE', 00H		; `string'
CONST	ENDS
;	COMDAT ??_C@_04FJBHJJME@BACK@
CONST	SEGMENT
??_C@_04FJBHJJME@BACK@ DB 'BACK', 00H			; `string'
CONST	ENDS
;	COMDAT ??_C@_06IIDPKENN@EQUALS@
CONST	SEGMENT
??_C@_06IIDPKENN@EQUALS@ DB 'EQUALS', 00H		; `string'
CONST	ENDS
;	COMDAT ??_C@_05CIDCLABE@MINUS@
CONST	SEGMENT
??_C@_05CIDCLABE@MINUS@ DB 'MINUS', 00H			; `string'
CONST	ENDS
;	COMDAT ??_C@_01GBGANLPD@0@
CONST	SEGMENT
??_C@_01GBGANLPD@0@ DB '0', 00H				; `string'
CONST	ENDS
;	COMDAT ??_C@_01LAKCGALK@9@
CONST	SEGMENT
??_C@_01LAKCGALK@9@ DB '9', 00H				; `string'
CONST	ENDS
;	COMDAT ??_C@_01KJLJFBPL@8@
CONST	SEGMENT
??_C@_01KJLJFBPL@8@ DB '8', 00H				; `string'
CONST	ENDS
;	COMDAT ??_C@_01COCBENDE@7@
CONST	SEGMENT
??_C@_01COCBENDE@7@ DB '7', 00H				; `string'
CONST	ENDS
;	COMDAT ??_C@_01DHDKHMHF@6@
CONST	SEGMENT
??_C@_01DHDKHMHF@6@ DB '6', 00H				; `string'
CONST	ENDS
;	COMDAT ??_C@_01BMBHCPLG@5@
CONST	SEGMENT
??_C@_01BMBHCPLG@5@ DB '5', 00H				; `string'
CONST	ENDS
;	COMDAT ??_C@_01FAMBOPH@4@
CONST	SEGMENT
??_C@_01FAMBOPH@4@ DB '4', 00H				; `string'
CONST	ENDS
;	COMDAT ??_C@_01EKENIIDA@3@
CONST	SEGMENT
??_C@_01EKENIIDA@3@ DB '3', 00H				; `string'
CONST	ENDS
;	COMDAT ??_C@_01FDFGLJHB@2@
CONST	SEGMENT
??_C@_01FDFGLJHB@2@ DB '2', 00H				; `string'
CONST	ENDS
;	COMDAT ??_C@_01HIHLOKLC@1@
CONST	SEGMENT
??_C@_01HIHLOKLC@1@ DB '1', 00H				; `string'
CONST	ENDS
;	COMDAT ??_C@_06CDPDIIDH@ESCAPE@
CONST	SEGMENT
??_C@_06CDPDIIDH@ESCAPE@ DB 'ESCAPE', 00H		; `string'
CONST	ENDS
;	COMDAT ??_C@_06GFLBNKMJ@?$CD?5End?6@
CONST	SEGMENT
??_C@_06GFLBNKMJ@?$CD?5End?6@ DB '# End', 0aH, 00H	; `string'
CONST	ENDS
;	COMDAT ??_C@_0EE@GCFAMIIM@save_dynamics_model?7?7?7TAB?7?7MODI@
CONST	SEGMENT
??_C@_0EE@GCFAMIIM@save_dynamics_model?7?7?7TAB?7?7MODI@ DB 'save_dynamic'
	DB	's_model', 09H, 09H, 09H, 'TAB', 09H, 09H, 'MODIFIER_LEFT_CONT'
	DB	'ROL', 09H, 'KEY_STATE_DOWN', 09H, 09H, 09H, 0aH, 00H ; `string'
CONST	ENDS
;	COMDAT ??_C@_0ED@CPEEOKD@load_dynamics_model?7?7?7TAB?7?7MODI@
CONST	SEGMENT
??_C@_0ED@CPEEOKD@load_dynamics_model?7?7?7TAB?7?7MODI@ DB 'load_dynamics'
	DB	'_model', 09H, 09H, 09H, 'TAB', 09H, 09H, 'MODIFIER_LEFT_SHIFT'
	DB	09H, 'KEY_STATE_DOWN', 09H, 09H, 09H, 09H, 0aH, 00H ; `string'
CONST	ENDS
;	COMDAT ??_C@_0CK@JMIBPLEJ@?$CD?5Razorworks?5debug?5stuff?7?7?7?7?7?7?7@
CONST	SEGMENT
??_C@_0CK@JMIBPLEJ@?$CD?5Razorworks?5debug?5stuff?7?7?7?7?7?7?7@ DB '# Ra'
	DB	'zorworks debug stuff', 09H, 09H, 09H, 09H, 09H, 09H, 09H, 09H
	DB	09H, 09H, 09H, 09H, 09H, 09H, 09H, 09H, 0aH, 00H ; `string'
CONST	ENDS
;	COMDAT ??_C@_0DL@MLMGCDPA@toggle_auto_pilot?7?7?7G?7?7MODIFIER@
CONST	SEGMENT
??_C@_0DL@MLMGCDPA@toggle_auto_pilot?7?7?7G?7?7MODIFIER@ DB 'toggle_auto_'
	DB	'pilot', 09H, 09H, 09H, 'G', 09H, 09H, 'MODIFIER_NONE', 09H, 09H
	DB	'KEY_STATE_DOWN', 09H, 09H, 09H, 09H, 09H, 0aH, 00H ; `string'
CONST	ENDS
;	COMDAT ??_C@_0CG@LIOJOAAC@?$CD?5Toggles?5autopilot?7?7?7?7?7?7?7?7?7?7?7?7@
CONST	SEGMENT
??_C@_0CG@LIOJOAAC@?$CD?5Toggles?5autopilot?7?7?7?7?7?7?7?7?7?7?7?7@ DB '#'
	DB	' Toggles autopilot', 09H, 09H, 09H, 09H, 09H, 09H, 09H, 09H, 09H
	DB	09H, 09H, 09H, 09H, 09H, 09H, 09H, 09H, 0aH, 00H ; `string'
CONST	ENDS
;	COMDAT ??_C@_0EC@JPDLFPEH@increase_altitude_lock?7?7?7K?7?7MOD@
CONST	SEGMENT
??_C@_0EC@JPDLFPEH@increase_altitude_lock?7?7?7K?7?7MOD@ DB 'increase_alt'
	DB	'itude_lock', 09H, 09H, 09H, 'K', 09H, 09H, 'MODIFIER_LEFT_ALT'
	DB	09H, 'KEY_STATE_DOWN', 09H, 09H, 09H, 09H, 0aH, 00H ; `string'
CONST	ENDS
;	COMDAT ??_C@_0EC@GGPHMBCC@decrease_altitude_lock?7?7?7J?7?7MOD@
CONST	SEGMENT
??_C@_0EC@GGPHMBCC@decrease_altitude_lock?7?7?7J?7?7MOD@ DB 'decrease_alt'
	DB	'itude_lock', 09H, 09H, 09H, 'J', 09H, 09H, 'MODIFIER_LEFT_ALT'
	DB	09H, 'KEY_STATE_DOWN', 09H, 09H, 09H, 09H, 0aH, 00H ; `string'
CONST	ENDS
;	COMDAT ??_C@_0DC@EKGEOJBF@?$CD?5In?1Decrease?5altitude?5hold?5val@
CONST	SEGMENT
??_C@_0DC@EKGEOJBF@?$CD?5In?1Decrease?5altitude?5hold?5val@ DB '# In/Decr'
	DB	'ease altitude hold values', 09H, 09H, 09H, 09H, 09H, 09H, 09H
	DB	09H, 09H, 09H, 09H, 09H, 09H, 09H, 0aH, 00H	; `string'
CONST	ENDS
;	COMDAT ??_C@_0EA@OPNMBKBP@toggle_altitude_lock?7?7?7H?7?7MODIF@
CONST	SEGMENT
??_C@_0EA@OPNMBKBP@toggle_altitude_lock?7?7?7H?7?7MODIF@ DB 'toggle_altit'
	DB	'ude_lock', 09H, 09H, 09H, 'H', 09H, 09H, 'MODIFIER_LEFT_ALT', 09H
	DB	'KEY_STATE_DOWN', 09H, 09H, 09H, 09H, 0aH, 00H ; `string'
CONST	ENDS
;	COMDAT ??_C@_0CN@BLFIFECB@?$CD?5Toggles?5auto?5altitude?5hold?7?7?7@
CONST	SEGMENT
??_C@_0CN@BLFIFECB@?$CD?5Toggles?5auto?5altitude?5hold?7?7?7@ DB '# Toggl'
	DB	'es auto altitude hold', 09H, 09H, 09H, 09H, 09H, 09H, 09H, 09H
	DB	09H, 09H, 09H, 09H, 09H, 09H, 09H, 0aH, 00H	; `string'
CONST	ENDS
;	COMDAT ??_C@_0EA@MCHIENGP@toggle_auto_hover?7?7?7H?7?7MODIFIER@
CONST	SEGMENT
??_C@_0EA@MCHIENGP@toggle_auto_hover?7?7?7H?7?7MODIFIER@ DB 'toggle_auto_'
	DB	'hover', 09H, 09H, 09H, 'H', 09H, 09H, 'MODIFIER_LEFT_SHIFT', 09H
	DB	'KEY_STATE_DOWN', 09H, 09H, 09H, 09H, 09H, 0aH, 00H ; `string'
CONST	ENDS
;	COMDAT ??_C@_0DL@MJBGMAAP@toggle_auto_hover?7?7?7H?7?7MODIFIER@
CONST	SEGMENT
??_C@_0DL@MJBGMAAP@toggle_auto_hover?7?7?7H?7?7MODIFIER@ DB 'toggle_auto_'
	DB	'hover', 09H, 09H, 09H, 'H', 09H, 09H, 'MODIFIER_NONE', 09H, 09H
	DB	'KEY_STATE_DOWN', 09H, 09H, 09H, 09H, 09H, 0aH, 00H ; `string'
CONST	ENDS
;	COMDAT ??_C@_0CH@CMPHGHCB@?$CD?5Toggles?5auto?5hover?7?7?7?7?7?7?7?7?7?7?7@
CONST	SEGMENT
??_C@_0CH@CMPHGHCB@?$CD?5Toggles?5auto?5hover?7?7?7?7?7?7?7?7?7?7?7@ DB '#'
	DB	' Toggles auto hover', 09H, 09H, 09H, 09H, 09H, 09H, 09H, 09H, 09H
	DB	09H, 09H, 09H, 09H, 09H, 09H, 09H, 09H, 0aH, 00H ; `string'
CONST	ENDS
;	COMDAT ??_C@_0DM@GLGNGOEO@toggle_wheel_brake?7?7?7B?7?7MODIFIE@
CONST	SEGMENT
??_C@_0DM@GLGNGOEO@toggle_wheel_brake?7?7?7B?7?7MODIFIE@ DB 'toggle_wheel'
	DB	'_brake', 09H, 09H, 09H, 'B', 09H, 09H, 'MODIFIER_NONE', 09H, 09H
	DB	'KEY_STATE_DOWN', 09H, 09H, 09H, 09H, 09H, 0aH, 00H ; `string'
CONST	ENDS
;	COMDAT ??_C@_0CI@BDCDIMOH@?$CD?5Toggles?5wheel?5brake?7?7?7?7?7?7?7?7?7?7@
CONST	SEGMENT
??_C@_0CI@BDCDIMOH@?$CD?5Toggles?5wheel?5brake?7?7?7?7?7?7?7?7?7?7@ DB '#'
	DB	' Toggles wheel brake', 09H, 09H, 09H, 09H, 09H, 09H, 09H, 09H
	DB	09H, 09H, 09H, 09H, 09H, 09H, 09H, 09H, 09H, 0aH, 00H ; `string'
CONST	ENDS
;	COMDAT ??_C@_0DM@JKBKAGHA@toggle_rotor_brake?7?7?7R?7?7MODIFIE@
CONST	SEGMENT
??_C@_0DM@JKBKAGHA@toggle_rotor_brake?7?7?7R?7?7MODIFIE@ DB 'toggle_rotor'
	DB	'_brake', 09H, 09H, 09H, 'R', 09H, 09H, 'MODIFIER_NONE', 09H, 09H
	DB	'KEY_STATE_DOWN', 09H, 09H, 09H, 09H, 09H, 0aH, 00H ; `string'
CONST	ENDS
;	COMDAT ??_C@_0CI@OJHDINMC@?$CD?5Toggles?5rotor?5brake?7?7?7?7?7?7?7?7?7?7@
CONST	SEGMENT
??_C@_0CI@OJHDINMC@?$CD?5Toggles?5rotor?5brake?7?7?7?7?7?7?7?7?7?7@ DB '#'
	DB	' Toggles rotor brake', 09H, 09H, 09H, 09H, 09H, 09H, 09H, 09H
	DB	09H, 09H, 09H, 09H, 09H, 09H, 09H, 09H, 09H, 0aH, 00H ; `string'
CONST	ENDS
;	COMDAT ??_C@_0EB@MPPKIFBP@clear_trim_control?7?7?7T?7?7MODIFIE@
CONST	SEGMENT
??_C@_0EB@MPPKIFBP@clear_trim_control?7?7?7T?7?7MODIFIE@ DB 'clear_trim_c'
	DB	'ontrol', 09H, 09H, 09H, 'T', 09H, 09H, 'MODIFIER_LEFT_SHIFT', 09H
	DB	'KEY_STATE_DOWN', 09H, 09H, 09H, 09H, 09H, 0aH, 00H ; `string'
CONST	ENDS
;	COMDAT ??_C@_0CC@CDODAPKH@?$CD?5Clears?5trim?7?7?7?7?7?7?7?7?7?7?7?7?7?7?7?7?7?7@
CONST	SEGMENT
??_C@_0CC@CDODAPKH@?$CD?5Clears?5trim?7?7?7?7?7?7?7?7?7?7?7?7?7?7?7?7?7?7@ DB '#'
	DB	' Clears trim', 09H, 09H, 09H, 09H, 09H, 09H, 09H, 09H, 09H, 09H
	DB	09H, 09H, 09H, 09H, 09H, 09H, 09H, 09H, 09H, 0aH, 00H ; `string'
CONST	ENDS
;	COMDAT ??_C@_0DK@JGPKMECI@set_trim_control?7?7?7T?7?7MODIFIER_@
CONST	SEGMENT
??_C@_0DK@JGPKMECI@set_trim_control?7?7?7T?7?7MODIFIER_@ DB 'set_trim_con'
	DB	'trol', 09H, 09H, 09H, 'T', 09H, 09H, 'MODIFIER_NONE', 09H, 09H
	DB	'KEY_STATE_DOWN', 09H, 09H, 09H, 09H, 09H, 0aH, 00H ; `string'
CONST	ENDS
;	COMDAT ??_C@_0CA@MDHAGABE@?$CD?5Sets?5Trim?7?7?7?7?7?7?7?7?7?7?7?7?7?7?7?7?7?7?7?6@
CONST	SEGMENT
??_C@_0CA@MDHAGABE@?$CD?5Sets?5Trim?7?7?7?7?7?7?7?7?7?7?7?7?7?7?7?7?7?7?7?6@ DB '#'
	DB	' Sets Trim', 09H, 09H, 09H, 09H, 09H, 09H, 09H, 09H, 09H, 09H
	DB	09H, 09H, 09H, 09H, 09H, 09H, 09H, 09H, 09H, 0aH, 00H ; `string'
CONST	ENDS
;	COMDAT ??_C@_0DH@EHNBPOGJ@pedal_right?7?7?7?7X?7?7MODIFIER_NONE@
CONST	SEGMENT
??_C@_0DH@EHNBPOGJ@pedal_right?7?7?7?7X?7?7MODIFIER_NONE@ DB 'pedal_right'
	DB	09H, 09H, 09H, 09H, 'X', 09H, 09H, 'MODIFIER_NONE', 09H, 09H, 'K'
	DB	'EY_STATE_EITHER', 09H, 09H, 09H, 09H, 0aH, 00H ; `string'
CONST	ENDS
;	COMDAT ??_C@_0DH@EPDHDDNE@pedal_left?7?7?7?7Z?7?7MODIFIER_NONE?7@
CONST	SEGMENT
??_C@_0DH@EPDHDDNE@pedal_left?7?7?7?7Z?7?7MODIFIER_NONE?7@ DB 'pedal_left'
	DB	09H, 09H, 09H, 09H, 'Z', 09H, 09H, 'MODIFIER_NONE', 09H, 09H, 'K'
	DB	'EY_STATE_EITHER', 09H, 09H, 09H, 09H, 09H, 0aH, 00H ; `string'
CONST	ENDS
;	COMDAT ??_C@_0BO@IAAADDMF@?$CD?5Pedals?7?7?7?7?7?7?7?7?7?7?7?7?7?7?7?7?7?7?7?7?6@
CONST	SEGMENT
??_C@_0BO@IAAADDMF@?$CD?5Pedals?7?7?7?7?7?7?7?7?7?7?7?7?7?7?7?7?7?7?7?7?6@ DB '#'
	DB	' Pedals', 09H, 09H, 09H, 09H, 09H, 09H, 09H, 09H, 09H, 09H, 09H
	DB	09H, 09H, 09H, 09H, 09H, 09H, 09H, 09H, 09H, 0aH, 00H ; `string'
CONST	ENDS
;	COMDAT ??_C@_0EA@FOFEGDHJ@collective_backward?7?7?7MINUS?7?7MO@
CONST	SEGMENT
??_C@_0EA@FOFEGDHJ@collective_backward?7?7?7MINUS?7?7MO@ DB 'collective_b'
	DB	'ackward', 09H, 09H, 09H, 'MINUS', 09H, 09H, 'MODIFIER_NONE', 09H
	DB	09H, 'KEY_STATE_EITHER', 09H, 09H, 0aH, 00H	; `string'
CONST	ENDS
;	COMDAT ??_C@_0EB@GBLHHMMI@collective_forward?7?7?7EQUALS?7?7MO@
CONST	SEGMENT
??_C@_0EB@GBLHHMMI@collective_forward?7?7?7EQUALS?7?7MO@ DB 'collective_f'
	DB	'orward', 09H, 09H, 09H, 'EQUALS', 09H, 09H, 'MODIFIER_NONE', 09H
	DB	09H, 'KEY_STATE_EITHER', 09H, 09H, 09H, 0aH, 00H ; `string'
CONST	ENDS
;	COMDAT ??_C@_0DN@JJKHKOL@collective_backward?7?7?7A?7?7MODIFI@
CONST	SEGMENT
??_C@_0DN@JJKHKOL@collective_backward?7?7?7A?7?7MODIFI@ DB 'collective_ba'
	DB	'ckward', 09H, 09H, 09H, 'A', 09H, 09H, 'MODIFIER_NONE', 09H, 09H
	DB	'KEY_STATE_EITHER', 09H, 09H, 09H, 0aH, 00H	; `string'
CONST	ENDS
;	COMDAT ??_C@_0DN@JJHECPM@collective_forward?7?7?7Q?7?7MODIFIE@
CONST	SEGMENT
??_C@_0DN@JJHECPM@collective_forward?7?7?7Q?7?7MODIFIE@ DB 'collective_fo'
	DB	'rward', 09H, 09H, 09H, 'Q', 09H, 09H, 'MODIFIER_NONE', 09H, 09H
	DB	'KEY_STATE_EITHER', 09H, 09H, 09H, 09H, 0aH, 00H ; `string'
CONST	ENDS
;	COMDAT ??_C@_0CB@JNHIPKAI@?$CD?5Collective?7?7?7?7?7?7?7?7?7?7?7?7?7?7?7?7?7?7?7@
CONST	SEGMENT
??_C@_0CB@JNHIPKAI@?$CD?5Collective?7?7?7?7?7?7?7?7?7?7?7?7?7?7?7?7?7?7?7@ DB '#'
	DB	' Collective', 09H, 09H, 09H, 09H, 09H, 09H, 09H, 09H, 09H, 09H
	DB	09H, 09H, 09H, 09H, 09H, 09H, 09H, 09H, 09H, 0aH, 00H ; `string'
CONST	ENDS
;	COMDAT ??_C@_0DM@HIBBLPEN@cyclic_backward?7?7?7?7DOWN?7?7MODIFI@
CONST	SEGMENT
??_C@_0DM@HIBBLPEN@cyclic_backward?7?7?7?7DOWN?7?7MODIFI@ DB 'cyclic_back'
	DB	'ward', 09H, 09H, 09H, 09H, 'DOWN', 09H, 09H, 'MODIFIER_NONE', 09H
	DB	09H, 'KEY_STATE_EITHER', 09H, 09H, 0aH, 00H	; `string'
CONST	ENDS
;	COMDAT ??_C@_0DL@EEAJJELA@cyclic_forward?7?7?7?7UP?7?7MODIFIER_@
CONST	SEGMENT
??_C@_0DL@EEAJJELA@cyclic_forward?7?7?7?7UP?7?7MODIFIER_@ DB 'cyclic_forw'
	DB	'ard', 09H, 09H, 09H, 09H, 'UP', 09H, 09H, 'MODIFIER_NONE', 09H
	DB	09H, 'KEY_STATE_EITHER', 09H, 09H, 09H, 09H, 0aH, 00H ; `string'
CONST	ENDS
;	COMDAT ??_C@_0DL@LOJHNAEO@cyclic_right?7?7?7?7RIGHT?7?7MODIFIER@
CONST	SEGMENT
??_C@_0DL@LOJHNAEO@cyclic_right?7?7?7?7RIGHT?7?7MODIFIER@ DB 'cyclic_righ'
	DB	't', 09H, 09H, 09H, 09H, 'RIGHT', 09H, 09H, 'MODIFIER_NONE', 09H
	DB	09H, 'KEY_STATE_EITHER', 09H, 09H, 09H, 0aH, 00H ; `string'
CONST	ENDS
;	COMDAT ??_C@_0DJ@KPBJEIOM@cyclic_left?7?7?7?7LEFT?7?7MODIFIER_N@
CONST	SEGMENT
??_C@_0DJ@KPBJEIOM@cyclic_left?7?7?7?7LEFT?7?7MODIFIER_N@ DB 'cyclic_left'
	DB	09H, 09H, 09H, 09H, 'LEFT', 09H, 09H, 'MODIFIER_NONE', 09H, 09H
	DB	'KEY_STATE_EITHER', 09H, 09H, 09H, 0aH, 00H	; `string'
CONST	ENDS
;	COMDAT ??_C@_0BO@CHJJLMPI@?$CD?5Cyclic?7?7?7?7?7?7?7?7?7?7?7?7?7?7?7?7?7?7?7?7?6@
CONST	SEGMENT
??_C@_0BO@CHJJLMPI@?$CD?5Cyclic?7?7?7?7?7?7?7?7?7?7?7?7?7?7?7?7?7?7?7?7?6@ DB '#'
	DB	' Cyclic', 09H, 09H, 09H, 09H, 09H, 09H, 09H, 09H, 09H, 09H, 09H
	DB	09H, 09H, 09H, 09H, 09H, 09H, 09H, 09H, 09H, 0aH, 00H ; `string'
CONST	ENDS
;	COMDAT ??_C@_0EM@OHOAAJEB@display_last_received_message?7?7@
CONST	SEGMENT
??_C@_0EM@OHOAAJEB@display_last_received_message?7?7@ DB 'display_last_re'
	DB	'ceived_message', 09H, 09H, 'TAB', 09H, 09H, 'MODIFIER_LEFT_CO'
	DB	'NTROL', 09H, 'KEY_STATE_DOWN', 09H, 09H, 0aH, 00H ; `string'
CONST	ENDS
;	COMDAT ??_C@_0CJ@PPBHJHAA@?$CD?5Displays?5last?5message?7?7?7?7?7?7?7?7@
CONST	SEGMENT
??_C@_0CJ@PPBHJHAA@?$CD?5Displays?5last?5message?7?7?7?7?7?7?7?7@ DB '# D'
	DB	'isplays last message', 09H, 09H, 09H, 09H, 09H, 09H, 09H, 09H
	DB	09H, 09H, 09H, 09H, 09H, 09H, 09H, 09H, 0aH, 00H ; `string'
CONST	ENDS
;	COMDAT ??_C@_0EB@IDOIGOCN@start_messaging_system?7?7?7TAB?7?7M@
CONST	SEGMENT
??_C@_0EB@IDOIGOCN@start_messaging_system?7?7?7TAB?7?7M@ DB 'start_messag'
	DB	'ing_system', 09H, 09H, 09H, 'TAB', 09H, 09H, 'MODIFIER_NONE', 09H
	DB	09H, 'KEY_STATE_DOWN', 09H, 09H, 09H, 09H, 0aH, 00H ; `string'
CONST	ENDS
;	COMDAT ??_C@_0CN@PGOFIJCI@?$CD?5Opens?5communication?5screen?7?7?7@
CONST	SEGMENT
??_C@_0CN@PGOFIJCI@?$CD?5Opens?5communication?5screen?7?7?7@ DB '# Opens '
	DB	'communication screen', 09H, 09H, 09H, 09H, 09H, 09H, 09H, 09H
	DB	09H, 09H, 09H, 09H, 09H, 09H, 09H, 0aH, 00H	; `string'
CONST	ENDS
;	COMDAT ??_C@_0EC@GPFPBFBF@save_screen_image_event?7?7?7SYSRQ@
CONST	SEGMENT
??_C@_0EC@GPFPBFBF@save_screen_image_event?7?7?7SYSRQ@ DB 'save_screen_im'
	DB	'age_event', 09H, 09H, 09H, 'SYSRQ', 09H, 09H, 'MODIFIER_NONE', 09H
	DB	09H, 'KEY_STATE_DOWN', 09H, 09H, 0aH, 00H	; `string'
CONST	ENDS
;	COMDAT ??_C@_0CF@BEFFHOAL@?$CD?5Take?5screenshow?7?7?7?7?7?7?7?7?7?7?7?7?7?7@
CONST	SEGMENT
??_C@_0CF@BEFFHOAL@?$CD?5Take?5screenshow?7?7?7?7?7?7?7?7?7?7?7?7?7?7@ DB '#'
	DB	' Take screenshow', 09H, 09H, 09H, 09H, 09H, 09H, 09H, 09H, 09H
	DB	09H, 09H, 09H, 09H, 09H, 09H, 09H, 09H, 09H, 0aH, 00H ; `string'
CONST	ENDS
;	COMDAT ??_C@_0EF@PMBNGKFP@toggle_pause_time_acceleration?7@
CONST	SEGMENT
??_C@_0EF@PMBNGKFP@toggle_pause_time_acceleration?7@ DB 'toggle_pause_tim'
	DB	'e_acceleration', 09H, 09H, 'P', 09H, 09H, 'MODIFIER_NONE', 09H
	DB	09H, 'KEY_STATE_DOWN', 09H, 09H, 09H, 0aH, 00H ; `string'
CONST	ENDS
;	COMDAT ??_C@_0CD@FEMDHPOL@?$CD?5Toggle?5Pause?7?7?7?7?7?7?7?7?7?7?7?7?7?7?7?7?7@
CONST	SEGMENT
??_C@_0CD@FEMDHPOL@?$CD?5Toggle?5Pause?7?7?7?7?7?7?7?7?7?7?7?7?7?7?7?7?7@ DB '#'
	DB	' Toggle Pause', 09H, 09H, 09H, 09H, 09H, 09H, 09H, 09H, 09H, 09H
	DB	09H, 09H, 09H, 09H, 09H, 09H, 09H, 09H, 09H, 0aH, 00H ; `string'
CONST	ENDS
;	COMDAT ??_C@_0FD@ONJNBDPD@set_small_dec_time_acceleration@
CONST	SEGMENT
??_C@_0FD@ONJNBDPD@set_small_dec_time_acceleration@ DB 'set_small_dec_tim'
	DB	'e_acceleration', 09H, 09H, 'NUMPADMINUS', 09H, 'MODIFIER_LEFT'
	DB	'_CONTROL', 09H, 'KEY_STATE_DOWN', 0aH, 00H	; `string'
CONST	ENDS
;	COMDAT ??_C@_0FC@CBIPHJKI@set_small_inc_time_acceleration@
CONST	SEGMENT
??_C@_0FC@CBIPHJKI@set_small_inc_time_acceleration@ DB 'set_small_inc_tim'
	DB	'e_acceleration', 09H, 09H, 'NUMPADPLUS', 09H, 'MODIFIER_LEFT_'
	DB	'CONTROL', 09H, 'KEY_STATE_DOWN', 0aH, 00H	; `string'
CONST	ENDS
;	COMDAT ??_C@_0EO@DEDJKPKE@set_small_dec_time_acceleration@
CONST	SEGMENT
??_C@_0EO@DEDJKPKE@set_small_dec_time_acceleration@ DB 'set_small_dec_tim'
	DB	'e_acceleration', 09H, 09H, 'MINUS', 09H, 09H, 'MODIFIER_LEFT_'
	DB	'CONTROL', 09H, 'KEY_STATE_DOWN', 0aH, 00H	; `string'
CONST	ENDS
;	COMDAT ??_C@_0EP@MDFLNMIF@set_small_inc_time_acceleration@
CONST	SEGMENT
??_C@_0EP@MDFLNMIF@set_small_inc_time_acceleration@ DB 'set_small_inc_tim'
	DB	'e_acceleration', 09H, 09H, 'EQUALS', 09H, 09H, 'MODIFIER_LEFT'
	DB	'_CONTROL', 09H, 'KEY_STATE_DOWN', 0aH, 00H	; `string'
CONST	ENDS
;	COMDAT ??_C@_0CG@NLLFKAOI@?$CD?5Time?5acceleration?7?7?7?7?7?7?7?7?7?7?7?7@
CONST	SEGMENT
??_C@_0CG@NLLFKAOI@?$CD?5Time?5acceleration?7?7?7?7?7?7?7?7?7?7?7?7@ DB '#'
	DB	' Time acceleration', 09H, 09H, 09H, 09H, 09H, 09H, 09H, 09H, 09H
	DB	09H, 09H, 09H, 09H, 09H, 09H, 09H, 09H, 0aH, 00H ; `string'
CONST	ENDS
;	COMDAT ??_C@_0EO@NCBJKGDC@set_gunship_entity_to_external_@
CONST	SEGMENT
??_C@_0EO@NCBJKGDC@set_gunship_entity_to_external_@ DB 'set_gunship_entit'
	DB	'y_to_external_view_entity', 09H, 'U', 09H, 'MODIFIER_NONE', 09H
	DB	09H, 'KEY_STATE_DOWN', 09H, 09H, 0aH, 00H	; `string'
CONST	ENDS
;	COMDAT ??_C@_0DC@EJGHKGOC@?$CD?5Take?5control?5of?5displayed?5gun@
CONST	SEGMENT
??_C@_0DC@EJGHKGOC@?$CD?5Take?5control?5of?5displayed?5gun@ DB '# Take co'
	DB	'ntrol of displayed gunship', 09H, 09H, 09H, 09H, 09H, 09H, 09H
	DB	09H, 09H, 09H, 09H, 09H, 09H, 0aH, 00H	; `string'
CONST	ENDS
;	COMDAT ??_C@_0FG@CAPKNPNJ@campaign_screen_show_external_v@
CONST	SEGMENT
??_C@_0FG@CAPKNPNJ@campaign_screen_show_external_v@ DB 'campaign_screen_s'
	DB	'how_external_view_entity', 09H, 'RETURN', 09H, 'MODIFIER_LEFT'
	DB	'_SHIFT', 09H, 'KEY_STATE_DOWN', 09H, 0aH, 00H ; `string'
CONST	ENDS
;	COMDAT ??_C@_0EG@FFIEBOEO@toggle_in_flight_game_modes?7?7RE@
CONST	SEGMENT
??_C@_0EG@FFIEBOEO@toggle_in_flight_game_modes?7?7RE@ DB 'toggle_in_fligh'
	DB	't_game_modes', 09H, 09H, 'RETURN', 09H, 09H, 'MODIFIER_NONE', 09H
	DB	09H, 'KEY_STATE_DOWN', 09H, 09H, 0aH, 00H	; `string'
CONST	ENDS
;	COMDAT ??_C@_0CJ@OLIKNMJO@?$CD?5Toggles?52d?13d?5screen?7?7?7?7?7?7?7?7?7@
CONST	SEGMENT
??_C@_0CJ@OLIKNMJO@?$CD?5Toggles?52d?13d?5screen?7?7?7?7?7?7?7?7?7@ DB '#'
	DB	' Toggles 2d/3d screen', 09H, 09H, 09H, 09H, 09H, 09H, 09H, 09H
	DB	09H, 09H, 09H, 09H, 09H, 09H, 09H, 09H, 09H, 0aH, 00H ; `string'
CONST	ENDS
;	COMDAT ??_C@_0EB@FCOHCAAK@ingame_quit_function?7?7?7Q?7?7MODIF@
CONST	SEGMENT
??_C@_0EB@FCOHCAAK@ingame_quit_function?7?7?7Q?7?7MODIF@ DB 'ingame_quit_'
	DB	'function', 09H, 09H, 09H, 'Q', 09H, 09H, 'MODIFIER_LEFT_CONTR'
	DB	'OL', 09H, 'KEY_STATE_UP', 09H, 09H, 09H, 0aH, 00H ; `string'
CONST	ENDS
;	COMDAT ??_C@_0CD@GGGPKPIF@?$CD?5Quit?5mission?7?7?7?7?7?7?7?7?7?7?7?7?7?7?7?7?7@
CONST	SEGMENT
??_C@_0CD@GGGPKPIF@?$CD?5Quit?5mission?7?7?7?7?7?7?7?7?7?7?7?7?7?7?7?7?7@ DB '#'
	DB	' Quit mission', 09H, 09H, 09H, 09H, 09H, 09H, 09H, 09H, 09H, 09H
	DB	09H, 09H, 09H, 09H, 09H, 09H, 09H, 09H, 09H, 0aH, 00H ; `string'
CONST	ENDS
;	COMDAT ??_C@_0DP@MHHGDOAD@exit_apache_havoc?7?7?7X?7?7MODIFIER@
CONST	SEGMENT
??_C@_0DP@MHHGDOAD@exit_apache_havoc?7?7?7X?7?7MODIFIER@ DB 'exit_apache_'
	DB	'havoc', 09H, 09H, 09H, 'X', 09H, 09H, 'MODIFIER_LEFT_CONTROL', 09H
	DB	'KEY_STATE_UP', 09H, 09H, 09H, 09H, 0aH, 00H	; `string'
CONST	ENDS
;	COMDAT ??_C@_0CA@KGFKBNME@?$CD?5Exit?5game?7?7?7?7?7?7?7?7?7?7?7?7?7?7?7?7?7?7?7?6@
CONST	SEGMENT
??_C@_0CA@KGFKBNME@?$CD?5Exit?5game?7?7?7?7?7?7?7?7?7?7?7?7?7?7?7?7?7?7?7?6@ DB '#'
	DB	' Exit game', 09H, 09H, 09H, 09H, 09H, 09H, 09H, 09H, 09H, 09H
	DB	09H, 09H, 09H, 09H, 09H, 09H, 09H, 09H, 09H, 0aH, 00H ; `string'
CONST	ENDS
;	COMDAT ??_C@_0EJ@ILFEFMGE@toggle_rhs_mfd_on_off?7?7?7RBRACKE@
CONST	SEGMENT
??_C@_0EJ@ILFEFMGE@toggle_rhs_mfd_on_off?7?7?7RBRACKE@ DB 'toggle_rhs_mfd'
	DB	'_on_off', 09H, 09H, 09H, 'RBRACKET', 09H, 'MODIFIER_LEFT_CONT'
	DB	'ROL', 09H, 'KEY_STATE_DOWN', 09H, 09H, 0aH, 00H ; `string'
CONST	ENDS
;	COMDAT ??_C@_0EJ@OKFNPMAC@select_previous_rhs_mfd?7?7?7RBRAC@
CONST	SEGMENT
??_C@_0EJ@OKFNPMAC@select_previous_rhs_mfd?7?7?7RBRAC@ DB 'select_previou'
	DB	's_rhs_mfd', 09H, 09H, 09H, 'RBRACKET', 09H, 'MODIFIER_LEFT_SH'
	DB	'IFT', 09H, 'KEY_STATE_DOWN', 09H, 09H, 0aH, 00H ; `string'
CONST	ENDS
;	COMDAT ??_C@_0EB@KDENKABI@select_next_rhs_mfd?7?7?7RBRACKET?7@
CONST	SEGMENT
??_C@_0EB@KDENKABI@select_next_rhs_mfd?7?7?7RBRACKET?7@ DB 'select_next_r'
	DB	'hs_mfd', 09H, 09H, 09H, 'RBRACKET', 09H, 'MODIFIER_NONE', 09H
	DB	09H, 'KEY_STATE_DOWN', 09H, 09H, 09H, 0aH, 00H ; `string'
CONST	ENDS
;	COMDAT ??_C@_0EK@JKIIFEFB@toggle_rhs_side_mfd_on_off?7?7RBR@
CONST	SEGMENT
??_C@_0EK@JKIIFEFB@toggle_rhs_side_mfd_on_off?7?7RBR@ DB 'toggle_rhs_side'
	DB	'_mfd_on_off', 09H, 09H, 'RBRACKET', 09H, 'MODIFIER_LEFT_ALT', 09H
	DB	'KEY_STATE_DOWN', 09H, 09H, 09H, 0aH, 00H	; `string'
CONST	ENDS
;	COMDAT ??_C@_0EK@IIKFEOGE@toggle_rhs_main_mfd_on?7?7?7RBRACK@
CONST	SEGMENT
??_C@_0EK@IIKFEOGE@toggle_rhs_main_mfd_on?7?7?7RBRACK@ DB 'toggle_rhs_mai'
	DB	'n_mfd_on', 09H, 09H, 09H, 'RBRACKET', 09H, 'MODIFIER_LEFT_CON'
	DB	'TROL', 09H, 'KEY_STATE_DOWN', 09H, 09H, 0aH, 00H ; `string'
CONST	ENDS
;	COMDAT ??_C@_0EK@DPCPEPDH@select_previous_rhs_main?7?7RBRAC@
CONST	SEGMENT
??_C@_0EK@DPCPEPDH@select_previous_rhs_main?7?7RBRAC@ DB 'select_previous'
	DB	'_rhs_main', 09H, 09H, 'RBRACKET', 09H, 'MODIFIER_LEFT_SHIFT', 09H
	DB	'KEY_STATE_DOWN', 09H, 09H, 09H, 0aH, 00H	; `string'
CONST	ENDS
;	COMDAT ??_C@_0EF@DMCEFFCC@select_next_rhs_main_mfd?7?7RBRAC@
CONST	SEGMENT
??_C@_0EF@DMCEFFCC@select_next_rhs_main_mfd?7?7RBRAC@ DB 'select_next_rhs'
	DB	'_main_mfd', 09H, 09H, 'RBRACKET', 09H, 'MODIFIER_NONE', 09H, 09H
	DB	'KEY_STATE_DOWN', 09H, 09H, 09H, 0aH, 00H	; `string'
CONST	ENDS
;	COMDAT ??_C@_0EN@OEOPAGEG@toggle_lhs_main_mfd_on_off?7?7LBR@
CONST	SEGMENT
??_C@_0EN@OEOPAGEG@toggle_lhs_main_mfd_on_off?7?7LBR@ DB 'toggle_lhs_main'
	DB	'_mfd_on_off', 09H, 09H, 'LBRACKET', 09H, 'MODIFIER_LEFT_CONTR'
	DB	'OL', 09H, 'KEY_STATE_DOWN', 09H, 09H, 0aH, 00H ; `string'
CONST	ENDS
;	COMDAT ??_C@_0EN@COCCNPI@select_previous_lhs_main_mfd?7?7L@
CONST	SEGMENT
??_C@_0EN@COCCNPI@select_previous_lhs_main_mfd?7?7L@ DB 'select_previous_'
	DB	'lhs_main_mfd', 09H, 09H, 'LBRACKET', 09H, 'MODIFIER_LEFT_SHIF'
	DB	'T', 09H, 'KEY_STATE_DOWN', 09H, 09H, 0aH, 00H ; `string'
CONST	ENDS
;	COMDAT ??_C@_0EF@ENFMPMCN@select_next_lhs_main_mfd?7?7LBRAC@
CONST	SEGMENT
??_C@_0EF@ENFMPMCN@select_next_lhs_main_mfd?7?7LBRAC@ DB 'select_next_lhs'
	DB	'_main_mfd', 09H, 09H, 'LBRACKET', 09H, 'MODIFIER_NONE', 09H, 09H
	DB	'KEY_STATE_DOWN', 09H, 09H, 09H, 0aH, 00H	; `string'
CONST	ENDS
;	COMDAT ??_C@_0EK@JNDHBIN@toggle_lhs_side_mfd_on_off?7?7LBR@
CONST	SEGMENT
??_C@_0EK@JNDHBIN@toggle_lhs_side_mfd_on_off?7?7LBR@ DB 'toggle_lhs_side_'
	DB	'mfd_on_off', 09H, 09H, 'LBRACKET', 09H, 'MODIFIER_LEFT_ALT', 09H
	DB	'KEY_STATE_DOWN', 09H, 09H, 09H, 0aH, 00H	; `string'
CONST	ENDS
;	COMDAT ??_C@_0EJ@CPFIENKB@toggle_lhs_mfd_on_off?7?7?7LBRACKE@
CONST	SEGMENT
??_C@_0EJ@CPFIENKB@toggle_lhs_mfd_on_off?7?7?7LBRACKE@ DB 'toggle_lhs_mfd'
	DB	'_on_off', 09H, 09H, 09H, 'LBRACKET', 09H, 'MODIFIER_LEFT_CONT'
	DB	'ROL', 09H, 'KEY_STATE_DOWN', 09H, 09H, 0aH, 00H ; `string'
CONST	ENDS
;	COMDAT ??_C@_0EJ@FNEBGBNL@select_previous_lhs_mfd?7?7?7LBRAC@
CONST	SEGMENT
??_C@_0EJ@FNEBGBNL@select_previous_lhs_mfd?7?7?7LBRAC@ DB 'select_previou'
	DB	's_lhs_mfd', 09H, 09H, 09H, 'LBRACKET', 09H, 'MODIFIER_LEFT_SH'
	DB	'IFT', 09H, 'KEY_STATE_DOWN', 09H, 09H, 0aH, 00H ; `string'
CONST	ENDS
;	COMDAT ??_C@_0EB@IILGDDH@select_next_lhs_mfd?7?7?7LBRACKET?7@
CONST	SEGMENT
??_C@_0EB@IILGDDH@select_next_lhs_mfd?7?7?7LBRACKET?7@ DB 'select_next_lh'
	DB	's_mfd', 09H, 09H, 09H, 'LBRACKET', 09H, 'MODIFIER_NONE', 09H, 09H
	DB	'KEY_STATE_DOWN', 09H, 09H, 09H, 0aH, 00H	; `string'
CONST	ENDS
;	COMDAT ??_C@_0FA@HDJOOCMJ@target_acquisition_system_misc_@
CONST	SEGMENT
??_C@_0FA@HDJOOCMJ@target_acquisition_system_misc_@ DB 'target_acquisitio'
	DB	'n_system_misc_function2', 09H, 'DIVIDE', 09H, 09H, 'MODIFIER_'
	DB	'NONE', 09H, 'KEY_STATE_DOWN', 09H, 0aH, 00H	; `string'
CONST	ENDS
;	COMDAT ??_C@_0FB@DMCPPFKE@target_acquisition_system_misc_@
CONST	SEGMENT
??_C@_0FB@DMCPPFKE@target_acquisition_system_misc_@ DB 'target_acquisitio'
	DB	'n_system_misc_function1', 09H, 'MULTIPLY', 09H, 'MODIFIER_NON'
	DB	'E', 09H, 'KEY_STATE_DOWN', 09H, 0aH, 00H	; `string'
CONST	ENDS
;	COMDAT ??_C@_0EJ@NHNKKAAO@toggle_lock_target?7?7?7NUMPADENTE@
CONST	SEGMENT
??_C@_0EJ@NHNKKAAO@toggle_lock_target?7?7?7NUMPADENTE@ DB 'toggle_lock_ta'
	DB	'rget', 09H, 09H, 09H, 'NUMPADENTER', 09H, 'MODIFIER_LEFT_SHIF'
	DB	'T', 09H, 'KEY_STATE_DOWN', 09H, 09H, 09H, 09H, 0aH, 00H ; `string'
CONST	ENDS
;	COMDAT ??_C@_0EH@BBDOFIEC@toggle_lock_target?7?7?7NUMPADENTE@
CONST	SEGMENT
??_C@_0EH@BBDOFIEC@toggle_lock_target?7?7?7NUMPADENTE@ DB 'toggle_lock_ta'
	DB	'rget', 09H, 09H, 09H, 'NUMPADENTER', 09H, 'MODIFIER_LEFT_ALT', 09H
	DB	'KEY_STATE_DOWN', 09H, 09H, 09H, 09H, 0aH, 00H ; `string'
CONST	ENDS
;	COMDAT ??_C@_0EE@LCGDKDEG@toggle_lock_target?7?7?7NUMPADENTE@
CONST	SEGMENT
??_C@_0EE@LCGDKDEG@toggle_lock_target?7?7?7NUMPADENTE@ DB 'toggle_lock_ta'
	DB	'rget', 09H, 09H, 09H, 'NUMPADENTER', 09H, 'MODIFIER_NONE', 09H
	DB	09H, 'KEY_STATE_DOWN', 09H, 09H, 09H, 09H, 0aH, 00H ; `string'
CONST	ENDS
;	COMDAT ??_C@_0EB@LLJGEHAN@toggle_auto_target?7?7?7NUMPAD1?7?7M@
CONST	SEGMENT
??_C@_0EB@LLJGEHAN@toggle_auto_target?7?7?7NUMPAD1?7?7M@ DB 'toggle_auto_'
	DB	'target', 09H, 09H, 09H, 'NUMPAD1', 09H, 09H, 'MODIFIER_NONE', 09H
	DB	09H, 'KEY_STATE_DOWN', 09H, 09H, 09H, 09H, 0aH, 00H ; `string'
CONST	ENDS
;	COMDAT ??_C@_0EJ@OMKAAFN@select_previous_target?7?7?7NUMPAD@
CONST	SEGMENT
??_C@_0EJ@OMKAAFN@select_previous_target?7?7?7NUMPAD@ DB 'select_previous'
	DB	'_target', 09H, 09H, 09H, 'NUMPAD0', 09H, 09H, 'MODIFIER_LEFT_'
	DB	'SHIFT', 09H, 'KEY_STATE_DOWN', 09H, 09H, 09H, 0aH, 00H ; `string'
CONST	ENDS
;	COMDAT ??_C@_0EB@NHGAAKHK@select_next_target?7?7?7NUMPAD0?7?7M@
CONST	SEGMENT
??_C@_0EB@NHGAAKHK@select_next_target?7?7?7NUMPAD0?7?7M@ DB 'select_next_'
	DB	'target', 09H, 09H, 09H, 'NUMPAD0', 09H, 09H, 'MODIFIER_NONE', 09H
	DB	09H, 'KEY_STATE_DOWN', 09H, 09H, 09H, 09H, 0aH, 00H ; `string'
CONST	ENDS
;	COMDAT ??_C@_0EK@OJNBKPLM@dec_target_priority_fast?7?7NUMPA@
CONST	SEGMENT
??_C@_0EK@OJNBKPLM@dec_target_priority_fast?7?7NUMPA@ DB 'dec_target_prio'
	DB	'rity_fast', 09H, 09H, 'NUMPAD3', 09H, 09H, 'MODIFIER_LEFT_SHI'
	DB	'FT', 09H, 'KEY_STATE_DOWN', 09H, 09H, 09H, 0aH, 00H ; `string'
CONST	ENDS
;	COMDAT ??_C@_0EC@JFKFCJAC@vdec_target_priority?7?7?7NUMPAD3?7@
CONST	SEGMENT
??_C@_0EC@JFKFCJAC@vdec_target_priority?7?7?7NUMPAD3?7@ DB 'vdec_target_p'
	DB	'riority', 09H, 09H, 09H, 'NUMPAD3', 09H, 09H, 'MODIFIER_NONE', 09H
	DB	09H, 'KEY_STATE_DOWN', 09H, 09H, 09H, 0aH, 00H ; `string'
CONST	ENDS
;	COMDAT ??_C@_0EK@PCOCPENI@inc_target_priority_fast?7?7NUMPA@
CONST	SEGMENT
??_C@_0EK@PCOCPENI@inc_target_priority_fast?7?7NUMPA@ DB 'inc_target_prio'
	DB	'rity_fast', 09H, 09H, 'NUMPAD9', 09H, 09H, 'MODIFIER_LEFT_SHI'
	DB	'FT', 09H, 'KEY_STATE_DOWN', 09H, 09H, 09H, 0aH, 00H ; `string'
CONST	ENDS
;	COMDAT ??_C@_0EB@CEGHLGEK@inc_target_priority?7?7?7NUMPAD9?7?7@
CONST	SEGMENT
??_C@_0EB@CEGHLGEK@inc_target_priority?7?7?7NUMPAD9?7?7@ DB 'inc_target_p'
	DB	'riority', 09H, 09H, 09H, 'NUMPAD9', 09H, 09H, 'MODIFIER_NONE', 09H
	DB	09H, 'KEY_STATE_DOWN', 09H, 09H, 09H, 0aH, 00H ; `string'
CONST	ENDS
;	COMDAT ??_C@_0EH@BNDFOONG@toggle_show_allied_targets?7?7NUM@
CONST	SEGMENT
??_C@_0EH@BNDFOONG@toggle_show_allied_targets?7?7NUM@ DB 'toggle_show_all'
	DB	'ied_targets', 09H, 09H, 'NUMPAD7', 09H, 09H, 'MODIFIER_NONE', 09H
	DB	09H, 'KEY_STATE_DOWN', 09H, 09H, 09H, 0aH, 00H ; `string'
CONST	ENDS
;	COMDAT ??_C@_0EB@HOOCEPMJ@steer_centre?7?7?7?7NUMPAD5?7?7MODIFI@
CONST	SEGMENT
??_C@_0EB@HOOCEPMJ@steer_centre?7?7?7?7NUMPAD5?7?7MODIFI@ DB 'steer_centr'
	DB	'e', 09H, 09H, 09H, 09H, 'NUMPAD5', 09H, 09H, 'MODIFIER_LEFT_S'
	DB	'HIFT', 09H, 'KEY_STATE_DOWN', 09H, 09H, 09H, 09H, 0aH, 00H ; `string'
CONST	ENDS
;	COMDAT ??_C@_0DM@LBKIAMOE@steer_centre?7?7?7?7NUMPAD5?7?7MODIFI@
CONST	SEGMENT
??_C@_0DM@LBKIAMOE@steer_centre?7?7?7?7NUMPAD5?7?7MODIFI@ DB 'steer_centr'
	DB	'e', 09H, 09H, 09H, 09H, 'NUMPAD5', 09H, 09H, 'MODIFIER_NONE', 09H
	DB	09H, 'KEY_STATE_DOWN', 09H, 09H, 09H, 09H, 0aH, 00H ; `string'
CONST	ENDS
;	COMDAT ??_C@_0ED@JPAFDGGO@dec_range_fast?7?7?7?7SUBTRACT?7MODI@
CONST	SEGMENT
??_C@_0ED@JPAFDGGO@dec_range_fast?7?7?7?7SUBTRACT?7MODI@ DB 'dec_range_fa'
	DB	'st', 09H, 09H, 09H, 09H, 'SUBTRACT', 09H, 'MODIFIER_LEFT_SHIF'
	DB	'T', 09H, 'KEY_STATE_DOWN', 09H, 09H, 09H, 09H, 0aH, 00H ; `string'
CONST	ENDS
;	COMDAT ??_C@_0DK@BIMBDFDK@dec_range?7?7?7?7SUBTRACT?7MODIFIER_@
CONST	SEGMENT
??_C@_0DK@BIMBDFDK@dec_range?7?7?7?7SUBTRACT?7MODIFIER_@ DB 'dec_range', 09H
	DB	09H, 09H, 09H, 'SUBTRACT', 09H, 'MODIFIER_NONE', 09H, 09H, 'KE'
	DB	'Y_STATE_DOWN', 09H, 09H, 09H, 09H, 09H, 0aH, 00H ; `string'
CONST	ENDS
;	COMDAT ??_C@_0EA@PPJGDOHA@inc_range_fast?7?7?7?7ADD?7?7MODIFIER@
CONST	SEGMENT
??_C@_0EA@PPJGDOHA@inc_range_fast?7?7?7?7ADD?7?7MODIFIER@ DB 'inc_range_f'
	DB	'ast', 09H, 09H, 09H, 09H, 'ADD', 09H, 09H, 'MODIFIER_LEFT_SHI'
	DB	'FT', 09H, 'KEY_STATE_DOWN', 09H, 09H, 09H, 09H, 09H, 0aH, 00H ; `string'
CONST	ENDS
;	COMDAT ??_C@_0DH@PAJHBDGK@inc_range?7?7?7?7ADD?7?7MODIFIER_NONE@
CONST	SEGMENT
??_C@_0DH@PAJHBDGK@inc_range?7?7?7?7ADD?7?7MODIFIER_NONE@ DB 'inc_range', 09H
	DB	09H, 09H, 09H, 'ADD', 09H, 09H, 'MODIFIER_NONE', 09H, 09H, 'KE'
	DB	'Y_STATE_DOWN', 09H, 09H, 09H, 09H, 09H, 09H, 0aH, 00H ; `string'
CONST	ENDS
;	COMDAT ??_C@_0EC@NLIAEILC@steer_down_fine?7?7?7?7NUMPAD2?7?7MOD@
CONST	SEGMENT
??_C@_0EC@NLIAEILC@steer_down_fine?7?7?7?7NUMPAD2?7?7MOD@ DB 'steer_down_'
	DB	'fine', 09H, 09H, 09H, 09H, 'NUMPAD2', 09H, 09H, 'MODIFIER_LEF'
	DB	'T_ALT', 09H, 'KEY_STATE_EITHER', 09H, 09H, 0aH, 00H ; `string'
CONST	ENDS
;	COMDAT ??_C@_0EE@PHEMNHLP@steer_down_fast?7?7?7?7NUMPAD2?7?7MOD@
CONST	SEGMENT
??_C@_0EE@PHEMNHLP@steer_down_fast?7?7?7?7NUMPAD2?7?7MOD@ DB 'steer_down_'
	DB	'fast', 09H, 09H, 09H, 09H, 'NUMPAD2', 09H, 09H, 'MODIFIER_LEF'
	DB	'T_SHIFT', 09H, 'KEY_STATE_EITHER', 09H, 09H, 0aH, 00H ; `string'
CONST	ENDS
;	COMDAT ??_C@_0DM@DPDPKFDA@steer_down?7?7?7?7NUMPAD2?7?7MODIFIER@
CONST	SEGMENT
??_C@_0DM@DPDPKFDA@steer_down?7?7?7?7NUMPAD2?7?7MODIFIER@ DB 'steer_down', 09H
	DB	09H, 09H, 09H, 'NUMPAD2', 09H, 09H, 'MODIFIER_NONE', 09H, 09H, 'K'
	DB	'EY_STATE_EITHER', 09H, 09H, 09H, 09H, 0aH, 00H ; `string'
CONST	ENDS
;	COMDAT ??_C@_0EB@HPHLBBCF@steer_up_fine?7?7?7?7NUMPAD8?7?7MODIF@
CONST	SEGMENT
??_C@_0EB@HPHLBBCF@steer_up_fine?7?7?7?7NUMPAD8?7?7MODIF@ DB 'steer_up_fi'
	DB	'ne', 09H, 09H, 09H, 09H, 'NUMPAD8', 09H, 09H, 'MODIFIER_LEFT_'
	DB	'ALT', 09H, 'KEY_STATE_EITHER', 09H, 09H, 09H, 0aH, 00H ; `string'
CONST	ENDS
;	COMDAT ??_C@_0EE@FKNNKKCP@vsteer_up_fast?7?7?7?7NUMPAD8?7?7MODI@
CONST	SEGMENT
??_C@_0EE@FKNNKKCP@vsteer_up_fast?7?7?7?7NUMPAD8?7?7MODI@ DB 'vsteer_up_f'
	DB	'ast', 09H, 09H, 09H, 09H, 'NUMPAD8', 09H, 09H, 'MODIFIER_LEFT'
	DB	'_SHIFT', 09H, 'KEY_STATE_EITHER', 09H, 09H, 09H, 0aH, 00H ; `string'
CONST	ENDS
;	COMDAT ??_C@_0DK@LCBLEDDP@steer_up?7?7?7?7NUMPAD8?7?7MODIFIER_N@
CONST	SEGMENT
??_C@_0DK@LCBLEDDP@steer_up?7?7?7?7NUMPAD8?7?7MODIFIER_N@ DB 'steer_up', 09H
	DB	09H, 09H, 09H, 'NUMPAD8', 09H, 09H, 'MODIFIER_NONE', 09H, 09H, 'K'
	DB	'EY_STATE_EITHER', 09H, 09H, 09H, 09H, 0aH, 00H ; `string'
CONST	ENDS
;	COMDAT ??_C@_0ED@OFIPAOEB@steer_right_fine?7?7?7NUMPAD6?7?7MOD@
CONST	SEGMENT
??_C@_0ED@OFIPAOEB@steer_right_fine?7?7?7NUMPAD6?7?7MOD@ DB 'steer_right_'
	DB	'fine', 09H, 09H, 09H, 'NUMPAD6', 09H, 09H, 'MODIFIER_LEFT_ALT'
	DB	09H, 'KEY_STATE_EITHER', 09H, 09H, 09H, 0aH, 00H ; `string'
CONST	ENDS
;	COMDAT ??_C@_0EF@GCKPGACE@steer_right_fast?7?7?7NUMPAD6?7?7MOD@
CONST	SEGMENT
??_C@_0EF@GCKPGACE@steer_right_fast?7?7?7NUMPAD6?7?7MOD@ DB 'steer_right_'
	DB	'fast', 09H, 09H, 09H, 'NUMPAD6', 09H, 09H, 'MODIFIER_LEFT_SHI'
	DB	'FT', 09H, 'KEY_STATE_EITHER', 09H, 09H, 09H, 0aH, 00H ; `string'
CONST	ENDS
;	COMDAT ??_C@_0DM@MBAHHKGB@steer_right?7?7?7?7NUMPAD6?7?7MODIFIE@
CONST	SEGMENT
??_C@_0DM@MBAHHKGB@steer_right?7?7?7?7NUMPAD6?7?7MODIFIE@ DB 'steer_right'
	DB	09H, 09H, 09H, 09H, 'NUMPAD6', 09H, 09H, 'MODIFIER_NONE', 09H, 09H
	DB	'KEY_STATE_EITHER', 09H, 09H, 09H, 0aH, 00H	; `string'
CONST	ENDS
;	COMDAT ??_C@_0EC@JABPJGKO@steer_left_fine?7?7?7?7NUMPAD4?7?7MOD@
CONST	SEGMENT
??_C@_0EC@JABPJGKO@steer_left_fine?7?7?7?7NUMPAD4?7?7MOD@ DB 'steer_left_'
	DB	'fine', 09H, 09H, 09H, 09H, 'NUMPAD4', 09H, 09H, 'MODIFIER_LEF'
	DB	'T_ALT', 09H, 'KEY_STATE_EITHER', 09H, 09H, 0aH, 00H ; `string'
CONST	ENDS
;	COMDAT ??_C@_0EE@HAFADOKO@steer_left_fast?7?7?7?7NUMPAD4?7?7MOD@
CONST	SEGMENT
??_C@_0EE@HAFADOKO@steer_left_fast?7?7?7?7NUMPAD4?7?7MOD@ DB 'steer_left_'
	DB	'fast', 09H, 09H, 09H, 09H, 'NUMPAD4', 09H, 09H, 'MODIFIER_LEF'
	DB	'T_SHIFT', 09H, 'KEY_STATE_EITHER', 09H, 09H, 0aH, 00H ; `string'
CONST	ENDS
;	COMDAT ??_C@_0DM@CEPBCHEB@steer_left?7?7?7?7NUMPAD4?7?7MODIFIER@
CONST	SEGMENT
??_C@_0DM@CEPBCHEB@steer_left?7?7?7?7NUMPAD4?7?7MODIFIER@ DB 'steer_left', 09H
	DB	09H, 09H, 09H, 'NUMPAD4', 09H, 09H, 'MODIFIER_NONE', 09H, 09H, 'K'
	DB	'EY_STATE_EITHER', 09H, 09H, 09H, 09H, 0aH, 00H ; `string'
CONST	ENDS
;	COMDAT ??_C@_0EM@OBJEAOCO@select_target_acquisition_syste@
CONST	SEGMENT
??_C@_0EM@OBJEAOCO@select_target_acquisition_syste@ DB 'select_target_acq'
	DB	'uisition_system_hms', 09H, 09H, 'PRIOR', 09H, 'MODIFIER_NONE', 09H
	DB	09H, 'KEY_STATE_DOWN', 09H, 0aH, 00H		; `string'
CONST	ENDS
;	COMDAT ??_C@_0FA@GKAABDNK@select_target_acquisition_syste@
CONST	SEGMENT
??_C@_0FA@GKAABDNK@select_target_acquisition_syste@ DB 'select_target_acq'
	DB	'uisition_system_periscope', 09H, 'NEXT', 09H, 'MODIFIER_NONE', 09H
	DB	09H, 'KEY_STATE_DOWN', 09H, 0aH, 00H		; `string'
CONST	ENDS
;	COMDAT ??_C@_0EO@LOOFFKHB@select_target_acquisition_syste@
CONST	SEGMENT
??_C@_0EO@LOOFFKHB@select_target_acquisition_syste@ DB 'select_target_acq'
	DB	'uisition_system_hidss', 09H, 09H, 'PRIOR', 09H, 'MODIFIER_NON'
	DB	'E', 09H, 09H, 'KEY_STATE_DOWN', 09H, 0aH, 00H ; `string'
CONST	ENDS
;	COMDAT ??_C@_0EO@OEEKKGKH@select_target_acquisition_syste@
CONST	SEGMENT
??_C@_0EO@OEEKKGKH@select_target_acquisition_syste@ DB 'select_target_acq'
	DB	'uisition_system_ihadss', 09H, 09H, 'PRIOR', 09H, 'MODIFIER_NO'
	DB	'NE', 09H, 09H, 'KEY_STATE_DOWN', 0aH, 00H	; `string'
CONST	ENDS
;	COMDAT ??_C@_0EL@INDIFPBM@select_target_acquisition_syste@
CONST	SEGMENT
??_C@_0EL@INDIFPBM@select_target_acquisition_syste@ DB 'select_target_acq'
	DB	'uisition_system_dvo', 09H, 09H, 'NEXT', 09H, 'MODIFIER_NONE', 09H
	DB	09H, 'KEY_STATE_DOWN', 09H, 0aH, 00H		; `string'
CONST	ENDS
;	COMDAT ??_C@_0EL@IKGJFBOF@select_target_acquisition_syste@
CONST	SEGMENT
??_C@_0EL@IKGJFBOF@select_target_acquisition_syste@ DB 'select_target_acq'
	DB	'uisition_system_dtv', 09H, 09H, 'END', 09H, 'MODIFIER_NONE', 09H
	DB	09H, 'KEY_STATE_DOWN', 09H, 09H, 0aH, 00H	; `string'
CONST	ENDS
;	COMDAT ??_C@_0EO@NPCPAACE@select_target_acquisition_syste@
CONST	SEGMENT
??_C@_0EO@NPCPAACE@select_target_acquisition_syste@ DB 'select_target_acq'
	DB	'uisition_system_flir', 09H, 09H, 'DELETE', 09H, 'MODIFIER_NON'
	DB	'E', 09H, 09H, 'KEY_STATE_DOWN', 09H, 0aH, 00H ; `string'
CONST	ENDS
;	COMDAT ??_C@_0FA@EONGPLNN@select_target_acquisition_syste@
CONST	SEGMENT
??_C@_0FA@EONGPLNN@select_target_acquisition_syste@ DB 'select_target_acq'
	DB	'uisition_system_air_radar', 09H, 'HOME', 09H, 'MODIFIER_NONE', 09H
	DB	09H, 'KEY_STATE_DOWN', 09H, 0aH, 00H		; `string'
CONST	ENDS
;	COMDAT ??_C@_0FE@PFBMFFMK@select_target_acquisition_syste@
CONST	SEGMENT
??_C@_0FE@PFBMFFMK@select_target_acquisition_syste@ DB 'select_target_acq'
	DB	'uisition_system_ground_radar', 09H, 'INSERT', 09H, 'MODIFIER_'
	DB	'NONE', 09H, 09H, 'KEY_STATE_DOWN', 0aH, 00H	; `string'
CONST	ENDS
;	COMDAT ??_C@_0FE@PKKPNHJB@select_target_acquisition_syste@
CONST	SEGMENT
??_C@_0FE@PKKPNHJB@select_target_acquisition_syste@ DB 'select_target_acq'
	DB	'uisition_system_off', 09H, 09H, 'DECIMAL', 09H, 'MODIFIER_LEF'
	DB	'T_CONTROL', 09H, 'KEY_STATE_DOWN', 0aH, 00H	; `string'
CONST	ENDS
;	COMDAT ??_C@_0EB@NBJMNHPM@select_cannon?7?7?7?7BACKSPACE?7MODI@
CONST	SEGMENT
??_C@_0EB@NBJMNHPM@select_cannon?7?7?7?7BACKSPACE?7MODI@ DB 'select_canno'
	DB	'n', 09H, 09H, 09H, 09H, 'BACKSPACE', 09H, 'MODIFIER_LEFT_ALT', 09H
	DB	'KEY_STATE_DOWN', 09H, 09H, 09H, 09H, 0aH, 00H ; `string'
CONST	ENDS
;	COMDAT ??_C@_0ED@MHJMFIEK@weapons_safe?7?7?7?7BACKSPACE?7MODIF@
CONST	SEGMENT
??_C@_0ED@MHJMFIEK@weapons_safe?7?7?7?7BACKSPACE?7MODIF@ DB 'weapons_safe'
	DB	09H, 09H, 09H, 09H, 'BACKSPACE', 09H, 'MODIFIER_LEFT_CONTROL', 09H
	DB	'KEY_STATE_DOWN', 09H, 09H, 09H, 0aH, 00H	; `string'
CONST	ENDS
;	COMDAT ??_C@_0EK@MKMJOJCI@select_previous_weapon?7?7?7BACKSP@
CONST	SEGMENT
??_C@_0EK@MKMJOJCI@select_previous_weapon?7?7?7BACKSP@ DB 'select_previou'
	DB	's_weapon', 09H, 09H, 09H, 'BACKSPACE', 09H, 'MODIFIER_LEFT_SH'
	DB	'IFT', 09H, 'KEY_STATE_DOWN', 09H, 09H, 09H, 0aH, 00H ; `string'
CONST	ENDS
;	COMDAT ??_C@_0EC@BJPLDKLL@select_next_weapon?7?7?7BACKSPACE?7@
CONST	SEGMENT
??_C@_0EC@BJPLDKLL@select_next_weapon?7?7?7BACKSPACE?7@ DB 'select_next_w'
	DB	'eapon', 09H, 09H, 09H, 'BACKSPACE', 09H, 'MODIFIER_NONE', 09H
	DB	'KEY_STATE_DOWN', 09H, 09H, 09H, 09H, 09H, 0aH, 00H ; `string'
CONST	ENDS
;	COMDAT ??_C@_0DM@DEHMJDLJ@launch_weapon?7?7?7?7SPACE?7?7MODIFIE@
CONST	SEGMENT
??_C@_0DM@DEHMJDLJ@launch_weapon?7?7?7?7SPACE?7?7MODIFIE@ DB 'launch_weap'
	DB	'on', 09H, 09H, 09H, 09H, 'SPACE', 09H, 09H, 'MODIFIER_NONE', 09H
	DB	'KEY_STATE_EITHER', 09H, 09H, 09H, 09H, 0aH, 00H ; `string'
CONST	ENDS
;	COMDAT ??_C@_0ED@JAFGJACH@toggle_intermittent_wipe?7?7Y?7MOD@
CONST	SEGMENT
??_C@_0ED@JAFGJACH@toggle_intermittent_wipe?7?7Y?7MOD@ DB 'toggle_intermi'
	DB	'ttent_wipe', 09H, 09H, 'Y', 09H, 'MODIFIER_LEFT_ALT', 09H, 'K'
	DB	'EY_STATE_DOWN', 09H, 09H, 09H, 09H, 09H, 0aH, 00H ; `string'
CONST	ENDS
;	COMDAT ??_C@_0DJ@PBDGGHCM@toggle_wiper_on?7?7?7?7Y?7MODIFIER_N@
CONST	SEGMENT
??_C@_0DJ@PBDGGHCM@toggle_wiper_on?7?7?7?7Y?7MODIFIER_N@ DB 'toggle_wiper'
	DB	'_on', 09H, 09H, 09H, 09H, 'Y', 09H, 'MODIFIER_NONE', 09H, 09H
	DB	'KEY_STATE_DOWN', 09H, 09H, 09H, 09H, 09H, 0aH, 00H ; `string'
CONST	ENDS
;	COMDAT ??_C@_0EA@BDBGIPLF@set_prev_waypoint?7?7?7W?7MODIFIER_@
CONST	SEGMENT
??_C@_0EA@BDBGIPLF@set_prev_waypoint?7?7?7W?7MODIFIER_@ DB 'set_prev_wayp'
	DB	'oint', 09H, 09H, 09H, 'W', 09H, 'MODIFIER_LEFT_SHIFT', 09H, 'K'
	DB	'EY_STATE_DOWN', 09H, 09H, 09H, 09H, 09H, 09H, 0aH, 00H ; `string'
CONST	ENDS
;	COMDAT ??_C@_0DL@OEILCH@set_next_waypoint?7?7?7W?7MODIFIER_@
CONST	SEGMENT
??_C@_0DL@OEILCH@set_next_waypoint?7?7?7W?7MODIFIER_@ DB 'set_next_waypoi'
	DB	'nt', 09H, 09H, 09H, 'W', 09H, 'MODIFIER_NONE', 09H, 09H, 'KEY'
	DB	'_STATE_DOWN', 09H, 09H, 09H, 09H, 09H, 09H, 0aH, 00H ; `string'
CONST	ENDS
;	COMDAT ??_C@_0DO@MGJPFPBE@hokum_pilot_view1?7?7?7V?7MODIFIER_@
CONST	SEGMENT
??_C@_0DO@MGJPFPBE@hokum_pilot_view1?7?7?7V?7MODIFIER_@ DB 'hokum_pilot_v'
	DB	'iew1', 09H, 09H, 09H, 'V', 09H, 'MODIFIER_LEFT_ALT', 09H, 'KE'
	DB	'Y_STATE_DOWN', 09H, 09H, 09H, 09H, 09H, 09H, 0aH, 00H ; `string'
CONST	ENDS
;	COMDAT ??_C@_0EA@JHOMEBFA@toggle_navigation_lights?7?7V?7MOD@
CONST	SEGMENT
??_C@_0EA@JHOMEBFA@toggle_navigation_lights?7?7V?7MOD@ DB 'toggle_navigat'
	DB	'ion_lights', 09H, 09H, 'V', 09H, 'MODIFIER_NONE', 09H, 09H, 'K'
	DB	'EY_STATE_DOWN', 09H, 09H, 09H, 09H, 09H, 0aH, 00H ; `string'
CONST	ENDS
;	COMDAT ??_C@_0EI@LDDJHEAD@toggle_ground_stabilisation?7?7S?7@
CONST	SEGMENT
??_C@_0EI@LDDJHEAD@toggle_ground_stabilisation?7?7S?7@ DB 'toggle_ground_'
	DB	'stabilisation', 09H, 09H, 'S', 09H, 'MODIFIER_LEFT_CONTROL', 09H
	DB	'KEY_STATE_DOWN', 09H, 09H, 09H, 0aH, 00H	; `string'
CONST	ENDS
;	COMDAT ??_C@_0EH@CDCBMGNL@decrease_rocket_salvo_size?7?7S?7M@
CONST	SEGMENT
??_C@_0EH@CDCBMGNL@decrease_rocket_salvo_size?7?7S?7M@ DB 'decrease_rocke'
	DB	't_salvo_size', 09H, 09H, 'S', 09H, 'MODIFIER_LEFT_SHIFT', 09H
	DB	'KEY_STATE_DOWN', 09H, 09H, 09H, 09H, 09H, 0aH, 00H ; `string'
CONST	ENDS
;	COMDAT ??_C@_0EC@NPEENKHN@increase_rocket_salvo_size?7?7S?7M@
CONST	SEGMENT
??_C@_0EC@NPEENKHN@increase_rocket_salvo_size?7?7S?7M@ DB 'increase_rocke'
	DB	't_salvo_size', 09H, 09H, 'S', 09H, 'MODIFIER_NONE', 09H, 09H, 'K'
	DB	'EY_STATE_DOWN', 09H, 09H, 09H, 09H, 09H, 0aH, 00H ; `string'
CONST	ENDS
;	COMDAT ??_C@_0EC@NEEJIEIB@rearm_refuel_repair?7?7?7R?7MODIFIE@
CONST	SEGMENT
??_C@_0EC@NEEJIEIB@rearm_refuel_repair?7?7?7R?7MODIFIE@ DB 'rearm_refuel_'
	DB	'repair', 09H, 09H, 09H, 'R', 09H, 'MODIFIER_LEFT_CONTROL', 09H
	DB	'KEY_STATE_DOWN', 09H, 09H, 09H, 09H, 0aH, 00H ; `string'
CONST	ENDS
;	COMDAT ??_C@_0FE@IHMGJBDB@toggle_blurred_main_rotors_visi@
CONST	SEGMENT
??_C@_0FE@IHMGJBDB@toggle_blurred_main_rotors_visi@ DB 'toggle_blurred_ma'
	DB	'in_rotors_visible_from_cockpit', 09H, 'R', 09H, 'MODIFIER_LEF'
	DB	'T_ALT', 09H, 'KEY_STATE_DOWN', 0aH, 00H	; `string'
CONST	ENDS
;	COMDAT ??_C@_0EG@ELMJIGDJ@clear_hud_bob_up_overlay?7?7O?7MOD@
CONST	SEGMENT
??_C@_0EG@ELMJIGDJ@clear_hud_bob_up_overlay?7?7O?7MOD@ DB 'clear_hud_bob_'
	DB	'up_overlay', 09H, 09H, 'O', 09H, 'MODIFIER_LEFT_CONTROL', 09H
	DB	'KEY_STATE_DOWN', 09H, 09H, 09H, 09H, 0aH, 00H ; `string'
CONST	ENDS
;	COMDAT ??_C@_0DP@FFEPECNO@set_hud_bob_up_overlay?7?7?7O?7MODI@
CONST	SEGMENT
??_C@_0DP@FFEPECNO@set_hud_bob_up_overlay?7?7?7O?7MODI@ DB 'set_hud_bob_u'
	DB	'p_overlay', 09H, 09H, 09H, 'O', 09H, 'MODIFIER_NONE', 09H, 09H
	DB	'KEY_STATE_DOWN', 09H, 09H, 09H, 09H, 09H, 0aH, 00H ; `string'
CONST	ENDS
;	COMDAT ??_C@_0DO@CDKBDFOL@hokum_pilot_view3?7?7?7N?7MODIFIER_@
CONST	SEGMENT
??_C@_0DO@CDKBDFOL@hokum_pilot_view3?7?7?7N?7MODIFIER_@ DB 'hokum_pilot_v'
	DB	'iew3', 09H, 09H, 09H, 'N', 09H, 'MODIFIER_LEFT_ALT', 09H, 'KE'
	DB	'Y_STATE_DOWN', 09H, 09H, 09H, 09H, 09H, 09H, 0aH, 00H ; `string'
CONST	ENDS
;	COMDAT ??_C@_0EC@IAFFLHAK@toggle_night_vision_system?7?7N?7M@
CONST	SEGMENT
??_C@_0EC@IAFFLHAK@toggle_night_vision_system?7?7N?7M@ DB 'toggle_night_v'
	DB	'ision_system', 09H, 09H, 'N', 09H, 'MODIFIER_NONE', 09H, 09H, 'K'
	DB	'EY_STATE_DOWN', 09H, 09H, 09H, 09H, 09H, 0aH, 00H ; `string'
CONST	ENDS
;	COMDAT ??_C@_0EC@ENCKBPK@acknowledge_master_caution?7?7M?7M@
CONST	SEGMENT
??_C@_0EC@ENCKBPK@acknowledge_master_caution?7?7M?7M@ DB 'acknowledge_mas'
	DB	'ter_caution', 09H, 09H, 'M', 09H, 'MODIFIER_NONE', 09H, 09H, 'K'
	DB	'EY_STATE_DOWN', 09H, 09H, 09H, 09H, 09H, 0aH, 00H ; `string'
CONST	ENDS
;	COMDAT ??_C@_0DK@PCLHIJL@toggle_lobl_loal?7?7?7L?7MODIFIER_N@
CONST	SEGMENT
??_C@_0DK@PCLHIJL@toggle_lobl_loal?7?7?7L?7MODIFIER_N@ DB 'toggle_lobl_lo'
	DB	'al', 09H, 09H, 09H, 'L', 09H, 'MODIFIER_NONE', 09H, 09H, 'KEY'
	DB	'_STATE_DOWN', 09H, 09H, 09H, 09H, 09H, 09H, 0aH, 00H ; `string'
CONST	ENDS
;	COMDAT ??_C@_0EC@FILAKJJJ@toggle_hud_enlarge?7?7?7K?7MODIFIER@
CONST	SEGMENT
??_C@_0EC@FILAKJJJ@toggle_hud_enlarge?7?7?7K?7MODIFIER@ DB 'toggle_hud_en'
	DB	'large', 09H, 09H, 09H, 'K', 09H, 'MODIFIER_LEFT_CONTROL', 09H
	DB	'KEY_STATE_DOWN', 09H, 09H, 09H, 09H, 09H, 0aH, 00H ; `string'
CONST	ENDS
;	COMDAT ??_C@_0EB@BMPHDPJP@set_prev_hud_colour?7?7?7K?7MODIFIE@
CONST	SEGMENT
??_C@_0EB@BMPHDPJP@set_prev_hud_colour?7?7?7K?7MODIFIE@ DB 'set_prev_hud_'
	DB	'colour', 09H, 09H, 09H, 'K', 09H, 'MODIFIER_LEFT_SHIFT', 09H, 'K'
	DB	'EY_STATE_DOWN', 09H, 09H, 09H, 09H, 09H, 0aH, 00H ; `string'
CONST	ENDS
;	COMDAT ??_C@_0DM@ENNMCFDO@set_next_hud_colour?7?7?7K?7MODIFIE@
CONST	SEGMENT
??_C@_0DM@ENNMCFDO@set_next_hud_colour?7?7?7K?7MODIFIE@ DB 'set_next_hud_'
	DB	'colour', 09H, 09H, 09H, 'K', 09H, 'MODIFIER_NONE', 09H, 09H, 'K'
	DB	'EY_STATE_DOWN', 09H, 09H, 09H, 09H, 09H, 0aH, 00H ; `string'
CONST	ENDS
;	COMDAT ??_C@_0DM@OKBFGJHH@toggle_radar_jammer?7?7?7J?7MODIFIE@
CONST	SEGMENT
??_C@_0DM@OKBFGJHH@toggle_radar_jammer?7?7?7J?7MODIFIE@ DB 'toggle_radar_'
	DB	'jammer', 09H, 09H, 09H, 'J', 09H, 'MODIFIER_NONE', 09H, 09H, 'K'
	DB	'EY_STATE_DOWN', 09H, 09H, 09H, 09H, 09H, 0aH, 00H ; `string'
CONST	ENDS
;	COMDAT ??_C@_0DP@MNEEEAAP@toggle_infra_red_jammer?7?7?7I?7MOD@
CONST	SEGMENT
??_C@_0DP@MNEEEAAP@toggle_infra_red_jammer?7?7?7I?7MOD@ DB 'toggle_infra_'
	DB	'red_jammer', 09H, 09H, 09H, 'I', 09H, 'MODIFIER_NONE', 09H, 09H
	DB	'KEY_STATE_DOWN', 09H, 09H, 09H, 09H, 0aH, 00H ; `string'
CONST	ENDS
;	COMDAT ??_C@_0DM@FBOFPDAB@toggle_gear?7?7?7?7G?7MODIFIER_LEFT_@
CONST	SEGMENT
??_C@_0DM@FBOFPDAB@toggle_gear?7?7?7?7G?7MODIFIER_LEFT_@ DB 'toggle_gear', 09H
	DB	09H, 09H, 09H, 'G', 09H, 'MODIFIER_LEFT_CONTROL', 09H, 'KEY_ST'
	DB	'ATE_DOWN', 09H, 09H, 09H, 09H, 09H, 0aH, 00H ; `string'
CONST	ENDS
;	COMDAT ??_C@_0EH@GBGIALJE@fire_extinguisher_release?7?7F?7MO@
CONST	SEGMENT
??_C@_0EH@GBGIALJE@fire_extinguisher_release?7?7F?7MO@ DB 'fire_extinguis'
	DB	'her_release', 09H, 09H, 'F', 09H, 'MODIFIER_LEFT_CONTROL', 09H
	DB	'KEY_STATE_DOWN', 09H, 09H, 09H, 09H, 0aH, 00H ; `string'
CONST	ENDS
;	COMDAT ??_C@_0DH@LFLHHBEF@launch_flare?7?7?7?7F?7MODIFIER_NONE@
CONST	SEGMENT
??_C@_0DH@LFLHHBEF@launch_flare?7?7?7?7F?7MODIFIER_NONE@ DB 'launch_flare'
	DB	09H, 09H, 09H, 09H, 'F', 09H, 'MODIFIER_NONE', 09H, 09H, 'KEY_'
	DB	'STATE_DOWN', 09H, 09H, 09H, 09H, 09H, 09H, 0aH, 00H ; `string'
CONST	ENDS
;	COMDAT ??_C@_0DF@CBLHAPOD@eject?7?7?7?7?7E?7MODIFIER_LEFT_ALT?7K@
CONST	SEGMENT
??_C@_0DF@CBLHAPOD@eject?7?7?7?7?7E?7MODIFIER_LEFT_ALT?7K@ DB 'eject', 09H
	DB	09H, 09H, 09H, 09H, 'E', 09H, 'MODIFIER_LEFT_ALT', 09H, 'KEY_S'
	DB	'TATE_DOWN', 09H, 09H, 09H, 09H, 09H, 09H, 09H, 0aH, 00H ; `string'
CONST	ENDS
;	COMDAT ??_C@_0EJ@LLKHFCDD@select_previous_tsd_ase_range?7?7@
CONST	SEGMENT
??_C@_0EJ@LLKHFCDD@select_previous_tsd_ase_range?7?7@ DB 'select_previous'
	DB	'_tsd_ase_range', 09H, 09H, 'E', 09H, 'MODIFIER_LEFT_SHIFT', 09H
	DB	'KEY_STATE_DOWN', 09H, 09H, 09H, 09H, 0aH, 00H ; `string'
CONST	ENDS
;	COMDAT ??_C@_0EB@DHHDDIHJ@select_next_tsd_ase_range?7?7E?7MO@
CONST	SEGMENT
??_C@_0EB@DHHDDIHJ@select_next_tsd_ase_range?7?7E?7MO@ DB 'select_next_ts'
	DB	'd_ase_range', 09H, 09H, 'E', 09H, 'MODIFIER_NONE', 09H, 09H, 'K'
	DB	'EY_STATE_DOWN', 09H, 09H, 09H, 09H, 09H, 0aH, 00H ; `string'
CONST	ENDS
;	COMDAT ??_C@_0EN@FDGDBLPH@select_previous_tsd_declutter_l@
CONST	SEGMENT
??_C@_0EN@FDGDBLPH@select_previous_tsd_declutter_l@ DB 'select_previous_t'
	DB	'sd_declutter_level', 09H, 'D', 09H, 'MODIFIER_LEFT_SHIFT', 09H
	DB	'KEY_STATE_DOWN', 09H, 09H, 09H, 0aH, 00H	; `string'
CONST	ENDS
;	COMDAT ??_C@_0EF@NGFJMAOO@select_next_tsd_declutter_level@
CONST	SEGMENT
??_C@_0EF@NGFJMAOO@select_next_tsd_declutter_level@ DB 'select_next_tsd_d'
	DB	'eclutter_level', 09H, 09H, 'D', 09H, 'MODIFIER_NONE', 09H, 09H
	DB	'KEY_STATE_DOWN', 09H, 09H, 09H, 0aH, 00H	; `string'
CONST	ENDS
;	COMDAT ??_C@_0EI@CDNFCMOK@toggle_auto_countermeasures?7?7C?7@
CONST	SEGMENT
??_C@_0EI@CDNFCMOK@toggle_auto_countermeasures?7?7C?7@ DB 'toggle_auto_co'
	DB	'untermeasures', 09H, 09H, 'C', 09H, 'MODIFIER_LEFT_CONTROL', 09H
	DB	'KEY_STATE_DOWN', 09H, 09H, 09H, 0aH, 00H	; `string'
CONST	ENDS
;	COMDAT ??_C@_0DH@LPHGGGL@launch_chaff?7?7?7?7C?7MODIFIER_NONE@
CONST	SEGMENT
??_C@_0DH@LPHGGGL@launch_chaff?7?7?7?7C?7MODIFIER_NONE@ DB 'launch_chaff', 09H
	DB	09H, 09H, 09H, 'C', 09H, 'MODIFIER_NONE', 09H, 09H, 'KEY_STATE'
	DB	'_DOWN', 09H, 09H, 09H, 09H, 09H, 09H, 0aH, 00H ; `string'
CONST	ENDS
;	COMDAT ??_C@_0DO@LMIGIDLE@hokum_pilot_view2?7?7?7B?7MODIFIER_@
CONST	SEGMENT
??_C@_0DO@LMIGIDLE@hokum_pilot_view2?7?7?7B?7MODIFIER_@ DB 'hokum_pilot_v'
	DB	'iew2', 09H, 09H, 09H, 'B', 09H, 'MODIFIER_LEFT_ALT', 09H, 'KE'
	DB	'Y_STATE_DOWN', 09H, 09H, 09H, 09H, 09H, 09H, 0aH, 00H ; `string'
CONST	ENDS
;	COMDAT ??_C@_0ED@BPLAAJDM@toggle_ase_auto_page?7?7?7A?7MODIFI@
CONST	SEGMENT
??_C@_0ED@BPLAAJDM@toggle_ase_auto_page?7?7?7A?7MODIFI@ DB 'toggle_ase_au'
	DB	'to_page', 09H, 09H, 09H, 'A', 09H, 'MODIFIER_LEFT_CONTROL', 09H
	DB	'KEY_STATE_DOWN', 09H, 09H, 09H, 09H, 0aH, 00H ; `string'
CONST	ENDS
;	COMDAT ??_C@_0EK@FFCKOEOE@comms_shortcut_attack_my_target@
CONST	SEGMENT
??_C@_0EK@FFCKOEOE@comms_shortcut_attack_my_target@ DB 'comms_shortcut_at'
	DB	'tack_my_target', 09H, 09H, 'A', 09H, 'MODIFIER_LEFT_SHIFT', 09H
	DB	09H, 'KEY_STATE_DOWN', 09H, 09H, 0aH, 00H	; `string'
CONST	ENDS
;	COMDAT ??_C@_0EC@FOCKPLOI@wide_cockpit_toggle?7?7?7BACKSLASH@
CONST	SEGMENT
??_C@_0EC@FOCKPLOI@wide_cockpit_toggle?7?7?7BACKSLASH@ DB 'wide_cockpit_t'
	DB	'oggle', 09H, 09H, 09H, 'BACKSLASH', 09H, 'MODIFIER_NONE', 09H
	DB	09H, 'KEY_STATE_DOWN', 09H, 09H, 09H, 0aH, 00H ; `string'
CONST	ENDS
;	COMDAT ??_C@_0ED@BOMBGDPF@adjust_view_down?7?7?7NUMPAD2?7?7MOD@
CONST	SEGMENT
??_C@_0ED@BOMBGDPF@adjust_view_down?7?7?7NUMPAD2?7?7MOD@ DB 'adjust_view_'
	DB	'down', 09H, 09H, 09H, 'NUMPAD2', 09H, 09H, 'MODIFIER_LEFT_ALT'
	DB	09H, 'KEY_STATE_EITHER', 09H, 09H, 09H, 0aH, 00H ; `string'
CONST	ENDS
;	COMDAT ??_C@_0EC@JPDPPEPJ@adjust_view_up?7?7?7?7NUMPAD8?7?7MODI@
CONST	SEGMENT
??_C@_0EC@JPDPPEPJ@adjust_view_up?7?7?7?7NUMPAD8?7?7MODI@ DB 'adjust_view'
	DB	'_up', 09H, 09H, 09H, 09H, 'NUMPAD8', 09H, 09H, 'MODIFIER_LEFT'
	DB	'_ALT', 09H, 'KEY_STATE_EITHER', 09H, 09H, 09H, 0aH, 00H ; `string'
CONST	ENDS
;	COMDAT ??_C@_0EE@LGEPOCBM@adjust_view_right?7?7?7NUMPAD6?7?7MO@
CONST	SEGMENT
??_C@_0EE@LGEPOCBM@adjust_view_right?7?7?7NUMPAD6?7?7MO@ DB 'adjust_view_'
	DB	'right', 09H, 09H, 09H, 'NUMPAD6', 09H, 09H, 'MODIFIER_LEFT_AL'
	DB	'T', 09H, 'KEY_STATE_EITHER', 09H, 09H, 09H, 0aH, 00H ; `string'
CONST	ENDS
;	COMDAT ??_C@_0ED@FEENJDDO@adjust_view_left?7?7?7NUMPAD4?7?7MOD@
CONST	SEGMENT
??_C@_0ED@FEENJDDO@adjust_view_left?7?7?7NUMPAD4?7?7MOD@ DB 'adjust_view_'
	DB	'left', 09H, 09H, 09H, 'NUMPAD4', 09H, 09H, 'MODIFIER_LEFT_ALT'
	DB	09H, 'KEY_STATE_EITHER', 09H, 09H, 09H, 0aH, 00H ; `string'
CONST	ENDS
;	COMDAT ??_C@_0ED@ONJIPOBH@look_abs_down?7?7?7?7NUMPAD2?7?7MODIF@
CONST	SEGMENT
??_C@_0ED@ONJIPOBH@look_abs_down?7?7?7?7NUMPAD2?7?7MODIF@ DB 'look_abs_do'
	DB	'wn', 09H, 09H, 09H, 09H, 'NUMPAD2', 09H, 09H, 'MODIFIER_LEFT_'
	DB	'SHIFT', 09H, 'KEY_STATE_EITHER', 09H, 09H, 09H, 0aH, 00H ; `string'
CONST	ENDS
;	COMDAT ??_C@_0EB@LECGPLEA@look_abs_up?7?7?7?7NUMPAD8?7?7MODIFIE@
CONST	SEGMENT
??_C@_0EB@LECGPLEA@look_abs_up?7?7?7?7NUMPAD8?7?7MODIFIE@ DB 'look_abs_up'
	DB	09H, 09H, 09H, 09H, 'NUMPAD8', 09H, 09H, 'MODIFIER_LEFT_SHIFT', 09H
	DB	'KEY_STATE_EITHER', 09H, 09H, 09H, 0aH, 00H	; `string'
CONST	ENDS
;	COMDAT ??_C@_0ED@MEFNMPGA@look_abs_right?7?7?7?7NUMPAD6?7?7MODI@
CONST	SEGMENT
??_C@_0ED@MEFNMPGA@look_abs_right?7?7?7?7NUMPAD6?7?7MODI@ DB 'look_abs_ri'
	DB	'ght', 09H, 09H, 09H, 09H, 'NUMPAD6', 09H, 09H, 'MODIFIER_LEFT'
	DB	'_SHIFT', 09H, 'KEY_STATE_DOWN', 09H, 09H, 09H, 09H, 0aH, 00H ; `string'
CONST	ENDS
;	COMDAT ??_C@_0EC@INABIOPP@look_abs_left?7?7?7?7NUMPAD4?7?7MODIF@
CONST	SEGMENT
??_C@_0EC@INABIOPP@look_abs_left?7?7?7?7NUMPAD4?7?7MODIF@ DB 'look_abs_le'
	DB	'ft', 09H, 09H, 09H, 09H, 'NUMPAD4', 09H, 09H, 'MODIFIER_LEFT_'
	DB	'SHIFT', 09H, 'KEY_STATE_DOWN', 09H, 09H, 09H, 09H, 0aH, 00H ; `string'
CONST	ENDS
;	COMDAT ??_C@_0ED@EMPHMJOC@look_rel_down?7?7?7?7NUMPAD2?7?7MODIF@
CONST	SEGMENT
??_C@_0ED@EMPHMJOC@look_rel_down?7?7?7?7NUMPAD2?7?7MODIF@ DB 'look_rel_do'
	DB	'wn', 09H, 09H, 09H, 09H, 'NUMPAD2', 09H, 09H, 'MODIFIER_LEFT_'
	DB	'CONTROL', 09H, 'KEY_STATE_DOWN', 09H, 09H, 09H, 0aH, 00H ; `string'
CONST	ENDS
;	COMDAT ??_C@_0EB@NPKPNJBH@look_rel_up?7?7?7?7NUMPAD8?7?7MODIFIE@
CONST	SEGMENT
??_C@_0EB@NPKPNJBH@look_rel_up?7?7?7?7NUMPAD8?7?7MODIFIE@ DB 'look_rel_up'
	DB	09H, 09H, 09H, 09H, 'NUMPAD8', 09H, 09H, 'MODIFIER_LEFT_CONTRO'
	DB	'L', 09H, 'KEY_STATE_DOWN', 09H, 09H, 09H, 0aH, 00H ; `string'
CONST	ENDS
;	COMDAT ??_C@_0EE@DMDCDLAE@look_rel_right?7?7?7?7NUMPAD6?7?7MODI@
CONST	SEGMENT
??_C@_0EE@DMDCDLAE@look_rel_right?7?7?7?7NUMPAD6?7?7MODI@ DB 'look_rel_ri'
	DB	'ght', 09H, 09H, 09H, 09H, 'NUMPAD6', 09H, 09H, 'MODIFIER_LEFT'
	DB	'_CONTROL', 09H, 'KEY_STATE_DOWN', 09H, 09H, 09H, 0aH, 00H ; `string'
CONST	ENDS
;	COMDAT ??_C@_0ED@KCNJPCNJ@look_rel_left?7?7?7?7NUMPAD4?7?7MODIF@
CONST	SEGMENT
??_C@_0ED@KCNJPCNJ@look_rel_left?7?7?7?7NUMPAD4?7?7MODIF@ DB 'look_rel_le'
	DB	'ft', 09H, 09H, 09H, 09H, 'NUMPAD4', 09H, 09H, 'MODIFIER_LEFT_'
	DB	'CONTROL', 09H, 'KEY_STATE_DOWN', 09H, 09H, 09H, 0aH, 00H ; `string'
CONST	ENDS
;	COMDAT ??_C@_0EH@NCKAAJME@previous_view_range?7?7?7NUMPADMIN@
CONST	SEGMENT
??_C@_0EH@NCKAAJME@previous_view_range?7?7?7NUMPADMIN@ DB 'previous_view_'
	DB	'range', 09H, 09H, 09H, 'NUMPADMINUS', 09H, 'MODIFIER_LEFT_ALT'
	DB	09H, 'KEY_STATE_DOWN', 09H, 09H, 09H, 0aH, 00H ; `string'
CONST	ENDS
;	COMDAT ??_C@_0ED@HFEBEMCB@next_view_range?7?7?7?7NUMPADPLUS?7M@
CONST	SEGMENT
??_C@_0ED@HFEBEMCB@next_view_range?7?7?7?7NUMPADPLUS?7M@ DB 'next_view_ra'
	DB	'nge', 09H, 09H, 09H, 09H, 'NUMPADPLUS', 09H, 'MODIFIER_LEFT_A'
	DB	'LT', 09H, 'KEY_STATE_DOWN', 09H, 09H, 09H, 0aH, 00H ; `string'
CONST	ENDS
;	COMDAT ??_C@_0EC@CGIOHFOI@previous_view_range?7?7?7MINUS?7?7MO@
CONST	SEGMENT
??_C@_0EC@CGIOHFOI@previous_view_range?7?7?7MINUS?7?7MO@ DB 'previous_vie'
	DB	'w_range', 09H, 09H, 09H, 'MINUS', 09H, 09H, 'MODIFIER_LEFT_AL'
	DB	'T', 09H, 'KEY_STATE_DOWN', 09H, 09H, 09H, 0aH, 00H ; `string'
CONST	ENDS
;	COMDAT ??_C@_0EA@MNKDJEKH@next_view_range?7?7?7?7EQUALS?7MODIF@
CONST	SEGMENT
??_C@_0EA@MNKDJEKH@next_view_range?7?7?7?7EQUALS?7MODIF@ DB 'next_view_ra'
	DB	'nge', 09H, 09H, 09H, 09H, 'EQUALS', 09H, 'MODIFIER_LEFT_ALT', 09H
	DB	'KEY_STATE_DOWN', 09H, 09H, 09H, 09H, 0aH, 00H ; `string'
CONST	ENDS
;	COMDAT ??_C@_0EA@IMNOFPBH@hokum_pilot_view3?7?7?7NEXT?7MODIFI@
CONST	SEGMENT
??_C@_0EA@IMNOFPBH@hokum_pilot_view3?7?7?7NEXT?7MODIFI@ DB 'hokum_pilot_v'
	DB	'iew3', 09H, 09H, 09H, 'NEXT', 09H, 'MODIFIER_LEFT_ALT', 09H, 'K'
	DB	'EY_STATE_DOWN', 09H, 09H, 09H, 09H, 09H, 0aH, 00H ; `string'
CONST	ENDS
;	COMDAT ??_C@_0EA@IGKOBLBE@hokum_pilot_view2?7?7?7END?7MODIFIE@
CONST	SEGMENT
??_C@_0EA@IGKOBLBE@hokum_pilot_view2?7?7?7END?7MODIFIE@ DB 'hokum_pilot_v'
	DB	'iew2', 09H, 09H, 09H, 'END', 09H, 'MODIFIER_LEFT_ALT', 09H, 'K'
	DB	'EY_STATE_DOWN', 09H, 09H, 09H, 09H, 09H, 09H, 0aH, 00H ; `string'
CONST	ENDS
;	COMDAT ??_C@_0EC@FBMDFOLK@hokum_pilot_view1?7?7?7DELETE?7?7MOD@
CONST	SEGMENT
??_C@_0EC@FBMDFOLK@hokum_pilot_view1?7?7?7DELETE?7?7MOD@ DB 'hokum_pilot_'
	DB	'view1', 09H, 09H, 09H, 'DELETE', 09H, 09H, 'MODIFIER_LEFT_ALT'
	DB	09H, 'KEY_STATE_DOWN', 09H, 09H, 09H, 09H, 0aH, 00H ; `string'
CONST	ENDS
;	COMDAT ??_C@_0EE@PIPEOPMH@wide_cockpit_save?7?7?7BACKSLASH?7M@
CONST	SEGMENT
??_C@_0EE@PIPEOPMH@wide_cockpit_save?7?7?7BACKSLASH?7M@ DB 'wide_cockpit_'
	DB	'save', 09H, 09H, 09H, 'BACKSLASH', 09H, 'MODIFIER_LEFT_ALT', 09H
	DB	'KEY_STATE_DOWN', 09H, 09H, 09H, 09H, 0aH, 00H ; `string'
CONST	ENDS
;	COMDAT ??_C@_0EH@BFACNKLC@wide_cockpit_edit?7?7?7BACKSLASH?7M@
CONST	SEGMENT
??_C@_0EH@BFACNKLC@wide_cockpit_edit?7?7?7BACKSLASH?7M@ DB 'wide_cockpit_'
	DB	'edit', 09H, 09H, 09H, 'BACKSLASH', 09H, 'MODIFIER_LEFT_CONTRO'
	DB	'L', 09H, 'KEY_STATE_DOWN', 09H, 09H, 09H, 0aH, 00H ; `string'
CONST	ENDS
;	COMDAT ??_C@_0EC@BOKPCCKN@wide_cockpit_toggle?7?7?7BACKSLASH@
CONST	SEGMENT
??_C@_0EC@BOKPCCKN@wide_cockpit_toggle?7?7?7BACKSLASH@ DB 'wide_cockpit_t'
	DB	'oggle', 09H, 09H, 09H, 'BACKSLASH', 09H, 'MODIFIER_NONE', 09H
	DB	'KEY_STATE_DOWN', 09H, 09H, 09H, 09H, 0aH, 00H ; `string'
CONST	ENDS
;	COMDAT ??_C@_0CD@HIMCLDMK@?$CD?5Wideview?5keys?7?7?7?7?7?7?7?7?7?7?7?7?7?7?7?7@
CONST	SEGMENT
??_C@_0CD@HIMCLDMK@?$CD?5Wideview?5keys?7?7?7?7?7?7?7?7?7?7?7?7?7?7?7?7@ DB '#'
	DB	' Wideview keys', 09H, 09H, 09H, 09H, 09H, 09H, 09H, 09H, 09H, 09H
	DB	09H, 09H, 09H, 09H, 09H, 09H, 09H, 09H, 0aH, 00H ; `string'
CONST	ENDS
;	COMDAT ??_C@_0EB@GIKDLLBM@switch_seat_position?7?7?7ESCAPE?7?7@
CONST	SEGMENT
??_C@_0EB@GIKDLLBM@switch_seat_position?7?7?7ESCAPE?7?7@ DB 'switch_seat_'
	DB	'position', 09H, 09H, 09H, 'ESCAPE', 09H, 09H, 'MODIFIER_NONE', 09H
	DB	'KEY_STATE_DOWN', 09H, 09H, 09H, 09H, 0aH, 00H ; `string'
CONST	ENDS
;	COMDAT ??_C@_0CJ@BGLEFFJG@?$CD?5Switch?5seat?5position?7?7?7?7?7?7?7?7?7@
CONST	SEGMENT
??_C@_0CJ@BGLEFFJG@?$CD?5Switch?5seat?5position?7?7?7?7?7?7?7?7?7@ DB '# '
	DB	'Switch seat position', 09H, 09H, 09H, 09H, 09H, 09H, 09H, 09H
	DB	09H, 09H, 09H, 09H, 09H, 09H, 09H, 09H, 09H, 0aH, 00H ; `string'
CONST	ENDS
;	COMDAT ??_C@_0EJ@JNKIDJFH@set_co_pilot_seat_position?7?7DOW@
CONST	SEGMENT
??_C@_0EJ@JNKIDJFH@set_co_pilot_seat_position?7?7DOW@ DB 'set_co_pilot_se'
	DB	'at_position', 09H, 09H, 'DOWN', 09H, 'MODIFIER_LEFT_SHIFT', 09H
	DB	'KEY_STATE_DOWN', 09H, 09H, 09H, 09H, 0aH, 00H ; `string'
CONST	ENDS
;	COMDAT ??_C@_0CJ@MNCBPLND@?$CD?5Set?5to?5CP?1G?5position?7?7?7?7?7?7?7?7?7@
CONST	SEGMENT
??_C@_0CJ@MNCBPLND@?$CD?5Set?5to?5CP?1G?5position?7?7?7?7?7?7?7?7?7@ DB '#'
	DB	' Set to CP/G position', 09H, 09H, 09H, 09H, 09H, 09H, 09H, 09H
	DB	09H, 09H, 09H, 09H, 09H, 09H, 09H, 09H, 09H, 0aH, 00H ; `string'
CONST	ENDS
;	COMDAT ??_C@_0EF@FLGHNIGH@set_pilot_seat_position?7?7?7UP?7MO@
CONST	SEGMENT
??_C@_0EF@FLGHNIGH@set_pilot_seat_position?7?7?7UP?7MO@ DB 'set_pilot_sea'
	DB	't_position', 09H, 09H, 09H, 'UP', 09H, 'MODIFIER_LEFT_SHIFT', 09H
	DB	'KEY_STATE_DOWN', 09H, 09H, 09H, 09H, 0aH, 00H ; `string'
CONST	ENDS
;	COMDAT ??_C@_0CJ@LEPGFBHE@?$CD?5Set?5to?5pilot?5position?7?7?7?7?7?7?7?7@
CONST	SEGMENT
??_C@_0CJ@LEPGFBHE@?$CD?5Set?5to?5pilot?5position?7?7?7?7?7?7?7?7@ DB '# '
	DB	'Set to pilot position', 09H, 09H, 09H, 09H, 09H, 09H, 09H, 09H
	DB	09H, 09H, 09H, 09H, 09H, 09H, 09H, 09H, 0aH, 00H ; `string'
CONST	ENDS
;	COMDAT ??_C@_0EC@LFPOOBDJ@look_at_special2?7?7?7RIGHT?7MODIFI@
CONST	SEGMENT
??_C@_0EC@LFPOOBDJ@look_at_special2?7?7?7RIGHT?7MODIFI@ DB 'look_at_speci'
	DB	'al2', 09H, 09H, 09H, 'RIGHT', 09H, 'MODIFIER_LEFT_SHIFT', 09H
	DB	'KEY_STATE_DOWN', 09H, 09H, 09H, 09H, 09H, 0aH, 00H ; `string'
CONST	ENDS
;	COMDAT ??_C@_0EB@CDBLDCNA@look_at_special1?7?7?7LEFT?7MODIFIE@
CONST	SEGMENT
??_C@_0EB@CDBLDCNA@look_at_special1?7?7?7LEFT?7MODIFIE@ DB 'look_at_speci'
	DB	'al1', 09H, 09H, 09H, 'LEFT', 09H, 'MODIFIER_LEFT_SHIFT', 09H, 'K'
	DB	'EY_STATE_DOWN', 09H, 09H, 09H, 09H, 09H, 0aH, 00H ; `string'
CONST	ENDS
;	COMDAT ??_C@_0EB@LHIMFOLK@instrument_view?7?7?7?7DOWN?7MODIFIE@
CONST	SEGMENT
??_C@_0EB@LHIMFOLK@instrument_view?7?7?7?7DOWN?7MODIFIE@ DB 'instrument_v'
	DB	'iew', 09H, 09H, 09H, 09H, 'DOWN', 09H, 'MODIFIER_LEFT_CONTROL'
	DB	09H, 'KEY_STATE_DOWN', 09H, 09H, 09H, 0aH, 00H ; `string'
CONST	ENDS
;	COMDAT ??_C@_0DO@EDIBFEKE@forward_view?7?7?7?7UP?7MODIFIER_LEF@
CONST	SEGMENT
??_C@_0DO@EDIBFEKE@forward_view?7?7?7?7UP?7MODIFIER_LEF@ DB 'forward_view'
	DB	09H, 09H, 09H, 09H, 'UP', 09H, 'MODIFIER_LEFT_CONTROL', 09H, 'K'
	DB	'EY_STATE_DOWN', 09H, 09H, 09H, 09H, 09H, 0aH, 00H ; `string'
CONST	ENDS
;	COMDAT ??_C@_0EC@BGGCPKBE@look_abs_right?7?7?7?7RIGHT?7MODIFIE@
CONST	SEGMENT
??_C@_0EC@BGGCPKBE@look_abs_right?7?7?7?7RIGHT?7MODIFIE@ DB 'look_abs_rig'
	DB	'ht', 09H, 09H, 09H, 09H, 'RIGHT', 09H, 'MODIFIER_LEFT_CONTROL'
	DB	09H, 'KEY_STATE_DOWN', 09H, 09H, 09H, 09H, 0aH, 00H ; `string'
CONST	ENDS
;	COMDAT ??_C@_0EA@MDDKKKHP@look_abs_left?7?7?7?7LEFT?7MODIFIER_@
CONST	SEGMENT
??_C@_0EA@MDDKKKHP@look_abs_left?7?7?7?7LEFT?7MODIFIER_@ DB 'look_abs_lef'
	DB	't', 09H, 09H, 09H, 09H, 'LEFT', 09H, 'MODIFIER_LEFT_CONTROL', 09H
	DB	'KEY_STATE_DOWN', 09H, 09H, 09H, 09H, 0aH, 00H ; `string'
CONST	ENDS
;	COMDAT ??_C@_0EC@LOIAFONE@release_virtual_cockpit?7?7?7LALT?7@
CONST	SEGMENT
??_C@_0EC@LOIAFONE@release_virtual_cockpit?7?7?7LALT?7@ DB 'release_virtu'
	DB	'al_cockpit', 09H, 09H, 09H, 'LALT', 09H, 'MODIFIER_LEFT_ALT', 09H
	DB	'KEY_STATE_UP', 09H, 09H, 09H, 0aH, 00H	; `string'
CONST	ENDS
;	COMDAT ??_C@_0EA@PIBEMBNH@look_abs_down?7?7?7?7DOWN?7MODIFIER_@
CONST	SEGMENT
??_C@_0EA@PIBEMBNH@look_abs_down?7?7?7?7DOWN?7MODIFIER_@ DB 'look_abs_dow'
	DB	'n', 09H, 09H, 09H, 09H, 'DOWN', 09H, 'MODIFIER_LEFT_SHIFT', 09H
	DB	'KEY_STATE_EITHER', 09H, 09H, 09H, 09H, 0aH, 00H ; `string'
CONST	ENDS
;	COMDAT ??_C@_0DN@FCBHOMKD@look_abs_up?7?7?7?7UP?7MODIFIER_LEFT@
CONST	SEGMENT
??_C@_0DN@FCBHOMKD@look_abs_up?7?7?7?7UP?7MODIFIER_LEFT@ DB 'look_abs_up', 09H
	DB	09H, 09H, 09H, 'UP', 09H, 'MODIFIER_LEFT_SHIFT', 09H, 'KEY_STA'
	DB	'TE_EITHER', 09H, 09H, 09H, 09H, 09H, 0aH, 00H ; `string'
CONST	ENDS
;	COMDAT ??_C@_0EB@EBLOFMIB@look_abs_right?7?7?7?7RIGHT?7MODIFIE@
CONST	SEGMENT
??_C@_0EB@EBLOFMIB@look_abs_right?7?7?7?7RIGHT?7MODIFIE@ DB 'look_abs_rig'
	DB	'ht', 09H, 09H, 09H, 09H, 'RIGHT', 09H, 'MODIFIER_LEFT_SHIFT', 09H
	DB	'KEY_STATE_DOWN', 09H, 09H, 09H, 09H, 09H, 0aH, 00H ; `string'
CONST	ENDS
;	COMDAT ??_C@_0DP@HJKPNDKD@look_abs_left?7?7?7?7LEFT?7MODIFIER_@
CONST	SEGMENT
??_C@_0DP@HJKPNDKD@look_abs_left?7?7?7?7LEFT?7MODIFIER_@ DB 'look_abs_lef'
	DB	't', 09H, 09H, 09H, 09H, 'LEFT', 09H, 'MODIFIER_LEFT_SHIFT', 09H
	DB	'KEY_STATE_DOWN', 09H, 09H, 09H, 09H, 09H, 0aH, 00H ; `string'
CONST	ENDS
;	COMDAT ??_C@_0EA@FBKHKEFD@look_rel_down?7?7?7?7DOWN?7MODIFIER_@
CONST	SEGMENT
??_C@_0EA@FBKHKEFD@look_rel_down?7?7?7?7DOWN?7MODIFIER_@ DB 'look_rel_dow'
	DB	'n', 09H, 09H, 09H, 09H, 'DOWN', 09H, 'MODIFIER_LEFT_CONTROL', 09H
	DB	'KEY_STATE_DOWN', 09H, 09H, 09H, 09H, 0aH, 00H ; `string'
CONST	ENDS
;	COMDAT ??_C@_0DN@FIJLGMDN@look_rel_up?7?7?7?7UP?7MODIFIER_LEFT@
CONST	SEGMENT
??_C@_0DN@FIJLGMDN@look_rel_up?7?7?7?7UP?7MODIFIER_LEFT@ DB 'look_rel_up', 09H
	DB	09H, 09H, 09H, 'UP', 09H, 'MODIFIER_LEFT_CONTROL', 09H, 'KEY_S'
	DB	'TATE_DOWN', 09H, 09H, 09H, 09H, 09H, 0aH, 00H ; `string'
CONST	ENDS
;	COMDAT ??_C@_0EC@CDOODIAG@look_rel_right?7?7?7?7RIGHT?7MODIFIE@
CONST	SEGMENT
??_C@_0EC@CDOODIAG@look_rel_right?7?7?7?7RIGHT?7MODIFIE@ DB 'look_rel_rig'
	DB	'ht', 09H, 09H, 09H, 09H, 'RIGHT', 09H, 'MODIFIER_LEFT_CONTROL'
	DB	09H, 'KEY_STATE_DOWN', 09H, 09H, 09H, 09H, 0aH, 00H ; `string'
CONST	ENDS
;	COMDAT ??_C@_0EA@KKGBEAJM@look_rel_left?7?7?7?7LEFT?7MODIFIER_@
CONST	SEGMENT
??_C@_0EA@KKGBEAJM@look_rel_left?7?7?7?7LEFT?7MODIFIER_@ DB 'look_rel_lef'
	DB	't', 09H, 09H, 09H, 09H, 'LEFT', 09H, 'MODIFIER_LEFT_CONTROL', 09H
	DB	'KEY_STATE_DOWN', 09H, 09H, 09H, 09H, 0aH, 00H ; `string'
CONST	ENDS
;	COMDAT ??_C@_0FJ@FHHIAOJE@toggle_display_in_flight_intell@
CONST	SEGMENT
??_C@_0FJ@FHHIAOJE@toggle_display_in_flight_intell@ DB 'toggle_display_in'
	DB	'_flight_intelligence_messages', 09H, 'F12', 09H, 'MODIFIER_LE'
	DB	'FT_CONTROL', 09H, 'KEY_STATE_DOWN', 0aH, 00H ; `string'
CONST	ENDS
;	COMDAT ??_C@_0CP@EGCJDEOD@?$CD?5Toggle?5intelligence?5messages?7@
CONST	SEGMENT
??_C@_0CP@EGCJDEOD@?$CD?5Toggle?5intelligence?5messages?7@ DB '# Toggle i'
	DB	'ntelligence messages', 09H, 09H, 09H, 09H, 09H, 09H, 09H, 09H
	DB	09H, 09H, 09H, 09H, 09H, 09H, 09H, 0aH, 00H	; `string'
CONST	ENDS
;	COMDAT ??_C@_0EB@ODCFOKAG@toggle_inset_target?7?7?7F12?7MODIF@
CONST	SEGMENT
??_C@_0EB@ODCFOKAG@toggle_inset_target?7?7?7F12?7MODIF@ DB 'toggle_inset_'
	DB	'target', 09H, 09H, 09H, 'F12', 09H, 'MODIFIER_LEFT_ALT', 09H, 'K'
	DB	'EY_STATE_DOWN', 09H, 09H, 09H, 09H, 09H, 0aH, 00H ; `string'
CONST	ENDS
;	COMDAT ??_C@_0CI@NCLPNAAM@?$CD?5Toggle?5inset?5target?7?7?7?7?7?7?7?7?7?7@
CONST	SEGMENT
??_C@_0CI@NCLPNAAM@?$CD?5Toggle?5inset?5target?7?7?7?7?7?7?7?7?7?7@ DB '#'
	DB	' Toggle inset target', 09H, 09H, 09H, 09H, 09H, 09H, 09H, 09H
	DB	09H, 09H, 09H, 09H, 09H, 09H, 09H, 09H, 09H, 0aH, 00H ; `string'
CONST	ENDS
;	COMDAT ??_C@_0EE@HNPHAJLF@toggle_object_text?7?7?7F12?7MODIFI@
CONST	SEGMENT
??_C@_0EE@HNPHAJLF@toggle_object_text?7?7?7F12?7MODIFI@ DB 'toggle_object'
	DB	'_text', 09H, 09H, 09H, 'F12', 09H, 'MODIFIER_LEFT_CONTROL', 09H
	DB	'KEY_STATE_DOWN', 09H, 09H, 09H, 09H, 09H, 0aH, 00H ; `string'
CONST	ENDS
;	COMDAT ??_C@_0CM@IAOKOEII@?$CD?5Toggle?5viewed?5object?5text?7?7?7?7@
CONST	SEGMENT
??_C@_0CM@IAOKOEII@?$CD?5Toggle?5viewed?5object?5text?7?7?7?7@ DB '# Togg'
	DB	'le viewed object text', 09H, 09H, 09H, 09H, 09H, 09H, 09H, 09H
	DB	09H, 09H, 09H, 09H, 09H, 09H, 09H, 0aH, 00H	; `string'
CONST	ENDS
;	COMDAT ??_C@_0DM@JOJEMPFC@toggle_view_menu?7?7?7F12?7MODIFIER@
CONST	SEGMENT
??_C@_0DM@JOJEMPFC@toggle_view_menu?7?7?7F12?7MODIFIER@ DB 'toggle_view_m'
	DB	'enu', 09H, 09H, 09H, 'F12', 09H, 'MODIFIER_NONE', 09H, 09H, 'K'
	DB	'EY_STATE_DOWN', 09H, 09H, 09H, 09H, 09H, 09H, 0aH, 00H ; `string'
CONST	ENDS
;	COMDAT ??_C@_0CN@BJGOGAMF@?$CD?5Toggle?5?8view?5objects?8?5menu?7?7?7@
CONST	SEGMENT
??_C@_0CN@BJGOGAMF@?$CD?5Toggle?5?8view?5objects?8?5menu?7?7?7@ DB '# Tog'
	DB	'gle ''view objects'' menu', 09H, 09H, 09H, 09H, 09H, 09H, 09H
	DB	09H, 09H, 09H, 09H, 09H, 09H, 09H, 09H, 0aH, 00H ; `string'
CONST	ENDS
;	COMDAT ??_C@_0EB@EOEPBAHN@cinematic_camera?7?7?7F11?7MODIFIER@
CONST	SEGMENT
??_C@_0EB@EOEPBAHN@cinematic_camera?7?7?7F11?7MODIFIER@ DB 'cinematic_cam'
	DB	'era', 09H, 09H, 09H, 'F11', 09H, 'MODIFIER_LEFT_SHIFT', 09H, 'K'
	DB	'EY_STATE_DOWN', 09H, 09H, 09H, 09H, 09H, 09H, 0aH, 00H ; `string'
CONST	ENDS
;	COMDAT ??_C@_0CG@PDEPGBHJ@?$CD?5Cinematic?5camera?7?7?7?7?7?7?7?7?7?7?7?7?7@
CONST	SEGMENT
??_C@_0CG@PDEPGBHJ@?$CD?5Cinematic?5camera?7?7?7?7?7?7?7?7?7?7?7?7?7@ DB '#'
	DB	' Cinematic camera', 09H, 09H, 09H, 09H, 09H, 09H, 09H, 09H, 09H
	DB	09H, 09H, 09H, 09H, 09H, 09H, 09H, 09H, 09H, 0aH, 00H ; `string'
CONST	ENDS
;	COMDAT ??_C@_0DM@HFIKIHIM@camera_auto_edit?7?7?7F11?7MODIFIER@
CONST	SEGMENT
??_C@_0DM@HFIKIHIM@camera_auto_edit?7?7?7F11?7MODIFIER@ DB 'camera_auto_e'
	DB	'dit', 09H, 09H, 09H, 'F11', 09H, 'MODIFIER_NONE', 09H, 09H, 'K'
	DB	'EY_STATE_DOWN', 09H, 09H, 09H, 09H, 09H, 09H, 0aH, 00H ; `string'
CONST	ENDS
;	COMDAT ??_C@_0CG@BFLPKMAA@?$CD?5Auto?5Action?5View?7?7?7?7?7?7?7?7?7?7?7?7?7@
CONST	SEGMENT
??_C@_0CG@BFLPKMAA@?$CD?5Auto?5Action?5View?7?7?7?7?7?7?7?7?7?7?7?7?7@ DB '#'
	DB	' Auto Action View', 09H, 09H, 09H, 09H, 09H, 09H, 09H, 09H, 09H
	DB	09H, 09H, 09H, 09H, 09H, 09H, 09H, 09H, 09H, 0aH, 00H ; `string'
CONST	ENDS
;	COMDAT ??_C@_0DO@ILINIPPD@crew_camera?7?7?7?7F11?7MODIFIER_LEF@
CONST	SEGMENT
??_C@_0DO@ILINIPPD@crew_camera?7?7?7?7F11?7MODIFIER_LEF@ DB 'crew_camera', 09H
	DB	09H, 09H, 09H, 'F11', 09H, 'MODIFIER_LEFT_CONTROL', 09H, 'KEY_'
	DB	'STATE_DOWN', 09H, 09H, 09H, 09H, 09H, 0aH, 00H ; `string'
CONST	ENDS
;	COMDAT ??_C@_0CC@DCGCJOGO@?$CD?5Crew?5Camera?7?7?7?7?7?7?7?7?7?7?7?7?7?7?7?7?7?7@
CONST	SEGMENT
??_C@_0CC@DCGCJOGO@?$CD?5Crew?5Camera?7?7?7?7?7?7?7?7?7?7?7?7?7?7?7?7?7?7@ DB '#'
	DB	' Crew Camera', 09H, 09H, 09H, 09H, 09H, 09H, 09H, 09H, 09H, 09H
	DB	09H, 09H, 09H, 09H, 09H, 09H, 09H, 09H, 09H, 0aH, 00H ; `string'
CONST	ENDS
;	COMDAT ??_C@_0DN@JPNCNIJN@weapon_camera?7?7?7?7F10?7MODIFIER_L@
CONST	SEGMENT
??_C@_0DN@JPNCNIJN@weapon_camera?7?7?7?7F10?7MODIFIER_L@ DB 'weapon_camer'
	DB	'a', 09H, 09H, 09H, 09H, 'F10', 09H, 'MODIFIER_LEFT_ALT', 09H, 'K'
	DB	'EY_STATE_DOWN', 09H, 09H, 09H, 09H, 09H, 09H, 0aH, 00H ; `string'
CONST	ENDS
;	COMDAT ??_C@_0CC@PLBCLLDE@?$CD?5Weapon?5view?7?7?7?7?7?7?7?7?7?7?7?7?7?7?7?7?7?7@
CONST	SEGMENT
??_C@_0CC@PLBCLLDE@?$CD?5Weapon?5view?7?7?7?7?7?7?7?7?7?7?7?7?7?7?7?7?7?7@ DB '#'
	DB	' Weapon view', 09H, 09H, 09H, 09H, 09H, 09H, 09H, 09H, 09H, 09H
	DB	09H, 09H, 09H, 09H, 09H, 09H, 09H, 09H, 09H, 0aH, 00H ; `string'
CONST	ENDS
;	COMDAT ??_C@_0EA@IPIACGNC@static_camera?7?7?7?7F10?7MODIFIER_L@
CONST	SEGMENT
??_C@_0EA@IPIACGNC@static_camera?7?7?7?7F10?7MODIFIER_L@ DB 'static_camer'
	DB	'a', 09H, 09H, 09H, 09H, 'F10', 09H, 'MODIFIER_LEFT_CONTROL', 09H
	DB	'KEY_STATE_DOWN', 09H, 09H, 09H, 09H, 09H, 0aH, 00H ; `string'
CONST	ENDS
;	COMDAT ??_C@_0CD@NMHPKFKN@?$CD?5Static?5camera?7?7?7?7?7?7?7?7?7?7?7?7?7?7?7?7@
CONST	SEGMENT
??_C@_0CD@NMHPKFKN@?$CD?5Static?5camera?7?7?7?7?7?7?7?7?7?7?7?7?7?7?7?7@ DB '#'
	DB	' Static camera', 09H, 09H, 09H, 09H, 09H, 09H, 09H, 09H, 09H, 09H
	DB	09H, 09H, 09H, 09H, 09H, 09H, 09H, 09H, 0aH, 00H ; `string'
CONST	ENDS
;	COMDAT ??_C@_0DN@NPPNPGE@drop_camera?7?7?7?7F10?7MODIFIER_LEF@
CONST	SEGMENT
??_C@_0DN@NPPNPGE@drop_camera?7?7?7?7F10?7MODIFIER_LEF@ DB 'drop_camera', 09H
	DB	09H, 09H, 09H, 'F10', 09H, 'MODIFIER_LEFT_SHIFT', 09H, 'KEY_ST'
	DB	'ATE_DOWN', 09H, 09H, 09H, 09H, 09H, 09H, 0aH, 00H ; `string'
CONST	ENDS
;	COMDAT ??_C@_0CC@DICGFNFH@?$CD?5Drop?5Camera?7?7?7?7?7?7?7?7?7?7?7?7?7?7?7?7?7?7@
CONST	SEGMENT
??_C@_0CC@DICGFNFH@?$CD?5Drop?5Camera?7?7?7?7?7?7?7?7?7?7?7?7?7?7?7?7?7?7@ DB '#'
	DB	' Drop Camera', 09H, 09H, 09H, 09H, 09H, 09H, 09H, 09H, 09H, 09H
	DB	09H, 09H, 09H, 09H, 09H, 09H, 09H, 09H, 09H, 0aH, 00H ; `string'
CONST	ENDS
;	COMDAT ??_C@_0DK@ODOACDOJ@fly_by_camera?7?7?7?7F10?7MODIFIER_N@
CONST	SEGMENT
??_C@_0DK@ODOACDOJ@fly_by_camera?7?7?7?7F10?7MODIFIER_N@ DB 'fly_by_camer'
	DB	'a', 09H, 09H, 09H, 09H, 'F10', 09H, 'MODIFIER_NONE', 09H, 09H
	DB	'KEY_STATE_DOWN', 09H, 09H, 09H, 09H, 09H, 09H, 0aH, 00H ; `string'
CONST	ENDS
;	COMDAT ??_C@_0CD@IGBMPKC@?$CD?5Fly?5by?5camera?7?7?7?7?7?7?7?7?7?7?7?7?7?7?7?7@
CONST	SEGMENT
??_C@_0CD@IGBMPKC@?$CD?5Fly?5by?5camera?7?7?7?7?7?7?7?7?7?7?7?7?7?7?7?7@ DB '#'
	DB	' Fly by camera', 09H, 09H, 09H, 09H, 09H, 09H, 09H, 09H, 09H, 09H
	DB	09H, 09H, 09H, 09H, 09H, 09H, 09H, 09H, 0aH, 00H ; `string'
CONST	ENDS
;	COMDAT ??_C@_0EJ@CKGGALIF@toggle_chase_camera_lock_rotate@
CONST	SEGMENT
??_C@_0EJ@CKGGALIF@toggle_chase_camera_lock_rotate@ DB 'toggle_chase_came'
	DB	'ra_lock_rotate', 09H, 09H, 'F9', 09H, 'MODIFIER_LEFT_ALT', 09H
	DB	'KEY_STATE_DOWN', 09H, 09H, 09H, 0aH, 00H	; `string'
CONST	ENDS
;	COMDAT ??_C@_0EI@FLFGHLCE@reset_chase_camera_position?7?7F9@
CONST	SEGMENT
??_C@_0EI@FLFGHLCE@reset_chase_camera_position?7?7F9@ DB 'reset_chase_cam'
	DB	'era_position', 09H, 09H, 'F9', 09H, 'MODIFIER_LEFT_SHIFT', 09H
	DB	'KEY_STATE_DOWN', 09H, 09H, 09H, 09H, 0aH, 00H ; `string'
CONST	ENDS
;	COMDAT ??_C@_0DI@KMNDOMLP@chase_camera?7?7?7?7F9?7MODIFIER_NON@
CONST	SEGMENT
??_C@_0DI@KMNDOMLP@chase_camera?7?7?7?7F9?7MODIFIER_NON@ DB 'chase_camera'
	DB	09H, 09H, 09H, 09H, 'F9', 09H, 'MODIFIER_NONE', 09H, 09H, 'KEY'
	DB	'_STATE_DOWN', 09H, 09H, 09H, 09H, 09H, 09H, 0aH, 00H ; `string'
CONST	ENDS
;	COMDAT ??_C@_0CD@JBLBIFD@?$CD?5Chase?5camera?7?7?7?7?7?7?7?7?7?7?7?7?7?7?7?7?7@
CONST	SEGMENT
??_C@_0CD@JBLBIFD@?$CD?5Chase?5camera?7?7?7?7?7?7?7?7?7?7?7?7?7?7?7?7?7@ DB '#'
	DB	' Chase camera', 09H, 09H, 09H, 09H, 09H, 09H, 09H, 09H, 09H, 09H
	DB	09H, 09H, 09H, 09H, 09H, 09H, 09H, 09H, 09H, 0aH, 00H ; `string'
CONST	ENDS
;	COMDAT ??_C@_0ED@LAAOMHIM@view_available_gunships?7?7?7F8?7MO@
CONST	SEGMENT
??_C@_0ED@LAAOMHIM@view_available_gunships?7?7?7F8?7MO@ DB 'view_availabl'
	DB	'e_gunships', 09H, 09H, 09H, 'F8', 09H, 'MODIFIER_LEFT_ALT', 09H
	DB	'KEY_STATE_DOWN', 09H, 09H, 09H, 09H, 0aH, 00H ; `string'
CONST	ENDS
;	COMDAT ??_C@_0DP@MCIHNHB@previous_object?7?7?7?7F8?7MODIFIER_@
CONST	SEGMENT
??_C@_0DP@MCIHNHB@previous_object?7?7?7?7F8?7MODIFIER_@ DB 'previous_obje'
	DB	'ct', 09H, 09H, 09H, 09H, 'F8', 09H, 'MODIFIER_LEFT_SHIFT', 09H
	DB	'KEY_STATE_DOWN', 09H, 09H, 09H, 09H, 09H, 0aH, 00H ; `string'
CONST	ENDS
;	COMDAT ??_C@_0DK@KNKCAKPE@players_padlock?7?7?7?7F8?7MODIFIER_@
CONST	SEGMENT
??_C@_0DK@KNKCAKPE@players_padlock?7?7?7?7F8?7MODIFIER_@ DB 'players_padl'
	DB	'ock', 09H, 09H, 09H, 09H, 'F8', 09H, 'MODIFIER_NONE', 09H, 09H
	DB	'KEY_STATE_DOWN', 09H, 09H, 09H, 09H, 09H, 0aH, 00H ; `string'
CONST	ENDS
;	COMDAT ??_C@_0CJ@KCDDFNDE@?$CD?5View?5padlocked?5object?7?7?7?7?7?7?7?7@
CONST	SEGMENT
??_C@_0CJ@KCDDFNDE@?$CD?5View?5padlocked?5object?7?7?7?7?7?7?7?7@ DB '# V'
	DB	'iew padlocked object', 09H, 09H, 09H, 09H, 09H, 09H, 09H, 09H
	DB	09H, 09H, 09H, 09H, 09H, 09H, 09H, 09H, 0aH, 00H ; `string'
CONST	ENDS
;	COMDAT ??_C@_0DN@IDJNDELC@next_object?7?7?7?7F8?7MODIFIER_LEFT@
CONST	SEGMENT
??_C@_0DN@IDJNDELC@next_object?7?7?7?7F8?7MODIFIER_LEFT@ DB 'next_object', 09H
	DB	09H, 09H, 09H, 'F8', 09H, 'MODIFIER_LEFT_CONTROL', 09H, 'KEY_S'
	DB	'TATE_DOWN', 09H, 09H, 09H, 09H, 09H, 0aH, 00H ; `string'
CONST	ENDS
;	COMDAT ??_C@_0DL@CDMPEABE@view_players?7?7?7?7F7?7MODIFIER_LEF@
CONST	SEGMENT
??_C@_0DL@CDMPEABE@view_players?7?7?7?7F7?7MODIFIER_LEF@ DB 'view_players'
	DB	09H, 09H, 09H, 09H, 'F7', 09H, 'MODIFIER_LEFT_ALT', 09H, 'KEY_'
	DB	'STATE_DOWN', 09H, 09H, 09H, 09H, 09H, 09H, 0aH, 00H ; `string'
CONST	ENDS
;	COMDAT ??_C@_0DO@HCBBKEJF@previous_type?7?7?7?7F7?7MODIFIER_LE@
CONST	SEGMENT
??_C@_0DO@HCBBKEJF@previous_type?7?7?7?7F7?7MODIFIER_LE@ DB 'previous_typ'
	DB	'e', 09H, 09H, 09H, 09H, 'F7', 09H, 'MODIFIER_LEFT_SHIFT', 09H
	DB	'KEY_STATE_DOWN', 09H, 09H, 09H, 09H, 09H, 09H, 0aH, 00H ; `string'
CONST	ENDS
;	COMDAT ??_C@_0DK@MFFBICKM@players_weapon?7?7?7?7F7?7MODIFIER_N@
CONST	SEGMENT
??_C@_0DK@MFFBICKM@players_weapon?7?7?7?7F7?7MODIFIER_N@ DB 'players_weap'
	DB	'on', 09H, 09H, 09H, 09H, 'F7', 09H, 'MODIFIER_NONE', 09H, 09H
	DB	'KEY_STATE_DOWN', 09H, 09H, 09H, 09H, 09H, 09H, 0aH, 00H ; `string'
CONST	ENDS
;	COMDAT ??_C@_0DM@JFCGPLBD@next_type?7?7?7?7F7?7MODIFIER_LEFT_C@
CONST	SEGMENT
??_C@_0DM@JFCGPLBD@next_type?7?7?7?7F7?7MODIFIER_LEFT_C@ DB 'next_type', 09H
	DB	09H, 09H, 09H, 'F7', 09H, 'MODIFIER_LEFT_CONTROL', 09H, 'KEY_S'
	DB	'TATE_DOWN', 09H, 09H, 09H, 09H, 09H, 09H, 0aH, 00H ; `string'
CONST	ENDS
;	COMDAT ??_C@_0DL@EEHJJABL@?$CD?5Next?5type?5when?5viewing?5all?5av@
CONST	SEGMENT
??_C@_0DL@EEHJJABL@?$CD?5Next?5type?5when?5viewing?5all?5av@ DB '# Next t'
	DB	'ype when viewing all available objects', 09H, 09H, 09H, 09H, 09H
	DB	09H, 09H, 09H, 09H, 09H, 09H, 0aH, 00H	; `string'
CONST	ENDS
;	COMDAT ??_C@_0EB@MOPBBENI@previous_category?7?7?7F6?7MODIFIER@
CONST	SEGMENT
??_C@_0EB@MOPBBENI@previous_category?7?7?7F6?7MODIFIER@ DB 'previous_cate'
	DB	'gory', 09H, 09H, 09H, 'F6', 09H, 'MODIFIER_LEFT_SHIFT', 09H, 'K'
	DB	'EY_STATE_DOWN', 09H, 09H, 09H, 09H, 09H, 09H, 0aH, 00H ; `string'
CONST	ENDS
;	COMDAT ??_C@_0DP@HMNHOKIC@next_category?7?7?7?7F6?7MODIFIER_LE@
CONST	SEGMENT
??_C@_0DP@HMNHOKIC@next_category?7?7?7?7F6?7MODIFIER_LE@ DB 'next_categor'
	DB	'y', 09H, 09H, 09H, 09H, 'F6', 09H, 'MODIFIER_LEFT_CONTROL', 09H
	DB	'KEY_STATE_DOWN', 09H, 09H, 09H, 09H, 09H, 0aH, 00H ; `string'
CONST	ENDS
;	COMDAT ??_C@_0DO@HGEFNFAA@?$CD?5Next?5category?5when?5viewing?5al@
CONST	SEGMENT
??_C@_0DO@HGEFNFAA@?$CD?5Next?5category?5when?5viewing?5al@ DB '# Next ca'
	DB	'tegory when viewing all available objects', 09H, 09H, 09H, 09H
	DB	09H, 09H, 09H, 09H, 09H, 09H, 0aH, 00H	; `string'
CONST	ENDS
;	COMDAT ??_C@_0DL@CNHLGJDM@view_wingmen?7?7?7?7F6?7MODIFIER_LEF@
CONST	SEGMENT
??_C@_0DL@CNHLGJDM@view_wingmen?7?7?7?7F6?7MODIFIER_LEF@ DB 'view_wingmen'
	DB	09H, 09H, 09H, 09H, 'F6', 09H, 'MODIFIER_LEFT_ALT', 09H, 'KEY_'
	DB	'STATE_DOWN', 09H, 09H, 09H, 09H, 09H, 09H, 0aH, 00H ; `string'
CONST	ENDS
;	COMDAT ??_C@_0CD@OOKAMJEL@?$CD?5Wingman?5View?7?7?7?7?7?7?7?7?7?7?7?7?7?7?7?7?7@
CONST	SEGMENT
??_C@_0CD@OOKAMJEL@?$CD?5Wingman?5View?7?7?7?7?7?7?7?7?7?7?7?7?7?7?7?7?7@ DB '#'
	DB	' Wingman View', 09H, 09H, 09H, 09H, 09H, 09H, 09H, 09H, 09H, 09H
	DB	09H, 09H, 09H, 09H, 09H, 09H, 09H, 09H, 09H, 0aH, 00H ; `string'
CONST	ENDS
;	COMDAT ??_C@_0DK@ENFGDLJN@players_target?7?7?7?7F6?7MODIFIER_N@
CONST	SEGMENT
??_C@_0DK@ENFGDLJN@players_target?7?7?7?7F6?7MODIFIER_N@ DB 'players_targ'
	DB	'et', 09H, 09H, 09H, 09H, 'F6', 09H, 'MODIFIER_NONE', 09H, 09H
	DB	'KEY_STATE_DOWN', 09H, 09H, 09H, 09H, 09H, 09H, 0aH, 00H ; `string'
CONST	ENDS
;	COMDAT ??_C@_0CC@LGHFJKDO@?$CD?5Target?5View?7?7?7?7?7?7?7?7?7?7?7?7?7?7?7?7?7?7@
CONST	SEGMENT
??_C@_0CC@LGHFJKDO@?$CD?5Target?5View?7?7?7?7?7?7?7?7?7?7?7?7?7?7?7?7?7?7@ DB '#'
	DB	' Target View', 09H, 09H, 09H, 09H, 09H, 09H, 09H, 09H, 09H, 09H
	DB	09H, 09H, 09H, 09H, 09H, 09H, 09H, 09H, 09H, 0aH, 00H ; `string'
CONST	ENDS
;	COMDAT ??_C@_0DK@ELIMNKDP@players_gunship?7?7?7?7F5?7MODIFIER_@
CONST	SEGMENT
??_C@_0DK@ELIMNKDP@players_gunship?7?7?7?7F5?7MODIFIER_@ DB 'players_guns'
	DB	'hip', 09H, 09H, 09H, 09H, 'F5', 09H, 'MODIFIER_NONE', 09H, 09H
	DB	'KEY_STATE_DOWN', 09H, 09H, 09H, 09H, 09H, 0aH, 00H ; `string'
CONST	ENDS
;	COMDAT ??_C@_0CD@EAJMHPIC@?$CD?5Outside?5view?7?7?7?7?7?7?7?7?7?7?7?7?7?7?7?7?7@
CONST	SEGMENT
??_C@_0CD@EAJMHPIC@?$CD?5Outside?5view?7?7?7?7?7?7?7?7?7?7?7?7?7?7?7?7?7@ DB '#'
	DB	' Outside view', 09H, 09H, 09H, 09H, 09H, 09H, 09H, 09H, 09H, 09H
	DB	09H, 09H, 09H, 09H, 09H, 09H, 09H, 09H, 09H, 0aH, 00H ; `string'
CONST	ENDS
;	COMDAT ??_C@_0DI@DKMNDFCD@view_all?7?7?7?7F5?7MODIFIER_LEFT_AL@
CONST	SEGMENT
??_C@_0DI@DKMNDFCD@view_all?7?7?7?7F5?7MODIFIER_LEFT_AL@ DB 'view_all', 09H
	DB	09H, 09H, 09H, 'F5', 09H, 'MODIFIER_LEFT_ALT', 09H, 'KEY_STATE'
	DB	'_DOWN', 09H, 09H, 09H, 09H, 09H, 09H, 09H, 0aH, 00H ; `string'
CONST	ENDS
;	COMDAT ??_C@_0CN@CKBOLBHD@?$CD?5View?5all?5available?5objects?7?7?7@
CONST	SEGMENT
??_C@_0CN@CKBOLBHD@?$CD?5View?5all?5available?5objects?7?7?7@ DB '# View '
	DB	'all available objects', 09H, 09H, 09H, 09H, 09H, 09H, 09H, 09H
	DB	09H, 09H, 09H, 09H, 09H, 09H, 09H, 0aH, 00H	; `string'
CONST	ENDS
;	COMDAT ??_C@_0DO@CEKMNPHH@previous_side?7?7?7?7F5?7MODIFIER_LE@
CONST	SEGMENT
??_C@_0DO@CEKMNPHH@previous_side?7?7?7?7F5?7MODIFIER_LE@ DB 'previous_sid'
	DB	'e', 09H, 09H, 09H, 09H, 'F5', 09H, 'MODIFIER_LEFT_SHIFT', 09H
	DB	'KEY_STATE_DOWN', 09H, 09H, 09H, 09H, 09H, 09H, 0aH, 00H ; `string'
CONST	ENDS
;	COMDAT ??_C@_0DM@DOLJJEHE@next_side?7?7?7?7F5?7MODIFIER_LEFT_C@
CONST	SEGMENT
??_C@_0DM@DOLJJEHE@next_side?7?7?7?7F5?7MODIFIER_LEFT_C@ DB 'next_side', 09H
	DB	09H, 09H, 09H, 'F5', 09H, 'MODIFIER_LEFT_CONTROL', 09H, 'KEY_S'
	DB	'TATE_DOWN', 09H, 09H, 09H, 09H, 09H, 09H, 0aH, 00H ; `string'
CONST	ENDS
;	COMDAT ??_C@_0DO@BMPAIJFJ@?$CD?5?8Side?8?5setting?5when?5viewing?5a@
CONST	SEGMENT
??_C@_0DO@BMPAIJFJ@?$CD?5?8Side?8?5setting?5when?5viewing?5a@ DB '# ''Sid'
	DB	'e'' setting when viewing all available objects', 09H, 09H, 09H
	DB	09H, 09H, 09H, 09H, 09H, 09H, 0aH, 00H	; `string'
CONST	ENDS
;	COMDAT ??_C@_0DL@FPDKMOJA@look_at_special2?7?7?7F4?7MODIFIER_@
CONST	SEGMENT
??_C@_0DL@FPDKMOJA@look_at_special2?7?7?7F4?7MODIFIER_@ DB 'look_at_speci'
	DB	'al2', 09H, 09H, 09H, 'F4', 09H, 'MODIFIER_NONE', 09H, 09H, 'K'
	DB	'EY_STATE_DOWN', 09H, 09H, 09H, 09H, 09H, 09H, 0aH, 00H ; `string'
CONST	ENDS
;	COMDAT ??_C@_0EF@DDHOMJMC@increase_3d_resolutions?7?7?7F4?7MO@
CONST	SEGMENT
??_C@_0EF@DDHOMJMC@increase_3d_resolutions?7?7?7F4?7MO@ DB 'increase_3d_r'
	DB	'esolutions', 09H, 09H, 09H, 'F4', 09H, 'MODIFIER_LEFT_SHIFT', 09H
	DB	'KEY_STATE_DOWN', 09H, 09H, 09H, 09H, 0aH, 00H ; `string'
CONST	ENDS
;	COMDAT ??_C@_0EG@BLJAAJIL@increase_cockpit_detail?7?7?7F4?7MO@
CONST	SEGMENT
??_C@_0EG@BLJAAJIL@increase_cockpit_detail?7?7?7F4?7MO@ DB 'increase_cock'
	DB	'pit_detail', 09H, 09H, 09H, 'F4', 09H, 'MODIFIER_LEFT_CONTROL'
	DB	09H, 'KEY_STATE_DOWN', 09H, 09H, 09H, 0aH, 00H ; `string'
CONST	ENDS
;	COMDAT ??_C@_0DL@BDIMLCCI@look_at_special1?7?7?7F3?7MODIFIER_@
CONST	SEGMENT
??_C@_0DL@BDIMLCCI@look_at_special1?7?7?7F3?7MODIFIER_@ DB 'look_at_speci'
	DB	'al1', 09H, 09H, 09H, 'F3', 09H, 'MODIFIER_NONE', 09H, 09H, 'K'
	DB	'EY_STATE_DOWN', 09H, 09H, 09H, 09H, 09H, 09H, 0aH, 00H ; `string'
CONST	ENDS
;	COMDAT ??_C@_0EF@PLBEEDJF@decrease_3d_resolutions?7?7?7F3?7MO@
CONST	SEGMENT
??_C@_0EF@PLBEEDJF@decrease_3d_resolutions?7?7?7F3?7MO@ DB 'decrease_3d_r'
	DB	'esolutions', 09H, 09H, 09H, 'F3', 09H, 'MODIFIER_LEFT_SHIFT', 09H
	DB	'KEY_STATE_DOWN', 09H, 09H, 09H, 09H, 0aH, 00H ; `string'
CONST	ENDS
;	COMDAT ??_C@_0EG@OOFHKHFG@decrease_cockpit_detail?7?7?7F3?7MO@
CONST	SEGMENT
??_C@_0EG@OOFHKHFG@decrease_cockpit_detail?7?7?7F3?7MO@ DB 'decrease_cock'
	DB	'pit_detail', 09H, 09H, 09H, 'F3', 09H, 'MODIFIER_LEFT_CONTROL'
	DB	09H, 'KEY_STATE_DOWN', 09H, 09H, 09H, 0aH, 00H ; `string'
CONST	ENDS
;	COMDAT ??_C@_0DK@BALOHPHI@hud_view?7?7?7?7F2?7MODIFIER_LEFT_SH@
CONST	SEGMENT
??_C@_0DK@BALOHPHI@hud_view?7?7?7?7F2?7MODIFIER_LEFT_SH@ DB 'hud_view', 09H
	DB	09H, 09H, 09H, 'F2', 09H, 'MODIFIER_LEFT_SHIFT', 09H, 'KEY_STA'
	DB	'TE_DOWN', 09H, 09H, 09H, 09H, 09H, 09H, 09H, 0aH, 00H ; `string'
CONST	ENDS
;	COMDAT ??_C@_0CG@ELIHEJEN@?$CD?5Toggles?5HUD?5view?7?7?7?7?7?7?7?7?7?7?7?7?7@
CONST	SEGMENT
??_C@_0CG@ELIHEJEN@?$CD?5Toggles?5HUD?5view?7?7?7?7?7?7?7?7?7?7?7?7?7@ DB '#'
	DB	' Toggles HUD view', 09H, 09H, 09H, 09H, 09H, 09H, 09H, 09H, 09H
	DB	09H, 09H, 09H, 09H, 09H, 09H, 09H, 09H, 09H, 0aH, 00H ; `string'
CONST	ENDS
;	COMDAT ??_C@_0EE@OHBJCPPE@toggle_glass_cockpit?7?7?7F2?7MODIF@
CONST	SEGMENT
??_C@_0EE@OHBJCPPE@toggle_glass_cockpit?7?7?7F2?7MODIF@ DB 'toggle_glass_'
	DB	'cockpit', 09H, 09H, 09H, 'F2', 09H, 'MODIFIER_LEFT_CONTROL', 09H
	DB	'KEY_STATE_DOWN', 09H, 09H, 09H, 09H, 0aH, 00H ; `string'
CONST	ENDS
;	COMDAT ??_C@_0DD@NEJAAIIG@?$CD?5Toggles?5see?9through?5cockpit?5s@
CONST	SEGMENT
??_C@_0DD@NEJAAIIG@?$CD?5Toggles?5see?9through?5cockpit?5s@ DB '# Toggles'
	DB	' see-through cockpit struts', 09H, 09H, 09H, 09H, 09H, 09H, 09H
	DB	09H, 09H, 09H, 09H, 09H, 09H, 0aH, 00H	; `string'
CONST	ENDS
;	COMDAT ??_C@_0EN@DHNOMLFJ@toggle_draw_overlaid_instrument@
CONST	SEGMENT
??_C@_0EN@DHNOMLFJ@toggle_draw_overlaid_instrument@ DB 'toggle_draw_overl'
	DB	'aid_instruments', 09H, 'F2', 09H, 'MODIFIER_LEFT_CONTROL', 09H
	DB	'KEY_STATE_DOWN', 09H, 09H, 09H, 0aH, 00H	; `string'
CONST	ENDS
;	COMDAT ??_C@_0EM@KDCKPJKA@toggle_display_hud_on_external_@
CONST	SEGMENT
??_C@_0EM@KDCKPJKA@toggle_display_hud_on_external_@ DB 'toggle_display_hu'
	DB	'd_on_external_view', 09H, 'F2', 09H, 'MODIFIER_LEFT_ALT', 09H
	DB	'KEY_STATE_DOWN', 09H, 09H, 09H, 0aH, 00H	; `string'
CONST	ENDS
;	COMDAT ??_C@_0CP@POLKMKNH@?$CD?5Toggles?5HUD?5in?5external?5view?7@
CONST	SEGMENT
??_C@_0CP@POLKMKNH@?$CD?5Toggles?5HUD?5in?5external?5view?7@ DB '# Toggle'
	DB	's HUD in external view', 09H, 09H, 09H, 09H, 09H, 09H, 09H, 09H
	DB	09H, 09H, 09H, 09H, 09H, 09H, 09H, 0aH, 00H	; `string'
CONST	ENDS
;	COMDAT ??_C@_0DK@FPFNMNEH@instrument_view?7?7?7?7F2?7MODIFIER_@
CONST	SEGMENT
??_C@_0DK@FPFNMNEH@instrument_view?7?7?7?7F2?7MODIFIER_@ DB 'instrument_v'
	DB	'iew', 09H, 09H, 09H, 09H, 'F2', 09H, 'MODIFIER_NONE', 09H, 09H
	DB	'KEY_STATE_DOWN', 09H, 09H, 09H, 09H, 09H, 0aH, 00H ; `string'
CONST	ENDS
;	COMDAT ??_C@_0CF@POEIILOO@?$CD?5Instrument?5view?7?7?7?7?7?7?7?7?7?7?7?7?7?7@
CONST	SEGMENT
??_C@_0CF@POEIILOO@?$CD?5Instrument?5view?7?7?7?7?7?7?7?7?7?7?7?7?7?7@ DB '#'
	DB	' Instrument view', 09H, 09H, 09H, 09H, 09H, 09H, 09H, 09H, 09H
	DB	09H, 09H, 09H, 09H, 09H, 09H, 09H, 09H, 09H, 0aH, 00H ; `string'
CONST	ENDS
;	COMDAT ??_C@_0EE@BIBGBHBK@toggle_unscaled_displays?7?7F1?7MO@
CONST	SEGMENT
??_C@_0EE@BIBGBHBK@toggle_unscaled_displays?7?7F1?7MO@ DB 'toggle_unscale'
	DB	'd_displays', 09H, 09H, 'F1', 09H, 'MODIFIER_LEFT_ALT', 09H, 'K'
	DB	'EY_STATE_DOWN', 09H, 09H, 09H, 09H, 09H, 0aH, 00H ; `string'
CONST	ENDS
;	COMDAT ??_C@_0CJ@EHLJDMCG@?$CD?5Toggles?5unscaled?5HUD?7?7?7?7?7?7?7?7?7@
CONST	SEGMENT
??_C@_0CJ@EHLJDMCG@?$CD?5Toggles?5unscaled?5HUD?7?7?7?7?7?7?7?7?7@ DB '# '
	DB	'Toggles unscaled HUD', 09H, 09H, 09H, 09H, 09H, 09H, 09H, 09H
	DB	09H, 09H, 09H, 09H, 09H, 09H, 09H, 09H, 09H, 0aH, 00H ; `string'
CONST	ENDS
;	COMDAT ??_C@_0EK@COGFIJMK@toggle_draw_cockpit_graphics?7?7F@
CONST	SEGMENT
??_C@_0EK@COGFIJMK@toggle_draw_cockpit_graphics?7?7F@ DB 'toggle_draw_coc'
	DB	'kpit_graphics', 09H, 09H, 'F1', 09H, 'MODIFIER_LEFT_CONTROL', 09H
	DB	'KEY_STATE_DOWN', 09H, 09H, 09H, 0aH, 00H	; `string'
CONST	ENDS
;	COMDAT ??_C@_0CL@MGMILNDF@?$CD?5Toggles?5No?5Cockpit?5View?7?7?7?7?7?7@
CONST	SEGMENT
??_C@_0CL@MGMILNDF@?$CD?5Toggles?5No?5Cockpit?5View?7?7?7?7?7?7@ DB '# To'
	DB	'ggles No Cockpit View', 09H, 09H, 09H, 09H, 09H, 09H, 09H, 09H
	DB	09H, 09H, 09H, 09H, 09H, 09H, 09H, 09H, 0aH, 00H ; `string'
CONST	ENDS
;	COMDAT ??_C@_0DI@GNNPGNEG@forward_view?7?7?7?7F1?7MODIFIER_NON@
CONST	SEGMENT
??_C@_0DI@GNNPGNEG@forward_view?7?7?7?7F1?7MODIFIER_NON@ DB 'forward_view'
	DB	09H, 09H, 09H, 09H, 'F1', 09H, 'MODIFIER_NONE', 09H, 09H, 'KEY'
	DB	'_STATE_DOWN', 09H, 09H, 09H, 09H, 09H, 09H, 0aH, 00H ; `string'
CONST	ENDS
;	COMDAT ??_C@_0CD@GFENIIGH@?$CD?5Forward?5View?7?7?7?7?7?7?7?7?7?7?7?7?7?7?7?7?7@
CONST	SEGMENT
??_C@_0CD@GFENIIGH@?$CD?5Forward?5View?7?7?7?7?7?7?7?7?7?7?7?7?7?7?7?7?7@ DB '#'
	DB	' Forward View', 09H, 09H, 09H, 09H, 09H, 09H, 09H, 09H, 09H, 09H
	DB	09H, 09H, 09H, 09H, 09H, 09H, 09H, 09H, 09H, 0aH, 00H ; `string'
CONST	ENDS
;	COMDAT ??_C@_0EI@CMBLENEM@set_default_3d_resolutions?7?7F1?7@
CONST	SEGMENT
??_C@_0EI@CMBLENEM@set_default_3d_resolutions?7?7F1?7@ DB 'set_default_3d'
	DB	'_resolutions', 09H, 09H, 'F1', 09H, 'MODIFIER_LEFT_SHIFT', 09H
	DB	'KEY_STATE_DOWN', 09H, 09H, 09H, 09H, 09H, 0aH, 00H ; `string'
CONST	ENDS
;	COMDAT ??_C@_0CH@DAKNHMDJ@?$CD?5Sets?53D?5to?5640?$CK480?7?7?7?7?7?7?7?7?7?7?7@
CONST	SEGMENT
??_C@_0CH@DAKNHMDJ@?$CD?5Sets?53D?5to?5640?$CK480?7?7?7?7?7?7?7?7?7?7?7@ DB '#'
	DB	' Sets 3D to 640*480', 09H, 09H, 09H, 09H, 09H, 09H, 09H, 09H, 09H
	DB	09H, 09H, 09H, 09H, 09H, 09H, 09H, 09H, 0aH, 00H ; `string'
CONST	ENDS
;	COMDAT ??_C@_0EE@HBLANGEF@adjust_view_zoom_out?7?7?7COMMA?7MO@
CONST	SEGMENT
??_C@_0EE@HBLANGEF@adjust_view_zoom_out?7?7?7COMMA?7MO@ DB 'adjust_view_z'
	DB	'oom_out', 09H, 09H, 09H, 'COMMA', 09H, 'MODIFIER_LEFT_ALT', 09H
	DB	'KEY_STATE_EITHER', 09H, 09H, 09H, 0aH, 00H	; `string'
CONST	ENDS
;	COMDAT ??_C@_0EE@LGOCFMNF@adjust_view_zoom_in?7?7?7PERIOD?7MO@
CONST	SEGMENT
??_C@_0EE@LGOCFMNF@adjust_view_zoom_in?7?7?7PERIOD?7MO@ DB 'adjust_view_z'
	DB	'oom_in', 09H, 09H, 09H, 'PERIOD', 09H, 'MODIFIER_LEFT_ALT', 09H
	DB	'KEY_STATE_EITHER', 09H, 09H, 09H, 0aH, 00H	; `string'
CONST	ENDS
;	COMDAT ??_C@_0EA@LAONOHEG@adjust_view_down?7?7?7DOWN?7MODIFIE@
CONST	SEGMENT
??_C@_0EA@LAONOHEG@adjust_view_down?7?7?7DOWN?7MODIFIE@ DB 'adjust_view_d'
	DB	'own', 09H, 09H, 09H, 'DOWN', 09H, 'MODIFIER_LEFT_ALT', 09H, 'K'
	DB	'EY_STATE_EITHER', 09H, 09H, 09H, 09H, 0aH, 00H ; `string'
CONST	ENDS
;	COMDAT ??_C@_0DO@IOKECKKI@adjust_view_up?7?7?7?7UP?7MODIFIER_L@
CONST	SEGMENT
??_C@_0DO@IOKECKKI@adjust_view_up?7?7?7?7UP?7MODIFIER_L@ DB 'adjust_view_'
	DB	'up', 09H, 09H, 09H, 09H, 'UP', 09H, 'MODIFIER_LEFT_ALT', 09H, 'K'
	DB	'EY_STATE_EITHER', 09H, 09H, 09H, 09H, 09H, 0aH, 00H ; `string'
CONST	ENDS
;	COMDAT ??_C@_0EC@OCENNHIH@adjust_view_right?7?7?7RIGHT?7MODIF@
CONST	SEGMENT
??_C@_0EC@OCENNHIH@adjust_view_right?7?7?7RIGHT?7MODIF@ DB 'adjust_view_r'
	DB	'ight', 09H, 09H, 09H, 'RIGHT', 09H, 'MODIFIER_LEFT_ALT', 09H, 'K'
	DB	'EY_STATE_EITHER', 09H, 09H, 09H, 09H, 0aH, 00H ; `string'
CONST	ENDS
;	COMDAT ??_C@_0EA@BKIBBBAF@adjust_view_left?7?7?7LEFT?7MODIFIE@
CONST	SEGMENT
??_C@_0EA@BKIBBBAF@adjust_view_left?7?7?7LEFT?7MODIFIE@ DB 'adjust_view_l'
	DB	'eft', 09H, 09H, 09H, 'LEFT', 09H, 'MODIFIER_LEFT_ALT', 09H, 'K'
	DB	'EY_STATE_EITHER', 09H, 09H, 09H, 09H, 0aH, 00H ; `string'
CONST	ENDS
;	COMDAT ??_C@_0CF@GCJACHFN@?$CD?5Outside?5panning?7?7?7?7?7?7?7?7?7?7?7?7?7?7@
CONST	SEGMENT
??_C@_0CF@GCJACHFN@?$CD?5Outside?5panning?7?7?7?7?7?7?7?7?7?7?7?7?7?7@ DB '#'
	DB	' Outside panning', 09H, 09H, 09H, 09H, 09H, 09H, 09H, 09H, 09H
	DB	09H, 09H, 09H, 09H, 09H, 09H, 09H, 09H, 09H, 0aH, 00H ; `string'
CONST	ENDS
;	COMDAT ??_C@_0EC@CJFLHCME@select_rhs_mission_mfd?7?7?70?7MODI@
CONST	SEGMENT
??_C@_0EC@CJFLHCME@select_rhs_mission_mfd?7?7?70?7MODI@ DB 'select_rhs_mi'
	DB	'ssion_mfd', 09H, 09H, 09H, '0', 09H, 'MODIFIER_LEFT_ALT', 09H
	DB	'KEY_STATE_DOWN', 09H, 09H, 09H, 09H, 09H, 0aH, 00H ; `string'
CONST	ENDS
;	COMDAT ??_C@_0EF@BAENOMND@select_lhs_mission_mfd?7?7?70?7MODI@
CONST	SEGMENT
??_C@_0EF@BAENOMND@select_lhs_mission_mfd?7?7?70?7MODI@ DB 'select_lhs_mi'
	DB	'ssion_mfd', 09H, 09H, 09H, '0', 09H, 'MODIFIER_LEFT_CONTROL', 09H
	DB	'KEY_STATE_DOWN', 09H, 09H, 09H, 09H, 0aH, 00H ; `string'
CONST	ENDS
;	COMDAT ??_C@_0DL@LNLDDKMJ@?$CD?5Set?5Left?1Right?5Hand?5Side?5MFD?5@
CONST	SEGMENT
??_C@_0DL@LNLDDKMJ@?$CD?5Set?5Left?1Right?5Hand?5Side?5MFD?5@ DB '# Set L'
	DB	'eft/Right Hand Side MFD to mission mode', 09H, 09H, 09H, 09H, 09H
	DB	09H, 09H, 09H, 09H, 09H, 09H, 0aH, 00H	; `string'
CONST	ENDS
;	COMDAT ??_C@_0EE@EIFBNMEC@special_cockpit_toggle?7?7?70?7MODI@
CONST	SEGMENT
??_C@_0EE@EIFBNMEC@special_cockpit_toggle?7?7?70?7MODI@ DB 'special_cockp'
	DB	'it_toggle', 09H, 09H, 09H, '0', 09H, 'MODIFIER_LEFT_SHIFT', 09H
	DB	'KEY_STATE_DOWN', 09H, 09H, 09H, 09H, 09H, 0aH, 00H ; `string'
CONST	ENDS
;	COMDAT ??_C@_0DK@HKBPJJIJ@set_padlock_view?7?7?70?7MODIFIER_N@
CONST	SEGMENT
??_C@_0DK@HKBPJJIJ@set_padlock_view?7?7?70?7MODIFIER_N@ DB 'set_padlock_v'
	DB	'iew', 09H, 09H, 09H, '0', 09H, 'MODIFIER_NONE', 09H, 09H, 'KE'
	DB	'Y_STATE_DOWN', 09H, 09H, 09H, 09H, 09H, 09H, 0aH, 00H ; `string'
CONST	ENDS
;	COMDAT ??_C@_0EF@NJHCINIF@select_rhs_flight_main_mfd?7?79?7M@
CONST	SEGMENT
??_C@_0EF@NJHCINIF@select_rhs_flight_main_mfd?7?79?7M@ DB 'select_rhs_fli'
	DB	'ght_main_mfd', 09H, 09H, '9', 09H, 'MODIFIER_LEFT_ALT', 09H, 'K'
	DB	'EY_STATE_DOWN', 09H, 09H, 09H, 09H, 09H, 0aH, 00H ; `string'
CONST	ENDS
;	COMDAT ??_C@_0EI@LDKDHGKN@select_lhs_flight_main_mfd?7?79?7M@
CONST	SEGMENT
??_C@_0EI@LDKDHGKN@select_lhs_flight_main_mfd?7?79?7M@ DB 'select_lhs_fli'
	DB	'ght_main_mfd', 09H, 09H, '9', 09H, 'MODIFIER_LEFT_CONTROL', 09H
	DB	'KEY_STATE_DOWN', 09H, 09H, 09H, 09H, 0aH, 00H ; `string'
CONST	ENDS
;	COMDAT ??_C@_0DK@NDGNDMEL@?$CD?5Set?5Left?1Right?5Hand?5Side?5MFD?5@
CONST	SEGMENT
??_C@_0DK@NDGNDMEL@?$CD?5Set?5Left?1Right?5Hand?5Side?5MFD?5@ DB '# Set L'
	DB	'eft/Right Hand Side MFD to flight mode', 09H, 09H, 09H, 09H, 09H
	DB	09H, 09H, 09H, 09H, 09H, 09H, 0aH, 00H	; `string'
CONST	ENDS
;	COMDAT ??_C@_0EB@DBHIHFAC@load_scout_weapons?7?7?79?7MODIFIER@
CONST	SEGMENT
??_C@_0EB@DBHIHFAC@load_scout_weapons?7?7?79?7MODIFIER@ DB 'load_scout_we'
	DB	'apons', 09H, 09H, 09H, '9', 09H, 'MODIFIER_LEFT_SHIFT', 09H, 'K'
	DB	'EY_STATE_DOWN', 09H, 09H, 09H, 09H, 09H, 09H, 0aH, 00H ; `string'
CONST	ENDS
;	COMDAT ??_C@_0DF@DMLBFMDP@?$CD?5Cheat?0?5gives?5your?5AC?5an?5scout@
CONST	SEGMENT
??_C@_0DF@DMLBFMDP@?$CD?5Cheat?0?5gives?5your?5AC?5an?5scout@ DB '# Cheat'
	DB	', gives your AC an scout loadout', 09H, 09H, 09H, 09H, 09H, 09H
	DB	09H, 09H, 09H, 09H, 09H, 09H, 0aH, 00H	; `string'
CONST	ENDS
;	COMDAT ??_C@_0DD@BKKAPECH@hi_fov?7?7?7?7?79?7MODIFIER_NONE?7?7KEY@
CONST	SEGMENT
??_C@_0DD@BKKAPECH@hi_fov?7?7?7?7?79?7MODIFIER_NONE?7?7KEY@ DB 'hi_fov', 09H
	DB	09H, 09H, 09H, 09H, '9', 09H, 'MODIFIER_NONE', 09H, 09H, 'KEY_'
	DB	'STATE_DOWN', 09H, 09H, 09H, 09H, 09H, 09H, 09H, 0aH, 00H ; `string'
CONST	ENDS
;	COMDAT ??_C@_0DI@JPKDMGDL@?$CD?5Set?5the?5Field?5of?5View?5to?5the?5@
CONST	SEGMENT
??_C@_0DI@JPKDMGDL@?$CD?5Set?5the?5Field?5of?5View?5to?5the?5@ DB '# Set '
	DB	'the Field of View to the ''High'' value', 09H, 09H, 09H, 09H, 09H
	DB	09H, 09H, 09H, 09H, 09H, 09H, 0aH, 00H	; `string'
CONST	ENDS
;	COMDAT ??_C@_0EB@LOHGJDAO@select_rhs_engine_mfd?7?7?78?7MODIF@
CONST	SEGMENT
??_C@_0EB@LOHGJDAO@select_rhs_engine_mfd?7?7?78?7MODIF@ DB 'select_rhs_en'
	DB	'gine_mfd', 09H, 09H, 09H, '8', 09H, 'MODIFIER_LEFT_ALT', 09H, 'K'
	DB	'EY_STATE_DOWN', 09H, 09H, 09H, 09H, 09H, 0aH, 00H ; `string'
CONST	ENDS
;	COMDAT ??_C@_0EE@LINKBNGN@select_lhs_engine_mfd?7?7?78?7MODIF@
CONST	SEGMENT
??_C@_0EE@LINKBNGN@select_lhs_engine_mfd?7?7?78?7MODIF@ DB 'select_lhs_en'
	DB	'gine_mfd', 09H, 09H, 09H, '8', 09H, 'MODIFIER_LEFT_CONTROL', 09H
	DB	'KEY_STATE_DOWN', 09H, 09H, 09H, 09H, 0aH, 00H ; `string'
CONST	ENDS
;	COMDAT ??_C@_0DK@DOBLBADN@?$CD?5Set?5Left?1Right?5Hand?5Side?5MFD?5@
CONST	SEGMENT
??_C@_0DK@DOBLBADN@?$CD?5Set?5Left?1Right?5Hand?5Side?5MFD?5@ DB '# Set L'
	DB	'eft/Right Hand Side MFD to engine mode', 09H, 09H, 09H, 09H, 09H
	DB	09H, 09H, 09H, 09H, 09H, 09H, 0aH, 00H	; `string'
CONST	ENDS
;	COMDAT ??_C@_0EE@CGKLFIOF@load_air_to_air_weapons?7?7?78?7MOD@
CONST	SEGMENT
??_C@_0EE@CGKLFIOF@load_air_to_air_weapons?7?7?78?7MOD@ DB 'load_air_to_a'
	DB	'ir_weapons', 09H, 09H, 09H, '8', 09H, 'MODIFIER_LEFT_SHIFT', 09H
	DB	'KEY_STATE_DOWN', 09H, 09H, 09H, 09H, 0aH, 00H ; `string'
CONST	ENDS
;	COMDAT ??_C@_0DJ@KCOGBEFN@?$CD?5Cheat?0?5gives?5your?5AC?5an?5air?5t@
CONST	SEGMENT
??_C@_0DJ@KCOGBEFN@?$CD?5Cheat?0?5gives?5your?5AC?5an?5air?5t@ DB '# Chea'
	DB	't, gives your AC an air to air loadout', 09H, 09H, 09H, 09H, 09H
	DB	09H, 09H, 09H, 09H, 09H, 09H, 0aH, 00H	; `string'
CONST	ENDS
;	COMDAT ??_C@_0DD@PDKDCECP@std_fov?7?7?7?7?78?7MODIFIER_NONE?7?7KE@
CONST	SEGMENT
??_C@_0DD@PDKDCECP@std_fov?7?7?7?7?78?7MODIFIER_NONE?7?7KE@ DB 'std_fov', 09H
	DB	09H, 09H, 09H, 09H, '8', 09H, 'MODIFIER_NONE', 09H, 09H, 'KEY_'
	DB	'STATE_DOWN', 09H, 09H, 09H, 09H, 09H, 09H, 0aH, 00H ; `string'
CONST	ENDS
;	COMDAT ??_C@_0DL@NIEDKFON@?$CD?5Set?5the?5Field?5of?5View?5to?5the?5@
CONST	SEGMENT
??_C@_0DL@NIEDKFON@?$CD?5Set?5the?5Field?5of?5View?5to?5the?5@ DB '# Set '
	DB	'the Field of View to the ''Standard'' value', 09H, 09H, 09H, 09H
	DB	09H, 09H, 09H, 09H, 09H, 09H, 0aH, 00H	; `string'
CONST	ENDS
;	COMDAT ??_C@_0EH@GMLDCBJF@load_air_to_ground_weapons?7?77?7M@
CONST	SEGMENT
??_C@_0EH@GMLDCBJF@load_air_to_ground_weapons?7?77?7M@ DB 'load_air_to_gr'
	DB	'ound_weapons', 09H, 09H, '7', 09H, 'MODIFIER_LEFT_SHIFT', 09H
	DB	'KEY_STATE_DOWN', 09H, 09H, 09H, 09H, 09H, 0aH, 00H ; `string'
CONST	ENDS
;	COMDAT ??_C@_0DL@KAMDHBPN@?$CD?5Cheat?0?5gives?5your?5AC?5an?5air?5t@
CONST	SEGMENT
??_C@_0DL@KAMDHBPN@?$CD?5Cheat?0?5gives?5your?5AC?5an?5air?5t@ DB '# Chea'
	DB	't, gives your AC an air to ground loadout', 09H, 09H, 09H, 09H
	DB	09H, 09H, 09H, 09H, 09H, 09H, 0aH, 00H	; `string'
CONST	ENDS
;	COMDAT ??_C@_0DD@FPHIOKC@lo_fov?7?7?7?7?77?7MODIFIER_NONE?7?7KEY@
CONST	SEGMENT
??_C@_0DD@FPHIOKC@lo_fov?7?7?7?7?77?7MODIFIER_NONE?7?7KEY@ DB 'lo_fov', 09H
	DB	09H, 09H, 09H, 09H, '7', 09H, 'MODIFIER_NONE', 09H, 09H, 'KEY_'
	DB	'STATE_DOWN', 09H, 09H, 09H, 09H, 09H, 09H, 09H, 0aH, 00H ; `string'
CONST	ENDS
;	COMDAT ??_C@_0DI@CMJLJMEH@?$CD?5Set?5the?5Field?5of?5View?5to?5the?5@
CONST	SEGMENT
??_C@_0DI@CMJLJMEH@?$CD?5Set?5the?5Field?5of?5View?5to?5the?5@ DB '# Set '
	DB	'the Field of View to the ''Low'' value', 09H, 09H, 09H, 09H, 09H
	DB	09H, 09H, 09H, 09H, 09H, 09H, 09H, 0aH, 00H	; `string'
CONST	ENDS
;	COMDAT ??_C@_0EB@KGILJDDJ@select_rhs_system_mfd?7?7?77?7MODIF@
CONST	SEGMENT
??_C@_0EB@KGILJDDJ@select_rhs_system_mfd?7?7?77?7MODIF@ DB 'select_rhs_sy'
	DB	'stem_mfd', 09H, 09H, 09H, '7', 09H, 'MODIFIER_LEFT_ALT', 09H, 'K'
	DB	'EY_STATE_DOWN', 09H, 09H, 09H, 09H, 09H, 0aH, 00H ; `string'
CONST	ENDS
;	COMDAT ??_C@_0EE@FKPCGAMB@select_lhs_system_mfd?7?7?77?7MODIF@
CONST	SEGMENT
??_C@_0EE@FKPCGAMB@select_lhs_system_mfd?7?7?77?7MODIF@ DB 'select_lhs_sy'
	DB	'stem_mfd', 09H, 09H, 09H, '7', 09H, 'MODIFIER_LEFT_CONTROL', 09H
	DB	'KEY_STATE_DOWN', 09H, 09H, 09H, 09H, 0aH, 00H ; `string'
CONST	ENDS
;	COMDAT ??_C@_0DK@KLDGOALB@?$CD?5Set?5Left?1Right?5Hand?5Side?5MFD?5@
CONST	SEGMENT
??_C@_0DK@KLDGOALB@?$CD?5Set?5Left?1Right?5Hand?5Side?5MFD?5@ DB '# Set L'
	DB	'eft/Right Hand Side MFD to system mode', 09H, 09H, 09H, 09H, 09H
	DB	09H, 09H, 09H, 09H, 09H, 09H, 0aH, 00H	; `string'
CONST	ENDS
;	COMDAT ??_C@_0EB@KMKPIMAD@select_rhs_weapon_mfd?7?7?76?7MODIF@
CONST	SEGMENT
??_C@_0EB@KMKPIMAD@select_rhs_weapon_mfd?7?7?76?7MODIF@ DB 'select_rhs_we'
	DB	'apon_mfd', 09H, 09H, 09H, '6', 09H, 'MODIFIER_LEFT_ALT', 09H, 'K'
	DB	'EY_STATE_DOWN', 09H, 09H, 09H, 09H, 09H, 0aH, 00H ; `string'
CONST	ENDS
;	COMDAT ??_C@_0EE@ICFHOKMC@select_lhs_weapon_mfd?7?7?76?7MODIF@
CONST	SEGMENT
??_C@_0EE@ICFHOKMC@select_lhs_weapon_mfd?7?7?76?7MODIF@ DB 'select_lhs_we'
	DB	'apon_mfd', 09H, 09H, 09H, '6', 09H, 'MODIFIER_LEFT_CONTROL', 09H
	DB	'KEY_STATE_DOWN', 09H, 09H, 09H, 09H, 0aH, 00H ; `string'
CONST	ENDS
;	COMDAT ??_C@_0DK@KCLKLLPK@?$CD?5Set?5Left?1Right?5Hand?5Side?5MFD?5@
CONST	SEGMENT
??_C@_0DK@KCLKLLPK@?$CD?5Set?5Left?1Right?5Hand?5Side?5MFD?5@ DB '# Set L'
	DB	'eft/Right Hand Side MFD to weapon mode', 09H, 09H, 09H, 09H, 09H
	DB	09H, 09H, 09H, 09H, 09H, 09H, 0aH, 00H	; `string'
CONST	ENDS
;	COMDAT ??_C@_0DK@GFIKGDO@set_padlock_view?7?7?76?7MODIFIER_N@
CONST	SEGMENT
??_C@_0DK@GFIKGDO@set_padlock_view?7?7?76?7MODIFIER_N@ DB 'set_padlock_vi'
	DB	'ew', 09H, 09H, 09H, '6', 09H, 'MODIFIER_NONE', 09H, 09H, 'KEY'
	DB	'_STATE_DOWN', 09H, 09H, 09H, 09H, 09H, 09H, 0aH, 00H ; `string'
CONST	ENDS
;	COMDAT ??_C@_0DP@BABLNPEC@select_rhs_ase_mfd?7?7?75?7MODIFIER@
CONST	SEGMENT
??_C@_0DP@BABLNPEC@select_rhs_ase_mfd?7?7?75?7MODIFIER@ DB 'select_rhs_as'
	DB	'e_mfd', 09H, 09H, 09H, '5', 09H, 'MODIFIER_LEFT_ALT', 09H, 'K'
	DB	'EY_STATE_DOWN', 09H, 09H, 09H, 09H, 09H, 09H, 0aH, 00H ; `string'
CONST	ENDS
;	COMDAT ??_C@_0EC@MIKGIBNF@select_lhs_ase_mfd?7?7?75?7MODIFIER@
CONST	SEGMENT
??_C@_0EC@MIKGIBNF@select_lhs_ase_mfd?7?7?75?7MODIFIER@ DB 'select_lhs_as'
	DB	'e_mfd', 09H, 09H, 09H, '5', 09H, 'MODIFIER_LEFT_CONTROL', 09H
	DB	'KEY_STATE_DOWN', 09H, 09H, 09H, 09H, 09H, 0aH, 00H ; `string'
CONST	ENDS
;	COMDAT ??_C@_0DI@EEFBLDJO@?$CD?5Set?5Left?1Right?5Hand?5Side?5MFD?5@
CONST	SEGMENT
??_C@_0DI@EEFBLDJO@?$CD?5Set?5Left?1Right?5Hand?5Side?5MFD?5@ DB '# Set L'
	DB	'eft/Right Hand Side MFD to ase mode', 09H, 09H, 09H, 09H, 09H
	DB	09H, 09H, 09H, 09H, 09H, 09H, 09H, 0aH, 00H	; `string'
CONST	ENDS
;	COMDAT ??_C@_0DK@NFMDLKMF@set_padlock_view?7?7?75?7MODIFIER_N@
CONST	SEGMENT
??_C@_0DK@NFMDLKMF@set_padlock_view?7?7?75?7MODIFIER_N@ DB 'set_padlock_v'
	DB	'iew', 09H, 09H, 09H, '5', 09H, 'MODIFIER_NONE', 09H, 09H, 'KE'
	DB	'Y_STATE_DOWN', 09H, 09H, 09H, 09H, 09H, 09H, 0aH, 00H ; `string'
CONST	ENDS
;	COMDAT ??_C@_0DP@KOHJHLA@select_rhs_tsd_mfd?7?7?74?7MODIFIER@
CONST	SEGMENT
??_C@_0DP@KOHJHLA@select_rhs_tsd_mfd?7?7?74?7MODIFIER@ DB 'select_rhs_tsd'
	DB	'_mfd', 09H, 09H, 09H, '4', 09H, 'MODIFIER_LEFT_ALT', 09H, 'KE'
	DB	'Y_STATE_DOWN', 09H, 09H, 09H, 09H, 09H, 09H, 0aH, 00H ; `string'
CONST	ENDS
;	COMDAT ??_C@_0EC@PCENFNEL@select_lhs_tsd_mfd?7?7?74?7MODIFIER@
CONST	SEGMENT
??_C@_0EC@PCENFNEL@select_lhs_tsd_mfd?7?7?74?7MODIFIER@ DB 'select_lhs_ts'
	DB	'd_mfd', 09H, 09H, 09H, '4', 09H, 'MODIFIER_LEFT_CONTROL', 09H
	DB	'KEY_STATE_DOWN', 09H, 09H, 09H, 09H, 09H, 0aH, 00H ; `string'
CONST	ENDS
;	COMDAT ??_C@_0DI@MDEIDFFJ@?$CD?5Set?5Left?1Right?5Hand?5Side?5MFD?5@
CONST	SEGMENT
??_C@_0DI@MDEIDFFJ@?$CD?5Set?5Left?1Right?5Hand?5Side?5MFD?5@ DB '# Set L'
	DB	'eft/Right Hand Side MFD to tsd mode', 09H, 09H, 09H, 09H, 09H
	DB	09H, 09H, 09H, 09H, 09H, 09H, 09H, 0aH, 00H	; `string'
CONST	ENDS
;	COMDAT ??_C@_0DK@JLEKLBGM@set_padlock_view?7?7?74?7MODIFIER_N@
CONST	SEGMENT
??_C@_0DK@JLEKLBGM@set_padlock_view?7?7?74?7MODIFIER_N@ DB 'set_padlock_v'
	DB	'iew', 09H, 09H, 09H, '4', 09H, 'MODIFIER_NONE', 09H, 09H, 'KE'
	DB	'Y_STATE_DOWN', 09H, 09H, 09H, 09H, 09H, 09H, 0aH, 00H ; `string'
CONST	ENDS
;	COMDAT ??_C@_0DP@NPAHFGFO@select_rhs_tads_mfd?7?7?73?7MODIFIE@
CONST	SEGMENT
??_C@_0DP@NPAHFGFO@select_rhs_tads_mfd?7?7?73?7MODIFIE@ DB 'select_rhs_ta'
	DB	'ds_mfd', 09H, 09H, 09H, '3', 09H, 'MODIFIER_LEFT_ALT', 09H, 'K'
	DB	'EY_STATE_DOWN', 09H, 09H, 09H, 09H, 09H, 0aH, 00H ; `string'
CONST	ENDS
;	COMDAT ??_C@_0EC@JIBCPGI@select_lhs_tads_mfd?7?7?73?7MODIFIE@
CONST	SEGMENT
??_C@_0EC@JIBCPGI@select_lhs_tads_mfd?7?7?73?7MODIFIE@ DB 'select_lhs_tad'
	DB	's_mfd', 09H, 09H, 09H, '3', 09H, 'MODIFIER_LEFT_CONTROL', 09H
	DB	'KEY_STATE_DOWN', 09H, 09H, 09H, 09H, 0aH, 00H ; `string'
CONST	ENDS
;	COMDAT ??_C@_0DI@EJGGLGFO@?$CD?5Set?5Left?1Right?5Hand?5Side?5MFD?5@
CONST	SEGMENT
??_C@_0DI@EJGGLGFO@?$CD?5Set?5Left?1Right?5Hand?5Side?5MFD?5@ DB '# Set L'
	DB	'eft/Right Hand Side MFD to tads mode', 09H, 09H, 09H, 09H, 09H
	DB	09H, 09H, 09H, 09H, 09H, 09H, 0aH, 00H	; `string'
CONST	ENDS
;	COMDAT ??_C@_0DK@KJIEIFHC@set_padlock_view?7?7?73?7MODIFIER_N@
CONST	SEGMENT
??_C@_0DK@KJIEIFHC@set_padlock_view?7?7?73?7MODIFIER_N@ DB 'set_padlock_v'
	DB	'iew', 09H, 09H, 09H, '3', 09H, 'MODIFIER_NONE', 09H, 09H, 'KE'
	DB	'Y_STATE_DOWN', 09H, 09H, 09H, 09H, 09H, 09H, 0aH, 00H ; `string'
CONST	ENDS
;	COMDAT ??_C@_0ED@OEEDBEMH@select_rhs_air_radar_mfd?7?72?7MOD@
CONST	SEGMENT
??_C@_0ED@OEEDBEMH@select_rhs_air_radar_mfd?7?72?7MOD@ DB 'select_rhs_air'
	DB	'_radar_mfd', 09H, 09H, '2', 09H, 'MODIFIER_LEFT_ALT', 09H, 'K'
	DB	'EY_STATE_DOWN', 09H, 09H, 09H, 09H, 09H, 0aH, 00H ; `string'
CONST	ENDS
;	COMDAT ??_C@_0EG@OBCAOHLH@select_lhs_air_radar_mfd?7?72?7MOD@
CONST	SEGMENT
??_C@_0EG@OBCAOHLH@select_lhs_air_radar_mfd?7?72?7MOD@ DB 'select_lhs_air'
	DB	'_radar_mfd', 09H, 09H, '2', 09H, 'MODIFIER_LEFT_CONTROL', 09H
	DB	'KEY_STATE_DOWN', 09H, 09H, 09H, 09H, 0aH, 00H ; `string'
CONST	ENDS
;	COMDAT ??_C@_0DM@PHJHKHEI@?$CD?5Set?5Left?1Right?5Hand?5Side?5MFD?5@
CONST	SEGMENT
??_C@_0DM@PHJHKHEI@?$CD?5Set?5Left?1Right?5Hand?5Side?5MFD?5@ DB '# Set L'
	DB	'eft/Right Hand Side MFD to air radar mode', 09H, 09H, 09H, 09H
	DB	09H, 09H, 09H, 09H, 09H, 09H, 0aH, 00H	; `string'
CONST	ENDS
;	COMDAT ??_C@_0DK@OHANIONL@set_padlock_view?7?7?72?7MODIFIER_N@
CONST	SEGMENT
??_C@_0DK@OHANIONL@set_padlock_view?7?7?72?7MODIFIER_N@ DB 'set_padlock_v'
	DB	'iew', 09H, 09H, 09H, '2', 09H, 'MODIFIER_NONE', 09H, 09H, 'KE'
	DB	'Y_STATE_DOWN', 09H, 09H, 09H, 09H, 09H, 09H, 0aH, 00H ; `string'
CONST	ENDS
;	COMDAT ??_C@_0BM@BLAFECNK@?$CD?5?$DP?$DP?$DP?7?7?7?7?7?7?7?7?7?7?7?7?7?7?7?7?7?7?7?7?7?6@
CONST	SEGMENT
??_C@_0BM@BLAFECNK@?$CD?5?$DP?$DP?$DP?7?7?7?7?7?7?7?7?7?7?7?7?7?7?7?7?7?7?7?7?7?6@ DB '#'
	DB	' ???', 09H, 09H, 09H, 09H, 09H, 09H, 09H, 09H, 09H, 09H, 09H, 09H
	DB	09H, 09H, 09H, 09H, 09H, 09H, 09H, 09H, 09H, 0aH, 00H ; `string'
CONST	ENDS
;	COMDAT ??_C@_0EJ@PNDMIEMG@select_rhs_ground_radar_main_mf@
CONST	SEGMENT
??_C@_0EJ@PNDMIEMG@select_rhs_ground_radar_main_mf@ DB 'select_rhs_ground'
	DB	'_radar_main_mfd', 09H, '1', 09H, 'MODIFIER_LEFT_ALT', 09H, 'K'
	DB	'EY_STATE_DOWN', 09H, 09H, 09H, 09H, 0aH, 00H ; `string'
CONST	ENDS
;	COMDAT ??_C@_0EM@OCFEIFM@select_lhs_ground_radar_main_mf@
CONST	SEGMENT
??_C@_0EM@OCFEIFM@select_lhs_ground_radar_main_mf@ DB 'select_lhs_ground_'
	DB	'radar_main_mfd', 09H, '1', 09H, 'MODIFIER_LEFT_CONTROL', 09H, 'K'
	DB	'EY_STATE_DOWN', 09H, 09H, 09H, 0aH, 00H	; `string'
CONST	ENDS
;	COMDAT ??_C@_0DO@BMKENNFI@?$CD?5Set?5Left?1Right?5Hand?5Side?5MFD?5@
CONST	SEGMENT
??_C@_0DO@BMKENNFI@?$CD?5Set?5Left?1Right?5Hand?5Side?5MFD?5@ DB '# Set L'
	DB	'eft/Right Hand Side MFD to ground radar mode', 09H, 09H, 09H, 09H
	DB	09H, 09H, 09H, 09H, 09H, 0aH, 00H		; `string'
CONST	ENDS
;	COMDAT ??_C@_0ED@DGJJHCKE@virtual_cockpit_track_target?7?71@
CONST	SEGMENT
??_C@_0ED@DGJJHCKE@virtual_cockpit_track_target?7?71@ DB 'virtual_cockpit'
	DB	'_track_target', 09H, 09H, '1', 09H, 'MODIFIER_NONE', 09H, 09H
	DB	'KEY_STATE_DOWN', 09H, 09H, 09H, 09H, 0aH, 00H ; `string'
CONST	ENDS
;	COMDAT ??_C@_0CE@FCPDDFCP@?$CD?5Padlock?5target?7?7?7?7?7?7?7?7?7?7?7?7?7?7?7@
CONST	SEGMENT
??_C@_0CE@FCPDDFCP@?$CD?5Padlock?5target?7?7?7?7?7?7?7?7?7?7?7?7?7?7?7@ DB '#'
	DB	' Padlock target', 09H, 09H, 09H, 09H, 09H, 09H, 09H, 09H, 09H
	DB	09H, 09H, 09H, 09H, 09H, 09H, 09H, 09H, 09H, 0aH, 00H ; `string'
CONST	ENDS
;	COMDAT ??_C@_0BJ@OMHOFJPH@?$CD?7?7?7?7?7?7?7?7?7?7?7?7?7?7?7?7?7?7?7?7?7?7?6@
CONST	SEGMENT
??_C@_0BJ@OMHOFJPH@?$CD?7?7?7?7?7?7?7?7?7?7?7?7?7?7?7?7?7?7?7?7?7?7?6@ DB '#'
	DB	09H, 09H, 09H, 09H, 09H, 09H, 09H, 09H, 09H, 09H, 09H, 09H, 09H
	DB	09H, 09H, 09H, 09H, 09H, 09H, 09H, 09H, 09H, 0aH, 00H ; `string'
CONST	ENDS
;	COMDAT ??_C@_0FJ@MEFHEKO@?$CD?5Right?5now?5there?5are?5no?5checks@
CONST	SEGMENT
??_C@_0FJ@MEFHEKO@?$CD?5Right?5now?5there?5are?5no?5checks@ DB '# Right n'
	DB	'ow there are no checks fo duplicate key assignments, so take '
	DB	'care !!         #', 0aH, 00H		; `string'
CONST	ENDS
;	COMDAT ??_C@_0FJ@JGFDACPN@?$CD?5Everything?5in?5here?5is?5case?9se@
CONST	SEGMENT
??_C@_0FJ@JGFDACPN@?$CD?5Everything?5in?5here?5is?5case?9se@ DB '# Everyt'
	DB	'hing in here is case-sensitive !!                            '
	DB	'                 #', 0aH, 00H		; `string'
CONST	ENDS
;	COMDAT ??_C@_0FJ@DFGCFEEJ@?$CD?5?5?5?5?5?5?5?5?5?5?5?5?5?5?5?5?5?5?5?5?5?5?5?5?5?5?5?5?5?5@
CONST	SEGMENT
??_C@_0FJ@DFGCFEEJ@?$CD?5?5?5?5?5?5?5?5?5?5?5?5?5?5?5?5?5?5?5?5?5?5?5?5?5?5?5?5?5?5@ DB '#'
	DB	'                                                             '
	DB	'                        #', 0aH, 00H	; `string'
CONST	ENDS
;	COMDAT ??_C@_0FJ@GMODOHCF@?$CD?5If?5you?5want?5to?5deactivate?5a?5c@
CONST	SEGMENT
??_C@_0FJ@GMODOHCF@?$CD?5If?5you?5want?5to?5deactivate?5a?5c@ DB '# If yo'
	DB	'u want to deactivate a command, just insert a ''#'' at the be'
	DB	'ginning of the line #', 0aH, 00H		; `string'
CONST	ENDS
;	COMDAT ??_C@_0FJ@BKAFGAEA@?$CD?5Key?5Mapping?5File?5?5?5?5?5?5?5?5?5?5?5?5?5@
CONST	SEGMENT
??_C@_0FJ@BKAFGAEA@?$CD?5Key?5Mapping?5File?5?5?5?5?5?5?5?5?5?5?5?5?5@ DB '#'
	DB	' Key Mapping File                                            '
	DB	'                        #', 0aH, 00H	; `string'
CONST	ENDS
;	COMDAT ??_C@_0FJ@MDNHMOOO@?$CD?$CD?$CD?$CD?$CD?$CD?$CD?$CD?$CD?$CD?$CD?$CD?$CD?$CD?$CD?$CD?$CD?$CD?$CD?$CD?$CD?$CD?$CD?$CD?$CD?$CD?$CD?$CD?$CD?$CD?$CD@
CONST	SEGMENT
??_C@_0FJ@MDNHMOOO@?$CD?$CD?$CD?$CD?$CD?$CD?$CD?$CD?$CD?$CD?$CD?$CD?$CD?$CD?$CD?$CD?$CD?$CD?$CD?$CD?$CD?$CD?$CD?$CD?$CD?$CD?$CD?$CD?$CD?$CD?$CD@ DB '#'
	DB	'#############################################################'
	DB	'#########################', 0aH, 00H	; `string'
CONST	ENDS
_DATA	SEGMENT
?standard_key_mapping@@3PAPBDA DD FLAT:??_C@_0FJ@MDNHMOOO@?$CD?$CD?$CD?$CD?$CD?$CD?$CD?$CD?$CD?$CD?$CD?$CD?$CD?$CD?$CD?$CD?$CD?$CD?$CD?$CD?$CD?$CD?$CD?$CD?$CD?$CD?$CD?$CD?$CD?$CD?$CD@ ; standard_key_mapping
	DD	FLAT:??_C@_0FJ@BKAFGAEA@?$CD?5Key?5Mapping?5File?5?5?5?5?5?5?5?5?5?5?5?5?5@
	DD	FLAT:??_C@_0FJ@GMODOHCF@?$CD?5If?5you?5want?5to?5deactivate?5a?5c@
	DD	FLAT:??_C@_0FJ@DFGCFEEJ@?$CD?5?5?5?5?5?5?5?5?5?5?5?5?5?5?5?5?5?5?5?5?5?5?5?5?5?5?5?5?5?5@
	DD	FLAT:??_C@_0FJ@JGFDACPN@?$CD?5Everything?5in?5here?5is?5case?9se@
	DD	FLAT:??_C@_0FJ@DFGCFEEJ@?$CD?5?5?5?5?5?5?5?5?5?5?5?5?5?5?5?5?5?5?5?5?5?5?5?5?5?5?5?5?5?5@
	DD	FLAT:??_C@_0FJ@MEFHEKO@?$CD?5Right?5now?5there?5are?5no?5checks@
	DD	FLAT:??_C@_0FJ@MDNHMOOO@?$CD?$CD?$CD?$CD?$CD?$CD?$CD?$CD?$CD?$CD?$CD?$CD?$CD?$CD?$CD?$CD?$CD?$CD?$CD?$CD?$CD?$CD?$CD?$CD?$CD?$CD?$CD?$CD?$CD?$CD?$CD@
	DD	FLAT:??_C@_0BJ@OMHOFJPH@?$CD?7?7?7?7?7?7?7?7?7?7?7?7?7?7?7?7?7?7?7?7?7?7?6@
	DD	FLAT:??_C@_0CE@FCPDDFCP@?$CD?5Padlock?5target?7?7?7?7?7?7?7?7?7?7?7?7?7?7?7@
	DD	FLAT:??_C@_0ED@DGJJHCKE@virtual_cockpit_track_target?7?71@
	DD	FLAT:??_C@_0DO@BMKENNFI@?$CD?5Set?5Left?1Right?5Hand?5Side?5MFD?5@
	DD	FLAT:??_C@_0EM@OCFEIFM@select_lhs_ground_radar_main_mf@
	DD	FLAT:??_C@_0EJ@PNDMIEMG@select_rhs_ground_radar_main_mf@
	DD	FLAT:??_C@_0BM@BLAFECNK@?$CD?5?$DP?$DP?$DP?7?7?7?7?7?7?7?7?7?7?7?7?7?7?7?7?7?7?7?7?7?6@
	DD	FLAT:??_C@_0DK@OHANIONL@set_padlock_view?7?7?72?7MODIFIER_N@
	DD	FLAT:??_C@_0DM@PHJHKHEI@?$CD?5Set?5Left?1Right?5Hand?5Side?5MFD?5@
	DD	FLAT:??_C@_0EG@OBCAOHLH@select_lhs_air_radar_mfd?7?72?7MOD@
	DD	FLAT:??_C@_0ED@OEEDBEMH@select_rhs_air_radar_mfd?7?72?7MOD@
	DD	FLAT:??_C@_0BM@BLAFECNK@?$CD?5?$DP?$DP?$DP?7?7?7?7?7?7?7?7?7?7?7?7?7?7?7?7?7?7?7?7?7?6@
	DD	FLAT:??_C@_0DK@KJIEIFHC@set_padlock_view?7?7?73?7MODIFIER_N@
	DD	FLAT:??_C@_0DI@EJGGLGFO@?$CD?5Set?5Left?1Right?5Hand?5Side?5MFD?5@
	DD	FLAT:??_C@_0EC@JIBCPGI@select_lhs_tads_mfd?7?7?73?7MODIFIE@
	DD	FLAT:??_C@_0DP@NPAHFGFO@select_rhs_tads_mfd?7?7?73?7MODIFIE@
	DD	FLAT:??_C@_0BM@BLAFECNK@?$CD?5?$DP?$DP?$DP?7?7?7?7?7?7?7?7?7?7?7?7?7?7?7?7?7?7?7?7?7?6@
	DD	FLAT:??_C@_0DK@JLEKLBGM@set_padlock_view?7?7?74?7MODIFIER_N@
	DD	FLAT:??_C@_0DI@MDEIDFFJ@?$CD?5Set?5Left?1Right?5Hand?5Side?5MFD?5@
	DD	FLAT:??_C@_0EC@PCENFNEL@select_lhs_tsd_mfd?7?7?74?7MODIFIER@
	DD	FLAT:??_C@_0DP@KOHJHLA@select_rhs_tsd_mfd?7?7?74?7MODIFIER@
	DD	FLAT:??_C@_0BM@BLAFECNK@?$CD?5?$DP?$DP?$DP?7?7?7?7?7?7?7?7?7?7?7?7?7?7?7?7?7?7?7?7?7?6@
	DD	FLAT:??_C@_0DK@NFMDLKMF@set_padlock_view?7?7?75?7MODIFIER_N@
	DD	FLAT:??_C@_0DI@EEFBLDJO@?$CD?5Set?5Left?1Right?5Hand?5Side?5MFD?5@
	DD	FLAT:??_C@_0EC@MIKGIBNF@select_lhs_ase_mfd?7?7?75?7MODIFIER@
	DD	FLAT:??_C@_0DP@BABLNPEC@select_rhs_ase_mfd?7?7?75?7MODIFIER@
	DD	FLAT:??_C@_0BM@BLAFECNK@?$CD?5?$DP?$DP?$DP?7?7?7?7?7?7?7?7?7?7?7?7?7?7?7?7?7?7?7?7?7?6@
	DD	FLAT:??_C@_0DK@GFIKGDO@set_padlock_view?7?7?76?7MODIFIER_N@
	DD	FLAT:??_C@_0DK@KCLKLLPK@?$CD?5Set?5Left?1Right?5Hand?5Side?5MFD?5@
	DD	FLAT:??_C@_0EE@ICFHOKMC@select_lhs_weapon_mfd?7?7?76?7MODIF@
	DD	FLAT:??_C@_0EB@KMKPIMAD@select_rhs_weapon_mfd?7?7?76?7MODIF@
	DD	FLAT:??_C@_0DK@KLDGOALB@?$CD?5Set?5Left?1Right?5Hand?5Side?5MFD?5@
	DD	FLAT:??_C@_0EE@FKPCGAMB@select_lhs_system_mfd?7?7?77?7MODIF@
	DD	FLAT:??_C@_0EB@KGILJDDJ@select_rhs_system_mfd?7?7?77?7MODIF@
	DD	FLAT:??_C@_0DI@CMJLJMEH@?$CD?5Set?5the?5Field?5of?5View?5to?5the?5@
	DD	FLAT:??_C@_0DD@FPHIOKC@lo_fov?7?7?7?7?77?7MODIFIER_NONE?7?7KEY@
	DD	FLAT:??_C@_0DL@KAMDHBPN@?$CD?5Cheat?0?5gives?5your?5AC?5an?5air?5t@
	DD	FLAT:??_C@_0EH@GMLDCBJF@load_air_to_ground_weapons?7?77?7M@
	DD	FLAT:??_C@_0DL@NIEDKFON@?$CD?5Set?5the?5Field?5of?5View?5to?5the?5@
	DD	FLAT:??_C@_0DD@PDKDCECP@std_fov?7?7?7?7?78?7MODIFIER_NONE?7?7KE@
	DD	FLAT:??_C@_0DJ@KCOGBEFN@?$CD?5Cheat?0?5gives?5your?5AC?5an?5air?5t@
	DD	FLAT:??_C@_0EE@CGKLFIOF@load_air_to_air_weapons?7?7?78?7MOD@
	DD	FLAT:??_C@_0DK@DOBLBADN@?$CD?5Set?5Left?1Right?5Hand?5Side?5MFD?5@
	DD	FLAT:??_C@_0EE@LINKBNGN@select_lhs_engine_mfd?7?7?78?7MODIF@
	DD	FLAT:??_C@_0EB@LOHGJDAO@select_rhs_engine_mfd?7?7?78?7MODIF@
	DD	FLAT:??_C@_0DI@JPKDMGDL@?$CD?5Set?5the?5Field?5of?5View?5to?5the?5@
	DD	FLAT:??_C@_0DD@BKKAPECH@hi_fov?7?7?7?7?79?7MODIFIER_NONE?7?7KEY@
	DD	FLAT:??_C@_0DF@DMLBFMDP@?$CD?5Cheat?0?5gives?5your?5AC?5an?5scout@
	DD	FLAT:??_C@_0EB@DBHIHFAC@load_scout_weapons?7?7?79?7MODIFIER@
	DD	FLAT:??_C@_0DK@NDGNDMEL@?$CD?5Set?5Left?1Right?5Hand?5Side?5MFD?5@
	DD	FLAT:??_C@_0EI@LDKDHGKN@select_lhs_flight_main_mfd?7?79?7M@
	DD	FLAT:??_C@_0EF@NJHCINIF@select_rhs_flight_main_mfd?7?79?7M@
	DD	FLAT:??_C@_0BM@BLAFECNK@?$CD?5?$DP?$DP?$DP?7?7?7?7?7?7?7?7?7?7?7?7?7?7?7?7?7?7?7?7?7?6@
	DD	FLAT:??_C@_0DK@HKBPJJIJ@set_padlock_view?7?7?70?7MODIFIER_N@
	DD	FLAT:??_C@_0BM@BLAFECNK@?$CD?5?$DP?$DP?$DP?7?7?7?7?7?7?7?7?7?7?7?7?7?7?7?7?7?7?7?7?7?6@
	DD	FLAT:??_C@_0EE@EIFBNMEC@special_cockpit_toggle?7?7?70?7MODI@
	DD	FLAT:??_C@_0DL@LNLDDKMJ@?$CD?5Set?5Left?1Right?5Hand?5Side?5MFD?5@
	DD	FLAT:??_C@_0EF@BAENOMND@select_lhs_mission_mfd?7?7?70?7MODI@
	DD	FLAT:??_C@_0EC@CJFLHCME@select_rhs_mission_mfd?7?7?70?7MODI@
	DD	FLAT:??_C@_0CF@GCJACHFN@?$CD?5Outside?5panning?7?7?7?7?7?7?7?7?7?7?7?7?7?7@
	DD	FLAT:??_C@_0EA@BKIBBBAF@adjust_view_left?7?7?7LEFT?7MODIFIE@
	DD	FLAT:??_C@_0EC@OCENNHIH@adjust_view_right?7?7?7RIGHT?7MODIF@
	DD	FLAT:??_C@_0DO@IOKECKKI@adjust_view_up?7?7?7?7UP?7MODIFIER_L@
	DD	FLAT:??_C@_0EA@LAONOHEG@adjust_view_down?7?7?7DOWN?7MODIFIE@
	DD	FLAT:??_C@_0EE@LGOCFMNF@adjust_view_zoom_in?7?7?7PERIOD?7MO@
	DD	FLAT:??_C@_0EE@HBLANGEF@adjust_view_zoom_out?7?7?7COMMA?7MO@
	DD	FLAT:??_C@_0CH@DAKNHMDJ@?$CD?5Sets?53D?5to?5640?$CK480?7?7?7?7?7?7?7?7?7?7?7@
	DD	FLAT:??_C@_0EI@CMBLENEM@set_default_3d_resolutions?7?7F1?7@
	DD	FLAT:??_C@_0CD@GFENIIGH@?$CD?5Forward?5View?7?7?7?7?7?7?7?7?7?7?7?7?7?7?7?7?7@
	DD	FLAT:??_C@_0DI@GNNPGNEG@forward_view?7?7?7?7F1?7MODIFIER_NON@
	DD	FLAT:??_C@_0CL@MGMILNDF@?$CD?5Toggles?5No?5Cockpit?5View?7?7?7?7?7?7@
	DD	FLAT:??_C@_0EK@COGFIJMK@toggle_draw_cockpit_graphics?7?7F@
	DD	FLAT:??_C@_0CJ@EHLJDMCG@?$CD?5Toggles?5unscaled?5HUD?7?7?7?7?7?7?7?7?7@
	DD	FLAT:??_C@_0EE@BIBGBHBK@toggle_unscaled_displays?7?7F1?7MO@
	DD	FLAT:??_C@_0CF@POEIILOO@?$CD?5Instrument?5view?7?7?7?7?7?7?7?7?7?7?7?7?7?7@
	DD	FLAT:??_C@_0DK@FPFNMNEH@instrument_view?7?7?7?7F2?7MODIFIER_@
	DD	FLAT:??_C@_0CP@POLKMKNH@?$CD?5Toggles?5HUD?5in?5external?5view?7@
	DD	FLAT:??_C@_0EM@KDCKPJKA@toggle_display_hud_on_external_@
	DD	FLAT:??_C@_0BM@BLAFECNK@?$CD?5?$DP?$DP?$DP?7?7?7?7?7?7?7?7?7?7?7?7?7?7?7?7?7?7?7?7?7?6@
	DD	FLAT:??_C@_0EN@DHNOMLFJ@toggle_draw_overlaid_instrument@
	DD	FLAT:??_C@_0DD@NEJAAIIG@?$CD?5Toggles?5see?9through?5cockpit?5s@
	DD	FLAT:??_C@_0EE@OHBJCPPE@toggle_glass_cockpit?7?7?7F2?7MODIF@
	DD	FLAT:??_C@_0CG@ELIHEJEN@?$CD?5Toggles?5HUD?5view?7?7?7?7?7?7?7?7?7?7?7?7?7@
	DD	FLAT:??_C@_0DK@BALOHPHI@hud_view?7?7?7?7F2?7MODIFIER_LEFT_SH@
	DD	FLAT:??_C@_0EG@OOFHKHFG@decrease_cockpit_detail?7?7?7F3?7MO@
	DD	FLAT:??_C@_0EF@PLBEEDJF@decrease_3d_resolutions?7?7?7F3?7MO@
	DD	FLAT:??_C@_0DL@BDIMLCCI@look_at_special1?7?7?7F3?7MODIFIER_@
	DD	FLAT:??_C@_0EG@BLJAAJIL@increase_cockpit_detail?7?7?7F4?7MO@
	DD	FLAT:??_C@_0EF@DDHOMJMC@increase_3d_resolutions?7?7?7F4?7MO@
	DD	FLAT:??_C@_0DL@FPDKMOJA@look_at_special2?7?7?7F4?7MODIFIER_@
	DD	FLAT:??_C@_0DO@BMPAIJFJ@?$CD?5?8Side?8?5setting?5when?5viewing?5a@
	DD	FLAT:??_C@_0DM@DOLJJEHE@next_side?7?7?7?7F5?7MODIFIER_LEFT_C@
	DD	FLAT:??_C@_0DO@CEKMNPHH@previous_side?7?7?7?7F5?7MODIFIER_LE@
	DD	FLAT:??_C@_0CN@CKBOLBHD@?$CD?5View?5all?5available?5objects?7?7?7@
	DD	FLAT:??_C@_0DI@DKMNDFCD@view_all?7?7?7?7F5?7MODIFIER_LEFT_AL@
	DD	FLAT:??_C@_0CD@EAJMHPIC@?$CD?5Outside?5view?7?7?7?7?7?7?7?7?7?7?7?7?7?7?7?7?7@
	DD	FLAT:??_C@_0DK@ELIMNKDP@players_gunship?7?7?7?7F5?7MODIFIER_@
	DD	FLAT:??_C@_0CC@LGHFJKDO@?$CD?5Target?5View?7?7?7?7?7?7?7?7?7?7?7?7?7?7?7?7?7?7@
	DD	FLAT:??_C@_0DK@ENFGDLJN@players_target?7?7?7?7F6?7MODIFIER_N@
	DD	FLAT:??_C@_0CD@OOKAMJEL@?$CD?5Wingman?5View?7?7?7?7?7?7?7?7?7?7?7?7?7?7?7?7?7@
	DD	FLAT:??_C@_0DL@CNHLGJDM@view_wingmen?7?7?7?7F6?7MODIFIER_LEF@
	DD	FLAT:??_C@_0DO@HGEFNFAA@?$CD?5Next?5category?5when?5viewing?5al@
	DD	FLAT:??_C@_0DP@HMNHOKIC@next_category?7?7?7?7F6?7MODIFIER_LE@
	DD	FLAT:??_C@_0EB@MOPBBENI@previous_category?7?7?7F6?7MODIFIER@
	DD	FLAT:??_C@_0DL@EEHJJABL@?$CD?5Next?5type?5when?5viewing?5all?5av@
	DD	FLAT:??_C@_0DM@JFCGPLBD@next_type?7?7?7?7F7?7MODIFIER_LEFT_C@
	DD	FLAT:??_C@_0DK@MFFBICKM@players_weapon?7?7?7?7F7?7MODIFIER_N@
	DD	FLAT:??_C@_0DO@HCBBKEJF@previous_type?7?7?7?7F7?7MODIFIER_LE@
	DD	FLAT:??_C@_0DL@CDMPEABE@view_players?7?7?7?7F7?7MODIFIER_LEF@
	DD	FLAT:??_C@_0DN@IDJNDELC@next_object?7?7?7?7F8?7MODIFIER_LEFT@
	DD	FLAT:??_C@_0CJ@KCDDFNDE@?$CD?5View?5padlocked?5object?7?7?7?7?7?7?7?7@
	DD	FLAT:??_C@_0DK@KNKCAKPE@players_padlock?7?7?7?7F8?7MODIFIER_@
	DD	FLAT:??_C@_0DP@MCIHNHB@previous_object?7?7?7?7F8?7MODIFIER_@
	DD	FLAT:??_C@_0ED@LAAOMHIM@view_available_gunships?7?7?7F8?7MO@
	DD	FLAT:??_C@_0CD@JBLBIFD@?$CD?5Chase?5camera?7?7?7?7?7?7?7?7?7?7?7?7?7?7?7?7?7@
	DD	FLAT:??_C@_0DI@KMNDOMLP@chase_camera?7?7?7?7F9?7MODIFIER_NON@
	DD	FLAT:??_C@_0EI@FLFGHLCE@reset_chase_camera_position?7?7F9@
	DD	FLAT:??_C@_0EJ@CKGGALIF@toggle_chase_camera_lock_rotate@
	DD	FLAT:??_C@_0CD@IGBMPKC@?$CD?5Fly?5by?5camera?7?7?7?7?7?7?7?7?7?7?7?7?7?7?7?7@
	DD	FLAT:??_C@_0DK@ODOACDOJ@fly_by_camera?7?7?7?7F10?7MODIFIER_N@
	DD	FLAT:??_C@_0CC@DICGFNFH@?$CD?5Drop?5Camera?7?7?7?7?7?7?7?7?7?7?7?7?7?7?7?7?7?7@
	DD	FLAT:??_C@_0DN@NPPNPGE@drop_camera?7?7?7?7F10?7MODIFIER_LEF@
	DD	FLAT:??_C@_0CD@NMHPKFKN@?$CD?5Static?5camera?7?7?7?7?7?7?7?7?7?7?7?7?7?7?7?7@
	DD	FLAT:??_C@_0EA@IPIACGNC@static_camera?7?7?7?7F10?7MODIFIER_L@
	DD	FLAT:??_C@_0CC@PLBCLLDE@?$CD?5Weapon?5view?7?7?7?7?7?7?7?7?7?7?7?7?7?7?7?7?7?7@
	DD	FLAT:??_C@_0DN@JPNCNIJN@weapon_camera?7?7?7?7F10?7MODIFIER_L@
	DD	FLAT:??_C@_0CC@DCGCJOGO@?$CD?5Crew?5Camera?7?7?7?7?7?7?7?7?7?7?7?7?7?7?7?7?7?7@
	DD	FLAT:??_C@_0DO@ILINIPPD@crew_camera?7?7?7?7F11?7MODIFIER_LEF@
	DD	FLAT:??_C@_0CG@BFLPKMAA@?$CD?5Auto?5Action?5View?7?7?7?7?7?7?7?7?7?7?7?7?7@
	DD	FLAT:??_C@_0DM@HFIKIHIM@camera_auto_edit?7?7?7F11?7MODIFIER@
	DD	FLAT:??_C@_0CG@PDEPGBHJ@?$CD?5Cinematic?5camera?7?7?7?7?7?7?7?7?7?7?7?7?7@
	DD	FLAT:??_C@_0EB@EOEPBAHN@cinematic_camera?7?7?7F11?7MODIFIER@
	DD	FLAT:??_C@_0CN@BJGOGAMF@?$CD?5Toggle?5?8view?5objects?8?5menu?7?7?7@
	DD	FLAT:??_C@_0DM@JOJEMPFC@toggle_view_menu?7?7?7F12?7MODIFIER@
	DD	FLAT:??_C@_0CM@IAOKOEII@?$CD?5Toggle?5viewed?5object?5text?7?7?7?7@
	DD	FLAT:??_C@_0EE@HNPHAJLF@toggle_object_text?7?7?7F12?7MODIFI@
	DD	FLAT:??_C@_0CI@NCLPNAAM@?$CD?5Toggle?5inset?5target?7?7?7?7?7?7?7?7?7?7@
	DD	FLAT:??_C@_0EB@ODCFOKAG@toggle_inset_target?7?7?7F12?7MODIF@
	DD	FLAT:??_C@_0CP@EGCJDEOD@?$CD?5Toggle?5intelligence?5messages?7@
	DD	FLAT:??_C@_0FJ@FHHIAOJE@toggle_display_in_flight_intell@
	DD	FLAT:??_C@_0BM@BLAFECNK@?$CD?5?$DP?$DP?$DP?7?7?7?7?7?7?7?7?7?7?7?7?7?7?7?7?7?7?7?7?7?6@
	DD	FLAT:??_C@_0EA@KKGBEAJM@look_rel_left?7?7?7?7LEFT?7MODIFIER_@
	DD	FLAT:??_C@_0EC@CDOODIAG@look_rel_right?7?7?7?7RIGHT?7MODIFIE@
	DD	FLAT:??_C@_0DN@FIJLGMDN@look_rel_up?7?7?7?7UP?7MODIFIER_LEFT@
	DD	FLAT:??_C@_0EA@FBKHKEFD@look_rel_down?7?7?7?7DOWN?7MODIFIER_@
	DD	FLAT:??_C@_0DP@HJKPNDKD@look_abs_left?7?7?7?7LEFT?7MODIFIER_@
	DD	FLAT:??_C@_0EB@EBLOFMIB@look_abs_right?7?7?7?7RIGHT?7MODIFIE@
	DD	FLAT:??_C@_0DN@FCBHOMKD@look_abs_up?7?7?7?7UP?7MODIFIER_LEFT@
	DD	FLAT:??_C@_0EA@PIBEMBNH@look_abs_down?7?7?7?7DOWN?7MODIFIER_@
	DD	FLAT:??_C@_0BM@BLAFECNK@?$CD?5?$DP?$DP?$DP?7?7?7?7?7?7?7?7?7?7?7?7?7?7?7?7?7?7?7?7?7?6@
	DD	FLAT:??_C@_0EC@LOIAFONE@release_virtual_cockpit?7?7?7LALT?7@
	DD	FLAT:??_C@_0BM@BLAFECNK@?$CD?5?$DP?$DP?$DP?7?7?7?7?7?7?7?7?7?7?7?7?7?7?7?7?7?7?7?7?7?6@
	DD	FLAT:??_C@_0EA@MDDKKKHP@look_abs_left?7?7?7?7LEFT?7MODIFIER_@
	DD	FLAT:??_C@_0EC@BGGCPKBE@look_abs_right?7?7?7?7RIGHT?7MODIFIE@
	DD	FLAT:??_C@_0DO@EDIBFEKE@forward_view?7?7?7?7UP?7MODIFIER_LEF@
	DD	FLAT:??_C@_0EB@LHIMFOLK@instrument_view?7?7?7?7DOWN?7MODIFIE@
	DD	FLAT:??_C@_0EB@CDBLDCNA@look_at_special1?7?7?7LEFT?7MODIFIE@
	DD	FLAT:??_C@_0EC@LFPOOBDJ@look_at_special2?7?7?7RIGHT?7MODIFI@
	DD	FLAT:??_C@_0CJ@LEPGFBHE@?$CD?5Set?5to?5pilot?5position?7?7?7?7?7?7?7?7@
	DD	FLAT:??_C@_0EF@FLGHNIGH@set_pilot_seat_position?7?7?7UP?7MO@
	DD	FLAT:??_C@_0CJ@MNCBPLND@?$CD?5Set?5to?5CP?1G?5position?7?7?7?7?7?7?7?7?7@
	DD	FLAT:??_C@_0EJ@JNKIDJFH@set_co_pilot_seat_position?7?7DOW@
	DD	FLAT:??_C@_0CJ@BGLEFFJG@?$CD?5Switch?5seat?5position?7?7?7?7?7?7?7?7?7@
	DD	FLAT:??_C@_0EB@GIKDLLBM@switch_seat_position?7?7?7ESCAPE?7?7@
	DD	FLAT:??_C@_0CD@HIMCLDMK@?$CD?5Wideview?5keys?7?7?7?7?7?7?7?7?7?7?7?7?7?7?7?7@
	DD	FLAT:??_C@_0EC@BOKPCCKN@wide_cockpit_toggle?7?7?7BACKSLASH@
	DD	FLAT:??_C@_0EH@BFACNKLC@wide_cockpit_edit?7?7?7BACKSLASH?7M@
	DD	FLAT:??_C@_0EE@PIPEOPMH@wide_cockpit_save?7?7?7BACKSLASH?7M@
	DD	FLAT:??_C@_0EC@FBMDFOLK@hokum_pilot_view1?7?7?7DELETE?7?7MOD@
	DD	FLAT:??_C@_0EA@IGKOBLBE@hokum_pilot_view2?7?7?7END?7MODIFIE@
	DD	FLAT:??_C@_0EA@IMNOFPBH@hokum_pilot_view3?7?7?7NEXT?7MODIFI@
	DD	FLAT:??_C@_0EA@MNKDJEKH@next_view_range?7?7?7?7EQUALS?7MODIF@
	DD	FLAT:??_C@_0EC@CGIOHFOI@previous_view_range?7?7?7MINUS?7?7MO@
	DD	FLAT:??_C@_0ED@HFEBEMCB@next_view_range?7?7?7?7NUMPADPLUS?7M@
	DD	FLAT:??_C@_0EH@NCKAAJME@previous_view_range?7?7?7NUMPADMIN@
	DD	FLAT:??_C@_0ED@KCNJPCNJ@look_rel_left?7?7?7?7NUMPAD4?7?7MODIF@
	DD	FLAT:??_C@_0EE@DMDCDLAE@look_rel_right?7?7?7?7NUMPAD6?7?7MODI@
	DD	FLAT:??_C@_0EB@NPKPNJBH@look_rel_up?7?7?7?7NUMPAD8?7?7MODIFIE@
	DD	FLAT:??_C@_0ED@EMPHMJOC@look_rel_down?7?7?7?7NUMPAD2?7?7MODIF@
	DD	FLAT:??_C@_0EC@INABIOPP@look_abs_left?7?7?7?7NUMPAD4?7?7MODIF@
	DD	FLAT:??_C@_0ED@MEFNMPGA@look_abs_right?7?7?7?7NUMPAD6?7?7MODI@
	DD	FLAT:??_C@_0EB@LECGPLEA@look_abs_up?7?7?7?7NUMPAD8?7?7MODIFIE@
	DD	FLAT:??_C@_0ED@ONJIPOBH@look_abs_down?7?7?7?7NUMPAD2?7?7MODIF@
	DD	FLAT:??_C@_0ED@FEENJDDO@adjust_view_left?7?7?7NUMPAD4?7?7MOD@
	DD	FLAT:??_C@_0EE@LGEPOCBM@adjust_view_right?7?7?7NUMPAD6?7?7MO@
	DD	FLAT:??_C@_0EC@JPDPPEPJ@adjust_view_up?7?7?7?7NUMPAD8?7?7MODI@
	DD	FLAT:??_C@_0ED@BOMBGDPF@adjust_view_down?7?7?7NUMPAD2?7?7MOD@
	DD	FLAT:??_C@_0EC@FOCKPLOI@wide_cockpit_toggle?7?7?7BACKSLASH@
	DD	FLAT:??_C@_0EH@BFACNKLC@wide_cockpit_edit?7?7?7BACKSLASH?7M@
	DD	FLAT:??_C@_0EE@PIPEOPMH@wide_cockpit_save?7?7?7BACKSLASH?7M@
	DD	FLAT:??_C@_0EK@FFCKOEOE@comms_shortcut_attack_my_target@
	DD	FLAT:??_C@_0ED@BPLAAJDM@toggle_ase_auto_page?7?7?7A?7MODIFI@
	DD	FLAT:??_C@_0ED@BPLAAJDM@toggle_ase_auto_page?7?7?7A?7MODIFI@
	DD	FLAT:??_C@_0DO@LMIGIDLE@hokum_pilot_view2?7?7?7B?7MODIFIER_@
	DD	FLAT:??_C@_0DH@LPHGGGL@launch_chaff?7?7?7?7C?7MODIFIER_NONE@
	DD	FLAT:??_C@_0EI@CDNFCMOK@toggle_auto_countermeasures?7?7C?7@
	DD	FLAT:??_C@_0EF@NGFJMAOO@select_next_tsd_declutter_level@
	DD	FLAT:??_C@_0EN@FDGDBLPH@select_previous_tsd_declutter_l@
	DD	FLAT:??_C@_0EB@DHHDDIHJ@select_next_tsd_ase_range?7?7E?7MO@
	DD	FLAT:??_C@_0EJ@LLKHFCDD@select_previous_tsd_ase_range?7?7@
	DD	FLAT:??_C@_0DF@CBLHAPOD@eject?7?7?7?7?7E?7MODIFIER_LEFT_ALT?7K@
	DD	FLAT:??_C@_0DH@LFLHHBEF@launch_flare?7?7?7?7F?7MODIFIER_NONE@
	DD	FLAT:??_C@_0EH@GBGIALJE@fire_extinguisher_release?7?7F?7MO@
	DD	FLAT:??_C@_0DM@FBOFPDAB@toggle_gear?7?7?7?7G?7MODIFIER_LEFT_@
	DD	FLAT:??_C@_0DP@MNEEEAAP@toggle_infra_red_jammer?7?7?7I?7MOD@
	DD	FLAT:??_C@_0DM@OKBFGJHH@toggle_radar_jammer?7?7?7J?7MODIFIE@
	DD	FLAT:??_C@_0DM@ENNMCFDO@set_next_hud_colour?7?7?7K?7MODIFIE@
	DD	FLAT:??_C@_0EB@BMPHDPJP@set_prev_hud_colour?7?7?7K?7MODIFIE@
	DD	FLAT:??_C@_0EC@FILAKJJJ@toggle_hud_enlarge?7?7?7K?7MODIFIER@
	DD	FLAT:??_C@_0DK@PCLHIJL@toggle_lobl_loal?7?7?7L?7MODIFIER_N@
	DD	FLAT:??_C@_0EC@ENCKBPK@acknowledge_master_caution?7?7M?7M@
	DD	FLAT:??_C@_0EC@IAFFLHAK@toggle_night_vision_system?7?7N?7M@
	DD	FLAT:??_C@_0DO@CDKBDFOL@hokum_pilot_view3?7?7?7N?7MODIFIER_@
	DD	FLAT:??_C@_0DP@FFEPECNO@set_hud_bob_up_overlay?7?7?7O?7MODI@
	DD	FLAT:??_C@_0EG@ELMJIGDJ@clear_hud_bob_up_overlay?7?7O?7MOD@
	DD	FLAT:??_C@_0FE@IHMGJBDB@toggle_blurred_main_rotors_visi@
	DD	FLAT:??_C@_0EC@NEEJIEIB@rearm_refuel_repair?7?7?7R?7MODIFIE@
	DD	FLAT:??_C@_0EC@NPEENKHN@increase_rocket_salvo_size?7?7S?7M@
	DD	FLAT:??_C@_0EH@CDCBMGNL@decrease_rocket_salvo_size?7?7S?7M@
	DD	FLAT:??_C@_0EI@LDDJHEAD@toggle_ground_stabilisation?7?7S?7@
	DD	FLAT:??_C@_0EA@JHOMEBFA@toggle_navigation_lights?7?7V?7MOD@
	DD	FLAT:??_C@_0DO@MGJPFPBE@hokum_pilot_view1?7?7?7V?7MODIFIER_@
	DD	FLAT:??_C@_0DL@OEILCH@set_next_waypoint?7?7?7W?7MODIFIER_@
	DD	FLAT:??_C@_0EA@BDBGIPLF@set_prev_waypoint?7?7?7W?7MODIFIER_@
	DD	FLAT:??_C@_0DJ@PBDGGHCM@toggle_wiper_on?7?7?7?7Y?7MODIFIER_N@
	DD	FLAT:??_C@_0ED@JAFGJACH@toggle_intermittent_wipe?7?7Y?7MOD@
	DD	FLAT:??_C@_0DM@DEHMJDLJ@launch_weapon?7?7?7?7SPACE?7?7MODIFIE@
	DD	FLAT:??_C@_0EC@BJPLDKLL@select_next_weapon?7?7?7BACKSPACE?7@
	DD	FLAT:??_C@_0EK@MKMJOJCI@select_previous_weapon?7?7?7BACKSP@
	DD	FLAT:??_C@_0ED@MHJMFIEK@weapons_safe?7?7?7?7BACKSPACE?7MODIF@
	DD	FLAT:??_C@_0EB@NBJMNHPM@select_cannon?7?7?7?7BACKSPACE?7MODI@
	DD	FLAT:??_C@_0FE@PKKPNHJB@select_target_acquisition_syste@
	DD	FLAT:??_C@_0FE@PFBMFFMK@select_target_acquisition_syste@
	DD	FLAT:??_C@_0FA@EONGPLNN@select_target_acquisition_syste@
	DD	FLAT:??_C@_0EO@NPCPAACE@select_target_acquisition_syste@
	DD	FLAT:??_C@_0EL@IKGJFBOF@select_target_acquisition_syste@
	DD	FLAT:??_C@_0EL@INDIFPBM@select_target_acquisition_syste@
	DD	FLAT:??_C@_0EO@OEEKKGKH@select_target_acquisition_syste@
	DD	FLAT:??_C@_0EO@LOOFFKHB@select_target_acquisition_syste@
	DD	FLAT:??_C@_0FA@GKAABDNK@select_target_acquisition_syste@
	DD	FLAT:??_C@_0EM@OBJEAOCO@select_target_acquisition_syste@
	DD	FLAT:??_C@_0DM@CEPBCHEB@steer_left?7?7?7?7NUMPAD4?7?7MODIFIER@
	DD	FLAT:??_C@_0EE@HAFADOKO@steer_left_fast?7?7?7?7NUMPAD4?7?7MOD@
	DD	FLAT:??_C@_0EC@JABPJGKO@steer_left_fine?7?7?7?7NUMPAD4?7?7MOD@
	DD	FLAT:??_C@_0DM@MBAHHKGB@steer_right?7?7?7?7NUMPAD6?7?7MODIFIE@
	DD	FLAT:??_C@_0EF@GCKPGACE@steer_right_fast?7?7?7NUMPAD6?7?7MOD@
	DD	FLAT:??_C@_0ED@OFIPAOEB@steer_right_fine?7?7?7NUMPAD6?7?7MOD@
	DD	FLAT:??_C@_0DK@LCBLEDDP@steer_up?7?7?7?7NUMPAD8?7?7MODIFIER_N@
	DD	FLAT:??_C@_0EE@FKNNKKCP@vsteer_up_fast?7?7?7?7NUMPAD8?7?7MODI@
	DD	FLAT:??_C@_0EB@HPHLBBCF@steer_up_fine?7?7?7?7NUMPAD8?7?7MODIF@
	DD	FLAT:??_C@_0DM@DPDPKFDA@steer_down?7?7?7?7NUMPAD2?7?7MODIFIER@
	DD	FLAT:??_C@_0EE@PHEMNHLP@steer_down_fast?7?7?7?7NUMPAD2?7?7MOD@
	DD	FLAT:??_C@_0EC@NLIAEILC@steer_down_fine?7?7?7?7NUMPAD2?7?7MOD@
	DD	FLAT:??_C@_0DH@PAJHBDGK@inc_range?7?7?7?7ADD?7?7MODIFIER_NONE@
	DD	FLAT:??_C@_0EA@PPJGDOHA@inc_range_fast?7?7?7?7ADD?7?7MODIFIER@
	DD	FLAT:??_C@_0DK@BIMBDFDK@dec_range?7?7?7?7SUBTRACT?7MODIFIER_@
	DD	FLAT:??_C@_0ED@JPAFDGGO@dec_range_fast?7?7?7?7SUBTRACT?7MODI@
	DD	FLAT:??_C@_0DM@LBKIAMOE@steer_centre?7?7?7?7NUMPAD5?7?7MODIFI@
	DD	FLAT:??_C@_0EB@HOOCEPMJ@steer_centre?7?7?7?7NUMPAD5?7?7MODIFI@
	DD	FLAT:??_C@_0EH@BNDFOONG@toggle_show_allied_targets?7?7NUM@
	DD	FLAT:??_C@_0EB@CEGHLGEK@inc_target_priority?7?7?7NUMPAD9?7?7@
	DD	FLAT:??_C@_0EK@PCOCPENI@inc_target_priority_fast?7?7NUMPA@
	DD	FLAT:??_C@_0EC@JFKFCJAC@vdec_target_priority?7?7?7NUMPAD3?7@
	DD	FLAT:??_C@_0EK@OJNBKPLM@dec_target_priority_fast?7?7NUMPA@
	DD	FLAT:??_C@_0EB@NHGAAKHK@select_next_target?7?7?7NUMPAD0?7?7M@
	DD	FLAT:??_C@_0EJ@OMKAAFN@select_previous_target?7?7?7NUMPAD@
	DD	FLAT:??_C@_0EB@LLJGEHAN@toggle_auto_target?7?7?7NUMPAD1?7?7M@
	DD	FLAT:??_C@_0EE@LCGDKDEG@toggle_lock_target?7?7?7NUMPADENTE@
	DD	FLAT:??_C@_0EH@BBDOFIEC@toggle_lock_target?7?7?7NUMPADENTE@
	DD	FLAT:??_C@_0EJ@NHNKKAAO@toggle_lock_target?7?7?7NUMPADENTE@
	DD	FLAT:??_C@_0FB@DMCPPFKE@target_acquisition_system_misc_@
	DD	FLAT:??_C@_0FA@HDJOOCMJ@target_acquisition_system_misc_@
	DD	FLAT:??_C@_0EB@IILGDDH@select_next_lhs_mfd?7?7?7LBRACKET?7@
	DD	FLAT:??_C@_0EJ@FNEBGBNL@select_previous_lhs_mfd?7?7?7LBRAC@
	DD	FLAT:??_C@_0EJ@CPFIENKB@toggle_lhs_mfd_on_off?7?7?7LBRACKE@
	DD	FLAT:??_C@_0EK@JNDHBIN@toggle_lhs_side_mfd_on_off?7?7LBR@
	DD	FLAT:??_C@_0EF@ENFMPMCN@select_next_lhs_main_mfd?7?7LBRAC@
	DD	FLAT:??_C@_0EN@COCCNPI@select_previous_lhs_main_mfd?7?7L@
	DD	FLAT:??_C@_0EN@OEOPAGEG@toggle_lhs_main_mfd_on_off?7?7LBR@
	DD	FLAT:??_C@_0EF@DMCEFFCC@select_next_rhs_main_mfd?7?7RBRAC@
	DD	FLAT:??_C@_0EK@DPCPEPDH@select_previous_rhs_main?7?7RBRAC@
	DD	FLAT:??_C@_0EK@IIKFEOGE@toggle_rhs_main_mfd_on?7?7?7RBRACK@
	DD	FLAT:??_C@_0EK@JKIIFEFB@toggle_rhs_side_mfd_on_off?7?7RBR@
	DD	FLAT:??_C@_0EB@KDENKABI@select_next_rhs_mfd?7?7?7RBRACKET?7@
	DD	FLAT:??_C@_0EJ@OKFNPMAC@select_previous_rhs_mfd?7?7?7RBRAC@
	DD	FLAT:??_C@_0EJ@ILFEFMGE@toggle_rhs_mfd_on_off?7?7?7RBRACKE@
	DD	FLAT:??_C@_0CA@KGFKBNME@?$CD?5Exit?5game?7?7?7?7?7?7?7?7?7?7?7?7?7?7?7?7?7?7?7?6@
	DD	FLAT:??_C@_0DP@MHHGDOAD@exit_apache_havoc?7?7?7X?7?7MODIFIER@
	DD	FLAT:??_C@_0CD@GGGPKPIF@?$CD?5Quit?5mission?7?7?7?7?7?7?7?7?7?7?7?7?7?7?7?7?7@
	DD	FLAT:??_C@_0EB@FCOHCAAK@ingame_quit_function?7?7?7Q?7?7MODIF@
	DD	FLAT:??_C@_0CJ@OLIKNMJO@?$CD?5Toggles?52d?13d?5screen?7?7?7?7?7?7?7?7?7@
	DD	FLAT:??_C@_0EG@FFIEBOEO@toggle_in_flight_game_modes?7?7RE@
	DD	FLAT:??_C@_0BM@BLAFECNK@?$CD?5?$DP?$DP?$DP?7?7?7?7?7?7?7?7?7?7?7?7?7?7?7?7?7?7?7?7?7?6@
	DD	FLAT:??_C@_0FG@CAPKNPNJ@campaign_screen_show_external_v@
	DD	FLAT:??_C@_0DC@EJGHKGOC@?$CD?5Take?5control?5of?5displayed?5gun@
	DD	FLAT:??_C@_0EO@NCBJKGDC@set_gunship_entity_to_external_@
	DD	FLAT:??_C@_0CG@NLLFKAOI@?$CD?5Time?5acceleration?7?7?7?7?7?7?7?7?7?7?7?7@
	DD	FLAT:??_C@_0EP@MDFLNMIF@set_small_inc_time_acceleration@
	DD	FLAT:??_C@_0EO@DEDJKPKE@set_small_dec_time_acceleration@
	DD	FLAT:??_C@_0FC@CBIPHJKI@set_small_inc_time_acceleration@
	DD	FLAT:??_C@_0FD@ONJNBDPD@set_small_dec_time_acceleration@
	DD	FLAT:??_C@_0CD@FEMDHPOL@?$CD?5Toggle?5Pause?7?7?7?7?7?7?7?7?7?7?7?7?7?7?7?7?7@
	DD	FLAT:??_C@_0EF@PMBNGKFP@toggle_pause_time_acceleration?7@
	DD	FLAT:??_C@_0CF@BEFFHOAL@?$CD?5Take?5screenshow?7?7?7?7?7?7?7?7?7?7?7?7?7?7@
	DD	FLAT:??_C@_0EC@GPFPBFBF@save_screen_image_event?7?7?7SYSRQ@
	DD	FLAT:??_C@_0CN@PGOFIJCI@?$CD?5Opens?5communication?5screen?7?7?7@
	DD	FLAT:??_C@_0EB@IDOIGOCN@start_messaging_system?7?7?7TAB?7?7M@
	DD	FLAT:??_C@_0CJ@PPBHJHAA@?$CD?5Displays?5last?5message?7?7?7?7?7?7?7?7@
	DD	FLAT:??_C@_0EM@OHOAAJEB@display_last_received_message?7?7@
	DD	FLAT:??_C@_0BO@CHJJLMPI@?$CD?5Cyclic?7?7?7?7?7?7?7?7?7?7?7?7?7?7?7?7?7?7?7?7?6@
	DD	FLAT:??_C@_0DJ@KPBJEIOM@cyclic_left?7?7?7?7LEFT?7?7MODIFIER_N@
	DD	FLAT:??_C@_0DL@LOJHNAEO@cyclic_right?7?7?7?7RIGHT?7?7MODIFIER@
	DD	FLAT:??_C@_0DL@EEAJJELA@cyclic_forward?7?7?7?7UP?7?7MODIFIER_@
	DD	FLAT:??_C@_0DM@HIBBLPEN@cyclic_backward?7?7?7?7DOWN?7?7MODIFI@
	DD	FLAT:??_C@_0CB@JNHIPKAI@?$CD?5Collective?7?7?7?7?7?7?7?7?7?7?7?7?7?7?7?7?7?7?7@
	DD	FLAT:??_C@_0DN@JJHECPM@collective_forward?7?7?7Q?7?7MODIFIE@
	DD	FLAT:??_C@_0DN@JJKHKOL@collective_backward?7?7?7A?7?7MODIFI@
	DD	FLAT:??_C@_0EB@GBLHHMMI@collective_forward?7?7?7EQUALS?7?7MO@
	DD	FLAT:??_C@_0EA@FOFEGDHJ@collective_backward?7?7?7MINUS?7?7MO@
	DD	FLAT:??_C@_0BO@IAAADDMF@?$CD?5Pedals?7?7?7?7?7?7?7?7?7?7?7?7?7?7?7?7?7?7?7?7?6@
	DD	FLAT:??_C@_0DH@EPDHDDNE@pedal_left?7?7?7?7Z?7?7MODIFIER_NONE?7@
	DD	FLAT:??_C@_0DH@EHNBPOGJ@pedal_right?7?7?7?7X?7?7MODIFIER_NONE@
	DD	FLAT:??_C@_0CA@MDHAGABE@?$CD?5Sets?5Trim?7?7?7?7?7?7?7?7?7?7?7?7?7?7?7?7?7?7?7?6@
	DD	FLAT:??_C@_0DK@JGPKMECI@set_trim_control?7?7?7T?7?7MODIFIER_@
	DD	FLAT:??_C@_0CC@CDODAPKH@?$CD?5Clears?5trim?7?7?7?7?7?7?7?7?7?7?7?7?7?7?7?7?7?7@
	DD	FLAT:??_C@_0EB@MPPKIFBP@clear_trim_control?7?7?7T?7?7MODIFIE@
	DD	FLAT:??_C@_0CI@OJHDINMC@?$CD?5Toggles?5rotor?5brake?7?7?7?7?7?7?7?7?7?7@
	DD	FLAT:??_C@_0DM@JKBKAGHA@toggle_rotor_brake?7?7?7R?7?7MODIFIE@
	DD	FLAT:??_C@_0CI@BDCDIMOH@?$CD?5Toggles?5wheel?5brake?7?7?7?7?7?7?7?7?7?7@
	DD	FLAT:??_C@_0DM@GLGNGOEO@toggle_wheel_brake?7?7?7B?7?7MODIFIE@
	DD	FLAT:??_C@_0CH@CMPHGHCB@?$CD?5Toggles?5auto?5hover?7?7?7?7?7?7?7?7?7?7?7@
	DD	FLAT:??_C@_0DL@MJBGMAAP@toggle_auto_hover?7?7?7H?7?7MODIFIER@
	DD	FLAT:??_C@_0EA@MCHIENGP@toggle_auto_hover?7?7?7H?7?7MODIFIER@
	DD	FLAT:??_C@_0CN@BLFIFECB@?$CD?5Toggles?5auto?5altitude?5hold?7?7?7@
	DD	FLAT:??_C@_0EA@OPNMBKBP@toggle_altitude_lock?7?7?7H?7?7MODIF@
	DD	FLAT:??_C@_0DC@EKGEOJBF@?$CD?5In?1Decrease?5altitude?5hold?5val@
	DD	FLAT:??_C@_0EC@GGPHMBCC@decrease_altitude_lock?7?7?7J?7?7MOD@
	DD	FLAT:??_C@_0EC@JPDLFPEH@increase_altitude_lock?7?7?7K?7?7MOD@
	DD	FLAT:??_C@_0CG@LIOJOAAC@?$CD?5Toggles?5autopilot?7?7?7?7?7?7?7?7?7?7?7?7@
	DD	FLAT:??_C@_0DL@MLMGCDPA@toggle_auto_pilot?7?7?7G?7?7MODIFIER@
	DD	FLAT:??_C@_0CK@JMIBPLEJ@?$CD?5Razorworks?5debug?5stuff?7?7?7?7?7?7?7@
	DD	FLAT:??_C@_0ED@CPEEOKD@load_dynamics_model?7?7?7TAB?7?7MODI@
	DD	FLAT:??_C@_0EE@GCFAMIIM@save_dynamics_model?7?7?7TAB?7?7MODI@
	DD	FLAT:??_C@_06GFLBNKMJ@?$CD?5End?6@
?all_keys@@3PAUkey@@A DD FLAT:??_C@_06CDPDIIDH@ESCAPE@	; all_keys
	DD	01H
	DD	FLAT:??_C@_01HIHLOKLC@1@
	DD	02H
	DD	FLAT:??_C@_01FDFGLJHB@2@
	DD	03H
	DD	FLAT:??_C@_01EKENIIDA@3@
	DD	04H
	DD	FLAT:??_C@_01FAMBOPH@4@
	DD	05H
	DD	FLAT:??_C@_01BMBHCPLG@5@
	DD	06H
	DD	FLAT:??_C@_01DHDKHMHF@6@
	DD	07H
	DD	FLAT:??_C@_01COCBENDE@7@
	DD	08H
	DD	FLAT:??_C@_01KJLJFBPL@8@
	DD	09H
	DD	FLAT:??_C@_01LAKCGALK@9@
	DD	0aH
	DD	FLAT:??_C@_01GBGANLPD@0@
	DD	0bH
	DD	FLAT:??_C@_05CIDCLABE@MINUS@
	DD	0cH
	DD	FLAT:??_C@_06IIDPKENN@EQUALS@
	DD	0dH
	DD	FLAT:??_C@_04FJBHJJME@BACK@
	DD	0eH
	DD	FLAT:??_C@_09MALOLBMO@BACKSPACE@
	DD	0eH
	DD	FLAT:??_C@_03CJMDHCGG@TAB@
	DD	0fH
	DD	FLAT:??_C@_01BNIGIBBF@Q@
	DD	010H
	DD	FLAT:??_C@_01ELNMCGJD@W@
	DD	011H
	DD	FLAT:??_C@_01DDCIFGEA@E@
	DD	012H
	DD	FLAT:??_C@_01DGKLNCNG@R@
	DD	013H
	DD	FLAT:??_C@_01GAPBHFFA@T@
	DD	014H
	DD	FLAT:??_C@_01NFFPALBN@Y@
	DD	015H
	DD	FLAT:??_C@_01HJOKEEBB@U@
	DD	016H
	DD	FLAT:??_C@_01JPJNBJEM@I@
	DD	017H
	DD	FLAT:??_C@_01MJMHLOMK@O@
	DD	018H
	DD	FLAT:??_C@_01EJNLAFE@P@
	DD	019H
	DD	FLAT:??_C@_08MBGGNFFL@LBRACKET@
	DD	01aH
	DD	FLAT:??_C@_08KFGEEMLI@RBRACKET@
	DD	01bH
	DD	FLAT:??_C@_06LJMOENAO@RETURN@
	DD	01cH
	DD	FLAT:??_C@_08IKMONEBG@LCONTROL@
	DD	01dH
	DD	FLAT:??_C@_01FHEEJDEE@A@
	DD	01eH
	DD	FLAT:??_C@_01CPLAODJH@S@
	DD	01fH
	DD	FLAT:??_C@_01CKDDGHAB@D@
	DD	020H
	DD	FLAT:??_C@_01BIAFAFID@F@
	DD	021H
	DD	FLAT:??_C@_01BBODEMC@G@
	DD	022H
	DD	FLAT:??_C@_01IGIGCIAN@H@
	DD	023H
	DD	FLAT:??_C@_01LELAEKIP@J@
	DD	024H
	DD	FLAT:??_C@_01KNKLHLMO@K@
	DD	025H
	DD	FLAT:??_C@_01OCOKONAJ@L@
	DD	026H
	DD	FLAT:??_C@_09COMJPDLF@SEMICOLON@
	DD	027H
	DD	FLAT:??_C@_0L@JENNPFNN@APOSTROPHE@
	DD	028H
	DD	FLAT:??_C@_05NICECODJ@GRAVE@
	DD	029H
	DD	FLAT:??_C@_06EPHNCIMI@LSHIFT@
	DD	02aH
	DD	FLAT:??_C@_09MMCGBGHA@BACKSLASH@
	DD	02bH
	DD	FLAT:??_C@_01POHCFINO@Z@
	DD	02cH
	DD	FLAT:??_C@_01MMEEDKFM@X@
	DD	02dH
	DD	FLAT:??_C@_01GFHCPBMG@C@
	DD	02eH
	DD	FLAT:??_C@_01FCMHBHNC@V@
	DD	02fH
	DD	FLAT:??_C@_01HMGJMAIH@B@
	DD	030H
	DD	FLAT:??_C@_01NANMIPIL@N@
	DD	031H
	DD	FLAT:??_C@_01PLPBNMEI@M@
	DD	032H
	DD	FLAT:??_C@_05OFAMAJDB@COMMA@
	DD	033H
	DD	FLAT:??_C@_06FFMPJJAJ@PERIOD@
	DD	034H
	DD	FLAT:??_C@_05CMNGPLPB@SLASH@
	DD	035H
	DD	FLAT:??_C@_06HIJMMPFL@RSHIFT@
	DD	036H
	DD	FLAT:??_C@_08LDEOAAGM@MULTIPLY@
	DD	037H
	DD	FLAT:??_C@_0L@IBDMOFBI@NUMPADSTAR@
	DD	037H
	DD	FLAT:??_C@_05IHMGKJGH@LMENU@
	DD	038H
	DD	FLAT:??_C@_04CACBGOAG@LALT@
	DD	038H
	DD	FLAT:??_C@_05CAEOFMEP@SPACE@
	DD	039H
	DD	FLAT:??_C@_07OPCFNGJB@CAPITAL@
	DD	03aH
	DD	FLAT:??_C@_08INDENNHK@CAPSLOCK@
	DD	03aH
	DD	FLAT:??_C@_02LCPENACN@F1@
	DD	03bH
	DD	FLAT:??_C@_02JJNJIDOO@F2@
	DD	03cH
	DD	FLAT:??_C@_02IAMCLCKP@F3@
	DD	03dH
	DD	FLAT:??_C@_02MPIDCEGI@F4@
	DD	03eH
	DD	FLAT:??_C@_02NGJIBFCJ@F5@
	DD	03fH
	DD	FLAT:??_C@_02PNLFEGOK@F6@
	DD	040H
	DD	FLAT:??_C@_02OEKOHHKL@F7@
	DD	041H
	DD	FLAT:??_C@_02GDDGGLGE@F8@
	DD	042H
	DD	FLAT:??_C@_02HKCNFKCF@F9@
	DD	043H
	DD	FLAT:??_C@_03JKCLJOFG@F10@
	DD	044H
	DD	FLAT:??_C@_07FLMEHHJP@NUMLOCK@
	DD	045H
	DD	FLAT:??_C@_06FNIKALAE@SCROLL@
	DD	046H
	DD	FLAT:??_C@_07JIMOFKFA@NUMPAD7@
	DD	047H
	DD	FLAT:??_C@_07BPFGEGJP@NUMPAD8@
	DD	048H
	DD	FLAT:??_C@_07GENHHNO@NUMPAD9@
	DD	049H
	DD	FLAT:??_C@_08MGBEENML@SUBTRACT@
	DD	04aH
	DD	FLAT:??_C@_0M@HOPLJMCP@NUMPADMINUS@
	DD	04aH
	DD	FLAT:??_C@_07LDODAJJD@NUMPAD4@
	DD	04bH
	DD	FLAT:??_C@_07KKPIDINC@NUMPAD5@
	DD	04cH
	DD	FLAT:??_C@_07IBNFGLBB@NUMPAD6@
	DD	04dH
	DD	FLAT:??_C@_03BOJFLAKG@ADD@
	DD	04eH
	DD	FLAT:??_C@_0L@FBAFNKFF@NUMPADPLUS@
	DD	04eH
	DD	FLAT:??_C@_07MOJEPNNG@NUMPAD1@
	DD	04fH
	DD	FLAT:??_C@_07OFLJKOBF@NUMPAD2@
	DD	050H
	DD	FLAT:??_C@_07PMKCJPFE@NUMPAD3@
	DD	051H
	DD	FLAT:??_C@_07NHIPMMJH@NUMPAD0@
	DD	052H
	DD	FLAT:??_C@_07LJPMJDLL@DECIMAL@
	DD	053H
	DD	FLAT:??_C@_0N@OEJCLJAB@NUMPADPERIOD@
	DD	053H
	DD	FLAT:??_C@_07PEFKMFIE@OEM_102@
	DD	056H
	DD	FLAT:??_C@_03IDDAKPBH@F11@
	DD	057H
	DD	FLAT:??_C@_03KIBNPMNE@F12@
	DD	058H
	DD	FLAT:??_C@_03LBAGMNJF@F13@
	DD	064H
	DD	FLAT:??_C@_03POEHFLFC@F14@
	DD	065H
	DD	FLAT:??_C@_03OHFMGKBD@F15@
	DD	066H
	DD	FLAT:??_C@_04KGDAIAGM@KANA@
	DD	070H
	DD	FLAT:??_C@_07HDFAKPHN@ABNT_C1@
	DD	073H
	DD	FLAT:??_C@_07BAKIHLPO@CONVERT@
	DD	079H
	DD	FLAT:??_C@_09BHFIDHCE@NOCONVERT@
	DD	07bH
	DD	FLAT:??_C@_03HABFENGL@YEN@
	DD	07dH
	DD	FLAT:??_C@_07FIHNPMLO@ABNT_C2@
	DD	07eH
	DD	FLAT:??_C@_0N@DJGCIENF@NUMPADEQUALS@
	DD	08dH
	DD	FLAT:??_C@_0L@ICKCLMNA@CIRCUMFLEX@
	DD	090H
	DD	FLAT:??_C@_02KPDBFJEK@AT@
	DD	091H
	DD	FLAT:??_C@_05NJKMKGPF@COLON@
	DD	092H
	DD	FLAT:??_C@_09CDKPIEFA@UNDERLINE@
	DD	093H
	DD	FLAT:??_C@_05GJEMAGFO@KANJI@
	DD	094H
	DD	FLAT:??_C@_04MDHMLCKF@STOP@
	DD	095H
	DD	FLAT:??_C@_02DIEBGEG@AX@
	DD	096H
	DD	FLAT:??_C@_09CIFDPFIO@UNLABELED@
	DD	097H
	DD	FLAT:??_C@_0M@BKBBOHJI@NUMPADENTER@
	DD	09cH
	DD	FLAT:??_C@_08OOMMENPF@RCONTROL@
	DD	09dH
	DD	FLAT:??_C@_0M@LDMFCFAK@NUMPADCOMMA@
	DD	0b3H
	DD	FLAT:??_C@_06FBFCJJMP@DIVIDE@
	DD	0b5H
	DD	FLAT:??_C@_0M@HKBPNHMK@NUMPADSLASH@
	DD	0b5H
	DD	FLAT:??_C@_05OEAELPDI@SYSRQ@
	DD	0b7H
	DD	FLAT:??_C@_05LOBKMKIM@RMENU@
	DD	0b8H
	DD	FLAT:??_C@_04PPPBEHOF@RALT@
	DD	0b8H
	DD	FLAT:??_C@_05DIAHPDGL@PAUSE@
	DD	0c5H
	DD	FLAT:??_C@_04GHGFPGNC@HOME@
	DD	0c7H
	DD	FLAT:??_C@_02NAHCJHOC@UP@
	DD	0c8H
	DD	FLAT:??_C@_07MNCBLHKG@UPARROW@
	DD	0c8H
	DD	FLAT:??_C@_05BFDHCIJM@PRIOR@
	DD	0c9H
	DD	FLAT:??_C@_04NHMBBGKC@PGUP@
	DD	0c9H
	DD	FLAT:??_C@_04KCNEHMIH@LEFT@
	DD	0cbH
	DD	FLAT:??_C@_09FNHBLDAE@LEFTARROW@
	DD	0cbH
	DD	FLAT:??_C@_05PMAFOJDE@RIGHT@
	DD	0cdH
	DD	FLAT:??_C@_0L@CIPLPPIL@RIGHTARROW@
	DD	0cdH
	DD	FLAT:??_C@_03JMGAKCCH@END@
	DD	0cfH
	DD	FLAT:??_C@_04FANAOELO@DOWN@
	DD	0d0H
	DD	FLAT:??_C@_09KIDHILFL@DOWNARROW@
	DD	0d0H
	DD	FLAT:??_C@_04MOKMKBJN@NEXT@
	DD	0d1H
	DD	FLAT:??_C@_04BOGEOADK@PGDN@
	DD	0d1H
	DD	FLAT:??_C@_06OEMEAEKN@INSERT@
	DD	0d2H
	DD	FLAT:??_C@_06FKDAMKFP@DELETE@
	DD	0d3H
	DD	FLAT:??_C@_04ODLFFOHF@LWIN@
	DD	0dbH
	DD	FLAT:??_C@_04DMGFHHJG@RWIN@
	DD	0dcH
	DD	FLAT:??_C@_04GKGJFGJO@APPS@
	DD	0ddH
	DD	FLAT:??_C@_05DABGNONF@POWER@
	DD	0deH
	DD	FLAT:??_C@_05DJAECLDN@SLEEP@
	DD	0dfH
	DD	FLAT:??_C@_04GBIHPNAA@WAKE@
	DD	0e3H
_DATA	ENDS
PUBLIC	___local_stdio_printf_options
PUBLIC	___local_stdio_scanf_options
PUBLIC	__vfprintf_l
PUBLIC	_fprintf
PUBLIC	__vsnprintf_l
PUBLIC	__vsprintf_l
PUBLIC	_sprintf
PUBLIC	__vsscanf_l
PUBLIC	_sscanf
PUBLIC	?check_for_validity@@YGHXZ			; check_for_validity
PUBLIC	?get_DIK_from_string@@YGHPAD@Z			; get_DIK_from_string
PUBLIC	?get_modifier_from_string@@YGHPAD@Z		; get_modifier_from_string
PUBLIC	?get_key_state_from_string@@YGHPAD@Z		; get_key_state_from_string
PUBLIC	?CleanUpString@@YGPADPAD@Z			; CleanUpString
PUBLIC	?read_mapping_from_file@@YGXPAD@Z		; read_mapping_from_file
PUBLIC	?configurable_event@@YGXPADP6GXPAUEVENT@@@Z@Z	; configurable_event
PUBLIC	?_OptionsStorage@?1??__local_stdio_printf_options@@9@4_KA ; `__local_stdio_printf_options'::`2'::_OptionsStorage
PUBLIC	?_OptionsStorage@?1??__local_stdio_scanf_options@@9@4_KA ; `__local_stdio_scanf_options'::`2'::_OptionsStorage
PUBLIC	??_C@_02DKCKIIND@?$CFs@				; `string'
PUBLIC	??_C@_0CN@FGAHOEIM@Duplicate?5key?$CLmodifier?5combinat@ ; `string'
PUBLIC	??_C@_0BC@GEFCCIEG@Don?$LEt?5know?5key?5?$CFs@	; `string'
PUBLIC	??_C@_0O@MGFOBHKO@MODIFIER_NONE@		; `string'
PUBLIC	??_C@_0BE@HAHJJNNA@MODIFIER_LEFT_SHIFT@		; `string'
PUBLIC	??_C@_0BG@LDNODEEI@MODIFIER_LEFT_CONTROL@	; `string'
PUBLIC	??_C@_0BC@JIANOMDN@MODIFIER_LEFT_ALT@		; `string'
PUBLIC	??_C@_0BF@JLALIPOF@MODIFIER_RIGHT_SHIFT@	; `string'
PUBLIC	??_C@_0BH@OCFGGMME@MODIFIER_RIGHT_CONTROL@	; `string'
PUBLIC	??_C@_0BD@GAOIJOPD@MODIFIER_RIGHT_ALT@		; `string'
PUBLIC	??_C@_0BH@FEFOBGON@Don?$LEt?5know?5modifier?5?$CFs@ ; `string'
PUBLIC	??_C@_0BC@DKNLGJDA@KEY_STATE_INVALID@		; `string'
PUBLIC	??_C@_0N@HFICKEJA@KEY_STATE_UP@			; `string'
PUBLIC	??_C@_0P@PCAJDLCM@KEY_STATE_DOWN@		; `string'
PUBLIC	??_C@_0BB@GEADMNNL@KEY_STATE_EITHER@		; `string'
PUBLIC	??_C@_0BI@HMKDDHCK@Don?$LEt?5know?5key_state?5?$CFs@ ; `string'
PUBLIC	?__LINE__Var@?0??read_mapping_from_file@@YGXPAD@Z@4JA ; `read_mapping_from_file'::`1'::__LINE__Var
PUBLIC	??_C@_1HC@LLJGNOFA@?$AAc?$AA?3?$AA?2?$AAu?$AAs?$AAe?$AAr?$AAs?$AA?2?$AAn?$AAh?$AAv?$AA9?$AA0?$AA?2@ ; `string'
PUBLIC	??_C@_1BC@OIENENHB@?$AAf?$AAi?$AAl?$AAe?$AAn?$AAa?$AAm?$AAe@ ; `string'
PUBLIC	??_C@_01KDCPPGHE@r@				; `string'
PUBLIC	??_C@_01NOFIACDB@w@				; `string'
PUBLIC	??_C@_0CB@KEMECPFD@Could?5not?5open?5or?5create?5file?5?$CF@ ; `string'
PUBLIC	??_C@_0M@HKJEMFMD@?$CFs?5?$CFs?5?$CFs?5?$CFs@	; `string'
PUBLIC	??_C@_02CPIDLAI@at@				; `string'
PUBLIC	??_C@_0M@BOCAMGNH@unknown?4txt@			; `string'
PUBLIC	??_C@_09GDHCMDCM@dunno?5?$CFs?6@		; `string'
EXTRN	__imp__fclose:PROC
EXTRN	__imp__feof:PROC
EXTRN	__imp__fgets:PROC
EXTRN	__imp__fopen:PROC
EXTRN	__imp__fseek:PROC
EXTRN	__imp____stdio_common_vfprintf:PROC
EXTRN	__imp____stdio_common_vsprintf:PROC
EXTRN	__imp____stdio_common_vsscanf:PROC
EXTRN	_strcmp:PROC
EXTRN	_strlen:PROC
EXTRN	__imp___wassert:PROC
EXTRN	?debug_fatal@@YAXPBDZZ:PROC			; debug_fatal
EXTRN	?set_event@@YGXHHHP6GXPAUEVENT@@@Z@Z:PROC	; set_event
;	COMDAT ?_OptionsStorage@?1??__local_stdio_printf_options@@9@4_KA
_BSS	SEGMENT
?_OptionsStorage@?1??__local_stdio_printf_options@@9@4_KA DQ 01H DUP (?) ; `__local_stdio_printf_options'::`2'::_OptionsStorage
_BSS	ENDS
;	COMDAT ?_OptionsStorage@?1??__local_stdio_scanf_options@@9@4_KA
_BSS	SEGMENT
?_OptionsStorage@?1??__local_stdio_scanf_options@@9@4_KA DQ 01H DUP (?) ; `__local_stdio_scanf_options'::`2'::_OptionsStorage
_BSS	ENDS
_BSS	SEGMENT
?keymaps@@3PAUmapline@@A DB 04b00H DUP (?)		; keymaps
?number_of_commands@@3HA DD 01H DUP (?)			; number_of_commands
_BSS	ENDS
;	COMDAT ??_C@_09GDHCMDCM@dunno?5?$CFs?6@
CONST	SEGMENT
??_C@_09GDHCMDCM@dunno?5?$CFs?6@ DB 'dunno %s', 0aH, 00H ; `string'
CONST	ENDS
;	COMDAT ??_C@_0M@BOCAMGNH@unknown?4txt@
CONST	SEGMENT
??_C@_0M@BOCAMGNH@unknown?4txt@ DB 'unknown.txt', 00H	; `string'
CONST	ENDS
;	COMDAT ??_C@_02CPIDLAI@at@
CONST	SEGMENT
??_C@_02CPIDLAI@at@ DB 'at', 00H			; `string'
CONST	ENDS
;	COMDAT ??_C@_0M@HKJEMFMD@?$CFs?5?$CFs?5?$CFs?5?$CFs@
CONST	SEGMENT
??_C@_0M@HKJEMFMD@?$CFs?5?$CFs?5?$CFs?5?$CFs@ DB '%s %s %s %s', 00H ; `string'
CONST	ENDS
;	COMDAT ??_C@_0CB@KEMECPFD@Could?5not?5open?5or?5create?5file?5?$CF@
CONST	SEGMENT
??_C@_0CB@KEMECPFD@Could?5not?5open?5or?5create?5file?5?$CF@ DB 'Could no'
	DB	't open or create file %s', 00H		; `string'
CONST	ENDS
;	COMDAT ??_C@_01NOFIACDB@w@
CONST	SEGMENT
??_C@_01NOFIACDB@w@ DB 'w', 00H				; `string'
CONST	ENDS
;	COMDAT ??_C@_01KDCPPGHE@r@
CONST	SEGMENT
??_C@_01KDCPPGHE@r@ DB 'r', 00H				; `string'
CONST	ENDS
;	COMDAT ??_C@_1BC@OIENENHB@?$AAf?$AAi?$AAl?$AAe?$AAn?$AAa?$AAm?$AAe@
CONST	SEGMENT
??_C@_1BC@OIENENHB@?$AAf?$AAi?$AAl?$AAe?$AAn?$AAa?$AAm?$AAe@ DB 'f', 00H, 'i'
	DB	00H, 'l', 00H, 'e', 00H, 'n', 00H, 'a', 00H, 'm', 00H, 'e', 00H
	DB	00H, 00H					; `string'
CONST	ENDS
;	COMDAT ??_C@_1HC@LLJGNOFA@?$AAc?$AA?3?$AA?2?$AAu?$AAs?$AAe?$AAr?$AAs?$AA?2?$AAn?$AAh?$AAv?$AA9?$AA0?$AA?2@
CONST	SEGMENT
??_C@_1HC@LLJGNOFA@?$AAc?$AA?3?$AA?2?$AAu?$AAs?$AAe?$AAr?$AAs?$AA?2?$AAn?$AAh?$AAv?$AA9?$AA0?$AA?2@ DB 'c'
	DB	00H, ':', 00H, '\', 00H, 'u', 00H, 's', 00H, 'e', 00H, 'r', 00H
	DB	's', 00H, '\', 00H, 'n', 00H, 'h', 00H, 'v', 00H, '9', 00H, '0'
	DB	00H, '\', 00H, 'p', 00H, 'r', 00H, 'o', 00H, 'j', 00H, 'e', 00H
	DB	'c', 00H, 't', 00H, 's', 00H, '\', 00H, 'e', 00H, 'e', 00H, 'c'
	DB	00H, 'h', 00H, '\', 00H, 'm', 00H, 'o', 00H, 'd', 00H, 'u', 00H
	DB	'l', 00H, 'e', 00H, 's', 00H, '\', 00H, 's', 00H, 'y', 00H, 's'
	DB	00H, 't', 00H, 'e', 00H, 'm', 00H, '\', 00H, 'k', 00H, 'e', 00H
	DB	'y', 00H, 'm', 00H, 'a', 00H, 'p', 00H, 'p', 00H, 'i', 00H, 'n'
	DB	00H, 'g', 00H, '.', 00H, 'c', 00H, 00H, 00H	; `string'
CONST	ENDS
;	COMDAT ?__LINE__Var@?0??read_mapping_from_file@@YGXPAD@Z@4JA
_DATA	SEGMENT
?__LINE__Var@?0??read_mapping_from_file@@YGXPAD@Z@4JA DD 017eH ; `read_mapping_from_file'::`1'::__LINE__Var
_DATA	ENDS
;	COMDAT ??_C@_0BI@HMKDDHCK@Don?$LEt?5know?5key_state?5?$CFs@
CONST	SEGMENT
??_C@_0BI@HMKDDHCK@Don?$LEt?5know?5key_state?5?$CFs@ DB 'Don', 0b4H, 't k'
	DB	'now key_state %s', 00H			; `string'
CONST	ENDS
;	COMDAT ??_C@_0BB@GEADMNNL@KEY_STATE_EITHER@
CONST	SEGMENT
??_C@_0BB@GEADMNNL@KEY_STATE_EITHER@ DB 'KEY_STATE_EITHER', 00H ; `string'
CONST	ENDS
;	COMDAT ??_C@_0P@PCAJDLCM@KEY_STATE_DOWN@
CONST	SEGMENT
??_C@_0P@PCAJDLCM@KEY_STATE_DOWN@ DB 'KEY_STATE_DOWN', 00H ; `string'
CONST	ENDS
;	COMDAT ??_C@_0N@HFICKEJA@KEY_STATE_UP@
CONST	SEGMENT
??_C@_0N@HFICKEJA@KEY_STATE_UP@ DB 'KEY_STATE_UP', 00H	; `string'
CONST	ENDS
;	COMDAT ??_C@_0BC@DKNLGJDA@KEY_STATE_INVALID@
CONST	SEGMENT
??_C@_0BC@DKNLGJDA@KEY_STATE_INVALID@ DB 'KEY_STATE_INVALID', 00H ; `string'
CONST	ENDS
;	COMDAT ??_C@_0BH@FEFOBGON@Don?$LEt?5know?5modifier?5?$CFs@
CONST	SEGMENT
??_C@_0BH@FEFOBGON@Don?$LEt?5know?5modifier?5?$CFs@ DB 'Don', 0b4H, 't kn'
	DB	'ow modifier %s', 00H			; `string'
CONST	ENDS
;	COMDAT ??_C@_0BD@GAOIJOPD@MODIFIER_RIGHT_ALT@
CONST	SEGMENT
??_C@_0BD@GAOIJOPD@MODIFIER_RIGHT_ALT@ DB 'MODIFIER_RIGHT_ALT', 00H ; `string'
CONST	ENDS
;	COMDAT ??_C@_0BH@OCFGGMME@MODIFIER_RIGHT_CONTROL@
CONST	SEGMENT
??_C@_0BH@OCFGGMME@MODIFIER_RIGHT_CONTROL@ DB 'MODIFIER_RIGHT_CONTROL', 00H ; `string'
CONST	ENDS
;	COMDAT ??_C@_0BF@JLALIPOF@MODIFIER_RIGHT_SHIFT@
CONST	SEGMENT
??_C@_0BF@JLALIPOF@MODIFIER_RIGHT_SHIFT@ DB 'MODIFIER_RIGHT_SHIFT', 00H ; `string'
CONST	ENDS
;	COMDAT ??_C@_0BC@JIANOMDN@MODIFIER_LEFT_ALT@
CONST	SEGMENT
??_C@_0BC@JIANOMDN@MODIFIER_LEFT_ALT@ DB 'MODIFIER_LEFT_ALT', 00H ; `string'
CONST	ENDS
;	COMDAT ??_C@_0BG@LDNODEEI@MODIFIER_LEFT_CONTROL@
CONST	SEGMENT
??_C@_0BG@LDNODEEI@MODIFIER_LEFT_CONTROL@ DB 'MODIFIER_LEFT_CONTROL', 00H ; `string'
CONST	ENDS
;	COMDAT ??_C@_0BE@HAHJJNNA@MODIFIER_LEFT_SHIFT@
CONST	SEGMENT
??_C@_0BE@HAHJJNNA@MODIFIER_LEFT_SHIFT@ DB 'MODIFIER_LEFT_SHIFT', 00H ; `string'
CONST	ENDS
;	COMDAT ??_C@_0O@MGFOBHKO@MODIFIER_NONE@
CONST	SEGMENT
??_C@_0O@MGFOBHKO@MODIFIER_NONE@ DB 'MODIFIER_NONE', 00H ; `string'
CONST	ENDS
;	COMDAT ??_C@_0BC@GEFCCIEG@Don?$LEt?5know?5key?5?$CFs@
CONST	SEGMENT
??_C@_0BC@GEFCCIEG@Don?$LEt?5know?5key?5?$CFs@ DB 'Don', 0b4H, 't know ke'
	DB	'y %s', 00H					; `string'
CONST	ENDS
;	COMDAT ??_C@_0CN@FGAHOEIM@Duplicate?5key?$CLmodifier?5combinat@
CONST	SEGMENT
??_C@_0CN@FGAHOEIM@Duplicate?5key?$CLmodifier?5combinat@ DB 'Duplicate ke'
	DB	'y+modifier combination (%i) (%i)', 00H	; `string'
CONST	ENDS
;	COMDAT ??_C@_02DKCKIIND@?$CFs@
CONST	SEGMENT
??_C@_02DKCKIIND@?$CFs@ DB '%s', 00H			; `string'
CONST	ENDS
; Function compile flags: /Odtp /ZI
; File c:\users\nhv90\projects\eech\modules\system\keymapping.c
;	COMDAT ?configurable_event@@YGXPADP6GXPAUEVENT@@@Z@Z
_TEXT	SEGMENT
_fp$1 = -12						; size = 4
_number_of_matches$ = -8				; size = 4
_i$ = -4						; size = 4
_functionID$ = 8					; size = 4
_func$ = 12						; size = 4
?configurable_event@@YGXPADP6GXPAUEVENT@@@Z@Z PROC	; configurable_event, COMDAT

; 502  : {

  00000	55		 push	 ebp
  00001	8b ec		 mov	 ebp, esp
  00003	83 ec 4c	 sub	 esp, 76			; 0000004cH
  00006	53		 push	 ebx
  00007	56		 push	 esi
  00008	57		 push	 edi

; 503  : 	int i = 0;

  00009	c7 45 fc 00 00
	00 00		 mov	 DWORD PTR _i$[ebp], 0

; 504  : #ifdef SHOW_UNKNOWNS
; 505  : 	int number_of_matches = 0;

  00010	c7 45 f8 00 00
	00 00		 mov	 DWORD PTR _number_of_matches$[ebp], 0

; 506  : #endif
; 507  : 
; 508  : 	//**********************************************************************
; 509  : 	//	just run through the array, compare the functionIDs...
; 510  : 	//*********************************************************************/
; 511  : 	for (i; i < number_of_commands; i++)

  00017	eb 09		 jmp	 SHORT $LN4@configurab
$LN2@configurab:
  00019	8b 45 fc	 mov	 eax, DWORD PTR _i$[ebp]
  0001c	83 c0 01	 add	 eax, 1
  0001f	89 45 fc	 mov	 DWORD PTR _i$[ebp], eax
$LN4@configurab:
  00022	8b 45 fc	 mov	 eax, DWORD PTR _i$[ebp]
  00025	3b 05 00 00 00
	00		 cmp	 eax, DWORD PTR ?number_of_commands@@3HA
  0002b	0f 8d ce 00 00
	00		 jge	 $LN1@configurab

; 512  : 	{
; 513  : 		if ( strcmp (functionID, (keymaps[i]).functionID ) == 0 )

  00031	8b 45 fc	 mov	 eax, DWORD PTR _i$[ebp]
  00034	c1 e0 06	 shl	 eax, 6
  00037	05 00 00 00 00	 add	 eax, OFFSET ?keymaps@@3PAUmapline@@A
  0003c	50		 push	 eax
  0003d	8b 4d 08	 mov	 ecx, DWORD PTR _functionID$[ebp]
  00040	51		 push	 ecx
  00041	e8 00 00 00 00	 call	 _strcmp
  00046	83 c4 08	 add	 esp, 8
  00049	85 c0		 test	 eax, eax
  0004b	75 5d		 jne	 SHORT $LN5@configurab

; 514  : 		{
; 515  : 			//**********************************************************************
; 516  : 			//	if command is actually mapped..
; 517  : 			//*********************************************************************/
; 518  : 			if ( ( (keymaps[i]).key != 999 ) && ( (keymaps[i]).state != 999 ) )

  0004d	8b 45 fc	 mov	 eax, DWORD PTR _i$[ebp]
  00050	c1 e0 06	 shl	 eax, 6
  00053	81 b8 34 00 00
	00 e7 03 00 00	 cmp	 DWORD PTR ?keymaps@@3PAUmapline@@A[eax+52], 999 ; 000003e7H
  0005d	74 4b		 je	 SHORT $LN5@configurab
  0005f	8b 45 fc	 mov	 eax, DWORD PTR _i$[ebp]
  00062	c1 e0 06	 shl	 eax, 6
  00065	81 b8 3c 00 00
	00 e7 03 00 00	 cmp	 DWORD PTR ?keymaps@@3PAUmapline@@A[eax+60], 999 ; 000003e7H
  0006f	74 39		 je	 SHORT $LN5@configurab

; 519  : 			{
; 520  : 				set_event ((keymaps[i]).key, (keymaps[i]).modifier, (keymaps[i]).state, func);

  00071	8b 45 0c	 mov	 eax, DWORD PTR _func$[ebp]
  00074	50		 push	 eax
  00075	8b 4d fc	 mov	 ecx, DWORD PTR _i$[ebp]
  00078	c1 e1 06	 shl	 ecx, 6
  0007b	8b 91 3c 00 00
	00		 mov	 edx, DWORD PTR ?keymaps@@3PAUmapline@@A[ecx+60]
  00081	52		 push	 edx
  00082	8b 45 fc	 mov	 eax, DWORD PTR _i$[ebp]
  00085	c1 e0 06	 shl	 eax, 6
  00088	8b 88 38 00 00
	00		 mov	 ecx, DWORD PTR ?keymaps@@3PAUmapline@@A[eax+56]
  0008e	51		 push	 ecx
  0008f	8b 55 fc	 mov	 edx, DWORD PTR _i$[ebp]
  00092	c1 e2 06	 shl	 edx, 6
  00095	8b 82 34 00 00
	00		 mov	 eax, DWORD PTR ?keymaps@@3PAUmapline@@A[edx+52]
  0009b	50		 push	 eax
  0009c	e8 00 00 00 00	 call	 ?set_event@@YGXHHHP6GXPAUEVENT@@@Z@Z ; set_event

; 521  : #ifdef SHOW_UNKNOWNS
; 522  : 				number_of_matches++;

  000a1	8b 45 f8	 mov	 eax, DWORD PTR _number_of_matches$[ebp]
  000a4	83 c0 01	 add	 eax, 1
  000a7	89 45 f8	 mov	 DWORD PTR _number_of_matches$[ebp], eax
$LN5@configurab:

; 523  : #endif
; 524  : //				break;	// would speed up the mapping, however multiple key combinations for ONE function
; 525  : 						// would not work anymore..
; 526  : 			}
; 527  : 		}
; 528  : #ifdef SHOW_UNKNOWNS
; 529  : 		if (i >= number_of_commands)

  000aa	8b 45 fc	 mov	 eax, DWORD PTR _i$[ebp]
  000ad	3b 05 00 00 00
	00		 cmp	 eax, DWORD PTR ?number_of_commands@@3HA
  000b3	7c 3e		 jl	 SHORT $LN7@configurab

; 530  : 		{
; 531  : 			if (number_of_matches == 0)

  000b5	83 7d f8 00	 cmp	 DWORD PTR _number_of_matches$[ebp], 0
  000b9	75 38		 jne	 SHORT $LN7@configurab

; 532  : 			{
; 533  : 				FILE* fp = fopen("unknown.txt","at");

  000bb	68 00 00 00 00	 push	 OFFSET ??_C@_02CPIDLAI@at@
  000c0	68 00 00 00 00	 push	 OFFSET ??_C@_0M@BOCAMGNH@unknown?4txt@
  000c5	ff 15 00 00 00
	00		 call	 DWORD PTR __imp__fopen
  000cb	83 c4 08	 add	 esp, 8
  000ce	89 45 f4	 mov	 DWORD PTR _fp$1[ebp], eax

; 534  : 				fprintf(fp,"dunno %s\n",functionID);

  000d1	8b 45 08	 mov	 eax, DWORD PTR _functionID$[ebp]
  000d4	50		 push	 eax
  000d5	68 00 00 00 00	 push	 OFFSET ??_C@_09GDHCMDCM@dunno?5?$CFs?6@
  000da	8b 4d f4	 mov	 ecx, DWORD PTR _fp$1[ebp]
  000dd	51		 push	 ecx
  000de	e8 00 00 00 00	 call	 _fprintf
  000e3	83 c4 0c	 add	 esp, 12			; 0000000cH

; 535  : 				fclose(fp);

  000e6	8b 45 f4	 mov	 eax, DWORD PTR _fp$1[ebp]
  000e9	50		 push	 eax
  000ea	ff 15 00 00 00
	00		 call	 DWORD PTR __imp__fclose
  000f0	83 c4 04	 add	 esp, 4
$LN7@configurab:

; 536  : 			}
; 537  : 		}
; 538  : 		number_of_matches = 0;

  000f3	c7 45 f8 00 00
	00 00		 mov	 DWORD PTR _number_of_matches$[ebp], 0

; 539  : #endif
; 540  : 	}

  000fa	e9 1a ff ff ff	 jmp	 $LN2@configurab
$LN1@configurab:

; 541  : }

  000ff	5f		 pop	 edi
  00100	5e		 pop	 esi
  00101	5b		 pop	 ebx
  00102	8b e5		 mov	 esp, ebp
  00104	5d		 pop	 ebp
  00105	c2 08 00	 ret	 8
?configurable_event@@YGXPADP6GXPAUEVENT@@@Z@Z ENDP	; configurable_event
_TEXT	ENDS
; Function compile flags: /Odtp /ZI
; File c:\users\nhv90\projects\eech\modules\system\keymapping.c
;	COMDAT ?read_mapping_from_file@@YGXPAD@Z
_TEXT	SEGMENT
_i$1 = -1252						; size = 4
_res$ = -1248						; size = 4
_myStrPtr$ = -1244					; size = 4
_myString$ = -1240					; size = 1024
_line$ = -216						; size = 4
_fp$ = -212						; size = 4
_state$ = -208						; size = 50
_modifier$ = -156					; size = 50
_key$ = -104						; size = 50
_command$ = -52						; size = 50
_filename$ = 8						; size = 4
?read_mapping_from_file@@YGXPAD@Z PROC			; read_mapping_from_file, COMDAT

; 382  : {

  00000	55		 push	 ebp
  00001	8b ec		 mov	 ebp, esp
  00003	81 ec a4 05 00
	00		 sub	 esp, 1444		; 000005a4H
  00009	53		 push	 ebx
  0000a	56		 push	 esi
  0000b	57		 push	 edi

; 383  : 
; 384  : 	//**********************************************************************
; 385  : 	//	temp strings..
; 386  : 	//*********************************************************************/
; 387  : 	char	command[SLIZE],
; 388  : 			key[SLIZE],
; 389  : 			modifier[SLIZE],
; 390  : 			state[SLIZE];
; 391  : 
; 392  : 	FILE* fp;
; 393  : 
; 394  : 	int line = 0;	// represents number of read lines

  0000c	c7 85 28 ff ff
	ff 00 00 00 00	 mov	 DWORD PTR _line$[ebp], 0

; 395  : 	char myString [ MAX_LINE_LENGTH ], *myStrPtr, *res = 0;

  00016	c7 85 20 fb ff
	ff 00 00 00 00	 mov	 DWORD PTR _res$[ebp], 0

; 396  : 
; 397  : 	assert ( filename );

  00020	83 7d 08 00	 cmp	 DWORD PTR _filename$[ebp], 0
  00024	75 1c		 jne	 SHORT $LN16@read_mappi
  00026	a1 00 00 00 00	 mov	 eax, DWORD PTR ?__LINE__Var@?0??read_mapping_from_file@@YGXPAD@Z@4JA
  0002b	83 c0 0f	 add	 eax, 15			; 0000000fH
  0002e	50		 push	 eax
  0002f	68 00 00 00 00	 push	 OFFSET ??_C@_1HC@LLJGNOFA@?$AAc?$AA?3?$AA?2?$AAu?$AAs?$AAe?$AAr?$AAs?$AA?2?$AAn?$AAh?$AAv?$AA9?$AA0?$AA?2@
  00034	68 00 00 00 00	 push	 OFFSET ??_C@_1BC@OIENENHB@?$AAf?$AAi?$AAl?$AAe?$AAn?$AAa?$AAm?$AAe@
  00039	ff 15 00 00 00
	00		 call	 DWORD PTR __imp___wassert
  0003f	83 c4 0c	 add	 esp, 12			; 0000000cH
$LN16@read_mappi:

; 398  : 
; 399  : 	fp = fopen(filename, "r");

  00042	68 00 00 00 00	 push	 OFFSET ??_C@_01KDCPPGHE@r@
  00047	8b 45 08	 mov	 eax, DWORD PTR _filename$[ebp]
  0004a	50		 push	 eax
  0004b	ff 15 00 00 00
	00		 call	 DWORD PTR __imp__fopen
  00051	83 c4 08	 add	 esp, 8
  00054	89 85 2c ff ff
	ff		 mov	 DWORD PTR _fp$[ebp], eax

; 400  : 
; 401  : 	if (fp == NULL)

  0005a	83 bd 2c ff ff
	ff 00		 cmp	 DWORD PTR _fp$[ebp], 0
  00061	0f 85 84 00 00
	00		 jne	 $LN7@read_mappi

; 402  : 	{
; 403  : 		//**********************************************************************
; 404  : 		//	No Keymapping file is present, create one
; 405  : 		//*********************************************************************/
; 406  : 		fp = fopen(filename, "w");

  00067	68 00 00 00 00	 push	 OFFSET ??_C@_01NOFIACDB@w@
  0006c	8b 45 08	 mov	 eax, DWORD PTR _filename$[ebp]
  0006f	50		 push	 eax
  00070	ff 15 00 00 00
	00		 call	 DWORD PTR __imp__fopen
  00076	83 c4 08	 add	 esp, 8
  00079	89 85 2c ff ff
	ff		 mov	 DWORD PTR _fp$[ebp], eax

; 407  : 		if (fp != NULL)

  0007f	83 bd 2c ff ff
	ff 00		 cmp	 DWORD PTR _fp$[ebp], 0
  00086	74 4d		 je	 SHORT $LN9@read_mappi

; 408  : 		{
; 409  : 			int i;
; 410  : 
; 411  : 			for (i = 0; i < origcount; i++)

  00088	c7 85 1c fb ff
	ff 00 00 00 00	 mov	 DWORD PTR _i$1[ebp], 0
  00092	eb 0f		 jmp	 SHORT $LN4@read_mappi
$LN2@read_mappi:
  00094	8b 85 1c fb ff
	ff		 mov	 eax, DWORD PTR _i$1[ebp]
  0009a	83 c0 01	 add	 eax, 1
  0009d	89 85 1c fb ff
	ff		 mov	 DWORD PTR _i$1[ebp], eax
$LN4@read_mappi:
  000a3	81 bd 1c fb ff
	ff 60 01 00 00	 cmp	 DWORD PTR _i$1[ebp], 352 ; 00000160H
  000ad	7d 24		 jge	 SHORT $LN3@read_mappi

; 412  : 			{
; 413  : 				fprintf(fp,"%s",standard_key_mapping[i]);

  000af	8b 85 1c fb ff
	ff		 mov	 eax, DWORD PTR _i$1[ebp]
  000b5	8b 0c 85 00 00
	00 00		 mov	 ecx, DWORD PTR ?standard_key_mapping@@3PAPBDA[eax*4]
  000bc	51		 push	 ecx
  000bd	68 00 00 00 00	 push	 OFFSET ??_C@_02DKCKIIND@?$CFs@
  000c2	8b 95 2c ff ff
	ff		 mov	 edx, DWORD PTR _fp$[ebp]
  000c8	52		 push	 edx
  000c9	e8 00 00 00 00	 call	 _fprintf
  000ce	83 c4 0c	 add	 esp, 12			; 0000000cH

; 414  : 			}

  000d1	eb c1		 jmp	 SHORT $LN2@read_mappi
$LN3@read_mappi:

; 415  : 		
; 416  : 		}
; 417  : 		//**********************************************************************
; 418  : 		//	Ooops..
; 419  : 		//*********************************************************************/
; 420  : 		else

  000d3	eb 11		 jmp	 SHORT $LN10@read_mappi
$LN9@read_mappi:

; 421  : 		{
; 422  : //			command_line_key_mapping = FALSE;	// pointless, as we dont go any further anyway..
; 423  : 			debug_fatal ( "Could not open or create file %s",filename );

  000d5	8b 45 08	 mov	 eax, DWORD PTR _filename$[ebp]
  000d8	50		 push	 eax
  000d9	68 00 00 00 00	 push	 OFFSET ??_C@_0CB@KEMECPFD@Could?5not?5open?5or?5create?5file?5?$CF@
  000de	e8 00 00 00 00	 call	 ?debug_fatal@@YAXPBDZZ	; debug_fatal
  000e3	83 c4 08	 add	 esp, 8
$LN10@read_mappi:

; 424  : 		}
; 425  : 	}
; 426  : 	else

  000e6	e9 85 01 00 00	 jmp	 $LN1@read_mappi
$LN7@read_mappi:

; 427  : 	{
; 428  : 
; 429  : 		fseek(fp,0,SEEK_SET);	// go to begin of file..

  000eb	6a 00		 push	 0
  000ed	6a 00		 push	 0
  000ef	8b 85 2c ff ff
	ff		 mov	 eax, DWORD PTR _fp$[ebp]
  000f5	50		 push	 eax
  000f6	ff 15 00 00 00
	00		 call	 DWORD PTR __imp__fseek
  000fc	83 c4 0c	 add	 esp, 12			; 0000000cH
$LN5@read_mappi:

; 430  : 
; 431  : 		//**********************************************************************
; 432  : 		//	main loop.. I read one line, then 4 strings from this line
; 433  : 		//*********************************************************************/
; 434  : 		while ((!feof(fp))&&(line < MAXMAPPINGS))

  000ff	8b 85 2c ff ff
	ff		 mov	 eax, DWORD PTR _fp$[ebp]
  00105	50		 push	 eax
  00106	ff 15 00 00 00
	00		 call	 DWORD PTR __imp__feof
  0010c	83 c4 04	 add	 esp, 4
  0010f	85 c0		 test	 eax, eax
  00111	0f 85 3e 01 00
	00		 jne	 $LN6@read_mappi
  00117	81 bd 28 ff ff
	ff 2c 01 00 00	 cmp	 DWORD PTR _line$[ebp], 300 ; 0000012cH
  00121	0f 8d 2e 01 00
	00		 jge	 $LN6@read_mappi

; 435  : 		{
; 436  : 			res = fgets(myString, 1024, fp);

  00127	8b 85 2c ff ff
	ff		 mov	 eax, DWORD PTR _fp$[ebp]
  0012d	50		 push	 eax
  0012e	68 00 04 00 00	 push	 1024			; 00000400H
  00133	8d 8d 28 fb ff
	ff		 lea	 ecx, DWORD PTR _myString$[ebp]
  00139	51		 push	 ecx
  0013a	ff 15 00 00 00
	00		 call	 DWORD PTR __imp__fgets
  00140	83 c4 0c	 add	 esp, 12			; 0000000cH
  00143	89 85 20 fb ff
	ff		 mov	 DWORD PTR _res$[ebp], eax

; 437  : 			if ( res == NULL )

  00149	83 bd 20 fb ff
	ff 00		 cmp	 DWORD PTR _res$[ebp], 0
  00150	75 05		 jne	 SHORT $LN11@read_mappi

; 438  : 				break;

  00152	e9 fe 00 00 00	 jmp	 $LN6@read_mappi
$LN11@read_mappi:

; 439  : 			myStrPtr = CleanUpString ( myString );

  00157	8d 85 28 fb ff
	ff		 lea	 eax, DWORD PTR _myString$[ebp]
  0015d	50		 push	 eax
  0015e	e8 00 00 00 00	 call	 ?CleanUpString@@YGPADPAD@Z ; CleanUpString
  00163	89 85 24 fb ff
	ff		 mov	 DWORD PTR _myStrPtr$[ebp], eax

; 440  : 			if (myStrPtr[0] != 0)

  00169	b8 01 00 00 00	 mov	 eax, 1
  0016e	6b c8 00	 imul	 ecx, eax, 0
  00171	8b 95 24 fb ff
	ff		 mov	 edx, DWORD PTR _myStrPtr$[ebp]
  00177	0f b6 04 0a	 movzx	 eax, BYTE PTR [edx+ecx]
  0017b	85 c0		 test	 eax, eax
  0017d	0f 84 cd 00 00
	00		 je	 $LN12@read_mappi

; 441  : 			{
; 442  : 				if (myStrPtr[0] != '#')

  00183	b8 01 00 00 00	 mov	 eax, 1
  00188	6b c8 00	 imul	 ecx, eax, 0
  0018b	8b 95 24 fb ff
	ff		 mov	 edx, DWORD PTR _myStrPtr$[ebp]
  00191	0f b6 04 0a	 movzx	 eax, BYTE PTR [edx+ecx]
  00195	83 f8 23	 cmp	 eax, 35			; 00000023H
  00198	0f 84 b2 00 00
	00		 je	 $LN12@read_mappi

; 443  : 				// found non-empty, non-comment line. Parse it
; 444  : 				{
; 445  : 					//**********************************************************************
; 446  : 					//	file-syntax: command \t key \t modifier \t state\n
; 447  : 					//*********************************************************************/
; 448  : 					if (sscanf(myStrPtr,"%s %s %s %s",command,key,modifier,state) != 4)

  0019e	8d 85 30 ff ff
	ff		 lea	 eax, DWORD PTR _state$[ebp]
  001a4	50		 push	 eax
  001a5	8d 8d 64 ff ff
	ff		 lea	 ecx, DWORD PTR _modifier$[ebp]
  001ab	51		 push	 ecx
  001ac	8d 55 98	 lea	 edx, DWORD PTR _key$[ebp]
  001af	52		 push	 edx
  001b0	8d 45 cc	 lea	 eax, DWORD PTR _command$[ebp]
  001b3	50		 push	 eax
  001b4	68 00 00 00 00	 push	 OFFSET ??_C@_0M@HKJEMFMD@?$CFs?5?$CFs?5?$CFs?5?$CFs@
  001b9	8b 8d 24 fb ff
	ff		 mov	 ecx, DWORD PTR _myStrPtr$[ebp]
  001bf	51		 push	 ecx
  001c0	e8 00 00 00 00	 call	 _sscanf
  001c5	83 c4 18	 add	 esp, 24			; 00000018H
  001c8	83 f8 04	 cmp	 eax, 4
  001cb	74 05		 je	 SHORT $LN14@read_mappi

; 449  : 					{
; 450  : #ifdef TIGHT_ARSE_DEBUG
; 451  : 						debug_fatal ( "Remember to salt the fries: less than 4 strings in a line" );
; 452  : #else
; 453  : 						continue;	// This makes us just disregard that line..

  001cd	e9 2d ff ff ff	 jmp	 $LN5@read_mappi
$LN14@read_mappi:

; 454  : #endif
; 455  : 					}
; 456  : 
; 457  : 					sprintf((keymaps[line]).functionID,"%s",command);

  001d2	8d 45 cc	 lea	 eax, DWORD PTR _command$[ebp]
  001d5	50		 push	 eax
  001d6	68 00 00 00 00	 push	 OFFSET ??_C@_02DKCKIIND@?$CFs@
  001db	8b 8d 28 ff ff
	ff		 mov	 ecx, DWORD PTR _line$[ebp]
  001e1	c1 e1 06	 shl	 ecx, 6
  001e4	81 c1 00 00 00
	00		 add	 ecx, OFFSET ?keymaps@@3PAUmapline@@A
  001ea	51		 push	 ecx
  001eb	e8 00 00 00 00	 call	 _sprintf
  001f0	83 c4 0c	 add	 esp, 12			; 0000000cH

; 458  : 					(keymaps[line]).key = get_DIK_from_string(key);

  001f3	8d 45 98	 lea	 eax, DWORD PTR _key$[ebp]
  001f6	50		 push	 eax
  001f7	e8 00 00 00 00	 call	 ?get_DIK_from_string@@YGHPAD@Z ; get_DIK_from_string
  001fc	8b 8d 28 ff ff
	ff		 mov	 ecx, DWORD PTR _line$[ebp]
  00202	c1 e1 06	 shl	 ecx, 6
  00205	89 81 34 00 00
	00		 mov	 DWORD PTR ?keymaps@@3PAUmapline@@A[ecx+52], eax

; 459  : 					(keymaps[line]).modifier = get_modifier_from_string(modifier);

  0020b	8d 85 64 ff ff
	ff		 lea	 eax, DWORD PTR _modifier$[ebp]
  00211	50		 push	 eax
  00212	e8 00 00 00 00	 call	 ?get_modifier_from_string@@YGHPAD@Z ; get_modifier_from_string
  00217	8b 8d 28 ff ff
	ff		 mov	 ecx, DWORD PTR _line$[ebp]
  0021d	c1 e1 06	 shl	 ecx, 6
  00220	89 81 38 00 00
	00		 mov	 DWORD PTR ?keymaps@@3PAUmapline@@A[ecx+56], eax

; 460  : 					(keymaps[line]).state = get_key_state_from_string(state);

  00226	8d 85 30 ff ff
	ff		 lea	 eax, DWORD PTR _state$[ebp]
  0022c	50		 push	 eax
  0022d	e8 00 00 00 00	 call	 ?get_key_state_from_string@@YGHPAD@Z ; get_key_state_from_string
  00232	8b 8d 28 ff ff
	ff		 mov	 ecx, DWORD PTR _line$[ebp]
  00238	c1 e1 06	 shl	 ecx, 6
  0023b	89 81 3c 00 00
	00		 mov	 DWORD PTR ?keymaps@@3PAUmapline@@A[ecx+60], eax

; 461  : #ifdef TELL_ME_WHAT_YOU_SEE
; 462  : 					{
; 463  : 						FILE* fp = fopen("echo.txt","at");
; 464  : 						fprintf(fp,"%s %i %i %i\n",(keymaps[line]).functionID,(keymaps[line]).key,(keymaps[line]).modifier,(keymaps[line]).state);
; 465  : 						fclose(fp);
; 466  : 					}
; 467  : #endif
; 468  : 					line++;

  00241	8b 85 28 ff ff
	ff		 mov	 eax, DWORD PTR _line$[ebp]
  00247	83 c0 01	 add	 eax, 1
  0024a	89 85 28 ff ff
	ff		 mov	 DWORD PTR _line$[ebp], eax
$LN12@read_mappi:

; 469  : 				}
; 470  : #ifdef SHOW_COMMENT_LINES
; 471  : 				else
; 472  : 				{
; 473  : 					FILE* fp = fopen("comment.txt","at");
; 474  : 					fprintf(fp,"comment: %s\n",myStrPtr);
; 475  : 					fclose(fp);
; 476  : 				}
; 477  : #endif
; 478  : 			}
; 479  : 		}

  00250	e9 aa fe ff ff	 jmp	 $LN5@read_mappi
$LN6@read_mappi:

; 480  : 		fclose(fp);

  00255	8b 85 2c ff ff
	ff		 mov	 eax, DWORD PTR _fp$[ebp]
  0025b	50		 push	 eax
  0025c	ff 15 00 00 00
	00		 call	 DWORD PTR __imp__fclose
  00262	83 c4 04	 add	 esp, 4

; 481  : 
; 482  : 		number_of_commands = line;

  00265	8b 85 28 ff ff
	ff		 mov	 eax, DWORD PTR _line$[ebp]
  0026b	a3 00 00 00 00	 mov	 DWORD PTR ?number_of_commands@@3HA, eax
$LN1@read_mappi:

; 483  : 	}
; 484  : 
; 485  : //	check_for_validity ();
; 486  : }

  00270	5f		 pop	 edi
  00271	5e		 pop	 esi
  00272	5b		 pop	 ebx
  00273	8b e5		 mov	 esp, ebp
  00275	5d		 pop	 ebp
  00276	c2 04 00	 ret	 4
?read_mapping_from_file@@YGXPAD@Z ENDP			; read_mapping_from_file
_TEXT	ENDS
; Function compile flags: /Odtp /ZI
; File c:\users\nhv90\projects\eech\modules\system\keymapping.c
;	COMDAT ?CleanUpString@@YGPADPAD@Z
_TEXT	SEGMENT
_t$ = -8						; size = 4
_ret$ = -4						; size = 4
_s$ = 8							; size = 4
?CleanUpString@@YGPADPAD@Z PROC				; CleanUpString, COMDAT

; 359  : { char *ret = s, *t; 

  00000	55		 push	 ebp
  00001	8b ec		 mov	 ebp, esp
  00003	83 ec 48	 sub	 esp, 72			; 00000048H
  00006	53		 push	 ebx
  00007	56		 push	 esi
  00008	57		 push	 edi
  00009	8b 45 08	 mov	 eax, DWORD PTR _s$[ebp]
  0000c	89 45 fc	 mov	 DWORD PTR _ret$[ebp], eax
$LN2@CleanUpStr:

; 360  :   while ((*ret != 0) && ((*ret == ' ') || (*ret == 9 /* Tab */)))

  0000f	8b 45 fc	 mov	 eax, DWORD PTR _ret$[ebp]
  00012	0f b6 08	 movzx	 ecx, BYTE PTR [eax]
  00015	85 c9		 test	 ecx, ecx
  00017	74 21		 je	 SHORT $LN3@CleanUpStr
  00019	8b 45 fc	 mov	 eax, DWORD PTR _ret$[ebp]
  0001c	0f b6 08	 movzx	 ecx, BYTE PTR [eax]
  0001f	83 f9 20	 cmp	 ecx, 32			; 00000020H
  00022	74 0b		 je	 SHORT $LN6@CleanUpStr
  00024	8b 45 fc	 mov	 eax, DWORD PTR _ret$[ebp]
  00027	0f b6 08	 movzx	 ecx, BYTE PTR [eax]
  0002a	83 f9 09	 cmp	 ecx, 9
  0002d	75 0b		 jne	 SHORT $LN3@CleanUpStr
$LN6@CleanUpStr:

; 361  : 	  ret++;

  0002f	8b 45 fc	 mov	 eax, DWORD PTR _ret$[ebp]
  00032	83 c0 01	 add	 eax, 1
  00035	89 45 fc	 mov	 DWORD PTR _ret$[ebp], eax
  00038	eb d5		 jmp	 SHORT $LN2@CleanUpStr
$LN3@CleanUpStr:

; 362  :   t = &ret[ strlen(ret) ]; // t points to the 0 now

  0003a	8b 45 fc	 mov	 eax, DWORD PTR _ret$[ebp]
  0003d	50		 push	 eax
  0003e	e8 00 00 00 00	 call	 _strlen
  00043	83 c4 04	 add	 esp, 4
  00046	03 45 fc	 add	 eax, DWORD PTR _ret$[ebp]
  00049	89 45 f8	 mov	 DWORD PTR _t$[ebp], eax

; 363  :   t--;

  0004c	8b 45 f8	 mov	 eax, DWORD PTR _t$[ebp]
  0004f	83 e8 01	 sub	 eax, 1
  00052	89 45 f8	 mov	 DWORD PTR _t$[ebp], eax
$LN4@CleanUpStr:

; 364  :   while ( (t >= ret) && ((*t == ' ') || (*t == 9 /* Tab */) || (*t == 10) || (*t == 13)))

  00055	8b 45 f8	 mov	 eax, DWORD PTR _t$[ebp]
  00058	3b 45 fc	 cmp	 eax, DWORD PTR _ret$[ebp]
  0005b	72 3d		 jb	 SHORT $LN5@CleanUpStr
  0005d	8b 45 f8	 mov	 eax, DWORD PTR _t$[ebp]
  00060	0f b6 08	 movzx	 ecx, BYTE PTR [eax]
  00063	83 f9 20	 cmp	 ecx, 32			; 00000020H
  00066	74 21		 je	 SHORT $LN7@CleanUpStr
  00068	8b 45 f8	 mov	 eax, DWORD PTR _t$[ebp]
  0006b	0f b6 08	 movzx	 ecx, BYTE PTR [eax]
  0006e	83 f9 09	 cmp	 ecx, 9
  00071	74 16		 je	 SHORT $LN7@CleanUpStr
  00073	8b 45 f8	 mov	 eax, DWORD PTR _t$[ebp]
  00076	0f b6 08	 movzx	 ecx, BYTE PTR [eax]
  00079	83 f9 0a	 cmp	 ecx, 10			; 0000000aH
  0007c	74 0b		 je	 SHORT $LN7@CleanUpStr
  0007e	8b 45 f8	 mov	 eax, DWORD PTR _t$[ebp]
  00081	0f b6 08	 movzx	 ecx, BYTE PTR [eax]
  00084	83 f9 0d	 cmp	 ecx, 13			; 0000000dH
  00087	75 11		 jne	 SHORT $LN5@CleanUpStr
$LN7@CleanUpStr:

; 365  :   { *t = 0;

  00089	8b 45 f8	 mov	 eax, DWORD PTR _t$[ebp]
  0008c	c6 00 00	 mov	 BYTE PTR [eax], 0

; 366  :     t--;

  0008f	8b 45 f8	 mov	 eax, DWORD PTR _t$[ebp]
  00092	83 e8 01	 sub	 eax, 1
  00095	89 45 f8	 mov	 DWORD PTR _t$[ebp], eax

; 367  :   }

  00098	eb bb		 jmp	 SHORT $LN4@CleanUpStr
$LN5@CleanUpStr:

; 368  :   return ret;

  0009a	8b 45 fc	 mov	 eax, DWORD PTR _ret$[ebp]

; 369  : }

  0009d	5f		 pop	 edi
  0009e	5e		 pop	 esi
  0009f	5b		 pop	 ebx
  000a0	8b e5		 mov	 esp, ebp
  000a2	5d		 pop	 ebp
  000a3	c2 04 00	 ret	 4
?CleanUpString@@YGPADPAD@Z ENDP				; CleanUpString
_TEXT	ENDS
; Function compile flags: /Odtp /ZI
; File c:\users\nhv90\projects\eech\modules\system\keymapping.c
;	COMDAT ?get_key_state_from_string@@YGHPAD@Z
_TEXT	SEGMENT
_retval$ = -4						; size = 4
_statestring$ = 8					; size = 4
?get_key_state_from_string@@YGHPAD@Z PROC		; get_key_state_from_string, COMDAT

; 328  : {

  00000	55		 push	 ebp
  00001	8b ec		 mov	 ebp, esp
  00003	83 ec 44	 sub	 esp, 68			; 00000044H
  00006	53		 push	 ebx
  00007	56		 push	 esi
  00008	57		 push	 edi

; 329  : 	int retval = 0;

  00009	c7 45 fc 00 00
	00 00		 mov	 DWORD PTR _retval$[ebp], 0

; 330  : 
; 331  : 	if ( strcmp ( statestring, "KEY_STATE_INVALID") == 0 )

  00010	68 00 00 00 00	 push	 OFFSET ??_C@_0BC@DKNLGJDA@KEY_STATE_INVALID@
  00015	8b 45 08	 mov	 eax, DWORD PTR _statestring$[ebp]
  00018	50		 push	 eax
  00019	e8 00 00 00 00	 call	 _strcmp
  0001e	83 c4 08	 add	 esp, 8
  00021	85 c0		 test	 eax, eax
  00023	75 09		 jne	 SHORT $LN2@get_key_st

; 332  : 		retval = KEY_STATE_INVALID;

  00025	c7 45 fc 00 00
	00 00		 mov	 DWORD PTR _retval$[ebp], 0
  0002c	eb 6b		 jmp	 SHORT $LN3@get_key_st
$LN2@get_key_st:

; 333  : 	else if ( strcmp ( statestring, "KEY_STATE_UP") == 0 )

  0002e	68 00 00 00 00	 push	 OFFSET ??_C@_0N@HFICKEJA@KEY_STATE_UP@
  00033	8b 45 08	 mov	 eax, DWORD PTR _statestring$[ebp]
  00036	50		 push	 eax
  00037	e8 00 00 00 00	 call	 _strcmp
  0003c	83 c4 08	 add	 esp, 8
  0003f	85 c0		 test	 eax, eax
  00041	75 09		 jne	 SHORT $LN4@get_key_st

; 334  : 		retval = KEY_STATE_UP;

  00043	c7 45 fc 01 00
	00 00		 mov	 DWORD PTR _retval$[ebp], 1
  0004a	eb 4d		 jmp	 SHORT $LN3@get_key_st
$LN4@get_key_st:

; 335  : 	else if ( strcmp ( statestring, "KEY_STATE_DOWN") == 0 )

  0004c	68 00 00 00 00	 push	 OFFSET ??_C@_0P@PCAJDLCM@KEY_STATE_DOWN@
  00051	8b 45 08	 mov	 eax, DWORD PTR _statestring$[ebp]
  00054	50		 push	 eax
  00055	e8 00 00 00 00	 call	 _strcmp
  0005a	83 c4 08	 add	 esp, 8
  0005d	85 c0		 test	 eax, eax
  0005f	75 09		 jne	 SHORT $LN6@get_key_st

; 336  : 		retval = KEY_STATE_DOWN;

  00061	c7 45 fc 02 00
	00 00		 mov	 DWORD PTR _retval$[ebp], 2
  00068	eb 2f		 jmp	 SHORT $LN3@get_key_st
$LN6@get_key_st:

; 337  : 	else if ( strcmp ( statestring, "KEY_STATE_EITHER") == 0 )

  0006a	68 00 00 00 00	 push	 OFFSET ??_C@_0BB@GEADMNNL@KEY_STATE_EITHER@
  0006f	8b 45 08	 mov	 eax, DWORD PTR _statestring$[ebp]
  00072	50		 push	 eax
  00073	e8 00 00 00 00	 call	 _strcmp
  00078	83 c4 08	 add	 esp, 8
  0007b	85 c0		 test	 eax, eax
  0007d	75 09		 jne	 SHORT $LN8@get_key_st

; 338  : 		retval = KEY_STATE_EITHER;

  0007f	c7 45 fc 03 00
	00 00		 mov	 DWORD PTR _retval$[ebp], 3

; 339  : 	else

  00086	eb 11		 jmp	 SHORT $LN3@get_key_st
$LN8@get_key_st:

; 340  : 	{
; 341  : 		debug_fatal ( "Dont know key_state %s",statestring );

  00088	8b 45 08	 mov	 eax, DWORD PTR _statestring$[ebp]
  0008b	50		 push	 eax
  0008c	68 00 00 00 00	 push	 OFFSET ??_C@_0BI@HMKDDHCK@Don?$LEt?5know?5key_state?5?$CFs@
  00091	e8 00 00 00 00	 call	 ?debug_fatal@@YAXPBDZZ	; debug_fatal
  00096	83 c4 08	 add	 esp, 8
$LN3@get_key_st:

; 342  : 	}
; 343  : 
; 344  : 	return retval;

  00099	8b 45 fc	 mov	 eax, DWORD PTR _retval$[ebp]

; 345  : }

  0009c	5f		 pop	 edi
  0009d	5e		 pop	 esi
  0009e	5b		 pop	 ebx
  0009f	8b e5		 mov	 esp, ebp
  000a1	5d		 pop	 ebp
  000a2	c2 04 00	 ret	 4
?get_key_state_from_string@@YGHPAD@Z ENDP		; get_key_state_from_string
_TEXT	ENDS
; Function compile flags: /Odtp /ZI
; File c:\users\nhv90\projects\eech\modules\system\keymapping.c
;	COMDAT ?get_modifier_from_string@@YGHPAD@Z
_TEXT	SEGMENT
_retval$ = -4						; size = 4
_modifierstring$ = 8					; size = 4
?get_modifier_from_string@@YGHPAD@Z PROC		; get_modifier_from_string, COMDAT

; 293  : {

  00000	55		 push	 ebp
  00001	8b ec		 mov	 ebp, esp
  00003	83 ec 44	 sub	 esp, 68			; 00000044H
  00006	53		 push	 ebx
  00007	56		 push	 esi
  00008	57		 push	 edi

; 294  : 	int retval = 0;

  00009	c7 45 fc 00 00
	00 00		 mov	 DWORD PTR _retval$[ebp], 0

; 295  : 	
; 296  : 	if ( strcmp ( modifierstring, "MODIFIER_NONE") == 0 )

  00010	68 00 00 00 00	 push	 OFFSET ??_C@_0O@MGFOBHKO@MODIFIER_NONE@
  00015	8b 45 08	 mov	 eax, DWORD PTR _modifierstring$[ebp]
  00018	50		 push	 eax
  00019	e8 00 00 00 00	 call	 _strcmp
  0001e	83 c4 08	 add	 esp, 8
  00021	85 c0		 test	 eax, eax
  00023	75 0c		 jne	 SHORT $LN2@get_modifi

; 297  : 		retval = MODIFIER_NONE;

  00025	c7 45 fc 00 00
	00 00		 mov	 DWORD PTR _retval$[ebp], 0
  0002c	e9 cb 00 00 00	 jmp	 $LN3@get_modifi
$LN2@get_modifi:

; 298  : 	else if ( strcmp ( modifierstring, "MODIFIER_LEFT_SHIFT") == 0 )

  00031	68 00 00 00 00	 push	 OFFSET ??_C@_0BE@HAHJJNNA@MODIFIER_LEFT_SHIFT@
  00036	8b 45 08	 mov	 eax, DWORD PTR _modifierstring$[ebp]
  00039	50		 push	 eax
  0003a	e8 00 00 00 00	 call	 _strcmp
  0003f	83 c4 08	 add	 esp, 8
  00042	85 c0		 test	 eax, eax
  00044	75 0c		 jne	 SHORT $LN4@get_modifi

; 299  : 		retval = MODIFIER_LEFT_SHIFT;

  00046	c7 45 fc 01 00
	00 00		 mov	 DWORD PTR _retval$[ebp], 1
  0004d	e9 aa 00 00 00	 jmp	 $LN3@get_modifi
$LN4@get_modifi:

; 300  : 	else if ( strcmp ( modifierstring, "MODIFIER_LEFT_CONTROL") == 0 )

  00052	68 00 00 00 00	 push	 OFFSET ??_C@_0BG@LDNODEEI@MODIFIER_LEFT_CONTROL@
  00057	8b 45 08	 mov	 eax, DWORD PTR _modifierstring$[ebp]
  0005a	50		 push	 eax
  0005b	e8 00 00 00 00	 call	 _strcmp
  00060	83 c4 08	 add	 esp, 8
  00063	85 c0		 test	 eax, eax
  00065	75 0c		 jne	 SHORT $LN6@get_modifi

; 301  : 		retval = MODIFIER_LEFT_CONTROL;

  00067	c7 45 fc 02 00
	00 00		 mov	 DWORD PTR _retval$[ebp], 2
  0006e	e9 89 00 00 00	 jmp	 $LN3@get_modifi
$LN6@get_modifi:

; 302  : 	else if ( strcmp ( modifierstring, "MODIFIER_LEFT_ALT") == 0 )

  00073	68 00 00 00 00	 push	 OFFSET ??_C@_0BC@JIANOMDN@MODIFIER_LEFT_ALT@
  00078	8b 45 08	 mov	 eax, DWORD PTR _modifierstring$[ebp]
  0007b	50		 push	 eax
  0007c	e8 00 00 00 00	 call	 _strcmp
  00081	83 c4 08	 add	 esp, 8
  00084	85 c0		 test	 eax, eax
  00086	75 09		 jne	 SHORT $LN8@get_modifi

; 303  : 		retval = MODIFIER_LEFT_ALT;

  00088	c7 45 fc 03 00
	00 00		 mov	 DWORD PTR _retval$[ebp], 3
  0008f	eb 6b		 jmp	 SHORT $LN3@get_modifi
$LN8@get_modifi:

; 304  : 	else if ( strcmp ( modifierstring, "MODIFIER_RIGHT_SHIFT") == 0 )

  00091	68 00 00 00 00	 push	 OFFSET ??_C@_0BF@JLALIPOF@MODIFIER_RIGHT_SHIFT@
  00096	8b 45 08	 mov	 eax, DWORD PTR _modifierstring$[ebp]
  00099	50		 push	 eax
  0009a	e8 00 00 00 00	 call	 _strcmp
  0009f	83 c4 08	 add	 esp, 8
  000a2	85 c0		 test	 eax, eax
  000a4	75 09		 jne	 SHORT $LN10@get_modifi

; 305  : 		retval = MODIFIER_RIGHT_SHIFT;

  000a6	c7 45 fc 04 00
	00 00		 mov	 DWORD PTR _retval$[ebp], 4
  000ad	eb 4d		 jmp	 SHORT $LN3@get_modifi
$LN10@get_modifi:

; 306  :     else if ( strcmp ( modifierstring, "MODIFIER_RIGHT_CONTROL") == 0 )

  000af	68 00 00 00 00	 push	 OFFSET ??_C@_0BH@OCFGGMME@MODIFIER_RIGHT_CONTROL@
  000b4	8b 45 08	 mov	 eax, DWORD PTR _modifierstring$[ebp]
  000b7	50		 push	 eax
  000b8	e8 00 00 00 00	 call	 _strcmp
  000bd	83 c4 08	 add	 esp, 8
  000c0	85 c0		 test	 eax, eax
  000c2	75 09		 jne	 SHORT $LN12@get_modifi

; 307  : 		retval = MODIFIER_RIGHT_CONTROL;

  000c4	c7 45 fc 05 00
	00 00		 mov	 DWORD PTR _retval$[ebp], 5
  000cb	eb 2f		 jmp	 SHORT $LN3@get_modifi
$LN12@get_modifi:

; 308  :     else if ( strcmp ( modifierstring, "MODIFIER_RIGHT_ALT") == 0 )

  000cd	68 00 00 00 00	 push	 OFFSET ??_C@_0BD@GAOIJOPD@MODIFIER_RIGHT_ALT@
  000d2	8b 45 08	 mov	 eax, DWORD PTR _modifierstring$[ebp]
  000d5	50		 push	 eax
  000d6	e8 00 00 00 00	 call	 _strcmp
  000db	83 c4 08	 add	 esp, 8
  000de	85 c0		 test	 eax, eax
  000e0	75 09		 jne	 SHORT $LN14@get_modifi

; 309  : 		retval = MODIFIER_RIGHT_ALT;

  000e2	c7 45 fc 06 00
	00 00		 mov	 DWORD PTR _retval$[ebp], 6

; 310  : 	else

  000e9	eb 11		 jmp	 SHORT $LN3@get_modifi
$LN14@get_modifi:

; 311  : 	{
; 312  : 		debug_fatal ( "Dont know modifier %s",modifierstring );

  000eb	8b 45 08	 mov	 eax, DWORD PTR _modifierstring$[ebp]
  000ee	50		 push	 eax
  000ef	68 00 00 00 00	 push	 OFFSET ??_C@_0BH@FEFOBGON@Don?$LEt?5know?5modifier?5?$CFs@
  000f4	e8 00 00 00 00	 call	 ?debug_fatal@@YAXPBDZZ	; debug_fatal
  000f9	83 c4 08	 add	 esp, 8
$LN3@get_modifi:

; 313  : 	}
; 314  : 
; 315  : 	return retval;

  000fc	8b 45 fc	 mov	 eax, DWORD PTR _retval$[ebp]

; 316  : }

  000ff	5f		 pop	 edi
  00100	5e		 pop	 esi
  00101	5b		 pop	 ebx
  00102	8b e5		 mov	 esp, ebp
  00104	5d		 pop	 ebp
  00105	c2 04 00	 ret	 4
?get_modifier_from_string@@YGHPAD@Z ENDP		; get_modifier_from_string
_TEXT	ENDS
; Function compile flags: /Odtp /ZI
; File c:\users\nhv90\projects\eech\modules\system\keymapping.c
;	COMDAT ?get_DIK_from_string@@YGHPAD@Z
_TEXT	SEGMENT
_retval$ = -8						; size = 4
_i$ = -4						; size = 4
_keystring$ = 8						; size = 4
?get_DIK_from_string@@YGHPAD@Z PROC			; get_DIK_from_string, COMDAT

; 261  : {

  00000	55		 push	 ebp
  00001	8b ec		 mov	 ebp, esp
  00003	83 ec 48	 sub	 esp, 72			; 00000048H
  00006	53		 push	 ebx
  00007	56		 push	 esi
  00008	57		 push	 edi

; 262  : 	int i;
; 263  : 	int retval = 0;

  00009	c7 45 f8 00 00
	00 00		 mov	 DWORD PTR _retval$[ebp], 0

; 264  : 
; 265  : 	for ( i = 0; i < NUM_OF_KEYS; i++ )

  00010	c7 45 fc 00 00
	00 00		 mov	 DWORD PTR _i$[ebp], 0
  00017	eb 09		 jmp	 SHORT $LN4@get_DIK_fr
$LN2@get_DIK_fr:
  00019	8b 45 fc	 mov	 eax, DWORD PTR _i$[ebp]
  0001c	83 c0 01	 add	 eax, 1
  0001f	89 45 fc	 mov	 DWORD PTR _i$[ebp], eax
$LN4@get_DIK_fr:
  00022	81 7d fc 8e 00
	00 00		 cmp	 DWORD PTR _i$[ebp], 142	; 0000008eH
  00029	7d 2c		 jge	 SHORT $LN3@get_DIK_fr

; 266  : 	{
; 267  : 		if ( strcmp(all_keys[i].key_name,keystring) == 0 )

  0002b	8b 45 08	 mov	 eax, DWORD PTR _keystring$[ebp]
  0002e	50		 push	 eax
  0002f	8b 4d fc	 mov	 ecx, DWORD PTR _i$[ebp]
  00032	8b 14 cd 00 00
	00 00		 mov	 edx, DWORD PTR ?all_keys@@3PAUkey@@A[ecx*8]
  00039	52		 push	 edx
  0003a	e8 00 00 00 00	 call	 _strcmp
  0003f	83 c4 08	 add	 esp, 8
  00042	85 c0		 test	 eax, eax
  00044	75 0f		 jne	 SHORT $LN5@get_DIK_fr

; 268  : 		{
; 269  : 			retval = all_keys[i].dik_val;

  00046	8b 45 fc	 mov	 eax, DWORD PTR _i$[ebp]
  00049	8b 0c c5 04 00
	00 00		 mov	 ecx, DWORD PTR ?all_keys@@3PAUkey@@A[eax*8+4]
  00050	89 4d f8	 mov	 DWORD PTR _retval$[ebp], ecx

; 270  : 			break;

  00053	eb 02		 jmp	 SHORT $LN3@get_DIK_fr
$LN5@get_DIK_fr:

; 271  : 		}
; 272  : 	}

  00055	eb c2		 jmp	 SHORT $LN2@get_DIK_fr
$LN3@get_DIK_fr:

; 273  : 	if ( retval == 0 )	// kinda crappy way of error checking.. if reval is still 0, obviously no string matched.

  00057	83 7d f8 00	 cmp	 DWORD PTR _retval$[ebp], 0
  0005b	75 11		 jne	 SHORT $LN6@get_DIK_fr

; 274  : 	{
; 275  : 		debug_fatal ( "Dont know key %s",keystring );

  0005d	8b 45 08	 mov	 eax, DWORD PTR _keystring$[ebp]
  00060	50		 push	 eax
  00061	68 00 00 00 00	 push	 OFFSET ??_C@_0BC@GEFCCIEG@Don?$LEt?5know?5key?5?$CFs@
  00066	e8 00 00 00 00	 call	 ?debug_fatal@@YAXPBDZZ	; debug_fatal
  0006b	83 c4 08	 add	 esp, 8
$LN6@get_DIK_fr:

; 276  : 	}
; 277  : 
; 278  : 	return retval;

  0006e	8b 45 f8	 mov	 eax, DWORD PTR _retval$[ebp]

; 279  : }

  00071	5f		 pop	 edi
  00072	5e		 pop	 esi
  00073	5b		 pop	 ebx
  00074	8b e5		 mov	 esp, ebp
  00076	5d		 pop	 ebp
  00077	c2 04 00	 ret	 4
?get_DIK_from_string@@YGHPAD@Z ENDP			; get_DIK_from_string
_TEXT	ENDS
; Function compile flags: /Odtp /ZI
; File c:\users\nhv90\projects\eech\modules\system\keymapping.c
;	COMDAT ?check_for_validity@@YGHXZ
_TEXT	SEGMENT
_tmp_mod$ = -20						; size = 4
_tmp_key$ = -16						; size = 4
_numOfDuplicates$ = -12					; size = 4
_j$ = -8						; size = 4
_i$ = -4						; size = 4
?check_for_validity@@YGHXZ PROC				; check_for_validity, COMDAT

; 222  : {

  00000	55		 push	 ebp
  00001	8b ec		 mov	 ebp, esp
  00003	83 ec 54	 sub	 esp, 84			; 00000054H
  00006	53		 push	 ebx
  00007	56		 push	 esi
  00008	57		 push	 edi

; 223  : 	int i = 0;

  00009	c7 45 fc 00 00
	00 00		 mov	 DWORD PTR _i$[ebp], 0

; 224  : 	int j = 0;

  00010	c7 45 f8 00 00
	00 00		 mov	 DWORD PTR _j$[ebp], 0

; 225  : 	int numOfDuplicates = 0;

  00017	c7 45 f4 00 00
	00 00		 mov	 DWORD PTR _numOfDuplicates$[ebp], 0

; 226  : 
; 227  : 	int tmp_key;
; 228  : 	int tmp_mod;
; 229  : 
; 230  : 	for ( i = 0; i < number_of_commands; i++)

  0001e	c7 45 fc 00 00
	00 00		 mov	 DWORD PTR _i$[ebp], 0
  00025	eb 09		 jmp	 SHORT $LN4@check_for_
$LN2@check_for_:
  00027	8b 45 fc	 mov	 eax, DWORD PTR _i$[ebp]
  0002a	83 c0 01	 add	 eax, 1
  0002d	89 45 fc	 mov	 DWORD PTR _i$[ebp], eax
$LN4@check_for_:
  00030	8b 45 fc	 mov	 eax, DWORD PTR _i$[ebp]
  00033	3b 05 00 00 00
	00		 cmp	 eax, DWORD PTR ?number_of_commands@@3HA
  00039	0f 8d 97 00 00
	00		 jge	 $LN3@check_for_

; 231  : 	{
; 232  : 		tmp_key = keymaps[i].key;

  0003f	8b 45 fc	 mov	 eax, DWORD PTR _i$[ebp]
  00042	c1 e0 06	 shl	 eax, 6
  00045	8b 88 34 00 00
	00		 mov	 ecx, DWORD PTR ?keymaps@@3PAUmapline@@A[eax+52]
  0004b	89 4d f0	 mov	 DWORD PTR _tmp_key$[ebp], ecx

; 233  : 		tmp_mod = keymaps[i].modifier;

  0004e	8b 45 fc	 mov	 eax, DWORD PTR _i$[ebp]
  00051	c1 e0 06	 shl	 eax, 6
  00054	8b 88 38 00 00
	00		 mov	 ecx, DWORD PTR ?keymaps@@3PAUmapline@@A[eax+56]
  0005a	89 4d ec	 mov	 DWORD PTR _tmp_mod$[ebp], ecx

; 234  : 
; 235  : 		for ( j = 0; j < number_of_commands; j++)

  0005d	c7 45 f8 00 00
	00 00		 mov	 DWORD PTR _j$[ebp], 0
  00064	eb 09		 jmp	 SHORT $LN7@check_for_
$LN5@check_for_:
  00066	8b 45 f8	 mov	 eax, DWORD PTR _j$[ebp]
  00069	83 c0 01	 add	 eax, 1
  0006c	89 45 f8	 mov	 DWORD PTR _j$[ebp], eax
$LN7@check_for_:
  0006f	8b 45 f8	 mov	 eax, DWORD PTR _j$[ebp]
  00072	3b 05 00 00 00
	00		 cmp	 eax, DWORD PTR ?number_of_commands@@3HA
  00078	7d 50		 jge	 SHORT $LN6@check_for_

; 236  : 		{
; 237  : 			if ((keymaps[i].key = tmp_key)&&(keymaps[i].modifier = tmp_mod))

  0007a	8b 45 fc	 mov	 eax, DWORD PTR _i$[ebp]
  0007d	c1 e0 06	 shl	 eax, 6
  00080	8b 4d f0	 mov	 ecx, DWORD PTR _tmp_key$[ebp]
  00083	89 88 34 00 00
	00		 mov	 DWORD PTR ?keymaps@@3PAUmapline@@A[eax+52], ecx
  00089	83 7d f0 00	 cmp	 DWORD PTR _tmp_key$[ebp], 0
  0008d	74 39		 je	 SHORT $LN8@check_for_
  0008f	8b 45 fc	 mov	 eax, DWORD PTR _i$[ebp]
  00092	c1 e0 06	 shl	 eax, 6
  00095	8b 4d ec	 mov	 ecx, DWORD PTR _tmp_mod$[ebp]
  00098	89 88 38 00 00
	00		 mov	 DWORD PTR ?keymaps@@3PAUmapline@@A[eax+56], ecx
  0009e	83 7d ec 00	 cmp	 DWORD PTR _tmp_mod$[ebp], 0
  000a2	74 24		 je	 SHORT $LN8@check_for_

; 238  : 			{
; 239  : 				numOfDuplicates++;

  000a4	8b 45 f4	 mov	 eax, DWORD PTR _numOfDuplicates$[ebp]
  000a7	83 c0 01	 add	 eax, 1
  000aa	89 45 f4	 mov	 DWORD PTR _numOfDuplicates$[ebp], eax

; 240  : 				if (numOfDuplicates > 1)

  000ad	83 7d f4 01	 cmp	 DWORD PTR _numOfDuplicates$[ebp], 1
  000b1	7e 15		 jle	 SHORT $LN8@check_for_

; 241  : 					debug_fatal ( "Duplicate key+modifier combination (%i) (%i)",tmp_key,tmp_mod );

  000b3	8b 45 ec	 mov	 eax, DWORD PTR _tmp_mod$[ebp]
  000b6	50		 push	 eax
  000b7	8b 4d f0	 mov	 ecx, DWORD PTR _tmp_key$[ebp]
  000ba	51		 push	 ecx
  000bb	68 00 00 00 00	 push	 OFFSET ??_C@_0CN@FGAHOEIM@Duplicate?5key?$CLmodifier?5combinat@
  000c0	e8 00 00 00 00	 call	 ?debug_fatal@@YAXPBDZZ	; debug_fatal
  000c5	83 c4 0c	 add	 esp, 12			; 0000000cH
$LN8@check_for_:

; 242  : 			}
; 243  : 		}

  000c8	eb 9c		 jmp	 SHORT $LN5@check_for_
$LN6@check_for_:

; 244  : 		numOfDuplicates = 0;

  000ca	c7 45 f4 00 00
	00 00		 mov	 DWORD PTR _numOfDuplicates$[ebp], 0

; 245  : 	}

  000d1	e9 51 ff ff ff	 jmp	 $LN2@check_for_
$LN3@check_for_:

; 246  : 
; 247  : 	return 0;

  000d6	33 c0		 xor	 eax, eax

; 248  : }

  000d8	5f		 pop	 edi
  000d9	5e		 pop	 esi
  000da	5b		 pop	 ebx
  000db	8b e5		 mov	 esp, ebp
  000dd	5d		 pop	 ebp
  000de	c3		 ret	 0
?check_for_validity@@YGHXZ ENDP				; check_for_validity
_TEXT	ENDS
; Function compile flags: /Odtp /ZI
; File c:\program files (x86)\windows kits\10\include\10.0.18362.0\ucrt\stdio.h
;	COMDAT _sscanf
_TEXT	SEGMENT
__ArgList$ = -8						; size = 4
__Result$ = -4						; size = 4
__Buffer$ = 8						; size = 4
__Format$ = 12						; size = 4
_sscanf	PROC						; COMDAT

; 2270 :     {

  00000	55		 push	 ebp
  00001	8b ec		 mov	 ebp, esp
  00003	83 ec 4c	 sub	 esp, 76			; 0000004cH
  00006	53		 push	 ebx
  00007	56		 push	 esi
  00008	57		 push	 edi

; 2271 :         int _Result;
; 2272 :         va_list _ArgList;
; 2273 :         __crt_va_start(_ArgList, _Format);

  00009	8d 45 10	 lea	 eax, DWORD PTR __Format$[ebp+4]
  0000c	89 45 f8	 mov	 DWORD PTR __ArgList$[ebp], eax

; 2274 :         _Result = _vsscanf_l(_Buffer, _Format, NULL, _ArgList);

  0000f	8b 45 f8	 mov	 eax, DWORD PTR __ArgList$[ebp]
  00012	50		 push	 eax
  00013	6a 00		 push	 0
  00015	8b 4d 0c	 mov	 ecx, DWORD PTR __Format$[ebp]
  00018	51		 push	 ecx
  00019	8b 55 08	 mov	 edx, DWORD PTR __Buffer$[ebp]
  0001c	52		 push	 edx
  0001d	e8 00 00 00 00	 call	 __vsscanf_l
  00022	83 c4 10	 add	 esp, 16			; 00000010H
  00025	89 45 fc	 mov	 DWORD PTR __Result$[ebp], eax

; 2275 :         __crt_va_end(_ArgList);

  00028	c7 45 f8 00 00
	00 00		 mov	 DWORD PTR __ArgList$[ebp], 0

; 2276 :         return _Result;

  0002f	8b 45 fc	 mov	 eax, DWORD PTR __Result$[ebp]

; 2277 :     }

  00032	5f		 pop	 edi
  00033	5e		 pop	 esi
  00034	5b		 pop	 ebx
  00035	8b e5		 mov	 esp, ebp
  00037	5d		 pop	 ebp
  00038	c3		 ret	 0
_sscanf	ENDP
_TEXT	ENDS
; Function compile flags: /Odtp /ZI
; File c:\program files (x86)\windows kits\10\include\10.0.18362.0\ucrt\stdio.h
;	COMDAT __vsscanf_l
_TEXT	SEGMENT
__Buffer$ = 8						; size = 4
__Format$ = 12						; size = 4
__Locale$ = 16						; size = 4
__ArgList$ = 20						; size = 4
__vsscanf_l PROC					; COMDAT

; 2175 :     {

  00000	55		 push	 ebp
  00001	8b ec		 mov	 ebp, esp
  00003	83 ec 40	 sub	 esp, 64			; 00000040H
  00006	53		 push	 ebx
  00007	56		 push	 esi
  00008	57		 push	 edi

; 2176 :         return __stdio_common_vsscanf(

  00009	8b 45 14	 mov	 eax, DWORD PTR __ArgList$[ebp]
  0000c	50		 push	 eax
  0000d	8b 4d 10	 mov	 ecx, DWORD PTR __Locale$[ebp]
  00010	51		 push	 ecx
  00011	8b 55 0c	 mov	 edx, DWORD PTR __Format$[ebp]
  00014	52		 push	 edx
  00015	6a ff		 push	 -1
  00017	8b 45 08	 mov	 eax, DWORD PTR __Buffer$[ebp]
  0001a	50		 push	 eax
  0001b	e8 00 00 00 00	 call	 ___local_stdio_scanf_options
  00020	8b 48 04	 mov	 ecx, DWORD PTR [eax+4]
  00023	51		 push	 ecx
  00024	8b 10		 mov	 edx, DWORD PTR [eax]
  00026	52		 push	 edx
  00027	ff 15 00 00 00
	00		 call	 DWORD PTR __imp____stdio_common_vsscanf
  0002d	83 c4 1c	 add	 esp, 28			; 0000001cH

; 2177 :             _CRT_INTERNAL_LOCAL_SCANF_OPTIONS,
; 2178 :             _Buffer, (size_t)-1, _Format, _Locale, _ArgList);
; 2179 :     }

  00030	5f		 pop	 edi
  00031	5e		 pop	 esi
  00032	5b		 pop	 ebx
  00033	8b e5		 mov	 esp, ebp
  00035	5d		 pop	 ebp
  00036	c3		 ret	 0
__vsscanf_l ENDP
_TEXT	ENDS
; Function compile flags: /Odtp /ZI
; File c:\program files (x86)\windows kits\10\include\10.0.18362.0\ucrt\stdio.h
;	COMDAT _sprintf
_TEXT	SEGMENT
__ArgList$ = -8						; size = 4
__Result$ = -4						; size = 4
__Buffer$ = 8						; size = 4
__Format$ = 12						; size = 4
_sprintf PROC						; COMDAT

; 1781 :     {

  00000	55		 push	 ebp
  00001	8b ec		 mov	 ebp, esp
  00003	83 ec 4c	 sub	 esp, 76			; 0000004cH
  00006	53		 push	 ebx
  00007	56		 push	 esi
  00008	57		 push	 edi

; 1782 :         int _Result;
; 1783 :         va_list _ArgList;
; 1784 :         __crt_va_start(_ArgList, _Format);

  00009	8d 45 10	 lea	 eax, DWORD PTR __Format$[ebp+4]
  0000c	89 45 f8	 mov	 DWORD PTR __ArgList$[ebp], eax

; 1785 : 
; 1786 :         #pragma warning(push)
; 1787 :         #pragma warning(disable: 4996) // Deprecation
; 1788 :         _Result = _vsprintf_l(_Buffer, _Format, NULL, _ArgList);

  0000f	8b 45 f8	 mov	 eax, DWORD PTR __ArgList$[ebp]
  00012	50		 push	 eax
  00013	6a 00		 push	 0
  00015	8b 4d 0c	 mov	 ecx, DWORD PTR __Format$[ebp]
  00018	51		 push	 ecx
  00019	8b 55 08	 mov	 edx, DWORD PTR __Buffer$[ebp]
  0001c	52		 push	 edx
  0001d	e8 00 00 00 00	 call	 __vsprintf_l
  00022	83 c4 10	 add	 esp, 16			; 00000010H
  00025	89 45 fc	 mov	 DWORD PTR __Result$[ebp], eax

; 1789 :         #pragma warning(pop)
; 1790 : 
; 1791 :         __crt_va_end(_ArgList);

  00028	c7 45 f8 00 00
	00 00		 mov	 DWORD PTR __ArgList$[ebp], 0

; 1792 :         return _Result;

  0002f	8b 45 fc	 mov	 eax, DWORD PTR __Result$[ebp]

; 1793 :     }

  00032	5f		 pop	 edi
  00033	5e		 pop	 esi
  00034	5b		 pop	 ebx
  00035	8b e5		 mov	 esp, ebp
  00037	5d		 pop	 ebp
  00038	c3		 ret	 0
_sprintf ENDP
_TEXT	ENDS
; Function compile flags: /Odtp /ZI
; File c:\program files (x86)\windows kits\10\include\10.0.18362.0\ucrt\stdio.h
;	COMDAT __vsprintf_l
_TEXT	SEGMENT
__Buffer$ = 8						; size = 4
__Format$ = 12						; size = 4
__Locale$ = 16						; size = 4
__ArgList$ = 20						; size = 4
__vsprintf_l PROC					; COMDAT

; 1459 :     {

  00000	55		 push	 ebp
  00001	8b ec		 mov	 ebp, esp
  00003	83 ec 40	 sub	 esp, 64			; 00000040H
  00006	53		 push	 ebx
  00007	56		 push	 esi
  00008	57		 push	 edi

; 1460 :         #pragma warning(push)
; 1461 :         #pragma warning(disable: 4996) // Deprecation
; 1462 :         return _vsnprintf_l(_Buffer, (size_t)-1, _Format, _Locale, _ArgList);

  00009	8b 45 14	 mov	 eax, DWORD PTR __ArgList$[ebp]
  0000c	50		 push	 eax
  0000d	8b 4d 10	 mov	 ecx, DWORD PTR __Locale$[ebp]
  00010	51		 push	 ecx
  00011	8b 55 0c	 mov	 edx, DWORD PTR __Format$[ebp]
  00014	52		 push	 edx
  00015	6a ff		 push	 -1
  00017	8b 45 08	 mov	 eax, DWORD PTR __Buffer$[ebp]
  0001a	50		 push	 eax
  0001b	e8 00 00 00 00	 call	 __vsnprintf_l
  00020	83 c4 14	 add	 esp, 20			; 00000014H

; 1463 :         #pragma warning(pop)
; 1464 :     }

  00023	5f		 pop	 edi
  00024	5e		 pop	 esi
  00025	5b		 pop	 ebx
  00026	8b e5		 mov	 esp, ebp
  00028	5d		 pop	 ebp
  00029	c3		 ret	 0
__vsprintf_l ENDP
_TEXT	ENDS
; Function compile flags: /Odtp /ZI
; File c:\program files (x86)\windows kits\10\include\10.0.18362.0\ucrt\stdio.h
;	COMDAT __vsnprintf_l
_TEXT	SEGMENT
tv74 = -72						; size = 4
__Result$ = -4						; size = 4
__Buffer$ = 8						; size = 4
__BufferCount$ = 12					; size = 4
__Format$ = 16						; size = 4
__Locale$ = 20						; size = 4
__ArgList$ = 24						; size = 4
__vsnprintf_l PROC					; COMDAT

; 1389 :     {

  00000	55		 push	 ebp
  00001	8b ec		 mov	 ebp, esp
  00003	83 ec 48	 sub	 esp, 72			; 00000048H
  00006	53		 push	 ebx
  00007	56		 push	 esi
  00008	57		 push	 edi

; 1390 :         int const _Result = __stdio_common_vsprintf(

  00009	8b 45 18	 mov	 eax, DWORD PTR __ArgList$[ebp]
  0000c	50		 push	 eax
  0000d	8b 4d 14	 mov	 ecx, DWORD PTR __Locale$[ebp]
  00010	51		 push	 ecx
  00011	8b 55 10	 mov	 edx, DWORD PTR __Format$[ebp]
  00014	52		 push	 edx
  00015	8b 45 0c	 mov	 eax, DWORD PTR __BufferCount$[ebp]
  00018	50		 push	 eax
  00019	8b 4d 08	 mov	 ecx, DWORD PTR __Buffer$[ebp]
  0001c	51		 push	 ecx
  0001d	e8 00 00 00 00	 call	 ___local_stdio_printf_options
  00022	8b 10		 mov	 edx, DWORD PTR [eax]
  00024	83 ca 01	 or	 edx, 1
  00027	8b 40 04	 mov	 eax, DWORD PTR [eax+4]
  0002a	50		 push	 eax
  0002b	52		 push	 edx
  0002c	ff 15 00 00 00
	00		 call	 DWORD PTR __imp____stdio_common_vsprintf
  00032	83 c4 1c	 add	 esp, 28			; 0000001cH
  00035	89 45 fc	 mov	 DWORD PTR __Result$[ebp], eax

; 1391 :             _CRT_INTERNAL_LOCAL_PRINTF_OPTIONS | _CRT_INTERNAL_PRINTF_LEGACY_VSPRINTF_NULL_TERMINATION,
; 1392 :             _Buffer, _BufferCount, _Format, _Locale, _ArgList);
; 1393 : 
; 1394 :         return _Result < 0 ? -1 : _Result;

  00038	83 7d fc 00	 cmp	 DWORD PTR __Result$[ebp], 0
  0003c	7d 09		 jge	 SHORT $LN3@vsnprintf_
  0003e	c7 45 b8 ff ff
	ff ff		 mov	 DWORD PTR tv74[ebp], -1
  00045	eb 06		 jmp	 SHORT $LN4@vsnprintf_
$LN3@vsnprintf_:
  00047	8b 45 fc	 mov	 eax, DWORD PTR __Result$[ebp]
  0004a	89 45 b8	 mov	 DWORD PTR tv74[ebp], eax
$LN4@vsnprintf_:
  0004d	8b 45 b8	 mov	 eax, DWORD PTR tv74[ebp]

; 1395 :     }

  00050	5f		 pop	 edi
  00051	5e		 pop	 esi
  00052	5b		 pop	 ebx
  00053	8b e5		 mov	 esp, ebp
  00055	5d		 pop	 ebp
  00056	c3		 ret	 0
__vsnprintf_l ENDP
_TEXT	ENDS
; Function compile flags: /Odtp /ZI
; File c:\program files (x86)\windows kits\10\include\10.0.18362.0\ucrt\stdio.h
;	COMDAT _fprintf
_TEXT	SEGMENT
__ArgList$ = -8						; size = 4
__Result$ = -4						; size = 4
__Stream$ = 8						; size = 4
__Format$ = 12						; size = 4
_fprintf PROC						; COMDAT

; 835  :     {

  00000	55		 push	 ebp
  00001	8b ec		 mov	 ebp, esp
  00003	83 ec 4c	 sub	 esp, 76			; 0000004cH
  00006	53		 push	 ebx
  00007	56		 push	 esi
  00008	57		 push	 edi

; 836  :         int _Result;
; 837  :         va_list _ArgList;
; 838  :         __crt_va_start(_ArgList, _Format);

  00009	8d 45 10	 lea	 eax, DWORD PTR __Format$[ebp+4]
  0000c	89 45 f8	 mov	 DWORD PTR __ArgList$[ebp], eax

; 839  :         _Result = _vfprintf_l(_Stream, _Format, NULL, _ArgList);

  0000f	8b 45 f8	 mov	 eax, DWORD PTR __ArgList$[ebp]
  00012	50		 push	 eax
  00013	6a 00		 push	 0
  00015	8b 4d 0c	 mov	 ecx, DWORD PTR __Format$[ebp]
  00018	51		 push	 ecx
  00019	8b 55 08	 mov	 edx, DWORD PTR __Stream$[ebp]
  0001c	52		 push	 edx
  0001d	e8 00 00 00 00	 call	 __vfprintf_l
  00022	83 c4 10	 add	 esp, 16			; 00000010H
  00025	89 45 fc	 mov	 DWORD PTR __Result$[ebp], eax

; 840  :         __crt_va_end(_ArgList);

  00028	c7 45 f8 00 00
	00 00		 mov	 DWORD PTR __ArgList$[ebp], 0

; 841  :         return _Result;

  0002f	8b 45 fc	 mov	 eax, DWORD PTR __Result$[ebp]

; 842  :     }

  00032	5f		 pop	 edi
  00033	5e		 pop	 esi
  00034	5b		 pop	 ebx
  00035	8b e5		 mov	 esp, ebp
  00037	5d		 pop	 ebp
  00038	c3		 ret	 0
_fprintf ENDP
_TEXT	ENDS
; Function compile flags: /Odtp /ZI
; File c:\program files (x86)\windows kits\10\include\10.0.18362.0\ucrt\stdio.h
;	COMDAT __vfprintf_l
_TEXT	SEGMENT
__Stream$ = 8						; size = 4
__Format$ = 12						; size = 4
__Locale$ = 16						; size = 4
__ArgList$ = 20						; size = 4
__vfprintf_l PROC					; COMDAT

; 642  :     {

  00000	55		 push	 ebp
  00001	8b ec		 mov	 ebp, esp
  00003	83 ec 40	 sub	 esp, 64			; 00000040H
  00006	53		 push	 ebx
  00007	56		 push	 esi
  00008	57		 push	 edi

; 643  :         return __stdio_common_vfprintf(_CRT_INTERNAL_LOCAL_PRINTF_OPTIONS, _Stream, _Format, _Locale, _ArgList);

  00009	8b 45 14	 mov	 eax, DWORD PTR __ArgList$[ebp]
  0000c	50		 push	 eax
  0000d	8b 4d 10	 mov	 ecx, DWORD PTR __Locale$[ebp]
  00010	51		 push	 ecx
  00011	8b 55 0c	 mov	 edx, DWORD PTR __Format$[ebp]
  00014	52		 push	 edx
  00015	8b 45 08	 mov	 eax, DWORD PTR __Stream$[ebp]
  00018	50		 push	 eax
  00019	e8 00 00 00 00	 call	 ___local_stdio_printf_options
  0001e	8b 48 04	 mov	 ecx, DWORD PTR [eax+4]
  00021	51		 push	 ecx
  00022	8b 10		 mov	 edx, DWORD PTR [eax]
  00024	52		 push	 edx
  00025	ff 15 00 00 00
	00		 call	 DWORD PTR __imp____stdio_common_vfprintf
  0002b	83 c4 18	 add	 esp, 24			; 00000018H

; 644  :     }

  0002e	5f		 pop	 edi
  0002f	5e		 pop	 esi
  00030	5b		 pop	 ebx
  00031	8b e5		 mov	 esp, ebp
  00033	5d		 pop	 ebp
  00034	c3		 ret	 0
__vfprintf_l ENDP
_TEXT	ENDS
; Function compile flags: /Odtp /ZI
; File c:\program files (x86)\windows kits\10\include\10.0.18362.0\ucrt\corecrt_stdio_config.h
;	COMDAT ___local_stdio_scanf_options
_TEXT	SEGMENT
___local_stdio_scanf_options PROC			; COMDAT

; 96   :     {

  00000	55		 push	 ebp
  00001	8b ec		 mov	 ebp, esp
  00003	83 ec 40	 sub	 esp, 64			; 00000040H
  00006	53		 push	 ebx
  00007	56		 push	 esi
  00008	57		 push	 edi

; 97   :         static unsigned __int64 _OptionsStorage;
; 98   :         return &_OptionsStorage;

  00009	b8 00 00 00 00	 mov	 eax, OFFSET ?_OptionsStorage@?1??__local_stdio_scanf_options@@9@4_KA ; `__local_stdio_scanf_options'::`2'::_OptionsStorage

; 99   :     }

  0000e	5f		 pop	 edi
  0000f	5e		 pop	 esi
  00010	5b		 pop	 ebx
  00011	8b e5		 mov	 esp, ebp
  00013	5d		 pop	 ebp
  00014	c3		 ret	 0
___local_stdio_scanf_options ENDP
_TEXT	ENDS
; Function compile flags: /Odtp /ZI
; File c:\program files (x86)\windows kits\10\include\10.0.18362.0\ucrt\corecrt_stdio_config.h
;	COMDAT ___local_stdio_printf_options
_TEXT	SEGMENT
___local_stdio_printf_options PROC			; COMDAT

; 86   :     {

  00000	55		 push	 ebp
  00001	8b ec		 mov	 ebp, esp
  00003	83 ec 40	 sub	 esp, 64			; 00000040H
  00006	53		 push	 ebx
  00007	56		 push	 esi
  00008	57		 push	 edi

; 87   :         static unsigned __int64 _OptionsStorage;
; 88   :         return &_OptionsStorage;

  00009	b8 00 00 00 00	 mov	 eax, OFFSET ?_OptionsStorage@?1??__local_stdio_printf_options@@9@4_KA ; `__local_stdio_printf_options'::`2'::_OptionsStorage

; 89   :     }

  0000e	5f		 pop	 edi
  0000f	5e		 pop	 esi
  00010	5b		 pop	 ebx
  00011	8b e5		 mov	 esp, ebp
  00013	5d		 pop	 ebp
  00014	c3		 ret	 0
___local_stdio_printf_options ENDP
_TEXT	ENDS
END
