; Listing generated by Microsoft (R) Optimizing Compiler Version 19.16.27045.0 

	TITLE	C:\Users\nhv90\Projects\eech\aphavoc\source\entity\special\keysite\keysite.c
	.686P
	.XMM
	include listing.inc
	.model	flat

INCLUDELIB MSVCRTD
INCLUDELIB OLDNAMES

PUBLIC	___local_stdio_printf_options
PUBLIC	__vfprintf_l
PUBLIC	_fprintf
PUBLIC	__vsnprintf_l
PUBLIC	__vsprintf_l
PUBLIC	_sprintf
PUBLIC	_fabsf
PUBLIC	?fabs@@YGMM@Z					; fabs
PUBLIC	?get_closest_keysite@@YGPAUENTITY@@HW4ENTITY_SIDES@@PAUVEC3D@@MPAMPAU1@@Z ; get_closest_keysite
PUBLIC	?get_keysite_supply_position@@YGPAUVEC3D@@PAUENTITY@@@Z ; get_keysite_supply_position
PUBLIC	?get_keysite_troop_pickup_position@@YGXPAUENTITY@@PAUVEC3D@@@Z ; get_keysite_troop_pickup_position
PUBLIC	?get_keysite_troop_dropoff_position@@YGHPAUENTITY@@PAUVEC3D@@PAM@Z ; get_keysite_troop_dropoff_position
PUBLIC	?get_keysite_troop_outside_building_position@@YGXPAUENTITY@@PAUVEC3D@@H@Z ; get_keysite_troop_outside_building_position
PUBLIC	?get_keysite_troop_in_building_position@@YGXPAUENTITY@@PAUVEC3D@@@Z ; get_keysite_troop_in_building_position
PUBLIC	?get_keysite_takenoff_position@@YGHPAUENTITY@@PAUVEC3D@@H@Z ; get_keysite_takenoff_position
PUBLIC	?get_keysite_start_landing_position@@YGHPAUENTITY@@PAUVEC3D@@H@Z ; get_keysite_start_landing_position
PUBLIC	?get_keysite_landing_sites_available@@YGHPAUENTITY@@H@Z ; get_keysite_landing_sites_available
PUBLIC	?update_keysite_cargo@@YGXPAUENTITY@@MHM@Z	; update_keysite_cargo
PUBLIC	?initialise_keysite_farp_enable@@YGXPAUENTITY@@@Z ; initialise_keysite_farp_enable
PUBLIC	?get_fixed_structure_keysite_entity@@YGPAUENTITY@@PAU1@@Z ; get_fixed_structure_keysite_entity
PUBLIC	?get_local_keysite_member_count@@YGHPAUENTITY@@@Z ; get_local_keysite_member_count
PUBLIC	?add_local_entity_importance_to_keysite@@YGHPAUENTITY@@0@Z ; add_local_entity_importance_to_keysite
PUBLIC	?restore_local_entity_importance_to_keysite@@YGHPAUENTITY@@0@Z ; restore_local_entity_importance_to_keysite
PUBLIC	?subtract_local_entity_importance_from_keysite@@YGXPAUENTITY@@@Z ; subtract_local_entity_importance_from_keysite
PUBLIC	?notify_keysite_structure_under_attack@@YGXPAUENTITY@@0@Z ; notify_keysite_structure_under_attack
PUBLIC	?destroy_keysite@@YGXPAUENTITY@@W4ENTITY_SIDES@@@Z ; destroy_keysite
PUBLIC	?capture_keysite@@YGXPAUENTITY@@W4ENTITY_SIDES@@@Z ; capture_keysite
PUBLIC	?change_local_keysite_building_sides@@YGXPAUENTITY@@W4ENTITY_SIDES@@@Z ; change_local_keysite_building_sides
PUBLIC	?repair_client_server_entity_keysite@@YGHPAUENTITY@@@Z ; repair_client_server_entity_keysite
PUBLIC	?get_keysite_suitable_for_player@@YGHPAUENTITY@@0@Z ; get_keysite_suitable_for_player
PUBLIC	?dump_keysite_info@@YGXXZ			; dump_keysite_info
PUBLIC	?validate_keysite_landing_site_heights@@YGXPAUENTITY@@@Z ; validate_keysite_landing_site_heights
PUBLIC	?play_keysite_under_attack_speech@@YGXPAUENTITY@@0@Z ; play_keysite_under_attack_speech
PUBLIC	?get_keysite_entity_mfd_display_name@@YGXPAUENTITY@@PAD@Z ; get_keysite_entity_mfd_display_name
PUBLIC	?_OptionsStorage@?1??__local_stdio_printf_options@@9@4_KA ; `__local_stdio_printf_options'::`2'::_OptionsStorage
PUBLIC	??_C@_02DKCKIIND@?$CFs@				; `string'
PUBLIC	?__LINE__Var@?0??get_closest_keysite@@YGPAUENTITY@@HW4ENTITY_SIDES@@PAUVEC3D@@MPAMPAU2@@Z@4JA ; `get_closest_keysite'::`1'::__LINE__Var
PUBLIC	??_C@_0EN@PIOGLIPD@c?3?2users?2nhv90?2projects?2eech?2ap@ ; `string'
PUBLIC	?__LINE__Var@?0??get_keysite_supply_position@@YGPAUVEC3D@@PAUENTITY@@@Z@4JA ; `get_keysite_supply_position'::`1'::__LINE__Var
PUBLIC	?__LINE__Var@?0??get_keysite_troop_pickup_position@@YGXPAUENTITY@@PAUVEC3D@@@Z@4JA ; `get_keysite_troop_pickup_position'::`1'::__LINE__Var
PUBLIC	?__LINE__Var@?0??get_keysite_troop_dropoff_position@@YGHPAUENTITY@@PAUVEC3D@@PAM@Z@4JA ; `get_keysite_troop_dropoff_position'::`1'::__LINE__Var
PUBLIC	?__LINE__Var@?0??get_keysite_troop_in_building_position@@YGXPAUENTITY@@PAUVEC3D@@@Z@4JA ; `get_keysite_troop_in_building_position'::`1'::__LINE__Var
PUBLIC	?__LINE__Var@?0??get_keysite_troop_outside_building_position@@YGXPAUENTITY@@PAUVEC3D@@H@Z@4JA ; `get_keysite_troop_outside_building_position'::`1'::__LINE__Var
PUBLIC	?__LINE__Var@?0??get_keysite_takenoff_position@@YGHPAUENTITY@@PAUVEC3D@@H@Z@4JA ; `get_keysite_takenoff_position'::`1'::__LINE__Var
PUBLIC	?__LINE__Var@?0??get_keysite_start_landing_position@@YGHPAUENTITY@@PAUVEC3D@@H@Z@4JA ; `get_keysite_start_landing_position'::`1'::__LINE__Var
PUBLIC	?__LINE__Var@?0??get_keysite_landing_sites_available@@YGHPAUENTITY@@H@Z@4JA ; `get_keysite_landing_sites_available'::`1'::__LINE__Var
PUBLIC	?__LINE__Var@?0??update_keysite_cargo@@YGXPAUENTITY@@MHM@Z@4JA ; `update_keysite_cargo'::`1'::__LINE__Var
PUBLIC	?__LINE__Var@?0??initialise_keysite_farp_enable@@YGXPAUENTITY@@@Z@4JA ; `initialise_keysite_farp_enable'::`1'::__LINE__Var
PUBLIC	?__LINE__Var@?0??get_fixed_structure_keysite_entity@@YGPAUENTITY@@PAU2@@Z@4JA ; `get_fixed_structure_keysite_entity'::`1'::__LINE__Var
PUBLIC	??_C@_09GNENBKCD@structure@			; `string'
PUBLIC	?__LINE__Var@?0??get_local_keysite_member_count@@YGHPAUENTITY@@@Z@4JA ; `get_local_keysite_member_count'::`1'::__LINE__Var
PUBLIC	?__LINE__Var@?0??add_local_entity_importance_to_keysite@@YGHPAUENTITY@@0@Z@4JA ; `add_local_entity_importance_to_keysite'::`1'::__LINE__Var
PUBLIC	??_C@_02LFNMGJAP@en@				; `string'
PUBLIC	??_C@_0L@FHNPJNGM@keysite_en@			; `string'
PUBLIC	?__LINE__Var@?0??restore_local_entity_importance_to_keysite@@YGHPAUENTITY@@0@Z@4JA ; `restore_local_entity_importance_to_keysite'::`1'::__LINE__Var
PUBLIC	?__LINE__Var@?0??subtract_local_entity_importance_from_keysite@@YGXPAUENTITY@@@Z@4JA ; `subtract_local_entity_importance_from_keysite'::`1'::__LINE__Var
PUBLIC	??_C@_0DK@GNEEOIBD@get_local_entity_type?5?$CIkeysite_@ ; `string'
PUBLIC	??_C@_0DE@FMPHPBAF@?$CIKEYSITE?$CJ?5?$CFs?5removed?5?$CFs?0?5new?5st@ ; `string'
PUBLIC	??_C@_0DA@HPNGODAO@?$CIKEYSITE?$CJ?5SIDE?5?$CFs?5?3?5?$CFs?5BELOW?5MI@ ; `string'
PUBLIC	?__LINE__Var@?0??notify_keysite_structure_under_attack@@YGXPAUENTITY@@0@Z@4JA ; `notify_keysite_structure_under_attack'::`1'::__LINE__Var
PUBLIC	??_C@_09HKMIOAOH@aggressor@			; `string'
PUBLIC	??_C@_0CJ@DMBLBJBK@get_comms_model?5?$CI?$CJ?5?$DN?$DN?5COMMS_MOD@ ; `string'
PUBLIC	?__LINE__Var@?0??destroy_keysite@@YGXPAUENTITY@@W4ENTITY_SIDES@@@Z@4JA ; `destroy_keysite'::`1'::__LINE__Var
PUBLIC	??_C@_0DC@BODFACEG@get_local_entity_type?5?$CIen?$CJ?5?$DN?$DN?5E@ ; `string'
PUBLIC	?__LINE__Var@?0??capture_keysite@@YGXPAUENTITY@@W4ENTITY_SIDES@@@Z@4JA ; `capture_keysite'::`1'::__LINE__Var
PUBLIC	??_C@_0BB@MOMEHOGH@side?5?$CB?$DN?5new_side@	; `string'
PUBLIC	??_C@_0BM@OOEMOJEM@?$CIKEYSITE?$CJ?5?$CFs?5CAPTURED?5BY?5?$CFs@ ; `string'
PUBLIC	?__LINE__Var@?0??change_local_keysite_building_sides@@YGXPAUENTITY@@W4ENTITY_SIDES@@@Z@4JA ; `change_local_keysite_building_sides'::`1'::__LINE__Var
PUBLIC	?__LINE__Var@?0??repair_client_server_entity_keysite@@YGHPAUENTITY@@@Z@4JA ; `repair_client_server_entity_keysite'::`1'::__LINE__Var
PUBLIC	??_C@_0EH@KBDJFAII@?$CIKEYSITE?$CJ?5REPAIRED?5?$CFs?5at?5keysit@ ; `string'
PUBLIC	??_C@_0EP@MGHJDKKG@?$CIKEYSITE?$CJ?5REPAIRED?5?$CFs?5?$CIREGEN?$CJ?5a@ ; `string'
PUBLIC	??_C@_0CP@PLBNLKAL@?$CIKEYSITE?$CJ?5?$CFs?5FULLY?5REPAIRED?5?$CIst@ ; `string'
PUBLIC	?__LINE__Var@?0??get_keysite_suitable_for_player@@YGHPAUENTITY@@0@Z@4JA ; `get_keysite_suitable_for_player'::`1'::__LINE__Var
PUBLIC	??_C@_07FBNBNOMI@keysite@			; `string'
PUBLIC	?__LINE__Var@?0??dump_keysite_info@@YGXXZ@4JA	; `dump_keysite_info'::`1'::__LINE__Var
PUBLIC	??_C@_08GAOCBKJI@ks?$CFd?4txt@			; `string'
PUBLIC	??_C@_01NOFIACDB@w@				; `string'
PUBLIC	??_C@_0BJ@JDFCGDJO@SESSION?3?5?$CF02f?3?$CF02f?3?$CF02f?6@ ; `string'
PUBLIC	??_C@_0HN@HHAOOFJ@?9?9?9?9?9?9?9?9?9?9?9?9?9?9?9?9?9?9?9?9?9?9?9?9?9?9?9?9?9?9?9@ ; `string'
PUBLIC	??_C@_09EJPKGCLD@FORCE?5?$CFs?6@		; `string'
PUBLIC	??_C@_0FM@GLPLHDIC@?5?5?5?5?9?9?9?9?9?9?9?9?9?9?9?9?9?9?9?9?9?9?9?9?9?9?9?9?9?9?9@ ; `string'
PUBLIC	??_C@_0CN@KELGJPHF@?5?5?5?5Keysite?5?$CFs?5?$CFs?5?$CI?$CFd?$CJ?4?5In?5use?5@ ; `string'
PUBLIC	??_C@_0CP@JELENOEB@?5?5?5?5?5?5?5?5efficiency?5?$CF02f?0?5ammo?5?$CF@ ; `string'
PUBLIC	??_C@_0DO@DPNENGIL@?5?5?5?5?5?5?5?5?9?9?9?9?9?9?9?9?9?9?9?9?9?9?9?9?9?9?9?9?9?9?9@ ; `string'
PUBLIC	??_C@_0BC@KKGPCBDB@?5?5?5?5?5?5?5?5Tasks?5?$CFd?6@ ; `string'
PUBLIC	??_C@_0BF@OIFDCINF@?5?5?5?5?5?5?5?5?5?5?5?5?$CFs?5?$CI?$CFd?$CJ?6@ ; `string'
PUBLIC	?__LINE__Var@?0??validate_keysite_landing_site_heights@@YGXPAUENTITY@@@Z@4JA ; `validate_keysite_landing_site_heights'::`1'::__LINE__Var
PUBLIC	??_C@_0DH@KIHAKAGM@get_local_entity_type?5?$CIkeysite?$CJ@ ; `string'
PUBLIC	??_C@_04GGKLLKOO@task@				; `string'
PUBLIC	??_C@_0JA@DNHDIAOK@KEYSITE?3?5WARNING?3?5keysite?5?$CFs?5?$CI?$CF@ ; `string'
PUBLIC	?__LINE__Var@?0??play_keysite_under_attack_speech@@YGXPAUENTITY@@0@Z@4JA ; `play_keysite_under_attack_speech'::`1'::__LINE__Var
PUBLIC	??_C@_03PCBNCGFH@pos@				; `string'
PUBLIC	?__LINE__Var@?0??get_keysite_entity_mfd_display_name@@YGXPAUENTITY@@PAD@Z@4JA ; `get_keysite_entity_mfd_display_name'::`1'::__LINE__Var
PUBLIC	??_C@_01LKDEMHDF@s@				; `string'
PUBLIC	??_C@_05DIALNFFA@?$CFs?5?$CFd@			; `string'
PUBLIC	__real@0000000000000000
PUBLIC	__real@3f10000000000000
PUBLIC	__real@3f800000
PUBLIC	__real@3fa999999999999a
PUBLIC	__real@3ff0000000000000
PUBLIC	__real@4034000000000000
PUBLIC	__real@4049000000000000
PUBLIC	__real@404e000000000000
PUBLIC	__real@4052c00000000000
PUBLIC	__real@4059000000000000
PUBLIC	__real@41200000
PUBLIC	__real@41a00000
PUBLIC	__real@42340000
PUBLIC	__real@44160000
PUBLIC	__real@44610000
PUBLIC	__real@44960000
PUBLIC	__real@7f7fffff
EXTRN	__imp__fclose:PROC
EXTRN	__imp__fopen:PROC
EXTRN	__imp____stdio_common_vfprintf:PROC
EXTRN	__imp____stdio_common_vsprintf:PROC
EXTRN	_memcpy:PROC
EXTRN	_fabs:PROC
EXTRN	?process_assert@@YGXPBD0H@Z:PROC		; process_assert
EXTRN	?debug_log@@YAXPBDZZ:PROC			; debug_log
EXTRN	?file_exist@@YGHPBD@Z:PROC			; file_exist
EXTRN	?get_2d_range@@YGMPBUVEC3D@@0@Z:PROC		; get_2d_range
EXTRN	?get_approx_2d_range@@YGMPBUVEC3D@@0@Z:PROC	; get_approx_2d_range
EXTRN	?get_object_3d_bounding_box@@YGPAUOBJECT_3D_BOUNDS@@H@Z:PROC ; get_object_3d_bounding_box
EXTRN	?get_3d_terrain_point_data@@YGMMMPAUTERRAIN_3D_POINT_DATA@@@Z:PROC ; get_3d_terrain_point_data
EXTRN	?notify_local_entity@@YAHW4ENTITY_MESSAGES@@PAUENTITY@@1ZZ:PROC ; notify_local_entity
EXTRN	?set_client_server_entity_parent@@YGXPAUENTITY@@W4LIST_TYPES@@0@Z:PROC ; set_client_server_entity_parent
EXTRN	?get_local_entity_list_size@@YGHPAUENTITY@@W4LIST_TYPES@@@Z:PROC ; get_local_entity_list_size
EXTRN	?create_client_server_entity@@YAPAUENTITY@@W4ENTITY_TYPES@@HZZ:PROC ; create_client_server_entity
EXTRN	?destroy_client_server_entity_children@@YGXPAUENTITY@@W4LIST_TYPES@@@Z:PROC ; destroy_client_server_entity_children
EXTRN	?transmit_entity_comms_message@@YAXW4ENTITY_COMMS_MESSAGES@@PAUENTITY@@ZZ:PROC ; transmit_entity_comms_message
EXTRN	?restore_local_fixed_entity@@YGXPAUENTITY@@@Z:PROC ; restore_local_fixed_entity
EXTRN	?get_local_entity_suitable_for_player@@YGHPAUENTITY@@0@Z:PROC ; get_local_entity_suitable_for_player
EXTRN	?play_client_server_speech@@YAHPAUENTITY@@0W4ENTITY_SIDES@@HW4SOUND_LOCALITY_TYPES@@MMMW4speech_originator_types@@W4speech_category_types@@MZZ:PROC ; play_client_server_speech
EXTRN	?get_speech_sector_coordinates@@YGPAHPAUVEC3D@@@Z:PROC ; get_speech_sector_coordinates
EXTRN	?get_local_force_entity@@YGPAUENTITY@@W4ENTITY_SIDES@@@Z:PROC ; get_local_force_entity
EXTRN	?group_kill_all_members@@YGXPAUENTITY@@@Z:PROC	; group_kill_all_members
EXTRN	?create_group_emergency_transfer_task@@YGHPAUENTITY@@@Z:PROC ; create_group_emergency_transfer_task
EXTRN	?assign_group_callsign@@YGHPAUENTITY@@@Z:PROC	; assign_group_callsign
EXTRN	?free_group_callsign@@YGXPAUENTITY@@@Z:PROC	; free_group_callsign
EXTRN	?get_local_entity_landing_entity@@YGPAUENTITY@@PAU1@H@Z:PROC ; get_local_entity_landing_entity
EXTRN	?get_local_landing_entity_route@@YGPAUENTITY@@PAU1@H@Z:PROC ; get_local_landing_entity_route
EXTRN	?get_local_landing_entity_task@@YGPAUENTITY@@PAU1@H@Z:PROC ; get_local_landing_entity_task
EXTRN	?get_local_group_member_landing_entity_from_task@@YGPAUENTITY@@PAU1@@Z:PROC ; get_local_group_member_landing_entity_from_task
EXTRN	?add_default_entity_to_regen_queue@@YGXW4ENTITY_SIDES@@H@Z:PROC ; add_default_entity_to_regen_queue
EXTRN	?increment_regen_queue_size@@YGHW4ENTITY_SIDES@@W4ENTITY_TYPES@@H@Z:PROC ; increment_regen_queue_size
EXTRN	?get_local_sector_entity@@YGPAUENTITY@@PAUVEC3D@@@Z:PROC ; get_local_sector_entity
EXTRN	?assess_task_completeness@@YG?AW4TASK_COMPLETED_TYPES@@PAUENTITY@@W4TASK_TERMINATED_TYPES@@@Z:PROC ; assess_task_completeness
EXTRN	?get_local_entity_current_task@@YGPAUENTITY@@PAU1@@Z:PROC ; get_local_entity_current_task
EXTRN	?entity_is_object_of_task@@YGHPAUENTITY@@HW4ENTITY_SIDES@@@Z:PROC ; entity_is_object_of_task
EXTRN	?get_local_group_primary_task@@YGPAUENTITY@@PAU1@@Z:PROC ; get_local_group_primary_task
EXTRN	?send_text_message@@YGXPAUENTITY@@0W4MESSAGE_TEXT_TYPES@@PBD@Z:PROC ; send_text_message
EXTRN	?get_digital_clock_values@@YGXMPAM00@Z:PROC	; get_digital_clock_values
EXTRN	?ai_log@@YAXPBDZZ:PROC				; ai_log
EXTRN	?update_imap_sector_side@@YGXPAUENTITY@@H@Z:PROC ; update_imap_sector_side
EXTRN	?update_imap_importance_level@@YGXPAUENTITY@@H@Z:PROC ; update_imap_importance_level
EXTRN	?update_keysite_distance_to_friendly_base@@YGXPAUENTITY@@W4ENTITY_SIDES@@@Z:PROC ; update_keysite_distance_to_friendly_base
EXTRN	?update_imap_distance_to_friendly_base@@YGXW4ENTITY_SIDES@@@Z:PROC ; update_imap_distance_to_friendly_base
EXTRN	?get_object_3d_troop_landing_position_and_heading@@YGHHPAUVEC3D@@PAM@Z:PROC ; get_object_3d_troop_landing_position_and_heading
EXTRN	?assign_keysite_tasks@@YGXPAUENTITY@@W4TASK_CATEGORY_TYPES@@@Z:PROC ; assign_keysite_tasks
EXTRN	?create_cap_task@@YGPAUENTITY@@W4ENTITY_SIDES@@PAU1@1HMM11@Z:PROC ; create_cap_task
EXTRN	?random_number_seed@@3HA:DWORD			; random_number_seed
EXTRN	?object_3d_enumeration_names@@3PAPBDA:DWORD	; object_3d_enumeration_names
EXTRN	?command_line_capture_aircraft@@3HA:DWORD	; command_line_capture_aircraft
EXTRN	?game_status@@3W4GAME_STATUS_TYPES@@A:DWORD	; game_status
EXTRN	?null_entity_pointer_message@@3PBDB:DWORD	; null_entity_pointer_message
EXTRN	?entity_side_names@@3PAPBDA:BYTE		; entity_side_names
EXTRN	?entity_side_short_names@@3PAPBDA:BYTE		; entity_side_short_names
EXTRN	?system_comms_model@@3W4COMMS_MODEL_TYPES@@A:DWORD ; system_comms_model
EXTRN	?overload_invalid_list_type_message@@3PBDB:DWORD ; overload_invalid_list_type_message
EXTRN	?fn_get_local_entity_first_child@@3PAY0CN@P6GPAUENTITY@@PAU1@W4LIST_TYPES@@@ZA:BYTE ; fn_get_local_entity_first_child
EXTRN	?fn_get_local_entity_parent@@3PAY0CN@P6GPAUENTITY@@PAU1@W4LIST_TYPES@@@ZA:BYTE ; fn_get_local_entity_parent
EXTRN	?fn_get_local_entity_child_succ@@3PAY0CN@P6GPAUENTITY@@PAU1@W4LIST_TYPES@@@ZA:BYTE ; fn_get_local_entity_child_succ
EXTRN	?fn_destroy_client_server_entity_family@@3PAY01P6GXPAUENTITY@@@ZA:BYTE ; fn_destroy_client_server_entity_family
EXTRN	?fn_kill_client_server_entity@@3PAY01P6GXPAUENTITY@@@ZA:BYTE ; fn_kill_client_server_entity
EXTRN	?overload_invalid_float_type_message@@3PBDB:DWORD ; overload_invalid_float_type_message
EXTRN	?fn_set_local_entity_float_value@@3PAY0KP@P6GXPAUENTITY@@W4FLOAT_TYPES@@M@ZA:BYTE ; fn_set_local_entity_float_value
EXTRN	?fn_get_local_entity_float_value@@3PAY0KP@P6GMPAUENTITY@@W4FLOAT_TYPES@@@ZA:BYTE ; fn_get_local_entity_float_value
EXTRN	?overload_invalid_int_type_message@@3PBDB:DWORD	; overload_invalid_int_type_message
EXTRN	?fn_set_local_entity_int_value@@3PAY0BBH@P6GXPAUENTITY@@W4INT_TYPES@@H@ZA:BYTE ; fn_set_local_entity_int_value
EXTRN	?fn_set_client_server_entity_int_value@@3PAY1BBH@1P6GXPAUENTITY@@W4INT_TYPES@@H@ZA:BYTE ; fn_set_client_server_entity_int_value
EXTRN	?fn_get_local_entity_int_value@@3PAY0BBH@P6GHPAUENTITY@@W4INT_TYPES@@@ZA:BYTE ; fn_get_local_entity_int_value
EXTRN	?overload_invalid_string_type_message@@3PBDB:DWORD ; overload_invalid_string_type_message
EXTRN	?fn_get_local_entity_string@@3PAY0N@P6GPBDPAUENTITY@@W4STRING_TYPES@@@ZA:BYTE ; fn_get_local_entity_string
EXTRN	?overload_invalid_vec3d_type_message@@3PBDB:DWORD ; overload_invalid_vec3d_type_message
EXTRN	?fn_get_local_entity_vec3d@@3PAY0BI@P6GXPAUENTITY@@W4VEC3D_TYPES@@PAUVEC3D@@@ZA:BYTE ; fn_get_local_entity_vec3d
EXTRN	?fn_get_local_entity_vec3d_ptr@@3PAY0BI@P6GPAUVEC3D@@PAUENTITY@@W4VEC3D_TYPES@@@ZA:BYTE ; fn_get_local_entity_vec3d_ptr
EXTRN	?entities@@3PAUENTITY@@A:DWORD			; entities
EXTRN	?speech_sector_coordinates@@3PAHA:BYTE		; speech_sector_coordinates
EXTRN	?keysite_database@@3PAUKEYSITE_DATA@@A:BYTE	; keysite_database
EXTRN	?session_entity@@3PAUENTITY@@A:DWORD		; session_entity
EXTRN	?task_database@@3PAUTASK_DATA@@A:BYTE		; task_database
EXTRN	__fltused:DWORD
;	COMDAT ?_OptionsStorage@?1??__local_stdio_printf_options@@9@4_KA
_BSS	SEGMENT
?_OptionsStorage@?1??__local_stdio_printf_options@@9@4_KA DQ 01H DUP (?) ; `__local_stdio_printf_options'::`2'::_OptionsStorage
_BSS	ENDS
;	COMDAT __real@7f7fffff
CONST	SEGMENT
__real@7f7fffff DD 07f7fffffr			; 3.40282e+38
CONST	ENDS
;	COMDAT __real@44960000
CONST	SEGMENT
__real@44960000 DD 044960000r			; 1200
CONST	ENDS
;	COMDAT __real@44610000
CONST	SEGMENT
__real@44610000 DD 044610000r			; 900
CONST	ENDS
;	COMDAT __real@44160000
CONST	SEGMENT
__real@44160000 DD 044160000r			; 600
CONST	ENDS
;	COMDAT __real@42340000
CONST	SEGMENT
__real@42340000 DD 042340000r			; 45
CONST	ENDS
;	COMDAT __real@41a00000
CONST	SEGMENT
__real@41a00000 DD 041a00000r			; 20
CONST	ENDS
;	COMDAT __real@41200000
CONST	SEGMENT
__real@41200000 DD 041200000r			; 10
CONST	ENDS
;	COMDAT __real@4059000000000000
CONST	SEGMENT
__real@4059000000000000 DQ 04059000000000000r	; 100
CONST	ENDS
;	COMDAT __real@4052c00000000000
CONST	SEGMENT
__real@4052c00000000000 DQ 04052c00000000000r	; 75
CONST	ENDS
;	COMDAT __real@404e000000000000
CONST	SEGMENT
__real@404e000000000000 DQ 0404e000000000000r	; 60
CONST	ENDS
;	COMDAT __real@4049000000000000
CONST	SEGMENT
__real@4049000000000000 DQ 04049000000000000r	; 50
CONST	ENDS
;	COMDAT __real@4034000000000000
CONST	SEGMENT
__real@4034000000000000 DQ 04034000000000000r	; 20
CONST	ENDS
;	COMDAT __real@3ff0000000000000
CONST	SEGMENT
__real@3ff0000000000000 DQ 03ff0000000000000r	; 1
CONST	ENDS
;	COMDAT __real@3fa999999999999a
CONST	SEGMENT
__real@3fa999999999999a DQ 03fa999999999999ar	; 0.05
CONST	ENDS
;	COMDAT __real@3f800000
CONST	SEGMENT
__real@3f800000 DD 03f800000r			; 1
CONST	ENDS
;	COMDAT __real@3f10000000000000
CONST	SEGMENT
__real@3f10000000000000 DQ 03f10000000000000r	; 6.10352e-05
CONST	ENDS
;	COMDAT __real@0000000000000000
CONST	SEGMENT
__real@0000000000000000 DQ 00000000000000000r	; 0
CONST	ENDS
;	COMDAT ??_C@_05DIALNFFA@?$CFs?5?$CFd@
CONST	SEGMENT
??_C@_05DIALNFFA@?$CFs?5?$CFd@ DB '%s %d', 00H		; `string'
CONST	ENDS
;	COMDAT ??_C@_01LKDEMHDF@s@
CONST	SEGMENT
??_C@_01LKDEMHDF@s@ DB 's', 00H				; `string'
CONST	ENDS
;	COMDAT ?__LINE__Var@?0??get_keysite_entity_mfd_display_name@@YGXPAUENTITY@@PAD@Z@4JA
_DATA	SEGMENT
?__LINE__Var@?0??get_keysite_entity_mfd_display_name@@YGXPAUENTITY@@PAD@Z@4JA DD 07b0H ; `get_keysite_entity_mfd_display_name'::`1'::__LINE__Var
_DATA	ENDS
;	COMDAT ??_C@_03PCBNCGFH@pos@
CONST	SEGMENT
??_C@_03PCBNCGFH@pos@ DB 'pos', 00H			; `string'
CONST	ENDS
;	COMDAT ?__LINE__Var@?0??play_keysite_under_attack_speech@@YGXPAUENTITY@@0@Z@4JA
_DATA	SEGMENT
?__LINE__Var@?0??play_keysite_under_attack_speech@@YGXPAUENTITY@@0@Z@4JA DD 0786H ; `play_keysite_under_attack_speech'::`1'::__LINE__Var
_DATA	ENDS
;	COMDAT ??_C@_0JA@DNHDIAOK@KEYSITE?3?5WARNING?3?5keysite?5?$CFs?5?$CI?$CF@
CONST	SEGMENT
??_C@_0JA@DNHDIAOK@KEYSITE?3?5WARNING?3?5keysite?5?$CFs?5?$CI?$CF@ DB 'KE'
	DB	'YSITE: WARNING: keysite %s (%d) landing site %s %d waypoint %'
	DB	'd outside of height tolerance (delta %f, waypoint- y = %f, te'
	DB	'rrain elevation %f)', 00H			; `string'
CONST	ENDS
;	COMDAT ??_C@_04GGKLLKOO@task@
CONST	SEGMENT
??_C@_04GGKLLKOO@task@ DB 'task', 00H			; `string'
CONST	ENDS
;	COMDAT ??_C@_0DH@KIHAKAGM@get_local_entity_type?5?$CIkeysite?$CJ@
CONST	SEGMENT
??_C@_0DH@KIHAKAGM@get_local_entity_type?5?$CIkeysite?$CJ@ DB 'get_local_'
	DB	'entity_type (keysite) == ENTITY_TYPE_KEYSITE', 00H ; `string'
CONST	ENDS
;	COMDAT ?__LINE__Var@?0??validate_keysite_landing_site_heights@@YGXPAUENTITY@@@Z@4JA
_DATA	SEGMENT
?__LINE__Var@?0??validate_keysite_landing_site_heights@@YGXPAUENTITY@@@Z@4JA DD 0743H ; `validate_keysite_landing_site_heights'::`1'::__LINE__Var
_DATA	ENDS
;	COMDAT ??_C@_0BF@OIFDCINF@?5?5?5?5?5?5?5?5?5?5?5?5?$CFs?5?$CI?$CFd?$CJ?6@
CONST	SEGMENT
??_C@_0BF@OIFDCINF@?5?5?5?5?5?5?5?5?5?5?5?5?$CFs?5?$CI?$CFd?$CJ?6@ DB '  '
	DB	'          %s (%d)', 0aH, 00H		; `string'
CONST	ENDS
;	COMDAT ??_C@_0BC@KKGPCBDB@?5?5?5?5?5?5?5?5Tasks?5?$CFd?6@
CONST	SEGMENT
??_C@_0BC@KKGPCBDB@?5?5?5?5?5?5?5?5Tasks?5?$CFd?6@ DB '        Tasks %d', 0aH
	DB	00H						; `string'
CONST	ENDS
;	COMDAT ??_C@_0DO@DPNENGIL@?5?5?5?5?5?5?5?5?9?9?9?9?9?9?9?9?9?9?9?9?9?9?9?9?9?9?9?9?9?9?9@
CONST	SEGMENT
??_C@_0DO@DPNENGIL@?5?5?5?5?5?5?5?5?9?9?9?9?9?9?9?9?9?9?9?9?9?9?9?9?9?9?9?9?9?9?9@ DB ' '
	DB	'       ----------------------------------------------------', 0aH
	DB	00H						; `string'
CONST	ENDS
;	COMDAT ??_C@_0CP@JELENOEB@?5?5?5?5?5?5?5?5efficiency?5?$CF02f?0?5ammo?5?$CF@
CONST	SEGMENT
??_C@_0CP@JELENOEB@?5?5?5?5?5?5?5?5efficiency?5?$CF02f?0?5ammo?5?$CF@ DB ' '
	DB	'       efficiency %02f, ammo %02f, fuel %02f', 0aH, 00H ; `string'
CONST	ENDS
;	COMDAT ??_C@_0CN@KELGJPHF@?5?5?5?5Keysite?5?$CFs?5?$CFs?5?$CI?$CFd?$CJ?4?5In?5use?5@
CONST	SEGMENT
??_C@_0CN@KELGJPHF@?5?5?5?5Keysite?5?$CFs?5?$CFs?5?$CI?$CFd?$CJ?4?5In?5use?5@ DB ' '
	DB	'   Keysite %s %s (%d). In use %d, Alive %d', 0aH, 00H ; `string'
CONST	ENDS
;	COMDAT ??_C@_0FM@GLPLHDIC@?5?5?5?5?9?9?9?9?9?9?9?9?9?9?9?9?9?9?9?9?9?9?9?9?9?9?9?9?9?9?9@
CONST	SEGMENT
??_C@_0FM@GLPLHDIC@?5?5?5?5?9?9?9?9?9?9?9?9?9?9?9?9?9?9?9?9?9?9?9?9?9?9?9?9?9?9?9@ DB ' '
	DB	'   ----------------------------------------------------------'
	DB	'----------------------------', 0aH, 00H	; `string'
CONST	ENDS
;	COMDAT ??_C@_09EJPKGCLD@FORCE?5?$CFs?6@
CONST	SEGMENT
??_C@_09EJPKGCLD@FORCE?5?$CFs?6@ DB 'FORCE %s', 0aH, 00H ; `string'
CONST	ENDS
;	COMDAT ??_C@_0HN@HHAOOFJ@?9?9?9?9?9?9?9?9?9?9?9?9?9?9?9?9?9?9?9?9?9?9?9?9?9?9?9?9?9?9?9@
CONST	SEGMENT
??_C@_0HN@HHAOOFJ@?9?9?9?9?9?9?9?9?9?9?9?9?9?9?9?9?9?9?9?9?9?9?9?9?9?9?9?9?9?9?9@ DB '-'
	DB	'-------------------------------------------------------------'
	DB	'-------------------------------------------------------------'
	DB	0aH, 00H					; `string'
CONST	ENDS
;	COMDAT ??_C@_0BJ@JDFCGDJO@SESSION?3?5?$CF02f?3?$CF02f?3?$CF02f?6@
CONST	SEGMENT
??_C@_0BJ@JDFCGDJO@SESSION?3?5?$CF02f?3?$CF02f?3?$CF02f?6@ DB 'SESSION: %'
	DB	'02f:%02f:%02f', 0aH, 00H			; `string'
CONST	ENDS
;	COMDAT ??_C@_01NOFIACDB@w@
CONST	SEGMENT
??_C@_01NOFIACDB@w@ DB 'w', 00H				; `string'
CONST	ENDS
;	COMDAT ??_C@_08GAOCBKJI@ks?$CFd?4txt@
CONST	SEGMENT
??_C@_08GAOCBKJI@ks?$CFd?4txt@ DB 'ks%d.txt', 00H	; `string'
CONST	ENDS
;	COMDAT ?__LINE__Var@?0??dump_keysite_info@@YGXXZ@4JA
_DATA	SEGMENT
?__LINE__Var@?0??dump_keysite_info@@YGXXZ@4JA DD 06b4H	; `dump_keysite_info'::`1'::__LINE__Var
_DATA	ENDS
;	COMDAT ??_C@_07FBNBNOMI@keysite@
CONST	SEGMENT
??_C@_07FBNBNOMI@keysite@ DB 'keysite', 00H		; `string'
CONST	ENDS
;	COMDAT ?__LINE__Var@?0??get_keysite_suitable_for_player@@YGHPAUENTITY@@0@Z@4JA
_DATA	SEGMENT
?__LINE__Var@?0??get_keysite_suitable_for_player@@YGHPAUENTITY@@0@Z@4JA DD 0692H ; `get_keysite_suitable_for_player'::`1'::__LINE__Var
_DATA	ENDS
;	COMDAT ??_C@_0CP@PLBNLKAL@?$CIKEYSITE?$CJ?5?$CFs?5FULLY?5REPAIRED?5?$CIst@
CONST	SEGMENT
??_C@_0CP@PLBNLKAL@?$CIKEYSITE?$CJ?5?$CFs?5FULLY?5REPAIRED?5?$CIst@ DB '('
	DB	'KEYSITE) %s FULLY REPAIRED (strength %f / %f)', 00H ; `string'
CONST	ENDS
;	COMDAT ??_C@_0EP@MGHJDKKG@?$CIKEYSITE?$CJ?5REPAIRED?5?$CFs?5?$CIREGEN?$CJ?5a@
CONST	SEGMENT
??_C@_0EP@MGHJDKKG@?$CIKEYSITE?$CJ?5REPAIRED?5?$CFs?5?$CIREGEN?$CJ?5a@ DB '('
	DB	'KEYSITE) REPAIRED %s (REGEN) at keysite %s (importance %f) (s'
	DB	'trength %f / %f)', 00H			; `string'
CONST	ENDS
;	COMDAT ??_C@_0EH@KBDJFAII@?$CIKEYSITE?$CJ?5REPAIRED?5?$CFs?5at?5keysit@
CONST	SEGMENT
??_C@_0EH@KBDJFAII@?$CIKEYSITE?$CJ?5REPAIRED?5?$CFs?5at?5keysit@ DB '(KEY'
	DB	'SITE) REPAIRED %s at keysite %s (importance %f) (strength %f '
	DB	'/ %f)', 00H					; `string'
CONST	ENDS
;	COMDAT ?__LINE__Var@?0??repair_client_server_entity_keysite@@YGHPAUENTITY@@@Z@4JA
_DATA	SEGMENT
?__LINE__Var@?0??repair_client_server_entity_keysite@@YGHPAUENTITY@@@Z@4JA DD 0616H ; `repair_client_server_entity_keysite'::`1'::__LINE__Var
_DATA	ENDS
;	COMDAT ?__LINE__Var@?0??change_local_keysite_building_sides@@YGXPAUENTITY@@W4ENTITY_SIDES@@@Z@4JA
_DATA	SEGMENT
?__LINE__Var@?0??change_local_keysite_building_sides@@YGXPAUENTITY@@W4ENTITY_SIDES@@@Z@4JA DD 05ddH ; `change_local_keysite_building_sides'::`1'::__LINE__Var
_DATA	ENDS
;	COMDAT ??_C@_0BM@OOEMOJEM@?$CIKEYSITE?$CJ?5?$CFs?5CAPTURED?5BY?5?$CFs@
CONST	SEGMENT
??_C@_0BM@OOEMOJEM@?$CIKEYSITE?$CJ?5?$CFs?5CAPTURED?5BY?5?$CFs@ DB '(KEYS'
	DB	'ITE) %s CAPTURED BY %s', 00H		; `string'
CONST	ENDS
;	COMDAT ??_C@_0BB@MOMEHOGH@side?5?$CB?$DN?5new_side@
CONST	SEGMENT
??_C@_0BB@MOMEHOGH@side?5?$CB?$DN?5new_side@ DB 'side != new_side', 00H ; `string'
CONST	ENDS
;	COMDAT ?__LINE__Var@?0??capture_keysite@@YGXPAUENTITY@@W4ENTITY_SIDES@@@Z@4JA
_DATA	SEGMENT
?__LINE__Var@?0??capture_keysite@@YGXPAUENTITY@@W4ENTITY_SIDES@@@Z@4JA DD 0508H ; `capture_keysite'::`1'::__LINE__Var
_DATA	ENDS
;	COMDAT ??_C@_0DC@BODFACEG@get_local_entity_type?5?$CIen?$CJ?5?$DN?$DN?5E@
CONST	SEGMENT
??_C@_0DC@BODFACEG@get_local_entity_type?5?$CIen?$CJ?5?$DN?$DN?5E@ DB 'ge'
	DB	't_local_entity_type (en) == ENTITY_TYPE_KEYSITE', 00H ; `string'
CONST	ENDS
;	COMDAT ?__LINE__Var@?0??destroy_keysite@@YGXPAUENTITY@@W4ENTITY_SIDES@@@Z@4JA
_DATA	SEGMENT
?__LINE__Var@?0??destroy_keysite@@YGXPAUENTITY@@W4ENTITY_SIDES@@@Z@4JA DD 03b0H ; `destroy_keysite'::`1'::__LINE__Var
_DATA	ENDS
;	COMDAT ??_C@_0CJ@DMBLBJBK@get_comms_model?5?$CI?$CJ?5?$DN?$DN?5COMMS_MOD@
CONST	SEGMENT
??_C@_0CJ@DMBLBJBK@get_comms_model?5?$CI?$CJ?5?$DN?$DN?5COMMS_MOD@ DB 'ge'
	DB	't_comms_model () == COMMS_MODEL_SERVER', 00H ; `string'
CONST	ENDS
;	COMDAT ??_C@_09HKMIOAOH@aggressor@
CONST	SEGMENT
??_C@_09HKMIOAOH@aggressor@ DB 'aggressor', 00H		; `string'
CONST	ENDS
;	COMDAT ?__LINE__Var@?0??notify_keysite_structure_under_attack@@YGXPAUENTITY@@0@Z@4JA
_DATA	SEGMENT
?__LINE__Var@?0??notify_keysite_structure_under_attack@@YGXPAUENTITY@@0@Z@4JA DD 0355H ; `notify_keysite_structure_under_attack'::`1'::__LINE__Var
_DATA	ENDS
;	COMDAT ??_C@_0DA@HPNGODAO@?$CIKEYSITE?$CJ?5SIDE?5?$CFs?5?3?5?$CFs?5BELOW?5MI@
CONST	SEGMENT
??_C@_0DA@HPNGODAO@?$CIKEYSITE?$CJ?5SIDE?5?$CFs?5?3?5?$CFs?5BELOW?5MI@ DB '('
	DB	'KEYSITE) SIDE %s : %s BELOW MINIMUN EFFICIENCY', 00H ; `string'
CONST	ENDS
;	COMDAT ??_C@_0DE@FMPHPBAF@?$CIKEYSITE?$CJ?5?$CFs?5removed?5?$CFs?0?5new?5st@
CONST	SEGMENT
??_C@_0DE@FMPHPBAF@?$CIKEYSITE?$CJ?5?$CFs?5removed?5?$CFs?0?5new?5st@ DB '('
	DB	'KEYSITE) %s removed %s, new strength (%.2f / %.2f)', 00H ; `string'
CONST	ENDS
;	COMDAT ??_C@_0DK@GNEEOIBD@get_local_entity_type?5?$CIkeysite_@
CONST	SEGMENT
??_C@_0DK@GNEEOIBD@get_local_entity_type?5?$CIkeysite_@ DB 'get_local_ent'
	DB	'ity_type (keysite_en) == ENTITY_TYPE_KEYSITE', 00H ; `string'
CONST	ENDS
;	COMDAT ?__LINE__Var@?0??subtract_local_entity_importance_from_keysite@@YGXPAUENTITY@@@Z@4JA
_DATA	SEGMENT
?__LINE__Var@?0??subtract_local_entity_importance_from_keysite@@YGXPAUENTITY@@@Z@4JA DD 02e2H ; `subtract_local_entity_importance_from_keysite'::`1'::__LINE__Var
_DATA	ENDS
;	COMDAT ?__LINE__Var@?0??restore_local_entity_importance_to_keysite@@YGHPAUENTITY@@0@Z@4JA
_DATA	SEGMENT
?__LINE__Var@?0??restore_local_entity_importance_to_keysite@@YGHPAUENTITY@@0@Z@4JA DD 02b8H ; `restore_local_entity_importance_to_keysite'::`1'::__LINE__Var
_DATA	ENDS
;	COMDAT ??_C@_0L@FHNPJNGM@keysite_en@
CONST	SEGMENT
??_C@_0L@FHNPJNGM@keysite_en@ DB 'keysite_en', 00H	; `string'
CONST	ENDS
;	COMDAT ??_C@_02LFNMGJAP@en@
CONST	SEGMENT
??_C@_02LFNMGJAP@en@ DB 'en', 00H			; `string'
CONST	ENDS
;	COMDAT ?__LINE__Var@?0??add_local_entity_importance_to_keysite@@YGHPAUENTITY@@0@Z@4JA
_DATA	SEGMENT
?__LINE__Var@?0??add_local_entity_importance_to_keysite@@YGHPAUENTITY@@0@Z@4JA DD 028cH ; `add_local_entity_importance_to_keysite'::`1'::__LINE__Var
_DATA	ENDS
;	COMDAT ?__LINE__Var@?0??get_local_keysite_member_count@@YGHPAUENTITY@@@Z@4JA
_DATA	SEGMENT
?__LINE__Var@?0??get_local_keysite_member_count@@YGHPAUENTITY@@@Z@4JA DD 0269H ; `get_local_keysite_member_count'::`1'::__LINE__Var
_DATA	ENDS
;	COMDAT ??_C@_09GNENBKCD@structure@
CONST	SEGMENT
??_C@_09GNENBKCD@structure@ DB 'structure', 00H		; `string'
CONST	ENDS
;	COMDAT ?__LINE__Var@?0??get_fixed_structure_keysite_entity@@YGPAUENTITY@@PAU2@@Z@4JA
_DATA	SEGMENT
?__LINE__Var@?0??get_fixed_structure_keysite_entity@@YGPAUENTITY@@PAU2@@Z@4JA DD 023dH ; `get_fixed_structure_keysite_entity'::`1'::__LINE__Var
_DATA	ENDS
;	COMDAT ?__LINE__Var@?0??initialise_keysite_farp_enable@@YGXPAUENTITY@@@Z@4JA
_DATA	SEGMENT
?__LINE__Var@?0??initialise_keysite_farp_enable@@YGXPAUENTITY@@@Z@4JA DD 01faH ; `initialise_keysite_farp_enable'::`1'::__LINE__Var
_DATA	ENDS
;	COMDAT ?__LINE__Var@?0??update_keysite_cargo@@YGXPAUENTITY@@MHM@Z@4JA
_DATA	SEGMENT
?__LINE__Var@?0??update_keysite_cargo@@YGXPAUENTITY@@MHM@Z@4JA DD 0150H ; `update_keysite_cargo'::`1'::__LINE__Var
_DATA	ENDS
;	COMDAT ?__LINE__Var@?0??get_keysite_landing_sites_available@@YGHPAUENTITY@@H@Z@4JA
_DATA	SEGMENT
?__LINE__Var@?0??get_keysite_landing_sites_available@@YGHPAUENTITY@@H@Z@4JA DD 0138H ; `get_keysite_landing_sites_available'::`1'::__LINE__Var
_DATA	ENDS
;	COMDAT ?__LINE__Var@?0??get_keysite_start_landing_position@@YGHPAUENTITY@@PAUVEC3D@@H@Z@4JA
_DATA	SEGMENT
?__LINE__Var@?0??get_keysite_start_landing_position@@YGHPAUENTITY@@PAUVEC3D@@H@Z@4JA DD 0124H ; `get_keysite_start_landing_position'::`1'::__LINE__Var
_DATA	ENDS
;	COMDAT ?__LINE__Var@?0??get_keysite_takenoff_position@@YGHPAUENTITY@@PAUVEC3D@@H@Z@4JA
_DATA	SEGMENT
?__LINE__Var@?0??get_keysite_takenoff_position@@YGHPAUENTITY@@PAUVEC3D@@H@Z@4JA DD 0fcH ; `get_keysite_takenoff_position'::`1'::__LINE__Var
_DATA	ENDS
;	COMDAT ?__LINE__Var@?0??get_keysite_troop_outside_building_position@@YGXPAUENTITY@@PAUVEC3D@@H@Z@4JA
_DATA	SEGMENT
?__LINE__Var@?0??get_keysite_troop_outside_building_position@@YGXPAUENTITY@@PAUVEC3D@@H@Z@4JA DD 0f0H ; `get_keysite_troop_outside_building_position'::`1'::__LINE__Var
_DATA	ENDS
;	COMDAT ?__LINE__Var@?0??get_keysite_troop_in_building_position@@YGXPAUENTITY@@PAUVEC3D@@@Z@4JA
_DATA	SEGMENT
?__LINE__Var@?0??get_keysite_troop_in_building_position@@YGXPAUENTITY@@PAUVEC3D@@@Z@4JA DD 0e4H ; `get_keysite_troop_in_building_position'::`1'::__LINE__Var
_DATA	ENDS
;	COMDAT ?__LINE__Var@?0??get_keysite_troop_dropoff_position@@YGHPAUENTITY@@PAUVEC3D@@PAM@Z@4JA
_DATA	SEGMENT
?__LINE__Var@?0??get_keysite_troop_dropoff_position@@YGHPAUENTITY@@PAUVEC3D@@PAM@Z@4JA DD 0cdH ; `get_keysite_troop_dropoff_position'::`1'::__LINE__Var
_DATA	ENDS
;	COMDAT ?__LINE__Var@?0??get_keysite_troop_pickup_position@@YGXPAUENTITY@@PAUVEC3D@@@Z@4JA
_DATA	SEGMENT
?__LINE__Var@?0??get_keysite_troop_pickup_position@@YGXPAUENTITY@@PAUVEC3D@@@Z@4JA DD 0c3H ; `get_keysite_troop_pickup_position'::`1'::__LINE__Var
_DATA	ENDS
;	COMDAT ?__LINE__Var@?0??get_keysite_supply_position@@YGPAUVEC3D@@PAUENTITY@@@Z@4JA
_DATA	SEGMENT
?__LINE__Var@?0??get_keysite_supply_position@@YGPAUVEC3D@@PAUENTITY@@@Z@4JA DD 0b9H ; `get_keysite_supply_position'::`1'::__LINE__Var
_DATA	ENDS
;	COMDAT ??_C@_0EN@PIOGLIPD@c?3?2users?2nhv90?2projects?2eech?2ap@
CONST	SEGMENT
??_C@_0EN@PIOGLIPD@c?3?2users?2nhv90?2projects?2eech?2ap@ DB 'c:\users\nh'
	DB	'v90\projects\eech\aphavoc\source\entity\special\keysite\keysi'
	DB	'te.c', 00H					; `string'
CONST	ENDS
;	COMDAT ?__LINE__Var@?0??get_closest_keysite@@YGPAUENTITY@@HW4ENTITY_SIDES@@PAUVEC3D@@MPAMPAU2@@Z@4JA
_DATA	SEGMENT
?__LINE__Var@?0??get_closest_keysite@@YGPAUENTITY@@HW4ENTITY_SIDES@@PAUVEC3D@@MPAMPAU2@@Z@4JA DD 059H ; `get_closest_keysite'::`1'::__LINE__Var
_DATA	ENDS
;	COMDAT ??_C@_02DKCKIIND@?$CFs@
CONST	SEGMENT
??_C@_02DKCKIIND@?$CFs@ DB '%s', 00H			; `string'
CONST	ENDS
; Function compile flags: /Odtp /ZI
; File c:\users\nhv90\projects\eech\aphavoc\source\entity\special\keysite\keysite.c
;	COMDAT ?get_keysite_entity_mfd_display_name@@YGXPAUENTITY@@PAD@Z
_TEXT	SEGMENT
tv170 = -76						; size = 4
tv147 = -76						; size = 4
tv88 = -76						; size = 4
tv162 = -72						; size = 4
tv139 = -72						; size = 4
tv80 = -72						; size = 4
_sub_type$ = -4						; size = 4
_en$ = 8						; size = 4
_s$ = 12						; size = 4
?get_keysite_entity_mfd_display_name@@YGXPAUENTITY@@PAD@Z PROC ; get_keysite_entity_mfd_display_name, COMDAT

; 1968 : {

  00000	55		 push	 ebp
  00001	8b ec		 mov	 ebp, esp
  00003	83 ec 4c	 sub	 esp, 76			; 0000004cH
  00006	53		 push	 ebx
  00007	56		 push	 esi
  00008	57		 push	 edi

; 1969 : 	entity_sub_types
; 1970 : 		sub_type;
; 1971 : 
; 1972 : 	ASSERT (s);

  00009	83 7d 0c 00	 cmp	 DWORD PTR _s$[ebp], 0
  0000d	75 18		 jne	 SHORT $LN2@get_keysit
  0000f	a1 00 00 00 00	 mov	 eax, DWORD PTR ?__LINE__Var@?0??get_keysite_entity_mfd_display_name@@YGXPAUENTITY@@PAD@Z@4JA
  00014	83 c0 04	 add	 eax, 4
  00017	50		 push	 eax
  00018	68 00 00 00 00	 push	 OFFSET ??_C@_0EN@PIOGLIPD@c?3?2users?2nhv90?2projects?2eech?2ap@
  0001d	68 00 00 00 00	 push	 OFFSET ??_C@_01LKDEMHDF@s@
  00022	e8 00 00 00 00	 call	 ?process_assert@@YGXPBD0H@Z ; process_assert
$LN2@get_keysit:

; 1973 : 
; 1974 : 	ASSERT (en);

  00027	83 7d 08 00	 cmp	 DWORD PTR _en$[ebp], 0
  0002b	75 18		 jne	 SHORT $LN3@get_keysit
  0002d	a1 00 00 00 00	 mov	 eax, DWORD PTR ?__LINE__Var@?0??get_keysite_entity_mfd_display_name@@YGXPAUENTITY@@PAD@Z@4JA
  00032	83 c0 06	 add	 eax, 6
  00035	50		 push	 eax
  00036	68 00 00 00 00	 push	 OFFSET ??_C@_0EN@PIOGLIPD@c?3?2users?2nhv90?2projects?2eech?2ap@
  0003b	68 00 00 00 00	 push	 OFFSET ??_C@_02LFNMGJAP@en@
  00040	e8 00 00 00 00	 call	 ?process_assert@@YGXPBD0H@Z ; process_assert
$LN3@get_keysit:

; 1975 : 
; 1976 : 	sub_type = get_local_entity_int_value (en, INT_TYPE_ENTITY_SUB_TYPE);

  00045	83 7d 08 00	 cmp	 DWORD PTR _en$[ebp], 0
  00049	74 0a		 je	 SHORT $LN7@get_keysit
  0004b	8b 45 08	 mov	 eax, DWORD PTR _en$[ebp]
  0004e	8b 08		 mov	 ecx, DWORD PTR [eax]
  00050	89 4d b8	 mov	 DWORD PTR tv80[ebp], ecx
  00053	eb 21		 jmp	 SHORT $LN8@get_keysit
$LN7@get_keysit:
  00055	8b 15 00 00 00
	00		 mov	 edx, DWORD PTR ?__LINE__Var@?0??get_keysite_entity_mfd_display_name@@YGXPAUENTITY@@PAD@Z@4JA
  0005b	83 c2 08	 add	 edx, 8
  0005e	52		 push	 edx
  0005f	68 00 00 00 00	 push	 OFFSET ??_C@_0EN@PIOGLIPD@c?3?2users?2nhv90?2projects?2eech?2ap@
  00064	a1 00 00 00 00	 mov	 eax, DWORD PTR ?null_entity_pointer_message@@3PBDB ; null_entity_pointer_message
  00069	50		 push	 eax
  0006a	e8 00 00 00 00	 call	 ?process_assert@@YGXPBD0H@Z ; process_assert
  0006f	c7 45 b8 00 00
	00 00		 mov	 DWORD PTR tv80[ebp], 0
$LN8@get_keysit:
  00076	b9 01 00 00 00	 mov	 ecx, 1
  0007b	85 c9		 test	 ecx, ecx
  0007d	74 09		 je	 SHORT $LN9@get_keysit
  0007f	c7 45 b4 34 00
	00 00		 mov	 DWORD PTR tv88[ebp], 52	; 00000034H
  00086	eb 21		 jmp	 SHORT $LN10@get_keysit
$LN9@get_keysit:
  00088	8b 15 00 00 00
	00		 mov	 edx, DWORD PTR ?__LINE__Var@?0??get_keysite_entity_mfd_display_name@@YGXPAUENTITY@@PAD@Z@4JA
  0008e	83 c2 08	 add	 edx, 8
  00091	52		 push	 edx
  00092	68 00 00 00 00	 push	 OFFSET ??_C@_0EN@PIOGLIPD@c?3?2users?2nhv90?2projects?2eech?2ap@
  00097	a1 00 00 00 00	 mov	 eax, DWORD PTR ?overload_invalid_int_type_message@@3PBDB ; overload_invalid_int_type_message
  0009c	50		 push	 eax
  0009d	e8 00 00 00 00	 call	 ?process_assert@@YGXPBD0H@Z ; process_assert
  000a2	c7 45 b4 00 00
	00 00		 mov	 DWORD PTR tv88[ebp], 0
$LN10@get_keysit:
  000a9	6a 34		 push	 52			; 00000034H
  000ab	8b 4d 08	 mov	 ecx, DWORD PTR _en$[ebp]
  000ae	51		 push	 ecx
  000af	69 55 b8 5c 04
	00 00		 imul	 edx, DWORD PTR tv80[ebp], 1116
  000b6	8b 45 b4	 mov	 eax, DWORD PTR tv88[ebp]
  000b9	8b 8c 82 00 00
	00 00		 mov	 ecx, DWORD PTR ?fn_get_local_entity_int_value@@3PAY0BBH@P6GHPAUENTITY@@W4INT_TYPES@@@ZA[edx+eax*4]
  000c0	ff d1		 call	 ecx
  000c2	89 45 fc	 mov	 DWORD PTR _sub_type$[ebp], eax

; 1977 : 
; 1978 : 	if (keysite_database [sub_type].unique_name)

  000c5	6b 45 fc 44	 imul	 eax, DWORD PTR _sub_type$[ebp], 68
  000c9	8b 88 30 00 00
	00		 mov	 ecx, DWORD PTR ?keysite_database@@3PAUKEYSITE_DATA@@A[eax+48]
  000cf	c1 e9 0d	 shr	 ecx, 13			; 0000000dH
  000d2	83 e1 01	 and	 ecx, 1
  000d5	0f 84 91 00 00
	00		 je	 $LN4@get_keysit

; 1979 : 	{
; 1980 : 		sprintf (s, "%s", get_local_entity_string (en, STRING_TYPE_KEYSITE_NAME));

  000db	83 7d 08 00	 cmp	 DWORD PTR _en$[ebp], 0
  000df	74 0a		 je	 SHORT $LN11@get_keysit
  000e1	8b 45 08	 mov	 eax, DWORD PTR _en$[ebp]
  000e4	8b 08		 mov	 ecx, DWORD PTR [eax]
  000e6	89 4d b8	 mov	 DWORD PTR tv139[ebp], ecx
  000e9	eb 21		 jmp	 SHORT $LN12@get_keysit
$LN11@get_keysit:
  000eb	8b 15 00 00 00
	00		 mov	 edx, DWORD PTR ?__LINE__Var@?0??get_keysite_entity_mfd_display_name@@YGXPAUENTITY@@PAD@Z@4JA
  000f1	83 c2 0c	 add	 edx, 12			; 0000000cH
  000f4	52		 push	 edx
  000f5	68 00 00 00 00	 push	 OFFSET ??_C@_0EN@PIOGLIPD@c?3?2users?2nhv90?2projects?2eech?2ap@
  000fa	a1 00 00 00 00	 mov	 eax, DWORD PTR ?null_entity_pointer_message@@3PBDB ; null_entity_pointer_message
  000ff	50		 push	 eax
  00100	e8 00 00 00 00	 call	 ?process_assert@@YGXPBD0H@Z ; process_assert
  00105	c7 45 b8 00 00
	00 00		 mov	 DWORD PTR tv139[ebp], 0
$LN12@get_keysit:
  0010c	b9 01 00 00 00	 mov	 ecx, 1
  00111	85 c9		 test	 ecx, ecx
  00113	74 09		 je	 SHORT $LN13@get_keysit
  00115	c7 45 b4 07 00
	00 00		 mov	 DWORD PTR tv147[ebp], 7
  0011c	eb 21		 jmp	 SHORT $LN14@get_keysit
$LN13@get_keysit:
  0011e	8b 15 00 00 00
	00		 mov	 edx, DWORD PTR ?__LINE__Var@?0??get_keysite_entity_mfd_display_name@@YGXPAUENTITY@@PAD@Z@4JA
  00124	83 c2 0c	 add	 edx, 12			; 0000000cH
  00127	52		 push	 edx
  00128	68 00 00 00 00	 push	 OFFSET ??_C@_0EN@PIOGLIPD@c?3?2users?2nhv90?2projects?2eech?2ap@
  0012d	a1 00 00 00 00	 mov	 eax, DWORD PTR ?overload_invalid_string_type_message@@3PBDB ; overload_invalid_string_type_message
  00132	50		 push	 eax
  00133	e8 00 00 00 00	 call	 ?process_assert@@YGXPBD0H@Z ; process_assert
  00138	c7 45 b4 00 00
	00 00		 mov	 DWORD PTR tv147[ebp], 0
$LN14@get_keysit:
  0013f	6a 07		 push	 7
  00141	8b 4d 08	 mov	 ecx, DWORD PTR _en$[ebp]
  00144	51		 push	 ecx
  00145	6b 55 b8 34	 imul	 edx, DWORD PTR tv139[ebp], 52
  00149	8b 45 b4	 mov	 eax, DWORD PTR tv147[ebp]
  0014c	8b 8c 82 00 00
	00 00		 mov	 ecx, DWORD PTR ?fn_get_local_entity_string@@3PAY0N@P6GPBDPAUENTITY@@W4STRING_TYPES@@@ZA[edx+eax*4]
  00153	ff d1		 call	 ecx
  00155	50		 push	 eax
  00156	68 00 00 00 00	 push	 OFFSET ??_C@_02DKCKIIND@?$CFs@
  0015b	8b 55 0c	 mov	 edx, DWORD PTR _s$[ebp]
  0015e	52		 push	 edx
  0015f	e8 00 00 00 00	 call	 _sprintf
  00164	83 c4 0c	 add	 esp, 12			; 0000000cH

; 1981 : 	}
; 1982 : 	else

  00167	e9 9a 00 00 00	 jmp	 $LN1@get_keysit
$LN4@get_keysit:

; 1983 : 	{
; 1984 : 		sprintf (s, "%s %d", keysite_database [sub_type].short_name, get_local_entity_int_value (en, INT_TYPE_KEYSITE_ID)); 

  0016c	83 7d 08 00	 cmp	 DWORD PTR _en$[ebp], 0
  00170	74 0a		 je	 SHORT $LN15@get_keysit
  00172	8b 45 08	 mov	 eax, DWORD PTR _en$[ebp]
  00175	8b 08		 mov	 ecx, DWORD PTR [eax]
  00177	89 4d b8	 mov	 DWORD PTR tv162[ebp], ecx
  0017a	eb 21		 jmp	 SHORT $LN16@get_keysit
$LN15@get_keysit:
  0017c	8b 15 00 00 00
	00		 mov	 edx, DWORD PTR ?__LINE__Var@?0??get_keysite_entity_mfd_display_name@@YGXPAUENTITY@@PAD@Z@4JA
  00182	83 c2 10	 add	 edx, 16			; 00000010H
  00185	52		 push	 edx
  00186	68 00 00 00 00	 push	 OFFSET ??_C@_0EN@PIOGLIPD@c?3?2users?2nhv90?2projects?2eech?2ap@
  0018b	a1 00 00 00 00	 mov	 eax, DWORD PTR ?null_entity_pointer_message@@3PBDB ; null_entity_pointer_message
  00190	50		 push	 eax
  00191	e8 00 00 00 00	 call	 ?process_assert@@YGXPBD0H@Z ; process_assert
  00196	c7 45 b8 00 00
	00 00		 mov	 DWORD PTR tv162[ebp], 0
$LN16@get_keysit:
  0019d	b9 01 00 00 00	 mov	 ecx, 1
  001a2	85 c9		 test	 ecx, ecx
  001a4	74 09		 je	 SHORT $LN17@get_keysit
  001a6	c7 45 b4 6f 00
	00 00		 mov	 DWORD PTR tv170[ebp], 111 ; 0000006fH
  001ad	eb 21		 jmp	 SHORT $LN18@get_keysit
$LN17@get_keysit:
  001af	8b 15 00 00 00
	00		 mov	 edx, DWORD PTR ?__LINE__Var@?0??get_keysite_entity_mfd_display_name@@YGXPAUENTITY@@PAD@Z@4JA
  001b5	83 c2 10	 add	 edx, 16			; 00000010H
  001b8	52		 push	 edx
  001b9	68 00 00 00 00	 push	 OFFSET ??_C@_0EN@PIOGLIPD@c?3?2users?2nhv90?2projects?2eech?2ap@
  001be	a1 00 00 00 00	 mov	 eax, DWORD PTR ?overload_invalid_int_type_message@@3PBDB ; overload_invalid_int_type_message
  001c3	50		 push	 eax
  001c4	e8 00 00 00 00	 call	 ?process_assert@@YGXPBD0H@Z ; process_assert
  001c9	c7 45 b4 00 00
	00 00		 mov	 DWORD PTR tv170[ebp], 0
$LN18@get_keysit:
  001d0	6a 6f		 push	 111			; 0000006fH
  001d2	8b 4d 08	 mov	 ecx, DWORD PTR _en$[ebp]
  001d5	51		 push	 ecx
  001d6	69 55 b8 5c 04
	00 00		 imul	 edx, DWORD PTR tv162[ebp], 1116
  001dd	8b 45 b4	 mov	 eax, DWORD PTR tv170[ebp]
  001e0	8b 8c 82 00 00
	00 00		 mov	 ecx, DWORD PTR ?fn_get_local_entity_int_value@@3PAY0BBH@P6GHPAUENTITY@@W4INT_TYPES@@@ZA[edx+eax*4]
  001e7	ff d1		 call	 ecx
  001e9	50		 push	 eax
  001ea	6b 55 fc 44	 imul	 edx, DWORD PTR _sub_type$[ebp], 68
  001ee	8b 82 04 00 00
	00		 mov	 eax, DWORD PTR ?keysite_database@@3PAUKEYSITE_DATA@@A[edx+4]
  001f4	50		 push	 eax
  001f5	68 00 00 00 00	 push	 OFFSET ??_C@_05DIALNFFA@?$CFs?5?$CFd@
  001fa	8b 4d 0c	 mov	 ecx, DWORD PTR _s$[ebp]
  001fd	51		 push	 ecx
  001fe	e8 00 00 00 00	 call	 _sprintf
  00203	83 c4 10	 add	 esp, 16			; 00000010H
$LN1@get_keysit:

; 1985 : 	}
; 1986 : }

  00206	5f		 pop	 edi
  00207	5e		 pop	 esi
  00208	5b		 pop	 ebx
  00209	8b e5		 mov	 esp, ebp
  0020b	5d		 pop	 ebp
  0020c	c2 08 00	 ret	 8
?get_keysite_entity_mfd_display_name@@YGXPAUENTITY@@PAD@Z ENDP ; get_keysite_entity_mfd_display_name
_TEXT	ENDS
; Function compile flags: /Odtp /ZI
; File c:\users\nhv90\projects\eech\aphavoc\source\entity\special\keysite\keysite.c
;	COMDAT ?play_keysite_under_attack_speech@@YGXPAUENTITY@@0@Z
_TEXT	SEGMENT
tv179 = -76						; size = 4
tv83 = -76						; size = 4
tv171 = -72						; size = 4
tv75 = -72						; size = 4
_pos$ = -4						; size = 4
_en$ = 8						; size = 4
_aggressor$ = 12					; size = 4
?play_keysite_under_attack_speech@@YGXPAUENTITY@@0@Z PROC ; play_keysite_under_attack_speech, COMDAT

; 1926 : {

  00000	55		 push	 ebp
  00001	8b ec		 mov	 ebp, esp
  00003	83 ec 4c	 sub	 esp, 76			; 0000004cH
  00006	53		 push	 ebx
  00007	56		 push	 esi
  00008	57		 push	 edi

; 1927 : 	vec3d
; 1928 : 		*pos;
; 1929 : 
; 1930 : 	ASSERT (get_comms_model () == COMMS_MODEL_SERVER);

  00009	83 3d 00 00 00
	00 00		 cmp	 DWORD PTR ?system_comms_model@@3W4COMMS_MODEL_TYPES@@A, 0 ; system_comms_model
  00010	74 18		 je	 SHORT $LN2@play_keysi
  00012	a1 00 00 00 00	 mov	 eax, DWORD PTR ?__LINE__Var@?0??play_keysite_under_attack_speech@@YGXPAUENTITY@@0@Z@4JA
  00017	83 c0 04	 add	 eax, 4
  0001a	50		 push	 eax
  0001b	68 00 00 00 00	 push	 OFFSET ??_C@_0EN@PIOGLIPD@c?3?2users?2nhv90?2projects?2eech?2ap@
  00020	68 00 00 00 00	 push	 OFFSET ??_C@_0CJ@DMBLBJBK@get_comms_model?5?$CI?$CJ?5?$DN?$DN?5COMMS_MOD@
  00025	e8 00 00 00 00	 call	 ?process_assert@@YGXPBD0H@Z ; process_assert
$LN2@play_keysi:

; 1931 : 
; 1932 : 	pos = get_local_entity_vec3d_ptr (en, VEC3D_TYPE_POSITION); 

  0002a	83 7d 08 00	 cmp	 DWORD PTR _en$[ebp], 0
  0002e	74 0a		 je	 SHORT $LN5@play_keysi
  00030	8b 45 08	 mov	 eax, DWORD PTR _en$[ebp]
  00033	8b 08		 mov	 ecx, DWORD PTR [eax]
  00035	89 4d b8	 mov	 DWORD PTR tv75[ebp], ecx
  00038	eb 21		 jmp	 SHORT $LN6@play_keysi
$LN5@play_keysi:
  0003a	8b 15 00 00 00
	00		 mov	 edx, DWORD PTR ?__LINE__Var@?0??play_keysite_under_attack_speech@@YGXPAUENTITY@@0@Z@4JA
  00040	83 c2 06	 add	 edx, 6
  00043	52		 push	 edx
  00044	68 00 00 00 00	 push	 OFFSET ??_C@_0EN@PIOGLIPD@c?3?2users?2nhv90?2projects?2eech?2ap@
  00049	a1 00 00 00 00	 mov	 eax, DWORD PTR ?null_entity_pointer_message@@3PBDB ; null_entity_pointer_message
  0004e	50		 push	 eax
  0004f	e8 00 00 00 00	 call	 ?process_assert@@YGXPBD0H@Z ; process_assert
  00054	c7 45 b8 00 00
	00 00		 mov	 DWORD PTR tv75[ebp], 0
$LN6@play_keysi:
  0005b	b9 01 00 00 00	 mov	 ecx, 1
  00060	85 c9		 test	 ecx, ecx
  00062	74 09		 je	 SHORT $LN7@play_keysi
  00064	c7 45 b4 08 00
	00 00		 mov	 DWORD PTR tv83[ebp], 8
  0006b	eb 21		 jmp	 SHORT $LN8@play_keysi
$LN7@play_keysi:
  0006d	8b 15 00 00 00
	00		 mov	 edx, DWORD PTR ?__LINE__Var@?0??play_keysite_under_attack_speech@@YGXPAUENTITY@@0@Z@4JA
  00073	83 c2 06	 add	 edx, 6
  00076	52		 push	 edx
  00077	68 00 00 00 00	 push	 OFFSET ??_C@_0EN@PIOGLIPD@c?3?2users?2nhv90?2projects?2eech?2ap@
  0007c	a1 00 00 00 00	 mov	 eax, DWORD PTR ?overload_invalid_vec3d_type_message@@3PBDB ; overload_invalid_vec3d_type_message
  00081	50		 push	 eax
  00082	e8 00 00 00 00	 call	 ?process_assert@@YGXPBD0H@Z ; process_assert
  00087	c7 45 b4 00 00
	00 00		 mov	 DWORD PTR tv83[ebp], 0
$LN8@play_keysi:
  0008e	6a 08		 push	 8
  00090	8b 4d 08	 mov	 ecx, DWORD PTR _en$[ebp]
  00093	51		 push	 ecx
  00094	6b 55 b8 60	 imul	 edx, DWORD PTR tv75[ebp], 96
  00098	8b 45 b4	 mov	 eax, DWORD PTR tv83[ebp]
  0009b	8b 8c 82 00 00
	00 00		 mov	 ecx, DWORD PTR ?fn_get_local_entity_vec3d_ptr@@3PAY0BI@P6GPAUVEC3D@@PAUENTITY@@W4VEC3D_TYPES@@@ZA[edx+eax*4]
  000a2	ff d1		 call	 ecx
  000a4	89 45 fc	 mov	 DWORD PTR _pos$[ebp], eax

; 1933 : 
; 1934 : 	ASSERT (pos);

  000a7	83 7d fc 00	 cmp	 DWORD PTR _pos$[ebp], 0
  000ab	75 18		 jne	 SHORT $LN3@play_keysi
  000ad	a1 00 00 00 00	 mov	 eax, DWORD PTR ?__LINE__Var@?0??play_keysite_under_attack_speech@@YGXPAUENTITY@@0@Z@4JA
  000b2	83 c0 08	 add	 eax, 8
  000b5	50		 push	 eax
  000b6	68 00 00 00 00	 push	 OFFSET ??_C@_0EN@PIOGLIPD@c?3?2users?2nhv90?2projects?2eech?2ap@
  000bb	68 00 00 00 00	 push	 OFFSET ??_C@_03PCBNCGFH@pos@
  000c0	e8 00 00 00 00	 call	 ?process_assert@@YGXPBD0H@Z ; process_assert
$LN3@play_keysi:

; 1935 : 
; 1936 : 	get_speech_sector_coordinates (pos);

  000c5	8b 45 fc	 mov	 eax, DWORD PTR _pos$[ebp]
  000c8	50		 push	 eax
  000c9	e8 00 00 00 00	 call	 ?get_speech_sector_coordinates@@YGPAHPAUVEC3D@@@Z ; get_speech_sector_coordinates

; 1937 : 
; 1938 : 	play_client_server_speech

  000ce	83 7d 08 00	 cmp	 DWORD PTR _en$[ebp], 0
  000d2	74 0a		 je	 SHORT $LN9@play_keysi
  000d4	8b 45 08	 mov	 eax, DWORD PTR _en$[ebp]
  000d7	8b 08		 mov	 ecx, DWORD PTR [eax]
  000d9	89 4d b8	 mov	 DWORD PTR tv171[ebp], ecx
  000dc	eb 21		 jmp	 SHORT $LN10@play_keysi
$LN9@play_keysi:
  000de	8b 15 00 00 00
	00		 mov	 edx, DWORD PTR ?__LINE__Var@?0??play_keysite_under_attack_speech@@YGXPAUENTITY@@0@Z@4JA
  000e4	83 c2 10	 add	 edx, 16			; 00000010H
  000e7	52		 push	 edx
  000e8	68 00 00 00 00	 push	 OFFSET ??_C@_0EN@PIOGLIPD@c?3?2users?2nhv90?2projects?2eech?2ap@
  000ed	a1 00 00 00 00	 mov	 eax, DWORD PTR ?null_entity_pointer_message@@3PBDB ; null_entity_pointer_message
  000f2	50		 push	 eax
  000f3	e8 00 00 00 00	 call	 ?process_assert@@YGXPBD0H@Z ; process_assert
  000f8	c7 45 b8 00 00
	00 00		 mov	 DWORD PTR tv171[ebp], 0
$LN10@play_keysi:
  000ff	b9 01 00 00 00	 mov	 ecx, 1
  00104	85 c9		 test	 ecx, ecx
  00106	74 09		 je	 SHORT $LN11@play_keysi
  00108	c7 45 b4 bb 00
	00 00		 mov	 DWORD PTR tv179[ebp], 187 ; 000000bbH
  0010f	eb 21		 jmp	 SHORT $LN12@play_keysi
$LN11@play_keysi:
  00111	8b 15 00 00 00
	00		 mov	 edx, DWORD PTR ?__LINE__Var@?0??play_keysite_under_attack_speech@@YGXPAUENTITY@@0@Z@4JA
  00117	83 c2 10	 add	 edx, 16			; 00000010H
  0011a	52		 push	 edx
  0011b	68 00 00 00 00	 push	 OFFSET ??_C@_0EN@PIOGLIPD@c?3?2users?2nhv90?2projects?2eech?2ap@
  00120	a1 00 00 00 00	 mov	 eax, DWORD PTR ?overload_invalid_int_type_message@@3PBDB ; overload_invalid_int_type_message
  00125	50		 push	 eax
  00126	e8 00 00 00 00	 call	 ?process_assert@@YGXPBD0H@Z ; process_assert
  0012b	c7 45 b4 00 00
	00 00		 mov	 DWORD PTR tv179[ebp], 0
$LN12@play_keysi:
  00132	6a ff		 push	 -1
  00134	b9 04 00 00 00	 mov	 ecx, 4
  00139	6b d1 05	 imul	 edx, ecx, 5
  0013c	8b 82 00 00 00
	00		 mov	 eax, DWORD PTR ?speech_sector_coordinates@@3PAHA[edx]
  00142	50		 push	 eax
  00143	6a 00		 push	 0
  00145	b9 04 00 00 00	 mov	 ecx, 4
  0014a	c1 e1 02	 shl	 ecx, 2
  0014d	8b 91 00 00 00
	00		 mov	 edx, DWORD PTR ?speech_sector_coordinates@@3PAHA[ecx]
  00153	52		 push	 edx
  00154	6a 00		 push	 0
  00156	b8 04 00 00 00	 mov	 eax, 4
  0015b	6b c8 03	 imul	 ecx, eax, 3
  0015e	8b 91 00 00 00
	00		 mov	 edx, DWORD PTR ?speech_sector_coordinates@@3PAHA[ecx]
  00164	52		 push	 edx
  00165	6a 00		 push	 0
  00167	b8 04 00 00 00	 mov	 eax, 4
  0016c	d1 e0		 shl	 eax, 1
  0016e	8b 88 00 00 00
	00		 mov	 ecx, DWORD PTR ?speech_sector_coordinates@@3PAHA[eax]
  00174	51		 push	 ecx
  00175	6a 00		 push	 0
  00177	ba 04 00 00 00	 mov	 edx, 4
  0017c	c1 e2 00	 shl	 edx, 0
  0017f	8b 82 00 00 00
	00		 mov	 eax, DWORD PTR ?speech_sector_coordinates@@3PAHA[edx]
  00185	50		 push	 eax
  00186	6a 00		 push	 0
  00188	b9 04 00 00 00	 mov	 ecx, 4
  0018d	6b d1 00	 imul	 edx, ecx, 0
  00190	8b 82 00 00 00
	00		 mov	 eax, DWORD PTR ?speech_sector_coordinates@@3PAHA[edx]
  00196	50		 push	 eax
  00197	6a 00		 push	 0
  00199	6a 05		 push	 5
  0019b	6a 06		 push	 6
  0019d	6a 00		 push	 0
  0019f	6a 06		 push	 6
  001a1	51		 push	 ecx
  001a2	f3 0f 10 05 00
	00 00 00	 movss	 xmm0, DWORD PTR __real@42340000
  001aa	f3 0f 11 04 24	 movss	 DWORD PTR [esp], xmm0
  001af	6a 11		 push	 17			; 00000011H
  001b1	6a 05		 push	 5
  001b3	51		 push	 ecx
  001b4	f3 0f 10 05 00
	00 00 00	 movss	 xmm0, DWORD PTR __real@41a00000
  001bc	f3 0f 11 04 24	 movss	 DWORD PTR [esp], xmm0
  001c1	51		 push	 ecx
  001c2	f3 0f 10 05 00
	00 00 00	 movss	 xmm0, DWORD PTR __real@3f800000
  001ca	f3 0f 11 04 24	 movss	 DWORD PTR [esp], xmm0
  001cf	51		 push	 ecx
  001d0	0f 57 c0	 xorps	 xmm0, xmm0
  001d3	f3 0f 11 04 24	 movss	 DWORD PTR [esp], xmm0
  001d8	6a 00		 push	 0
  001da	6a 1e		 push	 30			; 0000001eH
  001dc	68 bb 00 00 00	 push	 187			; 000000bbH
  001e1	8b 4d 08	 mov	 ecx, DWORD PTR _en$[ebp]
  001e4	51		 push	 ecx
  001e5	69 55 b8 5c 04
	00 00		 imul	 edx, DWORD PTR tv171[ebp], 1116
  001ec	8b 45 b4	 mov	 eax, DWORD PTR tv179[ebp]
  001ef	8b 8c 82 00 00
	00 00		 mov	 ecx, DWORD PTR ?fn_get_local_entity_int_value@@3PAY0BBH@P6GHPAUENTITY@@W4INT_TYPES@@@ZA[edx+eax*4]
  001f6	ff d1		 call	 ecx
  001f8	50		 push	 eax
  001f9	8b 55 08	 mov	 edx, DWORD PTR _en$[ebp]
  001fc	52		 push	 edx
  001fd	a1 00 00 00 00	 mov	 eax, DWORD PTR ?session_entity@@3PAUENTITY@@A ; session_entity
  00202	50		 push	 eax
  00203	e8 00 00 00 00	 call	 ?play_client_server_speech@@YAHPAUENTITY@@0W4ENTITY_SIDES@@HW4SOUND_LOCALITY_TYPES@@MMMW4speech_originator_types@@W4speech_category_types@@MZZ ; play_client_server_speech
  00208	83 c4 70	 add	 esp, 112		; 00000070H

; 1939 : 	(
; 1940 : 		get_session_entity (),
; 1941 : 		en,
; 1942 : 		(entity_sides) get_local_entity_int_value (en, INT_TYPE_SIDE),
; 1943 : 		ENTITY_SUB_TYPE_EFFECT_SOUND_RADIO_MESSAGE,
; 1944 : 		SOUND_LOCALITY_RADIO,
; 1945 : 		0.0,
; 1946 : 		1.0,
; 1947 : 		20.0,
; 1948 : 		SPEECH_ORIGINATOR_FORWARD_AIR_CONTROLLER,
; 1949 : 		SPEECH_CATEGORY_UNDER_ATTACK,
; 1950 : 		45.0,
; 1951 : 		SPEECH_ARRAY_FAC_MESSAGES, SPEECH_FAC_INTRODUCTION,
; 1952 : 		SPEECH_ARRAY_FAC_MESSAGES, SPEECH_FAC_BASE_UNDER_ATTACK,
; 1953 : 		SPEECH_ARRAY_NUMBERS, speech_sector_coordinates [0],
; 1954 : 		SPEECH_ARRAY_NUMBERS, speech_sector_coordinates [1],
; 1955 : 		SPEECH_ARRAY_NUMBERS, speech_sector_coordinates [2],
; 1956 : 		SPEECH_ARRAY_NUMBERS, speech_sector_coordinates [3],
; 1957 : 		SPEECH_ARRAY_NUMBERS, speech_sector_coordinates [4],
; 1958 : 		SPEECH_ARRAY_NUMBERS, speech_sector_coordinates [5],
; 1959 : 		-1
; 1960 : 	);
; 1961 : }

  0020b	5f		 pop	 edi
  0020c	5e		 pop	 esi
  0020d	5b		 pop	 ebx
  0020e	8b e5		 mov	 esp, ebp
  00210	5d		 pop	 ebp
  00211	c2 08 00	 ret	 8
?play_keysite_under_attack_speech@@YGXPAUENTITY@@0@Z ENDP ; play_keysite_under_attack_speech
_TEXT	ENDS
; Function compile flags: /Odtp /ZI
; File c:\users\nhv90\projects\eech\aphavoc\source\entity\special\keysite\keysite.c
;	COMDAT ?validate_keysite_landing_site_heights@@YGXPAUENTITY@@@Z
_TEXT	SEGMENT
tv282 = -108						; size = 4
tv274 = -104						; size = 4
tv405 = -100						; size = 8
tv324 = -100						; size = 4
tv304 = -100						; size = 4
tv258 = -100						; size = 4
tv211 = -100						; size = 4
tv190 = -100						; size = 4
tv171 = -100						; size = 4
tv142 = -100						; size = 4
tv90 = -100						; size = 4
tv316 = -96						; size = 4
tv296 = -96						; size = 4
tv250 = -96						; size = 4
tv203 = -96						; size = 4
tv183 = -96						; size = 4
tv163 = -96						; size = 4
tv134 = -96						; size = 4
tv82 = -96						; size = 4
tv70 = -96						; size = 4
_delta_height$ = -28					; size = 4
_terrain_elevation$ = -24				; size = 4
_waypoint_position$ = -20				; size = 4
_keysite_position$ = -16				; size = 4
_waypoint$ = -12					; size = 4
_task$ = -8						; size = 4
_landing$ = -4						; size = 4
_keysite$ = 8						; size = 4
?validate_keysite_landing_site_heights@@YGXPAUENTITY@@@Z PROC ; validate_keysite_landing_site_heights, COMDAT

; 1859 : {

  00000	55		 push	 ebp
  00001	8b ec		 mov	 ebp, esp
  00003	83 ec 6c	 sub	 esp, 108		; 0000006cH
  00006	53		 push	 ebx
  00007	56		 push	 esi
  00008	57		 push	 edi

; 1860 : 
; 1861 : 	entity
; 1862 : 		*landing,
; 1863 : 		*task,
; 1864 : 		*waypoint;
; 1865 : 
; 1866 : 	vec3d
; 1867 : 		*keysite_position,
; 1868 : 		*waypoint_position;
; 1869 : 
; 1870 : 	float
; 1871 : 		terrain_elevation,
; 1872 : 		delta_height;
; 1873 : 
; 1874 : 	ASSERT (get_local_entity_type (keysite) == ENTITY_TYPE_KEYSITE);

  00009	83 7d 08 00	 cmp	 DWORD PTR _keysite$[ebp], 0
  0000d	74 0a		 je	 SHORT $LN11@validate_k
  0000f	8b 45 08	 mov	 eax, DWORD PTR _keysite$[ebp]
  00012	8b 08		 mov	 ecx, DWORD PTR [eax]
  00014	89 4d a0	 mov	 DWORD PTR tv70[ebp], ecx
  00017	eb 21		 jmp	 SHORT $LN12@validate_k
$LN11@validate_k:
  00019	8b 15 00 00 00
	00		 mov	 edx, DWORD PTR ?__LINE__Var@?0??validate_keysite_landing_site_heights@@YGXPAUENTITY@@@Z@4JA
  0001f	83 c2 0f	 add	 edx, 15			; 0000000fH
  00022	52		 push	 edx
  00023	68 00 00 00 00	 push	 OFFSET ??_C@_0EN@PIOGLIPD@c?3?2users?2nhv90?2projects?2eech?2ap@
  00028	a1 00 00 00 00	 mov	 eax, DWORD PTR ?null_entity_pointer_message@@3PBDB ; null_entity_pointer_message
  0002d	50		 push	 eax
  0002e	e8 00 00 00 00	 call	 ?process_assert@@YGXPBD0H@Z ; process_assert
  00033	c7 45 a0 00 00
	00 00		 mov	 DWORD PTR tv70[ebp], 0
$LN12@validate_k:
  0003a	83 7d a0 0f	 cmp	 DWORD PTR tv70[ebp], 15	; 0000000fH
  0003e	74 18		 je	 SHORT $LN6@validate_k
  00040	a1 00 00 00 00	 mov	 eax, DWORD PTR ?__LINE__Var@?0??validate_keysite_landing_site_heights@@YGXPAUENTITY@@@Z@4JA
  00045	83 c0 0f	 add	 eax, 15			; 0000000fH
  00048	50		 push	 eax
  00049	68 00 00 00 00	 push	 OFFSET ??_C@_0EN@PIOGLIPD@c?3?2users?2nhv90?2projects?2eech?2ap@
  0004e	68 00 00 00 00	 push	 OFFSET ??_C@_0DH@KIHAKAGM@get_local_entity_type?5?$CIkeysite?$CJ@
  00053	e8 00 00 00 00	 call	 ?process_assert@@YGXPBD0H@Z ; process_assert
$LN6@validate_k:

; 1875 : 
; 1876 : 	keysite_position = get_local_entity_vec3d_ptr (keysite, VEC3D_TYPE_POSITION);

  00058	83 7d 08 00	 cmp	 DWORD PTR _keysite$[ebp], 0
  0005c	74 0a		 je	 SHORT $LN13@validate_k
  0005e	8b 45 08	 mov	 eax, DWORD PTR _keysite$[ebp]
  00061	8b 08		 mov	 ecx, DWORD PTR [eax]
  00063	89 4d a0	 mov	 DWORD PTR tv82[ebp], ecx
  00066	eb 21		 jmp	 SHORT $LN14@validate_k
$LN13@validate_k:
  00068	8b 15 00 00 00
	00		 mov	 edx, DWORD PTR ?__LINE__Var@?0??validate_keysite_landing_site_heights@@YGXPAUENTITY@@@Z@4JA
  0006e	83 c2 11	 add	 edx, 17			; 00000011H
  00071	52		 push	 edx
  00072	68 00 00 00 00	 push	 OFFSET ??_C@_0EN@PIOGLIPD@c?3?2users?2nhv90?2projects?2eech?2ap@
  00077	a1 00 00 00 00	 mov	 eax, DWORD PTR ?null_entity_pointer_message@@3PBDB ; null_entity_pointer_message
  0007c	50		 push	 eax
  0007d	e8 00 00 00 00	 call	 ?process_assert@@YGXPBD0H@Z ; process_assert
  00082	c7 45 a0 00 00
	00 00		 mov	 DWORD PTR tv82[ebp], 0
$LN14@validate_k:
  00089	b9 01 00 00 00	 mov	 ecx, 1
  0008e	85 c9		 test	 ecx, ecx
  00090	74 09		 je	 SHORT $LN15@validate_k
  00092	c7 45 9c 08 00
	00 00		 mov	 DWORD PTR tv90[ebp], 8
  00099	eb 21		 jmp	 SHORT $LN16@validate_k
$LN15@validate_k:
  0009b	8b 15 00 00 00
	00		 mov	 edx, DWORD PTR ?__LINE__Var@?0??validate_keysite_landing_site_heights@@YGXPAUENTITY@@@Z@4JA
  000a1	83 c2 11	 add	 edx, 17			; 00000011H
  000a4	52		 push	 edx
  000a5	68 00 00 00 00	 push	 OFFSET ??_C@_0EN@PIOGLIPD@c?3?2users?2nhv90?2projects?2eech?2ap@
  000aa	a1 00 00 00 00	 mov	 eax, DWORD PTR ?overload_invalid_vec3d_type_message@@3PBDB ; overload_invalid_vec3d_type_message
  000af	50		 push	 eax
  000b0	e8 00 00 00 00	 call	 ?process_assert@@YGXPBD0H@Z ; process_assert
  000b5	c7 45 9c 00 00
	00 00		 mov	 DWORD PTR tv90[ebp], 0
$LN16@validate_k:
  000bc	6a 08		 push	 8
  000be	8b 4d 08	 mov	 ecx, DWORD PTR _keysite$[ebp]
  000c1	51		 push	 ecx
  000c2	6b 55 a0 60	 imul	 edx, DWORD PTR tv82[ebp], 96
  000c6	8b 45 9c	 mov	 eax, DWORD PTR tv90[ebp]
  000c9	8b 8c 82 00 00
	00 00		 mov	 ecx, DWORD PTR ?fn_get_local_entity_vec3d_ptr@@3PAY0BI@P6GPAUVEC3D@@PAUENTITY@@W4VEC3D_TYPES@@@ZA[edx+eax*4]
  000d0	ff d1		 call	 ecx
  000d2	89 45 f0	 mov	 DWORD PTR _keysite_position$[ebp], eax

; 1877 : 
; 1878 : 	landing = get_local_entity_first_child (keysite, LIST_TYPE_LANDING_SITE);

  000d5	83 7d 08 00	 cmp	 DWORD PTR _keysite$[ebp], 0
  000d9	74 0a		 je	 SHORT $LN17@validate_k
  000db	8b 45 08	 mov	 eax, DWORD PTR _keysite$[ebp]
  000de	8b 08		 mov	 ecx, DWORD PTR [eax]
  000e0	89 4d a0	 mov	 DWORD PTR tv134[ebp], ecx
  000e3	eb 21		 jmp	 SHORT $LN18@validate_k
$LN17@validate_k:
  000e5	8b 15 00 00 00
	00		 mov	 edx, DWORD PTR ?__LINE__Var@?0??validate_keysite_landing_site_heights@@YGXPAUENTITY@@@Z@4JA
  000eb	83 c2 13	 add	 edx, 19			; 00000013H
  000ee	52		 push	 edx
  000ef	68 00 00 00 00	 push	 OFFSET ??_C@_0EN@PIOGLIPD@c?3?2users?2nhv90?2projects?2eech?2ap@
  000f4	a1 00 00 00 00	 mov	 eax, DWORD PTR ?null_entity_pointer_message@@3PBDB ; null_entity_pointer_message
  000f9	50		 push	 eax
  000fa	e8 00 00 00 00	 call	 ?process_assert@@YGXPBD0H@Z ; process_assert
  000ff	c7 45 a0 00 00
	00 00		 mov	 DWORD PTR tv134[ebp], 0
$LN18@validate_k:
  00106	b9 01 00 00 00	 mov	 ecx, 1
  0010b	85 c9		 test	 ecx, ecx
  0010d	74 09		 je	 SHORT $LN19@validate_k
  0010f	c7 45 9c 17 00
	00 00		 mov	 DWORD PTR tv142[ebp], 23 ; 00000017H
  00116	eb 21		 jmp	 SHORT $LN20@validate_k
$LN19@validate_k:
  00118	8b 15 00 00 00
	00		 mov	 edx, DWORD PTR ?__LINE__Var@?0??validate_keysite_landing_site_heights@@YGXPAUENTITY@@@Z@4JA
  0011e	83 c2 13	 add	 edx, 19			; 00000013H
  00121	52		 push	 edx
  00122	68 00 00 00 00	 push	 OFFSET ??_C@_0EN@PIOGLIPD@c?3?2users?2nhv90?2projects?2eech?2ap@
  00127	a1 00 00 00 00	 mov	 eax, DWORD PTR ?overload_invalid_list_type_message@@3PBDB ; overload_invalid_list_type_message
  0012c	50		 push	 eax
  0012d	e8 00 00 00 00	 call	 ?process_assert@@YGXPBD0H@Z ; process_assert
  00132	c7 45 9c 00 00
	00 00		 mov	 DWORD PTR tv142[ebp], 0
$LN20@validate_k:
  00139	6a 17		 push	 23			; 00000017H
  0013b	8b 4d 08	 mov	 ecx, DWORD PTR _keysite$[ebp]
  0013e	51		 push	 ecx
  0013f	69 55 a0 b4 00
	00 00		 imul	 edx, DWORD PTR tv134[ebp], 180
  00146	8b 45 9c	 mov	 eax, DWORD PTR tv142[ebp]
  00149	8b 8c 82 00 00
	00 00		 mov	 ecx, DWORD PTR ?fn_get_local_entity_first_child@@3PAY0CN@P6GPAUENTITY@@PAU1@W4LIST_TYPES@@@ZA[edx+eax*4]
  00150	ff d1		 call	 ecx
  00152	89 45 fc	 mov	 DWORD PTR _landing$[ebp], eax
$LN2@validate_k:

; 1879 : 
; 1880 : 	while (landing)

  00155	83 7d fc 00	 cmp	 DWORD PTR _landing$[ebp], 0
  00159	0f 84 71 04 00
	00		 je	 $LN3@validate_k

; 1881 : 	{
; 1882 : 
; 1883 : 		task = get_local_landing_entity_task (landing, ENTITY_SUB_TYPE_TASK_LANDING);

  0015f	6a 0d		 push	 13			; 0000000dH
  00161	8b 45 fc	 mov	 eax, DWORD PTR _landing$[ebp]
  00164	50		 push	 eax
  00165	e8 00 00 00 00	 call	 ?get_local_landing_entity_task@@YGPAUENTITY@@PAU1@H@Z ; get_local_landing_entity_task
  0016a	89 45 f8	 mov	 DWORD PTR _task$[ebp], eax

; 1884 : 
; 1885 : 		ASSERT (task);

  0016d	83 7d f8 00	 cmp	 DWORD PTR _task$[ebp], 0
  00171	75 18		 jne	 SHORT $LN7@validate_k
  00173	a1 00 00 00 00	 mov	 eax, DWORD PTR ?__LINE__Var@?0??validate_keysite_landing_site_heights@@YGXPAUENTITY@@@Z@4JA
  00178	83 c0 1a	 add	 eax, 26			; 0000001aH
  0017b	50		 push	 eax
  0017c	68 00 00 00 00	 push	 OFFSET ??_C@_0EN@PIOGLIPD@c?3?2users?2nhv90?2projects?2eech?2ap@
  00181	68 00 00 00 00	 push	 OFFSET ??_C@_04GGKLLKOO@task@
  00186	e8 00 00 00 00	 call	 ?process_assert@@YGXPBD0H@Z ; process_assert
$LN7@validate_k:

; 1886 : 	
; 1887 :   		waypoint = get_local_entity_first_child (task, LIST_TYPE_WAYPOINT);

  0018b	83 7d f8 00	 cmp	 DWORD PTR _task$[ebp], 0
  0018f	74 0a		 je	 SHORT $LN21@validate_k
  00191	8b 45 f8	 mov	 eax, DWORD PTR _task$[ebp]
  00194	8b 08		 mov	 ecx, DWORD PTR [eax]
  00196	89 4d a0	 mov	 DWORD PTR tv163[ebp], ecx
  00199	eb 21		 jmp	 SHORT $LN22@validate_k
$LN21@validate_k:
  0019b	8b 15 00 00 00
	00		 mov	 edx, DWORD PTR ?__LINE__Var@?0??validate_keysite_landing_site_heights@@YGXPAUENTITY@@@Z@4JA
  001a1	83 c2 1c	 add	 edx, 28			; 0000001cH
  001a4	52		 push	 edx
  001a5	68 00 00 00 00	 push	 OFFSET ??_C@_0EN@PIOGLIPD@c?3?2users?2nhv90?2projects?2eech?2ap@
  001aa	a1 00 00 00 00	 mov	 eax, DWORD PTR ?null_entity_pointer_message@@3PBDB ; null_entity_pointer_message
  001af	50		 push	 eax
  001b0	e8 00 00 00 00	 call	 ?process_assert@@YGXPBD0H@Z ; process_assert
  001b5	c7 45 a0 00 00
	00 00		 mov	 DWORD PTR tv163[ebp], 0
$LN22@validate_k:
  001bc	b9 01 00 00 00	 mov	 ecx, 1
  001c1	85 c9		 test	 ecx, ecx
  001c3	74 09		 je	 SHORT $LN23@validate_k
  001c5	c7 45 9c 2c 00
	00 00		 mov	 DWORD PTR tv171[ebp], 44 ; 0000002cH
  001cc	eb 21		 jmp	 SHORT $LN24@validate_k
$LN23@validate_k:
  001ce	8b 15 00 00 00
	00		 mov	 edx, DWORD PTR ?__LINE__Var@?0??validate_keysite_landing_site_heights@@YGXPAUENTITY@@@Z@4JA
  001d4	83 c2 1c	 add	 edx, 28			; 0000001cH
  001d7	52		 push	 edx
  001d8	68 00 00 00 00	 push	 OFFSET ??_C@_0EN@PIOGLIPD@c?3?2users?2nhv90?2projects?2eech?2ap@
  001dd	a1 00 00 00 00	 mov	 eax, DWORD PTR ?overload_invalid_list_type_message@@3PBDB ; overload_invalid_list_type_message
  001e2	50		 push	 eax
  001e3	e8 00 00 00 00	 call	 ?process_assert@@YGXPBD0H@Z ; process_assert
  001e8	c7 45 9c 00 00
	00 00		 mov	 DWORD PTR tv171[ebp], 0
$LN24@validate_k:
  001ef	6a 2c		 push	 44			; 0000002cH
  001f1	8b 4d f8	 mov	 ecx, DWORD PTR _task$[ebp]
  001f4	51		 push	 ecx
  001f5	69 55 a0 b4 00
	00 00		 imul	 edx, DWORD PTR tv163[ebp], 180
  001fc	8b 45 9c	 mov	 eax, DWORD PTR tv171[ebp]
  001ff	8b 8c 82 00 00
	00 00		 mov	 ecx, DWORD PTR ?fn_get_local_entity_first_child@@3PAY0CN@P6GPAUENTITY@@PAU1@W4LIST_TYPES@@@ZA[edx+eax*4]
  00206	ff d1		 call	 ecx
  00208	89 45 f4	 mov	 DWORD PTR _waypoint$[ebp], eax
$LN4@validate_k:

; 1888 : 
; 1889 : 		while (waypoint)

  0020b	83 7d f4 00	 cmp	 DWORD PTR _waypoint$[ebp], 0
  0020f	0f 84 36 03 00
	00		 je	 $LN5@validate_k

; 1890 : 		{
; 1891 : 
; 1892 : 			if (get_local_entity_int_value (waypoint, INT_TYPE_ENTITY_SUB_TYPE) == ENTITY_SUB_TYPE_WAYPOINT_LANDED)

  00215	83 7d f4 00	 cmp	 DWORD PTR _waypoint$[ebp], 0
  00219	74 0a		 je	 SHORT $LN25@validate_k
  0021b	8b 45 f4	 mov	 eax, DWORD PTR _waypoint$[ebp]
  0021e	8b 08		 mov	 ecx, DWORD PTR [eax]
  00220	89 4d a0	 mov	 DWORD PTR tv183[ebp], ecx
  00223	eb 1d		 jmp	 SHORT $LN26@validate_k
$LN25@validate_k:
  00225	68 64 07 00 00	 push	 1892			; 00000764H
  0022a	68 00 00 00 00	 push	 OFFSET ??_C@_0EN@PIOGLIPD@c?3?2users?2nhv90?2projects?2eech?2ap@
  0022f	8b 15 00 00 00
	00		 mov	 edx, DWORD PTR ?null_entity_pointer_message@@3PBDB ; null_entity_pointer_message
  00235	52		 push	 edx
  00236	e8 00 00 00 00	 call	 ?process_assert@@YGXPBD0H@Z ; process_assert
  0023b	c7 45 a0 00 00
	00 00		 mov	 DWORD PTR tv183[ebp], 0
$LN26@validate_k:
  00242	b8 01 00 00 00	 mov	 eax, 1
  00247	85 c0		 test	 eax, eax
  00249	74 09		 je	 SHORT $LN27@validate_k
  0024b	c7 45 9c 34 00
	00 00		 mov	 DWORD PTR tv190[ebp], 52 ; 00000034H
  00252	eb 1d		 jmp	 SHORT $LN28@validate_k
$LN27@validate_k:
  00254	68 64 07 00 00	 push	 1892			; 00000764H
  00259	68 00 00 00 00	 push	 OFFSET ??_C@_0EN@PIOGLIPD@c?3?2users?2nhv90?2projects?2eech?2ap@
  0025e	8b 0d 00 00 00
	00		 mov	 ecx, DWORD PTR ?overload_invalid_int_type_message@@3PBDB ; overload_invalid_int_type_message
  00264	51		 push	 ecx
  00265	e8 00 00 00 00	 call	 ?process_assert@@YGXPBD0H@Z ; process_assert
  0026a	c7 45 9c 00 00
	00 00		 mov	 DWORD PTR tv190[ebp], 0
$LN28@validate_k:
  00271	6a 34		 push	 52			; 00000034H
  00273	8b 55 f4	 mov	 edx, DWORD PTR _waypoint$[ebp]
  00276	52		 push	 edx
  00277	69 45 a0 5c 04
	00 00		 imul	 eax, DWORD PTR tv183[ebp], 1116
  0027e	8b 4d 9c	 mov	 ecx, DWORD PTR tv190[ebp]
  00281	8b 94 88 00 00
	00 00		 mov	 edx, DWORD PTR ?fn_get_local_entity_int_value@@3PAY0BBH@P6GHPAUENTITY@@W4INT_TYPES@@@ZA[eax+ecx*4]
  00288	ff d2		 call	 edx
  0028a	83 f8 0e	 cmp	 eax, 14			; 0000000eH
  0028d	0f 85 33 02 00
	00		 jne	 $LN9@validate_k

; 1893 : 			{
; 1894 : 
; 1895 : 				waypoint_position = get_local_entity_vec3d_ptr (waypoint, VEC3D_TYPE_POSITION);

  00293	83 7d f4 00	 cmp	 DWORD PTR _waypoint$[ebp], 0
  00297	74 0a		 je	 SHORT $LN29@validate_k
  00299	8b 45 f4	 mov	 eax, DWORD PTR _waypoint$[ebp]
  0029c	8b 08		 mov	 ecx, DWORD PTR [eax]
  0029e	89 4d a0	 mov	 DWORD PTR tv203[ebp], ecx
  002a1	eb 21		 jmp	 SHORT $LN30@validate_k
$LN29@validate_k:
  002a3	8b 15 00 00 00
	00		 mov	 edx, DWORD PTR ?__LINE__Var@?0??validate_keysite_landing_site_heights@@YGXPAUENTITY@@@Z@4JA
  002a9	83 c2 24	 add	 edx, 36			; 00000024H
  002ac	52		 push	 edx
  002ad	68 00 00 00 00	 push	 OFFSET ??_C@_0EN@PIOGLIPD@c?3?2users?2nhv90?2projects?2eech?2ap@
  002b2	a1 00 00 00 00	 mov	 eax, DWORD PTR ?null_entity_pointer_message@@3PBDB ; null_entity_pointer_message
  002b7	50		 push	 eax
  002b8	e8 00 00 00 00	 call	 ?process_assert@@YGXPBD0H@Z ; process_assert
  002bd	c7 45 a0 00 00
	00 00		 mov	 DWORD PTR tv203[ebp], 0
$LN30@validate_k:
  002c4	b9 01 00 00 00	 mov	 ecx, 1
  002c9	85 c9		 test	 ecx, ecx
  002cb	74 09		 je	 SHORT $LN31@validate_k
  002cd	c7 45 9c 08 00
	00 00		 mov	 DWORD PTR tv211[ebp], 8
  002d4	eb 21		 jmp	 SHORT $LN32@validate_k
$LN31@validate_k:
  002d6	8b 15 00 00 00
	00		 mov	 edx, DWORD PTR ?__LINE__Var@?0??validate_keysite_landing_site_heights@@YGXPAUENTITY@@@Z@4JA
  002dc	83 c2 24	 add	 edx, 36			; 00000024H
  002df	52		 push	 edx
  002e0	68 00 00 00 00	 push	 OFFSET ??_C@_0EN@PIOGLIPD@c?3?2users?2nhv90?2projects?2eech?2ap@
  002e5	a1 00 00 00 00	 mov	 eax, DWORD PTR ?overload_invalid_vec3d_type_message@@3PBDB ; overload_invalid_vec3d_type_message
  002ea	50		 push	 eax
  002eb	e8 00 00 00 00	 call	 ?process_assert@@YGXPBD0H@Z ; process_assert
  002f0	c7 45 9c 00 00
	00 00		 mov	 DWORD PTR tv211[ebp], 0
$LN32@validate_k:
  002f7	6a 08		 push	 8
  002f9	8b 4d f4	 mov	 ecx, DWORD PTR _waypoint$[ebp]
  002fc	51		 push	 ecx
  002fd	6b 55 a0 60	 imul	 edx, DWORD PTR tv203[ebp], 96
  00301	8b 45 9c	 mov	 eax, DWORD PTR tv211[ebp]
  00304	8b 8c 82 00 00
	00 00		 mov	 ecx, DWORD PTR ?fn_get_local_entity_vec3d_ptr@@3PAY0BI@P6GPAUVEC3D@@PAUENTITY@@W4VEC3D_TYPES@@@ZA[edx+eax*4]
  0030b	ff d1		 call	 ecx
  0030d	89 45 ec	 mov	 DWORD PTR _waypoint_position$[ebp], eax

; 1896 : 
; 1897 : 				terrain_elevation = get_3d_terrain_elevation (waypoint_position->x, waypoint_position->z);

  00310	6a 00		 push	 0
  00312	8b 45 ec	 mov	 eax, DWORD PTR _waypoint_position$[ebp]
  00315	f3 0f 10 40 08	 movss	 xmm0, DWORD PTR [eax+8]
  0031a	51		 push	 ecx
  0031b	f3 0f 11 04 24	 movss	 DWORD PTR [esp], xmm0
  00320	8b 4d ec	 mov	 ecx, DWORD PTR _waypoint_position$[ebp]
  00323	f3 0f 10 01	 movss	 xmm0, DWORD PTR [ecx]
  00327	51		 push	 ecx
  00328	f3 0f 11 04 24	 movss	 DWORD PTR [esp], xmm0
  0032d	e8 00 00 00 00	 call	 ?get_3d_terrain_point_data@@YGMMMPAUTERRAIN_3D_POINT_DATA@@@Z ; get_3d_terrain_point_data
  00332	d9 5d e8	 fstp	 DWORD PTR _terrain_elevation$[ebp]

; 1898 : 
; 1899 : 				delta_height = waypoint_position->y - terrain_elevation;

  00335	8b 45 ec	 mov	 eax, DWORD PTR _waypoint_position$[ebp]
  00338	f3 0f 10 40 04	 movss	 xmm0, DWORD PTR [eax+4]
  0033d	f3 0f 5c 45 e8	 subss	 xmm0, DWORD PTR _terrain_elevation$[ebp]
  00342	f3 0f 11 45 e4	 movss	 DWORD PTR _delta_height$[ebp], xmm0

; 1900 : 
; 1901 : 				if (fabs (delta_height) > KEYSITE_LANDING_SITE_TOLERANCE)

  00347	51		 push	 ecx
  00348	f3 0f 10 45 e4	 movss	 xmm0, DWORD PTR _delta_height$[ebp]
  0034d	f3 0f 11 04 24	 movss	 DWORD PTR [esp], xmm0
  00352	e8 00 00 00 00	 call	 ?fabs@@YGMM@Z		; fabs
  00357	dd 5d 9c	 fstp	 QWORD PTR tv405[ebp]
  0035a	f2 0f 10 45 9c	 movsd	 xmm0, QWORD PTR tv405[ebp]
  0035f	66 0f 2f 05 00
	00 00 00	 comisd	 xmm0, QWORD PTR __real@3fa999999999999a
  00367	0f 86 59 01 00
	00		 jbe	 $LN9@validate_k

; 1902 : 				{
; 1903 : 
; 1904 : 					debug_log ("KEYSITE: WARNING: keysite %s (%d) landing site %s %d waypoint %d outside of height tolerance (delta %f, waypoint- y = %f, terrain elevation %f)",

  0036d	83 7d fc 00	 cmp	 DWORD PTR _landing$[ebp], 0
  00371	74 0a		 je	 SHORT $LN33@validate_k
  00373	8b 45 fc	 mov	 eax, DWORD PTR _landing$[ebp]
  00376	8b 08		 mov	 ecx, DWORD PTR [eax]
  00378	89 4d a0	 mov	 DWORD PTR tv250[ebp], ecx
  0037b	eb 21		 jmp	 SHORT $LN34@validate_k
$LN33@validate_k:
  0037d	8b 15 00 00 00
	00		 mov	 edx, DWORD PTR ?__LINE__Var@?0??validate_keysite_landing_site_heights@@YGXPAUENTITY@@@Z@4JA
  00383	83 c2 2f	 add	 edx, 47			; 0000002fH
  00386	52		 push	 edx
  00387	68 00 00 00 00	 push	 OFFSET ??_C@_0EN@PIOGLIPD@c?3?2users?2nhv90?2projects?2eech?2ap@
  0038c	a1 00 00 00 00	 mov	 eax, DWORD PTR ?null_entity_pointer_message@@3PBDB ; null_entity_pointer_message
  00391	50		 push	 eax
  00392	e8 00 00 00 00	 call	 ?process_assert@@YGXPBD0H@Z ; process_assert
  00397	c7 45 a0 00 00
	00 00		 mov	 DWORD PTR tv250[ebp], 0
$LN34@validate_k:
  0039e	b9 01 00 00 00	 mov	 ecx, 1
  003a3	85 c9		 test	 ecx, ecx
  003a5	74 09		 je	 SHORT $LN35@validate_k
  003a7	c7 45 9c 03 00
	00 00		 mov	 DWORD PTR tv258[ebp], 3
  003ae	eb 21		 jmp	 SHORT $LN36@validate_k
$LN35@validate_k:
  003b0	8b 15 00 00 00
	00		 mov	 edx, DWORD PTR ?__LINE__Var@?0??validate_keysite_landing_site_heights@@YGXPAUENTITY@@@Z@4JA
  003b6	83 c2 2f	 add	 edx, 47			; 0000002fH
  003b9	52		 push	 edx
  003ba	68 00 00 00 00	 push	 OFFSET ??_C@_0EN@PIOGLIPD@c?3?2users?2nhv90?2projects?2eech?2ap@
  003bf	a1 00 00 00 00	 mov	 eax, DWORD PTR ?overload_invalid_string_type_message@@3PBDB ; overload_invalid_string_type_message
  003c4	50		 push	 eax
  003c5	e8 00 00 00 00	 call	 ?process_assert@@YGXPBD0H@Z ; process_assert
  003ca	c7 45 9c 00 00
	00 00		 mov	 DWORD PTR tv258[ebp], 0
$LN36@validate_k:
  003d1	83 7d 08 00	 cmp	 DWORD PTR _keysite$[ebp], 0
  003d5	74 0a		 je	 SHORT $LN37@validate_k
  003d7	8b 4d 08	 mov	 ecx, DWORD PTR _keysite$[ebp]
  003da	8b 11		 mov	 edx, DWORD PTR [ecx]
  003dc	89 55 98	 mov	 DWORD PTR tv274[ebp], edx
  003df	eb 21		 jmp	 SHORT $LN38@validate_k
$LN37@validate_k:
  003e1	a1 00 00 00 00	 mov	 eax, DWORD PTR ?__LINE__Var@?0??validate_keysite_landing_site_heights@@YGXPAUENTITY@@@Z@4JA
  003e6	83 c0 2e	 add	 eax, 46			; 0000002eH
  003e9	50		 push	 eax
  003ea	68 00 00 00 00	 push	 OFFSET ??_C@_0EN@PIOGLIPD@c?3?2users?2nhv90?2projects?2eech?2ap@
  003ef	8b 0d 00 00 00
	00		 mov	 ecx, DWORD PTR ?null_entity_pointer_message@@3PBDB ; null_entity_pointer_message
  003f5	51		 push	 ecx
  003f6	e8 00 00 00 00	 call	 ?process_assert@@YGXPBD0H@Z ; process_assert
  003fb	c7 45 98 00 00
	00 00		 mov	 DWORD PTR tv274[ebp], 0
$LN38@validate_k:
  00402	ba 01 00 00 00	 mov	 edx, 1
  00407	85 d2		 test	 edx, edx
  00409	74 09		 je	 SHORT $LN39@validate_k
  0040b	c7 45 94 07 00
	00 00		 mov	 DWORD PTR tv282[ebp], 7
  00412	eb 21		 jmp	 SHORT $LN40@validate_k
$LN39@validate_k:
  00414	a1 00 00 00 00	 mov	 eax, DWORD PTR ?__LINE__Var@?0??validate_keysite_landing_site_heights@@YGXPAUENTITY@@@Z@4JA
  00419	83 c0 2e	 add	 eax, 46			; 0000002eH
  0041c	50		 push	 eax
  0041d	68 00 00 00 00	 push	 OFFSET ??_C@_0EN@PIOGLIPD@c?3?2users?2nhv90?2projects?2eech?2ap@
  00422	8b 0d 00 00 00
	00		 mov	 ecx, DWORD PTR ?overload_invalid_string_type_message@@3PBDB ; overload_invalid_string_type_message
  00428	51		 push	 ecx
  00429	e8 00 00 00 00	 call	 ?process_assert@@YGXPBD0H@Z ; process_assert
  0042e	c7 45 94 00 00
	00 00		 mov	 DWORD PTR tv282[ebp], 0
$LN40@validate_k:
  00435	f3 0f 5a 45 e8	 cvtss2sd xmm0, DWORD PTR _terrain_elevation$[ebp]
  0043a	83 ec 08	 sub	 esp, 8
  0043d	f2 0f 11 04 24	 movsd	 QWORD PTR [esp], xmm0
  00442	8b 55 ec	 mov	 edx, DWORD PTR _waypoint_position$[ebp]
  00445	f3 0f 5a 42 04	 cvtss2sd xmm0, DWORD PTR [edx+4]
  0044a	83 ec 08	 sub	 esp, 8
  0044d	f2 0f 11 04 24	 movsd	 QWORD PTR [esp], xmm0
  00452	f3 0f 5a 45 e4	 cvtss2sd xmm0, DWORD PTR _delta_height$[ebp]
  00457	83 ec 08	 sub	 esp, 8
  0045a	f2 0f 11 04 24	 movsd	 QWORD PTR [esp], xmm0
  0045f	8b 45 f4	 mov	 eax, DWORD PTR _waypoint$[ebp]
  00462	2b 05 00 00 00
	00		 sub	 eax, DWORD PTR ?entities@@3PAUENTITY@@A ; entities
  00468	c1 f8 04	 sar	 eax, 4
  0046b	50		 push	 eax
  0046c	8b 4d fc	 mov	 ecx, DWORD PTR _landing$[ebp]
  0046f	2b 0d 00 00 00
	00		 sub	 ecx, DWORD PTR ?entities@@3PAUENTITY@@A ; entities
  00475	c1 f9 04	 sar	 ecx, 4
  00478	51		 push	 ecx
  00479	6a 03		 push	 3
  0047b	8b 55 fc	 mov	 edx, DWORD PTR _landing$[ebp]
  0047e	52		 push	 edx
  0047f	6b 45 a0 34	 imul	 eax, DWORD PTR tv250[ebp], 52
  00483	8b 4d 9c	 mov	 ecx, DWORD PTR tv258[ebp]
  00486	8b 94 88 00 00
	00 00		 mov	 edx, DWORD PTR ?fn_get_local_entity_string@@3PAY0N@P6GPBDPAUENTITY@@W4STRING_TYPES@@@ZA[eax+ecx*4]
  0048d	ff d2		 call	 edx
  0048f	50		 push	 eax
  00490	8b 45 08	 mov	 eax, DWORD PTR _keysite$[ebp]
  00493	2b 05 00 00 00
	00		 sub	 eax, DWORD PTR ?entities@@3PAUENTITY@@A ; entities
  00499	c1 f8 04	 sar	 eax, 4
  0049c	50		 push	 eax
  0049d	6a 07		 push	 7
  0049f	8b 4d 08	 mov	 ecx, DWORD PTR _keysite$[ebp]
  004a2	51		 push	 ecx
  004a3	6b 55 98 34	 imul	 edx, DWORD PTR tv274[ebp], 52
  004a7	8b 45 94	 mov	 eax, DWORD PTR tv282[ebp]
  004aa	8b 8c 82 00 00
	00 00		 mov	 ecx, DWORD PTR ?fn_get_local_entity_string@@3PAY0N@P6GPBDPAUENTITY@@W4STRING_TYPES@@@ZA[edx+eax*4]
  004b1	ff d1		 call	 ecx
  004b3	50		 push	 eax
  004b4	68 00 00 00 00	 push	 OFFSET ??_C@_0JA@DNHDIAOK@KEYSITE?3?5WARNING?3?5keysite?5?$CFs?5?$CI?$CF@
  004b9	e8 00 00 00 00	 call	 ?debug_log@@YAXPBDZZ	; debug_log
  004be	83 c4 30	 add	 esp, 48			; 00000030H

; 1905 : 									get_local_entity_string (keysite, STRING_TYPE_KEYSITE_NAME), get_local_entity_index (keysite),
; 1906 : 									get_local_entity_string (landing, STRING_TYPE_FULL_NAME), get_local_entity_index (landing),
; 1907 : 									get_local_entity_index (waypoint),
; 1908 : 									delta_height, waypoint_position->y, terrain_elevation);
; 1909 : 
; 1910 : 					break;

  004c1	e9 85 00 00 00	 jmp	 $LN5@validate_k
$LN9@validate_k:

; 1911 : 				}
; 1912 : 			}
; 1913 : 
; 1914 : 			waypoint = get_local_entity_child_succ (waypoint, LIST_TYPE_WAYPOINT);

  004c6	83 7d f4 00	 cmp	 DWORD PTR _waypoint$[ebp], 0
  004ca	74 0a		 je	 SHORT $LN41@validate_k
  004cc	8b 45 f4	 mov	 eax, DWORD PTR _waypoint$[ebp]
  004cf	8b 08		 mov	 ecx, DWORD PTR [eax]
  004d1	89 4d a0	 mov	 DWORD PTR tv296[ebp], ecx
  004d4	eb 21		 jmp	 SHORT $LN42@validate_k
$LN41@validate_k:
  004d6	8b 15 00 00 00
	00		 mov	 edx, DWORD PTR ?__LINE__Var@?0??validate_keysite_landing_site_heights@@YGXPAUENTITY@@@Z@4JA
  004dc	83 c2 37	 add	 edx, 55			; 00000037H
  004df	52		 push	 edx
  004e0	68 00 00 00 00	 push	 OFFSET ??_C@_0EN@PIOGLIPD@c?3?2users?2nhv90?2projects?2eech?2ap@
  004e5	a1 00 00 00 00	 mov	 eax, DWORD PTR ?null_entity_pointer_message@@3PBDB ; null_entity_pointer_message
  004ea	50		 push	 eax
  004eb	e8 00 00 00 00	 call	 ?process_assert@@YGXPBD0H@Z ; process_assert
  004f0	c7 45 a0 00 00
	00 00		 mov	 DWORD PTR tv296[ebp], 0
$LN42@validate_k:
  004f7	b9 01 00 00 00	 mov	 ecx, 1
  004fc	85 c9		 test	 ecx, ecx
  004fe	74 09		 je	 SHORT $LN43@validate_k
  00500	c7 45 9c 2c 00
	00 00		 mov	 DWORD PTR tv304[ebp], 44 ; 0000002cH
  00507	eb 21		 jmp	 SHORT $LN44@validate_k
$LN43@validate_k:
  00509	8b 15 00 00 00
	00		 mov	 edx, DWORD PTR ?__LINE__Var@?0??validate_keysite_landing_site_heights@@YGXPAUENTITY@@@Z@4JA
  0050f	83 c2 37	 add	 edx, 55			; 00000037H
  00512	52		 push	 edx
  00513	68 00 00 00 00	 push	 OFFSET ??_C@_0EN@PIOGLIPD@c?3?2users?2nhv90?2projects?2eech?2ap@
  00518	a1 00 00 00 00	 mov	 eax, DWORD PTR ?overload_invalid_list_type_message@@3PBDB ; overload_invalid_list_type_message
  0051d	50		 push	 eax
  0051e	e8 00 00 00 00	 call	 ?process_assert@@YGXPBD0H@Z ; process_assert
  00523	c7 45 9c 00 00
	00 00		 mov	 DWORD PTR tv304[ebp], 0
$LN44@validate_k:
  0052a	6a 2c		 push	 44			; 0000002cH
  0052c	8b 4d f4	 mov	 ecx, DWORD PTR _waypoint$[ebp]
  0052f	51		 push	 ecx
  00530	69 55 a0 b4 00
	00 00		 imul	 edx, DWORD PTR tv296[ebp], 180
  00537	8b 45 9c	 mov	 eax, DWORD PTR tv304[ebp]
  0053a	8b 8c 82 00 00
	00 00		 mov	 ecx, DWORD PTR ?fn_get_local_entity_child_succ@@3PAY0CN@P6GPAUENTITY@@PAU1@W4LIST_TYPES@@@ZA[edx+eax*4]
  00541	ff d1		 call	 ecx
  00543	89 45 f4	 mov	 DWORD PTR _waypoint$[ebp], eax

; 1915 : 		}

  00546	e9 c0 fc ff ff	 jmp	 $LN4@validate_k
$LN5@validate_k:

; 1916 : 
; 1917 : 		landing = get_local_entity_child_succ (landing, LIST_TYPE_LANDING_SITE);

  0054b	83 7d fc 00	 cmp	 DWORD PTR _landing$[ebp], 0
  0054f	74 0a		 je	 SHORT $LN45@validate_k
  00551	8b 45 fc	 mov	 eax, DWORD PTR _landing$[ebp]
  00554	8b 08		 mov	 ecx, DWORD PTR [eax]
  00556	89 4d a0	 mov	 DWORD PTR tv316[ebp], ecx
  00559	eb 21		 jmp	 SHORT $LN46@validate_k
$LN45@validate_k:
  0055b	8b 15 00 00 00
	00		 mov	 edx, DWORD PTR ?__LINE__Var@?0??validate_keysite_landing_site_heights@@YGXPAUENTITY@@@Z@4JA
  00561	83 c2 3a	 add	 edx, 58			; 0000003aH
  00564	52		 push	 edx
  00565	68 00 00 00 00	 push	 OFFSET ??_C@_0EN@PIOGLIPD@c?3?2users?2nhv90?2projects?2eech?2ap@
  0056a	a1 00 00 00 00	 mov	 eax, DWORD PTR ?null_entity_pointer_message@@3PBDB ; null_entity_pointer_message
  0056f	50		 push	 eax
  00570	e8 00 00 00 00	 call	 ?process_assert@@YGXPBD0H@Z ; process_assert
  00575	c7 45 a0 00 00
	00 00		 mov	 DWORD PTR tv316[ebp], 0
$LN46@validate_k:
  0057c	b9 01 00 00 00	 mov	 ecx, 1
  00581	85 c9		 test	 ecx, ecx
  00583	74 09		 je	 SHORT $LN47@validate_k
  00585	c7 45 9c 17 00
	00 00		 mov	 DWORD PTR tv324[ebp], 23 ; 00000017H
  0058c	eb 21		 jmp	 SHORT $LN48@validate_k
$LN47@validate_k:
  0058e	8b 15 00 00 00
	00		 mov	 edx, DWORD PTR ?__LINE__Var@?0??validate_keysite_landing_site_heights@@YGXPAUENTITY@@@Z@4JA
  00594	83 c2 3a	 add	 edx, 58			; 0000003aH
  00597	52		 push	 edx
  00598	68 00 00 00 00	 push	 OFFSET ??_C@_0EN@PIOGLIPD@c?3?2users?2nhv90?2projects?2eech?2ap@
  0059d	a1 00 00 00 00	 mov	 eax, DWORD PTR ?overload_invalid_list_type_message@@3PBDB ; overload_invalid_list_type_message
  005a2	50		 push	 eax
  005a3	e8 00 00 00 00	 call	 ?process_assert@@YGXPBD0H@Z ; process_assert
  005a8	c7 45 9c 00 00
	00 00		 mov	 DWORD PTR tv324[ebp], 0
$LN48@validate_k:
  005af	6a 17		 push	 23			; 00000017H
  005b1	8b 4d fc	 mov	 ecx, DWORD PTR _landing$[ebp]
  005b4	51		 push	 ecx
  005b5	69 55 a0 b4 00
	00 00		 imul	 edx, DWORD PTR tv316[ebp], 180
  005bc	8b 45 9c	 mov	 eax, DWORD PTR tv324[ebp]
  005bf	8b 8c 82 00 00
	00 00		 mov	 ecx, DWORD PTR ?fn_get_local_entity_child_succ@@3PAY0CN@P6GPAUENTITY@@PAU1@W4LIST_TYPES@@@ZA[edx+eax*4]
  005c6	ff d1		 call	 ecx
  005c8	89 45 fc	 mov	 DWORD PTR _landing$[ebp], eax

; 1918 : 	}

  005cb	e9 85 fb ff ff	 jmp	 $LN2@validate_k
$LN3@validate_k:

; 1919 : }

  005d0	5f		 pop	 edi
  005d1	5e		 pop	 esi
  005d2	5b		 pop	 ebx
  005d3	8b e5		 mov	 esp, ebp
  005d5	5d		 pop	 ebp
  005d6	c2 04 00	 ret	 4
?validate_keysite_landing_site_heights@@YGXPAUENTITY@@@Z ENDP ; validate_keysite_landing_site_heights
_TEXT	ENDS
; Function compile flags: /Odtp /ZI
; File c:\users\nhv90\projects\eech\aphavoc\source\entity\special\keysite\keysite.c
;	COMDAT ?dump_keysite_info@@YGXXZ
_TEXT	SEGMENT
tv334 = -164						; size = 4
tv326 = -160						; size = 4
tv403 = -156						; size = 4
tv313 = -156						; size = 4
tv395 = -152						; size = 4
tv305 = -152						; size = 4
tv380 = -148						; size = 4
tv289 = -148						; size = 4
tv372 = -144						; size = 4
tv281 = -144						; size = 4
tv522 = -140						; size = 4
tv502 = -140						; size = 4
tv482 = -140						; size = 4
tv460 = -140						; size = 4
tv435 = -140						; size = 4
tv357 = -140						; size = 4
tv268 = -140						; size = 4
tv245 = -140						; size = 4
tv224 = -140						; size = 4
tv205 = -140						; size = 4
tv186 = -140						; size = 4
tv162 = -140						; size = 4
tv92 = -140						; size = 4
tv514 = -136						; size = 4
tv494 = -136						; size = 4
tv474 = -136						; size = 4
tv452 = -136						; size = 4
tv427 = -136						; size = 4
tv349 = -136						; size = 4
tv260 = -136						; size = 4
tv237 = -136						; size = 4
tv217 = -136						; size = 4
tv198 = -136						; size = 4
tv178 = -136						; size = 4
tv154 = -136						; size = 4
tv84 = -136						; size = 4
_buffer$ = -68						; size = 32
_file_ptr$ = -36					; size = 4
_raw$ = -32						; size = 4
_force$ = -28						; size = 4
_ts$ = -24						; size = 4
_ks$ = -20						; size = 4
_seconds$ = -16						; size = 4
_minutes$ = -12						; size = 4
_hours$ = -8						; size = 4
_count$ = -4						; size = 4
?dump_keysite_info@@YGXXZ PROC				; dump_keysite_info, COMDAT

; 1716 : {

  00000	55		 push	 ebp
  00001	8b ec		 mov	 ebp, esp
  00003	81 ec a4 00 00
	00		 sub	 esp, 164		; 000000a4H
  00009	53		 push	 ebx
  0000a	56		 push	 esi
  0000b	57		 push	 edi

; 1717 : 
; 1718 : 	int
; 1719 : 		count;
; 1720 : 
; 1721 : 	float
; 1722 : 		hours,
; 1723 : 		minutes,
; 1724 : 		seconds;
; 1725 : 
; 1726 : 	entity
; 1727 : 		*ks,
; 1728 : //		*mb,
; 1729 : 		*ts,
; 1730 : 		*force;
; 1731 : 
; 1732 : 	session
; 1733 : 		*raw;
; 1734 : 
; 1735 : 	FILE
; 1736 : 		*file_ptr;
; 1737 : 
; 1738 : 	char
; 1739 : 		buffer [32];
; 1740 : 
; 1741 : 	count = 0;

  0000c	c7 45 fc 00 00
	00 00		 mov	 DWORD PTR _count$[ebp], 0

; 1742 : 
; 1743 : 	sprintf (buffer, "ks%d.txt", count);

  00013	8b 45 fc	 mov	 eax, DWORD PTR _count$[ebp]
  00016	50		 push	 eax
  00017	68 00 00 00 00	 push	 OFFSET ??_C@_08GAOCBKJI@ks?$CFd?4txt@
  0001c	8d 4d bc	 lea	 ecx, DWORD PTR _buffer$[ebp]
  0001f	51		 push	 ecx
  00020	e8 00 00 00 00	 call	 _sprintf
  00025	83 c4 0c	 add	 esp, 12			; 0000000cH
$LN2@dump_keysi:

; 1744 : 
; 1745 : 	while (file_exist (buffer))

  00028	8d 45 bc	 lea	 eax, DWORD PTR _buffer$[ebp]
  0002b	50		 push	 eax
  0002c	e8 00 00 00 00	 call	 ?file_exist@@YGHPBD@Z	; file_exist
  00031	85 c0		 test	 eax, eax
  00033	74 20		 je	 SHORT $LN3@dump_keysi

; 1746 : 	{
; 1747 : 
; 1748 : 		count ++;

  00035	8b 45 fc	 mov	 eax, DWORD PTR _count$[ebp]
  00038	83 c0 01	 add	 eax, 1
  0003b	89 45 fc	 mov	 DWORD PTR _count$[ebp], eax

; 1749 : 
; 1750 : 		sprintf (buffer, "ks%d.txt", count);

  0003e	8b 45 fc	 mov	 eax, DWORD PTR _count$[ebp]
  00041	50		 push	 eax
  00042	68 00 00 00 00	 push	 OFFSET ??_C@_08GAOCBKJI@ks?$CFd?4txt@
  00047	8d 4d bc	 lea	 ecx, DWORD PTR _buffer$[ebp]
  0004a	51		 push	 ecx
  0004b	e8 00 00 00 00	 call	 _sprintf
  00050	83 c4 0c	 add	 esp, 12			; 0000000cH

; 1751 : 	}

  00053	eb d3		 jmp	 SHORT $LN2@dump_keysi
$LN3@dump_keysi:

; 1752 : 
; 1753 : 	file_ptr = fopen (buffer, "w");

  00055	68 00 00 00 00	 push	 OFFSET ??_C@_01NOFIACDB@w@
  0005a	8d 45 bc	 lea	 eax, DWORD PTR _buffer$[ebp]
  0005d	50		 push	 eax
  0005e	ff 15 00 00 00
	00		 call	 DWORD PTR __imp__fopen
  00064	83 c4 08	 add	 esp, 8
  00067	89 45 dc	 mov	 DWORD PTR _file_ptr$[ebp], eax

; 1754 : 
; 1755 : 	if (!file_ptr)

  0006a	83 7d dc 00	 cmp	 DWORD PTR _file_ptr$[ebp], 0
  0006e	75 05		 jne	 SHORT $LN10@dump_keysi

; 1756 : 	{
; 1757 : 
; 1758 : 		return;

  00070	e9 a3 0b 00 00	 jmp	 $LN1@dump_keysi
$LN10@dump_keysi:

; 1759 : 	}
; 1760 : 
; 1761 : 	force = get_local_entity_first_child (get_session_entity (), LIST_TYPE_FORCE);

  00075	83 3d 00 00 00
	00 00		 cmp	 DWORD PTR ?session_entity@@3PAUENTITY@@A, 0 ; session_entity
  0007c	74 0f		 je	 SHORT $LN14@dump_keysi
  0007e	a1 00 00 00 00	 mov	 eax, DWORD PTR ?session_entity@@3PAUENTITY@@A ; session_entity
  00083	8b 08		 mov	 ecx, DWORD PTR [eax]
  00085	89 8d 78 ff ff
	ff		 mov	 DWORD PTR tv84[ebp], ecx
  0008b	eb 24		 jmp	 SHORT $LN15@dump_keysi
$LN14@dump_keysi:
  0008d	8b 15 00 00 00
	00		 mov	 edx, DWORD PTR ?__LINE__Var@?0??dump_keysite_info@@YGXXZ@4JA
  00093	83 c2 2d	 add	 edx, 45			; 0000002dH
  00096	52		 push	 edx
  00097	68 00 00 00 00	 push	 OFFSET ??_C@_0EN@PIOGLIPD@c?3?2users?2nhv90?2projects?2eech?2ap@
  0009c	a1 00 00 00 00	 mov	 eax, DWORD PTR ?null_entity_pointer_message@@3PBDB ; null_entity_pointer_message
  000a1	50		 push	 eax
  000a2	e8 00 00 00 00	 call	 ?process_assert@@YGXPBD0H@Z ; process_assert
  000a7	c7 85 78 ff ff
	ff 00 00 00 00	 mov	 DWORD PTR tv84[ebp], 0
$LN15@dump_keysi:
  000b1	b9 01 00 00 00	 mov	 ecx, 1
  000b6	85 c9		 test	 ecx, ecx
  000b8	74 0c		 je	 SHORT $LN16@dump_keysi
  000ba	c7 85 74 ff ff
	ff 0e 00 00 00	 mov	 DWORD PTR tv92[ebp], 14	; 0000000eH
  000c4	eb 24		 jmp	 SHORT $LN17@dump_keysi
$LN16@dump_keysi:
  000c6	8b 15 00 00 00
	00		 mov	 edx, DWORD PTR ?__LINE__Var@?0??dump_keysite_info@@YGXXZ@4JA
  000cc	83 c2 2d	 add	 edx, 45			; 0000002dH
  000cf	52		 push	 edx
  000d0	68 00 00 00 00	 push	 OFFSET ??_C@_0EN@PIOGLIPD@c?3?2users?2nhv90?2projects?2eech?2ap@
  000d5	a1 00 00 00 00	 mov	 eax, DWORD PTR ?overload_invalid_list_type_message@@3PBDB ; overload_invalid_list_type_message
  000da	50		 push	 eax
  000db	e8 00 00 00 00	 call	 ?process_assert@@YGXPBD0H@Z ; process_assert
  000e0	c7 85 74 ff ff
	ff 00 00 00 00	 mov	 DWORD PTR tv92[ebp], 0
$LN17@dump_keysi:
  000ea	6a 0e		 push	 14			; 0000000eH
  000ec	8b 0d 00 00 00
	00		 mov	 ecx, DWORD PTR ?session_entity@@3PAUENTITY@@A ; session_entity
  000f2	51		 push	 ecx
  000f3	69 95 78 ff ff
	ff b4 00 00 00	 imul	 edx, DWORD PTR tv84[ebp], 180
  000fd	8b 85 74 ff ff
	ff		 mov	 eax, DWORD PTR tv92[ebp]
  00103	8b 8c 82 00 00
	00 00		 mov	 ecx, DWORD PTR ?fn_get_local_entity_first_child@@3PAY0CN@P6GPAUENTITY@@PAU1@W4LIST_TYPES@@@ZA[edx+eax*4]
  0010a	ff d1		 call	 ecx
  0010c	89 45 e4	 mov	 DWORD PTR _force$[ebp], eax

; 1762 : 
; 1763 : 	raw = (session *) get_local_entity_data (get_session_entity ());

  0010f	a1 00 00 00 00	 mov	 eax, DWORD PTR ?session_entity@@3PAUENTITY@@A ; session_entity
  00114	8b 48 04	 mov	 ecx, DWORD PTR [eax+4]
  00117	89 4d e0	 mov	 DWORD PTR _raw$[ebp], ecx

; 1764 : 
; 1765 : 	get_digital_clock_values (raw->elapsed_time, &hours, &minutes, &seconds);

  0011a	8d 45 f0	 lea	 eax, DWORD PTR _seconds$[ebp]
  0011d	50		 push	 eax
  0011e	8d 4d f4	 lea	 ecx, DWORD PTR _minutes$[ebp]
  00121	51		 push	 ecx
  00122	8d 55 f8	 lea	 edx, DWORD PTR _hours$[ebp]
  00125	52		 push	 edx
  00126	8b 45 e0	 mov	 eax, DWORD PTR _raw$[ebp]
  00129	51		 push	 ecx
  0012a	f3 0f 10 40 1c	 movss	 xmm0, DWORD PTR [eax+28]
  0012f	f3 0f 11 04 24	 movss	 DWORD PTR [esp], xmm0
  00134	e8 00 00 00 00	 call	 ?get_digital_clock_values@@YGXMPAM00@Z ; get_digital_clock_values

; 1766 : 
; 1767 : 	fprintf (file_ptr, "SESSION: %02f:%02f:%02f\n", hours, minutes, seconds);

  00139	f3 0f 5a 45 f0	 cvtss2sd xmm0, DWORD PTR _seconds$[ebp]
  0013e	83 ec 08	 sub	 esp, 8
  00141	f2 0f 11 04 24	 movsd	 QWORD PTR [esp], xmm0
  00146	f3 0f 5a 45 f4	 cvtss2sd xmm0, DWORD PTR _minutes$[ebp]
  0014b	83 ec 08	 sub	 esp, 8
  0014e	f2 0f 11 04 24	 movsd	 QWORD PTR [esp], xmm0
  00153	f3 0f 5a 45 f8	 cvtss2sd xmm0, DWORD PTR _hours$[ebp]
  00158	83 ec 08	 sub	 esp, 8
  0015b	f2 0f 11 04 24	 movsd	 QWORD PTR [esp], xmm0
  00160	68 00 00 00 00	 push	 OFFSET ??_C@_0BJ@JDFCGDJO@SESSION?3?5?$CF02f?3?$CF02f?3?$CF02f?6@
  00165	8b 45 dc	 mov	 eax, DWORD PTR _file_ptr$[ebp]
  00168	50		 push	 eax
  00169	e8 00 00 00 00	 call	 _fprintf
  0016e	83 c4 20	 add	 esp, 32			; 00000020H
$LN4@dump_keysi:

; 1768 : 
; 1769 : 	while (force)

  00171	83 7d e4 00	 cmp	 DWORD PTR _force$[ebp], 0
  00175	0f 84 90 0a 00
	00		 je	 $LN5@dump_keysi

; 1770 : 	{
; 1771 : 
; 1772 : 		fprintf (file_ptr, "---------------------------------------------------------------------------------------------------------------------------\n");

  0017b	68 00 00 00 00	 push	 OFFSET ??_C@_0HN@HHAOOFJ@?9?9?9?9?9?9?9?9?9?9?9?9?9?9?9?9?9?9?9?9?9?9?9?9?9?9?9?9?9?9?9@
  00180	8b 45 dc	 mov	 eax, DWORD PTR _file_ptr$[ebp]
  00183	50		 push	 eax
  00184	e8 00 00 00 00	 call	 _fprintf
  00189	83 c4 08	 add	 esp, 8

; 1773 : 		fprintf (file_ptr, "FORCE %s\n", entity_side_names [get_local_entity_int_value (force, INT_TYPE_SIDE)]);

  0018c	83 7d e4 00	 cmp	 DWORD PTR _force$[ebp], 0
  00190	74 0d		 je	 SHORT $LN18@dump_keysi
  00192	8b 45 e4	 mov	 eax, DWORD PTR _force$[ebp]
  00195	8b 08		 mov	 ecx, DWORD PTR [eax]
  00197	89 8d 78 ff ff
	ff		 mov	 DWORD PTR tv154[ebp], ecx
  0019d	eb 24		 jmp	 SHORT $LN19@dump_keysi
$LN18@dump_keysi:
  0019f	8b 15 00 00 00
	00		 mov	 edx, DWORD PTR ?__LINE__Var@?0??dump_keysite_info@@YGXXZ@4JA
  001a5	83 c2 39	 add	 edx, 57			; 00000039H
  001a8	52		 push	 edx
  001a9	68 00 00 00 00	 push	 OFFSET ??_C@_0EN@PIOGLIPD@c?3?2users?2nhv90?2projects?2eech?2ap@
  001ae	a1 00 00 00 00	 mov	 eax, DWORD PTR ?null_entity_pointer_message@@3PBDB ; null_entity_pointer_message
  001b3	50		 push	 eax
  001b4	e8 00 00 00 00	 call	 ?process_assert@@YGXPBD0H@Z ; process_assert
  001b9	c7 85 78 ff ff
	ff 00 00 00 00	 mov	 DWORD PTR tv154[ebp], 0
$LN19@dump_keysi:
  001c3	b9 01 00 00 00	 mov	 ecx, 1
  001c8	85 c9		 test	 ecx, ecx
  001ca	74 0c		 je	 SHORT $LN20@dump_keysi
  001cc	c7 85 74 ff ff
	ff bb 00 00 00	 mov	 DWORD PTR tv162[ebp], 187 ; 000000bbH
  001d6	eb 24		 jmp	 SHORT $LN21@dump_keysi
$LN20@dump_keysi:
  001d8	8b 15 00 00 00
	00		 mov	 edx, DWORD PTR ?__LINE__Var@?0??dump_keysite_info@@YGXXZ@4JA
  001de	83 c2 39	 add	 edx, 57			; 00000039H
  001e1	52		 push	 edx
  001e2	68 00 00 00 00	 push	 OFFSET ??_C@_0EN@PIOGLIPD@c?3?2users?2nhv90?2projects?2eech?2ap@
  001e7	a1 00 00 00 00	 mov	 eax, DWORD PTR ?overload_invalid_int_type_message@@3PBDB ; overload_invalid_int_type_message
  001ec	50		 push	 eax
  001ed	e8 00 00 00 00	 call	 ?process_assert@@YGXPBD0H@Z ; process_assert
  001f2	c7 85 74 ff ff
	ff 00 00 00 00	 mov	 DWORD PTR tv162[ebp], 0
$LN21@dump_keysi:
  001fc	68 bb 00 00 00	 push	 187			; 000000bbH
  00201	8b 4d e4	 mov	 ecx, DWORD PTR _force$[ebp]
  00204	51		 push	 ecx
  00205	69 95 78 ff ff
	ff 5c 04 00 00	 imul	 edx, DWORD PTR tv154[ebp], 1116
  0020f	8b 85 74 ff ff
	ff		 mov	 eax, DWORD PTR tv162[ebp]
  00215	8b 8c 82 00 00
	00 00		 mov	 ecx, DWORD PTR ?fn_get_local_entity_int_value@@3PAY0BBH@P6GHPAUENTITY@@W4INT_TYPES@@@ZA[edx+eax*4]
  0021c	ff d1		 call	 ecx
  0021e	8b 14 85 00 00
	00 00		 mov	 edx, DWORD PTR ?entity_side_names@@3PAPBDA[eax*4]
  00225	52		 push	 edx
  00226	68 00 00 00 00	 push	 OFFSET ??_C@_09EJPKGCLD@FORCE?5?$CFs?6@
  0022b	8b 45 dc	 mov	 eax, DWORD PTR _file_ptr$[ebp]
  0022e	50		 push	 eax
  0022f	e8 00 00 00 00	 call	 _fprintf
  00234	83 c4 0c	 add	 esp, 12			; 0000000cH

; 1774 : 
; 1775 : 		ks = get_local_entity_first_child (force, LIST_TYPE_KEYSITE_FORCE);

  00237	83 7d e4 00	 cmp	 DWORD PTR _force$[ebp], 0
  0023b	74 0d		 je	 SHORT $LN22@dump_keysi
  0023d	8b 45 e4	 mov	 eax, DWORD PTR _force$[ebp]
  00240	8b 08		 mov	 ecx, DWORD PTR [eax]
  00242	89 8d 78 ff ff
	ff		 mov	 DWORD PTR tv178[ebp], ecx
  00248	eb 24		 jmp	 SHORT $LN23@dump_keysi
$LN22@dump_keysi:
  0024a	8b 15 00 00 00
	00		 mov	 edx, DWORD PTR ?__LINE__Var@?0??dump_keysite_info@@YGXXZ@4JA
  00250	83 c2 3b	 add	 edx, 59			; 0000003bH
  00253	52		 push	 edx
  00254	68 00 00 00 00	 push	 OFFSET ??_C@_0EN@PIOGLIPD@c?3?2users?2nhv90?2projects?2eech?2ap@
  00259	a1 00 00 00 00	 mov	 eax, DWORD PTR ?null_entity_pointer_message@@3PBDB ; null_entity_pointer_message
  0025e	50		 push	 eax
  0025f	e8 00 00 00 00	 call	 ?process_assert@@YGXPBD0H@Z ; process_assert
  00264	c7 85 78 ff ff
	ff 00 00 00 00	 mov	 DWORD PTR tv178[ebp], 0
$LN23@dump_keysi:
  0026e	b9 01 00 00 00	 mov	 ecx, 1
  00273	85 c9		 test	 ecx, ecx
  00275	74 0c		 je	 SHORT $LN24@dump_keysi
  00277	c7 85 74 ff ff
	ff 15 00 00 00	 mov	 DWORD PTR tv186[ebp], 21 ; 00000015H
  00281	eb 24		 jmp	 SHORT $LN25@dump_keysi
$LN24@dump_keysi:
  00283	8b 15 00 00 00
	00		 mov	 edx, DWORD PTR ?__LINE__Var@?0??dump_keysite_info@@YGXXZ@4JA
  00289	83 c2 3b	 add	 edx, 59			; 0000003bH
  0028c	52		 push	 edx
  0028d	68 00 00 00 00	 push	 OFFSET ??_C@_0EN@PIOGLIPD@c?3?2users?2nhv90?2projects?2eech?2ap@
  00292	a1 00 00 00 00	 mov	 eax, DWORD PTR ?overload_invalid_list_type_message@@3PBDB ; overload_invalid_list_type_message
  00297	50		 push	 eax
  00298	e8 00 00 00 00	 call	 ?process_assert@@YGXPBD0H@Z ; process_assert
  0029d	c7 85 74 ff ff
	ff 00 00 00 00	 mov	 DWORD PTR tv186[ebp], 0
$LN25@dump_keysi:
  002a7	6a 15		 push	 21			; 00000015H
  002a9	8b 4d e4	 mov	 ecx, DWORD PTR _force$[ebp]
  002ac	51		 push	 ecx
  002ad	69 95 78 ff ff
	ff b4 00 00 00	 imul	 edx, DWORD PTR tv178[ebp], 180
  002b7	8b 85 74 ff ff
	ff		 mov	 eax, DWORD PTR tv186[ebp]
  002bd	8b 8c 82 00 00
	00 00		 mov	 ecx, DWORD PTR ?fn_get_local_entity_first_child@@3PAY0CN@P6GPAUENTITY@@PAU1@W4LIST_TYPES@@@ZA[edx+eax*4]
  002c4	ff d1		 call	 ecx
  002c6	89 45 ec	 mov	 DWORD PTR _ks$[ebp], eax
$LN86@dump_keysi:

; 1776 : 
; 1777 : 		while (ks)

  002c9	83 7d ec 00	 cmp	 DWORD PTR _ks$[ebp], 0
  002cd	0f 84 9b 08 00
	00		 je	 $LN7@dump_keysi

; 1778 : 		{
; 1779 : 
; 1780 : 			if ((!get_local_entity_int_value (ks, INT_TYPE_IN_USE)) || (!get_local_entity_int_value (ks, INT_TYPE_ALIVE)))

  002d3	83 7d ec 00	 cmp	 DWORD PTR _ks$[ebp], 0
  002d7	74 0d		 je	 SHORT $LN26@dump_keysi
  002d9	8b 45 ec	 mov	 eax, DWORD PTR _ks$[ebp]
  002dc	8b 08		 mov	 ecx, DWORD PTR [eax]
  002de	89 8d 78 ff ff
	ff		 mov	 DWORD PTR tv198[ebp], ecx
  002e4	eb 20		 jmp	 SHORT $LN27@dump_keysi
$LN26@dump_keysi:
  002e6	68 f4 06 00 00	 push	 1780			; 000006f4H
  002eb	68 00 00 00 00	 push	 OFFSET ??_C@_0EN@PIOGLIPD@c?3?2users?2nhv90?2projects?2eech?2ap@
  002f0	8b 15 00 00 00
	00		 mov	 edx, DWORD PTR ?null_entity_pointer_message@@3PBDB ; null_entity_pointer_message
  002f6	52		 push	 edx
  002f7	e8 00 00 00 00	 call	 ?process_assert@@YGXPBD0H@Z ; process_assert
  002fc	c7 85 78 ff ff
	ff 00 00 00 00	 mov	 DWORD PTR tv198[ebp], 0
$LN27@dump_keysi:
  00306	b8 01 00 00 00	 mov	 eax, 1
  0030b	85 c0		 test	 eax, eax
  0030d	74 0c		 je	 SHORT $LN28@dump_keysi
  0030f	c7 85 74 ff ff
	ff 6d 00 00 00	 mov	 DWORD PTR tv205[ebp], 109 ; 0000006dH
  00319	eb 20		 jmp	 SHORT $LN29@dump_keysi
$LN28@dump_keysi:
  0031b	68 f4 06 00 00	 push	 1780			; 000006f4H
  00320	68 00 00 00 00	 push	 OFFSET ??_C@_0EN@PIOGLIPD@c?3?2users?2nhv90?2projects?2eech?2ap@
  00325	8b 0d 00 00 00
	00		 mov	 ecx, DWORD PTR ?overload_invalid_int_type_message@@3PBDB ; overload_invalid_int_type_message
  0032b	51		 push	 ecx
  0032c	e8 00 00 00 00	 call	 ?process_assert@@YGXPBD0H@Z ; process_assert
  00331	c7 85 74 ff ff
	ff 00 00 00 00	 mov	 DWORD PTR tv205[ebp], 0
$LN29@dump_keysi:
  0033b	6a 6d		 push	 109			; 0000006dH
  0033d	8b 55 ec	 mov	 edx, DWORD PTR _ks$[ebp]
  00340	52		 push	 edx
  00341	69 85 78 ff ff
	ff 5c 04 00 00	 imul	 eax, DWORD PTR tv198[ebp], 1116
  0034b	8b 8d 74 ff ff
	ff		 mov	 ecx, DWORD PTR tv205[ebp]
  00351	8b 94 88 00 00
	00 00		 mov	 edx, DWORD PTR ?fn_get_local_entity_int_value@@3PAY0BBH@P6GHPAUENTITY@@W4INT_TYPES@@@ZA[eax+ecx*4]
  00358	ff d2		 call	 edx
  0035a	85 c0		 test	 eax, eax
  0035c	0f 84 8f 00 00
	00		 je	 $LN12@dump_keysi
  00362	83 7d ec 00	 cmp	 DWORD PTR _ks$[ebp], 0
  00366	74 0d		 je	 SHORT $LN30@dump_keysi
  00368	8b 45 ec	 mov	 eax, DWORD PTR _ks$[ebp]
  0036b	8b 08		 mov	 ecx, DWORD PTR [eax]
  0036d	89 8d 78 ff ff
	ff		 mov	 DWORD PTR tv217[ebp], ecx
  00373	eb 20		 jmp	 SHORT $LN31@dump_keysi
$LN30@dump_keysi:
  00375	68 f4 06 00 00	 push	 1780			; 000006f4H
  0037a	68 00 00 00 00	 push	 OFFSET ??_C@_0EN@PIOGLIPD@c?3?2users?2nhv90?2projects?2eech?2ap@
  0037f	8b 15 00 00 00
	00		 mov	 edx, DWORD PTR ?null_entity_pointer_message@@3PBDB ; null_entity_pointer_message
  00385	52		 push	 edx
  00386	e8 00 00 00 00	 call	 ?process_assert@@YGXPBD0H@Z ; process_assert
  0038b	c7 85 78 ff ff
	ff 00 00 00 00	 mov	 DWORD PTR tv217[ebp], 0
$LN31@dump_keysi:
  00395	b8 01 00 00 00	 mov	 eax, 1
  0039a	85 c0		 test	 eax, eax
  0039c	74 0c		 je	 SHORT $LN32@dump_keysi
  0039e	c7 85 74 ff ff
	ff 07 00 00 00	 mov	 DWORD PTR tv224[ebp], 7
  003a8	eb 20		 jmp	 SHORT $LN33@dump_keysi
$LN32@dump_keysi:
  003aa	68 f4 06 00 00	 push	 1780			; 000006f4H
  003af	68 00 00 00 00	 push	 OFFSET ??_C@_0EN@PIOGLIPD@c?3?2users?2nhv90?2projects?2eech?2ap@
  003b4	8b 0d 00 00 00
	00		 mov	 ecx, DWORD PTR ?overload_invalid_int_type_message@@3PBDB ; overload_invalid_int_type_message
  003ba	51		 push	 ecx
  003bb	e8 00 00 00 00	 call	 ?process_assert@@YGXPBD0H@Z ; process_assert
  003c0	c7 85 74 ff ff
	ff 00 00 00 00	 mov	 DWORD PTR tv224[ebp], 0
$LN33@dump_keysi:
  003ca	6a 07		 push	 7
  003cc	8b 55 ec	 mov	 edx, DWORD PTR _ks$[ebp]
  003cf	52		 push	 edx
  003d0	69 85 78 ff ff
	ff 5c 04 00 00	 imul	 eax, DWORD PTR tv217[ebp], 1116
  003da	8b 8d 74 ff ff
	ff		 mov	 ecx, DWORD PTR tv224[ebp]
  003e0	8b 94 88 00 00
	00 00		 mov	 edx, DWORD PTR ?fn_get_local_entity_int_value@@3PAY0BBH@P6GHPAUENTITY@@W4INT_TYPES@@@ZA[eax+ecx*4]
  003e7	ff d2		 call	 edx
  003e9	85 c0		 test	 eax, eax
  003eb	0f 85 97 00 00
	00		 jne	 $LN11@dump_keysi
$LN12@dump_keysi:

; 1781 : 			{
; 1782 : 
; 1783 : 				ks = get_local_entity_child_succ (ks, LIST_TYPE_KEYSITE_FORCE);

  003f1	83 7d ec 00	 cmp	 DWORD PTR _ks$[ebp], 0
  003f5	74 0d		 je	 SHORT $LN34@dump_keysi
  003f7	8b 45 ec	 mov	 eax, DWORD PTR _ks$[ebp]
  003fa	8b 08		 mov	 ecx, DWORD PTR [eax]
  003fc	89 8d 78 ff ff
	ff		 mov	 DWORD PTR tv237[ebp], ecx
  00402	eb 24		 jmp	 SHORT $LN35@dump_keysi
$LN34@dump_keysi:
  00404	8b 15 00 00 00
	00		 mov	 edx, DWORD PTR ?__LINE__Var@?0??dump_keysite_info@@YGXXZ@4JA
  0040a	83 c2 43	 add	 edx, 67			; 00000043H
  0040d	52		 push	 edx
  0040e	68 00 00 00 00	 push	 OFFSET ??_C@_0EN@PIOGLIPD@c?3?2users?2nhv90?2projects?2eech?2ap@
  00413	a1 00 00 00 00	 mov	 eax, DWORD PTR ?null_entity_pointer_message@@3PBDB ; null_entity_pointer_message
  00418	50		 push	 eax
  00419	e8 00 00 00 00	 call	 ?process_assert@@YGXPBD0H@Z ; process_assert
  0041e	c7 85 78 ff ff
	ff 00 00 00 00	 mov	 DWORD PTR tv237[ebp], 0
$LN35@dump_keysi:
  00428	b9 01 00 00 00	 mov	 ecx, 1
  0042d	85 c9		 test	 ecx, ecx
  0042f	74 0c		 je	 SHORT $LN36@dump_keysi
  00431	c7 85 74 ff ff
	ff 15 00 00 00	 mov	 DWORD PTR tv245[ebp], 21 ; 00000015H
  0043b	eb 24		 jmp	 SHORT $LN37@dump_keysi
$LN36@dump_keysi:
  0043d	8b 15 00 00 00
	00		 mov	 edx, DWORD PTR ?__LINE__Var@?0??dump_keysite_info@@YGXXZ@4JA
  00443	83 c2 43	 add	 edx, 67			; 00000043H
  00446	52		 push	 edx
  00447	68 00 00 00 00	 push	 OFFSET ??_C@_0EN@PIOGLIPD@c?3?2users?2nhv90?2projects?2eech?2ap@
  0044c	a1 00 00 00 00	 mov	 eax, DWORD PTR ?overload_invalid_list_type_message@@3PBDB ; overload_invalid_list_type_message
  00451	50		 push	 eax
  00452	e8 00 00 00 00	 call	 ?process_assert@@YGXPBD0H@Z ; process_assert
  00457	c7 85 74 ff ff
	ff 00 00 00 00	 mov	 DWORD PTR tv245[ebp], 0
$LN37@dump_keysi:
  00461	6a 15		 push	 21			; 00000015H
  00463	8b 4d ec	 mov	 ecx, DWORD PTR _ks$[ebp]
  00466	51		 push	 ecx
  00467	69 95 78 ff ff
	ff b4 00 00 00	 imul	 edx, DWORD PTR tv237[ebp], 180
  00471	8b 85 74 ff ff
	ff		 mov	 eax, DWORD PTR tv245[ebp]
  00477	8b 8c 82 00 00
	00 00		 mov	 ecx, DWORD PTR ?fn_get_local_entity_child_succ@@3PAY0CN@P6GPAUENTITY@@PAU1@W4LIST_TYPES@@@ZA[edx+eax*4]
  0047e	ff d1		 call	 ecx
  00480	89 45 ec	 mov	 DWORD PTR _ks$[ebp], eax

; 1784 : 
; 1785 : 				continue;

  00483	e9 41 fe ff ff	 jmp	 $LN86@dump_keysi
$LN11@dump_keysi:

; 1786 : 			}
; 1787 : 
; 1788 : 			fprintf (file_ptr, "    --------------------------------------------------------------------------------------\n");

  00488	68 00 00 00 00	 push	 OFFSET ??_C@_0FM@GLPLHDIC@?5?5?5?5?9?9?9?9?9?9?9?9?9?9?9?9?9?9?9?9?9?9?9?9?9?9?9?9?9?9?9@
  0048d	8b 45 dc	 mov	 eax, DWORD PTR _file_ptr$[ebp]
  00490	50		 push	 eax
  00491	e8 00 00 00 00	 call	 _fprintf
  00496	83 c4 08	 add	 esp, 8

; 1789 : 
; 1790 : 			fprintf (file_ptr, "    Keysite %s %s (%d). In use %d, Alive %d\n",

  00499	83 7d ec 00	 cmp	 DWORD PTR _ks$[ebp], 0
  0049d	74 0d		 je	 SHORT $LN38@dump_keysi
  0049f	8b 45 ec	 mov	 eax, DWORD PTR _ks$[ebp]
  004a2	8b 08		 mov	 ecx, DWORD PTR [eax]
  004a4	89 8d 78 ff ff
	ff		 mov	 DWORD PTR tv260[ebp], ecx
  004aa	eb 24		 jmp	 SHORT $LN39@dump_keysi
$LN38@dump_keysi:
  004ac	8b 15 00 00 00
	00		 mov	 edx, DWORD PTR ?__LINE__Var@?0??dump_keysite_info@@YGXXZ@4JA
  004b2	83 c2 4f	 add	 edx, 79			; 0000004fH
  004b5	52		 push	 edx
  004b6	68 00 00 00 00	 push	 OFFSET ??_C@_0EN@PIOGLIPD@c?3?2users?2nhv90?2projects?2eech?2ap@
  004bb	a1 00 00 00 00	 mov	 eax, DWORD PTR ?null_entity_pointer_message@@3PBDB ; null_entity_pointer_message
  004c0	50		 push	 eax
  004c1	e8 00 00 00 00	 call	 ?process_assert@@YGXPBD0H@Z ; process_assert
  004c6	c7 85 78 ff ff
	ff 00 00 00 00	 mov	 DWORD PTR tv260[ebp], 0
$LN39@dump_keysi:
  004d0	b9 01 00 00 00	 mov	 ecx, 1
  004d5	85 c9		 test	 ecx, ecx
  004d7	74 0c		 je	 SHORT $LN40@dump_keysi
  004d9	c7 85 74 ff ff
	ff 07 00 00 00	 mov	 DWORD PTR tv268[ebp], 7
  004e3	eb 24		 jmp	 SHORT $LN41@dump_keysi
$LN40@dump_keysi:
  004e5	8b 15 00 00 00
	00		 mov	 edx, DWORD PTR ?__LINE__Var@?0??dump_keysite_info@@YGXXZ@4JA
  004eb	83 c2 4f	 add	 edx, 79			; 0000004fH
  004ee	52		 push	 edx
  004ef	68 00 00 00 00	 push	 OFFSET ??_C@_0EN@PIOGLIPD@c?3?2users?2nhv90?2projects?2eech?2ap@
  004f4	a1 00 00 00 00	 mov	 eax, DWORD PTR ?overload_invalid_int_type_message@@3PBDB ; overload_invalid_int_type_message
  004f9	50		 push	 eax
  004fa	e8 00 00 00 00	 call	 ?process_assert@@YGXPBD0H@Z ; process_assert
  004ff	c7 85 74 ff ff
	ff 00 00 00 00	 mov	 DWORD PTR tv268[ebp], 0
$LN41@dump_keysi:
  00509	83 7d ec 00	 cmp	 DWORD PTR _ks$[ebp], 0
  0050d	74 0d		 je	 SHORT $LN42@dump_keysi
  0050f	8b 4d ec	 mov	 ecx, DWORD PTR _ks$[ebp]
  00512	8b 11		 mov	 edx, DWORD PTR [ecx]
  00514	89 95 70 ff ff
	ff		 mov	 DWORD PTR tv281[ebp], edx
  0051a	eb 24		 jmp	 SHORT $LN43@dump_keysi
$LN42@dump_keysi:
  0051c	a1 00 00 00 00	 mov	 eax, DWORD PTR ?__LINE__Var@?0??dump_keysite_info@@YGXXZ@4JA
  00521	83 c0 4e	 add	 eax, 78			; 0000004eH
  00524	50		 push	 eax
  00525	68 00 00 00 00	 push	 OFFSET ??_C@_0EN@PIOGLIPD@c?3?2users?2nhv90?2projects?2eech?2ap@
  0052a	8b 0d 00 00 00
	00		 mov	 ecx, DWORD PTR ?null_entity_pointer_message@@3PBDB ; null_entity_pointer_message
  00530	51		 push	 ecx
  00531	e8 00 00 00 00	 call	 ?process_assert@@YGXPBD0H@Z ; process_assert
  00536	c7 85 70 ff ff
	ff 00 00 00 00	 mov	 DWORD PTR tv281[ebp], 0
$LN43@dump_keysi:
  00540	ba 01 00 00 00	 mov	 edx, 1
  00545	85 d2		 test	 edx, edx
  00547	74 0c		 je	 SHORT $LN44@dump_keysi
  00549	c7 85 6c ff ff
	ff 6d 00 00 00	 mov	 DWORD PTR tv289[ebp], 109 ; 0000006dH
  00553	eb 24		 jmp	 SHORT $LN45@dump_keysi
$LN44@dump_keysi:
  00555	a1 00 00 00 00	 mov	 eax, DWORD PTR ?__LINE__Var@?0??dump_keysite_info@@YGXXZ@4JA
  0055a	83 c0 4e	 add	 eax, 78			; 0000004eH
  0055d	50		 push	 eax
  0055e	68 00 00 00 00	 push	 OFFSET ??_C@_0EN@PIOGLIPD@c?3?2users?2nhv90?2projects?2eech?2ap@
  00563	8b 0d 00 00 00
	00		 mov	 ecx, DWORD PTR ?overload_invalid_int_type_message@@3PBDB ; overload_invalid_int_type_message
  00569	51		 push	 ecx
  0056a	e8 00 00 00 00	 call	 ?process_assert@@YGXPBD0H@Z ; process_assert
  0056f	c7 85 6c ff ff
	ff 00 00 00 00	 mov	 DWORD PTR tv289[ebp], 0
$LN45@dump_keysi:
  00579	83 7d ec 00	 cmp	 DWORD PTR _ks$[ebp], 0
  0057d	74 0d		 je	 SHORT $LN46@dump_keysi
  0057f	8b 55 ec	 mov	 edx, DWORD PTR _ks$[ebp]
  00582	8b 02		 mov	 eax, DWORD PTR [edx]
  00584	89 85 68 ff ff
	ff		 mov	 DWORD PTR tv305[ebp], eax
  0058a	eb 25		 jmp	 SHORT $LN47@dump_keysi
$LN46@dump_keysi:
  0058c	8b 0d 00 00 00
	00		 mov	 ecx, DWORD PTR ?__LINE__Var@?0??dump_keysite_info@@YGXXZ@4JA
  00592	83 c1 4c	 add	 ecx, 76			; 0000004cH
  00595	51		 push	 ecx
  00596	68 00 00 00 00	 push	 OFFSET ??_C@_0EN@PIOGLIPD@c?3?2users?2nhv90?2projects?2eech?2ap@
  0059b	8b 15 00 00 00
	00		 mov	 edx, DWORD PTR ?null_entity_pointer_message@@3PBDB ; null_entity_pointer_message
  005a1	52		 push	 edx
  005a2	e8 00 00 00 00	 call	 ?process_assert@@YGXPBD0H@Z ; process_assert
  005a7	c7 85 68 ff ff
	ff 00 00 00 00	 mov	 DWORD PTR tv305[ebp], 0
$LN47@dump_keysi:
  005b1	b8 01 00 00 00	 mov	 eax, 1
  005b6	85 c0		 test	 eax, eax
  005b8	74 0c		 je	 SHORT $LN48@dump_keysi
  005ba	c7 85 64 ff ff
	ff 07 00 00 00	 mov	 DWORD PTR tv313[ebp], 7
  005c4	eb 25		 jmp	 SHORT $LN49@dump_keysi
$LN48@dump_keysi:
  005c6	8b 0d 00 00 00
	00		 mov	 ecx, DWORD PTR ?__LINE__Var@?0??dump_keysite_info@@YGXXZ@4JA
  005cc	83 c1 4c	 add	 ecx, 76			; 0000004cH
  005cf	51		 push	 ecx
  005d0	68 00 00 00 00	 push	 OFFSET ??_C@_0EN@PIOGLIPD@c?3?2users?2nhv90?2projects?2eech?2ap@
  005d5	8b 15 00 00 00
	00		 mov	 edx, DWORD PTR ?overload_invalid_string_type_message@@3PBDB ; overload_invalid_string_type_message
  005db	52		 push	 edx
  005dc	e8 00 00 00 00	 call	 ?process_assert@@YGXPBD0H@Z ; process_assert
  005e1	c7 85 64 ff ff
	ff 00 00 00 00	 mov	 DWORD PTR tv313[ebp], 0
$LN49@dump_keysi:
  005eb	83 7d ec 00	 cmp	 DWORD PTR _ks$[ebp], 0
  005ef	74 0d		 je	 SHORT $LN50@dump_keysi
  005f1	8b 45 ec	 mov	 eax, DWORD PTR _ks$[ebp]
  005f4	8b 08		 mov	 ecx, DWORD PTR [eax]
  005f6	89 8d 60 ff ff
	ff		 mov	 DWORD PTR tv326[ebp], ecx
  005fc	eb 24		 jmp	 SHORT $LN51@dump_keysi
$LN50@dump_keysi:
  005fe	8b 15 00 00 00
	00		 mov	 edx, DWORD PTR ?__LINE__Var@?0??dump_keysite_info@@YGXXZ@4JA
  00604	83 c2 4b	 add	 edx, 75			; 0000004bH
  00607	52		 push	 edx
  00608	68 00 00 00 00	 push	 OFFSET ??_C@_0EN@PIOGLIPD@c?3?2users?2nhv90?2projects?2eech?2ap@
  0060d	a1 00 00 00 00	 mov	 eax, DWORD PTR ?null_entity_pointer_message@@3PBDB ; null_entity_pointer_message
  00612	50		 push	 eax
  00613	e8 00 00 00 00	 call	 ?process_assert@@YGXPBD0H@Z ; process_assert
  00618	c7 85 60 ff ff
	ff 00 00 00 00	 mov	 DWORD PTR tv326[ebp], 0
$LN51@dump_keysi:
  00622	b9 01 00 00 00	 mov	 ecx, 1
  00627	85 c9		 test	 ecx, ecx
  00629	74 0c		 je	 SHORT $LN52@dump_keysi
  0062b	c7 85 5c ff ff
	ff 03 00 00 00	 mov	 DWORD PTR tv334[ebp], 3
  00635	eb 24		 jmp	 SHORT $LN53@dump_keysi
$LN52@dump_keysi:
  00637	8b 15 00 00 00
	00		 mov	 edx, DWORD PTR ?__LINE__Var@?0??dump_keysite_info@@YGXXZ@4JA
  0063d	83 c2 4b	 add	 edx, 75			; 0000004bH
  00640	52		 push	 edx
  00641	68 00 00 00 00	 push	 OFFSET ??_C@_0EN@PIOGLIPD@c?3?2users?2nhv90?2projects?2eech?2ap@
  00646	a1 00 00 00 00	 mov	 eax, DWORD PTR ?overload_invalid_string_type_message@@3PBDB ; overload_invalid_string_type_message
  0064b	50		 push	 eax
  0064c	e8 00 00 00 00	 call	 ?process_assert@@YGXPBD0H@Z ; process_assert
  00651	c7 85 5c ff ff
	ff 00 00 00 00	 mov	 DWORD PTR tv334[ebp], 0
$LN53@dump_keysi:
  0065b	6a 07		 push	 7
  0065d	8b 4d ec	 mov	 ecx, DWORD PTR _ks$[ebp]
  00660	51		 push	 ecx
  00661	69 95 78 ff ff
	ff 5c 04 00 00	 imul	 edx, DWORD PTR tv260[ebp], 1116
  0066b	8b 85 74 ff ff
	ff		 mov	 eax, DWORD PTR tv268[ebp]
  00671	8b 8c 82 00 00
	00 00		 mov	 ecx, DWORD PTR ?fn_get_local_entity_int_value@@3PAY0BBH@P6GHPAUENTITY@@W4INT_TYPES@@@ZA[edx+eax*4]
  00678	ff d1		 call	 ecx
  0067a	50		 push	 eax
  0067b	6a 6d		 push	 109			; 0000006dH
  0067d	8b 55 ec	 mov	 edx, DWORD PTR _ks$[ebp]
  00680	52		 push	 edx
  00681	69 85 70 ff ff
	ff 5c 04 00 00	 imul	 eax, DWORD PTR tv281[ebp], 1116
  0068b	8b 8d 6c ff ff
	ff		 mov	 ecx, DWORD PTR tv289[ebp]
  00691	8b 94 88 00 00
	00 00		 mov	 edx, DWORD PTR ?fn_get_local_entity_int_value@@3PAY0BBH@P6GHPAUENTITY@@W4INT_TYPES@@@ZA[eax+ecx*4]
  00698	ff d2		 call	 edx
  0069a	50		 push	 eax
  0069b	8b 45 ec	 mov	 eax, DWORD PTR _ks$[ebp]
  0069e	2b 05 00 00 00
	00		 sub	 eax, DWORD PTR ?entities@@3PAUENTITY@@A ; entities
  006a4	c1 f8 04	 sar	 eax, 4
  006a7	50		 push	 eax
  006a8	6a 07		 push	 7
  006aa	8b 4d ec	 mov	 ecx, DWORD PTR _ks$[ebp]
  006ad	51		 push	 ecx
  006ae	6b 95 68 ff ff
	ff 34		 imul	 edx, DWORD PTR tv305[ebp], 52
  006b5	8b 85 64 ff ff
	ff		 mov	 eax, DWORD PTR tv313[ebp]
  006bb	8b 8c 82 00 00
	00 00		 mov	 ecx, DWORD PTR ?fn_get_local_entity_string@@3PAY0N@P6GPBDPAUENTITY@@W4STRING_TYPES@@@ZA[edx+eax*4]
  006c2	ff d1		 call	 ecx
  006c4	50		 push	 eax
  006c5	6a 03		 push	 3
  006c7	8b 55 ec	 mov	 edx, DWORD PTR _ks$[ebp]
  006ca	52		 push	 edx
  006cb	6b 85 60 ff ff
	ff 34		 imul	 eax, DWORD PTR tv326[ebp], 52
  006d2	8b 8d 5c ff ff
	ff		 mov	 ecx, DWORD PTR tv334[ebp]
  006d8	8b 94 88 00 00
	00 00		 mov	 edx, DWORD PTR ?fn_get_local_entity_string@@3PAY0N@P6GPBDPAUENTITY@@W4STRING_TYPES@@@ZA[eax+ecx*4]
  006df	ff d2		 call	 edx
  006e1	50		 push	 eax
  006e2	68 00 00 00 00	 push	 OFFSET ??_C@_0CN@KELGJPHF@?5?5?5?5Keysite?5?$CFs?5?$CFs?5?$CI?$CFd?$CJ?4?5In?5use?5@
  006e7	8b 45 dc	 mov	 eax, DWORD PTR _file_ptr$[ebp]
  006ea	50		 push	 eax
  006eb	e8 00 00 00 00	 call	 _fprintf
  006f0	83 c4 1c	 add	 esp, 28			; 0000001cH

; 1791 : 						get_local_entity_string (ks, STRING_TYPE_FULL_NAME),
; 1792 : 						get_local_entity_string (ks, STRING_TYPE_KEYSITE_NAME),
; 1793 : 						get_local_entity_index (ks),
; 1794 : 						get_local_entity_int_value (ks, INT_TYPE_IN_USE),
; 1795 : 						get_local_entity_int_value (ks, INT_TYPE_ALIVE));
; 1796 : 
; 1797 : 			fprintf (file_ptr, "        efficiency %02f, ammo %02f, fuel %02f\n",

  006f3	83 7d ec 00	 cmp	 DWORD PTR _ks$[ebp], 0
  006f7	74 0d		 je	 SHORT $LN54@dump_keysi
  006f9	8b 45 ec	 mov	 eax, DWORD PTR _ks$[ebp]
  006fc	8b 08		 mov	 ecx, DWORD PTR [eax]
  006fe	89 8d 78 ff ff
	ff		 mov	 DWORD PTR tv349[ebp], ecx
  00704	eb 24		 jmp	 SHORT $LN55@dump_keysi
$LN54@dump_keysi:
  00706	8b 15 00 00 00
	00		 mov	 edx, DWORD PTR ?__LINE__Var@?0??dump_keysite_info@@YGXXZ@4JA
  0070c	83 c2 54	 add	 edx, 84			; 00000054H
  0070f	52		 push	 edx
  00710	68 00 00 00 00	 push	 OFFSET ??_C@_0EN@PIOGLIPD@c?3?2users?2nhv90?2projects?2eech?2ap@
  00715	a1 00 00 00 00	 mov	 eax, DWORD PTR ?null_entity_pointer_message@@3PBDB ; null_entity_pointer_message
  0071a	50		 push	 eax
  0071b	e8 00 00 00 00	 call	 ?process_assert@@YGXPBD0H@Z ; process_assert
  00720	c7 85 78 ff ff
	ff 00 00 00 00	 mov	 DWORD PTR tv349[ebp], 0
$LN55@dump_keysi:
  0072a	b9 01 00 00 00	 mov	 ecx, 1
  0072f	85 c9		 test	 ecx, ecx
  00731	74 0c		 je	 SHORT $LN56@dump_keysi
  00733	c7 85 74 ff ff
	ff 30 00 00 00	 mov	 DWORD PTR tv357[ebp], 48 ; 00000030H
  0073d	eb 24		 jmp	 SHORT $LN57@dump_keysi
$LN56@dump_keysi:
  0073f	8b 15 00 00 00
	00		 mov	 edx, DWORD PTR ?__LINE__Var@?0??dump_keysite_info@@YGXXZ@4JA
  00745	83 c2 54	 add	 edx, 84			; 00000054H
  00748	52		 push	 edx
  00749	68 00 00 00 00	 push	 OFFSET ??_C@_0EN@PIOGLIPD@c?3?2users?2nhv90?2projects?2eech?2ap@
  0074e	a1 00 00 00 00	 mov	 eax, DWORD PTR ?overload_invalid_float_type_message@@3PBDB ; overload_invalid_float_type_message
  00753	50		 push	 eax
  00754	e8 00 00 00 00	 call	 ?process_assert@@YGXPBD0H@Z ; process_assert
  00759	c7 85 74 ff ff
	ff 00 00 00 00	 mov	 DWORD PTR tv357[ebp], 0
$LN57@dump_keysi:
  00763	83 7d ec 00	 cmp	 DWORD PTR _ks$[ebp], 0
  00767	74 0d		 je	 SHORT $LN58@dump_keysi
  00769	8b 4d ec	 mov	 ecx, DWORD PTR _ks$[ebp]
  0076c	8b 11		 mov	 edx, DWORD PTR [ecx]
  0076e	89 95 70 ff ff
	ff		 mov	 DWORD PTR tv372[ebp], edx
  00774	eb 24		 jmp	 SHORT $LN59@dump_keysi
$LN58@dump_keysi:
  00776	a1 00 00 00 00	 mov	 eax, DWORD PTR ?__LINE__Var@?0??dump_keysite_info@@YGXXZ@4JA
  0077b	83 c0 53	 add	 eax, 83			; 00000053H
  0077e	50		 push	 eax
  0077f	68 00 00 00 00	 push	 OFFSET ??_C@_0EN@PIOGLIPD@c?3?2users?2nhv90?2projects?2eech?2ap@
  00784	8b 0d 00 00 00
	00		 mov	 ecx, DWORD PTR ?null_entity_pointer_message@@3PBDB ; null_entity_pointer_message
  0078a	51		 push	 ecx
  0078b	e8 00 00 00 00	 call	 ?process_assert@@YGXPBD0H@Z ; process_assert
  00790	c7 85 70 ff ff
	ff 00 00 00 00	 mov	 DWORD PTR tv372[ebp], 0
$LN59@dump_keysi:
  0079a	ba 01 00 00 00	 mov	 edx, 1
  0079f	85 d2		 test	 edx, edx
  007a1	74 0c		 je	 SHORT $LN60@dump_keysi
  007a3	c7 85 6c ff ff
	ff 08 00 00 00	 mov	 DWORD PTR tv380[ebp], 8
  007ad	eb 24		 jmp	 SHORT $LN61@dump_keysi
$LN60@dump_keysi:
  007af	a1 00 00 00 00	 mov	 eax, DWORD PTR ?__LINE__Var@?0??dump_keysite_info@@YGXXZ@4JA
  007b4	83 c0 53	 add	 eax, 83			; 00000053H
  007b7	50		 push	 eax
  007b8	68 00 00 00 00	 push	 OFFSET ??_C@_0EN@PIOGLIPD@c?3?2users?2nhv90?2projects?2eech?2ap@
  007bd	8b 0d 00 00 00
	00		 mov	 ecx, DWORD PTR ?overload_invalid_float_type_message@@3PBDB ; overload_invalid_float_type_message
  007c3	51		 push	 ecx
  007c4	e8 00 00 00 00	 call	 ?process_assert@@YGXPBD0H@Z ; process_assert
  007c9	c7 85 6c ff ff
	ff 00 00 00 00	 mov	 DWORD PTR tv380[ebp], 0
$LN61@dump_keysi:
  007d3	83 7d ec 00	 cmp	 DWORD PTR _ks$[ebp], 0
  007d7	74 0d		 je	 SHORT $LN62@dump_keysi
  007d9	8b 55 ec	 mov	 edx, DWORD PTR _ks$[ebp]
  007dc	8b 02		 mov	 eax, DWORD PTR [edx]
  007de	89 85 68 ff ff
	ff		 mov	 DWORD PTR tv395[ebp], eax
  007e4	eb 25		 jmp	 SHORT $LN63@dump_keysi
$LN62@dump_keysi:
  007e6	8b 0d 00 00 00
	00		 mov	 ecx, DWORD PTR ?__LINE__Var@?0??dump_keysite_info@@YGXXZ@4JA
  007ec	83 c1 52	 add	 ecx, 82			; 00000052H
  007ef	51		 push	 ecx
  007f0	68 00 00 00 00	 push	 OFFSET ??_C@_0EN@PIOGLIPD@c?3?2users?2nhv90?2projects?2eech?2ap@
  007f5	8b 15 00 00 00
	00		 mov	 edx, DWORD PTR ?null_entity_pointer_message@@3PBDB ; null_entity_pointer_message
  007fb	52		 push	 edx
  007fc	e8 00 00 00 00	 call	 ?process_assert@@YGXPBD0H@Z ; process_assert
  00801	c7 85 68 ff ff
	ff 00 00 00 00	 mov	 DWORD PTR tv395[ebp], 0
$LN63@dump_keysi:
  0080b	b8 01 00 00 00	 mov	 eax, 1
  00810	85 c0		 test	 eax, eax
  00812	74 0c		 je	 SHORT $LN64@dump_keysi
  00814	c7 85 64 ff ff
	ff 21 00 00 00	 mov	 DWORD PTR tv403[ebp], 33 ; 00000021H
  0081e	eb 25		 jmp	 SHORT $LN65@dump_keysi
$LN64@dump_keysi:
  00820	8b 0d 00 00 00
	00		 mov	 ecx, DWORD PTR ?__LINE__Var@?0??dump_keysite_info@@YGXXZ@4JA
  00826	83 c1 52	 add	 ecx, 82			; 00000052H
  00829	51		 push	 ecx
  0082a	68 00 00 00 00	 push	 OFFSET ??_C@_0EN@PIOGLIPD@c?3?2users?2nhv90?2projects?2eech?2ap@
  0082f	8b 15 00 00 00
	00		 mov	 edx, DWORD PTR ?overload_invalid_float_type_message@@3PBDB ; overload_invalid_float_type_message
  00835	52		 push	 edx
  00836	e8 00 00 00 00	 call	 ?process_assert@@YGXPBD0H@Z ; process_assert
  0083b	c7 85 64 ff ff
	ff 00 00 00 00	 mov	 DWORD PTR tv403[ebp], 0
$LN65@dump_keysi:
  00845	6a 30		 push	 48			; 00000030H
  00847	8b 45 ec	 mov	 eax, DWORD PTR _ks$[ebp]
  0084a	50		 push	 eax
  0084b	69 8d 78 ff ff
	ff bc 02 00 00	 imul	 ecx, DWORD PTR tv349[ebp], 700
  00855	8b 95 74 ff ff
	ff		 mov	 edx, DWORD PTR tv357[ebp]
  0085b	8b 84 91 00 00
	00 00		 mov	 eax, DWORD PTR ?fn_get_local_entity_float_value@@3PAY0KP@P6GMPAUENTITY@@W4FLOAT_TYPES@@@ZA[ecx+edx*4]
  00862	ff d0		 call	 eax
  00864	83 ec 08	 sub	 esp, 8
  00867	dd 1c 24	 fstp	 QWORD PTR [esp]
  0086a	6a 08		 push	 8
  0086c	8b 4d ec	 mov	 ecx, DWORD PTR _ks$[ebp]
  0086f	51		 push	 ecx
  00870	69 95 70 ff ff
	ff bc 02 00 00	 imul	 edx, DWORD PTR tv372[ebp], 700
  0087a	8b 85 6c ff ff
	ff		 mov	 eax, DWORD PTR tv380[ebp]
  00880	8b 8c 82 00 00
	00 00		 mov	 ecx, DWORD PTR ?fn_get_local_entity_float_value@@3PAY0KP@P6GMPAUENTITY@@W4FLOAT_TYPES@@@ZA[edx+eax*4]
  00887	ff d1		 call	 ecx
  00889	83 ec 08	 sub	 esp, 8
  0088c	dd 1c 24	 fstp	 QWORD PTR [esp]
  0088f	6a 21		 push	 33			; 00000021H
  00891	8b 55 ec	 mov	 edx, DWORD PTR _ks$[ebp]
  00894	52		 push	 edx
  00895	69 85 68 ff ff
	ff bc 02 00 00	 imul	 eax, DWORD PTR tv395[ebp], 700
  0089f	8b 8d 64 ff ff
	ff		 mov	 ecx, DWORD PTR tv403[ebp]
  008a5	8b 94 88 00 00
	00 00		 mov	 edx, DWORD PTR ?fn_get_local_entity_float_value@@3PAY0KP@P6GMPAUENTITY@@W4FLOAT_TYPES@@@ZA[eax+ecx*4]
  008ac	ff d2		 call	 edx
  008ae	83 ec 08	 sub	 esp, 8
  008b1	dd 1c 24	 fstp	 QWORD PTR [esp]
  008b4	68 00 00 00 00	 push	 OFFSET ??_C@_0CP@JELENOEB@?5?5?5?5?5?5?5?5efficiency?5?$CF02f?0?5ammo?5?$CF@
  008b9	8b 45 dc	 mov	 eax, DWORD PTR _file_ptr$[ebp]
  008bc	50		 push	 eax
  008bd	e8 00 00 00 00	 call	 _fprintf
  008c2	83 c4 20	 add	 esp, 32			; 00000020H

; 1798 : 						get_local_entity_float_value (ks, FLOAT_TYPE_EFFICIENCY),
; 1799 : 						get_local_entity_float_value (ks, FLOAT_TYPE_AMMO_SUPPLY_LEVEL),
; 1800 : 						get_local_entity_float_value (ks, FLOAT_TYPE_FUEL_SUPPLY_LEVEL));
; 1801 : 
; 1802 : 			//
; 1803 : 			// Members
; 1804 : 			//
; 1805 : /*
; 1806 : 			fprintf (file_ptr, "        ----------------------------------------------------\n");
; 1807 : 
; 1808 : 			fprintf (file_ptr, "        Members %d\n",
; 1809 : 						get_local_entity_list_size (ks, LIST_TYPE_KEYSITE_MEMBER));
; 1810 : 
; 1811 : 			mb = get_local_entity_first_child (ks, LIST_TYPE_KEYSITE_MEMBER);
; 1812 : 
; 1813 : 			while (mb)
; 1814 : 			{
; 1815 : 
; 1816 : 				fprintf (file_ptr, "            %s (%d) %s\n",
; 1817 : 							get_local_entity_string (mb, STRING_TYPE_FULL_NAME),
; 1818 : 							get_local_entity_index (mb),
; 1819 : 							operational_state_names [get_local_entity_int_value (mb, INT_TYPE_OPERATIONAL_STATE)]);
; 1820 : 	
; 1821 : 				mb = get_local_entity_child_succ (mb, LIST_TYPE_KEYSITE_MEMBER);
; 1822 : 			}
; 1823 : */
; 1824 : 			//
; 1825 : 			// Tasks
; 1826 : 			//
; 1827 : 
; 1828 : 			fprintf (file_ptr, "        ----------------------------------------------------\n");

  008c5	68 00 00 00 00	 push	 OFFSET ??_C@_0DO@DPNENGIL@?5?5?5?5?5?5?5?5?9?9?9?9?9?9?9?9?9?9?9?9?9?9?9?9?9?9?9?9?9?9?9@
  008ca	8b 45 dc	 mov	 eax, DWORD PTR _file_ptr$[ebp]
  008cd	50		 push	 eax
  008ce	e8 00 00 00 00	 call	 _fprintf
  008d3	83 c4 08	 add	 esp, 8

; 1829 : 
; 1830 : 			fprintf (file_ptr, "        Tasks %d\n",

  008d6	6a 28		 push	 40			; 00000028H
  008d8	8b 45 ec	 mov	 eax, DWORD PTR _ks$[ebp]
  008db	50		 push	 eax
  008dc	e8 00 00 00 00	 call	 ?get_local_entity_list_size@@YGHPAUENTITY@@W4LIST_TYPES@@@Z ; get_local_entity_list_size
  008e1	50		 push	 eax
  008e2	68 00 00 00 00	 push	 OFFSET ??_C@_0BC@KKGPCBDB@?5?5?5?5?5?5?5?5Tasks?5?$CFd?6@
  008e7	8b 4d dc	 mov	 ecx, DWORD PTR _file_ptr$[ebp]
  008ea	51		 push	 ecx
  008eb	e8 00 00 00 00	 call	 _fprintf
  008f0	83 c4 0c	 add	 esp, 12			; 0000000cH

; 1831 : 						get_local_entity_list_size (ks, LIST_TYPE_UNASSIGNED_TASK));
; 1832 : 
; 1833 : 			ts = get_local_entity_first_child (ks, LIST_TYPE_UNASSIGNED_TASK);

  008f3	83 7d ec 00	 cmp	 DWORD PTR _ks$[ebp], 0
  008f7	74 0d		 je	 SHORT $LN66@dump_keysi
  008f9	8b 45 ec	 mov	 eax, DWORD PTR _ks$[ebp]
  008fc	8b 08		 mov	 ecx, DWORD PTR [eax]
  008fe	89 8d 78 ff ff
	ff		 mov	 DWORD PTR tv427[ebp], ecx
  00904	eb 24		 jmp	 SHORT $LN67@dump_keysi
$LN66@dump_keysi:
  00906	8b 15 00 00 00
	00		 mov	 edx, DWORD PTR ?__LINE__Var@?0??dump_keysite_info@@YGXXZ@4JA
  0090c	83 c2 75	 add	 edx, 117		; 00000075H
  0090f	52		 push	 edx
  00910	68 00 00 00 00	 push	 OFFSET ??_C@_0EN@PIOGLIPD@c?3?2users?2nhv90?2projects?2eech?2ap@
  00915	a1 00 00 00 00	 mov	 eax, DWORD PTR ?null_entity_pointer_message@@3PBDB ; null_entity_pointer_message
  0091a	50		 push	 eax
  0091b	e8 00 00 00 00	 call	 ?process_assert@@YGXPBD0H@Z ; process_assert
  00920	c7 85 78 ff ff
	ff 00 00 00 00	 mov	 DWORD PTR tv427[ebp], 0
$LN67@dump_keysi:
  0092a	b9 01 00 00 00	 mov	 ecx, 1
  0092f	85 c9		 test	 ecx, ecx
  00931	74 0c		 je	 SHORT $LN68@dump_keysi
  00933	c7 85 74 ff ff
	ff 28 00 00 00	 mov	 DWORD PTR tv435[ebp], 40 ; 00000028H
  0093d	eb 24		 jmp	 SHORT $LN69@dump_keysi
$LN68@dump_keysi:
  0093f	8b 15 00 00 00
	00		 mov	 edx, DWORD PTR ?__LINE__Var@?0??dump_keysite_info@@YGXXZ@4JA
  00945	83 c2 75	 add	 edx, 117		; 00000075H
  00948	52		 push	 edx
  00949	68 00 00 00 00	 push	 OFFSET ??_C@_0EN@PIOGLIPD@c?3?2users?2nhv90?2projects?2eech?2ap@
  0094e	a1 00 00 00 00	 mov	 eax, DWORD PTR ?overload_invalid_list_type_message@@3PBDB ; overload_invalid_list_type_message
  00953	50		 push	 eax
  00954	e8 00 00 00 00	 call	 ?process_assert@@YGXPBD0H@Z ; process_assert
  00959	c7 85 74 ff ff
	ff 00 00 00 00	 mov	 DWORD PTR tv435[ebp], 0
$LN69@dump_keysi:
  00963	6a 28		 push	 40			; 00000028H
  00965	8b 4d ec	 mov	 ecx, DWORD PTR _ks$[ebp]
  00968	51		 push	 ecx
  00969	69 95 78 ff ff
	ff b4 00 00 00	 imul	 edx, DWORD PTR tv427[ebp], 180
  00973	8b 85 74 ff ff
	ff		 mov	 eax, DWORD PTR tv435[ebp]
  00979	8b 8c 82 00 00
	00 00		 mov	 ecx, DWORD PTR ?fn_get_local_entity_first_child@@3PAY0CN@P6GPAUENTITY@@PAU1@W4LIST_TYPES@@@ZA[edx+eax*4]
  00980	ff d1		 call	 ecx
  00982	89 45 e8	 mov	 DWORD PTR _ts$[ebp], eax
$LN8@dump_keysi:

; 1834 : 
; 1835 : 			while (ts)

  00985	83 7d e8 00	 cmp	 DWORD PTR _ts$[ebp], 0
  00989	0f 84 42 01 00
	00		 je	 $LN9@dump_keysi

; 1836 : 			{
; 1837 : 
; 1838 : 				fprintf (file_ptr, "            %s (%d)\n",

  0098f	83 7d e8 00	 cmp	 DWORD PTR _ts$[ebp], 0
  00993	74 0d		 je	 SHORT $LN70@dump_keysi
  00995	8b 45 e8	 mov	 eax, DWORD PTR _ts$[ebp]
  00998	8b 08		 mov	 ecx, DWORD PTR [eax]
  0099a	89 8d 78 ff ff
	ff		 mov	 DWORD PTR tv452[ebp], ecx
  009a0	eb 24		 jmp	 SHORT $LN71@dump_keysi
$LN70@dump_keysi:
  009a2	8b 15 00 00 00
	00		 mov	 edx, DWORD PTR ?__LINE__Var@?0??dump_keysite_info@@YGXXZ@4JA
  009a8	83 c2 7b	 add	 edx, 123		; 0000007bH
  009ab	52		 push	 edx
  009ac	68 00 00 00 00	 push	 OFFSET ??_C@_0EN@PIOGLIPD@c?3?2users?2nhv90?2projects?2eech?2ap@
  009b1	a1 00 00 00 00	 mov	 eax, DWORD PTR ?null_entity_pointer_message@@3PBDB ; null_entity_pointer_message
  009b6	50		 push	 eax
  009b7	e8 00 00 00 00	 call	 ?process_assert@@YGXPBD0H@Z ; process_assert
  009bc	c7 85 78 ff ff
	ff 00 00 00 00	 mov	 DWORD PTR tv452[ebp], 0
$LN71@dump_keysi:
  009c6	b9 01 00 00 00	 mov	 ecx, 1
  009cb	85 c9		 test	 ecx, ecx
  009cd	74 0c		 je	 SHORT $LN72@dump_keysi
  009cf	c7 85 74 ff ff
	ff 03 00 00 00	 mov	 DWORD PTR tv460[ebp], 3
  009d9	eb 24		 jmp	 SHORT $LN73@dump_keysi
$LN72@dump_keysi:
  009db	8b 15 00 00 00
	00		 mov	 edx, DWORD PTR ?__LINE__Var@?0??dump_keysite_info@@YGXXZ@4JA
  009e1	83 c2 7b	 add	 edx, 123		; 0000007bH
  009e4	52		 push	 edx
  009e5	68 00 00 00 00	 push	 OFFSET ??_C@_0EN@PIOGLIPD@c?3?2users?2nhv90?2projects?2eech?2ap@
  009ea	a1 00 00 00 00	 mov	 eax, DWORD PTR ?overload_invalid_string_type_message@@3PBDB ; overload_invalid_string_type_message
  009ef	50		 push	 eax
  009f0	e8 00 00 00 00	 call	 ?process_assert@@YGXPBD0H@Z ; process_assert
  009f5	c7 85 74 ff ff
	ff 00 00 00 00	 mov	 DWORD PTR tv460[ebp], 0
$LN73@dump_keysi:
  009ff	8b 4d e8	 mov	 ecx, DWORD PTR _ts$[ebp]
  00a02	2b 0d 00 00 00
	00		 sub	 ecx, DWORD PTR ?entities@@3PAUENTITY@@A ; entities
  00a08	c1 f9 04	 sar	 ecx, 4
  00a0b	51		 push	 ecx
  00a0c	6a 03		 push	 3
  00a0e	8b 55 e8	 mov	 edx, DWORD PTR _ts$[ebp]
  00a11	52		 push	 edx
  00a12	6b 85 78 ff ff
	ff 34		 imul	 eax, DWORD PTR tv452[ebp], 52
  00a19	8b 8d 74 ff ff
	ff		 mov	 ecx, DWORD PTR tv460[ebp]
  00a1f	8b 94 88 00 00
	00 00		 mov	 edx, DWORD PTR ?fn_get_local_entity_string@@3PAY0N@P6GPBDPAUENTITY@@W4STRING_TYPES@@@ZA[eax+ecx*4]
  00a26	ff d2		 call	 edx
  00a28	50		 push	 eax
  00a29	68 00 00 00 00	 push	 OFFSET ??_C@_0BF@OIFDCINF@?5?5?5?5?5?5?5?5?5?5?5?5?$CFs?5?$CI?$CFd?$CJ?6@
  00a2e	8b 45 dc	 mov	 eax, DWORD PTR _file_ptr$[ebp]
  00a31	50		 push	 eax
  00a32	e8 00 00 00 00	 call	 _fprintf
  00a37	83 c4 10	 add	 esp, 16			; 00000010H

; 1839 : 							get_local_entity_string (ts, STRING_TYPE_FULL_NAME),
; 1840 : 							get_local_entity_index (ts));
; 1841 : 	
; 1842 : 				ts = get_local_entity_child_succ (ts, LIST_TYPE_UNASSIGNED_TASK);

  00a3a	83 7d e8 00	 cmp	 DWORD PTR _ts$[ebp], 0
  00a3e	74 0d		 je	 SHORT $LN74@dump_keysi
  00a40	8b 45 e8	 mov	 eax, DWORD PTR _ts$[ebp]
  00a43	8b 08		 mov	 ecx, DWORD PTR [eax]
  00a45	89 8d 78 ff ff
	ff		 mov	 DWORD PTR tv474[ebp], ecx
  00a4b	eb 24		 jmp	 SHORT $LN75@dump_keysi
$LN74@dump_keysi:
  00a4d	8b 15 00 00 00
	00		 mov	 edx, DWORD PTR ?__LINE__Var@?0??dump_keysite_info@@YGXXZ@4JA
  00a53	83 c2 7e	 add	 edx, 126		; 0000007eH
  00a56	52		 push	 edx
  00a57	68 00 00 00 00	 push	 OFFSET ??_C@_0EN@PIOGLIPD@c?3?2users?2nhv90?2projects?2eech?2ap@
  00a5c	a1 00 00 00 00	 mov	 eax, DWORD PTR ?null_entity_pointer_message@@3PBDB ; null_entity_pointer_message
  00a61	50		 push	 eax
  00a62	e8 00 00 00 00	 call	 ?process_assert@@YGXPBD0H@Z ; process_assert
  00a67	c7 85 78 ff ff
	ff 00 00 00 00	 mov	 DWORD PTR tv474[ebp], 0
$LN75@dump_keysi:
  00a71	b9 01 00 00 00	 mov	 ecx, 1
  00a76	85 c9		 test	 ecx, ecx
  00a78	74 0c		 je	 SHORT $LN76@dump_keysi
  00a7a	c7 85 74 ff ff
	ff 28 00 00 00	 mov	 DWORD PTR tv482[ebp], 40 ; 00000028H
  00a84	eb 24		 jmp	 SHORT $LN77@dump_keysi
$LN76@dump_keysi:
  00a86	8b 15 00 00 00
	00		 mov	 edx, DWORD PTR ?__LINE__Var@?0??dump_keysite_info@@YGXXZ@4JA
  00a8c	83 c2 7e	 add	 edx, 126		; 0000007eH
  00a8f	52		 push	 edx
  00a90	68 00 00 00 00	 push	 OFFSET ??_C@_0EN@PIOGLIPD@c?3?2users?2nhv90?2projects?2eech?2ap@
  00a95	a1 00 00 00 00	 mov	 eax, DWORD PTR ?overload_invalid_list_type_message@@3PBDB ; overload_invalid_list_type_message
  00a9a	50		 push	 eax
  00a9b	e8 00 00 00 00	 call	 ?process_assert@@YGXPBD0H@Z ; process_assert
  00aa0	c7 85 74 ff ff
	ff 00 00 00 00	 mov	 DWORD PTR tv482[ebp], 0
$LN77@dump_keysi:
  00aaa	6a 28		 push	 40			; 00000028H
  00aac	8b 4d e8	 mov	 ecx, DWORD PTR _ts$[ebp]
  00aaf	51		 push	 ecx
  00ab0	69 95 78 ff ff
	ff b4 00 00 00	 imul	 edx, DWORD PTR tv474[ebp], 180
  00aba	8b 85 74 ff ff
	ff		 mov	 eax, DWORD PTR tv482[ebp]
  00ac0	8b 8c 82 00 00
	00 00		 mov	 ecx, DWORD PTR ?fn_get_local_entity_child_succ@@3PAY0CN@P6GPAUENTITY@@PAU1@W4LIST_TYPES@@@ZA[edx+eax*4]
  00ac7	ff d1		 call	 ecx
  00ac9	89 45 e8	 mov	 DWORD PTR _ts$[ebp], eax

; 1843 : 			}

  00acc	e9 b4 fe ff ff	 jmp	 $LN8@dump_keysi
$LN9@dump_keysi:

; 1844 : 
; 1845 : 			ks = get_local_entity_child_succ (ks, LIST_TYPE_KEYSITE_FORCE);

  00ad1	83 7d ec 00	 cmp	 DWORD PTR _ks$[ebp], 0
  00ad5	74 0d		 je	 SHORT $LN78@dump_keysi
  00ad7	8b 45 ec	 mov	 eax, DWORD PTR _ks$[ebp]
  00ada	8b 08		 mov	 ecx, DWORD PTR [eax]
  00adc	89 8d 78 ff ff
	ff		 mov	 DWORD PTR tv494[ebp], ecx
  00ae2	eb 27		 jmp	 SHORT $LN79@dump_keysi
$LN78@dump_keysi:
  00ae4	8b 15 00 00 00
	00		 mov	 edx, DWORD PTR ?__LINE__Var@?0??dump_keysite_info@@YGXXZ@4JA
  00aea	81 c2 81 00 00
	00		 add	 edx, 129		; 00000081H
  00af0	52		 push	 edx
  00af1	68 00 00 00 00	 push	 OFFSET ??_C@_0EN@PIOGLIPD@c?3?2users?2nhv90?2projects?2eech?2ap@
  00af6	a1 00 00 00 00	 mov	 eax, DWORD PTR ?null_entity_pointer_message@@3PBDB ; null_entity_pointer_message
  00afb	50		 push	 eax
  00afc	e8 00 00 00 00	 call	 ?process_assert@@YGXPBD0H@Z ; process_assert
  00b01	c7 85 78 ff ff
	ff 00 00 00 00	 mov	 DWORD PTR tv494[ebp], 0
$LN79@dump_keysi:
  00b0b	b9 01 00 00 00	 mov	 ecx, 1
  00b10	85 c9		 test	 ecx, ecx
  00b12	74 0c		 je	 SHORT $LN80@dump_keysi
  00b14	c7 85 74 ff ff
	ff 15 00 00 00	 mov	 DWORD PTR tv502[ebp], 21 ; 00000015H
  00b1e	eb 27		 jmp	 SHORT $LN81@dump_keysi
$LN80@dump_keysi:
  00b20	8b 15 00 00 00
	00		 mov	 edx, DWORD PTR ?__LINE__Var@?0??dump_keysite_info@@YGXXZ@4JA
  00b26	81 c2 81 00 00
	00		 add	 edx, 129		; 00000081H
  00b2c	52		 push	 edx
  00b2d	68 00 00 00 00	 push	 OFFSET ??_C@_0EN@PIOGLIPD@c?3?2users?2nhv90?2projects?2eech?2ap@
  00b32	a1 00 00 00 00	 mov	 eax, DWORD PTR ?overload_invalid_list_type_message@@3PBDB ; overload_invalid_list_type_message
  00b37	50		 push	 eax
  00b38	e8 00 00 00 00	 call	 ?process_assert@@YGXPBD0H@Z ; process_assert
  00b3d	c7 85 74 ff ff
	ff 00 00 00 00	 mov	 DWORD PTR tv502[ebp], 0
$LN81@dump_keysi:
  00b47	6a 15		 push	 21			; 00000015H
  00b49	8b 4d ec	 mov	 ecx, DWORD PTR _ks$[ebp]
  00b4c	51		 push	 ecx
  00b4d	69 95 78 ff ff
	ff b4 00 00 00	 imul	 edx, DWORD PTR tv494[ebp], 180
  00b57	8b 85 74 ff ff
	ff		 mov	 eax, DWORD PTR tv502[ebp]
  00b5d	8b 8c 82 00 00
	00 00		 mov	 ecx, DWORD PTR ?fn_get_local_entity_child_succ@@3PAY0CN@P6GPAUENTITY@@PAU1@W4LIST_TYPES@@@ZA[edx+eax*4]
  00b64	ff d1		 call	 ecx
  00b66	89 45 ec	 mov	 DWORD PTR _ks$[ebp], eax

; 1846 : 		}

  00b69	e9 5b f7 ff ff	 jmp	 $LN86@dump_keysi
$LN7@dump_keysi:

; 1847 : 
; 1848 : 		force = get_local_entity_child_succ (force, LIST_TYPE_FORCE);

  00b6e	83 7d e4 00	 cmp	 DWORD PTR _force$[ebp], 0
  00b72	74 0d		 je	 SHORT $LN82@dump_keysi
  00b74	8b 45 e4	 mov	 eax, DWORD PTR _force$[ebp]
  00b77	8b 08		 mov	 ecx, DWORD PTR [eax]
  00b79	89 8d 78 ff ff
	ff		 mov	 DWORD PTR tv514[ebp], ecx
  00b7f	eb 27		 jmp	 SHORT $LN83@dump_keysi
$LN82@dump_keysi:
  00b81	8b 15 00 00 00
	00		 mov	 edx, DWORD PTR ?__LINE__Var@?0??dump_keysite_info@@YGXXZ@4JA
  00b87	81 c2 84 00 00
	00		 add	 edx, 132		; 00000084H
  00b8d	52		 push	 edx
  00b8e	68 00 00 00 00	 push	 OFFSET ??_C@_0EN@PIOGLIPD@c?3?2users?2nhv90?2projects?2eech?2ap@
  00b93	a1 00 00 00 00	 mov	 eax, DWORD PTR ?null_entity_pointer_message@@3PBDB ; null_entity_pointer_message
  00b98	50		 push	 eax
  00b99	e8 00 00 00 00	 call	 ?process_assert@@YGXPBD0H@Z ; process_assert
  00b9e	c7 85 78 ff ff
	ff 00 00 00 00	 mov	 DWORD PTR tv514[ebp], 0
$LN83@dump_keysi:
  00ba8	b9 01 00 00 00	 mov	 ecx, 1
  00bad	85 c9		 test	 ecx, ecx
  00baf	74 0c		 je	 SHORT $LN84@dump_keysi
  00bb1	c7 85 74 ff ff
	ff 0e 00 00 00	 mov	 DWORD PTR tv522[ebp], 14 ; 0000000eH
  00bbb	eb 27		 jmp	 SHORT $LN85@dump_keysi
$LN84@dump_keysi:
  00bbd	8b 15 00 00 00
	00		 mov	 edx, DWORD PTR ?__LINE__Var@?0??dump_keysite_info@@YGXXZ@4JA
  00bc3	81 c2 84 00 00
	00		 add	 edx, 132		; 00000084H
  00bc9	52		 push	 edx
  00bca	68 00 00 00 00	 push	 OFFSET ??_C@_0EN@PIOGLIPD@c?3?2users?2nhv90?2projects?2eech?2ap@
  00bcf	a1 00 00 00 00	 mov	 eax, DWORD PTR ?overload_invalid_list_type_message@@3PBDB ; overload_invalid_list_type_message
  00bd4	50		 push	 eax
  00bd5	e8 00 00 00 00	 call	 ?process_assert@@YGXPBD0H@Z ; process_assert
  00bda	c7 85 74 ff ff
	ff 00 00 00 00	 mov	 DWORD PTR tv522[ebp], 0
$LN85@dump_keysi:
  00be4	6a 0e		 push	 14			; 0000000eH
  00be6	8b 4d e4	 mov	 ecx, DWORD PTR _force$[ebp]
  00be9	51		 push	 ecx
  00bea	69 95 78 ff ff
	ff b4 00 00 00	 imul	 edx, DWORD PTR tv514[ebp], 180
  00bf4	8b 85 74 ff ff
	ff		 mov	 eax, DWORD PTR tv522[ebp]
  00bfa	8b 8c 82 00 00
	00 00		 mov	 ecx, DWORD PTR ?fn_get_local_entity_child_succ@@3PAY0CN@P6GPAUENTITY@@PAU1@W4LIST_TYPES@@@ZA[edx+eax*4]
  00c01	ff d1		 call	 ecx
  00c03	89 45 e4	 mov	 DWORD PTR _force$[ebp], eax

; 1849 : 	}

  00c06	e9 66 f5 ff ff	 jmp	 $LN4@dump_keysi
$LN5@dump_keysi:

; 1850 : 
; 1851 : 	fclose (file_ptr);

  00c0b	8b 45 dc	 mov	 eax, DWORD PTR _file_ptr$[ebp]
  00c0e	50		 push	 eax
  00c0f	ff 15 00 00 00
	00		 call	 DWORD PTR __imp__fclose
  00c15	83 c4 04	 add	 esp, 4
$LN1@dump_keysi:

; 1852 : }

  00c18	5f		 pop	 edi
  00c19	5e		 pop	 esi
  00c1a	5b		 pop	 ebx
  00c1b	8b e5		 mov	 esp, ebp
  00c1d	5d		 pop	 ebp
  00c1e	c3		 ret	 0
?dump_keysite_info@@YGXXZ ENDP				; dump_keysite_info
_TEXT	ENDS
; Function compile flags: /Odtp /ZI
; File c:\users\nhv90\projects\eech\aphavoc\source\entity\special\keysite\keysite.c
;	COMDAT ?get_keysite_suitable_for_player@@YGHPAUENTITY@@0@Z
_TEXT	SEGMENT
tv181 = -80						; size = 4
tv161 = -80						; size = 4
tv136 = -80						; size = 4
tv83 = -80						; size = 4
tv173 = -76						; size = 4
tv153 = -76						; size = 4
tv128 = -76						; size = 4
tv75 = -76						; size = 4
_member$ = -8						; size = 4
_group$ = -4						; size = 4
_keysite$ = 8						; size = 4
_pilot$ = 12						; size = 4
?get_keysite_suitable_for_player@@YGHPAUENTITY@@0@Z PROC ; get_keysite_suitable_for_player, COMDAT

; 1682 : {

  00000	55		 push	 ebp
  00001	8b ec		 mov	 ebp, esp
  00003	83 ec 50	 sub	 esp, 80			; 00000050H
  00006	53		 push	 ebx
  00007	56		 push	 esi
  00008	57		 push	 edi

; 1683 : 	entity
; 1684 : 		*group,
; 1685 : 		*member;
; 1686 : 
; 1687 : 	ASSERT (keysite);

  00009	83 7d 08 00	 cmp	 DWORD PTR _keysite$[ebp], 0
  0000d	75 18		 jne	 SHORT $LN6@get_keysit
  0000f	a1 00 00 00 00	 mov	 eax, DWORD PTR ?__LINE__Var@?0??get_keysite_suitable_for_player@@YGHPAUENTITY@@0@Z@4JA
  00014	83 c0 05	 add	 eax, 5
  00017	50		 push	 eax
  00018	68 00 00 00 00	 push	 OFFSET ??_C@_0EN@PIOGLIPD@c?3?2users?2nhv90?2projects?2eech?2ap@
  0001d	68 00 00 00 00	 push	 OFFSET ??_C@_07FBNBNOMI@keysite@
  00022	e8 00 00 00 00	 call	 ?process_assert@@YGXPBD0H@Z ; process_assert
$LN6@get_keysit:

; 1688 : 
; 1689 : 	group = get_local_entity_first_child (keysite, LIST_TYPE_KEYSITE_GROUP);

  00027	83 7d 08 00	 cmp	 DWORD PTR _keysite$[ebp], 0
  0002b	74 0a		 je	 SHORT $LN9@get_keysit
  0002d	8b 45 08	 mov	 eax, DWORD PTR _keysite$[ebp]
  00030	8b 08		 mov	 ecx, DWORD PTR [eax]
  00032	89 4d b4	 mov	 DWORD PTR tv75[ebp], ecx
  00035	eb 21		 jmp	 SHORT $LN10@get_keysit
$LN9@get_keysit:
  00037	8b 15 00 00 00
	00		 mov	 edx, DWORD PTR ?__LINE__Var@?0??get_keysite_suitable_for_player@@YGHPAUENTITY@@0@Z@4JA
  0003d	83 c2 07	 add	 edx, 7
  00040	52		 push	 edx
  00041	68 00 00 00 00	 push	 OFFSET ??_C@_0EN@PIOGLIPD@c?3?2users?2nhv90?2projects?2eech?2ap@
  00046	a1 00 00 00 00	 mov	 eax, DWORD PTR ?null_entity_pointer_message@@3PBDB ; null_entity_pointer_message
  0004b	50		 push	 eax
  0004c	e8 00 00 00 00	 call	 ?process_assert@@YGXPBD0H@Z ; process_assert
  00051	c7 45 b4 00 00
	00 00		 mov	 DWORD PTR tv75[ebp], 0
$LN10@get_keysit:
  00058	b9 01 00 00 00	 mov	 ecx, 1
  0005d	85 c9		 test	 ecx, ecx
  0005f	74 09		 je	 SHORT $LN11@get_keysit
  00061	c7 45 b0 16 00
	00 00		 mov	 DWORD PTR tv83[ebp], 22	; 00000016H
  00068	eb 21		 jmp	 SHORT $LN12@get_keysit
$LN11@get_keysit:
  0006a	8b 15 00 00 00
	00		 mov	 edx, DWORD PTR ?__LINE__Var@?0??get_keysite_suitable_for_player@@YGHPAUENTITY@@0@Z@4JA
  00070	83 c2 07	 add	 edx, 7
  00073	52		 push	 edx
  00074	68 00 00 00 00	 push	 OFFSET ??_C@_0EN@PIOGLIPD@c?3?2users?2nhv90?2projects?2eech?2ap@
  00079	a1 00 00 00 00	 mov	 eax, DWORD PTR ?overload_invalid_list_type_message@@3PBDB ; overload_invalid_list_type_message
  0007e	50		 push	 eax
  0007f	e8 00 00 00 00	 call	 ?process_assert@@YGXPBD0H@Z ; process_assert
  00084	c7 45 b0 00 00
	00 00		 mov	 DWORD PTR tv83[ebp], 0
$LN12@get_keysit:
  0008b	6a 16		 push	 22			; 00000016H
  0008d	8b 4d 08	 mov	 ecx, DWORD PTR _keysite$[ebp]
  00090	51		 push	 ecx
  00091	69 55 b4 b4 00
	00 00		 imul	 edx, DWORD PTR tv75[ebp], 180
  00098	8b 45 b0	 mov	 eax, DWORD PTR tv83[ebp]
  0009b	8b 8c 82 00 00
	00 00		 mov	 ecx, DWORD PTR ?fn_get_local_entity_first_child@@3PAY0CN@P6GPAUENTITY@@PAU1@W4LIST_TYPES@@@ZA[edx+eax*4]
  000a2	ff d1		 call	 ecx
  000a4	89 45 fc	 mov	 DWORD PTR _group$[ebp], eax
$LN2@get_keysit:

; 1690 : 
; 1691 : 	while (group)

  000a7	83 7d fc 00	 cmp	 DWORD PTR _group$[ebp], 0
  000ab	0f 84 af 01 00
	00		 je	 $LN3@get_keysit

; 1692 : 	{
; 1693 : 		member = get_local_entity_first_child (group, LIST_TYPE_MEMBER);

  000b1	83 7d fc 00	 cmp	 DWORD PTR _group$[ebp], 0
  000b5	74 0a		 je	 SHORT $LN13@get_keysit
  000b7	8b 45 fc	 mov	 eax, DWORD PTR _group$[ebp]
  000ba	8b 08		 mov	 ecx, DWORD PTR [eax]
  000bc	89 4d b4	 mov	 DWORD PTR tv128[ebp], ecx
  000bf	eb 21		 jmp	 SHORT $LN14@get_keysit
$LN13@get_keysit:
  000c1	8b 15 00 00 00
	00		 mov	 edx, DWORD PTR ?__LINE__Var@?0??get_keysite_suitable_for_player@@YGHPAUENTITY@@0@Z@4JA
  000c7	83 c2 0b	 add	 edx, 11			; 0000000bH
  000ca	52		 push	 edx
  000cb	68 00 00 00 00	 push	 OFFSET ??_C@_0EN@PIOGLIPD@c?3?2users?2nhv90?2projects?2eech?2ap@
  000d0	a1 00 00 00 00	 mov	 eax, DWORD PTR ?null_entity_pointer_message@@3PBDB ; null_entity_pointer_message
  000d5	50		 push	 eax
  000d6	e8 00 00 00 00	 call	 ?process_assert@@YGXPBD0H@Z ; process_assert
  000db	c7 45 b4 00 00
	00 00		 mov	 DWORD PTR tv128[ebp], 0
$LN14@get_keysit:
  000e2	b9 01 00 00 00	 mov	 ecx, 1
  000e7	85 c9		 test	 ecx, ecx
  000e9	74 09		 je	 SHORT $LN15@get_keysit
  000eb	c7 45 b0 19 00
	00 00		 mov	 DWORD PTR tv136[ebp], 25 ; 00000019H
  000f2	eb 21		 jmp	 SHORT $LN16@get_keysit
$LN15@get_keysit:
  000f4	8b 15 00 00 00
	00		 mov	 edx, DWORD PTR ?__LINE__Var@?0??get_keysite_suitable_for_player@@YGHPAUENTITY@@0@Z@4JA
  000fa	83 c2 0b	 add	 edx, 11			; 0000000bH
  000fd	52		 push	 edx
  000fe	68 00 00 00 00	 push	 OFFSET ??_C@_0EN@PIOGLIPD@c?3?2users?2nhv90?2projects?2eech?2ap@
  00103	a1 00 00 00 00	 mov	 eax, DWORD PTR ?overload_invalid_list_type_message@@3PBDB ; overload_invalid_list_type_message
  00108	50		 push	 eax
  00109	e8 00 00 00 00	 call	 ?process_assert@@YGXPBD0H@Z ; process_assert
  0010e	c7 45 b0 00 00
	00 00		 mov	 DWORD PTR tv136[ebp], 0
$LN16@get_keysit:
  00115	6a 19		 push	 25			; 00000019H
  00117	8b 4d fc	 mov	 ecx, DWORD PTR _group$[ebp]
  0011a	51		 push	 ecx
  0011b	69 55 b4 b4 00
	00 00		 imul	 edx, DWORD PTR tv128[ebp], 180
  00122	8b 45 b0	 mov	 eax, DWORD PTR tv136[ebp]
  00125	8b 8c 82 00 00
	00 00		 mov	 ecx, DWORD PTR ?fn_get_local_entity_first_child@@3PAY0CN@P6GPAUENTITY@@PAU1@W4LIST_TYPES@@@ZA[edx+eax*4]
  0012c	ff d1		 call	 ecx
  0012e	89 45 f8	 mov	 DWORD PTR _member$[ebp], eax
$LN4@get_keysit:

; 1694 : 
; 1695 : 		while (member)

  00131	83 7d f8 00	 cmp	 DWORD PTR _member$[ebp], 0
  00135	0f 84 a0 00 00
	00		 je	 $LN5@get_keysit

; 1696 : 		{
; 1697 : 			if (get_local_entity_suitable_for_player (member, pilot))

  0013b	8b 45 0c	 mov	 eax, DWORD PTR _pilot$[ebp]
  0013e	50		 push	 eax
  0013f	8b 4d f8	 mov	 ecx, DWORD PTR _member$[ebp]
  00142	51		 push	 ecx
  00143	e8 00 00 00 00	 call	 ?get_local_entity_suitable_for_player@@YGHPAUENTITY@@0@Z ; get_local_entity_suitable_for_player
  00148	85 c0		 test	 eax, eax
  0014a	74 0a		 je	 SHORT $LN7@get_keysit

; 1698 : 			{
; 1699 : 				return TRUE;

  0014c	b8 01 00 00 00	 mov	 eax, 1
  00151	e9 0c 01 00 00	 jmp	 $LN1@get_keysit
$LN7@get_keysit:

; 1700 : 			}
; 1701 : 
; 1702 : 			member = get_local_entity_child_succ (member, LIST_TYPE_MEMBER);

  00156	83 7d f8 00	 cmp	 DWORD PTR _member$[ebp], 0
  0015a	74 0a		 je	 SHORT $LN17@get_keysit
  0015c	8b 45 f8	 mov	 eax, DWORD PTR _member$[ebp]
  0015f	8b 08		 mov	 ecx, DWORD PTR [eax]
  00161	89 4d b4	 mov	 DWORD PTR tv153[ebp], ecx
  00164	eb 21		 jmp	 SHORT $LN18@get_keysit
$LN17@get_keysit:
  00166	8b 15 00 00 00
	00		 mov	 edx, DWORD PTR ?__LINE__Var@?0??get_keysite_suitable_for_player@@YGHPAUENTITY@@0@Z@4JA
  0016c	83 c2 14	 add	 edx, 20			; 00000014H
  0016f	52		 push	 edx
  00170	68 00 00 00 00	 push	 OFFSET ??_C@_0EN@PIOGLIPD@c?3?2users?2nhv90?2projects?2eech?2ap@
  00175	a1 00 00 00 00	 mov	 eax, DWORD PTR ?null_entity_pointer_message@@3PBDB ; null_entity_pointer_message
  0017a	50		 push	 eax
  0017b	e8 00 00 00 00	 call	 ?process_assert@@YGXPBD0H@Z ; process_assert
  00180	c7 45 b4 00 00
	00 00		 mov	 DWORD PTR tv153[ebp], 0
$LN18@get_keysit:
  00187	b9 01 00 00 00	 mov	 ecx, 1
  0018c	85 c9		 test	 ecx, ecx
  0018e	74 09		 je	 SHORT $LN19@get_keysit
  00190	c7 45 b0 19 00
	00 00		 mov	 DWORD PTR tv161[ebp], 25 ; 00000019H
  00197	eb 21		 jmp	 SHORT $LN20@get_keysit
$LN19@get_keysit:
  00199	8b 15 00 00 00
	00		 mov	 edx, DWORD PTR ?__LINE__Var@?0??get_keysite_suitable_for_player@@YGHPAUENTITY@@0@Z@4JA
  0019f	83 c2 14	 add	 edx, 20			; 00000014H
  001a2	52		 push	 edx
  001a3	68 00 00 00 00	 push	 OFFSET ??_C@_0EN@PIOGLIPD@c?3?2users?2nhv90?2projects?2eech?2ap@
  001a8	a1 00 00 00 00	 mov	 eax, DWORD PTR ?overload_invalid_list_type_message@@3PBDB ; overload_invalid_list_type_message
  001ad	50		 push	 eax
  001ae	e8 00 00 00 00	 call	 ?process_assert@@YGXPBD0H@Z ; process_assert
  001b3	c7 45 b0 00 00
	00 00		 mov	 DWORD PTR tv161[ebp], 0
$LN20@get_keysit:
  001ba	6a 19		 push	 25			; 00000019H
  001bc	8b 4d f8	 mov	 ecx, DWORD PTR _member$[ebp]
  001bf	51		 push	 ecx
  001c0	69 55 b4 b4 00
	00 00		 imul	 edx, DWORD PTR tv153[ebp], 180
  001c7	8b 45 b0	 mov	 eax, DWORD PTR tv161[ebp]
  001ca	8b 8c 82 00 00
	00 00		 mov	 ecx, DWORD PTR ?fn_get_local_entity_child_succ@@3PAY0CN@P6GPAUENTITY@@PAU1@W4LIST_TYPES@@@ZA[edx+eax*4]
  001d1	ff d1		 call	 ecx
  001d3	89 45 f8	 mov	 DWORD PTR _member$[ebp], eax

; 1703 : 		}

  001d6	e9 56 ff ff ff	 jmp	 $LN4@get_keysit
$LN5@get_keysit:

; 1704 : 
; 1705 : 		group = get_local_entity_child_succ (group, LIST_TYPE_KEYSITE_GROUP);

  001db	83 7d fc 00	 cmp	 DWORD PTR _group$[ebp], 0
  001df	74 0a		 je	 SHORT $LN21@get_keysit
  001e1	8b 45 fc	 mov	 eax, DWORD PTR _group$[ebp]
  001e4	8b 08		 mov	 ecx, DWORD PTR [eax]
  001e6	89 4d b4	 mov	 DWORD PTR tv173[ebp], ecx
  001e9	eb 21		 jmp	 SHORT $LN22@get_keysit
$LN21@get_keysit:
  001eb	8b 15 00 00 00
	00		 mov	 edx, DWORD PTR ?__LINE__Var@?0??get_keysite_suitable_for_player@@YGHPAUENTITY@@0@Z@4JA
  001f1	83 c2 17	 add	 edx, 23			; 00000017H
  001f4	52		 push	 edx
  001f5	68 00 00 00 00	 push	 OFFSET ??_C@_0EN@PIOGLIPD@c?3?2users?2nhv90?2projects?2eech?2ap@
  001fa	a1 00 00 00 00	 mov	 eax, DWORD PTR ?null_entity_pointer_message@@3PBDB ; null_entity_pointer_message
  001ff	50		 push	 eax
  00200	e8 00 00 00 00	 call	 ?process_assert@@YGXPBD0H@Z ; process_assert
  00205	c7 45 b4 00 00
	00 00		 mov	 DWORD PTR tv173[ebp], 0
$LN22@get_keysit:
  0020c	b9 01 00 00 00	 mov	 ecx, 1
  00211	85 c9		 test	 ecx, ecx
  00213	74 09		 je	 SHORT $LN23@get_keysit
  00215	c7 45 b0 16 00
	00 00		 mov	 DWORD PTR tv181[ebp], 22 ; 00000016H
  0021c	eb 21		 jmp	 SHORT $LN24@get_keysit
$LN23@get_keysit:
  0021e	8b 15 00 00 00
	00		 mov	 edx, DWORD PTR ?__LINE__Var@?0??get_keysite_suitable_for_player@@YGHPAUENTITY@@0@Z@4JA
  00224	83 c2 17	 add	 edx, 23			; 00000017H
  00227	52		 push	 edx
  00228	68 00 00 00 00	 push	 OFFSET ??_C@_0EN@PIOGLIPD@c?3?2users?2nhv90?2projects?2eech?2ap@
  0022d	a1 00 00 00 00	 mov	 eax, DWORD PTR ?overload_invalid_list_type_message@@3PBDB ; overload_invalid_list_type_message
  00232	50		 push	 eax
  00233	e8 00 00 00 00	 call	 ?process_assert@@YGXPBD0H@Z ; process_assert
  00238	c7 45 b0 00 00
	00 00		 mov	 DWORD PTR tv181[ebp], 0
$LN24@get_keysit:
  0023f	6a 16		 push	 22			; 00000016H
  00241	8b 4d fc	 mov	 ecx, DWORD PTR _group$[ebp]
  00244	51		 push	 ecx
  00245	69 55 b4 b4 00
	00 00		 imul	 edx, DWORD PTR tv173[ebp], 180
  0024c	8b 45 b0	 mov	 eax, DWORD PTR tv181[ebp]
  0024f	8b 8c 82 00 00
	00 00		 mov	 ecx, DWORD PTR ?fn_get_local_entity_child_succ@@3PAY0CN@P6GPAUENTITY@@PAU1@W4LIST_TYPES@@@ZA[edx+eax*4]
  00256	ff d1		 call	 ecx
  00258	89 45 fc	 mov	 DWORD PTR _group$[ebp], eax

; 1706 : 	}

  0025b	e9 47 fe ff ff	 jmp	 $LN2@get_keysit
$LN3@get_keysit:

; 1707 : 
; 1708 : 	return FALSE;

  00260	33 c0		 xor	 eax, eax
$LN1@get_keysit:

; 1709 : }

  00262	5f		 pop	 edi
  00263	5e		 pop	 esi
  00264	5b		 pop	 ebx
  00265	8b e5		 mov	 esp, ebp
  00267	5d		 pop	 ebp
  00268	c2 08 00	 ret	 8
?get_keysite_suitable_for_player@@YGHPAUENTITY@@0@Z ENDP ; get_keysite_suitable_for_player
_TEXT	ENDS
; Function compile flags: /Odtp /ZI
; File c:\users\nhv90\projects\eech\aphavoc\source\entity\special\keysite\keysite.c
;	COMDAT ?repair_client_server_entity_keysite@@YGHPAUENTITY@@@Z
_TEXT	SEGMENT
tv413 = -100						; size = 4
tv235 = -100						; size = 4
tv405 = -96						; size = 4
tv227 = -96						; size = 4
tv483 = -92						; size = 4
tv457 = -92						; size = 4
tv437 = -92						; size = 4
tv392 = -92						; size = 4
tv363 = -92						; size = 4
tv339 = -92						; size = 4
tv320 = -92						; size = 4
tv299 = -92						; size = 4
tv279 = -92						; size = 4
tv259 = -92						; size = 4
tv214 = -92						; size = 4
tv185 = -92						; size = 4
tv161 = -92						; size = 4
tv142 = -92						; size = 4
tv89 = -92						; size = 4
tv475 = -88						; size = 4
tv449 = -88						; size = 4
tv429 = -88						; size = 4
tv384 = -88						; size = 4
tv355 = -88						; size = 4
tv332 = -88						; size = 4
tv312 = -88						; size = 4
tv291 = -88						; size = 4
tv271 = -88						; size = 4
tv251 = -88						; size = 4
tv206 = -88						; size = 4
tv177 = -88						; size = 4
tv154 = -88						; size = 4
tv134 = -88						; size = 4
tv81 = -88						; size = 4
_importance$ = -20					; size = 4
_regen$ = -16						; size = 4
_building$ = -12					; size = 4
_group$ = -8						; size = 4
_raw$ = -4						; size = 4
_en$ = 8						; size = 4
?repair_client_server_entity_keysite@@YGHPAUENTITY@@@Z PROC ; repair_client_server_entity_keysite, COMDAT

; 1558 : {

  00000	55		 push	 ebp
  00001	8b ec		 mov	 ebp, esp
  00003	83 ec 64	 sub	 esp, 100		; 00000064H
  00006	53		 push	 ebx
  00007	56		 push	 esi
  00008	57		 push	 edi

; 1559 : 	keysite
; 1560 : 		*raw;
; 1561 : 
; 1562 : 	entity
; 1563 : 		*group,
; 1564 : 		*building,
; 1565 : 		*regen;
; 1566 : 
; 1567 : 	float
; 1568 : 		importance;
; 1569 : 
; 1570 : 	ASSERT (en);

  00009	83 7d 08 00	 cmp	 DWORD PTR _en$[ebp], 0
  0000d	75 18		 jne	 SHORT $LN10@repair_cli
  0000f	a1 00 00 00 00	 mov	 eax, DWORD PTR ?__LINE__Var@?0??repair_client_server_entity_keysite@@YGHPAUENTITY@@@Z@4JA
  00014	83 c0 0c	 add	 eax, 12			; 0000000cH
  00017	50		 push	 eax
  00018	68 00 00 00 00	 push	 OFFSET ??_C@_0EN@PIOGLIPD@c?3?2users?2nhv90?2projects?2eech?2ap@
  0001d	68 00 00 00 00	 push	 OFFSET ??_C@_02LFNMGJAP@en@
  00022	e8 00 00 00 00	 call	 ?process_assert@@YGXPBD0H@Z ; process_assert
$LN10@repair_cli:

; 1571 : 
; 1572 : 	ASSERT (get_comms_model () == COMMS_MODEL_SERVER);

  00027	83 3d 00 00 00
	00 00		 cmp	 DWORD PTR ?system_comms_model@@3W4COMMS_MODEL_TYPES@@A, 0 ; system_comms_model
  0002e	74 18		 je	 SHORT $LN11@repair_cli
  00030	a1 00 00 00 00	 mov	 eax, DWORD PTR ?__LINE__Var@?0??repair_client_server_entity_keysite@@YGHPAUENTITY@@@Z@4JA
  00035	83 c0 0e	 add	 eax, 14			; 0000000eH
  00038	50		 push	 eax
  00039	68 00 00 00 00	 push	 OFFSET ??_C@_0EN@PIOGLIPD@c?3?2users?2nhv90?2projects?2eech?2ap@
  0003e	68 00 00 00 00	 push	 OFFSET ??_C@_0CJ@DMBLBJBK@get_comms_model?5?$CI?$CJ?5?$DN?$DN?5COMMS_MOD@
  00043	e8 00 00 00 00	 call	 ?process_assert@@YGXPBD0H@Z ; process_assert
$LN11@repair_cli:

; 1573 : 
; 1574 : 	raw = (keysite *) get_local_entity_data (en);

  00048	8b 45 08	 mov	 eax, DWORD PTR _en$[ebp]
  0004b	8b 48 04	 mov	 ecx, DWORD PTR [eax+4]
  0004e	89 4d fc	 mov	 DWORD PTR _raw$[ebp], ecx

; 1575 : 	
; 1576 : 	//
; 1577 : 	// Find next structure to repair
; 1578 : 	//
; 1579 : 
; 1580 : 	group = get_local_entity_first_child (en, LIST_TYPE_BUILDING_GROUP);

  00051	83 7d 08 00	 cmp	 DWORD PTR _en$[ebp], 0
  00055	74 0a		 je	 SHORT $LN15@repair_cli
  00057	8b 45 08	 mov	 eax, DWORD PTR _en$[ebp]
  0005a	8b 08		 mov	 ecx, DWORD PTR [eax]
  0005c	89 4d a8	 mov	 DWORD PTR tv81[ebp], ecx
  0005f	eb 21		 jmp	 SHORT $LN16@repair_cli
$LN15@repair_cli:
  00061	8b 15 00 00 00
	00		 mov	 edx, DWORD PTR ?__LINE__Var@?0??repair_client_server_entity_keysite@@YGHPAUENTITY@@@Z@4JA
  00067	83 c2 16	 add	 edx, 22			; 00000016H
  0006a	52		 push	 edx
  0006b	68 00 00 00 00	 push	 OFFSET ??_C@_0EN@PIOGLIPD@c?3?2users?2nhv90?2projects?2eech?2ap@
  00070	a1 00 00 00 00	 mov	 eax, DWORD PTR ?null_entity_pointer_message@@3PBDB ; null_entity_pointer_message
  00075	50		 push	 eax
  00076	e8 00 00 00 00	 call	 ?process_assert@@YGXPBD0H@Z ; process_assert
  0007b	c7 45 a8 00 00
	00 00		 mov	 DWORD PTR tv81[ebp], 0
$LN16@repair_cli:
  00082	b9 01 00 00 00	 mov	 ecx, 1
  00087	85 c9		 test	 ecx, ecx
  00089	74 09		 je	 SHORT $LN17@repair_cli
  0008b	c7 45 a4 04 00
	00 00		 mov	 DWORD PTR tv89[ebp], 4
  00092	eb 21		 jmp	 SHORT $LN18@repair_cli
$LN17@repair_cli:
  00094	8b 15 00 00 00
	00		 mov	 edx, DWORD PTR ?__LINE__Var@?0??repair_client_server_entity_keysite@@YGHPAUENTITY@@@Z@4JA
  0009a	83 c2 16	 add	 edx, 22			; 00000016H
  0009d	52		 push	 edx
  0009e	68 00 00 00 00	 push	 OFFSET ??_C@_0EN@PIOGLIPD@c?3?2users?2nhv90?2projects?2eech?2ap@
  000a3	a1 00 00 00 00	 mov	 eax, DWORD PTR ?overload_invalid_list_type_message@@3PBDB ; overload_invalid_list_type_message
  000a8	50		 push	 eax
  000a9	e8 00 00 00 00	 call	 ?process_assert@@YGXPBD0H@Z ; process_assert
  000ae	c7 45 a4 00 00
	00 00		 mov	 DWORD PTR tv89[ebp], 0
$LN18@repair_cli:
  000b5	6a 04		 push	 4
  000b7	8b 4d 08	 mov	 ecx, DWORD PTR _en$[ebp]
  000ba	51		 push	 ecx
  000bb	69 55 a8 b4 00
	00 00		 imul	 edx, DWORD PTR tv81[ebp], 180
  000c2	8b 45 a4	 mov	 eax, DWORD PTR tv89[ebp]
  000c5	8b 8c 82 00 00
	00 00		 mov	 ecx, DWORD PTR ?fn_get_local_entity_first_child@@3PAY0CN@P6GPAUENTITY@@PAU1@W4LIST_TYPES@@@ZA[edx+eax*4]
  000cc	ff d1		 call	 ecx
  000ce	89 45 f8	 mov	 DWORD PTR _group$[ebp], eax
$LN2@repair_cli:

; 1581 : 
; 1582 : 	while (group)

  000d1	83 7d f8 00	 cmp	 DWORD PTR _group$[ebp], 0
  000d5	0f 84 01 04 00
	00		 je	 $LN3@repair_cli

; 1583 : 	{
; 1584 : 		building = get_local_entity_first_child (group, LIST_TYPE_MEMBER);

  000db	83 7d f8 00	 cmp	 DWORD PTR _group$[ebp], 0
  000df	74 0a		 je	 SHORT $LN19@repair_cli
  000e1	8b 45 f8	 mov	 eax, DWORD PTR _group$[ebp]
  000e4	8b 08		 mov	 ecx, DWORD PTR [eax]
  000e6	89 4d a8	 mov	 DWORD PTR tv134[ebp], ecx
  000e9	eb 21		 jmp	 SHORT $LN20@repair_cli
$LN19@repair_cli:
  000eb	8b 15 00 00 00
	00		 mov	 edx, DWORD PTR ?__LINE__Var@?0??repair_client_server_entity_keysite@@YGHPAUENTITY@@@Z@4JA
  000f1	83 c2 1a	 add	 edx, 26			; 0000001aH
  000f4	52		 push	 edx
  000f5	68 00 00 00 00	 push	 OFFSET ??_C@_0EN@PIOGLIPD@c?3?2users?2nhv90?2projects?2eech?2ap@
  000fa	a1 00 00 00 00	 mov	 eax, DWORD PTR ?null_entity_pointer_message@@3PBDB ; null_entity_pointer_message
  000ff	50		 push	 eax
  00100	e8 00 00 00 00	 call	 ?process_assert@@YGXPBD0H@Z ; process_assert
  00105	c7 45 a8 00 00
	00 00		 mov	 DWORD PTR tv134[ebp], 0
$LN20@repair_cli:
  0010c	b9 01 00 00 00	 mov	 ecx, 1
  00111	85 c9		 test	 ecx, ecx
  00113	74 09		 je	 SHORT $LN21@repair_cli
  00115	c7 45 a4 19 00
	00 00		 mov	 DWORD PTR tv142[ebp], 25 ; 00000019H
  0011c	eb 21		 jmp	 SHORT $LN22@repair_cli
$LN21@repair_cli:
  0011e	8b 15 00 00 00
	00		 mov	 edx, DWORD PTR ?__LINE__Var@?0??repair_client_server_entity_keysite@@YGHPAUENTITY@@@Z@4JA
  00124	83 c2 1a	 add	 edx, 26			; 0000001aH
  00127	52		 push	 edx
  00128	68 00 00 00 00	 push	 OFFSET ??_C@_0EN@PIOGLIPD@c?3?2users?2nhv90?2projects?2eech?2ap@
  0012d	a1 00 00 00 00	 mov	 eax, DWORD PTR ?overload_invalid_list_type_message@@3PBDB ; overload_invalid_list_type_message
  00132	50		 push	 eax
  00133	e8 00 00 00 00	 call	 ?process_assert@@YGXPBD0H@Z ; process_assert
  00138	c7 45 a4 00 00
	00 00		 mov	 DWORD PTR tv142[ebp], 0
$LN22@repair_cli:
  0013f	6a 19		 push	 25			; 00000019H
  00141	8b 4d f8	 mov	 ecx, DWORD PTR _group$[ebp]
  00144	51		 push	 ecx
  00145	69 55 a8 b4 00
	00 00		 imul	 edx, DWORD PTR tv134[ebp], 180
  0014c	8b 45 a4	 mov	 eax, DWORD PTR tv142[ebp]
  0014f	8b 8c 82 00 00
	00 00		 mov	 ecx, DWORD PTR ?fn_get_local_entity_first_child@@3PAY0CN@P6GPAUENTITY@@PAU1@W4LIST_TYPES@@@ZA[edx+eax*4]
  00156	ff d1		 call	 ecx
  00158	89 45 f4	 mov	 DWORD PTR _building$[ebp], eax
$LN4@repair_cli:

; 1585 : 
; 1586 : 		while (building)

  0015b	83 7d f4 00	 cmp	 DWORD PTR _building$[ebp], 0
  0015f	0f 84 f2 02 00
	00		 je	 $LN5@repair_cli

; 1587 : 		{
; 1588 : 			if (!get_local_entity_int_value (building, INT_TYPE_ALIVE))

  00165	83 7d f4 00	 cmp	 DWORD PTR _building$[ebp], 0
  00169	74 0a		 je	 SHORT $LN23@repair_cli
  0016b	8b 45 f4	 mov	 eax, DWORD PTR _building$[ebp]
  0016e	8b 08		 mov	 ecx, DWORD PTR [eax]
  00170	89 4d a8	 mov	 DWORD PTR tv154[ebp], ecx
  00173	eb 1d		 jmp	 SHORT $LN24@repair_cli
$LN23@repair_cli:
  00175	68 34 06 00 00	 push	 1588			; 00000634H
  0017a	68 00 00 00 00	 push	 OFFSET ??_C@_0EN@PIOGLIPD@c?3?2users?2nhv90?2projects?2eech?2ap@
  0017f	8b 15 00 00 00
	00		 mov	 edx, DWORD PTR ?null_entity_pointer_message@@3PBDB ; null_entity_pointer_message
  00185	52		 push	 edx
  00186	e8 00 00 00 00	 call	 ?process_assert@@YGXPBD0H@Z ; process_assert
  0018b	c7 45 a8 00 00
	00 00		 mov	 DWORD PTR tv154[ebp], 0
$LN24@repair_cli:
  00192	b8 01 00 00 00	 mov	 eax, 1
  00197	85 c0		 test	 eax, eax
  00199	74 09		 je	 SHORT $LN25@repair_cli
  0019b	c7 45 a4 07 00
	00 00		 mov	 DWORD PTR tv161[ebp], 7
  001a2	eb 1d		 jmp	 SHORT $LN26@repair_cli
$LN25@repair_cli:
  001a4	68 34 06 00 00	 push	 1588			; 00000634H
  001a9	68 00 00 00 00	 push	 OFFSET ??_C@_0EN@PIOGLIPD@c?3?2users?2nhv90?2projects?2eech?2ap@
  001ae	8b 0d 00 00 00
	00		 mov	 ecx, DWORD PTR ?overload_invalid_int_type_message@@3PBDB ; overload_invalid_int_type_message
  001b4	51		 push	 ecx
  001b5	e8 00 00 00 00	 call	 ?process_assert@@YGXPBD0H@Z ; process_assert
  001ba	c7 45 a4 00 00
	00 00		 mov	 DWORD PTR tv161[ebp], 0
$LN26@repair_cli:
  001c1	6a 07		 push	 7
  001c3	8b 55 f4	 mov	 edx, DWORD PTR _building$[ebp]
  001c6	52		 push	 edx
  001c7	69 45 a8 5c 04
	00 00		 imul	 eax, DWORD PTR tv154[ebp], 1116
  001ce	8b 4d a4	 mov	 ecx, DWORD PTR tv161[ebp]
  001d1	8b 94 88 00 00
	00 00		 mov	 edx, DWORD PTR ?fn_get_local_entity_int_value@@3PAY0BBH@P6GHPAUENTITY@@W4INT_TYPES@@@ZA[eax+ecx*4]
  001d8	ff d2		 call	 edx
  001da	85 c0		 test	 eax, eax
  001dc	0f 85 f0 01 00
	00		 jne	 $LN12@repair_cli

; 1589 : 			{
; 1590 : 				//
; 1591 : 				// Repair building
; 1592 : 				//
; 1593 : 				
; 1594 : 				restore_local_fixed_entity (building);

  001e2	8b 45 f4	 mov	 eax, DWORD PTR _building$[ebp]
  001e5	50		 push	 eax
  001e6	e8 00 00 00 00	 call	 ?restore_local_fixed_entity@@YGXPAUENTITY@@@Z ; restore_local_fixed_entity

; 1595 : 
; 1596 : 				transmit_entity_comms_message (ENTITY_COMMS_RESTORE_FIXED_ENTITY, building);

  001eb	8b 45 f4	 mov	 eax, DWORD PTR _building$[ebp]
  001ee	50		 push	 eax
  001ef	6a 2d		 push	 45			; 0000002dH
  001f1	e8 00 00 00 00	 call	 ?transmit_entity_comms_message@@YAXW4ENTITY_COMMS_MESSAGES@@PAUENTITY@@ZZ ; transmit_entity_comms_message
  001f6	83 c4 08	 add	 esp, 8

; 1597 : 
; 1598 : 				//
; 1599 : 				// Set timer
; 1600 : 				//
; 1601 : 
; 1602 : 				importance = get_local_entity_float_value (building, FLOAT_TYPE_FIXED_OBJECT_IMPORTANCE);

  001f9	83 7d f4 00	 cmp	 DWORD PTR _building$[ebp], 0
  001fd	74 0a		 je	 SHORT $LN27@repair_cli
  001ff	8b 45 f4	 mov	 eax, DWORD PTR _building$[ebp]
  00202	8b 08		 mov	 ecx, DWORD PTR [eax]
  00204	89 4d a8	 mov	 DWORD PTR tv177[ebp], ecx
  00207	eb 21		 jmp	 SHORT $LN28@repair_cli
$LN27@repair_cli:
  00209	8b 15 00 00 00
	00		 mov	 edx, DWORD PTR ?__LINE__Var@?0??repair_client_server_entity_keysite@@YGHPAUENTITY@@@Z@4JA
  0020f	83 c2 2c	 add	 edx, 44			; 0000002cH
  00212	52		 push	 edx
  00213	68 00 00 00 00	 push	 OFFSET ??_C@_0EN@PIOGLIPD@c?3?2users?2nhv90?2projects?2eech?2ap@
  00218	a1 00 00 00 00	 mov	 eax, DWORD PTR ?null_entity_pointer_message@@3PBDB ; null_entity_pointer_message
  0021d	50		 push	 eax
  0021e	e8 00 00 00 00	 call	 ?process_assert@@YGXPBD0H@Z ; process_assert
  00223	c7 45 a8 00 00
	00 00		 mov	 DWORD PTR tv177[ebp], 0
$LN28@repair_cli:
  0022a	b9 01 00 00 00	 mov	 ecx, 1
  0022f	85 c9		 test	 ecx, ecx
  00231	74 09		 je	 SHORT $LN29@repair_cli
  00233	c7 45 a4 27 00
	00 00		 mov	 DWORD PTR tv185[ebp], 39 ; 00000027H
  0023a	eb 21		 jmp	 SHORT $LN30@repair_cli
$LN29@repair_cli:
  0023c	8b 15 00 00 00
	00		 mov	 edx, DWORD PTR ?__LINE__Var@?0??repair_client_server_entity_keysite@@YGHPAUENTITY@@@Z@4JA
  00242	83 c2 2c	 add	 edx, 44			; 0000002cH
  00245	52		 push	 edx
  00246	68 00 00 00 00	 push	 OFFSET ??_C@_0EN@PIOGLIPD@c?3?2users?2nhv90?2projects?2eech?2ap@
  0024b	a1 00 00 00 00	 mov	 eax, DWORD PTR ?overload_invalid_float_type_message@@3PBDB ; overload_invalid_float_type_message
  00250	50		 push	 eax
  00251	e8 00 00 00 00	 call	 ?process_assert@@YGXPBD0H@Z ; process_assert
  00256	c7 45 a4 00 00
	00 00		 mov	 DWORD PTR tv185[ebp], 0
$LN30@repair_cli:
  0025d	6a 27		 push	 39			; 00000027H
  0025f	8b 4d f4	 mov	 ecx, DWORD PTR _building$[ebp]
  00262	51		 push	 ecx
  00263	69 55 a8 bc 02
	00 00		 imul	 edx, DWORD PTR tv177[ebp], 700
  0026a	8b 45 a4	 mov	 eax, DWORD PTR tv185[ebp]
  0026d	8b 8c 82 00 00
	00 00		 mov	 ecx, DWORD PTR ?fn_get_local_entity_float_value@@3PAY0KP@P6GMPAUENTITY@@W4FLOAT_TYPES@@@ZA[edx+eax*4]
  00274	ff d1		 call	 ecx
  00276	d9 5d ec	 fstp	 DWORD PTR _importance$[ebp]

; 1603 : 
; 1604 : 				raw->repair_timer = (10.0 * ONE_MINUTE);

  00279	8b 45 fc	 mov	 eax, DWORD PTR _raw$[ebp]
  0027c	f3 0f 10 05 00
	00 00 00	 movss	 xmm0, DWORD PTR __real@44160000
  00284	f3 0f 11 40 7c	 movss	 DWORD PTR [eax+124], xmm0

; 1605 : 
; 1606 : 				ai_log ("(KEYSITE) REPAIRED %s at keysite %s (importance %f) (strength %f / %f)",

  00289	83 7d 08 00	 cmp	 DWORD PTR _en$[ebp], 0
  0028d	74 0a		 je	 SHORT $LN31@repair_cli
  0028f	8b 45 08	 mov	 eax, DWORD PTR _en$[ebp]
  00292	8b 08		 mov	 ecx, DWORD PTR [eax]
  00294	89 4d a8	 mov	 DWORD PTR tv206[ebp], ecx
  00297	eb 21		 jmp	 SHORT $LN32@repair_cli
$LN31@repair_cli:
  00299	8b 15 00 00 00
	00		 mov	 edx, DWORD PTR ?__LINE__Var@?0??repair_client_server_entity_keysite@@YGHPAUENTITY@@@Z@4JA
  0029f	83 c2 32	 add	 edx, 50			; 00000032H
  002a2	52		 push	 edx
  002a3	68 00 00 00 00	 push	 OFFSET ??_C@_0EN@PIOGLIPD@c?3?2users?2nhv90?2projects?2eech?2ap@
  002a8	a1 00 00 00 00	 mov	 eax, DWORD PTR ?null_entity_pointer_message@@3PBDB ; null_entity_pointer_message
  002ad	50		 push	 eax
  002ae	e8 00 00 00 00	 call	 ?process_assert@@YGXPBD0H@Z ; process_assert
  002b3	c7 45 a8 00 00
	00 00		 mov	 DWORD PTR tv206[ebp], 0
$LN32@repair_cli:
  002ba	b9 01 00 00 00	 mov	 ecx, 1
  002bf	85 c9		 test	 ecx, ecx
  002c1	74 09		 je	 SHORT $LN33@repair_cli
  002c3	c7 45 a4 07 00
	00 00		 mov	 DWORD PTR tv214[ebp], 7
  002ca	eb 21		 jmp	 SHORT $LN34@repair_cli
$LN33@repair_cli:
  002cc	8b 15 00 00 00
	00		 mov	 edx, DWORD PTR ?__LINE__Var@?0??repair_client_server_entity_keysite@@YGHPAUENTITY@@@Z@4JA
  002d2	83 c2 32	 add	 edx, 50			; 00000032H
  002d5	52		 push	 edx
  002d6	68 00 00 00 00	 push	 OFFSET ??_C@_0EN@PIOGLIPD@c?3?2users?2nhv90?2projects?2eech?2ap@
  002db	a1 00 00 00 00	 mov	 eax, DWORD PTR ?overload_invalid_string_type_message@@3PBDB ; overload_invalid_string_type_message
  002e0	50		 push	 eax
  002e1	e8 00 00 00 00	 call	 ?process_assert@@YGXPBD0H@Z ; process_assert
  002e6	c7 45 a4 00 00
	00 00		 mov	 DWORD PTR tv214[ebp], 0
$LN34@repair_cli:
  002ed	83 7d f4 00	 cmp	 DWORD PTR _building$[ebp], 0
  002f1	74 0a		 je	 SHORT $LN35@repair_cli
  002f3	8b 4d f4	 mov	 ecx, DWORD PTR _building$[ebp]
  002f6	8b 11		 mov	 edx, DWORD PTR [ecx]
  002f8	89 55 a0	 mov	 DWORD PTR tv227[ebp], edx
  002fb	eb 21		 jmp	 SHORT $LN36@repair_cli
$LN35@repair_cli:
  002fd	a1 00 00 00 00	 mov	 eax, DWORD PTR ?__LINE__Var@?0??repair_client_server_entity_keysite@@YGHPAUENTITY@@@Z@4JA
  00302	83 c0 31	 add	 eax, 49			; 00000031H
  00305	50		 push	 eax
  00306	68 00 00 00 00	 push	 OFFSET ??_C@_0EN@PIOGLIPD@c?3?2users?2nhv90?2projects?2eech?2ap@
  0030b	8b 0d 00 00 00
	00		 mov	 ecx, DWORD PTR ?null_entity_pointer_message@@3PBDB ; null_entity_pointer_message
  00311	51		 push	 ecx
  00312	e8 00 00 00 00	 call	 ?process_assert@@YGXPBD0H@Z ; process_assert
  00317	c7 45 a0 00 00
	00 00		 mov	 DWORD PTR tv227[ebp], 0
$LN36@repair_cli:
  0031e	ba 01 00 00 00	 mov	 edx, 1
  00323	85 d2		 test	 edx, edx
  00325	74 09		 je	 SHORT $LN37@repair_cli
  00327	c7 45 9c 92 00
	00 00		 mov	 DWORD PTR tv235[ebp], 146 ; 00000092H
  0032e	eb 21		 jmp	 SHORT $LN38@repair_cli
$LN37@repair_cli:
  00330	a1 00 00 00 00	 mov	 eax, DWORD PTR ?__LINE__Var@?0??repair_client_server_entity_keysite@@YGHPAUENTITY@@@Z@4JA
  00335	83 c0 31	 add	 eax, 49			; 00000031H
  00338	50		 push	 eax
  00339	68 00 00 00 00	 push	 OFFSET ??_C@_0EN@PIOGLIPD@c?3?2users?2nhv90?2projects?2eech?2ap@
  0033e	8b 0d 00 00 00
	00		 mov	 ecx, DWORD PTR ?overload_invalid_int_type_message@@3PBDB ; overload_invalid_int_type_message
  00344	51		 push	 ecx
  00345	e8 00 00 00 00	 call	 ?process_assert@@YGXPBD0H@Z ; process_assert
  0034a	c7 45 9c 00 00
	00 00		 mov	 DWORD PTR tv235[ebp], 0
$LN38@repair_cli:
  00351	8b 55 fc	 mov	 edx, DWORD PTR _raw$[ebp]
  00354	f3 0f 5a 42 78	 cvtss2sd xmm0, DWORD PTR [edx+120]
  00359	83 ec 08	 sub	 esp, 8
  0035c	f2 0f 11 04 24	 movsd	 QWORD PTR [esp], xmm0
  00361	8b 45 fc	 mov	 eax, DWORD PTR _raw$[ebp]
  00364	f3 0f 5a 40 74	 cvtss2sd xmm0, DWORD PTR [eax+116]
  00369	83 ec 08	 sub	 esp, 8
  0036c	f2 0f 11 04 24	 movsd	 QWORD PTR [esp], xmm0
  00371	f3 0f 5a 45 ec	 cvtss2sd xmm0, DWORD PTR _importance$[ebp]
  00376	83 ec 08	 sub	 esp, 8
  00379	f2 0f 11 04 24	 movsd	 QWORD PTR [esp], xmm0
  0037e	6a 07		 push	 7
  00380	8b 4d 08	 mov	 ecx, DWORD PTR _en$[ebp]
  00383	51		 push	 ecx
  00384	6b 55 a8 34	 imul	 edx, DWORD PTR tv206[ebp], 52
  00388	8b 45 a4	 mov	 eax, DWORD PTR tv214[ebp]
  0038b	8b 8c 82 00 00
	00 00		 mov	 ecx, DWORD PTR ?fn_get_local_entity_string@@3PAY0N@P6GPBDPAUENTITY@@W4STRING_TYPES@@@ZA[edx+eax*4]
  00392	ff d1		 call	 ecx
  00394	50		 push	 eax
  00395	68 92 00 00 00	 push	 146			; 00000092H
  0039a	8b 55 f4	 mov	 edx, DWORD PTR _building$[ebp]
  0039d	52		 push	 edx
  0039e	69 45 a0 5c 04
	00 00		 imul	 eax, DWORD PTR tv227[ebp], 1116
  003a5	8b 4d 9c	 mov	 ecx, DWORD PTR tv235[ebp]
  003a8	8b 94 88 00 00
	00 00		 mov	 edx, DWORD PTR ?fn_get_local_entity_int_value@@3PAY0BBH@P6GHPAUENTITY@@W4INT_TYPES@@@ZA[eax+ecx*4]
  003af	ff d2		 call	 edx
  003b1	8b 0d 00 00 00
	00		 mov	 ecx, DWORD PTR ?object_3d_enumeration_names@@3PAPBDA ; object_3d_enumeration_names
  003b7	8b 14 81	 mov	 edx, DWORD PTR [ecx+eax*4]
  003ba	52		 push	 edx
  003bb	68 00 00 00 00	 push	 OFFSET ??_C@_0EH@KBDJFAII@?$CIKEYSITE?$CJ?5REPAIRED?5?$CFs?5at?5keysit@
  003c0	e8 00 00 00 00	 call	 ?ai_log@@YAXPBDZZ	; ai_log
  003c5	83 c4 24	 add	 esp, 36			; 00000024H

; 1607 : 								object_3d_enumeration_names [get_local_entity_int_value (building, INT_TYPE_OBJECT_3D_SHAPE)],
; 1608 : 								get_local_entity_string (en, STRING_TYPE_KEYSITE_NAME),
; 1609 : 								importance,
; 1610 : 								raw->keysite_strength, raw->keysite_maximum_strength);
; 1611 : 
; 1612 : 				return TRUE;

  003c8	b8 01 00 00 00	 mov	 eax, 1
  003cd	e9 3f 06 00 00	 jmp	 $LN1@repair_cli
$LN12@repair_cli:

; 1613 : 			}
; 1614 : 
; 1615 : 			building = get_local_entity_child_succ (building, LIST_TYPE_MEMBER);

  003d2	83 7d f4 00	 cmp	 DWORD PTR _building$[ebp], 0
  003d6	74 0a		 je	 SHORT $LN39@repair_cli
  003d8	8b 45 f4	 mov	 eax, DWORD PTR _building$[ebp]
  003db	8b 08		 mov	 ecx, DWORD PTR [eax]
  003dd	89 4d a8	 mov	 DWORD PTR tv251[ebp], ecx
  003e0	eb 21		 jmp	 SHORT $LN40@repair_cli
$LN39@repair_cli:
  003e2	8b 15 00 00 00
	00		 mov	 edx, DWORD PTR ?__LINE__Var@?0??repair_client_server_entity_keysite@@YGHPAUENTITY@@@Z@4JA
  003e8	83 c2 39	 add	 edx, 57			; 00000039H
  003eb	52		 push	 edx
  003ec	68 00 00 00 00	 push	 OFFSET ??_C@_0EN@PIOGLIPD@c?3?2users?2nhv90?2projects?2eech?2ap@
  003f1	a1 00 00 00 00	 mov	 eax, DWORD PTR ?null_entity_pointer_message@@3PBDB ; null_entity_pointer_message
  003f6	50		 push	 eax
  003f7	e8 00 00 00 00	 call	 ?process_assert@@YGXPBD0H@Z ; process_assert
  003fc	c7 45 a8 00 00
	00 00		 mov	 DWORD PTR tv251[ebp], 0
$LN40@repair_cli:
  00403	b9 01 00 00 00	 mov	 ecx, 1
  00408	85 c9		 test	 ecx, ecx
  0040a	74 09		 je	 SHORT $LN41@repair_cli
  0040c	c7 45 a4 19 00
	00 00		 mov	 DWORD PTR tv259[ebp], 25 ; 00000019H
  00413	eb 21		 jmp	 SHORT $LN42@repair_cli
$LN41@repair_cli:
  00415	8b 15 00 00 00
	00		 mov	 edx, DWORD PTR ?__LINE__Var@?0??repair_client_server_entity_keysite@@YGHPAUENTITY@@@Z@4JA
  0041b	83 c2 39	 add	 edx, 57			; 00000039H
  0041e	52		 push	 edx
  0041f	68 00 00 00 00	 push	 OFFSET ??_C@_0EN@PIOGLIPD@c?3?2users?2nhv90?2projects?2eech?2ap@
  00424	a1 00 00 00 00	 mov	 eax, DWORD PTR ?overload_invalid_list_type_message@@3PBDB ; overload_invalid_list_type_message
  00429	50		 push	 eax
  0042a	e8 00 00 00 00	 call	 ?process_assert@@YGXPBD0H@Z ; process_assert
  0042f	c7 45 a4 00 00
	00 00		 mov	 DWORD PTR tv259[ebp], 0
$LN42@repair_cli:
  00436	6a 19		 push	 25			; 00000019H
  00438	8b 4d f4	 mov	 ecx, DWORD PTR _building$[ebp]
  0043b	51		 push	 ecx
  0043c	69 55 a8 b4 00
	00 00		 imul	 edx, DWORD PTR tv251[ebp], 180
  00443	8b 45 a4	 mov	 eax, DWORD PTR tv259[ebp]
  00446	8b 8c 82 00 00
	00 00		 mov	 ecx, DWORD PTR ?fn_get_local_entity_child_succ@@3PAY0CN@P6GPAUENTITY@@PAU1@W4LIST_TYPES@@@ZA[edx+eax*4]
  0044d	ff d1		 call	 ecx
  0044f	89 45 f4	 mov	 DWORD PTR _building$[ebp], eax

; 1616 : 		}

  00452	e9 04 fd ff ff	 jmp	 $LN4@repair_cli
$LN5@repair_cli:

; 1617 : 
; 1618 : 		group = get_local_entity_child_succ (group, LIST_TYPE_BUILDING_GROUP);

  00457	83 7d f8 00	 cmp	 DWORD PTR _group$[ebp], 0
  0045b	74 0a		 je	 SHORT $LN43@repair_cli
  0045d	8b 45 f8	 mov	 eax, DWORD PTR _group$[ebp]
  00460	8b 08		 mov	 ecx, DWORD PTR [eax]
  00462	89 4d a8	 mov	 DWORD PTR tv271[ebp], ecx
  00465	eb 21		 jmp	 SHORT $LN44@repair_cli
$LN43@repair_cli:
  00467	8b 15 00 00 00
	00		 mov	 edx, DWORD PTR ?__LINE__Var@?0??repair_client_server_entity_keysite@@YGHPAUENTITY@@@Z@4JA
  0046d	83 c2 3c	 add	 edx, 60			; 0000003cH
  00470	52		 push	 edx
  00471	68 00 00 00 00	 push	 OFFSET ??_C@_0EN@PIOGLIPD@c?3?2users?2nhv90?2projects?2eech?2ap@
  00476	a1 00 00 00 00	 mov	 eax, DWORD PTR ?null_entity_pointer_message@@3PBDB ; null_entity_pointer_message
  0047b	50		 push	 eax
  0047c	e8 00 00 00 00	 call	 ?process_assert@@YGXPBD0H@Z ; process_assert
  00481	c7 45 a8 00 00
	00 00		 mov	 DWORD PTR tv271[ebp], 0
$LN44@repair_cli:
  00488	b9 01 00 00 00	 mov	 ecx, 1
  0048d	85 c9		 test	 ecx, ecx
  0048f	74 09		 je	 SHORT $LN45@repair_cli
  00491	c7 45 a4 04 00
	00 00		 mov	 DWORD PTR tv279[ebp], 4
  00498	eb 21		 jmp	 SHORT $LN46@repair_cli
$LN45@repair_cli:
  0049a	8b 15 00 00 00
	00		 mov	 edx, DWORD PTR ?__LINE__Var@?0??repair_client_server_entity_keysite@@YGHPAUENTITY@@@Z@4JA
  004a0	83 c2 3c	 add	 edx, 60			; 0000003cH
  004a3	52		 push	 edx
  004a4	68 00 00 00 00	 push	 OFFSET ??_C@_0EN@PIOGLIPD@c?3?2users?2nhv90?2projects?2eech?2ap@
  004a9	a1 00 00 00 00	 mov	 eax, DWORD PTR ?overload_invalid_list_type_message@@3PBDB ; overload_invalid_list_type_message
  004ae	50		 push	 eax
  004af	e8 00 00 00 00	 call	 ?process_assert@@YGXPBD0H@Z ; process_assert
  004b4	c7 45 a4 00 00
	00 00		 mov	 DWORD PTR tv279[ebp], 0
$LN46@repair_cli:
  004bb	6a 04		 push	 4
  004bd	8b 4d f8	 mov	 ecx, DWORD PTR _group$[ebp]
  004c0	51		 push	 ecx
  004c1	69 55 a8 b4 00
	00 00		 imul	 edx, DWORD PTR tv271[ebp], 180
  004c8	8b 45 a4	 mov	 eax, DWORD PTR tv279[ebp]
  004cb	8b 8c 82 00 00
	00 00		 mov	 ecx, DWORD PTR ?fn_get_local_entity_child_succ@@3PAY0CN@P6GPAUENTITY@@PAU1@W4LIST_TYPES@@@ZA[edx+eax*4]
  004d2	ff d1		 call	 ecx
  004d4	89 45 f8	 mov	 DWORD PTR _group$[ebp], eax

; 1619 : 	}

  004d7	e9 f5 fb ff ff	 jmp	 $LN2@repair_cli
$LN3@repair_cli:

; 1620 : 
; 1621 : 	//
; 1622 : 	// No normal structures found - check regen
; 1623 : 	//
; 1624 : 
; 1625 : 	regen = get_local_entity_first_child (en, LIST_TYPE_REGEN);

  004dc	83 7d 08 00	 cmp	 DWORD PTR _en$[ebp], 0
  004e0	74 0a		 je	 SHORT $LN47@repair_cli
  004e2	8b 45 08	 mov	 eax, DWORD PTR _en$[ebp]
  004e5	8b 08		 mov	 ecx, DWORD PTR [eax]
  004e7	89 4d a8	 mov	 DWORD PTR tv291[ebp], ecx
  004ea	eb 21		 jmp	 SHORT $LN48@repair_cli
$LN47@repair_cli:
  004ec	8b 15 00 00 00
	00		 mov	 edx, DWORD PTR ?__LINE__Var@?0??repair_client_server_entity_keysite@@YGHPAUENTITY@@@Z@4JA
  004f2	83 c2 43	 add	 edx, 67			; 00000043H
  004f5	52		 push	 edx
  004f6	68 00 00 00 00	 push	 OFFSET ??_C@_0EN@PIOGLIPD@c?3?2users?2nhv90?2projects?2eech?2ap@
  004fb	a1 00 00 00 00	 mov	 eax, DWORD PTR ?null_entity_pointer_message@@3PBDB ; null_entity_pointer_message
  00500	50		 push	 eax
  00501	e8 00 00 00 00	 call	 ?process_assert@@YGXPBD0H@Z ; process_assert
  00506	c7 45 a8 00 00
	00 00		 mov	 DWORD PTR tv291[ebp], 0
$LN48@repair_cli:
  0050d	b9 01 00 00 00	 mov	 ecx, 1
  00512	85 c9		 test	 ecx, ecx
  00514	74 09		 je	 SHORT $LN49@repair_cli
  00516	c7 45 a4 1f 00
	00 00		 mov	 DWORD PTR tv299[ebp], 31 ; 0000001fH
  0051d	eb 21		 jmp	 SHORT $LN50@repair_cli
$LN49@repair_cli:
  0051f	8b 15 00 00 00
	00		 mov	 edx, DWORD PTR ?__LINE__Var@?0??repair_client_server_entity_keysite@@YGHPAUENTITY@@@Z@4JA
  00525	83 c2 43	 add	 edx, 67			; 00000043H
  00528	52		 push	 edx
  00529	68 00 00 00 00	 push	 OFFSET ??_C@_0EN@PIOGLIPD@c?3?2users?2nhv90?2projects?2eech?2ap@
  0052e	a1 00 00 00 00	 mov	 eax, DWORD PTR ?overload_invalid_list_type_message@@3PBDB ; overload_invalid_list_type_message
  00533	50		 push	 eax
  00534	e8 00 00 00 00	 call	 ?process_assert@@YGXPBD0H@Z ; process_assert
  00539	c7 45 a4 00 00
	00 00		 mov	 DWORD PTR tv299[ebp], 0
$LN50@repair_cli:
  00540	6a 1f		 push	 31			; 0000001fH
  00542	8b 4d 08	 mov	 ecx, DWORD PTR _en$[ebp]
  00545	51		 push	 ecx
  00546	69 55 a8 b4 00
	00 00		 imul	 edx, DWORD PTR tv291[ebp], 180
  0054d	8b 45 a4	 mov	 eax, DWORD PTR tv299[ebp]
  00550	8b 8c 82 00 00
	00 00		 mov	 ecx, DWORD PTR ?fn_get_local_entity_first_child@@3PAY0CN@P6GPAUENTITY@@PAU1@W4LIST_TYPES@@@ZA[edx+eax*4]
  00557	ff d1		 call	 ecx
  00559	89 45 f0	 mov	 DWORD PTR _regen$[ebp], eax
$LN6@repair_cli:

; 1626 : 
; 1627 : 	while (regen)

  0055c	83 7d f0 00	 cmp	 DWORD PTR _regen$[ebp], 0
  00560	0f 84 01 04 00
	00		 je	 $LN7@repair_cli

; 1628 : 	{
; 1629 : 		building = get_local_entity_first_child (regen, LIST_TYPE_MEMBER);

  00566	83 7d f0 00	 cmp	 DWORD PTR _regen$[ebp], 0
  0056a	74 0a		 je	 SHORT $LN51@repair_cli
  0056c	8b 45 f0	 mov	 eax, DWORD PTR _regen$[ebp]
  0056f	8b 08		 mov	 ecx, DWORD PTR [eax]
  00571	89 4d a8	 mov	 DWORD PTR tv312[ebp], ecx
  00574	eb 21		 jmp	 SHORT $LN52@repair_cli
$LN51@repair_cli:
  00576	8b 15 00 00 00
	00		 mov	 edx, DWORD PTR ?__LINE__Var@?0??repair_client_server_entity_keysite@@YGHPAUENTITY@@@Z@4JA
  0057c	83 c2 47	 add	 edx, 71			; 00000047H
  0057f	52		 push	 edx
  00580	68 00 00 00 00	 push	 OFFSET ??_C@_0EN@PIOGLIPD@c?3?2users?2nhv90?2projects?2eech?2ap@
  00585	a1 00 00 00 00	 mov	 eax, DWORD PTR ?null_entity_pointer_message@@3PBDB ; null_entity_pointer_message
  0058a	50		 push	 eax
  0058b	e8 00 00 00 00	 call	 ?process_assert@@YGXPBD0H@Z ; process_assert
  00590	c7 45 a8 00 00
	00 00		 mov	 DWORD PTR tv312[ebp], 0
$LN52@repair_cli:
  00597	b9 01 00 00 00	 mov	 ecx, 1
  0059c	85 c9		 test	 ecx, ecx
  0059e	74 09		 je	 SHORT $LN53@repair_cli
  005a0	c7 45 a4 19 00
	00 00		 mov	 DWORD PTR tv320[ebp], 25 ; 00000019H
  005a7	eb 21		 jmp	 SHORT $LN54@repair_cli
$LN53@repair_cli:
  005a9	8b 15 00 00 00
	00		 mov	 edx, DWORD PTR ?__LINE__Var@?0??repair_client_server_entity_keysite@@YGHPAUENTITY@@@Z@4JA
  005af	83 c2 47	 add	 edx, 71			; 00000047H
  005b2	52		 push	 edx
  005b3	68 00 00 00 00	 push	 OFFSET ??_C@_0EN@PIOGLIPD@c?3?2users?2nhv90?2projects?2eech?2ap@
  005b8	a1 00 00 00 00	 mov	 eax, DWORD PTR ?overload_invalid_list_type_message@@3PBDB ; overload_invalid_list_type_message
  005bd	50		 push	 eax
  005be	e8 00 00 00 00	 call	 ?process_assert@@YGXPBD0H@Z ; process_assert
  005c3	c7 45 a4 00 00
	00 00		 mov	 DWORD PTR tv320[ebp], 0
$LN54@repair_cli:
  005ca	6a 19		 push	 25			; 00000019H
  005cc	8b 4d f0	 mov	 ecx, DWORD PTR _regen$[ebp]
  005cf	51		 push	 ecx
  005d0	69 55 a8 b4 00
	00 00		 imul	 edx, DWORD PTR tv312[ebp], 180
  005d7	8b 45 a4	 mov	 eax, DWORD PTR tv320[ebp]
  005da	8b 8c 82 00 00
	00 00		 mov	 ecx, DWORD PTR ?fn_get_local_entity_first_child@@3PAY0CN@P6GPAUENTITY@@PAU1@W4LIST_TYPES@@@ZA[edx+eax*4]
  005e1	ff d1		 call	 ecx
  005e3	89 45 f4	 mov	 DWORD PTR _building$[ebp], eax
$LN8@repair_cli:

; 1630 : 
; 1631 : 		while (building)

  005e6	83 7d f4 00	 cmp	 DWORD PTR _building$[ebp], 0
  005ea	0f 84 f2 02 00
	00		 je	 $LN9@repair_cli

; 1632 : 		{
; 1633 : 			if (!get_local_entity_int_value (building, INT_TYPE_ALIVE))

  005f0	83 7d f4 00	 cmp	 DWORD PTR _building$[ebp], 0
  005f4	74 0a		 je	 SHORT $LN55@repair_cli
  005f6	8b 45 f4	 mov	 eax, DWORD PTR _building$[ebp]
  005f9	8b 08		 mov	 ecx, DWORD PTR [eax]
  005fb	89 4d a8	 mov	 DWORD PTR tv332[ebp], ecx
  005fe	eb 1d		 jmp	 SHORT $LN56@repair_cli
$LN55@repair_cli:
  00600	68 61 06 00 00	 push	 1633			; 00000661H
  00605	68 00 00 00 00	 push	 OFFSET ??_C@_0EN@PIOGLIPD@c?3?2users?2nhv90?2projects?2eech?2ap@
  0060a	8b 15 00 00 00
	00		 mov	 edx, DWORD PTR ?null_entity_pointer_message@@3PBDB ; null_entity_pointer_message
  00610	52		 push	 edx
  00611	e8 00 00 00 00	 call	 ?process_assert@@YGXPBD0H@Z ; process_assert
  00616	c7 45 a8 00 00
	00 00		 mov	 DWORD PTR tv332[ebp], 0
$LN56@repair_cli:
  0061d	b8 01 00 00 00	 mov	 eax, 1
  00622	85 c0		 test	 eax, eax
  00624	74 09		 je	 SHORT $LN57@repair_cli
  00626	c7 45 a4 07 00
	00 00		 mov	 DWORD PTR tv339[ebp], 7
  0062d	eb 1d		 jmp	 SHORT $LN58@repair_cli
$LN57@repair_cli:
  0062f	68 61 06 00 00	 push	 1633			; 00000661H
  00634	68 00 00 00 00	 push	 OFFSET ??_C@_0EN@PIOGLIPD@c?3?2users?2nhv90?2projects?2eech?2ap@
  00639	8b 0d 00 00 00
	00		 mov	 ecx, DWORD PTR ?overload_invalid_int_type_message@@3PBDB ; overload_invalid_int_type_message
  0063f	51		 push	 ecx
  00640	e8 00 00 00 00	 call	 ?process_assert@@YGXPBD0H@Z ; process_assert
  00645	c7 45 a4 00 00
	00 00		 mov	 DWORD PTR tv339[ebp], 0
$LN58@repair_cli:
  0064c	6a 07		 push	 7
  0064e	8b 55 f4	 mov	 edx, DWORD PTR _building$[ebp]
  00651	52		 push	 edx
  00652	69 45 a8 5c 04
	00 00		 imul	 eax, DWORD PTR tv332[ebp], 1116
  00659	8b 4d a4	 mov	 ecx, DWORD PTR tv339[ebp]
  0065c	8b 94 88 00 00
	00 00		 mov	 edx, DWORD PTR ?fn_get_local_entity_int_value@@3PAY0BBH@P6GHPAUENTITY@@W4INT_TYPES@@@ZA[eax+ecx*4]
  00663	ff d2		 call	 edx
  00665	85 c0		 test	 eax, eax
  00667	0f 85 f0 01 00
	00		 jne	 $LN13@repair_cli

; 1634 : 			{
; 1635 : 				//
; 1636 : 				// Repair building
; 1637 : 				//
; 1638 : 				
; 1639 : 				restore_local_fixed_entity (building);

  0066d	8b 45 f4	 mov	 eax, DWORD PTR _building$[ebp]
  00670	50		 push	 eax
  00671	e8 00 00 00 00	 call	 ?restore_local_fixed_entity@@YGXPAUENTITY@@@Z ; restore_local_fixed_entity

; 1640 : 
; 1641 : 				transmit_entity_comms_message (ENTITY_COMMS_RESTORE_FIXED_ENTITY, building);

  00676	8b 45 f4	 mov	 eax, DWORD PTR _building$[ebp]
  00679	50		 push	 eax
  0067a	6a 2d		 push	 45			; 0000002dH
  0067c	e8 00 00 00 00	 call	 ?transmit_entity_comms_message@@YAXW4ENTITY_COMMS_MESSAGES@@PAUENTITY@@ZZ ; transmit_entity_comms_message
  00681	83 c4 08	 add	 esp, 8

; 1642 : 
; 1643 : 				//
; 1644 : 				// Set timer
; 1645 : 				//
; 1646 : 
; 1647 : 				importance = get_local_entity_float_value (building, FLOAT_TYPE_FIXED_OBJECT_IMPORTANCE);

  00684	83 7d f4 00	 cmp	 DWORD PTR _building$[ebp], 0
  00688	74 0a		 je	 SHORT $LN59@repair_cli
  0068a	8b 45 f4	 mov	 eax, DWORD PTR _building$[ebp]
  0068d	8b 08		 mov	 ecx, DWORD PTR [eax]
  0068f	89 4d a8	 mov	 DWORD PTR tv355[ebp], ecx
  00692	eb 21		 jmp	 SHORT $LN60@repair_cli
$LN59@repair_cli:
  00694	8b 15 00 00 00
	00		 mov	 edx, DWORD PTR ?__LINE__Var@?0??repair_client_server_entity_keysite@@YGHPAUENTITY@@@Z@4JA
  0069a	83 c2 59	 add	 edx, 89			; 00000059H
  0069d	52		 push	 edx
  0069e	68 00 00 00 00	 push	 OFFSET ??_C@_0EN@PIOGLIPD@c?3?2users?2nhv90?2projects?2eech?2ap@
  006a3	a1 00 00 00 00	 mov	 eax, DWORD PTR ?null_entity_pointer_message@@3PBDB ; null_entity_pointer_message
  006a8	50		 push	 eax
  006a9	e8 00 00 00 00	 call	 ?process_assert@@YGXPBD0H@Z ; process_assert
  006ae	c7 45 a8 00 00
	00 00		 mov	 DWORD PTR tv355[ebp], 0
$LN60@repair_cli:
  006b5	b9 01 00 00 00	 mov	 ecx, 1
  006ba	85 c9		 test	 ecx, ecx
  006bc	74 09		 je	 SHORT $LN61@repair_cli
  006be	c7 45 a4 27 00
	00 00		 mov	 DWORD PTR tv363[ebp], 39 ; 00000027H
  006c5	eb 21		 jmp	 SHORT $LN62@repair_cli
$LN61@repair_cli:
  006c7	8b 15 00 00 00
	00		 mov	 edx, DWORD PTR ?__LINE__Var@?0??repair_client_server_entity_keysite@@YGHPAUENTITY@@@Z@4JA
  006cd	83 c2 59	 add	 edx, 89			; 00000059H
  006d0	52		 push	 edx
  006d1	68 00 00 00 00	 push	 OFFSET ??_C@_0EN@PIOGLIPD@c?3?2users?2nhv90?2projects?2eech?2ap@
  006d6	a1 00 00 00 00	 mov	 eax, DWORD PTR ?overload_invalid_float_type_message@@3PBDB ; overload_invalid_float_type_message
  006db	50		 push	 eax
  006dc	e8 00 00 00 00	 call	 ?process_assert@@YGXPBD0H@Z ; process_assert
  006e1	c7 45 a4 00 00
	00 00		 mov	 DWORD PTR tv363[ebp], 0
$LN62@repair_cli:
  006e8	6a 27		 push	 39			; 00000027H
  006ea	8b 4d f4	 mov	 ecx, DWORD PTR _building$[ebp]
  006ed	51		 push	 ecx
  006ee	69 55 a8 bc 02
	00 00		 imul	 edx, DWORD PTR tv355[ebp], 700
  006f5	8b 45 a4	 mov	 eax, DWORD PTR tv363[ebp]
  006f8	8b 8c 82 00 00
	00 00		 mov	 ecx, DWORD PTR ?fn_get_local_entity_float_value@@3PAY0KP@P6GMPAUENTITY@@W4FLOAT_TYPES@@@ZA[edx+eax*4]
  006ff	ff d1		 call	 ecx
  00701	d9 5d ec	 fstp	 DWORD PTR _importance$[ebp]

; 1648 : 
; 1649 : 				raw->repair_timer = (20.0 * ONE_MINUTE);

  00704	8b 45 fc	 mov	 eax, DWORD PTR _raw$[ebp]
  00707	f3 0f 10 05 00
	00 00 00	 movss	 xmm0, DWORD PTR __real@44960000
  0070f	f3 0f 11 40 7c	 movss	 DWORD PTR [eax+124], xmm0

; 1650 : 
; 1651 : 				ai_log ("(KEYSITE) REPAIRED %s (REGEN) at keysite %s (importance %f) (strength %f / %f)",

  00714	83 7d 08 00	 cmp	 DWORD PTR _en$[ebp], 0
  00718	74 0a		 je	 SHORT $LN63@repair_cli
  0071a	8b 45 08	 mov	 eax, DWORD PTR _en$[ebp]
  0071d	8b 08		 mov	 ecx, DWORD PTR [eax]
  0071f	89 4d a8	 mov	 DWORD PTR tv384[ebp], ecx
  00722	eb 21		 jmp	 SHORT $LN64@repair_cli
$LN63@repair_cli:
  00724	8b 15 00 00 00
	00		 mov	 edx, DWORD PTR ?__LINE__Var@?0??repair_client_server_entity_keysite@@YGHPAUENTITY@@@Z@4JA
  0072a	83 c2 5f	 add	 edx, 95			; 0000005fH
  0072d	52		 push	 edx
  0072e	68 00 00 00 00	 push	 OFFSET ??_C@_0EN@PIOGLIPD@c?3?2users?2nhv90?2projects?2eech?2ap@
  00733	a1 00 00 00 00	 mov	 eax, DWORD PTR ?null_entity_pointer_message@@3PBDB ; null_entity_pointer_message
  00738	50		 push	 eax
  00739	e8 00 00 00 00	 call	 ?process_assert@@YGXPBD0H@Z ; process_assert
  0073e	c7 45 a8 00 00
	00 00		 mov	 DWORD PTR tv384[ebp], 0
$LN64@repair_cli:
  00745	b9 01 00 00 00	 mov	 ecx, 1
  0074a	85 c9		 test	 ecx, ecx
  0074c	74 09		 je	 SHORT $LN65@repair_cli
  0074e	c7 45 a4 07 00
	00 00		 mov	 DWORD PTR tv392[ebp], 7
  00755	eb 21		 jmp	 SHORT $LN66@repair_cli
$LN65@repair_cli:
  00757	8b 15 00 00 00
	00		 mov	 edx, DWORD PTR ?__LINE__Var@?0??repair_client_server_entity_keysite@@YGHPAUENTITY@@@Z@4JA
  0075d	83 c2 5f	 add	 edx, 95			; 0000005fH
  00760	52		 push	 edx
  00761	68 00 00 00 00	 push	 OFFSET ??_C@_0EN@PIOGLIPD@c?3?2users?2nhv90?2projects?2eech?2ap@
  00766	a1 00 00 00 00	 mov	 eax, DWORD PTR ?overload_invalid_string_type_message@@3PBDB ; overload_invalid_string_type_message
  0076b	50		 push	 eax
  0076c	e8 00 00 00 00	 call	 ?process_assert@@YGXPBD0H@Z ; process_assert
  00771	c7 45 a4 00 00
	00 00		 mov	 DWORD PTR tv392[ebp], 0
$LN66@repair_cli:
  00778	83 7d f4 00	 cmp	 DWORD PTR _building$[ebp], 0
  0077c	74 0a		 je	 SHORT $LN67@repair_cli
  0077e	8b 4d f4	 mov	 ecx, DWORD PTR _building$[ebp]
  00781	8b 11		 mov	 edx, DWORD PTR [ecx]
  00783	89 55 a0	 mov	 DWORD PTR tv405[ebp], edx
  00786	eb 21		 jmp	 SHORT $LN68@repair_cli
$LN67@repair_cli:
  00788	a1 00 00 00 00	 mov	 eax, DWORD PTR ?__LINE__Var@?0??repair_client_server_entity_keysite@@YGHPAUENTITY@@@Z@4JA
  0078d	83 c0 5e	 add	 eax, 94			; 0000005eH
  00790	50		 push	 eax
  00791	68 00 00 00 00	 push	 OFFSET ??_C@_0EN@PIOGLIPD@c?3?2users?2nhv90?2projects?2eech?2ap@
  00796	8b 0d 00 00 00
	00		 mov	 ecx, DWORD PTR ?null_entity_pointer_message@@3PBDB ; null_entity_pointer_message
  0079c	51		 push	 ecx
  0079d	e8 00 00 00 00	 call	 ?process_assert@@YGXPBD0H@Z ; process_assert
  007a2	c7 45 a0 00 00
	00 00		 mov	 DWORD PTR tv405[ebp], 0
$LN68@repair_cli:
  007a9	ba 01 00 00 00	 mov	 edx, 1
  007ae	85 d2		 test	 edx, edx
  007b0	74 09		 je	 SHORT $LN69@repair_cli
  007b2	c7 45 9c 92 00
	00 00		 mov	 DWORD PTR tv413[ebp], 146 ; 00000092H
  007b9	eb 21		 jmp	 SHORT $LN70@repair_cli
$LN69@repair_cli:
  007bb	a1 00 00 00 00	 mov	 eax, DWORD PTR ?__LINE__Var@?0??repair_client_server_entity_keysite@@YGHPAUENTITY@@@Z@4JA
  007c0	83 c0 5e	 add	 eax, 94			; 0000005eH
  007c3	50		 push	 eax
  007c4	68 00 00 00 00	 push	 OFFSET ??_C@_0EN@PIOGLIPD@c?3?2users?2nhv90?2projects?2eech?2ap@
  007c9	8b 0d 00 00 00
	00		 mov	 ecx, DWORD PTR ?overload_invalid_int_type_message@@3PBDB ; overload_invalid_int_type_message
  007cf	51		 push	 ecx
  007d0	e8 00 00 00 00	 call	 ?process_assert@@YGXPBD0H@Z ; process_assert
  007d5	c7 45 9c 00 00
	00 00		 mov	 DWORD PTR tv413[ebp], 0
$LN70@repair_cli:
  007dc	8b 55 fc	 mov	 edx, DWORD PTR _raw$[ebp]
  007df	f3 0f 5a 42 78	 cvtss2sd xmm0, DWORD PTR [edx+120]
  007e4	83 ec 08	 sub	 esp, 8
  007e7	f2 0f 11 04 24	 movsd	 QWORD PTR [esp], xmm0
  007ec	8b 45 fc	 mov	 eax, DWORD PTR _raw$[ebp]
  007ef	f3 0f 5a 40 74	 cvtss2sd xmm0, DWORD PTR [eax+116]
  007f4	83 ec 08	 sub	 esp, 8
  007f7	f2 0f 11 04 24	 movsd	 QWORD PTR [esp], xmm0
  007fc	f3 0f 5a 45 ec	 cvtss2sd xmm0, DWORD PTR _importance$[ebp]
  00801	83 ec 08	 sub	 esp, 8
  00804	f2 0f 11 04 24	 movsd	 QWORD PTR [esp], xmm0
  00809	6a 07		 push	 7
  0080b	8b 4d 08	 mov	 ecx, DWORD PTR _en$[ebp]
  0080e	51		 push	 ecx
  0080f	6b 55 a8 34	 imul	 edx, DWORD PTR tv384[ebp], 52
  00813	8b 45 a4	 mov	 eax, DWORD PTR tv392[ebp]
  00816	8b 8c 82 00 00
	00 00		 mov	 ecx, DWORD PTR ?fn_get_local_entity_string@@3PAY0N@P6GPBDPAUENTITY@@W4STRING_TYPES@@@ZA[edx+eax*4]
  0081d	ff d1		 call	 ecx
  0081f	50		 push	 eax
  00820	68 92 00 00 00	 push	 146			; 00000092H
  00825	8b 55 f4	 mov	 edx, DWORD PTR _building$[ebp]
  00828	52		 push	 edx
  00829	69 45 a0 5c 04
	00 00		 imul	 eax, DWORD PTR tv405[ebp], 1116
  00830	8b 4d 9c	 mov	 ecx, DWORD PTR tv413[ebp]
  00833	8b 94 88 00 00
	00 00		 mov	 edx, DWORD PTR ?fn_get_local_entity_int_value@@3PAY0BBH@P6GHPAUENTITY@@W4INT_TYPES@@@ZA[eax+ecx*4]
  0083a	ff d2		 call	 edx
  0083c	8b 0d 00 00 00
	00		 mov	 ecx, DWORD PTR ?object_3d_enumeration_names@@3PAPBDA ; object_3d_enumeration_names
  00842	8b 14 81	 mov	 edx, DWORD PTR [ecx+eax*4]
  00845	52		 push	 edx
  00846	68 00 00 00 00	 push	 OFFSET ??_C@_0EP@MGHJDKKG@?$CIKEYSITE?$CJ?5REPAIRED?5?$CFs?5?$CIREGEN?$CJ?5a@
  0084b	e8 00 00 00 00	 call	 ?ai_log@@YAXPBDZZ	; ai_log
  00850	83 c4 24	 add	 esp, 36			; 00000024H

; 1652 : 								object_3d_enumeration_names [get_local_entity_int_value (building, INT_TYPE_OBJECT_3D_SHAPE)],
; 1653 : 								get_local_entity_string (en, STRING_TYPE_KEYSITE_NAME),
; 1654 : 								importance,
; 1655 : 								raw->keysite_strength, raw->keysite_maximum_strength);
; 1656 : 
; 1657 : 				return TRUE;

  00853	b8 01 00 00 00	 mov	 eax, 1
  00858	e9 b4 01 00 00	 jmp	 $LN1@repair_cli
$LN13@repair_cli:

; 1658 : 			}
; 1659 : 
; 1660 : 			building = get_local_entity_child_succ (building, LIST_TYPE_MEMBER);

  0085d	83 7d f4 00	 cmp	 DWORD PTR _building$[ebp], 0
  00861	74 0a		 je	 SHORT $LN71@repair_cli
  00863	8b 45 f4	 mov	 eax, DWORD PTR _building$[ebp]
  00866	8b 08		 mov	 ecx, DWORD PTR [eax]
  00868	89 4d a8	 mov	 DWORD PTR tv429[ebp], ecx
  0086b	eb 21		 jmp	 SHORT $LN72@repair_cli
$LN71@repair_cli:
  0086d	8b 15 00 00 00
	00		 mov	 edx, DWORD PTR ?__LINE__Var@?0??repair_client_server_entity_keysite@@YGHPAUENTITY@@@Z@4JA
  00873	83 c2 66	 add	 edx, 102		; 00000066H
  00876	52		 push	 edx
  00877	68 00 00 00 00	 push	 OFFSET ??_C@_0EN@PIOGLIPD@c?3?2users?2nhv90?2projects?2eech?2ap@
  0087c	a1 00 00 00 00	 mov	 eax, DWORD PTR ?null_entity_pointer_message@@3PBDB ; null_entity_pointer_message
  00881	50		 push	 eax
  00882	e8 00 00 00 00	 call	 ?process_assert@@YGXPBD0H@Z ; process_assert
  00887	c7 45 a8 00 00
	00 00		 mov	 DWORD PTR tv429[ebp], 0
$LN72@repair_cli:
  0088e	b9 01 00 00 00	 mov	 ecx, 1
  00893	85 c9		 test	 ecx, ecx
  00895	74 09		 je	 SHORT $LN73@repair_cli
  00897	c7 45 a4 19 00
	00 00		 mov	 DWORD PTR tv437[ebp], 25 ; 00000019H
  0089e	eb 21		 jmp	 SHORT $LN74@repair_cli
$LN73@repair_cli:
  008a0	8b 15 00 00 00
	00		 mov	 edx, DWORD PTR ?__LINE__Var@?0??repair_client_server_entity_keysite@@YGHPAUENTITY@@@Z@4JA
  008a6	83 c2 66	 add	 edx, 102		; 00000066H
  008a9	52		 push	 edx
  008aa	68 00 00 00 00	 push	 OFFSET ??_C@_0EN@PIOGLIPD@c?3?2users?2nhv90?2projects?2eech?2ap@
  008af	a1 00 00 00 00	 mov	 eax, DWORD PTR ?overload_invalid_list_type_message@@3PBDB ; overload_invalid_list_type_message
  008b4	50		 push	 eax
  008b5	e8 00 00 00 00	 call	 ?process_assert@@YGXPBD0H@Z ; process_assert
  008ba	c7 45 a4 00 00
	00 00		 mov	 DWORD PTR tv437[ebp], 0
$LN74@repair_cli:
  008c1	6a 19		 push	 25			; 00000019H
  008c3	8b 4d f4	 mov	 ecx, DWORD PTR _building$[ebp]
  008c6	51		 push	 ecx
  008c7	69 55 a8 b4 00
	00 00		 imul	 edx, DWORD PTR tv429[ebp], 180
  008ce	8b 45 a4	 mov	 eax, DWORD PTR tv437[ebp]
  008d1	8b 8c 82 00 00
	00 00		 mov	 ecx, DWORD PTR ?fn_get_local_entity_child_succ@@3PAY0CN@P6GPAUENTITY@@PAU1@W4LIST_TYPES@@@ZA[edx+eax*4]
  008d8	ff d1		 call	 ecx
  008da	89 45 f4	 mov	 DWORD PTR _building$[ebp], eax

; 1661 : 		}

  008dd	e9 04 fd ff ff	 jmp	 $LN8@repair_cli
$LN9@repair_cli:

; 1662 : 
; 1663 : 		regen = get_local_entity_child_succ (regen, LIST_TYPE_REGEN);

  008e2	83 7d f0 00	 cmp	 DWORD PTR _regen$[ebp], 0
  008e6	74 0a		 je	 SHORT $LN75@repair_cli
  008e8	8b 45 f0	 mov	 eax, DWORD PTR _regen$[ebp]
  008eb	8b 08		 mov	 ecx, DWORD PTR [eax]
  008ed	89 4d a8	 mov	 DWORD PTR tv449[ebp], ecx
  008f0	eb 21		 jmp	 SHORT $LN76@repair_cli
$LN75@repair_cli:
  008f2	8b 15 00 00 00
	00		 mov	 edx, DWORD PTR ?__LINE__Var@?0??repair_client_server_entity_keysite@@YGHPAUENTITY@@@Z@4JA
  008f8	83 c2 69	 add	 edx, 105		; 00000069H
  008fb	52		 push	 edx
  008fc	68 00 00 00 00	 push	 OFFSET ??_C@_0EN@PIOGLIPD@c?3?2users?2nhv90?2projects?2eech?2ap@
  00901	a1 00 00 00 00	 mov	 eax, DWORD PTR ?null_entity_pointer_message@@3PBDB ; null_entity_pointer_message
  00906	50		 push	 eax
  00907	e8 00 00 00 00	 call	 ?process_assert@@YGXPBD0H@Z ; process_assert
  0090c	c7 45 a8 00 00
	00 00		 mov	 DWORD PTR tv449[ebp], 0
$LN76@repair_cli:
  00913	b9 01 00 00 00	 mov	 ecx, 1
  00918	85 c9		 test	 ecx, ecx
  0091a	74 09		 je	 SHORT $LN77@repair_cli
  0091c	c7 45 a4 1f 00
	00 00		 mov	 DWORD PTR tv457[ebp], 31 ; 0000001fH
  00923	eb 21		 jmp	 SHORT $LN78@repair_cli
$LN77@repair_cli:
  00925	8b 15 00 00 00
	00		 mov	 edx, DWORD PTR ?__LINE__Var@?0??repair_client_server_entity_keysite@@YGHPAUENTITY@@@Z@4JA
  0092b	83 c2 69	 add	 edx, 105		; 00000069H
  0092e	52		 push	 edx
  0092f	68 00 00 00 00	 push	 OFFSET ??_C@_0EN@PIOGLIPD@c?3?2users?2nhv90?2projects?2eech?2ap@
  00934	a1 00 00 00 00	 mov	 eax, DWORD PTR ?overload_invalid_list_type_message@@3PBDB ; overload_invalid_list_type_message
  00939	50		 push	 eax
  0093a	e8 00 00 00 00	 call	 ?process_assert@@YGXPBD0H@Z ; process_assert
  0093f	c7 45 a4 00 00
	00 00		 mov	 DWORD PTR tv457[ebp], 0
$LN78@repair_cli:
  00946	6a 1f		 push	 31			; 0000001fH
  00948	8b 4d f0	 mov	 ecx, DWORD PTR _regen$[ebp]
  0094b	51		 push	 ecx
  0094c	69 55 a8 b4 00
	00 00		 imul	 edx, DWORD PTR tv449[ebp], 180
  00953	8b 45 a4	 mov	 eax, DWORD PTR tv457[ebp]
  00956	8b 8c 82 00 00
	00 00		 mov	 ecx, DWORD PTR ?fn_get_local_entity_child_succ@@3PAY0CN@P6GPAUENTITY@@PAU1@W4LIST_TYPES@@@ZA[edx+eax*4]
  0095d	ff d1		 call	 ecx
  0095f	89 45 f0	 mov	 DWORD PTR _regen$[ebp], eax

; 1664 : 	}

  00962	e9 f5 fb ff ff	 jmp	 $LN6@repair_cli
$LN7@repair_cli:

; 1665 : 
; 1666 : 	//
; 1667 : 	// All buildings repaired - set state back to usable
; 1668 : 	//
; 1669 : 
; 1670 : 	ai_log ("(KEYSITE) %s FULLY REPAIRED (strength %f / %f)",

  00967	83 7d 08 00	 cmp	 DWORD PTR _en$[ebp], 0
  0096b	74 0a		 je	 SHORT $LN79@repair_cli
  0096d	8b 45 08	 mov	 eax, DWORD PTR _en$[ebp]
  00970	8b 08		 mov	 ecx, DWORD PTR [eax]
  00972	89 4d a8	 mov	 DWORD PTR tv475[ebp], ecx
  00975	eb 21		 jmp	 SHORT $LN80@repair_cli
$LN79@repair_cli:
  00977	8b 15 00 00 00
	00		 mov	 edx, DWORD PTR ?__LINE__Var@?0??repair_client_server_entity_keysite@@YGHPAUENTITY@@@Z@4JA
  0097d	83 c2 71	 add	 edx, 113		; 00000071H
  00980	52		 push	 edx
  00981	68 00 00 00 00	 push	 OFFSET ??_C@_0EN@PIOGLIPD@c?3?2users?2nhv90?2projects?2eech?2ap@
  00986	a1 00 00 00 00	 mov	 eax, DWORD PTR ?null_entity_pointer_message@@3PBDB ; null_entity_pointer_message
  0098b	50		 push	 eax
  0098c	e8 00 00 00 00	 call	 ?process_assert@@YGXPBD0H@Z ; process_assert
  00991	c7 45 a8 00 00
	00 00		 mov	 DWORD PTR tv475[ebp], 0
$LN80@repair_cli:
  00998	b9 01 00 00 00	 mov	 ecx, 1
  0099d	85 c9		 test	 ecx, ecx
  0099f	74 09		 je	 SHORT $LN81@repair_cli
  009a1	c7 45 a4 07 00
	00 00		 mov	 DWORD PTR tv483[ebp], 7
  009a8	eb 21		 jmp	 SHORT $LN82@repair_cli
$LN81@repair_cli:
  009aa	8b 15 00 00 00
	00		 mov	 edx, DWORD PTR ?__LINE__Var@?0??repair_client_server_entity_keysite@@YGHPAUENTITY@@@Z@4JA
  009b0	83 c2 71	 add	 edx, 113		; 00000071H
  009b3	52		 push	 edx
  009b4	68 00 00 00 00	 push	 OFFSET ??_C@_0EN@PIOGLIPD@c?3?2users?2nhv90?2projects?2eech?2ap@
  009b9	a1 00 00 00 00	 mov	 eax, DWORD PTR ?overload_invalid_string_type_message@@3PBDB ; overload_invalid_string_type_message
  009be	50		 push	 eax
  009bf	e8 00 00 00 00	 call	 ?process_assert@@YGXPBD0H@Z ; process_assert
  009c4	c7 45 a4 00 00
	00 00		 mov	 DWORD PTR tv483[ebp], 0
$LN82@repair_cli:
  009cb	8b 4d fc	 mov	 ecx, DWORD PTR _raw$[ebp]
  009ce	f3 0f 5a 41 78	 cvtss2sd xmm0, DWORD PTR [ecx+120]
  009d3	83 ec 08	 sub	 esp, 8
  009d6	f2 0f 11 04 24	 movsd	 QWORD PTR [esp], xmm0
  009db	8b 55 fc	 mov	 edx, DWORD PTR _raw$[ebp]
  009de	f3 0f 5a 42 74	 cvtss2sd xmm0, DWORD PTR [edx+116]
  009e3	83 ec 08	 sub	 esp, 8
  009e6	f2 0f 11 04 24	 movsd	 QWORD PTR [esp], xmm0
  009eb	6a 07		 push	 7
  009ed	8b 45 08	 mov	 eax, DWORD PTR _en$[ebp]
  009f0	50		 push	 eax
  009f1	6b 4d a8 34	 imul	 ecx, DWORD PTR tv475[ebp], 52
  009f5	8b 55 a4	 mov	 edx, DWORD PTR tv483[ebp]
  009f8	8b 84 91 00 00
	00 00		 mov	 eax, DWORD PTR ?fn_get_local_entity_string@@3PAY0N@P6GPBDPAUENTITY@@W4STRING_TYPES@@@ZA[ecx+edx*4]
  009ff	ff d0		 call	 eax
  00a01	50		 push	 eax
  00a02	68 00 00 00 00	 push	 OFFSET ??_C@_0CP@PLBNLKAL@?$CIKEYSITE?$CJ?5?$CFs?5FULLY?5REPAIRED?5?$CIst@
  00a07	e8 00 00 00 00	 call	 ?ai_log@@YAXPBDZZ	; ai_log
  00a0c	83 c4 18	 add	 esp, 24			; 00000018H

; 1671 : 				get_local_entity_string (en, STRING_TYPE_KEYSITE_NAME),
; 1672 : 				raw->keysite_strength, raw->keysite_maximum_strength);
; 1673 : 
; 1674 : 	return FALSE;

  00a0f	33 c0		 xor	 eax, eax
$LN1@repair_cli:

; 1675 : }

  00a11	5f		 pop	 edi
  00a12	5e		 pop	 esi
  00a13	5b		 pop	 ebx
  00a14	8b e5		 mov	 esp, ebp
  00a16	5d		 pop	 ebp
  00a17	c2 04 00	 ret	 4
?repair_client_server_entity_keysite@@YGHPAUENTITY@@@Z ENDP ; repair_client_server_entity_keysite
_TEXT	ENDS
; Function compile flags: /Odtp /ZI
; File c:\users\nhv90\projects\eech\aphavoc\source\entity\special\keysite\keysite.c
;	COMDAT ?change_local_keysite_building_sides@@YGXPAUENTITY@@W4ENTITY_SIDES@@@Z
_TEXT	SEGMENT
tv339 = -80						; size = 4
tv319 = -80						; size = 4
tv299 = -80						; size = 4
tv278 = -80						; size = 4
tv258 = -80						; size = 4
tv237 = -80						; size = 4
tv217 = -80						; size = 4
tv197 = -80						; size = 4
tv177 = -80						; size = 4
tv156 = -80						; size = 4
tv136 = -80						; size = 4
tv83 = -80						; size = 4
tv331 = -76						; size = 4
tv311 = -76						; size = 4
tv291 = -76						; size = 4
tv270 = -76						; size = 4
tv250 = -76						; size = 4
tv229 = -76						; size = 4
tv209 = -76						; size = 4
tv189 = -76						; size = 4
tv169 = -76						; size = 4
tv148 = -76						; size = 4
tv128 = -76						; size = 4
tv75 = -76						; size = 4
_member$ = -8						; size = 4
_group$ = -4						; size = 4
_en$ = 8						; size = 4
_new_side$ = 12						; size = 4
?change_local_keysite_building_sides@@YGXPAUENTITY@@W4ENTITY_SIDES@@@Z PROC ; change_local_keysite_building_sides, COMDAT

; 1501 : {

  00000	55		 push	 ebp
  00001	8b ec		 mov	 ebp, esp
  00003	83 ec 50	 sub	 esp, 80			; 00000050H
  00006	53		 push	 ebx
  00007	56		 push	 esi
  00008	57		 push	 edi

; 1502 : 	entity
; 1503 : 		*group,
; 1504 : 		*member;
; 1505 : 
; 1506 : 	ASSERT (en);

  00009	83 7d 08 00	 cmp	 DWORD PTR _en$[ebp], 0
  0000d	75 18		 jne	 SHORT $LN10@change_loc
  0000f	a1 00 00 00 00	 mov	 eax, DWORD PTR ?__LINE__Var@?0??change_local_keysite_building_sides@@YGXPAUENTITY@@W4ENTITY_SIDES@@@Z@4JA
  00014	83 c0 05	 add	 eax, 5
  00017	50		 push	 eax
  00018	68 00 00 00 00	 push	 OFFSET ??_C@_0EN@PIOGLIPD@c?3?2users?2nhv90?2projects?2eech?2ap@
  0001d	68 00 00 00 00	 push	 OFFSET ??_C@_02LFNMGJAP@en@
  00022	e8 00 00 00 00	 call	 ?process_assert@@YGXPBD0H@Z ; process_assert
$LN10@change_loc:

; 1507 : 
; 1508 : 	//
; 1509 : 	// Normal Buildings
; 1510 : 	//
; 1511 : 	
; 1512 : 	group = get_local_entity_first_child (en, LIST_TYPE_BUILDING_GROUP);

  00027	83 7d 08 00	 cmp	 DWORD PTR _en$[ebp], 0
  0002b	74 0a		 je	 SHORT $LN12@change_loc
  0002d	8b 45 08	 mov	 eax, DWORD PTR _en$[ebp]
  00030	8b 08		 mov	 ecx, DWORD PTR [eax]
  00032	89 4d b4	 mov	 DWORD PTR tv75[ebp], ecx
  00035	eb 21		 jmp	 SHORT $LN13@change_loc
$LN12@change_loc:
  00037	8b 15 00 00 00
	00		 mov	 edx, DWORD PTR ?__LINE__Var@?0??change_local_keysite_building_sides@@YGXPAUENTITY@@W4ENTITY_SIDES@@@Z@4JA
  0003d	83 c2 0b	 add	 edx, 11			; 0000000bH
  00040	52		 push	 edx
  00041	68 00 00 00 00	 push	 OFFSET ??_C@_0EN@PIOGLIPD@c?3?2users?2nhv90?2projects?2eech?2ap@
  00046	a1 00 00 00 00	 mov	 eax, DWORD PTR ?null_entity_pointer_message@@3PBDB ; null_entity_pointer_message
  0004b	50		 push	 eax
  0004c	e8 00 00 00 00	 call	 ?process_assert@@YGXPBD0H@Z ; process_assert
  00051	c7 45 b4 00 00
	00 00		 mov	 DWORD PTR tv75[ebp], 0
$LN13@change_loc:
  00058	b9 01 00 00 00	 mov	 ecx, 1
  0005d	85 c9		 test	 ecx, ecx
  0005f	74 09		 je	 SHORT $LN14@change_loc
  00061	c7 45 b0 04 00
	00 00		 mov	 DWORD PTR tv83[ebp], 4
  00068	eb 21		 jmp	 SHORT $LN15@change_loc
$LN14@change_loc:
  0006a	8b 15 00 00 00
	00		 mov	 edx, DWORD PTR ?__LINE__Var@?0??change_local_keysite_building_sides@@YGXPAUENTITY@@W4ENTITY_SIDES@@@Z@4JA
  00070	83 c2 0b	 add	 edx, 11			; 0000000bH
  00073	52		 push	 edx
  00074	68 00 00 00 00	 push	 OFFSET ??_C@_0EN@PIOGLIPD@c?3?2users?2nhv90?2projects?2eech?2ap@
  00079	a1 00 00 00 00	 mov	 eax, DWORD PTR ?overload_invalid_list_type_message@@3PBDB ; overload_invalid_list_type_message
  0007e	50		 push	 eax
  0007f	e8 00 00 00 00	 call	 ?process_assert@@YGXPBD0H@Z ; process_assert
  00084	c7 45 b0 00 00
	00 00		 mov	 DWORD PTR tv83[ebp], 0
$LN15@change_loc:
  0008b	6a 04		 push	 4
  0008d	8b 4d 08	 mov	 ecx, DWORD PTR _en$[ebp]
  00090	51		 push	 ecx
  00091	69 55 b4 b4 00
	00 00		 imul	 edx, DWORD PTR tv75[ebp], 180
  00098	8b 45 b0	 mov	 eax, DWORD PTR tv83[ebp]
  0009b	8b 8c 82 00 00
	00 00		 mov	 ecx, DWORD PTR ?fn_get_local_entity_first_child@@3PAY0CN@P6GPAUENTITY@@PAU1@W4LIST_TYPES@@@ZA[edx+eax*4]
  000a2	ff d1		 call	 ecx
  000a4	89 45 fc	 mov	 DWORD PTR _group$[ebp], eax
$LN2@change_loc:

; 1513 : 
; 1514 : 	while (group)

  000a7	83 7d fc 00	 cmp	 DWORD PTR _group$[ebp], 0
  000ab	0f 84 9c 02 00
	00		 je	 $LN3@change_loc

; 1515 : 	{
; 1516 : 		set_local_entity_int_value (group, INT_TYPE_SIDE, new_side);

  000b1	83 7d fc 00	 cmp	 DWORD PTR _group$[ebp], 0
  000b5	74 0a		 je	 SHORT $LN16@change_loc
  000b7	8b 45 fc	 mov	 eax, DWORD PTR _group$[ebp]
  000ba	8b 08		 mov	 ecx, DWORD PTR [eax]
  000bc	89 4d b4	 mov	 DWORD PTR tv128[ebp], ecx
  000bf	eb 21		 jmp	 SHORT $LN17@change_loc
$LN16@change_loc:
  000c1	8b 15 00 00 00
	00		 mov	 edx, DWORD PTR ?__LINE__Var@?0??change_local_keysite_building_sides@@YGXPAUENTITY@@W4ENTITY_SIDES@@@Z@4JA
  000c7	83 c2 0f	 add	 edx, 15			; 0000000fH
  000ca	52		 push	 edx
  000cb	68 00 00 00 00	 push	 OFFSET ??_C@_0EN@PIOGLIPD@c?3?2users?2nhv90?2projects?2eech?2ap@
  000d0	a1 00 00 00 00	 mov	 eax, DWORD PTR ?null_entity_pointer_message@@3PBDB ; null_entity_pointer_message
  000d5	50		 push	 eax
  000d6	e8 00 00 00 00	 call	 ?process_assert@@YGXPBD0H@Z ; process_assert
  000db	c7 45 b4 00 00
	00 00		 mov	 DWORD PTR tv128[ebp], 0
$LN17@change_loc:
  000e2	b9 01 00 00 00	 mov	 ecx, 1
  000e7	85 c9		 test	 ecx, ecx
  000e9	74 09		 je	 SHORT $LN18@change_loc
  000eb	c7 45 b0 bb 00
	00 00		 mov	 DWORD PTR tv136[ebp], 187 ; 000000bbH
  000f2	eb 21		 jmp	 SHORT $LN19@change_loc
$LN18@change_loc:
  000f4	8b 15 00 00 00
	00		 mov	 edx, DWORD PTR ?__LINE__Var@?0??change_local_keysite_building_sides@@YGXPAUENTITY@@W4ENTITY_SIDES@@@Z@4JA
  000fa	83 c2 0f	 add	 edx, 15			; 0000000fH
  000fd	52		 push	 edx
  000fe	68 00 00 00 00	 push	 OFFSET ??_C@_0EN@PIOGLIPD@c?3?2users?2nhv90?2projects?2eech?2ap@
  00103	a1 00 00 00 00	 mov	 eax, DWORD PTR ?overload_invalid_int_type_message@@3PBDB ; overload_invalid_int_type_message
  00108	50		 push	 eax
  00109	e8 00 00 00 00	 call	 ?process_assert@@YGXPBD0H@Z ; process_assert
  0010e	c7 45 b0 00 00
	00 00		 mov	 DWORD PTR tv136[ebp], 0
$LN19@change_loc:
  00115	8b 4d 0c	 mov	 ecx, DWORD PTR _new_side$[ebp]
  00118	51		 push	 ecx
  00119	68 bb 00 00 00	 push	 187			; 000000bbH
  0011e	8b 55 fc	 mov	 edx, DWORD PTR _group$[ebp]
  00121	52		 push	 edx
  00122	69 45 b4 5c 04
	00 00		 imul	 eax, DWORD PTR tv128[ebp], 1116
  00129	8b 4d b0	 mov	 ecx, DWORD PTR tv136[ebp]
  0012c	8b 94 88 00 00
	00 00		 mov	 edx, DWORD PTR ?fn_set_local_entity_int_value@@3PAY0BBH@P6GXPAUENTITY@@W4INT_TYPES@@H@ZA[eax+ecx*4]
  00133	ff d2		 call	 edx

; 1517 : 
; 1518 : 		member = get_local_entity_first_child (group, LIST_TYPE_MEMBER);

  00135	83 7d fc 00	 cmp	 DWORD PTR _group$[ebp], 0
  00139	74 0a		 je	 SHORT $LN20@change_loc
  0013b	8b 45 fc	 mov	 eax, DWORD PTR _group$[ebp]
  0013e	8b 08		 mov	 ecx, DWORD PTR [eax]
  00140	89 4d b4	 mov	 DWORD PTR tv148[ebp], ecx
  00143	eb 21		 jmp	 SHORT $LN21@change_loc
$LN20@change_loc:
  00145	8b 15 00 00 00
	00		 mov	 edx, DWORD PTR ?__LINE__Var@?0??change_local_keysite_building_sides@@YGXPAUENTITY@@W4ENTITY_SIDES@@@Z@4JA
  0014b	83 c2 11	 add	 edx, 17			; 00000011H
  0014e	52		 push	 edx
  0014f	68 00 00 00 00	 push	 OFFSET ??_C@_0EN@PIOGLIPD@c?3?2users?2nhv90?2projects?2eech?2ap@
  00154	a1 00 00 00 00	 mov	 eax, DWORD PTR ?null_entity_pointer_message@@3PBDB ; null_entity_pointer_message
  00159	50		 push	 eax
  0015a	e8 00 00 00 00	 call	 ?process_assert@@YGXPBD0H@Z ; process_assert
  0015f	c7 45 b4 00 00
	00 00		 mov	 DWORD PTR tv148[ebp], 0
$LN21@change_loc:
  00166	b9 01 00 00 00	 mov	 ecx, 1
  0016b	85 c9		 test	 ecx, ecx
  0016d	74 09		 je	 SHORT $LN22@change_loc
  0016f	c7 45 b0 19 00
	00 00		 mov	 DWORD PTR tv156[ebp], 25 ; 00000019H
  00176	eb 21		 jmp	 SHORT $LN23@change_loc
$LN22@change_loc:
  00178	8b 15 00 00 00
	00		 mov	 edx, DWORD PTR ?__LINE__Var@?0??change_local_keysite_building_sides@@YGXPAUENTITY@@W4ENTITY_SIDES@@@Z@4JA
  0017e	83 c2 11	 add	 edx, 17			; 00000011H
  00181	52		 push	 edx
  00182	68 00 00 00 00	 push	 OFFSET ??_C@_0EN@PIOGLIPD@c?3?2users?2nhv90?2projects?2eech?2ap@
  00187	a1 00 00 00 00	 mov	 eax, DWORD PTR ?overload_invalid_list_type_message@@3PBDB ; overload_invalid_list_type_message
  0018c	50		 push	 eax
  0018d	e8 00 00 00 00	 call	 ?process_assert@@YGXPBD0H@Z ; process_assert
  00192	c7 45 b0 00 00
	00 00		 mov	 DWORD PTR tv156[ebp], 0
$LN23@change_loc:
  00199	6a 19		 push	 25			; 00000019H
  0019b	8b 4d fc	 mov	 ecx, DWORD PTR _group$[ebp]
  0019e	51		 push	 ecx
  0019f	69 55 b4 b4 00
	00 00		 imul	 edx, DWORD PTR tv148[ebp], 180
  001a6	8b 45 b0	 mov	 eax, DWORD PTR tv156[ebp]
  001a9	8b 8c 82 00 00
	00 00		 mov	 ecx, DWORD PTR ?fn_get_local_entity_first_child@@3PAY0CN@P6GPAUENTITY@@PAU1@W4LIST_TYPES@@@ZA[edx+eax*4]
  001b0	ff d1		 call	 ecx
  001b2	89 45 f8	 mov	 DWORD PTR _member$[ebp], eax
$LN4@change_loc:

; 1519 : 
; 1520 : 		while (member)

  001b5	83 7d f8 00	 cmp	 DWORD PTR _member$[ebp], 0
  001b9	0f 84 09 01 00
	00		 je	 $LN5@change_loc

; 1521 : 		{
; 1522 : 			set_local_entity_int_value (member, INT_TYPE_SIDE, new_side);

  001bf	83 7d f8 00	 cmp	 DWORD PTR _member$[ebp], 0
  001c3	74 0a		 je	 SHORT $LN24@change_loc
  001c5	8b 45 f8	 mov	 eax, DWORD PTR _member$[ebp]
  001c8	8b 08		 mov	 ecx, DWORD PTR [eax]
  001ca	89 4d b4	 mov	 DWORD PTR tv169[ebp], ecx
  001cd	eb 21		 jmp	 SHORT $LN25@change_loc
$LN24@change_loc:
  001cf	8b 15 00 00 00
	00		 mov	 edx, DWORD PTR ?__LINE__Var@?0??change_local_keysite_building_sides@@YGXPAUENTITY@@W4ENTITY_SIDES@@@Z@4JA
  001d5	83 c2 15	 add	 edx, 21			; 00000015H
  001d8	52		 push	 edx
  001d9	68 00 00 00 00	 push	 OFFSET ??_C@_0EN@PIOGLIPD@c?3?2users?2nhv90?2projects?2eech?2ap@
  001de	a1 00 00 00 00	 mov	 eax, DWORD PTR ?null_entity_pointer_message@@3PBDB ; null_entity_pointer_message
  001e3	50		 push	 eax
  001e4	e8 00 00 00 00	 call	 ?process_assert@@YGXPBD0H@Z ; process_assert
  001e9	c7 45 b4 00 00
	00 00		 mov	 DWORD PTR tv169[ebp], 0
$LN25@change_loc:
  001f0	b9 01 00 00 00	 mov	 ecx, 1
  001f5	85 c9		 test	 ecx, ecx
  001f7	74 09		 je	 SHORT $LN26@change_loc
  001f9	c7 45 b0 bb 00
	00 00		 mov	 DWORD PTR tv177[ebp], 187 ; 000000bbH
  00200	eb 21		 jmp	 SHORT $LN27@change_loc
$LN26@change_loc:
  00202	8b 15 00 00 00
	00		 mov	 edx, DWORD PTR ?__LINE__Var@?0??change_local_keysite_building_sides@@YGXPAUENTITY@@W4ENTITY_SIDES@@@Z@4JA
  00208	83 c2 15	 add	 edx, 21			; 00000015H
  0020b	52		 push	 edx
  0020c	68 00 00 00 00	 push	 OFFSET ??_C@_0EN@PIOGLIPD@c?3?2users?2nhv90?2projects?2eech?2ap@
  00211	a1 00 00 00 00	 mov	 eax, DWORD PTR ?overload_invalid_int_type_message@@3PBDB ; overload_invalid_int_type_message
  00216	50		 push	 eax
  00217	e8 00 00 00 00	 call	 ?process_assert@@YGXPBD0H@Z ; process_assert
  0021c	c7 45 b0 00 00
	00 00		 mov	 DWORD PTR tv177[ebp], 0
$LN27@change_loc:
  00223	8b 4d 0c	 mov	 ecx, DWORD PTR _new_side$[ebp]
  00226	51		 push	 ecx
  00227	68 bb 00 00 00	 push	 187			; 000000bbH
  0022c	8b 55 f8	 mov	 edx, DWORD PTR _member$[ebp]
  0022f	52		 push	 edx
  00230	69 45 b4 5c 04
	00 00		 imul	 eax, DWORD PTR tv169[ebp], 1116
  00237	8b 4d b0	 mov	 ecx, DWORD PTR tv177[ebp]
  0023a	8b 94 88 00 00
	00 00		 mov	 edx, DWORD PTR ?fn_set_local_entity_int_value@@3PAY0BBH@P6GXPAUENTITY@@W4INT_TYPES@@H@ZA[eax+ecx*4]
  00241	ff d2		 call	 edx

; 1523 : 			
; 1524 : 			member = get_local_entity_child_succ (member, LIST_TYPE_MEMBER);

  00243	83 7d f8 00	 cmp	 DWORD PTR _member$[ebp], 0
  00247	74 0a		 je	 SHORT $LN28@change_loc
  00249	8b 45 f8	 mov	 eax, DWORD PTR _member$[ebp]
  0024c	8b 08		 mov	 ecx, DWORD PTR [eax]
  0024e	89 4d b4	 mov	 DWORD PTR tv189[ebp], ecx
  00251	eb 21		 jmp	 SHORT $LN29@change_loc
$LN28@change_loc:
  00253	8b 15 00 00 00
	00		 mov	 edx, DWORD PTR ?__LINE__Var@?0??change_local_keysite_building_sides@@YGXPAUENTITY@@W4ENTITY_SIDES@@@Z@4JA
  00259	83 c2 17	 add	 edx, 23			; 00000017H
  0025c	52		 push	 edx
  0025d	68 00 00 00 00	 push	 OFFSET ??_C@_0EN@PIOGLIPD@c?3?2users?2nhv90?2projects?2eech?2ap@
  00262	a1 00 00 00 00	 mov	 eax, DWORD PTR ?null_entity_pointer_message@@3PBDB ; null_entity_pointer_message
  00267	50		 push	 eax
  00268	e8 00 00 00 00	 call	 ?process_assert@@YGXPBD0H@Z ; process_assert
  0026d	c7 45 b4 00 00
	00 00		 mov	 DWORD PTR tv189[ebp], 0
$LN29@change_loc:
  00274	b9 01 00 00 00	 mov	 ecx, 1
  00279	85 c9		 test	 ecx, ecx
  0027b	74 09		 je	 SHORT $LN30@change_loc
  0027d	c7 45 b0 19 00
	00 00		 mov	 DWORD PTR tv197[ebp], 25 ; 00000019H
  00284	eb 21		 jmp	 SHORT $LN31@change_loc
$LN30@change_loc:
  00286	8b 15 00 00 00
	00		 mov	 edx, DWORD PTR ?__LINE__Var@?0??change_local_keysite_building_sides@@YGXPAUENTITY@@W4ENTITY_SIDES@@@Z@4JA
  0028c	83 c2 17	 add	 edx, 23			; 00000017H
  0028f	52		 push	 edx
  00290	68 00 00 00 00	 push	 OFFSET ??_C@_0EN@PIOGLIPD@c?3?2users?2nhv90?2projects?2eech?2ap@
  00295	a1 00 00 00 00	 mov	 eax, DWORD PTR ?overload_invalid_list_type_message@@3PBDB ; overload_invalid_list_type_message
  0029a	50		 push	 eax
  0029b	e8 00 00 00 00	 call	 ?process_assert@@YGXPBD0H@Z ; process_assert
  002a0	c7 45 b0 00 00
	00 00		 mov	 DWORD PTR tv197[ebp], 0
$LN31@change_loc:
  002a7	6a 19		 push	 25			; 00000019H
  002a9	8b 4d f8	 mov	 ecx, DWORD PTR _member$[ebp]
  002ac	51		 push	 ecx
  002ad	69 55 b4 b4 00
	00 00		 imul	 edx, DWORD PTR tv189[ebp], 180
  002b4	8b 45 b0	 mov	 eax, DWORD PTR tv197[ebp]
  002b7	8b 8c 82 00 00
	00 00		 mov	 ecx, DWORD PTR ?fn_get_local_entity_child_succ@@3PAY0CN@P6GPAUENTITY@@PAU1@W4LIST_TYPES@@@ZA[edx+eax*4]
  002be	ff d1		 call	 ecx
  002c0	89 45 f8	 mov	 DWORD PTR _member$[ebp], eax

; 1525 : 		}

  002c3	e9 ed fe ff ff	 jmp	 $LN4@change_loc
$LN5@change_loc:

; 1526 : 
; 1527 : 		group = get_local_entity_child_succ (group, LIST_TYPE_BUILDING_GROUP);

  002c8	83 7d fc 00	 cmp	 DWORD PTR _group$[ebp], 0
  002cc	74 0a		 je	 SHORT $LN32@change_loc
  002ce	8b 45 fc	 mov	 eax, DWORD PTR _group$[ebp]
  002d1	8b 08		 mov	 ecx, DWORD PTR [eax]
  002d3	89 4d b4	 mov	 DWORD PTR tv209[ebp], ecx
  002d6	eb 21		 jmp	 SHORT $LN33@change_loc
$LN32@change_loc:
  002d8	8b 15 00 00 00
	00		 mov	 edx, DWORD PTR ?__LINE__Var@?0??change_local_keysite_building_sides@@YGXPAUENTITY@@W4ENTITY_SIDES@@@Z@4JA
  002de	83 c2 1a	 add	 edx, 26			; 0000001aH
  002e1	52		 push	 edx
  002e2	68 00 00 00 00	 push	 OFFSET ??_C@_0EN@PIOGLIPD@c?3?2users?2nhv90?2projects?2eech?2ap@
  002e7	a1 00 00 00 00	 mov	 eax, DWORD PTR ?null_entity_pointer_message@@3PBDB ; null_entity_pointer_message
  002ec	50		 push	 eax
  002ed	e8 00 00 00 00	 call	 ?process_assert@@YGXPBD0H@Z ; process_assert
  002f2	c7 45 b4 00 00
	00 00		 mov	 DWORD PTR tv209[ebp], 0
$LN33@change_loc:
  002f9	b9 01 00 00 00	 mov	 ecx, 1
  002fe	85 c9		 test	 ecx, ecx
  00300	74 09		 je	 SHORT $LN34@change_loc
  00302	c7 45 b0 04 00
	00 00		 mov	 DWORD PTR tv217[ebp], 4
  00309	eb 21		 jmp	 SHORT $LN35@change_loc
$LN34@change_loc:
  0030b	8b 15 00 00 00
	00		 mov	 edx, DWORD PTR ?__LINE__Var@?0??change_local_keysite_building_sides@@YGXPAUENTITY@@W4ENTITY_SIDES@@@Z@4JA
  00311	83 c2 1a	 add	 edx, 26			; 0000001aH
  00314	52		 push	 edx
  00315	68 00 00 00 00	 push	 OFFSET ??_C@_0EN@PIOGLIPD@c?3?2users?2nhv90?2projects?2eech?2ap@
  0031a	a1 00 00 00 00	 mov	 eax, DWORD PTR ?overload_invalid_list_type_message@@3PBDB ; overload_invalid_list_type_message
  0031f	50		 push	 eax
  00320	e8 00 00 00 00	 call	 ?process_assert@@YGXPBD0H@Z ; process_assert
  00325	c7 45 b0 00 00
	00 00		 mov	 DWORD PTR tv217[ebp], 0
$LN35@change_loc:
  0032c	6a 04		 push	 4
  0032e	8b 4d fc	 mov	 ecx, DWORD PTR _group$[ebp]
  00331	51		 push	 ecx
  00332	69 55 b4 b4 00
	00 00		 imul	 edx, DWORD PTR tv209[ebp], 180
  00339	8b 45 b0	 mov	 eax, DWORD PTR tv217[ebp]
  0033c	8b 8c 82 00 00
	00 00		 mov	 ecx, DWORD PTR ?fn_get_local_entity_child_succ@@3PAY0CN@P6GPAUENTITY@@PAU1@W4LIST_TYPES@@@ZA[edx+eax*4]
  00343	ff d1		 call	 ecx
  00345	89 45 fc	 mov	 DWORD PTR _group$[ebp], eax

; 1528 : 	}

  00348	e9 5a fd ff ff	 jmp	 $LN2@change_loc
$LN3@change_loc:

; 1529 : 
; 1530 : 	//
; 1531 : 	// Regen Buildings
; 1532 : 	//
; 1533 : 	
; 1534 : 	group = get_local_entity_first_child (en, LIST_TYPE_REGEN);

  0034d	83 7d 08 00	 cmp	 DWORD PTR _en$[ebp], 0
  00351	74 0a		 je	 SHORT $LN36@change_loc
  00353	8b 45 08	 mov	 eax, DWORD PTR _en$[ebp]
  00356	8b 08		 mov	 ecx, DWORD PTR [eax]
  00358	89 4d b4	 mov	 DWORD PTR tv229[ebp], ecx
  0035b	eb 21		 jmp	 SHORT $LN37@change_loc
$LN36@change_loc:
  0035d	8b 15 00 00 00
	00		 mov	 edx, DWORD PTR ?__LINE__Var@?0??change_local_keysite_building_sides@@YGXPAUENTITY@@W4ENTITY_SIDES@@@Z@4JA
  00363	83 c2 21	 add	 edx, 33			; 00000021H
  00366	52		 push	 edx
  00367	68 00 00 00 00	 push	 OFFSET ??_C@_0EN@PIOGLIPD@c?3?2users?2nhv90?2projects?2eech?2ap@
  0036c	a1 00 00 00 00	 mov	 eax, DWORD PTR ?null_entity_pointer_message@@3PBDB ; null_entity_pointer_message
  00371	50		 push	 eax
  00372	e8 00 00 00 00	 call	 ?process_assert@@YGXPBD0H@Z ; process_assert
  00377	c7 45 b4 00 00
	00 00		 mov	 DWORD PTR tv229[ebp], 0
$LN37@change_loc:
  0037e	b9 01 00 00 00	 mov	 ecx, 1
  00383	85 c9		 test	 ecx, ecx
  00385	74 09		 je	 SHORT $LN38@change_loc
  00387	c7 45 b0 1f 00
	00 00		 mov	 DWORD PTR tv237[ebp], 31 ; 0000001fH
  0038e	eb 21		 jmp	 SHORT $LN39@change_loc
$LN38@change_loc:
  00390	8b 15 00 00 00
	00		 mov	 edx, DWORD PTR ?__LINE__Var@?0??change_local_keysite_building_sides@@YGXPAUENTITY@@W4ENTITY_SIDES@@@Z@4JA
  00396	83 c2 21	 add	 edx, 33			; 00000021H
  00399	52		 push	 edx
  0039a	68 00 00 00 00	 push	 OFFSET ??_C@_0EN@PIOGLIPD@c?3?2users?2nhv90?2projects?2eech?2ap@
  0039f	a1 00 00 00 00	 mov	 eax, DWORD PTR ?overload_invalid_list_type_message@@3PBDB ; overload_invalid_list_type_message
  003a4	50		 push	 eax
  003a5	e8 00 00 00 00	 call	 ?process_assert@@YGXPBD0H@Z ; process_assert
  003aa	c7 45 b0 00 00
	00 00		 mov	 DWORD PTR tv237[ebp], 0
$LN39@change_loc:
  003b1	6a 1f		 push	 31			; 0000001fH
  003b3	8b 4d 08	 mov	 ecx, DWORD PTR _en$[ebp]
  003b6	51		 push	 ecx
  003b7	69 55 b4 b4 00
	00 00		 imul	 edx, DWORD PTR tv229[ebp], 180
  003be	8b 45 b0	 mov	 eax, DWORD PTR tv237[ebp]
  003c1	8b 8c 82 00 00
	00 00		 mov	 ecx, DWORD PTR ?fn_get_local_entity_first_child@@3PAY0CN@P6GPAUENTITY@@PAU1@W4LIST_TYPES@@@ZA[edx+eax*4]
  003c8	ff d1		 call	 ecx
  003ca	89 45 fc	 mov	 DWORD PTR _group$[ebp], eax
$LN6@change_loc:

; 1535 : 
; 1536 : 	while (group)

  003cd	83 7d fc 00	 cmp	 DWORD PTR _group$[ebp], 0
  003d1	0f 84 9c 02 00
	00		 je	 $LN1@change_loc

; 1537 : 	{
; 1538 : 		set_local_entity_int_value (group, INT_TYPE_SIDE, new_side);

  003d7	83 7d fc 00	 cmp	 DWORD PTR _group$[ebp], 0
  003db	74 0a		 je	 SHORT $LN40@change_loc
  003dd	8b 45 fc	 mov	 eax, DWORD PTR _group$[ebp]
  003e0	8b 08		 mov	 ecx, DWORD PTR [eax]
  003e2	89 4d b4	 mov	 DWORD PTR tv250[ebp], ecx
  003e5	eb 21		 jmp	 SHORT $LN41@change_loc
$LN40@change_loc:
  003e7	8b 15 00 00 00
	00		 mov	 edx, DWORD PTR ?__LINE__Var@?0??change_local_keysite_building_sides@@YGXPAUENTITY@@W4ENTITY_SIDES@@@Z@4JA
  003ed	83 c2 25	 add	 edx, 37			; 00000025H
  003f0	52		 push	 edx
  003f1	68 00 00 00 00	 push	 OFFSET ??_C@_0EN@PIOGLIPD@c?3?2users?2nhv90?2projects?2eech?2ap@
  003f6	a1 00 00 00 00	 mov	 eax, DWORD PTR ?null_entity_pointer_message@@3PBDB ; null_entity_pointer_message
  003fb	50		 push	 eax
  003fc	e8 00 00 00 00	 call	 ?process_assert@@YGXPBD0H@Z ; process_assert
  00401	c7 45 b4 00 00
	00 00		 mov	 DWORD PTR tv250[ebp], 0
$LN41@change_loc:
  00408	b9 01 00 00 00	 mov	 ecx, 1
  0040d	85 c9		 test	 ecx, ecx
  0040f	74 09		 je	 SHORT $LN42@change_loc
  00411	c7 45 b0 bb 00
	00 00		 mov	 DWORD PTR tv258[ebp], 187 ; 000000bbH
  00418	eb 21		 jmp	 SHORT $LN43@change_loc
$LN42@change_loc:
  0041a	8b 15 00 00 00
	00		 mov	 edx, DWORD PTR ?__LINE__Var@?0??change_local_keysite_building_sides@@YGXPAUENTITY@@W4ENTITY_SIDES@@@Z@4JA
  00420	83 c2 25	 add	 edx, 37			; 00000025H
  00423	52		 push	 edx
  00424	68 00 00 00 00	 push	 OFFSET ??_C@_0EN@PIOGLIPD@c?3?2users?2nhv90?2projects?2eech?2ap@
  00429	a1 00 00 00 00	 mov	 eax, DWORD PTR ?overload_invalid_int_type_message@@3PBDB ; overload_invalid_int_type_message
  0042e	50		 push	 eax
  0042f	e8 00 00 00 00	 call	 ?process_assert@@YGXPBD0H@Z ; process_assert
  00434	c7 45 b0 00 00
	00 00		 mov	 DWORD PTR tv258[ebp], 0
$LN43@change_loc:
  0043b	8b 4d 0c	 mov	 ecx, DWORD PTR _new_side$[ebp]
  0043e	51		 push	 ecx
  0043f	68 bb 00 00 00	 push	 187			; 000000bbH
  00444	8b 55 fc	 mov	 edx, DWORD PTR _group$[ebp]
  00447	52		 push	 edx
  00448	69 45 b4 5c 04
	00 00		 imul	 eax, DWORD PTR tv250[ebp], 1116
  0044f	8b 4d b0	 mov	 ecx, DWORD PTR tv258[ebp]
  00452	8b 94 88 00 00
	00 00		 mov	 edx, DWORD PTR ?fn_set_local_entity_int_value@@3PAY0BBH@P6GXPAUENTITY@@W4INT_TYPES@@H@ZA[eax+ecx*4]
  00459	ff d2		 call	 edx

; 1539 : 
; 1540 : 		member = get_local_entity_first_child (group, LIST_TYPE_MEMBER);

  0045b	83 7d fc 00	 cmp	 DWORD PTR _group$[ebp], 0
  0045f	74 0a		 je	 SHORT $LN44@change_loc
  00461	8b 45 fc	 mov	 eax, DWORD PTR _group$[ebp]
  00464	8b 08		 mov	 ecx, DWORD PTR [eax]
  00466	89 4d b4	 mov	 DWORD PTR tv270[ebp], ecx
  00469	eb 21		 jmp	 SHORT $LN45@change_loc
$LN44@change_loc:
  0046b	8b 15 00 00 00
	00		 mov	 edx, DWORD PTR ?__LINE__Var@?0??change_local_keysite_building_sides@@YGXPAUENTITY@@W4ENTITY_SIDES@@@Z@4JA
  00471	83 c2 27	 add	 edx, 39			; 00000027H
  00474	52		 push	 edx
  00475	68 00 00 00 00	 push	 OFFSET ??_C@_0EN@PIOGLIPD@c?3?2users?2nhv90?2projects?2eech?2ap@
  0047a	a1 00 00 00 00	 mov	 eax, DWORD PTR ?null_entity_pointer_message@@3PBDB ; null_entity_pointer_message
  0047f	50		 push	 eax
  00480	e8 00 00 00 00	 call	 ?process_assert@@YGXPBD0H@Z ; process_assert
  00485	c7 45 b4 00 00
	00 00		 mov	 DWORD PTR tv270[ebp], 0
$LN45@change_loc:
  0048c	b9 01 00 00 00	 mov	 ecx, 1
  00491	85 c9		 test	 ecx, ecx
  00493	74 09		 je	 SHORT $LN46@change_loc
  00495	c7 45 b0 19 00
	00 00		 mov	 DWORD PTR tv278[ebp], 25 ; 00000019H
  0049c	eb 21		 jmp	 SHORT $LN47@change_loc
$LN46@change_loc:
  0049e	8b 15 00 00 00
	00		 mov	 edx, DWORD PTR ?__LINE__Var@?0??change_local_keysite_building_sides@@YGXPAUENTITY@@W4ENTITY_SIDES@@@Z@4JA
  004a4	83 c2 27	 add	 edx, 39			; 00000027H
  004a7	52		 push	 edx
  004a8	68 00 00 00 00	 push	 OFFSET ??_C@_0EN@PIOGLIPD@c?3?2users?2nhv90?2projects?2eech?2ap@
  004ad	a1 00 00 00 00	 mov	 eax, DWORD PTR ?overload_invalid_list_type_message@@3PBDB ; overload_invalid_list_type_message
  004b2	50		 push	 eax
  004b3	e8 00 00 00 00	 call	 ?process_assert@@YGXPBD0H@Z ; process_assert
  004b8	c7 45 b0 00 00
	00 00		 mov	 DWORD PTR tv278[ebp], 0
$LN47@change_loc:
  004bf	6a 19		 push	 25			; 00000019H
  004c1	8b 4d fc	 mov	 ecx, DWORD PTR _group$[ebp]
  004c4	51		 push	 ecx
  004c5	69 55 b4 b4 00
	00 00		 imul	 edx, DWORD PTR tv270[ebp], 180
  004cc	8b 45 b0	 mov	 eax, DWORD PTR tv278[ebp]
  004cf	8b 8c 82 00 00
	00 00		 mov	 ecx, DWORD PTR ?fn_get_local_entity_first_child@@3PAY0CN@P6GPAUENTITY@@PAU1@W4LIST_TYPES@@@ZA[edx+eax*4]
  004d6	ff d1		 call	 ecx
  004d8	89 45 f8	 mov	 DWORD PTR _member$[ebp], eax
$LN8@change_loc:

; 1541 : 
; 1542 : 		while (member)

  004db	83 7d f8 00	 cmp	 DWORD PTR _member$[ebp], 0
  004df	0f 84 09 01 00
	00		 je	 $LN9@change_loc

; 1543 : 		{
; 1544 : 			set_local_entity_int_value (member, INT_TYPE_SIDE, new_side);

  004e5	83 7d f8 00	 cmp	 DWORD PTR _member$[ebp], 0
  004e9	74 0a		 je	 SHORT $LN48@change_loc
  004eb	8b 45 f8	 mov	 eax, DWORD PTR _member$[ebp]
  004ee	8b 08		 mov	 ecx, DWORD PTR [eax]
  004f0	89 4d b4	 mov	 DWORD PTR tv291[ebp], ecx
  004f3	eb 21		 jmp	 SHORT $LN49@change_loc
$LN48@change_loc:
  004f5	8b 15 00 00 00
	00		 mov	 edx, DWORD PTR ?__LINE__Var@?0??change_local_keysite_building_sides@@YGXPAUENTITY@@W4ENTITY_SIDES@@@Z@4JA
  004fb	83 c2 2b	 add	 edx, 43			; 0000002bH
  004fe	52		 push	 edx
  004ff	68 00 00 00 00	 push	 OFFSET ??_C@_0EN@PIOGLIPD@c?3?2users?2nhv90?2projects?2eech?2ap@
  00504	a1 00 00 00 00	 mov	 eax, DWORD PTR ?null_entity_pointer_message@@3PBDB ; null_entity_pointer_message
  00509	50		 push	 eax
  0050a	e8 00 00 00 00	 call	 ?process_assert@@YGXPBD0H@Z ; process_assert
  0050f	c7 45 b4 00 00
	00 00		 mov	 DWORD PTR tv291[ebp], 0
$LN49@change_loc:
  00516	b9 01 00 00 00	 mov	 ecx, 1
  0051b	85 c9		 test	 ecx, ecx
  0051d	74 09		 je	 SHORT $LN50@change_loc
  0051f	c7 45 b0 bb 00
	00 00		 mov	 DWORD PTR tv299[ebp], 187 ; 000000bbH
  00526	eb 21		 jmp	 SHORT $LN51@change_loc
$LN50@change_loc:
  00528	8b 15 00 00 00
	00		 mov	 edx, DWORD PTR ?__LINE__Var@?0??change_local_keysite_building_sides@@YGXPAUENTITY@@W4ENTITY_SIDES@@@Z@4JA
  0052e	83 c2 2b	 add	 edx, 43			; 0000002bH
  00531	52		 push	 edx
  00532	68 00 00 00 00	 push	 OFFSET ??_C@_0EN@PIOGLIPD@c?3?2users?2nhv90?2projects?2eech?2ap@
  00537	a1 00 00 00 00	 mov	 eax, DWORD PTR ?overload_invalid_int_type_message@@3PBDB ; overload_invalid_int_type_message
  0053c	50		 push	 eax
  0053d	e8 00 00 00 00	 call	 ?process_assert@@YGXPBD0H@Z ; process_assert
  00542	c7 45 b0 00 00
	00 00		 mov	 DWORD PTR tv299[ebp], 0
$LN51@change_loc:
  00549	8b 4d 0c	 mov	 ecx, DWORD PTR _new_side$[ebp]
  0054c	51		 push	 ecx
  0054d	68 bb 00 00 00	 push	 187			; 000000bbH
  00552	8b 55 f8	 mov	 edx, DWORD PTR _member$[ebp]
  00555	52		 push	 edx
  00556	69 45 b4 5c 04
	00 00		 imul	 eax, DWORD PTR tv291[ebp], 1116
  0055d	8b 4d b0	 mov	 ecx, DWORD PTR tv299[ebp]
  00560	8b 94 88 00 00
	00 00		 mov	 edx, DWORD PTR ?fn_set_local_entity_int_value@@3PAY0BBH@P6GXPAUENTITY@@W4INT_TYPES@@H@ZA[eax+ecx*4]
  00567	ff d2		 call	 edx

; 1545 : 			
; 1546 : 			member = get_local_entity_child_succ (member, LIST_TYPE_MEMBER);

  00569	83 7d f8 00	 cmp	 DWORD PTR _member$[ebp], 0
  0056d	74 0a		 je	 SHORT $LN52@change_loc
  0056f	8b 45 f8	 mov	 eax, DWORD PTR _member$[ebp]
  00572	8b 08		 mov	 ecx, DWORD PTR [eax]
  00574	89 4d b4	 mov	 DWORD PTR tv311[ebp], ecx
  00577	eb 21		 jmp	 SHORT $LN53@change_loc
$LN52@change_loc:
  00579	8b 15 00 00 00
	00		 mov	 edx, DWORD PTR ?__LINE__Var@?0??change_local_keysite_building_sides@@YGXPAUENTITY@@W4ENTITY_SIDES@@@Z@4JA
  0057f	83 c2 2d	 add	 edx, 45			; 0000002dH
  00582	52		 push	 edx
  00583	68 00 00 00 00	 push	 OFFSET ??_C@_0EN@PIOGLIPD@c?3?2users?2nhv90?2projects?2eech?2ap@
  00588	a1 00 00 00 00	 mov	 eax, DWORD PTR ?null_entity_pointer_message@@3PBDB ; null_entity_pointer_message
  0058d	50		 push	 eax
  0058e	e8 00 00 00 00	 call	 ?process_assert@@YGXPBD0H@Z ; process_assert
  00593	c7 45 b4 00 00
	00 00		 mov	 DWORD PTR tv311[ebp], 0
$LN53@change_loc:
  0059a	b9 01 00 00 00	 mov	 ecx, 1
  0059f	85 c9		 test	 ecx, ecx
  005a1	74 09		 je	 SHORT $LN54@change_loc
  005a3	c7 45 b0 19 00
	00 00		 mov	 DWORD PTR tv319[ebp], 25 ; 00000019H
  005aa	eb 21		 jmp	 SHORT $LN55@change_loc
$LN54@change_loc:
  005ac	8b 15 00 00 00
	00		 mov	 edx, DWORD PTR ?__LINE__Var@?0??change_local_keysite_building_sides@@YGXPAUENTITY@@W4ENTITY_SIDES@@@Z@4JA
  005b2	83 c2 2d	 add	 edx, 45			; 0000002dH
  005b5	52		 push	 edx
  005b6	68 00 00 00 00	 push	 OFFSET ??_C@_0EN@PIOGLIPD@c?3?2users?2nhv90?2projects?2eech?2ap@
  005bb	a1 00 00 00 00	 mov	 eax, DWORD PTR ?overload_invalid_list_type_message@@3PBDB ; overload_invalid_list_type_message
  005c0	50		 push	 eax
  005c1	e8 00 00 00 00	 call	 ?process_assert@@YGXPBD0H@Z ; process_assert
  005c6	c7 45 b0 00 00
	00 00		 mov	 DWORD PTR tv319[ebp], 0
$LN55@change_loc:
  005cd	6a 19		 push	 25			; 00000019H
  005cf	8b 4d f8	 mov	 ecx, DWORD PTR _member$[ebp]
  005d2	51		 push	 ecx
  005d3	69 55 b4 b4 00
	00 00		 imul	 edx, DWORD PTR tv311[ebp], 180
  005da	8b 45 b0	 mov	 eax, DWORD PTR tv319[ebp]
  005dd	8b 8c 82 00 00
	00 00		 mov	 ecx, DWORD PTR ?fn_get_local_entity_child_succ@@3PAY0CN@P6GPAUENTITY@@PAU1@W4LIST_TYPES@@@ZA[edx+eax*4]
  005e4	ff d1		 call	 ecx
  005e6	89 45 f8	 mov	 DWORD PTR _member$[ebp], eax

; 1547 : 		}

  005e9	e9 ed fe ff ff	 jmp	 $LN8@change_loc
$LN9@change_loc:

; 1548 : 
; 1549 : 		group = get_local_entity_child_succ (group, LIST_TYPE_REGEN);

  005ee	83 7d fc 00	 cmp	 DWORD PTR _group$[ebp], 0
  005f2	74 0a		 je	 SHORT $LN56@change_loc
  005f4	8b 45 fc	 mov	 eax, DWORD PTR _group$[ebp]
  005f7	8b 08		 mov	 ecx, DWORD PTR [eax]
  005f9	89 4d b4	 mov	 DWORD PTR tv331[ebp], ecx
  005fc	eb 21		 jmp	 SHORT $LN57@change_loc
$LN56@change_loc:
  005fe	8b 15 00 00 00
	00		 mov	 edx, DWORD PTR ?__LINE__Var@?0??change_local_keysite_building_sides@@YGXPAUENTITY@@W4ENTITY_SIDES@@@Z@4JA
  00604	83 c2 30	 add	 edx, 48			; 00000030H
  00607	52		 push	 edx
  00608	68 00 00 00 00	 push	 OFFSET ??_C@_0EN@PIOGLIPD@c?3?2users?2nhv90?2projects?2eech?2ap@
  0060d	a1 00 00 00 00	 mov	 eax, DWORD PTR ?null_entity_pointer_message@@3PBDB ; null_entity_pointer_message
  00612	50		 push	 eax
  00613	e8 00 00 00 00	 call	 ?process_assert@@YGXPBD0H@Z ; process_assert
  00618	c7 45 b4 00 00
	00 00		 mov	 DWORD PTR tv331[ebp], 0
$LN57@change_loc:
  0061f	b9 01 00 00 00	 mov	 ecx, 1
  00624	85 c9		 test	 ecx, ecx
  00626	74 09		 je	 SHORT $LN58@change_loc
  00628	c7 45 b0 1f 00
	00 00		 mov	 DWORD PTR tv339[ebp], 31 ; 0000001fH
  0062f	eb 21		 jmp	 SHORT $LN59@change_loc
$LN58@change_loc:
  00631	8b 15 00 00 00
	00		 mov	 edx, DWORD PTR ?__LINE__Var@?0??change_local_keysite_building_sides@@YGXPAUENTITY@@W4ENTITY_SIDES@@@Z@4JA
  00637	83 c2 30	 add	 edx, 48			; 00000030H
  0063a	52		 push	 edx
  0063b	68 00 00 00 00	 push	 OFFSET ??_C@_0EN@PIOGLIPD@c?3?2users?2nhv90?2projects?2eech?2ap@
  00640	a1 00 00 00 00	 mov	 eax, DWORD PTR ?overload_invalid_list_type_message@@3PBDB ; overload_invalid_list_type_message
  00645	50		 push	 eax
  00646	e8 00 00 00 00	 call	 ?process_assert@@YGXPBD0H@Z ; process_assert
  0064b	c7 45 b0 00 00
	00 00		 mov	 DWORD PTR tv339[ebp], 0
$LN59@change_loc:
  00652	6a 1f		 push	 31			; 0000001fH
  00654	8b 4d fc	 mov	 ecx, DWORD PTR _group$[ebp]
  00657	51		 push	 ecx
  00658	69 55 b4 b4 00
	00 00		 imul	 edx, DWORD PTR tv331[ebp], 180
  0065f	8b 45 b0	 mov	 eax, DWORD PTR tv339[ebp]
  00662	8b 8c 82 00 00
	00 00		 mov	 ecx, DWORD PTR ?fn_get_local_entity_child_succ@@3PAY0CN@P6GPAUENTITY@@PAU1@W4LIST_TYPES@@@ZA[edx+eax*4]
  00669	ff d1		 call	 ecx
  0066b	89 45 fc	 mov	 DWORD PTR _group$[ebp], eax

; 1550 : 	}

  0066e	e9 5a fd ff ff	 jmp	 $LN6@change_loc
$LN1@change_loc:

; 1551 : }

  00673	5f		 pop	 edi
  00674	5e		 pop	 esi
  00675	5b		 pop	 ebx
  00676	8b e5		 mov	 esp, ebp
  00678	5d		 pop	 ebp
  00679	c2 08 00	 ret	 8
?change_local_keysite_building_sides@@YGXPAUENTITY@@W4ENTITY_SIDES@@@Z ENDP ; change_local_keysite_building_sides
_TEXT	ENDS
; Function compile flags: /Odtp /ZI
; File c:\users\nhv90\projects\eech\aphavoc\source\entity\special\keysite\keysite.c
;	COMDAT ?capture_keysite@@YGXPAUENTITY@@W4ENTITY_SIDES@@@Z
_TEXT	SEGMENT
tv527 = -104						; size = 4
tv505 = -104						; size = 4
tv483 = -104						; size = 4
tv451 = -104						; size = 4
tv427 = -104						; size = 4
tv400 = -104						; size = 4
tv376 = -104						; size = 4
tv354 = -104						; size = 4
tv333 = -104						; size = 4
tv311 = -104						; size = 4
tv290 = -104						; size = 4
tv269 = -104						; size = 4
tv250 = -104						; size = 4
tv231 = -104						; size = 4
tv193 = -104						; size = 4
tv164 = -104						; size = 4
tv141 = -104						; size = 4
tv533 = -100						; size = 4
tv519 = -100						; size = 4
tv497 = -100						; size = 4
tv475 = -100						; size = 4
tv443 = -100						; size = 4
tv419 = -100						; size = 4
tv392 = -100						; size = 4
tv368 = -100						; size = 4
tv346 = -100						; size = 4
tv325 = -100						; size = 4
tv303 = -100						; size = 4
tv282 = -100						; size = 4
tv262 = -100						; size = 4
tv243 = -100						; size = 4
tv223 = -100						; size = 4
tv185 = -100						; size = 4
tv156 = -100						; size = 4
tv133 = -100						; size = 4
tv75 = -100						; size = 4
_member$1 = -32						; size = 4
_group$2 = -28						; size = 4
_loop$ = -24						; size = 4
_pos$ = -20						; size = 4
_keysite_type$ = -16					; size = 4
_side$ = -12						; size = 4
_force$ = -8						; size = 4
_raw$ = -4						; size = 4
_en$ = 8						; size = 4
_new_side$ = 12						; size = 4
?capture_keysite@@YGXPAUENTITY@@W4ENTITY_SIDES@@@Z PROC	; capture_keysite, COMDAT

; 1288 : {

  00000	55		 push	 ebp
  00001	8b ec		 mov	 ebp, esp
  00003	83 ec 68	 sub	 esp, 104		; 00000068H
  00006	53		 push	 ebx
  00007	56		 push	 esi
  00008	57		 push	 edi

; 1289 : 	keysite
; 1290 : 		*raw;
; 1291 : 
; 1292 : 	entity
; 1293 : 		*force;
; 1294 : 
; 1295 : 	entity_sides
; 1296 : 		side;
; 1297 : 
; 1298 : 	entity_sub_types
; 1299 : 		keysite_type;
; 1300 : 
; 1301 : 	vec3d
; 1302 : 		*pos;
; 1303 : 
; 1304 : 	int
; 1305 : 		loop;
; 1306 : 
; 1307 : 	ASSERT (en);

  00009	83 7d 08 00	 cmp	 DWORD PTR _en$[ebp], 0
  0000d	75 18		 jne	 SHORT $LN13@capture_ke
  0000f	a1 00 00 00 00	 mov	 eax, DWORD PTR ?__LINE__Var@?0??capture_keysite@@YGXPAUENTITY@@W4ENTITY_SIDES@@@Z@4JA
  00014	83 c0 13	 add	 eax, 19			; 00000013H
  00017	50		 push	 eax
  00018	68 00 00 00 00	 push	 OFFSET ??_C@_0EN@PIOGLIPD@c?3?2users?2nhv90?2projects?2eech?2ap@
  0001d	68 00 00 00 00	 push	 OFFSET ??_C@_02LFNMGJAP@en@
  00022	e8 00 00 00 00	 call	 ?process_assert@@YGXPBD0H@Z ; process_assert
$LN13@capture_ke:

; 1308 : 
; 1309 : 	ASSERT (get_local_entity_type (en) == ENTITY_TYPE_KEYSITE);

  00027	83 7d 08 00	 cmp	 DWORD PTR _en$[ebp], 0
  0002b	74 0a		 je	 SHORT $LN26@capture_ke
  0002d	8b 45 08	 mov	 eax, DWORD PTR _en$[ebp]
  00030	8b 08		 mov	 ecx, DWORD PTR [eax]
  00032	89 4d 9c	 mov	 DWORD PTR tv75[ebp], ecx
  00035	eb 21		 jmp	 SHORT $LN27@capture_ke
$LN26@capture_ke:
  00037	8b 15 00 00 00
	00		 mov	 edx, DWORD PTR ?__LINE__Var@?0??capture_keysite@@YGXPAUENTITY@@W4ENTITY_SIDES@@@Z@4JA
  0003d	83 c2 15	 add	 edx, 21			; 00000015H
  00040	52		 push	 edx
  00041	68 00 00 00 00	 push	 OFFSET ??_C@_0EN@PIOGLIPD@c?3?2users?2nhv90?2projects?2eech?2ap@
  00046	a1 00 00 00 00	 mov	 eax, DWORD PTR ?null_entity_pointer_message@@3PBDB ; null_entity_pointer_message
  0004b	50		 push	 eax
  0004c	e8 00 00 00 00	 call	 ?process_assert@@YGXPBD0H@Z ; process_assert
  00051	c7 45 9c 00 00
	00 00		 mov	 DWORD PTR tv75[ebp], 0
$LN27@capture_ke:
  00058	83 7d 9c 0f	 cmp	 DWORD PTR tv75[ebp], 15	; 0000000fH
  0005c	74 18		 je	 SHORT $LN14@capture_ke
  0005e	a1 00 00 00 00	 mov	 eax, DWORD PTR ?__LINE__Var@?0??capture_keysite@@YGXPAUENTITY@@W4ENTITY_SIDES@@@Z@4JA
  00063	83 c0 15	 add	 eax, 21			; 00000015H
  00066	50		 push	 eax
  00067	68 00 00 00 00	 push	 OFFSET ??_C@_0EN@PIOGLIPD@c?3?2users?2nhv90?2projects?2eech?2ap@
  0006c	68 00 00 00 00	 push	 OFFSET ??_C@_0DC@BODFACEG@get_local_entity_type?5?$CIen?$CJ?5?$DN?$DN?5E@
  00071	e8 00 00 00 00	 call	 ?process_assert@@YGXPBD0H@Z ; process_assert
$LN14@capture_ke:

; 1310 : 
; 1311 : 	ASSERT (get_comms_model () == COMMS_MODEL_SERVER);

  00076	83 3d 00 00 00
	00 00		 cmp	 DWORD PTR ?system_comms_model@@3W4COMMS_MODEL_TYPES@@A, 0 ; system_comms_model
  0007d	74 18		 je	 SHORT $LN15@capture_ke
  0007f	a1 00 00 00 00	 mov	 eax, DWORD PTR ?__LINE__Var@?0??capture_keysite@@YGXPAUENTITY@@W4ENTITY_SIDES@@@Z@4JA
  00084	83 c0 17	 add	 eax, 23			; 00000017H
  00087	50		 push	 eax
  00088	68 00 00 00 00	 push	 OFFSET ??_C@_0EN@PIOGLIPD@c?3?2users?2nhv90?2projects?2eech?2ap@
  0008d	68 00 00 00 00	 push	 OFFSET ??_C@_0CJ@DMBLBJBK@get_comms_model?5?$CI?$CJ?5?$DN?$DN?5COMMS_MOD@
  00092	e8 00 00 00 00	 call	 ?process_assert@@YGXPBD0H@Z ; process_assert
$LN15@capture_ke:

; 1312 : 
; 1313 : 	raw = (keysite *) get_local_entity_data (en);

  00097	8b 45 08	 mov	 eax, DWORD PTR _en$[ebp]
  0009a	8b 48 04	 mov	 ecx, DWORD PTR [eax+4]
  0009d	89 4d fc	 mov	 DWORD PTR _raw$[ebp], ecx

; 1314 : 
; 1315 : 	side = (entity_sides) raw->side;

  000a0	8b 45 fc	 mov	 eax, DWORD PTR _raw$[ebp]
  000a3	8b 88 a0 01 00
	00		 mov	 ecx, DWORD PTR [eax+416]
  000a9	c1 e9 1d	 shr	 ecx, 29			; 0000001dH
  000ac	83 e1 03	 and	 ecx, 3
  000af	89 4d f4	 mov	 DWORD PTR _side$[ebp], ecx

; 1316 : 
; 1317 : 	ASSERT (side != new_side);

  000b2	8b 45 f4	 mov	 eax, DWORD PTR _side$[ebp]
  000b5	3b 45 0c	 cmp	 eax, DWORD PTR _new_side$[ebp]
  000b8	75 18		 jne	 SHORT $LN16@capture_ke
  000ba	a1 00 00 00 00	 mov	 eax, DWORD PTR ?__LINE__Var@?0??capture_keysite@@YGXPAUENTITY@@W4ENTITY_SIDES@@@Z@4JA
  000bf	83 c0 1d	 add	 eax, 29			; 0000001dH
  000c2	50		 push	 eax
  000c3	68 00 00 00 00	 push	 OFFSET ??_C@_0EN@PIOGLIPD@c?3?2users?2nhv90?2projects?2eech?2ap@
  000c8	68 00 00 00 00	 push	 OFFSET ??_C@_0BB@MOMEHOGH@side?5?$CB?$DN?5new_side@
  000cd	e8 00 00 00 00	 call	 ?process_assert@@YGXPBD0H@Z ; process_assert
$LN16@capture_ke:

; 1318 : 
; 1319 : 	pos = get_local_entity_vec3d_ptr (en, VEC3D_TYPE_POSITION);

  000d2	83 7d 08 00	 cmp	 DWORD PTR _en$[ebp], 0
  000d6	74 0a		 je	 SHORT $LN28@capture_ke
  000d8	8b 45 08	 mov	 eax, DWORD PTR _en$[ebp]
  000db	8b 08		 mov	 ecx, DWORD PTR [eax]
  000dd	89 4d 9c	 mov	 DWORD PTR tv133[ebp], ecx
  000e0	eb 21		 jmp	 SHORT $LN29@capture_ke
$LN28@capture_ke:
  000e2	8b 15 00 00 00
	00		 mov	 edx, DWORD PTR ?__LINE__Var@?0??capture_keysite@@YGXPAUENTITY@@W4ENTITY_SIDES@@@Z@4JA
  000e8	83 c2 1f	 add	 edx, 31			; 0000001fH
  000eb	52		 push	 edx
  000ec	68 00 00 00 00	 push	 OFFSET ??_C@_0EN@PIOGLIPD@c?3?2users?2nhv90?2projects?2eech?2ap@
  000f1	a1 00 00 00 00	 mov	 eax, DWORD PTR ?null_entity_pointer_message@@3PBDB ; null_entity_pointer_message
  000f6	50		 push	 eax
  000f7	e8 00 00 00 00	 call	 ?process_assert@@YGXPBD0H@Z ; process_assert
  000fc	c7 45 9c 00 00
	00 00		 mov	 DWORD PTR tv133[ebp], 0
$LN29@capture_ke:
  00103	b9 01 00 00 00	 mov	 ecx, 1
  00108	85 c9		 test	 ecx, ecx
  0010a	74 09		 je	 SHORT $LN30@capture_ke
  0010c	c7 45 98 08 00
	00 00		 mov	 DWORD PTR tv141[ebp], 8
  00113	eb 21		 jmp	 SHORT $LN31@capture_ke
$LN30@capture_ke:
  00115	8b 15 00 00 00
	00		 mov	 edx, DWORD PTR ?__LINE__Var@?0??capture_keysite@@YGXPAUENTITY@@W4ENTITY_SIDES@@@Z@4JA
  0011b	83 c2 1f	 add	 edx, 31			; 0000001fH
  0011e	52		 push	 edx
  0011f	68 00 00 00 00	 push	 OFFSET ??_C@_0EN@PIOGLIPD@c?3?2users?2nhv90?2projects?2eech?2ap@
  00124	a1 00 00 00 00	 mov	 eax, DWORD PTR ?overload_invalid_vec3d_type_message@@3PBDB ; overload_invalid_vec3d_type_message
  00129	50		 push	 eax
  0012a	e8 00 00 00 00	 call	 ?process_assert@@YGXPBD0H@Z ; process_assert
  0012f	c7 45 98 00 00
	00 00		 mov	 DWORD PTR tv141[ebp], 0
$LN31@capture_ke:
  00136	6a 08		 push	 8
  00138	8b 4d 08	 mov	 ecx, DWORD PTR _en$[ebp]
  0013b	51		 push	 ecx
  0013c	6b 55 9c 60	 imul	 edx, DWORD PTR tv133[ebp], 96
  00140	8b 45 98	 mov	 eax, DWORD PTR tv141[ebp]
  00143	8b 8c 82 00 00
	00 00		 mov	 ecx, DWORD PTR ?fn_get_local_entity_vec3d_ptr@@3PAY0BI@P6GPAUVEC3D@@PAUENTITY@@W4VEC3D_TYPES@@@ZA[edx+eax*4]
  0014a	ff d1		 call	 ecx
  0014c	89 45 ec	 mov	 DWORD PTR _pos$[ebp], eax

; 1320 : 
; 1321 : 	ai_log ("(KEYSITE) %s CAPTURED BY %s", get_local_entity_string (en, STRING_TYPE_KEYSITE_NAME), entity_side_short_names [new_side]);

  0014f	83 7d 08 00	 cmp	 DWORD PTR _en$[ebp], 0
  00153	74 0a		 je	 SHORT $LN32@capture_ke
  00155	8b 45 08	 mov	 eax, DWORD PTR _en$[ebp]
  00158	8b 08		 mov	 ecx, DWORD PTR [eax]
  0015a	89 4d 9c	 mov	 DWORD PTR tv156[ebp], ecx
  0015d	eb 21		 jmp	 SHORT $LN33@capture_ke
$LN32@capture_ke:
  0015f	8b 15 00 00 00
	00		 mov	 edx, DWORD PTR ?__LINE__Var@?0??capture_keysite@@YGXPAUENTITY@@W4ENTITY_SIDES@@@Z@4JA
  00165	83 c2 21	 add	 edx, 33			; 00000021H
  00168	52		 push	 edx
  00169	68 00 00 00 00	 push	 OFFSET ??_C@_0EN@PIOGLIPD@c?3?2users?2nhv90?2projects?2eech?2ap@
  0016e	a1 00 00 00 00	 mov	 eax, DWORD PTR ?null_entity_pointer_message@@3PBDB ; null_entity_pointer_message
  00173	50		 push	 eax
  00174	e8 00 00 00 00	 call	 ?process_assert@@YGXPBD0H@Z ; process_assert
  00179	c7 45 9c 00 00
	00 00		 mov	 DWORD PTR tv156[ebp], 0
$LN33@capture_ke:
  00180	b9 01 00 00 00	 mov	 ecx, 1
  00185	85 c9		 test	 ecx, ecx
  00187	74 09		 je	 SHORT $LN34@capture_ke
  00189	c7 45 98 07 00
	00 00		 mov	 DWORD PTR tv164[ebp], 7
  00190	eb 21		 jmp	 SHORT $LN35@capture_ke
$LN34@capture_ke:
  00192	8b 15 00 00 00
	00		 mov	 edx, DWORD PTR ?__LINE__Var@?0??capture_keysite@@YGXPAUENTITY@@W4ENTITY_SIDES@@@Z@4JA
  00198	83 c2 21	 add	 edx, 33			; 00000021H
  0019b	52		 push	 edx
  0019c	68 00 00 00 00	 push	 OFFSET ??_C@_0EN@PIOGLIPD@c?3?2users?2nhv90?2projects?2eech?2ap@
  001a1	a1 00 00 00 00	 mov	 eax, DWORD PTR ?overload_invalid_string_type_message@@3PBDB ; overload_invalid_string_type_message
  001a6	50		 push	 eax
  001a7	e8 00 00 00 00	 call	 ?process_assert@@YGXPBD0H@Z ; process_assert
  001ac	c7 45 98 00 00
	00 00		 mov	 DWORD PTR tv164[ebp], 0
$LN35@capture_ke:
  001b3	8b 4d 0c	 mov	 ecx, DWORD PTR _new_side$[ebp]
  001b6	8b 14 8d 00 00
	00 00		 mov	 edx, DWORD PTR ?entity_side_short_names@@3PAPBDA[ecx*4]
  001bd	52		 push	 edx
  001be	6a 07		 push	 7
  001c0	8b 45 08	 mov	 eax, DWORD PTR _en$[ebp]
  001c3	50		 push	 eax
  001c4	6b 4d 9c 34	 imul	 ecx, DWORD PTR tv156[ebp], 52
  001c8	8b 55 98	 mov	 edx, DWORD PTR tv164[ebp]
  001cb	8b 84 91 00 00
	00 00		 mov	 eax, DWORD PTR ?fn_get_local_entity_string@@3PAY0N@P6GPBDPAUENTITY@@W4STRING_TYPES@@@ZA[ecx+edx*4]
  001d2	ff d0		 call	 eax
  001d4	50		 push	 eax
  001d5	68 00 00 00 00	 push	 OFFSET ??_C@_0BM@OOEMOJEM@?$CIKEYSITE?$CJ?5?$CFs?5CAPTURED?5BY?5?$CFs@
  001da	e8 00 00 00 00	 call	 ?ai_log@@YAXPBDZZ	; ai_log
  001df	83 c4 0c	 add	 esp, 12			; 0000000cH

; 1322 : 
; 1323 : 	//
; 1324 : 	// update imaps (old side)
; 1325 : 	//
; 1326 : 
; 1327 : 	update_imap_sector_side (en, FALSE);

  001e2	6a 00		 push	 0
  001e4	8b 45 08	 mov	 eax, DWORD PTR _en$[ebp]
  001e7	50		 push	 eax
  001e8	e8 00 00 00 00	 call	 ?update_imap_sector_side@@YGXPAUENTITY@@H@Z ; update_imap_sector_side

; 1328 : 
; 1329 : 	transmit_entity_comms_message (ENTITY_COMMS_UPDATE_SECTOR_SIDE, en, FALSE);

  001ed	6a 00		 push	 0
  001ef	8b 45 08	 mov	 eax, DWORD PTR _en$[ebp]
  001f2	50		 push	 eax
  001f3	6a 40		 push	 64			; 00000040H
  001f5	e8 00 00 00 00	 call	 ?transmit_entity_comms_message@@YAXW4ENTITY_COMMS_MESSAGES@@PAUENTITY@@ZZ ; transmit_entity_comms_message
  001fa	83 c4 0c	 add	 esp, 12			; 0000000cH

; 1330 : 
; 1331 : 	update_imap_importance_level (en, FALSE);

  001fd	6a 00		 push	 0
  001ff	8b 45 08	 mov	 eax, DWORD PTR _en$[ebp]
  00202	50		 push	 eax
  00203	e8 00 00 00 00	 call	 ?update_imap_importance_level@@YGXPAUENTITY@@H@Z ; update_imap_importance_level

; 1332 : 
; 1333 : 	//
; 1334 : 	// switch sides
; 1335 : 	//
; 1336 : 
; 1337 : 	set_client_server_entity_int_value (en, INT_TYPE_SIDE, new_side);

  00208	83 7d 08 00	 cmp	 DWORD PTR _en$[ebp], 0
  0020c	74 0a		 je	 SHORT $LN36@capture_ke
  0020e	8b 45 08	 mov	 eax, DWORD PTR _en$[ebp]
  00211	8b 08		 mov	 ecx, DWORD PTR [eax]
  00213	89 4d 9c	 mov	 DWORD PTR tv185[ebp], ecx
  00216	eb 21		 jmp	 SHORT $LN37@capture_ke
$LN36@capture_ke:
  00218	8b 15 00 00 00
	00		 mov	 edx, DWORD PTR ?__LINE__Var@?0??capture_keysite@@YGXPAUENTITY@@W4ENTITY_SIDES@@@Z@4JA
  0021e	83 c2 31	 add	 edx, 49			; 00000031H
  00221	52		 push	 edx
  00222	68 00 00 00 00	 push	 OFFSET ??_C@_0EN@PIOGLIPD@c?3?2users?2nhv90?2projects?2eech?2ap@
  00227	a1 00 00 00 00	 mov	 eax, DWORD PTR ?null_entity_pointer_message@@3PBDB ; null_entity_pointer_message
  0022c	50		 push	 eax
  0022d	e8 00 00 00 00	 call	 ?process_assert@@YGXPBD0H@Z ; process_assert
  00232	c7 45 9c 00 00
	00 00		 mov	 DWORD PTR tv185[ebp], 0
$LN37@capture_ke:
  00239	b9 01 00 00 00	 mov	 ecx, 1
  0023e	85 c9		 test	 ecx, ecx
  00240	74 09		 je	 SHORT $LN38@capture_ke
  00242	c7 45 98 bb 00
	00 00		 mov	 DWORD PTR tv193[ebp], 187 ; 000000bbH
  00249	eb 21		 jmp	 SHORT $LN39@capture_ke
$LN38@capture_ke:
  0024b	8b 15 00 00 00
	00		 mov	 edx, DWORD PTR ?__LINE__Var@?0??capture_keysite@@YGXPAUENTITY@@W4ENTITY_SIDES@@@Z@4JA
  00251	83 c2 31	 add	 edx, 49			; 00000031H
  00254	52		 push	 edx
  00255	68 00 00 00 00	 push	 OFFSET ??_C@_0EN@PIOGLIPD@c?3?2users?2nhv90?2projects?2eech?2ap@
  0025a	a1 00 00 00 00	 mov	 eax, DWORD PTR ?overload_invalid_int_type_message@@3PBDB ; overload_invalid_int_type_message
  0025f	50		 push	 eax
  00260	e8 00 00 00 00	 call	 ?process_assert@@YGXPBD0H@Z ; process_assert
  00265	c7 45 98 00 00
	00 00		 mov	 DWORD PTR tv193[ebp], 0
$LN39@capture_ke:
  0026c	8b 4d 0c	 mov	 ecx, DWORD PTR _new_side$[ebp]
  0026f	51		 push	 ecx
  00270	68 bb 00 00 00	 push	 187			; 000000bbH
  00275	8b 55 08	 mov	 edx, DWORD PTR _en$[ebp]
  00278	52		 push	 edx
  00279	69 45 9c b8 08
	00 00		 imul	 eax, DWORD PTR tv185[ebp], 2232
  00280	8b 4d 98	 mov	 ecx, DWORD PTR tv193[ebp]
  00283	8d 94 c8 00 00
	00 00		 lea	 edx, DWORD PTR ?fn_set_client_server_entity_int_value@@3PAY1BBH@1P6GXPAUENTITY@@W4INT_TYPES@@H@ZA[eax+ecx*8]
  0028a	a1 00 00 00 00	 mov	 eax, DWORD PTR ?system_comms_model@@3W4COMMS_MODEL_TYPES@@A ; system_comms_model
  0028f	8b 0c 82	 mov	 ecx, DWORD PTR [edx+eax*4]
  00292	ff d1		 call	 ecx

; 1338 : 
; 1339 : 	set_client_server_entity_parent (en, LIST_TYPE_KEYSITE_FORCE, get_local_force_entity (new_side));

  00294	8b 45 0c	 mov	 eax, DWORD PTR _new_side$[ebp]
  00297	50		 push	 eax
  00298	e8 00 00 00 00	 call	 ?get_local_force_entity@@YGPAUENTITY@@W4ENTITY_SIDES@@@Z ; get_local_force_entity
  0029d	50		 push	 eax
  0029e	6a 15		 push	 21			; 00000015H
  002a0	8b 4d 08	 mov	 ecx, DWORD PTR _en$[ebp]
  002a3	51		 push	 ecx
  002a4	e8 00 00 00 00	 call	 ?set_client_server_entity_parent@@YGXPAUENTITY@@W4LIST_TYPES@@0@Z ; set_client_server_entity_parent

; 1340 : 
; 1341 : 	// must be done after removed from force
; 1342 : 	update_imap_distance_to_friendly_base (side);

  002a9	8b 45 f4	 mov	 eax, DWORD PTR _side$[ebp]
  002ac	50		 push	 eax
  002ad	e8 00 00 00 00	 call	 ?update_imap_distance_to_friendly_base@@YGXW4ENTITY_SIDES@@@Z ; update_imap_distance_to_friendly_base

; 1343 : 
; 1344 : 	//
; 1345 : 	// update imaps (new side)
; 1346 : 	//
; 1347 : 
; 1348 : 	update_imap_sector_side (en, TRUE);

  002b2	6a 01		 push	 1
  002b4	8b 45 08	 mov	 eax, DWORD PTR _en$[ebp]
  002b7	50		 push	 eax
  002b8	e8 00 00 00 00	 call	 ?update_imap_sector_side@@YGXPAUENTITY@@H@Z ; update_imap_sector_side

; 1349 : 
; 1350 : 	transmit_entity_comms_message (ENTITY_COMMS_UPDATE_SECTOR_SIDE, en, TRUE);

  002bd	6a 01		 push	 1
  002bf	8b 45 08	 mov	 eax, DWORD PTR _en$[ebp]
  002c2	50		 push	 eax
  002c3	6a 40		 push	 64			; 00000040H
  002c5	e8 00 00 00 00	 call	 ?transmit_entity_comms_message@@YAXW4ENTITY_COMMS_MESSAGES@@PAUENTITY@@ZZ ; transmit_entity_comms_message
  002ca	83 c4 0c	 add	 esp, 12			; 0000000cH

; 1351 : 
; 1352 : 	update_imap_importance_level (en, TRUE);

  002cd	6a 01		 push	 1
  002cf	8b 45 08	 mov	 eax, DWORD PTR _en$[ebp]
  002d2	50		 push	 eax
  002d3	e8 00 00 00 00	 call	 ?update_imap_importance_level@@YGXPAUENTITY@@H@Z ; update_imap_importance_level

; 1353 : 
; 1354 : 	update_keysite_distance_to_friendly_base (en, new_side);

  002d8	8b 45 0c	 mov	 eax, DWORD PTR _new_side$[ebp]
  002db	50		 push	 eax
  002dc	8b 4d 08	 mov	 ecx, DWORD PTR _en$[ebp]
  002df	51		 push	 ecx
  002e0	e8 00 00 00 00	 call	 ?update_keysite_distance_to_friendly_base@@YGXPAUENTITY@@W4ENTITY_SIDES@@@Z ; update_keysite_distance_to_friendly_base

; 1355 : 
; 1356 : 	if (command_line_capture_aircraft)

  002e5	83 3d 00 00 00
	00 00		 cmp	 DWORD PTR ?command_line_capture_aircraft@@3HA, 0 ; command_line_capture_aircraft
  002ec	0f 84 c8 04 00
	00		 je	 $LN3@capture_ke

; 1357 : 	{
; 1358 : 		//
; 1359 : 		// change side of all idle aircraft landed at the keysite
; 1360 : 		//
; 1361 : 	
; 1362 : 		entity
; 1363 : 			*group,
; 1364 : 			*member;
; 1365 : 
; 1366 : 		group = get_local_entity_first_child (en, LIST_TYPE_KEYSITE_GROUP);

  002f2	83 7d 08 00	 cmp	 DWORD PTR _en$[ebp], 0
  002f6	74 0a		 je	 SHORT $LN40@capture_ke
  002f8	8b 45 08	 mov	 eax, DWORD PTR _en$[ebp]
  002fb	8b 08		 mov	 ecx, DWORD PTR [eax]
  002fd	89 4d 9c	 mov	 DWORD PTR tv223[ebp], ecx
  00300	eb 21		 jmp	 SHORT $LN41@capture_ke
$LN40@capture_ke:
  00302	8b 15 00 00 00
	00		 mov	 edx, DWORD PTR ?__LINE__Var@?0??capture_keysite@@YGXPAUENTITY@@W4ENTITY_SIDES@@@Z@4JA
  00308	83 c2 4e	 add	 edx, 78			; 0000004eH
  0030b	52		 push	 edx
  0030c	68 00 00 00 00	 push	 OFFSET ??_C@_0EN@PIOGLIPD@c?3?2users?2nhv90?2projects?2eech?2ap@
  00311	a1 00 00 00 00	 mov	 eax, DWORD PTR ?null_entity_pointer_message@@3PBDB ; null_entity_pointer_message
  00316	50		 push	 eax
  00317	e8 00 00 00 00	 call	 ?process_assert@@YGXPBD0H@Z ; process_assert
  0031c	c7 45 9c 00 00
	00 00		 mov	 DWORD PTR tv223[ebp], 0
$LN41@capture_ke:
  00323	b9 01 00 00 00	 mov	 ecx, 1
  00328	85 c9		 test	 ecx, ecx
  0032a	74 09		 je	 SHORT $LN42@capture_ke
  0032c	c7 45 98 16 00
	00 00		 mov	 DWORD PTR tv231[ebp], 22 ; 00000016H
  00333	eb 21		 jmp	 SHORT $LN43@capture_ke
$LN42@capture_ke:
  00335	8b 15 00 00 00
	00		 mov	 edx, DWORD PTR ?__LINE__Var@?0??capture_keysite@@YGXPAUENTITY@@W4ENTITY_SIDES@@@Z@4JA
  0033b	83 c2 4e	 add	 edx, 78			; 0000004eH
  0033e	52		 push	 edx
  0033f	68 00 00 00 00	 push	 OFFSET ??_C@_0EN@PIOGLIPD@c?3?2users?2nhv90?2projects?2eech?2ap@
  00344	a1 00 00 00 00	 mov	 eax, DWORD PTR ?overload_invalid_list_type_message@@3PBDB ; overload_invalid_list_type_message
  00349	50		 push	 eax
  0034a	e8 00 00 00 00	 call	 ?process_assert@@YGXPBD0H@Z ; process_assert
  0034f	c7 45 98 00 00
	00 00		 mov	 DWORD PTR tv231[ebp], 0
$LN43@capture_ke:
  00356	6a 16		 push	 22			; 00000016H
  00358	8b 4d 08	 mov	 ecx, DWORD PTR _en$[ebp]
  0035b	51		 push	 ecx
  0035c	69 55 9c b4 00
	00 00		 imul	 edx, DWORD PTR tv223[ebp], 180
  00363	8b 45 98	 mov	 eax, DWORD PTR tv231[ebp]
  00366	8b 8c 82 00 00
	00 00		 mov	 ecx, DWORD PTR ?fn_get_local_entity_first_child@@3PAY0CN@P6GPAUENTITY@@PAU1@W4LIST_TYPES@@@ZA[edx+eax*4]
  0036d	ff d1		 call	 ecx
  0036f	89 45 e4	 mov	 DWORD PTR _group$2[ebp], eax
$LN2@capture_ke:

; 1367 : 	
; 1368 : 		while (group)

  00372	83 7d e4 00	 cmp	 DWORD PTR _group$2[ebp], 0
  00376	0f 84 3e 04 00
	00		 je	 $LN3@capture_ke

; 1369 : 		{
; 1370 : 			if (get_local_entity_int_value (group, INT_TYPE_AIRCRAFT_GROUP))

  0037c	83 7d e4 00	 cmp	 DWORD PTR _group$2[ebp], 0
  00380	74 0a		 je	 SHORT $LN44@capture_ke
  00382	8b 45 e4	 mov	 eax, DWORD PTR _group$2[ebp]
  00385	8b 08		 mov	 ecx, DWORD PTR [eax]
  00387	89 4d 9c	 mov	 DWORD PTR tv243[ebp], ecx
  0038a	eb 1d		 jmp	 SHORT $LN45@capture_ke
$LN44@capture_ke:
  0038c	68 5a 05 00 00	 push	 1370			; 0000055aH
  00391	68 00 00 00 00	 push	 OFFSET ??_C@_0EN@PIOGLIPD@c?3?2users?2nhv90?2projects?2eech?2ap@
  00396	8b 15 00 00 00
	00		 mov	 edx, DWORD PTR ?null_entity_pointer_message@@3PBDB ; null_entity_pointer_message
  0039c	52		 push	 edx
  0039d	e8 00 00 00 00	 call	 ?process_assert@@YGXPBD0H@Z ; process_assert
  003a2	c7 45 9c 00 00
	00 00		 mov	 DWORD PTR tv243[ebp], 0
$LN45@capture_ke:
  003a9	b8 01 00 00 00	 mov	 eax, 1
  003ae	85 c0		 test	 eax, eax
  003b0	74 09		 je	 SHORT $LN46@capture_ke
  003b2	c7 45 98 05 00
	00 00		 mov	 DWORD PTR tv250[ebp], 5
  003b9	eb 1d		 jmp	 SHORT $LN47@capture_ke
$LN46@capture_ke:
  003bb	68 5a 05 00 00	 push	 1370			; 0000055aH
  003c0	68 00 00 00 00	 push	 OFFSET ??_C@_0EN@PIOGLIPD@c?3?2users?2nhv90?2projects?2eech?2ap@
  003c5	8b 0d 00 00 00
	00		 mov	 ecx, DWORD PTR ?overload_invalid_int_type_message@@3PBDB ; overload_invalid_int_type_message
  003cb	51		 push	 ecx
  003cc	e8 00 00 00 00	 call	 ?process_assert@@YGXPBD0H@Z ; process_assert
  003d1	c7 45 98 00 00
	00 00		 mov	 DWORD PTR tv250[ebp], 0
$LN47@capture_ke:
  003d8	6a 05		 push	 5
  003da	8b 55 e4	 mov	 edx, DWORD PTR _group$2[ebp]
  003dd	52		 push	 edx
  003de	69 45 9c 5c 04
	00 00		 imul	 eax, DWORD PTR tv243[ebp], 1116
  003e5	8b 4d 98	 mov	 ecx, DWORD PTR tv250[ebp]
  003e8	8b 94 88 00 00
	00 00		 mov	 edx, DWORD PTR ?fn_get_local_entity_int_value@@3PAY0BBH@P6GHPAUENTITY@@W4INT_TYPES@@@ZA[eax+ecx*4]
  003ef	ff d2		 call	 edx
  003f1	85 c0		 test	 eax, eax
  003f3	0f 84 3c 03 00
	00		 je	 $LN19@capture_ke

; 1371 : 			{
; 1372 : 				if (get_local_entity_int_value (group, INT_TYPE_GROUP_MODE) == GROUP_MODE_IDLE)

  003f9	83 7d e4 00	 cmp	 DWORD PTR _group$2[ebp], 0
  003fd	74 0a		 je	 SHORT $LN48@capture_ke
  003ff	8b 45 e4	 mov	 eax, DWORD PTR _group$2[ebp]
  00402	8b 08		 mov	 ecx, DWORD PTR [eax]
  00404	89 4d 9c	 mov	 DWORD PTR tv262[ebp], ecx
  00407	eb 1d		 jmp	 SHORT $LN49@capture_ke
$LN48@capture_ke:
  00409	68 5c 05 00 00	 push	 1372			; 0000055cH
  0040e	68 00 00 00 00	 push	 OFFSET ??_C@_0EN@PIOGLIPD@c?3?2users?2nhv90?2projects?2eech?2ap@
  00413	8b 15 00 00 00
	00		 mov	 edx, DWORD PTR ?null_entity_pointer_message@@3PBDB ; null_entity_pointer_message
  00419	52		 push	 edx
  0041a	e8 00 00 00 00	 call	 ?process_assert@@YGXPBD0H@Z ; process_assert
  0041f	c7 45 9c 00 00
	00 00		 mov	 DWORD PTR tv262[ebp], 0
$LN49@capture_ke:
  00426	b8 01 00 00 00	 mov	 eax, 1
  0042b	85 c0		 test	 eax, eax
  0042d	74 09		 je	 SHORT $LN50@capture_ke
  0042f	c7 45 98 4d 00
	00 00		 mov	 DWORD PTR tv269[ebp], 77 ; 0000004dH
  00436	eb 1d		 jmp	 SHORT $LN51@capture_ke
$LN50@capture_ke:
  00438	68 5c 05 00 00	 push	 1372			; 0000055cH
  0043d	68 00 00 00 00	 push	 OFFSET ??_C@_0EN@PIOGLIPD@c?3?2users?2nhv90?2projects?2eech?2ap@
  00442	8b 0d 00 00 00
	00		 mov	 ecx, DWORD PTR ?overload_invalid_int_type_message@@3PBDB ; overload_invalid_int_type_message
  00448	51		 push	 ecx
  00449	e8 00 00 00 00	 call	 ?process_assert@@YGXPBD0H@Z ; process_assert
  0044e	c7 45 98 00 00
	00 00		 mov	 DWORD PTR tv269[ebp], 0
$LN51@capture_ke:
  00455	6a 4d		 push	 77			; 0000004dH
  00457	8b 55 e4	 mov	 edx, DWORD PTR _group$2[ebp]
  0045a	52		 push	 edx
  0045b	69 45 9c 5c 04
	00 00		 imul	 eax, DWORD PTR tv262[ebp], 1116
  00462	8b 4d 98	 mov	 ecx, DWORD PTR tv269[ebp]
  00465	8b 94 88 00 00
	00 00		 mov	 edx, DWORD PTR ?fn_get_local_entity_int_value@@3PAY0BBH@P6GHPAUENTITY@@W4INT_TYPES@@@ZA[eax+ecx*4]
  0046c	ff d2		 call	 edx
  0046e	85 c0		 test	 eax, eax
  00470	0f 85 bf 02 00
	00		 jne	 $LN19@capture_ke

; 1373 : 				{
; 1374 : 					member = get_local_entity_first_child (group, LIST_TYPE_MEMBER);

  00476	83 7d e4 00	 cmp	 DWORD PTR _group$2[ebp], 0
  0047a	74 0a		 je	 SHORT $LN52@capture_ke
  0047c	8b 45 e4	 mov	 eax, DWORD PTR _group$2[ebp]
  0047f	8b 08		 mov	 ecx, DWORD PTR [eax]
  00481	89 4d 9c	 mov	 DWORD PTR tv282[ebp], ecx
  00484	eb 21		 jmp	 SHORT $LN53@capture_ke
$LN52@capture_ke:
  00486	8b 15 00 00 00
	00		 mov	 edx, DWORD PTR ?__LINE__Var@?0??capture_keysite@@YGXPAUENTITY@@W4ENTITY_SIDES@@@Z@4JA
  0048c	83 c2 56	 add	 edx, 86			; 00000056H
  0048f	52		 push	 edx
  00490	68 00 00 00 00	 push	 OFFSET ??_C@_0EN@PIOGLIPD@c?3?2users?2nhv90?2projects?2eech?2ap@
  00495	a1 00 00 00 00	 mov	 eax, DWORD PTR ?null_entity_pointer_message@@3PBDB ; null_entity_pointer_message
  0049a	50		 push	 eax
  0049b	e8 00 00 00 00	 call	 ?process_assert@@YGXPBD0H@Z ; process_assert
  004a0	c7 45 9c 00 00
	00 00		 mov	 DWORD PTR tv282[ebp], 0
$LN53@capture_ke:
  004a7	b9 01 00 00 00	 mov	 ecx, 1
  004ac	85 c9		 test	 ecx, ecx
  004ae	74 09		 je	 SHORT $LN54@capture_ke
  004b0	c7 45 98 19 00
	00 00		 mov	 DWORD PTR tv290[ebp], 25 ; 00000019H
  004b7	eb 21		 jmp	 SHORT $LN55@capture_ke
$LN54@capture_ke:
  004b9	8b 15 00 00 00
	00		 mov	 edx, DWORD PTR ?__LINE__Var@?0??capture_keysite@@YGXPAUENTITY@@W4ENTITY_SIDES@@@Z@4JA
  004bf	83 c2 56	 add	 edx, 86			; 00000056H
  004c2	52		 push	 edx
  004c3	68 00 00 00 00	 push	 OFFSET ??_C@_0EN@PIOGLIPD@c?3?2users?2nhv90?2projects?2eech?2ap@
  004c8	a1 00 00 00 00	 mov	 eax, DWORD PTR ?overload_invalid_list_type_message@@3PBDB ; overload_invalid_list_type_message
  004cd	50		 push	 eax
  004ce	e8 00 00 00 00	 call	 ?process_assert@@YGXPBD0H@Z ; process_assert
  004d3	c7 45 98 00 00
	00 00		 mov	 DWORD PTR tv290[ebp], 0
$LN55@capture_ke:
  004da	6a 19		 push	 25			; 00000019H
  004dc	8b 4d e4	 mov	 ecx, DWORD PTR _group$2[ebp]
  004df	51		 push	 ecx
  004e0	69 55 9c b4 00
	00 00		 imul	 edx, DWORD PTR tv282[ebp], 180
  004e7	8b 45 98	 mov	 eax, DWORD PTR tv290[ebp]
  004ea	8b 8c 82 00 00
	00 00		 mov	 ecx, DWORD PTR ?fn_get_local_entity_first_child@@3PAY0CN@P6GPAUENTITY@@PAU1@W4LIST_TYPES@@@ZA[edx+eax*4]
  004f1	ff d1		 call	 ecx
  004f3	89 45 e0	 mov	 DWORD PTR _member$1[ebp], eax
$LN4@capture_ke:

; 1375 : 			
; 1376 : 					while (member)

  004f6	83 7d e0 00	 cmp	 DWORD PTR _member$1[ebp], 0
  004fa	0f 84 11 01 00
	00		 je	 $LN5@capture_ke

; 1377 : 					{
; 1378 : 						set_client_server_entity_int_value (member, INT_TYPE_SIDE, new_side);

  00500	83 7d e0 00	 cmp	 DWORD PTR _member$1[ebp], 0
  00504	74 0a		 je	 SHORT $LN56@capture_ke
  00506	8b 45 e0	 mov	 eax, DWORD PTR _member$1[ebp]
  00509	8b 08		 mov	 ecx, DWORD PTR [eax]
  0050b	89 4d 9c	 mov	 DWORD PTR tv303[ebp], ecx
  0050e	eb 21		 jmp	 SHORT $LN57@capture_ke
$LN56@capture_ke:
  00510	8b 15 00 00 00
	00		 mov	 edx, DWORD PTR ?__LINE__Var@?0??capture_keysite@@YGXPAUENTITY@@W4ENTITY_SIDES@@@Z@4JA
  00516	83 c2 5a	 add	 edx, 90			; 0000005aH
  00519	52		 push	 edx
  0051a	68 00 00 00 00	 push	 OFFSET ??_C@_0EN@PIOGLIPD@c?3?2users?2nhv90?2projects?2eech?2ap@
  0051f	a1 00 00 00 00	 mov	 eax, DWORD PTR ?null_entity_pointer_message@@3PBDB ; null_entity_pointer_message
  00524	50		 push	 eax
  00525	e8 00 00 00 00	 call	 ?process_assert@@YGXPBD0H@Z ; process_assert
  0052a	c7 45 9c 00 00
	00 00		 mov	 DWORD PTR tv303[ebp], 0
$LN57@capture_ke:
  00531	b9 01 00 00 00	 mov	 ecx, 1
  00536	85 c9		 test	 ecx, ecx
  00538	74 09		 je	 SHORT $LN58@capture_ke
  0053a	c7 45 98 bb 00
	00 00		 mov	 DWORD PTR tv311[ebp], 187 ; 000000bbH
  00541	eb 21		 jmp	 SHORT $LN59@capture_ke
$LN58@capture_ke:
  00543	8b 15 00 00 00
	00		 mov	 edx, DWORD PTR ?__LINE__Var@?0??capture_keysite@@YGXPAUENTITY@@W4ENTITY_SIDES@@@Z@4JA
  00549	83 c2 5a	 add	 edx, 90			; 0000005aH
  0054c	52		 push	 edx
  0054d	68 00 00 00 00	 push	 OFFSET ??_C@_0EN@PIOGLIPD@c?3?2users?2nhv90?2projects?2eech?2ap@
  00552	a1 00 00 00 00	 mov	 eax, DWORD PTR ?overload_invalid_int_type_message@@3PBDB ; overload_invalid_int_type_message
  00557	50		 push	 eax
  00558	e8 00 00 00 00	 call	 ?process_assert@@YGXPBD0H@Z ; process_assert
  0055d	c7 45 98 00 00
	00 00		 mov	 DWORD PTR tv311[ebp], 0
$LN59@capture_ke:
  00564	8b 4d 0c	 mov	 ecx, DWORD PTR _new_side$[ebp]
  00567	51		 push	 ecx
  00568	68 bb 00 00 00	 push	 187			; 000000bbH
  0056d	8b 55 e0	 mov	 edx, DWORD PTR _member$1[ebp]
  00570	52		 push	 edx
  00571	69 45 9c b8 08
	00 00		 imul	 eax, DWORD PTR tv303[ebp], 2232
  00578	8b 4d 98	 mov	 ecx, DWORD PTR tv311[ebp]
  0057b	8d 94 c8 00 00
	00 00		 lea	 edx, DWORD PTR ?fn_set_client_server_entity_int_value@@3PAY1BBH@1P6GXPAUENTITY@@W4INT_TYPES@@H@ZA[eax+ecx*8]
  00582	a1 00 00 00 00	 mov	 eax, DWORD PTR ?system_comms_model@@3W4COMMS_MODEL_TYPES@@A ; system_comms_model
  00587	8b 0c 82	 mov	 ecx, DWORD PTR [edx+eax*4]
  0058a	ff d1		 call	 ecx

; 1379 : 	
; 1380 : 						member = get_local_entity_child_succ (member, LIST_TYPE_MEMBER);

  0058c	83 7d e0 00	 cmp	 DWORD PTR _member$1[ebp], 0
  00590	74 0a		 je	 SHORT $LN60@capture_ke
  00592	8b 45 e0	 mov	 eax, DWORD PTR _member$1[ebp]
  00595	8b 08		 mov	 ecx, DWORD PTR [eax]
  00597	89 4d 9c	 mov	 DWORD PTR tv325[ebp], ecx
  0059a	eb 21		 jmp	 SHORT $LN61@capture_ke
$LN60@capture_ke:
  0059c	8b 15 00 00 00
	00		 mov	 edx, DWORD PTR ?__LINE__Var@?0??capture_keysite@@YGXPAUENTITY@@W4ENTITY_SIDES@@@Z@4JA
  005a2	83 c2 5c	 add	 edx, 92			; 0000005cH
  005a5	52		 push	 edx
  005a6	68 00 00 00 00	 push	 OFFSET ??_C@_0EN@PIOGLIPD@c?3?2users?2nhv90?2projects?2eech?2ap@
  005ab	a1 00 00 00 00	 mov	 eax, DWORD PTR ?null_entity_pointer_message@@3PBDB ; null_entity_pointer_message
  005b0	50		 push	 eax
  005b1	e8 00 00 00 00	 call	 ?process_assert@@YGXPBD0H@Z ; process_assert
  005b6	c7 45 9c 00 00
	00 00		 mov	 DWORD PTR tv325[ebp], 0
$LN61@capture_ke:
  005bd	b9 01 00 00 00	 mov	 ecx, 1
  005c2	85 c9		 test	 ecx, ecx
  005c4	74 09		 je	 SHORT $LN62@capture_ke
  005c6	c7 45 98 19 00
	00 00		 mov	 DWORD PTR tv333[ebp], 25 ; 00000019H
  005cd	eb 21		 jmp	 SHORT $LN63@capture_ke
$LN62@capture_ke:
  005cf	8b 15 00 00 00
	00		 mov	 edx, DWORD PTR ?__LINE__Var@?0??capture_keysite@@YGXPAUENTITY@@W4ENTITY_SIDES@@@Z@4JA
  005d5	83 c2 5c	 add	 edx, 92			; 0000005cH
  005d8	52		 push	 edx
  005d9	68 00 00 00 00	 push	 OFFSET ??_C@_0EN@PIOGLIPD@c?3?2users?2nhv90?2projects?2eech?2ap@
  005de	a1 00 00 00 00	 mov	 eax, DWORD PTR ?overload_invalid_list_type_message@@3PBDB ; overload_invalid_list_type_message
  005e3	50		 push	 eax
  005e4	e8 00 00 00 00	 call	 ?process_assert@@YGXPBD0H@Z ; process_assert
  005e9	c7 45 98 00 00
	00 00		 mov	 DWORD PTR tv333[ebp], 0
$LN63@capture_ke:
  005f0	6a 19		 push	 25			; 00000019H
  005f2	8b 4d e0	 mov	 ecx, DWORD PTR _member$1[ebp]
  005f5	51		 push	 ecx
  005f6	69 55 9c b4 00
	00 00		 imul	 edx, DWORD PTR tv325[ebp], 180
  005fd	8b 45 98	 mov	 eax, DWORD PTR tv333[ebp]
  00600	8b 8c 82 00 00
	00 00		 mov	 ecx, DWORD PTR ?fn_get_local_entity_child_succ@@3PAY0CN@P6GPAUENTITY@@PAU1@W4LIST_TYPES@@@ZA[edx+eax*4]
  00607	ff d1		 call	 ecx
  00609	89 45 e0	 mov	 DWORD PTR _member$1[ebp], eax

; 1381 : 					}

  0060c	e9 e5 fe ff ff	 jmp	 $LN4@capture_ke
$LN5@capture_ke:

; 1382 : 	
; 1383 : 					free_group_callsign (group);

  00611	8b 45 e4	 mov	 eax, DWORD PTR _group$2[ebp]
  00614	50		 push	 eax
  00615	e8 00 00 00 00	 call	 ?free_group_callsign@@YGXPAUENTITY@@@Z ; free_group_callsign

; 1384 : 	
; 1385 : 					set_client_server_entity_int_value (group, INT_TYPE_SIDE, new_side);

  0061a	83 7d e4 00	 cmp	 DWORD PTR _group$2[ebp], 0
  0061e	74 0a		 je	 SHORT $LN64@capture_ke
  00620	8b 45 e4	 mov	 eax, DWORD PTR _group$2[ebp]
  00623	8b 08		 mov	 ecx, DWORD PTR [eax]
  00625	89 4d 9c	 mov	 DWORD PTR tv346[ebp], ecx
  00628	eb 21		 jmp	 SHORT $LN65@capture_ke
$LN64@capture_ke:
  0062a	8b 15 00 00 00
	00		 mov	 edx, DWORD PTR ?__LINE__Var@?0??capture_keysite@@YGXPAUENTITY@@W4ENTITY_SIDES@@@Z@4JA
  00630	83 c2 61	 add	 edx, 97			; 00000061H
  00633	52		 push	 edx
  00634	68 00 00 00 00	 push	 OFFSET ??_C@_0EN@PIOGLIPD@c?3?2users?2nhv90?2projects?2eech?2ap@
  00639	a1 00 00 00 00	 mov	 eax, DWORD PTR ?null_entity_pointer_message@@3PBDB ; null_entity_pointer_message
  0063e	50		 push	 eax
  0063f	e8 00 00 00 00	 call	 ?process_assert@@YGXPBD0H@Z ; process_assert
  00644	c7 45 9c 00 00
	00 00		 mov	 DWORD PTR tv346[ebp], 0
$LN65@capture_ke:
  0064b	b9 01 00 00 00	 mov	 ecx, 1
  00650	85 c9		 test	 ecx, ecx
  00652	74 09		 je	 SHORT $LN66@capture_ke
  00654	c7 45 98 bb 00
	00 00		 mov	 DWORD PTR tv354[ebp], 187 ; 000000bbH
  0065b	eb 21		 jmp	 SHORT $LN67@capture_ke
$LN66@capture_ke:
  0065d	8b 15 00 00 00
	00		 mov	 edx, DWORD PTR ?__LINE__Var@?0??capture_keysite@@YGXPAUENTITY@@W4ENTITY_SIDES@@@Z@4JA
  00663	83 c2 61	 add	 edx, 97			; 00000061H
  00666	52		 push	 edx
  00667	68 00 00 00 00	 push	 OFFSET ??_C@_0EN@PIOGLIPD@c?3?2users?2nhv90?2projects?2eech?2ap@
  0066c	a1 00 00 00 00	 mov	 eax, DWORD PTR ?overload_invalid_int_type_message@@3PBDB ; overload_invalid_int_type_message
  00671	50		 push	 eax
  00672	e8 00 00 00 00	 call	 ?process_assert@@YGXPBD0H@Z ; process_assert
  00677	c7 45 98 00 00
	00 00		 mov	 DWORD PTR tv354[ebp], 0
$LN67@capture_ke:
  0067e	8b 4d 0c	 mov	 ecx, DWORD PTR _new_side$[ebp]
  00681	51		 push	 ecx
  00682	68 bb 00 00 00	 push	 187			; 000000bbH
  00687	8b 55 e4	 mov	 edx, DWORD PTR _group$2[ebp]
  0068a	52		 push	 edx
  0068b	69 45 9c b8 08
	00 00		 imul	 eax, DWORD PTR tv346[ebp], 2232
  00692	8b 4d 98	 mov	 ecx, DWORD PTR tv354[ebp]
  00695	8d 94 c8 00 00
	00 00		 lea	 edx, DWORD PTR ?fn_set_client_server_entity_int_value@@3PAY1BBH@1P6GXPAUENTITY@@W4INT_TYPES@@H@ZA[eax+ecx*8]
  0069c	a1 00 00 00 00	 mov	 eax, DWORD PTR ?system_comms_model@@3W4COMMS_MODEL_TYPES@@A ; system_comms_model
  006a1	8b 0c 82	 mov	 ecx, DWORD PTR [edx+eax*4]
  006a4	ff d1		 call	 ecx

; 1386 : 
; 1387 : 					set_client_server_entity_int_value (group, INT_TYPE_GROUP_CALLSIGN, assign_group_callsign (group));

  006a6	83 7d e4 00	 cmp	 DWORD PTR _group$2[ebp], 0
  006aa	74 0a		 je	 SHORT $LN68@capture_ke
  006ac	8b 45 e4	 mov	 eax, DWORD PTR _group$2[ebp]
  006af	8b 08		 mov	 ecx, DWORD PTR [eax]
  006b1	89 4d 9c	 mov	 DWORD PTR tv368[ebp], ecx
  006b4	eb 21		 jmp	 SHORT $LN69@capture_ke
$LN68@capture_ke:
  006b6	8b 15 00 00 00
	00		 mov	 edx, DWORD PTR ?__LINE__Var@?0??capture_keysite@@YGXPAUENTITY@@W4ENTITY_SIDES@@@Z@4JA
  006bc	83 c2 63	 add	 edx, 99			; 00000063H
  006bf	52		 push	 edx
  006c0	68 00 00 00 00	 push	 OFFSET ??_C@_0EN@PIOGLIPD@c?3?2users?2nhv90?2projects?2eech?2ap@
  006c5	a1 00 00 00 00	 mov	 eax, DWORD PTR ?null_entity_pointer_message@@3PBDB ; null_entity_pointer_message
  006ca	50		 push	 eax
  006cb	e8 00 00 00 00	 call	 ?process_assert@@YGXPBD0H@Z ; process_assert
  006d0	c7 45 9c 00 00
	00 00		 mov	 DWORD PTR tv368[ebp], 0
$LN69@capture_ke:
  006d7	b9 01 00 00 00	 mov	 ecx, 1
  006dc	85 c9		 test	 ecx, ecx
  006de	74 09		 je	 SHORT $LN70@capture_ke
  006e0	c7 45 98 44 00
	00 00		 mov	 DWORD PTR tv376[ebp], 68 ; 00000044H
  006e7	eb 21		 jmp	 SHORT $LN71@capture_ke
$LN70@capture_ke:
  006e9	8b 15 00 00 00
	00		 mov	 edx, DWORD PTR ?__LINE__Var@?0??capture_keysite@@YGXPAUENTITY@@W4ENTITY_SIDES@@@Z@4JA
  006ef	83 c2 63	 add	 edx, 99			; 00000063H
  006f2	52		 push	 edx
  006f3	68 00 00 00 00	 push	 OFFSET ??_C@_0EN@PIOGLIPD@c?3?2users?2nhv90?2projects?2eech?2ap@
  006f8	a1 00 00 00 00	 mov	 eax, DWORD PTR ?overload_invalid_int_type_message@@3PBDB ; overload_invalid_int_type_message
  006fd	50		 push	 eax
  006fe	e8 00 00 00 00	 call	 ?process_assert@@YGXPBD0H@Z ; process_assert
  00703	c7 45 98 00 00
	00 00		 mov	 DWORD PTR tv376[ebp], 0
$LN71@capture_ke:
  0070a	8b 4d e4	 mov	 ecx, DWORD PTR _group$2[ebp]
  0070d	51		 push	 ecx
  0070e	e8 00 00 00 00	 call	 ?assign_group_callsign@@YGHPAUENTITY@@@Z ; assign_group_callsign
  00713	50		 push	 eax
  00714	6a 44		 push	 68			; 00000044H
  00716	8b 55 e4	 mov	 edx, DWORD PTR _group$2[ebp]
  00719	52		 push	 edx
  0071a	69 45 9c b8 08
	00 00		 imul	 eax, DWORD PTR tv368[ebp], 2232
  00721	8b 4d 98	 mov	 ecx, DWORD PTR tv376[ebp]
  00724	8d 94 c8 00 00
	00 00		 lea	 edx, DWORD PTR ?fn_set_client_server_entity_int_value@@3PAY1BBH@1P6GXPAUENTITY@@W4INT_TYPES@@H@ZA[eax+ecx*8]
  0072b	a1 00 00 00 00	 mov	 eax, DWORD PTR ?system_comms_model@@3W4COMMS_MODEL_TYPES@@A ; system_comms_model
  00730	8b 0c 82	 mov	 ecx, DWORD PTR [edx+eax*4]
  00733	ff d1		 call	 ecx
$LN19@capture_ke:

; 1388 : 				}
; 1389 : 			}
; 1390 : 			
; 1391 : 			group = get_local_entity_child_succ (group, LIST_TYPE_KEYSITE_GROUP);

  00735	83 7d e4 00	 cmp	 DWORD PTR _group$2[ebp], 0
  00739	74 0a		 je	 SHORT $LN72@capture_ke
  0073b	8b 45 e4	 mov	 eax, DWORD PTR _group$2[ebp]
  0073e	8b 08		 mov	 ecx, DWORD PTR [eax]
  00740	89 4d 9c	 mov	 DWORD PTR tv392[ebp], ecx
  00743	eb 21		 jmp	 SHORT $LN73@capture_ke
$LN72@capture_ke:
  00745	8b 15 00 00 00
	00		 mov	 edx, DWORD PTR ?__LINE__Var@?0??capture_keysite@@YGXPAUENTITY@@W4ENTITY_SIDES@@@Z@4JA
  0074b	83 c2 67	 add	 edx, 103		; 00000067H
  0074e	52		 push	 edx
  0074f	68 00 00 00 00	 push	 OFFSET ??_C@_0EN@PIOGLIPD@c?3?2users?2nhv90?2projects?2eech?2ap@
  00754	a1 00 00 00 00	 mov	 eax, DWORD PTR ?null_entity_pointer_message@@3PBDB ; null_entity_pointer_message
  00759	50		 push	 eax
  0075a	e8 00 00 00 00	 call	 ?process_assert@@YGXPBD0H@Z ; process_assert
  0075f	c7 45 9c 00 00
	00 00		 mov	 DWORD PTR tv392[ebp], 0
$LN73@capture_ke:
  00766	b9 01 00 00 00	 mov	 ecx, 1
  0076b	85 c9		 test	 ecx, ecx
  0076d	74 09		 je	 SHORT $LN74@capture_ke
  0076f	c7 45 98 16 00
	00 00		 mov	 DWORD PTR tv400[ebp], 22 ; 00000016H
  00776	eb 21		 jmp	 SHORT $LN75@capture_ke
$LN74@capture_ke:
  00778	8b 15 00 00 00
	00		 mov	 edx, DWORD PTR ?__LINE__Var@?0??capture_keysite@@YGXPAUENTITY@@W4ENTITY_SIDES@@@Z@4JA
  0077e	83 c2 67	 add	 edx, 103		; 00000067H
  00781	52		 push	 edx
  00782	68 00 00 00 00	 push	 OFFSET ??_C@_0EN@PIOGLIPD@c?3?2users?2nhv90?2projects?2eech?2ap@
  00787	a1 00 00 00 00	 mov	 eax, DWORD PTR ?overload_invalid_list_type_message@@3PBDB ; overload_invalid_list_type_message
  0078c	50		 push	 eax
  0078d	e8 00 00 00 00	 call	 ?process_assert@@YGXPBD0H@Z ; process_assert
  00792	c7 45 98 00 00
	00 00		 mov	 DWORD PTR tv400[ebp], 0
$LN75@capture_ke:
  00799	6a 16		 push	 22			; 00000016H
  0079b	8b 4d e4	 mov	 ecx, DWORD PTR _group$2[ebp]
  0079e	51		 push	 ecx
  0079f	69 55 9c b4 00
	00 00		 imul	 edx, DWORD PTR tv392[ebp], 180
  007a6	8b 45 98	 mov	 eax, DWORD PTR tv400[ebp]
  007a9	8b 8c 82 00 00
	00 00		 mov	 ecx, DWORD PTR ?fn_get_local_entity_child_succ@@3PAY0CN@P6GPAUENTITY@@PAU1@W4LIST_TYPES@@@ZA[edx+eax*4]
  007b0	ff d1		 call	 ecx
  007b2	89 45 e4	 mov	 DWORD PTR _group$2[ebp], eax

; 1392 : 		}

  007b5	e9 b8 fb ff ff	 jmp	 $LN2@capture_ke
$LN3@capture_ke:

; 1393 : 	}
; 1394 : 
; 1395 : 	//
; 1396 : 	// Kill aircraft landed at keysite + sort out landing locks + unassigned tasks + ground vehicles etc........
; 1397 : 	//
; 1398 : 
; 1399 : 	destroy_keysite (en, side);

  007ba	8b 45 f4	 mov	 eax, DWORD PTR _side$[ebp]
  007bd	50		 push	 eax
  007be	8b 4d 08	 mov	 ecx, DWORD PTR _en$[ebp]
  007c1	51		 push	 ecx
  007c2	e8 00 00 00 00	 call	 ?destroy_keysite@@YGXPAUENTITY@@W4ENTITY_SIDES@@@Z ; destroy_keysite

; 1400 : 
; 1401 : 	//
; 1402 : 	// Change side of all buildings connected to the keysite
; 1403 : 	//
; 1404 : 
; 1405 : 	change_local_keysite_building_sides (en, new_side);

  007c7	8b 45 0c	 mov	 eax, DWORD PTR _new_side$[ebp]
  007ca	50		 push	 eax
  007cb	8b 4d 08	 mov	 ecx, DWORD PTR _en$[ebp]
  007ce	51		 push	 ecx
  007cf	e8 00 00 00 00	 call	 ?change_local_keysite_building_sides@@YGXPAUENTITY@@W4ENTITY_SIDES@@@Z ; change_local_keysite_building_sides

; 1406 : 
; 1407 : 	transmit_entity_comms_message (ENTITY_COMMS_CAPTURE_KEYSITE, en, new_side);

  007d4	8b 45 0c	 mov	 eax, DWORD PTR _new_side$[ebp]
  007d7	50		 push	 eax
  007d8	8b 4d 08	 mov	 ecx, DWORD PTR _en$[ebp]
  007db	51		 push	 ecx
  007dc	6a 06		 push	 6
  007de	e8 00 00 00 00	 call	 ?transmit_entity_comms_message@@YAXW4ENTITY_COMMS_MESSAGES@@PAUENTITY@@ZZ ; transmit_entity_comms_message
  007e3	83 c4 0c	 add	 esp, 12			; 0000000cH

; 1408 : 
; 1409 : 	//
; 1410 : 	// Notify force to check campaign criteria
; 1411 : 	//
; 1412 : 
; 1413 : 	force = get_local_entity_first_child (get_session_entity (), LIST_TYPE_FORCE);

  007e6	83 3d 00 00 00
	00 00		 cmp	 DWORD PTR ?session_entity@@3PAUENTITY@@A, 0 ; session_entity
  007ed	74 0c		 je	 SHORT $LN76@capture_ke
  007ef	a1 00 00 00 00	 mov	 eax, DWORD PTR ?session_entity@@3PAUENTITY@@A ; session_entity
  007f4	8b 08		 mov	 ecx, DWORD PTR [eax]
  007f6	89 4d 9c	 mov	 DWORD PTR tv419[ebp], ecx
  007f9	eb 21		 jmp	 SHORT $LN77@capture_ke
$LN76@capture_ke:
  007fb	8b 15 00 00 00
	00		 mov	 edx, DWORD PTR ?__LINE__Var@?0??capture_keysite@@YGXPAUENTITY@@W4ENTITY_SIDES@@@Z@4JA
  00801	83 c2 7d	 add	 edx, 125		; 0000007dH
  00804	52		 push	 edx
  00805	68 00 00 00 00	 push	 OFFSET ??_C@_0EN@PIOGLIPD@c?3?2users?2nhv90?2projects?2eech?2ap@
  0080a	a1 00 00 00 00	 mov	 eax, DWORD PTR ?null_entity_pointer_message@@3PBDB ; null_entity_pointer_message
  0080f	50		 push	 eax
  00810	e8 00 00 00 00	 call	 ?process_assert@@YGXPBD0H@Z ; process_assert
  00815	c7 45 9c 00 00
	00 00		 mov	 DWORD PTR tv419[ebp], 0
$LN77@capture_ke:
  0081c	b9 01 00 00 00	 mov	 ecx, 1
  00821	85 c9		 test	 ecx, ecx
  00823	74 09		 je	 SHORT $LN78@capture_ke
  00825	c7 45 98 0e 00
	00 00		 mov	 DWORD PTR tv427[ebp], 14 ; 0000000eH
  0082c	eb 21		 jmp	 SHORT $LN79@capture_ke
$LN78@capture_ke:
  0082e	8b 15 00 00 00
	00		 mov	 edx, DWORD PTR ?__LINE__Var@?0??capture_keysite@@YGXPAUENTITY@@W4ENTITY_SIDES@@@Z@4JA
  00834	83 c2 7d	 add	 edx, 125		; 0000007dH
  00837	52		 push	 edx
  00838	68 00 00 00 00	 push	 OFFSET ??_C@_0EN@PIOGLIPD@c?3?2users?2nhv90?2projects?2eech?2ap@
  0083d	a1 00 00 00 00	 mov	 eax, DWORD PTR ?overload_invalid_list_type_message@@3PBDB ; overload_invalid_list_type_message
  00842	50		 push	 eax
  00843	e8 00 00 00 00	 call	 ?process_assert@@YGXPBD0H@Z ; process_assert
  00848	c7 45 98 00 00
	00 00		 mov	 DWORD PTR tv427[ebp], 0
$LN79@capture_ke:
  0084f	6a 0e		 push	 14			; 0000000eH
  00851	8b 0d 00 00 00
	00		 mov	 ecx, DWORD PTR ?session_entity@@3PAUENTITY@@A ; session_entity
  00857	51		 push	 ecx
  00858	69 55 9c b4 00
	00 00		 imul	 edx, DWORD PTR tv419[ebp], 180
  0085f	8b 45 98	 mov	 eax, DWORD PTR tv427[ebp]
  00862	8b 8c 82 00 00
	00 00		 mov	 ecx, DWORD PTR ?fn_get_local_entity_first_child@@3PAY0CN@P6GPAUENTITY@@PAU1@W4LIST_TYPES@@@ZA[edx+eax*4]
  00869	ff d1		 call	 ecx
  0086b	89 45 f8	 mov	 DWORD PTR _force$[ebp], eax
$LN6@capture_ke:

; 1414 : 
; 1415 : 	while (force)

  0086e	83 7d f8 00	 cmp	 DWORD PTR _force$[ebp], 0
  00872	0f 84 9d 00 00
	00		 je	 $LN7@capture_ke

; 1416 : 	{
; 1417 : 		notify_local_entity (ENTITY_MESSAGE_CHECK_CAMPAIGN_OBJECTIVES, force, en);

  00878	8b 45 08	 mov	 eax, DWORD PTR _en$[ebp]
  0087b	50		 push	 eax
  0087c	8b 4d f8	 mov	 ecx, DWORD PTR _force$[ebp]
  0087f	51		 push	 ecx
  00880	6a 03		 push	 3
  00882	e8 00 00 00 00	 call	 ?notify_local_entity@@YAHW4ENTITY_MESSAGES@@PAUENTITY@@1ZZ ; notify_local_entity
  00887	83 c4 0c	 add	 esp, 12			; 0000000cH

; 1418 : 
; 1419 : 		force = get_local_entity_child_succ (force, LIST_TYPE_FORCE);

  0088a	83 7d f8 00	 cmp	 DWORD PTR _force$[ebp], 0
  0088e	74 0a		 je	 SHORT $LN80@capture_ke
  00890	8b 45 f8	 mov	 eax, DWORD PTR _force$[ebp]
  00893	8b 08		 mov	 ecx, DWORD PTR [eax]
  00895	89 4d 9c	 mov	 DWORD PTR tv443[ebp], ecx
  00898	eb 24		 jmp	 SHORT $LN81@capture_ke
$LN80@capture_ke:
  0089a	8b 15 00 00 00
	00		 mov	 edx, DWORD PTR ?__LINE__Var@?0??capture_keysite@@YGXPAUENTITY@@W4ENTITY_SIDES@@@Z@4JA
  008a0	81 c2 83 00 00
	00		 add	 edx, 131		; 00000083H
  008a6	52		 push	 edx
  008a7	68 00 00 00 00	 push	 OFFSET ??_C@_0EN@PIOGLIPD@c?3?2users?2nhv90?2projects?2eech?2ap@
  008ac	a1 00 00 00 00	 mov	 eax, DWORD PTR ?null_entity_pointer_message@@3PBDB ; null_entity_pointer_message
  008b1	50		 push	 eax
  008b2	e8 00 00 00 00	 call	 ?process_assert@@YGXPBD0H@Z ; process_assert
  008b7	c7 45 9c 00 00
	00 00		 mov	 DWORD PTR tv443[ebp], 0
$LN81@capture_ke:
  008be	b9 01 00 00 00	 mov	 ecx, 1
  008c3	85 c9		 test	 ecx, ecx
  008c5	74 09		 je	 SHORT $LN82@capture_ke
  008c7	c7 45 98 0e 00
	00 00		 mov	 DWORD PTR tv451[ebp], 14 ; 0000000eH
  008ce	eb 24		 jmp	 SHORT $LN83@capture_ke
$LN82@capture_ke:
  008d0	8b 15 00 00 00
	00		 mov	 edx, DWORD PTR ?__LINE__Var@?0??capture_keysite@@YGXPAUENTITY@@W4ENTITY_SIDES@@@Z@4JA
  008d6	81 c2 83 00 00
	00		 add	 edx, 131		; 00000083H
  008dc	52		 push	 edx
  008dd	68 00 00 00 00	 push	 OFFSET ??_C@_0EN@PIOGLIPD@c?3?2users?2nhv90?2projects?2eech?2ap@
  008e2	a1 00 00 00 00	 mov	 eax, DWORD PTR ?overload_invalid_list_type_message@@3PBDB ; overload_invalid_list_type_message
  008e7	50		 push	 eax
  008e8	e8 00 00 00 00	 call	 ?process_assert@@YGXPBD0H@Z ; process_assert
  008ed	c7 45 98 00 00
	00 00		 mov	 DWORD PTR tv451[ebp], 0
$LN83@capture_ke:
  008f4	6a 0e		 push	 14			; 0000000eH
  008f6	8b 4d f8	 mov	 ecx, DWORD PTR _force$[ebp]
  008f9	51		 push	 ecx
  008fa	69 55 9c b4 00
	00 00		 imul	 edx, DWORD PTR tv443[ebp], 180
  00901	8b 45 98	 mov	 eax, DWORD PTR tv451[ebp]
  00904	8b 8c 82 00 00
	00 00		 mov	 ecx, DWORD PTR ?fn_get_local_entity_child_succ@@3PAY0CN@P6GPAUENTITY@@PAU1@W4LIST_TYPES@@@ZA[edx+eax*4]
  0090b	ff d1		 call	 ecx
  0090d	89 45 f8	 mov	 DWORD PTR _force$[ebp], eax

; 1420 : 	}

  00910	e9 59 ff ff ff	 jmp	 $LN6@capture_ke
$LN7@capture_ke:

; 1421 : 
; 1422 : 	//
; 1423 : 	// Send text message
; 1424 : 	//
; 1425 : 
; 1426 : 	send_text_message (en, NULL, MESSAGE_TEXT_SYSTEM_KEYSITE_CAPTURED, NULL);

  00915	6a 00		 push	 0
  00917	6a 05		 push	 5
  00919	6a 00		 push	 0
  0091b	8b 45 08	 mov	 eax, DWORD PTR _en$[ebp]
  0091e	50		 push	 eax
  0091f	e8 00 00 00 00	 call	 ?send_text_message@@YGXPAUENTITY@@0W4MESSAGE_TEXT_TYPES@@PBD@Z ; send_text_message

; 1427 : 
; 1428 : 	//
; 1429 : 	// Repair some structures
; 1430 : 	//
; 1431 : 
; 1432 : 	for (loop = 0; loop < 5; loop ++)

  00924	c7 45 e8 00 00
	00 00		 mov	 DWORD PTR _loop$[ebp], 0
  0092b	eb 09		 jmp	 SHORT $LN10@capture_ke
$LN8@capture_ke:
  0092d	8b 45 e8	 mov	 eax, DWORD PTR _loop$[ebp]
  00930	83 c0 01	 add	 eax, 1
  00933	89 45 e8	 mov	 DWORD PTR _loop$[ebp], eax
$LN10@capture_ke:
  00936	83 7d e8 05	 cmp	 DWORD PTR _loop$[ebp], 5
  0093a	7d 11		 jge	 SHORT $LN9@capture_ke

; 1433 : 	{
; 1434 : 		if (!repair_client_server_entity_keysite (en))

  0093c	8b 45 08	 mov	 eax, DWORD PTR _en$[ebp]
  0093f	50		 push	 eax
  00940	e8 00 00 00 00	 call	 ?repair_client_server_entity_keysite@@YGHPAUENTITY@@@Z ; repair_client_server_entity_keysite
  00945	85 c0		 test	 eax, eax
  00947	75 02		 jne	 SHORT $LN20@capture_ke

; 1435 : 		{
; 1436 : 			break;

  00949	eb 02		 jmp	 SHORT $LN9@capture_ke
$LN20@capture_ke:

; 1437 : 		}
; 1438 : 	}

  0094b	eb e0		 jmp	 SHORT $LN8@capture_ke
$LN9@capture_ke:

; 1439 : 
; 1440 : 	//
; 1441 : 	// Set state to repairing (unless full strength)
; 1442 : 	//
; 1443 : 
; 1444 : 	if (raw->keysite_strength == raw->keysite_maximum_strength)

  0094d	8b 45 fc	 mov	 eax, DWORD PTR _raw$[ebp]
  00950	8b 4d fc	 mov	 ecx, DWORD PTR _raw$[ebp]
  00953	f3 0f 10 40 74	 movss	 xmm0, DWORD PTR [eax+116]
  00958	0f 2e 41 78	 ucomiss xmm0, DWORD PTR [ecx+120]
  0095c	9f		 lahf
  0095d	f6 c4 44	 test	 ah, 68			; 00000044H
  00960	0f 8a 93 00 00
	00		 jp	 $LN21@capture_ke

; 1445 : 	{
; 1446 : 		set_client_server_entity_int_value (en, INT_TYPE_KEYSITE_USABLE_STATE, KEYSITE_STATE_USABLE);

  00966	83 7d 08 00	 cmp	 DWORD PTR _en$[ebp], 0
  0096a	74 0a		 je	 SHORT $LN84@capture_ke
  0096c	8b 45 08	 mov	 eax, DWORD PTR _en$[ebp]
  0096f	8b 08		 mov	 ecx, DWORD PTR [eax]
  00971	89 4d 9c	 mov	 DWORD PTR tv475[ebp], ecx
  00974	eb 24		 jmp	 SHORT $LN85@capture_ke
$LN84@capture_ke:
  00976	8b 15 00 00 00
	00		 mov	 edx, DWORD PTR ?__LINE__Var@?0??capture_keysite@@YGXPAUENTITY@@W4ENTITY_SIDES@@@Z@4JA
  0097c	81 c2 9e 00 00
	00		 add	 edx, 158		; 0000009eH
  00982	52		 push	 edx
  00983	68 00 00 00 00	 push	 OFFSET ??_C@_0EN@PIOGLIPD@c?3?2users?2nhv90?2projects?2eech?2ap@
  00988	a1 00 00 00 00	 mov	 eax, DWORD PTR ?null_entity_pointer_message@@3PBDB ; null_entity_pointer_message
  0098d	50		 push	 eax
  0098e	e8 00 00 00 00	 call	 ?process_assert@@YGXPBD0H@Z ; process_assert
  00993	c7 45 9c 00 00
	00 00		 mov	 DWORD PTR tv475[ebp], 0
$LN85@capture_ke:
  0099a	b9 01 00 00 00	 mov	 ecx, 1
  0099f	85 c9		 test	 ecx, ecx
  009a1	74 09		 je	 SHORT $LN86@capture_ke
  009a3	c7 45 98 70 00
	00 00		 mov	 DWORD PTR tv483[ebp], 112 ; 00000070H
  009aa	eb 24		 jmp	 SHORT $LN87@capture_ke
$LN86@capture_ke:
  009ac	8b 15 00 00 00
	00		 mov	 edx, DWORD PTR ?__LINE__Var@?0??capture_keysite@@YGXPAUENTITY@@W4ENTITY_SIDES@@@Z@4JA
  009b2	81 c2 9e 00 00
	00		 add	 edx, 158		; 0000009eH
  009b8	52		 push	 edx
  009b9	68 00 00 00 00	 push	 OFFSET ??_C@_0EN@PIOGLIPD@c?3?2users?2nhv90?2projects?2eech?2ap@
  009be	a1 00 00 00 00	 mov	 eax, DWORD PTR ?overload_invalid_int_type_message@@3PBDB ; overload_invalid_int_type_message
  009c3	50		 push	 eax
  009c4	e8 00 00 00 00	 call	 ?process_assert@@YGXPBD0H@Z ; process_assert
  009c9	c7 45 98 00 00
	00 00		 mov	 DWORD PTR tv483[ebp], 0
$LN87@capture_ke:
  009d0	6a 00		 push	 0
  009d2	6a 70		 push	 112			; 00000070H
  009d4	8b 4d 08	 mov	 ecx, DWORD PTR _en$[ebp]
  009d7	51		 push	 ecx
  009d8	69 55 9c b8 08
	00 00		 imul	 edx, DWORD PTR tv475[ebp], 2232
  009df	8b 45 98	 mov	 eax, DWORD PTR tv483[ebp]
  009e2	8d 8c c2 00 00
	00 00		 lea	 ecx, DWORD PTR ?fn_set_client_server_entity_int_value@@3PAY1BBH@1P6GXPAUENTITY@@W4INT_TYPES@@H@ZA[edx+eax*8]
  009e9	8b 15 00 00 00
	00		 mov	 edx, DWORD PTR ?system_comms_model@@3W4COMMS_MODEL_TYPES@@A ; system_comms_model
  009ef	8b 04 91	 mov	 eax, DWORD PTR [ecx+edx*4]
  009f2	ff d0		 call	 eax

; 1447 : 	}
; 1448 : 	else

  009f4	e9 8e 00 00 00	 jmp	 $LN22@capture_ke
$LN21@capture_ke:

; 1449 : 	{
; 1450 : 		set_client_server_entity_int_value (en, INT_TYPE_KEYSITE_USABLE_STATE, KEYSITE_STATE_REPAIRING);

  009f9	83 7d 08 00	 cmp	 DWORD PTR _en$[ebp], 0
  009fd	74 0a		 je	 SHORT $LN88@capture_ke
  009ff	8b 45 08	 mov	 eax, DWORD PTR _en$[ebp]
  00a02	8b 08		 mov	 ecx, DWORD PTR [eax]
  00a04	89 4d 9c	 mov	 DWORD PTR tv497[ebp], ecx
  00a07	eb 24		 jmp	 SHORT $LN89@capture_ke
$LN88@capture_ke:
  00a09	8b 15 00 00 00
	00		 mov	 edx, DWORD PTR ?__LINE__Var@?0??capture_keysite@@YGXPAUENTITY@@W4ENTITY_SIDES@@@Z@4JA
  00a0f	81 c2 a2 00 00
	00		 add	 edx, 162		; 000000a2H
  00a15	52		 push	 edx
  00a16	68 00 00 00 00	 push	 OFFSET ??_C@_0EN@PIOGLIPD@c?3?2users?2nhv90?2projects?2eech?2ap@
  00a1b	a1 00 00 00 00	 mov	 eax, DWORD PTR ?null_entity_pointer_message@@3PBDB ; null_entity_pointer_message
  00a20	50		 push	 eax
  00a21	e8 00 00 00 00	 call	 ?process_assert@@YGXPBD0H@Z ; process_assert
  00a26	c7 45 9c 00 00
	00 00		 mov	 DWORD PTR tv497[ebp], 0
$LN89@capture_ke:
  00a2d	b9 01 00 00 00	 mov	 ecx, 1
  00a32	85 c9		 test	 ecx, ecx
  00a34	74 09		 je	 SHORT $LN90@capture_ke
  00a36	c7 45 98 70 00
	00 00		 mov	 DWORD PTR tv505[ebp], 112 ; 00000070H
  00a3d	eb 24		 jmp	 SHORT $LN91@capture_ke
$LN90@capture_ke:
  00a3f	8b 15 00 00 00
	00		 mov	 edx, DWORD PTR ?__LINE__Var@?0??capture_keysite@@YGXPAUENTITY@@W4ENTITY_SIDES@@@Z@4JA
  00a45	81 c2 a2 00 00
	00		 add	 edx, 162		; 000000a2H
  00a4b	52		 push	 edx
  00a4c	68 00 00 00 00	 push	 OFFSET ??_C@_0EN@PIOGLIPD@c?3?2users?2nhv90?2projects?2eech?2ap@
  00a51	a1 00 00 00 00	 mov	 eax, DWORD PTR ?overload_invalid_int_type_message@@3PBDB ; overload_invalid_int_type_message
  00a56	50		 push	 eax
  00a57	e8 00 00 00 00	 call	 ?process_assert@@YGXPBD0H@Z ; process_assert
  00a5c	c7 45 98 00 00
	00 00		 mov	 DWORD PTR tv505[ebp], 0
$LN91@capture_ke:
  00a63	6a 02		 push	 2
  00a65	6a 70		 push	 112			; 00000070H
  00a67	8b 4d 08	 mov	 ecx, DWORD PTR _en$[ebp]
  00a6a	51		 push	 ecx
  00a6b	69 55 9c b8 08
	00 00		 imul	 edx, DWORD PTR tv497[ebp], 2232
  00a72	8b 45 98	 mov	 eax, DWORD PTR tv505[ebp]
  00a75	8d 8c c2 00 00
	00 00		 lea	 ecx, DWORD PTR ?fn_set_client_server_entity_int_value@@3PAY1BBH@1P6GXPAUENTITY@@W4INT_TYPES@@H@ZA[edx+eax*8]
  00a7c	8b 15 00 00 00
	00		 mov	 edx, DWORD PTR ?system_comms_model@@3W4COMMS_MODEL_TYPES@@A ; system_comms_model
  00a82	8b 04 91	 mov	 eax, DWORD PTR [ecx+edx*4]
  00a85	ff d0		 call	 eax
$LN22@capture_ke:

; 1451 : 	}
; 1452 : 
; 1453 : 	//
; 1454 : 	// Increase size of regen queue dependent on keysite type
; 1455 : 	//
; 1456 : 
; 1457 : 	keysite_type = get_local_entity_int_value (en, INT_TYPE_ENTITY_SUB_TYPE);

  00a87	83 7d 08 00	 cmp	 DWORD PTR _en$[ebp], 0
  00a8b	74 0a		 je	 SHORT $LN92@capture_ke
  00a8d	8b 45 08	 mov	 eax, DWORD PTR _en$[ebp]
  00a90	8b 08		 mov	 ecx, DWORD PTR [eax]
  00a92	89 4d 9c	 mov	 DWORD PTR tv519[ebp], ecx
  00a95	eb 24		 jmp	 SHORT $LN93@capture_ke
$LN92@capture_ke:
  00a97	8b 15 00 00 00
	00		 mov	 edx, DWORD PTR ?__LINE__Var@?0??capture_keysite@@YGXPAUENTITY@@W4ENTITY_SIDES@@@Z@4JA
  00a9d	81 c2 a9 00 00
	00		 add	 edx, 169		; 000000a9H
  00aa3	52		 push	 edx
  00aa4	68 00 00 00 00	 push	 OFFSET ??_C@_0EN@PIOGLIPD@c?3?2users?2nhv90?2projects?2eech?2ap@
  00aa9	a1 00 00 00 00	 mov	 eax, DWORD PTR ?null_entity_pointer_message@@3PBDB ; null_entity_pointer_message
  00aae	50		 push	 eax
  00aaf	e8 00 00 00 00	 call	 ?process_assert@@YGXPBD0H@Z ; process_assert
  00ab4	c7 45 9c 00 00
	00 00		 mov	 DWORD PTR tv519[ebp], 0
$LN93@capture_ke:
  00abb	b9 01 00 00 00	 mov	 ecx, 1
  00ac0	85 c9		 test	 ecx, ecx
  00ac2	74 09		 je	 SHORT $LN94@capture_ke
  00ac4	c7 45 98 34 00
	00 00		 mov	 DWORD PTR tv527[ebp], 52 ; 00000034H
  00acb	eb 24		 jmp	 SHORT $LN95@capture_ke
$LN94@capture_ke:
  00acd	8b 15 00 00 00
	00		 mov	 edx, DWORD PTR ?__LINE__Var@?0??capture_keysite@@YGXPAUENTITY@@W4ENTITY_SIDES@@@Z@4JA
  00ad3	81 c2 a9 00 00
	00		 add	 edx, 169		; 000000a9H
  00ad9	52		 push	 edx
  00ada	68 00 00 00 00	 push	 OFFSET ??_C@_0EN@PIOGLIPD@c?3?2users?2nhv90?2projects?2eech?2ap@
  00adf	a1 00 00 00 00	 mov	 eax, DWORD PTR ?overload_invalid_int_type_message@@3PBDB ; overload_invalid_int_type_message
  00ae4	50		 push	 eax
  00ae5	e8 00 00 00 00	 call	 ?process_assert@@YGXPBD0H@Z ; process_assert
  00aea	c7 45 98 00 00
	00 00		 mov	 DWORD PTR tv527[ebp], 0
$LN95@capture_ke:
  00af1	6a 34		 push	 52			; 00000034H
  00af3	8b 4d 08	 mov	 ecx, DWORD PTR _en$[ebp]
  00af6	51		 push	 ecx
  00af7	69 55 9c 5c 04
	00 00		 imul	 edx, DWORD PTR tv519[ebp], 1116
  00afe	8b 45 98	 mov	 eax, DWORD PTR tv527[ebp]
  00b01	8b 8c 82 00 00
	00 00		 mov	 ecx, DWORD PTR ?fn_get_local_entity_int_value@@3PAY0BBH@P6GHPAUENTITY@@W4INT_TYPES@@@ZA[edx+eax*4]
  00b08	ff d1		 call	 ecx
  00b0a	89 45 f0	 mov	 DWORD PTR _keysite_type$[ebp], eax

; 1458 : 
; 1459 : 	switch (keysite_type)

  00b0d	8b 45 f0	 mov	 eax, DWORD PTR _keysite_type$[ebp]
  00b10	89 45 9c	 mov	 DWORD PTR tv533[ebp], eax
  00b13	83 7d 9c 00	 cmp	 DWORD PTR tv533[ebp], 0
  00b17	74 0f		 je	 SHORT $LN23@capture_ke
  00b19	83 7d 9c 03	 cmp	 DWORD PTR tv533[ebp], 3
  00b1d	0f 84 8f 00 00
	00		 je	 $LN24@capture_ke
  00b23	e9 ad 00 00 00	 jmp	 $LN11@capture_ke
$LN23@capture_ke:

; 1460 : 	{
; 1461 : 		case ENTITY_SUB_TYPE_KEYSITE_AIRBASE:
; 1462 : 		{
; 1463 : 			increment_regen_queue_size (new_side, ENTITY_TYPE_HELICOPTER, 6);

  00b28	6a 06		 push	 6
  00b2a	6a 0e		 push	 14			; 0000000eH
  00b2c	8b 45 0c	 mov	 eax, DWORD PTR _new_side$[ebp]
  00b2f	50		 push	 eax
  00b30	e8 00 00 00 00	 call	 ?increment_regen_queue_size@@YGHW4ENTITY_SIDES@@W4ENTITY_TYPES@@H@Z ; increment_regen_queue_size

; 1464 : 
; 1465 : 			add_default_entity_to_regen_queue (new_side, ENTITY_SUB_TYPE_GROUP_ATTACK_HELICOPTER);

  00b35	6a 00		 push	 0
  00b37	8b 45 0c	 mov	 eax, DWORD PTR _new_side$[ebp]
  00b3a	50		 push	 eax
  00b3b	e8 00 00 00 00	 call	 ?add_default_entity_to_regen_queue@@YGXW4ENTITY_SIDES@@H@Z ; add_default_entity_to_regen_queue

; 1466 : 			add_default_entity_to_regen_queue (new_side, ENTITY_SUB_TYPE_GROUP_ATTACK_HELICOPTER);

  00b40	6a 00		 push	 0
  00b42	8b 45 0c	 mov	 eax, DWORD PTR _new_side$[ebp]
  00b45	50		 push	 eax
  00b46	e8 00 00 00 00	 call	 ?add_default_entity_to_regen_queue@@YGXW4ENTITY_SIDES@@H@Z ; add_default_entity_to_regen_queue

; 1467 : 
; 1468 : 			add_default_entity_to_regen_queue (new_side, ENTITY_SUB_TYPE_GROUP_RECON_ATTACK_HELICOPTER);

  00b4b	6a 05		 push	 5
  00b4d	8b 45 0c	 mov	 eax, DWORD PTR _new_side$[ebp]
  00b50	50		 push	 eax
  00b51	e8 00 00 00 00	 call	 ?add_default_entity_to_regen_queue@@YGXW4ENTITY_SIDES@@H@Z ; add_default_entity_to_regen_queue

; 1469 : 			add_default_entity_to_regen_queue (new_side, ENTITY_SUB_TYPE_GROUP_RECON_ATTACK_HELICOPTER);

  00b56	6a 05		 push	 5
  00b58	8b 45 0c	 mov	 eax, DWORD PTR _new_side$[ebp]
  00b5b	50		 push	 eax
  00b5c	e8 00 00 00 00	 call	 ?add_default_entity_to_regen_queue@@YGXW4ENTITY_SIDES@@H@Z ; add_default_entity_to_regen_queue

; 1470 : 
; 1471 : 			add_default_entity_to_regen_queue (new_side, ENTITY_SUB_TYPE_GROUP_ASSAULT_HELICOPTER);

  00b61	6a 02		 push	 2
  00b63	8b 45 0c	 mov	 eax, DWORD PTR _new_side$[ebp]
  00b66	50		 push	 eax
  00b67	e8 00 00 00 00	 call	 ?add_default_entity_to_regen_queue@@YGXW4ENTITY_SIDES@@H@Z ; add_default_entity_to_regen_queue

; 1472 : 			add_default_entity_to_regen_queue (new_side, ENTITY_SUB_TYPE_GROUP_ASSAULT_HELICOPTER);

  00b6c	6a 02		 push	 2
  00b6e	8b 45 0c	 mov	 eax, DWORD PTR _new_side$[ebp]
  00b71	50		 push	 eax
  00b72	e8 00 00 00 00	 call	 ?add_default_entity_to_regen_queue@@YGXW4ENTITY_SIDES@@H@Z ; add_default_entity_to_regen_queue

; 1473 : 
; 1474 : 			increment_regen_queue_size (new_side, ENTITY_TYPE_FIXED_WING, 4);

  00b77	6a 04		 push	 4
  00b79	6a 0a		 push	 10			; 0000000aH
  00b7b	8b 45 0c	 mov	 eax, DWORD PTR _new_side$[ebp]
  00b7e	50		 push	 eax
  00b7f	e8 00 00 00 00	 call	 ?increment_regen_queue_size@@YGHW4ENTITY_SIDES@@W4ENTITY_TYPES@@H@Z ; increment_regen_queue_size

; 1475 : 
; 1476 : 			add_default_entity_to_regen_queue (new_side, ENTITY_SUB_TYPE_GROUP_CLOSE_AIR_SUPPORT_AIRCRAFT);

  00b84	6a 0b		 push	 11			; 0000000bH
  00b86	8b 45 0c	 mov	 eax, DWORD PTR _new_side$[ebp]
  00b89	50		 push	 eax
  00b8a	e8 00 00 00 00	 call	 ?add_default_entity_to_regen_queue@@YGXW4ENTITY_SIDES@@H@Z ; add_default_entity_to_regen_queue

; 1477 : 			add_default_entity_to_regen_queue (new_side, ENTITY_SUB_TYPE_GROUP_CLOSE_AIR_SUPPORT_AIRCRAFT);

  00b8f	6a 0b		 push	 11			; 0000000bH
  00b91	8b 45 0c	 mov	 eax, DWORD PTR _new_side$[ebp]
  00b94	50		 push	 eax
  00b95	e8 00 00 00 00	 call	 ?add_default_entity_to_regen_queue@@YGXW4ENTITY_SIDES@@H@Z ; add_default_entity_to_regen_queue

; 1478 : 
; 1479 : 			add_default_entity_to_regen_queue (new_side, ENTITY_SUB_TYPE_GROUP_MULTI_ROLE_FIGHTER);

  00b9a	6a 08		 push	 8
  00b9c	8b 45 0c	 mov	 eax, DWORD PTR _new_side$[ebp]
  00b9f	50		 push	 eax
  00ba0	e8 00 00 00 00	 call	 ?add_default_entity_to_regen_queue@@YGXW4ENTITY_SIDES@@H@Z ; add_default_entity_to_regen_queue

; 1480 : 			add_default_entity_to_regen_queue (new_side, ENTITY_SUB_TYPE_GROUP_MULTI_ROLE_FIGHTER);

  00ba5	6a 08		 push	 8
  00ba7	8b 45 0c	 mov	 eax, DWORD PTR _new_side$[ebp]
  00baa	50		 push	 eax
  00bab	e8 00 00 00 00	 call	 ?add_default_entity_to_regen_queue@@YGXW4ENTITY_SIDES@@H@Z ; add_default_entity_to_regen_queue

; 1481 : 
; 1482 : 			break;

  00bb0	eb 23		 jmp	 SHORT $LN11@capture_ke
$LN24@capture_ke:

; 1483 : 		}
; 1484 : 		case ENTITY_SUB_TYPE_KEYSITE_FARP:
; 1485 : 		{
; 1486 : 			increment_regen_queue_size (new_side, ENTITY_TYPE_HELICOPTER, 2);

  00bb2	6a 02		 push	 2
  00bb4	6a 0e		 push	 14			; 0000000eH
  00bb6	8b 45 0c	 mov	 eax, DWORD PTR _new_side$[ebp]
  00bb9	50		 push	 eax
  00bba	e8 00 00 00 00	 call	 ?increment_regen_queue_size@@YGHW4ENTITY_SIDES@@W4ENTITY_TYPES@@H@Z ; increment_regen_queue_size

; 1487 : 
; 1488 : 			add_default_entity_to_regen_queue (new_side, ENTITY_SUB_TYPE_GROUP_RECON_ATTACK_HELICOPTER);

  00bbf	6a 05		 push	 5
  00bc1	8b 45 0c	 mov	 eax, DWORD PTR _new_side$[ebp]
  00bc4	50		 push	 eax
  00bc5	e8 00 00 00 00	 call	 ?add_default_entity_to_regen_queue@@YGXW4ENTITY_SIDES@@H@Z ; add_default_entity_to_regen_queue

; 1489 : 			add_default_entity_to_regen_queue (new_side, ENTITY_SUB_TYPE_GROUP_RECON_ATTACK_HELICOPTER);

  00bca	6a 05		 push	 5
  00bcc	8b 45 0c	 mov	 eax, DWORD PTR _new_side$[ebp]
  00bcf	50		 push	 eax
  00bd0	e8 00 00 00 00	 call	 ?add_default_entity_to_regen_queue@@YGXW4ENTITY_SIDES@@H@Z ; add_default_entity_to_regen_queue
$LN11@capture_ke:

; 1490 : 
; 1491 : 			break;
; 1492 : 		}
; 1493 : 	}
; 1494 : }

  00bd5	5f		 pop	 edi
  00bd6	5e		 pop	 esi
  00bd7	5b		 pop	 ebx
  00bd8	8b e5		 mov	 esp, ebp
  00bda	5d		 pop	 ebp
  00bdb	c2 08 00	 ret	 8
?capture_keysite@@YGXPAUENTITY@@W4ENTITY_SIDES@@@Z ENDP	; capture_keysite
_TEXT	ENDS
; Function compile flags: /Odtp /ZI
; File c:\users\nhv90\projects\eech\aphavoc\source\entity\special\keysite\keysite.c
;	COMDAT ?destroy_keysite@@YGXPAUENTITY@@W4ENTITY_SIDES@@@Z
_TEXT	SEGMENT
tv850 = -104						; size = 4
tv697 = -104						; size = 4
tv419 = -104						; size = 4
tv844 = -100						; size = 4
tv815 = -100						; size = 4
tv794 = -100						; size = 4
tv770 = -100						; size = 4
tv749 = -100						; size = 4
tv727 = -100						; size = 4
tv691 = -100						; size = 4
tv669 = -100						; size = 4
tv645 = -100						; size = 4
tv627 = -100						; size = 4
tv606 = -100						; size = 4
tv573 = -100						; size = 4
tv555 = -100						; size = 4
tv534 = -100						; size = 4
tv510 = -100						; size = 4
tv492 = -100						; size = 4
tv471 = -100						; size = 4
tv449 = -100						; size = 4
tv413 = -100						; size = 4
tv391 = -100						; size = 4
tv367 = -100						; size = 4
tv348 = -100						; size = 4
tv330 = -100						; size = 4
tv309 = -100						; size = 4
tv276 = -100						; size = 4
tv258 = -100						; size = 4
tv237 = -100						; size = 4
tv213 = -100						; size = 4
tv194 = -100						; size = 4
tv176 = -100						; size = 4
tv155 = -100						; size = 4
tv132 = -100						; size = 4
tv837 = -96						; size = 4
tv826 = -96						; size = 4
tv807 = -96						; size = 4
tv786 = -96						; size = 4
tv762 = -96						; size = 4
tv741 = -96						; size = 4
tv719 = -96						; size = 4
tv684 = -96						; size = 4
tv661 = -96						; size = 4
tv638 = -96						; size = 4
tv619 = -96						; size = 4
tv598 = -96						; size = 4
tv586 = -96						; size = 4
tv566 = -96						; size = 4
tv547 = -96						; size = 4
tv526 = -96						; size = 4
tv503 = -96						; size = 4
tv484 = -96						; size = 4
tv463 = -96						; size = 4
tv441 = -96						; size = 4
tv406 = -96						; size = 4
tv383 = -96						; size = 4
tv360 = -96						; size = 4
tv341 = -96						; size = 4
tv322 = -96						; size = 4
tv301 = -96						; size = 4
tv289 = -96						; size = 4
tv269 = -96						; size = 4
tv250 = -96						; size = 4
tv229 = -96						; size = 4
tv206 = -96						; size = 4
tv187 = -96						; size = 4
tv168 = -96						; size = 4
tv147 = -96						; size = 4
tv92 = -96						; size = 4
tv75 = -96						; size = 4
_pos$ = -28						; size = 4
_next_group$ = -24					; size = 4
_next$ = -20						; size = 4
_landing$ = -16						; size = 4
_member$ = -12						; size = 4
_group$ = -8						; size = 4
_task$ = -4						; size = 4
_en$ = 8						; size = 4
_side$ = 12						; size = 4
?destroy_keysite@@YGXPAUENTITY@@W4ENTITY_SIDES@@@Z PROC	; destroy_keysite, COMDAT

; 944  : {

  00000	55		 push	 ebp
  00001	8b ec		 mov	 ebp, esp
  00003	83 ec 68	 sub	 esp, 104		; 00000068H
  00006	53		 push	 ebx
  00007	56		 push	 esi
  00008	57		 push	 edi

; 945  : 	entity
; 946  : 		*task,
; 947  : 		*group,
; 948  : 		*member,
; 949  : 		*landing,
; 950  : 		*next,
; 951  : 		*next_group;
; 952  : 
; 953  : 	vec3d
; 954  : 		*pos;
; 955  : 
; 956  : 	ASSERT (en);

  00009	83 7d 08 00	 cmp	 DWORD PTR _en$[ebp], 0
  0000d	75 18		 jne	 SHORT $LN28@destroy_ke
  0000f	a1 00 00 00 00	 mov	 eax, DWORD PTR ?__LINE__Var@?0??destroy_keysite@@YGXPAUENTITY@@W4ENTITY_SIDES@@@Z@4JA
  00014	83 c0 0c	 add	 eax, 12			; 0000000cH
  00017	50		 push	 eax
  00018	68 00 00 00 00	 push	 OFFSET ??_C@_0EN@PIOGLIPD@c?3?2users?2nhv90?2projects?2eech?2ap@
  0001d	68 00 00 00 00	 push	 OFFSET ??_C@_02LFNMGJAP@en@
  00022	e8 00 00 00 00	 call	 ?process_assert@@YGXPBD0H@Z ; process_assert
$LN28@destroy_ke:

; 957  : 
; 958  : 	ASSERT (get_local_entity_type (en) == ENTITY_TYPE_KEYSITE);

  00027	83 7d 08 00	 cmp	 DWORD PTR _en$[ebp], 0
  0002b	74 0a		 je	 SHORT $LN59@destroy_ke
  0002d	8b 45 08	 mov	 eax, DWORD PTR _en$[ebp]
  00030	8b 08		 mov	 ecx, DWORD PTR [eax]
  00032	89 4d a0	 mov	 DWORD PTR tv75[ebp], ecx
  00035	eb 21		 jmp	 SHORT $LN60@destroy_ke
$LN59@destroy_ke:
  00037	8b 15 00 00 00
	00		 mov	 edx, DWORD PTR ?__LINE__Var@?0??destroy_keysite@@YGXPAUENTITY@@W4ENTITY_SIDES@@@Z@4JA
  0003d	83 c2 0e	 add	 edx, 14			; 0000000eH
  00040	52		 push	 edx
  00041	68 00 00 00 00	 push	 OFFSET ??_C@_0EN@PIOGLIPD@c?3?2users?2nhv90?2projects?2eech?2ap@
  00046	a1 00 00 00 00	 mov	 eax, DWORD PTR ?null_entity_pointer_message@@3PBDB ; null_entity_pointer_message
  0004b	50		 push	 eax
  0004c	e8 00 00 00 00	 call	 ?process_assert@@YGXPBD0H@Z ; process_assert
  00051	c7 45 a0 00 00
	00 00		 mov	 DWORD PTR tv75[ebp], 0
$LN60@destroy_ke:
  00058	83 7d a0 0f	 cmp	 DWORD PTR tv75[ebp], 15	; 0000000fH
  0005c	74 18		 je	 SHORT $LN29@destroy_ke
  0005e	a1 00 00 00 00	 mov	 eax, DWORD PTR ?__LINE__Var@?0??destroy_keysite@@YGXPAUENTITY@@W4ENTITY_SIDES@@@Z@4JA
  00063	83 c0 0e	 add	 eax, 14			; 0000000eH
  00066	50		 push	 eax
  00067	68 00 00 00 00	 push	 OFFSET ??_C@_0EN@PIOGLIPD@c?3?2users?2nhv90?2projects?2eech?2ap@
  0006c	68 00 00 00 00	 push	 OFFSET ??_C@_0DC@BODFACEG@get_local_entity_type?5?$CIen?$CJ?5?$DN?$DN?5E@
  00071	e8 00 00 00 00	 call	 ?process_assert@@YGXPBD0H@Z ; process_assert
$LN29@destroy_ke:

; 959  : 
; 960  : 	ASSERT (get_comms_model () == COMMS_MODEL_SERVER);

  00076	83 3d 00 00 00
	00 00		 cmp	 DWORD PTR ?system_comms_model@@3W4COMMS_MODEL_TYPES@@A, 0 ; system_comms_model
  0007d	74 18		 je	 SHORT $LN30@destroy_ke
  0007f	a1 00 00 00 00	 mov	 eax, DWORD PTR ?__LINE__Var@?0??destroy_keysite@@YGXPAUENTITY@@W4ENTITY_SIDES@@@Z@4JA
  00084	83 c0 10	 add	 eax, 16			; 00000010H
  00087	50		 push	 eax
  00088	68 00 00 00 00	 push	 OFFSET ??_C@_0EN@PIOGLIPD@c?3?2users?2nhv90?2projects?2eech?2ap@
  0008d	68 00 00 00 00	 push	 OFFSET ??_C@_0CJ@DMBLBJBK@get_comms_model?5?$CI?$CJ?5?$DN?$DN?5COMMS_MOD@
  00092	e8 00 00 00 00	 call	 ?process_assert@@YGXPBD0H@Z ; process_assert
$LN30@destroy_ke:

; 961  : 
; 962  : 	pos = get_local_entity_vec3d_ptr (en, VEC3D_TYPE_POSITION);

  00097	83 7d 08 00	 cmp	 DWORD PTR _en$[ebp], 0
  0009b	74 0a		 je	 SHORT $LN61@destroy_ke
  0009d	8b 45 08	 mov	 eax, DWORD PTR _en$[ebp]
  000a0	8b 08		 mov	 ecx, DWORD PTR [eax]
  000a2	89 4d a0	 mov	 DWORD PTR tv92[ebp], ecx
  000a5	eb 21		 jmp	 SHORT $LN62@destroy_ke
$LN61@destroy_ke:
  000a7	8b 15 00 00 00
	00		 mov	 edx, DWORD PTR ?__LINE__Var@?0??destroy_keysite@@YGXPAUENTITY@@W4ENTITY_SIDES@@@Z@4JA
  000ad	83 c2 12	 add	 edx, 18			; 00000012H
  000b0	52		 push	 edx
  000b1	68 00 00 00 00	 push	 OFFSET ??_C@_0EN@PIOGLIPD@c?3?2users?2nhv90?2projects?2eech?2ap@
  000b6	a1 00 00 00 00	 mov	 eax, DWORD PTR ?null_entity_pointer_message@@3PBDB ; null_entity_pointer_message
  000bb	50		 push	 eax
  000bc	e8 00 00 00 00	 call	 ?process_assert@@YGXPBD0H@Z ; process_assert
  000c1	c7 45 a0 00 00
	00 00		 mov	 DWORD PTR tv92[ebp], 0
$LN62@destroy_ke:
  000c8	b9 01 00 00 00	 mov	 ecx, 1
  000cd	85 c9		 test	 ecx, ecx
  000cf	74 09		 je	 SHORT $LN63@destroy_ke
  000d1	c7 45 9c 08 00
	00 00		 mov	 DWORD PTR tv132[ebp], 8
  000d8	eb 21		 jmp	 SHORT $LN64@destroy_ke
$LN63@destroy_ke:
  000da	8b 15 00 00 00
	00		 mov	 edx, DWORD PTR ?__LINE__Var@?0??destroy_keysite@@YGXPAUENTITY@@W4ENTITY_SIDES@@@Z@4JA
  000e0	83 c2 12	 add	 edx, 18			; 00000012H
  000e3	52		 push	 edx
  000e4	68 00 00 00 00	 push	 OFFSET ??_C@_0EN@PIOGLIPD@c?3?2users?2nhv90?2projects?2eech?2ap@
  000e9	a1 00 00 00 00	 mov	 eax, DWORD PTR ?overload_invalid_vec3d_type_message@@3PBDB ; overload_invalid_vec3d_type_message
  000ee	50		 push	 eax
  000ef	e8 00 00 00 00	 call	 ?process_assert@@YGXPBD0H@Z ; process_assert
  000f4	c7 45 9c 00 00
	00 00		 mov	 DWORD PTR tv132[ebp], 0
$LN64@destroy_ke:
  000fb	6a 08		 push	 8
  000fd	8b 4d 08	 mov	 ecx, DWORD PTR _en$[ebp]
  00100	51		 push	 ecx
  00101	6b 55 a0 60	 imul	 edx, DWORD PTR tv92[ebp], 96
  00105	8b 45 9c	 mov	 eax, DWORD PTR tv132[ebp]
  00108	8b 8c 82 00 00
	00 00		 mov	 ecx, DWORD PTR ?fn_get_local_entity_vec3d_ptr@@3PAY0BI@P6GPAUVEC3D@@PAUENTITY@@W4VEC3D_TYPES@@@ZA[edx+eax*4]
  0010f	ff d1		 call	 ecx
  00111	89 45 e4	 mov	 DWORD PTR _pos$[ebp], eax

; 963  : 
; 964  : 	//
; 965  : 	// Destroy cargo
; 966  : 	//
; 967  : 
; 968  : 	destroy_client_server_entity_children (en, LIST_TYPE_CARGO);

  00114	6a 06		 push	 6
  00116	8b 45 08	 mov	 eax, DWORD PTR _en$[ebp]
  00119	50		 push	 eax
  0011a	e8 00 00 00 00	 call	 ?destroy_client_server_entity_children@@YGXPAUENTITY@@W4LIST_TYPES@@@Z ; destroy_client_server_entity_children

; 969  : 
; 970  : 	if (command_line_capture_aircraft)

  0011f	83 3d 00 00 00
	00 00		 cmp	 DWORD PTR ?command_line_capture_aircraft@@3HA, 0 ; command_line_capture_aircraft
  00126	0f 84 3b 08 00
	00		 je	 $LN31@destroy_ke

; 971  : 	{
; 972  : 		//
; 973  : 		// "Capture" all aircraft landed at the keysite
; 974  : 		//
; 975  : 	
; 976  : 		group = get_local_entity_first_child (en, LIST_TYPE_KEYSITE_GROUP);

  0012c	83 7d 08 00	 cmp	 DWORD PTR _en$[ebp], 0
  00130	74 0a		 je	 SHORT $LN65@destroy_ke
  00132	8b 45 08	 mov	 eax, DWORD PTR _en$[ebp]
  00135	8b 08		 mov	 ecx, DWORD PTR [eax]
  00137	89 4d a0	 mov	 DWORD PTR tv147[ebp], ecx
  0013a	eb 21		 jmp	 SHORT $LN66@destroy_ke
$LN65@destroy_ke:
  0013c	8b 15 00 00 00
	00		 mov	 edx, DWORD PTR ?__LINE__Var@?0??destroy_keysite@@YGXPAUENTITY@@W4ENTITY_SIDES@@@Z@4JA
  00142	83 c2 20	 add	 edx, 32			; 00000020H
  00145	52		 push	 edx
  00146	68 00 00 00 00	 push	 OFFSET ??_C@_0EN@PIOGLIPD@c?3?2users?2nhv90?2projects?2eech?2ap@
  0014b	a1 00 00 00 00	 mov	 eax, DWORD PTR ?null_entity_pointer_message@@3PBDB ; null_entity_pointer_message
  00150	50		 push	 eax
  00151	e8 00 00 00 00	 call	 ?process_assert@@YGXPBD0H@Z ; process_assert
  00156	c7 45 a0 00 00
	00 00		 mov	 DWORD PTR tv147[ebp], 0
$LN66@destroy_ke:
  0015d	b9 01 00 00 00	 mov	 ecx, 1
  00162	85 c9		 test	 ecx, ecx
  00164	74 09		 je	 SHORT $LN67@destroy_ke
  00166	c7 45 9c 16 00
	00 00		 mov	 DWORD PTR tv155[ebp], 22 ; 00000016H
  0016d	eb 21		 jmp	 SHORT $LN68@destroy_ke
$LN67@destroy_ke:
  0016f	8b 15 00 00 00
	00		 mov	 edx, DWORD PTR ?__LINE__Var@?0??destroy_keysite@@YGXPAUENTITY@@W4ENTITY_SIDES@@@Z@4JA
  00175	83 c2 20	 add	 edx, 32			; 00000020H
  00178	52		 push	 edx
  00179	68 00 00 00 00	 push	 OFFSET ??_C@_0EN@PIOGLIPD@c?3?2users?2nhv90?2projects?2eech?2ap@
  0017e	a1 00 00 00 00	 mov	 eax, DWORD PTR ?overload_invalid_list_type_message@@3PBDB ; overload_invalid_list_type_message
  00183	50		 push	 eax
  00184	e8 00 00 00 00	 call	 ?process_assert@@YGXPBD0H@Z ; process_assert
  00189	c7 45 9c 00 00
	00 00		 mov	 DWORD PTR tv155[ebp], 0
$LN68@destroy_ke:
  00190	6a 16		 push	 22			; 00000016H
  00192	8b 4d 08	 mov	 ecx, DWORD PTR _en$[ebp]
  00195	51		 push	 ecx
  00196	69 55 a0 b4 00
	00 00		 imul	 edx, DWORD PTR tv147[ebp], 180
  0019d	8b 45 9c	 mov	 eax, DWORD PTR tv155[ebp]
  001a0	8b 8c 82 00 00
	00 00		 mov	 ecx, DWORD PTR ?fn_get_local_entity_first_child@@3PAY0CN@P6GPAUENTITY@@PAU1@W4LIST_TYPES@@@ZA[edx+eax*4]
  001a7	ff d1		 call	 ecx
  001a9	89 45 f8	 mov	 DWORD PTR _group$[ebp], eax
$LN2@destroy_ke:

; 977  : 	
; 978  : 		while (group)

  001ac	83 7d f8 00	 cmp	 DWORD PTR _group$[ebp], 0
  001b0	0f 84 72 03 00
	00		 je	 $LN3@destroy_ke

; 979  : 		{
; 980  : 			next_group = get_local_entity_child_succ (group, LIST_TYPE_KEYSITE_GROUP);

  001b6	83 7d f8 00	 cmp	 DWORD PTR _group$[ebp], 0
  001ba	74 0a		 je	 SHORT $LN69@destroy_ke
  001bc	8b 45 f8	 mov	 eax, DWORD PTR _group$[ebp]
  001bf	8b 08		 mov	 ecx, DWORD PTR [eax]
  001c1	89 4d a0	 mov	 DWORD PTR tv168[ebp], ecx
  001c4	eb 21		 jmp	 SHORT $LN70@destroy_ke
$LN69@destroy_ke:
  001c6	8b 15 00 00 00
	00		 mov	 edx, DWORD PTR ?__LINE__Var@?0??destroy_keysite@@YGXPAUENTITY@@W4ENTITY_SIDES@@@Z@4JA
  001cc	83 c2 24	 add	 edx, 36			; 00000024H
  001cf	52		 push	 edx
  001d0	68 00 00 00 00	 push	 OFFSET ??_C@_0EN@PIOGLIPD@c?3?2users?2nhv90?2projects?2eech?2ap@
  001d5	a1 00 00 00 00	 mov	 eax, DWORD PTR ?null_entity_pointer_message@@3PBDB ; null_entity_pointer_message
  001da	50		 push	 eax
  001db	e8 00 00 00 00	 call	 ?process_assert@@YGXPBD0H@Z ; process_assert
  001e0	c7 45 a0 00 00
	00 00		 mov	 DWORD PTR tv168[ebp], 0
$LN70@destroy_ke:
  001e7	b9 01 00 00 00	 mov	 ecx, 1
  001ec	85 c9		 test	 ecx, ecx
  001ee	74 09		 je	 SHORT $LN71@destroy_ke
  001f0	c7 45 9c 16 00
	00 00		 mov	 DWORD PTR tv176[ebp], 22 ; 00000016H
  001f7	eb 21		 jmp	 SHORT $LN72@destroy_ke
$LN71@destroy_ke:
  001f9	8b 15 00 00 00
	00		 mov	 edx, DWORD PTR ?__LINE__Var@?0??destroy_keysite@@YGXPAUENTITY@@W4ENTITY_SIDES@@@Z@4JA
  001ff	83 c2 24	 add	 edx, 36			; 00000024H
  00202	52		 push	 edx
  00203	68 00 00 00 00	 push	 OFFSET ??_C@_0EN@PIOGLIPD@c?3?2users?2nhv90?2projects?2eech?2ap@
  00208	a1 00 00 00 00	 mov	 eax, DWORD PTR ?overload_invalid_list_type_message@@3PBDB ; overload_invalid_list_type_message
  0020d	50		 push	 eax
  0020e	e8 00 00 00 00	 call	 ?process_assert@@YGXPBD0H@Z ; process_assert
  00213	c7 45 9c 00 00
	00 00		 mov	 DWORD PTR tv176[ebp], 0
$LN72@destroy_ke:
  0021a	6a 16		 push	 22			; 00000016H
  0021c	8b 4d f8	 mov	 ecx, DWORD PTR _group$[ebp]
  0021f	51		 push	 ecx
  00220	69 55 a0 b4 00
	00 00		 imul	 edx, DWORD PTR tv168[ebp], 180
  00227	8b 45 9c	 mov	 eax, DWORD PTR tv176[ebp]
  0022a	8b 8c 82 00 00
	00 00		 mov	 ecx, DWORD PTR ?fn_get_local_entity_child_succ@@3PAY0CN@P6GPAUENTITY@@PAU1@W4LIST_TYPES@@@ZA[edx+eax*4]
  00231	ff d1		 call	 ecx
  00233	89 45 e8	 mov	 DWORD PTR _next_group$[ebp], eax

; 981  : 	
; 982  : 			if (get_local_entity_int_value (group, INT_TYPE_AIRCRAFT_GROUP))

  00236	83 7d f8 00	 cmp	 DWORD PTR _group$[ebp], 0
  0023a	74 0a		 je	 SHORT $LN73@destroy_ke
  0023c	8b 45 f8	 mov	 eax, DWORD PTR _group$[ebp]
  0023f	8b 08		 mov	 ecx, DWORD PTR [eax]
  00241	89 4d a0	 mov	 DWORD PTR tv187[ebp], ecx
  00244	eb 1d		 jmp	 SHORT $LN74@destroy_ke
$LN73@destroy_ke:
  00246	68 d6 03 00 00	 push	 982			; 000003d6H
  0024b	68 00 00 00 00	 push	 OFFSET ??_C@_0EN@PIOGLIPD@c?3?2users?2nhv90?2projects?2eech?2ap@
  00250	8b 15 00 00 00
	00		 mov	 edx, DWORD PTR ?null_entity_pointer_message@@3PBDB ; null_entity_pointer_message
  00256	52		 push	 edx
  00257	e8 00 00 00 00	 call	 ?process_assert@@YGXPBD0H@Z ; process_assert
  0025c	c7 45 a0 00 00
	00 00		 mov	 DWORD PTR tv187[ebp], 0
$LN74@destroy_ke:
  00263	b8 01 00 00 00	 mov	 eax, 1
  00268	85 c0		 test	 eax, eax
  0026a	74 09		 je	 SHORT $LN75@destroy_ke
  0026c	c7 45 9c 05 00
	00 00		 mov	 DWORD PTR tv194[ebp], 5
  00273	eb 1d		 jmp	 SHORT $LN76@destroy_ke
$LN75@destroy_ke:
  00275	68 d6 03 00 00	 push	 982			; 000003d6H
  0027a	68 00 00 00 00	 push	 OFFSET ??_C@_0EN@PIOGLIPD@c?3?2users?2nhv90?2projects?2eech?2ap@
  0027f	8b 0d 00 00 00
	00		 mov	 ecx, DWORD PTR ?overload_invalid_int_type_message@@3PBDB ; overload_invalid_int_type_message
  00285	51		 push	 ecx
  00286	e8 00 00 00 00	 call	 ?process_assert@@YGXPBD0H@Z ; process_assert
  0028b	c7 45 9c 00 00
	00 00		 mov	 DWORD PTR tv194[ebp], 0
$LN76@destroy_ke:
  00292	6a 05		 push	 5
  00294	8b 55 f8	 mov	 edx, DWORD PTR _group$[ebp]
  00297	52		 push	 edx
  00298	69 45 a0 5c 04
	00 00		 imul	 eax, DWORD PTR tv187[ebp], 1116
  0029f	8b 4d 9c	 mov	 ecx, DWORD PTR tv194[ebp]
  002a2	8b 94 88 00 00
	00 00		 mov	 edx, DWORD PTR ?fn_get_local_entity_int_value@@3PAY0BBH@P6GHPAUENTITY@@W4INT_TYPES@@@ZA[eax+ecx*4]
  002a9	ff d2		 call	 edx
  002ab	85 c0		 test	 eax, eax
  002ad	0f 84 6a 02 00
	00		 je	 $LN33@destroy_ke

; 983  : 			{
; 984  : 				if (get_local_entity_int_value (group, INT_TYPE_SIDE) == side)

  002b3	83 7d f8 00	 cmp	 DWORD PTR _group$[ebp], 0
  002b7	74 0a		 je	 SHORT $LN77@destroy_ke
  002b9	8b 45 f8	 mov	 eax, DWORD PTR _group$[ebp]
  002bc	8b 08		 mov	 ecx, DWORD PTR [eax]
  002be	89 4d a0	 mov	 DWORD PTR tv206[ebp], ecx
  002c1	eb 1d		 jmp	 SHORT $LN78@destroy_ke
$LN77@destroy_ke:
  002c3	68 d8 03 00 00	 push	 984			; 000003d8H
  002c8	68 00 00 00 00	 push	 OFFSET ??_C@_0EN@PIOGLIPD@c?3?2users?2nhv90?2projects?2eech?2ap@
  002cd	8b 15 00 00 00
	00		 mov	 edx, DWORD PTR ?null_entity_pointer_message@@3PBDB ; null_entity_pointer_message
  002d3	52		 push	 edx
  002d4	e8 00 00 00 00	 call	 ?process_assert@@YGXPBD0H@Z ; process_assert
  002d9	c7 45 a0 00 00
	00 00		 mov	 DWORD PTR tv206[ebp], 0
$LN78@destroy_ke:
  002e0	b8 01 00 00 00	 mov	 eax, 1
  002e5	85 c0		 test	 eax, eax
  002e7	74 09		 je	 SHORT $LN79@destroy_ke
  002e9	c7 45 9c bb 00
	00 00		 mov	 DWORD PTR tv213[ebp], 187 ; 000000bbH
  002f0	eb 1d		 jmp	 SHORT $LN80@destroy_ke
$LN79@destroy_ke:
  002f2	68 d8 03 00 00	 push	 984			; 000003d8H
  002f7	68 00 00 00 00	 push	 OFFSET ??_C@_0EN@PIOGLIPD@c?3?2users?2nhv90?2projects?2eech?2ap@
  002fc	8b 0d 00 00 00
	00		 mov	 ecx, DWORD PTR ?overload_invalid_int_type_message@@3PBDB ; overload_invalid_int_type_message
  00302	51		 push	 ecx
  00303	e8 00 00 00 00	 call	 ?process_assert@@YGXPBD0H@Z ; process_assert
  00308	c7 45 9c 00 00
	00 00		 mov	 DWORD PTR tv213[ebp], 0
$LN80@destroy_ke:
  0030f	68 bb 00 00 00	 push	 187			; 000000bbH
  00314	8b 55 f8	 mov	 edx, DWORD PTR _group$[ebp]
  00317	52		 push	 edx
  00318	69 45 a0 5c 04
	00 00		 imul	 eax, DWORD PTR tv206[ebp], 1116
  0031f	8b 4d 9c	 mov	 ecx, DWORD PTR tv213[ebp]
  00322	8b 94 88 00 00
	00 00		 mov	 edx, DWORD PTR ?fn_get_local_entity_int_value@@3PAY0BBH@P6GHPAUENTITY@@W4INT_TYPES@@@ZA[eax+ecx*4]
  00329	ff d2		 call	 edx
  0032b	3b 45 0c	 cmp	 eax, DWORD PTR _side$[ebp]
  0032e	0f 85 e9 01 00
	00		 jne	 $LN33@destroy_ke

; 985  : 				{
; 986  : 					if (!get_local_group_primary_task (group))

  00334	8b 45 f8	 mov	 eax, DWORD PTR _group$[ebp]
  00337	50		 push	 eax
  00338	e8 00 00 00 00	 call	 ?get_local_group_primary_task@@YGPAUENTITY@@PAU1@@Z ; get_local_group_primary_task
  0033d	85 c0		 test	 eax, eax
  0033f	0f 85 d8 01 00
	00		 jne	 $LN33@destroy_ke

; 987  : 					{
; 988  : 						//
; 989  : 						// check primary task so we don't destroy aircraft taxiing at another keysite before doing a task which will bring them to the captured keysite
; 990  : 						// also has the side effect of allowing any aircraft at the captured keysite to continue taking off.
; 991  : 						//
; 992  : 						
; 993  : 						member = get_local_entity_first_child (group, LIST_TYPE_MEMBER);

  00345	83 7d f8 00	 cmp	 DWORD PTR _group$[ebp], 0
  00349	74 0a		 je	 SHORT $LN81@destroy_ke
  0034b	8b 45 f8	 mov	 eax, DWORD PTR _group$[ebp]
  0034e	8b 08		 mov	 ecx, DWORD PTR [eax]
  00350	89 4d a0	 mov	 DWORD PTR tv229[ebp], ecx
  00353	eb 21		 jmp	 SHORT $LN82@destroy_ke
$LN81@destroy_ke:
  00355	8b 15 00 00 00
	00		 mov	 edx, DWORD PTR ?__LINE__Var@?0??destroy_keysite@@YGXPAUENTITY@@W4ENTITY_SIDES@@@Z@4JA
  0035b	83 c2 31	 add	 edx, 49			; 00000031H
  0035e	52		 push	 edx
  0035f	68 00 00 00 00	 push	 OFFSET ??_C@_0EN@PIOGLIPD@c?3?2users?2nhv90?2projects?2eech?2ap@
  00364	a1 00 00 00 00	 mov	 eax, DWORD PTR ?null_entity_pointer_message@@3PBDB ; null_entity_pointer_message
  00369	50		 push	 eax
  0036a	e8 00 00 00 00	 call	 ?process_assert@@YGXPBD0H@Z ; process_assert
  0036f	c7 45 a0 00 00
	00 00		 mov	 DWORD PTR tv229[ebp], 0
$LN82@destroy_ke:
  00376	b9 01 00 00 00	 mov	 ecx, 1
  0037b	85 c9		 test	 ecx, ecx
  0037d	74 09		 je	 SHORT $LN83@destroy_ke
  0037f	c7 45 9c 19 00
	00 00		 mov	 DWORD PTR tv237[ebp], 25 ; 00000019H
  00386	eb 21		 jmp	 SHORT $LN84@destroy_ke
$LN83@destroy_ke:
  00388	8b 15 00 00 00
	00		 mov	 edx, DWORD PTR ?__LINE__Var@?0??destroy_keysite@@YGXPAUENTITY@@W4ENTITY_SIDES@@@Z@4JA
  0038e	83 c2 31	 add	 edx, 49			; 00000031H
  00391	52		 push	 edx
  00392	68 00 00 00 00	 push	 OFFSET ??_C@_0EN@PIOGLIPD@c?3?2users?2nhv90?2projects?2eech?2ap@
  00397	a1 00 00 00 00	 mov	 eax, DWORD PTR ?overload_invalid_list_type_message@@3PBDB ; overload_invalid_list_type_message
  0039c	50		 push	 eax
  0039d	e8 00 00 00 00	 call	 ?process_assert@@YGXPBD0H@Z ; process_assert
  003a2	c7 45 9c 00 00
	00 00		 mov	 DWORD PTR tv237[ebp], 0
$LN84@destroy_ke:
  003a9	6a 19		 push	 25			; 00000019H
  003ab	8b 4d f8	 mov	 ecx, DWORD PTR _group$[ebp]
  003ae	51		 push	 ecx
  003af	69 55 a0 b4 00
	00 00		 imul	 edx, DWORD PTR tv229[ebp], 180
  003b6	8b 45 9c	 mov	 eax, DWORD PTR tv237[ebp]
  003b9	8b 8c 82 00 00
	00 00		 mov	 ecx, DWORD PTR ?fn_get_local_entity_first_child@@3PAY0CN@P6GPAUENTITY@@PAU1@W4LIST_TYPES@@@ZA[edx+eax*4]
  003c0	ff d1		 call	 ecx
  003c2	89 45 f4	 mov	 DWORD PTR _member$[ebp], eax
$LN4@destroy_ke:

; 994  : 				
; 995  : 						while (member)

  003c5	83 7d f4 00	 cmp	 DWORD PTR _member$[ebp], 0
  003c9	0f 84 4e 01 00
	00		 je	 $LN33@destroy_ke

; 996  : 						{
; 997  : 							next = get_local_entity_child_succ (member, LIST_TYPE_MEMBER);

  003cf	83 7d f4 00	 cmp	 DWORD PTR _member$[ebp], 0
  003d3	74 0a		 je	 SHORT $LN85@destroy_ke
  003d5	8b 45 f4	 mov	 eax, DWORD PTR _member$[ebp]
  003d8	8b 08		 mov	 ecx, DWORD PTR [eax]
  003da	89 4d a0	 mov	 DWORD PTR tv250[ebp], ecx
  003dd	eb 21		 jmp	 SHORT $LN86@destroy_ke
$LN85@destroy_ke:
  003df	8b 15 00 00 00
	00		 mov	 edx, DWORD PTR ?__LINE__Var@?0??destroy_keysite@@YGXPAUENTITY@@W4ENTITY_SIDES@@@Z@4JA
  003e5	83 c2 35	 add	 edx, 53			; 00000035H
  003e8	52		 push	 edx
  003e9	68 00 00 00 00	 push	 OFFSET ??_C@_0EN@PIOGLIPD@c?3?2users?2nhv90?2projects?2eech?2ap@
  003ee	a1 00 00 00 00	 mov	 eax, DWORD PTR ?null_entity_pointer_message@@3PBDB ; null_entity_pointer_message
  003f3	50		 push	 eax
  003f4	e8 00 00 00 00	 call	 ?process_assert@@YGXPBD0H@Z ; process_assert
  003f9	c7 45 a0 00 00
	00 00		 mov	 DWORD PTR tv250[ebp], 0
$LN86@destroy_ke:
  00400	b9 01 00 00 00	 mov	 ecx, 1
  00405	85 c9		 test	 ecx, ecx
  00407	74 09		 je	 SHORT $LN87@destroy_ke
  00409	c7 45 9c 19 00
	00 00		 mov	 DWORD PTR tv258[ebp], 25 ; 00000019H
  00410	eb 21		 jmp	 SHORT $LN88@destroy_ke
$LN87@destroy_ke:
  00412	8b 15 00 00 00
	00		 mov	 edx, DWORD PTR ?__LINE__Var@?0??destroy_keysite@@YGXPAUENTITY@@W4ENTITY_SIDES@@@Z@4JA
  00418	83 c2 35	 add	 edx, 53			; 00000035H
  0041b	52		 push	 edx
  0041c	68 00 00 00 00	 push	 OFFSET ??_C@_0EN@PIOGLIPD@c?3?2users?2nhv90?2projects?2eech?2ap@
  00421	a1 00 00 00 00	 mov	 eax, DWORD PTR ?overload_invalid_list_type_message@@3PBDB ; overload_invalid_list_type_message
  00426	50		 push	 eax
  00427	e8 00 00 00 00	 call	 ?process_assert@@YGXPBD0H@Z ; process_assert
  0042c	c7 45 9c 00 00
	00 00		 mov	 DWORD PTR tv258[ebp], 0
$LN88@destroy_ke:
  00433	6a 19		 push	 25			; 00000019H
  00435	8b 4d f4	 mov	 ecx, DWORD PTR _member$[ebp]
  00438	51		 push	 ecx
  00439	69 55 a0 b4 00
	00 00		 imul	 edx, DWORD PTR tv250[ebp], 180
  00440	8b 45 9c	 mov	 eax, DWORD PTR tv258[ebp]
  00443	8b 8c 82 00 00
	00 00		 mov	 ecx, DWORD PTR ?fn_get_local_entity_child_succ@@3PAY0CN@P6GPAUENTITY@@PAU1@W4LIST_TYPES@@@ZA[edx+eax*4]
  0044a	ff d1		 call	 ecx
  0044c	89 45 ec	 mov	 DWORD PTR _next$[ebp], eax

; 998  : 				
; 999  : 							if (!get_local_entity_int_value (member, INT_TYPE_AIRBORNE_AIRCRAFT))

  0044f	83 7d f4 00	 cmp	 DWORD PTR _member$[ebp], 0
  00453	74 0a		 je	 SHORT $LN89@destroy_ke
  00455	8b 45 f4	 mov	 eax, DWORD PTR _member$[ebp]
  00458	8b 08		 mov	 ecx, DWORD PTR [eax]
  0045a	89 4d a0	 mov	 DWORD PTR tv269[ebp], ecx
  0045d	eb 1d		 jmp	 SHORT $LN90@destroy_ke
$LN89@destroy_ke:
  0045f	68 e7 03 00 00	 push	 999			; 000003e7H
  00464	68 00 00 00 00	 push	 OFFSET ??_C@_0EN@PIOGLIPD@c?3?2users?2nhv90?2projects?2eech?2ap@
  00469	8b 15 00 00 00
	00		 mov	 edx, DWORD PTR ?null_entity_pointer_message@@3PBDB ; null_entity_pointer_message
  0046f	52		 push	 edx
  00470	e8 00 00 00 00	 call	 ?process_assert@@YGXPBD0H@Z ; process_assert
  00475	c7 45 a0 00 00
	00 00		 mov	 DWORD PTR tv269[ebp], 0
$LN90@destroy_ke:
  0047c	b8 01 00 00 00	 mov	 eax, 1
  00481	85 c0		 test	 eax, eax
  00483	74 09		 je	 SHORT $LN91@destroy_ke
  00485	c7 45 9c 04 00
	00 00		 mov	 DWORD PTR tv276[ebp], 4
  0048c	eb 1d		 jmp	 SHORT $LN92@destroy_ke
$LN91@destroy_ke:
  0048e	68 e7 03 00 00	 push	 999			; 000003e7H
  00493	68 00 00 00 00	 push	 OFFSET ??_C@_0EN@PIOGLIPD@c?3?2users?2nhv90?2projects?2eech?2ap@
  00498	8b 0d 00 00 00
	00		 mov	 ecx, DWORD PTR ?overload_invalid_int_type_message@@3PBDB ; overload_invalid_int_type_message
  0049e	51		 push	 ecx
  0049f	e8 00 00 00 00	 call	 ?process_assert@@YGXPBD0H@Z ; process_assert
  004a4	c7 45 9c 00 00
	00 00		 mov	 DWORD PTR tv276[ebp], 0
$LN92@destroy_ke:
  004ab	6a 04		 push	 4
  004ad	8b 55 f4	 mov	 edx, DWORD PTR _member$[ebp]
  004b0	52		 push	 edx
  004b1	69 45 a0 5c 04
	00 00		 imul	 eax, DWORD PTR tv269[ebp], 1116
  004b8	8b 4d 9c	 mov	 ecx, DWORD PTR tv276[ebp]
  004bb	8b 94 88 00 00
	00 00		 mov	 edx, DWORD PTR ?fn_get_local_entity_int_value@@3PAY0BBH@P6GHPAUENTITY@@W4INT_TYPES@@@ZA[eax+ecx*4]
  004c2	ff d2		 call	 edx
  004c4	85 c0		 test	 eax, eax
  004c6	75 4a		 jne	 SHORT $LN36@destroy_ke

; 1000 : 							{
; 1001 : 								kill_client_server_entity (member);

  004c8	83 7d f4 00	 cmp	 DWORD PTR _member$[ebp], 0
  004cc	74 0a		 je	 SHORT $LN93@destroy_ke
  004ce	8b 45 f4	 mov	 eax, DWORD PTR _member$[ebp]
  004d1	8b 08		 mov	 ecx, DWORD PTR [eax]
  004d3	89 4d a0	 mov	 DWORD PTR tv289[ebp], ecx
  004d6	eb 21		 jmp	 SHORT $LN94@destroy_ke
$LN93@destroy_ke:
  004d8	8b 15 00 00 00
	00		 mov	 edx, DWORD PTR ?__LINE__Var@?0??destroy_keysite@@YGXPAUENTITY@@W4ENTITY_SIDES@@@Z@4JA
  004de	83 c2 39	 add	 edx, 57			; 00000039H
  004e1	52		 push	 edx
  004e2	68 00 00 00 00	 push	 OFFSET ??_C@_0EN@PIOGLIPD@c?3?2users?2nhv90?2projects?2eech?2ap@
  004e7	a1 00 00 00 00	 mov	 eax, DWORD PTR ?null_entity_pointer_message@@3PBDB ; null_entity_pointer_message
  004ec	50		 push	 eax
  004ed	e8 00 00 00 00	 call	 ?process_assert@@YGXPBD0H@Z ; process_assert
  004f2	c7 45 a0 00 00
	00 00		 mov	 DWORD PTR tv289[ebp], 0
$LN94@destroy_ke:
  004f9	8b 4d f4	 mov	 ecx, DWORD PTR _member$[ebp]
  004fc	51		 push	 ecx
  004fd	8b 15 00 00 00
	00		 mov	 edx, DWORD PTR ?system_comms_model@@3W4COMMS_MODEL_TYPES@@A ; system_comms_model
  00503	c1 e2 02	 shl	 edx, 2
  00506	8b 45 a0	 mov	 eax, DWORD PTR tv289[ebp]
  00509	8b 8c c2 00 00
	00 00		 mov	 ecx, DWORD PTR ?fn_kill_client_server_entity@@3PAY01P6GXPAUENTITY@@@ZA[edx+eax*8]
  00510	ff d1		 call	 ecx
$LN36@destroy_ke:

; 1002 : 							}
; 1003 : 				
; 1004 : 							member = next;

  00512	8b 45 ec	 mov	 eax, DWORD PTR _next$[ebp]
  00515	89 45 f4	 mov	 DWORD PTR _member$[ebp], eax

; 1005 : 						}

  00518	e9 a8 fe ff ff	 jmp	 $LN4@destroy_ke
$LN33@destroy_ke:

; 1006 : 					}
; 1007 : 				}
; 1008 : 			}
; 1009 : 			
; 1010 : 			group = next_group;

  0051d	8b 45 e8	 mov	 eax, DWORD PTR _next_group$[ebp]
  00520	89 45 f8	 mov	 DWORD PTR _group$[ebp], eax

; 1011 : 		}

  00523	e9 84 fc ff ff	 jmp	 $LN2@destroy_ke
$LN3@destroy_ke:

; 1012 : 	
; 1013 : 		//
; 1014 : 		// Redirect incoming aircraft to new keysite
; 1015 : 		//
; 1016 : 	
; 1017 : 		group = get_local_entity_first_child (en, LIST_TYPE_KEYSITE_GROUP);

  00528	83 7d 08 00	 cmp	 DWORD PTR _en$[ebp], 0
  0052c	74 0a		 je	 SHORT $LN95@destroy_ke
  0052e	8b 45 08	 mov	 eax, DWORD PTR _en$[ebp]
  00531	8b 08		 mov	 ecx, DWORD PTR [eax]
  00533	89 4d a0	 mov	 DWORD PTR tv301[ebp], ecx
  00536	eb 21		 jmp	 SHORT $LN96@destroy_ke
$LN95@destroy_ke:
  00538	8b 15 00 00 00
	00		 mov	 edx, DWORD PTR ?__LINE__Var@?0??destroy_keysite@@YGXPAUENTITY@@W4ENTITY_SIDES@@@Z@4JA
  0053e	83 c2 49	 add	 edx, 73			; 00000049H
  00541	52		 push	 edx
  00542	68 00 00 00 00	 push	 OFFSET ??_C@_0EN@PIOGLIPD@c?3?2users?2nhv90?2projects?2eech?2ap@
  00547	a1 00 00 00 00	 mov	 eax, DWORD PTR ?null_entity_pointer_message@@3PBDB ; null_entity_pointer_message
  0054c	50		 push	 eax
  0054d	e8 00 00 00 00	 call	 ?process_assert@@YGXPBD0H@Z ; process_assert
  00552	c7 45 a0 00 00
	00 00		 mov	 DWORD PTR tv301[ebp], 0
$LN96@destroy_ke:
  00559	b9 01 00 00 00	 mov	 ecx, 1
  0055e	85 c9		 test	 ecx, ecx
  00560	74 09		 je	 SHORT $LN97@destroy_ke
  00562	c7 45 9c 16 00
	00 00		 mov	 DWORD PTR tv309[ebp], 22 ; 00000016H
  00569	eb 21		 jmp	 SHORT $LN98@destroy_ke
$LN97@destroy_ke:
  0056b	8b 15 00 00 00
	00		 mov	 edx, DWORD PTR ?__LINE__Var@?0??destroy_keysite@@YGXPAUENTITY@@W4ENTITY_SIDES@@@Z@4JA
  00571	83 c2 49	 add	 edx, 73			; 00000049H
  00574	52		 push	 edx
  00575	68 00 00 00 00	 push	 OFFSET ??_C@_0EN@PIOGLIPD@c?3?2users?2nhv90?2projects?2eech?2ap@
  0057a	a1 00 00 00 00	 mov	 eax, DWORD PTR ?overload_invalid_list_type_message@@3PBDB ; overload_invalid_list_type_message
  0057f	50		 push	 eax
  00580	e8 00 00 00 00	 call	 ?process_assert@@YGXPBD0H@Z ; process_assert
  00585	c7 45 9c 00 00
	00 00		 mov	 DWORD PTR tv309[ebp], 0
$LN98@destroy_ke:
  0058c	6a 16		 push	 22			; 00000016H
  0058e	8b 4d 08	 mov	 ecx, DWORD PTR _en$[ebp]
  00591	51		 push	 ecx
  00592	69 55 a0 b4 00
	00 00		 imul	 edx, DWORD PTR tv301[ebp], 180
  00599	8b 45 9c	 mov	 eax, DWORD PTR tv309[ebp]
  0059c	8b 8c 82 00 00
	00 00		 mov	 ecx, DWORD PTR ?fn_get_local_entity_first_child@@3PAY0CN@P6GPAUENTITY@@PAU1@W4LIST_TYPES@@@ZA[edx+eax*4]
  005a3	ff d1		 call	 ecx
  005a5	89 45 f8	 mov	 DWORD PTR _group$[ebp], eax
$LN6@destroy_ke:

; 1018 : 	
; 1019 : 		while (group)

  005a8	83 7d f8 00	 cmp	 DWORD PTR _group$[ebp], 0
  005ac	0f 84 b0 03 00
	00		 je	 $LN7@destroy_ke

; 1020 : 		{
; 1021 : 			next_group = get_local_entity_child_succ (group, LIST_TYPE_KEYSITE_GROUP);

  005b2	83 7d f8 00	 cmp	 DWORD PTR _group$[ebp], 0
  005b6	74 0a		 je	 SHORT $LN99@destroy_ke
  005b8	8b 45 f8	 mov	 eax, DWORD PTR _group$[ebp]
  005bb	8b 08		 mov	 ecx, DWORD PTR [eax]
  005bd	89 4d a0	 mov	 DWORD PTR tv322[ebp], ecx
  005c0	eb 21		 jmp	 SHORT $LN100@destroy_ke
$LN99@destroy_ke:
  005c2	8b 15 00 00 00
	00		 mov	 edx, DWORD PTR ?__LINE__Var@?0??destroy_keysite@@YGXPAUENTITY@@W4ENTITY_SIDES@@@Z@4JA
  005c8	83 c2 4d	 add	 edx, 77			; 0000004dH
  005cb	52		 push	 edx
  005cc	68 00 00 00 00	 push	 OFFSET ??_C@_0EN@PIOGLIPD@c?3?2users?2nhv90?2projects?2eech?2ap@
  005d1	a1 00 00 00 00	 mov	 eax, DWORD PTR ?null_entity_pointer_message@@3PBDB ; null_entity_pointer_message
  005d6	50		 push	 eax
  005d7	e8 00 00 00 00	 call	 ?process_assert@@YGXPBD0H@Z ; process_assert
  005dc	c7 45 a0 00 00
	00 00		 mov	 DWORD PTR tv322[ebp], 0
$LN100@destroy_ke:
  005e3	b9 01 00 00 00	 mov	 ecx, 1
  005e8	85 c9		 test	 ecx, ecx
  005ea	74 09		 je	 SHORT $LN101@destroy_ke
  005ec	c7 45 9c 16 00
	00 00		 mov	 DWORD PTR tv330[ebp], 22 ; 00000016H
  005f3	eb 21		 jmp	 SHORT $LN102@destroy_ke
$LN101@destroy_ke:
  005f5	8b 15 00 00 00
	00		 mov	 edx, DWORD PTR ?__LINE__Var@?0??destroy_keysite@@YGXPAUENTITY@@W4ENTITY_SIDES@@@Z@4JA
  005fb	83 c2 4d	 add	 edx, 77			; 0000004dH
  005fe	52		 push	 edx
  005ff	68 00 00 00 00	 push	 OFFSET ??_C@_0EN@PIOGLIPD@c?3?2users?2nhv90?2projects?2eech?2ap@
  00604	a1 00 00 00 00	 mov	 eax, DWORD PTR ?overload_invalid_list_type_message@@3PBDB ; overload_invalid_list_type_message
  00609	50		 push	 eax
  0060a	e8 00 00 00 00	 call	 ?process_assert@@YGXPBD0H@Z ; process_assert
  0060f	c7 45 9c 00 00
	00 00		 mov	 DWORD PTR tv330[ebp], 0
$LN102@destroy_ke:
  00616	6a 16		 push	 22			; 00000016H
  00618	8b 4d f8	 mov	 ecx, DWORD PTR _group$[ebp]
  0061b	51		 push	 ecx
  0061c	69 55 a0 b4 00
	00 00		 imul	 edx, DWORD PTR tv322[ebp], 180
  00623	8b 45 9c	 mov	 eax, DWORD PTR tv330[ebp]
  00626	8b 8c 82 00 00
	00 00		 mov	 ecx, DWORD PTR ?fn_get_local_entity_child_succ@@3PAY0CN@P6GPAUENTITY@@PAU1@W4LIST_TYPES@@@ZA[edx+eax*4]
  0062d	ff d1		 call	 ecx
  0062f	89 45 e8	 mov	 DWORD PTR _next_group$[ebp], eax

; 1022 : 	
; 1023 : 			if (get_local_entity_int_value (group, INT_TYPE_AIRCRAFT_GROUP))

  00632	83 7d f8 00	 cmp	 DWORD PTR _group$[ebp], 0
  00636	74 0a		 je	 SHORT $LN103@destroy_ke
  00638	8b 45 f8	 mov	 eax, DWORD PTR _group$[ebp]
  0063b	8b 08		 mov	 ecx, DWORD PTR [eax]
  0063d	89 4d a0	 mov	 DWORD PTR tv341[ebp], ecx
  00640	eb 1d		 jmp	 SHORT $LN104@destroy_ke
$LN103@destroy_ke:
  00642	68 ff 03 00 00	 push	 1023			; 000003ffH
  00647	68 00 00 00 00	 push	 OFFSET ??_C@_0EN@PIOGLIPD@c?3?2users?2nhv90?2projects?2eech?2ap@
  0064c	8b 15 00 00 00
	00		 mov	 edx, DWORD PTR ?null_entity_pointer_message@@3PBDB ; null_entity_pointer_message
  00652	52		 push	 edx
  00653	e8 00 00 00 00	 call	 ?process_assert@@YGXPBD0H@Z ; process_assert
  00658	c7 45 a0 00 00
	00 00		 mov	 DWORD PTR tv341[ebp], 0
$LN104@destroy_ke:
  0065f	b8 01 00 00 00	 mov	 eax, 1
  00664	85 c0		 test	 eax, eax
  00666	74 09		 je	 SHORT $LN105@destroy_ke
  00668	c7 45 9c 05 00
	00 00		 mov	 DWORD PTR tv348[ebp], 5
  0066f	eb 1d		 jmp	 SHORT $LN106@destroy_ke
$LN105@destroy_ke:
  00671	68 ff 03 00 00	 push	 1023			; 000003ffH
  00676	68 00 00 00 00	 push	 OFFSET ??_C@_0EN@PIOGLIPD@c?3?2users?2nhv90?2projects?2eech?2ap@
  0067b	8b 0d 00 00 00
	00		 mov	 ecx, DWORD PTR ?overload_invalid_int_type_message@@3PBDB ; overload_invalid_int_type_message
  00681	51		 push	 ecx
  00682	e8 00 00 00 00	 call	 ?process_assert@@YGXPBD0H@Z ; process_assert
  00687	c7 45 9c 00 00
	00 00		 mov	 DWORD PTR tv348[ebp], 0
$LN106@destroy_ke:
  0068e	6a 05		 push	 5
  00690	8b 55 f8	 mov	 edx, DWORD PTR _group$[ebp]
  00693	52		 push	 edx
  00694	69 45 a0 5c 04
	00 00		 imul	 eax, DWORD PTR tv341[ebp], 1116
  0069b	8b 4d 9c	 mov	 ecx, DWORD PTR tv348[ebp]
  0069e	8b 94 88 00 00
	00 00		 mov	 edx, DWORD PTR ?fn_get_local_entity_int_value@@3PAY0BBH@P6GHPAUENTITY@@W4INT_TYPES@@@ZA[eax+ecx*4]
  006a5	ff d2		 call	 edx
  006a7	85 c0		 test	 eax, eax
  006a9	0f 84 9f 02 00
	00		 je	 $LN37@destroy_ke

; 1024 : 			{
; 1025 : 				if (get_local_entity_int_value (group, INT_TYPE_SIDE) == side)

  006af	83 7d f8 00	 cmp	 DWORD PTR _group$[ebp], 0
  006b3	74 0a		 je	 SHORT $LN107@destroy_ke
  006b5	8b 45 f8	 mov	 eax, DWORD PTR _group$[ebp]
  006b8	8b 08		 mov	 ecx, DWORD PTR [eax]
  006ba	89 4d a0	 mov	 DWORD PTR tv360[ebp], ecx
  006bd	eb 1d		 jmp	 SHORT $LN108@destroy_ke
$LN107@destroy_ke:
  006bf	68 01 04 00 00	 push	 1025			; 00000401H
  006c4	68 00 00 00 00	 push	 OFFSET ??_C@_0EN@PIOGLIPD@c?3?2users?2nhv90?2projects?2eech?2ap@
  006c9	8b 15 00 00 00
	00		 mov	 edx, DWORD PTR ?null_entity_pointer_message@@3PBDB ; null_entity_pointer_message
  006cf	52		 push	 edx
  006d0	e8 00 00 00 00	 call	 ?process_assert@@YGXPBD0H@Z ; process_assert
  006d5	c7 45 a0 00 00
	00 00		 mov	 DWORD PTR tv360[ebp], 0
$LN108@destroy_ke:
  006dc	b8 01 00 00 00	 mov	 eax, 1
  006e1	85 c0		 test	 eax, eax
  006e3	74 09		 je	 SHORT $LN109@destroy_ke
  006e5	c7 45 9c bb 00
	00 00		 mov	 DWORD PTR tv367[ebp], 187 ; 000000bbH
  006ec	eb 1d		 jmp	 SHORT $LN110@destroy_ke
$LN109@destroy_ke:
  006ee	68 01 04 00 00	 push	 1025			; 00000401H
  006f3	68 00 00 00 00	 push	 OFFSET ??_C@_0EN@PIOGLIPD@c?3?2users?2nhv90?2projects?2eech?2ap@
  006f8	8b 0d 00 00 00
	00		 mov	 ecx, DWORD PTR ?overload_invalid_int_type_message@@3PBDB ; overload_invalid_int_type_message
  006fe	51		 push	 ecx
  006ff	e8 00 00 00 00	 call	 ?process_assert@@YGXPBD0H@Z ; process_assert
  00704	c7 45 9c 00 00
	00 00		 mov	 DWORD PTR tv367[ebp], 0
$LN110@destroy_ke:
  0070b	68 bb 00 00 00	 push	 187			; 000000bbH
  00710	8b 55 f8	 mov	 edx, DWORD PTR _group$[ebp]
  00713	52		 push	 edx
  00714	69 45 a0 5c 04
	00 00		 imul	 eax, DWORD PTR tv360[ebp], 1116
  0071b	8b 4d 9c	 mov	 ecx, DWORD PTR tv367[ebp]
  0071e	8b 94 88 00 00
	00 00		 mov	 edx, DWORD PTR ?fn_get_local_entity_int_value@@3PAY0BBH@P6GHPAUENTITY@@W4INT_TYPES@@@ZA[eax+ecx*4]
  00725	ff d2		 call	 edx
  00727	3b 45 0c	 cmp	 eax, DWORD PTR _side$[ebp]
  0072a	0f 85 1c 02 00
	00		 jne	 $LN39@destroy_ke

; 1026 : 				{
; 1027 : 					if (get_local_group_primary_task (group))

  00730	8b 45 f8	 mov	 eax, DWORD PTR _group$[ebp]
  00733	50		 push	 eax
  00734	e8 00 00 00 00	 call	 ?get_local_group_primary_task@@YGPAUENTITY@@PAU1@@Z ; get_local_group_primary_task
  00739	85 c0		 test	 eax, eax
  0073b	74 05		 je	 SHORT $LN40@destroy_ke

; 1028 : 					{
; 1029 : 						//
; 1030 : 						// group is doing primary task - will sort itself out when it reaches land waypoint 
; 1031 : 						//
; 1032 : 					}
; 1033 : 					else

  0073d	e9 0a 02 00 00	 jmp	 $LN39@destroy_ke
$LN40@destroy_ke:

; 1034 : 					{
; 1035 : 						//
; 1036 : 						// group must be landing - create and assign emergency transfer task
; 1037 : 						//
; 1038 : 		
; 1039 : 						//
; 1040 : 						// but first, sort out landing locks
; 1041 : 						//
; 1042 : 						
; 1043 : 						member = get_local_entity_first_child (group, LIST_TYPE_MEMBER);

  00742	83 7d f8 00	 cmp	 DWORD PTR _group$[ebp], 0
  00746	74 0a		 je	 SHORT $LN111@destroy_ke
  00748	8b 45 f8	 mov	 eax, DWORD PTR _group$[ebp]
  0074b	8b 08		 mov	 ecx, DWORD PTR [eax]
  0074d	89 4d a0	 mov	 DWORD PTR tv383[ebp], ecx
  00750	eb 21		 jmp	 SHORT $LN112@destroy_ke
$LN111@destroy_ke:
  00752	8b 15 00 00 00
	00		 mov	 edx, DWORD PTR ?__LINE__Var@?0??destroy_keysite@@YGXPAUENTITY@@W4ENTITY_SIDES@@@Z@4JA
  00758	83 c2 63	 add	 edx, 99			; 00000063H
  0075b	52		 push	 edx
  0075c	68 00 00 00 00	 push	 OFFSET ??_C@_0EN@PIOGLIPD@c?3?2users?2nhv90?2projects?2eech?2ap@
  00761	a1 00 00 00 00	 mov	 eax, DWORD PTR ?null_entity_pointer_message@@3PBDB ; null_entity_pointer_message
  00766	50		 push	 eax
  00767	e8 00 00 00 00	 call	 ?process_assert@@YGXPBD0H@Z ; process_assert
  0076c	c7 45 a0 00 00
	00 00		 mov	 DWORD PTR tv383[ebp], 0
$LN112@destroy_ke:
  00773	b9 01 00 00 00	 mov	 ecx, 1
  00778	85 c9		 test	 ecx, ecx
  0077a	74 09		 je	 SHORT $LN113@destroy_ke
  0077c	c7 45 9c 19 00
	00 00		 mov	 DWORD PTR tv391[ebp], 25 ; 00000019H
  00783	eb 21		 jmp	 SHORT $LN114@destroy_ke
$LN113@destroy_ke:
  00785	8b 15 00 00 00
	00		 mov	 edx, DWORD PTR ?__LINE__Var@?0??destroy_keysite@@YGXPAUENTITY@@W4ENTITY_SIDES@@@Z@4JA
  0078b	83 c2 63	 add	 edx, 99			; 00000063H
  0078e	52		 push	 edx
  0078f	68 00 00 00 00	 push	 OFFSET ??_C@_0EN@PIOGLIPD@c?3?2users?2nhv90?2projects?2eech?2ap@
  00794	a1 00 00 00 00	 mov	 eax, DWORD PTR ?overload_invalid_list_type_message@@3PBDB ; overload_invalid_list_type_message
  00799	50		 push	 eax
  0079a	e8 00 00 00 00	 call	 ?process_assert@@YGXPBD0H@Z ; process_assert
  0079f	c7 45 9c 00 00
	00 00		 mov	 DWORD PTR tv391[ebp], 0
$LN114@destroy_ke:
  007a6	6a 19		 push	 25			; 00000019H
  007a8	8b 4d f8	 mov	 ecx, DWORD PTR _group$[ebp]
  007ab	51		 push	 ecx
  007ac	69 55 a0 b4 00
	00 00		 imul	 edx, DWORD PTR tv383[ebp], 180
  007b3	8b 45 9c	 mov	 eax, DWORD PTR tv391[ebp]
  007b6	8b 8c 82 00 00
	00 00		 mov	 ecx, DWORD PTR ?fn_get_local_entity_first_child@@3PAY0CN@P6GPAUENTITY@@PAU1@W4LIST_TYPES@@@ZA[edx+eax*4]
  007bd	ff d1		 call	 ecx
  007bf	89 45 f4	 mov	 DWORD PTR _member$[ebp], eax
$LN8@destroy_ke:

; 1044 : 				
; 1045 : 						while (member)

  007c2	83 7d f4 00	 cmp	 DWORD PTR _member$[ebp], 0
  007c6	0f 84 77 01 00
	00		 je	 $LN9@destroy_ke

; 1046 : 						{
; 1047 : 							task = get_local_entity_current_task (member);

  007cc	8b 45 f4	 mov	 eax, DWORD PTR _member$[ebp]
  007cf	50		 push	 eax
  007d0	e8 00 00 00 00	 call	 ?get_local_entity_current_task@@YGPAUENTITY@@PAU1@@Z ; get_local_entity_current_task
  007d5	89 45 fc	 mov	 DWORD PTR _task$[ebp], eax

; 1048 : 		
; 1049 : 							if (task)

  007d8	83 7d fc 00	 cmp	 DWORD PTR _task$[ebp], 0
  007dc	0f 84 d6 00 00
	00		 je	 $LN42@destroy_ke

; 1050 : 							{
; 1051 : 								switch (get_local_entity_int_value (task, INT_TYPE_ENTITY_SUB_TYPE))

  007e2	83 7d fc 00	 cmp	 DWORD PTR _task$[ebp], 0
  007e6	74 0a		 je	 SHORT $LN115@destroy_ke
  007e8	8b 45 fc	 mov	 eax, DWORD PTR _task$[ebp]
  007eb	8b 08		 mov	 ecx, DWORD PTR [eax]
  007ed	89 4d a0	 mov	 DWORD PTR tv406[ebp], ecx
  007f0	eb 1d		 jmp	 SHORT $LN116@destroy_ke
$LN115@destroy_ke:
  007f2	68 1b 04 00 00	 push	 1051			; 0000041bH
  007f7	68 00 00 00 00	 push	 OFFSET ??_C@_0EN@PIOGLIPD@c?3?2users?2nhv90?2projects?2eech?2ap@
  007fc	8b 15 00 00 00
	00		 mov	 edx, DWORD PTR ?null_entity_pointer_message@@3PBDB ; null_entity_pointer_message
  00802	52		 push	 edx
  00803	e8 00 00 00 00	 call	 ?process_assert@@YGXPBD0H@Z ; process_assert
  00808	c7 45 a0 00 00
	00 00		 mov	 DWORD PTR tv406[ebp], 0
$LN116@destroy_ke:
  0080f	b8 01 00 00 00	 mov	 eax, 1
  00814	85 c0		 test	 eax, eax
  00816	74 09		 je	 SHORT $LN117@destroy_ke
  00818	c7 45 9c 34 00
	00 00		 mov	 DWORD PTR tv413[ebp], 52 ; 00000034H
  0081f	eb 1d		 jmp	 SHORT $LN118@destroy_ke
$LN117@destroy_ke:
  00821	68 1b 04 00 00	 push	 1051			; 0000041bH
  00826	68 00 00 00 00	 push	 OFFSET ??_C@_0EN@PIOGLIPD@c?3?2users?2nhv90?2projects?2eech?2ap@
  0082b	8b 0d 00 00 00
	00		 mov	 ecx, DWORD PTR ?overload_invalid_int_type_message@@3PBDB ; overload_invalid_int_type_message
  00831	51		 push	 ecx
  00832	e8 00 00 00 00	 call	 ?process_assert@@YGXPBD0H@Z ; process_assert
  00837	c7 45 9c 00 00
	00 00		 mov	 DWORD PTR tv413[ebp], 0
$LN118@destroy_ke:
  0083e	6a 34		 push	 52			; 00000034H
  00840	8b 55 fc	 mov	 edx, DWORD PTR _task$[ebp]
  00843	52		 push	 edx
  00844	69 45 a0 5c 04
	00 00		 imul	 eax, DWORD PTR tv406[ebp], 1116
  0084b	8b 4d 9c	 mov	 ecx, DWORD PTR tv413[ebp]
  0084e	8b 94 88 00 00
	00 00		 mov	 edx, DWORD PTR ?fn_get_local_entity_int_value@@3PAY0BBH@P6GHPAUENTITY@@W4INT_TYPES@@@ZA[eax+ecx*4]
  00855	ff d2		 call	 edx
  00857	89 45 98	 mov	 DWORD PTR tv419[ebp], eax
  0085a	83 7d 98 0d	 cmp	 DWORD PTR tv419[ebp], 13 ; 0000000dH
  0085e	74 08		 je	 SHORT $LN43@destroy_ke
  00860	83 7d 98 0e	 cmp	 DWORD PTR tv419[ebp], 14 ; 0000000eH
  00864	74 34		 je	 SHORT $LN44@destroy_ke
  00866	eb 50		 jmp	 SHORT $LN42@destroy_ke
$LN43@destroy_ke:

; 1052 : 								{
; 1053 : 									case ENTITY_SUB_TYPE_TASK_LANDING:
; 1054 : 									{
; 1055 : 										//
; 1056 : 										// Landing task needs to free landing SITE and landing ROUTE
; 1057 : 										//
; 1058 : 										
; 1059 : 										landing = get_local_group_member_landing_entity_from_task (member);

  00868	8b 45 f4	 mov	 eax, DWORD PTR _member$[ebp]
  0086b	50		 push	 eax
  0086c	e8 00 00 00 00	 call	 ?get_local_group_member_landing_entity_from_task@@YGPAUENTITY@@PAU1@@Z ; get_local_group_member_landing_entity_from_task
  00871	89 45 f0	 mov	 DWORD PTR _landing$[ebp], eax

; 1060 : 								
; 1061 : 										notify_local_entity (ENTITY_MESSAGE_UNLOCK_LANDING_ROUTE, landing, member);

  00874	8b 45 f4	 mov	 eax, DWORD PTR _member$[ebp]
  00877	50		 push	 eax
  00878	8b 4d f0	 mov	 ecx, DWORD PTR _landing$[ebp]
  0087b	51		 push	 ecx
  0087c	6a 39		 push	 57			; 00000039H
  0087e	e8 00 00 00 00	 call	 ?notify_local_entity@@YAHW4ENTITY_MESSAGES@@PAUENTITY@@1ZZ ; notify_local_entity
  00883	83 c4 0c	 add	 esp, 12			; 0000000cH

; 1062 : 		
; 1063 : 										notify_local_entity (ENTITY_MESSAGE_UNLOCK_LANDING_SITE, landing, member);

  00886	8b 45 f4	 mov	 eax, DWORD PTR _member$[ebp]
  00889	50		 push	 eax
  0088a	8b 4d f0	 mov	 ecx, DWORD PTR _landing$[ebp]
  0088d	51		 push	 ecx
  0088e	6a 3a		 push	 58			; 0000003aH
  00890	e8 00 00 00 00	 call	 ?notify_local_entity@@YAHW4ENTITY_MESSAGES@@PAUENTITY@@1ZZ ; notify_local_entity
  00895	83 c4 0c	 add	 esp, 12			; 0000000cH

; 1064 : 		
; 1065 : 										break;

  00898	eb 1e		 jmp	 SHORT $LN42@destroy_ke
$LN44@destroy_ke:

; 1066 : 									}
; 1067 : 									case ENTITY_SUB_TYPE_TASK_LANDING_HOLDING:
; 1068 : 									{
; 1069 : 										//
; 1070 : 										// Landing-Holding task needs to free landing SITE only
; 1071 : 										//
; 1072 : 										
; 1073 : 										landing = get_local_group_member_landing_entity_from_task (member);

  0089a	8b 45 f4	 mov	 eax, DWORD PTR _member$[ebp]
  0089d	50		 push	 eax
  0089e	e8 00 00 00 00	 call	 ?get_local_group_member_landing_entity_from_task@@YGPAUENTITY@@PAU1@@Z ; get_local_group_member_landing_entity_from_task
  008a3	89 45 f0	 mov	 DWORD PTR _landing$[ebp], eax

; 1074 : 								
; 1075 : 										notify_local_entity (ENTITY_MESSAGE_UNLOCK_LANDING_SITE, landing, member);

  008a6	8b 45 f4	 mov	 eax, DWORD PTR _member$[ebp]
  008a9	50		 push	 eax
  008aa	8b 4d f0	 mov	 ecx, DWORD PTR _landing$[ebp]
  008ad	51		 push	 ecx
  008ae	6a 3a		 push	 58			; 0000003aH
  008b0	e8 00 00 00 00	 call	 ?notify_local_entity@@YAHW4ENTITY_MESSAGES@@PAUENTITY@@1ZZ ; notify_local_entity
  008b5	83 c4 0c	 add	 esp, 12			; 0000000cH
$LN42@destroy_ke:

; 1076 : 		
; 1077 : 										break;
; 1078 : 									}
; 1079 : 								}
; 1080 : 							}
; 1081 : 		
; 1082 : 							member = get_local_entity_child_succ (member, LIST_TYPE_MEMBER);

  008b8	83 7d f4 00	 cmp	 DWORD PTR _member$[ebp], 0
  008bc	74 0a		 je	 SHORT $LN119@destroy_ke
  008be	8b 45 f4	 mov	 eax, DWORD PTR _member$[ebp]
  008c1	8b 08		 mov	 ecx, DWORD PTR [eax]
  008c3	89 4d a0	 mov	 DWORD PTR tv441[ebp], ecx
  008c6	eb 24		 jmp	 SHORT $LN120@destroy_ke
$LN119@destroy_ke:
  008c8	8b 15 00 00 00
	00		 mov	 edx, DWORD PTR ?__LINE__Var@?0??destroy_keysite@@YGXPAUENTITY@@W4ENTITY_SIDES@@@Z@4JA
  008ce	81 c2 8a 00 00
	00		 add	 edx, 138		; 0000008aH
  008d4	52		 push	 edx
  008d5	68 00 00 00 00	 push	 OFFSET ??_C@_0EN@PIOGLIPD@c?3?2users?2nhv90?2projects?2eech?2ap@
  008da	a1 00 00 00 00	 mov	 eax, DWORD PTR ?null_entity_pointer_message@@3PBDB ; null_entity_pointer_message
  008df	50		 push	 eax
  008e0	e8 00 00 00 00	 call	 ?process_assert@@YGXPBD0H@Z ; process_assert
  008e5	c7 45 a0 00 00
	00 00		 mov	 DWORD PTR tv441[ebp], 0
$LN120@destroy_ke:
  008ec	b9 01 00 00 00	 mov	 ecx, 1
  008f1	85 c9		 test	 ecx, ecx
  008f3	74 09		 je	 SHORT $LN121@destroy_ke
  008f5	c7 45 9c 19 00
	00 00		 mov	 DWORD PTR tv449[ebp], 25 ; 00000019H
  008fc	eb 24		 jmp	 SHORT $LN122@destroy_ke
$LN121@destroy_ke:
  008fe	8b 15 00 00 00
	00		 mov	 edx, DWORD PTR ?__LINE__Var@?0??destroy_keysite@@YGXPAUENTITY@@W4ENTITY_SIDES@@@Z@4JA
  00904	81 c2 8a 00 00
	00		 add	 edx, 138		; 0000008aH
  0090a	52		 push	 edx
  0090b	68 00 00 00 00	 push	 OFFSET ??_C@_0EN@PIOGLIPD@c?3?2users?2nhv90?2projects?2eech?2ap@
  00910	a1 00 00 00 00	 mov	 eax, DWORD PTR ?overload_invalid_list_type_message@@3PBDB ; overload_invalid_list_type_message
  00915	50		 push	 eax
  00916	e8 00 00 00 00	 call	 ?process_assert@@YGXPBD0H@Z ; process_assert
  0091b	c7 45 9c 00 00
	00 00		 mov	 DWORD PTR tv449[ebp], 0
$LN122@destroy_ke:
  00922	6a 19		 push	 25			; 00000019H
  00924	8b 4d f4	 mov	 ecx, DWORD PTR _member$[ebp]
  00927	51		 push	 ecx
  00928	69 55 a0 b4 00
	00 00		 imul	 edx, DWORD PTR tv441[ebp], 180
  0092f	8b 45 9c	 mov	 eax, DWORD PTR tv449[ebp]
  00932	8b 8c 82 00 00
	00 00		 mov	 ecx, DWORD PTR ?fn_get_local_entity_child_succ@@3PAY0CN@P6GPAUENTITY@@PAU1@W4LIST_TYPES@@@ZA[edx+eax*4]
  00939	ff d1		 call	 ecx
  0093b	89 45 f4	 mov	 DWORD PTR _member$[ebp], eax

; 1083 : 						}

  0093e	e9 7f fe ff ff	 jmp	 $LN8@destroy_ke
$LN9@destroy_ke:

; 1084 : 		
; 1085 : 						create_group_emergency_transfer_task (group);

  00943	8b 45 f8	 mov	 eax, DWORD PTR _group$[ebp]
  00946	50		 push	 eax
  00947	e8 00 00 00 00	 call	 ?create_group_emergency_transfer_task@@YGHPAUENTITY@@@Z ; create_group_emergency_transfer_task
$LN39@destroy_ke:

; 1086 : 					}
; 1087 : 				}
; 1088 : 			}
; 1089 : 			else

  0094c	eb 09		 jmp	 SHORT $LN38@destroy_ke
$LN37@destroy_ke:

; 1090 : 			{
; 1091 : 				//
; 1092 : 				// Kill all other groups linked to keysite (e.g. people, or recently regen-ed tanks etc.)
; 1093 : 				//
; 1094 : 	
; 1095 : 				group_kill_all_members (group);

  0094e	8b 45 f8	 mov	 eax, DWORD PTR _group$[ebp]
  00951	50		 push	 eax
  00952	e8 00 00 00 00	 call	 ?group_kill_all_members@@YGXPAUENTITY@@@Z ; group_kill_all_members
$LN38@destroy_ke:

; 1096 : 			}
; 1097 : 			
; 1098 : 			group = next_group;

  00957	8b 45 e8	 mov	 eax, DWORD PTR _next_group$[ebp]
  0095a	89 45 f8	 mov	 DWORD PTR _group$[ebp], eax

; 1099 : 		}

  0095d	e9 46 fc ff ff	 jmp	 $LN6@destroy_ke
$LN7@destroy_ke:

; 1100 : 	}
; 1101 : 	else

  00962	e9 61 07 00 00	 jmp	 $LN32@destroy_ke
$LN31@destroy_ke:

; 1102 : 	{
; 1103 : 		//
; 1104 : 		// Destroy all aircraft landed at the keysite
; 1105 : 		//
; 1106 : 	
; 1107 : 		group = get_local_entity_first_child (en, LIST_TYPE_KEYSITE_GROUP);

  00967	83 7d 08 00	 cmp	 DWORD PTR _en$[ebp], 0
  0096b	74 0a		 je	 SHORT $LN123@destroy_ke
  0096d	8b 45 08	 mov	 eax, DWORD PTR _en$[ebp]
  00970	8b 08		 mov	 ecx, DWORD PTR [eax]
  00972	89 4d a0	 mov	 DWORD PTR tv463[ebp], ecx
  00975	eb 24		 jmp	 SHORT $LN124@destroy_ke
$LN123@destroy_ke:
  00977	8b 15 00 00 00
	00		 mov	 edx, DWORD PTR ?__LINE__Var@?0??destroy_keysite@@YGXPAUENTITY@@W4ENTITY_SIDES@@@Z@4JA
  0097d	81 c2 a3 00 00
	00		 add	 edx, 163		; 000000a3H
  00983	52		 push	 edx
  00984	68 00 00 00 00	 push	 OFFSET ??_C@_0EN@PIOGLIPD@c?3?2users?2nhv90?2projects?2eech?2ap@
  00989	a1 00 00 00 00	 mov	 eax, DWORD PTR ?null_entity_pointer_message@@3PBDB ; null_entity_pointer_message
  0098e	50		 push	 eax
  0098f	e8 00 00 00 00	 call	 ?process_assert@@YGXPBD0H@Z ; process_assert
  00994	c7 45 a0 00 00
	00 00		 mov	 DWORD PTR tv463[ebp], 0
$LN124@destroy_ke:
  0099b	b9 01 00 00 00	 mov	 ecx, 1
  009a0	85 c9		 test	 ecx, ecx
  009a2	74 09		 je	 SHORT $LN125@destroy_ke
  009a4	c7 45 9c 16 00
	00 00		 mov	 DWORD PTR tv471[ebp], 22 ; 00000016H
  009ab	eb 24		 jmp	 SHORT $LN126@destroy_ke
$LN125@destroy_ke:
  009ad	8b 15 00 00 00
	00		 mov	 edx, DWORD PTR ?__LINE__Var@?0??destroy_keysite@@YGXPAUENTITY@@W4ENTITY_SIDES@@@Z@4JA
  009b3	81 c2 a3 00 00
	00		 add	 edx, 163		; 000000a3H
  009b9	52		 push	 edx
  009ba	68 00 00 00 00	 push	 OFFSET ??_C@_0EN@PIOGLIPD@c?3?2users?2nhv90?2projects?2eech?2ap@
  009bf	a1 00 00 00 00	 mov	 eax, DWORD PTR ?overload_invalid_list_type_message@@3PBDB ; overload_invalid_list_type_message
  009c4	50		 push	 eax
  009c5	e8 00 00 00 00	 call	 ?process_assert@@YGXPBD0H@Z ; process_assert
  009ca	c7 45 9c 00 00
	00 00		 mov	 DWORD PTR tv471[ebp], 0
$LN126@destroy_ke:
  009d1	6a 16		 push	 22			; 00000016H
  009d3	8b 4d 08	 mov	 ecx, DWORD PTR _en$[ebp]
  009d6	51		 push	 ecx
  009d7	69 55 a0 b4 00
	00 00		 imul	 edx, DWORD PTR tv463[ebp], 180
  009de	8b 45 9c	 mov	 eax, DWORD PTR tv471[ebp]
  009e1	8b 8c 82 00 00
	00 00		 mov	 ecx, DWORD PTR ?fn_get_local_entity_first_child@@3PAY0CN@P6GPAUENTITY@@PAU1@W4LIST_TYPES@@@ZA[edx+eax*4]
  009e8	ff d1		 call	 ecx
  009ea	89 45 f8	 mov	 DWORD PTR _group$[ebp], eax
$LN12@destroy_ke:

; 1108 : 	
; 1109 : 		while (group)

  009ed	83 7d f8 00	 cmp	 DWORD PTR _group$[ebp], 0
  009f1	0f 84 06 03 00
	00		 je	 $LN13@destroy_ke

; 1110 : 		{
; 1111 : 			next_group = get_local_entity_child_succ (group, LIST_TYPE_KEYSITE_GROUP);

  009f7	83 7d f8 00	 cmp	 DWORD PTR _group$[ebp], 0
  009fb	74 0a		 je	 SHORT $LN127@destroy_ke
  009fd	8b 45 f8	 mov	 eax, DWORD PTR _group$[ebp]
  00a00	8b 08		 mov	 ecx, DWORD PTR [eax]
  00a02	89 4d a0	 mov	 DWORD PTR tv484[ebp], ecx
  00a05	eb 24		 jmp	 SHORT $LN128@destroy_ke
$LN127@destroy_ke:
  00a07	8b 15 00 00 00
	00		 mov	 edx, DWORD PTR ?__LINE__Var@?0??destroy_keysite@@YGXPAUENTITY@@W4ENTITY_SIDES@@@Z@4JA
  00a0d	81 c2 a7 00 00
	00		 add	 edx, 167		; 000000a7H
  00a13	52		 push	 edx
  00a14	68 00 00 00 00	 push	 OFFSET ??_C@_0EN@PIOGLIPD@c?3?2users?2nhv90?2projects?2eech?2ap@
  00a19	a1 00 00 00 00	 mov	 eax, DWORD PTR ?null_entity_pointer_message@@3PBDB ; null_entity_pointer_message
  00a1e	50		 push	 eax
  00a1f	e8 00 00 00 00	 call	 ?process_assert@@YGXPBD0H@Z ; process_assert
  00a24	c7 45 a0 00 00
	00 00		 mov	 DWORD PTR tv484[ebp], 0
$LN128@destroy_ke:
  00a2b	b9 01 00 00 00	 mov	 ecx, 1
  00a30	85 c9		 test	 ecx, ecx
  00a32	74 09		 je	 SHORT $LN129@destroy_ke
  00a34	c7 45 9c 16 00
	00 00		 mov	 DWORD PTR tv492[ebp], 22 ; 00000016H
  00a3b	eb 24		 jmp	 SHORT $LN130@destroy_ke
$LN129@destroy_ke:
  00a3d	8b 15 00 00 00
	00		 mov	 edx, DWORD PTR ?__LINE__Var@?0??destroy_keysite@@YGXPAUENTITY@@W4ENTITY_SIDES@@@Z@4JA
  00a43	81 c2 a7 00 00
	00		 add	 edx, 167		; 000000a7H
  00a49	52		 push	 edx
  00a4a	68 00 00 00 00	 push	 OFFSET ??_C@_0EN@PIOGLIPD@c?3?2users?2nhv90?2projects?2eech?2ap@
  00a4f	a1 00 00 00 00	 mov	 eax, DWORD PTR ?overload_invalid_list_type_message@@3PBDB ; overload_invalid_list_type_message
  00a54	50		 push	 eax
  00a55	e8 00 00 00 00	 call	 ?process_assert@@YGXPBD0H@Z ; process_assert
  00a5a	c7 45 9c 00 00
	00 00		 mov	 DWORD PTR tv492[ebp], 0
$LN130@destroy_ke:
  00a61	6a 16		 push	 22			; 00000016H
  00a63	8b 4d f8	 mov	 ecx, DWORD PTR _group$[ebp]
  00a66	51		 push	 ecx
  00a67	69 55 a0 b4 00
	00 00		 imul	 edx, DWORD PTR tv484[ebp], 180
  00a6e	8b 45 9c	 mov	 eax, DWORD PTR tv492[ebp]
  00a71	8b 8c 82 00 00
	00 00		 mov	 ecx, DWORD PTR ?fn_get_local_entity_child_succ@@3PAY0CN@P6GPAUENTITY@@PAU1@W4LIST_TYPES@@@ZA[edx+eax*4]
  00a78	ff d1		 call	 ecx
  00a7a	89 45 e8	 mov	 DWORD PTR _next_group$[ebp], eax

; 1112 : 	
; 1113 : 			if (get_local_entity_int_value (group, INT_TYPE_AIRCRAFT_GROUP))

  00a7d	83 7d f8 00	 cmp	 DWORD PTR _group$[ebp], 0
  00a81	74 0a		 je	 SHORT $LN131@destroy_ke
  00a83	8b 45 f8	 mov	 eax, DWORD PTR _group$[ebp]
  00a86	8b 08		 mov	 ecx, DWORD PTR [eax]
  00a88	89 4d a0	 mov	 DWORD PTR tv503[ebp], ecx
  00a8b	eb 1d		 jmp	 SHORT $LN132@destroy_ke
$LN131@destroy_ke:
  00a8d	68 59 04 00 00	 push	 1113			; 00000459H
  00a92	68 00 00 00 00	 push	 OFFSET ??_C@_0EN@PIOGLIPD@c?3?2users?2nhv90?2projects?2eech?2ap@
  00a97	8b 15 00 00 00
	00		 mov	 edx, DWORD PTR ?null_entity_pointer_message@@3PBDB ; null_entity_pointer_message
  00a9d	52		 push	 edx
  00a9e	e8 00 00 00 00	 call	 ?process_assert@@YGXPBD0H@Z ; process_assert
  00aa3	c7 45 a0 00 00
	00 00		 mov	 DWORD PTR tv503[ebp], 0
$LN132@destroy_ke:
  00aaa	b8 01 00 00 00	 mov	 eax, 1
  00aaf	85 c0		 test	 eax, eax
  00ab1	74 09		 je	 SHORT $LN133@destroy_ke
  00ab3	c7 45 9c 05 00
	00 00		 mov	 DWORD PTR tv510[ebp], 5
  00aba	eb 1d		 jmp	 SHORT $LN134@destroy_ke
$LN133@destroy_ke:
  00abc	68 59 04 00 00	 push	 1113			; 00000459H
  00ac1	68 00 00 00 00	 push	 OFFSET ??_C@_0EN@PIOGLIPD@c?3?2users?2nhv90?2projects?2eech?2ap@
  00ac6	8b 0d 00 00 00
	00		 mov	 ecx, DWORD PTR ?overload_invalid_int_type_message@@3PBDB ; overload_invalid_int_type_message
  00acc	51		 push	 ecx
  00acd	e8 00 00 00 00	 call	 ?process_assert@@YGXPBD0H@Z ; process_assert
  00ad2	c7 45 9c 00 00
	00 00		 mov	 DWORD PTR tv510[ebp], 0
$LN134@destroy_ke:
  00ad9	6a 05		 push	 5
  00adb	8b 55 f8	 mov	 edx, DWORD PTR _group$[ebp]
  00ade	52		 push	 edx
  00adf	69 45 a0 5c 04
	00 00		 imul	 eax, DWORD PTR tv503[ebp], 1116
  00ae6	8b 4d 9c	 mov	 ecx, DWORD PTR tv510[ebp]
  00ae9	8b 94 88 00 00
	00 00		 mov	 edx, DWORD PTR ?fn_get_local_entity_int_value@@3PAY0BBH@P6GHPAUENTITY@@W4INT_TYPES@@@ZA[eax+ecx*4]
  00af0	ff d2		 call	 edx
  00af2	85 c0		 test	 eax, eax
  00af4	0f 84 f8 01 00
	00		 je	 $LN45@destroy_ke

; 1114 : 			{
; 1115 : 				if (!get_local_group_primary_task (group))

  00afa	8b 45 f8	 mov	 eax, DWORD PTR _group$[ebp]
  00afd	50		 push	 eax
  00afe	e8 00 00 00 00	 call	 ?get_local_group_primary_task@@YGPAUENTITY@@PAU1@@Z ; get_local_group_primary_task
  00b03	85 c0		 test	 eax, eax
  00b05	0f 85 e7 01 00
	00		 jne	 $LN45@destroy_ke

; 1116 : 				{
; 1117 : 					//
; 1118 : 					// check primary task so we don't destroy aircraft taxiing at another keysite before doing a task which will bring them to the captured keysite
; 1119 : 					// also has the side effect of allowing any aircraft at the captured keysite to continue taking off.
; 1120 : 					//
; 1121 : 					
; 1122 : 					member = get_local_entity_first_child (group, LIST_TYPE_MEMBER);

  00b0b	83 7d f8 00	 cmp	 DWORD PTR _group$[ebp], 0
  00b0f	74 0a		 je	 SHORT $LN135@destroy_ke
  00b11	8b 45 f8	 mov	 eax, DWORD PTR _group$[ebp]
  00b14	8b 08		 mov	 ecx, DWORD PTR [eax]
  00b16	89 4d a0	 mov	 DWORD PTR tv526[ebp], ecx
  00b19	eb 24		 jmp	 SHORT $LN136@destroy_ke
$LN135@destroy_ke:
  00b1b	8b 15 00 00 00
	00		 mov	 edx, DWORD PTR ?__LINE__Var@?0??destroy_keysite@@YGXPAUENTITY@@W4ENTITY_SIDES@@@Z@4JA
  00b21	81 c2 b2 00 00
	00		 add	 edx, 178		; 000000b2H
  00b27	52		 push	 edx
  00b28	68 00 00 00 00	 push	 OFFSET ??_C@_0EN@PIOGLIPD@c?3?2users?2nhv90?2projects?2eech?2ap@
  00b2d	a1 00 00 00 00	 mov	 eax, DWORD PTR ?null_entity_pointer_message@@3PBDB ; null_entity_pointer_message
  00b32	50		 push	 eax
  00b33	e8 00 00 00 00	 call	 ?process_assert@@YGXPBD0H@Z ; process_assert
  00b38	c7 45 a0 00 00
	00 00		 mov	 DWORD PTR tv526[ebp], 0
$LN136@destroy_ke:
  00b3f	b9 01 00 00 00	 mov	 ecx, 1
  00b44	85 c9		 test	 ecx, ecx
  00b46	74 09		 je	 SHORT $LN137@destroy_ke
  00b48	c7 45 9c 19 00
	00 00		 mov	 DWORD PTR tv534[ebp], 25 ; 00000019H
  00b4f	eb 24		 jmp	 SHORT $LN138@destroy_ke
$LN137@destroy_ke:
  00b51	8b 15 00 00 00
	00		 mov	 edx, DWORD PTR ?__LINE__Var@?0??destroy_keysite@@YGXPAUENTITY@@W4ENTITY_SIDES@@@Z@4JA
  00b57	81 c2 b2 00 00
	00		 add	 edx, 178		; 000000b2H
  00b5d	52		 push	 edx
  00b5e	68 00 00 00 00	 push	 OFFSET ??_C@_0EN@PIOGLIPD@c?3?2users?2nhv90?2projects?2eech?2ap@
  00b63	a1 00 00 00 00	 mov	 eax, DWORD PTR ?overload_invalid_list_type_message@@3PBDB ; overload_invalid_list_type_message
  00b68	50		 push	 eax
  00b69	e8 00 00 00 00	 call	 ?process_assert@@YGXPBD0H@Z ; process_assert
  00b6e	c7 45 9c 00 00
	00 00		 mov	 DWORD PTR tv534[ebp], 0
$LN138@destroy_ke:
  00b75	6a 19		 push	 25			; 00000019H
  00b77	8b 4d f8	 mov	 ecx, DWORD PTR _group$[ebp]
  00b7a	51		 push	 ecx
  00b7b	69 55 a0 b4 00
	00 00		 imul	 edx, DWORD PTR tv526[ebp], 180
  00b82	8b 45 9c	 mov	 eax, DWORD PTR tv534[ebp]
  00b85	8b 8c 82 00 00
	00 00		 mov	 ecx, DWORD PTR ?fn_get_local_entity_first_child@@3PAY0CN@P6GPAUENTITY@@PAU1@W4LIST_TYPES@@@ZA[edx+eax*4]
  00b8c	ff d1		 call	 ecx
  00b8e	89 45 f4	 mov	 DWORD PTR _member$[ebp], eax
$LN14@destroy_ke:

; 1123 : 			
; 1124 : 					while (member)

  00b91	83 7d f4 00	 cmp	 DWORD PTR _member$[ebp], 0
  00b95	0f 84 57 01 00
	00		 je	 $LN45@destroy_ke

; 1125 : 					{
; 1126 : 						next = get_local_entity_child_succ (member, LIST_TYPE_MEMBER);

  00b9b	83 7d f4 00	 cmp	 DWORD PTR _member$[ebp], 0
  00b9f	74 0a		 je	 SHORT $LN139@destroy_ke
  00ba1	8b 45 f4	 mov	 eax, DWORD PTR _member$[ebp]
  00ba4	8b 08		 mov	 ecx, DWORD PTR [eax]
  00ba6	89 4d a0	 mov	 DWORD PTR tv547[ebp], ecx
  00ba9	eb 24		 jmp	 SHORT $LN140@destroy_ke
$LN139@destroy_ke:
  00bab	8b 15 00 00 00
	00		 mov	 edx, DWORD PTR ?__LINE__Var@?0??destroy_keysite@@YGXPAUENTITY@@W4ENTITY_SIDES@@@Z@4JA
  00bb1	81 c2 b6 00 00
	00		 add	 edx, 182		; 000000b6H
  00bb7	52		 push	 edx
  00bb8	68 00 00 00 00	 push	 OFFSET ??_C@_0EN@PIOGLIPD@c?3?2users?2nhv90?2projects?2eech?2ap@
  00bbd	a1 00 00 00 00	 mov	 eax, DWORD PTR ?null_entity_pointer_message@@3PBDB ; null_entity_pointer_message
  00bc2	50		 push	 eax
  00bc3	e8 00 00 00 00	 call	 ?process_assert@@YGXPBD0H@Z ; process_assert
  00bc8	c7 45 a0 00 00
	00 00		 mov	 DWORD PTR tv547[ebp], 0
$LN140@destroy_ke:
  00bcf	b9 01 00 00 00	 mov	 ecx, 1
  00bd4	85 c9		 test	 ecx, ecx
  00bd6	74 09		 je	 SHORT $LN141@destroy_ke
  00bd8	c7 45 9c 19 00
	00 00		 mov	 DWORD PTR tv555[ebp], 25 ; 00000019H
  00bdf	eb 24		 jmp	 SHORT $LN142@destroy_ke
$LN141@destroy_ke:
  00be1	8b 15 00 00 00
	00		 mov	 edx, DWORD PTR ?__LINE__Var@?0??destroy_keysite@@YGXPAUENTITY@@W4ENTITY_SIDES@@@Z@4JA
  00be7	81 c2 b6 00 00
	00		 add	 edx, 182		; 000000b6H
  00bed	52		 push	 edx
  00bee	68 00 00 00 00	 push	 OFFSET ??_C@_0EN@PIOGLIPD@c?3?2users?2nhv90?2projects?2eech?2ap@
  00bf3	a1 00 00 00 00	 mov	 eax, DWORD PTR ?overload_invalid_list_type_message@@3PBDB ; overload_invalid_list_type_message
  00bf8	50		 push	 eax
  00bf9	e8 00 00 00 00	 call	 ?process_assert@@YGXPBD0H@Z ; process_assert
  00bfe	c7 45 9c 00 00
	00 00		 mov	 DWORD PTR tv555[ebp], 0
$LN142@destroy_ke:
  00c05	6a 19		 push	 25			; 00000019H
  00c07	8b 4d f4	 mov	 ecx, DWORD PTR _member$[ebp]
  00c0a	51		 push	 ecx
  00c0b	69 55 a0 b4 00
	00 00		 imul	 edx, DWORD PTR tv547[ebp], 180
  00c12	8b 45 9c	 mov	 eax, DWORD PTR tv555[ebp]
  00c15	8b 8c 82 00 00
	00 00		 mov	 ecx, DWORD PTR ?fn_get_local_entity_child_succ@@3PAY0CN@P6GPAUENTITY@@PAU1@W4LIST_TYPES@@@ZA[edx+eax*4]
  00c1c	ff d1		 call	 ecx
  00c1e	89 45 ec	 mov	 DWORD PTR _next$[ebp], eax

; 1127 : 			
; 1128 : 						if (!get_local_entity_int_value (member, INT_TYPE_AIRBORNE_AIRCRAFT))

  00c21	83 7d f4 00	 cmp	 DWORD PTR _member$[ebp], 0
  00c25	74 0a		 je	 SHORT $LN143@destroy_ke
  00c27	8b 45 f4	 mov	 eax, DWORD PTR _member$[ebp]
  00c2a	8b 08		 mov	 ecx, DWORD PTR [eax]
  00c2c	89 4d a0	 mov	 DWORD PTR tv566[ebp], ecx
  00c2f	eb 1d		 jmp	 SHORT $LN144@destroy_ke
$LN143@destroy_ke:
  00c31	68 68 04 00 00	 push	 1128			; 00000468H
  00c36	68 00 00 00 00	 push	 OFFSET ??_C@_0EN@PIOGLIPD@c?3?2users?2nhv90?2projects?2eech?2ap@
  00c3b	8b 15 00 00 00
	00		 mov	 edx, DWORD PTR ?null_entity_pointer_message@@3PBDB ; null_entity_pointer_message
  00c41	52		 push	 edx
  00c42	e8 00 00 00 00	 call	 ?process_assert@@YGXPBD0H@Z ; process_assert
  00c47	c7 45 a0 00 00
	00 00		 mov	 DWORD PTR tv566[ebp], 0
$LN144@destroy_ke:
  00c4e	b8 01 00 00 00	 mov	 eax, 1
  00c53	85 c0		 test	 eax, eax
  00c55	74 09		 je	 SHORT $LN145@destroy_ke
  00c57	c7 45 9c 04 00
	00 00		 mov	 DWORD PTR tv573[ebp], 4
  00c5e	eb 1d		 jmp	 SHORT $LN146@destroy_ke
$LN145@destroy_ke:
  00c60	68 68 04 00 00	 push	 1128			; 00000468H
  00c65	68 00 00 00 00	 push	 OFFSET ??_C@_0EN@PIOGLIPD@c?3?2users?2nhv90?2projects?2eech?2ap@
  00c6a	8b 0d 00 00 00
	00		 mov	 ecx, DWORD PTR ?overload_invalid_int_type_message@@3PBDB ; overload_invalid_int_type_message
  00c70	51		 push	 ecx
  00c71	e8 00 00 00 00	 call	 ?process_assert@@YGXPBD0H@Z ; process_assert
  00c76	c7 45 9c 00 00
	00 00		 mov	 DWORD PTR tv573[ebp], 0
$LN146@destroy_ke:
  00c7d	6a 04		 push	 4
  00c7f	8b 55 f4	 mov	 edx, DWORD PTR _member$[ebp]
  00c82	52		 push	 edx
  00c83	69 45 a0 5c 04
	00 00		 imul	 eax, DWORD PTR tv566[ebp], 1116
  00c8a	8b 4d 9c	 mov	 ecx, DWORD PTR tv573[ebp]
  00c8d	8b 94 88 00 00
	00 00		 mov	 edx, DWORD PTR ?fn_get_local_entity_int_value@@3PAY0BBH@P6GHPAUENTITY@@W4INT_TYPES@@@ZA[eax+ecx*4]
  00c94	ff d2		 call	 edx
  00c96	85 c0		 test	 eax, eax
  00c98	75 4d		 jne	 SHORT $LN47@destroy_ke

; 1129 : 						{
; 1130 : 							kill_client_server_entity (member);

  00c9a	83 7d f4 00	 cmp	 DWORD PTR _member$[ebp], 0
  00c9e	74 0a		 je	 SHORT $LN147@destroy_ke
  00ca0	8b 45 f4	 mov	 eax, DWORD PTR _member$[ebp]
  00ca3	8b 08		 mov	 ecx, DWORD PTR [eax]
  00ca5	89 4d a0	 mov	 DWORD PTR tv586[ebp], ecx
  00ca8	eb 24		 jmp	 SHORT $LN148@destroy_ke
$LN147@destroy_ke:
  00caa	8b 15 00 00 00
	00		 mov	 edx, DWORD PTR ?__LINE__Var@?0??destroy_keysite@@YGXPAUENTITY@@W4ENTITY_SIDES@@@Z@4JA
  00cb0	81 c2 ba 00 00
	00		 add	 edx, 186		; 000000baH
  00cb6	52		 push	 edx
  00cb7	68 00 00 00 00	 push	 OFFSET ??_C@_0EN@PIOGLIPD@c?3?2users?2nhv90?2projects?2eech?2ap@
  00cbc	a1 00 00 00 00	 mov	 eax, DWORD PTR ?null_entity_pointer_message@@3PBDB ; null_entity_pointer_message
  00cc1	50		 push	 eax
  00cc2	e8 00 00 00 00	 call	 ?process_assert@@YGXPBD0H@Z ; process_assert
  00cc7	c7 45 a0 00 00
	00 00		 mov	 DWORD PTR tv586[ebp], 0
$LN148@destroy_ke:
  00cce	8b 4d f4	 mov	 ecx, DWORD PTR _member$[ebp]
  00cd1	51		 push	 ecx
  00cd2	8b 15 00 00 00
	00		 mov	 edx, DWORD PTR ?system_comms_model@@3W4COMMS_MODEL_TYPES@@A ; system_comms_model
  00cd8	c1 e2 02	 shl	 edx, 2
  00cdb	8b 45 a0	 mov	 eax, DWORD PTR tv586[ebp]
  00cde	8b 8c c2 00 00
	00 00		 mov	 ecx, DWORD PTR ?fn_kill_client_server_entity@@3PAY01P6GXPAUENTITY@@@ZA[edx+eax*8]
  00ce5	ff d1		 call	 ecx
$LN47@destroy_ke:

; 1131 : 						}
; 1132 : 			
; 1133 : 						member = next;

  00ce7	8b 45 ec	 mov	 eax, DWORD PTR _next$[ebp]
  00cea	89 45 f4	 mov	 DWORD PTR _member$[ebp], eax

; 1134 : 					}

  00ced	e9 9f fe ff ff	 jmp	 $LN14@destroy_ke
$LN45@destroy_ke:

; 1135 : 				}
; 1136 : 			}
; 1137 : 			
; 1138 : 			group = next_group;

  00cf2	8b 45 e8	 mov	 eax, DWORD PTR _next_group$[ebp]
  00cf5	89 45 f8	 mov	 DWORD PTR _group$[ebp], eax

; 1139 : 		}

  00cf8	e9 f0 fc ff ff	 jmp	 $LN12@destroy_ke
$LN13@destroy_ke:

; 1140 : 	
; 1141 : 		//
; 1142 : 		// Redirect incoming aircraft to new keysite
; 1143 : 		//
; 1144 : 	
; 1145 : 		group = get_local_entity_first_child (en, LIST_TYPE_KEYSITE_GROUP);

  00cfd	83 7d 08 00	 cmp	 DWORD PTR _en$[ebp], 0
  00d01	74 0a		 je	 SHORT $LN149@destroy_ke
  00d03	8b 45 08	 mov	 eax, DWORD PTR _en$[ebp]
  00d06	8b 08		 mov	 ecx, DWORD PTR [eax]
  00d08	89 4d a0	 mov	 DWORD PTR tv598[ebp], ecx
  00d0b	eb 24		 jmp	 SHORT $LN150@destroy_ke
$LN149@destroy_ke:
  00d0d	8b 15 00 00 00
	00		 mov	 edx, DWORD PTR ?__LINE__Var@?0??destroy_keysite@@YGXPAUENTITY@@W4ENTITY_SIDES@@@Z@4JA
  00d13	81 c2 c9 00 00
	00		 add	 edx, 201		; 000000c9H
  00d19	52		 push	 edx
  00d1a	68 00 00 00 00	 push	 OFFSET ??_C@_0EN@PIOGLIPD@c?3?2users?2nhv90?2projects?2eech?2ap@
  00d1f	a1 00 00 00 00	 mov	 eax, DWORD PTR ?null_entity_pointer_message@@3PBDB ; null_entity_pointer_message
  00d24	50		 push	 eax
  00d25	e8 00 00 00 00	 call	 ?process_assert@@YGXPBD0H@Z ; process_assert
  00d2a	c7 45 a0 00 00
	00 00		 mov	 DWORD PTR tv598[ebp], 0
$LN150@destroy_ke:
  00d31	b9 01 00 00 00	 mov	 ecx, 1
  00d36	85 c9		 test	 ecx, ecx
  00d38	74 09		 je	 SHORT $LN151@destroy_ke
  00d3a	c7 45 9c 16 00
	00 00		 mov	 DWORD PTR tv606[ebp], 22 ; 00000016H
  00d41	eb 24		 jmp	 SHORT $LN152@destroy_ke
$LN151@destroy_ke:
  00d43	8b 15 00 00 00
	00		 mov	 edx, DWORD PTR ?__LINE__Var@?0??destroy_keysite@@YGXPAUENTITY@@W4ENTITY_SIDES@@@Z@4JA
  00d49	81 c2 c9 00 00
	00		 add	 edx, 201		; 000000c9H
  00d4f	52		 push	 edx
  00d50	68 00 00 00 00	 push	 OFFSET ??_C@_0EN@PIOGLIPD@c?3?2users?2nhv90?2projects?2eech?2ap@
  00d55	a1 00 00 00 00	 mov	 eax, DWORD PTR ?overload_invalid_list_type_message@@3PBDB ; overload_invalid_list_type_message
  00d5a	50		 push	 eax
  00d5b	e8 00 00 00 00	 call	 ?process_assert@@YGXPBD0H@Z ; process_assert
  00d60	c7 45 9c 00 00
	00 00		 mov	 DWORD PTR tv606[ebp], 0
$LN152@destroy_ke:
  00d67	6a 16		 push	 22			; 00000016H
  00d69	8b 4d 08	 mov	 ecx, DWORD PTR _en$[ebp]
  00d6c	51		 push	 ecx
  00d6d	69 55 a0 b4 00
	00 00		 imul	 edx, DWORD PTR tv598[ebp], 180
  00d74	8b 45 9c	 mov	 eax, DWORD PTR tv606[ebp]
  00d77	8b 8c 82 00 00
	00 00		 mov	 ecx, DWORD PTR ?fn_get_local_entity_first_child@@3PAY0CN@P6GPAUENTITY@@PAU1@W4LIST_TYPES@@@ZA[edx+eax*4]
  00d7e	ff d1		 call	 ecx
  00d80	89 45 f8	 mov	 DWORD PTR _group$[ebp], eax
$LN16@destroy_ke:

; 1146 : 	
; 1147 : 		while (group)

  00d83	83 7d f8 00	 cmp	 DWORD PTR _group$[ebp], 0
  00d87	0f 84 3b 03 00
	00		 je	 $LN32@destroy_ke

; 1148 : 		{
; 1149 : 			next_group = get_local_entity_child_succ (group, LIST_TYPE_KEYSITE_GROUP);

  00d8d	83 7d f8 00	 cmp	 DWORD PTR _group$[ebp], 0
  00d91	74 0a		 je	 SHORT $LN153@destroy_ke
  00d93	8b 45 f8	 mov	 eax, DWORD PTR _group$[ebp]
  00d96	8b 08		 mov	 ecx, DWORD PTR [eax]
  00d98	89 4d a0	 mov	 DWORD PTR tv619[ebp], ecx
  00d9b	eb 24		 jmp	 SHORT $LN154@destroy_ke
$LN153@destroy_ke:
  00d9d	8b 15 00 00 00
	00		 mov	 edx, DWORD PTR ?__LINE__Var@?0??destroy_keysite@@YGXPAUENTITY@@W4ENTITY_SIDES@@@Z@4JA
  00da3	81 c2 cd 00 00
	00		 add	 edx, 205		; 000000cdH
  00da9	52		 push	 edx
  00daa	68 00 00 00 00	 push	 OFFSET ??_C@_0EN@PIOGLIPD@c?3?2users?2nhv90?2projects?2eech?2ap@
  00daf	a1 00 00 00 00	 mov	 eax, DWORD PTR ?null_entity_pointer_message@@3PBDB ; null_entity_pointer_message
  00db4	50		 push	 eax
  00db5	e8 00 00 00 00	 call	 ?process_assert@@YGXPBD0H@Z ; process_assert
  00dba	c7 45 a0 00 00
	00 00		 mov	 DWORD PTR tv619[ebp], 0
$LN154@destroy_ke:
  00dc1	b9 01 00 00 00	 mov	 ecx, 1
  00dc6	85 c9		 test	 ecx, ecx
  00dc8	74 09		 je	 SHORT $LN155@destroy_ke
  00dca	c7 45 9c 16 00
	00 00		 mov	 DWORD PTR tv627[ebp], 22 ; 00000016H
  00dd1	eb 24		 jmp	 SHORT $LN156@destroy_ke
$LN155@destroy_ke:
  00dd3	8b 15 00 00 00
	00		 mov	 edx, DWORD PTR ?__LINE__Var@?0??destroy_keysite@@YGXPAUENTITY@@W4ENTITY_SIDES@@@Z@4JA
  00dd9	81 c2 cd 00 00
	00		 add	 edx, 205		; 000000cdH
  00ddf	52		 push	 edx
  00de0	68 00 00 00 00	 push	 OFFSET ??_C@_0EN@PIOGLIPD@c?3?2users?2nhv90?2projects?2eech?2ap@
  00de5	a1 00 00 00 00	 mov	 eax, DWORD PTR ?overload_invalid_list_type_message@@3PBDB ; overload_invalid_list_type_message
  00dea	50		 push	 eax
  00deb	e8 00 00 00 00	 call	 ?process_assert@@YGXPBD0H@Z ; process_assert
  00df0	c7 45 9c 00 00
	00 00		 mov	 DWORD PTR tv627[ebp], 0
$LN156@destroy_ke:
  00df7	6a 16		 push	 22			; 00000016H
  00df9	8b 4d f8	 mov	 ecx, DWORD PTR _group$[ebp]
  00dfc	51		 push	 ecx
  00dfd	69 55 a0 b4 00
	00 00		 imul	 edx, DWORD PTR tv619[ebp], 180
  00e04	8b 45 9c	 mov	 eax, DWORD PTR tv627[ebp]
  00e07	8b 8c 82 00 00
	00 00		 mov	 ecx, DWORD PTR ?fn_get_local_entity_child_succ@@3PAY0CN@P6GPAUENTITY@@PAU1@W4LIST_TYPES@@@ZA[edx+eax*4]
  00e0e	ff d1		 call	 ecx
  00e10	89 45 e8	 mov	 DWORD PTR _next_group$[ebp], eax

; 1150 : 	
; 1151 : 			if (get_local_entity_int_value (group, INT_TYPE_AIRCRAFT_GROUP))

  00e13	83 7d f8 00	 cmp	 DWORD PTR _group$[ebp], 0
  00e17	74 0a		 je	 SHORT $LN157@destroy_ke
  00e19	8b 45 f8	 mov	 eax, DWORD PTR _group$[ebp]
  00e1c	8b 08		 mov	 ecx, DWORD PTR [eax]
  00e1e	89 4d a0	 mov	 DWORD PTR tv638[ebp], ecx
  00e21	eb 1d		 jmp	 SHORT $LN158@destroy_ke
$LN157@destroy_ke:
  00e23	68 7f 04 00 00	 push	 1151			; 0000047fH
  00e28	68 00 00 00 00	 push	 OFFSET ??_C@_0EN@PIOGLIPD@c?3?2users?2nhv90?2projects?2eech?2ap@
  00e2d	8b 15 00 00 00
	00		 mov	 edx, DWORD PTR ?null_entity_pointer_message@@3PBDB ; null_entity_pointer_message
  00e33	52		 push	 edx
  00e34	e8 00 00 00 00	 call	 ?process_assert@@YGXPBD0H@Z ; process_assert
  00e39	c7 45 a0 00 00
	00 00		 mov	 DWORD PTR tv638[ebp], 0
$LN158@destroy_ke:
  00e40	b8 01 00 00 00	 mov	 eax, 1
  00e45	85 c0		 test	 eax, eax
  00e47	74 09		 je	 SHORT $LN159@destroy_ke
  00e49	c7 45 9c 05 00
	00 00		 mov	 DWORD PTR tv645[ebp], 5
  00e50	eb 1d		 jmp	 SHORT $LN160@destroy_ke
$LN159@destroy_ke:
  00e52	68 7f 04 00 00	 push	 1151			; 0000047fH
  00e57	68 00 00 00 00	 push	 OFFSET ??_C@_0EN@PIOGLIPD@c?3?2users?2nhv90?2projects?2eech?2ap@
  00e5c	8b 0d 00 00 00
	00		 mov	 ecx, DWORD PTR ?overload_invalid_int_type_message@@3PBDB ; overload_invalid_int_type_message
  00e62	51		 push	 ecx
  00e63	e8 00 00 00 00	 call	 ?process_assert@@YGXPBD0H@Z ; process_assert
  00e68	c7 45 9c 00 00
	00 00		 mov	 DWORD PTR tv645[ebp], 0
$LN160@destroy_ke:
  00e6f	6a 05		 push	 5
  00e71	8b 55 f8	 mov	 edx, DWORD PTR _group$[ebp]
  00e74	52		 push	 edx
  00e75	69 45 a0 5c 04
	00 00		 imul	 eax, DWORD PTR tv638[ebp], 1116
  00e7c	8b 4d 9c	 mov	 ecx, DWORD PTR tv645[ebp]
  00e7f	8b 94 88 00 00
	00 00		 mov	 edx, DWORD PTR ?fn_get_local_entity_int_value@@3PAY0BBH@P6GHPAUENTITY@@W4INT_TYPES@@@ZA[eax+ecx*4]
  00e86	ff d2		 call	 edx
  00e88	85 c0		 test	 eax, eax
  00e8a	0f 84 24 02 00
	00		 je	 $LN48@destroy_ke

; 1152 : 			{
; 1153 : 				if (get_local_group_primary_task (group))

  00e90	8b 45 f8	 mov	 eax, DWORD PTR _group$[ebp]
  00e93	50		 push	 eax
  00e94	e8 00 00 00 00	 call	 ?get_local_group_primary_task@@YGPAUENTITY@@PAU1@@Z ; get_local_group_primary_task
  00e99	85 c0		 test	 eax, eax
  00e9b	74 05		 je	 SHORT $LN50@destroy_ke

; 1154 : 				{
; 1155 : 					//
; 1156 : 					// group is doing primary task - will sort itself out when it reaches land waypoint 
; 1157 : 					//
; 1158 : 				}
; 1159 : 				else

  00e9d	e9 10 02 00 00	 jmp	 $LN51@destroy_ke
$LN50@destroy_ke:

; 1160 : 				{
; 1161 : 					//
; 1162 : 					// group must be landing - create and assign emergency transfer task
; 1163 : 					//
; 1164 : 	
; 1165 : 					//
; 1166 : 					// but first, sort out landing locks
; 1167 : 					//
; 1168 : 					
; 1169 : 					member = get_local_entity_first_child (group, LIST_TYPE_MEMBER);

  00ea2	83 7d f8 00	 cmp	 DWORD PTR _group$[ebp], 0
  00ea6	74 0a		 je	 SHORT $LN161@destroy_ke
  00ea8	8b 45 f8	 mov	 eax, DWORD PTR _group$[ebp]
  00eab	8b 08		 mov	 ecx, DWORD PTR [eax]
  00ead	89 4d a0	 mov	 DWORD PTR tv661[ebp], ecx
  00eb0	eb 24		 jmp	 SHORT $LN162@destroy_ke
$LN161@destroy_ke:
  00eb2	8b 15 00 00 00
	00		 mov	 edx, DWORD PTR ?__LINE__Var@?0??destroy_keysite@@YGXPAUENTITY@@W4ENTITY_SIDES@@@Z@4JA
  00eb8	81 c2 e1 00 00
	00		 add	 edx, 225		; 000000e1H
  00ebe	52		 push	 edx
  00ebf	68 00 00 00 00	 push	 OFFSET ??_C@_0EN@PIOGLIPD@c?3?2users?2nhv90?2projects?2eech?2ap@
  00ec4	a1 00 00 00 00	 mov	 eax, DWORD PTR ?null_entity_pointer_message@@3PBDB ; null_entity_pointer_message
  00ec9	50		 push	 eax
  00eca	e8 00 00 00 00	 call	 ?process_assert@@YGXPBD0H@Z ; process_assert
  00ecf	c7 45 a0 00 00
	00 00		 mov	 DWORD PTR tv661[ebp], 0
$LN162@destroy_ke:
  00ed6	b9 01 00 00 00	 mov	 ecx, 1
  00edb	85 c9		 test	 ecx, ecx
  00edd	74 09		 je	 SHORT $LN163@destroy_ke
  00edf	c7 45 9c 19 00
	00 00		 mov	 DWORD PTR tv669[ebp], 25 ; 00000019H
  00ee6	eb 24		 jmp	 SHORT $LN164@destroy_ke
$LN163@destroy_ke:
  00ee8	8b 15 00 00 00
	00		 mov	 edx, DWORD PTR ?__LINE__Var@?0??destroy_keysite@@YGXPAUENTITY@@W4ENTITY_SIDES@@@Z@4JA
  00eee	81 c2 e1 00 00
	00		 add	 edx, 225		; 000000e1H
  00ef4	52		 push	 edx
  00ef5	68 00 00 00 00	 push	 OFFSET ??_C@_0EN@PIOGLIPD@c?3?2users?2nhv90?2projects?2eech?2ap@
  00efa	a1 00 00 00 00	 mov	 eax, DWORD PTR ?overload_invalid_list_type_message@@3PBDB ; overload_invalid_list_type_message
  00eff	50		 push	 eax
  00f00	e8 00 00 00 00	 call	 ?process_assert@@YGXPBD0H@Z ; process_assert
  00f05	c7 45 9c 00 00
	00 00		 mov	 DWORD PTR tv669[ebp], 0
$LN164@destroy_ke:
  00f0c	6a 19		 push	 25			; 00000019H
  00f0e	8b 4d f8	 mov	 ecx, DWORD PTR _group$[ebp]
  00f11	51		 push	 ecx
  00f12	69 55 a0 b4 00
	00 00		 imul	 edx, DWORD PTR tv661[ebp], 180
  00f19	8b 45 9c	 mov	 eax, DWORD PTR tv669[ebp]
  00f1c	8b 8c 82 00 00
	00 00		 mov	 ecx, DWORD PTR ?fn_get_local_entity_first_child@@3PAY0CN@P6GPAUENTITY@@PAU1@W4LIST_TYPES@@@ZA[edx+eax*4]
  00f23	ff d1		 call	 ecx
  00f25	89 45 f4	 mov	 DWORD PTR _member$[ebp], eax
$LN18@destroy_ke:

; 1170 : 			
; 1171 : 					while (member)

  00f28	83 7d f4 00	 cmp	 DWORD PTR _member$[ebp], 0
  00f2c	0f 84 77 01 00
	00		 je	 $LN19@destroy_ke

; 1172 : 					{
; 1173 : 						task = get_local_entity_current_task (member);

  00f32	8b 45 f4	 mov	 eax, DWORD PTR _member$[ebp]
  00f35	50		 push	 eax
  00f36	e8 00 00 00 00	 call	 ?get_local_entity_current_task@@YGPAUENTITY@@PAU1@@Z ; get_local_entity_current_task
  00f3b	89 45 fc	 mov	 DWORD PTR _task$[ebp], eax

; 1174 : 	
; 1175 : 						if (task)

  00f3e	83 7d fc 00	 cmp	 DWORD PTR _task$[ebp], 0
  00f42	0f 84 d6 00 00
	00		 je	 $LN52@destroy_ke

; 1176 : 						{
; 1177 : 							switch (get_local_entity_int_value (task, INT_TYPE_ENTITY_SUB_TYPE))

  00f48	83 7d fc 00	 cmp	 DWORD PTR _task$[ebp], 0
  00f4c	74 0a		 je	 SHORT $LN165@destroy_ke
  00f4e	8b 45 fc	 mov	 eax, DWORD PTR _task$[ebp]
  00f51	8b 08		 mov	 ecx, DWORD PTR [eax]
  00f53	89 4d a0	 mov	 DWORD PTR tv684[ebp], ecx
  00f56	eb 1d		 jmp	 SHORT $LN166@destroy_ke
$LN165@destroy_ke:
  00f58	68 99 04 00 00	 push	 1177			; 00000499H
  00f5d	68 00 00 00 00	 push	 OFFSET ??_C@_0EN@PIOGLIPD@c?3?2users?2nhv90?2projects?2eech?2ap@
  00f62	8b 15 00 00 00
	00		 mov	 edx, DWORD PTR ?null_entity_pointer_message@@3PBDB ; null_entity_pointer_message
  00f68	52		 push	 edx
  00f69	e8 00 00 00 00	 call	 ?process_assert@@YGXPBD0H@Z ; process_assert
  00f6e	c7 45 a0 00 00
	00 00		 mov	 DWORD PTR tv684[ebp], 0
$LN166@destroy_ke:
  00f75	b8 01 00 00 00	 mov	 eax, 1
  00f7a	85 c0		 test	 eax, eax
  00f7c	74 09		 je	 SHORT $LN167@destroy_ke
  00f7e	c7 45 9c 34 00
	00 00		 mov	 DWORD PTR tv691[ebp], 52 ; 00000034H
  00f85	eb 1d		 jmp	 SHORT $LN168@destroy_ke
$LN167@destroy_ke:
  00f87	68 99 04 00 00	 push	 1177			; 00000499H
  00f8c	68 00 00 00 00	 push	 OFFSET ??_C@_0EN@PIOGLIPD@c?3?2users?2nhv90?2projects?2eech?2ap@
  00f91	8b 0d 00 00 00
	00		 mov	 ecx, DWORD PTR ?overload_invalid_int_type_message@@3PBDB ; overload_invalid_int_type_message
  00f97	51		 push	 ecx
  00f98	e8 00 00 00 00	 call	 ?process_assert@@YGXPBD0H@Z ; process_assert
  00f9d	c7 45 9c 00 00
	00 00		 mov	 DWORD PTR tv691[ebp], 0
$LN168@destroy_ke:
  00fa4	6a 34		 push	 52			; 00000034H
  00fa6	8b 55 fc	 mov	 edx, DWORD PTR _task$[ebp]
  00fa9	52		 push	 edx
  00faa	69 45 a0 5c 04
	00 00		 imul	 eax, DWORD PTR tv684[ebp], 1116
  00fb1	8b 4d 9c	 mov	 ecx, DWORD PTR tv691[ebp]
  00fb4	8b 94 88 00 00
	00 00		 mov	 edx, DWORD PTR ?fn_get_local_entity_int_value@@3PAY0BBH@P6GHPAUENTITY@@W4INT_TYPES@@@ZA[eax+ecx*4]
  00fbb	ff d2		 call	 edx
  00fbd	89 45 98	 mov	 DWORD PTR tv697[ebp], eax
  00fc0	83 7d 98 0d	 cmp	 DWORD PTR tv697[ebp], 13 ; 0000000dH
  00fc4	74 08		 je	 SHORT $LN53@destroy_ke
  00fc6	83 7d 98 0e	 cmp	 DWORD PTR tv697[ebp], 14 ; 0000000eH
  00fca	74 34		 je	 SHORT $LN54@destroy_ke
  00fcc	eb 50		 jmp	 SHORT $LN52@destroy_ke
$LN53@destroy_ke:

; 1178 : 							{
; 1179 : 								case ENTITY_SUB_TYPE_TASK_LANDING:
; 1180 : 								{
; 1181 : 									//
; 1182 : 									// Landing task needs to free landing SITE and landing ROUTE
; 1183 : 									//
; 1184 : 									
; 1185 : 									landing = get_local_group_member_landing_entity_from_task (member);

  00fce	8b 45 f4	 mov	 eax, DWORD PTR _member$[ebp]
  00fd1	50		 push	 eax
  00fd2	e8 00 00 00 00	 call	 ?get_local_group_member_landing_entity_from_task@@YGPAUENTITY@@PAU1@@Z ; get_local_group_member_landing_entity_from_task
  00fd7	89 45 f0	 mov	 DWORD PTR _landing$[ebp], eax

; 1186 : 							
; 1187 : 									notify_local_entity (ENTITY_MESSAGE_UNLOCK_LANDING_ROUTE, landing, member);

  00fda	8b 45 f4	 mov	 eax, DWORD PTR _member$[ebp]
  00fdd	50		 push	 eax
  00fde	8b 4d f0	 mov	 ecx, DWORD PTR _landing$[ebp]
  00fe1	51		 push	 ecx
  00fe2	6a 39		 push	 57			; 00000039H
  00fe4	e8 00 00 00 00	 call	 ?notify_local_entity@@YAHW4ENTITY_MESSAGES@@PAUENTITY@@1ZZ ; notify_local_entity
  00fe9	83 c4 0c	 add	 esp, 12			; 0000000cH

; 1188 : 	
; 1189 : 									notify_local_entity (ENTITY_MESSAGE_UNLOCK_LANDING_SITE, landing, member);

  00fec	8b 45 f4	 mov	 eax, DWORD PTR _member$[ebp]
  00fef	50		 push	 eax
  00ff0	8b 4d f0	 mov	 ecx, DWORD PTR _landing$[ebp]
  00ff3	51		 push	 ecx
  00ff4	6a 3a		 push	 58			; 0000003aH
  00ff6	e8 00 00 00 00	 call	 ?notify_local_entity@@YAHW4ENTITY_MESSAGES@@PAUENTITY@@1ZZ ; notify_local_entity
  00ffb	83 c4 0c	 add	 esp, 12			; 0000000cH

; 1190 : 	
; 1191 : 									break;

  00ffe	eb 1e		 jmp	 SHORT $LN52@destroy_ke
$LN54@destroy_ke:

; 1192 : 								}
; 1193 : 								case ENTITY_SUB_TYPE_TASK_LANDING_HOLDING:
; 1194 : 								{
; 1195 : 									//
; 1196 : 									// Landing-Holding task needs to free landing SITE only
; 1197 : 									//
; 1198 : 									
; 1199 : 									landing = get_local_group_member_landing_entity_from_task (member);

  01000	8b 45 f4	 mov	 eax, DWORD PTR _member$[ebp]
  01003	50		 push	 eax
  01004	e8 00 00 00 00	 call	 ?get_local_group_member_landing_entity_from_task@@YGPAUENTITY@@PAU1@@Z ; get_local_group_member_landing_entity_from_task
  01009	89 45 f0	 mov	 DWORD PTR _landing$[ebp], eax

; 1200 : 							
; 1201 : 									notify_local_entity (ENTITY_MESSAGE_UNLOCK_LANDING_SITE, landing, member);

  0100c	8b 45 f4	 mov	 eax, DWORD PTR _member$[ebp]
  0100f	50		 push	 eax
  01010	8b 4d f0	 mov	 ecx, DWORD PTR _landing$[ebp]
  01013	51		 push	 ecx
  01014	6a 3a		 push	 58			; 0000003aH
  01016	e8 00 00 00 00	 call	 ?notify_local_entity@@YAHW4ENTITY_MESSAGES@@PAUENTITY@@1ZZ ; notify_local_entity
  0101b	83 c4 0c	 add	 esp, 12			; 0000000cH
$LN52@destroy_ke:

; 1202 : 	
; 1203 : 									break;
; 1204 : 								}
; 1205 : 							}
; 1206 : 						}
; 1207 : 	
; 1208 : 						member = get_local_entity_child_succ (member, LIST_TYPE_MEMBER);

  0101e	83 7d f4 00	 cmp	 DWORD PTR _member$[ebp], 0
  01022	74 0a		 je	 SHORT $LN169@destroy_ke
  01024	8b 45 f4	 mov	 eax, DWORD PTR _member$[ebp]
  01027	8b 08		 mov	 ecx, DWORD PTR [eax]
  01029	89 4d a0	 mov	 DWORD PTR tv719[ebp], ecx
  0102c	eb 24		 jmp	 SHORT $LN170@destroy_ke
$LN169@destroy_ke:
  0102e	8b 15 00 00 00
	00		 mov	 edx, DWORD PTR ?__LINE__Var@?0??destroy_keysite@@YGXPAUENTITY@@W4ENTITY_SIDES@@@Z@4JA
  01034	81 c2 08 01 00
	00		 add	 edx, 264		; 00000108H
  0103a	52		 push	 edx
  0103b	68 00 00 00 00	 push	 OFFSET ??_C@_0EN@PIOGLIPD@c?3?2users?2nhv90?2projects?2eech?2ap@
  01040	a1 00 00 00 00	 mov	 eax, DWORD PTR ?null_entity_pointer_message@@3PBDB ; null_entity_pointer_message
  01045	50		 push	 eax
  01046	e8 00 00 00 00	 call	 ?process_assert@@YGXPBD0H@Z ; process_assert
  0104b	c7 45 a0 00 00
	00 00		 mov	 DWORD PTR tv719[ebp], 0
$LN170@destroy_ke:
  01052	b9 01 00 00 00	 mov	 ecx, 1
  01057	85 c9		 test	 ecx, ecx
  01059	74 09		 je	 SHORT $LN171@destroy_ke
  0105b	c7 45 9c 19 00
	00 00		 mov	 DWORD PTR tv727[ebp], 25 ; 00000019H
  01062	eb 24		 jmp	 SHORT $LN172@destroy_ke
$LN171@destroy_ke:
  01064	8b 15 00 00 00
	00		 mov	 edx, DWORD PTR ?__LINE__Var@?0??destroy_keysite@@YGXPAUENTITY@@W4ENTITY_SIDES@@@Z@4JA
  0106a	81 c2 08 01 00
	00		 add	 edx, 264		; 00000108H
  01070	52		 push	 edx
  01071	68 00 00 00 00	 push	 OFFSET ??_C@_0EN@PIOGLIPD@c?3?2users?2nhv90?2projects?2eech?2ap@
  01076	a1 00 00 00 00	 mov	 eax, DWORD PTR ?overload_invalid_list_type_message@@3PBDB ; overload_invalid_list_type_message
  0107b	50		 push	 eax
  0107c	e8 00 00 00 00	 call	 ?process_assert@@YGXPBD0H@Z ; process_assert
  01081	c7 45 9c 00 00
	00 00		 mov	 DWORD PTR tv727[ebp], 0
$LN172@destroy_ke:
  01088	6a 19		 push	 25			; 00000019H
  0108a	8b 4d f4	 mov	 ecx, DWORD PTR _member$[ebp]
  0108d	51		 push	 ecx
  0108e	69 55 a0 b4 00
	00 00		 imul	 edx, DWORD PTR tv719[ebp], 180
  01095	8b 45 9c	 mov	 eax, DWORD PTR tv727[ebp]
  01098	8b 8c 82 00 00
	00 00		 mov	 ecx, DWORD PTR ?fn_get_local_entity_child_succ@@3PAY0CN@P6GPAUENTITY@@PAU1@W4LIST_TYPES@@@ZA[edx+eax*4]
  0109f	ff d1		 call	 ecx
  010a1	89 45 f4	 mov	 DWORD PTR _member$[ebp], eax

; 1209 : 					}

  010a4	e9 7f fe ff ff	 jmp	 $LN18@destroy_ke
$LN19@destroy_ke:

; 1210 : 	
; 1211 : 					create_group_emergency_transfer_task (group);

  010a9	8b 45 f8	 mov	 eax, DWORD PTR _group$[ebp]
  010ac	50		 push	 eax
  010ad	e8 00 00 00 00	 call	 ?create_group_emergency_transfer_task@@YGHPAUENTITY@@@Z ; create_group_emergency_transfer_task
$LN51@destroy_ke:

; 1212 : 				}
; 1213 : 			}
; 1214 : 			else

  010b2	eb 09		 jmp	 SHORT $LN49@destroy_ke
$LN48@destroy_ke:

; 1215 : 			{
; 1216 : 				//
; 1217 : 				// Kill all other groups linked to keysite (e.g. people, or recently regen-ed tanks etc.)
; 1218 : 				//
; 1219 : 	
; 1220 : 				group_kill_all_members (group);

  010b4	8b 45 f8	 mov	 eax, DWORD PTR _group$[ebp]
  010b7	50		 push	 eax
  010b8	e8 00 00 00 00	 call	 ?group_kill_all_members@@YGXPAUENTITY@@@Z ; group_kill_all_members
$LN49@destroy_ke:

; 1221 : 			}
; 1222 : 			
; 1223 : 			group = next_group;

  010bd	8b 45 e8	 mov	 eax, DWORD PTR _next_group$[ebp]
  010c0	89 45 f8	 mov	 DWORD PTR _group$[ebp], eax

; 1224 : 		}

  010c3	e9 bb fc ff ff	 jmp	 $LN16@destroy_ke
$LN32@destroy_ke:

; 1225 : 	}
; 1226 : 
; 1227 : 	//
; 1228 : 	// Terminate unassigned tasks
; 1229 : 	//
; 1230 : 
; 1231 : 	task = get_local_entity_first_child (en, LIST_TYPE_UNASSIGNED_TASK);

  010c8	83 7d 08 00	 cmp	 DWORD PTR _en$[ebp], 0
  010cc	74 0a		 je	 SHORT $LN173@destroy_ke
  010ce	8b 45 08	 mov	 eax, DWORD PTR _en$[ebp]
  010d1	8b 08		 mov	 ecx, DWORD PTR [eax]
  010d3	89 4d a0	 mov	 DWORD PTR tv741[ebp], ecx
  010d6	eb 24		 jmp	 SHORT $LN174@destroy_ke
$LN173@destroy_ke:
  010d8	8b 15 00 00 00
	00		 mov	 edx, DWORD PTR ?__LINE__Var@?0??destroy_keysite@@YGXPAUENTITY@@W4ENTITY_SIDES@@@Z@4JA
  010de	81 c2 1f 01 00
	00		 add	 edx, 287		; 0000011fH
  010e4	52		 push	 edx
  010e5	68 00 00 00 00	 push	 OFFSET ??_C@_0EN@PIOGLIPD@c?3?2users?2nhv90?2projects?2eech?2ap@
  010ea	a1 00 00 00 00	 mov	 eax, DWORD PTR ?null_entity_pointer_message@@3PBDB ; null_entity_pointer_message
  010ef	50		 push	 eax
  010f0	e8 00 00 00 00	 call	 ?process_assert@@YGXPBD0H@Z ; process_assert
  010f5	c7 45 a0 00 00
	00 00		 mov	 DWORD PTR tv741[ebp], 0
$LN174@destroy_ke:
  010fc	b9 01 00 00 00	 mov	 ecx, 1
  01101	85 c9		 test	 ecx, ecx
  01103	74 09		 je	 SHORT $LN175@destroy_ke
  01105	c7 45 9c 28 00
	00 00		 mov	 DWORD PTR tv749[ebp], 40 ; 00000028H
  0110c	eb 24		 jmp	 SHORT $LN176@destroy_ke
$LN175@destroy_ke:
  0110e	8b 15 00 00 00
	00		 mov	 edx, DWORD PTR ?__LINE__Var@?0??destroy_keysite@@YGXPAUENTITY@@W4ENTITY_SIDES@@@Z@4JA
  01114	81 c2 1f 01 00
	00		 add	 edx, 287		; 0000011fH
  0111a	52		 push	 edx
  0111b	68 00 00 00 00	 push	 OFFSET ??_C@_0EN@PIOGLIPD@c?3?2users?2nhv90?2projects?2eech?2ap@
  01120	a1 00 00 00 00	 mov	 eax, DWORD PTR ?overload_invalid_list_type_message@@3PBDB ; overload_invalid_list_type_message
  01125	50		 push	 eax
  01126	e8 00 00 00 00	 call	 ?process_assert@@YGXPBD0H@Z ; process_assert
  0112b	c7 45 9c 00 00
	00 00		 mov	 DWORD PTR tv749[ebp], 0
$LN176@destroy_ke:
  01132	6a 28		 push	 40			; 00000028H
  01134	8b 4d 08	 mov	 ecx, DWORD PTR _en$[ebp]
  01137	51		 push	 ecx
  01138	69 55 a0 b4 00
	00 00		 imul	 edx, DWORD PTR tv741[ebp], 180
  0113f	8b 45 9c	 mov	 eax, DWORD PTR tv749[ebp]
  01142	8b 8c 82 00 00
	00 00		 mov	 ecx, DWORD PTR ?fn_get_local_entity_first_child@@3PAY0CN@P6GPAUENTITY@@PAU1@W4LIST_TYPES@@@ZA[edx+eax*4]
  01149	ff d1		 call	 ecx
  0114b	89 45 fc	 mov	 DWORD PTR _task$[ebp], eax
$LN22@destroy_ke:

; 1232 : 
; 1233 : 	while (task)

  0114e	83 7d fc 00	 cmp	 DWORD PTR _task$[ebp], 0
  01152	0f 84 a3 00 00
	00		 je	 $LN23@destroy_ke

; 1234 : 	{
; 1235 : 		next = get_local_entity_child_succ (task, LIST_TYPE_UNASSIGNED_TASK);

  01158	83 7d fc 00	 cmp	 DWORD PTR _task$[ebp], 0
  0115c	74 0a		 je	 SHORT $LN177@destroy_ke
  0115e	8b 45 fc	 mov	 eax, DWORD PTR _task$[ebp]
  01161	8b 08		 mov	 ecx, DWORD PTR [eax]
  01163	89 4d a0	 mov	 DWORD PTR tv762[ebp], ecx
  01166	eb 24		 jmp	 SHORT $LN178@destroy_ke
$LN177@destroy_ke:
  01168	8b 15 00 00 00
	00		 mov	 edx, DWORD PTR ?__LINE__Var@?0??destroy_keysite@@YGXPAUENTITY@@W4ENTITY_SIDES@@@Z@4JA
  0116e	81 c2 23 01 00
	00		 add	 edx, 291		; 00000123H
  01174	52		 push	 edx
  01175	68 00 00 00 00	 push	 OFFSET ??_C@_0EN@PIOGLIPD@c?3?2users?2nhv90?2projects?2eech?2ap@
  0117a	a1 00 00 00 00	 mov	 eax, DWORD PTR ?null_entity_pointer_message@@3PBDB ; null_entity_pointer_message
  0117f	50		 push	 eax
  01180	e8 00 00 00 00	 call	 ?process_assert@@YGXPBD0H@Z ; process_assert
  01185	c7 45 a0 00 00
	00 00		 mov	 DWORD PTR tv762[ebp], 0
$LN178@destroy_ke:
  0118c	b9 01 00 00 00	 mov	 ecx, 1
  01191	85 c9		 test	 ecx, ecx
  01193	74 09		 je	 SHORT $LN179@destroy_ke
  01195	c7 45 9c 28 00
	00 00		 mov	 DWORD PTR tv770[ebp], 40 ; 00000028H
  0119c	eb 24		 jmp	 SHORT $LN180@destroy_ke
$LN179@destroy_ke:
  0119e	8b 15 00 00 00
	00		 mov	 edx, DWORD PTR ?__LINE__Var@?0??destroy_keysite@@YGXPAUENTITY@@W4ENTITY_SIDES@@@Z@4JA
  011a4	81 c2 23 01 00
	00		 add	 edx, 291		; 00000123H
  011aa	52		 push	 edx
  011ab	68 00 00 00 00	 push	 OFFSET ??_C@_0EN@PIOGLIPD@c?3?2users?2nhv90?2projects?2eech?2ap@
  011b0	a1 00 00 00 00	 mov	 eax, DWORD PTR ?overload_invalid_list_type_message@@3PBDB ; overload_invalid_list_type_message
  011b5	50		 push	 eax
  011b6	e8 00 00 00 00	 call	 ?process_assert@@YGXPBD0H@Z ; process_assert
  011bb	c7 45 9c 00 00
	00 00		 mov	 DWORD PTR tv770[ebp], 0
$LN180@destroy_ke:
  011c2	6a 28		 push	 40			; 00000028H
  011c4	8b 4d fc	 mov	 ecx, DWORD PTR _task$[ebp]
  011c7	51		 push	 ecx
  011c8	69 55 a0 b4 00
	00 00		 imul	 edx, DWORD PTR tv762[ebp], 180
  011cf	8b 45 9c	 mov	 eax, DWORD PTR tv770[ebp]
  011d2	8b 8c 82 00 00
	00 00		 mov	 ecx, DWORD PTR ?fn_get_local_entity_child_succ@@3PAY0CN@P6GPAUENTITY@@PAU1@W4LIST_TYPES@@@ZA[edx+eax*4]
  011d9	ff d1		 call	 ecx
  011db	89 45 ec	 mov	 DWORD PTR _next$[ebp], eax

; 1236 : 
; 1237 : 		notify_local_entity (ENTITY_MESSAGE_TASK_TERMINATED, task, NULL, TASK_TERMINATED_ABORTED);

  011de	6a 02		 push	 2
  011e0	6a 00		 push	 0
  011e2	8b 45 fc	 mov	 eax, DWORD PTR _task$[ebp]
  011e5	50		 push	 eax
  011e6	6a 36		 push	 54			; 00000036H
  011e8	e8 00 00 00 00	 call	 ?notify_local_entity@@YAHW4ENTITY_MESSAGES@@PAUENTITY@@1ZZ ; notify_local_entity
  011ed	83 c4 10	 add	 esp, 16			; 00000010H

; 1238 : 
; 1239 : 		task = next;

  011f0	8b 45 ec	 mov	 eax, DWORD PTR _next$[ebp]
  011f3	89 45 fc	 mov	 DWORD PTR _task$[ebp], eax

; 1240 : 	}

  011f6	e9 53 ff ff ff	 jmp	 $LN22@destroy_ke
$LN23@destroy_ke:

; 1241 : 
; 1242 : 	//
; 1243 : 	// Terminate (complete) all tasks against the keysite
; 1244 : 	//
; 1245 : 
; 1246 : 	task = get_local_entity_first_child (en, LIST_TYPE_TASK_DEPENDENT);

  011fb	83 7d 08 00	 cmp	 DWORD PTR _en$[ebp], 0
  011ff	74 0a		 je	 SHORT $LN181@destroy_ke
  01201	8b 45 08	 mov	 eax, DWORD PTR _en$[ebp]
  01204	8b 08		 mov	 ecx, DWORD PTR [eax]
  01206	89 4d a0	 mov	 DWORD PTR tv786[ebp], ecx
  01209	eb 24		 jmp	 SHORT $LN182@destroy_ke
$LN181@destroy_ke:
  0120b	8b 15 00 00 00
	00		 mov	 edx, DWORD PTR ?__LINE__Var@?0??destroy_keysite@@YGXPAUENTITY@@W4ENTITY_SIDES@@@Z@4JA
  01211	81 c2 2e 01 00
	00		 add	 edx, 302		; 0000012eH
  01217	52		 push	 edx
  01218	68 00 00 00 00	 push	 OFFSET ??_C@_0EN@PIOGLIPD@c?3?2users?2nhv90?2projects?2eech?2ap@
  0121d	a1 00 00 00 00	 mov	 eax, DWORD PTR ?null_entity_pointer_message@@3PBDB ; null_entity_pointer_message
  01222	50		 push	 eax
  01223	e8 00 00 00 00	 call	 ?process_assert@@YGXPBD0H@Z ; process_assert
  01228	c7 45 a0 00 00
	00 00		 mov	 DWORD PTR tv786[ebp], 0
$LN182@destroy_ke:
  0122f	b9 01 00 00 00	 mov	 ecx, 1
  01234	85 c9		 test	 ecx, ecx
  01236	74 09		 je	 SHORT $LN183@destroy_ke
  01238	c7 45 9c 27 00
	00 00		 mov	 DWORD PTR tv794[ebp], 39 ; 00000027H
  0123f	eb 24		 jmp	 SHORT $LN184@destroy_ke
$LN183@destroy_ke:
  01241	8b 15 00 00 00
	00		 mov	 edx, DWORD PTR ?__LINE__Var@?0??destroy_keysite@@YGXPAUENTITY@@W4ENTITY_SIDES@@@Z@4JA
  01247	81 c2 2e 01 00
	00		 add	 edx, 302		; 0000012eH
  0124d	52		 push	 edx
  0124e	68 00 00 00 00	 push	 OFFSET ??_C@_0EN@PIOGLIPD@c?3?2users?2nhv90?2projects?2eech?2ap@
  01253	a1 00 00 00 00	 mov	 eax, DWORD PTR ?overload_invalid_list_type_message@@3PBDB ; overload_invalid_list_type_message
  01258	50		 push	 eax
  01259	e8 00 00 00 00	 call	 ?process_assert@@YGXPBD0H@Z ; process_assert
  0125e	c7 45 9c 00 00
	00 00		 mov	 DWORD PTR tv794[ebp], 0
$LN184@destroy_ke:
  01265	6a 27		 push	 39			; 00000027H
  01267	8b 4d 08	 mov	 ecx, DWORD PTR _en$[ebp]
  0126a	51		 push	 ecx
  0126b	69 55 a0 b4 00
	00 00		 imul	 edx, DWORD PTR tv786[ebp], 180
  01272	8b 45 9c	 mov	 eax, DWORD PTR tv794[ebp]
  01275	8b 8c 82 00 00
	00 00		 mov	 ecx, DWORD PTR ?fn_get_local_entity_first_child@@3PAY0CN@P6GPAUENTITY@@PAU1@W4LIST_TYPES@@@ZA[edx+eax*4]
  0127c	ff d1		 call	 ecx
  0127e	89 45 fc	 mov	 DWORD PTR _task$[ebp], eax
$LN24@destroy_ke:

; 1247 : 
; 1248 : 	while (task)

  01281	83 7d fc 00	 cmp	 DWORD PTR _task$[ebp], 0
  01285	0f 84 d6 00 00
	00		 je	 $LN25@destroy_ke

; 1249 : 	{
; 1250 : 		next = get_local_entity_child_succ (task, LIST_TYPE_TASK_DEPENDENT);

  0128b	83 7d fc 00	 cmp	 DWORD PTR _task$[ebp], 0
  0128f	74 0a		 je	 SHORT $LN185@destroy_ke
  01291	8b 45 fc	 mov	 eax, DWORD PTR _task$[ebp]
  01294	8b 08		 mov	 ecx, DWORD PTR [eax]
  01296	89 4d a0	 mov	 DWORD PTR tv807[ebp], ecx
  01299	eb 24		 jmp	 SHORT $LN186@destroy_ke
$LN185@destroy_ke:
  0129b	8b 15 00 00 00
	00		 mov	 edx, DWORD PTR ?__LINE__Var@?0??destroy_keysite@@YGXPAUENTITY@@W4ENTITY_SIDES@@@Z@4JA
  012a1	81 c2 32 01 00
	00		 add	 edx, 306		; 00000132H
  012a7	52		 push	 edx
  012a8	68 00 00 00 00	 push	 OFFSET ??_C@_0EN@PIOGLIPD@c?3?2users?2nhv90?2projects?2eech?2ap@
  012ad	a1 00 00 00 00	 mov	 eax, DWORD PTR ?null_entity_pointer_message@@3PBDB ; null_entity_pointer_message
  012b2	50		 push	 eax
  012b3	e8 00 00 00 00	 call	 ?process_assert@@YGXPBD0H@Z ; process_assert
  012b8	c7 45 a0 00 00
	00 00		 mov	 DWORD PTR tv807[ebp], 0
$LN186@destroy_ke:
  012bf	b9 01 00 00 00	 mov	 ecx, 1
  012c4	85 c9		 test	 ecx, ecx
  012c6	74 09		 je	 SHORT $LN187@destroy_ke
  012c8	c7 45 9c 27 00
	00 00		 mov	 DWORD PTR tv815[ebp], 39 ; 00000027H
  012cf	eb 24		 jmp	 SHORT $LN188@destroy_ke
$LN187@destroy_ke:
  012d1	8b 15 00 00 00
	00		 mov	 edx, DWORD PTR ?__LINE__Var@?0??destroy_keysite@@YGXPAUENTITY@@W4ENTITY_SIDES@@@Z@4JA
  012d7	81 c2 32 01 00
	00		 add	 edx, 306		; 00000132H
  012dd	52		 push	 edx
  012de	68 00 00 00 00	 push	 OFFSET ??_C@_0EN@PIOGLIPD@c?3?2users?2nhv90?2projects?2eech?2ap@
  012e3	a1 00 00 00 00	 mov	 eax, DWORD PTR ?overload_invalid_list_type_message@@3PBDB ; overload_invalid_list_type_message
  012e8	50		 push	 eax
  012e9	e8 00 00 00 00	 call	 ?process_assert@@YGXPBD0H@Z ; process_assert
  012ee	c7 45 9c 00 00
	00 00		 mov	 DWORD PTR tv815[ebp], 0
$LN188@destroy_ke:
  012f5	6a 27		 push	 39			; 00000027H
  012f7	8b 4d fc	 mov	 ecx, DWORD PTR _task$[ebp]
  012fa	51		 push	 ecx
  012fb	69 55 a0 b4 00
	00 00		 imul	 edx, DWORD PTR tv807[ebp], 180
  01302	8b 45 9c	 mov	 eax, DWORD PTR tv815[ebp]
  01305	8b 8c 82 00 00
	00 00		 mov	 ecx, DWORD PTR ?fn_get_local_entity_child_succ@@3PAY0CN@P6GPAUENTITY@@PAU1@W4LIST_TYPES@@@ZA[edx+eax*4]
  0130c	ff d1		 call	 ecx
  0130e	89 45 ec	 mov	 DWORD PTR _next$[ebp], eax

; 1251 : 
; 1252 : 		if (get_local_entity_type (task) == ENTITY_TYPE_TASK)

  01311	83 7d fc 00	 cmp	 DWORD PTR _task$[ebp], 0
  01315	74 0a		 je	 SHORT $LN189@destroy_ke
  01317	8b 45 fc	 mov	 eax, DWORD PTR _task$[ebp]
  0131a	8b 08		 mov	 ecx, DWORD PTR [eax]
  0131c	89 4d a0	 mov	 DWORD PTR tv826[ebp], ecx
  0131f	eb 1d		 jmp	 SHORT $LN190@destroy_ke
$LN189@destroy_ke:
  01321	68 e4 04 00 00	 push	 1252			; 000004e4H
  01326	68 00 00 00 00	 push	 OFFSET ??_C@_0EN@PIOGLIPD@c?3?2users?2nhv90?2projects?2eech?2ap@
  0132b	8b 15 00 00 00
	00		 mov	 edx, DWORD PTR ?null_entity_pointer_message@@3PBDB ; null_entity_pointer_message
  01331	52		 push	 edx
  01332	e8 00 00 00 00	 call	 ?process_assert@@YGXPBD0H@Z ; process_assert
  01337	c7 45 a0 00 00
	00 00		 mov	 DWORD PTR tv826[ebp], 0
$LN190@destroy_ke:
  0133e	83 7d a0 22	 cmp	 DWORD PTR tv826[ebp], 34 ; 00000022H
  01342	75 12		 jne	 SHORT $LN55@destroy_ke

; 1253 : 		{
; 1254 : 			notify_local_entity (ENTITY_MESSAGE_TASK_COMPLETED, task, NULL, TASK_INCOMPLETE);

  01344	6a 00		 push	 0
  01346	6a 00		 push	 0
  01348	8b 45 fc	 mov	 eax, DWORD PTR _task$[ebp]
  0134b	50		 push	 eax
  0134c	6a 32		 push	 50			; 00000032H
  0134e	e8 00 00 00 00	 call	 ?notify_local_entity@@YAHW4ENTITY_MESSAGES@@PAUENTITY@@1ZZ ; notify_local_entity
  01353	83 c4 10	 add	 esp, 16			; 00000010H
$LN55@destroy_ke:

; 1255 : 		}
; 1256 : 
; 1257 : 		task = next;

  01356	8b 45 ec	 mov	 eax, DWORD PTR _next$[ebp]
  01359	89 45 fc	 mov	 DWORD PTR _task$[ebp], eax

; 1258 : 	}

  0135c	e9 20 ff ff ff	 jmp	 $LN24@destroy_ke
$LN25@destroy_ke:

; 1259 : 
; 1260 : 	//
; 1261 : 	// Reduce size of regen queue dependent on keysite type
; 1262 : 	//
; 1263 : 
; 1264 : 	switch (get_local_entity_int_value (en, INT_TYPE_ENTITY_SUB_TYPE))

  01361	83 7d 08 00	 cmp	 DWORD PTR _en$[ebp], 0
  01365	74 0a		 je	 SHORT $LN191@destroy_ke
  01367	8b 45 08	 mov	 eax, DWORD PTR _en$[ebp]
  0136a	8b 08		 mov	 ecx, DWORD PTR [eax]
  0136c	89 4d a0	 mov	 DWORD PTR tv837[ebp], ecx
  0136f	eb 1d		 jmp	 SHORT $LN192@destroy_ke
$LN191@destroy_ke:
  01371	68 f0 04 00 00	 push	 1264			; 000004f0H
  01376	68 00 00 00 00	 push	 OFFSET ??_C@_0EN@PIOGLIPD@c?3?2users?2nhv90?2projects?2eech?2ap@
  0137b	8b 15 00 00 00
	00		 mov	 edx, DWORD PTR ?null_entity_pointer_message@@3PBDB ; null_entity_pointer_message
  01381	52		 push	 edx
  01382	e8 00 00 00 00	 call	 ?process_assert@@YGXPBD0H@Z ; process_assert
  01387	c7 45 a0 00 00
	00 00		 mov	 DWORD PTR tv837[ebp], 0
$LN192@destroy_ke:
  0138e	b8 01 00 00 00	 mov	 eax, 1
  01393	85 c0		 test	 eax, eax
  01395	74 09		 je	 SHORT $LN193@destroy_ke
  01397	c7 45 9c 34 00
	00 00		 mov	 DWORD PTR tv844[ebp], 52 ; 00000034H
  0139e	eb 1d		 jmp	 SHORT $LN194@destroy_ke
$LN193@destroy_ke:
  013a0	68 f0 04 00 00	 push	 1264			; 000004f0H
  013a5	68 00 00 00 00	 push	 OFFSET ??_C@_0EN@PIOGLIPD@c?3?2users?2nhv90?2projects?2eech?2ap@
  013aa	8b 0d 00 00 00
	00		 mov	 ecx, DWORD PTR ?overload_invalid_int_type_message@@3PBDB ; overload_invalid_int_type_message
  013b0	51		 push	 ecx
  013b1	e8 00 00 00 00	 call	 ?process_assert@@YGXPBD0H@Z ; process_assert
  013b6	c7 45 9c 00 00
	00 00		 mov	 DWORD PTR tv844[ebp], 0
$LN194@destroy_ke:
  013bd	6a 34		 push	 52			; 00000034H
  013bf	8b 55 08	 mov	 edx, DWORD PTR _en$[ebp]
  013c2	52		 push	 edx
  013c3	69 45 a0 5c 04
	00 00		 imul	 eax, DWORD PTR tv837[ebp], 1116
  013ca	8b 4d 9c	 mov	 ecx, DWORD PTR tv844[ebp]
  013cd	8b 94 88 00 00
	00 00		 mov	 edx, DWORD PTR ?fn_get_local_entity_int_value@@3PAY0BBH@P6GHPAUENTITY@@W4INT_TYPES@@@ZA[eax+ecx*4]
  013d4	ff d2		 call	 edx
  013d6	89 45 98	 mov	 DWORD PTR tv850[ebp], eax
  013d9	83 7d 98 00	 cmp	 DWORD PTR tv850[ebp], 0
  013dd	74 08		 je	 SHORT $LN56@destroy_ke
  013df	83 7d 98 03	 cmp	 DWORD PTR tv850[ebp], 3
  013e3	74 1e		 je	 SHORT $LN57@destroy_ke
  013e5	eb 29		 jmp	 SHORT $LN1@destroy_ke
$LN56@destroy_ke:

; 1265 : 	{
; 1266 : 		case ENTITY_SUB_TYPE_KEYSITE_AIRBASE:
; 1267 : 		{
; 1268 : 			increment_regen_queue_size (side, ENTITY_TYPE_HELICOPTER, -6);

  013e7	6a fa		 push	 -6			; fffffffaH
  013e9	6a 0e		 push	 14			; 0000000eH
  013eb	8b 45 0c	 mov	 eax, DWORD PTR _side$[ebp]
  013ee	50		 push	 eax
  013ef	e8 00 00 00 00	 call	 ?increment_regen_queue_size@@YGHW4ENTITY_SIDES@@W4ENTITY_TYPES@@H@Z ; increment_regen_queue_size

; 1269 : 
; 1270 : 			increment_regen_queue_size (side, ENTITY_TYPE_FIXED_WING, -4);

  013f4	6a fc		 push	 -4			; fffffffcH
  013f6	6a 0a		 push	 10			; 0000000aH
  013f8	8b 45 0c	 mov	 eax, DWORD PTR _side$[ebp]
  013fb	50		 push	 eax
  013fc	e8 00 00 00 00	 call	 ?increment_regen_queue_size@@YGHW4ENTITY_SIDES@@W4ENTITY_TYPES@@H@Z ; increment_regen_queue_size

; 1271 : 
; 1272 : 			break;

  01401	eb 0d		 jmp	 SHORT $LN1@destroy_ke
$LN57@destroy_ke:

; 1273 : 		}
; 1274 : 		case ENTITY_SUB_TYPE_KEYSITE_FARP:
; 1275 : 		{
; 1276 : 			increment_regen_queue_size (side, ENTITY_TYPE_HELICOPTER, -2);

  01403	6a fe		 push	 -2			; fffffffeH
  01405	6a 0e		 push	 14			; 0000000eH
  01407	8b 45 0c	 mov	 eax, DWORD PTR _side$[ebp]
  0140a	50		 push	 eax
  0140b	e8 00 00 00 00	 call	 ?increment_regen_queue_size@@YGHW4ENTITY_SIDES@@W4ENTITY_TYPES@@H@Z ; increment_regen_queue_size
$LN1@destroy_ke:

; 1277 : 
; 1278 : 			break;
; 1279 : 		}
; 1280 : 	}
; 1281 : }

  01410	5f		 pop	 edi
  01411	5e		 pop	 esi
  01412	5b		 pop	 ebx
  01413	8b e5		 mov	 esp, ebp
  01415	5d		 pop	 ebp
  01416	c2 08 00	 ret	 8
?destroy_keysite@@YGXPAUENTITY@@W4ENTITY_SIDES@@@Z ENDP	; destroy_keysite
_TEXT	ENDS
; Function compile flags: /Odtp /ZI
; File c:\users\nhv90\projects\eech\aphavoc\source\entity\special\keysite\keysite.c
;	COMDAT ?notify_keysite_structure_under_attack@@YGXPAUENTITY@@0@Z
_TEXT	SEGMENT
tv359 = -92						; size = 8
tv294 = -84						; size = 4
tv255 = -84						; size = 4
tv225 = -84						; size = 4
tv203 = -84						; size = 4
tv184 = -84						; size = 4
tv165 = -84						; size = 4
tv147 = -84						; size = 4
tv91 = -84						; size = 4
tv286 = -80						; size = 4
tv248 = -80						; size = 4
tv217 = -80						; size = 4
tv196 = -80						; size = 4
tv177 = -80						; size = 4
tv158 = -80						; size = 4
tv139 = -80						; size = 4
tv84 = -80						; size = 4
_side$ = -12						; size = 4
_keysite$ = -8						; size = 4
_force$ = -4						; size = 4
_structure$ = 8						; size = 4
_aggressor$ = 12					; size = 4
?notify_keysite_structure_under_attack@@YGXPAUENTITY@@0@Z PROC ; notify_keysite_structure_under_attack, COMDAT

; 853  : {

  00000	55		 push	 ebp
  00001	8b ec		 mov	 ebp, esp
  00003	83 ec 5c	 sub	 esp, 92			; 0000005cH
  00006	53		 push	 ebx
  00007	56		 push	 esi
  00008	57		 push	 edi

; 854  : 	entity
; 855  : 		*force,
; 856  : 		*keysite;
; 857  : 
; 858  : 	entity_sides
; 859  : 		side;
; 860  : 
; 861  : 	ASSERT (structure);

  00009	83 7d 08 00	 cmp	 DWORD PTR _structure$[ebp], 0
  0000d	75 18		 jne	 SHORT $LN2@notify_key
  0000f	a1 00 00 00 00	 mov	 eax, DWORD PTR ?__LINE__Var@?0??notify_keysite_structure_under_attack@@YGXPAUENTITY@@0@Z@4JA
  00014	83 c0 08	 add	 eax, 8
  00017	50		 push	 eax
  00018	68 00 00 00 00	 push	 OFFSET ??_C@_0EN@PIOGLIPD@c?3?2users?2nhv90?2projects?2eech?2ap@
  0001d	68 00 00 00 00	 push	 OFFSET ??_C@_09GNENBKCD@structure@
  00022	e8 00 00 00 00	 call	 ?process_assert@@YGXPBD0H@Z ; process_assert
$LN2@notify_key:

; 862  : 
; 863  : 	ASSERT (aggressor);

  00027	83 7d 0c 00	 cmp	 DWORD PTR _aggressor$[ebp], 0
  0002b	75 18		 jne	 SHORT $LN3@notify_key
  0002d	a1 00 00 00 00	 mov	 eax, DWORD PTR ?__LINE__Var@?0??notify_keysite_structure_under_attack@@YGXPAUENTITY@@0@Z@4JA
  00032	83 c0 0a	 add	 eax, 10			; 0000000aH
  00035	50		 push	 eax
  00036	68 00 00 00 00	 push	 OFFSET ??_C@_0EN@PIOGLIPD@c?3?2users?2nhv90?2projects?2eech?2ap@
  0003b	68 00 00 00 00	 push	 OFFSET ??_C@_09HKMIOAOH@aggressor@
  00040	e8 00 00 00 00	 call	 ?process_assert@@YGXPBD0H@Z ; process_assert
$LN3@notify_key:

; 864  : 
; 865  : 	ASSERT (get_comms_model () == COMMS_MODEL_SERVER);

  00045	83 3d 00 00 00
	00 00		 cmp	 DWORD PTR ?system_comms_model@@3W4COMMS_MODEL_TYPES@@A, 0 ; system_comms_model
  0004c	74 18		 je	 SHORT $LN4@notify_key
  0004e	a1 00 00 00 00	 mov	 eax, DWORD PTR ?__LINE__Var@?0??notify_keysite_structure_under_attack@@YGXPAUENTITY@@0@Z@4JA
  00053	83 c0 0c	 add	 eax, 12			; 0000000cH
  00056	50		 push	 eax
  00057	68 00 00 00 00	 push	 OFFSET ??_C@_0EN@PIOGLIPD@c?3?2users?2nhv90?2projects?2eech?2ap@
  0005c	68 00 00 00 00	 push	 OFFSET ??_C@_0CJ@DMBLBJBK@get_comms_model?5?$CI?$CJ?5?$DN?$DN?5COMMS_MOD@
  00061	e8 00 00 00 00	 call	 ?process_assert@@YGXPBD0H@Z ; process_assert
$LN4@notify_key:

; 866  : 
; 867  : 	if (!get_local_entity_int_value (aggressor, INT_TYPE_ALIVE))

  00066	83 7d 0c 00	 cmp	 DWORD PTR _aggressor$[ebp], 0
  0006a	74 0a		 je	 SHORT $LN15@notify_key
  0006c	8b 45 0c	 mov	 eax, DWORD PTR _aggressor$[ebp]
  0006f	8b 08		 mov	 ecx, DWORD PTR [eax]
  00071	89 4d b0	 mov	 DWORD PTR tv84[ebp], ecx
  00074	eb 1d		 jmp	 SHORT $LN16@notify_key
$LN15@notify_key:
  00076	68 63 03 00 00	 push	 867			; 00000363H
  0007b	68 00 00 00 00	 push	 OFFSET ??_C@_0EN@PIOGLIPD@c?3?2users?2nhv90?2projects?2eech?2ap@
  00080	8b 15 00 00 00
	00		 mov	 edx, DWORD PTR ?null_entity_pointer_message@@3PBDB ; null_entity_pointer_message
  00086	52		 push	 edx
  00087	e8 00 00 00 00	 call	 ?process_assert@@YGXPBD0H@Z ; process_assert
  0008c	c7 45 b0 00 00
	00 00		 mov	 DWORD PTR tv84[ebp], 0
$LN16@notify_key:
  00093	b8 01 00 00 00	 mov	 eax, 1
  00098	85 c0		 test	 eax, eax
  0009a	74 09		 je	 SHORT $LN17@notify_key
  0009c	c7 45 ac 07 00
	00 00		 mov	 DWORD PTR tv91[ebp], 7
  000a3	eb 1d		 jmp	 SHORT $LN18@notify_key
$LN17@notify_key:
  000a5	68 63 03 00 00	 push	 867			; 00000363H
  000aa	68 00 00 00 00	 push	 OFFSET ??_C@_0EN@PIOGLIPD@c?3?2users?2nhv90?2projects?2eech?2ap@
  000af	8b 0d 00 00 00
	00		 mov	 ecx, DWORD PTR ?overload_invalid_int_type_message@@3PBDB ; overload_invalid_int_type_message
  000b5	51		 push	 ecx
  000b6	e8 00 00 00 00	 call	 ?process_assert@@YGXPBD0H@Z ; process_assert
  000bb	c7 45 ac 00 00
	00 00		 mov	 DWORD PTR tv91[ebp], 0
$LN18@notify_key:
  000c2	6a 07		 push	 7
  000c4	8b 55 0c	 mov	 edx, DWORD PTR _aggressor$[ebp]
  000c7	52		 push	 edx
  000c8	69 45 b0 5c 04
	00 00		 imul	 eax, DWORD PTR tv84[ebp], 1116
  000cf	8b 4d ac	 mov	 ecx, DWORD PTR tv91[ebp]
  000d2	8b 94 88 00 00
	00 00		 mov	 edx, DWORD PTR ?fn_get_local_entity_int_value@@3PAY0BBH@P6GHPAUENTITY@@W4INT_TYPES@@@ZA[eax+ecx*4]
  000d9	ff d2		 call	 edx
  000db	85 c0		 test	 eax, eax
  000dd	75 05		 jne	 SHORT $LN5@notify_key

; 868  : 	{
; 869  : 		return;

  000df	e9 71 04 00 00	 jmp	 $LN1@notify_key
$LN5@notify_key:

; 870  : 	}
; 871  : 
; 872  : 	keysite = get_fixed_structure_keysite_entity (structure);

  000e4	8b 45 08	 mov	 eax, DWORD PTR _structure$[ebp]
  000e7	50		 push	 eax
  000e8	e8 00 00 00 00	 call	 ?get_fixed_structure_keysite_entity@@YGPAUENTITY@@PAU1@@Z ; get_fixed_structure_keysite_entity
  000ed	89 45 f8	 mov	 DWORD PTR _keysite$[ebp], eax

; 873  : 
; 874  : 	if (!keysite)

  000f0	83 7d f8 00	 cmp	 DWORD PTR _keysite$[ebp], 0
  000f4	75 05		 jne	 SHORT $LN6@notify_key

; 875  : 	{
; 876  : 		return;

  000f6	e9 5a 04 00 00	 jmp	 $LN1@notify_key
$LN6@notify_key:

; 877  : 	}
; 878  : 
; 879  : 	side = (entity_sides) get_local_entity_int_value (keysite, INT_TYPE_SIDE);

  000fb	83 7d f8 00	 cmp	 DWORD PTR _keysite$[ebp], 0
  000ff	74 0a		 je	 SHORT $LN19@notify_key
  00101	8b 45 f8	 mov	 eax, DWORD PTR _keysite$[ebp]
  00104	8b 08		 mov	 ecx, DWORD PTR [eax]
  00106	89 4d b0	 mov	 DWORD PTR tv139[ebp], ecx
  00109	eb 21		 jmp	 SHORT $LN20@notify_key
$LN19@notify_key:
  0010b	8b 15 00 00 00
	00		 mov	 edx, DWORD PTR ?__LINE__Var@?0??notify_keysite_structure_under_attack@@YGXPAUENTITY@@0@Z@4JA
  00111	83 c2 1a	 add	 edx, 26			; 0000001aH
  00114	52		 push	 edx
  00115	68 00 00 00 00	 push	 OFFSET ??_C@_0EN@PIOGLIPD@c?3?2users?2nhv90?2projects?2eech?2ap@
  0011a	a1 00 00 00 00	 mov	 eax, DWORD PTR ?null_entity_pointer_message@@3PBDB ; null_entity_pointer_message
  0011f	50		 push	 eax
  00120	e8 00 00 00 00	 call	 ?process_assert@@YGXPBD0H@Z ; process_assert
  00125	c7 45 b0 00 00
	00 00		 mov	 DWORD PTR tv139[ebp], 0
$LN20@notify_key:
  0012c	b9 01 00 00 00	 mov	 ecx, 1
  00131	85 c9		 test	 ecx, ecx
  00133	74 09		 je	 SHORT $LN21@notify_key
  00135	c7 45 ac bb 00
	00 00		 mov	 DWORD PTR tv147[ebp], 187 ; 000000bbH
  0013c	eb 21		 jmp	 SHORT $LN22@notify_key
$LN21@notify_key:
  0013e	8b 15 00 00 00
	00		 mov	 edx, DWORD PTR ?__LINE__Var@?0??notify_keysite_structure_under_attack@@YGXPAUENTITY@@0@Z@4JA
  00144	83 c2 1a	 add	 edx, 26			; 0000001aH
  00147	52		 push	 edx
  00148	68 00 00 00 00	 push	 OFFSET ??_C@_0EN@PIOGLIPD@c?3?2users?2nhv90?2projects?2eech?2ap@
  0014d	a1 00 00 00 00	 mov	 eax, DWORD PTR ?overload_invalid_int_type_message@@3PBDB ; overload_invalid_int_type_message
  00152	50		 push	 eax
  00153	e8 00 00 00 00	 call	 ?process_assert@@YGXPBD0H@Z ; process_assert
  00158	c7 45 ac 00 00
	00 00		 mov	 DWORD PTR tv147[ebp], 0
$LN22@notify_key:
  0015f	68 bb 00 00 00	 push	 187			; 000000bbH
  00164	8b 4d f8	 mov	 ecx, DWORD PTR _keysite$[ebp]
  00167	51		 push	 ecx
  00168	69 55 b0 5c 04
	00 00		 imul	 edx, DWORD PTR tv139[ebp], 1116
  0016f	8b 45 ac	 mov	 eax, DWORD PTR tv147[ebp]
  00172	8b 8c 82 00 00
	00 00		 mov	 ecx, DWORD PTR ?fn_get_local_entity_int_value@@3PAY0BBH@P6GHPAUENTITY@@W4INT_TYPES@@@ZA[edx+eax*4]
  00179	ff d1		 call	 ecx
  0017b	89 45 f4	 mov	 DWORD PTR _side$[ebp], eax

; 880  : 	
; 881  : 	if (get_local_entity_int_value (aggressor, INT_TYPE_SIDE) == side)

  0017e	83 7d 0c 00	 cmp	 DWORD PTR _aggressor$[ebp], 0
  00182	74 0a		 je	 SHORT $LN23@notify_key
  00184	8b 45 0c	 mov	 eax, DWORD PTR _aggressor$[ebp]
  00187	8b 08		 mov	 ecx, DWORD PTR [eax]
  00189	89 4d b0	 mov	 DWORD PTR tv158[ebp], ecx
  0018c	eb 1d		 jmp	 SHORT $LN24@notify_key
$LN23@notify_key:
  0018e	68 71 03 00 00	 push	 881			; 00000371H
  00193	68 00 00 00 00	 push	 OFFSET ??_C@_0EN@PIOGLIPD@c?3?2users?2nhv90?2projects?2eech?2ap@
  00198	8b 15 00 00 00
	00		 mov	 edx, DWORD PTR ?null_entity_pointer_message@@3PBDB ; null_entity_pointer_message
  0019e	52		 push	 edx
  0019f	e8 00 00 00 00	 call	 ?process_assert@@YGXPBD0H@Z ; process_assert
  001a4	c7 45 b0 00 00
	00 00		 mov	 DWORD PTR tv158[ebp], 0
$LN24@notify_key:
  001ab	b8 01 00 00 00	 mov	 eax, 1
  001b0	85 c0		 test	 eax, eax
  001b2	74 09		 je	 SHORT $LN25@notify_key
  001b4	c7 45 ac bb 00
	00 00		 mov	 DWORD PTR tv165[ebp], 187 ; 000000bbH
  001bb	eb 1d		 jmp	 SHORT $LN26@notify_key
$LN25@notify_key:
  001bd	68 71 03 00 00	 push	 881			; 00000371H
  001c2	68 00 00 00 00	 push	 OFFSET ??_C@_0EN@PIOGLIPD@c?3?2users?2nhv90?2projects?2eech?2ap@
  001c7	8b 0d 00 00 00
	00		 mov	 ecx, DWORD PTR ?overload_invalid_int_type_message@@3PBDB ; overload_invalid_int_type_message
  001cd	51		 push	 ecx
  001ce	e8 00 00 00 00	 call	 ?process_assert@@YGXPBD0H@Z ; process_assert
  001d3	c7 45 ac 00 00
	00 00		 mov	 DWORD PTR tv165[ebp], 0
$LN26@notify_key:
  001da	68 bb 00 00 00	 push	 187			; 000000bbH
  001df	8b 55 0c	 mov	 edx, DWORD PTR _aggressor$[ebp]
  001e2	52		 push	 edx
  001e3	69 45 b0 5c 04
	00 00		 imul	 eax, DWORD PTR tv158[ebp], 1116
  001ea	8b 4d ac	 mov	 ecx, DWORD PTR tv165[ebp]
  001ed	8b 94 88 00 00
	00 00		 mov	 edx, DWORD PTR ?fn_get_local_entity_int_value@@3PAY0BBH@P6GHPAUENTITY@@W4INT_TYPES@@@ZA[eax+ecx*4]
  001f4	ff d2		 call	 edx
  001f6	3b 45 f4	 cmp	 eax, DWORD PTR _side$[ebp]
  001f9	0f 85 88 00 00
	00		 jne	 $LN9@notify_key

; 882  : 	{
; 883  : 		if (get_local_entity_int_value (aggressor, INT_TYPE_PLAYER) == ENTITY_PLAYER_AI)

  001ff	83 7d 0c 00	 cmp	 DWORD PTR _aggressor$[ebp], 0
  00203	74 0a		 je	 SHORT $LN27@notify_key
  00205	8b 45 0c	 mov	 eax, DWORD PTR _aggressor$[ebp]
  00208	8b 08		 mov	 ecx, DWORD PTR [eax]
  0020a	89 4d b0	 mov	 DWORD PTR tv177[ebp], ecx
  0020d	eb 1d		 jmp	 SHORT $LN28@notify_key
$LN27@notify_key:
  0020f	68 73 03 00 00	 push	 883			; 00000373H
  00214	68 00 00 00 00	 push	 OFFSET ??_C@_0EN@PIOGLIPD@c?3?2users?2nhv90?2projects?2eech?2ap@
  00219	8b 15 00 00 00
	00		 mov	 edx, DWORD PTR ?null_entity_pointer_message@@3PBDB ; null_entity_pointer_message
  0021f	52		 push	 edx
  00220	e8 00 00 00 00	 call	 ?process_assert@@YGXPBD0H@Z ; process_assert
  00225	c7 45 b0 00 00
	00 00		 mov	 DWORD PTR tv177[ebp], 0
$LN28@notify_key:
  0022c	b8 01 00 00 00	 mov	 eax, 1
  00231	85 c0		 test	 eax, eax
  00233	74 09		 je	 SHORT $LN29@notify_key
  00235	c7 45 ac 9c 00
	00 00		 mov	 DWORD PTR tv184[ebp], 156 ; 0000009cH
  0023c	eb 1d		 jmp	 SHORT $LN30@notify_key
$LN29@notify_key:
  0023e	68 73 03 00 00	 push	 883			; 00000373H
  00243	68 00 00 00 00	 push	 OFFSET ??_C@_0EN@PIOGLIPD@c?3?2users?2nhv90?2projects?2eech?2ap@
  00248	8b 0d 00 00 00
	00		 mov	 ecx, DWORD PTR ?overload_invalid_int_type_message@@3PBDB ; overload_invalid_int_type_message
  0024e	51		 push	 ecx
  0024f	e8 00 00 00 00	 call	 ?process_assert@@YGXPBD0H@Z ; process_assert
  00254	c7 45 ac 00 00
	00 00		 mov	 DWORD PTR tv184[ebp], 0
$LN30@notify_key:
  0025b	68 9c 00 00 00	 push	 156			; 0000009cH
  00260	8b 55 0c	 mov	 edx, DWORD PTR _aggressor$[ebp]
  00263	52		 push	 edx
  00264	69 45 b0 5c 04
	00 00		 imul	 eax, DWORD PTR tv177[ebp], 1116
  0026b	8b 4d ac	 mov	 ecx, DWORD PTR tv184[ebp]
  0026e	8b 94 88 00 00
	00 00		 mov	 edx, DWORD PTR ?fn_get_local_entity_int_value@@3PAY0BBH@P6GHPAUENTITY@@W4INT_TYPES@@@ZA[eax+ecx*4]
  00275	ff d2		 call	 edx
  00277	85 c0		 test	 eax, eax
  00279	75 07		 jne	 SHORT $LN8@notify_key

; 884  : 		{
; 885  : 			//
; 886  : 			// Ignore AI Friendly Fire (usually accidental)
; 887  : 			//
; 888  : 
; 889  : 			return;

  0027b	e9 d5 02 00 00	 jmp	 $LN1@notify_key

; 890  : 		}
; 891  : 		else

  00280	eb 05		 jmp	 SHORT $LN9@notify_key
$LN8@notify_key:

; 892  : 		{
; 893  : 			//
; 894  : 			// For the player, we could possibly allow a number of FF incidents before things start firing back
; 895  : 			//
; 896  : 			
; 897  : 			return;

  00282	e9 ce 02 00 00	 jmp	 $LN1@notify_key
$LN9@notify_key:

; 898  : 		}
; 899  : 	}
; 900  : 
; 901  : 	if (get_local_entity_float_value (keysite, FLOAT_TYPE_ASSIST_TIMER) == 0.0)

  00287	83 7d f8 00	 cmp	 DWORD PTR _keysite$[ebp], 0
  0028b	74 0a		 je	 SHORT $LN31@notify_key
  0028d	8b 45 f8	 mov	 eax, DWORD PTR _keysite$[ebp]
  00290	8b 08		 mov	 ecx, DWORD PTR [eax]
  00292	89 4d b0	 mov	 DWORD PTR tv196[ebp], ecx
  00295	eb 1d		 jmp	 SHORT $LN32@notify_key
$LN31@notify_key:
  00297	68 85 03 00 00	 push	 901			; 00000385H
  0029c	68 00 00 00 00	 push	 OFFSET ??_C@_0EN@PIOGLIPD@c?3?2users?2nhv90?2projects?2eech?2ap@
  002a1	8b 15 00 00 00
	00		 mov	 edx, DWORD PTR ?null_entity_pointer_message@@3PBDB ; null_entity_pointer_message
  002a7	52		 push	 edx
  002a8	e8 00 00 00 00	 call	 ?process_assert@@YGXPBD0H@Z ; process_assert
  002ad	c7 45 b0 00 00
	00 00		 mov	 DWORD PTR tv196[ebp], 0
$LN32@notify_key:
  002b4	b8 01 00 00 00	 mov	 eax, 1
  002b9	85 c0		 test	 eax, eax
  002bb	74 09		 je	 SHORT $LN33@notify_key
  002bd	c7 45 ac 0d 00
	00 00		 mov	 DWORD PTR tv203[ebp], 13 ; 0000000dH
  002c4	eb 1d		 jmp	 SHORT $LN34@notify_key
$LN33@notify_key:
  002c6	68 85 03 00 00	 push	 901			; 00000385H
  002cb	68 00 00 00 00	 push	 OFFSET ??_C@_0EN@PIOGLIPD@c?3?2users?2nhv90?2projects?2eech?2ap@
  002d0	8b 0d 00 00 00
	00		 mov	 ecx, DWORD PTR ?overload_invalid_float_type_message@@3PBDB ; overload_invalid_float_type_message
  002d6	51		 push	 ecx
  002d7	e8 00 00 00 00	 call	 ?process_assert@@YGXPBD0H@Z ; process_assert
  002dc	c7 45 ac 00 00
	00 00		 mov	 DWORD PTR tv203[ebp], 0
$LN34@notify_key:
  002e3	6a 0d		 push	 13			; 0000000dH
  002e5	8b 55 f8	 mov	 edx, DWORD PTR _keysite$[ebp]
  002e8	52		 push	 edx
  002e9	69 45 b0 bc 02
	00 00		 imul	 eax, DWORD PTR tv196[ebp], 700
  002f0	8b 4d ac	 mov	 ecx, DWORD PTR tv203[ebp]
  002f3	8b 94 88 00 00
	00 00		 mov	 edx, DWORD PTR ?fn_get_local_entity_float_value@@3PAY0KP@P6GMPAUENTITY@@W4FLOAT_TYPES@@@ZA[eax+ecx*4]
  002fa	ff d2		 call	 edx
  002fc	dd 5d a4	 fstp	 QWORD PTR tv359[ebp]
  002ff	f2 0f 10 45 a4	 movsd	 xmm0, QWORD PTR tv359[ebp]
  00304	66 0f 2e 05 00
	00 00 00	 ucomisd xmm0, QWORD PTR __real@0000000000000000
  0030c	9f		 lahf
  0030d	f6 c4 44	 test	 ah, 68			; 00000044H
  00310	0f 8a 3f 02 00
	00		 jp	 $LN10@notify_key

; 902  : 	{
; 903  : 		set_local_entity_float_value (keysite, FLOAT_TYPE_ASSIST_TIMER, DEFAULT_KEYSITE_ASSISTANCE_REQUEST_TIMER);

  00316	83 7d f8 00	 cmp	 DWORD PTR _keysite$[ebp], 0
  0031a	74 0a		 je	 SHORT $LN35@notify_key
  0031c	8b 45 f8	 mov	 eax, DWORD PTR _keysite$[ebp]
  0031f	8b 08		 mov	 ecx, DWORD PTR [eax]
  00321	89 4d b0	 mov	 DWORD PTR tv217[ebp], ecx
  00324	eb 21		 jmp	 SHORT $LN36@notify_key
$LN35@notify_key:
  00326	8b 15 00 00 00
	00		 mov	 edx, DWORD PTR ?__LINE__Var@?0??notify_keysite_structure_under_attack@@YGXPAUENTITY@@0@Z@4JA
  0032c	83 c2 32	 add	 edx, 50			; 00000032H
  0032f	52		 push	 edx
  00330	68 00 00 00 00	 push	 OFFSET ??_C@_0EN@PIOGLIPD@c?3?2users?2nhv90?2projects?2eech?2ap@
  00335	a1 00 00 00 00	 mov	 eax, DWORD PTR ?null_entity_pointer_message@@3PBDB ; null_entity_pointer_message
  0033a	50		 push	 eax
  0033b	e8 00 00 00 00	 call	 ?process_assert@@YGXPBD0H@Z ; process_assert
  00340	c7 45 b0 00 00
	00 00		 mov	 DWORD PTR tv217[ebp], 0
$LN36@notify_key:
  00347	b9 01 00 00 00	 mov	 ecx, 1
  0034c	85 c9		 test	 ecx, ecx
  0034e	74 09		 je	 SHORT $LN37@notify_key
  00350	c7 45 ac 0d 00
	00 00		 mov	 DWORD PTR tv225[ebp], 13 ; 0000000dH
  00357	eb 21		 jmp	 SHORT $LN38@notify_key
$LN37@notify_key:
  00359	8b 15 00 00 00
	00		 mov	 edx, DWORD PTR ?__LINE__Var@?0??notify_keysite_structure_under_attack@@YGXPAUENTITY@@0@Z@4JA
  0035f	83 c2 32	 add	 edx, 50			; 00000032H
  00362	52		 push	 edx
  00363	68 00 00 00 00	 push	 OFFSET ??_C@_0EN@PIOGLIPD@c?3?2users?2nhv90?2projects?2eech?2ap@
  00368	a1 00 00 00 00	 mov	 eax, DWORD PTR ?overload_invalid_float_type_message@@3PBDB ; overload_invalid_float_type_message
  0036d	50		 push	 eax
  0036e	e8 00 00 00 00	 call	 ?process_assert@@YGXPBD0H@Z ; process_assert
  00373	c7 45 ac 00 00
	00 00		 mov	 DWORD PTR tv225[ebp], 0
$LN38@notify_key:
  0037a	69 0d 00 00 00
	00 6d 4e c6 41	 imul	 ecx, DWORD PTR ?random_number_seed@@3HA, 1103515245 ; random_number_seed
  00384	81 c1 39 30 00
	00		 add	 ecx, 12345		; 00003039H
  0038a	89 0d 00 00 00
	00		 mov	 DWORD PTR ?random_number_seed@@3HA, ecx ; random_number_seed
  00390	8b 15 00 00 00
	00		 mov	 edx, DWORD PTR ?random_number_seed@@3HA ; random_number_seed
  00396	c1 fa 10	 sar	 edx, 16			; 00000010H
  00399	81 e2 ff 7f 00
	00		 and	 edx, 32767		; 00007fffH
  0039f	81 ea 00 40 00
	00		 sub	 edx, 16384		; 00004000H
  003a5	f2 0f 2a c2	 cvtsi2sd xmm0, edx
  003a9	f2 0f 59 05 00
	00 00 00	 mulsd	 xmm0, QWORD PTR __real@3f10000000000000
  003b1	f2 0f 59 05 00
	00 00 00	 mulsd	 xmm0, QWORD PTR __real@4034000000000000
  003b9	f2 0f 58 05 00
	00 00 00	 addsd	 xmm0, QWORD PTR __real@404e000000000000
  003c1	f2 0f 5a c0	 cvtsd2ss xmm0, xmm0
  003c5	51		 push	 ecx
  003c6	f3 0f 11 04 24	 movss	 DWORD PTR [esp], xmm0
  003cb	6a 0d		 push	 13			; 0000000dH
  003cd	8b 45 f8	 mov	 eax, DWORD PTR _keysite$[ebp]
  003d0	50		 push	 eax
  003d1	69 4d b0 bc 02
	00 00		 imul	 ecx, DWORD PTR tv217[ebp], 700
  003d8	8b 55 ac	 mov	 edx, DWORD PTR tv225[ebp]
  003db	8b 84 91 00 00
	00 00		 mov	 eax, DWORD PTR ?fn_set_local_entity_float_value@@3PAY0KP@P6GXPAUENTITY@@W4FLOAT_TYPES@@M@ZA[ecx+edx*4]
  003e2	ff d0		 call	 eax

; 904  : 
; 905  : 		if (get_local_entity_int_value (aggressor, INT_TYPE_IDENTIFY_AIRCRAFT))

  003e4	83 7d 0c 00	 cmp	 DWORD PTR _aggressor$[ebp], 0
  003e8	74 0a		 je	 SHORT $LN39@notify_key
  003ea	8b 45 0c	 mov	 eax, DWORD PTR _aggressor$[ebp]
  003ed	8b 08		 mov	 ecx, DWORD PTR [eax]
  003ef	89 4d b0	 mov	 DWORD PTR tv248[ebp], ecx
  003f2	eb 1d		 jmp	 SHORT $LN40@notify_key
$LN39@notify_key:
  003f4	68 89 03 00 00	 push	 905			; 00000389H
  003f9	68 00 00 00 00	 push	 OFFSET ??_C@_0EN@PIOGLIPD@c?3?2users?2nhv90?2projects?2eech?2ap@
  003fe	8b 15 00 00 00
	00		 mov	 edx, DWORD PTR ?null_entity_pointer_message@@3PBDB ; null_entity_pointer_message
  00404	52		 push	 edx
  00405	e8 00 00 00 00	 call	 ?process_assert@@YGXPBD0H@Z ; process_assert
  0040a	c7 45 b0 00 00
	00 00		 mov	 DWORD PTR tv248[ebp], 0
$LN40@notify_key:
  00411	b8 01 00 00 00	 mov	 eax, 1
  00416	85 c0		 test	 eax, eax
  00418	74 09		 je	 SHORT $LN41@notify_key
  0041a	c7 45 ac 57 00
	00 00		 mov	 DWORD PTR tv255[ebp], 87 ; 00000057H
  00421	eb 1d		 jmp	 SHORT $LN42@notify_key
$LN41@notify_key:
  00423	68 89 03 00 00	 push	 905			; 00000389H
  00428	68 00 00 00 00	 push	 OFFSET ??_C@_0EN@PIOGLIPD@c?3?2users?2nhv90?2projects?2eech?2ap@
  0042d	8b 0d 00 00 00
	00		 mov	 ecx, DWORD PTR ?overload_invalid_int_type_message@@3PBDB ; overload_invalid_int_type_message
  00433	51		 push	 ecx
  00434	e8 00 00 00 00	 call	 ?process_assert@@YGXPBD0H@Z ; process_assert
  00439	c7 45 ac 00 00
	00 00		 mov	 DWORD PTR tv255[ebp], 0
$LN42@notify_key:
  00440	6a 57		 push	 87			; 00000057H
  00442	8b 55 0c	 mov	 edx, DWORD PTR _aggressor$[ebp]
  00445	52		 push	 edx
  00446	69 45 b0 5c 04
	00 00		 imul	 eax, DWORD PTR tv248[ebp], 1116
  0044d	8b 4d ac	 mov	 ecx, DWORD PTR tv255[ebp]
  00450	8b 94 88 00 00
	00 00		 mov	 edx, DWORD PTR ?fn_get_local_entity_int_value@@3PAY0BBH@P6GHPAUENTITY@@W4INT_TYPES@@@ZA[eax+ecx*4]
  00457	ff d2		 call	 edx
  00459	85 c0		 test	 eax, eax
  0045b	74 62		 je	 SHORT $LN11@notify_key

; 906  : 		{
; 907  : 			if (!entity_is_object_of_task (keysite, ENTITY_SUB_TYPE_TASK_COMBAT_AIR_PATROL, side))

  0045d	8b 45 f4	 mov	 eax, DWORD PTR _side$[ebp]
  00460	50		 push	 eax
  00461	6a 08		 push	 8
  00463	8b 4d f8	 mov	 ecx, DWORD PTR _keysite$[ebp]
  00466	51		 push	 ecx
  00467	e8 00 00 00 00	 call	 ?entity_is_object_of_task@@YGHPAUENTITY@@HW4ENTITY_SIDES@@@Z ; entity_is_object_of_task
  0046c	85 c0		 test	 eax, eax
  0046e	75 4f		 jne	 SHORT $LN13@notify_key

; 908  : 			{
; 909  : 				//
; 910  : 				// Create CAP task
; 911  : 				//
; 912  : 	
; 913  : 				create_cap_task (side, keysite, aggressor, TRUE, 10.0, 15.0 * ONE_MINUTE, keysite, keysite);

  00470	8b 45 f8	 mov	 eax, DWORD PTR _keysite$[ebp]
  00473	50		 push	 eax
  00474	8b 4d f8	 mov	 ecx, DWORD PTR _keysite$[ebp]
  00477	51		 push	 ecx
  00478	51		 push	 ecx
  00479	f3 0f 10 05 00
	00 00 00	 movss	 xmm0, DWORD PTR __real@44610000
  00481	f3 0f 11 04 24	 movss	 DWORD PTR [esp], xmm0
  00486	51		 push	 ecx
  00487	f3 0f 10 05 00
	00 00 00	 movss	 xmm0, DWORD PTR __real@41200000
  0048f	f3 0f 11 04 24	 movss	 DWORD PTR [esp], xmm0
  00494	6a 01		 push	 1
  00496	8b 55 0c	 mov	 edx, DWORD PTR _aggressor$[ebp]
  00499	52		 push	 edx
  0049a	8b 45 f8	 mov	 eax, DWORD PTR _keysite$[ebp]
  0049d	50		 push	 eax
  0049e	8b 4d f4	 mov	 ecx, DWORD PTR _side$[ebp]
  004a1	51		 push	 ecx
  004a2	e8 00 00 00 00	 call	 ?create_cap_task@@YGPAUENTITY@@W4ENTITY_SIDES@@PAU1@1HMM11@Z ; create_cap_task

; 914  : 	
; 915  : 				//
; 916  : 				// force assign
; 917  : 				//
; 918  : 				
; 919  : 				assign_keysite_tasks (keysite, task_database [ENTITY_SUB_TYPE_TASK_COMBAT_AIR_PATROL].task_category);

  004a7	b8 50 00 00 00	 mov	 eax, 80			; 00000050H
  004ac	c1 e0 03	 shl	 eax, 3
  004af	8b 88 0c 00 00
	00		 mov	 ecx, DWORD PTR ?task_database@@3PAUTASK_DATA@@A[eax+12]
  004b5	51		 push	 ecx
  004b6	8b 55 f8	 mov	 edx, DWORD PTR _keysite$[ebp]
  004b9	52		 push	 edx
  004ba	e8 00 00 00 00	 call	 ?assign_keysite_tasks@@YGXPAUENTITY@@W4TASK_CATEGORY_TYPES@@@Z ; assign_keysite_tasks
$LN13@notify_key:
$LN11@notify_key:

; 920  : 			}
; 921  : 		}
; 922  : 		else
; 923  : 		{
; 924  : 			//
; 925  : 			// Create Scout task ?
; 926  : 			//
; 927  : 		}
; 928  : 	
; 929  : 		//
; 930  : 		// Request assistance from airborne aircraft 
; 931  : 		//
; 932  : 
; 933  : 		force = get_local_entity_parent (keysite, LIST_TYPE_KEYSITE_FORCE);

  004bf	83 7d f8 00	 cmp	 DWORD PTR _keysite$[ebp], 0
  004c3	74 0a		 je	 SHORT $LN43@notify_key
  004c5	8b 45 f8	 mov	 eax, DWORD PTR _keysite$[ebp]
  004c8	8b 08		 mov	 ecx, DWORD PTR [eax]
  004ca	89 4d b0	 mov	 DWORD PTR tv286[ebp], ecx
  004cd	eb 21		 jmp	 SHORT $LN44@notify_key
$LN43@notify_key:
  004cf	8b 15 00 00 00
	00		 mov	 edx, DWORD PTR ?__LINE__Var@?0??notify_keysite_structure_under_attack@@YGXPAUENTITY@@0@Z@4JA
  004d5	83 c2 50	 add	 edx, 80			; 00000050H
  004d8	52		 push	 edx
  004d9	68 00 00 00 00	 push	 OFFSET ??_C@_0EN@PIOGLIPD@c?3?2users?2nhv90?2projects?2eech?2ap@
  004de	a1 00 00 00 00	 mov	 eax, DWORD PTR ?null_entity_pointer_message@@3PBDB ; null_entity_pointer_message
  004e3	50		 push	 eax
  004e4	e8 00 00 00 00	 call	 ?process_assert@@YGXPBD0H@Z ; process_assert
  004e9	c7 45 b0 00 00
	00 00		 mov	 DWORD PTR tv286[ebp], 0
$LN44@notify_key:
  004f0	b9 01 00 00 00	 mov	 ecx, 1
  004f5	85 c9		 test	 ecx, ecx
  004f7	74 09		 je	 SHORT $LN45@notify_key
  004f9	c7 45 ac 15 00
	00 00		 mov	 DWORD PTR tv294[ebp], 21 ; 00000015H
  00500	eb 21		 jmp	 SHORT $LN46@notify_key
$LN45@notify_key:
  00502	8b 15 00 00 00
	00		 mov	 edx, DWORD PTR ?__LINE__Var@?0??notify_keysite_structure_under_attack@@YGXPAUENTITY@@0@Z@4JA
  00508	83 c2 50	 add	 edx, 80			; 00000050H
  0050b	52		 push	 edx
  0050c	68 00 00 00 00	 push	 OFFSET ??_C@_0EN@PIOGLIPD@c?3?2users?2nhv90?2projects?2eech?2ap@
  00511	a1 00 00 00 00	 mov	 eax, DWORD PTR ?overload_invalid_list_type_message@@3PBDB ; overload_invalid_list_type_message
  00516	50		 push	 eax
  00517	e8 00 00 00 00	 call	 ?process_assert@@YGXPBD0H@Z ; process_assert
  0051c	c7 45 ac 00 00
	00 00		 mov	 DWORD PTR tv294[ebp], 0
$LN46@notify_key:
  00523	6a 15		 push	 21			; 00000015H
  00525	8b 4d f8	 mov	 ecx, DWORD PTR _keysite$[ebp]
  00528	51		 push	 ecx
  00529	69 55 b0 b4 00
	00 00		 imul	 edx, DWORD PTR tv286[ebp], 180
  00530	8b 45 ac	 mov	 eax, DWORD PTR tv294[ebp]
  00533	8b 8c 82 00 00
	00 00		 mov	 ecx, DWORD PTR ?fn_get_local_entity_parent@@3PAY0CN@P6GPAUENTITY@@PAU1@W4LIST_TYPES@@@ZA[edx+eax*4]
  0053a	ff d1		 call	 ecx
  0053c	89 45 fc	 mov	 DWORD PTR _force$[ebp], eax

; 934  : 	
; 935  : 		notify_local_entity (ENTITY_MESSAGE_REQUEST_ASSISTANCE, force, keysite, aggressor);

  0053f	8b 45 0c	 mov	 eax, DWORD PTR _aggressor$[ebp]
  00542	50		 push	 eax
  00543	8b 4d f8	 mov	 ecx, DWORD PTR _keysite$[ebp]
  00546	51		 push	 ecx
  00547	8b 55 fc	 mov	 edx, DWORD PTR _force$[ebp]
  0054a	52		 push	 edx
  0054b	6a 2d		 push	 45			; 0000002dH
  0054d	e8 00 00 00 00	 call	 ?notify_local_entity@@YAHW4ENTITY_MESSAGES@@PAUENTITY@@1ZZ ; notify_local_entity
  00552	83 c4 10	 add	 esp, 16			; 00000010H
$LN10@notify_key:
$LN1@notify_key:

; 936  : 	}
; 937  : }

  00555	5f		 pop	 edi
  00556	5e		 pop	 esi
  00557	5b		 pop	 ebx
  00558	8b e5		 mov	 esp, ebp
  0055a	5d		 pop	 ebp
  0055b	c2 08 00	 ret	 8
?notify_keysite_structure_under_attack@@YGXPAUENTITY@@0@Z ENDP ; notify_keysite_structure_under_attack
_TEXT	ENDS
; Function compile flags: /Odtp /ZI
; File c:\users\nhv90\projects\eech\aphavoc\source\entity\special\keysite\keysite.c
;	COMDAT ?subtract_local_entity_importance_from_keysite@@YGXPAUENTITY@@@Z
_TEXT	SEGMENT
tv347 = -104						; size = 4
tv555 = -100						; size = 4
tv339 = -100						; size = 4
tv435 = -96						; size = 4
tv409 = -96						; size = 4
tv388 = -96						; size = 4
tv326 = -96						; size = 4
tv301 = -96						; size = 4
tv274 = -96						; size = 4
tv249 = -96						; size = 4
tv228 = -96						; size = 4
tv195 = -96						; size = 4
tv168 = -96						; size = 4
tv147 = -96						; size = 4
tv128 = -96						; size = 4
tv427 = -92						; size = 4
tv401 = -92						; size = 4
tv381 = -92						; size = 4
tv370 = -92						; size = 4
tv318 = -92						; size = 4
tv294 = -92						; size = 4
tv267 = -92						; size = 4
tv260 = -92						; size = 4
tv241 = -92						; size = 4
tv220 = -92						; size = 4
tv187 = -92						; size = 4
tv160 = -92						; size = 4
tv140 = -92						; size = 4
tv89 = -92						; size = 4
tv78 = -92						; size = 4
_value$ = -24						; size = 4
_object_index$ = -20					; size = 4
_raw$ = -16						; size = 4
_keysite_en$ = -12					; size = 4
_next$ = -8						; size = 4
_task$ = -4						; size = 4
_en$ = 8						; size = 4
?subtract_local_entity_importance_from_keysite@@YGXPAUENTITY@@@Z PROC ; subtract_local_entity_importance_from_keysite, COMDAT

; 738  : {

  00000	55		 push	 ebp
  00001	8b ec		 mov	 ebp, esp
  00003	83 ec 68	 sub	 esp, 104		; 00000068H
  00006	53		 push	 ebx
  00007	56		 push	 esi
  00008	57		 push	 edi

; 739  : 	entity
; 740  : 		*task,
; 741  : 		*next,
; 742  : 		*keysite_en;
; 743  : 
; 744  : 	keysite
; 745  : 		*raw;
; 746  : 
; 747  : 	int
; 748  : 		object_index;
; 749  : 
; 750  : 	float
; 751  : 		value;
; 752  : 
; 753  : 	ASSERT (en);

  00009	83 7d 08 00	 cmp	 DWORD PTR _en$[ebp], 0
  0000d	75 18		 jne	 SHORT $LN4@subtract_l
  0000f	a1 00 00 00 00	 mov	 eax, DWORD PTR ?__LINE__Var@?0??subtract_local_entity_importance_from_keysite@@YGXPAUENTITY@@@Z@4JA
  00014	83 c0 0f	 add	 eax, 15			; 0000000fH
  00017	50		 push	 eax
  00018	68 00 00 00 00	 push	 OFFSET ??_C@_0EN@PIOGLIPD@c?3?2users?2nhv90?2projects?2eech?2ap@
  0001d	68 00 00 00 00	 push	 OFFSET ??_C@_02LFNMGJAP@en@
  00022	e8 00 00 00 00	 call	 ?process_assert@@YGXPBD0H@Z ; process_assert
$LN4@subtract_l:

; 754  : 
; 755  : 	keysite_en = get_fixed_structure_keysite_entity (en);

  00027	8b 45 08	 mov	 eax, DWORD PTR _en$[ebp]
  0002a	50		 push	 eax
  0002b	e8 00 00 00 00	 call	 ?get_fixed_structure_keysite_entity@@YGPAUENTITY@@PAU1@@Z ; get_fixed_structure_keysite_entity
  00030	89 45 f4	 mov	 DWORD PTR _keysite_en$[ebp], eax

; 756  : 
; 757  : 	if (!keysite_en)

  00033	83 7d f4 00	 cmp	 DWORD PTR _keysite_en$[ebp], 0
  00037	75 05		 jne	 SHORT $LN5@subtract_l

; 758  : 	{
; 759  : 		return;

  00039	e9 74 08 00 00	 jmp	 $LN1@subtract_l
$LN5@subtract_l:

; 760  : 	}
; 761  : 
; 762  : 	ASSERT (get_local_entity_type (keysite_en) == ENTITY_TYPE_KEYSITE);

  0003e	83 7d f4 00	 cmp	 DWORD PTR _keysite_en$[ebp], 0
  00042	74 0a		 je	 SHORT $LN21@subtract_l
  00044	8b 45 f4	 mov	 eax, DWORD PTR _keysite_en$[ebp]
  00047	8b 08		 mov	 ecx, DWORD PTR [eax]
  00049	89 4d a4	 mov	 DWORD PTR tv78[ebp], ecx
  0004c	eb 21		 jmp	 SHORT $LN22@subtract_l
$LN21@subtract_l:
  0004e	8b 15 00 00 00
	00		 mov	 edx, DWORD PTR ?__LINE__Var@?0??subtract_local_entity_importance_from_keysite@@YGXPAUENTITY@@@Z@4JA
  00054	83 c2 18	 add	 edx, 24			; 00000018H
  00057	52		 push	 edx
  00058	68 00 00 00 00	 push	 OFFSET ??_C@_0EN@PIOGLIPD@c?3?2users?2nhv90?2projects?2eech?2ap@
  0005d	a1 00 00 00 00	 mov	 eax, DWORD PTR ?null_entity_pointer_message@@3PBDB ; null_entity_pointer_message
  00062	50		 push	 eax
  00063	e8 00 00 00 00	 call	 ?process_assert@@YGXPBD0H@Z ; process_assert
  00068	c7 45 a4 00 00
	00 00		 mov	 DWORD PTR tv78[ebp], 0
$LN22@subtract_l:
  0006f	83 7d a4 0f	 cmp	 DWORD PTR tv78[ebp], 15	; 0000000fH
  00073	74 18		 je	 SHORT $LN6@subtract_l
  00075	a1 00 00 00 00	 mov	 eax, DWORD PTR ?__LINE__Var@?0??subtract_local_entity_importance_from_keysite@@YGXPAUENTITY@@@Z@4JA
  0007a	83 c0 18	 add	 eax, 24			; 00000018H
  0007d	50		 push	 eax
  0007e	68 00 00 00 00	 push	 OFFSET ??_C@_0EN@PIOGLIPD@c?3?2users?2nhv90?2projects?2eech?2ap@
  00083	68 00 00 00 00	 push	 OFFSET ??_C@_0DK@GNEEOIBD@get_local_entity_type?5?$CIkeysite_@
  00088	e8 00 00 00 00	 call	 ?process_assert@@YGXPBD0H@Z ; process_assert
$LN6@subtract_l:

; 763  : 
; 764  : 	if (get_local_entity_int_value (en, INT_TYPE_ALIVE))

  0008d	83 7d 08 00	 cmp	 DWORD PTR _en$[ebp], 0
  00091	74 0a		 je	 SHORT $LN23@subtract_l
  00093	8b 45 08	 mov	 eax, DWORD PTR _en$[ebp]
  00096	8b 08		 mov	 ecx, DWORD PTR [eax]
  00098	89 4d a4	 mov	 DWORD PTR tv89[ebp], ecx
  0009b	eb 1d		 jmp	 SHORT $LN24@subtract_l
$LN23@subtract_l:
  0009d	68 fc 02 00 00	 push	 764			; 000002fcH
  000a2	68 00 00 00 00	 push	 OFFSET ??_C@_0EN@PIOGLIPD@c?3?2users?2nhv90?2projects?2eech?2ap@
  000a7	8b 15 00 00 00
	00		 mov	 edx, DWORD PTR ?null_entity_pointer_message@@3PBDB ; null_entity_pointer_message
  000ad	52		 push	 edx
  000ae	e8 00 00 00 00	 call	 ?process_assert@@YGXPBD0H@Z ; process_assert
  000b3	c7 45 a4 00 00
	00 00		 mov	 DWORD PTR tv89[ebp], 0
$LN24@subtract_l:
  000ba	b8 01 00 00 00	 mov	 eax, 1
  000bf	85 c0		 test	 eax, eax
  000c1	74 09		 je	 SHORT $LN25@subtract_l
  000c3	c7 45 a0 07 00
	00 00		 mov	 DWORD PTR tv128[ebp], 7
  000ca	eb 1d		 jmp	 SHORT $LN26@subtract_l
$LN25@subtract_l:
  000cc	68 fc 02 00 00	 push	 764			; 000002fcH
  000d1	68 00 00 00 00	 push	 OFFSET ??_C@_0EN@PIOGLIPD@c?3?2users?2nhv90?2projects?2eech?2ap@
  000d6	8b 0d 00 00 00
	00		 mov	 ecx, DWORD PTR ?overload_invalid_int_type_message@@3PBDB ; overload_invalid_int_type_message
  000dc	51		 push	 ecx
  000dd	e8 00 00 00 00	 call	 ?process_assert@@YGXPBD0H@Z ; process_assert
  000e2	c7 45 a0 00 00
	00 00		 mov	 DWORD PTR tv128[ebp], 0
$LN26@subtract_l:
  000e9	6a 07		 push	 7
  000eb	8b 55 08	 mov	 edx, DWORD PTR _en$[ebp]
  000ee	52		 push	 edx
  000ef	69 45 a4 5c 04
	00 00		 imul	 eax, DWORD PTR tv89[ebp], 1116
  000f6	8b 4d a0	 mov	 ecx, DWORD PTR tv128[ebp]
  000f9	8b 94 88 00 00
	00 00		 mov	 edx, DWORD PTR ?fn_get_local_entity_int_value@@3PAY0BBH@P6GHPAUENTITY@@W4INT_TYPES@@@ZA[eax+ecx*4]
  00100	ff d2		 call	 edx
  00102	85 c0		 test	 eax, eax
  00104	0f 84 a8 07 00
	00		 je	 $LN19@subtract_l

; 765  : 	{
; 766  : 		if (get_local_entity_int_value (en, INT_TYPE_IDENTIFY_FIXED))

  0010a	83 7d 08 00	 cmp	 DWORD PTR _en$[ebp], 0
  0010e	74 0a		 je	 SHORT $LN27@subtract_l
  00110	8b 45 08	 mov	 eax, DWORD PTR _en$[ebp]
  00113	8b 08		 mov	 ecx, DWORD PTR [eax]
  00115	89 4d a4	 mov	 DWORD PTR tv140[ebp], ecx
  00118	eb 1d		 jmp	 SHORT $LN28@subtract_l
$LN27@subtract_l:
  0011a	68 fe 02 00 00	 push	 766			; 000002feH
  0011f	68 00 00 00 00	 push	 OFFSET ??_C@_0EN@PIOGLIPD@c?3?2users?2nhv90?2projects?2eech?2ap@
  00124	8b 15 00 00 00
	00		 mov	 edx, DWORD PTR ?null_entity_pointer_message@@3PBDB ; null_entity_pointer_message
  0012a	52		 push	 edx
  0012b	e8 00 00 00 00	 call	 ?process_assert@@YGXPBD0H@Z ; process_assert
  00130	c7 45 a4 00 00
	00 00		 mov	 DWORD PTR tv140[ebp], 0
$LN28@subtract_l:
  00137	b8 01 00 00 00	 mov	 eax, 1
  0013c	85 c0		 test	 eax, eax
  0013e	74 09		 je	 SHORT $LN29@subtract_l
  00140	c7 45 a0 5a 00
	00 00		 mov	 DWORD PTR tv147[ebp], 90 ; 0000005aH
  00147	eb 1d		 jmp	 SHORT $LN30@subtract_l
$LN29@subtract_l:
  00149	68 fe 02 00 00	 push	 766			; 000002feH
  0014e	68 00 00 00 00	 push	 OFFSET ??_C@_0EN@PIOGLIPD@c?3?2users?2nhv90?2projects?2eech?2ap@
  00153	8b 0d 00 00 00
	00		 mov	 ecx, DWORD PTR ?overload_invalid_int_type_message@@3PBDB ; overload_invalid_int_type_message
  00159	51		 push	 ecx
  0015a	e8 00 00 00 00	 call	 ?process_assert@@YGXPBD0H@Z ; process_assert
  0015f	c7 45 a0 00 00
	00 00		 mov	 DWORD PTR tv147[ebp], 0
$LN30@subtract_l:
  00166	6a 5a		 push	 90			; 0000005aH
  00168	8b 55 08	 mov	 edx, DWORD PTR _en$[ebp]
  0016b	52		 push	 edx
  0016c	69 45 a4 5c 04
	00 00		 imul	 eax, DWORD PTR tv140[ebp], 1116
  00173	8b 4d a0	 mov	 ecx, DWORD PTR tv147[ebp]
  00176	8b 94 88 00 00
	00 00		 mov	 edx, DWORD PTR ?fn_get_local_entity_int_value@@3PAY0BBH@P6GHPAUENTITY@@W4INT_TYPES@@@ZA[eax+ecx*4]
  0017d	ff d2		 call	 edx
  0017f	85 c0		 test	 eax, eax
  00181	0f 84 2b 07 00
	00		 je	 $LN19@subtract_l

; 767  : 		{
; 768  : 			value = get_local_entity_float_value (en, FLOAT_TYPE_FIXED_OBJECT_IMPORTANCE);

  00187	83 7d 08 00	 cmp	 DWORD PTR _en$[ebp], 0
  0018b	74 0a		 je	 SHORT $LN31@subtract_l
  0018d	8b 45 08	 mov	 eax, DWORD PTR _en$[ebp]
  00190	8b 08		 mov	 ecx, DWORD PTR [eax]
  00192	89 4d a4	 mov	 DWORD PTR tv160[ebp], ecx
  00195	eb 21		 jmp	 SHORT $LN32@subtract_l
$LN31@subtract_l:
  00197	8b 15 00 00 00
	00		 mov	 edx, DWORD PTR ?__LINE__Var@?0??subtract_local_entity_importance_from_keysite@@YGXPAUENTITY@@@Z@4JA
  0019d	83 c2 1e	 add	 edx, 30			; 0000001eH
  001a0	52		 push	 edx
  001a1	68 00 00 00 00	 push	 OFFSET ??_C@_0EN@PIOGLIPD@c?3?2users?2nhv90?2projects?2eech?2ap@
  001a6	a1 00 00 00 00	 mov	 eax, DWORD PTR ?null_entity_pointer_message@@3PBDB ; null_entity_pointer_message
  001ab	50		 push	 eax
  001ac	e8 00 00 00 00	 call	 ?process_assert@@YGXPBD0H@Z ; process_assert
  001b1	c7 45 a4 00 00
	00 00		 mov	 DWORD PTR tv160[ebp], 0
$LN32@subtract_l:
  001b8	b9 01 00 00 00	 mov	 ecx, 1
  001bd	85 c9		 test	 ecx, ecx
  001bf	74 09		 je	 SHORT $LN33@subtract_l
  001c1	c7 45 a0 27 00
	00 00		 mov	 DWORD PTR tv168[ebp], 39 ; 00000027H
  001c8	eb 21		 jmp	 SHORT $LN34@subtract_l
$LN33@subtract_l:
  001ca	8b 15 00 00 00
	00		 mov	 edx, DWORD PTR ?__LINE__Var@?0??subtract_local_entity_importance_from_keysite@@YGXPAUENTITY@@@Z@4JA
  001d0	83 c2 1e	 add	 edx, 30			; 0000001eH
  001d3	52		 push	 edx
  001d4	68 00 00 00 00	 push	 OFFSET ??_C@_0EN@PIOGLIPD@c?3?2users?2nhv90?2projects?2eech?2ap@
  001d9	a1 00 00 00 00	 mov	 eax, DWORD PTR ?overload_invalid_float_type_message@@3PBDB ; overload_invalid_float_type_message
  001de	50		 push	 eax
  001df	e8 00 00 00 00	 call	 ?process_assert@@YGXPBD0H@Z ; process_assert
  001e4	c7 45 a0 00 00
	00 00		 mov	 DWORD PTR tv168[ebp], 0
$LN34@subtract_l:
  001eb	6a 27		 push	 39			; 00000027H
  001ed	8b 4d 08	 mov	 ecx, DWORD PTR _en$[ebp]
  001f0	51		 push	 ecx
  001f1	69 55 a4 bc 02
	00 00		 imul	 edx, DWORD PTR tv160[ebp], 700
  001f8	8b 45 a0	 mov	 eax, DWORD PTR tv168[ebp]
  001fb	8b 8c 82 00 00
	00 00		 mov	 ecx, DWORD PTR ?fn_get_local_entity_float_value@@3PAY0KP@P6GMPAUENTITY@@W4FLOAT_TYPES@@@ZA[edx+eax*4]
  00202	ff d1		 call	 ecx
  00204	d9 5d e8	 fstp	 DWORD PTR _value$[ebp]

; 769  : 	
; 770  : 			if (value > 0.0)

  00207	f3 0f 5a 45 e8	 cvtss2sd xmm0, DWORD PTR _value$[ebp]
  0020c	66 0f 2f 05 00
	00 00 00	 comisd	 xmm0, QWORD PTR __real@0000000000000000
  00214	0f 86 98 06 00
	00		 jbe	 $LN19@subtract_l

; 771  : 			{
; 772  : 				raw = (keysite *) get_local_entity_data (keysite_en);

  0021a	8b 45 f4	 mov	 eax, DWORD PTR _keysite_en$[ebp]
  0021d	8b 48 04	 mov	 ecx, DWORD PTR [eax+4]
  00220	89 4d f0	 mov	 DWORD PTR _raw$[ebp], ecx

; 773  : 	
; 774  : 				raw->keysite_strength -= value;

  00223	8b 45 f0	 mov	 eax, DWORD PTR _raw$[ebp]
  00226	f3 0f 10 40 74	 movss	 xmm0, DWORD PTR [eax+116]
  0022b	f3 0f 5c 45 e8	 subss	 xmm0, DWORD PTR _value$[ebp]
  00230	8b 4d f0	 mov	 ecx, DWORD PTR _raw$[ebp]
  00233	f3 0f 11 41 74	 movss	 DWORD PTR [ecx+116], xmm0

; 775  : 
; 776  : 				// only remove strength (and not the maximum)
; 777  : 
; 778  : 				if (get_game_status () == GAME_STATUS_INITIALISED)

  00238	83 3d 00 00 00
	00 03		 cmp	 DWORD PTR ?game_status@@3W4GAME_STATUS_TYPES@@A, 3 ; game_status
  0023f	0f 85 6d 06 00
	00		 jne	 $LN19@subtract_l

; 779  : 				{
; 780  : 					object_index = get_local_entity_int_value (en, INT_TYPE_OBJECT_3D_SHAPE);

  00245	83 7d 08 00	 cmp	 DWORD PTR _en$[ebp], 0
  00249	74 0a		 je	 SHORT $LN35@subtract_l
  0024b	8b 45 08	 mov	 eax, DWORD PTR _en$[ebp]
  0024e	8b 08		 mov	 ecx, DWORD PTR [eax]
  00250	89 4d a4	 mov	 DWORD PTR tv187[ebp], ecx
  00253	eb 21		 jmp	 SHORT $LN36@subtract_l
$LN35@subtract_l:
  00255	8b 15 00 00 00
	00		 mov	 edx, DWORD PTR ?__LINE__Var@?0??subtract_local_entity_importance_from_keysite@@YGXPAUENTITY@@@Z@4JA
  0025b	83 c2 2a	 add	 edx, 42			; 0000002aH
  0025e	52		 push	 edx
  0025f	68 00 00 00 00	 push	 OFFSET ??_C@_0EN@PIOGLIPD@c?3?2users?2nhv90?2projects?2eech?2ap@
  00264	a1 00 00 00 00	 mov	 eax, DWORD PTR ?null_entity_pointer_message@@3PBDB ; null_entity_pointer_message
  00269	50		 push	 eax
  0026a	e8 00 00 00 00	 call	 ?process_assert@@YGXPBD0H@Z ; process_assert
  0026f	c7 45 a4 00 00
	00 00		 mov	 DWORD PTR tv187[ebp], 0
$LN36@subtract_l:
  00276	b9 01 00 00 00	 mov	 ecx, 1
  0027b	85 c9		 test	 ecx, ecx
  0027d	74 09		 je	 SHORT $LN37@subtract_l
  0027f	c7 45 a0 92 00
	00 00		 mov	 DWORD PTR tv195[ebp], 146 ; 00000092H
  00286	eb 21		 jmp	 SHORT $LN38@subtract_l
$LN37@subtract_l:
  00288	8b 15 00 00 00
	00		 mov	 edx, DWORD PTR ?__LINE__Var@?0??subtract_local_entity_importance_from_keysite@@YGXPAUENTITY@@@Z@4JA
  0028e	83 c2 2a	 add	 edx, 42			; 0000002aH
  00291	52		 push	 edx
  00292	68 00 00 00 00	 push	 OFFSET ??_C@_0EN@PIOGLIPD@c?3?2users?2nhv90?2projects?2eech?2ap@
  00297	a1 00 00 00 00	 mov	 eax, DWORD PTR ?overload_invalid_int_type_message@@3PBDB ; overload_invalid_int_type_message
  0029c	50		 push	 eax
  0029d	e8 00 00 00 00	 call	 ?process_assert@@YGXPBD0H@Z ; process_assert
  002a2	c7 45 a0 00 00
	00 00		 mov	 DWORD PTR tv195[ebp], 0
$LN38@subtract_l:
  002a9	68 92 00 00 00	 push	 146			; 00000092H
  002ae	8b 4d 08	 mov	 ecx, DWORD PTR _en$[ebp]
  002b1	51		 push	 ecx
  002b2	69 55 a4 5c 04
	00 00		 imul	 edx, DWORD PTR tv187[ebp], 1116
  002b9	8b 45 a0	 mov	 eax, DWORD PTR tv195[ebp]
  002bc	8b 8c 82 00 00
	00 00		 mov	 ecx, DWORD PTR ?fn_get_local_entity_int_value@@3PAY0BBH@P6GHPAUENTITY@@W4INT_TYPES@@@ZA[edx+eax*4]
  002c3	ff d1		 call	 ecx
  002c5	89 45 ec	 mov	 DWORD PTR _object_index$[ebp], eax

; 781  : 
; 782  : 					ai_log ("(KEYSITE) %s removed %s, new strength (%.2f / %.2f)", raw->keysite_name, object_3d_enumeration_names [object_index], raw->keysite_strength, raw->keysite_maximum_strength);

  002c8	8b 45 f0	 mov	 eax, DWORD PTR _raw$[ebp]
  002cb	f3 0f 5a 40 78	 cvtss2sd xmm0, DWORD PTR [eax+120]
  002d0	83 ec 08	 sub	 esp, 8
  002d3	f2 0f 11 04 24	 movsd	 QWORD PTR [esp], xmm0
  002d8	8b 4d f0	 mov	 ecx, DWORD PTR _raw$[ebp]
  002db	f3 0f 5a 41 74	 cvtss2sd xmm0, DWORD PTR [ecx+116]
  002e0	83 ec 08	 sub	 esp, 8
  002e3	f2 0f 11 04 24	 movsd	 QWORD PTR [esp], xmm0
  002e8	8b 55 ec	 mov	 edx, DWORD PTR _object_index$[ebp]
  002eb	a1 00 00 00 00	 mov	 eax, DWORD PTR ?object_3d_enumeration_names@@3PAPBDA ; object_3d_enumeration_names
  002f0	8b 0c 90	 mov	 ecx, DWORD PTR [eax+edx*4]
  002f3	51		 push	 ecx
  002f4	8b 55 f0	 mov	 edx, DWORD PTR _raw$[ebp]
  002f7	81 c2 9c 00 00
	00		 add	 edx, 156		; 0000009cH
  002fd	52		 push	 edx
  002fe	68 00 00 00 00	 push	 OFFSET ??_C@_0DE@FMPHPBAF@?$CIKEYSITE?$CJ?5?$CFs?5removed?5?$CFs?0?5new?5st@
  00303	e8 00 00 00 00	 call	 ?ai_log@@YAXPBDZZ	; ai_log
  00308	83 c4 1c	 add	 esp, 28			; 0000001cH

; 783  : 	
; 784  : 					if (get_comms_model () == COMMS_MODEL_SERVER)

  0030b	83 3d 00 00 00
	00 00		 cmp	 DWORD PTR ?system_comms_model@@3W4COMMS_MODEL_TYPES@@A, 0 ; system_comms_model
  00312	0f 85 9a 05 00
	00		 jne	 $LN19@subtract_l

; 785  : 					{
; 786  : 						//
; 787  : 						// If the keysite is the objective of a task - check that task for completeness
; 788  : 						//
; 789  : 	
; 790  : 						task = get_local_entity_first_child (keysite_en, LIST_TYPE_TASK_DEPENDENT);

  00318	83 7d f4 00	 cmp	 DWORD PTR _keysite_en$[ebp], 0
  0031c	74 0a		 je	 SHORT $LN39@subtract_l
  0031e	8b 45 f4	 mov	 eax, DWORD PTR _keysite_en$[ebp]
  00321	8b 08		 mov	 ecx, DWORD PTR [eax]
  00323	89 4d a4	 mov	 DWORD PTR tv220[ebp], ecx
  00326	eb 21		 jmp	 SHORT $LN40@subtract_l
$LN39@subtract_l:
  00328	8b 15 00 00 00
	00		 mov	 edx, DWORD PTR ?__LINE__Var@?0??subtract_local_entity_importance_from_keysite@@YGXPAUENTITY@@@Z@4JA
  0032e	83 c2 34	 add	 edx, 52			; 00000034H
  00331	52		 push	 edx
  00332	68 00 00 00 00	 push	 OFFSET ??_C@_0EN@PIOGLIPD@c?3?2users?2nhv90?2projects?2eech?2ap@
  00337	a1 00 00 00 00	 mov	 eax, DWORD PTR ?null_entity_pointer_message@@3PBDB ; null_entity_pointer_message
  0033c	50		 push	 eax
  0033d	e8 00 00 00 00	 call	 ?process_assert@@YGXPBD0H@Z ; process_assert
  00342	c7 45 a4 00 00
	00 00		 mov	 DWORD PTR tv220[ebp], 0
$LN40@subtract_l:
  00349	b9 01 00 00 00	 mov	 ecx, 1
  0034e	85 c9		 test	 ecx, ecx
  00350	74 09		 je	 SHORT $LN41@subtract_l
  00352	c7 45 a0 27 00
	00 00		 mov	 DWORD PTR tv228[ebp], 39 ; 00000027H
  00359	eb 21		 jmp	 SHORT $LN42@subtract_l
$LN41@subtract_l:
  0035b	8b 15 00 00 00
	00		 mov	 edx, DWORD PTR ?__LINE__Var@?0??subtract_local_entity_importance_from_keysite@@YGXPAUENTITY@@@Z@4JA
  00361	83 c2 34	 add	 edx, 52			; 00000034H
  00364	52		 push	 edx
  00365	68 00 00 00 00	 push	 OFFSET ??_C@_0EN@PIOGLIPD@c?3?2users?2nhv90?2projects?2eech?2ap@
  0036a	a1 00 00 00 00	 mov	 eax, DWORD PTR ?overload_invalid_list_type_message@@3PBDB ; overload_invalid_list_type_message
  0036f	50		 push	 eax
  00370	e8 00 00 00 00	 call	 ?process_assert@@YGXPBD0H@Z ; process_assert
  00375	c7 45 a0 00 00
	00 00		 mov	 DWORD PTR tv228[ebp], 0
$LN42@subtract_l:
  0037c	6a 27		 push	 39			; 00000027H
  0037e	8b 4d f4	 mov	 ecx, DWORD PTR _keysite_en$[ebp]
  00381	51		 push	 ecx
  00382	69 55 a4 b4 00
	00 00		 imul	 edx, DWORD PTR tv220[ebp], 180
  00389	8b 45 a0	 mov	 eax, DWORD PTR tv228[ebp]
  0038c	8b 8c 82 00 00
	00 00		 mov	 ecx, DWORD PTR ?fn_get_local_entity_first_child@@3PAY0CN@P6GPAUENTITY@@PAU1@W4LIST_TYPES@@@ZA[edx+eax*4]
  00393	ff d1		 call	 ecx
  00395	89 45 fc	 mov	 DWORD PTR _task$[ebp], eax
$LN2@subtract_l:

; 791  : 		
; 792  : 						while (task)

  00398	83 7d fc 00	 cmp	 DWORD PTR _task$[ebp], 0
  0039c	0f 84 62 01 00
	00		 je	 $LN3@subtract_l

; 793  : 						{
; 794  : 							next = get_local_entity_child_succ (task, LIST_TYPE_TASK_DEPENDENT);

  003a2	83 7d fc 00	 cmp	 DWORD PTR _task$[ebp], 0
  003a6	74 0a		 je	 SHORT $LN43@subtract_l
  003a8	8b 45 fc	 mov	 eax, DWORD PTR _task$[ebp]
  003ab	8b 08		 mov	 ecx, DWORD PTR [eax]
  003ad	89 4d a4	 mov	 DWORD PTR tv241[ebp], ecx
  003b0	eb 21		 jmp	 SHORT $LN44@subtract_l
$LN43@subtract_l:
  003b2	8b 15 00 00 00
	00		 mov	 edx, DWORD PTR ?__LINE__Var@?0??subtract_local_entity_importance_from_keysite@@YGXPAUENTITY@@@Z@4JA
  003b8	83 c2 38	 add	 edx, 56			; 00000038H
  003bb	52		 push	 edx
  003bc	68 00 00 00 00	 push	 OFFSET ??_C@_0EN@PIOGLIPD@c?3?2users?2nhv90?2projects?2eech?2ap@
  003c1	a1 00 00 00 00	 mov	 eax, DWORD PTR ?null_entity_pointer_message@@3PBDB ; null_entity_pointer_message
  003c6	50		 push	 eax
  003c7	e8 00 00 00 00	 call	 ?process_assert@@YGXPBD0H@Z ; process_assert
  003cc	c7 45 a4 00 00
	00 00		 mov	 DWORD PTR tv241[ebp], 0
$LN44@subtract_l:
  003d3	b9 01 00 00 00	 mov	 ecx, 1
  003d8	85 c9		 test	 ecx, ecx
  003da	74 09		 je	 SHORT $LN45@subtract_l
  003dc	c7 45 a0 27 00
	00 00		 mov	 DWORD PTR tv249[ebp], 39 ; 00000027H
  003e3	eb 21		 jmp	 SHORT $LN46@subtract_l
$LN45@subtract_l:
  003e5	8b 15 00 00 00
	00		 mov	 edx, DWORD PTR ?__LINE__Var@?0??subtract_local_entity_importance_from_keysite@@YGXPAUENTITY@@@Z@4JA
  003eb	83 c2 38	 add	 edx, 56			; 00000038H
  003ee	52		 push	 edx
  003ef	68 00 00 00 00	 push	 OFFSET ??_C@_0EN@PIOGLIPD@c?3?2users?2nhv90?2projects?2eech?2ap@
  003f4	a1 00 00 00 00	 mov	 eax, DWORD PTR ?overload_invalid_list_type_message@@3PBDB ; overload_invalid_list_type_message
  003f9	50		 push	 eax
  003fa	e8 00 00 00 00	 call	 ?process_assert@@YGXPBD0H@Z ; process_assert
  003ff	c7 45 a0 00 00
	00 00		 mov	 DWORD PTR tv249[ebp], 0
$LN46@subtract_l:
  00406	6a 27		 push	 39			; 00000027H
  00408	8b 4d fc	 mov	 ecx, DWORD PTR _task$[ebp]
  0040b	51		 push	 ecx
  0040c	69 55 a4 b4 00
	00 00		 imul	 edx, DWORD PTR tv241[ebp], 180
  00413	8b 45 a0	 mov	 eax, DWORD PTR tv249[ebp]
  00416	8b 8c 82 00 00
	00 00		 mov	 ecx, DWORD PTR ?fn_get_local_entity_child_succ@@3PAY0CN@P6GPAUENTITY@@PAU1@W4LIST_TYPES@@@ZA[edx+eax*4]
  0041d	ff d1		 call	 ecx
  0041f	89 45 f8	 mov	 DWORD PTR _next$[ebp], eax

; 795  : 
; 796  : 							if (get_local_entity_type (task) == ENTITY_TYPE_TASK)

  00422	83 7d fc 00	 cmp	 DWORD PTR _task$[ebp], 0
  00426	74 0a		 je	 SHORT $LN47@subtract_l
  00428	8b 45 fc	 mov	 eax, DWORD PTR _task$[ebp]
  0042b	8b 08		 mov	 ecx, DWORD PTR [eax]
  0042d	89 4d a4	 mov	 DWORD PTR tv260[ebp], ecx
  00430	eb 1d		 jmp	 SHORT $LN48@subtract_l
$LN47@subtract_l:
  00432	68 1c 03 00 00	 push	 796			; 0000031cH
  00437	68 00 00 00 00	 push	 OFFSET ??_C@_0EN@PIOGLIPD@c?3?2users?2nhv90?2projects?2eech?2ap@
  0043c	8b 15 00 00 00
	00		 mov	 edx, DWORD PTR ?null_entity_pointer_message@@3PBDB ; null_entity_pointer_message
  00442	52		 push	 edx
  00443	e8 00 00 00 00	 call	 ?process_assert@@YGXPBD0H@Z ; process_assert
  00448	c7 45 a4 00 00
	00 00		 mov	 DWORD PTR tv260[ebp], 0
$LN48@subtract_l:
  0044f	83 7d a4 22	 cmp	 DWORD PTR tv260[ebp], 34 ; 00000022H
  00453	0f 85 a0 00 00
	00		 jne	 $LN14@subtract_l

; 797  : 							{		
; 798  : 								if (!get_local_entity_int_value (task, INT_TYPE_TASK_COMPLETED))

  00459	83 7d fc 00	 cmp	 DWORD PTR _task$[ebp], 0
  0045d	74 0a		 je	 SHORT $LN49@subtract_l
  0045f	8b 45 fc	 mov	 eax, DWORD PTR _task$[ebp]
  00462	8b 08		 mov	 ecx, DWORD PTR [eax]
  00464	89 4d a4	 mov	 DWORD PTR tv267[ebp], ecx
  00467	eb 1d		 jmp	 SHORT $LN50@subtract_l
$LN49@subtract_l:
  00469	68 1e 03 00 00	 push	 798			; 0000031eH
  0046e	68 00 00 00 00	 push	 OFFSET ??_C@_0EN@PIOGLIPD@c?3?2users?2nhv90?2projects?2eech?2ap@
  00473	8b 15 00 00 00
	00		 mov	 edx, DWORD PTR ?null_entity_pointer_message@@3PBDB ; null_entity_pointer_message
  00479	52		 push	 edx
  0047a	e8 00 00 00 00	 call	 ?process_assert@@YGXPBD0H@Z ; process_assert
  0047f	c7 45 a4 00 00
	00 00		 mov	 DWORD PTR tv267[ebp], 0
$LN50@subtract_l:
  00486	b8 01 00 00 00	 mov	 eax, 1
  0048b	85 c0		 test	 eax, eax
  0048d	74 09		 je	 SHORT $LN51@subtract_l
  0048f	c7 45 a0 d9 00
	00 00		 mov	 DWORD PTR tv274[ebp], 217 ; 000000d9H
  00496	eb 1d		 jmp	 SHORT $LN52@subtract_l
$LN51@subtract_l:
  00498	68 1e 03 00 00	 push	 798			; 0000031eH
  0049d	68 00 00 00 00	 push	 OFFSET ??_C@_0EN@PIOGLIPD@c?3?2users?2nhv90?2projects?2eech?2ap@
  004a2	8b 0d 00 00 00
	00		 mov	 ecx, DWORD PTR ?overload_invalid_int_type_message@@3PBDB ; overload_invalid_int_type_message
  004a8	51		 push	 ecx
  004a9	e8 00 00 00 00	 call	 ?process_assert@@YGXPBD0H@Z ; process_assert
  004ae	c7 45 a0 00 00
	00 00		 mov	 DWORD PTR tv274[ebp], 0
$LN52@subtract_l:
  004b5	68 d9 00 00 00	 push	 217			; 000000d9H
  004ba	8b 55 fc	 mov	 edx, DWORD PTR _task$[ebp]
  004bd	52		 push	 edx
  004be	69 45 a4 5c 04
	00 00		 imul	 eax, DWORD PTR tv267[ebp], 1116
  004c5	8b 4d a0	 mov	 ecx, DWORD PTR tv274[ebp]
  004c8	8b 94 88 00 00
	00 00		 mov	 edx, DWORD PTR ?fn_get_local_entity_int_value@@3PAY0BBH@P6GHPAUENTITY@@W4INT_TYPES@@@ZA[eax+ecx*4]
  004cf	ff d2		 call	 edx
  004d1	85 c0		 test	 eax, eax
  004d3	75 24		 jne	 SHORT $LN14@subtract_l

; 799  : 								{
; 800  : 									if (assess_task_completeness (task, TASK_TERMINATED_IN_PROGRESS) == TASK_COMPLETED_SUCCESS)

  004d5	6a 00		 push	 0
  004d7	8b 45 fc	 mov	 eax, DWORD PTR _task$[ebp]
  004da	50		 push	 eax
  004db	e8 00 00 00 00	 call	 ?assess_task_completeness@@YG?AW4TASK_COMPLETED_TYPES@@PAUENTITY@@W4TASK_TERMINATED_TYPES@@@Z ; assess_task_completeness
  004e0	83 f8 03	 cmp	 eax, 3
  004e3	75 14		 jne	 SHORT $LN14@subtract_l

; 801  : 									{
; 802  : 										notify_local_entity (ENTITY_MESSAGE_TASK_COMPLETED, task, keysite_en, TASK_TERMINATED_OBJECTIVE_MESSAGE);

  004e5	6a 04		 push	 4
  004e7	8b 45 f4	 mov	 eax, DWORD PTR _keysite_en$[ebp]
  004ea	50		 push	 eax
  004eb	8b 4d fc	 mov	 ecx, DWORD PTR _task$[ebp]
  004ee	51		 push	 ecx
  004ef	6a 32		 push	 50			; 00000032H
  004f1	e8 00 00 00 00	 call	 ?notify_local_entity@@YAHW4ENTITY_MESSAGES@@PAUENTITY@@1ZZ ; notify_local_entity
  004f6	83 c4 10	 add	 esp, 16			; 00000010H
$LN14@subtract_l:

; 803  : 									}
; 804  : 								}
; 805  : 							}
; 806  : 
; 807  : 							task = next;

  004f9	8b 45 f8	 mov	 eax, DWORD PTR _next$[ebp]
  004fc	89 45 fc	 mov	 DWORD PTR _task$[ebp], eax

; 808  : 						}

  004ff	e9 94 fe ff ff	 jmp	 $LN2@subtract_l
$LN3@subtract_l:

; 809  : 	
; 810  : 						if (get_local_entity_float_value (keysite_en, FLOAT_TYPE_EFFICIENCY) <= keysite_database [raw->sub_type].minimum_efficiency)

  00504	83 7d f4 00	 cmp	 DWORD PTR _keysite_en$[ebp], 0
  00508	74 0a		 je	 SHORT $LN53@subtract_l
  0050a	8b 45 f4	 mov	 eax, DWORD PTR _keysite_en$[ebp]
  0050d	8b 08		 mov	 ecx, DWORD PTR [eax]
  0050f	89 4d a4	 mov	 DWORD PTR tv294[ebp], ecx
  00512	eb 1d		 jmp	 SHORT $LN54@subtract_l
$LN53@subtract_l:
  00514	68 2a 03 00 00	 push	 810			; 0000032aH
  00519	68 00 00 00 00	 push	 OFFSET ??_C@_0EN@PIOGLIPD@c?3?2users?2nhv90?2projects?2eech?2ap@
  0051e	8b 15 00 00 00
	00		 mov	 edx, DWORD PTR ?null_entity_pointer_message@@3PBDB ; null_entity_pointer_message
  00524	52		 push	 edx
  00525	e8 00 00 00 00	 call	 ?process_assert@@YGXPBD0H@Z ; process_assert
  0052a	c7 45 a4 00 00
	00 00		 mov	 DWORD PTR tv294[ebp], 0
$LN54@subtract_l:
  00531	b8 01 00 00 00	 mov	 eax, 1
  00536	85 c0		 test	 eax, eax
  00538	74 09		 je	 SHORT $LN55@subtract_l
  0053a	c7 45 a0 21 00
	00 00		 mov	 DWORD PTR tv301[ebp], 33 ; 00000021H
  00541	eb 1d		 jmp	 SHORT $LN56@subtract_l
$LN55@subtract_l:
  00543	68 2a 03 00 00	 push	 810			; 0000032aH
  00548	68 00 00 00 00	 push	 OFFSET ??_C@_0EN@PIOGLIPD@c?3?2users?2nhv90?2projects?2eech?2ap@
  0054d	8b 0d 00 00 00
	00		 mov	 ecx, DWORD PTR ?overload_invalid_float_type_message@@3PBDB ; overload_invalid_float_type_message
  00553	51		 push	 ecx
  00554	e8 00 00 00 00	 call	 ?process_assert@@YGXPBD0H@Z ; process_assert
  00559	c7 45 a0 00 00
	00 00		 mov	 DWORD PTR tv301[ebp], 0
$LN56@subtract_l:
  00560	6a 21		 push	 33			; 00000021H
  00562	8b 55 f4	 mov	 edx, DWORD PTR _keysite_en$[ebp]
  00565	52		 push	 edx
  00566	69 45 a4 bc 02
	00 00		 imul	 eax, DWORD PTR tv294[ebp], 700
  0056d	8b 4d a0	 mov	 ecx, DWORD PTR tv301[ebp]
  00570	8b 94 88 00 00
	00 00		 mov	 edx, DWORD PTR ?fn_get_local_entity_float_value@@3PAY0KP@P6GMPAUENTITY@@W4FLOAT_TYPES@@@ZA[eax+ecx*4]
  00577	ff d2		 call	 edx
  00579	d9 5d 9c	 fstp	 DWORD PTR tv555[ebp]
  0057c	8b 45 f0	 mov	 eax, DWORD PTR _raw$[ebp]
  0057f	6b 08 44	 imul	 ecx, DWORD PTR [eax], 68
  00582	f3 0f 10 81 1c
	00 00 00	 movss	 xmm0, DWORD PTR ?keysite_database@@3PAUKEYSITE_DATA@@A[ecx+28]
  0058a	0f 2f 45 9c	 comiss	 xmm0, DWORD PTR tv555[ebp]
  0058e	0f 82 7e 02 00
	00		 jb	 $LN15@subtract_l

; 811  : 						{
; 812  : 							//
; 813  : 							// Keysite is below minimum strength :-
; 814  : 							//
; 815  : 	
; 816  : 							ai_log ("(KEYSITE) SIDE %s : %s BELOW MINIMUN EFFICIENCY", entity_side_short_names [get_local_entity_int_value (keysite_en, INT_TYPE_SIDE)], get_local_entity_string (keysite_en, STRING_TYPE_KEYSITE_NAME));

  00594	83 7d f4 00	 cmp	 DWORD PTR _keysite_en$[ebp], 0
  00598	74 0a		 je	 SHORT $LN57@subtract_l
  0059a	8b 45 f4	 mov	 eax, DWORD PTR _keysite_en$[ebp]
  0059d	8b 08		 mov	 ecx, DWORD PTR [eax]
  0059f	89 4d a4	 mov	 DWORD PTR tv318[ebp], ecx
  005a2	eb 21		 jmp	 SHORT $LN58@subtract_l
$LN57@subtract_l:
  005a4	8b 15 00 00 00
	00		 mov	 edx, DWORD PTR ?__LINE__Var@?0??subtract_local_entity_importance_from_keysite@@YGXPAUENTITY@@@Z@4JA
  005aa	83 c2 4e	 add	 edx, 78			; 0000004eH
  005ad	52		 push	 edx
  005ae	68 00 00 00 00	 push	 OFFSET ??_C@_0EN@PIOGLIPD@c?3?2users?2nhv90?2projects?2eech?2ap@
  005b3	a1 00 00 00 00	 mov	 eax, DWORD PTR ?null_entity_pointer_message@@3PBDB ; null_entity_pointer_message
  005b8	50		 push	 eax
  005b9	e8 00 00 00 00	 call	 ?process_assert@@YGXPBD0H@Z ; process_assert
  005be	c7 45 a4 00 00
	00 00		 mov	 DWORD PTR tv318[ebp], 0
$LN58@subtract_l:
  005c5	b9 01 00 00 00	 mov	 ecx, 1
  005ca	85 c9		 test	 ecx, ecx
  005cc	74 09		 je	 SHORT $LN59@subtract_l
  005ce	c7 45 a0 07 00
	00 00		 mov	 DWORD PTR tv326[ebp], 7
  005d5	eb 21		 jmp	 SHORT $LN60@subtract_l
$LN59@subtract_l:
  005d7	8b 15 00 00 00
	00		 mov	 edx, DWORD PTR ?__LINE__Var@?0??subtract_local_entity_importance_from_keysite@@YGXPAUENTITY@@@Z@4JA
  005dd	83 c2 4e	 add	 edx, 78			; 0000004eH
  005e0	52		 push	 edx
  005e1	68 00 00 00 00	 push	 OFFSET ??_C@_0EN@PIOGLIPD@c?3?2users?2nhv90?2projects?2eech?2ap@
  005e6	a1 00 00 00 00	 mov	 eax, DWORD PTR ?overload_invalid_string_type_message@@3PBDB ; overload_invalid_string_type_message
  005eb	50		 push	 eax
  005ec	e8 00 00 00 00	 call	 ?process_assert@@YGXPBD0H@Z ; process_assert
  005f1	c7 45 a0 00 00
	00 00		 mov	 DWORD PTR tv326[ebp], 0
$LN60@subtract_l:
  005f8	83 7d f4 00	 cmp	 DWORD PTR _keysite_en$[ebp], 0
  005fc	74 0a		 je	 SHORT $LN61@subtract_l
  005fe	8b 4d f4	 mov	 ecx, DWORD PTR _keysite_en$[ebp]
  00601	8b 11		 mov	 edx, DWORD PTR [ecx]
  00603	89 55 9c	 mov	 DWORD PTR tv339[ebp], edx
  00606	eb 21		 jmp	 SHORT $LN62@subtract_l
$LN61@subtract_l:
  00608	a1 00 00 00 00	 mov	 eax, DWORD PTR ?__LINE__Var@?0??subtract_local_entity_importance_from_keysite@@YGXPAUENTITY@@@Z@4JA
  0060d	83 c0 4e	 add	 eax, 78			; 0000004eH
  00610	50		 push	 eax
  00611	68 00 00 00 00	 push	 OFFSET ??_C@_0EN@PIOGLIPD@c?3?2users?2nhv90?2projects?2eech?2ap@
  00616	8b 0d 00 00 00
	00		 mov	 ecx, DWORD PTR ?null_entity_pointer_message@@3PBDB ; null_entity_pointer_message
  0061c	51		 push	 ecx
  0061d	e8 00 00 00 00	 call	 ?process_assert@@YGXPBD0H@Z ; process_assert
  00622	c7 45 9c 00 00
	00 00		 mov	 DWORD PTR tv339[ebp], 0
$LN62@subtract_l:
  00629	ba 01 00 00 00	 mov	 edx, 1
  0062e	85 d2		 test	 edx, edx
  00630	74 09		 je	 SHORT $LN63@subtract_l
  00632	c7 45 98 bb 00
	00 00		 mov	 DWORD PTR tv347[ebp], 187 ; 000000bbH
  00639	eb 21		 jmp	 SHORT $LN64@subtract_l
$LN63@subtract_l:
  0063b	a1 00 00 00 00	 mov	 eax, DWORD PTR ?__LINE__Var@?0??subtract_local_entity_importance_from_keysite@@YGXPAUENTITY@@@Z@4JA
  00640	83 c0 4e	 add	 eax, 78			; 0000004eH
  00643	50		 push	 eax
  00644	68 00 00 00 00	 push	 OFFSET ??_C@_0EN@PIOGLIPD@c?3?2users?2nhv90?2projects?2eech?2ap@
  00649	8b 0d 00 00 00
	00		 mov	 ecx, DWORD PTR ?overload_invalid_int_type_message@@3PBDB ; overload_invalid_int_type_message
  0064f	51		 push	 ecx
  00650	e8 00 00 00 00	 call	 ?process_assert@@YGXPBD0H@Z ; process_assert
  00655	c7 45 98 00 00
	00 00		 mov	 DWORD PTR tv347[ebp], 0
$LN64@subtract_l:
  0065c	6a 07		 push	 7
  0065e	8b 55 f4	 mov	 edx, DWORD PTR _keysite_en$[ebp]
  00661	52		 push	 edx
  00662	6b 45 a4 34	 imul	 eax, DWORD PTR tv318[ebp], 52
  00666	8b 4d a0	 mov	 ecx, DWORD PTR tv326[ebp]
  00669	8b 94 88 00 00
	00 00		 mov	 edx, DWORD PTR ?fn_get_local_entity_string@@3PAY0N@P6GPBDPAUENTITY@@W4STRING_TYPES@@@ZA[eax+ecx*4]
  00670	ff d2		 call	 edx
  00672	50		 push	 eax
  00673	68 bb 00 00 00	 push	 187			; 000000bbH
  00678	8b 45 f4	 mov	 eax, DWORD PTR _keysite_en$[ebp]
  0067b	50		 push	 eax
  0067c	69 4d 9c 5c 04
	00 00		 imul	 ecx, DWORD PTR tv339[ebp], 1116
  00683	8b 55 98	 mov	 edx, DWORD PTR tv347[ebp]
  00686	8b 84 91 00 00
	00 00		 mov	 eax, DWORD PTR ?fn_get_local_entity_int_value@@3PAY0BBH@P6GHPAUENTITY@@W4INT_TYPES@@@ZA[ecx+edx*4]
  0068d	ff d0		 call	 eax
  0068f	8b 0c 85 00 00
	00 00		 mov	 ecx, DWORD PTR ?entity_side_short_names@@3PAPBDA[eax*4]
  00696	51		 push	 ecx
  00697	68 00 00 00 00	 push	 OFFSET ??_C@_0DA@HPNGODAO@?$CIKEYSITE?$CJ?5SIDE?5?$CFs?5?3?5?$CFs?5BELOW?5MI@
  0069c	e8 00 00 00 00	 call	 ?ai_log@@YAXPBDZZ	; ai_log
  006a1	83 c4 0c	 add	 esp, 12			; 0000000cH

; 817  : 	
; 818  : 							if (!keysite_database [raw->sub_type].repairable)

  006a4	8b 45 f0	 mov	 eax, DWORD PTR _raw$[ebp]
  006a7	6b 08 44	 imul	 ecx, DWORD PTR [eax], 68
  006aa	8b 91 40 00 00
	00		 mov	 edx, DWORD PTR ?keysite_database@@3PAUKEYSITE_DATA@@A[ecx+64]
  006b0	c1 ea 07	 shr	 edx, 7
  006b3	83 e2 01	 and	 edx, 1
  006b6	75 4f		 jne	 SHORT $LN17@subtract_l

; 819  : 							{
; 820  : 								kill_client_server_entity (keysite_en);

  006b8	83 7d f4 00	 cmp	 DWORD PTR _keysite_en$[ebp], 0
  006bc	74 0a		 je	 SHORT $LN65@subtract_l
  006be	8b 45 f4	 mov	 eax, DWORD PTR _keysite_en$[ebp]
  006c1	8b 08		 mov	 ecx, DWORD PTR [eax]
  006c3	89 4d a4	 mov	 DWORD PTR tv370[ebp], ecx
  006c6	eb 21		 jmp	 SHORT $LN66@subtract_l
$LN65@subtract_l:
  006c8	8b 15 00 00 00
	00		 mov	 edx, DWORD PTR ?__LINE__Var@?0??subtract_local_entity_importance_from_keysite@@YGXPAUENTITY@@@Z@4JA
  006ce	83 c2 52	 add	 edx, 82			; 00000052H
  006d1	52		 push	 edx
  006d2	68 00 00 00 00	 push	 OFFSET ??_C@_0EN@PIOGLIPD@c?3?2users?2nhv90?2projects?2eech?2ap@
  006d7	a1 00 00 00 00	 mov	 eax, DWORD PTR ?null_entity_pointer_message@@3PBDB ; null_entity_pointer_message
  006dc	50		 push	 eax
  006dd	e8 00 00 00 00	 call	 ?process_assert@@YGXPBD0H@Z ; process_assert
  006e2	c7 45 a4 00 00
	00 00		 mov	 DWORD PTR tv370[ebp], 0
$LN66@subtract_l:
  006e9	8b 4d f4	 mov	 ecx, DWORD PTR _keysite_en$[ebp]
  006ec	51		 push	 ecx
  006ed	8b 15 00 00 00
	00		 mov	 edx, DWORD PTR ?system_comms_model@@3W4COMMS_MODEL_TYPES@@A ; system_comms_model
  006f3	c1 e2 02	 shl	 edx, 2
  006f6	8b 45 a4	 mov	 eax, DWORD PTR tv370[ebp]
  006f9	8b 8c c2 00 00
	00 00		 mov	 ecx, DWORD PTR ?fn_kill_client_server_entity@@3PAY01P6GXPAUENTITY@@@ZA[edx+eax*8]
  00700	ff d1		 call	 ecx

; 821  : 
; 822  : 								return;

  00702	e9 ab 01 00 00	 jmp	 $LN1@subtract_l
$LN17@subtract_l:

; 823  : 							}
; 824  : 
; 825  : 							if (get_local_entity_int_value (keysite_en, INT_TYPE_KEYSITE_USABLE_STATE) != KEYSITE_STATE_UNUSABLE)

  00707	83 7d f4 00	 cmp	 DWORD PTR _keysite_en$[ebp], 0
  0070b	74 0a		 je	 SHORT $LN67@subtract_l
  0070d	8b 45 f4	 mov	 eax, DWORD PTR _keysite_en$[ebp]
  00710	8b 08		 mov	 ecx, DWORD PTR [eax]
  00712	89 4d a4	 mov	 DWORD PTR tv381[ebp], ecx
  00715	eb 1d		 jmp	 SHORT $LN68@subtract_l
$LN67@subtract_l:
  00717	68 39 03 00 00	 push	 825			; 00000339H
  0071c	68 00 00 00 00	 push	 OFFSET ??_C@_0EN@PIOGLIPD@c?3?2users?2nhv90?2projects?2eech?2ap@
  00721	8b 15 00 00 00
	00		 mov	 edx, DWORD PTR ?null_entity_pointer_message@@3PBDB ; null_entity_pointer_message
  00727	52		 push	 edx
  00728	e8 00 00 00 00	 call	 ?process_assert@@YGXPBD0H@Z ; process_assert
  0072d	c7 45 a4 00 00
	00 00		 mov	 DWORD PTR tv381[ebp], 0
$LN68@subtract_l:
  00734	b8 01 00 00 00	 mov	 eax, 1
  00739	85 c0		 test	 eax, eax
  0073b	74 09		 je	 SHORT $LN69@subtract_l
  0073d	c7 45 a0 70 00
	00 00		 mov	 DWORD PTR tv388[ebp], 112 ; 00000070H
  00744	eb 1d		 jmp	 SHORT $LN70@subtract_l
$LN69@subtract_l:
  00746	68 39 03 00 00	 push	 825			; 00000339H
  0074b	68 00 00 00 00	 push	 OFFSET ??_C@_0EN@PIOGLIPD@c?3?2users?2nhv90?2projects?2eech?2ap@
  00750	8b 0d 00 00 00
	00		 mov	 ecx, DWORD PTR ?overload_invalid_int_type_message@@3PBDB ; overload_invalid_int_type_message
  00756	51		 push	 ecx
  00757	e8 00 00 00 00	 call	 ?process_assert@@YGXPBD0H@Z ; process_assert
  0075c	c7 45 a0 00 00
	00 00		 mov	 DWORD PTR tv388[ebp], 0
$LN70@subtract_l:
  00763	6a 70		 push	 112			; 00000070H
  00765	8b 55 f4	 mov	 edx, DWORD PTR _keysite_en$[ebp]
  00768	52		 push	 edx
  00769	69 45 a4 5c 04
	00 00		 imul	 eax, DWORD PTR tv381[ebp], 1116
  00770	8b 4d a0	 mov	 ecx, DWORD PTR tv388[ebp]
  00773	8b 94 88 00 00
	00 00		 mov	 edx, DWORD PTR ?fn_get_local_entity_int_value@@3PAY0BBH@P6GHPAUENTITY@@W4INT_TYPES@@@ZA[eax+ecx*4]
  0077a	ff d2		 call	 edx
  0077c	83 f8 01	 cmp	 eax, 1
  0077f	0f 84 88 00 00
	00		 je	 $LN18@subtract_l

; 826  : 							{
; 827  : 								set_client_server_entity_int_value (keysite_en, INT_TYPE_KEYSITE_USABLE_STATE, KEYSITE_STATE_UNUSABLE);

  00785	83 7d f4 00	 cmp	 DWORD PTR _keysite_en$[ebp], 0
  00789	74 0a		 je	 SHORT $LN71@subtract_l
  0078b	8b 45 f4	 mov	 eax, DWORD PTR _keysite_en$[ebp]
  0078e	8b 08		 mov	 ecx, DWORD PTR [eax]
  00790	89 4d a4	 mov	 DWORD PTR tv401[ebp], ecx
  00793	eb 21		 jmp	 SHORT $LN72@subtract_l
$LN71@subtract_l:
  00795	8b 15 00 00 00
	00		 mov	 edx, DWORD PTR ?__LINE__Var@?0??subtract_local_entity_importance_from_keysite@@YGXPAUENTITY@@@Z@4JA
  0079b	83 c2 59	 add	 edx, 89			; 00000059H
  0079e	52		 push	 edx
  0079f	68 00 00 00 00	 push	 OFFSET ??_C@_0EN@PIOGLIPD@c?3?2users?2nhv90?2projects?2eech?2ap@
  007a4	a1 00 00 00 00	 mov	 eax, DWORD PTR ?null_entity_pointer_message@@3PBDB ; null_entity_pointer_message
  007a9	50		 push	 eax
  007aa	e8 00 00 00 00	 call	 ?process_assert@@YGXPBD0H@Z ; process_assert
  007af	c7 45 a4 00 00
	00 00		 mov	 DWORD PTR tv401[ebp], 0
$LN72@subtract_l:
  007b6	b9 01 00 00 00	 mov	 ecx, 1
  007bb	85 c9		 test	 ecx, ecx
  007bd	74 09		 je	 SHORT $LN73@subtract_l
  007bf	c7 45 a0 70 00
	00 00		 mov	 DWORD PTR tv409[ebp], 112 ; 00000070H
  007c6	eb 21		 jmp	 SHORT $LN74@subtract_l
$LN73@subtract_l:
  007c8	8b 15 00 00 00
	00		 mov	 edx, DWORD PTR ?__LINE__Var@?0??subtract_local_entity_importance_from_keysite@@YGXPAUENTITY@@@Z@4JA
  007ce	83 c2 59	 add	 edx, 89			; 00000059H
  007d1	52		 push	 edx
  007d2	68 00 00 00 00	 push	 OFFSET ??_C@_0EN@PIOGLIPD@c?3?2users?2nhv90?2projects?2eech?2ap@
  007d7	a1 00 00 00 00	 mov	 eax, DWORD PTR ?overload_invalid_int_type_message@@3PBDB ; overload_invalid_int_type_message
  007dc	50		 push	 eax
  007dd	e8 00 00 00 00	 call	 ?process_assert@@YGXPBD0H@Z ; process_assert
  007e2	c7 45 a0 00 00
	00 00		 mov	 DWORD PTR tv409[ebp], 0
$LN74@subtract_l:
  007e9	6a 01		 push	 1
  007eb	6a 70		 push	 112			; 00000070H
  007ed	8b 4d f4	 mov	 ecx, DWORD PTR _keysite_en$[ebp]
  007f0	51		 push	 ecx
  007f1	69 55 a4 b8 08
	00 00		 imul	 edx, DWORD PTR tv401[ebp], 2232
  007f8	8b 45 a0	 mov	 eax, DWORD PTR tv409[ebp]
  007fb	8d 8c c2 00 00
	00 00		 lea	 ecx, DWORD PTR ?fn_set_client_server_entity_int_value@@3PAY1BBH@1P6GXPAUENTITY@@W4INT_TYPES@@H@ZA[edx+eax*8]
  00802	8b 15 00 00 00
	00		 mov	 edx, DWORD PTR ?system_comms_model@@3W4COMMS_MODEL_TYPES@@A ; system_comms_model
  00808	8b 04 91	 mov	 eax, DWORD PTR [ecx+edx*4]
  0080b	ff d0		 call	 eax
$LN18@subtract_l:

; 828  : 							}
; 829  : 						}
; 830  : 						else

  0080d	e9 a0 00 00 00	 jmp	 $LN19@subtract_l
$LN15@subtract_l:

; 831  : 						{
; 832  : 							//
; 833  : 							// Terminate repairing
; 834  : 							//
; 835  : 
; 836  : 							if (raw->keysite_usable_state == KEYSITE_STATE_REPAIRING)

  00812	8b 45 f0	 mov	 eax, DWORD PTR _raw$[ebp]
  00815	8b 88 a0 01 00
	00		 mov	 ecx, DWORD PTR [eax+416]
  0081b	c1 e9 1a	 shr	 ecx, 26			; 0000001aH
  0081e	83 e1 07	 and	 ecx, 7
  00821	83 f9 02	 cmp	 ecx, 2
  00824	0f 85 88 00 00
	00		 jne	 $LN19@subtract_l

; 837  : 							{
; 838  : 								set_client_server_entity_int_value (keysite_en, INT_TYPE_KEYSITE_USABLE_STATE, KEYSITE_STATE_USABLE);

  0082a	83 7d f4 00	 cmp	 DWORD PTR _keysite_en$[ebp], 0
  0082e	74 0a		 je	 SHORT $LN75@subtract_l
  00830	8b 45 f4	 mov	 eax, DWORD PTR _keysite_en$[ebp]
  00833	8b 08		 mov	 ecx, DWORD PTR [eax]
  00835	89 4d a4	 mov	 DWORD PTR tv427[ebp], ecx
  00838	eb 21		 jmp	 SHORT $LN76@subtract_l
$LN75@subtract_l:
  0083a	8b 15 00 00 00
	00		 mov	 edx, DWORD PTR ?__LINE__Var@?0??subtract_local_entity_importance_from_keysite@@YGXPAUENTITY@@@Z@4JA
  00840	83 c2 64	 add	 edx, 100		; 00000064H
  00843	52		 push	 edx
  00844	68 00 00 00 00	 push	 OFFSET ??_C@_0EN@PIOGLIPD@c?3?2users?2nhv90?2projects?2eech?2ap@
  00849	a1 00 00 00 00	 mov	 eax, DWORD PTR ?null_entity_pointer_message@@3PBDB ; null_entity_pointer_message
  0084e	50		 push	 eax
  0084f	e8 00 00 00 00	 call	 ?process_assert@@YGXPBD0H@Z ; process_assert
  00854	c7 45 a4 00 00
	00 00		 mov	 DWORD PTR tv427[ebp], 0
$LN76@subtract_l:
  0085b	b9 01 00 00 00	 mov	 ecx, 1
  00860	85 c9		 test	 ecx, ecx
  00862	74 09		 je	 SHORT $LN77@subtract_l
  00864	c7 45 a0 70 00
	00 00		 mov	 DWORD PTR tv435[ebp], 112 ; 00000070H
  0086b	eb 21		 jmp	 SHORT $LN78@subtract_l
$LN77@subtract_l:
  0086d	8b 15 00 00 00
	00		 mov	 edx, DWORD PTR ?__LINE__Var@?0??subtract_local_entity_importance_from_keysite@@YGXPAUENTITY@@@Z@4JA
  00873	83 c2 64	 add	 edx, 100		; 00000064H
  00876	52		 push	 edx
  00877	68 00 00 00 00	 push	 OFFSET ??_C@_0EN@PIOGLIPD@c?3?2users?2nhv90?2projects?2eech?2ap@
  0087c	a1 00 00 00 00	 mov	 eax, DWORD PTR ?overload_invalid_int_type_message@@3PBDB ; overload_invalid_int_type_message
  00881	50		 push	 eax
  00882	e8 00 00 00 00	 call	 ?process_assert@@YGXPBD0H@Z ; process_assert
  00887	c7 45 a0 00 00
	00 00		 mov	 DWORD PTR tv435[ebp], 0
$LN78@subtract_l:
  0088e	6a 00		 push	 0
  00890	6a 70		 push	 112			; 00000070H
  00892	8b 4d f4	 mov	 ecx, DWORD PTR _keysite_en$[ebp]
  00895	51		 push	 ecx
  00896	69 55 a4 b8 08
	00 00		 imul	 edx, DWORD PTR tv427[ebp], 2232
  0089d	8b 45 a0	 mov	 eax, DWORD PTR tv435[ebp]
  008a0	8d 8c c2 00 00
	00 00		 lea	 ecx, DWORD PTR ?fn_set_client_server_entity_int_value@@3PAY1BBH@1P6GXPAUENTITY@@W4INT_TYPES@@H@ZA[edx+eax*8]
  008a7	8b 15 00 00 00
	00		 mov	 edx, DWORD PTR ?system_comms_model@@3W4COMMS_MODEL_TYPES@@A ; system_comms_model
  008ad	8b 04 91	 mov	 eax, DWORD PTR [ecx+edx*4]
  008b0	ff d0		 call	 eax
$LN19@subtract_l:
$LN1@subtract_l:

; 839  : 							}
; 840  : 						}
; 841  : 					}
; 842  : 				}
; 843  : 			}
; 844  : 		}
; 845  : 	}
; 846  : }

  008b2	5f		 pop	 edi
  008b3	5e		 pop	 esi
  008b4	5b		 pop	 ebx
  008b5	8b e5		 mov	 esp, ebp
  008b7	5d		 pop	 ebp
  008b8	c2 04 00	 ret	 4
?subtract_local_entity_importance_from_keysite@@YGXPAUENTITY@@@Z ENDP ; subtract_local_entity_importance_from_keysite
_TEXT	ENDS
; Function compile flags: /Odtp /ZI
; File c:\users\nhv90\projects\eech\aphavoc\source\entity\special\keysite\keysite.c
;	COMDAT ?restore_local_entity_importance_to_keysite@@YGHPAUENTITY@@0@Z
_TEXT	SEGMENT
tv158 = -80						; size = 4
tv137 = -80						; size = 4
tv86 = -80						; size = 4
tv150 = -76						; size = 4
tv130 = -76						; size = 4
tv79 = -76						; size = 4
_raw$ = -8						; size = 4
_value$ = -4						; size = 4
_en$ = 8						; size = 4
_keysite_en$ = 12					; size = 4
?restore_local_entity_importance_to_keysite@@YGHPAUENTITY@@0@Z PROC ; restore_local_entity_importance_to_keysite, COMDAT

; 696  : {

  00000	55		 push	 ebp
  00001	8b ec		 mov	 ebp, esp
  00003	83 ec 50	 sub	 esp, 80			; 00000050H
  00006	53		 push	 ebx
  00007	56		 push	 esi
  00008	57		 push	 edi

; 697  : 	float
; 698  : 		value;
; 699  : 
; 700  : 	keysite
; 701  : 		*raw;
; 702  : 
; 703  : 	ASSERT (en);

  00009	83 7d 08 00	 cmp	 DWORD PTR _en$[ebp], 0
  0000d	75 18		 jne	 SHORT $LN2@restore_lo
  0000f	a1 00 00 00 00	 mov	 eax, DWORD PTR ?__LINE__Var@?0??restore_local_entity_importance_to_keysite@@YGHPAUENTITY@@0@Z@4JA
  00014	83 c0 07	 add	 eax, 7
  00017	50		 push	 eax
  00018	68 00 00 00 00	 push	 OFFSET ??_C@_0EN@PIOGLIPD@c?3?2users?2nhv90?2projects?2eech?2ap@
  0001d	68 00 00 00 00	 push	 OFFSET ??_C@_02LFNMGJAP@en@
  00022	e8 00 00 00 00	 call	 ?process_assert@@YGXPBD0H@Z ; process_assert
$LN2@restore_lo:

; 704  : 
; 705  : 	ASSERT (keysite_en);

  00027	83 7d 0c 00	 cmp	 DWORD PTR _keysite_en$[ebp], 0
  0002b	75 18		 jne	 SHORT $LN3@restore_lo
  0002d	a1 00 00 00 00	 mov	 eax, DWORD PTR ?__LINE__Var@?0??restore_local_entity_importance_to_keysite@@YGHPAUENTITY@@0@Z@4JA
  00032	83 c0 09	 add	 eax, 9
  00035	50		 push	 eax
  00036	68 00 00 00 00	 push	 OFFSET ??_C@_0EN@PIOGLIPD@c?3?2users?2nhv90?2projects?2eech?2ap@
  0003b	68 00 00 00 00	 push	 OFFSET ??_C@_0L@FHNPJNGM@keysite_en@
  00040	e8 00 00 00 00	 call	 ?process_assert@@YGXPBD0H@Z ; process_assert
$LN3@restore_lo:

; 706  : 
; 707  : 	if (get_local_entity_int_value (en, INT_TYPE_ALIVE))

  00045	83 7d 08 00	 cmp	 DWORD PTR _en$[ebp], 0
  00049	74 0a		 je	 SHORT $LN8@restore_lo
  0004b	8b 45 08	 mov	 eax, DWORD PTR _en$[ebp]
  0004e	8b 08		 mov	 ecx, DWORD PTR [eax]
  00050	89 4d b4	 mov	 DWORD PTR tv79[ebp], ecx
  00053	eb 1d		 jmp	 SHORT $LN9@restore_lo
$LN8@restore_lo:
  00055	68 c3 02 00 00	 push	 707			; 000002c3H
  0005a	68 00 00 00 00	 push	 OFFSET ??_C@_0EN@PIOGLIPD@c?3?2users?2nhv90?2projects?2eech?2ap@
  0005f	8b 15 00 00 00
	00		 mov	 edx, DWORD PTR ?null_entity_pointer_message@@3PBDB ; null_entity_pointer_message
  00065	52		 push	 edx
  00066	e8 00 00 00 00	 call	 ?process_assert@@YGXPBD0H@Z ; process_assert
  0006b	c7 45 b4 00 00
	00 00		 mov	 DWORD PTR tv79[ebp], 0
$LN9@restore_lo:
  00072	b8 01 00 00 00	 mov	 eax, 1
  00077	85 c0		 test	 eax, eax
  00079	74 09		 je	 SHORT $LN10@restore_lo
  0007b	c7 45 b0 07 00
	00 00		 mov	 DWORD PTR tv86[ebp], 7
  00082	eb 1d		 jmp	 SHORT $LN11@restore_lo
$LN10@restore_lo:
  00084	68 c3 02 00 00	 push	 707			; 000002c3H
  00089	68 00 00 00 00	 push	 OFFSET ??_C@_0EN@PIOGLIPD@c?3?2users?2nhv90?2projects?2eech?2ap@
  0008e	8b 0d 00 00 00
	00		 mov	 ecx, DWORD PTR ?overload_invalid_int_type_message@@3PBDB ; overload_invalid_int_type_message
  00094	51		 push	 ecx
  00095	e8 00 00 00 00	 call	 ?process_assert@@YGXPBD0H@Z ; process_assert
  0009a	c7 45 b0 00 00
	00 00		 mov	 DWORD PTR tv86[ebp], 0
$LN11@restore_lo:
  000a1	6a 07		 push	 7
  000a3	8b 55 08	 mov	 edx, DWORD PTR _en$[ebp]
  000a6	52		 push	 edx
  000a7	69 45 b4 5c 04
	00 00		 imul	 eax, DWORD PTR tv79[ebp], 1116
  000ae	8b 4d b0	 mov	 ecx, DWORD PTR tv86[ebp]
  000b1	8b 94 88 00 00
	00 00		 mov	 edx, DWORD PTR ?fn_get_local_entity_int_value@@3PAY0BBH@P6GHPAUENTITY@@W4INT_TYPES@@@ZA[eax+ecx*4]
  000b8	ff d2		 call	 edx
  000ba	85 c0		 test	 eax, eax
  000bc	0f 84 31 01 00
	00		 je	 $LN6@restore_lo

; 708  : 	{
; 709  : 		if (get_local_entity_int_value (en, INT_TYPE_IDENTIFY_FIXED))

  000c2	83 7d 08 00	 cmp	 DWORD PTR _en$[ebp], 0
  000c6	74 0a		 je	 SHORT $LN12@restore_lo
  000c8	8b 45 08	 mov	 eax, DWORD PTR _en$[ebp]
  000cb	8b 08		 mov	 ecx, DWORD PTR [eax]
  000cd	89 4d b4	 mov	 DWORD PTR tv130[ebp], ecx
  000d0	eb 1d		 jmp	 SHORT $LN13@restore_lo
$LN12@restore_lo:
  000d2	68 c5 02 00 00	 push	 709			; 000002c5H
  000d7	68 00 00 00 00	 push	 OFFSET ??_C@_0EN@PIOGLIPD@c?3?2users?2nhv90?2projects?2eech?2ap@
  000dc	8b 15 00 00 00
	00		 mov	 edx, DWORD PTR ?null_entity_pointer_message@@3PBDB ; null_entity_pointer_message
  000e2	52		 push	 edx
  000e3	e8 00 00 00 00	 call	 ?process_assert@@YGXPBD0H@Z ; process_assert
  000e8	c7 45 b4 00 00
	00 00		 mov	 DWORD PTR tv130[ebp], 0
$LN13@restore_lo:
  000ef	b8 01 00 00 00	 mov	 eax, 1
  000f4	85 c0		 test	 eax, eax
  000f6	74 09		 je	 SHORT $LN14@restore_lo
  000f8	c7 45 b0 5a 00
	00 00		 mov	 DWORD PTR tv137[ebp], 90 ; 0000005aH
  000ff	eb 1d		 jmp	 SHORT $LN15@restore_lo
$LN14@restore_lo:
  00101	68 c5 02 00 00	 push	 709			; 000002c5H
  00106	68 00 00 00 00	 push	 OFFSET ??_C@_0EN@PIOGLIPD@c?3?2users?2nhv90?2projects?2eech?2ap@
  0010b	8b 0d 00 00 00
	00		 mov	 ecx, DWORD PTR ?overload_invalid_int_type_message@@3PBDB ; overload_invalid_int_type_message
  00111	51		 push	 ecx
  00112	e8 00 00 00 00	 call	 ?process_assert@@YGXPBD0H@Z ; process_assert
  00117	c7 45 b0 00 00
	00 00		 mov	 DWORD PTR tv137[ebp], 0
$LN15@restore_lo:
  0011e	6a 5a		 push	 90			; 0000005aH
  00120	8b 55 08	 mov	 edx, DWORD PTR _en$[ebp]
  00123	52		 push	 edx
  00124	69 45 b4 5c 04
	00 00		 imul	 eax, DWORD PTR tv130[ebp], 1116
  0012b	8b 4d b0	 mov	 ecx, DWORD PTR tv137[ebp]
  0012e	8b 94 88 00 00
	00 00		 mov	 edx, DWORD PTR ?fn_get_local_entity_int_value@@3PAY0BBH@P6GHPAUENTITY@@W4INT_TYPES@@@ZA[eax+ecx*4]
  00135	ff d2		 call	 edx
  00137	85 c0		 test	 eax, eax
  00139	0f 84 b4 00 00
	00		 je	 $LN6@restore_lo

; 710  : 		{
; 711  : 			value = get_local_entity_float_value (en, FLOAT_TYPE_FIXED_OBJECT_IMPORTANCE);

  0013f	83 7d 08 00	 cmp	 DWORD PTR _en$[ebp], 0
  00143	74 0a		 je	 SHORT $LN16@restore_lo
  00145	8b 45 08	 mov	 eax, DWORD PTR _en$[ebp]
  00148	8b 08		 mov	 ecx, DWORD PTR [eax]
  0014a	89 4d b4	 mov	 DWORD PTR tv150[ebp], ecx
  0014d	eb 21		 jmp	 SHORT $LN17@restore_lo
$LN16@restore_lo:
  0014f	8b 15 00 00 00
	00		 mov	 edx, DWORD PTR ?__LINE__Var@?0??restore_local_entity_importance_to_keysite@@YGHPAUENTITY@@0@Z@4JA
  00155	83 c2 0f	 add	 edx, 15			; 0000000fH
  00158	52		 push	 edx
  00159	68 00 00 00 00	 push	 OFFSET ??_C@_0EN@PIOGLIPD@c?3?2users?2nhv90?2projects?2eech?2ap@
  0015e	a1 00 00 00 00	 mov	 eax, DWORD PTR ?null_entity_pointer_message@@3PBDB ; null_entity_pointer_message
  00163	50		 push	 eax
  00164	e8 00 00 00 00	 call	 ?process_assert@@YGXPBD0H@Z ; process_assert
  00169	c7 45 b4 00 00
	00 00		 mov	 DWORD PTR tv150[ebp], 0
$LN17@restore_lo:
  00170	b9 01 00 00 00	 mov	 ecx, 1
  00175	85 c9		 test	 ecx, ecx
  00177	74 09		 je	 SHORT $LN18@restore_lo
  00179	c7 45 b0 27 00
	00 00		 mov	 DWORD PTR tv158[ebp], 39 ; 00000027H
  00180	eb 21		 jmp	 SHORT $LN19@restore_lo
$LN18@restore_lo:
  00182	8b 15 00 00 00
	00		 mov	 edx, DWORD PTR ?__LINE__Var@?0??restore_local_entity_importance_to_keysite@@YGHPAUENTITY@@0@Z@4JA
  00188	83 c2 0f	 add	 edx, 15			; 0000000fH
  0018b	52		 push	 edx
  0018c	68 00 00 00 00	 push	 OFFSET ??_C@_0EN@PIOGLIPD@c?3?2users?2nhv90?2projects?2eech?2ap@
  00191	a1 00 00 00 00	 mov	 eax, DWORD PTR ?overload_invalid_float_type_message@@3PBDB ; overload_invalid_float_type_message
  00196	50		 push	 eax
  00197	e8 00 00 00 00	 call	 ?process_assert@@YGXPBD0H@Z ; process_assert
  0019c	c7 45 b0 00 00
	00 00		 mov	 DWORD PTR tv158[ebp], 0
$LN19@restore_lo:
  001a3	6a 27		 push	 39			; 00000027H
  001a5	8b 4d 08	 mov	 ecx, DWORD PTR _en$[ebp]
  001a8	51		 push	 ecx
  001a9	69 55 b4 bc 02
	00 00		 imul	 edx, DWORD PTR tv150[ebp], 700
  001b0	8b 45 b0	 mov	 eax, DWORD PTR tv158[ebp]
  001b3	8b 8c 82 00 00
	00 00		 mov	 ecx, DWORD PTR ?fn_get_local_entity_float_value@@3PAY0KP@P6GMPAUENTITY@@W4FLOAT_TYPES@@@ZA[edx+eax*4]
  001ba	ff d1		 call	 ecx
  001bc	d9 5d fc	 fstp	 DWORD PTR _value$[ebp]

; 712  : 	
; 713  : 			if (value > 0.0)

  001bf	f3 0f 5a 45 fc	 cvtss2sd xmm0, DWORD PTR _value$[ebp]
  001c4	66 0f 2f 05 00
	00 00 00	 comisd	 xmm0, QWORD PTR __real@0000000000000000
  001cc	76 25		 jbe	 SHORT $LN6@restore_lo

; 714  : 			{
; 715  : 				raw = (keysite *) get_local_entity_data (keysite_en);

  001ce	8b 45 0c	 mov	 eax, DWORD PTR _keysite_en$[ebp]
  001d1	8b 48 04	 mov	 ecx, DWORD PTR [eax+4]
  001d4	89 4d f8	 mov	 DWORD PTR _raw$[ebp], ecx

; 716  : 		
; 717  : 				raw->keysite_strength += value;

  001d7	8b 45 f8	 mov	 eax, DWORD PTR _raw$[ebp]
  001da	f3 0f 10 40 74	 movss	 xmm0, DWORD PTR [eax+116]
  001df	f3 0f 58 45 fc	 addss	 xmm0, DWORD PTR _value$[ebp]
  001e4	8b 4d f8	 mov	 ecx, DWORD PTR _raw$[ebp]
  001e7	f3 0f 11 41 74	 movss	 DWORD PTR [ecx+116], xmm0

; 718  : 		
; 719  : 				#if DEBUG_MODULE
; 720  : 
; 721  : 				debug_log ("KEYSITE: %s restored %s, new strength (%.2f / %.2f)", raw->keysite_name, get_local_entity_string (en, STRING_TYPE_LONG_DISPLAY_NAME), raw->keysite_strength, raw->keysite_maximum_strength);
; 722  : 
; 723  : 				#endif
; 724  : 
; 725  : 				return TRUE;

  001ec	b8 01 00 00 00	 mov	 eax, 1
  001f1	eb 02		 jmp	 SHORT $LN1@restore_lo
$LN6@restore_lo:

; 726  : 			}
; 727  : 		}
; 728  : 	}
; 729  : 
; 730  : 	return FALSE;

  001f3	33 c0		 xor	 eax, eax
$LN1@restore_lo:

; 731  : }

  001f5	5f		 pop	 edi
  001f6	5e		 pop	 esi
  001f7	5b		 pop	 ebx
  001f8	8b e5		 mov	 esp, ebp
  001fa	5d		 pop	 ebp
  001fb	c2 08 00	 ret	 8
?restore_local_entity_importance_to_keysite@@YGHPAUENTITY@@0@Z ENDP ; restore_local_entity_importance_to_keysite
_TEXT	ENDS
; Function compile flags: /Odtp /ZI
; File c:\users\nhv90\projects\eech\aphavoc\source\entity\special\keysite\keysite.c
;	COMDAT ?add_local_entity_importance_to_keysite@@YGHPAUENTITY@@0@Z
_TEXT	SEGMENT
tv158 = -80						; size = 4
tv137 = -80						; size = 4
tv86 = -80						; size = 4
tv150 = -76						; size = 4
tv130 = -76						; size = 4
tv79 = -76						; size = 4
_raw$ = -8						; size = 4
_value$ = -4						; size = 4
_en$ = 8						; size = 4
_keysite_en$ = 12					; size = 4
?add_local_entity_importance_to_keysite@@YGHPAUENTITY@@0@Z PROC ; add_local_entity_importance_to_keysite, COMDAT

; 652  : {

  00000	55		 push	 ebp
  00001	8b ec		 mov	 ebp, esp
  00003	83 ec 50	 sub	 esp, 80			; 00000050H
  00006	53		 push	 ebx
  00007	56		 push	 esi
  00008	57		 push	 edi

; 653  : 	float
; 654  : 		value;
; 655  : 
; 656  : 	keysite
; 657  : 		*raw;
; 658  : 
; 659  : 	ASSERT (en);

  00009	83 7d 08 00	 cmp	 DWORD PTR _en$[ebp], 0
  0000d	75 18		 jne	 SHORT $LN2@add_local_
  0000f	a1 00 00 00 00	 mov	 eax, DWORD PTR ?__LINE__Var@?0??add_local_entity_importance_to_keysite@@YGHPAUENTITY@@0@Z@4JA
  00014	83 c0 07	 add	 eax, 7
  00017	50		 push	 eax
  00018	68 00 00 00 00	 push	 OFFSET ??_C@_0EN@PIOGLIPD@c?3?2users?2nhv90?2projects?2eech?2ap@
  0001d	68 00 00 00 00	 push	 OFFSET ??_C@_02LFNMGJAP@en@
  00022	e8 00 00 00 00	 call	 ?process_assert@@YGXPBD0H@Z ; process_assert
$LN2@add_local_:

; 660  : 
; 661  : 	ASSERT (keysite_en);

  00027	83 7d 0c 00	 cmp	 DWORD PTR _keysite_en$[ebp], 0
  0002b	75 18		 jne	 SHORT $LN3@add_local_
  0002d	a1 00 00 00 00	 mov	 eax, DWORD PTR ?__LINE__Var@?0??add_local_entity_importance_to_keysite@@YGHPAUENTITY@@0@Z@4JA
  00032	83 c0 09	 add	 eax, 9
  00035	50		 push	 eax
  00036	68 00 00 00 00	 push	 OFFSET ??_C@_0EN@PIOGLIPD@c?3?2users?2nhv90?2projects?2eech?2ap@
  0003b	68 00 00 00 00	 push	 OFFSET ??_C@_0L@FHNPJNGM@keysite_en@
  00040	e8 00 00 00 00	 call	 ?process_assert@@YGXPBD0H@Z ; process_assert
$LN3@add_local_:

; 662  : 
; 663  : 	if (get_local_entity_int_value (en, INT_TYPE_ALIVE))

  00045	83 7d 08 00	 cmp	 DWORD PTR _en$[ebp], 0
  00049	74 0a		 je	 SHORT $LN8@add_local_
  0004b	8b 45 08	 mov	 eax, DWORD PTR _en$[ebp]
  0004e	8b 08		 mov	 ecx, DWORD PTR [eax]
  00050	89 4d b4	 mov	 DWORD PTR tv79[ebp], ecx
  00053	eb 1d		 jmp	 SHORT $LN9@add_local_
$LN8@add_local_:
  00055	68 97 02 00 00	 push	 663			; 00000297H
  0005a	68 00 00 00 00	 push	 OFFSET ??_C@_0EN@PIOGLIPD@c?3?2users?2nhv90?2projects?2eech?2ap@
  0005f	8b 15 00 00 00
	00		 mov	 edx, DWORD PTR ?null_entity_pointer_message@@3PBDB ; null_entity_pointer_message
  00065	52		 push	 edx
  00066	e8 00 00 00 00	 call	 ?process_assert@@YGXPBD0H@Z ; process_assert
  0006b	c7 45 b4 00 00
	00 00		 mov	 DWORD PTR tv79[ebp], 0
$LN9@add_local_:
  00072	b8 01 00 00 00	 mov	 eax, 1
  00077	85 c0		 test	 eax, eax
  00079	74 09		 je	 SHORT $LN10@add_local_
  0007b	c7 45 b0 07 00
	00 00		 mov	 DWORD PTR tv86[ebp], 7
  00082	eb 1d		 jmp	 SHORT $LN11@add_local_
$LN10@add_local_:
  00084	68 97 02 00 00	 push	 663			; 00000297H
  00089	68 00 00 00 00	 push	 OFFSET ??_C@_0EN@PIOGLIPD@c?3?2users?2nhv90?2projects?2eech?2ap@
  0008e	8b 0d 00 00 00
	00		 mov	 ecx, DWORD PTR ?overload_invalid_int_type_message@@3PBDB ; overload_invalid_int_type_message
  00094	51		 push	 ecx
  00095	e8 00 00 00 00	 call	 ?process_assert@@YGXPBD0H@Z ; process_assert
  0009a	c7 45 b0 00 00
	00 00		 mov	 DWORD PTR tv86[ebp], 0
$LN11@add_local_:
  000a1	6a 07		 push	 7
  000a3	8b 55 08	 mov	 edx, DWORD PTR _en$[ebp]
  000a6	52		 push	 edx
  000a7	69 45 b4 5c 04
	00 00		 imul	 eax, DWORD PTR tv79[ebp], 1116
  000ae	8b 4d b0	 mov	 ecx, DWORD PTR tv86[ebp]
  000b1	8b 94 88 00 00
	00 00		 mov	 edx, DWORD PTR ?fn_get_local_entity_int_value@@3PAY0BBH@P6GHPAUENTITY@@W4INT_TYPES@@@ZA[eax+ecx*4]
  000b8	ff d2		 call	 edx
  000ba	85 c0		 test	 eax, eax
  000bc	0f 84 46 01 00
	00		 je	 $LN6@add_local_

; 664  : 	{
; 665  : 		if (get_local_entity_int_value (en, INT_TYPE_IDENTIFY_FIXED))

  000c2	83 7d 08 00	 cmp	 DWORD PTR _en$[ebp], 0
  000c6	74 0a		 je	 SHORT $LN12@add_local_
  000c8	8b 45 08	 mov	 eax, DWORD PTR _en$[ebp]
  000cb	8b 08		 mov	 ecx, DWORD PTR [eax]
  000cd	89 4d b4	 mov	 DWORD PTR tv130[ebp], ecx
  000d0	eb 1d		 jmp	 SHORT $LN13@add_local_
$LN12@add_local_:
  000d2	68 99 02 00 00	 push	 665			; 00000299H
  000d7	68 00 00 00 00	 push	 OFFSET ??_C@_0EN@PIOGLIPD@c?3?2users?2nhv90?2projects?2eech?2ap@
  000dc	8b 15 00 00 00
	00		 mov	 edx, DWORD PTR ?null_entity_pointer_message@@3PBDB ; null_entity_pointer_message
  000e2	52		 push	 edx
  000e3	e8 00 00 00 00	 call	 ?process_assert@@YGXPBD0H@Z ; process_assert
  000e8	c7 45 b4 00 00
	00 00		 mov	 DWORD PTR tv130[ebp], 0
$LN13@add_local_:
  000ef	b8 01 00 00 00	 mov	 eax, 1
  000f4	85 c0		 test	 eax, eax
  000f6	74 09		 je	 SHORT $LN14@add_local_
  000f8	c7 45 b0 5a 00
	00 00		 mov	 DWORD PTR tv137[ebp], 90 ; 0000005aH
  000ff	eb 1d		 jmp	 SHORT $LN15@add_local_
$LN14@add_local_:
  00101	68 99 02 00 00	 push	 665			; 00000299H
  00106	68 00 00 00 00	 push	 OFFSET ??_C@_0EN@PIOGLIPD@c?3?2users?2nhv90?2projects?2eech?2ap@
  0010b	8b 0d 00 00 00
	00		 mov	 ecx, DWORD PTR ?overload_invalid_int_type_message@@3PBDB ; overload_invalid_int_type_message
  00111	51		 push	 ecx
  00112	e8 00 00 00 00	 call	 ?process_assert@@YGXPBD0H@Z ; process_assert
  00117	c7 45 b0 00 00
	00 00		 mov	 DWORD PTR tv137[ebp], 0
$LN15@add_local_:
  0011e	6a 5a		 push	 90			; 0000005aH
  00120	8b 55 08	 mov	 edx, DWORD PTR _en$[ebp]
  00123	52		 push	 edx
  00124	69 45 b4 5c 04
	00 00		 imul	 eax, DWORD PTR tv130[ebp], 1116
  0012b	8b 4d b0	 mov	 ecx, DWORD PTR tv137[ebp]
  0012e	8b 94 88 00 00
	00 00		 mov	 edx, DWORD PTR ?fn_get_local_entity_int_value@@3PAY0BBH@P6GHPAUENTITY@@W4INT_TYPES@@@ZA[eax+ecx*4]
  00135	ff d2		 call	 edx
  00137	85 c0		 test	 eax, eax
  00139	0f 84 c9 00 00
	00		 je	 $LN6@add_local_

; 666  : 		{
; 667  : 			value = get_local_entity_float_value (en, FLOAT_TYPE_FIXED_OBJECT_IMPORTANCE);

  0013f	83 7d 08 00	 cmp	 DWORD PTR _en$[ebp], 0
  00143	74 0a		 je	 SHORT $LN16@add_local_
  00145	8b 45 08	 mov	 eax, DWORD PTR _en$[ebp]
  00148	8b 08		 mov	 ecx, DWORD PTR [eax]
  0014a	89 4d b4	 mov	 DWORD PTR tv150[ebp], ecx
  0014d	eb 21		 jmp	 SHORT $LN17@add_local_
$LN16@add_local_:
  0014f	8b 15 00 00 00
	00		 mov	 edx, DWORD PTR ?__LINE__Var@?0??add_local_entity_importance_to_keysite@@YGHPAUENTITY@@0@Z@4JA
  00155	83 c2 0f	 add	 edx, 15			; 0000000fH
  00158	52		 push	 edx
  00159	68 00 00 00 00	 push	 OFFSET ??_C@_0EN@PIOGLIPD@c?3?2users?2nhv90?2projects?2eech?2ap@
  0015e	a1 00 00 00 00	 mov	 eax, DWORD PTR ?null_entity_pointer_message@@3PBDB ; null_entity_pointer_message
  00163	50		 push	 eax
  00164	e8 00 00 00 00	 call	 ?process_assert@@YGXPBD0H@Z ; process_assert
  00169	c7 45 b4 00 00
	00 00		 mov	 DWORD PTR tv150[ebp], 0
$LN17@add_local_:
  00170	b9 01 00 00 00	 mov	 ecx, 1
  00175	85 c9		 test	 ecx, ecx
  00177	74 09		 je	 SHORT $LN18@add_local_
  00179	c7 45 b0 27 00
	00 00		 mov	 DWORD PTR tv158[ebp], 39 ; 00000027H
  00180	eb 21		 jmp	 SHORT $LN19@add_local_
$LN18@add_local_:
  00182	8b 15 00 00 00
	00		 mov	 edx, DWORD PTR ?__LINE__Var@?0??add_local_entity_importance_to_keysite@@YGHPAUENTITY@@0@Z@4JA
  00188	83 c2 0f	 add	 edx, 15			; 0000000fH
  0018b	52		 push	 edx
  0018c	68 00 00 00 00	 push	 OFFSET ??_C@_0EN@PIOGLIPD@c?3?2users?2nhv90?2projects?2eech?2ap@
  00191	a1 00 00 00 00	 mov	 eax, DWORD PTR ?overload_invalid_float_type_message@@3PBDB ; overload_invalid_float_type_message
  00196	50		 push	 eax
  00197	e8 00 00 00 00	 call	 ?process_assert@@YGXPBD0H@Z ; process_assert
  0019c	c7 45 b0 00 00
	00 00		 mov	 DWORD PTR tv158[ebp], 0
$LN19@add_local_:
  001a3	6a 27		 push	 39			; 00000027H
  001a5	8b 4d 08	 mov	 ecx, DWORD PTR _en$[ebp]
  001a8	51		 push	 ecx
  001a9	69 55 b4 bc 02
	00 00		 imul	 edx, DWORD PTR tv150[ebp], 700
  001b0	8b 45 b0	 mov	 eax, DWORD PTR tv158[ebp]
  001b3	8b 8c 82 00 00
	00 00		 mov	 ecx, DWORD PTR ?fn_get_local_entity_float_value@@3PAY0KP@P6GMPAUENTITY@@W4FLOAT_TYPES@@@ZA[edx+eax*4]
  001ba	ff d1		 call	 ecx
  001bc	d9 5d fc	 fstp	 DWORD PTR _value$[ebp]

; 668  : 	
; 669  : 			if (value > 0.0)

  001bf	f3 0f 5a 45 fc	 cvtss2sd xmm0, DWORD PTR _value$[ebp]
  001c4	66 0f 2f 05 00
	00 00 00	 comisd	 xmm0, QWORD PTR __real@0000000000000000
  001cc	76 3a		 jbe	 SHORT $LN6@add_local_

; 670  : 			{
; 671  : 				raw = (keysite *) get_local_entity_data (keysite_en);

  001ce	8b 45 0c	 mov	 eax, DWORD PTR _keysite_en$[ebp]
  001d1	8b 48 04	 mov	 ecx, DWORD PTR [eax+4]
  001d4	89 4d f8	 mov	 DWORD PTR _raw$[ebp], ecx

; 672  : 		
; 673  : 				raw->keysite_strength += value;

  001d7	8b 45 f8	 mov	 eax, DWORD PTR _raw$[ebp]
  001da	f3 0f 10 40 74	 movss	 xmm0, DWORD PTR [eax+116]
  001df	f3 0f 58 45 fc	 addss	 xmm0, DWORD PTR _value$[ebp]
  001e4	8b 4d f8	 mov	 ecx, DWORD PTR _raw$[ebp]
  001e7	f3 0f 11 41 74	 movss	 DWORD PTR [ecx+116], xmm0

; 674  : 		
; 675  : 				raw->keysite_maximum_strength += value;

  001ec	8b 45 f8	 mov	 eax, DWORD PTR _raw$[ebp]
  001ef	f3 0f 10 40 78	 movss	 xmm0, DWORD PTR [eax+120]
  001f4	f3 0f 58 45 fc	 addss	 xmm0, DWORD PTR _value$[ebp]
  001f9	8b 4d f8	 mov	 ecx, DWORD PTR _raw$[ebp]
  001fc	f3 0f 11 41 78	 movss	 DWORD PTR [ecx+120], xmm0

; 676  : 		
; 677  : 				#if DEBUG_MODULE
; 678  : 
; 679  : 				debug_log ("KEYSITE: %s added %s, new strength (%.2f / %.2f)", raw->keysite_name, get_local_entity_string (en, STRING_TYPE_LONG_DISPLAY_NAME), raw->keysite_strength, raw->keysite_maximum_strength);
; 680  : 
; 681  : 				#endif
; 682  : 
; 683  : 				return TRUE;

  00201	b8 01 00 00 00	 mov	 eax, 1
  00206	eb 02		 jmp	 SHORT $LN1@add_local_
$LN6@add_local_:

; 684  : 			}
; 685  : 		}
; 686  : 	}
; 687  : 
; 688  : 	return FALSE;

  00208	33 c0		 xor	 eax, eax
$LN1@add_local_:

; 689  : }

  0020a	5f		 pop	 edi
  0020b	5e		 pop	 esi
  0020c	5b		 pop	 ebx
  0020d	8b e5		 mov	 esp, ebp
  0020f	5d		 pop	 ebp
  00210	c2 08 00	 ret	 8
?add_local_entity_importance_to_keysite@@YGHPAUENTITY@@0@Z ENDP ; add_local_entity_importance_to_keysite
_TEXT	ENDS
; Function compile flags: /Odtp /ZI
; File c:\users\nhv90\projects\eech\aphavoc\source\entity\special\keysite\keysite.c
;	COMDAT ?get_local_keysite_member_count@@YGHPAUENTITY@@@Z
_TEXT	SEGMENT
tv173 = -84						; size = 4
tv153 = -84						; size = 4
tv131 = -84						; size = 4
tv78 = -84						; size = 4
tv165 = -80						; size = 4
tv145 = -80						; size = 4
tv91 = -80						; size = 4
tv70 = -80						; size = 4
_count$ = -12						; size = 4
_member$ = -8						; size = 4
_group$ = -4						; size = 4
_keysite$ = 8						; size = 4
?get_local_keysite_member_count@@YGHPAUENTITY@@@Z PROC	; get_local_keysite_member_count, COMDAT

; 617  : {

  00000	55		 push	 ebp
  00001	8b ec		 mov	 ebp, esp
  00003	83 ec 54	 sub	 esp, 84			; 00000054H
  00006	53		 push	 ebx
  00007	56		 push	 esi
  00008	57		 push	 edi

; 618  : 
; 619  : 	entity
; 620  : 		*group,
; 621  : 		*member;
; 622  : 
; 623  : 	int
; 624  : 		count;
; 625  : 
; 626  : 	count = 0;

  00009	c7 45 f4 00 00
	00 00		 mov	 DWORD PTR _count$[ebp], 0

; 627  : 
; 628  : 	group = get_local_entity_first_child (keysite, LIST_TYPE_KEYSITE_GROUP);

  00010	83 7d 08 00	 cmp	 DWORD PTR _keysite$[ebp], 0
  00014	74 0a		 je	 SHORT $LN7@get_local_
  00016	8b 45 08	 mov	 eax, DWORD PTR _keysite$[ebp]
  00019	8b 08		 mov	 ecx, DWORD PTR [eax]
  0001b	89 4d b0	 mov	 DWORD PTR tv70[ebp], ecx
  0001e	eb 21		 jmp	 SHORT $LN8@get_local_
$LN7@get_local_:
  00020	8b 15 00 00 00
	00		 mov	 edx, DWORD PTR ?__LINE__Var@?0??get_local_keysite_member_count@@YGHPAUENTITY@@@Z@4JA
  00026	83 c2 0b	 add	 edx, 11			; 0000000bH
  00029	52		 push	 edx
  0002a	68 00 00 00 00	 push	 OFFSET ??_C@_0EN@PIOGLIPD@c?3?2users?2nhv90?2projects?2eech?2ap@
  0002f	a1 00 00 00 00	 mov	 eax, DWORD PTR ?null_entity_pointer_message@@3PBDB ; null_entity_pointer_message
  00034	50		 push	 eax
  00035	e8 00 00 00 00	 call	 ?process_assert@@YGXPBD0H@Z ; process_assert
  0003a	c7 45 b0 00 00
	00 00		 mov	 DWORD PTR tv70[ebp], 0
$LN8@get_local_:
  00041	b9 01 00 00 00	 mov	 ecx, 1
  00046	85 c9		 test	 ecx, ecx
  00048	74 09		 je	 SHORT $LN9@get_local_
  0004a	c7 45 ac 16 00
	00 00		 mov	 DWORD PTR tv78[ebp], 22	; 00000016H
  00051	eb 21		 jmp	 SHORT $LN10@get_local_
$LN9@get_local_:
  00053	8b 15 00 00 00
	00		 mov	 edx, DWORD PTR ?__LINE__Var@?0??get_local_keysite_member_count@@YGHPAUENTITY@@@Z@4JA
  00059	83 c2 0b	 add	 edx, 11			; 0000000bH
  0005c	52		 push	 edx
  0005d	68 00 00 00 00	 push	 OFFSET ??_C@_0EN@PIOGLIPD@c?3?2users?2nhv90?2projects?2eech?2ap@
  00062	a1 00 00 00 00	 mov	 eax, DWORD PTR ?overload_invalid_list_type_message@@3PBDB ; overload_invalid_list_type_message
  00067	50		 push	 eax
  00068	e8 00 00 00 00	 call	 ?process_assert@@YGXPBD0H@Z ; process_assert
  0006d	c7 45 ac 00 00
	00 00		 mov	 DWORD PTR tv78[ebp], 0
$LN10@get_local_:
  00074	6a 16		 push	 22			; 00000016H
  00076	8b 4d 08	 mov	 ecx, DWORD PTR _keysite$[ebp]
  00079	51		 push	 ecx
  0007a	69 55 b0 b4 00
	00 00		 imul	 edx, DWORD PTR tv70[ebp], 180
  00081	8b 45 ac	 mov	 eax, DWORD PTR tv78[ebp]
  00084	8b 8c 82 00 00
	00 00		 mov	 ecx, DWORD PTR ?fn_get_local_entity_first_child@@3PAY0CN@P6GPAUENTITY@@PAU1@W4LIST_TYPES@@@ZA[edx+eax*4]
  0008b	ff d1		 call	 ecx
  0008d	89 45 fc	 mov	 DWORD PTR _group$[ebp], eax
$LN2@get_local_:

; 629  : 
; 630  : 	while (group)

  00090	83 7d fc 00	 cmp	 DWORD PTR _group$[ebp], 0
  00094	0f 84 9d 01 00
	00		 je	 $LN3@get_local_

; 631  : 	{
; 632  : 		member = get_local_entity_first_child (group, LIST_TYPE_MEMBER);

  0009a	83 7d fc 00	 cmp	 DWORD PTR _group$[ebp], 0
  0009e	74 0a		 je	 SHORT $LN11@get_local_
  000a0	8b 45 fc	 mov	 eax, DWORD PTR _group$[ebp]
  000a3	8b 08		 mov	 ecx, DWORD PTR [eax]
  000a5	89 4d b0	 mov	 DWORD PTR tv91[ebp], ecx
  000a8	eb 21		 jmp	 SHORT $LN12@get_local_
$LN11@get_local_:
  000aa	8b 15 00 00 00
	00		 mov	 edx, DWORD PTR ?__LINE__Var@?0??get_local_keysite_member_count@@YGHPAUENTITY@@@Z@4JA
  000b0	83 c2 0f	 add	 edx, 15			; 0000000fH
  000b3	52		 push	 edx
  000b4	68 00 00 00 00	 push	 OFFSET ??_C@_0EN@PIOGLIPD@c?3?2users?2nhv90?2projects?2eech?2ap@
  000b9	a1 00 00 00 00	 mov	 eax, DWORD PTR ?null_entity_pointer_message@@3PBDB ; null_entity_pointer_message
  000be	50		 push	 eax
  000bf	e8 00 00 00 00	 call	 ?process_assert@@YGXPBD0H@Z ; process_assert
  000c4	c7 45 b0 00 00
	00 00		 mov	 DWORD PTR tv91[ebp], 0
$LN12@get_local_:
  000cb	b9 01 00 00 00	 mov	 ecx, 1
  000d0	85 c9		 test	 ecx, ecx
  000d2	74 09		 je	 SHORT $LN13@get_local_
  000d4	c7 45 ac 19 00
	00 00		 mov	 DWORD PTR tv131[ebp], 25 ; 00000019H
  000db	eb 21		 jmp	 SHORT $LN14@get_local_
$LN13@get_local_:
  000dd	8b 15 00 00 00
	00		 mov	 edx, DWORD PTR ?__LINE__Var@?0??get_local_keysite_member_count@@YGHPAUENTITY@@@Z@4JA
  000e3	83 c2 0f	 add	 edx, 15			; 0000000fH
  000e6	52		 push	 edx
  000e7	68 00 00 00 00	 push	 OFFSET ??_C@_0EN@PIOGLIPD@c?3?2users?2nhv90?2projects?2eech?2ap@
  000ec	a1 00 00 00 00	 mov	 eax, DWORD PTR ?overload_invalid_list_type_message@@3PBDB ; overload_invalid_list_type_message
  000f1	50		 push	 eax
  000f2	e8 00 00 00 00	 call	 ?process_assert@@YGXPBD0H@Z ; process_assert
  000f7	c7 45 ac 00 00
	00 00		 mov	 DWORD PTR tv131[ebp], 0
$LN14@get_local_:
  000fe	6a 19		 push	 25			; 00000019H
  00100	8b 4d fc	 mov	 ecx, DWORD PTR _group$[ebp]
  00103	51		 push	 ecx
  00104	69 55 b0 b4 00
	00 00		 imul	 edx, DWORD PTR tv91[ebp], 180
  0010b	8b 45 ac	 mov	 eax, DWORD PTR tv131[ebp]
  0010e	8b 8c 82 00 00
	00 00		 mov	 ecx, DWORD PTR ?fn_get_local_entity_first_child@@3PAY0CN@P6GPAUENTITY@@PAU1@W4LIST_TYPES@@@ZA[edx+eax*4]
  00115	ff d1		 call	 ecx
  00117	89 45 f8	 mov	 DWORD PTR _member$[ebp], eax
$LN4@get_local_:

; 633  : 
; 634  : 		while (member)

  0011a	83 7d f8 00	 cmp	 DWORD PTR _member$[ebp], 0
  0011e	0f 84 8e 00 00
	00		 je	 $LN5@get_local_

; 635  : 		{
; 636  : 			count ++;

  00124	8b 45 f4	 mov	 eax, DWORD PTR _count$[ebp]
  00127	83 c0 01	 add	 eax, 1
  0012a	89 45 f4	 mov	 DWORD PTR _count$[ebp], eax

; 637  : 
; 638  : 			member = get_local_entity_child_succ (member, LIST_TYPE_MEMBER);

  0012d	83 7d f8 00	 cmp	 DWORD PTR _member$[ebp], 0
  00131	74 0a		 je	 SHORT $LN15@get_local_
  00133	8b 45 f8	 mov	 eax, DWORD PTR _member$[ebp]
  00136	8b 08		 mov	 ecx, DWORD PTR [eax]
  00138	89 4d b0	 mov	 DWORD PTR tv145[ebp], ecx
  0013b	eb 21		 jmp	 SHORT $LN16@get_local_
$LN15@get_local_:
  0013d	8b 15 00 00 00
	00		 mov	 edx, DWORD PTR ?__LINE__Var@?0??get_local_keysite_member_count@@YGHPAUENTITY@@@Z@4JA
  00143	83 c2 15	 add	 edx, 21			; 00000015H
  00146	52		 push	 edx
  00147	68 00 00 00 00	 push	 OFFSET ??_C@_0EN@PIOGLIPD@c?3?2users?2nhv90?2projects?2eech?2ap@
  0014c	a1 00 00 00 00	 mov	 eax, DWORD PTR ?null_entity_pointer_message@@3PBDB ; null_entity_pointer_message
  00151	50		 push	 eax
  00152	e8 00 00 00 00	 call	 ?process_assert@@YGXPBD0H@Z ; process_assert
  00157	c7 45 b0 00 00
	00 00		 mov	 DWORD PTR tv145[ebp], 0
$LN16@get_local_:
  0015e	b9 01 00 00 00	 mov	 ecx, 1
  00163	85 c9		 test	 ecx, ecx
  00165	74 09		 je	 SHORT $LN17@get_local_
  00167	c7 45 ac 19 00
	00 00		 mov	 DWORD PTR tv153[ebp], 25 ; 00000019H
  0016e	eb 21		 jmp	 SHORT $LN18@get_local_
$LN17@get_local_:
  00170	8b 15 00 00 00
	00		 mov	 edx, DWORD PTR ?__LINE__Var@?0??get_local_keysite_member_count@@YGHPAUENTITY@@@Z@4JA
  00176	83 c2 15	 add	 edx, 21			; 00000015H
  00179	52		 push	 edx
  0017a	68 00 00 00 00	 push	 OFFSET ??_C@_0EN@PIOGLIPD@c?3?2users?2nhv90?2projects?2eech?2ap@
  0017f	a1 00 00 00 00	 mov	 eax, DWORD PTR ?overload_invalid_list_type_message@@3PBDB ; overload_invalid_list_type_message
  00184	50		 push	 eax
  00185	e8 00 00 00 00	 call	 ?process_assert@@YGXPBD0H@Z ; process_assert
  0018a	c7 45 ac 00 00
	00 00		 mov	 DWORD PTR tv153[ebp], 0
$LN18@get_local_:
  00191	6a 19		 push	 25			; 00000019H
  00193	8b 4d f8	 mov	 ecx, DWORD PTR _member$[ebp]
  00196	51		 push	 ecx
  00197	69 55 b0 b4 00
	00 00		 imul	 edx, DWORD PTR tv145[ebp], 180
  0019e	8b 45 ac	 mov	 eax, DWORD PTR tv153[ebp]
  001a1	8b 8c 82 00 00
	00 00		 mov	 ecx, DWORD PTR ?fn_get_local_entity_child_succ@@3PAY0CN@P6GPAUENTITY@@PAU1@W4LIST_TYPES@@@ZA[edx+eax*4]
  001a8	ff d1		 call	 ecx
  001aa	89 45 f8	 mov	 DWORD PTR _member$[ebp], eax

; 639  : 		}

  001ad	e9 68 ff ff ff	 jmp	 $LN4@get_local_
$LN5@get_local_:

; 640  : 
; 641  : 		group = get_local_entity_child_succ (group, LIST_TYPE_KEYSITE_GROUP);

  001b2	83 7d fc 00	 cmp	 DWORD PTR _group$[ebp], 0
  001b6	74 0a		 je	 SHORT $LN19@get_local_
  001b8	8b 45 fc	 mov	 eax, DWORD PTR _group$[ebp]
  001bb	8b 08		 mov	 ecx, DWORD PTR [eax]
  001bd	89 4d b0	 mov	 DWORD PTR tv165[ebp], ecx
  001c0	eb 21		 jmp	 SHORT $LN20@get_local_
$LN19@get_local_:
  001c2	8b 15 00 00 00
	00		 mov	 edx, DWORD PTR ?__LINE__Var@?0??get_local_keysite_member_count@@YGHPAUENTITY@@@Z@4JA
  001c8	83 c2 18	 add	 edx, 24			; 00000018H
  001cb	52		 push	 edx
  001cc	68 00 00 00 00	 push	 OFFSET ??_C@_0EN@PIOGLIPD@c?3?2users?2nhv90?2projects?2eech?2ap@
  001d1	a1 00 00 00 00	 mov	 eax, DWORD PTR ?null_entity_pointer_message@@3PBDB ; null_entity_pointer_message
  001d6	50		 push	 eax
  001d7	e8 00 00 00 00	 call	 ?process_assert@@YGXPBD0H@Z ; process_assert
  001dc	c7 45 b0 00 00
	00 00		 mov	 DWORD PTR tv165[ebp], 0
$LN20@get_local_:
  001e3	b9 01 00 00 00	 mov	 ecx, 1
  001e8	85 c9		 test	 ecx, ecx
  001ea	74 09		 je	 SHORT $LN21@get_local_
  001ec	c7 45 ac 16 00
	00 00		 mov	 DWORD PTR tv173[ebp], 22 ; 00000016H
  001f3	eb 21		 jmp	 SHORT $LN22@get_local_
$LN21@get_local_:
  001f5	8b 15 00 00 00
	00		 mov	 edx, DWORD PTR ?__LINE__Var@?0??get_local_keysite_member_count@@YGHPAUENTITY@@@Z@4JA
  001fb	83 c2 18	 add	 edx, 24			; 00000018H
  001fe	52		 push	 edx
  001ff	68 00 00 00 00	 push	 OFFSET ??_C@_0EN@PIOGLIPD@c?3?2users?2nhv90?2projects?2eech?2ap@
  00204	a1 00 00 00 00	 mov	 eax, DWORD PTR ?overload_invalid_list_type_message@@3PBDB ; overload_invalid_list_type_message
  00209	50		 push	 eax
  0020a	e8 00 00 00 00	 call	 ?process_assert@@YGXPBD0H@Z ; process_assert
  0020f	c7 45 ac 00 00
	00 00		 mov	 DWORD PTR tv173[ebp], 0
$LN22@get_local_:
  00216	6a 16		 push	 22			; 00000016H
  00218	8b 4d fc	 mov	 ecx, DWORD PTR _group$[ebp]
  0021b	51		 push	 ecx
  0021c	69 55 b0 b4 00
	00 00		 imul	 edx, DWORD PTR tv165[ebp], 180
  00223	8b 45 ac	 mov	 eax, DWORD PTR tv173[ebp]
  00226	8b 8c 82 00 00
	00 00		 mov	 ecx, DWORD PTR ?fn_get_local_entity_child_succ@@3PAY0CN@P6GPAUENTITY@@PAU1@W4LIST_TYPES@@@ZA[edx+eax*4]
  0022d	ff d1		 call	 ecx
  0022f	89 45 fc	 mov	 DWORD PTR _group$[ebp], eax

; 642  : 	}

  00232	e9 59 fe ff ff	 jmp	 $LN2@get_local_
$LN3@get_local_:

; 643  : 
; 644  : 	return count;

  00237	8b 45 f4	 mov	 eax, DWORD PTR _count$[ebp]

; 645  : }

  0023a	5f		 pop	 edi
  0023b	5e		 pop	 esi
  0023c	5b		 pop	 ebx
  0023d	8b e5		 mov	 esp, ebp
  0023f	5d		 pop	 ebp
  00240	c2 04 00	 ret	 4
?get_local_keysite_member_count@@YGHPAUENTITY@@@Z ENDP	; get_local_keysite_member_count
_TEXT	ENDS
; Function compile flags: /Odtp /ZI
; File c:\users\nhv90\projects\eech\aphavoc\source\entity\special\keysite\keysite.c
;	COMDAT ?get_fixed_structure_keysite_entity@@YGPAUENTITY@@PAU1@@Z
_TEXT	SEGMENT
tv163 = -80						; size = 4
tv143 = -80						; size = 4
tv83 = -80						; size = 4
tv174 = -76						; size = 4
tv155 = -76						; size = 4
tv135 = -76						; size = 4
tv95 = -76						; size = 4
tv75 = -76						; size = 4
_keysite$ = -8						; size = 4
_group$ = -4						; size = 4
_structure$ = 8						; size = 4
?get_fixed_structure_keysite_entity@@YGPAUENTITY@@PAU1@@Z PROC ; get_fixed_structure_keysite_entity, COMDAT

; 573  : {

  00000	55		 push	 ebp
  00001	8b ec		 mov	 ebp, esp
  00003	83 ec 50	 sub	 esp, 80			; 00000050H
  00006	53		 push	 ebx
  00007	56		 push	 esi
  00008	57		 push	 edi

; 574  : 	entity
; 575  : 		*group,
; 576  : 		*keysite;
; 577  : 
; 578  : 	ASSERT (structure);

  00009	83 7d 08 00	 cmp	 DWORD PTR _structure$[ebp], 0
  0000d	75 18		 jne	 SHORT $LN2@get_fixed_
  0000f	a1 00 00 00 00	 mov	 eax, DWORD PTR ?__LINE__Var@?0??get_fixed_structure_keysite_entity@@YGPAUENTITY@@PAU2@@Z@4JA
  00014	83 c0 05	 add	 eax, 5
  00017	50		 push	 eax
  00018	68 00 00 00 00	 push	 OFFSET ??_C@_0EN@PIOGLIPD@c?3?2users?2nhv90?2projects?2eech?2ap@
  0001d	68 00 00 00 00	 push	 OFFSET ??_C@_09GNENBKCD@structure@
  00022	e8 00 00 00 00	 call	 ?process_assert@@YGXPBD0H@Z ; process_assert
$LN2@get_fixed_:

; 579  : 
; 580  : 	group = get_local_entity_parent (structure, LIST_TYPE_MEMBER);

  00027	83 7d 08 00	 cmp	 DWORD PTR _structure$[ebp], 0
  0002b	74 0a		 je	 SHORT $LN8@get_fixed_
  0002d	8b 45 08	 mov	 eax, DWORD PTR _structure$[ebp]
  00030	8b 08		 mov	 ecx, DWORD PTR [eax]
  00032	89 4d b4	 mov	 DWORD PTR tv75[ebp], ecx
  00035	eb 21		 jmp	 SHORT $LN9@get_fixed_
$LN8@get_fixed_:
  00037	8b 15 00 00 00
	00		 mov	 edx, DWORD PTR ?__LINE__Var@?0??get_fixed_structure_keysite_entity@@YGPAUENTITY@@PAU2@@Z@4JA
  0003d	83 c2 07	 add	 edx, 7
  00040	52		 push	 edx
  00041	68 00 00 00 00	 push	 OFFSET ??_C@_0EN@PIOGLIPD@c?3?2users?2nhv90?2projects?2eech?2ap@
  00046	a1 00 00 00 00	 mov	 eax, DWORD PTR ?null_entity_pointer_message@@3PBDB ; null_entity_pointer_message
  0004b	50		 push	 eax
  0004c	e8 00 00 00 00	 call	 ?process_assert@@YGXPBD0H@Z ; process_assert
  00051	c7 45 b4 00 00
	00 00		 mov	 DWORD PTR tv75[ebp], 0
$LN9@get_fixed_:
  00058	b9 01 00 00 00	 mov	 ecx, 1
  0005d	85 c9		 test	 ecx, ecx
  0005f	74 09		 je	 SHORT $LN10@get_fixed_
  00061	c7 45 b0 19 00
	00 00		 mov	 DWORD PTR tv83[ebp], 25	; 00000019H
  00068	eb 21		 jmp	 SHORT $LN11@get_fixed_
$LN10@get_fixed_:
  0006a	8b 15 00 00 00
	00		 mov	 edx, DWORD PTR ?__LINE__Var@?0??get_fixed_structure_keysite_entity@@YGPAUENTITY@@PAU2@@Z@4JA
  00070	83 c2 07	 add	 edx, 7
  00073	52		 push	 edx
  00074	68 00 00 00 00	 push	 OFFSET ??_C@_0EN@PIOGLIPD@c?3?2users?2nhv90?2projects?2eech?2ap@
  00079	a1 00 00 00 00	 mov	 eax, DWORD PTR ?overload_invalid_list_type_message@@3PBDB ; overload_invalid_list_type_message
  0007e	50		 push	 eax
  0007f	e8 00 00 00 00	 call	 ?process_assert@@YGXPBD0H@Z ; process_assert
  00084	c7 45 b0 00 00
	00 00		 mov	 DWORD PTR tv83[ebp], 0
$LN11@get_fixed_:
  0008b	6a 19		 push	 25			; 00000019H
  0008d	8b 4d 08	 mov	 ecx, DWORD PTR _structure$[ebp]
  00090	51		 push	 ecx
  00091	69 55 b4 b4 00
	00 00		 imul	 edx, DWORD PTR tv75[ebp], 180
  00098	8b 45 b0	 mov	 eax, DWORD PTR tv83[ebp]
  0009b	8b 8c 82 00 00
	00 00		 mov	 ecx, DWORD PTR ?fn_get_local_entity_parent@@3PAY0CN@P6GPAUENTITY@@PAU1@W4LIST_TYPES@@@ZA[edx+eax*4]
  000a2	ff d1		 call	 ecx
  000a4	89 45 fc	 mov	 DWORD PTR _group$[ebp], eax

; 581  : 
; 582  : 	if (!group)

  000a7	83 7d fc 00	 cmp	 DWORD PTR _group$[ebp], 0
  000ab	75 07		 jne	 SHORT $LN3@get_fixed_

; 583  : 	{
; 584  : 		return NULL;

  000ad	33 c0		 xor	 eax, eax
  000af	e9 76 01 00 00	 jmp	 $LN1@get_fixed_
$LN3@get_fixed_:

; 585  : 	}
; 586  : 
; 587  : 	if (get_local_entity_type (group) == ENTITY_TYPE_REGEN)

  000b4	83 7d fc 00	 cmp	 DWORD PTR _group$[ebp], 0
  000b8	74 0a		 je	 SHORT $LN12@get_fixed_
  000ba	8b 45 fc	 mov	 eax, DWORD PTR _group$[ebp]
  000bd	8b 08		 mov	 ecx, DWORD PTR [eax]
  000bf	89 4d b4	 mov	 DWORD PTR tv95[ebp], ecx
  000c2	eb 1d		 jmp	 SHORT $LN13@get_fixed_
$LN12@get_fixed_:
  000c4	68 4b 02 00 00	 push	 587			; 0000024bH
  000c9	68 00 00 00 00	 push	 OFFSET ??_C@_0EN@PIOGLIPD@c?3?2users?2nhv90?2projects?2eech?2ap@
  000ce	8b 15 00 00 00
	00		 mov	 edx, DWORD PTR ?null_entity_pointer_message@@3PBDB ; null_entity_pointer_message
  000d4	52		 push	 edx
  000d5	e8 00 00 00 00	 call	 ?process_assert@@YGXPBD0H@Z ; process_assert
  000da	c7 45 b4 00 00
	00 00		 mov	 DWORD PTR tv95[ebp], 0
$LN13@get_fixed_:
  000e1	83 7d b4 16	 cmp	 DWORD PTR tv95[ebp], 22	; 00000016H
  000e5	0f 85 85 00 00
	00		 jne	 $LN4@get_fixed_

; 588  : 	{
; 589  : 		//
; 590  : 		// Parent is a REGEN
; 591  : 		//
; 592  : 		
; 593  : 		keysite = get_local_entity_parent (group, LIST_TYPE_REGEN);

  000eb	83 7d fc 00	 cmp	 DWORD PTR _group$[ebp], 0
  000ef	74 0a		 je	 SHORT $LN14@get_fixed_
  000f1	8b 45 fc	 mov	 eax, DWORD PTR _group$[ebp]
  000f4	8b 08		 mov	 ecx, DWORD PTR [eax]
  000f6	89 4d b4	 mov	 DWORD PTR tv135[ebp], ecx
  000f9	eb 21		 jmp	 SHORT $LN15@get_fixed_
$LN14@get_fixed_:
  000fb	8b 15 00 00 00
	00		 mov	 edx, DWORD PTR ?__LINE__Var@?0??get_fixed_structure_keysite_entity@@YGPAUENTITY@@PAU2@@Z@4JA
  00101	83 c2 14	 add	 edx, 20			; 00000014H
  00104	52		 push	 edx
  00105	68 00 00 00 00	 push	 OFFSET ??_C@_0EN@PIOGLIPD@c?3?2users?2nhv90?2projects?2eech?2ap@
  0010a	a1 00 00 00 00	 mov	 eax, DWORD PTR ?null_entity_pointer_message@@3PBDB ; null_entity_pointer_message
  0010f	50		 push	 eax
  00110	e8 00 00 00 00	 call	 ?process_assert@@YGXPBD0H@Z ; process_assert
  00115	c7 45 b4 00 00
	00 00		 mov	 DWORD PTR tv135[ebp], 0
$LN15@get_fixed_:
  0011c	b9 01 00 00 00	 mov	 ecx, 1
  00121	85 c9		 test	 ecx, ecx
  00123	74 09		 je	 SHORT $LN16@get_fixed_
  00125	c7 45 b0 1f 00
	00 00		 mov	 DWORD PTR tv143[ebp], 31 ; 0000001fH
  0012c	eb 21		 jmp	 SHORT $LN17@get_fixed_
$LN16@get_fixed_:
  0012e	8b 15 00 00 00
	00		 mov	 edx, DWORD PTR ?__LINE__Var@?0??get_fixed_structure_keysite_entity@@YGPAUENTITY@@PAU2@@Z@4JA
  00134	83 c2 14	 add	 edx, 20			; 00000014H
  00137	52		 push	 edx
  00138	68 00 00 00 00	 push	 OFFSET ??_C@_0EN@PIOGLIPD@c?3?2users?2nhv90?2projects?2eech?2ap@
  0013d	a1 00 00 00 00	 mov	 eax, DWORD PTR ?overload_invalid_list_type_message@@3PBDB ; overload_invalid_list_type_message
  00142	50		 push	 eax
  00143	e8 00 00 00 00	 call	 ?process_assert@@YGXPBD0H@Z ; process_assert
  00148	c7 45 b0 00 00
	00 00		 mov	 DWORD PTR tv143[ebp], 0
$LN17@get_fixed_:
  0014f	6a 1f		 push	 31			; 0000001fH
  00151	8b 4d fc	 mov	 ecx, DWORD PTR _group$[ebp]
  00154	51		 push	 ecx
  00155	69 55 b4 b4 00
	00 00		 imul	 edx, DWORD PTR tv135[ebp], 180
  0015c	8b 45 b0	 mov	 eax, DWORD PTR tv143[ebp]
  0015f	8b 8c 82 00 00
	00 00		 mov	 ecx, DWORD PTR ?fn_get_local_entity_parent@@3PAY0CN@P6GPAUENTITY@@PAU1@W4LIST_TYPES@@@ZA[edx+eax*4]
  00166	ff d1		 call	 ecx
  00168	89 45 f8	 mov	 DWORD PTR _keysite$[ebp], eax

; 594  : 	}
; 595  : 	else

  0016b	e9 80 00 00 00	 jmp	 $LN5@get_fixed_
$LN4@get_fixed_:

; 596  : 	{
; 597  : 		//
; 598  : 		// Parent is a normal GROUP
; 599  : 		//
; 600  : 		
; 601  : 		keysite = get_local_entity_parent (group, LIST_TYPE_BUILDING_GROUP);

  00170	83 7d fc 00	 cmp	 DWORD PTR _group$[ebp], 0
  00174	74 0a		 je	 SHORT $LN18@get_fixed_
  00176	8b 45 fc	 mov	 eax, DWORD PTR _group$[ebp]
  00179	8b 08		 mov	 ecx, DWORD PTR [eax]
  0017b	89 4d b4	 mov	 DWORD PTR tv155[ebp], ecx
  0017e	eb 21		 jmp	 SHORT $LN19@get_fixed_
$LN18@get_fixed_:
  00180	8b 15 00 00 00
	00		 mov	 edx, DWORD PTR ?__LINE__Var@?0??get_fixed_structure_keysite_entity@@YGPAUENTITY@@PAU2@@Z@4JA
  00186	83 c2 1c	 add	 edx, 28			; 0000001cH
  00189	52		 push	 edx
  0018a	68 00 00 00 00	 push	 OFFSET ??_C@_0EN@PIOGLIPD@c?3?2users?2nhv90?2projects?2eech?2ap@
  0018f	a1 00 00 00 00	 mov	 eax, DWORD PTR ?null_entity_pointer_message@@3PBDB ; null_entity_pointer_message
  00194	50		 push	 eax
  00195	e8 00 00 00 00	 call	 ?process_assert@@YGXPBD0H@Z ; process_assert
  0019a	c7 45 b4 00 00
	00 00		 mov	 DWORD PTR tv155[ebp], 0
$LN19@get_fixed_:
  001a1	b9 01 00 00 00	 mov	 ecx, 1
  001a6	85 c9		 test	 ecx, ecx
  001a8	74 09		 je	 SHORT $LN20@get_fixed_
  001aa	c7 45 b0 04 00
	00 00		 mov	 DWORD PTR tv163[ebp], 4
  001b1	eb 21		 jmp	 SHORT $LN21@get_fixed_
$LN20@get_fixed_:
  001b3	8b 15 00 00 00
	00		 mov	 edx, DWORD PTR ?__LINE__Var@?0??get_fixed_structure_keysite_entity@@YGPAUENTITY@@PAU2@@Z@4JA
  001b9	83 c2 1c	 add	 edx, 28			; 0000001cH
  001bc	52		 push	 edx
  001bd	68 00 00 00 00	 push	 OFFSET ??_C@_0EN@PIOGLIPD@c?3?2users?2nhv90?2projects?2eech?2ap@
  001c2	a1 00 00 00 00	 mov	 eax, DWORD PTR ?overload_invalid_list_type_message@@3PBDB ; overload_invalid_list_type_message
  001c7	50		 push	 eax
  001c8	e8 00 00 00 00	 call	 ?process_assert@@YGXPBD0H@Z ; process_assert
  001cd	c7 45 b0 00 00
	00 00		 mov	 DWORD PTR tv163[ebp], 0
$LN21@get_fixed_:
  001d4	6a 04		 push	 4
  001d6	8b 4d fc	 mov	 ecx, DWORD PTR _group$[ebp]
  001d9	51		 push	 ecx
  001da	69 55 b4 b4 00
	00 00		 imul	 edx, DWORD PTR tv155[ebp], 180
  001e1	8b 45 b0	 mov	 eax, DWORD PTR tv163[ebp]
  001e4	8b 8c 82 00 00
	00 00		 mov	 ecx, DWORD PTR ?fn_get_local_entity_parent@@3PAY0CN@P6GPAUENTITY@@PAU1@W4LIST_TYPES@@@ZA[edx+eax*4]
  001eb	ff d1		 call	 ecx
  001ed	89 45 f8	 mov	 DWORD PTR _keysite$[ebp], eax
$LN5@get_fixed_:

; 602  : 	}
; 603  : 
; 604  : 	if (get_local_entity_type (keysite) == ENTITY_TYPE_KEYSITE)

  001f0	83 7d f8 00	 cmp	 DWORD PTR _keysite$[ebp], 0
  001f4	74 0a		 je	 SHORT $LN22@get_fixed_
  001f6	8b 45 f8	 mov	 eax, DWORD PTR _keysite$[ebp]
  001f9	8b 08		 mov	 ecx, DWORD PTR [eax]
  001fb	89 4d b4	 mov	 DWORD PTR tv174[ebp], ecx
  001fe	eb 1d		 jmp	 SHORT $LN23@get_fixed_
$LN22@get_fixed_:
  00200	68 5c 02 00 00	 push	 604			; 0000025cH
  00205	68 00 00 00 00	 push	 OFFSET ??_C@_0EN@PIOGLIPD@c?3?2users?2nhv90?2projects?2eech?2ap@
  0020a	8b 15 00 00 00
	00		 mov	 edx, DWORD PTR ?null_entity_pointer_message@@3PBDB ; null_entity_pointer_message
  00210	52		 push	 edx
  00211	e8 00 00 00 00	 call	 ?process_assert@@YGXPBD0H@Z ; process_assert
  00216	c7 45 b4 00 00
	00 00		 mov	 DWORD PTR tv174[ebp], 0
$LN23@get_fixed_:
  0021d	83 7d b4 0f	 cmp	 DWORD PTR tv174[ebp], 15 ; 0000000fH
  00221	75 05		 jne	 SHORT $LN6@get_fixed_

; 605  : 	{
; 606  : 		return keysite;

  00223	8b 45 f8	 mov	 eax, DWORD PTR _keysite$[ebp]
  00226	eb 02		 jmp	 SHORT $LN1@get_fixed_
$LN6@get_fixed_:

; 607  : 	}
; 608  : 
; 609  : 	return NULL;

  00228	33 c0		 xor	 eax, eax
$LN1@get_fixed_:

; 610  : }

  0022a	5f		 pop	 edi
  0022b	5e		 pop	 esi
  0022c	5b		 pop	 ebx
  0022d	8b e5		 mov	 esp, ebp
  0022f	5d		 pop	 ebp
  00230	c2 04 00	 ret	 4
?get_fixed_structure_keysite_entity@@YGPAUENTITY@@PAU1@@Z ENDP ; get_fixed_structure_keysite_entity
_TEXT	ENDS
; Function compile flags: /Odtp /ZI
; File c:\users\nhv90\projects\eech\aphavoc\source\entity\special\keysite\keysite.c
;	COMDAT ?initialise_keysite_farp_enable@@YGXPAUENTITY@@@Z
_TEXT	SEGMENT
tv298 = -88						; size = 4
tv278 = -88						; size = 4
tv252 = -88						; size = 4
tv231 = -88						; size = 4
tv213 = -88						; size = 4
tv192 = -88						; size = 4
tv172 = -88						; size = 4
tv151 = -88						; size = 4
tv132 = -88						; size = 4
tv80 = -88						; size = 4
tv290 = -84						; size = 4
tv270 = -84						; size = 4
tv244 = -84						; size = 4
tv224 = -84						; size = 4
tv205 = -84						; size = 4
tv185 = -84						; size = 4
tv164 = -84						; size = 4
tv144 = -84						; size = 4
tv92 = -84						; size = 4
tv72 = -84						; size = 4
_keysite$ = -16						; size = 4
_sector$ = -12						; size = 4
_force_side$ = -8					; size = 4
_keysite_pos$ = -4					; size = 4
_force$ = 8						; size = 4
?initialise_keysite_farp_enable@@YGXPAUENTITY@@@Z PROC	; initialise_keysite_farp_enable, COMDAT

; 506  : {

  00000	55		 push	 ebp
  00001	8b ec		 mov	 ebp, esp
  00003	83 ec 58	 sub	 esp, 88			; 00000058H
  00006	53		 push	 ebx
  00007	56		 push	 esi
  00008	57		 push	 edi

; 507  : 	vec3d
; 508  : 		*keysite_pos;
; 509  : 
; 510  : 	entity_sides
; 511  : 		force_side;
; 512  : 
; 513  : 	entity
; 514  : 		*sector,
; 515  : 		*keysite;
; 516  : 
; 517  : 	if (get_comms_model () != COMMS_MODEL_SERVER)

  00009	83 3d 00 00 00
	00 00		 cmp	 DWORD PTR ?system_comms_model@@3W4COMMS_MODEL_TYPES@@A, 0 ; system_comms_model
  00010	74 05		 je	 SHORT $LN4@initialise

; 518  : 	{
; 519  : 		return;

  00012	e9 47 05 00 00	 jmp	 $LN1@initialise
$LN4@initialise:

; 520  : 	}
; 521  : 
; 522  : 	if (!force)

  00017	83 7d 08 00	 cmp	 DWORD PTR _force$[ebp], 0
  0001b	75 05		 jne	 SHORT $LN5@initialise

; 523  : 	{
; 524  : 		return;

  0001d	e9 3c 05 00 00	 jmp	 $LN1@initialise
$LN5@initialise:

; 525  : 	}
; 526  : 
; 527  : 	keysite = get_local_entity_first_child (force, LIST_TYPE_KEYSITE_FORCE);

  00022	83 7d 08 00	 cmp	 DWORD PTR _force$[ebp], 0
  00026	74 0a		 je	 SHORT $LN10@initialise
  00028	8b 45 08	 mov	 eax, DWORD PTR _force$[ebp]
  0002b	8b 08		 mov	 ecx, DWORD PTR [eax]
  0002d	89 4d ac	 mov	 DWORD PTR tv72[ebp], ecx
  00030	eb 21		 jmp	 SHORT $LN11@initialise
$LN10@initialise:
  00032	8b 15 00 00 00
	00		 mov	 edx, DWORD PTR ?__LINE__Var@?0??initialise_keysite_farp_enable@@YGXPAUENTITY@@@Z@4JA
  00038	83 c2 15	 add	 edx, 21			; 00000015H
  0003b	52		 push	 edx
  0003c	68 00 00 00 00	 push	 OFFSET ??_C@_0EN@PIOGLIPD@c?3?2users?2nhv90?2projects?2eech?2ap@
  00041	a1 00 00 00 00	 mov	 eax, DWORD PTR ?null_entity_pointer_message@@3PBDB ; null_entity_pointer_message
  00046	50		 push	 eax
  00047	e8 00 00 00 00	 call	 ?process_assert@@YGXPBD0H@Z ; process_assert
  0004c	c7 45 ac 00 00
	00 00		 mov	 DWORD PTR tv72[ebp], 0
$LN11@initialise:
  00053	b9 01 00 00 00	 mov	 ecx, 1
  00058	85 c9		 test	 ecx, ecx
  0005a	74 09		 je	 SHORT $LN12@initialise
  0005c	c7 45 a8 15 00
	00 00		 mov	 DWORD PTR tv80[ebp], 21	; 00000015H
  00063	eb 21		 jmp	 SHORT $LN13@initialise
$LN12@initialise:
  00065	8b 15 00 00 00
	00		 mov	 edx, DWORD PTR ?__LINE__Var@?0??initialise_keysite_farp_enable@@YGXPAUENTITY@@@Z@4JA
  0006b	83 c2 15	 add	 edx, 21			; 00000015H
  0006e	52		 push	 edx
  0006f	68 00 00 00 00	 push	 OFFSET ??_C@_0EN@PIOGLIPD@c?3?2users?2nhv90?2projects?2eech?2ap@
  00074	a1 00 00 00 00	 mov	 eax, DWORD PTR ?overload_invalid_list_type_message@@3PBDB ; overload_invalid_list_type_message
  00079	50		 push	 eax
  0007a	e8 00 00 00 00	 call	 ?process_assert@@YGXPBD0H@Z ; process_assert
  0007f	c7 45 a8 00 00
	00 00		 mov	 DWORD PTR tv80[ebp], 0
$LN13@initialise:
  00086	6a 15		 push	 21			; 00000015H
  00088	8b 4d 08	 mov	 ecx, DWORD PTR _force$[ebp]
  0008b	51		 push	 ecx
  0008c	69 55 ac b4 00
	00 00		 imul	 edx, DWORD PTR tv72[ebp], 180
  00093	8b 45 a8	 mov	 eax, DWORD PTR tv80[ebp]
  00096	8b 8c 82 00 00
	00 00		 mov	 ecx, DWORD PTR ?fn_get_local_entity_first_child@@3PAY0CN@P6GPAUENTITY@@PAU1@W4LIST_TYPES@@@ZA[edx+eax*4]
  0009d	ff d1		 call	 ecx
  0009f	89 45 f0	 mov	 DWORD PTR _keysite$[ebp], eax

; 528  : 
; 529  : 	force_side = (entity_sides) get_local_entity_int_value (force, INT_TYPE_SIDE);

  000a2	83 7d 08 00	 cmp	 DWORD PTR _force$[ebp], 0
  000a6	74 0a		 je	 SHORT $LN14@initialise
  000a8	8b 45 08	 mov	 eax, DWORD PTR _force$[ebp]
  000ab	8b 08		 mov	 ecx, DWORD PTR [eax]
  000ad	89 4d ac	 mov	 DWORD PTR tv92[ebp], ecx
  000b0	eb 21		 jmp	 SHORT $LN15@initialise
$LN14@initialise:
  000b2	8b 15 00 00 00
	00		 mov	 edx, DWORD PTR ?__LINE__Var@?0??initialise_keysite_farp_enable@@YGXPAUENTITY@@@Z@4JA
  000b8	83 c2 17	 add	 edx, 23			; 00000017H
  000bb	52		 push	 edx
  000bc	68 00 00 00 00	 push	 OFFSET ??_C@_0EN@PIOGLIPD@c?3?2users?2nhv90?2projects?2eech?2ap@
  000c1	a1 00 00 00 00	 mov	 eax, DWORD PTR ?null_entity_pointer_message@@3PBDB ; null_entity_pointer_message
  000c6	50		 push	 eax
  000c7	e8 00 00 00 00	 call	 ?process_assert@@YGXPBD0H@Z ; process_assert
  000cc	c7 45 ac 00 00
	00 00		 mov	 DWORD PTR tv92[ebp], 0
$LN15@initialise:
  000d3	b9 01 00 00 00	 mov	 ecx, 1
  000d8	85 c9		 test	 ecx, ecx
  000da	74 09		 je	 SHORT $LN16@initialise
  000dc	c7 45 a8 bb 00
	00 00		 mov	 DWORD PTR tv132[ebp], 187 ; 000000bbH
  000e3	eb 21		 jmp	 SHORT $LN17@initialise
$LN16@initialise:
  000e5	8b 15 00 00 00
	00		 mov	 edx, DWORD PTR ?__LINE__Var@?0??initialise_keysite_farp_enable@@YGXPAUENTITY@@@Z@4JA
  000eb	83 c2 17	 add	 edx, 23			; 00000017H
  000ee	52		 push	 edx
  000ef	68 00 00 00 00	 push	 OFFSET ??_C@_0EN@PIOGLIPD@c?3?2users?2nhv90?2projects?2eech?2ap@
  000f4	a1 00 00 00 00	 mov	 eax, DWORD PTR ?overload_invalid_int_type_message@@3PBDB ; overload_invalid_int_type_message
  000f9	50		 push	 eax
  000fa	e8 00 00 00 00	 call	 ?process_assert@@YGXPBD0H@Z ; process_assert
  000ff	c7 45 a8 00 00
	00 00		 mov	 DWORD PTR tv132[ebp], 0
$LN17@initialise:
  00106	68 bb 00 00 00	 push	 187			; 000000bbH
  0010b	8b 4d 08	 mov	 ecx, DWORD PTR _force$[ebp]
  0010e	51		 push	 ecx
  0010f	69 55 ac 5c 04
	00 00		 imul	 edx, DWORD PTR tv92[ebp], 1116
  00116	8b 45 a8	 mov	 eax, DWORD PTR tv132[ebp]
  00119	8b 8c 82 00 00
	00 00		 mov	 ecx, DWORD PTR ?fn_get_local_entity_int_value@@3PAY0BBH@P6GHPAUENTITY@@W4INT_TYPES@@@ZA[edx+eax*4]
  00120	ff d1		 call	 ecx
  00122	89 45 f8	 mov	 DWORD PTR _force_side$[ebp], eax
$LN2@initialise:

; 530  : 
; 531  : 	while (keysite)

  00125	83 7d f0 00	 cmp	 DWORD PTR _keysite$[ebp], 0
  00129	0f 84 2f 04 00
	00		 je	 $LN1@initialise

; 532  : 	{
; 533  : 		if (get_local_entity_int_value (keysite, INT_TYPE_ENTITY_SUB_TYPE) == ENTITY_SUB_TYPE_KEYSITE_FARP)

  0012f	83 7d f0 00	 cmp	 DWORD PTR _keysite$[ebp], 0
  00133	74 0a		 je	 SHORT $LN18@initialise
  00135	8b 45 f0	 mov	 eax, DWORD PTR _keysite$[ebp]
  00138	8b 08		 mov	 ecx, DWORD PTR [eax]
  0013a	89 4d ac	 mov	 DWORD PTR tv144[ebp], ecx
  0013d	eb 1d		 jmp	 SHORT $LN19@initialise
$LN18@initialise:
  0013f	68 15 02 00 00	 push	 533			; 00000215H
  00144	68 00 00 00 00	 push	 OFFSET ??_C@_0EN@PIOGLIPD@c?3?2users?2nhv90?2projects?2eech?2ap@
  00149	8b 15 00 00 00
	00		 mov	 edx, DWORD PTR ?null_entity_pointer_message@@3PBDB ; null_entity_pointer_message
  0014f	52		 push	 edx
  00150	e8 00 00 00 00	 call	 ?process_assert@@YGXPBD0H@Z ; process_assert
  00155	c7 45 ac 00 00
	00 00		 mov	 DWORD PTR tv144[ebp], 0
$LN19@initialise:
  0015c	b8 01 00 00 00	 mov	 eax, 1
  00161	85 c0		 test	 eax, eax
  00163	74 09		 je	 SHORT $LN20@initialise
  00165	c7 45 a8 34 00
	00 00		 mov	 DWORD PTR tv151[ebp], 52 ; 00000034H
  0016c	eb 1d		 jmp	 SHORT $LN21@initialise
$LN20@initialise:
  0016e	68 15 02 00 00	 push	 533			; 00000215H
  00173	68 00 00 00 00	 push	 OFFSET ??_C@_0EN@PIOGLIPD@c?3?2users?2nhv90?2projects?2eech?2ap@
  00178	8b 0d 00 00 00
	00		 mov	 ecx, DWORD PTR ?overload_invalid_int_type_message@@3PBDB ; overload_invalid_int_type_message
  0017e	51		 push	 ecx
  0017f	e8 00 00 00 00	 call	 ?process_assert@@YGXPBD0H@Z ; process_assert
  00184	c7 45 a8 00 00
	00 00		 mov	 DWORD PTR tv151[ebp], 0
$LN21@initialise:
  0018b	6a 34		 push	 52			; 00000034H
  0018d	8b 55 f0	 mov	 edx, DWORD PTR _keysite$[ebp]
  00190	52		 push	 edx
  00191	69 45 ac 5c 04
	00 00		 imul	 eax, DWORD PTR tv144[ebp], 1116
  00198	8b 4d a8	 mov	 ecx, DWORD PTR tv151[ebp]
  0019b	8b 94 88 00 00
	00 00		 mov	 edx, DWORD PTR ?fn_get_local_entity_int_value@@3PAY0BBH@P6GHPAUENTITY@@W4INT_TYPES@@@ZA[eax+ecx*4]
  001a2	ff d2		 call	 edx
  001a4	83 f8 03	 cmp	 eax, 3
  001a7	0f 85 2c 03 00
	00		 jne	 $LN6@initialise

; 534  : 		{
; 535  : 			keysite_pos = get_local_entity_vec3d_ptr (keysite, VEC3D_TYPE_POSITION);

  001ad	83 7d f0 00	 cmp	 DWORD PTR _keysite$[ebp], 0
  001b1	74 0a		 je	 SHORT $LN22@initialise
  001b3	8b 45 f0	 mov	 eax, DWORD PTR _keysite$[ebp]
  001b6	8b 08		 mov	 ecx, DWORD PTR [eax]
  001b8	89 4d ac	 mov	 DWORD PTR tv164[ebp], ecx
  001bb	eb 21		 jmp	 SHORT $LN23@initialise
$LN22@initialise:
  001bd	8b 15 00 00 00
	00		 mov	 edx, DWORD PTR ?__LINE__Var@?0??initialise_keysite_farp_enable@@YGXPAUENTITY@@@Z@4JA
  001c3	83 c2 1d	 add	 edx, 29			; 0000001dH
  001c6	52		 push	 edx
  001c7	68 00 00 00 00	 push	 OFFSET ??_C@_0EN@PIOGLIPD@c?3?2users?2nhv90?2projects?2eech?2ap@
  001cc	a1 00 00 00 00	 mov	 eax, DWORD PTR ?null_entity_pointer_message@@3PBDB ; null_entity_pointer_message
  001d1	50		 push	 eax
  001d2	e8 00 00 00 00	 call	 ?process_assert@@YGXPBD0H@Z ; process_assert
  001d7	c7 45 ac 00 00
	00 00		 mov	 DWORD PTR tv164[ebp], 0
$LN23@initialise:
  001de	b9 01 00 00 00	 mov	 ecx, 1
  001e3	85 c9		 test	 ecx, ecx
  001e5	74 09		 je	 SHORT $LN24@initialise
  001e7	c7 45 a8 08 00
	00 00		 mov	 DWORD PTR tv172[ebp], 8
  001ee	eb 21		 jmp	 SHORT $LN25@initialise
$LN24@initialise:
  001f0	8b 15 00 00 00
	00		 mov	 edx, DWORD PTR ?__LINE__Var@?0??initialise_keysite_farp_enable@@YGXPAUENTITY@@@Z@4JA
  001f6	83 c2 1d	 add	 edx, 29			; 0000001dH
  001f9	52		 push	 edx
  001fa	68 00 00 00 00	 push	 OFFSET ??_C@_0EN@PIOGLIPD@c?3?2users?2nhv90?2projects?2eech?2ap@
  001ff	a1 00 00 00 00	 mov	 eax, DWORD PTR ?overload_invalid_vec3d_type_message@@3PBDB ; overload_invalid_vec3d_type_message
  00204	50		 push	 eax
  00205	e8 00 00 00 00	 call	 ?process_assert@@YGXPBD0H@Z ; process_assert
  0020a	c7 45 a8 00 00
	00 00		 mov	 DWORD PTR tv172[ebp], 0
$LN25@initialise:
  00211	6a 08		 push	 8
  00213	8b 4d f0	 mov	 ecx, DWORD PTR _keysite$[ebp]
  00216	51		 push	 ecx
  00217	6b 55 ac 60	 imul	 edx, DWORD PTR tv164[ebp], 96
  0021b	8b 45 a8	 mov	 eax, DWORD PTR tv172[ebp]
  0021e	8b 8c 82 00 00
	00 00		 mov	 ecx, DWORD PTR ?fn_get_local_entity_vec3d_ptr@@3PAY0BI@P6GPAUVEC3D@@PAUENTITY@@W4VEC3D_TYPES@@@ZA[edx+eax*4]
  00225	ff d1		 call	 ecx
  00227	89 45 fc	 mov	 DWORD PTR _keysite_pos$[ebp], eax

; 536  : 
; 537  : 			sector = get_local_sector_entity (keysite_pos);

  0022a	8b 45 fc	 mov	 eax, DWORD PTR _keysite_pos$[ebp]
  0022d	50		 push	 eax
  0022e	e8 00 00 00 00	 call	 ?get_local_sector_entity@@YGPAUENTITY@@PAUVEC3D@@@Z ; get_local_sector_entity
  00233	89 45 f4	 mov	 DWORD PTR _sector$[ebp], eax

; 538  : 		
; 539  : 			if (get_local_entity_int_value (sector, INT_TYPE_SIDE) == force_side)

  00236	83 7d f4 00	 cmp	 DWORD PTR _sector$[ebp], 0
  0023a	74 0a		 je	 SHORT $LN26@initialise
  0023c	8b 45 f4	 mov	 eax, DWORD PTR _sector$[ebp]
  0023f	8b 08		 mov	 ecx, DWORD PTR [eax]
  00241	89 4d ac	 mov	 DWORD PTR tv185[ebp], ecx
  00244	eb 1d		 jmp	 SHORT $LN27@initialise
$LN26@initialise:
  00246	68 1b 02 00 00	 push	 539			; 0000021bH
  0024b	68 00 00 00 00	 push	 OFFSET ??_C@_0EN@PIOGLIPD@c?3?2users?2nhv90?2projects?2eech?2ap@
  00250	8b 15 00 00 00
	00		 mov	 edx, DWORD PTR ?null_entity_pointer_message@@3PBDB ; null_entity_pointer_message
  00256	52		 push	 edx
  00257	e8 00 00 00 00	 call	 ?process_assert@@YGXPBD0H@Z ; process_assert
  0025c	c7 45 ac 00 00
	00 00		 mov	 DWORD PTR tv185[ebp], 0
$LN27@initialise:
  00263	b8 01 00 00 00	 mov	 eax, 1
  00268	85 c0		 test	 eax, eax
  0026a	74 09		 je	 SHORT $LN28@initialise
  0026c	c7 45 a8 bb 00
	00 00		 mov	 DWORD PTR tv192[ebp], 187 ; 000000bbH
  00273	eb 1d		 jmp	 SHORT $LN29@initialise
$LN28@initialise:
  00275	68 1b 02 00 00	 push	 539			; 0000021bH
  0027a	68 00 00 00 00	 push	 OFFSET ??_C@_0EN@PIOGLIPD@c?3?2users?2nhv90?2projects?2eech?2ap@
  0027f	8b 0d 00 00 00
	00		 mov	 ecx, DWORD PTR ?overload_invalid_int_type_message@@3PBDB ; overload_invalid_int_type_message
  00285	51		 push	 ecx
  00286	e8 00 00 00 00	 call	 ?process_assert@@YGXPBD0H@Z ; process_assert
  0028b	c7 45 a8 00 00
	00 00		 mov	 DWORD PTR tv192[ebp], 0
$LN29@initialise:
  00292	68 bb 00 00 00	 push	 187			; 000000bbH
  00297	8b 55 f4	 mov	 edx, DWORD PTR _sector$[ebp]
  0029a	52		 push	 edx
  0029b	69 45 ac 5c 04
	00 00		 imul	 eax, DWORD PTR tv185[ebp], 1116
  002a2	8b 4d a8	 mov	 ecx, DWORD PTR tv192[ebp]
  002a5	8b 94 88 00 00
	00 00		 mov	 edx, DWORD PTR ?fn_get_local_entity_int_value@@3PAY0BBH@P6GHPAUENTITY@@W4INT_TYPES@@@ZA[eax+ecx*4]
  002ac	ff d2		 call	 edx
  002ae	3b 45 f8	 cmp	 eax, DWORD PTR _force_side$[ebp]
  002b1	0f 85 22 02 00
	00		 jne	 $LN6@initialise

; 540  : 			{
; 541  : 				set_local_entity_int_value (keysite, INT_TYPE_SIDE, force_side);

  002b7	83 7d f0 00	 cmp	 DWORD PTR _keysite$[ebp], 0
  002bb	74 0a		 je	 SHORT $LN30@initialise
  002bd	8b 45 f0	 mov	 eax, DWORD PTR _keysite$[ebp]
  002c0	8b 08		 mov	 ecx, DWORD PTR [eax]
  002c2	89 4d ac	 mov	 DWORD PTR tv205[ebp], ecx
  002c5	eb 21		 jmp	 SHORT $LN31@initialise
$LN30@initialise:
  002c7	8b 15 00 00 00
	00		 mov	 edx, DWORD PTR ?__LINE__Var@?0??initialise_keysite_farp_enable@@YGXPAUENTITY@@@Z@4JA
  002cd	83 c2 23	 add	 edx, 35			; 00000023H
  002d0	52		 push	 edx
  002d1	68 00 00 00 00	 push	 OFFSET ??_C@_0EN@PIOGLIPD@c?3?2users?2nhv90?2projects?2eech?2ap@
  002d6	a1 00 00 00 00	 mov	 eax, DWORD PTR ?null_entity_pointer_message@@3PBDB ; null_entity_pointer_message
  002db	50		 push	 eax
  002dc	e8 00 00 00 00	 call	 ?process_assert@@YGXPBD0H@Z ; process_assert
  002e1	c7 45 ac 00 00
	00 00		 mov	 DWORD PTR tv205[ebp], 0
$LN31@initialise:
  002e8	b9 01 00 00 00	 mov	 ecx, 1
  002ed	85 c9		 test	 ecx, ecx
  002ef	74 09		 je	 SHORT $LN32@initialise
  002f1	c7 45 a8 bb 00
	00 00		 mov	 DWORD PTR tv213[ebp], 187 ; 000000bbH
  002f8	eb 21		 jmp	 SHORT $LN33@initialise
$LN32@initialise:
  002fa	8b 15 00 00 00
	00		 mov	 edx, DWORD PTR ?__LINE__Var@?0??initialise_keysite_farp_enable@@YGXPAUENTITY@@@Z@4JA
  00300	83 c2 23	 add	 edx, 35			; 00000023H
  00303	52		 push	 edx
  00304	68 00 00 00 00	 push	 OFFSET ??_C@_0EN@PIOGLIPD@c?3?2users?2nhv90?2projects?2eech?2ap@
  00309	a1 00 00 00 00	 mov	 eax, DWORD PTR ?overload_invalid_int_type_message@@3PBDB ; overload_invalid_int_type_message
  0030e	50		 push	 eax
  0030f	e8 00 00 00 00	 call	 ?process_assert@@YGXPBD0H@Z ; process_assert
  00314	c7 45 a8 00 00
	00 00		 mov	 DWORD PTR tv213[ebp], 0
$LN33@initialise:
  0031b	8b 4d f8	 mov	 ecx, DWORD PTR _force_side$[ebp]
  0031e	51		 push	 ecx
  0031f	68 bb 00 00 00	 push	 187			; 000000bbH
  00324	8b 55 f0	 mov	 edx, DWORD PTR _keysite$[ebp]
  00327	52		 push	 edx
  00328	69 45 ac 5c 04
	00 00		 imul	 eax, DWORD PTR tv205[ebp], 1116
  0032f	8b 4d a8	 mov	 ecx, DWORD PTR tv213[ebp]
  00332	8b 94 88 00 00
	00 00		 mov	 edx, DWORD PTR ?fn_set_local_entity_int_value@@3PAY0BBH@P6GXPAUENTITY@@W4INT_TYPES@@H@ZA[eax+ecx*4]
  00339	ff d2		 call	 edx

; 542  : 
; 543  : 				if (!get_local_entity_int_value (keysite, INT_TYPE_IN_USE))

  0033b	83 7d f0 00	 cmp	 DWORD PTR _keysite$[ebp], 0
  0033f	74 0a		 je	 SHORT $LN34@initialise
  00341	8b 45 f0	 mov	 eax, DWORD PTR _keysite$[ebp]
  00344	8b 08		 mov	 ecx, DWORD PTR [eax]
  00346	89 4d ac	 mov	 DWORD PTR tv224[ebp], ecx
  00349	eb 1d		 jmp	 SHORT $LN35@initialise
$LN34@initialise:
  0034b	68 1f 02 00 00	 push	 543			; 0000021fH
  00350	68 00 00 00 00	 push	 OFFSET ??_C@_0EN@PIOGLIPD@c?3?2users?2nhv90?2projects?2eech?2ap@
  00355	8b 15 00 00 00
	00		 mov	 edx, DWORD PTR ?null_entity_pointer_message@@3PBDB ; null_entity_pointer_message
  0035b	52		 push	 edx
  0035c	e8 00 00 00 00	 call	 ?process_assert@@YGXPBD0H@Z ; process_assert
  00361	c7 45 ac 00 00
	00 00		 mov	 DWORD PTR tv224[ebp], 0
$LN35@initialise:
  00368	b8 01 00 00 00	 mov	 eax, 1
  0036d	85 c0		 test	 eax, eax
  0036f	74 09		 je	 SHORT $LN36@initialise
  00371	c7 45 a8 6d 00
	00 00		 mov	 DWORD PTR tv231[ebp], 109 ; 0000006dH
  00378	eb 1d		 jmp	 SHORT $LN37@initialise
$LN36@initialise:
  0037a	68 1f 02 00 00	 push	 543			; 0000021fH
  0037f	68 00 00 00 00	 push	 OFFSET ??_C@_0EN@PIOGLIPD@c?3?2users?2nhv90?2projects?2eech?2ap@
  00384	8b 0d 00 00 00
	00		 mov	 ecx, DWORD PTR ?overload_invalid_int_type_message@@3PBDB ; overload_invalid_int_type_message
  0038a	51		 push	 ecx
  0038b	e8 00 00 00 00	 call	 ?process_assert@@YGXPBD0H@Z ; process_assert
  00390	c7 45 a8 00 00
	00 00		 mov	 DWORD PTR tv231[ebp], 0
$LN37@initialise:
  00397	6a 6d		 push	 109			; 0000006dH
  00399	8b 55 f0	 mov	 edx, DWORD PTR _keysite$[ebp]
  0039c	52		 push	 edx
  0039d	69 45 ac 5c 04
	00 00		 imul	 eax, DWORD PTR tv224[ebp], 1116
  003a4	8b 4d a8	 mov	 ecx, DWORD PTR tv231[ebp]
  003a7	8b 94 88 00 00
	00 00		 mov	 edx, DWORD PTR ?fn_get_local_entity_int_value@@3PAY0BBH@P6GHPAUENTITY@@W4INT_TYPES@@@ZA[eax+ecx*4]
  003ae	ff d2		 call	 edx
  003b0	85 c0		 test	 eax, eax
  003b2	0f 85 a2 00 00
	00		 jne	 $LN8@initialise

; 544  : 				{
; 545  : 					set_local_entity_int_value (keysite, INT_TYPE_IN_USE, TRUE);

  003b8	83 7d f0 00	 cmp	 DWORD PTR _keysite$[ebp], 0
  003bc	74 0a		 je	 SHORT $LN38@initialise
  003be	8b 45 f0	 mov	 eax, DWORD PTR _keysite$[ebp]
  003c1	8b 08		 mov	 ecx, DWORD PTR [eax]
  003c3	89 4d ac	 mov	 DWORD PTR tv244[ebp], ecx
  003c6	eb 21		 jmp	 SHORT $LN39@initialise
$LN38@initialise:
  003c8	8b 15 00 00 00
	00		 mov	 edx, DWORD PTR ?__LINE__Var@?0??initialise_keysite_farp_enable@@YGXPAUENTITY@@@Z@4JA
  003ce	83 c2 27	 add	 edx, 39			; 00000027H
  003d1	52		 push	 edx
  003d2	68 00 00 00 00	 push	 OFFSET ??_C@_0EN@PIOGLIPD@c?3?2users?2nhv90?2projects?2eech?2ap@
  003d7	a1 00 00 00 00	 mov	 eax, DWORD PTR ?null_entity_pointer_message@@3PBDB ; null_entity_pointer_message
  003dc	50		 push	 eax
  003dd	e8 00 00 00 00	 call	 ?process_assert@@YGXPBD0H@Z ; process_assert
  003e2	c7 45 ac 00 00
	00 00		 mov	 DWORD PTR tv244[ebp], 0
$LN39@initialise:
  003e9	b9 01 00 00 00	 mov	 ecx, 1
  003ee	85 c9		 test	 ecx, ecx
  003f0	74 09		 je	 SHORT $LN40@initialise
  003f2	c7 45 a8 6d 00
	00 00		 mov	 DWORD PTR tv252[ebp], 109 ; 0000006dH
  003f9	eb 21		 jmp	 SHORT $LN41@initialise
$LN40@initialise:
  003fb	8b 15 00 00 00
	00		 mov	 edx, DWORD PTR ?__LINE__Var@?0??initialise_keysite_farp_enable@@YGXPAUENTITY@@@Z@4JA
  00401	83 c2 27	 add	 edx, 39			; 00000027H
  00404	52		 push	 edx
  00405	68 00 00 00 00	 push	 OFFSET ??_C@_0EN@PIOGLIPD@c?3?2users?2nhv90?2projects?2eech?2ap@
  0040a	a1 00 00 00 00	 mov	 eax, DWORD PTR ?overload_invalid_int_type_message@@3PBDB ; overload_invalid_int_type_message
  0040f	50		 push	 eax
  00410	e8 00 00 00 00	 call	 ?process_assert@@YGXPBD0H@Z ; process_assert
  00415	c7 45 a8 00 00
	00 00		 mov	 DWORD PTR tv252[ebp], 0
$LN41@initialise:
  0041c	6a 01		 push	 1
  0041e	6a 6d		 push	 109			; 0000006dH
  00420	8b 4d f0	 mov	 ecx, DWORD PTR _keysite$[ebp]
  00423	51		 push	 ecx
  00424	69 55 ac 5c 04
	00 00		 imul	 edx, DWORD PTR tv244[ebp], 1116
  0042b	8b 45 a8	 mov	 eax, DWORD PTR tv252[ebp]
  0042e	8b 8c 82 00 00
	00 00		 mov	 ecx, DWORD PTR ?fn_set_local_entity_int_value@@3PAY0BBH@P6GXPAUENTITY@@W4INT_TYPES@@H@ZA[edx+eax*4]
  00435	ff d1		 call	 ecx

; 546  : 
; 547  : 					update_imap_sector_side (keysite, TRUE);

  00437	6a 01		 push	 1
  00439	8b 45 f0	 mov	 eax, DWORD PTR _keysite$[ebp]
  0043c	50		 push	 eax
  0043d	e8 00 00 00 00	 call	 ?update_imap_sector_side@@YGXPAUENTITY@@H@Z ; update_imap_sector_side

; 548  : 
; 549  : 					update_imap_importance_level (keysite, TRUE);

  00442	6a 01		 push	 1
  00444	8b 45 f0	 mov	 eax, DWORD PTR _keysite$[ebp]
  00447	50		 push	 eax
  00448	e8 00 00 00 00	 call	 ?update_imap_importance_level@@YGXPAUENTITY@@H@Z ; update_imap_importance_level

; 550  : 
; 551  : 					update_keysite_distance_to_friendly_base (keysite, force_side);

  0044d	8b 45 f8	 mov	 eax, DWORD PTR _force_side$[ebp]
  00450	50		 push	 eax
  00451	8b 4d f0	 mov	 ecx, DWORD PTR _keysite$[ebp]
  00454	51		 push	 ecx
  00455	e8 00 00 00 00	 call	 ?update_keysite_distance_to_friendly_base@@YGXPAUENTITY@@W4ENTITY_SIDES@@@Z ; update_keysite_distance_to_friendly_base
$LN8@initialise:

; 552  : 				}
; 553  : 
; 554  : 				set_local_entity_int_value (keysite, INT_TYPE_KEYSITE_USABLE_STATE, KEYSITE_STATE_USABLE);

  0045a	83 7d f0 00	 cmp	 DWORD PTR _keysite$[ebp], 0
  0045e	74 0a		 je	 SHORT $LN42@initialise
  00460	8b 45 f0	 mov	 eax, DWORD PTR _keysite$[ebp]
  00463	8b 08		 mov	 ecx, DWORD PTR [eax]
  00465	89 4d ac	 mov	 DWORD PTR tv270[ebp], ecx
  00468	eb 21		 jmp	 SHORT $LN43@initialise
$LN42@initialise:
  0046a	8b 15 00 00 00
	00		 mov	 edx, DWORD PTR ?__LINE__Var@?0??initialise_keysite_farp_enable@@YGXPAUENTITY@@@Z@4JA
  00470	83 c2 30	 add	 edx, 48			; 00000030H
  00473	52		 push	 edx
  00474	68 00 00 00 00	 push	 OFFSET ??_C@_0EN@PIOGLIPD@c?3?2users?2nhv90?2projects?2eech?2ap@
  00479	a1 00 00 00 00	 mov	 eax, DWORD PTR ?null_entity_pointer_message@@3PBDB ; null_entity_pointer_message
  0047e	50		 push	 eax
  0047f	e8 00 00 00 00	 call	 ?process_assert@@YGXPBD0H@Z ; process_assert
  00484	c7 45 ac 00 00
	00 00		 mov	 DWORD PTR tv270[ebp], 0
$LN43@initialise:
  0048b	b9 01 00 00 00	 mov	 ecx, 1
  00490	85 c9		 test	 ecx, ecx
  00492	74 09		 je	 SHORT $LN44@initialise
  00494	c7 45 a8 70 00
	00 00		 mov	 DWORD PTR tv278[ebp], 112 ; 00000070H
  0049b	eb 21		 jmp	 SHORT $LN45@initialise
$LN44@initialise:
  0049d	8b 15 00 00 00
	00		 mov	 edx, DWORD PTR ?__LINE__Var@?0??initialise_keysite_farp_enable@@YGXPAUENTITY@@@Z@4JA
  004a3	83 c2 30	 add	 edx, 48			; 00000030H
  004a6	52		 push	 edx
  004a7	68 00 00 00 00	 push	 OFFSET ??_C@_0EN@PIOGLIPD@c?3?2users?2nhv90?2projects?2eech?2ap@
  004ac	a1 00 00 00 00	 mov	 eax, DWORD PTR ?overload_invalid_int_type_message@@3PBDB ; overload_invalid_int_type_message
  004b1	50		 push	 eax
  004b2	e8 00 00 00 00	 call	 ?process_assert@@YGXPBD0H@Z ; process_assert
  004b7	c7 45 a8 00 00
	00 00		 mov	 DWORD PTR tv278[ebp], 0
$LN45@initialise:
  004be	6a 00		 push	 0
  004c0	6a 70		 push	 112			; 00000070H
  004c2	8b 4d f0	 mov	 ecx, DWORD PTR _keysite$[ebp]
  004c5	51		 push	 ecx
  004c6	69 55 ac 5c 04
	00 00		 imul	 edx, DWORD PTR tv270[ebp], 1116
  004cd	8b 45 a8	 mov	 eax, DWORD PTR tv278[ebp]
  004d0	8b 8c 82 00 00
	00 00		 mov	 ecx, DWORD PTR ?fn_set_local_entity_int_value@@3PAY0BBH@P6GXPAUENTITY@@W4INT_TYPES@@H@ZA[edx+eax*4]
  004d7	ff d1		 call	 ecx
$LN6@initialise:

; 555  : 
; 556  : 				#if DEBUG_MODULE
; 557  : 	
; 558  : 				debug_log ("KEYSITE: building FARP side %s, at %d, %d", entity_side_names [force_side], loop_x, loop_z);
; 559  : 
; 560  : 				#endif
; 561  : 			}
; 562  : 		}
; 563  : 
; 564  : 		keysite = get_local_entity_child_succ (keysite, LIST_TYPE_KEYSITE_FORCE);

  004d9	83 7d f0 00	 cmp	 DWORD PTR _keysite$[ebp], 0
  004dd	74 0a		 je	 SHORT $LN46@initialise
  004df	8b 45 f0	 mov	 eax, DWORD PTR _keysite$[ebp]
  004e2	8b 08		 mov	 ecx, DWORD PTR [eax]
  004e4	89 4d ac	 mov	 DWORD PTR tv290[ebp], ecx
  004e7	eb 21		 jmp	 SHORT $LN47@initialise
$LN46@initialise:
  004e9	8b 15 00 00 00
	00		 mov	 edx, DWORD PTR ?__LINE__Var@?0??initialise_keysite_farp_enable@@YGXPAUENTITY@@@Z@4JA
  004ef	83 c2 3a	 add	 edx, 58			; 0000003aH
  004f2	52		 push	 edx
  004f3	68 00 00 00 00	 push	 OFFSET ??_C@_0EN@PIOGLIPD@c?3?2users?2nhv90?2projects?2eech?2ap@
  004f8	a1 00 00 00 00	 mov	 eax, DWORD PTR ?null_entity_pointer_message@@3PBDB ; null_entity_pointer_message
  004fd	50		 push	 eax
  004fe	e8 00 00 00 00	 call	 ?process_assert@@YGXPBD0H@Z ; process_assert
  00503	c7 45 ac 00 00
	00 00		 mov	 DWORD PTR tv290[ebp], 0
$LN47@initialise:
  0050a	b9 01 00 00 00	 mov	 ecx, 1
  0050f	85 c9		 test	 ecx, ecx
  00511	74 09		 je	 SHORT $LN48@initialise
  00513	c7 45 a8 15 00
	00 00		 mov	 DWORD PTR tv298[ebp], 21 ; 00000015H
  0051a	eb 21		 jmp	 SHORT $LN49@initialise
$LN48@initialise:
  0051c	8b 15 00 00 00
	00		 mov	 edx, DWORD PTR ?__LINE__Var@?0??initialise_keysite_farp_enable@@YGXPAUENTITY@@@Z@4JA
  00522	83 c2 3a	 add	 edx, 58			; 0000003aH
  00525	52		 push	 edx
  00526	68 00 00 00 00	 push	 OFFSET ??_C@_0EN@PIOGLIPD@c?3?2users?2nhv90?2projects?2eech?2ap@
  0052b	a1 00 00 00 00	 mov	 eax, DWORD PTR ?overload_invalid_list_type_message@@3PBDB ; overload_invalid_list_type_message
  00530	50		 push	 eax
  00531	e8 00 00 00 00	 call	 ?process_assert@@YGXPBD0H@Z ; process_assert
  00536	c7 45 a8 00 00
	00 00		 mov	 DWORD PTR tv298[ebp], 0
$LN49@initialise:
  0053d	6a 15		 push	 21			; 00000015H
  0053f	8b 4d f0	 mov	 ecx, DWORD PTR _keysite$[ebp]
  00542	51		 push	 ecx
  00543	69 55 ac b4 00
	00 00		 imul	 edx, DWORD PTR tv290[ebp], 180
  0054a	8b 45 a8	 mov	 eax, DWORD PTR tv298[ebp]
  0054d	8b 8c 82 00 00
	00 00		 mov	 ecx, DWORD PTR ?fn_get_local_entity_child_succ@@3PAY0CN@P6GPAUENTITY@@PAU1@W4LIST_TYPES@@@ZA[edx+eax*4]
  00554	ff d1		 call	 ecx
  00556	89 45 f0	 mov	 DWORD PTR _keysite$[ebp], eax

; 565  : 	}

  00559	e9 c7 fb ff ff	 jmp	 $LN2@initialise
$LN1@initialise:

; 566  : }

  0055e	5f		 pop	 edi
  0055f	5e		 pop	 esi
  00560	5b		 pop	 ebx
  00561	8b e5		 mov	 esp, ebp
  00563	5d		 pop	 ebp
  00564	c2 04 00	 ret	 4
?initialise_keysite_farp_enable@@YGXPAUENTITY@@@Z ENDP	; initialise_keysite_farp_enable
_TEXT	ENDS
; Function compile flags: /Odtp /ZI
; File c:\users\nhv90\projects\eech\aphavoc\source\entity\special\keysite\keysite.c
;	COMDAT ?update_keysite_cargo@@YGXPAUENTITY@@MHM@Z
_TEXT	SEGMENT
tv236 = -108						; size = 4
tv201 = -108						; size = 4
tv161 = -108						; size = 4
tv137 = -108						; size = 4
tv260 = -104						; size = 4
tv228 = -104						; size = 4
tv193 = -104						; size = 4
tv173 = -104						; size = 4
tv153 = -104						; size = 4
tv130 = -104						; size = 4
_raw$ = -36						; size = 4
_position$ = -32					; size = 12
_bounding_box$ = -20					; size = 4
_destroy_cargo$ = -16					; size = 4
_cargo$ = -12						; size = 4
_force$ = -8						; size = 4
_temp_cargo_level$ = -4					; size = 4
_en$ = 8						; size = 4
_cargo_level$ = 12					; size = 4
_sub_type$ = 16						; size = 4
_cargo_size$ = 20					; size = 4
?update_keysite_cargo@@YGXPAUENTITY@@MHM@Z PROC		; update_keysite_cargo, COMDAT

; 336  : {

  00000	55		 push	 ebp
  00001	8b ec		 mov	 ebp, esp
  00003	83 ec 6c	 sub	 esp, 108		; 0000006cH
  00006	53		 push	 ebx
  00007	56		 push	 esi
  00008	57		 push	 edi

; 337  : 
; 338  : 	float
; 339  : 		temp_cargo_level;
; 340  : 
; 341  : 	entity
; 342  : 		*force,
; 343  : 		*cargo,
; 344  : 		*destroy_cargo;
; 345  : 
; 346  : 	struct OBJECT_3D_BOUNDS
; 347  : 		*bounding_box;
; 348  : 
; 349  : 	vec3d
; 350  : 		position;
; 351  : 
; 352  : 	keysite
; 353  : 		*raw;
; 354  : 
; 355  : 	//
; 356  : 	// Get cargo position
; 357  : 	//
; 358  : 
; 359  : 	if (get_game_status () == GAME_STATUS_INITIALISING)

  00009	83 3d 00 00 00
	00 02		 cmp	 DWORD PTR ?game_status@@3W4GAME_STATUS_TYPES@@A, 2 ; game_status
  00010	75 05		 jne	 SHORT $LN8@update_key

; 360  : 	{
; 361  : 
; 362  : 		return;

  00012	e9 c4 04 00 00	 jmp	 $LN1@update_key
$LN8@update_key:

; 363  : 	}
; 364  : 
; 365  : 	raw = (keysite *) get_local_entity_data (en);

  00017	8b 45 08	 mov	 eax, DWORD PTR _en$[ebp]
  0001a	8b 48 04	 mov	 ecx, DWORD PTR [eax+4]
  0001d	89 4d dc	 mov	 DWORD PTR _raw$[ebp], ecx

; 366  : 
; 367  : 	if ((!raw->alive) || (!raw->in_use))

  00020	8b 45 dc	 mov	 eax, DWORD PTR _raw$[ebp]
  00023	8b 88 a0 01 00
	00		 mov	 ecx, DWORD PTR [eax+416]
  00029	c1 e9 18	 shr	 ecx, 24			; 00000018H
  0002c	83 e1 01	 and	 ecx, 1
  0002f	74 11		 je	 SHORT $LN10@update_key
  00031	8b 45 dc	 mov	 eax, DWORD PTR _raw$[ebp]
  00034	8b 88 a0 01 00
	00		 mov	 ecx, DWORD PTR [eax+416]
  0003a	c1 e9 19	 shr	 ecx, 25			; 00000019H
  0003d	83 e1 01	 and	 ecx, 1
  00040	75 05		 jne	 SHORT $LN9@update_key
$LN10@update_key:

; 368  : 	{
; 369  : 
; 370  : 		return;

  00042	e9 94 04 00 00	 jmp	 $LN1@update_key
$LN9@update_key:

; 371  : 	}
; 372  : 
; 373  : 	memcpy (&position, get_keysite_supply_position (en), sizeof (vec3d));

  00047	6a 0c		 push	 12			; 0000000cH
  00049	8b 45 08	 mov	 eax, DWORD PTR _en$[ebp]
  0004c	50		 push	 eax
  0004d	e8 00 00 00 00	 call	 ?get_keysite_supply_position@@YGPAUVEC3D@@PAUENTITY@@@Z ; get_keysite_supply_position
  00052	50		 push	 eax
  00053	8d 4d e0	 lea	 ecx, DWORD PTR _position$[ebp]
  00056	51		 push	 ecx
  00057	e8 00 00 00 00	 call	 _memcpy
  0005c	83 c4 0c	 add	 esp, 12			; 0000000cH

; 374  : 
; 375  : 	bounding_box = get_object_3d_bounding_box (OBJECT_3D_SINGLE_CRATE);

  0005f	68 8a 0a 00 00	 push	 2698			; 00000a8aH
  00064	e8 00 00 00 00	 call	 ?get_object_3d_bounding_box@@YGPAUOBJECT_3D_BOUNDS@@H@Z ; get_object_3d_bounding_box
  00069	89 45 ec	 mov	 DWORD PTR _bounding_box$[ebp], eax

; 376  : 
; 377  : 	//
; 378  : 	// work out start position
; 379  : 	//
; 380  : 
; 381  : 	position.y -= bounding_box->ymin;

  0006c	8b 45 ec	 mov	 eax, DWORD PTR _bounding_box$[ebp]
  0006f	f3 0f 10 45 e4	 movss	 xmm0, DWORD PTR _position$[ebp+4]
  00074	f3 0f 5c 40 08	 subss	 xmm0, DWORD PTR [eax+8]
  00079	f3 0f 11 45 e4	 movss	 DWORD PTR _position$[ebp+4], xmm0

; 382  : 
; 383  : 	position.z += sub_type * ((bounding_box->zmax - bounding_box->zmin) + 1);

  0007e	f3 0f 2a 45 10	 cvtsi2ss xmm0, DWORD PTR _sub_type$[ebp]
  00083	8b 45 ec	 mov	 eax, DWORD PTR _bounding_box$[ebp]
  00086	8b 4d ec	 mov	 ecx, DWORD PTR _bounding_box$[ebp]
  00089	f3 0f 10 48 14	 movss	 xmm1, DWORD PTR [eax+20]
  0008e	f3 0f 5c 49 10	 subss	 xmm1, DWORD PTR [ecx+16]
  00093	f3 0f 58 0d 00
	00 00 00	 addss	 xmm1, DWORD PTR __real@3f800000
  0009b	f3 0f 59 c1	 mulss	 xmm0, xmm1
  0009f	f3 0f 58 45 e8	 addss	 xmm0, DWORD PTR _position$[ebp+8]
  000a4	f3 0f 11 45 e8	 movss	 DWORD PTR _position$[ebp+8], xmm0

; 384  : 
; 385  : 	//
; 386  : 	// check for existing cargo
; 387  : 	//
; 388  : 
; 389  : 	temp_cargo_level = cargo_level;

  000a9	f3 0f 10 45 0c	 movss	 xmm0, DWORD PTR _cargo_level$[ebp]
  000ae	f3 0f 11 45 fc	 movss	 DWORD PTR _temp_cargo_level$[ebp], xmm0

; 390  : 
; 391  : 	cargo = raw->cargo_root.first_child;

  000b3	8b 45 dc	 mov	 eax, DWORD PTR _raw$[ebp]
  000b6	8b 48 2c	 mov	 ecx, DWORD PTR [eax+44]
  000b9	89 4d f4	 mov	 DWORD PTR _cargo$[ebp], ecx
$LN39@update_key:

; 392  : 
; 393  : 	while (cargo)

  000bc	83 7d f4 00	 cmp	 DWORD PTR _cargo$[ebp], 0
  000c0	0f 84 26 02 00
	00		 je	 $LN3@update_key

; 394  : 	{
; 395  : 
; 396  : 		if (get_local_entity_int_value (cargo, INT_TYPE_ENTITY_SUB_TYPE) == sub_type)

  000c6	83 7d f4 00	 cmp	 DWORD PTR _cargo$[ebp], 0
  000ca	74 0a		 je	 SHORT $LN21@update_key
  000cc	8b 45 f4	 mov	 eax, DWORD PTR _cargo$[ebp]
  000cf	8b 08		 mov	 ecx, DWORD PTR [eax]
  000d1	89 4d 98	 mov	 DWORD PTR tv130[ebp], ecx
  000d4	eb 1d		 jmp	 SHORT $LN22@update_key
$LN21@update_key:
  000d6	68 8c 01 00 00	 push	 396			; 0000018cH
  000db	68 00 00 00 00	 push	 OFFSET ??_C@_0EN@PIOGLIPD@c?3?2users?2nhv90?2projects?2eech?2ap@
  000e0	8b 15 00 00 00
	00		 mov	 edx, DWORD PTR ?null_entity_pointer_message@@3PBDB ; null_entity_pointer_message
  000e6	52		 push	 edx
  000e7	e8 00 00 00 00	 call	 ?process_assert@@YGXPBD0H@Z ; process_assert
  000ec	c7 45 98 00 00
	00 00		 mov	 DWORD PTR tv130[ebp], 0
$LN22@update_key:
  000f3	b8 01 00 00 00	 mov	 eax, 1
  000f8	85 c0		 test	 eax, eax
  000fa	74 09		 je	 SHORT $LN23@update_key
  000fc	c7 45 94 34 00
	00 00		 mov	 DWORD PTR tv137[ebp], 52 ; 00000034H
  00103	eb 1d		 jmp	 SHORT $LN24@update_key
$LN23@update_key:
  00105	68 8c 01 00 00	 push	 396			; 0000018cH
  0010a	68 00 00 00 00	 push	 OFFSET ??_C@_0EN@PIOGLIPD@c?3?2users?2nhv90?2projects?2eech?2ap@
  0010f	8b 0d 00 00 00
	00		 mov	 ecx, DWORD PTR ?overload_invalid_int_type_message@@3PBDB ; overload_invalid_int_type_message
  00115	51		 push	 ecx
  00116	e8 00 00 00 00	 call	 ?process_assert@@YGXPBD0H@Z ; process_assert
  0011b	c7 45 94 00 00
	00 00		 mov	 DWORD PTR tv137[ebp], 0
$LN24@update_key:
  00122	6a 34		 push	 52			; 00000034H
  00124	8b 55 f4	 mov	 edx, DWORD PTR _cargo$[ebp]
  00127	52		 push	 edx
  00128	69 45 98 5c 04
	00 00		 imul	 eax, DWORD PTR tv130[ebp], 1116
  0012f	8b 4d 94	 mov	 ecx, DWORD PTR tv137[ebp]
  00132	8b 94 88 00 00
	00 00		 mov	 edx, DWORD PTR ?fn_get_local_entity_int_value@@3PAY0BBH@P6GHPAUENTITY@@W4INT_TYPES@@@ZA[eax+ecx*4]
  00139	ff d2		 call	 edx
  0013b	3b 45 10	 cmp	 eax, DWORD PTR _sub_type$[ebp]
  0013e	0f 85 23 01 00
	00		 jne	 $LN11@update_key

; 397  : 		{
; 398  : 
; 399  : 			temp_cargo_level -= cargo_size;

  00144	f3 0f 10 45 fc	 movss	 xmm0, DWORD PTR _temp_cargo_level$[ebp]
  00149	f3 0f 5c 45 14	 subss	 xmm0, DWORD PTR _cargo_size$[ebp]
  0014e	f3 0f 11 45 fc	 movss	 DWORD PTR _temp_cargo_level$[ebp], xmm0

; 400  : 
; 401  : 			if (temp_cargo_level < 0.0)

  00153	f3 0f 5a 45 fc	 cvtss2sd xmm0, DWORD PTR _temp_cargo_level$[ebp]
  00158	0f 57 c9	 xorps	 xmm1, xmm1
  0015b	66 0f 2f c8	 comisd	 xmm1, xmm0
  0015f	0f 86 d5 00 00
	00		 jbe	 $LN12@update_key

; 402  : 			{
; 403  : 
; 404  : 				//
; 405  : 				// destroy surplus cargo
; 406  : 				//
; 407  : 
; 408  : 				destroy_cargo = cargo;

  00165	8b 45 f4	 mov	 eax, DWORD PTR _cargo$[ebp]
  00168	89 45 f0	 mov	 DWORD PTR _destroy_cargo$[ebp], eax

; 409  : 
; 410  : 				cargo = get_local_entity_child_succ (cargo, LIST_TYPE_CARGO);

  0016b	83 7d f4 00	 cmp	 DWORD PTR _cargo$[ebp], 0
  0016f	74 0a		 je	 SHORT $LN25@update_key
  00171	8b 45 f4	 mov	 eax, DWORD PTR _cargo$[ebp]
  00174	8b 08		 mov	 ecx, DWORD PTR [eax]
  00176	89 4d 98	 mov	 DWORD PTR tv153[ebp], ecx
  00179	eb 21		 jmp	 SHORT $LN26@update_key
$LN25@update_key:
  0017b	8b 15 00 00 00
	00		 mov	 edx, DWORD PTR ?__LINE__Var@?0??update_keysite_cargo@@YGXPAUENTITY@@MHM@Z@4JA
  00181	83 c2 4a	 add	 edx, 74			; 0000004aH
  00184	52		 push	 edx
  00185	68 00 00 00 00	 push	 OFFSET ??_C@_0EN@PIOGLIPD@c?3?2users?2nhv90?2projects?2eech?2ap@
  0018a	a1 00 00 00 00	 mov	 eax, DWORD PTR ?null_entity_pointer_message@@3PBDB ; null_entity_pointer_message
  0018f	50		 push	 eax
  00190	e8 00 00 00 00	 call	 ?process_assert@@YGXPBD0H@Z ; process_assert
  00195	c7 45 98 00 00
	00 00		 mov	 DWORD PTR tv153[ebp], 0
$LN26@update_key:
  0019c	b9 01 00 00 00	 mov	 ecx, 1
  001a1	85 c9		 test	 ecx, ecx
  001a3	74 09		 je	 SHORT $LN27@update_key
  001a5	c7 45 94 06 00
	00 00		 mov	 DWORD PTR tv161[ebp], 6
  001ac	eb 21		 jmp	 SHORT $LN28@update_key
$LN27@update_key:
  001ae	8b 15 00 00 00
	00		 mov	 edx, DWORD PTR ?__LINE__Var@?0??update_keysite_cargo@@YGXPAUENTITY@@MHM@Z@4JA
  001b4	83 c2 4a	 add	 edx, 74			; 0000004aH
  001b7	52		 push	 edx
  001b8	68 00 00 00 00	 push	 OFFSET ??_C@_0EN@PIOGLIPD@c?3?2users?2nhv90?2projects?2eech?2ap@
  001bd	a1 00 00 00 00	 mov	 eax, DWORD PTR ?overload_invalid_list_type_message@@3PBDB ; overload_invalid_list_type_message
  001c2	50		 push	 eax
  001c3	e8 00 00 00 00	 call	 ?process_assert@@YGXPBD0H@Z ; process_assert
  001c8	c7 45 94 00 00
	00 00		 mov	 DWORD PTR tv161[ebp], 0
$LN28@update_key:
  001cf	6a 06		 push	 6
  001d1	8b 4d f4	 mov	 ecx, DWORD PTR _cargo$[ebp]
  001d4	51		 push	 ecx
  001d5	69 55 98 b4 00
	00 00		 imul	 edx, DWORD PTR tv153[ebp], 180
  001dc	8b 45 94	 mov	 eax, DWORD PTR tv161[ebp]
  001df	8b 8c 82 00 00
	00 00		 mov	 ecx, DWORD PTR ?fn_get_local_entity_child_succ@@3PAY0CN@P6GPAUENTITY@@PAU1@W4LIST_TYPES@@@ZA[edx+eax*4]
  001e6	ff d1		 call	 ecx
  001e8	89 45 f4	 mov	 DWORD PTR _cargo$[ebp], eax

; 411  : 
; 412  : 				destroy_client_server_entity_family (destroy_cargo);

  001eb	83 7d f0 00	 cmp	 DWORD PTR _destroy_cargo$[ebp], 0
  001ef	74 0a		 je	 SHORT $LN29@update_key
  001f1	8b 45 f0	 mov	 eax, DWORD PTR _destroy_cargo$[ebp]
  001f4	8b 08		 mov	 ecx, DWORD PTR [eax]
  001f6	89 4d 98	 mov	 DWORD PTR tv173[ebp], ecx
  001f9	eb 21		 jmp	 SHORT $LN30@update_key
$LN29@update_key:
  001fb	8b 15 00 00 00
	00		 mov	 edx, DWORD PTR ?__LINE__Var@?0??update_keysite_cargo@@YGXPAUENTITY@@MHM@Z@4JA
  00201	83 c2 4c	 add	 edx, 76			; 0000004cH
  00204	52		 push	 edx
  00205	68 00 00 00 00	 push	 OFFSET ??_C@_0EN@PIOGLIPD@c?3?2users?2nhv90?2projects?2eech?2ap@
  0020a	a1 00 00 00 00	 mov	 eax, DWORD PTR ?null_entity_pointer_message@@3PBDB ; null_entity_pointer_message
  0020f	50		 push	 eax
  00210	e8 00 00 00 00	 call	 ?process_assert@@YGXPBD0H@Z ; process_assert
  00215	c7 45 98 00 00
	00 00		 mov	 DWORD PTR tv173[ebp], 0
$LN30@update_key:
  0021c	8b 4d f0	 mov	 ecx, DWORD PTR _destroy_cargo$[ebp]
  0021f	51		 push	 ecx
  00220	8b 15 00 00 00
	00		 mov	 edx, DWORD PTR ?system_comms_model@@3W4COMMS_MODEL_TYPES@@A ; system_comms_model
  00226	c1 e2 02	 shl	 edx, 2
  00229	8b 45 98	 mov	 eax, DWORD PTR tv173[ebp]
  0022c	8b 8c c2 00 00
	00 00		 mov	 ecx, DWORD PTR ?fn_destroy_client_server_entity_family@@3PAY01P6GXPAUENTITY@@@ZA[edx+eax*8]
  00233	ff d1		 call	 ecx

; 413  : 
; 414  : 				#if DEBUG_MODULE || DEBUG_SUPPLY
; 415  : 
; 416  : 				debug_log ("KEYSITE: SUPPLY_INFO: destroying cargo %s at keysite %s (%d)",
; 417  : 							entity_sub_type_cargo_names [sub_type],
; 418  : 							get_local_entity_string (en, STRING_TYPE_KEYSITE_NAME),
; 419  : 							get_local_entity_index (en));
; 420  : 
; 421  : 				#endif
; 422  : 
; 423  : 				continue;

  00235	e9 82 fe ff ff	 jmp	 $LN39@update_key
$LN12@update_key:

; 424  : 			}
; 425  : 
; 426  : 			position.x += (bounding_box->xmax - bounding_box->xmin) + 1.0;

  0023a	8b 45 ec	 mov	 eax, DWORD PTR _bounding_box$[ebp]
  0023d	8b 4d ec	 mov	 ecx, DWORD PTR _bounding_box$[ebp]
  00240	f3 0f 10 40 04	 movss	 xmm0, DWORD PTR [eax+4]
  00245	f3 0f 5c 01	 subss	 xmm0, DWORD PTR [ecx]
  00249	f3 0f 5a c0	 cvtss2sd xmm0, xmm0
  0024d	f2 0f 58 05 00
	00 00 00	 addsd	 xmm0, QWORD PTR __real@3ff0000000000000
  00255	f3 0f 5a 4d e0	 cvtss2sd xmm1, DWORD PTR _position$[ebp]
  0025a	f2 0f 58 c8	 addsd	 xmm1, xmm0
  0025e	f2 0f 5a c1	 cvtsd2ss xmm0, xmm1
  00262	f3 0f 11 45 e0	 movss	 DWORD PTR _position$[ebp], xmm0
$LN11@update_key:

; 427  : 		}
; 428  : 
; 429  : 		cargo = get_local_entity_child_succ (cargo, LIST_TYPE_CARGO);

  00267	83 7d f4 00	 cmp	 DWORD PTR _cargo$[ebp], 0
  0026b	74 0a		 je	 SHORT $LN31@update_key
  0026d	8b 45 f4	 mov	 eax, DWORD PTR _cargo$[ebp]
  00270	8b 08		 mov	 ecx, DWORD PTR [eax]
  00272	89 4d 98	 mov	 DWORD PTR tv193[ebp], ecx
  00275	eb 21		 jmp	 SHORT $LN32@update_key
$LN31@update_key:
  00277	8b 15 00 00 00
	00		 mov	 edx, DWORD PTR ?__LINE__Var@?0??update_keysite_cargo@@YGXPAUENTITY@@MHM@Z@4JA
  0027d	83 c2 5d	 add	 edx, 93			; 0000005dH
  00280	52		 push	 edx
  00281	68 00 00 00 00	 push	 OFFSET ??_C@_0EN@PIOGLIPD@c?3?2users?2nhv90?2projects?2eech?2ap@
  00286	a1 00 00 00 00	 mov	 eax, DWORD PTR ?null_entity_pointer_message@@3PBDB ; null_entity_pointer_message
  0028b	50		 push	 eax
  0028c	e8 00 00 00 00	 call	 ?process_assert@@YGXPBD0H@Z ; process_assert
  00291	c7 45 98 00 00
	00 00		 mov	 DWORD PTR tv193[ebp], 0
$LN32@update_key:
  00298	b9 01 00 00 00	 mov	 ecx, 1
  0029d	85 c9		 test	 ecx, ecx
  0029f	74 09		 je	 SHORT $LN33@update_key
  002a1	c7 45 94 06 00
	00 00		 mov	 DWORD PTR tv201[ebp], 6
  002a8	eb 21		 jmp	 SHORT $LN34@update_key
$LN33@update_key:
  002aa	8b 15 00 00 00
	00		 mov	 edx, DWORD PTR ?__LINE__Var@?0??update_keysite_cargo@@YGXPAUENTITY@@MHM@Z@4JA
  002b0	83 c2 5d	 add	 edx, 93			; 0000005dH
  002b3	52		 push	 edx
  002b4	68 00 00 00 00	 push	 OFFSET ??_C@_0EN@PIOGLIPD@c?3?2users?2nhv90?2projects?2eech?2ap@
  002b9	a1 00 00 00 00	 mov	 eax, DWORD PTR ?overload_invalid_list_type_message@@3PBDB ; overload_invalid_list_type_message
  002be	50		 push	 eax
  002bf	e8 00 00 00 00	 call	 ?process_assert@@YGXPBD0H@Z ; process_assert
  002c4	c7 45 94 00 00
	00 00		 mov	 DWORD PTR tv201[ebp], 0
$LN34@update_key:
  002cb	6a 06		 push	 6
  002cd	8b 4d f4	 mov	 ecx, DWORD PTR _cargo$[ebp]
  002d0	51		 push	 ecx
  002d1	69 55 98 b4 00
	00 00		 imul	 edx, DWORD PTR tv193[ebp], 180
  002d8	8b 45 94	 mov	 eax, DWORD PTR tv201[ebp]
  002db	8b 8c 82 00 00
	00 00		 mov	 ecx, DWORD PTR ?fn_get_local_entity_child_succ@@3PAY0CN@P6GPAUENTITY@@PAU1@W4LIST_TYPES@@@ZA[edx+eax*4]
  002e2	ff d1		 call	 ecx
  002e4	89 45 f4	 mov	 DWORD PTR _cargo$[ebp], eax

; 430  : 	}

  002e7	e9 d0 fd ff ff	 jmp	 $LN39@update_key
$LN3@update_key:

; 431  : 
; 432  : 	//
; 433  : 	// Create new cargo as required
; 434  : 	//
; 435  : 
; 436  : 	if (temp_cargo_level > cargo_size)

  002ec	f3 0f 10 45 fc	 movss	 xmm0, DWORD PTR _temp_cargo_level$[ebp]
  002f1	0f 2f 45 14	 comiss	 xmm0, DWORD PTR _cargo_size$[ebp]
  002f5	0f 86 26 01 00
	00		 jbe	 $LN13@update_key
$LN4@update_key:

; 437  : 	{
; 438  : 
; 439  : 		while (temp_cargo_level > cargo_size)

  002fb	f3 0f 10 45 fc	 movss	 xmm0, DWORD PTR _temp_cargo_level$[ebp]
  00300	0f 2f 45 14	 comiss	 xmm0, DWORD PTR _cargo_size$[ebp]
  00304	0f 86 12 01 00
	00		 jbe	 $LN5@update_key

; 440  : 		{
; 441  : 	
; 442  : 			#if DEBUG_MODULE || DEBUG_SUPPLY
; 443  : 
; 444  : 			debug_log ("KEYSITE: SUPPLY_INFO: creating cargo %s for keysite %s (%d)",
; 445  : 							entity_sub_type_cargo_names [sub_type],
; 446  : 							get_local_entity_string (en, STRING_TYPE_KEYSITE_NAME),
; 447  : 							get_local_entity_index (en));
; 448  : 
; 449  : 			#endif
; 450  : 		
; 451  : 			create_client_server_entity

  0030a	83 7d 08 00	 cmp	 DWORD PTR _en$[ebp], 0
  0030e	74 0a		 je	 SHORT $LN35@update_key
  00310	8b 45 08	 mov	 eax, DWORD PTR _en$[ebp]
  00313	8b 08		 mov	 ecx, DWORD PTR [eax]
  00315	89 4d 98	 mov	 DWORD PTR tv228[ebp], ecx
  00318	eb 21		 jmp	 SHORT $LN36@update_key
$LN35@update_key:
  0031a	8b 15 00 00 00
	00		 mov	 edx, DWORD PTR ?__LINE__Var@?0??update_keysite_cargo@@YGXPAUENTITY@@MHM@Z@4JA
  00320	83 c2 78	 add	 edx, 120		; 00000078H
  00323	52		 push	 edx
  00324	68 00 00 00 00	 push	 OFFSET ??_C@_0EN@PIOGLIPD@c?3?2users?2nhv90?2projects?2eech?2ap@
  00329	a1 00 00 00 00	 mov	 eax, DWORD PTR ?null_entity_pointer_message@@3PBDB ; null_entity_pointer_message
  0032e	50		 push	 eax
  0032f	e8 00 00 00 00	 call	 ?process_assert@@YGXPBD0H@Z ; process_assert
  00334	c7 45 98 00 00
	00 00		 mov	 DWORD PTR tv228[ebp], 0
$LN36@update_key:
  0033b	b9 01 00 00 00	 mov	 ecx, 1
  00340	85 c9		 test	 ecx, ecx
  00342	74 09		 je	 SHORT $LN37@update_key
  00344	c7 45 94 bb 00
	00 00		 mov	 DWORD PTR tv236[ebp], 187 ; 000000bbH
  0034b	eb 21		 jmp	 SHORT $LN38@update_key
$LN37@update_key:
  0034d	8b 15 00 00 00
	00		 mov	 edx, DWORD PTR ?__LINE__Var@?0??update_keysite_cargo@@YGXPAUENTITY@@MHM@Z@4JA
  00353	83 c2 78	 add	 edx, 120		; 00000078H
  00356	52		 push	 edx
  00357	68 00 00 00 00	 push	 OFFSET ??_C@_0EN@PIOGLIPD@c?3?2users?2nhv90?2projects?2eech?2ap@
  0035c	a1 00 00 00 00	 mov	 eax, DWORD PTR ?overload_invalid_int_type_message@@3PBDB ; overload_invalid_int_type_message
  00361	50		 push	 eax
  00362	e8 00 00 00 00	 call	 ?process_assert@@YGXPBD0H@Z ; process_assert
  00367	c7 45 94 00 00
	00 00		 mov	 DWORD PTR tv236[ebp], 0
$LN38@update_key:
  0036e	6a 00		 push	 0
  00370	f3 0f 5a 45 e8	 cvtss2sd xmm0, DWORD PTR _position$[ebp+8]
  00375	83 ec 08	 sub	 esp, 8
  00378	f2 0f 11 04 24	 movsd	 QWORD PTR [esp], xmm0
  0037d	f3 0f 5a 45 e4	 cvtss2sd xmm0, DWORD PTR _position$[ebp+4]
  00382	83 ec 08	 sub	 esp, 8
  00385	f2 0f 11 04 24	 movsd	 QWORD PTR [esp], xmm0
  0038a	f3 0f 5a 45 e0	 cvtss2sd xmm0, DWORD PTR _position$[ebp]
  0038f	83 ec 08	 sub	 esp, 8
  00392	f2 0f 11 04 24	 movsd	 QWORD PTR [esp], xmm0
  00397	6a 08		 push	 8
  00399	6a 09		 push	 9
  0039b	8b 4d 10	 mov	 ecx, DWORD PTR _sub_type$[ebp]
  0039e	51		 push	 ecx
  0039f	6a 34		 push	 52			; 00000034H
  003a1	6a 05		 push	 5
  003a3	68 bb 00 00 00	 push	 187			; 000000bbH
  003a8	8b 55 08	 mov	 edx, DWORD PTR _en$[ebp]
  003ab	52		 push	 edx
  003ac	69 45 98 5c 04
	00 00		 imul	 eax, DWORD PTR tv228[ebp], 1116
  003b3	8b 4d 94	 mov	 ecx, DWORD PTR tv236[ebp]
  003b6	8b 94 88 00 00
	00 00		 mov	 edx, DWORD PTR ?fn_get_local_entity_int_value@@3PAY0BBH@P6GHPAUENTITY@@W4INT_TYPES@@@ZA[eax+ecx*4]
  003bd	ff d2		 call	 edx
  003bf	50		 push	 eax
  003c0	68 bb 00 00 00	 push	 187			; 000000bbH
  003c5	6a 05		 push	 5
  003c7	8b 45 08	 mov	 eax, DWORD PTR _en$[ebp]
  003ca	50		 push	 eax
  003cb	6a 06		 push	 6
  003cd	6a 06		 push	 6
  003cf	6a ff		 push	 -1
  003d1	6a 04		 push	 4
  003d3	e8 00 00 00 00	 call	 ?create_client_server_entity@@YAPAUENTITY@@W4ENTITY_TYPES@@HZZ ; create_client_server_entity
  003d8	83 c4 50	 add	 esp, 80			; 00000050H

; 452  : 			(
; 453  : 				ENTITY_TYPE_CARGO,
; 454  : 				ENTITY_INDEX_DONT_CARE,
; 455  : 				ENTITY_ATTR_PARENT (LIST_TYPE_CARGO, en),
; 456  : 				ENTITY_ATTR_INT_VALUE (INT_TYPE_SIDE, get_local_entity_int_value (en, INT_TYPE_SIDE)),
; 457  : 				ENTITY_ATTR_INT_VALUE (INT_TYPE_ENTITY_SUB_TYPE, sub_type),
; 458  : 				ENTITY_ATTR_VEC3D (VEC3D_TYPE_POSITION, position.x, position.y, position.z),
; 459  : 				ENTITY_ATTR_END
; 460  : 			);
; 461  : 	
; 462  : 			position.x += (bounding_box->xmax - bounding_box->xmin) + 1.0;

  003db	8b 45 ec	 mov	 eax, DWORD PTR _bounding_box$[ebp]
  003de	8b 4d ec	 mov	 ecx, DWORD PTR _bounding_box$[ebp]
  003e1	f3 0f 10 40 04	 movss	 xmm0, DWORD PTR [eax+4]
  003e6	f3 0f 5c 01	 subss	 xmm0, DWORD PTR [ecx]
  003ea	f3 0f 5a c0	 cvtss2sd xmm0, xmm0
  003ee	f2 0f 58 05 00
	00 00 00	 addsd	 xmm0, QWORD PTR __real@3ff0000000000000
  003f6	f3 0f 5a 4d e0	 cvtss2sd xmm1, DWORD PTR _position$[ebp]
  003fb	f2 0f 58 c8	 addsd	 xmm1, xmm0
  003ff	f2 0f 5a c1	 cvtsd2ss xmm0, xmm1
  00403	f3 0f 11 45 e0	 movss	 DWORD PTR _position$[ebp], xmm0

; 463  : 	
; 464  : 			temp_cargo_level -= cargo_size;

  00408	f3 0f 10 45 fc	 movss	 xmm0, DWORD PTR _temp_cargo_level$[ebp]
  0040d	f3 0f 5c 45 14	 subss	 xmm0, DWORD PTR _cargo_size$[ebp]
  00412	f3 0f 11 45 fc	 movss	 DWORD PTR _temp_cargo_level$[ebp], xmm0

; 465  : 		}

  00417	e9 df fe ff ff	 jmp	 $LN4@update_key
$LN5@update_key:

; 466  : 	}
; 467  : 	else if (cargo_level <= KEYSITE_SUPPLY_REQUEST_THRESHOLD)

  0041c	e9 ba 00 00 00	 jmp	 $LN6@update_key
$LN13@update_key:
  00421	f3 0f 5a 45 0c	 cvtss2sd xmm0, DWORD PTR _cargo_level$[ebp]
  00426	f2 0f 10 0d 00
	00 00 00	 movsd	 xmm1, QWORD PTR __real@4052c00000000000
  0042e	66 0f 2f c8	 comisd	 xmm1, xmm0
  00432	0f 82 a3 00 00
	00		 jb	 $LN6@update_key

; 468  : 	{
; 469  : 		//
; 470  : 		// low on cargo supplies so request some more
; 471  : 		//
; 472  : 
; 473  : 		switch (sub_type)

  00438	8b 45 10	 mov	 eax, DWORD PTR _sub_type$[ebp]
  0043b	89 45 98	 mov	 DWORD PTR tv260[ebp], eax
  0043e	83 7d 98 00	 cmp	 DWORD PTR tv260[ebp], 0
  00442	74 0b		 je	 SHORT $LN16@update_key
  00444	83 7d 98 01	 cmp	 DWORD PTR tv260[ebp], 1
  00448	74 4c		 je	 SHORT $LN18@update_key
  0044a	e9 8c 00 00 00	 jmp	 $LN6@update_key
$LN16@update_key:

; 474  : 		{
; 475  : 			case ENTITY_SUB_TYPE_CARGO_AMMO:
; 476  : 			{	
; 477  : 				if (keysite_database [raw->sub_type].default_supply_usage.ammo_supply_level < 0.0)

  0044f	8b 45 dc	 mov	 eax, DWORD PTR _raw$[ebp]
  00452	6b 08 44	 imul	 ecx, DWORD PTR [eax], 68
  00455	f3 0f 5a 81 10
	00 00 00	 cvtss2sd xmm0, DWORD PTR ?keysite_database@@3PAUKEYSITE_DATA@@A[ecx+16]
  0045d	0f 57 c9	 xorps	 xmm1, xmm1
  00460	66 0f 2f c8	 comisd	 xmm1, xmm0
  00464	76 2e		 jbe	 SHORT $LN17@update_key

; 478  : 				{
; 479  : 					force = get_local_force_entity ((entity_sides) raw->side);

  00466	8b 45 dc	 mov	 eax, DWORD PTR _raw$[ebp]
  00469	8b 88 a0 01 00
	00		 mov	 ecx, DWORD PTR [eax+416]
  0046f	c1 e9 1d	 shr	 ecx, 29			; 0000001dH
  00472	83 e1 03	 and	 ecx, 3
  00475	51		 push	 ecx
  00476	e8 00 00 00 00	 call	 ?get_local_force_entity@@YGPAUENTITY@@W4ENTITY_SIDES@@@Z ; get_local_force_entity
  0047b	89 45 f8	 mov	 DWORD PTR _force$[ebp], eax

; 480  : 			
; 481  : 					notify_local_entity (ENTITY_MESSAGE_FORCE_LOW_ON_SUPPLIES, force, en, sub_type);

  0047e	8b 45 10	 mov	 eax, DWORD PTR _sub_type$[ebp]
  00481	50		 push	 eax
  00482	8b 4d 08	 mov	 ecx, DWORD PTR _en$[ebp]
  00485	51		 push	 ecx
  00486	8b 55 f8	 mov	 edx, DWORD PTR _force$[ebp]
  00489	52		 push	 edx
  0048a	6a 18		 push	 24			; 00000018H
  0048c	e8 00 00 00 00	 call	 ?notify_local_entity@@YAHW4ENTITY_MESSAGES@@PAUENTITY@@1ZZ ; notify_local_entity
  00491	83 c4 10	 add	 esp, 16			; 00000010H
$LN17@update_key:

; 482  : 				}
; 483  : 
; 484  : 				break;

  00494	eb 45		 jmp	 SHORT $LN6@update_key
$LN18@update_key:

; 485  : 			}
; 486  : 			case ENTITY_SUB_TYPE_CARGO_FUEL:
; 487  : 			{	
; 488  : 				if (keysite_database [raw->sub_type].default_supply_usage.fuel_supply_level < 0.0)

  00496	8b 45 dc	 mov	 eax, DWORD PTR _raw$[ebp]
  00499	6b 08 44	 imul	 ecx, DWORD PTR [eax], 68
  0049c	f3 0f 5a 81 14
	00 00 00	 cvtss2sd xmm0, DWORD PTR ?keysite_database@@3PAUKEYSITE_DATA@@A[ecx+20]
  004a4	0f 57 c9	 xorps	 xmm1, xmm1
  004a7	66 0f 2f c8	 comisd	 xmm1, xmm0
  004ab	76 2e		 jbe	 SHORT $LN19@update_key

; 489  : 				{
; 490  : 					force = get_local_force_entity ((entity_sides) raw->side);

  004ad	8b 45 dc	 mov	 eax, DWORD PTR _raw$[ebp]
  004b0	8b 88 a0 01 00
	00		 mov	 ecx, DWORD PTR [eax+416]
  004b6	c1 e9 1d	 shr	 ecx, 29			; 0000001dH
  004b9	83 e1 03	 and	 ecx, 3
  004bc	51		 push	 ecx
  004bd	e8 00 00 00 00	 call	 ?get_local_force_entity@@YGPAUENTITY@@W4ENTITY_SIDES@@@Z ; get_local_force_entity
  004c2	89 45 f8	 mov	 DWORD PTR _force$[ebp], eax

; 491  : 			
; 492  : 					notify_local_entity (ENTITY_MESSAGE_FORCE_LOW_ON_SUPPLIES, force, en, sub_type);

  004c5	8b 45 10	 mov	 eax, DWORD PTR _sub_type$[ebp]
  004c8	50		 push	 eax
  004c9	8b 4d 08	 mov	 ecx, DWORD PTR _en$[ebp]
  004cc	51		 push	 ecx
  004cd	8b 55 f8	 mov	 edx, DWORD PTR _force$[ebp]
  004d0	52		 push	 edx
  004d1	6a 18		 push	 24			; 00000018H
  004d3	e8 00 00 00 00	 call	 ?notify_local_entity@@YAHW4ENTITY_MESSAGES@@PAUENTITY@@1ZZ ; notify_local_entity
  004d8	83 c4 10	 add	 esp, 16			; 00000010H
$LN19@update_key:
$LN6@update_key:
$LN1@update_key:

; 493  : 				}
; 494  : 
; 495  : 				break;
; 496  : 			}
; 497  : 		}
; 498  : 	}
; 499  : }

  004db	5f		 pop	 edi
  004dc	5e		 pop	 esi
  004dd	5b		 pop	 ebx
  004de	8b e5		 mov	 esp, ebp
  004e0	5d		 pop	 ebp
  004e1	c2 10 00	 ret	 16			; 00000010H
?update_keysite_cargo@@YGXPAUENTITY@@MHM@Z ENDP		; update_keysite_cargo
_TEXT	ENDS
; Function compile flags: /Odtp /ZI
; File c:\users\nhv90\projects\eech\aphavoc\source\entity\special\keysite\keysite.c
;	COMDAT ?get_keysite_landing_sites_available@@YGHPAUENTITY@@H@Z
_TEXT	SEGMENT
tv170 = -84						; size = 4
tv162 = -80						; size = 4
tv191 = -76						; size = 4
tv150 = -76						; size = 4
tv129 = -76						; size = 4
tv78 = -76						; size = 4
tv183 = -72						; size = 4
tv142 = -72						; size = 4
tv90 = -72						; size = 4
tv70 = -72						; size = 4
_landing$ = -4						; size = 4
_en$ = 8						; size = 4
_landing_type$ = 12					; size = 4
?get_keysite_landing_sites_available@@YGHPAUENTITY@@H@Z PROC ; get_keysite_landing_sites_available, COMDAT

; 312  : {

  00000	55		 push	 ebp
  00001	8b ec		 mov	 ebp, esp
  00003	83 ec 54	 sub	 esp, 84			; 00000054H
  00006	53		 push	 ebx
  00007	56		 push	 esi
  00008	57		 push	 edi

; 313  : 	entity
; 314  : 		*landing;
; 315  : 		
; 316  : 	landing = get_local_entity_first_child (en, LIST_TYPE_LANDING_SITE);

  00009	83 7d 08 00	 cmp	 DWORD PTR _en$[ebp], 0
  0000d	74 0a		 je	 SHORT $LN6@get_keysit
  0000f	8b 45 08	 mov	 eax, DWORD PTR _en$[ebp]
  00012	8b 08		 mov	 ecx, DWORD PTR [eax]
  00014	89 4d b8	 mov	 DWORD PTR tv70[ebp], ecx
  00017	eb 21		 jmp	 SHORT $LN7@get_keysit
$LN6@get_keysit:
  00019	8b 15 00 00 00
	00		 mov	 edx, DWORD PTR ?__LINE__Var@?0??get_keysite_landing_sites_available@@YGHPAUENTITY@@H@Z@4JA
  0001f	83 c2 04	 add	 edx, 4
  00022	52		 push	 edx
  00023	68 00 00 00 00	 push	 OFFSET ??_C@_0EN@PIOGLIPD@c?3?2users?2nhv90?2projects?2eech?2ap@
  00028	a1 00 00 00 00	 mov	 eax, DWORD PTR ?null_entity_pointer_message@@3PBDB ; null_entity_pointer_message
  0002d	50		 push	 eax
  0002e	e8 00 00 00 00	 call	 ?process_assert@@YGXPBD0H@Z ; process_assert
  00033	c7 45 b8 00 00
	00 00		 mov	 DWORD PTR tv70[ebp], 0
$LN7@get_keysit:
  0003a	b9 01 00 00 00	 mov	 ecx, 1
  0003f	85 c9		 test	 ecx, ecx
  00041	74 09		 je	 SHORT $LN8@get_keysit
  00043	c7 45 b4 17 00
	00 00		 mov	 DWORD PTR tv78[ebp], 23	; 00000017H
  0004a	eb 21		 jmp	 SHORT $LN9@get_keysit
$LN8@get_keysit:
  0004c	8b 15 00 00 00
	00		 mov	 edx, DWORD PTR ?__LINE__Var@?0??get_keysite_landing_sites_available@@YGHPAUENTITY@@H@Z@4JA
  00052	83 c2 04	 add	 edx, 4
  00055	52		 push	 edx
  00056	68 00 00 00 00	 push	 OFFSET ??_C@_0EN@PIOGLIPD@c?3?2users?2nhv90?2projects?2eech?2ap@
  0005b	a1 00 00 00 00	 mov	 eax, DWORD PTR ?overload_invalid_list_type_message@@3PBDB ; overload_invalid_list_type_message
  00060	50		 push	 eax
  00061	e8 00 00 00 00	 call	 ?process_assert@@YGXPBD0H@Z ; process_assert
  00066	c7 45 b4 00 00
	00 00		 mov	 DWORD PTR tv78[ebp], 0
$LN9@get_keysit:
  0006d	6a 17		 push	 23			; 00000017H
  0006f	8b 4d 08	 mov	 ecx, DWORD PTR _en$[ebp]
  00072	51		 push	 ecx
  00073	69 55 b8 b4 00
	00 00		 imul	 edx, DWORD PTR tv70[ebp], 180
  0007a	8b 45 b4	 mov	 eax, DWORD PTR tv78[ebp]
  0007d	8b 8c 82 00 00
	00 00		 mov	 ecx, DWORD PTR ?fn_get_local_entity_first_child@@3PAY0CN@P6GPAUENTITY@@PAU1@W4LIST_TYPES@@@ZA[edx+eax*4]
  00084	ff d1		 call	 ecx
  00086	89 45 fc	 mov	 DWORD PTR _landing$[ebp], eax
$LN2@get_keysit:

; 317  : 		
; 318  : 	while (landing)

  00089	83 7d fc 00	 cmp	 DWORD PTR _landing$[ebp], 0
  0008d	0f 84 0b 02 00
	00		 je	 $LN3@get_keysit

; 319  : 	{
; 320  : 		if (get_local_entity_int_value (landing, INT_TYPE_ENTITY_SUB_TYPE) == landing_type)

  00093	83 7d fc 00	 cmp	 DWORD PTR _landing$[ebp], 0
  00097	74 0a		 je	 SHORT $LN10@get_keysit
  00099	8b 45 fc	 mov	 eax, DWORD PTR _landing$[ebp]
  0009c	8b 08		 mov	 ecx, DWORD PTR [eax]
  0009e	89 4d b8	 mov	 DWORD PTR tv90[ebp], ecx
  000a1	eb 1d		 jmp	 SHORT $LN11@get_keysit
$LN10@get_keysit:
  000a3	68 40 01 00 00	 push	 320			; 00000140H
  000a8	68 00 00 00 00	 push	 OFFSET ??_C@_0EN@PIOGLIPD@c?3?2users?2nhv90?2projects?2eech?2ap@
  000ad	8b 15 00 00 00
	00		 mov	 edx, DWORD PTR ?null_entity_pointer_message@@3PBDB ; null_entity_pointer_message
  000b3	52		 push	 edx
  000b4	e8 00 00 00 00	 call	 ?process_assert@@YGXPBD0H@Z ; process_assert
  000b9	c7 45 b8 00 00
	00 00		 mov	 DWORD PTR tv90[ebp], 0
$LN11@get_keysit:
  000c0	b8 01 00 00 00	 mov	 eax, 1
  000c5	85 c0		 test	 eax, eax
  000c7	74 09		 je	 SHORT $LN12@get_keysit
  000c9	c7 45 b4 34 00
	00 00		 mov	 DWORD PTR tv129[ebp], 52 ; 00000034H
  000d0	eb 1d		 jmp	 SHORT $LN13@get_keysit
$LN12@get_keysit:
  000d2	68 40 01 00 00	 push	 320			; 00000140H
  000d7	68 00 00 00 00	 push	 OFFSET ??_C@_0EN@PIOGLIPD@c?3?2users?2nhv90?2projects?2eech?2ap@
  000dc	8b 0d 00 00 00
	00		 mov	 ecx, DWORD PTR ?overload_invalid_int_type_message@@3PBDB ; overload_invalid_int_type_message
  000e2	51		 push	 ecx
  000e3	e8 00 00 00 00	 call	 ?process_assert@@YGXPBD0H@Z ; process_assert
  000e8	c7 45 b4 00 00
	00 00		 mov	 DWORD PTR tv129[ebp], 0
$LN13@get_keysit:
  000ef	6a 34		 push	 52			; 00000034H
  000f1	8b 55 fc	 mov	 edx, DWORD PTR _landing$[ebp]
  000f4	52		 push	 edx
  000f5	69 45 b8 5c 04
	00 00		 imul	 eax, DWORD PTR tv90[ebp], 1116
  000fc	8b 4d b4	 mov	 ecx, DWORD PTR tv129[ebp]
  000ff	8b 94 88 00 00
	00 00		 mov	 edx, DWORD PTR ?fn_get_local_entity_int_value@@3PAY0BBH@P6GHPAUENTITY@@W4INT_TYPES@@@ZA[eax+ecx*4]
  00106	ff d2		 call	 edx
  00108	3b 45 0c	 cmp	 eax, DWORD PTR _landing_type$[ebp]
  0010b	0f 85 08 01 00
	00		 jne	 $LN4@get_keysit

; 321  : 		{
; 322  : 			return get_local_entity_int_value (landing, INT_TYPE_FREE_LANDING_SITES) - get_local_entity_int_value (landing, INT_TYPE_RESERVED_LANDING_SITES);

  00111	83 7d fc 00	 cmp	 DWORD PTR _landing$[ebp], 0
  00115	74 0a		 je	 SHORT $LN14@get_keysit
  00117	8b 45 fc	 mov	 eax, DWORD PTR _landing$[ebp]
  0011a	8b 08		 mov	 ecx, DWORD PTR [eax]
  0011c	89 4d b8	 mov	 DWORD PTR tv142[ebp], ecx
  0011f	eb 21		 jmp	 SHORT $LN15@get_keysit
$LN14@get_keysit:
  00121	8b 15 00 00 00
	00		 mov	 edx, DWORD PTR ?__LINE__Var@?0??get_keysite_landing_sites_available@@YGHPAUENTITY@@H@Z@4JA
  00127	83 c2 0a	 add	 edx, 10			; 0000000aH
  0012a	52		 push	 edx
  0012b	68 00 00 00 00	 push	 OFFSET ??_C@_0EN@PIOGLIPD@c?3?2users?2nhv90?2projects?2eech?2ap@
  00130	a1 00 00 00 00	 mov	 eax, DWORD PTR ?null_entity_pointer_message@@3PBDB ; null_entity_pointer_message
  00135	50		 push	 eax
  00136	e8 00 00 00 00	 call	 ?process_assert@@YGXPBD0H@Z ; process_assert
  0013b	c7 45 b8 00 00
	00 00		 mov	 DWORD PTR tv142[ebp], 0
$LN15@get_keysit:
  00142	b9 01 00 00 00	 mov	 ecx, 1
  00147	85 c9		 test	 ecx, ecx
  00149	74 09		 je	 SHORT $LN16@get_keysit
  0014b	c7 45 b4 40 00
	00 00		 mov	 DWORD PTR tv150[ebp], 64 ; 00000040H
  00152	eb 21		 jmp	 SHORT $LN17@get_keysit
$LN16@get_keysit:
  00154	8b 15 00 00 00
	00		 mov	 edx, DWORD PTR ?__LINE__Var@?0??get_keysite_landing_sites_available@@YGHPAUENTITY@@H@Z@4JA
  0015a	83 c2 0a	 add	 edx, 10			; 0000000aH
  0015d	52		 push	 edx
  0015e	68 00 00 00 00	 push	 OFFSET ??_C@_0EN@PIOGLIPD@c?3?2users?2nhv90?2projects?2eech?2ap@
  00163	a1 00 00 00 00	 mov	 eax, DWORD PTR ?overload_invalid_int_type_message@@3PBDB ; overload_invalid_int_type_message
  00168	50		 push	 eax
  00169	e8 00 00 00 00	 call	 ?process_assert@@YGXPBD0H@Z ; process_assert
  0016e	c7 45 b4 00 00
	00 00		 mov	 DWORD PTR tv150[ebp], 0
$LN17@get_keysit:
  00175	83 7d fc 00	 cmp	 DWORD PTR _landing$[ebp], 0
  00179	74 0a		 je	 SHORT $LN18@get_keysit
  0017b	8b 4d fc	 mov	 ecx, DWORD PTR _landing$[ebp]
  0017e	8b 11		 mov	 edx, DWORD PTR [ecx]
  00180	89 55 b0	 mov	 DWORD PTR tv162[ebp], edx
  00183	eb 21		 jmp	 SHORT $LN19@get_keysit
$LN18@get_keysit:
  00185	a1 00 00 00 00	 mov	 eax, DWORD PTR ?__LINE__Var@?0??get_keysite_landing_sites_available@@YGHPAUENTITY@@H@Z@4JA
  0018a	83 c0 0a	 add	 eax, 10			; 0000000aH
  0018d	50		 push	 eax
  0018e	68 00 00 00 00	 push	 OFFSET ??_C@_0EN@PIOGLIPD@c?3?2users?2nhv90?2projects?2eech?2ap@
  00193	8b 0d 00 00 00
	00		 mov	 ecx, DWORD PTR ?null_entity_pointer_message@@3PBDB ; null_entity_pointer_message
  00199	51		 push	 ecx
  0019a	e8 00 00 00 00	 call	 ?process_assert@@YGXPBD0H@Z ; process_assert
  0019f	c7 45 b0 00 00
	00 00		 mov	 DWORD PTR tv162[ebp], 0
$LN19@get_keysit:
  001a6	ba 01 00 00 00	 mov	 edx, 1
  001ab	85 d2		 test	 edx, edx
  001ad	74 09		 je	 SHORT $LN20@get_keysit
  001af	c7 45 ac af 00
	00 00		 mov	 DWORD PTR tv170[ebp], 175 ; 000000afH
  001b6	eb 21		 jmp	 SHORT $LN21@get_keysit
$LN20@get_keysit:
  001b8	a1 00 00 00 00	 mov	 eax, DWORD PTR ?__LINE__Var@?0??get_keysite_landing_sites_available@@YGHPAUENTITY@@H@Z@4JA
  001bd	83 c0 0a	 add	 eax, 10			; 0000000aH
  001c0	50		 push	 eax
  001c1	68 00 00 00 00	 push	 OFFSET ??_C@_0EN@PIOGLIPD@c?3?2users?2nhv90?2projects?2eech?2ap@
  001c6	8b 0d 00 00 00
	00		 mov	 ecx, DWORD PTR ?overload_invalid_int_type_message@@3PBDB ; overload_invalid_int_type_message
  001cc	51		 push	 ecx
  001cd	e8 00 00 00 00	 call	 ?process_assert@@YGXPBD0H@Z ; process_assert
  001d2	c7 45 ac 00 00
	00 00		 mov	 DWORD PTR tv170[ebp], 0
$LN21@get_keysit:
  001d9	6a 40		 push	 64			; 00000040H
  001db	8b 55 fc	 mov	 edx, DWORD PTR _landing$[ebp]
  001de	52		 push	 edx
  001df	69 45 b8 5c 04
	00 00		 imul	 eax, DWORD PTR tv142[ebp], 1116
  001e6	8b 4d b4	 mov	 ecx, DWORD PTR tv150[ebp]
  001e9	8b 94 88 00 00
	00 00		 mov	 edx, DWORD PTR ?fn_get_local_entity_int_value@@3PAY0BBH@P6GHPAUENTITY@@W4INT_TYPES@@@ZA[eax+ecx*4]
  001f0	ff d2		 call	 edx
  001f2	8b f0		 mov	 esi, eax
  001f4	68 af 00 00 00	 push	 175			; 000000afH
  001f9	8b 45 fc	 mov	 eax, DWORD PTR _landing$[ebp]
  001fc	50		 push	 eax
  001fd	69 4d b0 5c 04
	00 00		 imul	 ecx, DWORD PTR tv162[ebp], 1116
  00204	8b 55 ac	 mov	 edx, DWORD PTR tv170[ebp]
  00207	8b 84 91 00 00
	00 00		 mov	 eax, DWORD PTR ?fn_get_local_entity_int_value@@3PAY0BBH@P6GHPAUENTITY@@W4INT_TYPES@@@ZA[ecx+edx*4]
  0020e	ff d0		 call	 eax
  00210	2b f0		 sub	 esi, eax
  00212	8b c6		 mov	 eax, esi
  00214	e9 87 00 00 00	 jmp	 $LN1@get_keysit
$LN4@get_keysit:

; 323  : 		}
; 324  : 
; 325  : 		landing = get_local_entity_child_succ (landing, LIST_TYPE_LANDING_SITE);

  00219	83 7d fc 00	 cmp	 DWORD PTR _landing$[ebp], 0
  0021d	74 0a		 je	 SHORT $LN22@get_keysit
  0021f	8b 45 fc	 mov	 eax, DWORD PTR _landing$[ebp]
  00222	8b 08		 mov	 ecx, DWORD PTR [eax]
  00224	89 4d b8	 mov	 DWORD PTR tv183[ebp], ecx
  00227	eb 21		 jmp	 SHORT $LN23@get_keysit
$LN22@get_keysit:
  00229	8b 15 00 00 00
	00		 mov	 edx, DWORD PTR ?__LINE__Var@?0??get_keysite_landing_sites_available@@YGHPAUENTITY@@H@Z@4JA
  0022f	83 c2 0d	 add	 edx, 13			; 0000000dH
  00232	52		 push	 edx
  00233	68 00 00 00 00	 push	 OFFSET ??_C@_0EN@PIOGLIPD@c?3?2users?2nhv90?2projects?2eech?2ap@
  00238	a1 00 00 00 00	 mov	 eax, DWORD PTR ?null_entity_pointer_message@@3PBDB ; null_entity_pointer_message
  0023d	50		 push	 eax
  0023e	e8 00 00 00 00	 call	 ?process_assert@@YGXPBD0H@Z ; process_assert
  00243	c7 45 b8 00 00
	00 00		 mov	 DWORD PTR tv183[ebp], 0
$LN23@get_keysit:
  0024a	b9 01 00 00 00	 mov	 ecx, 1
  0024f	85 c9		 test	 ecx, ecx
  00251	74 09		 je	 SHORT $LN24@get_keysit
  00253	c7 45 b4 17 00
	00 00		 mov	 DWORD PTR tv191[ebp], 23 ; 00000017H
  0025a	eb 21		 jmp	 SHORT $LN25@get_keysit
$LN24@get_keysit:
  0025c	8b 15 00 00 00
	00		 mov	 edx, DWORD PTR ?__LINE__Var@?0??get_keysite_landing_sites_available@@YGHPAUENTITY@@H@Z@4JA
  00262	83 c2 0d	 add	 edx, 13			; 0000000dH
  00265	52		 push	 edx
  00266	68 00 00 00 00	 push	 OFFSET ??_C@_0EN@PIOGLIPD@c?3?2users?2nhv90?2projects?2eech?2ap@
  0026b	a1 00 00 00 00	 mov	 eax, DWORD PTR ?overload_invalid_list_type_message@@3PBDB ; overload_invalid_list_type_message
  00270	50		 push	 eax
  00271	e8 00 00 00 00	 call	 ?process_assert@@YGXPBD0H@Z ; process_assert
  00276	c7 45 b4 00 00
	00 00		 mov	 DWORD PTR tv191[ebp], 0
$LN25@get_keysit:
  0027d	6a 17		 push	 23			; 00000017H
  0027f	8b 4d fc	 mov	 ecx, DWORD PTR _landing$[ebp]
  00282	51		 push	 ecx
  00283	69 55 b8 b4 00
	00 00		 imul	 edx, DWORD PTR tv183[ebp], 180
  0028a	8b 45 b4	 mov	 eax, DWORD PTR tv191[ebp]
  0028d	8b 8c 82 00 00
	00 00		 mov	 ecx, DWORD PTR ?fn_get_local_entity_child_succ@@3PAY0CN@P6GPAUENTITY@@PAU1@W4LIST_TYPES@@@ZA[edx+eax*4]
  00294	ff d1		 call	 ecx
  00296	89 45 fc	 mov	 DWORD PTR _landing$[ebp], eax

; 326  : 	}

  00299	e9 eb fd ff ff	 jmp	 $LN2@get_keysit
$LN3@get_keysit:

; 327  : 
; 328  : 	return 0;

  0029e	33 c0		 xor	 eax, eax
$LN1@get_keysit:

; 329  : }

  002a0	5f		 pop	 edi
  002a1	5e		 pop	 esi
  002a2	5b		 pop	 ebx
  002a3	8b e5		 mov	 esp, ebp
  002a5	5d		 pop	 ebp
  002a6	c2 08 00	 ret	 8
?get_keysite_landing_sites_available@@YGHPAUENTITY@@H@Z ENDP ; get_keysite_landing_sites_available
_TEXT	ENDS
; Function compile flags: /Odtp /ZI
; File c:\users\nhv90\projects\eech\aphavoc\source\entity\special\keysite\keysite.c
;	COMDAT ?get_keysite_start_landing_position@@YGHPAUENTITY@@PAUVEC3D@@H@Z
_TEXT	SEGMENT
tv84 = -80						; size = 4
tv76 = -76						; size = 4
_wp$ = -8						; size = 4
_landing_en$ = -4					; size = 4
_keysite$ = 8						; size = 4
_pos$ = 12						; size = 4
_landing_type$ = 16					; size = 4
?get_keysite_start_landing_position@@YGHPAUENTITY@@PAUVEC3D@@H@Z PROC ; get_keysite_start_landing_position, COMDAT

; 292  : {

  00000	55		 push	 ebp
  00001	8b ec		 mov	 ebp, esp
  00003	83 ec 50	 sub	 esp, 80			; 00000050H
  00006	53		 push	 ebx
  00007	56		 push	 esi
  00008	57		 push	 edi

; 293  : 
; 294  : 	entity
; 295  : 		*landing_en,
; 296  : 		*wp;
; 297  : 
; 298  : 	landing_en = get_local_entity_landing_entity (keysite, landing_type);

  00009	8b 45 10	 mov	 eax, DWORD PTR _landing_type$[ebp]
  0000c	50		 push	 eax
  0000d	8b 4d 08	 mov	 ecx, DWORD PTR _keysite$[ebp]
  00010	51		 push	 ecx
  00011	e8 00 00 00 00	 call	 ?get_local_entity_landing_entity@@YGPAUENTITY@@PAU1@H@Z ; get_local_entity_landing_entity
  00016	89 45 fc	 mov	 DWORD PTR _landing_en$[ebp], eax

; 299  : 
; 300  : 	wp = get_local_landing_entity_route (landing_en, ENTITY_SUB_TYPE_TASK_LANDING);

  00019	6a 0d		 push	 13			; 0000000dH
  0001b	8b 45 fc	 mov	 eax, DWORD PTR _landing_en$[ebp]
  0001e	50		 push	 eax
  0001f	e8 00 00 00 00	 call	 ?get_local_landing_entity_route@@YGPAUENTITY@@PAU1@H@Z ; get_local_landing_entity_route
  00024	89 45 f8	 mov	 DWORD PTR _wp$[ebp], eax

; 301  : 
; 302  : 	get_local_entity_vec3d (wp, VEC3D_TYPE_POSITION, pos);

  00027	83 7d f8 00	 cmp	 DWORD PTR _wp$[ebp], 0
  0002b	74 0a		 je	 SHORT $LN3@get_keysit
  0002d	8b 45 f8	 mov	 eax, DWORD PTR _wp$[ebp]
  00030	8b 08		 mov	 ecx, DWORD PTR [eax]
  00032	89 4d b4	 mov	 DWORD PTR tv76[ebp], ecx
  00035	eb 21		 jmp	 SHORT $LN4@get_keysit
$LN3@get_keysit:
  00037	8b 15 00 00 00
	00		 mov	 edx, DWORD PTR ?__LINE__Var@?0??get_keysite_start_landing_position@@YGHPAUENTITY@@PAUVEC3D@@H@Z@4JA
  0003d	83 c2 0a	 add	 edx, 10			; 0000000aH
  00040	52		 push	 edx
  00041	68 00 00 00 00	 push	 OFFSET ??_C@_0EN@PIOGLIPD@c?3?2users?2nhv90?2projects?2eech?2ap@
  00046	a1 00 00 00 00	 mov	 eax, DWORD PTR ?null_entity_pointer_message@@3PBDB ; null_entity_pointer_message
  0004b	50		 push	 eax
  0004c	e8 00 00 00 00	 call	 ?process_assert@@YGXPBD0H@Z ; process_assert
  00051	c7 45 b4 00 00
	00 00		 mov	 DWORD PTR tv76[ebp], 0
$LN4@get_keysit:
  00058	b9 01 00 00 00	 mov	 ecx, 1
  0005d	85 c9		 test	 ecx, ecx
  0005f	74 09		 je	 SHORT $LN5@get_keysit
  00061	c7 45 b0 08 00
	00 00		 mov	 DWORD PTR tv84[ebp], 8
  00068	eb 21		 jmp	 SHORT $LN6@get_keysit
$LN5@get_keysit:
  0006a	8b 15 00 00 00
	00		 mov	 edx, DWORD PTR ?__LINE__Var@?0??get_keysite_start_landing_position@@YGHPAUENTITY@@PAUVEC3D@@H@Z@4JA
  00070	83 c2 0a	 add	 edx, 10			; 0000000aH
  00073	52		 push	 edx
  00074	68 00 00 00 00	 push	 OFFSET ??_C@_0EN@PIOGLIPD@c?3?2users?2nhv90?2projects?2eech?2ap@
  00079	a1 00 00 00 00	 mov	 eax, DWORD PTR ?overload_invalid_vec3d_type_message@@3PBDB ; overload_invalid_vec3d_type_message
  0007e	50		 push	 eax
  0007f	e8 00 00 00 00	 call	 ?process_assert@@YGXPBD0H@Z ; process_assert
  00084	c7 45 b0 00 00
	00 00		 mov	 DWORD PTR tv84[ebp], 0
$LN6@get_keysit:
  0008b	8b 4d 0c	 mov	 ecx, DWORD PTR _pos$[ebp]
  0008e	51		 push	 ecx
  0008f	6a 08		 push	 8
  00091	8b 55 f8	 mov	 edx, DWORD PTR _wp$[ebp]
  00094	52		 push	 edx
  00095	6b 45 b4 60	 imul	 eax, DWORD PTR tv76[ebp], 96
  00099	8b 4d b0	 mov	 ecx, DWORD PTR tv84[ebp]
  0009c	8b 94 88 00 00
	00 00		 mov	 edx, DWORD PTR ?fn_get_local_entity_vec3d@@3PAY0BI@P6GXPAUENTITY@@W4VEC3D_TYPES@@PAUVEC3D@@@ZA[eax+ecx*4]
  000a3	ff d2		 call	 edx

; 303  : 
; 304  : 	return TRUE;

  000a5	b8 01 00 00 00	 mov	 eax, 1

; 305  : }

  000aa	5f		 pop	 edi
  000ab	5e		 pop	 esi
  000ac	5b		 pop	 ebx
  000ad	8b e5		 mov	 esp, ebp
  000af	5d		 pop	 ebp
  000b0	c2 0c 00	 ret	 12			; 0000000cH
?get_keysite_start_landing_position@@YGHPAUENTITY@@PAUVEC3D@@H@Z ENDP ; get_keysite_start_landing_position
_TEXT	ENDS
; Function compile flags: /Odtp /ZI
; File c:\users\nhv90\projects\eech\aphavoc\source\entity\special\keysite\keysite.c
;	COMDAT ?get_keysite_takenoff_position@@YGHPAUENTITY@@PAUVEC3D@@H@Z
_TEXT	SEGMENT
tv177 = -80						; size = 4
tv157 = -80						; size = 4
tv136 = -80						; size = 4
tv83 = -80						; size = 4
tv169 = -76						; size = 4
tv149 = -76						; size = 4
tv128 = -76						; size = 4
tv76 = -76						; size = 4
_wp$ = -8						; size = 4
_landing_en$ = -4					; size = 4
_keysite$ = 8						; size = 4
_pos$ = 12						; size = 4
_landing_type$ = 16					; size = 4
?get_keysite_takenoff_position@@YGHPAUENTITY@@PAUVEC3D@@H@Z PROC ; get_keysite_takenoff_position, COMDAT

; 252  : {

  00000	55		 push	 ebp
  00001	8b ec		 mov	 ebp, esp
  00003	83 ec 50	 sub	 esp, 80			; 00000050H
  00006	53		 push	 ebx
  00007	56		 push	 esi
  00008	57		 push	 edi

; 253  : 
; 254  : 	entity
; 255  : 		*landing_en,
; 256  : 		*wp;
; 257  : 
; 258  : 	landing_en = get_local_entity_landing_entity (keysite, landing_type);

  00009	8b 45 10	 mov	 eax, DWORD PTR _landing_type$[ebp]
  0000c	50		 push	 eax
  0000d	8b 4d 08	 mov	 ecx, DWORD PTR _keysite$[ebp]
  00010	51		 push	 ecx
  00011	e8 00 00 00 00	 call	 ?get_local_entity_landing_entity@@YGPAUENTITY@@PAU1@H@Z ; get_local_entity_landing_entity
  00016	89 45 fc	 mov	 DWORD PTR _landing_en$[ebp], eax

; 259  : 
; 260  : 	wp = get_local_landing_entity_route (landing_en, ENTITY_SUB_TYPE_TASK_TAKEOFF);

  00019	6a 16		 push	 22			; 00000016H
  0001b	8b 45 fc	 mov	 eax, DWORD PTR _landing_en$[ebp]
  0001e	50		 push	 eax
  0001f	e8 00 00 00 00	 call	 ?get_local_landing_entity_route@@YGPAUENTITY@@PAU1@H@Z ; get_local_landing_entity_route
  00024	89 45 f8	 mov	 DWORD PTR _wp$[ebp], eax
$LN2@get_keysit:

; 261  : 
; 262  : 	while (wp)

  00027	83 7d f8 00	 cmp	 DWORD PTR _wp$[ebp], 0
  0002b	0f 84 04 01 00
	00		 je	 $LN3@get_keysit

; 263  : 	{
; 264  : 
; 265  : 		if (get_local_entity_int_value (wp, INT_TYPE_ENTITY_SUB_TYPE) == ENTITY_SUB_TYPE_WAYPOINT_TAKEN_OFF)

  00031	83 7d f8 00	 cmp	 DWORD PTR _wp$[ebp], 0
  00035	74 0a		 je	 SHORT $LN7@get_keysit
  00037	8b 45 f8	 mov	 eax, DWORD PTR _wp$[ebp]
  0003a	8b 08		 mov	 ecx, DWORD PTR [eax]
  0003c	89 4d b4	 mov	 DWORD PTR tv76[ebp], ecx
  0003f	eb 1d		 jmp	 SHORT $LN8@get_keysit
$LN7@get_keysit:
  00041	68 09 01 00 00	 push	 265			; 00000109H
  00046	68 00 00 00 00	 push	 OFFSET ??_C@_0EN@PIOGLIPD@c?3?2users?2nhv90?2projects?2eech?2ap@
  0004b	8b 15 00 00 00
	00		 mov	 edx, DWORD PTR ?null_entity_pointer_message@@3PBDB ; null_entity_pointer_message
  00051	52		 push	 edx
  00052	e8 00 00 00 00	 call	 ?process_assert@@YGXPBD0H@Z ; process_assert
  00057	c7 45 b4 00 00
	00 00		 mov	 DWORD PTR tv76[ebp], 0
$LN8@get_keysit:
  0005e	b8 01 00 00 00	 mov	 eax, 1
  00063	85 c0		 test	 eax, eax
  00065	74 09		 je	 SHORT $LN9@get_keysit
  00067	c7 45 b0 34 00
	00 00		 mov	 DWORD PTR tv83[ebp], 52	; 00000034H
  0006e	eb 1d		 jmp	 SHORT $LN10@get_keysit
$LN9@get_keysit:
  00070	68 09 01 00 00	 push	 265			; 00000109H
  00075	68 00 00 00 00	 push	 OFFSET ??_C@_0EN@PIOGLIPD@c?3?2users?2nhv90?2projects?2eech?2ap@
  0007a	8b 0d 00 00 00
	00		 mov	 ecx, DWORD PTR ?overload_invalid_int_type_message@@3PBDB ; overload_invalid_int_type_message
  00080	51		 push	 ecx
  00081	e8 00 00 00 00	 call	 ?process_assert@@YGXPBD0H@Z ; process_assert
  00086	c7 45 b0 00 00
	00 00		 mov	 DWORD PTR tv83[ebp], 0
$LN10@get_keysit:
  0008d	6a 34		 push	 52			; 00000034H
  0008f	8b 55 f8	 mov	 edx, DWORD PTR _wp$[ebp]
  00092	52		 push	 edx
  00093	69 45 b4 5c 04
	00 00		 imul	 eax, DWORD PTR tv76[ebp], 1116
  0009a	8b 4d b0	 mov	 ecx, DWORD PTR tv83[ebp]
  0009d	8b 94 88 00 00
	00 00		 mov	 edx, DWORD PTR ?fn_get_local_entity_int_value@@3PAY0BBH@P6GHPAUENTITY@@W4INT_TYPES@@@ZA[eax+ecx*4]
  000a4	ff d2		 call	 edx
  000a6	83 f8 1a	 cmp	 eax, 26			; 0000001aH
  000a9	75 05		 jne	 SHORT $LN4@get_keysit

; 266  : 		{
; 267  : 
; 268  : 			break;

  000ab	e9 85 00 00 00	 jmp	 $LN3@get_keysit
$LN4@get_keysit:

; 269  : 		}
; 270  : 
; 271  : 		wp = get_local_entity_child_succ (wp, LIST_TYPE_WAYPOINT);

  000b0	83 7d f8 00	 cmp	 DWORD PTR _wp$[ebp], 0
  000b4	74 0a		 je	 SHORT $LN11@get_keysit
  000b6	8b 45 f8	 mov	 eax, DWORD PTR _wp$[ebp]
  000b9	8b 08		 mov	 ecx, DWORD PTR [eax]
  000bb	89 4d b4	 mov	 DWORD PTR tv128[ebp], ecx
  000be	eb 21		 jmp	 SHORT $LN12@get_keysit
$LN11@get_keysit:
  000c0	8b 15 00 00 00
	00		 mov	 edx, DWORD PTR ?__LINE__Var@?0??get_keysite_takenoff_position@@YGHPAUENTITY@@PAUVEC3D@@H@Z@4JA
  000c6	83 c2 13	 add	 edx, 19			; 00000013H
  000c9	52		 push	 edx
  000ca	68 00 00 00 00	 push	 OFFSET ??_C@_0EN@PIOGLIPD@c?3?2users?2nhv90?2projects?2eech?2ap@
  000cf	a1 00 00 00 00	 mov	 eax, DWORD PTR ?null_entity_pointer_message@@3PBDB ; null_entity_pointer_message
  000d4	50		 push	 eax
  000d5	e8 00 00 00 00	 call	 ?process_assert@@YGXPBD0H@Z ; process_assert
  000da	c7 45 b4 00 00
	00 00		 mov	 DWORD PTR tv128[ebp], 0
$LN12@get_keysit:
  000e1	b9 01 00 00 00	 mov	 ecx, 1
  000e6	85 c9		 test	 ecx, ecx
  000e8	74 09		 je	 SHORT $LN13@get_keysit
  000ea	c7 45 b0 2c 00
	00 00		 mov	 DWORD PTR tv136[ebp], 44 ; 0000002cH
  000f1	eb 21		 jmp	 SHORT $LN14@get_keysit
$LN13@get_keysit:
  000f3	8b 15 00 00 00
	00		 mov	 edx, DWORD PTR ?__LINE__Var@?0??get_keysite_takenoff_position@@YGHPAUENTITY@@PAUVEC3D@@H@Z@4JA
  000f9	83 c2 13	 add	 edx, 19			; 00000013H
  000fc	52		 push	 edx
  000fd	68 00 00 00 00	 push	 OFFSET ??_C@_0EN@PIOGLIPD@c?3?2users?2nhv90?2projects?2eech?2ap@
  00102	a1 00 00 00 00	 mov	 eax, DWORD PTR ?overload_invalid_list_type_message@@3PBDB ; overload_invalid_list_type_message
  00107	50		 push	 eax
  00108	e8 00 00 00 00	 call	 ?process_assert@@YGXPBD0H@Z ; process_assert
  0010d	c7 45 b0 00 00
	00 00		 mov	 DWORD PTR tv136[ebp], 0
$LN14@get_keysit:
  00114	6a 2c		 push	 44			; 0000002cH
  00116	8b 4d f8	 mov	 ecx, DWORD PTR _wp$[ebp]
  00119	51		 push	 ecx
  0011a	69 55 b4 b4 00
	00 00		 imul	 edx, DWORD PTR tv128[ebp], 180
  00121	8b 45 b0	 mov	 eax, DWORD PTR tv136[ebp]
  00124	8b 8c 82 00 00
	00 00		 mov	 ecx, DWORD PTR ?fn_get_local_entity_child_succ@@3PAY0CN@P6GPAUENTITY@@PAU1@W4LIST_TYPES@@@ZA[edx+eax*4]
  0012b	ff d1		 call	 ecx
  0012d	89 45 f8	 mov	 DWORD PTR _wp$[ebp], eax

; 272  : 	}

  00130	e9 f2 fe ff ff	 jmp	 $LN2@get_keysit
$LN3@get_keysit:

; 273  : 
; 274  : 	if (wp)

  00135	83 7d f8 00	 cmp	 DWORD PTR _wp$[ebp], 0
  00139	0f 84 88 00 00
	00		 je	 $LN5@get_keysit

; 275  : 	{
; 276  : 
; 277  : 		get_local_entity_vec3d (wp, VEC3D_TYPE_POSITION, pos);

  0013f	83 7d f8 00	 cmp	 DWORD PTR _wp$[ebp], 0
  00143	74 0a		 je	 SHORT $LN15@get_keysit
  00145	8b 45 f8	 mov	 eax, DWORD PTR _wp$[ebp]
  00148	8b 08		 mov	 ecx, DWORD PTR [eax]
  0014a	89 4d b4	 mov	 DWORD PTR tv149[ebp], ecx
  0014d	eb 21		 jmp	 SHORT $LN16@get_keysit
$LN15@get_keysit:
  0014f	8b 15 00 00 00
	00		 mov	 edx, DWORD PTR ?__LINE__Var@?0??get_keysite_takenoff_position@@YGHPAUENTITY@@PAUVEC3D@@H@Z@4JA
  00155	83 c2 19	 add	 edx, 25			; 00000019H
  00158	52		 push	 edx
  00159	68 00 00 00 00	 push	 OFFSET ??_C@_0EN@PIOGLIPD@c?3?2users?2nhv90?2projects?2eech?2ap@
  0015e	a1 00 00 00 00	 mov	 eax, DWORD PTR ?null_entity_pointer_message@@3PBDB ; null_entity_pointer_message
  00163	50		 push	 eax
  00164	e8 00 00 00 00	 call	 ?process_assert@@YGXPBD0H@Z ; process_assert
  00169	c7 45 b4 00 00
	00 00		 mov	 DWORD PTR tv149[ebp], 0
$LN16@get_keysit:
  00170	b9 01 00 00 00	 mov	 ecx, 1
  00175	85 c9		 test	 ecx, ecx
  00177	74 09		 je	 SHORT $LN17@get_keysit
  00179	c7 45 b0 08 00
	00 00		 mov	 DWORD PTR tv157[ebp], 8
  00180	eb 21		 jmp	 SHORT $LN18@get_keysit
$LN17@get_keysit:
  00182	8b 15 00 00 00
	00		 mov	 edx, DWORD PTR ?__LINE__Var@?0??get_keysite_takenoff_position@@YGHPAUENTITY@@PAUVEC3D@@H@Z@4JA
  00188	83 c2 19	 add	 edx, 25			; 00000019H
  0018b	52		 push	 edx
  0018c	68 00 00 00 00	 push	 OFFSET ??_C@_0EN@PIOGLIPD@c?3?2users?2nhv90?2projects?2eech?2ap@
  00191	a1 00 00 00 00	 mov	 eax, DWORD PTR ?overload_invalid_vec3d_type_message@@3PBDB ; overload_invalid_vec3d_type_message
  00196	50		 push	 eax
  00197	e8 00 00 00 00	 call	 ?process_assert@@YGXPBD0H@Z ; process_assert
  0019c	c7 45 b0 00 00
	00 00		 mov	 DWORD PTR tv157[ebp], 0
$LN18@get_keysit:
  001a3	8b 4d 0c	 mov	 ecx, DWORD PTR _pos$[ebp]
  001a6	51		 push	 ecx
  001a7	6a 08		 push	 8
  001a9	8b 55 f8	 mov	 edx, DWORD PTR _wp$[ebp]
  001ac	52		 push	 edx
  001ad	6b 45 b4 60	 imul	 eax, DWORD PTR tv149[ebp], 96
  001b1	8b 4d b0	 mov	 ecx, DWORD PTR tv157[ebp]
  001b4	8b 94 88 00 00
	00 00		 mov	 edx, DWORD PTR ?fn_get_local_entity_vec3d@@3PAY0BI@P6GXPAUENTITY@@W4VEC3D_TYPES@@PAUVEC3D@@@ZA[eax+ecx*4]
  001bb	ff d2		 call	 edx

; 278  : 
; 279  : 		return TRUE;

  001bd	b8 01 00 00 00	 mov	 eax, 1
  001c2	e9 80 00 00 00	 jmp	 $LN1@get_keysit
$LN5@get_keysit:

; 280  : 	}
; 281  : 
; 282  : 	get_local_entity_vec3d (keysite, VEC3D_TYPE_POSITION, pos);

  001c7	83 7d 08 00	 cmp	 DWORD PTR _keysite$[ebp], 0
  001cb	74 0a		 je	 SHORT $LN19@get_keysit
  001cd	8b 45 08	 mov	 eax, DWORD PTR _keysite$[ebp]
  001d0	8b 08		 mov	 ecx, DWORD PTR [eax]
  001d2	89 4d b4	 mov	 DWORD PTR tv169[ebp], ecx
  001d5	eb 21		 jmp	 SHORT $LN20@get_keysit
$LN19@get_keysit:
  001d7	8b 15 00 00 00
	00		 mov	 edx, DWORD PTR ?__LINE__Var@?0??get_keysite_takenoff_position@@YGHPAUENTITY@@PAUVEC3D@@H@Z@4JA
  001dd	83 c2 1e	 add	 edx, 30			; 0000001eH
  001e0	52		 push	 edx
  001e1	68 00 00 00 00	 push	 OFFSET ??_C@_0EN@PIOGLIPD@c?3?2users?2nhv90?2projects?2eech?2ap@
  001e6	a1 00 00 00 00	 mov	 eax, DWORD PTR ?null_entity_pointer_message@@3PBDB ; null_entity_pointer_message
  001eb	50		 push	 eax
  001ec	e8 00 00 00 00	 call	 ?process_assert@@YGXPBD0H@Z ; process_assert
  001f1	c7 45 b4 00 00
	00 00		 mov	 DWORD PTR tv169[ebp], 0
$LN20@get_keysit:
  001f8	b9 01 00 00 00	 mov	 ecx, 1
  001fd	85 c9		 test	 ecx, ecx
  001ff	74 09		 je	 SHORT $LN21@get_keysit
  00201	c7 45 b0 08 00
	00 00		 mov	 DWORD PTR tv177[ebp], 8
  00208	eb 21		 jmp	 SHORT $LN22@get_keysit
$LN21@get_keysit:
  0020a	8b 15 00 00 00
	00		 mov	 edx, DWORD PTR ?__LINE__Var@?0??get_keysite_takenoff_position@@YGHPAUENTITY@@PAUVEC3D@@H@Z@4JA
  00210	83 c2 1e	 add	 edx, 30			; 0000001eH
  00213	52		 push	 edx
  00214	68 00 00 00 00	 push	 OFFSET ??_C@_0EN@PIOGLIPD@c?3?2users?2nhv90?2projects?2eech?2ap@
  00219	a1 00 00 00 00	 mov	 eax, DWORD PTR ?overload_invalid_vec3d_type_message@@3PBDB ; overload_invalid_vec3d_type_message
  0021e	50		 push	 eax
  0021f	e8 00 00 00 00	 call	 ?process_assert@@YGXPBD0H@Z ; process_assert
  00224	c7 45 b0 00 00
	00 00		 mov	 DWORD PTR tv177[ebp], 0
$LN22@get_keysit:
  0022b	8b 4d 0c	 mov	 ecx, DWORD PTR _pos$[ebp]
  0022e	51		 push	 ecx
  0022f	6a 08		 push	 8
  00231	8b 55 08	 mov	 edx, DWORD PTR _keysite$[ebp]
  00234	52		 push	 edx
  00235	6b 45 b4 60	 imul	 eax, DWORD PTR tv169[ebp], 96
  00239	8b 4d b0	 mov	 ecx, DWORD PTR tv177[ebp]
  0023c	8b 94 88 00 00
	00 00		 mov	 edx, DWORD PTR ?fn_get_local_entity_vec3d@@3PAY0BI@P6GXPAUENTITY@@W4VEC3D_TYPES@@PAUVEC3D@@@ZA[eax+ecx*4]
  00243	ff d2		 call	 edx

; 283  : 
; 284  : 	return FALSE;

  00245	33 c0		 xor	 eax, eax
$LN1@get_keysit:

; 285  : }

  00247	5f		 pop	 edi
  00248	5e		 pop	 esi
  00249	5b		 pop	 ebx
  0024a	8b e5		 mov	 esp, ebp
  0024c	5d		 pop	 ebp
  0024d	c2 0c 00	 ret	 12			; 0000000cH
?get_keysite_takenoff_position@@YGHPAUENTITY@@PAUVEC3D@@H@Z ENDP ; get_keysite_takenoff_position
_TEXT	ENDS
; Function compile flags: /Odtp /ZI
; File c:\users\nhv90\projects\eech\aphavoc\source\entity\special\keysite\keysite.c
;	COMDAT ?get_keysite_troop_in_building_position@@YGXPAUENTITY@@PAUVEC3D@@@Z
_TEXT	SEGMENT
tv78 = -72						; size = 4
tv70 = -68						; size = 4
_keysite$ = 8						; size = 4
_pos$ = 12						; size = 4
?get_keysite_troop_in_building_position@@YGXPAUENTITY@@PAUVEC3D@@@Z PROC ; get_keysite_troop_in_building_position, COMDAT

; 228  : {

  00000	55		 push	 ebp
  00001	8b ec		 mov	 ebp, esp
  00003	83 ec 48	 sub	 esp, 72			; 00000048H
  00006	53		 push	 ebx
  00007	56		 push	 esi
  00008	57		 push	 edi

; 229  : 
; 230  : 	get_local_entity_vec3d (keysite, VEC3D_TYPE_POSITION, pos);

  00009	83 7d 08 00	 cmp	 DWORD PTR _keysite$[ebp], 0
  0000d	74 0a		 je	 SHORT $LN3@get_keysit
  0000f	8b 45 08	 mov	 eax, DWORD PTR _keysite$[ebp]
  00012	8b 08		 mov	 ecx, DWORD PTR [eax]
  00014	89 4d bc	 mov	 DWORD PTR tv70[ebp], ecx
  00017	eb 21		 jmp	 SHORT $LN4@get_keysit
$LN3@get_keysit:
  00019	8b 15 00 00 00
	00		 mov	 edx, DWORD PTR ?__LINE__Var@?0??get_keysite_troop_in_building_position@@YGXPAUENTITY@@PAUVEC3D@@@Z@4JA
  0001f	83 c2 02	 add	 edx, 2
  00022	52		 push	 edx
  00023	68 00 00 00 00	 push	 OFFSET ??_C@_0EN@PIOGLIPD@c?3?2users?2nhv90?2projects?2eech?2ap@
  00028	a1 00 00 00 00	 mov	 eax, DWORD PTR ?null_entity_pointer_message@@3PBDB ; null_entity_pointer_message
  0002d	50		 push	 eax
  0002e	e8 00 00 00 00	 call	 ?process_assert@@YGXPBD0H@Z ; process_assert
  00033	c7 45 bc 00 00
	00 00		 mov	 DWORD PTR tv70[ebp], 0
$LN4@get_keysit:
  0003a	b9 01 00 00 00	 mov	 ecx, 1
  0003f	85 c9		 test	 ecx, ecx
  00041	74 09		 je	 SHORT $LN5@get_keysit
  00043	c7 45 b8 08 00
	00 00		 mov	 DWORD PTR tv78[ebp], 8
  0004a	eb 21		 jmp	 SHORT $LN6@get_keysit
$LN5@get_keysit:
  0004c	8b 15 00 00 00
	00		 mov	 edx, DWORD PTR ?__LINE__Var@?0??get_keysite_troop_in_building_position@@YGXPAUENTITY@@PAUVEC3D@@@Z@4JA
  00052	83 c2 02	 add	 edx, 2
  00055	52		 push	 edx
  00056	68 00 00 00 00	 push	 OFFSET ??_C@_0EN@PIOGLIPD@c?3?2users?2nhv90?2projects?2eech?2ap@
  0005b	a1 00 00 00 00	 mov	 eax, DWORD PTR ?overload_invalid_vec3d_type_message@@3PBDB ; overload_invalid_vec3d_type_message
  00060	50		 push	 eax
  00061	e8 00 00 00 00	 call	 ?process_assert@@YGXPBD0H@Z ; process_assert
  00066	c7 45 b8 00 00
	00 00		 mov	 DWORD PTR tv78[ebp], 0
$LN6@get_keysit:
  0006d	8b 4d 0c	 mov	 ecx, DWORD PTR _pos$[ebp]
  00070	51		 push	 ecx
  00071	6a 08		 push	 8
  00073	8b 55 08	 mov	 edx, DWORD PTR _keysite$[ebp]
  00076	52		 push	 edx
  00077	6b 45 bc 60	 imul	 eax, DWORD PTR tv70[ebp], 96
  0007b	8b 4d b8	 mov	 ecx, DWORD PTR tv78[ebp]
  0007e	8b 94 88 00 00
	00 00		 mov	 edx, DWORD PTR ?fn_get_local_entity_vec3d@@3PAY0BI@P6GXPAUENTITY@@W4VEC3D_TYPES@@PAUVEC3D@@@ZA[eax+ecx*4]
  00085	ff d2		 call	 edx

; 231  : 
; 232  : 	pos->x += 100.0;

  00087	8b 45 0c	 mov	 eax, DWORD PTR _pos$[ebp]
  0008a	f3 0f 5a 00	 cvtss2sd xmm0, DWORD PTR [eax]
  0008e	f2 0f 58 05 00
	00 00 00	 addsd	 xmm0, QWORD PTR __real@4059000000000000
  00096	f2 0f 5a c0	 cvtsd2ss xmm0, xmm0
  0009a	8b 4d 0c	 mov	 ecx, DWORD PTR _pos$[ebp]
  0009d	f3 0f 11 01	 movss	 DWORD PTR [ecx], xmm0

; 233  : }

  000a1	5f		 pop	 edi
  000a2	5e		 pop	 esi
  000a3	5b		 pop	 ebx
  000a4	8b e5		 mov	 esp, ebp
  000a6	5d		 pop	 ebp
  000a7	c2 08 00	 ret	 8
?get_keysite_troop_in_building_position@@YGXPAUENTITY@@PAUVEC3D@@@Z ENDP ; get_keysite_troop_in_building_position
_TEXT	ENDS
; Function compile flags: /Odtp /ZI
; File c:\users\nhv90\projects\eech\aphavoc\source\entity\special\keysite\keysite.c
;	COMDAT ?get_keysite_troop_outside_building_position@@YGXPAUENTITY@@PAUVEC3D@@H@Z
_TEXT	SEGMENT
tv78 = -72						; size = 4
tv70 = -68						; size = 4
_keysite$ = 8						; size = 4
_pos$ = 12						; size = 4
_count$ = 16						; size = 4
?get_keysite_troop_outside_building_position@@YGXPAUENTITY@@PAUVEC3D@@H@Z PROC ; get_keysite_troop_outside_building_position, COMDAT

; 240  : {

  00000	55		 push	 ebp
  00001	8b ec		 mov	 ebp, esp
  00003	83 ec 48	 sub	 esp, 72			; 00000048H
  00006	53		 push	 ebx
  00007	56		 push	 esi
  00008	57		 push	 edi

; 241  : 
; 242  : 	get_local_entity_vec3d (keysite, VEC3D_TYPE_POSITION, pos);

  00009	83 7d 08 00	 cmp	 DWORD PTR _keysite$[ebp], 0
  0000d	74 0a		 je	 SHORT $LN3@get_keysit
  0000f	8b 45 08	 mov	 eax, DWORD PTR _keysite$[ebp]
  00012	8b 08		 mov	 ecx, DWORD PTR [eax]
  00014	89 4d bc	 mov	 DWORD PTR tv70[ebp], ecx
  00017	eb 21		 jmp	 SHORT $LN4@get_keysit
$LN3@get_keysit:
  00019	8b 15 00 00 00
	00		 mov	 edx, DWORD PTR ?__LINE__Var@?0??get_keysite_troop_outside_building_position@@YGXPAUENTITY@@PAUVEC3D@@H@Z@4JA
  0001f	83 c2 02	 add	 edx, 2
  00022	52		 push	 edx
  00023	68 00 00 00 00	 push	 OFFSET ??_C@_0EN@PIOGLIPD@c?3?2users?2nhv90?2projects?2eech?2ap@
  00028	a1 00 00 00 00	 mov	 eax, DWORD PTR ?null_entity_pointer_message@@3PBDB ; null_entity_pointer_message
  0002d	50		 push	 eax
  0002e	e8 00 00 00 00	 call	 ?process_assert@@YGXPBD0H@Z ; process_assert
  00033	c7 45 bc 00 00
	00 00		 mov	 DWORD PTR tv70[ebp], 0
$LN4@get_keysit:
  0003a	b9 01 00 00 00	 mov	 ecx, 1
  0003f	85 c9		 test	 ecx, ecx
  00041	74 09		 je	 SHORT $LN5@get_keysit
  00043	c7 45 b8 08 00
	00 00		 mov	 DWORD PTR tv78[ebp], 8
  0004a	eb 21		 jmp	 SHORT $LN6@get_keysit
$LN5@get_keysit:
  0004c	8b 15 00 00 00
	00		 mov	 edx, DWORD PTR ?__LINE__Var@?0??get_keysite_troop_outside_building_position@@YGXPAUENTITY@@PAUVEC3D@@H@Z@4JA
  00052	83 c2 02	 add	 edx, 2
  00055	52		 push	 edx
  00056	68 00 00 00 00	 push	 OFFSET ??_C@_0EN@PIOGLIPD@c?3?2users?2nhv90?2projects?2eech?2ap@
  0005b	a1 00 00 00 00	 mov	 eax, DWORD PTR ?overload_invalid_vec3d_type_message@@3PBDB ; overload_invalid_vec3d_type_message
  00060	50		 push	 eax
  00061	e8 00 00 00 00	 call	 ?process_assert@@YGXPBD0H@Z ; process_assert
  00066	c7 45 b8 00 00
	00 00		 mov	 DWORD PTR tv78[ebp], 0
$LN6@get_keysit:
  0006d	8b 4d 0c	 mov	 ecx, DWORD PTR _pos$[ebp]
  00070	51		 push	 ecx
  00071	6a 08		 push	 8
  00073	8b 55 08	 mov	 edx, DWORD PTR _keysite$[ebp]
  00076	52		 push	 edx
  00077	6b 45 bc 60	 imul	 eax, DWORD PTR tv70[ebp], 96
  0007b	8b 4d b8	 mov	 ecx, DWORD PTR tv78[ebp]
  0007e	8b 94 88 00 00
	00 00		 mov	 edx, DWORD PTR ?fn_get_local_entity_vec3d@@3PAY0BI@P6GXPAUENTITY@@W4VEC3D_TYPES@@PAUVEC3D@@@ZA[eax+ecx*4]
  00085	ff d2		 call	 edx

; 243  : 
; 244  : 	pos->x += (count * 50.0);

  00087	f2 0f 2a 45 10	 cvtsi2sd xmm0, DWORD PTR _count$[ebp]
  0008c	f2 0f 59 05 00
	00 00 00	 mulsd	 xmm0, QWORD PTR __real@4049000000000000
  00094	8b 45 0c	 mov	 eax, DWORD PTR _pos$[ebp]
  00097	f3 0f 5a 08	 cvtss2sd xmm1, DWORD PTR [eax]
  0009b	f2 0f 58 c8	 addsd	 xmm1, xmm0
  0009f	f2 0f 5a c1	 cvtsd2ss xmm0, xmm1
  000a3	8b 4d 0c	 mov	 ecx, DWORD PTR _pos$[ebp]
  000a6	f3 0f 11 01	 movss	 DWORD PTR [ecx], xmm0

; 245  : }

  000aa	5f		 pop	 edi
  000ab	5e		 pop	 esi
  000ac	5b		 pop	 ebx
  000ad	8b e5		 mov	 esp, ebp
  000af	5d		 pop	 ebp
  000b0	c2 0c 00	 ret	 12			; 0000000cH
?get_keysite_troop_outside_building_position@@YGXPAUENTITY@@PAUVEC3D@@H@Z ENDP ; get_keysite_troop_outside_building_position
_TEXT	ENDS
; Function compile flags: /Odtp /ZI
; File c:\users\nhv90\projects\eech\aphavoc\source\entity\special\keysite\keysite.c
;	COMDAT ?get_keysite_troop_dropoff_position@@YGHPAUENTITY@@PAUVEC3D@@PAM@Z
_TEXT	SEGMENT
tv131 = -84						; size = 4
tv78 = -84						; size = 4
tv92 = -80						; size = 4
tv70 = -80						; size = 4
_keysite_pos$ = -12					; size = 12
_keysite$ = 8						; size = 4
_pos$ = 12						; size = 4
_heading$ = 16						; size = 4
?get_keysite_troop_dropoff_position@@YGHPAUENTITY@@PAUVEC3D@@PAM@Z PROC ; get_keysite_troop_dropoff_position, COMDAT

; 205  : {

  00000	55		 push	 ebp
  00001	8b ec		 mov	 ebp, esp
  00003	83 ec 54	 sub	 esp, 84			; 00000054H
  00006	53		 push	 ebx
  00007	56		 push	 esi
  00008	57		 push	 edi

; 206  : 
; 207  : 	vec3d
; 208  : 		keysite_pos;
; 209  : 
; 210  : 	get_local_entity_vec3d (keysite, VEC3D_TYPE_POSITION, pos);

  00009	83 7d 08 00	 cmp	 DWORD PTR _keysite$[ebp], 0
  0000d	74 0a		 je	 SHORT $LN4@get_keysit
  0000f	8b 45 08	 mov	 eax, DWORD PTR _keysite$[ebp]
  00012	8b 08		 mov	 ecx, DWORD PTR [eax]
  00014	89 4d b0	 mov	 DWORD PTR tv70[ebp], ecx
  00017	eb 21		 jmp	 SHORT $LN5@get_keysit
$LN4@get_keysit:
  00019	8b 15 00 00 00
	00		 mov	 edx, DWORD PTR ?__LINE__Var@?0??get_keysite_troop_dropoff_position@@YGHPAUENTITY@@PAUVEC3D@@PAM@Z@4JA
  0001f	83 c2 05	 add	 edx, 5
  00022	52		 push	 edx
  00023	68 00 00 00 00	 push	 OFFSET ??_C@_0EN@PIOGLIPD@c?3?2users?2nhv90?2projects?2eech?2ap@
  00028	a1 00 00 00 00	 mov	 eax, DWORD PTR ?null_entity_pointer_message@@3PBDB ; null_entity_pointer_message
  0002d	50		 push	 eax
  0002e	e8 00 00 00 00	 call	 ?process_assert@@YGXPBD0H@Z ; process_assert
  00033	c7 45 b0 00 00
	00 00		 mov	 DWORD PTR tv70[ebp], 0
$LN5@get_keysit:
  0003a	b9 01 00 00 00	 mov	 ecx, 1
  0003f	85 c9		 test	 ecx, ecx
  00041	74 09		 je	 SHORT $LN6@get_keysit
  00043	c7 45 ac 08 00
	00 00		 mov	 DWORD PTR tv78[ebp], 8
  0004a	eb 21		 jmp	 SHORT $LN7@get_keysit
$LN6@get_keysit:
  0004c	8b 15 00 00 00
	00		 mov	 edx, DWORD PTR ?__LINE__Var@?0??get_keysite_troop_dropoff_position@@YGHPAUENTITY@@PAUVEC3D@@PAM@Z@4JA
  00052	83 c2 05	 add	 edx, 5
  00055	52		 push	 edx
  00056	68 00 00 00 00	 push	 OFFSET ??_C@_0EN@PIOGLIPD@c?3?2users?2nhv90?2projects?2eech?2ap@
  0005b	a1 00 00 00 00	 mov	 eax, DWORD PTR ?overload_invalid_vec3d_type_message@@3PBDB ; overload_invalid_vec3d_type_message
  00060	50		 push	 eax
  00061	e8 00 00 00 00	 call	 ?process_assert@@YGXPBD0H@Z ; process_assert
  00066	c7 45 ac 00 00
	00 00		 mov	 DWORD PTR tv78[ebp], 0
$LN7@get_keysit:
  0006d	8b 4d 0c	 mov	 ecx, DWORD PTR _pos$[ebp]
  00070	51		 push	 ecx
  00071	6a 08		 push	 8
  00073	8b 55 08	 mov	 edx, DWORD PTR _keysite$[ebp]
  00076	52		 push	 edx
  00077	6b 45 b0 60	 imul	 eax, DWORD PTR tv70[ebp], 96
  0007b	8b 4d ac	 mov	 ecx, DWORD PTR tv78[ebp]
  0007e	8b 94 88 00 00
	00 00		 mov	 edx, DWORD PTR ?fn_get_local_entity_vec3d@@3PAY0BI@P6GXPAUENTITY@@W4VEC3D_TYPES@@PAUVEC3D@@@ZA[eax+ecx*4]
  00085	ff d2		 call	 edx

; 211  : 
; 212  : 	if (get_object_3d_troop_landing_position_and_heading (get_local_entity_int_value (keysite, INT_TYPE_OBJECT_INDEX), &keysite_pos, heading))

  00087	83 7d 08 00	 cmp	 DWORD PTR _keysite$[ebp], 0
  0008b	74 0a		 je	 SHORT $LN8@get_keysit
  0008d	8b 45 08	 mov	 eax, DWORD PTR _keysite$[ebp]
  00090	8b 08		 mov	 ecx, DWORD PTR [eax]
  00092	89 4d b0	 mov	 DWORD PTR tv92[ebp], ecx
  00095	eb 1d		 jmp	 SHORT $LN9@get_keysit
$LN8@get_keysit:
  00097	68 d4 00 00 00	 push	 212			; 000000d4H
  0009c	68 00 00 00 00	 push	 OFFSET ??_C@_0EN@PIOGLIPD@c?3?2users?2nhv90?2projects?2eech?2ap@
  000a1	8b 15 00 00 00
	00		 mov	 edx, DWORD PTR ?null_entity_pointer_message@@3PBDB ; null_entity_pointer_message
  000a7	52		 push	 edx
  000a8	e8 00 00 00 00	 call	 ?process_assert@@YGXPBD0H@Z ; process_assert
  000ad	c7 45 b0 00 00
	00 00		 mov	 DWORD PTR tv92[ebp], 0
$LN9@get_keysit:
  000b4	b8 01 00 00 00	 mov	 eax, 1
  000b9	85 c0		 test	 eax, eax
  000bb	74 09		 je	 SHORT $LN10@get_keysit
  000bd	c7 45 ac 94 00
	00 00		 mov	 DWORD PTR tv131[ebp], 148 ; 00000094H
  000c4	eb 1d		 jmp	 SHORT $LN11@get_keysit
$LN10@get_keysit:
  000c6	68 d4 00 00 00	 push	 212			; 000000d4H
  000cb	68 00 00 00 00	 push	 OFFSET ??_C@_0EN@PIOGLIPD@c?3?2users?2nhv90?2projects?2eech?2ap@
  000d0	8b 0d 00 00 00
	00		 mov	 ecx, DWORD PTR ?overload_invalid_int_type_message@@3PBDB ; overload_invalid_int_type_message
  000d6	51		 push	 ecx
  000d7	e8 00 00 00 00	 call	 ?process_assert@@YGXPBD0H@Z ; process_assert
  000dc	c7 45 ac 00 00
	00 00		 mov	 DWORD PTR tv131[ebp], 0
$LN11@get_keysit:
  000e3	8b 55 10	 mov	 edx, DWORD PTR _heading$[ebp]
  000e6	52		 push	 edx
  000e7	8d 45 f4	 lea	 eax, DWORD PTR _keysite_pos$[ebp]
  000ea	50		 push	 eax
  000eb	68 94 00 00 00	 push	 148			; 00000094H
  000f0	8b 4d 08	 mov	 ecx, DWORD PTR _keysite$[ebp]
  000f3	51		 push	 ecx
  000f4	69 55 b0 5c 04
	00 00		 imul	 edx, DWORD PTR tv92[ebp], 1116
  000fb	8b 45 ac	 mov	 eax, DWORD PTR tv131[ebp]
  000fe	8b 8c 82 00 00
	00 00		 mov	 ecx, DWORD PTR ?fn_get_local_entity_int_value@@3PAY0BBH@P6GHPAUENTITY@@W4INT_TYPES@@@ZA[edx+eax*4]
  00105	ff d1		 call	 ecx
  00107	50		 push	 eax
  00108	e8 00 00 00 00	 call	 ?get_object_3d_troop_landing_position_and_heading@@YGHHPAUVEC3D@@PAM@Z ; get_object_3d_troop_landing_position_and_heading
  0010d	85 c0		 test	 eax, eax
  0010f	74 3d		 je	 SHORT $LN2@get_keysit

; 213  : 	{
; 214  : 
; 215  : 		pos->x += keysite_pos.x;

  00111	8b 45 0c	 mov	 eax, DWORD PTR _pos$[ebp]
  00114	f3 0f 10 00	 movss	 xmm0, DWORD PTR [eax]
  00118	f3 0f 58 45 f4	 addss	 xmm0, DWORD PTR _keysite_pos$[ebp]
  0011d	8b 4d 0c	 mov	 ecx, DWORD PTR _pos$[ebp]
  00120	f3 0f 11 01	 movss	 DWORD PTR [ecx], xmm0

; 216  : 		pos->y += keysite_pos.y;

  00124	8b 45 0c	 mov	 eax, DWORD PTR _pos$[ebp]
  00127	f3 0f 10 40 04	 movss	 xmm0, DWORD PTR [eax+4]
  0012c	f3 0f 58 45 f8	 addss	 xmm0, DWORD PTR _keysite_pos$[ebp+4]
  00131	8b 4d 0c	 mov	 ecx, DWORD PTR _pos$[ebp]
  00134	f3 0f 11 41 04	 movss	 DWORD PTR [ecx+4], xmm0

; 217  : 		pos->z += keysite_pos.z;

  00139	8b 45 0c	 mov	 eax, DWORD PTR _pos$[ebp]
  0013c	f3 0f 10 40 08	 movss	 xmm0, DWORD PTR [eax+8]
  00141	f3 0f 58 45 fc	 addss	 xmm0, DWORD PTR _keysite_pos$[ebp+8]
  00146	8b 4d 0c	 mov	 ecx, DWORD PTR _pos$[ebp]
  00149	f3 0f 11 41 08	 movss	 DWORD PTR [ecx+8], xmm0
$LN2@get_keysit:

; 218  : 	}
; 219  : 
; 220  : 	return TRUE;

  0014e	b8 01 00 00 00	 mov	 eax, 1

; 221  : }

  00153	5f		 pop	 edi
  00154	5e		 pop	 esi
  00155	5b		 pop	 ebx
  00156	8b e5		 mov	 esp, ebp
  00158	5d		 pop	 ebp
  00159	c2 0c 00	 ret	 12			; 0000000cH
?get_keysite_troop_dropoff_position@@YGHPAUENTITY@@PAUVEC3D@@PAM@Z ENDP ; get_keysite_troop_dropoff_position
_TEXT	ENDS
; Function compile flags: /Odtp /ZI
; File c:\users\nhv90\projects\eech\aphavoc\source\entity\special\keysite\keysite.c
;	COMDAT ?get_keysite_troop_pickup_position@@YGXPAUENTITY@@PAUVEC3D@@@Z
_TEXT	SEGMENT
tv78 = -72						; size = 4
tv70 = -68						; size = 4
_keysite$ = 8						; size = 4
_pos$ = 12						; size = 4
?get_keysite_troop_pickup_position@@YGXPAUENTITY@@PAUVEC3D@@@Z PROC ; get_keysite_troop_pickup_position, COMDAT

; 195  : {

  00000	55		 push	 ebp
  00001	8b ec		 mov	 ebp, esp
  00003	83 ec 48	 sub	 esp, 72			; 00000048H
  00006	53		 push	 ebx
  00007	56		 push	 esi
  00008	57		 push	 edi

; 196  : 
; 197  : 	get_local_entity_vec3d (keysite, VEC3D_TYPE_POSITION, pos);

  00009	83 7d 08 00	 cmp	 DWORD PTR _keysite$[ebp], 0
  0000d	74 0a		 je	 SHORT $LN3@get_keysit
  0000f	8b 45 08	 mov	 eax, DWORD PTR _keysite$[ebp]
  00012	8b 08		 mov	 ecx, DWORD PTR [eax]
  00014	89 4d bc	 mov	 DWORD PTR tv70[ebp], ecx
  00017	eb 21		 jmp	 SHORT $LN4@get_keysit
$LN3@get_keysit:
  00019	8b 15 00 00 00
	00		 mov	 edx, DWORD PTR ?__LINE__Var@?0??get_keysite_troop_pickup_position@@YGXPAUENTITY@@PAUVEC3D@@@Z@4JA
  0001f	83 c2 02	 add	 edx, 2
  00022	52		 push	 edx
  00023	68 00 00 00 00	 push	 OFFSET ??_C@_0EN@PIOGLIPD@c?3?2users?2nhv90?2projects?2eech?2ap@
  00028	a1 00 00 00 00	 mov	 eax, DWORD PTR ?null_entity_pointer_message@@3PBDB ; null_entity_pointer_message
  0002d	50		 push	 eax
  0002e	e8 00 00 00 00	 call	 ?process_assert@@YGXPBD0H@Z ; process_assert
  00033	c7 45 bc 00 00
	00 00		 mov	 DWORD PTR tv70[ebp], 0
$LN4@get_keysit:
  0003a	b9 01 00 00 00	 mov	 ecx, 1
  0003f	85 c9		 test	 ecx, ecx
  00041	74 09		 je	 SHORT $LN5@get_keysit
  00043	c7 45 b8 08 00
	00 00		 mov	 DWORD PTR tv78[ebp], 8
  0004a	eb 21		 jmp	 SHORT $LN6@get_keysit
$LN5@get_keysit:
  0004c	8b 15 00 00 00
	00		 mov	 edx, DWORD PTR ?__LINE__Var@?0??get_keysite_troop_pickup_position@@YGXPAUENTITY@@PAUVEC3D@@@Z@4JA
  00052	83 c2 02	 add	 edx, 2
  00055	52		 push	 edx
  00056	68 00 00 00 00	 push	 OFFSET ??_C@_0EN@PIOGLIPD@c?3?2users?2nhv90?2projects?2eech?2ap@
  0005b	a1 00 00 00 00	 mov	 eax, DWORD PTR ?overload_invalid_vec3d_type_message@@3PBDB ; overload_invalid_vec3d_type_message
  00060	50		 push	 eax
  00061	e8 00 00 00 00	 call	 ?process_assert@@YGXPBD0H@Z ; process_assert
  00066	c7 45 b8 00 00
	00 00		 mov	 DWORD PTR tv78[ebp], 0
$LN6@get_keysit:
  0006d	8b 4d 0c	 mov	 ecx, DWORD PTR _pos$[ebp]
  00070	51		 push	 ecx
  00071	6a 08		 push	 8
  00073	8b 55 08	 mov	 edx, DWORD PTR _keysite$[ebp]
  00076	52		 push	 edx
  00077	6b 45 bc 60	 imul	 eax, DWORD PTR tv70[ebp], 96
  0007b	8b 4d b8	 mov	 ecx, DWORD PTR tv78[ebp]
  0007e	8b 94 88 00 00
	00 00		 mov	 edx, DWORD PTR ?fn_get_local_entity_vec3d@@3PAY0BI@P6GXPAUENTITY@@W4VEC3D_TYPES@@PAUVEC3D@@@ZA[eax+ecx*4]
  00085	ff d2		 call	 edx

; 198  : }

  00087	5f		 pop	 edi
  00088	5e		 pop	 esi
  00089	5b		 pop	 ebx
  0008a	8b e5		 mov	 esp, ebp
  0008c	5d		 pop	 ebp
  0008d	c2 08 00	 ret	 8
?get_keysite_troop_pickup_position@@YGXPAUENTITY@@PAUVEC3D@@@Z ENDP ; get_keysite_troop_pickup_position
_TEXT	ENDS
; Function compile flags: /Odtp /ZI
; File c:\users\nhv90\projects\eech\aphavoc\source\entity\special\keysite\keysite.c
;	COMDAT ?get_keysite_supply_position@@YGPAUVEC3D@@PAUENTITY@@@Z
_TEXT	SEGMENT
tv78 = -72						; size = 4
tv70 = -68						; size = 4
_keysite$ = 8						; size = 4
?get_keysite_supply_position@@YGPAUVEC3D@@PAUENTITY@@@Z PROC ; get_keysite_supply_position, COMDAT

; 185  : {

  00000	55		 push	 ebp
  00001	8b ec		 mov	 ebp, esp
  00003	83 ec 48	 sub	 esp, 72			; 00000048H
  00006	53		 push	 ebx
  00007	56		 push	 esi
  00008	57		 push	 edi

; 186  : 
; 187  : 	return get_local_entity_vec3d_ptr (keysite, VEC3D_TYPE_POSITION);

  00009	83 7d 08 00	 cmp	 DWORD PTR _keysite$[ebp], 0
  0000d	74 0a		 je	 SHORT $LN3@get_keysit
  0000f	8b 45 08	 mov	 eax, DWORD PTR _keysite$[ebp]
  00012	8b 08		 mov	 ecx, DWORD PTR [eax]
  00014	89 4d bc	 mov	 DWORD PTR tv70[ebp], ecx
  00017	eb 21		 jmp	 SHORT $LN4@get_keysit
$LN3@get_keysit:
  00019	8b 15 00 00 00
	00		 mov	 edx, DWORD PTR ?__LINE__Var@?0??get_keysite_supply_position@@YGPAUVEC3D@@PAUENTITY@@@Z@4JA
  0001f	83 c2 02	 add	 edx, 2
  00022	52		 push	 edx
  00023	68 00 00 00 00	 push	 OFFSET ??_C@_0EN@PIOGLIPD@c?3?2users?2nhv90?2projects?2eech?2ap@
  00028	a1 00 00 00 00	 mov	 eax, DWORD PTR ?null_entity_pointer_message@@3PBDB ; null_entity_pointer_message
  0002d	50		 push	 eax
  0002e	e8 00 00 00 00	 call	 ?process_assert@@YGXPBD0H@Z ; process_assert
  00033	c7 45 bc 00 00
	00 00		 mov	 DWORD PTR tv70[ebp], 0
$LN4@get_keysit:
  0003a	b9 01 00 00 00	 mov	 ecx, 1
  0003f	85 c9		 test	 ecx, ecx
  00041	74 09		 je	 SHORT $LN5@get_keysit
  00043	c7 45 b8 08 00
	00 00		 mov	 DWORD PTR tv78[ebp], 8
  0004a	eb 21		 jmp	 SHORT $LN6@get_keysit
$LN5@get_keysit:
  0004c	8b 15 00 00 00
	00		 mov	 edx, DWORD PTR ?__LINE__Var@?0??get_keysite_supply_position@@YGPAUVEC3D@@PAUENTITY@@@Z@4JA
  00052	83 c2 02	 add	 edx, 2
  00055	52		 push	 edx
  00056	68 00 00 00 00	 push	 OFFSET ??_C@_0EN@PIOGLIPD@c?3?2users?2nhv90?2projects?2eech?2ap@
  0005b	a1 00 00 00 00	 mov	 eax, DWORD PTR ?overload_invalid_vec3d_type_message@@3PBDB ; overload_invalid_vec3d_type_message
  00060	50		 push	 eax
  00061	e8 00 00 00 00	 call	 ?process_assert@@YGXPBD0H@Z ; process_assert
  00066	c7 45 b8 00 00
	00 00		 mov	 DWORD PTR tv78[ebp], 0
$LN6@get_keysit:
  0006d	6a 08		 push	 8
  0006f	8b 4d 08	 mov	 ecx, DWORD PTR _keysite$[ebp]
  00072	51		 push	 ecx
  00073	6b 55 bc 60	 imul	 edx, DWORD PTR tv70[ebp], 96
  00077	8b 45 b8	 mov	 eax, DWORD PTR tv78[ebp]
  0007a	8b 8c 82 00 00
	00 00		 mov	 ecx, DWORD PTR ?fn_get_local_entity_vec3d_ptr@@3PAY0BI@P6GPAUVEC3D@@PAUENTITY@@W4VEC3D_TYPES@@@ZA[edx+eax*4]
  00081	ff d1		 call	 ecx

; 188  : }

  00083	5f		 pop	 edi
  00084	5e		 pop	 esi
  00085	5b		 pop	 ebx
  00086	8b e5		 mov	 esp, ebp
  00088	5d		 pop	 ebp
  00089	c2 04 00	 ret	 4
?get_keysite_supply_position@@YGPAUVEC3D@@PAUENTITY@@@Z ENDP ; get_keysite_supply_position
_TEXT	ENDS
; Function compile flags: /Odtp /ZI
; File c:\users\nhv90\projects\eech\aphavoc\source\entity\special\keysite\keysite.c
;	COMDAT ?get_closest_keysite@@YGPAUENTITY@@HW4ENTITY_SIDES@@PAUVEC3D@@MPAMPAU1@@Z
_TEXT	SEGMENT
tv220 = -96						; size = 4
tv199 = -96						; size = 4
tv173 = -96						; size = 4
tv152 = -96						; size = 4
tv132 = -96						; size = 4
tv80 = -96						; size = 4
tv212 = -92						; size = 4
tv191 = -92						; size = 4
tv165 = -92						; size = 4
tv145 = -92						; size = 4
tv93 = -92						; size = 4
tv72 = -92						; size = 4
_current_keysite$ = -24					; size = 4
_closest_keysite$ = -20					; size = 4
_force$ = -16						; size = 4
_keysite_pos$ = -12					; size = 4
_range$ = -8						; size = 4
_best_range$ = -4					; size = 4
_type$ = 8						; size = 4
_side$ = 12						; size = 4
_pos$ = 16						; size = 4
_min_range$ = 20					; size = 4
_actual_range$ = 24					; size = 4
_exclude_keysite$ = 28					; size = 4
?get_closest_keysite@@YGPAUENTITY@@HW4ENTITY_SIDES@@PAUVEC3D@@MPAMPAU1@@Z PROC ; get_closest_keysite, COMDAT

; 89   : {

  00000	55		 push	 ebp
  00001	8b ec		 mov	 ebp, esp
  00003	83 ec 60	 sub	 esp, 96			; 00000060H
  00006	53		 push	 ebx
  00007	56		 push	 esi
  00008	57		 push	 edi

; 90   : 
; 91   : 	float
; 92   : 		best_range,
; 93   : 		range;
; 94   : 
; 95   : 	vec3d
; 96   : 		*keysite_pos;
; 97   : 
; 98   : 	entity
; 99   : 		*force,
; 100  : 		*closest_keysite = NULL,

  00009	c7 45 ec 00 00
	00 00		 mov	 DWORD PTR _closest_keysite$[ebp], 0

; 101  : 		*current_keysite;
; 102  : 
; 103  : 	best_range = FLT_MAX;

  00010	f3 0f 10 05 00
	00 00 00	 movss	 xmm0, DWORD PTR __real@7f7fffff
  00018	f3 0f 11 45 fc	 movss	 DWORD PTR _best_range$[ebp], xmm0

; 104  : 
; 105  : 	force = get_local_force_entity (side);

  0001d	8b 45 0c	 mov	 eax, DWORD PTR _side$[ebp]
  00020	50		 push	 eax
  00021	e8 00 00 00 00	 call	 ?get_local_force_entity@@YGPAUENTITY@@W4ENTITY_SIDES@@@Z ; get_local_force_entity
  00026	89 45 f0	 mov	 DWORD PTR _force$[ebp], eax

; 106  : 
; 107  : 	current_keysite = get_local_entity_first_child (force, LIST_TYPE_KEYSITE_FORCE);

  00029	83 7d f0 00	 cmp	 DWORD PTR _force$[ebp], 0
  0002d	74 0a		 je	 SHORT $LN14@get_closes
  0002f	8b 45 f0	 mov	 eax, DWORD PTR _force$[ebp]
  00032	8b 08		 mov	 ecx, DWORD PTR [eax]
  00034	89 4d a4	 mov	 DWORD PTR tv72[ebp], ecx
  00037	eb 21		 jmp	 SHORT $LN15@get_closes
$LN14@get_closes:
  00039	8b 15 00 00 00
	00		 mov	 edx, DWORD PTR ?__LINE__Var@?0??get_closest_keysite@@YGPAUENTITY@@HW4ENTITY_SIDES@@PAUVEC3D@@MPAMPAU2@@Z@4JA
  0003f	83 c2 12	 add	 edx, 18			; 00000012H
  00042	52		 push	 edx
  00043	68 00 00 00 00	 push	 OFFSET ??_C@_0EN@PIOGLIPD@c?3?2users?2nhv90?2projects?2eech?2ap@
  00048	a1 00 00 00 00	 mov	 eax, DWORD PTR ?null_entity_pointer_message@@3PBDB ; null_entity_pointer_message
  0004d	50		 push	 eax
  0004e	e8 00 00 00 00	 call	 ?process_assert@@YGXPBD0H@Z ; process_assert
  00053	c7 45 a4 00 00
	00 00		 mov	 DWORD PTR tv72[ebp], 0
$LN15@get_closes:
  0005a	b9 01 00 00 00	 mov	 ecx, 1
  0005f	85 c9		 test	 ecx, ecx
  00061	74 09		 je	 SHORT $LN16@get_closes
  00063	c7 45 a0 15 00
	00 00		 mov	 DWORD PTR tv80[ebp], 21	; 00000015H
  0006a	eb 21		 jmp	 SHORT $LN17@get_closes
$LN16@get_closes:
  0006c	8b 15 00 00 00
	00		 mov	 edx, DWORD PTR ?__LINE__Var@?0??get_closest_keysite@@YGPAUENTITY@@HW4ENTITY_SIDES@@PAUVEC3D@@MPAMPAU2@@Z@4JA
  00072	83 c2 12	 add	 edx, 18			; 00000012H
  00075	52		 push	 edx
  00076	68 00 00 00 00	 push	 OFFSET ??_C@_0EN@PIOGLIPD@c?3?2users?2nhv90?2projects?2eech?2ap@
  0007b	a1 00 00 00 00	 mov	 eax, DWORD PTR ?overload_invalid_list_type_message@@3PBDB ; overload_invalid_list_type_message
  00080	50		 push	 eax
  00081	e8 00 00 00 00	 call	 ?process_assert@@YGXPBD0H@Z ; process_assert
  00086	c7 45 a0 00 00
	00 00		 mov	 DWORD PTR tv80[ebp], 0
$LN17@get_closes:
  0008d	6a 15		 push	 21			; 00000015H
  0008f	8b 4d f0	 mov	 ecx, DWORD PTR _force$[ebp]
  00092	51		 push	 ecx
  00093	69 55 a4 b4 00
	00 00		 imul	 edx, DWORD PTR tv72[ebp], 180
  0009a	8b 45 a0	 mov	 eax, DWORD PTR tv80[ebp]
  0009d	8b 8c 82 00 00
	00 00		 mov	 ecx, DWORD PTR ?fn_get_local_entity_first_child@@3PAY0CN@P6GPAUENTITY@@PAU1@W4LIST_TYPES@@@ZA[edx+eax*4]
  000a4	ff d1		 call	 ecx
  000a6	89 45 e8	 mov	 DWORD PTR _current_keysite$[ebp], eax
$LN2@get_closes:

; 108  : 
; 109  : 	while (current_keysite)

  000a9	83 7d e8 00	 cmp	 DWORD PTR _current_keysite$[ebp], 0
  000ad	0f 84 53 02 00
	00		 je	 $LN3@get_closes

; 110  : 	{
; 111  : 
; 112  : 		if (current_keysite != exclude_keysite)

  000b3	8b 45 e8	 mov	 eax, DWORD PTR _current_keysite$[ebp]
  000b6	3b 45 1c	 cmp	 eax, DWORD PTR _exclude_keysite$[ebp]
  000b9	0f 84 c2 01 00
	00		 je	 $LN10@get_closes

; 113  : 		{
; 114  : 
; 115  : 			if ((get_local_entity_int_value (current_keysite, INT_TYPE_ENTITY_SUB_TYPE) == type) || (type == NUM_ENTITY_SUB_TYPE_KEYSITES))

  000bf	83 7d e8 00	 cmp	 DWORD PTR _current_keysite$[ebp], 0
  000c3	74 0a		 je	 SHORT $LN18@get_closes
  000c5	8b 45 e8	 mov	 eax, DWORD PTR _current_keysite$[ebp]
  000c8	8b 08		 mov	 ecx, DWORD PTR [eax]
  000ca	89 4d a4	 mov	 DWORD PTR tv93[ebp], ecx
  000cd	eb 1a		 jmp	 SHORT $LN19@get_closes
$LN18@get_closes:
  000cf	6a 73		 push	 115			; 00000073H
  000d1	68 00 00 00 00	 push	 OFFSET ??_C@_0EN@PIOGLIPD@c?3?2users?2nhv90?2projects?2eech?2ap@
  000d6	8b 15 00 00 00
	00		 mov	 edx, DWORD PTR ?null_entity_pointer_message@@3PBDB ; null_entity_pointer_message
  000dc	52		 push	 edx
  000dd	e8 00 00 00 00	 call	 ?process_assert@@YGXPBD0H@Z ; process_assert
  000e2	c7 45 a4 00 00
	00 00		 mov	 DWORD PTR tv93[ebp], 0
$LN19@get_closes:
  000e9	b8 01 00 00 00	 mov	 eax, 1
  000ee	85 c0		 test	 eax, eax
  000f0	74 09		 je	 SHORT $LN20@get_closes
  000f2	c7 45 a0 34 00
	00 00		 mov	 DWORD PTR tv132[ebp], 52 ; 00000034H
  000f9	eb 1a		 jmp	 SHORT $LN21@get_closes
$LN20@get_closes:
  000fb	6a 73		 push	 115			; 00000073H
  000fd	68 00 00 00 00	 push	 OFFSET ??_C@_0EN@PIOGLIPD@c?3?2users?2nhv90?2projects?2eech?2ap@
  00102	8b 0d 00 00 00
	00		 mov	 ecx, DWORD PTR ?overload_invalid_int_type_message@@3PBDB ; overload_invalid_int_type_message
  00108	51		 push	 ecx
  00109	e8 00 00 00 00	 call	 ?process_assert@@YGXPBD0H@Z ; process_assert
  0010e	c7 45 a0 00 00
	00 00		 mov	 DWORD PTR tv132[ebp], 0
$LN21@get_closes:
  00115	6a 34		 push	 52			; 00000034H
  00117	8b 55 e8	 mov	 edx, DWORD PTR _current_keysite$[ebp]
  0011a	52		 push	 edx
  0011b	69 45 a4 5c 04
	00 00		 imul	 eax, DWORD PTR tv93[ebp], 1116
  00122	8b 4d a0	 mov	 ecx, DWORD PTR tv132[ebp]
  00125	8b 94 88 00 00
	00 00		 mov	 edx, DWORD PTR ?fn_get_local_entity_int_value@@3PAY0BBH@P6GHPAUENTITY@@W4INT_TYPES@@@ZA[eax+ecx*4]
  0012c	ff d2		 call	 edx
  0012e	3b 45 08	 cmp	 eax, DWORD PTR _type$[ebp]
  00131	74 0a		 je	 SHORT $LN6@get_closes
  00133	83 7d 08 09	 cmp	 DWORD PTR _type$[ebp], 9
  00137	0f 85 44 01 00
	00		 jne	 $LN10@get_closes
$LN6@get_closes:

; 116  : 			{
; 117  : 	
; 118  : 				if (get_local_entity_int_value (current_keysite, INT_TYPE_IN_USE))

  0013d	83 7d e8 00	 cmp	 DWORD PTR _current_keysite$[ebp], 0
  00141	74 0a		 je	 SHORT $LN22@get_closes
  00143	8b 45 e8	 mov	 eax, DWORD PTR _current_keysite$[ebp]
  00146	8b 08		 mov	 ecx, DWORD PTR [eax]
  00148	89 4d a4	 mov	 DWORD PTR tv145[ebp], ecx
  0014b	eb 1a		 jmp	 SHORT $LN23@get_closes
$LN22@get_closes:
  0014d	6a 76		 push	 118			; 00000076H
  0014f	68 00 00 00 00	 push	 OFFSET ??_C@_0EN@PIOGLIPD@c?3?2users?2nhv90?2projects?2eech?2ap@
  00154	8b 15 00 00 00
	00		 mov	 edx, DWORD PTR ?null_entity_pointer_message@@3PBDB ; null_entity_pointer_message
  0015a	52		 push	 edx
  0015b	e8 00 00 00 00	 call	 ?process_assert@@YGXPBD0H@Z ; process_assert
  00160	c7 45 a4 00 00
	00 00		 mov	 DWORD PTR tv145[ebp], 0
$LN23@get_closes:
  00167	b8 01 00 00 00	 mov	 eax, 1
  0016c	85 c0		 test	 eax, eax
  0016e	74 09		 je	 SHORT $LN24@get_closes
  00170	c7 45 a0 6d 00
	00 00		 mov	 DWORD PTR tv152[ebp], 109 ; 0000006dH
  00177	eb 1a		 jmp	 SHORT $LN25@get_closes
$LN24@get_closes:
  00179	6a 76		 push	 118			; 00000076H
  0017b	68 00 00 00 00	 push	 OFFSET ??_C@_0EN@PIOGLIPD@c?3?2users?2nhv90?2projects?2eech?2ap@
  00180	8b 0d 00 00 00
	00		 mov	 ecx, DWORD PTR ?overload_invalid_int_type_message@@3PBDB ; overload_invalid_int_type_message
  00186	51		 push	 ecx
  00187	e8 00 00 00 00	 call	 ?process_assert@@YGXPBD0H@Z ; process_assert
  0018c	c7 45 a0 00 00
	00 00		 mov	 DWORD PTR tv152[ebp], 0
$LN25@get_closes:
  00193	6a 6d		 push	 109			; 0000006dH
  00195	8b 55 e8	 mov	 edx, DWORD PTR _current_keysite$[ebp]
  00198	52		 push	 edx
  00199	69 45 a4 5c 04
	00 00		 imul	 eax, DWORD PTR tv145[ebp], 1116
  001a0	8b 4d a0	 mov	 ecx, DWORD PTR tv152[ebp]
  001a3	8b 94 88 00 00
	00 00		 mov	 edx, DWORD PTR ?fn_get_local_entity_int_value@@3PAY0BBH@P6GHPAUENTITY@@W4INT_TYPES@@@ZA[eax+ecx*4]
  001aa	ff d2		 call	 edx
  001ac	85 c0		 test	 eax, eax
  001ae	0f 84 cd 00 00
	00		 je	 $LN10@get_closes

; 119  : 				{
; 120  : 		
; 121  : 					keysite_pos = get_local_entity_vec3d_ptr (current_keysite, VEC3D_TYPE_POSITION);

  001b4	83 7d e8 00	 cmp	 DWORD PTR _current_keysite$[ebp], 0
  001b8	74 0a		 je	 SHORT $LN26@get_closes
  001ba	8b 45 e8	 mov	 eax, DWORD PTR _current_keysite$[ebp]
  001bd	8b 08		 mov	 ecx, DWORD PTR [eax]
  001bf	89 4d a4	 mov	 DWORD PTR tv165[ebp], ecx
  001c2	eb 21		 jmp	 SHORT $LN27@get_closes
$LN26@get_closes:
  001c4	8b 15 00 00 00
	00		 mov	 edx, DWORD PTR ?__LINE__Var@?0??get_closest_keysite@@YGPAUENTITY@@HW4ENTITY_SIDES@@PAUVEC3D@@MPAMPAU2@@Z@4JA
  001ca	83 c2 20	 add	 edx, 32			; 00000020H
  001cd	52		 push	 edx
  001ce	68 00 00 00 00	 push	 OFFSET ??_C@_0EN@PIOGLIPD@c?3?2users?2nhv90?2projects?2eech?2ap@
  001d3	a1 00 00 00 00	 mov	 eax, DWORD PTR ?null_entity_pointer_message@@3PBDB ; null_entity_pointer_message
  001d8	50		 push	 eax
  001d9	e8 00 00 00 00	 call	 ?process_assert@@YGXPBD0H@Z ; process_assert
  001de	c7 45 a4 00 00
	00 00		 mov	 DWORD PTR tv165[ebp], 0
$LN27@get_closes:
  001e5	b9 01 00 00 00	 mov	 ecx, 1
  001ea	85 c9		 test	 ecx, ecx
  001ec	74 09		 je	 SHORT $LN28@get_closes
  001ee	c7 45 a0 08 00
	00 00		 mov	 DWORD PTR tv173[ebp], 8
  001f5	eb 21		 jmp	 SHORT $LN29@get_closes
$LN28@get_closes:
  001f7	8b 15 00 00 00
	00		 mov	 edx, DWORD PTR ?__LINE__Var@?0??get_closest_keysite@@YGPAUENTITY@@HW4ENTITY_SIDES@@PAUVEC3D@@MPAMPAU2@@Z@4JA
  001fd	83 c2 20	 add	 edx, 32			; 00000020H
  00200	52		 push	 edx
  00201	68 00 00 00 00	 push	 OFFSET ??_C@_0EN@PIOGLIPD@c?3?2users?2nhv90?2projects?2eech?2ap@
  00206	a1 00 00 00 00	 mov	 eax, DWORD PTR ?overload_invalid_vec3d_type_message@@3PBDB ; overload_invalid_vec3d_type_message
  0020b	50		 push	 eax
  0020c	e8 00 00 00 00	 call	 ?process_assert@@YGXPBD0H@Z ; process_assert
  00211	c7 45 a0 00 00
	00 00		 mov	 DWORD PTR tv173[ebp], 0
$LN29@get_closes:
  00218	6a 08		 push	 8
  0021a	8b 4d e8	 mov	 ecx, DWORD PTR _current_keysite$[ebp]
  0021d	51		 push	 ecx
  0021e	6b 55 a4 60	 imul	 edx, DWORD PTR tv165[ebp], 96
  00222	8b 45 a0	 mov	 eax, DWORD PTR tv173[ebp]
  00225	8b 8c 82 00 00
	00 00		 mov	 ecx, DWORD PTR ?fn_get_local_entity_vec3d_ptr@@3PAY0BI@P6GPAUVEC3D@@PAUENTITY@@W4VEC3D_TYPES@@@ZA[edx+eax*4]
  0022c	ff d1		 call	 ecx
  0022e	89 45 f4	 mov	 DWORD PTR _keysite_pos$[ebp], eax

; 122  : 		
; 123  : 					range = get_approx_2d_range (keysite_pos, pos);

  00231	8b 45 10	 mov	 eax, DWORD PTR _pos$[ebp]
  00234	50		 push	 eax
  00235	8b 4d f4	 mov	 ecx, DWORD PTR _keysite_pos$[ebp]
  00238	51		 push	 ecx
  00239	e8 00 00 00 00	 call	 ?get_approx_2d_range@@YGMPBUVEC3D@@0@Z ; get_approx_2d_range
  0023e	d9 5d f8	 fstp	 DWORD PTR _range$[ebp]

; 124  : 		
; 125  : 					if (range <= min_range)

  00241	f3 0f 10 45 14	 movss	 xmm0, DWORD PTR _min_range$[ebp]
  00246	0f 2f 45 f8	 comiss	 xmm0, DWORD PTR _range$[ebp]
  0024a	72 1a		 jb	 SHORT $LN8@get_closes

; 126  : 					{
; 127  : 		
; 128  : 						#if LANDING_DEBUG >= 2
; 129  : 		
; 130  : 						debug_log ("AI_MISC: EARLY OUT: found key site %d (type %d) range %f", current_keysite, type, range);
; 131  : 		
; 132  : 						#endif
; 133  : 	
; 134  : 						if (actual_range)

  0024c	83 7d 18 00	 cmp	 DWORD PTR _actual_range$[ebp], 0
  00250	74 0c		 je	 SHORT $LN9@get_closes

; 135  : 						{
; 136  : 		
; 137  : 							*actual_range = range;

  00252	8b 45 18	 mov	 eax, DWORD PTR _actual_range$[ebp]
  00255	f3 0f 10 45 f8	 movss	 xmm0, DWORD PTR _range$[ebp]
  0025a	f3 0f 11 00	 movss	 DWORD PTR [eax], xmm0
$LN9@get_closes:

; 138  : 						}
; 139  : 		
; 140  : 						return current_keysite;

  0025e	8b 45 e8	 mov	 eax, DWORD PTR _current_keysite$[ebp]
  00261	e9 4c 01 00 00	 jmp	 $LN1@get_closes
$LN8@get_closes:

; 141  : 					}
; 142  : 		
; 143  : 					if (range < best_range)

  00266	f3 0f 10 45 fc	 movss	 xmm0, DWORD PTR _best_range$[ebp]
  0026b	0f 2f 45 f8	 comiss	 xmm0, DWORD PTR _range$[ebp]
  0026f	76 10		 jbe	 SHORT $LN10@get_closes

; 144  : 					{
; 145  : 		
; 146  : 						best_range = range;

  00271	f3 0f 10 45 f8	 movss	 xmm0, DWORD PTR _range$[ebp]
  00276	f3 0f 11 45 fc	 movss	 DWORD PTR _best_range$[ebp], xmm0

; 147  : 		
; 148  : 						closest_keysite = current_keysite;

  0027b	8b 45 e8	 mov	 eax, DWORD PTR _current_keysite$[ebp]
  0027e	89 45 ec	 mov	 DWORD PTR _closest_keysite$[ebp], eax
$LN10@get_closes:

; 149  : 		
; 150  : 						#if LANDING_DEBUG
; 151  : 		
; 152  : 						debug_log ("AI_MISC: found key site %d (type %d) range %f", current_keysite, type, range);
; 153  : 		
; 154  : 						#endif
; 155  : 					}
; 156  : 				}
; 157  : 			}
; 158  : 		}
; 159  : 
; 160  : 		current_keysite = get_local_entity_child_succ (current_keysite, LIST_TYPE_KEYSITE_FORCE);

  00281	83 7d e8 00	 cmp	 DWORD PTR _current_keysite$[ebp], 0
  00285	74 0a		 je	 SHORT $LN30@get_closes
  00287	8b 45 e8	 mov	 eax, DWORD PTR _current_keysite$[ebp]
  0028a	8b 08		 mov	 ecx, DWORD PTR [eax]
  0028c	89 4d a4	 mov	 DWORD PTR tv191[ebp], ecx
  0028f	eb 21		 jmp	 SHORT $LN31@get_closes
$LN30@get_closes:
  00291	8b 15 00 00 00
	00		 mov	 edx, DWORD PTR ?__LINE__Var@?0??get_closest_keysite@@YGPAUENTITY@@HW4ENTITY_SIDES@@PAUVEC3D@@MPAMPAU2@@Z@4JA
  00297	83 c2 47	 add	 edx, 71			; 00000047H
  0029a	52		 push	 edx
  0029b	68 00 00 00 00	 push	 OFFSET ??_C@_0EN@PIOGLIPD@c?3?2users?2nhv90?2projects?2eech?2ap@
  002a0	a1 00 00 00 00	 mov	 eax, DWORD PTR ?null_entity_pointer_message@@3PBDB ; null_entity_pointer_message
  002a5	50		 push	 eax
  002a6	e8 00 00 00 00	 call	 ?process_assert@@YGXPBD0H@Z ; process_assert
  002ab	c7 45 a4 00 00
	00 00		 mov	 DWORD PTR tv191[ebp], 0
$LN31@get_closes:
  002b2	b9 01 00 00 00	 mov	 ecx, 1
  002b7	85 c9		 test	 ecx, ecx
  002b9	74 09		 je	 SHORT $LN32@get_closes
  002bb	c7 45 a0 15 00
	00 00		 mov	 DWORD PTR tv199[ebp], 21 ; 00000015H
  002c2	eb 21		 jmp	 SHORT $LN33@get_closes
$LN32@get_closes:
  002c4	8b 15 00 00 00
	00		 mov	 edx, DWORD PTR ?__LINE__Var@?0??get_closest_keysite@@YGPAUENTITY@@HW4ENTITY_SIDES@@PAUVEC3D@@MPAMPAU2@@Z@4JA
  002ca	83 c2 47	 add	 edx, 71			; 00000047H
  002cd	52		 push	 edx
  002ce	68 00 00 00 00	 push	 OFFSET ??_C@_0EN@PIOGLIPD@c?3?2users?2nhv90?2projects?2eech?2ap@
  002d3	a1 00 00 00 00	 mov	 eax, DWORD PTR ?overload_invalid_list_type_message@@3PBDB ; overload_invalid_list_type_message
  002d8	50		 push	 eax
  002d9	e8 00 00 00 00	 call	 ?process_assert@@YGXPBD0H@Z ; process_assert
  002de	c7 45 a0 00 00
	00 00		 mov	 DWORD PTR tv199[ebp], 0
$LN33@get_closes:
  002e5	6a 15		 push	 21			; 00000015H
  002e7	8b 4d e8	 mov	 ecx, DWORD PTR _current_keysite$[ebp]
  002ea	51		 push	 ecx
  002eb	69 55 a4 b4 00
	00 00		 imul	 edx, DWORD PTR tv191[ebp], 180
  002f2	8b 45 a0	 mov	 eax, DWORD PTR tv199[ebp]
  002f5	8b 8c 82 00 00
	00 00		 mov	 ecx, DWORD PTR ?fn_get_local_entity_child_succ@@3PAY0CN@P6GPAUENTITY@@PAU1@W4LIST_TYPES@@@ZA[edx+eax*4]
  002fc	ff d1		 call	 ecx
  002fe	89 45 e8	 mov	 DWORD PTR _current_keysite$[ebp], eax

; 161  : 	} 

  00301	e9 a3 fd ff ff	 jmp	 $LN2@get_closes
$LN3@get_closes:

; 162  : 
; 163  : 	if ( closest_keysite )

  00306	83 7d ec 00	 cmp	 DWORD PTR _closest_keysite$[ebp], 0
  0030a	0f 84 8d 00 00
	00		 je	 $LN11@get_closes

; 164  : 	{
; 165  : 
; 166  : 		keysite_pos = get_local_entity_vec3d_ptr (closest_keysite, VEC3D_TYPE_POSITION);

  00310	83 7d ec 00	 cmp	 DWORD PTR _closest_keysite$[ebp], 0
  00314	74 0a		 je	 SHORT $LN34@get_closes
  00316	8b 45 ec	 mov	 eax, DWORD PTR _closest_keysite$[ebp]
  00319	8b 08		 mov	 ecx, DWORD PTR [eax]
  0031b	89 4d a4	 mov	 DWORD PTR tv212[ebp], ecx
  0031e	eb 21		 jmp	 SHORT $LN35@get_closes
$LN34@get_closes:
  00320	8b 15 00 00 00
	00		 mov	 edx, DWORD PTR ?__LINE__Var@?0??get_closest_keysite@@YGPAUENTITY@@HW4ENTITY_SIDES@@PAUVEC3D@@MPAMPAU2@@Z@4JA
  00326	83 c2 4d	 add	 edx, 77			; 0000004dH
  00329	52		 push	 edx
  0032a	68 00 00 00 00	 push	 OFFSET ??_C@_0EN@PIOGLIPD@c?3?2users?2nhv90?2projects?2eech?2ap@
  0032f	a1 00 00 00 00	 mov	 eax, DWORD PTR ?null_entity_pointer_message@@3PBDB ; null_entity_pointer_message
  00334	50		 push	 eax
  00335	e8 00 00 00 00	 call	 ?process_assert@@YGXPBD0H@Z ; process_assert
  0033a	c7 45 a4 00 00
	00 00		 mov	 DWORD PTR tv212[ebp], 0
$LN35@get_closes:
  00341	b9 01 00 00 00	 mov	 ecx, 1
  00346	85 c9		 test	 ecx, ecx
  00348	74 09		 je	 SHORT $LN36@get_closes
  0034a	c7 45 a0 08 00
	00 00		 mov	 DWORD PTR tv220[ebp], 8
  00351	eb 21		 jmp	 SHORT $LN37@get_closes
$LN36@get_closes:
  00353	8b 15 00 00 00
	00		 mov	 edx, DWORD PTR ?__LINE__Var@?0??get_closest_keysite@@YGPAUENTITY@@HW4ENTITY_SIDES@@PAUVEC3D@@MPAMPAU2@@Z@4JA
  00359	83 c2 4d	 add	 edx, 77			; 0000004dH
  0035c	52		 push	 edx
  0035d	68 00 00 00 00	 push	 OFFSET ??_C@_0EN@PIOGLIPD@c?3?2users?2nhv90?2projects?2eech?2ap@
  00362	a1 00 00 00 00	 mov	 eax, DWORD PTR ?overload_invalid_vec3d_type_message@@3PBDB ; overload_invalid_vec3d_type_message
  00367	50		 push	 eax
  00368	e8 00 00 00 00	 call	 ?process_assert@@YGXPBD0H@Z ; process_assert
  0036d	c7 45 a0 00 00
	00 00		 mov	 DWORD PTR tv220[ebp], 0
$LN37@get_closes:
  00374	6a 08		 push	 8
  00376	8b 4d ec	 mov	 ecx, DWORD PTR _closest_keysite$[ebp]
  00379	51		 push	 ecx
  0037a	6b 55 a4 60	 imul	 edx, DWORD PTR tv212[ebp], 96
  0037e	8b 45 a0	 mov	 eax, DWORD PTR tv220[ebp]
  00381	8b 8c 82 00 00
	00 00		 mov	 ecx, DWORD PTR ?fn_get_local_entity_vec3d_ptr@@3PAY0BI@P6GPAUVEC3D@@PAUENTITY@@W4VEC3D_TYPES@@@ZA[edx+eax*4]
  00388	ff d1		 call	 ecx
  0038a	89 45 f4	 mov	 DWORD PTR _keysite_pos$[ebp], eax

; 167  : 
; 168  : 		best_range = get_2d_range (keysite_pos, pos);

  0038d	8b 45 10	 mov	 eax, DWORD PTR _pos$[ebp]
  00390	50		 push	 eax
  00391	8b 4d f4	 mov	 ecx, DWORD PTR _keysite_pos$[ebp]
  00394	51		 push	 ecx
  00395	e8 00 00 00 00	 call	 ?get_2d_range@@YGMPBUVEC3D@@0@Z ; get_2d_range
  0039a	d9 5d fc	 fstp	 DWORD PTR _best_range$[ebp]
$LN11@get_closes:

; 169  : 	}
; 170  : 
; 171  : 	if (actual_range)

  0039d	83 7d 18 00	 cmp	 DWORD PTR _actual_range$[ebp], 0
  003a1	74 0c		 je	 SHORT $LN12@get_closes

; 172  : 	{
; 173  : 
; 174  : 		*actual_range = best_range;

  003a3	8b 45 18	 mov	 eax, DWORD PTR _actual_range$[ebp]
  003a6	f3 0f 10 45 fc	 movss	 xmm0, DWORD PTR _best_range$[ebp]
  003ab	f3 0f 11 00	 movss	 DWORD PTR [eax], xmm0
$LN12@get_closes:

; 175  : 	}
; 176  : 
; 177  : 	return closest_keysite;

  003af	8b 45 ec	 mov	 eax, DWORD PTR _closest_keysite$[ebp]
$LN1@get_closes:

; 178  : }

  003b2	5f		 pop	 edi
  003b3	5e		 pop	 esi
  003b4	5b		 pop	 ebx
  003b5	8b e5		 mov	 esp, ebp
  003b7	5d		 pop	 ebp
  003b8	c2 18 00	 ret	 24			; 00000018H
?get_closest_keysite@@YGPAUENTITY@@HW4ENTITY_SIDES@@PAUVEC3D@@MPAMPAU1@@Z ENDP ; get_closest_keysite
_TEXT	ENDS
; Function compile flags: /Odtp /ZI
; File c:\program files (x86)\microsoft visual studio\2017\community\vc\tools\msvc\14.16.27023\include\cmath
;	COMDAT ?fabs@@YGMM@Z
_TEXT	SEGMENT
__Xx$ = 8						; size = 4
?fabs@@YGMM@Z PROC					; fabs, COMDAT

; 112  : 	{

  00000	55		 push	 ebp
  00001	8b ec		 mov	 ebp, esp
  00003	83 ec 40	 sub	 esp, 64			; 00000040H
  00006	53		 push	 ebx
  00007	56		 push	 esi
  00008	57		 push	 edi

; 113  : 	return (_CSTD fabsf(_Xx));

  00009	51		 push	 ecx
  0000a	f3 0f 10 45 08	 movss	 xmm0, DWORD PTR __Xx$[ebp]
  0000f	f3 0f 11 04 24	 movss	 DWORD PTR [esp], xmm0
  00014	e8 00 00 00 00	 call	 _fabsf
  00019	83 c4 04	 add	 esp, 4

; 114  : 	}

  0001c	5f		 pop	 edi
  0001d	5e		 pop	 esi
  0001e	5b		 pop	 ebx
  0001f	8b e5		 mov	 esp, ebp
  00021	5d		 pop	 ebp
  00022	c2 04 00	 ret	 4
?fabs@@YGMM@Z ENDP					; fabs
_TEXT	ENDS
; Function compile flags: /Odtp /ZI
; File c:\program files (x86)\windows kits\10\include\10.0.18362.0\ucrt\corecrt_math.h
;	COMDAT _fabsf
_TEXT	SEGMENT
tv71 = -68						; size = 4
__X$ = 8						; size = 4
_fabsf	PROC						; COMDAT

; 671  :         {

  00000	55		 push	 ebp
  00001	8b ec		 mov	 ebp, esp
  00003	83 ec 44	 sub	 esp, 68			; 00000044H
  00006	53		 push	 ebx
  00007	56		 push	 esi
  00008	57		 push	 edi

; 672  :             return (float)fabs(_X);

  00009	f3 0f 5a 45 08	 cvtss2sd xmm0, DWORD PTR __X$[ebp]
  0000e	83 ec 08	 sub	 esp, 8
  00011	f2 0f 11 04 24	 movsd	 QWORD PTR [esp], xmm0
  00016	e8 00 00 00 00	 call	 _fabs
  0001b	83 c4 08	 add	 esp, 8
  0001e	d9 5d bc	 fstp	 DWORD PTR tv71[ebp]
  00021	d9 45 bc	 fld	 DWORD PTR tv71[ebp]

; 673  :         }

  00024	5f		 pop	 edi
  00025	5e		 pop	 esi
  00026	5b		 pop	 ebx
  00027	8b e5		 mov	 esp, ebp
  00029	5d		 pop	 ebp
  0002a	c3		 ret	 0
_fabsf	ENDP
_TEXT	ENDS
; Function compile flags: /Odtp /ZI
; File c:\program files (x86)\windows kits\10\include\10.0.18362.0\ucrt\stdio.h
;	COMDAT _sprintf
_TEXT	SEGMENT
__ArgList$ = -8						; size = 4
__Result$ = -4						; size = 4
__Buffer$ = 8						; size = 4
__Format$ = 12						; size = 4
_sprintf PROC						; COMDAT

; 1781 :     {

  00000	55		 push	 ebp
  00001	8b ec		 mov	 ebp, esp
  00003	83 ec 4c	 sub	 esp, 76			; 0000004cH
  00006	53		 push	 ebx
  00007	56		 push	 esi
  00008	57		 push	 edi

; 1782 :         int _Result;
; 1783 :         va_list _ArgList;
; 1784 :         __crt_va_start(_ArgList, _Format);

  00009	8d 45 10	 lea	 eax, DWORD PTR __Format$[ebp+4]
  0000c	89 45 f8	 mov	 DWORD PTR __ArgList$[ebp], eax

; 1785 : 
; 1786 :         #pragma warning(push)
; 1787 :         #pragma warning(disable: 4996) // Deprecation
; 1788 :         _Result = _vsprintf_l(_Buffer, _Format, NULL, _ArgList);

  0000f	8b 45 f8	 mov	 eax, DWORD PTR __ArgList$[ebp]
  00012	50		 push	 eax
  00013	6a 00		 push	 0
  00015	8b 4d 0c	 mov	 ecx, DWORD PTR __Format$[ebp]
  00018	51		 push	 ecx
  00019	8b 55 08	 mov	 edx, DWORD PTR __Buffer$[ebp]
  0001c	52		 push	 edx
  0001d	e8 00 00 00 00	 call	 __vsprintf_l
  00022	83 c4 10	 add	 esp, 16			; 00000010H
  00025	89 45 fc	 mov	 DWORD PTR __Result$[ebp], eax

; 1789 :         #pragma warning(pop)
; 1790 : 
; 1791 :         __crt_va_end(_ArgList);

  00028	c7 45 f8 00 00
	00 00		 mov	 DWORD PTR __ArgList$[ebp], 0

; 1792 :         return _Result;

  0002f	8b 45 fc	 mov	 eax, DWORD PTR __Result$[ebp]

; 1793 :     }

  00032	5f		 pop	 edi
  00033	5e		 pop	 esi
  00034	5b		 pop	 ebx
  00035	8b e5		 mov	 esp, ebp
  00037	5d		 pop	 ebp
  00038	c3		 ret	 0
_sprintf ENDP
_TEXT	ENDS
; Function compile flags: /Odtp /ZI
; File c:\program files (x86)\windows kits\10\include\10.0.18362.0\ucrt\stdio.h
;	COMDAT __vsprintf_l
_TEXT	SEGMENT
__Buffer$ = 8						; size = 4
__Format$ = 12						; size = 4
__Locale$ = 16						; size = 4
__ArgList$ = 20						; size = 4
__vsprintf_l PROC					; COMDAT

; 1459 :     {

  00000	55		 push	 ebp
  00001	8b ec		 mov	 ebp, esp
  00003	83 ec 40	 sub	 esp, 64			; 00000040H
  00006	53		 push	 ebx
  00007	56		 push	 esi
  00008	57		 push	 edi

; 1460 :         #pragma warning(push)
; 1461 :         #pragma warning(disable: 4996) // Deprecation
; 1462 :         return _vsnprintf_l(_Buffer, (size_t)-1, _Format, _Locale, _ArgList);

  00009	8b 45 14	 mov	 eax, DWORD PTR __ArgList$[ebp]
  0000c	50		 push	 eax
  0000d	8b 4d 10	 mov	 ecx, DWORD PTR __Locale$[ebp]
  00010	51		 push	 ecx
  00011	8b 55 0c	 mov	 edx, DWORD PTR __Format$[ebp]
  00014	52		 push	 edx
  00015	6a ff		 push	 -1
  00017	8b 45 08	 mov	 eax, DWORD PTR __Buffer$[ebp]
  0001a	50		 push	 eax
  0001b	e8 00 00 00 00	 call	 __vsnprintf_l
  00020	83 c4 14	 add	 esp, 20			; 00000014H

; 1463 :         #pragma warning(pop)
; 1464 :     }

  00023	5f		 pop	 edi
  00024	5e		 pop	 esi
  00025	5b		 pop	 ebx
  00026	8b e5		 mov	 esp, ebp
  00028	5d		 pop	 ebp
  00029	c3		 ret	 0
__vsprintf_l ENDP
_TEXT	ENDS
; Function compile flags: /Odtp /ZI
; File c:\program files (x86)\windows kits\10\include\10.0.18362.0\ucrt\stdio.h
;	COMDAT __vsnprintf_l
_TEXT	SEGMENT
tv74 = -72						; size = 4
__Result$ = -4						; size = 4
__Buffer$ = 8						; size = 4
__BufferCount$ = 12					; size = 4
__Format$ = 16						; size = 4
__Locale$ = 20						; size = 4
__ArgList$ = 24						; size = 4
__vsnprintf_l PROC					; COMDAT

; 1389 :     {

  00000	55		 push	 ebp
  00001	8b ec		 mov	 ebp, esp
  00003	83 ec 48	 sub	 esp, 72			; 00000048H
  00006	53		 push	 ebx
  00007	56		 push	 esi
  00008	57		 push	 edi

; 1390 :         int const _Result = __stdio_common_vsprintf(

  00009	8b 45 18	 mov	 eax, DWORD PTR __ArgList$[ebp]
  0000c	50		 push	 eax
  0000d	8b 4d 14	 mov	 ecx, DWORD PTR __Locale$[ebp]
  00010	51		 push	 ecx
  00011	8b 55 10	 mov	 edx, DWORD PTR __Format$[ebp]
  00014	52		 push	 edx
  00015	8b 45 0c	 mov	 eax, DWORD PTR __BufferCount$[ebp]
  00018	50		 push	 eax
  00019	8b 4d 08	 mov	 ecx, DWORD PTR __Buffer$[ebp]
  0001c	51		 push	 ecx
  0001d	e8 00 00 00 00	 call	 ___local_stdio_printf_options
  00022	8b 10		 mov	 edx, DWORD PTR [eax]
  00024	83 ca 01	 or	 edx, 1
  00027	8b 40 04	 mov	 eax, DWORD PTR [eax+4]
  0002a	50		 push	 eax
  0002b	52		 push	 edx
  0002c	ff 15 00 00 00
	00		 call	 DWORD PTR __imp____stdio_common_vsprintf
  00032	83 c4 1c	 add	 esp, 28			; 0000001cH
  00035	89 45 fc	 mov	 DWORD PTR __Result$[ebp], eax

; 1391 :             _CRT_INTERNAL_LOCAL_PRINTF_OPTIONS | _CRT_INTERNAL_PRINTF_LEGACY_VSPRINTF_NULL_TERMINATION,
; 1392 :             _Buffer, _BufferCount, _Format, _Locale, _ArgList);
; 1393 : 
; 1394 :         return _Result < 0 ? -1 : _Result;

  00038	83 7d fc 00	 cmp	 DWORD PTR __Result$[ebp], 0
  0003c	7d 09		 jge	 SHORT $LN3@vsnprintf_
  0003e	c7 45 b8 ff ff
	ff ff		 mov	 DWORD PTR tv74[ebp], -1
  00045	eb 06		 jmp	 SHORT $LN4@vsnprintf_
$LN3@vsnprintf_:
  00047	8b 45 fc	 mov	 eax, DWORD PTR __Result$[ebp]
  0004a	89 45 b8	 mov	 DWORD PTR tv74[ebp], eax
$LN4@vsnprintf_:
  0004d	8b 45 b8	 mov	 eax, DWORD PTR tv74[ebp]

; 1395 :     }

  00050	5f		 pop	 edi
  00051	5e		 pop	 esi
  00052	5b		 pop	 ebx
  00053	8b e5		 mov	 esp, ebp
  00055	5d		 pop	 ebp
  00056	c3		 ret	 0
__vsnprintf_l ENDP
_TEXT	ENDS
; Function compile flags: /Odtp /ZI
; File c:\program files (x86)\windows kits\10\include\10.0.18362.0\ucrt\stdio.h
;	COMDAT _fprintf
_TEXT	SEGMENT
__ArgList$ = -8						; size = 4
__Result$ = -4						; size = 4
__Stream$ = 8						; size = 4
__Format$ = 12						; size = 4
_fprintf PROC						; COMDAT

; 835  :     {

  00000	55		 push	 ebp
  00001	8b ec		 mov	 ebp, esp
  00003	83 ec 4c	 sub	 esp, 76			; 0000004cH
  00006	53		 push	 ebx
  00007	56		 push	 esi
  00008	57		 push	 edi

; 836  :         int _Result;
; 837  :         va_list _ArgList;
; 838  :         __crt_va_start(_ArgList, _Format);

  00009	8d 45 10	 lea	 eax, DWORD PTR __Format$[ebp+4]
  0000c	89 45 f8	 mov	 DWORD PTR __ArgList$[ebp], eax

; 839  :         _Result = _vfprintf_l(_Stream, _Format, NULL, _ArgList);

  0000f	8b 45 f8	 mov	 eax, DWORD PTR __ArgList$[ebp]
  00012	50		 push	 eax
  00013	6a 00		 push	 0
  00015	8b 4d 0c	 mov	 ecx, DWORD PTR __Format$[ebp]
  00018	51		 push	 ecx
  00019	8b 55 08	 mov	 edx, DWORD PTR __Stream$[ebp]
  0001c	52		 push	 edx
  0001d	e8 00 00 00 00	 call	 __vfprintf_l
  00022	83 c4 10	 add	 esp, 16			; 00000010H
  00025	89 45 fc	 mov	 DWORD PTR __Result$[ebp], eax

; 840  :         __crt_va_end(_ArgList);

  00028	c7 45 f8 00 00
	00 00		 mov	 DWORD PTR __ArgList$[ebp], 0

; 841  :         return _Result;

  0002f	8b 45 fc	 mov	 eax, DWORD PTR __Result$[ebp]

; 842  :     }

  00032	5f		 pop	 edi
  00033	5e		 pop	 esi
  00034	5b		 pop	 ebx
  00035	8b e5		 mov	 esp, ebp
  00037	5d		 pop	 ebp
  00038	c3		 ret	 0
_fprintf ENDP
_TEXT	ENDS
; Function compile flags: /Odtp /ZI
; File c:\program files (x86)\windows kits\10\include\10.0.18362.0\ucrt\stdio.h
;	COMDAT __vfprintf_l
_TEXT	SEGMENT
__Stream$ = 8						; size = 4
__Format$ = 12						; size = 4
__Locale$ = 16						; size = 4
__ArgList$ = 20						; size = 4
__vfprintf_l PROC					; COMDAT

; 642  :     {

  00000	55		 push	 ebp
  00001	8b ec		 mov	 ebp, esp
  00003	83 ec 40	 sub	 esp, 64			; 00000040H
  00006	53		 push	 ebx
  00007	56		 push	 esi
  00008	57		 push	 edi

; 643  :         return __stdio_common_vfprintf(_CRT_INTERNAL_LOCAL_PRINTF_OPTIONS, _Stream, _Format, _Locale, _ArgList);

  00009	8b 45 14	 mov	 eax, DWORD PTR __ArgList$[ebp]
  0000c	50		 push	 eax
  0000d	8b 4d 10	 mov	 ecx, DWORD PTR __Locale$[ebp]
  00010	51		 push	 ecx
  00011	8b 55 0c	 mov	 edx, DWORD PTR __Format$[ebp]
  00014	52		 push	 edx
  00015	8b 45 08	 mov	 eax, DWORD PTR __Stream$[ebp]
  00018	50		 push	 eax
  00019	e8 00 00 00 00	 call	 ___local_stdio_printf_options
  0001e	8b 48 04	 mov	 ecx, DWORD PTR [eax+4]
  00021	51		 push	 ecx
  00022	8b 10		 mov	 edx, DWORD PTR [eax]
  00024	52		 push	 edx
  00025	ff 15 00 00 00
	00		 call	 DWORD PTR __imp____stdio_common_vfprintf
  0002b	83 c4 18	 add	 esp, 24			; 00000018H

; 644  :     }

  0002e	5f		 pop	 edi
  0002f	5e		 pop	 esi
  00030	5b		 pop	 ebx
  00031	8b e5		 mov	 esp, ebp
  00033	5d		 pop	 ebp
  00034	c3		 ret	 0
__vfprintf_l ENDP
_TEXT	ENDS
; Function compile flags: /Odtp /ZI
; File c:\program files (x86)\windows kits\10\include\10.0.18362.0\ucrt\corecrt_stdio_config.h
;	COMDAT ___local_stdio_printf_options
_TEXT	SEGMENT
___local_stdio_printf_options PROC			; COMDAT

; 86   :     {

  00000	55		 push	 ebp
  00001	8b ec		 mov	 ebp, esp
  00003	83 ec 40	 sub	 esp, 64			; 00000040H
  00006	53		 push	 ebx
  00007	56		 push	 esi
  00008	57		 push	 edi

; 87   :         static unsigned __int64 _OptionsStorage;
; 88   :         return &_OptionsStorage;

  00009	b8 00 00 00 00	 mov	 eax, OFFSET ?_OptionsStorage@?1??__local_stdio_printf_options@@9@4_KA ; `__local_stdio_printf_options'::`2'::_OptionsStorage

; 89   :     }

  0000e	5f		 pop	 edi
  0000f	5e		 pop	 esi
  00010	5b		 pop	 ebx
  00011	8b e5		 mov	 esp, ebp
  00013	5d		 pop	 ebp
  00014	c3		 ret	 0
___local_stdio_printf_options ENDP
_TEXT	ENDS
END
