; Listing generated by Microsoft (R) Optimizing Compiler Version 19.16.27045.0 

	TITLE	C:\Users\nhv90\Projects\eech\aphavoc\source\gunships\avionics\kiowa\ki_avevn.c
	.686P
	.XMM
	include listing.inc
	.model	flat

INCLUDELIB MSVCRTD
INCLUDELIB OLDNAMES

PUBLIC	?set_kiowa_avionics_events@@YGXXZ		; set_kiowa_avionics_events
PUBLIC	?__LINE__Var@?0??toggle_lobl_loal_event@@YGXPAUEVENT@@@Z@4JA ; `toggle_lobl_loal_event'::`1'::__LINE__Var
PUBLIC	??_C@_0EP@PONOEKHI@c?3?2users?2nhv90?2projects?2eech?2ap@ ; `string'
PUBLIC	?__LINE__Var@?0??virtual_cockpit_track_target_event@@YGXPAUEVENT@@@Z@4JA ; `virtual_cockpit_track_target_event'::`1'::__LINE__Var
PUBLIC	??_C@_02DHMHPBFG@ev@				; `string'
PUBLIC	?__LINE__Var@?0??toggle_navigation_lights_event@@YGXPAUEVENT@@@Z@4JA ; `toggle_navigation_lights_event'::`1'::__LINE__Var
PUBLIC	?__LINE__Var@?0??activate_laser_event@@YGXPAUEVENT@@@Z@4JA ; `activate_laser_event'::`1'::__LINE__Var
PUBLIC	__real@3f000000
PUBLIC	__real@3f800000
EXTRN	?process_assert@@YGXPBD0H@Z:PROC		; process_assert
EXTRN	?set_event@@YGXHHHP6GXPAUEVENT@@@Z@Z:PROC	; set_event
EXTRN	?get_local_entity_weapon_available@@YGHPAUENTITY@@H@Z:PROC ; get_local_entity_weapon_available
EXTRN	?play_client_server_cpg_message@@YGHPAUENTITY@@MMHMH@Z:PROC ; play_client_server_cpg_message
EXTRN	?set_view_mode@@YGHW4VIEW_MODES@@@Z:PROC	; set_view_mode
EXTRN	?select_padlock_view_event@@YGXW4PADLOCK_MODES@@@Z:PROC ; select_padlock_view_event
EXTRN	?laser_is_active@@YGHXZ:PROC			; laser_is_active
EXTRN	?set_laser_is_active@@YGXH@Z:PROC		; set_laser_is_active
EXTRN	?eo_is_tracking_point@@YGHXZ:PROC		; eo_is_tracking_point
EXTRN	?set_hud_bob_up_overlay@@YGXXZ:PROC		; set_hud_bob_up_overlay
EXTRN	?switch_hud_mode@@YGXXZ:PROC			; switch_hud_mode
EXTRN	?clear_hud_bob_up_overlay@@YGXXZ:PROC		; clear_hud_bob_up_overlay
EXTRN	?set_gunship_weapon@@YGXH@Z:PROC		; set_gunship_weapon
EXTRN	?deactivate_kiowa_master_caution@@YGXXZ:PROC	; deactivate_kiowa_master_caution
EXTRN	?inc_kiowa_eo_zoom@@YGXXZ:PROC			; inc_kiowa_eo_zoom
EXTRN	?dec_kiowa_eo_zoom@@YGXXZ:PROC			; dec_kiowa_eo_zoom
EXTRN	?toggle_kiowa_eo_system@@YGXXZ:PROC		; toggle_kiowa_eo_system
EXTRN	?select_kiowa_main_mfd_mode@@YGXW4KIOWA_MAIN_MFD_MODES@@W4KIOWA_MAIN_MFD_LOCATIONS@@@Z:PROC ; select_kiowa_main_mfd_mode
EXTRN	?select_next_kiowa_main_mfd@@YGXW4KIOWA_MAIN_MFD_LOCATIONS@@@Z:PROC ; select_next_kiowa_main_mfd
EXTRN	?select_previous_kiowa_main_mfd@@YGXW4KIOWA_MAIN_MFD_LOCATIONS@@@Z:PROC ; select_previous_kiowa_main_mfd
EXTRN	?toggle_kiowa_main_mfd_on_off@@YGXW4KIOWA_MAIN_MFD_LOCATIONS@@@Z:PROC ; toggle_kiowa_main_mfd_on_off
EXTRN	?select_next_kiowa_pilot_tsd_ase_range@@YGXXZ:PROC ; select_next_kiowa_pilot_tsd_ase_range
EXTRN	?select_next_kiowa_co_pilot_tsd_ase_range@@YGXXZ:PROC ; select_next_kiowa_co_pilot_tsd_ase_range
EXTRN	?select_previous_kiowa_pilot_tsd_ase_range@@YGXXZ:PROC ; select_previous_kiowa_pilot_tsd_ase_range
EXTRN	?select_previous_kiowa_co_pilot_tsd_ase_range@@YGXXZ:PROC ; select_previous_kiowa_co_pilot_tsd_ase_range
EXTRN	?select_next_kiowa_pilot_tsd_declutter_level@@YGXXZ:PROC ; select_next_kiowa_pilot_tsd_declutter_level
EXTRN	?select_next_kiowa_co_pilot_tsd_declutter_level@@YGXXZ:PROC ; select_next_kiowa_co_pilot_tsd_declutter_level
EXTRN	?select_previous_kiowa_pilot_tsd_declutter_level@@YGXXZ:PROC ; select_previous_kiowa_pilot_tsd_declutter_level
EXTRN	?select_previous_kiowa_co_pilot_tsd_declutter_level@@YGXXZ:PROC ; select_previous_kiowa_co_pilot_tsd_declutter_level
EXTRN	?toggle_kiowa_ase_auto_page@@YGXXZ:PROC		; toggle_kiowa_ase_auto_page
EXTRN	?select_kiowa_target_acquisition_system@@YGXW4TARGET_ACQUISITION_SYSTEMS@@@Z:PROC ; select_kiowa_target_acquisition_system
EXTRN	?centre_kiowa_target_acquisition_system@@YGXXZ:PROC ; centre_kiowa_target_acquisition_system
EXTRN	?toggle_kiowa_show_allied_targets@@YGXXZ:PROC	; toggle_kiowa_show_allied_targets
EXTRN	?toggle_kiowa_auto_target@@YGXXZ:PROC		; toggle_kiowa_auto_target
EXTRN	?toggle_kiowa_lock_target@@YGXXZ:PROC		; toggle_kiowa_lock_target
EXTRN	?set_kiowa_lock_target@@YGXH@Z:PROC		; set_kiowa_lock_target
EXTRN	?toggle_kiowa_infra_red_jammer_manual@@YGXXZ:PROC ; toggle_kiowa_infra_red_jammer_manual
EXTRN	?get_crew_role@@YG?AW4CREW_ROLES@@XZ:PROC	; get_crew_role
EXTRN	?toggle_kiowa_canopy_doors@@YGXPAUEVENT@@@Z:PROC ; toggle_kiowa_canopy_doors
EXTRN	?null_entity_pointer_message@@3PBDB:DWORD	; null_entity_pointer_message
EXTRN	?global_options@@3UGLOBAL_OPTIONS_DATA@@A:BYTE	; global_options
EXTRN	?system_comms_model@@3W4COMMS_MODEL_TYPES@@A:DWORD ; system_comms_model
EXTRN	?overload_invalid_list_type_message@@3PBDB:DWORD ; overload_invalid_list_type_message
EXTRN	?fn_get_local_entity_parent@@3PAY0CN@P6GPAUENTITY@@PAU1@W4LIST_TYPES@@@ZA:BYTE ; fn_get_local_entity_parent
EXTRN	?overload_invalid_int_type_message@@3PBDB:DWORD	; overload_invalid_int_type_message
EXTRN	?fn_set_client_server_entity_int_value@@3PAY1BBH@1P6GXPAUENTITY@@W4INT_TYPES@@H@ZA:BYTE ; fn_set_client_server_entity_int_value
EXTRN	?fn_get_local_entity_int_value@@3PAY0BBH@P6GHPAUENTITY@@W4INT_TYPES@@@ZA:BYTE ; fn_get_local_entity_int_value
EXTRN	?gunship_entity@@3PAUENTITY@@A:DWORD		; gunship_entity
EXTRN	?view_mode@@3W4VIEW_MODES@@A:DWORD		; view_mode
EXTRN	?continuous_target_acquisition_system_steer_left_key@@3HA:DWORD ; continuous_target_acquisition_system_steer_left_key
EXTRN	?continuous_target_acquisition_system_steer_right_key@@3HA:DWORD ; continuous_target_acquisition_system_steer_right_key
EXTRN	?continuous_target_acquisition_system_steer_up_key@@3HA:DWORD ; continuous_target_acquisition_system_steer_up_key
EXTRN	?continuous_target_acquisition_system_steer_down_key@@3HA:DWORD ; continuous_target_acquisition_system_steer_down_key
EXTRN	?single_target_acquisition_system_steer_left_key@@3HA:DWORD ; single_target_acquisition_system_steer_left_key
EXTRN	?single_target_acquisition_system_steer_right_key@@3HA:DWORD ; single_target_acquisition_system_steer_right_key
EXTRN	?single_target_acquisition_system_steer_up_key@@3HA:DWORD ; single_target_acquisition_system_steer_up_key
EXTRN	?single_target_acquisition_system_steer_down_key@@3HA:DWORD ; single_target_acquisition_system_steer_down_key
EXTRN	?single_target_acquisition_system_inc_range_key@@3HA:DWORD ; single_target_acquisition_system_inc_range_key
EXTRN	?single_target_acquisition_system_dec_range_key@@3HA:DWORD ; single_target_acquisition_system_dec_range_key
EXTRN	?single_target_acquisition_system_inc_target_priority_key@@3HA:DWORD ; single_target_acquisition_system_inc_target_priority_key
EXTRN	?single_target_acquisition_system_dec_target_priority_key@@3HA:DWORD ; single_target_acquisition_system_dec_target_priority_key
EXTRN	?single_target_acquisition_system_select_next_target_key@@3HA:DWORD ; single_target_acquisition_system_select_next_target_key
EXTRN	?single_target_acquisition_system_select_previous_target_key@@3HA:DWORD ; single_target_acquisition_system_select_previous_target_key
EXTRN	?continuous_target_acquisition_system_steer_left_fast_key@@3HA:DWORD ; continuous_target_acquisition_system_steer_left_fast_key
EXTRN	?continuous_target_acquisition_system_steer_right_fast_key@@3HA:DWORD ; continuous_target_acquisition_system_steer_right_fast_key
EXTRN	?continuous_target_acquisition_system_steer_up_fast_key@@3HA:DWORD ; continuous_target_acquisition_system_steer_up_fast_key
EXTRN	?continuous_target_acquisition_system_steer_down_fast_key@@3HA:DWORD ; continuous_target_acquisition_system_steer_down_fast_key
EXTRN	?single_target_acquisition_system_steer_left_fast_key@@3HA:DWORD ; single_target_acquisition_system_steer_left_fast_key
EXTRN	?single_target_acquisition_system_steer_right_fast_key@@3HA:DWORD ; single_target_acquisition_system_steer_right_fast_key
EXTRN	?single_target_acquisition_system_steer_up_fast_key@@3HA:DWORD ; single_target_acquisition_system_steer_up_fast_key
EXTRN	?single_target_acquisition_system_steer_down_fast_key@@3HA:DWORD ; single_target_acquisition_system_steer_down_fast_key
EXTRN	?single_target_acquisition_system_inc_range_fast_key@@3HA:DWORD ; single_target_acquisition_system_inc_range_fast_key
EXTRN	?single_target_acquisition_system_dec_range_fast_key@@3HA:DWORD ; single_target_acquisition_system_dec_range_fast_key
EXTRN	?single_target_acquisition_system_inc_target_priority_fast_key@@3HA:DWORD ; single_target_acquisition_system_inc_target_priority_fast_key
EXTRN	?single_target_acquisition_system_dec_target_priority_fast_key@@3HA:DWORD ; single_target_acquisition_system_dec_target_priority_fast_key
EXTRN	?continuous_target_acquisition_system_steer_left_fine_key@@3HA:DWORD ; continuous_target_acquisition_system_steer_left_fine_key
EXTRN	?continuous_target_acquisition_system_steer_right_fine_key@@3HA:DWORD ; continuous_target_acquisition_system_steer_right_fine_key
EXTRN	?continuous_target_acquisition_system_steer_up_fine_key@@3HA:DWORD ; continuous_target_acquisition_system_steer_up_fine_key
EXTRN	?continuous_target_acquisition_system_steer_down_fine_key@@3HA:DWORD ; continuous_target_acquisition_system_steer_down_fine_key
EXTRN	?toggle_ground_stabilisation_key@@3HA:DWORD	; toggle_ground_stabilisation_key
EXTRN	?eo_sensor@@3W4TARGET_ACQUISITION_SYSTEMS@@A:DWORD ; eo_sensor
EXTRN	?night_vision_system_active@@3HA:DWORD		; night_vision_system_active
EXTRN	?kiowa_damage@@3TKIOWA_DAMAGE_FLAGS@@A:DWORD	; kiowa_damage
EXTRN	__fltused:DWORD
;	COMDAT __real@3f800000
CONST	SEGMENT
__real@3f800000 DD 03f800000r			; 1
CONST	ENDS
;	COMDAT __real@3f000000
CONST	SEGMENT
__real@3f000000 DD 03f000000r			; 0.5
CONST	ENDS
;	COMDAT ?__LINE__Var@?0??activate_laser_event@@YGXPAUEVENT@@@Z@4JA
_DATA	SEGMENT
?__LINE__Var@?0??activate_laser_event@@YGXPAUEVENT@@@Z@4JA DD 0392H ; `activate_laser_event'::`1'::__LINE__Var
_DATA	ENDS
;	COMDAT ?__LINE__Var@?0??toggle_navigation_lights_event@@YGXPAUEVENT@@@Z@4JA
_DATA	SEGMENT
?__LINE__Var@?0??toggle_navigation_lights_event@@YGXPAUEVENT@@@Z@4JA DD 0381H ; `toggle_navigation_lights_event'::`1'::__LINE__Var
_DATA	ENDS
;	COMDAT ??_C@_02DHMHPBFG@ev@
CONST	SEGMENT
??_C@_02DHMHPBFG@ev@ DB 'ev', 00H			; `string'
CONST	ENDS
;	COMDAT ?__LINE__Var@?0??virtual_cockpit_track_target_event@@YGXPAUEVENT@@@Z@4JA
_DATA	SEGMENT
?__LINE__Var@?0??virtual_cockpit_track_target_event@@YGXPAUEVENT@@@Z@4JA DD 020bH ; `virtual_cockpit_track_target_event'::`1'::__LINE__Var
_DATA	ENDS
;	COMDAT ??_C@_0EP@PONOEKHI@c?3?2users?2nhv90?2projects?2eech?2ap@
CONST	SEGMENT
??_C@_0EP@PONOEKHI@c?3?2users?2nhv90?2projects?2eech?2ap@ DB 'c:\users\nh'
	DB	'v90\projects\eech\aphavoc\source\gunships\avionics\kiowa\ki_a'
	DB	'vevn.c', 00H				; `string'
CONST	ENDS
;	COMDAT ?__LINE__Var@?0??toggle_lobl_loal_event@@YGXPAUEVENT@@@Z@4JA
_DATA	SEGMENT
?__LINE__Var@?0??toggle_lobl_loal_event@@YGXPAUEVENT@@@Z@4JA DD 01f2H ; `toggle_lobl_loal_event'::`1'::__LINE__Var
_DATA	ENDS
; Function compile flags: /Odtp /ZI
; File c:\users\nhv90\projects\eech\aphavoc\source\gunships\avionics\kiowa\ki_avevn.c
;	COMDAT ?activate_laser_event@@YGXPAUEVENT@@@Z
_TEXT	SEGMENT
tv92 = -76						; size = 4
tv84 = -72						; size = 4
tv76 = -68						; size = 4
_ev$ = 8						; size = 4
?activate_laser_event@@YGXPAUEVENT@@@Z PROC		; activate_laser_event, COMDAT

; 914  : {

  00000	55		 push	 ebp
  00001	8b ec		 mov	 ebp, esp
  00003	83 ec 4c	 sub	 esp, 76			; 0000004cH
  00006	53		 push	 ebx
  00007	56		 push	 esi
  00008	57		 push	 edi

; 915  : 	if (!laser_is_active() && !kiowa_damage.laser_designator)

  00009	e8 00 00 00 00	 call	 ?laser_is_active@@YGHXZ	; laser_is_active
  0000e	85 c0		 test	 eax, eax
  00010	0f 85 c2 00 00
	00		 jne	 $LN2@activate_l
  00016	a1 00 00 00 00	 mov	 eax, DWORD PTR ?kiowa_damage@@3TKIOWA_DAMAGE_FLAGS@@A ; kiowa_damage
  0001b	c1 e8 02	 shr	 eax, 2
  0001e	83 e0 01	 and	 eax, 1
  00021	0f 85 b1 00 00
	00		 jne	 $LN2@activate_l

; 916  : 		set_laser_is_active(eo_is_tracking_point() || get_local_entity_parent(get_gunship_entity(), LIST_TYPE_TARGET));

  00027	e8 00 00 00 00	 call	 ?eo_is_tracking_point@@YGHXZ ; eo_is_tracking_point
  0002c	85 c0		 test	 eax, eax
  0002e	0f 85 92 00 00
	00		 jne	 $LN9@activate_l
  00034	83 3d 00 00 00
	00 00		 cmp	 DWORD PTR ?gunship_entity@@3PAUENTITY@@A, 0 ; gunship_entity
  0003b	74 0c		 je	 SHORT $LN5@activate_l
  0003d	a1 00 00 00 00	 mov	 eax, DWORD PTR ?gunship_entity@@3PAUENTITY@@A ; gunship_entity
  00042	8b 08		 mov	 ecx, DWORD PTR [eax]
  00044	89 4d bc	 mov	 DWORD PTR tv76[ebp], ecx
  00047	eb 21		 jmp	 SHORT $LN6@activate_l
$LN5@activate_l:
  00049	8b 15 00 00 00
	00		 mov	 edx, DWORD PTR ?__LINE__Var@?0??activate_laser_event@@YGXPAUEVENT@@@Z@4JA
  0004f	83 c2 02	 add	 edx, 2
  00052	52		 push	 edx
  00053	68 00 00 00 00	 push	 OFFSET ??_C@_0EP@PONOEKHI@c?3?2users?2nhv90?2projects?2eech?2ap@
  00058	a1 00 00 00 00	 mov	 eax, DWORD PTR ?null_entity_pointer_message@@3PBDB ; null_entity_pointer_message
  0005d	50		 push	 eax
  0005e	e8 00 00 00 00	 call	 ?process_assert@@YGXPBD0H@Z ; process_assert
  00063	c7 45 bc 00 00
	00 00		 mov	 DWORD PTR tv76[ebp], 0
$LN6@activate_l:
  0006a	b9 01 00 00 00	 mov	 ecx, 1
  0006f	85 c9		 test	 ecx, ecx
  00071	74 09		 je	 SHORT $LN7@activate_l
  00073	c7 45 b8 26 00
	00 00		 mov	 DWORD PTR tv84[ebp], 38	; 00000026H
  0007a	eb 21		 jmp	 SHORT $LN8@activate_l
$LN7@activate_l:
  0007c	8b 15 00 00 00
	00		 mov	 edx, DWORD PTR ?__LINE__Var@?0??activate_laser_event@@YGXPAUEVENT@@@Z@4JA
  00082	83 c2 02	 add	 edx, 2
  00085	52		 push	 edx
  00086	68 00 00 00 00	 push	 OFFSET ??_C@_0EP@PONOEKHI@c?3?2users?2nhv90?2projects?2eech?2ap@
  0008b	a1 00 00 00 00	 mov	 eax, DWORD PTR ?overload_invalid_list_type_message@@3PBDB ; overload_invalid_list_type_message
  00090	50		 push	 eax
  00091	e8 00 00 00 00	 call	 ?process_assert@@YGXPBD0H@Z ; process_assert
  00096	c7 45 b8 00 00
	00 00		 mov	 DWORD PTR tv84[ebp], 0
$LN8@activate_l:
  0009d	6a 26		 push	 38			; 00000026H
  0009f	8b 0d 00 00 00
	00		 mov	 ecx, DWORD PTR ?gunship_entity@@3PAUENTITY@@A ; gunship_entity
  000a5	51		 push	 ecx
  000a6	69 55 bc b4 00
	00 00		 imul	 edx, DWORD PTR tv76[ebp], 180
  000ad	8b 45 b8	 mov	 eax, DWORD PTR tv84[ebp]
  000b0	8b 8c 82 00 00
	00 00		 mov	 ecx, DWORD PTR ?fn_get_local_entity_parent@@3PAY0CN@P6GPAUENTITY@@PAU1@W4LIST_TYPES@@@ZA[edx+eax*4]
  000b7	ff d1		 call	 ecx
  000b9	85 c0		 test	 eax, eax
  000bb	75 09		 jne	 SHORT $LN9@activate_l
  000bd	c7 45 b4 00 00
	00 00		 mov	 DWORD PTR tv92[ebp], 0
  000c4	eb 07		 jmp	 SHORT $LN10@activate_l
$LN9@activate_l:
  000c6	c7 45 b4 01 00
	00 00		 mov	 DWORD PTR tv92[ebp], 1
$LN10@activate_l:
  000cd	8b 55 b4	 mov	 edx, DWORD PTR tv92[ebp]
  000d0	52		 push	 edx
  000d1	e8 00 00 00 00	 call	 ?set_laser_is_active@@YGXH@Z ; set_laser_is_active

; 917  : 	else

  000d6	eb 07		 jmp	 SHORT $LN1@activate_l
$LN2@activate_l:

; 918  : 		set_laser_is_active(FALSE);

  000d8	6a 00		 push	 0
  000da	e8 00 00 00 00	 call	 ?set_laser_is_active@@YGXH@Z ; set_laser_is_active
$LN1@activate_l:

; 919  : }

  000df	5f		 pop	 edi
  000e0	5e		 pop	 esi
  000e1	5b		 pop	 ebx
  000e2	8b e5		 mov	 esp, ebp
  000e4	5d		 pop	 ebp
  000e5	c2 04 00	 ret	 4
?activate_laser_event@@YGXPAUEVENT@@@Z ENDP		; activate_laser_event
_TEXT	ENDS
; Function compile flags: /Odtp /ZI
; File c:\users\nhv90\projects\eech\aphavoc\source\gunships\avionics\kiowa\ki_avevn.c
;	COMDAT ?toggle_navigation_lights_event@@YGXPAUEVENT@@@Z
_TEXT	SEGMENT
tv131 = -76						; size = 4
tv78 = -76						; size = 4
tv91 = -72						; size = 4
tv70 = -72						; size = 4
_status$ = -4						; size = 4
_ev$ = 8						; size = 4
?toggle_navigation_lights_event@@YGXPAUEVENT@@@Z PROC	; toggle_navigation_lights_event, COMDAT

; 897  : {

  00000	55		 push	 ebp
  00001	8b ec		 mov	 ebp, esp
  00003	83 ec 4c	 sub	 esp, 76			; 0000004cH
  00006	53		 push	 ebx
  00007	56		 push	 esi
  00008	57		 push	 edi

; 898  : 	int
; 899  : 		status;
; 900  : 
; 901  : 	status = get_local_entity_int_value (get_gunship_entity (), INT_TYPE_LIGHTS_ON);

  00009	83 3d 00 00 00
	00 00		 cmp	 DWORD PTR ?gunship_entity@@3PAUENTITY@@A, 0 ; gunship_entity
  00010	74 0c		 je	 SHORT $LN3@toggle_nav
  00012	a1 00 00 00 00	 mov	 eax, DWORD PTR ?gunship_entity@@3PAUENTITY@@A ; gunship_entity
  00017	8b 08		 mov	 ecx, DWORD PTR [eax]
  00019	89 4d b8	 mov	 DWORD PTR tv70[ebp], ecx
  0001c	eb 21		 jmp	 SHORT $LN4@toggle_nav
$LN3@toggle_nav:
  0001e	8b 15 00 00 00
	00		 mov	 edx, DWORD PTR ?__LINE__Var@?0??toggle_navigation_lights_event@@YGXPAUEVENT@@@Z@4JA
  00024	83 c2 04	 add	 edx, 4
  00027	52		 push	 edx
  00028	68 00 00 00 00	 push	 OFFSET ??_C@_0EP@PONOEKHI@c?3?2users?2nhv90?2projects?2eech?2ap@
  0002d	a1 00 00 00 00	 mov	 eax, DWORD PTR ?null_entity_pointer_message@@3PBDB ; null_entity_pointer_message
  00032	50		 push	 eax
  00033	e8 00 00 00 00	 call	 ?process_assert@@YGXPBD0H@Z ; process_assert
  00038	c7 45 b8 00 00
	00 00		 mov	 DWORD PTR tv70[ebp], 0
$LN4@toggle_nav:
  0003f	b9 01 00 00 00	 mov	 ecx, 1
  00044	85 c9		 test	 ecx, ecx
  00046	74 09		 je	 SHORT $LN5@toggle_nav
  00048	c7 45 b4 7a 00
	00 00		 mov	 DWORD PTR tv78[ebp], 122 ; 0000007aH
  0004f	eb 21		 jmp	 SHORT $LN6@toggle_nav
$LN5@toggle_nav:
  00051	8b 15 00 00 00
	00		 mov	 edx, DWORD PTR ?__LINE__Var@?0??toggle_navigation_lights_event@@YGXPAUEVENT@@@Z@4JA
  00057	83 c2 04	 add	 edx, 4
  0005a	52		 push	 edx
  0005b	68 00 00 00 00	 push	 OFFSET ??_C@_0EP@PONOEKHI@c?3?2users?2nhv90?2projects?2eech?2ap@
  00060	a1 00 00 00 00	 mov	 eax, DWORD PTR ?overload_invalid_int_type_message@@3PBDB ; overload_invalid_int_type_message
  00065	50		 push	 eax
  00066	e8 00 00 00 00	 call	 ?process_assert@@YGXPBD0H@Z ; process_assert
  0006b	c7 45 b4 00 00
	00 00		 mov	 DWORD PTR tv78[ebp], 0
$LN6@toggle_nav:
  00072	6a 7a		 push	 122			; 0000007aH
  00074	8b 0d 00 00 00
	00		 mov	 ecx, DWORD PTR ?gunship_entity@@3PAUENTITY@@A ; gunship_entity
  0007a	51		 push	 ecx
  0007b	69 55 b8 5c 04
	00 00		 imul	 edx, DWORD PTR tv70[ebp], 1116
  00082	8b 45 b4	 mov	 eax, DWORD PTR tv78[ebp]
  00085	8b 8c 82 00 00
	00 00		 mov	 ecx, DWORD PTR ?fn_get_local_entity_int_value@@3PAY0BBH@P6GHPAUENTITY@@W4INT_TYPES@@@ZA[edx+eax*4]
  0008c	ff d1		 call	 ecx
  0008e	89 45 fc	 mov	 DWORD PTR _status$[ebp], eax

; 902  : 
; 903  : 	status ^= 1;

  00091	8b 45 fc	 mov	 eax, DWORD PTR _status$[ebp]
  00094	83 f0 01	 xor	 eax, 1
  00097	89 45 fc	 mov	 DWORD PTR _status$[ebp], eax

; 904  : 
; 905  : 	set_client_server_entity_int_value (get_gunship_entity (), INT_TYPE_LIGHTS_ON, status);

  0009a	83 3d 00 00 00
	00 00		 cmp	 DWORD PTR ?gunship_entity@@3PAUENTITY@@A, 0 ; gunship_entity
  000a1	74 0c		 je	 SHORT $LN7@toggle_nav
  000a3	a1 00 00 00 00	 mov	 eax, DWORD PTR ?gunship_entity@@3PAUENTITY@@A ; gunship_entity
  000a8	8b 08		 mov	 ecx, DWORD PTR [eax]
  000aa	89 4d b8	 mov	 DWORD PTR tv91[ebp], ecx
  000ad	eb 21		 jmp	 SHORT $LN8@toggle_nav
$LN7@toggle_nav:
  000af	8b 15 00 00 00
	00		 mov	 edx, DWORD PTR ?__LINE__Var@?0??toggle_navigation_lights_event@@YGXPAUEVENT@@@Z@4JA
  000b5	83 c2 08	 add	 edx, 8
  000b8	52		 push	 edx
  000b9	68 00 00 00 00	 push	 OFFSET ??_C@_0EP@PONOEKHI@c?3?2users?2nhv90?2projects?2eech?2ap@
  000be	a1 00 00 00 00	 mov	 eax, DWORD PTR ?null_entity_pointer_message@@3PBDB ; null_entity_pointer_message
  000c3	50		 push	 eax
  000c4	e8 00 00 00 00	 call	 ?process_assert@@YGXPBD0H@Z ; process_assert
  000c9	c7 45 b8 00 00
	00 00		 mov	 DWORD PTR tv91[ebp], 0
$LN8@toggle_nav:
  000d0	b9 01 00 00 00	 mov	 ecx, 1
  000d5	85 c9		 test	 ecx, ecx
  000d7	74 09		 je	 SHORT $LN9@toggle_nav
  000d9	c7 45 b4 7a 00
	00 00		 mov	 DWORD PTR tv131[ebp], 122 ; 0000007aH
  000e0	eb 21		 jmp	 SHORT $LN10@toggle_nav
$LN9@toggle_nav:
  000e2	8b 15 00 00 00
	00		 mov	 edx, DWORD PTR ?__LINE__Var@?0??toggle_navigation_lights_event@@YGXPAUEVENT@@@Z@4JA
  000e8	83 c2 08	 add	 edx, 8
  000eb	52		 push	 edx
  000ec	68 00 00 00 00	 push	 OFFSET ??_C@_0EP@PONOEKHI@c?3?2users?2nhv90?2projects?2eech?2ap@
  000f1	a1 00 00 00 00	 mov	 eax, DWORD PTR ?overload_invalid_int_type_message@@3PBDB ; overload_invalid_int_type_message
  000f6	50		 push	 eax
  000f7	e8 00 00 00 00	 call	 ?process_assert@@YGXPBD0H@Z ; process_assert
  000fc	c7 45 b4 00 00
	00 00		 mov	 DWORD PTR tv131[ebp], 0
$LN10@toggle_nav:
  00103	8b 4d fc	 mov	 ecx, DWORD PTR _status$[ebp]
  00106	51		 push	 ecx
  00107	6a 7a		 push	 122			; 0000007aH
  00109	8b 15 00 00 00
	00		 mov	 edx, DWORD PTR ?gunship_entity@@3PAUENTITY@@A ; gunship_entity
  0010f	52		 push	 edx
  00110	69 45 b8 b8 08
	00 00		 imul	 eax, DWORD PTR tv91[ebp], 2232
  00117	8b 4d b4	 mov	 ecx, DWORD PTR tv131[ebp]
  0011a	8d 94 c8 00 00
	00 00		 lea	 edx, DWORD PTR ?fn_set_client_server_entity_int_value@@3PAY1BBH@1P6GXPAUENTITY@@W4INT_TYPES@@H@ZA[eax+ecx*8]
  00121	a1 00 00 00 00	 mov	 eax, DWORD PTR ?system_comms_model@@3W4COMMS_MODEL_TYPES@@A ; system_comms_model
  00126	8b 0c 82	 mov	 ecx, DWORD PTR [edx+eax*4]
  00129	ff d1		 call	 ecx

; 906  : }

  0012b	5f		 pop	 edi
  0012c	5e		 pop	 esi
  0012d	5b		 pop	 ebx
  0012e	8b e5		 mov	 esp, ebp
  00130	5d		 pop	 ebp
  00131	c2 04 00	 ret	 4
?toggle_navigation_lights_event@@YGXPAUEVENT@@@Z ENDP	; toggle_navigation_lights_event
_TEXT	ENDS
; Function compile flags: /Odtp /ZI
; File c:\users\nhv90\projects\eech\aphavoc\source\gunships\avionics\kiowa\ki_avevn.c
;	COMDAT ?clear_hud_bob_up_overlay_event@@YGXPAUEVENT@@@Z
_TEXT	SEGMENT
_ev$ = 8						; size = 4
?clear_hud_bob_up_overlay_event@@YGXPAUEVENT@@@Z PROC	; clear_hud_bob_up_overlay_event, COMDAT

; 888  : {

  00000	55		 push	 ebp
  00001	8b ec		 mov	 ebp, esp
  00003	83 ec 40	 sub	 esp, 64			; 00000040H
  00006	53		 push	 ebx
  00007	56		 push	 esi
  00008	57		 push	 edi

; 889  : 	clear_hud_bob_up_overlay ();

  00009	e8 00 00 00 00	 call	 ?clear_hud_bob_up_overlay@@YGXXZ ; clear_hud_bob_up_overlay

; 890  : }

  0000e	5f		 pop	 edi
  0000f	5e		 pop	 esi
  00010	5b		 pop	 ebx
  00011	8b e5		 mov	 esp, ebp
  00013	5d		 pop	 ebp
  00014	c2 04 00	 ret	 4
?clear_hud_bob_up_overlay_event@@YGXPAUEVENT@@@Z ENDP	; clear_hud_bob_up_overlay_event
_TEXT	ENDS
; Function compile flags: /Odtp /ZI
; File c:\users\nhv90\projects\eech\aphavoc\source\gunships\avionics\kiowa\ki_avevn.c
;	COMDAT ?switch_hud_mode_event@@YGXPAUEVENT@@@Z
_TEXT	SEGMENT
_ev$ = 8						; size = 4
?switch_hud_mode_event@@YGXPAUEVENT@@@Z PROC		; switch_hud_mode_event, COMDAT

; 880  : {

  00000	55		 push	 ebp
  00001	8b ec		 mov	 ebp, esp
  00003	83 ec 40	 sub	 esp, 64			; 00000040H
  00006	53		 push	 ebx
  00007	56		 push	 esi
  00008	57		 push	 edi

; 881  : 	switch_hud_mode();

  00009	e8 00 00 00 00	 call	 ?switch_hud_mode@@YGXXZ	; switch_hud_mode

; 882  : }

  0000e	5f		 pop	 edi
  0000f	5e		 pop	 esi
  00010	5b		 pop	 ebx
  00011	8b e5		 mov	 esp, ebp
  00013	5d		 pop	 ebp
  00014	c2 04 00	 ret	 4
?switch_hud_mode_event@@YGXPAUEVENT@@@Z ENDP		; switch_hud_mode_event
_TEXT	ENDS
; Function compile flags: /Odtp /ZI
; File c:\users\nhv90\projects\eech\aphavoc\source\gunships\avionics\kiowa\ki_avevn.c
;	COMDAT ?set_hud_bob_up_overlay_event@@YGXPAUEVENT@@@Z
_TEXT	SEGMENT
_ev$ = 8						; size = 4
?set_hud_bob_up_overlay_event@@YGXPAUEVENT@@@Z PROC	; set_hud_bob_up_overlay_event, COMDAT

; 871  : {

  00000	55		 push	 ebp
  00001	8b ec		 mov	 ebp, esp
  00003	83 ec 40	 sub	 esp, 64			; 00000040H
  00006	53		 push	 ebx
  00007	56		 push	 esi
  00008	57		 push	 edi

; 872  : 	set_hud_bob_up_overlay ();

  00009	e8 00 00 00 00	 call	 ?set_hud_bob_up_overlay@@YGXXZ ; set_hud_bob_up_overlay

; 873  : }

  0000e	5f		 pop	 edi
  0000f	5e		 pop	 esi
  00010	5b		 pop	 ebx
  00011	8b e5		 mov	 esp, ebp
  00013	5d		 pop	 ebp
  00014	c2 04 00	 ret	 4
?set_hud_bob_up_overlay_event@@YGXPAUEVENT@@@Z ENDP	; set_hud_bob_up_overlay_event
_TEXT	ENDS
; Function compile flags: /Odtp /ZI
; File c:\users\nhv90\projects\eech\aphavoc\source\gunships\avionics\kiowa\ki_avevn.c
;	COMDAT ?toggle_infra_red_jammer_event@@YGXPAUEVENT@@@Z
_TEXT	SEGMENT
_ev$ = 8						; size = 4
?toggle_infra_red_jammer_event@@YGXPAUEVENT@@@Z PROC	; toggle_infra_red_jammer_event, COMDAT

; 862  : {

  00000	55		 push	 ebp
  00001	8b ec		 mov	 ebp, esp
  00003	83 ec 40	 sub	 esp, 64			; 00000040H
  00006	53		 push	 ebx
  00007	56		 push	 esi
  00008	57		 push	 edi

; 863  : 	toggle_kiowa_infra_red_jammer_manual ();

  00009	e8 00 00 00 00	 call	 ?toggle_kiowa_infra_red_jammer_manual@@YGXXZ ; toggle_kiowa_infra_red_jammer_manual

; 864  : }

  0000e	5f		 pop	 edi
  0000f	5e		 pop	 esi
  00010	5b		 pop	 ebx
  00011	8b e5		 mov	 esp, ebp
  00013	5d		 pop	 ebp
  00014	c2 04 00	 ret	 4
?toggle_infra_red_jammer_event@@YGXPAUEVENT@@@Z ENDP	; toggle_infra_red_jammer_event
_TEXT	ENDS
; Function compile flags: /Odtp /ZI
; File c:\users\nhv90\projects\eech\aphavoc\source\gunships\avionics\kiowa\ki_avevn.c
;	COMDAT ?select_previous_center_mfd_event@@YGXPAUEVENT@@@Z
_TEXT	SEGMENT
_ev$ = 8						; size = 4
?select_previous_center_mfd_event@@YGXPAUEVENT@@@Z PROC	; select_previous_center_mfd_event, COMDAT

; 853  : {

  00000	55		 push	 ebp
  00001	8b ec		 mov	 ebp, esp
  00003	83 ec 40	 sub	 esp, 64			; 00000040H
  00006	53		 push	 ebx
  00007	56		 push	 esi
  00008	57		 push	 edi

; 854  : 	select_previous_kiowa_main_mfd(KIOWA_MAIN_MFD_LOCATION_CENTER);

  00009	6a 02		 push	 2
  0000b	e8 00 00 00 00	 call	 ?select_previous_kiowa_main_mfd@@YGXW4KIOWA_MAIN_MFD_LOCATIONS@@@Z ; select_previous_kiowa_main_mfd

; 855  : }

  00010	5f		 pop	 edi
  00011	5e		 pop	 esi
  00012	5b		 pop	 ebx
  00013	8b e5		 mov	 esp, ebp
  00015	5d		 pop	 ebp
  00016	c2 04 00	 ret	 4
?select_previous_center_mfd_event@@YGXPAUEVENT@@@Z ENDP	; select_previous_center_mfd_event
_TEXT	ENDS
; Function compile flags: /Odtp /ZI
; File c:\users\nhv90\projects\eech\aphavoc\source\gunships\avionics\kiowa\ki_avevn.c
;	COMDAT ?select_next_center_mfd_event@@YGXPAUEVENT@@@Z
_TEXT	SEGMENT
_ev$ = 8						; size = 4
?select_next_center_mfd_event@@YGXPAUEVENT@@@Z PROC	; select_next_center_mfd_event, COMDAT

; 844  : {

  00000	55		 push	 ebp
  00001	8b ec		 mov	 ebp, esp
  00003	83 ec 40	 sub	 esp, 64			; 00000040H
  00006	53		 push	 ebx
  00007	56		 push	 esi
  00008	57		 push	 edi

; 845  : 	select_next_kiowa_main_mfd(KIOWA_MAIN_MFD_LOCATION_CENTER);

  00009	6a 02		 push	 2
  0000b	e8 00 00 00 00	 call	 ?select_next_kiowa_main_mfd@@YGXW4KIOWA_MAIN_MFD_LOCATIONS@@@Z ; select_next_kiowa_main_mfd

; 846  : }

  00010	5f		 pop	 edi
  00011	5e		 pop	 esi
  00012	5b		 pop	 ebx
  00013	8b e5		 mov	 esp, ebp
  00015	5d		 pop	 ebp
  00016	c2 04 00	 ret	 4
?select_next_center_mfd_event@@YGXPAUEVENT@@@Z ENDP	; select_next_center_mfd_event
_TEXT	ENDS
; Function compile flags: /Odtp /ZI
; File c:\users\nhv90\projects\eech\aphavoc\source\gunships\avionics\kiowa\ki_avevn.c
;	COMDAT ?toggle_rhs_main_mfd_on_off_event@@YGXPAUEVENT@@@Z
_TEXT	SEGMENT
_ev$ = 8						; size = 4
?toggle_rhs_main_mfd_on_off_event@@YGXPAUEVENT@@@Z PROC	; toggle_rhs_main_mfd_on_off_event, COMDAT

; 835  : {

  00000	55		 push	 ebp
  00001	8b ec		 mov	 ebp, esp
  00003	83 ec 40	 sub	 esp, 64			; 00000040H
  00006	53		 push	 ebx
  00007	56		 push	 esi
  00008	57		 push	 edi

; 836  : 	toggle_kiowa_main_mfd_on_off (KIOWA_MAIN_MFD_LOCATION_PILOT);

  00009	6a 01		 push	 1
  0000b	e8 00 00 00 00	 call	 ?toggle_kiowa_main_mfd_on_off@@YGXW4KIOWA_MAIN_MFD_LOCATIONS@@@Z ; toggle_kiowa_main_mfd_on_off

; 837  : }

  00010	5f		 pop	 edi
  00011	5e		 pop	 esi
  00012	5b		 pop	 ebx
  00013	8b e5		 mov	 esp, ebp
  00015	5d		 pop	 ebp
  00016	c2 04 00	 ret	 4
?toggle_rhs_main_mfd_on_off_event@@YGXPAUEVENT@@@Z ENDP	; toggle_rhs_main_mfd_on_off_event
_TEXT	ENDS
; Function compile flags: /Odtp /ZI
; File c:\users\nhv90\projects\eech\aphavoc\source\gunships\avionics\kiowa\ki_avevn.c
;	COMDAT ?toggle_lhs_main_mfd_on_off_event@@YGXPAUEVENT@@@Z
_TEXT	SEGMENT
_ev$ = 8						; size = 4
?toggle_lhs_main_mfd_on_off_event@@YGXPAUEVENT@@@Z PROC	; toggle_lhs_main_mfd_on_off_event, COMDAT

; 826  : {

  00000	55		 push	 ebp
  00001	8b ec		 mov	 ebp, esp
  00003	83 ec 40	 sub	 esp, 64			; 00000040H
  00006	53		 push	 ebx
  00007	56		 push	 esi
  00008	57		 push	 edi

; 827  : 	toggle_kiowa_main_mfd_on_off (KIOWA_MAIN_MFD_LOCATION_CO_PILOT);

  00009	6a 00		 push	 0
  0000b	e8 00 00 00 00	 call	 ?toggle_kiowa_main_mfd_on_off@@YGXW4KIOWA_MAIN_MFD_LOCATIONS@@@Z ; toggle_kiowa_main_mfd_on_off

; 828  : }

  00010	5f		 pop	 edi
  00011	5e		 pop	 esi
  00012	5b		 pop	 ebx
  00013	8b e5		 mov	 esp, ebp
  00015	5d		 pop	 ebp
  00016	c2 04 00	 ret	 4
?toggle_lhs_main_mfd_on_off_event@@YGXPAUEVENT@@@Z ENDP	; toggle_lhs_main_mfd_on_off_event
_TEXT	ENDS
; Function compile flags: /Odtp /ZI
; File c:\users\nhv90\projects\eech\aphavoc\source\gunships\avionics\kiowa\ki_avevn.c
;	COMDAT ?select_rhs_mission_main_mfd_event@@YGXPAUEVENT@@@Z
_TEXT	SEGMENT
_ev$ = 8						; size = 4
?select_rhs_mission_main_mfd_event@@YGXPAUEVENT@@@Z PROC ; select_rhs_mission_main_mfd_event, COMDAT

; 817  : {

  00000	55		 push	 ebp
  00001	8b ec		 mov	 ebp, esp
  00003	83 ec 40	 sub	 esp, 64			; 00000040H
  00006	53		 push	 ebx
  00007	56		 push	 esi
  00008	57		 push	 edi

; 818  : 	select_kiowa_main_mfd_mode (KIOWA_MAIN_MFD_MODE_MISSION, KIOWA_MAIN_MFD_LOCATION_PILOT);

  00009	6a 01		 push	 1
  0000b	6a 0a		 push	 10			; 0000000aH
  0000d	e8 00 00 00 00	 call	 ?select_kiowa_main_mfd_mode@@YGXW4KIOWA_MAIN_MFD_MODES@@W4KIOWA_MAIN_MFD_LOCATIONS@@@Z ; select_kiowa_main_mfd_mode

; 819  : }

  00012	5f		 pop	 edi
  00013	5e		 pop	 esi
  00014	5b		 pop	 ebx
  00015	8b e5		 mov	 esp, ebp
  00017	5d		 pop	 ebp
  00018	c2 04 00	 ret	 4
?select_rhs_mission_main_mfd_event@@YGXPAUEVENT@@@Z ENDP ; select_rhs_mission_main_mfd_event
_TEXT	ENDS
; Function compile flags: /Odtp /ZI
; File c:\users\nhv90\projects\eech\aphavoc\source\gunships\avionics\kiowa\ki_avevn.c
;	COMDAT ?select_lhs_mission_main_mfd_event@@YGXPAUEVENT@@@Z
_TEXT	SEGMENT
_ev$ = 8						; size = 4
?select_lhs_mission_main_mfd_event@@YGXPAUEVENT@@@Z PROC ; select_lhs_mission_main_mfd_event, COMDAT

; 808  : {

  00000	55		 push	 ebp
  00001	8b ec		 mov	 ebp, esp
  00003	83 ec 40	 sub	 esp, 64			; 00000040H
  00006	53		 push	 ebx
  00007	56		 push	 esi
  00008	57		 push	 edi

; 809  : 	select_kiowa_main_mfd_mode (KIOWA_MAIN_MFD_MODE_MISSION, KIOWA_MAIN_MFD_LOCATION_CO_PILOT);

  00009	6a 00		 push	 0
  0000b	6a 0a		 push	 10			; 0000000aH
  0000d	e8 00 00 00 00	 call	 ?select_kiowa_main_mfd_mode@@YGXW4KIOWA_MAIN_MFD_MODES@@W4KIOWA_MAIN_MFD_LOCATIONS@@@Z ; select_kiowa_main_mfd_mode

; 810  : }

  00012	5f		 pop	 edi
  00013	5e		 pop	 esi
  00014	5b		 pop	 ebx
  00015	8b e5		 mov	 esp, ebp
  00017	5d		 pop	 ebp
  00018	c2 04 00	 ret	 4
?select_lhs_mission_main_mfd_event@@YGXPAUEVENT@@@Z ENDP ; select_lhs_mission_main_mfd_event
_TEXT	ENDS
; Function compile flags: /Odtp /ZI
; File c:\users\nhv90\projects\eech\aphavoc\source\gunships\avionics\kiowa\ki_avevn.c
;	COMDAT ?select_rhs_flight_main_mfd_event@@YGXPAUEVENT@@@Z
_TEXT	SEGMENT
_ev$ = 8						; size = 4
?select_rhs_flight_main_mfd_event@@YGXPAUEVENT@@@Z PROC	; select_rhs_flight_main_mfd_event, COMDAT

; 799  : {

  00000	55		 push	 ebp
  00001	8b ec		 mov	 ebp, esp
  00003	83 ec 40	 sub	 esp, 64			; 00000040H
  00006	53		 push	 ebx
  00007	56		 push	 esi
  00008	57		 push	 edi

; 800  : 	select_kiowa_main_mfd_mode (KIOWA_MAIN_MFD_MODE_FLIGHT, KIOWA_MAIN_MFD_LOCATION_PILOT);

  00009	6a 01		 push	 1
  0000b	6a 09		 push	 9
  0000d	e8 00 00 00 00	 call	 ?select_kiowa_main_mfd_mode@@YGXW4KIOWA_MAIN_MFD_MODES@@W4KIOWA_MAIN_MFD_LOCATIONS@@@Z ; select_kiowa_main_mfd_mode

; 801  : }

  00012	5f		 pop	 edi
  00013	5e		 pop	 esi
  00014	5b		 pop	 ebx
  00015	8b e5		 mov	 esp, ebp
  00017	5d		 pop	 ebp
  00018	c2 04 00	 ret	 4
?select_rhs_flight_main_mfd_event@@YGXPAUEVENT@@@Z ENDP	; select_rhs_flight_main_mfd_event
_TEXT	ENDS
; Function compile flags: /Odtp /ZI
; File c:\users\nhv90\projects\eech\aphavoc\source\gunships\avionics\kiowa\ki_avevn.c
;	COMDAT ?select_lhs_flight_main_mfd_event@@YGXPAUEVENT@@@Z
_TEXT	SEGMENT
_ev$ = 8						; size = 4
?select_lhs_flight_main_mfd_event@@YGXPAUEVENT@@@Z PROC	; select_lhs_flight_main_mfd_event, COMDAT

; 790  : {

  00000	55		 push	 ebp
  00001	8b ec		 mov	 ebp, esp
  00003	83 ec 40	 sub	 esp, 64			; 00000040H
  00006	53		 push	 ebx
  00007	56		 push	 esi
  00008	57		 push	 edi

; 791  : 	select_kiowa_main_mfd_mode (KIOWA_MAIN_MFD_MODE_FLIGHT, KIOWA_MAIN_MFD_LOCATION_CO_PILOT);

  00009	6a 00		 push	 0
  0000b	6a 09		 push	 9
  0000d	e8 00 00 00 00	 call	 ?select_kiowa_main_mfd_mode@@YGXW4KIOWA_MAIN_MFD_MODES@@W4KIOWA_MAIN_MFD_LOCATIONS@@@Z ; select_kiowa_main_mfd_mode

; 792  : }

  00012	5f		 pop	 edi
  00013	5e		 pop	 esi
  00014	5b		 pop	 ebx
  00015	8b e5		 mov	 esp, ebp
  00017	5d		 pop	 ebp
  00018	c2 04 00	 ret	 4
?select_lhs_flight_main_mfd_event@@YGXPAUEVENT@@@Z ENDP	; select_lhs_flight_main_mfd_event
_TEXT	ENDS
; Function compile flags: /Odtp /ZI
; File c:\users\nhv90\projects\eech\aphavoc\source\gunships\avionics\kiowa\ki_avevn.c
;	COMDAT ?select_rhs_engine_main_mfd_event@@YGXPAUEVENT@@@Z
_TEXT	SEGMENT
_ev$ = 8						; size = 4
?select_rhs_engine_main_mfd_event@@YGXPAUEVENT@@@Z PROC	; select_rhs_engine_main_mfd_event, COMDAT

; 781  : {

  00000	55		 push	 ebp
  00001	8b ec		 mov	 ebp, esp
  00003	83 ec 40	 sub	 esp, 64			; 00000040H
  00006	53		 push	 ebx
  00007	56		 push	 esi
  00008	57		 push	 edi

; 782  : 	select_kiowa_main_mfd_mode (KIOWA_MAIN_MFD_MODE_ENGINE, KIOWA_MAIN_MFD_LOCATION_PILOT);

  00009	6a 01		 push	 1
  0000b	6a 08		 push	 8
  0000d	e8 00 00 00 00	 call	 ?select_kiowa_main_mfd_mode@@YGXW4KIOWA_MAIN_MFD_MODES@@W4KIOWA_MAIN_MFD_LOCATIONS@@@Z ; select_kiowa_main_mfd_mode

; 783  : }

  00012	5f		 pop	 edi
  00013	5e		 pop	 esi
  00014	5b		 pop	 ebx
  00015	8b e5		 mov	 esp, ebp
  00017	5d		 pop	 ebp
  00018	c2 04 00	 ret	 4
?select_rhs_engine_main_mfd_event@@YGXPAUEVENT@@@Z ENDP	; select_rhs_engine_main_mfd_event
_TEXT	ENDS
; Function compile flags: /Odtp /ZI
; File c:\users\nhv90\projects\eech\aphavoc\source\gunships\avionics\kiowa\ki_avevn.c
;	COMDAT ?select_lhs_engine_main_mfd_event@@YGXPAUEVENT@@@Z
_TEXT	SEGMENT
_ev$ = 8						; size = 4
?select_lhs_engine_main_mfd_event@@YGXPAUEVENT@@@Z PROC	; select_lhs_engine_main_mfd_event, COMDAT

; 772  : {

  00000	55		 push	 ebp
  00001	8b ec		 mov	 ebp, esp
  00003	83 ec 40	 sub	 esp, 64			; 00000040H
  00006	53		 push	 ebx
  00007	56		 push	 esi
  00008	57		 push	 edi

; 773  : 	select_kiowa_main_mfd_mode (KIOWA_MAIN_MFD_MODE_ENGINE, KIOWA_MAIN_MFD_LOCATION_CO_PILOT);

  00009	6a 00		 push	 0
  0000b	6a 08		 push	 8
  0000d	e8 00 00 00 00	 call	 ?select_kiowa_main_mfd_mode@@YGXW4KIOWA_MAIN_MFD_MODES@@W4KIOWA_MAIN_MFD_LOCATIONS@@@Z ; select_kiowa_main_mfd_mode

; 774  : }

  00012	5f		 pop	 edi
  00013	5e		 pop	 esi
  00014	5b		 pop	 ebx
  00015	8b e5		 mov	 esp, ebp
  00017	5d		 pop	 ebp
  00018	c2 04 00	 ret	 4
?select_lhs_engine_main_mfd_event@@YGXPAUEVENT@@@Z ENDP	; select_lhs_engine_main_mfd_event
_TEXT	ENDS
; Function compile flags: /Odtp /ZI
; File c:\users\nhv90\projects\eech\aphavoc\source\gunships\avionics\kiowa\ki_avevn.c
;	COMDAT ?select_rhs_system_main_mfd_event@@YGXPAUEVENT@@@Z
_TEXT	SEGMENT
_ev$ = 8						; size = 4
?select_rhs_system_main_mfd_event@@YGXPAUEVENT@@@Z PROC	; select_rhs_system_main_mfd_event, COMDAT

; 763  : {

  00000	55		 push	 ebp
  00001	8b ec		 mov	 ebp, esp
  00003	83 ec 40	 sub	 esp, 64			; 00000040H
  00006	53		 push	 ebx
  00007	56		 push	 esi
  00008	57		 push	 edi

; 764  : 	select_kiowa_main_mfd_mode (KIOWA_MAIN_MFD_MODE_SYSTEM, KIOWA_MAIN_MFD_LOCATION_PILOT);

  00009	6a 01		 push	 1
  0000b	6a 07		 push	 7
  0000d	e8 00 00 00 00	 call	 ?select_kiowa_main_mfd_mode@@YGXW4KIOWA_MAIN_MFD_MODES@@W4KIOWA_MAIN_MFD_LOCATIONS@@@Z ; select_kiowa_main_mfd_mode

; 765  : }

  00012	5f		 pop	 edi
  00013	5e		 pop	 esi
  00014	5b		 pop	 ebx
  00015	8b e5		 mov	 esp, ebp
  00017	5d		 pop	 ebp
  00018	c2 04 00	 ret	 4
?select_rhs_system_main_mfd_event@@YGXPAUEVENT@@@Z ENDP	; select_rhs_system_main_mfd_event
_TEXT	ENDS
; Function compile flags: /Odtp /ZI
; File c:\users\nhv90\projects\eech\aphavoc\source\gunships\avionics\kiowa\ki_avevn.c
;	COMDAT ?select_lhs_system_main_mfd_event@@YGXPAUEVENT@@@Z
_TEXT	SEGMENT
_ev$ = 8						; size = 4
?select_lhs_system_main_mfd_event@@YGXPAUEVENT@@@Z PROC	; select_lhs_system_main_mfd_event, COMDAT

; 754  : {

  00000	55		 push	 ebp
  00001	8b ec		 mov	 ebp, esp
  00003	83 ec 40	 sub	 esp, 64			; 00000040H
  00006	53		 push	 ebx
  00007	56		 push	 esi
  00008	57		 push	 edi

; 755  : 	select_kiowa_main_mfd_mode (KIOWA_MAIN_MFD_MODE_SYSTEM, KIOWA_MAIN_MFD_LOCATION_CO_PILOT);

  00009	6a 00		 push	 0
  0000b	6a 07		 push	 7
  0000d	e8 00 00 00 00	 call	 ?select_kiowa_main_mfd_mode@@YGXW4KIOWA_MAIN_MFD_MODES@@W4KIOWA_MAIN_MFD_LOCATIONS@@@Z ; select_kiowa_main_mfd_mode

; 756  : }

  00012	5f		 pop	 edi
  00013	5e		 pop	 esi
  00014	5b		 pop	 ebx
  00015	8b e5		 mov	 esp, ebp
  00017	5d		 pop	 ebp
  00018	c2 04 00	 ret	 4
?select_lhs_system_main_mfd_event@@YGXPAUEVENT@@@Z ENDP	; select_lhs_system_main_mfd_event
_TEXT	ENDS
; Function compile flags: /Odtp /ZI
; File c:\users\nhv90\projects\eech\aphavoc\source\gunships\avionics\kiowa\ki_avevn.c
;	COMDAT ?select_rhs_weapon_main_mfd_event@@YGXPAUEVENT@@@Z
_TEXT	SEGMENT
_ev$ = 8						; size = 4
?select_rhs_weapon_main_mfd_event@@YGXPAUEVENT@@@Z PROC	; select_rhs_weapon_main_mfd_event, COMDAT

; 745  : {

  00000	55		 push	 ebp
  00001	8b ec		 mov	 ebp, esp
  00003	83 ec 40	 sub	 esp, 64			; 00000040H
  00006	53		 push	 ebx
  00007	56		 push	 esi
  00008	57		 push	 edi

; 746  : 	select_kiowa_main_mfd_mode (KIOWA_MAIN_MFD_MODE_WEAPON, KIOWA_MAIN_MFD_LOCATION_PILOT);

  00009	6a 01		 push	 1
  0000b	6a 06		 push	 6
  0000d	e8 00 00 00 00	 call	 ?select_kiowa_main_mfd_mode@@YGXW4KIOWA_MAIN_MFD_MODES@@W4KIOWA_MAIN_MFD_LOCATIONS@@@Z ; select_kiowa_main_mfd_mode

; 747  : }

  00012	5f		 pop	 edi
  00013	5e		 pop	 esi
  00014	5b		 pop	 ebx
  00015	8b e5		 mov	 esp, ebp
  00017	5d		 pop	 ebp
  00018	c2 04 00	 ret	 4
?select_rhs_weapon_main_mfd_event@@YGXPAUEVENT@@@Z ENDP	; select_rhs_weapon_main_mfd_event
_TEXT	ENDS
; Function compile flags: /Odtp /ZI
; File c:\users\nhv90\projects\eech\aphavoc\source\gunships\avionics\kiowa\ki_avevn.c
;	COMDAT ?select_lhs_weapon_main_mfd_event@@YGXPAUEVENT@@@Z
_TEXT	SEGMENT
_ev$ = 8						; size = 4
?select_lhs_weapon_main_mfd_event@@YGXPAUEVENT@@@Z PROC	; select_lhs_weapon_main_mfd_event, COMDAT

; 736  : {

  00000	55		 push	 ebp
  00001	8b ec		 mov	 ebp, esp
  00003	83 ec 40	 sub	 esp, 64			; 00000040H
  00006	53		 push	 ebx
  00007	56		 push	 esi
  00008	57		 push	 edi

; 737  : 	select_kiowa_main_mfd_mode (KIOWA_MAIN_MFD_MODE_WEAPON, KIOWA_MAIN_MFD_LOCATION_CO_PILOT);

  00009	6a 00		 push	 0
  0000b	6a 06		 push	 6
  0000d	e8 00 00 00 00	 call	 ?select_kiowa_main_mfd_mode@@YGXW4KIOWA_MAIN_MFD_MODES@@W4KIOWA_MAIN_MFD_LOCATIONS@@@Z ; select_kiowa_main_mfd_mode

; 738  : }

  00012	5f		 pop	 edi
  00013	5e		 pop	 esi
  00014	5b		 pop	 ebx
  00015	8b e5		 mov	 esp, ebp
  00017	5d		 pop	 ebp
  00018	c2 04 00	 ret	 4
?select_lhs_weapon_main_mfd_event@@YGXPAUEVENT@@@Z ENDP	; select_lhs_weapon_main_mfd_event
_TEXT	ENDS
; Function compile flags: /Odtp /ZI
; File c:\users\nhv90\projects\eech\aphavoc\source\gunships\avionics\kiowa\ki_avevn.c
;	COMDAT ?select_rhs_ase_main_mfd_event@@YGXPAUEVENT@@@Z
_TEXT	SEGMENT
_ev$ = 8						; size = 4
?select_rhs_ase_main_mfd_event@@YGXPAUEVENT@@@Z PROC	; select_rhs_ase_main_mfd_event, COMDAT

; 727  : {

  00000	55		 push	 ebp
  00001	8b ec		 mov	 ebp, esp
  00003	83 ec 40	 sub	 esp, 64			; 00000040H
  00006	53		 push	 ebx
  00007	56		 push	 esi
  00008	57		 push	 edi

; 728  : 	select_kiowa_main_mfd_mode (KIOWA_MAIN_MFD_MODE_ASE, KIOWA_MAIN_MFD_LOCATION_PILOT);

  00009	6a 01		 push	 1
  0000b	6a 05		 push	 5
  0000d	e8 00 00 00 00	 call	 ?select_kiowa_main_mfd_mode@@YGXW4KIOWA_MAIN_MFD_MODES@@W4KIOWA_MAIN_MFD_LOCATIONS@@@Z ; select_kiowa_main_mfd_mode

; 729  : }

  00012	5f		 pop	 edi
  00013	5e		 pop	 esi
  00014	5b		 pop	 ebx
  00015	8b e5		 mov	 esp, ebp
  00017	5d		 pop	 ebp
  00018	c2 04 00	 ret	 4
?select_rhs_ase_main_mfd_event@@YGXPAUEVENT@@@Z ENDP	; select_rhs_ase_main_mfd_event
_TEXT	ENDS
; Function compile flags: /Odtp /ZI
; File c:\users\nhv90\projects\eech\aphavoc\source\gunships\avionics\kiowa\ki_avevn.c
;	COMDAT ?select_lhs_ase_main_mfd_event@@YGXPAUEVENT@@@Z
_TEXT	SEGMENT
_ev$ = 8						; size = 4
?select_lhs_ase_main_mfd_event@@YGXPAUEVENT@@@Z PROC	; select_lhs_ase_main_mfd_event, COMDAT

; 718  : {

  00000	55		 push	 ebp
  00001	8b ec		 mov	 ebp, esp
  00003	83 ec 40	 sub	 esp, 64			; 00000040H
  00006	53		 push	 ebx
  00007	56		 push	 esi
  00008	57		 push	 edi

; 719  : 	select_kiowa_main_mfd_mode (KIOWA_MAIN_MFD_MODE_ASE, KIOWA_MAIN_MFD_LOCATION_CO_PILOT);

  00009	6a 00		 push	 0
  0000b	6a 05		 push	 5
  0000d	e8 00 00 00 00	 call	 ?select_kiowa_main_mfd_mode@@YGXW4KIOWA_MAIN_MFD_MODES@@W4KIOWA_MAIN_MFD_LOCATIONS@@@Z ; select_kiowa_main_mfd_mode

; 720  : }

  00012	5f		 pop	 edi
  00013	5e		 pop	 esi
  00014	5b		 pop	 ebx
  00015	8b e5		 mov	 esp, ebp
  00017	5d		 pop	 ebp
  00018	c2 04 00	 ret	 4
?select_lhs_ase_main_mfd_event@@YGXPAUEVENT@@@Z ENDP	; select_lhs_ase_main_mfd_event
_TEXT	ENDS
; Function compile flags: /Odtp /ZI
; File c:\users\nhv90\projects\eech\aphavoc\source\gunships\avionics\kiowa\ki_avevn.c
;	COMDAT ?select_rhs_tsd_main_mfd_event@@YGXPAUEVENT@@@Z
_TEXT	SEGMENT
_ev$ = 8						; size = 4
?select_rhs_tsd_main_mfd_event@@YGXPAUEVENT@@@Z PROC	; select_rhs_tsd_main_mfd_event, COMDAT

; 709  : {

  00000	55		 push	 ebp
  00001	8b ec		 mov	 ebp, esp
  00003	83 ec 40	 sub	 esp, 64			; 00000040H
  00006	53		 push	 ebx
  00007	56		 push	 esi
  00008	57		 push	 edi

; 710  : 	select_kiowa_main_mfd_mode (KIOWA_MAIN_MFD_MODE_TSD, KIOWA_MAIN_MFD_LOCATION_PILOT);

  00009	6a 01		 push	 1
  0000b	6a 04		 push	 4
  0000d	e8 00 00 00 00	 call	 ?select_kiowa_main_mfd_mode@@YGXW4KIOWA_MAIN_MFD_MODES@@W4KIOWA_MAIN_MFD_LOCATIONS@@@Z ; select_kiowa_main_mfd_mode

; 711  : }

  00012	5f		 pop	 edi
  00013	5e		 pop	 esi
  00014	5b		 pop	 ebx
  00015	8b e5		 mov	 esp, ebp
  00017	5d		 pop	 ebp
  00018	c2 04 00	 ret	 4
?select_rhs_tsd_main_mfd_event@@YGXPAUEVENT@@@Z ENDP	; select_rhs_tsd_main_mfd_event
_TEXT	ENDS
; Function compile flags: /Odtp /ZI
; File c:\users\nhv90\projects\eech\aphavoc\source\gunships\avionics\kiowa\ki_avevn.c
;	COMDAT ?select_lhs_tsd_main_mfd_event@@YGXPAUEVENT@@@Z
_TEXT	SEGMENT
_ev$ = 8						; size = 4
?select_lhs_tsd_main_mfd_event@@YGXPAUEVENT@@@Z PROC	; select_lhs_tsd_main_mfd_event, COMDAT

; 700  : {

  00000	55		 push	 ebp
  00001	8b ec		 mov	 ebp, esp
  00003	83 ec 40	 sub	 esp, 64			; 00000040H
  00006	53		 push	 ebx
  00007	56		 push	 esi
  00008	57		 push	 edi

; 701  : 	select_kiowa_main_mfd_mode (KIOWA_MAIN_MFD_MODE_TSD, KIOWA_MAIN_MFD_LOCATION_CO_PILOT);

  00009	6a 00		 push	 0
  0000b	6a 04		 push	 4
  0000d	e8 00 00 00 00	 call	 ?select_kiowa_main_mfd_mode@@YGXW4KIOWA_MAIN_MFD_MODES@@W4KIOWA_MAIN_MFD_LOCATIONS@@@Z ; select_kiowa_main_mfd_mode

; 702  : }

  00012	5f		 pop	 edi
  00013	5e		 pop	 esi
  00014	5b		 pop	 ebx
  00015	8b e5		 mov	 esp, ebp
  00017	5d		 pop	 ebp
  00018	c2 04 00	 ret	 4
?select_lhs_tsd_main_mfd_event@@YGXPAUEVENT@@@Z ENDP	; select_lhs_tsd_main_mfd_event
_TEXT	ENDS
; Function compile flags: /Odtp /ZI
; File c:\users\nhv90\projects\eech\aphavoc\source\gunships\avionics\kiowa\ki_avevn.c
;	COMDAT ?select_rhs_tads_main_mfd_event@@YGXPAUEVENT@@@Z
_TEXT	SEGMENT
_ev$ = 8						; size = 4
?select_rhs_tads_main_mfd_event@@YGXPAUEVENT@@@Z PROC	; select_rhs_tads_main_mfd_event, COMDAT

; 684  : {

  00000	55		 push	 ebp
  00001	8b ec		 mov	 ebp, esp
  00003	83 ec 40	 sub	 esp, 64			; 00000040H
  00006	53		 push	 ebx
  00007	56		 push	 esi
  00008	57		 push	 edi

; 685  : 	if (eo_sensor == TARGET_ACQUISITION_SYSTEM_FLIR)

  00009	83 3d 00 00 00
	00 03		 cmp	 DWORD PTR ?eo_sensor@@3W4TARGET_ACQUISITION_SYSTEMS@@A, 3 ; eo_sensor
  00010	75 0b		 jne	 SHORT $LN2@select_rhs

; 686  : 	{
; 687  : 		select_kiowa_main_mfd_mode (KIOWA_MAIN_MFD_MODE_FLIR, KIOWA_MAIN_MFD_LOCATION_PILOT);

  00012	6a 01		 push	 1
  00014	6a 02		 push	 2
  00016	e8 00 00 00 00	 call	 ?select_kiowa_main_mfd_mode@@YGXW4KIOWA_MAIN_MFD_MODES@@W4KIOWA_MAIN_MFD_LOCATIONS@@@Z ; select_kiowa_main_mfd_mode
  0001b	eb 12		 jmp	 SHORT $LN1@select_rhs
$LN2@select_rhs:

; 688  : 	}
; 689  : 	else if (eo_sensor == TARGET_ACQUISITION_SYSTEM_DTV)

  0001d	83 3d 00 00 00
	00 04		 cmp	 DWORD PTR ?eo_sensor@@3W4TARGET_ACQUISITION_SYSTEMS@@A, 4 ; eo_sensor
  00024	75 09		 jne	 SHORT $LN1@select_rhs

; 690  : 	{
; 691  : 		select_kiowa_main_mfd_mode (KIOWA_MAIN_MFD_MODE_DTV, KIOWA_MAIN_MFD_LOCATION_PILOT);

  00026	6a 01		 push	 1
  00028	6a 03		 push	 3
  0002a	e8 00 00 00 00	 call	 ?select_kiowa_main_mfd_mode@@YGXW4KIOWA_MAIN_MFD_MODES@@W4KIOWA_MAIN_MFD_LOCATIONS@@@Z ; select_kiowa_main_mfd_mode
$LN1@select_rhs:

; 692  : 	}
; 693  : }

  0002f	5f		 pop	 edi
  00030	5e		 pop	 esi
  00031	5b		 pop	 ebx
  00032	8b e5		 mov	 esp, ebp
  00034	5d		 pop	 ebp
  00035	c2 04 00	 ret	 4
?select_rhs_tads_main_mfd_event@@YGXPAUEVENT@@@Z ENDP	; select_rhs_tads_main_mfd_event
_TEXT	ENDS
; Function compile flags: /Odtp /ZI
; File c:\users\nhv90\projects\eech\aphavoc\source\gunships\avionics\kiowa\ki_avevn.c
;	COMDAT ?select_lhs_tads_main_mfd_event@@YGXPAUEVENT@@@Z
_TEXT	SEGMENT
_ev$ = 8						; size = 4
?select_lhs_tads_main_mfd_event@@YGXPAUEVENT@@@Z PROC	; select_lhs_tads_main_mfd_event, COMDAT

; 668  : {

  00000	55		 push	 ebp
  00001	8b ec		 mov	 ebp, esp
  00003	83 ec 40	 sub	 esp, 64			; 00000040H
  00006	53		 push	 ebx
  00007	56		 push	 esi
  00008	57		 push	 edi

; 669  : 	if (eo_sensor == TARGET_ACQUISITION_SYSTEM_FLIR)

  00009	83 3d 00 00 00
	00 03		 cmp	 DWORD PTR ?eo_sensor@@3W4TARGET_ACQUISITION_SYSTEMS@@A, 3 ; eo_sensor
  00010	75 0b		 jne	 SHORT $LN2@select_lhs

; 670  : 	{
; 671  : 		select_kiowa_main_mfd_mode (KIOWA_MAIN_MFD_MODE_FLIR, KIOWA_MAIN_MFD_LOCATION_CO_PILOT);

  00012	6a 00		 push	 0
  00014	6a 02		 push	 2
  00016	e8 00 00 00 00	 call	 ?select_kiowa_main_mfd_mode@@YGXW4KIOWA_MAIN_MFD_MODES@@W4KIOWA_MAIN_MFD_LOCATIONS@@@Z ; select_kiowa_main_mfd_mode
  0001b	eb 12		 jmp	 SHORT $LN1@select_lhs
$LN2@select_lhs:

; 672  : 	}
; 673  : 	else if (eo_sensor == TARGET_ACQUISITION_SYSTEM_DTV)

  0001d	83 3d 00 00 00
	00 04		 cmp	 DWORD PTR ?eo_sensor@@3W4TARGET_ACQUISITION_SYSTEMS@@A, 4 ; eo_sensor
  00024	75 09		 jne	 SHORT $LN1@select_lhs

; 674  : 	{
; 675  : 		select_kiowa_main_mfd_mode (KIOWA_MAIN_MFD_MODE_DTV, KIOWA_MAIN_MFD_LOCATION_CO_PILOT);

  00026	6a 00		 push	 0
  00028	6a 03		 push	 3
  0002a	e8 00 00 00 00	 call	 ?select_kiowa_main_mfd_mode@@YGXW4KIOWA_MAIN_MFD_MODES@@W4KIOWA_MAIN_MFD_LOCATIONS@@@Z ; select_kiowa_main_mfd_mode
$LN1@select_lhs:

; 676  : 	}
; 677  : }

  0002f	5f		 pop	 edi
  00030	5e		 pop	 esi
  00031	5b		 pop	 ebx
  00032	8b e5		 mov	 esp, ebp
  00034	5d		 pop	 ebp
  00035	c2 04 00	 ret	 4
?select_lhs_tads_main_mfd_event@@YGXPAUEVENT@@@Z ENDP	; select_lhs_tads_main_mfd_event
_TEXT	ENDS
; Function compile flags: /Odtp /ZI
; File c:\users\nhv90\projects\eech\aphavoc\source\gunships\avionics\kiowa\ki_avevn.c
;	COMDAT ?select_previous_rhs_main_mfd_event@@YGXPAUEVENT@@@Z
_TEXT	SEGMENT
_ev$ = 8						; size = 4
?select_previous_rhs_main_mfd_event@@YGXPAUEVENT@@@Z PROC ; select_previous_rhs_main_mfd_event, COMDAT

; 659  : {

  00000	55		 push	 ebp
  00001	8b ec		 mov	 ebp, esp
  00003	83 ec 40	 sub	 esp, 64			; 00000040H
  00006	53		 push	 ebx
  00007	56		 push	 esi
  00008	57		 push	 edi

; 660  : 	select_previous_kiowa_main_mfd (KIOWA_MAIN_MFD_LOCATION_PILOT);

  00009	6a 01		 push	 1
  0000b	e8 00 00 00 00	 call	 ?select_previous_kiowa_main_mfd@@YGXW4KIOWA_MAIN_MFD_LOCATIONS@@@Z ; select_previous_kiowa_main_mfd

; 661  : }

  00010	5f		 pop	 edi
  00011	5e		 pop	 esi
  00012	5b		 pop	 ebx
  00013	8b e5		 mov	 esp, ebp
  00015	5d		 pop	 ebp
  00016	c2 04 00	 ret	 4
?select_previous_rhs_main_mfd_event@@YGXPAUEVENT@@@Z ENDP ; select_previous_rhs_main_mfd_event
_TEXT	ENDS
; Function compile flags: /Odtp /ZI
; File c:\users\nhv90\projects\eech\aphavoc\source\gunships\avionics\kiowa\ki_avevn.c
;	COMDAT ?select_next_rhs_main_mfd_event@@YGXPAUEVENT@@@Z
_TEXT	SEGMENT
_ev$ = 8						; size = 4
?select_next_rhs_main_mfd_event@@YGXPAUEVENT@@@Z PROC	; select_next_rhs_main_mfd_event, COMDAT

; 650  : {

  00000	55		 push	 ebp
  00001	8b ec		 mov	 ebp, esp
  00003	83 ec 40	 sub	 esp, 64			; 00000040H
  00006	53		 push	 ebx
  00007	56		 push	 esi
  00008	57		 push	 edi

; 651  : 	select_next_kiowa_main_mfd (KIOWA_MAIN_MFD_LOCATION_PILOT);

  00009	6a 01		 push	 1
  0000b	e8 00 00 00 00	 call	 ?select_next_kiowa_main_mfd@@YGXW4KIOWA_MAIN_MFD_LOCATIONS@@@Z ; select_next_kiowa_main_mfd

; 652  : }

  00010	5f		 pop	 edi
  00011	5e		 pop	 esi
  00012	5b		 pop	 ebx
  00013	8b e5		 mov	 esp, ebp
  00015	5d		 pop	 ebp
  00016	c2 04 00	 ret	 4
?select_next_rhs_main_mfd_event@@YGXPAUEVENT@@@Z ENDP	; select_next_rhs_main_mfd_event
_TEXT	ENDS
; Function compile flags: /Odtp /ZI
; File c:\users\nhv90\projects\eech\aphavoc\source\gunships\avionics\kiowa\ki_avevn.c
;	COMDAT ?select_previous_lhs_main_mfd_event@@YGXPAUEVENT@@@Z
_TEXT	SEGMENT
_ev$ = 8						; size = 4
?select_previous_lhs_main_mfd_event@@YGXPAUEVENT@@@Z PROC ; select_previous_lhs_main_mfd_event, COMDAT

; 641  : {

  00000	55		 push	 ebp
  00001	8b ec		 mov	 ebp, esp
  00003	83 ec 40	 sub	 esp, 64			; 00000040H
  00006	53		 push	 ebx
  00007	56		 push	 esi
  00008	57		 push	 edi

; 642  : 	select_previous_kiowa_main_mfd (KIOWA_MAIN_MFD_LOCATION_CO_PILOT);

  00009	6a 00		 push	 0
  0000b	e8 00 00 00 00	 call	 ?select_previous_kiowa_main_mfd@@YGXW4KIOWA_MAIN_MFD_LOCATIONS@@@Z ; select_previous_kiowa_main_mfd

; 643  : }

  00010	5f		 pop	 edi
  00011	5e		 pop	 esi
  00012	5b		 pop	 ebx
  00013	8b e5		 mov	 esp, ebp
  00015	5d		 pop	 ebp
  00016	c2 04 00	 ret	 4
?select_previous_lhs_main_mfd_event@@YGXPAUEVENT@@@Z ENDP ; select_previous_lhs_main_mfd_event
_TEXT	ENDS
; Function compile flags: /Odtp /ZI
; File c:\users\nhv90\projects\eech\aphavoc\source\gunships\avionics\kiowa\ki_avevn.c
;	COMDAT ?select_next_lhs_main_mfd_event@@YGXPAUEVENT@@@Z
_TEXT	SEGMENT
_ev$ = 8						; size = 4
?select_next_lhs_main_mfd_event@@YGXPAUEVENT@@@Z PROC	; select_next_lhs_main_mfd_event, COMDAT

; 632  : {

  00000	55		 push	 ebp
  00001	8b ec		 mov	 ebp, esp
  00003	83 ec 40	 sub	 esp, 64			; 00000040H
  00006	53		 push	 ebx
  00007	56		 push	 esi
  00008	57		 push	 edi

; 633  : 	select_next_kiowa_main_mfd (KIOWA_MAIN_MFD_LOCATION_CO_PILOT);

  00009	6a 00		 push	 0
  0000b	e8 00 00 00 00	 call	 ?select_next_kiowa_main_mfd@@YGXW4KIOWA_MAIN_MFD_LOCATIONS@@@Z ; select_next_kiowa_main_mfd

; 634  : }

  00010	5f		 pop	 edi
  00011	5e		 pop	 esi
  00012	5b		 pop	 ebx
  00013	8b e5		 mov	 esp, ebp
  00015	5d		 pop	 ebp
  00016	c2 04 00	 ret	 4
?select_next_lhs_main_mfd_event@@YGXPAUEVENT@@@Z ENDP	; select_next_lhs_main_mfd_event
_TEXT	ENDS
; Function compile flags: /Odtp /ZI
; File c:\users\nhv90\projects\eech\aphavoc\source\gunships\avionics\kiowa\ki_avevn.c
;	COMDAT ?toggle_ase_auto_page_event@@YGXPAUEVENT@@@Z
_TEXT	SEGMENT
_ev$ = 8						; size = 4
?toggle_ase_auto_page_event@@YGXPAUEVENT@@@Z PROC	; toggle_ase_auto_page_event, COMDAT

; 623  : {

  00000	55		 push	 ebp
  00001	8b ec		 mov	 ebp, esp
  00003	83 ec 40	 sub	 esp, 64			; 00000040H
  00006	53		 push	 ebx
  00007	56		 push	 esi
  00008	57		 push	 edi

; 624  : 	toggle_kiowa_ase_auto_page ();

  00009	e8 00 00 00 00	 call	 ?toggle_kiowa_ase_auto_page@@YGXXZ ; toggle_kiowa_ase_auto_page

; 625  : }

  0000e	5f		 pop	 edi
  0000f	5e		 pop	 esi
  00010	5b		 pop	 ebx
  00011	8b e5		 mov	 esp, ebp
  00013	5d		 pop	 ebp
  00014	c2 04 00	 ret	 4
?toggle_ase_auto_page_event@@YGXPAUEVENT@@@Z ENDP	; toggle_ase_auto_page_event
_TEXT	ENDS
; Function compile flags: /Odtp /ZI
; File c:\users\nhv90\projects\eech\aphavoc\source\gunships\avionics\kiowa\ki_avevn.c
;	COMDAT ?select_previous_tsd_declutter_level_event@@YGXPAUEVENT@@@Z
_TEXT	SEGMENT
_ev$ = 8						; size = 4
?select_previous_tsd_declutter_level_event@@YGXPAUEVENT@@@Z PROC ; select_previous_tsd_declutter_level_event, COMDAT

; 607  : {

  00000	55		 push	 ebp
  00001	8b ec		 mov	 ebp, esp
  00003	83 ec 40	 sub	 esp, 64			; 00000040H
  00006	53		 push	 ebx
  00007	56		 push	 esi
  00008	57		 push	 edi

; 608  : 	if (get_crew_role () == CREW_ROLE_PILOT)

  00009	e8 00 00 00 00	 call	 ?get_crew_role@@YG?AW4CREW_ROLES@@XZ ; get_crew_role
  0000e	85 c0		 test	 eax, eax
  00010	75 07		 jne	 SHORT $LN2@select_pre

; 609  : 	{
; 610  : 		select_previous_kiowa_pilot_tsd_declutter_level ();

  00012	e8 00 00 00 00	 call	 ?select_previous_kiowa_pilot_tsd_declutter_level@@YGXXZ ; select_previous_kiowa_pilot_tsd_declutter_level

; 611  : 	}
; 612  : 	else

  00017	eb 05		 jmp	 SHORT $LN1@select_pre
$LN2@select_pre:

; 613  : 	{
; 614  : 		select_previous_kiowa_co_pilot_tsd_declutter_level ();

  00019	e8 00 00 00 00	 call	 ?select_previous_kiowa_co_pilot_tsd_declutter_level@@YGXXZ ; select_previous_kiowa_co_pilot_tsd_declutter_level
$LN1@select_pre:

; 615  : 	}
; 616  : }

  0001e	5f		 pop	 edi
  0001f	5e		 pop	 esi
  00020	5b		 pop	 ebx
  00021	8b e5		 mov	 esp, ebp
  00023	5d		 pop	 ebp
  00024	c2 04 00	 ret	 4
?select_previous_tsd_declutter_level_event@@YGXPAUEVENT@@@Z ENDP ; select_previous_tsd_declutter_level_event
_TEXT	ENDS
; Function compile flags: /Odtp /ZI
; File c:\users\nhv90\projects\eech\aphavoc\source\gunships\avionics\kiowa\ki_avevn.c
;	COMDAT ?select_next_tsd_declutter_level_event@@YGXPAUEVENT@@@Z
_TEXT	SEGMENT
_ev$ = 8						; size = 4
?select_next_tsd_declutter_level_event@@YGXPAUEVENT@@@Z PROC ; select_next_tsd_declutter_level_event, COMDAT

; 591  : {

  00000	55		 push	 ebp
  00001	8b ec		 mov	 ebp, esp
  00003	83 ec 40	 sub	 esp, 64			; 00000040H
  00006	53		 push	 ebx
  00007	56		 push	 esi
  00008	57		 push	 edi

; 592  : 	if (get_crew_role () == CREW_ROLE_PILOT)

  00009	e8 00 00 00 00	 call	 ?get_crew_role@@YG?AW4CREW_ROLES@@XZ ; get_crew_role
  0000e	85 c0		 test	 eax, eax
  00010	75 07		 jne	 SHORT $LN2@select_nex

; 593  : 	{
; 594  : 		select_next_kiowa_pilot_tsd_declutter_level ();

  00012	e8 00 00 00 00	 call	 ?select_next_kiowa_pilot_tsd_declutter_level@@YGXXZ ; select_next_kiowa_pilot_tsd_declutter_level

; 595  : 	}
; 596  : 	else

  00017	eb 05		 jmp	 SHORT $LN1@select_nex
$LN2@select_nex:

; 597  : 	{
; 598  : 		select_next_kiowa_co_pilot_tsd_declutter_level ();

  00019	e8 00 00 00 00	 call	 ?select_next_kiowa_co_pilot_tsd_declutter_level@@YGXXZ ; select_next_kiowa_co_pilot_tsd_declutter_level
$LN1@select_nex:

; 599  : 	}
; 600  : }

  0001e	5f		 pop	 edi
  0001f	5e		 pop	 esi
  00020	5b		 pop	 ebx
  00021	8b e5		 mov	 esp, ebp
  00023	5d		 pop	 ebp
  00024	c2 04 00	 ret	 4
?select_next_tsd_declutter_level_event@@YGXPAUEVENT@@@Z ENDP ; select_next_tsd_declutter_level_event
_TEXT	ENDS
; Function compile flags: /Odtp /ZI
; File c:\users\nhv90\projects\eech\aphavoc\source\gunships\avionics\kiowa\ki_avevn.c
;	COMDAT ?select_previous_tsd_ase_range_event@@YGXPAUEVENT@@@Z
_TEXT	SEGMENT
_ev$ = 8						; size = 4
?select_previous_tsd_ase_range_event@@YGXPAUEVENT@@@Z PROC ; select_previous_tsd_ase_range_event, COMDAT

; 575  : {

  00000	55		 push	 ebp
  00001	8b ec		 mov	 ebp, esp
  00003	83 ec 40	 sub	 esp, 64			; 00000040H
  00006	53		 push	 ebx
  00007	56		 push	 esi
  00008	57		 push	 edi

; 576  : 	if (get_crew_role () == CREW_ROLE_PILOT)

  00009	e8 00 00 00 00	 call	 ?get_crew_role@@YG?AW4CREW_ROLES@@XZ ; get_crew_role
  0000e	85 c0		 test	 eax, eax
  00010	75 07		 jne	 SHORT $LN2@select_pre

; 577  : 	{
; 578  : 		select_previous_kiowa_pilot_tsd_ase_range ();

  00012	e8 00 00 00 00	 call	 ?select_previous_kiowa_pilot_tsd_ase_range@@YGXXZ ; select_previous_kiowa_pilot_tsd_ase_range

; 579  : 	}
; 580  : 	else

  00017	eb 05		 jmp	 SHORT $LN1@select_pre
$LN2@select_pre:

; 581  : 	{
; 582  : 		select_previous_kiowa_co_pilot_tsd_ase_range ();

  00019	e8 00 00 00 00	 call	 ?select_previous_kiowa_co_pilot_tsd_ase_range@@YGXXZ ; select_previous_kiowa_co_pilot_tsd_ase_range
$LN1@select_pre:

; 583  : 	}
; 584  : }

  0001e	5f		 pop	 edi
  0001f	5e		 pop	 esi
  00020	5b		 pop	 ebx
  00021	8b e5		 mov	 esp, ebp
  00023	5d		 pop	 ebp
  00024	c2 04 00	 ret	 4
?select_previous_tsd_ase_range_event@@YGXPAUEVENT@@@Z ENDP ; select_previous_tsd_ase_range_event
_TEXT	ENDS
; Function compile flags: /Odtp /ZI
; File c:\users\nhv90\projects\eech\aphavoc\source\gunships\avionics\kiowa\ki_avevn.c
;	COMDAT ?select_next_tsd_ase_range_event@@YGXPAUEVENT@@@Z
_TEXT	SEGMENT
_ev$ = 8						; size = 4
?select_next_tsd_ase_range_event@@YGXPAUEVENT@@@Z PROC	; select_next_tsd_ase_range_event, COMDAT

; 559  : {

  00000	55		 push	 ebp
  00001	8b ec		 mov	 ebp, esp
  00003	83 ec 40	 sub	 esp, 64			; 00000040H
  00006	53		 push	 ebx
  00007	56		 push	 esi
  00008	57		 push	 edi

; 560  : 	if (get_crew_role () == CREW_ROLE_PILOT)

  00009	e8 00 00 00 00	 call	 ?get_crew_role@@YG?AW4CREW_ROLES@@XZ ; get_crew_role
  0000e	85 c0		 test	 eax, eax
  00010	75 07		 jne	 SHORT $LN2@select_nex

; 561  : 	{
; 562  : 		select_next_kiowa_pilot_tsd_ase_range ();

  00012	e8 00 00 00 00	 call	 ?select_next_kiowa_pilot_tsd_ase_range@@YGXXZ ; select_next_kiowa_pilot_tsd_ase_range

; 563  : 	}
; 564  : 	else

  00017	eb 05		 jmp	 SHORT $LN1@select_nex
$LN2@select_nex:

; 565  : 	{
; 566  : 		select_next_kiowa_co_pilot_tsd_ase_range ();

  00019	e8 00 00 00 00	 call	 ?select_next_kiowa_co_pilot_tsd_ase_range@@YGXXZ ; select_next_kiowa_co_pilot_tsd_ase_range
$LN1@select_nex:

; 567  : 	}
; 568  : }

  0001e	5f		 pop	 edi
  0001f	5e		 pop	 esi
  00020	5b		 pop	 ebx
  00021	8b e5		 mov	 esp, ebp
  00023	5d		 pop	 ebp
  00024	c2 04 00	 ret	 4
?select_next_tsd_ase_range_event@@YGXPAUEVENT@@@Z ENDP	; select_next_tsd_ase_range_event
_TEXT	ENDS
; Function compile flags: /Odtp /ZI
; File c:\users\nhv90\projects\eech\aphavoc\source\gunships\avionics\kiowa\ki_avevn.c
;	COMDAT ?select_cannon_event@@YGXPAUEVENT@@@Z
_TEXT	SEGMENT
_ev$ = 8						; size = 4
?select_cannon_event@@YGXPAUEVENT@@@Z PROC		; select_cannon_event, COMDAT

; 547  : {

  00000	55		 push	 ebp
  00001	8b ec		 mov	 ebp, esp
  00003	83 ec 40	 sub	 esp, 64			; 00000040H
  00006	53		 push	 ebx
  00007	56		 push	 esi
  00008	57		 push	 edi

; 548  : 	if (get_local_entity_weapon_available (get_gunship_entity (), ENTITY_SUB_TYPE_WEAPON_M2_12P7MM_ROUND))

  00009	6a 01		 push	 1
  0000b	a1 00 00 00 00	 mov	 eax, DWORD PTR ?gunship_entity@@3PAUENTITY@@A ; gunship_entity
  00010	50		 push	 eax
  00011	e8 00 00 00 00	 call	 ?get_local_entity_weapon_available@@YGHPAUENTITY@@H@Z ; get_local_entity_weapon_available
  00016	85 c0		 test	 eax, eax
  00018	74 07		 je	 SHORT $LN1@select_can

; 549  : 	{
; 550  : 		set_gunship_weapon (ENTITY_SUB_TYPE_WEAPON_M2_12P7MM_ROUND);

  0001a	6a 01		 push	 1
  0001c	e8 00 00 00 00	 call	 ?set_gunship_weapon@@YGXH@Z ; set_gunship_weapon
$LN1@select_can:

; 551  : 	}
; 552  : }

  00021	5f		 pop	 edi
  00022	5e		 pop	 esi
  00023	5b		 pop	 ebx
  00024	8b e5		 mov	 esp, ebp
  00026	5d		 pop	 ebp
  00027	c2 04 00	 ret	 4
?select_cannon_event@@YGXPAUEVENT@@@Z ENDP		; select_cannon_event
_TEXT	ENDS
; Function compile flags: /Odtp /ZI
; File c:\users\nhv90\projects\eech\aphavoc\source\gunships\avionics\kiowa\ki_avevn.c
;	COMDAT ?virtual_cockpit_track_target_event@@YGXPAUEVENT@@@Z
_TEXT	SEGMENT
_ev$ = 8						; size = 4
?virtual_cockpit_track_target_event@@YGXPAUEVENT@@@Z PROC ; virtual_cockpit_track_target_event, COMDAT

; 523  : {

  00000	55		 push	 ebp
  00001	8b ec		 mov	 ebp, esp
  00003	83 ec 40	 sub	 esp, 64			; 00000040H
  00006	53		 push	 ebx
  00007	56		 push	 esi
  00008	57		 push	 edi

; 524  : 	ASSERT (ev);

  00009	83 7d 08 00	 cmp	 DWORD PTR _ev$[ebp], 0
  0000d	75 18		 jne	 SHORT $LN2@virtual_co
  0000f	a1 00 00 00 00	 mov	 eax, DWORD PTR ?__LINE__Var@?0??virtual_cockpit_track_target_event@@YGXPAUEVENT@@@Z@4JA
  00014	83 c0 01	 add	 eax, 1
  00017	50		 push	 eax
  00018	68 00 00 00 00	 push	 OFFSET ??_C@_0EP@PONOEKHI@c?3?2users?2nhv90?2projects?2eech?2ap@
  0001d	68 00 00 00 00	 push	 OFFSET ??_C@_02DHMHPBFG@ev@
  00022	e8 00 00 00 00	 call	 ?process_assert@@YGXPBD0H@Z ; process_assert
$LN2@virtual_co:

; 525  : 
; 526  : 	if ((ev->key == DIK_1) || (get_view_mode () != VIEW_MODE_VIRTUAL_COCKPIT_TRACK_TARGET))

  00027	8b 45 08	 mov	 eax, DWORD PTR _ev$[ebp]
  0002a	0f b6 48 06	 movzx	 ecx, BYTE PTR [eax+6]
  0002e	83 f9 02	 cmp	 ecx, 2
  00031	74 09		 je	 SHORT $LN5@virtual_co
  00033	83 3d 00 00 00
	00 22		 cmp	 DWORD PTR ?view_mode@@3W4VIEW_MODES@@A, 34 ; view_mode, 00000022H
  0003a	74 14		 je	 SHORT $LN3@virtual_co
$LN5@virtual_co:

; 527  : 	{
; 528  : 		if (set_view_mode (VIEW_MODE_VIRTUAL_COCKPIT_TRACK_TARGET))

  0003c	6a 22		 push	 34			; 00000022H
  0003e	e8 00 00 00 00	 call	 ?set_view_mode@@YGHW4VIEW_MODES@@@Z ; set_view_mode
  00043	85 c0		 test	 eax, eax
  00045	74 07		 je	 SHORT $LN6@virtual_co

; 529  : 		{
; 530  : 			set_kiowa_lock_target (TRUE);

  00047	6a 01		 push	 1
  00049	e8 00 00 00 00	 call	 ?set_kiowa_lock_target@@YGXH@Z ; set_kiowa_lock_target
$LN6@virtual_co:

; 531  : 		}
; 532  : 	}
; 533  : 	else

  0004e	eb 10		 jmp	 SHORT $LN1@virtual_co
$LN3@virtual_co:

; 534  : 	{
; 535  : 		if (get_view_mode () == VIEW_MODE_VIRTUAL_COCKPIT_TRACK_TARGET)

  00050	83 3d 00 00 00
	00 22		 cmp	 DWORD PTR ?view_mode@@3W4VIEW_MODES@@A, 34 ; view_mode, 00000022H
  00057	75 07		 jne	 SHORT $LN1@virtual_co

; 536  : 		{
; 537  : 			select_padlock_view_event (PADLOCK_MODE_NONE);

  00059	6a 00		 push	 0
  0005b	e8 00 00 00 00	 call	 ?select_padlock_view_event@@YGXW4PADLOCK_MODES@@@Z ; select_padlock_view_event
$LN1@virtual_co:

; 538  : 		}
; 539  : 	}
; 540  : }

  00060	5f		 pop	 edi
  00061	5e		 pop	 esi
  00062	5b		 pop	 ebx
  00063	8b e5		 mov	 esp, ebp
  00065	5d		 pop	 ebp
  00066	c2 04 00	 ret	 4
?virtual_cockpit_track_target_event@@YGXPAUEVENT@@@Z ENDP ; virtual_cockpit_track_target_event
_TEXT	ENDS
; Function compile flags: /Odtp /ZI
; File c:\users\nhv90\projects\eech\aphavoc\source\gunships\avionics\kiowa\ki_avevn.c
;	COMDAT ?toggle_lobl_loal_event@@YGXPAUEVENT@@@Z
_TEXT	SEGMENT
tv131 = -76						; size = 4
tv78 = -76						; size = 4
tv91 = -72						; size = 4
tv70 = -72						; size = 4
_status$ = -4						; size = 4
_ev$ = 8						; size = 4
?toggle_lobl_loal_event@@YGXPAUEVENT@@@Z PROC		; toggle_lobl_loal_event, COMDAT

; 498  : {

  00000	55		 push	 ebp
  00001	8b ec		 mov	 ebp, esp
  00003	83 ec 4c	 sub	 esp, 76			; 0000004cH
  00006	53		 push	 ebx
  00007	56		 push	 esi
  00008	57		 push	 edi

; 499  : 	int
; 500  : 		status;
; 501  : 
; 502  : 	status = get_local_entity_int_value (get_gunship_entity (), INT_TYPE_LOCK_ON_AFTER_LAUNCH);

  00009	83 3d 00 00 00
	00 00		 cmp	 DWORD PTR ?gunship_entity@@3PAUENTITY@@A, 0 ; gunship_entity
  00010	74 0c		 je	 SHORT $LN5@toggle_lob
  00012	a1 00 00 00 00	 mov	 eax, DWORD PTR ?gunship_entity@@3PAUENTITY@@A ; gunship_entity
  00017	8b 08		 mov	 ecx, DWORD PTR [eax]
  00019	89 4d b8	 mov	 DWORD PTR tv70[ebp], ecx
  0001c	eb 21		 jmp	 SHORT $LN6@toggle_lob
$LN5@toggle_lob:
  0001e	8b 15 00 00 00
	00		 mov	 edx, DWORD PTR ?__LINE__Var@?0??toggle_lobl_loal_event@@YGXPAUEVENT@@@Z@4JA
  00024	83 c2 04	 add	 edx, 4
  00027	52		 push	 edx
  00028	68 00 00 00 00	 push	 OFFSET ??_C@_0EP@PONOEKHI@c?3?2users?2nhv90?2projects?2eech?2ap@
  0002d	a1 00 00 00 00	 mov	 eax, DWORD PTR ?null_entity_pointer_message@@3PBDB ; null_entity_pointer_message
  00032	50		 push	 eax
  00033	e8 00 00 00 00	 call	 ?process_assert@@YGXPBD0H@Z ; process_assert
  00038	c7 45 b8 00 00
	00 00		 mov	 DWORD PTR tv70[ebp], 0
$LN6@toggle_lob:
  0003f	b9 01 00 00 00	 mov	 ecx, 1
  00044	85 c9		 test	 ecx, ecx
  00046	74 09		 je	 SHORT $LN7@toggle_lob
  00048	c7 45 b4 7e 00
	00 00		 mov	 DWORD PTR tv78[ebp], 126 ; 0000007eH
  0004f	eb 21		 jmp	 SHORT $LN8@toggle_lob
$LN7@toggle_lob:
  00051	8b 15 00 00 00
	00		 mov	 edx, DWORD PTR ?__LINE__Var@?0??toggle_lobl_loal_event@@YGXPAUEVENT@@@Z@4JA
  00057	83 c2 04	 add	 edx, 4
  0005a	52		 push	 edx
  0005b	68 00 00 00 00	 push	 OFFSET ??_C@_0EP@PONOEKHI@c?3?2users?2nhv90?2projects?2eech?2ap@
  00060	a1 00 00 00 00	 mov	 eax, DWORD PTR ?overload_invalid_int_type_message@@3PBDB ; overload_invalid_int_type_message
  00065	50		 push	 eax
  00066	e8 00 00 00 00	 call	 ?process_assert@@YGXPBD0H@Z ; process_assert
  0006b	c7 45 b4 00 00
	00 00		 mov	 DWORD PTR tv78[ebp], 0
$LN8@toggle_lob:
  00072	6a 7e		 push	 126			; 0000007eH
  00074	8b 0d 00 00 00
	00		 mov	 ecx, DWORD PTR ?gunship_entity@@3PAUENTITY@@A ; gunship_entity
  0007a	51		 push	 ecx
  0007b	69 55 b8 5c 04
	00 00		 imul	 edx, DWORD PTR tv70[ebp], 1116
  00082	8b 45 b4	 mov	 eax, DWORD PTR tv78[ebp]
  00085	8b 8c 82 00 00
	00 00		 mov	 ecx, DWORD PTR ?fn_get_local_entity_int_value@@3PAY0BBH@P6GHPAUENTITY@@W4INT_TYPES@@@ZA[edx+eax*4]
  0008c	ff d1		 call	 ecx
  0008e	89 45 fc	 mov	 DWORD PTR _status$[ebp], eax

; 503  : 
; 504  : 	status ^= 1;

  00091	8b 45 fc	 mov	 eax, DWORD PTR _status$[ebp]
  00094	83 f0 01	 xor	 eax, 1
  00097	89 45 fc	 mov	 DWORD PTR _status$[ebp], eax

; 505  : 
; 506  : 	set_client_server_entity_int_value (get_gunship_entity (), INT_TYPE_LOCK_ON_AFTER_LAUNCH, status);

  0009a	83 3d 00 00 00
	00 00		 cmp	 DWORD PTR ?gunship_entity@@3PAUENTITY@@A, 0 ; gunship_entity
  000a1	74 0c		 je	 SHORT $LN9@toggle_lob
  000a3	a1 00 00 00 00	 mov	 eax, DWORD PTR ?gunship_entity@@3PAUENTITY@@A ; gunship_entity
  000a8	8b 08		 mov	 ecx, DWORD PTR [eax]
  000aa	89 4d b8	 mov	 DWORD PTR tv91[ebp], ecx
  000ad	eb 21		 jmp	 SHORT $LN10@toggle_lob
$LN9@toggle_lob:
  000af	8b 15 00 00 00
	00		 mov	 edx, DWORD PTR ?__LINE__Var@?0??toggle_lobl_loal_event@@YGXPAUEVENT@@@Z@4JA
  000b5	83 c2 08	 add	 edx, 8
  000b8	52		 push	 edx
  000b9	68 00 00 00 00	 push	 OFFSET ??_C@_0EP@PONOEKHI@c?3?2users?2nhv90?2projects?2eech?2ap@
  000be	a1 00 00 00 00	 mov	 eax, DWORD PTR ?null_entity_pointer_message@@3PBDB ; null_entity_pointer_message
  000c3	50		 push	 eax
  000c4	e8 00 00 00 00	 call	 ?process_assert@@YGXPBD0H@Z ; process_assert
  000c9	c7 45 b8 00 00
	00 00		 mov	 DWORD PTR tv91[ebp], 0
$LN10@toggle_lob:
  000d0	b9 01 00 00 00	 mov	 ecx, 1
  000d5	85 c9		 test	 ecx, ecx
  000d7	74 09		 je	 SHORT $LN11@toggle_lob
  000d9	c7 45 b4 7e 00
	00 00		 mov	 DWORD PTR tv131[ebp], 126 ; 0000007eH
  000e0	eb 21		 jmp	 SHORT $LN12@toggle_lob
$LN11@toggle_lob:
  000e2	8b 15 00 00 00
	00		 mov	 edx, DWORD PTR ?__LINE__Var@?0??toggle_lobl_loal_event@@YGXPAUEVENT@@@Z@4JA
  000e8	83 c2 08	 add	 edx, 8
  000eb	52		 push	 edx
  000ec	68 00 00 00 00	 push	 OFFSET ??_C@_0EP@PONOEKHI@c?3?2users?2nhv90?2projects?2eech?2ap@
  000f1	a1 00 00 00 00	 mov	 eax, DWORD PTR ?overload_invalid_int_type_message@@3PBDB ; overload_invalid_int_type_message
  000f6	50		 push	 eax
  000f7	e8 00 00 00 00	 call	 ?process_assert@@YGXPBD0H@Z ; process_assert
  000fc	c7 45 b4 00 00
	00 00		 mov	 DWORD PTR tv131[ebp], 0
$LN12@toggle_lob:
  00103	8b 4d fc	 mov	 ecx, DWORD PTR _status$[ebp]
  00106	51		 push	 ecx
  00107	6a 7e		 push	 126			; 0000007eH
  00109	8b 15 00 00 00
	00		 mov	 edx, DWORD PTR ?gunship_entity@@3PAUENTITY@@A ; gunship_entity
  0010f	52		 push	 edx
  00110	69 45 b8 b8 08
	00 00		 imul	 eax, DWORD PTR tv91[ebp], 2232
  00117	8b 4d b4	 mov	 ecx, DWORD PTR tv131[ebp]
  0011a	8d 94 c8 00 00
	00 00		 lea	 edx, DWORD PTR ?fn_set_client_server_entity_int_value@@3PAY1BBH@1P6GXPAUENTITY@@W4INT_TYPES@@H@ZA[eax+ecx*8]
  00121	a1 00 00 00 00	 mov	 eax, DWORD PTR ?system_comms_model@@3W4COMMS_MODEL_TYPES@@A ; system_comms_model
  00126	8b 0c 82	 mov	 ecx, DWORD PTR [edx+eax*4]
  00129	ff d1		 call	 ecx

; 507  : 
; 508  : 	if (status)

  0012b	83 7d fc 00	 cmp	 DWORD PTR _status$[ebp], 0
  0012f	74 3b		 je	 SHORT $LN2@toggle_lob

; 509  : 	{
; 510  : 		play_client_server_cpg_message (get_gunship_entity (), 0.5, 1.0, SPEECH_CATEGORY_CPG_SYSTEMS, 1.0, SPEECH_CPG_SWITCHING_TO_LOAL);

  00131	6a 5a		 push	 90			; 0000005aH
  00133	51		 push	 ecx
  00134	f3 0f 10 05 00
	00 00 00	 movss	 xmm0, DWORD PTR __real@3f800000
  0013c	f3 0f 11 04 24	 movss	 DWORD PTR [esp], xmm0
  00141	6a 04		 push	 4
  00143	51		 push	 ecx
  00144	f3 0f 10 05 00
	00 00 00	 movss	 xmm0, DWORD PTR __real@3f800000
  0014c	f3 0f 11 04 24	 movss	 DWORD PTR [esp], xmm0
  00151	51		 push	 ecx
  00152	f3 0f 10 05 00
	00 00 00	 movss	 xmm0, DWORD PTR __real@3f000000
  0015a	f3 0f 11 04 24	 movss	 DWORD PTR [esp], xmm0
  0015f	a1 00 00 00 00	 mov	 eax, DWORD PTR ?gunship_entity@@3PAUENTITY@@A ; gunship_entity
  00164	50		 push	 eax
  00165	e8 00 00 00 00	 call	 ?play_client_server_cpg_message@@YGHPAUENTITY@@MMHMH@Z ; play_client_server_cpg_message

; 511  : 	}
; 512  : 	else

  0016a	eb 39		 jmp	 SHORT $LN3@toggle_lob
$LN2@toggle_lob:

; 513  : 	{
; 514  : 		play_client_server_cpg_message (get_gunship_entity (), 0.5, 1.0, SPEECH_CATEGORY_CPG_SYSTEMS, 1.0, SPEECH_CPG_SWITCHING_TO_LOBL);

  0016c	6a 5b		 push	 91			; 0000005bH
  0016e	51		 push	 ecx
  0016f	f3 0f 10 05 00
	00 00 00	 movss	 xmm0, DWORD PTR __real@3f800000
  00177	f3 0f 11 04 24	 movss	 DWORD PTR [esp], xmm0
  0017c	6a 04		 push	 4
  0017e	51		 push	 ecx
  0017f	f3 0f 10 05 00
	00 00 00	 movss	 xmm0, DWORD PTR __real@3f800000
  00187	f3 0f 11 04 24	 movss	 DWORD PTR [esp], xmm0
  0018c	51		 push	 ecx
  0018d	f3 0f 10 05 00
	00 00 00	 movss	 xmm0, DWORD PTR __real@3f000000
  00195	f3 0f 11 04 24	 movss	 DWORD PTR [esp], xmm0
  0019a	a1 00 00 00 00	 mov	 eax, DWORD PTR ?gunship_entity@@3PAUENTITY@@A ; gunship_entity
  0019f	50		 push	 eax
  001a0	e8 00 00 00 00	 call	 ?play_client_server_cpg_message@@YGHPAUENTITY@@MMHMH@Z ; play_client_server_cpg_message
$LN3@toggle_lob:

; 515  : 	}
; 516  : }

  001a5	5f		 pop	 edi
  001a6	5e		 pop	 esi
  001a7	5b		 pop	 ebx
  001a8	8b e5		 mov	 esp, ebp
  001aa	5d		 pop	 ebp
  001ab	c2 04 00	 ret	 4
?toggle_lobl_loal_event@@YGXPAUEVENT@@@Z ENDP		; toggle_lobl_loal_event
_TEXT	ENDS
; Function compile flags: /Odtp /ZI
; File c:\users\nhv90\projects\eech\aphavoc\source\gunships\avionics\kiowa\ki_avevn.c
;	COMDAT ?toggle_night_vision_system_event@@YGXPAUEVENT@@@Z
_TEXT	SEGMENT
_ev$ = 8						; size = 4
?toggle_night_vision_system_event@@YGXPAUEVENT@@@Z PROC	; toggle_night_vision_system_event, COMDAT

; 482  : {

  00000	55		 push	 ebp
  00001	8b ec		 mov	 ebp, esp
  00003	83 ec 40	 sub	 esp, 64			; 00000040H
  00006	53		 push	 ebx
  00007	56		 push	 esi
  00008	57		 push	 edi

; 483  : 	if (!kiowa_damage.pnvs)

  00009	a1 00 00 00 00	 mov	 eax, DWORD PTR ?kiowa_damage@@3TKIOWA_DAMAGE_FLAGS@@A ; kiowa_damage
  0000e	c1 e8 0a	 shr	 eax, 10			; 0000000aH
  00011	83 e0 01	 and	 eax, 1
  00014	75 0f		 jne	 SHORT $LN2@toggle_nig

; 484  : 	{
; 485  : 		night_vision_system_active ^= 1;

  00016	a1 00 00 00 00	 mov	 eax, DWORD PTR ?night_vision_system_active@@3HA ; night_vision_system_active
  0001b	83 f0 01	 xor	 eax, 1
  0001e	a3 00 00 00 00	 mov	 DWORD PTR ?night_vision_system_active@@3HA, eax ; night_vision_system_active

; 486  : 	}
; 487  : 	else

  00023	eb 39		 jmp	 SHORT $LN3@toggle_nig
$LN2@toggle_nig:

; 488  : 	{
; 489  : 		play_client_server_cpg_message (get_gunship_entity (), 0.5, 1.0, SPEECH_CATEGORY_CPG_SYSTEMS, 1.0, SPEECH_CPG_PNVS_DAMAGED);

  00025	6a 1c		 push	 28			; 0000001cH
  00027	51		 push	 ecx
  00028	f3 0f 10 05 00
	00 00 00	 movss	 xmm0, DWORD PTR __real@3f800000
  00030	f3 0f 11 04 24	 movss	 DWORD PTR [esp], xmm0
  00035	6a 04		 push	 4
  00037	51		 push	 ecx
  00038	f3 0f 10 05 00
	00 00 00	 movss	 xmm0, DWORD PTR __real@3f800000
  00040	f3 0f 11 04 24	 movss	 DWORD PTR [esp], xmm0
  00045	51		 push	 ecx
  00046	f3 0f 10 05 00
	00 00 00	 movss	 xmm0, DWORD PTR __real@3f000000
  0004e	f3 0f 11 04 24	 movss	 DWORD PTR [esp], xmm0
  00053	a1 00 00 00 00	 mov	 eax, DWORD PTR ?gunship_entity@@3PAUENTITY@@A ; gunship_entity
  00058	50		 push	 eax
  00059	e8 00 00 00 00	 call	 ?play_client_server_cpg_message@@YGHPAUENTITY@@MMHMH@Z ; play_client_server_cpg_message
$LN3@toggle_nig:

; 490  : 	}
; 491  : }

  0005e	5f		 pop	 edi
  0005f	5e		 pop	 esi
  00060	5b		 pop	 ebx
  00061	8b e5		 mov	 esp, ebp
  00063	5d		 pop	 ebp
  00064	c2 04 00	 ret	 4
?toggle_night_vision_system_event@@YGXPAUEVENT@@@Z ENDP	; toggle_night_vision_system_event
_TEXT	ENDS
; Function compile flags: /Odtp /ZI
; File c:\users\nhv90\projects\eech\aphavoc\source\gunships\avionics\kiowa\ki_avevn.c
;	COMDAT ?acknowledge_master_caution_event@@YGXPAUEVENT@@@Z
_TEXT	SEGMENT
_ev$ = 8						; size = 4
?acknowledge_master_caution_event@@YGXPAUEVENT@@@Z PROC	; acknowledge_master_caution_event, COMDAT

; 473  : {

  00000	55		 push	 ebp
  00001	8b ec		 mov	 ebp, esp
  00003	83 ec 40	 sub	 esp, 64			; 00000040H
  00006	53		 push	 ebx
  00007	56		 push	 esi
  00008	57		 push	 edi

; 474  : 	deactivate_kiowa_master_caution ();

  00009	e8 00 00 00 00	 call	 ?deactivate_kiowa_master_caution@@YGXXZ ; deactivate_kiowa_master_caution

; 475  : }

  0000e	5f		 pop	 edi
  0000f	5e		 pop	 esi
  00010	5b		 pop	 ebx
  00011	8b e5		 mov	 esp, ebp
  00013	5d		 pop	 ebp
  00014	c2 04 00	 ret	 4
?acknowledge_master_caution_event@@YGXPAUEVENT@@@Z ENDP	; acknowledge_master_caution_event
_TEXT	ENDS
; Function compile flags: /Odtp /ZI
; File c:\users\nhv90\projects\eech\aphavoc\source\gunships\avionics\kiowa\ki_avevn.c
;	COMDAT ?toggle_ground_stabilisation_event@@YGXPAUEVENT@@@Z
_TEXT	SEGMENT
_ev$ = 8						; size = 4
?toggle_ground_stabilisation_event@@YGXPAUEVENT@@@Z PROC ; toggle_ground_stabilisation_event, COMDAT

; 464  : {

  00000	55		 push	 ebp
  00001	8b ec		 mov	 ebp, esp
  00003	83 ec 40	 sub	 esp, 64			; 00000040H
  00006	53		 push	 ebx
  00007	56		 push	 esi
  00008	57		 push	 edi

; 465  : 	toggle_ground_stabilisation_key++;

  00009	a1 00 00 00 00	 mov	 eax, DWORD PTR ?toggle_ground_stabilisation_key@@3HA ; toggle_ground_stabilisation_key
  0000e	83 c0 01	 add	 eax, 1
  00011	a3 00 00 00 00	 mov	 DWORD PTR ?toggle_ground_stabilisation_key@@3HA, eax ; toggle_ground_stabilisation_key

; 466  : }

  00016	5f		 pop	 edi
  00017	5e		 pop	 esi
  00018	5b		 pop	 ebx
  00019	8b e5		 mov	 esp, ebp
  0001b	5d		 pop	 ebp
  0001c	c2 04 00	 ret	 4
?toggle_ground_stabilisation_event@@YGXPAUEVENT@@@Z ENDP ; toggle_ground_stabilisation_event
_TEXT	ENDS
; Function compile flags: /Odtp /ZI
; File c:\users\nhv90\projects\eech\aphavoc\source\gunships\avionics\kiowa\ki_avevn.c
;	COMDAT ?toggle_lock_target_event@@YGXPAUEVENT@@@Z
_TEXT	SEGMENT
_ev$ = 8						; size = 4
?toggle_lock_target_event@@YGXPAUEVENT@@@Z PROC		; toggle_lock_target_event, COMDAT

; 455  : {

  00000	55		 push	 ebp
  00001	8b ec		 mov	 ebp, esp
  00003	83 ec 40	 sub	 esp, 64			; 00000040H
  00006	53		 push	 ebx
  00007	56		 push	 esi
  00008	57		 push	 edi

; 456  : 	toggle_kiowa_lock_target ();

  00009	e8 00 00 00 00	 call	 ?toggle_kiowa_lock_target@@YGXXZ ; toggle_kiowa_lock_target

; 457  : }

  0000e	5f		 pop	 edi
  0000f	5e		 pop	 esi
  00010	5b		 pop	 ebx
  00011	8b e5		 mov	 esp, ebp
  00013	5d		 pop	 ebp
  00014	c2 04 00	 ret	 4
?toggle_lock_target_event@@YGXPAUEVENT@@@Z ENDP		; toggle_lock_target_event
_TEXT	ENDS
; Function compile flags: /Odtp /ZI
; File c:\users\nhv90\projects\eech\aphavoc\source\gunships\avionics\kiowa\ki_avevn.c
;	COMDAT ?toggle_auto_target_event@@YGXPAUEVENT@@@Z
_TEXT	SEGMENT
_ev$ = 8						; size = 4
?toggle_auto_target_event@@YGXPAUEVENT@@@Z PROC		; toggle_auto_target_event, COMDAT

; 446  : {

  00000	55		 push	 ebp
  00001	8b ec		 mov	 ebp, esp
  00003	83 ec 40	 sub	 esp, 64			; 00000040H
  00006	53		 push	 ebx
  00007	56		 push	 esi
  00008	57		 push	 edi

; 447  : 	toggle_kiowa_auto_target ();

  00009	e8 00 00 00 00	 call	 ?toggle_kiowa_auto_target@@YGXXZ ; toggle_kiowa_auto_target

; 448  : }

  0000e	5f		 pop	 edi
  0000f	5e		 pop	 esi
  00010	5b		 pop	 ebx
  00011	8b e5		 mov	 esp, ebp
  00013	5d		 pop	 ebp
  00014	c2 04 00	 ret	 4
?toggle_auto_target_event@@YGXPAUEVENT@@@Z ENDP		; toggle_auto_target_event
_TEXT	ENDS
; Function compile flags: /Odtp /ZI
; File c:\users\nhv90\projects\eech\aphavoc\source\gunships\avionics\kiowa\ki_avevn.c
;	COMDAT ?select_previous_target_event@@YGXPAUEVENT@@@Z
_TEXT	SEGMENT
_ev$ = 8						; size = 4
?select_previous_target_event@@YGXPAUEVENT@@@Z PROC	; select_previous_target_event, COMDAT

; 437  : {

  00000	55		 push	 ebp
  00001	8b ec		 mov	 ebp, esp
  00003	83 ec 40	 sub	 esp, 64			; 00000040H
  00006	53		 push	 ebx
  00007	56		 push	 esi
  00008	57		 push	 edi

; 438  : 	single_target_acquisition_system_select_previous_target_key++;

  00009	a1 00 00 00 00	 mov	 eax, DWORD PTR ?single_target_acquisition_system_select_previous_target_key@@3HA ; single_target_acquisition_system_select_previous_target_key
  0000e	83 c0 01	 add	 eax, 1
  00011	a3 00 00 00 00	 mov	 DWORD PTR ?single_target_acquisition_system_select_previous_target_key@@3HA, eax ; single_target_acquisition_system_select_previous_target_key

; 439  : }

  00016	5f		 pop	 edi
  00017	5e		 pop	 esi
  00018	5b		 pop	 ebx
  00019	8b e5		 mov	 esp, ebp
  0001b	5d		 pop	 ebp
  0001c	c2 04 00	 ret	 4
?select_previous_target_event@@YGXPAUEVENT@@@Z ENDP	; select_previous_target_event
_TEXT	ENDS
; Function compile flags: /Odtp /ZI
; File c:\users\nhv90\projects\eech\aphavoc\source\gunships\avionics\kiowa\ki_avevn.c
;	COMDAT ?select_next_target_event@@YGXPAUEVENT@@@Z
_TEXT	SEGMENT
_ev$ = 8						; size = 4
?select_next_target_event@@YGXPAUEVENT@@@Z PROC		; select_next_target_event, COMDAT

; 428  : {

  00000	55		 push	 ebp
  00001	8b ec		 mov	 ebp, esp
  00003	83 ec 40	 sub	 esp, 64			; 00000040H
  00006	53		 push	 ebx
  00007	56		 push	 esi
  00008	57		 push	 edi

; 429  : 	single_target_acquisition_system_select_next_target_key++;

  00009	a1 00 00 00 00	 mov	 eax, DWORD PTR ?single_target_acquisition_system_select_next_target_key@@3HA ; single_target_acquisition_system_select_next_target_key
  0000e	83 c0 01	 add	 eax, 1
  00011	a3 00 00 00 00	 mov	 DWORD PTR ?single_target_acquisition_system_select_next_target_key@@3HA, eax ; single_target_acquisition_system_select_next_target_key

; 430  : }

  00016	5f		 pop	 edi
  00017	5e		 pop	 esi
  00018	5b		 pop	 ebx
  00019	8b e5		 mov	 esp, ebp
  0001b	5d		 pop	 ebp
  0001c	c2 04 00	 ret	 4
?select_next_target_event@@YGXPAUEVENT@@@Z ENDP		; select_next_target_event
_TEXT	ENDS
; Function compile flags: /Odtp /ZI
; File c:\users\nhv90\projects\eech\aphavoc\source\gunships\avionics\kiowa\ki_avevn.c
;	COMDAT ?dec_target_priority_fast_event@@YGXPAUEVENT@@@Z
_TEXT	SEGMENT
_ev$ = 8						; size = 4
?dec_target_priority_fast_event@@YGXPAUEVENT@@@Z PROC	; dec_target_priority_fast_event, COMDAT

; 419  : {

  00000	55		 push	 ebp
  00001	8b ec		 mov	 ebp, esp
  00003	83 ec 40	 sub	 esp, 64			; 00000040H
  00006	53		 push	 ebx
  00007	56		 push	 esi
  00008	57		 push	 edi

; 420  : 	single_target_acquisition_system_dec_target_priority_fast_key++;

  00009	a1 00 00 00 00	 mov	 eax, DWORD PTR ?single_target_acquisition_system_dec_target_priority_fast_key@@3HA ; single_target_acquisition_system_dec_target_priority_fast_key
  0000e	83 c0 01	 add	 eax, 1
  00011	a3 00 00 00 00	 mov	 DWORD PTR ?single_target_acquisition_system_dec_target_priority_fast_key@@3HA, eax ; single_target_acquisition_system_dec_target_priority_fast_key

; 421  : }

  00016	5f		 pop	 edi
  00017	5e		 pop	 esi
  00018	5b		 pop	 ebx
  00019	8b e5		 mov	 esp, ebp
  0001b	5d		 pop	 ebp
  0001c	c2 04 00	 ret	 4
?dec_target_priority_fast_event@@YGXPAUEVENT@@@Z ENDP	; dec_target_priority_fast_event
_TEXT	ENDS
; Function compile flags: /Odtp /ZI
; File c:\users\nhv90\projects\eech\aphavoc\source\gunships\avionics\kiowa\ki_avevn.c
;	COMDAT ?dec_target_priority_event@@YGXPAUEVENT@@@Z
_TEXT	SEGMENT
_ev$ = 8						; size = 4
?dec_target_priority_event@@YGXPAUEVENT@@@Z PROC	; dec_target_priority_event, COMDAT

; 410  : {

  00000	55		 push	 ebp
  00001	8b ec		 mov	 ebp, esp
  00003	83 ec 40	 sub	 esp, 64			; 00000040H
  00006	53		 push	 ebx
  00007	56		 push	 esi
  00008	57		 push	 edi

; 411  : 	single_target_acquisition_system_dec_target_priority_key++;

  00009	a1 00 00 00 00	 mov	 eax, DWORD PTR ?single_target_acquisition_system_dec_target_priority_key@@3HA ; single_target_acquisition_system_dec_target_priority_key
  0000e	83 c0 01	 add	 eax, 1
  00011	a3 00 00 00 00	 mov	 DWORD PTR ?single_target_acquisition_system_dec_target_priority_key@@3HA, eax ; single_target_acquisition_system_dec_target_priority_key

; 412  : }

  00016	5f		 pop	 edi
  00017	5e		 pop	 esi
  00018	5b		 pop	 ebx
  00019	8b e5		 mov	 esp, ebp
  0001b	5d		 pop	 ebp
  0001c	c2 04 00	 ret	 4
?dec_target_priority_event@@YGXPAUEVENT@@@Z ENDP	; dec_target_priority_event
_TEXT	ENDS
; Function compile flags: /Odtp /ZI
; File c:\users\nhv90\projects\eech\aphavoc\source\gunships\avionics\kiowa\ki_avevn.c
;	COMDAT ?inc_target_priority_fast_event@@YGXPAUEVENT@@@Z
_TEXT	SEGMENT
_ev$ = 8						; size = 4
?inc_target_priority_fast_event@@YGXPAUEVENT@@@Z PROC	; inc_target_priority_fast_event, COMDAT

; 401  : {

  00000	55		 push	 ebp
  00001	8b ec		 mov	 ebp, esp
  00003	83 ec 40	 sub	 esp, 64			; 00000040H
  00006	53		 push	 ebx
  00007	56		 push	 esi
  00008	57		 push	 edi

; 402  : 	single_target_acquisition_system_inc_target_priority_fast_key++;

  00009	a1 00 00 00 00	 mov	 eax, DWORD PTR ?single_target_acquisition_system_inc_target_priority_fast_key@@3HA ; single_target_acquisition_system_inc_target_priority_fast_key
  0000e	83 c0 01	 add	 eax, 1
  00011	a3 00 00 00 00	 mov	 DWORD PTR ?single_target_acquisition_system_inc_target_priority_fast_key@@3HA, eax ; single_target_acquisition_system_inc_target_priority_fast_key

; 403  : }

  00016	5f		 pop	 edi
  00017	5e		 pop	 esi
  00018	5b		 pop	 ebx
  00019	8b e5		 mov	 esp, ebp
  0001b	5d		 pop	 ebp
  0001c	c2 04 00	 ret	 4
?inc_target_priority_fast_event@@YGXPAUEVENT@@@Z ENDP	; inc_target_priority_fast_event
_TEXT	ENDS
; Function compile flags: /Odtp /ZI
; File c:\users\nhv90\projects\eech\aphavoc\source\gunships\avionics\kiowa\ki_avevn.c
;	COMDAT ?inc_target_priority_event@@YGXPAUEVENT@@@Z
_TEXT	SEGMENT
_ev$ = 8						; size = 4
?inc_target_priority_event@@YGXPAUEVENT@@@Z PROC	; inc_target_priority_event, COMDAT

; 392  : {

  00000	55		 push	 ebp
  00001	8b ec		 mov	 ebp, esp
  00003	83 ec 40	 sub	 esp, 64			; 00000040H
  00006	53		 push	 ebx
  00007	56		 push	 esi
  00008	57		 push	 edi

; 393  : 	single_target_acquisition_system_inc_target_priority_key++;

  00009	a1 00 00 00 00	 mov	 eax, DWORD PTR ?single_target_acquisition_system_inc_target_priority_key@@3HA ; single_target_acquisition_system_inc_target_priority_key
  0000e	83 c0 01	 add	 eax, 1
  00011	a3 00 00 00 00	 mov	 DWORD PTR ?single_target_acquisition_system_inc_target_priority_key@@3HA, eax ; single_target_acquisition_system_inc_target_priority_key

; 394  : }

  00016	5f		 pop	 edi
  00017	5e		 pop	 esi
  00018	5b		 pop	 ebx
  00019	8b e5		 mov	 esp, ebp
  0001b	5d		 pop	 ebp
  0001c	c2 04 00	 ret	 4
?inc_target_priority_event@@YGXPAUEVENT@@@Z ENDP	; inc_target_priority_event
_TEXT	ENDS
; Function compile flags: /Odtp /ZI
; File c:\users\nhv90\projects\eech\aphavoc\source\gunships\avionics\kiowa\ki_avevn.c
;	COMDAT ?toggle_show_allied_targets_event@@YGXPAUEVENT@@@Z
_TEXT	SEGMENT
_ev$ = 8						; size = 4
?toggle_show_allied_targets_event@@YGXPAUEVENT@@@Z PROC	; toggle_show_allied_targets_event, COMDAT

; 383  : {

  00000	55		 push	 ebp
  00001	8b ec		 mov	 ebp, esp
  00003	83 ec 40	 sub	 esp, 64			; 00000040H
  00006	53		 push	 ebx
  00007	56		 push	 esi
  00008	57		 push	 edi

; 384  : 	toggle_kiowa_show_allied_targets ();

  00009	e8 00 00 00 00	 call	 ?toggle_kiowa_show_allied_targets@@YGXXZ ; toggle_kiowa_show_allied_targets

; 385  : }

  0000e	5f		 pop	 edi
  0000f	5e		 pop	 esi
  00010	5b		 pop	 ebx
  00011	8b e5		 mov	 esp, ebp
  00013	5d		 pop	 ebp
  00014	c2 04 00	 ret	 4
?toggle_show_allied_targets_event@@YGXPAUEVENT@@@Z ENDP	; toggle_show_allied_targets_event
_TEXT	ENDS
; Function compile flags: /Odtp /ZI
; File c:\users\nhv90\projects\eech\aphavoc\source\gunships\avionics\kiowa\ki_avevn.c
;	COMDAT ?steer_centre_event@@YGXPAUEVENT@@@Z
_TEXT	SEGMENT
_ev$ = 8						; size = 4
?steer_centre_event@@YGXPAUEVENT@@@Z PROC		; steer_centre_event, COMDAT

; 374  : {

  00000	55		 push	 ebp
  00001	8b ec		 mov	 ebp, esp
  00003	83 ec 40	 sub	 esp, 64			; 00000040H
  00006	53		 push	 ebx
  00007	56		 push	 esi
  00008	57		 push	 edi

; 375  : 	centre_kiowa_target_acquisition_system ();

  00009	e8 00 00 00 00	 call	 ?centre_kiowa_target_acquisition_system@@YGXXZ ; centre_kiowa_target_acquisition_system

; 376  : }

  0000e	5f		 pop	 edi
  0000f	5e		 pop	 esi
  00010	5b		 pop	 ebx
  00011	8b e5		 mov	 esp, ebp
  00013	5d		 pop	 ebp
  00014	c2 04 00	 ret	 4
?steer_centre_event@@YGXPAUEVENT@@@Z ENDP		; steer_centre_event
_TEXT	ENDS
; Function compile flags: /Odtp /ZI
; File c:\users\nhv90\projects\eech\aphavoc\source\gunships\avionics\kiowa\ki_avevn.c
;	COMDAT ?dec_range_fast_event@@YGXPAUEVENT@@@Z
_TEXT	SEGMENT
_ev$ = 8						; size = 4
?dec_range_fast_event@@YGXPAUEVENT@@@Z PROC		; dec_range_fast_event, COMDAT

; 365  : {

  00000	55		 push	 ebp
  00001	8b ec		 mov	 ebp, esp
  00003	83 ec 40	 sub	 esp, 64			; 00000040H
  00006	53		 push	 ebx
  00007	56		 push	 esi
  00008	57		 push	 edi

; 366  : 	single_target_acquisition_system_dec_range_fast_key++;

  00009	a1 00 00 00 00	 mov	 eax, DWORD PTR ?single_target_acquisition_system_dec_range_fast_key@@3HA ; single_target_acquisition_system_dec_range_fast_key
  0000e	83 c0 01	 add	 eax, 1
  00011	a3 00 00 00 00	 mov	 DWORD PTR ?single_target_acquisition_system_dec_range_fast_key@@3HA, eax ; single_target_acquisition_system_dec_range_fast_key

; 367  : }

  00016	5f		 pop	 edi
  00017	5e		 pop	 esi
  00018	5b		 pop	 ebx
  00019	8b e5		 mov	 esp, ebp
  0001b	5d		 pop	 ebp
  0001c	c2 04 00	 ret	 4
?dec_range_fast_event@@YGXPAUEVENT@@@Z ENDP		; dec_range_fast_event
_TEXT	ENDS
; Function compile flags: /Odtp /ZI
; File c:\users\nhv90\projects\eech\aphavoc\source\gunships\avionics\kiowa\ki_avevn.c
;	COMDAT ?toggle_eo_system_event@@YGXPAUEVENT@@@Z
_TEXT	SEGMENT
_ev$ = 8						; size = 4
?toggle_eo_system_event@@YGXPAUEVENT@@@Z PROC		; toggle_eo_system_event, COMDAT

; 356  : {

  00000	55		 push	 ebp
  00001	8b ec		 mov	 ebp, esp
  00003	83 ec 40	 sub	 esp, 64			; 00000040H
  00006	53		 push	 ebx
  00007	56		 push	 esi
  00008	57		 push	 edi

; 357  : 	toggle_kiowa_eo_system();

  00009	e8 00 00 00 00	 call	 ?toggle_kiowa_eo_system@@YGXXZ ; toggle_kiowa_eo_system

; 358  : }

  0000e	5f		 pop	 edi
  0000f	5e		 pop	 esi
  00010	5b		 pop	 ebx
  00011	8b e5		 mov	 esp, ebp
  00013	5d		 pop	 ebp
  00014	c2 04 00	 ret	 4
?toggle_eo_system_event@@YGXPAUEVENT@@@Z ENDP		; toggle_eo_system_event
_TEXT	ENDS
; Function compile flags: /Odtp /ZI
; File c:\users\nhv90\projects\eech\aphavoc\source\gunships\avionics\kiowa\ki_avevn.c
;	COMDAT ?dec_eo_zoom_event@@YGXPAUEVENT@@@Z
_TEXT	SEGMENT
_ev$ = 8						; size = 4
?dec_eo_zoom_event@@YGXPAUEVENT@@@Z PROC		; dec_eo_zoom_event, COMDAT

; 347  : {

  00000	55		 push	 ebp
  00001	8b ec		 mov	 ebp, esp
  00003	83 ec 40	 sub	 esp, 64			; 00000040H
  00006	53		 push	 ebx
  00007	56		 push	 esi
  00008	57		 push	 edi

; 348  : 	dec_kiowa_eo_zoom();

  00009	e8 00 00 00 00	 call	 ?dec_kiowa_eo_zoom@@YGXXZ ; dec_kiowa_eo_zoom

; 349  : }

  0000e	5f		 pop	 edi
  0000f	5e		 pop	 esi
  00010	5b		 pop	 ebx
  00011	8b e5		 mov	 esp, ebp
  00013	5d		 pop	 ebp
  00014	c2 04 00	 ret	 4
?dec_eo_zoom_event@@YGXPAUEVENT@@@Z ENDP		; dec_eo_zoom_event
_TEXT	ENDS
; Function compile flags: /Odtp /ZI
; File c:\users\nhv90\projects\eech\aphavoc\source\gunships\avionics\kiowa\ki_avevn.c
;	COMDAT ?inc_eo_zoom_event@@YGXPAUEVENT@@@Z
_TEXT	SEGMENT
_ev$ = 8						; size = 4
?inc_eo_zoom_event@@YGXPAUEVENT@@@Z PROC		; inc_eo_zoom_event, COMDAT

; 342  : {

  00000	55		 push	 ebp
  00001	8b ec		 mov	 ebp, esp
  00003	83 ec 40	 sub	 esp, 64			; 00000040H
  00006	53		 push	 ebx
  00007	56		 push	 esi
  00008	57		 push	 edi

; 343  : 	inc_kiowa_eo_zoom();

  00009	e8 00 00 00 00	 call	 ?inc_kiowa_eo_zoom@@YGXXZ ; inc_kiowa_eo_zoom

; 344  : }

  0000e	5f		 pop	 edi
  0000f	5e		 pop	 esi
  00010	5b		 pop	 ebx
  00011	8b e5		 mov	 esp, ebp
  00013	5d		 pop	 ebp
  00014	c2 04 00	 ret	 4
?inc_eo_zoom_event@@YGXPAUEVENT@@@Z ENDP		; inc_eo_zoom_event
_TEXT	ENDS
; Function compile flags: /Odtp /ZI
; File c:\users\nhv90\projects\eech\aphavoc\source\gunships\avionics\kiowa\ki_avevn.c
;	COMDAT ?dec_range_event@@YGXPAUEVENT@@@Z
_TEXT	SEGMENT
_ev$ = 8						; size = 4
?dec_range_event@@YGXPAUEVENT@@@Z PROC			; dec_range_event, COMDAT

; 333  : {

  00000	55		 push	 ebp
  00001	8b ec		 mov	 ebp, esp
  00003	83 ec 40	 sub	 esp, 64			; 00000040H
  00006	53		 push	 ebx
  00007	56		 push	 esi
  00008	57		 push	 edi

; 334  : 	single_target_acquisition_system_dec_range_key++;

  00009	a1 00 00 00 00	 mov	 eax, DWORD PTR ?single_target_acquisition_system_dec_range_key@@3HA ; single_target_acquisition_system_dec_range_key
  0000e	83 c0 01	 add	 eax, 1
  00011	a3 00 00 00 00	 mov	 DWORD PTR ?single_target_acquisition_system_dec_range_key@@3HA, eax ; single_target_acquisition_system_dec_range_key

; 335  : }

  00016	5f		 pop	 edi
  00017	5e		 pop	 esi
  00018	5b		 pop	 ebx
  00019	8b e5		 mov	 esp, ebp
  0001b	5d		 pop	 ebp
  0001c	c2 04 00	 ret	 4
?dec_range_event@@YGXPAUEVENT@@@Z ENDP			; dec_range_event
_TEXT	ENDS
; Function compile flags: /Odtp /ZI
; File c:\users\nhv90\projects\eech\aphavoc\source\gunships\avionics\kiowa\ki_avevn.c
;	COMDAT ?inc_range_fast_event@@YGXPAUEVENT@@@Z
_TEXT	SEGMENT
_ev$ = 8						; size = 4
?inc_range_fast_event@@YGXPAUEVENT@@@Z PROC		; inc_range_fast_event, COMDAT

; 324  : {

  00000	55		 push	 ebp
  00001	8b ec		 mov	 ebp, esp
  00003	83 ec 40	 sub	 esp, 64			; 00000040H
  00006	53		 push	 ebx
  00007	56		 push	 esi
  00008	57		 push	 edi

; 325  : 	single_target_acquisition_system_inc_range_fast_key++;

  00009	a1 00 00 00 00	 mov	 eax, DWORD PTR ?single_target_acquisition_system_inc_range_fast_key@@3HA ; single_target_acquisition_system_inc_range_fast_key
  0000e	83 c0 01	 add	 eax, 1
  00011	a3 00 00 00 00	 mov	 DWORD PTR ?single_target_acquisition_system_inc_range_fast_key@@3HA, eax ; single_target_acquisition_system_inc_range_fast_key

; 326  : }

  00016	5f		 pop	 edi
  00017	5e		 pop	 esi
  00018	5b		 pop	 ebx
  00019	8b e5		 mov	 esp, ebp
  0001b	5d		 pop	 ebp
  0001c	c2 04 00	 ret	 4
?inc_range_fast_event@@YGXPAUEVENT@@@Z ENDP		; inc_range_fast_event
_TEXT	ENDS
; Function compile flags: /Odtp /ZI
; File c:\users\nhv90\projects\eech\aphavoc\source\gunships\avionics\kiowa\ki_avevn.c
;	COMDAT ?inc_range_event@@YGXPAUEVENT@@@Z
_TEXT	SEGMENT
_ev$ = 8						; size = 4
?inc_range_event@@YGXPAUEVENT@@@Z PROC			; inc_range_event, COMDAT

; 315  : {

  00000	55		 push	 ebp
  00001	8b ec		 mov	 ebp, esp
  00003	83 ec 40	 sub	 esp, 64			; 00000040H
  00006	53		 push	 ebx
  00007	56		 push	 esi
  00008	57		 push	 edi

; 316  : 	single_target_acquisition_system_inc_range_key++;

  00009	a1 00 00 00 00	 mov	 eax, DWORD PTR ?single_target_acquisition_system_inc_range_key@@3HA ; single_target_acquisition_system_inc_range_key
  0000e	83 c0 01	 add	 eax, 1
  00011	a3 00 00 00 00	 mov	 DWORD PTR ?single_target_acquisition_system_inc_range_key@@3HA, eax ; single_target_acquisition_system_inc_range_key

; 317  : }

  00016	5f		 pop	 edi
  00017	5e		 pop	 esi
  00018	5b		 pop	 ebx
  00019	8b e5		 mov	 esp, ebp
  0001b	5d		 pop	 ebp
  0001c	c2 04 00	 ret	 4
?inc_range_event@@YGXPAUEVENT@@@Z ENDP			; inc_range_event
_TEXT	ENDS
; Function compile flags: /Odtp /ZI
; File c:\users\nhv90\projects\eech\aphavoc\source\gunships\avionics\kiowa\ki_avevn.c
;	COMDAT ?steer_down_fine_event@@YGXPAUEVENT@@@Z
_TEXT	SEGMENT
_ev$ = 8						; size = 4
?steer_down_fine_event@@YGXPAUEVENT@@@Z PROC		; steer_down_fine_event, COMDAT

; 299  : {

  00000	55		 push	 ebp
  00001	8b ec		 mov	 ebp, esp
  00003	83 ec 40	 sub	 esp, 64			; 00000040H
  00006	53		 push	 ebx
  00007	56		 push	 esi
  00008	57		 push	 edi

; 300  : 	if (ev->state == KEY_STATE_DOWN)

  00009	8b 45 08	 mov	 eax, DWORD PTR _ev$[ebp]
  0000c	0f b7 48 08	 movzx	 ecx, WORD PTR [eax+8]
  00010	83 f9 02	 cmp	 ecx, 2
  00013	75 0c		 jne	 SHORT $LN2@steer_down

; 301  : 	{
; 302  : 		continuous_target_acquisition_system_steer_down_fine_key = TRUE;

  00015	c7 05 00 00 00
	00 01 00 00 00	 mov	 DWORD PTR ?continuous_target_acquisition_system_steer_down_fine_key@@3HA, 1 ; continuous_target_acquisition_system_steer_down_fine_key

; 303  : 	}
; 304  : 	else

  0001f	eb 0a		 jmp	 SHORT $LN1@steer_down
$LN2@steer_down:

; 305  : 	{
; 306  : 		continuous_target_acquisition_system_steer_down_fine_key = FALSE;

  00021	c7 05 00 00 00
	00 00 00 00 00	 mov	 DWORD PTR ?continuous_target_acquisition_system_steer_down_fine_key@@3HA, 0 ; continuous_target_acquisition_system_steer_down_fine_key
$LN1@steer_down:

; 307  : 	}
; 308  : }

  0002b	5f		 pop	 edi
  0002c	5e		 pop	 esi
  0002d	5b		 pop	 ebx
  0002e	8b e5		 mov	 esp, ebp
  00030	5d		 pop	 ebp
  00031	c2 04 00	 ret	 4
?steer_down_fine_event@@YGXPAUEVENT@@@Z ENDP		; steer_down_fine_event
_TEXT	ENDS
; Function compile flags: /Odtp /ZI
; File c:\users\nhv90\projects\eech\aphavoc\source\gunships\avionics\kiowa\ki_avevn.c
;	COMDAT ?steer_down_fast_event@@YGXPAUEVENT@@@Z
_TEXT	SEGMENT
_ev$ = 8						; size = 4
?steer_down_fast_event@@YGXPAUEVENT@@@Z PROC		; steer_down_fast_event, COMDAT

; 281  : {

  00000	55		 push	 ebp
  00001	8b ec		 mov	 ebp, esp
  00003	83 ec 40	 sub	 esp, 64			; 00000040H
  00006	53		 push	 ebx
  00007	56		 push	 esi
  00008	57		 push	 edi

; 282  : 	if (ev->state == KEY_STATE_DOWN)

  00009	8b 45 08	 mov	 eax, DWORD PTR _ev$[ebp]
  0000c	0f b7 48 08	 movzx	 ecx, WORD PTR [eax+8]
  00010	83 f9 02	 cmp	 ecx, 2
  00013	75 19		 jne	 SHORT $LN2@steer_down

; 283  : 	{
; 284  : 		continuous_target_acquisition_system_steer_down_fast_key = TRUE;

  00015	c7 05 00 00 00
	00 01 00 00 00	 mov	 DWORD PTR ?continuous_target_acquisition_system_steer_down_fast_key@@3HA, 1 ; continuous_target_acquisition_system_steer_down_fast_key

; 285  : 
; 286  : 		single_target_acquisition_system_steer_down_fast_key++;

  0001f	a1 00 00 00 00	 mov	 eax, DWORD PTR ?single_target_acquisition_system_steer_down_fast_key@@3HA ; single_target_acquisition_system_steer_down_fast_key
  00024	83 c0 01	 add	 eax, 1
  00027	a3 00 00 00 00	 mov	 DWORD PTR ?single_target_acquisition_system_steer_down_fast_key@@3HA, eax ; single_target_acquisition_system_steer_down_fast_key

; 287  : 	}
; 288  : 	else

  0002c	eb 0a		 jmp	 SHORT $LN1@steer_down
$LN2@steer_down:

; 289  : 	{
; 290  : 		continuous_target_acquisition_system_steer_down_fast_key = FALSE;

  0002e	c7 05 00 00 00
	00 00 00 00 00	 mov	 DWORD PTR ?continuous_target_acquisition_system_steer_down_fast_key@@3HA, 0 ; continuous_target_acquisition_system_steer_down_fast_key
$LN1@steer_down:

; 291  : 	}
; 292  : }

  00038	5f		 pop	 edi
  00039	5e		 pop	 esi
  0003a	5b		 pop	 ebx
  0003b	8b e5		 mov	 esp, ebp
  0003d	5d		 pop	 ebp
  0003e	c2 04 00	 ret	 4
?steer_down_fast_event@@YGXPAUEVENT@@@Z ENDP		; steer_down_fast_event
_TEXT	ENDS
; Function compile flags: /Odtp /ZI
; File c:\users\nhv90\projects\eech\aphavoc\source\gunships\avionics\kiowa\ki_avevn.c
;	COMDAT ?steer_down_event@@YGXPAUEVENT@@@Z
_TEXT	SEGMENT
_ev$ = 8						; size = 4
?steer_down_event@@YGXPAUEVENT@@@Z PROC			; steer_down_event, COMDAT

; 263  : {

  00000	55		 push	 ebp
  00001	8b ec		 mov	 ebp, esp
  00003	83 ec 40	 sub	 esp, 64			; 00000040H
  00006	53		 push	 ebx
  00007	56		 push	 esi
  00008	57		 push	 edi

; 264  : 	if (ev->state == KEY_STATE_DOWN)

  00009	8b 45 08	 mov	 eax, DWORD PTR _ev$[ebp]
  0000c	0f b7 48 08	 movzx	 ecx, WORD PTR [eax+8]
  00010	83 f9 02	 cmp	 ecx, 2
  00013	75 19		 jne	 SHORT $LN2@steer_down

; 265  : 	{
; 266  : 		continuous_target_acquisition_system_steer_down_key = TRUE;

  00015	c7 05 00 00 00
	00 01 00 00 00	 mov	 DWORD PTR ?continuous_target_acquisition_system_steer_down_key@@3HA, 1 ; continuous_target_acquisition_system_steer_down_key

; 267  : 
; 268  : 		single_target_acquisition_system_steer_down_key++;

  0001f	a1 00 00 00 00	 mov	 eax, DWORD PTR ?single_target_acquisition_system_steer_down_key@@3HA ; single_target_acquisition_system_steer_down_key
  00024	83 c0 01	 add	 eax, 1
  00027	a3 00 00 00 00	 mov	 DWORD PTR ?single_target_acquisition_system_steer_down_key@@3HA, eax ; single_target_acquisition_system_steer_down_key

; 269  : 	}
; 270  : 	else

  0002c	eb 0a		 jmp	 SHORT $LN1@steer_down
$LN2@steer_down:

; 271  : 	{
; 272  : 		continuous_target_acquisition_system_steer_down_key = FALSE;

  0002e	c7 05 00 00 00
	00 00 00 00 00	 mov	 DWORD PTR ?continuous_target_acquisition_system_steer_down_key@@3HA, 0 ; continuous_target_acquisition_system_steer_down_key
$LN1@steer_down:

; 273  : 	}
; 274  : }

  00038	5f		 pop	 edi
  00039	5e		 pop	 esi
  0003a	5b		 pop	 ebx
  0003b	8b e5		 mov	 esp, ebp
  0003d	5d		 pop	 ebp
  0003e	c2 04 00	 ret	 4
?steer_down_event@@YGXPAUEVENT@@@Z ENDP			; steer_down_event
_TEXT	ENDS
; Function compile flags: /Odtp /ZI
; File c:\users\nhv90\projects\eech\aphavoc\source\gunships\avionics\kiowa\ki_avevn.c
;	COMDAT ?steer_up_fine_event@@YGXPAUEVENT@@@Z
_TEXT	SEGMENT
_ev$ = 8						; size = 4
?steer_up_fine_event@@YGXPAUEVENT@@@Z PROC		; steer_up_fine_event, COMDAT

; 247  : {

  00000	55		 push	 ebp
  00001	8b ec		 mov	 ebp, esp
  00003	83 ec 40	 sub	 esp, 64			; 00000040H
  00006	53		 push	 ebx
  00007	56		 push	 esi
  00008	57		 push	 edi

; 248  : 	if (ev->state == KEY_STATE_DOWN)

  00009	8b 45 08	 mov	 eax, DWORD PTR _ev$[ebp]
  0000c	0f b7 48 08	 movzx	 ecx, WORD PTR [eax+8]
  00010	83 f9 02	 cmp	 ecx, 2
  00013	75 0c		 jne	 SHORT $LN2@steer_up_f

; 249  : 	{
; 250  : 		continuous_target_acquisition_system_steer_up_fine_key = TRUE;

  00015	c7 05 00 00 00
	00 01 00 00 00	 mov	 DWORD PTR ?continuous_target_acquisition_system_steer_up_fine_key@@3HA, 1 ; continuous_target_acquisition_system_steer_up_fine_key

; 251  : 	}
; 252  : 	else

  0001f	eb 0a		 jmp	 SHORT $LN1@steer_up_f
$LN2@steer_up_f:

; 253  : 	{
; 254  : 		continuous_target_acquisition_system_steer_up_fine_key = FALSE;

  00021	c7 05 00 00 00
	00 00 00 00 00	 mov	 DWORD PTR ?continuous_target_acquisition_system_steer_up_fine_key@@3HA, 0 ; continuous_target_acquisition_system_steer_up_fine_key
$LN1@steer_up_f:

; 255  : 	}
; 256  : }

  0002b	5f		 pop	 edi
  0002c	5e		 pop	 esi
  0002d	5b		 pop	 ebx
  0002e	8b e5		 mov	 esp, ebp
  00030	5d		 pop	 ebp
  00031	c2 04 00	 ret	 4
?steer_up_fine_event@@YGXPAUEVENT@@@Z ENDP		; steer_up_fine_event
_TEXT	ENDS
; Function compile flags: /Odtp /ZI
; File c:\users\nhv90\projects\eech\aphavoc\source\gunships\avionics\kiowa\ki_avevn.c
;	COMDAT ?steer_up_fast_event@@YGXPAUEVENT@@@Z
_TEXT	SEGMENT
_ev$ = 8						; size = 4
?steer_up_fast_event@@YGXPAUEVENT@@@Z PROC		; steer_up_fast_event, COMDAT

; 229  : {

  00000	55		 push	 ebp
  00001	8b ec		 mov	 ebp, esp
  00003	83 ec 40	 sub	 esp, 64			; 00000040H
  00006	53		 push	 ebx
  00007	56		 push	 esi
  00008	57		 push	 edi

; 230  : 	if (ev->state == KEY_STATE_DOWN)

  00009	8b 45 08	 mov	 eax, DWORD PTR _ev$[ebp]
  0000c	0f b7 48 08	 movzx	 ecx, WORD PTR [eax+8]
  00010	83 f9 02	 cmp	 ecx, 2
  00013	75 19		 jne	 SHORT $LN2@steer_up_f

; 231  : 	{
; 232  : 		continuous_target_acquisition_system_steer_up_fast_key = TRUE;

  00015	c7 05 00 00 00
	00 01 00 00 00	 mov	 DWORD PTR ?continuous_target_acquisition_system_steer_up_fast_key@@3HA, 1 ; continuous_target_acquisition_system_steer_up_fast_key

; 233  : 
; 234  : 		single_target_acquisition_system_steer_up_fast_key++;

  0001f	a1 00 00 00 00	 mov	 eax, DWORD PTR ?single_target_acquisition_system_steer_up_fast_key@@3HA ; single_target_acquisition_system_steer_up_fast_key
  00024	83 c0 01	 add	 eax, 1
  00027	a3 00 00 00 00	 mov	 DWORD PTR ?single_target_acquisition_system_steer_up_fast_key@@3HA, eax ; single_target_acquisition_system_steer_up_fast_key

; 235  : 	}
; 236  : 	else

  0002c	eb 0a		 jmp	 SHORT $LN1@steer_up_f
$LN2@steer_up_f:

; 237  : 	{
; 238  : 		continuous_target_acquisition_system_steer_up_fast_key = FALSE;

  0002e	c7 05 00 00 00
	00 00 00 00 00	 mov	 DWORD PTR ?continuous_target_acquisition_system_steer_up_fast_key@@3HA, 0 ; continuous_target_acquisition_system_steer_up_fast_key
$LN1@steer_up_f:

; 239  : 	}
; 240  : }

  00038	5f		 pop	 edi
  00039	5e		 pop	 esi
  0003a	5b		 pop	 ebx
  0003b	8b e5		 mov	 esp, ebp
  0003d	5d		 pop	 ebp
  0003e	c2 04 00	 ret	 4
?steer_up_fast_event@@YGXPAUEVENT@@@Z ENDP		; steer_up_fast_event
_TEXT	ENDS
; Function compile flags: /Odtp /ZI
; File c:\users\nhv90\projects\eech\aphavoc\source\gunships\avionics\kiowa\ki_avevn.c
;	COMDAT ?steer_up_event@@YGXPAUEVENT@@@Z
_TEXT	SEGMENT
_ev$ = 8						; size = 4
?steer_up_event@@YGXPAUEVENT@@@Z PROC			; steer_up_event, COMDAT

; 211  : {

  00000	55		 push	 ebp
  00001	8b ec		 mov	 ebp, esp
  00003	83 ec 40	 sub	 esp, 64			; 00000040H
  00006	53		 push	 ebx
  00007	56		 push	 esi
  00008	57		 push	 edi

; 212  : 	if (ev->state == KEY_STATE_DOWN)

  00009	8b 45 08	 mov	 eax, DWORD PTR _ev$[ebp]
  0000c	0f b7 48 08	 movzx	 ecx, WORD PTR [eax+8]
  00010	83 f9 02	 cmp	 ecx, 2
  00013	75 19		 jne	 SHORT $LN2@steer_up_e

; 213  : 	{
; 214  : 		continuous_target_acquisition_system_steer_up_key = TRUE;

  00015	c7 05 00 00 00
	00 01 00 00 00	 mov	 DWORD PTR ?continuous_target_acquisition_system_steer_up_key@@3HA, 1 ; continuous_target_acquisition_system_steer_up_key

; 215  : 
; 216  : 		single_target_acquisition_system_steer_up_key++;

  0001f	a1 00 00 00 00	 mov	 eax, DWORD PTR ?single_target_acquisition_system_steer_up_key@@3HA ; single_target_acquisition_system_steer_up_key
  00024	83 c0 01	 add	 eax, 1
  00027	a3 00 00 00 00	 mov	 DWORD PTR ?single_target_acquisition_system_steer_up_key@@3HA, eax ; single_target_acquisition_system_steer_up_key

; 217  : 	}
; 218  : 	else

  0002c	eb 0a		 jmp	 SHORT $LN1@steer_up_e
$LN2@steer_up_e:

; 219  : 	{
; 220  : 		continuous_target_acquisition_system_steer_up_key = FALSE;

  0002e	c7 05 00 00 00
	00 00 00 00 00	 mov	 DWORD PTR ?continuous_target_acquisition_system_steer_up_key@@3HA, 0 ; continuous_target_acquisition_system_steer_up_key
$LN1@steer_up_e:

; 221  : 	}
; 222  : }

  00038	5f		 pop	 edi
  00039	5e		 pop	 esi
  0003a	5b		 pop	 ebx
  0003b	8b e5		 mov	 esp, ebp
  0003d	5d		 pop	 ebp
  0003e	c2 04 00	 ret	 4
?steer_up_event@@YGXPAUEVENT@@@Z ENDP			; steer_up_event
_TEXT	ENDS
; Function compile flags: /Odtp /ZI
; File c:\users\nhv90\projects\eech\aphavoc\source\gunships\avionics\kiowa\ki_avevn.c
;	COMDAT ?steer_right_fine_event@@YGXPAUEVENT@@@Z
_TEXT	SEGMENT
_ev$ = 8						; size = 4
?steer_right_fine_event@@YGXPAUEVENT@@@Z PROC		; steer_right_fine_event, COMDAT

; 195  : {

  00000	55		 push	 ebp
  00001	8b ec		 mov	 ebp, esp
  00003	83 ec 40	 sub	 esp, 64			; 00000040H
  00006	53		 push	 ebx
  00007	56		 push	 esi
  00008	57		 push	 edi

; 196  : 	if (ev->state == KEY_STATE_DOWN)

  00009	8b 45 08	 mov	 eax, DWORD PTR _ev$[ebp]
  0000c	0f b7 48 08	 movzx	 ecx, WORD PTR [eax+8]
  00010	83 f9 02	 cmp	 ecx, 2
  00013	75 0c		 jne	 SHORT $LN2@steer_righ

; 197  : 	{
; 198  : 		continuous_target_acquisition_system_steer_right_fine_key = TRUE;

  00015	c7 05 00 00 00
	00 01 00 00 00	 mov	 DWORD PTR ?continuous_target_acquisition_system_steer_right_fine_key@@3HA, 1 ; continuous_target_acquisition_system_steer_right_fine_key

; 199  : 	}
; 200  : 	else

  0001f	eb 0a		 jmp	 SHORT $LN1@steer_righ
$LN2@steer_righ:

; 201  : 	{
; 202  : 		continuous_target_acquisition_system_steer_right_fine_key = FALSE;

  00021	c7 05 00 00 00
	00 00 00 00 00	 mov	 DWORD PTR ?continuous_target_acquisition_system_steer_right_fine_key@@3HA, 0 ; continuous_target_acquisition_system_steer_right_fine_key
$LN1@steer_righ:

; 203  : 	}
; 204  : }

  0002b	5f		 pop	 edi
  0002c	5e		 pop	 esi
  0002d	5b		 pop	 ebx
  0002e	8b e5		 mov	 esp, ebp
  00030	5d		 pop	 ebp
  00031	c2 04 00	 ret	 4
?steer_right_fine_event@@YGXPAUEVENT@@@Z ENDP		; steer_right_fine_event
_TEXT	ENDS
; Function compile flags: /Odtp /ZI
; File c:\users\nhv90\projects\eech\aphavoc\source\gunships\avionics\kiowa\ki_avevn.c
;	COMDAT ?steer_right_fast_event@@YGXPAUEVENT@@@Z
_TEXT	SEGMENT
_ev$ = 8						; size = 4
?steer_right_fast_event@@YGXPAUEVENT@@@Z PROC		; steer_right_fast_event, COMDAT

; 177  : {

  00000	55		 push	 ebp
  00001	8b ec		 mov	 ebp, esp
  00003	83 ec 40	 sub	 esp, 64			; 00000040H
  00006	53		 push	 ebx
  00007	56		 push	 esi
  00008	57		 push	 edi

; 178  : 	if (ev->state == KEY_STATE_DOWN)

  00009	8b 45 08	 mov	 eax, DWORD PTR _ev$[ebp]
  0000c	0f b7 48 08	 movzx	 ecx, WORD PTR [eax+8]
  00010	83 f9 02	 cmp	 ecx, 2
  00013	75 19		 jne	 SHORT $LN2@steer_righ

; 179  : 	{
; 180  : 		continuous_target_acquisition_system_steer_right_fast_key = TRUE;

  00015	c7 05 00 00 00
	00 01 00 00 00	 mov	 DWORD PTR ?continuous_target_acquisition_system_steer_right_fast_key@@3HA, 1 ; continuous_target_acquisition_system_steer_right_fast_key

; 181  : 
; 182  : 		single_target_acquisition_system_steer_right_fast_key++;

  0001f	a1 00 00 00 00	 mov	 eax, DWORD PTR ?single_target_acquisition_system_steer_right_fast_key@@3HA ; single_target_acquisition_system_steer_right_fast_key
  00024	83 c0 01	 add	 eax, 1
  00027	a3 00 00 00 00	 mov	 DWORD PTR ?single_target_acquisition_system_steer_right_fast_key@@3HA, eax ; single_target_acquisition_system_steer_right_fast_key

; 183  : 	}
; 184  : 	else

  0002c	eb 0a		 jmp	 SHORT $LN1@steer_righ
$LN2@steer_righ:

; 185  : 	{
; 186  : 		continuous_target_acquisition_system_steer_right_fast_key = FALSE;

  0002e	c7 05 00 00 00
	00 00 00 00 00	 mov	 DWORD PTR ?continuous_target_acquisition_system_steer_right_fast_key@@3HA, 0 ; continuous_target_acquisition_system_steer_right_fast_key
$LN1@steer_righ:

; 187  : 	}
; 188  : }

  00038	5f		 pop	 edi
  00039	5e		 pop	 esi
  0003a	5b		 pop	 ebx
  0003b	8b e5		 mov	 esp, ebp
  0003d	5d		 pop	 ebp
  0003e	c2 04 00	 ret	 4
?steer_right_fast_event@@YGXPAUEVENT@@@Z ENDP		; steer_right_fast_event
_TEXT	ENDS
; Function compile flags: /Odtp /ZI
; File c:\users\nhv90\projects\eech\aphavoc\source\gunships\avionics\kiowa\ki_avevn.c
;	COMDAT ?steer_right_event@@YGXPAUEVENT@@@Z
_TEXT	SEGMENT
_ev$ = 8						; size = 4
?steer_right_event@@YGXPAUEVENT@@@Z PROC		; steer_right_event, COMDAT

; 159  : {

  00000	55		 push	 ebp
  00001	8b ec		 mov	 ebp, esp
  00003	83 ec 40	 sub	 esp, 64			; 00000040H
  00006	53		 push	 ebx
  00007	56		 push	 esi
  00008	57		 push	 edi

; 160  : 	if (ev->state == KEY_STATE_DOWN)

  00009	8b 45 08	 mov	 eax, DWORD PTR _ev$[ebp]
  0000c	0f b7 48 08	 movzx	 ecx, WORD PTR [eax+8]
  00010	83 f9 02	 cmp	 ecx, 2
  00013	75 19		 jne	 SHORT $LN2@steer_righ

; 161  : 	{
; 162  : 		continuous_target_acquisition_system_steer_right_key = TRUE;

  00015	c7 05 00 00 00
	00 01 00 00 00	 mov	 DWORD PTR ?continuous_target_acquisition_system_steer_right_key@@3HA, 1 ; continuous_target_acquisition_system_steer_right_key

; 163  : 
; 164  : 		single_target_acquisition_system_steer_right_key++;

  0001f	a1 00 00 00 00	 mov	 eax, DWORD PTR ?single_target_acquisition_system_steer_right_key@@3HA ; single_target_acquisition_system_steer_right_key
  00024	83 c0 01	 add	 eax, 1
  00027	a3 00 00 00 00	 mov	 DWORD PTR ?single_target_acquisition_system_steer_right_key@@3HA, eax ; single_target_acquisition_system_steer_right_key

; 165  : 	}
; 166  : 	else

  0002c	eb 0a		 jmp	 SHORT $LN1@steer_righ
$LN2@steer_righ:

; 167  : 	{
; 168  : 		continuous_target_acquisition_system_steer_right_key = FALSE;

  0002e	c7 05 00 00 00
	00 00 00 00 00	 mov	 DWORD PTR ?continuous_target_acquisition_system_steer_right_key@@3HA, 0 ; continuous_target_acquisition_system_steer_right_key
$LN1@steer_righ:

; 169  : 	}
; 170  : }

  00038	5f		 pop	 edi
  00039	5e		 pop	 esi
  0003a	5b		 pop	 ebx
  0003b	8b e5		 mov	 esp, ebp
  0003d	5d		 pop	 ebp
  0003e	c2 04 00	 ret	 4
?steer_right_event@@YGXPAUEVENT@@@Z ENDP		; steer_right_event
_TEXT	ENDS
; Function compile flags: /Odtp /ZI
; File c:\users\nhv90\projects\eech\aphavoc\source\gunships\avionics\kiowa\ki_avevn.c
;	COMDAT ?steer_left_fine_event@@YGXPAUEVENT@@@Z
_TEXT	SEGMENT
_ev$ = 8						; size = 4
?steer_left_fine_event@@YGXPAUEVENT@@@Z PROC		; steer_left_fine_event, COMDAT

; 143  : {

  00000	55		 push	 ebp
  00001	8b ec		 mov	 ebp, esp
  00003	83 ec 40	 sub	 esp, 64			; 00000040H
  00006	53		 push	 ebx
  00007	56		 push	 esi
  00008	57		 push	 edi

; 144  : 	if (ev->state == KEY_STATE_DOWN)

  00009	8b 45 08	 mov	 eax, DWORD PTR _ev$[ebp]
  0000c	0f b7 48 08	 movzx	 ecx, WORD PTR [eax+8]
  00010	83 f9 02	 cmp	 ecx, 2
  00013	75 0c		 jne	 SHORT $LN2@steer_left

; 145  : 	{
; 146  : 		continuous_target_acquisition_system_steer_left_fine_key = TRUE;

  00015	c7 05 00 00 00
	00 01 00 00 00	 mov	 DWORD PTR ?continuous_target_acquisition_system_steer_left_fine_key@@3HA, 1 ; continuous_target_acquisition_system_steer_left_fine_key

; 147  : 	}
; 148  : 	else

  0001f	eb 0a		 jmp	 SHORT $LN1@steer_left
$LN2@steer_left:

; 149  : 	{
; 150  : 		continuous_target_acquisition_system_steer_left_fine_key = FALSE;

  00021	c7 05 00 00 00
	00 00 00 00 00	 mov	 DWORD PTR ?continuous_target_acquisition_system_steer_left_fine_key@@3HA, 0 ; continuous_target_acquisition_system_steer_left_fine_key
$LN1@steer_left:

; 151  : 	}
; 152  : }

  0002b	5f		 pop	 edi
  0002c	5e		 pop	 esi
  0002d	5b		 pop	 ebx
  0002e	8b e5		 mov	 esp, ebp
  00030	5d		 pop	 ebp
  00031	c2 04 00	 ret	 4
?steer_left_fine_event@@YGXPAUEVENT@@@Z ENDP		; steer_left_fine_event
_TEXT	ENDS
; Function compile flags: /Odtp /ZI
; File c:\users\nhv90\projects\eech\aphavoc\source\gunships\avionics\kiowa\ki_avevn.c
;	COMDAT ?steer_left_fast_event@@YGXPAUEVENT@@@Z
_TEXT	SEGMENT
_ev$ = 8						; size = 4
?steer_left_fast_event@@YGXPAUEVENT@@@Z PROC		; steer_left_fast_event, COMDAT

; 125  : {

  00000	55		 push	 ebp
  00001	8b ec		 mov	 ebp, esp
  00003	83 ec 40	 sub	 esp, 64			; 00000040H
  00006	53		 push	 ebx
  00007	56		 push	 esi
  00008	57		 push	 edi

; 126  : 	if (ev->state == KEY_STATE_DOWN)

  00009	8b 45 08	 mov	 eax, DWORD PTR _ev$[ebp]
  0000c	0f b7 48 08	 movzx	 ecx, WORD PTR [eax+8]
  00010	83 f9 02	 cmp	 ecx, 2
  00013	75 19		 jne	 SHORT $LN2@steer_left

; 127  : 	{
; 128  : 		continuous_target_acquisition_system_steer_left_fast_key = TRUE;

  00015	c7 05 00 00 00
	00 01 00 00 00	 mov	 DWORD PTR ?continuous_target_acquisition_system_steer_left_fast_key@@3HA, 1 ; continuous_target_acquisition_system_steer_left_fast_key

; 129  : 
; 130  : 		single_target_acquisition_system_steer_left_fast_key++;

  0001f	a1 00 00 00 00	 mov	 eax, DWORD PTR ?single_target_acquisition_system_steer_left_fast_key@@3HA ; single_target_acquisition_system_steer_left_fast_key
  00024	83 c0 01	 add	 eax, 1
  00027	a3 00 00 00 00	 mov	 DWORD PTR ?single_target_acquisition_system_steer_left_fast_key@@3HA, eax ; single_target_acquisition_system_steer_left_fast_key

; 131  : 	}
; 132  : 	else

  0002c	eb 0a		 jmp	 SHORT $LN1@steer_left
$LN2@steer_left:

; 133  : 	{
; 134  : 		continuous_target_acquisition_system_steer_left_fast_key = FALSE;

  0002e	c7 05 00 00 00
	00 00 00 00 00	 mov	 DWORD PTR ?continuous_target_acquisition_system_steer_left_fast_key@@3HA, 0 ; continuous_target_acquisition_system_steer_left_fast_key
$LN1@steer_left:

; 135  : 	}
; 136  : }

  00038	5f		 pop	 edi
  00039	5e		 pop	 esi
  0003a	5b		 pop	 ebx
  0003b	8b e5		 mov	 esp, ebp
  0003d	5d		 pop	 ebp
  0003e	c2 04 00	 ret	 4
?steer_left_fast_event@@YGXPAUEVENT@@@Z ENDP		; steer_left_fast_event
_TEXT	ENDS
; Function compile flags: /Odtp /ZI
; File c:\users\nhv90\projects\eech\aphavoc\source\gunships\avionics\kiowa\ki_avevn.c
;	COMDAT ?steer_left_event@@YGXPAUEVENT@@@Z
_TEXT	SEGMENT
_ev$ = 8						; size = 4
?steer_left_event@@YGXPAUEVENT@@@Z PROC			; steer_left_event, COMDAT

; 107  : {

  00000	55		 push	 ebp
  00001	8b ec		 mov	 ebp, esp
  00003	83 ec 40	 sub	 esp, 64			; 00000040H
  00006	53		 push	 ebx
  00007	56		 push	 esi
  00008	57		 push	 edi

; 108  : 	if (ev->state == KEY_STATE_DOWN)

  00009	8b 45 08	 mov	 eax, DWORD PTR _ev$[ebp]
  0000c	0f b7 48 08	 movzx	 ecx, WORD PTR [eax+8]
  00010	83 f9 02	 cmp	 ecx, 2
  00013	75 19		 jne	 SHORT $LN2@steer_left

; 109  : 	{
; 110  : 		continuous_target_acquisition_system_steer_left_key = TRUE;

  00015	c7 05 00 00 00
	00 01 00 00 00	 mov	 DWORD PTR ?continuous_target_acquisition_system_steer_left_key@@3HA, 1 ; continuous_target_acquisition_system_steer_left_key

; 111  : 
; 112  : 		single_target_acquisition_system_steer_left_key++;

  0001f	a1 00 00 00 00	 mov	 eax, DWORD PTR ?single_target_acquisition_system_steer_left_key@@3HA ; single_target_acquisition_system_steer_left_key
  00024	83 c0 01	 add	 eax, 1
  00027	a3 00 00 00 00	 mov	 DWORD PTR ?single_target_acquisition_system_steer_left_key@@3HA, eax ; single_target_acquisition_system_steer_left_key

; 113  : 	}
; 114  : 	else

  0002c	eb 0a		 jmp	 SHORT $LN1@steer_left
$LN2@steer_left:

; 115  : 	{
; 116  : 		continuous_target_acquisition_system_steer_left_key = FALSE;

  0002e	c7 05 00 00 00
	00 00 00 00 00	 mov	 DWORD PTR ?continuous_target_acquisition_system_steer_left_key@@3HA, 0 ; continuous_target_acquisition_system_steer_left_key
$LN1@steer_left:

; 117  : 	}
; 118  : }

  00038	5f		 pop	 edi
  00039	5e		 pop	 esi
  0003a	5b		 pop	 ebx
  0003b	8b e5		 mov	 esp, ebp
  0003d	5d		 pop	 ebp
  0003e	c2 04 00	 ret	 4
?steer_left_event@@YGXPAUEVENT@@@Z ENDP			; steer_left_event
_TEXT	ENDS
; Function compile flags: /Odtp /ZI
; File c:\users\nhv90\projects\eech\aphavoc\source\gunships\avionics\kiowa\ki_avevn.c
;	COMDAT ?select_target_acquisition_system_dtv_event@@YGXPAUEVENT@@@Z
_TEXT	SEGMENT
_ev$ = 8						; size = 4
?select_target_acquisition_system_dtv_event@@YGXPAUEVENT@@@Z PROC ; select_target_acquisition_system_dtv_event, COMDAT

; 95   : {

  00000	55		 push	 ebp
  00001	8b ec		 mov	 ebp, esp
  00003	83 ec 40	 sub	 esp, 64			; 00000040H
  00006	53		 push	 ebx
  00007	56		 push	 esi
  00008	57		 push	 edi

; 96   : 	if (!get_global_simple_avionics ())

  00009	83 3d 6c 03 00
	00 00		 cmp	 DWORD PTR ?global_options@@3UGLOBAL_OPTIONS_DATA@@A+876, 0
  00010	75 07		 jne	 SHORT $LN1@select_tar

; 97   : 	{
; 98   : 		select_kiowa_target_acquisition_system (TARGET_ACQUISITION_SYSTEM_DTV);

  00012	6a 04		 push	 4
  00014	e8 00 00 00 00	 call	 ?select_kiowa_target_acquisition_system@@YGXW4TARGET_ACQUISITION_SYSTEMS@@@Z ; select_kiowa_target_acquisition_system
$LN1@select_tar:

; 99   : 	}
; 100  : }

  00019	5f		 pop	 edi
  0001a	5e		 pop	 esi
  0001b	5b		 pop	 ebx
  0001c	8b e5		 mov	 esp, ebp
  0001e	5d		 pop	 ebp
  0001f	c2 04 00	 ret	 4
?select_target_acquisition_system_dtv_event@@YGXPAUEVENT@@@Z ENDP ; select_target_acquisition_system_dtv_event
_TEXT	ENDS
; Function compile flags: /Odtp /ZI
; File c:\users\nhv90\projects\eech\aphavoc\source\gunships\avionics\kiowa\ki_avevn.c
;	COMDAT ?select_target_acquisition_system_flir_event@@YGXPAUEVENT@@@Z
_TEXT	SEGMENT
_ev$ = 8						; size = 4
?select_target_acquisition_system_flir_event@@YGXPAUEVENT@@@Z PROC ; select_target_acquisition_system_flir_event, COMDAT

; 83   : {

  00000	55		 push	 ebp
  00001	8b ec		 mov	 ebp, esp
  00003	83 ec 40	 sub	 esp, 64			; 00000040H
  00006	53		 push	 ebx
  00007	56		 push	 esi
  00008	57		 push	 edi

; 84   : 	if (!get_global_simple_avionics ())

  00009	83 3d 6c 03 00
	00 00		 cmp	 DWORD PTR ?global_options@@3UGLOBAL_OPTIONS_DATA@@A+876, 0
  00010	75 07		 jne	 SHORT $LN1@select_tar

; 85   : 	{
; 86   : 		select_kiowa_target_acquisition_system (TARGET_ACQUISITION_SYSTEM_FLIR);

  00012	6a 03		 push	 3
  00014	e8 00 00 00 00	 call	 ?select_kiowa_target_acquisition_system@@YGXW4TARGET_ACQUISITION_SYSTEMS@@@Z ; select_kiowa_target_acquisition_system
$LN1@select_tar:

; 87   : 	}
; 88   : }

  00019	5f		 pop	 edi
  0001a	5e		 pop	 esi
  0001b	5b		 pop	 ebx
  0001c	8b e5		 mov	 esp, ebp
  0001e	5d		 pop	 ebp
  0001f	c2 04 00	 ret	 4
?select_target_acquisition_system_flir_event@@YGXPAUEVENT@@@Z ENDP ; select_target_acquisition_system_flir_event
_TEXT	ENDS
; Function compile flags: /Odtp /ZI
; File c:\users\nhv90\projects\eech\aphavoc\source\gunships\avionics\kiowa\ki_avevn.c
;	COMDAT ?select_target_acquisition_system_off_event@@YGXPAUEVENT@@@Z
_TEXT	SEGMENT
_ev$ = 8						; size = 4
?select_target_acquisition_system_off_event@@YGXPAUEVENT@@@Z PROC ; select_target_acquisition_system_off_event, COMDAT

; 74   : {

  00000	55		 push	 ebp
  00001	8b ec		 mov	 ebp, esp
  00003	83 ec 40	 sub	 esp, 64			; 00000040H
  00006	53		 push	 ebx
  00007	56		 push	 esi
  00008	57		 push	 edi

; 75   : 	select_kiowa_target_acquisition_system (TARGET_ACQUISITION_SYSTEM_OFF);

  00009	6a 00		 push	 0
  0000b	e8 00 00 00 00	 call	 ?select_kiowa_target_acquisition_system@@YGXW4TARGET_ACQUISITION_SYSTEMS@@@Z ; select_kiowa_target_acquisition_system

; 76   : }

  00010	5f		 pop	 edi
  00011	5e		 pop	 esi
  00012	5b		 pop	 ebx
  00013	8b e5		 mov	 esp, ebp
  00015	5d		 pop	 ebp
  00016	c2 04 00	 ret	 4
?select_target_acquisition_system_off_event@@YGXPAUEVENT@@@Z ENDP ; select_target_acquisition_system_off_event
_TEXT	ENDS
; Function compile flags: /Odtp /ZI
; File c:\users\nhv90\projects\eech\aphavoc\source\gunships\avionics\kiowa\ki_avevn.c
;	COMDAT ?set_kiowa_avionics_events@@YGXXZ
_TEXT	SEGMENT
?set_kiowa_avionics_events@@YGXXZ PROC			; set_kiowa_avionics_events, COMDAT

; 926  : {

  00000	55		 push	 ebp
  00001	8b ec		 mov	 ebp, esp
  00003	83 ec 40	 sub	 esp, 64			; 00000040H
  00006	53		 push	 ebx
  00007	56		 push	 esi
  00008	57		 push	 edi

; 927  : 	if (!get_gunship_entity ())

  00009	83 3d 00 00 00
	00 00		 cmp	 DWORD PTR ?gunship_entity@@3PAUENTITY@@A, 0 ; gunship_entity
  00010	75 05		 jne	 SHORT $LN2@set_kiowa_

; 928  : 	{
; 929  : 		return;

  00012	e9 2b 05 00 00	 jmp	 $LN1@set_kiowa_
$LN2@set_kiowa_:

; 930  : 	}
; 931  : 
; 932  : 	////////////////////////////////////////
; 933  : 	//
; 934  : 	// KEYBOARD EVENTS
; 935  : 	//
; 936  : 	////////////////////////////////////////
; 937  : 
; 938  : 	//
; 939  : 	// select target acquisition system
; 940  : 	//
; 941  : 
; 942  : 	set_event (DIK_DELETE, MODIFIER_LEFT_SHIFT, KEY_STATE_DOWN, select_target_acquisition_system_off_event);

  00017	68 00 00 00 00	 push	 OFFSET ?select_target_acquisition_system_off_event@@YGXPAUEVENT@@@Z ; select_target_acquisition_system_off_event
  0001c	6a 02		 push	 2
  0001e	6a 01		 push	 1
  00020	68 d3 00 00 00	 push	 211			; 000000d3H
  00025	e8 00 00 00 00	 call	 ?set_event@@YGXHHHP6GXPAUEVENT@@@Z@Z ; set_event

; 943  : 
; 944  : 	set_event (DIK_DELETE, MODIFIER_NONE, KEY_STATE_DOWN, select_target_acquisition_system_flir_event);

  0002a	68 00 00 00 00	 push	 OFFSET ?select_target_acquisition_system_flir_event@@YGXPAUEVENT@@@Z ; select_target_acquisition_system_flir_event
  0002f	6a 02		 push	 2
  00031	6a 00		 push	 0
  00033	68 d3 00 00 00	 push	 211			; 000000d3H
  00038	e8 00 00 00 00	 call	 ?set_event@@YGXHHHP6GXPAUEVENT@@@Z@Z ; set_event

; 945  : 
; 946  : 	set_event (DIK_END, MODIFIER_NONE, KEY_STATE_DOWN, select_target_acquisition_system_dtv_event);

  0003d	68 00 00 00 00	 push	 OFFSET ?select_target_acquisition_system_dtv_event@@YGXPAUEVENT@@@Z ; select_target_acquisition_system_dtv_event
  00042	6a 02		 push	 2
  00044	6a 00		 push	 0
  00046	68 cf 00 00 00	 push	 207			; 000000cfH
  0004b	e8 00 00 00 00	 call	 ?set_event@@YGXHHHP6GXPAUEVENT@@@Z@Z ; set_event

; 947  : 	set_event (DIK_END, MODIFIER_LEFT_SHIFT, KEY_STATE_DOWN, toggle_eo_system_event);

  00050	68 00 00 00 00	 push	 OFFSET ?toggle_eo_system_event@@YGXPAUEVENT@@@Z ; toggle_eo_system_event
  00055	6a 02		 push	 2
  00057	6a 01		 push	 1
  00059	68 cf 00 00 00	 push	 207			; 000000cfH
  0005e	e8 00 00 00 00	 call	 ?set_event@@YGXHHHP6GXPAUEVENT@@@Z@Z ; set_event

; 948  : 
; 949  : 	//
; 950  : 	// repeated for programmable joysticks ...
; 951  : 	//
; 952  : 
; 953  : 	set_event (DIK_4, MODIFIER_LEFT_SHIFT, KEY_STATE_DOWN, select_target_acquisition_system_flir_event);

  00063	68 00 00 00 00	 push	 OFFSET ?select_target_acquisition_system_flir_event@@YGXPAUEVENT@@@Z ; select_target_acquisition_system_flir_event
  00068	6a 02		 push	 2
  0006a	6a 01		 push	 1
  0006c	6a 05		 push	 5
  0006e	e8 00 00 00 00	 call	 ?set_event@@YGXHHHP6GXPAUEVENT@@@Z@Z ; set_event

; 954  : 
; 955  : 	set_event (DIK_5, MODIFIER_LEFT_SHIFT, KEY_STATE_DOWN, select_target_acquisition_system_dtv_event);

  00073	68 00 00 00 00	 push	 OFFSET ?select_target_acquisition_system_dtv_event@@YGXPAUEVENT@@@Z ; select_target_acquisition_system_dtv_event
  00078	6a 02		 push	 2
  0007a	6a 01		 push	 1
  0007c	6a 06		 push	 6
  0007e	e8 00 00 00 00	 call	 ?set_event@@YGXHHHP6GXPAUEVENT@@@Z@Z ; set_event

; 956  : 
; 957  : 	//
; 958  : 	// target acquisition system control
; 959  : 	//
; 960  : 
; 961  : 	set_event (DIK_NUMPAD4, MODIFIER_NONE, KEY_STATE_EITHER, steer_left_event);

  00083	68 00 00 00 00	 push	 OFFSET ?steer_left_event@@YGXPAUEVENT@@@Z ; steer_left_event
  00088	6a 03		 push	 3
  0008a	6a 00		 push	 0
  0008c	6a 4b		 push	 75			; 0000004bH
  0008e	e8 00 00 00 00	 call	 ?set_event@@YGXHHHP6GXPAUEVENT@@@Z@Z ; set_event

; 962  : 	set_event (DIK_NUMPAD4, MODIFIER_LEFT_SHIFT, KEY_STATE_EITHER, steer_left_fast_event);

  00093	68 00 00 00 00	 push	 OFFSET ?steer_left_fast_event@@YGXPAUEVENT@@@Z ; steer_left_fast_event
  00098	6a 03		 push	 3
  0009a	6a 01		 push	 1
  0009c	6a 4b		 push	 75			; 0000004bH
  0009e	e8 00 00 00 00	 call	 ?set_event@@YGXHHHP6GXPAUEVENT@@@Z@Z ; set_event

; 963  : 	set_event (DIK_NUMPAD4, MODIFIER_LEFT_ALT, KEY_STATE_EITHER, steer_left_fine_event);

  000a3	68 00 00 00 00	 push	 OFFSET ?steer_left_fine_event@@YGXPAUEVENT@@@Z ; steer_left_fine_event
  000a8	6a 03		 push	 3
  000aa	6a 03		 push	 3
  000ac	6a 4b		 push	 75			; 0000004bH
  000ae	e8 00 00 00 00	 call	 ?set_event@@YGXHHHP6GXPAUEVENT@@@Z@Z ; set_event

; 964  : 
; 965  : 	set_event (DIK_NUMPAD6, MODIFIER_NONE, KEY_STATE_EITHER, steer_right_event);

  000b3	68 00 00 00 00	 push	 OFFSET ?steer_right_event@@YGXPAUEVENT@@@Z ; steer_right_event
  000b8	6a 03		 push	 3
  000ba	6a 00		 push	 0
  000bc	6a 4d		 push	 77			; 0000004dH
  000be	e8 00 00 00 00	 call	 ?set_event@@YGXHHHP6GXPAUEVENT@@@Z@Z ; set_event

; 966  : 	set_event (DIK_NUMPAD6, MODIFIER_LEFT_SHIFT, KEY_STATE_EITHER, steer_right_fast_event);

  000c3	68 00 00 00 00	 push	 OFFSET ?steer_right_fast_event@@YGXPAUEVENT@@@Z ; steer_right_fast_event
  000c8	6a 03		 push	 3
  000ca	6a 01		 push	 1
  000cc	6a 4d		 push	 77			; 0000004dH
  000ce	e8 00 00 00 00	 call	 ?set_event@@YGXHHHP6GXPAUEVENT@@@Z@Z ; set_event

; 967  : 	set_event (DIK_NUMPAD6, MODIFIER_LEFT_ALT, KEY_STATE_EITHER, steer_right_fine_event);

  000d3	68 00 00 00 00	 push	 OFFSET ?steer_right_fine_event@@YGXPAUEVENT@@@Z ; steer_right_fine_event
  000d8	6a 03		 push	 3
  000da	6a 03		 push	 3
  000dc	6a 4d		 push	 77			; 0000004dH
  000de	e8 00 00 00 00	 call	 ?set_event@@YGXHHHP6GXPAUEVENT@@@Z@Z ; set_event

; 968  : 
; 969  : 	set_event (DIK_NUMPAD8, MODIFIER_NONE, KEY_STATE_EITHER, steer_up_event);

  000e3	68 00 00 00 00	 push	 OFFSET ?steer_up_event@@YGXPAUEVENT@@@Z ; steer_up_event
  000e8	6a 03		 push	 3
  000ea	6a 00		 push	 0
  000ec	6a 48		 push	 72			; 00000048H
  000ee	e8 00 00 00 00	 call	 ?set_event@@YGXHHHP6GXPAUEVENT@@@Z@Z ; set_event

; 970  : 	set_event (DIK_NUMPAD8, MODIFIER_LEFT_SHIFT, KEY_STATE_EITHER, steer_up_fast_event);

  000f3	68 00 00 00 00	 push	 OFFSET ?steer_up_fast_event@@YGXPAUEVENT@@@Z ; steer_up_fast_event
  000f8	6a 03		 push	 3
  000fa	6a 01		 push	 1
  000fc	6a 48		 push	 72			; 00000048H
  000fe	e8 00 00 00 00	 call	 ?set_event@@YGXHHHP6GXPAUEVENT@@@Z@Z ; set_event

; 971  : 	set_event (DIK_NUMPAD8, MODIFIER_LEFT_ALT, KEY_STATE_EITHER, steer_up_fine_event);

  00103	68 00 00 00 00	 push	 OFFSET ?steer_up_fine_event@@YGXPAUEVENT@@@Z ; steer_up_fine_event
  00108	6a 03		 push	 3
  0010a	6a 03		 push	 3
  0010c	6a 48		 push	 72			; 00000048H
  0010e	e8 00 00 00 00	 call	 ?set_event@@YGXHHHP6GXPAUEVENT@@@Z@Z ; set_event

; 972  : 
; 973  : 	set_event (DIK_NUMPAD2, MODIFIER_NONE, KEY_STATE_EITHER, steer_down_event);

  00113	68 00 00 00 00	 push	 OFFSET ?steer_down_event@@YGXPAUEVENT@@@Z ; steer_down_event
  00118	6a 03		 push	 3
  0011a	6a 00		 push	 0
  0011c	6a 50		 push	 80			; 00000050H
  0011e	e8 00 00 00 00	 call	 ?set_event@@YGXHHHP6GXPAUEVENT@@@Z@Z ; set_event

; 974  : 	set_event (DIK_NUMPAD2, MODIFIER_LEFT_SHIFT, KEY_STATE_EITHER, steer_down_fast_event);

  00123	68 00 00 00 00	 push	 OFFSET ?steer_down_fast_event@@YGXPAUEVENT@@@Z ; steer_down_fast_event
  00128	6a 03		 push	 3
  0012a	6a 01		 push	 1
  0012c	6a 50		 push	 80			; 00000050H
  0012e	e8 00 00 00 00	 call	 ?set_event@@YGXHHHP6GXPAUEVENT@@@Z@Z ; set_event

; 975  : 	set_event (DIK_NUMPAD2, MODIFIER_LEFT_ALT, KEY_STATE_EITHER, steer_down_fine_event);

  00133	68 00 00 00 00	 push	 OFFSET ?steer_down_fine_event@@YGXPAUEVENT@@@Z ; steer_down_fine_event
  00138	6a 03		 push	 3
  0013a	6a 03		 push	 3
  0013c	6a 50		 push	 80			; 00000050H
  0013e	e8 00 00 00 00	 call	 ?set_event@@YGXHHHP6GXPAUEVENT@@@Z@Z ; set_event

; 976  : 
; 977  : 	set_event (DIK_ADD, MODIFIER_NONE, KEY_STATE_DOWN, inc_range_event);

  00143	68 00 00 00 00	 push	 OFFSET ?inc_range_event@@YGXPAUEVENT@@@Z ; inc_range_event
  00148	6a 02		 push	 2
  0014a	6a 00		 push	 0
  0014c	6a 4e		 push	 78			; 0000004eH
  0014e	e8 00 00 00 00	 call	 ?set_event@@YGXHHHP6GXPAUEVENT@@@Z@Z ; set_event

; 978  : 	set_event (DIK_ADD, MODIFIER_LEFT_SHIFT, KEY_STATE_DOWN, inc_range_fast_event);

  00153	68 00 00 00 00	 push	 OFFSET ?inc_range_fast_event@@YGXPAUEVENT@@@Z ; inc_range_fast_event
  00158	6a 02		 push	 2
  0015a	6a 01		 push	 1
  0015c	6a 4e		 push	 78			; 0000004eH
  0015e	e8 00 00 00 00	 call	 ?set_event@@YGXHHHP6GXPAUEVENT@@@Z@Z ; set_event

; 979  : 	set_event (DIK_ADD, MODIFIER_LEFT_CONTROL, KEY_STATE_DOWN, inc_eo_zoom_event);

  00163	68 00 00 00 00	 push	 OFFSET ?inc_eo_zoom_event@@YGXPAUEVENT@@@Z ; inc_eo_zoom_event
  00168	6a 02		 push	 2
  0016a	6a 02		 push	 2
  0016c	6a 4e		 push	 78			; 0000004eH
  0016e	e8 00 00 00 00	 call	 ?set_event@@YGXHHHP6GXPAUEVENT@@@Z@Z ; set_event

; 980  : 
; 981  : 	set_event (DIK_SUBTRACT, MODIFIER_NONE, KEY_STATE_DOWN, dec_range_event);

  00173	68 00 00 00 00	 push	 OFFSET ?dec_range_event@@YGXPAUEVENT@@@Z ; dec_range_event
  00178	6a 02		 push	 2
  0017a	6a 00		 push	 0
  0017c	6a 4a		 push	 74			; 0000004aH
  0017e	e8 00 00 00 00	 call	 ?set_event@@YGXHHHP6GXPAUEVENT@@@Z@Z ; set_event

; 982  : 	set_event (DIK_SUBTRACT, MODIFIER_LEFT_SHIFT, KEY_STATE_DOWN, dec_range_fast_event);

  00183	68 00 00 00 00	 push	 OFFSET ?dec_range_fast_event@@YGXPAUEVENT@@@Z ; dec_range_fast_event
  00188	6a 02		 push	 2
  0018a	6a 01		 push	 1
  0018c	6a 4a		 push	 74			; 0000004aH
  0018e	e8 00 00 00 00	 call	 ?set_event@@YGXHHHP6GXPAUEVENT@@@Z@Z ; set_event

; 983  : 	set_event (DIK_SUBTRACT, MODIFIER_LEFT_CONTROL, KEY_STATE_DOWN, dec_eo_zoom_event);

  00193	68 00 00 00 00	 push	 OFFSET ?dec_eo_zoom_event@@YGXPAUEVENT@@@Z ; dec_eo_zoom_event
  00198	6a 02		 push	 2
  0019a	6a 02		 push	 2
  0019c	6a 4a		 push	 74			; 0000004aH
  0019e	e8 00 00 00 00	 call	 ?set_event@@YGXHHHP6GXPAUEVENT@@@Z@Z ; set_event

; 984  : 
; 985  : 	set_event (DIK_NUMPAD5, MODIFIER_NONE, KEY_STATE_DOWN, steer_centre_event);

  001a3	68 00 00 00 00	 push	 OFFSET ?steer_centre_event@@YGXPAUEVENT@@@Z ; steer_centre_event
  001a8	6a 02		 push	 2
  001aa	6a 00		 push	 0
  001ac	6a 4c		 push	 76			; 0000004cH
  001ae	e8 00 00 00 00	 call	 ?set_event@@YGXHHHP6GXPAUEVENT@@@Z@Z ; set_event

; 986  : 	set_event (DIK_NUMPAD5, MODIFIER_LEFT_SHIFT, KEY_STATE_DOWN, steer_centre_event);

  001b3	68 00 00 00 00	 push	 OFFSET ?steer_centre_event@@YGXPAUEVENT@@@Z ; steer_centre_event
  001b8	6a 02		 push	 2
  001ba	6a 01		 push	 1
  001bc	6a 4c		 push	 76			; 0000004cH
  001be	e8 00 00 00 00	 call	 ?set_event@@YGXHHHP6GXPAUEVENT@@@Z@Z ; set_event

; 987  : 
; 988  : 	set_event (DIK_NUMPAD7, MODIFIER_NONE, KEY_STATE_DOWN, toggle_show_allied_targets_event);

  001c3	68 00 00 00 00	 push	 OFFSET ?toggle_show_allied_targets_event@@YGXPAUEVENT@@@Z ; toggle_show_allied_targets_event
  001c8	6a 02		 push	 2
  001ca	6a 00		 push	 0
  001cc	6a 47		 push	 71			; 00000047H
  001ce	e8 00 00 00 00	 call	 ?set_event@@YGXHHHP6GXPAUEVENT@@@Z@Z ; set_event

; 989  : 
; 990  : 	set_event (DIK_NUMPAD9, MODIFIER_NONE, KEY_STATE_DOWN, inc_target_priority_event);

  001d3	68 00 00 00 00	 push	 OFFSET ?inc_target_priority_event@@YGXPAUEVENT@@@Z ; inc_target_priority_event
  001d8	6a 02		 push	 2
  001da	6a 00		 push	 0
  001dc	6a 49		 push	 73			; 00000049H
  001de	e8 00 00 00 00	 call	 ?set_event@@YGXHHHP6GXPAUEVENT@@@Z@Z ; set_event

; 991  : 	set_event (DIK_NUMPAD9, MODIFIER_LEFT_SHIFT, KEY_STATE_DOWN, inc_target_priority_fast_event);

  001e3	68 00 00 00 00	 push	 OFFSET ?inc_target_priority_fast_event@@YGXPAUEVENT@@@Z ; inc_target_priority_fast_event
  001e8	6a 02		 push	 2
  001ea	6a 01		 push	 1
  001ec	6a 49		 push	 73			; 00000049H
  001ee	e8 00 00 00 00	 call	 ?set_event@@YGXHHHP6GXPAUEVENT@@@Z@Z ; set_event

; 992  : 
; 993  : 	set_event (DIK_NUMPAD3, MODIFIER_NONE, KEY_STATE_DOWN, dec_target_priority_event);

  001f3	68 00 00 00 00	 push	 OFFSET ?dec_target_priority_event@@YGXPAUEVENT@@@Z ; dec_target_priority_event
  001f8	6a 02		 push	 2
  001fa	6a 00		 push	 0
  001fc	6a 51		 push	 81			; 00000051H
  001fe	e8 00 00 00 00	 call	 ?set_event@@YGXHHHP6GXPAUEVENT@@@Z@Z ; set_event

; 994  : 	set_event (DIK_NUMPAD3, MODIFIER_LEFT_SHIFT, KEY_STATE_DOWN, dec_target_priority_fast_event);

  00203	68 00 00 00 00	 push	 OFFSET ?dec_target_priority_fast_event@@YGXPAUEVENT@@@Z ; dec_target_priority_fast_event
  00208	6a 02		 push	 2
  0020a	6a 01		 push	 1
  0020c	6a 51		 push	 81			; 00000051H
  0020e	e8 00 00 00 00	 call	 ?set_event@@YGXHHHP6GXPAUEVENT@@@Z@Z ; set_event

; 995  : 
; 996  : 	set_event (DIK_NUMPAD0, MODIFIER_NONE, KEY_STATE_DOWN, select_next_target_event);

  00213	68 00 00 00 00	 push	 OFFSET ?select_next_target_event@@YGXPAUEVENT@@@Z ; select_next_target_event
  00218	6a 02		 push	 2
  0021a	6a 00		 push	 0
  0021c	6a 52		 push	 82			; 00000052H
  0021e	e8 00 00 00 00	 call	 ?set_event@@YGXHHHP6GXPAUEVENT@@@Z@Z ; set_event

; 997  : 	set_event (DIK_NUMPAD0, MODIFIER_LEFT_SHIFT, KEY_STATE_DOWN, select_previous_target_event);

  00223	68 00 00 00 00	 push	 OFFSET ?select_previous_target_event@@YGXPAUEVENT@@@Z ; select_previous_target_event
  00228	6a 02		 push	 2
  0022a	6a 01		 push	 1
  0022c	6a 52		 push	 82			; 00000052H
  0022e	e8 00 00 00 00	 call	 ?set_event@@YGXHHHP6GXPAUEVENT@@@Z@Z ; set_event

; 998  : 
; 999  : 	set_event (DIK_NUMPAD1, MODIFIER_NONE, KEY_STATE_DOWN, toggle_auto_target_event);

  00233	68 00 00 00 00	 push	 OFFSET ?toggle_auto_target_event@@YGXPAUEVENT@@@Z ; toggle_auto_target_event
  00238	6a 02		 push	 2
  0023a	6a 00		 push	 0
  0023c	6a 4f		 push	 79			; 0000004fH
  0023e	e8 00 00 00 00	 call	 ?set_event@@YGXHHHP6GXPAUEVENT@@@Z@Z ; set_event

; 1000 : 
; 1001 : 	set_event (DIK_NUMPADENTER, MODIFIER_NONE, KEY_STATE_DOWN, toggle_lock_target_event);

  00243	68 00 00 00 00	 push	 OFFSET ?toggle_lock_target_event@@YGXPAUEVENT@@@Z ; toggle_lock_target_event
  00248	6a 02		 push	 2
  0024a	6a 00		 push	 0
  0024c	68 9c 00 00 00	 push	 156			; 0000009cH
  00251	e8 00 00 00 00	 call	 ?set_event@@YGXHHHP6GXPAUEVENT@@@Z@Z ; set_event

; 1002 : //	set_event (DIK_NUMPADENTER, MODIFIER_LEFT_ALT, KEY_STATE_DOWN, toggle_lock_target_event); // Jabberwock 031107 Designated targets
; 1003 : 	set_event (DIK_NUMPADENTER, MODIFIER_LEFT_SHIFT, KEY_STATE_DOWN, toggle_lock_target_event);

  00256	68 00 00 00 00	 push	 OFFSET ?toggle_lock_target_event@@YGXPAUEVENT@@@Z ; toggle_lock_target_event
  0025b	6a 02		 push	 2
  0025d	6a 01		 push	 1
  0025f	68 9c 00 00 00	 push	 156			; 0000009cH
  00264	e8 00 00 00 00	 call	 ?set_event@@YGXHHHP6GXPAUEVENT@@@Z@Z ; set_event

; 1004 : 
; 1005 : 	set_event (DIK_MULTIPLY, MODIFIER_NONE, KEY_STATE_DOWN, activate_laser_event);

  00269	68 00 00 00 00	 push	 OFFSET ?activate_laser_event@@YGXPAUEVENT@@@Z ; activate_laser_event
  0026e	6a 02		 push	 2
  00270	6a 00		 push	 0
  00272	6a 37		 push	 55			; 00000037H
  00274	e8 00 00 00 00	 call	 ?set_event@@YGXHHHP6GXPAUEVENT@@@Z@Z ; set_event

; 1006 : 
; 1007 : 	set_event (DIK_S, MODIFIER_LEFT_CONTROL, KEY_STATE_DOWN, toggle_ground_stabilisation_event);

  00279	68 00 00 00 00	 push	 OFFSET ?toggle_ground_stabilisation_event@@YGXPAUEVENT@@@Z ; toggle_ground_stabilisation_event
  0027e	6a 02		 push	 2
  00280	6a 02		 push	 2
  00282	6a 1f		 push	 31			; 0000001fH
  00284	e8 00 00 00 00	 call	 ?set_event@@YGXHHHP6GXPAUEVENT@@@Z@Z ; set_event

; 1008 : 
; 1009 : 	//
; 1010 : 	// miscellaneous
; 1011 : 	//
; 1012 : 
; 1013 : 	set_event (DIK_A, MODIFIER_LEFT_CONTROL, KEY_STATE_DOWN, toggle_ase_auto_page_event);

  00289	68 00 00 00 00	 push	 OFFSET ?toggle_ase_auto_page_event@@YGXPAUEVENT@@@Z ; toggle_ase_auto_page_event
  0028e	6a 02		 push	 2
  00290	6a 02		 push	 2
  00292	6a 1e		 push	 30			; 0000001eH
  00294	e8 00 00 00 00	 call	 ?set_event@@YGXHHHP6GXPAUEVENT@@@Z@Z ; set_event

; 1014 : 
; 1015 : 	set_event (DIK_D, MODIFIER_NONE, KEY_STATE_DOWN, select_next_tsd_declutter_level_event);

  00299	68 00 00 00 00	 push	 OFFSET ?select_next_tsd_declutter_level_event@@YGXPAUEVENT@@@Z ; select_next_tsd_declutter_level_event
  0029e	6a 02		 push	 2
  002a0	6a 00		 push	 0
  002a2	6a 20		 push	 32			; 00000020H
  002a4	e8 00 00 00 00	 call	 ?set_event@@YGXHHHP6GXPAUEVENT@@@Z@Z ; set_event

; 1016 : 	set_event (DIK_D, MODIFIER_LEFT_SHIFT, KEY_STATE_DOWN, select_previous_tsd_declutter_level_event);

  002a9	68 00 00 00 00	 push	 OFFSET ?select_previous_tsd_declutter_level_event@@YGXPAUEVENT@@@Z ; select_previous_tsd_declutter_level_event
  002ae	6a 02		 push	 2
  002b0	6a 01		 push	 1
  002b2	6a 20		 push	 32			; 00000020H
  002b4	e8 00 00 00 00	 call	 ?set_event@@YGXHHHP6GXPAUEVENT@@@Z@Z ; set_event

; 1017 : 
; 1018 : 	set_event (DIK_E, MODIFIER_NONE, KEY_STATE_DOWN, select_next_tsd_ase_range_event);

  002b9	68 00 00 00 00	 push	 OFFSET ?select_next_tsd_ase_range_event@@YGXPAUEVENT@@@Z ; select_next_tsd_ase_range_event
  002be	6a 02		 push	 2
  002c0	6a 00		 push	 0
  002c2	6a 12		 push	 18			; 00000012H
  002c4	e8 00 00 00 00	 call	 ?set_event@@YGXHHHP6GXPAUEVENT@@@Z@Z ; set_event

; 1019 : 	set_event (DIK_E, MODIFIER_LEFT_SHIFT, KEY_STATE_DOWN, select_previous_tsd_ase_range_event);

  002c9	68 00 00 00 00	 push	 OFFSET ?select_previous_tsd_ase_range_event@@YGXPAUEVENT@@@Z ; select_previous_tsd_ase_range_event
  002ce	6a 02		 push	 2
  002d0	6a 01		 push	 1
  002d2	6a 12		 push	 18			; 00000012H
  002d4	e8 00 00 00 00	 call	 ?set_event@@YGXHHHP6GXPAUEVENT@@@Z@Z ; set_event

; 1020 : 
; 1021 : 	set_event (DIK_I, MODIFIER_NONE, KEY_STATE_DOWN, toggle_infra_red_jammer_event);

  002d9	68 00 00 00 00	 push	 OFFSET ?toggle_infra_red_jammer_event@@YGXPAUEVENT@@@Z ; toggle_infra_red_jammer_event
  002de	6a 02		 push	 2
  002e0	6a 00		 push	 0
  002e2	6a 17		 push	 23			; 00000017H
  002e4	e8 00 00 00 00	 call	 ?set_event@@YGXHHHP6GXPAUEVENT@@@Z@Z ; set_event

; 1022 : 
; 1023 : 	set_event (DIK_L, MODIFIER_NONE, KEY_STATE_DOWN, toggle_lobl_loal_event);

  002e9	68 00 00 00 00	 push	 OFFSET ?toggle_lobl_loal_event@@YGXPAUEVENT@@@Z ; toggle_lobl_loal_event
  002ee	6a 02		 push	 2
  002f0	6a 00		 push	 0
  002f2	6a 26		 push	 38			; 00000026H
  002f4	e8 00 00 00 00	 call	 ?set_event@@YGXHHHP6GXPAUEVENT@@@Z@Z ; set_event

; 1024 : 
; 1025 : 	set_event (DIK_M, MODIFIER_NONE, KEY_STATE_DOWN, acknowledge_master_caution_event);

  002f9	68 00 00 00 00	 push	 OFFSET ?acknowledge_master_caution_event@@YGXPAUEVENT@@@Z ; acknowledge_master_caution_event
  002fe	6a 02		 push	 2
  00300	6a 00		 push	 0
  00302	6a 32		 push	 50			; 00000032H
  00304	e8 00 00 00 00	 call	 ?set_event@@YGXHHHP6GXPAUEVENT@@@Z@Z ; set_event

; 1026 : 
; 1027 : 	set_event (DIK_N, MODIFIER_NONE, KEY_STATE_DOWN, toggle_night_vision_system_event);

  00309	68 00 00 00 00	 push	 OFFSET ?toggle_night_vision_system_event@@YGXPAUEVENT@@@Z ; toggle_night_vision_system_event
  0030e	6a 02		 push	 2
  00310	6a 00		 push	 0
  00312	6a 31		 push	 49			; 00000031H
  00314	e8 00 00 00 00	 call	 ?set_event@@YGXHHHP6GXPAUEVENT@@@Z@Z ; set_event

; 1028 : 
; 1029 : 	set_event (DIK_O, MODIFIER_NONE, KEY_STATE_DOWN, set_hud_bob_up_overlay_event);

  00319	68 00 00 00 00	 push	 OFFSET ?set_hud_bob_up_overlay_event@@YGXPAUEVENT@@@Z ; set_hud_bob_up_overlay_event
  0031e	6a 02		 push	 2
  00320	6a 00		 push	 0
  00322	6a 18		 push	 24			; 00000018H
  00324	e8 00 00 00 00	 call	 ?set_event@@YGXHHHP6GXPAUEVENT@@@Z@Z ; set_event

; 1030 : 	set_event (DIK_O, MODIFIER_LEFT_SHIFT, KEY_STATE_DOWN, switch_hud_mode_event);

  00329	68 00 00 00 00	 push	 OFFSET ?switch_hud_mode_event@@YGXPAUEVENT@@@Z ; switch_hud_mode_event
  0032e	6a 02		 push	 2
  00330	6a 01		 push	 1
  00332	6a 18		 push	 24			; 00000018H
  00334	e8 00 00 00 00	 call	 ?set_event@@YGXHHHP6GXPAUEVENT@@@Z@Z ; set_event

; 1031 : 	set_event (DIK_O, MODIFIER_LEFT_CONTROL, KEY_STATE_DOWN, clear_hud_bob_up_overlay_event);

  00339	68 00 00 00 00	 push	 OFFSET ?clear_hud_bob_up_overlay_event@@YGXPAUEVENT@@@Z ; clear_hud_bob_up_overlay_event
  0033e	6a 02		 push	 2
  00340	6a 02		 push	 2
  00342	6a 18		 push	 24			; 00000018H
  00344	e8 00 00 00 00	 call	 ?set_event@@YGXHHHP6GXPAUEVENT@@@Z@Z ; set_event

; 1032 : 
; 1033 : 	set_event (DIK_V, MODIFIER_NONE, KEY_STATE_DOWN, toggle_navigation_lights_event);

  00349	68 00 00 00 00	 push	 OFFSET ?toggle_navigation_lights_event@@YGXPAUEVENT@@@Z ; toggle_navigation_lights_event
  0034e	6a 02		 push	 2
  00350	6a 00		 push	 0
  00352	6a 2f		 push	 47			; 0000002fH
  00354	e8 00 00 00 00	 call	 ?set_event@@YGXHHHP6GXPAUEVENT@@@Z@Z ; set_event

; 1034 : 
; 1035 : 	set_event (DIK_1, MODIFIER_NONE, KEY_STATE_DOWN, virtual_cockpit_track_target_event);

  00359	68 00 00 00 00	 push	 OFFSET ?virtual_cockpit_track_target_event@@YGXPAUEVENT@@@Z ; virtual_cockpit_track_target_event
  0035e	6a 02		 push	 2
  00360	6a 00		 push	 0
  00362	6a 02		 push	 2
  00364	e8 00 00 00 00	 call	 ?set_event@@YGXHHHP6GXPAUEVENT@@@Z@Z ; set_event

; 1036 : 
; 1037 : 	set_event (DIK_NUMPADENTER, MODIFIER_LEFT_CONTROL, KEY_STATE_DOWN, virtual_cockpit_track_target_event);

  00369	68 00 00 00 00	 push	 OFFSET ?virtual_cockpit_track_target_event@@YGXPAUEVENT@@@Z ; virtual_cockpit_track_target_event
  0036e	6a 02		 push	 2
  00370	6a 02		 push	 2
  00372	68 9c 00 00 00	 push	 156			; 0000009cH
  00377	e8 00 00 00 00	 call	 ?set_event@@YGXHHHP6GXPAUEVENT@@@Z@Z ; set_event

; 1038 : 
; 1039 : 	set_event (DIK_BACKSPACE, MODIFIER_LEFT_ALT, KEY_STATE_DOWN, select_cannon_event);

  0037c	68 00 00 00 00	 push	 OFFSET ?select_cannon_event@@YGXPAUEVENT@@@Z ; select_cannon_event
  00381	6a 02		 push	 2
  00383	6a 03		 push	 3
  00385	6a 0e		 push	 14			; 0000000eH
  00387	e8 00 00 00 00	 call	 ?set_event@@YGXHHHP6GXPAUEVENT@@@Z@Z ; set_event

; 1040 : 
; 1041 : 	set_event (DIK_LBRACKET, MODIFIER_NONE, KEY_STATE_DOWN, select_next_lhs_main_mfd_event);

  0038c	68 00 00 00 00	 push	 OFFSET ?select_next_lhs_main_mfd_event@@YGXPAUEVENT@@@Z ; select_next_lhs_main_mfd_event
  00391	6a 02		 push	 2
  00393	6a 00		 push	 0
  00395	6a 1a		 push	 26			; 0000001aH
  00397	e8 00 00 00 00	 call	 ?set_event@@YGXHHHP6GXPAUEVENT@@@Z@Z ; set_event

; 1042 : 	set_event (DIK_LBRACKET, MODIFIER_LEFT_SHIFT, KEY_STATE_DOWN, select_previous_lhs_main_mfd_event);

  0039c	68 00 00 00 00	 push	 OFFSET ?select_previous_lhs_main_mfd_event@@YGXPAUEVENT@@@Z ; select_previous_lhs_main_mfd_event
  003a1	6a 02		 push	 2
  003a3	6a 01		 push	 1
  003a5	6a 1a		 push	 26			; 0000001aH
  003a7	e8 00 00 00 00	 call	 ?set_event@@YGXHHHP6GXPAUEVENT@@@Z@Z ; set_event

; 1043 : 	set_event (DIK_LBRACKET, MODIFIER_LEFT_CONTROL, KEY_STATE_DOWN, toggle_lhs_main_mfd_on_off_event);

  003ac	68 00 00 00 00	 push	 OFFSET ?toggle_lhs_main_mfd_on_off_event@@YGXPAUEVENT@@@Z ; toggle_lhs_main_mfd_on_off_event
  003b1	6a 02		 push	 2
  003b3	6a 02		 push	 2
  003b5	6a 1a		 push	 26			; 0000001aH
  003b7	e8 00 00 00 00	 call	 ?set_event@@YGXHHHP6GXPAUEVENT@@@Z@Z ; set_event

; 1044 : 	set_event (DIK_LBRACKET, MODIFIER_LEFT_ALT, KEY_STATE_DOWN, select_next_center_mfd_event);

  003bc	68 00 00 00 00	 push	 OFFSET ?select_next_center_mfd_event@@YGXPAUEVENT@@@Z ; select_next_center_mfd_event
  003c1	6a 02		 push	 2
  003c3	6a 03		 push	 3
  003c5	6a 1a		 push	 26			; 0000001aH
  003c7	e8 00 00 00 00	 call	 ?set_event@@YGXHHHP6GXPAUEVENT@@@Z@Z ; set_event

; 1045 : 
; 1046 : 	set_event (DIK_RBRACKET, MODIFIER_NONE, KEY_STATE_DOWN, select_next_rhs_main_mfd_event);

  003cc	68 00 00 00 00	 push	 OFFSET ?select_next_rhs_main_mfd_event@@YGXPAUEVENT@@@Z ; select_next_rhs_main_mfd_event
  003d1	6a 02		 push	 2
  003d3	6a 00		 push	 0
  003d5	6a 1b		 push	 27			; 0000001bH
  003d7	e8 00 00 00 00	 call	 ?set_event@@YGXHHHP6GXPAUEVENT@@@Z@Z ; set_event

; 1047 : 	set_event (DIK_RBRACKET, MODIFIER_LEFT_SHIFT, KEY_STATE_DOWN, select_previous_rhs_main_mfd_event);

  003dc	68 00 00 00 00	 push	 OFFSET ?select_previous_rhs_main_mfd_event@@YGXPAUEVENT@@@Z ; select_previous_rhs_main_mfd_event
  003e1	6a 02		 push	 2
  003e3	6a 01		 push	 1
  003e5	6a 1b		 push	 27			; 0000001bH
  003e7	e8 00 00 00 00	 call	 ?set_event@@YGXHHHP6GXPAUEVENT@@@Z@Z ; set_event

; 1048 : 	set_event (DIK_RBRACKET, MODIFIER_LEFT_CONTROL, KEY_STATE_DOWN, toggle_rhs_main_mfd_on_off_event);

  003ec	68 00 00 00 00	 push	 OFFSET ?toggle_rhs_main_mfd_on_off_event@@YGXPAUEVENT@@@Z ; toggle_rhs_main_mfd_on_off_event
  003f1	6a 02		 push	 2
  003f3	6a 02		 push	 2
  003f5	6a 1b		 push	 27			; 0000001bH
  003f7	e8 00 00 00 00	 call	 ?set_event@@YGXHHHP6GXPAUEVENT@@@Z@Z ; set_event

; 1049 : 	set_event (DIK_RBRACKET, MODIFIER_LEFT_ALT, KEY_STATE_DOWN, select_previous_center_mfd_event);

  003fc	68 00 00 00 00	 push	 OFFSET ?select_previous_center_mfd_event@@YGXPAUEVENT@@@Z ; select_previous_center_mfd_event
  00401	6a 02		 push	 2
  00403	6a 03		 push	 3
  00405	6a 1b		 push	 27			; 0000001bH
  00407	e8 00 00 00 00	 call	 ?set_event@@YGXHHHP6GXPAUEVENT@@@Z@Z ; set_event

; 1050 : 
; 1051 : 	set_event (DIK_3, MODIFIER_LEFT_CONTROL, KEY_STATE_DOWN, select_lhs_tads_main_mfd_event);

  0040c	68 00 00 00 00	 push	 OFFSET ?select_lhs_tads_main_mfd_event@@YGXPAUEVENT@@@Z ; select_lhs_tads_main_mfd_event
  00411	6a 02		 push	 2
  00413	6a 02		 push	 2
  00415	6a 04		 push	 4
  00417	e8 00 00 00 00	 call	 ?set_event@@YGXHHHP6GXPAUEVENT@@@Z@Z ; set_event

; 1052 : 	set_event (DIK_3, MODIFIER_LEFT_ALT, KEY_STATE_DOWN, select_rhs_tads_main_mfd_event);

  0041c	68 00 00 00 00	 push	 OFFSET ?select_rhs_tads_main_mfd_event@@YGXPAUEVENT@@@Z ; select_rhs_tads_main_mfd_event
  00421	6a 02		 push	 2
  00423	6a 03		 push	 3
  00425	6a 04		 push	 4
  00427	e8 00 00 00 00	 call	 ?set_event@@YGXHHHP6GXPAUEVENT@@@Z@Z ; set_event

; 1053 : 
; 1054 : 	set_event (DIK_4, MODIFIER_LEFT_CONTROL, KEY_STATE_DOWN, select_lhs_tsd_main_mfd_event);

  0042c	68 00 00 00 00	 push	 OFFSET ?select_lhs_tsd_main_mfd_event@@YGXPAUEVENT@@@Z ; select_lhs_tsd_main_mfd_event
  00431	6a 02		 push	 2
  00433	6a 02		 push	 2
  00435	6a 05		 push	 5
  00437	e8 00 00 00 00	 call	 ?set_event@@YGXHHHP6GXPAUEVENT@@@Z@Z ; set_event

; 1055 : 	set_event (DIK_4, MODIFIER_LEFT_ALT, KEY_STATE_DOWN, select_rhs_tsd_main_mfd_event);

  0043c	68 00 00 00 00	 push	 OFFSET ?select_rhs_tsd_main_mfd_event@@YGXPAUEVENT@@@Z ; select_rhs_tsd_main_mfd_event
  00441	6a 02		 push	 2
  00443	6a 03		 push	 3
  00445	6a 05		 push	 5
  00447	e8 00 00 00 00	 call	 ?set_event@@YGXHHHP6GXPAUEVENT@@@Z@Z ; set_event

; 1056 : 
; 1057 : 	set_event (DIK_5, MODIFIER_LEFT_CONTROL, KEY_STATE_DOWN, select_lhs_ase_main_mfd_event);

  0044c	68 00 00 00 00	 push	 OFFSET ?select_lhs_ase_main_mfd_event@@YGXPAUEVENT@@@Z ; select_lhs_ase_main_mfd_event
  00451	6a 02		 push	 2
  00453	6a 02		 push	 2
  00455	6a 06		 push	 6
  00457	e8 00 00 00 00	 call	 ?set_event@@YGXHHHP6GXPAUEVENT@@@Z@Z ; set_event

; 1058 : 	set_event (DIK_5, MODIFIER_LEFT_ALT, KEY_STATE_DOWN, select_rhs_ase_main_mfd_event);

  0045c	68 00 00 00 00	 push	 OFFSET ?select_rhs_ase_main_mfd_event@@YGXPAUEVENT@@@Z ; select_rhs_ase_main_mfd_event
  00461	6a 02		 push	 2
  00463	6a 03		 push	 3
  00465	6a 06		 push	 6
  00467	e8 00 00 00 00	 call	 ?set_event@@YGXHHHP6GXPAUEVENT@@@Z@Z ; set_event

; 1059 : 
; 1060 : 	set_event (DIK_6, MODIFIER_LEFT_CONTROL, KEY_STATE_DOWN, select_lhs_weapon_main_mfd_event);

  0046c	68 00 00 00 00	 push	 OFFSET ?select_lhs_weapon_main_mfd_event@@YGXPAUEVENT@@@Z ; select_lhs_weapon_main_mfd_event
  00471	6a 02		 push	 2
  00473	6a 02		 push	 2
  00475	6a 07		 push	 7
  00477	e8 00 00 00 00	 call	 ?set_event@@YGXHHHP6GXPAUEVENT@@@Z@Z ; set_event

; 1061 : 	set_event (DIK_6, MODIFIER_LEFT_ALT, KEY_STATE_DOWN, select_rhs_weapon_main_mfd_event);

  0047c	68 00 00 00 00	 push	 OFFSET ?select_rhs_weapon_main_mfd_event@@YGXPAUEVENT@@@Z ; select_rhs_weapon_main_mfd_event
  00481	6a 02		 push	 2
  00483	6a 03		 push	 3
  00485	6a 07		 push	 7
  00487	e8 00 00 00 00	 call	 ?set_event@@YGXHHHP6GXPAUEVENT@@@Z@Z ; set_event

; 1062 : 
; 1063 : 	set_event (DIK_7, MODIFIER_LEFT_CONTROL, KEY_STATE_DOWN, select_lhs_system_main_mfd_event);

  0048c	68 00 00 00 00	 push	 OFFSET ?select_lhs_system_main_mfd_event@@YGXPAUEVENT@@@Z ; select_lhs_system_main_mfd_event
  00491	6a 02		 push	 2
  00493	6a 02		 push	 2
  00495	6a 08		 push	 8
  00497	e8 00 00 00 00	 call	 ?set_event@@YGXHHHP6GXPAUEVENT@@@Z@Z ; set_event

; 1064 : 	set_event (DIK_7, MODIFIER_LEFT_ALT, KEY_STATE_DOWN, select_rhs_system_main_mfd_event);

  0049c	68 00 00 00 00	 push	 OFFSET ?select_rhs_system_main_mfd_event@@YGXPAUEVENT@@@Z ; select_rhs_system_main_mfd_event
  004a1	6a 02		 push	 2
  004a3	6a 03		 push	 3
  004a5	6a 08		 push	 8
  004a7	e8 00 00 00 00	 call	 ?set_event@@YGXHHHP6GXPAUEVENT@@@Z@Z ; set_event

; 1065 : 
; 1066 : 	set_event (DIK_8, MODIFIER_LEFT_CONTROL, KEY_STATE_DOWN, select_lhs_engine_main_mfd_event);

  004ac	68 00 00 00 00	 push	 OFFSET ?select_lhs_engine_main_mfd_event@@YGXPAUEVENT@@@Z ; select_lhs_engine_main_mfd_event
  004b1	6a 02		 push	 2
  004b3	6a 02		 push	 2
  004b5	6a 09		 push	 9
  004b7	e8 00 00 00 00	 call	 ?set_event@@YGXHHHP6GXPAUEVENT@@@Z@Z ; set_event

; 1067 : 	set_event (DIK_8, MODIFIER_LEFT_ALT, KEY_STATE_DOWN, select_rhs_engine_main_mfd_event);

  004bc	68 00 00 00 00	 push	 OFFSET ?select_rhs_engine_main_mfd_event@@YGXPAUEVENT@@@Z ; select_rhs_engine_main_mfd_event
  004c1	6a 02		 push	 2
  004c3	6a 03		 push	 3
  004c5	6a 09		 push	 9
  004c7	e8 00 00 00 00	 call	 ?set_event@@YGXHHHP6GXPAUEVENT@@@Z@Z ; set_event

; 1068 : 
; 1069 : 	set_event (DIK_9, MODIFIER_LEFT_CONTROL, KEY_STATE_DOWN, select_lhs_flight_main_mfd_event);

  004cc	68 00 00 00 00	 push	 OFFSET ?select_lhs_flight_main_mfd_event@@YGXPAUEVENT@@@Z ; select_lhs_flight_main_mfd_event
  004d1	6a 02		 push	 2
  004d3	6a 02		 push	 2
  004d5	6a 0a		 push	 10			; 0000000aH
  004d7	e8 00 00 00 00	 call	 ?set_event@@YGXHHHP6GXPAUEVENT@@@Z@Z ; set_event

; 1070 : 	set_event (DIK_9, MODIFIER_LEFT_ALT, KEY_STATE_DOWN, select_rhs_flight_main_mfd_event);

  004dc	68 00 00 00 00	 push	 OFFSET ?select_rhs_flight_main_mfd_event@@YGXPAUEVENT@@@Z ; select_rhs_flight_main_mfd_event
  004e1	6a 02		 push	 2
  004e3	6a 03		 push	 3
  004e5	6a 0a		 push	 10			; 0000000aH
  004e7	e8 00 00 00 00	 call	 ?set_event@@YGXHHHP6GXPAUEVENT@@@Z@Z ; set_event

; 1071 : 
; 1072 : 	set_event (DIK_0, MODIFIER_LEFT_CONTROL, KEY_STATE_DOWN, select_lhs_mission_main_mfd_event);

  004ec	68 00 00 00 00	 push	 OFFSET ?select_lhs_mission_main_mfd_event@@YGXPAUEVENT@@@Z ; select_lhs_mission_main_mfd_event
  004f1	6a 02		 push	 2
  004f3	6a 02		 push	 2
  004f5	6a 0b		 push	 11			; 0000000bH
  004f7	e8 00 00 00 00	 call	 ?set_event@@YGXHHHP6GXPAUEVENT@@@Z@Z ; set_event

; 1073 : 	set_event (DIK_0, MODIFIER_LEFT_ALT, KEY_STATE_DOWN, select_rhs_mission_main_mfd_event);

  004fc	68 00 00 00 00	 push	 OFFSET ?select_rhs_mission_main_mfd_event@@YGXPAUEVENT@@@Z ; select_rhs_mission_main_mfd_event
  00501	6a 02		 push	 2
  00503	6a 03		 push	 3
  00505	6a 0b		 push	 11			; 0000000bH
  00507	e8 00 00 00 00	 call	 ?set_event@@YGXHHHP6GXPAUEVENT@@@Z@Z ; set_event

; 1074 : 
; 1075 : 	set_event (DIK_C, MODIFIER_LEFT_ALT, KEY_STATE_DOWN, toggle_kiowa_canopy_doors);

  0050c	68 00 00 00 00	 push	 OFFSET ?toggle_kiowa_canopy_doors@@YGXPAUEVENT@@@Z ; toggle_kiowa_canopy_doors
  00511	6a 02		 push	 2
  00513	6a 03		 push	 3
  00515	6a 2e		 push	 46			; 0000002eH
  00517	e8 00 00 00 00	 call	 ?set_event@@YGXHHHP6GXPAUEVENT@@@Z@Z ; set_event

; 1076 : 
; 1077 : 	////////////////////////////////////////
; 1078 : 	//
; 1079 : 	// JOYSTICK EVENTS
; 1080 : 	//
; 1081 : 	////////////////////////////////////////
; 1082 : 
; 1083 : 	set_event ((JOYSTICK_BUTTON + 3), MODIFIER_NONE, KEY_STATE_DOWN, select_next_target_event);

  0051c	68 00 00 00 00	 push	 OFFSET ?select_next_target_event@@YGXPAUEVENT@@@Z ; select_next_target_event
  00521	6a 02		 push	 2
  00523	6a 00		 push	 0
  00525	68 0e 01 00 00	 push	 270			; 0000010eH
  0052a	e8 00 00 00 00	 call	 ?set_event@@YGXHHHP6GXPAUEVENT@@@Z@Z ; set_event

; 1084 : 
; 1085 : 	set_event ((JOYSTICK_BUTTON + 4), MODIFIER_NONE, KEY_STATE_DOWN, virtual_cockpit_track_target_event);

  0052f	68 00 00 00 00	 push	 OFFSET ?virtual_cockpit_track_target_event@@YGXPAUEVENT@@@Z ; virtual_cockpit_track_target_event
  00534	6a 02		 push	 2
  00536	6a 00		 push	 0
  00538	68 0f 01 00 00	 push	 271			; 0000010fH
  0053d	e8 00 00 00 00	 call	 ?set_event@@YGXHHHP6GXPAUEVENT@@@Z@Z ; set_event
$LN1@set_kiowa_:

; 1086 : 	
; 1087 : }

  00542	5f		 pop	 edi
  00543	5e		 pop	 esi
  00544	5b		 pop	 ebx
  00545	8b e5		 mov	 esp, ebp
  00547	5d		 pop	 ebp
  00548	c3		 ret	 0
?set_kiowa_avionics_events@@YGXXZ ENDP			; set_kiowa_avionics_events
_TEXT	ENDS
END
