; Listing generated by Microsoft (R) Optimizing Compiler Version 19.16.27045.0 

	TITLE	C:\Users\nhv90\Projects\eech\aphavoc\source\gunships\cockpits\kiowa\ki_ckpt.c
	.686P
	.XMM
	include listing.inc
	.model	flat

INCLUDELIB MSVCRTD
INCLUDELIB OLDNAMES

PUBLIC	?initialise_kiowa_cockpits@@YGXXZ		; initialise_kiowa_cockpits
PUBLIC	?deinitialise_kiowa_cockpits@@YGXXZ		; deinitialise_kiowa_cockpits
PUBLIC	?update_kiowa_cockpits@@YGXXZ			; update_kiowa_cockpits
EXTRN	?initialise_kiowa_lamps@@YGXXZ:PROC		; initialise_kiowa_lamps
EXTRN	?deinitialise_kiowa_lamps@@YGXXZ:PROC		; deinitialise_kiowa_lamps
; Function compile flags: /Odtp /ZI
; File c:\users\nhv90\projects\eech\aphavoc\source\gunships\cockpits\kiowa\ki_ckpt.c
;	COMDAT ?update_kiowa_cockpits@@YGXXZ
_TEXT	SEGMENT
?update_kiowa_cockpits@@YGXXZ PROC			; update_kiowa_cockpits, COMDAT

; 98   : {

  00000	55		 push	 ebp
  00001	8b ec		 mov	 ebp, esp
  00003	83 ec 40	 sub	 esp, 64			; 00000040H
  00006	53		 push	 ebx
  00007	56		 push	 esi
  00008	57		 push	 edi

; 99   : }

  00009	5f		 pop	 edi
  0000a	5e		 pop	 esi
  0000b	5b		 pop	 ebx
  0000c	8b e5		 mov	 esp, ebp
  0000e	5d		 pop	 ebp
  0000f	c3		 ret	 0
?update_kiowa_cockpits@@YGXXZ ENDP			; update_kiowa_cockpits
_TEXT	ENDS
; Function compile flags: /Odtp /ZI
; File c:\users\nhv90\projects\eech\aphavoc\source\gunships\cockpits\kiowa\ki_ckpt.c
;	COMDAT ?deinitialise_kiowa_cockpits@@YGXXZ
_TEXT	SEGMENT
?deinitialise_kiowa_cockpits@@YGXXZ PROC		; deinitialise_kiowa_cockpits, COMDAT

; 89   : {

  00000	55		 push	 ebp
  00001	8b ec		 mov	 ebp, esp
  00003	83 ec 40	 sub	 esp, 64			; 00000040H
  00006	53		 push	 ebx
  00007	56		 push	 esi
  00008	57		 push	 edi

; 90   : 	deinitialise_kiowa_lamps ();

  00009	e8 00 00 00 00	 call	 ?deinitialise_kiowa_lamps@@YGXXZ ; deinitialise_kiowa_lamps

; 91   : }

  0000e	5f		 pop	 edi
  0000f	5e		 pop	 esi
  00010	5b		 pop	 ebx
  00011	8b e5		 mov	 esp, ebp
  00013	5d		 pop	 ebp
  00014	c3		 ret	 0
?deinitialise_kiowa_cockpits@@YGXXZ ENDP		; deinitialise_kiowa_cockpits
_TEXT	ENDS
; Function compile flags: /Odtp /ZI
; File c:\users\nhv90\projects\eech\aphavoc\source\gunships\cockpits\kiowa\ki_ckpt.c
;	COMDAT ?initialise_kiowa_cockpits@@YGXXZ
_TEXT	SEGMENT
?initialise_kiowa_cockpits@@YGXXZ PROC			; initialise_kiowa_cockpits, COMDAT

; 80   : {

  00000	55		 push	 ebp
  00001	8b ec		 mov	 ebp, esp
  00003	83 ec 40	 sub	 esp, 64			; 00000040H
  00006	53		 push	 ebx
  00007	56		 push	 esi
  00008	57		 push	 edi

; 81   : 	initialise_kiowa_lamps ();

  00009	e8 00 00 00 00	 call	 ?initialise_kiowa_lamps@@YGXXZ ; initialise_kiowa_lamps

; 82   : }

  0000e	5f		 pop	 edi
  0000f	5e		 pop	 esi
  00010	5b		 pop	 ebx
  00011	8b e5		 mov	 esp, ebp
  00013	5d		 pop	 ebp
  00014	c3		 ret	 0
?initialise_kiowa_cockpits@@YGXXZ ENDP			; initialise_kiowa_cockpits
_TEXT	ENDS
END
