; Listing generated by Microsoft (R) Optimizing Compiler Version 19.16.27045.0 

	TITLE	C:\Users\nhv90\Projects\eech\aphavoc\source\gunships\cockpits\kiowa\ki_lamps.c
	.686P
	.XMM
	include listing.inc
	.model	flat

INCLUDELIB MSVCRTD
INCLUDELIB OLDNAMES

PUBLIC	?kiowa_lamps@@3UKIOWA_LAMP_FLAGS@@A		; kiowa_lamps
_BSS	SEGMENT
?kiowa_lamps@@3UKIOWA_LAMP_FLAGS@@A DD 01H DUP (?)	; kiowa_lamps
_BSS	ENDS
PUBLIC	?initialise_kiowa_lamps@@YGXXZ			; initialise_kiowa_lamps
PUBLIC	?deinitialise_kiowa_lamps@@YGXXZ		; deinitialise_kiowa_lamps
PUBLIC	?draw_kiowa_virtual_cockpit_lamps@@YGXXZ	; draw_kiowa_virtual_cockpit_lamps
PUBLIC	?__LINE__Var@?0??draw_kiowa_virtual_cockpit_lamps@@YGXXZ@4JA ; `draw_kiowa_virtual_cockpit_lamps'::`1'::__LINE__Var
PUBLIC	??_C@_0EP@KKLCAAIL@c?3?2users?2nhv90?2projects?2eech?2ap@ ; `string'
PUBLIC	??_C@_0BH@OJOOJLIP@virtual_cockpit_inst3d@	; `string'
EXTRN	_memset:PROC
EXTRN	?process_assert@@YGXPBD0H@Z:PROC		; process_assert
EXTRN	?set_texture_animation_frame_on_object@@YGHPAUOBJECT_3D_INSTANCE@@W4TEXTURE_ANIMATION_INDICES@@H@Z:PROC ; set_texture_animation_frame_on_object
EXTRN	?virtual_cockpit_inst3d@@3PAUOBJECT_3D_INSTANCE@@A:DWORD ; virtual_cockpit_inst3d
;	COMDAT ??_C@_0BH@OJOOJLIP@virtual_cockpit_inst3d@
CONST	SEGMENT
??_C@_0BH@OJOOJLIP@virtual_cockpit_inst3d@ DB 'virtual_cockpit_inst3d', 00H ; `string'
CONST	ENDS
;	COMDAT ??_C@_0EP@KKLCAAIL@c?3?2users?2nhv90?2projects?2eech?2ap@
CONST	SEGMENT
??_C@_0EP@KKLCAAIL@c?3?2users?2nhv90?2projects?2eech?2ap@ DB 'c:\users\nh'
	DB	'v90\projects\eech\aphavoc\source\gunships\cockpits\kiowa\ki_l'
	DB	'amps.c', 00H				; `string'
CONST	ENDS
;	COMDAT ?__LINE__Var@?0??draw_kiowa_virtual_cockpit_lamps@@YGXXZ@4JA
_DATA	SEGMENT
?__LINE__Var@?0??draw_kiowa_virtual_cockpit_lamps@@YGXXZ@4JA DD 078H ; `draw_kiowa_virtual_cockpit_lamps'::`1'::__LINE__Var
_DATA	ENDS
; Function compile flags: /Odtp /ZI
; File c:\users\nhv90\projects\eech\aphavoc\source\gunships\cockpits\kiowa\ki_lamps.c
;	COMDAT ?draw_kiowa_virtual_cockpit_lamps@@YGXXZ
_TEXT	SEGMENT
?draw_kiowa_virtual_cockpit_lamps@@YGXXZ PROC		; draw_kiowa_virtual_cockpit_lamps, COMDAT

; 120  : {

  00000	55		 push	 ebp
  00001	8b ec		 mov	 ebp, esp
  00003	83 ec 40	 sub	 esp, 64			; 00000040H
  00006	53		 push	 ebx
  00007	56		 push	 esi
  00008	57		 push	 edi

; 121  : 	ASSERT (virtual_cockpit_inst3d);

  00009	83 3d 00 00 00
	00 00		 cmp	 DWORD PTR ?virtual_cockpit_inst3d@@3PAUOBJECT_3D_INSTANCE@@A, 0 ; virtual_cockpit_inst3d
  00010	75 18		 jne	 SHORT $LN2@draw_kiowa
  00012	a1 00 00 00 00	 mov	 eax, DWORD PTR ?__LINE__Var@?0??draw_kiowa_virtual_cockpit_lamps@@YGXXZ@4JA
  00017	83 c0 01	 add	 eax, 1
  0001a	50		 push	 eax
  0001b	68 00 00 00 00	 push	 OFFSET ??_C@_0EP@KKLCAAIL@c?3?2users?2nhv90?2projects?2eech?2ap@
  00020	68 00 00 00 00	 push	 OFFSET ??_C@_0BH@OJOOJLIP@virtual_cockpit_inst3d@
  00025	e8 00 00 00 00	 call	 ?process_assert@@YGXPBD0H@Z ; process_assert
$LN2@draw_kiowa:

; 122  : 
; 123  : 	draw_lamp (kiowa_lamps.master_caution, TEXTURE_ANIMATION_INDEX_COCKPIT_LAMP__000);

  0002a	a1 00 00 00 00	 mov	 eax, DWORD PTR ?kiowa_lamps@@3UKIOWA_LAMP_FLAGS@@A ; kiowa_lamps
  0002f	83 e0 01	 and	 eax, 1
  00032	74 11		 je	 SHORT $LN3@draw_kiowa
  00034	6a 01		 push	 1
  00036	6a 34		 push	 52			; 00000034H
  00038	a1 00 00 00 00	 mov	 eax, DWORD PTR ?virtual_cockpit_inst3d@@3PAUOBJECT_3D_INSTANCE@@A ; virtual_cockpit_inst3d
  0003d	50		 push	 eax
  0003e	e8 00 00 00 00	 call	 ?set_texture_animation_frame_on_object@@YGHPAUOBJECT_3D_INSTANCE@@W4TEXTURE_ANIMATION_INDICES@@H@Z ; set_texture_animation_frame_on_object
  00043	eb 0f		 jmp	 SHORT $LN4@draw_kiowa
$LN3@draw_kiowa:
  00045	6a 00		 push	 0
  00047	6a 34		 push	 52			; 00000034H
  00049	a1 00 00 00 00	 mov	 eax, DWORD PTR ?virtual_cockpit_inst3d@@3PAUOBJECT_3D_INSTANCE@@A ; virtual_cockpit_inst3d
  0004e	50		 push	 eax
  0004f	e8 00 00 00 00	 call	 ?set_texture_animation_frame_on_object@@YGHPAUOBJECT_3D_INSTANCE@@W4TEXTURE_ANIMATION_INDICES@@H@Z ; set_texture_animation_frame_on_object
$LN4@draw_kiowa:

; 124  : 
; 125  : 	draw_lamp (kiowa_lamps.engine_ignition, TEXTURE_ANIMATION_INDEX_COCKPIT_LAMP__024);

  00054	a1 00 00 00 00	 mov	 eax, DWORD PTR ?kiowa_lamps@@3UKIOWA_LAMP_FLAGS@@A ; kiowa_lamps
  00059	d1 e8		 shr	 eax, 1
  0005b	83 e0 01	 and	 eax, 1
  0005e	74 11		 je	 SHORT $LN5@draw_kiowa
  00060	6a 01		 push	 1
  00062	6a 1d		 push	 29			; 0000001dH
  00064	a1 00 00 00 00	 mov	 eax, DWORD PTR ?virtual_cockpit_inst3d@@3PAUOBJECT_3D_INSTANCE@@A ; virtual_cockpit_inst3d
  00069	50		 push	 eax
  0006a	e8 00 00 00 00	 call	 ?set_texture_animation_frame_on_object@@YGHPAUOBJECT_3D_INSTANCE@@W4TEXTURE_ANIMATION_INDICES@@H@Z ; set_texture_animation_frame_on_object
  0006f	eb 0f		 jmp	 SHORT $LN6@draw_kiowa
$LN5@draw_kiowa:
  00071	6a 00		 push	 0
  00073	6a 1d		 push	 29			; 0000001dH
  00075	a1 00 00 00 00	 mov	 eax, DWORD PTR ?virtual_cockpit_inst3d@@3PAUOBJECT_3D_INSTANCE@@A ; virtual_cockpit_inst3d
  0007a	50		 push	 eax
  0007b	e8 00 00 00 00	 call	 ?set_texture_animation_frame_on_object@@YGHPAUOBJECT_3D_INSTANCE@@W4TEXTURE_ANIMATION_INDICES@@H@Z ; set_texture_animation_frame_on_object
$LN6@draw_kiowa:

; 126  : 
; 127  : 	draw_lamp (kiowa_lamps.apu_ignition, TEXTURE_ANIMATION_INDEX_COCKPIT_LAMP__025);

  00080	a1 00 00 00 00	 mov	 eax, DWORD PTR ?kiowa_lamps@@3UKIOWA_LAMP_FLAGS@@A ; kiowa_lamps
  00085	c1 e8 02	 shr	 eax, 2
  00088	83 e0 01	 and	 eax, 1
  0008b	74 11		 je	 SHORT $LN7@draw_kiowa
  0008d	6a 01		 push	 1
  0008f	6a 1b		 push	 27			; 0000001bH
  00091	a1 00 00 00 00	 mov	 eax, DWORD PTR ?virtual_cockpit_inst3d@@3PAUOBJECT_3D_INSTANCE@@A ; virtual_cockpit_inst3d
  00096	50		 push	 eax
  00097	e8 00 00 00 00	 call	 ?set_texture_animation_frame_on_object@@YGHPAUOBJECT_3D_INSTANCE@@W4TEXTURE_ANIMATION_INDICES@@H@Z ; set_texture_animation_frame_on_object
  0009c	eb 0f		 jmp	 SHORT $LN8@draw_kiowa
$LN7@draw_kiowa:
  0009e	6a 00		 push	 0
  000a0	6a 1b		 push	 27			; 0000001bH
  000a2	a1 00 00 00 00	 mov	 eax, DWORD PTR ?virtual_cockpit_inst3d@@3PAUOBJECT_3D_INSTANCE@@A ; virtual_cockpit_inst3d
  000a7	50		 push	 eax
  000a8	e8 00 00 00 00	 call	 ?set_texture_animation_frame_on_object@@YGHPAUOBJECT_3D_INSTANCE@@W4TEXTURE_ANIMATION_INDICES@@H@Z ; set_texture_animation_frame_on_object
$LN8@draw_kiowa:

; 128  : 
; 129  : 	draw_lamp (kiowa_lamps.engine_fire, TEXTURE_ANIMATION_INDEX_COCKPIT_LAMP__001);

  000ad	a1 00 00 00 00	 mov	 eax, DWORD PTR ?kiowa_lamps@@3UKIOWA_LAMP_FLAGS@@A ; kiowa_lamps
  000b2	c1 e8 03	 shr	 eax, 3
  000b5	83 e0 01	 and	 eax, 1
  000b8	74 11		 je	 SHORT $LN9@draw_kiowa
  000ba	6a 01		 push	 1
  000bc	6a 36		 push	 54			; 00000036H
  000be	a1 00 00 00 00	 mov	 eax, DWORD PTR ?virtual_cockpit_inst3d@@3PAUOBJECT_3D_INSTANCE@@A ; virtual_cockpit_inst3d
  000c3	50		 push	 eax
  000c4	e8 00 00 00 00	 call	 ?set_texture_animation_frame_on_object@@YGHPAUOBJECT_3D_INSTANCE@@W4TEXTURE_ANIMATION_INDICES@@H@Z ; set_texture_animation_frame_on_object
  000c9	eb 0f		 jmp	 SHORT $LN10@draw_kiowa
$LN9@draw_kiowa:
  000cb	6a 00		 push	 0
  000cd	6a 36		 push	 54			; 00000036H
  000cf	a1 00 00 00 00	 mov	 eax, DWORD PTR ?virtual_cockpit_inst3d@@3PAUOBJECT_3D_INSTANCE@@A ; virtual_cockpit_inst3d
  000d4	50		 push	 eax
  000d5	e8 00 00 00 00	 call	 ?set_texture_animation_frame_on_object@@YGHPAUOBJECT_3D_INSTANCE@@W4TEXTURE_ANIMATION_INDICES@@H@Z ; set_texture_animation_frame_on_object
$LN10@draw_kiowa:

; 130  : 
; 131  : 	draw_lamp (kiowa_lamps.apu_fire, TEXTURE_ANIMATION_INDEX_COCKPIT_LAMP__002);

  000da	a1 00 00 00 00	 mov	 eax, DWORD PTR ?kiowa_lamps@@3UKIOWA_LAMP_FLAGS@@A ; kiowa_lamps
  000df	c1 e8 04	 shr	 eax, 4
  000e2	83 e0 01	 and	 eax, 1
  000e5	74 11		 je	 SHORT $LN11@draw_kiowa
  000e7	6a 01		 push	 1
  000e9	6a 35		 push	 53			; 00000035H
  000eb	a1 00 00 00 00	 mov	 eax, DWORD PTR ?virtual_cockpit_inst3d@@3PAUOBJECT_3D_INSTANCE@@A ; virtual_cockpit_inst3d
  000f0	50		 push	 eax
  000f1	e8 00 00 00 00	 call	 ?set_texture_animation_frame_on_object@@YGHPAUOBJECT_3D_INSTANCE@@W4TEXTURE_ANIMATION_INDICES@@H@Z ; set_texture_animation_frame_on_object
  000f6	eb 0f		 jmp	 SHORT $LN12@draw_kiowa
$LN11@draw_kiowa:
  000f8	6a 00		 push	 0
  000fa	6a 35		 push	 53			; 00000035H
  000fc	a1 00 00 00 00	 mov	 eax, DWORD PTR ?virtual_cockpit_inst3d@@3PAUOBJECT_3D_INSTANCE@@A ; virtual_cockpit_inst3d
  00101	50		 push	 eax
  00102	e8 00 00 00 00	 call	 ?set_texture_animation_frame_on_object@@YGHPAUOBJECT_3D_INSTANCE@@W4TEXTURE_ANIMATION_INDICES@@H@Z ; set_texture_animation_frame_on_object
$LN12@draw_kiowa:

; 132  : 
; 133  : 	draw_lamp (kiowa_lamps.engine_fire_extinguiser, TEXTURE_ANIMATION_INDEX_COCKPIT_LAMP__019);

  00107	a1 00 00 00 00	 mov	 eax, DWORD PTR ?kiowa_lamps@@3UKIOWA_LAMP_FLAGS@@A ; kiowa_lamps
  0010c	c1 e8 05	 shr	 eax, 5
  0010f	83 e0 01	 and	 eax, 1
  00112	74 11		 je	 SHORT $LN13@draw_kiowa
  00114	6a 01		 push	 1
  00116	6a 19		 push	 25			; 00000019H
  00118	a1 00 00 00 00	 mov	 eax, DWORD PTR ?virtual_cockpit_inst3d@@3PAUOBJECT_3D_INSTANCE@@A ; virtual_cockpit_inst3d
  0011d	50		 push	 eax
  0011e	e8 00 00 00 00	 call	 ?set_texture_animation_frame_on_object@@YGHPAUOBJECT_3D_INSTANCE@@W4TEXTURE_ANIMATION_INDICES@@H@Z ; set_texture_animation_frame_on_object
  00123	eb 0f		 jmp	 SHORT $LN14@draw_kiowa
$LN13@draw_kiowa:
  00125	6a 00		 push	 0
  00127	6a 19		 push	 25			; 00000019H
  00129	a1 00 00 00 00	 mov	 eax, DWORD PTR ?virtual_cockpit_inst3d@@3PAUOBJECT_3D_INSTANCE@@A ; virtual_cockpit_inst3d
  0012e	50		 push	 eax
  0012f	e8 00 00 00 00	 call	 ?set_texture_animation_frame_on_object@@YGHPAUOBJECT_3D_INSTANCE@@W4TEXTURE_ANIMATION_INDICES@@H@Z ; set_texture_animation_frame_on_object
$LN14@draw_kiowa:

; 134  : 
; 135  : 	draw_lamp (kiowa_lamps.hydraulic_pressure, TEXTURE_ANIMATION_INDEX_COCKPIT_LAMP__021);

  00134	a1 00 00 00 00	 mov	 eax, DWORD PTR ?kiowa_lamps@@3UKIOWA_LAMP_FLAGS@@A ; kiowa_lamps
  00139	c1 e8 06	 shr	 eax, 6
  0013c	83 e0 01	 and	 eax, 1
  0013f	74 11		 je	 SHORT $LN15@draw_kiowa
  00141	6a 01		 push	 1
  00143	6a 1e		 push	 30			; 0000001eH
  00145	a1 00 00 00 00	 mov	 eax, DWORD PTR ?virtual_cockpit_inst3d@@3PAUOBJECT_3D_INSTANCE@@A ; virtual_cockpit_inst3d
  0014a	50		 push	 eax
  0014b	e8 00 00 00 00	 call	 ?set_texture_animation_frame_on_object@@YGHPAUOBJECT_3D_INSTANCE@@W4TEXTURE_ANIMATION_INDICES@@H@Z ; set_texture_animation_frame_on_object
  00150	eb 0f		 jmp	 SHORT $LN16@draw_kiowa
$LN15@draw_kiowa:
  00152	6a 00		 push	 0
  00154	6a 1e		 push	 30			; 0000001eH
  00156	a1 00 00 00 00	 mov	 eax, DWORD PTR ?virtual_cockpit_inst3d@@3PAUOBJECT_3D_INSTANCE@@A ; virtual_cockpit_inst3d
  0015b	50		 push	 eax
  0015c	e8 00 00 00 00	 call	 ?set_texture_animation_frame_on_object@@YGHPAUOBJECT_3D_INSTANCE@@W4TEXTURE_ANIMATION_INDICES@@H@Z ; set_texture_animation_frame_on_object
$LN16@draw_kiowa:

; 136  : 
; 137  : 	draw_lamp (kiowa_lamps.oil_pressure, TEXTURE_ANIMATION_INDEX_COCKPIT_LAMP__022);

  00161	a1 00 00 00 00	 mov	 eax, DWORD PTR ?kiowa_lamps@@3UKIOWA_LAMP_FLAGS@@A ; kiowa_lamps
  00166	c1 e8 07	 shr	 eax, 7
  00169	83 e0 01	 and	 eax, 1
  0016c	74 11		 je	 SHORT $LN17@draw_kiowa
  0016e	6a 01		 push	 1
  00170	6a 20		 push	 32			; 00000020H
  00172	a1 00 00 00 00	 mov	 eax, DWORD PTR ?virtual_cockpit_inst3d@@3PAUOBJECT_3D_INSTANCE@@A ; virtual_cockpit_inst3d
  00177	50		 push	 eax
  00178	e8 00 00 00 00	 call	 ?set_texture_animation_frame_on_object@@YGHPAUOBJECT_3D_INSTANCE@@W4TEXTURE_ANIMATION_INDICES@@H@Z ; set_texture_animation_frame_on_object
  0017d	eb 0f		 jmp	 SHORT $LN18@draw_kiowa
$LN17@draw_kiowa:
  0017f	6a 00		 push	 0
  00181	6a 20		 push	 32			; 00000020H
  00183	a1 00 00 00 00	 mov	 eax, DWORD PTR ?virtual_cockpit_inst3d@@3PAUOBJECT_3D_INSTANCE@@A ; virtual_cockpit_inst3d
  00188	50		 push	 eax
  00189	e8 00 00 00 00	 call	 ?set_texture_animation_frame_on_object@@YGHPAUOBJECT_3D_INSTANCE@@W4TEXTURE_ANIMATION_INDICES@@H@Z ; set_texture_animation_frame_on_object
$LN18@draw_kiowa:

; 138  : 
; 139  : 	draw_lamp (kiowa_lamps.oil_temperature, TEXTURE_ANIMATION_INDEX_COCKPIT_LAMP__023);

  0018e	a1 00 00 00 00	 mov	 eax, DWORD PTR ?kiowa_lamps@@3UKIOWA_LAMP_FLAGS@@A ; kiowa_lamps
  00193	c1 e8 08	 shr	 eax, 8
  00196	83 e0 01	 and	 eax, 1
  00199	74 11		 je	 SHORT $LN19@draw_kiowa
  0019b	6a 01		 push	 1
  0019d	6a 1c		 push	 28			; 0000001cH
  0019f	a1 00 00 00 00	 mov	 eax, DWORD PTR ?virtual_cockpit_inst3d@@3PAUOBJECT_3D_INSTANCE@@A ; virtual_cockpit_inst3d
  001a4	50		 push	 eax
  001a5	e8 00 00 00 00	 call	 ?set_texture_animation_frame_on_object@@YGHPAUOBJECT_3D_INSTANCE@@W4TEXTURE_ANIMATION_INDICES@@H@Z ; set_texture_animation_frame_on_object
  001aa	eb 0f		 jmp	 SHORT $LN20@draw_kiowa
$LN19@draw_kiowa:
  001ac	6a 00		 push	 0
  001ae	6a 1c		 push	 28			; 0000001cH
  001b0	a1 00 00 00 00	 mov	 eax, DWORD PTR ?virtual_cockpit_inst3d@@3PAUOBJECT_3D_INSTANCE@@A ; virtual_cockpit_inst3d
  001b5	50		 push	 eax
  001b6	e8 00 00 00 00	 call	 ?set_texture_animation_frame_on_object@@YGHPAUOBJECT_3D_INSTANCE@@W4TEXTURE_ANIMATION_INDICES@@H@Z ; set_texture_animation_frame_on_object
$LN20@draw_kiowa:

; 140  : 
; 141  : 	draw_lamp (kiowa_lamps.overtorque, TEXTURE_ANIMATION_INDEX_COCKPIT_LAMP__010);

  001bb	a1 00 00 00 00	 mov	 eax, DWORD PTR ?kiowa_lamps@@3UKIOWA_LAMP_FLAGS@@A ; kiowa_lamps
  001c0	c1 e8 09	 shr	 eax, 9
  001c3	83 e0 01	 and	 eax, 1
  001c6	74 11		 je	 SHORT $LN21@draw_kiowa
  001c8	6a 01		 push	 1
  001ca	6a 25		 push	 37			; 00000025H
  001cc	a1 00 00 00 00	 mov	 eax, DWORD PTR ?virtual_cockpit_inst3d@@3PAUOBJECT_3D_INSTANCE@@A ; virtual_cockpit_inst3d
  001d1	50		 push	 eax
  001d2	e8 00 00 00 00	 call	 ?set_texture_animation_frame_on_object@@YGHPAUOBJECT_3D_INSTANCE@@W4TEXTURE_ANIMATION_INDICES@@H@Z ; set_texture_animation_frame_on_object
  001d7	eb 0f		 jmp	 SHORT $LN22@draw_kiowa
$LN21@draw_kiowa:
  001d9	6a 00		 push	 0
  001db	6a 25		 push	 37			; 00000025H
  001dd	a1 00 00 00 00	 mov	 eax, DWORD PTR ?virtual_cockpit_inst3d@@3PAUOBJECT_3D_INSTANCE@@A ; virtual_cockpit_inst3d
  001e2	50		 push	 eax
  001e3	e8 00 00 00 00	 call	 ?set_texture_animation_frame_on_object@@YGHPAUOBJECT_3D_INSTANCE@@W4TEXTURE_ANIMATION_INDICES@@H@Z ; set_texture_animation_frame_on_object
$LN22@draw_kiowa:

; 142  : 
; 143  : 	draw_lamp (kiowa_lamps.rotor_rpm, TEXTURE_ANIMATION_INDEX_COCKPIT_LAMP__011);

  001e8	a1 00 00 00 00	 mov	 eax, DWORD PTR ?kiowa_lamps@@3UKIOWA_LAMP_FLAGS@@A ; kiowa_lamps
  001ed	c1 e8 0a	 shr	 eax, 10			; 0000000aH
  001f0	83 e0 01	 and	 eax, 1
  001f3	74 11		 je	 SHORT $LN23@draw_kiowa
  001f5	6a 01		 push	 1
  001f7	6a 24		 push	 36			; 00000024H
  001f9	a1 00 00 00 00	 mov	 eax, DWORD PTR ?virtual_cockpit_inst3d@@3PAUOBJECT_3D_INSTANCE@@A ; virtual_cockpit_inst3d
  001fe	50		 push	 eax
  001ff	e8 00 00 00 00	 call	 ?set_texture_animation_frame_on_object@@YGHPAUOBJECT_3D_INSTANCE@@W4TEXTURE_ANIMATION_INDICES@@H@Z ; set_texture_animation_frame_on_object
  00204	eb 0f		 jmp	 SHORT $LN24@draw_kiowa
$LN23@draw_kiowa:
  00206	6a 00		 push	 0
  00208	6a 24		 push	 36			; 00000024H
  0020a	a1 00 00 00 00	 mov	 eax, DWORD PTR ?virtual_cockpit_inst3d@@3PAUOBJECT_3D_INSTANCE@@A ; virtual_cockpit_inst3d
  0020f	50		 push	 eax
  00210	e8 00 00 00 00	 call	 ?set_texture_animation_frame_on_object@@YGHPAUOBJECT_3D_INSTANCE@@W4TEXTURE_ANIMATION_INDICES@@H@Z ; set_texture_animation_frame_on_object
$LN24@draw_kiowa:

; 144  : 
; 145  : 	draw_lamp (kiowa_lamps.fuel_low, TEXTURE_ANIMATION_INDEX_COCKPIT_LAMP__012);

  00215	a1 00 00 00 00	 mov	 eax, DWORD PTR ?kiowa_lamps@@3UKIOWA_LAMP_FLAGS@@A ; kiowa_lamps
  0021a	c1 e8 0b	 shr	 eax, 11			; 0000000bH
  0021d	83 e0 01	 and	 eax, 1
  00220	74 11		 je	 SHORT $LN25@draw_kiowa
  00222	6a 01		 push	 1
  00224	6a 23		 push	 35			; 00000023H
  00226	a1 00 00 00 00	 mov	 eax, DWORD PTR ?virtual_cockpit_inst3d@@3PAUOBJECT_3D_INSTANCE@@A ; virtual_cockpit_inst3d
  0022b	50		 push	 eax
  0022c	e8 00 00 00 00	 call	 ?set_texture_animation_frame_on_object@@YGHPAUOBJECT_3D_INSTANCE@@W4TEXTURE_ANIMATION_INDICES@@H@Z ; set_texture_animation_frame_on_object
  00231	eb 0f		 jmp	 SHORT $LN26@draw_kiowa
$LN25@draw_kiowa:
  00233	6a 00		 push	 0
  00235	6a 23		 push	 35			; 00000023H
  00237	a1 00 00 00 00	 mov	 eax, DWORD PTR ?virtual_cockpit_inst3d@@3PAUOBJECT_3D_INSTANCE@@A ; virtual_cockpit_inst3d
  0023c	50		 push	 eax
  0023d	e8 00 00 00 00	 call	 ?set_texture_animation_frame_on_object@@YGHPAUOBJECT_3D_INSTANCE@@W4TEXTURE_ANIMATION_INDICES@@H@Z ; set_texture_animation_frame_on_object
$LN26@draw_kiowa:

; 146  : 
; 147  : 	draw_lamp (kiowa_lamps.rotor_brake, TEXTURE_ANIMATION_INDEX_COCKPIT_LAMP__004);

  00242	a1 00 00 00 00	 mov	 eax, DWORD PTR ?kiowa_lamps@@3UKIOWA_LAMP_FLAGS@@A ; kiowa_lamps
  00247	c1 e8 0c	 shr	 eax, 12			; 0000000cH
  0024a	83 e0 01	 and	 eax, 1
  0024d	74 11		 je	 SHORT $LN27@draw_kiowa
  0024f	6a 01		 push	 1
  00251	6a 29		 push	 41			; 00000029H
  00253	a1 00 00 00 00	 mov	 eax, DWORD PTR ?virtual_cockpit_inst3d@@3PAUOBJECT_3D_INSTANCE@@A ; virtual_cockpit_inst3d
  00258	50		 push	 eax
  00259	e8 00 00 00 00	 call	 ?set_texture_animation_frame_on_object@@YGHPAUOBJECT_3D_INSTANCE@@W4TEXTURE_ANIMATION_INDICES@@H@Z ; set_texture_animation_frame_on_object
  0025e	eb 0f		 jmp	 SHORT $LN28@draw_kiowa
$LN27@draw_kiowa:
  00260	6a 00		 push	 0
  00262	6a 29		 push	 41			; 00000029H
  00264	a1 00 00 00 00	 mov	 eax, DWORD PTR ?virtual_cockpit_inst3d@@3PAUOBJECT_3D_INSTANCE@@A ; virtual_cockpit_inst3d
  00269	50		 push	 eax
  0026a	e8 00 00 00 00	 call	 ?set_texture_animation_frame_on_object@@YGHPAUOBJECT_3D_INSTANCE@@W4TEXTURE_ANIMATION_INDICES@@H@Z ; set_texture_animation_frame_on_object
$LN28@draw_kiowa:

; 148  : 
; 149  : 	draw_lamp (kiowa_lamps.navigation_lights, TEXTURE_ANIMATION_INDEX_COCKPIT_LAMP__006);

  0026f	a1 00 00 00 00	 mov	 eax, DWORD PTR ?kiowa_lamps@@3UKIOWA_LAMP_FLAGS@@A ; kiowa_lamps
  00274	c1 e8 0d	 shr	 eax, 13			; 0000000dH
  00277	83 e0 01	 and	 eax, 1
  0027a	74 11		 je	 SHORT $LN29@draw_kiowa
  0027c	6a 01		 push	 1
  0027e	6a 22		 push	 34			; 00000022H
  00280	a1 00 00 00 00	 mov	 eax, DWORD PTR ?virtual_cockpit_inst3d@@3PAUOBJECT_3D_INSTANCE@@A ; virtual_cockpit_inst3d
  00285	50		 push	 eax
  00286	e8 00 00 00 00	 call	 ?set_texture_animation_frame_on_object@@YGHPAUOBJECT_3D_INSTANCE@@W4TEXTURE_ANIMATION_INDICES@@H@Z ; set_texture_animation_frame_on_object
  0028b	eb 0f		 jmp	 SHORT $LN30@draw_kiowa
$LN29@draw_kiowa:
  0028d	6a 00		 push	 0
  0028f	6a 22		 push	 34			; 00000022H
  00291	a1 00 00 00 00	 mov	 eax, DWORD PTR ?virtual_cockpit_inst3d@@3PAUOBJECT_3D_INSTANCE@@A ; virtual_cockpit_inst3d
  00296	50		 push	 eax
  00297	e8 00 00 00 00	 call	 ?set_texture_animation_frame_on_object@@YGHPAUOBJECT_3D_INSTANCE@@W4TEXTURE_ANIMATION_INDICES@@H@Z ; set_texture_animation_frame_on_object
$LN30@draw_kiowa:

; 150  : 
; 151  : 	draw_lamp (kiowa_lamps.hover_hold, TEXTURE_ANIMATION_INDEX_COCKPIT_LAMP__008);

  0029c	a1 00 00 00 00	 mov	 eax, DWORD PTR ?kiowa_lamps@@3UKIOWA_LAMP_FLAGS@@A ; kiowa_lamps
  002a1	c1 e8 0e	 shr	 eax, 14			; 0000000eH
  002a4	83 e0 01	 and	 eax, 1
  002a7	74 11		 je	 SHORT $LN31@draw_kiowa
  002a9	6a 01		 push	 1
  002ab	6a 27		 push	 39			; 00000027H
  002ad	a1 00 00 00 00	 mov	 eax, DWORD PTR ?virtual_cockpit_inst3d@@3PAUOBJECT_3D_INSTANCE@@A ; virtual_cockpit_inst3d
  002b2	50		 push	 eax
  002b3	e8 00 00 00 00	 call	 ?set_texture_animation_frame_on_object@@YGHPAUOBJECT_3D_INSTANCE@@W4TEXTURE_ANIMATION_INDICES@@H@Z ; set_texture_animation_frame_on_object
  002b8	eb 0f		 jmp	 SHORT $LN32@draw_kiowa
$LN31@draw_kiowa:
  002ba	6a 00		 push	 0
  002bc	6a 27		 push	 39			; 00000027H
  002be	a1 00 00 00 00	 mov	 eax, DWORD PTR ?virtual_cockpit_inst3d@@3PAUOBJECT_3D_INSTANCE@@A ; virtual_cockpit_inst3d
  002c3	50		 push	 eax
  002c4	e8 00 00 00 00	 call	 ?set_texture_animation_frame_on_object@@YGHPAUOBJECT_3D_INSTANCE@@W4TEXTURE_ANIMATION_INDICES@@H@Z ; set_texture_animation_frame_on_object
$LN32@draw_kiowa:

; 152  : 
; 153  : 	draw_lamp (kiowa_lamps.altitude_hold, TEXTURE_ANIMATION_INDEX_COCKPIT_LAMP__042);

  002c9	a1 00 00 00 00	 mov	 eax, DWORD PTR ?kiowa_lamps@@3UKIOWA_LAMP_FLAGS@@A ; kiowa_lamps
  002ce	c1 e8 0f	 shr	 eax, 15			; 0000000fH
  002d1	83 e0 01	 and	 eax, 1
  002d4	74 11		 je	 SHORT $LN33@draw_kiowa
  002d6	6a 01		 push	 1
  002d8	6a 21		 push	 33			; 00000021H
  002da	a1 00 00 00 00	 mov	 eax, DWORD PTR ?virtual_cockpit_inst3d@@3PAUOBJECT_3D_INSTANCE@@A ; virtual_cockpit_inst3d
  002df	50		 push	 eax
  002e0	e8 00 00 00 00	 call	 ?set_texture_animation_frame_on_object@@YGHPAUOBJECT_3D_INSTANCE@@W4TEXTURE_ANIMATION_INDICES@@H@Z ; set_texture_animation_frame_on_object
  002e5	eb 0f		 jmp	 SHORT $LN34@draw_kiowa
$LN33@draw_kiowa:
  002e7	6a 00		 push	 0
  002e9	6a 21		 push	 33			; 00000021H
  002eb	a1 00 00 00 00	 mov	 eax, DWORD PTR ?virtual_cockpit_inst3d@@3PAUOBJECT_3D_INSTANCE@@A ; virtual_cockpit_inst3d
  002f0	50		 push	 eax
  002f1	e8 00 00 00 00	 call	 ?set_texture_animation_frame_on_object@@YGHPAUOBJECT_3D_INSTANCE@@W4TEXTURE_ANIMATION_INDICES@@H@Z ; set_texture_animation_frame_on_object
$LN34@draw_kiowa:

; 154  : 
; 155  : 	draw_lamp (kiowa_lamps.auto_pilot, TEXTURE_ANIMATION_INDEX_COCKPIT_LAMP__009);

  002f6	a1 00 00 00 00	 mov	 eax, DWORD PTR ?kiowa_lamps@@3UKIOWA_LAMP_FLAGS@@A ; kiowa_lamps
  002fb	c1 e8 10	 shr	 eax, 16			; 00000010H
  002fe	83 e0 01	 and	 eax, 1
  00301	74 11		 je	 SHORT $LN35@draw_kiowa
  00303	6a 01		 push	 1
  00305	6a 28		 push	 40			; 00000028H
  00307	a1 00 00 00 00	 mov	 eax, DWORD PTR ?virtual_cockpit_inst3d@@3PAUOBJECT_3D_INSTANCE@@A ; virtual_cockpit_inst3d
  0030c	50		 push	 eax
  0030d	e8 00 00 00 00	 call	 ?set_texture_animation_frame_on_object@@YGHPAUOBJECT_3D_INSTANCE@@W4TEXTURE_ANIMATION_INDICES@@H@Z ; set_texture_animation_frame_on_object
  00312	eb 0f		 jmp	 SHORT $LN36@draw_kiowa
$LN35@draw_kiowa:
  00314	6a 00		 push	 0
  00316	6a 28		 push	 40			; 00000028H
  00318	a1 00 00 00 00	 mov	 eax, DWORD PTR ?virtual_cockpit_inst3d@@3PAUOBJECT_3D_INSTANCE@@A ; virtual_cockpit_inst3d
  0031d	50		 push	 eax
  0031e	e8 00 00 00 00	 call	 ?set_texture_animation_frame_on_object@@YGHPAUOBJECT_3D_INSTANCE@@W4TEXTURE_ANIMATION_INDICES@@H@Z ; set_texture_animation_frame_on_object
$LN36@draw_kiowa:

; 156  : 
; 157  : 	draw_lamp (kiowa_lamps.laser, TEXTURE_ANIMATION_INDEX_COCKPIT_LAMP__014);

  00323	a1 00 00 00 00	 mov	 eax, DWORD PTR ?kiowa_lamps@@3UKIOWA_LAMP_FLAGS@@A ; kiowa_lamps
  00328	c1 e8 11	 shr	 eax, 17			; 00000011H
  0032b	83 e0 01	 and	 eax, 1
  0032e	74 11		 je	 SHORT $LN37@draw_kiowa
  00330	6a 01		 push	 1
  00332	6a 2f		 push	 47			; 0000002fH
  00334	a1 00 00 00 00	 mov	 eax, DWORD PTR ?virtual_cockpit_inst3d@@3PAUOBJECT_3D_INSTANCE@@A ; virtual_cockpit_inst3d
  00339	50		 push	 eax
  0033a	e8 00 00 00 00	 call	 ?set_texture_animation_frame_on_object@@YGHPAUOBJECT_3D_INSTANCE@@W4TEXTURE_ANIMATION_INDICES@@H@Z ; set_texture_animation_frame_on_object
  0033f	eb 0f		 jmp	 SHORT $LN38@draw_kiowa
$LN37@draw_kiowa:
  00341	6a 00		 push	 0
  00343	6a 2f		 push	 47			; 0000002fH
  00345	a1 00 00 00 00	 mov	 eax, DWORD PTR ?virtual_cockpit_inst3d@@3PAUOBJECT_3D_INSTANCE@@A ; virtual_cockpit_inst3d
  0034a	50		 push	 eax
  0034b	e8 00 00 00 00	 call	 ?set_texture_animation_frame_on_object@@YGHPAUOBJECT_3D_INSTANCE@@W4TEXTURE_ANIMATION_INDICES@@H@Z ; set_texture_animation_frame_on_object
$LN38@draw_kiowa:

; 158  : 
; 159  : 	draw_lamp (kiowa_lamps.ir_jammer, TEXTURE_ANIMATION_INDEX_COCKPIT_LAMP__016);

  00350	a1 00 00 00 00	 mov	 eax, DWORD PTR ?kiowa_lamps@@3UKIOWA_LAMP_FLAGS@@A ; kiowa_lamps
  00355	c1 e8 12	 shr	 eax, 18			; 00000012H
  00358	83 e0 01	 and	 eax, 1
  0035b	74 11		 je	 SHORT $LN39@draw_kiowa
  0035d	6a 01		 push	 1
  0035f	6a 2d		 push	 45			; 0000002dH
  00361	a1 00 00 00 00	 mov	 eax, DWORD PTR ?virtual_cockpit_inst3d@@3PAUOBJECT_3D_INSTANCE@@A ; virtual_cockpit_inst3d
  00366	50		 push	 eax
  00367	e8 00 00 00 00	 call	 ?set_texture_animation_frame_on_object@@YGHPAUOBJECT_3D_INSTANCE@@W4TEXTURE_ANIMATION_INDICES@@H@Z ; set_texture_animation_frame_on_object
  0036c	eb 0f		 jmp	 SHORT $LN40@draw_kiowa
$LN39@draw_kiowa:
  0036e	6a 00		 push	 0
  00370	6a 2d		 push	 45			; 0000002dH
  00372	a1 00 00 00 00	 mov	 eax, DWORD PTR ?virtual_cockpit_inst3d@@3PAUOBJECT_3D_INSTANCE@@A ; virtual_cockpit_inst3d
  00377	50		 push	 eax
  00378	e8 00 00 00 00	 call	 ?set_texture_animation_frame_on_object@@YGHPAUOBJECT_3D_INSTANCE@@W4TEXTURE_ANIMATION_INDICES@@H@Z ; set_texture_animation_frame_on_object
$LN40@draw_kiowa:

; 160  : 
; 161  : 	draw_lamp (kiowa_lamps.auto_counter_measures, TEXTURE_ANIMATION_INDEX_COCKPIT_LAMP__017);

  0037d	a1 00 00 00 00	 mov	 eax, DWORD PTR ?kiowa_lamps@@3UKIOWA_LAMP_FLAGS@@A ; kiowa_lamps
  00382	c1 e8 13	 shr	 eax, 19			; 00000013H
  00385	83 e0 01	 and	 eax, 1
  00388	74 11		 je	 SHORT $LN41@draw_kiowa
  0038a	6a 01		 push	 1
  0038c	6a 2a		 push	 42			; 0000002aH
  0038e	a1 00 00 00 00	 mov	 eax, DWORD PTR ?virtual_cockpit_inst3d@@3PAUOBJECT_3D_INSTANCE@@A ; virtual_cockpit_inst3d
  00393	50		 push	 eax
  00394	e8 00 00 00 00	 call	 ?set_texture_animation_frame_on_object@@YGHPAUOBJECT_3D_INSTANCE@@W4TEXTURE_ANIMATION_INDICES@@H@Z ; set_texture_animation_frame_on_object
  00399	eb 0f		 jmp	 SHORT $LN42@draw_kiowa
$LN41@draw_kiowa:
  0039b	6a 00		 push	 0
  0039d	6a 2a		 push	 42			; 0000002aH
  0039f	a1 00 00 00 00	 mov	 eax, DWORD PTR ?virtual_cockpit_inst3d@@3PAUOBJECT_3D_INSTANCE@@A ; virtual_cockpit_inst3d
  003a4	50		 push	 eax
  003a5	e8 00 00 00 00	 call	 ?set_texture_animation_frame_on_object@@YGHPAUOBJECT_3D_INSTANCE@@W4TEXTURE_ANIMATION_INDICES@@H@Z ; set_texture_animation_frame_on_object
$LN42@draw_kiowa:

; 162  : 
; 163  : 	draw_lamp (kiowa_lamps.ase_auto_page, TEXTURE_ANIMATION_INDEX_COCKPIT_LAMP__018);

  003aa	a1 00 00 00 00	 mov	 eax, DWORD PTR ?kiowa_lamps@@3UKIOWA_LAMP_FLAGS@@A ; kiowa_lamps
  003af	c1 e8 14	 shr	 eax, 20			; 00000014H
  003b2	83 e0 01	 and	 eax, 1
  003b5	74 11		 je	 SHORT $LN43@draw_kiowa
  003b7	6a 01		 push	 1
  003b9	6a 2b		 push	 43			; 0000002bH
  003bb	a1 00 00 00 00	 mov	 eax, DWORD PTR ?virtual_cockpit_inst3d@@3PAUOBJECT_3D_INSTANCE@@A ; virtual_cockpit_inst3d
  003c0	50		 push	 eax
  003c1	e8 00 00 00 00	 call	 ?set_texture_animation_frame_on_object@@YGHPAUOBJECT_3D_INSTANCE@@W4TEXTURE_ANIMATION_INDICES@@H@Z ; set_texture_animation_frame_on_object
  003c6	eb 0f		 jmp	 SHORT $LN44@draw_kiowa
$LN43@draw_kiowa:
  003c8	6a 00		 push	 0
  003ca	6a 2b		 push	 43			; 0000002bH
  003cc	a1 00 00 00 00	 mov	 eax, DWORD PTR ?virtual_cockpit_inst3d@@3PAUOBJECT_3D_INSTANCE@@A ; virtual_cockpit_inst3d
  003d1	50		 push	 eax
  003d2	e8 00 00 00 00	 call	 ?set_texture_animation_frame_on_object@@YGHPAUOBJECT_3D_INSTANCE@@W4TEXTURE_ANIMATION_INDICES@@H@Z ; set_texture_animation_frame_on_object
$LN44@draw_kiowa:

; 164  : 
; 165  : 	draw_lamp (kiowa_lamps.co_pilot_main_mfd_focus, TEXTURE_ANIMATION_INDEX_COCKPIT_LAMP__030);

  003d7	a1 00 00 00 00	 mov	 eax, DWORD PTR ?kiowa_lamps@@3UKIOWA_LAMP_FLAGS@@A ; kiowa_lamps
  003dc	c1 e8 15	 shr	 eax, 21			; 00000015H
  003df	83 e0 01	 and	 eax, 1
  003e2	74 11		 je	 SHORT $LN45@draw_kiowa
  003e4	6a 01		 push	 1
  003e6	6a 39		 push	 57			; 00000039H
  003e8	a1 00 00 00 00	 mov	 eax, DWORD PTR ?virtual_cockpit_inst3d@@3PAUOBJECT_3D_INSTANCE@@A ; virtual_cockpit_inst3d
  003ed	50		 push	 eax
  003ee	e8 00 00 00 00	 call	 ?set_texture_animation_frame_on_object@@YGHPAUOBJECT_3D_INSTANCE@@W4TEXTURE_ANIMATION_INDICES@@H@Z ; set_texture_animation_frame_on_object
  003f3	eb 0f		 jmp	 SHORT $LN46@draw_kiowa
$LN45@draw_kiowa:
  003f5	6a 00		 push	 0
  003f7	6a 39		 push	 57			; 00000039H
  003f9	a1 00 00 00 00	 mov	 eax, DWORD PTR ?virtual_cockpit_inst3d@@3PAUOBJECT_3D_INSTANCE@@A ; virtual_cockpit_inst3d
  003fe	50		 push	 eax
  003ff	e8 00 00 00 00	 call	 ?set_texture_animation_frame_on_object@@YGHPAUOBJECT_3D_INSTANCE@@W4TEXTURE_ANIMATION_INDICES@@H@Z ; set_texture_animation_frame_on_object
$LN46@draw_kiowa:

; 166  : 
; 167  : 	draw_lamp (kiowa_lamps.pilot_main_mfd_focus, TEXTURE_ANIMATION_INDEX_COCKPIT_LAMP__031);

  00404	a1 00 00 00 00	 mov	 eax, DWORD PTR ?kiowa_lamps@@3UKIOWA_LAMP_FLAGS@@A ; kiowa_lamps
  00409	c1 e8 16	 shr	 eax, 22			; 00000016H
  0040c	83 e0 01	 and	 eax, 1
  0040f	74 11		 je	 SHORT $LN47@draw_kiowa
  00411	6a 01		 push	 1
  00413	6a 38		 push	 56			; 00000038H
  00415	a1 00 00 00 00	 mov	 eax, DWORD PTR ?virtual_cockpit_inst3d@@3PAUOBJECT_3D_INSTANCE@@A ; virtual_cockpit_inst3d
  0041a	50		 push	 eax
  0041b	e8 00 00 00 00	 call	 ?set_texture_animation_frame_on_object@@YGHPAUOBJECT_3D_INSTANCE@@W4TEXTURE_ANIMATION_INDICES@@H@Z ; set_texture_animation_frame_on_object
  00420	eb 0f		 jmp	 SHORT $LN1@draw_kiowa
$LN47@draw_kiowa:
  00422	6a 00		 push	 0
  00424	6a 38		 push	 56			; 00000038H
  00426	a1 00 00 00 00	 mov	 eax, DWORD PTR ?virtual_cockpit_inst3d@@3PAUOBJECT_3D_INSTANCE@@A ; virtual_cockpit_inst3d
  0042b	50		 push	 eax
  0042c	e8 00 00 00 00	 call	 ?set_texture_animation_frame_on_object@@YGHPAUOBJECT_3D_INSTANCE@@W4TEXTURE_ANIMATION_INDICES@@H@Z ; set_texture_animation_frame_on_object
$LN1@draw_kiowa:

; 168  : }

  00431	5f		 pop	 edi
  00432	5e		 pop	 esi
  00433	5b		 pop	 ebx
  00434	8b e5		 mov	 esp, ebp
  00436	5d		 pop	 ebp
  00437	c3		 ret	 0
?draw_kiowa_virtual_cockpit_lamps@@YGXXZ ENDP		; draw_kiowa_virtual_cockpit_lamps
_TEXT	ENDS
; Function compile flags: /Odtp /ZI
; File c:\users\nhv90\projects\eech\aphavoc\source\gunships\cockpits\kiowa\ki_lamps.c
;	COMDAT ?deinitialise_kiowa_lamps@@YGXXZ
_TEXT	SEGMENT
?deinitialise_kiowa_lamps@@YGXXZ PROC			; deinitialise_kiowa_lamps, COMDAT

; 96   : {

  00000	55		 push	 ebp
  00001	8b ec		 mov	 ebp, esp
  00003	83 ec 40	 sub	 esp, 64			; 00000040H
  00006	53		 push	 ebx
  00007	56		 push	 esi
  00008	57		 push	 edi

; 97   : }

  00009	5f		 pop	 edi
  0000a	5e		 pop	 esi
  0000b	5b		 pop	 ebx
  0000c	8b e5		 mov	 esp, ebp
  0000e	5d		 pop	 ebp
  0000f	c3		 ret	 0
?deinitialise_kiowa_lamps@@YGXXZ ENDP			; deinitialise_kiowa_lamps
_TEXT	ENDS
; Function compile flags: /Odtp /ZI
; File c:\users\nhv90\projects\eech\aphavoc\source\gunships\cockpits\kiowa\ki_lamps.c
;	COMDAT ?initialise_kiowa_lamps@@YGXXZ
_TEXT	SEGMENT
?initialise_kiowa_lamps@@YGXXZ PROC			; initialise_kiowa_lamps, COMDAT

; 87   : {

  00000	55		 push	 ebp
  00001	8b ec		 mov	 ebp, esp
  00003	83 ec 40	 sub	 esp, 64			; 00000040H
  00006	53		 push	 ebx
  00007	56		 push	 esi
  00008	57		 push	 edi

; 88   : 	memset (&kiowa_lamps, 0, sizeof (kiowa_lamp_flags));

  00009	6a 04		 push	 4
  0000b	6a 00		 push	 0
  0000d	68 00 00 00 00	 push	 OFFSET ?kiowa_lamps@@3UKIOWA_LAMP_FLAGS@@A ; kiowa_lamps
  00012	e8 00 00 00 00	 call	 _memset
  00017	83 c4 0c	 add	 esp, 12			; 0000000cH

; 89   : }

  0001a	5f		 pop	 edi
  0001b	5e		 pop	 esi
  0001c	5b		 pop	 ebx
  0001d	8b e5		 mov	 esp, ebp
  0001f	5d		 pop	 ebp
  00020	c3		 ret	 0
?initialise_kiowa_lamps@@YGXXZ ENDP			; initialise_kiowa_lamps
_TEXT	ENDS
END
