; Listing generated by Microsoft (R) Optimizing Compiler Version 19.16.27045.0 

	TITLE	C:\Users\nhv90\Projects\eech\aphavoc\source\entity\special\keysite\ks_float.c
	.686P
	.XMM
	include listing.inc
	.model	flat

INCLUDELIB MSVCRTD
INCLUDELIB OLDNAMES

PUBLIC	?overload_keysite_float_value_functions@@YGXXZ	; overload_keysite_float_value_functions
PUBLIC	?__LINE__Var@?0??set_local_float_value@@YGXPAUENTITY@@W4FLOAT_TYPES@@M@Z@4JA ; `set_local_float_value'::`1'::__LINE__Var
PUBLIC	??_C@_0EO@JHMHMCNJ@c?3?2users?2nhv90?2projects?2eech?2ap@ ; `string'
PUBLIC	?__LINE__Var@?0??set_server_float_value@@YGXPAUENTITY@@W4FLOAT_TYPES@@M@Z@4JA ; `set_server_float_value'::`1'::__LINE__Var
PUBLIC	??_C@_0CB@CFOCLFOK@assert_client_server_local_fn?5?$CI@ ; `string'
PUBLIC	??_C@_0CC@BNNNEGEG@assert_client_server_remote_fn?5@ ; `string'
PUBLIC	?__LINE__Var@?0??set_client_float_value@@YGXPAUENTITY@@W4FLOAT_TYPES@@M@Z@4JA ; `set_client_float_value'::`1'::__LINE__Var
PUBLIC	?__LINE__Var@?0??get_local_float_value@@YGMPAUENTITY@@W4FLOAT_TYPES@@@Z@4JA ; `get_local_float_value'::`1'::__LINE__Var
PUBLIC	??_C@_0DH@OKLOGCCP@raw?9?$DOkeysite_strength?5?$DM?$DN?5raw?9?$DOk@ ; `string'
PUBLIC	__real@0000000000000000
PUBLIC	__real@3f800000
EXTRN	?process_assert@@YGXPBD0H@Z:PROC		; process_assert
EXTRN	?debug_fatal@@YAXPBDZZ:PROC			; debug_fatal
EXTRN	?transmit_entity_comms_message@@YAXW4ENTITY_COMMS_MESSAGES@@PAUENTITY@@ZZ:PROC ; transmit_entity_comms_message
EXTRN	?assert_client_server_local_fn@@YGHXZ:PROC	; assert_client_server_local_fn
EXTRN	?assert_client_server_remote_fn@@YGHXZ:PROC	; assert_client_server_remote_fn
EXTRN	?null_entity_pointer_message@@3PBDB:DWORD	; null_entity_pointer_message
EXTRN	?entity_type_database@@3PAUENTITY_TYPE_DATA@@A:BYTE ; entity_type_database
EXTRN	?system_comms_data_flow@@3W4COMMS_DATA_FLOW_TYPES@@A:DWORD ; system_comms_data_flow
EXTRN	?float_type_database@@3PAUFLOAT_TYPE_DATA@@A:BYTE ; float_type_database
EXTRN	?debug_fatal_invalid_float_type_message@@3PBDB:DWORD ; debug_fatal_invalid_float_type_message
EXTRN	?fn_set_local_entity_raw_float_value@@3PAY0KP@P6GXPAUENTITY@@W4FLOAT_TYPES@@M@ZA:BYTE ; fn_set_local_entity_raw_float_value
EXTRN	?fn_set_local_entity_float_value@@3PAY0KP@P6GXPAUENTITY@@W4FLOAT_TYPES@@M@ZA:BYTE ; fn_set_local_entity_float_value
EXTRN	?fn_set_client_server_entity_float_value@@3PAY1KP@1P6GXPAUENTITY@@W4FLOAT_TYPES@@M@ZA:BYTE ; fn_set_client_server_entity_float_value
EXTRN	?fn_get_local_entity_float_value@@3PAY0KP@P6GMPAUENTITY@@W4FLOAT_TYPES@@@ZA:BYTE ; fn_get_local_entity_float_value
EXTRN	?entities@@3PAUENTITY@@A:DWORD			; entities
EXTRN	?keysite_database@@3PAUKEYSITE_DATA@@A:BYTE	; keysite_database
EXTRN	__fltused:DWORD
;	COMDAT __real@3f800000
CONST	SEGMENT
__real@3f800000 DD 03f800000r			; 1
CONST	ENDS
;	COMDAT __real@0000000000000000
CONST	SEGMENT
__real@0000000000000000 DQ 00000000000000000r	; 0
CONST	ENDS
;	COMDAT ??_C@_0DH@OKLOGCCP@raw?9?$DOkeysite_strength?5?$DM?$DN?5raw?9?$DOk@
CONST	SEGMENT
??_C@_0DH@OKLOGCCP@raw?9?$DOkeysite_strength?5?$DM?$DN?5raw?9?$DOk@ DB 'r'
	DB	'aw->keysite_strength <= raw->keysite_maximum_strength', 00H ; `string'
CONST	ENDS
;	COMDAT ?__LINE__Var@?0??get_local_float_value@@YGMPAUENTITY@@W4FLOAT_TYPES@@@Z@4JA
_DATA	SEGMENT
?__LINE__Var@?0??get_local_float_value@@YGMPAUENTITY@@W4FLOAT_TYPES@@@Z@4JA DD 0e0H ; `get_local_float_value'::`1'::__LINE__Var
_DATA	ENDS
;	COMDAT ?__LINE__Var@?0??set_client_float_value@@YGXPAUENTITY@@W4FLOAT_TYPES@@M@Z@4JA
_DATA	SEGMENT
?__LINE__Var@?0??set_client_float_value@@YGXPAUENTITY@@W4FLOAT_TYPES@@M@Z@4JA DD 0ccH ; `set_client_float_value'::`1'::__LINE__Var
_DATA	ENDS
;	COMDAT ??_C@_0CC@BNNNEGEG@assert_client_server_remote_fn?5@
CONST	SEGMENT
??_C@_0CC@BNNNEGEG@assert_client_server_remote_fn?5@ DB 'assert_client_se'
	DB	'rver_remote_fn ()', 00H			; `string'
CONST	ENDS
;	COMDAT ??_C@_0CB@CFOCLFOK@assert_client_server_local_fn?5?$CI@
CONST	SEGMENT
??_C@_0CB@CFOCLFOK@assert_client_server_local_fn?5?$CI@ DB 'assert_client'
	DB	'_server_local_fn ()', 00H			; `string'
CONST	ENDS
;	COMDAT ?__LINE__Var@?0??set_server_float_value@@YGXPAUENTITY@@W4FLOAT_TYPES@@M@Z@4JA
_DATA	SEGMENT
?__LINE__Var@?0??set_server_float_value@@YGXPAUENTITY@@W4FLOAT_TYPES@@M@Z@4JA DD 0bdH ; `set_server_float_value'::`1'::__LINE__Var
_DATA	ENDS
;	COMDAT ??_C@_0EO@JHMHMCNJ@c?3?2users?2nhv90?2projects?2eech?2ap@
CONST	SEGMENT
??_C@_0EO@JHMHMCNJ@c?3?2users?2nhv90?2projects?2eech?2ap@ DB 'c:\users\nh'
	DB	'v90\projects\eech\aphavoc\source\entity\special\keysite\ks_fl'
	DB	'oat.c', 00H					; `string'
CONST	ENDS
;	COMDAT ?__LINE__Var@?0??set_local_float_value@@YGXPAUENTITY@@W4FLOAT_TYPES@@M@Z@4JA
_DATA	SEGMENT
?__LINE__Var@?0??set_local_float_value@@YGXPAUENTITY@@W4FLOAT_TYPES@@M@Z@4JA DD 050H ; `set_local_float_value'::`1'::__LINE__Var
_DATA	ENDS
; Function compile flags: /Odtp /ZI
; File c:\users\nhv90\projects\eech\aphavoc\source\entity\special\keysite\ks_float.c
;	COMDAT ?get_local_float_value@@YGMPAUENTITY@@W4FLOAT_TYPES@@@Z
_TEXT	SEGMENT
tv153 = -76						; size = 4
tv65 = -76						; size = 4
_value$ = -8						; size = 4
_raw$ = -4						; size = 4
_en$ = 8						; size = 4
_type$ = 12						; size = 4
?get_local_float_value@@YGMPAUENTITY@@W4FLOAT_TYPES@@@Z PROC ; get_local_float_value, COMDAT

; 224  : {

  00000	55		 push	 ebp
  00001	8b ec		 mov	 ebp, esp
  00003	83 ec 4c	 sub	 esp, 76			; 0000004cH
  00006	53		 push	 ebx
  00007	56		 push	 esi
  00008	57		 push	 edi

; 225  : 	keysite
; 226  : 		*raw;
; 227  : 
; 228  : 	float
; 229  : 		value;
; 230  : 
; 231  : 	raw = (keysite *) get_local_entity_data (en);

  00009	8b 45 08	 mov	 eax, DWORD PTR _en$[ebp]
  0000c	8b 48 04	 mov	 ecx, DWORD PTR [eax+4]
  0000f	89 4d fc	 mov	 DWORD PTR _raw$[ebp], ecx

; 232  : 
; 233  : 	switch (type)

  00012	8b 45 0c	 mov	 eax, DWORD PTR _type$[ebp]
  00015	89 45 b4	 mov	 DWORD PTR tv65[ebp], eax
  00018	8b 4d b4	 mov	 ecx, DWORD PTR tv65[ebp]
  0001b	83 e9 08	 sub	 ecx, 8
  0001e	89 4d b4	 mov	 DWORD PTR tv65[ebp], ecx
  00021	83 7d b4 6d	 cmp	 DWORD PTR tv65[ebp], 109 ; 0000006dH
  00025	0f 87 71 01 00
	00		 ja	 $LN20@get_local_
  0002b	8b 55 b4	 mov	 edx, DWORD PTR tv65[ebp]
  0002e	0f b6 82 00 00
	00 00		 movzx	 eax, BYTE PTR $LN24@get_local_[edx]
  00035	ff 24 85 00 00
	00 00		 jmp	 DWORD PTR $LN25@get_local_[eax*4]
$LN4@get_local_:

; 234  : 	{
; 235  : 		////////////////////////////////////////
; 236  : 		case FLOAT_TYPE_AMMO_SUPPLY_LEVEL:
; 237  : 		////////////////////////////////////////
; 238  : 		{
; 239  : 			value = raw->supplies.ammo_supply_level;

  0003c	8b 45 fc	 mov	 eax, DWORD PTR _raw$[ebp]
  0003f	f3 0f 10 80 94
	00 00 00	 movss	 xmm0, DWORD PTR [eax+148]
  00047	f3 0f 11 45 f8	 movss	 DWORD PTR _value$[ebp], xmm0

; 240  : 
; 241  : 			break;

  0004c	e9 c3 01 00 00	 jmp	 $LN2@get_local_
$LN5@get_local_:

; 242  : 		}
; 243  : 		////////////////////////////////////////
; 244  : 		case FLOAT_TYPE_ASSIGN_TIMER:
; 245  : 		////////////////////////////////////////
; 246  : 		{
; 247  : 			value = raw->assign_timer;

  00051	8b 45 fc	 mov	 eax, DWORD PTR _raw$[ebp]
  00054	f3 0f 10 80 84
	00 00 00	 movss	 xmm0, DWORD PTR [eax+132]
  0005c	f3 0f 11 45 f8	 movss	 DWORD PTR _value$[ebp], xmm0

; 248  : 
; 249  : 			break;

  00061	e9 ae 01 00 00	 jmp	 $LN2@get_local_
$LN6@get_local_:

; 250  : 		}
; 251  : 		////////////////////////////////////////
; 252  : 		case FLOAT_TYPE_ASSIST_TIMER:
; 253  : 		////////////////////////////////////////
; 254  : 		{
; 255  : 			value = raw->assist_timer;

  00066	8b 45 fc	 mov	 eax, DWORD PTR _raw$[ebp]
  00069	f3 0f 10 80 80
	00 00 00	 movss	 xmm0, DWORD PTR [eax+128]
  00071	f3 0f 11 45 f8	 movss	 DWORD PTR _value$[ebp], xmm0

; 256  : 
; 257  : 			break;

  00076	e9 99 01 00 00	 jmp	 $LN2@get_local_
$LN7@get_local_:

; 258  : 		}
; 259  : 		////////////////////////////////////////
; 260  : 		case FLOAT_TYPE_EFFICIENCY:
; 261  : 		////////////////////////////////////////
; 262  : 		{
; 263  : 			if (raw->keysite_maximum_strength > 0.0)

  0007b	8b 45 fc	 mov	 eax, DWORD PTR _raw$[ebp]
  0007e	f3 0f 5a 40 78	 cvtss2sd xmm0, DWORD PTR [eax+120]
  00083	66 0f 2f 05 00
	00 00 00	 comisd	 xmm0, QWORD PTR __real@0000000000000000
  0008b	76 40		 jbe	 SHORT $LN8@get_local_

; 264  : 			{
; 265  : 				ASSERT (raw->keysite_strength <= raw->keysite_maximum_strength);

  0008d	8b 45 fc	 mov	 eax, DWORD PTR _raw$[ebp]
  00090	8b 4d fc	 mov	 ecx, DWORD PTR _raw$[ebp]
  00093	f3 0f 10 40 78	 movss	 xmm0, DWORD PTR [eax+120]
  00098	0f 2f 41 74	 comiss	 xmm0, DWORD PTR [ecx+116]
  0009c	73 18		 jae	 SHORT $LN10@get_local_
  0009e	a1 00 00 00 00	 mov	 eax, DWORD PTR ?__LINE__Var@?0??get_local_float_value@@YGMPAUENTITY@@W4FLOAT_TYPES@@@Z@4JA
  000a3	83 c0 29	 add	 eax, 41			; 00000029H
  000a6	50		 push	 eax
  000a7	68 00 00 00 00	 push	 OFFSET ??_C@_0EO@JHMHMCNJ@c?3?2users?2nhv90?2projects?2eech?2ap@
  000ac	68 00 00 00 00	 push	 OFFSET ??_C@_0DH@OKLOGCCP@raw?9?$DOkeysite_strength?5?$DM?$DN?5raw?9?$DOk@
  000b1	e8 00 00 00 00	 call	 ?process_assert@@YGXPBD0H@Z ; process_assert
$LN10@get_local_:

; 266  : 
; 267  : 				value = raw->keysite_strength / raw->keysite_maximum_strength;

  000b6	8b 45 fc	 mov	 eax, DWORD PTR _raw$[ebp]
  000b9	8b 4d fc	 mov	 ecx, DWORD PTR _raw$[ebp]
  000bc	f3 0f 10 40 74	 movss	 xmm0, DWORD PTR [eax+116]
  000c1	f3 0f 5e 41 78	 divss	 xmm0, DWORD PTR [ecx+120]
  000c6	f3 0f 11 45 f8	 movss	 DWORD PTR _value$[ebp], xmm0

; 268  : 			}
; 269  : 			else

  000cb	eb 0d		 jmp	 SHORT $LN9@get_local_
$LN8@get_local_:

; 270  : 			{
; 271  : 				value = 1.0;

  000cd	f3 0f 10 05 00
	00 00 00	 movss	 xmm0, DWORD PTR __real@3f800000
  000d5	f3 0f 11 45 f8	 movss	 DWORD PTR _value$[ebp], xmm0
$LN9@get_local_:

; 272  : 			}
; 273  : 
; 274  : 			break;

  000da	e9 35 01 00 00	 jmp	 $LN2@get_local_
$LN11@get_local_:

; 275  : 		}
; 276  : 		////////////////////////////////////////
; 277  : 		case FLOAT_TYPE_FUEL_SUPPLY_LEVEL:
; 278  : 		////////////////////////////////////////
; 279  : 		{
; 280  : 			value = raw->supplies.fuel_supply_level;

  000df	8b 45 fc	 mov	 eax, DWORD PTR _raw$[ebp]
  000e2	f3 0f 10 80 98
	00 00 00	 movss	 xmm0, DWORD PTR [eax+152]
  000ea	f3 0f 11 45 f8	 movss	 DWORD PTR _value$[ebp], xmm0

; 281  : 
; 282  : 			break;

  000ef	e9 20 01 00 00	 jmp	 $LN2@get_local_
$LN12@get_local_:

; 283  : 		}
; 284  : 		////////////////////////////////////////
; 285  : 		case FLOAT_TYPE_MINIMUM_EFFICIENCY:
; 286  : 		////////////////////////////////////////
; 287  : 		{
; 288  : 			value = keysite_database [raw->sub_type].minimum_efficiency;

  000f4	8b 45 fc	 mov	 eax, DWORD PTR _raw$[ebp]
  000f7	6b 08 44	 imul	 ecx, DWORD PTR [eax], 68
  000fa	f3 0f 10 81 1c
	00 00 00	 movss	 xmm0, DWORD PTR ?keysite_database@@3PAUKEYSITE_DATA@@A[ecx+28]
  00102	f3 0f 11 45 f8	 movss	 DWORD PTR _value$[ebp], xmm0

; 289  : 
; 290  : 			break;

  00107	e9 08 01 00 00	 jmp	 $LN2@get_local_
$LN13@get_local_:

; 291  : 		}
; 292  : 		////////////////////////////////////////
; 293  : 		case FLOAT_TYPE_KEYSITE_IMPORTANCE:
; 294  : 		////////////////////////////////////////
; 295  : 		{
; 296  : 			value = keysite_database [raw->sub_type].importance;

  0010c	8b 45 fc	 mov	 eax, DWORD PTR _raw$[ebp]
  0010f	6b 08 44	 imul	 ecx, DWORD PTR [eax], 68
  00112	f3 0f 10 81 18
	00 00 00	 movss	 xmm0, DWORD PTR ?keysite_database@@3PAUKEYSITE_DATA@@A[ecx+24]
  0011a	f3 0f 11 45 f8	 movss	 DWORD PTR _value$[ebp], xmm0

; 297  : 
; 298  : 			break;

  0011f	e9 f0 00 00 00	 jmp	 $LN2@get_local_
$LN14@get_local_:

; 299  : 		}
; 300  : 		////////////////////////////////////////
; 301  : 		case FLOAT_TYPE_KEYSITE_MAXIMUM_STRENGTH:
; 302  : 		////////////////////////////////////////
; 303  : 		{
; 304  : 			value = raw->keysite_maximum_strength;

  00124	8b 45 fc	 mov	 eax, DWORD PTR _raw$[ebp]
  00127	f3 0f 10 40 78	 movss	 xmm0, DWORD PTR [eax+120]
  0012c	f3 0f 11 45 f8	 movss	 DWORD PTR _value$[ebp], xmm0

; 305  : 
; 306  : 			break;

  00131	e9 de 00 00 00	 jmp	 $LN2@get_local_
$LN15@get_local_:

; 307  : 		}
; 308  : 		////////////////////////////////////////
; 309  : 		case FLOAT_TYPE_KEYSITE_STRENGTH:
; 310  : 		////////////////////////////////////////
; 311  : 		{
; 312  : 			value = raw->keysite_strength;

  00136	8b 45 fc	 mov	 eax, DWORD PTR _raw$[ebp]
  00139	f3 0f 10 40 74	 movss	 xmm0, DWORD PTR [eax+116]
  0013e	f3 0f 11 45 f8	 movss	 DWORD PTR _value$[ebp], xmm0

; 313  : 
; 314  : 			break;

  00143	e9 cc 00 00 00	 jmp	 $LN2@get_local_
$LN16@get_local_:

; 315  : 		}
; 316  : 		////////////////////////////////////////
; 317  : 		case FLOAT_TYPE_RECON_DISTANCE:
; 318  : 		////////////////////////////////////////
; 319  : 		{
; 320  : 			value = keysite_database [raw->sub_type].recon_distance;

  00148	8b 45 fc	 mov	 eax, DWORD PTR _raw$[ebp]
  0014b	6b 08 44	 imul	 ecx, DWORD PTR [eax], 68
  0014e	f3 0f 10 81 28
	00 00 00	 movss	 xmm0, DWORD PTR ?keysite_database@@3PAUKEYSITE_DATA@@A[ecx+40]
  00156	f3 0f 11 45 f8	 movss	 DWORD PTR _value$[ebp], xmm0

; 321  : 
; 322  : 			break;

  0015b	e9 b4 00 00 00	 jmp	 $LN2@get_local_
$LN17@get_local_:

; 323  : 		}
; 324  : 		////////////////////////////////////////
; 325  : 		case FLOAT_TYPE_REPAIR_TIMER:
; 326  : 		////////////////////////////////////////
; 327  : 		{
; 328  : 			value = raw->repair_timer;

  00160	8b 45 fc	 mov	 eax, DWORD PTR _raw$[ebp]
  00163	f3 0f 10 40 7c	 movss	 xmm0, DWORD PTR [eax+124]
  00168	f3 0f 11 45 f8	 movss	 DWORD PTR _value$[ebp], xmm0

; 329  : 
; 330  : 			break;

  0016d	e9 a2 00 00 00	 jmp	 $LN2@get_local_
$LN18@get_local_:

; 331  : 		}
; 332  : 		////////////////////////////////////////
; 333  : 		case FLOAT_TYPE_SECTOR_SIDE_MAX_VALUE:
; 334  : 		////////////////////////////////////////
; 335  : 		{
; 336  : 			value = keysite_database [raw->sub_type].sector_side_max_value;

  00172	8b 45 fc	 mov	 eax, DWORD PTR _raw$[ebp]
  00175	6b 08 44	 imul	 ecx, DWORD PTR [eax], 68
  00178	f3 0f 10 81 2c
	00 00 00	 movss	 xmm0, DWORD PTR ?keysite_database@@3PAUKEYSITE_DATA@@A[ecx+44]
  00180	f3 0f 11 45 f8	 movss	 DWORD PTR _value$[ebp], xmm0

; 337  : 
; 338  : 			break;

  00185	e9 8a 00 00 00	 jmp	 $LN2@get_local_
$LN19@get_local_:

; 339  : 		}
; 340  : 		////////////////////////////////////////
; 341  : 		case FLOAT_TYPE_SLEEP:
; 342  : 		////////////////////////////////////////
; 343  : 		{
; 344  : 			value = raw->sleep;

  0018a	8b 45 fc	 mov	 eax, DWORD PTR _raw$[ebp]
  0018d	f3 0f 10 80 88
	00 00 00	 movss	 xmm0, DWORD PTR [eax+136]
  00195	f3 0f 11 45 f8	 movss	 DWORD PTR _value$[ebp], xmm0

; 345  : 
; 346  : 			break;

  0019a	eb 78		 jmp	 SHORT $LN2@get_local_
$LN20@get_local_:

; 347  : 		}
; 348  : 		////////////////////////////////////////
; 349  : 		default:
; 350  : 		////////////////////////////////////////
; 351  : 		{
; 352  : 			debug_fatal_invalid_float_type (en, type);

  0019c	83 7d 08 00	 cmp	 DWORD PTR _en$[ebp], 0
  001a0	74 0a		 je	 SHORT $LN22@get_local_
  001a2	8b 45 08	 mov	 eax, DWORD PTR _en$[ebp]
  001a5	8b 08		 mov	 ecx, DWORD PTR [eax]
  001a7	89 4d b4	 mov	 DWORD PTR tv153[ebp], ecx
  001aa	eb 24		 jmp	 SHORT $LN23@get_local_
$LN22@get_local_:
  001ac	8b 15 00 00 00
	00		 mov	 edx, DWORD PTR ?__LINE__Var@?0??get_local_float_value@@YGMPAUENTITY@@W4FLOAT_TYPES@@@Z@4JA
  001b2	81 c2 80 00 00
	00		 add	 edx, 128		; 00000080H
  001b8	52		 push	 edx
  001b9	68 00 00 00 00	 push	 OFFSET ??_C@_0EO@JHMHMCNJ@c?3?2users?2nhv90?2projects?2eech?2ap@
  001be	a1 00 00 00 00	 mov	 eax, DWORD PTR ?null_entity_pointer_message@@3PBDB ; null_entity_pointer_message
  001c3	50		 push	 eax
  001c4	e8 00 00 00 00	 call	 ?process_assert@@YGXPBD0H@Z ; process_assert
  001c9	c7 45 b4 00 00
	00 00		 mov	 DWORD PTR tv153[ebp], 0
$LN23@get_local_:
  001d0	8b 0d 00 00 00
	00		 mov	 ecx, DWORD PTR ?__LINE__Var@?0??get_local_float_value@@YGMPAUENTITY@@W4FLOAT_TYPES@@@Z@4JA
  001d6	81 c1 80 00 00
	00		 add	 ecx, 128		; 00000080H
  001dc	51		 push	 ecx
  001dd	68 00 00 00 00	 push	 OFFSET ??_C@_0EO@JHMHMCNJ@c?3?2users?2nhv90?2projects?2eech?2ap@
  001e2	6b 55 0c 18	 imul	 edx, DWORD PTR _type$[ebp], 24
  001e6	8b 82 00 00 00
	00		 mov	 eax, DWORD PTR ?float_type_database@@3PAUFLOAT_TYPE_DATA@@A[edx]
  001ec	50		 push	 eax
  001ed	8b 4d 08	 mov	 ecx, DWORD PTR _en$[ebp]
  001f0	2b 0d 00 00 00
	00		 sub	 ecx, DWORD PTR ?entities@@3PAUENTITY@@A ; entities
  001f6	c1 f9 04	 sar	 ecx, 4
  001f9	51		 push	 ecx
  001fa	6b 55 b4 0c	 imul	 edx, DWORD PTR tv153[ebp], 12
  001fe	8b 82 00 00 00
	00		 mov	 eax, DWORD PTR ?entity_type_database@@3PAUENTITY_TYPE_DATA@@A[edx]
  00204	50		 push	 eax
  00205	8b 0d 00 00 00
	00		 mov	 ecx, DWORD PTR ?debug_fatal_invalid_float_type_message@@3PBDB ; debug_fatal_invalid_float_type_message
  0020b	51		 push	 ecx
  0020c	e8 00 00 00 00	 call	 ?debug_fatal@@YAXPBDZZ	; debug_fatal
  00211	83 c4 18	 add	 esp, 24			; 00000018H
$LN2@get_local_:

; 353  : 
; 354  : 			break;
; 355  : 		}
; 356  : 	}
; 357  : 
; 358  : 	return (value);

  00214	d9 45 f8	 fld	 DWORD PTR _value$[ebp]

; 359  : }

  00217	5f		 pop	 edi
  00218	5e		 pop	 esi
  00219	5b		 pop	 ebx
  0021a	8b e5		 mov	 esp, ebp
  0021c	5d		 pop	 ebp
  0021d	c2 08 00	 ret	 8
$LN25@get_local_:
  00220	00 00 00 00	 DD	 $LN4@get_local_
  00224	00 00 00 00	 DD	 $LN5@get_local_
  00228	00 00 00 00	 DD	 $LN6@get_local_
  0022c	00 00 00 00	 DD	 $LN7@get_local_
  00230	00 00 00 00	 DD	 $LN11@get_local_
  00234	00 00 00 00	 DD	 $LN13@get_local_
  00238	00 00 00 00	 DD	 $LN14@get_local_
  0023c	00 00 00 00	 DD	 $LN15@get_local_
  00240	00 00 00 00	 DD	 $LN12@get_local_
  00244	00 00 00 00	 DD	 $LN16@get_local_
  00248	00 00 00 00	 DD	 $LN17@get_local_
  0024c	00 00 00 00	 DD	 $LN18@get_local_
  00250	00 00 00 00	 DD	 $LN19@get_local_
  00254	00 00 00 00	 DD	 $LN20@get_local_
$LN24@get_local_:
  00258	00		 DB	 0
  00259	0d		 DB	 13			; 0000000dH
  0025a	0d		 DB	 13			; 0000000dH
  0025b	0d		 DB	 13			; 0000000dH
  0025c	01		 DB	 1
  0025d	02		 DB	 2
  0025e	0d		 DB	 13			; 0000000dH
  0025f	0d		 DB	 13			; 0000000dH
  00260	0d		 DB	 13			; 0000000dH
  00261	0d		 DB	 13			; 0000000dH
  00262	0d		 DB	 13			; 0000000dH
  00263	0d		 DB	 13			; 0000000dH
  00264	0d		 DB	 13			; 0000000dH
  00265	0d		 DB	 13			; 0000000dH
  00266	0d		 DB	 13			; 0000000dH
  00267	0d		 DB	 13			; 0000000dH
  00268	0d		 DB	 13			; 0000000dH
  00269	0d		 DB	 13			; 0000000dH
  0026a	0d		 DB	 13			; 0000000dH
  0026b	0d		 DB	 13			; 0000000dH
  0026c	0d		 DB	 13			; 0000000dH
  0026d	0d		 DB	 13			; 0000000dH
  0026e	0d		 DB	 13			; 0000000dH
  0026f	0d		 DB	 13			; 0000000dH
  00270	0d		 DB	 13			; 0000000dH
  00271	03		 DB	 3
  00272	0d		 DB	 13			; 0000000dH
  00273	0d		 DB	 13			; 0000000dH
  00274	0d		 DB	 13			; 0000000dH
  00275	0d		 DB	 13			; 0000000dH
  00276	0d		 DB	 13			; 0000000dH
  00277	0d		 DB	 13			; 0000000dH
  00278	0d		 DB	 13			; 0000000dH
  00279	0d		 DB	 13			; 0000000dH
  0027a	0d		 DB	 13			; 0000000dH
  0027b	0d		 DB	 13			; 0000000dH
  0027c	0d		 DB	 13			; 0000000dH
  0027d	0d		 DB	 13			; 0000000dH
  0027e	0d		 DB	 13			; 0000000dH
  0027f	0d		 DB	 13			; 0000000dH
  00280	04		 DB	 4
  00281	0d		 DB	 13			; 0000000dH
  00282	0d		 DB	 13			; 0000000dH
  00283	0d		 DB	 13			; 0000000dH
  00284	0d		 DB	 13			; 0000000dH
  00285	0d		 DB	 13			; 0000000dH
  00286	0d		 DB	 13			; 0000000dH
  00287	0d		 DB	 13			; 0000000dH
  00288	05		 DB	 5
  00289	06		 DB	 6
  0028a	07		 DB	 7
  0028b	0d		 DB	 13			; 0000000dH
  0028c	0d		 DB	 13			; 0000000dH
  0028d	0d		 DB	 13			; 0000000dH
  0028e	0d		 DB	 13			; 0000000dH
  0028f	0d		 DB	 13			; 0000000dH
  00290	0d		 DB	 13			; 0000000dH
  00291	0d		 DB	 13			; 0000000dH
  00292	0d		 DB	 13			; 0000000dH
  00293	0d		 DB	 13			; 0000000dH
  00294	0d		 DB	 13			; 0000000dH
  00295	0d		 DB	 13			; 0000000dH
  00296	0d		 DB	 13			; 0000000dH
  00297	0d		 DB	 13			; 0000000dH
  00298	0d		 DB	 13			; 0000000dH
  00299	0d		 DB	 13			; 0000000dH
  0029a	0d		 DB	 13			; 0000000dH
  0029b	0d		 DB	 13			; 0000000dH
  0029c	0d		 DB	 13			; 0000000dH
  0029d	0d		 DB	 13			; 0000000dH
  0029e	0d		 DB	 13			; 0000000dH
  0029f	0d		 DB	 13			; 0000000dH
  002a0	0d		 DB	 13			; 0000000dH
  002a1	08		 DB	 8
  002a2	0d		 DB	 13			; 0000000dH
  002a3	0d		 DB	 13			; 0000000dH
  002a4	0d		 DB	 13			; 0000000dH
  002a5	0d		 DB	 13			; 0000000dH
  002a6	0d		 DB	 13			; 0000000dH
  002a7	0d		 DB	 13			; 0000000dH
  002a8	0d		 DB	 13			; 0000000dH
  002a9	0d		 DB	 13			; 0000000dH
  002aa	0d		 DB	 13			; 0000000dH
  002ab	0d		 DB	 13			; 0000000dH
  002ac	0d		 DB	 13			; 0000000dH
  002ad	0d		 DB	 13			; 0000000dH
  002ae	0d		 DB	 13			; 0000000dH
  002af	0d		 DB	 13			; 0000000dH
  002b0	0d		 DB	 13			; 0000000dH
  002b1	0d		 DB	 13			; 0000000dH
  002b2	0d		 DB	 13			; 0000000dH
  002b3	0d		 DB	 13			; 0000000dH
  002b4	0d		 DB	 13			; 0000000dH
  002b5	0d		 DB	 13			; 0000000dH
  002b6	0d		 DB	 13			; 0000000dH
  002b7	0d		 DB	 13			; 0000000dH
  002b8	0d		 DB	 13			; 0000000dH
  002b9	0d		 DB	 13			; 0000000dH
  002ba	0d		 DB	 13			; 0000000dH
  002bb	0d		 DB	 13			; 0000000dH
  002bc	0d		 DB	 13			; 0000000dH
  002bd	0d		 DB	 13			; 0000000dH
  002be	09		 DB	 9
  002bf	0d		 DB	 13			; 0000000dH
  002c0	0a		 DB	 10			; 0000000aH
  002c1	0d		 DB	 13			; 0000000dH
  002c2	0d		 DB	 13			; 0000000dH
  002c3	0d		 DB	 13			; 0000000dH
  002c4	0b		 DB	 11			; 0000000bH
  002c5	0c		 DB	 12			; 0000000cH
?get_local_float_value@@YGMPAUENTITY@@W4FLOAT_TYPES@@@Z ENDP ; get_local_float_value
_TEXT	ENDS
; Function compile flags: /Odtp /ZI
; File c:\users\nhv90\projects\eech\aphavoc\source\entity\special\keysite\ks_float.c
;	COMDAT ?set_client_float_value@@YGXPAUENTITY@@W4FLOAT_TYPES@@M@Z
_TEXT	SEGMENT
_en$ = 8						; size = 4
_type$ = 12						; size = 4
_value$ = 16						; size = 4
?set_client_float_value@@YGXPAUENTITY@@W4FLOAT_TYPES@@M@Z PROC ; set_client_float_value, COMDAT

; 204  : {

  00000	55		 push	 ebp
  00001	8b ec		 mov	 ebp, esp
  00003	83 ec 40	 sub	 esp, 64			; 00000040H
  00006	53		 push	 ebx
  00007	56		 push	 esi
  00008	57		 push	 edi

; 205  : 	if (get_comms_data_flow () == COMMS_DATA_FLOW_TX)

  00009	83 3d 00 00 00
	00 00		 cmp	 DWORD PTR ?system_comms_data_flow@@3W4COMMS_DATA_FLOW_TYPES@@A, 0 ; system_comms_data_flow
  00010	75 3b		 jne	 SHORT $LN2@set_client

; 206  : 	{
; 207  : 		validate_client_server_remote_fn ();

  00012	e8 00 00 00 00	 call	 ?assert_client_server_remote_fn@@YGHXZ ; assert_client_server_remote_fn
  00017	85 c0		 test	 eax, eax
  00019	75 18		 jne	 SHORT $LN4@set_client
  0001b	a1 00 00 00 00	 mov	 eax, DWORD PTR ?__LINE__Var@?0??set_client_float_value@@YGXPAUENTITY@@W4FLOAT_TYPES@@M@Z@4JA
  00020	83 c0 03	 add	 eax, 3
  00023	50		 push	 eax
  00024	68 00 00 00 00	 push	 OFFSET ??_C@_0EO@JHMHMCNJ@c?3?2users?2nhv90?2projects?2eech?2ap@
  00029	68 00 00 00 00	 push	 OFFSET ??_C@_0CC@BNNNEGEG@assert_client_server_remote_fn?5@
  0002e	e8 00 00 00 00	 call	 ?process_assert@@YGXPBD0H@Z ; process_assert
$LN4@set_client:

; 208  : 
; 209  : 		set_remote_float_value (en, type, value);

  00033	51		 push	 ecx
  00034	f3 0f 10 45 10	 movss	 xmm0, DWORD PTR _value$[ebp]
  00039	f3 0f 11 04 24	 movss	 DWORD PTR [esp], xmm0
  0003e	8b 45 0c	 mov	 eax, DWORD PTR _type$[ebp]
  00041	50		 push	 eax
  00042	8b 4d 08	 mov	 ecx, DWORD PTR _en$[ebp]
  00045	51		 push	 ecx
  00046	e8 00 00 00 00	 call	 ?set_remote_float_value@@YGXPAUENTITY@@W4FLOAT_TYPES@@M@Z ; set_remote_float_value

; 210  : 	}
; 211  : 	else

  0004b	eb 39		 jmp	 SHORT $LN3@set_client
$LN2@set_client:

; 212  : 	{
; 213  : 		validate_client_server_local_fn ();

  0004d	e8 00 00 00 00	 call	 ?assert_client_server_local_fn@@YGHXZ ; assert_client_server_local_fn
  00052	85 c0		 test	 eax, eax
  00054	75 18		 jne	 SHORT $LN5@set_client
  00056	a1 00 00 00 00	 mov	 eax, DWORD PTR ?__LINE__Var@?0??set_client_float_value@@YGXPAUENTITY@@W4FLOAT_TYPES@@M@Z@4JA
  0005b	83 c0 09	 add	 eax, 9
  0005e	50		 push	 eax
  0005f	68 00 00 00 00	 push	 OFFSET ??_C@_0EO@JHMHMCNJ@c?3?2users?2nhv90?2projects?2eech?2ap@
  00064	68 00 00 00 00	 push	 OFFSET ??_C@_0CB@CFOCLFOK@assert_client_server_local_fn?5?$CI@
  00069	e8 00 00 00 00	 call	 ?process_assert@@YGXPBD0H@Z ; process_assert
$LN5@set_client:

; 214  : 
; 215  : 		set_local_float_value (en, type, value);

  0006e	51		 push	 ecx
  0006f	f3 0f 10 45 10	 movss	 xmm0, DWORD PTR _value$[ebp]
  00074	f3 0f 11 04 24	 movss	 DWORD PTR [esp], xmm0
  00079	8b 45 0c	 mov	 eax, DWORD PTR _type$[ebp]
  0007c	50		 push	 eax
  0007d	8b 4d 08	 mov	 ecx, DWORD PTR _en$[ebp]
  00080	51		 push	 ecx
  00081	e8 00 00 00 00	 call	 ?set_local_float_value@@YGXPAUENTITY@@W4FLOAT_TYPES@@M@Z ; set_local_float_value
$LN3@set_client:

; 216  : 	}
; 217  : }

  00086	5f		 pop	 edi
  00087	5e		 pop	 esi
  00088	5b		 pop	 ebx
  00089	8b e5		 mov	 esp, ebp
  0008b	5d		 pop	 ebp
  0008c	c2 0c 00	 ret	 12			; 0000000cH
?set_client_float_value@@YGXPAUENTITY@@W4FLOAT_TYPES@@M@Z ENDP ; set_client_float_value
_TEXT	ENDS
; Function compile flags: /Odtp /ZI
; File c:\users\nhv90\projects\eech\aphavoc\source\entity\special\keysite\ks_float.c
;	COMDAT ?set_server_float_value@@YGXPAUENTITY@@W4FLOAT_TYPES@@M@Z
_TEXT	SEGMENT
_en$ = 8						; size = 4
_type$ = 12						; size = 4
_value$ = 16						; size = 4
?set_server_float_value@@YGXPAUENTITY@@W4FLOAT_TYPES@@M@Z PROC ; set_server_float_value, COMDAT

; 189  : {

  00000	55		 push	 ebp
  00001	8b ec		 mov	 ebp, esp
  00003	83 ec 40	 sub	 esp, 64			; 00000040H
  00006	53		 push	 ebx
  00007	56		 push	 esi
  00008	57		 push	 edi

; 190  : 	validate_client_server_local_fn ();

  00009	e8 00 00 00 00	 call	 ?assert_client_server_local_fn@@YGHXZ ; assert_client_server_local_fn
  0000e	85 c0		 test	 eax, eax
  00010	75 18		 jne	 SHORT $LN2@set_server
  00012	a1 00 00 00 00	 mov	 eax, DWORD PTR ?__LINE__Var@?0??set_server_float_value@@YGXPAUENTITY@@W4FLOAT_TYPES@@M@Z@4JA
  00017	83 c0 01	 add	 eax, 1
  0001a	50		 push	 eax
  0001b	68 00 00 00 00	 push	 OFFSET ??_C@_0EO@JHMHMCNJ@c?3?2users?2nhv90?2projects?2eech?2ap@
  00020	68 00 00 00 00	 push	 OFFSET ??_C@_0CB@CFOCLFOK@assert_client_server_local_fn?5?$CI@
  00025	e8 00 00 00 00	 call	 ?process_assert@@YGXPBD0H@Z ; process_assert
$LN2@set_server:

; 191  : 
; 192  : 	set_local_float_value (en, type, value);

  0002a	51		 push	 ecx
  0002b	f3 0f 10 45 10	 movss	 xmm0, DWORD PTR _value$[ebp]
  00030	f3 0f 11 04 24	 movss	 DWORD PTR [esp], xmm0
  00035	8b 45 0c	 mov	 eax, DWORD PTR _type$[ebp]
  00038	50		 push	 eax
  00039	8b 4d 08	 mov	 ecx, DWORD PTR _en$[ebp]
  0003c	51		 push	 ecx
  0003d	e8 00 00 00 00	 call	 ?set_local_float_value@@YGXPAUENTITY@@W4FLOAT_TYPES@@M@Z ; set_local_float_value

; 193  : 
; 194  : 	validate_client_server_remote_fn ();

  00042	e8 00 00 00 00	 call	 ?assert_client_server_remote_fn@@YGHXZ ; assert_client_server_remote_fn
  00047	85 c0		 test	 eax, eax
  00049	75 18		 jne	 SHORT $LN3@set_server
  0004b	a1 00 00 00 00	 mov	 eax, DWORD PTR ?__LINE__Var@?0??set_server_float_value@@YGXPAUENTITY@@W4FLOAT_TYPES@@M@Z@4JA
  00050	83 c0 05	 add	 eax, 5
  00053	50		 push	 eax
  00054	68 00 00 00 00	 push	 OFFSET ??_C@_0EO@JHMHMCNJ@c?3?2users?2nhv90?2projects?2eech?2ap@
  00059	68 00 00 00 00	 push	 OFFSET ??_C@_0CC@BNNNEGEG@assert_client_server_remote_fn?5@
  0005e	e8 00 00 00 00	 call	 ?process_assert@@YGXPBD0H@Z ; process_assert
$LN3@set_server:

; 195  : 
; 196  : 	set_remote_float_value (en, type, value);

  00063	51		 push	 ecx
  00064	f3 0f 10 45 10	 movss	 xmm0, DWORD PTR _value$[ebp]
  00069	f3 0f 11 04 24	 movss	 DWORD PTR [esp], xmm0
  0006e	8b 45 0c	 mov	 eax, DWORD PTR _type$[ebp]
  00071	50		 push	 eax
  00072	8b 4d 08	 mov	 ecx, DWORD PTR _en$[ebp]
  00075	51		 push	 ecx
  00076	e8 00 00 00 00	 call	 ?set_remote_float_value@@YGXPAUENTITY@@W4FLOAT_TYPES@@M@Z ; set_remote_float_value

; 197  : }

  0007b	5f		 pop	 edi
  0007c	5e		 pop	 esi
  0007d	5b		 pop	 ebx
  0007e	8b e5		 mov	 esp, ebp
  00080	5d		 pop	 ebp
  00081	c2 0c 00	 ret	 12			; 0000000cH
?set_server_float_value@@YGXPAUENTITY@@W4FLOAT_TYPES@@M@Z ENDP ; set_server_float_value
_TEXT	ENDS
; Function compile flags: /Odtp /ZI
; File c:\users\nhv90\projects\eech\aphavoc\source\entity\special\keysite\ks_float.c
;	COMDAT ?set_remote_float_value@@YGXPAUENTITY@@W4FLOAT_TYPES@@M@Z
_TEXT	SEGMENT
_en$ = 8						; size = 4
_type$ = 12						; size = 4
_value$ = 16						; size = 4
?set_remote_float_value@@YGXPAUENTITY@@W4FLOAT_TYPES@@M@Z PROC ; set_remote_float_value, COMDAT

; 174  : {

  00000	55		 push	 ebp
  00001	8b ec		 mov	 ebp, esp
  00003	83 ec 40	 sub	 esp, 64			; 00000040H
  00006	53		 push	 ebx
  00007	56		 push	 esi
  00008	57		 push	 edi

; 175  : 	#if DEBUG_MODULE
; 176  : 
; 177  : 	debug_log_entity_args (ENTITY_DEBUG_REMOTE, ENTITY_DEBUG_FLOAT_VALUE, en, type, value);
; 178  : 
; 179  : 	#endif
; 180  : 
; 181  : 	transmit_entity_comms_message (ENTITY_COMMS_FLOAT_VALUE, en, type, value);

  00009	f3 0f 5a 45 10	 cvtss2sd xmm0, DWORD PTR _value$[ebp]
  0000e	83 ec 08	 sub	 esp, 8
  00011	f2 0f 11 04 24	 movsd	 QWORD PTR [esp], xmm0
  00016	8b 45 0c	 mov	 eax, DWORD PTR _type$[ebp]
  00019	50		 push	 eax
  0001a	8b 4d 08	 mov	 ecx, DWORD PTR _en$[ebp]
  0001d	51		 push	 ecx
  0001e	6a 16		 push	 22			; 00000016H
  00020	e8 00 00 00 00	 call	 ?transmit_entity_comms_message@@YAXW4ENTITY_COMMS_MESSAGES@@PAUENTITY@@ZZ ; transmit_entity_comms_message
  00025	83 c4 14	 add	 esp, 20			; 00000014H

; 182  : }

  00028	5f		 pop	 edi
  00029	5e		 pop	 esi
  0002a	5b		 pop	 ebx
  0002b	8b e5		 mov	 esp, ebp
  0002d	5d		 pop	 ebp
  0002e	c2 0c 00	 ret	 12			; 0000000cH
?set_remote_float_value@@YGXPAUENTITY@@W4FLOAT_TYPES@@M@Z ENDP ; set_remote_float_value
_TEXT	ENDS
; Function compile flags: /Odtp /ZI
; File c:\users\nhv90\projects\eech\aphavoc\source\entity\special\keysite\ks_float.c
;	COMDAT ?set_local_float_value@@YGXPAUENTITY@@W4FLOAT_TYPES@@M@Z
_TEXT	SEGMENT
tv92 = -72						; size = 4
tv65 = -72						; size = 4
_raw$ = -4						; size = 4
_en$ = 8						; size = 4
_type$ = 12						; size = 4
_value$ = 16						; size = 4
?set_local_float_value@@YGXPAUENTITY@@W4FLOAT_TYPES@@M@Z PROC ; set_local_float_value, COMDAT

; 80   : {

  00000	55		 push	 ebp
  00001	8b ec		 mov	 ebp, esp
  00003	83 ec 48	 sub	 esp, 72			; 00000048H
  00006	53		 push	 ebx
  00007	56		 push	 esi
  00008	57		 push	 edi

; 81   : 	keysite
; 82   : 		*raw;
; 83   : 
; 84   : 	#if DEBUG_MODULE
; 85   : 
; 86   : 	debug_log_entity_args (ENTITY_DEBUG_LOCAL, ENTITY_DEBUG_FLOAT_VALUE, en, type, value);
; 87   : 
; 88   : 	#endif
; 89   : 
; 90   : 	raw = (keysite *) get_local_entity_data (en);

  00009	8b 45 08	 mov	 eax, DWORD PTR _en$[ebp]
  0000c	8b 48 04	 mov	 ecx, DWORD PTR [eax+4]
  0000f	89 4d fc	 mov	 DWORD PTR _raw$[ebp], ecx

; 91   : 
; 92   : 	switch (type)

  00012	8b 45 0c	 mov	 eax, DWORD PTR _type$[ebp]
  00015	89 45 b8	 mov	 DWORD PTR tv65[ebp], eax
  00018	8b 4d b8	 mov	 ecx, DWORD PTR tv65[ebp]
  0001b	83 e9 08	 sub	 ecx, 8
  0001e	89 4d b8	 mov	 DWORD PTR tv65[ebp], ecx
  00021	83 7d b8 6d	 cmp	 DWORD PTR tv65[ebp], 109 ; 0000006dH
  00025	0f 87 ad 00 00
	00		 ja	 $LN12@set_local_
  0002b	8b 55 b8	 mov	 edx, DWORD PTR tv65[ebp]
  0002e	0f b6 82 00 00
	00 00		 movzx	 eax, BYTE PTR $LN16@set_local_[edx]
  00035	ff 24 85 00 00
	00 00		 jmp	 DWORD PTR $LN17@set_local_[eax*4]
$LN4@set_local_:

; 93   : 	{
; 94   : 		////////////////////////////////////////
; 95   : 		case FLOAT_TYPE_AMMO_SUPPLY_LEVEL:
; 96   : 		////////////////////////////////////////
; 97   : 		{
; 98   : 			raw->supplies.ammo_supply_level = value;

  0003c	8b 45 fc	 mov	 eax, DWORD PTR _raw$[ebp]
  0003f	f3 0f 10 45 10	 movss	 xmm0, DWORD PTR _value$[ebp]
  00044	f3 0f 11 80 94
	00 00 00	 movss	 DWORD PTR [eax+148], xmm0

; 99   : 
; 100  : 			break;

  0004c	e9 f9 00 00 00	 jmp	 $LN2@set_local_
$LN5@set_local_:

; 101  : 		}
; 102  : 		////////////////////////////////////////
; 103  : 		case FLOAT_TYPE_ASSIGN_TIMER:
; 104  : 		////////////////////////////////////////
; 105  : 		{
; 106  : 			raw->assign_timer = value;

  00051	8b 45 fc	 mov	 eax, DWORD PTR _raw$[ebp]
  00054	f3 0f 10 45 10	 movss	 xmm0, DWORD PTR _value$[ebp]
  00059	f3 0f 11 80 84
	00 00 00	 movss	 DWORD PTR [eax+132], xmm0

; 107  : 
; 108  : 			break;

  00061	e9 e4 00 00 00	 jmp	 $LN2@set_local_
$LN6@set_local_:

; 109  : 		}
; 110  : 		////////////////////////////////////////
; 111  : 		case FLOAT_TYPE_ASSIST_TIMER:
; 112  : 		////////////////////////////////////////
; 113  : 		{
; 114  : 			raw->assist_timer = value;

  00066	8b 45 fc	 mov	 eax, DWORD PTR _raw$[ebp]
  00069	f3 0f 10 45 10	 movss	 xmm0, DWORD PTR _value$[ebp]
  0006e	f3 0f 11 80 80
	00 00 00	 movss	 DWORD PTR [eax+128], xmm0

; 115  : 
; 116  : 			break;

  00076	e9 cf 00 00 00	 jmp	 $LN2@set_local_
$LN7@set_local_:

; 117  : 		}
; 118  : 		////////////////////////////////////////
; 119  : 		case FLOAT_TYPE_FUEL_SUPPLY_LEVEL:
; 120  : 		////////////////////////////////////////
; 121  : 		{
; 122  : 			raw->supplies.fuel_supply_level = value;

  0007b	8b 45 fc	 mov	 eax, DWORD PTR _raw$[ebp]
  0007e	f3 0f 10 45 10	 movss	 xmm0, DWORD PTR _value$[ebp]
  00083	f3 0f 11 80 98
	00 00 00	 movss	 DWORD PTR [eax+152], xmm0

; 123  : 
; 124  : 			break;

  0008b	e9 ba 00 00 00	 jmp	 $LN2@set_local_
$LN8@set_local_:

; 125  : 		}
; 126  : 		////////////////////////////////////////
; 127  : 		case FLOAT_TYPE_KEYSITE_MAXIMUM_STRENGTH:
; 128  : 		////////////////////////////////////////
; 129  : 		{
; 130  : 			raw->keysite_maximum_strength = value;

  00090	8b 45 fc	 mov	 eax, DWORD PTR _raw$[ebp]
  00093	f3 0f 10 45 10	 movss	 xmm0, DWORD PTR _value$[ebp]
  00098	f3 0f 11 40 78	 movss	 DWORD PTR [eax+120], xmm0

; 131  : 
; 132  : 			break;

  0009d	e9 a8 00 00 00	 jmp	 $LN2@set_local_
$LN9@set_local_:

; 133  : 		}
; 134  : 		////////////////////////////////////////
; 135  : 		case FLOAT_TYPE_KEYSITE_STRENGTH:
; 136  : 		////////////////////////////////////////
; 137  : 		{
; 138  : 			raw->keysite_strength = value;

  000a2	8b 45 fc	 mov	 eax, DWORD PTR _raw$[ebp]
  000a5	f3 0f 10 45 10	 movss	 xmm0, DWORD PTR _value$[ebp]
  000aa	f3 0f 11 40 74	 movss	 DWORD PTR [eax+116], xmm0

; 139  : 
; 140  : 			break;

  000af	e9 96 00 00 00	 jmp	 $LN2@set_local_
$LN10@set_local_:

; 141  : 		}
; 142  : 		////////////////////////////////////////
; 143  : 		case FLOAT_TYPE_REPAIR_TIMER:
; 144  : 		////////////////////////////////////////
; 145  : 		{
; 146  : 			raw->repair_timer = value;

  000b4	8b 45 fc	 mov	 eax, DWORD PTR _raw$[ebp]
  000b7	f3 0f 10 45 10	 movss	 xmm0, DWORD PTR _value$[ebp]
  000bc	f3 0f 11 40 7c	 movss	 DWORD PTR [eax+124], xmm0

; 147  : 
; 148  : 			break;

  000c1	e9 84 00 00 00	 jmp	 $LN2@set_local_
$LN11@set_local_:

; 149  : 		}
; 150  : 		////////////////////////////////////////
; 151  : 		case FLOAT_TYPE_SLEEP:
; 152  : 		////////////////////////////////////////
; 153  : 		{
; 154  : 			raw->sleep = value;

  000c6	8b 45 fc	 mov	 eax, DWORD PTR _raw$[ebp]
  000c9	f3 0f 10 45 10	 movss	 xmm0, DWORD PTR _value$[ebp]
  000ce	f3 0f 11 80 88
	00 00 00	 movss	 DWORD PTR [eax+136], xmm0

; 155  : 
; 156  : 			break;

  000d6	eb 72		 jmp	 SHORT $LN2@set_local_
$LN12@set_local_:

; 157  : 		}
; 158  : 		////////////////////////////////////////
; 159  : 		default:
; 160  : 		////////////////////////////////////////
; 161  : 		{
; 162  : 			debug_fatal_invalid_float_type (en, type);

  000d8	83 7d 08 00	 cmp	 DWORD PTR _en$[ebp], 0
  000dc	74 0a		 je	 SHORT $LN14@set_local_
  000de	8b 45 08	 mov	 eax, DWORD PTR _en$[ebp]
  000e1	8b 08		 mov	 ecx, DWORD PTR [eax]
  000e3	89 4d b8	 mov	 DWORD PTR tv92[ebp], ecx
  000e6	eb 21		 jmp	 SHORT $LN15@set_local_
$LN14@set_local_:
  000e8	8b 15 00 00 00
	00		 mov	 edx, DWORD PTR ?__LINE__Var@?0??set_local_float_value@@YGXPAUENTITY@@W4FLOAT_TYPES@@M@Z@4JA
  000ee	83 c2 52	 add	 edx, 82			; 00000052H
  000f1	52		 push	 edx
  000f2	68 00 00 00 00	 push	 OFFSET ??_C@_0EO@JHMHMCNJ@c?3?2users?2nhv90?2projects?2eech?2ap@
  000f7	a1 00 00 00 00	 mov	 eax, DWORD PTR ?null_entity_pointer_message@@3PBDB ; null_entity_pointer_message
  000fc	50		 push	 eax
  000fd	e8 00 00 00 00	 call	 ?process_assert@@YGXPBD0H@Z ; process_assert
  00102	c7 45 b8 00 00
	00 00		 mov	 DWORD PTR tv92[ebp], 0
$LN15@set_local_:
  00109	8b 0d 00 00 00
	00		 mov	 ecx, DWORD PTR ?__LINE__Var@?0??set_local_float_value@@YGXPAUENTITY@@W4FLOAT_TYPES@@M@Z@4JA
  0010f	83 c1 52	 add	 ecx, 82			; 00000052H
  00112	51		 push	 ecx
  00113	68 00 00 00 00	 push	 OFFSET ??_C@_0EO@JHMHMCNJ@c?3?2users?2nhv90?2projects?2eech?2ap@
  00118	6b 55 0c 18	 imul	 edx, DWORD PTR _type$[ebp], 24
  0011c	8b 82 00 00 00
	00		 mov	 eax, DWORD PTR ?float_type_database@@3PAUFLOAT_TYPE_DATA@@A[edx]
  00122	50		 push	 eax
  00123	8b 4d 08	 mov	 ecx, DWORD PTR _en$[ebp]
  00126	2b 0d 00 00 00
	00		 sub	 ecx, DWORD PTR ?entities@@3PAUENTITY@@A ; entities
  0012c	c1 f9 04	 sar	 ecx, 4
  0012f	51		 push	 ecx
  00130	6b 55 b8 0c	 imul	 edx, DWORD PTR tv92[ebp], 12
  00134	8b 82 00 00 00
	00		 mov	 eax, DWORD PTR ?entity_type_database@@3PAUENTITY_TYPE_DATA@@A[edx]
  0013a	50		 push	 eax
  0013b	8b 0d 00 00 00
	00		 mov	 ecx, DWORD PTR ?debug_fatal_invalid_float_type_message@@3PBDB ; debug_fatal_invalid_float_type_message
  00141	51		 push	 ecx
  00142	e8 00 00 00 00	 call	 ?debug_fatal@@YAXPBDZZ	; debug_fatal
  00147	83 c4 18	 add	 esp, 24			; 00000018H
$LN2@set_local_:

; 163  : 
; 164  : 			break;
; 165  : 		}
; 166  : 	}
; 167  : }

  0014a	5f		 pop	 edi
  0014b	5e		 pop	 esi
  0014c	5b		 pop	 ebx
  0014d	8b e5		 mov	 esp, ebp
  0014f	5d		 pop	 ebp
  00150	c2 0c 00	 ret	 12			; 0000000cH
  00153	90		 npad	 1
$LN17@set_local_:
  00154	00 00 00 00	 DD	 $LN4@set_local_
  00158	00 00 00 00	 DD	 $LN5@set_local_
  0015c	00 00 00 00	 DD	 $LN6@set_local_
  00160	00 00 00 00	 DD	 $LN7@set_local_
  00164	00 00 00 00	 DD	 $LN8@set_local_
  00168	00 00 00 00	 DD	 $LN9@set_local_
  0016c	00 00 00 00	 DD	 $LN10@set_local_
  00170	00 00 00 00	 DD	 $LN11@set_local_
  00174	00 00 00 00	 DD	 $LN12@set_local_
$LN16@set_local_:
  00178	00		 DB	 0
  00179	08		 DB	 8
  0017a	08		 DB	 8
  0017b	08		 DB	 8
  0017c	01		 DB	 1
  0017d	02		 DB	 2
  0017e	08		 DB	 8
  0017f	08		 DB	 8
  00180	08		 DB	 8
  00181	08		 DB	 8
  00182	08		 DB	 8
  00183	08		 DB	 8
  00184	08		 DB	 8
  00185	08		 DB	 8
  00186	08		 DB	 8
  00187	08		 DB	 8
  00188	08		 DB	 8
  00189	08		 DB	 8
  0018a	08		 DB	 8
  0018b	08		 DB	 8
  0018c	08		 DB	 8
  0018d	08		 DB	 8
  0018e	08		 DB	 8
  0018f	08		 DB	 8
  00190	08		 DB	 8
  00191	08		 DB	 8
  00192	08		 DB	 8
  00193	08		 DB	 8
  00194	08		 DB	 8
  00195	08		 DB	 8
  00196	08		 DB	 8
  00197	08		 DB	 8
  00198	08		 DB	 8
  00199	08		 DB	 8
  0019a	08		 DB	 8
  0019b	08		 DB	 8
  0019c	08		 DB	 8
  0019d	08		 DB	 8
  0019e	08		 DB	 8
  0019f	08		 DB	 8
  001a0	03		 DB	 3
  001a1	08		 DB	 8
  001a2	08		 DB	 8
  001a3	08		 DB	 8
  001a4	08		 DB	 8
  001a5	08		 DB	 8
  001a6	08		 DB	 8
  001a7	08		 DB	 8
  001a8	08		 DB	 8
  001a9	04		 DB	 4
  001aa	05		 DB	 5
  001ab	08		 DB	 8
  001ac	08		 DB	 8
  001ad	08		 DB	 8
  001ae	08		 DB	 8
  001af	08		 DB	 8
  001b0	08		 DB	 8
  001b1	08		 DB	 8
  001b2	08		 DB	 8
  001b3	08		 DB	 8
  001b4	08		 DB	 8
  001b5	08		 DB	 8
  001b6	08		 DB	 8
  001b7	08		 DB	 8
  001b8	08		 DB	 8
  001b9	08		 DB	 8
  001ba	08		 DB	 8
  001bb	08		 DB	 8
  001bc	08		 DB	 8
  001bd	08		 DB	 8
  001be	08		 DB	 8
  001bf	08		 DB	 8
  001c0	08		 DB	 8
  001c1	08		 DB	 8
  001c2	08		 DB	 8
  001c3	08		 DB	 8
  001c4	08		 DB	 8
  001c5	08		 DB	 8
  001c6	08		 DB	 8
  001c7	08		 DB	 8
  001c8	08		 DB	 8
  001c9	08		 DB	 8
  001ca	08		 DB	 8
  001cb	08		 DB	 8
  001cc	08		 DB	 8
  001cd	08		 DB	 8
  001ce	08		 DB	 8
  001cf	08		 DB	 8
  001d0	08		 DB	 8
  001d1	08		 DB	 8
  001d2	08		 DB	 8
  001d3	08		 DB	 8
  001d4	08		 DB	 8
  001d5	08		 DB	 8
  001d6	08		 DB	 8
  001d7	08		 DB	 8
  001d8	08		 DB	 8
  001d9	08		 DB	 8
  001da	08		 DB	 8
  001db	08		 DB	 8
  001dc	08		 DB	 8
  001dd	08		 DB	 8
  001de	08		 DB	 8
  001df	08		 DB	 8
  001e0	06		 DB	 6
  001e1	08		 DB	 8
  001e2	08		 DB	 8
  001e3	08		 DB	 8
  001e4	08		 DB	 8
  001e5	07		 DB	 7
?set_local_float_value@@YGXPAUENTITY@@W4FLOAT_TYPES@@M@Z ENDP ; set_local_float_value
_TEXT	ENDS
; Function compile flags: /Odtp /ZI
; File c:\users\nhv90\projects\eech\aphavoc\source\entity\special\keysite\ks_float.c
;	COMDAT ?overload_keysite_float_value_functions@@YGXXZ
_TEXT	SEGMENT
?overload_keysite_float_value_functions@@YGXXZ PROC	; overload_keysite_float_value_functions, COMDAT

; 366  : {

  00000	55		 push	 ebp
  00001	8b ec		 mov	 ebp, esp
  00003	83 ec 40	 sub	 esp, 64			; 00000040H
  00006	53		 push	 ebx
  00007	56		 push	 esi
  00008	57		 push	 edi

; 367  : 
; 368  : 	fn_set_local_entity_raw_float_value			[ENTITY_TYPE_KEYSITE][FLOAT_TYPE_AMMO_SUPPLY_LEVEL]							= set_local_float_value;

  00009	b8 bc 02 00 00	 mov	 eax, 700		; 000002bcH
  0000e	6b c8 0f	 imul	 ecx, eax, 15
  00011	ba 04 00 00 00	 mov	 edx, 4
  00016	c1 e2 03	 shl	 edx, 3
  00019	c7 84 11 00 00
	00 00 00 00 00
	00		 mov	 DWORD PTR ?fn_set_local_entity_raw_float_value@@3PAY0KP@P6GXPAUENTITY@@W4FLOAT_TYPES@@M@ZA[ecx+edx], OFFSET ?set_local_float_value@@YGXPAUENTITY@@W4FLOAT_TYPES@@M@Z ; set_local_float_value

; 369  : 	fn_set_local_entity_float_value				[ENTITY_TYPE_KEYSITE][FLOAT_TYPE_AMMO_SUPPLY_LEVEL]							= set_local_float_value;

  00024	b8 bc 02 00 00	 mov	 eax, 700		; 000002bcH
  00029	6b c8 0f	 imul	 ecx, eax, 15
  0002c	ba 04 00 00 00	 mov	 edx, 4
  00031	c1 e2 03	 shl	 edx, 3
  00034	c7 84 11 00 00
	00 00 00 00 00
	00		 mov	 DWORD PTR ?fn_set_local_entity_float_value@@3PAY0KP@P6GXPAUENTITY@@W4FLOAT_TYPES@@M@ZA[ecx+edx], OFFSET ?set_local_float_value@@YGXPAUENTITY@@W4FLOAT_TYPES@@M@Z ; set_local_float_value

; 370  : 	fn_set_client_server_entity_float_value	[ENTITY_TYPE_KEYSITE][FLOAT_TYPE_AMMO_SUPPLY_LEVEL][COMMS_MODEL_SERVER]	= set_server_float_value;

  0003f	b8 78 05 00 00	 mov	 eax, 1400		; 00000578H
  00044	6b c8 0f	 imul	 ecx, eax, 15
  00047	ba 08 00 00 00	 mov	 edx, 8
  0004c	c1 e2 03	 shl	 edx, 3
  0004f	8d 84 11 00 00
	00 00		 lea	 eax, DWORD PTR ?fn_set_client_server_entity_float_value@@3PAY1KP@1P6GXPAUENTITY@@W4FLOAT_TYPES@@M@ZA[ecx+edx]
  00056	b9 04 00 00 00	 mov	 ecx, 4
  0005b	6b d1 00	 imul	 edx, ecx, 0
  0005e	c7 04 10 00 00
	00 00		 mov	 DWORD PTR [eax+edx], OFFSET ?set_server_float_value@@YGXPAUENTITY@@W4FLOAT_TYPES@@M@Z ; set_server_float_value

; 371  : 	fn_set_client_server_entity_float_value	[ENTITY_TYPE_KEYSITE][FLOAT_TYPE_AMMO_SUPPLY_LEVEL][COMMS_MODEL_CLIENT]	= set_client_float_value;

  00065	b8 78 05 00 00	 mov	 eax, 1400		; 00000578H
  0006a	6b c8 0f	 imul	 ecx, eax, 15
  0006d	ba 08 00 00 00	 mov	 edx, 8
  00072	c1 e2 03	 shl	 edx, 3
  00075	8d 84 11 00 00
	00 00		 lea	 eax, DWORD PTR ?fn_set_client_server_entity_float_value@@3PAY1KP@1P6GXPAUENTITY@@W4FLOAT_TYPES@@M@ZA[ecx+edx]
  0007c	b9 04 00 00 00	 mov	 ecx, 4
  00081	c1 e1 00	 shl	 ecx, 0
  00084	c7 04 08 00 00
	00 00		 mov	 DWORD PTR [eax+ecx], OFFSET ?set_client_float_value@@YGXPAUENTITY@@W4FLOAT_TYPES@@M@Z ; set_client_float_value

; 372  : 	fn_get_local_entity_float_value				[ENTITY_TYPE_KEYSITE][FLOAT_TYPE_AMMO_SUPPLY_LEVEL]							= get_local_float_value;

  0008b	b8 bc 02 00 00	 mov	 eax, 700		; 000002bcH
  00090	6b c8 0f	 imul	 ecx, eax, 15
  00093	ba 04 00 00 00	 mov	 edx, 4
  00098	c1 e2 03	 shl	 edx, 3
  0009b	c7 84 11 00 00
	00 00 00 00 00
	00		 mov	 DWORD PTR ?fn_get_local_entity_float_value@@3PAY0KP@P6GMPAUENTITY@@W4FLOAT_TYPES@@@ZA[ecx+edx], OFFSET ?get_local_float_value@@YGMPAUENTITY@@W4FLOAT_TYPES@@@Z ; get_local_float_value

; 373  : 
; 374  : 	fn_set_local_entity_raw_float_value			[ENTITY_TYPE_KEYSITE][FLOAT_TYPE_ASSIGN_TIMER]									= set_local_float_value;

  000a6	b8 bc 02 00 00	 mov	 eax, 700		; 000002bcH
  000ab	6b c8 0f	 imul	 ecx, eax, 15
  000ae	ba 04 00 00 00	 mov	 edx, 4
  000b3	6b c2 0c	 imul	 eax, edx, 12
  000b6	c7 84 01 00 00
	00 00 00 00 00
	00		 mov	 DWORD PTR ?fn_set_local_entity_raw_float_value@@3PAY0KP@P6GXPAUENTITY@@W4FLOAT_TYPES@@M@ZA[ecx+eax], OFFSET ?set_local_float_value@@YGXPAUENTITY@@W4FLOAT_TYPES@@M@Z ; set_local_float_value

; 375  : 	fn_set_local_entity_float_value				[ENTITY_TYPE_KEYSITE][FLOAT_TYPE_ASSIGN_TIMER]									= set_local_float_value;

  000c1	b8 bc 02 00 00	 mov	 eax, 700		; 000002bcH
  000c6	6b c8 0f	 imul	 ecx, eax, 15
  000c9	ba 04 00 00 00	 mov	 edx, 4
  000ce	6b c2 0c	 imul	 eax, edx, 12
  000d1	c7 84 01 00 00
	00 00 00 00 00
	00		 mov	 DWORD PTR ?fn_set_local_entity_float_value@@3PAY0KP@P6GXPAUENTITY@@W4FLOAT_TYPES@@M@ZA[ecx+eax], OFFSET ?set_local_float_value@@YGXPAUENTITY@@W4FLOAT_TYPES@@M@Z ; set_local_float_value

; 376  : 	fn_set_client_server_entity_float_value	[ENTITY_TYPE_KEYSITE][FLOAT_TYPE_ASSIGN_TIMER][COMMS_MODEL_SERVER]		= set_server_float_value;

  000dc	b8 78 05 00 00	 mov	 eax, 1400		; 00000578H
  000e1	6b c8 0f	 imul	 ecx, eax, 15
  000e4	ba 08 00 00 00	 mov	 edx, 8
  000e9	6b c2 0c	 imul	 eax, edx, 12
  000ec	8d 8c 01 00 00
	00 00		 lea	 ecx, DWORD PTR ?fn_set_client_server_entity_float_value@@3PAY1KP@1P6GXPAUENTITY@@W4FLOAT_TYPES@@M@ZA[ecx+eax]
  000f3	ba 04 00 00 00	 mov	 edx, 4
  000f8	6b c2 00	 imul	 eax, edx, 0
  000fb	c7 04 01 00 00
	00 00		 mov	 DWORD PTR [ecx+eax], OFFSET ?set_server_float_value@@YGXPAUENTITY@@W4FLOAT_TYPES@@M@Z ; set_server_float_value

; 377  : 	fn_set_client_server_entity_float_value	[ENTITY_TYPE_KEYSITE][FLOAT_TYPE_ASSIGN_TIMER][COMMS_MODEL_CLIENT]		= set_client_float_value;

  00102	b8 78 05 00 00	 mov	 eax, 1400		; 00000578H
  00107	6b c8 0f	 imul	 ecx, eax, 15
  0010a	ba 08 00 00 00	 mov	 edx, 8
  0010f	6b c2 0c	 imul	 eax, edx, 12
  00112	8d 8c 01 00 00
	00 00		 lea	 ecx, DWORD PTR ?fn_set_client_server_entity_float_value@@3PAY1KP@1P6GXPAUENTITY@@W4FLOAT_TYPES@@M@ZA[ecx+eax]
  00119	ba 04 00 00 00	 mov	 edx, 4
  0011e	c1 e2 00	 shl	 edx, 0
  00121	c7 04 11 00 00
	00 00		 mov	 DWORD PTR [ecx+edx], OFFSET ?set_client_float_value@@YGXPAUENTITY@@W4FLOAT_TYPES@@M@Z ; set_client_float_value

; 378  : 	fn_get_local_entity_float_value				[ENTITY_TYPE_KEYSITE][FLOAT_TYPE_ASSIGN_TIMER]									= get_local_float_value;

  00128	b8 bc 02 00 00	 mov	 eax, 700		; 000002bcH
  0012d	6b c8 0f	 imul	 ecx, eax, 15
  00130	ba 04 00 00 00	 mov	 edx, 4
  00135	6b c2 0c	 imul	 eax, edx, 12
  00138	c7 84 01 00 00
	00 00 00 00 00
	00		 mov	 DWORD PTR ?fn_get_local_entity_float_value@@3PAY0KP@P6GMPAUENTITY@@W4FLOAT_TYPES@@@ZA[ecx+eax], OFFSET ?get_local_float_value@@YGMPAUENTITY@@W4FLOAT_TYPES@@@Z ; get_local_float_value

; 379  : 
; 380  : 	fn_set_local_entity_raw_float_value			[ENTITY_TYPE_KEYSITE][FLOAT_TYPE_ASSIST_TIMER]									= set_local_float_value;

  00143	b8 bc 02 00 00	 mov	 eax, 700		; 000002bcH
  00148	6b c8 0f	 imul	 ecx, eax, 15
  0014b	ba 04 00 00 00	 mov	 edx, 4
  00150	6b c2 0d	 imul	 eax, edx, 13
  00153	c7 84 01 00 00
	00 00 00 00 00
	00		 mov	 DWORD PTR ?fn_set_local_entity_raw_float_value@@3PAY0KP@P6GXPAUENTITY@@W4FLOAT_TYPES@@M@ZA[ecx+eax], OFFSET ?set_local_float_value@@YGXPAUENTITY@@W4FLOAT_TYPES@@M@Z ; set_local_float_value

; 381  : 	fn_set_local_entity_float_value				[ENTITY_TYPE_KEYSITE][FLOAT_TYPE_ASSIST_TIMER]									= set_local_float_value;

  0015e	b8 bc 02 00 00	 mov	 eax, 700		; 000002bcH
  00163	6b c8 0f	 imul	 ecx, eax, 15
  00166	ba 04 00 00 00	 mov	 edx, 4
  0016b	6b c2 0d	 imul	 eax, edx, 13
  0016e	c7 84 01 00 00
	00 00 00 00 00
	00		 mov	 DWORD PTR ?fn_set_local_entity_float_value@@3PAY0KP@P6GXPAUENTITY@@W4FLOAT_TYPES@@M@ZA[ecx+eax], OFFSET ?set_local_float_value@@YGXPAUENTITY@@W4FLOAT_TYPES@@M@Z ; set_local_float_value

; 382  : 	fn_set_client_server_entity_float_value	[ENTITY_TYPE_KEYSITE][FLOAT_TYPE_ASSIST_TIMER][COMMS_MODEL_SERVER]		= set_server_float_value;

  00179	b8 78 05 00 00	 mov	 eax, 1400		; 00000578H
  0017e	6b c8 0f	 imul	 ecx, eax, 15
  00181	ba 08 00 00 00	 mov	 edx, 8
  00186	6b c2 0d	 imul	 eax, edx, 13
  00189	8d 8c 01 00 00
	00 00		 lea	 ecx, DWORD PTR ?fn_set_client_server_entity_float_value@@3PAY1KP@1P6GXPAUENTITY@@W4FLOAT_TYPES@@M@ZA[ecx+eax]
  00190	ba 04 00 00 00	 mov	 edx, 4
  00195	6b c2 00	 imul	 eax, edx, 0
  00198	c7 04 01 00 00
	00 00		 mov	 DWORD PTR [ecx+eax], OFFSET ?set_server_float_value@@YGXPAUENTITY@@W4FLOAT_TYPES@@M@Z ; set_server_float_value

; 383  : 	fn_set_client_server_entity_float_value	[ENTITY_TYPE_KEYSITE][FLOAT_TYPE_ASSIST_TIMER][COMMS_MODEL_CLIENT]		= set_client_float_value;

  0019f	b8 78 05 00 00	 mov	 eax, 1400		; 00000578H
  001a4	6b c8 0f	 imul	 ecx, eax, 15
  001a7	ba 08 00 00 00	 mov	 edx, 8
  001ac	6b c2 0d	 imul	 eax, edx, 13
  001af	8d 8c 01 00 00
	00 00		 lea	 ecx, DWORD PTR ?fn_set_client_server_entity_float_value@@3PAY1KP@1P6GXPAUENTITY@@W4FLOAT_TYPES@@M@ZA[ecx+eax]
  001b6	ba 04 00 00 00	 mov	 edx, 4
  001bb	c1 e2 00	 shl	 edx, 0
  001be	c7 04 11 00 00
	00 00		 mov	 DWORD PTR [ecx+edx], OFFSET ?set_client_float_value@@YGXPAUENTITY@@W4FLOAT_TYPES@@M@Z ; set_client_float_value

; 384  : 	fn_get_local_entity_float_value				[ENTITY_TYPE_KEYSITE][FLOAT_TYPE_ASSIST_TIMER]									= get_local_float_value;

  001c5	b8 bc 02 00 00	 mov	 eax, 700		; 000002bcH
  001ca	6b c8 0f	 imul	 ecx, eax, 15
  001cd	ba 04 00 00 00	 mov	 edx, 4
  001d2	6b c2 0d	 imul	 eax, edx, 13
  001d5	c7 84 01 00 00
	00 00 00 00 00
	00		 mov	 DWORD PTR ?fn_get_local_entity_float_value@@3PAY0KP@P6GMPAUENTITY@@W4FLOAT_TYPES@@@ZA[ecx+eax], OFFSET ?get_local_float_value@@YGMPAUENTITY@@W4FLOAT_TYPES@@@Z ; get_local_float_value

; 385  : 
; 386  : 	fn_get_local_entity_float_value				[ENTITY_TYPE_KEYSITE][FLOAT_TYPE_EFFICIENCY]										= get_local_float_value;

  001e0	b8 bc 02 00 00	 mov	 eax, 700		; 000002bcH
  001e5	6b c8 0f	 imul	 ecx, eax, 15
  001e8	ba 04 00 00 00	 mov	 edx, 4
  001ed	6b c2 21	 imul	 eax, edx, 33
  001f0	c7 84 01 00 00
	00 00 00 00 00
	00		 mov	 DWORD PTR ?fn_get_local_entity_float_value@@3PAY0KP@P6GMPAUENTITY@@W4FLOAT_TYPES@@@ZA[ecx+eax], OFFSET ?get_local_float_value@@YGMPAUENTITY@@W4FLOAT_TYPES@@@Z ; get_local_float_value

; 387  : 
; 388  : 	fn_set_local_entity_raw_float_value			[ENTITY_TYPE_KEYSITE][FLOAT_TYPE_FUEL_SUPPLY_LEVEL]							= set_local_float_value;

  001fb	b8 bc 02 00 00	 mov	 eax, 700		; 000002bcH
  00200	6b c8 0f	 imul	 ecx, eax, 15
  00203	ba 04 00 00 00	 mov	 edx, 4
  00208	6b c2 30	 imul	 eax, edx, 48
  0020b	c7 84 01 00 00
	00 00 00 00 00
	00		 mov	 DWORD PTR ?fn_set_local_entity_raw_float_value@@3PAY0KP@P6GXPAUENTITY@@W4FLOAT_TYPES@@M@ZA[ecx+eax], OFFSET ?set_local_float_value@@YGXPAUENTITY@@W4FLOAT_TYPES@@M@Z ; set_local_float_value

; 389  : 	fn_set_local_entity_float_value				[ENTITY_TYPE_KEYSITE][FLOAT_TYPE_FUEL_SUPPLY_LEVEL]							= set_local_float_value;

  00216	b8 bc 02 00 00	 mov	 eax, 700		; 000002bcH
  0021b	6b c8 0f	 imul	 ecx, eax, 15
  0021e	ba 04 00 00 00	 mov	 edx, 4
  00223	6b c2 30	 imul	 eax, edx, 48
  00226	c7 84 01 00 00
	00 00 00 00 00
	00		 mov	 DWORD PTR ?fn_set_local_entity_float_value@@3PAY0KP@P6GXPAUENTITY@@W4FLOAT_TYPES@@M@ZA[ecx+eax], OFFSET ?set_local_float_value@@YGXPAUENTITY@@W4FLOAT_TYPES@@M@Z ; set_local_float_value

; 390  : 	fn_set_client_server_entity_float_value	[ENTITY_TYPE_KEYSITE][FLOAT_TYPE_FUEL_SUPPLY_LEVEL][COMMS_MODEL_SERVER]	= set_server_float_value;

  00231	b8 78 05 00 00	 mov	 eax, 1400		; 00000578H
  00236	6b c8 0f	 imul	 ecx, eax, 15
  00239	ba 08 00 00 00	 mov	 edx, 8
  0023e	6b c2 30	 imul	 eax, edx, 48
  00241	8d 8c 01 00 00
	00 00		 lea	 ecx, DWORD PTR ?fn_set_client_server_entity_float_value@@3PAY1KP@1P6GXPAUENTITY@@W4FLOAT_TYPES@@M@ZA[ecx+eax]
  00248	ba 04 00 00 00	 mov	 edx, 4
  0024d	6b c2 00	 imul	 eax, edx, 0
  00250	c7 04 01 00 00
	00 00		 mov	 DWORD PTR [ecx+eax], OFFSET ?set_server_float_value@@YGXPAUENTITY@@W4FLOAT_TYPES@@M@Z ; set_server_float_value

; 391  : 	fn_set_client_server_entity_float_value	[ENTITY_TYPE_KEYSITE][FLOAT_TYPE_FUEL_SUPPLY_LEVEL][COMMS_MODEL_CLIENT]	= set_client_float_value;

  00257	b8 78 05 00 00	 mov	 eax, 1400		; 00000578H
  0025c	6b c8 0f	 imul	 ecx, eax, 15
  0025f	ba 08 00 00 00	 mov	 edx, 8
  00264	6b c2 30	 imul	 eax, edx, 48
  00267	8d 8c 01 00 00
	00 00		 lea	 ecx, DWORD PTR ?fn_set_client_server_entity_float_value@@3PAY1KP@1P6GXPAUENTITY@@W4FLOAT_TYPES@@M@ZA[ecx+eax]
  0026e	ba 04 00 00 00	 mov	 edx, 4
  00273	c1 e2 00	 shl	 edx, 0
  00276	c7 04 11 00 00
	00 00		 mov	 DWORD PTR [ecx+edx], OFFSET ?set_client_float_value@@YGXPAUENTITY@@W4FLOAT_TYPES@@M@Z ; set_client_float_value

; 392  : 	fn_get_local_entity_float_value				[ENTITY_TYPE_KEYSITE][FLOAT_TYPE_FUEL_SUPPLY_LEVEL]							= get_local_float_value;

  0027d	b8 bc 02 00 00	 mov	 eax, 700		; 000002bcH
  00282	6b c8 0f	 imul	 ecx, eax, 15
  00285	ba 04 00 00 00	 mov	 edx, 4
  0028a	6b c2 30	 imul	 eax, edx, 48
  0028d	c7 84 01 00 00
	00 00 00 00 00
	00		 mov	 DWORD PTR ?fn_get_local_entity_float_value@@3PAY0KP@P6GMPAUENTITY@@W4FLOAT_TYPES@@@ZA[ecx+eax], OFFSET ?get_local_float_value@@YGMPAUENTITY@@W4FLOAT_TYPES@@@Z ; get_local_float_value

; 393  : 
; 394  : 	fn_get_local_entity_float_value				[ENTITY_TYPE_KEYSITE][FLOAT_TYPE_KEYSITE_IMPORTANCE]							= get_local_float_value;

  00298	b8 bc 02 00 00	 mov	 eax, 700		; 000002bcH
  0029d	6b c8 0f	 imul	 ecx, eax, 15
  002a0	ba 04 00 00 00	 mov	 edx, 4
  002a5	6b c2 38	 imul	 eax, edx, 56
  002a8	c7 84 01 00 00
	00 00 00 00 00
	00		 mov	 DWORD PTR ?fn_get_local_entity_float_value@@3PAY0KP@P6GMPAUENTITY@@W4FLOAT_TYPES@@@ZA[ecx+eax], OFFSET ?get_local_float_value@@YGMPAUENTITY@@W4FLOAT_TYPES@@@Z ; get_local_float_value

; 395  : 
; 396  : 	fn_set_local_entity_raw_float_value			[ENTITY_TYPE_KEYSITE][FLOAT_TYPE_KEYSITE_MAXIMUM_STRENGTH]					= set_local_float_value;

  002b3	b8 bc 02 00 00	 mov	 eax, 700		; 000002bcH
  002b8	6b c8 0f	 imul	 ecx, eax, 15
  002bb	ba 04 00 00 00	 mov	 edx, 4
  002c0	6b c2 39	 imul	 eax, edx, 57
  002c3	c7 84 01 00 00
	00 00 00 00 00
	00		 mov	 DWORD PTR ?fn_set_local_entity_raw_float_value@@3PAY0KP@P6GXPAUENTITY@@W4FLOAT_TYPES@@M@ZA[ecx+eax], OFFSET ?set_local_float_value@@YGXPAUENTITY@@W4FLOAT_TYPES@@M@Z ; set_local_float_value

; 397  : 	fn_set_local_entity_float_value				[ENTITY_TYPE_KEYSITE][FLOAT_TYPE_KEYSITE_MAXIMUM_STRENGTH]					= set_local_float_value;

  002ce	b8 bc 02 00 00	 mov	 eax, 700		; 000002bcH
  002d3	6b c8 0f	 imul	 ecx, eax, 15
  002d6	ba 04 00 00 00	 mov	 edx, 4
  002db	6b c2 39	 imul	 eax, edx, 57
  002de	c7 84 01 00 00
	00 00 00 00 00
	00		 mov	 DWORD PTR ?fn_set_local_entity_float_value@@3PAY0KP@P6GXPAUENTITY@@W4FLOAT_TYPES@@M@ZA[ecx+eax], OFFSET ?set_local_float_value@@YGXPAUENTITY@@W4FLOAT_TYPES@@M@Z ; set_local_float_value

; 398  : 	fn_get_local_entity_float_value				[ENTITY_TYPE_KEYSITE][FLOAT_TYPE_KEYSITE_MAXIMUM_STRENGTH]					= get_local_float_value;

  002e9	b8 bc 02 00 00	 mov	 eax, 700		; 000002bcH
  002ee	6b c8 0f	 imul	 ecx, eax, 15
  002f1	ba 04 00 00 00	 mov	 edx, 4
  002f6	6b c2 39	 imul	 eax, edx, 57
  002f9	c7 84 01 00 00
	00 00 00 00 00
	00		 mov	 DWORD PTR ?fn_get_local_entity_float_value@@3PAY0KP@P6GMPAUENTITY@@W4FLOAT_TYPES@@@ZA[ecx+eax], OFFSET ?get_local_float_value@@YGMPAUENTITY@@W4FLOAT_TYPES@@@Z ; get_local_float_value

; 399  : 
; 400  : 	fn_set_local_entity_raw_float_value			[ENTITY_TYPE_KEYSITE][FLOAT_TYPE_KEYSITE_STRENGTH]								= set_local_float_value;

  00304	b8 bc 02 00 00	 mov	 eax, 700		; 000002bcH
  00309	6b c8 0f	 imul	 ecx, eax, 15
  0030c	ba 04 00 00 00	 mov	 edx, 4
  00311	6b c2 3a	 imul	 eax, edx, 58
  00314	c7 84 01 00 00
	00 00 00 00 00
	00		 mov	 DWORD PTR ?fn_set_local_entity_raw_float_value@@3PAY0KP@P6GXPAUENTITY@@W4FLOAT_TYPES@@M@ZA[ecx+eax], OFFSET ?set_local_float_value@@YGXPAUENTITY@@W4FLOAT_TYPES@@M@Z ; set_local_float_value

; 401  : 	fn_set_local_entity_float_value				[ENTITY_TYPE_KEYSITE][FLOAT_TYPE_KEYSITE_STRENGTH]								= set_local_float_value;

  0031f	b8 bc 02 00 00	 mov	 eax, 700		; 000002bcH
  00324	6b c8 0f	 imul	 ecx, eax, 15
  00327	ba 04 00 00 00	 mov	 edx, 4
  0032c	6b c2 3a	 imul	 eax, edx, 58
  0032f	c7 84 01 00 00
	00 00 00 00 00
	00		 mov	 DWORD PTR ?fn_set_local_entity_float_value@@3PAY0KP@P6GXPAUENTITY@@W4FLOAT_TYPES@@M@ZA[ecx+eax], OFFSET ?set_local_float_value@@YGXPAUENTITY@@W4FLOAT_TYPES@@M@Z ; set_local_float_value

; 402  : 	fn_get_local_entity_float_value				[ENTITY_TYPE_KEYSITE][FLOAT_TYPE_KEYSITE_STRENGTH]								= get_local_float_value;

  0033a	b8 bc 02 00 00	 mov	 eax, 700		; 000002bcH
  0033f	6b c8 0f	 imul	 ecx, eax, 15
  00342	ba 04 00 00 00	 mov	 edx, 4
  00347	6b c2 3a	 imul	 eax, edx, 58
  0034a	c7 84 01 00 00
	00 00 00 00 00
	00		 mov	 DWORD PTR ?fn_get_local_entity_float_value@@3PAY0KP@P6GMPAUENTITY@@W4FLOAT_TYPES@@@ZA[ecx+eax], OFFSET ?get_local_float_value@@YGMPAUENTITY@@W4FLOAT_TYPES@@@Z ; get_local_float_value

; 403  : 
; 404  : 	fn_get_local_entity_float_value				[ENTITY_TYPE_KEYSITE][FLOAT_TYPE_MINIMUM_EFFICIENCY]							= get_local_float_value;

  00355	b8 bc 02 00 00	 mov	 eax, 700		; 000002bcH
  0035a	6b c8 0f	 imul	 ecx, eax, 15
  0035d	ba 04 00 00 00	 mov	 edx, 4
  00362	6b c2 51	 imul	 eax, edx, 81
  00365	c7 84 01 00 00
	00 00 00 00 00
	00		 mov	 DWORD PTR ?fn_get_local_entity_float_value@@3PAY0KP@P6GMPAUENTITY@@W4FLOAT_TYPES@@@ZA[ecx+eax], OFFSET ?get_local_float_value@@YGMPAUENTITY@@W4FLOAT_TYPES@@@Z ; get_local_float_value

; 405  : 
; 406  : 	fn_get_local_entity_float_value				[ENTITY_TYPE_KEYSITE][FLOAT_TYPE_RECON_DISTANCE]							= get_local_float_value;

  00370	b8 bc 02 00 00	 mov	 eax, 700		; 000002bcH
  00375	6b c8 0f	 imul	 ecx, eax, 15
  00378	ba 04 00 00 00	 mov	 edx, 4
  0037d	6b c2 6e	 imul	 eax, edx, 110
  00380	c7 84 01 00 00
	00 00 00 00 00
	00		 mov	 DWORD PTR ?fn_get_local_entity_float_value@@3PAY0KP@P6GMPAUENTITY@@W4FLOAT_TYPES@@@ZA[ecx+eax], OFFSET ?get_local_float_value@@YGMPAUENTITY@@W4FLOAT_TYPES@@@Z ; get_local_float_value

; 407  : 
; 408  : 	fn_set_local_entity_raw_float_value			[ENTITY_TYPE_KEYSITE][FLOAT_TYPE_REPAIR_TIMER]								= set_local_float_value;

  0038b	b8 bc 02 00 00	 mov	 eax, 700		; 000002bcH
  00390	6b c8 0f	 imul	 ecx, eax, 15
  00393	ba 04 00 00 00	 mov	 edx, 4
  00398	6b c2 70	 imul	 eax, edx, 112
  0039b	c7 84 01 00 00
	00 00 00 00 00
	00		 mov	 DWORD PTR ?fn_set_local_entity_raw_float_value@@3PAY0KP@P6GXPAUENTITY@@W4FLOAT_TYPES@@M@ZA[ecx+eax], OFFSET ?set_local_float_value@@YGXPAUENTITY@@W4FLOAT_TYPES@@M@Z ; set_local_float_value

; 409  : 	fn_set_local_entity_float_value				[ENTITY_TYPE_KEYSITE][FLOAT_TYPE_REPAIR_TIMER]								= set_local_float_value;

  003a6	b8 bc 02 00 00	 mov	 eax, 700		; 000002bcH
  003ab	6b c8 0f	 imul	 ecx, eax, 15
  003ae	ba 04 00 00 00	 mov	 edx, 4
  003b3	6b c2 70	 imul	 eax, edx, 112
  003b6	c7 84 01 00 00
	00 00 00 00 00
	00		 mov	 DWORD PTR ?fn_set_local_entity_float_value@@3PAY0KP@P6GXPAUENTITY@@W4FLOAT_TYPES@@M@ZA[ecx+eax], OFFSET ?set_local_float_value@@YGXPAUENTITY@@W4FLOAT_TYPES@@M@Z ; set_local_float_value

; 410  : 	fn_set_client_server_entity_float_value	[ENTITY_TYPE_KEYSITE][FLOAT_TYPE_REPAIR_TIMER][COMMS_MODEL_SERVER]	= set_server_float_value;

  003c1	b8 78 05 00 00	 mov	 eax, 1400		; 00000578H
  003c6	6b c8 0f	 imul	 ecx, eax, 15
  003c9	ba 08 00 00 00	 mov	 edx, 8
  003ce	6b c2 70	 imul	 eax, edx, 112
  003d1	8d 8c 01 00 00
	00 00		 lea	 ecx, DWORD PTR ?fn_set_client_server_entity_float_value@@3PAY1KP@1P6GXPAUENTITY@@W4FLOAT_TYPES@@M@ZA[ecx+eax]
  003d8	ba 04 00 00 00	 mov	 edx, 4
  003dd	6b c2 00	 imul	 eax, edx, 0
  003e0	c7 04 01 00 00
	00 00		 mov	 DWORD PTR [ecx+eax], OFFSET ?set_server_float_value@@YGXPAUENTITY@@W4FLOAT_TYPES@@M@Z ; set_server_float_value

; 411  : 	fn_set_client_server_entity_float_value	[ENTITY_TYPE_KEYSITE][FLOAT_TYPE_REPAIR_TIMER][COMMS_MODEL_CLIENT]	= set_client_float_value;

  003e7	b8 78 05 00 00	 mov	 eax, 1400		; 00000578H
  003ec	6b c8 0f	 imul	 ecx, eax, 15
  003ef	ba 08 00 00 00	 mov	 edx, 8
  003f4	6b c2 70	 imul	 eax, edx, 112
  003f7	8d 8c 01 00 00
	00 00		 lea	 ecx, DWORD PTR ?fn_set_client_server_entity_float_value@@3PAY1KP@1P6GXPAUENTITY@@W4FLOAT_TYPES@@M@ZA[ecx+eax]
  003fe	ba 04 00 00 00	 mov	 edx, 4
  00403	c1 e2 00	 shl	 edx, 0
  00406	c7 04 11 00 00
	00 00		 mov	 DWORD PTR [ecx+edx], OFFSET ?set_client_float_value@@YGXPAUENTITY@@W4FLOAT_TYPES@@M@Z ; set_client_float_value

; 412  : 	fn_get_local_entity_float_value				[ENTITY_TYPE_KEYSITE][FLOAT_TYPE_REPAIR_TIMER]								= get_local_float_value;

  0040d	b8 bc 02 00 00	 mov	 eax, 700		; 000002bcH
  00412	6b c8 0f	 imul	 ecx, eax, 15
  00415	ba 04 00 00 00	 mov	 edx, 4
  0041a	6b c2 70	 imul	 eax, edx, 112
  0041d	c7 84 01 00 00
	00 00 00 00 00
	00		 mov	 DWORD PTR ?fn_get_local_entity_float_value@@3PAY0KP@P6GMPAUENTITY@@W4FLOAT_TYPES@@@ZA[ecx+eax], OFFSET ?get_local_float_value@@YGMPAUENTITY@@W4FLOAT_TYPES@@@Z ; get_local_float_value

; 413  : 
; 414  : 	fn_get_local_entity_float_value				[ENTITY_TYPE_KEYSITE][FLOAT_TYPE_SECTOR_SIDE_MAX_VALUE]		= get_local_float_value;

  00428	b8 bc 02 00 00	 mov	 eax, 700		; 000002bcH
  0042d	6b c8 0f	 imul	 ecx, eax, 15
  00430	ba 04 00 00 00	 mov	 edx, 4
  00435	6b c2 74	 imul	 eax, edx, 116
  00438	c7 84 01 00 00
	00 00 00 00 00
	00		 mov	 DWORD PTR ?fn_get_local_entity_float_value@@3PAY0KP@P6GMPAUENTITY@@W4FLOAT_TYPES@@@ZA[ecx+eax], OFFSET ?get_local_float_value@@YGMPAUENTITY@@W4FLOAT_TYPES@@@Z ; get_local_float_value

; 415  : 
; 416  : 	fn_set_local_entity_raw_float_value			[ENTITY_TYPE_KEYSITE][FLOAT_TYPE_SLEEP]							= set_local_float_value;

  00443	b8 bc 02 00 00	 mov	 eax, 700		; 000002bcH
  00448	6b c8 0f	 imul	 ecx, eax, 15
  0044b	ba 04 00 00 00	 mov	 edx, 4
  00450	6b c2 75	 imul	 eax, edx, 117
  00453	c7 84 01 00 00
	00 00 00 00 00
	00		 mov	 DWORD PTR ?fn_set_local_entity_raw_float_value@@3PAY0KP@P6GXPAUENTITY@@W4FLOAT_TYPES@@M@ZA[ecx+eax], OFFSET ?set_local_float_value@@YGXPAUENTITY@@W4FLOAT_TYPES@@M@Z ; set_local_float_value

; 417  : 	fn_set_local_entity_float_value				[ENTITY_TYPE_KEYSITE][FLOAT_TYPE_SLEEP]							= set_local_float_value;

  0045e	b8 bc 02 00 00	 mov	 eax, 700		; 000002bcH
  00463	6b c8 0f	 imul	 ecx, eax, 15
  00466	ba 04 00 00 00	 mov	 edx, 4
  0046b	6b c2 75	 imul	 eax, edx, 117
  0046e	c7 84 01 00 00
	00 00 00 00 00
	00		 mov	 DWORD PTR ?fn_set_local_entity_float_value@@3PAY0KP@P6GXPAUENTITY@@W4FLOAT_TYPES@@M@ZA[ecx+eax], OFFSET ?set_local_float_value@@YGXPAUENTITY@@W4FLOAT_TYPES@@M@Z ; set_local_float_value

; 418  : 	fn_set_client_server_entity_float_value	[ENTITY_TYPE_KEYSITE][FLOAT_TYPE_SLEEP][COMMS_MODEL_SERVER]	= set_server_float_value;

  00479	b8 78 05 00 00	 mov	 eax, 1400		; 00000578H
  0047e	6b c8 0f	 imul	 ecx, eax, 15
  00481	ba 08 00 00 00	 mov	 edx, 8
  00486	6b c2 75	 imul	 eax, edx, 117
  00489	8d 8c 01 00 00
	00 00		 lea	 ecx, DWORD PTR ?fn_set_client_server_entity_float_value@@3PAY1KP@1P6GXPAUENTITY@@W4FLOAT_TYPES@@M@ZA[ecx+eax]
  00490	ba 04 00 00 00	 mov	 edx, 4
  00495	6b c2 00	 imul	 eax, edx, 0
  00498	c7 04 01 00 00
	00 00		 mov	 DWORD PTR [ecx+eax], OFFSET ?set_server_float_value@@YGXPAUENTITY@@W4FLOAT_TYPES@@M@Z ; set_server_float_value

; 419  : 	fn_set_client_server_entity_float_value	[ENTITY_TYPE_KEYSITE][FLOAT_TYPE_SLEEP][COMMS_MODEL_CLIENT]	= set_client_float_value;

  0049f	b8 78 05 00 00	 mov	 eax, 1400		; 00000578H
  004a4	6b c8 0f	 imul	 ecx, eax, 15
  004a7	ba 08 00 00 00	 mov	 edx, 8
  004ac	6b c2 75	 imul	 eax, edx, 117
  004af	8d 8c 01 00 00
	00 00		 lea	 ecx, DWORD PTR ?fn_set_client_server_entity_float_value@@3PAY1KP@1P6GXPAUENTITY@@W4FLOAT_TYPES@@M@ZA[ecx+eax]
  004b6	ba 04 00 00 00	 mov	 edx, 4
  004bb	c1 e2 00	 shl	 edx, 0
  004be	c7 04 11 00 00
	00 00		 mov	 DWORD PTR [ecx+edx], OFFSET ?set_client_float_value@@YGXPAUENTITY@@W4FLOAT_TYPES@@M@Z ; set_client_float_value

; 420  : 	fn_get_local_entity_float_value				[ENTITY_TYPE_KEYSITE][FLOAT_TYPE_SLEEP]							= get_local_float_value;

  004c5	b8 bc 02 00 00	 mov	 eax, 700		; 000002bcH
  004ca	6b c8 0f	 imul	 ecx, eax, 15
  004cd	ba 04 00 00 00	 mov	 edx, 4
  004d2	6b c2 75	 imul	 eax, edx, 117
  004d5	c7 84 01 00 00
	00 00 00 00 00
	00		 mov	 DWORD PTR ?fn_get_local_entity_float_value@@3PAY0KP@P6GMPAUENTITY@@W4FLOAT_TYPES@@@ZA[ecx+eax], OFFSET ?get_local_float_value@@YGMPAUENTITY@@W4FLOAT_TYPES@@@Z ; get_local_float_value

; 421  : }

  004e0	5f		 pop	 edi
  004e1	5e		 pop	 esi
  004e2	5b		 pop	 ebx
  004e3	8b e5		 mov	 esp, ebp
  004e5	5d		 pop	 ebp
  004e6	c3		 ret	 0
?overload_keysite_float_value_functions@@YGXXZ ENDP	; overload_keysite_float_value_functions
_TEXT	ENDS
END
