; Listing generated by Microsoft (R) Optimizing Compiler Version 19.16.27045.0 

	TITLE	C:\Users\nhv90\Projects\eech\aphavoc\source\entity\special\keysite\ks_int.c
	.686P
	.XMM
	include listing.inc
	.model	flat

INCLUDELIB MSVCRTD
INCLUDELIB OLDNAMES

PUBLIC	?keysite_icon_timer_flag@@3HA			; keysite_icon_timer_flag
_BSS	SEGMENT
?keysite_icon_timer_flag@@3HA DD 01H DUP (?)		; keysite_icon_timer_flag
_BSS	ENDS
PUBLIC	?overload_keysite_int_value_functions@@YGXXZ	; overload_keysite_int_value_functions
PUBLIC	?__LINE__Var@?0??set_local_int_value@@YGXPAUENTITY@@W4INT_TYPES@@H@Z@4JA ; `set_local_int_value'::`1'::__LINE__Var
PUBLIC	??_C@_0EM@GPGBDALB@c?3?2users?2nhv90?2projects?2eech?2ap@ ; `string'
PUBLIC	?__LINE__Var@?0??set_server_int_value@@YGXPAUENTITY@@W4INT_TYPES@@H@Z@4JA ; `set_server_int_value'::`1'::__LINE__Var
PUBLIC	??_C@_0CB@CFOCLFOK@assert_client_server_local_fn?5?$CI@ ; `string'
PUBLIC	??_C@_0CC@BNNNEGEG@assert_client_server_remote_fn?5@ ; `string'
PUBLIC	?__LINE__Var@?0??set_client_int_value@@YGXPAUENTITY@@W4INT_TYPES@@H@Z@4JA ; `set_client_int_value'::`1'::__LINE__Var
PUBLIC	?__LINE__Var@?0??get_local_int_value@@YGHPAUENTITY@@W4INT_TYPES@@@Z@4JA ; `get_local_int_value'::`1'::__LINE__Var
EXTRN	?process_assert@@YGXPBD0H@Z:PROC		; process_assert
EXTRN	?debug_fatal@@YAXPBDZZ:PROC			; debug_fatal
EXTRN	?transmit_entity_comms_message@@YAXW4ENTITY_COMMS_MESSAGES@@PAUENTITY@@ZZ:PROC ; transmit_entity_comms_message
EXTRN	?assert_client_server_local_fn@@YGHXZ:PROC	; assert_client_server_local_fn
EXTRN	?assert_client_server_remote_fn@@YGHXZ:PROC	; assert_client_server_remote_fn
EXTRN	?null_entity_pointer_message@@3PBDB:DWORD	; null_entity_pointer_message
EXTRN	?entity_type_database@@3PAUENTITY_TYPE_DATA@@A:BYTE ; entity_type_database
EXTRN	?system_comms_data_flow@@3W4COMMS_DATA_FLOW_TYPES@@A:DWORD ; system_comms_data_flow
EXTRN	?int_type_database@@3PAUINT_TYPE_DATA@@A:BYTE	; int_type_database
EXTRN	?debug_fatal_invalid_int_type_message@@3PBDB:DWORD ; debug_fatal_invalid_int_type_message
EXTRN	?fn_set_local_entity_raw_int_value@@3PAY0BBH@P6GXPAUENTITY@@W4INT_TYPES@@H@ZA:BYTE ; fn_set_local_entity_raw_int_value
EXTRN	?fn_set_local_entity_int_value@@3PAY0BBH@P6GXPAUENTITY@@W4INT_TYPES@@H@ZA:BYTE ; fn_set_local_entity_int_value
EXTRN	?fn_set_client_server_entity_int_value@@3PAY1BBH@1P6GXPAUENTITY@@W4INT_TYPES@@H@ZA:BYTE ; fn_set_client_server_entity_int_value
EXTRN	?fn_get_local_entity_int_value@@3PAY0BBH@P6GHPAUENTITY@@W4INT_TYPES@@@ZA:BYTE ; fn_get_local_entity_int_value
EXTRN	?entities@@3PAUENTITY@@A:DWORD			; entities
EXTRN	?keysite_database@@3PAUKEYSITE_DATA@@A:BYTE	; keysite_database
;	COMDAT ?__LINE__Var@?0??get_local_int_value@@YGHPAUENTITY@@W4INT_TYPES@@@Z@4JA
_DATA	SEGMENT
?__LINE__Var@?0??get_local_int_value@@YGHPAUENTITY@@W4INT_TYPES@@@Z@4JA DD 0e9H ; `get_local_int_value'::`1'::__LINE__Var
_DATA	ENDS
;	COMDAT ?__LINE__Var@?0??set_client_int_value@@YGXPAUENTITY@@W4INT_TYPES@@H@Z@4JA
_DATA	SEGMENT
?__LINE__Var@?0??set_client_int_value@@YGXPAUENTITY@@W4INT_TYPES@@H@Z@4JA DD 0d5H ; `set_client_int_value'::`1'::__LINE__Var
_DATA	ENDS
;	COMDAT ??_C@_0CC@BNNNEGEG@assert_client_server_remote_fn?5@
CONST	SEGMENT
??_C@_0CC@BNNNEGEG@assert_client_server_remote_fn?5@ DB 'assert_client_se'
	DB	'rver_remote_fn ()', 00H			; `string'
CONST	ENDS
;	COMDAT ??_C@_0CB@CFOCLFOK@assert_client_server_local_fn?5?$CI@
CONST	SEGMENT
??_C@_0CB@CFOCLFOK@assert_client_server_local_fn?5?$CI@ DB 'assert_client'
	DB	'_server_local_fn ()', 00H			; `string'
CONST	ENDS
;	COMDAT ?__LINE__Var@?0??set_server_int_value@@YGXPAUENTITY@@W4INT_TYPES@@H@Z@4JA
_DATA	SEGMENT
?__LINE__Var@?0??set_server_int_value@@YGXPAUENTITY@@W4INT_TYPES@@H@Z@4JA DD 0c6H ; `set_server_int_value'::`1'::__LINE__Var
_DATA	ENDS
;	COMDAT ??_C@_0EM@GPGBDALB@c?3?2users?2nhv90?2projects?2eech?2ap@
CONST	SEGMENT
??_C@_0EM@GPGBDALB@c?3?2users?2nhv90?2projects?2eech?2ap@ DB 'c:\users\nh'
	DB	'v90\projects\eech\aphavoc\source\entity\special\keysite\ks_in'
	DB	't.c', 00H					; `string'
CONST	ENDS
;	COMDAT ?__LINE__Var@?0??set_local_int_value@@YGXPAUENTITY@@W4INT_TYPES@@H@Z@4JA
_DATA	SEGMENT
?__LINE__Var@?0??set_local_int_value@@YGXPAUENTITY@@W4INT_TYPES@@H@Z@4JA DD 059H ; `set_local_int_value'::`1'::__LINE__Var
_DATA	ENDS
; Function compile flags: /Odtp /ZI
; File c:\users\nhv90\projects\eech\aphavoc\source\entity\special\keysite\ks_int.c
;	COMDAT ?get_local_int_value@@YGHPAUENTITY@@W4INT_TYPES@@@Z
_TEXT	SEGMENT
tv159 = -76						; size = 4
tv65 = -76						; size = 4
_value$ = -8						; size = 4
_raw$ = -4						; size = 4
_en$ = 8						; size = 4
_type$ = 12						; size = 4
?get_local_int_value@@YGHPAUENTITY@@W4INT_TYPES@@@Z PROC ; get_local_int_value, COMDAT

; 233  : {

  00000	55		 push	 ebp
  00001	8b ec		 mov	 ebp, esp
  00003	83 ec 4c	 sub	 esp, 76			; 0000004cH
  00006	53		 push	 ebx
  00007	56		 push	 esi
  00008	57		 push	 edi

; 234  : 	keysite
; 235  : 		*raw;
; 236  : 
; 237  : 	int
; 238  : 		value;
; 239  : 
; 240  : 	raw = (keysite *) get_local_entity_data (en);

  00009	8b 45 08	 mov	 eax, DWORD PTR _en$[ebp]
  0000c	8b 48 04	 mov	 ecx, DWORD PTR [eax+4]
  0000f	89 4d fc	 mov	 DWORD PTR _raw$[ebp], ecx

; 241  : 
; 242  : 	switch (type)

  00012	8b 45 0c	 mov	 eax, DWORD PTR _type$[ebp]
  00015	89 45 b4	 mov	 DWORD PTR tv65[ebp], eax
  00018	8b 4d b4	 mov	 ecx, DWORD PTR tv65[ebp]
  0001b	83 e9 06	 sub	 ecx, 6
  0001e	89 4d b4	 mov	 DWORD PTR tv65[ebp], ecx
  00021	81 7d b4 b5 00
	00 00		 cmp	 DWORD PTR tv65[ebp], 181 ; 000000b5H
  00028	0f 87 27 01 00
	00		 ja	 $LN16@get_local_
  0002e	8b 55 b4	 mov	 edx, DWORD PTR tv65[ebp]
  00031	0f b6 82 00 00
	00 00		 movzx	 eax, BYTE PTR $LN20@get_local_[edx]
  00038	ff 24 85 00 00
	00 00		 jmp	 DWORD PTR $LN21@get_local_[eax*4]
$LN4@get_local_:

; 243  : 	{
; 244  : 		////////////////////////////////////////
; 245  : 		case INT_TYPE_ALIGN_WITH_TERRAIN:
; 246  : 		////////////////////////////////////////
; 247  : 		{
; 248  : 			value = keysite_database [raw->sub_type].align_with_terrain;

  0003f	8b 45 fc	 mov	 eax, DWORD PTR _raw$[ebp]
  00042	6b 08 44	 imul	 ecx, DWORD PTR [eax], 68
  00045	8b 91 30 00 00
	00		 mov	 edx, DWORD PTR ?keysite_database@@3PAUKEYSITE_DATA@@A[ecx+48]
  0004b	c1 ea 0c	 shr	 edx, 12			; 0000000cH
  0004e	83 e2 01	 and	 edx, 1
  00051	89 55 f8	 mov	 DWORD PTR _value$[ebp], edx

; 249  : 
; 250  : 			break;

  00054	e9 6e 01 00 00	 jmp	 $LN2@get_local_
$LN5@get_local_:

; 251  : 		}
; 252  : 		////////////////////////////////////////
; 253  : 		case INT_TYPE_ALIVE:
; 254  : 		////////////////////////////////////////
; 255  : 		{
; 256  : 			value = raw->alive;

  00059	8b 45 fc	 mov	 eax, DWORD PTR _raw$[ebp]
  0005c	8b 88 a0 01 00
	00		 mov	 ecx, DWORD PTR [eax+416]
  00062	c1 e9 18	 shr	 ecx, 24			; 00000018H
  00065	83 e1 01	 and	 ecx, 1
  00068	89 4d f8	 mov	 DWORD PTR _value$[ebp], ecx

; 257  : 
; 258  : 			break;

  0006b	e9 57 01 00 00	 jmp	 $LN2@get_local_
$LN6@get_local_:

; 259  : 		}
; 260  : 		////////////////////////////////////////
; 261  : 		case INT_TYPE_ENTITY_SUB_TYPE:
; 262  : 		////////////////////////////////////////
; 263  : 		{
; 264  : 			value = raw->sub_type;

  00070	8b 45 fc	 mov	 eax, DWORD PTR _raw$[ebp]
  00073	8b 08		 mov	 ecx, DWORD PTR [eax]
  00075	89 4d f8	 mov	 DWORD PTR _value$[ebp], ecx

; 265  : 
; 266  : 			break;

  00078	e9 4a 01 00 00	 jmp	 $LN2@get_local_
$LN7@get_local_:

; 267  : 		}
; 268  : 		////////////////////////////////////////
; 269  : 		case INT_TYPE_HIDDEN_BY_FOG_OF_WAR:
; 270  : 		////////////////////////////////////////
; 271  : 		{
; 272  : 			value = keysite_database [raw->sub_type].hidden_by_fog_of_war;

  0007d	8b 45 fc	 mov	 eax, DWORD PTR _raw$[ebp]
  00080	6b 08 44	 imul	 ecx, DWORD PTR [eax], 68
  00083	8b 91 30 00 00
	00		 mov	 edx, DWORD PTR ?keysite_database@@3PAUKEYSITE_DATA@@A[ecx+48]
  00089	c1 ea 0e	 shr	 edx, 14			; 0000000eH
  0008c	83 e2 01	 and	 edx, 1
  0008f	89 55 f8	 mov	 DWORD PTR _value$[ebp], edx

; 273  : 
; 274  : 			break;

  00092	e9 30 01 00 00	 jmp	 $LN2@get_local_
$LN8@get_local_:

; 275  : 		}
; 276  : 		////////////////////////////////////////
; 277  : 		case INT_TYPE_IN_USE:
; 278  : 		////////////////////////////////////////
; 279  : 		{
; 280  : 			value = raw->in_use;

  00097	8b 45 fc	 mov	 eax, DWORD PTR _raw$[ebp]
  0009a	8b 88 a0 01 00
	00		 mov	 ecx, DWORD PTR [eax+416]
  000a0	c1 e9 19	 shr	 ecx, 25			; 00000019H
  000a3	83 e1 01	 and	 ecx, 1
  000a6	89 4d f8	 mov	 DWORD PTR _value$[ebp], ecx

; 281  : 
; 282  : 			break;

  000a9	e9 19 01 00 00	 jmp	 $LN2@get_local_
$LN9@get_local_:

; 283  : 		}
; 284  : 		////////////////////////////////////////
; 285  : 		case INT_TYPE_KEYSITE_ID:
; 286  : 		////////////////////////////////////////
; 287  : 		{
; 288  : 			value = raw->keysite_id;

  000ae	8b 45 fc	 mov	 eax, DWORD PTR _raw$[ebp]
  000b1	8b 88 a0 01 00
	00		 mov	 ecx, DWORD PTR [eax+416]
  000b7	81 e1 ff 00 00
	00		 and	 ecx, 255		; 000000ffH
  000bd	89 4d f8	 mov	 DWORD PTR _value$[ebp], ecx

; 289  : 
; 290  : 			break;

  000c0	e9 02 01 00 00	 jmp	 $LN2@get_local_
$LN10@get_local_:

; 291  : 		}
; 292  : 		////////////////////////////////////////
; 293  : 		case INT_TYPE_KEYSITE_USABLE_STATE:
; 294  : 		////////////////////////////////////////
; 295  : 		{
; 296  : 			value = raw->keysite_usable_state;

  000c5	8b 45 fc	 mov	 eax, DWORD PTR _raw$[ebp]
  000c8	8b 88 a0 01 00
	00		 mov	 ecx, DWORD PTR [eax+416]
  000ce	c1 e9 1a	 shr	 ecx, 26			; 0000001aH
  000d1	83 e1 07	 and	 ecx, 7
  000d4	89 4d f8	 mov	 DWORD PTR _value$[ebp], ecx

; 297  : 
; 298  : 			break;

  000d7	e9 eb 00 00 00	 jmp	 $LN2@get_local_
$LN11@get_local_:

; 299  : 		}
; 300  : 		////////////////////////////////////////
; 301  : 		case INT_TYPE_LANDING_TYPES:
; 302  : 		////////////////////////////////////////
; 303  : 		{
; 304  : 			value = raw->landing_types;

  000dc	8b 45 fc	 mov	 eax, DWORD PTR _raw$[ebp]
  000df	8b 88 a0 01 00
	00		 mov	 ecx, DWORD PTR [eax+416]
  000e5	c1 e9 14	 shr	 ecx, 20			; 00000014H
  000e8	83 e1 0f	 and	 ecx, 15			; 0000000fH
  000eb	89 4d f8	 mov	 DWORD PTR _value$[ebp], ecx

; 305  : 
; 306  : 			break;

  000ee	e9 d4 00 00 00	 jmp	 $LN2@get_local_
$LN12@get_local_:

; 307  : 		}
; 308  : 		////////////////////////////////////////
; 309  : 		case INT_TYPE_MAP_ICON:
; 310  : 		////////////////////////////////////////
; 311  : 		{
; 312  : 			value = keysite_database [raw->sub_type].map_icon;

  000f3	8b 45 fc	 mov	 eax, DWORD PTR _raw$[ebp]
  000f6	6b 08 44	 imul	 ecx, DWORD PTR [eax], 68
  000f9	8b 91 30 00 00
	00		 mov	 edx, DWORD PTR ?keysite_database@@3PAUKEYSITE_DATA@@A[ecx+48]
  000ff	c1 ea 06	 shr	 edx, 6
  00102	83 e2 3f	 and	 edx, 63			; 0000003fH
  00105	89 55 f8	 mov	 DWORD PTR _value$[ebp], edx

; 313  : 
; 314  : 			break;

  00108	e9 ba 00 00 00	 jmp	 $LN2@get_local_
$LN13@get_local_:

; 315  : 		}
; 316  : 		////////////////////////////////////////
; 317  : 		case INT_TYPE_OBJECT_INDEX:
; 318  : 		////////////////////////////////////////
; 319  : 		{
; 320  : 			value = raw->object_index;

  0010d	8b 45 fc	 mov	 eax, DWORD PTR _raw$[ebp]
  00110	8b 88 a0 01 00
	00		 mov	 ecx, DWORD PTR [eax+416]
  00116	c1 e9 08	 shr	 ecx, 8
  00119	81 e1 ff 0f 00
	00		 and	 ecx, 4095		; 00000fffH
  0011f	89 4d f8	 mov	 DWORD PTR _value$[ebp], ecx

; 321  : 
; 322  : 			break;

  00122	e9 a0 00 00 00	 jmp	 $LN2@get_local_
$LN14@get_local_:

; 323  : 		}
; 324  : 		////////////////////////////////////////
; 325  : 		case INT_TYPE_POTENTIAL_CAMPAIGN_OBJECTIVE:
; 326  : 		////////////////////////////////////////
; 327  : 		{
; 328  : 			value = keysite_database [raw->sub_type].campaign_objective;

  00127	8b 45 fc	 mov	 eax, DWORD PTR _raw$[ebp]
  0012a	6b 08 44	 imul	 ecx, DWORD PTR [eax], 68
  0012d	8b 91 40 00 00
	00		 mov	 edx, DWORD PTR ?keysite_database@@3PAUKEYSITE_DATA@@A[ecx+64]
  00133	c1 ea 0d	 shr	 edx, 13			; 0000000dH
  00136	83 e2 01	 and	 edx, 1
  00139	89 55 f8	 mov	 DWORD PTR _value$[ebp], edx

; 329  : 
; 330  : 			break;

  0013c	e9 86 00 00 00	 jmp	 $LN2@get_local_
$LN15@get_local_:

; 331  : 		}
; 332  : 		////////////////////////////////////////
; 333  : 		case INT_TYPE_SIDE:
; 334  : 		////////////////////////////////////////
; 335  : 		{
; 336  : 			value = raw->side;

  00141	8b 45 fc	 mov	 eax, DWORD PTR _raw$[ebp]
  00144	8b 88 a0 01 00
	00		 mov	 ecx, DWORD PTR [eax+416]
  0014a	c1 e9 1d	 shr	 ecx, 29			; 0000001dH
  0014d	83 e1 03	 and	 ecx, 3
  00150	89 4d f8	 mov	 DWORD PTR _value$[ebp], ecx

; 337  : 
; 338  : 			break;

  00153	eb 72		 jmp	 SHORT $LN2@get_local_
$LN16@get_local_:

; 339  : 		}
; 340  : 		////////////////////////////////////////
; 341  : 		default:
; 342  : 		////////////////////////////////////////
; 343  : 		{
; 344  : 			debug_fatal_invalid_int_type (en, type);

  00155	83 7d 08 00	 cmp	 DWORD PTR _en$[ebp], 0
  00159	74 0a		 je	 SHORT $LN18@get_local_
  0015b	8b 45 08	 mov	 eax, DWORD PTR _en$[ebp]
  0015e	8b 08		 mov	 ecx, DWORD PTR [eax]
  00160	89 4d b4	 mov	 DWORD PTR tv159[ebp], ecx
  00163	eb 21		 jmp	 SHORT $LN19@get_local_
$LN18@get_local_:
  00165	8b 15 00 00 00
	00		 mov	 edx, DWORD PTR ?__LINE__Var@?0??get_local_int_value@@YGHPAUENTITY@@W4INT_TYPES@@@Z@4JA
  0016b	83 c2 6f	 add	 edx, 111		; 0000006fH
  0016e	52		 push	 edx
  0016f	68 00 00 00 00	 push	 OFFSET ??_C@_0EM@GPGBDALB@c?3?2users?2nhv90?2projects?2eech?2ap@
  00174	a1 00 00 00 00	 mov	 eax, DWORD PTR ?null_entity_pointer_message@@3PBDB ; null_entity_pointer_message
  00179	50		 push	 eax
  0017a	e8 00 00 00 00	 call	 ?process_assert@@YGXPBD0H@Z ; process_assert
  0017f	c7 45 b4 00 00
	00 00		 mov	 DWORD PTR tv159[ebp], 0
$LN19@get_local_:
  00186	8b 0d 00 00 00
	00		 mov	 ecx, DWORD PTR ?__LINE__Var@?0??get_local_int_value@@YGHPAUENTITY@@W4INT_TYPES@@@Z@4JA
  0018c	83 c1 6f	 add	 ecx, 111		; 0000006fH
  0018f	51		 push	 ecx
  00190	68 00 00 00 00	 push	 OFFSET ??_C@_0EM@GPGBDALB@c?3?2users?2nhv90?2projects?2eech?2ap@
  00195	6b 55 0c 14	 imul	 edx, DWORD PTR _type$[ebp], 20
  00199	8b 82 00 00 00
	00		 mov	 eax, DWORD PTR ?int_type_database@@3PAUINT_TYPE_DATA@@A[edx]
  0019f	50		 push	 eax
  001a0	8b 4d 08	 mov	 ecx, DWORD PTR _en$[ebp]
  001a3	2b 0d 00 00 00
	00		 sub	 ecx, DWORD PTR ?entities@@3PAUENTITY@@A ; entities
  001a9	c1 f9 04	 sar	 ecx, 4
  001ac	51		 push	 ecx
  001ad	6b 55 b4 0c	 imul	 edx, DWORD PTR tv159[ebp], 12
  001b1	8b 82 00 00 00
	00		 mov	 eax, DWORD PTR ?entity_type_database@@3PAUENTITY_TYPE_DATA@@A[edx]
  001b7	50		 push	 eax
  001b8	8b 0d 00 00 00
	00		 mov	 ecx, DWORD PTR ?debug_fatal_invalid_int_type_message@@3PBDB ; debug_fatal_invalid_int_type_message
  001be	51		 push	 ecx
  001bf	e8 00 00 00 00	 call	 ?debug_fatal@@YAXPBDZZ	; debug_fatal
  001c4	83 c4 18	 add	 esp, 24			; 00000018H
$LN2@get_local_:

; 345  : 
; 346  : 			break;
; 347  : 		}
; 348  : 	}
; 349  : 
; 350  : 	return (value);

  001c7	8b 45 f8	 mov	 eax, DWORD PTR _value$[ebp]

; 351  : }

  001ca	5f		 pop	 edi
  001cb	5e		 pop	 esi
  001cc	5b		 pop	 ebx
  001cd	8b e5		 mov	 esp, ebp
  001cf	5d		 pop	 ebp
  001d0	c2 08 00	 ret	 8
  001d3	90		 npad	 1
$LN21@get_local_:
  001d4	00 00 00 00	 DD	 $LN4@get_local_
  001d8	00 00 00 00	 DD	 $LN5@get_local_
  001dc	00 00 00 00	 DD	 $LN6@get_local_
  001e0	00 00 00 00	 DD	 $LN7@get_local_
  001e4	00 00 00 00	 DD	 $LN8@get_local_
  001e8	00 00 00 00	 DD	 $LN9@get_local_
  001ec	00 00 00 00	 DD	 $LN10@get_local_
  001f0	00 00 00 00	 DD	 $LN11@get_local_
  001f4	00 00 00 00	 DD	 $LN12@get_local_
  001f8	00 00 00 00	 DD	 $LN13@get_local_
  001fc	00 00 00 00	 DD	 $LN14@get_local_
  00200	00 00 00 00	 DD	 $LN15@get_local_
  00204	00 00 00 00	 DD	 $LN16@get_local_
$LN20@get_local_:
  00208	00		 DB	 0
  00209	01		 DB	 1
  0020a	0c		 DB	 12			; 0000000cH
  0020b	0c		 DB	 12			; 0000000cH
  0020c	0c		 DB	 12			; 0000000cH
  0020d	0c		 DB	 12			; 0000000cH
  0020e	0c		 DB	 12			; 0000000cH
  0020f	0c		 DB	 12			; 0000000cH
  00210	0c		 DB	 12			; 0000000cH
  00211	0c		 DB	 12			; 0000000cH
  00212	0c		 DB	 12			; 0000000cH
  00213	0c		 DB	 12			; 0000000cH
  00214	0c		 DB	 12			; 0000000cH
  00215	0c		 DB	 12			; 0000000cH
  00216	0c		 DB	 12			; 0000000cH
  00217	0c		 DB	 12			; 0000000cH
  00218	0c		 DB	 12			; 0000000cH
  00219	0c		 DB	 12			; 0000000cH
  0021a	0c		 DB	 12			; 0000000cH
  0021b	0c		 DB	 12			; 0000000cH
  0021c	0c		 DB	 12			; 0000000cH
  0021d	0c		 DB	 12			; 0000000cH
  0021e	0c		 DB	 12			; 0000000cH
  0021f	0c		 DB	 12			; 0000000cH
  00220	0c		 DB	 12			; 0000000cH
  00221	0c		 DB	 12			; 0000000cH
  00222	0c		 DB	 12			; 0000000cH
  00223	0c		 DB	 12			; 0000000cH
  00224	0c		 DB	 12			; 0000000cH
  00225	0c		 DB	 12			; 0000000cH
  00226	0c		 DB	 12			; 0000000cH
  00227	0c		 DB	 12			; 0000000cH
  00228	0c		 DB	 12			; 0000000cH
  00229	0c		 DB	 12			; 0000000cH
  0022a	0c		 DB	 12			; 0000000cH
  0022b	0c		 DB	 12			; 0000000cH
  0022c	0c		 DB	 12			; 0000000cH
  0022d	0c		 DB	 12			; 0000000cH
  0022e	0c		 DB	 12			; 0000000cH
  0022f	0c		 DB	 12			; 0000000cH
  00230	0c		 DB	 12			; 0000000cH
  00231	0c		 DB	 12			; 0000000cH
  00232	0c		 DB	 12			; 0000000cH
  00233	0c		 DB	 12			; 0000000cH
  00234	0c		 DB	 12			; 0000000cH
  00235	0c		 DB	 12			; 0000000cH
  00236	02		 DB	 2
  00237	0c		 DB	 12			; 0000000cH
  00238	0c		 DB	 12			; 0000000cH
  00239	0c		 DB	 12			; 0000000cH
  0023a	0c		 DB	 12			; 0000000cH
  0023b	0c		 DB	 12			; 0000000cH
  0023c	0c		 DB	 12			; 0000000cH
  0023d	0c		 DB	 12			; 0000000cH
  0023e	0c		 DB	 12			; 0000000cH
  0023f	0c		 DB	 12			; 0000000cH
  00240	0c		 DB	 12			; 0000000cH
  00241	0c		 DB	 12			; 0000000cH
  00242	0c		 DB	 12			; 0000000cH
  00243	0c		 DB	 12			; 0000000cH
  00244	0c		 DB	 12			; 0000000cH
  00245	0c		 DB	 12			; 0000000cH
  00246	0c		 DB	 12			; 0000000cH
  00247	0c		 DB	 12			; 0000000cH
  00248	0c		 DB	 12			; 0000000cH
  00249	0c		 DB	 12			; 0000000cH
  0024a	0c		 DB	 12			; 0000000cH
  0024b	0c		 DB	 12			; 0000000cH
  0024c	0c		 DB	 12			; 0000000cH
  0024d	0c		 DB	 12			; 0000000cH
  0024e	0c		 DB	 12			; 0000000cH
  0024f	0c		 DB	 12			; 0000000cH
  00250	0c		 DB	 12			; 0000000cH
  00251	0c		 DB	 12			; 0000000cH
  00252	0c		 DB	 12			; 0000000cH
  00253	0c		 DB	 12			; 0000000cH
  00254	0c		 DB	 12			; 0000000cH
  00255	0c		 DB	 12			; 0000000cH
  00256	0c		 DB	 12			; 0000000cH
  00257	0c		 DB	 12			; 0000000cH
  00258	03		 DB	 3
  00259	0c		 DB	 12			; 0000000cH
  0025a	0c		 DB	 12			; 0000000cH
  0025b	0c		 DB	 12			; 0000000cH
  0025c	0c		 DB	 12			; 0000000cH
  0025d	0c		 DB	 12			; 0000000cH
  0025e	0c		 DB	 12			; 0000000cH
  0025f	0c		 DB	 12			; 0000000cH
  00260	0c		 DB	 12			; 0000000cH
  00261	0c		 DB	 12			; 0000000cH
  00262	0c		 DB	 12			; 0000000cH
  00263	0c		 DB	 12			; 0000000cH
  00264	0c		 DB	 12			; 0000000cH
  00265	0c		 DB	 12			; 0000000cH
  00266	0c		 DB	 12			; 0000000cH
  00267	0c		 DB	 12			; 0000000cH
  00268	0c		 DB	 12			; 0000000cH
  00269	0c		 DB	 12			; 0000000cH
  0026a	0c		 DB	 12			; 0000000cH
  0026b	0c		 DB	 12			; 0000000cH
  0026c	0c		 DB	 12			; 0000000cH
  0026d	0c		 DB	 12			; 0000000cH
  0026e	0c		 DB	 12			; 0000000cH
  0026f	04		 DB	 4
  00270	0c		 DB	 12			; 0000000cH
  00271	05		 DB	 5
  00272	06		 DB	 6
  00273	0c		 DB	 12			; 0000000cH
  00274	0c		 DB	 12			; 0000000cH
  00275	0c		 DB	 12			; 0000000cH
  00276	0c		 DB	 12			; 0000000cH
  00277	0c		 DB	 12			; 0000000cH
  00278	0c		 DB	 12			; 0000000cH
  00279	07		 DB	 7
  0027a	0c		 DB	 12			; 0000000cH
  0027b	0c		 DB	 12			; 0000000cH
  0027c	0c		 DB	 12			; 0000000cH
  0027d	0c		 DB	 12			; 0000000cH
  0027e	0c		 DB	 12			; 0000000cH
  0027f	0c		 DB	 12			; 0000000cH
  00280	0c		 DB	 12			; 0000000cH
  00281	0c		 DB	 12			; 0000000cH
  00282	0c		 DB	 12			; 0000000cH
  00283	0c		 DB	 12			; 0000000cH
  00284	08		 DB	 8
  00285	0c		 DB	 12			; 0000000cH
  00286	0c		 DB	 12			; 0000000cH
  00287	0c		 DB	 12			; 0000000cH
  00288	0c		 DB	 12			; 0000000cH
  00289	0c		 DB	 12			; 0000000cH
  0028a	0c		 DB	 12			; 0000000cH
  0028b	0c		 DB	 12			; 0000000cH
  0028c	0c		 DB	 12			; 0000000cH
  0028d	0c		 DB	 12			; 0000000cH
  0028e	0c		 DB	 12			; 0000000cH
  0028f	0c		 DB	 12			; 0000000cH
  00290	0c		 DB	 12			; 0000000cH
  00291	0c		 DB	 12			; 0000000cH
  00292	0c		 DB	 12			; 0000000cH
  00293	0c		 DB	 12			; 0000000cH
  00294	0c		 DB	 12			; 0000000cH
  00295	0c		 DB	 12			; 0000000cH
  00296	09		 DB	 9
  00297	0c		 DB	 12			; 0000000cH
  00298	0c		 DB	 12			; 0000000cH
  00299	0c		 DB	 12			; 0000000cH
  0029a	0c		 DB	 12			; 0000000cH
  0029b	0c		 DB	 12			; 0000000cH
  0029c	0c		 DB	 12			; 0000000cH
  0029d	0c		 DB	 12			; 0000000cH
  0029e	0c		 DB	 12			; 0000000cH
  0029f	0c		 DB	 12			; 0000000cH
  002a0	0c		 DB	 12			; 0000000cH
  002a1	0c		 DB	 12			; 0000000cH
  002a2	0c		 DB	 12			; 0000000cH
  002a3	0c		 DB	 12			; 0000000cH
  002a4	0a		 DB	 10			; 0000000aH
  002a5	0c		 DB	 12			; 0000000cH
  002a6	0c		 DB	 12			; 0000000cH
  002a7	0c		 DB	 12			; 0000000cH
  002a8	0c		 DB	 12			; 0000000cH
  002a9	0c		 DB	 12			; 0000000cH
  002aa	0c		 DB	 12			; 0000000cH
  002ab	0c		 DB	 12			; 0000000cH
  002ac	0c		 DB	 12			; 0000000cH
  002ad	0c		 DB	 12			; 0000000cH
  002ae	0c		 DB	 12			; 0000000cH
  002af	0c		 DB	 12			; 0000000cH
  002b0	0c		 DB	 12			; 0000000cH
  002b1	0c		 DB	 12			; 0000000cH
  002b2	0c		 DB	 12			; 0000000cH
  002b3	0c		 DB	 12			; 0000000cH
  002b4	0c		 DB	 12			; 0000000cH
  002b5	0c		 DB	 12			; 0000000cH
  002b6	0c		 DB	 12			; 0000000cH
  002b7	0c		 DB	 12			; 0000000cH
  002b8	0c		 DB	 12			; 0000000cH
  002b9	0c		 DB	 12			; 0000000cH
  002ba	0c		 DB	 12			; 0000000cH
  002bb	0c		 DB	 12			; 0000000cH
  002bc	0c		 DB	 12			; 0000000cH
  002bd	0b		 DB	 11			; 0000000bH
?get_local_int_value@@YGHPAUENTITY@@W4INT_TYPES@@@Z ENDP ; get_local_int_value
_TEXT	ENDS
; Function compile flags: /Odtp /ZI
; File c:\users\nhv90\projects\eech\aphavoc\source\entity\special\keysite\ks_int.c
;	COMDAT ?set_client_int_value@@YGXPAUENTITY@@W4INT_TYPES@@H@Z
_TEXT	SEGMENT
_en$ = 8						; size = 4
_type$ = 12						; size = 4
_value$ = 16						; size = 4
?set_client_int_value@@YGXPAUENTITY@@W4INT_TYPES@@H@Z PROC ; set_client_int_value, COMDAT

; 213  : {

  00000	55		 push	 ebp
  00001	8b ec		 mov	 ebp, esp
  00003	83 ec 40	 sub	 esp, 64			; 00000040H
  00006	53		 push	 ebx
  00007	56		 push	 esi
  00008	57		 push	 edi

; 214  : 	if (get_comms_data_flow () == COMMS_DATA_FLOW_TX)

  00009	83 3d 00 00 00
	00 00		 cmp	 DWORD PTR ?system_comms_data_flow@@3W4COMMS_DATA_FLOW_TYPES@@A, 0 ; system_comms_data_flow
  00010	75 34		 jne	 SHORT $LN2@set_client

; 215  : 	{
; 216  : 		validate_client_server_remote_fn ();

  00012	e8 00 00 00 00	 call	 ?assert_client_server_remote_fn@@YGHXZ ; assert_client_server_remote_fn
  00017	85 c0		 test	 eax, eax
  00019	75 18		 jne	 SHORT $LN4@set_client
  0001b	a1 00 00 00 00	 mov	 eax, DWORD PTR ?__LINE__Var@?0??set_client_int_value@@YGXPAUENTITY@@W4INT_TYPES@@H@Z@4JA
  00020	83 c0 03	 add	 eax, 3
  00023	50		 push	 eax
  00024	68 00 00 00 00	 push	 OFFSET ??_C@_0EM@GPGBDALB@c?3?2users?2nhv90?2projects?2eech?2ap@
  00029	68 00 00 00 00	 push	 OFFSET ??_C@_0CC@BNNNEGEG@assert_client_server_remote_fn?5@
  0002e	e8 00 00 00 00	 call	 ?process_assert@@YGXPBD0H@Z ; process_assert
$LN4@set_client:

; 217  : 
; 218  : 		set_remote_int_value (en, type, value);

  00033	8b 45 10	 mov	 eax, DWORD PTR _value$[ebp]
  00036	50		 push	 eax
  00037	8b 4d 0c	 mov	 ecx, DWORD PTR _type$[ebp]
  0003a	51		 push	 ecx
  0003b	8b 55 08	 mov	 edx, DWORD PTR _en$[ebp]
  0003e	52		 push	 edx
  0003f	e8 00 00 00 00	 call	 ?set_remote_int_value@@YGXPAUENTITY@@W4INT_TYPES@@H@Z ; set_remote_int_value

; 219  : 	}
; 220  : 	else

  00044	eb 32		 jmp	 SHORT $LN1@set_client
$LN2@set_client:

; 221  : 	{
; 222  : 		validate_client_server_local_fn ();

  00046	e8 00 00 00 00	 call	 ?assert_client_server_local_fn@@YGHXZ ; assert_client_server_local_fn
  0004b	85 c0		 test	 eax, eax
  0004d	75 18		 jne	 SHORT $LN5@set_client
  0004f	a1 00 00 00 00	 mov	 eax, DWORD PTR ?__LINE__Var@?0??set_client_int_value@@YGXPAUENTITY@@W4INT_TYPES@@H@Z@4JA
  00054	83 c0 09	 add	 eax, 9
  00057	50		 push	 eax
  00058	68 00 00 00 00	 push	 OFFSET ??_C@_0EM@GPGBDALB@c?3?2users?2nhv90?2projects?2eech?2ap@
  0005d	68 00 00 00 00	 push	 OFFSET ??_C@_0CB@CFOCLFOK@assert_client_server_local_fn?5?$CI@
  00062	e8 00 00 00 00	 call	 ?process_assert@@YGXPBD0H@Z ; process_assert
$LN5@set_client:

; 223  : 
; 224  : 		set_local_int_value (en, type, value);

  00067	8b 45 10	 mov	 eax, DWORD PTR _value$[ebp]
  0006a	50		 push	 eax
  0006b	8b 4d 0c	 mov	 ecx, DWORD PTR _type$[ebp]
  0006e	51		 push	 ecx
  0006f	8b 55 08	 mov	 edx, DWORD PTR _en$[ebp]
  00072	52		 push	 edx
  00073	e8 00 00 00 00	 call	 ?set_local_int_value@@YGXPAUENTITY@@W4INT_TYPES@@H@Z ; set_local_int_value
$LN1@set_client:

; 225  : 	}
; 226  : }

  00078	5f		 pop	 edi
  00079	5e		 pop	 esi
  0007a	5b		 pop	 ebx
  0007b	8b e5		 mov	 esp, ebp
  0007d	5d		 pop	 ebp
  0007e	c2 0c 00	 ret	 12			; 0000000cH
?set_client_int_value@@YGXPAUENTITY@@W4INT_TYPES@@H@Z ENDP ; set_client_int_value
_TEXT	ENDS
; Function compile flags: /Odtp /ZI
; File c:\users\nhv90\projects\eech\aphavoc\source\entity\special\keysite\ks_int.c
;	COMDAT ?set_server_int_value@@YGXPAUENTITY@@W4INT_TYPES@@H@Z
_TEXT	SEGMENT
_en$ = 8						; size = 4
_type$ = 12						; size = 4
_value$ = 16						; size = 4
?set_server_int_value@@YGXPAUENTITY@@W4INT_TYPES@@H@Z PROC ; set_server_int_value, COMDAT

; 198  : {

  00000	55		 push	 ebp
  00001	8b ec		 mov	 ebp, esp
  00003	83 ec 40	 sub	 esp, 64			; 00000040H
  00006	53		 push	 ebx
  00007	56		 push	 esi
  00008	57		 push	 edi

; 199  : 	validate_client_server_local_fn ();

  00009	e8 00 00 00 00	 call	 ?assert_client_server_local_fn@@YGHXZ ; assert_client_server_local_fn
  0000e	85 c0		 test	 eax, eax
  00010	75 18		 jne	 SHORT $LN2@set_server
  00012	a1 00 00 00 00	 mov	 eax, DWORD PTR ?__LINE__Var@?0??set_server_int_value@@YGXPAUENTITY@@W4INT_TYPES@@H@Z@4JA
  00017	83 c0 01	 add	 eax, 1
  0001a	50		 push	 eax
  0001b	68 00 00 00 00	 push	 OFFSET ??_C@_0EM@GPGBDALB@c?3?2users?2nhv90?2projects?2eech?2ap@
  00020	68 00 00 00 00	 push	 OFFSET ??_C@_0CB@CFOCLFOK@assert_client_server_local_fn?5?$CI@
  00025	e8 00 00 00 00	 call	 ?process_assert@@YGXPBD0H@Z ; process_assert
$LN2@set_server:

; 200  : 
; 201  : 	set_local_int_value (en, type, value);

  0002a	8b 45 10	 mov	 eax, DWORD PTR _value$[ebp]
  0002d	50		 push	 eax
  0002e	8b 4d 0c	 mov	 ecx, DWORD PTR _type$[ebp]
  00031	51		 push	 ecx
  00032	8b 55 08	 mov	 edx, DWORD PTR _en$[ebp]
  00035	52		 push	 edx
  00036	e8 00 00 00 00	 call	 ?set_local_int_value@@YGXPAUENTITY@@W4INT_TYPES@@H@Z ; set_local_int_value

; 202  : 
; 203  : 	validate_client_server_remote_fn ();

  0003b	e8 00 00 00 00	 call	 ?assert_client_server_remote_fn@@YGHXZ ; assert_client_server_remote_fn
  00040	85 c0		 test	 eax, eax
  00042	75 18		 jne	 SHORT $LN3@set_server
  00044	a1 00 00 00 00	 mov	 eax, DWORD PTR ?__LINE__Var@?0??set_server_int_value@@YGXPAUENTITY@@W4INT_TYPES@@H@Z@4JA
  00049	83 c0 05	 add	 eax, 5
  0004c	50		 push	 eax
  0004d	68 00 00 00 00	 push	 OFFSET ??_C@_0EM@GPGBDALB@c?3?2users?2nhv90?2projects?2eech?2ap@
  00052	68 00 00 00 00	 push	 OFFSET ??_C@_0CC@BNNNEGEG@assert_client_server_remote_fn?5@
  00057	e8 00 00 00 00	 call	 ?process_assert@@YGXPBD0H@Z ; process_assert
$LN3@set_server:

; 204  : 
; 205  : 	set_remote_int_value (en, type, value);

  0005c	8b 45 10	 mov	 eax, DWORD PTR _value$[ebp]
  0005f	50		 push	 eax
  00060	8b 4d 0c	 mov	 ecx, DWORD PTR _type$[ebp]
  00063	51		 push	 ecx
  00064	8b 55 08	 mov	 edx, DWORD PTR _en$[ebp]
  00067	52		 push	 edx
  00068	e8 00 00 00 00	 call	 ?set_remote_int_value@@YGXPAUENTITY@@W4INT_TYPES@@H@Z ; set_remote_int_value

; 206  : }

  0006d	5f		 pop	 edi
  0006e	5e		 pop	 esi
  0006f	5b		 pop	 ebx
  00070	8b e5		 mov	 esp, ebp
  00072	5d		 pop	 ebp
  00073	c2 0c 00	 ret	 12			; 0000000cH
?set_server_int_value@@YGXPAUENTITY@@W4INT_TYPES@@H@Z ENDP ; set_server_int_value
_TEXT	ENDS
; Function compile flags: /Odtp /ZI
; File c:\users\nhv90\projects\eech\aphavoc\source\entity\special\keysite\ks_int.c
;	COMDAT ?set_remote_int_value@@YGXPAUENTITY@@W4INT_TYPES@@H@Z
_TEXT	SEGMENT
_en$ = 8						; size = 4
_type$ = 12						; size = 4
_value$ = 16						; size = 4
?set_remote_int_value@@YGXPAUENTITY@@W4INT_TYPES@@H@Z PROC ; set_remote_int_value, COMDAT

; 183  : {

  00000	55		 push	 ebp
  00001	8b ec		 mov	 ebp, esp
  00003	83 ec 40	 sub	 esp, 64			; 00000040H
  00006	53		 push	 ebx
  00007	56		 push	 esi
  00008	57		 push	 edi

; 184  : 	#if DEBUG_MODULE
; 185  : 
; 186  : 	debug_log_entity_args (ENTITY_DEBUG_REMOTE, ENTITY_DEBUG_INT_VALUE, en, type, value);
; 187  : 
; 188  : 	#endif
; 189  : 
; 190  : 	transmit_entity_comms_message (ENTITY_COMMS_INT_VALUE, en, type, value);

  00009	8b 45 10	 mov	 eax, DWORD PTR _value$[ebp]
  0000c	50		 push	 eax
  0000d	8b 4d 0c	 mov	 ecx, DWORD PTR _type$[ebp]
  00010	51		 push	 ecx
  00011	8b 55 08	 mov	 edx, DWORD PTR _en$[ebp]
  00014	52		 push	 edx
  00015	6a 17		 push	 23			; 00000017H
  00017	e8 00 00 00 00	 call	 ?transmit_entity_comms_message@@YAXW4ENTITY_COMMS_MESSAGES@@PAUENTITY@@ZZ ; transmit_entity_comms_message
  0001c	83 c4 10	 add	 esp, 16			; 00000010H

; 191  : }

  0001f	5f		 pop	 edi
  00020	5e		 pop	 esi
  00021	5b		 pop	 ebx
  00022	8b e5		 mov	 esp, ebp
  00024	5d		 pop	 ebp
  00025	c2 0c 00	 ret	 12			; 0000000cH
?set_remote_int_value@@YGXPAUENTITY@@W4INT_TYPES@@H@Z ENDP ; set_remote_int_value
_TEXT	ENDS
; Function compile flags: /Odtp /ZI
; File c:\users\nhv90\projects\eech\aphavoc\source\entity\special\keysite\ks_int.c
;	COMDAT ?set_local_int_value@@YGXPAUENTITY@@W4INT_TYPES@@H@Z
_TEXT	SEGMENT
tv156 = -72						; size = 4
tv65 = -72						; size = 4
_raw$ = -4						; size = 4
_en$ = 8						; size = 4
_type$ = 12						; size = 4
_value$ = 16						; size = 4
?set_local_int_value@@YGXPAUENTITY@@W4INT_TYPES@@H@Z PROC ; set_local_int_value, COMDAT

; 89   : {

  00000	55		 push	 ebp
  00001	8b ec		 mov	 ebp, esp
  00003	83 ec 48	 sub	 esp, 72			; 00000048H
  00006	53		 push	 ebx
  00007	56		 push	 esi
  00008	57		 push	 edi

; 90   : 	keysite
; 91   : 		*raw;
; 92   : 
; 93   : 	#if DEBUG_MODULE
; 94   : 
; 95   : 	debug_log_entity_args (ENTITY_DEBUG_LOCAL, ENTITY_DEBUG_INT_VALUE, en, type, value);
; 96   : 
; 97   : 	#endif
; 98   : 
; 99   : 	raw = (keysite *) get_local_entity_data (en);

  00009	8b 45 08	 mov	 eax, DWORD PTR _en$[ebp]
  0000c	8b 48 04	 mov	 ecx, DWORD PTR [eax+4]
  0000f	89 4d fc	 mov	 DWORD PTR _raw$[ebp], ecx

; 100  : 
; 101  : 	switch (type)

  00012	8b 45 0c	 mov	 eax, DWORD PTR _type$[ebp]
  00015	89 45 b8	 mov	 DWORD PTR tv65[ebp], eax
  00018	8b 4d b8	 mov	 ecx, DWORD PTR tv65[ebp]
  0001b	83 e9 07	 sub	 ecx, 7
  0001e	89 4d b8	 mov	 DWORD PTR tv65[ebp], ecx
  00021	81 7d b8 b4 00
	00 00		 cmp	 DWORD PTR tv65[ebp], 180 ; 000000b4H
  00028	0f 87 34 01 00
	00		 ja	 $LN12@set_local_
  0002e	8b 55 b8	 mov	 edx, DWORD PTR tv65[ebp]
  00031	0f b6 82 00 00
	00 00		 movzx	 eax, BYTE PTR $LN16@set_local_[edx]
  00038	ff 24 85 00 00
	00 00		 jmp	 DWORD PTR $LN17@set_local_[eax*4]
$LN4@set_local_:

; 102  : 	{
; 103  : 		////////////////////////////////////////
; 104  : 		case INT_TYPE_ALIVE:
; 105  : 		////////////////////////////////////////
; 106  : 		{
; 107  : 			raw->alive = value;

  0003f	8b 45 10	 mov	 eax, DWORD PTR _value$[ebp]
  00042	83 e0 01	 and	 eax, 1
  00045	c1 e0 18	 shl	 eax, 24			; 00000018H
  00048	8b 4d fc	 mov	 ecx, DWORD PTR _raw$[ebp]
  0004b	8b 91 a0 01 00
	00		 mov	 edx, DWORD PTR [ecx+416]
  00051	81 e2 ff ff ff
	fe		 and	 edx, -16777217		; feffffffH
  00057	0b d0		 or	 edx, eax
  00059	8b 45 fc	 mov	 eax, DWORD PTR _raw$[ebp]
  0005c	89 90 a0 01 00
	00		 mov	 DWORD PTR [eax+416], edx

; 108  : 
; 109  : 			break;

  00062	e9 6d 01 00 00	 jmp	 $LN1@set_local_
$LN5@set_local_:

; 110  : 		}
; 111  : 		////////////////////////////////////////
; 112  : 		case INT_TYPE_ENTITY_SUB_TYPE:
; 113  : 		////////////////////////////////////////
; 114  : 		{
; 115  : 			raw->sub_type = value;

  00067	8b 45 fc	 mov	 eax, DWORD PTR _raw$[ebp]
  0006a	8b 4d 10	 mov	 ecx, DWORD PTR _value$[ebp]
  0006d	89 08		 mov	 DWORD PTR [eax], ecx

; 116  : 
; 117  : 			break;

  0006f	e9 60 01 00 00	 jmp	 $LN1@set_local_
$LN6@set_local_:

; 118  : 		}
; 119  : 		////////////////////////////////////////
; 120  : 		case INT_TYPE_IN_USE:
; 121  : 		////////////////////////////////////////
; 122  : 		{
; 123  : 			raw->in_use = value;

  00074	8b 45 10	 mov	 eax, DWORD PTR _value$[ebp]
  00077	83 e0 01	 and	 eax, 1
  0007a	c1 e0 19	 shl	 eax, 25			; 00000019H
  0007d	8b 4d fc	 mov	 ecx, DWORD PTR _raw$[ebp]
  00080	8b 91 a0 01 00
	00		 mov	 edx, DWORD PTR [ecx+416]
  00086	81 e2 ff ff ff
	fd		 and	 edx, -33554433		; fdffffffH
  0008c	0b d0		 or	 edx, eax
  0008e	8b 45 fc	 mov	 eax, DWORD PTR _raw$[ebp]
  00091	89 90 a0 01 00
	00		 mov	 DWORD PTR [eax+416], edx

; 124  : 
; 125  : 			break;

  00097	e9 38 01 00 00	 jmp	 $LN1@set_local_
$LN7@set_local_:

; 126  : 		}
; 127  : 		////////////////////////////////////////
; 128  : 		case INT_TYPE_KEYSITE_ID:
; 129  : 		////////////////////////////////////////
; 130  : 		{
; 131  : 			raw->keysite_id = value;

  0009c	8b 45 10	 mov	 eax, DWORD PTR _value$[ebp]
  0009f	25 ff 00 00 00	 and	 eax, 255		; 000000ffH
  000a4	8b 4d fc	 mov	 ecx, DWORD PTR _raw$[ebp]
  000a7	8b 91 a0 01 00
	00		 mov	 edx, DWORD PTR [ecx+416]
  000ad	81 e2 00 ff ff
	ff		 and	 edx, -256		; ffffff00H
  000b3	0b d0		 or	 edx, eax
  000b5	8b 45 fc	 mov	 eax, DWORD PTR _raw$[ebp]
  000b8	89 90 a0 01 00
	00		 mov	 DWORD PTR [eax+416], edx

; 132  : 
; 133  : 			break;

  000be	e9 11 01 00 00	 jmp	 $LN1@set_local_
$LN8@set_local_:

; 134  : 		}
; 135  : 		////////////////////////////////////////
; 136  : 		case INT_TYPE_KEYSITE_USABLE_STATE:
; 137  : 		////////////////////////////////////////
; 138  : 		{
; 139  : 			raw->keysite_usable_state = value;

  000c3	8b 45 10	 mov	 eax, DWORD PTR _value$[ebp]
  000c6	83 e0 07	 and	 eax, 7
  000c9	c1 e0 1a	 shl	 eax, 26			; 0000001aH
  000cc	8b 4d fc	 mov	 ecx, DWORD PTR _raw$[ebp]
  000cf	8b 91 a0 01 00
	00		 mov	 edx, DWORD PTR [ecx+416]
  000d5	81 e2 ff ff ff
	e3		 and	 edx, -469762049		; e3ffffffH
  000db	0b d0		 or	 edx, eax
  000dd	8b 45 fc	 mov	 eax, DWORD PTR _raw$[ebp]
  000e0	89 90 a0 01 00
	00		 mov	 DWORD PTR [eax+416], edx

; 140  : 
; 141  : 			break;

  000e6	e9 e9 00 00 00	 jmp	 $LN1@set_local_
$LN9@set_local_:

; 142  : 		}
; 143  : 		////////////////////////////////////////
; 144  : 		case INT_TYPE_LANDING_TYPES:
; 145  : 		////////////////////////////////////////
; 146  : 		{
; 147  : 			raw->landing_types = value;

  000eb	8b 45 10	 mov	 eax, DWORD PTR _value$[ebp]
  000ee	83 e0 0f	 and	 eax, 15			; 0000000fH
  000f1	c1 e0 14	 shl	 eax, 20			; 00000014H
  000f4	8b 4d fc	 mov	 ecx, DWORD PTR _raw$[ebp]
  000f7	8b 91 a0 01 00
	00		 mov	 edx, DWORD PTR [ecx+416]
  000fd	81 e2 ff ff 0f
	ff		 and	 edx, -15728641		; ff0fffffH
  00103	0b d0		 or	 edx, eax
  00105	8b 45 fc	 mov	 eax, DWORD PTR _raw$[ebp]
  00108	89 90 a0 01 00
	00		 mov	 DWORD PTR [eax+416], edx

; 148  : 
; 149  : 			break;

  0010e	e9 c1 00 00 00	 jmp	 $LN1@set_local_
$LN10@set_local_:

; 150  : 		}
; 151  : 		////////////////////////////////////////
; 152  : 		case INT_TYPE_OBJECT_INDEX:
; 153  : 		////////////////////////////////////////
; 154  : 		{
; 155  : 			raw->object_index = value;

  00113	8b 45 10	 mov	 eax, DWORD PTR _value$[ebp]
  00116	25 ff 0f 00 00	 and	 eax, 4095		; 00000fffH
  0011b	c1 e0 08	 shl	 eax, 8
  0011e	8b 4d fc	 mov	 ecx, DWORD PTR _raw$[ebp]
  00121	8b 91 a0 01 00
	00		 mov	 edx, DWORD PTR [ecx+416]
  00127	81 e2 ff 00 f0
	ff		 and	 edx, -1048321		; fff000ffH
  0012d	0b d0		 or	 edx, eax
  0012f	8b 45 fc	 mov	 eax, DWORD PTR _raw$[ebp]
  00132	89 90 a0 01 00
	00		 mov	 DWORD PTR [eax+416], edx

; 156  : 
; 157  : 			break;

  00138	e9 97 00 00 00	 jmp	 $LN1@set_local_
$LN11@set_local_:

; 158  : 		}
; 159  : 		////////////////////////////////////////
; 160  : 		case INT_TYPE_SIDE:
; 161  : 		////////////////////////////////////////
; 162  : 		{
; 163  : 			raw->side = value;

  0013d	8b 45 10	 mov	 eax, DWORD PTR _value$[ebp]
  00140	83 e0 03	 and	 eax, 3
  00143	c1 e0 1d	 shl	 eax, 29			; 0000001dH
  00146	8b 4d fc	 mov	 ecx, DWORD PTR _raw$[ebp]
  00149	8b 91 a0 01 00
	00		 mov	 edx, DWORD PTR [ecx+416]
  0014f	81 e2 ff ff ff
	9f		 and	 edx, -1610612737	; 9fffffffH
  00155	0b d0		 or	 edx, eax
  00157	8b 45 fc	 mov	 eax, DWORD PTR _raw$[ebp]
  0015a	89 90 a0 01 00
	00		 mov	 DWORD PTR [eax+416], edx

; 164  : 
; 165  : 			break;

  00160	eb 72		 jmp	 SHORT $LN1@set_local_
$LN12@set_local_:

; 166  : 		}
; 167  : 		////////////////////////////////////////
; 168  : 		default:
; 169  : 		////////////////////////////////////////
; 170  : 		{
; 171  : 			debug_fatal_invalid_int_type (en, type);

  00162	83 7d 08 00	 cmp	 DWORD PTR _en$[ebp], 0
  00166	74 0a		 je	 SHORT $LN14@set_local_
  00168	8b 45 08	 mov	 eax, DWORD PTR _en$[ebp]
  0016b	8b 08		 mov	 ecx, DWORD PTR [eax]
  0016d	89 4d b8	 mov	 DWORD PTR tv156[ebp], ecx
  00170	eb 21		 jmp	 SHORT $LN15@set_local_
$LN14@set_local_:
  00172	8b 15 00 00 00
	00		 mov	 edx, DWORD PTR ?__LINE__Var@?0??set_local_int_value@@YGXPAUENTITY@@W4INT_TYPES@@H@Z@4JA
  00178	83 c2 52	 add	 edx, 82			; 00000052H
  0017b	52		 push	 edx
  0017c	68 00 00 00 00	 push	 OFFSET ??_C@_0EM@GPGBDALB@c?3?2users?2nhv90?2projects?2eech?2ap@
  00181	a1 00 00 00 00	 mov	 eax, DWORD PTR ?null_entity_pointer_message@@3PBDB ; null_entity_pointer_message
  00186	50		 push	 eax
  00187	e8 00 00 00 00	 call	 ?process_assert@@YGXPBD0H@Z ; process_assert
  0018c	c7 45 b8 00 00
	00 00		 mov	 DWORD PTR tv156[ebp], 0
$LN15@set_local_:
  00193	8b 0d 00 00 00
	00		 mov	 ecx, DWORD PTR ?__LINE__Var@?0??set_local_int_value@@YGXPAUENTITY@@W4INT_TYPES@@H@Z@4JA
  00199	83 c1 52	 add	 ecx, 82			; 00000052H
  0019c	51		 push	 ecx
  0019d	68 00 00 00 00	 push	 OFFSET ??_C@_0EM@GPGBDALB@c?3?2users?2nhv90?2projects?2eech?2ap@
  001a2	6b 55 0c 14	 imul	 edx, DWORD PTR _type$[ebp], 20
  001a6	8b 82 00 00 00
	00		 mov	 eax, DWORD PTR ?int_type_database@@3PAUINT_TYPE_DATA@@A[edx]
  001ac	50		 push	 eax
  001ad	8b 4d 08	 mov	 ecx, DWORD PTR _en$[ebp]
  001b0	2b 0d 00 00 00
	00		 sub	 ecx, DWORD PTR ?entities@@3PAUENTITY@@A ; entities
  001b6	c1 f9 04	 sar	 ecx, 4
  001b9	51		 push	 ecx
  001ba	6b 55 b8 0c	 imul	 edx, DWORD PTR tv156[ebp], 12
  001be	8b 82 00 00 00
	00		 mov	 eax, DWORD PTR ?entity_type_database@@3PAUENTITY_TYPE_DATA@@A[edx]
  001c4	50		 push	 eax
  001c5	8b 0d 00 00 00
	00		 mov	 ecx, DWORD PTR ?debug_fatal_invalid_int_type_message@@3PBDB ; debug_fatal_invalid_int_type_message
  001cb	51		 push	 ecx
  001cc	e8 00 00 00 00	 call	 ?debug_fatal@@YAXPBDZZ	; debug_fatal
  001d1	83 c4 18	 add	 esp, 24			; 00000018H
$LN1@set_local_:

; 172  : 
; 173  : 			break;
; 174  : 		}
; 175  : 	}
; 176  : }

  001d4	5f		 pop	 edi
  001d5	5e		 pop	 esi
  001d6	5b		 pop	 ebx
  001d7	8b e5		 mov	 esp, ebp
  001d9	5d		 pop	 ebp
  001da	c2 0c 00	 ret	 12			; 0000000cH
  001dd	0f 1f 00	 npad	 3
$LN17@set_local_:
  001e0	00 00 00 00	 DD	 $LN4@set_local_
  001e4	00 00 00 00	 DD	 $LN5@set_local_
  001e8	00 00 00 00	 DD	 $LN6@set_local_
  001ec	00 00 00 00	 DD	 $LN7@set_local_
  001f0	00 00 00 00	 DD	 $LN8@set_local_
  001f4	00 00 00 00	 DD	 $LN9@set_local_
  001f8	00 00 00 00	 DD	 $LN10@set_local_
  001fc	00 00 00 00	 DD	 $LN11@set_local_
  00200	00 00 00 00	 DD	 $LN12@set_local_
$LN16@set_local_:
  00204	00		 DB	 0
  00205	08		 DB	 8
  00206	08		 DB	 8
  00207	08		 DB	 8
  00208	08		 DB	 8
  00209	08		 DB	 8
  0020a	08		 DB	 8
  0020b	08		 DB	 8
  0020c	08		 DB	 8
  0020d	08		 DB	 8
  0020e	08		 DB	 8
  0020f	08		 DB	 8
  00210	08		 DB	 8
  00211	08		 DB	 8
  00212	08		 DB	 8
  00213	08		 DB	 8
  00214	08		 DB	 8
  00215	08		 DB	 8
  00216	08		 DB	 8
  00217	08		 DB	 8
  00218	08		 DB	 8
  00219	08		 DB	 8
  0021a	08		 DB	 8
  0021b	08		 DB	 8
  0021c	08		 DB	 8
  0021d	08		 DB	 8
  0021e	08		 DB	 8
  0021f	08		 DB	 8
  00220	08		 DB	 8
  00221	08		 DB	 8
  00222	08		 DB	 8
  00223	08		 DB	 8
  00224	08		 DB	 8
  00225	08		 DB	 8
  00226	08		 DB	 8
  00227	08		 DB	 8
  00228	08		 DB	 8
  00229	08		 DB	 8
  0022a	08		 DB	 8
  0022b	08		 DB	 8
  0022c	08		 DB	 8
  0022d	08		 DB	 8
  0022e	08		 DB	 8
  0022f	08		 DB	 8
  00230	08		 DB	 8
  00231	01		 DB	 1
  00232	08		 DB	 8
  00233	08		 DB	 8
  00234	08		 DB	 8
  00235	08		 DB	 8
  00236	08		 DB	 8
  00237	08		 DB	 8
  00238	08		 DB	 8
  00239	08		 DB	 8
  0023a	08		 DB	 8
  0023b	08		 DB	 8
  0023c	08		 DB	 8
  0023d	08		 DB	 8
  0023e	08		 DB	 8
  0023f	08		 DB	 8
  00240	08		 DB	 8
  00241	08		 DB	 8
  00242	08		 DB	 8
  00243	08		 DB	 8
  00244	08		 DB	 8
  00245	08		 DB	 8
  00246	08		 DB	 8
  00247	08		 DB	 8
  00248	08		 DB	 8
  00249	08		 DB	 8
  0024a	08		 DB	 8
  0024b	08		 DB	 8
  0024c	08		 DB	 8
  0024d	08		 DB	 8
  0024e	08		 DB	 8
  0024f	08		 DB	 8
  00250	08		 DB	 8
  00251	08		 DB	 8
  00252	08		 DB	 8
  00253	08		 DB	 8
  00254	08		 DB	 8
  00255	08		 DB	 8
  00256	08		 DB	 8
  00257	08		 DB	 8
  00258	08		 DB	 8
  00259	08		 DB	 8
  0025a	08		 DB	 8
  0025b	08		 DB	 8
  0025c	08		 DB	 8
  0025d	08		 DB	 8
  0025e	08		 DB	 8
  0025f	08		 DB	 8
  00260	08		 DB	 8
  00261	08		 DB	 8
  00262	08		 DB	 8
  00263	08		 DB	 8
  00264	08		 DB	 8
  00265	08		 DB	 8
  00266	08		 DB	 8
  00267	08		 DB	 8
  00268	08		 DB	 8
  00269	08		 DB	 8
  0026a	02		 DB	 2
  0026b	08		 DB	 8
  0026c	03		 DB	 3
  0026d	04		 DB	 4
  0026e	08		 DB	 8
  0026f	08		 DB	 8
  00270	08		 DB	 8
  00271	08		 DB	 8
  00272	08		 DB	 8
  00273	08		 DB	 8
  00274	05		 DB	 5
  00275	08		 DB	 8
  00276	08		 DB	 8
  00277	08		 DB	 8
  00278	08		 DB	 8
  00279	08		 DB	 8
  0027a	08		 DB	 8
  0027b	08		 DB	 8
  0027c	08		 DB	 8
  0027d	08		 DB	 8
  0027e	08		 DB	 8
  0027f	08		 DB	 8
  00280	08		 DB	 8
  00281	08		 DB	 8
  00282	08		 DB	 8
  00283	08		 DB	 8
  00284	08		 DB	 8
  00285	08		 DB	 8
  00286	08		 DB	 8
  00287	08		 DB	 8
  00288	08		 DB	 8
  00289	08		 DB	 8
  0028a	08		 DB	 8
  0028b	08		 DB	 8
  0028c	08		 DB	 8
  0028d	08		 DB	 8
  0028e	08		 DB	 8
  0028f	08		 DB	 8
  00290	08		 DB	 8
  00291	06		 DB	 6
  00292	08		 DB	 8
  00293	08		 DB	 8
  00294	08		 DB	 8
  00295	08		 DB	 8
  00296	08		 DB	 8
  00297	08		 DB	 8
  00298	08		 DB	 8
  00299	08		 DB	 8
  0029a	08		 DB	 8
  0029b	08		 DB	 8
  0029c	08		 DB	 8
  0029d	08		 DB	 8
  0029e	08		 DB	 8
  0029f	08		 DB	 8
  002a0	08		 DB	 8
  002a1	08		 DB	 8
  002a2	08		 DB	 8
  002a3	08		 DB	 8
  002a4	08		 DB	 8
  002a5	08		 DB	 8
  002a6	08		 DB	 8
  002a7	08		 DB	 8
  002a8	08		 DB	 8
  002a9	08		 DB	 8
  002aa	08		 DB	 8
  002ab	08		 DB	 8
  002ac	08		 DB	 8
  002ad	08		 DB	 8
  002ae	08		 DB	 8
  002af	08		 DB	 8
  002b0	08		 DB	 8
  002b1	08		 DB	 8
  002b2	08		 DB	 8
  002b3	08		 DB	 8
  002b4	08		 DB	 8
  002b5	08		 DB	 8
  002b6	08		 DB	 8
  002b7	08		 DB	 8
  002b8	07		 DB	 7
?set_local_int_value@@YGXPAUENTITY@@W4INT_TYPES@@H@Z ENDP ; set_local_int_value
_TEXT	ENDS
; Function compile flags: /Odtp /ZI
; File c:\users\nhv90\projects\eech\aphavoc\source\entity\special\keysite\ks_int.c
;	COMDAT ?overload_keysite_int_value_functions@@YGXXZ
_TEXT	SEGMENT
?overload_keysite_int_value_functions@@YGXXZ PROC	; overload_keysite_int_value_functions, COMDAT

; 358  : {

  00000	55		 push	 ebp
  00001	8b ec		 mov	 ebp, esp
  00003	83 ec 40	 sub	 esp, 64			; 00000040H
  00006	53		 push	 ebx
  00007	56		 push	 esi
  00008	57		 push	 edi

; 359  : 	fn_get_local_entity_int_value				[ENTITY_TYPE_KEYSITE][INT_TYPE_ALIGN_WITH_TERRAIN]							= get_local_int_value;

  00009	b8 5c 04 00 00	 mov	 eax, 1116		; 0000045cH
  0000e	6b c8 0f	 imul	 ecx, eax, 15
  00011	ba 04 00 00 00	 mov	 edx, 4
  00016	6b c2 06	 imul	 eax, edx, 6
  00019	c7 84 01 00 00
	00 00 00 00 00
	00		 mov	 DWORD PTR ?fn_get_local_entity_int_value@@3PAY0BBH@P6GHPAUENTITY@@W4INT_TYPES@@@ZA[ecx+eax], OFFSET ?get_local_int_value@@YGHPAUENTITY@@W4INT_TYPES@@@Z ; get_local_int_value

; 360  : 
; 361  : 	fn_set_local_entity_raw_int_value		[ENTITY_TYPE_KEYSITE][INT_TYPE_ALIVE]											= set_local_int_value;

  00024	b8 5c 04 00 00	 mov	 eax, 1116		; 0000045cH
  00029	6b c8 0f	 imul	 ecx, eax, 15
  0002c	ba 04 00 00 00	 mov	 edx, 4
  00031	6b c2 07	 imul	 eax, edx, 7
  00034	c7 84 01 00 00
	00 00 00 00 00
	00		 mov	 DWORD PTR ?fn_set_local_entity_raw_int_value@@3PAY0BBH@P6GXPAUENTITY@@W4INT_TYPES@@H@ZA[ecx+eax], OFFSET ?set_local_int_value@@YGXPAUENTITY@@W4INT_TYPES@@H@Z ; set_local_int_value

; 362  : 	fn_set_local_entity_int_value				[ENTITY_TYPE_KEYSITE][INT_TYPE_ALIVE]											= set_local_int_value;

  0003f	b8 5c 04 00 00	 mov	 eax, 1116		; 0000045cH
  00044	6b c8 0f	 imul	 ecx, eax, 15
  00047	ba 04 00 00 00	 mov	 edx, 4
  0004c	6b c2 07	 imul	 eax, edx, 7
  0004f	c7 84 01 00 00
	00 00 00 00 00
	00		 mov	 DWORD PTR ?fn_set_local_entity_int_value@@3PAY0BBH@P6GXPAUENTITY@@W4INT_TYPES@@H@ZA[ecx+eax], OFFSET ?set_local_int_value@@YGXPAUENTITY@@W4INT_TYPES@@H@Z ; set_local_int_value

; 363  : 	fn_set_client_server_entity_int_value	[ENTITY_TYPE_KEYSITE][INT_TYPE_ALIVE][COMMS_MODEL_SERVER]				= set_server_int_value;

  0005a	b8 b8 08 00 00	 mov	 eax, 2232		; 000008b8H
  0005f	6b c8 0f	 imul	 ecx, eax, 15
  00062	ba 08 00 00 00	 mov	 edx, 8
  00067	6b c2 07	 imul	 eax, edx, 7
  0006a	8d 8c 01 00 00
	00 00		 lea	 ecx, DWORD PTR ?fn_set_client_server_entity_int_value@@3PAY1BBH@1P6GXPAUENTITY@@W4INT_TYPES@@H@ZA[ecx+eax]
  00071	ba 04 00 00 00	 mov	 edx, 4
  00076	6b c2 00	 imul	 eax, edx, 0
  00079	c7 04 01 00 00
	00 00		 mov	 DWORD PTR [ecx+eax], OFFSET ?set_server_int_value@@YGXPAUENTITY@@W4INT_TYPES@@H@Z ; set_server_int_value

; 364  : 	fn_set_client_server_entity_int_value	[ENTITY_TYPE_KEYSITE][INT_TYPE_ALIVE][COMMS_MODEL_CLIENT]				= set_client_int_value;

  00080	b8 b8 08 00 00	 mov	 eax, 2232		; 000008b8H
  00085	6b c8 0f	 imul	 ecx, eax, 15
  00088	ba 08 00 00 00	 mov	 edx, 8
  0008d	6b c2 07	 imul	 eax, edx, 7
  00090	8d 8c 01 00 00
	00 00		 lea	 ecx, DWORD PTR ?fn_set_client_server_entity_int_value@@3PAY1BBH@1P6GXPAUENTITY@@W4INT_TYPES@@H@ZA[ecx+eax]
  00097	ba 04 00 00 00	 mov	 edx, 4
  0009c	c1 e2 00	 shl	 edx, 0
  0009f	c7 04 11 00 00
	00 00		 mov	 DWORD PTR [ecx+edx], OFFSET ?set_client_int_value@@YGXPAUENTITY@@W4INT_TYPES@@H@Z ; set_client_int_value

; 365  : 	fn_get_local_entity_int_value				[ENTITY_TYPE_KEYSITE][INT_TYPE_ALIVE]											= get_local_int_value;

  000a6	b8 5c 04 00 00	 mov	 eax, 1116		; 0000045cH
  000ab	6b c8 0f	 imul	 ecx, eax, 15
  000ae	ba 04 00 00 00	 mov	 edx, 4
  000b3	6b c2 07	 imul	 eax, edx, 7
  000b6	c7 84 01 00 00
	00 00 00 00 00
	00		 mov	 DWORD PTR ?fn_get_local_entity_int_value@@3PAY0BBH@P6GHPAUENTITY@@W4INT_TYPES@@@ZA[ecx+eax], OFFSET ?get_local_int_value@@YGHPAUENTITY@@W4INT_TYPES@@@Z ; get_local_int_value

; 366  : 
; 367  : 	fn_set_local_entity_raw_int_value		[ENTITY_TYPE_KEYSITE][INT_TYPE_ENTITY_SUB_TYPE]								= set_local_int_value;

  000c1	b8 5c 04 00 00	 mov	 eax, 1116		; 0000045cH
  000c6	6b c8 0f	 imul	 ecx, eax, 15
  000c9	ba 04 00 00 00	 mov	 edx, 4
  000ce	6b c2 34	 imul	 eax, edx, 52
  000d1	c7 84 01 00 00
	00 00 00 00 00
	00		 mov	 DWORD PTR ?fn_set_local_entity_raw_int_value@@3PAY0BBH@P6GXPAUENTITY@@W4INT_TYPES@@H@ZA[ecx+eax], OFFSET ?set_local_int_value@@YGXPAUENTITY@@W4INT_TYPES@@H@Z ; set_local_int_value

; 368  : 	fn_set_local_entity_int_value				[ENTITY_TYPE_KEYSITE][INT_TYPE_ENTITY_SUB_TYPE]								= set_local_int_value;

  000dc	b8 5c 04 00 00	 mov	 eax, 1116		; 0000045cH
  000e1	6b c8 0f	 imul	 ecx, eax, 15
  000e4	ba 04 00 00 00	 mov	 edx, 4
  000e9	6b c2 34	 imul	 eax, edx, 52
  000ec	c7 84 01 00 00
	00 00 00 00 00
	00		 mov	 DWORD PTR ?fn_set_local_entity_int_value@@3PAY0BBH@P6GXPAUENTITY@@W4INT_TYPES@@H@ZA[ecx+eax], OFFSET ?set_local_int_value@@YGXPAUENTITY@@W4INT_TYPES@@H@Z ; set_local_int_value

; 369  : 	fn_set_client_server_entity_int_value	[ENTITY_TYPE_KEYSITE][INT_TYPE_ENTITY_SUB_TYPE][COMMS_MODEL_SERVER]	= set_server_int_value;

  000f7	b8 b8 08 00 00	 mov	 eax, 2232		; 000008b8H
  000fc	6b c8 0f	 imul	 ecx, eax, 15
  000ff	ba 08 00 00 00	 mov	 edx, 8
  00104	6b c2 34	 imul	 eax, edx, 52
  00107	8d 8c 01 00 00
	00 00		 lea	 ecx, DWORD PTR ?fn_set_client_server_entity_int_value@@3PAY1BBH@1P6GXPAUENTITY@@W4INT_TYPES@@H@ZA[ecx+eax]
  0010e	ba 04 00 00 00	 mov	 edx, 4
  00113	6b c2 00	 imul	 eax, edx, 0
  00116	c7 04 01 00 00
	00 00		 mov	 DWORD PTR [ecx+eax], OFFSET ?set_server_int_value@@YGXPAUENTITY@@W4INT_TYPES@@H@Z ; set_server_int_value

; 370  : 	fn_set_client_server_entity_int_value	[ENTITY_TYPE_KEYSITE][INT_TYPE_ENTITY_SUB_TYPE][COMMS_MODEL_CLIENT]	= set_client_int_value;

  0011d	b8 b8 08 00 00	 mov	 eax, 2232		; 000008b8H
  00122	6b c8 0f	 imul	 ecx, eax, 15
  00125	ba 08 00 00 00	 mov	 edx, 8
  0012a	6b c2 34	 imul	 eax, edx, 52
  0012d	8d 8c 01 00 00
	00 00		 lea	 ecx, DWORD PTR ?fn_set_client_server_entity_int_value@@3PAY1BBH@1P6GXPAUENTITY@@W4INT_TYPES@@H@ZA[ecx+eax]
  00134	ba 04 00 00 00	 mov	 edx, 4
  00139	c1 e2 00	 shl	 edx, 0
  0013c	c7 04 11 00 00
	00 00		 mov	 DWORD PTR [ecx+edx], OFFSET ?set_client_int_value@@YGXPAUENTITY@@W4INT_TYPES@@H@Z ; set_client_int_value

; 371  : 	fn_get_local_entity_int_value				[ENTITY_TYPE_KEYSITE][INT_TYPE_ENTITY_SUB_TYPE]								= get_local_int_value;

  00143	b8 5c 04 00 00	 mov	 eax, 1116		; 0000045cH
  00148	6b c8 0f	 imul	 ecx, eax, 15
  0014b	ba 04 00 00 00	 mov	 edx, 4
  00150	6b c2 34	 imul	 eax, edx, 52
  00153	c7 84 01 00 00
	00 00 00 00 00
	00		 mov	 DWORD PTR ?fn_get_local_entity_int_value@@3PAY0BBH@P6GHPAUENTITY@@W4INT_TYPES@@@ZA[ecx+eax], OFFSET ?get_local_int_value@@YGHPAUENTITY@@W4INT_TYPES@@@Z ; get_local_int_value

; 372  : 
; 373  : 	fn_get_local_entity_int_value				[ENTITY_TYPE_KEYSITE][INT_TYPE_HIDDEN_BY_FOG_OF_WAR]						= get_local_int_value;

  0015e	b8 5c 04 00 00	 mov	 eax, 1116		; 0000045cH
  00163	6b c8 0f	 imul	 ecx, eax, 15
  00166	ba 04 00 00 00	 mov	 edx, 4
  0016b	6b c2 56	 imul	 eax, edx, 86
  0016e	c7 84 01 00 00
	00 00 00 00 00
	00		 mov	 DWORD PTR ?fn_get_local_entity_int_value@@3PAY0BBH@P6GHPAUENTITY@@W4INT_TYPES@@@ZA[ecx+eax], OFFSET ?get_local_int_value@@YGHPAUENTITY@@W4INT_TYPES@@@Z ; get_local_int_value

; 374  : 
; 375  : 	fn_set_local_entity_raw_int_value		[ENTITY_TYPE_KEYSITE][INT_TYPE_IN_USE]											= set_local_int_value;

  00179	b8 5c 04 00 00	 mov	 eax, 1116		; 0000045cH
  0017e	6b c8 0f	 imul	 ecx, eax, 15
  00181	ba 04 00 00 00	 mov	 edx, 4
  00186	6b c2 6d	 imul	 eax, edx, 109
  00189	c7 84 01 00 00
	00 00 00 00 00
	00		 mov	 DWORD PTR ?fn_set_local_entity_raw_int_value@@3PAY0BBH@P6GXPAUENTITY@@W4INT_TYPES@@H@ZA[ecx+eax], OFFSET ?set_local_int_value@@YGXPAUENTITY@@W4INT_TYPES@@H@Z ; set_local_int_value

; 376  : 	fn_set_local_entity_int_value				[ENTITY_TYPE_KEYSITE][INT_TYPE_IN_USE]											= set_local_int_value;

  00194	b8 5c 04 00 00	 mov	 eax, 1116		; 0000045cH
  00199	6b c8 0f	 imul	 ecx, eax, 15
  0019c	ba 04 00 00 00	 mov	 edx, 4
  001a1	6b c2 6d	 imul	 eax, edx, 109
  001a4	c7 84 01 00 00
	00 00 00 00 00
	00		 mov	 DWORD PTR ?fn_set_local_entity_int_value@@3PAY0BBH@P6GXPAUENTITY@@W4INT_TYPES@@H@ZA[ecx+eax], OFFSET ?set_local_int_value@@YGXPAUENTITY@@W4INT_TYPES@@H@Z ; set_local_int_value

; 377  : 	fn_set_client_server_entity_int_value	[ENTITY_TYPE_KEYSITE][INT_TYPE_IN_USE][COMMS_MODEL_SERVER]				= set_server_int_value;

  001af	b8 b8 08 00 00	 mov	 eax, 2232		; 000008b8H
  001b4	6b c8 0f	 imul	 ecx, eax, 15
  001b7	ba 08 00 00 00	 mov	 edx, 8
  001bc	6b c2 6d	 imul	 eax, edx, 109
  001bf	8d 8c 01 00 00
	00 00		 lea	 ecx, DWORD PTR ?fn_set_client_server_entity_int_value@@3PAY1BBH@1P6GXPAUENTITY@@W4INT_TYPES@@H@ZA[ecx+eax]
  001c6	ba 04 00 00 00	 mov	 edx, 4
  001cb	6b c2 00	 imul	 eax, edx, 0
  001ce	c7 04 01 00 00
	00 00		 mov	 DWORD PTR [ecx+eax], OFFSET ?set_server_int_value@@YGXPAUENTITY@@W4INT_TYPES@@H@Z ; set_server_int_value

; 378  : 	fn_set_client_server_entity_int_value	[ENTITY_TYPE_KEYSITE][INT_TYPE_IN_USE][COMMS_MODEL_CLIENT]				= set_client_int_value;

  001d5	b8 b8 08 00 00	 mov	 eax, 2232		; 000008b8H
  001da	6b c8 0f	 imul	 ecx, eax, 15
  001dd	ba 08 00 00 00	 mov	 edx, 8
  001e2	6b c2 6d	 imul	 eax, edx, 109
  001e5	8d 8c 01 00 00
	00 00		 lea	 ecx, DWORD PTR ?fn_set_client_server_entity_int_value@@3PAY1BBH@1P6GXPAUENTITY@@W4INT_TYPES@@H@ZA[ecx+eax]
  001ec	ba 04 00 00 00	 mov	 edx, 4
  001f1	c1 e2 00	 shl	 edx, 0
  001f4	c7 04 11 00 00
	00 00		 mov	 DWORD PTR [ecx+edx], OFFSET ?set_client_int_value@@YGXPAUENTITY@@W4INT_TYPES@@H@Z ; set_client_int_value

; 379  : 	fn_get_local_entity_int_value				[ENTITY_TYPE_KEYSITE][INT_TYPE_IN_USE]											= get_local_int_value;

  001fb	b8 5c 04 00 00	 mov	 eax, 1116		; 0000045cH
  00200	6b c8 0f	 imul	 ecx, eax, 15
  00203	ba 04 00 00 00	 mov	 edx, 4
  00208	6b c2 6d	 imul	 eax, edx, 109
  0020b	c7 84 01 00 00
	00 00 00 00 00
	00		 mov	 DWORD PTR ?fn_get_local_entity_int_value@@3PAY0BBH@P6GHPAUENTITY@@W4INT_TYPES@@@ZA[ecx+eax], OFFSET ?get_local_int_value@@YGHPAUENTITY@@W4INT_TYPES@@@Z ; get_local_int_value

; 380  : 
; 381  : 	fn_set_local_entity_raw_int_value		[ENTITY_TYPE_KEYSITE][INT_TYPE_KEYSITE_ID]									= set_local_int_value;

  00216	b8 5c 04 00 00	 mov	 eax, 1116		; 0000045cH
  0021b	6b c8 0f	 imul	 ecx, eax, 15
  0021e	ba 04 00 00 00	 mov	 edx, 4
  00223	6b c2 6f	 imul	 eax, edx, 111
  00226	c7 84 01 00 00
	00 00 00 00 00
	00		 mov	 DWORD PTR ?fn_set_local_entity_raw_int_value@@3PAY0BBH@P6GXPAUENTITY@@W4INT_TYPES@@H@ZA[ecx+eax], OFFSET ?set_local_int_value@@YGXPAUENTITY@@W4INT_TYPES@@H@Z ; set_local_int_value

; 382  : 	fn_set_local_entity_int_value				[ENTITY_TYPE_KEYSITE][INT_TYPE_KEYSITE_ID]									= set_local_int_value;

  00231	b8 5c 04 00 00	 mov	 eax, 1116		; 0000045cH
  00236	6b c8 0f	 imul	 ecx, eax, 15
  00239	ba 04 00 00 00	 mov	 edx, 4
  0023e	6b c2 6f	 imul	 eax, edx, 111
  00241	c7 84 01 00 00
	00 00 00 00 00
	00		 mov	 DWORD PTR ?fn_set_local_entity_int_value@@3PAY0BBH@P6GXPAUENTITY@@W4INT_TYPES@@H@ZA[ecx+eax], OFFSET ?set_local_int_value@@YGXPAUENTITY@@W4INT_TYPES@@H@Z ; set_local_int_value

; 383  : 	fn_set_client_server_entity_int_value	[ENTITY_TYPE_KEYSITE][INT_TYPE_KEYSITE_ID][COMMS_MODEL_SERVER]			= set_server_int_value;

  0024c	b8 b8 08 00 00	 mov	 eax, 2232		; 000008b8H
  00251	6b c8 0f	 imul	 ecx, eax, 15
  00254	ba 08 00 00 00	 mov	 edx, 8
  00259	6b c2 6f	 imul	 eax, edx, 111
  0025c	8d 8c 01 00 00
	00 00		 lea	 ecx, DWORD PTR ?fn_set_client_server_entity_int_value@@3PAY1BBH@1P6GXPAUENTITY@@W4INT_TYPES@@H@ZA[ecx+eax]
  00263	ba 04 00 00 00	 mov	 edx, 4
  00268	6b c2 00	 imul	 eax, edx, 0
  0026b	c7 04 01 00 00
	00 00		 mov	 DWORD PTR [ecx+eax], OFFSET ?set_server_int_value@@YGXPAUENTITY@@W4INT_TYPES@@H@Z ; set_server_int_value

; 384  : 	fn_set_client_server_entity_int_value	[ENTITY_TYPE_KEYSITE][INT_TYPE_KEYSITE_ID][COMMS_MODEL_CLIENT]			= set_client_int_value;

  00272	b8 b8 08 00 00	 mov	 eax, 2232		; 000008b8H
  00277	6b c8 0f	 imul	 ecx, eax, 15
  0027a	ba 08 00 00 00	 mov	 edx, 8
  0027f	6b c2 6f	 imul	 eax, edx, 111
  00282	8d 8c 01 00 00
	00 00		 lea	 ecx, DWORD PTR ?fn_set_client_server_entity_int_value@@3PAY1BBH@1P6GXPAUENTITY@@W4INT_TYPES@@H@ZA[ecx+eax]
  00289	ba 04 00 00 00	 mov	 edx, 4
  0028e	c1 e2 00	 shl	 edx, 0
  00291	c7 04 11 00 00
	00 00		 mov	 DWORD PTR [ecx+edx], OFFSET ?set_client_int_value@@YGXPAUENTITY@@W4INT_TYPES@@H@Z ; set_client_int_value

; 385  : 	fn_get_local_entity_int_value				[ENTITY_TYPE_KEYSITE][INT_TYPE_KEYSITE_ID]									= get_local_int_value;

  00298	b8 5c 04 00 00	 mov	 eax, 1116		; 0000045cH
  0029d	6b c8 0f	 imul	 ecx, eax, 15
  002a0	ba 04 00 00 00	 mov	 edx, 4
  002a5	6b c2 6f	 imul	 eax, edx, 111
  002a8	c7 84 01 00 00
	00 00 00 00 00
	00		 mov	 DWORD PTR ?fn_get_local_entity_int_value@@3PAY0BBH@P6GHPAUENTITY@@W4INT_TYPES@@@ZA[ecx+eax], OFFSET ?get_local_int_value@@YGHPAUENTITY@@W4INT_TYPES@@@Z ; get_local_int_value

; 386  : 
; 387  : 	fn_set_local_entity_raw_int_value		[ENTITY_TYPE_KEYSITE][INT_TYPE_KEYSITE_USABLE_STATE]								= set_local_int_value;

  002b3	b8 5c 04 00 00	 mov	 eax, 1116		; 0000045cH
  002b8	6b c8 0f	 imul	 ecx, eax, 15
  002bb	ba 04 00 00 00	 mov	 edx, 4
  002c0	6b c2 70	 imul	 eax, edx, 112
  002c3	c7 84 01 00 00
	00 00 00 00 00
	00		 mov	 DWORD PTR ?fn_set_local_entity_raw_int_value@@3PAY0BBH@P6GXPAUENTITY@@W4INT_TYPES@@H@ZA[ecx+eax], OFFSET ?set_local_int_value@@YGXPAUENTITY@@W4INT_TYPES@@H@Z ; set_local_int_value

; 388  : 	fn_set_local_entity_int_value				[ENTITY_TYPE_KEYSITE][INT_TYPE_KEYSITE_USABLE_STATE]								= set_local_int_value;

  002ce	b8 5c 04 00 00	 mov	 eax, 1116		; 0000045cH
  002d3	6b c8 0f	 imul	 ecx, eax, 15
  002d6	ba 04 00 00 00	 mov	 edx, 4
  002db	6b c2 70	 imul	 eax, edx, 112
  002de	c7 84 01 00 00
	00 00 00 00 00
	00		 mov	 DWORD PTR ?fn_set_local_entity_int_value@@3PAY0BBH@P6GXPAUENTITY@@W4INT_TYPES@@H@ZA[ecx+eax], OFFSET ?set_local_int_value@@YGXPAUENTITY@@W4INT_TYPES@@H@Z ; set_local_int_value

; 389  : 	fn_set_client_server_entity_int_value	[ENTITY_TYPE_KEYSITE][INT_TYPE_KEYSITE_USABLE_STATE][COMMS_MODEL_SERVER]	= set_server_int_value;

  002e9	b8 b8 08 00 00	 mov	 eax, 2232		; 000008b8H
  002ee	6b c8 0f	 imul	 ecx, eax, 15
  002f1	ba 08 00 00 00	 mov	 edx, 8
  002f6	6b c2 70	 imul	 eax, edx, 112
  002f9	8d 8c 01 00 00
	00 00		 lea	 ecx, DWORD PTR ?fn_set_client_server_entity_int_value@@3PAY1BBH@1P6GXPAUENTITY@@W4INT_TYPES@@H@ZA[ecx+eax]
  00300	ba 04 00 00 00	 mov	 edx, 4
  00305	6b c2 00	 imul	 eax, edx, 0
  00308	c7 04 01 00 00
	00 00		 mov	 DWORD PTR [ecx+eax], OFFSET ?set_server_int_value@@YGXPAUENTITY@@W4INT_TYPES@@H@Z ; set_server_int_value

; 390  : 	fn_set_client_server_entity_int_value	[ENTITY_TYPE_KEYSITE][INT_TYPE_KEYSITE_USABLE_STATE][COMMS_MODEL_CLIENT]	= set_client_int_value;

  0030f	b8 b8 08 00 00	 mov	 eax, 2232		; 000008b8H
  00314	6b c8 0f	 imul	 ecx, eax, 15
  00317	ba 08 00 00 00	 mov	 edx, 8
  0031c	6b c2 70	 imul	 eax, edx, 112
  0031f	8d 8c 01 00 00
	00 00		 lea	 ecx, DWORD PTR ?fn_set_client_server_entity_int_value@@3PAY1BBH@1P6GXPAUENTITY@@W4INT_TYPES@@H@ZA[ecx+eax]
  00326	ba 04 00 00 00	 mov	 edx, 4
  0032b	c1 e2 00	 shl	 edx, 0
  0032e	c7 04 11 00 00
	00 00		 mov	 DWORD PTR [ecx+edx], OFFSET ?set_client_int_value@@YGXPAUENTITY@@W4INT_TYPES@@H@Z ; set_client_int_value

; 391  : 	fn_get_local_entity_int_value				[ENTITY_TYPE_KEYSITE][INT_TYPE_KEYSITE_USABLE_STATE]								= get_local_int_value;

  00335	b8 5c 04 00 00	 mov	 eax, 1116		; 0000045cH
  0033a	6b c8 0f	 imul	 ecx, eax, 15
  0033d	ba 04 00 00 00	 mov	 edx, 4
  00342	6b c2 70	 imul	 eax, edx, 112
  00345	c7 84 01 00 00
	00 00 00 00 00
	00		 mov	 DWORD PTR ?fn_get_local_entity_int_value@@3PAY0BBH@P6GHPAUENTITY@@W4INT_TYPES@@@ZA[ecx+eax], OFFSET ?get_local_int_value@@YGHPAUENTITY@@W4INT_TYPES@@@Z ; get_local_int_value

; 392  : 
; 393  : 	fn_set_local_entity_raw_int_value		[ENTITY_TYPE_KEYSITE][INT_TYPE_LANDING_TYPES]								= set_local_int_value;

  00350	b8 5c 04 00 00	 mov	 eax, 1116		; 0000045cH
  00355	6b c8 0f	 imul	 ecx, eax, 15
  00358	ba 04 00 00 00	 mov	 edx, 4
  0035d	6b c2 77	 imul	 eax, edx, 119
  00360	c7 84 01 00 00
	00 00 00 00 00
	00		 mov	 DWORD PTR ?fn_set_local_entity_raw_int_value@@3PAY0BBH@P6GXPAUENTITY@@W4INT_TYPES@@H@ZA[ecx+eax], OFFSET ?set_local_int_value@@YGXPAUENTITY@@W4INT_TYPES@@H@Z ; set_local_int_value

; 394  : 	fn_set_local_entity_int_value				[ENTITY_TYPE_KEYSITE][INT_TYPE_LANDING_TYPES]								= set_local_int_value;

  0036b	b8 5c 04 00 00	 mov	 eax, 1116		; 0000045cH
  00370	6b c8 0f	 imul	 ecx, eax, 15
  00373	ba 04 00 00 00	 mov	 edx, 4
  00378	6b c2 77	 imul	 eax, edx, 119
  0037b	c7 84 01 00 00
	00 00 00 00 00
	00		 mov	 DWORD PTR ?fn_set_local_entity_int_value@@3PAY0BBH@P6GXPAUENTITY@@W4INT_TYPES@@H@ZA[ecx+eax], OFFSET ?set_local_int_value@@YGXPAUENTITY@@W4INT_TYPES@@H@Z ; set_local_int_value

; 395  : 	fn_set_client_server_entity_int_value	[ENTITY_TYPE_KEYSITE][INT_TYPE_LANDING_TYPES][COMMS_MODEL_SERVER]		= set_server_int_value;

  00386	b8 b8 08 00 00	 mov	 eax, 2232		; 000008b8H
  0038b	6b c8 0f	 imul	 ecx, eax, 15
  0038e	ba 08 00 00 00	 mov	 edx, 8
  00393	6b c2 77	 imul	 eax, edx, 119
  00396	8d 8c 01 00 00
	00 00		 lea	 ecx, DWORD PTR ?fn_set_client_server_entity_int_value@@3PAY1BBH@1P6GXPAUENTITY@@W4INT_TYPES@@H@ZA[ecx+eax]
  0039d	ba 04 00 00 00	 mov	 edx, 4
  003a2	6b c2 00	 imul	 eax, edx, 0
  003a5	c7 04 01 00 00
	00 00		 mov	 DWORD PTR [ecx+eax], OFFSET ?set_server_int_value@@YGXPAUENTITY@@W4INT_TYPES@@H@Z ; set_server_int_value

; 396  : 	fn_set_client_server_entity_int_value	[ENTITY_TYPE_KEYSITE][INT_TYPE_LANDING_TYPES][COMMS_MODEL_CLIENT]		= set_client_int_value;

  003ac	b8 b8 08 00 00	 mov	 eax, 2232		; 000008b8H
  003b1	6b c8 0f	 imul	 ecx, eax, 15
  003b4	ba 08 00 00 00	 mov	 edx, 8
  003b9	6b c2 77	 imul	 eax, edx, 119
  003bc	8d 8c 01 00 00
	00 00		 lea	 ecx, DWORD PTR ?fn_set_client_server_entity_int_value@@3PAY1BBH@1P6GXPAUENTITY@@W4INT_TYPES@@H@ZA[ecx+eax]
  003c3	ba 04 00 00 00	 mov	 edx, 4
  003c8	c1 e2 00	 shl	 edx, 0
  003cb	c7 04 11 00 00
	00 00		 mov	 DWORD PTR [ecx+edx], OFFSET ?set_client_int_value@@YGXPAUENTITY@@W4INT_TYPES@@H@Z ; set_client_int_value

; 397  : 	fn_get_local_entity_int_value				[ENTITY_TYPE_KEYSITE][INT_TYPE_LANDING_TYPES]								= get_local_int_value;

  003d2	b8 5c 04 00 00	 mov	 eax, 1116		; 0000045cH
  003d7	6b c8 0f	 imul	 ecx, eax, 15
  003da	ba 04 00 00 00	 mov	 edx, 4
  003df	6b c2 77	 imul	 eax, edx, 119
  003e2	c7 84 01 00 00
	00 00 00 00 00
	00		 mov	 DWORD PTR ?fn_get_local_entity_int_value@@3PAY0BBH@P6GHPAUENTITY@@W4INT_TYPES@@@ZA[ecx+eax], OFFSET ?get_local_int_value@@YGHPAUENTITY@@W4INT_TYPES@@@Z ; get_local_int_value

; 398  : 
; 399  : 	fn_get_local_entity_int_value				[ENTITY_TYPE_KEYSITE][INT_TYPE_MAP_ICON]										= get_local_int_value;

  003ed	b8 5c 04 00 00	 mov	 eax, 1116		; 0000045cH
  003f2	6b c8 0f	 imul	 ecx, eax, 15
  003f5	ba 04 00 00 00	 mov	 edx, 4
  003fa	69 c2 82 00 00
	00		 imul	 eax, edx, 130
  00400	c7 84 01 00 00
	00 00 00 00 00
	00		 mov	 DWORD PTR ?fn_get_local_entity_int_value@@3PAY0BBH@P6GHPAUENTITY@@W4INT_TYPES@@@ZA[ecx+eax], OFFSET ?get_local_int_value@@YGHPAUENTITY@@W4INT_TYPES@@@Z ; get_local_int_value

; 400  : 
; 401  : 	fn_set_local_entity_raw_int_value		[ENTITY_TYPE_KEYSITE][INT_TYPE_OBJECT_INDEX]									= set_local_int_value;

  0040b	b8 5c 04 00 00	 mov	 eax, 1116		; 0000045cH
  00410	6b c8 0f	 imul	 ecx, eax, 15
  00413	ba 04 00 00 00	 mov	 edx, 4
  00418	69 c2 94 00 00
	00		 imul	 eax, edx, 148
  0041e	c7 84 01 00 00
	00 00 00 00 00
	00		 mov	 DWORD PTR ?fn_set_local_entity_raw_int_value@@3PAY0BBH@P6GXPAUENTITY@@W4INT_TYPES@@H@ZA[ecx+eax], OFFSET ?set_local_int_value@@YGXPAUENTITY@@W4INT_TYPES@@H@Z ; set_local_int_value

; 402  : 	fn_set_local_entity_int_value				[ENTITY_TYPE_KEYSITE][INT_TYPE_OBJECT_INDEX]									= set_local_int_value;

  00429	b8 5c 04 00 00	 mov	 eax, 1116		; 0000045cH
  0042e	6b c8 0f	 imul	 ecx, eax, 15
  00431	ba 04 00 00 00	 mov	 edx, 4
  00436	69 c2 94 00 00
	00		 imul	 eax, edx, 148
  0043c	c7 84 01 00 00
	00 00 00 00 00
	00		 mov	 DWORD PTR ?fn_set_local_entity_int_value@@3PAY0BBH@P6GXPAUENTITY@@W4INT_TYPES@@H@ZA[ecx+eax], OFFSET ?set_local_int_value@@YGXPAUENTITY@@W4INT_TYPES@@H@Z ; set_local_int_value

; 403  : 	fn_set_client_server_entity_int_value	[ENTITY_TYPE_KEYSITE][INT_TYPE_OBJECT_INDEX][COMMS_MODEL_SERVER]		= set_server_int_value;

  00447	b8 b8 08 00 00	 mov	 eax, 2232		; 000008b8H
  0044c	6b c8 0f	 imul	 ecx, eax, 15
  0044f	ba 08 00 00 00	 mov	 edx, 8
  00454	69 c2 94 00 00
	00		 imul	 eax, edx, 148
  0045a	8d 8c 01 00 00
	00 00		 lea	 ecx, DWORD PTR ?fn_set_client_server_entity_int_value@@3PAY1BBH@1P6GXPAUENTITY@@W4INT_TYPES@@H@ZA[ecx+eax]
  00461	ba 04 00 00 00	 mov	 edx, 4
  00466	6b c2 00	 imul	 eax, edx, 0
  00469	c7 04 01 00 00
	00 00		 mov	 DWORD PTR [ecx+eax], OFFSET ?set_server_int_value@@YGXPAUENTITY@@W4INT_TYPES@@H@Z ; set_server_int_value

; 404  : 	fn_set_client_server_entity_int_value	[ENTITY_TYPE_KEYSITE][INT_TYPE_OBJECT_INDEX][COMMS_MODEL_CLIENT]		= set_client_int_value;

  00470	b8 b8 08 00 00	 mov	 eax, 2232		; 000008b8H
  00475	6b c8 0f	 imul	 ecx, eax, 15
  00478	ba 08 00 00 00	 mov	 edx, 8
  0047d	69 c2 94 00 00
	00		 imul	 eax, edx, 148
  00483	8d 8c 01 00 00
	00 00		 lea	 ecx, DWORD PTR ?fn_set_client_server_entity_int_value@@3PAY1BBH@1P6GXPAUENTITY@@W4INT_TYPES@@H@ZA[ecx+eax]
  0048a	ba 04 00 00 00	 mov	 edx, 4
  0048f	c1 e2 00	 shl	 edx, 0
  00492	c7 04 11 00 00
	00 00		 mov	 DWORD PTR [ecx+edx], OFFSET ?set_client_int_value@@YGXPAUENTITY@@W4INT_TYPES@@H@Z ; set_client_int_value

; 405  : 	fn_get_local_entity_int_value				[ENTITY_TYPE_KEYSITE][INT_TYPE_OBJECT_INDEX]									= get_local_int_value;

  00499	b8 5c 04 00 00	 mov	 eax, 1116		; 0000045cH
  0049e	6b c8 0f	 imul	 ecx, eax, 15
  004a1	ba 04 00 00 00	 mov	 edx, 4
  004a6	69 c2 94 00 00
	00		 imul	 eax, edx, 148
  004ac	c7 84 01 00 00
	00 00 00 00 00
	00		 mov	 DWORD PTR ?fn_get_local_entity_int_value@@3PAY0BBH@P6GHPAUENTITY@@W4INT_TYPES@@@ZA[ecx+eax], OFFSET ?get_local_int_value@@YGHPAUENTITY@@W4INT_TYPES@@@Z ; get_local_int_value

; 406  : 	
; 407  : 	fn_get_local_entity_int_value				[ENTITY_TYPE_KEYSITE][INT_TYPE_POTENTIAL_CAMPAIGN_OBJECTIVE]								= get_local_int_value;

  004b7	b8 5c 04 00 00	 mov	 eax, 1116		; 0000045cH
  004bc	6b c8 0f	 imul	 ecx, eax, 15
  004bf	ba 04 00 00 00	 mov	 edx, 4
  004c4	69 c2 a2 00 00
	00		 imul	 eax, edx, 162
  004ca	c7 84 01 00 00
	00 00 00 00 00
	00		 mov	 DWORD PTR ?fn_get_local_entity_int_value@@3PAY0BBH@P6GHPAUENTITY@@W4INT_TYPES@@@ZA[ecx+eax], OFFSET ?get_local_int_value@@YGHPAUENTITY@@W4INT_TYPES@@@Z ; get_local_int_value

; 408  : 
; 409  : 	fn_set_local_entity_raw_int_value		[ENTITY_TYPE_KEYSITE][INT_TYPE_SIDE]											= set_local_int_value;

  004d5	b8 5c 04 00 00	 mov	 eax, 1116		; 0000045cH
  004da	6b c8 0f	 imul	 ecx, eax, 15
  004dd	ba 04 00 00 00	 mov	 edx, 4
  004e2	69 c2 bb 00 00
	00		 imul	 eax, edx, 187
  004e8	c7 84 01 00 00
	00 00 00 00 00
	00		 mov	 DWORD PTR ?fn_set_local_entity_raw_int_value@@3PAY0BBH@P6GXPAUENTITY@@W4INT_TYPES@@H@ZA[ecx+eax], OFFSET ?set_local_int_value@@YGXPAUENTITY@@W4INT_TYPES@@H@Z ; set_local_int_value

; 410  : 	fn_set_local_entity_int_value				[ENTITY_TYPE_KEYSITE][INT_TYPE_SIDE]											= set_local_int_value;

  004f3	b8 5c 04 00 00	 mov	 eax, 1116		; 0000045cH
  004f8	6b c8 0f	 imul	 ecx, eax, 15
  004fb	ba 04 00 00 00	 mov	 edx, 4
  00500	69 c2 bb 00 00
	00		 imul	 eax, edx, 187
  00506	c7 84 01 00 00
	00 00 00 00 00
	00		 mov	 DWORD PTR ?fn_set_local_entity_int_value@@3PAY0BBH@P6GXPAUENTITY@@W4INT_TYPES@@H@ZA[ecx+eax], OFFSET ?set_local_int_value@@YGXPAUENTITY@@W4INT_TYPES@@H@Z ; set_local_int_value

; 411  : 	fn_set_client_server_entity_int_value	[ENTITY_TYPE_KEYSITE][INT_TYPE_SIDE][COMMS_MODEL_SERVER]					= set_server_int_value;

  00511	b8 b8 08 00 00	 mov	 eax, 2232		; 000008b8H
  00516	6b c8 0f	 imul	 ecx, eax, 15
  00519	ba 08 00 00 00	 mov	 edx, 8
  0051e	69 c2 bb 00 00
	00		 imul	 eax, edx, 187
  00524	8d 8c 01 00 00
	00 00		 lea	 ecx, DWORD PTR ?fn_set_client_server_entity_int_value@@3PAY1BBH@1P6GXPAUENTITY@@W4INT_TYPES@@H@ZA[ecx+eax]
  0052b	ba 04 00 00 00	 mov	 edx, 4
  00530	6b c2 00	 imul	 eax, edx, 0
  00533	c7 04 01 00 00
	00 00		 mov	 DWORD PTR [ecx+eax], OFFSET ?set_server_int_value@@YGXPAUENTITY@@W4INT_TYPES@@H@Z ; set_server_int_value

; 412  : 	fn_set_client_server_entity_int_value	[ENTITY_TYPE_KEYSITE][INT_TYPE_SIDE][COMMS_MODEL_CLIENT]					= set_client_int_value;

  0053a	b8 b8 08 00 00	 mov	 eax, 2232		; 000008b8H
  0053f	6b c8 0f	 imul	 ecx, eax, 15
  00542	ba 08 00 00 00	 mov	 edx, 8
  00547	69 c2 bb 00 00
	00		 imul	 eax, edx, 187
  0054d	8d 8c 01 00 00
	00 00		 lea	 ecx, DWORD PTR ?fn_set_client_server_entity_int_value@@3PAY1BBH@1P6GXPAUENTITY@@W4INT_TYPES@@H@ZA[ecx+eax]
  00554	ba 04 00 00 00	 mov	 edx, 4
  00559	c1 e2 00	 shl	 edx, 0
  0055c	c7 04 11 00 00
	00 00		 mov	 DWORD PTR [ecx+edx], OFFSET ?set_client_int_value@@YGXPAUENTITY@@W4INT_TYPES@@H@Z ; set_client_int_value

; 413  : 	fn_get_local_entity_int_value				[ENTITY_TYPE_KEYSITE][INT_TYPE_SIDE]											= get_local_int_value;

  00563	b8 5c 04 00 00	 mov	 eax, 1116		; 0000045cH
  00568	6b c8 0f	 imul	 ecx, eax, 15
  0056b	ba 04 00 00 00	 mov	 edx, 4
  00570	69 c2 bb 00 00
	00		 imul	 eax, edx, 187
  00576	c7 84 01 00 00
	00 00 00 00 00
	00		 mov	 DWORD PTR ?fn_get_local_entity_int_value@@3PAY0BBH@P6GHPAUENTITY@@W4INT_TYPES@@@ZA[ecx+eax], OFFSET ?get_local_int_value@@YGHPAUENTITY@@W4INT_TYPES@@@Z ; get_local_int_value

; 414  : }

  00581	5f		 pop	 edi
  00582	5e		 pop	 esi
  00583	5b		 pop	 ebx
  00584	8b e5		 mov	 esp, ebp
  00586	5d		 pop	 ebp
  00587	c3		 ret	 0
?overload_keysite_int_value_functions@@YGXXZ ENDP	; overload_keysite_int_value_functions
_TEXT	ENDS
END
