; Listing generated by Microsoft (R) Optimizing Compiler Version 19.16.27045.0 

	TITLE	C:\Users\nhv90\Projects\eech\aphavoc\source\entity\special\keysite\ks_msgs.c
	.686P
	.XMM
	include listing.inc
	.model	flat

INCLUDELIB MSVCRTD
INCLUDELIB OLDNAMES

PUBLIC	?overload_keysite_message_responses@@YGXXZ	; overload_keysite_message_responses
PUBLIC	?__LINE__Var@?0??response_to_task_completed@@YGHW4ENTITY_MESSAGES@@PAUENTITY@@1PAD@Z@4JA ; `response_to_task_completed'::`1'::__LINE__Var
PUBLIC	??_C@_0EN@NPLLMLKG@c?3?2users?2nhv90?2projects?2eech?2ap@ ; `string'
PUBLIC	??_C@_0EI@PHKFJOMA@KS_MSGS?3?5SUPPLY_INFO?3?5keysite?5?$CF@ ; `string'
PUBLIC	?__LINE__Var@?0??response_to_waypoint_drop_off_reached@@YGHW4ENTITY_MESSAGES@@PAUENTITY@@1PAD@Z@4JA ; `response_to_waypoint_drop_off_reached'::`1'::__LINE__Var
PUBLIC	?__LINE__Var@?0??response_to_set_entity_position@@YGHW4ENTITY_MESSAGES@@PAUENTITY@@1PAD@Z@4JA ; `response_to_set_entity_position'::`1'::__LINE__Var
PUBLIC	__real@41200000
PUBLIC	__real@42c80000
EXTRN	?process_assert@@YGXPBD0H@Z:PROC		; process_assert
EXTRN	?debug_log@@YAXPBDZZ:PROC			; debug_log
EXTRN	?notify_local_entity@@YAHW4ENTITY_MESSAGES@@PAUENTITY@@1ZZ:PROC ; notify_local_entity
EXTRN	?overload_fixed_message_responses@@YGXW4ENTITY_TYPES@@@Z:PROC ; overload_fixed_message_responses
EXTRN	?null_entity_pointer_message@@3PBDB:DWORD	; null_entity_pointer_message
EXTRN	?system_comms_model@@3W4COMMS_MODEL_TYPES@@A:DWORD ; system_comms_model
EXTRN	?message_responses@@3PAY0GB@P6GHW4ENTITY_MESSAGES@@PAUENTITY@@1PAD@ZA:BYTE ; message_responses
EXTRN	?overload_invalid_list_type_message@@3PBDB:DWORD ; overload_invalid_list_type_message
EXTRN	?fn_get_local_entity_first_child@@3PAY0CN@P6GPAUENTITY@@PAU1@W4LIST_TYPES@@@ZA:BYTE ; fn_get_local_entity_first_child
EXTRN	?fn_get_local_entity_child_succ@@3PAY0CN@P6GPAUENTITY@@PAU1@W4LIST_TYPES@@@ZA:BYTE ; fn_get_local_entity_child_succ
EXTRN	?overload_invalid_float_type_message@@3PBDB:DWORD ; overload_invalid_float_type_message
EXTRN	?fn_set_client_server_entity_float_value@@3PAY1KP@1P6GXPAUENTITY@@W4FLOAT_TYPES@@M@ZA:BYTE ; fn_set_client_server_entity_float_value
EXTRN	?fn_get_local_entity_float_value@@3PAY0KP@P6GMPAUENTITY@@W4FLOAT_TYPES@@@ZA:BYTE ; fn_get_local_entity_float_value
EXTRN	?overload_invalid_int_type_message@@3PBDB:DWORD	; overload_invalid_int_type_message
EXTRN	?fn_get_local_entity_int_value@@3PAY0BBH@P6GHPAUENTITY@@W4INT_TYPES@@@ZA:BYTE ; fn_get_local_entity_int_value
EXTRN	?overload_invalid_string_type_message@@3PBDB:DWORD ; overload_invalid_string_type_message
EXTRN	?fn_get_local_entity_string@@3PAY0N@P6GPBDPAUENTITY@@W4STRING_TYPES@@@ZA:BYTE ; fn_get_local_entity_string
EXTRN	?overload_invalid_vec3d_type_message@@3PBDB:DWORD ; overload_invalid_vec3d_type_message
EXTRN	?fn_set_local_entity_vec3d@@3PAY0BI@P6GXPAUENTITY@@W4VEC3D_TYPES@@PAUVEC3D@@@ZA:BYTE ; fn_set_local_entity_vec3d
EXTRN	?entities@@3PAUENTITY@@A:DWORD			; entities
EXTRN	__fltused:DWORD
;	COMDAT __real@42c80000
CONST	SEGMENT
__real@42c80000 DD 042c80000r			; 100
CONST	ENDS
;	COMDAT __real@41200000
CONST	SEGMENT
__real@41200000 DD 041200000r			; 10
CONST	ENDS
;	COMDAT ?__LINE__Var@?0??response_to_set_entity_position@@YGHW4ENTITY_MESSAGES@@PAUENTITY@@1PAD@Z@4JA
_DATA	SEGMENT
?__LINE__Var@?0??response_to_set_entity_position@@YGHW4ENTITY_MESSAGES@@PAUENTITY@@1PAD@Z@4JA DD 012fH ; `response_to_set_entity_position'::`1'::__LINE__Var
_DATA	ENDS
;	COMDAT ?__LINE__Var@?0??response_to_waypoint_drop_off_reached@@YGHW4ENTITY_MESSAGES@@PAUENTITY@@1PAD@Z@4JA
_DATA	SEGMENT
?__LINE__Var@?0??response_to_waypoint_drop_off_reached@@YGHW4ENTITY_MESSAGES@@PAUENTITY@@1PAD@Z@4JA DD 0c9H ; `response_to_waypoint_drop_off_reached'::`1'::__LINE__Var
_DATA	ENDS
;	COMDAT ??_C@_0EI@PHKFJOMA@KS_MSGS?3?5SUPPLY_INFO?3?5keysite?5?$CF@
CONST	SEGMENT
??_C@_0EI@PHKFJOMA@KS_MSGS?3?5SUPPLY_INFO?3?5keysite?5?$CF@ DB 'KS_MSGS: '
	DB	'SUPPLY_INFO: keysite %s (%d) resupplied : ammo = %f, fuel = %'
	DB	'f', 00H					; `string'
CONST	ENDS
;	COMDAT ??_C@_0EN@NPLLMLKG@c?3?2users?2nhv90?2projects?2eech?2ap@
CONST	SEGMENT
??_C@_0EN@NPLLMLKG@c?3?2users?2nhv90?2projects?2eech?2ap@ DB 'c:\users\nh'
	DB	'v90\projects\eech\aphavoc\source\entity\special\keysite\ks_ms'
	DB	'gs.c', 00H					; `string'
CONST	ENDS
;	COMDAT ?__LINE__Var@?0??response_to_task_completed@@YGHW4ENTITY_MESSAGES@@PAUENTITY@@1PAD@Z@4JA
_DATA	SEGMENT
?__LINE__Var@?0??response_to_task_completed@@YGHW4ENTITY_MESSAGES@@PAUENTITY@@1PAD@Z@4JA DD 0a5H ; `response_to_task_completed'::`1'::__LINE__Var
_DATA	ENDS
; Function compile flags: /Odtp /ZI
; File c:\users\nhv90\projects\eech\aphavoc\source\entity\special\keysite\ks_msgs.c
;	COMDAT ?response_to_set_entity_position@@YGHW4ENTITY_MESSAGES@@PAUENTITY@@1PAD@Z
_TEXT	SEGMENT
tv169 = -88						; size = 4
tv149 = -88						; size = 4
tv88 = -88						; size = 4
tv161 = -84						; size = 4
tv141 = -84						; size = 4
tv80 = -84						; size = 4
_landing_en$ = -16					; size = 4
_position$ = -12					; size = 4
_heading$ = -8						; size = 4
_velocity$ = -4						; size = 4
_message$ = 8						; size = 4
_receiver$ = 12						; size = 4
_sender$ = 16						; size = 4
_pargs$ = 20						; size = 4
?response_to_set_entity_position@@YGHW4ENTITY_MESSAGES@@PAUENTITY@@1PAD@Z PROC ; response_to_set_entity_position, COMDAT

; 303  : {

  00000	55		 push	 ebp
  00001	8b ec		 mov	 ebp, esp
  00003	83 ec 58	 sub	 esp, 88			; 00000058H
  00006	53		 push	 ebx
  00007	56		 push	 esi
  00008	57		 push	 edi

; 304  : 
; 305  : 	float
; 306  : 		velocity,
; 307  : 		heading;
; 308  : 
; 309  : 	vec3d
; 310  : 		*position;
; 311  : 
; 312  : 	entity
; 313  : 		*landing_en;
; 314  : 
; 315  : 	position = va_arg (pargs, vec3d *);

  00009	8b 45 14	 mov	 eax, DWORD PTR _pargs$[ebp]
  0000c	83 c0 04	 add	 eax, 4
  0000f	89 45 14	 mov	 DWORD PTR _pargs$[ebp], eax
  00012	8b 4d 14	 mov	 ecx, DWORD PTR _pargs$[ebp]
  00015	8b 51 fc	 mov	 edx, DWORD PTR [ecx-4]
  00018	89 55 f4	 mov	 DWORD PTR _position$[ebp], edx

; 316  : 
; 317  : 	heading = (float) va_arg (pargs, double);

  0001b	8b 45 14	 mov	 eax, DWORD PTR _pargs$[ebp]
  0001e	83 c0 08	 add	 eax, 8
  00021	89 45 14	 mov	 DWORD PTR _pargs$[ebp], eax
  00024	8b 4d 14	 mov	 ecx, DWORD PTR _pargs$[ebp]
  00027	f2 0f 10 41 f8	 movsd	 xmm0, QWORD PTR [ecx-8]
  0002c	f2 0f 5a c0	 cvtsd2ss xmm0, xmm0
  00030	f3 0f 11 45 f8	 movss	 DWORD PTR _heading$[ebp], xmm0

; 318  : 
; 319  : 	velocity = (float) va_arg (pargs, double);

  00035	8b 45 14	 mov	 eax, DWORD PTR _pargs$[ebp]
  00038	83 c0 08	 add	 eax, 8
  0003b	89 45 14	 mov	 DWORD PTR _pargs$[ebp], eax
  0003e	8b 4d 14	 mov	 ecx, DWORD PTR _pargs$[ebp]
  00041	f2 0f 10 41 f8	 movsd	 xmm0, QWORD PTR [ecx-8]
  00046	f2 0f 5a c0	 cvtsd2ss xmm0, xmm0
  0004a	f3 0f 11 45 fc	 movss	 DWORD PTR _velocity$[ebp], xmm0

; 320  : 
; 321  : 	#if DEBUG_MODULE
; 322  : 
; 323  : 	debug_log ("KS_MSGS: setting position %f, %f, %f, heading %f",
; 324  : 					position->x, position->y, position->z, heading);
; 325  : 
; 326  : 	#endif
; 327  : 
; 328  : 	//
; 329  : 	// move landing entities
; 330  : 	//
; 331  : 
; 332  : 	landing_en = get_local_entity_first_child (receiver, LIST_TYPE_LANDING_SITE);

  0004f	83 7d 0c 00	 cmp	 DWORD PTR _receiver$[ebp], 0
  00053	74 0a		 je	 SHORT $LN5@response_t
  00055	8b 45 0c	 mov	 eax, DWORD PTR _receiver$[ebp]
  00058	8b 08		 mov	 ecx, DWORD PTR [eax]
  0005a	89 4d ac	 mov	 DWORD PTR tv80[ebp], ecx
  0005d	eb 21		 jmp	 SHORT $LN6@response_t
$LN5@response_t:
  0005f	8b 15 00 00 00
	00		 mov	 edx, DWORD PTR ?__LINE__Var@?0??response_to_set_entity_position@@YGHW4ENTITY_MESSAGES@@PAUENTITY@@1PAD@Z@4JA
  00065	83 c2 1d	 add	 edx, 29			; 0000001dH
  00068	52		 push	 edx
  00069	68 00 00 00 00	 push	 OFFSET ??_C@_0EN@NPLLMLKG@c?3?2users?2nhv90?2projects?2eech?2ap@
  0006e	a1 00 00 00 00	 mov	 eax, DWORD PTR ?null_entity_pointer_message@@3PBDB ; null_entity_pointer_message
  00073	50		 push	 eax
  00074	e8 00 00 00 00	 call	 ?process_assert@@YGXPBD0H@Z ; process_assert
  00079	c7 45 ac 00 00
	00 00		 mov	 DWORD PTR tv80[ebp], 0
$LN6@response_t:
  00080	b9 01 00 00 00	 mov	 ecx, 1
  00085	85 c9		 test	 ecx, ecx
  00087	74 09		 je	 SHORT $LN7@response_t
  00089	c7 45 a8 17 00
	00 00		 mov	 DWORD PTR tv88[ebp], 23	; 00000017H
  00090	eb 21		 jmp	 SHORT $LN8@response_t
$LN7@response_t:
  00092	8b 15 00 00 00
	00		 mov	 edx, DWORD PTR ?__LINE__Var@?0??response_to_set_entity_position@@YGHW4ENTITY_MESSAGES@@PAUENTITY@@1PAD@Z@4JA
  00098	83 c2 1d	 add	 edx, 29			; 0000001dH
  0009b	52		 push	 edx
  0009c	68 00 00 00 00	 push	 OFFSET ??_C@_0EN@NPLLMLKG@c?3?2users?2nhv90?2projects?2eech?2ap@
  000a1	a1 00 00 00 00	 mov	 eax, DWORD PTR ?overload_invalid_list_type_message@@3PBDB ; overload_invalid_list_type_message
  000a6	50		 push	 eax
  000a7	e8 00 00 00 00	 call	 ?process_assert@@YGXPBD0H@Z ; process_assert
  000ac	c7 45 a8 00 00
	00 00		 mov	 DWORD PTR tv88[ebp], 0
$LN8@response_t:
  000b3	6a 17		 push	 23			; 00000017H
  000b5	8b 4d 0c	 mov	 ecx, DWORD PTR _receiver$[ebp]
  000b8	51		 push	 ecx
  000b9	69 55 ac b4 00
	00 00		 imul	 edx, DWORD PTR tv80[ebp], 180
  000c0	8b 45 a8	 mov	 eax, DWORD PTR tv88[ebp]
  000c3	8b 8c 82 00 00
	00 00		 mov	 ecx, DWORD PTR ?fn_get_local_entity_first_child@@3PAY0CN@P6GPAUENTITY@@PAU1@W4LIST_TYPES@@@ZA[edx+eax*4]
  000ca	ff d1		 call	 ecx
  000cc	89 45 f0	 mov	 DWORD PTR _landing_en$[ebp], eax
$LN2@response_t:

; 333  : 
; 334  : 	while (landing_en)

  000cf	83 7d f0 00	 cmp	 DWORD PTR _landing_en$[ebp], 0
  000d3	0f 84 b5 00 00
	00		 je	 $LN3@response_t

; 335  : 	{
; 336  : 
; 337  : 		notify_local_entity (ENTITY_MESSAGE_SET_ENTITY_POSITION, landing_en, receiver, position, (double) heading, (double) velocity);

  000d9	f3 0f 5a 45 fc	 cvtss2sd xmm0, DWORD PTR _velocity$[ebp]
  000de	83 ec 08	 sub	 esp, 8
  000e1	f2 0f 11 04 24	 movsd	 QWORD PTR [esp], xmm0
  000e6	f3 0f 5a 45 f8	 cvtss2sd xmm0, DWORD PTR _heading$[ebp]
  000eb	83 ec 08	 sub	 esp, 8
  000ee	f2 0f 11 04 24	 movsd	 QWORD PTR [esp], xmm0
  000f3	8b 45 f4	 mov	 eax, DWORD PTR _position$[ebp]
  000f6	50		 push	 eax
  000f7	8b 4d 0c	 mov	 ecx, DWORD PTR _receiver$[ebp]
  000fa	51		 push	 ecx
  000fb	8b 55 f0	 mov	 edx, DWORD PTR _landing_en$[ebp]
  000fe	52		 push	 edx
  000ff	6a 30		 push	 48			; 00000030H
  00101	e8 00 00 00 00	 call	 ?notify_local_entity@@YAHW4ENTITY_MESSAGES@@PAUENTITY@@1ZZ ; notify_local_entity
  00106	83 c4 20	 add	 esp, 32			; 00000020H

; 338  : 
; 339  : 		landing_en = get_local_entity_child_succ (landing_en, LIST_TYPE_LANDING_SITE);

  00109	83 7d f0 00	 cmp	 DWORD PTR _landing_en$[ebp], 0
  0010d	74 0a		 je	 SHORT $LN9@response_t
  0010f	8b 45 f0	 mov	 eax, DWORD PTR _landing_en$[ebp]
  00112	8b 08		 mov	 ecx, DWORD PTR [eax]
  00114	89 4d ac	 mov	 DWORD PTR tv141[ebp], ecx
  00117	eb 21		 jmp	 SHORT $LN10@response_t
$LN9@response_t:
  00119	8b 15 00 00 00
	00		 mov	 edx, DWORD PTR ?__LINE__Var@?0??response_to_set_entity_position@@YGHW4ENTITY_MESSAGES@@PAUENTITY@@1PAD@Z@4JA
  0011f	83 c2 24	 add	 edx, 36			; 00000024H
  00122	52		 push	 edx
  00123	68 00 00 00 00	 push	 OFFSET ??_C@_0EN@NPLLMLKG@c?3?2users?2nhv90?2projects?2eech?2ap@
  00128	a1 00 00 00 00	 mov	 eax, DWORD PTR ?null_entity_pointer_message@@3PBDB ; null_entity_pointer_message
  0012d	50		 push	 eax
  0012e	e8 00 00 00 00	 call	 ?process_assert@@YGXPBD0H@Z ; process_assert
  00133	c7 45 ac 00 00
	00 00		 mov	 DWORD PTR tv141[ebp], 0
$LN10@response_t:
  0013a	b9 01 00 00 00	 mov	 ecx, 1
  0013f	85 c9		 test	 ecx, ecx
  00141	74 09		 je	 SHORT $LN11@response_t
  00143	c7 45 a8 17 00
	00 00		 mov	 DWORD PTR tv149[ebp], 23 ; 00000017H
  0014a	eb 21		 jmp	 SHORT $LN12@response_t
$LN11@response_t:
  0014c	8b 15 00 00 00
	00		 mov	 edx, DWORD PTR ?__LINE__Var@?0??response_to_set_entity_position@@YGHW4ENTITY_MESSAGES@@PAUENTITY@@1PAD@Z@4JA
  00152	83 c2 24	 add	 edx, 36			; 00000024H
  00155	52		 push	 edx
  00156	68 00 00 00 00	 push	 OFFSET ??_C@_0EN@NPLLMLKG@c?3?2users?2nhv90?2projects?2eech?2ap@
  0015b	a1 00 00 00 00	 mov	 eax, DWORD PTR ?overload_invalid_list_type_message@@3PBDB ; overload_invalid_list_type_message
  00160	50		 push	 eax
  00161	e8 00 00 00 00	 call	 ?process_assert@@YGXPBD0H@Z ; process_assert
  00166	c7 45 a8 00 00
	00 00		 mov	 DWORD PTR tv149[ebp], 0
$LN12@response_t:
  0016d	6a 17		 push	 23			; 00000017H
  0016f	8b 4d f0	 mov	 ecx, DWORD PTR _landing_en$[ebp]
  00172	51		 push	 ecx
  00173	69 55 ac b4 00
	00 00		 imul	 edx, DWORD PTR tv141[ebp], 180
  0017a	8b 45 a8	 mov	 eax, DWORD PTR tv149[ebp]
  0017d	8b 8c 82 00 00
	00 00		 mov	 ecx, DWORD PTR ?fn_get_local_entity_child_succ@@3PAY0CN@P6GPAUENTITY@@PAU1@W4LIST_TYPES@@@ZA[edx+eax*4]
  00184	ff d1		 call	 ecx
  00186	89 45 f0	 mov	 DWORD PTR _landing_en$[ebp], eax

; 340  : 	}

  00189	e9 41 ff ff ff	 jmp	 $LN2@response_t
$LN3@response_t:

; 341  : 
; 342  : 	//
; 343  : 	// Use full set_position function to keep sector data correct.
; 344  : 	//
; 345  : 
; 346  : 	set_local_entity_vec3d (receiver, VEC3D_TYPE_POSITION, position);

  0018e	83 7d 0c 00	 cmp	 DWORD PTR _receiver$[ebp], 0
  00192	74 0a		 je	 SHORT $LN13@response_t
  00194	8b 45 0c	 mov	 eax, DWORD PTR _receiver$[ebp]
  00197	8b 08		 mov	 ecx, DWORD PTR [eax]
  00199	89 4d ac	 mov	 DWORD PTR tv161[ebp], ecx
  0019c	eb 21		 jmp	 SHORT $LN14@response_t
$LN13@response_t:
  0019e	8b 15 00 00 00
	00		 mov	 edx, DWORD PTR ?__LINE__Var@?0??response_to_set_entity_position@@YGHW4ENTITY_MESSAGES@@PAUENTITY@@1PAD@Z@4JA
  001a4	83 c2 2b	 add	 edx, 43			; 0000002bH
  001a7	52		 push	 edx
  001a8	68 00 00 00 00	 push	 OFFSET ??_C@_0EN@NPLLMLKG@c?3?2users?2nhv90?2projects?2eech?2ap@
  001ad	a1 00 00 00 00	 mov	 eax, DWORD PTR ?null_entity_pointer_message@@3PBDB ; null_entity_pointer_message
  001b2	50		 push	 eax
  001b3	e8 00 00 00 00	 call	 ?process_assert@@YGXPBD0H@Z ; process_assert
  001b8	c7 45 ac 00 00
	00 00		 mov	 DWORD PTR tv161[ebp], 0
$LN14@response_t:
  001bf	b9 01 00 00 00	 mov	 ecx, 1
  001c4	85 c9		 test	 ecx, ecx
  001c6	74 09		 je	 SHORT $LN15@response_t
  001c8	c7 45 a8 08 00
	00 00		 mov	 DWORD PTR tv169[ebp], 8
  001cf	eb 21		 jmp	 SHORT $LN16@response_t
$LN15@response_t:
  001d1	8b 15 00 00 00
	00		 mov	 edx, DWORD PTR ?__LINE__Var@?0??response_to_set_entity_position@@YGHW4ENTITY_MESSAGES@@PAUENTITY@@1PAD@Z@4JA
  001d7	83 c2 2b	 add	 edx, 43			; 0000002bH
  001da	52		 push	 edx
  001db	68 00 00 00 00	 push	 OFFSET ??_C@_0EN@NPLLMLKG@c?3?2users?2nhv90?2projects?2eech?2ap@
  001e0	a1 00 00 00 00	 mov	 eax, DWORD PTR ?overload_invalid_vec3d_type_message@@3PBDB ; overload_invalid_vec3d_type_message
  001e5	50		 push	 eax
  001e6	e8 00 00 00 00	 call	 ?process_assert@@YGXPBD0H@Z ; process_assert
  001eb	c7 45 a8 00 00
	00 00		 mov	 DWORD PTR tv169[ebp], 0
$LN16@response_t:
  001f2	8b 4d f4	 mov	 ecx, DWORD PTR _position$[ebp]
  001f5	51		 push	 ecx
  001f6	6a 08		 push	 8
  001f8	8b 55 0c	 mov	 edx, DWORD PTR _receiver$[ebp]
  001fb	52		 push	 edx
  001fc	6b 45 ac 60	 imul	 eax, DWORD PTR tv161[ebp], 96
  00200	8b 4d a8	 mov	 ecx, DWORD PTR tv169[ebp]
  00203	8b 94 88 00 00
	00 00		 mov	 edx, DWORD PTR ?fn_set_local_entity_vec3d@@3PAY0BI@P6GXPAUENTITY@@W4VEC3D_TYPES@@PAUVEC3D@@@ZA[eax+ecx*4]
  0020a	ff d2		 call	 edx

; 347  : 
; 348  : 	return (TRUE);

  0020c	b8 01 00 00 00	 mov	 eax, 1

; 349  : }

  00211	5f		 pop	 edi
  00212	5e		 pop	 esi
  00213	5b		 pop	 ebx
  00214	8b e5		 mov	 esp, ebp
  00216	5d		 pop	 ebp
  00217	c2 10 00	 ret	 16			; 00000010H
?response_to_set_entity_position@@YGHW4ENTITY_MESSAGES@@PAUENTITY@@1PAD@Z ENDP ; response_to_set_entity_position
_TEXT	ENDS
; Function compile flags: /Odtp /ZI
; File c:\users\nhv90\projects\eech\aphavoc\source\entity\special\keysite\ks_msgs.c
;	COMDAT ?response_to_waypoint_pick_up_reached@@YGHW4ENTITY_MESSAGES@@PAUENTITY@@1PAD@Z
_TEXT	SEGMENT
tv85 = -84						; size = 4
tv79 = -80						; size = 4
tv72 = -76						; size = 4
_raw$ = -8						; size = 4
_cargo$ = -4						; size = 4
_message$ = 8						; size = 4
_receiver$ = 12						; size = 4
_sender$ = 16						; size = 4
_pargs$ = 20						; size = 4
?response_to_waypoint_pick_up_reached@@YGHW4ENTITY_MESSAGES@@PAUENTITY@@1PAD@Z PROC ; response_to_waypoint_pick_up_reached, COMDAT

; 252  : {

  00000	55		 push	 ebp
  00001	8b ec		 mov	 ebp, esp
  00003	83 ec 54	 sub	 esp, 84			; 00000054H
  00006	53		 push	 ebx
  00007	56		 push	 esi
  00008	57		 push	 edi

; 253  : 
; 254  : 	entity
; 255  : 		*cargo;
; 256  : 
; 257  : 	keysite
; 258  : 		*raw;
; 259  : 
; 260  : 	raw = (keysite *) get_local_entity_data (receiver);

  00009	8b 45 0c	 mov	 eax, DWORD PTR _receiver$[ebp]
  0000c	8b 48 04	 mov	 ecx, DWORD PTR [eax+4]
  0000f	89 4d f8	 mov	 DWORD PTR _raw$[ebp], ecx

; 261  : 
; 262  : 	cargo = va_arg (pargs, entity *);

  00012	8b 45 14	 mov	 eax, DWORD PTR _pargs$[ebp]
  00015	83 c0 04	 add	 eax, 4
  00018	89 45 14	 mov	 DWORD PTR _pargs$[ebp], eax
  0001b	8b 4d 14	 mov	 ecx, DWORD PTR _pargs$[ebp]
  0001e	8b 51 fc	 mov	 edx, DWORD PTR [ecx-4]
  00021	89 55 fc	 mov	 DWORD PTR _cargo$[ebp], edx

; 263  : 
; 264  : 	#if DEBUG_MODULE || DEBUG_SUPPLY
; 265  : 
; 266  : 	debug_log ("KS_MSGS: SUPPLY_INFO: %s has been picked up from keysite %s (%d) by %s (%d)",
; 267  : 					entity_sub_type_cargo_names [get_local_entity_int_value (cargo, INT_TYPE_ENTITY_SUB_TYPE)],
; 268  : 					get_local_entity_string (receiver, STRING_TYPE_FULL_NAME),
; 269  : 					get_local_entity_index (receiver),
; 270  : 					get_local_entity_string (sender, STRING_TYPE_FULL_NAME),
; 271  : 					get_local_entity_index (sender));
; 272  : 
; 273  : 	#endif
; 274  : 
; 275  : 	switch (get_local_entity_int_value (cargo, INT_TYPE_ENTITY_SUB_TYPE))

  00024	83 7d fc 00	 cmp	 DWORD PTR _cargo$[ebp], 0
  00028	74 0a		 je	 SHORT $LN7@response_t
  0002a	8b 45 fc	 mov	 eax, DWORD PTR _cargo$[ebp]
  0002d	8b 08		 mov	 ecx, DWORD PTR [eax]
  0002f	89 4d b4	 mov	 DWORD PTR tv72[ebp], ecx
  00032	eb 1d		 jmp	 SHORT $LN8@response_t
$LN7@response_t:
  00034	68 13 01 00 00	 push	 275			; 00000113H
  00039	68 00 00 00 00	 push	 OFFSET ??_C@_0EN@NPLLMLKG@c?3?2users?2nhv90?2projects?2eech?2ap@
  0003e	8b 15 00 00 00
	00		 mov	 edx, DWORD PTR ?null_entity_pointer_message@@3PBDB ; null_entity_pointer_message
  00044	52		 push	 edx
  00045	e8 00 00 00 00	 call	 ?process_assert@@YGXPBD0H@Z ; process_assert
  0004a	c7 45 b4 00 00
	00 00		 mov	 DWORD PTR tv72[ebp], 0
$LN8@response_t:
  00051	b8 01 00 00 00	 mov	 eax, 1
  00056	85 c0		 test	 eax, eax
  00058	74 09		 je	 SHORT $LN9@response_t
  0005a	c7 45 b0 34 00
	00 00		 mov	 DWORD PTR tv79[ebp], 52	; 00000034H
  00061	eb 1d		 jmp	 SHORT $LN10@response_t
$LN9@response_t:
  00063	68 13 01 00 00	 push	 275			; 00000113H
  00068	68 00 00 00 00	 push	 OFFSET ??_C@_0EN@NPLLMLKG@c?3?2users?2nhv90?2projects?2eech?2ap@
  0006d	8b 0d 00 00 00
	00		 mov	 ecx, DWORD PTR ?overload_invalid_int_type_message@@3PBDB ; overload_invalid_int_type_message
  00073	51		 push	 ecx
  00074	e8 00 00 00 00	 call	 ?process_assert@@YGXPBD0H@Z ; process_assert
  00079	c7 45 b0 00 00
	00 00		 mov	 DWORD PTR tv79[ebp], 0
$LN10@response_t:
  00080	6a 34		 push	 52			; 00000034H
  00082	8b 55 fc	 mov	 edx, DWORD PTR _cargo$[ebp]
  00085	52		 push	 edx
  00086	69 45 b4 5c 04
	00 00		 imul	 eax, DWORD PTR tv72[ebp], 1116
  0008d	8b 4d b0	 mov	 ecx, DWORD PTR tv79[ebp]
  00090	8b 94 88 00 00
	00 00		 mov	 edx, DWORD PTR ?fn_get_local_entity_int_value@@3PAY0BBH@P6GHPAUENTITY@@W4INT_TYPES@@@ZA[eax+ecx*4]
  00097	ff d2		 call	 edx
  00099	89 45 ac	 mov	 DWORD PTR tv85[ebp], eax
  0009c	83 7d ac 00	 cmp	 DWORD PTR tv85[ebp], 0
  000a0	74 08		 je	 SHORT $LN4@response_t
  000a2	83 7d ac 01	 cmp	 DWORD PTR tv85[ebp], 1
  000a6	74 22		 je	 SHORT $LN5@response_t
  000a8	eb 3e		 jmp	 SHORT $LN2@response_t
$LN4@response_t:

; 276  : 	{
; 277  : 
; 278  : 		case ENTITY_SUB_TYPE_CARGO_AMMO:
; 279  : 		{
; 280  : 
; 281  : 			raw->supplies.ammo_supply_level -= CARGO_AMMO_SIZE;

  000aa	8b 45 f8	 mov	 eax, DWORD PTR _raw$[ebp]
  000ad	f3 0f 10 80 94
	00 00 00	 movss	 xmm0, DWORD PTR [eax+148]
  000b5	f3 0f 5c 05 00
	00 00 00	 subss	 xmm0, DWORD PTR __real@41200000
  000bd	8b 4d f8	 mov	 ecx, DWORD PTR _raw$[ebp]
  000c0	f3 0f 11 81 94
	00 00 00	 movss	 DWORD PTR [ecx+148], xmm0

; 282  : 
; 283  : 			break;

  000c8	eb 1e		 jmp	 SHORT $LN2@response_t
$LN5@response_t:

; 284  : 		}
; 285  : 
; 286  : 		case ENTITY_SUB_TYPE_CARGO_FUEL:
; 287  : 		{
; 288  : 
; 289  : 			raw->supplies.fuel_supply_level -= CARGO_FUEL_SIZE;

  000ca	8b 45 f8	 mov	 eax, DWORD PTR _raw$[ebp]
  000cd	f3 0f 10 80 98
	00 00 00	 movss	 xmm0, DWORD PTR [eax+152]
  000d5	f3 0f 5c 05 00
	00 00 00	 subss	 xmm0, DWORD PTR __real@41200000
  000dd	8b 4d f8	 mov	 ecx, DWORD PTR _raw$[ebp]
  000e0	f3 0f 11 81 98
	00 00 00	 movss	 DWORD PTR [ecx+152], xmm0
$LN2@response_t:

; 290  : 
; 291  : 			break;
; 292  : 		}
; 293  : 	}
; 294  : 
; 295  : 	return (TRUE);

  000e8	b8 01 00 00 00	 mov	 eax, 1

; 296  : }

  000ed	5f		 pop	 edi
  000ee	5e		 pop	 esi
  000ef	5b		 pop	 ebx
  000f0	8b e5		 mov	 esp, ebp
  000f2	5d		 pop	 ebp
  000f3	c2 10 00	 ret	 16			; 00000010H
?response_to_waypoint_pick_up_reached@@YGHW4ENTITY_MESSAGES@@PAUENTITY@@1PAD@Z ENDP ; response_to_waypoint_pick_up_reached
_TEXT	ENDS
; Function compile flags: /Odtp /ZI
; File c:\users\nhv90\projects\eech\aphavoc\source\entity\special\keysite\ks_msgs.c
;	COMDAT ?response_to_waypoint_drop_off_reached@@YGHW4ENTITY_MESSAGES@@PAUENTITY@@1PAD@Z
_TEXT	SEGMENT
tv85 = -84						; size = 4
tv154 = -80						; size = 4
tv132 = -80						; size = 4
tv79 = -80						; size = 4
tv146 = -76						; size = 4
tv92 = -76						; size = 4
tv72 = -76						; size = 4
_cargo$ = -8						; size = 4
_raw$ = -4						; size = 4
_message$ = 8						; size = 4
_receiver$ = 12						; size = 4
_sender$ = 16						; size = 4
_pargs$ = 20						; size = 4
?response_to_waypoint_drop_off_reached@@YGHW4ENTITY_MESSAGES@@PAUENTITY@@1PAD@Z PROC ; response_to_waypoint_drop_off_reached, COMDAT

; 201  : {

  00000	55		 push	 ebp
  00001	8b ec		 mov	 ebp, esp
  00003	83 ec 54	 sub	 esp, 84			; 00000054H
  00006	53		 push	 ebx
  00007	56		 push	 esi
  00008	57		 push	 edi

; 202  : 
; 203  : 	keysite
; 204  : 		*raw;
; 205  : 
; 206  : 	entity
; 207  : 		*cargo;
; 208  : 
; 209  : 	raw = (keysite *) get_local_entity_data (receiver);

  00009	8b 45 0c	 mov	 eax, DWORD PTR _receiver$[ebp]
  0000c	8b 48 04	 mov	 ecx, DWORD PTR [eax+4]
  0000f	89 4d fc	 mov	 DWORD PTR _raw$[ebp], ecx

; 210  : 
; 211  : 	cargo = va_arg (pargs, entity *);

  00012	8b 45 14	 mov	 eax, DWORD PTR _pargs$[ebp]
  00015	83 c0 04	 add	 eax, 4
  00018	89 45 14	 mov	 DWORD PTR _pargs$[ebp], eax
  0001b	8b 4d 14	 mov	 ecx, DWORD PTR _pargs$[ebp]
  0001e	8b 51 fc	 mov	 edx, DWORD PTR [ecx-4]
  00021	89 55 f8	 mov	 DWORD PTR _cargo$[ebp], edx

; 212  : 
; 213  : 	#if DEBUG_MODULE || DEBUG_SUPPLY
; 214  : 
; 215  : 	debug_log ("KS_MSGS: SUPPLY_INFO: %s has been dropped off at keysite %s (%d) by %s (%d)",
; 216  : 					entity_sub_type_cargo_names [get_local_entity_int_value (cargo, INT_TYPE_ENTITY_SUB_TYPE)],
; 217  : 					get_local_entity_string (receiver, STRING_TYPE_FULL_NAME),
; 218  : 					get_local_entity_index (receiver),
; 219  : 					get_local_entity_string (sender, STRING_TYPE_FULL_NAME),
; 220  : 					get_local_entity_index (sender));
; 221  : 
; 222  : 	#endif
; 223  : 
; 224  : 	switch (get_local_entity_int_value (cargo, INT_TYPE_ENTITY_SUB_TYPE))

  00024	83 7d f8 00	 cmp	 DWORD PTR _cargo$[ebp], 0
  00028	74 0a		 je	 SHORT $LN7@response_t
  0002a	8b 45 f8	 mov	 eax, DWORD PTR _cargo$[ebp]
  0002d	8b 08		 mov	 ecx, DWORD PTR [eax]
  0002f	89 4d b4	 mov	 DWORD PTR tv72[ebp], ecx
  00032	eb 1d		 jmp	 SHORT $LN8@response_t
$LN7@response_t:
  00034	68 e0 00 00 00	 push	 224			; 000000e0H
  00039	68 00 00 00 00	 push	 OFFSET ??_C@_0EN@NPLLMLKG@c?3?2users?2nhv90?2projects?2eech?2ap@
  0003e	8b 15 00 00 00
	00		 mov	 edx, DWORD PTR ?null_entity_pointer_message@@3PBDB ; null_entity_pointer_message
  00044	52		 push	 edx
  00045	e8 00 00 00 00	 call	 ?process_assert@@YGXPBD0H@Z ; process_assert
  0004a	c7 45 b4 00 00
	00 00		 mov	 DWORD PTR tv72[ebp], 0
$LN8@response_t:
  00051	b8 01 00 00 00	 mov	 eax, 1
  00056	85 c0		 test	 eax, eax
  00058	74 09		 je	 SHORT $LN9@response_t
  0005a	c7 45 b0 34 00
	00 00		 mov	 DWORD PTR tv79[ebp], 52	; 00000034H
  00061	eb 1d		 jmp	 SHORT $LN10@response_t
$LN9@response_t:
  00063	68 e0 00 00 00	 push	 224			; 000000e0H
  00068	68 00 00 00 00	 push	 OFFSET ??_C@_0EN@NPLLMLKG@c?3?2users?2nhv90?2projects?2eech?2ap@
  0006d	8b 0d 00 00 00
	00		 mov	 ecx, DWORD PTR ?overload_invalid_int_type_message@@3PBDB ; overload_invalid_int_type_message
  00073	51		 push	 ecx
  00074	e8 00 00 00 00	 call	 ?process_assert@@YGXPBD0H@Z ; process_assert
  00079	c7 45 b0 00 00
	00 00		 mov	 DWORD PTR tv79[ebp], 0
$LN10@response_t:
  00080	6a 34		 push	 52			; 00000034H
  00082	8b 55 f8	 mov	 edx, DWORD PTR _cargo$[ebp]
  00085	52		 push	 edx
  00086	69 45 b4 5c 04
	00 00		 imul	 eax, DWORD PTR tv72[ebp], 1116
  0008d	8b 4d b0	 mov	 ecx, DWORD PTR tv79[ebp]
  00090	8b 94 88 00 00
	00 00		 mov	 edx, DWORD PTR ?fn_get_local_entity_int_value@@3PAY0BBH@P6GHPAUENTITY@@W4INT_TYPES@@@ZA[eax+ecx*4]
  00097	ff d2		 call	 edx
  00099	89 45 ac	 mov	 DWORD PTR tv85[ebp], eax
  0009c	83 7d ac 00	 cmp	 DWORD PTR tv85[ebp], 0
  000a0	74 0f		 je	 SHORT $LN4@response_t
  000a2	83 7d ac 01	 cmp	 DWORD PTR tv85[ebp], 1
  000a6	0f 84 9e 00 00
	00		 je	 $LN5@response_t
  000ac	e9 2d 01 00 00	 jmp	 $LN2@response_t
$LN4@response_t:

; 225  : 	{
; 226  : 
; 227  : 		case ENTITY_SUB_TYPE_CARGO_AMMO:
; 228  : 		{
; 229  : 
; 230  : 			set_client_server_entity_float_value (receiver, FLOAT_TYPE_AMMO_SUPPLY_LEVEL, 100.0);

  000b1	83 7d 0c 00	 cmp	 DWORD PTR _receiver$[ebp], 0
  000b5	74 0a		 je	 SHORT $LN11@response_t
  000b7	8b 45 0c	 mov	 eax, DWORD PTR _receiver$[ebp]
  000ba	8b 08		 mov	 ecx, DWORD PTR [eax]
  000bc	89 4d b4	 mov	 DWORD PTR tv92[ebp], ecx
  000bf	eb 21		 jmp	 SHORT $LN12@response_t
$LN11@response_t:
  000c1	8b 15 00 00 00
	00		 mov	 edx, DWORD PTR ?__LINE__Var@?0??response_to_waypoint_drop_off_reached@@YGHW4ENTITY_MESSAGES@@PAUENTITY@@1PAD@Z@4JA
  000c7	83 c2 1d	 add	 edx, 29			; 0000001dH
  000ca	52		 push	 edx
  000cb	68 00 00 00 00	 push	 OFFSET ??_C@_0EN@NPLLMLKG@c?3?2users?2nhv90?2projects?2eech?2ap@
  000d0	a1 00 00 00 00	 mov	 eax, DWORD PTR ?null_entity_pointer_message@@3PBDB ; null_entity_pointer_message
  000d5	50		 push	 eax
  000d6	e8 00 00 00 00	 call	 ?process_assert@@YGXPBD0H@Z ; process_assert
  000db	c7 45 b4 00 00
	00 00		 mov	 DWORD PTR tv92[ebp], 0
$LN12@response_t:
  000e2	b9 01 00 00 00	 mov	 ecx, 1
  000e7	85 c9		 test	 ecx, ecx
  000e9	74 09		 je	 SHORT $LN13@response_t
  000eb	c7 45 b0 08 00
	00 00		 mov	 DWORD PTR tv132[ebp], 8
  000f2	eb 21		 jmp	 SHORT $LN14@response_t
$LN13@response_t:
  000f4	8b 15 00 00 00
	00		 mov	 edx, DWORD PTR ?__LINE__Var@?0??response_to_waypoint_drop_off_reached@@YGHW4ENTITY_MESSAGES@@PAUENTITY@@1PAD@Z@4JA
  000fa	83 c2 1d	 add	 edx, 29			; 0000001dH
  000fd	52		 push	 edx
  000fe	68 00 00 00 00	 push	 OFFSET ??_C@_0EN@NPLLMLKG@c?3?2users?2nhv90?2projects?2eech?2ap@
  00103	a1 00 00 00 00	 mov	 eax, DWORD PTR ?overload_invalid_float_type_message@@3PBDB ; overload_invalid_float_type_message
  00108	50		 push	 eax
  00109	e8 00 00 00 00	 call	 ?process_assert@@YGXPBD0H@Z ; process_assert
  0010e	c7 45 b0 00 00
	00 00		 mov	 DWORD PTR tv132[ebp], 0
$LN14@response_t:
  00115	51		 push	 ecx
  00116	f3 0f 10 05 00
	00 00 00	 movss	 xmm0, DWORD PTR __real@42c80000
  0011e	f3 0f 11 04 24	 movss	 DWORD PTR [esp], xmm0
  00123	6a 08		 push	 8
  00125	8b 4d 0c	 mov	 ecx, DWORD PTR _receiver$[ebp]
  00128	51		 push	 ecx
  00129	69 55 b4 78 05
	00 00		 imul	 edx, DWORD PTR tv92[ebp], 1400
  00130	8b 45 b0	 mov	 eax, DWORD PTR tv132[ebp]
  00133	8d 8c c2 00 00
	00 00		 lea	 ecx, DWORD PTR ?fn_set_client_server_entity_float_value@@3PAY1KP@1P6GXPAUENTITY@@W4FLOAT_TYPES@@M@ZA[edx+eax*8]
  0013a	8b 15 00 00 00
	00		 mov	 edx, DWORD PTR ?system_comms_model@@3W4COMMS_MODEL_TYPES@@A ; system_comms_model
  00140	8b 04 91	 mov	 eax, DWORD PTR [ecx+edx*4]
  00143	ff d0		 call	 eax

; 231  : 
; 232  : 			break;

  00145	e9 94 00 00 00	 jmp	 $LN2@response_t
$LN5@response_t:

; 233  : 		}
; 234  : 
; 235  : 		case ENTITY_SUB_TYPE_CARGO_FUEL:
; 236  : 		{
; 237  : 
; 238  : 			set_client_server_entity_float_value (receiver, FLOAT_TYPE_FUEL_SUPPLY_LEVEL, 100.0);

  0014a	83 7d 0c 00	 cmp	 DWORD PTR _receiver$[ebp], 0
  0014e	74 0a		 je	 SHORT $LN15@response_t
  00150	8b 45 0c	 mov	 eax, DWORD PTR _receiver$[ebp]
  00153	8b 08		 mov	 ecx, DWORD PTR [eax]
  00155	89 4d b4	 mov	 DWORD PTR tv146[ebp], ecx
  00158	eb 21		 jmp	 SHORT $LN16@response_t
$LN15@response_t:
  0015a	8b 15 00 00 00
	00		 mov	 edx, DWORD PTR ?__LINE__Var@?0??response_to_waypoint_drop_off_reached@@YGHW4ENTITY_MESSAGES@@PAUENTITY@@1PAD@Z@4JA
  00160	83 c2 25	 add	 edx, 37			; 00000025H
  00163	52		 push	 edx
  00164	68 00 00 00 00	 push	 OFFSET ??_C@_0EN@NPLLMLKG@c?3?2users?2nhv90?2projects?2eech?2ap@
  00169	a1 00 00 00 00	 mov	 eax, DWORD PTR ?null_entity_pointer_message@@3PBDB ; null_entity_pointer_message
  0016e	50		 push	 eax
  0016f	e8 00 00 00 00	 call	 ?process_assert@@YGXPBD0H@Z ; process_assert
  00174	c7 45 b4 00 00
	00 00		 mov	 DWORD PTR tv146[ebp], 0
$LN16@response_t:
  0017b	b9 01 00 00 00	 mov	 ecx, 1
  00180	85 c9		 test	 ecx, ecx
  00182	74 09		 je	 SHORT $LN17@response_t
  00184	c7 45 b0 30 00
	00 00		 mov	 DWORD PTR tv154[ebp], 48 ; 00000030H
  0018b	eb 21		 jmp	 SHORT $LN18@response_t
$LN17@response_t:
  0018d	8b 15 00 00 00
	00		 mov	 edx, DWORD PTR ?__LINE__Var@?0??response_to_waypoint_drop_off_reached@@YGHW4ENTITY_MESSAGES@@PAUENTITY@@1PAD@Z@4JA
  00193	83 c2 25	 add	 edx, 37			; 00000025H
  00196	52		 push	 edx
  00197	68 00 00 00 00	 push	 OFFSET ??_C@_0EN@NPLLMLKG@c?3?2users?2nhv90?2projects?2eech?2ap@
  0019c	a1 00 00 00 00	 mov	 eax, DWORD PTR ?overload_invalid_float_type_message@@3PBDB ; overload_invalid_float_type_message
  001a1	50		 push	 eax
  001a2	e8 00 00 00 00	 call	 ?process_assert@@YGXPBD0H@Z ; process_assert
  001a7	c7 45 b0 00 00
	00 00		 mov	 DWORD PTR tv154[ebp], 0
$LN18@response_t:
  001ae	51		 push	 ecx
  001af	f3 0f 10 05 00
	00 00 00	 movss	 xmm0, DWORD PTR __real@42c80000
  001b7	f3 0f 11 04 24	 movss	 DWORD PTR [esp], xmm0
  001bc	6a 30		 push	 48			; 00000030H
  001be	8b 4d 0c	 mov	 ecx, DWORD PTR _receiver$[ebp]
  001c1	51		 push	 ecx
  001c2	69 55 b4 78 05
	00 00		 imul	 edx, DWORD PTR tv146[ebp], 1400
  001c9	8b 45 b0	 mov	 eax, DWORD PTR tv154[ebp]
  001cc	8d 8c c2 00 00
	00 00		 lea	 ecx, DWORD PTR ?fn_set_client_server_entity_float_value@@3PAY1KP@1P6GXPAUENTITY@@W4FLOAT_TYPES@@M@ZA[edx+eax*8]
  001d3	8b 15 00 00 00
	00		 mov	 edx, DWORD PTR ?system_comms_model@@3W4COMMS_MODEL_TYPES@@A ; system_comms_model
  001d9	8b 04 91	 mov	 eax, DWORD PTR [ecx+edx*4]
  001dc	ff d0		 call	 eax
$LN2@response_t:

; 239  : 
; 240  : 			break;
; 241  : 		}
; 242  : 	}
; 243  : 
; 244  : 	return (TRUE);

  001de	b8 01 00 00 00	 mov	 eax, 1

; 245  : }

  001e3	5f		 pop	 edi
  001e4	5e		 pop	 esi
  001e5	5b		 pop	 ebx
  001e6	8b e5		 mov	 esp, ebp
  001e8	5d		 pop	 ebp
  001e9	c2 10 00	 ret	 16			; 00000010H
?response_to_waypoint_drop_off_reached@@YGHW4ENTITY_MESSAGES@@PAUENTITY@@1PAD@Z ENDP ; response_to_waypoint_drop_off_reached
_TEXT	ENDS
; Function compile flags: /Odtp /ZI
; File c:\users\nhv90\projects\eech\aphavoc\source\entity\special\keysite\ks_msgs.c
;	COMDAT ?response_to_task_completed@@YGHW4ENTITY_MESSAGES@@PAUENTITY@@1PAD@Z
_TEXT	SEGMENT
tv178 = -88						; size = 4
tv170 = -84						; size = 4
tv152 = -80						; size = 4
tv144 = -76						; size = 4
tv82 = -76						; size = 4
tv129 = -72						; size = 4
tv76 = -72						; size = 4
tv89 = -68						; size = 4
tv69 = -68						; size = 4
_message$ = 8						; size = 4
_receiver$ = 12						; size = 4
_sender$ = 16						; size = 4
_pargs$ = 20						; size = 4
?response_to_task_completed@@YGHW4ENTITY_MESSAGES@@PAUENTITY@@1PAD@Z PROC ; response_to_task_completed, COMDAT

; 165  : {

  00000	55		 push	 ebp
  00001	8b ec		 mov	 ebp, esp
  00003	83 ec 58	 sub	 esp, 88			; 00000058H
  00006	53		 push	 ebx
  00007	56		 push	 esi
  00008	57		 push	 edi

; 166  : 
; 167  : 	switch (get_local_entity_int_value (sender, INT_TYPE_ENTITY_SUB_TYPE))

  00009	83 7d 10 00	 cmp	 DWORD PTR _sender$[ebp], 0
  0000d	74 0a		 je	 SHORT $LN7@response_t
  0000f	8b 45 10	 mov	 eax, DWORD PTR _sender$[ebp]
  00012	8b 08		 mov	 ecx, DWORD PTR [eax]
  00014	89 4d bc	 mov	 DWORD PTR tv69[ebp], ecx
  00017	eb 1d		 jmp	 SHORT $LN8@response_t
$LN7@response_t:
  00019	68 a7 00 00 00	 push	 167			; 000000a7H
  0001e	68 00 00 00 00	 push	 OFFSET ??_C@_0EN@NPLLMLKG@c?3?2users?2nhv90?2projects?2eech?2ap@
  00023	8b 15 00 00 00
	00		 mov	 edx, DWORD PTR ?null_entity_pointer_message@@3PBDB ; null_entity_pointer_message
  00029	52		 push	 edx
  0002a	e8 00 00 00 00	 call	 ?process_assert@@YGXPBD0H@Z ; process_assert
  0002f	c7 45 bc 00 00
	00 00		 mov	 DWORD PTR tv69[ebp], 0
$LN8@response_t:
  00036	b8 01 00 00 00	 mov	 eax, 1
  0003b	85 c0		 test	 eax, eax
  0003d	74 09		 je	 SHORT $LN9@response_t
  0003f	c7 45 b8 34 00
	00 00		 mov	 DWORD PTR tv76[ebp], 52	; 00000034H
  00046	eb 1d		 jmp	 SHORT $LN10@response_t
$LN9@response_t:
  00048	68 a7 00 00 00	 push	 167			; 000000a7H
  0004d	68 00 00 00 00	 push	 OFFSET ??_C@_0EN@NPLLMLKG@c?3?2users?2nhv90?2projects?2eech?2ap@
  00052	8b 0d 00 00 00
	00		 mov	 ecx, DWORD PTR ?overload_invalid_int_type_message@@3PBDB ; overload_invalid_int_type_message
  00058	51		 push	 ecx
  00059	e8 00 00 00 00	 call	 ?process_assert@@YGXPBD0H@Z ; process_assert
  0005e	c7 45 b8 00 00
	00 00		 mov	 DWORD PTR tv76[ebp], 0
$LN10@response_t:
  00065	6a 34		 push	 52			; 00000034H
  00067	8b 55 10	 mov	 edx, DWORD PTR _sender$[ebp]
  0006a	52		 push	 edx
  0006b	69 45 bc 5c 04
	00 00		 imul	 eax, DWORD PTR tv69[ebp], 1116
  00072	8b 4d b8	 mov	 ecx, DWORD PTR tv76[ebp]
  00075	8b 94 88 00 00
	00 00		 mov	 edx, DWORD PTR ?fn_get_local_entity_int_value@@3PAY0BBH@P6GHPAUENTITY@@W4INT_TYPES@@@ZA[eax+ecx*4]
  0007c	ff d2		 call	 edx
  0007e	89 45 b4	 mov	 DWORD PTR tv82[ebp], eax
  00081	83 7d b4 15	 cmp	 DWORD PTR tv82[ebp], 21	; 00000015H
  00085	74 05		 je	 SHORT $LN4@response_t
  00087	e9 9d 01 00 00	 jmp	 $LN5@response_t
$LN4@response_t:

; 168  : 	{
; 169  : 
; 170  : 		case ENTITY_SUB_TYPE_TASK_SUPPLY:
; 171  : 		{
; 172  : 
; 173  : 			//#if DEBUG_MODULE || DEBUG_SUPPLY
; 174  : 
; 175  : 			debug_log ("KS_MSGS: SUPPLY_INFO: keysite %s (%d) resupplied : ammo = %f, fuel = %f",

  0008c	83 7d 0c 00	 cmp	 DWORD PTR _receiver$[ebp], 0
  00090	74 0a		 je	 SHORT $LN11@response_t
  00092	8b 45 0c	 mov	 eax, DWORD PTR _receiver$[ebp]
  00095	8b 08		 mov	 ecx, DWORD PTR [eax]
  00097	89 4d bc	 mov	 DWORD PTR tv89[ebp], ecx
  0009a	eb 21		 jmp	 SHORT $LN12@response_t
$LN11@response_t:
  0009c	8b 15 00 00 00
	00		 mov	 edx, DWORD PTR ?__LINE__Var@?0??response_to_task_completed@@YGHW4ENTITY_MESSAGES@@PAUENTITY@@1PAD@Z@4JA
  000a2	83 c2 0e	 add	 edx, 14			; 0000000eH
  000a5	52		 push	 edx
  000a6	68 00 00 00 00	 push	 OFFSET ??_C@_0EN@NPLLMLKG@c?3?2users?2nhv90?2projects?2eech?2ap@
  000ab	a1 00 00 00 00	 mov	 eax, DWORD PTR ?null_entity_pointer_message@@3PBDB ; null_entity_pointer_message
  000b0	50		 push	 eax
  000b1	e8 00 00 00 00	 call	 ?process_assert@@YGXPBD0H@Z ; process_assert
  000b6	c7 45 bc 00 00
	00 00		 mov	 DWORD PTR tv89[ebp], 0
$LN12@response_t:
  000bd	b9 01 00 00 00	 mov	 ecx, 1
  000c2	85 c9		 test	 ecx, ecx
  000c4	74 09		 je	 SHORT $LN13@response_t
  000c6	c7 45 b8 30 00
	00 00		 mov	 DWORD PTR tv129[ebp], 48 ; 00000030H
  000cd	eb 21		 jmp	 SHORT $LN14@response_t
$LN13@response_t:
  000cf	8b 15 00 00 00
	00		 mov	 edx, DWORD PTR ?__LINE__Var@?0??response_to_task_completed@@YGHW4ENTITY_MESSAGES@@PAUENTITY@@1PAD@Z@4JA
  000d5	83 c2 0e	 add	 edx, 14			; 0000000eH
  000d8	52		 push	 edx
  000d9	68 00 00 00 00	 push	 OFFSET ??_C@_0EN@NPLLMLKG@c?3?2users?2nhv90?2projects?2eech?2ap@
  000de	a1 00 00 00 00	 mov	 eax, DWORD PTR ?overload_invalid_float_type_message@@3PBDB ; overload_invalid_float_type_message
  000e3	50		 push	 eax
  000e4	e8 00 00 00 00	 call	 ?process_assert@@YGXPBD0H@Z ; process_assert
  000e9	c7 45 b8 00 00
	00 00		 mov	 DWORD PTR tv129[ebp], 0
$LN14@response_t:
  000f0	83 7d 0c 00	 cmp	 DWORD PTR _receiver$[ebp], 0
  000f4	74 0a		 je	 SHORT $LN15@response_t
  000f6	8b 4d 0c	 mov	 ecx, DWORD PTR _receiver$[ebp]
  000f9	8b 11		 mov	 edx, DWORD PTR [ecx]
  000fb	89 55 b4	 mov	 DWORD PTR tv144[ebp], edx
  000fe	eb 21		 jmp	 SHORT $LN16@response_t
$LN15@response_t:
  00100	a1 00 00 00 00	 mov	 eax, DWORD PTR ?__LINE__Var@?0??response_to_task_completed@@YGHW4ENTITY_MESSAGES@@PAUENTITY@@1PAD@Z@4JA
  00105	83 c0 0d	 add	 eax, 13			; 0000000dH
  00108	50		 push	 eax
  00109	68 00 00 00 00	 push	 OFFSET ??_C@_0EN@NPLLMLKG@c?3?2users?2nhv90?2projects?2eech?2ap@
  0010e	8b 0d 00 00 00
	00		 mov	 ecx, DWORD PTR ?null_entity_pointer_message@@3PBDB ; null_entity_pointer_message
  00114	51		 push	 ecx
  00115	e8 00 00 00 00	 call	 ?process_assert@@YGXPBD0H@Z ; process_assert
  0011a	c7 45 b4 00 00
	00 00		 mov	 DWORD PTR tv144[ebp], 0
$LN16@response_t:
  00121	ba 01 00 00 00	 mov	 edx, 1
  00126	85 d2		 test	 edx, edx
  00128	74 09		 je	 SHORT $LN17@response_t
  0012a	c7 45 b0 08 00
	00 00		 mov	 DWORD PTR tv152[ebp], 8
  00131	eb 21		 jmp	 SHORT $LN18@response_t
$LN17@response_t:
  00133	a1 00 00 00 00	 mov	 eax, DWORD PTR ?__LINE__Var@?0??response_to_task_completed@@YGHW4ENTITY_MESSAGES@@PAUENTITY@@1PAD@Z@4JA
  00138	83 c0 0d	 add	 eax, 13			; 0000000dH
  0013b	50		 push	 eax
  0013c	68 00 00 00 00	 push	 OFFSET ??_C@_0EN@NPLLMLKG@c?3?2users?2nhv90?2projects?2eech?2ap@
  00141	8b 0d 00 00 00
	00		 mov	 ecx, DWORD PTR ?overload_invalid_float_type_message@@3PBDB ; overload_invalid_float_type_message
  00147	51		 push	 ecx
  00148	e8 00 00 00 00	 call	 ?process_assert@@YGXPBD0H@Z ; process_assert
  0014d	c7 45 b0 00 00
	00 00		 mov	 DWORD PTR tv152[ebp], 0
$LN18@response_t:
  00154	83 7d 0c 00	 cmp	 DWORD PTR _receiver$[ebp], 0
  00158	74 0a		 je	 SHORT $LN19@response_t
  0015a	8b 55 0c	 mov	 edx, DWORD PTR _receiver$[ebp]
  0015d	8b 02		 mov	 eax, DWORD PTR [edx]
  0015f	89 45 ac	 mov	 DWORD PTR tv170[ebp], eax
  00162	eb 22		 jmp	 SHORT $LN20@response_t
$LN19@response_t:
  00164	8b 0d 00 00 00
	00		 mov	 ecx, DWORD PTR ?__LINE__Var@?0??response_to_task_completed@@YGHW4ENTITY_MESSAGES@@PAUENTITY@@1PAD@Z@4JA
  0016a	83 c1 0b	 add	 ecx, 11			; 0000000bH
  0016d	51		 push	 ecx
  0016e	68 00 00 00 00	 push	 OFFSET ??_C@_0EN@NPLLMLKG@c?3?2users?2nhv90?2projects?2eech?2ap@
  00173	8b 15 00 00 00
	00		 mov	 edx, DWORD PTR ?null_entity_pointer_message@@3PBDB ; null_entity_pointer_message
  00179	52		 push	 edx
  0017a	e8 00 00 00 00	 call	 ?process_assert@@YGXPBD0H@Z ; process_assert
  0017f	c7 45 ac 00 00
	00 00		 mov	 DWORD PTR tv170[ebp], 0
$LN20@response_t:
  00186	b8 01 00 00 00	 mov	 eax, 1
  0018b	85 c0		 test	 eax, eax
  0018d	74 09		 je	 SHORT $LN21@response_t
  0018f	c7 45 a8 03 00
	00 00		 mov	 DWORD PTR tv178[ebp], 3
  00196	eb 22		 jmp	 SHORT $LN22@response_t
$LN21@response_t:
  00198	8b 0d 00 00 00
	00		 mov	 ecx, DWORD PTR ?__LINE__Var@?0??response_to_task_completed@@YGHW4ENTITY_MESSAGES@@PAUENTITY@@1PAD@Z@4JA
  0019e	83 c1 0b	 add	 ecx, 11			; 0000000bH
  001a1	51		 push	 ecx
  001a2	68 00 00 00 00	 push	 OFFSET ??_C@_0EN@NPLLMLKG@c?3?2users?2nhv90?2projects?2eech?2ap@
  001a7	8b 15 00 00 00
	00		 mov	 edx, DWORD PTR ?overload_invalid_string_type_message@@3PBDB ; overload_invalid_string_type_message
  001ad	52		 push	 edx
  001ae	e8 00 00 00 00	 call	 ?process_assert@@YGXPBD0H@Z ; process_assert
  001b3	c7 45 a8 00 00
	00 00		 mov	 DWORD PTR tv178[ebp], 0
$LN22@response_t:
  001ba	6a 30		 push	 48			; 00000030H
  001bc	8b 45 0c	 mov	 eax, DWORD PTR _receiver$[ebp]
  001bf	50		 push	 eax
  001c0	69 4d bc bc 02
	00 00		 imul	 ecx, DWORD PTR tv89[ebp], 700
  001c7	8b 55 b8	 mov	 edx, DWORD PTR tv129[ebp]
  001ca	8b 84 91 00 00
	00 00		 mov	 eax, DWORD PTR ?fn_get_local_entity_float_value@@3PAY0KP@P6GMPAUENTITY@@W4FLOAT_TYPES@@@ZA[ecx+edx*4]
  001d1	ff d0		 call	 eax
  001d3	83 ec 08	 sub	 esp, 8
  001d6	dd 1c 24	 fstp	 QWORD PTR [esp]
  001d9	6a 08		 push	 8
  001db	8b 4d 0c	 mov	 ecx, DWORD PTR _receiver$[ebp]
  001de	51		 push	 ecx
  001df	69 55 b4 bc 02
	00 00		 imul	 edx, DWORD PTR tv144[ebp], 700
  001e6	8b 45 b0	 mov	 eax, DWORD PTR tv152[ebp]
  001e9	8b 8c 82 00 00
	00 00		 mov	 ecx, DWORD PTR ?fn_get_local_entity_float_value@@3PAY0KP@P6GMPAUENTITY@@W4FLOAT_TYPES@@@ZA[edx+eax*4]
  001f0	ff d1		 call	 ecx
  001f2	83 ec 08	 sub	 esp, 8
  001f5	dd 1c 24	 fstp	 QWORD PTR [esp]
  001f8	8b 55 0c	 mov	 edx, DWORD PTR _receiver$[ebp]
  001fb	2b 15 00 00 00
	00		 sub	 edx, DWORD PTR ?entities@@3PAUENTITY@@A ; entities
  00201	c1 fa 04	 sar	 edx, 4
  00204	52		 push	 edx
  00205	6a 03		 push	 3
  00207	8b 45 0c	 mov	 eax, DWORD PTR _receiver$[ebp]
  0020a	50		 push	 eax
  0020b	6b 4d ac 34	 imul	 ecx, DWORD PTR tv170[ebp], 52
  0020f	8b 55 a8	 mov	 edx, DWORD PTR tv178[ebp]
  00212	8b 84 91 00 00
	00 00		 mov	 eax, DWORD PTR ?fn_get_local_entity_string@@3PAY0N@P6GPBDPAUENTITY@@W4STRING_TYPES@@@ZA[ecx+edx*4]
  00219	ff d0		 call	 eax
  0021b	50		 push	 eax
  0021c	68 00 00 00 00	 push	 OFFSET ??_C@_0EI@PHKFJOMA@KS_MSGS?3?5SUPPLY_INFO?3?5keysite?5?$CF@
  00221	e8 00 00 00 00	 call	 ?debug_log@@YAXPBDZZ	; debug_log
  00226	83 c4 1c	 add	 esp, 28			; 0000001cH
$LN5@response_t:

; 176  : 							get_local_entity_string (receiver, STRING_TYPE_FULL_NAME),
; 177  : 							get_local_entity_index (receiver),
; 178  : 							get_local_entity_float_value (receiver, FLOAT_TYPE_AMMO_SUPPLY_LEVEL),
; 179  : 							get_local_entity_float_value (receiver, FLOAT_TYPE_FUEL_SUPPLY_LEVEL));
; 180  : 
; 181  : 			//#endif
; 182  : 		
; 183  : 			break;
; 184  : 		}
; 185  : 
; 186  : 		default :
; 187  : 		{
; 188  : 
; 189  : 			break;
; 190  : 		}
; 191  : 	}
; 192  : 
; 193  : 	return (TRUE);

  00229	b8 01 00 00 00	 mov	 eax, 1

; 194  : }

  0022e	5f		 pop	 edi
  0022f	5e		 pop	 esi
  00230	5b		 pop	 ebx
  00231	8b e5		 mov	 esp, ebp
  00233	5d		 pop	 ebp
  00234	c2 10 00	 ret	 16			; 00000010H
?response_to_task_completed@@YGHW4ENTITY_MESSAGES@@PAUENTITY@@1PAD@Z ENDP ; response_to_task_completed
_TEXT	ENDS
; Function compile flags: /Odtp /ZI
; File c:\users\nhv90\projects\eech\aphavoc\source\entity\special\keysite\ks_msgs.c
;	COMDAT ?response_to_unlink_child@@YGHW4ENTITY_MESSAGES@@PAUENTITY@@1PAD@Z
_TEXT	SEGMENT
_message$ = 8						; size = 4
_receiver$ = 12						; size = 4
_sender$ = 16						; size = 4
_pargs$ = 20						; size = 4
?response_to_unlink_child@@YGHW4ENTITY_MESSAGES@@PAUENTITY@@1PAD@Z PROC ; response_to_unlink_child, COMDAT

; 107  : {

  00000	55		 push	 ebp
  00001	8b ec		 mov	 ebp, esp
  00003	83 ec 40	 sub	 esp, 64			; 00000040H
  00006	53		 push	 ebx
  00007	56		 push	 esi
  00008	57		 push	 edi

; 108  : 
; 109  : 	#if DEBUG_MODULE
; 110  : 
; 111  : 	list_types
; 112  : 		list_type;
; 113  : 
; 114  : 	debug_log_entity_message (message, receiver, sender, pargs);
; 115  : 
; 116  : 
; 117  : 	list_type = va_arg (pargs, list_types);
; 118  : 
; 119  : 	if (list_type == LIST_TYPE_AIR_TASK)
; 120  : 	{
; 121  : 
; 122  : 		debug_log ("KS_MSGS: removing task %s %d to keysite %s %d", entity_sub_type_task_names [get_local_entity_int_value (sender, INT_TYPE_ENTITY_SUB_TYPE)], sender, get_local_entity_string (receiver, STRING_TYPE_KEYSITE_NAME), receiver);
; 123  : 	}
; 124  : 
; 125  : 	#endif
; 126  : 
; 127  : 	return (TRUE);

  00009	b8 01 00 00 00	 mov	 eax, 1

; 128  : }

  0000e	5f		 pop	 edi
  0000f	5e		 pop	 esi
  00010	5b		 pop	 ebx
  00011	8b e5		 mov	 esp, ebp
  00013	5d		 pop	 ebp
  00014	c2 10 00	 ret	 16			; 00000010H
?response_to_unlink_child@@YGHW4ENTITY_MESSAGES@@PAUENTITY@@1PAD@Z ENDP ; response_to_unlink_child
_TEXT	ENDS
; Function compile flags: /Odtp /ZI
; File c:\users\nhv90\projects\eech\aphavoc\source\entity\special\keysite\ks_msgs.c
;	COMDAT ?response_to_link_child@@YGHW4ENTITY_MESSAGES@@PAUENTITY@@1PAD@Z
_TEXT	SEGMENT
_message$ = 8						; size = 4
_receiver$ = 12						; size = 4
_sender$ = 16						; size = 4
_pargs$ = 20						; size = 4
?response_to_link_child@@YGHW4ENTITY_MESSAGES@@PAUENTITY@@1PAD@Z PROC ; response_to_link_child, COMDAT

; 80   : {

  00000	55		 push	 ebp
  00001	8b ec		 mov	 ebp, esp
  00003	83 ec 40	 sub	 esp, 64			; 00000040H
  00006	53		 push	 ebx
  00007	56		 push	 esi
  00008	57		 push	 edi

; 81   : 
; 82   : 	#if DEBUG_MODULE
; 83   : 
; 84   : 	list_types
; 85   : 		list_type;
; 86   : 
; 87   : 	debug_log_entity_message (message, receiver, sender, pargs);
; 88   : 
; 89   : 	list_type = va_arg (pargs, list_types);
; 90   : 
; 91   : 	if (list_type == LIST_TYPE_AIR_TASK)
; 92   : 	{
; 93   : 
; 94   : 		debug_log ("KS_MSGS: adding task %s %d to keysite %s %d", entity_sub_type_task_names [get_local_entity_int_value (sender, INT_TYPE_ENTITY_SUB_TYPE)], sender, get_local_entity_string (receiver, STRING_TYPE_KEYSITE_NAME), receiver);
; 95   : 	}
; 96   : 
; 97   : 	#endif
; 98   : 
; 99   : 	return (TRUE);

  00009	b8 01 00 00 00	 mov	 eax, 1

; 100  : }

  0000e	5f		 pop	 edi
  0000f	5e		 pop	 esi
  00010	5b		 pop	 ebx
  00011	8b e5		 mov	 esp, ebp
  00013	5d		 pop	 ebp
  00014	c2 10 00	 ret	 16			; 00000010H
?response_to_link_child@@YGHW4ENTITY_MESSAGES@@PAUENTITY@@1PAD@Z ENDP ; response_to_link_child
_TEXT	ENDS
; Function compile flags: /Odtp /ZI
; File c:\users\nhv90\projects\eech\aphavoc\source\entity\special\keysite\ks_msgs.c
;	COMDAT ?overload_keysite_message_responses@@YGXXZ
_TEXT	SEGMENT
?overload_keysite_message_responses@@YGXXZ PROC		; overload_keysite_message_responses, COMDAT

; 356  : {

  00000	55		 push	 ebp
  00001	8b ec		 mov	 ebp, esp
  00003	83 ec 40	 sub	 esp, 64			; 00000040H
  00006	53		 push	 ebx
  00007	56		 push	 esi
  00008	57		 push	 edi

; 357  : 	overload_fixed_message_responses (ENTITY_TYPE_KEYSITE);

  00009	6a 0f		 push	 15			; 0000000fH
  0000b	e8 00 00 00 00	 call	 ?overload_fixed_message_responses@@YGXW4ENTITY_TYPES@@@Z ; overload_fixed_message_responses

; 358  : 
; 359  : 	#if DEBUG_MODULE
; 360  : 
; 361  : 	message_responses[ENTITY_TYPE_KEYSITE][ENTITY_MESSAGE_LINK_PARENT]						= response_to_link_parent;
; 362  : 
; 363  : 	message_responses[ENTITY_TYPE_KEYSITE][ENTITY_MESSAGE_UNLINK_PARENT]						= response_to_unlink_parent;
; 364  : 
; 365  : 	#endif
; 366  : 
; 367  : 	message_responses[ENTITY_TYPE_KEYSITE][ENTITY_MESSAGE_LINK_CHILD]							= response_to_link_child;

  00010	b8 84 01 00 00	 mov	 eax, 388		; 00000184H
  00015	6b c8 0f	 imul	 ecx, eax, 15
  00018	ba 04 00 00 00	 mov	 edx, 4
  0001d	6b c2 23	 imul	 eax, edx, 35
  00020	c7 84 01 00 00
	00 00 00 00 00
	00		 mov	 DWORD PTR ?message_responses@@3PAY0GB@P6GHW4ENTITY_MESSAGES@@PAUENTITY@@1PAD@ZA[ecx+eax], OFFSET ?response_to_link_child@@YGHW4ENTITY_MESSAGES@@PAUENTITY@@1PAD@Z ; response_to_link_child

; 368  : 
; 369  : 	message_responses[ENTITY_TYPE_KEYSITE][ENTITY_MESSAGE_UNLINK_CHILD]						= response_to_unlink_child;

  0002b	b8 84 01 00 00	 mov	 eax, 388		; 00000184H
  00030	6b c8 0f	 imul	 ecx, eax, 15
  00033	ba 04 00 00 00	 mov	 edx, 4
  00038	6b c2 37	 imul	 eax, edx, 55
  0003b	c7 84 01 00 00
	00 00 00 00 00
	00		 mov	 DWORD PTR ?message_responses@@3PAY0GB@P6GHW4ENTITY_MESSAGES@@PAUENTITY@@1PAD@ZA[ecx+eax], OFFSET ?response_to_unlink_child@@YGHW4ENTITY_MESSAGES@@PAUENTITY@@1PAD@Z ; response_to_unlink_child

; 370  : 
; 371  : 	message_responses[ENTITY_TYPE_KEYSITE][ENTITY_MESSAGE_TASK_COMPLETED]					= response_to_task_completed;

  00046	b8 84 01 00 00	 mov	 eax, 388		; 00000184H
  0004b	6b c8 0f	 imul	 ecx, eax, 15
  0004e	ba 04 00 00 00	 mov	 edx, 4
  00053	6b c2 32	 imul	 eax, edx, 50
  00056	c7 84 01 00 00
	00 00 00 00 00
	00		 mov	 DWORD PTR ?message_responses@@3PAY0GB@P6GHW4ENTITY_MESSAGES@@PAUENTITY@@1PAD@ZA[ecx+eax], OFFSET ?response_to_task_completed@@YGHW4ENTITY_MESSAGES@@PAUENTITY@@1PAD@Z ; response_to_task_completed

; 372  : 
; 373  : 	message_responses[ENTITY_TYPE_KEYSITE][ENTITY_MESSAGE_WAYPOINT_DROP_OFF_REACHED]		= response_to_waypoint_drop_off_reached;

  00061	b8 84 01 00 00	 mov	 eax, 388		; 00000184H
  00066	6b c8 0f	 imul	 ecx, eax, 15
  00069	ba 04 00 00 00	 mov	 edx, 4
  0006e	6b c2 42	 imul	 eax, edx, 66
  00071	c7 84 01 00 00
	00 00 00 00 00
	00		 mov	 DWORD PTR ?message_responses@@3PAY0GB@P6GHW4ENTITY_MESSAGES@@PAUENTITY@@1PAD@ZA[ecx+eax], OFFSET ?response_to_waypoint_drop_off_reached@@YGHW4ENTITY_MESSAGES@@PAUENTITY@@1PAD@Z ; response_to_waypoint_drop_off_reached

; 374  : 
; 375  : 	message_responses[ENTITY_TYPE_KEYSITE][ENTITY_MESSAGE_WAYPOINT_PICK_UP_REACHED]		= response_to_waypoint_pick_up_reached;

  0007c	b8 84 01 00 00	 mov	 eax, 388		; 00000184H
  00081	6b c8 0f	 imul	 ecx, eax, 15
  00084	ba 04 00 00 00	 mov	 edx, 4
  00089	6b c2 4d	 imul	 eax, edx, 77
  0008c	c7 84 01 00 00
	00 00 00 00 00
	00		 mov	 DWORD PTR ?message_responses@@3PAY0GB@P6GHW4ENTITY_MESSAGES@@PAUENTITY@@1PAD@ZA[ecx+eax], OFFSET ?response_to_waypoint_pick_up_reached@@YGHW4ENTITY_MESSAGES@@PAUENTITY@@1PAD@Z ; response_to_waypoint_pick_up_reached

; 376  : 
; 377  : 	message_responses[ENTITY_TYPE_KEYSITE][ENTITY_MESSAGE_SET_ENTITY_POSITION]				= response_to_set_entity_position;

  00097	b8 84 01 00 00	 mov	 eax, 388		; 00000184H
  0009c	6b c8 0f	 imul	 ecx, eax, 15
  0009f	ba 04 00 00 00	 mov	 edx, 4
  000a4	6b c2 30	 imul	 eax, edx, 48
  000a7	c7 84 01 00 00
	00 00 00 00 00
	00		 mov	 DWORD PTR ?message_responses@@3PAY0GB@P6GHW4ENTITY_MESSAGES@@PAUENTITY@@1PAD@ZA[ecx+eax], OFFSET ?response_to_set_entity_position@@YGHW4ENTITY_MESSAGES@@PAUENTITY@@1PAD@Z ; response_to_set_entity_position

; 378  : }

  000b2	5f		 pop	 edi
  000b3	5e		 pop	 esi
  000b4	5b		 pop	 ebx
  000b5	8b e5		 mov	 esp, ebp
  000b7	5d		 pop	 ebp
  000b8	c3		 ret	 0
?overload_keysite_message_responses@@YGXXZ ENDP		; overload_keysite_message_responses
_TEXT	ENDS
END
