; Listing generated by Microsoft (R) Optimizing Compiler Version 19.16.27045.0 

	TITLE	C:\Users\nhv90\Projects\eech\aphavoc\source\entity\special\keysite\ks_pack.c
	.686P
	.XMM
	include listing.inc
	.model	flat

INCLUDELIB MSVCRTD
INCLUDELIB OLDNAMES

PUBLIC	?overload_keysite_pack_functions@@YGXXZ		; overload_keysite_pack_functions
PUBLIC	?pack_local_keysite_data@@YGXW4PACK_MODES@@@Z	; pack_local_keysite_data
PUBLIC	?unpack_local_keysite_data@@YGXW4PACK_MODES@@@Z	; unpack_local_keysite_data
PUBLIC	?__LINE__Var@?0??pack_local_data@@YGXPAUENTITY@@W4PACK_MODES@@@Z@4JA ; `pack_local_data'::`1'::__LINE__Var
PUBLIC	??_C@_0EN@PHIBEMII@c?3?2users?2nhv90?2projects?2eech?2ap@ ; `string'
PUBLIC	??_C@_0CH@MMFDPOBJ@?$CImode?5?$DO?$DN?50?$CJ?5?$CG?$CG?5?$CImode?5?$DM?5NUM_PACK@ ; `string'
PUBLIC	?__LINE__Var@?0??unpack_local_data@@YGXPAUENTITY@@W4ENTITY_TYPES@@W4PACK_MODES@@@Z@4JA ; `unpack_local_data'::`1'::__LINE__Var
PUBLIC	?__LINE__Var@?0??pack_local_keysite_data@@YGXW4PACK_MODES@@@Z@4JA ; `pack_local_keysite_data'::`1'::__LINE__Var
PUBLIC	??_C@_0CA@GHGJAHIH@mode?5?$CB?$DN?5PACK_MODE_UPDATE_ENTITY@ ; `string'
PUBLIC	?__LINE__Var@?0??unpack_local_keysite_data@@YGXW4PACK_MODES@@@Z@4JA ; `unpack_local_keysite_data'::`1'::__LINE__Var
EXTRN	?process_assert@@YGXPBD0H@Z:PROC		; process_assert
EXTRN	?insert_local_entity_into_parents_child_list@@YGXPAUENTITY@@W4LIST_TYPES@@00@Z:PROC ; insert_local_entity_into_parents_child_list
EXTRN	?delete_local_entity_from_parents_child_list@@YGXPAUENTITY@@W4LIST_TYPES@@@Z:PROC ; delete_local_entity_from_parents_child_list
EXTRN	?pack_list_root@@YGXPAUENTITY@@W4LIST_TYPES@@PAULIST_ROOT@@@Z:PROC ; pack_list_root
EXTRN	?unpack_list_root@@YGXPAUENTITY@@W4LIST_TYPES@@PAULIST_ROOT@@@Z:PROC ; unpack_list_root
EXTRN	?pack_list_link@@YGXPAUENTITY@@W4LIST_TYPES@@PAULIST_LINK@@@Z:PROC ; pack_list_link
EXTRN	?unpack_list_link@@YGXPAUENTITY@@W4LIST_TYPES@@PAULIST_LINK@@@Z:PROC ; unpack_list_link
EXTRN	?pack_float_value@@YGXPAUENTITY@@W4FLOAT_TYPES@@M@Z:PROC ; pack_float_value
EXTRN	?unpack_float_value@@YGMPAUENTITY@@W4FLOAT_TYPES@@@Z:PROC ; unpack_float_value
EXTRN	?pack_int_value@@YGXPAUENTITY@@W4INT_TYPES@@H@Z:PROC ; pack_int_value
EXTRN	?unpack_int_value@@YGHPAUENTITY@@W4INT_TYPES@@@Z:PROC ; unpack_int_value
EXTRN	?unpack_entity_safe_index@@YGHXZ:PROC		; unpack_entity_safe_index
EXTRN	?pack_entity_safe_ptr@@YGXPAUENTITY@@@Z:PROC	; pack_entity_safe_ptr
EXTRN	?get_local_force_entity@@YGPAUENTITY@@W4ENTITY_SIDES@@@Z:PROC ; get_local_force_entity
EXTRN	?change_local_keysite_building_sides@@YGXPAUENTITY@@W4ENTITY_SIDES@@@Z:PROC ; change_local_keysite_building_sides
EXTRN	?update_imap_sector_side@@YGXPAUENTITY@@H@Z:PROC ; update_imap_sector_side
EXTRN	?update_imap_importance_level@@YGXPAUENTITY@@H@Z:PROC ; update_imap_importance_level
EXTRN	?update_keysite_distance_to_friendly_base@@YGXPAUENTITY@@W4ENTITY_SIDES@@@Z:PROC ; update_keysite_distance_to_friendly_base
EXTRN	?update_imap_distance_to_friendly_base@@YGXW4ENTITY_SIDES@@@Z:PROC ; update_imap_distance_to_friendly_base
EXTRN	?null_entity_pointer_message@@3PBDB:DWORD	; null_entity_pointer_message
EXTRN	?fn_pack_local_entity_data@@3PAP6GXPAUENTITY@@W4PACK_MODES@@@ZA:BYTE ; fn_pack_local_entity_data
EXTRN	?fn_unpack_local_entity_data@@3PAP6GXPAUENTITY@@W4ENTITY_TYPES@@W4PACK_MODES@@@ZA:BYTE ; fn_unpack_local_entity_data
EXTRN	?overload_invalid_list_type_message@@3PBDB:DWORD ; overload_invalid_list_type_message
EXTRN	?fn_get_local_entity_first_child@@3PAY0CN@P6GPAUENTITY@@PAU1@W4LIST_TYPES@@@ZA:BYTE ; fn_get_local_entity_first_child
EXTRN	?fn_get_local_entity_child_succ@@3PAY0CN@P6GPAUENTITY@@PAU1@W4LIST_TYPES@@@ZA:BYTE ; fn_get_local_entity_child_succ
EXTRN	?first_used_entity@@3PAUENTITY@@A:DWORD		; first_used_entity
EXTRN	__fltused:DWORD
;	COMDAT ?__LINE__Var@?0??unpack_local_keysite_data@@YGXW4PACK_MODES@@@Z@4JA
_DATA	SEGMENT
?__LINE__Var@?0??unpack_local_keysite_data@@YGXW4PACK_MODES@@@Z@4JA DD 011bH ; `unpack_local_keysite_data'::`1'::__LINE__Var
_DATA	ENDS
;	COMDAT ??_C@_0CA@GHGJAHIH@mode?5?$CB?$DN?5PACK_MODE_UPDATE_ENTITY@
CONST	SEGMENT
??_C@_0CA@GHGJAHIH@mode?5?$CB?$DN?5PACK_MODE_UPDATE_ENTITY@ DB 'mode != P'
	DB	'ACK_MODE_UPDATE_ENTITY', 00H		; `string'
CONST	ENDS
;	COMDAT ?__LINE__Var@?0??pack_local_keysite_data@@YGXW4PACK_MODES@@@Z@4JA
_DATA	SEGMENT
?__LINE__Var@?0??pack_local_keysite_data@@YGXW4PACK_MODES@@@Z@4JA DD 097H ; `pack_local_keysite_data'::`1'::__LINE__Var
_DATA	ENDS
;	COMDAT ?__LINE__Var@?0??unpack_local_data@@YGXPAUENTITY@@W4ENTITY_TYPES@@W4PACK_MODES@@@Z@4JA
_DATA	SEGMENT
?__LINE__Var@?0??unpack_local_data@@YGXPAUENTITY@@W4ENTITY_TYPES@@W4PACK_MODES@@@Z@4JA DD 06cH ; `unpack_local_data'::`1'::__LINE__Var
_DATA	ENDS
;	COMDAT ??_C@_0CH@MMFDPOBJ@?$CImode?5?$DO?$DN?50?$CJ?5?$CG?$CG?5?$CImode?5?$DM?5NUM_PACK@
CONST	SEGMENT
??_C@_0CH@MMFDPOBJ@?$CImode?5?$DO?$DN?50?$CJ?5?$CG?$CG?5?$CImode?5?$DM?5NUM_PACK@ DB '('
	DB	'mode >= 0) && (mode < NUM_PACK_MODES)', 00H	; `string'
CONST	ENDS
;	COMDAT ??_C@_0EN@PHIBEMII@c?3?2users?2nhv90?2projects?2eech?2ap@
CONST	SEGMENT
??_C@_0EN@PHIBEMII@c?3?2users?2nhv90?2projects?2eech?2ap@ DB 'c:\users\nh'
	DB	'v90\projects\eech\aphavoc\source\entity\special\keysite\ks_pa'
	DB	'ck.c', 00H					; `string'
CONST	ENDS
;	COMDAT ?__LINE__Var@?0??pack_local_data@@YGXPAUENTITY@@W4PACK_MODES@@@Z@4JA
_DATA	SEGMENT
?__LINE__Var@?0??pack_local_data@@YGXPAUENTITY@@W4PACK_MODES@@@Z@4JA DD 051H ; `pack_local_data'::`1'::__LINE__Var
_DATA	ENDS
; Function compile flags: /Odtp /ZI
; File c:\users\nhv90\projects\eech\aphavoc\source\entity\special\keysite\ks_pack.c
;	COMDAT ?unpack_local_data@@YGXPAUENTITY@@W4ENTITY_TYPES@@W4PACK_MODES@@@Z
_TEXT	SEGMENT
tv70 = -68						; size = 4
_en$ = 8						; size = 4
_type$ = 12						; size = 4
_mode$ = 16						; size = 4
?unpack_local_data@@YGXPAUENTITY@@W4ENTITY_TYPES@@W4PACK_MODES@@@Z PROC ; unpack_local_data, COMDAT

; 108  : {

  00000	55		 push	 ebp
  00001	8b ec		 mov	 ebp, esp
  00003	83 ec 44	 sub	 esp, 68			; 00000044H
  00006	53		 push	 ebx
  00007	56		 push	 esi
  00008	57		 push	 edi

; 109  : 
; 110  : 	ASSERT ((mode >= 0) && (mode < NUM_PACK_MODES));

  00009	83 7d 10 00	 cmp	 DWORD PTR _mode$[ebp], 0
  0000d	7c 06		 jl	 SHORT $LN5@unpack_loc
  0000f	83 7d 10 04	 cmp	 DWORD PTR _mode$[ebp], 4
  00013	7c 18		 jl	 SHORT $LN4@unpack_loc
$LN5@unpack_loc:
  00015	a1 00 00 00 00	 mov	 eax, DWORD PTR ?__LINE__Var@?0??unpack_local_data@@YGXPAUENTITY@@W4ENTITY_TYPES@@W4PACK_MODES@@@Z@4JA
  0001a	83 c0 02	 add	 eax, 2
  0001d	50		 push	 eax
  0001e	68 00 00 00 00	 push	 OFFSET ??_C@_0EN@PHIBEMII@c?3?2users?2nhv90?2projects?2eech?2ap@
  00023	68 00 00 00 00	 push	 OFFSET ??_C@_0CH@MMFDPOBJ@?$CImode?5?$DO?$DN?50?$CJ?5?$CG?$CG?5?$CImode?5?$DM?5NUM_PACK@
  00028	e8 00 00 00 00	 call	 ?process_assert@@YGXPBD0H@Z ; process_assert
$LN4@unpack_loc:

; 111  : 
; 112  : 	switch (mode)

  0002d	8b 45 10	 mov	 eax, DWORD PTR _mode$[ebp]
  00030	89 45 bc	 mov	 DWORD PTR tv70[ebp], eax

; 113  : 	{
; 114  : 		////////////////////////////////////////
; 115  : 		case PACK_MODE_SERVER_SESSION:
; 116  : 		case PACK_MODE_CLIENT_SESSION:
; 117  : 		case PACK_MODE_BROWSE_SESSION:
; 118  : 		////////////////////////////////////////
; 119  : 		{
; 120  : 			break;
; 121  : 		}
; 122  : 		////////////////////////////////////////
; 123  : 		case PACK_MODE_UPDATE_ENTITY:
; 124  : 		////////////////////////////////////////
; 125  : 		{
; 126  : 			//
; 127  : 			// always use access functions to set the data
; 128  : 			//
; 129  : 
; 130  : 			break;
; 131  : 		}
; 132  : 	}
; 133  : }

  00033	5f		 pop	 edi
  00034	5e		 pop	 esi
  00035	5b		 pop	 ebx
  00036	8b e5		 mov	 esp, ebp
  00038	5d		 pop	 ebp
  00039	c2 0c 00	 ret	 12			; 0000000cH
?unpack_local_data@@YGXPAUENTITY@@W4ENTITY_TYPES@@W4PACK_MODES@@@Z ENDP ; unpack_local_data
_TEXT	ENDS
; Function compile flags: /Odtp /ZI
; File c:\users\nhv90\projects\eech\aphavoc\source\entity\special\keysite\ks_pack.c
;	COMDAT ?pack_local_data@@YGXPAUENTITY@@W4PACK_MODES@@@Z
_TEXT	SEGMENT
tv70 = -68						; size = 4
_en$ = 8						; size = 4
_mode$ = 12						; size = 4
?pack_local_data@@YGXPAUENTITY@@W4PACK_MODES@@@Z PROC	; pack_local_data, COMDAT

; 81   : {

  00000	55		 push	 ebp
  00001	8b ec		 mov	 ebp, esp
  00003	83 ec 44	 sub	 esp, 68			; 00000044H
  00006	53		 push	 ebx
  00007	56		 push	 esi
  00008	57		 push	 edi

; 82   : 	ASSERT ((mode >= 0) && (mode < NUM_PACK_MODES));

  00009	83 7d 0c 00	 cmp	 DWORD PTR _mode$[ebp], 0
  0000d	7c 06		 jl	 SHORT $LN5@pack_local
  0000f	83 7d 0c 04	 cmp	 DWORD PTR _mode$[ebp], 4
  00013	7c 18		 jl	 SHORT $LN4@pack_local
$LN5@pack_local:
  00015	a1 00 00 00 00	 mov	 eax, DWORD PTR ?__LINE__Var@?0??pack_local_data@@YGXPAUENTITY@@W4PACK_MODES@@@Z@4JA
  0001a	83 c0 01	 add	 eax, 1
  0001d	50		 push	 eax
  0001e	68 00 00 00 00	 push	 OFFSET ??_C@_0EN@PHIBEMII@c?3?2users?2nhv90?2projects?2eech?2ap@
  00023	68 00 00 00 00	 push	 OFFSET ??_C@_0CH@MMFDPOBJ@?$CImode?5?$DO?$DN?50?$CJ?5?$CG?$CG?5?$CImode?5?$DM?5NUM_PACK@
  00028	e8 00 00 00 00	 call	 ?process_assert@@YGXPBD0H@Z ; process_assert
$LN4@pack_local:

; 83   : 
; 84   : 	switch (mode)

  0002d	8b 45 0c	 mov	 eax, DWORD PTR _mode$[ebp]
  00030	89 45 bc	 mov	 DWORD PTR tv70[ebp], eax

; 85   : 	{
; 86   : 		////////////////////////////////////////
; 87   : 		case PACK_MODE_SERVER_SESSION:
; 88   : 		case PACK_MODE_CLIENT_SESSION:
; 89   : 		case PACK_MODE_BROWSE_SESSION:
; 90   : 		////////////////////////////////////////
; 91   : 		{
; 92   : 			break;
; 93   : 		}
; 94   : 		////////////////////////////////////////
; 95   : 		case PACK_MODE_UPDATE_ENTITY:
; 96   : 		////////////////////////////////////////
; 97   : 		{
; 98   : 			break;
; 99   : 		}
; 100  : 	}
; 101  : }

  00033	5f		 pop	 edi
  00034	5e		 pop	 esi
  00035	5b		 pop	 ebx
  00036	8b e5		 mov	 esp, ebp
  00038	5d		 pop	 ebp
  00039	c2 08 00	 ret	 8
?pack_local_data@@YGXPAUENTITY@@W4PACK_MODES@@@Z ENDP	; pack_local_data
_TEXT	ENDS
; Function compile flags: /Odtp /ZI
; File c:\users\nhv90\projects\eech\aphavoc\source\entity\special\keysite\ks_pack.c
;	COMDAT ?unpack_local_keysite_data@@YGXW4PACK_MODES@@@Z
_TEXT	SEGMENT
tv325 = -112						; size = 4
tv284 = -112						; size = 4
tv317 = -108						; size = 4
tv276 = -108						; size = 4
tv204 = -108						; size = 4
tv195 = -108						; size = 4
tv134 = -108						; size = 4
tv76 = -108						; size = 4
_index$ = -40						; size = 4
_in_use$ = -36						; size = 4
_takeoff_lock$ = -32					; size = 4
_landed_lock$ = -28					; size = 4
_landing_lock$ = -24					; size = 4
_side$ = -20						; size = 4
_raw$ = -16						; size = 4
_landing_raw$ = -12					; size = 4
_landing_en$ = -8					; size = 4
_en$ = -4						; size = 4
_mode$ = 8						; size = 4
?unpack_local_keysite_data@@YGXW4PACK_MODES@@@Z PROC	; unpack_local_keysite_data, COMDAT

; 283  : {

  00000	55		 push	 ebp
  00001	8b ec		 mov	 ebp, esp
  00003	83 ec 70	 sub	 esp, 112		; 00000070H
  00006	53		 push	 ebx
  00007	56		 push	 esi
  00008	57		 push	 edi

; 284  :    entity
; 285  :       *en,
; 286  : 		*landing_en;
; 287  : 
; 288  : 	landing
; 289  : 		*landing_raw;
; 290  : 
; 291  :    keysite
; 292  :       *raw;
; 293  : 
; 294  : 	int
; 295  : 		side,
; 296  : 		landing_lock,
; 297  : 		landed_lock,
; 298  : 		takeoff_lock,
; 299  : 		in_use,
; 300  : 		index;
; 301  : 
; 302  :    ASSERT (mode != PACK_MODE_UPDATE_ENTITY);

  00009	83 7d 08 03	 cmp	 DWORD PTR _mode$[ebp], 3
  0000d	75 18		 jne	 SHORT $LN6@unpack_loc
  0000f	a1 00 00 00 00	 mov	 eax, DWORD PTR ?__LINE__Var@?0??unpack_local_keysite_data@@YGXW4PACK_MODES@@@Z@4JA
  00014	83 c0 13	 add	 eax, 19			; 00000013H
  00017	50		 push	 eax
  00018	68 00 00 00 00	 push	 OFFSET ??_C@_0EN@PHIBEMII@c?3?2users?2nhv90?2projects?2eech?2ap@
  0001d	68 00 00 00 00	 push	 OFFSET ??_C@_0CA@GHGJAHIH@mode?5?$CB?$DN?5PACK_MODE_UPDATE_ENTITY@
  00022	e8 00 00 00 00	 call	 ?process_assert@@YGXPBD0H@Z ; process_assert
$LN6@unpack_loc:

; 303  : 
; 304  :    if (mode == PACK_MODE_BROWSE_SESSION)

  00027	83 7d 08 02	 cmp	 DWORD PTR _mode$[ebp], 2
  0002b	75 05		 jne	 SHORT $LN7@unpack_loc

; 305  :    {
; 306  :       return;

  0002d	e9 08 05 00 00	 jmp	 $LN1@unpack_loc
$LN7@unpack_loc:

; 307  :    }
; 308  : 
; 309  : 	en = get_local_entity_list ();

  00032	a1 00 00 00 00	 mov	 eax, DWORD PTR ?first_used_entity@@3PAUENTITY@@A ; first_used_entity
  00037	89 45 fc	 mov	 DWORD PTR _en$[ebp], eax
$LN2@unpack_loc:

; 310  : 
; 311  : 	while (en)

  0003a	83 7d fc 00	 cmp	 DWORD PTR _en$[ebp], 0
  0003e	0f 84 f6 04 00
	00		 je	 $LN3@unpack_loc

; 312  : 	{
; 313  : 
; 314  : 		if (get_local_entity_type (en) == ENTITY_TYPE_KEYSITE)

  00044	83 7d fc 00	 cmp	 DWORD PTR _en$[ebp], 0
  00048	74 0a		 je	 SHORT $LN22@unpack_loc
  0004a	8b 45 fc	 mov	 eax, DWORD PTR _en$[ebp]
  0004d	8b 08		 mov	 ecx, DWORD PTR [eax]
  0004f	89 4d 94	 mov	 DWORD PTR tv76[ebp], ecx
  00052	eb 1d		 jmp	 SHORT $LN23@unpack_loc
$LN22@unpack_loc:
  00054	68 3a 01 00 00	 push	 314			; 0000013aH
  00059	68 00 00 00 00	 push	 OFFSET ??_C@_0EN@PHIBEMII@c?3?2users?2nhv90?2projects?2eech?2ap@
  0005e	8b 15 00 00 00
	00		 mov	 edx, DWORD PTR ?null_entity_pointer_message@@3PBDB ; null_entity_pointer_message
  00064	52		 push	 edx
  00065	e8 00 00 00 00	 call	 ?process_assert@@YGXPBD0H@Z ; process_assert
  0006a	c7 45 94 00 00
	00 00		 mov	 DWORD PTR tv76[ebp], 0
$LN23@unpack_loc:
  00071	83 7d 94 0f	 cmp	 DWORD PTR tv76[ebp], 15	; 0000000fH
  00075	0f 85 b1 04 00
	00		 jne	 $LN5@unpack_loc

; 315  : 		{
; 316  : 
; 317  : 			//
; 318  : 			// unpack keysite
; 319  : 			//
; 320  : 
; 321  : 			index = unpack_entity_safe_index ();

  0007b	e8 00 00 00 00	 call	 ?unpack_entity_safe_index@@YGHXZ ; unpack_entity_safe_index
  00080	89 45 d8	 mov	 DWORD PTR _index$[ebp], eax

; 322  : 
; 323  : 			raw = (keysite *) get_local_entity_data (en);

  00083	8b 45 fc	 mov	 eax, DWORD PTR _en$[ebp]
  00086	8b 48 04	 mov	 ecx, DWORD PTR [eax+4]
  00089	89 4d f0	 mov	 DWORD PTR _raw$[ebp], ecx

; 324  : 
; 325  : 			raw->supplies.ammo_supply_level = unpack_float_value (en, FLOAT_TYPE_AMMO_SUPPLY_LEVEL);

  0008c	6a 08		 push	 8
  0008e	8b 45 fc	 mov	 eax, DWORD PTR _en$[ebp]
  00091	50		 push	 eax
  00092	e8 00 00 00 00	 call	 ?unpack_float_value@@YGMPAUENTITY@@W4FLOAT_TYPES@@@Z ; unpack_float_value
  00097	8b 4d f0	 mov	 ecx, DWORD PTR _raw$[ebp]
  0009a	d9 99 94 00 00
	00		 fstp	 DWORD PTR [ecx+148]

; 326  : 
; 327  : 			raw->supplies.fuel_supply_level = unpack_float_value (en, FLOAT_TYPE_FUEL_SUPPLY_LEVEL);

  000a0	6a 30		 push	 48			; 00000030H
  000a2	8b 45 fc	 mov	 eax, DWORD PTR _en$[ebp]
  000a5	50		 push	 eax
  000a6	e8 00 00 00 00	 call	 ?unpack_float_value@@YGMPAUENTITY@@W4FLOAT_TYPES@@@Z ; unpack_float_value
  000ab	8b 4d f0	 mov	 ecx, DWORD PTR _raw$[ebp]
  000ae	d9 99 98 00 00
	00		 fstp	 DWORD PTR [ecx+152]

; 328  : 
; 329  : 			raw->keysite_strength = unpack_float_value (en, FLOAT_TYPE_KEYSITE_STRENGTH);

  000b4	6a 3a		 push	 58			; 0000003aH
  000b6	8b 45 fc	 mov	 eax, DWORD PTR _en$[ebp]
  000b9	50		 push	 eax
  000ba	e8 00 00 00 00	 call	 ?unpack_float_value@@YGMPAUENTITY@@W4FLOAT_TYPES@@@Z ; unpack_float_value
  000bf	8b 4d f0	 mov	 ecx, DWORD PTR _raw$[ebp]
  000c2	d9 59 74	 fstp	 DWORD PTR [ecx+116]

; 330  : 
; 331  : 			raw->keysite_maximum_strength = unpack_float_value (en, FLOAT_TYPE_KEYSITE_MAXIMUM_STRENGTH);

  000c5	6a 39		 push	 57			; 00000039H
  000c7	8b 45 fc	 mov	 eax, DWORD PTR _en$[ebp]
  000ca	50		 push	 eax
  000cb	e8 00 00 00 00	 call	 ?unpack_float_value@@YGMPAUENTITY@@W4FLOAT_TYPES@@@Z ; unpack_float_value
  000d0	8b 4d f0	 mov	 ecx, DWORD PTR _raw$[ebp]
  000d3	d9 59 78	 fstp	 DWORD PTR [ecx+120]

; 332  : 
; 333  : 			raw->alive = unpack_int_value (en, INT_TYPE_ALIVE);

  000d6	6a 07		 push	 7
  000d8	8b 45 fc	 mov	 eax, DWORD PTR _en$[ebp]
  000db	50		 push	 eax
  000dc	e8 00 00 00 00	 call	 ?unpack_int_value@@YGHPAUENTITY@@W4INT_TYPES@@@Z ; unpack_int_value
  000e1	89 45 94	 mov	 DWORD PTR tv134[ebp], eax
  000e4	8b 4d 94	 mov	 ecx, DWORD PTR tv134[ebp]
  000e7	83 e1 01	 and	 ecx, 1
  000ea	c1 e1 18	 shl	 ecx, 24			; 00000018H
  000ed	8b 55 f0	 mov	 edx, DWORD PTR _raw$[ebp]
  000f0	8b 82 a0 01 00
	00		 mov	 eax, DWORD PTR [edx+416]
  000f6	25 ff ff ff fe	 and	 eax, -16777217		; feffffffH
  000fb	0b c1		 or	 eax, ecx
  000fd	8b 4d f0	 mov	 ecx, DWORD PTR _raw$[ebp]
  00100	89 81 a0 01 00
	00		 mov	 DWORD PTR [ecx+416], eax

; 334  : 
; 335  : 			side = unpack_int_value (en, INT_TYPE_SIDE);

  00106	68 bb 00 00 00	 push	 187			; 000000bbH
  0010b	8b 45 fc	 mov	 eax, DWORD PTR _en$[ebp]
  0010e	50		 push	 eax
  0010f	e8 00 00 00 00	 call	 ?unpack_int_value@@YGHPAUENTITY@@W4INT_TYPES@@@Z ; unpack_int_value
  00114	89 45 ec	 mov	 DWORD PTR _side$[ebp], eax

; 336  : 
; 337  : 			if (side != raw->side)

  00117	8b 45 f0	 mov	 eax, DWORD PTR _raw$[ebp]
  0011a	8b 88 a0 01 00
	00		 mov	 ecx, DWORD PTR [eax+416]
  00120	c1 e9 1d	 shr	 ecx, 29			; 0000001dH
  00123	83 e1 03	 and	 ecx, 3
  00126	39 4d ec	 cmp	 DWORD PTR _side$[ebp], ecx
  00129	0f 84 d4 00 00
	00		 je	 $LN14@unpack_loc

; 338  : 			{
; 339  : 				//
; 340  : 				// update I-Maps (remove old side)
; 341  : 				//
; 342  : 
; 343  : 				if (raw->in_use)

  0012f	8b 45 f0	 mov	 eax, DWORD PTR _raw$[ebp]
  00132	8b 88 a0 01 00
	00		 mov	 ecx, DWORD PTR [eax+416]
  00138	c1 e9 19	 shr	 ecx, 25			; 00000019H
  0013b	83 e1 01	 and	 ecx, 1
  0013e	74 1c		 je	 SHORT $LN11@unpack_loc

; 344  : 				{
; 345  : 					update_imap_sector_side (en, FALSE);

  00140	6a 00		 push	 0
  00142	8b 45 fc	 mov	 eax, DWORD PTR _en$[ebp]
  00145	50		 push	 eax
  00146	e8 00 00 00 00	 call	 ?update_imap_sector_side@@YGXPAUENTITY@@H@Z ; update_imap_sector_side

; 346  : 
; 347  : 					if (mode == PACK_MODE_SERVER_SESSION)

  0014b	83 7d 08 00	 cmp	 DWORD PTR _mode$[ebp], 0
  0014f	75 0b		 jne	 SHORT $LN11@unpack_loc

; 348  : 					{
; 349  : 						update_imap_importance_level (en, FALSE);

  00151	6a 00		 push	 0
  00153	8b 45 fc	 mov	 eax, DWORD PTR _en$[ebp]
  00156	50		 push	 eax
  00157	e8 00 00 00 00	 call	 ?update_imap_importance_level@@YGXPAUENTITY@@H@Z ; update_imap_importance_level
$LN11@unpack_loc:

; 350  : 					}
; 351  : 				}
; 352  : 
; 353  : 				//
; 354  : 				// change side of keysite buildings
; 355  : 				//
; 356  : 
; 357  : 				change_local_keysite_building_sides (en, (entity_sides) side);

  0015c	8b 45 ec	 mov	 eax, DWORD PTR _side$[ebp]
  0015f	50		 push	 eax
  00160	8b 4d fc	 mov	 ecx, DWORD PTR _en$[ebp]
  00163	51		 push	 ecx
  00164	e8 00 00 00 00	 call	 ?change_local_keysite_building_sides@@YGXPAUENTITY@@W4ENTITY_SIDES@@@Z ; change_local_keysite_building_sides

; 358  : 
; 359  : 				//
; 360  : 				// place into other sides force
; 361  : 				//
; 362  : 
; 363  : 				delete_local_entity_from_parents_child_list (en, LIST_TYPE_KEYSITE_FORCE);

  00169	6a 15		 push	 21			; 00000015H
  0016b	8b 45 fc	 mov	 eax, DWORD PTR _en$[ebp]
  0016e	50		 push	 eax
  0016f	e8 00 00 00 00	 call	 ?delete_local_entity_from_parents_child_list@@YGXPAUENTITY@@W4LIST_TYPES@@@Z ; delete_local_entity_from_parents_child_list

; 364  : 
; 365  : 				insert_local_entity_into_parents_child_list (en, LIST_TYPE_KEYSITE_FORCE, get_local_force_entity ((entity_sides) side), NULL);

  00174	6a 00		 push	 0
  00176	8b 45 ec	 mov	 eax, DWORD PTR _side$[ebp]
  00179	50		 push	 eax
  0017a	e8 00 00 00 00	 call	 ?get_local_force_entity@@YGPAUENTITY@@W4ENTITY_SIDES@@@Z ; get_local_force_entity
  0017f	50		 push	 eax
  00180	6a 15		 push	 21			; 00000015H
  00182	8b 4d fc	 mov	 ecx, DWORD PTR _en$[ebp]
  00185	51		 push	 ecx
  00186	e8 00 00 00 00	 call	 ?insert_local_entity_into_parents_child_list@@YGXPAUENTITY@@W4LIST_TYPES@@00@Z ; insert_local_entity_into_parents_child_list

; 366  : 
; 367  : 				if (mode == PACK_MODE_SERVER_SESSION)

  0018b	83 7d 08 00	 cmp	 DWORD PTR _mode$[ebp], 0
  0018f	75 15		 jne	 SHORT $LN12@unpack_loc

; 368  : 				{
; 369  : 					// Must be done after removed from force
; 370  : 					update_imap_distance_to_friendly_base ((entity_sides) raw->side);

  00191	8b 45 f0	 mov	 eax, DWORD PTR _raw$[ebp]
  00194	8b 88 a0 01 00
	00		 mov	 ecx, DWORD PTR [eax+416]
  0019a	c1 e9 1d	 shr	 ecx, 29			; 0000001dH
  0019d	83 e1 03	 and	 ecx, 3
  001a0	51		 push	 ecx
  001a1	e8 00 00 00 00	 call	 ?update_imap_distance_to_friendly_base@@YGXW4ENTITY_SIDES@@@Z ; update_imap_distance_to_friendly_base
$LN12@unpack_loc:

; 371  : 				}
; 372  : 
; 373  : 				//
; 374  : 				// switch sides
; 375  : 				//
; 376  : 
; 377  : 				raw->side = side;

  001a6	8b 45 ec	 mov	 eax, DWORD PTR _side$[ebp]
  001a9	83 e0 03	 and	 eax, 3
  001ac	c1 e0 1d	 shl	 eax, 29			; 0000001dH
  001af	8b 4d f0	 mov	 ecx, DWORD PTR _raw$[ebp]
  001b2	8b 91 a0 01 00
	00		 mov	 edx, DWORD PTR [ecx+416]
  001b8	81 e2 ff ff ff
	9f		 and	 edx, -1610612737	; 9fffffffH
  001be	0b d0		 or	 edx, eax
  001c0	8b 45 f0	 mov	 eax, DWORD PTR _raw$[ebp]
  001c3	89 90 a0 01 00
	00		 mov	 DWORD PTR [eax+416], edx

; 378  : 
; 379  : 				//
; 380  : 				// update I-Maps (add new side)
; 381  : 				//
; 382  : 
; 383  : 				if (raw->in_use)

  001c9	8b 45 f0	 mov	 eax, DWORD PTR _raw$[ebp]
  001cc	8b 88 a0 01 00
	00		 mov	 ecx, DWORD PTR [eax+416]
  001d2	c1 e9 19	 shr	 ecx, 25			; 00000019H
  001d5	83 e1 01	 and	 ecx, 1
  001d8	74 29		 je	 SHORT $LN14@unpack_loc

; 384  : 				{
; 385  : 					update_imap_sector_side (en, TRUE);

  001da	6a 01		 push	 1
  001dc	8b 45 fc	 mov	 eax, DWORD PTR _en$[ebp]
  001df	50		 push	 eax
  001e0	e8 00 00 00 00	 call	 ?update_imap_sector_side@@YGXPAUENTITY@@H@Z ; update_imap_sector_side

; 386  : 
; 387  : 					if (mode == PACK_MODE_SERVER_SESSION)

  001e5	83 7d 08 00	 cmp	 DWORD PTR _mode$[ebp], 0
  001e9	75 18		 jne	 SHORT $LN14@unpack_loc

; 388  : 					{
; 389  : 						update_imap_importance_level (en, TRUE);

  001eb	6a 01		 push	 1
  001ed	8b 45 fc	 mov	 eax, DWORD PTR _en$[ebp]
  001f0	50		 push	 eax
  001f1	e8 00 00 00 00	 call	 ?update_imap_importance_level@@YGXPAUENTITY@@H@Z ; update_imap_importance_level

; 390  : 
; 391  : 						update_keysite_distance_to_friendly_base (en, (entity_sides) side);

  001f6	8b 45 ec	 mov	 eax, DWORD PTR _side$[ebp]
  001f9	50		 push	 eax
  001fa	8b 4d fc	 mov	 ecx, DWORD PTR _en$[ebp]
  001fd	51		 push	 ecx
  001fe	e8 00 00 00 00	 call	 ?update_keysite_distance_to_friendly_base@@YGXPAUENTITY@@W4ENTITY_SIDES@@@Z ; update_keysite_distance_to_friendly_base
$LN14@unpack_loc:

; 392  : 					}
; 393  : 				}
; 394  : 			}
; 395  : 
; 396  : 			in_use = unpack_int_value (en, INT_TYPE_IN_USE);

  00203	6a 6d		 push	 109			; 0000006dH
  00205	8b 45 fc	 mov	 eax, DWORD PTR _en$[ebp]
  00208	50		 push	 eax
  00209	e8 00 00 00 00	 call	 ?unpack_int_value@@YGHPAUENTITY@@W4INT_TYPES@@@Z ; unpack_int_value
  0020e	89 45 dc	 mov	 DWORD PTR _in_use$[ebp], eax

; 397  : 
; 398  : 			raw->keysite_id = unpack_int_value (en, INT_TYPE_KEYSITE_ID);

  00211	6a 6f		 push	 111			; 0000006fH
  00213	8b 45 fc	 mov	 eax, DWORD PTR _en$[ebp]
  00216	50		 push	 eax
  00217	e8 00 00 00 00	 call	 ?unpack_int_value@@YGHPAUENTITY@@W4INT_TYPES@@@Z ; unpack_int_value
  0021c	89 45 94	 mov	 DWORD PTR tv195[ebp], eax
  0021f	8b 4d 94	 mov	 ecx, DWORD PTR tv195[ebp]
  00222	81 e1 ff 00 00
	00		 and	 ecx, 255		; 000000ffH
  00228	8b 55 f0	 mov	 edx, DWORD PTR _raw$[ebp]
  0022b	8b 82 a0 01 00
	00		 mov	 eax, DWORD PTR [edx+416]
  00231	25 00 ff ff ff	 and	 eax, -256		; ffffff00H
  00236	0b c1		 or	 eax, ecx
  00238	8b 4d f0	 mov	 ecx, DWORD PTR _raw$[ebp]
  0023b	89 81 a0 01 00
	00		 mov	 DWORD PTR [ecx+416], eax

; 399  : 
; 400  : 			raw->keysite_usable_state = unpack_int_value (en, INT_TYPE_KEYSITE_USABLE_STATE);

  00241	6a 70		 push	 112			; 00000070H
  00243	8b 45 fc	 mov	 eax, DWORD PTR _en$[ebp]
  00246	50		 push	 eax
  00247	e8 00 00 00 00	 call	 ?unpack_int_value@@YGHPAUENTITY@@W4INT_TYPES@@@Z ; unpack_int_value
  0024c	89 45 94	 mov	 DWORD PTR tv204[ebp], eax
  0024f	8b 4d 94	 mov	 ecx, DWORD PTR tv204[ebp]
  00252	83 e1 07	 and	 ecx, 7
  00255	c1 e1 1a	 shl	 ecx, 26			; 0000001aH
  00258	8b 55 f0	 mov	 edx, DWORD PTR _raw$[ebp]
  0025b	8b 82 a0 01 00
	00		 mov	 eax, DWORD PTR [edx+416]
  00261	25 ff ff ff e3	 and	 eax, -469762049		; e3ffffffH
  00266	0b c1		 or	 eax, ecx
  00268	8b 4d f0	 mov	 ecx, DWORD PTR _raw$[ebp]
  0026b	89 81 a0 01 00
	00		 mov	 DWORD PTR [ecx+416], eax

; 401  : 
; 402  : 			if (raw->in_use != in_use)

  00271	8b 45 f0	 mov	 eax, DWORD PTR _raw$[ebp]
  00274	8b 88 a0 01 00
	00		 mov	 ecx, DWORD PTR [eax+416]
  0027a	c1 e9 19	 shr	 ecx, 25			; 00000019H
  0027d	83 e1 01	 and	 ecx, 1
  00280	3b 4d dc	 cmp	 ecx, DWORD PTR _in_use$[ebp]
  00283	74 61		 je	 SHORT $LN18@unpack_loc

; 403  : 			{
; 404  : 				//
; 405  : 				// Update I-Maps (in use flag changed)
; 406  : 				//
; 407  : 
; 408  : 				raw->in_use = in_use;

  00285	8b 45 dc	 mov	 eax, DWORD PTR _in_use$[ebp]
  00288	83 e0 01	 and	 eax, 1
  0028b	c1 e0 19	 shl	 eax, 25			; 00000019H
  0028e	8b 4d f0	 mov	 ecx, DWORD PTR _raw$[ebp]
  00291	8b 91 a0 01 00
	00		 mov	 edx, DWORD PTR [ecx+416]
  00297	81 e2 ff ff ff
	fd		 and	 edx, -33554433		; fdffffffH
  0029d	0b d0		 or	 edx, eax
  0029f	8b 45 f0	 mov	 eax, DWORD PTR _raw$[ebp]
  002a2	89 90 a0 01 00
	00		 mov	 DWORD PTR [eax+416], edx

; 409  : 
; 410  : 				update_imap_sector_side (en, in_use);

  002a8	8b 45 dc	 mov	 eax, DWORD PTR _in_use$[ebp]
  002ab	50		 push	 eax
  002ac	8b 4d fc	 mov	 ecx, DWORD PTR _en$[ebp]
  002af	51		 push	 ecx
  002b0	e8 00 00 00 00	 call	 ?update_imap_sector_side@@YGXPAUENTITY@@H@Z ; update_imap_sector_side

; 411  : 
; 412  : 				if (mode == PACK_MODE_SERVER_SESSION)

  002b5	83 7d 08 00	 cmp	 DWORD PTR _mode$[ebp], 0
  002b9	75 2b		 jne	 SHORT $LN18@unpack_loc

; 413  : 				{
; 414  : 					update_imap_importance_level (en, in_use);

  002bb	8b 45 dc	 mov	 eax, DWORD PTR _in_use$[ebp]
  002be	50		 push	 eax
  002bf	8b 4d fc	 mov	 ecx, DWORD PTR _en$[ebp]
  002c2	51		 push	 ecx
  002c3	e8 00 00 00 00	 call	 ?update_imap_importance_level@@YGXPAUENTITY@@H@Z ; update_imap_importance_level

; 415  : 
; 416  : 					if (in_use)

  002c8	83 7d dc 00	 cmp	 DWORD PTR _in_use$[ebp], 0
  002cc	74 0f		 je	 SHORT $LN17@unpack_loc

; 417  : 					{
; 418  : 						update_keysite_distance_to_friendly_base (en, (entity_sides) side);

  002ce	8b 45 ec	 mov	 eax, DWORD PTR _side$[ebp]
  002d1	50		 push	 eax
  002d2	8b 4d fc	 mov	 ecx, DWORD PTR _en$[ebp]
  002d5	51		 push	 ecx
  002d6	e8 00 00 00 00	 call	 ?update_keysite_distance_to_friendly_base@@YGXPAUENTITY@@W4ENTITY_SIDES@@@Z ; update_keysite_distance_to_friendly_base

; 419  : 					}
; 420  : 					else

  002db	eb 09		 jmp	 SHORT $LN18@unpack_loc
$LN17@unpack_loc:

; 421  : 					{
; 422  : 						update_imap_distance_to_friendly_base ((entity_sides) side);

  002dd	8b 45 ec	 mov	 eax, DWORD PTR _side$[ebp]
  002e0	50		 push	 eax
  002e1	e8 00 00 00 00	 call	 ?update_imap_distance_to_friendly_base@@YGXW4ENTITY_SIDES@@@Z ; update_imap_distance_to_friendly_base
$LN18@unpack_loc:

; 423  : 					}
; 424  : 				}
; 425  : 			}
; 426  : 
; 427  : 			unpack_list_root (en, LIST_TYPE_UNASSIGNED_TASK, &raw->unassigned_task_root);

  002e6	8b 45 f0	 mov	 eax, DWORD PTR _raw$[ebp]
  002e9	83 c0 10	 add	 eax, 16			; 00000010H
  002ec	50		 push	 eax
  002ed	6a 28		 push	 40			; 00000028H
  002ef	8b 4d fc	 mov	 ecx, DWORD PTR _en$[ebp]
  002f2	51		 push	 ecx
  002f3	e8 00 00 00 00	 call	 ?unpack_list_root@@YGXPAUENTITY@@W4LIST_TYPES@@PAULIST_ROOT@@@Z ; unpack_list_root

; 428  : 			unpack_list_root (en, LIST_TYPE_ASSIGNED_TASK, &raw->assigned_task_root);

  002f8	8b 45 f0	 mov	 eax, DWORD PTR _raw$[ebp]
  002fb	83 c0 14	 add	 eax, 20			; 00000014H
  002fe	50		 push	 eax
  002ff	6a 03		 push	 3
  00301	8b 4d fc	 mov	 ecx, DWORD PTR _en$[ebp]
  00304	51		 push	 ecx
  00305	e8 00 00 00 00	 call	 ?unpack_list_root@@YGXPAUENTITY@@W4LIST_TYPES@@PAULIST_ROOT@@@Z ; unpack_list_root

; 429  : 			unpack_list_root (en, LIST_TYPE_COMPLETED_TASK, &raw->completed_task_root);

  0030a	8b 45 f0	 mov	 eax, DWORD PTR _raw$[ebp]
  0030d	83 c0 18	 add	 eax, 24			; 00000018H
  00310	50		 push	 eax
  00311	6a 08		 push	 8
  00313	8b 4d fc	 mov	 ecx, DWORD PTR _en$[ebp]
  00316	51		 push	 ecx
  00317	e8 00 00 00 00	 call	 ?unpack_list_root@@YGXPAUENTITY@@W4LIST_TYPES@@PAULIST_ROOT@@@Z ; unpack_list_root

; 430  : 
; 431  : //			unpack_list_root (en, LIST_TYPE_KEYSITE_GROUP, &raw->keysite_group_root);
; 432  : 
; 433  : 			unpack_list_root (en, LIST_TYPE_DIVISION_HEADQUARTERS, &raw->division_headquarters_root);

  0031c	8b 45 f0	 mov	 eax, DWORD PTR _raw$[ebp]
  0031f	83 c0 24	 add	 eax, 36			; 00000024H
  00322	50		 push	 eax
  00323	6a 0c		 push	 12			; 0000000cH
  00325	8b 4d fc	 mov	 ecx, DWORD PTR _en$[ebp]
  00328	51		 push	 ecx
  00329	e8 00 00 00 00	 call	 ?unpack_list_root@@YGXPAUENTITY@@W4LIST_TYPES@@PAULIST_ROOT@@@Z ; unpack_list_root

; 434  : 
; 435  : 			if (unpack_int_value (en, INT_TYPE_VALID))

  0032e	68 ef 00 00 00	 push	 239			; 000000efH
  00333	8b 45 fc	 mov	 eax, DWORD PTR _en$[ebp]
  00336	50		 push	 eax
  00337	e8 00 00 00 00	 call	 ?unpack_int_value@@YGHPAUENTITY@@W4INT_TYPES@@@Z ; unpack_int_value
  0033c	85 c0		 test	 eax, eax
  0033e	74 12		 je	 SHORT $LN19@unpack_loc

; 436  : 			{
; 437  : 				unpack_list_link (en, LIST_TYPE_CAMPAIGN_OBJECTIVE, &raw->campaign_objective_link);

  00340	8b 45 f0	 mov	 eax, DWORD PTR _raw$[ebp]
  00343	83 c0 38	 add	 eax, 56			; 00000038H
  00346	50		 push	 eax
  00347	6a 05		 push	 5
  00349	8b 4d fc	 mov	 ecx, DWORD PTR _en$[ebp]
  0034c	51		 push	 ecx
  0034d	e8 00 00 00 00	 call	 ?unpack_list_link@@YGXPAUENTITY@@W4LIST_TYPES@@PAULIST_LINK@@@Z ; unpack_list_link
$LN19@unpack_loc:

; 438  : 			}
; 439  : 
; 440  : 			#if DEBUG_MODULE
; 441  : 
; 442  : 			debug_log ("KS_PACK: unpacking keysite %s", raw->keysite_name);
; 443  : 
; 444  : 			#endif
; 445  : 
; 446  : 			if (mode == PACK_MODE_SERVER_SESSION)

  00352	83 7d 08 00	 cmp	 DWORD PTR _mode$[ebp], 0
  00356	0f 85 d0 01 00
	00		 jne	 $LN5@unpack_loc

; 447  : 			{
; 448  : 				raw->repair_timer = unpack_float_value (en, FLOAT_TYPE_REPAIR_TIMER);

  0035c	6a 70		 push	 112			; 00000070H
  0035e	8b 45 fc	 mov	 eax, DWORD PTR _en$[ebp]
  00361	50		 push	 eax
  00362	e8 00 00 00 00	 call	 ?unpack_float_value@@YGMPAUENTITY@@W4FLOAT_TYPES@@@Z ; unpack_float_value
  00367	8b 4d f0	 mov	 ecx, DWORD PTR _raw$[ebp]
  0036a	d9 59 7c	 fstp	 DWORD PTR [ecx+124]

; 449  : 
; 450  : 				raw->sleep = unpack_float_value (en, FLOAT_TYPE_SLEEP);

  0036d	6a 75		 push	 117			; 00000075H
  0036f	8b 45 fc	 mov	 eax, DWORD PTR _en$[ebp]
  00372	50		 push	 eax
  00373	e8 00 00 00 00	 call	 ?unpack_float_value@@YGMPAUENTITY@@W4FLOAT_TYPES@@@Z ; unpack_float_value
  00378	8b 4d f0	 mov	 ecx, DWORD PTR _raw$[ebp]
  0037b	d9 99 88 00 00
	00		 fstp	 DWORD PTR [ecx+136]

; 451  : 
; 452  : 				raw->assist_timer = unpack_float_value (en, FLOAT_TYPE_ASSIST_TIMER);

  00381	6a 0d		 push	 13			; 0000000dH
  00383	8b 45 fc	 mov	 eax, DWORD PTR _en$[ebp]
  00386	50		 push	 eax
  00387	e8 00 00 00 00	 call	 ?unpack_float_value@@YGMPAUENTITY@@W4FLOAT_TYPES@@@Z ; unpack_float_value
  0038c	8b 4d f0	 mov	 ecx, DWORD PTR _raw$[ebp]
  0038f	d9 99 80 00 00
	00		 fstp	 DWORD PTR [ecx+128]

; 453  : 
; 454  : 				raw->assign_timer = unpack_float_value (en, FLOAT_TYPE_ASSIGN_TIMER);

  00395	6a 0c		 push	 12			; 0000000cH
  00397	8b 45 fc	 mov	 eax, DWORD PTR _en$[ebp]
  0039a	50		 push	 eax
  0039b	e8 00 00 00 00	 call	 ?unpack_float_value@@YGMPAUENTITY@@W4FLOAT_TYPES@@@Z ; unpack_float_value
  003a0	8b 4d f0	 mov	 ecx, DWORD PTR _raw$[ebp]
  003a3	d9 99 84 00 00
	00		 fstp	 DWORD PTR [ecx+132]

; 455  : 
; 456  : 				//
; 457  : 				// unpack landing data
; 458  : 				//
; 459  : 
; 460  : 				landing_en = get_local_entity_first_child (en, LIST_TYPE_LANDING_SITE);

  003a9	83 7d fc 00	 cmp	 DWORD PTR _en$[ebp], 0
  003ad	74 0a		 je	 SHORT $LN24@unpack_loc
  003af	8b 45 fc	 mov	 eax, DWORD PTR _en$[ebp]
  003b2	8b 08		 mov	 ecx, DWORD PTR [eax]
  003b4	89 4d 94	 mov	 DWORD PTR tv276[ebp], ecx
  003b7	eb 24		 jmp	 SHORT $LN25@unpack_loc
$LN24@unpack_loc:
  003b9	8b 15 00 00 00
	00		 mov	 edx, DWORD PTR ?__LINE__Var@?0??unpack_local_keysite_data@@YGXW4PACK_MODES@@@Z@4JA
  003bf	81 c2 b1 00 00
	00		 add	 edx, 177		; 000000b1H
  003c5	52		 push	 edx
  003c6	68 00 00 00 00	 push	 OFFSET ??_C@_0EN@PHIBEMII@c?3?2users?2nhv90?2projects?2eech?2ap@
  003cb	a1 00 00 00 00	 mov	 eax, DWORD PTR ?null_entity_pointer_message@@3PBDB ; null_entity_pointer_message
  003d0	50		 push	 eax
  003d1	e8 00 00 00 00	 call	 ?process_assert@@YGXPBD0H@Z ; process_assert
  003d6	c7 45 94 00 00
	00 00		 mov	 DWORD PTR tv276[ebp], 0
$LN25@unpack_loc:
  003dd	b9 01 00 00 00	 mov	 ecx, 1
  003e2	85 c9		 test	 ecx, ecx
  003e4	74 09		 je	 SHORT $LN26@unpack_loc
  003e6	c7 45 90 17 00
	00 00		 mov	 DWORD PTR tv284[ebp], 23 ; 00000017H
  003ed	eb 24		 jmp	 SHORT $LN27@unpack_loc
$LN26@unpack_loc:
  003ef	8b 15 00 00 00
	00		 mov	 edx, DWORD PTR ?__LINE__Var@?0??unpack_local_keysite_data@@YGXW4PACK_MODES@@@Z@4JA
  003f5	81 c2 b1 00 00
	00		 add	 edx, 177		; 000000b1H
  003fb	52		 push	 edx
  003fc	68 00 00 00 00	 push	 OFFSET ??_C@_0EN@PHIBEMII@c?3?2users?2nhv90?2projects?2eech?2ap@
  00401	a1 00 00 00 00	 mov	 eax, DWORD PTR ?overload_invalid_list_type_message@@3PBDB ; overload_invalid_list_type_message
  00406	50		 push	 eax
  00407	e8 00 00 00 00	 call	 ?process_assert@@YGXPBD0H@Z ; process_assert
  0040c	c7 45 90 00 00
	00 00		 mov	 DWORD PTR tv284[ebp], 0
$LN27@unpack_loc:
  00413	6a 17		 push	 23			; 00000017H
  00415	8b 4d fc	 mov	 ecx, DWORD PTR _en$[ebp]
  00418	51		 push	 ecx
  00419	69 55 94 b4 00
	00 00		 imul	 edx, DWORD PTR tv276[ebp], 180
  00420	8b 45 90	 mov	 eax, DWORD PTR tv284[ebp]
  00423	8b 8c 82 00 00
	00 00		 mov	 ecx, DWORD PTR ?fn_get_local_entity_first_child@@3PAY0CN@P6GPAUENTITY@@PAU1@W4LIST_TYPES@@@ZA[edx+eax*4]
  0042a	ff d1		 call	 ecx
  0042c	89 45 f8	 mov	 DWORD PTR _landing_en$[ebp], eax
$LN4@unpack_loc:

; 461  : 	
; 462  : 				while (landing_en)

  0042f	83 7d f8 00	 cmp	 DWORD PTR _landing_en$[ebp], 0
  00433	0f 84 f3 00 00
	00		 je	 $LN5@unpack_loc

; 463  : 				{
; 464  : 	
; 465  : 					landing_raw = (landing *) get_local_entity_data (landing_en);

  00439	8b 45 f8	 mov	 eax, DWORD PTR _landing_en$[ebp]
  0043c	8b 48 04	 mov	 ecx, DWORD PTR [eax+4]
  0043f	89 4d f4	 mov	 DWORD PTR _landing_raw$[ebp], ecx

; 466  : 	
; 467  : 					landing_raw->reserved_landing_sites = unpack_int_value (landing_en, INT_TYPE_RESERVED_LANDING_SITES);

  00442	68 af 00 00 00	 push	 175			; 000000afH
  00447	8b 45 f8	 mov	 eax, DWORD PTR _landing_en$[ebp]
  0044a	50		 push	 eax
  0044b	e8 00 00 00 00	 call	 ?unpack_int_value@@YGHPAUENTITY@@W4INT_TYPES@@@Z ; unpack_int_value
  00450	8b 4d f4	 mov	 ecx, DWORD PTR _landing_raw$[ebp]
  00453	89 41 38	 mov	 DWORD PTR [ecx+56], eax

; 468  : 	
; 469  : 					//landing_raw->free_landing_sites = unpack_int_value (en, INT_TYPE_FREE_LANDING_SITES);
; 470  : 					landing_raw->free_landing_sites = landing_raw->total_landing_sites;

  00456	8b 45 f4	 mov	 eax, DWORD PTR _landing_raw$[ebp]
  00459	8b 4d f4	 mov	 ecx, DWORD PTR _landing_raw$[ebp]
  0045c	8b 51 40	 mov	 edx, DWORD PTR [ecx+64]
  0045f	89 50 3c	 mov	 DWORD PTR [eax+60], edx

; 471  : 	
; 472  : 					landing_lock = unpack_int_value (landing_en, INT_TYPE_LANDING_LOCK);

  00462	6a 76		 push	 118			; 00000076H
  00464	8b 45 f8	 mov	 eax, DWORD PTR _landing_en$[ebp]
  00467	50		 push	 eax
  00468	e8 00 00 00 00	 call	 ?unpack_int_value@@YGHPAUENTITY@@W4INT_TYPES@@@Z ; unpack_int_value
  0046d	89 45 e8	 mov	 DWORD PTR _landing_lock$[ebp], eax

; 473  : 	
; 474  : 					landed_lock = unpack_int_value (landing_en, INT_TYPE_LANDED_LOCK);

  00470	6a 74		 push	 116			; 00000074H
  00472	8b 45 f8	 mov	 eax, DWORD PTR _landing_en$[ebp]
  00475	50		 push	 eax
  00476	e8 00 00 00 00	 call	 ?unpack_int_value@@YGHPAUENTITY@@W4INT_TYPES@@@Z ; unpack_int_value
  0047b	89 45 e4	 mov	 DWORD PTR _landed_lock$[ebp], eax

; 475  : 	
; 476  : 					takeoff_lock = unpack_int_value (landing_en, INT_TYPE_TAKEOFF_LOCK);

  0047e	68 d3 00 00 00	 push	 211			; 000000d3H
  00483	8b 45 f8	 mov	 eax, DWORD PTR _landing_en$[ebp]
  00486	50		 push	 eax
  00487	e8 00 00 00 00	 call	 ?unpack_int_value@@YGHPAUENTITY@@W4INT_TYPES@@@Z ; unpack_int_value
  0048c	89 45 e0	 mov	 DWORD PTR _takeoff_lock$[ebp], eax

; 477  : 	
; 478  : 					#if DEBUG_MODULE
; 479  : 
; 480  : 					debug_log ("KS_PACK: %s (%d) unpacking %s landing entity, reserved %d, free %d, locks (saved :landing %d, landed %d, takeoff %d, calc landing %d, landed %d, takeoff %d)",
; 481  : 									raw->keysite_name,
; 482  : 									get_local_entity_index (en),
; 483  : 									entity_sub_type_landing_names [landing_raw->sub_type],
; 484  : 									landing_raw->reserved_landing_sites, landing_raw->free_landing_sites,
; 485  : 									landing_lock, landed_lock, takeoff_lock,
; 486  : 									landing_raw->landing_lock, landing_raw->landed_lock, landing_raw->takeoff_lock);
; 487  : 
; 488  : 					if (landing_raw->landing_lock != landing_lock)
; 489  : 					{
; 490  : 
; 491  : 						debug_log ("KS_PACK: %s %s landing entity needs landing_lock repairing", raw->keysite_name, entity_sub_type_landing_names [landing_raw->sub_type]);
; 492  : 					}
; 493  : 					if (landing_raw->landed_lock != landed_lock)
; 494  : 					{
; 495  : 
; 496  : 						debug_log ("KS_PACK: %s %s landing entity needs landed_lock repairing", raw->keysite_name, entity_sub_type_landing_names [landing_raw->sub_type]);
; 497  : 					}
; 498  : 					if (landing_raw->takeoff_lock != takeoff_lock)
; 499  : 					{
; 500  : 
; 501  : 						debug_log ("KS_PACK: %s %s landing entity needs takeoff_lock repairing", raw->keysite_name, entity_sub_type_landing_names [landing_raw->sub_type]);
; 502  : 					}
; 503  : 
; 504  : 					#endif
; 505  : 	
; 506  : 					unpack_list_root (landing_en, LIST_TYPE_TAKEOFF_QUEUE, &landing_raw->takeoff_queue_root);

  0048f	8b 45 f4	 mov	 eax, DWORD PTR _landing_raw$[ebp]
  00492	83 c0 18	 add	 eax, 24			; 00000018H
  00495	50		 push	 eax
  00496	6a 25		 push	 37			; 00000025H
  00498	8b 4d f8	 mov	 ecx, DWORD PTR _landing_en$[ebp]
  0049b	51		 push	 ecx
  0049c	e8 00 00 00 00	 call	 ?unpack_list_root@@YGXPAUENTITY@@W4LIST_TYPES@@PAULIST_ROOT@@@Z ; unpack_list_root

; 507  : 
; 508  : 					landing_en = get_local_entity_child_succ (landing_en, LIST_TYPE_LANDING_SITE);

  004a1	83 7d f8 00	 cmp	 DWORD PTR _landing_en$[ebp], 0
  004a5	74 0a		 je	 SHORT $LN28@unpack_loc
  004a7	8b 45 f8	 mov	 eax, DWORD PTR _landing_en$[ebp]
  004aa	8b 08		 mov	 ecx, DWORD PTR [eax]
  004ac	89 4d 94	 mov	 DWORD PTR tv317[ebp], ecx
  004af	eb 24		 jmp	 SHORT $LN29@unpack_loc
$LN28@unpack_loc:
  004b1	8b 15 00 00 00
	00		 mov	 edx, DWORD PTR ?__LINE__Var@?0??unpack_local_keysite_data@@YGXW4PACK_MODES@@@Z@4JA
  004b7	81 c2 e1 00 00
	00		 add	 edx, 225		; 000000e1H
  004bd	52		 push	 edx
  004be	68 00 00 00 00	 push	 OFFSET ??_C@_0EN@PHIBEMII@c?3?2users?2nhv90?2projects?2eech?2ap@
  004c3	a1 00 00 00 00	 mov	 eax, DWORD PTR ?null_entity_pointer_message@@3PBDB ; null_entity_pointer_message
  004c8	50		 push	 eax
  004c9	e8 00 00 00 00	 call	 ?process_assert@@YGXPBD0H@Z ; process_assert
  004ce	c7 45 94 00 00
	00 00		 mov	 DWORD PTR tv317[ebp], 0
$LN29@unpack_loc:
  004d5	b9 01 00 00 00	 mov	 ecx, 1
  004da	85 c9		 test	 ecx, ecx
  004dc	74 09		 je	 SHORT $LN30@unpack_loc
  004de	c7 45 90 17 00
	00 00		 mov	 DWORD PTR tv325[ebp], 23 ; 00000017H
  004e5	eb 24		 jmp	 SHORT $LN31@unpack_loc
$LN30@unpack_loc:
  004e7	8b 15 00 00 00
	00		 mov	 edx, DWORD PTR ?__LINE__Var@?0??unpack_local_keysite_data@@YGXW4PACK_MODES@@@Z@4JA
  004ed	81 c2 e1 00 00
	00		 add	 edx, 225		; 000000e1H
  004f3	52		 push	 edx
  004f4	68 00 00 00 00	 push	 OFFSET ??_C@_0EN@PHIBEMII@c?3?2users?2nhv90?2projects?2eech?2ap@
  004f9	a1 00 00 00 00	 mov	 eax, DWORD PTR ?overload_invalid_list_type_message@@3PBDB ; overload_invalid_list_type_message
  004fe	50		 push	 eax
  004ff	e8 00 00 00 00	 call	 ?process_assert@@YGXPBD0H@Z ; process_assert
  00504	c7 45 90 00 00
	00 00		 mov	 DWORD PTR tv325[ebp], 0
$LN31@unpack_loc:
  0050b	6a 17		 push	 23			; 00000017H
  0050d	8b 4d f8	 mov	 ecx, DWORD PTR _landing_en$[ebp]
  00510	51		 push	 ecx
  00511	69 55 94 b4 00
	00 00		 imul	 edx, DWORD PTR tv317[ebp], 180
  00518	8b 45 90	 mov	 eax, DWORD PTR tv325[ebp]
  0051b	8b 8c 82 00 00
	00 00		 mov	 ecx, DWORD PTR ?fn_get_local_entity_child_succ@@3PAY0CN@P6GPAUENTITY@@PAU1@W4LIST_TYPES@@@ZA[edx+eax*4]
  00522	ff d1		 call	 ecx
  00524	89 45 f8	 mov	 DWORD PTR _landing_en$[ebp], eax

; 509  : 				}

  00527	e9 03 ff ff ff	 jmp	 $LN4@unpack_loc
$LN5@unpack_loc:

; 510  : 			}
; 511  : 		}
; 512  : 
; 513  : 		en = get_local_entity_succ (en);

  0052c	8b 45 fc	 mov	 eax, DWORD PTR _en$[ebp]
  0052f	8b 48 08	 mov	 ecx, DWORD PTR [eax+8]
  00532	89 4d fc	 mov	 DWORD PTR _en$[ebp], ecx

; 514  : 	}

  00535	e9 00 fb ff ff	 jmp	 $LN2@unpack_loc
$LN3@unpack_loc:
$LN1@unpack_loc:

; 515  : }

  0053a	5f		 pop	 edi
  0053b	5e		 pop	 esi
  0053c	5b		 pop	 ebx
  0053d	8b e5		 mov	 esp, ebp
  0053f	5d		 pop	 ebp
  00540	c2 04 00	 ret	 4
?unpack_local_keysite_data@@YGXW4PACK_MODES@@@Z ENDP	; unpack_local_keysite_data
_TEXT	ENDS
; Function compile flags: /Odtp /ZI
; File c:\users\nhv90\projects\eech\aphavoc\source\entity\special\keysite\ks_pack.c
;	COMDAT ?pack_local_keysite_data@@YGXW4PACK_MODES@@@Z
_TEXT	SEGMENT
tv264 = -88						; size = 4
tv219 = -88						; size = 4
tv256 = -84						; size = 4
tv211 = -84						; size = 4
tv76 = -84						; size = 4
_raw$ = -16						; size = 4
_landing_raw$ = -12					; size = 4
_landing_en$ = -8					; size = 4
_en$ = -4						; size = 4
_mode$ = 8						; size = 4
?pack_local_keysite_data@@YGXW4PACK_MODES@@@Z PROC	; pack_local_keysite_data, COMDAT

; 151  : {

  00000	55		 push	 ebp
  00001	8b ec		 mov	 ebp, esp
  00003	83 ec 58	 sub	 esp, 88			; 00000058H
  00006	53		 push	 ebx
  00007	56		 push	 esi
  00008	57		 push	 edi

; 152  :    entity
; 153  :       *en,
; 154  : 		*landing_en;
; 155  : 
; 156  : 	landing
; 157  : 		*landing_raw;
; 158  : 
; 159  :    keysite
; 160  :       *raw;
; 161  : 
; 162  :    ASSERT (mode != PACK_MODE_UPDATE_ENTITY);

  00009	83 7d 08 03	 cmp	 DWORD PTR _mode$[ebp], 3
  0000d	75 18		 jne	 SHORT $LN6@pack_local
  0000f	a1 00 00 00 00	 mov	 eax, DWORD PTR ?__LINE__Var@?0??pack_local_keysite_data@@YGXW4PACK_MODES@@@Z@4JA
  00014	83 c0 0b	 add	 eax, 11			; 0000000bH
  00017	50		 push	 eax
  00018	68 00 00 00 00	 push	 OFFSET ??_C@_0EN@PHIBEMII@c?3?2users?2nhv90?2projects?2eech?2ap@
  0001d	68 00 00 00 00	 push	 OFFSET ??_C@_0CA@GHGJAHIH@mode?5?$CB?$DN?5PACK_MODE_UPDATE_ENTITY@
  00022	e8 00 00 00 00	 call	 ?process_assert@@YGXPBD0H@Z ; process_assert
$LN6@pack_local:

; 163  : 
; 164  :    if (mode == PACK_MODE_BROWSE_SESSION)

  00027	83 7d 08 02	 cmp	 DWORD PTR _mode$[ebp], 2
  0002b	75 05		 jne	 SHORT $LN7@pack_local

; 165  :    {
; 166  :       return;

  0002d	e9 d1 03 00 00	 jmp	 $LN1@pack_local
$LN7@pack_local:

; 167  :    }
; 168  : 
; 169  : 	en = get_local_entity_list ();

  00032	a1 00 00 00 00	 mov	 eax, DWORD PTR ?first_used_entity@@3PAUENTITY@@A ; first_used_entity
  00037	89 45 fc	 mov	 DWORD PTR _en$[ebp], eax
$LN2@pack_local:

; 170  : 
; 171  : 	while (en)

  0003a	83 7d fc 00	 cmp	 DWORD PTR _en$[ebp], 0
  0003e	0f 84 bf 03 00
	00		 je	 $LN3@pack_local

; 172  : 	{
; 173  : 
; 174  : 		if (get_local_entity_type (en) == ENTITY_TYPE_KEYSITE)

  00044	83 7d fc 00	 cmp	 DWORD PTR _en$[ebp], 0
  00048	74 0a		 je	 SHORT $LN13@pack_local
  0004a	8b 45 fc	 mov	 eax, DWORD PTR _en$[ebp]
  0004d	8b 08		 mov	 ecx, DWORD PTR [eax]
  0004f	89 4d ac	 mov	 DWORD PTR tv76[ebp], ecx
  00052	eb 1d		 jmp	 SHORT $LN14@pack_local
$LN13@pack_local:
  00054	68 ae 00 00 00	 push	 174			; 000000aeH
  00059	68 00 00 00 00	 push	 OFFSET ??_C@_0EN@PHIBEMII@c?3?2users?2nhv90?2projects?2eech?2ap@
  0005e	8b 15 00 00 00
	00		 mov	 edx, DWORD PTR ?null_entity_pointer_message@@3PBDB ; null_entity_pointer_message
  00064	52		 push	 edx
  00065	e8 00 00 00 00	 call	 ?process_assert@@YGXPBD0H@Z ; process_assert
  0006a	c7 45 ac 00 00
	00 00		 mov	 DWORD PTR tv76[ebp], 0
$LN14@pack_local:
  00071	83 7d ac 0f	 cmp	 DWORD PTR tv76[ebp], 15	; 0000000fH
  00075	0f 85 7a 03 00
	00		 jne	 $LN5@pack_local

; 175  : 		{
; 176  : 
; 177  : 			//
; 178  : 			// pack keysite data
; 179  : 			//
; 180  : 
; 181  : 			pack_entity_safe_ptr (en);

  0007b	8b 45 fc	 mov	 eax, DWORD PTR _en$[ebp]
  0007e	50		 push	 eax
  0007f	e8 00 00 00 00	 call	 ?pack_entity_safe_ptr@@YGXPAUENTITY@@@Z ; pack_entity_safe_ptr

; 182  : 
; 183  : 			raw = (keysite *) get_local_entity_data (en);

  00084	8b 45 fc	 mov	 eax, DWORD PTR _en$[ebp]
  00087	8b 48 04	 mov	 ecx, DWORD PTR [eax+4]
  0008a	89 4d f0	 mov	 DWORD PTR _raw$[ebp], ecx

; 184  : 
; 185  : 			pack_float_value (en, FLOAT_TYPE_AMMO_SUPPLY_LEVEL, raw->supplies.ammo_supply_level);

  0008d	8b 45 f0	 mov	 eax, DWORD PTR _raw$[ebp]
  00090	51		 push	 ecx
  00091	f3 0f 10 80 94
	00 00 00	 movss	 xmm0, DWORD PTR [eax+148]
  00099	f3 0f 11 04 24	 movss	 DWORD PTR [esp], xmm0
  0009e	6a 08		 push	 8
  000a0	8b 4d fc	 mov	 ecx, DWORD PTR _en$[ebp]
  000a3	51		 push	 ecx
  000a4	e8 00 00 00 00	 call	 ?pack_float_value@@YGXPAUENTITY@@W4FLOAT_TYPES@@M@Z ; pack_float_value

; 186  : 
; 187  : 			pack_float_value (en, FLOAT_TYPE_FUEL_SUPPLY_LEVEL, raw->supplies.fuel_supply_level);

  000a9	8b 45 f0	 mov	 eax, DWORD PTR _raw$[ebp]
  000ac	51		 push	 ecx
  000ad	f3 0f 10 80 98
	00 00 00	 movss	 xmm0, DWORD PTR [eax+152]
  000b5	f3 0f 11 04 24	 movss	 DWORD PTR [esp], xmm0
  000ba	6a 30		 push	 48			; 00000030H
  000bc	8b 4d fc	 mov	 ecx, DWORD PTR _en$[ebp]
  000bf	51		 push	 ecx
  000c0	e8 00 00 00 00	 call	 ?pack_float_value@@YGXPAUENTITY@@W4FLOAT_TYPES@@M@Z ; pack_float_value

; 188  : 
; 189  : 			pack_float_value (en, FLOAT_TYPE_KEYSITE_STRENGTH, raw->keysite_strength);

  000c5	8b 45 f0	 mov	 eax, DWORD PTR _raw$[ebp]
  000c8	51		 push	 ecx
  000c9	f3 0f 10 40 74	 movss	 xmm0, DWORD PTR [eax+116]
  000ce	f3 0f 11 04 24	 movss	 DWORD PTR [esp], xmm0
  000d3	6a 3a		 push	 58			; 0000003aH
  000d5	8b 4d fc	 mov	 ecx, DWORD PTR _en$[ebp]
  000d8	51		 push	 ecx
  000d9	e8 00 00 00 00	 call	 ?pack_float_value@@YGXPAUENTITY@@W4FLOAT_TYPES@@M@Z ; pack_float_value

; 190  : 
; 191  : 			pack_float_value (en, FLOAT_TYPE_KEYSITE_MAXIMUM_STRENGTH, raw->keysite_maximum_strength);

  000de	8b 45 f0	 mov	 eax, DWORD PTR _raw$[ebp]
  000e1	51		 push	 ecx
  000e2	f3 0f 10 40 78	 movss	 xmm0, DWORD PTR [eax+120]
  000e7	f3 0f 11 04 24	 movss	 DWORD PTR [esp], xmm0
  000ec	6a 39		 push	 57			; 00000039H
  000ee	8b 4d fc	 mov	 ecx, DWORD PTR _en$[ebp]
  000f1	51		 push	 ecx
  000f2	e8 00 00 00 00	 call	 ?pack_float_value@@YGXPAUENTITY@@W4FLOAT_TYPES@@M@Z ; pack_float_value

; 192  : 
; 193  : 			pack_int_value (en, INT_TYPE_ALIVE, raw->alive);

  000f7	8b 45 f0	 mov	 eax, DWORD PTR _raw$[ebp]
  000fa	8b 88 a0 01 00
	00		 mov	 ecx, DWORD PTR [eax+416]
  00100	c1 e9 18	 shr	 ecx, 24			; 00000018H
  00103	83 e1 01	 and	 ecx, 1
  00106	51		 push	 ecx
  00107	6a 07		 push	 7
  00109	8b 55 fc	 mov	 edx, DWORD PTR _en$[ebp]
  0010c	52		 push	 edx
  0010d	e8 00 00 00 00	 call	 ?pack_int_value@@YGXPAUENTITY@@W4INT_TYPES@@H@Z ; pack_int_value

; 194  : 
; 195  : 			pack_int_value (en, INT_TYPE_SIDE, raw->side);

  00112	8b 45 f0	 mov	 eax, DWORD PTR _raw$[ebp]
  00115	8b 88 a0 01 00
	00		 mov	 ecx, DWORD PTR [eax+416]
  0011b	c1 e9 1d	 shr	 ecx, 29			; 0000001dH
  0011e	83 e1 03	 and	 ecx, 3
  00121	51		 push	 ecx
  00122	68 bb 00 00 00	 push	 187			; 000000bbH
  00127	8b 55 fc	 mov	 edx, DWORD PTR _en$[ebp]
  0012a	52		 push	 edx
  0012b	e8 00 00 00 00	 call	 ?pack_int_value@@YGXPAUENTITY@@W4INT_TYPES@@H@Z ; pack_int_value

; 196  : 
; 197  : 			pack_int_value (en, INT_TYPE_IN_USE, raw->in_use);

  00130	8b 45 f0	 mov	 eax, DWORD PTR _raw$[ebp]
  00133	8b 88 a0 01 00
	00		 mov	 ecx, DWORD PTR [eax+416]
  00139	c1 e9 19	 shr	 ecx, 25			; 00000019H
  0013c	83 e1 01	 and	 ecx, 1
  0013f	51		 push	 ecx
  00140	6a 6d		 push	 109			; 0000006dH
  00142	8b 55 fc	 mov	 edx, DWORD PTR _en$[ebp]
  00145	52		 push	 edx
  00146	e8 00 00 00 00	 call	 ?pack_int_value@@YGXPAUENTITY@@W4INT_TYPES@@H@Z ; pack_int_value

; 198  : 
; 199  : 			pack_int_value (en, INT_TYPE_KEYSITE_ID, raw->keysite_id);

  0014b	8b 45 f0	 mov	 eax, DWORD PTR _raw$[ebp]
  0014e	8b 88 a0 01 00
	00		 mov	 ecx, DWORD PTR [eax+416]
  00154	81 e1 ff 00 00
	00		 and	 ecx, 255		; 000000ffH
  0015a	51		 push	 ecx
  0015b	6a 6f		 push	 111			; 0000006fH
  0015d	8b 55 fc	 mov	 edx, DWORD PTR _en$[ebp]
  00160	52		 push	 edx
  00161	e8 00 00 00 00	 call	 ?pack_int_value@@YGXPAUENTITY@@W4INT_TYPES@@H@Z ; pack_int_value

; 200  : 
; 201  : 			pack_int_value (en, INT_TYPE_KEYSITE_USABLE_STATE, raw->keysite_usable_state);

  00166	8b 45 f0	 mov	 eax, DWORD PTR _raw$[ebp]
  00169	8b 88 a0 01 00
	00		 mov	 ecx, DWORD PTR [eax+416]
  0016f	c1 e9 1a	 shr	 ecx, 26			; 0000001aH
  00172	83 e1 07	 and	 ecx, 7
  00175	51		 push	 ecx
  00176	6a 70		 push	 112			; 00000070H
  00178	8b 55 fc	 mov	 edx, DWORD PTR _en$[ebp]
  0017b	52		 push	 edx
  0017c	e8 00 00 00 00	 call	 ?pack_int_value@@YGXPAUENTITY@@W4INT_TYPES@@H@Z ; pack_int_value

; 202  : 
; 203  : 			pack_list_root (en, LIST_TYPE_UNASSIGNED_TASK, &raw->unassigned_task_root);

  00181	8b 45 f0	 mov	 eax, DWORD PTR _raw$[ebp]
  00184	83 c0 10	 add	 eax, 16			; 00000010H
  00187	50		 push	 eax
  00188	6a 28		 push	 40			; 00000028H
  0018a	8b 4d fc	 mov	 ecx, DWORD PTR _en$[ebp]
  0018d	51		 push	 ecx
  0018e	e8 00 00 00 00	 call	 ?pack_list_root@@YGXPAUENTITY@@W4LIST_TYPES@@PAULIST_ROOT@@@Z ; pack_list_root

; 204  : 			pack_list_root (en, LIST_TYPE_ASSIGNED_TASK, &raw->assigned_task_root);

  00193	8b 45 f0	 mov	 eax, DWORD PTR _raw$[ebp]
  00196	83 c0 14	 add	 eax, 20			; 00000014H
  00199	50		 push	 eax
  0019a	6a 03		 push	 3
  0019c	8b 4d fc	 mov	 ecx, DWORD PTR _en$[ebp]
  0019f	51		 push	 ecx
  001a0	e8 00 00 00 00	 call	 ?pack_list_root@@YGXPAUENTITY@@W4LIST_TYPES@@PAULIST_ROOT@@@Z ; pack_list_root

; 205  : 			pack_list_root (en, LIST_TYPE_COMPLETED_TASK, &raw->completed_task_root);

  001a5	8b 45 f0	 mov	 eax, DWORD PTR _raw$[ebp]
  001a8	83 c0 18	 add	 eax, 24			; 00000018H
  001ab	50		 push	 eax
  001ac	6a 08		 push	 8
  001ae	8b 4d fc	 mov	 ecx, DWORD PTR _en$[ebp]
  001b1	51		 push	 ecx
  001b2	e8 00 00 00 00	 call	 ?pack_list_root@@YGXPAUENTITY@@W4LIST_TYPES@@PAULIST_ROOT@@@Z ; pack_list_root

; 206  : 
; 207  : //			pack_list_root (en, LIST_TYPE_KEYSITE_GROUP, &raw->keysite_group_root);
; 208  : 
; 209  : 			pack_list_root (en, LIST_TYPE_DIVISION_HEADQUARTERS, &raw->division_headquarters_root);

  001b7	8b 45 f0	 mov	 eax, DWORD PTR _raw$[ebp]
  001ba	83 c0 24	 add	 eax, 36			; 00000024H
  001bd	50		 push	 eax
  001be	6a 0c		 push	 12			; 0000000cH
  001c0	8b 4d fc	 mov	 ecx, DWORD PTR _en$[ebp]
  001c3	51		 push	 ecx
  001c4	e8 00 00 00 00	 call	 ?pack_list_root@@YGXPAUENTITY@@W4LIST_TYPES@@PAULIST_ROOT@@@Z ; pack_list_root

; 210  : 
; 211  : 			if (raw->campaign_objective_link.parent)

  001c9	8b 45 f0	 mov	 eax, DWORD PTR _raw$[ebp]
  001cc	83 78 38 00	 cmp	 DWORD PTR [eax+56], 0
  001d0	74 24		 je	 SHORT $LN9@pack_local

; 212  : 			{
; 213  : 				pack_int_value (en, INT_TYPE_VALID, TRUE);

  001d2	6a 01		 push	 1
  001d4	68 ef 00 00 00	 push	 239			; 000000efH
  001d9	8b 45 fc	 mov	 eax, DWORD PTR _en$[ebp]
  001dc	50		 push	 eax
  001dd	e8 00 00 00 00	 call	 ?pack_int_value@@YGXPAUENTITY@@W4INT_TYPES@@H@Z ; pack_int_value

; 214  : 
; 215  : 				pack_list_link (en, LIST_TYPE_CAMPAIGN_OBJECTIVE, &raw->campaign_objective_link);

  001e2	8b 45 f0	 mov	 eax, DWORD PTR _raw$[ebp]
  001e5	83 c0 38	 add	 eax, 56			; 00000038H
  001e8	50		 push	 eax
  001e9	6a 05		 push	 5
  001eb	8b 4d fc	 mov	 ecx, DWORD PTR _en$[ebp]
  001ee	51		 push	 ecx
  001ef	e8 00 00 00 00	 call	 ?pack_list_link@@YGXPAUENTITY@@W4LIST_TYPES@@PAULIST_LINK@@@Z ; pack_list_link

; 216  : 			}
; 217  : 			else

  001f4	eb 10		 jmp	 SHORT $LN10@pack_local
$LN9@pack_local:

; 218  : 			{
; 219  : 				pack_int_value (en, INT_TYPE_VALID, FALSE);

  001f6	6a 00		 push	 0
  001f8	68 ef 00 00 00	 push	 239			; 000000efH
  001fd	8b 45 fc	 mov	 eax, DWORD PTR _en$[ebp]
  00200	50		 push	 eax
  00201	e8 00 00 00 00	 call	 ?pack_int_value@@YGXPAUENTITY@@W4INT_TYPES@@H@Z ; pack_int_value
$LN10@pack_local:

; 220  : 			}
; 221  : 
; 222  : 			#if DEBUG_MODULE
; 223  : 
; 224  : 			debug_log ("KS_PACK: packing up keysite %s", raw->keysite_name);
; 225  : 
; 226  : 			#endif
; 227  : 
; 228  : 			if (mode == PACK_MODE_SERVER_SESSION)

  00206	83 7d 08 00	 cmp	 DWORD PTR _mode$[ebp], 0
  0020a	0f 85 e5 01 00
	00		 jne	 $LN5@pack_local

; 229  : 			{
; 230  : 	
; 231  : 				pack_float_value (en, FLOAT_TYPE_REPAIR_TIMER, raw->repair_timer);

  00210	8b 45 f0	 mov	 eax, DWORD PTR _raw$[ebp]
  00213	51		 push	 ecx
  00214	f3 0f 10 40 7c	 movss	 xmm0, DWORD PTR [eax+124]
  00219	f3 0f 11 04 24	 movss	 DWORD PTR [esp], xmm0
  0021e	6a 70		 push	 112			; 00000070H
  00220	8b 4d fc	 mov	 ecx, DWORD PTR _en$[ebp]
  00223	51		 push	 ecx
  00224	e8 00 00 00 00	 call	 ?pack_float_value@@YGXPAUENTITY@@W4FLOAT_TYPES@@M@Z ; pack_float_value

; 232  : 
; 233  : 				pack_float_value (en, FLOAT_TYPE_SLEEP, raw->sleep);

  00229	8b 45 f0	 mov	 eax, DWORD PTR _raw$[ebp]
  0022c	51		 push	 ecx
  0022d	f3 0f 10 80 88
	00 00 00	 movss	 xmm0, DWORD PTR [eax+136]
  00235	f3 0f 11 04 24	 movss	 DWORD PTR [esp], xmm0
  0023a	6a 75		 push	 117			; 00000075H
  0023c	8b 4d fc	 mov	 ecx, DWORD PTR _en$[ebp]
  0023f	51		 push	 ecx
  00240	e8 00 00 00 00	 call	 ?pack_float_value@@YGXPAUENTITY@@W4FLOAT_TYPES@@M@Z ; pack_float_value

; 234  : 
; 235  : 				pack_float_value (en, FLOAT_TYPE_ASSIST_TIMER, raw->assist_timer);

  00245	8b 45 f0	 mov	 eax, DWORD PTR _raw$[ebp]
  00248	51		 push	 ecx
  00249	f3 0f 10 80 80
	00 00 00	 movss	 xmm0, DWORD PTR [eax+128]
  00251	f3 0f 11 04 24	 movss	 DWORD PTR [esp], xmm0
  00256	6a 0d		 push	 13			; 0000000dH
  00258	8b 4d fc	 mov	 ecx, DWORD PTR _en$[ebp]
  0025b	51		 push	 ecx
  0025c	e8 00 00 00 00	 call	 ?pack_float_value@@YGXPAUENTITY@@W4FLOAT_TYPES@@M@Z ; pack_float_value

; 236  : 
; 237  : 				pack_float_value (en, FLOAT_TYPE_ASSIGN_TIMER, raw->assign_timer);

  00261	8b 45 f0	 mov	 eax, DWORD PTR _raw$[ebp]
  00264	51		 push	 ecx
  00265	f3 0f 10 80 84
	00 00 00	 movss	 xmm0, DWORD PTR [eax+132]
  0026d	f3 0f 11 04 24	 movss	 DWORD PTR [esp], xmm0
  00272	6a 0c		 push	 12			; 0000000cH
  00274	8b 4d fc	 mov	 ecx, DWORD PTR _en$[ebp]
  00277	51		 push	 ecx
  00278	e8 00 00 00 00	 call	 ?pack_float_value@@YGXPAUENTITY@@W4FLOAT_TYPES@@M@Z ; pack_float_value

; 238  : 
; 239  : 				//
; 240  : 				// pack landing data
; 241  : 				//
; 242  : 	
; 243  : 				landing_en = get_local_entity_first_child (en, LIST_TYPE_LANDING_SITE);

  0027d	83 7d fc 00	 cmp	 DWORD PTR _en$[ebp], 0
  00281	74 0a		 je	 SHORT $LN15@pack_local
  00283	8b 45 fc	 mov	 eax, DWORD PTR _en$[ebp]
  00286	8b 08		 mov	 ecx, DWORD PTR [eax]
  00288	89 4d ac	 mov	 DWORD PTR tv211[ebp], ecx
  0028b	eb 21		 jmp	 SHORT $LN16@pack_local
$LN15@pack_local:
  0028d	8b 15 00 00 00
	00		 mov	 edx, DWORD PTR ?__LINE__Var@?0??pack_local_keysite_data@@YGXW4PACK_MODES@@@Z@4JA
  00293	83 c2 5c	 add	 edx, 92			; 0000005cH
  00296	52		 push	 edx
  00297	68 00 00 00 00	 push	 OFFSET ??_C@_0EN@PHIBEMII@c?3?2users?2nhv90?2projects?2eech?2ap@
  0029c	a1 00 00 00 00	 mov	 eax, DWORD PTR ?null_entity_pointer_message@@3PBDB ; null_entity_pointer_message
  002a1	50		 push	 eax
  002a2	e8 00 00 00 00	 call	 ?process_assert@@YGXPBD0H@Z ; process_assert
  002a7	c7 45 ac 00 00
	00 00		 mov	 DWORD PTR tv211[ebp], 0
$LN16@pack_local:
  002ae	b9 01 00 00 00	 mov	 ecx, 1
  002b3	85 c9		 test	 ecx, ecx
  002b5	74 09		 je	 SHORT $LN17@pack_local
  002b7	c7 45 a8 17 00
	00 00		 mov	 DWORD PTR tv219[ebp], 23 ; 00000017H
  002be	eb 21		 jmp	 SHORT $LN18@pack_local
$LN17@pack_local:
  002c0	8b 15 00 00 00
	00		 mov	 edx, DWORD PTR ?__LINE__Var@?0??pack_local_keysite_data@@YGXW4PACK_MODES@@@Z@4JA
  002c6	83 c2 5c	 add	 edx, 92			; 0000005cH
  002c9	52		 push	 edx
  002ca	68 00 00 00 00	 push	 OFFSET ??_C@_0EN@PHIBEMII@c?3?2users?2nhv90?2projects?2eech?2ap@
  002cf	a1 00 00 00 00	 mov	 eax, DWORD PTR ?overload_invalid_list_type_message@@3PBDB ; overload_invalid_list_type_message
  002d4	50		 push	 eax
  002d5	e8 00 00 00 00	 call	 ?process_assert@@YGXPBD0H@Z ; process_assert
  002da	c7 45 a8 00 00
	00 00		 mov	 DWORD PTR tv219[ebp], 0
$LN18@pack_local:
  002e1	6a 17		 push	 23			; 00000017H
  002e3	8b 4d fc	 mov	 ecx, DWORD PTR _en$[ebp]
  002e6	51		 push	 ecx
  002e7	69 55 ac b4 00
	00 00		 imul	 edx, DWORD PTR tv211[ebp], 180
  002ee	8b 45 a8	 mov	 eax, DWORD PTR tv219[ebp]
  002f1	8b 8c 82 00 00
	00 00		 mov	 ecx, DWORD PTR ?fn_get_local_entity_first_child@@3PAY0CN@P6GPAUENTITY@@PAU1@W4LIST_TYPES@@@ZA[edx+eax*4]
  002f8	ff d1		 call	 ecx
  002fa	89 45 f8	 mov	 DWORD PTR _landing_en$[ebp], eax
$LN4@pack_local:

; 244  : 	
; 245  : 				while (landing_en)

  002fd	83 7d f8 00	 cmp	 DWORD PTR _landing_en$[ebp], 0
  00301	0f 84 ee 00 00
	00		 je	 $LN5@pack_local

; 246  : 				{
; 247  : 	
; 248  : 					landing_raw = (landing *) get_local_entity_data (landing_en);

  00307	8b 45 f8	 mov	 eax, DWORD PTR _landing_en$[ebp]
  0030a	8b 48 04	 mov	 ecx, DWORD PTR [eax+4]
  0030d	89 4d f4	 mov	 DWORD PTR _landing_raw$[ebp], ecx

; 249  : 	
; 250  : 					pack_int_value (landing_en, INT_TYPE_RESERVED_LANDING_SITES, landing_raw->reserved_landing_sites);

  00310	8b 45 f4	 mov	 eax, DWORD PTR _landing_raw$[ebp]
  00313	8b 48 38	 mov	 ecx, DWORD PTR [eax+56]
  00316	51		 push	 ecx
  00317	68 af 00 00 00	 push	 175			; 000000afH
  0031c	8b 55 f8	 mov	 edx, DWORD PTR _landing_en$[ebp]
  0031f	52		 push	 edx
  00320	e8 00 00 00 00	 call	 ?pack_int_value@@YGXPAUENTITY@@W4INT_TYPES@@H@Z ; pack_int_value

; 251  : 	
; 252  : 					//pack_int_value (en, INT_TYPE_FREE_LANDING_SITES, landing_raw->free_landing_sites);
; 253  : 	
; 254  : 					pack_int_value (landing_en, INT_TYPE_LANDING_LOCK, landing_raw->landing_lock);

  00325	8b 45 f4	 mov	 eax, DWORD PTR _landing_raw$[ebp]
  00328	8b 48 48	 mov	 ecx, DWORD PTR [eax+72]
  0032b	51		 push	 ecx
  0032c	6a 76		 push	 118			; 00000076H
  0032e	8b 55 f8	 mov	 edx, DWORD PTR _landing_en$[ebp]
  00331	52		 push	 edx
  00332	e8 00 00 00 00	 call	 ?pack_int_value@@YGXPAUENTITY@@W4INT_TYPES@@H@Z ; pack_int_value

; 255  : 	
; 256  : 					pack_int_value (landing_en, INT_TYPE_LANDED_LOCK, landing_raw->landed_lock);

  00337	8b 45 f4	 mov	 eax, DWORD PTR _landing_raw$[ebp]
  0033a	8b 48 4c	 mov	 ecx, DWORD PTR [eax+76]
  0033d	51		 push	 ecx
  0033e	6a 74		 push	 116			; 00000074H
  00340	8b 55 f8	 mov	 edx, DWORD PTR _landing_en$[ebp]
  00343	52		 push	 edx
  00344	e8 00 00 00 00	 call	 ?pack_int_value@@YGXPAUENTITY@@W4INT_TYPES@@H@Z ; pack_int_value

; 257  : 	
; 258  : 					pack_int_value (landing_en, INT_TYPE_TAKEOFF_LOCK, landing_raw->takeoff_lock);

  00349	8b 45 f4	 mov	 eax, DWORD PTR _landing_raw$[ebp]
  0034c	8b 48 50	 mov	 ecx, DWORD PTR [eax+80]
  0034f	51		 push	 ecx
  00350	68 d3 00 00 00	 push	 211			; 000000d3H
  00355	8b 55 f8	 mov	 edx, DWORD PTR _landing_en$[ebp]
  00358	52		 push	 edx
  00359	e8 00 00 00 00	 call	 ?pack_int_value@@YGXPAUENTITY@@W4INT_TYPES@@H@Z ; pack_int_value

; 259  : 
; 260  : 					pack_list_root (landing_en, LIST_TYPE_TAKEOFF_QUEUE, &landing_raw->takeoff_queue_root);

  0035e	8b 45 f4	 mov	 eax, DWORD PTR _landing_raw$[ebp]
  00361	83 c0 18	 add	 eax, 24			; 00000018H
  00364	50		 push	 eax
  00365	6a 25		 push	 37			; 00000025H
  00367	8b 4d f8	 mov	 ecx, DWORD PTR _landing_en$[ebp]
  0036a	51		 push	 ecx
  0036b	e8 00 00 00 00	 call	 ?pack_list_root@@YGXPAUENTITY@@W4LIST_TYPES@@PAULIST_ROOT@@@Z ; pack_list_root

; 261  : 
; 262  : 					#if DEBUG_MODULE
; 263  : 
; 264  : 					debug_log ("KS_PACK: packing up %s landing entity, reserved %d, free %d, locks (landing %d, landed %d, takeoff %d)", entity_sub_type_landing_names [landing_raw->sub_type], landing_raw->reserved_landing_sites, landing_raw->free_landing_sites, landing_raw->landing_lock, landing_raw->landed_lock, landing_raw->takeoff_lock );
; 265  : 
; 266  : 					#endif
; 267  : 	
; 268  : 					landing_en = get_local_entity_child_succ (landing_en, LIST_TYPE_LANDING_SITE);

  00370	83 7d f8 00	 cmp	 DWORD PTR _landing_en$[ebp], 0
  00374	74 0a		 je	 SHORT $LN19@pack_local
  00376	8b 45 f8	 mov	 eax, DWORD PTR _landing_en$[ebp]
  00379	8b 08		 mov	 ecx, DWORD PTR [eax]
  0037b	89 4d ac	 mov	 DWORD PTR tv256[ebp], ecx
  0037e	eb 21		 jmp	 SHORT $LN20@pack_local
$LN19@pack_local:
  00380	8b 15 00 00 00
	00		 mov	 edx, DWORD PTR ?__LINE__Var@?0??pack_local_keysite_data@@YGXW4PACK_MODES@@@Z@4JA
  00386	83 c2 75	 add	 edx, 117		; 00000075H
  00389	52		 push	 edx
  0038a	68 00 00 00 00	 push	 OFFSET ??_C@_0EN@PHIBEMII@c?3?2users?2nhv90?2projects?2eech?2ap@
  0038f	a1 00 00 00 00	 mov	 eax, DWORD PTR ?null_entity_pointer_message@@3PBDB ; null_entity_pointer_message
  00394	50		 push	 eax
  00395	e8 00 00 00 00	 call	 ?process_assert@@YGXPBD0H@Z ; process_assert
  0039a	c7 45 ac 00 00
	00 00		 mov	 DWORD PTR tv256[ebp], 0
$LN20@pack_local:
  003a1	b9 01 00 00 00	 mov	 ecx, 1
  003a6	85 c9		 test	 ecx, ecx
  003a8	74 09		 je	 SHORT $LN21@pack_local
  003aa	c7 45 a8 17 00
	00 00		 mov	 DWORD PTR tv264[ebp], 23 ; 00000017H
  003b1	eb 21		 jmp	 SHORT $LN22@pack_local
$LN21@pack_local:
  003b3	8b 15 00 00 00
	00		 mov	 edx, DWORD PTR ?__LINE__Var@?0??pack_local_keysite_data@@YGXW4PACK_MODES@@@Z@4JA
  003b9	83 c2 75	 add	 edx, 117		; 00000075H
  003bc	52		 push	 edx
  003bd	68 00 00 00 00	 push	 OFFSET ??_C@_0EN@PHIBEMII@c?3?2users?2nhv90?2projects?2eech?2ap@
  003c2	a1 00 00 00 00	 mov	 eax, DWORD PTR ?overload_invalid_list_type_message@@3PBDB ; overload_invalid_list_type_message
  003c7	50		 push	 eax
  003c8	e8 00 00 00 00	 call	 ?process_assert@@YGXPBD0H@Z ; process_assert
  003cd	c7 45 a8 00 00
	00 00		 mov	 DWORD PTR tv264[ebp], 0
$LN22@pack_local:
  003d4	6a 17		 push	 23			; 00000017H
  003d6	8b 4d f8	 mov	 ecx, DWORD PTR _landing_en$[ebp]
  003d9	51		 push	 ecx
  003da	69 55 ac b4 00
	00 00		 imul	 edx, DWORD PTR tv256[ebp], 180
  003e1	8b 45 a8	 mov	 eax, DWORD PTR tv264[ebp]
  003e4	8b 8c 82 00 00
	00 00		 mov	 ecx, DWORD PTR ?fn_get_local_entity_child_succ@@3PAY0CN@P6GPAUENTITY@@PAU1@W4LIST_TYPES@@@ZA[edx+eax*4]
  003eb	ff d1		 call	 ecx
  003ed	89 45 f8	 mov	 DWORD PTR _landing_en$[ebp], eax

; 269  : 				}

  003f0	e9 08 ff ff ff	 jmp	 $LN4@pack_local
$LN5@pack_local:

; 270  : 			}
; 271  : 
; 272  : 		}
; 273  : 
; 274  : 		en = get_local_entity_succ (en);

  003f5	8b 45 fc	 mov	 eax, DWORD PTR _en$[ebp]
  003f8	8b 48 08	 mov	 ecx, DWORD PTR [eax+8]
  003fb	89 4d fc	 mov	 DWORD PTR _en$[ebp], ecx

; 275  : 	}

  003fe	e9 37 fc ff ff	 jmp	 $LN2@pack_local
$LN3@pack_local:
$LN1@pack_local:

; 276  : }

  00403	5f		 pop	 edi
  00404	5e		 pop	 esi
  00405	5b		 pop	 ebx
  00406	8b e5		 mov	 esp, ebp
  00408	5d		 pop	 ebp
  00409	c2 04 00	 ret	 4
?pack_local_keysite_data@@YGXW4PACK_MODES@@@Z ENDP	; pack_local_keysite_data
_TEXT	ENDS
; Function compile flags: /Odtp /ZI
; File c:\users\nhv90\projects\eech\aphavoc\source\entity\special\keysite\ks_pack.c
;	COMDAT ?overload_keysite_pack_functions@@YGXXZ
_TEXT	SEGMENT
?overload_keysite_pack_functions@@YGXXZ PROC		; overload_keysite_pack_functions, COMDAT

; 140  : {

  00000	55		 push	 ebp
  00001	8b ec		 mov	 ebp, esp
  00003	83 ec 40	 sub	 esp, 64			; 00000040H
  00006	53		 push	 ebx
  00007	56		 push	 esi
  00008	57		 push	 edi

; 141  : 	fn_pack_local_entity_data[ENTITY_TYPE_KEYSITE]		= pack_local_data;

  00009	b8 04 00 00 00	 mov	 eax, 4
  0000e	6b c8 0f	 imul	 ecx, eax, 15
  00011	c7 81 00 00 00
	00 00 00 00 00	 mov	 DWORD PTR ?fn_pack_local_entity_data@@3PAP6GXPAUENTITY@@W4PACK_MODES@@@ZA[ecx], OFFSET ?pack_local_data@@YGXPAUENTITY@@W4PACK_MODES@@@Z ; pack_local_data

; 142  : 
; 143  : 	fn_unpack_local_entity_data[ENTITY_TYPE_KEYSITE]	= unpack_local_data;

  0001b	b8 04 00 00 00	 mov	 eax, 4
  00020	6b c8 0f	 imul	 ecx, eax, 15
  00023	c7 81 00 00 00
	00 00 00 00 00	 mov	 DWORD PTR ?fn_unpack_local_entity_data@@3PAP6GXPAUENTITY@@W4ENTITY_TYPES@@W4PACK_MODES@@@ZA[ecx], OFFSET ?unpack_local_data@@YGXPAUENTITY@@W4ENTITY_TYPES@@W4PACK_MODES@@@Z ; unpack_local_data

; 144  : }

  0002d	5f		 pop	 edi
  0002e	5e		 pop	 esi
  0002f	5b		 pop	 ebx
  00030	8b e5		 mov	 esp, ebp
  00032	5d		 pop	 ebp
  00033	c3		 ret	 0
?overload_keysite_pack_functions@@YGXXZ ENDP		; overload_keysite_pack_functions
_TEXT	ENDS
END
