; Listing generated by Microsoft (R) Optimizing Compiler Version 19.16.27045.0 

	TITLE	C:\Users\nhv90\Projects\eech\aphavoc\source\entity\special\landing\ld_creat.c
	.686P
	.XMM
	include listing.inc
	.model	flat

INCLUDELIB MSVCRTD
INCLUDELIB OLDNAMES

PUBLIC	?overload_landing_create_functions@@YGXXZ	; overload_landing_create_functions
PUBLIC	?__LINE__Var@?0??create_local@@YGPAUENTITY@@W4ENTITY_TYPES@@HPAD@Z@4JA ; `create_local'::`1'::__LINE__Var
PUBLIC	??_C@_0EO@BMEGKLHG@c?3?2users?2nhv90?2projects?2eech?2ap@ ; `string'
PUBLIC	??_C@_0CL@OOPHFNJI@assert_local_create_entity_inde@ ; `string'
PUBLIC	?__LINE__Var@?0??create_remote@@YGPAUENTITY@@W4ENTITY_TYPES@@HPAD@Z@4JA ; `create_remote'::`1'::__LINE__Var
PUBLIC	??_C@_0CM@DHBIKIGD@assert_remote_create_entity_ind@ ; `string'
PUBLIC	?__LINE__Var@?0??create_server@@YGPAUENTITY@@W4ENTITY_TYPES@@HPAD@Z@4JA ; `create_server'::`1'::__LINE__Var
PUBLIC	??_C@_0CB@CFOCLFOK@assert_client_server_local_fn?5?$CI@ ; `string'
PUBLIC	??_C@_0CC@BNNNEGEG@assert_client_server_remote_fn?5@ ; `string'
PUBLIC	?__LINE__Var@?0??create_client@@YGPAUENTITY@@W4ENTITY_TYPES@@HPAD@Z@4JA ; `create_client'::`1'::__LINE__Var
PUBLIC	__real@41200000
EXTRN	_memset:PROC
EXTRN	?process_assert@@YGXPBD0H@Z:PROC		; process_assert
EXTRN	?malloc_fast_memory@@YGPAXI@Z:PROC		; malloc_fast_memory
EXTRN	?set_local_entity_attributes@@YGXPAUENTITY@@PAD@Z:PROC ; set_local_entity_attributes
EXTRN	?insert_local_entity_into_parents_child_list@@YGXPAUENTITY@@W4LIST_TYPES@@00@Z:PROC ; insert_local_entity_into_parents_child_list
EXTRN	?create_local_entity@@YAPAUENTITY@@W4ENTITY_TYPES@@HZZ:PROC ; create_local_entity
EXTRN	?transmit_entity_comms_message@@YAXW4ENTITY_COMMS_MESSAGES@@PAUENTITY@@ZZ:PROC ; transmit_entity_comms_message
EXTRN	?assert_client_server_local_fn@@YGHXZ:PROC	; assert_client_server_local_fn
EXTRN	?assert_client_server_remote_fn@@YGHXZ:PROC	; assert_client_server_remote_fn
EXTRN	?assert_local_create_entity_index@@YGHH@Z:PROC	; assert_local_create_entity_index
EXTRN	?assert_remote_create_entity_index@@YGHH@Z:PROC	; assert_remote_create_entity_index
EXTRN	?get_free_entity@@YGPAUENTITY@@H@Z:PROC		; get_free_entity
EXTRN	?get_closest_road_node@@YGHPAUVEC3D@@M@Z:PROC	; get_closest_road_node
EXTRN	?system_comms_data_flow@@3W4COMMS_DATA_FLOW_TYPES@@A:DWORD ; system_comms_data_flow
EXTRN	?world_map@@3UWORLD_MAP_DATA@@A:BYTE		; world_map
EXTRN	?fn_create_local_entity@@3PAP6GPAUENTITY@@W4ENTITY_TYPES@@HPAD@ZA:BYTE ; fn_create_local_entity
EXTRN	?fn_create_client_server_entity@@3PAY01P6GPAUENTITY@@W4ENTITY_TYPES@@HPAD@ZA:BYTE ; fn_create_client_server_entity
EXTRN	?entities@@3PAUENTITY@@A:DWORD			; entities
EXTRN	?update_entity@@3PAUENTITY@@A:DWORD		; update_entity
EXTRN	__fltused:DWORD
;	COMDAT __real@41200000
CONST	SEGMENT
__real@41200000 DD 041200000r			; 10
CONST	ENDS
;	COMDAT ?__LINE__Var@?0??create_client@@YGPAUENTITY@@W4ENTITY_TYPES@@HPAD@Z@4JA
_DATA	SEGMENT
?__LINE__Var@?0??create_client@@YGPAUENTITY@@W4ENTITY_TYPES@@HPAD@Z@4JA DD 0142H ; `create_client'::`1'::__LINE__Var
_DATA	ENDS
;	COMDAT ??_C@_0CC@BNNNEGEG@assert_client_server_remote_fn?5@
CONST	SEGMENT
??_C@_0CC@BNNNEGEG@assert_client_server_remote_fn?5@ DB 'assert_client_se'
	DB	'rver_remote_fn ()', 00H			; `string'
CONST	ENDS
;	COMDAT ??_C@_0CB@CFOCLFOK@assert_client_server_local_fn?5?$CI@
CONST	SEGMENT
??_C@_0CB@CFOCLFOK@assert_client_server_local_fn?5?$CI@ DB 'assert_client'
	DB	'_server_local_fn ()', 00H			; `string'
CONST	ENDS
;	COMDAT ?__LINE__Var@?0??create_server@@YGPAUENTITY@@W4ENTITY_TYPES@@HPAD@Z@4JA
_DATA	SEGMENT
?__LINE__Var@?0??create_server@@YGPAUENTITY@@W4ENTITY_TYPES@@HPAD@Z@4JA DD 012bH ; `create_server'::`1'::__LINE__Var
_DATA	ENDS
;	COMDAT ??_C@_0CM@DHBIKIGD@assert_remote_create_entity_ind@
CONST	SEGMENT
??_C@_0CM@DHBIKIGD@assert_remote_create_entity_ind@ DB 'assert_remote_cre'
	DB	'ate_entity_index ((index))', 00H		; `string'
CONST	ENDS
;	COMDAT ?__LINE__Var@?0??create_remote@@YGPAUENTITY@@W4ENTITY_TYPES@@HPAD@Z@4JA
_DATA	SEGMENT
?__LINE__Var@?0??create_remote@@YGPAUENTITY@@W4ENTITY_TYPES@@HPAD@Z@4JA DD 0118H ; `create_remote'::`1'::__LINE__Var
_DATA	ENDS
;	COMDAT ??_C@_0CL@OOPHFNJI@assert_local_create_entity_inde@
CONST	SEGMENT
??_C@_0CL@OOPHFNJI@assert_local_create_entity_inde@ DB 'assert_local_crea'
	DB	'te_entity_index ((index))', 00H		; `string'
CONST	ENDS
;	COMDAT ??_C@_0EO@BMEGKLHG@c?3?2users?2nhv90?2projects?2eech?2ap@
CONST	SEGMENT
??_C@_0EO@BMEGKLHG@c?3?2users?2nhv90?2projects?2eech?2ap@ DB 'c:\users\nh'
	DB	'v90\projects\eech\aphavoc\source\entity\special\landing\ld_cr'
	DB	'eat.c', 00H					; `string'
CONST	ENDS
;	COMDAT ?__LINE__Var@?0??create_local@@YGPAUENTITY@@W4ENTITY_TYPES@@HPAD@Z@4JA
_DATA	SEGMENT
?__LINE__Var@?0??create_local@@YGPAUENTITY@@W4ENTITY_TYPES@@HPAD@Z@4JA DD 052H ; `create_local'::`1'::__LINE__Var
_DATA	ENDS
; Function compile flags: /Odtp /ZI
; File c:\users\nhv90\projects\eech\aphavoc\source\entity\special\landing\ld_creat.c
;	COMDAT ?create_client@@YGPAUENTITY@@W4ENTITY_TYPES@@HPAD@Z
_TEXT	SEGMENT
_en$ = -4						; size = 4
_type$ = 8						; size = 4
_index$ = 12						; size = 4
_pargs$ = 16						; size = 4
?create_client@@YGPAUENTITY@@W4ENTITY_TYPES@@HPAD@Z PROC ; create_client, COMDAT

; 322  : {

  00000	55		 push	 ebp
  00001	8b ec		 mov	 ebp, esp
  00003	83 ec 44	 sub	 esp, 68			; 00000044H
  00006	53		 push	 ebx
  00007	56		 push	 esi
  00008	57		 push	 edi

; 323  : 	entity
; 324  : 		*en;
; 325  : 
; 326  : 	if (get_comms_data_flow () == COMMS_DATA_FLOW_TX)

  00009	83 3d 00 00 00
	00 00		 cmp	 DWORD PTR ?system_comms_data_flow@@3W4COMMS_DATA_FLOW_TYPES@@A, 0 ; system_comms_data_flow
  00010	75 37		 jne	 SHORT $LN2@create_cli

; 327  : 	{
; 328  : 		validate_client_server_remote_fn ();

  00012	e8 00 00 00 00	 call	 ?assert_client_server_remote_fn@@YGHXZ ; assert_client_server_remote_fn
  00017	85 c0		 test	 eax, eax
  00019	75 18		 jne	 SHORT $LN4@create_cli
  0001b	a1 00 00 00 00	 mov	 eax, DWORD PTR ?__LINE__Var@?0??create_client@@YGPAUENTITY@@W4ENTITY_TYPES@@HPAD@Z@4JA
  00020	83 c0 06	 add	 eax, 6
  00023	50		 push	 eax
  00024	68 00 00 00 00	 push	 OFFSET ??_C@_0EO@BMEGKLHG@c?3?2users?2nhv90?2projects?2eech?2ap@
  00029	68 00 00 00 00	 push	 OFFSET ??_C@_0CC@BNNNEGEG@assert_client_server_remote_fn?5@
  0002e	e8 00 00 00 00	 call	 ?process_assert@@YGXPBD0H@Z ; process_assert
$LN4@create_cli:

; 329  : 
; 330  : 		en = create_remote (type, index, pargs);

  00033	8b 45 10	 mov	 eax, DWORD PTR _pargs$[ebp]
  00036	50		 push	 eax
  00037	8b 4d 0c	 mov	 ecx, DWORD PTR _index$[ebp]
  0003a	51		 push	 ecx
  0003b	8b 55 08	 mov	 edx, DWORD PTR _type$[ebp]
  0003e	52		 push	 edx
  0003f	e8 00 00 00 00	 call	 ?create_remote@@YGPAUENTITY@@W4ENTITY_TYPES@@HPAD@Z ; create_remote
  00044	89 45 fc	 mov	 DWORD PTR _en$[ebp], eax

; 331  : 	}
; 332  : 	else

  00047	eb 35		 jmp	 SHORT $LN3@create_cli
$LN2@create_cli:

; 333  : 	{
; 334  : 		validate_client_server_local_fn ();

  00049	e8 00 00 00 00	 call	 ?assert_client_server_local_fn@@YGHXZ ; assert_client_server_local_fn
  0004e	85 c0		 test	 eax, eax
  00050	75 18		 jne	 SHORT $LN5@create_cli
  00052	a1 00 00 00 00	 mov	 eax, DWORD PTR ?__LINE__Var@?0??create_client@@YGPAUENTITY@@W4ENTITY_TYPES@@HPAD@Z@4JA
  00057	83 c0 0c	 add	 eax, 12			; 0000000cH
  0005a	50		 push	 eax
  0005b	68 00 00 00 00	 push	 OFFSET ??_C@_0EO@BMEGKLHG@c?3?2users?2nhv90?2projects?2eech?2ap@
  00060	68 00 00 00 00	 push	 OFFSET ??_C@_0CB@CFOCLFOK@assert_client_server_local_fn?5?$CI@
  00065	e8 00 00 00 00	 call	 ?process_assert@@YGXPBD0H@Z ; process_assert
$LN5@create_cli:

; 335  : 
; 336  : 		en = create_local (type, index, pargs);

  0006a	8b 45 10	 mov	 eax, DWORD PTR _pargs$[ebp]
  0006d	50		 push	 eax
  0006e	8b 4d 0c	 mov	 ecx, DWORD PTR _index$[ebp]
  00071	51		 push	 ecx
  00072	8b 55 08	 mov	 edx, DWORD PTR _type$[ebp]
  00075	52		 push	 edx
  00076	e8 00 00 00 00	 call	 ?create_local@@YGPAUENTITY@@W4ENTITY_TYPES@@HPAD@Z ; create_local
  0007b	89 45 fc	 mov	 DWORD PTR _en$[ebp], eax
$LN3@create_cli:

; 337  : 	}
; 338  : 
; 339  : 	return (en);

  0007e	8b 45 fc	 mov	 eax, DWORD PTR _en$[ebp]

; 340  : }

  00081	5f		 pop	 edi
  00082	5e		 pop	 esi
  00083	5b		 pop	 ebx
  00084	8b e5		 mov	 esp, ebp
  00086	5d		 pop	 ebp
  00087	c2 0c 00	 ret	 12			; 0000000cH
?create_client@@YGPAUENTITY@@W4ENTITY_TYPES@@HPAD@Z ENDP ; create_client
_TEXT	ENDS
; Function compile flags: /Odtp /ZI
; File c:\users\nhv90\projects\eech\aphavoc\source\entity\special\landing\ld_creat.c
;	COMDAT ?create_server@@YGPAUENTITY@@W4ENTITY_TYPES@@HPAD@Z
_TEXT	SEGMENT
_en$ = -4						; size = 4
_type$ = 8						; size = 4
_index$ = 12						; size = 4
_pargs$ = 16						; size = 4
?create_server@@YGPAUENTITY@@W4ENTITY_TYPES@@HPAD@Z PROC ; create_server, COMDAT

; 299  : {

  00000	55		 push	 ebp
  00001	8b ec		 mov	 ebp, esp
  00003	83 ec 44	 sub	 esp, 68			; 00000044H
  00006	53		 push	 ebx
  00007	56		 push	 esi
  00008	57		 push	 edi

; 300  : 	entity
; 301  : 		*en;
; 302  : 
; 303  : 	validate_client_server_local_fn ();

  00009	e8 00 00 00 00	 call	 ?assert_client_server_local_fn@@YGHXZ ; assert_client_server_local_fn
  0000e	85 c0		 test	 eax, eax
  00010	75 18		 jne	 SHORT $LN2@create_ser
  00012	a1 00 00 00 00	 mov	 eax, DWORD PTR ?__LINE__Var@?0??create_server@@YGPAUENTITY@@W4ENTITY_TYPES@@HPAD@Z@4JA
  00017	83 c0 04	 add	 eax, 4
  0001a	50		 push	 eax
  0001b	68 00 00 00 00	 push	 OFFSET ??_C@_0EO@BMEGKLHG@c?3?2users?2nhv90?2projects?2eech?2ap@
  00020	68 00 00 00 00	 push	 OFFSET ??_C@_0CB@CFOCLFOK@assert_client_server_local_fn?5?$CI@
  00025	e8 00 00 00 00	 call	 ?process_assert@@YGXPBD0H@Z ; process_assert
$LN2@create_ser:

; 304  : 
; 305  : 	en = create_local (type, index, pargs);

  0002a	8b 45 10	 mov	 eax, DWORD PTR _pargs$[ebp]
  0002d	50		 push	 eax
  0002e	8b 4d 0c	 mov	 ecx, DWORD PTR _index$[ebp]
  00031	51		 push	 ecx
  00032	8b 55 08	 mov	 edx, DWORD PTR _type$[ebp]
  00035	52		 push	 edx
  00036	e8 00 00 00 00	 call	 ?create_local@@YGPAUENTITY@@W4ENTITY_TYPES@@HPAD@Z ; create_local
  0003b	89 45 fc	 mov	 DWORD PTR _en$[ebp], eax

; 306  : 
; 307  : 	if (en)

  0003e	83 7d fc 00	 cmp	 DWORD PTR _en$[ebp], 0
  00042	74 3b		 je	 SHORT $LN3@create_ser

; 308  : 	{
; 309  : 		validate_client_server_remote_fn ();

  00044	e8 00 00 00 00	 call	 ?assert_client_server_remote_fn@@YGHXZ ; assert_client_server_remote_fn
  00049	85 c0		 test	 eax, eax
  0004b	75 18		 jne	 SHORT $LN4@create_ser
  0004d	a1 00 00 00 00	 mov	 eax, DWORD PTR ?__LINE__Var@?0??create_server@@YGPAUENTITY@@W4ENTITY_TYPES@@HPAD@Z@4JA
  00052	83 c0 0a	 add	 eax, 10			; 0000000aH
  00055	50		 push	 eax
  00056	68 00 00 00 00	 push	 OFFSET ??_C@_0EO@BMEGKLHG@c?3?2users?2nhv90?2projects?2eech?2ap@
  0005b	68 00 00 00 00	 push	 OFFSET ??_C@_0CC@BNNNEGEG@assert_client_server_remote_fn?5@
  00060	e8 00 00 00 00	 call	 ?process_assert@@YGXPBD0H@Z ; process_assert
$LN4@create_ser:

; 310  : 
; 311  : 		create_remote (type, get_local_entity_index (en), pargs);

  00065	8b 45 10	 mov	 eax, DWORD PTR _pargs$[ebp]
  00068	50		 push	 eax
  00069	8b 4d fc	 mov	 ecx, DWORD PTR _en$[ebp]
  0006c	2b 0d 00 00 00
	00		 sub	 ecx, DWORD PTR ?entities@@3PAUENTITY@@A ; entities
  00072	c1 f9 04	 sar	 ecx, 4
  00075	51		 push	 ecx
  00076	8b 55 08	 mov	 edx, DWORD PTR _type$[ebp]
  00079	52		 push	 edx
  0007a	e8 00 00 00 00	 call	 ?create_remote@@YGPAUENTITY@@W4ENTITY_TYPES@@HPAD@Z ; create_remote
$LN3@create_ser:

; 312  : 	}
; 313  : 
; 314  : 	return (en);

  0007f	8b 45 fc	 mov	 eax, DWORD PTR _en$[ebp]

; 315  : }

  00082	5f		 pop	 edi
  00083	5e		 pop	 esi
  00084	5b		 pop	 ebx
  00085	8b e5		 mov	 esp, ebp
  00087	5d		 pop	 ebp
  00088	c2 0c 00	 ret	 12			; 0000000cH
?create_server@@YGPAUENTITY@@W4ENTITY_TYPES@@HPAD@Z ENDP ; create_server
_TEXT	ENDS
; Function compile flags: /Odtp /ZI
; File c:\users\nhv90\projects\eech\aphavoc\source\entity\special\landing\ld_creat.c
;	COMDAT ?create_remote@@YGPAUENTITY@@W4ENTITY_TYPES@@HPAD@Z
_TEXT	SEGMENT
_type$ = 8						; size = 4
_index$ = 12						; size = 4
_pargs$ = 16						; size = 4
?create_remote@@YGPAUENTITY@@W4ENTITY_TYPES@@HPAD@Z PROC ; create_remote, COMDAT

; 280  : {

  00000	55		 push	 ebp
  00001	8b ec		 mov	 ebp, esp
  00003	83 ec 40	 sub	 esp, 64			; 00000040H
  00006	53		 push	 ebx
  00007	56		 push	 esi
  00008	57		 push	 edi

; 281  : 	validate_remote_create_entity_index (index);

  00009	8b 45 0c	 mov	 eax, DWORD PTR _index$[ebp]
  0000c	50		 push	 eax
  0000d	e8 00 00 00 00	 call	 ?assert_remote_create_entity_index@@YGHH@Z ; assert_remote_create_entity_index
  00012	85 c0		 test	 eax, eax
  00014	75 18		 jne	 SHORT $LN2@create_rem
  00016	a1 00 00 00 00	 mov	 eax, DWORD PTR ?__LINE__Var@?0??create_remote@@YGPAUENTITY@@W4ENTITY_TYPES@@HPAD@Z@4JA
  0001b	83 c0 01	 add	 eax, 1
  0001e	50		 push	 eax
  0001f	68 00 00 00 00	 push	 OFFSET ??_C@_0EO@BMEGKLHG@c?3?2users?2nhv90?2projects?2eech?2ap@
  00024	68 00 00 00 00	 push	 OFFSET ??_C@_0CM@DHBIKIGD@assert_remote_create_entity_ind@
  00029	e8 00 00 00 00	 call	 ?process_assert@@YGXPBD0H@Z ; process_assert
$LN2@create_rem:

; 282  : 
; 283  : 	#if DEBUG_MODULE
; 284  : 
; 285  : 	debug_log_entity_args (ENTITY_DEBUG_REMOTE, ENTITY_DEBUG_CREATE, NULL, type, index);
; 286  : 
; 287  : 	#endif
; 288  : 
; 289  : 	transmit_entity_comms_message (ENTITY_COMMS_CREATE, NULL, type, index, pargs);

  0002e	8b 45 10	 mov	 eax, DWORD PTR _pargs$[ebp]
  00031	50		 push	 eax
  00032	8b 4d 0c	 mov	 ecx, DWORD PTR _index$[ebp]
  00035	51		 push	 ecx
  00036	8b 55 08	 mov	 edx, DWORD PTR _type$[ebp]
  00039	52		 push	 edx
  0003a	6a 00		 push	 0
  0003c	6a 08		 push	 8
  0003e	e8 00 00 00 00	 call	 ?transmit_entity_comms_message@@YAXW4ENTITY_COMMS_MESSAGES@@PAUENTITY@@ZZ ; transmit_entity_comms_message
  00043	83 c4 14	 add	 esp, 20			; 00000014H

; 290  : 
; 291  : 	return (NULL);

  00046	33 c0		 xor	 eax, eax

; 292  : }

  00048	5f		 pop	 edi
  00049	5e		 pop	 esi
  0004a	5b		 pop	 ebx
  0004b	8b e5		 mov	 esp, ebp
  0004d	5d		 pop	 ebp
  0004e	c2 0c 00	 ret	 12			; 0000000cH
?create_remote@@YGPAUENTITY@@W4ENTITY_TYPES@@HPAD@Z ENDP ; create_remote
_TEXT	ENDS
; Function compile flags: /Odtp /ZI
; File c:\users\nhv90\projects\eech\aphavoc\source\entity\special\landing\ld_creat.c
;	COMDAT ?create_local@@YGPAUENTITY@@W4ENTITY_TYPES@@HPAD@Z
_TEXT	SEGMENT
tv95 = -80						; size = 4
_raw$ = -12						; size = 4
_en$ = -8						; size = 4
_task$ = -4						; size = 4
_type$ = 8						; size = 4
_index$ = 12						; size = 4
_pargs$ = 16						; size = 4
?create_local@@YGPAUENTITY@@W4ENTITY_TYPES@@HPAD@Z PROC	; create_local, COMDAT

; 82   : {

  00000	55		 push	 ebp
  00001	8b ec		 mov	 ebp, esp
  00003	83 ec 50	 sub	 esp, 80			; 00000050H
  00006	53		 push	 ebx
  00007	56		 push	 esi
  00008	57		 push	 edi

; 83   : 
; 84   : 	entity
; 85   : 		*task,
; 86   : 		*en;
; 87   : 
; 88   : 	landing
; 89   : 		*raw;
; 90   : 
; 91   : 	////////////////////////////////////////
; 92   :   	//
; 93   :   	// VALIDATE
; 94   :   	//
; 95   : 	////////////////////////////////////////
; 96   : 
; 97   : 	validate_local_create_entity_index (index);

  00009	8b 45 0c	 mov	 eax, DWORD PTR _index$[ebp]
  0000c	50		 push	 eax
  0000d	e8 00 00 00 00	 call	 ?assert_local_create_entity_index@@YGHH@Z ; assert_local_create_entity_index
  00012	85 c0		 test	 eax, eax
  00014	75 18		 jne	 SHORT $LN4@create_loc
  00016	a1 00 00 00 00	 mov	 eax, DWORD PTR ?__LINE__Var@?0??create_local@@YGPAUENTITY@@W4ENTITY_TYPES@@HPAD@Z@4JA
  0001b	83 c0 0f	 add	 eax, 15			; 0000000fH
  0001e	50		 push	 eax
  0001f	68 00 00 00 00	 push	 OFFSET ??_C@_0EO@BMEGKLHG@c?3?2users?2nhv90?2projects?2eech?2ap@
  00024	68 00 00 00 00	 push	 OFFSET ??_C@_0CL@OOPHFNJI@assert_local_create_entity_inde@
  00029	e8 00 00 00 00	 call	 ?process_assert@@YGXPBD0H@Z ; process_assert
$LN4@create_loc:

; 98   : 
; 99   : 	#if DEBUG_MODULE
; 100  : 
; 101  : 	debug_log_entity_args (ENTITY_DEBUG_LOCAL, ENTITY_DEBUG_CREATE, NULL, type, index);
; 102  : 
; 103  : 	#endif
; 104  : 
; 105  : 	en = get_free_entity (index);

  0002e	8b 45 0c	 mov	 eax, DWORD PTR _index$[ebp]
  00031	50		 push	 eax
  00032	e8 00 00 00 00	 call	 ?get_free_entity@@YGPAUENTITY@@H@Z ; get_free_entity
  00037	89 45 f8	 mov	 DWORD PTR _en$[ebp], eax

; 106  : 
; 107  : 	if (en)

  0003a	83 7d f8 00	 cmp	 DWORD PTR _en$[ebp], 0
  0003e	0f 84 94 02 00
	00		 je	 $LN5@create_loc

; 108  : 	{
; 109  : 		////////////////////////////////////////
; 110  :    	//
; 111  :    	// MALLOC ENTITY DATA
; 112  :    	//
; 113  : 		////////////////////////////////////////
; 114  : 
; 115  : 		set_local_entity_type (en, type);

  00044	8b 45 f8	 mov	 eax, DWORD PTR _en$[ebp]
  00047	8b 4d 08	 mov	 ecx, DWORD PTR _type$[ebp]
  0004a	89 08		 mov	 DWORD PTR [eax], ecx

; 116  : 
; 117  : 		raw = (landing *) malloc_fast_mem (sizeof (landing));

  0004c	6a 54		 push	 84			; 00000054H
  0004e	e8 00 00 00 00	 call	 ?malloc_fast_memory@@YGPAXI@Z ; malloc_fast_memory
  00053	89 45 f4	 mov	 DWORD PTR _raw$[ebp], eax

; 118  : 
; 119  : 		set_local_entity_data (en, raw);

  00056	8b 45 f8	 mov	 eax, DWORD PTR _en$[ebp]
  00059	8b 4d f4	 mov	 ecx, DWORD PTR _raw$[ebp]
  0005c	89 48 04	 mov	 DWORD PTR [eax+4], ecx

; 120  : 
; 121  : 		////////////////////////////////////////
; 122  :    	//
; 123  :    	// INITIALISE ALL ENTITY DATA TO 'WORKING' DEFAULT VALUES
; 124  : 		//
; 125  : 		// DO NOT USE ACCESS FUNCTIONS
; 126  : 		//
; 127  : 		// DO NOT USE RANDOM VALUES
; 128  : 		//
; 129  : 		////////////////////////////////////////
; 130  : 
; 131  : 		memset (raw, 0, sizeof (landing));

  0005f	6a 54		 push	 84			; 00000054H
  00061	6a 00		 push	 0
  00063	8b 45 f4	 mov	 eax, DWORD PTR _raw$[ebp]
  00066	50		 push	 eax
  00067	e8 00 00 00 00	 call	 _memset
  0006c	83 c4 0c	 add	 esp, 12			; 0000000cH

; 132  : 
; 133  : 		raw->position.x = MID_MAP_X;

  0006f	8b 45 f4	 mov	 eax, DWORD PTR _raw$[ebp]
  00072	f3 0f 10 05 30
	00 00 00	 movss	 xmm0, DWORD PTR ?world_map@@3UWORLD_MAP_DATA@@A+48
  0007a	f3 0f 11 40 04	 movss	 DWORD PTR [eax+4], xmm0

; 134  : 		raw->position.y = MID_MAP_Y;

  0007f	8b 45 f4	 mov	 eax, DWORD PTR _raw$[ebp]
  00082	f3 0f 10 05 34
	00 00 00	 movss	 xmm0, DWORD PTR ?world_map@@3UWORLD_MAP_DATA@@A+52
  0008a	f3 0f 11 40 08	 movss	 DWORD PTR [eax+8], xmm0

; 135  : 		raw->position.z = MID_MAP_Z;

  0008f	8b 45 f4	 mov	 eax, DWORD PTR _raw$[ebp]
  00092	f3 0f 10 05 38
	00 00 00	 movss	 xmm0, DWORD PTR ?world_map@@3UWORLD_MAP_DATA@@A+56
  0009a	f3 0f 11 40 0c	 movss	 DWORD PTR [eax+12], xmm0

; 136  : 
; 137  : 		raw->free_landing_sites = 0;

  0009f	8b 45 f4	 mov	 eax, DWORD PTR _raw$[ebp]
  000a2	c7 40 3c 00 00
	00 00		 mov	 DWORD PTR [eax+60], 0

; 138  : 
; 139  : 		raw->total_landing_sites = 0;

  000a9	8b 45 f4	 mov	 eax, DWORD PTR _raw$[ebp]
  000ac	c7 40 40 00 00
	00 00		 mov	 DWORD PTR [eax+64], 0

; 140  : 
; 141  : 		raw->reserved_landing_sites = 0;

  000b3	8b 45 f4	 mov	 eax, DWORD PTR _raw$[ebp]
  000b6	c7 40 38 00 00
	00 00		 mov	 DWORD PTR [eax+56], 0

; 142  : 
; 143  : 		////////////////////////////////////////
; 144  : 		//
; 145  : 		// OVERWRITE DEFAULT VALUES WITH GIVEN ATTRIBUTES
; 146  : 		//
; 147  : 		////////////////////////////////////////
; 148  : 
; 149  : 		set_local_entity_attributes (en, pargs);

  000bd	8b 45 10	 mov	 eax, DWORD PTR _pargs$[ebp]
  000c0	50		 push	 eax
  000c1	8b 4d f8	 mov	 ecx, DWORD PTR _en$[ebp]
  000c4	51		 push	 ecx
  000c5	e8 00 00 00 00	 call	 ?set_local_entity_attributes@@YGXPAUENTITY@@PAD@Z ; set_local_entity_attributes

; 150  : 
; 151  : 		////////////////////////////////////////
; 152  : 		//
; 153  : 		// CHECK MANDATORY ATTRIBUTES HAVE BEEN GIVEN
; 154  : 		//
; 155  : 		////////////////////////////////////////
; 156  : 
; 157  : 		////////////////////////////////////////
; 158  : 		//
; 159  : 		// RESOLVE DEFAULT VALUES
; 160  : 		//
; 161  : 		////////////////////////////////////////
; 162  : 		
; 163  : 		raw->free_landing_sites = raw->total_landing_sites;

  000ca	8b 45 f4	 mov	 eax, DWORD PTR _raw$[ebp]
  000cd	8b 4d f4	 mov	 ecx, DWORD PTR _raw$[ebp]
  000d0	8b 51 40	 mov	 edx, DWORD PTR [ecx+64]
  000d3	89 50 3c	 mov	 DWORD PTR [eax+60], edx

; 164  : 
; 165  : 		switch (raw->sub_type)

  000d6	8b 45 f4	 mov	 eax, DWORD PTR _raw$[ebp]
  000d9	8b 08		 mov	 ecx, DWORD PTR [eax]
  000db	89 4d b0	 mov	 DWORD PTR tv95[ebp], ecx
  000de	83 7d b0 03	 cmp	 DWORD PTR tv95[ebp], 3
  000e2	74 04		 je	 SHORT $LN7@create_loc
  000e4	eb 22		 jmp	 SHORT $LN2@create_loc

; 166  : 		{
; 167  : 
; 168  : 			case ENTITY_SUB_TYPE_LANDING_FIXED_WING:
; 169  : 			case ENTITY_SUB_TYPE_LANDING_FIXED_WING_TRANSPORT:
; 170  : 			case ENTITY_SUB_TYPE_LANDING_HELICOPTER:
; 171  : 			{
; 172  : 
; 173  : 				//raw->route_node = get_closest_air_node (&raw->position, 10.0);
; 174  : 
; 175  : 				break;

  000e6	eb 20		 jmp	 SHORT $LN2@create_loc
$LN7@create_loc:

; 176  : 			}
; 177  : 
; 178  : 			case ENTITY_SUB_TYPE_LANDING_GROUND:
; 179  : 			{
; 180  : 
; 181  : 				raw->route_node = get_closest_road_node (&raw->position, 10.0);

  000e8	51		 push	 ecx
  000e9	f3 0f 10 05 00
	00 00 00	 movss	 xmm0, DWORD PTR __real@41200000
  000f1	f3 0f 11 04 24	 movss	 DWORD PTR [esp], xmm0
  000f6	8b 45 f4	 mov	 eax, DWORD PTR _raw$[ebp]
  000f9	83 c0 04	 add	 eax, 4
  000fc	50		 push	 eax
  000fd	e8 00 00 00 00	 call	 ?get_closest_road_node@@YGHPAUVEC3D@@M@Z ; get_closest_road_node
  00102	8b 4d f4	 mov	 ecx, DWORD PTR _raw$[ebp]
  00105	89 41 34	 mov	 DWORD PTR [ecx+52], eax
$LN2@create_loc:

; 182  : 
; 183  : 				break;
; 184  : 			}
; 185  : 			case ENTITY_SUB_TYPE_LANDING_SEA:
; 186  : 			{
; 187  : 
; 188  : 				//raw->route_node = get_closest_sea_node (&raw->position, 10.0);
; 189  : 
; 190  : 				break;
; 191  : 			}
; 192  : 		}
; 193  : 
; 194  : 		////////////////////////////////////////
; 195  : 		//
; 196  : 		// LINK INTO SYSTEM
; 197  : 		//
; 198  : 		////////////////////////////////////////
; 199  : 
; 200  : 		if (raw->landing_site_link.parent)

  00108	8b 45 f4	 mov	 eax, DWORD PTR _raw$[ebp]
  0010b	83 78 28 00	 cmp	 DWORD PTR [eax+40], 0
  0010f	74 14		 je	 SHORT $LN9@create_loc

; 201  : 		{
; 202  : 
; 203  : 			insert_local_entity_into_parents_child_list (en, LIST_TYPE_LANDING_SITE, raw->landing_site_link.parent, NULL);

  00111	6a 00		 push	 0
  00113	8b 45 f4	 mov	 eax, DWORD PTR _raw$[ebp]
  00116	8b 48 28	 mov	 ecx, DWORD PTR [eax+40]
  00119	51		 push	 ecx
  0011a	6a 17		 push	 23			; 00000017H
  0011c	8b 55 f8	 mov	 edx, DWORD PTR _en$[ebp]
  0011f	52		 push	 edx
  00120	e8 00 00 00 00	 call	 ?insert_local_entity_into_parents_child_list@@YGXPAUENTITY@@W4LIST_TYPES@@00@Z ; insert_local_entity_into_parents_child_list
$LN9@create_loc:

; 204  : 		}
; 205  : 
; 206  : 		#if LANDING_ROUTE_CHECK
; 207  : 
; 208  : 		insert_local_entity_into_parents_child_list (en, LIST_TYPE_UPDATE, get_update_entity (), NULL);

  00125	6a 00		 push	 0
  00127	a1 00 00 00 00	 mov	 eax, DWORD PTR ?update_entity@@3PAUENTITY@@A ; update_entity
  0012c	50		 push	 eax
  0012d	6a 29		 push	 41			; 00000029H
  0012f	8b 4d f8	 mov	 ecx, DWORD PTR _en$[ebp]
  00132	51		 push	 ecx
  00133	e8 00 00 00 00	 call	 ?insert_local_entity_into_parents_child_list@@YGXPAUENTITY@@W4LIST_TYPES@@00@Z ; insert_local_entity_into_parents_child_list

; 209  : 
; 210  : 		#endif
; 211  : 
; 212  : 		#if LANDING_KEYSITE_DEBUG_OUTPUT
; 213  : 
; 214  : 		if (get_local_entity_int_value (raw->landing_site_link.parent, INT_TYPE_ENTITY_SUB_TYPE) != ENTITY_SUB_TYPE_KEYSITE_FARP)
; 215  : 		{
; 216  : 			debug_filtered_log ("%d x %s", raw->total_landing_sites, entity_sub_type_landing_names [raw->sub_type]);
; 217  : 		}
; 218  : 
; 219  : 		#endif
; 220  : 
; 221  : 		////////////////////////////////////////
; 222  : 		//
; 223  : 		// CREATE SUB ENTITIES
; 224  : 		//
; 225  : 		////////////////////////////////////////
; 226  : 
; 227  : 		task = create_local_entity

  00138	6a 00		 push	 0
  0013a	8b 45 f4	 mov	 eax, DWORD PTR _raw$[ebp]
  0013d	f3 0f 10 40 0c	 movss	 xmm0, DWORD PTR [eax+12]
  00142	f3 0f 5a c0	 cvtss2sd xmm0, xmm0
  00146	83 ec 08	 sub	 esp, 8
  00149	f2 0f 11 04 24	 movsd	 QWORD PTR [esp], xmm0
  0014e	8b 4d f4	 mov	 ecx, DWORD PTR _raw$[ebp]
  00151	f3 0f 10 41 08	 movss	 xmm0, DWORD PTR [ecx+8]
  00156	f3 0f 5a c0	 cvtss2sd xmm0, xmm0
  0015a	83 ec 08	 sub	 esp, 8
  0015d	f2 0f 11 04 24	 movsd	 QWORD PTR [esp], xmm0
  00162	8b 55 f4	 mov	 edx, DWORD PTR _raw$[ebp]
  00165	f3 0f 10 42 04	 movss	 xmm0, DWORD PTR [edx+4]
  0016a	f3 0f 5a c0	 cvtss2sd xmm0, xmm0
  0016e	83 ec 08	 sub	 esp, 8
  00171	f2 0f 11 04 24	 movsd	 QWORD PTR [esp], xmm0
  00176	6a 08		 push	 8
  00178	6a 09		 push	 9
  0017a	6a 01		 push	 1
  0017c	68 e3 00 00 00	 push	 227			; 000000e3H
  00181	6a 05		 push	 5
  00183	6a 17		 push	 23			; 00000017H
  00185	6a 34		 push	 52			; 00000034H
  00187	6a 05		 push	 5
  00189	8b 45 f8	 mov	 eax, DWORD PTR _en$[ebp]
  0018c	50		 push	 eax
  0018d	6a 03		 push	 3
  0018f	6a 06		 push	 6
  00191	6a ff		 push	 -1
  00193	6a 22		 push	 34			; 00000022H
  00195	e8 00 00 00 00	 call	 ?create_local_entity@@YAPAUENTITY@@W4ENTITY_TYPES@@HZZ ; create_local_entity
  0019a	83 c4 50	 add	 esp, 80			; 00000050H
  0019d	89 45 fc	 mov	 DWORD PTR _task$[ebp], eax

; 228  : 		(
; 229  : 			ENTITY_TYPE_TASK,
; 230  : 			ENTITY_INDEX_DONT_CARE,
; 231  : 			ENTITY_ATTR_PARENT (LIST_TYPE_ASSIGNED_TASK, en),
; 232  : 			ENTITY_ATTR_INT_VALUE (INT_TYPE_ENTITY_SUB_TYPE, ENTITY_SUB_TYPE_TASK_TAKEOFF_HOLDING),
; 233  : 			ENTITY_ATTR_INT_VALUE (INT_TYPE_TASK_STATE, TASK_STATE_ASSIGNED),
; 234  : 			ENTITY_ATTR_VEC3D (VEC3D_TYPE_POSITION, raw->position.x, raw->position.y, raw->position.z),
; 235  : 			ENTITY_ATTR_END
; 236  : 		);
; 237  : 
; 238  : 		task = create_local_entity

  001a0	6a 00		 push	 0
  001a2	8b 45 f4	 mov	 eax, DWORD PTR _raw$[ebp]
  001a5	f3 0f 10 40 0c	 movss	 xmm0, DWORD PTR [eax+12]
  001aa	f3 0f 5a c0	 cvtss2sd xmm0, xmm0
  001ae	83 ec 08	 sub	 esp, 8
  001b1	f2 0f 11 04 24	 movsd	 QWORD PTR [esp], xmm0
  001b6	8b 4d f4	 mov	 ecx, DWORD PTR _raw$[ebp]
  001b9	f3 0f 10 41 08	 movss	 xmm0, DWORD PTR [ecx+8]
  001be	f3 0f 5a c0	 cvtss2sd xmm0, xmm0
  001c2	83 ec 08	 sub	 esp, 8
  001c5	f2 0f 11 04 24	 movsd	 QWORD PTR [esp], xmm0
  001ca	8b 55 f4	 mov	 edx, DWORD PTR _raw$[ebp]
  001cd	f3 0f 10 42 04	 movss	 xmm0, DWORD PTR [edx+4]
  001d2	f3 0f 5a c0	 cvtss2sd xmm0, xmm0
  001d6	83 ec 08	 sub	 esp, 8
  001d9	f2 0f 11 04 24	 movsd	 QWORD PTR [esp], xmm0
  001de	6a 08		 push	 8
  001e0	6a 09		 push	 9
  001e2	6a 01		 push	 1
  001e4	68 e3 00 00 00	 push	 227			; 000000e3H
  001e9	6a 05		 push	 5
  001eb	6a 0e		 push	 14			; 0000000eH
  001ed	6a 34		 push	 52			; 00000034H
  001ef	6a 05		 push	 5
  001f1	8b 45 f8	 mov	 eax, DWORD PTR _en$[ebp]
  001f4	50		 push	 eax
  001f5	6a 03		 push	 3
  001f7	6a 06		 push	 6
  001f9	6a ff		 push	 -1
  001fb	6a 22		 push	 34			; 00000022H
  001fd	e8 00 00 00 00	 call	 ?create_local_entity@@YAPAUENTITY@@W4ENTITY_TYPES@@HZZ ; create_local_entity
  00202	83 c4 50	 add	 esp, 80			; 00000050H
  00205	89 45 fc	 mov	 DWORD PTR _task$[ebp], eax

; 239  : 		(
; 240  : 			ENTITY_TYPE_TASK,
; 241  : 			ENTITY_INDEX_DONT_CARE,
; 242  : 			ENTITY_ATTR_PARENT (LIST_TYPE_ASSIGNED_TASK, en),
; 243  : 			ENTITY_ATTR_INT_VALUE (INT_TYPE_ENTITY_SUB_TYPE, ENTITY_SUB_TYPE_TASK_LANDING_HOLDING),
; 244  : 			ENTITY_ATTR_INT_VALUE (INT_TYPE_TASK_STATE, TASK_STATE_ASSIGNED),
; 245  : 			ENTITY_ATTR_VEC3D (VEC3D_TYPE_POSITION, raw->position.x, raw->position.y, raw->position.z),
; 246  : 			ENTITY_ATTR_END
; 247  : 		);
; 248  : 
; 249  : 		task = create_local_entity

  00208	6a 00		 push	 0
  0020a	8b 45 f4	 mov	 eax, DWORD PTR _raw$[ebp]
  0020d	f3 0f 10 40 0c	 movss	 xmm0, DWORD PTR [eax+12]
  00212	f3 0f 5a c0	 cvtss2sd xmm0, xmm0
  00216	83 ec 08	 sub	 esp, 8
  00219	f2 0f 11 04 24	 movsd	 QWORD PTR [esp], xmm0
  0021e	8b 4d f4	 mov	 ecx, DWORD PTR _raw$[ebp]
  00221	f3 0f 10 41 08	 movss	 xmm0, DWORD PTR [ecx+8]
  00226	f3 0f 5a c0	 cvtss2sd xmm0, xmm0
  0022a	83 ec 08	 sub	 esp, 8
  0022d	f2 0f 11 04 24	 movsd	 QWORD PTR [esp], xmm0
  00232	8b 55 f4	 mov	 edx, DWORD PTR _raw$[ebp]
  00235	f3 0f 10 42 04	 movss	 xmm0, DWORD PTR [edx+4]
  0023a	f3 0f 5a c0	 cvtss2sd xmm0, xmm0
  0023e	83 ec 08	 sub	 esp, 8
  00241	f2 0f 11 04 24	 movsd	 QWORD PTR [esp], xmm0
  00246	6a 08		 push	 8
  00248	6a 09		 push	 9
  0024a	6a 01		 push	 1
  0024c	68 e3 00 00 00	 push	 227			; 000000e3H
  00251	6a 05		 push	 5
  00253	6a 16		 push	 22			; 00000016H
  00255	6a 34		 push	 52			; 00000034H
  00257	6a 05		 push	 5
  00259	8b 45 f8	 mov	 eax, DWORD PTR _en$[ebp]
  0025c	50		 push	 eax
  0025d	6a 03		 push	 3
  0025f	6a 06		 push	 6
  00261	6a ff		 push	 -1
  00263	6a 22		 push	 34			; 00000022H
  00265	e8 00 00 00 00	 call	 ?create_local_entity@@YAPAUENTITY@@W4ENTITY_TYPES@@HZZ ; create_local_entity
  0026a	83 c4 50	 add	 esp, 80			; 00000050H
  0026d	89 45 fc	 mov	 DWORD PTR _task$[ebp], eax

; 250  : 		(
; 251  : 			ENTITY_TYPE_TASK,
; 252  : 			ENTITY_INDEX_DONT_CARE,
; 253  : 			ENTITY_ATTR_PARENT (LIST_TYPE_ASSIGNED_TASK, en),
; 254  : 			ENTITY_ATTR_INT_VALUE (INT_TYPE_ENTITY_SUB_TYPE, ENTITY_SUB_TYPE_TASK_TAKEOFF),
; 255  : 			ENTITY_ATTR_INT_VALUE (INT_TYPE_TASK_STATE, TASK_STATE_ASSIGNED),
; 256  : 			ENTITY_ATTR_VEC3D (VEC3D_TYPE_POSITION, raw->position.x, raw->position.y, raw->position.z),
; 257  : 			ENTITY_ATTR_END
; 258  : 		);
; 259  : 
; 260  : 		task = create_local_entity

  00270	6a 00		 push	 0
  00272	8b 45 f4	 mov	 eax, DWORD PTR _raw$[ebp]
  00275	f3 0f 10 40 0c	 movss	 xmm0, DWORD PTR [eax+12]
  0027a	f3 0f 5a c0	 cvtss2sd xmm0, xmm0
  0027e	83 ec 08	 sub	 esp, 8
  00281	f2 0f 11 04 24	 movsd	 QWORD PTR [esp], xmm0
  00286	8b 4d f4	 mov	 ecx, DWORD PTR _raw$[ebp]
  00289	f3 0f 10 41 08	 movss	 xmm0, DWORD PTR [ecx+8]
  0028e	f3 0f 5a c0	 cvtss2sd xmm0, xmm0
  00292	83 ec 08	 sub	 esp, 8
  00295	f2 0f 11 04 24	 movsd	 QWORD PTR [esp], xmm0
  0029a	8b 55 f4	 mov	 edx, DWORD PTR _raw$[ebp]
  0029d	f3 0f 10 42 04	 movss	 xmm0, DWORD PTR [edx+4]
  002a2	f3 0f 5a c0	 cvtss2sd xmm0, xmm0
  002a6	83 ec 08	 sub	 esp, 8
  002a9	f2 0f 11 04 24	 movsd	 QWORD PTR [esp], xmm0
  002ae	6a 08		 push	 8
  002b0	6a 09		 push	 9
  002b2	6a 01		 push	 1
  002b4	68 e3 00 00 00	 push	 227			; 000000e3H
  002b9	6a 05		 push	 5
  002bb	6a 0d		 push	 13			; 0000000dH
  002bd	6a 34		 push	 52			; 00000034H
  002bf	6a 05		 push	 5
  002c1	8b 45 f8	 mov	 eax, DWORD PTR _en$[ebp]
  002c4	50		 push	 eax
  002c5	6a 03		 push	 3
  002c7	6a 06		 push	 6
  002c9	6a ff		 push	 -1
  002cb	6a 22		 push	 34			; 00000022H
  002cd	e8 00 00 00 00	 call	 ?create_local_entity@@YAPAUENTITY@@W4ENTITY_TYPES@@HZZ ; create_local_entity
  002d2	83 c4 50	 add	 esp, 80			; 00000050H
  002d5	89 45 fc	 mov	 DWORD PTR _task$[ebp], eax
$LN5@create_loc:

; 261  : 		(
; 262  : 			ENTITY_TYPE_TASK,
; 263  : 			ENTITY_INDEX_DONT_CARE,
; 264  : 			ENTITY_ATTR_PARENT (LIST_TYPE_ASSIGNED_TASK, en),
; 265  : 			ENTITY_ATTR_INT_VALUE (INT_TYPE_ENTITY_SUB_TYPE, ENTITY_SUB_TYPE_TASK_LANDING),
; 266  : 			ENTITY_ATTR_INT_VALUE (INT_TYPE_TASK_STATE, TASK_STATE_ASSIGNED),
; 267  : 			ENTITY_ATTR_VEC3D (VEC3D_TYPE_POSITION, raw->position.x, raw->position.y, raw->position.z),
; 268  : 			ENTITY_ATTR_END
; 269  : 		);
; 270  : 	}
; 271  : 
; 272  : 	return (en);

  002d8	8b 45 f8	 mov	 eax, DWORD PTR _en$[ebp]

; 273  : }

  002db	5f		 pop	 edi
  002dc	5e		 pop	 esi
  002dd	5b		 pop	 ebx
  002de	8b e5		 mov	 esp, ebp
  002e0	5d		 pop	 ebp
  002e1	c2 0c 00	 ret	 12			; 0000000cH
?create_local@@YGPAUENTITY@@W4ENTITY_TYPES@@HPAD@Z ENDP	; create_local
_TEXT	ENDS
; Function compile flags: /Odtp /ZI
; File c:\users\nhv90\projects\eech\aphavoc\source\entity\special\landing\ld_creat.c
;	COMDAT ?overload_landing_create_functions@@YGXXZ
_TEXT	SEGMENT
?overload_landing_create_functions@@YGXXZ PROC		; overload_landing_create_functions, COMDAT

; 347  : {

  00000	55		 push	 ebp
  00001	8b ec		 mov	 ebp, esp
  00003	83 ec 40	 sub	 esp, 64			; 00000040H
  00006	53		 push	 ebx
  00007	56		 push	 esi
  00008	57		 push	 edi

; 348  : 	fn_create_local_entity[ENTITY_TYPE_LANDING]										= create_local;

  00009	b8 04 00 00 00	 mov	 eax, 4
  0000e	c1 e0 04	 shl	 eax, 4
  00011	c7 80 00 00 00
	00 00 00 00 00	 mov	 DWORD PTR ?fn_create_local_entity@@3PAP6GPAUENTITY@@W4ENTITY_TYPES@@HPAD@ZA[eax], OFFSET ?create_local@@YGPAUENTITY@@W4ENTITY_TYPES@@HPAD@Z ; create_local

; 349  : 
; 350  : 	fn_create_client_server_entity[ENTITY_TYPE_LANDING][COMMS_MODEL_SERVER]	= create_server;

  0001b	b8 08 00 00 00	 mov	 eax, 8
  00020	c1 e0 04	 shl	 eax, 4
  00023	b9 04 00 00 00	 mov	 ecx, 4
  00028	6b d1 00	 imul	 edx, ecx, 0
  0002b	c7 84 10 00 00
	00 00 00 00 00
	00		 mov	 DWORD PTR ?fn_create_client_server_entity@@3PAY01P6GPAUENTITY@@W4ENTITY_TYPES@@HPAD@ZA[eax+edx], OFFSET ?create_server@@YGPAUENTITY@@W4ENTITY_TYPES@@HPAD@Z ; create_server

; 351  : 
; 352  : 	fn_create_client_server_entity[ENTITY_TYPE_LANDING][COMMS_MODEL_CLIENT]	= create_client;

  00036	b8 08 00 00 00	 mov	 eax, 8
  0003b	c1 e0 04	 shl	 eax, 4
  0003e	b9 04 00 00 00	 mov	 ecx, 4
  00043	c1 e1 00	 shl	 ecx, 0
  00046	c7 84 08 00 00
	00 00 00 00 00
	00		 mov	 DWORD PTR ?fn_create_client_server_entity@@3PAY01P6GPAUENTITY@@W4ENTITY_TYPES@@HPAD@ZA[eax+ecx], OFFSET ?create_client@@YGPAUENTITY@@W4ENTITY_TYPES@@HPAD@Z ; create_client

; 353  : }

  00051	5f		 pop	 edi
  00052	5e		 pop	 esi
  00053	5b		 pop	 ebx
  00054	8b e5		 mov	 esp, ebp
  00056	5d		 pop	 ebp
  00057	c3		 ret	 0
?overload_landing_create_functions@@YGXXZ ENDP		; overload_landing_create_functions
_TEXT	ENDS
END
