; Listing generated by Microsoft (R) Optimizing Compiler Version 19.16.27045.0 

	TITLE	C:\Users\nhv90\Projects\eech\aphavoc\source\entity\special\landing\ld_dstry.c
	.686P
	.XMM
	include listing.inc
	.model	flat

INCLUDELIB MSVCRTD
INCLUDELIB OLDNAMES

PUBLIC	?overload_landing_destroy_functions@@YGXXZ	; overload_landing_destroy_functions
PUBLIC	?__LINE__Var@?0??destroy_local@@YGXPAUENTITY@@@Z@4JA ; `destroy_local'::`1'::__LINE__Var
PUBLIC	??_C@_0EO@KNFEENGK@c?3?2users?2nhv90?2projects?2eech?2ap@ ; `string'
PUBLIC	??_C@_0CF@DOFEMKPA@?$CBraw?9?$DOassigned_task_root?4first_@ ; `string'
PUBLIC	?__LINE__Var@?0??destroy_server@@YGXPAUENTITY@@@Z@4JA ; `destroy_server'::`1'::__LINE__Var
PUBLIC	??_C@_0CC@BNNNEGEG@assert_client_server_remote_fn?5@ ; `string'
PUBLIC	??_C@_0CB@CFOCLFOK@assert_client_server_local_fn?5?$CI@ ; `string'
PUBLIC	?__LINE__Var@?0??destroy_client@@YGXPAUENTITY@@@Z@4JA ; `destroy_client'::`1'::__LINE__Var
PUBLIC	?__LINE__Var@?0??destroy_server_family@@YGXPAUENTITY@@@Z@4JA ; `destroy_server_family'::`1'::__LINE__Var
EXTRN	?process_assert@@YGXPBD0H@Z:PROC		; process_assert
EXTRN	?free_mem@@YGXPAX@Z:PROC			; free_mem
EXTRN	?delete_local_entity_from_parents_child_list@@YGXPAUENTITY@@W4LIST_TYPES@@@Z:PROC ; delete_local_entity_from_parents_child_list
EXTRN	?unlink_local_entity_children@@YGXPAUENTITY@@W4LIST_TYPES@@@Z:PROC ; unlink_local_entity_children
EXTRN	?destroy_local_entity@@YGXPAUENTITY@@@Z:PROC	; destroy_local_entity
EXTRN	?destroy_local_entity_children@@YGXPAUENTITY@@W4LIST_TYPES@@@Z:PROC ; destroy_local_entity_children
EXTRN	?destroy_client_server_entity_children@@YGXPAUENTITY@@W4LIST_TYPES@@@Z:PROC ; destroy_client_server_entity_children
EXTRN	?transmit_entity_comms_message@@YAXW4ENTITY_COMMS_MESSAGES@@PAUENTITY@@ZZ:PROC ; transmit_entity_comms_message
EXTRN	?assert_client_server_local_fn@@YGHXZ:PROC	; assert_client_server_local_fn
EXTRN	?assert_client_server_remote_fn@@YGHXZ:PROC	; assert_client_server_remote_fn
EXTRN	?set_free_entity@@YGXPAUENTITY@@@Z:PROC		; set_free_entity
EXTRN	?null_entity_pointer_message@@3PBDB:DWORD	; null_entity_pointer_message
EXTRN	?system_comms_model@@3W4COMMS_MODEL_TYPES@@A:DWORD ; system_comms_model
EXTRN	?system_comms_data_flow@@3W4COMMS_DATA_FLOW_TYPES@@A:DWORD ; system_comms_data_flow
EXTRN	?fn_destroy_local_entity@@3PAP6GXPAUENTITY@@@ZA:BYTE ; fn_destroy_local_entity
EXTRN	?fn_destroy_client_server_entity@@3PAY01P6GXPAUENTITY@@@ZA:BYTE ; fn_destroy_client_server_entity
EXTRN	?fn_destroy_local_entity_family@@3PAP6GXPAUENTITY@@@ZA:BYTE ; fn_destroy_local_entity_family
EXTRN	?fn_destroy_client_server_entity_family@@3PAY01P6GXPAUENTITY@@@ZA:BYTE ; fn_destroy_client_server_entity_family
EXTRN	?fn_kill_local_entity@@3PAP6GXPAUENTITY@@@ZA:BYTE ; fn_kill_local_entity
EXTRN	?fn_kill_client_server_entity@@3PAY01P6GXPAUENTITY@@@ZA:BYTE ; fn_kill_client_server_entity
;	COMDAT ?__LINE__Var@?0??destroy_server_family@@YGXPAUENTITY@@@Z@4JA
_DATA	SEGMENT
?__LINE__Var@?0??destroy_server_family@@YGXPAUENTITY@@@Z@4JA DD 0dcH ; `destroy_server_family'::`1'::__LINE__Var
_DATA	ENDS
;	COMDAT ?__LINE__Var@?0??destroy_client@@YGXPAUENTITY@@@Z@4JA
_DATA	SEGMENT
?__LINE__Var@?0??destroy_client@@YGXPAUENTITY@@@Z@4JA DD 0b8H ; `destroy_client'::`1'::__LINE__Var
_DATA	ENDS
;	COMDAT ??_C@_0CB@CFOCLFOK@assert_client_server_local_fn?5?$CI@
CONST	SEGMENT
??_C@_0CB@CFOCLFOK@assert_client_server_local_fn?5?$CI@ DB 'assert_client'
	DB	'_server_local_fn ()', 00H			; `string'
CONST	ENDS
;	COMDAT ??_C@_0CC@BNNNEGEG@assert_client_server_remote_fn?5@
CONST	SEGMENT
??_C@_0CC@BNNNEGEG@assert_client_server_remote_fn?5@ DB 'assert_client_se'
	DB	'rver_remote_fn ()', 00H			; `string'
CONST	ENDS
;	COMDAT ?__LINE__Var@?0??destroy_server@@YGXPAUENTITY@@@Z@4JA
_DATA	SEGMENT
?__LINE__Var@?0??destroy_server@@YGXPAUENTITY@@@Z@4JA DD 0a1H ; `destroy_server'::`1'::__LINE__Var
_DATA	ENDS
;	COMDAT ??_C@_0CF@DOFEMKPA@?$CBraw?9?$DOassigned_task_root?4first_@
CONST	SEGMENT
??_C@_0CF@DOFEMKPA@?$CBraw?9?$DOassigned_task_root?4first_@ DB '!raw->ass'
	DB	'igned_task_root.first_child', 00H		; `string'
CONST	ENDS
;	COMDAT ??_C@_0EO@KNFEENGK@c?3?2users?2nhv90?2projects?2eech?2ap@
CONST	SEGMENT
??_C@_0EO@KNFEENGK@c?3?2users?2nhv90?2projects?2eech?2ap@ DB 'c:\users\nh'
	DB	'v90\projects\eech\aphavoc\source\entity\special\landing\ld_ds'
	DB	'try.c', 00H					; `string'
CONST	ENDS
;	COMDAT ?__LINE__Var@?0??destroy_local@@YGXPAUENTITY@@@Z@4JA
_DATA	SEGMENT
?__LINE__Var@?0??destroy_local@@YGXPAUENTITY@@@Z@4JA DD 050H ; `destroy_local'::`1'::__LINE__Var
_DATA	ENDS
; Function compile flags: /Odtp /ZI
; File c:\users\nhv90\projects\eech\aphavoc\source\entity\special\landing\ld_dstry.c
;	COMDAT ?destroy_client_family@@YGXPAUENTITY@@@Z
_TEXT	SEGMENT
_en$ = 8						; size = 4
?destroy_client_family@@YGXPAUENTITY@@@Z PROC		; destroy_client_family, COMDAT

; 232  : {

  00000	55		 push	 ebp
  00001	8b ec		 mov	 ebp, esp
  00003	83 ec 40	 sub	 esp, 64			; 00000040H
  00006	53		 push	 ebx
  00007	56		 push	 esi
  00008	57		 push	 edi

; 233  : 	#if DEBUG_MODULE
; 234  : 
; 235  : 	debug_log_entity_args (ENTITY_DEBUG_REMOTE, ENTITY_DEBUG_DESTROY_FAMILY, en);
; 236  : 
; 237  : 	#endif
; 238  : 
; 239  : 	transmit_entity_comms_message (ENTITY_COMMS_DESTROY_FAMILY, en);

  00009	8b 45 08	 mov	 eax, DWORD PTR _en$[ebp]
  0000c	50		 push	 eax
  0000d	6a 13		 push	 19			; 00000013H
  0000f	e8 00 00 00 00	 call	 ?transmit_entity_comms_message@@YAXW4ENTITY_COMMS_MESSAGES@@PAUENTITY@@ZZ ; transmit_entity_comms_message
  00014	83 c4 08	 add	 esp, 8

; 240  : }

  00017	5f		 pop	 edi
  00018	5e		 pop	 esi
  00019	5b		 pop	 ebx
  0001a	8b e5		 mov	 esp, ebp
  0001c	5d		 pop	 ebp
  0001d	c2 04 00	 ret	 4
?destroy_client_family@@YGXPAUENTITY@@@Z ENDP		; destroy_client_family
_TEXT	ENDS
; Function compile flags: /Odtp /ZI
; File c:\users\nhv90\projects\eech\aphavoc\source\entity\special\landing\ld_dstry.c
;	COMDAT ?destroy_server_family@@YGXPAUENTITY@@@Z
_TEXT	SEGMENT
tv72 = -68						; size = 4
_en$ = 8						; size = 4
?destroy_server_family@@YGXPAUENTITY@@@Z PROC		; destroy_server_family, COMDAT

; 220  : {

  00000	55		 push	 ebp
  00001	8b ec		 mov	 ebp, esp
  00003	83 ec 44	 sub	 esp, 68			; 00000044H
  00006	53		 push	 ebx
  00007	56		 push	 esi
  00008	57		 push	 edi

; 221  : 
; 222  : 	destroy_client_server_entity_children (en, LIST_TYPE_ASSIGNED_TASK);

  00009	6a 03		 push	 3
  0000b	8b 45 08	 mov	 eax, DWORD PTR _en$[ebp]
  0000e	50		 push	 eax
  0000f	e8 00 00 00 00	 call	 ?destroy_client_server_entity_children@@YGXPAUENTITY@@W4LIST_TYPES@@@Z ; destroy_client_server_entity_children

; 223  : 
; 224  : 	destroy_client_server_entity (en);

  00014	83 7d 08 00	 cmp	 DWORD PTR _en$[ebp], 0
  00018	74 0a		 je	 SHORT $LN3@destroy_se
  0001a	8b 45 08	 mov	 eax, DWORD PTR _en$[ebp]
  0001d	8b 08		 mov	 ecx, DWORD PTR [eax]
  0001f	89 4d bc	 mov	 DWORD PTR tv72[ebp], ecx
  00022	eb 21		 jmp	 SHORT $LN4@destroy_se
$LN3@destroy_se:
  00024	8b 15 00 00 00
	00		 mov	 edx, DWORD PTR ?__LINE__Var@?0??destroy_server_family@@YGXPAUENTITY@@@Z@4JA
  0002a	83 c2 04	 add	 edx, 4
  0002d	52		 push	 edx
  0002e	68 00 00 00 00	 push	 OFFSET ??_C@_0EO@KNFEENGK@c?3?2users?2nhv90?2projects?2eech?2ap@
  00033	a1 00 00 00 00	 mov	 eax, DWORD PTR ?null_entity_pointer_message@@3PBDB ; null_entity_pointer_message
  00038	50		 push	 eax
  00039	e8 00 00 00 00	 call	 ?process_assert@@YGXPBD0H@Z ; process_assert
  0003e	c7 45 bc 00 00
	00 00		 mov	 DWORD PTR tv72[ebp], 0
$LN4@destroy_se:
  00045	8b 4d 08	 mov	 ecx, DWORD PTR _en$[ebp]
  00048	51		 push	 ecx
  00049	8b 15 00 00 00
	00		 mov	 edx, DWORD PTR ?system_comms_model@@3W4COMMS_MODEL_TYPES@@A ; system_comms_model
  0004f	c1 e2 02	 shl	 edx, 2
  00052	8b 45 bc	 mov	 eax, DWORD PTR tv72[ebp]
  00055	8b 8c c2 00 00
	00 00		 mov	 ecx, DWORD PTR ?fn_destroy_client_server_entity@@3PAY01P6GXPAUENTITY@@@ZA[edx+eax*8]
  0005c	ff d1		 call	 ecx

; 225  : }

  0005e	5f		 pop	 edi
  0005f	5e		 pop	 esi
  00060	5b		 pop	 ebx
  00061	8b e5		 mov	 esp, ebp
  00063	5d		 pop	 ebp
  00064	c2 04 00	 ret	 4
?destroy_server_family@@YGXPAUENTITY@@@Z ENDP		; destroy_server_family
_TEXT	ENDS
; Function compile flags: /Odtp /ZI
; File c:\users\nhv90\projects\eech\aphavoc\source\entity\special\landing\ld_dstry.c
;	COMDAT ?destroy_local_family@@YGXPAUENTITY@@@Z
_TEXT	SEGMENT
_en$ = 8						; size = 4
?destroy_local_family@@YGXPAUENTITY@@@Z PROC		; destroy_local_family, COMDAT

; 208  : {

  00000	55		 push	 ebp
  00001	8b ec		 mov	 ebp, esp
  00003	83 ec 40	 sub	 esp, 64			; 00000040H
  00006	53		 push	 ebx
  00007	56		 push	 esi
  00008	57		 push	 edi

; 209  : 
; 210  : 	destroy_local_entity_children (en, LIST_TYPE_ASSIGNED_TASK);

  00009	6a 03		 push	 3
  0000b	8b 45 08	 mov	 eax, DWORD PTR _en$[ebp]
  0000e	50		 push	 eax
  0000f	e8 00 00 00 00	 call	 ?destroy_local_entity_children@@YGXPAUENTITY@@W4LIST_TYPES@@@Z ; destroy_local_entity_children

; 211  : 
; 212  : 	destroy_local_entity (en);

  00014	8b 45 08	 mov	 eax, DWORD PTR _en$[ebp]
  00017	50		 push	 eax
  00018	e8 00 00 00 00	 call	 ?destroy_local_entity@@YGXPAUENTITY@@@Z ; destroy_local_entity

; 213  : }

  0001d	5f		 pop	 edi
  0001e	5e		 pop	 esi
  0001f	5b		 pop	 ebx
  00020	8b e5		 mov	 esp, ebp
  00022	5d		 pop	 ebp
  00023	c2 04 00	 ret	 4
?destroy_local_family@@YGXPAUENTITY@@@Z ENDP		; destroy_local_family
_TEXT	ENDS
; Function compile flags: /Odtp /ZI
; File c:\users\nhv90\projects\eech\aphavoc\source\entity\special\landing\ld_dstry.c
;	COMDAT ?destroy_client@@YGXPAUENTITY@@@Z
_TEXT	SEGMENT
_en$ = 8						; size = 4
?destroy_client@@YGXPAUENTITY@@@Z PROC			; destroy_client, COMDAT

; 184  : {

  00000	55		 push	 ebp
  00001	8b ec		 mov	 ebp, esp
  00003	83 ec 40	 sub	 esp, 64			; 00000040H
  00006	53		 push	 ebx
  00007	56		 push	 esi
  00008	57		 push	 edi

; 185  : 	if (get_comms_data_flow () == COMMS_DATA_FLOW_TX)

  00009	83 3d 00 00 00
	00 00		 cmp	 DWORD PTR ?system_comms_data_flow@@3W4COMMS_DATA_FLOW_TYPES@@A, 0 ; system_comms_data_flow
  00010	75 2c		 jne	 SHORT $LN2@destroy_cl

; 186  : 	{
; 187  : 		validate_client_server_remote_fn ();

  00012	e8 00 00 00 00	 call	 ?assert_client_server_remote_fn@@YGHXZ ; assert_client_server_remote_fn
  00017	85 c0		 test	 eax, eax
  00019	75 18		 jne	 SHORT $LN4@destroy_cl
  0001b	a1 00 00 00 00	 mov	 eax, DWORD PTR ?__LINE__Var@?0??destroy_client@@YGXPAUENTITY@@@Z@4JA
  00020	83 c0 03	 add	 eax, 3
  00023	50		 push	 eax
  00024	68 00 00 00 00	 push	 OFFSET ??_C@_0EO@KNFEENGK@c?3?2users?2nhv90?2projects?2eech?2ap@
  00029	68 00 00 00 00	 push	 OFFSET ??_C@_0CC@BNNNEGEG@assert_client_server_remote_fn?5@
  0002e	e8 00 00 00 00	 call	 ?process_assert@@YGXPBD0H@Z ; process_assert
$LN4@destroy_cl:

; 188  : 
; 189  : 		destroy_remote (en);

  00033	8b 45 08	 mov	 eax, DWORD PTR _en$[ebp]
  00036	50		 push	 eax
  00037	e8 00 00 00 00	 call	 ?destroy_remote@@YGXPAUENTITY@@@Z ; destroy_remote

; 190  : 	}
; 191  : 	else

  0003c	eb 2a		 jmp	 SHORT $LN1@destroy_cl
$LN2@destroy_cl:

; 192  : 	{
; 193  : 		validate_client_server_local_fn ();

  0003e	e8 00 00 00 00	 call	 ?assert_client_server_local_fn@@YGHXZ ; assert_client_server_local_fn
  00043	85 c0		 test	 eax, eax
  00045	75 18		 jne	 SHORT $LN5@destroy_cl
  00047	a1 00 00 00 00	 mov	 eax, DWORD PTR ?__LINE__Var@?0??destroy_client@@YGXPAUENTITY@@@Z@4JA
  0004c	83 c0 09	 add	 eax, 9
  0004f	50		 push	 eax
  00050	68 00 00 00 00	 push	 OFFSET ??_C@_0EO@KNFEENGK@c?3?2users?2nhv90?2projects?2eech?2ap@
  00055	68 00 00 00 00	 push	 OFFSET ??_C@_0CB@CFOCLFOK@assert_client_server_local_fn?5?$CI@
  0005a	e8 00 00 00 00	 call	 ?process_assert@@YGXPBD0H@Z ; process_assert
$LN5@destroy_cl:

; 194  : 
; 195  : 		//
; 196  : 		// destroy local using 'full' function
; 197  : 		//
; 198  : 
; 199  : 		destroy_local_entity (en);

  0005f	8b 45 08	 mov	 eax, DWORD PTR _en$[ebp]
  00062	50		 push	 eax
  00063	e8 00 00 00 00	 call	 ?destroy_local_entity@@YGXPAUENTITY@@@Z ; destroy_local_entity
$LN1@destroy_cl:

; 200  : 	}
; 201  : }

  00068	5f		 pop	 edi
  00069	5e		 pop	 esi
  0006a	5b		 pop	 ebx
  0006b	8b e5		 mov	 esp, ebp
  0006d	5d		 pop	 ebp
  0006e	c2 04 00	 ret	 4
?destroy_client@@YGXPAUENTITY@@@Z ENDP			; destroy_client
_TEXT	ENDS
; Function compile flags: /Odtp /ZI
; File c:\users\nhv90\projects\eech\aphavoc\source\entity\special\landing\ld_dstry.c
;	COMDAT ?destroy_server@@YGXPAUENTITY@@@Z
_TEXT	SEGMENT
_en$ = 8						; size = 4
?destroy_server@@YGXPAUENTITY@@@Z PROC			; destroy_server, COMDAT

; 161  : {

  00000	55		 push	 ebp
  00001	8b ec		 mov	 ebp, esp
  00003	83 ec 40	 sub	 esp, 64			; 00000040H
  00006	53		 push	 ebx
  00007	56		 push	 esi
  00008	57		 push	 edi

; 162  : 	//
; 163  : 	// destroy remote entity first (keeping local entity valid)
; 164  : 	//
; 165  : 
; 166  : 	validate_client_server_remote_fn ();

  00009	e8 00 00 00 00	 call	 ?assert_client_server_remote_fn@@YGHXZ ; assert_client_server_remote_fn
  0000e	85 c0		 test	 eax, eax
  00010	75 18		 jne	 SHORT $LN2@destroy_se
  00012	a1 00 00 00 00	 mov	 eax, DWORD PTR ?__LINE__Var@?0??destroy_server@@YGXPAUENTITY@@@Z@4JA
  00017	83 c0 05	 add	 eax, 5
  0001a	50		 push	 eax
  0001b	68 00 00 00 00	 push	 OFFSET ??_C@_0EO@KNFEENGK@c?3?2users?2nhv90?2projects?2eech?2ap@
  00020	68 00 00 00 00	 push	 OFFSET ??_C@_0CC@BNNNEGEG@assert_client_server_remote_fn?5@
  00025	e8 00 00 00 00	 call	 ?process_assert@@YGXPBD0H@Z ; process_assert
$LN2@destroy_se:

; 167  : 
; 168  : 	destroy_remote (en);

  0002a	8b 45 08	 mov	 eax, DWORD PTR _en$[ebp]
  0002d	50		 push	 eax
  0002e	e8 00 00 00 00	 call	 ?destroy_remote@@YGXPAUENTITY@@@Z ; destroy_remote

; 169  : 
; 170  : 	validate_client_server_local_fn ();

  00033	e8 00 00 00 00	 call	 ?assert_client_server_local_fn@@YGHXZ ; assert_client_server_local_fn
  00038	85 c0		 test	 eax, eax
  0003a	75 18		 jne	 SHORT $LN3@destroy_se
  0003c	a1 00 00 00 00	 mov	 eax, DWORD PTR ?__LINE__Var@?0??destroy_server@@YGXPAUENTITY@@@Z@4JA
  00041	83 c0 09	 add	 eax, 9
  00044	50		 push	 eax
  00045	68 00 00 00 00	 push	 OFFSET ??_C@_0EO@KNFEENGK@c?3?2users?2nhv90?2projects?2eech?2ap@
  0004a	68 00 00 00 00	 push	 OFFSET ??_C@_0CB@CFOCLFOK@assert_client_server_local_fn?5?$CI@
  0004f	e8 00 00 00 00	 call	 ?process_assert@@YGXPBD0H@Z ; process_assert
$LN3@destroy_se:

; 171  : 
; 172  : 	//
; 173  : 	// destroy local using 'full' function
; 174  : 	//
; 175  : 
; 176  : 	destroy_local_entity (en);

  00054	8b 45 08	 mov	 eax, DWORD PTR _en$[ebp]
  00057	50		 push	 eax
  00058	e8 00 00 00 00	 call	 ?destroy_local_entity@@YGXPAUENTITY@@@Z ; destroy_local_entity

; 177  : }

  0005d	5f		 pop	 edi
  0005e	5e		 pop	 esi
  0005f	5b		 pop	 ebx
  00060	8b e5		 mov	 esp, ebp
  00062	5d		 pop	 ebp
  00063	c2 04 00	 ret	 4
?destroy_server@@YGXPAUENTITY@@@Z ENDP			; destroy_server
_TEXT	ENDS
; Function compile flags: /Odtp /ZI
; File c:\users\nhv90\projects\eech\aphavoc\source\entity\special\landing\ld_dstry.c
;	COMDAT ?destroy_remote@@YGXPAUENTITY@@@Z
_TEXT	SEGMENT
_en$ = 8						; size = 4
?destroy_remote@@YGXPAUENTITY@@@Z PROC			; destroy_remote, COMDAT

; 146  : {

  00000	55		 push	 ebp
  00001	8b ec		 mov	 ebp, esp
  00003	83 ec 40	 sub	 esp, 64			; 00000040H
  00006	53		 push	 ebx
  00007	56		 push	 esi
  00008	57		 push	 edi

; 147  : 	#if DEBUG_MODULE
; 148  : 
; 149  : 	debug_log_entity_args (ENTITY_DEBUG_REMOTE, ENTITY_DEBUG_DESTROY, en);
; 150  : 
; 151  : 	#endif
; 152  : 
; 153  : 	transmit_entity_comms_message (ENTITY_COMMS_DESTROY, en);

  00009	8b 45 08	 mov	 eax, DWORD PTR _en$[ebp]
  0000c	50		 push	 eax
  0000d	6a 12		 push	 18			; 00000012H
  0000f	e8 00 00 00 00	 call	 ?transmit_entity_comms_message@@YAXW4ENTITY_COMMS_MESSAGES@@PAUENTITY@@ZZ ; transmit_entity_comms_message
  00014	83 c4 08	 add	 esp, 8

; 154  : }

  00017	5f		 pop	 edi
  00018	5e		 pop	 esi
  00019	5b		 pop	 ebx
  0001a	8b e5		 mov	 esp, ebp
  0001c	5d		 pop	 ebp
  0001d	c2 04 00	 ret	 4
?destroy_remote@@YGXPAUENTITY@@@Z ENDP			; destroy_remote
_TEXT	ENDS
; Function compile flags: /Odtp /ZI
; File c:\users\nhv90\projects\eech\aphavoc\source\entity\special\landing\ld_dstry.c
;	COMDAT ?destroy_local@@YGXPAUENTITY@@@Z
_TEXT	SEGMENT
_raw$ = -4						; size = 4
_en$ = 8						; size = 4
?destroy_local@@YGXPAUENTITY@@@Z PROC			; destroy_local, COMDAT

; 80   : {

  00000	55		 push	 ebp
  00001	8b ec		 mov	 ebp, esp
  00003	83 ec 44	 sub	 esp, 68			; 00000044H
  00006	53		 push	 ebx
  00007	56		 push	 esi
  00008	57		 push	 edi

; 81   : 	landing
; 82   : 		*raw;
; 83   : 
; 84   : 	////////////////////////////////////////
; 85   : 	//
; 86   : 	// PRE-AMBLE
; 87   : 	//
; 88   : 	////////////////////////////////////////
; 89   : 
; 90   : 	#if DEBUG_MODULE
; 91   : 
; 92   : 	debug_log_entity_args (ENTITY_DEBUG_LOCAL, ENTITY_DEBUG_DESTROY, en);
; 93   : 
; 94   : 	#endif
; 95   : 
; 96   : 	raw = (landing *) get_local_entity_data (en);

  00009	8b 45 08	 mov	 eax, DWORD PTR _en$[ebp]
  0000c	8b 48 04	 mov	 ecx, DWORD PTR [eax+4]
  0000f	89 4d fc	 mov	 DWORD PTR _raw$[ebp], ecx

; 97   : 
; 98   : 	////////////////////////////////////////
; 99   : 	//
; 100  : 	// VALIDATE
; 101  : 	//
; 102  : 	////////////////////////////////////////
; 103  : 
; 104  : 	ASSERT (!raw->assigned_task_root.first_child);

  00012	8b 45 fc	 mov	 eax, DWORD PTR _raw$[ebp]
  00015	83 78 14 00	 cmp	 DWORD PTR [eax+20], 0
  00019	74 18		 je	 SHORT $LN2@destroy_lo
  0001b	a1 00 00 00 00	 mov	 eax, DWORD PTR ?__LINE__Var@?0??destroy_local@@YGXPAUENTITY@@@Z@4JA
  00020	83 c0 18	 add	 eax, 24			; 00000018H
  00023	50		 push	 eax
  00024	68 00 00 00 00	 push	 OFFSET ??_C@_0EO@KNFEENGK@c?3?2users?2nhv90?2projects?2eech?2ap@
  00029	68 00 00 00 00	 push	 OFFSET ??_C@_0CF@DOFEMKPA@?$CBraw?9?$DOassigned_task_root?4first_@
  0002e	e8 00 00 00 00	 call	 ?process_assert@@YGXPBD0H@Z ; process_assert
$LN2@destroy_lo:

; 105  : 
; 106  : 	////////////////////////////////////////
; 107  : 	//
; 108  : 	// DESTROY COMPONENTS
; 109  : 	//
; 110  : 	////////////////////////////////////////
; 111  : 
; 112  : 	////////////////////////////////////////
; 113  : 	//
; 114  : 	// UNLINK FROM SYSTEM
; 115  : 	//
; 116  : 	////////////////////////////////////////
; 117  : 
; 118  : 	unlink_local_entity_children (en, LIST_TYPE_TASK_DEPENDENT);

  00033	6a 27		 push	 39			; 00000027H
  00035	8b 45 08	 mov	 eax, DWORD PTR _en$[ebp]
  00038	50		 push	 eax
  00039	e8 00 00 00 00	 call	 ?unlink_local_entity_children@@YGXPAUENTITY@@W4LIST_TYPES@@@Z ; unlink_local_entity_children

; 119  : 
; 120  : 	unlink_local_entity_children (en, LIST_TYPE_TAKEOFF_QUEUE);

  0003e	6a 25		 push	 37			; 00000025H
  00040	8b 45 08	 mov	 eax, DWORD PTR _en$[ebp]
  00043	50		 push	 eax
  00044	e8 00 00 00 00	 call	 ?unlink_local_entity_children@@YGXPAUENTITY@@W4LIST_TYPES@@@Z ; unlink_local_entity_children

; 121  : 
; 122  : 	#if LANDING_ROUTE_CHECK
; 123  : 
; 124  : 	delete_local_entity_from_parents_child_list (en, LIST_TYPE_UPDATE);

  00049	6a 29		 push	 41			; 00000029H
  0004b	8b 45 08	 mov	 eax, DWORD PTR _en$[ebp]
  0004e	50		 push	 eax
  0004f	e8 00 00 00 00	 call	 ?delete_local_entity_from_parents_child_list@@YGXPAUENTITY@@W4LIST_TYPES@@@Z ; delete_local_entity_from_parents_child_list

; 125  : 
; 126  : 	#endif
; 127  : 
; 128  : 	delete_local_entity_from_parents_child_list (en, LIST_TYPE_LANDING_SITE);

  00054	6a 17		 push	 23			; 00000017H
  00056	8b 45 08	 mov	 eax, DWORD PTR _en$[ebp]
  00059	50		 push	 eax
  0005a	e8 00 00 00 00	 call	 ?delete_local_entity_from_parents_child_list@@YGXPAUENTITY@@W4LIST_TYPES@@@Z ; delete_local_entity_from_parents_child_list

; 129  : 
; 130  : 	////////////////////////////////////////
; 131  : 	//
; 132  : 	// FREE ENTITY DATA
; 133  : 	//
; 134  : 	////////////////////////////////////////
; 135  : 
; 136  : 	free_mem (raw);

  0005f	8b 45 fc	 mov	 eax, DWORD PTR _raw$[ebp]
  00062	50		 push	 eax
  00063	e8 00 00 00 00	 call	 ?free_mem@@YGXPAX@Z	; free_mem

; 137  : 
; 138  : 	set_free_entity (en);

  00068	8b 45 08	 mov	 eax, DWORD PTR _en$[ebp]
  0006b	50		 push	 eax
  0006c	e8 00 00 00 00	 call	 ?set_free_entity@@YGXPAUENTITY@@@Z ; set_free_entity

; 139  : }

  00071	5f		 pop	 edi
  00072	5e		 pop	 esi
  00073	5b		 pop	 ebx
  00074	8b e5		 mov	 esp, ebp
  00076	5d		 pop	 ebp
  00077	c2 04 00	 ret	 4
?destroy_local@@YGXPAUENTITY@@@Z ENDP			; destroy_local
_TEXT	ENDS
; Function compile flags: /Odtp /ZI
; File c:\users\nhv90\projects\eech\aphavoc\source\entity\special\landing\ld_dstry.c
;	COMDAT ?overload_landing_destroy_functions@@YGXXZ
_TEXT	SEGMENT
?overload_landing_destroy_functions@@YGXXZ PROC		; overload_landing_destroy_functions, COMDAT

; 247  : {

  00000	55		 push	 ebp
  00001	8b ec		 mov	 ebp, esp
  00003	83 ec 40	 sub	 esp, 64			; 00000040H
  00006	53		 push	 ebx
  00007	56		 push	 esi
  00008	57		 push	 edi

; 248  : 	fn_destroy_local_entity						[ENTITY_TYPE_LANDING]							= destroy_local;

  00009	b8 04 00 00 00	 mov	 eax, 4
  0000e	c1 e0 04	 shl	 eax, 4
  00011	c7 80 00 00 00
	00 00 00 00 00	 mov	 DWORD PTR ?fn_destroy_local_entity@@3PAP6GXPAUENTITY@@@ZA[eax], OFFSET ?destroy_local@@YGXPAUENTITY@@@Z ; destroy_local

; 249  : 	fn_destroy_client_server_entity			[ENTITY_TYPE_LANDING][COMMS_MODEL_SERVER]	= destroy_server;

  0001b	b8 08 00 00 00	 mov	 eax, 8
  00020	c1 e0 04	 shl	 eax, 4
  00023	b9 04 00 00 00	 mov	 ecx, 4
  00028	6b d1 00	 imul	 edx, ecx, 0
  0002b	c7 84 10 00 00
	00 00 00 00 00
	00		 mov	 DWORD PTR ?fn_destroy_client_server_entity@@3PAY01P6GXPAUENTITY@@@ZA[eax+edx], OFFSET ?destroy_server@@YGXPAUENTITY@@@Z ; destroy_server

; 250  : 	fn_destroy_client_server_entity			[ENTITY_TYPE_LANDING][COMMS_MODEL_CLIENT]	= destroy_client;

  00036	b8 08 00 00 00	 mov	 eax, 8
  0003b	c1 e0 04	 shl	 eax, 4
  0003e	b9 04 00 00 00	 mov	 ecx, 4
  00043	c1 e1 00	 shl	 ecx, 0
  00046	c7 84 08 00 00
	00 00 00 00 00
	00		 mov	 DWORD PTR ?fn_destroy_client_server_entity@@3PAY01P6GXPAUENTITY@@@ZA[eax+ecx], OFFSET ?destroy_client@@YGXPAUENTITY@@@Z ; destroy_client

; 251  : 
; 252  : 	fn_destroy_local_entity_family			[ENTITY_TYPE_LANDING]							= destroy_local_family;

  00051	b8 04 00 00 00	 mov	 eax, 4
  00056	c1 e0 04	 shl	 eax, 4
  00059	c7 80 00 00 00
	00 00 00 00 00	 mov	 DWORD PTR ?fn_destroy_local_entity_family@@3PAP6GXPAUENTITY@@@ZA[eax], OFFSET ?destroy_local_family@@YGXPAUENTITY@@@Z ; destroy_local_family

; 253  : 	fn_destroy_client_server_entity_family	[ENTITY_TYPE_LANDING][COMMS_MODEL_SERVER]	= destroy_server_family;

  00063	b8 08 00 00 00	 mov	 eax, 8
  00068	c1 e0 04	 shl	 eax, 4
  0006b	b9 04 00 00 00	 mov	 ecx, 4
  00070	6b d1 00	 imul	 edx, ecx, 0
  00073	c7 84 10 00 00
	00 00 00 00 00
	00		 mov	 DWORD PTR ?fn_destroy_client_server_entity_family@@3PAY01P6GXPAUENTITY@@@ZA[eax+edx], OFFSET ?destroy_server_family@@YGXPAUENTITY@@@Z ; destroy_server_family

; 254  : 	fn_destroy_client_server_entity_family	[ENTITY_TYPE_LANDING][COMMS_MODEL_CLIENT]	= destroy_client_family;

  0007e	b8 08 00 00 00	 mov	 eax, 8
  00083	c1 e0 04	 shl	 eax, 4
  00086	b9 04 00 00 00	 mov	 ecx, 4
  0008b	c1 e1 00	 shl	 ecx, 0
  0008e	c7 84 08 00 00
	00 00 00 00 00
	00		 mov	 DWORD PTR ?fn_destroy_client_server_entity_family@@3PAY01P6GXPAUENTITY@@@ZA[eax+ecx], OFFSET ?destroy_client_family@@YGXPAUENTITY@@@Z ; destroy_client_family

; 255  : 
; 256  : 	fn_kill_local_entity							[ENTITY_TYPE_LANDING]							= destroy_local_family;

  00099	b8 04 00 00 00	 mov	 eax, 4
  0009e	c1 e0 04	 shl	 eax, 4
  000a1	c7 80 00 00 00
	00 00 00 00 00	 mov	 DWORD PTR ?fn_kill_local_entity@@3PAP6GXPAUENTITY@@@ZA[eax], OFFSET ?destroy_local_family@@YGXPAUENTITY@@@Z ; destroy_local_family

; 257  : 	fn_kill_client_server_entity				[ENTITY_TYPE_LANDING][COMMS_MODEL_SERVER]	= destroy_server_family;

  000ab	b8 08 00 00 00	 mov	 eax, 8
  000b0	c1 e0 04	 shl	 eax, 4
  000b3	b9 04 00 00 00	 mov	 ecx, 4
  000b8	6b d1 00	 imul	 edx, ecx, 0
  000bb	c7 84 10 00 00
	00 00 00 00 00
	00		 mov	 DWORD PTR ?fn_kill_client_server_entity@@3PAY01P6GXPAUENTITY@@@ZA[eax+edx], OFFSET ?destroy_server_family@@YGXPAUENTITY@@@Z ; destroy_server_family

; 258  : 	fn_kill_client_server_entity				[ENTITY_TYPE_LANDING][COMMS_MODEL_CLIENT]	= destroy_client_family;

  000c6	b8 08 00 00 00	 mov	 eax, 8
  000cb	c1 e0 04	 shl	 eax, 4
  000ce	b9 04 00 00 00	 mov	 ecx, 4
  000d3	c1 e1 00	 shl	 ecx, 0
  000d6	c7 84 08 00 00
	00 00 00 00 00
	00		 mov	 DWORD PTR ?fn_kill_client_server_entity@@3PAY01P6GXPAUENTITY@@@ZA[eax+ecx], OFFSET ?destroy_client_family@@YGXPAUENTITY@@@Z ; destroy_client_family

; 259  : }

  000e1	5f		 pop	 edi
  000e2	5e		 pop	 esi
  000e3	5b		 pop	 ebx
  000e4	8b e5		 mov	 esp, ebp
  000e6	5d		 pop	 ebp
  000e7	c3		 ret	 0
?overload_landing_destroy_functions@@YGXXZ ENDP		; overload_landing_destroy_functions
_TEXT	ENDS
END
