; Listing generated by Microsoft (R) Optimizing Compiler Version 19.16.27045.0 

	TITLE	C:\Users\nhv90\Projects\eech\aphavoc\source\entity\special\landing\ld_int.c
	.686P
	.XMM
	include listing.inc
	.model	flat

INCLUDELIB MSVCRTD
INCLUDELIB OLDNAMES

PUBLIC	?overload_landing_int_value_functions@@YGXXZ	; overload_landing_int_value_functions
PUBLIC	?__LINE__Var@?0??set_local_int_value@@YGXPAUENTITY@@W4INT_TYPES@@H@Z@4JA ; `set_local_int_value'::`1'::__LINE__Var
PUBLIC	??_C@_0EM@OLICOPCD@c?3?2users?2nhv90?2projects?2eech?2ap@ ; `string'
PUBLIC	?__LINE__Var@?0??set_server_int_value@@YGXPAUENTITY@@W4INT_TYPES@@H@Z@4JA ; `set_server_int_value'::`1'::__LINE__Var
PUBLIC	??_C@_0CB@CFOCLFOK@assert_client_server_local_fn?5?$CI@ ; `string'
PUBLIC	??_C@_0CC@BNNNEGEG@assert_client_server_remote_fn?5@ ; `string'
PUBLIC	?__LINE__Var@?0??set_client_int_value@@YGXPAUENTITY@@W4INT_TYPES@@H@Z@4JA ; `set_client_int_value'::`1'::__LINE__Var
PUBLIC	?__LINE__Var@?0??get_local_int_value@@YGHPAUENTITY@@W4INT_TYPES@@@Z@4JA ; `get_local_int_value'::`1'::__LINE__Var
PUBLIC	??_C@_0BN@GALMPAJI@ld_int?3?5can?8t?5use?5route?5node@ ; `string'
EXTRN	?process_assert@@YGXPBD0H@Z:PROC		; process_assert
EXTRN	?debug_fatal@@YAXPBDZZ:PROC			; debug_fatal
EXTRN	?transmit_entity_comms_message@@YAXW4ENTITY_COMMS_MESSAGES@@PAUENTITY@@ZZ:PROC ; transmit_entity_comms_message
EXTRN	?assert_client_server_local_fn@@YGHXZ:PROC	; assert_client_server_local_fn
EXTRN	?assert_client_server_remote_fn@@YGHXZ:PROC	; assert_client_server_remote_fn
EXTRN	?null_entity_pointer_message@@3PBDB:DWORD	; null_entity_pointer_message
EXTRN	?entity_type_database@@3PAUENTITY_TYPE_DATA@@A:BYTE ; entity_type_database
EXTRN	?system_comms_data_flow@@3W4COMMS_DATA_FLOW_TYPES@@A:DWORD ; system_comms_data_flow
EXTRN	?int_type_database@@3PAUINT_TYPE_DATA@@A:BYTE	; int_type_database
EXTRN	?debug_fatal_invalid_int_type_message@@3PBDB:DWORD ; debug_fatal_invalid_int_type_message
EXTRN	?fn_set_local_entity_raw_int_value@@3PAY0BBH@P6GXPAUENTITY@@W4INT_TYPES@@H@ZA:BYTE ; fn_set_local_entity_raw_int_value
EXTRN	?fn_set_local_entity_int_value@@3PAY0BBH@P6GXPAUENTITY@@W4INT_TYPES@@H@ZA:BYTE ; fn_set_local_entity_int_value
EXTRN	?fn_set_client_server_entity_int_value@@3PAY1BBH@1P6GXPAUENTITY@@W4INT_TYPES@@H@ZA:BYTE ; fn_set_client_server_entity_int_value
EXTRN	?fn_get_local_entity_int_value@@3PAY0BBH@P6GHPAUENTITY@@W4INT_TYPES@@@ZA:BYTE ; fn_get_local_entity_int_value
EXTRN	?entities@@3PAUENTITY@@A:DWORD			; entities
;	COMDAT ??_C@_0BN@GALMPAJI@ld_int?3?5can?8t?5use?5route?5node@
CONST	SEGMENT
??_C@_0BN@GALMPAJI@ld_int?3?5can?8t?5use?5route?5node@ DB 'ld_int: can''t'
	DB	' use route node', 00H			; `string'
CONST	ENDS
;	COMDAT ?__LINE__Var@?0??get_local_int_value@@YGHPAUENTITY@@W4INT_TYPES@@@Z@4JA
_DATA	SEGMENT
?__LINE__Var@?0??get_local_int_value@@YGHPAUENTITY@@W4INT_TYPES@@@Z@4JA DD 0e9H ; `get_local_int_value'::`1'::__LINE__Var
_DATA	ENDS
;	COMDAT ?__LINE__Var@?0??set_client_int_value@@YGXPAUENTITY@@W4INT_TYPES@@H@Z@4JA
_DATA	SEGMENT
?__LINE__Var@?0??set_client_int_value@@YGXPAUENTITY@@W4INT_TYPES@@H@Z@4JA DD 0d5H ; `set_client_int_value'::`1'::__LINE__Var
_DATA	ENDS
;	COMDAT ??_C@_0CC@BNNNEGEG@assert_client_server_remote_fn?5@
CONST	SEGMENT
??_C@_0CC@BNNNEGEG@assert_client_server_remote_fn?5@ DB 'assert_client_se'
	DB	'rver_remote_fn ()', 00H			; `string'
CONST	ENDS
;	COMDAT ??_C@_0CB@CFOCLFOK@assert_client_server_local_fn?5?$CI@
CONST	SEGMENT
??_C@_0CB@CFOCLFOK@assert_client_server_local_fn?5?$CI@ DB 'assert_client'
	DB	'_server_local_fn ()', 00H			; `string'
CONST	ENDS
;	COMDAT ?__LINE__Var@?0??set_server_int_value@@YGXPAUENTITY@@W4INT_TYPES@@H@Z@4JA
_DATA	SEGMENT
?__LINE__Var@?0??set_server_int_value@@YGXPAUENTITY@@W4INT_TYPES@@H@Z@4JA DD 0c6H ; `set_server_int_value'::`1'::__LINE__Var
_DATA	ENDS
;	COMDAT ??_C@_0EM@OLICOPCD@c?3?2users?2nhv90?2projects?2eech?2ap@
CONST	SEGMENT
??_C@_0EM@OLICOPCD@c?3?2users?2nhv90?2projects?2eech?2ap@ DB 'c:\users\nh'
	DB	'v90\projects\eech\aphavoc\source\entity\special\landing\ld_in'
	DB	't.c', 00H					; `string'
CONST	ENDS
;	COMDAT ?__LINE__Var@?0??set_local_int_value@@YGXPAUENTITY@@W4INT_TYPES@@H@Z@4JA
_DATA	SEGMENT
?__LINE__Var@?0??set_local_int_value@@YGXPAUENTITY@@W4INT_TYPES@@H@Z@4JA DD 050H ; `set_local_int_value'::`1'::__LINE__Var
_DATA	ENDS
; Function compile flags: /Odtp /ZI
; File c:\users\nhv90\projects\eech\aphavoc\source\entity\special\landing\ld_int.c
;	COMDAT ?get_local_int_value@@YGHPAUENTITY@@W4INT_TYPES@@@Z
_TEXT	SEGMENT
tv128 = -76						; size = 4
tv65 = -76						; size = 4
_value$ = -8						; size = 4
_raw$ = -4						; size = 4
_en$ = 8						; size = 4
_type$ = 12						; size = 4
?get_local_int_value@@YGHPAUENTITY@@W4INT_TYPES@@@Z PROC ; get_local_int_value, COMDAT

; 233  : {

  00000	55		 push	 ebp
  00001	8b ec		 mov	 ebp, esp
  00003	83 ec 4c	 sub	 esp, 76			; 0000004cH
  00006	53		 push	 ebx
  00007	56		 push	 esi
  00008	57		 push	 edi

; 234  : 	landing
; 235  : 		*raw;
; 236  : 
; 237  : 	int
; 238  : 		value;
; 239  : 
; 240  : 	raw = (landing *) get_local_entity_data (en);

  00009	8b 45 08	 mov	 eax, DWORD PTR _en$[ebp]
  0000c	8b 48 04	 mov	 ecx, DWORD PTR [eax+4]
  0000f	89 4d fc	 mov	 DWORD PTR _raw$[ebp], ecx

; 241  : 
; 242  : 	switch (type)

  00012	8b 45 0c	 mov	 eax, DWORD PTR _type$[ebp]
  00015	89 45 b4	 mov	 DWORD PTR tv65[ebp], eax
  00018	8b 4d b4	 mov	 ecx, DWORD PTR tv65[ebp]
  0001b	83 e9 34	 sub	 ecx, 52			; 00000034H
  0001e	89 4d b4	 mov	 DWORD PTR tv65[ebp], ecx
  00021	81 7d b4 b7 00
	00 00		 cmp	 DWORD PTR tv65[ebp], 183 ; 000000b7H
  00028	0f 87 95 00 00
	00		 ja	 $LN13@get_local_
  0002e	8b 55 b4	 mov	 edx, DWORD PTR tv65[ebp]
  00031	0f b6 82 00 00
	00 00		 movzx	 eax, BYTE PTR $LN17@get_local_[edx]
  00038	ff 24 85 00 00
	00 00		 jmp	 DWORD PTR $LN18@get_local_[eax*4]
$LN4@get_local_:

; 243  : 	{
; 244  : 		////////////////////////////////////////
; 245  : 		case INT_TYPE_ENTITY_SUB_TYPE:
; 246  : 		////////////////////////////////////////
; 247  : 		{
; 248  : 			value = raw->sub_type;

  0003f	8b 45 fc	 mov	 eax, DWORD PTR _raw$[ebp]
  00042	8b 08		 mov	 ecx, DWORD PTR [eax]
  00044	89 4d f8	 mov	 DWORD PTR _value$[ebp], ecx

; 249  : 
; 250  : 			break;

  00047	e9 e9 00 00 00	 jmp	 $LN2@get_local_
$LN5@get_local_:

; 251  : 		}
; 252  : 		////////////////////////////////////////
; 253  : 		case INT_TYPE_FREE_LANDING_SITES:
; 254  : 		////////////////////////////////////////
; 255  : 		{
; 256  : 			value = raw->free_landing_sites;

  0004c	8b 45 fc	 mov	 eax, DWORD PTR _raw$[ebp]
  0004f	8b 48 3c	 mov	 ecx, DWORD PTR [eax+60]
  00052	89 4d f8	 mov	 DWORD PTR _value$[ebp], ecx

; 257  : 
; 258  : 			break;

  00055	e9 db 00 00 00	 jmp	 $LN2@get_local_
$LN6@get_local_:

; 259  : 		}
; 260  : 		////////////////////////////////////////
; 261  : 		case INT_TYPE_INSIDE_HANGAR:
; 262  : 		////////////////////////////////////////
; 263  : 		{
; 264  : 			value = raw->inside_hangar;

  0005a	8b 45 fc	 mov	 eax, DWORD PTR _raw$[ebp]
  0005d	8b 48 44	 mov	 ecx, DWORD PTR [eax+68]
  00060	89 4d f8	 mov	 DWORD PTR _value$[ebp], ecx

; 265  : 
; 266  : 			break;

  00063	e9 cd 00 00 00	 jmp	 $LN2@get_local_
$LN7@get_local_:

; 267  : 		}
; 268  : 		////////////////////////////////////////
; 269  : 		case INT_TYPE_LANDED_LOCK:
; 270  : 		////////////////////////////////////////
; 271  : 		{
; 272  : 			value = raw->landed_lock;

  00068	8b 45 fc	 mov	 eax, DWORD PTR _raw$[ebp]
  0006b	8b 48 4c	 mov	 ecx, DWORD PTR [eax+76]
  0006e	89 4d f8	 mov	 DWORD PTR _value$[ebp], ecx

; 273  : 
; 274  : 			break;

  00071	e9 bf 00 00 00	 jmp	 $LN2@get_local_
$LN8@get_local_:

; 275  : 		}
; 276  : 		////////////////////////////////////////
; 277  : 		case INT_TYPE_LANDING_LOCK:
; 278  : 		////////////////////////////////////////
; 279  : 		{
; 280  : 			value = raw->landing_lock;

  00076	8b 45 fc	 mov	 eax, DWORD PTR _raw$[ebp]
  00079	8b 48 48	 mov	 ecx, DWORD PTR [eax+72]
  0007c	89 4d f8	 mov	 DWORD PTR _value$[ebp], ecx

; 281  : 
; 282  : 			break;

  0007f	e9 b1 00 00 00	 jmp	 $LN2@get_local_
$LN9@get_local_:

; 283  : 		}
; 284  : 		////////////////////////////////////////
; 285  : 		case INT_TYPE_RESERVED_LANDING_SITES:
; 286  : 		////////////////////////////////////////
; 287  : 		{
; 288  : 			value = raw->reserved_landing_sites;

  00084	8b 45 fc	 mov	 eax, DWORD PTR _raw$[ebp]
  00087	8b 48 38	 mov	 ecx, DWORD PTR [eax+56]
  0008a	89 4d f8	 mov	 DWORD PTR _value$[ebp], ecx

; 289  : 
; 290  : 			break;

  0008d	e9 a3 00 00 00	 jmp	 $LN2@get_local_
$LN10@get_local_:

; 291  : 		}
; 292  : 		////////////////////////////////////////
; 293  : 		case INT_TYPE_ROUTE_NODE:
; 294  : 		////////////////////////////////////////
; 295  : 		{
; 296  : 			debug_fatal ("ld_int: can't use route node");

  00092	68 00 00 00 00	 push	 OFFSET ??_C@_0BN@GALMPAJI@ld_int?3?5can?8t?5use?5route?5node@
  00097	e8 00 00 00 00	 call	 ?debug_fatal@@YAXPBDZZ	; debug_fatal
  0009c	83 c4 04	 add	 esp, 4

; 297  : 
; 298  : 			value = raw->route_node;

  0009f	8b 45 fc	 mov	 eax, DWORD PTR _raw$[ebp]
  000a2	8b 48 34	 mov	 ecx, DWORD PTR [eax+52]
  000a5	89 4d f8	 mov	 DWORD PTR _value$[ebp], ecx

; 299  : 
; 300  : 			break;

  000a8	e9 88 00 00 00	 jmp	 $LN2@get_local_
$LN11@get_local_:

; 301  : 		}
; 302  : 		////////////////////////////////////////
; 303  : 		case INT_TYPE_TOTAL_LANDING_SITES:
; 304  : 		////////////////////////////////////////
; 305  : 		{
; 306  : 			value = raw->total_landing_sites;

  000ad	8b 45 fc	 mov	 eax, DWORD PTR _raw$[ebp]
  000b0	8b 48 40	 mov	 ecx, DWORD PTR [eax+64]
  000b3	89 4d f8	 mov	 DWORD PTR _value$[ebp], ecx

; 307  : 
; 308  : 			break;

  000b6	eb 7d		 jmp	 SHORT $LN2@get_local_
$LN12@get_local_:

; 309  : 		}
; 310  : 		////////////////////////////////////////
; 311  : 		case INT_TYPE_TAKEOFF_LOCK:
; 312  : 		////////////////////////////////////////
; 313  : 		{
; 314  : 			value = raw->takeoff_lock;

  000b8	8b 45 fc	 mov	 eax, DWORD PTR _raw$[ebp]
  000bb	8b 48 50	 mov	 ecx, DWORD PTR [eax+80]
  000be	89 4d f8	 mov	 DWORD PTR _value$[ebp], ecx

; 315  : 
; 316  : 			break;

  000c1	eb 72		 jmp	 SHORT $LN2@get_local_
$LN13@get_local_:

; 317  : 		}
; 318  : 		////////////////////////////////////////
; 319  : 		default:
; 320  : 		////////////////////////////////////////
; 321  : 		{
; 322  : 			debug_fatal_invalid_int_type (en, type);

  000c3	83 7d 08 00	 cmp	 DWORD PTR _en$[ebp], 0
  000c7	74 0a		 je	 SHORT $LN15@get_local_
  000c9	8b 45 08	 mov	 eax, DWORD PTR _en$[ebp]
  000cc	8b 08		 mov	 ecx, DWORD PTR [eax]
  000ce	89 4d b4	 mov	 DWORD PTR tv128[ebp], ecx
  000d1	eb 21		 jmp	 SHORT $LN16@get_local_
$LN15@get_local_:
  000d3	8b 15 00 00 00
	00		 mov	 edx, DWORD PTR ?__LINE__Var@?0??get_local_int_value@@YGHPAUENTITY@@W4INT_TYPES@@@Z@4JA
  000d9	83 c2 59	 add	 edx, 89			; 00000059H
  000dc	52		 push	 edx
  000dd	68 00 00 00 00	 push	 OFFSET ??_C@_0EM@OLICOPCD@c?3?2users?2nhv90?2projects?2eech?2ap@
  000e2	a1 00 00 00 00	 mov	 eax, DWORD PTR ?null_entity_pointer_message@@3PBDB ; null_entity_pointer_message
  000e7	50		 push	 eax
  000e8	e8 00 00 00 00	 call	 ?process_assert@@YGXPBD0H@Z ; process_assert
  000ed	c7 45 b4 00 00
	00 00		 mov	 DWORD PTR tv128[ebp], 0
$LN16@get_local_:
  000f4	8b 0d 00 00 00
	00		 mov	 ecx, DWORD PTR ?__LINE__Var@?0??get_local_int_value@@YGHPAUENTITY@@W4INT_TYPES@@@Z@4JA
  000fa	83 c1 59	 add	 ecx, 89			; 00000059H
  000fd	51		 push	 ecx
  000fe	68 00 00 00 00	 push	 OFFSET ??_C@_0EM@OLICOPCD@c?3?2users?2nhv90?2projects?2eech?2ap@
  00103	6b 55 0c 14	 imul	 edx, DWORD PTR _type$[ebp], 20
  00107	8b 82 00 00 00
	00		 mov	 eax, DWORD PTR ?int_type_database@@3PAUINT_TYPE_DATA@@A[edx]
  0010d	50		 push	 eax
  0010e	8b 4d 08	 mov	 ecx, DWORD PTR _en$[ebp]
  00111	2b 0d 00 00 00
	00		 sub	 ecx, DWORD PTR ?entities@@3PAUENTITY@@A ; entities
  00117	c1 f9 04	 sar	 ecx, 4
  0011a	51		 push	 ecx
  0011b	6b 55 b4 0c	 imul	 edx, DWORD PTR tv128[ebp], 12
  0011f	8b 82 00 00 00
	00		 mov	 eax, DWORD PTR ?entity_type_database@@3PAUENTITY_TYPE_DATA@@A[edx]
  00125	50		 push	 eax
  00126	8b 0d 00 00 00
	00		 mov	 ecx, DWORD PTR ?debug_fatal_invalid_int_type_message@@3PBDB ; debug_fatal_invalid_int_type_message
  0012c	51		 push	 ecx
  0012d	e8 00 00 00 00	 call	 ?debug_fatal@@YAXPBDZZ	; debug_fatal
  00132	83 c4 18	 add	 esp, 24			; 00000018H
$LN2@get_local_:

; 323  : 
; 324  : 			break;
; 325  : 		}
; 326  : 	}
; 327  : 
; 328  : 	return (value);

  00135	8b 45 f8	 mov	 eax, DWORD PTR _value$[ebp]

; 329  : }

  00138	5f		 pop	 edi
  00139	5e		 pop	 esi
  0013a	5b		 pop	 ebx
  0013b	8b e5		 mov	 esp, ebp
  0013d	5d		 pop	 ebp
  0013e	c2 08 00	 ret	 8
  00141	0f 1f 00	 npad	 3
$LN18@get_local_:
  00144	00 00 00 00	 DD	 $LN4@get_local_
  00148	00 00 00 00	 DD	 $LN5@get_local_
  0014c	00 00 00 00	 DD	 $LN6@get_local_
  00150	00 00 00 00	 DD	 $LN7@get_local_
  00154	00 00 00 00	 DD	 $LN8@get_local_
  00158	00 00 00 00	 DD	 $LN9@get_local_
  0015c	00 00 00 00	 DD	 $LN10@get_local_
  00160	00 00 00 00	 DD	 $LN12@get_local_
  00164	00 00 00 00	 DD	 $LN11@get_local_
  00168	00 00 00 00	 DD	 $LN13@get_local_
$LN17@get_local_:
  0016c	00		 DB	 0
  0016d	09		 DB	 9
  0016e	09		 DB	 9
  0016f	09		 DB	 9
  00170	09		 DB	 9
  00171	09		 DB	 9
  00172	09		 DB	 9
  00173	09		 DB	 9
  00174	09		 DB	 9
  00175	09		 DB	 9
  00176	09		 DB	 9
  00177	09		 DB	 9
  00178	01		 DB	 1
  00179	09		 DB	 9
  0017a	09		 DB	 9
  0017b	09		 DB	 9
  0017c	09		 DB	 9
  0017d	09		 DB	 9
  0017e	09		 DB	 9
  0017f	09		 DB	 9
  00180	09		 DB	 9
  00181	09		 DB	 9
  00182	09		 DB	 9
  00183	09		 DB	 9
  00184	09		 DB	 9
  00185	09		 DB	 9
  00186	09		 DB	 9
  00187	09		 DB	 9
  00188	09		 DB	 9
  00189	09		 DB	 9
  0018a	09		 DB	 9
  0018b	09		 DB	 9
  0018c	09		 DB	 9
  0018d	09		 DB	 9
  0018e	09		 DB	 9
  0018f	09		 DB	 9
  00190	09		 DB	 9
  00191	09		 DB	 9
  00192	09		 DB	 9
  00193	09		 DB	 9
  00194	09		 DB	 9
  00195	09		 DB	 9
  00196	09		 DB	 9
  00197	09		 DB	 9
  00198	09		 DB	 9
  00199	09		 DB	 9
  0019a	09		 DB	 9
  0019b	09		 DB	 9
  0019c	09		 DB	 9
  0019d	09		 DB	 9
  0019e	09		 DB	 9
  0019f	09		 DB	 9
  001a0	09		 DB	 9
  001a1	09		 DB	 9
  001a2	02		 DB	 2
  001a3	09		 DB	 9
  001a4	09		 DB	 9
  001a5	09		 DB	 9
  001a6	09		 DB	 9
  001a7	09		 DB	 9
  001a8	09		 DB	 9
  001a9	09		 DB	 9
  001aa	09		 DB	 9
  001ab	09		 DB	 9
  001ac	03		 DB	 3
  001ad	09		 DB	 9
  001ae	04		 DB	 4
  001af	09		 DB	 9
  001b0	09		 DB	 9
  001b1	09		 DB	 9
  001b2	09		 DB	 9
  001b3	09		 DB	 9
  001b4	09		 DB	 9
  001b5	09		 DB	 9
  001b6	09		 DB	 9
  001b7	09		 DB	 9
  001b8	09		 DB	 9
  001b9	09		 DB	 9
  001ba	09		 DB	 9
  001bb	09		 DB	 9
  001bc	09		 DB	 9
  001bd	09		 DB	 9
  001be	09		 DB	 9
  001bf	09		 DB	 9
  001c0	09		 DB	 9
  001c1	09		 DB	 9
  001c2	09		 DB	 9
  001c3	09		 DB	 9
  001c4	09		 DB	 9
  001c5	09		 DB	 9
  001c6	09		 DB	 9
  001c7	09		 DB	 9
  001c8	09		 DB	 9
  001c9	09		 DB	 9
  001ca	09		 DB	 9
  001cb	09		 DB	 9
  001cc	09		 DB	 9
  001cd	09		 DB	 9
  001ce	09		 DB	 9
  001cf	09		 DB	 9
  001d0	09		 DB	 9
  001d1	09		 DB	 9
  001d2	09		 DB	 9
  001d3	09		 DB	 9
  001d4	09		 DB	 9
  001d5	09		 DB	 9
  001d6	09		 DB	 9
  001d7	09		 DB	 9
  001d8	09		 DB	 9
  001d9	09		 DB	 9
  001da	09		 DB	 9
  001db	09		 DB	 9
  001dc	09		 DB	 9
  001dd	09		 DB	 9
  001de	09		 DB	 9
  001df	09		 DB	 9
  001e0	09		 DB	 9
  001e1	09		 DB	 9
  001e2	09		 DB	 9
  001e3	09		 DB	 9
  001e4	09		 DB	 9
  001e5	09		 DB	 9
  001e6	09		 DB	 9
  001e7	05		 DB	 5
  001e8	09		 DB	 9
  001e9	09		 DB	 9
  001ea	09		 DB	 9
  001eb	09		 DB	 9
  001ec	06		 DB	 6
  001ed	09		 DB	 9
  001ee	09		 DB	 9
  001ef	09		 DB	 9
  001f0	09		 DB	 9
  001f1	09		 DB	 9
  001f2	09		 DB	 9
  001f3	09		 DB	 9
  001f4	09		 DB	 9
  001f5	09		 DB	 9
  001f6	09		 DB	 9
  001f7	09		 DB	 9
  001f8	09		 DB	 9
  001f9	09		 DB	 9
  001fa	09		 DB	 9
  001fb	09		 DB	 9
  001fc	09		 DB	 9
  001fd	09		 DB	 9
  001fe	09		 DB	 9
  001ff	09		 DB	 9
  00200	09		 DB	 9
  00201	09		 DB	 9
  00202	09		 DB	 9
  00203	09		 DB	 9
  00204	09		 DB	 9
  00205	09		 DB	 9
  00206	09		 DB	 9
  00207	09		 DB	 9
  00208	09		 DB	 9
  00209	09		 DB	 9
  0020a	09		 DB	 9
  0020b	07		 DB	 7
  0020c	09		 DB	 9
  0020d	09		 DB	 9
  0020e	09		 DB	 9
  0020f	09		 DB	 9
  00210	09		 DB	 9
  00211	09		 DB	 9
  00212	09		 DB	 9
  00213	09		 DB	 9
  00214	09		 DB	 9
  00215	09		 DB	 9
  00216	09		 DB	 9
  00217	09		 DB	 9
  00218	09		 DB	 9
  00219	09		 DB	 9
  0021a	09		 DB	 9
  0021b	09		 DB	 9
  0021c	09		 DB	 9
  0021d	09		 DB	 9
  0021e	09		 DB	 9
  0021f	09		 DB	 9
  00220	09		 DB	 9
  00221	09		 DB	 9
  00222	09		 DB	 9
  00223	08		 DB	 8
?get_local_int_value@@YGHPAUENTITY@@W4INT_TYPES@@@Z ENDP ; get_local_int_value
_TEXT	ENDS
; Function compile flags: /Odtp /ZI
; File c:\users\nhv90\projects\eech\aphavoc\source\entity\special\landing\ld_int.c
;	COMDAT ?set_client_int_value@@YGXPAUENTITY@@W4INT_TYPES@@H@Z
_TEXT	SEGMENT
_en$ = 8						; size = 4
_type$ = 12						; size = 4
_value$ = 16						; size = 4
?set_client_int_value@@YGXPAUENTITY@@W4INT_TYPES@@H@Z PROC ; set_client_int_value, COMDAT

; 213  : {

  00000	55		 push	 ebp
  00001	8b ec		 mov	 ebp, esp
  00003	83 ec 40	 sub	 esp, 64			; 00000040H
  00006	53		 push	 ebx
  00007	56		 push	 esi
  00008	57		 push	 edi

; 214  : 	if (get_comms_data_flow () == COMMS_DATA_FLOW_TX)

  00009	83 3d 00 00 00
	00 00		 cmp	 DWORD PTR ?system_comms_data_flow@@3W4COMMS_DATA_FLOW_TYPES@@A, 0 ; system_comms_data_flow
  00010	75 34		 jne	 SHORT $LN2@set_client

; 215  : 	{
; 216  : 		validate_client_server_remote_fn ();

  00012	e8 00 00 00 00	 call	 ?assert_client_server_remote_fn@@YGHXZ ; assert_client_server_remote_fn
  00017	85 c0		 test	 eax, eax
  00019	75 18		 jne	 SHORT $LN4@set_client
  0001b	a1 00 00 00 00	 mov	 eax, DWORD PTR ?__LINE__Var@?0??set_client_int_value@@YGXPAUENTITY@@W4INT_TYPES@@H@Z@4JA
  00020	83 c0 03	 add	 eax, 3
  00023	50		 push	 eax
  00024	68 00 00 00 00	 push	 OFFSET ??_C@_0EM@OLICOPCD@c?3?2users?2nhv90?2projects?2eech?2ap@
  00029	68 00 00 00 00	 push	 OFFSET ??_C@_0CC@BNNNEGEG@assert_client_server_remote_fn?5@
  0002e	e8 00 00 00 00	 call	 ?process_assert@@YGXPBD0H@Z ; process_assert
$LN4@set_client:

; 217  : 
; 218  : 		set_remote_int_value (en, type, value);

  00033	8b 45 10	 mov	 eax, DWORD PTR _value$[ebp]
  00036	50		 push	 eax
  00037	8b 4d 0c	 mov	 ecx, DWORD PTR _type$[ebp]
  0003a	51		 push	 ecx
  0003b	8b 55 08	 mov	 edx, DWORD PTR _en$[ebp]
  0003e	52		 push	 edx
  0003f	e8 00 00 00 00	 call	 ?set_remote_int_value@@YGXPAUENTITY@@W4INT_TYPES@@H@Z ; set_remote_int_value

; 219  : 	}
; 220  : 	else

  00044	eb 32		 jmp	 SHORT $LN1@set_client
$LN2@set_client:

; 221  : 	{
; 222  : 		validate_client_server_local_fn ();

  00046	e8 00 00 00 00	 call	 ?assert_client_server_local_fn@@YGHXZ ; assert_client_server_local_fn
  0004b	85 c0		 test	 eax, eax
  0004d	75 18		 jne	 SHORT $LN5@set_client
  0004f	a1 00 00 00 00	 mov	 eax, DWORD PTR ?__LINE__Var@?0??set_client_int_value@@YGXPAUENTITY@@W4INT_TYPES@@H@Z@4JA
  00054	83 c0 09	 add	 eax, 9
  00057	50		 push	 eax
  00058	68 00 00 00 00	 push	 OFFSET ??_C@_0EM@OLICOPCD@c?3?2users?2nhv90?2projects?2eech?2ap@
  0005d	68 00 00 00 00	 push	 OFFSET ??_C@_0CB@CFOCLFOK@assert_client_server_local_fn?5?$CI@
  00062	e8 00 00 00 00	 call	 ?process_assert@@YGXPBD0H@Z ; process_assert
$LN5@set_client:

; 223  : 
; 224  : 		set_local_int_value (en, type, value);

  00067	8b 45 10	 mov	 eax, DWORD PTR _value$[ebp]
  0006a	50		 push	 eax
  0006b	8b 4d 0c	 mov	 ecx, DWORD PTR _type$[ebp]
  0006e	51		 push	 ecx
  0006f	8b 55 08	 mov	 edx, DWORD PTR _en$[ebp]
  00072	52		 push	 edx
  00073	e8 00 00 00 00	 call	 ?set_local_int_value@@YGXPAUENTITY@@W4INT_TYPES@@H@Z ; set_local_int_value
$LN1@set_client:

; 225  : 	}
; 226  : }

  00078	5f		 pop	 edi
  00079	5e		 pop	 esi
  0007a	5b		 pop	 ebx
  0007b	8b e5		 mov	 esp, ebp
  0007d	5d		 pop	 ebp
  0007e	c2 0c 00	 ret	 12			; 0000000cH
?set_client_int_value@@YGXPAUENTITY@@W4INT_TYPES@@H@Z ENDP ; set_client_int_value
_TEXT	ENDS
; Function compile flags: /Odtp /ZI
; File c:\users\nhv90\projects\eech\aphavoc\source\entity\special\landing\ld_int.c
;	COMDAT ?set_server_int_value@@YGXPAUENTITY@@W4INT_TYPES@@H@Z
_TEXT	SEGMENT
_en$ = 8						; size = 4
_type$ = 12						; size = 4
_value$ = 16						; size = 4
?set_server_int_value@@YGXPAUENTITY@@W4INT_TYPES@@H@Z PROC ; set_server_int_value, COMDAT

; 198  : {

  00000	55		 push	 ebp
  00001	8b ec		 mov	 ebp, esp
  00003	83 ec 40	 sub	 esp, 64			; 00000040H
  00006	53		 push	 ebx
  00007	56		 push	 esi
  00008	57		 push	 edi

; 199  : 	validate_client_server_local_fn ();

  00009	e8 00 00 00 00	 call	 ?assert_client_server_local_fn@@YGHXZ ; assert_client_server_local_fn
  0000e	85 c0		 test	 eax, eax
  00010	75 18		 jne	 SHORT $LN2@set_server
  00012	a1 00 00 00 00	 mov	 eax, DWORD PTR ?__LINE__Var@?0??set_server_int_value@@YGXPAUENTITY@@W4INT_TYPES@@H@Z@4JA
  00017	83 c0 01	 add	 eax, 1
  0001a	50		 push	 eax
  0001b	68 00 00 00 00	 push	 OFFSET ??_C@_0EM@OLICOPCD@c?3?2users?2nhv90?2projects?2eech?2ap@
  00020	68 00 00 00 00	 push	 OFFSET ??_C@_0CB@CFOCLFOK@assert_client_server_local_fn?5?$CI@
  00025	e8 00 00 00 00	 call	 ?process_assert@@YGXPBD0H@Z ; process_assert
$LN2@set_server:

; 200  : 
; 201  : 	set_local_int_value (en, type, value);

  0002a	8b 45 10	 mov	 eax, DWORD PTR _value$[ebp]
  0002d	50		 push	 eax
  0002e	8b 4d 0c	 mov	 ecx, DWORD PTR _type$[ebp]
  00031	51		 push	 ecx
  00032	8b 55 08	 mov	 edx, DWORD PTR _en$[ebp]
  00035	52		 push	 edx
  00036	e8 00 00 00 00	 call	 ?set_local_int_value@@YGXPAUENTITY@@W4INT_TYPES@@H@Z ; set_local_int_value

; 202  : 
; 203  : 	validate_client_server_remote_fn ();

  0003b	e8 00 00 00 00	 call	 ?assert_client_server_remote_fn@@YGHXZ ; assert_client_server_remote_fn
  00040	85 c0		 test	 eax, eax
  00042	75 18		 jne	 SHORT $LN3@set_server
  00044	a1 00 00 00 00	 mov	 eax, DWORD PTR ?__LINE__Var@?0??set_server_int_value@@YGXPAUENTITY@@W4INT_TYPES@@H@Z@4JA
  00049	83 c0 05	 add	 eax, 5
  0004c	50		 push	 eax
  0004d	68 00 00 00 00	 push	 OFFSET ??_C@_0EM@OLICOPCD@c?3?2users?2nhv90?2projects?2eech?2ap@
  00052	68 00 00 00 00	 push	 OFFSET ??_C@_0CC@BNNNEGEG@assert_client_server_remote_fn?5@
  00057	e8 00 00 00 00	 call	 ?process_assert@@YGXPBD0H@Z ; process_assert
$LN3@set_server:

; 204  : 
; 205  : 	set_remote_int_value (en, type, value);

  0005c	8b 45 10	 mov	 eax, DWORD PTR _value$[ebp]
  0005f	50		 push	 eax
  00060	8b 4d 0c	 mov	 ecx, DWORD PTR _type$[ebp]
  00063	51		 push	 ecx
  00064	8b 55 08	 mov	 edx, DWORD PTR _en$[ebp]
  00067	52		 push	 edx
  00068	e8 00 00 00 00	 call	 ?set_remote_int_value@@YGXPAUENTITY@@W4INT_TYPES@@H@Z ; set_remote_int_value

; 206  : }

  0006d	5f		 pop	 edi
  0006e	5e		 pop	 esi
  0006f	5b		 pop	 ebx
  00070	8b e5		 mov	 esp, ebp
  00072	5d		 pop	 ebp
  00073	c2 0c 00	 ret	 12			; 0000000cH
?set_server_int_value@@YGXPAUENTITY@@W4INT_TYPES@@H@Z ENDP ; set_server_int_value
_TEXT	ENDS
; Function compile flags: /Odtp /ZI
; File c:\users\nhv90\projects\eech\aphavoc\source\entity\special\landing\ld_int.c
;	COMDAT ?set_remote_int_value@@YGXPAUENTITY@@W4INT_TYPES@@H@Z
_TEXT	SEGMENT
_en$ = 8						; size = 4
_type$ = 12						; size = 4
_value$ = 16						; size = 4
?set_remote_int_value@@YGXPAUENTITY@@W4INT_TYPES@@H@Z PROC ; set_remote_int_value, COMDAT

; 183  : {

  00000	55		 push	 ebp
  00001	8b ec		 mov	 ebp, esp
  00003	83 ec 40	 sub	 esp, 64			; 00000040H
  00006	53		 push	 ebx
  00007	56		 push	 esi
  00008	57		 push	 edi

; 184  : 	#if DEBUG_MODULE
; 185  : 
; 186  : 	debug_log_entity_args (ENTITY_DEBUG_REMOTE, ENTITY_DEBUG_INT_VALUE, en, type, value);
; 187  : 
; 188  : 	#endif
; 189  : 
; 190  : 	transmit_entity_comms_message (ENTITY_COMMS_INT_VALUE, en, type, value);

  00009	8b 45 10	 mov	 eax, DWORD PTR _value$[ebp]
  0000c	50		 push	 eax
  0000d	8b 4d 0c	 mov	 ecx, DWORD PTR _type$[ebp]
  00010	51		 push	 ecx
  00011	8b 55 08	 mov	 edx, DWORD PTR _en$[ebp]
  00014	52		 push	 edx
  00015	6a 17		 push	 23			; 00000017H
  00017	e8 00 00 00 00	 call	 ?transmit_entity_comms_message@@YAXW4ENTITY_COMMS_MESSAGES@@PAUENTITY@@ZZ ; transmit_entity_comms_message
  0001c	83 c4 10	 add	 esp, 16			; 00000010H

; 191  : }

  0001f	5f		 pop	 edi
  00020	5e		 pop	 esi
  00021	5b		 pop	 ebx
  00022	8b e5		 mov	 esp, ebp
  00024	5d		 pop	 ebp
  00025	c2 0c 00	 ret	 12			; 0000000cH
?set_remote_int_value@@YGXPAUENTITY@@W4INT_TYPES@@H@Z ENDP ; set_remote_int_value
_TEXT	ENDS
; Function compile flags: /Odtp /ZI
; File c:\users\nhv90\projects\eech\aphavoc\source\entity\special\landing\ld_int.c
;	COMDAT ?set_local_int_value@@YGXPAUENTITY@@W4INT_TYPES@@H@Z
_TEXT	SEGMENT
tv139 = -72						; size = 4
tv65 = -72						; size = 4
_raw$ = -4						; size = 4
_en$ = 8						; size = 4
_type$ = 12						; size = 4
_value$ = 16						; size = 4
?set_local_int_value@@YGXPAUENTITY@@W4INT_TYPES@@H@Z PROC ; set_local_int_value, COMDAT

; 80   : {

  00000	55		 push	 ebp
  00001	8b ec		 mov	 ebp, esp
  00003	83 ec 48	 sub	 esp, 72			; 00000048H
  00006	53		 push	 ebx
  00007	56		 push	 esi
  00008	57		 push	 edi

; 81   : 	landing
; 82   : 		*raw;
; 83   : 
; 84   : 	#if DEBUG_MODULE
; 85   : 
; 86   : 	debug_log_entity_args (ENTITY_DEBUG_LOCAL, ENTITY_DEBUG_INT_VALUE, en, type, value);
; 87   : 
; 88   : 	#endif
; 89   : 
; 90   : 	raw = (landing *) get_local_entity_data (en);

  00009	8b 45 08	 mov	 eax, DWORD PTR _en$[ebp]
  0000c	8b 48 04	 mov	 ecx, DWORD PTR [eax+4]
  0000f	89 4d fc	 mov	 DWORD PTR _raw$[ebp], ecx

; 91   : 
; 92   : 	switch (type)

  00012	8b 45 0c	 mov	 eax, DWORD PTR _type$[ebp]
  00015	89 45 b8	 mov	 DWORD PTR tv65[ebp], eax
  00018	8b 4d b8	 mov	 ecx, DWORD PTR tv65[ebp]
  0001b	83 e9 34	 sub	 ecx, 52			; 00000034H
  0001e	89 4d b8	 mov	 DWORD PTR tv65[ebp], ecx
  00021	81 7d b8 b7 00
	00 00		 cmp	 DWORD PTR tv65[ebp], 183 ; 000000b7H
  00028	0f 87 b7 00 00
	00		 ja	 $LN13@set_local_
  0002e	8b 55 b8	 mov	 edx, DWORD PTR tv65[ebp]
  00031	0f b6 82 00 00
	00 00		 movzx	 eax, BYTE PTR $LN17@set_local_[edx]
  00038	ff 24 85 00 00
	00 00		 jmp	 DWORD PTR $LN18@set_local_[eax*4]
$LN4@set_local_:

; 93   : 	{
; 94   : 		////////////////////////////////////////
; 95   : 		case INT_TYPE_ENTITY_SUB_TYPE:
; 96   : 		////////////////////////////////////////
; 97   : 		{
; 98   : 			raw->sub_type = value;

  0003f	8b 45 fc	 mov	 eax, DWORD PTR _raw$[ebp]
  00042	8b 4d 10	 mov	 ecx, DWORD PTR _value$[ebp]
  00045	89 08		 mov	 DWORD PTR [eax], ecx

; 99   : 
; 100  : 			break;

  00047	e9 0b 01 00 00	 jmp	 $LN1@set_local_
$LN5@set_local_:

; 101  : 		}
; 102  : 		////////////////////////////////////////
; 103  : 		case INT_TYPE_FREE_LANDING_SITES:
; 104  : 		////////////////////////////////////////
; 105  : 		{
; 106  : 			
; 107  : 			raw->free_landing_sites = value;

  0004c	8b 45 fc	 mov	 eax, DWORD PTR _raw$[ebp]
  0004f	8b 4d 10	 mov	 ecx, DWORD PTR _value$[ebp]
  00052	89 48 3c	 mov	 DWORD PTR [eax+60], ecx

; 108  : 
; 109  : 			break;

  00055	e9 fd 00 00 00	 jmp	 $LN1@set_local_
$LN6@set_local_:

; 110  : 		}
; 111  : 		////////////////////////////////////////
; 112  : 		case INT_TYPE_INSIDE_HANGAR:
; 113  : 		////////////////////////////////////////
; 114  : 		{
; 115  : 			raw->inside_hangar = value;

  0005a	8b 45 10	 mov	 eax, DWORD PTR _value$[ebp]
  0005d	8b 4d fc	 mov	 ecx, DWORD PTR _raw$[ebp]
  00060	8b 51 44	 mov	 edx, DWORD PTR [ecx+68]
  00063	83 e2 00	 and	 edx, 0
  00066	0b d0		 or	 edx, eax
  00068	8b 45 fc	 mov	 eax, DWORD PTR _raw$[ebp]
  0006b	89 50 44	 mov	 DWORD PTR [eax+68], edx

; 116  : 
; 117  : 			break;

  0006e	e9 e4 00 00 00	 jmp	 $LN1@set_local_
$LN7@set_local_:

; 118  : 		}
; 119  : 		////////////////////////////////////////
; 120  : 		case INT_TYPE_LANDED_LOCK:
; 121  : 		////////////////////////////////////////
; 122  : 		{
; 123  : 			raw->landed_lock = value;

  00073	8b 45 10	 mov	 eax, DWORD PTR _value$[ebp]
  00076	8b 4d fc	 mov	 ecx, DWORD PTR _raw$[ebp]
  00079	8b 51 4c	 mov	 edx, DWORD PTR [ecx+76]
  0007c	83 e2 00	 and	 edx, 0
  0007f	0b d0		 or	 edx, eax
  00081	8b 45 fc	 mov	 eax, DWORD PTR _raw$[ebp]
  00084	89 50 4c	 mov	 DWORD PTR [eax+76], edx

; 124  : 
; 125  : 			break;

  00087	e9 cb 00 00 00	 jmp	 $LN1@set_local_
$LN8@set_local_:

; 126  : 		}
; 127  : 		////////////////////////////////////////
; 128  : 		case INT_TYPE_LANDING_LOCK:
; 129  : 		////////////////////////////////////////
; 130  : 		{
; 131  : 			raw->landing_lock = value;

  0008c	8b 45 10	 mov	 eax, DWORD PTR _value$[ebp]
  0008f	8b 4d fc	 mov	 ecx, DWORD PTR _raw$[ebp]
  00092	8b 51 48	 mov	 edx, DWORD PTR [ecx+72]
  00095	83 e2 00	 and	 edx, 0
  00098	0b d0		 or	 edx, eax
  0009a	8b 45 fc	 mov	 eax, DWORD PTR _raw$[ebp]
  0009d	89 50 48	 mov	 DWORD PTR [eax+72], edx

; 132  : 
; 133  : 			break;

  000a0	e9 b2 00 00 00	 jmp	 $LN1@set_local_
$LN9@set_local_:

; 134  : 		}
; 135  : 		////////////////////////////////////////
; 136  : 		case INT_TYPE_RESERVED_LANDING_SITES:
; 137  : 		////////////////////////////////////////
; 138  : 		{
; 139  : 			raw->reserved_landing_sites = value;

  000a5	8b 45 fc	 mov	 eax, DWORD PTR _raw$[ebp]
  000a8	8b 4d 10	 mov	 ecx, DWORD PTR _value$[ebp]
  000ab	89 48 38	 mov	 DWORD PTR [eax+56], ecx

; 140  : 
; 141  : 			break;

  000ae	e9 a4 00 00 00	 jmp	 $LN1@set_local_
$LN10@set_local_:

; 142  : 		}
; 143  : 		////////////////////////////////////////
; 144  : 		case INT_TYPE_ROUTE_NODE:
; 145  : 		////////////////////////////////////////
; 146  : 		{
; 147  : 			raw->route_node = value;

  000b3	8b 45 fc	 mov	 eax, DWORD PTR _raw$[ebp]
  000b6	8b 4d 10	 mov	 ecx, DWORD PTR _value$[ebp]
  000b9	89 48 34	 mov	 DWORD PTR [eax+52], ecx

; 148  : 
; 149  : 			break;

  000bc	e9 96 00 00 00	 jmp	 $LN1@set_local_
$LN11@set_local_:

; 150  : 		}
; 151  : 		////////////////////////////////////////
; 152  : 		case INT_TYPE_TOTAL_LANDING_SITES:
; 153  : 		////////////////////////////////////////
; 154  : 		{
; 155  : 			raw->total_landing_sites = value;

  000c1	8b 45 fc	 mov	 eax, DWORD PTR _raw$[ebp]
  000c4	8b 4d 10	 mov	 ecx, DWORD PTR _value$[ebp]
  000c7	89 48 40	 mov	 DWORD PTR [eax+64], ecx

; 156  : 
; 157  : 			break;

  000ca	e9 88 00 00 00	 jmp	 $LN1@set_local_
$LN12@set_local_:

; 158  : 		}
; 159  : 		////////////////////////////////////////
; 160  : 		case INT_TYPE_TAKEOFF_LOCK:
; 161  : 		////////////////////////////////////////
; 162  : 		{
; 163  : 			raw->takeoff_lock = value;

  000cf	8b 45 10	 mov	 eax, DWORD PTR _value$[ebp]
  000d2	8b 4d fc	 mov	 ecx, DWORD PTR _raw$[ebp]
  000d5	8b 51 50	 mov	 edx, DWORD PTR [ecx+80]
  000d8	83 e2 00	 and	 edx, 0
  000db	0b d0		 or	 edx, eax
  000dd	8b 45 fc	 mov	 eax, DWORD PTR _raw$[ebp]
  000e0	89 50 50	 mov	 DWORD PTR [eax+80], edx

; 164  : 
; 165  : 			break;

  000e3	eb 72		 jmp	 SHORT $LN1@set_local_
$LN13@set_local_:

; 166  : 		}
; 167  : 		////////////////////////////////////////
; 168  : 		default:
; 169  : 		////////////////////////////////////////
; 170  : 		{
; 171  : 			debug_fatal_invalid_int_type (en, type);

  000e5	83 7d 08 00	 cmp	 DWORD PTR _en$[ebp], 0
  000e9	74 0a		 je	 SHORT $LN15@set_local_
  000eb	8b 45 08	 mov	 eax, DWORD PTR _en$[ebp]
  000ee	8b 08		 mov	 ecx, DWORD PTR [eax]
  000f0	89 4d b8	 mov	 DWORD PTR tv139[ebp], ecx
  000f3	eb 21		 jmp	 SHORT $LN16@set_local_
$LN15@set_local_:
  000f5	8b 15 00 00 00
	00		 mov	 edx, DWORD PTR ?__LINE__Var@?0??set_local_int_value@@YGXPAUENTITY@@W4INT_TYPES@@H@Z@4JA
  000fb	83 c2 5b	 add	 edx, 91			; 0000005bH
  000fe	52		 push	 edx
  000ff	68 00 00 00 00	 push	 OFFSET ??_C@_0EM@OLICOPCD@c?3?2users?2nhv90?2projects?2eech?2ap@
  00104	a1 00 00 00 00	 mov	 eax, DWORD PTR ?null_entity_pointer_message@@3PBDB ; null_entity_pointer_message
  00109	50		 push	 eax
  0010a	e8 00 00 00 00	 call	 ?process_assert@@YGXPBD0H@Z ; process_assert
  0010f	c7 45 b8 00 00
	00 00		 mov	 DWORD PTR tv139[ebp], 0
$LN16@set_local_:
  00116	8b 0d 00 00 00
	00		 mov	 ecx, DWORD PTR ?__LINE__Var@?0??set_local_int_value@@YGXPAUENTITY@@W4INT_TYPES@@H@Z@4JA
  0011c	83 c1 5b	 add	 ecx, 91			; 0000005bH
  0011f	51		 push	 ecx
  00120	68 00 00 00 00	 push	 OFFSET ??_C@_0EM@OLICOPCD@c?3?2users?2nhv90?2projects?2eech?2ap@
  00125	6b 55 0c 14	 imul	 edx, DWORD PTR _type$[ebp], 20
  00129	8b 82 00 00 00
	00		 mov	 eax, DWORD PTR ?int_type_database@@3PAUINT_TYPE_DATA@@A[edx]
  0012f	50		 push	 eax
  00130	8b 4d 08	 mov	 ecx, DWORD PTR _en$[ebp]
  00133	2b 0d 00 00 00
	00		 sub	 ecx, DWORD PTR ?entities@@3PAUENTITY@@A ; entities
  00139	c1 f9 04	 sar	 ecx, 4
  0013c	51		 push	 ecx
  0013d	6b 55 b8 0c	 imul	 edx, DWORD PTR tv139[ebp], 12
  00141	8b 82 00 00 00
	00		 mov	 eax, DWORD PTR ?entity_type_database@@3PAUENTITY_TYPE_DATA@@A[edx]
  00147	50		 push	 eax
  00148	8b 0d 00 00 00
	00		 mov	 ecx, DWORD PTR ?debug_fatal_invalid_int_type_message@@3PBDB ; debug_fatal_invalid_int_type_message
  0014e	51		 push	 ecx
  0014f	e8 00 00 00 00	 call	 ?debug_fatal@@YAXPBDZZ	; debug_fatal
  00154	83 c4 18	 add	 esp, 24			; 00000018H
$LN1@set_local_:

; 172  : 
; 173  : 			break;
; 174  : 		}
; 175  : 	}
; 176  : }

  00157	5f		 pop	 edi
  00158	5e		 pop	 esi
  00159	5b		 pop	 ebx
  0015a	8b e5		 mov	 esp, ebp
  0015c	5d		 pop	 ebp
  0015d	c2 0c 00	 ret	 12			; 0000000cH
$LN18@set_local_:
  00160	00 00 00 00	 DD	 $LN4@set_local_
  00164	00 00 00 00	 DD	 $LN5@set_local_
  00168	00 00 00 00	 DD	 $LN6@set_local_
  0016c	00 00 00 00	 DD	 $LN7@set_local_
  00170	00 00 00 00	 DD	 $LN8@set_local_
  00174	00 00 00 00	 DD	 $LN9@set_local_
  00178	00 00 00 00	 DD	 $LN10@set_local_
  0017c	00 00 00 00	 DD	 $LN12@set_local_
  00180	00 00 00 00	 DD	 $LN11@set_local_
  00184	00 00 00 00	 DD	 $LN13@set_local_
$LN17@set_local_:
  00188	00		 DB	 0
  00189	09		 DB	 9
  0018a	09		 DB	 9
  0018b	09		 DB	 9
  0018c	09		 DB	 9
  0018d	09		 DB	 9
  0018e	09		 DB	 9
  0018f	09		 DB	 9
  00190	09		 DB	 9
  00191	09		 DB	 9
  00192	09		 DB	 9
  00193	09		 DB	 9
  00194	01		 DB	 1
  00195	09		 DB	 9
  00196	09		 DB	 9
  00197	09		 DB	 9
  00198	09		 DB	 9
  00199	09		 DB	 9
  0019a	09		 DB	 9
  0019b	09		 DB	 9
  0019c	09		 DB	 9
  0019d	09		 DB	 9
  0019e	09		 DB	 9
  0019f	09		 DB	 9
  001a0	09		 DB	 9
  001a1	09		 DB	 9
  001a2	09		 DB	 9
  001a3	09		 DB	 9
  001a4	09		 DB	 9
  001a5	09		 DB	 9
  001a6	09		 DB	 9
  001a7	09		 DB	 9
  001a8	09		 DB	 9
  001a9	09		 DB	 9
  001aa	09		 DB	 9
  001ab	09		 DB	 9
  001ac	09		 DB	 9
  001ad	09		 DB	 9
  001ae	09		 DB	 9
  001af	09		 DB	 9
  001b0	09		 DB	 9
  001b1	09		 DB	 9
  001b2	09		 DB	 9
  001b3	09		 DB	 9
  001b4	09		 DB	 9
  001b5	09		 DB	 9
  001b6	09		 DB	 9
  001b7	09		 DB	 9
  001b8	09		 DB	 9
  001b9	09		 DB	 9
  001ba	09		 DB	 9
  001bb	09		 DB	 9
  001bc	09		 DB	 9
  001bd	09		 DB	 9
  001be	02		 DB	 2
  001bf	09		 DB	 9
  001c0	09		 DB	 9
  001c1	09		 DB	 9
  001c2	09		 DB	 9
  001c3	09		 DB	 9
  001c4	09		 DB	 9
  001c5	09		 DB	 9
  001c6	09		 DB	 9
  001c7	09		 DB	 9
  001c8	03		 DB	 3
  001c9	09		 DB	 9
  001ca	04		 DB	 4
  001cb	09		 DB	 9
  001cc	09		 DB	 9
  001cd	09		 DB	 9
  001ce	09		 DB	 9
  001cf	09		 DB	 9
  001d0	09		 DB	 9
  001d1	09		 DB	 9
  001d2	09		 DB	 9
  001d3	09		 DB	 9
  001d4	09		 DB	 9
  001d5	09		 DB	 9
  001d6	09		 DB	 9
  001d7	09		 DB	 9
  001d8	09		 DB	 9
  001d9	09		 DB	 9
  001da	09		 DB	 9
  001db	09		 DB	 9
  001dc	09		 DB	 9
  001dd	09		 DB	 9
  001de	09		 DB	 9
  001df	09		 DB	 9
  001e0	09		 DB	 9
  001e1	09		 DB	 9
  001e2	09		 DB	 9
  001e3	09		 DB	 9
  001e4	09		 DB	 9
  001e5	09		 DB	 9
  001e6	09		 DB	 9
  001e7	09		 DB	 9
  001e8	09		 DB	 9
  001e9	09		 DB	 9
  001ea	09		 DB	 9
  001eb	09		 DB	 9
  001ec	09		 DB	 9
  001ed	09		 DB	 9
  001ee	09		 DB	 9
  001ef	09		 DB	 9
  001f0	09		 DB	 9
  001f1	09		 DB	 9
  001f2	09		 DB	 9
  001f3	09		 DB	 9
  001f4	09		 DB	 9
  001f5	09		 DB	 9
  001f6	09		 DB	 9
  001f7	09		 DB	 9
  001f8	09		 DB	 9
  001f9	09		 DB	 9
  001fa	09		 DB	 9
  001fb	09		 DB	 9
  001fc	09		 DB	 9
  001fd	09		 DB	 9
  001fe	09		 DB	 9
  001ff	09		 DB	 9
  00200	09		 DB	 9
  00201	09		 DB	 9
  00202	09		 DB	 9
  00203	05		 DB	 5
  00204	09		 DB	 9
  00205	09		 DB	 9
  00206	09		 DB	 9
  00207	09		 DB	 9
  00208	06		 DB	 6
  00209	09		 DB	 9
  0020a	09		 DB	 9
  0020b	09		 DB	 9
  0020c	09		 DB	 9
  0020d	09		 DB	 9
  0020e	09		 DB	 9
  0020f	09		 DB	 9
  00210	09		 DB	 9
  00211	09		 DB	 9
  00212	09		 DB	 9
  00213	09		 DB	 9
  00214	09		 DB	 9
  00215	09		 DB	 9
  00216	09		 DB	 9
  00217	09		 DB	 9
  00218	09		 DB	 9
  00219	09		 DB	 9
  0021a	09		 DB	 9
  0021b	09		 DB	 9
  0021c	09		 DB	 9
  0021d	09		 DB	 9
  0021e	09		 DB	 9
  0021f	09		 DB	 9
  00220	09		 DB	 9
  00221	09		 DB	 9
  00222	09		 DB	 9
  00223	09		 DB	 9
  00224	09		 DB	 9
  00225	09		 DB	 9
  00226	09		 DB	 9
  00227	07		 DB	 7
  00228	09		 DB	 9
  00229	09		 DB	 9
  0022a	09		 DB	 9
  0022b	09		 DB	 9
  0022c	09		 DB	 9
  0022d	09		 DB	 9
  0022e	09		 DB	 9
  0022f	09		 DB	 9
  00230	09		 DB	 9
  00231	09		 DB	 9
  00232	09		 DB	 9
  00233	09		 DB	 9
  00234	09		 DB	 9
  00235	09		 DB	 9
  00236	09		 DB	 9
  00237	09		 DB	 9
  00238	09		 DB	 9
  00239	09		 DB	 9
  0023a	09		 DB	 9
  0023b	09		 DB	 9
  0023c	09		 DB	 9
  0023d	09		 DB	 9
  0023e	09		 DB	 9
  0023f	08		 DB	 8
?set_local_int_value@@YGXPAUENTITY@@W4INT_TYPES@@H@Z ENDP ; set_local_int_value
_TEXT	ENDS
; Function compile flags: /Odtp /ZI
; File c:\users\nhv90\projects\eech\aphavoc\source\entity\special\landing\ld_int.c
;	COMDAT ?overload_landing_int_value_functions@@YGXXZ
_TEXT	SEGMENT
?overload_landing_int_value_functions@@YGXXZ PROC	; overload_landing_int_value_functions, COMDAT

; 336  : {

  00000	55		 push	 ebp
  00001	8b ec		 mov	 ebp, esp
  00003	83 ec 40	 sub	 esp, 64			; 00000040H
  00006	53		 push	 ebx
  00007	56		 push	 esi
  00008	57		 push	 edi

; 337  : 	fn_set_local_entity_raw_int_value		[ENTITY_TYPE_LANDING][INT_TYPE_ENTITY_SUB_TYPE]										= set_local_int_value;

  00009	b8 5c 04 00 00	 mov	 eax, 1116		; 0000045cH
  0000e	c1 e0 04	 shl	 eax, 4
  00011	b9 04 00 00 00	 mov	 ecx, 4
  00016	6b d1 34	 imul	 edx, ecx, 52
  00019	c7 84 10 00 00
	00 00 00 00 00
	00		 mov	 DWORD PTR ?fn_set_local_entity_raw_int_value@@3PAY0BBH@P6GXPAUENTITY@@W4INT_TYPES@@H@ZA[eax+edx], OFFSET ?set_local_int_value@@YGXPAUENTITY@@W4INT_TYPES@@H@Z ; set_local_int_value

; 338  : 	fn_set_local_entity_int_value				[ENTITY_TYPE_LANDING][INT_TYPE_ENTITY_SUB_TYPE]										= set_local_int_value;

  00024	b8 5c 04 00 00	 mov	 eax, 1116		; 0000045cH
  00029	c1 e0 04	 shl	 eax, 4
  0002c	b9 04 00 00 00	 mov	 ecx, 4
  00031	6b d1 34	 imul	 edx, ecx, 52
  00034	c7 84 10 00 00
	00 00 00 00 00
	00		 mov	 DWORD PTR ?fn_set_local_entity_int_value@@3PAY0BBH@P6GXPAUENTITY@@W4INT_TYPES@@H@ZA[eax+edx], OFFSET ?set_local_int_value@@YGXPAUENTITY@@W4INT_TYPES@@H@Z ; set_local_int_value

; 339  : 	fn_set_client_server_entity_int_value	[ENTITY_TYPE_LANDING][INT_TYPE_ENTITY_SUB_TYPE][COMMS_MODEL_SERVER]			= set_server_int_value;

  0003f	b8 b8 08 00 00	 mov	 eax, 2232		; 000008b8H
  00044	c1 e0 04	 shl	 eax, 4
  00047	b9 08 00 00 00	 mov	 ecx, 8
  0004c	6b d1 34	 imul	 edx, ecx, 52
  0004f	8d 84 10 00 00
	00 00		 lea	 eax, DWORD PTR ?fn_set_client_server_entity_int_value@@3PAY1BBH@1P6GXPAUENTITY@@W4INT_TYPES@@H@ZA[eax+edx]
  00056	b9 04 00 00 00	 mov	 ecx, 4
  0005b	6b d1 00	 imul	 edx, ecx, 0
  0005e	c7 04 10 00 00
	00 00		 mov	 DWORD PTR [eax+edx], OFFSET ?set_server_int_value@@YGXPAUENTITY@@W4INT_TYPES@@H@Z ; set_server_int_value

; 340  : 	fn_set_client_server_entity_int_value	[ENTITY_TYPE_LANDING][INT_TYPE_ENTITY_SUB_TYPE][COMMS_MODEL_CLIENT]			= set_client_int_value;

  00065	b8 b8 08 00 00	 mov	 eax, 2232		; 000008b8H
  0006a	c1 e0 04	 shl	 eax, 4
  0006d	b9 08 00 00 00	 mov	 ecx, 8
  00072	6b d1 34	 imul	 edx, ecx, 52
  00075	8d 84 10 00 00
	00 00		 lea	 eax, DWORD PTR ?fn_set_client_server_entity_int_value@@3PAY1BBH@1P6GXPAUENTITY@@W4INT_TYPES@@H@ZA[eax+edx]
  0007c	b9 04 00 00 00	 mov	 ecx, 4
  00081	c1 e1 00	 shl	 ecx, 0
  00084	c7 04 08 00 00
	00 00		 mov	 DWORD PTR [eax+ecx], OFFSET ?set_client_int_value@@YGXPAUENTITY@@W4INT_TYPES@@H@Z ; set_client_int_value

; 341  : 	fn_get_local_entity_int_value				[ENTITY_TYPE_LANDING][INT_TYPE_ENTITY_SUB_TYPE]										= get_local_int_value;

  0008b	b8 5c 04 00 00	 mov	 eax, 1116		; 0000045cH
  00090	c1 e0 04	 shl	 eax, 4
  00093	b9 04 00 00 00	 mov	 ecx, 4
  00098	6b d1 34	 imul	 edx, ecx, 52
  0009b	c7 84 10 00 00
	00 00 00 00 00
	00		 mov	 DWORD PTR ?fn_get_local_entity_int_value@@3PAY0BBH@P6GHPAUENTITY@@W4INT_TYPES@@@ZA[eax+edx], OFFSET ?get_local_int_value@@YGHPAUENTITY@@W4INT_TYPES@@@Z ; get_local_int_value

; 342  : 
; 343  : 	fn_set_local_entity_raw_int_value		[ENTITY_TYPE_LANDING][INT_TYPE_FREE_LANDING_SITES]									= set_local_int_value;

  000a6	b8 5c 04 00 00	 mov	 eax, 1116		; 0000045cH
  000ab	c1 e0 04	 shl	 eax, 4
  000ae	b9 04 00 00 00	 mov	 ecx, 4
  000b3	c1 e1 06	 shl	 ecx, 6
  000b6	c7 84 08 00 00
	00 00 00 00 00
	00		 mov	 DWORD PTR ?fn_set_local_entity_raw_int_value@@3PAY0BBH@P6GXPAUENTITY@@W4INT_TYPES@@H@ZA[eax+ecx], OFFSET ?set_local_int_value@@YGXPAUENTITY@@W4INT_TYPES@@H@Z ; set_local_int_value

; 344  : 	fn_set_local_entity_int_value				[ENTITY_TYPE_LANDING][INT_TYPE_FREE_LANDING_SITES]									= set_local_int_value;

  000c1	b8 5c 04 00 00	 mov	 eax, 1116		; 0000045cH
  000c6	c1 e0 04	 shl	 eax, 4
  000c9	b9 04 00 00 00	 mov	 ecx, 4
  000ce	c1 e1 06	 shl	 ecx, 6
  000d1	c7 84 08 00 00
	00 00 00 00 00
	00		 mov	 DWORD PTR ?fn_set_local_entity_int_value@@3PAY0BBH@P6GXPAUENTITY@@W4INT_TYPES@@H@ZA[eax+ecx], OFFSET ?set_local_int_value@@YGXPAUENTITY@@W4INT_TYPES@@H@Z ; set_local_int_value

; 345  : 	fn_set_client_server_entity_int_value	[ENTITY_TYPE_LANDING][INT_TYPE_FREE_LANDING_SITES][COMMS_MODEL_SERVER]		= set_server_int_value;

  000dc	b8 b8 08 00 00	 mov	 eax, 2232		; 000008b8H
  000e1	c1 e0 04	 shl	 eax, 4
  000e4	b9 08 00 00 00	 mov	 ecx, 8
  000e9	c1 e1 06	 shl	 ecx, 6
  000ec	8d 94 08 00 00
	00 00		 lea	 edx, DWORD PTR ?fn_set_client_server_entity_int_value@@3PAY1BBH@1P6GXPAUENTITY@@W4INT_TYPES@@H@ZA[eax+ecx]
  000f3	b8 04 00 00 00	 mov	 eax, 4
  000f8	6b c8 00	 imul	 ecx, eax, 0
  000fb	c7 04 0a 00 00
	00 00		 mov	 DWORD PTR [edx+ecx], OFFSET ?set_server_int_value@@YGXPAUENTITY@@W4INT_TYPES@@H@Z ; set_server_int_value

; 346  : 	fn_set_client_server_entity_int_value	[ENTITY_TYPE_LANDING][INT_TYPE_FREE_LANDING_SITES][COMMS_MODEL_CLIENT]		= set_client_int_value;

  00102	b8 b8 08 00 00	 mov	 eax, 2232		; 000008b8H
  00107	c1 e0 04	 shl	 eax, 4
  0010a	b9 08 00 00 00	 mov	 ecx, 8
  0010f	c1 e1 06	 shl	 ecx, 6
  00112	8d 94 08 00 00
	00 00		 lea	 edx, DWORD PTR ?fn_set_client_server_entity_int_value@@3PAY1BBH@1P6GXPAUENTITY@@W4INT_TYPES@@H@ZA[eax+ecx]
  00119	b8 04 00 00 00	 mov	 eax, 4
  0011e	c1 e0 00	 shl	 eax, 0
  00121	c7 04 02 00 00
	00 00		 mov	 DWORD PTR [edx+eax], OFFSET ?set_client_int_value@@YGXPAUENTITY@@W4INT_TYPES@@H@Z ; set_client_int_value

; 347  : 	fn_get_local_entity_int_value				[ENTITY_TYPE_LANDING][INT_TYPE_FREE_LANDING_SITES]									= get_local_int_value;

  00128	b8 5c 04 00 00	 mov	 eax, 1116		; 0000045cH
  0012d	c1 e0 04	 shl	 eax, 4
  00130	b9 04 00 00 00	 mov	 ecx, 4
  00135	c1 e1 06	 shl	 ecx, 6
  00138	c7 84 08 00 00
	00 00 00 00 00
	00		 mov	 DWORD PTR ?fn_get_local_entity_int_value@@3PAY0BBH@P6GHPAUENTITY@@W4INT_TYPES@@@ZA[eax+ecx], OFFSET ?get_local_int_value@@YGHPAUENTITY@@W4INT_TYPES@@@Z ; get_local_int_value

; 348  : 
; 349  : 	fn_set_local_entity_raw_int_value		[ENTITY_TYPE_LANDING][INT_TYPE_INSIDE_HANGAR]										= set_local_int_value;

  00143	b8 5c 04 00 00	 mov	 eax, 1116		; 0000045cH
  00148	c1 e0 04	 shl	 eax, 4
  0014b	b9 04 00 00 00	 mov	 ecx, 4
  00150	6b d1 6a	 imul	 edx, ecx, 106
  00153	c7 84 10 00 00
	00 00 00 00 00
	00		 mov	 DWORD PTR ?fn_set_local_entity_raw_int_value@@3PAY0BBH@P6GXPAUENTITY@@W4INT_TYPES@@H@ZA[eax+edx], OFFSET ?set_local_int_value@@YGXPAUENTITY@@W4INT_TYPES@@H@Z ; set_local_int_value

; 350  : 	fn_set_local_entity_int_value				[ENTITY_TYPE_LANDING][INT_TYPE_INSIDE_HANGAR]										= set_local_int_value;

  0015e	b8 5c 04 00 00	 mov	 eax, 1116		; 0000045cH
  00163	c1 e0 04	 shl	 eax, 4
  00166	b9 04 00 00 00	 mov	 ecx, 4
  0016b	6b d1 6a	 imul	 edx, ecx, 106
  0016e	c7 84 10 00 00
	00 00 00 00 00
	00		 mov	 DWORD PTR ?fn_set_local_entity_int_value@@3PAY0BBH@P6GXPAUENTITY@@W4INT_TYPES@@H@ZA[eax+edx], OFFSET ?set_local_int_value@@YGXPAUENTITY@@W4INT_TYPES@@H@Z ; set_local_int_value

; 351  : 	fn_set_client_server_entity_int_value	[ENTITY_TYPE_LANDING][INT_TYPE_INSIDE_HANGAR][COMMS_MODEL_SERVER]				= set_server_int_value;

  00179	b8 b8 08 00 00	 mov	 eax, 2232		; 000008b8H
  0017e	c1 e0 04	 shl	 eax, 4
  00181	b9 08 00 00 00	 mov	 ecx, 8
  00186	6b d1 6a	 imul	 edx, ecx, 106
  00189	8d 84 10 00 00
	00 00		 lea	 eax, DWORD PTR ?fn_set_client_server_entity_int_value@@3PAY1BBH@1P6GXPAUENTITY@@W4INT_TYPES@@H@ZA[eax+edx]
  00190	b9 04 00 00 00	 mov	 ecx, 4
  00195	6b d1 00	 imul	 edx, ecx, 0
  00198	c7 04 10 00 00
	00 00		 mov	 DWORD PTR [eax+edx], OFFSET ?set_server_int_value@@YGXPAUENTITY@@W4INT_TYPES@@H@Z ; set_server_int_value

; 352  : 	fn_set_client_server_entity_int_value	[ENTITY_TYPE_LANDING][INT_TYPE_INSIDE_HANGAR][COMMS_MODEL_CLIENT]				= set_client_int_value;

  0019f	b8 b8 08 00 00	 mov	 eax, 2232		; 000008b8H
  001a4	c1 e0 04	 shl	 eax, 4
  001a7	b9 08 00 00 00	 mov	 ecx, 8
  001ac	6b d1 6a	 imul	 edx, ecx, 106
  001af	8d 84 10 00 00
	00 00		 lea	 eax, DWORD PTR ?fn_set_client_server_entity_int_value@@3PAY1BBH@1P6GXPAUENTITY@@W4INT_TYPES@@H@ZA[eax+edx]
  001b6	b9 04 00 00 00	 mov	 ecx, 4
  001bb	c1 e1 00	 shl	 ecx, 0
  001be	c7 04 08 00 00
	00 00		 mov	 DWORD PTR [eax+ecx], OFFSET ?set_client_int_value@@YGXPAUENTITY@@W4INT_TYPES@@H@Z ; set_client_int_value

; 353  : 	fn_get_local_entity_int_value				[ENTITY_TYPE_LANDING][INT_TYPE_INSIDE_HANGAR]										= get_local_int_value;

  001c5	b8 5c 04 00 00	 mov	 eax, 1116		; 0000045cH
  001ca	c1 e0 04	 shl	 eax, 4
  001cd	b9 04 00 00 00	 mov	 ecx, 4
  001d2	6b d1 6a	 imul	 edx, ecx, 106
  001d5	c7 84 10 00 00
	00 00 00 00 00
	00		 mov	 DWORD PTR ?fn_get_local_entity_int_value@@3PAY0BBH@P6GHPAUENTITY@@W4INT_TYPES@@@ZA[eax+edx], OFFSET ?get_local_int_value@@YGHPAUENTITY@@W4INT_TYPES@@@Z ; get_local_int_value

; 354  : 
; 355  : 	fn_set_local_entity_raw_int_value		[ENTITY_TYPE_LANDING][INT_TYPE_LANDED_LOCK]											= set_local_int_value;

  001e0	b8 5c 04 00 00	 mov	 eax, 1116		; 0000045cH
  001e5	c1 e0 04	 shl	 eax, 4
  001e8	b9 04 00 00 00	 mov	 ecx, 4
  001ed	6b d1 74	 imul	 edx, ecx, 116
  001f0	c7 84 10 00 00
	00 00 00 00 00
	00		 mov	 DWORD PTR ?fn_set_local_entity_raw_int_value@@3PAY0BBH@P6GXPAUENTITY@@W4INT_TYPES@@H@ZA[eax+edx], OFFSET ?set_local_int_value@@YGXPAUENTITY@@W4INT_TYPES@@H@Z ; set_local_int_value

; 356  : 	fn_set_local_entity_int_value				[ENTITY_TYPE_LANDING][INT_TYPE_LANDED_LOCK]											= set_local_int_value;

  001fb	b8 5c 04 00 00	 mov	 eax, 1116		; 0000045cH
  00200	c1 e0 04	 shl	 eax, 4
  00203	b9 04 00 00 00	 mov	 ecx, 4
  00208	6b d1 74	 imul	 edx, ecx, 116
  0020b	c7 84 10 00 00
	00 00 00 00 00
	00		 mov	 DWORD PTR ?fn_set_local_entity_int_value@@3PAY0BBH@P6GXPAUENTITY@@W4INT_TYPES@@H@ZA[eax+edx], OFFSET ?set_local_int_value@@YGXPAUENTITY@@W4INT_TYPES@@H@Z ; set_local_int_value

; 357  : 	fn_set_client_server_entity_int_value	[ENTITY_TYPE_LANDING][INT_TYPE_LANDED_LOCK][COMMS_MODEL_SERVER]				= set_server_int_value;

  00216	b8 b8 08 00 00	 mov	 eax, 2232		; 000008b8H
  0021b	c1 e0 04	 shl	 eax, 4
  0021e	b9 08 00 00 00	 mov	 ecx, 8
  00223	6b d1 74	 imul	 edx, ecx, 116
  00226	8d 84 10 00 00
	00 00		 lea	 eax, DWORD PTR ?fn_set_client_server_entity_int_value@@3PAY1BBH@1P6GXPAUENTITY@@W4INT_TYPES@@H@ZA[eax+edx]
  0022d	b9 04 00 00 00	 mov	 ecx, 4
  00232	6b d1 00	 imul	 edx, ecx, 0
  00235	c7 04 10 00 00
	00 00		 mov	 DWORD PTR [eax+edx], OFFSET ?set_server_int_value@@YGXPAUENTITY@@W4INT_TYPES@@H@Z ; set_server_int_value

; 358  : 	fn_set_client_server_entity_int_value	[ENTITY_TYPE_LANDING][INT_TYPE_LANDED_LOCK][COMMS_MODEL_CLIENT]				= set_client_int_value;

  0023c	b8 b8 08 00 00	 mov	 eax, 2232		; 000008b8H
  00241	c1 e0 04	 shl	 eax, 4
  00244	b9 08 00 00 00	 mov	 ecx, 8
  00249	6b d1 74	 imul	 edx, ecx, 116
  0024c	8d 84 10 00 00
	00 00		 lea	 eax, DWORD PTR ?fn_set_client_server_entity_int_value@@3PAY1BBH@1P6GXPAUENTITY@@W4INT_TYPES@@H@ZA[eax+edx]
  00253	b9 04 00 00 00	 mov	 ecx, 4
  00258	c1 e1 00	 shl	 ecx, 0
  0025b	c7 04 08 00 00
	00 00		 mov	 DWORD PTR [eax+ecx], OFFSET ?set_client_int_value@@YGXPAUENTITY@@W4INT_TYPES@@H@Z ; set_client_int_value

; 359  : 	fn_get_local_entity_int_value				[ENTITY_TYPE_LANDING][INT_TYPE_LANDED_LOCK]											= get_local_int_value;

  00262	b8 5c 04 00 00	 mov	 eax, 1116		; 0000045cH
  00267	c1 e0 04	 shl	 eax, 4
  0026a	b9 04 00 00 00	 mov	 ecx, 4
  0026f	6b d1 74	 imul	 edx, ecx, 116
  00272	c7 84 10 00 00
	00 00 00 00 00
	00		 mov	 DWORD PTR ?fn_get_local_entity_int_value@@3PAY0BBH@P6GHPAUENTITY@@W4INT_TYPES@@@ZA[eax+edx], OFFSET ?get_local_int_value@@YGHPAUENTITY@@W4INT_TYPES@@@Z ; get_local_int_value

; 360  : 
; 361  : 	fn_set_local_entity_raw_int_value		[ENTITY_TYPE_LANDING][INT_TYPE_LANDING_LOCK]											= set_local_int_value;

  0027d	b8 5c 04 00 00	 mov	 eax, 1116		; 0000045cH
  00282	c1 e0 04	 shl	 eax, 4
  00285	b9 04 00 00 00	 mov	 ecx, 4
  0028a	6b d1 76	 imul	 edx, ecx, 118
  0028d	c7 84 10 00 00
	00 00 00 00 00
	00		 mov	 DWORD PTR ?fn_set_local_entity_raw_int_value@@3PAY0BBH@P6GXPAUENTITY@@W4INT_TYPES@@H@ZA[eax+edx], OFFSET ?set_local_int_value@@YGXPAUENTITY@@W4INT_TYPES@@H@Z ; set_local_int_value

; 362  : 	fn_set_local_entity_int_value				[ENTITY_TYPE_LANDING][INT_TYPE_LANDING_LOCK]											= set_local_int_value;

  00298	b8 5c 04 00 00	 mov	 eax, 1116		; 0000045cH
  0029d	c1 e0 04	 shl	 eax, 4
  002a0	b9 04 00 00 00	 mov	 ecx, 4
  002a5	6b d1 76	 imul	 edx, ecx, 118
  002a8	c7 84 10 00 00
	00 00 00 00 00
	00		 mov	 DWORD PTR ?fn_set_local_entity_int_value@@3PAY0BBH@P6GXPAUENTITY@@W4INT_TYPES@@H@ZA[eax+edx], OFFSET ?set_local_int_value@@YGXPAUENTITY@@W4INT_TYPES@@H@Z ; set_local_int_value

; 363  : 	fn_set_client_server_entity_int_value	[ENTITY_TYPE_LANDING][INT_TYPE_LANDING_LOCK][COMMS_MODEL_SERVER]				= set_server_int_value;

  002b3	b8 b8 08 00 00	 mov	 eax, 2232		; 000008b8H
  002b8	c1 e0 04	 shl	 eax, 4
  002bb	b9 08 00 00 00	 mov	 ecx, 8
  002c0	6b d1 76	 imul	 edx, ecx, 118
  002c3	8d 84 10 00 00
	00 00		 lea	 eax, DWORD PTR ?fn_set_client_server_entity_int_value@@3PAY1BBH@1P6GXPAUENTITY@@W4INT_TYPES@@H@ZA[eax+edx]
  002ca	b9 04 00 00 00	 mov	 ecx, 4
  002cf	6b d1 00	 imul	 edx, ecx, 0
  002d2	c7 04 10 00 00
	00 00		 mov	 DWORD PTR [eax+edx], OFFSET ?set_server_int_value@@YGXPAUENTITY@@W4INT_TYPES@@H@Z ; set_server_int_value

; 364  : 	fn_set_client_server_entity_int_value	[ENTITY_TYPE_LANDING][INT_TYPE_LANDING_LOCK][COMMS_MODEL_CLIENT]				= set_client_int_value;

  002d9	b8 b8 08 00 00	 mov	 eax, 2232		; 000008b8H
  002de	c1 e0 04	 shl	 eax, 4
  002e1	b9 08 00 00 00	 mov	 ecx, 8
  002e6	6b d1 76	 imul	 edx, ecx, 118
  002e9	8d 84 10 00 00
	00 00		 lea	 eax, DWORD PTR ?fn_set_client_server_entity_int_value@@3PAY1BBH@1P6GXPAUENTITY@@W4INT_TYPES@@H@ZA[eax+edx]
  002f0	b9 04 00 00 00	 mov	 ecx, 4
  002f5	c1 e1 00	 shl	 ecx, 0
  002f8	c7 04 08 00 00
	00 00		 mov	 DWORD PTR [eax+ecx], OFFSET ?set_client_int_value@@YGXPAUENTITY@@W4INT_TYPES@@H@Z ; set_client_int_value

; 365  : 	fn_get_local_entity_int_value				[ENTITY_TYPE_LANDING][INT_TYPE_LANDING_LOCK]											= get_local_int_value;

  002ff	b8 5c 04 00 00	 mov	 eax, 1116		; 0000045cH
  00304	c1 e0 04	 shl	 eax, 4
  00307	b9 04 00 00 00	 mov	 ecx, 4
  0030c	6b d1 76	 imul	 edx, ecx, 118
  0030f	c7 84 10 00 00
	00 00 00 00 00
	00		 mov	 DWORD PTR ?fn_get_local_entity_int_value@@3PAY0BBH@P6GHPAUENTITY@@W4INT_TYPES@@@ZA[eax+edx], OFFSET ?get_local_int_value@@YGHPAUENTITY@@W4INT_TYPES@@@Z ; get_local_int_value

; 366  : 
; 367  : 	fn_set_local_entity_raw_int_value		[ENTITY_TYPE_LANDING][INT_TYPE_RESERVED_LANDING_SITES]							= set_local_int_value;

  0031a	b8 5c 04 00 00	 mov	 eax, 1116		; 0000045cH
  0031f	c1 e0 04	 shl	 eax, 4
  00322	b9 04 00 00 00	 mov	 ecx, 4
  00327	69 d1 af 00 00
	00		 imul	 edx, ecx, 175
  0032d	c7 84 10 00 00
	00 00 00 00 00
	00		 mov	 DWORD PTR ?fn_set_local_entity_raw_int_value@@3PAY0BBH@P6GXPAUENTITY@@W4INT_TYPES@@H@ZA[eax+edx], OFFSET ?set_local_int_value@@YGXPAUENTITY@@W4INT_TYPES@@H@Z ; set_local_int_value

; 368  : 	fn_set_local_entity_int_value				[ENTITY_TYPE_LANDING][INT_TYPE_RESERVED_LANDING_SITES]							= set_local_int_value;

  00338	b8 5c 04 00 00	 mov	 eax, 1116		; 0000045cH
  0033d	c1 e0 04	 shl	 eax, 4
  00340	b9 04 00 00 00	 mov	 ecx, 4
  00345	69 d1 af 00 00
	00		 imul	 edx, ecx, 175
  0034b	c7 84 10 00 00
	00 00 00 00 00
	00		 mov	 DWORD PTR ?fn_set_local_entity_int_value@@3PAY0BBH@P6GXPAUENTITY@@W4INT_TYPES@@H@ZA[eax+edx], OFFSET ?set_local_int_value@@YGXPAUENTITY@@W4INT_TYPES@@H@Z ; set_local_int_value

; 369  : 	fn_set_client_server_entity_int_value	[ENTITY_TYPE_LANDING][INT_TYPE_RESERVED_LANDING_SITES][COMMS_MODEL_SERVER]	= set_server_int_value;

  00356	b8 b8 08 00 00	 mov	 eax, 2232		; 000008b8H
  0035b	c1 e0 04	 shl	 eax, 4
  0035e	b9 08 00 00 00	 mov	 ecx, 8
  00363	69 d1 af 00 00
	00		 imul	 edx, ecx, 175
  00369	8d 84 10 00 00
	00 00		 lea	 eax, DWORD PTR ?fn_set_client_server_entity_int_value@@3PAY1BBH@1P6GXPAUENTITY@@W4INT_TYPES@@H@ZA[eax+edx]
  00370	b9 04 00 00 00	 mov	 ecx, 4
  00375	6b d1 00	 imul	 edx, ecx, 0
  00378	c7 04 10 00 00
	00 00		 mov	 DWORD PTR [eax+edx], OFFSET ?set_server_int_value@@YGXPAUENTITY@@W4INT_TYPES@@H@Z ; set_server_int_value

; 370  : 	fn_set_client_server_entity_int_value	[ENTITY_TYPE_LANDING][INT_TYPE_RESERVED_LANDING_SITES][COMMS_MODEL_CLIENT]	= set_client_int_value;

  0037f	b8 b8 08 00 00	 mov	 eax, 2232		; 000008b8H
  00384	c1 e0 04	 shl	 eax, 4
  00387	b9 08 00 00 00	 mov	 ecx, 8
  0038c	69 d1 af 00 00
	00		 imul	 edx, ecx, 175
  00392	8d 84 10 00 00
	00 00		 lea	 eax, DWORD PTR ?fn_set_client_server_entity_int_value@@3PAY1BBH@1P6GXPAUENTITY@@W4INT_TYPES@@H@ZA[eax+edx]
  00399	b9 04 00 00 00	 mov	 ecx, 4
  0039e	c1 e1 00	 shl	 ecx, 0
  003a1	c7 04 08 00 00
	00 00		 mov	 DWORD PTR [eax+ecx], OFFSET ?set_client_int_value@@YGXPAUENTITY@@W4INT_TYPES@@H@Z ; set_client_int_value

; 371  : 	fn_get_local_entity_int_value				[ENTITY_TYPE_LANDING][INT_TYPE_RESERVED_LANDING_SITES]							= get_local_int_value;

  003a8	b8 5c 04 00 00	 mov	 eax, 1116		; 0000045cH
  003ad	c1 e0 04	 shl	 eax, 4
  003b0	b9 04 00 00 00	 mov	 ecx, 4
  003b5	69 d1 af 00 00
	00		 imul	 edx, ecx, 175
  003bb	c7 84 10 00 00
	00 00 00 00 00
	00		 mov	 DWORD PTR ?fn_get_local_entity_int_value@@3PAY0BBH@P6GHPAUENTITY@@W4INT_TYPES@@@ZA[eax+edx], OFFSET ?get_local_int_value@@YGHPAUENTITY@@W4INT_TYPES@@@Z ; get_local_int_value

; 372  : 
; 373  : 	fn_set_local_entity_raw_int_value		[ENTITY_TYPE_LANDING][INT_TYPE_ROUTE_NODE]											= set_local_int_value;

  003c6	b8 5c 04 00 00	 mov	 eax, 1116		; 0000045cH
  003cb	c1 e0 04	 shl	 eax, 4
  003ce	b9 04 00 00 00	 mov	 ecx, 4
  003d3	69 d1 b4 00 00
	00		 imul	 edx, ecx, 180
  003d9	c7 84 10 00 00
	00 00 00 00 00
	00		 mov	 DWORD PTR ?fn_set_local_entity_raw_int_value@@3PAY0BBH@P6GXPAUENTITY@@W4INT_TYPES@@H@ZA[eax+edx], OFFSET ?set_local_int_value@@YGXPAUENTITY@@W4INT_TYPES@@H@Z ; set_local_int_value

; 374  : 	fn_set_local_entity_int_value				[ENTITY_TYPE_LANDING][INT_TYPE_ROUTE_NODE]											= set_local_int_value;

  003e4	b8 5c 04 00 00	 mov	 eax, 1116		; 0000045cH
  003e9	c1 e0 04	 shl	 eax, 4
  003ec	b9 04 00 00 00	 mov	 ecx, 4
  003f1	69 d1 b4 00 00
	00		 imul	 edx, ecx, 180
  003f7	c7 84 10 00 00
	00 00 00 00 00
	00		 mov	 DWORD PTR ?fn_set_local_entity_int_value@@3PAY0BBH@P6GXPAUENTITY@@W4INT_TYPES@@H@ZA[eax+edx], OFFSET ?set_local_int_value@@YGXPAUENTITY@@W4INT_TYPES@@H@Z ; set_local_int_value

; 375  : 	fn_set_client_server_entity_int_value	[ENTITY_TYPE_LANDING][INT_TYPE_ROUTE_NODE][COMMS_MODEL_SERVER]					= set_server_int_value;

  00402	b8 b8 08 00 00	 mov	 eax, 2232		; 000008b8H
  00407	c1 e0 04	 shl	 eax, 4
  0040a	b9 08 00 00 00	 mov	 ecx, 8
  0040f	69 d1 b4 00 00
	00		 imul	 edx, ecx, 180
  00415	8d 84 10 00 00
	00 00		 lea	 eax, DWORD PTR ?fn_set_client_server_entity_int_value@@3PAY1BBH@1P6GXPAUENTITY@@W4INT_TYPES@@H@ZA[eax+edx]
  0041c	b9 04 00 00 00	 mov	 ecx, 4
  00421	6b d1 00	 imul	 edx, ecx, 0
  00424	c7 04 10 00 00
	00 00		 mov	 DWORD PTR [eax+edx], OFFSET ?set_server_int_value@@YGXPAUENTITY@@W4INT_TYPES@@H@Z ; set_server_int_value

; 376  : 	fn_set_client_server_entity_int_value	[ENTITY_TYPE_LANDING][INT_TYPE_ROUTE_NODE][COMMS_MODEL_CLIENT]					= set_client_int_value;

  0042b	b8 b8 08 00 00	 mov	 eax, 2232		; 000008b8H
  00430	c1 e0 04	 shl	 eax, 4
  00433	b9 08 00 00 00	 mov	 ecx, 8
  00438	69 d1 b4 00 00
	00		 imul	 edx, ecx, 180
  0043e	8d 84 10 00 00
	00 00		 lea	 eax, DWORD PTR ?fn_set_client_server_entity_int_value@@3PAY1BBH@1P6GXPAUENTITY@@W4INT_TYPES@@H@ZA[eax+edx]
  00445	b9 04 00 00 00	 mov	 ecx, 4
  0044a	c1 e1 00	 shl	 ecx, 0
  0044d	c7 04 08 00 00
	00 00		 mov	 DWORD PTR [eax+ecx], OFFSET ?set_client_int_value@@YGXPAUENTITY@@W4INT_TYPES@@H@Z ; set_client_int_value

; 377  : 	fn_get_local_entity_int_value				[ENTITY_TYPE_LANDING][INT_TYPE_ROUTE_NODE]											= get_local_int_value;

  00454	b8 5c 04 00 00	 mov	 eax, 1116		; 0000045cH
  00459	c1 e0 04	 shl	 eax, 4
  0045c	b9 04 00 00 00	 mov	 ecx, 4
  00461	69 d1 b4 00 00
	00		 imul	 edx, ecx, 180
  00467	c7 84 10 00 00
	00 00 00 00 00
	00		 mov	 DWORD PTR ?fn_get_local_entity_int_value@@3PAY0BBH@P6GHPAUENTITY@@W4INT_TYPES@@@ZA[eax+edx], OFFSET ?get_local_int_value@@YGHPAUENTITY@@W4INT_TYPES@@@Z ; get_local_int_value

; 378  : 
; 379  : 	fn_set_local_entity_raw_int_value		[ENTITY_TYPE_LANDING][INT_TYPE_TOTAL_LANDING_SITES]								= set_local_int_value;

  00472	b8 5c 04 00 00	 mov	 eax, 1116		; 0000045cH
  00477	c1 e0 04	 shl	 eax, 4
  0047a	b9 04 00 00 00	 mov	 ecx, 4
  0047f	69 d1 eb 00 00
	00		 imul	 edx, ecx, 235
  00485	c7 84 10 00 00
	00 00 00 00 00
	00		 mov	 DWORD PTR ?fn_set_local_entity_raw_int_value@@3PAY0BBH@P6GXPAUENTITY@@W4INT_TYPES@@H@ZA[eax+edx], OFFSET ?set_local_int_value@@YGXPAUENTITY@@W4INT_TYPES@@H@Z ; set_local_int_value

; 380  : 	fn_set_local_entity_int_value				[ENTITY_TYPE_LANDING][INT_TYPE_TOTAL_LANDING_SITES]								= set_local_int_value;

  00490	b8 5c 04 00 00	 mov	 eax, 1116		; 0000045cH
  00495	c1 e0 04	 shl	 eax, 4
  00498	b9 04 00 00 00	 mov	 ecx, 4
  0049d	69 d1 eb 00 00
	00		 imul	 edx, ecx, 235
  004a3	c7 84 10 00 00
	00 00 00 00 00
	00		 mov	 DWORD PTR ?fn_set_local_entity_int_value@@3PAY0BBH@P6GXPAUENTITY@@W4INT_TYPES@@H@ZA[eax+edx], OFFSET ?set_local_int_value@@YGXPAUENTITY@@W4INT_TYPES@@H@Z ; set_local_int_value

; 381  : 	fn_set_client_server_entity_int_value	[ENTITY_TYPE_LANDING][INT_TYPE_TOTAL_LANDING_SITES][COMMS_MODEL_SERVER]		= set_server_int_value;

  004ae	b8 b8 08 00 00	 mov	 eax, 2232		; 000008b8H
  004b3	c1 e0 04	 shl	 eax, 4
  004b6	b9 08 00 00 00	 mov	 ecx, 8
  004bb	69 d1 eb 00 00
	00		 imul	 edx, ecx, 235
  004c1	8d 84 10 00 00
	00 00		 lea	 eax, DWORD PTR ?fn_set_client_server_entity_int_value@@3PAY1BBH@1P6GXPAUENTITY@@W4INT_TYPES@@H@ZA[eax+edx]
  004c8	b9 04 00 00 00	 mov	 ecx, 4
  004cd	6b d1 00	 imul	 edx, ecx, 0
  004d0	c7 04 10 00 00
	00 00		 mov	 DWORD PTR [eax+edx], OFFSET ?set_server_int_value@@YGXPAUENTITY@@W4INT_TYPES@@H@Z ; set_server_int_value

; 382  : 	fn_set_client_server_entity_int_value	[ENTITY_TYPE_LANDING][INT_TYPE_TOTAL_LANDING_SITES][COMMS_MODEL_CLIENT]		= set_client_int_value;

  004d7	b8 b8 08 00 00	 mov	 eax, 2232		; 000008b8H
  004dc	c1 e0 04	 shl	 eax, 4
  004df	b9 08 00 00 00	 mov	 ecx, 8
  004e4	69 d1 eb 00 00
	00		 imul	 edx, ecx, 235
  004ea	8d 84 10 00 00
	00 00		 lea	 eax, DWORD PTR ?fn_set_client_server_entity_int_value@@3PAY1BBH@1P6GXPAUENTITY@@W4INT_TYPES@@H@ZA[eax+edx]
  004f1	b9 04 00 00 00	 mov	 ecx, 4
  004f6	c1 e1 00	 shl	 ecx, 0
  004f9	c7 04 08 00 00
	00 00		 mov	 DWORD PTR [eax+ecx], OFFSET ?set_client_int_value@@YGXPAUENTITY@@W4INT_TYPES@@H@Z ; set_client_int_value

; 383  : 	fn_get_local_entity_int_value				[ENTITY_TYPE_LANDING][INT_TYPE_TOTAL_LANDING_SITES]								= get_local_int_value;

  00500	b8 5c 04 00 00	 mov	 eax, 1116		; 0000045cH
  00505	c1 e0 04	 shl	 eax, 4
  00508	b9 04 00 00 00	 mov	 ecx, 4
  0050d	69 d1 eb 00 00
	00		 imul	 edx, ecx, 235
  00513	c7 84 10 00 00
	00 00 00 00 00
	00		 mov	 DWORD PTR ?fn_get_local_entity_int_value@@3PAY0BBH@P6GHPAUENTITY@@W4INT_TYPES@@@ZA[eax+edx], OFFSET ?get_local_int_value@@YGHPAUENTITY@@W4INT_TYPES@@@Z ; get_local_int_value

; 384  : 
; 385  : 	fn_set_local_entity_raw_int_value		[ENTITY_TYPE_LANDING][INT_TYPE_TAKEOFF_LOCK]											= set_local_int_value;

  0051e	b8 5c 04 00 00	 mov	 eax, 1116		; 0000045cH
  00523	c1 e0 04	 shl	 eax, 4
  00526	b9 04 00 00 00	 mov	 ecx, 4
  0052b	69 d1 d3 00 00
	00		 imul	 edx, ecx, 211
  00531	c7 84 10 00 00
	00 00 00 00 00
	00		 mov	 DWORD PTR ?fn_set_local_entity_raw_int_value@@3PAY0BBH@P6GXPAUENTITY@@W4INT_TYPES@@H@ZA[eax+edx], OFFSET ?set_local_int_value@@YGXPAUENTITY@@W4INT_TYPES@@H@Z ; set_local_int_value

; 386  : 	fn_set_local_entity_int_value				[ENTITY_TYPE_LANDING][INT_TYPE_TAKEOFF_LOCK]											= set_local_int_value;

  0053c	b8 5c 04 00 00	 mov	 eax, 1116		; 0000045cH
  00541	c1 e0 04	 shl	 eax, 4
  00544	b9 04 00 00 00	 mov	 ecx, 4
  00549	69 d1 d3 00 00
	00		 imul	 edx, ecx, 211
  0054f	c7 84 10 00 00
	00 00 00 00 00
	00		 mov	 DWORD PTR ?fn_set_local_entity_int_value@@3PAY0BBH@P6GXPAUENTITY@@W4INT_TYPES@@H@ZA[eax+edx], OFFSET ?set_local_int_value@@YGXPAUENTITY@@W4INT_TYPES@@H@Z ; set_local_int_value

; 387  : 	fn_set_client_server_entity_int_value	[ENTITY_TYPE_LANDING][INT_TYPE_TAKEOFF_LOCK][COMMS_MODEL_SERVER]				= set_server_int_value;

  0055a	b8 b8 08 00 00	 mov	 eax, 2232		; 000008b8H
  0055f	c1 e0 04	 shl	 eax, 4
  00562	b9 08 00 00 00	 mov	 ecx, 8
  00567	69 d1 d3 00 00
	00		 imul	 edx, ecx, 211
  0056d	8d 84 10 00 00
	00 00		 lea	 eax, DWORD PTR ?fn_set_client_server_entity_int_value@@3PAY1BBH@1P6GXPAUENTITY@@W4INT_TYPES@@H@ZA[eax+edx]
  00574	b9 04 00 00 00	 mov	 ecx, 4
  00579	6b d1 00	 imul	 edx, ecx, 0
  0057c	c7 04 10 00 00
	00 00		 mov	 DWORD PTR [eax+edx], OFFSET ?set_server_int_value@@YGXPAUENTITY@@W4INT_TYPES@@H@Z ; set_server_int_value

; 388  : 	fn_set_client_server_entity_int_value	[ENTITY_TYPE_LANDING][INT_TYPE_TAKEOFF_LOCK][COMMS_MODEL_CLIENT]				= set_client_int_value;

  00583	b8 b8 08 00 00	 mov	 eax, 2232		; 000008b8H
  00588	c1 e0 04	 shl	 eax, 4
  0058b	b9 08 00 00 00	 mov	 ecx, 8
  00590	69 d1 d3 00 00
	00		 imul	 edx, ecx, 211
  00596	8d 84 10 00 00
	00 00		 lea	 eax, DWORD PTR ?fn_set_client_server_entity_int_value@@3PAY1BBH@1P6GXPAUENTITY@@W4INT_TYPES@@H@ZA[eax+edx]
  0059d	b9 04 00 00 00	 mov	 ecx, 4
  005a2	c1 e1 00	 shl	 ecx, 0
  005a5	c7 04 08 00 00
	00 00		 mov	 DWORD PTR [eax+ecx], OFFSET ?set_client_int_value@@YGXPAUENTITY@@W4INT_TYPES@@H@Z ; set_client_int_value

; 389  : 	fn_get_local_entity_int_value				[ENTITY_TYPE_LANDING][INT_TYPE_TAKEOFF_LOCK]											= get_local_int_value;

  005ac	b8 5c 04 00 00	 mov	 eax, 1116		; 0000045cH
  005b1	c1 e0 04	 shl	 eax, 4
  005b4	b9 04 00 00 00	 mov	 ecx, 4
  005b9	69 d1 d3 00 00
	00		 imul	 edx, ecx, 211
  005bf	c7 84 10 00 00
	00 00 00 00 00
	00		 mov	 DWORD PTR ?fn_get_local_entity_int_value@@3PAY0BBH@P6GHPAUENTITY@@W4INT_TYPES@@@ZA[eax+edx], OFFSET ?get_local_int_value@@YGHPAUENTITY@@W4INT_TYPES@@@Z ; get_local_int_value

; 390  : }

  005ca	5f		 pop	 edi
  005cb	5e		 pop	 esi
  005cc	5b		 pop	 ebx
  005cd	8b e5		 mov	 esp, ebp
  005cf	5d		 pop	 ebp
  005d0	c3		 ret	 0
?overload_landing_int_value_functions@@YGXXZ ENDP	; overload_landing_int_value_functions
_TEXT	ENDS
END
