; Listing generated by Microsoft (R) Optimizing Compiler Version 19.16.27045.0 

	TITLE	C:\Users\nhv90\Projects\eech\aphavoc\source\ui_menu\loading\load_sc.c
	.686P
	.XMM
	include listing.inc
	.model	flat

INCLUDELIB MSVCRTD
INCLUDELIB OLDNAMES

PUBLIC	?loading_screen@@3PAUUI_OBJECT@@A		; loading_screen
PUBLIC	?loading_text@@3PAUUI_OBJECT@@A			; loading_text
PUBLIC	?demoload_screen_graphic@@3PAUTEXTURE_GRAPHIC@@A ; demoload_screen_graphic
_BSS	SEGMENT
?loading_screen@@3PAUUI_OBJECT@@A DD 01H DUP (?)	; loading_screen
?loading_text@@3PAUUI_OBJECT@@A DD 01H DUP (?)		; loading_text
?demoload_screen_graphic@@3PAUTEXTURE_GRAPHIC@@A DD 01H DUP (?) ; demoload_screen_graphic
_BSS	ENDS
PUBLIC	?initialise_loading_screen@@YGXXZ		; initialise_loading_screen
PUBLIC	??_C@_07BINAGFIJ@Loading@			; `string'
PUBLIC	??_C@_0CB@LNCFAAHD@graphics?2ui?2cohokum?2demoload?4ps@ ; `string'
PUBLIC	__real@3d800000
PUBLIC	__real@3e0d4fdf
PUBLIC	__real@3e4ccccd
PUBLIC	__real@3f1eb852
PUBLIC	__real@3ff0000000000000
EXTRN	?blit_front_buffer_to_render_buffer@@YGXXZ:PROC	; blit_front_buffer_to_render_buffer
EXTRN	?create_texture_graphic@@YGPAUTEXTURE_GRAPHIC@@PBD@Z:PROC ; create_texture_graphic
EXTRN	?destroy_texture_graphic@@YGXPAUTEXTURE_GRAPHIC@@@Z:PROC ; destroy_texture_graphic
EXTRN	?create_ui_object@@YAPAUUI_OBJECT@@HZZ:PROC	; create_ui_object
EXTRN	?reset_time_values@@YGXPAUUI_OBJECT@@@Z:PROC	; reset_time_values
EXTRN	?get_trans@@YGPBDPBD@Z:PROC			; get_trans
EXTRN	?fn_set_ui_object_drawable@@3PAP6GXPAUUI_OBJECT@@H@ZA:BYTE ; fn_set_ui_object_drawable
EXTRN	?fn_get_ui_object_drawable@@3PAP6GHPAUUI_OBJECT@@@ZA:BYTE ; fn_get_ui_object_drawable
EXTRN	?fn_set_ui_object_texture_graphic@@3PAP6GXPAUUI_OBJECT@@PAUTEXTURE_GRAPHIC@@@ZA:BYTE ; fn_set_ui_object_texture_graphic
EXTRN	?ui_option_title_text_colour@@3UREAL_COLOUR@@A:DWORD ; ui_option_title_text_colour
EXTRN	?global_options@@3UGLOBAL_OPTIONS_DATA@@A:BYTE	; global_options
EXTRN	?game_type@@3W4GAME_TYPES@@A:DWORD		; game_type
EXTRN	__fltused:DWORD
;	COMDAT __real@3ff0000000000000
CONST	SEGMENT
__real@3ff0000000000000 DQ 03ff0000000000000r	; 1
CONST	ENDS
;	COMDAT __real@3f1eb852
CONST	SEGMENT
__real@3f1eb852 DD 03f1eb852r			; 0.62
CONST	ENDS
;	COMDAT __real@3e4ccccd
CONST	SEGMENT
__real@3e4ccccd DD 03e4ccccdr			; 0.2
CONST	ENDS
;	COMDAT __real@3e0d4fdf
CONST	SEGMENT
__real@3e0d4fdf DD 03e0d4fdfr			; 0.138
CONST	ENDS
;	COMDAT __real@3d800000
CONST	SEGMENT
__real@3d800000 DD 03d800000r			; 0.0625
CONST	ENDS
;	COMDAT ??_C@_0CB@LNCFAAHD@graphics?2ui?2cohokum?2demoload?4ps@
CONST	SEGMENT
??_C@_0CB@LNCFAAHD@graphics?2ui?2cohokum?2demoload?4ps@ DB 'graphics\ui\c'
	DB	'ohokum\demoload.psd', 00H			; `string'
CONST	ENDS
;	COMDAT ??_C@_07BINAGFIJ@Loading@
CONST	SEGMENT
??_C@_07BINAGFIJ@Loading@ DB 'Loading', 00H		; `string'
CONST	ENDS
; Function compile flags: /Odtp /ZI
; File c:\users\nhv90\projects\eech\aphavoc\source\ui_menu\loading\load_sc.c
;	COMDAT ?initialise_demoload_graphic@@YGXPAUUI_OBJECT@@@Z
_TEXT	SEGMENT
_obj$ = 8						; size = 4
?initialise_demoload_graphic@@YGXPAUUI_OBJECT@@@Z PROC	; initialise_demoload_graphic, COMDAT

; 138  : {

  00000	55		 push	 ebp
  00001	8b ec		 mov	 ebp, esp
  00003	83 ec 40	 sub	 esp, 64			; 00000040H
  00006	53		 push	 ebx
  00007	56		 push	 esi
  00008	57		 push	 edi

; 139  : 	if ( get_ui_object_drawable ( obj ) )

  00009	8b 45 08	 mov	 eax, DWORD PTR _obj$[ebp]
  0000c	50		 push	 eax
  0000d	8b 4d 08	 mov	 ecx, DWORD PTR _obj$[ebp]
  00010	8b 11		 mov	 edx, DWORD PTR [ecx]
  00012	8b 04 95 00 00
	00 00		 mov	 eax, DWORD PTR ?fn_get_ui_object_drawable@@3PAP6GHPAUUI_OBJECT@@@ZA[edx*4]
  00019	ff d0		 call	 eax
  0001b	85 c0		 test	 eax, eax
  0001d	74 5d		 je	 SHORT $LN2@initialise

; 140  : 	{
; 141  : 		
; 142  : 		//
; 143  : 		// Setup screen graphics
; 144  : 		//
; 145  : 	
; 146  : 		blit_front_buffer_to_render_buffer ();

  0001f	e8 00 00 00 00	 call	 ?blit_front_buffer_to_render_buffer@@YGXXZ ; blit_front_buffer_to_render_buffer

; 147  : 	
; 148  : 		if (demoload_screen_graphic)

  00024	83 3d 00 00 00
	00 00		 cmp	 DWORD PTR ?demoload_screen_graphic@@3PAUTEXTURE_GRAPHIC@@A, 0 ; demoload_screen_graphic
  0002b	74 15		 je	 SHORT $LN4@initialise

; 149  : 		{
; 150  : 		
; 151  : 			destroy_texture_graphic (demoload_screen_graphic);

  0002d	a1 00 00 00 00	 mov	 eax, DWORD PTR ?demoload_screen_graphic@@3PAUTEXTURE_GRAPHIC@@A ; demoload_screen_graphic
  00032	50		 push	 eax
  00033	e8 00 00 00 00	 call	 ?destroy_texture_graphic@@YGXPAUTEXTURE_GRAPHIC@@@Z ; destroy_texture_graphic

; 152  : 	
; 153  : 			demoload_screen_graphic = NULL;

  00038	c7 05 00 00 00
	00 00 00 00 00	 mov	 DWORD PTR ?demoload_screen_graphic@@3PAUTEXTURE_GRAPHIC@@A, 0 ; demoload_screen_graphic
$LN4@initialise:

; 154  : 		}
; 155  : 		
; 156  : 		demoload_screen_graphic = create_texture_graphic ("graphics\\ui\\cohokum\\demoload.psd");

  00042	68 00 00 00 00	 push	 OFFSET ??_C@_0CB@LNCFAAHD@graphics?2ui?2cohokum?2demoload?4ps@
  00047	e8 00 00 00 00	 call	 ?create_texture_graphic@@YGPAUTEXTURE_GRAPHIC@@PBD@Z ; create_texture_graphic
  0004c	a3 00 00 00 00	 mov	 DWORD PTR ?demoload_screen_graphic@@3PAUTEXTURE_GRAPHIC@@A, eax ; demoload_screen_graphic

; 157  : 		
; 158  : 		set_ui_object_texture_graphic (loading_screen, demoload_screen_graphic);

  00051	a1 00 00 00 00	 mov	 eax, DWORD PTR ?demoload_screen_graphic@@3PAUTEXTURE_GRAPHIC@@A ; demoload_screen_graphic
  00056	50		 push	 eax
  00057	8b 0d 00 00 00
	00		 mov	 ecx, DWORD PTR ?loading_screen@@3PAUUI_OBJECT@@A ; loading_screen
  0005d	51		 push	 ecx
  0005e	8b 15 00 00 00
	00		 mov	 edx, DWORD PTR ?loading_screen@@3PAUUI_OBJECT@@A ; loading_screen
  00064	8b 02		 mov	 eax, DWORD PTR [edx]
  00066	8b 0c 85 00 00
	00 00		 mov	 ecx, DWORD PTR ?fn_set_ui_object_texture_graphic@@3PAP6GXPAUUI_OBJECT@@PAUTEXTURE_GRAPHIC@@@ZA[eax*4]
  0006d	ff d1		 call	 ecx

; 159  : 		
; 160  : 		reset_time_values (loading_screen);

  0006f	a1 00 00 00 00	 mov	 eax, DWORD PTR ?loading_screen@@3PAUUI_OBJECT@@A ; loading_screen
  00074	50		 push	 eax
  00075	e8 00 00 00 00	 call	 ?reset_time_values@@YGXPAUUI_OBJECT@@@Z ; reset_time_values

; 161  : 	}
; 162  : 	else

  0007a	eb 1e		 jmp	 SHORT $LN1@initialise
$LN2@initialise:

; 163  : 	{
; 164  : 
; 165  : 		if (demoload_screen_graphic)

  0007c	83 3d 00 00 00
	00 00		 cmp	 DWORD PTR ?demoload_screen_graphic@@3PAUTEXTURE_GRAPHIC@@A, 0 ; demoload_screen_graphic
  00083	74 15		 je	 SHORT $LN1@initialise

; 166  : 		{
; 167  : 	
; 168  : 			destroy_texture_graphic (demoload_screen_graphic);

  00085	a1 00 00 00 00	 mov	 eax, DWORD PTR ?demoload_screen_graphic@@3PAUTEXTURE_GRAPHIC@@A ; demoload_screen_graphic
  0008a	50		 push	 eax
  0008b	e8 00 00 00 00	 call	 ?destroy_texture_graphic@@YGXPAUTEXTURE_GRAPHIC@@@Z ; destroy_texture_graphic

; 169  : 
; 170  : 			demoload_screen_graphic = NULL;

  00090	c7 05 00 00 00
	00 00 00 00 00	 mov	 DWORD PTR ?demoload_screen_graphic@@3PAUTEXTURE_GRAPHIC@@A, 0 ; demoload_screen_graphic
$LN1@initialise:

; 171  : 		}
; 172  : 	}
; 173  : }

  0009a	5f		 pop	 edi
  0009b	5e		 pop	 esi
  0009c	5b		 pop	 ebx
  0009d	8b e5		 mov	 esp, ebp
  0009f	5d		 pop	 ebp
  000a0	c2 04 00	 ret	 4
?initialise_demoload_graphic@@YGXPAUUI_OBJECT@@@Z ENDP	; initialise_demoload_graphic
_TEXT	ENDS
; Function compile flags: /Odtp /ZI
; File c:\users\nhv90\projects\eech\aphavoc\source\ui_menu\loading\load_sc.c
;	COMDAT ?loading_function@@YGXPAUUI_OBJECT@@PAX@Z
_TEXT	SEGMENT
tv76 = -68						; size = 4
tv64 = -68						; size = 4
_obj$ = 8						; size = 4
_arg$ = 12						; size = 4
?loading_function@@YGXPAUUI_OBJECT@@PAX@Z PROC		; loading_function, COMDAT

; 180  : {

  00000	55		 push	 ebp
  00001	8b ec		 mov	 ebp, esp
  00003	83 ec 44	 sub	 esp, 68			; 00000044H
  00006	53		 push	 ebx
  00007	56		 push	 esi
  00008	57		 push	 edi

; 181  : 
; 182  : 	switch (get_game_type ())

  00009	a1 00 00 00 00	 mov	 eax, DWORD PTR ?game_type@@3W4GAME_TYPES@@A ; game_type
  0000e	89 45 bc	 mov	 DWORD PTR tv64[ebp], eax
  00011	83 7d bc 04	 cmp	 DWORD PTR tv64[ebp], 4
  00015	74 02		 je	 SHORT $LN6@loading_fu
  00017	eb 24		 jmp	 SHORT $LN7@loading_fu
$LN6@loading_fu:

; 183  : 	{
; 184  : 
; 185  : 		case GAME_TYPE_DEMO:
; 186  : 		{
; 187  : 
; 188  : 			initialise_demoload_graphic (obj);

  00019	8b 45 08	 mov	 eax, DWORD PTR _obj$[ebp]
  0001c	50		 push	 eax
  0001d	e8 00 00 00 00	 call	 ?initialise_demoload_graphic@@YGXPAUUI_OBJECT@@@Z ; initialise_demoload_graphic

; 189  : 
; 190  : 			set_ui_object_drawable (loading_text, TRUE);

  00022	6a 01		 push	 1
  00024	a1 00 00 00 00	 mov	 eax, DWORD PTR ?loading_text@@3PAUUI_OBJECT@@A ; loading_text
  00029	50		 push	 eax
  0002a	8b 0d 00 00 00
	00		 mov	 ecx, DWORD PTR ?loading_text@@3PAUUI_OBJECT@@A ; loading_text
  00030	8b 11		 mov	 edx, DWORD PTR [ecx]
  00032	8b 04 95 00 00
	00 00		 mov	 eax, DWORD PTR ?fn_set_ui_object_drawable@@3PAP6GXPAUUI_OBJECT@@H@ZA[edx*4]
  00039	ff d0		 call	 eax

; 191  : 
; 192  : 			break;

  0003b	eb 21		 jmp	 SHORT $LN1@loading_fu
$LN7@loading_fu:

; 193  : 		}
; 194  : 
; 195  : 		case GAME_TYPE_CAMPAIGN:
; 196  : 		case GAME_TYPE_SKIRMISH:
; 197  : 		case GAME_TYPE_FREE_FLIGHT:
; 198  : 		default:
; 199  : 		{
; 200  : 
; 201  : 			set_ui_object_drawable (loading_text, FALSE);

  0003d	6a 00		 push	 0
  0003f	a1 00 00 00 00	 mov	 eax, DWORD PTR ?loading_text@@3PAUUI_OBJECT@@A ; loading_text
  00044	50		 push	 eax
  00045	8b 0d 00 00 00
	00		 mov	 ecx, DWORD PTR ?loading_text@@3PAUUI_OBJECT@@A ; loading_text
  0004b	8b 11		 mov	 edx, DWORD PTR [ecx]
  0004d	8b 04 95 00 00
	00 00		 mov	 eax, DWORD PTR ?fn_set_ui_object_drawable@@3PAP6GXPAUUI_OBJECT@@H@ZA[edx*4]
  00054	ff d0		 call	 eax

; 202  : 
; 203  : 			switch (global_options.gunship_type)

  00056	a1 0c 00 00 00	 mov	 eax, DWORD PTR ?global_options@@3UGLOBAL_OPTIONS_DATA@@A+12
  0005b	89 45 bc	 mov	 DWORD PTR tv76[ebp], eax
$LN1@loading_fu:

; 204  : 			{
; 205  : 		
; 206  : 				case GUNSHIP_TYPE_APACHE:
; 207  : 				{
; 208  : 		
; 209  : 					//set_ui_object_graphic (loading_screen, (unsigned short int *) get_graphics_file_data (GRAPHICS_UI_APACHE_LOADING_SCREEN));
; 210  : 		
; 211  : 					break;
; 212  : 				}
; 213  : 		
; 214  : 				case GUNSHIP_TYPE_HAVOC:
; 215  : 				{
; 216  : 		
; 217  : 					//set_ui_object_graphic (loading_screen, (unsigned short int *) get_graphics_file_data (GRAPHICS_UI_HAVOC_LOADING_SCREEN));
; 218  : 		
; 219  : 					break;
; 220  : 				} 
; 221  : 			}
; 222  : 
; 223  : 			break;
; 224  : 		}
; 225  : 	}
; 226  : }

  0005e	5f		 pop	 edi
  0005f	5e		 pop	 esi
  00060	5b		 pop	 ebx
  00061	8b e5		 mov	 esp, ebp
  00063	5d		 pop	 ebp
  00064	c2 08 00	 ret	 8
?loading_function@@YGXPAUUI_OBJECT@@PAX@Z ENDP		; loading_function
_TEXT	ENDS
; Function compile flags: /Odtp /ZI
; File c:\users\nhv90\projects\eech\aphavoc\source\ui_menu\loading\load_sc.c
;	COMDAT ?initialise_loading_screen@@YGXXZ
_TEXT	SEGMENT
_y2$ = -16						; size = 4
_x2$ = -12						; size = 4
_y1$ = -8						; size = 4
_x1$ = -4						; size = 4
?initialise_loading_screen@@YGXXZ PROC			; initialise_loading_screen, COMDAT

; 93   : {

  00000	55		 push	 ebp
  00001	8b ec		 mov	 ebp, esp
  00003	83 ec 50	 sub	 esp, 80			; 00000050H
  00006	53		 push	 ebx
  00007	56		 push	 esi
  00008	57		 push	 edi

; 94   : 	float
; 95   : 		x1,
; 96   : 		y1,
; 97   : 		x2,
; 98   : 		y2;
; 99   : 
; 100  : 	loading_screen = create_ui_object

  00009	6a 11		 push	 17			; 00000011H
  0000b	68 00 00 00 00	 push	 OFFSET ?loading_function@@YGXPAUUI_OBJECT@@PAX@Z ; loading_function
  00010	6a 16		 push	 22			; 00000016H
  00012	83 ec 08	 sub	 esp, 8
  00015	f2 0f 10 05 00
	00 00 00	 movsd	 xmm0, QWORD PTR __real@3ff0000000000000
  0001d	f2 0f 11 04 24	 movsd	 QWORD PTR [esp], xmm0
  00022	83 ec 08	 sub	 esp, 8
  00025	f2 0f 10 05 00
	00 00 00	 movsd	 xmm0, QWORD PTR __real@3ff0000000000000
  0002d	f2 0f 11 04 24	 movsd	 QWORD PTR [esp], xmm0
  00032	6a 59		 push	 89			; 00000059H
  00034	83 ec 08	 sub	 esp, 8
  00037	0f 57 c0	 xorps	 xmm0, xmm0
  0003a	f2 0f 11 04 24	 movsd	 QWORD PTR [esp], xmm0
  0003f	83 ec 08	 sub	 esp, 8
  00042	0f 57 c0	 xorps	 xmm0, xmm0
  00045	f2 0f 11 04 24	 movsd	 QWORD PTR [esp], xmm0
  0004a	6a 58		 push	 88			; 00000058H
  0004c	6a 06		 push	 6
  0004e	e8 00 00 00 00	 call	 ?create_ui_object@@YAPAUUI_OBJECT@@HZZ ; create_ui_object
  00053	83 c4 38	 add	 esp, 56			; 00000038H
  00056	a3 00 00 00 00	 mov	 DWORD PTR ?loading_screen@@3PAUUI_OBJECT@@A, eax ; loading_screen

; 101  : 		(
; 102  : 			UI_TYPE_SCREEN,
; 103  : 			UI_ATTR_VIRTUAL_POSITION (0.0, 0.0),
; 104  : 			UI_ATTR_VIRTUAL_SIZE (1.0, 1.0),
; 105  : 			//UI_ATTR_GRAPHIC (get_graphics_file_data (GRAPHICS_UI_APACHE_LOADING_SCREEN)),
; 106  : 			UI_ATTR_FUNCTION (loading_function),
; 107  : 			UI_ATTR_END
; 108  : 		);
; 109  : 
; 110  : 	x1 = 0.620;

  0005b	f3 0f 10 05 00
	00 00 00	 movss	 xmm0, DWORD PTR __real@3f1eb852
  00063	f3 0f 11 45 fc	 movss	 DWORD PTR _x1$[ebp], xmm0

; 111  : 	y1 = 0.138;

  00068	f3 0f 10 05 00
	00 00 00	 movss	 xmm0, DWORD PTR __real@3e0d4fdf
  00070	f3 0f 11 45 f8	 movss	 DWORD PTR _y1$[ebp], xmm0

; 112  : 	x2 = 0.2;

  00075	f3 0f 10 05 00
	00 00 00	 movss	 xmm0, DWORD PTR __real@3e4ccccd
  0007d	f3 0f 11 45 f4	 movss	 DWORD PTR _x2$[ebp], xmm0

; 113  : 	y2 = 0.0625;

  00082	f3 0f 10 05 00
	00 00 00	 movss	 xmm0, DWORD PTR __real@3d800000
  0008a	f3 0f 11 45 f0	 movss	 DWORD PTR _y2$[ebp], xmm0

; 114  : 	
; 115  : 	loading_text = create_ui_object

  0008f	6a 11		 push	 17			; 00000011H
  00091	6a 01		 push	 1
  00093	6a 07		 push	 7
  00095	68 00 00 00 00	 push	 OFFSET ??_C@_07BINAGFIJ@Loading@
  0009a	e8 00 00 00 00	 call	 ?get_trans@@YGPBDPBD@Z	; get_trans
  0009f	50		 push	 eax
  000a0	6a 4a		 push	 74			; 0000004aH
  000a2	6a 08		 push	 8
  000a4	6a 12		 push	 18			; 00000012H
  000a6	68 ff 00 00 00	 push	 255			; 000000ffH
  000ab	0f b6 05 00 00
	00 00		 movzx	 eax, BYTE PTR ?ui_option_title_text_colour@@3UREAL_COLOUR@@A
  000b2	50		 push	 eax
  000b3	0f b6 0d 01 00
	00 00		 movzx	 ecx, BYTE PTR ?ui_option_title_text_colour@@3UREAL_COLOUR@@A+1
  000ba	51		 push	 ecx
  000bb	0f b6 15 02 00
	00 00		 movzx	 edx, BYTE PTR ?ui_option_title_text_colour@@3UREAL_COLOUR@@A+2
  000c2	52		 push	 edx
  000c3	6a 14		 push	 20			; 00000014H
  000c5	6a 00		 push	 0
  000c7	0f b6 05 00 00
	00 00		 movzx	 eax, BYTE PTR ?ui_option_title_text_colour@@3UREAL_COLOUR@@A
  000ce	50		 push	 eax
  000cf	0f b6 0d 01 00
	00 00		 movzx	 ecx, BYTE PTR ?ui_option_title_text_colour@@3UREAL_COLOUR@@A+1
  000d6	51		 push	 ecx
  000d7	0f b6 15 02 00
	00 00		 movzx	 edx, BYTE PTR ?ui_option_title_text_colour@@3UREAL_COLOUR@@A+2
  000de	52		 push	 edx
  000df	6a 15		 push	 21			; 00000015H
  000e1	6a 00		 push	 0
  000e3	6a 4b		 push	 75			; 0000004bH
  000e5	6a 0a		 push	 10			; 0000000aH
  000e7	6a 12		 push	 18			; 00000012H
  000e9	f3 0f 5a 45 f0	 cvtss2sd xmm0, DWORD PTR _y2$[ebp]
  000ee	83 ec 08	 sub	 esp, 8
  000f1	f2 0f 11 04 24	 movsd	 QWORD PTR [esp], xmm0
  000f6	f3 0f 5a 45 f4	 cvtss2sd xmm0, DWORD PTR _x2$[ebp]
  000fb	83 ec 08	 sub	 esp, 8
  000fe	f2 0f 11 04 24	 movsd	 QWORD PTR [esp], xmm0
  00103	6a 59		 push	 89			; 00000059H
  00105	f3 0f 5a 45 f8	 cvtss2sd xmm0, DWORD PTR _y1$[ebp]
  0010a	83 ec 08	 sub	 esp, 8
  0010d	f2 0f 11 04 24	 movsd	 QWORD PTR [esp], xmm0
  00112	f3 0f 5a 45 fc	 cvtss2sd xmm0, DWORD PTR _x1$[ebp]
  00117	83 ec 08	 sub	 esp, 8
  0011a	f2 0f 11 04 24	 movsd	 QWORD PTR [esp], xmm0
  0011f	6a 58		 push	 88			; 00000058H
  00121	a1 00 00 00 00	 mov	 eax, DWORD PTR ?loading_screen@@3PAUUI_OBJECT@@A ; loading_screen
  00126	50		 push	 eax
  00127	6a 32		 push	 50			; 00000032H
  00129	6a 01		 push	 1
  0012b	e8 00 00 00 00	 call	 ?create_ui_object@@YAPAUUI_OBJECT@@HZZ ; create_ui_object
  00130	81 c4 88 00 00
	00		 add	 esp, 136		; 00000088H
  00136	a3 00 00 00 00	 mov	 DWORD PTR ?loading_text@@3PAUUI_OBJECT@@A, eax ; loading_text

; 116  : 		(
; 117  : 			UI_TYPE_AREA,
; 118  : 			UI_ATTR_PARENT (loading_screen),
; 119  : 			UI_ATTR_VIRTUAL_POSITION (x1, y1),
; 120  : 			UI_ATTR_VIRTUAL_SIZE (x2, y2),
; 121  : 			UI_ATTR_FONT_TYPE (UI_FONT_ARIAL_22),
; 122  : 			UI_ATTR_TEXT_JUSTIFY (TEXT_JUSTIFY_CENTRE),
; 123  : 	      UI_ATTR_FONT_COLOUR_START (ui_option_title_text_colour.r, ui_option_title_text_colour.g, ui_option_title_text_colour.b, 0),
; 124  : 	      UI_ATTR_FONT_COLOUR_END (ui_option_title_text_colour.r, ui_option_title_text_colour.g, ui_option_title_text_colour.b, 255),
; 125  : 			UI_ATTR_FONT_TYPE (UI_FONT_THICK_ITALIC_ARIAL_18),
; 126  : 			UI_ATTR_TEXT (get_trans ("Loading")),
; 127  : 			UI_ATTR_CLEAR (TRUE),
; 128  : 			UI_ATTR_END
; 129  : 		);
; 130  : 
; 131  : }

  0013b	5f		 pop	 edi
  0013c	5e		 pop	 esi
  0013d	5b		 pop	 ebx
  0013e	8b e5		 mov	 esp, ebp
  00140	5d		 pop	 ebp
  00141	c3		 ret	 0
?initialise_loading_screen@@YGXXZ ENDP			; initialise_loading_screen
_TEXT	ENDS
END
