; Listing generated by Microsoft (R) Optimizing Compiler Version 19.16.27045.0 

	TITLE	C:\Users\nhv90\Projects\eech\aphavoc\source\ui_menu\main\main_sc.c
	.686P
	.XMM
	include listing.inc
	.model	flat

INCLUDELIB MSVCRTD
INCLUDELIB OLDNAMES

PUBLIC	?main_screen@@3PAUUI_OBJECT@@A			; main_screen
PUBLIC	?pilots_button@@3PAUUI_OBJECT@@A		; pilots_button
PUBLIC	?credits_button@@3PAUUI_OBJECT@@A		; credits_button
PUBLIC	?modcredits_button@@3PAUUI_OBJECT@@A		; modcredits_button
PUBLIC	?ghost_pilots_button@@3PAUUI_OBJECT@@A		; ghost_pilots_button
PUBLIC	?ghost_credits_button@@3PAUUI_OBJECT@@A		; ghost_credits_button
PUBLIC	?main_screen_t_value@@3MA			; main_screen_t_value
PUBLIC	?main_screen_texture@@3PAUTEXTURE_GRAPHIC@@A	; main_screen_texture
PUBLIC	?options_box_small@@3PAUTEXTURE_GRAPHIC@@A	; options_box_small
PUBLIC	?options_box_medium@@3PAUTEXTURE_GRAPHIC@@A	; options_box_medium
PUBLIC	?options_box_large@@3PAUTEXTURE_GRAPHIC@@A	; options_box_large
PUBLIC	?options_box_extra_large@@3PAUTEXTURE_GRAPHIC@@A ; options_box_extra_large
PUBLIC	?text_box_graphic@@3PAUTEXTURE_GRAPHIC@@A	; text_box_graphic
PUBLIC	?text_option_bdrop@@3PAUTEXTURE_GRAPHIC@@A	; text_option_bdrop
PUBLIC	?list_box_graphic@@3PAUTEXTURE_GRAPHIC@@A	; list_box_graphic
PUBLIC	?main_area@@3PAUUI_OBJECT@@A			; main_area
_BSS	SEGMENT
?main_screen@@3PAUUI_OBJECT@@A DD 01H DUP (?)		; main_screen
?pilots_button@@3PAUUI_OBJECT@@A DD 01H DUP (?)		; pilots_button
?credits_button@@3PAUUI_OBJECT@@A DD 01H DUP (?)	; credits_button
?modcredits_button@@3PAUUI_OBJECT@@A DD 01H DUP (?)	; modcredits_button
?ghost_pilots_button@@3PAUUI_OBJECT@@A DD 01H DUP (?)	; ghost_pilots_button
?ghost_credits_button@@3PAUUI_OBJECT@@A DD 01H DUP (?)	; ghost_credits_button
?main_screen_t_value@@3MA DD 01H DUP (?)		; main_screen_t_value
?main_screen_texture@@3PAUTEXTURE_GRAPHIC@@A DD 01H DUP (?) ; main_screen_texture
?options_box_small@@3PAUTEXTURE_GRAPHIC@@A DD 01H DUP (?) ; options_box_small
?options_box_medium@@3PAUTEXTURE_GRAPHIC@@A DD 01H DUP (?) ; options_box_medium
?options_box_large@@3PAUTEXTURE_GRAPHIC@@A DD 01H DUP (?) ; options_box_large
?options_box_extra_large@@3PAUTEXTURE_GRAPHIC@@A DD 01H DUP (?) ; options_box_extra_large
?text_box_graphic@@3PAUTEXTURE_GRAPHIC@@A DD 01H DUP (?) ; text_box_graphic
?text_option_bdrop@@3PAUTEXTURE_GRAPHIC@@A DD 01H DUP (?) ; text_option_bdrop
?list_box_graphic@@3PAUTEXTURE_GRAPHIC@@A DD 01H DUP (?) ; list_box_graphic
?main_area@@3PAUUI_OBJECT@@A DD 01H DUP (?)		; main_area
_BSS	ENDS
PUBLIC	?initialise_main_screen@@YGXXZ			; initialise_main_screen
PUBLIC	?draw_main_screen_background@@YGXPAUUI_OBJECT@@PAX@Z ; draw_main_screen_background
PUBLIC	?set_frontend_slider_graphics@@YGXPAUUI_OBJECT@@@Z ; set_frontend_slider_graphics
PUBLIC	?set_ui_list_spacing_proportional_to_font@@YGXPAUUI_OBJECT@@M@Z ; set_ui_list_spacing_proportional_to_font
PUBLIC	??_C@_0CB@JKLBNLPM@graphics?2ui?2cohokum?2boxsmall?4ps@ ; `string'
PUBLIC	??_C@_0BP@COLOGJP@graphics?2ui?2cohokum?2boxmed?4psd@ ; `string'
PUBLIC	??_C@_0CB@HNBMMBHH@graphics?2ui?2cohokum?2boxlarge?4ps@ ; `string'
PUBLIC	??_C@_0CB@JAHFCPOM@graphics?2ui?2cohokum?2boxexlrg?4ps@ ; `string'
PUBLIC	??_C@_0CA@PIOFFCNI@graphics?2ui?2cohokum?2Boxtext?4psd@ ; `string'
PUBLIC	??_C@_0CA@IBNEMMDO@graphics?2ui?2cohokum?2bstripe?4psd@ ; `string'
PUBLIC	??_C@_0CA@DIKEHBKH@graphics?2ui?2cohokum?2BoxList?4psd@ ; `string'
PUBLIC	??_C@_0CF@IIOEIONG@graphics?2ui?2cohokum?2map?2sbcklis@ ; `string'
PUBLIC	??_C@_0CF@HCHCFKBM@graphics?2ui?2cohokum?2map?2scrolbl@ ; `string'
PUBLIC	??_C@_0CF@HJDKJCOF@graphics?2ui?2cohokum?2map?2scrolwh@ ; `string'
PUBLIC	??_C@_0CF@OCOCGBOB@graphics?2ui?2cohokum?2map?2scrolye@ ; `string'
PUBLIC	??_C@_0CF@ELOMEIFK@graphics?2ui?2cohokum?2map?2arrupbl@ ; `string'
PUBLIC	??_C@_0CF@EAKEIAKD@graphics?2ui?2cohokum?2map?2arrupwh@ ; `string'
PUBLIC	??_C@_0CF@NLHMHDKH@graphics?2ui?2cohokum?2map?2arrupye@ ; `string'
PUBLIC	??_C@_0CF@OHOBMPEF@graphics?2ui?2cohokum?2map?2arrdwbl@ ; `string'
PUBLIC	??_C@_0CF@OMKJAHLM@graphics?2ui?2cohokum?2map?2arrdwwh@ ; `string'
PUBLIC	??_C@_0CF@HHHBPELI@graphics?2ui?2cohokum?2map?2arrdwye@ ; `string'
PUBLIC	??_C@_0M@FNEMKEAO@Main?5Screen@			; `string'
PUBLIC	??_C@_09IGDCKAH@UI_COMBAT@			; `string'
PUBLIC	??_C@_09BCKKEJHI@UI_PILOTS@			; `string'
PUBLIC	??_C@_0P@JAJAJOP@Options?5Screen@		; `string'
PUBLIC	??_C@_07GDHHDJMO@Credits@			; `string'
PUBLIC	??_C@_07JEGGIJNH@UI_EXIT@			; `string'
PUBLIC	??_C@_0L@NAFCKBEG@CONFIG?4BIN@			; `string'
PUBLIC	?__LINE__Var@?0??set_frontend_slider_graphics@@YGXPAUUI_OBJECT@@@Z@4JA ; `set_frontend_slider_graphics'::`1'::__LINE__Var
PUBLIC	??_C@_0ED@HEBLMNBF@c?3?2users?2nhv90?2projects?2eech?2ap@ ; `string'
PUBLIC	??_C@_06LDFGECMB@slider@			; `string'
PUBLIC	??_C@_0BM@NINOABKC@frontend_slider_bar_graphic@	; `string'
PUBLIC	??_C@_0CI@HPBDALJ@frontend_slider_bar_highlighted@ ; `string'
PUBLIC	??_C@_0CF@OGDKOEBC@frontend_slider_bar_selected_gr@ ; `string'
PUBLIC	??_C@_0BL@OOACNOEL@frontend_slider_up_graphic@	; `string'
PUBLIC	??_C@_0CH@FGGMMDCC@frontend_slider_up_highlighted_@ ; `string'
PUBLIC	??_C@_0CE@BBNCDKJD@frontend_slider_up_selected_gra@ ; `string'
PUBLIC	??_C@_0BN@BDNHFJDO@frontend_slider_down_graphic@ ; `string'
PUBLIC	??_C@_0CJ@GKNOHFBK@frontend_slider_down_highlighte@ ; `string'
PUBLIC	??_C@_0CG@KCOPBGOP@frontend_slider_down_selected_g@ ; `string'
PUBLIC	??_C@_00CNPNBAHC@@				; `string'
PUBLIC	__real@3d072b02
PUBLIC	__real@3d2c0831
PUBLIC	__real@3edeb852
PUBLIC	__real@3f343958
PUBLIC	__real@3f999999a0000000
PUBLIC	__real@3fa0e5604189374c
PUBLIC	__real@3fa374bc60000000
PUBLIC	__real@3fa3f7cee0000000
PUBLIC	__real@3fa5810624dd2f1b
PUBLIC	__real@3fa999999999999a
PUBLIC	__real@3fa99999a0000000
PUBLIC	__real@3fad2f1aa0000000
PUBLIC	__real@3fb99999a0000000
PUBLIC	__real@3fc3d70a3d70a3d7
PUBLIC	__real@3fc7ae147ae147ae
PUBLIC	__real@3fc916872b020c4a
PUBLIC	__real@3fd3333333333333
PUBLIC	__real@3fd50e5604189375
PUBLIC	__real@3fd999999999999a
PUBLIC	__real@3fdbd70a3d70a3d7
PUBLIC	__real@3fdee978e0000000
PUBLIC	__real@3fe30a3d70a3d70a
PUBLIC	__real@3fe4624dd2f1a9fc
PUBLIC	__real@3fe5374bc6a7ef9e
PUBLIC	__real@3fe6872b020c49ba
PUBLIC	__real@3fe7851eb851eb85
PUBLIC	__real@3fe91eb851eb851f
PUBLIC	__real@3fec106240000000
PUBLIC	__real@3feccccccccccccd
PUBLIC	__real@3fed9999a0000000
PUBLIC	__real@3ff0000000000000
EXTRN	?process_assert@@YGXPBD0H@Z:PROC		; process_assert
EXTRN	?check_cdrom_file_exists@@YGHPBD@Z:PROC		; check_cdrom_file_exists
EXTRN	?create_texture_graphic@@YGPAUTEXTURE_GRAPHIC@@PBD@Z:PROC ; create_texture_graphic
EXTRN	?destroy_texture_graphic@@YGXPAUTEXTURE_GRAPHIC@@@Z:PROC ; destroy_texture_graphic
EXTRN	?set_ui_font_type@@YGXW4FONT_TYPES@@@Z:PROC	; set_ui_font_type
EXTRN	?get_ui_font_type@@YG?AW4FONT_TYPES@@XZ:PROC	; get_ui_font_type
EXTRN	?create_ui_object@@YAPAUUI_OBJECT@@HZZ:PROC	; create_ui_object
EXTRN	?push_ui_screen@@YGXPAUUI_OBJECT@@@Z:PROC	; push_ui_screen
EXTRN	?get_ui_object_vslider@@YGPAUUI_OBJECT@@PAU1@@Z:PROC ; get_ui_object_vslider
EXTRN	?get_security_message@@YGPBDXZ:PROC		; get_security_message
EXTRN	?get_trans@@YGPBDPBD@Z:PROC			; get_trans
EXTRN	?notify_main_screen@@YGXPAUUI_OBJECT@@PAX@Z:PROC ; notify_main_screen
EXTRN	?notify_main_select_player_button@@YGXPAUUI_OBJECT@@PAX@Z:PROC ; notify_main_select_player_button
EXTRN	?notify_main_combat_missions_button@@YGXPAUUI_OBJECT@@PAX@Z:PROC ; notify_main_combat_missions_button
EXTRN	?notify_main_credits_button@@YGXPAUUI_OBJECT@@PAX@Z:PROC ; notify_main_credits_button
EXTRN	?show_options_page@@YGXXZ:PROC			; show_options_page
EXTRN	?preprocess_translation_object_size@@YGXPAUUI_OBJECT@@0PAPBDHW4RESIZE_UI_OBJECT_TYPES@@@Z:PROC ; preprocess_translation_object_size
EXTRN	?set_text_option_backdrop_object@@YGXPAUUI_OBJECT@@0@Z:PROC ; set_text_option_backdrop_object
EXTRN	?current_font@@3PAUUI_FONT_TYPE@@A:DWORD	; current_font
EXTRN	?fn_get_ui_object_virtual_x@@3PAP6GMPAUUI_OBJECT@@@ZA:BYTE ; fn_get_ui_object_virtual_x
EXTRN	?fn_get_ui_object_y_size@@3PAP6GMPAUUI_OBJECT@@@ZA:BYTE ; fn_get_ui_object_y_size
EXTRN	?fn_get_ui_object_virtual_x_size@@3PAP6GMPAUUI_OBJECT@@@ZA:BYTE ; fn_get_ui_object_virtual_x_size
EXTRN	?fn_set_ui_object_drawable@@3PAP6GXPAUUI_OBJECT@@H@ZA:BYTE ; fn_set_ui_object_drawable
EXTRN	?fn_set_ui_object_redraw@@3PAP6GXPAUUI_OBJECT@@H@ZA:BYTE ; fn_set_ui_object_redraw
EXTRN	?fn_set_ui_object_list_box_y_space@@3PAP6GXPAUUI_OBJECT@@M@ZA:BYTE ; fn_set_ui_object_list_box_y_space
EXTRN	?fn_get_ui_object_child@@3PAP6GPAUUI_OBJECT@@PAU1@@ZA:BYTE ; fn_get_ui_object_child
EXTRN	?fn_get_ui_object_next@@3PAP6GPAUUI_OBJECT@@PAU1@@ZA:BYTE ; fn_get_ui_object_next
EXTRN	?fn_set_ui_object_text@@3PAP6GXPAUUI_OBJECT@@PBD@ZA:BYTE ; fn_set_ui_object_text
EXTRN	?fn_get_ui_object_font_type@@3PAP6G?AW4FONT_TYPES@@PAUUI_OBJECT@@@ZA:BYTE ; fn_get_ui_object_font_type
EXTRN	?fn_set_ui_object_graphic@@3PAP6GXPAUUI_OBJECT@@PAG@ZA:BYTE ; fn_set_ui_object_graphic
EXTRN	?fn_set_ui_object_texture_graphic@@3PAP6GXPAUUI_OBJECT@@PAUTEXTURE_GRAPHIC@@@ZA:BYTE ; fn_set_ui_object_texture_graphic
EXTRN	?fn_set_ui_object_highlighted_texture_graphic@@3PAP6GXPAUUI_OBJECT@@PAUTEXTURE_GRAPHIC@@@ZA:BYTE ; fn_set_ui_object_highlighted_texture_graphic
EXTRN	?fn_set_ui_object_selected_texture_graphic@@3PAP6GXPAUUI_OBJECT@@PAUTEXTURE_GRAPHIC@@@ZA:BYTE ; fn_set_ui_object_selected_texture_graphic
EXTRN	?fn_set_ui_object_graphic_type@@3PAP6GXPAUUI_OBJECT@@H@ZA:BYTE ; fn_set_ui_object_graphic_type
EXTRN	?ui_screen_title_text_colour@@3UREAL_COLOUR@@A:DWORD ; ui_screen_title_text_colour
EXTRN	?ui_option_text_default_colour@@3UREAL_COLOUR@@A:DWORD ; ui_option_text_default_colour
EXTRN	?ui_option_text_hilite_colour@@3UREAL_COLOUR@@A:DWORD ; ui_option_text_hilite_colour
EXTRN	?graphics_files@@3PAUFILE_DATA@@A:BYTE		; graphics_files
EXTRN	?exit_screen@@3PAUUI_OBJECT@@A:DWORD		; exit_screen
EXTRN	__fltused:DWORD
_BSS	SEGMENT
?frontend_slider_bar_graphic@@3PAUTEXTURE_GRAPHIC@@A DD 01H DUP (?) ; frontend_slider_bar_graphic
?frontend_slider_bdrop_graphic@@3PAUTEXTURE_GRAPHIC@@A DD 01H DUP (?) ; frontend_slider_bdrop_graphic
?frontend_slider_bar_highlighted_graphic@@3PAUTEXTURE_GRAPHIC@@A DD 01H DUP (?) ; frontend_slider_bar_highlighted_graphic
?frontend_slider_bar_selected_graphic@@3PAUTEXTURE_GRAPHIC@@A DD 01H DUP (?) ; frontend_slider_bar_selected_graphic
?frontend_slider_up_graphic@@3PAUTEXTURE_GRAPHIC@@A DD 01H DUP (?) ; frontend_slider_up_graphic
?frontend_slider_up_highlighted_graphic@@3PAUTEXTURE_GRAPHIC@@A DD 01H DUP (?) ; frontend_slider_up_highlighted_graphic
?frontend_slider_up_selected_graphic@@3PAUTEXTURE_GRAPHIC@@A DD 01H DUP (?) ; frontend_slider_up_selected_graphic
?frontend_slider_down_graphic@@3PAUTEXTURE_GRAPHIC@@A DD 01H DUP (?) ; frontend_slider_down_graphic
?frontend_slider_down_highlighted_graphic@@3PAUTEXTURE_GRAPHIC@@A DD 01H DUP (?) ; frontend_slider_down_highlighted_graphic
?frontend_slider_down_selected_graphic@@3PAUTEXTURE_GRAPHIC@@A DD 01H DUP (?) ; frontend_slider_down_selected_graphic
_BSS	ENDS
;	COMDAT __real@3ff0000000000000
CONST	SEGMENT
__real@3ff0000000000000 DQ 03ff0000000000000r	; 1
CONST	ENDS
;	COMDAT __real@3fed9999a0000000
CONST	SEGMENT
__real@3fed9999a0000000 DQ 03fed9999a0000000r	; 0.925
CONST	ENDS
;	COMDAT __real@3feccccccccccccd
CONST	SEGMENT
__real@3feccccccccccccd DQ 03feccccccccccccdr	; 0.9
CONST	ENDS
;	COMDAT __real@3fec106240000000
CONST	SEGMENT
__real@3fec106240000000 DQ 03fec106240000000r	; 0.877
CONST	ENDS
;	COMDAT __real@3fe91eb851eb851f
CONST	SEGMENT
__real@3fe91eb851eb851f DQ 03fe91eb851eb851fr	; 0.785
CONST	ENDS
;	COMDAT __real@3fe7851eb851eb85
CONST	SEGMENT
__real@3fe7851eb851eb85 DQ 03fe7851eb851eb85r	; 0.735
CONST	ENDS
;	COMDAT __real@3fe6872b020c49ba
CONST	SEGMENT
__real@3fe6872b020c49ba DQ 03fe6872b020c49bar	; 0.704
CONST	ENDS
;	COMDAT __real@3fe5374bc6a7ef9e
CONST	SEGMENT
__real@3fe5374bc6a7ef9e DQ 03fe5374bc6a7ef9er	; 0.663
CONST	ENDS
;	COMDAT __real@3fe4624dd2f1a9fc
CONST	SEGMENT
__real@3fe4624dd2f1a9fc DQ 03fe4624dd2f1a9fcr	; 0.637
CONST	ENDS
;	COMDAT __real@3fe30a3d70a3d70a
CONST	SEGMENT
__real@3fe30a3d70a3d70a DQ 03fe30a3d70a3d70ar	; 0.595
CONST	ENDS
;	COMDAT __real@3fdee978e0000000
CONST	SEGMENT
__real@3fdee978e0000000 DQ 03fdee978e0000000r	; 0.483
CONST	ENDS
;	COMDAT __real@3fdbd70a3d70a3d7
CONST	SEGMENT
__real@3fdbd70a3d70a3d7 DQ 03fdbd70a3d70a3d7r	; 0.435
CONST	ENDS
;	COMDAT __real@3fd999999999999a
CONST	SEGMENT
__real@3fd999999999999a DQ 03fd999999999999ar	; 0.4
CONST	ENDS
;	COMDAT __real@3fd50e5604189375
CONST	SEGMENT
__real@3fd50e5604189375 DQ 03fd50e5604189375r	; 0.329
CONST	ENDS
;	COMDAT __real@3fd3333333333333
CONST	SEGMENT
__real@3fd3333333333333 DQ 03fd3333333333333r	; 0.3
CONST	ENDS
;	COMDAT __real@3fc916872b020c4a
CONST	SEGMENT
__real@3fc916872b020c4a DQ 03fc916872b020c4ar	; 0.196
CONST	ENDS
;	COMDAT __real@3fc7ae147ae147ae
CONST	SEGMENT
__real@3fc7ae147ae147ae DQ 03fc7ae147ae147aer	; 0.185
CONST	ENDS
;	COMDAT __real@3fc3d70a3d70a3d7
CONST	SEGMENT
__real@3fc3d70a3d70a3d7 DQ 03fc3d70a3d70a3d7r	; 0.155
CONST	ENDS
;	COMDAT __real@3fb99999a0000000
CONST	SEGMENT
__real@3fb99999a0000000 DQ 03fb99999a0000000r	; 0.1
CONST	ENDS
;	COMDAT __real@3fad2f1aa0000000
CONST	SEGMENT
__real@3fad2f1aa0000000 DQ 03fad2f1aa0000000r	; 0.057
CONST	ENDS
;	COMDAT __real@3fa99999a0000000
CONST	SEGMENT
__real@3fa99999a0000000 DQ 03fa99999a0000000r	; 0.05
CONST	ENDS
;	COMDAT __real@3fa999999999999a
CONST	SEGMENT
__real@3fa999999999999a DQ 03fa999999999999ar	; 0.05
CONST	ENDS
;	COMDAT __real@3fa5810624dd2f1b
CONST	SEGMENT
__real@3fa5810624dd2f1b DQ 03fa5810624dd2f1br	; 0.042
CONST	ENDS
;	COMDAT __real@3fa3f7cee0000000
CONST	SEGMENT
__real@3fa3f7cee0000000 DQ 03fa3f7cee0000000r	; 0.039
CONST	ENDS
;	COMDAT __real@3fa374bc60000000
CONST	SEGMENT
__real@3fa374bc60000000 DQ 03fa374bc60000000r	; 0.038
CONST	ENDS
;	COMDAT __real@3fa0e5604189374c
CONST	SEGMENT
__real@3fa0e5604189374c DQ 03fa0e5604189374cr	; 0.033
CONST	ENDS
;	COMDAT __real@3f999999a0000000
CONST	SEGMENT
__real@3f999999a0000000 DQ 03f999999a0000000r	; 0.025
CONST	ENDS
;	COMDAT __real@3f343958
CONST	SEGMENT
__real@3f343958 DD 03f343958r			; 0.704
CONST	ENDS
;	COMDAT __real@3edeb852
CONST	SEGMENT
__real@3edeb852 DD 03edeb852r			; 0.435
CONST	ENDS
;	COMDAT __real@3d2c0831
CONST	SEGMENT
__real@3d2c0831 DD 03d2c0831r			; 0.042
CONST	ENDS
;	COMDAT __real@3d072b02
CONST	SEGMENT
__real@3d072b02 DD 03d072b02r			; 0.033
CONST	ENDS
;	COMDAT ??_C@_00CNPNBAHC@@
CONST	SEGMENT
??_C@_00CNPNBAHC@@ DB 00H				; `string'
CONST	ENDS
;	COMDAT ??_C@_0CG@KCOPBGOP@frontend_slider_down_selected_g@
CONST	SEGMENT
??_C@_0CG@KCOPBGOP@frontend_slider_down_selected_g@ DB 'frontend_slider_d'
	DB	'own_selected_graphic', 00H			; `string'
CONST	ENDS
;	COMDAT ??_C@_0CJ@GKNOHFBK@frontend_slider_down_highlighte@
CONST	SEGMENT
??_C@_0CJ@GKNOHFBK@frontend_slider_down_highlighte@ DB 'frontend_slider_d'
	DB	'own_highlighted_graphic', 00H		; `string'
CONST	ENDS
;	COMDAT ??_C@_0BN@BDNHFJDO@frontend_slider_down_graphic@
CONST	SEGMENT
??_C@_0BN@BDNHFJDO@frontend_slider_down_graphic@ DB 'frontend_slider_down'
	DB	'_graphic', 00H				; `string'
CONST	ENDS
;	COMDAT ??_C@_0CE@BBNCDKJD@frontend_slider_up_selected_gra@
CONST	SEGMENT
??_C@_0CE@BBNCDKJD@frontend_slider_up_selected_gra@ DB 'frontend_slider_u'
	DB	'p_selected_graphic', 00H			; `string'
CONST	ENDS
;	COMDAT ??_C@_0CH@FGGMMDCC@frontend_slider_up_highlighted_@
CONST	SEGMENT
??_C@_0CH@FGGMMDCC@frontend_slider_up_highlighted_@ DB 'frontend_slider_u'
	DB	'p_highlighted_graphic', 00H			; `string'
CONST	ENDS
;	COMDAT ??_C@_0BL@OOACNOEL@frontend_slider_up_graphic@
CONST	SEGMENT
??_C@_0BL@OOACNOEL@frontend_slider_up_graphic@ DB 'frontend_slider_up_gra'
	DB	'phic', 00H					; `string'
CONST	ENDS
;	COMDAT ??_C@_0CF@OGDKOEBC@frontend_slider_bar_selected_gr@
CONST	SEGMENT
??_C@_0CF@OGDKOEBC@frontend_slider_bar_selected_gr@ DB 'frontend_slider_b'
	DB	'ar_selected_graphic', 00H			; `string'
CONST	ENDS
;	COMDAT ??_C@_0CI@HPBDALJ@frontend_slider_bar_highlighted@
CONST	SEGMENT
??_C@_0CI@HPBDALJ@frontend_slider_bar_highlighted@ DB 'frontend_slider_ba'
	DB	'r_highlighted_graphic', 00H			; `string'
CONST	ENDS
;	COMDAT ??_C@_0BM@NINOABKC@frontend_slider_bar_graphic@
CONST	SEGMENT
??_C@_0BM@NINOABKC@frontend_slider_bar_graphic@ DB 'frontend_slider_bar_g'
	DB	'raphic', 00H				; `string'
CONST	ENDS
;	COMDAT ??_C@_06LDFGECMB@slider@
CONST	SEGMENT
??_C@_06LDFGECMB@slider@ DB 'slider', 00H		; `string'
CONST	ENDS
;	COMDAT ??_C@_0ED@HEBLMNBF@c?3?2users?2nhv90?2projects?2eech?2ap@
CONST	SEGMENT
??_C@_0ED@HEBLMNBF@c?3?2users?2nhv90?2projects?2eech?2ap@ DB 'c:\users\nh'
	DB	'v90\projects\eech\aphavoc\source\ui_menu\main\main_sc.c', 00H ; `string'
CONST	ENDS
;	COMDAT ?__LINE__Var@?0??set_frontend_slider_graphics@@YGXPAUUI_OBJECT@@@Z@4JA
_DATA	SEGMENT
?__LINE__Var@?0??set_frontend_slider_graphics@@YGXPAUUI_OBJECT@@@Z@4JA DD 026fH ; `set_frontend_slider_graphics'::`1'::__LINE__Var
_DATA	ENDS
;	COMDAT ??_C@_0L@NAFCKBEG@CONFIG?4BIN@
CONST	SEGMENT
??_C@_0L@NAFCKBEG@CONFIG?4BIN@ DB 'CONFIG.BIN', 00H	; `string'
CONST	ENDS
;	COMDAT ??_C@_07JEGGIJNH@UI_EXIT@
CONST	SEGMENT
??_C@_07JEGGIJNH@UI_EXIT@ DB 'UI_EXIT', 00H		; `string'
CONST	ENDS
;	COMDAT ??_C@_07GDHHDJMO@Credits@
CONST	SEGMENT
??_C@_07GDHHDJMO@Credits@ DB 'Credits', 00H		; `string'
CONST	ENDS
;	COMDAT ??_C@_0P@JAJAJOP@Options?5Screen@
CONST	SEGMENT
??_C@_0P@JAJAJOP@Options?5Screen@ DB 'Options Screen', 00H ; `string'
CONST	ENDS
;	COMDAT ??_C@_09BCKKEJHI@UI_PILOTS@
CONST	SEGMENT
??_C@_09BCKKEJHI@UI_PILOTS@ DB 'UI_PILOTS', 00H		; `string'
CONST	ENDS
;	COMDAT ??_C@_09IGDCKAH@UI_COMBAT@
CONST	SEGMENT
??_C@_09IGDCKAH@UI_COMBAT@ DB 'UI_COMBAT', 00H		; `string'
CONST	ENDS
;	COMDAT ??_C@_0M@FNEMKEAO@Main?5Screen@
CONST	SEGMENT
??_C@_0M@FNEMKEAO@Main?5Screen@ DB 'Main Screen', 00H	; `string'
CONST	ENDS
;	COMDAT ??_C@_0CF@HHHBPELI@graphics?2ui?2cohokum?2map?2arrdwye@
CONST	SEGMENT
??_C@_0CF@HHHBPELI@graphics?2ui?2cohokum?2map?2arrdwye@ DB 'graphics\ui\c'
	DB	'ohokum\map\arrdwyel.psd', 00H		; `string'
CONST	ENDS
;	COMDAT ??_C@_0CF@OMKJAHLM@graphics?2ui?2cohokum?2map?2arrdwwh@
CONST	SEGMENT
??_C@_0CF@OMKJAHLM@graphics?2ui?2cohokum?2map?2arrdwwh@ DB 'graphics\ui\c'
	DB	'ohokum\map\arrdwwht.psd', 00H		; `string'
CONST	ENDS
;	COMDAT ??_C@_0CF@OHOBMPEF@graphics?2ui?2cohokum?2map?2arrdwbl@
CONST	SEGMENT
??_C@_0CF@OHOBMPEF@graphics?2ui?2cohokum?2map?2arrdwbl@ DB 'graphics\ui\c'
	DB	'ohokum\map\arrdwblu.psd', 00H		; `string'
CONST	ENDS
;	COMDAT ??_C@_0CF@NLHMHDKH@graphics?2ui?2cohokum?2map?2arrupye@
CONST	SEGMENT
??_C@_0CF@NLHMHDKH@graphics?2ui?2cohokum?2map?2arrupye@ DB 'graphics\ui\c'
	DB	'ohokum\map\arrupyel.psd', 00H		; `string'
CONST	ENDS
;	COMDAT ??_C@_0CF@EAKEIAKD@graphics?2ui?2cohokum?2map?2arrupwh@
CONST	SEGMENT
??_C@_0CF@EAKEIAKD@graphics?2ui?2cohokum?2map?2arrupwh@ DB 'graphics\ui\c'
	DB	'ohokum\map\arrupwht.psd', 00H		; `string'
CONST	ENDS
;	COMDAT ??_C@_0CF@ELOMEIFK@graphics?2ui?2cohokum?2map?2arrupbl@
CONST	SEGMENT
??_C@_0CF@ELOMEIFK@graphics?2ui?2cohokum?2map?2arrupbl@ DB 'graphics\ui\c'
	DB	'ohokum\map\arrupblu.psd', 00H		; `string'
CONST	ENDS
;	COMDAT ??_C@_0CF@OCOCGBOB@graphics?2ui?2cohokum?2map?2scrolye@
CONST	SEGMENT
??_C@_0CF@OCOCGBOB@graphics?2ui?2cohokum?2map?2scrolye@ DB 'graphics\ui\c'
	DB	'ohokum\map\scrolyel.psd', 00H		; `string'
CONST	ENDS
;	COMDAT ??_C@_0CF@HJDKJCOF@graphics?2ui?2cohokum?2map?2scrolwh@
CONST	SEGMENT
??_C@_0CF@HJDKJCOF@graphics?2ui?2cohokum?2map?2scrolwh@ DB 'graphics\ui\c'
	DB	'ohokum\map\scrolwht.psd', 00H		; `string'
CONST	ENDS
;	COMDAT ??_C@_0CF@HCHCFKBM@graphics?2ui?2cohokum?2map?2scrolbl@
CONST	SEGMENT
??_C@_0CF@HCHCFKBM@graphics?2ui?2cohokum?2map?2scrolbl@ DB 'graphics\ui\c'
	DB	'ohokum\map\scrolblu.psd', 00H		; `string'
CONST	ENDS
;	COMDAT ??_C@_0CF@IIOEIONG@graphics?2ui?2cohokum?2map?2sbcklis@
CONST	SEGMENT
??_C@_0CF@IIOEIONG@graphics?2ui?2cohokum?2map?2sbcklis@ DB 'graphics\ui\c'
	DB	'ohokum\map\sbcklist.psd', 00H		; `string'
CONST	ENDS
;	COMDAT ??_C@_0CA@DIKEHBKH@graphics?2ui?2cohokum?2BoxList?4psd@
CONST	SEGMENT
??_C@_0CA@DIKEHBKH@graphics?2ui?2cohokum?2BoxList?4psd@ DB 'graphics\ui\c'
	DB	'ohokum\BoxList.psd', 00H			; `string'
CONST	ENDS
;	COMDAT ??_C@_0CA@IBNEMMDO@graphics?2ui?2cohokum?2bstripe?4psd@
CONST	SEGMENT
??_C@_0CA@IBNEMMDO@graphics?2ui?2cohokum?2bstripe?4psd@ DB 'graphics\ui\c'
	DB	'ohokum\bstripe.psd', 00H			; `string'
CONST	ENDS
;	COMDAT ??_C@_0CA@PIOFFCNI@graphics?2ui?2cohokum?2Boxtext?4psd@
CONST	SEGMENT
??_C@_0CA@PIOFFCNI@graphics?2ui?2cohokum?2Boxtext?4psd@ DB 'graphics\ui\c'
	DB	'ohokum\Boxtext.psd', 00H			; `string'
CONST	ENDS
;	COMDAT ??_C@_0CB@JAHFCPOM@graphics?2ui?2cohokum?2boxexlrg?4ps@
CONST	SEGMENT
??_C@_0CB@JAHFCPOM@graphics?2ui?2cohokum?2boxexlrg?4ps@ DB 'graphics\ui\c'
	DB	'ohokum\boxexlrg.psd', 00H			; `string'
CONST	ENDS
;	COMDAT ??_C@_0CB@HNBMMBHH@graphics?2ui?2cohokum?2boxlarge?4ps@
CONST	SEGMENT
??_C@_0CB@HNBMMBHH@graphics?2ui?2cohokum?2boxlarge?4ps@ DB 'graphics\ui\c'
	DB	'ohokum\boxlarge.psd', 00H			; `string'
CONST	ENDS
;	COMDAT ??_C@_0BP@COLOGJP@graphics?2ui?2cohokum?2boxmed?4psd@
CONST	SEGMENT
??_C@_0BP@COLOGJP@graphics?2ui?2cohokum?2boxmed?4psd@ DB 'graphics\ui\coh'
	DB	'okum\boxmed.psd', 00H			; `string'
CONST	ENDS
;	COMDAT ??_C@_0CB@JKLBNLPM@graphics?2ui?2cohokum?2boxsmall?4ps@
CONST	SEGMENT
??_C@_0CB@JKLBNLPM@graphics?2ui?2cohokum?2boxsmall?4ps@ DB 'graphics\ui\c'
	DB	'ohokum\boxsmall.psd', 00H			; `string'
CONST	ENDS
; Function compile flags: /Odtp /ZI
; File c:\users\nhv90\projects\eech\aphavoc\source\ui_menu\main\main_sc.c
;	COMDAT ?notify_common_main_options_button@@YGXPAUUI_OBJECT@@PAX@Z
_TEXT	SEGMENT
_obj$ = 8						; size = 4
_arg$ = 12						; size = 4
?notify_common_main_options_button@@YGXPAUUI_OBJECT@@PAX@Z PROC ; notify_common_main_options_button, COMDAT

; 675  : {

  00000	55		 push	 ebp
  00001	8b ec		 mov	 ebp, esp
  00003	83 ec 40	 sub	 esp, 64			; 00000040H
  00006	53		 push	 ebx
  00007	56		 push	 esi
  00008	57		 push	 edi

; 676  : 	show_options_page ();

  00009	e8 00 00 00 00	 call	 ?show_options_page@@YGXXZ ; show_options_page

; 677  : }

  0000e	5f		 pop	 edi
  0000f	5e		 pop	 esi
  00010	5b		 pop	 ebx
  00011	8b e5		 mov	 esp, ebp
  00013	5d		 pop	 ebp
  00014	c2 08 00	 ret	 8
?notify_common_main_options_button@@YGXPAUUI_OBJECT@@PAX@Z ENDP ; notify_common_main_options_button
_TEXT	ENDS
; Function compile flags: /Odtp /ZI
; File c:\users\nhv90\projects\eech\aphavoc\source\ui_menu\main\main_sc.c
;	COMDAT ?notify_main_screen_exit_button@@YGXPAUUI_OBJECT@@PAX@Z
_TEXT	SEGMENT
_obj$ = 8						; size = 4
_arg$ = 12						; size = 4
?notify_main_screen_exit_button@@YGXPAUUI_OBJECT@@PAX@Z PROC ; notify_main_screen_exit_button, COMDAT

; 684  : {

  00000	55		 push	 ebp
  00001	8b ec		 mov	 ebp, esp
  00003	83 ec 40	 sub	 esp, 64			; 00000040H
  00006	53		 push	 ebx
  00007	56		 push	 esi
  00008	57		 push	 edi

; 685  : 
; 686  : 	if ((int) arg == BUTTON_STATE_DOWN)

  00009	83 7d 0c 02	 cmp	 DWORD PTR _arg$[ebp], 2
  0000d	75 3f		 jne	 SHORT $LN2@notify_mai

; 687  : 	{
; 688  : 
; 689  : 		set_ui_object_graphic (obj, (unsigned short int *) get_graphics_file_data (GRAPHICS_UI_APACHE_PLANNER_BACK_BUTTON_SELECTED));

  0000f	b8 28 00 00 00	 mov	 eax, 40			; 00000028H
  00014	69 c8 60 01 00
	00		 imul	 ecx, eax, 352
  0001a	8b 91 1c 00 00
	00		 mov	 edx, DWORD PTR ?graphics_files@@3PAUFILE_DATA@@A[ecx+28]
  00020	52		 push	 edx
  00021	8b 45 08	 mov	 eax, DWORD PTR _obj$[ebp]
  00024	50		 push	 eax
  00025	8b 4d 08	 mov	 ecx, DWORD PTR _obj$[ebp]
  00028	8b 11		 mov	 edx, DWORD PTR [ecx]
  0002a	8b 04 95 00 00
	00 00		 mov	 eax, DWORD PTR ?fn_set_ui_object_graphic@@3PAP6GXPAUUI_OBJECT@@PAG@ZA[edx*4]
  00031	ff d0		 call	 eax

; 690  : 
; 691  : 		set_ui_object_redraw (main_screen, TRUE);

  00033	6a 01		 push	 1
  00035	a1 00 00 00 00	 mov	 eax, DWORD PTR ?main_screen@@3PAUUI_OBJECT@@A ; main_screen
  0003a	50		 push	 eax
  0003b	8b 0d 00 00 00
	00		 mov	 ecx, DWORD PTR ?main_screen@@3PAUUI_OBJECT@@A ; main_screen
  00041	8b 11		 mov	 edx, DWORD PTR [ecx]
  00043	8b 04 95 00 00
	00 00		 mov	 eax, DWORD PTR ?fn_set_ui_object_redraw@@3PAP6GXPAUUI_OBJECT@@H@ZA[edx*4]
  0004a	ff d0		 call	 eax
  0004c	eb 74		 jmp	 SHORT $LN3@notify_mai
$LN2@notify_mai:

; 692  : 	}
; 693  : 	else if ((int) arg == BUTTON_STATE_UP)

  0004e	83 7d 0c 01	 cmp	 DWORD PTR _arg$[ebp], 1
  00052	75 31		 jne	 SHORT $LN4@notify_mai

; 694  : 	{
; 695  : 
; 696  : 		set_ui_object_graphic (obj, (unsigned short int *) get_graphics_file_data (GRAPHICS_UI_APACHE_PLANNER_BACK_BUTTON_UNSELECTED));

  00054	b8 28 00 00 00	 mov	 eax, 40			; 00000028H
  00059	69 c8 5f 01 00
	00		 imul	 ecx, eax, 351
  0005f	8b 91 1c 00 00
	00		 mov	 edx, DWORD PTR ?graphics_files@@3PAUFILE_DATA@@A[ecx+28]
  00065	52		 push	 edx
  00066	8b 45 08	 mov	 eax, DWORD PTR _obj$[ebp]
  00069	50		 push	 eax
  0006a	8b 4d 08	 mov	 ecx, DWORD PTR _obj$[ebp]
  0006d	8b 11		 mov	 edx, DWORD PTR [ecx]
  0006f	8b 04 95 00 00
	00 00		 mov	 eax, DWORD PTR ?fn_set_ui_object_graphic@@3PAP6GXPAUUI_OBJECT@@PAG@ZA[edx*4]
  00076	ff d0		 call	 eax

; 697  : 
; 698  : 		push_ui_screen ( exit_screen );

  00078	a1 00 00 00 00	 mov	 eax, DWORD PTR ?exit_screen@@3PAUUI_OBJECT@@A ; exit_screen
  0007d	50		 push	 eax
  0007e	e8 00 00 00 00	 call	 ?push_ui_screen@@YGXPAUUI_OBJECT@@@Z ; push_ui_screen

; 699  : 	}
; 700  : 	else

  00083	eb 3d		 jmp	 SHORT $LN3@notify_mai
$LN4@notify_mai:

; 701  : 	{
; 702  : 
; 703  : 		set_ui_object_graphic (obj, (unsigned short int *) get_graphics_file_data (GRAPHICS_UI_APACHE_PLANNER_BACK_BUTTON_UNSELECTED));

  00085	b8 28 00 00 00	 mov	 eax, 40			; 00000028H
  0008a	69 c8 5f 01 00
	00		 imul	 ecx, eax, 351
  00090	8b 91 1c 00 00
	00		 mov	 edx, DWORD PTR ?graphics_files@@3PAUFILE_DATA@@A[ecx+28]
  00096	52		 push	 edx
  00097	8b 45 08	 mov	 eax, DWORD PTR _obj$[ebp]
  0009a	50		 push	 eax
  0009b	8b 4d 08	 mov	 ecx, DWORD PTR _obj$[ebp]
  0009e	8b 11		 mov	 edx, DWORD PTR [ecx]
  000a0	8b 04 95 00 00
	00 00		 mov	 eax, DWORD PTR ?fn_set_ui_object_graphic@@3PAP6GXPAUUI_OBJECT@@PAG@ZA[edx*4]
  000a7	ff d0		 call	 eax

; 704  : 
; 705  : 		set_ui_object_redraw (main_screen, TRUE);

  000a9	6a 01		 push	 1
  000ab	a1 00 00 00 00	 mov	 eax, DWORD PTR ?main_screen@@3PAUUI_OBJECT@@A ; main_screen
  000b0	50		 push	 eax
  000b1	8b 0d 00 00 00
	00		 mov	 ecx, DWORD PTR ?main_screen@@3PAUUI_OBJECT@@A ; main_screen
  000b7	8b 11		 mov	 edx, DWORD PTR [ecx]
  000b9	8b 04 95 00 00
	00 00		 mov	 eax, DWORD PTR ?fn_set_ui_object_redraw@@3PAP6GXPAUUI_OBJECT@@H@ZA[edx*4]
  000c0	ff d0		 call	 eax
$LN3@notify_mai:

; 706  : 	}
; 707  : 
; 708  : 	set_ui_object_graphic_type (obj, UI_OBJECT_ALPHA_GRAPHIC);

  000c2	6a 03		 push	 3
  000c4	8b 45 08	 mov	 eax, DWORD PTR _obj$[ebp]
  000c7	50		 push	 eax
  000c8	8b 4d 08	 mov	 ecx, DWORD PTR _obj$[ebp]
  000cb	8b 11		 mov	 edx, DWORD PTR [ecx]
  000cd	8b 04 95 00 00
	00 00		 mov	 eax, DWORD PTR ?fn_set_ui_object_graphic_type@@3PAP6GXPAUUI_OBJECT@@H@ZA[edx*4]
  000d4	ff d0		 call	 eax

; 709  : }

  000d6	5f		 pop	 edi
  000d7	5e		 pop	 esi
  000d8	5b		 pop	 ebx
  000d9	8b e5		 mov	 esp, ebp
  000db	5d		 pop	 ebp
  000dc	c2 08 00	 ret	 8
?notify_main_screen_exit_button@@YGXPAUUI_OBJECT@@PAX@Z ENDP ; notify_main_screen_exit_button
_TEXT	ENDS
; Function compile flags: /Odtp /ZI
; File c:\users\nhv90\projects\eech\aphavoc\source\ui_menu\main\main_sc.c
;	COMDAT ?set_ui_list_spacing_proportional_to_font@@YGXPAUUI_OBJECT@@M@Z
_TEXT	SEGMENT
tv134 = -88						; size = 4
tv143 = -84						; size = 4
_spacing$ = -16						; size = 4
_proportion$ = -12					; size = 4
_old_font$ = -8						; size = 4
_height$ = -4						; size = 4
_list$ = 8						; size = 4
_scaling$ = 12						; size = 4
?set_ui_list_spacing_proportional_to_font@@YGXPAUUI_OBJECT@@M@Z PROC ; set_ui_list_spacing_proportional_to_font, COMDAT

; 867  : {

  00000	55		 push	 ebp
  00001	8b ec		 mov	 ebp, esp
  00003	83 ec 58	 sub	 esp, 88			; 00000058H
  00006	53		 push	 ebx
  00007	56		 push	 esi
  00008	57		 push	 edi

; 868  : 	int
; 869  : 		height;
; 870  : 
; 871  : 	font_types
; 872  : 		old_font;
; 873  : 
; 874  : 	float
; 875  : 		proportion,
; 876  : 		spacing;
; 877  : 
; 878  : 	old_font = get_ui_font_type ();

  00009	e8 00 00 00 00	 call	 ?get_ui_font_type@@YG?AW4FONT_TYPES@@XZ ; get_ui_font_type
  0000e	89 45 f8	 mov	 DWORD PTR _old_font$[ebp], eax

; 879  : 
; 880  : 	set_ui_font_type (get_ui_object_font_type (list));

  00011	8b 45 08	 mov	 eax, DWORD PTR _list$[ebp]
  00014	50		 push	 eax
  00015	8b 4d 08	 mov	 ecx, DWORD PTR _list$[ebp]
  00018	8b 11		 mov	 edx, DWORD PTR [ecx]
  0001a	8b 04 95 00 00
	00 00		 mov	 eax, DWORD PTR ?fn_get_ui_object_font_type@@3PAP6G?AW4FONT_TYPES@@PAUUI_OBJECT@@@ZA[edx*4]
  00021	ff d0		 call	 eax
  00023	50		 push	 eax
  00024	e8 00 00 00 00	 call	 ?set_ui_font_type@@YGXW4FONT_TYPES@@@Z ; set_ui_font_type

; 881  : 
; 882  : 	// get height
; 883  : 
; 884  : 	height = ui_get_font_height ();

  00029	a1 00 00 00 00	 mov	 eax, DWORD PTR ?current_font@@3PAUUI_FONT_TYPE@@A ; current_font
  0002e	8b 48 10	 mov	 ecx, DWORD PTR [eax+16]
  00031	89 4d fc	 mov	 DWORD PTR _height$[ebp], ecx

; 885  : 
; 886  : 	// find proportion of ui_object used by font
; 887  : 
; 888  : 	proportion = height / get_ui_object_y_size (list);

  00034	f3 0f 2a 45 fc	 cvtsi2ss xmm0, DWORD PTR _height$[ebp]
  00039	8b 45 08	 mov	 eax, DWORD PTR _list$[ebp]
  0003c	50		 push	 eax
  0003d	8b 4d 08	 mov	 ecx, DWORD PTR _list$[ebp]
  00040	8b 11		 mov	 edx, DWORD PTR [ecx]
  00042	8b 04 95 00 00
	00 00		 mov	 eax, DWORD PTR ?fn_get_ui_object_y_size@@3PAP6GMPAUUI_OBJECT@@@ZA[edx*4]
  00049	f3 0f 11 45 ac	 movss	 DWORD PTR tv143[ebp], xmm0
  0004e	ff d0		 call	 eax
  00050	d9 5d a8	 fstp	 DWORD PTR tv134[ebp]
  00053	f3 0f 10 45 ac	 movss	 xmm0, DWORD PTR tv143[ebp]
  00058	f3 0f 5e 45 a8	 divss	 xmm0, DWORD PTR tv134[ebp]
  0005d	f3 0f 11 45 f4	 movss	 DWORD PTR _proportion$[ebp], xmm0

; 889  : 
; 890  : 	// calc spacing value
; 891  : 
; 892  : 	spacing = proportion * scaling;

  00062	f3 0f 10 45 f4	 movss	 xmm0, DWORD PTR _proportion$[ebp]
  00067	f3 0f 59 45 0c	 mulss	 xmm0, DWORD PTR _scaling$[ebp]
  0006c	f3 0f 11 45 f0	 movss	 DWORD PTR _spacing$[ebp], xmm0

; 893  : 
; 894  : 	set_ui_object_list_box_y_space (list, spacing);

  00071	51		 push	 ecx
  00072	f3 0f 10 45 f0	 movss	 xmm0, DWORD PTR _spacing$[ebp]
  00077	f3 0f 11 04 24	 movss	 DWORD PTR [esp], xmm0
  0007c	8b 45 08	 mov	 eax, DWORD PTR _list$[ebp]
  0007f	50		 push	 eax
  00080	8b 4d 08	 mov	 ecx, DWORD PTR _list$[ebp]
  00083	8b 11		 mov	 edx, DWORD PTR [ecx]
  00085	8b 04 95 00 00
	00 00		 mov	 eax, DWORD PTR ?fn_set_ui_object_list_box_y_space@@3PAP6GXPAUUI_OBJECT@@M@ZA[edx*4]
  0008c	ff d0		 call	 eax

; 895  : 
; 896  : 	set_ui_font_type (old_font);

  0008e	8b 45 f8	 mov	 eax, DWORD PTR _old_font$[ebp]
  00091	50		 push	 eax
  00092	e8 00 00 00 00	 call	 ?set_ui_font_type@@YGXW4FONT_TYPES@@@Z ; set_ui_font_type

; 897  : }

  00097	5f		 pop	 edi
  00098	5e		 pop	 esi
  00099	5b		 pop	 ebx
  0009a	8b e5		 mov	 esp, ebp
  0009c	5d		 pop	 ebp
  0009d	c2 08 00	 ret	 8
?set_ui_list_spacing_proportional_to_font@@YGXPAUUI_OBJECT@@M@Z ENDP ; set_ui_list_spacing_proportional_to_font
_TEXT	ENDS
; Function compile flags: /Odtp /ZI
; File c:\users\nhv90\projects\eech\aphavoc\source\ui_menu\main\main_sc.c
;	COMDAT ?set_frontend_slider_graphics@@YGXPAUUI_OBJECT@@@Z
_TEXT	SEGMENT
_slider$ = -8						; size = 4
_temp$ = -4						; size = 4
_parent$ = 8						; size = 4
?set_frontend_slider_graphics@@YGXPAUUI_OBJECT@@@Z PROC	; set_frontend_slider_graphics, COMDAT

; 623  : {

  00000	55		 push	 ebp
  00001	8b ec		 mov	 ebp, esp
  00003	83 ec 48	 sub	 esp, 72			; 00000048H
  00006	53		 push	 ebx
  00007	56		 push	 esi
  00008	57		 push	 edi

; 624  : 	ui_object
; 625  : 		*temp,
; 626  : 		*slider;
; 627  : 
; 628  : 	slider = get_ui_object_vslider (parent);

  00009	8b 45 08	 mov	 eax, DWORD PTR _parent$[ebp]
  0000c	50		 push	 eax
  0000d	e8 00 00 00 00	 call	 ?get_ui_object_vslider@@YGPAUUI_OBJECT@@PAU1@@Z ; get_ui_object_vslider
  00012	89 45 f8	 mov	 DWORD PTR _slider$[ebp], eax

; 629  : 
; 630  : 	ASSERT (slider);

  00015	83 7d f8 00	 cmp	 DWORD PTR _slider$[ebp], 0
  00019	75 18		 jne	 SHORT $LN2@set_fronte
  0001b	a1 00 00 00 00	 mov	 eax, DWORD PTR ?__LINE__Var@?0??set_frontend_slider_graphics@@YGXPAUUI_OBJECT@@@Z@4JA
  00020	83 c0 07	 add	 eax, 7
  00023	50		 push	 eax
  00024	68 00 00 00 00	 push	 OFFSET ??_C@_0ED@HEBLMNBF@c?3?2users?2nhv90?2projects?2eech?2ap@
  00029	68 00 00 00 00	 push	 OFFSET ??_C@_06LDFGECMB@slider@
  0002e	e8 00 00 00 00	 call	 ?process_assert@@YGXPBD0H@Z ; process_assert
$LN2@set_fronte:

; 631  : 
; 632  : 	ASSERT (frontend_slider_bar_graphic);

  00033	83 3d 00 00 00
	00 00		 cmp	 DWORD PTR ?frontend_slider_bar_graphic@@3PAUTEXTURE_GRAPHIC@@A, 0
  0003a	75 18		 jne	 SHORT $LN3@set_fronte
  0003c	a1 00 00 00 00	 mov	 eax, DWORD PTR ?__LINE__Var@?0??set_frontend_slider_graphics@@YGXPAUUI_OBJECT@@@Z@4JA
  00041	83 c0 09	 add	 eax, 9
  00044	50		 push	 eax
  00045	68 00 00 00 00	 push	 OFFSET ??_C@_0ED@HEBLMNBF@c?3?2users?2nhv90?2projects?2eech?2ap@
  0004a	68 00 00 00 00	 push	 OFFSET ??_C@_0BM@NINOABKC@frontend_slider_bar_graphic@
  0004f	e8 00 00 00 00	 call	 ?process_assert@@YGXPBD0H@Z ; process_assert
$LN3@set_fronte:

; 633  : 	ASSERT (frontend_slider_bar_highlighted_graphic);

  00054	83 3d 00 00 00
	00 00		 cmp	 DWORD PTR ?frontend_slider_bar_highlighted_graphic@@3PAUTEXTURE_GRAPHIC@@A, 0
  0005b	75 18		 jne	 SHORT $LN4@set_fronte
  0005d	a1 00 00 00 00	 mov	 eax, DWORD PTR ?__LINE__Var@?0??set_frontend_slider_graphics@@YGXPAUUI_OBJECT@@@Z@4JA
  00062	83 c0 0a	 add	 eax, 10			; 0000000aH
  00065	50		 push	 eax
  00066	68 00 00 00 00	 push	 OFFSET ??_C@_0ED@HEBLMNBF@c?3?2users?2nhv90?2projects?2eech?2ap@
  0006b	68 00 00 00 00	 push	 OFFSET ??_C@_0CI@HPBDALJ@frontend_slider_bar_highlighted@
  00070	e8 00 00 00 00	 call	 ?process_assert@@YGXPBD0H@Z ; process_assert
$LN4@set_fronte:

; 634  : 	ASSERT (frontend_slider_bar_selected_graphic);

  00075	83 3d 00 00 00
	00 00		 cmp	 DWORD PTR ?frontend_slider_bar_selected_graphic@@3PAUTEXTURE_GRAPHIC@@A, 0
  0007c	75 18		 jne	 SHORT $LN5@set_fronte
  0007e	a1 00 00 00 00	 mov	 eax, DWORD PTR ?__LINE__Var@?0??set_frontend_slider_graphics@@YGXPAUUI_OBJECT@@@Z@4JA
  00083	83 c0 0b	 add	 eax, 11			; 0000000bH
  00086	50		 push	 eax
  00087	68 00 00 00 00	 push	 OFFSET ??_C@_0ED@HEBLMNBF@c?3?2users?2nhv90?2projects?2eech?2ap@
  0008c	68 00 00 00 00	 push	 OFFSET ??_C@_0CF@OGDKOEBC@frontend_slider_bar_selected_gr@
  00091	e8 00 00 00 00	 call	 ?process_assert@@YGXPBD0H@Z ; process_assert
$LN5@set_fronte:

; 635  : 
; 636  : 	ASSERT (frontend_slider_up_graphic);

  00096	83 3d 00 00 00
	00 00		 cmp	 DWORD PTR ?frontend_slider_up_graphic@@3PAUTEXTURE_GRAPHIC@@A, 0
  0009d	75 18		 jne	 SHORT $LN6@set_fronte
  0009f	a1 00 00 00 00	 mov	 eax, DWORD PTR ?__LINE__Var@?0??set_frontend_slider_graphics@@YGXPAUUI_OBJECT@@@Z@4JA
  000a4	83 c0 0d	 add	 eax, 13			; 0000000dH
  000a7	50		 push	 eax
  000a8	68 00 00 00 00	 push	 OFFSET ??_C@_0ED@HEBLMNBF@c?3?2users?2nhv90?2projects?2eech?2ap@
  000ad	68 00 00 00 00	 push	 OFFSET ??_C@_0BL@OOACNOEL@frontend_slider_up_graphic@
  000b2	e8 00 00 00 00	 call	 ?process_assert@@YGXPBD0H@Z ; process_assert
$LN6@set_fronte:

; 637  : 	ASSERT (frontend_slider_up_highlighted_graphic);

  000b7	83 3d 00 00 00
	00 00		 cmp	 DWORD PTR ?frontend_slider_up_highlighted_graphic@@3PAUTEXTURE_GRAPHIC@@A, 0
  000be	75 18		 jne	 SHORT $LN7@set_fronte
  000c0	a1 00 00 00 00	 mov	 eax, DWORD PTR ?__LINE__Var@?0??set_frontend_slider_graphics@@YGXPAUUI_OBJECT@@@Z@4JA
  000c5	83 c0 0e	 add	 eax, 14			; 0000000eH
  000c8	50		 push	 eax
  000c9	68 00 00 00 00	 push	 OFFSET ??_C@_0ED@HEBLMNBF@c?3?2users?2nhv90?2projects?2eech?2ap@
  000ce	68 00 00 00 00	 push	 OFFSET ??_C@_0CH@FGGMMDCC@frontend_slider_up_highlighted_@
  000d3	e8 00 00 00 00	 call	 ?process_assert@@YGXPBD0H@Z ; process_assert
$LN7@set_fronte:

; 638  : 	ASSERT (frontend_slider_up_selected_graphic);

  000d8	83 3d 00 00 00
	00 00		 cmp	 DWORD PTR ?frontend_slider_up_selected_graphic@@3PAUTEXTURE_GRAPHIC@@A, 0
  000df	75 18		 jne	 SHORT $LN8@set_fronte
  000e1	a1 00 00 00 00	 mov	 eax, DWORD PTR ?__LINE__Var@?0??set_frontend_slider_graphics@@YGXPAUUI_OBJECT@@@Z@4JA
  000e6	83 c0 0f	 add	 eax, 15			; 0000000fH
  000e9	50		 push	 eax
  000ea	68 00 00 00 00	 push	 OFFSET ??_C@_0ED@HEBLMNBF@c?3?2users?2nhv90?2projects?2eech?2ap@
  000ef	68 00 00 00 00	 push	 OFFSET ??_C@_0CE@BBNCDKJD@frontend_slider_up_selected_gra@
  000f4	e8 00 00 00 00	 call	 ?process_assert@@YGXPBD0H@Z ; process_assert
$LN8@set_fronte:

; 639  : 
; 640  : 	ASSERT (frontend_slider_down_graphic);

  000f9	83 3d 00 00 00
	00 00		 cmp	 DWORD PTR ?frontend_slider_down_graphic@@3PAUTEXTURE_GRAPHIC@@A, 0
  00100	75 18		 jne	 SHORT $LN9@set_fronte
  00102	a1 00 00 00 00	 mov	 eax, DWORD PTR ?__LINE__Var@?0??set_frontend_slider_graphics@@YGXPAUUI_OBJECT@@@Z@4JA
  00107	83 c0 11	 add	 eax, 17			; 00000011H
  0010a	50		 push	 eax
  0010b	68 00 00 00 00	 push	 OFFSET ??_C@_0ED@HEBLMNBF@c?3?2users?2nhv90?2projects?2eech?2ap@
  00110	68 00 00 00 00	 push	 OFFSET ??_C@_0BN@BDNHFJDO@frontend_slider_down_graphic@
  00115	e8 00 00 00 00	 call	 ?process_assert@@YGXPBD0H@Z ; process_assert
$LN9@set_fronte:

; 641  : 	ASSERT (frontend_slider_down_highlighted_graphic);

  0011a	83 3d 00 00 00
	00 00		 cmp	 DWORD PTR ?frontend_slider_down_highlighted_graphic@@3PAUTEXTURE_GRAPHIC@@A, 0
  00121	75 18		 jne	 SHORT $LN10@set_fronte
  00123	a1 00 00 00 00	 mov	 eax, DWORD PTR ?__LINE__Var@?0??set_frontend_slider_graphics@@YGXPAUUI_OBJECT@@@Z@4JA
  00128	83 c0 12	 add	 eax, 18			; 00000012H
  0012b	50		 push	 eax
  0012c	68 00 00 00 00	 push	 OFFSET ??_C@_0ED@HEBLMNBF@c?3?2users?2nhv90?2projects?2eech?2ap@
  00131	68 00 00 00 00	 push	 OFFSET ??_C@_0CJ@GKNOHFBK@frontend_slider_down_highlighte@
  00136	e8 00 00 00 00	 call	 ?process_assert@@YGXPBD0H@Z ; process_assert
$LN10@set_fronte:

; 642  : 	ASSERT (frontend_slider_down_selected_graphic);

  0013b	83 3d 00 00 00
	00 00		 cmp	 DWORD PTR ?frontend_slider_down_selected_graphic@@3PAUTEXTURE_GRAPHIC@@A, 0
  00142	75 18		 jne	 SHORT $LN11@set_fronte
  00144	a1 00 00 00 00	 mov	 eax, DWORD PTR ?__LINE__Var@?0??set_frontend_slider_graphics@@YGXPAUUI_OBJECT@@@Z@4JA
  00149	83 c0 13	 add	 eax, 19			; 00000013H
  0014c	50		 push	 eax
  0014d	68 00 00 00 00	 push	 OFFSET ??_C@_0ED@HEBLMNBF@c?3?2users?2nhv90?2projects?2eech?2ap@
  00152	68 00 00 00 00	 push	 OFFSET ??_C@_0CG@KCOPBGOP@frontend_slider_down_selected_g@
  00157	e8 00 00 00 00	 call	 ?process_assert@@YGXPBD0H@Z ; process_assert
$LN11@set_fronte:

; 643  : 
; 644  : 	set_ui_object_texture_graphic (slider, frontend_slider_bdrop_graphic);

  0015c	a1 00 00 00 00	 mov	 eax, DWORD PTR ?frontend_slider_bdrop_graphic@@3PAUTEXTURE_GRAPHIC@@A
  00161	50		 push	 eax
  00162	8b 4d f8	 mov	 ecx, DWORD PTR _slider$[ebp]
  00165	51		 push	 ecx
  00166	8b 55 f8	 mov	 edx, DWORD PTR _slider$[ebp]
  00169	8b 02		 mov	 eax, DWORD PTR [edx]
  0016b	8b 0c 85 00 00
	00 00		 mov	 ecx, DWORD PTR ?fn_set_ui_object_texture_graphic@@3PAP6GXPAUUI_OBJECT@@PAUTEXTURE_GRAPHIC@@@ZA[eax*4]
  00172	ff d1		 call	 ecx

; 645  : 
; 646  : //	set_ui_object_clear (slider, TRUE);
; 647  : 
; 648  : 	// get slider & set graphic
; 649  : 	temp = get_ui_object_child (slider);

  00174	8b 45 f8	 mov	 eax, DWORD PTR _slider$[ebp]
  00177	50		 push	 eax
  00178	8b 4d f8	 mov	 ecx, DWORD PTR _slider$[ebp]
  0017b	8b 11		 mov	 edx, DWORD PTR [ecx]
  0017d	8b 04 95 00 00
	00 00		 mov	 eax, DWORD PTR ?fn_get_ui_object_child@@3PAP6GPAUUI_OBJECT@@PAU1@@ZA[edx*4]
  00184	ff d0		 call	 eax
  00186	89 45 fc	 mov	 DWORD PTR _temp$[ebp], eax

; 650  : 	set_ui_object_texture_graphic (temp, frontend_slider_bar_graphic);

  00189	a1 00 00 00 00	 mov	 eax, DWORD PTR ?frontend_slider_bar_graphic@@3PAUTEXTURE_GRAPHIC@@A
  0018e	50		 push	 eax
  0018f	8b 4d fc	 mov	 ecx, DWORD PTR _temp$[ebp]
  00192	51		 push	 ecx
  00193	8b 55 fc	 mov	 edx, DWORD PTR _temp$[ebp]
  00196	8b 02		 mov	 eax, DWORD PTR [edx]
  00198	8b 0c 85 00 00
	00 00		 mov	 ecx, DWORD PTR ?fn_set_ui_object_texture_graphic@@3PAP6GXPAUUI_OBJECT@@PAUTEXTURE_GRAPHIC@@@ZA[eax*4]
  0019f	ff d1		 call	 ecx

; 651  : 	set_ui_object_highlighted_texture_graphic (temp, frontend_slider_bar_highlighted_graphic);

  001a1	a1 00 00 00 00	 mov	 eax, DWORD PTR ?frontend_slider_bar_highlighted_graphic@@3PAUTEXTURE_GRAPHIC@@A
  001a6	50		 push	 eax
  001a7	8b 4d fc	 mov	 ecx, DWORD PTR _temp$[ebp]
  001aa	51		 push	 ecx
  001ab	8b 55 fc	 mov	 edx, DWORD PTR _temp$[ebp]
  001ae	8b 02		 mov	 eax, DWORD PTR [edx]
  001b0	8b 0c 85 00 00
	00 00		 mov	 ecx, DWORD PTR ?fn_set_ui_object_highlighted_texture_graphic@@3PAP6GXPAUUI_OBJECT@@PAUTEXTURE_GRAPHIC@@@ZA[eax*4]
  001b7	ff d1		 call	 ecx

; 652  : 	set_ui_object_selected_texture_graphic (temp, frontend_slider_bar_selected_graphic);

  001b9	a1 00 00 00 00	 mov	 eax, DWORD PTR ?frontend_slider_bar_selected_graphic@@3PAUTEXTURE_GRAPHIC@@A
  001be	50		 push	 eax
  001bf	8b 4d fc	 mov	 ecx, DWORD PTR _temp$[ebp]
  001c2	51		 push	 ecx
  001c3	8b 55 fc	 mov	 edx, DWORD PTR _temp$[ebp]
  001c6	8b 02		 mov	 eax, DWORD PTR [edx]
  001c8	8b 0c 85 00 00
	00 00		 mov	 ecx, DWORD PTR ?fn_set_ui_object_selected_texture_graphic@@3PAP6GXPAUUI_OBJECT@@PAUTEXTURE_GRAPHIC@@@ZA[eax*4]
  001cf	ff d1		 call	 ecx

; 653  : 	set_ui_object_text (temp, "");

  001d1	68 00 00 00 00	 push	 OFFSET ??_C@_00CNPNBAHC@@
  001d6	8b 45 fc	 mov	 eax, DWORD PTR _temp$[ebp]
  001d9	50		 push	 eax
  001da	8b 4d fc	 mov	 ecx, DWORD PTR _temp$[ebp]
  001dd	8b 11		 mov	 edx, DWORD PTR [ecx]
  001df	8b 04 95 00 00
	00 00		 mov	 eax, DWORD PTR ?fn_set_ui_object_text@@3PAP6GXPAUUI_OBJECT@@PBD@ZA[edx*4]
  001e6	ff d0		 call	 eax

; 654  : 
; 655  : 	// get up button & set graphic
; 656  : 	temp = get_ui_object_next (temp);

  001e8	8b 45 fc	 mov	 eax, DWORD PTR _temp$[ebp]
  001eb	50		 push	 eax
  001ec	8b 4d fc	 mov	 ecx, DWORD PTR _temp$[ebp]
  001ef	8b 11		 mov	 edx, DWORD PTR [ecx]
  001f1	8b 04 95 00 00
	00 00		 mov	 eax, DWORD PTR ?fn_get_ui_object_next@@3PAP6GPAUUI_OBJECT@@PAU1@@ZA[edx*4]
  001f8	ff d0		 call	 eax
  001fa	89 45 fc	 mov	 DWORD PTR _temp$[ebp], eax

; 657  : 	set_ui_object_texture_graphic (temp, frontend_slider_up_graphic);

  001fd	a1 00 00 00 00	 mov	 eax, DWORD PTR ?frontend_slider_up_graphic@@3PAUTEXTURE_GRAPHIC@@A
  00202	50		 push	 eax
  00203	8b 4d fc	 mov	 ecx, DWORD PTR _temp$[ebp]
  00206	51		 push	 ecx
  00207	8b 55 fc	 mov	 edx, DWORD PTR _temp$[ebp]
  0020a	8b 02		 mov	 eax, DWORD PTR [edx]
  0020c	8b 0c 85 00 00
	00 00		 mov	 ecx, DWORD PTR ?fn_set_ui_object_texture_graphic@@3PAP6GXPAUUI_OBJECT@@PAUTEXTURE_GRAPHIC@@@ZA[eax*4]
  00213	ff d1		 call	 ecx

; 658  : 	set_ui_object_highlighted_texture_graphic (temp, frontend_slider_up_highlighted_graphic);

  00215	a1 00 00 00 00	 mov	 eax, DWORD PTR ?frontend_slider_up_highlighted_graphic@@3PAUTEXTURE_GRAPHIC@@A
  0021a	50		 push	 eax
  0021b	8b 4d fc	 mov	 ecx, DWORD PTR _temp$[ebp]
  0021e	51		 push	 ecx
  0021f	8b 55 fc	 mov	 edx, DWORD PTR _temp$[ebp]
  00222	8b 02		 mov	 eax, DWORD PTR [edx]
  00224	8b 0c 85 00 00
	00 00		 mov	 ecx, DWORD PTR ?fn_set_ui_object_highlighted_texture_graphic@@3PAP6GXPAUUI_OBJECT@@PAUTEXTURE_GRAPHIC@@@ZA[eax*4]
  0022b	ff d1		 call	 ecx

; 659  : 	set_ui_object_selected_texture_graphic (temp, frontend_slider_up_selected_graphic);

  0022d	a1 00 00 00 00	 mov	 eax, DWORD PTR ?frontend_slider_up_selected_graphic@@3PAUTEXTURE_GRAPHIC@@A
  00232	50		 push	 eax
  00233	8b 4d fc	 mov	 ecx, DWORD PTR _temp$[ebp]
  00236	51		 push	 ecx
  00237	8b 55 fc	 mov	 edx, DWORD PTR _temp$[ebp]
  0023a	8b 02		 mov	 eax, DWORD PTR [edx]
  0023c	8b 0c 85 00 00
	00 00		 mov	 ecx, DWORD PTR ?fn_set_ui_object_selected_texture_graphic@@3PAP6GXPAUUI_OBJECT@@PAUTEXTURE_GRAPHIC@@@ZA[eax*4]
  00243	ff d1		 call	 ecx

; 660  : 	set_ui_object_text (temp, "");

  00245	68 00 00 00 00	 push	 OFFSET ??_C@_00CNPNBAHC@@
  0024a	8b 45 fc	 mov	 eax, DWORD PTR _temp$[ebp]
  0024d	50		 push	 eax
  0024e	8b 4d fc	 mov	 ecx, DWORD PTR _temp$[ebp]
  00251	8b 11		 mov	 edx, DWORD PTR [ecx]
  00253	8b 04 95 00 00
	00 00		 mov	 eax, DWORD PTR ?fn_set_ui_object_text@@3PAP6GXPAUUI_OBJECT@@PBD@ZA[edx*4]
  0025a	ff d0		 call	 eax

; 661  : 
; 662  : 	// get down button & set graphic
; 663  : 	temp = get_ui_object_next (temp);

  0025c	8b 45 fc	 mov	 eax, DWORD PTR _temp$[ebp]
  0025f	50		 push	 eax
  00260	8b 4d fc	 mov	 ecx, DWORD PTR _temp$[ebp]
  00263	8b 11		 mov	 edx, DWORD PTR [ecx]
  00265	8b 04 95 00 00
	00 00		 mov	 eax, DWORD PTR ?fn_get_ui_object_next@@3PAP6GPAUUI_OBJECT@@PAU1@@ZA[edx*4]
  0026c	ff d0		 call	 eax
  0026e	89 45 fc	 mov	 DWORD PTR _temp$[ebp], eax

; 664  : 	set_ui_object_texture_graphic (temp, frontend_slider_down_graphic);

  00271	a1 00 00 00 00	 mov	 eax, DWORD PTR ?frontend_slider_down_graphic@@3PAUTEXTURE_GRAPHIC@@A
  00276	50		 push	 eax
  00277	8b 4d fc	 mov	 ecx, DWORD PTR _temp$[ebp]
  0027a	51		 push	 ecx
  0027b	8b 55 fc	 mov	 edx, DWORD PTR _temp$[ebp]
  0027e	8b 02		 mov	 eax, DWORD PTR [edx]
  00280	8b 0c 85 00 00
	00 00		 mov	 ecx, DWORD PTR ?fn_set_ui_object_texture_graphic@@3PAP6GXPAUUI_OBJECT@@PAUTEXTURE_GRAPHIC@@@ZA[eax*4]
  00287	ff d1		 call	 ecx

; 665  : 	set_ui_object_highlighted_texture_graphic (temp, frontend_slider_down_highlighted_graphic);

  00289	a1 00 00 00 00	 mov	 eax, DWORD PTR ?frontend_slider_down_highlighted_graphic@@3PAUTEXTURE_GRAPHIC@@A
  0028e	50		 push	 eax
  0028f	8b 4d fc	 mov	 ecx, DWORD PTR _temp$[ebp]
  00292	51		 push	 ecx
  00293	8b 55 fc	 mov	 edx, DWORD PTR _temp$[ebp]
  00296	8b 02		 mov	 eax, DWORD PTR [edx]
  00298	8b 0c 85 00 00
	00 00		 mov	 ecx, DWORD PTR ?fn_set_ui_object_highlighted_texture_graphic@@3PAP6GXPAUUI_OBJECT@@PAUTEXTURE_GRAPHIC@@@ZA[eax*4]
  0029f	ff d1		 call	 ecx

; 666  : 	set_ui_object_selected_texture_graphic (temp, frontend_slider_down_selected_graphic);

  002a1	a1 00 00 00 00	 mov	 eax, DWORD PTR ?frontend_slider_down_selected_graphic@@3PAUTEXTURE_GRAPHIC@@A
  002a6	50		 push	 eax
  002a7	8b 4d fc	 mov	 ecx, DWORD PTR _temp$[ebp]
  002aa	51		 push	 ecx
  002ab	8b 55 fc	 mov	 edx, DWORD PTR _temp$[ebp]
  002ae	8b 02		 mov	 eax, DWORD PTR [edx]
  002b0	8b 0c 85 00 00
	00 00		 mov	 ecx, DWORD PTR ?fn_set_ui_object_selected_texture_graphic@@3PAP6GXPAUUI_OBJECT@@PAUTEXTURE_GRAPHIC@@@ZA[eax*4]
  002b7	ff d1		 call	 ecx

; 667  : 	set_ui_object_text (temp, "");

  002b9	68 00 00 00 00	 push	 OFFSET ??_C@_00CNPNBAHC@@
  002be	8b 45 fc	 mov	 eax, DWORD PTR _temp$[ebp]
  002c1	50		 push	 eax
  002c2	8b 4d fc	 mov	 ecx, DWORD PTR _temp$[ebp]
  002c5	8b 11		 mov	 edx, DWORD PTR [ecx]
  002c7	8b 04 95 00 00
	00 00		 mov	 eax, DWORD PTR ?fn_set_ui_object_text@@3PAP6GXPAUUI_OBJECT@@PBD@ZA[edx*4]
  002ce	ff d0		 call	 eax

; 668  : }

  002d0	5f		 pop	 edi
  002d1	5e		 pop	 esi
  002d2	5b		 pop	 ebx
  002d3	8b e5		 mov	 esp, ebp
  002d5	5d		 pop	 ebp
  002d6	c2 04 00	 ret	 4
?set_frontend_slider_graphics@@YGXPAUUI_OBJECT@@@Z ENDP	; set_frontend_slider_graphics
_TEXT	ENDS
; Function compile flags: /Odtp /ZI
; File c:\users\nhv90\projects\eech\aphavoc\source\ui_menu\main\main_sc.c
;	COMDAT ?draw_main_screen_background@@YGXPAUUI_OBJECT@@PAX@Z
_TEXT	SEGMENT
_obj$ = 8						; size = 4
_data$ = 12						; size = 4
?draw_main_screen_background@@YGXPAUUI_OBJECT@@PAX@Z PROC ; draw_main_screen_background, COMDAT

; 716  : {

  00000	55		 push	 ebp
  00001	8b ec		 mov	 ebp, esp
  00003	83 ec 40	 sub	 esp, 64			; 00000040H
  00006	53		 push	 ebx
  00007	56		 push	 esi
  00008	57		 push	 edi

; 717  : /*
; 718  : 	object_3d_instance
; 719  : 		*apache;
; 720  : 
; 721  : 	static float
; 722  : 		heading = 0,
; 723  : 		my_heading = 0;
; 724  : 
; 725  : 	static int
; 726  : 		my_time = 3600*12;
; 727  : 
; 728  : 	clear_zbuffer_screen ();
; 729  : 
; 730  : 	set_3d_active_environment (main_3d_env);
; 731  : 
; 732  : 	set_3d_infrared_mode ( main_3d_env, INFRARED_OFF );
; 733  : 
; 734  : 	set_3d_weathermode (main_3d_env, WEATHERMODE_DRY );
; 735  : 
; 736  : 	set_3d_target_weathermode (main_3d_env, WEATHERMODE_DRY );
; 737  : 
; 738  : 	set_3d_target_weathermode_transitional_status (main_3d_env, 0.0 );
; 739  : 
; 740  : 	set_3d_time_of_day (main_3d_env, my_time );
; 741  : 
; 742  : 	recalculate_3d_environment_settings (main_3d_env);
; 743  : 
; 744  : 	visual_3d_vp->x = 0;
; 745  : 	visual_3d_vp->y = 0;
; 746  : 	visual_3d_vp->z = 0;
; 747  : 	visual_3d_vp->xv.x = 1;
; 748  : 	visual_3d_vp->xv.y = 0;
; 749  : 	visual_3d_vp->xv.z = 0;
; 750  : 	visual_3d_vp->yv.x = 0;
; 751  : 	visual_3d_vp->yv.y = 1;
; 752  : 	visual_3d_vp->yv.z = 0;
; 753  : 	visual_3d_vp->zv.x = 0;
; 754  : 	visual_3d_vp->zv.y = 0;
; 755  : 	visual_3d_vp->zv.z = 1;
; 756  : 
; 757  : 	apache = construct_3d_object ( OBJECT_3D_MAIN_MENU );
; 758  : 
; 759  : 	apache->vp.x = 0;
; 760  : 	apache->vp.y = 0;
; 761  : 	apache->vp.z = 20;
; 762  : 
; 763  : 	get_3d_transformation_matrix ( visual_3d_vp->attitude, 0, rad ( 0 ) , my_heading );
; 764  : 	get_3d_transformation_matrix ( apache->vp.attitude, heading, rad ( 0 ) , rad ( 0 ) );
; 765  : 
; 766  : 	my_time += 3600 / 100;
; 767  : 
; 768  : 	if ( my_time >= 3600*24)
; 769  : 	{
; 770  : 
; 771  : 		my_time -= 3600*24;
; 772  : 	}
; 773  : 
; 774  : 	animate_screen_scene ( main_screen_t_value, apache );
; 775  : 
; 776  : 	main_screen_t_value += 0.025;
; 777  : 
; 778  : 	if ( main_screen_t_value > 1.0 )
; 779  : 	{
; 780  : 
; 781  : 		main_screen_t_value = 1.0;
; 782  : 	}
; 783  : 
; 784  : 	{
; 785  : 
; 786  : //		draw_3d_horizon ();
; 787  : 
; 788  : 		insert_object_into_3d_scene ( OBJECT_3D_DRAW_TYPE_OBJECT, apache );
; 789  : 
; 790  : 		draw_3d_sun ();
; 791  : 
; 792  : 		draw_3d_scene ();
; 793  : 	}
; 794  : 
; 795  : 	destruct_3d_object ( apache );
; 796  : 	*/
; 797  : }

  00009	5f		 pop	 edi
  0000a	5e		 pop	 esi
  0000b	5b		 pop	 ebx
  0000c	8b e5		 mov	 esp, ebp
  0000e	5d		 pop	 ebp
  0000f	c2 08 00	 ret	 8
?draw_main_screen_background@@YGXPAUUI_OBJECT@@PAX@Z ENDP ; draw_main_screen_background
_TEXT	ENDS
; Function compile flags: /Odtp /ZI
; File c:\users\nhv90\projects\eech\aphavoc\source\ui_menu\main\main_sc.c
;	COMDAT ?initialise_main_screen@@YGXXZ
_TEXT	SEGMENT
_i$ = -32						; size = 4
_y2$ = -28						; size = 4
_x2$ = -24						; size = 4
_y1$ = -20						; size = 4
_x1$ = -16						; size = 4
_registered_to_message$ = -12				; size = 4
_change_obj$ = -8					; size = 4
_option_bdrop$ = -4					; size = 4
?initialise_main_screen@@YGXXZ PROC			; initialise_main_screen, COMDAT

; 134  : {

  00000	55		 push	 ebp
  00001	8b ec		 mov	 ebp, esp
  00003	83 ec 60	 sub	 esp, 96			; 00000060H
  00006	53		 push	 ebx
  00007	56		 push	 esi
  00008	57		 push	 edi

; 135  : 	ui_object
; 136  : 		*option_bdrop,
; 137  : 		*change_obj,
; 138  : 		*registered_to_message;
; 139  : 
; 140  : 	float
; 141  : 		x1,
; 142  : 		y1,
; 143  : 		x2,
; 144  : 		y2;
; 145  : 
; 146  : 	int
; 147  : 		i;
; 148  : 
; 149  : 	/////////////////////////////////////////////////////////////////
; 150  : 	// option area & button texture objects
; 151  : 
; 152  : 	if (options_box_small)

  00009	83 3d 00 00 00
	00 00		 cmp	 DWORD PTR ?options_box_small@@3PAUTEXTURE_GRAPHIC@@A, 0 ; options_box_small
  00010	74 15		 je	 SHORT $LN2@initialise

; 153  : 	{
; 154  : 		destroy_texture_graphic (options_box_small);

  00012	a1 00 00 00 00	 mov	 eax, DWORD PTR ?options_box_small@@3PAUTEXTURE_GRAPHIC@@A ; options_box_small
  00017	50		 push	 eax
  00018	e8 00 00 00 00	 call	 ?destroy_texture_graphic@@YGXPAUTEXTURE_GRAPHIC@@@Z ; destroy_texture_graphic

; 155  : 
; 156  : 		options_box_small = NULL;

  0001d	c7 05 00 00 00
	00 00 00 00 00	 mov	 DWORD PTR ?options_box_small@@3PAUTEXTURE_GRAPHIC@@A, 0 ; options_box_small
$LN2@initialise:

; 157  : 	}
; 158  : 
; 159  : 	options_box_small = create_texture_graphic ( "graphics\\ui\\cohokum\\boxsmall.psd" );

  00027	68 00 00 00 00	 push	 OFFSET ??_C@_0CB@JKLBNLPM@graphics?2ui?2cohokum?2boxsmall?4ps@
  0002c	e8 00 00 00 00	 call	 ?create_texture_graphic@@YGPAUTEXTURE_GRAPHIC@@PBD@Z ; create_texture_graphic
  00031	a3 00 00 00 00	 mov	 DWORD PTR ?options_box_small@@3PAUTEXTURE_GRAPHIC@@A, eax ; options_box_small

; 160  : 
; 161  : 	if (options_box_medium)

  00036	83 3d 00 00 00
	00 00		 cmp	 DWORD PTR ?options_box_medium@@3PAUTEXTURE_GRAPHIC@@A, 0 ; options_box_medium
  0003d	74 15		 je	 SHORT $LN3@initialise

; 162  : 	{
; 163  : 		destroy_texture_graphic (options_box_medium);

  0003f	a1 00 00 00 00	 mov	 eax, DWORD PTR ?options_box_medium@@3PAUTEXTURE_GRAPHIC@@A ; options_box_medium
  00044	50		 push	 eax
  00045	e8 00 00 00 00	 call	 ?destroy_texture_graphic@@YGXPAUTEXTURE_GRAPHIC@@@Z ; destroy_texture_graphic

; 164  : 
; 165  : 		options_box_medium = NULL;

  0004a	c7 05 00 00 00
	00 00 00 00 00	 mov	 DWORD PTR ?options_box_medium@@3PAUTEXTURE_GRAPHIC@@A, 0 ; options_box_medium
$LN3@initialise:

; 166  : 	}
; 167  : 
; 168  : 	options_box_medium = create_texture_graphic ( "graphics\\ui\\cohokum\\boxmed.psd" );

  00054	68 00 00 00 00	 push	 OFFSET ??_C@_0BP@COLOGJP@graphics?2ui?2cohokum?2boxmed?4psd@
  00059	e8 00 00 00 00	 call	 ?create_texture_graphic@@YGPAUTEXTURE_GRAPHIC@@PBD@Z ; create_texture_graphic
  0005e	a3 00 00 00 00	 mov	 DWORD PTR ?options_box_medium@@3PAUTEXTURE_GRAPHIC@@A, eax ; options_box_medium

; 169  : 
; 170  : 	if (options_box_large)

  00063	83 3d 00 00 00
	00 00		 cmp	 DWORD PTR ?options_box_large@@3PAUTEXTURE_GRAPHIC@@A, 0 ; options_box_large
  0006a	74 15		 je	 SHORT $LN4@initialise

; 171  : 	{
; 172  : 		destroy_texture_graphic (options_box_large);

  0006c	a1 00 00 00 00	 mov	 eax, DWORD PTR ?options_box_large@@3PAUTEXTURE_GRAPHIC@@A ; options_box_large
  00071	50		 push	 eax
  00072	e8 00 00 00 00	 call	 ?destroy_texture_graphic@@YGXPAUTEXTURE_GRAPHIC@@@Z ; destroy_texture_graphic

; 173  : 
; 174  : 		options_box_large = NULL;

  00077	c7 05 00 00 00
	00 00 00 00 00	 mov	 DWORD PTR ?options_box_large@@3PAUTEXTURE_GRAPHIC@@A, 0 ; options_box_large
$LN4@initialise:

; 175  : 	}
; 176  : 
; 177  : 	options_box_large = create_texture_graphic ( "graphics\\ui\\cohokum\\boxlarge.psd" );

  00081	68 00 00 00 00	 push	 OFFSET ??_C@_0CB@HNBMMBHH@graphics?2ui?2cohokum?2boxlarge?4ps@
  00086	e8 00 00 00 00	 call	 ?create_texture_graphic@@YGPAUTEXTURE_GRAPHIC@@PBD@Z ; create_texture_graphic
  0008b	a3 00 00 00 00	 mov	 DWORD PTR ?options_box_large@@3PAUTEXTURE_GRAPHIC@@A, eax ; options_box_large

; 178  : 
; 179  : 	if (options_box_extra_large)

  00090	83 3d 00 00 00
	00 00		 cmp	 DWORD PTR ?options_box_extra_large@@3PAUTEXTURE_GRAPHIC@@A, 0 ; options_box_extra_large
  00097	74 15		 je	 SHORT $LN5@initialise

; 180  : 	{
; 181  : 		destroy_texture_graphic (options_box_extra_large);

  00099	a1 00 00 00 00	 mov	 eax, DWORD PTR ?options_box_extra_large@@3PAUTEXTURE_GRAPHIC@@A ; options_box_extra_large
  0009e	50		 push	 eax
  0009f	e8 00 00 00 00	 call	 ?destroy_texture_graphic@@YGXPAUTEXTURE_GRAPHIC@@@Z ; destroy_texture_graphic

; 182  : 
; 183  : 		options_box_extra_large = NULL;

  000a4	c7 05 00 00 00
	00 00 00 00 00	 mov	 DWORD PTR ?options_box_extra_large@@3PAUTEXTURE_GRAPHIC@@A, 0 ; options_box_extra_large
$LN5@initialise:

; 184  : 	}
; 185  : 
; 186  : 	options_box_extra_large = create_texture_graphic ( "graphics\\ui\\cohokum\\boxexlrg.psd" );

  000ae	68 00 00 00 00	 push	 OFFSET ??_C@_0CB@JAHFCPOM@graphics?2ui?2cohokum?2boxexlrg?4ps@
  000b3	e8 00 00 00 00	 call	 ?create_texture_graphic@@YGPAUTEXTURE_GRAPHIC@@PBD@Z ; create_texture_graphic
  000b8	a3 00 00 00 00	 mov	 DWORD PTR ?options_box_extra_large@@3PAUTEXTURE_GRAPHIC@@A, eax ; options_box_extra_large

; 187  : 
; 188  : 	if (text_box_graphic)

  000bd	83 3d 00 00 00
	00 00		 cmp	 DWORD PTR ?text_box_graphic@@3PAUTEXTURE_GRAPHIC@@A, 0 ; text_box_graphic
  000c4	74 15		 je	 SHORT $LN6@initialise

; 189  : 	{
; 190  : 		destroy_texture_graphic (text_box_graphic);

  000c6	a1 00 00 00 00	 mov	 eax, DWORD PTR ?text_box_graphic@@3PAUTEXTURE_GRAPHIC@@A ; text_box_graphic
  000cb	50		 push	 eax
  000cc	e8 00 00 00 00	 call	 ?destroy_texture_graphic@@YGXPAUTEXTURE_GRAPHIC@@@Z ; destroy_texture_graphic

; 191  : 
; 192  : 		text_box_graphic = NULL;

  000d1	c7 05 00 00 00
	00 00 00 00 00	 mov	 DWORD PTR ?text_box_graphic@@3PAUTEXTURE_GRAPHIC@@A, 0 ; text_box_graphic
$LN6@initialise:

; 193  : 	}
; 194  : 
; 195  : 	text_box_graphic = create_texture_graphic ( "graphics\\ui\\cohokum\\Boxtext.psd" );

  000db	68 00 00 00 00	 push	 OFFSET ??_C@_0CA@PIOFFCNI@graphics?2ui?2cohokum?2Boxtext?4psd@
  000e0	e8 00 00 00 00	 call	 ?create_texture_graphic@@YGPAUTEXTURE_GRAPHIC@@PBD@Z ; create_texture_graphic
  000e5	a3 00 00 00 00	 mov	 DWORD PTR ?text_box_graphic@@3PAUTEXTURE_GRAPHIC@@A, eax ; text_box_graphic

; 196  : 
; 197  : 	if (text_option_bdrop)

  000ea	83 3d 00 00 00
	00 00		 cmp	 DWORD PTR ?text_option_bdrop@@3PAUTEXTURE_GRAPHIC@@A, 0 ; text_option_bdrop
  000f1	74 15		 je	 SHORT $LN7@initialise

; 198  : 	{
; 199  : 		destroy_texture_graphic (text_option_bdrop);

  000f3	a1 00 00 00 00	 mov	 eax, DWORD PTR ?text_option_bdrop@@3PAUTEXTURE_GRAPHIC@@A ; text_option_bdrop
  000f8	50		 push	 eax
  000f9	e8 00 00 00 00	 call	 ?destroy_texture_graphic@@YGXPAUTEXTURE_GRAPHIC@@@Z ; destroy_texture_graphic

; 200  : 
; 201  : 		text_option_bdrop = NULL;

  000fe	c7 05 00 00 00
	00 00 00 00 00	 mov	 DWORD PTR ?text_option_bdrop@@3PAUTEXTURE_GRAPHIC@@A, 0 ; text_option_bdrop
$LN7@initialise:

; 202  : 	}
; 203  : 
; 204  : 	text_option_bdrop = create_texture_graphic ( "graphics\\ui\\cohokum\\bstripe.psd" );

  00108	68 00 00 00 00	 push	 OFFSET ??_C@_0CA@IBNEMMDO@graphics?2ui?2cohokum?2bstripe?4psd@
  0010d	e8 00 00 00 00	 call	 ?create_texture_graphic@@YGPAUTEXTURE_GRAPHIC@@PBD@Z ; create_texture_graphic
  00112	a3 00 00 00 00	 mov	 DWORD PTR ?text_option_bdrop@@3PAUTEXTURE_GRAPHIC@@A, eax ; text_option_bdrop

; 205  : 
; 206  : 	/////////////////////////////////////////////////////////////////
; 207  : 	// List box graphics
; 208  : 
; 209  : 	if (list_box_graphic)

  00117	83 3d 00 00 00
	00 00		 cmp	 DWORD PTR ?list_box_graphic@@3PAUTEXTURE_GRAPHIC@@A, 0 ; list_box_graphic
  0011e	74 15		 je	 SHORT $LN8@initialise

; 210  : 	{
; 211  : 
; 212  : 		destroy_texture_graphic (list_box_graphic);

  00120	a1 00 00 00 00	 mov	 eax, DWORD PTR ?list_box_graphic@@3PAUTEXTURE_GRAPHIC@@A ; list_box_graphic
  00125	50		 push	 eax
  00126	e8 00 00 00 00	 call	 ?destroy_texture_graphic@@YGXPAUTEXTURE_GRAPHIC@@@Z ; destroy_texture_graphic

; 213  : 
; 214  : 		list_box_graphic = NULL;

  0012b	c7 05 00 00 00
	00 00 00 00 00	 mov	 DWORD PTR ?list_box_graphic@@3PAUTEXTURE_GRAPHIC@@A, 0 ; list_box_graphic
$LN8@initialise:

; 215  : 	}
; 216  : 
; 217  : 	list_box_graphic = create_texture_graphic ( "graphics\\ui\\cohokum\\BoxList.psd" );

  00135	68 00 00 00 00	 push	 OFFSET ??_C@_0CA@DIKEHBKH@graphics?2ui?2cohokum?2BoxList?4psd@
  0013a	e8 00 00 00 00	 call	 ?create_texture_graphic@@YGPAUTEXTURE_GRAPHIC@@PBD@Z ; create_texture_graphic
  0013f	a3 00 00 00 00	 mov	 DWORD PTR ?list_box_graphic@@3PAUTEXTURE_GRAPHIC@@A, eax ; list_box_graphic

; 218  : 
; 219  : 	// initialise slider graphics
; 220  : 	frontend_slider_bdrop_graphic					= create_texture_graphic ( "graphics\\ui\\cohokum\\map\\sbcklist.psd" );

  00144	68 00 00 00 00	 push	 OFFSET ??_C@_0CF@IIOEIONG@graphics?2ui?2cohokum?2map?2sbcklis@
  00149	e8 00 00 00 00	 call	 ?create_texture_graphic@@YGPAUTEXTURE_GRAPHIC@@PBD@Z ; create_texture_graphic
  0014e	a3 00 00 00 00	 mov	 DWORD PTR ?frontend_slider_bdrop_graphic@@3PAUTEXTURE_GRAPHIC@@A, eax

; 221  : 
; 222  : 	frontend_slider_bar_graphic 					= create_texture_graphic ( "graphics\\ui\\cohokum\\map\\scrolblu.psd" );

  00153	68 00 00 00 00	 push	 OFFSET ??_C@_0CF@HCHCFKBM@graphics?2ui?2cohokum?2map?2scrolbl@
  00158	e8 00 00 00 00	 call	 ?create_texture_graphic@@YGPAUTEXTURE_GRAPHIC@@PBD@Z ; create_texture_graphic
  0015d	a3 00 00 00 00	 mov	 DWORD PTR ?frontend_slider_bar_graphic@@3PAUTEXTURE_GRAPHIC@@A, eax

; 223  : 	frontend_slider_bar_highlighted_graphic 	= create_texture_graphic ( "graphics\\ui\\cohokum\\map\\scrolwht.psd" );

  00162	68 00 00 00 00	 push	 OFFSET ??_C@_0CF@HJDKJCOF@graphics?2ui?2cohokum?2map?2scrolwh@
  00167	e8 00 00 00 00	 call	 ?create_texture_graphic@@YGPAUTEXTURE_GRAPHIC@@PBD@Z ; create_texture_graphic
  0016c	a3 00 00 00 00	 mov	 DWORD PTR ?frontend_slider_bar_highlighted_graphic@@3PAUTEXTURE_GRAPHIC@@A, eax

; 224  : 	frontend_slider_bar_selected_graphic 		= create_texture_graphic ( "graphics\\ui\\cohokum\\map\\scrolyel.psd" );

  00171	68 00 00 00 00	 push	 OFFSET ??_C@_0CF@OCOCGBOB@graphics?2ui?2cohokum?2map?2scrolye@
  00176	e8 00 00 00 00	 call	 ?create_texture_graphic@@YGPAUTEXTURE_GRAPHIC@@PBD@Z ; create_texture_graphic
  0017b	a3 00 00 00 00	 mov	 DWORD PTR ?frontend_slider_bar_selected_graphic@@3PAUTEXTURE_GRAPHIC@@A, eax

; 225  : 
; 226  : 	frontend_slider_up_graphic 					= create_texture_graphic ( "graphics\\ui\\cohokum\\map\\arrupblu.psd" );

  00180	68 00 00 00 00	 push	 OFFSET ??_C@_0CF@ELOMEIFK@graphics?2ui?2cohokum?2map?2arrupbl@
  00185	e8 00 00 00 00	 call	 ?create_texture_graphic@@YGPAUTEXTURE_GRAPHIC@@PBD@Z ; create_texture_graphic
  0018a	a3 00 00 00 00	 mov	 DWORD PTR ?frontend_slider_up_graphic@@3PAUTEXTURE_GRAPHIC@@A, eax

; 227  : 	frontend_slider_up_highlighted_graphic 	= create_texture_graphic ( "graphics\\ui\\cohokum\\map\\arrupwht.psd" );

  0018f	68 00 00 00 00	 push	 OFFSET ??_C@_0CF@EAKEIAKD@graphics?2ui?2cohokum?2map?2arrupwh@
  00194	e8 00 00 00 00	 call	 ?create_texture_graphic@@YGPAUTEXTURE_GRAPHIC@@PBD@Z ; create_texture_graphic
  00199	a3 00 00 00 00	 mov	 DWORD PTR ?frontend_slider_up_highlighted_graphic@@3PAUTEXTURE_GRAPHIC@@A, eax

; 228  : 	frontend_slider_up_selected_graphic 		= create_texture_graphic ( "graphics\\ui\\cohokum\\map\\arrupyel.psd" );

  0019e	68 00 00 00 00	 push	 OFFSET ??_C@_0CF@NLHMHDKH@graphics?2ui?2cohokum?2map?2arrupye@
  001a3	e8 00 00 00 00	 call	 ?create_texture_graphic@@YGPAUTEXTURE_GRAPHIC@@PBD@Z ; create_texture_graphic
  001a8	a3 00 00 00 00	 mov	 DWORD PTR ?frontend_slider_up_selected_graphic@@3PAUTEXTURE_GRAPHIC@@A, eax

; 229  : 
; 230  : 	frontend_slider_down_graphic 					= create_texture_graphic ( "graphics\\ui\\cohokum\\map\\arrdwblu.psd" );

  001ad	68 00 00 00 00	 push	 OFFSET ??_C@_0CF@OHOBMPEF@graphics?2ui?2cohokum?2map?2arrdwbl@
  001b2	e8 00 00 00 00	 call	 ?create_texture_graphic@@YGPAUTEXTURE_GRAPHIC@@PBD@Z ; create_texture_graphic
  001b7	a3 00 00 00 00	 mov	 DWORD PTR ?frontend_slider_down_graphic@@3PAUTEXTURE_GRAPHIC@@A, eax

; 231  : 	frontend_slider_down_highlighted_graphic 	= create_texture_graphic ( "graphics\\ui\\cohokum\\map\\arrdwwht.psd" );

  001bc	68 00 00 00 00	 push	 OFFSET ??_C@_0CF@OMKJAHLM@graphics?2ui?2cohokum?2map?2arrdwwh@
  001c1	e8 00 00 00 00	 call	 ?create_texture_graphic@@YGPAUTEXTURE_GRAPHIC@@PBD@Z ; create_texture_graphic
  001c6	a3 00 00 00 00	 mov	 DWORD PTR ?frontend_slider_down_highlighted_graphic@@3PAUTEXTURE_GRAPHIC@@A, eax

; 232  : 	frontend_slider_down_selected_graphic 		= create_texture_graphic ( "graphics\\ui\\cohokum\\map\\arrdwyel.psd" );

  001cb	68 00 00 00 00	 push	 OFFSET ??_C@_0CF@HHHBPELI@graphics?2ui?2cohokum?2map?2arrdwye@
  001d0	e8 00 00 00 00	 call	 ?create_texture_graphic@@YGPAUTEXTURE_GRAPHIC@@PBD@Z ; create_texture_graphic
  001d5	a3 00 00 00 00	 mov	 DWORD PTR ?frontend_slider_down_selected_graphic@@3PAUTEXTURE_GRAPHIC@@A, eax

; 233  : 
; 234  : 
; 235  : 	/////////////////////////////////////////////////////////////////
; 236  : 	// Main Screen & title text
; 237  : 
; 238  :    main_screen = create_ui_object

  001da	6a 11		 push	 17			; 00000011H
  001dc	68 00 00 00 00	 push	 OFFSET ?notify_main_screen@@YGXPAUUI_OBJECT@@PAX@Z ; notify_main_screen
  001e1	6a 16		 push	 22			; 00000016H
  001e3	6a 03		 push	 3
  001e5	6a 2f		 push	 47			; 0000002fH
  001e7	68 f4 01 00 00	 push	 500			; 000001f4H
  001ec	6a 4d		 push	 77			; 0000004dH
  001ee	6a 00		 push	 0
  001f0	6a 30		 push	 48			; 00000030H
  001f2	68 ff 00 00 00	 push	 255			; 000000ffH
  001f7	68 ff 00 00 00	 push	 255			; 000000ffH
  001fc	68 ff 00 00 00	 push	 255			; 000000ffH
  00201	68 ff 00 00 00	 push	 255			; 000000ffH
  00206	6a 0a		 push	 10			; 0000000aH
  00208	6a 40		 push	 64			; 00000040H
  0020a	68 ff 00 00 00	 push	 255			; 000000ffH
  0020f	68 ff 00 00 00	 push	 255			; 000000ffH
  00214	68 ff 00 00 00	 push	 255			; 000000ffH
  00219	6a 0b		 push	 11			; 0000000bH
  0021b	83 ec 08	 sub	 esp, 8
  0021e	f2 0f 10 05 00
	00 00 00	 movsd	 xmm0, QWORD PTR __real@3ff0000000000000
  00226	f2 0f 11 04 24	 movsd	 QWORD PTR [esp], xmm0
  0022b	83 ec 08	 sub	 esp, 8
  0022e	f2 0f 10 05 00
	00 00 00	 movsd	 xmm0, QWORD PTR __real@3ff0000000000000
  00236	f2 0f 11 04 24	 movsd	 QWORD PTR [esp], xmm0
  0023b	6a 59		 push	 89			; 00000059H
  0023d	83 ec 08	 sub	 esp, 8
  00240	0f 57 c0	 xorps	 xmm0, xmm0
  00243	f2 0f 11 04 24	 movsd	 QWORD PTR [esp], xmm0
  00248	83 ec 08	 sub	 esp, 8
  0024b	0f 57 c0	 xorps	 xmm0, xmm0
  0024e	f2 0f 11 04 24	 movsd	 QWORD PTR [esp], xmm0
  00253	6a 58		 push	 88			; 00000058H
  00255	6a 06		 push	 6
  00257	e8 00 00 00 00	 call	 ?create_ui_object@@YAPAUUI_OBJECT@@HZZ ; create_ui_object
  0025c	83 c4 78	 add	 esp, 120		; 00000078H
  0025f	a3 00 00 00 00	 mov	 DWORD PTR ?main_screen@@3PAUUI_OBJECT@@A, eax ; main_screen

; 239  :             (
; 240  :                UI_TYPE_SCREEN,
; 241  :                UI_ATTR_VIRTUAL_POSITION (0, 0),
; 242  :                UI_ATTR_VIRTUAL_SIZE (1.0, 1.0),
; 243  :                UI_ATTR_COLOUR_START (255,255,255,64),
; 244  :                UI_ATTR_COLOUR_END (255,255,255,255),
; 245  : 					UI_ATTR_OFFSET_TIME (0),
; 246  : 					UI_ATTR_TIME_LENGTH (500),
; 247  : 					UI_ATTR_NOTIFY_ON (NOTIFY_TYPE_BUTTON_EITHER),
; 248  : 					UI_ATTR_FUNCTION (notify_main_screen),
; 249  :                UI_ATTR_END
; 250  :             );
; 251  : 
; 252  :    create_ui_object

  00264	6a 11		 push	 17			; 00000011H
  00266	6a 01		 push	 1
  00268	6a 07		 push	 7
  0026a	6a 00		 push	 0
  0026c	6a 1b		 push	 27			; 0000001bH
  0026e	68 ff 00 00 00	 push	 255			; 000000ffH
  00273	0f b6 05 00 00
	00 00		 movzx	 eax, BYTE PTR ?ui_screen_title_text_colour@@3UREAL_COLOUR@@A
  0027a	50		 push	 eax
  0027b	0f b6 0d 01 00
	00 00		 movzx	 ecx, BYTE PTR ?ui_screen_title_text_colour@@3UREAL_COLOUR@@A+1
  00282	51		 push	 ecx
  00283	0f b6 15 02 00
	00 00		 movzx	 edx, BYTE PTR ?ui_screen_title_text_colour@@3UREAL_COLOUR@@A+2
  0028a	52		 push	 edx
  0028b	6a 14		 push	 20			; 00000014H
  0028d	6a 00		 push	 0
  0028f	0f b6 05 00 00
	00 00		 movzx	 eax, BYTE PTR ?ui_screen_title_text_colour@@3UREAL_COLOUR@@A
  00296	50		 push	 eax
  00297	0f b6 0d 01 00
	00 00		 movzx	 ecx, BYTE PTR ?ui_screen_title_text_colour@@3UREAL_COLOUR@@A+1
  0029e	51		 push	 ecx
  0029f	0f b6 15 02 00
	00 00		 movzx	 edx, BYTE PTR ?ui_screen_title_text_colour@@3UREAL_COLOUR@@A+2
  002a6	52		 push	 edx
  002a7	6a 15		 push	 21			; 00000015H
  002a9	6a 07		 push	 7
  002ab	6a 4b		 push	 75			; 0000004bH
  002ad	6a 0c		 push	 12			; 0000000cH
  002af	6a 12		 push	 18			; 00000012H
  002b1	68 00 00 00 00	 push	 OFFSET ??_C@_0M@FNEMKEAO@Main?5Screen@
  002b6	e8 00 00 00 00	 call	 ?get_trans@@YGPBDPBD@Z	; get_trans
  002bb	50		 push	 eax
  002bc	6a 4a		 push	 74			; 0000004aH
  002be	83 ec 08	 sub	 esp, 8
  002c1	f2 0f 10 05 00
	00 00 00	 movsd	 xmm0, QWORD PTR __real@3fa3f7cee0000000
  002c9	f2 0f 11 04 24	 movsd	 QWORD PTR [esp], xmm0
  002ce	83 ec 08	 sub	 esp, 8
  002d1	f2 0f 10 05 00
	00 00 00	 movsd	 xmm0, QWORD PTR __real@3fed9999a0000000
  002d9	f2 0f 11 04 24	 movsd	 QWORD PTR [esp], xmm0
  002de	6a 59		 push	 89			; 00000059H
  002e0	83 ec 08	 sub	 esp, 8
  002e3	f2 0f 10 05 00
	00 00 00	 movsd	 xmm0, QWORD PTR __real@3fa3f7cee0000000
  002eb	f2 0f 11 04 24	 movsd	 QWORD PTR [esp], xmm0
  002f0	83 ec 08	 sub	 esp, 8
  002f3	f2 0f 10 05 00
	00 00 00	 movsd	 xmm0, QWORD PTR __real@3f999999a0000000
  002fb	f2 0f 11 04 24	 movsd	 QWORD PTR [esp], xmm0
  00300	6a 58		 push	 88			; 00000058H
  00302	68 f4 01 00 00	 push	 500			; 000001f4H
  00307	6a 4d		 push	 77			; 0000004dH
  00309	6a 00		 push	 0
  0030b	6a 30		 push	 48			; 00000030H
  0030d	a1 00 00 00 00	 mov	 eax, DWORD PTR ?main_screen@@3PAUUI_OBJECT@@A ; main_screen
  00312	50		 push	 eax
  00313	6a 32		 push	 50			; 00000032H
  00315	6a 05		 push	 5
  00317	e8 00 00 00 00	 call	 ?create_ui_object@@YAPAUUI_OBJECT@@HZZ ; create_ui_object
  0031c	81 c4 98 00 00
	00		 add	 esp, 152		; 00000098H

; 253  :             (
; 254  :                UI_TYPE_TEXT,
; 255  :                UI_ATTR_PARENT (main_screen),
; 256  : 					UI_ATTR_OFFSET_TIME (0),
; 257  : 					UI_ATTR_TIME_LENGTH (500),
; 258  :                UI_ATTR_VIRTUAL_POSITION (TITLE_TEXT_POSITION_X, TITLE_TEXT_POSITION_Y),
; 259  : 					UI_ATTR_VIRTUAL_SIZE (TITLE_TEXT_WIDTH, TITLE_TEXT_HEIGHT),
; 260  : 					UI_ATTR_TEXT (get_trans ("Main Screen")),
; 261  : 					UI_ATTR_FONT_TYPE (UI_FONT_IMPACT_22),
; 262  : 					UI_ATTR_TEXT_JUSTIFY (TEXT_JUSTIFY_LEFT_BOTTOM),
; 263  :                UI_ATTR_FONT_COLOUR_START (ui_screen_title_text_colour.r, ui_screen_title_text_colour.g, ui_screen_title_text_colour.b, 0),
; 264  :                UI_ATTR_FONT_COLOUR_END (ui_screen_title_text_colour.r, ui_screen_title_text_colour.g, ui_screen_title_text_colour.b, 255),
; 265  : 					UI_ATTR_HIGHLIGHTABLE (FALSE),
; 266  : 					UI_ATTR_CLEAR (TRUE),
; 267  :                UI_ATTR_END
; 268  :             );
; 269  : 
; 270  : 
; 271  : 	/////////////////////////////////////////////////////////////////
; 272  : 	// Security Message - text to be inserted is ideally  <= 81 chars
; 273  : 
; 274  : 	registered_to_message = create_ui_object

  00322	6a 11		 push	 17			; 00000011H
  00324	6a 01		 push	 1
  00326	6a 07		 push	 7
  00328	6a 00		 push	 0
  0032a	6a 10		 push	 16			; 00000010H
  0032c	68 ff 00 00 00	 push	 255			; 000000ffH
  00331	0f b6 05 00 00
	00 00		 movzx	 eax, BYTE PTR ?ui_screen_title_text_colour@@3UREAL_COLOUR@@A
  00338	50		 push	 eax
  00339	0f b6 0d 01 00
	00 00		 movzx	 ecx, BYTE PTR ?ui_screen_title_text_colour@@3UREAL_COLOUR@@A+1
  00340	51		 push	 ecx
  00341	0f b6 15 02 00
	00 00		 movzx	 edx, BYTE PTR ?ui_screen_title_text_colour@@3UREAL_COLOUR@@A+2
  00348	52		 push	 edx
  00349	6a 14		 push	 20			; 00000014H
  0034b	6a 08		 push	 8
  0034d	6a 12		 push	 18			; 00000012H
  0034f	83 ec 08	 sub	 esp, 8
  00352	f2 0f 10 05 00
	00 00 00	 movsd	 xmm0, QWORD PTR __real@3fd3333333333333
  0035a	f2 0f 11 04 24	 movsd	 QWORD PTR [esp], xmm0
  0035f	83 ec 08	 sub	 esp, 8
  00362	f2 0f 10 05 00
	00 00 00	 movsd	 xmm0, QWORD PTR __real@3feccccccccccccd
  0036a	f2 0f 11 04 24	 movsd	 QWORD PTR [esp], xmm0
  0036f	6a 59		 push	 89			; 00000059H
  00371	83 ec 08	 sub	 esp, 8
  00374	f2 0f 10 05 00
	00 00 00	 movsd	 xmm0, QWORD PTR __real@3fd999999999999a
  0037c	f2 0f 11 04 24	 movsd	 QWORD PTR [esp], xmm0
  00381	83 ec 08	 sub	 esp, 8
  00384	f2 0f 10 05 00
	00 00 00	 movsd	 xmm0, QWORD PTR __real@3fa999999999999a
  0038c	f2 0f 11 04 24	 movsd	 QWORD PTR [esp], xmm0
  00391	6a 58		 push	 88			; 00000058H
  00393	a1 00 00 00 00	 mov	 eax, DWORD PTR ?main_screen@@3PAUUI_OBJECT@@A ; main_screen
  00398	50		 push	 eax
  00399	6a 32		 push	 50			; 00000032H
  0039b	6a 01		 push	 1
  0039d	e8 00 00 00 00	 call	 ?create_ui_object@@YAPAUUI_OBJECT@@HZZ ; create_ui_object
  003a2	83 c4 64	 add	 esp, 100		; 00000064H
  003a5	89 45 f4	 mov	 DWORD PTR _registered_to_message$[ebp], eax

; 275  : 		(
; 276  : 			UI_TYPE_AREA,
; 277  : 			UI_ATTR_PARENT (main_screen),
; 278  : 			UI_ATTR_VIRTUAL_POSITION (0.05, 0.4),
; 279  : 			UI_ATTR_VIRTUAL_SIZE (0.9, 0.3),
; 280  : 			UI_ATTR_FONT_TYPE (UI_FONT_THICK_ITALIC_ARIAL_18),
; 281  :          UI_ATTR_FONT_COLOUR_END (ui_screen_title_text_colour.r, ui_screen_title_text_colour.g, ui_screen_title_text_colour.b, 255),
; 282  : 			UI_ATTR_DRAWABLE (FALSE),
; 283  : 			UI_ATTR_CLEAR (TRUE),
; 284  : 			UI_ATTR_END
; 285  : 		);
; 286  : 
; 287  : 
; 288  : 	/////////////////////////////////////////////////////////////////
; 289  : 	// Buttons
; 290  : 
; 291  : 	// Combat
; 292  : 
; 293  : 	i = 0;

  003a8	c7 45 e0 00 00
	00 00		 mov	 DWORD PTR _i$[ebp], 0

; 294  : 
; 295  : 	option_bdrop = create_ui_object

  003af	6a 11		 push	 17			; 00000011H
  003b1	a1 00 00 00 00	 mov	 eax, DWORD PTR ?text_option_bdrop@@3PAUTEXTURE_GRAPHIC@@A ; text_option_bdrop
  003b6	50		 push	 eax
  003b7	6a 4c		 push	 76			; 0000004cH
  003b9	68 f4 01 00 00	 push	 500			; 000001f4H
  003be	6a 4d		 push	 77			; 0000004dH
  003c0	6a 00		 push	 0
  003c2	6a 30		 push	 48			; 00000030H
  003c4	68 ff 00 00 00	 push	 255			; 000000ffH
  003c9	68 ff 00 00 00	 push	 255			; 000000ffH
  003ce	68 ff 00 00 00	 push	 255			; 000000ffH
  003d3	68 ff 00 00 00	 push	 255			; 000000ffH
  003d8	6a 0a		 push	 10			; 0000000aH
  003da	6a 00		 push	 0
  003dc	6a 00		 push	 0
  003de	6a 00		 push	 0
  003e0	6a 00		 push	 0
  003e2	6a 0b		 push	 11			; 0000000bH
  003e4	83 ec 08	 sub	 esp, 8
  003e7	f2 0f 10 05 00
	00 00 00	 movsd	 xmm0, QWORD PTR __real@3fad2f1aa0000000
  003ef	f2 0f 11 04 24	 movsd	 QWORD PTR [esp], xmm0
  003f4	83 ec 08	 sub	 esp, 8
  003f7	f2 0f 10 05 00
	00 00 00	 movsd	 xmm0, QWORD PTR __real@3fdee978e0000000
  003ff	f2 0f 11 04 24	 movsd	 QWORD PTR [esp], xmm0
  00404	6a 59		 push	 89			; 00000059H
  00406	83 ec 08	 sub	 esp, 8
  00409	0f 57 c0	 xorps	 xmm0, xmm0
  0040c	f2 0f 11 04 24	 movsd	 QWORD PTR [esp], xmm0
  00411	83 ec 08	 sub	 esp, 8
  00414	0f 57 c0	 xorps	 xmm0, xmm0
  00417	f2 0f 11 04 24	 movsd	 QWORD PTR [esp], xmm0
  0041c	6a 58		 push	 88			; 00000058H
  0041e	8b 0d 00 00 00
	00		 mov	 ecx, DWORD PTR ?main_screen@@3PAUUI_OBJECT@@A ; main_screen
  00424	51		 push	 ecx
  00425	6a 32		 push	 50			; 00000032H
  00427	6a 01		 push	 1
  00429	e8 00 00 00 00	 call	 ?create_ui_object@@YAPAUUI_OBJECT@@HZZ ; create_ui_object
  0042e	83 c4 78	 add	 esp, 120		; 00000078H
  00431	89 45 fc	 mov	 DWORD PTR _option_bdrop$[ebp], eax

; 296  : 	(
; 297  : 		UI_TYPE_AREA,
; 298  : 		UI_ATTR_PARENT (main_screen),
; 299  : 		UI_ATTR_VIRTUAL_POSITION (0.0, 0.0),
; 300  : 		UI_ATTR_VIRTUAL_SIZE (TEXT_OPTION_BDROP_WIDTH, TEXT_OPTION_BDROP_HEIGHT),
; 301  : 		UI_ATTR_COLOUR_START (0, 0, 0, 0),
; 302  : 		UI_ATTR_COLOUR_END (255, 255, 255, 255),
; 303  : 		UI_ATTR_OFFSET_TIME (0),
; 304  : 		UI_ATTR_TIME_LENGTH (500),
; 305  : 		UI_ATTR_TEXTURE_GRAPHIC (text_option_bdrop),
; 306  : 		UI_ATTR_END
; 307  : 	);
; 308  : 
; 309  :    change_obj = create_ui_object

  00434	6a 11		 push	 17			; 00000011H
  00436	68 f4 01 00 00	 push	 500			; 000001f4H
  0043b	6a 30		 push	 48			; 00000030H
  0043d	68 c8 00 00 00	 push	 200			; 000000c8H
  00442	6a 4d		 push	 77			; 0000004dH
  00444	6a 01		 push	 1
  00446	6a 07		 push	 7
  00448	6a 01		 push	 1
  0044a	6a 1b		 push	 27			; 0000001bH
  0044c	68 ff 00 00 00	 push	 255			; 000000ffH
  00451	0f b6 05 00 00
	00 00		 movzx	 eax, BYTE PTR ?ui_option_text_hilite_colour@@3UREAL_COLOUR@@A
  00458	50		 push	 eax
  00459	0f b6 0d 01 00
	00 00		 movzx	 ecx, BYTE PTR ?ui_option_text_hilite_colour@@3UREAL_COLOUR@@A+1
  00460	51		 push	 ecx
  00461	0f b6 15 02 00
	00 00		 movzx	 edx, BYTE PTR ?ui_option_text_hilite_colour@@3UREAL_COLOUR@@A+2
  00468	52		 push	 edx
  00469	6a 22		 push	 34			; 00000022H
  0046b	6a 00		 push	 0
  0046d	0f b6 05 00 00
	00 00		 movzx	 eax, BYTE PTR ?ui_option_text_hilite_colour@@3UREAL_COLOUR@@A
  00474	50		 push	 eax
  00475	0f b6 0d 01 00
	00 00		 movzx	 ecx, BYTE PTR ?ui_option_text_hilite_colour@@3UREAL_COLOUR@@A+1
  0047c	51		 push	 ecx
  0047d	0f b6 15 02 00
	00 00		 movzx	 edx, BYTE PTR ?ui_option_text_hilite_colour@@3UREAL_COLOUR@@A+2
  00484	52		 push	 edx
  00485	6a 23		 push	 35			; 00000023H
  00487	68 ff 00 00 00	 push	 255			; 000000ffH
  0048c	0f b6 05 00 00
	00 00		 movzx	 eax, BYTE PTR ?ui_option_text_default_colour@@3UREAL_COLOUR@@A
  00493	50		 push	 eax
  00494	0f b6 0d 01 00
	00 00		 movzx	 ecx, BYTE PTR ?ui_option_text_default_colour@@3UREAL_COLOUR@@A+1
  0049b	51		 push	 ecx
  0049c	0f b6 15 02 00
	00 00		 movzx	 edx, BYTE PTR ?ui_option_text_default_colour@@3UREAL_COLOUR@@A+2
  004a3	52		 push	 edx
  004a4	6a 14		 push	 20			; 00000014H
  004a6	6a 00		 push	 0
  004a8	0f b6 05 00 00
	00 00		 movzx	 eax, BYTE PTR ?ui_option_text_default_colour@@3UREAL_COLOUR@@A
  004af	50		 push	 eax
  004b0	0f b6 0d 01 00
	00 00		 movzx	 ecx, BYTE PTR ?ui_option_text_default_colour@@3UREAL_COLOUR@@A+1
  004b7	51		 push	 ecx
  004b8	0f b6 15 02 00
	00 00		 movzx	 edx, BYTE PTR ?ui_option_text_default_colour@@3UREAL_COLOUR@@A+2
  004bf	52		 push	 edx
  004c0	6a 15		 push	 21			; 00000015H
  004c2	68 00 00 00 00	 push	 OFFSET ?notify_main_combat_missions_button@@YGXPAUUI_OBJECT@@PAX@Z ; notify_main_combat_missions_button
  004c7	6a 16		 push	 22			; 00000016H
  004c9	6a 02		 push	 2
  004cb	6a 4b		 push	 75			; 0000004bH
  004cd	6a 0b		 push	 11			; 0000000bH
  004cf	6a 12		 push	 18			; 00000012H
  004d1	68 00 00 00 00	 push	 OFFSET ??_C@_09IGDCKAH@UI_COMBAT@
  004d6	e8 00 00 00 00	 call	 ?get_trans@@YGPBDPBD@Z	; get_trans
  004db	50		 push	 eax
  004dc	6a 4a		 push	 74			; 0000004aH
  004de	83 ec 08	 sub	 esp, 8
  004e1	f2 0f 10 05 00
	00 00 00	 movsd	 xmm0, QWORD PTR __real@3fa0e5604189374c
  004e9	f2 0f 11 04 24	 movsd	 QWORD PTR [esp], xmm0
  004ee	83 ec 08	 sub	 esp, 8
  004f1	f2 0f 10 05 00
	00 00 00	 movsd	 xmm0, QWORD PTR __real@3fc916872b020c4a
  004f9	f2 0f 11 04 24	 movsd	 QWORD PTR [esp], xmm0
  004fe	6a 59		 push	 89			; 00000059H
  00500	83 ec 08	 sub	 esp, 8
  00503	f2 0f 10 05 00
	00 00 00	 movsd	 xmm0, QWORD PTR __real@3fd50e5604189375
  0050b	f2 0f 11 04 24	 movsd	 QWORD PTR [esp], xmm0
  00510	83 ec 08	 sub	 esp, 8
  00513	f2 0f 10 05 00
	00 00 00	 movsd	 xmm0, QWORD PTR __real@3fe5374bc6a7ef9e
  0051b	f2 0f 11 04 24	 movsd	 QWORD PTR [esp], xmm0
  00520	6a 35		 push	 53			; 00000035H
  00522	83 ec 08	 sub	 esp, 8
  00525	f2 0f 10 05 00
	00 00 00	 movsd	 xmm0, QWORD PTR __real@3fd50e5604189375
  0052d	f2 0f 11 04 24	 movsd	 QWORD PTR [esp], xmm0
  00532	83 ec 08	 sub	 esp, 8
  00535	0f 57 c0	 xorps	 xmm0, xmm0
  00538	f2 0f 11 04 24	 movsd	 QWORD PTR [esp], xmm0
  0053d	6a 36		 push	 54			; 00000036H
  0053f	a1 00 00 00 00	 mov	 eax, DWORD PTR ?main_screen@@3PAUUI_OBJECT@@A ; main_screen
  00544	50		 push	 eax
  00545	6a 32		 push	 50			; 00000032H
  00547	6a 02		 push	 2
  00549	e8 00 00 00 00	 call	 ?create_ui_object@@YAPAUUI_OBJECT@@HZZ ; create_ui_object
  0054e	81 c4 dc 00 00
	00		 add	 esp, 220		; 000000dcH
  00554	89 45 f8	 mov	 DWORD PTR _change_obj$[ebp], eax

; 310  :             (
; 311  :                UI_TYPE_BUTTON,
; 312  :                UI_ATTR_PARENT (main_screen),
; 313  : 					UI_ATTR_POSITION_START (0.0, 0.329),
; 314  : 					UI_ATTR_POSITION_END (0.663, 0.329),
; 315  : 					UI_ATTR_VIRTUAL_SIZE (0.196, 0.033),
; 316  : 					UI_ATTR_TEXT (get_trans ("UI_COMBAT")),
; 317  : 					UI_ATTR_FONT_TYPE (UI_FONT_THICK_ARIAL_22),
; 318  : 					UI_ATTR_TEXT_JUSTIFY (TEXT_JUSTIFY_RIGHT_CENTRE),
; 319  : 					UI_ATTR_FUNCTION (notify_main_combat_missions_button),
; 320  :             	UI_ATTR_FONT_COLOUR_START (ui_option_text_default_colour.r, ui_option_text_default_colour.g, ui_option_text_default_colour.b, 0),
; 321  :             	UI_ATTR_FONT_COLOUR_END (ui_option_text_default_colour.r, ui_option_text_default_colour.g, ui_option_text_default_colour.b, 255),
; 322  :             	UI_ATTR_HIGHLIGHTED_FONT_COLOUR_START (ui_option_text_hilite_colour.r, ui_option_text_hilite_colour.g, ui_option_text_hilite_colour.b, 0),
; 323  :   		         UI_ATTR_HIGHLIGHTED_FONT_COLOUR_END (ui_option_text_hilite_colour.r, ui_option_text_hilite_colour.g, ui_option_text_hilite_colour.b, 255),
; 324  : 					UI_ATTR_HIGHLIGHTABLE (TRUE),
; 325  : 					UI_ATTR_CLEAR (TRUE),
; 326  : 					UI_ATTR_TIME_LENGTH (200),
; 327  : 					UI_ATTR_OFFSET_TIME (500),
; 328  :                UI_ATTR_END
; 329  :             );
; 330  : 
; 331  : 	preprocess_translation_object_size (change_obj, NULL, NULL, 0, RESIZE_OPTION_FIXED_BUTTON);

  00557	6a 02		 push	 2
  00559	6a 00		 push	 0
  0055b	6a 00		 push	 0
  0055d	6a 00		 push	 0
  0055f	8b 45 f8	 mov	 eax, DWORD PTR _change_obj$[ebp]
  00562	50		 push	 eax
  00563	e8 00 00 00 00	 call	 ?preprocess_translation_object_size@@YGXPAUUI_OBJECT@@0PAPBDHW4RESIZE_UI_OBJECT_TYPES@@@Z ; preprocess_translation_object_size

; 332  : 
; 333  : 	set_text_option_backdrop_object (option_bdrop, change_obj);

  00568	8b 45 f8	 mov	 eax, DWORD PTR _change_obj$[ebp]
  0056b	50		 push	 eax
  0056c	8b 4d fc	 mov	 ecx, DWORD PTR _option_bdrop$[ebp]
  0056f	51		 push	 ecx
  00570	e8 00 00 00 00	 call	 ?set_text_option_backdrop_object@@YGXPAUUI_OBJECT@@0@Z ; set_text_option_backdrop_object

; 334  : 
; 335  : 	// Pilots
; 336  : 
; 337  : 	i++;

  00575	8b 45 e0	 mov	 eax, DWORD PTR _i$[ebp]
  00578	83 c0 01	 add	 eax, 1
  0057b	89 45 e0	 mov	 DWORD PTR _i$[ebp], eax

; 338  : 
; 339  : 	option_bdrop = create_ui_object

  0057e	6a 11		 push	 17			; 00000011H
  00580	a1 00 00 00 00	 mov	 eax, DWORD PTR ?text_option_bdrop@@3PAUTEXTURE_GRAPHIC@@A ; text_option_bdrop
  00585	50		 push	 eax
  00586	6a 4c		 push	 76			; 0000004cH
  00588	68 f4 01 00 00	 push	 500			; 000001f4H
  0058d	6a 4d		 push	 77			; 0000004dH
  0058f	6a 00		 push	 0
  00591	6a 30		 push	 48			; 00000030H
  00593	68 ff 00 00 00	 push	 255			; 000000ffH
  00598	68 ff 00 00 00	 push	 255			; 000000ffH
  0059d	68 ff 00 00 00	 push	 255			; 000000ffH
  005a2	68 ff 00 00 00	 push	 255			; 000000ffH
  005a7	6a 0a		 push	 10			; 0000000aH
  005a9	6a 00		 push	 0
  005ab	68 ff 00 00 00	 push	 255			; 000000ffH
  005b0	68 ff 00 00 00	 push	 255			; 000000ffH
  005b5	68 ff 00 00 00	 push	 255			; 000000ffH
  005ba	6a 0b		 push	 11			; 0000000bH
  005bc	83 ec 08	 sub	 esp, 8
  005bf	f2 0f 10 05 00
	00 00 00	 movsd	 xmm0, QWORD PTR __real@3fad2f1aa0000000
  005c7	f2 0f 11 04 24	 movsd	 QWORD PTR [esp], xmm0
  005cc	83 ec 08	 sub	 esp, 8
  005cf	f2 0f 10 05 00
	00 00 00	 movsd	 xmm0, QWORD PTR __real@3fdee978e0000000
  005d7	f2 0f 11 04 24	 movsd	 QWORD PTR [esp], xmm0
  005dc	6a 59		 push	 89			; 00000059H
  005de	83 ec 08	 sub	 esp, 8
  005e1	0f 57 c0	 xorps	 xmm0, xmm0
  005e4	f2 0f 11 04 24	 movsd	 QWORD PTR [esp], xmm0
  005e9	83 ec 08	 sub	 esp, 8
  005ec	0f 57 c0	 xorps	 xmm0, xmm0
  005ef	f2 0f 11 04 24	 movsd	 QWORD PTR [esp], xmm0
  005f4	6a 58		 push	 88			; 00000058H
  005f6	8b 0d 00 00 00
	00		 mov	 ecx, DWORD PTR ?main_screen@@3PAUUI_OBJECT@@A ; main_screen
  005fc	51		 push	 ecx
  005fd	6a 32		 push	 50			; 00000032H
  005ff	6a 01		 push	 1
  00601	e8 00 00 00 00	 call	 ?create_ui_object@@YAPAUUI_OBJECT@@HZZ ; create_ui_object
  00606	83 c4 78	 add	 esp, 120		; 00000078H
  00609	89 45 fc	 mov	 DWORD PTR _option_bdrop$[ebp], eax

; 340  : 	(
; 341  : 		UI_TYPE_AREA,
; 342  : 		UI_ATTR_PARENT (main_screen),
; 343  : 		UI_ATTR_VIRTUAL_POSITION (0.0, 0.0),
; 344  : 		UI_ATTR_VIRTUAL_SIZE (TEXT_OPTION_BDROP_WIDTH, TEXT_OPTION_BDROP_HEIGHT),
; 345  : 		UI_ATTR_COLOUR_START (255, 255, 255, 0),
; 346  : 		UI_ATTR_COLOUR_END (255, 255, 255, 255),
; 347  : 		UI_ATTR_OFFSET_TIME (0),
; 348  : 		UI_ATTR_TIME_LENGTH (500),
; 349  : 		UI_ATTR_TEXTURE_GRAPHIC (text_option_bdrop),
; 350  : 		UI_ATTR_END
; 351  : 	);
; 352  : 
; 353  :    pilots_button = create_ui_object

  0060c	6a 11		 push	 17			; 00000011H
  0060e	6a 01		 push	 1
  00610	6a 07		 push	 7
  00612	6a 01		 push	 1
  00614	6a 1b		 push	 27			; 0000001bH
  00616	68 00 00 00 00	 push	 OFFSET ?notify_main_select_player_button@@YGXPAUUI_OBJECT@@PAX@Z ; notify_main_select_player_button
  0061b	6a 16		 push	 22			; 00000016H
  0061d	68 ff 00 00 00	 push	 255			; 000000ffH
  00622	0f b6 05 00 00
	00 00		 movzx	 eax, BYTE PTR ?ui_option_text_hilite_colour@@3UREAL_COLOUR@@A
  00629	50		 push	 eax
  0062a	0f b6 0d 01 00
	00 00		 movzx	 ecx, BYTE PTR ?ui_option_text_hilite_colour@@3UREAL_COLOUR@@A+1
  00631	51		 push	 ecx
  00632	0f b6 15 02 00
	00 00		 movzx	 edx, BYTE PTR ?ui_option_text_hilite_colour@@3UREAL_COLOUR@@A+2
  00639	52		 push	 edx
  0063a	6a 22		 push	 34			; 00000022H
  0063c	6a 00		 push	 0
  0063e	0f b6 05 00 00
	00 00		 movzx	 eax, BYTE PTR ?ui_option_text_hilite_colour@@3UREAL_COLOUR@@A
  00645	50		 push	 eax
  00646	0f b6 0d 01 00
	00 00		 movzx	 ecx, BYTE PTR ?ui_option_text_hilite_colour@@3UREAL_COLOUR@@A+1
  0064d	51		 push	 ecx
  0064e	0f b6 15 02 00
	00 00		 movzx	 edx, BYTE PTR ?ui_option_text_hilite_colour@@3UREAL_COLOUR@@A+2
  00655	52		 push	 edx
  00656	6a 23		 push	 35			; 00000023H
  00658	68 ff 00 00 00	 push	 255			; 000000ffH
  0065d	0f b6 05 00 00
	00 00		 movzx	 eax, BYTE PTR ?ui_option_text_default_colour@@3UREAL_COLOUR@@A
  00664	50		 push	 eax
  00665	0f b6 0d 01 00
	00 00		 movzx	 ecx, BYTE PTR ?ui_option_text_default_colour@@3UREAL_COLOUR@@A+1
  0066c	51		 push	 ecx
  0066d	0f b6 15 02 00
	00 00		 movzx	 edx, BYTE PTR ?ui_option_text_default_colour@@3UREAL_COLOUR@@A+2
  00674	52		 push	 edx
  00675	6a 14		 push	 20			; 00000014H
  00677	6a 00		 push	 0
  00679	0f b6 05 00 00
	00 00		 movzx	 eax, BYTE PTR ?ui_option_text_default_colour@@3UREAL_COLOUR@@A
  00680	50		 push	 eax
  00681	0f b6 0d 01 00
	00 00		 movzx	 ecx, BYTE PTR ?ui_option_text_default_colour@@3UREAL_COLOUR@@A+1
  00688	51		 push	 ecx
  00689	0f b6 15 02 00
	00 00		 movzx	 edx, BYTE PTR ?ui_option_text_default_colour@@3UREAL_COLOUR@@A+2
  00690	52		 push	 edx
  00691	6a 15		 push	 21			; 00000015H
  00693	6a 02		 push	 2
  00695	6a 4b		 push	 75			; 0000004bH
  00697	6a 0b		 push	 11			; 0000000bH
  00699	6a 12		 push	 18			; 00000012H
  0069b	68 00 00 00 00	 push	 OFFSET ??_C@_09BCKKEJHI@UI_PILOTS@
  006a0	e8 00 00 00 00	 call	 ?get_trans@@YGPBDPBD@Z	; get_trans
  006a5	50		 push	 eax
  006a6	6a 4a		 push	 74			; 0000004aH
  006a8	b8 28 00 00 00	 mov	 eax, 40			; 00000028H
  006ad	69 c8 4f 01 00
	00		 imul	 ecx, eax, 335
  006b3	8b 91 1c 00 00
	00		 mov	 edx, DWORD PTR ?graphics_files@@3PAUFILE_DATA@@A[ecx+28]
  006b9	52		 push	 edx
  006ba	6a 18		 push	 24			; 00000018H
  006bc	83 ec 08	 sub	 esp, 8
  006bf	f2 0f 10 05 00
	00 00 00	 movsd	 xmm0, QWORD PTR __real@3fa0e5604189374c
  006c7	f2 0f 11 04 24	 movsd	 QWORD PTR [esp], xmm0
  006cc	83 ec 08	 sub	 esp, 8
  006cf	f2 0f 10 05 00
	00 00 00	 movsd	 xmm0, QWORD PTR __real@3fc3d70a3d70a3d7
  006d7	f2 0f 11 04 24	 movsd	 QWORD PTR [esp], xmm0
  006dc	6a 59		 push	 89			; 00000059H
  006de	68 58 02 00 00	 push	 600			; 00000258H
  006e3	6a 30		 push	 48			; 00000030H
  006e5	68 c8 00 00 00	 push	 200			; 000000c8H
  006ea	6a 4d		 push	 77			; 0000004dH
  006ec	83 ec 08	 sub	 esp, 8
  006ef	f2 0f 10 05 00
	00 00 00	 movsd	 xmm0, QWORD PTR __real@3fdbd70a3d70a3d7
  006f7	f2 0f 11 04 24	 movsd	 QWORD PTR [esp], xmm0
  006fc	83 ec 08	 sub	 esp, 8
  006ff	f2 0f 10 05 00
	00 00 00	 movsd	 xmm0, QWORD PTR __real@3fe91eb851eb851f
  00707	f2 0f 11 04 24	 movsd	 QWORD PTR [esp], xmm0
  0070c	6a 35		 push	 53			; 00000035H
  0070e	83 ec 08	 sub	 esp, 8
  00711	f2 0f 10 05 00
	00 00 00	 movsd	 xmm0, QWORD PTR __real@3fdbd70a3d70a3d7
  00719	f2 0f 11 04 24	 movsd	 QWORD PTR [esp], xmm0
  0071e	83 ec 08	 sub	 esp, 8
  00721	0f 57 c0	 xorps	 xmm0, xmm0
  00724	f2 0f 11 04 24	 movsd	 QWORD PTR [esp], xmm0
  00729	6a 36		 push	 54			; 00000036H
  0072b	a1 00 00 00 00	 mov	 eax, DWORD PTR ?main_screen@@3PAUUI_OBJECT@@A ; main_screen
  00730	50		 push	 eax
  00731	6a 32		 push	 50			; 00000032H
  00733	6a 02		 push	 2
  00735	e8 00 00 00 00	 call	 ?create_ui_object@@YAPAUUI_OBJECT@@HZZ ; create_ui_object
  0073a	81 c4 e4 00 00
	00		 add	 esp, 228		; 000000e4H
  00740	a3 00 00 00 00	 mov	 DWORD PTR ?pilots_button@@3PAUUI_OBJECT@@A, eax ; pilots_button

; 354  :             (
; 355  :                UI_TYPE_BUTTON,
; 356  :                UI_ATTR_PARENT (main_screen),
; 357  : 					UI_ATTR_POSITION_START (0, 0.435),
; 358  : 					UI_ATTR_POSITION_END (0.785, 0.435),
; 359  : 					UI_ATTR_TIME_LENGTH (200),
; 360  : 					UI_ATTR_OFFSET_TIME (600),
; 361  : 					UI_ATTR_VIRTUAL_SIZE (0.155, 0.033),
; 362  :                UI_ATTR_GRAPHIC (get_graphics_file_data (GRAPHICS_UI_APACHE_MAIN_SCREEN_PLAYER_BUTTON)),
; 363  : 					UI_ATTR_TEXT (get_trans ("UI_PILOTS")),
; 364  : 					UI_ATTR_FONT_TYPE (UI_FONT_THICK_ARIAL_22),
; 365  : 					UI_ATTR_TEXT_JUSTIFY (TEXT_JUSTIFY_RIGHT_CENTRE),
; 366  :          	   UI_ATTR_FONT_COLOUR_START (ui_option_text_default_colour.r, ui_option_text_default_colour.g, ui_option_text_default_colour.b, 0),
; 367  :          	   UI_ATTR_FONT_COLOUR_END (ui_option_text_default_colour.r, ui_option_text_default_colour.g, ui_option_text_default_colour.b, 255),
; 368  :          	   UI_ATTR_HIGHLIGHTED_FONT_COLOUR_START (ui_option_text_hilite_colour.r, ui_option_text_hilite_colour.g, ui_option_text_hilite_colour.b, 0),
; 369  :          	   UI_ATTR_HIGHLIGHTED_FONT_COLOUR_END (ui_option_text_hilite_colour.r, ui_option_text_hilite_colour.g, ui_option_text_hilite_colour.b, 255),
; 370  : 					UI_ATTR_FUNCTION (notify_main_select_player_button),
; 371  : 					UI_ATTR_HIGHLIGHTABLE (TRUE),
; 372  : 					UI_ATTR_CLEAR (TRUE),
; 373  :                UI_ATTR_END
; 374  :             );
; 375  : 
; 376  : 	preprocess_translation_object_size (pilots_button, NULL, NULL, 0, RESIZE_OPTION_FIXED_BUTTON);

  00745	6a 02		 push	 2
  00747	6a 00		 push	 0
  00749	6a 00		 push	 0
  0074b	6a 00		 push	 0
  0074d	a1 00 00 00 00	 mov	 eax, DWORD PTR ?pilots_button@@3PAUUI_OBJECT@@A ; pilots_button
  00752	50		 push	 eax
  00753	e8 00 00 00 00	 call	 ?preprocess_translation_object_size@@YGXPAUUI_OBJECT@@0PAPBDHW4RESIZE_UI_OBJECT_TYPES@@@Z ; preprocess_translation_object_size

; 377  : 
; 378  : 	set_text_option_backdrop_object (option_bdrop, pilots_button);

  00758	a1 00 00 00 00	 mov	 eax, DWORD PTR ?pilots_button@@3PAUUI_OBJECT@@A ; pilots_button
  0075d	50		 push	 eax
  0075e	8b 4d fc	 mov	 ecx, DWORD PTR _option_bdrop$[ebp]
  00761	51		 push	 ecx
  00762	e8 00 00 00 00	 call	 ?set_text_option_backdrop_object@@YGXPAUUI_OBJECT@@0@Z ; set_text_option_backdrop_object

; 379  : 
; 380  : 	// ghost pilots button
; 381  : 
; 382  : 	x1 = get_ui_object_virtual_x (pilots_button);

  00767	a1 00 00 00 00	 mov	 eax, DWORD PTR ?pilots_button@@3PAUUI_OBJECT@@A ; pilots_button
  0076c	50		 push	 eax
  0076d	8b 0d 00 00 00
	00		 mov	 ecx, DWORD PTR ?pilots_button@@3PAUUI_OBJECT@@A ; pilots_button
  00773	8b 11		 mov	 edx, DWORD PTR [ecx]
  00775	8b 04 95 00 00
	00 00		 mov	 eax, DWORD PTR ?fn_get_ui_object_virtual_x@@3PAP6GMPAUUI_OBJECT@@@ZA[edx*4]
  0077c	ff d0		 call	 eax
  0077e	d9 5d f0	 fstp	 DWORD PTR _x1$[ebp]

; 383  : 	x2 = get_ui_object_virtual_x_size (pilots_button);

  00781	a1 00 00 00 00	 mov	 eax, DWORD PTR ?pilots_button@@3PAUUI_OBJECT@@A ; pilots_button
  00786	50		 push	 eax
  00787	8b 0d 00 00 00
	00		 mov	 ecx, DWORD PTR ?pilots_button@@3PAUUI_OBJECT@@A ; pilots_button
  0078d	8b 11		 mov	 edx, DWORD PTR [ecx]
  0078f	8b 04 95 00 00
	00 00		 mov	 eax, DWORD PTR ?fn_get_ui_object_virtual_x_size@@3PAP6GMPAUUI_OBJECT@@@ZA[edx*4]
  00796	ff d0		 call	 eax
  00798	d9 5d e8	 fstp	 DWORD PTR _x2$[ebp]

; 384  : 
; 385  : 	y1 = 0.435;

  0079b	f3 0f 10 05 00
	00 00 00	 movss	 xmm0, DWORD PTR __real@3edeb852
  007a3	f3 0f 11 45 ec	 movss	 DWORD PTR _y1$[ebp], xmm0

; 386  : 	y2 = 0.033;

  007a8	f3 0f 10 05 00
	00 00 00	 movss	 xmm0, DWORD PTR __real@3d072b02
  007b0	f3 0f 11 45 e4	 movss	 DWORD PTR _y2$[ebp], xmm0

; 387  : 
; 388  : 	ghost_pilots_button = create_ui_object

  007b5	6a 11		 push	 17			; 00000011H
  007b7	6a 00		 push	 0
  007b9	6a 10		 push	 16			; 00000010H
  007bb	6a 01		 push	 1
  007bd	6a 07		 push	 7
  007bf	f3 0f 5a 45 e4	 cvtss2sd xmm0, DWORD PTR _y2$[ebp]
  007c4	83 ec 08	 sub	 esp, 8
  007c7	f2 0f 11 04 24	 movsd	 QWORD PTR [esp], xmm0
  007cc	f3 0f 5a 45 e8	 cvtss2sd xmm0, DWORD PTR _x2$[ebp]
  007d1	83 ec 08	 sub	 esp, 8
  007d4	f2 0f 11 04 24	 movsd	 QWORD PTR [esp], xmm0
  007d9	6a 59		 push	 89			; 00000059H
  007db	f3 0f 5a 45 ec	 cvtss2sd xmm0, DWORD PTR _y1$[ebp]
  007e0	83 ec 08	 sub	 esp, 8
  007e3	f2 0f 11 04 24	 movsd	 QWORD PTR [esp], xmm0
  007e8	f3 0f 5a 45 f0	 cvtss2sd xmm0, DWORD PTR _x1$[ebp]
  007ed	83 ec 08	 sub	 esp, 8
  007f0	f2 0f 11 04 24	 movsd	 QWORD PTR [esp], xmm0
  007f5	6a 58		 push	 88			; 00000058H
  007f7	a1 00 00 00 00	 mov	 eax, DWORD PTR ?main_screen@@3PAUUI_OBJECT@@A ; main_screen
  007fc	50		 push	 eax
  007fd	6a 32		 push	 50			; 00000032H
  007ff	6a 01		 push	 1
  00801	e8 00 00 00 00	 call	 ?create_ui_object@@YAPAUUI_OBJECT@@HZZ ; create_ui_object
  00806	83 c4 48	 add	 esp, 72			; 00000048H
  00809	a3 00 00 00 00	 mov	 DWORD PTR ?ghost_pilots_button@@3PAUUI_OBJECT@@A, eax ; ghost_pilots_button

; 389  : 									(
; 390  : 										UI_TYPE_AREA,
; 391  : 										UI_ATTR_PARENT (main_screen),
; 392  : 										UI_ATTR_VIRTUAL_POSITION (x1, y1),
; 393  : 										UI_ATTR_VIRTUAL_SIZE (x2, y2),
; 394  : 										UI_ATTR_CLEAR (TRUE),
; 395  : 										UI_ATTR_DRAWABLE (FALSE),
; 396  : 										UI_ATTR_END
; 397  : 									);
; 398  : 
; 399  : 
; 400  : 	// Options
; 401  : 
; 402  : 	i++;

  0080e	8b 45 e0	 mov	 eax, DWORD PTR _i$[ebp]
  00811	83 c0 01	 add	 eax, 1
  00814	89 45 e0	 mov	 DWORD PTR _i$[ebp], eax

; 403  : 
; 404  : 	option_bdrop = create_ui_object

  00817	6a 11		 push	 17			; 00000011H
  00819	68 f4 01 00 00	 push	 500			; 000001f4H
  0081e	6a 4d		 push	 77			; 0000004dH
  00820	6a 00		 push	 0
  00822	6a 30		 push	 48			; 00000030H
  00824	a1 00 00 00 00	 mov	 eax, DWORD PTR ?text_option_bdrop@@3PAUTEXTURE_GRAPHIC@@A ; text_option_bdrop
  00829	50		 push	 eax
  0082a	6a 4c		 push	 76			; 0000004cH
  0082c	68 ff 00 00 00	 push	 255			; 000000ffH
  00831	68 ff 00 00 00	 push	 255			; 000000ffH
  00836	68 ff 00 00 00	 push	 255			; 000000ffH
  0083b	68 ff 00 00 00	 push	 255			; 000000ffH
  00840	6a 0a		 push	 10			; 0000000aH
  00842	6a 00		 push	 0
  00844	68 ff 00 00 00	 push	 255			; 000000ffH
  00849	68 ff 00 00 00	 push	 255			; 000000ffH
  0084e	68 ff 00 00 00	 push	 255			; 000000ffH
  00853	6a 0b		 push	 11			; 0000000bH
  00855	83 ec 08	 sub	 esp, 8
  00858	f2 0f 10 05 00
	00 00 00	 movsd	 xmm0, QWORD PTR __real@3fad2f1aa0000000
  00860	f2 0f 11 04 24	 movsd	 QWORD PTR [esp], xmm0
  00865	83 ec 08	 sub	 esp, 8
  00868	f2 0f 10 05 00
	00 00 00	 movsd	 xmm0, QWORD PTR __real@3fdee978e0000000
  00870	f2 0f 11 04 24	 movsd	 QWORD PTR [esp], xmm0
  00875	6a 59		 push	 89			; 00000059H
  00877	83 ec 08	 sub	 esp, 8
  0087a	0f 57 c0	 xorps	 xmm0, xmm0
  0087d	f2 0f 11 04 24	 movsd	 QWORD PTR [esp], xmm0
  00882	83 ec 08	 sub	 esp, 8
  00885	0f 57 c0	 xorps	 xmm0, xmm0
  00888	f2 0f 11 04 24	 movsd	 QWORD PTR [esp], xmm0
  0088d	6a 58		 push	 88			; 00000058H
  0088f	8b 0d 00 00 00
	00		 mov	 ecx, DWORD PTR ?main_screen@@3PAUUI_OBJECT@@A ; main_screen
  00895	51		 push	 ecx
  00896	6a 32		 push	 50			; 00000032H
  00898	6a 01		 push	 1
  0089a	e8 00 00 00 00	 call	 ?create_ui_object@@YAPAUUI_OBJECT@@HZZ ; create_ui_object
  0089f	83 c4 78	 add	 esp, 120		; 00000078H
  008a2	89 45 fc	 mov	 DWORD PTR _option_bdrop$[ebp], eax

; 405  : 	(
; 406  : 		UI_TYPE_AREA,
; 407  : 		UI_ATTR_PARENT (main_screen),
; 408  : 		UI_ATTR_VIRTUAL_POSITION (0.0, 0.0),
; 409  : 		UI_ATTR_VIRTUAL_SIZE (TEXT_OPTION_BDROP_WIDTH, TEXT_OPTION_BDROP_HEIGHT),
; 410  : 		UI_ATTR_COLOUR_START (255, 255, 255, 0),
; 411  : 		UI_ATTR_COLOUR_END (255, 255, 255, 255),
; 412  : 		UI_ATTR_TEXTURE_GRAPHIC (text_option_bdrop),
; 413  : 		UI_ATTR_OFFSET_TIME (0),
; 414  : 		UI_ATTR_TIME_LENGTH (500),
; 415  : 		UI_ATTR_END
; 416  : 	);
; 417  : 
; 418  :    change_obj = create_ui_object

  008a5	6a 11		 push	 17			; 00000011H
  008a7	6a 01		 push	 1
  008a9	6a 07		 push	 7
  008ab	6a 01		 push	 1
  008ad	6a 1b		 push	 27			; 0000001bH
  008af	68 ff 00 00 00	 push	 255			; 000000ffH
  008b4	0f b6 05 00 00
	00 00		 movzx	 eax, BYTE PTR ?ui_option_text_hilite_colour@@3UREAL_COLOUR@@A
  008bb	50		 push	 eax
  008bc	0f b6 0d 01 00
	00 00		 movzx	 ecx, BYTE PTR ?ui_option_text_hilite_colour@@3UREAL_COLOUR@@A+1
  008c3	51		 push	 ecx
  008c4	0f b6 15 02 00
	00 00		 movzx	 edx, BYTE PTR ?ui_option_text_hilite_colour@@3UREAL_COLOUR@@A+2
  008cb	52		 push	 edx
  008cc	6a 22		 push	 34			; 00000022H
  008ce	6a 00		 push	 0
  008d0	0f b6 05 00 00
	00 00		 movzx	 eax, BYTE PTR ?ui_option_text_hilite_colour@@3UREAL_COLOUR@@A
  008d7	50		 push	 eax
  008d8	0f b6 0d 01 00
	00 00		 movzx	 ecx, BYTE PTR ?ui_option_text_hilite_colour@@3UREAL_COLOUR@@A+1
  008df	51		 push	 ecx
  008e0	0f b6 15 02 00
	00 00		 movzx	 edx, BYTE PTR ?ui_option_text_hilite_colour@@3UREAL_COLOUR@@A+2
  008e7	52		 push	 edx
  008e8	6a 23		 push	 35			; 00000023H
  008ea	68 ff 00 00 00	 push	 255			; 000000ffH
  008ef	0f b6 05 00 00
	00 00		 movzx	 eax, BYTE PTR ?ui_option_text_default_colour@@3UREAL_COLOUR@@A
  008f6	50		 push	 eax
  008f7	0f b6 0d 01 00
	00 00		 movzx	 ecx, BYTE PTR ?ui_option_text_default_colour@@3UREAL_COLOUR@@A+1
  008fe	51		 push	 ecx
  008ff	0f b6 15 02 00
	00 00		 movzx	 edx, BYTE PTR ?ui_option_text_default_colour@@3UREAL_COLOUR@@A+2
  00906	52		 push	 edx
  00907	6a 14		 push	 20			; 00000014H
  00909	6a 00		 push	 0
  0090b	0f b6 05 00 00
	00 00		 movzx	 eax, BYTE PTR ?ui_option_text_default_colour@@3UREAL_COLOUR@@A
  00912	50		 push	 eax
  00913	0f b6 0d 01 00
	00 00		 movzx	 ecx, BYTE PTR ?ui_option_text_default_colour@@3UREAL_COLOUR@@A+1
  0091a	51		 push	 ecx
  0091b	0f b6 15 02 00
	00 00		 movzx	 edx, BYTE PTR ?ui_option_text_default_colour@@3UREAL_COLOUR@@A+2
  00922	52		 push	 edx
  00923	6a 15		 push	 21			; 00000015H
  00925	68 00 00 00 00	 push	 OFFSET ?notify_common_main_options_button@@YGXPAUUI_OBJECT@@PAX@Z ; notify_common_main_options_button
  0092a	6a 16		 push	 22			; 00000016H
  0092c	6a 02		 push	 2
  0092e	6a 4b		 push	 75			; 0000004bH
  00930	6a 0b		 push	 11			; 0000000bH
  00932	6a 12		 push	 18			; 00000012H
  00934	68 00 00 00 00	 push	 OFFSET ??_C@_0P@JAJAJOP@Options?5Screen@
  00939	e8 00 00 00 00	 call	 ?get_trans@@YGPBDPBD@Z	; get_trans
  0093e	50		 push	 eax
  0093f	6a 4a		 push	 74			; 0000004aH
  00941	83 ec 08	 sub	 esp, 8
  00944	f2 0f 10 05 00
	00 00 00	 movsd	 xmm0, QWORD PTR __real@3fa5810624dd2f1b
  0094c	f2 0f 11 04 24	 movsd	 QWORD PTR [esp], xmm0
  00951	83 ec 08	 sub	 esp, 8
  00954	f2 0f 10 05 00
	00 00 00	 movsd	 xmm0, QWORD PTR __real@3fc7ae147ae147ae
  0095c	f2 0f 11 04 24	 movsd	 QWORD PTR [esp], xmm0
  00961	6a 59		 push	 89			; 00000059H
  00963	68 bc 02 00 00	 push	 700			; 000002bcH
  00968	6a 30		 push	 48			; 00000030H
  0096a	68 c8 00 00 00	 push	 200			; 000000c8H
  0096f	6a 4d		 push	 77			; 0000004dH
  00971	83 ec 08	 sub	 esp, 8
  00974	f2 0f 10 05 00
	00 00 00	 movsd	 xmm0, QWORD PTR __real@3fe30a3d70a3d70a
  0097c	f2 0f 11 04 24	 movsd	 QWORD PTR [esp], xmm0
  00981	83 ec 08	 sub	 esp, 8
  00984	f2 0f 10 05 00
	00 00 00	 movsd	 xmm0, QWORD PTR __real@3fe7851eb851eb85
  0098c	f2 0f 11 04 24	 movsd	 QWORD PTR [esp], xmm0
  00991	6a 35		 push	 53			; 00000035H
  00993	83 ec 08	 sub	 esp, 8
  00996	f2 0f 10 05 00
	00 00 00	 movsd	 xmm0, QWORD PTR __real@3fe30a3d70a3d70a
  0099e	f2 0f 11 04 24	 movsd	 QWORD PTR [esp], xmm0
  009a3	83 ec 08	 sub	 esp, 8
  009a6	0f 57 c0	 xorps	 xmm0, xmm0
  009a9	f2 0f 11 04 24	 movsd	 QWORD PTR [esp], xmm0
  009ae	6a 36		 push	 54			; 00000036H
  009b0	a1 00 00 00 00	 mov	 eax, DWORD PTR ?main_screen@@3PAUUI_OBJECT@@A ; main_screen
  009b5	50		 push	 eax
  009b6	6a 32		 push	 50			; 00000032H
  009b8	6a 02		 push	 2
  009ba	e8 00 00 00 00	 call	 ?create_ui_object@@YAPAUUI_OBJECT@@HZZ ; create_ui_object
  009bf	81 c4 dc 00 00
	00		 add	 esp, 220		; 000000dcH
  009c5	89 45 f8	 mov	 DWORD PTR _change_obj$[ebp], eax

; 419  :             (
; 420  :                UI_TYPE_BUTTON,
; 421  :                UI_ATTR_PARENT (main_screen),
; 422  : 					UI_ATTR_POSITION_START (0, 0.595),
; 423  : 					UI_ATTR_POSITION_END (0.735, 0.595),
; 424  : 					UI_ATTR_TIME_LENGTH (200),
; 425  : 					UI_ATTR_OFFSET_TIME (700),
; 426  : 					UI_ATTR_VIRTUAL_SIZE (0.185, 0.042),
; 427  : 					UI_ATTR_TEXT (get_trans ("Options Screen")),
; 428  : 					UI_ATTR_FONT_TYPE (UI_FONT_THICK_ARIAL_22),
; 429  : 					UI_ATTR_TEXT_JUSTIFY (TEXT_JUSTIFY_RIGHT_CENTRE),
; 430  : 					UI_ATTR_FUNCTION (notify_common_main_options_button),
; 431  :       	      UI_ATTR_FONT_COLOUR_START (ui_option_text_default_colour.r, ui_option_text_default_colour.g, ui_option_text_default_colour.b, 0),
; 432  :    	         UI_ATTR_FONT_COLOUR_END (ui_option_text_default_colour.r, ui_option_text_default_colour.g, ui_option_text_default_colour.b, 255),
; 433  : 	            UI_ATTR_HIGHLIGHTED_FONT_COLOUR_START (ui_option_text_hilite_colour.r, ui_option_text_hilite_colour.g, ui_option_text_hilite_colour.b, 0),
; 434  : 	            UI_ATTR_HIGHLIGHTED_FONT_COLOUR_END (ui_option_text_hilite_colour.r, ui_option_text_hilite_colour.g, ui_option_text_hilite_colour.b, 255),
; 435  : 					UI_ATTR_HIGHLIGHTABLE (TRUE),
; 436  : 					UI_ATTR_CLEAR (TRUE),
; 437  :                UI_ATTR_END
; 438  :             );
; 439  : 
; 440  : 	preprocess_translation_object_size (change_obj, NULL, NULL, 0, RESIZE_OPTION_FIXED_BUTTON);

  009c8	6a 02		 push	 2
  009ca	6a 00		 push	 0
  009cc	6a 00		 push	 0
  009ce	6a 00		 push	 0
  009d0	8b 45 f8	 mov	 eax, DWORD PTR _change_obj$[ebp]
  009d3	50		 push	 eax
  009d4	e8 00 00 00 00	 call	 ?preprocess_translation_object_size@@YGXPAUUI_OBJECT@@0PAPBDHW4RESIZE_UI_OBJECT_TYPES@@@Z ; preprocess_translation_object_size

; 441  : 
; 442  : 	set_text_option_backdrop_object (option_bdrop, change_obj);

  009d9	8b 45 f8	 mov	 eax, DWORD PTR _change_obj$[ebp]
  009dc	50		 push	 eax
  009dd	8b 4d fc	 mov	 ecx, DWORD PTR _option_bdrop$[ebp]
  009e0	51		 push	 ecx
  009e1	e8 00 00 00 00	 call	 ?set_text_option_backdrop_object@@YGXPAUUI_OBJECT@@0@Z ; set_text_option_backdrop_object

; 443  : 
; 444  : 
; 445  : 	// Credits
; 446  : 
; 447  : 	i++;

  009e6	8b 45 e0	 mov	 eax, DWORD PTR _i$[ebp]
  009e9	83 c0 01	 add	 eax, 1
  009ec	89 45 e0	 mov	 DWORD PTR _i$[ebp], eax

; 448  : 
; 449  : 	option_bdrop = create_ui_object

  009ef	6a 11		 push	 17			; 00000011H
  009f1	a1 00 00 00 00	 mov	 eax, DWORD PTR ?text_option_bdrop@@3PAUTEXTURE_GRAPHIC@@A ; text_option_bdrop
  009f6	50		 push	 eax
  009f7	6a 4c		 push	 76			; 0000004cH
  009f9	68 f4 01 00 00	 push	 500			; 000001f4H
  009fe	6a 4d		 push	 77			; 0000004dH
  00a00	6a 00		 push	 0
  00a02	6a 30		 push	 48			; 00000030H
  00a04	68 ff 00 00 00	 push	 255			; 000000ffH
  00a09	68 ff 00 00 00	 push	 255			; 000000ffH
  00a0e	68 ff 00 00 00	 push	 255			; 000000ffH
  00a13	68 ff 00 00 00	 push	 255			; 000000ffH
  00a18	6a 0a		 push	 10			; 0000000aH
  00a1a	6a 00		 push	 0
  00a1c	68 ff 00 00 00	 push	 255			; 000000ffH
  00a21	68 ff 00 00 00	 push	 255			; 000000ffH
  00a26	68 ff 00 00 00	 push	 255			; 000000ffH
  00a2b	6a 0b		 push	 11			; 0000000bH
  00a2d	83 ec 08	 sub	 esp, 8
  00a30	f2 0f 10 05 00
	00 00 00	 movsd	 xmm0, QWORD PTR __real@3fad2f1aa0000000
  00a38	f2 0f 11 04 24	 movsd	 QWORD PTR [esp], xmm0
  00a3d	83 ec 08	 sub	 esp, 8
  00a40	f2 0f 10 05 00
	00 00 00	 movsd	 xmm0, QWORD PTR __real@3fdee978e0000000
  00a48	f2 0f 11 04 24	 movsd	 QWORD PTR [esp], xmm0
  00a4d	6a 59		 push	 89			; 00000059H
  00a4f	83 ec 08	 sub	 esp, 8
  00a52	0f 57 c0	 xorps	 xmm0, xmm0
  00a55	f2 0f 11 04 24	 movsd	 QWORD PTR [esp], xmm0
  00a5a	83 ec 08	 sub	 esp, 8
  00a5d	0f 57 c0	 xorps	 xmm0, xmm0
  00a60	f2 0f 11 04 24	 movsd	 QWORD PTR [esp], xmm0
  00a65	6a 58		 push	 88			; 00000058H
  00a67	8b 0d 00 00 00
	00		 mov	 ecx, DWORD PTR ?main_screen@@3PAUUI_OBJECT@@A ; main_screen
  00a6d	51		 push	 ecx
  00a6e	6a 32		 push	 50			; 00000032H
  00a70	6a 01		 push	 1
  00a72	e8 00 00 00 00	 call	 ?create_ui_object@@YAPAUUI_OBJECT@@HZZ ; create_ui_object
  00a77	83 c4 78	 add	 esp, 120		; 00000078H
  00a7a	89 45 fc	 mov	 DWORD PTR _option_bdrop$[ebp], eax

; 450  : 	(
; 451  : 		UI_TYPE_AREA,
; 452  : 		UI_ATTR_PARENT (main_screen),
; 453  : 		UI_ATTR_VIRTUAL_POSITION (0.0, 0.0),
; 454  : 		UI_ATTR_VIRTUAL_SIZE (TEXT_OPTION_BDROP_WIDTH, TEXT_OPTION_BDROP_HEIGHT),
; 455  : 		UI_ATTR_COLOUR_START (255, 255, 255, 0),
; 456  : 		UI_ATTR_COLOUR_END (255, 255, 255, 255),
; 457  : 		UI_ATTR_OFFSET_TIME (0),
; 458  : 		UI_ATTR_TIME_LENGTH (500),
; 459  : 		UI_ATTR_TEXTURE_GRAPHIC (text_option_bdrop),
; 460  : 		UI_ATTR_END
; 461  : 	);
; 462  : 
; 463  :    credits_button = create_ui_object

  00a7d	6a 11		 push	 17			; 00000011H
  00a7f	6a 01		 push	 1
  00a81	6a 07		 push	 7
  00a83	6a 01		 push	 1
  00a85	6a 1b		 push	 27			; 0000001bH
  00a87	68 ff 00 00 00	 push	 255			; 000000ffH
  00a8c	0f b6 05 00 00
	00 00		 movzx	 eax, BYTE PTR ?ui_option_text_hilite_colour@@3UREAL_COLOUR@@A
  00a93	50		 push	 eax
  00a94	0f b6 0d 01 00
	00 00		 movzx	 ecx, BYTE PTR ?ui_option_text_hilite_colour@@3UREAL_COLOUR@@A+1
  00a9b	51		 push	 ecx
  00a9c	0f b6 15 02 00
	00 00		 movzx	 edx, BYTE PTR ?ui_option_text_hilite_colour@@3UREAL_COLOUR@@A+2
  00aa3	52		 push	 edx
  00aa4	6a 22		 push	 34			; 00000022H
  00aa6	6a 00		 push	 0
  00aa8	0f b6 05 00 00
	00 00		 movzx	 eax, BYTE PTR ?ui_option_text_hilite_colour@@3UREAL_COLOUR@@A
  00aaf	50		 push	 eax
  00ab0	0f b6 0d 01 00
	00 00		 movzx	 ecx, BYTE PTR ?ui_option_text_hilite_colour@@3UREAL_COLOUR@@A+1
  00ab7	51		 push	 ecx
  00ab8	0f b6 15 02 00
	00 00		 movzx	 edx, BYTE PTR ?ui_option_text_hilite_colour@@3UREAL_COLOUR@@A+2
  00abf	52		 push	 edx
  00ac0	6a 23		 push	 35			; 00000023H
  00ac2	68 ff 00 00 00	 push	 255			; 000000ffH
  00ac7	0f b6 05 00 00
	00 00		 movzx	 eax, BYTE PTR ?ui_option_text_default_colour@@3UREAL_COLOUR@@A
  00ace	50		 push	 eax
  00acf	0f b6 0d 01 00
	00 00		 movzx	 ecx, BYTE PTR ?ui_option_text_default_colour@@3UREAL_COLOUR@@A+1
  00ad6	51		 push	 ecx
  00ad7	0f b6 15 02 00
	00 00		 movzx	 edx, BYTE PTR ?ui_option_text_default_colour@@3UREAL_COLOUR@@A+2
  00ade	52		 push	 edx
  00adf	6a 14		 push	 20			; 00000014H
  00ae1	6a 00		 push	 0
  00ae3	0f b6 05 00 00
	00 00		 movzx	 eax, BYTE PTR ?ui_option_text_default_colour@@3UREAL_COLOUR@@A
  00aea	50		 push	 eax
  00aeb	0f b6 0d 01 00
	00 00		 movzx	 ecx, BYTE PTR ?ui_option_text_default_colour@@3UREAL_COLOUR@@A+1
  00af2	51		 push	 ecx
  00af3	0f b6 15 02 00
	00 00		 movzx	 edx, BYTE PTR ?ui_option_text_default_colour@@3UREAL_COLOUR@@A+2
  00afa	52		 push	 edx
  00afb	6a 15		 push	 21			; 00000015H
  00afd	68 00 00 00 00	 push	 OFFSET ?notify_main_credits_button@@YGXPAUUI_OBJECT@@PAX@Z ; notify_main_credits_button
  00b02	6a 16		 push	 22			; 00000016H
  00b04	6a 02		 push	 2
  00b06	6a 4b		 push	 75			; 0000004bH
  00b08	6a 0b		 push	 11			; 0000000bH
  00b0a	6a 12		 push	 18			; 00000012H
  00b0c	68 00 00 00 00	 push	 OFFSET ??_C@_07GDHHDJMO@Credits@
  00b11	e8 00 00 00 00	 call	 ?get_trans@@YGPBDPBD@Z	; get_trans
  00b16	50		 push	 eax
  00b17	6a 4a		 push	 74			; 0000004aH
  00b19	83 ec 08	 sub	 esp, 8
  00b1c	f2 0f 10 05 00
	00 00 00	 movsd	 xmm0, QWORD PTR __real@3fa5810624dd2f1b
  00b24	f2 0f 11 04 24	 movsd	 QWORD PTR [esp], xmm0
  00b29	83 ec 08	 sub	 esp, 8
  00b2c	f2 0f 10 05 00
	00 00 00	 movsd	 xmm0, QWORD PTR __real@3fc7ae147ae147ae
  00b34	f2 0f 11 04 24	 movsd	 QWORD PTR [esp], xmm0
  00b39	6a 59		 push	 89			; 00000059H
  00b3b	68 bc 02 00 00	 push	 700			; 000002bcH
  00b40	6a 30		 push	 48			; 00000030H
  00b42	68 c8 00 00 00	 push	 200			; 000000c8H
  00b47	6a 4d		 push	 77			; 0000004dH
  00b49	83 ec 08	 sub	 esp, 8
  00b4c	f2 0f 10 05 00
	00 00 00	 movsd	 xmm0, QWORD PTR __real@3fe6872b020c49ba
  00b54	f2 0f 11 04 24	 movsd	 QWORD PTR [esp], xmm0
  00b59	83 ec 08	 sub	 esp, 8
  00b5c	f2 0f 10 05 00
	00 00 00	 movsd	 xmm0, QWORD PTR __real@3fe4624dd2f1a9fc
  00b64	f2 0f 11 04 24	 movsd	 QWORD PTR [esp], xmm0
  00b69	6a 35		 push	 53			; 00000035H
  00b6b	83 ec 08	 sub	 esp, 8
  00b6e	f2 0f 10 05 00
	00 00 00	 movsd	 xmm0, QWORD PTR __real@3fe6872b020c49ba
  00b76	f2 0f 11 04 24	 movsd	 QWORD PTR [esp], xmm0
  00b7b	83 ec 08	 sub	 esp, 8
  00b7e	0f 57 c0	 xorps	 xmm0, xmm0
  00b81	f2 0f 11 04 24	 movsd	 QWORD PTR [esp], xmm0
  00b86	6a 36		 push	 54			; 00000036H
  00b88	a1 00 00 00 00	 mov	 eax, DWORD PTR ?main_screen@@3PAUUI_OBJECT@@A ; main_screen
  00b8d	50		 push	 eax
  00b8e	6a 32		 push	 50			; 00000032H
  00b90	6a 02		 push	 2
  00b92	e8 00 00 00 00	 call	 ?create_ui_object@@YAPAUUI_OBJECT@@HZZ ; create_ui_object
  00b97	81 c4 dc 00 00
	00		 add	 esp, 220		; 000000dcH
  00b9d	a3 00 00 00 00	 mov	 DWORD PTR ?credits_button@@3PAUUI_OBJECT@@A, eax ; credits_button

; 464  :             (
; 465  :                UI_TYPE_BUTTON,
; 466  :                UI_ATTR_PARENT (main_screen),
; 467  : 					UI_ATTR_POSITION_START (0, 0.704),
; 468  : 					UI_ATTR_POSITION_END (0.637, 0.704),
; 469  : 					UI_ATTR_TIME_LENGTH (200),
; 470  : 					UI_ATTR_OFFSET_TIME (700),
; 471  : 					UI_ATTR_VIRTUAL_SIZE (0.185, 0.042),
; 472  : 					UI_ATTR_TEXT (get_trans ("Credits")),
; 473  : 					UI_ATTR_FONT_TYPE (UI_FONT_THICK_ARIAL_22),
; 474  : 					UI_ATTR_TEXT_JUSTIFY (TEXT_JUSTIFY_RIGHT_CENTRE),
; 475  : 					UI_ATTR_FUNCTION (notify_main_credits_button),
; 476  :       	      UI_ATTR_FONT_COLOUR_START (ui_option_text_default_colour.r, ui_option_text_default_colour.g, ui_option_text_default_colour.b, 0),
; 477  :    	         UI_ATTR_FONT_COLOUR_END (ui_option_text_default_colour.r, ui_option_text_default_colour.g, ui_option_text_default_colour.b, 255),
; 478  : 	            UI_ATTR_HIGHLIGHTED_FONT_COLOUR_START (ui_option_text_hilite_colour.r, ui_option_text_hilite_colour.g, ui_option_text_hilite_colour.b, 0),
; 479  : 	            UI_ATTR_HIGHLIGHTED_FONT_COLOUR_END (ui_option_text_hilite_colour.r, ui_option_text_hilite_colour.g, ui_option_text_hilite_colour.b, 255),
; 480  : 					UI_ATTR_HIGHLIGHTABLE (TRUE),
; 481  : 					UI_ATTR_CLEAR (TRUE),
; 482  :                UI_ATTR_END
; 483  :             );
; 484  : 
; 485  : 	preprocess_translation_object_size (credits_button, NULL, NULL, 0, RESIZE_OPTION_FIXED_BUTTON);

  00ba2	6a 02		 push	 2
  00ba4	6a 00		 push	 0
  00ba6	6a 00		 push	 0
  00ba8	6a 00		 push	 0
  00baa	a1 00 00 00 00	 mov	 eax, DWORD PTR ?credits_button@@3PAUUI_OBJECT@@A ; credits_button
  00baf	50		 push	 eax
  00bb0	e8 00 00 00 00	 call	 ?preprocess_translation_object_size@@YGXPAUUI_OBJECT@@0PAPBDHW4RESIZE_UI_OBJECT_TYPES@@@Z ; preprocess_translation_object_size

; 486  : 
; 487  : 	set_text_option_backdrop_object (option_bdrop, credits_button);

  00bb5	a1 00 00 00 00	 mov	 eax, DWORD PTR ?credits_button@@3PAUUI_OBJECT@@A ; credits_button
  00bba	50		 push	 eax
  00bbb	8b 4d fc	 mov	 ecx, DWORD PTR _option_bdrop$[ebp]
  00bbe	51		 push	 ecx
  00bbf	e8 00 00 00 00	 call	 ?set_text_option_backdrop_object@@YGXPAUUI_OBJECT@@0@Z ; set_text_option_backdrop_object

; 488  : 
; 489  : 	// ghost credits button
; 490  : 
; 491  : 	x1 = get_ui_object_virtual_x (credits_button);

  00bc4	a1 00 00 00 00	 mov	 eax, DWORD PTR ?credits_button@@3PAUUI_OBJECT@@A ; credits_button
  00bc9	50		 push	 eax
  00bca	8b 0d 00 00 00
	00		 mov	 ecx, DWORD PTR ?credits_button@@3PAUUI_OBJECT@@A ; credits_button
  00bd0	8b 11		 mov	 edx, DWORD PTR [ecx]
  00bd2	8b 04 95 00 00
	00 00		 mov	 eax, DWORD PTR ?fn_get_ui_object_virtual_x@@3PAP6GMPAUUI_OBJECT@@@ZA[edx*4]
  00bd9	ff d0		 call	 eax
  00bdb	d9 5d f0	 fstp	 DWORD PTR _x1$[ebp]

; 492  : 	x2 = get_ui_object_virtual_x_size (credits_button);

  00bde	a1 00 00 00 00	 mov	 eax, DWORD PTR ?credits_button@@3PAUUI_OBJECT@@A ; credits_button
  00be3	50		 push	 eax
  00be4	8b 0d 00 00 00
	00		 mov	 ecx, DWORD PTR ?credits_button@@3PAUUI_OBJECT@@A ; credits_button
  00bea	8b 11		 mov	 edx, DWORD PTR [ecx]
  00bec	8b 04 95 00 00
	00 00		 mov	 eax, DWORD PTR ?fn_get_ui_object_virtual_x_size@@3PAP6GMPAUUI_OBJECT@@@ZA[edx*4]
  00bf3	ff d0		 call	 eax
  00bf5	d9 5d e8	 fstp	 DWORD PTR _x2$[ebp]

; 493  : 
; 494  : 	y1 = 0.704;

  00bf8	f3 0f 10 05 00
	00 00 00	 movss	 xmm0, DWORD PTR __real@3f343958
  00c00	f3 0f 11 45 ec	 movss	 DWORD PTR _y1$[ebp], xmm0

; 495  : 	y2 = 0.042;

  00c05	f3 0f 10 05 00
	00 00 00	 movss	 xmm0, DWORD PTR __real@3d2c0831
  00c0d	f3 0f 11 45 e4	 movss	 DWORD PTR _y2$[ebp], xmm0

; 496  : 
; 497  : 	ghost_credits_button = create_ui_object

  00c12	6a 11		 push	 17			; 00000011H
  00c14	6a 00		 push	 0
  00c16	6a 10		 push	 16			; 00000010H
  00c18	6a 01		 push	 1
  00c1a	6a 07		 push	 7
  00c1c	f3 0f 5a 45 e4	 cvtss2sd xmm0, DWORD PTR _y2$[ebp]
  00c21	83 ec 08	 sub	 esp, 8
  00c24	f2 0f 11 04 24	 movsd	 QWORD PTR [esp], xmm0
  00c29	f3 0f 5a 45 e8	 cvtss2sd xmm0, DWORD PTR _x2$[ebp]
  00c2e	83 ec 08	 sub	 esp, 8
  00c31	f2 0f 11 04 24	 movsd	 QWORD PTR [esp], xmm0
  00c36	6a 59		 push	 89			; 00000059H
  00c38	f3 0f 5a 45 ec	 cvtss2sd xmm0, DWORD PTR _y1$[ebp]
  00c3d	83 ec 08	 sub	 esp, 8
  00c40	f2 0f 11 04 24	 movsd	 QWORD PTR [esp], xmm0
  00c45	f3 0f 5a 45 f0	 cvtss2sd xmm0, DWORD PTR _x1$[ebp]
  00c4a	83 ec 08	 sub	 esp, 8
  00c4d	f2 0f 11 04 24	 movsd	 QWORD PTR [esp], xmm0
  00c52	6a 58		 push	 88			; 00000058H
  00c54	a1 00 00 00 00	 mov	 eax, DWORD PTR ?main_screen@@3PAUUI_OBJECT@@A ; main_screen
  00c59	50		 push	 eax
  00c5a	6a 32		 push	 50			; 00000032H
  00c5c	6a 01		 push	 1
  00c5e	e8 00 00 00 00	 call	 ?create_ui_object@@YAPAUUI_OBJECT@@HZZ ; create_ui_object
  00c63	83 c4 48	 add	 esp, 72			; 00000048H
  00c66	a3 00 00 00 00	 mov	 DWORD PTR ?ghost_credits_button@@3PAUUI_OBJECT@@A, eax ; ghost_credits_button

; 498  : 									(
; 499  : 										UI_TYPE_AREA,
; 500  : 										UI_ATTR_PARENT (main_screen),
; 501  : 										UI_ATTR_VIRTUAL_POSITION (x1, y1),
; 502  : 										UI_ATTR_VIRTUAL_SIZE (x2, y2),
; 503  : 										UI_ATTR_CLEAR (TRUE),
; 504  : 										UI_ATTR_DRAWABLE (FALSE),
; 505  : 										UI_ATTR_END
; 506  : 									);
; 507  : 
; 508  : 
; 509  : // Modder Credits by GCsDriver  08-12-2007
; 510  : 
; 511  : #if 0   // Disable until implemented properly
; 512  : 	i++;
; 513  : 
; 514  : 	option_bdrop = create_ui_object
; 515  : 	(
; 516  : 		UI_TYPE_AREA,
; 517  : 		UI_ATTR_PARENT (main_screen),
; 518  : 		UI_ATTR_VIRTUAL_POSITION (0.0, 0.0),
; 519  : 		UI_ATTR_VIRTUAL_SIZE (TEXT_OPTION_BDROP_WIDTH, TEXT_OPTION_BDROP_HEIGHT),
; 520  : 		UI_ATTR_COLOUR_START (255, 255, 255, 0),
; 521  : 		UI_ATTR_COLOUR_END (255, 255, 255, 255),
; 522  : 		UI_ATTR_OFFSET_TIME (0),
; 523  : 		UI_ATTR_TIME_LENGTH (500),
; 524  : 		UI_ATTR_TEXTURE_GRAPHIC (text_option_bdrop),
; 525  : 		UI_ATTR_END
; 526  : 	);
; 527  : 
; 528  :    modcredits_button = create_ui_object
; 529  :             (
; 530  :                UI_TYPE_BUTTON,
; 531  :                UI_ATTR_PARENT (main_screen),
; 532  : 					UI_ATTR_POSITION_START (0, 0.883),
; 533  : 					UI_ATTR_POSITION_END (0.780, 0.883),
; 534  : 					UI_ATTR_TIME_LENGTH (200),
; 535  : 					UI_ATTR_OFFSET_TIME (700),
; 536  : 					UI_ATTR_VIRTUAL_SIZE (0.185, 0.042),
; 537  : 					UI_ATTR_TEXT (get_trans ("Mod-Team")),
; 538  : 					UI_ATTR_FONT_TYPE (UI_FONT_THICK_ARIAL_22),
; 539  : 					UI_ATTR_TEXT_JUSTIFY (TEXT_JUSTIFY_RIGHT_CENTRE),
; 540  : 					UI_ATTR_FUNCTION (notify_main_modcredits_button),
; 541  :       	      UI_ATTR_FONT_COLOUR_START (ui_option_text_default_colour.r, ui_option_text_default_colour.g, ui_option_text_default_colour.b, 0),
; 542  :    	         UI_ATTR_FONT_COLOUR_END (ui_option_text_default_colour.r, ui_option_text_default_colour.g, ui_option_text_default_colour.b, 255),
; 543  : 	            UI_ATTR_HIGHLIGHTED_FONT_COLOUR_START (ui_option_text_hilite_colour.r, ui_option_text_hilite_colour.g, ui_option_text_hilite_colour.b, 0),
; 544  : 	            UI_ATTR_HIGHLIGHTED_FONT_COLOUR_END (ui_option_text_hilite_colour.r, ui_option_text_hilite_colour.g, ui_option_text_hilite_colour.b, 255),
; 545  : 					UI_ATTR_HIGHLIGHTABLE (TRUE),
; 546  : 					UI_ATTR_CLEAR (TRUE),
; 547  :                UI_ATTR_END
; 548  :             );
; 549  : 
; 550  : 	preprocess_translation_object_size (modcredits_button, NULL, NULL, 0, RESIZE_OPTION_FIXED_BUTTON);
; 551  : 
; 552  : 	set_text_option_backdrop_object (option_bdrop, modcredits_button);
; 553  : #endif
; 554  : // Modder Credits by GCsDriver end  08-12-2007
; 555  : 
; 556  : 	/////////////////////////////////////////////////////////////////
; 557  : 	// Exit Button
; 558  : 
; 559  : 	option_bdrop = create_ui_object

  00c6b	6a 11		 push	 17			; 00000011H
  00c6d	a1 00 00 00 00	 mov	 eax, DWORD PTR ?text_option_bdrop@@3PAUTEXTURE_GRAPHIC@@A ; text_option_bdrop
  00c72	50		 push	 eax
  00c73	6a 4c		 push	 76			; 0000004cH
  00c75	68 f4 01 00 00	 push	 500			; 000001f4H
  00c7a	6a 4d		 push	 77			; 0000004dH
  00c7c	6a 00		 push	 0
  00c7e	6a 30		 push	 48			; 00000030H
  00c80	68 ff 00 00 00	 push	 255			; 000000ffH
  00c85	68 ff 00 00 00	 push	 255			; 000000ffH
  00c8a	68 ff 00 00 00	 push	 255			; 000000ffH
  00c8f	68 ff 00 00 00	 push	 255			; 000000ffH
  00c94	6a 0a		 push	 10			; 0000000aH
  00c96	6a 00		 push	 0
  00c98	68 ff 00 00 00	 push	 255			; 000000ffH
  00c9d	68 ff 00 00 00	 push	 255			; 000000ffH
  00ca2	68 ff 00 00 00	 push	 255			; 000000ffH
  00ca7	6a 0b		 push	 11			; 0000000bH
  00ca9	83 ec 08	 sub	 esp, 8
  00cac	f2 0f 10 05 00
	00 00 00	 movsd	 xmm0, QWORD PTR __real@3fad2f1aa0000000
  00cb4	f2 0f 11 04 24	 movsd	 QWORD PTR [esp], xmm0
  00cb9	83 ec 08	 sub	 esp, 8
  00cbc	f2 0f 10 05 00
	00 00 00	 movsd	 xmm0, QWORD PTR __real@3fdee978e0000000
  00cc4	f2 0f 11 04 24	 movsd	 QWORD PTR [esp], xmm0
  00cc9	6a 59		 push	 89			; 00000059H
  00ccb	83 ec 08	 sub	 esp, 8
  00cce	0f 57 c0	 xorps	 xmm0, xmm0
  00cd1	f2 0f 11 04 24	 movsd	 QWORD PTR [esp], xmm0
  00cd6	83 ec 08	 sub	 esp, 8
  00cd9	0f 57 c0	 xorps	 xmm0, xmm0
  00cdc	f2 0f 11 04 24	 movsd	 QWORD PTR [esp], xmm0
  00ce1	6a 58		 push	 88			; 00000058H
  00ce3	8b 0d 00 00 00
	00		 mov	 ecx, DWORD PTR ?main_screen@@3PAUUI_OBJECT@@A ; main_screen
  00ce9	51		 push	 ecx
  00cea	6a 32		 push	 50			; 00000032H
  00cec	6a 01		 push	 1
  00cee	e8 00 00 00 00	 call	 ?create_ui_object@@YAPAUUI_OBJECT@@HZZ ; create_ui_object
  00cf3	83 c4 78	 add	 esp, 120		; 00000078H
  00cf6	89 45 fc	 mov	 DWORD PTR _option_bdrop$[ebp], eax

; 560  : 	(
; 561  : 		UI_TYPE_AREA,
; 562  : 		UI_ATTR_PARENT (main_screen),
; 563  : 		UI_ATTR_VIRTUAL_POSITION (0.0, 0.0),
; 564  : 		UI_ATTR_VIRTUAL_SIZE (TEXT_OPTION_BDROP_WIDTH, TEXT_OPTION_BDROP_HEIGHT),
; 565  : 		UI_ATTR_COLOUR_START (255, 255, 255, 0),
; 566  : 		UI_ATTR_COLOUR_END (255, 255, 255, 255),
; 567  : 		UI_ATTR_OFFSET_TIME (0),
; 568  : 		UI_ATTR_TIME_LENGTH (500),
; 569  : 		UI_ATTR_TEXTURE_GRAPHIC (text_option_bdrop),
; 570  : 		UI_ATTR_END
; 571  : 	);
; 572  : 
; 573  : 	change_obj = create_ui_object

  00cf9	6a 11		 push	 17			; 00000011H
  00cfb	6a 01		 push	 1
  00cfd	6a 07		 push	 7
  00cff	6a 01		 push	 1
  00d01	6a 1b		 push	 27			; 0000001bH
  00d03	68 ff 00 00 00	 push	 255			; 000000ffH
  00d08	0f b6 05 00 00
	00 00		 movzx	 eax, BYTE PTR ?ui_option_text_hilite_colour@@3UREAL_COLOUR@@A
  00d0f	50		 push	 eax
  00d10	0f b6 0d 01 00
	00 00		 movzx	 ecx, BYTE PTR ?ui_option_text_hilite_colour@@3UREAL_COLOUR@@A+1
  00d17	51		 push	 ecx
  00d18	0f b6 15 02 00
	00 00		 movzx	 edx, BYTE PTR ?ui_option_text_hilite_colour@@3UREAL_COLOUR@@A+2
  00d1f	52		 push	 edx
  00d20	6a 22		 push	 34			; 00000022H
  00d22	6a 00		 push	 0
  00d24	0f b6 05 00 00
	00 00		 movzx	 eax, BYTE PTR ?ui_option_text_hilite_colour@@3UREAL_COLOUR@@A
  00d2b	50		 push	 eax
  00d2c	0f b6 0d 01 00
	00 00		 movzx	 ecx, BYTE PTR ?ui_option_text_hilite_colour@@3UREAL_COLOUR@@A+1
  00d33	51		 push	 ecx
  00d34	0f b6 15 02 00
	00 00		 movzx	 edx, BYTE PTR ?ui_option_text_hilite_colour@@3UREAL_COLOUR@@A+2
  00d3b	52		 push	 edx
  00d3c	6a 23		 push	 35			; 00000023H
  00d3e	68 ff 00 00 00	 push	 255			; 000000ffH
  00d43	0f b6 05 00 00
	00 00		 movzx	 eax, BYTE PTR ?ui_option_text_default_colour@@3UREAL_COLOUR@@A
  00d4a	50		 push	 eax
  00d4b	0f b6 0d 01 00
	00 00		 movzx	 ecx, BYTE PTR ?ui_option_text_default_colour@@3UREAL_COLOUR@@A+1
  00d52	51		 push	 ecx
  00d53	0f b6 15 02 00
	00 00		 movzx	 edx, BYTE PTR ?ui_option_text_default_colour@@3UREAL_COLOUR@@A+2
  00d5a	52		 push	 edx
  00d5b	6a 14		 push	 20			; 00000014H
  00d5d	6a 00		 push	 0
  00d5f	0f b6 05 00 00
	00 00		 movzx	 eax, BYTE PTR ?ui_option_text_default_colour@@3UREAL_COLOUR@@A
  00d66	50		 push	 eax
  00d67	0f b6 0d 01 00
	00 00		 movzx	 ecx, BYTE PTR ?ui_option_text_default_colour@@3UREAL_COLOUR@@A+1
  00d6e	51		 push	 ecx
  00d6f	0f b6 15 02 00
	00 00		 movzx	 edx, BYTE PTR ?ui_option_text_default_colour@@3UREAL_COLOUR@@A+2
  00d76	52		 push	 edx
  00d77	6a 15		 push	 21			; 00000015H
  00d79	6a 01		 push	 1
  00d7b	6a 4b		 push	 75			; 0000004bH
  00d7d	68 ff 00 00 00	 push	 255			; 000000ffH
  00d82	6a 2f		 push	 47			; 0000002fH
  00d84	6a 7c		 push	 124			; 0000007cH
  00d86	68 fe 00 00 00	 push	 254			; 000000feH
  00d8b	6a 13		 push	 19			; 00000013H
  00d8d	6a 08		 push	 8
  00d8f	6a 12		 push	 18			; 00000012H
  00d91	68 00 00 00 00	 push	 OFFSET ?notify_main_screen_exit_button@@YGXPAUUI_OBJECT@@PAX@Z ; notify_main_screen_exit_button
  00d96	6a 16		 push	 22			; 00000016H
  00d98	6a 01		 push	 1
  00d9a	6a 2f		 push	 47			; 0000002fH
  00d9c	68 00 00 00 00	 push	 OFFSET ??_C@_07JEGGIJNH@UI_EXIT@
  00da1	e8 00 00 00 00	 call	 ?get_trans@@YGPBDPBD@Z	; get_trans
  00da6	50		 push	 eax
  00da7	6a 4a		 push	 74			; 0000004aH
  00da9	83 ec 08	 sub	 esp, 8
  00dac	f2 0f 10 05 00
	00 00 00	 movsd	 xmm0, QWORD PTR __real@3fa99999a0000000
  00db4	f2 0f 11 04 24	 movsd	 QWORD PTR [esp], xmm0
  00db9	83 ec 08	 sub	 esp, 8
  00dbc	f2 0f 10 05 00
	00 00 00	 movsd	 xmm0, QWORD PTR __real@3fb99999a0000000
  00dc4	f2 0f 11 04 24	 movsd	 QWORD PTR [esp], xmm0
  00dc9	6a 59		 push	 89			; 00000059H
  00dcb	83 ec 08	 sub	 esp, 8
  00dce	f2 0f 10 05 00
	00 00 00	 movsd	 xmm0, QWORD PTR __real@3fec106240000000
  00dd6	f2 0f 11 04 24	 movsd	 QWORD PTR [esp], xmm0
  00ddb	83 ec 08	 sub	 esp, 8
  00dde	f2 0f 10 05 00
	00 00 00	 movsd	 xmm0, QWORD PTR __real@3fa374bc60000000
  00de6	f2 0f 11 04 24	 movsd	 QWORD PTR [esp], xmm0
  00deb	6a 58		 push	 88			; 00000058H
  00ded	a1 00 00 00 00	 mov	 eax, DWORD PTR ?main_screen@@3PAUUI_OBJECT@@A ; main_screen
  00df2	50		 push	 eax
  00df3	6a 32		 push	 50			; 00000032H
  00df5	6a 02		 push	 2
  00df7	e8 00 00 00 00	 call	 ?create_ui_object@@YAPAUUI_OBJECT@@HZZ ; create_ui_object
  00dfc	81 c4 d4 00 00
	00		 add	 esp, 212		; 000000d4H
  00e02	89 45 f8	 mov	 DWORD PTR _change_obj$[ebp], eax

; 574  : 			(
; 575  : 				UI_TYPE_BUTTON,
; 576  : 				UI_ATTR_PARENT (main_screen),
; 577  : 				UI_ATTR_VIRTUAL_POSITION (OPTIONS_CANCEL_BUTTON_POS_X, OPTIONS_CANCEL_BUTTON_POS_Y),
; 578  : 				UI_ATTR_VIRTUAL_SIZE (OPTIONS_EXIT_BUTTON_X, OPTIONS_EXIT_BUTTON_Y),
; 579  : 				UI_ATTR_TEXT (get_trans("UI_EXIT")),
; 580  : 				UI_ATTR_NOTIFY_ON (NOTIFY_TYPE_BUTTON_UP),
; 581  : 				UI_ATTR_FUNCTION (notify_main_screen_exit_button),
; 582  : 				UI_ATTR_FONT_TYPE (UI_FONT_THICK_ITALIC_ARIAL_18),
; 583  : 				UI_ATTR_FONT_COLOUR (254, 124, 47, 255),
; 584  : 				UI_ATTR_TEXT_JUSTIFY (TEXT_JUSTIFY_LEFT_CENTRE),
; 585  :             UI_ATTR_FONT_COLOUR_START (ui_option_text_default_colour.r, ui_option_text_default_colour.g, ui_option_text_default_colour.b, 0),
; 586  :             UI_ATTR_FONT_COLOUR_END (ui_option_text_default_colour.r, ui_option_text_default_colour.g, ui_option_text_default_colour.b, 255),
; 587  :             UI_ATTR_HIGHLIGHTED_FONT_COLOUR_START (ui_option_text_hilite_colour.r, ui_option_text_hilite_colour.g, ui_option_text_hilite_colour.b, 0),
; 588  :             UI_ATTR_HIGHLIGHTED_FONT_COLOUR_END (ui_option_text_hilite_colour.r, ui_option_text_hilite_colour.g, ui_option_text_hilite_colour.b, 255),
; 589  : 				UI_ATTR_HIGHLIGHTABLE (TRUE),
; 590  : 				UI_ATTR_CLEAR (TRUE),
; 591  : 				UI_ATTR_END
; 592  : 			);
; 593  : 
; 594  : 	set_text_option_backdrop_object (option_bdrop, change_obj);

  00e05	8b 45 f8	 mov	 eax, DWORD PTR _change_obj$[ebp]
  00e08	50		 push	 eax
  00e09	8b 4d fc	 mov	 ecx, DWORD PTR _option_bdrop$[ebp]
  00e0c	51		 push	 ecx
  00e0d	e8 00 00 00 00	 call	 ?set_text_option_backdrop_object@@YGXPAUUI_OBJECT@@0@Z ; set_text_option_backdrop_object

; 595  : 
; 596  : 
; 597  : #ifndef COMMERCIAL
; 598  : 
; 599  : 	if (check_cdrom_file_exists ("CONFIG.BIN"))

  00e12	68 00 00 00 00	 push	 OFFSET ??_C@_0L@NAFCKBEG@CONFIG?4BIN@
  00e17	e8 00 00 00 00	 call	 ?check_cdrom_file_exists@@YGHPBD@Z ; check_cdrom_file_exists
  00e1c	85 c0		 test	 eax, eax
  00e1e	74 2c		 je	 SHORT $LN9@initialise

; 600  : 	{
; 601  : 		set_ui_object_text (registered_to_message, get_security_message ()),

  00e20	e8 00 00 00 00	 call	 ?get_security_message@@YGPBDXZ ; get_security_message
  00e25	50		 push	 eax
  00e26	8b 45 f4	 mov	 eax, DWORD PTR _registered_to_message$[ebp]
  00e29	50		 push	 eax
  00e2a	8b 4d f4	 mov	 ecx, DWORD PTR _registered_to_message$[ebp]
  00e2d	8b 11		 mov	 edx, DWORD PTR [ecx]
  00e2f	8b 04 95 00 00
	00 00		 mov	 eax, DWORD PTR ?fn_set_ui_object_text@@3PAP6GXPAUUI_OBJECT@@PBD@ZA[edx*4]
  00e36	ff d0		 call	 eax
  00e38	6a 01		 push	 1
  00e3a	8b 4d f4	 mov	 ecx, DWORD PTR _registered_to_message$[ebp]
  00e3d	51		 push	 ecx
  00e3e	8b 55 f4	 mov	 edx, DWORD PTR _registered_to_message$[ebp]
  00e41	8b 02		 mov	 eax, DWORD PTR [edx]
  00e43	8b 0c 85 00 00
	00 00		 mov	 ecx, DWORD PTR ?fn_set_ui_object_drawable@@3PAP6GXPAUUI_OBJECT@@H@ZA[eax*4]
  00e4a	ff d1		 call	 ecx
$LN9@initialise:

; 602  : 
; 603  : 		set_ui_object_drawable (registered_to_message, TRUE);
; 604  : 	}
; 605  : 	else
; 606  : 	{
; 607  : 
; 608  : 		#ifdef INSTALL_FROM_CDROM
; 609  : 
; 610  : 		debug_fatal ("Security Protection Failed");
; 611  : 
; 612  : 		#endif
; 613  : 	}
; 614  : 
; 615  : #endif
; 616  : }

  00e4c	5f		 pop	 edi
  00e4d	5e		 pop	 esi
  00e4e	5b		 pop	 ebx
  00e4f	8b e5		 mov	 esp, ebp
  00e51	5d		 pop	 ebp
  00e52	c3		 ret	 0
?initialise_main_screen@@YGXXZ ENDP			; initialise_main_screen
_TEXT	ENDS
END
