; Listing generated by Microsoft (R) Optimizing Compiler Version 19.16.27045.0 

	TITLE	C:\Users\nhv90\Projects\eech\aphavoc\source\ui_menu\main\main_fn.c
	.686P
	.XMM
	include listing.inc
	.model	flat

INCLUDELIB MSVCRTD
INCLUDELIB OLDNAMES

PUBLIC	?notify_main_screen@@YGXPAUUI_OBJECT@@PAX@Z	; notify_main_screen
PUBLIC	?notify_main_select_player_button@@YGXPAUUI_OBJECT@@PAX@Z ; notify_main_select_player_button
PUBLIC	?notify_main_combat_missions_button@@YGXPAUUI_OBJECT@@PAX@Z ; notify_main_combat_missions_button
PUBLIC	?notify_main_credits_button@@YGXPAUUI_OBJECT@@PAX@Z ; notify_main_credits_button
PUBLIC	?notify_main_modcredits_button@@YGXPAUUI_OBJECT@@PAX@Z ; notify_main_modcredits_button
PUBLIC	??_C@_0BN@FINHMMCD@graphics?2ui?2cohokum?2main?4psd@ ; `string'
EXTRN	?blit_front_buffer_to_render_buffer@@YGXXZ:PROC	; blit_front_buffer_to_render_buffer
EXTRN	?create_texture_graphic@@YGPAUTEXTURE_GRAPHIC@@PBD@Z:PROC ; create_texture_graphic
EXTRN	?destroy_texture_graphic@@YGXPAUTEXTURE_GRAPHIC@@@Z:PROC ; destroy_texture_graphic
EXTRN	?ui_set_user_function@@YGXP6GXXZ@Z:PROC		; ui_set_user_function
EXTRN	?reset_time_values@@YGXPAUUI_OBJECT@@@Z:PROC	; reset_time_values
EXTRN	?push_ui_screen@@YGXPAUUI_OBJECT@@@Z:PROC	; push_ui_screen
EXTRN	?set_game_flow@@YGXW4GAME_FLOW_TYPES@@@Z:PROC	; set_game_flow
EXTRN	?leave_mission@@YGXXZ:PROC			; leave_mission
EXTRN	?fn_get_ui_object_drawable@@3PAP6GHPAUUI_OBJECT@@@ZA:BYTE ; fn_get_ui_object_drawable
EXTRN	?fn_set_ui_object_texture_graphic@@3PAP6GXPAUUI_OBJECT@@PAUTEXTURE_GRAPHIC@@@ZA:BYTE ; fn_set_ui_object_texture_graphic
EXTRN	?main_screen@@3PAUUI_OBJECT@@A:DWORD		; main_screen
EXTRN	?main_screen_texture@@3PAUTEXTURE_GRAPHIC@@A:DWORD ; main_screen_texture
EXTRN	?select_player_screen@@3PAUUI_OBJECT@@A:DWORD	; select_player_screen
EXTRN	?game_type_screen@@3PAUUI_OBJECT@@A:DWORD	; game_type_screen
EXTRN	?credits_screen@@3PAUUI_OBJECT@@A:DWORD		; credits_screen
EXTRN	?modcredits_screen@@3PAUUI_OBJECT@@A:DWORD	; modcredits_screen
;	COMDAT ??_C@_0BN@FINHMMCD@graphics?2ui?2cohokum?2main?4psd@
CONST	SEGMENT
??_C@_0BN@FINHMMCD@graphics?2ui?2cohokum?2main?4psd@ DB 'graphics\ui\coho'
	DB	'kum\main.psd', 00H				; `string'
CONST	ENDS
; Function compile flags: /Odtp /ZI
; File c:\users\nhv90\projects\eech\aphavoc\source\ui_menu\main\main_fn.c
;	COMDAT ?notify_main_modcredits_button@@YGXPAUUI_OBJECT@@PAX@Z
_TEXT	SEGMENT
_obj$ = 8						; size = 4
_arg$ = 12						; size = 4
?notify_main_modcredits_button@@YGXPAUUI_OBJECT@@PAX@Z PROC ; notify_main_modcredits_button, COMDAT

; 181  : {

  00000	55		 push	 ebp
  00001	8b ec		 mov	 ebp, esp
  00003	83 ec 40	 sub	 esp, 64			; 00000040H
  00006	53		 push	 ebx
  00007	56		 push	 esi
  00008	57		 push	 edi

; 182  : 
; 183  : 	obj;
; 184  : 	arg;
; 185  : 
; 186  : 	push_ui_screen (modcredits_screen);

  00009	a1 00 00 00 00	 mov	 eax, DWORD PTR ?modcredits_screen@@3PAUUI_OBJECT@@A ; modcredits_screen
  0000e	50		 push	 eax
  0000f	e8 00 00 00 00	 call	 ?push_ui_screen@@YGXPAUUI_OBJECT@@@Z ; push_ui_screen

; 187  : }

  00014	5f		 pop	 edi
  00015	5e		 pop	 esi
  00016	5b		 pop	 ebx
  00017	8b e5		 mov	 esp, ebp
  00019	5d		 pop	 ebp
  0001a	c2 08 00	 ret	 8
?notify_main_modcredits_button@@YGXPAUUI_OBJECT@@PAX@Z ENDP ; notify_main_modcredits_button
_TEXT	ENDS
; Function compile flags: /Odtp /ZI
; File c:\users\nhv90\projects\eech\aphavoc\source\ui_menu\main\main_fn.c
;	COMDAT ?notify_main_credits_button@@YGXPAUUI_OBJECT@@PAX@Z
_TEXT	SEGMENT
_obj$ = 8						; size = 4
_arg$ = 12						; size = 4
?notify_main_credits_button@@YGXPAUUI_OBJECT@@PAX@Z PROC ; notify_main_credits_button, COMDAT

; 168  : {

  00000	55		 push	 ebp
  00001	8b ec		 mov	 ebp, esp
  00003	83 ec 40	 sub	 esp, 64			; 00000040H
  00006	53		 push	 ebx
  00007	56		 push	 esi
  00008	57		 push	 edi

; 169  : 
; 170  : 	obj;
; 171  : 	arg;
; 172  : 
; 173  : 	push_ui_screen (credits_screen);

  00009	a1 00 00 00 00	 mov	 eax, DWORD PTR ?credits_screen@@3PAUUI_OBJECT@@A ; credits_screen
  0000e	50		 push	 eax
  0000f	e8 00 00 00 00	 call	 ?push_ui_screen@@YGXPAUUI_OBJECT@@@Z ; push_ui_screen

; 174  : }

  00014	5f		 pop	 edi
  00015	5e		 pop	 esi
  00016	5b		 pop	 ebx
  00017	8b e5		 mov	 esp, ebp
  00019	5d		 pop	 ebp
  0001a	c2 08 00	 ret	 8
?notify_main_credits_button@@YGXPAUUI_OBJECT@@PAX@Z ENDP ; notify_main_credits_button
_TEXT	ENDS
; Function compile flags: /Odtp /ZI
; File c:\users\nhv90\projects\eech\aphavoc\source\ui_menu\main\main_fn.c
;	COMDAT ?notify_main_combat_missions_button@@YGXPAUUI_OBJECT@@PAX@Z
_TEXT	SEGMENT
_obj$ = 8						; size = 4
_arg$ = 12						; size = 4
?notify_main_combat_missions_button@@YGXPAUUI_OBJECT@@PAX@Z PROC ; notify_main_combat_missions_button, COMDAT

; 153  : {

  00000	55		 push	 ebp
  00001	8b ec		 mov	 ebp, esp
  00003	83 ec 40	 sub	 esp, 64			; 00000040H
  00006	53		 push	 ebx
  00007	56		 push	 esi
  00008	57		 push	 edi

; 154  : 
; 155  : 	obj;
; 156  : 	arg;
; 157  : 
; 158  : 	set_game_flow (GAME_FLOW_COMBAT_MISSIONS);

  00009	6a 02		 push	 2
  0000b	e8 00 00 00 00	 call	 ?set_game_flow@@YGXW4GAME_FLOW_TYPES@@@Z ; set_game_flow

; 159  : 
; 160  : 	push_ui_screen (game_type_screen);

  00010	a1 00 00 00 00	 mov	 eax, DWORD PTR ?game_type_screen@@3PAUUI_OBJECT@@A ; game_type_screen
  00015	50		 push	 eax
  00016	e8 00 00 00 00	 call	 ?push_ui_screen@@YGXPAUUI_OBJECT@@@Z ; push_ui_screen

; 161  : }

  0001b	5f		 pop	 edi
  0001c	5e		 pop	 esi
  0001d	5b		 pop	 ebx
  0001e	8b e5		 mov	 esp, ebp
  00020	5d		 pop	 ebp
  00021	c2 08 00	 ret	 8
?notify_main_combat_missions_button@@YGXPAUUI_OBJECT@@PAX@Z ENDP ; notify_main_combat_missions_button
_TEXT	ENDS
; Function compile flags: /Odtp /ZI
; File c:\users\nhv90\projects\eech\aphavoc\source\ui_menu\main\main_fn.c
;	COMDAT ?notify_main_select_player_button@@YGXPAUUI_OBJECT@@PAX@Z
_TEXT	SEGMENT
_obj$ = 8						; size = 4
_arg$ = 12						; size = 4
?notify_main_select_player_button@@YGXPAUUI_OBJECT@@PAX@Z PROC ; notify_main_select_player_button, COMDAT

; 140  : {

  00000	55		 push	 ebp
  00001	8b ec		 mov	 ebp, esp
  00003	83 ec 40	 sub	 esp, 64			; 00000040H
  00006	53		 push	 ebx
  00007	56		 push	 esi
  00008	57		 push	 edi

; 141  : 
; 142  : 	obj;
; 143  : 	arg;
; 144  : 
; 145  : 	push_ui_screen (select_player_screen);

  00009	a1 00 00 00 00	 mov	 eax, DWORD PTR ?select_player_screen@@3PAUUI_OBJECT@@A ; select_player_screen
  0000e	50		 push	 eax
  0000f	e8 00 00 00 00	 call	 ?push_ui_screen@@YGXPAUUI_OBJECT@@@Z ; push_ui_screen

; 146  : }

  00014	5f		 pop	 edi
  00015	5e		 pop	 esi
  00016	5b		 pop	 ebx
  00017	8b e5		 mov	 esp, ebp
  00019	5d		 pop	 ebp
  0001a	c2 08 00	 ret	 8
?notify_main_select_player_button@@YGXPAUUI_OBJECT@@PAX@Z ENDP ; notify_main_select_player_button
_TEXT	ENDS
; Function compile flags: /Odtp /ZI
; File c:\users\nhv90\projects\eech\aphavoc\source\ui_menu\main\main_fn.c
;	COMDAT ?notify_main_screen@@YGXPAUUI_OBJECT@@PAX@Z
_TEXT	SEGMENT
_obj$ = 8						; size = 4
_arg$ = 12						; size = 4
?notify_main_screen@@YGXPAUUI_OBJECT@@PAX@Z PROC	; notify_main_screen, COMDAT

; 74   : {

  00000	55		 push	 ebp
  00001	8b ec		 mov	 ebp, esp
  00003	83 ec 40	 sub	 esp, 64			; 00000040H
  00006	53		 push	 ebx
  00007	56		 push	 esi
  00008	57		 push	 edi

; 75   : 
; 76   : 	obj;
; 77   : 	arg;
; 78   : 
; 79   : 	if ( get_ui_object_drawable ( obj ) )

  00009	8b 45 08	 mov	 eax, DWORD PTR _obj$[ebp]
  0000c	50		 push	 eax
  0000d	8b 4d 08	 mov	 ecx, DWORD PTR _obj$[ebp]
  00010	8b 11		 mov	 edx, DWORD PTR [ecx]
  00012	8b 04 95 00 00
	00 00		 mov	 eax, DWORD PTR ?fn_get_ui_object_drawable@@3PAP6GHPAUUI_OBJECT@@@ZA[edx*4]
  00019	ff d0		 call	 eax
  0001b	85 c0		 test	 eax, eax
  0001d	74 69		 je	 SHORT $LN2@notify_mai

; 80   : 	{
; 81   : 
; 82   : 		if ( main_screen_texture )

  0001f	83 3d 00 00 00
	00 00		 cmp	 DWORD PTR ?main_screen_texture@@3PAUTEXTURE_GRAPHIC@@A, 0 ; main_screen_texture
  00026	74 15		 je	 SHORT $LN4@notify_mai

; 83   : 		{
; 84   : 	
; 85   : 			destroy_texture_graphic ( main_screen_texture );

  00028	a1 00 00 00 00	 mov	 eax, DWORD PTR ?main_screen_texture@@3PAUTEXTURE_GRAPHIC@@A ; main_screen_texture
  0002d	50		 push	 eax
  0002e	e8 00 00 00 00	 call	 ?destroy_texture_graphic@@YGXPAUTEXTURE_GRAPHIC@@@Z ; destroy_texture_graphic

; 86   : 
; 87   : 			main_screen_texture = NULL;

  00033	c7 05 00 00 00
	00 00 00 00 00	 mov	 DWORD PTR ?main_screen_texture@@3PAUTEXTURE_GRAPHIC@@A, 0 ; main_screen_texture
$LN4@notify_mai:

; 88   : 		}
; 89   : 	
; 90   : 		main_screen_texture = create_texture_graphic ( "graphics\\ui\\cohokum\\main.psd" );

  0003d	68 00 00 00 00	 push	 OFFSET ??_C@_0BN@FINHMMCD@graphics?2ui?2cohokum?2main?4psd@
  00042	e8 00 00 00 00	 call	 ?create_texture_graphic@@YGPAUTEXTURE_GRAPHIC@@PBD@Z ; create_texture_graphic
  00047	a3 00 00 00 00	 mov	 DWORD PTR ?main_screen_texture@@3PAUTEXTURE_GRAPHIC@@A, eax ; main_screen_texture

; 91   : 	
; 92   : 		set_ui_object_texture_graphic ( main_screen, main_screen_texture );

  0004c	a1 00 00 00 00	 mov	 eax, DWORD PTR ?main_screen_texture@@3PAUTEXTURE_GRAPHIC@@A ; main_screen_texture
  00051	50		 push	 eax
  00052	8b 0d 00 00 00
	00		 mov	 ecx, DWORD PTR ?main_screen@@3PAUUI_OBJECT@@A ; main_screen
  00058	51		 push	 ecx
  00059	8b 15 00 00 00
	00		 mov	 edx, DWORD PTR ?main_screen@@3PAUUI_OBJECT@@A ; main_screen
  0005f	8b 02		 mov	 eax, DWORD PTR [edx]
  00061	8b 0c 85 00 00
	00 00		 mov	 ecx, DWORD PTR ?fn_set_ui_object_texture_graphic@@3PAP6GXPAUUI_OBJECT@@PAUTEXTURE_GRAPHIC@@@ZA[eax*4]
  00068	ff d1		 call	 ecx

; 93   : 	
; 94   : 		blit_front_buffer_to_render_buffer ();

  0006a	e8 00 00 00 00	 call	 ?blit_front_buffer_to_render_buffer@@YGXXZ ; blit_front_buffer_to_render_buffer

; 95   : 	
; 96   : 		leave_mission ();

  0006f	e8 00 00 00 00	 call	 ?leave_mission@@YGXXZ	; leave_mission

; 97   : 	
; 98   : 		ui_set_user_function (NULL);

  00074	6a 00		 push	 0
  00076	e8 00 00 00 00	 call	 ?ui_set_user_function@@YGXP6GXXZ@Z ; ui_set_user_function

; 99   : 	
; 100  : 		reset_time_values ( main_screen );

  0007b	a1 00 00 00 00	 mov	 eax, DWORD PTR ?main_screen@@3PAUUI_OBJECT@@A ; main_screen
  00080	50		 push	 eax
  00081	e8 00 00 00 00	 call	 ?reset_time_values@@YGXPAUUI_OBJECT@@@Z ; reset_time_values

; 101  : 	}
; 102  : 	else

  00086	eb 1e		 jmp	 SHORT $LN1@notify_mai
$LN2@notify_mai:

; 103  : 	{
; 104  : 
; 105  : 		if ( main_screen_texture )

  00088	83 3d 00 00 00
	00 00		 cmp	 DWORD PTR ?main_screen_texture@@3PAUTEXTURE_GRAPHIC@@A, 0 ; main_screen_texture
  0008f	74 15		 je	 SHORT $LN1@notify_mai

; 106  : 		{
; 107  : 	
; 108  : 			destroy_texture_graphic ( main_screen_texture );

  00091	a1 00 00 00 00	 mov	 eax, DWORD PTR ?main_screen_texture@@3PAUTEXTURE_GRAPHIC@@A ; main_screen_texture
  00096	50		 push	 eax
  00097	e8 00 00 00 00	 call	 ?destroy_texture_graphic@@YGXPAUTEXTURE_GRAPHIC@@@Z ; destroy_texture_graphic

; 109  : 
; 110  : 			main_screen_texture = NULL;

  0009c	c7 05 00 00 00
	00 00 00 00 00	 mov	 DWORD PTR ?main_screen_texture@@3PAUTEXTURE_GRAPHIC@@A, 0 ; main_screen_texture
$LN1@notify_mai:

; 111  : 		}
; 112  : 	}
; 113  : 
; 114  : 	#if DEMO_VERSION
; 115  : 	
; 116  : 		set_ui_object_highlightable (pilots_button, FALSE);
; 117  : 
; 118  : 		set_ui_object_font_colour_end (pilots_button, ui_option_text_default_colour.r, ui_option_text_default_colour.g, ui_option_text_default_colour.b, 127);
; 119  : 
; 120  : 		set_ui_object_notify_on (pilots_button, NOTIFY_TYPE_NONE);
; 121  : 	
; 122  : 		set_ui_object_drawable (ghost_pilots_button, TRUE);
; 123  : 
; 124  : 		set_ui_object_highlightable (credits_button, FALSE);
; 125  : 
; 126  : 		set_ui_object_font_colour_end (credits_button, ui_option_text_default_colour.r, ui_option_text_default_colour.g, ui_option_text_default_colour.b, 127);
; 127  : 
; 128  : 		set_ui_object_drawable (ghost_credits_button, TRUE);
; 129  : 
; 130  : 		set_ui_object_notify_on (credits_button, NOTIFY_TYPE_NONE);
; 131  : 	
; 132  : 	#endif
; 133  : }

  000a6	5f		 pop	 edi
  000a7	5e		 pop	 esi
  000a8	5b		 pop	 ebx
  000a9	8b e5		 mov	 esp, ebp
  000ab	5d		 pop	 ebp
  000ac	c2 08 00	 ret	 8
?notify_main_screen@@YGXPAUUI_OBJECT@@PAX@Z ENDP	; notify_main_screen
_TEXT	ENDS
END
