; Listing generated by Microsoft (R) Optimizing Compiler Version 19.16.27045.0 

	TITLE	C:\Users\nhv90\Projects\eech\aphavoc\source\entity\mobile\mb_att.c
	.686P
	.XMM
	include listing.inc
	.model	flat

INCLUDELIB MSVCRTD
INCLUDELIB OLDNAMES

PUBLIC	_asinf
PUBLIC	_atan2f
PUBLIC	?asin@@YGMM@Z					; asin
PUBLIC	?atan2@@YGMMM@Z					; atan2
PUBLIC	?overload_mobile_attitude_functions@@YGXW4ENTITY_TYPES@@@Z ; overload_mobile_attitude_functions
PUBLIC	?__LINE__Var@?0??set_local_attitude_matrix@@YGXPAUENTITY@@QAY02M@Z@4JA ; `set_local_attitude_matrix'::`1'::__LINE__Var
PUBLIC	??_C@_0ED@JECPLNHD@c?3?2users?2nhv90?2projects?2eech?2ap@ ; `string'
PUBLIC	??_C@_08EKMPKBMJ@attitude@			; `string'
PUBLIC	?__LINE__Var@?0??set_remote_attitude_matrix@@YGXPAUENTITY@@QAY02M@Z@4JA ; `set_remote_attitude_matrix'::`1'::__LINE__Var
PUBLIC	?__LINE__Var@?0??set_server_attitude_matrix@@YGXPAUENTITY@@QAY02M@Z@4JA ; `set_server_attitude_matrix'::`1'::__LINE__Var
PUBLIC	??_C@_0CB@CFOCLFOK@assert_client_server_local_fn?5?$CI@ ; `string'
PUBLIC	??_C@_0CC@BNNNEGEG@assert_client_server_remote_fn?5@ ; `string'
PUBLIC	?__LINE__Var@?0??set_client_attitude_matrix@@YGXPAUENTITY@@QAY02M@Z@4JA ; `set_client_attitude_matrix'::`1'::__LINE__Var
PUBLIC	?__LINE__Var@?0??get_local_attitude_matrix@@YGXPAUENTITY@@QAY02M@Z@4JA ; `get_local_attitude_matrix'::`1'::__LINE__Var
PUBLIC	?__LINE__Var@?0??set_server_attitude_angles@@YGXPAUENTITY@@MMM@Z@4JA ; `set_server_attitude_angles'::`1'::__LINE__Var
PUBLIC	?__LINE__Var@?0??set_client_attitude_angles@@YGXPAUENTITY@@MMM@Z@4JA ; `set_client_attitude_angles'::`1'::__LINE__Var
PUBLIC	?__LINE__Var@?0??get_local_attitude_angles@@YGXPAUENTITY@@PAM11@Z@4JA ; `get_local_attitude_angles'::`1'::__LINE__Var
PUBLIC	??_C@_07MBJMFGGL@heading@			; `string'
PUBLIC	??_C@_05NCNFOFLM@pitch@				; `string'
PUBLIC	??_C@_04FBAPEKPH@roll@				; `string'
PUBLIC	?__LINE__Var@?0??get_local_float_value@@YGMPAUENTITY@@W4FLOAT_TYPES@@@Z@4JA ; `get_local_float_value'::`1'::__LINE__Var
PUBLIC	__xmm@80000000800000008000000080000000
EXTRN	_memcpy:PROC
EXTRN	_asin:PROC
EXTRN	_atan2:PROC
EXTRN	?process_assert@@YGXPBD0H@Z:PROC		; process_assert
EXTRN	?debug_fatal@@YAXPBDZZ:PROC			; debug_fatal
EXTRN	?get_3d_transformation_matrix@@YGXQAY02MMMM@Z:PROC ; get_3d_transformation_matrix
EXTRN	?transmit_entity_comms_message@@YAXW4ENTITY_COMMS_MESSAGES@@PAUENTITY@@ZZ:PROC ; transmit_entity_comms_message
EXTRN	?assert_client_server_local_fn@@YGHXZ:PROC	; assert_client_server_local_fn
EXTRN	?assert_client_server_remote_fn@@YGHXZ:PROC	; assert_client_server_remote_fn
EXTRN	?null_entity_pointer_message@@3PBDB:DWORD	; null_entity_pointer_message
EXTRN	?entity_type_database@@3PAUENTITY_TYPE_DATA@@A:BYTE ; entity_type_database
EXTRN	?system_comms_data_flow@@3W4COMMS_DATA_FLOW_TYPES@@A:DWORD ; system_comms_data_flow
EXTRN	?fn_set_local_entity_raw_attitude_matrix@@3PAP6GXPAUENTITY@@QAY02M@ZA:BYTE ; fn_set_local_entity_raw_attitude_matrix
EXTRN	?fn_set_local_entity_attitude_matrix@@3PAP6GXPAUENTITY@@QAY02M@ZA:BYTE ; fn_set_local_entity_attitude_matrix
EXTRN	?fn_set_client_server_entity_attitude_matrix@@3PAY01P6GXPAUENTITY@@QAY02M@ZA:BYTE ; fn_set_client_server_entity_attitude_matrix
EXTRN	?fn_get_local_entity_attitude_matrix@@3PAP6GXPAUENTITY@@QAY02M@ZA:BYTE ; fn_get_local_entity_attitude_matrix
EXTRN	?fn_get_local_entity_attitude_matrix_ptr@@3PAP6GPAY122MPAUENTITY@@@ZA:BYTE ; fn_get_local_entity_attitude_matrix_ptr
EXTRN	?fn_set_local_entity_raw_attitude_angles@@3PAP6GXPAUENTITY@@MMM@ZA:BYTE ; fn_set_local_entity_raw_attitude_angles
EXTRN	?fn_set_local_entity_attitude_angles@@3PAP6GXPAUENTITY@@MMM@ZA:BYTE ; fn_set_local_entity_attitude_angles
EXTRN	?fn_set_client_server_entity_attitude_angles@@3PAY01P6GXPAUENTITY@@MMM@ZA:BYTE ; fn_set_client_server_entity_attitude_angles
EXTRN	?fn_get_local_entity_attitude_angles@@3PAP6GXPAUENTITY@@PAM11@ZA:BYTE ; fn_get_local_entity_attitude_angles
EXTRN	?float_type_database@@3PAUFLOAT_TYPE_DATA@@A:BYTE ; float_type_database
EXTRN	?debug_fatal_invalid_float_type_message@@3PBDB:DWORD ; debug_fatal_invalid_float_type_message
EXTRN	?fn_get_local_entity_float_value@@3PAY0KP@P6GMPAUENTITY@@W4FLOAT_TYPES@@@ZA:BYTE ; fn_get_local_entity_float_value
EXTRN	?entities@@3PAUENTITY@@A:DWORD			; entities
EXTRN	__fltused:DWORD
;	COMDAT __xmm@80000000800000008000000080000000
CONST	SEGMENT
__xmm@80000000800000008000000080000000 DB 00H, 00H, 00H, 080H, 00H, 00H, 00H
	DB	080H, 00H, 00H, 00H, 080H, 00H, 00H, 00H, 080H
CONST	ENDS
;	COMDAT ?__LINE__Var@?0??get_local_float_value@@YGMPAUENTITY@@W4FLOAT_TYPES@@@Z@4JA
_DATA	SEGMENT
?__LINE__Var@?0??get_local_float_value@@YGMPAUENTITY@@W4FLOAT_TYPES@@@Z@4JA DD 011aH ; `get_local_float_value'::`1'::__LINE__Var
_DATA	ENDS
;	COMDAT ??_C@_04FBAPEKPH@roll@
CONST	SEGMENT
??_C@_04FBAPEKPH@roll@ DB 'roll', 00H			; `string'
CONST	ENDS
;	COMDAT ??_C@_05NCNFOFLM@pitch@
CONST	SEGMENT
??_C@_05NCNFOFLM@pitch@ DB 'pitch', 00H			; `string'
CONST	ENDS
;	COMDAT ??_C@_07MBJMFGGL@heading@
CONST	SEGMENT
??_C@_07MBJMFGGL@heading@ DB 'heading', 00H		; `string'
CONST	ENDS
;	COMDAT ?__LINE__Var@?0??get_local_attitude_angles@@YGXPAUENTITY@@PAM11@Z@4JA
_DATA	SEGMENT
?__LINE__Var@?0??get_local_attitude_angles@@YGXPAUENTITY@@PAM11@Z@4JA DD 0102H ; `get_local_attitude_angles'::`1'::__LINE__Var
_DATA	ENDS
;	COMDAT ?__LINE__Var@?0??set_client_attitude_angles@@YGXPAUENTITY@@MMM@Z@4JA
_DATA	SEGMENT
?__LINE__Var@?0??set_client_attitude_angles@@YGXPAUENTITY@@MMM@Z@4JA DD 0eeH ; `set_client_attitude_angles'::`1'::__LINE__Var
_DATA	ENDS
;	COMDAT ?__LINE__Var@?0??set_server_attitude_angles@@YGXPAUENTITY@@MMM@Z@4JA
_DATA	SEGMENT
?__LINE__Var@?0??set_server_attitude_angles@@YGXPAUENTITY@@MMM@Z@4JA DD 0dfH ; `set_server_attitude_angles'::`1'::__LINE__Var
_DATA	ENDS
;	COMDAT ?__LINE__Var@?0??get_local_attitude_matrix@@YGXPAUENTITY@@QAY02M@Z@4JA
_DATA	SEGMENT
?__LINE__Var@?0??get_local_attitude_matrix@@YGXPAUENTITY@@QAY02M@Z@4JA DD 09eH ; `get_local_attitude_matrix'::`1'::__LINE__Var
_DATA	ENDS
;	COMDAT ?__LINE__Var@?0??set_client_attitude_matrix@@YGXPAUENTITY@@QAY02M@Z@4JA
_DATA	SEGMENT
?__LINE__Var@?0??set_client_attitude_matrix@@YGXPAUENTITY@@QAY02M@Z@4JA DD 088H ; `set_client_attitude_matrix'::`1'::__LINE__Var
_DATA	ENDS
;	COMDAT ??_C@_0CC@BNNNEGEG@assert_client_server_remote_fn?5@
CONST	SEGMENT
??_C@_0CC@BNNNEGEG@assert_client_server_remote_fn?5@ DB 'assert_client_se'
	DB	'rver_remote_fn ()', 00H			; `string'
CONST	ENDS
;	COMDAT ??_C@_0CB@CFOCLFOK@assert_client_server_local_fn?5?$CI@
CONST	SEGMENT
??_C@_0CB@CFOCLFOK@assert_client_server_local_fn?5?$CI@ DB 'assert_client'
	DB	'_server_local_fn ()', 00H			; `string'
CONST	ENDS
;	COMDAT ?__LINE__Var@?0??set_server_attitude_matrix@@YGXPAUENTITY@@QAY02M@Z@4JA
_DATA	SEGMENT
?__LINE__Var@?0??set_server_attitude_matrix@@YGXPAUENTITY@@QAY02M@Z@4JA DD 077H ; `set_server_attitude_matrix'::`1'::__LINE__Var
_DATA	ENDS
;	COMDAT ?__LINE__Var@?0??set_remote_attitude_matrix@@YGXPAUENTITY@@QAY02M@Z@4JA
_DATA	SEGMENT
?__LINE__Var@?0??set_remote_attitude_matrix@@YGXPAUENTITY@@QAY02M@Z@4JA DD 066H ; `set_remote_attitude_matrix'::`1'::__LINE__Var
_DATA	ENDS
;	COMDAT ??_C@_08EKMPKBMJ@attitude@
CONST	SEGMENT
??_C@_08EKMPKBMJ@attitude@ DB 'attitude', 00H		; `string'
CONST	ENDS
;	COMDAT ??_C@_0ED@JECPLNHD@c?3?2users?2nhv90?2projects?2eech?2ap@
CONST	SEGMENT
??_C@_0ED@JECPLNHD@c?3?2users?2nhv90?2projects?2eech?2ap@ DB 'c:\users\nh'
	DB	'v90\projects\eech\aphavoc\source\entity\mobile\mb_att.c', 00H ; `string'
CONST	ENDS
;	COMDAT ?__LINE__Var@?0??set_local_attitude_matrix@@YGXPAUENTITY@@QAY02M@Z@4JA
_DATA	SEGMENT
?__LINE__Var@?0??set_local_attitude_matrix@@YGXPAUENTITY@@QAY02M@Z@4JA DD 050H ; `set_local_attitude_matrix'::`1'::__LINE__Var
_DATA	ENDS
; Function compile flags: /Odtp /ZI
; File c:\users\nhv90\projects\eech\aphavoc\source\entity\mobile\mb_att.c
;	COMDAT ?get_local_float_value@@YGMPAUENTITY@@W4FLOAT_TYPES@@@Z
_TEXT	SEGMENT
tv148 = -76						; size = 4
tv65 = -76						; size = 4
_value$ = -8						; size = 4
_raw$ = -4						; size = 4
_en$ = 8						; size = 4
_type$ = 12						; size = 4
?get_local_float_value@@YGMPAUENTITY@@W4FLOAT_TYPES@@@Z PROC ; get_local_float_value, COMDAT

; 282  : {

  00000	55		 push	 ebp
  00001	8b ec		 mov	 ebp, esp
  00003	83 ec 4c	 sub	 esp, 76			; 0000004cH
  00006	53		 push	 ebx
  00007	56		 push	 esi
  00008	57		 push	 edi

; 283  : 	mobile
; 284  : 		*raw;
; 285  : 
; 286  : 	float
; 287  : 		value;
; 288  : 
; 289  : 	raw = (mobile *) get_local_entity_data (en);

  00009	8b 45 08	 mov	 eax, DWORD PTR _en$[ebp]
  0000c	8b 48 04	 mov	 ecx, DWORD PTR [eax+4]
  0000f	89 4d fc	 mov	 DWORD PTR _raw$[ebp], ecx

; 290  : 
; 291  : 	switch (type)

  00012	8b 45 0c	 mov	 eax, DWORD PTR _type$[ebp]
  00015	89 45 b4	 mov	 DWORD PTR tv65[ebp], eax
  00018	83 7d b4 34	 cmp	 DWORD PTR tv65[ebp], 52	; 00000034H
  0001c	74 15		 je	 SHORT $LN4@get_local_
  0001e	83 7d b4 54	 cmp	 DWORD PTR tv65[ebp], 84	; 00000054H
  00022	74 5d		 je	 SHORT $LN5@get_local_
  00024	83 7d b4 71	 cmp	 DWORD PTR tv65[ebp], 113 ; 00000071H
  00028	0f 84 81 00 00
	00		 je	 $LN6@get_local_
  0002e	e9 d1 00 00 00	 jmp	 $LN7@get_local_
$LN4@get_local_:

; 292  : 	{
; 293  : 		////////////////////////////////////////
; 294  : 		case FLOAT_TYPE_HEADING:
; 295  : 		////////////////////////////////////////
; 296  : 		{
; 297  : 			value = get_heading_from_attitude_matrix (raw->attitude);

  00033	b8 0c 00 00 00	 mov	 eax, 12			; 0000000cH
  00038	d1 e0		 shl	 eax, 1
  0003a	8b 4d fc	 mov	 ecx, DWORD PTR _raw$[ebp]
  0003d	8d 54 01 10	 lea	 edx, DWORD PTR [ecx+eax+16]
  00041	b8 04 00 00 00	 mov	 eax, 4
  00046	d1 e0		 shl	 eax, 1
  00048	51		 push	 ecx
  00049	f3 0f 10 04 02	 movss	 xmm0, DWORD PTR [edx+eax]
  0004e	f3 0f 11 04 24	 movss	 DWORD PTR [esp], xmm0
  00053	b9 0c 00 00 00	 mov	 ecx, 12			; 0000000cH
  00058	d1 e1		 shl	 ecx, 1
  0005a	8b 55 fc	 mov	 edx, DWORD PTR _raw$[ebp]
  0005d	8d 44 0a 10	 lea	 eax, DWORD PTR [edx+ecx+16]
  00061	b9 04 00 00 00	 mov	 ecx, 4
  00066	6b d1 00	 imul	 edx, ecx, 0
  00069	51		 push	 ecx
  0006a	f3 0f 10 04 10	 movss	 xmm0, DWORD PTR [eax+edx]
  0006f	f3 0f 11 04 24	 movss	 DWORD PTR [esp], xmm0
  00074	e8 00 00 00 00	 call	 ?atan2@@YGMMM@Z		; atan2
  00079	d9 5d f8	 fstp	 DWORD PTR _value$[ebp]

; 298  : 
; 299  : 			break;

  0007c	e9 f5 00 00 00	 jmp	 $LN2@get_local_
$LN5@get_local_:

; 300  : 		}
; 301  : 		////////////////////////////////////////
; 302  : 		case FLOAT_TYPE_PITCH:
; 303  : 		////////////////////////////////////////
; 304  : 		{
; 305  : 			value = get_pitch_from_attitude_matrix (raw->attitude);

  00081	b8 0c 00 00 00	 mov	 eax, 12			; 0000000cH
  00086	d1 e0		 shl	 eax, 1
  00088	8b 4d fc	 mov	 ecx, DWORD PTR _raw$[ebp]
  0008b	8d 54 01 10	 lea	 edx, DWORD PTR [ecx+eax+16]
  0008f	b8 04 00 00 00	 mov	 eax, 4
  00094	c1 e0 00	 shl	 eax, 0
  00097	51		 push	 ecx
  00098	f3 0f 10 04 02	 movss	 xmm0, DWORD PTR [edx+eax]
  0009d	f3 0f 11 04 24	 movss	 DWORD PTR [esp], xmm0
  000a2	e8 00 00 00 00	 call	 ?asin@@YGMM@Z		; asin
  000a7	d9 5d f8	 fstp	 DWORD PTR _value$[ebp]

; 306  : 
; 307  : 			break;

  000aa	e9 c7 00 00 00	 jmp	 $LN2@get_local_
$LN6@get_local_:

; 308  : 		}
; 309  : 		////////////////////////////////////////
; 310  : 		case FLOAT_TYPE_ROLL:
; 311  : 		////////////////////////////////////////
; 312  : 		{
; 313  : 			value = get_roll_from_attitude_matrix (raw->attitude);

  000af	b8 0c 00 00 00	 mov	 eax, 12			; 0000000cH
  000b4	c1 e0 00	 shl	 eax, 0
  000b7	8b 4d fc	 mov	 ecx, DWORD PTR _raw$[ebp]
  000ba	8d 54 01 10	 lea	 edx, DWORD PTR [ecx+eax+16]
  000be	b8 04 00 00 00	 mov	 eax, 4
  000c3	c1 e0 00	 shl	 eax, 0
  000c6	51		 push	 ecx
  000c7	f3 0f 10 04 02	 movss	 xmm0, DWORD PTR [edx+eax]
  000cc	f3 0f 11 04 24	 movss	 DWORD PTR [esp], xmm0
  000d1	b9 0c 00 00 00	 mov	 ecx, 12			; 0000000cH
  000d6	6b d1 00	 imul	 edx, ecx, 0
  000d9	8b 45 fc	 mov	 eax, DWORD PTR _raw$[ebp]
  000dc	8d 4c 10 10	 lea	 ecx, DWORD PTR [eax+edx+16]
  000e0	ba 04 00 00 00	 mov	 edx, 4
  000e5	c1 e2 00	 shl	 edx, 0
  000e8	f3 0f 10 04 11	 movss	 xmm0, DWORD PTR [ecx+edx]
  000ed	0f 57 05 00 00
	00 00		 xorps	 xmm0, DWORD PTR __xmm@80000000800000008000000080000000
  000f4	51		 push	 ecx
  000f5	f3 0f 11 04 24	 movss	 DWORD PTR [esp], xmm0
  000fa	e8 00 00 00 00	 call	 ?atan2@@YGMMM@Z		; atan2
  000ff	d9 5d f8	 fstp	 DWORD PTR _value$[ebp]

; 314  : 
; 315  : 			break;

  00102	eb 72		 jmp	 SHORT $LN2@get_local_
$LN7@get_local_:

; 316  : 		}
; 317  : 		////////////////////////////////////////
; 318  : 		default:
; 319  : 		////////////////////////////////////////
; 320  : 		{
; 321  : 			debug_fatal_invalid_float_type (en, type);

  00104	83 7d 08 00	 cmp	 DWORD PTR _en$[ebp], 0
  00108	74 0a		 je	 SHORT $LN9@get_local_
  0010a	8b 45 08	 mov	 eax, DWORD PTR _en$[ebp]
  0010d	8b 08		 mov	 ecx, DWORD PTR [eax]
  0010f	89 4d b4	 mov	 DWORD PTR tv148[ebp], ecx
  00112	eb 21		 jmp	 SHORT $LN10@get_local_
$LN9@get_local_:
  00114	8b 15 00 00 00
	00		 mov	 edx, DWORD PTR ?__LINE__Var@?0??get_local_float_value@@YGMPAUENTITY@@W4FLOAT_TYPES@@@Z@4JA
  0011a	83 c2 27	 add	 edx, 39			; 00000027H
  0011d	52		 push	 edx
  0011e	68 00 00 00 00	 push	 OFFSET ??_C@_0ED@JECPLNHD@c?3?2users?2nhv90?2projects?2eech?2ap@
  00123	a1 00 00 00 00	 mov	 eax, DWORD PTR ?null_entity_pointer_message@@3PBDB ; null_entity_pointer_message
  00128	50		 push	 eax
  00129	e8 00 00 00 00	 call	 ?process_assert@@YGXPBD0H@Z ; process_assert
  0012e	c7 45 b4 00 00
	00 00		 mov	 DWORD PTR tv148[ebp], 0
$LN10@get_local_:
  00135	8b 0d 00 00 00
	00		 mov	 ecx, DWORD PTR ?__LINE__Var@?0??get_local_float_value@@YGMPAUENTITY@@W4FLOAT_TYPES@@@Z@4JA
  0013b	83 c1 27	 add	 ecx, 39			; 00000027H
  0013e	51		 push	 ecx
  0013f	68 00 00 00 00	 push	 OFFSET ??_C@_0ED@JECPLNHD@c?3?2users?2nhv90?2projects?2eech?2ap@
  00144	6b 55 0c 18	 imul	 edx, DWORD PTR _type$[ebp], 24
  00148	8b 82 00 00 00
	00		 mov	 eax, DWORD PTR ?float_type_database@@3PAUFLOAT_TYPE_DATA@@A[edx]
  0014e	50		 push	 eax
  0014f	8b 4d 08	 mov	 ecx, DWORD PTR _en$[ebp]
  00152	2b 0d 00 00 00
	00		 sub	 ecx, DWORD PTR ?entities@@3PAUENTITY@@A ; entities
  00158	c1 f9 04	 sar	 ecx, 4
  0015b	51		 push	 ecx
  0015c	6b 55 b4 0c	 imul	 edx, DWORD PTR tv148[ebp], 12
  00160	8b 82 00 00 00
	00		 mov	 eax, DWORD PTR ?entity_type_database@@3PAUENTITY_TYPE_DATA@@A[edx]
  00166	50		 push	 eax
  00167	8b 0d 00 00 00
	00		 mov	 ecx, DWORD PTR ?debug_fatal_invalid_float_type_message@@3PBDB ; debug_fatal_invalid_float_type_message
  0016d	51		 push	 ecx
  0016e	e8 00 00 00 00	 call	 ?debug_fatal@@YAXPBDZZ	; debug_fatal
  00173	83 c4 18	 add	 esp, 24			; 00000018H
$LN2@get_local_:

; 322  : 
; 323  : 			break;
; 324  : 		}
; 325  : 	}
; 326  : 
; 327  : 	return (value);

  00176	d9 45 f8	 fld	 DWORD PTR _value$[ebp]

; 328  : }

  00179	5f		 pop	 edi
  0017a	5e		 pop	 esi
  0017b	5b		 pop	 ebx
  0017c	8b e5		 mov	 esp, ebp
  0017e	5d		 pop	 ebp
  0017f	c2 08 00	 ret	 8
?get_local_float_value@@YGMPAUENTITY@@W4FLOAT_TYPES@@@Z ENDP ; get_local_float_value
_TEXT	ENDS
; Function compile flags: /Odtp /ZI
; File c:\users\nhv90\projects\eech\aphavoc\source\entity\mobile\mb_att.c
;	COMDAT ?get_local_attitude_angles@@YGXPAUENTITY@@PAM11@Z
_TEXT	SEGMENT
_raw$ = -4						; size = 4
_en$ = 8						; size = 4
_heading$ = 12						; size = 4
_pitch$ = 16						; size = 4
_roll$ = 20						; size = 4
?get_local_attitude_angles@@YGXPAUENTITY@@PAM11@Z PROC	; get_local_attitude_angles, COMDAT

; 258  : {

  00000	55		 push	 ebp
  00001	8b ec		 mov	 ebp, esp
  00003	83 ec 44	 sub	 esp, 68			; 00000044H
  00006	53		 push	 ebx
  00007	56		 push	 esi
  00008	57		 push	 edi

; 259  : 	mobile
; 260  : 		*raw;
; 261  : 
; 262  : 	ASSERT (heading);

  00009	83 7d 0c 00	 cmp	 DWORD PTR _heading$[ebp], 0
  0000d	75 18		 jne	 SHORT $LN2@get_local_
  0000f	a1 00 00 00 00	 mov	 eax, DWORD PTR ?__LINE__Var@?0??get_local_attitude_angles@@YGXPAUENTITY@@PAM11@Z@4JA
  00014	83 c0 04	 add	 eax, 4
  00017	50		 push	 eax
  00018	68 00 00 00 00	 push	 OFFSET ??_C@_0ED@JECPLNHD@c?3?2users?2nhv90?2projects?2eech?2ap@
  0001d	68 00 00 00 00	 push	 OFFSET ??_C@_07MBJMFGGL@heading@
  00022	e8 00 00 00 00	 call	 ?process_assert@@YGXPBD0H@Z ; process_assert
$LN2@get_local_:

; 263  : 
; 264  : 	ASSERT (pitch);

  00027	83 7d 10 00	 cmp	 DWORD PTR _pitch$[ebp], 0
  0002b	75 18		 jne	 SHORT $LN3@get_local_
  0002d	a1 00 00 00 00	 mov	 eax, DWORD PTR ?__LINE__Var@?0??get_local_attitude_angles@@YGXPAUENTITY@@PAM11@Z@4JA
  00032	83 c0 06	 add	 eax, 6
  00035	50		 push	 eax
  00036	68 00 00 00 00	 push	 OFFSET ??_C@_0ED@JECPLNHD@c?3?2users?2nhv90?2projects?2eech?2ap@
  0003b	68 00 00 00 00	 push	 OFFSET ??_C@_05NCNFOFLM@pitch@
  00040	e8 00 00 00 00	 call	 ?process_assert@@YGXPBD0H@Z ; process_assert
$LN3@get_local_:

; 265  : 
; 266  : 	ASSERT (roll);

  00045	83 7d 14 00	 cmp	 DWORD PTR _roll$[ebp], 0
  00049	75 18		 jne	 SHORT $LN4@get_local_
  0004b	a1 00 00 00 00	 mov	 eax, DWORD PTR ?__LINE__Var@?0??get_local_attitude_angles@@YGXPAUENTITY@@PAM11@Z@4JA
  00050	83 c0 08	 add	 eax, 8
  00053	50		 push	 eax
  00054	68 00 00 00 00	 push	 OFFSET ??_C@_0ED@JECPLNHD@c?3?2users?2nhv90?2projects?2eech?2ap@
  00059	68 00 00 00 00	 push	 OFFSET ??_C@_04FBAPEKPH@roll@
  0005e	e8 00 00 00 00	 call	 ?process_assert@@YGXPBD0H@Z ; process_assert
$LN4@get_local_:

; 267  : 
; 268  : 	raw = (mobile *) get_local_entity_data (en);

  00063	8b 45 08	 mov	 eax, DWORD PTR _en$[ebp]
  00066	8b 48 04	 mov	 ecx, DWORD PTR [eax+4]
  00069	89 4d fc	 mov	 DWORD PTR _raw$[ebp], ecx

; 269  : 
; 270  : 	*heading = get_heading_from_attitude_matrix (raw->attitude);

  0006c	b8 0c 00 00 00	 mov	 eax, 12			; 0000000cH
  00071	d1 e0		 shl	 eax, 1
  00073	8b 4d fc	 mov	 ecx, DWORD PTR _raw$[ebp]
  00076	8d 54 01 10	 lea	 edx, DWORD PTR [ecx+eax+16]
  0007a	b8 04 00 00 00	 mov	 eax, 4
  0007f	d1 e0		 shl	 eax, 1
  00081	51		 push	 ecx
  00082	f3 0f 10 04 02	 movss	 xmm0, DWORD PTR [edx+eax]
  00087	f3 0f 11 04 24	 movss	 DWORD PTR [esp], xmm0
  0008c	b9 0c 00 00 00	 mov	 ecx, 12			; 0000000cH
  00091	d1 e1		 shl	 ecx, 1
  00093	8b 55 fc	 mov	 edx, DWORD PTR _raw$[ebp]
  00096	8d 44 0a 10	 lea	 eax, DWORD PTR [edx+ecx+16]
  0009a	b9 04 00 00 00	 mov	 ecx, 4
  0009f	6b d1 00	 imul	 edx, ecx, 0
  000a2	51		 push	 ecx
  000a3	f3 0f 10 04 10	 movss	 xmm0, DWORD PTR [eax+edx]
  000a8	f3 0f 11 04 24	 movss	 DWORD PTR [esp], xmm0
  000ad	e8 00 00 00 00	 call	 ?atan2@@YGMMM@Z		; atan2
  000b2	8b 45 0c	 mov	 eax, DWORD PTR _heading$[ebp]
  000b5	d9 18		 fstp	 DWORD PTR [eax]

; 271  : 
; 272  : 	*pitch = get_pitch_from_attitude_matrix (raw->attitude);

  000b7	b8 0c 00 00 00	 mov	 eax, 12			; 0000000cH
  000bc	d1 e0		 shl	 eax, 1
  000be	8b 4d fc	 mov	 ecx, DWORD PTR _raw$[ebp]
  000c1	8d 54 01 10	 lea	 edx, DWORD PTR [ecx+eax+16]
  000c5	b8 04 00 00 00	 mov	 eax, 4
  000ca	c1 e0 00	 shl	 eax, 0
  000cd	51		 push	 ecx
  000ce	f3 0f 10 04 02	 movss	 xmm0, DWORD PTR [edx+eax]
  000d3	f3 0f 11 04 24	 movss	 DWORD PTR [esp], xmm0
  000d8	e8 00 00 00 00	 call	 ?asin@@YGMM@Z		; asin
  000dd	8b 4d 10	 mov	 ecx, DWORD PTR _pitch$[ebp]
  000e0	d9 19		 fstp	 DWORD PTR [ecx]

; 273  : 
; 274  : 	*roll = get_roll_from_attitude_matrix (raw->attitude);

  000e2	b8 0c 00 00 00	 mov	 eax, 12			; 0000000cH
  000e7	c1 e0 00	 shl	 eax, 0
  000ea	8b 4d fc	 mov	 ecx, DWORD PTR _raw$[ebp]
  000ed	8d 54 01 10	 lea	 edx, DWORD PTR [ecx+eax+16]
  000f1	b8 04 00 00 00	 mov	 eax, 4
  000f6	c1 e0 00	 shl	 eax, 0
  000f9	51		 push	 ecx
  000fa	f3 0f 10 04 02	 movss	 xmm0, DWORD PTR [edx+eax]
  000ff	f3 0f 11 04 24	 movss	 DWORD PTR [esp], xmm0
  00104	b9 0c 00 00 00	 mov	 ecx, 12			; 0000000cH
  00109	6b d1 00	 imul	 edx, ecx, 0
  0010c	8b 45 fc	 mov	 eax, DWORD PTR _raw$[ebp]
  0010f	8d 4c 10 10	 lea	 ecx, DWORD PTR [eax+edx+16]
  00113	ba 04 00 00 00	 mov	 edx, 4
  00118	c1 e2 00	 shl	 edx, 0
  0011b	f3 0f 10 04 11	 movss	 xmm0, DWORD PTR [ecx+edx]
  00120	0f 57 05 00 00
	00 00		 xorps	 xmm0, DWORD PTR __xmm@80000000800000008000000080000000
  00127	51		 push	 ecx
  00128	f3 0f 11 04 24	 movss	 DWORD PTR [esp], xmm0
  0012d	e8 00 00 00 00	 call	 ?atan2@@YGMMM@Z		; atan2
  00132	8b 45 14	 mov	 eax, DWORD PTR _roll$[ebp]
  00135	d9 18		 fstp	 DWORD PTR [eax]

; 275  : }

  00137	5f		 pop	 edi
  00138	5e		 pop	 esi
  00139	5b		 pop	 ebx
  0013a	8b e5		 mov	 esp, ebp
  0013c	5d		 pop	 ebp
  0013d	c2 10 00	 ret	 16			; 00000010H
?get_local_attitude_angles@@YGXPAUENTITY@@PAM11@Z ENDP	; get_local_attitude_angles
_TEXT	ENDS
; Function compile flags: /Odtp /ZI
; File c:\users\nhv90\projects\eech\aphavoc\source\entity\mobile\mb_att.c
;	COMDAT ?set_client_attitude_angles@@YGXPAUENTITY@@MMM@Z
_TEXT	SEGMENT
_en$ = 8						; size = 4
_heading$ = 12						; size = 4
_pitch$ = 16						; size = 4
_roll$ = 20						; size = 4
?set_client_attitude_angles@@YGXPAUENTITY@@MMM@Z PROC	; set_client_attitude_angles, COMDAT

; 238  : {

  00000	55		 push	 ebp
  00001	8b ec		 mov	 ebp, esp
  00003	83 ec 40	 sub	 esp, 64			; 00000040H
  00006	53		 push	 ebx
  00007	56		 push	 esi
  00008	57		 push	 edi

; 239  : 	if (get_comms_data_flow () == COMMS_DATA_FLOW_TX)

  00009	83 3d 00 00 00
	00 00		 cmp	 DWORD PTR ?system_comms_data_flow@@3W4COMMS_DATA_FLOW_TYPES@@A, 0 ; system_comms_data_flow
  00010	75 4d		 jne	 SHORT $LN2@set_client

; 240  : 	{
; 241  : 		validate_client_server_remote_fn ();

  00012	e8 00 00 00 00	 call	 ?assert_client_server_remote_fn@@YGHXZ ; assert_client_server_remote_fn
  00017	85 c0		 test	 eax, eax
  00019	75 18		 jne	 SHORT $LN4@set_client
  0001b	a1 00 00 00 00	 mov	 eax, DWORD PTR ?__LINE__Var@?0??set_client_attitude_angles@@YGXPAUENTITY@@MMM@Z@4JA
  00020	83 c0 03	 add	 eax, 3
  00023	50		 push	 eax
  00024	68 00 00 00 00	 push	 OFFSET ??_C@_0ED@JECPLNHD@c?3?2users?2nhv90?2projects?2eech?2ap@
  00029	68 00 00 00 00	 push	 OFFSET ??_C@_0CC@BNNNEGEG@assert_client_server_remote_fn?5@
  0002e	e8 00 00 00 00	 call	 ?process_assert@@YGXPBD0H@Z ; process_assert
$LN4@set_client:

; 242  : 
; 243  : 		set_remote_attitude_angles (en, heading, pitch, roll);

  00033	51		 push	 ecx
  00034	f3 0f 10 45 14	 movss	 xmm0, DWORD PTR _roll$[ebp]
  00039	f3 0f 11 04 24	 movss	 DWORD PTR [esp], xmm0
  0003e	51		 push	 ecx
  0003f	f3 0f 10 45 10	 movss	 xmm0, DWORD PTR _pitch$[ebp]
  00044	f3 0f 11 04 24	 movss	 DWORD PTR [esp], xmm0
  00049	51		 push	 ecx
  0004a	f3 0f 10 45 0c	 movss	 xmm0, DWORD PTR _heading$[ebp]
  0004f	f3 0f 11 04 24	 movss	 DWORD PTR [esp], xmm0
  00054	8b 45 08	 mov	 eax, DWORD PTR _en$[ebp]
  00057	50		 push	 eax
  00058	e8 00 00 00 00	 call	 ?set_remote_attitude_angles@@YGXPAUENTITY@@MMM@Z ; set_remote_attitude_angles

; 244  : 	}
; 245  : 	else

  0005d	eb 4b		 jmp	 SHORT $LN3@set_client
$LN2@set_client:

; 246  : 	{
; 247  : 		validate_client_server_local_fn ();

  0005f	e8 00 00 00 00	 call	 ?assert_client_server_local_fn@@YGHXZ ; assert_client_server_local_fn
  00064	85 c0		 test	 eax, eax
  00066	75 18		 jne	 SHORT $LN5@set_client
  00068	a1 00 00 00 00	 mov	 eax, DWORD PTR ?__LINE__Var@?0??set_client_attitude_angles@@YGXPAUENTITY@@MMM@Z@4JA
  0006d	83 c0 09	 add	 eax, 9
  00070	50		 push	 eax
  00071	68 00 00 00 00	 push	 OFFSET ??_C@_0ED@JECPLNHD@c?3?2users?2nhv90?2projects?2eech?2ap@
  00076	68 00 00 00 00	 push	 OFFSET ??_C@_0CB@CFOCLFOK@assert_client_server_local_fn?5?$CI@
  0007b	e8 00 00 00 00	 call	 ?process_assert@@YGXPBD0H@Z ; process_assert
$LN5@set_client:

; 248  : 
; 249  : 		set_local_attitude_angles (en, heading, pitch, roll);

  00080	51		 push	 ecx
  00081	f3 0f 10 45 14	 movss	 xmm0, DWORD PTR _roll$[ebp]
  00086	f3 0f 11 04 24	 movss	 DWORD PTR [esp], xmm0
  0008b	51		 push	 ecx
  0008c	f3 0f 10 45 10	 movss	 xmm0, DWORD PTR _pitch$[ebp]
  00091	f3 0f 11 04 24	 movss	 DWORD PTR [esp], xmm0
  00096	51		 push	 ecx
  00097	f3 0f 10 45 0c	 movss	 xmm0, DWORD PTR _heading$[ebp]
  0009c	f3 0f 11 04 24	 movss	 DWORD PTR [esp], xmm0
  000a1	8b 45 08	 mov	 eax, DWORD PTR _en$[ebp]
  000a4	50		 push	 eax
  000a5	e8 00 00 00 00	 call	 ?set_local_attitude_angles@@YGXPAUENTITY@@MMM@Z ; set_local_attitude_angles
$LN3@set_client:

; 250  : 	}
; 251  : }

  000aa	5f		 pop	 edi
  000ab	5e		 pop	 esi
  000ac	5b		 pop	 ebx
  000ad	8b e5		 mov	 esp, ebp
  000af	5d		 pop	 ebp
  000b0	c2 10 00	 ret	 16			; 00000010H
?set_client_attitude_angles@@YGXPAUENTITY@@MMM@Z ENDP	; set_client_attitude_angles
_TEXT	ENDS
; Function compile flags: /Odtp /ZI
; File c:\users\nhv90\projects\eech\aphavoc\source\entity\mobile\mb_att.c
;	COMDAT ?set_server_attitude_angles@@YGXPAUENTITY@@MMM@Z
_TEXT	SEGMENT
_en$ = 8						; size = 4
_heading$ = 12						; size = 4
_pitch$ = 16						; size = 4
_roll$ = 20						; size = 4
?set_server_attitude_angles@@YGXPAUENTITY@@MMM@Z PROC	; set_server_attitude_angles, COMDAT

; 223  : {

  00000	55		 push	 ebp
  00001	8b ec		 mov	 ebp, esp
  00003	83 ec 40	 sub	 esp, 64			; 00000040H
  00006	53		 push	 ebx
  00007	56		 push	 esi
  00008	57		 push	 edi

; 224  : 	validate_client_server_local_fn ();

  00009	e8 00 00 00 00	 call	 ?assert_client_server_local_fn@@YGHXZ ; assert_client_server_local_fn
  0000e	85 c0		 test	 eax, eax
  00010	75 18		 jne	 SHORT $LN2@set_server
  00012	a1 00 00 00 00	 mov	 eax, DWORD PTR ?__LINE__Var@?0??set_server_attitude_angles@@YGXPAUENTITY@@MMM@Z@4JA
  00017	83 c0 01	 add	 eax, 1
  0001a	50		 push	 eax
  0001b	68 00 00 00 00	 push	 OFFSET ??_C@_0ED@JECPLNHD@c?3?2users?2nhv90?2projects?2eech?2ap@
  00020	68 00 00 00 00	 push	 OFFSET ??_C@_0CB@CFOCLFOK@assert_client_server_local_fn?5?$CI@
  00025	e8 00 00 00 00	 call	 ?process_assert@@YGXPBD0H@Z ; process_assert
$LN2@set_server:

; 225  : 
; 226  : 	set_local_attitude_angles (en, heading, pitch, roll);

  0002a	51		 push	 ecx
  0002b	f3 0f 10 45 14	 movss	 xmm0, DWORD PTR _roll$[ebp]
  00030	f3 0f 11 04 24	 movss	 DWORD PTR [esp], xmm0
  00035	51		 push	 ecx
  00036	f3 0f 10 45 10	 movss	 xmm0, DWORD PTR _pitch$[ebp]
  0003b	f3 0f 11 04 24	 movss	 DWORD PTR [esp], xmm0
  00040	51		 push	 ecx
  00041	f3 0f 10 45 0c	 movss	 xmm0, DWORD PTR _heading$[ebp]
  00046	f3 0f 11 04 24	 movss	 DWORD PTR [esp], xmm0
  0004b	8b 45 08	 mov	 eax, DWORD PTR _en$[ebp]
  0004e	50		 push	 eax
  0004f	e8 00 00 00 00	 call	 ?set_local_attitude_angles@@YGXPAUENTITY@@MMM@Z ; set_local_attitude_angles

; 227  : 
; 228  : 	validate_client_server_remote_fn ();

  00054	e8 00 00 00 00	 call	 ?assert_client_server_remote_fn@@YGHXZ ; assert_client_server_remote_fn
  00059	85 c0		 test	 eax, eax
  0005b	75 18		 jne	 SHORT $LN3@set_server
  0005d	a1 00 00 00 00	 mov	 eax, DWORD PTR ?__LINE__Var@?0??set_server_attitude_angles@@YGXPAUENTITY@@MMM@Z@4JA
  00062	83 c0 05	 add	 eax, 5
  00065	50		 push	 eax
  00066	68 00 00 00 00	 push	 OFFSET ??_C@_0ED@JECPLNHD@c?3?2users?2nhv90?2projects?2eech?2ap@
  0006b	68 00 00 00 00	 push	 OFFSET ??_C@_0CC@BNNNEGEG@assert_client_server_remote_fn?5@
  00070	e8 00 00 00 00	 call	 ?process_assert@@YGXPBD0H@Z ; process_assert
$LN3@set_server:

; 229  : 
; 230  : 	set_remote_attitude_angles (en, heading, pitch, roll);

  00075	51		 push	 ecx
  00076	f3 0f 10 45 14	 movss	 xmm0, DWORD PTR _roll$[ebp]
  0007b	f3 0f 11 04 24	 movss	 DWORD PTR [esp], xmm0
  00080	51		 push	 ecx
  00081	f3 0f 10 45 10	 movss	 xmm0, DWORD PTR _pitch$[ebp]
  00086	f3 0f 11 04 24	 movss	 DWORD PTR [esp], xmm0
  0008b	51		 push	 ecx
  0008c	f3 0f 10 45 0c	 movss	 xmm0, DWORD PTR _heading$[ebp]
  00091	f3 0f 11 04 24	 movss	 DWORD PTR [esp], xmm0
  00096	8b 45 08	 mov	 eax, DWORD PTR _en$[ebp]
  00099	50		 push	 eax
  0009a	e8 00 00 00 00	 call	 ?set_remote_attitude_angles@@YGXPAUENTITY@@MMM@Z ; set_remote_attitude_angles

; 231  : }

  0009f	5f		 pop	 edi
  000a0	5e		 pop	 esi
  000a1	5b		 pop	 ebx
  000a2	8b e5		 mov	 esp, ebp
  000a4	5d		 pop	 ebp
  000a5	c2 10 00	 ret	 16			; 00000010H
?set_server_attitude_angles@@YGXPAUENTITY@@MMM@Z ENDP	; set_server_attitude_angles
_TEXT	ENDS
; Function compile flags: /Odtp /ZI
; File c:\users\nhv90\projects\eech\aphavoc\source\entity\mobile\mb_att.c
;	COMDAT ?set_remote_attitude_angles@@YGXPAUENTITY@@MMM@Z
_TEXT	SEGMENT
_en$ = 8						; size = 4
_heading$ = 12						; size = 4
_pitch$ = 16						; size = 4
_roll$ = 20						; size = 4
?set_remote_attitude_angles@@YGXPAUENTITY@@MMM@Z PROC	; set_remote_attitude_angles, COMDAT

; 208  : {

  00000	55		 push	 ebp
  00001	8b ec		 mov	 ebp, esp
  00003	83 ec 40	 sub	 esp, 64			; 00000040H
  00006	53		 push	 ebx
  00007	56		 push	 esi
  00008	57		 push	 edi

; 209  : 	#if DEBUG_MODULE
; 210  : 
; 211  : 	debug_log_entity_args (ENTITY_DEBUG_REMOTE, ENTITY_DEBUG_ATTITUDE_ANGLES, en, heading, pitch, roll);
; 212  : 
; 213  : 	#endif
; 214  : 
; 215  : 	transmit_entity_comms_message (ENTITY_COMMS_ATTITUDE_ANGLES, en, heading, pitch, roll);

  00009	f3 0f 5a 45 14	 cvtss2sd xmm0, DWORD PTR _roll$[ebp]
  0000e	83 ec 08	 sub	 esp, 8
  00011	f2 0f 11 04 24	 movsd	 QWORD PTR [esp], xmm0
  00016	f3 0f 5a 45 10	 cvtss2sd xmm0, DWORD PTR _pitch$[ebp]
  0001b	83 ec 08	 sub	 esp, 8
  0001e	f2 0f 11 04 24	 movsd	 QWORD PTR [esp], xmm0
  00023	f3 0f 5a 45 0c	 cvtss2sd xmm0, DWORD PTR _heading$[ebp]
  00028	83 ec 08	 sub	 esp, 8
  0002b	f2 0f 11 04 24	 movsd	 QWORD PTR [esp], xmm0
  00030	8b 45 08	 mov	 eax, DWORD PTR _en$[ebp]
  00033	50		 push	 eax
  00034	6a 03		 push	 3
  00036	e8 00 00 00 00	 call	 ?transmit_entity_comms_message@@YAXW4ENTITY_COMMS_MESSAGES@@PAUENTITY@@ZZ ; transmit_entity_comms_message
  0003b	83 c4 20	 add	 esp, 32			; 00000020H

; 216  : }

  0003e	5f		 pop	 edi
  0003f	5e		 pop	 esi
  00040	5b		 pop	 ebx
  00041	8b e5		 mov	 esp, ebp
  00043	5d		 pop	 ebp
  00044	c2 10 00	 ret	 16			; 00000010H
?set_remote_attitude_angles@@YGXPAUENTITY@@MMM@Z ENDP	; set_remote_attitude_angles
_TEXT	ENDS
; Function compile flags: /Odtp /ZI
; File c:\users\nhv90\projects\eech\aphavoc\source\entity\mobile\mb_att.c
;	COMDAT ?set_local_attitude_angles@@YGXPAUENTITY@@MMM@Z
_TEXT	SEGMENT
_raw$ = -4						; size = 4
_en$ = 8						; size = 4
_heading$ = 12						; size = 4
_pitch$ = 16						; size = 4
_roll$ = 20						; size = 4
?set_local_attitude_angles@@YGXPAUENTITY@@MMM@Z PROC	; set_local_attitude_angles, COMDAT

; 188  : {

  00000	55		 push	 ebp
  00001	8b ec		 mov	 ebp, esp
  00003	83 ec 44	 sub	 esp, 68			; 00000044H
  00006	53		 push	 ebx
  00007	56		 push	 esi
  00008	57		 push	 edi

; 189  : 	mobile
; 190  : 		*raw;
; 191  : 
; 192  : 	#if DEBUG_MODULE
; 193  : 
; 194  : 	debug_log_entity_args (ENTITY_DEBUG_LOCAL, ENTITY_DEBUG_ATTITUDE_ANGLES, en, heading, pitch, roll);
; 195  : 
; 196  : 	#endif
; 197  : 
; 198  : 	raw = (mobile *) get_local_entity_data (en);

  00009	8b 45 08	 mov	 eax, DWORD PTR _en$[ebp]
  0000c	8b 48 04	 mov	 ecx, DWORD PTR [eax+4]
  0000f	89 4d fc	 mov	 DWORD PTR _raw$[ebp], ecx

; 199  : 
; 200  : 	get_3d_transformation_matrix (raw->attitude, heading, pitch, roll);

  00012	51		 push	 ecx
  00013	f3 0f 10 45 14	 movss	 xmm0, DWORD PTR _roll$[ebp]
  00018	f3 0f 11 04 24	 movss	 DWORD PTR [esp], xmm0
  0001d	51		 push	 ecx
  0001e	f3 0f 10 45 10	 movss	 xmm0, DWORD PTR _pitch$[ebp]
  00023	f3 0f 11 04 24	 movss	 DWORD PTR [esp], xmm0
  00028	51		 push	 ecx
  00029	f3 0f 10 45 0c	 movss	 xmm0, DWORD PTR _heading$[ebp]
  0002e	f3 0f 11 04 24	 movss	 DWORD PTR [esp], xmm0
  00033	8b 45 fc	 mov	 eax, DWORD PTR _raw$[ebp]
  00036	83 c0 10	 add	 eax, 16			; 00000010H
  00039	50		 push	 eax
  0003a	e8 00 00 00 00	 call	 ?get_3d_transformation_matrix@@YGXQAY02MMMM@Z ; get_3d_transformation_matrix

; 201  : }

  0003f	5f		 pop	 edi
  00040	5e		 pop	 esi
  00041	5b		 pop	 ebx
  00042	8b e5		 mov	 esp, ebp
  00044	5d		 pop	 ebp
  00045	c2 10 00	 ret	 16			; 00000010H
?set_local_attitude_angles@@YGXPAUENTITY@@MMM@Z ENDP	; set_local_attitude_angles
_TEXT	ENDS
; Function compile flags: /Odtp /ZI
; File c:\users\nhv90\projects\eech\aphavoc\source\entity\mobile\mb_att.c
;	COMDAT ?get_local_attitude_matrix_ptr@@YGPAY122MPAUENTITY@@@Z
_TEXT	SEGMENT
_raw$ = -4						; size = 4
_en$ = 8						; size = 4
?get_local_attitude_matrix_ptr@@YGPAY122MPAUENTITY@@@Z PROC ; get_local_attitude_matrix_ptr, COMDAT

; 174  : {

  00000	55		 push	 ebp
  00001	8b ec		 mov	 ebp, esp
  00003	83 ec 44	 sub	 esp, 68			; 00000044H
  00006	53		 push	 ebx
  00007	56		 push	 esi
  00008	57		 push	 edi

; 175  : 	mobile
; 176  : 		*raw;
; 177  : 
; 178  : 	raw = (mobile *) get_local_entity_data (en);

  00009	8b 45 08	 mov	 eax, DWORD PTR _en$[ebp]
  0000c	8b 48 04	 mov	 ecx, DWORD PTR [eax+4]
  0000f	89 4d fc	 mov	 DWORD PTR _raw$[ebp], ecx

; 179  : 
; 180  : 	return (&raw->attitude);

  00012	8b 45 fc	 mov	 eax, DWORD PTR _raw$[ebp]
  00015	83 c0 10	 add	 eax, 16			; 00000010H

; 181  : }

  00018	5f		 pop	 edi
  00019	5e		 pop	 esi
  0001a	5b		 pop	 ebx
  0001b	8b e5		 mov	 esp, ebp
  0001d	5d		 pop	 ebp
  0001e	c2 04 00	 ret	 4
?get_local_attitude_matrix_ptr@@YGPAY122MPAUENTITY@@@Z ENDP ; get_local_attitude_matrix_ptr
_TEXT	ENDS
; Function compile flags: /Odtp /ZI
; File c:\users\nhv90\projects\eech\aphavoc\source\entity\mobile\mb_att.c
;	COMDAT ?get_local_attitude_matrix@@YGXPAUENTITY@@QAY02M@Z
_TEXT	SEGMENT
_raw$ = -4						; size = 4
_en$ = 8						; size = 4
_attitude$ = 12						; size = 4
?get_local_attitude_matrix@@YGXPAUENTITY@@QAY02M@Z PROC	; get_local_attitude_matrix, COMDAT

; 158  : {

  00000	55		 push	 ebp
  00001	8b ec		 mov	 ebp, esp
  00003	83 ec 44	 sub	 esp, 68			; 00000044H
  00006	53		 push	 ebx
  00007	56		 push	 esi
  00008	57		 push	 edi

; 159  : 	mobile
; 160  : 		*raw;
; 161  : 
; 162  : 	ASSERT (attitude);

  00009	83 7d 0c 00	 cmp	 DWORD PTR _attitude$[ebp], 0
  0000d	75 18		 jne	 SHORT $LN2@get_local_
  0000f	a1 00 00 00 00	 mov	 eax, DWORD PTR ?__LINE__Var@?0??get_local_attitude_matrix@@YGXPAUENTITY@@QAY02M@Z@4JA
  00014	83 c0 04	 add	 eax, 4
  00017	50		 push	 eax
  00018	68 00 00 00 00	 push	 OFFSET ??_C@_0ED@JECPLNHD@c?3?2users?2nhv90?2projects?2eech?2ap@
  0001d	68 00 00 00 00	 push	 OFFSET ??_C@_08EKMPKBMJ@attitude@
  00022	e8 00 00 00 00	 call	 ?process_assert@@YGXPBD0H@Z ; process_assert
$LN2@get_local_:

; 163  : 
; 164  : 	raw = (mobile *) get_local_entity_data (en);

  00027	8b 45 08	 mov	 eax, DWORD PTR _en$[ebp]
  0002a	8b 48 04	 mov	 ecx, DWORD PTR [eax+4]
  0002d	89 4d fc	 mov	 DWORD PTR _raw$[ebp], ecx

; 165  : 
; 166  : 	memcpy (attitude, raw->attitude, sizeof (matrix3x3));

  00030	6a 24		 push	 36			; 00000024H
  00032	8b 45 fc	 mov	 eax, DWORD PTR _raw$[ebp]
  00035	83 c0 10	 add	 eax, 16			; 00000010H
  00038	50		 push	 eax
  00039	8b 4d 0c	 mov	 ecx, DWORD PTR _attitude$[ebp]
  0003c	51		 push	 ecx
  0003d	e8 00 00 00 00	 call	 _memcpy
  00042	83 c4 0c	 add	 esp, 12			; 0000000cH

; 167  : }

  00045	5f		 pop	 edi
  00046	5e		 pop	 esi
  00047	5b		 pop	 ebx
  00048	8b e5		 mov	 esp, ebp
  0004a	5d		 pop	 ebp
  0004b	c2 08 00	 ret	 8
?get_local_attitude_matrix@@YGXPAUENTITY@@QAY02M@Z ENDP	; get_local_attitude_matrix
_TEXT	ENDS
; Function compile flags: /Odtp /ZI
; File c:\users\nhv90\projects\eech\aphavoc\source\entity\mobile\mb_att.c
;	COMDAT ?set_client_attitude_matrix@@YGXPAUENTITY@@QAY02M@Z
_TEXT	SEGMENT
_en$ = 8						; size = 4
_attitude$ = 12						; size = 4
?set_client_attitude_matrix@@YGXPAUENTITY@@QAY02M@Z PROC ; set_client_attitude_matrix, COMDAT

; 136  : {

  00000	55		 push	 ebp
  00001	8b ec		 mov	 ebp, esp
  00003	83 ec 40	 sub	 esp, 64			; 00000040H
  00006	53		 push	 ebx
  00007	56		 push	 esi
  00008	57		 push	 edi

; 137  : 	ASSERT (attitude);

  00009	83 7d 0c 00	 cmp	 DWORD PTR _attitude$[ebp], 0
  0000d	75 18		 jne	 SHORT $LN2@set_client
  0000f	a1 00 00 00 00	 mov	 eax, DWORD PTR ?__LINE__Var@?0??set_client_attitude_matrix@@YGXPAUENTITY@@QAY02M@Z@4JA
  00014	83 c0 01	 add	 eax, 1
  00017	50		 push	 eax
  00018	68 00 00 00 00	 push	 OFFSET ??_C@_0ED@JECPLNHD@c?3?2users?2nhv90?2projects?2eech?2ap@
  0001d	68 00 00 00 00	 push	 OFFSET ??_C@_08EKMPKBMJ@attitude@
  00022	e8 00 00 00 00	 call	 ?process_assert@@YGXPBD0H@Z ; process_assert
$LN2@set_client:

; 138  : 
; 139  : 	if (get_comms_data_flow () == COMMS_DATA_FLOW_TX)

  00027	83 3d 00 00 00
	00 00		 cmp	 DWORD PTR ?system_comms_data_flow@@3W4COMMS_DATA_FLOW_TYPES@@A, 0 ; system_comms_data_flow
  0002e	75 30		 jne	 SHORT $LN3@set_client

; 140  : 	{
; 141  : 		validate_client_server_remote_fn ();

  00030	e8 00 00 00 00	 call	 ?assert_client_server_remote_fn@@YGHXZ ; assert_client_server_remote_fn
  00035	85 c0		 test	 eax, eax
  00037	75 18		 jne	 SHORT $LN5@set_client
  00039	a1 00 00 00 00	 mov	 eax, DWORD PTR ?__LINE__Var@?0??set_client_attitude_matrix@@YGXPAUENTITY@@QAY02M@Z@4JA
  0003e	83 c0 05	 add	 eax, 5
  00041	50		 push	 eax
  00042	68 00 00 00 00	 push	 OFFSET ??_C@_0ED@JECPLNHD@c?3?2users?2nhv90?2projects?2eech?2ap@
  00047	68 00 00 00 00	 push	 OFFSET ??_C@_0CC@BNNNEGEG@assert_client_server_remote_fn?5@
  0004c	e8 00 00 00 00	 call	 ?process_assert@@YGXPBD0H@Z ; process_assert
$LN5@set_client:

; 142  : 
; 143  : 		set_remote_attitude_matrix (en, attitude);

  00051	8b 45 0c	 mov	 eax, DWORD PTR _attitude$[ebp]
  00054	50		 push	 eax
  00055	8b 4d 08	 mov	 ecx, DWORD PTR _en$[ebp]
  00058	51		 push	 ecx
  00059	e8 00 00 00 00	 call	 ?set_remote_attitude_matrix@@YGXPAUENTITY@@QAY02M@Z ; set_remote_attitude_matrix

; 144  : 	}
; 145  : 	else

  0005e	eb 2e		 jmp	 SHORT $LN1@set_client
$LN3@set_client:

; 146  : 	{
; 147  : 		validate_client_server_local_fn ();

  00060	e8 00 00 00 00	 call	 ?assert_client_server_local_fn@@YGHXZ ; assert_client_server_local_fn
  00065	85 c0		 test	 eax, eax
  00067	75 18		 jne	 SHORT $LN6@set_client
  00069	a1 00 00 00 00	 mov	 eax, DWORD PTR ?__LINE__Var@?0??set_client_attitude_matrix@@YGXPAUENTITY@@QAY02M@Z@4JA
  0006e	83 c0 0b	 add	 eax, 11			; 0000000bH
  00071	50		 push	 eax
  00072	68 00 00 00 00	 push	 OFFSET ??_C@_0ED@JECPLNHD@c?3?2users?2nhv90?2projects?2eech?2ap@
  00077	68 00 00 00 00	 push	 OFFSET ??_C@_0CB@CFOCLFOK@assert_client_server_local_fn?5?$CI@
  0007c	e8 00 00 00 00	 call	 ?process_assert@@YGXPBD0H@Z ; process_assert
$LN6@set_client:

; 148  : 
; 149  : 		set_local_attitude_matrix (en, attitude);

  00081	8b 45 0c	 mov	 eax, DWORD PTR _attitude$[ebp]
  00084	50		 push	 eax
  00085	8b 4d 08	 mov	 ecx, DWORD PTR _en$[ebp]
  00088	51		 push	 ecx
  00089	e8 00 00 00 00	 call	 ?set_local_attitude_matrix@@YGXPAUENTITY@@QAY02M@Z ; set_local_attitude_matrix
$LN1@set_client:

; 150  : 	}
; 151  : }

  0008e	5f		 pop	 edi
  0008f	5e		 pop	 esi
  00090	5b		 pop	 ebx
  00091	8b e5		 mov	 esp, ebp
  00093	5d		 pop	 ebp
  00094	c2 08 00	 ret	 8
?set_client_attitude_matrix@@YGXPAUENTITY@@QAY02M@Z ENDP ; set_client_attitude_matrix
_TEXT	ENDS
; Function compile flags: /Odtp /ZI
; File c:\users\nhv90\projects\eech\aphavoc\source\entity\mobile\mb_att.c
;	COMDAT ?set_server_attitude_matrix@@YGXPAUENTITY@@QAY02M@Z
_TEXT	SEGMENT
_en$ = 8						; size = 4
_attitude$ = 12						; size = 4
?set_server_attitude_matrix@@YGXPAUENTITY@@QAY02M@Z PROC ; set_server_attitude_matrix, COMDAT

; 119  : {

  00000	55		 push	 ebp
  00001	8b ec		 mov	 ebp, esp
  00003	83 ec 40	 sub	 esp, 64			; 00000040H
  00006	53		 push	 ebx
  00007	56		 push	 esi
  00008	57		 push	 edi

; 120  : 	ASSERT (attitude);

  00009	83 7d 0c 00	 cmp	 DWORD PTR _attitude$[ebp], 0
  0000d	75 18		 jne	 SHORT $LN2@set_server
  0000f	a1 00 00 00 00	 mov	 eax, DWORD PTR ?__LINE__Var@?0??set_server_attitude_matrix@@YGXPAUENTITY@@QAY02M@Z@4JA
  00014	83 c0 01	 add	 eax, 1
  00017	50		 push	 eax
  00018	68 00 00 00 00	 push	 OFFSET ??_C@_0ED@JECPLNHD@c?3?2users?2nhv90?2projects?2eech?2ap@
  0001d	68 00 00 00 00	 push	 OFFSET ??_C@_08EKMPKBMJ@attitude@
  00022	e8 00 00 00 00	 call	 ?process_assert@@YGXPBD0H@Z ; process_assert
$LN2@set_server:

; 121  : 
; 122  : 	validate_client_server_local_fn ();

  00027	e8 00 00 00 00	 call	 ?assert_client_server_local_fn@@YGHXZ ; assert_client_server_local_fn
  0002c	85 c0		 test	 eax, eax
  0002e	75 18		 jne	 SHORT $LN3@set_server
  00030	a1 00 00 00 00	 mov	 eax, DWORD PTR ?__LINE__Var@?0??set_server_attitude_matrix@@YGXPAUENTITY@@QAY02M@Z@4JA
  00035	83 c0 03	 add	 eax, 3
  00038	50		 push	 eax
  00039	68 00 00 00 00	 push	 OFFSET ??_C@_0ED@JECPLNHD@c?3?2users?2nhv90?2projects?2eech?2ap@
  0003e	68 00 00 00 00	 push	 OFFSET ??_C@_0CB@CFOCLFOK@assert_client_server_local_fn?5?$CI@
  00043	e8 00 00 00 00	 call	 ?process_assert@@YGXPBD0H@Z ; process_assert
$LN3@set_server:

; 123  : 
; 124  : 	set_local_attitude_matrix (en, attitude);

  00048	8b 45 0c	 mov	 eax, DWORD PTR _attitude$[ebp]
  0004b	50		 push	 eax
  0004c	8b 4d 08	 mov	 ecx, DWORD PTR _en$[ebp]
  0004f	51		 push	 ecx
  00050	e8 00 00 00 00	 call	 ?set_local_attitude_matrix@@YGXPAUENTITY@@QAY02M@Z ; set_local_attitude_matrix

; 125  : 
; 126  : 	validate_client_server_remote_fn ();

  00055	e8 00 00 00 00	 call	 ?assert_client_server_remote_fn@@YGHXZ ; assert_client_server_remote_fn
  0005a	85 c0		 test	 eax, eax
  0005c	75 18		 jne	 SHORT $LN4@set_server
  0005e	a1 00 00 00 00	 mov	 eax, DWORD PTR ?__LINE__Var@?0??set_server_attitude_matrix@@YGXPAUENTITY@@QAY02M@Z@4JA
  00063	83 c0 07	 add	 eax, 7
  00066	50		 push	 eax
  00067	68 00 00 00 00	 push	 OFFSET ??_C@_0ED@JECPLNHD@c?3?2users?2nhv90?2projects?2eech?2ap@
  0006c	68 00 00 00 00	 push	 OFFSET ??_C@_0CC@BNNNEGEG@assert_client_server_remote_fn?5@
  00071	e8 00 00 00 00	 call	 ?process_assert@@YGXPBD0H@Z ; process_assert
$LN4@set_server:

; 127  : 
; 128  : 	set_remote_attitude_matrix (en, attitude);

  00076	8b 45 0c	 mov	 eax, DWORD PTR _attitude$[ebp]
  00079	50		 push	 eax
  0007a	8b 4d 08	 mov	 ecx, DWORD PTR _en$[ebp]
  0007d	51		 push	 ecx
  0007e	e8 00 00 00 00	 call	 ?set_remote_attitude_matrix@@YGXPAUENTITY@@QAY02M@Z ; set_remote_attitude_matrix

; 129  : }

  00083	5f		 pop	 edi
  00084	5e		 pop	 esi
  00085	5b		 pop	 ebx
  00086	8b e5		 mov	 esp, ebp
  00088	5d		 pop	 ebp
  00089	c2 08 00	 ret	 8
?set_server_attitude_matrix@@YGXPAUENTITY@@QAY02M@Z ENDP ; set_server_attitude_matrix
_TEXT	ENDS
; Function compile flags: /Odtp /ZI
; File c:\users\nhv90\projects\eech\aphavoc\source\entity\mobile\mb_att.c
;	COMDAT ?set_remote_attitude_matrix@@YGXPAUENTITY@@QAY02M@Z
_TEXT	SEGMENT
_en$ = 8						; size = 4
_attitude$ = 12						; size = 4
?set_remote_attitude_matrix@@YGXPAUENTITY@@QAY02M@Z PROC ; set_remote_attitude_matrix, COMDAT

; 102  : {

  00000	55		 push	 ebp
  00001	8b ec		 mov	 ebp, esp
  00003	83 ec 40	 sub	 esp, 64			; 00000040H
  00006	53		 push	 ebx
  00007	56		 push	 esi
  00008	57		 push	 edi

; 103  : 	ASSERT (attitude);

  00009	83 7d 0c 00	 cmp	 DWORD PTR _attitude$[ebp], 0
  0000d	75 18		 jne	 SHORT $LN2@set_remote
  0000f	a1 00 00 00 00	 mov	 eax, DWORD PTR ?__LINE__Var@?0??set_remote_attitude_matrix@@YGXPAUENTITY@@QAY02M@Z@4JA
  00014	83 c0 01	 add	 eax, 1
  00017	50		 push	 eax
  00018	68 00 00 00 00	 push	 OFFSET ??_C@_0ED@JECPLNHD@c?3?2users?2nhv90?2projects?2eech?2ap@
  0001d	68 00 00 00 00	 push	 OFFSET ??_C@_08EKMPKBMJ@attitude@
  00022	e8 00 00 00 00	 call	 ?process_assert@@YGXPBD0H@Z ; process_assert
$LN2@set_remote:

; 104  : 
; 105  : 	#if DEBUG_MODULE
; 106  : 
; 107  : 	debug_log_entity_args (ENTITY_DEBUG_REMOTE, ENTITY_DEBUG_ATTITUDE_MATRIX, en, attitude);
; 108  : 
; 109  : 	#endif
; 110  : 
; 111  : 	transmit_entity_comms_message (ENTITY_COMMS_ATTITUDE_MATRIX, en, attitude);

  00027	8b 45 0c	 mov	 eax, DWORD PTR _attitude$[ebp]
  0002a	50		 push	 eax
  0002b	8b 4d 08	 mov	 ecx, DWORD PTR _en$[ebp]
  0002e	51		 push	 ecx
  0002f	6a 04		 push	 4
  00031	e8 00 00 00 00	 call	 ?transmit_entity_comms_message@@YAXW4ENTITY_COMMS_MESSAGES@@PAUENTITY@@ZZ ; transmit_entity_comms_message
  00036	83 c4 0c	 add	 esp, 12			; 0000000cH

; 112  : }

  00039	5f		 pop	 edi
  0003a	5e		 pop	 esi
  0003b	5b		 pop	 ebx
  0003c	8b e5		 mov	 esp, ebp
  0003e	5d		 pop	 ebp
  0003f	c2 08 00	 ret	 8
?set_remote_attitude_matrix@@YGXPAUENTITY@@QAY02M@Z ENDP ; set_remote_attitude_matrix
_TEXT	ENDS
; Function compile flags: /Odtp /ZI
; File c:\users\nhv90\projects\eech\aphavoc\source\entity\mobile\mb_att.c
;	COMDAT ?set_local_attitude_matrix@@YGXPAUENTITY@@QAY02M@Z
_TEXT	SEGMENT
_raw$ = -4						; size = 4
_en$ = 8						; size = 4
_attitude$ = 12						; size = 4
?set_local_attitude_matrix@@YGXPAUENTITY@@QAY02M@Z PROC	; set_local_attitude_matrix, COMDAT

; 80   : {

  00000	55		 push	 ebp
  00001	8b ec		 mov	 ebp, esp
  00003	83 ec 44	 sub	 esp, 68			; 00000044H
  00006	53		 push	 ebx
  00007	56		 push	 esi
  00008	57		 push	 edi

; 81   : 	mobile
; 82   : 		*raw;
; 83   : 
; 84   : 	ASSERT (attitude);

  00009	83 7d 0c 00	 cmp	 DWORD PTR _attitude$[ebp], 0
  0000d	75 18		 jne	 SHORT $LN2@set_local_
  0000f	a1 00 00 00 00	 mov	 eax, DWORD PTR ?__LINE__Var@?0??set_local_attitude_matrix@@YGXPAUENTITY@@QAY02M@Z@4JA
  00014	83 c0 04	 add	 eax, 4
  00017	50		 push	 eax
  00018	68 00 00 00 00	 push	 OFFSET ??_C@_0ED@JECPLNHD@c?3?2users?2nhv90?2projects?2eech?2ap@
  0001d	68 00 00 00 00	 push	 OFFSET ??_C@_08EKMPKBMJ@attitude@
  00022	e8 00 00 00 00	 call	 ?process_assert@@YGXPBD0H@Z ; process_assert
$LN2@set_local_:

; 85   : 
; 86   : 	#if DEBUG_MODULE
; 87   : 
; 88   : 	debug_log_entity_args (ENTITY_DEBUG_LOCAL, ENTITY_DEBUG_ATTITUDE_MATRIX, en, attitude);
; 89   : 
; 90   : 	#endif
; 91   : 
; 92   : 	raw = (mobile *) get_local_entity_data (en);

  00027	8b 45 08	 mov	 eax, DWORD PTR _en$[ebp]
  0002a	8b 48 04	 mov	 ecx, DWORD PTR [eax+4]
  0002d	89 4d fc	 mov	 DWORD PTR _raw$[ebp], ecx

; 93   : 
; 94   : 	memcpy (raw->attitude, attitude, sizeof (matrix3x3));

  00030	6a 24		 push	 36			; 00000024H
  00032	8b 45 0c	 mov	 eax, DWORD PTR _attitude$[ebp]
  00035	50		 push	 eax
  00036	8b 4d fc	 mov	 ecx, DWORD PTR _raw$[ebp]
  00039	83 c1 10	 add	 ecx, 16			; 00000010H
  0003c	51		 push	 ecx
  0003d	e8 00 00 00 00	 call	 _memcpy
  00042	83 c4 0c	 add	 esp, 12			; 0000000cH

; 95   : }

  00045	5f		 pop	 edi
  00046	5e		 pop	 esi
  00047	5b		 pop	 ebx
  00048	8b e5		 mov	 esp, ebp
  0004a	5d		 pop	 ebp
  0004b	c2 08 00	 ret	 8
?set_local_attitude_matrix@@YGXPAUENTITY@@QAY02M@Z ENDP	; set_local_attitude_matrix
_TEXT	ENDS
; Function compile flags: /Odtp /ZI
; File c:\users\nhv90\projects\eech\aphavoc\source\entity\mobile\mb_att.c
;	COMDAT ?overload_mobile_attitude_functions@@YGXW4ENTITY_TYPES@@@Z
_TEXT	SEGMENT
_type$ = 8						; size = 4
?overload_mobile_attitude_functions@@YGXW4ENTITY_TYPES@@@Z PROC ; overload_mobile_attitude_functions, COMDAT

; 335  : {

  00000	55		 push	 ebp
  00001	8b ec		 mov	 ebp, esp
  00003	83 ec 40	 sub	 esp, 64			; 00000040H
  00006	53		 push	 ebx
  00007	56		 push	 esi
  00008	57		 push	 edi

; 336  : 	fn_set_local_entity_raw_attitude_matrix	 	[type]		  				 	= set_local_attitude_matrix;

  00009	8b 45 08	 mov	 eax, DWORD PTR _type$[ebp]
  0000c	c7 04 85 00 00
	00 00 00 00 00
	00		 mov	 DWORD PTR ?fn_set_local_entity_raw_attitude_matrix@@3PAP6GXPAUENTITY@@QAY02M@ZA[eax*4], OFFSET ?set_local_attitude_matrix@@YGXPAUENTITY@@QAY02M@Z ; set_local_attitude_matrix

; 337  : 	fn_set_local_entity_attitude_matrix				[type]		  				 	= set_local_attitude_matrix;

  00017	8b 45 08	 mov	 eax, DWORD PTR _type$[ebp]
  0001a	c7 04 85 00 00
	00 00 00 00 00
	00		 mov	 DWORD PTR ?fn_set_local_entity_attitude_matrix@@3PAP6GXPAUENTITY@@QAY02M@ZA[eax*4], OFFSET ?set_local_attitude_matrix@@YGXPAUENTITY@@QAY02M@Z ; set_local_attitude_matrix

; 338  : 	fn_set_client_server_entity_attitude_matrix	[type][COMMS_MODEL_SERVER]	= set_server_attitude_matrix;

  00025	b8 04 00 00 00	 mov	 eax, 4
  0002a	6b c8 00	 imul	 ecx, eax, 0
  0002d	8b 55 08	 mov	 edx, DWORD PTR _type$[ebp]
  00030	c7 84 d1 00 00
	00 00 00 00 00
	00		 mov	 DWORD PTR ?fn_set_client_server_entity_attitude_matrix@@3PAY01P6GXPAUENTITY@@QAY02M@ZA[ecx+edx*8], OFFSET ?set_server_attitude_matrix@@YGXPAUENTITY@@QAY02M@Z ; set_server_attitude_matrix

; 339  : 	fn_set_client_server_entity_attitude_matrix	[type][COMMS_MODEL_CLIENT]	= set_client_attitude_matrix;

  0003b	b8 04 00 00 00	 mov	 eax, 4
  00040	c1 e0 00	 shl	 eax, 0
  00043	8b 4d 08	 mov	 ecx, DWORD PTR _type$[ebp]
  00046	c7 84 c8 00 00
	00 00 00 00 00
	00		 mov	 DWORD PTR ?fn_set_client_server_entity_attitude_matrix@@3PAY01P6GXPAUENTITY@@QAY02M@ZA[eax+ecx*8], OFFSET ?set_client_attitude_matrix@@YGXPAUENTITY@@QAY02M@Z ; set_client_attitude_matrix

; 340  : 	fn_get_local_entity_attitude_matrix				[type]						 	= get_local_attitude_matrix;

  00051	8b 45 08	 mov	 eax, DWORD PTR _type$[ebp]
  00054	c7 04 85 00 00
	00 00 00 00 00
	00		 mov	 DWORD PTR ?fn_get_local_entity_attitude_matrix@@3PAP6GXPAUENTITY@@QAY02M@ZA[eax*4], OFFSET ?get_local_attitude_matrix@@YGXPAUENTITY@@QAY02M@Z ; get_local_attitude_matrix

; 341  : 	fn_get_local_entity_attitude_matrix_ptr		[type]						 	= get_local_attitude_matrix_ptr;

  0005f	8b 45 08	 mov	 eax, DWORD PTR _type$[ebp]
  00062	c7 04 85 00 00
	00 00 00 00 00
	00		 mov	 DWORD PTR ?fn_get_local_entity_attitude_matrix_ptr@@3PAP6GPAY122MPAUENTITY@@@ZA[eax*4], OFFSET ?get_local_attitude_matrix_ptr@@YGPAY122MPAUENTITY@@@Z ; get_local_attitude_matrix_ptr

; 342  : 
; 343  : 	fn_set_local_entity_raw_attitude_angles		[type]	  			  		 	= set_local_attitude_angles;

  0006d	8b 45 08	 mov	 eax, DWORD PTR _type$[ebp]
  00070	c7 04 85 00 00
	00 00 00 00 00
	00		 mov	 DWORD PTR ?fn_set_local_entity_raw_attitude_angles@@3PAP6GXPAUENTITY@@MMM@ZA[eax*4], OFFSET ?set_local_attitude_angles@@YGXPAUENTITY@@MMM@Z ; set_local_attitude_angles

; 344  : 	fn_set_local_entity_attitude_angles				[type]		  				 	= set_local_attitude_angles;

  0007b	8b 45 08	 mov	 eax, DWORD PTR _type$[ebp]
  0007e	c7 04 85 00 00
	00 00 00 00 00
	00		 mov	 DWORD PTR ?fn_set_local_entity_attitude_angles@@3PAP6GXPAUENTITY@@MMM@ZA[eax*4], OFFSET ?set_local_attitude_angles@@YGXPAUENTITY@@MMM@Z ; set_local_attitude_angles

; 345  : 	fn_set_client_server_entity_attitude_angles	[type][COMMS_MODEL_SERVER]	= set_server_attitude_angles;

  00089	b8 04 00 00 00	 mov	 eax, 4
  0008e	6b c8 00	 imul	 ecx, eax, 0
  00091	8b 55 08	 mov	 edx, DWORD PTR _type$[ebp]
  00094	c7 84 d1 00 00
	00 00 00 00 00
	00		 mov	 DWORD PTR ?fn_set_client_server_entity_attitude_angles@@3PAY01P6GXPAUENTITY@@MMM@ZA[ecx+edx*8], OFFSET ?set_server_attitude_angles@@YGXPAUENTITY@@MMM@Z ; set_server_attitude_angles

; 346  : 	fn_set_client_server_entity_attitude_angles	[type][COMMS_MODEL_CLIENT]	= set_client_attitude_angles;

  0009f	b8 04 00 00 00	 mov	 eax, 4
  000a4	c1 e0 00	 shl	 eax, 0
  000a7	8b 4d 08	 mov	 ecx, DWORD PTR _type$[ebp]
  000aa	c7 84 c8 00 00
	00 00 00 00 00
	00		 mov	 DWORD PTR ?fn_set_client_server_entity_attitude_angles@@3PAY01P6GXPAUENTITY@@MMM@ZA[eax+ecx*8], OFFSET ?set_client_attitude_angles@@YGXPAUENTITY@@MMM@Z ; set_client_attitude_angles

; 347  : 	fn_get_local_entity_attitude_angles				[type]						 	= get_local_attitude_angles;

  000b5	8b 45 08	 mov	 eax, DWORD PTR _type$[ebp]
  000b8	c7 04 85 00 00
	00 00 00 00 00
	00		 mov	 DWORD PTR ?fn_get_local_entity_attitude_angles@@3PAP6GXPAUENTITY@@PAM11@ZA[eax*4], OFFSET ?get_local_attitude_angles@@YGXPAUENTITY@@PAM11@Z ; get_local_attitude_angles

; 348  : 	fn_get_local_entity_float_value					[type][FLOAT_TYPE_HEADING]	= get_local_float_value;

  000c3	69 45 08 bc 02
	00 00		 imul	 eax, DWORD PTR _type$[ebp], 700
  000ca	b9 04 00 00 00	 mov	 ecx, 4
  000cf	6b d1 34	 imul	 edx, ecx, 52
  000d2	c7 84 10 00 00
	00 00 00 00 00
	00		 mov	 DWORD PTR ?fn_get_local_entity_float_value@@3PAY0KP@P6GMPAUENTITY@@W4FLOAT_TYPES@@@ZA[eax+edx], OFFSET ?get_local_float_value@@YGMPAUENTITY@@W4FLOAT_TYPES@@@Z ; get_local_float_value

; 349  : 	fn_get_local_entity_float_value					[type][FLOAT_TYPE_PITCH]	= get_local_float_value;

  000dd	69 45 08 bc 02
	00 00		 imul	 eax, DWORD PTR _type$[ebp], 700
  000e4	b9 04 00 00 00	 mov	 ecx, 4
  000e9	6b d1 54	 imul	 edx, ecx, 84
  000ec	c7 84 10 00 00
	00 00 00 00 00
	00		 mov	 DWORD PTR ?fn_get_local_entity_float_value@@3PAY0KP@P6GMPAUENTITY@@W4FLOAT_TYPES@@@ZA[eax+edx], OFFSET ?get_local_float_value@@YGMPAUENTITY@@W4FLOAT_TYPES@@@Z ; get_local_float_value

; 350  : 	fn_get_local_entity_float_value					[type][FLOAT_TYPE_ROLL]		= get_local_float_value;

  000f7	69 45 08 bc 02
	00 00		 imul	 eax, DWORD PTR _type$[ebp], 700
  000fe	b9 04 00 00 00	 mov	 ecx, 4
  00103	6b d1 71	 imul	 edx, ecx, 113
  00106	c7 84 10 00 00
	00 00 00 00 00
	00		 mov	 DWORD PTR ?fn_get_local_entity_float_value@@3PAY0KP@P6GMPAUENTITY@@W4FLOAT_TYPES@@@ZA[eax+edx], OFFSET ?get_local_float_value@@YGMPAUENTITY@@W4FLOAT_TYPES@@@Z ; get_local_float_value

; 351  : }

  00111	5f		 pop	 edi
  00112	5e		 pop	 esi
  00113	5b		 pop	 ebx
  00114	8b e5		 mov	 esp, ebp
  00116	5d		 pop	 ebp
  00117	c2 04 00	 ret	 4
?overload_mobile_attitude_functions@@YGXW4ENTITY_TYPES@@@Z ENDP ; overload_mobile_attitude_functions
_TEXT	ENDS
; Function compile flags: /Odtp /ZI
; File c:\program files (x86)\microsoft visual studio\2017\community\vc\tools\msvc\14.16.27023\include\cmath
;	COMDAT ?atan2@@YGMMM@Z
_TEXT	SEGMENT
__Yx$ = 8						; size = 4
__Xx$ = 12						; size = 4
?atan2@@YGMMM@Z PROC					; atan2, COMDAT

; 56   : 	{

  00000	55		 push	 ebp
  00001	8b ec		 mov	 ebp, esp
  00003	83 ec 40	 sub	 esp, 64			; 00000040H
  00006	53		 push	 ebx
  00007	56		 push	 esi
  00008	57		 push	 edi

; 57   : 	return (_CSTD atan2f(_Yx, _Xx));

  00009	51		 push	 ecx
  0000a	f3 0f 10 45 0c	 movss	 xmm0, DWORD PTR __Xx$[ebp]
  0000f	f3 0f 11 04 24	 movss	 DWORD PTR [esp], xmm0
  00014	51		 push	 ecx
  00015	f3 0f 10 45 08	 movss	 xmm0, DWORD PTR __Yx$[ebp]
  0001a	f3 0f 11 04 24	 movss	 DWORD PTR [esp], xmm0
  0001f	e8 00 00 00 00	 call	 _atan2f
  00024	83 c4 08	 add	 esp, 8

; 58   : 	}

  00027	5f		 pop	 edi
  00028	5e		 pop	 esi
  00029	5b		 pop	 ebx
  0002a	8b e5		 mov	 esp, ebp
  0002c	5d		 pop	 ebp
  0002d	c2 08 00	 ret	 8
?atan2@@YGMMM@Z ENDP					; atan2
_TEXT	ENDS
; Function compile flags: /Odtp /ZI
; File c:\program files (x86)\microsoft visual studio\2017\community\vc\tools\msvc\14.16.27023\include\cmath
;	COMDAT ?asin@@YGMM@Z
_TEXT	SEGMENT
__Xx$ = 8						; size = 4
?asin@@YGMM@Z PROC					; asin, COMDAT

; 36   : 	{

  00000	55		 push	 ebp
  00001	8b ec		 mov	 ebp, esp
  00003	83 ec 40	 sub	 esp, 64			; 00000040H
  00006	53		 push	 ebx
  00007	56		 push	 esi
  00008	57		 push	 edi

; 37   : 	return (_CSTD asinf(_Xx));

  00009	51		 push	 ecx
  0000a	f3 0f 10 45 08	 movss	 xmm0, DWORD PTR __Xx$[ebp]
  0000f	f3 0f 11 04 24	 movss	 DWORD PTR [esp], xmm0
  00014	e8 00 00 00 00	 call	 _asinf
  00019	83 c4 04	 add	 esp, 4

; 38   : 	}

  0001c	5f		 pop	 edi
  0001d	5e		 pop	 esi
  0001e	5b		 pop	 ebx
  0001f	8b e5		 mov	 esp, ebp
  00021	5d		 pop	 ebp
  00022	c2 04 00	 ret	 4
?asin@@YGMM@Z ENDP					; asin
_TEXT	ENDS
; Function compile flags: /Odtp /ZI
; File c:\program files (x86)\windows kits\10\include\10.0.18362.0\ucrt\corecrt_math.h
;	COMDAT _atan2f
_TEXT	SEGMENT
tv74 = -68						; size = 4
__Y$ = 8						; size = 4
__X$ = 12						; size = 4
_atan2f	PROC						; COMDAT

; 633  :         {

  00000	55		 push	 ebp
  00001	8b ec		 mov	 ebp, esp
  00003	83 ec 44	 sub	 esp, 68			; 00000044H
  00006	53		 push	 ebx
  00007	56		 push	 esi
  00008	57		 push	 edi

; 634  :             return (float)atan2(_Y, _X);

  00009	f3 0f 5a 45 0c	 cvtss2sd xmm0, DWORD PTR __X$[ebp]
  0000e	83 ec 08	 sub	 esp, 8
  00011	f2 0f 11 04 24	 movsd	 QWORD PTR [esp], xmm0
  00016	f3 0f 5a 45 08	 cvtss2sd xmm0, DWORD PTR __Y$[ebp]
  0001b	83 ec 08	 sub	 esp, 8
  0001e	f2 0f 11 04 24	 movsd	 QWORD PTR [esp], xmm0
  00023	e8 00 00 00 00	 call	 _atan2
  00028	83 c4 10	 add	 esp, 16			; 00000010H
  0002b	d9 5d bc	 fstp	 DWORD PTR tv74[ebp]
  0002e	d9 45 bc	 fld	 DWORD PTR tv74[ebp]

; 635  :         }

  00031	5f		 pop	 edi
  00032	5e		 pop	 esi
  00033	5b		 pop	 ebx
  00034	8b e5		 mov	 esp, ebp
  00036	5d		 pop	 ebp
  00037	c3		 ret	 0
_atan2f	ENDP
_TEXT	ENDS
; Function compile flags: /Odtp /ZI
; File c:\program files (x86)\windows kits\10\include\10.0.18362.0\ucrt\corecrt_math.h
;	COMDAT _asinf
_TEXT	SEGMENT
tv71 = -68						; size = 4
__X$ = 8						; size = 4
_asinf	PROC						; COMDAT

; 628  :         {

  00000	55		 push	 ebp
  00001	8b ec		 mov	 ebp, esp
  00003	83 ec 44	 sub	 esp, 68			; 00000044H
  00006	53		 push	 ebx
  00007	56		 push	 esi
  00008	57		 push	 edi

; 629  :             return (float)asin(_X);

  00009	f3 0f 5a 45 08	 cvtss2sd xmm0, DWORD PTR __X$[ebp]
  0000e	83 ec 08	 sub	 esp, 8
  00011	f2 0f 11 04 24	 movsd	 QWORD PTR [esp], xmm0
  00016	e8 00 00 00 00	 call	 _asin
  0001b	83 c4 08	 add	 esp, 8
  0001e	d9 5d bc	 fstp	 DWORD PTR tv71[ebp]
  00021	d9 45 bc	 fld	 DWORD PTR tv71[ebp]

; 630  :         }

  00024	5f		 pop	 edi
  00025	5e		 pop	 esi
  00026	5b		 pop	 ebx
  00027	8b e5		 mov	 esp, ebp
  00029	5d		 pop	 ebp
  0002a	c3		 ret	 0
_asinf	ENDP
_TEXT	ENDS
END
