; Listing generated by Microsoft (R) Optimizing Compiler Version 19.16.27045.0 

	TITLE	C:\Users\nhv90\Projects\eech\aphavoc\source\entity\mobile\mb_float.c
	.686P
	.XMM
	include listing.inc
	.model	flat

INCLUDELIB MSVCRTD
INCLUDELIB OLDNAMES

PUBLIC	_asinf
PUBLIC	_atan2f
PUBLIC	?asin@@YGMM@Z					; asin
PUBLIC	?atan2@@YGMMM@Z					; atan2
PUBLIC	?overload_mobile_float_value_functions@@YGXW4ENTITY_TYPES@@@Z ; overload_mobile_float_value_functions
PUBLIC	?__LINE__Var@?0??set_local_float_value@@YGXPAUENTITY@@W4FLOAT_TYPES@@M@Z@4JA ; `set_local_float_value'::`1'::__LINE__Var
PUBLIC	??_C@_0EF@ONEJKLPD@c?3?2users?2nhv90?2projects?2eech?2ap@ ; `string'
PUBLIC	?__LINE__Var@?0??set_server_float_value@@YGXPAUENTITY@@W4FLOAT_TYPES@@M@Z@4JA ; `set_server_float_value'::`1'::__LINE__Var
PUBLIC	??_C@_0CB@CFOCLFOK@assert_client_server_local_fn?5?$CI@ ; `string'
PUBLIC	??_C@_0CC@BNNNEGEG@assert_client_server_remote_fn?5@ ; `string'
PUBLIC	?__LINE__Var@?0??set_client_float_value@@YGXPAUENTITY@@W4FLOAT_TYPES@@M@Z@4JA ; `set_client_float_value'::`1'::__LINE__Var
PUBLIC	?__LINE__Var@?0??get_local_float_value@@YGMPAUENTITY@@W4FLOAT_TYPES@@@Z@4JA ; `get_local_float_value'::`1'::__LINE__Var
PUBLIC	__xmm@80000000800000008000000080000000
EXTRN	_asin:PROC
EXTRN	_atan2:PROC
EXTRN	?process_assert@@YGXPBD0H@Z:PROC		; process_assert
EXTRN	?debug_fatal@@YAXPBDZZ:PROC			; debug_fatal
EXTRN	?get_3d_transformation_matrix@@YGXQAY02MMMM@Z:PROC ; get_3d_transformation_matrix
EXTRN	?transmit_entity_comms_message@@YAXW4ENTITY_COMMS_MESSAGES@@PAUENTITY@@ZZ:PROC ; transmit_entity_comms_message
EXTRN	?assert_client_server_local_fn@@YGHXZ:PROC	; assert_client_server_local_fn
EXTRN	?assert_client_server_remote_fn@@YGHXZ:PROC	; assert_client_server_remote_fn
EXTRN	?null_entity_pointer_message@@3PBDB:DWORD	; null_entity_pointer_message
EXTRN	?entity_type_database@@3PAUENTITY_TYPE_DATA@@A:BYTE ; entity_type_database
EXTRN	?system_comms_data_flow@@3W4COMMS_DATA_FLOW_TYPES@@A:DWORD ; system_comms_data_flow
EXTRN	?fn_set_local_entity_attitude_matrix@@3PAP6GXPAUENTITY@@QAY02M@ZA:BYTE ; fn_set_local_entity_attitude_matrix
EXTRN	?float_type_database@@3PAUFLOAT_TYPE_DATA@@A:BYTE ; float_type_database
EXTRN	?debug_fatal_invalid_float_type_message@@3PBDB:DWORD ; debug_fatal_invalid_float_type_message
EXTRN	?fn_set_local_entity_raw_float_value@@3PAY0KP@P6GXPAUENTITY@@W4FLOAT_TYPES@@M@ZA:BYTE ; fn_set_local_entity_raw_float_value
EXTRN	?fn_set_local_entity_float_value@@3PAY0KP@P6GXPAUENTITY@@W4FLOAT_TYPES@@M@ZA:BYTE ; fn_set_local_entity_float_value
EXTRN	?fn_set_client_server_entity_float_value@@3PAY1KP@1P6GXPAUENTITY@@W4FLOAT_TYPES@@M@ZA:BYTE ; fn_set_client_server_entity_float_value
EXTRN	?fn_get_local_entity_float_value@@3PAY0KP@P6GMPAUENTITY@@W4FLOAT_TYPES@@@ZA:BYTE ; fn_get_local_entity_float_value
EXTRN	?entities@@3PAUENTITY@@A:DWORD			; entities
EXTRN	__fltused:DWORD
;	COMDAT __xmm@80000000800000008000000080000000
CONST	SEGMENT
__xmm@80000000800000008000000080000000 DB 00H, 00H, 00H, 080H, 00H, 00H, 00H
	DB	080H, 00H, 00H, 00H, 080H, 00H, 00H, 00H, 080H
CONST	ENDS
;	COMDAT ?__LINE__Var@?0??get_local_float_value@@YGMPAUENTITY@@W4FLOAT_TYPES@@@Z@4JA
_DATA	SEGMENT
?__LINE__Var@?0??get_local_float_value@@YGMPAUENTITY@@W4FLOAT_TYPES@@@Z@4JA DD 0c2H ; `get_local_float_value'::`1'::__LINE__Var
_DATA	ENDS
;	COMDAT ?__LINE__Var@?0??set_client_float_value@@YGXPAUENTITY@@W4FLOAT_TYPES@@M@Z@4JA
_DATA	SEGMENT
?__LINE__Var@?0??set_client_float_value@@YGXPAUENTITY@@W4FLOAT_TYPES@@M@Z@4JA DD 0aeH ; `set_client_float_value'::`1'::__LINE__Var
_DATA	ENDS
;	COMDAT ??_C@_0CC@BNNNEGEG@assert_client_server_remote_fn?5@
CONST	SEGMENT
??_C@_0CC@BNNNEGEG@assert_client_server_remote_fn?5@ DB 'assert_client_se'
	DB	'rver_remote_fn ()', 00H			; `string'
CONST	ENDS
;	COMDAT ??_C@_0CB@CFOCLFOK@assert_client_server_local_fn?5?$CI@
CONST	SEGMENT
??_C@_0CB@CFOCLFOK@assert_client_server_local_fn?5?$CI@ DB 'assert_client'
	DB	'_server_local_fn ()', 00H			; `string'
CONST	ENDS
;	COMDAT ?__LINE__Var@?0??set_server_float_value@@YGXPAUENTITY@@W4FLOAT_TYPES@@M@Z@4JA
_DATA	SEGMENT
?__LINE__Var@?0??set_server_float_value@@YGXPAUENTITY@@W4FLOAT_TYPES@@M@Z@4JA DD 09fH ; `set_server_float_value'::`1'::__LINE__Var
_DATA	ENDS
;	COMDAT ??_C@_0EF@ONEJKLPD@c?3?2users?2nhv90?2projects?2eech?2ap@
CONST	SEGMENT
??_C@_0EF@ONEJKLPD@c?3?2users?2nhv90?2projects?2eech?2ap@ DB 'c:\users\nh'
	DB	'v90\projects\eech\aphavoc\source\entity\mobile\mb_float.c', 00H ; `string'
CONST	ENDS
;	COMDAT ?__LINE__Var@?0??set_local_float_value@@YGXPAUENTITY@@W4FLOAT_TYPES@@M@Z@4JA
_DATA	SEGMENT
?__LINE__Var@?0??set_local_float_value@@YGXPAUENTITY@@W4FLOAT_TYPES@@M@Z@4JA DD 050H ; `set_local_float_value'::`1'::__LINE__Var
_DATA	ENDS
; Function compile flags: /Odtp /ZI
; File c:\users\nhv90\projects\eech\aphavoc\source\entity\mobile\mb_float.c
;	COMDAT ?get_local_float_value@@YGMPAUENTITY@@W4FLOAT_TYPES@@@Z
_TEXT	SEGMENT
tv130 = -76						; size = 4
tv65 = -76						; size = 4
_value$ = -8						; size = 4
_raw$ = -4						; size = 4
_en$ = 8						; size = 4
_type$ = 12						; size = 4
?get_local_float_value@@YGMPAUENTITY@@W4FLOAT_TYPES@@@Z PROC ; get_local_float_value, COMDAT

; 194  : {

  00000	55		 push	 ebp
  00001	8b ec		 mov	 ebp, esp
  00003	83 ec 4c	 sub	 esp, 76			; 0000004cH
  00006	53		 push	 ebx
  00007	56		 push	 esi
  00008	57		 push	 edi

; 195  : 	mobile
; 196  : 		*raw;
; 197  : 
; 198  : 	float
; 199  : 		value;
; 200  : 
; 201  : 	raw = (mobile *) get_local_entity_data (en);

  00009	8b 45 08	 mov	 eax, DWORD PTR _en$[ebp]
  0000c	8b 48 04	 mov	 ecx, DWORD PTR [eax+4]
  0000f	89 4d fc	 mov	 DWORD PTR _raw$[ebp], ecx

; 202  : 
; 203  : 	switch (type)

  00012	8b 45 0c	 mov	 eax, DWORD PTR _type$[ebp]
  00015	89 45 b4	 mov	 DWORD PTR tv65[ebp], eax
  00018	8b 4d b4	 mov	 ecx, DWORD PTR tv65[ebp]
  0001b	83 e9 06	 sub	 ecx, 6
  0001e	89 4d b4	 mov	 DWORD PTR tv65[ebp], ecx
  00021	81 7d b4 8e 00
	00 00		 cmp	 DWORD PTR tv65[ebp], 142 ; 0000008eH
  00028	0f 87 80 00 00
	00		 ja	 $LN7@get_local_
  0002e	8b 55 b4	 mov	 edx, DWORD PTR tv65[ebp]
  00031	0f b6 82 00 00
	00 00		 movzx	 eax, BYTE PTR $LN11@get_local_[edx]
  00038	ff 24 85 00 00
	00 00		 jmp	 DWORD PTR $LN12@get_local_[eax*4]
$LN4@get_local_:

; 204  : 	{
; 205  : 		////////////////////////////////////////
; 206  : 		case FLOAT_TYPE_ALTITUDE:
; 207  : 		////////////////////////////////////////
; 208  : 		{
; 209  : 			value = raw->position.y;

  0003f	8b 45 fc	 mov	 eax, DWORD PTR _raw$[ebp]
  00042	f3 0f 10 40 08	 movss	 xmm0, DWORD PTR [eax+8]
  00047	f3 0f 11 45 f8	 movss	 DWORD PTR _value$[ebp], xmm0

; 210  : 
; 211  : 			break;

  0004c	e9 cf 00 00 00	 jmp	 $LN2@get_local_
$LN5@get_local_:

; 212  : 		}
; 213  : 		////////////////////////////////////////
; 214  : 		case FLOAT_TYPE_HEADING:
; 215  : 		////////////////////////////////////////
; 216  : 		{
; 217  : 			value = get_heading_from_attitude_matrix (raw->attitude);

  00051	b8 0c 00 00 00	 mov	 eax, 12			; 0000000cH
  00056	d1 e0		 shl	 eax, 1
  00058	8b 4d fc	 mov	 ecx, DWORD PTR _raw$[ebp]
  0005b	8d 54 01 10	 lea	 edx, DWORD PTR [ecx+eax+16]
  0005f	b8 04 00 00 00	 mov	 eax, 4
  00064	d1 e0		 shl	 eax, 1
  00066	51		 push	 ecx
  00067	f3 0f 10 04 02	 movss	 xmm0, DWORD PTR [edx+eax]
  0006c	f3 0f 11 04 24	 movss	 DWORD PTR [esp], xmm0
  00071	b9 0c 00 00 00	 mov	 ecx, 12			; 0000000cH
  00076	d1 e1		 shl	 ecx, 1
  00078	8b 55 fc	 mov	 edx, DWORD PTR _raw$[ebp]
  0007b	8d 44 0a 10	 lea	 eax, DWORD PTR [edx+ecx+16]
  0007f	b9 04 00 00 00	 mov	 ecx, 4
  00084	6b d1 00	 imul	 edx, ecx, 0
  00087	51		 push	 ecx
  00088	f3 0f 10 04 10	 movss	 xmm0, DWORD PTR [eax+edx]
  0008d	f3 0f 11 04 24	 movss	 DWORD PTR [esp], xmm0
  00092	e8 00 00 00 00	 call	 ?atan2@@YGMMM@Z		; atan2
  00097	d9 5d f8	 fstp	 DWORD PTR _value$[ebp]

; 218  : 
; 219  : 			break;

  0009a	e9 81 00 00 00	 jmp	 $LN2@get_local_
$LN6@get_local_:

; 220  : 		}
; 221  : 		////////////////////////////////////////
; 222  : 		case FLOAT_TYPE_HIGH_VELOCITY:
; 223  : 		case FLOAT_TYPE_LOW_VELOCITY:
; 224  : 		case FLOAT_TYPE_MEDIUM_VELOCITY:
; 225  : 		case FLOAT_TYPE_VELOCITY:
; 226  : 		case FLOAT_TYPE_VERY_HIGH_VELOCITY:
; 227  : 		////////////////////////////////////////
; 228  : 		{
; 229  : 			value = raw->velocity;

  0009f	8b 45 fc	 mov	 eax, DWORD PTR _raw$[ebp]
  000a2	f3 0f 10 40 40	 movss	 xmm0, DWORD PTR [eax+64]
  000a7	f3 0f 11 45 f8	 movss	 DWORD PTR _value$[ebp], xmm0

; 230  : 
; 231  : 			break;

  000ac	eb 72		 jmp	 SHORT $LN2@get_local_
$LN7@get_local_:

; 232  : 		}
; 233  : 		////////////////////////////////////////
; 234  : 		default:
; 235  : 		////////////////////////////////////////
; 236  : 		{
; 237  : 			debug_fatal_invalid_float_type (en, type);

  000ae	83 7d 08 00	 cmp	 DWORD PTR _en$[ebp], 0
  000b2	74 0a		 je	 SHORT $LN9@get_local_
  000b4	8b 45 08	 mov	 eax, DWORD PTR _en$[ebp]
  000b7	8b 08		 mov	 ecx, DWORD PTR [eax]
  000b9	89 4d b4	 mov	 DWORD PTR tv130[ebp], ecx
  000bc	eb 21		 jmp	 SHORT $LN10@get_local_
$LN9@get_local_:
  000be	8b 15 00 00 00
	00		 mov	 edx, DWORD PTR ?__LINE__Var@?0??get_local_float_value@@YGMPAUENTITY@@W4FLOAT_TYPES@@@Z@4JA
  000c4	83 c2 2b	 add	 edx, 43			; 0000002bH
  000c7	52		 push	 edx
  000c8	68 00 00 00 00	 push	 OFFSET ??_C@_0EF@ONEJKLPD@c?3?2users?2nhv90?2projects?2eech?2ap@
  000cd	a1 00 00 00 00	 mov	 eax, DWORD PTR ?null_entity_pointer_message@@3PBDB ; null_entity_pointer_message
  000d2	50		 push	 eax
  000d3	e8 00 00 00 00	 call	 ?process_assert@@YGXPBD0H@Z ; process_assert
  000d8	c7 45 b4 00 00
	00 00		 mov	 DWORD PTR tv130[ebp], 0
$LN10@get_local_:
  000df	8b 0d 00 00 00
	00		 mov	 ecx, DWORD PTR ?__LINE__Var@?0??get_local_float_value@@YGMPAUENTITY@@W4FLOAT_TYPES@@@Z@4JA
  000e5	83 c1 2b	 add	 ecx, 43			; 0000002bH
  000e8	51		 push	 ecx
  000e9	68 00 00 00 00	 push	 OFFSET ??_C@_0EF@ONEJKLPD@c?3?2users?2nhv90?2projects?2eech?2ap@
  000ee	6b 55 0c 18	 imul	 edx, DWORD PTR _type$[ebp], 24
  000f2	8b 82 00 00 00
	00		 mov	 eax, DWORD PTR ?float_type_database@@3PAUFLOAT_TYPE_DATA@@A[edx]
  000f8	50		 push	 eax
  000f9	8b 4d 08	 mov	 ecx, DWORD PTR _en$[ebp]
  000fc	2b 0d 00 00 00
	00		 sub	 ecx, DWORD PTR ?entities@@3PAUENTITY@@A ; entities
  00102	c1 f9 04	 sar	 ecx, 4
  00105	51		 push	 ecx
  00106	6b 55 b4 0c	 imul	 edx, DWORD PTR tv130[ebp], 12
  0010a	8b 82 00 00 00
	00		 mov	 eax, DWORD PTR ?entity_type_database@@3PAUENTITY_TYPE_DATA@@A[edx]
  00110	50		 push	 eax
  00111	8b 0d 00 00 00
	00		 mov	 ecx, DWORD PTR ?debug_fatal_invalid_float_type_message@@3PBDB ; debug_fatal_invalid_float_type_message
  00117	51		 push	 ecx
  00118	e8 00 00 00 00	 call	 ?debug_fatal@@YAXPBDZZ	; debug_fatal
  0011d	83 c4 18	 add	 esp, 24			; 00000018H
$LN2@get_local_:

; 238  : 
; 239  : 			break;
; 240  : 		}
; 241  : 	}
; 242  : 
; 243  : 	return (value);

  00120	d9 45 f8	 fld	 DWORD PTR _value$[ebp]

; 244  : }

  00123	5f		 pop	 edi
  00124	5e		 pop	 esi
  00125	5b		 pop	 ebx
  00126	8b e5		 mov	 esp, ebp
  00128	5d		 pop	 ebp
  00129	c2 08 00	 ret	 8
$LN12@get_local_:
  0012c	00 00 00 00	 DD	 $LN4@get_local_
  00130	00 00 00 00	 DD	 $LN5@get_local_
  00134	00 00 00 00	 DD	 $LN6@get_local_
  00138	00 00 00 00	 DD	 $LN7@get_local_
$LN11@get_local_:
  0013c	00		 DB	 0
  0013d	03		 DB	 3
  0013e	03		 DB	 3
  0013f	03		 DB	 3
  00140	03		 DB	 3
  00141	03		 DB	 3
  00142	03		 DB	 3
  00143	03		 DB	 3
  00144	03		 DB	 3
  00145	03		 DB	 3
  00146	03		 DB	 3
  00147	03		 DB	 3
  00148	03		 DB	 3
  00149	03		 DB	 3
  0014a	03		 DB	 3
  0014b	03		 DB	 3
  0014c	03		 DB	 3
  0014d	03		 DB	 3
  0014e	03		 DB	 3
  0014f	03		 DB	 3
  00150	03		 DB	 3
  00151	03		 DB	 3
  00152	03		 DB	 3
  00153	03		 DB	 3
  00154	03		 DB	 3
  00155	03		 DB	 3
  00156	03		 DB	 3
  00157	03		 DB	 3
  00158	03		 DB	 3
  00159	03		 DB	 3
  0015a	03		 DB	 3
  0015b	03		 DB	 3
  0015c	03		 DB	 3
  0015d	03		 DB	 3
  0015e	03		 DB	 3
  0015f	03		 DB	 3
  00160	03		 DB	 3
  00161	03		 DB	 3
  00162	03		 DB	 3
  00163	03		 DB	 3
  00164	03		 DB	 3
  00165	03		 DB	 3
  00166	03		 DB	 3
  00167	03		 DB	 3
  00168	03		 DB	 3
  00169	03		 DB	 3
  0016a	01		 DB	 1
  0016b	02		 DB	 2
  0016c	03		 DB	 3
  0016d	03		 DB	 3
  0016e	03		 DB	 3
  0016f	03		 DB	 3
  00170	03		 DB	 3
  00171	03		 DB	 3
  00172	03		 DB	 3
  00173	03		 DB	 3
  00174	03		 DB	 3
  00175	03		 DB	 3
  00176	03		 DB	 3
  00177	02		 DB	 2
  00178	03		 DB	 3
  00179	03		 DB	 3
  0017a	03		 DB	 3
  0017b	03		 DB	 3
  0017c	03		 DB	 3
  0017d	03		 DB	 3
  0017e	03		 DB	 3
  0017f	03		 DB	 3
  00180	03		 DB	 3
  00181	03		 DB	 3
  00182	03		 DB	 3
  00183	03		 DB	 3
  00184	03		 DB	 3
  00185	03		 DB	 3
  00186	02		 DB	 2
  00187	03		 DB	 3
  00188	03		 DB	 3
  00189	03		 DB	 3
  0018a	03		 DB	 3
  0018b	03		 DB	 3
  0018c	03		 DB	 3
  0018d	03		 DB	 3
  0018e	03		 DB	 3
  0018f	03		 DB	 3
  00190	03		 DB	 3
  00191	03		 DB	 3
  00192	03		 DB	 3
  00193	03		 DB	 3
  00194	03		 DB	 3
  00195	03		 DB	 3
  00196	03		 DB	 3
  00197	03		 DB	 3
  00198	03		 DB	 3
  00199	03		 DB	 3
  0019a	03		 DB	 3
  0019b	03		 DB	 3
  0019c	03		 DB	 3
  0019d	03		 DB	 3
  0019e	03		 DB	 3
  0019f	03		 DB	 3
  001a0	03		 DB	 3
  001a1	03		 DB	 3
  001a2	03		 DB	 3
  001a3	03		 DB	 3
  001a4	03		 DB	 3
  001a5	03		 DB	 3
  001a6	03		 DB	 3
  001a7	03		 DB	 3
  001a8	03		 DB	 3
  001a9	03		 DB	 3
  001aa	03		 DB	 3
  001ab	03		 DB	 3
  001ac	03		 DB	 3
  001ad	03		 DB	 3
  001ae	03		 DB	 3
  001af	03		 DB	 3
  001b0	03		 DB	 3
  001b1	03		 DB	 3
  001b2	03		 DB	 3
  001b3	03		 DB	 3
  001b4	03		 DB	 3
  001b5	03		 DB	 3
  001b6	03		 DB	 3
  001b7	03		 DB	 3
  001b8	03		 DB	 3
  001b9	03		 DB	 3
  001ba	03		 DB	 3
  001bb	03		 DB	 3
  001bc	03		 DB	 3
  001bd	03		 DB	 3
  001be	03		 DB	 3
  001bf	03		 DB	 3
  001c0	03		 DB	 3
  001c1	03		 DB	 3
  001c2	03		 DB	 3
  001c3	03		 DB	 3
  001c4	03		 DB	 3
  001c5	03		 DB	 3
  001c6	03		 DB	 3
  001c7	03		 DB	 3
  001c8	03		 DB	 3
  001c9	02		 DB	 2
  001ca	02		 DB	 2
?get_local_float_value@@YGMPAUENTITY@@W4FLOAT_TYPES@@@Z ENDP ; get_local_float_value
_TEXT	ENDS
; Function compile flags: /Odtp /ZI
; File c:\users\nhv90\projects\eech\aphavoc\source\entity\mobile\mb_float.c
;	COMDAT ?set_client_float_value@@YGXPAUENTITY@@W4FLOAT_TYPES@@M@Z
_TEXT	SEGMENT
_en$ = 8						; size = 4
_type$ = 12						; size = 4
_value$ = 16						; size = 4
?set_client_float_value@@YGXPAUENTITY@@W4FLOAT_TYPES@@M@Z PROC ; set_client_float_value, COMDAT

; 174  : {

  00000	55		 push	 ebp
  00001	8b ec		 mov	 ebp, esp
  00003	83 ec 40	 sub	 esp, 64			; 00000040H
  00006	53		 push	 ebx
  00007	56		 push	 esi
  00008	57		 push	 edi

; 175  : 	if (get_comms_data_flow () == COMMS_DATA_FLOW_TX)

  00009	83 3d 00 00 00
	00 00		 cmp	 DWORD PTR ?system_comms_data_flow@@3W4COMMS_DATA_FLOW_TYPES@@A, 0 ; system_comms_data_flow
  00010	75 3b		 jne	 SHORT $LN2@set_client

; 176  : 	{
; 177  : 		validate_client_server_remote_fn ();

  00012	e8 00 00 00 00	 call	 ?assert_client_server_remote_fn@@YGHXZ ; assert_client_server_remote_fn
  00017	85 c0		 test	 eax, eax
  00019	75 18		 jne	 SHORT $LN4@set_client
  0001b	a1 00 00 00 00	 mov	 eax, DWORD PTR ?__LINE__Var@?0??set_client_float_value@@YGXPAUENTITY@@W4FLOAT_TYPES@@M@Z@4JA
  00020	83 c0 03	 add	 eax, 3
  00023	50		 push	 eax
  00024	68 00 00 00 00	 push	 OFFSET ??_C@_0EF@ONEJKLPD@c?3?2users?2nhv90?2projects?2eech?2ap@
  00029	68 00 00 00 00	 push	 OFFSET ??_C@_0CC@BNNNEGEG@assert_client_server_remote_fn?5@
  0002e	e8 00 00 00 00	 call	 ?process_assert@@YGXPBD0H@Z ; process_assert
$LN4@set_client:

; 178  : 
; 179  : 		set_remote_float_value (en, type, value);

  00033	51		 push	 ecx
  00034	f3 0f 10 45 10	 movss	 xmm0, DWORD PTR _value$[ebp]
  00039	f3 0f 11 04 24	 movss	 DWORD PTR [esp], xmm0
  0003e	8b 45 0c	 mov	 eax, DWORD PTR _type$[ebp]
  00041	50		 push	 eax
  00042	8b 4d 08	 mov	 ecx, DWORD PTR _en$[ebp]
  00045	51		 push	 ecx
  00046	e8 00 00 00 00	 call	 ?set_remote_float_value@@YGXPAUENTITY@@W4FLOAT_TYPES@@M@Z ; set_remote_float_value

; 180  : 	}
; 181  : 	else

  0004b	eb 39		 jmp	 SHORT $LN3@set_client
$LN2@set_client:

; 182  : 	{
; 183  : 		validate_client_server_local_fn ();

  0004d	e8 00 00 00 00	 call	 ?assert_client_server_local_fn@@YGHXZ ; assert_client_server_local_fn
  00052	85 c0		 test	 eax, eax
  00054	75 18		 jne	 SHORT $LN5@set_client
  00056	a1 00 00 00 00	 mov	 eax, DWORD PTR ?__LINE__Var@?0??set_client_float_value@@YGXPAUENTITY@@W4FLOAT_TYPES@@M@Z@4JA
  0005b	83 c0 09	 add	 eax, 9
  0005e	50		 push	 eax
  0005f	68 00 00 00 00	 push	 OFFSET ??_C@_0EF@ONEJKLPD@c?3?2users?2nhv90?2projects?2eech?2ap@
  00064	68 00 00 00 00	 push	 OFFSET ??_C@_0CB@CFOCLFOK@assert_client_server_local_fn?5?$CI@
  00069	e8 00 00 00 00	 call	 ?process_assert@@YGXPBD0H@Z ; process_assert
$LN5@set_client:

; 184  : 
; 185  : 		set_local_float_value (en, type, value);

  0006e	51		 push	 ecx
  0006f	f3 0f 10 45 10	 movss	 xmm0, DWORD PTR _value$[ebp]
  00074	f3 0f 11 04 24	 movss	 DWORD PTR [esp], xmm0
  00079	8b 45 0c	 mov	 eax, DWORD PTR _type$[ebp]
  0007c	50		 push	 eax
  0007d	8b 4d 08	 mov	 ecx, DWORD PTR _en$[ebp]
  00080	51		 push	 ecx
  00081	e8 00 00 00 00	 call	 ?set_local_float_value@@YGXPAUENTITY@@W4FLOAT_TYPES@@M@Z ; set_local_float_value
$LN3@set_client:

; 186  : 	}
; 187  : }

  00086	5f		 pop	 edi
  00087	5e		 pop	 esi
  00088	5b		 pop	 ebx
  00089	8b e5		 mov	 esp, ebp
  0008b	5d		 pop	 ebp
  0008c	c2 0c 00	 ret	 12			; 0000000cH
?set_client_float_value@@YGXPAUENTITY@@W4FLOAT_TYPES@@M@Z ENDP ; set_client_float_value
_TEXT	ENDS
; Function compile flags: /Odtp /ZI
; File c:\users\nhv90\projects\eech\aphavoc\source\entity\mobile\mb_float.c
;	COMDAT ?set_server_float_value@@YGXPAUENTITY@@W4FLOAT_TYPES@@M@Z
_TEXT	SEGMENT
_en$ = 8						; size = 4
_type$ = 12						; size = 4
_value$ = 16						; size = 4
?set_server_float_value@@YGXPAUENTITY@@W4FLOAT_TYPES@@M@Z PROC ; set_server_float_value, COMDAT

; 159  : {

  00000	55		 push	 ebp
  00001	8b ec		 mov	 ebp, esp
  00003	83 ec 40	 sub	 esp, 64			; 00000040H
  00006	53		 push	 ebx
  00007	56		 push	 esi
  00008	57		 push	 edi

; 160  : 	validate_client_server_local_fn ();

  00009	e8 00 00 00 00	 call	 ?assert_client_server_local_fn@@YGHXZ ; assert_client_server_local_fn
  0000e	85 c0		 test	 eax, eax
  00010	75 18		 jne	 SHORT $LN2@set_server
  00012	a1 00 00 00 00	 mov	 eax, DWORD PTR ?__LINE__Var@?0??set_server_float_value@@YGXPAUENTITY@@W4FLOAT_TYPES@@M@Z@4JA
  00017	83 c0 01	 add	 eax, 1
  0001a	50		 push	 eax
  0001b	68 00 00 00 00	 push	 OFFSET ??_C@_0EF@ONEJKLPD@c?3?2users?2nhv90?2projects?2eech?2ap@
  00020	68 00 00 00 00	 push	 OFFSET ??_C@_0CB@CFOCLFOK@assert_client_server_local_fn?5?$CI@
  00025	e8 00 00 00 00	 call	 ?process_assert@@YGXPBD0H@Z ; process_assert
$LN2@set_server:

; 161  : 
; 162  : 	set_local_float_value (en, type, value);

  0002a	51		 push	 ecx
  0002b	f3 0f 10 45 10	 movss	 xmm0, DWORD PTR _value$[ebp]
  00030	f3 0f 11 04 24	 movss	 DWORD PTR [esp], xmm0
  00035	8b 45 0c	 mov	 eax, DWORD PTR _type$[ebp]
  00038	50		 push	 eax
  00039	8b 4d 08	 mov	 ecx, DWORD PTR _en$[ebp]
  0003c	51		 push	 ecx
  0003d	e8 00 00 00 00	 call	 ?set_local_float_value@@YGXPAUENTITY@@W4FLOAT_TYPES@@M@Z ; set_local_float_value

; 163  : 
; 164  : 	validate_client_server_remote_fn ();

  00042	e8 00 00 00 00	 call	 ?assert_client_server_remote_fn@@YGHXZ ; assert_client_server_remote_fn
  00047	85 c0		 test	 eax, eax
  00049	75 18		 jne	 SHORT $LN3@set_server
  0004b	a1 00 00 00 00	 mov	 eax, DWORD PTR ?__LINE__Var@?0??set_server_float_value@@YGXPAUENTITY@@W4FLOAT_TYPES@@M@Z@4JA
  00050	83 c0 05	 add	 eax, 5
  00053	50		 push	 eax
  00054	68 00 00 00 00	 push	 OFFSET ??_C@_0EF@ONEJKLPD@c?3?2users?2nhv90?2projects?2eech?2ap@
  00059	68 00 00 00 00	 push	 OFFSET ??_C@_0CC@BNNNEGEG@assert_client_server_remote_fn?5@
  0005e	e8 00 00 00 00	 call	 ?process_assert@@YGXPBD0H@Z ; process_assert
$LN3@set_server:

; 165  : 
; 166  : 	set_remote_float_value (en, type, value);

  00063	51		 push	 ecx
  00064	f3 0f 10 45 10	 movss	 xmm0, DWORD PTR _value$[ebp]
  00069	f3 0f 11 04 24	 movss	 DWORD PTR [esp], xmm0
  0006e	8b 45 0c	 mov	 eax, DWORD PTR _type$[ebp]
  00071	50		 push	 eax
  00072	8b 4d 08	 mov	 ecx, DWORD PTR _en$[ebp]
  00075	51		 push	 ecx
  00076	e8 00 00 00 00	 call	 ?set_remote_float_value@@YGXPAUENTITY@@W4FLOAT_TYPES@@M@Z ; set_remote_float_value

; 167  : }

  0007b	5f		 pop	 edi
  0007c	5e		 pop	 esi
  0007d	5b		 pop	 ebx
  0007e	8b e5		 mov	 esp, ebp
  00080	5d		 pop	 ebp
  00081	c2 0c 00	 ret	 12			; 0000000cH
?set_server_float_value@@YGXPAUENTITY@@W4FLOAT_TYPES@@M@Z ENDP ; set_server_float_value
_TEXT	ENDS
; Function compile flags: /Odtp /ZI
; File c:\users\nhv90\projects\eech\aphavoc\source\entity\mobile\mb_float.c
;	COMDAT ?set_remote_float_value@@YGXPAUENTITY@@W4FLOAT_TYPES@@M@Z
_TEXT	SEGMENT
_en$ = 8						; size = 4
_type$ = 12						; size = 4
_value$ = 16						; size = 4
?set_remote_float_value@@YGXPAUENTITY@@W4FLOAT_TYPES@@M@Z PROC ; set_remote_float_value, COMDAT

; 144  : {

  00000	55		 push	 ebp
  00001	8b ec		 mov	 ebp, esp
  00003	83 ec 40	 sub	 esp, 64			; 00000040H
  00006	53		 push	 ebx
  00007	56		 push	 esi
  00008	57		 push	 edi

; 145  : 	#if DEBUG_MODULE
; 146  : 
; 147  : 	debug_log_entity_args (ENTITY_DEBUG_REMOTE, ENTITY_DEBUG_FLOAT_VALUE, en, type, value);
; 148  : 
; 149  : 	#endif
; 150  : 
; 151  : 	transmit_entity_comms_message (ENTITY_COMMS_FLOAT_VALUE, en, type, value);

  00009	f3 0f 5a 45 10	 cvtss2sd xmm0, DWORD PTR _value$[ebp]
  0000e	83 ec 08	 sub	 esp, 8
  00011	f2 0f 11 04 24	 movsd	 QWORD PTR [esp], xmm0
  00016	8b 45 0c	 mov	 eax, DWORD PTR _type$[ebp]
  00019	50		 push	 eax
  0001a	8b 4d 08	 mov	 ecx, DWORD PTR _en$[ebp]
  0001d	51		 push	 ecx
  0001e	6a 16		 push	 22			; 00000016H
  00020	e8 00 00 00 00	 call	 ?transmit_entity_comms_message@@YAXW4ENTITY_COMMS_MESSAGES@@PAUENTITY@@ZZ ; transmit_entity_comms_message
  00025	83 c4 14	 add	 esp, 20			; 00000014H

; 152  : }

  00028	5f		 pop	 edi
  00029	5e		 pop	 esi
  0002a	5b		 pop	 ebx
  0002b	8b e5		 mov	 esp, ebp
  0002d	5d		 pop	 ebp
  0002e	c2 0c 00	 ret	 12			; 0000000cH
?set_remote_float_value@@YGXPAUENTITY@@W4FLOAT_TYPES@@M@Z ENDP ; set_remote_float_value
_TEXT	ENDS
; Function compile flags: /Odtp /ZI
; File c:\users\nhv90\projects\eech\aphavoc\source\entity\mobile\mb_float.c
;	COMDAT ?set_local_float_value@@YGXPAUENTITY@@W4FLOAT_TYPES@@M@Z
_TEXT	SEGMENT
tv151 = -116						; size = 4
tv129 = -116						; size = 4
tv65 = -116						; size = 4
_roll$1 = -48						; size = 4
_pitch$2 = -44						; size = 4
_attitude$3 = -40					; size = 36
_raw$ = -4						; size = 4
_en$ = 8						; size = 4
_type$ = 12						; size = 4
_value$ = 16						; size = 4
?set_local_float_value@@YGXPAUENTITY@@W4FLOAT_TYPES@@M@Z PROC ; set_local_float_value, COMDAT

; 80   : {

  00000	55		 push	 ebp
  00001	8b ec		 mov	 ebp, esp
  00003	83 ec 74	 sub	 esp, 116		; 00000074H
  00006	53		 push	 ebx
  00007	56		 push	 esi
  00008	57		 push	 edi

; 81   : 	mobile
; 82   : 		*raw;
; 83   : 
; 84   : 	#if DEBUG_MODULE
; 85   : 
; 86   : 	debug_log_entity_args (ENTITY_DEBUG_LOCAL, ENTITY_DEBUG_FLOAT_VALUE, en, type, value);
; 87   : 
; 88   : 	#endif
; 89   : 
; 90   : 	raw = (mobile *) get_local_entity_data (en);

  00009	8b 45 08	 mov	 eax, DWORD PTR _en$[ebp]
  0000c	8b 48 04	 mov	 ecx, DWORD PTR [eax+4]
  0000f	89 4d fc	 mov	 DWORD PTR _raw$[ebp], ecx

; 91   : 
; 92   : 	switch (type)

  00012	8b 45 0c	 mov	 eax, DWORD PTR _type$[ebp]
  00015	89 45 8c	 mov	 DWORD PTR tv65[ebp], eax
  00018	8b 4d 8c	 mov	 ecx, DWORD PTR tv65[ebp]
  0001b	83 e9 34	 sub	 ecx, 52			; 00000034H
  0001e	89 4d 8c	 mov	 DWORD PTR tv65[ebp], ecx
  00021	83 7d 8c 60	 cmp	 DWORD PTR tv65[ebp], 96	; 00000060H
  00025	0f 87 10 01 00
	00		 ja	 $LN6@set_local_
  0002b	8b 55 8c	 mov	 edx, DWORD PTR tv65[ebp]
  0002e	0f b6 82 00 00
	00 00		 movzx	 eax, BYTE PTR $LN12@set_local_[edx]
  00035	ff 24 85 00 00
	00 00		 jmp	 DWORD PTR $LN13@set_local_[eax*4]
$LN4@set_local_:

; 93   : 	{
; 94   : 		////////////////////////////////////////
; 95   : 		case FLOAT_TYPE_HEADING:
; 96   : 		////////////////////////////////////////
; 97   : 		{
; 98   : 
; 99   : 			matrix3x3
; 100  : 				attitude;
; 101  : 
; 102  : 			float
; 103  : 				pitch,
; 104  : 				roll;
; 105  : 
; 106  : 			pitch = get_pitch_from_attitude_matrix (raw->attitude);

  0003c	b8 0c 00 00 00	 mov	 eax, 12			; 0000000cH
  00041	d1 e0		 shl	 eax, 1
  00043	8b 4d fc	 mov	 ecx, DWORD PTR _raw$[ebp]
  00046	8d 54 01 10	 lea	 edx, DWORD PTR [ecx+eax+16]
  0004a	b8 04 00 00 00	 mov	 eax, 4
  0004f	c1 e0 00	 shl	 eax, 0
  00052	51		 push	 ecx
  00053	f3 0f 10 04 02	 movss	 xmm0, DWORD PTR [edx+eax]
  00058	f3 0f 11 04 24	 movss	 DWORD PTR [esp], xmm0
  0005d	e8 00 00 00 00	 call	 ?asin@@YGMM@Z		; asin
  00062	d9 5d d4	 fstp	 DWORD PTR _pitch$2[ebp]

; 107  : 
; 108  : 			roll = get_roll_from_attitude_matrix (raw->attitude);

  00065	b8 0c 00 00 00	 mov	 eax, 12			; 0000000cH
  0006a	c1 e0 00	 shl	 eax, 0
  0006d	8b 4d fc	 mov	 ecx, DWORD PTR _raw$[ebp]
  00070	8d 54 01 10	 lea	 edx, DWORD PTR [ecx+eax+16]
  00074	b8 04 00 00 00	 mov	 eax, 4
  00079	c1 e0 00	 shl	 eax, 0
  0007c	51		 push	 ecx
  0007d	f3 0f 10 04 02	 movss	 xmm0, DWORD PTR [edx+eax]
  00082	f3 0f 11 04 24	 movss	 DWORD PTR [esp], xmm0
  00087	b9 0c 00 00 00	 mov	 ecx, 12			; 0000000cH
  0008c	6b d1 00	 imul	 edx, ecx, 0
  0008f	8b 45 fc	 mov	 eax, DWORD PTR _raw$[ebp]
  00092	8d 4c 10 10	 lea	 ecx, DWORD PTR [eax+edx+16]
  00096	ba 04 00 00 00	 mov	 edx, 4
  0009b	c1 e2 00	 shl	 edx, 0
  0009e	f3 0f 10 04 11	 movss	 xmm0, DWORD PTR [ecx+edx]
  000a3	0f 57 05 00 00
	00 00		 xorps	 xmm0, DWORD PTR __xmm@80000000800000008000000080000000
  000aa	51		 push	 ecx
  000ab	f3 0f 11 04 24	 movss	 DWORD PTR [esp], xmm0
  000b0	e8 00 00 00 00	 call	 ?atan2@@YGMMM@Z		; atan2
  000b5	d9 5d d0	 fstp	 DWORD PTR _roll$1[ebp]

; 109  : 
; 110  : 			get_3d_transformation_matrix (attitude, value, pitch, roll);

  000b8	51		 push	 ecx
  000b9	f3 0f 10 45 d0	 movss	 xmm0, DWORD PTR _roll$1[ebp]
  000be	f3 0f 11 04 24	 movss	 DWORD PTR [esp], xmm0
  000c3	51		 push	 ecx
  000c4	f3 0f 10 45 d4	 movss	 xmm0, DWORD PTR _pitch$2[ebp]
  000c9	f3 0f 11 04 24	 movss	 DWORD PTR [esp], xmm0
  000ce	51		 push	 ecx
  000cf	f3 0f 10 45 10	 movss	 xmm0, DWORD PTR _value$[ebp]
  000d4	f3 0f 11 04 24	 movss	 DWORD PTR [esp], xmm0
  000d9	8d 45 d8	 lea	 eax, DWORD PTR _attitude$3[ebp]
  000dc	50		 push	 eax
  000dd	e8 00 00 00 00	 call	 ?get_3d_transformation_matrix@@YGXQAY02MMMM@Z ; get_3d_transformation_matrix

; 111  : 
; 112  : 			set_local_entity_attitude_matrix (en, attitude);

  000e2	83 7d 08 00	 cmp	 DWORD PTR _en$[ebp], 0
  000e6	74 0a		 je	 SHORT $LN8@set_local_
  000e8	8b 45 08	 mov	 eax, DWORD PTR _en$[ebp]
  000eb	8b 08		 mov	 ecx, DWORD PTR [eax]
  000ed	89 4d 8c	 mov	 DWORD PTR tv129[ebp], ecx
  000f0	eb 21		 jmp	 SHORT $LN9@set_local_
$LN8@set_local_:
  000f2	8b 15 00 00 00
	00		 mov	 edx, DWORD PTR ?__LINE__Var@?0??set_local_float_value@@YGXPAUENTITY@@W4FLOAT_TYPES@@M@Z@4JA
  000f8	83 c2 20	 add	 edx, 32			; 00000020H
  000fb	52		 push	 edx
  000fc	68 00 00 00 00	 push	 OFFSET ??_C@_0EF@ONEJKLPD@c?3?2users?2nhv90?2projects?2eech?2ap@
  00101	a1 00 00 00 00	 mov	 eax, DWORD PTR ?null_entity_pointer_message@@3PBDB ; null_entity_pointer_message
  00106	50		 push	 eax
  00107	e8 00 00 00 00	 call	 ?process_assert@@YGXPBD0H@Z ; process_assert
  0010c	c7 45 8c 00 00
	00 00		 mov	 DWORD PTR tv129[ebp], 0
$LN9@set_local_:
  00113	8d 4d d8	 lea	 ecx, DWORD PTR _attitude$3[ebp]
  00116	51		 push	 ecx
  00117	8b 55 08	 mov	 edx, DWORD PTR _en$[ebp]
  0011a	52		 push	 edx
  0011b	8b 45 8c	 mov	 eax, DWORD PTR tv129[ebp]
  0011e	8b 0c 85 00 00
	00 00		 mov	 ecx, DWORD PTR ?fn_set_local_entity_attitude_matrix@@3PAP6GXPAUENTITY@@QAY02M@ZA[eax*4]
  00125	ff d1		 call	 ecx

; 113  : 
; 114  : 			break;

  00127	e9 81 00 00 00	 jmp	 $LN2@set_local_
$LN5@set_local_:

; 115  : 		}
; 116  : 		////////////////////////////////////////
; 117  : 		case FLOAT_TYPE_HIGH_VELOCITY:
; 118  : 		case FLOAT_TYPE_LOW_VELOCITY:
; 119  : 		case FLOAT_TYPE_MEDIUM_VELOCITY:
; 120  : 		case FLOAT_TYPE_VELOCITY:
; 121  : 		case FLOAT_TYPE_VERY_HIGH_VELOCITY:
; 122  : 		////////////////////////////////////////
; 123  : 		{
; 124  : 			raw->velocity = value;

  0012c	8b 45 fc	 mov	 eax, DWORD PTR _raw$[ebp]
  0012f	f3 0f 10 45 10	 movss	 xmm0, DWORD PTR _value$[ebp]
  00134	f3 0f 11 40 40	 movss	 DWORD PTR [eax+64], xmm0

; 125  : 
; 126  : 			break;

  00139	eb 72		 jmp	 SHORT $LN2@set_local_
$LN6@set_local_:

; 127  : 		}
; 128  : 		////////////////////////////////////////
; 129  : 		default:
; 130  : 		////////////////////////////////////////
; 131  : 		{
; 132  : 			debug_fatal_invalid_float_type (en, type);

  0013b	83 7d 08 00	 cmp	 DWORD PTR _en$[ebp], 0
  0013f	74 0a		 je	 SHORT $LN10@set_local_
  00141	8b 45 08	 mov	 eax, DWORD PTR _en$[ebp]
  00144	8b 08		 mov	 ecx, DWORD PTR [eax]
  00146	89 4d 8c	 mov	 DWORD PTR tv151[ebp], ecx
  00149	eb 21		 jmp	 SHORT $LN11@set_local_
$LN10@set_local_:
  0014b	8b 15 00 00 00
	00		 mov	 edx, DWORD PTR ?__LINE__Var@?0??set_local_float_value@@YGXPAUENTITY@@W4FLOAT_TYPES@@M@Z@4JA
  00151	83 c2 34	 add	 edx, 52			; 00000034H
  00154	52		 push	 edx
  00155	68 00 00 00 00	 push	 OFFSET ??_C@_0EF@ONEJKLPD@c?3?2users?2nhv90?2projects?2eech?2ap@
  0015a	a1 00 00 00 00	 mov	 eax, DWORD PTR ?null_entity_pointer_message@@3PBDB ; null_entity_pointer_message
  0015f	50		 push	 eax
  00160	e8 00 00 00 00	 call	 ?process_assert@@YGXPBD0H@Z ; process_assert
  00165	c7 45 8c 00 00
	00 00		 mov	 DWORD PTR tv151[ebp], 0
$LN11@set_local_:
  0016c	8b 0d 00 00 00
	00		 mov	 ecx, DWORD PTR ?__LINE__Var@?0??set_local_float_value@@YGXPAUENTITY@@W4FLOAT_TYPES@@M@Z@4JA
  00172	83 c1 34	 add	 ecx, 52			; 00000034H
  00175	51		 push	 ecx
  00176	68 00 00 00 00	 push	 OFFSET ??_C@_0EF@ONEJKLPD@c?3?2users?2nhv90?2projects?2eech?2ap@
  0017b	6b 55 0c 18	 imul	 edx, DWORD PTR _type$[ebp], 24
  0017f	8b 82 00 00 00
	00		 mov	 eax, DWORD PTR ?float_type_database@@3PAUFLOAT_TYPE_DATA@@A[edx]
  00185	50		 push	 eax
  00186	8b 4d 08	 mov	 ecx, DWORD PTR _en$[ebp]
  00189	2b 0d 00 00 00
	00		 sub	 ecx, DWORD PTR ?entities@@3PAUENTITY@@A ; entities
  0018f	c1 f9 04	 sar	 ecx, 4
  00192	51		 push	 ecx
  00193	6b 55 8c 0c	 imul	 edx, DWORD PTR tv151[ebp], 12
  00197	8b 82 00 00 00
	00		 mov	 eax, DWORD PTR ?entity_type_database@@3PAUENTITY_TYPE_DATA@@A[edx]
  0019d	50		 push	 eax
  0019e	8b 0d 00 00 00
	00		 mov	 ecx, DWORD PTR ?debug_fatal_invalid_float_type_message@@3PBDB ; debug_fatal_invalid_float_type_message
  001a4	51		 push	 ecx
  001a5	e8 00 00 00 00	 call	 ?debug_fatal@@YAXPBDZZ	; debug_fatal
  001aa	83 c4 18	 add	 esp, 24			; 00000018H
$LN2@set_local_:

; 133  : 
; 134  : 			break;
; 135  : 		}
; 136  : 	}
; 137  : }

  001ad	5f		 pop	 edi
  001ae	5e		 pop	 esi
  001af	5b		 pop	 ebx
  001b0	8b e5		 mov	 esp, ebp
  001b2	5d		 pop	 ebp
  001b3	c2 0c 00	 ret	 12			; 0000000cH
  001b6	66 90		 npad	 2
$LN13@set_local_:
  001b8	00 00 00 00	 DD	 $LN4@set_local_
  001bc	00 00 00 00	 DD	 $LN5@set_local_
  001c0	00 00 00 00	 DD	 $LN6@set_local_
$LN12@set_local_:
  001c4	00		 DB	 0
  001c5	01		 DB	 1
  001c6	02		 DB	 2
  001c7	02		 DB	 2
  001c8	02		 DB	 2
  001c9	02		 DB	 2
  001ca	02		 DB	 2
  001cb	02		 DB	 2
  001cc	02		 DB	 2
  001cd	02		 DB	 2
  001ce	02		 DB	 2
  001cf	02		 DB	 2
  001d0	02		 DB	 2
  001d1	01		 DB	 1
  001d2	02		 DB	 2
  001d3	02		 DB	 2
  001d4	02		 DB	 2
  001d5	02		 DB	 2
  001d6	02		 DB	 2
  001d7	02		 DB	 2
  001d8	02		 DB	 2
  001d9	02		 DB	 2
  001da	02		 DB	 2
  001db	02		 DB	 2
  001dc	02		 DB	 2
  001dd	02		 DB	 2
  001de	02		 DB	 2
  001df	02		 DB	 2
  001e0	01		 DB	 1
  001e1	02		 DB	 2
  001e2	02		 DB	 2
  001e3	02		 DB	 2
  001e4	02		 DB	 2
  001e5	02		 DB	 2
  001e6	02		 DB	 2
  001e7	02		 DB	 2
  001e8	02		 DB	 2
  001e9	02		 DB	 2
  001ea	02		 DB	 2
  001eb	02		 DB	 2
  001ec	02		 DB	 2
  001ed	02		 DB	 2
  001ee	02		 DB	 2
  001ef	02		 DB	 2
  001f0	02		 DB	 2
  001f1	02		 DB	 2
  001f2	02		 DB	 2
  001f3	02		 DB	 2
  001f4	02		 DB	 2
  001f5	02		 DB	 2
  001f6	02		 DB	 2
  001f7	02		 DB	 2
  001f8	02		 DB	 2
  001f9	02		 DB	 2
  001fa	02		 DB	 2
  001fb	02		 DB	 2
  001fc	02		 DB	 2
  001fd	02		 DB	 2
  001fe	02		 DB	 2
  001ff	02		 DB	 2
  00200	02		 DB	 2
  00201	02		 DB	 2
  00202	02		 DB	 2
  00203	02		 DB	 2
  00204	02		 DB	 2
  00205	02		 DB	 2
  00206	02		 DB	 2
  00207	02		 DB	 2
  00208	02		 DB	 2
  00209	02		 DB	 2
  0020a	02		 DB	 2
  0020b	02		 DB	 2
  0020c	02		 DB	 2
  0020d	02		 DB	 2
  0020e	02		 DB	 2
  0020f	02		 DB	 2
  00210	02		 DB	 2
  00211	02		 DB	 2
  00212	02		 DB	 2
  00213	02		 DB	 2
  00214	02		 DB	 2
  00215	02		 DB	 2
  00216	02		 DB	 2
  00217	02		 DB	 2
  00218	02		 DB	 2
  00219	02		 DB	 2
  0021a	02		 DB	 2
  0021b	02		 DB	 2
  0021c	02		 DB	 2
  0021d	02		 DB	 2
  0021e	02		 DB	 2
  0021f	02		 DB	 2
  00220	02		 DB	 2
  00221	02		 DB	 2
  00222	02		 DB	 2
  00223	01		 DB	 1
  00224	01		 DB	 1
?set_local_float_value@@YGXPAUENTITY@@W4FLOAT_TYPES@@M@Z ENDP ; set_local_float_value
_TEXT	ENDS
; Function compile flags: /Odtp /ZI
; File c:\users\nhv90\projects\eech\aphavoc\source\entity\mobile\mb_float.c
;	COMDAT ?overload_mobile_float_value_functions@@YGXW4ENTITY_TYPES@@@Z
_TEXT	SEGMENT
_type$ = 8						; size = 4
?overload_mobile_float_value_functions@@YGXW4ENTITY_TYPES@@@Z PROC ; overload_mobile_float_value_functions, COMDAT

; 251  : {

  00000	55		 push	 ebp
  00001	8b ec		 mov	 ebp, esp
  00003	83 ec 40	 sub	 esp, 64			; 00000040H
  00006	53		 push	 ebx
  00007	56		 push	 esi
  00008	57		 push	 edi

; 252  : 	fn_get_local_entity_float_value				[type][FLOAT_TYPE_ALTITUDE]											= get_local_float_value;

  00009	69 45 08 bc 02
	00 00		 imul	 eax, DWORD PTR _type$[ebp], 700
  00010	b9 04 00 00 00	 mov	 ecx, 4
  00015	6b d1 06	 imul	 edx, ecx, 6
  00018	c7 84 10 00 00
	00 00 00 00 00
	00		 mov	 DWORD PTR ?fn_get_local_entity_float_value@@3PAY0KP@P6GMPAUENTITY@@W4FLOAT_TYPES@@@ZA[eax+edx], OFFSET ?get_local_float_value@@YGMPAUENTITY@@W4FLOAT_TYPES@@@Z ; get_local_float_value

; 253  : 
; 254  : 	fn_set_local_entity_float_value				[type][FLOAT_TYPE_HEADING]												= set_local_float_value;

  00023	69 45 08 bc 02
	00 00		 imul	 eax, DWORD PTR _type$[ebp], 700
  0002a	b9 04 00 00 00	 mov	 ecx, 4
  0002f	6b d1 34	 imul	 edx, ecx, 52
  00032	c7 84 10 00 00
	00 00 00 00 00
	00		 mov	 DWORD PTR ?fn_set_local_entity_float_value@@3PAY0KP@P6GXPAUENTITY@@W4FLOAT_TYPES@@M@ZA[eax+edx], OFFSET ?set_local_float_value@@YGXPAUENTITY@@W4FLOAT_TYPES@@M@Z ; set_local_float_value

; 255  : 	fn_set_client_server_entity_float_value	[type][FLOAT_TYPE_HEADING][COMMS_MODEL_SERVER]					= set_server_float_value;

  0003d	69 45 08 78 05
	00 00		 imul	 eax, DWORD PTR _type$[ebp], 1400
  00044	b9 08 00 00 00	 mov	 ecx, 8
  00049	6b d1 34	 imul	 edx, ecx, 52
  0004c	8d 84 10 00 00
	00 00		 lea	 eax, DWORD PTR ?fn_set_client_server_entity_float_value@@3PAY1KP@1P6GXPAUENTITY@@W4FLOAT_TYPES@@M@ZA[eax+edx]
  00053	b9 04 00 00 00	 mov	 ecx, 4
  00058	6b d1 00	 imul	 edx, ecx, 0
  0005b	c7 04 10 00 00
	00 00		 mov	 DWORD PTR [eax+edx], OFFSET ?set_server_float_value@@YGXPAUENTITY@@W4FLOAT_TYPES@@M@Z ; set_server_float_value

; 256  : 	fn_set_client_server_entity_float_value	[type][FLOAT_TYPE_HEADING][COMMS_MODEL_CLIENT]					= set_client_float_value;

  00062	69 45 08 78 05
	00 00		 imul	 eax, DWORD PTR _type$[ebp], 1400
  00069	b9 08 00 00 00	 mov	 ecx, 8
  0006e	6b d1 34	 imul	 edx, ecx, 52
  00071	8d 84 10 00 00
	00 00		 lea	 eax, DWORD PTR ?fn_set_client_server_entity_float_value@@3PAY1KP@1P6GXPAUENTITY@@W4FLOAT_TYPES@@M@ZA[eax+edx]
  00078	b9 04 00 00 00	 mov	 ecx, 4
  0007d	c1 e1 00	 shl	 ecx, 0
  00080	c7 04 08 00 00
	00 00		 mov	 DWORD PTR [eax+ecx], OFFSET ?set_client_float_value@@YGXPAUENTITY@@W4FLOAT_TYPES@@M@Z ; set_client_float_value

; 257  : 	fn_get_local_entity_float_value				[type][FLOAT_TYPE_HEADING]												= get_local_float_value;

  00087	69 45 08 bc 02
	00 00		 imul	 eax, DWORD PTR _type$[ebp], 700
  0008e	b9 04 00 00 00	 mov	 ecx, 4
  00093	6b d1 34	 imul	 edx, ecx, 52
  00096	c7 84 10 00 00
	00 00 00 00 00
	00		 mov	 DWORD PTR ?fn_get_local_entity_float_value@@3PAY0KP@P6GMPAUENTITY@@W4FLOAT_TYPES@@@ZA[eax+edx], OFFSET ?get_local_float_value@@YGMPAUENTITY@@W4FLOAT_TYPES@@@Z ; get_local_float_value

; 258  : 
; 259  : 	fn_set_local_entity_raw_float_value			[type][FLOAT_TYPE_HIGH_VELOCITY]											= set_local_float_value;

  000a1	69 45 08 bc 02
	00 00		 imul	 eax, DWORD PTR _type$[ebp], 700
  000a8	b9 04 00 00 00	 mov	 ecx, 4
  000ad	6b d1 35	 imul	 edx, ecx, 53
  000b0	c7 84 10 00 00
	00 00 00 00 00
	00		 mov	 DWORD PTR ?fn_set_local_entity_raw_float_value@@3PAY0KP@P6GXPAUENTITY@@W4FLOAT_TYPES@@M@ZA[eax+edx], OFFSET ?set_local_float_value@@YGXPAUENTITY@@W4FLOAT_TYPES@@M@Z ; set_local_float_value

; 260  : 	fn_set_local_entity_float_value				[type][FLOAT_TYPE_HIGH_VELOCITY]											= set_local_float_value;

  000bb	69 45 08 bc 02
	00 00		 imul	 eax, DWORD PTR _type$[ebp], 700
  000c2	b9 04 00 00 00	 mov	 ecx, 4
  000c7	6b d1 35	 imul	 edx, ecx, 53
  000ca	c7 84 10 00 00
	00 00 00 00 00
	00		 mov	 DWORD PTR ?fn_set_local_entity_float_value@@3PAY0KP@P6GXPAUENTITY@@W4FLOAT_TYPES@@M@ZA[eax+edx], OFFSET ?set_local_float_value@@YGXPAUENTITY@@W4FLOAT_TYPES@@M@Z ; set_local_float_value

; 261  : 	fn_set_client_server_entity_float_value	[type][FLOAT_TYPE_HIGH_VELOCITY][COMMS_MODEL_SERVER]					= set_server_float_value;

  000d5	69 45 08 78 05
	00 00		 imul	 eax, DWORD PTR _type$[ebp], 1400
  000dc	b9 08 00 00 00	 mov	 ecx, 8
  000e1	6b d1 35	 imul	 edx, ecx, 53
  000e4	8d 84 10 00 00
	00 00		 lea	 eax, DWORD PTR ?fn_set_client_server_entity_float_value@@3PAY1KP@1P6GXPAUENTITY@@W4FLOAT_TYPES@@M@ZA[eax+edx]
  000eb	b9 04 00 00 00	 mov	 ecx, 4
  000f0	6b d1 00	 imul	 edx, ecx, 0
  000f3	c7 04 10 00 00
	00 00		 mov	 DWORD PTR [eax+edx], OFFSET ?set_server_float_value@@YGXPAUENTITY@@W4FLOAT_TYPES@@M@Z ; set_server_float_value

; 262  : 	fn_set_client_server_entity_float_value	[type][FLOAT_TYPE_HIGH_VELOCITY][COMMS_MODEL_CLIENT]					= set_client_float_value;

  000fa	69 45 08 78 05
	00 00		 imul	 eax, DWORD PTR _type$[ebp], 1400
  00101	b9 08 00 00 00	 mov	 ecx, 8
  00106	6b d1 35	 imul	 edx, ecx, 53
  00109	8d 84 10 00 00
	00 00		 lea	 eax, DWORD PTR ?fn_set_client_server_entity_float_value@@3PAY1KP@1P6GXPAUENTITY@@W4FLOAT_TYPES@@M@ZA[eax+edx]
  00110	b9 04 00 00 00	 mov	 ecx, 4
  00115	c1 e1 00	 shl	 ecx, 0
  00118	c7 04 08 00 00
	00 00		 mov	 DWORD PTR [eax+ecx], OFFSET ?set_client_float_value@@YGXPAUENTITY@@W4FLOAT_TYPES@@M@Z ; set_client_float_value

; 263  : 	fn_get_local_entity_float_value				[type][FLOAT_TYPE_HIGH_VELOCITY]											= get_local_float_value;

  0011f	69 45 08 bc 02
	00 00		 imul	 eax, DWORD PTR _type$[ebp], 700
  00126	b9 04 00 00 00	 mov	 ecx, 4
  0012b	6b d1 35	 imul	 edx, ecx, 53
  0012e	c7 84 10 00 00
	00 00 00 00 00
	00		 mov	 DWORD PTR ?fn_get_local_entity_float_value@@3PAY0KP@P6GMPAUENTITY@@W4FLOAT_TYPES@@@ZA[eax+edx], OFFSET ?get_local_float_value@@YGMPAUENTITY@@W4FLOAT_TYPES@@@Z ; get_local_float_value

; 264  : 
; 265  : 	fn_set_local_entity_raw_float_value			[type][FLOAT_TYPE_LOW_VELOCITY]											= set_local_float_value;

  00139	69 45 08 bc 02
	00 00		 imul	 eax, DWORD PTR _type$[ebp], 700
  00140	b9 04 00 00 00	 mov	 ecx, 4
  00145	6b d1 41	 imul	 edx, ecx, 65
  00148	c7 84 10 00 00
	00 00 00 00 00
	00		 mov	 DWORD PTR ?fn_set_local_entity_raw_float_value@@3PAY0KP@P6GXPAUENTITY@@W4FLOAT_TYPES@@M@ZA[eax+edx], OFFSET ?set_local_float_value@@YGXPAUENTITY@@W4FLOAT_TYPES@@M@Z ; set_local_float_value

; 266  : 	fn_set_local_entity_float_value				[type][FLOAT_TYPE_LOW_VELOCITY]											= set_local_float_value;

  00153	69 45 08 bc 02
	00 00		 imul	 eax, DWORD PTR _type$[ebp], 700
  0015a	b9 04 00 00 00	 mov	 ecx, 4
  0015f	6b d1 41	 imul	 edx, ecx, 65
  00162	c7 84 10 00 00
	00 00 00 00 00
	00		 mov	 DWORD PTR ?fn_set_local_entity_float_value@@3PAY0KP@P6GXPAUENTITY@@W4FLOAT_TYPES@@M@ZA[eax+edx], OFFSET ?set_local_float_value@@YGXPAUENTITY@@W4FLOAT_TYPES@@M@Z ; set_local_float_value

; 267  : 	fn_set_client_server_entity_float_value	[type][FLOAT_TYPE_LOW_VELOCITY][COMMS_MODEL_SERVER]					= set_server_float_value;

  0016d	69 45 08 78 05
	00 00		 imul	 eax, DWORD PTR _type$[ebp], 1400
  00174	b9 08 00 00 00	 mov	 ecx, 8
  00179	6b d1 41	 imul	 edx, ecx, 65
  0017c	8d 84 10 00 00
	00 00		 lea	 eax, DWORD PTR ?fn_set_client_server_entity_float_value@@3PAY1KP@1P6GXPAUENTITY@@W4FLOAT_TYPES@@M@ZA[eax+edx]
  00183	b9 04 00 00 00	 mov	 ecx, 4
  00188	6b d1 00	 imul	 edx, ecx, 0
  0018b	c7 04 10 00 00
	00 00		 mov	 DWORD PTR [eax+edx], OFFSET ?set_server_float_value@@YGXPAUENTITY@@W4FLOAT_TYPES@@M@Z ; set_server_float_value

; 268  : 	fn_set_client_server_entity_float_value	[type][FLOAT_TYPE_LOW_VELOCITY][COMMS_MODEL_CLIENT]					= set_client_float_value;

  00192	69 45 08 78 05
	00 00		 imul	 eax, DWORD PTR _type$[ebp], 1400
  00199	b9 08 00 00 00	 mov	 ecx, 8
  0019e	6b d1 41	 imul	 edx, ecx, 65
  001a1	8d 84 10 00 00
	00 00		 lea	 eax, DWORD PTR ?fn_set_client_server_entity_float_value@@3PAY1KP@1P6GXPAUENTITY@@W4FLOAT_TYPES@@M@ZA[eax+edx]
  001a8	b9 04 00 00 00	 mov	 ecx, 4
  001ad	c1 e1 00	 shl	 ecx, 0
  001b0	c7 04 08 00 00
	00 00		 mov	 DWORD PTR [eax+ecx], OFFSET ?set_client_float_value@@YGXPAUENTITY@@W4FLOAT_TYPES@@M@Z ; set_client_float_value

; 269  : 	fn_get_local_entity_float_value				[type][FLOAT_TYPE_LOW_VELOCITY]											= get_local_float_value;

  001b7	69 45 08 bc 02
	00 00		 imul	 eax, DWORD PTR _type$[ebp], 700
  001be	b9 04 00 00 00	 mov	 ecx, 4
  001c3	6b d1 41	 imul	 edx, ecx, 65
  001c6	c7 84 10 00 00
	00 00 00 00 00
	00		 mov	 DWORD PTR ?fn_get_local_entity_float_value@@3PAY0KP@P6GMPAUENTITY@@W4FLOAT_TYPES@@@ZA[eax+edx], OFFSET ?get_local_float_value@@YGMPAUENTITY@@W4FLOAT_TYPES@@@Z ; get_local_float_value

; 270  : 
; 271  : 	fn_set_local_entity_raw_float_value			[type][FLOAT_TYPE_MEDIUM_VELOCITY]											= set_local_float_value;

  001d1	69 45 08 bc 02
	00 00		 imul	 eax, DWORD PTR _type$[ebp], 700
  001d8	b9 04 00 00 00	 mov	 ecx, 4
  001dd	6b d1 50	 imul	 edx, ecx, 80
  001e0	c7 84 10 00 00
	00 00 00 00 00
	00		 mov	 DWORD PTR ?fn_set_local_entity_raw_float_value@@3PAY0KP@P6GXPAUENTITY@@W4FLOAT_TYPES@@M@ZA[eax+edx], OFFSET ?set_local_float_value@@YGXPAUENTITY@@W4FLOAT_TYPES@@M@Z ; set_local_float_value

; 272  : 	fn_set_local_entity_float_value				[type][FLOAT_TYPE_MEDIUM_VELOCITY]											= set_local_float_value;

  001eb	69 45 08 bc 02
	00 00		 imul	 eax, DWORD PTR _type$[ebp], 700
  001f2	b9 04 00 00 00	 mov	 ecx, 4
  001f7	6b d1 50	 imul	 edx, ecx, 80
  001fa	c7 84 10 00 00
	00 00 00 00 00
	00		 mov	 DWORD PTR ?fn_set_local_entity_float_value@@3PAY0KP@P6GXPAUENTITY@@W4FLOAT_TYPES@@M@ZA[eax+edx], OFFSET ?set_local_float_value@@YGXPAUENTITY@@W4FLOAT_TYPES@@M@Z ; set_local_float_value

; 273  : 	fn_set_client_server_entity_float_value	[type][FLOAT_TYPE_MEDIUM_VELOCITY][COMMS_MODEL_SERVER]					= set_server_float_value;

  00205	69 45 08 78 05
	00 00		 imul	 eax, DWORD PTR _type$[ebp], 1400
  0020c	b9 08 00 00 00	 mov	 ecx, 8
  00211	6b d1 50	 imul	 edx, ecx, 80
  00214	8d 84 10 00 00
	00 00		 lea	 eax, DWORD PTR ?fn_set_client_server_entity_float_value@@3PAY1KP@1P6GXPAUENTITY@@W4FLOAT_TYPES@@M@ZA[eax+edx]
  0021b	b9 04 00 00 00	 mov	 ecx, 4
  00220	6b d1 00	 imul	 edx, ecx, 0
  00223	c7 04 10 00 00
	00 00		 mov	 DWORD PTR [eax+edx], OFFSET ?set_server_float_value@@YGXPAUENTITY@@W4FLOAT_TYPES@@M@Z ; set_server_float_value

; 274  : 	fn_set_client_server_entity_float_value	[type][FLOAT_TYPE_MEDIUM_VELOCITY][COMMS_MODEL_CLIENT]					= set_client_float_value;

  0022a	69 45 08 78 05
	00 00		 imul	 eax, DWORD PTR _type$[ebp], 1400
  00231	b9 08 00 00 00	 mov	 ecx, 8
  00236	6b d1 50	 imul	 edx, ecx, 80
  00239	8d 84 10 00 00
	00 00		 lea	 eax, DWORD PTR ?fn_set_client_server_entity_float_value@@3PAY1KP@1P6GXPAUENTITY@@W4FLOAT_TYPES@@M@ZA[eax+edx]
  00240	b9 04 00 00 00	 mov	 ecx, 4
  00245	c1 e1 00	 shl	 ecx, 0
  00248	c7 04 08 00 00
	00 00		 mov	 DWORD PTR [eax+ecx], OFFSET ?set_client_float_value@@YGXPAUENTITY@@W4FLOAT_TYPES@@M@Z ; set_client_float_value

; 275  : 	fn_get_local_entity_float_value				[type][FLOAT_TYPE_MEDIUM_VELOCITY]											= get_local_float_value;

  0024f	69 45 08 bc 02
	00 00		 imul	 eax, DWORD PTR _type$[ebp], 700
  00256	b9 04 00 00 00	 mov	 ecx, 4
  0025b	6b d1 50	 imul	 edx, ecx, 80
  0025e	c7 84 10 00 00
	00 00 00 00 00
	00		 mov	 DWORD PTR ?fn_get_local_entity_float_value@@3PAY0KP@P6GMPAUENTITY@@W4FLOAT_TYPES@@@ZA[eax+edx], OFFSET ?get_local_float_value@@YGMPAUENTITY@@W4FLOAT_TYPES@@@Z ; get_local_float_value

; 276  : 
; 277  : 	fn_set_local_entity_raw_float_value			[type][FLOAT_TYPE_VELOCITY]											= set_local_float_value;

  00269	69 45 08 bc 02
	00 00		 imul	 eax, DWORD PTR _type$[ebp], 700
  00270	b9 04 00 00 00	 mov	 ecx, 4
  00275	69 d1 93 00 00
	00		 imul	 edx, ecx, 147
  0027b	c7 84 10 00 00
	00 00 00 00 00
	00		 mov	 DWORD PTR ?fn_set_local_entity_raw_float_value@@3PAY0KP@P6GXPAUENTITY@@W4FLOAT_TYPES@@M@ZA[eax+edx], OFFSET ?set_local_float_value@@YGXPAUENTITY@@W4FLOAT_TYPES@@M@Z ; set_local_float_value

; 278  : 	fn_set_local_entity_float_value				[type][FLOAT_TYPE_VELOCITY]											= set_local_float_value;

  00286	69 45 08 bc 02
	00 00		 imul	 eax, DWORD PTR _type$[ebp], 700
  0028d	b9 04 00 00 00	 mov	 ecx, 4
  00292	69 d1 93 00 00
	00		 imul	 edx, ecx, 147
  00298	c7 84 10 00 00
	00 00 00 00 00
	00		 mov	 DWORD PTR ?fn_set_local_entity_float_value@@3PAY0KP@P6GXPAUENTITY@@W4FLOAT_TYPES@@M@ZA[eax+edx], OFFSET ?set_local_float_value@@YGXPAUENTITY@@W4FLOAT_TYPES@@M@Z ; set_local_float_value

; 279  : 	fn_set_client_server_entity_float_value	[type][FLOAT_TYPE_VELOCITY][COMMS_MODEL_SERVER]					= set_server_float_value;

  002a3	69 45 08 78 05
	00 00		 imul	 eax, DWORD PTR _type$[ebp], 1400
  002aa	b9 08 00 00 00	 mov	 ecx, 8
  002af	69 d1 93 00 00
	00		 imul	 edx, ecx, 147
  002b5	8d 84 10 00 00
	00 00		 lea	 eax, DWORD PTR ?fn_set_client_server_entity_float_value@@3PAY1KP@1P6GXPAUENTITY@@W4FLOAT_TYPES@@M@ZA[eax+edx]
  002bc	b9 04 00 00 00	 mov	 ecx, 4
  002c1	6b d1 00	 imul	 edx, ecx, 0
  002c4	c7 04 10 00 00
	00 00		 mov	 DWORD PTR [eax+edx], OFFSET ?set_server_float_value@@YGXPAUENTITY@@W4FLOAT_TYPES@@M@Z ; set_server_float_value

; 280  : 	fn_set_client_server_entity_float_value	[type][FLOAT_TYPE_VELOCITY][COMMS_MODEL_CLIENT]					= set_client_float_value;

  002cb	69 45 08 78 05
	00 00		 imul	 eax, DWORD PTR _type$[ebp], 1400
  002d2	b9 08 00 00 00	 mov	 ecx, 8
  002d7	69 d1 93 00 00
	00		 imul	 edx, ecx, 147
  002dd	8d 84 10 00 00
	00 00		 lea	 eax, DWORD PTR ?fn_set_client_server_entity_float_value@@3PAY1KP@1P6GXPAUENTITY@@W4FLOAT_TYPES@@M@ZA[eax+edx]
  002e4	b9 04 00 00 00	 mov	 ecx, 4
  002e9	c1 e1 00	 shl	 ecx, 0
  002ec	c7 04 08 00 00
	00 00		 mov	 DWORD PTR [eax+ecx], OFFSET ?set_client_float_value@@YGXPAUENTITY@@W4FLOAT_TYPES@@M@Z ; set_client_float_value

; 281  : 	fn_get_local_entity_float_value				[type][FLOAT_TYPE_VELOCITY]											= get_local_float_value;

  002f3	69 45 08 bc 02
	00 00		 imul	 eax, DWORD PTR _type$[ebp], 700
  002fa	b9 04 00 00 00	 mov	 ecx, 4
  002ff	69 d1 93 00 00
	00		 imul	 edx, ecx, 147
  00305	c7 84 10 00 00
	00 00 00 00 00
	00		 mov	 DWORD PTR ?fn_get_local_entity_float_value@@3PAY0KP@P6GMPAUENTITY@@W4FLOAT_TYPES@@@ZA[eax+edx], OFFSET ?get_local_float_value@@YGMPAUENTITY@@W4FLOAT_TYPES@@@Z ; get_local_float_value

; 282  : 
; 283  : 	fn_set_local_entity_raw_float_value			[type][FLOAT_TYPE_VERY_HIGH_VELOCITY]											= set_local_float_value;

  00310	69 45 08 bc 02
	00 00		 imul	 eax, DWORD PTR _type$[ebp], 700
  00317	b9 04 00 00 00	 mov	 ecx, 4
  0031c	69 d1 94 00 00
	00		 imul	 edx, ecx, 148
  00322	c7 84 10 00 00
	00 00 00 00 00
	00		 mov	 DWORD PTR ?fn_set_local_entity_raw_float_value@@3PAY0KP@P6GXPAUENTITY@@W4FLOAT_TYPES@@M@ZA[eax+edx], OFFSET ?set_local_float_value@@YGXPAUENTITY@@W4FLOAT_TYPES@@M@Z ; set_local_float_value

; 284  : 	fn_set_local_entity_float_value				[type][FLOAT_TYPE_VERY_HIGH_VELOCITY]											= set_local_float_value;

  0032d	69 45 08 bc 02
	00 00		 imul	 eax, DWORD PTR _type$[ebp], 700
  00334	b9 04 00 00 00	 mov	 ecx, 4
  00339	69 d1 94 00 00
	00		 imul	 edx, ecx, 148
  0033f	c7 84 10 00 00
	00 00 00 00 00
	00		 mov	 DWORD PTR ?fn_set_local_entity_float_value@@3PAY0KP@P6GXPAUENTITY@@W4FLOAT_TYPES@@M@ZA[eax+edx], OFFSET ?set_local_float_value@@YGXPAUENTITY@@W4FLOAT_TYPES@@M@Z ; set_local_float_value

; 285  : 	fn_set_client_server_entity_float_value	[type][FLOAT_TYPE_VERY_HIGH_VELOCITY][COMMS_MODEL_SERVER]					= set_server_float_value;

  0034a	69 45 08 78 05
	00 00		 imul	 eax, DWORD PTR _type$[ebp], 1400
  00351	b9 08 00 00 00	 mov	 ecx, 8
  00356	69 d1 94 00 00
	00		 imul	 edx, ecx, 148
  0035c	8d 84 10 00 00
	00 00		 lea	 eax, DWORD PTR ?fn_set_client_server_entity_float_value@@3PAY1KP@1P6GXPAUENTITY@@W4FLOAT_TYPES@@M@ZA[eax+edx]
  00363	b9 04 00 00 00	 mov	 ecx, 4
  00368	6b d1 00	 imul	 edx, ecx, 0
  0036b	c7 04 10 00 00
	00 00		 mov	 DWORD PTR [eax+edx], OFFSET ?set_server_float_value@@YGXPAUENTITY@@W4FLOAT_TYPES@@M@Z ; set_server_float_value

; 286  : 	fn_set_client_server_entity_float_value	[type][FLOAT_TYPE_VERY_HIGH_VELOCITY][COMMS_MODEL_CLIENT]					= set_client_float_value;

  00372	69 45 08 78 05
	00 00		 imul	 eax, DWORD PTR _type$[ebp], 1400
  00379	b9 08 00 00 00	 mov	 ecx, 8
  0037e	69 d1 94 00 00
	00		 imul	 edx, ecx, 148
  00384	8d 84 10 00 00
	00 00		 lea	 eax, DWORD PTR ?fn_set_client_server_entity_float_value@@3PAY1KP@1P6GXPAUENTITY@@W4FLOAT_TYPES@@M@ZA[eax+edx]
  0038b	b9 04 00 00 00	 mov	 ecx, 4
  00390	c1 e1 00	 shl	 ecx, 0
  00393	c7 04 08 00 00
	00 00		 mov	 DWORD PTR [eax+ecx], OFFSET ?set_client_float_value@@YGXPAUENTITY@@W4FLOAT_TYPES@@M@Z ; set_client_float_value

; 287  : 	fn_get_local_entity_float_value				[type][FLOAT_TYPE_VERY_HIGH_VELOCITY]											= get_local_float_value;

  0039a	69 45 08 bc 02
	00 00		 imul	 eax, DWORD PTR _type$[ebp], 700
  003a1	b9 04 00 00 00	 mov	 ecx, 4
  003a6	69 d1 94 00 00
	00		 imul	 edx, ecx, 148
  003ac	c7 84 10 00 00
	00 00 00 00 00
	00		 mov	 DWORD PTR ?fn_get_local_entity_float_value@@3PAY0KP@P6GMPAUENTITY@@W4FLOAT_TYPES@@@ZA[eax+edx], OFFSET ?get_local_float_value@@YGMPAUENTITY@@W4FLOAT_TYPES@@@Z ; get_local_float_value

; 288  : }

  003b7	5f		 pop	 edi
  003b8	5e		 pop	 esi
  003b9	5b		 pop	 ebx
  003ba	8b e5		 mov	 esp, ebp
  003bc	5d		 pop	 ebp
  003bd	c2 04 00	 ret	 4
?overload_mobile_float_value_functions@@YGXW4ENTITY_TYPES@@@Z ENDP ; overload_mobile_float_value_functions
_TEXT	ENDS
; Function compile flags: /Odtp /ZI
; File c:\program files (x86)\microsoft visual studio\2017\community\vc\tools\msvc\14.16.27023\include\cmath
;	COMDAT ?atan2@@YGMMM@Z
_TEXT	SEGMENT
__Yx$ = 8						; size = 4
__Xx$ = 12						; size = 4
?atan2@@YGMMM@Z PROC					; atan2, COMDAT

; 56   : 	{

  00000	55		 push	 ebp
  00001	8b ec		 mov	 ebp, esp
  00003	83 ec 40	 sub	 esp, 64			; 00000040H
  00006	53		 push	 ebx
  00007	56		 push	 esi
  00008	57		 push	 edi

; 57   : 	return (_CSTD atan2f(_Yx, _Xx));

  00009	51		 push	 ecx
  0000a	f3 0f 10 45 0c	 movss	 xmm0, DWORD PTR __Xx$[ebp]
  0000f	f3 0f 11 04 24	 movss	 DWORD PTR [esp], xmm0
  00014	51		 push	 ecx
  00015	f3 0f 10 45 08	 movss	 xmm0, DWORD PTR __Yx$[ebp]
  0001a	f3 0f 11 04 24	 movss	 DWORD PTR [esp], xmm0
  0001f	e8 00 00 00 00	 call	 _atan2f
  00024	83 c4 08	 add	 esp, 8

; 58   : 	}

  00027	5f		 pop	 edi
  00028	5e		 pop	 esi
  00029	5b		 pop	 ebx
  0002a	8b e5		 mov	 esp, ebp
  0002c	5d		 pop	 ebp
  0002d	c2 08 00	 ret	 8
?atan2@@YGMMM@Z ENDP					; atan2
_TEXT	ENDS
; Function compile flags: /Odtp /ZI
; File c:\program files (x86)\microsoft visual studio\2017\community\vc\tools\msvc\14.16.27023\include\cmath
;	COMDAT ?asin@@YGMM@Z
_TEXT	SEGMENT
__Xx$ = 8						; size = 4
?asin@@YGMM@Z PROC					; asin, COMDAT

; 36   : 	{

  00000	55		 push	 ebp
  00001	8b ec		 mov	 ebp, esp
  00003	83 ec 40	 sub	 esp, 64			; 00000040H
  00006	53		 push	 ebx
  00007	56		 push	 esi
  00008	57		 push	 edi

; 37   : 	return (_CSTD asinf(_Xx));

  00009	51		 push	 ecx
  0000a	f3 0f 10 45 08	 movss	 xmm0, DWORD PTR __Xx$[ebp]
  0000f	f3 0f 11 04 24	 movss	 DWORD PTR [esp], xmm0
  00014	e8 00 00 00 00	 call	 _asinf
  00019	83 c4 04	 add	 esp, 4

; 38   : 	}

  0001c	5f		 pop	 edi
  0001d	5e		 pop	 esi
  0001e	5b		 pop	 ebx
  0001f	8b e5		 mov	 esp, ebp
  00021	5d		 pop	 ebp
  00022	c2 04 00	 ret	 4
?asin@@YGMM@Z ENDP					; asin
_TEXT	ENDS
; Function compile flags: /Odtp /ZI
; File c:\program files (x86)\windows kits\10\include\10.0.18362.0\ucrt\corecrt_math.h
;	COMDAT _atan2f
_TEXT	SEGMENT
tv74 = -68						; size = 4
__Y$ = 8						; size = 4
__X$ = 12						; size = 4
_atan2f	PROC						; COMDAT

; 633  :         {

  00000	55		 push	 ebp
  00001	8b ec		 mov	 ebp, esp
  00003	83 ec 44	 sub	 esp, 68			; 00000044H
  00006	53		 push	 ebx
  00007	56		 push	 esi
  00008	57		 push	 edi

; 634  :             return (float)atan2(_Y, _X);

  00009	f3 0f 5a 45 0c	 cvtss2sd xmm0, DWORD PTR __X$[ebp]
  0000e	83 ec 08	 sub	 esp, 8
  00011	f2 0f 11 04 24	 movsd	 QWORD PTR [esp], xmm0
  00016	f3 0f 5a 45 08	 cvtss2sd xmm0, DWORD PTR __Y$[ebp]
  0001b	83 ec 08	 sub	 esp, 8
  0001e	f2 0f 11 04 24	 movsd	 QWORD PTR [esp], xmm0
  00023	e8 00 00 00 00	 call	 _atan2
  00028	83 c4 10	 add	 esp, 16			; 00000010H
  0002b	d9 5d bc	 fstp	 DWORD PTR tv74[ebp]
  0002e	d9 45 bc	 fld	 DWORD PTR tv74[ebp]

; 635  :         }

  00031	5f		 pop	 edi
  00032	5e		 pop	 esi
  00033	5b		 pop	 ebx
  00034	8b e5		 mov	 esp, ebp
  00036	5d		 pop	 ebp
  00037	c3		 ret	 0
_atan2f	ENDP
_TEXT	ENDS
; Function compile flags: /Odtp /ZI
; File c:\program files (x86)\windows kits\10\include\10.0.18362.0\ucrt\corecrt_math.h
;	COMDAT _asinf
_TEXT	SEGMENT
tv71 = -68						; size = 4
__X$ = 8						; size = 4
_asinf	PROC						; COMDAT

; 628  :         {

  00000	55		 push	 ebp
  00001	8b ec		 mov	 ebp, esp
  00003	83 ec 44	 sub	 esp, 68			; 00000044H
  00006	53		 push	 ebx
  00007	56		 push	 esi
  00008	57		 push	 edi

; 629  :             return (float)asin(_X);

  00009	f3 0f 5a 45 08	 cvtss2sd xmm0, DWORD PTR __X$[ebp]
  0000e	83 ec 08	 sub	 esp, 8
  00011	f2 0f 11 04 24	 movsd	 QWORD PTR [esp], xmm0
  00016	e8 00 00 00 00	 call	 _asin
  0001b	83 c4 08	 add	 esp, 8
  0001e	d9 5d bc	 fstp	 DWORD PTR tv71[ebp]
  00021	d9 45 bc	 fld	 DWORD PTR tv71[ebp]

; 630  :         }

  00024	5f		 pop	 edi
  00025	5e		 pop	 esi
  00026	5b		 pop	 ebx
  00027	8b e5		 mov	 esp, ebp
  00029	5d		 pop	 ebp
  0002a	c3		 ret	 0
_asinf	ENDP
_TEXT	ENDS
END
