; Listing generated by Microsoft (R) Optimizing Compiler Version 19.16.27045.0 

	TITLE	C:\Users\nhv90\Projects\eech\aphavoc\source\entity\mobile\mb_int.c
	.686P
	.XMM
	include listing.inc
	.model	flat

INCLUDELIB MSVCRTD
INCLUDELIB OLDNAMES

PUBLIC	?overload_mobile_int_value_functions@@YGXW4ENTITY_TYPES@@@Z ; overload_mobile_int_value_functions
PUBLIC	?__LINE__Var@?0??set_local_int_value@@YGXPAUENTITY@@W4INT_TYPES@@H@Z@4JA ; `set_local_int_value'::`1'::__LINE__Var
PUBLIC	??_C@_0ED@FCCMLADN@c?3?2users?2nhv90?2projects?2eech?2ap@ ; `string'
PUBLIC	??_C@_0O@GDKAJBIO@value?5?$DN?$DN?5TRUE@	; `string'
PUBLIC	?__LINE__Var@?0??set_server_int_value@@YGXPAUENTITY@@W4INT_TYPES@@H@Z@4JA ; `set_server_int_value'::`1'::__LINE__Var
PUBLIC	??_C@_0CB@CFOCLFOK@assert_client_server_local_fn?5?$CI@ ; `string'
PUBLIC	??_C@_0CC@BNNNEGEG@assert_client_server_remote_fn?5@ ; `string'
PUBLIC	?__LINE__Var@?0??set_client_int_value@@YGXPAUENTITY@@W4INT_TYPES@@H@Z@4JA ; `set_client_int_value'::`1'::__LINE__Var
PUBLIC	?__LINE__Var@?0??get_local_int_value@@YGHPAUENTITY@@W4INT_TYPES@@@Z@4JA ; `get_local_int_value'::`1'::__LINE__Var
EXTRN	?process_assert@@YGXPBD0H@Z:PROC		; process_assert
EXTRN	?debug_fatal@@YAXPBDZZ:PROC			; debug_fatal
EXTRN	?transmit_entity_comms_message@@YAXW4ENTITY_COMMS_MESSAGES@@PAUENTITY@@ZZ:PROC ; transmit_entity_comms_message
EXTRN	?assert_client_server_local_fn@@YGHXZ:PROC	; assert_client_server_local_fn
EXTRN	?assert_client_server_remote_fn@@YGHXZ:PROC	; assert_client_server_remote_fn
EXTRN	?get_local_group_member_landing_entity_from_keysite@@YGPAUENTITY@@PAU1@@Z:PROC ; get_local_group_member_landing_entity_from_keysite
EXTRN	?null_entity_pointer_message@@3PBDB:DWORD	; null_entity_pointer_message
EXTRN	?entity_type_database@@3PAUENTITY_TYPE_DATA@@A:BYTE ; entity_type_database
EXTRN	?system_comms_data_flow@@3W4COMMS_DATA_FLOW_TYPES@@A:DWORD ; system_comms_data_flow
EXTRN	?int_type_database@@3PAUINT_TYPE_DATA@@A:BYTE	; int_type_database
EXTRN	?overload_invalid_int_type_message@@3PBDB:DWORD	; overload_invalid_int_type_message
EXTRN	?debug_fatal_invalid_int_type_message@@3PBDB:DWORD ; debug_fatal_invalid_int_type_message
EXTRN	?fn_set_local_entity_raw_int_value@@3PAY0BBH@P6GXPAUENTITY@@W4INT_TYPES@@H@ZA:BYTE ; fn_set_local_entity_raw_int_value
EXTRN	?fn_set_local_entity_int_value@@3PAY0BBH@P6GXPAUENTITY@@W4INT_TYPES@@H@ZA:BYTE ; fn_set_local_entity_int_value
EXTRN	?fn_set_client_server_entity_int_value@@3PAY1BBH@1P6GXPAUENTITY@@W4INT_TYPES@@H@ZA:BYTE ; fn_set_client_server_entity_int_value
EXTRN	?fn_get_local_entity_int_value@@3PAY0BBH@P6GHPAUENTITY@@W4INT_TYPES@@@ZA:BYTE ; fn_get_local_entity_int_value
EXTRN	?entities@@3PAUENTITY@@A:DWORD			; entities
EXTRN	?moved_entities@@3PAIA:BYTE			; moved_entities
EXTRN	?rotated_entities@@3PAIA:BYTE			; rotated_entities
EXTRN	?updated_entities@@3PAIA:BYTE			; updated_entities
;	COMDAT ?__LINE__Var@?0??get_local_int_value@@YGHPAUENTITY@@W4INT_TYPES@@@Z@4JA
_DATA	SEGMENT
?__LINE__Var@?0??get_local_int_value@@YGHPAUENTITY@@W4INT_TYPES@@@Z@4JA DD 0fcH ; `get_local_int_value'::`1'::__LINE__Var
_DATA	ENDS
;	COMDAT ?__LINE__Var@?0??set_client_int_value@@YGXPAUENTITY@@W4INT_TYPES@@H@Z@4JA
_DATA	SEGMENT
?__LINE__Var@?0??set_client_int_value@@YGXPAUENTITY@@W4INT_TYPES@@H@Z@4JA DD 0e8H ; `set_client_int_value'::`1'::__LINE__Var
_DATA	ENDS
;	COMDAT ??_C@_0CC@BNNNEGEG@assert_client_server_remote_fn?5@
CONST	SEGMENT
??_C@_0CC@BNNNEGEG@assert_client_server_remote_fn?5@ DB 'assert_client_se'
	DB	'rver_remote_fn ()', 00H			; `string'
CONST	ENDS
;	COMDAT ??_C@_0CB@CFOCLFOK@assert_client_server_local_fn?5?$CI@
CONST	SEGMENT
??_C@_0CB@CFOCLFOK@assert_client_server_local_fn?5?$CI@ DB 'assert_client'
	DB	'_server_local_fn ()', 00H			; `string'
CONST	ENDS
;	COMDAT ?__LINE__Var@?0??set_server_int_value@@YGXPAUENTITY@@W4INT_TYPES@@H@Z@4JA
_DATA	SEGMENT
?__LINE__Var@?0??set_server_int_value@@YGXPAUENTITY@@W4INT_TYPES@@H@Z@4JA DD 0d9H ; `set_server_int_value'::`1'::__LINE__Var
_DATA	ENDS
;	COMDAT ??_C@_0O@GDKAJBIO@value?5?$DN?$DN?5TRUE@
CONST	SEGMENT
??_C@_0O@GDKAJBIO@value?5?$DN?$DN?5TRUE@ DB 'value == TRUE', 00H ; `string'
CONST	ENDS
;	COMDAT ??_C@_0ED@FCCMLADN@c?3?2users?2nhv90?2projects?2eech?2ap@
CONST	SEGMENT
??_C@_0ED@FCCMLADN@c?3?2users?2nhv90?2projects?2eech?2ap@ DB 'c:\users\nh'
	DB	'v90\projects\eech\aphavoc\source\entity\mobile\mb_int.c', 00H ; `string'
CONST	ENDS
;	COMDAT ?__LINE__Var@?0??set_local_int_value@@YGXPAUENTITY@@W4INT_TYPES@@H@Z@4JA
_DATA	SEGMENT
?__LINE__Var@?0??set_local_int_value@@YGXPAUENTITY@@W4INT_TYPES@@H@Z@4JA DD 050H ; `set_local_int_value'::`1'::__LINE__Var
_DATA	ENDS
; Function compile flags: /Odtp /ZI
; File c:\users\nhv90\projects\eech\aphavoc\source\entity\mobile\mb_int.c
;	COMDAT ?get_local_int_value@@YGHPAUENTITY@@W4INT_TYPES@@@Z
_TEXT	SEGMENT
tv155 = -100						; size = 4
tv137 = -100						; size = 4
tv81 = -100						; size = 4
tv216 = -96						; size = 4
tv199 = -96						; size = 4
tv194 = -96						; size = 4
tv188 = -96						; size = 4
tv148 = -96						; size = 4
tv129 = -96						; size = 4
tv74 = -96						; size = 4
tv65 = -96						; size = 4
_offset$1 = -28						; size = 4
_index$2 = -24						; size = 4
_mask$3 = -20						; size = 4
_formation_position$4 = -16				; size = 4
_landing$5 = -12					; size = 4
_value$ = -8						; size = 4
_raw$ = -4						; size = 4
_en$ = 8						; size = 4
_type$ = 12						; size = 4
?get_local_int_value@@YGHPAUENTITY@@W4INT_TYPES@@@Z PROC ; get_local_int_value, COMDAT

; 252  : {

  00000	55		 push	 ebp
  00001	8b ec		 mov	 ebp, esp
  00003	83 ec 64	 sub	 esp, 100		; 00000064H
  00006	53		 push	 ebx
  00007	56		 push	 esi
  00008	57		 push	 edi

; 253  : 	mobile
; 254  : 		*raw;
; 255  : 
; 256  : 	int
; 257  : 		value;
; 258  : 
; 259  : 	raw = (mobile *) get_local_entity_data (en);

  00009	8b 45 08	 mov	 eax, DWORD PTR _en$[ebp]
  0000c	8b 48 04	 mov	 ecx, DWORD PTR [eax+4]
  0000f	89 4d fc	 mov	 DWORD PTR _raw$[ebp], ecx

; 260  : 
; 261  : 	switch (type)

  00012	8b 45 0c	 mov	 eax, DWORD PTR _type$[ebp]
  00015	89 45 a0	 mov	 DWORD PTR tv65[ebp], eax
  00018	8b 4d a0	 mov	 ecx, DWORD PTR tv65[ebp]
  0001b	83 e9 07	 sub	 ecx, 7
  0001e	89 4d a0	 mov	 DWORD PTR tv65[ebp], ecx
  00021	81 7d a0 e7 00
	00 00		 cmp	 DWORD PTR tv65[ebp], 231 ; 000000e7H
  00028	0f 87 fd 02 00
	00		 ja	 $LN22@get_local_
  0002e	8b 55 a0	 mov	 edx, DWORD PTR tv65[ebp]
  00031	0f b6 82 00 00
	00 00		 movzx	 eax, BYTE PTR $LN38@get_local_[edx]
  00038	ff 24 85 00 00
	00 00		 jmp	 DWORD PTR $LN39@get_local_[eax*4]
$LN4@get_local_:

; 262  : 	{
; 263  : 		////////////////////////////////////////
; 264  : 		case INT_TYPE_ALIVE:
; 265  : 		////////////////////////////////////////
; 266  : 		{
; 267  : 			value = raw->alive;

  0003f	8b 45 fc	 mov	 eax, DWORD PTR _raw$[ebp]
  00042	8b 48 7c	 mov	 ecx, DWORD PTR [eax+124]
  00045	83 e1 01	 and	 ecx, 1
  00048	89 4d f8	 mov	 DWORD PTR _value$[ebp], ecx

; 268  : 
; 269  : 			break;

  0004b	e9 53 03 00 00	 jmp	 $LN2@get_local_
$LN5@get_local_:

; 270  : 		}
; 271  : 		////////////////////////////////////////
; 272  : 		case INT_TYPE_IDENTIFY_MOBILE:
; 273  : 		////////////////////////////////////////
; 274  : 		{
; 275  : 			value = TRUE;

  00050	c7 45 f8 01 00
	00 00		 mov	 DWORD PTR _value$[ebp], 1

; 276  : 
; 277  : 			break;

  00057	e9 47 03 00 00	 jmp	 $LN2@get_local_
$LN6@get_local_:

; 278  : 		}
; 279  : 		////////////////////////////////////////
; 280  : 		case INT_TYPE_ENTITY_SUB_TYPE:
; 281  : 		////////////////////////////////////////
; 282  : 		{
; 283  : 			value = raw->sub_type;

  0005c	8b 45 fc	 mov	 eax, DWORD PTR _raw$[ebp]
  0005f	8b 08		 mov	 ecx, DWORD PTR [eax]
  00061	89 4d f8	 mov	 DWORD PTR _value$[ebp], ecx

; 284  : 
; 285  : 			break;

  00064	e9 3a 03 00 00	 jmp	 $LN2@get_local_
$LN7@get_local_:

; 286  : 		}
; 287  : 		////////////////////////////////////////
; 288  : 		case INT_TYPE_INSIDE_HANGAR:
; 289  : 		////////////////////////////////////////
; 290  : 		{
; 291  : 			value = FALSE;

  00069	c7 45 f8 00 00
	00 00		 mov	 DWORD PTR _value$[ebp], 0

; 292  : 
; 293  : 			if (get_local_entity_int_value (en, INT_TYPE_LANDED))

  00070	83 7d 08 00	 cmp	 DWORD PTR _en$[ebp], 0
  00074	74 0a		 je	 SHORT $LN24@get_local_
  00076	8b 45 08	 mov	 eax, DWORD PTR _en$[ebp]
  00079	8b 08		 mov	 ecx, DWORD PTR [eax]
  0007b	89 4d a0	 mov	 DWORD PTR tv74[ebp], ecx
  0007e	eb 1d		 jmp	 SHORT $LN25@get_local_
$LN24@get_local_:
  00080	68 25 01 00 00	 push	 293			; 00000125H
  00085	68 00 00 00 00	 push	 OFFSET ??_C@_0ED@FCCMLADN@c?3?2users?2nhv90?2projects?2eech?2ap@
  0008a	8b 15 00 00 00
	00		 mov	 edx, DWORD PTR ?null_entity_pointer_message@@3PBDB ; null_entity_pointer_message
  00090	52		 push	 edx
  00091	e8 00 00 00 00	 call	 ?process_assert@@YGXPBD0H@Z ; process_assert
  00096	c7 45 a0 00 00
	00 00		 mov	 DWORD PTR tv74[ebp], 0
$LN25@get_local_:
  0009d	b8 01 00 00 00	 mov	 eax, 1
  000a2	85 c0		 test	 eax, eax
  000a4	74 09		 je	 SHORT $LN26@get_local_
  000a6	c7 45 9c 73 00
	00 00		 mov	 DWORD PTR tv81[ebp], 115 ; 00000073H
  000ad	eb 1d		 jmp	 SHORT $LN27@get_local_
$LN26@get_local_:
  000af	68 25 01 00 00	 push	 293			; 00000125H
  000b4	68 00 00 00 00	 push	 OFFSET ??_C@_0ED@FCCMLADN@c?3?2users?2nhv90?2projects?2eech?2ap@
  000b9	8b 0d 00 00 00
	00		 mov	 ecx, DWORD PTR ?overload_invalid_int_type_message@@3PBDB ; overload_invalid_int_type_message
  000bf	51		 push	 ecx
  000c0	e8 00 00 00 00	 call	 ?process_assert@@YGXPBD0H@Z ; process_assert
  000c5	c7 45 9c 00 00
	00 00		 mov	 DWORD PTR tv81[ebp], 0
$LN27@get_local_:
  000cc	6a 73		 push	 115			; 00000073H
  000ce	8b 55 08	 mov	 edx, DWORD PTR _en$[ebp]
  000d1	52		 push	 edx
  000d2	69 45 a0 5c 04
	00 00		 imul	 eax, DWORD PTR tv74[ebp], 1116
  000d9	8b 4d 9c	 mov	 ecx, DWORD PTR tv81[ebp]
  000dc	8b 94 88 00 00
	00 00		 mov	 edx, DWORD PTR ?fn_get_local_entity_int_value@@3PAY0BBH@P6GHPAUENTITY@@W4INT_TYPES@@@ZA[eax+ecx*4]
  000e3	ff d2		 call	 edx
  000e5	85 c0		 test	 eax, eax
  000e7	0f 84 20 01 00
	00		 je	 $LN8@get_local_

; 294  : 			{
; 295  : 				entity
; 296  : 					*landing;
; 297  : 
; 298  : 				int
; 299  : 					formation_position;
; 300  : 
; 301  : 				landing = get_local_group_member_landing_entity_from_keysite (en);

  000ed	8b 45 08	 mov	 eax, DWORD PTR _en$[ebp]
  000f0	50		 push	 eax
  000f1	e8 00 00 00 00	 call	 ?get_local_group_member_landing_entity_from_keysite@@YGPAUENTITY@@PAU1@@Z ; get_local_group_member_landing_entity_from_keysite
  000f6	89 45 f4	 mov	 DWORD PTR _landing$5[ebp], eax

; 302  : 
; 303  : 				if (landing)

  000f9	83 7d f4 00	 cmp	 DWORD PTR _landing$5[ebp], 0
  000fd	0f 84 0a 01 00
	00		 je	 $LN8@get_local_

; 304  : 				{
; 305  : 					formation_position = get_local_entity_int_value (en, INT_TYPE_FORMATION_POSITION);

  00103	83 7d 08 00	 cmp	 DWORD PTR _en$[ebp], 0
  00107	74 0a		 je	 SHORT $LN28@get_local_
  00109	8b 45 08	 mov	 eax, DWORD PTR _en$[ebp]
  0010c	8b 08		 mov	 ecx, DWORD PTR [eax]
  0010e	89 4d a0	 mov	 DWORD PTR tv129[ebp], ecx
  00111	eb 21		 jmp	 SHORT $LN29@get_local_
$LN28@get_local_:
  00113	8b 15 00 00 00
	00		 mov	 edx, DWORD PTR ?__LINE__Var@?0??get_local_int_value@@YGHPAUENTITY@@W4INT_TYPES@@@Z@4JA
  00119	83 c2 35	 add	 edx, 53			; 00000035H
  0011c	52		 push	 edx
  0011d	68 00 00 00 00	 push	 OFFSET ??_C@_0ED@FCCMLADN@c?3?2users?2nhv90?2projects?2eech?2ap@
  00122	a1 00 00 00 00	 mov	 eax, DWORD PTR ?null_entity_pointer_message@@3PBDB ; null_entity_pointer_message
  00127	50		 push	 eax
  00128	e8 00 00 00 00	 call	 ?process_assert@@YGXPBD0H@Z ; process_assert
  0012d	c7 45 a0 00 00
	00 00		 mov	 DWORD PTR tv129[ebp], 0
$LN29@get_local_:
  00134	b9 01 00 00 00	 mov	 ecx, 1
  00139	85 c9		 test	 ecx, ecx
  0013b	74 09		 je	 SHORT $LN30@get_local_
  0013d	c7 45 9c 3e 00
	00 00		 mov	 DWORD PTR tv137[ebp], 62 ; 0000003eH
  00144	eb 21		 jmp	 SHORT $LN31@get_local_
$LN30@get_local_:
  00146	8b 15 00 00 00
	00		 mov	 edx, DWORD PTR ?__LINE__Var@?0??get_local_int_value@@YGHPAUENTITY@@W4INT_TYPES@@@Z@4JA
  0014c	83 c2 35	 add	 edx, 53			; 00000035H
  0014f	52		 push	 edx
  00150	68 00 00 00 00	 push	 OFFSET ??_C@_0ED@FCCMLADN@c?3?2users?2nhv90?2projects?2eech?2ap@
  00155	a1 00 00 00 00	 mov	 eax, DWORD PTR ?overload_invalid_int_type_message@@3PBDB ; overload_invalid_int_type_message
  0015a	50		 push	 eax
  0015b	e8 00 00 00 00	 call	 ?process_assert@@YGXPBD0H@Z ; process_assert
  00160	c7 45 9c 00 00
	00 00		 mov	 DWORD PTR tv137[ebp], 0
$LN31@get_local_:
  00167	6a 3e		 push	 62			; 0000003eH
  00169	8b 4d 08	 mov	 ecx, DWORD PTR _en$[ebp]
  0016c	51		 push	 ecx
  0016d	69 55 a0 5c 04
	00 00		 imul	 edx, DWORD PTR tv129[ebp], 1116
  00174	8b 45 9c	 mov	 eax, DWORD PTR tv137[ebp]
  00177	8b 8c 82 00 00
	00 00		 mov	 ecx, DWORD PTR ?fn_get_local_entity_int_value@@3PAY0BBH@P6GHPAUENTITY@@W4INT_TYPES@@@ZA[edx+eax*4]
  0017e	ff d1		 call	 ecx
  00180	89 45 f0	 mov	 DWORD PTR _formation_position$4[ebp], eax

; 306  : 
; 307  : 					if (get_local_entity_int_value (landing, INT_TYPE_INSIDE_HANGAR) & (1 << formation_position))

  00183	83 7d f4 00	 cmp	 DWORD PTR _landing$5[ebp], 0
  00187	74 0a		 je	 SHORT $LN32@get_local_
  00189	8b 45 f4	 mov	 eax, DWORD PTR _landing$5[ebp]
  0018c	8b 08		 mov	 ecx, DWORD PTR [eax]
  0018e	89 4d a0	 mov	 DWORD PTR tv148[ebp], ecx
  00191	eb 1d		 jmp	 SHORT $LN33@get_local_
$LN32@get_local_:
  00193	68 33 01 00 00	 push	 307			; 00000133H
  00198	68 00 00 00 00	 push	 OFFSET ??_C@_0ED@FCCMLADN@c?3?2users?2nhv90?2projects?2eech?2ap@
  0019d	8b 15 00 00 00
	00		 mov	 edx, DWORD PTR ?null_entity_pointer_message@@3PBDB ; null_entity_pointer_message
  001a3	52		 push	 edx
  001a4	e8 00 00 00 00	 call	 ?process_assert@@YGXPBD0H@Z ; process_assert
  001a9	c7 45 a0 00 00
	00 00		 mov	 DWORD PTR tv148[ebp], 0
$LN33@get_local_:
  001b0	b8 01 00 00 00	 mov	 eax, 1
  001b5	85 c0		 test	 eax, eax
  001b7	74 09		 je	 SHORT $LN34@get_local_
  001b9	c7 45 9c 6a 00
	00 00		 mov	 DWORD PTR tv155[ebp], 106 ; 0000006aH
  001c0	eb 1d		 jmp	 SHORT $LN35@get_local_
$LN34@get_local_:
  001c2	68 33 01 00 00	 push	 307			; 00000133H
  001c7	68 00 00 00 00	 push	 OFFSET ??_C@_0ED@FCCMLADN@c?3?2users?2nhv90?2projects?2eech?2ap@
  001cc	8b 0d 00 00 00
	00		 mov	 ecx, DWORD PTR ?overload_invalid_int_type_message@@3PBDB ; overload_invalid_int_type_message
  001d2	51		 push	 ecx
  001d3	e8 00 00 00 00	 call	 ?process_assert@@YGXPBD0H@Z ; process_assert
  001d8	c7 45 9c 00 00
	00 00		 mov	 DWORD PTR tv155[ebp], 0
$LN35@get_local_:
  001df	6a 6a		 push	 106			; 0000006aH
  001e1	8b 55 f4	 mov	 edx, DWORD PTR _landing$5[ebp]
  001e4	52		 push	 edx
  001e5	69 45 a0 5c 04
	00 00		 imul	 eax, DWORD PTR tv148[ebp], 1116
  001ec	8b 4d 9c	 mov	 ecx, DWORD PTR tv155[ebp]
  001ef	8b 94 88 00 00
	00 00		 mov	 edx, DWORD PTR ?fn_get_local_entity_int_value@@3PAY0BBH@P6GHPAUENTITY@@W4INT_TYPES@@@ZA[eax+ecx*4]
  001f6	ff d2		 call	 edx
  001f8	ba 01 00 00 00	 mov	 edx, 1
  001fd	8b 4d f0	 mov	 ecx, DWORD PTR _formation_position$4[ebp]
  00200	d3 e2		 shl	 edx, cl
  00202	23 c2		 and	 eax, edx
  00204	74 07		 je	 SHORT $LN8@get_local_

; 308  : 					{
; 309  : 						value = TRUE;

  00206	c7 45 f8 01 00
	00 00		 mov	 DWORD PTR _value$[ebp], 1
$LN8@get_local_:

; 310  : 					}
; 311  : 				}
; 312  : 			}
; 313  : 
; 314  : 			break;

  0020d	e9 91 01 00 00	 jmp	 $LN2@get_local_
$LN11@get_local_:

; 315  : 		}
; 316  : 		////////////////////////////////////////
; 317  : 		case INT_TYPE_KILL_NEXT_UPDATE:
; 318  : 		////////////////////////////////////////
; 319  : 		{
; 320  : 			value = raw->kill_next_update;

  00212	8b 45 fc	 mov	 eax, DWORD PTR _raw$[ebp]
  00215	8b 48 7c	 mov	 ecx, DWORD PTR [eax+124]
  00218	c1 e9 03	 shr	 ecx, 3
  0021b	83 e1 03	 and	 ecx, 3
  0021e	89 4d f8	 mov	 DWORD PTR _value$[ebp], ecx

; 321  : 
; 322  : 			break;

  00221	e9 7d 01 00 00	 jmp	 $LN2@get_local_
$LN12@get_local_:

; 323  : 		}
; 324  : 		////////////////////////////////////////
; 325  : 		case INT_TYPE_OBJECT_DRAWN_ONCE_THIS_FRAME:
; 326  : 		////////////////////////////////////////
; 327  : 		{
; 328  : 			value = raw->object_drawn_once_this_frame;

  00226	8b 45 fc	 mov	 eax, DWORD PTR _raw$[ebp]
  00229	8b 48 7c	 mov	 ecx, DWORD PTR [eax+124]
  0022c	c1 e9 06	 shr	 ecx, 6
  0022f	83 e1 01	 and	 ecx, 1
  00232	89 4d f8	 mov	 DWORD PTR _value$[ebp], ecx

; 329  : 
; 330  : 			break;

  00235	e9 69 01 00 00	 jmp	 $LN2@get_local_
$LN13@get_local_:

; 331  : 		}
; 332  : 		////////////////////////////////////////
; 333  : 		case INT_TYPE_SIDE:
; 334  : 		////////////////////////////////////////
; 335  : 		{
; 336  : 			value = raw->side;

  0023a	8b 45 fc	 mov	 eax, DWORD PTR _raw$[ebp]
  0023d	8b 48 7c	 mov	 ecx, DWORD PTR [eax+124]
  00240	d1 e9		 shr	 ecx, 1
  00242	83 e1 03	 and	 ecx, 3
  00245	89 4d f8	 mov	 DWORD PTR _value$[ebp], ecx

; 337  : 
; 338  : 			break;

  00248	e9 56 01 00 00	 jmp	 $LN2@get_local_
$LN14@get_local_:

; 339  : 		}
; 340  : 		////////////////////////////////////////
; 341  : 		case INT_TYPE_SOUND_LIST_VALID:
; 342  : 		////////////////////////////////////////
; 343  : 		{
; 344  : 			value = TRUE;

  0024d	c7 45 f8 01 00
	00 00		 mov	 DWORD PTR _value$[ebp], 1

; 345  : 
; 346  : 			break;

  00254	e9 4a 01 00 00	 jmp	 $LN2@get_local_
$LN15@get_local_:

; 347  : 		}
; 348  : 		////////////////////////////////////////
; 349  : 		case INT_TYPE_TASK_TARGET_TYPE:
; 350  : 		////////////////////////////////////////
; 351  : 		{
; 352  : 			value = (TASK_TARGET_TYPE_ANY | TASK_TARGET_TYPE_MOBILE);

  00259	c7 45 f8 04 08
	00 00		 mov	 DWORD PTR _value$[ebp], 2052 ; 00000804H

; 353  : 
; 354  : 			break;

  00260	e9 3e 01 00 00	 jmp	 $LN2@get_local_
$LN16@get_local_:

; 355  : 		}
; 356  : 		/*
; 357  : 		////////////////////////////////////////
; 358  : 		case INT_TYPE_TIMER:
; 359  : 		////////////////////////////////////////
; 360  : 		{
; 361  : 			value = raw->timer;
; 362  : 
; 363  : 			break;
; 364  : 		}
; 365  : 		*/
; 366  : 		case INT_TYPE_TACVIEW_LOGGING:
; 367  : 		{
; 368  : 			value = raw->tacview_logging;

  00265	8b 45 fc	 mov	 eax, DWORD PTR _raw$[ebp]
  00268	8b 48 7c	 mov	 ecx, DWORD PTR [eax+124]
  0026b	c1 e9 05	 shr	 ecx, 5
  0026e	83 e1 01	 and	 ecx, 1
  00271	89 4d f8	 mov	 DWORD PTR _value$[ebp], ecx

; 369  : 
; 370  : 			break;

  00274	e9 2a 01 00 00	 jmp	 $LN2@get_local_
$LN17@get_local_:

; 371  : 		}
; 372  : 		////////////////////////////////////////
; 373  : 		case INT_TYPE_UPDATED:
; 374  : 		case INT_TYPE_MOVED:
; 375  : 		case INT_TYPE_ROTATED:
; 376  : 		////////////////////////////////////////
; 377  : 		{
; 378  : 			int
; 379  : 				mask,
; 380  : 				index,
; 381  : 				offset;
; 382  : 
; 383  : 			index = get_local_entity_index (en) >> 5;

  00279	8b 45 08	 mov	 eax, DWORD PTR _en$[ebp]
  0027c	2b 05 00 00 00
	00		 sub	 eax, DWORD PTR ?entities@@3PAUENTITY@@A ; entities
  00282	c1 f8 04	 sar	 eax, 4
  00285	c1 f8 05	 sar	 eax, 5
  00288	89 45 e8	 mov	 DWORD PTR _index$2[ebp], eax

; 384  : 
; 385  : 			offset = get_local_entity_index (en) & 0x1f;

  0028b	8b 45 08	 mov	 eax, DWORD PTR _en$[ebp]
  0028e	2b 05 00 00 00
	00		 sub	 eax, DWORD PTR ?entities@@3PAUENTITY@@A ; entities
  00294	c1 f8 04	 sar	 eax, 4
  00297	83 e0 1f	 and	 eax, 31			; 0000001fH
  0029a	89 45 e4	 mov	 DWORD PTR _offset$1[ebp], eax

; 386  : 
; 387  : 			mask = 1 << offset;

  0029d	b8 01 00 00 00	 mov	 eax, 1
  002a2	8b 4d e4	 mov	 ecx, DWORD PTR _offset$1[ebp]
  002a5	d3 e0		 shl	 eax, cl
  002a7	89 45 ec	 mov	 DWORD PTR _mask$3[ebp], eax

; 388  : 
; 389  : 			if (type == INT_TYPE_UPDATED)

  002aa	81 7d 0c ee 00
	00 00		 cmp	 DWORD PTR _type$[ebp], 238 ; 000000eeH
  002b1	75 25		 jne	 SHORT $LN18@get_local_

; 390  : 				value = updated_entities [index] &= mask;

  002b3	8b 45 e8	 mov	 eax, DWORD PTR _index$2[ebp]
  002b6	8b 0c 85 00 00
	00 00		 mov	 ecx, DWORD PTR ?updated_entities@@3PAIA[eax*4]
  002bd	23 4d ec	 and	 ecx, DWORD PTR _mask$3[ebp]
  002c0	89 4d a0	 mov	 DWORD PTR tv188[ebp], ecx
  002c3	8b 55 e8	 mov	 edx, DWORD PTR _index$2[ebp]
  002c6	8b 45 a0	 mov	 eax, DWORD PTR tv188[ebp]
  002c9	89 04 95 00 00
	00 00		 mov	 DWORD PTR ?updated_entities@@3PAIA[edx*4], eax
  002d0	8b 4d a0	 mov	 ecx, DWORD PTR tv188[ebp]
  002d3	89 4d f8	 mov	 DWORD PTR _value$[ebp], ecx
  002d6	eb 51		 jmp	 SHORT $LN19@get_local_
$LN18@get_local_:

; 391  : 			else if (type == INT_TYPE_MOVED)

  002d8	81 7d 0c 8f 00
	00 00		 cmp	 DWORD PTR _type$[ebp], 143 ; 0000008fH
  002df	75 25		 jne	 SHORT $LN20@get_local_

; 392  : 				value = moved_entities [index] &= mask;

  002e1	8b 45 e8	 mov	 eax, DWORD PTR _index$2[ebp]
  002e4	8b 0c 85 00 00
	00 00		 mov	 ecx, DWORD PTR ?moved_entities@@3PAIA[eax*4]
  002eb	23 4d ec	 and	 ecx, DWORD PTR _mask$3[ebp]
  002ee	89 4d a0	 mov	 DWORD PTR tv194[ebp], ecx
  002f1	8b 55 e8	 mov	 edx, DWORD PTR _index$2[ebp]
  002f4	8b 45 a0	 mov	 eax, DWORD PTR tv194[ebp]
  002f7	89 04 95 00 00
	00 00		 mov	 DWORD PTR ?moved_entities@@3PAIA[edx*4], eax
  002fe	8b 4d a0	 mov	 ecx, DWORD PTR tv194[ebp]
  00301	89 4d f8	 mov	 DWORD PTR _value$[ebp], ecx

; 393  : 			else

  00304	eb 23		 jmp	 SHORT $LN19@get_local_
$LN20@get_local_:

; 394  : 				value = rotated_entities [index] &= mask;

  00306	8b 45 e8	 mov	 eax, DWORD PTR _index$2[ebp]
  00309	8b 0c 85 00 00
	00 00		 mov	 ecx, DWORD PTR ?rotated_entities@@3PAIA[eax*4]
  00310	23 4d ec	 and	 ecx, DWORD PTR _mask$3[ebp]
  00313	89 4d a0	 mov	 DWORD PTR tv199[ebp], ecx
  00316	8b 55 e8	 mov	 edx, DWORD PTR _index$2[ebp]
  00319	8b 45 a0	 mov	 eax, DWORD PTR tv199[ebp]
  0031c	89 04 95 00 00
	00 00		 mov	 DWORD PTR ?rotated_entities@@3PAIA[edx*4], eax
  00323	8b 4d a0	 mov	 ecx, DWORD PTR tv199[ebp]
  00326	89 4d f8	 mov	 DWORD PTR _value$[ebp], ecx
$LN19@get_local_:

; 395  : 
; 396  : 			break;

  00329	eb 78		 jmp	 SHORT $LN2@get_local_
$LN22@get_local_:

; 397  : 		}
; 398  : 		////////////////////////////////////////
; 399  : 		default:
; 400  : 		////////////////////////////////////////
; 401  : 		{
; 402  : 			debug_fatal_invalid_int_type (en, type);

  0032b	83 7d 08 00	 cmp	 DWORD PTR _en$[ebp], 0
  0032f	74 0a		 je	 SHORT $LN36@get_local_
  00331	8b 45 08	 mov	 eax, DWORD PTR _en$[ebp]
  00334	8b 08		 mov	 ecx, DWORD PTR [eax]
  00336	89 4d a0	 mov	 DWORD PTR tv216[ebp], ecx
  00339	eb 24		 jmp	 SHORT $LN37@get_local_
$LN36@get_local_:
  0033b	8b 15 00 00 00
	00		 mov	 edx, DWORD PTR ?__LINE__Var@?0??get_local_int_value@@YGHPAUENTITY@@W4INT_TYPES@@@Z@4JA
  00341	81 c2 96 00 00
	00		 add	 edx, 150		; 00000096H
  00347	52		 push	 edx
  00348	68 00 00 00 00	 push	 OFFSET ??_C@_0ED@FCCMLADN@c?3?2users?2nhv90?2projects?2eech?2ap@
  0034d	a1 00 00 00 00	 mov	 eax, DWORD PTR ?null_entity_pointer_message@@3PBDB ; null_entity_pointer_message
  00352	50		 push	 eax
  00353	e8 00 00 00 00	 call	 ?process_assert@@YGXPBD0H@Z ; process_assert
  00358	c7 45 a0 00 00
	00 00		 mov	 DWORD PTR tv216[ebp], 0
$LN37@get_local_:
  0035f	8b 0d 00 00 00
	00		 mov	 ecx, DWORD PTR ?__LINE__Var@?0??get_local_int_value@@YGHPAUENTITY@@W4INT_TYPES@@@Z@4JA
  00365	81 c1 96 00 00
	00		 add	 ecx, 150		; 00000096H
  0036b	51		 push	 ecx
  0036c	68 00 00 00 00	 push	 OFFSET ??_C@_0ED@FCCMLADN@c?3?2users?2nhv90?2projects?2eech?2ap@
  00371	6b 55 0c 14	 imul	 edx, DWORD PTR _type$[ebp], 20
  00375	8b 82 00 00 00
	00		 mov	 eax, DWORD PTR ?int_type_database@@3PAUINT_TYPE_DATA@@A[edx]
  0037b	50		 push	 eax
  0037c	8b 4d 08	 mov	 ecx, DWORD PTR _en$[ebp]
  0037f	2b 0d 00 00 00
	00		 sub	 ecx, DWORD PTR ?entities@@3PAUENTITY@@A ; entities
  00385	c1 f9 04	 sar	 ecx, 4
  00388	51		 push	 ecx
  00389	6b 55 a0 0c	 imul	 edx, DWORD PTR tv216[ebp], 12
  0038d	8b 82 00 00 00
	00		 mov	 eax, DWORD PTR ?entity_type_database@@3PAUENTITY_TYPE_DATA@@A[edx]
  00393	50		 push	 eax
  00394	8b 0d 00 00 00
	00		 mov	 ecx, DWORD PTR ?debug_fatal_invalid_int_type_message@@3PBDB ; debug_fatal_invalid_int_type_message
  0039a	51		 push	 ecx
  0039b	e8 00 00 00 00	 call	 ?debug_fatal@@YAXPBDZZ	; debug_fatal
  003a0	83 c4 18	 add	 esp, 24			; 00000018H
$LN2@get_local_:

; 403  : 
; 404  : 			break;
; 405  : 		}
; 406  : 	}
; 407  : 
; 408  : 	return (value);

  003a3	8b 45 f8	 mov	 eax, DWORD PTR _value$[ebp]

; 409  : }

  003a6	5f		 pop	 edi
  003a7	5e		 pop	 esi
  003a8	5b		 pop	 ebx
  003a9	8b e5		 mov	 esp, ebp
  003ab	5d		 pop	 ebp
  003ac	c2 08 00	 ret	 8
  003af	90		 npad	 1
$LN39@get_local_:
  003b0	00 00 00 00	 DD	 $LN4@get_local_
  003b4	00 00 00 00	 DD	 $LN6@get_local_
  003b8	00 00 00 00	 DD	 $LN5@get_local_
  003bc	00 00 00 00	 DD	 $LN7@get_local_
  003c0	00 00 00 00	 DD	 $LN11@get_local_
  003c4	00 00 00 00	 DD	 $LN17@get_local_
  003c8	00 00 00 00	 DD	 $LN12@get_local_
  003cc	00 00 00 00	 DD	 $LN13@get_local_
  003d0	00 00 00 00	 DD	 $LN14@get_local_
  003d4	00 00 00 00	 DD	 $LN16@get_local_
  003d8	00 00 00 00	 DD	 $LN15@get_local_
  003dc	00 00 00 00	 DD	 $LN22@get_local_
$LN38@get_local_:
  003e0	00		 DB	 0
  003e1	0b		 DB	 11			; 0000000bH
  003e2	0b		 DB	 11			; 0000000bH
  003e3	0b		 DB	 11			; 0000000bH
  003e4	0b		 DB	 11			; 0000000bH
  003e5	0b		 DB	 11			; 0000000bH
  003e6	0b		 DB	 11			; 0000000bH
  003e7	0b		 DB	 11			; 0000000bH
  003e8	0b		 DB	 11			; 0000000bH
  003e9	0b		 DB	 11			; 0000000bH
  003ea	0b		 DB	 11			; 0000000bH
  003eb	0b		 DB	 11			; 0000000bH
  003ec	0b		 DB	 11			; 0000000bH
  003ed	0b		 DB	 11			; 0000000bH
  003ee	0b		 DB	 11			; 0000000bH
  003ef	0b		 DB	 11			; 0000000bH
  003f0	0b		 DB	 11			; 0000000bH
  003f1	0b		 DB	 11			; 0000000bH
  003f2	0b		 DB	 11			; 0000000bH
  003f3	0b		 DB	 11			; 0000000bH
  003f4	0b		 DB	 11			; 0000000bH
  003f5	0b		 DB	 11			; 0000000bH
  003f6	0b		 DB	 11			; 0000000bH
  003f7	0b		 DB	 11			; 0000000bH
  003f8	0b		 DB	 11			; 0000000bH
  003f9	0b		 DB	 11			; 0000000bH
  003fa	0b		 DB	 11			; 0000000bH
  003fb	0b		 DB	 11			; 0000000bH
  003fc	0b		 DB	 11			; 0000000bH
  003fd	0b		 DB	 11			; 0000000bH
  003fe	0b		 DB	 11			; 0000000bH
  003ff	0b		 DB	 11			; 0000000bH
  00400	0b		 DB	 11			; 0000000bH
  00401	0b		 DB	 11			; 0000000bH
  00402	0b		 DB	 11			; 0000000bH
  00403	0b		 DB	 11			; 0000000bH
  00404	0b		 DB	 11			; 0000000bH
  00405	0b		 DB	 11			; 0000000bH
  00406	0b		 DB	 11			; 0000000bH
  00407	0b		 DB	 11			; 0000000bH
  00408	0b		 DB	 11			; 0000000bH
  00409	0b		 DB	 11			; 0000000bH
  0040a	0b		 DB	 11			; 0000000bH
  0040b	0b		 DB	 11			; 0000000bH
  0040c	0b		 DB	 11			; 0000000bH
  0040d	01		 DB	 1
  0040e	0b		 DB	 11			; 0000000bH
  0040f	0b		 DB	 11			; 0000000bH
  00410	0b		 DB	 11			; 0000000bH
  00411	0b		 DB	 11			; 0000000bH
  00412	0b		 DB	 11			; 0000000bH
  00413	0b		 DB	 11			; 0000000bH
  00414	0b		 DB	 11			; 0000000bH
  00415	0b		 DB	 11			; 0000000bH
  00416	0b		 DB	 11			; 0000000bH
  00417	0b		 DB	 11			; 0000000bH
  00418	0b		 DB	 11			; 0000000bH
  00419	0b		 DB	 11			; 0000000bH
  0041a	0b		 DB	 11			; 0000000bH
  0041b	0b		 DB	 11			; 0000000bH
  0041c	0b		 DB	 11			; 0000000bH
  0041d	0b		 DB	 11			; 0000000bH
  0041e	0b		 DB	 11			; 0000000bH
  0041f	0b		 DB	 11			; 0000000bH
  00420	0b		 DB	 11			; 0000000bH
  00421	0b		 DB	 11			; 0000000bH
  00422	0b		 DB	 11			; 0000000bH
  00423	0b		 DB	 11			; 0000000bH
  00424	0b		 DB	 11			; 0000000bH
  00425	0b		 DB	 11			; 0000000bH
  00426	0b		 DB	 11			; 0000000bH
  00427	0b		 DB	 11			; 0000000bH
  00428	0b		 DB	 11			; 0000000bH
  00429	0b		 DB	 11			; 0000000bH
  0042a	0b		 DB	 11			; 0000000bH
  0042b	0b		 DB	 11			; 0000000bH
  0042c	0b		 DB	 11			; 0000000bH
  0042d	0b		 DB	 11			; 0000000bH
  0042e	0b		 DB	 11			; 0000000bH
  0042f	0b		 DB	 11			; 0000000bH
  00430	0b		 DB	 11			; 0000000bH
  00431	0b		 DB	 11			; 0000000bH
  00432	0b		 DB	 11			; 0000000bH
  00433	0b		 DB	 11			; 0000000bH
  00434	0b		 DB	 11			; 0000000bH
  00435	0b		 DB	 11			; 0000000bH
  00436	02		 DB	 2
  00437	0b		 DB	 11			; 0000000bH
  00438	0b		 DB	 11			; 0000000bH
  00439	0b		 DB	 11			; 0000000bH
  0043a	0b		 DB	 11			; 0000000bH
  0043b	0b		 DB	 11			; 0000000bH
  0043c	0b		 DB	 11			; 0000000bH
  0043d	0b		 DB	 11			; 0000000bH
  0043e	0b		 DB	 11			; 0000000bH
  0043f	0b		 DB	 11			; 0000000bH
  00440	0b		 DB	 11			; 0000000bH
  00441	0b		 DB	 11			; 0000000bH
  00442	0b		 DB	 11			; 0000000bH
  00443	03		 DB	 3
  00444	0b		 DB	 11			; 0000000bH
  00445	0b		 DB	 11			; 0000000bH
  00446	0b		 DB	 11			; 0000000bH
  00447	0b		 DB	 11			; 0000000bH
  00448	0b		 DB	 11			; 0000000bH
  00449	0b		 DB	 11			; 0000000bH
  0044a	04		 DB	 4
  0044b	0b		 DB	 11			; 0000000bH
  0044c	0b		 DB	 11			; 0000000bH
  0044d	0b		 DB	 11			; 0000000bH
  0044e	0b		 DB	 11			; 0000000bH
  0044f	0b		 DB	 11			; 0000000bH
  00450	0b		 DB	 11			; 0000000bH
  00451	0b		 DB	 11			; 0000000bH
  00452	0b		 DB	 11			; 0000000bH
  00453	0b		 DB	 11			; 0000000bH
  00454	0b		 DB	 11			; 0000000bH
  00455	0b		 DB	 11			; 0000000bH
  00456	0b		 DB	 11			; 0000000bH
  00457	0b		 DB	 11			; 0000000bH
  00458	0b		 DB	 11			; 0000000bH
  00459	0b		 DB	 11			; 0000000bH
  0045a	0b		 DB	 11			; 0000000bH
  0045b	0b		 DB	 11			; 0000000bH
  0045c	0b		 DB	 11			; 0000000bH
  0045d	0b		 DB	 11			; 0000000bH
  0045e	0b		 DB	 11			; 0000000bH
  0045f	0b		 DB	 11			; 0000000bH
  00460	0b		 DB	 11			; 0000000bH
  00461	0b		 DB	 11			; 0000000bH
  00462	0b		 DB	 11			; 0000000bH
  00463	0b		 DB	 11			; 0000000bH
  00464	0b		 DB	 11			; 0000000bH
  00465	0b		 DB	 11			; 0000000bH
  00466	0b		 DB	 11			; 0000000bH
  00467	0b		 DB	 11			; 0000000bH
  00468	05		 DB	 5
  00469	0b		 DB	 11			; 0000000bH
  0046a	0b		 DB	 11			; 0000000bH
  0046b	0b		 DB	 11			; 0000000bH
  0046c	06		 DB	 6
  0046d	0b		 DB	 11			; 0000000bH
  0046e	0b		 DB	 11			; 0000000bH
  0046f	0b		 DB	 11			; 0000000bH
  00470	0b		 DB	 11			; 0000000bH
  00471	0b		 DB	 11			; 0000000bH
  00472	0b		 DB	 11			; 0000000bH
  00473	0b		 DB	 11			; 0000000bH
  00474	0b		 DB	 11			; 0000000bH
  00475	0b		 DB	 11			; 0000000bH
  00476	0b		 DB	 11			; 0000000bH
  00477	0b		 DB	 11			; 0000000bH
  00478	0b		 DB	 11			; 0000000bH
  00479	0b		 DB	 11			; 0000000bH
  0047a	0b		 DB	 11			; 0000000bH
  0047b	0b		 DB	 11			; 0000000bH
  0047c	0b		 DB	 11			; 0000000bH
  0047d	0b		 DB	 11			; 0000000bH
  0047e	0b		 DB	 11			; 0000000bH
  0047f	0b		 DB	 11			; 0000000bH
  00480	0b		 DB	 11			; 0000000bH
  00481	0b		 DB	 11			; 0000000bH
  00482	0b		 DB	 11			; 0000000bH
  00483	0b		 DB	 11			; 0000000bH
  00484	0b		 DB	 11			; 0000000bH
  00485	0b		 DB	 11			; 0000000bH
  00486	0b		 DB	 11			; 0000000bH
  00487	0b		 DB	 11			; 0000000bH
  00488	0b		 DB	 11			; 0000000bH
  00489	0b		 DB	 11			; 0000000bH
  0048a	05		 DB	 5
  0048b	0b		 DB	 11			; 0000000bH
  0048c	0b		 DB	 11			; 0000000bH
  0048d	0b		 DB	 11			; 0000000bH
  0048e	0b		 DB	 11			; 0000000bH
  0048f	0b		 DB	 11			; 0000000bH
  00490	0b		 DB	 11			; 0000000bH
  00491	0b		 DB	 11			; 0000000bH
  00492	0b		 DB	 11			; 0000000bH
  00493	0b		 DB	 11			; 0000000bH
  00494	07		 DB	 7
  00495	0b		 DB	 11			; 0000000bH
  00496	0b		 DB	 11			; 0000000bH
  00497	0b		 DB	 11			; 0000000bH
  00498	0b		 DB	 11			; 0000000bH
  00499	0b		 DB	 11			; 0000000bH
  0049a	0b		 DB	 11			; 0000000bH
  0049b	0b		 DB	 11			; 0000000bH
  0049c	0b		 DB	 11			; 0000000bH
  0049d	0b		 DB	 11			; 0000000bH
  0049e	0b		 DB	 11			; 0000000bH
  0049f	08		 DB	 8
  004a0	0b		 DB	 11			; 0000000bH
  004a1	0b		 DB	 11			; 0000000bH
  004a2	0b		 DB	 11			; 0000000bH
  004a3	0b		 DB	 11			; 0000000bH
  004a4	0b		 DB	 11			; 0000000bH
  004a5	0b		 DB	 11			; 0000000bH
  004a6	0b		 DB	 11			; 0000000bH
  004a7	0b		 DB	 11			; 0000000bH
  004a8	0b		 DB	 11			; 0000000bH
  004a9	0b		 DB	 11			; 0000000bH
  004aa	09		 DB	 9
  004ab	0b		 DB	 11			; 0000000bH
  004ac	0b		 DB	 11			; 0000000bH
  004ad	0b		 DB	 11			; 0000000bH
  004ae	0b		 DB	 11			; 0000000bH
  004af	0b		 DB	 11			; 0000000bH
  004b0	0b		 DB	 11			; 0000000bH
  004b1	0b		 DB	 11			; 0000000bH
  004b2	0b		 DB	 11			; 0000000bH
  004b3	0b		 DB	 11			; 0000000bH
  004b4	0b		 DB	 11			; 0000000bH
  004b5	0b		 DB	 11			; 0000000bH
  004b6	0b		 DB	 11			; 0000000bH
  004b7	0b		 DB	 11			; 0000000bH
  004b8	0b		 DB	 11			; 0000000bH
  004b9	0b		 DB	 11			; 0000000bH
  004ba	0b		 DB	 11			; 0000000bH
  004bb	0b		 DB	 11			; 0000000bH
  004bc	0b		 DB	 11			; 0000000bH
  004bd	0b		 DB	 11			; 0000000bH
  004be	0b		 DB	 11			; 0000000bH
  004bf	0a		 DB	 10			; 0000000aH
  004c0	0b		 DB	 11			; 0000000bH
  004c1	0b		 DB	 11			; 0000000bH
  004c2	0b		 DB	 11			; 0000000bH
  004c3	0b		 DB	 11			; 0000000bH
  004c4	0b		 DB	 11			; 0000000bH
  004c5	0b		 DB	 11			; 0000000bH
  004c6	0b		 DB	 11			; 0000000bH
  004c7	05		 DB	 5
?get_local_int_value@@YGHPAUENTITY@@W4INT_TYPES@@@Z ENDP ; get_local_int_value
_TEXT	ENDS
; Function compile flags: /Odtp /ZI
; File c:\users\nhv90\projects\eech\aphavoc\source\entity\mobile\mb_int.c
;	COMDAT ?set_client_int_value@@YGXPAUENTITY@@W4INT_TYPES@@H@Z
_TEXT	SEGMENT
_en$ = 8						; size = 4
_type$ = 12						; size = 4
_value$ = 16						; size = 4
?set_client_int_value@@YGXPAUENTITY@@W4INT_TYPES@@H@Z PROC ; set_client_int_value, COMDAT

; 232  : {

  00000	55		 push	 ebp
  00001	8b ec		 mov	 ebp, esp
  00003	83 ec 40	 sub	 esp, 64			; 00000040H
  00006	53		 push	 ebx
  00007	56		 push	 esi
  00008	57		 push	 edi

; 233  : 	if (get_comms_data_flow () == COMMS_DATA_FLOW_TX)

  00009	83 3d 00 00 00
	00 00		 cmp	 DWORD PTR ?system_comms_data_flow@@3W4COMMS_DATA_FLOW_TYPES@@A, 0 ; system_comms_data_flow
  00010	75 34		 jne	 SHORT $LN2@set_client

; 234  : 	{
; 235  : 		validate_client_server_remote_fn ();

  00012	e8 00 00 00 00	 call	 ?assert_client_server_remote_fn@@YGHXZ ; assert_client_server_remote_fn
  00017	85 c0		 test	 eax, eax
  00019	75 18		 jne	 SHORT $LN4@set_client
  0001b	a1 00 00 00 00	 mov	 eax, DWORD PTR ?__LINE__Var@?0??set_client_int_value@@YGXPAUENTITY@@W4INT_TYPES@@H@Z@4JA
  00020	83 c0 03	 add	 eax, 3
  00023	50		 push	 eax
  00024	68 00 00 00 00	 push	 OFFSET ??_C@_0ED@FCCMLADN@c?3?2users?2nhv90?2projects?2eech?2ap@
  00029	68 00 00 00 00	 push	 OFFSET ??_C@_0CC@BNNNEGEG@assert_client_server_remote_fn?5@
  0002e	e8 00 00 00 00	 call	 ?process_assert@@YGXPBD0H@Z ; process_assert
$LN4@set_client:

; 236  : 
; 237  : 		set_remote_int_value (en, type, value);

  00033	8b 45 10	 mov	 eax, DWORD PTR _value$[ebp]
  00036	50		 push	 eax
  00037	8b 4d 0c	 mov	 ecx, DWORD PTR _type$[ebp]
  0003a	51		 push	 ecx
  0003b	8b 55 08	 mov	 edx, DWORD PTR _en$[ebp]
  0003e	52		 push	 edx
  0003f	e8 00 00 00 00	 call	 ?set_remote_int_value@@YGXPAUENTITY@@W4INT_TYPES@@H@Z ; set_remote_int_value

; 238  : 	}
; 239  : 	else

  00044	eb 32		 jmp	 SHORT $LN1@set_client
$LN2@set_client:

; 240  : 	{
; 241  : 		validate_client_server_local_fn ();

  00046	e8 00 00 00 00	 call	 ?assert_client_server_local_fn@@YGHXZ ; assert_client_server_local_fn
  0004b	85 c0		 test	 eax, eax
  0004d	75 18		 jne	 SHORT $LN5@set_client
  0004f	a1 00 00 00 00	 mov	 eax, DWORD PTR ?__LINE__Var@?0??set_client_int_value@@YGXPAUENTITY@@W4INT_TYPES@@H@Z@4JA
  00054	83 c0 09	 add	 eax, 9
  00057	50		 push	 eax
  00058	68 00 00 00 00	 push	 OFFSET ??_C@_0ED@FCCMLADN@c?3?2users?2nhv90?2projects?2eech?2ap@
  0005d	68 00 00 00 00	 push	 OFFSET ??_C@_0CB@CFOCLFOK@assert_client_server_local_fn?5?$CI@
  00062	e8 00 00 00 00	 call	 ?process_assert@@YGXPBD0H@Z ; process_assert
$LN5@set_client:

; 242  : 
; 243  : 		set_local_int_value (en, type, value);

  00067	8b 45 10	 mov	 eax, DWORD PTR _value$[ebp]
  0006a	50		 push	 eax
  0006b	8b 4d 0c	 mov	 ecx, DWORD PTR _type$[ebp]
  0006e	51		 push	 ecx
  0006f	8b 55 08	 mov	 edx, DWORD PTR _en$[ebp]
  00072	52		 push	 edx
  00073	e8 00 00 00 00	 call	 ?set_local_int_value@@YGXPAUENTITY@@W4INT_TYPES@@H@Z ; set_local_int_value
$LN1@set_client:

; 244  : 	}
; 245  : }

  00078	5f		 pop	 edi
  00079	5e		 pop	 esi
  0007a	5b		 pop	 ebx
  0007b	8b e5		 mov	 esp, ebp
  0007d	5d		 pop	 ebp
  0007e	c2 0c 00	 ret	 12			; 0000000cH
?set_client_int_value@@YGXPAUENTITY@@W4INT_TYPES@@H@Z ENDP ; set_client_int_value
_TEXT	ENDS
; Function compile flags: /Odtp /ZI
; File c:\users\nhv90\projects\eech\aphavoc\source\entity\mobile\mb_int.c
;	COMDAT ?set_server_int_value@@YGXPAUENTITY@@W4INT_TYPES@@H@Z
_TEXT	SEGMENT
_en$ = 8						; size = 4
_type$ = 12						; size = 4
_value$ = 16						; size = 4
?set_server_int_value@@YGXPAUENTITY@@W4INT_TYPES@@H@Z PROC ; set_server_int_value, COMDAT

; 217  : {

  00000	55		 push	 ebp
  00001	8b ec		 mov	 ebp, esp
  00003	83 ec 40	 sub	 esp, 64			; 00000040H
  00006	53		 push	 ebx
  00007	56		 push	 esi
  00008	57		 push	 edi

; 218  : 	validate_client_server_local_fn ();

  00009	e8 00 00 00 00	 call	 ?assert_client_server_local_fn@@YGHXZ ; assert_client_server_local_fn
  0000e	85 c0		 test	 eax, eax
  00010	75 18		 jne	 SHORT $LN2@set_server
  00012	a1 00 00 00 00	 mov	 eax, DWORD PTR ?__LINE__Var@?0??set_server_int_value@@YGXPAUENTITY@@W4INT_TYPES@@H@Z@4JA
  00017	83 c0 01	 add	 eax, 1
  0001a	50		 push	 eax
  0001b	68 00 00 00 00	 push	 OFFSET ??_C@_0ED@FCCMLADN@c?3?2users?2nhv90?2projects?2eech?2ap@
  00020	68 00 00 00 00	 push	 OFFSET ??_C@_0CB@CFOCLFOK@assert_client_server_local_fn?5?$CI@
  00025	e8 00 00 00 00	 call	 ?process_assert@@YGXPBD0H@Z ; process_assert
$LN2@set_server:

; 219  : 
; 220  : 	set_local_int_value (en, type, value);

  0002a	8b 45 10	 mov	 eax, DWORD PTR _value$[ebp]
  0002d	50		 push	 eax
  0002e	8b 4d 0c	 mov	 ecx, DWORD PTR _type$[ebp]
  00031	51		 push	 ecx
  00032	8b 55 08	 mov	 edx, DWORD PTR _en$[ebp]
  00035	52		 push	 edx
  00036	e8 00 00 00 00	 call	 ?set_local_int_value@@YGXPAUENTITY@@W4INT_TYPES@@H@Z ; set_local_int_value

; 221  : 
; 222  : 	validate_client_server_remote_fn ();

  0003b	e8 00 00 00 00	 call	 ?assert_client_server_remote_fn@@YGHXZ ; assert_client_server_remote_fn
  00040	85 c0		 test	 eax, eax
  00042	75 18		 jne	 SHORT $LN3@set_server
  00044	a1 00 00 00 00	 mov	 eax, DWORD PTR ?__LINE__Var@?0??set_server_int_value@@YGXPAUENTITY@@W4INT_TYPES@@H@Z@4JA
  00049	83 c0 05	 add	 eax, 5
  0004c	50		 push	 eax
  0004d	68 00 00 00 00	 push	 OFFSET ??_C@_0ED@FCCMLADN@c?3?2users?2nhv90?2projects?2eech?2ap@
  00052	68 00 00 00 00	 push	 OFFSET ??_C@_0CC@BNNNEGEG@assert_client_server_remote_fn?5@
  00057	e8 00 00 00 00	 call	 ?process_assert@@YGXPBD0H@Z ; process_assert
$LN3@set_server:

; 223  : 
; 224  : 	set_remote_int_value (en, type, value);

  0005c	8b 45 10	 mov	 eax, DWORD PTR _value$[ebp]
  0005f	50		 push	 eax
  00060	8b 4d 0c	 mov	 ecx, DWORD PTR _type$[ebp]
  00063	51		 push	 ecx
  00064	8b 55 08	 mov	 edx, DWORD PTR _en$[ebp]
  00067	52		 push	 edx
  00068	e8 00 00 00 00	 call	 ?set_remote_int_value@@YGXPAUENTITY@@W4INT_TYPES@@H@Z ; set_remote_int_value

; 225  : }

  0006d	5f		 pop	 edi
  0006e	5e		 pop	 esi
  0006f	5b		 pop	 ebx
  00070	8b e5		 mov	 esp, ebp
  00072	5d		 pop	 ebp
  00073	c2 0c 00	 ret	 12			; 0000000cH
?set_server_int_value@@YGXPAUENTITY@@W4INT_TYPES@@H@Z ENDP ; set_server_int_value
_TEXT	ENDS
; Function compile flags: /Odtp /ZI
; File c:\users\nhv90\projects\eech\aphavoc\source\entity\mobile\mb_int.c
;	COMDAT ?set_remote_int_value@@YGXPAUENTITY@@W4INT_TYPES@@H@Z
_TEXT	SEGMENT
_en$ = 8						; size = 4
_type$ = 12						; size = 4
_value$ = 16						; size = 4
?set_remote_int_value@@YGXPAUENTITY@@W4INT_TYPES@@H@Z PROC ; set_remote_int_value, COMDAT

; 202  : {

  00000	55		 push	 ebp
  00001	8b ec		 mov	 ebp, esp
  00003	83 ec 40	 sub	 esp, 64			; 00000040H
  00006	53		 push	 ebx
  00007	56		 push	 esi
  00008	57		 push	 edi

; 203  : 	#if DEBUG_MODULE
; 204  : 
; 205  : 	debug_log_entity_args (ENTITY_DEBUG_REMOTE, ENTITY_DEBUG_INT_VALUE, en, type, value);
; 206  : 
; 207  : 	#endif
; 208  : 
; 209  : 	transmit_entity_comms_message (ENTITY_COMMS_INT_VALUE, en, type, value);

  00009	8b 45 10	 mov	 eax, DWORD PTR _value$[ebp]
  0000c	50		 push	 eax
  0000d	8b 4d 0c	 mov	 ecx, DWORD PTR _type$[ebp]
  00010	51		 push	 ecx
  00011	8b 55 08	 mov	 edx, DWORD PTR _en$[ebp]
  00014	52		 push	 edx
  00015	6a 17		 push	 23			; 00000017H
  00017	e8 00 00 00 00	 call	 ?transmit_entity_comms_message@@YAXW4ENTITY_COMMS_MESSAGES@@PAUENTITY@@ZZ ; transmit_entity_comms_message
  0001c	83 c4 10	 add	 esp, 16			; 00000010H

; 210  : }

  0001f	5f		 pop	 edi
  00020	5e		 pop	 esi
  00021	5b		 pop	 ebx
  00022	8b e5		 mov	 esp, ebp
  00024	5d		 pop	 ebp
  00025	c2 0c 00	 ret	 12			; 0000000cH
?set_remote_int_value@@YGXPAUENTITY@@W4INT_TYPES@@H@Z ENDP ; set_remote_int_value
_TEXT	ENDS
; Function compile flags: /Odtp /ZI
; File c:\users\nhv90\projects\eech\aphavoc\source\entity\mobile\mb_int.c
;	COMDAT ?set_local_int_value@@YGXPAUENTITY@@W4INT_TYPES@@H@Z
_TEXT	SEGMENT
tv173 = -84						; size = 4
tv65 = -84						; size = 4
_offset$1 = -16						; size = 4
_index$2 = -12						; size = 4
_mask$3 = -8						; size = 4
_raw$ = -4						; size = 4
_en$ = 8						; size = 4
_type$ = 12						; size = 4
_value$ = 16						; size = 4
?set_local_int_value@@YGXPAUENTITY@@W4INT_TYPES@@H@Z PROC ; set_local_int_value, COMDAT

; 80   : {

  00000	55		 push	 ebp
  00001	8b ec		 mov	 ebp, esp
  00003	83 ec 54	 sub	 esp, 84			; 00000054H
  00006	53		 push	 ebx
  00007	56		 push	 esi
  00008	57		 push	 edi

; 81   : 	mobile
; 82   : 		*raw;
; 83   : 
; 84   : 	#if DEBUG_MODULE
; 85   : 
; 86   : 	debug_log_entity_args (ENTITY_DEBUG_LOCAL, ENTITY_DEBUG_INT_VALUE, en, type, value);
; 87   : 
; 88   : 	#endif
; 89   : 
; 90   : 	raw = (mobile *) get_local_entity_data (en);

  00009	8b 45 08	 mov	 eax, DWORD PTR _en$[ebp]
  0000c	8b 48 04	 mov	 ecx, DWORD PTR [eax+4]
  0000f	89 4d fc	 mov	 DWORD PTR _raw$[ebp], ecx

; 91   : 
; 92   : 	switch (type)

  00012	8b 45 0c	 mov	 eax, DWORD PTR _type$[ebp]
  00015	89 45 ac	 mov	 DWORD PTR tv65[ebp], eax
  00018	8b 4d ac	 mov	 ecx, DWORD PTR tv65[ebp]
  0001b	83 e9 07	 sub	 ecx, 7
  0001e	89 4d ac	 mov	 DWORD PTR tv65[ebp], ecx
  00021	81 7d ac e7 00
	00 00		 cmp	 DWORD PTR tv65[ebp], 231 ; 000000e7H
  00028	0f 87 61 01 00
	00		 ja	 $LN16@set_local_
  0002e	8b 55 ac	 mov	 edx, DWORD PTR tv65[ebp]
  00031	0f b6 82 00 00
	00 00		 movzx	 eax, BYTE PTR $LN20@set_local_[edx]
  00038	ff 24 85 00 00
	00 00		 jmp	 DWORD PTR $LN21@set_local_[eax*4]
$LN4@set_local_:

; 93   : 	{
; 94   : 		////////////////////////////////////////
; 95   : 		case INT_TYPE_ALIVE:
; 96   : 		////////////////////////////////////////
; 97   : 		{
; 98   : 			raw->alive = value;

  0003f	8b 45 10	 mov	 eax, DWORD PTR _value$[ebp]
  00042	83 e0 01	 and	 eax, 1
  00045	8b 4d fc	 mov	 ecx, DWORD PTR _raw$[ebp]
  00048	8b 51 7c	 mov	 edx, DWORD PTR [ecx+124]
  0004b	83 e2 fe	 and	 edx, -2			; fffffffeH
  0004e	0b d0		 or	 edx, eax
  00050	8b 45 fc	 mov	 eax, DWORD PTR _raw$[ebp]
  00053	89 50 7c	 mov	 DWORD PTR [eax+124], edx

; 99   : 
; 100  : 			break;

  00056	e9 a6 01 00 00	 jmp	 $LN1@set_local_
$LN5@set_local_:

; 101  : 		}
; 102  : 		////////////////////////////////////////
; 103  : 		case INT_TYPE_ENTITY_SUB_TYPE:
; 104  : 		////////////////////////////////////////
; 105  : 		{
; 106  : 			raw->sub_type = value;

  0005b	8b 45 fc	 mov	 eax, DWORD PTR _raw$[ebp]
  0005e	8b 4d 10	 mov	 ecx, DWORD PTR _value$[ebp]
  00061	89 08		 mov	 DWORD PTR [eax], ecx

; 107  : 
; 108  : 			break;

  00063	e9 99 01 00 00	 jmp	 $LN1@set_local_
$LN6@set_local_:

; 109  : 		}
; 110  : 		////////////////////////////////////////
; 111  : 		case INT_TYPE_KILL_NEXT_UPDATE:
; 112  : 		////////////////////////////////////////
; 113  : 		{
; 114  : 			raw->kill_next_update = value;

  00068	8b 45 10	 mov	 eax, DWORD PTR _value$[ebp]
  0006b	83 e0 03	 and	 eax, 3
  0006e	c1 e0 03	 shl	 eax, 3
  00071	8b 4d fc	 mov	 ecx, DWORD PTR _raw$[ebp]
  00074	8b 51 7c	 mov	 edx, DWORD PTR [ecx+124]
  00077	83 e2 e7	 and	 edx, -25		; ffffffe7H
  0007a	0b d0		 or	 edx, eax
  0007c	8b 45 fc	 mov	 eax, DWORD PTR _raw$[ebp]
  0007f	89 50 7c	 mov	 DWORD PTR [eax+124], edx

; 115  : 
; 116  : 			break;

  00082	e9 7a 01 00 00	 jmp	 $LN1@set_local_
$LN7@set_local_:

; 117  : 		}
; 118  : 		////////////////////////////////////////
; 119  : 		case INT_TYPE_OBJECT_DRAWN_ONCE_THIS_FRAME:
; 120  : 		////////////////////////////////////////
; 121  : 		{
; 122  : 			raw->object_drawn_once_this_frame = value;

  00087	8b 45 10	 mov	 eax, DWORD PTR _value$[ebp]
  0008a	83 e0 01	 and	 eax, 1
  0008d	c1 e0 06	 shl	 eax, 6
  00090	8b 4d fc	 mov	 ecx, DWORD PTR _raw$[ebp]
  00093	8b 51 7c	 mov	 edx, DWORD PTR [ecx+124]
  00096	83 e2 bf	 and	 edx, -65		; ffffffbfH
  00099	0b d0		 or	 edx, eax
  0009b	8b 45 fc	 mov	 eax, DWORD PTR _raw$[ebp]
  0009e	89 50 7c	 mov	 DWORD PTR [eax+124], edx

; 123  : 
; 124  : 			break;

  000a1	e9 5b 01 00 00	 jmp	 $LN1@set_local_
$LN8@set_local_:

; 125  : 		}
; 126  : 		////////////////////////////////////////
; 127  : 		case INT_TYPE_SIDE:
; 128  : 		////////////////////////////////////////
; 129  : 		{
; 130  : 			raw->side = value;

  000a6	8b 45 10	 mov	 eax, DWORD PTR _value$[ebp]
  000a9	83 e0 03	 and	 eax, 3
  000ac	d1 e0		 shl	 eax, 1
  000ae	8b 4d fc	 mov	 ecx, DWORD PTR _raw$[ebp]
  000b1	8b 51 7c	 mov	 edx, DWORD PTR [ecx+124]
  000b4	83 e2 f9	 and	 edx, -7			; fffffff9H
  000b7	0b d0		 or	 edx, eax
  000b9	8b 45 fc	 mov	 eax, DWORD PTR _raw$[ebp]
  000bc	89 50 7c	 mov	 DWORD PTR [eax+124], edx

; 131  : 
; 132  : 			break;

  000bf	e9 3d 01 00 00	 jmp	 $LN1@set_local_
$LN9@set_local_:

; 133  : 		}
; 134  : 		/*
; 135  : 		////////////////////////////////////////
; 136  : 		case INT_TYPE_TIMER:
; 137  : 		////////////////////////////////////////
; 138  : 		{
; 139  : 			raw->timer = value;
; 140  : 
; 141  : 			break;
; 142  : 		}
; 143  : 		*/
; 144  : 		////////////////////////////////////////
; 145  : 		case INT_TYPE_TACVIEW_LOGGING:
; 146  : 		////////////////////////////////////////
; 147  : 		{
; 148  : 			raw->tacview_logging = value;

  000c4	8b 45 10	 mov	 eax, DWORD PTR _value$[ebp]
  000c7	83 e0 01	 and	 eax, 1
  000ca	c1 e0 05	 shl	 eax, 5
  000cd	8b 4d fc	 mov	 ecx, DWORD PTR _raw$[ebp]
  000d0	8b 51 7c	 mov	 edx, DWORD PTR [ecx+124]
  000d3	83 e2 df	 and	 edx, -33		; ffffffdfH
  000d6	0b d0		 or	 edx, eax
  000d8	8b 45 fc	 mov	 eax, DWORD PTR _raw$[ebp]
  000db	89 50 7c	 mov	 DWORD PTR [eax+124], edx

; 149  : 
; 150  : 			break;

  000de	e9 1e 01 00 00	 jmp	 $LN1@set_local_
$LN10@set_local_:

; 151  : 		}
; 152  : 		////////////////////////////////////////
; 153  : 		case INT_TYPE_UPDATED:
; 154  : 		case INT_TYPE_MOVED:
; 155  : 		case INT_TYPE_ROTATED:
; 156  : 		////////////////////////////////////////
; 157  : 		{
; 158  : 			int
; 159  : 				mask,
; 160  : 				index,
; 161  : 				offset;
; 162  : 
; 163  : 			//
; 164  : 			// Coded around the entity system to avoid spinning through the update list twice
; 165  : 			// (which Vtune shows up as very slow). Update_entities is declared in update.c
; 166  : 			// You may only set the value to TRUE. It is set to FALSE by the memset in update.c
; 167  : 			//
; 168  : 
; 169  : 			ASSERT (value == TRUE);

  000e3	83 7d 10 01	 cmp	 DWORD PTR _value$[ebp], 1
  000e7	74 18		 je	 SHORT $LN11@set_local_
  000e9	a1 00 00 00 00	 mov	 eax, DWORD PTR ?__LINE__Var@?0??set_local_int_value@@YGXPAUENTITY@@W4INT_TYPES@@H@Z@4JA
  000ee	83 c0 59	 add	 eax, 89			; 00000059H
  000f1	50		 push	 eax
  000f2	68 00 00 00 00	 push	 OFFSET ??_C@_0ED@FCCMLADN@c?3?2users?2nhv90?2projects?2eech?2ap@
  000f7	68 00 00 00 00	 push	 OFFSET ??_C@_0O@GDKAJBIO@value?5?$DN?$DN?5TRUE@
  000fc	e8 00 00 00 00	 call	 ?process_assert@@YGXPBD0H@Z ; process_assert
$LN11@set_local_:

; 170  : 
; 171  : 			index = get_local_entity_index (en) >> 5;

  00101	8b 45 08	 mov	 eax, DWORD PTR _en$[ebp]
  00104	2b 05 00 00 00
	00		 sub	 eax, DWORD PTR ?entities@@3PAUENTITY@@A ; entities
  0010a	c1 f8 04	 sar	 eax, 4
  0010d	c1 f8 05	 sar	 eax, 5
  00110	89 45 f4	 mov	 DWORD PTR _index$2[ebp], eax

; 172  : 
; 173  : 			offset = get_local_entity_index (en) & 0x1f;

  00113	8b 45 08	 mov	 eax, DWORD PTR _en$[ebp]
  00116	2b 05 00 00 00
	00		 sub	 eax, DWORD PTR ?entities@@3PAUENTITY@@A ; entities
  0011c	c1 f8 04	 sar	 eax, 4
  0011f	83 e0 1f	 and	 eax, 31			; 0000001fH
  00122	89 45 f0	 mov	 DWORD PTR _offset$1[ebp], eax

; 174  : 
; 175  : 			mask = 1 << offset;

  00125	b8 01 00 00 00	 mov	 eax, 1
  0012a	8b 4d f0	 mov	 ecx, DWORD PTR _offset$1[ebp]
  0012d	d3 e0		 shl	 eax, cl
  0012f	89 45 f8	 mov	 DWORD PTR _mask$3[ebp], eax

; 176  : 
; 177  : 			if (type == INT_TYPE_UPDATED)

  00132	81 7d 0c ee 00
	00 00		 cmp	 DWORD PTR _type$[ebp], 238 ; 000000eeH
  00139	75 19		 jne	 SHORT $LN12@set_local_

; 178  : 				updated_entities [index] |= mask;

  0013b	8b 45 f4	 mov	 eax, DWORD PTR _index$2[ebp]
  0013e	8b 0c 85 00 00
	00 00		 mov	 ecx, DWORD PTR ?updated_entities@@3PAIA[eax*4]
  00145	0b 4d f8	 or	 ecx, DWORD PTR _mask$3[ebp]
  00148	8b 55 f4	 mov	 edx, DWORD PTR _index$2[ebp]
  0014b	89 0c 95 00 00
	00 00		 mov	 DWORD PTR ?updated_entities@@3PAIA[edx*4], ecx
  00152	eb 39		 jmp	 SHORT $LN13@set_local_
$LN12@set_local_:

; 179  : 			else if (type == INT_TYPE_MOVED)

  00154	81 7d 0c 8f 00
	00 00		 cmp	 DWORD PTR _type$[ebp], 143 ; 0000008fH
  0015b	75 19		 jne	 SHORT $LN14@set_local_

; 180  : 				moved_entities [index] |= mask;

  0015d	8b 45 f4	 mov	 eax, DWORD PTR _index$2[ebp]
  00160	8b 0c 85 00 00
	00 00		 mov	 ecx, DWORD PTR ?moved_entities@@3PAIA[eax*4]
  00167	0b 4d f8	 or	 ecx, DWORD PTR _mask$3[ebp]
  0016a	8b 55 f4	 mov	 edx, DWORD PTR _index$2[ebp]
  0016d	89 0c 95 00 00
	00 00		 mov	 DWORD PTR ?moved_entities@@3PAIA[edx*4], ecx

; 181  : 			else

  00174	eb 17		 jmp	 SHORT $LN13@set_local_
$LN14@set_local_:

; 182  : 				rotated_entities [index] |= mask;

  00176	8b 45 f4	 mov	 eax, DWORD PTR _index$2[ebp]
  00179	8b 0c 85 00 00
	00 00		 mov	 ecx, DWORD PTR ?rotated_entities@@3PAIA[eax*4]
  00180	0b 4d f8	 or	 ecx, DWORD PTR _mask$3[ebp]
  00183	8b 55 f4	 mov	 edx, DWORD PTR _index$2[ebp]
  00186	89 0c 95 00 00
	00 00		 mov	 DWORD PTR ?rotated_entities@@3PAIA[edx*4], ecx
$LN13@set_local_:

; 183  : 
; 184  : 			break;

  0018d	eb 72		 jmp	 SHORT $LN1@set_local_
$LN16@set_local_:

; 185  : 		}
; 186  : 		////////////////////////////////////////
; 187  : 		default:
; 188  : 		////////////////////////////////////////
; 189  : 		{
; 190  : 			debug_fatal_invalid_int_type (en, type);

  0018f	83 7d 08 00	 cmp	 DWORD PTR _en$[ebp], 0
  00193	74 0a		 je	 SHORT $LN18@set_local_
  00195	8b 45 08	 mov	 eax, DWORD PTR _en$[ebp]
  00198	8b 08		 mov	 ecx, DWORD PTR [eax]
  0019a	89 4d ac	 mov	 DWORD PTR tv173[ebp], ecx
  0019d	eb 21		 jmp	 SHORT $LN19@set_local_
$LN18@set_local_:
  0019f	8b 15 00 00 00
	00		 mov	 edx, DWORD PTR ?__LINE__Var@?0??set_local_int_value@@YGXPAUENTITY@@W4INT_TYPES@@H@Z@4JA
  001a5	83 c2 6e	 add	 edx, 110		; 0000006eH
  001a8	52		 push	 edx
  001a9	68 00 00 00 00	 push	 OFFSET ??_C@_0ED@FCCMLADN@c?3?2users?2nhv90?2projects?2eech?2ap@
  001ae	a1 00 00 00 00	 mov	 eax, DWORD PTR ?null_entity_pointer_message@@3PBDB ; null_entity_pointer_message
  001b3	50		 push	 eax
  001b4	e8 00 00 00 00	 call	 ?process_assert@@YGXPBD0H@Z ; process_assert
  001b9	c7 45 ac 00 00
	00 00		 mov	 DWORD PTR tv173[ebp], 0
$LN19@set_local_:
  001c0	8b 0d 00 00 00
	00		 mov	 ecx, DWORD PTR ?__LINE__Var@?0??set_local_int_value@@YGXPAUENTITY@@W4INT_TYPES@@H@Z@4JA
  001c6	83 c1 6e	 add	 ecx, 110		; 0000006eH
  001c9	51		 push	 ecx
  001ca	68 00 00 00 00	 push	 OFFSET ??_C@_0ED@FCCMLADN@c?3?2users?2nhv90?2projects?2eech?2ap@
  001cf	6b 55 0c 14	 imul	 edx, DWORD PTR _type$[ebp], 20
  001d3	8b 82 00 00 00
	00		 mov	 eax, DWORD PTR ?int_type_database@@3PAUINT_TYPE_DATA@@A[edx]
  001d9	50		 push	 eax
  001da	8b 4d 08	 mov	 ecx, DWORD PTR _en$[ebp]
  001dd	2b 0d 00 00 00
	00		 sub	 ecx, DWORD PTR ?entities@@3PAUENTITY@@A ; entities
  001e3	c1 f9 04	 sar	 ecx, 4
  001e6	51		 push	 ecx
  001e7	6b 55 ac 0c	 imul	 edx, DWORD PTR tv173[ebp], 12
  001eb	8b 82 00 00 00
	00		 mov	 eax, DWORD PTR ?entity_type_database@@3PAUENTITY_TYPE_DATA@@A[edx]
  001f1	50		 push	 eax
  001f2	8b 0d 00 00 00
	00		 mov	 ecx, DWORD PTR ?debug_fatal_invalid_int_type_message@@3PBDB ; debug_fatal_invalid_int_type_message
  001f8	51		 push	 ecx
  001f9	e8 00 00 00 00	 call	 ?debug_fatal@@YAXPBDZZ	; debug_fatal
  001fe	83 c4 18	 add	 esp, 24			; 00000018H
$LN1@set_local_:

; 191  : 
; 192  : 			break;
; 193  : 		}
; 194  : 	}
; 195  : }

  00201	5f		 pop	 edi
  00202	5e		 pop	 esi
  00203	5b		 pop	 ebx
  00204	8b e5		 mov	 esp, ebp
  00206	5d		 pop	 ebp
  00207	c2 0c 00	 ret	 12			; 0000000cH
  0020a	66 90		 npad	 2
$LN21@set_local_:
  0020c	00 00 00 00	 DD	 $LN4@set_local_
  00210	00 00 00 00	 DD	 $LN5@set_local_
  00214	00 00 00 00	 DD	 $LN6@set_local_
  00218	00 00 00 00	 DD	 $LN10@set_local_
  0021c	00 00 00 00	 DD	 $LN7@set_local_
  00220	00 00 00 00	 DD	 $LN8@set_local_
  00224	00 00 00 00	 DD	 $LN9@set_local_
  00228	00 00 00 00	 DD	 $LN16@set_local_
$LN20@set_local_:
  0022c	00		 DB	 0
  0022d	07		 DB	 7
  0022e	07		 DB	 7
  0022f	07		 DB	 7
  00230	07		 DB	 7
  00231	07		 DB	 7
  00232	07		 DB	 7
  00233	07		 DB	 7
  00234	07		 DB	 7
  00235	07		 DB	 7
  00236	07		 DB	 7
  00237	07		 DB	 7
  00238	07		 DB	 7
  00239	07		 DB	 7
  0023a	07		 DB	 7
  0023b	07		 DB	 7
  0023c	07		 DB	 7
  0023d	07		 DB	 7
  0023e	07		 DB	 7
  0023f	07		 DB	 7
  00240	07		 DB	 7
  00241	07		 DB	 7
  00242	07		 DB	 7
  00243	07		 DB	 7
  00244	07		 DB	 7
  00245	07		 DB	 7
  00246	07		 DB	 7
  00247	07		 DB	 7
  00248	07		 DB	 7
  00249	07		 DB	 7
  0024a	07		 DB	 7
  0024b	07		 DB	 7
  0024c	07		 DB	 7
  0024d	07		 DB	 7
  0024e	07		 DB	 7
  0024f	07		 DB	 7
  00250	07		 DB	 7
  00251	07		 DB	 7
  00252	07		 DB	 7
  00253	07		 DB	 7
  00254	07		 DB	 7
  00255	07		 DB	 7
  00256	07		 DB	 7
  00257	07		 DB	 7
  00258	07		 DB	 7
  00259	01		 DB	 1
  0025a	07		 DB	 7
  0025b	07		 DB	 7
  0025c	07		 DB	 7
  0025d	07		 DB	 7
  0025e	07		 DB	 7
  0025f	07		 DB	 7
  00260	07		 DB	 7
  00261	07		 DB	 7
  00262	07		 DB	 7
  00263	07		 DB	 7
  00264	07		 DB	 7
  00265	07		 DB	 7
  00266	07		 DB	 7
  00267	07		 DB	 7
  00268	07		 DB	 7
  00269	07		 DB	 7
  0026a	07		 DB	 7
  0026b	07		 DB	 7
  0026c	07		 DB	 7
  0026d	07		 DB	 7
  0026e	07		 DB	 7
  0026f	07		 DB	 7
  00270	07		 DB	 7
  00271	07		 DB	 7
  00272	07		 DB	 7
  00273	07		 DB	 7
  00274	07		 DB	 7
  00275	07		 DB	 7
  00276	07		 DB	 7
  00277	07		 DB	 7
  00278	07		 DB	 7
  00279	07		 DB	 7
  0027a	07		 DB	 7
  0027b	07		 DB	 7
  0027c	07		 DB	 7
  0027d	07		 DB	 7
  0027e	07		 DB	 7
  0027f	07		 DB	 7
  00280	07		 DB	 7
  00281	07		 DB	 7
  00282	07		 DB	 7
  00283	07		 DB	 7
  00284	07		 DB	 7
  00285	07		 DB	 7
  00286	07		 DB	 7
  00287	07		 DB	 7
  00288	07		 DB	 7
  00289	07		 DB	 7
  0028a	07		 DB	 7
  0028b	07		 DB	 7
  0028c	07		 DB	 7
  0028d	07		 DB	 7
  0028e	07		 DB	 7
  0028f	07		 DB	 7
  00290	07		 DB	 7
  00291	07		 DB	 7
  00292	07		 DB	 7
  00293	07		 DB	 7
  00294	07		 DB	 7
  00295	07		 DB	 7
  00296	02		 DB	 2
  00297	07		 DB	 7
  00298	07		 DB	 7
  00299	07		 DB	 7
  0029a	07		 DB	 7
  0029b	07		 DB	 7
  0029c	07		 DB	 7
  0029d	07		 DB	 7
  0029e	07		 DB	 7
  0029f	07		 DB	 7
  002a0	07		 DB	 7
  002a1	07		 DB	 7
  002a2	07		 DB	 7
  002a3	07		 DB	 7
  002a4	07		 DB	 7
  002a5	07		 DB	 7
  002a6	07		 DB	 7
  002a7	07		 DB	 7
  002a8	07		 DB	 7
  002a9	07		 DB	 7
  002aa	07		 DB	 7
  002ab	07		 DB	 7
  002ac	07		 DB	 7
  002ad	07		 DB	 7
  002ae	07		 DB	 7
  002af	07		 DB	 7
  002b0	07		 DB	 7
  002b1	07		 DB	 7
  002b2	07		 DB	 7
  002b3	07		 DB	 7
  002b4	03		 DB	 3
  002b5	07		 DB	 7
  002b6	07		 DB	 7
  002b7	07		 DB	 7
  002b8	04		 DB	 4
  002b9	07		 DB	 7
  002ba	07		 DB	 7
  002bb	07		 DB	 7
  002bc	07		 DB	 7
  002bd	07		 DB	 7
  002be	07		 DB	 7
  002bf	07		 DB	 7
  002c0	07		 DB	 7
  002c1	07		 DB	 7
  002c2	07		 DB	 7
  002c3	07		 DB	 7
  002c4	07		 DB	 7
  002c5	07		 DB	 7
  002c6	07		 DB	 7
  002c7	07		 DB	 7
  002c8	07		 DB	 7
  002c9	07		 DB	 7
  002ca	07		 DB	 7
  002cb	07		 DB	 7
  002cc	07		 DB	 7
  002cd	07		 DB	 7
  002ce	07		 DB	 7
  002cf	07		 DB	 7
  002d0	07		 DB	 7
  002d1	07		 DB	 7
  002d2	07		 DB	 7
  002d3	07		 DB	 7
  002d4	07		 DB	 7
  002d5	07		 DB	 7
  002d6	03		 DB	 3
  002d7	07		 DB	 7
  002d8	07		 DB	 7
  002d9	07		 DB	 7
  002da	07		 DB	 7
  002db	07		 DB	 7
  002dc	07		 DB	 7
  002dd	07		 DB	 7
  002de	07		 DB	 7
  002df	07		 DB	 7
  002e0	05		 DB	 5
  002e1	07		 DB	 7
  002e2	07		 DB	 7
  002e3	07		 DB	 7
  002e4	07		 DB	 7
  002e5	07		 DB	 7
  002e6	07		 DB	 7
  002e7	07		 DB	 7
  002e8	07		 DB	 7
  002e9	07		 DB	 7
  002ea	07		 DB	 7
  002eb	07		 DB	 7
  002ec	07		 DB	 7
  002ed	07		 DB	 7
  002ee	07		 DB	 7
  002ef	07		 DB	 7
  002f0	07		 DB	 7
  002f1	07		 DB	 7
  002f2	07		 DB	 7
  002f3	07		 DB	 7
  002f4	07		 DB	 7
  002f5	07		 DB	 7
  002f6	06		 DB	 6
  002f7	07		 DB	 7
  002f8	07		 DB	 7
  002f9	07		 DB	 7
  002fa	07		 DB	 7
  002fb	07		 DB	 7
  002fc	07		 DB	 7
  002fd	07		 DB	 7
  002fe	07		 DB	 7
  002ff	07		 DB	 7
  00300	07		 DB	 7
  00301	07		 DB	 7
  00302	07		 DB	 7
  00303	07		 DB	 7
  00304	07		 DB	 7
  00305	07		 DB	 7
  00306	07		 DB	 7
  00307	07		 DB	 7
  00308	07		 DB	 7
  00309	07		 DB	 7
  0030a	07		 DB	 7
  0030b	07		 DB	 7
  0030c	07		 DB	 7
  0030d	07		 DB	 7
  0030e	07		 DB	 7
  0030f	07		 DB	 7
  00310	07		 DB	 7
  00311	07		 DB	 7
  00312	07		 DB	 7
  00313	03		 DB	 3
?set_local_int_value@@YGXPAUENTITY@@W4INT_TYPES@@H@Z ENDP ; set_local_int_value
_TEXT	ENDS
; Function compile flags: /Odtp /ZI
; File c:\users\nhv90\projects\eech\aphavoc\source\entity\mobile\mb_int.c
;	COMDAT ?overload_mobile_int_value_functions@@YGXW4ENTITY_TYPES@@@Z
_TEXT	SEGMENT
_type$ = 8						; size = 4
?overload_mobile_int_value_functions@@YGXW4ENTITY_TYPES@@@Z PROC ; overload_mobile_int_value_functions, COMDAT

; 416  : {

  00000	55		 push	 ebp
  00001	8b ec		 mov	 ebp, esp
  00003	83 ec 40	 sub	 esp, 64			; 00000040H
  00006	53		 push	 ebx
  00007	56		 push	 esi
  00008	57		 push	 edi

; 417  : 	fn_set_local_entity_raw_int_value		[type][INT_TYPE_ALIVE]												= set_local_int_value;

  00009	69 45 08 5c 04
	00 00		 imul	 eax, DWORD PTR _type$[ebp], 1116
  00010	b9 04 00 00 00	 mov	 ecx, 4
  00015	6b d1 07	 imul	 edx, ecx, 7
  00018	c7 84 10 00 00
	00 00 00 00 00
	00		 mov	 DWORD PTR ?fn_set_local_entity_raw_int_value@@3PAY0BBH@P6GXPAUENTITY@@W4INT_TYPES@@H@ZA[eax+edx], OFFSET ?set_local_int_value@@YGXPAUENTITY@@W4INT_TYPES@@H@Z ; set_local_int_value

; 418  : 	fn_set_local_entity_int_value				[type][INT_TYPE_ALIVE]												= set_local_int_value;

  00023	69 45 08 5c 04
	00 00		 imul	 eax, DWORD PTR _type$[ebp], 1116
  0002a	b9 04 00 00 00	 mov	 ecx, 4
  0002f	6b d1 07	 imul	 edx, ecx, 7
  00032	c7 84 10 00 00
	00 00 00 00 00
	00		 mov	 DWORD PTR ?fn_set_local_entity_int_value@@3PAY0BBH@P6GXPAUENTITY@@W4INT_TYPES@@H@ZA[eax+edx], OFFSET ?set_local_int_value@@YGXPAUENTITY@@W4INT_TYPES@@H@Z ; set_local_int_value

; 419  : 	fn_set_client_server_entity_int_value	[type][INT_TYPE_ALIVE][COMMS_MODEL_SERVER]					= set_server_int_value;

  0003d	69 45 08 b8 08
	00 00		 imul	 eax, DWORD PTR _type$[ebp], 2232
  00044	b9 08 00 00 00	 mov	 ecx, 8
  00049	6b d1 07	 imul	 edx, ecx, 7
  0004c	8d 84 10 00 00
	00 00		 lea	 eax, DWORD PTR ?fn_set_client_server_entity_int_value@@3PAY1BBH@1P6GXPAUENTITY@@W4INT_TYPES@@H@ZA[eax+edx]
  00053	b9 04 00 00 00	 mov	 ecx, 4
  00058	6b d1 00	 imul	 edx, ecx, 0
  0005b	c7 04 10 00 00
	00 00		 mov	 DWORD PTR [eax+edx], OFFSET ?set_server_int_value@@YGXPAUENTITY@@W4INT_TYPES@@H@Z ; set_server_int_value

; 420  : 	fn_set_client_server_entity_int_value	[type][INT_TYPE_ALIVE][COMMS_MODEL_CLIENT]					= set_client_int_value;

  00062	69 45 08 b8 08
	00 00		 imul	 eax, DWORD PTR _type$[ebp], 2232
  00069	b9 08 00 00 00	 mov	 ecx, 8
  0006e	6b d1 07	 imul	 edx, ecx, 7
  00071	8d 84 10 00 00
	00 00		 lea	 eax, DWORD PTR ?fn_set_client_server_entity_int_value@@3PAY1BBH@1P6GXPAUENTITY@@W4INT_TYPES@@H@ZA[eax+edx]
  00078	b9 04 00 00 00	 mov	 ecx, 4
  0007d	c1 e1 00	 shl	 ecx, 0
  00080	c7 04 08 00 00
	00 00		 mov	 DWORD PTR [eax+ecx], OFFSET ?set_client_int_value@@YGXPAUENTITY@@W4INT_TYPES@@H@Z ; set_client_int_value

; 421  : 	fn_get_local_entity_int_value				[type][INT_TYPE_ALIVE]												= get_local_int_value;

  00087	69 45 08 5c 04
	00 00		 imul	 eax, DWORD PTR _type$[ebp], 1116
  0008e	b9 04 00 00 00	 mov	 ecx, 4
  00093	6b d1 07	 imul	 edx, ecx, 7
  00096	c7 84 10 00 00
	00 00 00 00 00
	00		 mov	 DWORD PTR ?fn_get_local_entity_int_value@@3PAY0BBH@P6GHPAUENTITY@@W4INT_TYPES@@@ZA[eax+edx], OFFSET ?get_local_int_value@@YGHPAUENTITY@@W4INT_TYPES@@@Z ; get_local_int_value

; 422  : 
; 423  : 	fn_get_local_entity_int_value				[type][INT_TYPE_IDENTIFY_MOBILE]									= get_local_int_value;

  000a1	69 45 08 5c 04
	00 00		 imul	 eax, DWORD PTR _type$[ebp], 1116
  000a8	b9 04 00 00 00	 mov	 ecx, 4
  000ad	6b d1 5d	 imul	 edx, ecx, 93
  000b0	c7 84 10 00 00
	00 00 00 00 00
	00		 mov	 DWORD PTR ?fn_get_local_entity_int_value@@3PAY0BBH@P6GHPAUENTITY@@W4INT_TYPES@@@ZA[eax+edx], OFFSET ?get_local_int_value@@YGHPAUENTITY@@W4INT_TYPES@@@Z ; get_local_int_value

; 424  : 
; 425  : 	fn_set_local_entity_raw_int_value		[type][INT_TYPE_ENTITY_SUB_TYPE]									= set_local_int_value;

  000bb	69 45 08 5c 04
	00 00		 imul	 eax, DWORD PTR _type$[ebp], 1116
  000c2	b9 04 00 00 00	 mov	 ecx, 4
  000c7	6b d1 34	 imul	 edx, ecx, 52
  000ca	c7 84 10 00 00
	00 00 00 00 00
	00		 mov	 DWORD PTR ?fn_set_local_entity_raw_int_value@@3PAY0BBH@P6GXPAUENTITY@@W4INT_TYPES@@H@ZA[eax+edx], OFFSET ?set_local_int_value@@YGXPAUENTITY@@W4INT_TYPES@@H@Z ; set_local_int_value

; 426  : 	fn_set_local_entity_int_value				[type][INT_TYPE_ENTITY_SUB_TYPE]									= set_local_int_value;

  000d5	69 45 08 5c 04
	00 00		 imul	 eax, DWORD PTR _type$[ebp], 1116
  000dc	b9 04 00 00 00	 mov	 ecx, 4
  000e1	6b d1 34	 imul	 edx, ecx, 52
  000e4	c7 84 10 00 00
	00 00 00 00 00
	00		 mov	 DWORD PTR ?fn_set_local_entity_int_value@@3PAY0BBH@P6GXPAUENTITY@@W4INT_TYPES@@H@ZA[eax+edx], OFFSET ?set_local_int_value@@YGXPAUENTITY@@W4INT_TYPES@@H@Z ; set_local_int_value

; 427  : 	fn_set_client_server_entity_int_value	[type][INT_TYPE_ENTITY_SUB_TYPE][COMMS_MODEL_SERVER]		= set_server_int_value;

  000ef	69 45 08 b8 08
	00 00		 imul	 eax, DWORD PTR _type$[ebp], 2232
  000f6	b9 08 00 00 00	 mov	 ecx, 8
  000fb	6b d1 34	 imul	 edx, ecx, 52
  000fe	8d 84 10 00 00
	00 00		 lea	 eax, DWORD PTR ?fn_set_client_server_entity_int_value@@3PAY1BBH@1P6GXPAUENTITY@@W4INT_TYPES@@H@ZA[eax+edx]
  00105	b9 04 00 00 00	 mov	 ecx, 4
  0010a	6b d1 00	 imul	 edx, ecx, 0
  0010d	c7 04 10 00 00
	00 00		 mov	 DWORD PTR [eax+edx], OFFSET ?set_server_int_value@@YGXPAUENTITY@@W4INT_TYPES@@H@Z ; set_server_int_value

; 428  : 	fn_set_client_server_entity_int_value	[type][INT_TYPE_ENTITY_SUB_TYPE][COMMS_MODEL_CLIENT]		= set_client_int_value;

  00114	69 45 08 b8 08
	00 00		 imul	 eax, DWORD PTR _type$[ebp], 2232
  0011b	b9 08 00 00 00	 mov	 ecx, 8
  00120	6b d1 34	 imul	 edx, ecx, 52
  00123	8d 84 10 00 00
	00 00		 lea	 eax, DWORD PTR ?fn_set_client_server_entity_int_value@@3PAY1BBH@1P6GXPAUENTITY@@W4INT_TYPES@@H@ZA[eax+edx]
  0012a	b9 04 00 00 00	 mov	 ecx, 4
  0012f	c1 e1 00	 shl	 ecx, 0
  00132	c7 04 08 00 00
	00 00		 mov	 DWORD PTR [eax+ecx], OFFSET ?set_client_int_value@@YGXPAUENTITY@@W4INT_TYPES@@H@Z ; set_client_int_value

; 429  : 	fn_get_local_entity_int_value				[type][INT_TYPE_ENTITY_SUB_TYPE]									= get_local_int_value;

  00139	69 45 08 5c 04
	00 00		 imul	 eax, DWORD PTR _type$[ebp], 1116
  00140	b9 04 00 00 00	 mov	 ecx, 4
  00145	6b d1 34	 imul	 edx, ecx, 52
  00148	c7 84 10 00 00
	00 00 00 00 00
	00		 mov	 DWORD PTR ?fn_get_local_entity_int_value@@3PAY0BBH@P6GHPAUENTITY@@W4INT_TYPES@@@ZA[eax+edx], OFFSET ?get_local_int_value@@YGHPAUENTITY@@W4INT_TYPES@@@Z ; get_local_int_value

; 430  : 
; 431  : 	fn_get_local_entity_int_value				[type][INT_TYPE_INSIDE_HANGAR]									= get_local_int_value;

  00153	69 45 08 5c 04
	00 00		 imul	 eax, DWORD PTR _type$[ebp], 1116
  0015a	b9 04 00 00 00	 mov	 ecx, 4
  0015f	6b d1 6a	 imul	 edx, ecx, 106
  00162	c7 84 10 00 00
	00 00 00 00 00
	00		 mov	 DWORD PTR ?fn_get_local_entity_int_value@@3PAY0BBH@P6GHPAUENTITY@@W4INT_TYPES@@@ZA[eax+edx], OFFSET ?get_local_int_value@@YGHPAUENTITY@@W4INT_TYPES@@@Z ; get_local_int_value

; 432  : 
; 433  : 	fn_set_local_entity_raw_int_value  		[type][INT_TYPE_KILL_NEXT_UPDATE]								= set_local_int_value;

  0016d	69 45 08 5c 04
	00 00		 imul	 eax, DWORD PTR _type$[ebp], 1116
  00174	b9 04 00 00 00	 mov	 ecx, 4
  00179	6b d1 71	 imul	 edx, ecx, 113
  0017c	c7 84 10 00 00
	00 00 00 00 00
	00		 mov	 DWORD PTR ?fn_set_local_entity_raw_int_value@@3PAY0BBH@P6GXPAUENTITY@@W4INT_TYPES@@H@ZA[eax+edx], OFFSET ?set_local_int_value@@YGXPAUENTITY@@W4INT_TYPES@@H@Z ; set_local_int_value

; 434  : 	fn_set_local_entity_int_value				[type][INT_TYPE_KILL_NEXT_UPDATE]								= set_local_int_value;

  00187	69 45 08 5c 04
	00 00		 imul	 eax, DWORD PTR _type$[ebp], 1116
  0018e	b9 04 00 00 00	 mov	 ecx, 4
  00193	6b d1 71	 imul	 edx, ecx, 113
  00196	c7 84 10 00 00
	00 00 00 00 00
	00		 mov	 DWORD PTR ?fn_set_local_entity_int_value@@3PAY0BBH@P6GXPAUENTITY@@W4INT_TYPES@@H@ZA[eax+edx], OFFSET ?set_local_int_value@@YGXPAUENTITY@@W4INT_TYPES@@H@Z ; set_local_int_value

; 435  : 	fn_set_client_server_entity_int_value	[type][INT_TYPE_KILL_NEXT_UPDATE][COMMS_MODEL_SERVER]		= set_server_int_value;

  001a1	69 45 08 b8 08
	00 00		 imul	 eax, DWORD PTR _type$[ebp], 2232
  001a8	b9 08 00 00 00	 mov	 ecx, 8
  001ad	6b d1 71	 imul	 edx, ecx, 113
  001b0	8d 84 10 00 00
	00 00		 lea	 eax, DWORD PTR ?fn_set_client_server_entity_int_value@@3PAY1BBH@1P6GXPAUENTITY@@W4INT_TYPES@@H@ZA[eax+edx]
  001b7	b9 04 00 00 00	 mov	 ecx, 4
  001bc	6b d1 00	 imul	 edx, ecx, 0
  001bf	c7 04 10 00 00
	00 00		 mov	 DWORD PTR [eax+edx], OFFSET ?set_server_int_value@@YGXPAUENTITY@@W4INT_TYPES@@H@Z ; set_server_int_value

; 436  : 	fn_set_client_server_entity_int_value	[type][INT_TYPE_KILL_NEXT_UPDATE][COMMS_MODEL_CLIENT]		= set_client_int_value;

  001c6	69 45 08 b8 08
	00 00		 imul	 eax, DWORD PTR _type$[ebp], 2232
  001cd	b9 08 00 00 00	 mov	 ecx, 8
  001d2	6b d1 71	 imul	 edx, ecx, 113
  001d5	8d 84 10 00 00
	00 00		 lea	 eax, DWORD PTR ?fn_set_client_server_entity_int_value@@3PAY1BBH@1P6GXPAUENTITY@@W4INT_TYPES@@H@ZA[eax+edx]
  001dc	b9 04 00 00 00	 mov	 ecx, 4
  001e1	c1 e1 00	 shl	 ecx, 0
  001e4	c7 04 08 00 00
	00 00		 mov	 DWORD PTR [eax+ecx], OFFSET ?set_client_int_value@@YGXPAUENTITY@@W4INT_TYPES@@H@Z ; set_client_int_value

; 437  : 	fn_get_local_entity_int_value				[type][INT_TYPE_KILL_NEXT_UPDATE]								= get_local_int_value;

  001eb	69 45 08 5c 04
	00 00		 imul	 eax, DWORD PTR _type$[ebp], 1116
  001f2	b9 04 00 00 00	 mov	 ecx, 4
  001f7	6b d1 71	 imul	 edx, ecx, 113
  001fa	c7 84 10 00 00
	00 00 00 00 00
	00		 mov	 DWORD PTR ?fn_get_local_entity_int_value@@3PAY0BBH@P6GHPAUENTITY@@W4INT_TYPES@@@ZA[eax+edx], OFFSET ?get_local_int_value@@YGHPAUENTITY@@W4INT_TYPES@@@Z ; get_local_int_value

; 438  : 
; 439  : 	fn_set_local_entity_raw_int_value  		[type][INT_TYPE_OBJECT_DRAWN_ONCE_THIS_FRAME]				= set_local_int_value;

  00205	69 45 08 5c 04
	00 00		 imul	 eax, DWORD PTR _type$[ebp], 1116
  0020c	b9 04 00 00 00	 mov	 ecx, 4
  00211	69 d1 93 00 00
	00		 imul	 edx, ecx, 147
  00217	c7 84 10 00 00
	00 00 00 00 00
	00		 mov	 DWORD PTR ?fn_set_local_entity_raw_int_value@@3PAY0BBH@P6GXPAUENTITY@@W4INT_TYPES@@H@ZA[eax+edx], OFFSET ?set_local_int_value@@YGXPAUENTITY@@W4INT_TYPES@@H@Z ; set_local_int_value

; 440  : 	fn_set_local_entity_int_value				[type][INT_TYPE_OBJECT_DRAWN_ONCE_THIS_FRAME]				= set_local_int_value;

  00222	69 45 08 5c 04
	00 00		 imul	 eax, DWORD PTR _type$[ebp], 1116
  00229	b9 04 00 00 00	 mov	 ecx, 4
  0022e	69 d1 93 00 00
	00		 imul	 edx, ecx, 147
  00234	c7 84 10 00 00
	00 00 00 00 00
	00		 mov	 DWORD PTR ?fn_set_local_entity_int_value@@3PAY0BBH@P6GXPAUENTITY@@W4INT_TYPES@@H@ZA[eax+edx], OFFSET ?set_local_int_value@@YGXPAUENTITY@@W4INT_TYPES@@H@Z ; set_local_int_value

; 441  : 	fn_get_local_entity_int_value				[type][INT_TYPE_OBJECT_DRAWN_ONCE_THIS_FRAME]				= get_local_int_value;

  0023f	69 45 08 5c 04
	00 00		 imul	 eax, DWORD PTR _type$[ebp], 1116
  00246	b9 04 00 00 00	 mov	 ecx, 4
  0024b	69 d1 93 00 00
	00		 imul	 edx, ecx, 147
  00251	c7 84 10 00 00
	00 00 00 00 00
	00		 mov	 DWORD PTR ?fn_get_local_entity_int_value@@3PAY0BBH@P6GHPAUENTITY@@W4INT_TYPES@@@ZA[eax+edx], OFFSET ?get_local_int_value@@YGHPAUENTITY@@W4INT_TYPES@@@Z ; get_local_int_value

; 442  : 
; 443  : 	fn_set_local_entity_raw_int_value  		[type][INT_TYPE_SIDE]												= set_local_int_value;

  0025c	69 45 08 5c 04
	00 00		 imul	 eax, DWORD PTR _type$[ebp], 1116
  00263	b9 04 00 00 00	 mov	 ecx, 4
  00268	69 d1 bb 00 00
	00		 imul	 edx, ecx, 187
  0026e	c7 84 10 00 00
	00 00 00 00 00
	00		 mov	 DWORD PTR ?fn_set_local_entity_raw_int_value@@3PAY0BBH@P6GXPAUENTITY@@W4INT_TYPES@@H@ZA[eax+edx], OFFSET ?set_local_int_value@@YGXPAUENTITY@@W4INT_TYPES@@H@Z ; set_local_int_value

; 444  : 	fn_set_local_entity_int_value				[type][INT_TYPE_SIDE]												= set_local_int_value;

  00279	69 45 08 5c 04
	00 00		 imul	 eax, DWORD PTR _type$[ebp], 1116
  00280	b9 04 00 00 00	 mov	 ecx, 4
  00285	69 d1 bb 00 00
	00		 imul	 edx, ecx, 187
  0028b	c7 84 10 00 00
	00 00 00 00 00
	00		 mov	 DWORD PTR ?fn_set_local_entity_int_value@@3PAY0BBH@P6GXPAUENTITY@@W4INT_TYPES@@H@ZA[eax+edx], OFFSET ?set_local_int_value@@YGXPAUENTITY@@W4INT_TYPES@@H@Z ; set_local_int_value

; 445  : 	fn_set_client_server_entity_int_value	[type][INT_TYPE_SIDE][COMMS_MODEL_SERVER]						= set_server_int_value;

  00296	69 45 08 b8 08
	00 00		 imul	 eax, DWORD PTR _type$[ebp], 2232
  0029d	b9 08 00 00 00	 mov	 ecx, 8
  002a2	69 d1 bb 00 00
	00		 imul	 edx, ecx, 187
  002a8	8d 84 10 00 00
	00 00		 lea	 eax, DWORD PTR ?fn_set_client_server_entity_int_value@@3PAY1BBH@1P6GXPAUENTITY@@W4INT_TYPES@@H@ZA[eax+edx]
  002af	b9 04 00 00 00	 mov	 ecx, 4
  002b4	6b d1 00	 imul	 edx, ecx, 0
  002b7	c7 04 10 00 00
	00 00		 mov	 DWORD PTR [eax+edx], OFFSET ?set_server_int_value@@YGXPAUENTITY@@W4INT_TYPES@@H@Z ; set_server_int_value

; 446  : 	fn_set_client_server_entity_int_value	[type][INT_TYPE_SIDE][COMMS_MODEL_CLIENT]						= set_client_int_value;

  002be	69 45 08 b8 08
	00 00		 imul	 eax, DWORD PTR _type$[ebp], 2232
  002c5	b9 08 00 00 00	 mov	 ecx, 8
  002ca	69 d1 bb 00 00
	00		 imul	 edx, ecx, 187
  002d0	8d 84 10 00 00
	00 00		 lea	 eax, DWORD PTR ?fn_set_client_server_entity_int_value@@3PAY1BBH@1P6GXPAUENTITY@@W4INT_TYPES@@H@ZA[eax+edx]
  002d7	b9 04 00 00 00	 mov	 ecx, 4
  002dc	c1 e1 00	 shl	 ecx, 0
  002df	c7 04 08 00 00
	00 00		 mov	 DWORD PTR [eax+ecx], OFFSET ?set_client_int_value@@YGXPAUENTITY@@W4INT_TYPES@@H@Z ; set_client_int_value

; 447  : 	fn_get_local_entity_int_value				[type][INT_TYPE_SIDE]												= get_local_int_value;

  002e6	69 45 08 5c 04
	00 00		 imul	 eax, DWORD PTR _type$[ebp], 1116
  002ed	b9 04 00 00 00	 mov	 ecx, 4
  002f2	69 d1 bb 00 00
	00		 imul	 edx, ecx, 187
  002f8	c7 84 10 00 00
	00 00 00 00 00
	00		 mov	 DWORD PTR ?fn_get_local_entity_int_value@@3PAY0BBH@P6GHPAUENTITY@@W4INT_TYPES@@@ZA[eax+edx], OFFSET ?get_local_int_value@@YGHPAUENTITY@@W4INT_TYPES@@@Z ; get_local_int_value

; 448  : 
; 449  : 	fn_set_local_entity_raw_int_value  		[type][INT_TYPE_MOVED]												= set_local_int_value;

  00303	69 45 08 5c 04
	00 00		 imul	 eax, DWORD PTR _type$[ebp], 1116
  0030a	b9 04 00 00 00	 mov	 ecx, 4
  0030f	69 d1 8f 00 00
	00		 imul	 edx, ecx, 143
  00315	c7 84 10 00 00
	00 00 00 00 00
	00		 mov	 DWORD PTR ?fn_set_local_entity_raw_int_value@@3PAY0BBH@P6GXPAUENTITY@@W4INT_TYPES@@H@ZA[eax+edx], OFFSET ?set_local_int_value@@YGXPAUENTITY@@W4INT_TYPES@@H@Z ; set_local_int_value

; 450  : 	fn_set_local_entity_int_value				[type][INT_TYPE_MOVED]												= set_local_int_value;

  00320	69 45 08 5c 04
	00 00		 imul	 eax, DWORD PTR _type$[ebp], 1116
  00327	b9 04 00 00 00	 mov	 ecx, 4
  0032c	69 d1 8f 00 00
	00		 imul	 edx, ecx, 143
  00332	c7 84 10 00 00
	00 00 00 00 00
	00		 mov	 DWORD PTR ?fn_set_local_entity_int_value@@3PAY0BBH@P6GXPAUENTITY@@W4INT_TYPES@@H@ZA[eax+edx], OFFSET ?set_local_int_value@@YGXPAUENTITY@@W4INT_TYPES@@H@Z ; set_local_int_value

; 451  : 	fn_get_local_entity_int_value				[type][INT_TYPE_MOVED]												= get_local_int_value;

  0033d	69 45 08 5c 04
	00 00		 imul	 eax, DWORD PTR _type$[ebp], 1116
  00344	b9 04 00 00 00	 mov	 ecx, 4
  00349	69 d1 8f 00 00
	00		 imul	 edx, ecx, 143
  0034f	c7 84 10 00 00
	00 00 00 00 00
	00		 mov	 DWORD PTR ?fn_get_local_entity_int_value@@3PAY0BBH@P6GHPAUENTITY@@W4INT_TYPES@@@ZA[eax+edx], OFFSET ?get_local_int_value@@YGHPAUENTITY@@W4INT_TYPES@@@Z ; get_local_int_value

; 452  : 
; 453  : 	fn_set_local_entity_raw_int_value  		[type][INT_TYPE_ROTATED]												= set_local_int_value;

  0035a	69 45 08 5c 04
	00 00		 imul	 eax, DWORD PTR _type$[ebp], 1116
  00361	b9 04 00 00 00	 mov	 ecx, 4
  00366	69 d1 b1 00 00
	00		 imul	 edx, ecx, 177
  0036c	c7 84 10 00 00
	00 00 00 00 00
	00		 mov	 DWORD PTR ?fn_set_local_entity_raw_int_value@@3PAY0BBH@P6GXPAUENTITY@@W4INT_TYPES@@H@ZA[eax+edx], OFFSET ?set_local_int_value@@YGXPAUENTITY@@W4INT_TYPES@@H@Z ; set_local_int_value

; 454  : 	fn_set_local_entity_int_value				[type][INT_TYPE_ROTATED]												= set_local_int_value;

  00377	69 45 08 5c 04
	00 00		 imul	 eax, DWORD PTR _type$[ebp], 1116
  0037e	b9 04 00 00 00	 mov	 ecx, 4
  00383	69 d1 b1 00 00
	00		 imul	 edx, ecx, 177
  00389	c7 84 10 00 00
	00 00 00 00 00
	00		 mov	 DWORD PTR ?fn_set_local_entity_int_value@@3PAY0BBH@P6GXPAUENTITY@@W4INT_TYPES@@H@ZA[eax+edx], OFFSET ?set_local_int_value@@YGXPAUENTITY@@W4INT_TYPES@@H@Z ; set_local_int_value

; 455  : 	fn_get_local_entity_int_value				[type][INT_TYPE_ROTATED]												= get_local_int_value;

  00394	69 45 08 5c 04
	00 00		 imul	 eax, DWORD PTR _type$[ebp], 1116
  0039b	b9 04 00 00 00	 mov	 ecx, 4
  003a0	69 d1 b1 00 00
	00		 imul	 edx, ecx, 177
  003a6	c7 84 10 00 00
	00 00 00 00 00
	00		 mov	 DWORD PTR ?fn_get_local_entity_int_value@@3PAY0BBH@P6GHPAUENTITY@@W4INT_TYPES@@@ZA[eax+edx], OFFSET ?get_local_int_value@@YGHPAUENTITY@@W4INT_TYPES@@@Z ; get_local_int_value

; 456  : 
; 457  : 	fn_set_local_entity_raw_int_value  		[type][INT_TYPE_TACVIEW_LOGGING]												= set_local_int_value;

  003b1	69 45 08 5c 04
	00 00		 imul	 eax, DWORD PTR _type$[ebp], 1116
  003b8	b9 04 00 00 00	 mov	 ecx, 4
  003bd	69 d1 d1 00 00
	00		 imul	 edx, ecx, 209
  003c3	c7 84 10 00 00
	00 00 00 00 00
	00		 mov	 DWORD PTR ?fn_set_local_entity_raw_int_value@@3PAY0BBH@P6GXPAUENTITY@@W4INT_TYPES@@H@ZA[eax+edx], OFFSET ?set_local_int_value@@YGXPAUENTITY@@W4INT_TYPES@@H@Z ; set_local_int_value

; 458  : 	fn_set_local_entity_int_value				[type][INT_TYPE_TACVIEW_LOGGING]												= set_local_int_value;

  003ce	69 45 08 5c 04
	00 00		 imul	 eax, DWORD PTR _type$[ebp], 1116
  003d5	b9 04 00 00 00	 mov	 ecx, 4
  003da	69 d1 d1 00 00
	00		 imul	 edx, ecx, 209
  003e0	c7 84 10 00 00
	00 00 00 00 00
	00		 mov	 DWORD PTR ?fn_set_local_entity_int_value@@3PAY0BBH@P6GXPAUENTITY@@W4INT_TYPES@@H@ZA[eax+edx], OFFSET ?set_local_int_value@@YGXPAUENTITY@@W4INT_TYPES@@H@Z ; set_local_int_value

; 459  : 	fn_get_local_entity_int_value				[type][INT_TYPE_TACVIEW_LOGGING]												= get_local_int_value;

  003eb	69 45 08 5c 04
	00 00		 imul	 eax, DWORD PTR _type$[ebp], 1116
  003f2	b9 04 00 00 00	 mov	 ecx, 4
  003f7	69 d1 d1 00 00
	00		 imul	 edx, ecx, 209
  003fd	c7 84 10 00 00
	00 00 00 00 00
	00		 mov	 DWORD PTR ?fn_get_local_entity_int_value@@3PAY0BBH@P6GHPAUENTITY@@W4INT_TYPES@@@ZA[eax+edx], OFFSET ?get_local_int_value@@YGHPAUENTITY@@W4INT_TYPES@@@Z ; get_local_int_value

; 460  : 
; 461  : 	fn_get_local_entity_int_value				[type][INT_TYPE_SOUND_LIST_VALID]								= get_local_int_value;

  00408	69 45 08 5c 04
	00 00		 imul	 eax, DWORD PTR _type$[ebp], 1116
  0040f	b9 04 00 00 00	 mov	 ecx, 4
  00414	69 d1 c6 00 00
	00		 imul	 edx, ecx, 198
  0041a	c7 84 10 00 00
	00 00 00 00 00
	00		 mov	 DWORD PTR ?fn_get_local_entity_int_value@@3PAY0BBH@P6GHPAUENTITY@@W4INT_TYPES@@@ZA[eax+edx], OFFSET ?get_local_int_value@@YGHPAUENTITY@@W4INT_TYPES@@@Z ; get_local_int_value

; 462  : 
; 463  : 	fn_get_local_entity_int_value				[type][INT_TYPE_TASK_TARGET_TYPE]								= get_local_int_value;

  00425	69 45 08 5c 04
	00 00		 imul	 eax, DWORD PTR _type$[ebp], 1116
  0042c	b9 04 00 00 00	 mov	 ecx, 4
  00431	69 d1 e6 00 00
	00		 imul	 edx, ecx, 230
  00437	c7 84 10 00 00
	00 00 00 00 00
	00		 mov	 DWORD PTR ?fn_get_local_entity_int_value@@3PAY0BBH@P6GHPAUENTITY@@W4INT_TYPES@@@ZA[eax+edx], OFFSET ?get_local_int_value@@YGHPAUENTITY@@W4INT_TYPES@@@Z ; get_local_int_value

; 464  : /*
; 465  : 	fn_set_local_entity_raw_int_value  		[type][INT_TYPE_TIMER]												= set_local_int_value;
; 466  : 	fn_set_local_entity_int_value				[type][INT_TYPE_TIMER]												= set_local_int_value;
; 467  : 	fn_set_client_server_entity_int_value	[type][INT_TYPE_TIMER][COMMS_MODEL_SERVER]					= set_server_int_value;
; 468  : 	fn_set_client_server_entity_int_value	[type][INT_TYPE_TIMER][COMMS_MODEL_CLIENT]					= set_client_int_value;
; 469  : 	fn_get_local_entity_int_value				[type][INT_TYPE_TIMER]												= get_local_int_value;
; 470  : */
; 471  : 	fn_set_local_entity_raw_int_value  		[type][INT_TYPE_UPDATED]											= set_local_int_value;

  00442	69 45 08 5c 04
	00 00		 imul	 eax, DWORD PTR _type$[ebp], 1116
  00449	b9 04 00 00 00	 mov	 ecx, 4
  0044e	69 d1 ee 00 00
	00		 imul	 edx, ecx, 238
  00454	c7 84 10 00 00
	00 00 00 00 00
	00		 mov	 DWORD PTR ?fn_set_local_entity_raw_int_value@@3PAY0BBH@P6GXPAUENTITY@@W4INT_TYPES@@H@ZA[eax+edx], OFFSET ?set_local_int_value@@YGXPAUENTITY@@W4INT_TYPES@@H@Z ; set_local_int_value

; 472  : 	fn_set_local_entity_int_value				[type][INT_TYPE_UPDATED]											= set_local_int_value;

  0045f	69 45 08 5c 04
	00 00		 imul	 eax, DWORD PTR _type$[ebp], 1116
  00466	b9 04 00 00 00	 mov	 ecx, 4
  0046b	69 d1 ee 00 00
	00		 imul	 edx, ecx, 238
  00471	c7 84 10 00 00
	00 00 00 00 00
	00		 mov	 DWORD PTR ?fn_set_local_entity_int_value@@3PAY0BBH@P6GXPAUENTITY@@W4INT_TYPES@@H@ZA[eax+edx], OFFSET ?set_local_int_value@@YGXPAUENTITY@@W4INT_TYPES@@H@Z ; set_local_int_value

; 473  : 	fn_get_local_entity_int_value				[type][INT_TYPE_UPDATED]											= get_local_int_value;

  0047c	69 45 08 5c 04
	00 00		 imul	 eax, DWORD PTR _type$[ebp], 1116
  00483	b9 04 00 00 00	 mov	 ecx, 4
  00488	69 d1 ee 00 00
	00		 imul	 edx, ecx, 238
  0048e	c7 84 10 00 00
	00 00 00 00 00
	00		 mov	 DWORD PTR ?fn_get_local_entity_int_value@@3PAY0BBH@P6GHPAUENTITY@@W4INT_TYPES@@@ZA[eax+edx], OFFSET ?get_local_int_value@@YGHPAUENTITY@@W4INT_TYPES@@@Z ; get_local_int_value

; 474  : }

  00499	5f		 pop	 edi
  0049a	5e		 pop	 esi
  0049b	5b		 pop	 ebx
  0049c	8b e5		 mov	 esp, ebp
  0049e	5d		 pop	 ebp
  0049f	c2 04 00	 ret	 4
?overload_mobile_int_value_functions@@YGXW4ENTITY_TYPES@@@Z ENDP ; overload_mobile_int_value_functions
_TEXT	ENDS
END
