; Listing generated by Microsoft (R) Optimizing Compiler Version 19.16.27045.0 

	TITLE	C:\Users\nhv90\Projects\eech\aphavoc\source\entity\mobile\mb_msgs.c
	.686P
	.XMM
	include listing.inc
	.model	flat

INCLUDELIB MSVCRTD
INCLUDELIB OLDNAMES

PUBLIC	?overload_mobile_message_responses@@YGXW4ENTITY_TYPES@@@Z ; overload_mobile_message_responses
PUBLIC	??$max@M@std@@YGABMABM0@Z			; std::max<float>
PUBLIC	??_C@_02DKCKIIND@?$CFs@				; `string'
PUBLIC	?__LINE__Var@?0??response_to_task_assigned@@YGHW4ENTITY_MESSAGES@@PAUENTITY@@1PAD@Z@4JA ; `response_to_task_assigned'::`1'::__LINE__Var
PUBLIC	??_C@_0EE@DLIIEJCN@c?3?2users?2nhv90?2projects?2eech?2ap@ ; `string'
PUBLIC	??_C@_06CGHJMPBJ@sender@			; `string'
PUBLIC	??_C@_0CB@JCFBNGNO@sender?9?$DOtype?5?$DN?$DN?5ENTITY_TYPE_TAS@ ; `string'
PUBLIC	??_C@_0CJ@DMBLBJBK@get_comms_model?5?$CI?$CJ?5?$DN?$DN?5COMMS_MOD@ ; `string'
PUBLIC	??_C@_06JJLAMBGK@target@			; `string'
PUBLIC	??_C@_05HLIEEKJG@guide@				; `string'
PUBLIC	??_C@_0DL@KGHJEFM@get_local_entity_parent?5?$CIguide?0@ ; `string'
PUBLIC	??_C@_0L@BBFNENIC@landing_en@			; `string'
PUBLIC	??_C@_04GGKLLKOO@task@				; `string'
PUBLIC	??_C@_0DN@FFBOCIDH@?$CBget_local_entity_parent?5?$CIrecei@ ; `string'
PUBLIC	??_C@_0M@IIJCELEF@end_keysite@			; `string'
PUBLIC	?__LINE__Var@?0??response_to_waypoint_approach_reached@@YGHW4ENTITY_MESSAGES@@PAUENTITY@@1PAD@Z@4JA ; `response_to_waypoint_approach_reached'::`1'::__LINE__Var
PUBLIC	??_C@_0CF@JOKOGIDD@sender?9?$DOtype?5?$DN?$DN?5ENTITY_TYPE_WAY@ ; `string'
PUBLIC	?__LINE__Var@?0??response_to_waypoint_attack_action@@YGHW4ENTITY_MESSAGES@@PAUENTITY@@1PAD@Z@4JA ; `response_to_waypoint_attack_action'::`1'::__LINE__Var
PUBLIC	??_C@_05MGJOOGAJ@group@				; `string'
PUBLIC	??_C@_0DK@HNNFKJEB@get_local_entity_int_value?5?$CIgro@ ; `string'
PUBLIC	??_C@_0O@GABLNPIN@objective_pos@		; `string'
PUBLIC	?__LINE__Var@?0??response_to_waypoint_convoy_reached@@YGHW4ENTITY_MESSAGES@@PAUENTITY@@1PAD@Z@4JA ; `response_to_waypoint_convoy_reached'::`1'::__LINE__Var
PUBLIC	?__LINE__Var@?0??response_to_waypoint_defend_reached@@YGHW4ENTITY_MESSAGES@@PAUENTITY@@1PAD@Z@4JA ; `response_to_waypoint_defend_reached'::`1'::__LINE__Var
PUBLIC	?__LINE__Var@?0??response_to_waypoint_drop_off_reached@@YGHW4ENTITY_MESSAGES@@PAUENTITY@@1PAD@Z@4JA ; `response_to_waypoint_drop_off_reached'::`1'::__LINE__Var
PUBLIC	??_C@_0DH@LDJFNOEI@get_local_entity_type?5?$CIrequeste@ ; `string'
PUBLIC	?__LINE__Var@?0??response_to_waypoint_finish_drop_off_reached@@YGHW4ENTITY_MESSAGES@@PAUENTITY@@1PAD@Z@4JA ; `response_to_waypoint_finish_drop_off_reached'::`1'::__LINE__Var
PUBLIC	?__LINE__Var@?0??response_to_waypoint_land_reached@@YGHW4ENTITY_MESSAGES@@PAUENTITY@@1PAD@Z@4JA ; `response_to_waypoint_land_reached'::`1'::__LINE__Var
PUBLIC	??_C@_0DH@NBKEDIK@get_local_entity_type?5?$CIsender?$CJ?5@ ; `string'
PUBLIC	??_C@_0BP@DMNHGEHG@task?9?$DOtype?5?$DN?$DN?5ENTITY_TYPE_TASK@ ; `string'
PUBLIC	??_C@_07FBNBNOMI@keysite@			; `string'
PUBLIC	??_C@_07EAMPMOFH@landing@			; `string'
PUBLIC	??_C@_0EG@INJKJDJC@MB_MSGS?3?5?$CFs?5?$CI?$CFd?$CJ?5reached?5land?5w@ ; `string'
PUBLIC	??_C@_0HM@NJEDKAHD@MB_MSGS?3?5?5?5?5?$CFs?5?$CI?$CFd?$CJ?5unreserving@ ; `string'
PUBLIC	?__LINE__Var@?0??response_to_waypoint_landed_reached@@YGHW4ENTITY_MESSAGES@@PAUENTITY@@1PAD@Z@4JA ; `response_to_waypoint_landed_reached'::`1'::__LINE__Var
PUBLIC	??_C@_0CI@GEHIFODJ@landing_en?9?$DOtype?5?$DN?$DN?5ENTITY_TYPE@ ; `string'
PUBLIC	?__LINE__Var@?0??response_to_waypoint_loop_reached@@YGHW4ENTITY_MESSAGES@@PAUENTITY@@1PAD@Z@4JA ; `response_to_waypoint_loop_reached'::`1'::__LINE__Var
PUBLIC	?__LINE__Var@?0??response_to_waypoint_navigation_reached@@YGHW4ENTITY_MESSAGES@@PAUENTITY@@1PAD@Z@4JA ; `response_to_waypoint_navigation_reached'::`1'::__LINE__Var
PUBLIC	?__LINE__Var@?0??response_to_waypoint_sub_route_navigation_reached@@YGHW4ENTITY_MESSAGES@@PAUENTITY@@1PAD@Z@4JA ; `response_to_waypoint_sub_route_navigation_reached'::`1'::__LINE__Var
PUBLIC	??_C@_0DN@JGLIDAKP@MB_MSGS?3?5ERROR?0?5no?5route?5found?5@ ; `string'
PUBLIC	?__LINE__Var@?0??response_to_waypoint_prepare_for_drop_off_reached@@YGHW4ENTITY_MESSAGES@@PAUENTITY@@1PAD@Z@4JA ; `response_to_waypoint_prepare_for_drop_off_reached'::`1'::__LINE__Var
PUBLIC	?__LINE__Var@?0??response_to_waypoint_pick_up_reached@@YGHW4ENTITY_MESSAGES@@PAUENTITY@@1PAD@Z@4JA ; `response_to_waypoint_pick_up_reached'::`1'::__LINE__Var
PUBLIC	?__LINE__Var@?0??response_to_waypoint_recon_action@@YGHW4ENTITY_MESSAGES@@PAUENTITY@@1PAD@Z@4JA ; `response_to_waypoint_recon_action'::`1'::__LINE__Var
PUBLIC	??_C@_0BG@PFNEBFLH@ADVISE_TRANSMIT_RECON@	; `string'
PUBLIC	?__LINE__Var@?0??response_to_waypoint_recon_reached@@YGHW4ENTITY_MESSAGES@@PAUENTITY@@1PAD@Z@4JA ; `response_to_waypoint_recon_reached'::`1'::__LINE__Var
PUBLIC	?__LINE__Var@?0??response_to_waypoint_repair_reached@@YGHW4ENTITY_MESSAGES@@PAUENTITY@@1PAD@Z@4JA ; `response_to_waypoint_repair_reached'::`1'::__LINE__Var
PUBLIC	??_C@_0CH@MDABEMMF@MB_MSGS?3?5repair?5waypoint?5reache@ ; `string'
PUBLIC	?__LINE__Var@?0??response_to_waypoint_taken_off_reached@@YGHW4ENTITY_MESSAGES@@PAUENTITY@@1PAD@Z@4JA ; `response_to_waypoint_taken_off_reached'::`1'::__LINE__Var
PUBLIC	?__LINE__Var@?0??response_to_waypoint_taxi_reached@@YGHW4ENTITY_MESSAGES@@PAUENTITY@@1PAD@Z@4JA ; `response_to_waypoint_taxi_reached'::`1'::__LINE__Var
PUBLIC	?__LINE__Var@?0??response_to_waypoint_troop_capture_reached@@YGHW4ENTITY_MESSAGES@@PAUENTITY@@1PAD@Z@4JA ; `response_to_waypoint_troop_capture_reached'::`1'::__LINE__Var
PUBLIC	??_C@_0BF@IHGGJPIA@troop_insertion_task@	; `string'
PUBLIC	??_C@_0HE@JKKEPILA@get_local_entity_int_value?5?$CItro@ ; `string'
PUBLIC	??_C@_0BE@PGBBOPJ@destination_keysite@		; `string'
PUBLIC	??_C@_0BO@INELKHEB@MB_MSGS?3?5Trying?5to?5capture?5?$CFs@ ; `string'
PUBLIC	??_C@_0CE@GEONFHI@MB_MSGS?3?5Efficiency?5?$CFf?5?9?5Minimu@ ; `string'
PUBLIC	??_C@_0BN@JLLFKOHI@MB_MSGS?3?5Probability?5?$CFf?5?3?5?$CFf@ ; `string'
PUBLIC	?__LINE__Var@?0??response_to_waypoint_troop_defend_reached@@YGHW4ENTITY_MESSAGES@@PAUENTITY@@1PAD@Z@4JA ; `response_to_waypoint_troop_defend_reached'::`1'::__LINE__Var
PUBLIC	?__LINE__Var@?0??response_to_waypoint_troop_insert_reached@@YGHW4ENTITY_MESSAGES@@PAUENTITY@@1PAD@Z@4JA ; `response_to_waypoint_troop_insert_reached'::`1'::__LINE__Var
PUBLIC	??_C@_0CJ@JBLDDPLM@MB_MSGS?3?5can?8t?5assign?5person?5to@ ; `string'
PUBLIC	?__LINE__Var@?0??response_to_waypoint_troop_putdown_point_reached@@YGHW4ENTITY_MESSAGES@@PAUENTITY@@1PAD@Z@4JA ; `response_to_waypoint_troop_putdown_point_reached'::`1'::__LINE__Var
PUBLIC	??_C@_0M@GMAFECLM@insert_task@			; `string'
PUBLIC	?__LINE__Var@?0??response_to_waypoint_troop_pickup_point_end_reached@@YGHW4ENTITY_MESSAGES@@PAUENTITY@@1PAD@Z@4JA ; `response_to_waypoint_troop_pickup_point_end_reached'::`1'::__LINE__Var
PUBLIC	?__LINE__Var@?0??response_to_waypoint_troop_pickup_point_start_reached@@YGHW4ENTITY_MESSAGES@@PAUENTITY@@1PAD@Z@4JA ; `response_to_waypoint_troop_pickup_point_start_reached'::`1'::__LINE__Var
PUBLIC	??_C@_0CE@POHNKOJE@MB_MSGS?3?5pickup?5point?5start?5rea@ ; `string'
PUBLIC	??_C@_0BD@FEEMDEPI@invalid?5comparator@		; `string'
PUBLIC	??_C@_0GK@JMBMHIBC@c?3?2program?5files?5?$CIx86?$CJ?2microsof@ ; `string'
PUBLIC	??_C@_1NE@FKBPBJEB@?$AAc?$AA?3?$AA?2?$AAp?$AAr?$AAo?$AAg?$AAr?$AAa?$AAm?$AA?5?$AAf?$AAi?$AAl?$AAe@ ; `string'
PUBLIC	??_C@_1BC@ICCOKLEG@?$AAs?$AAt?$AAd?$AA?3?$AA?3?$AAm?$AAa?$AAx@ ; `string'
PUBLIC	??_C@_1CK@NDNHPKPI@?$AA?$CC?$AAi?$AAn?$AAv?$AAa?$AAl?$AAi?$AAd?$AA?5?$AAc?$AAo?$AAm?$AAp?$AAa?$AAr@ ; `string'
PUBLIC	__real@3f00002000400080
PUBLIC	__real@3f4ccccd
PUBLIC	__real@3f800000
PUBLIC	__real@3fe0000000000000
PUBLIC	__real@3ff0000000000000
PUBLIC	__real@4000000000000000
PUBLIC	__real@4059000000000000
PUBLIC	__real@408f400000000000
PUBLIC	__real@40a00000
PUBLIC	__real@41a00000
PUBLIC	__real@41f00000
PUBLIC	__real@44fa0000
PUBLIC	__real@bf800000
EXTRN	__imp___invalid_parameter:PROC
EXTRN	__imp___CrtDbgReport:PROC
EXTRN	?process_assert@@YGXPBD0H@Z:PROC		; process_assert
EXTRN	?debug_fatal@@YAXPBDZZ:PROC			; debug_fatal
EXTRN	?debug_log@@YAXPBDZZ:PROC			; debug_log
EXTRN	?breakout@@YGXPAUEVENT@@@Z:PROC			; breakout
EXTRN	?normalise_any_3d_vector@@YGMPAUVEC3D@@@Z:PROC	; normalise_any_3d_vector
EXTRN	?get_3d_terrain_point_data@@YGMMMPAUTERRAIN_3D_POINT_DATA@@@Z:PROC ; get_3d_terrain_point_data
EXTRN	?get_local_entity_rearming_sleep_time@@YGMPAUENTITY@@@Z:PROC ; get_local_entity_rearming_sleep_time
EXTRN	?get_local_entity_refueling_sleep_time@@YGMPAUENTITY@@@Z:PROC ; get_local_entity_refueling_sleep_time
EXTRN	?notify_local_entity@@YAHW4ENTITY_MESSAGES@@PAUENTITY@@1ZZ:PROC ; notify_local_entity
EXTRN	?insert_local_entity_into_parents_child_list@@YGXPAUENTITY@@W4LIST_TYPES@@00@Z:PROC ; insert_local_entity_into_parents_child_list
EXTRN	?delete_local_entity_from_parents_child_list@@YGXPAUENTITY@@W4LIST_TYPES@@@Z:PROC ; delete_local_entity_from_parents_child_list
EXTRN	?set_client_server_entity_parent@@YGXPAUENTITY@@W4LIST_TYPES@@0@Z:PROC ; set_client_server_entity_parent
EXTRN	?transmit_entity_comms_message@@YAXW4ENTITY_COMMS_MESSAGES@@PAUENTITY@@ZZ:PROC ; transmit_entity_comms_message
EXTRN	?open_client_server_entity_loading_doors@@YGXPAUENTITY@@@Z:PROC ; open_client_server_entity_loading_doors
EXTRN	?close_client_server_entity_loading_doors@@YGXPAUENTITY@@@Z:PROC ; close_client_server_entity_loading_doors
EXTRN	?open_client_server_entity_cargo_doors@@YGXPAUENTITY@@@Z:PROC ; open_client_server_entity_cargo_doors
EXTRN	?close_client_server_entity_cargo_doors@@YGXPAUENTITY@@@Z:PROC ; close_client_server_entity_cargo_doors
EXTRN	?close_client_server_entity_airbrakes@@YGXPAUENTITY@@@Z:PROC ; close_client_server_entity_airbrakes
EXTRN	?open_client_server_entity_flaps@@YGXPAUENTITY@@@Z:PROC ; open_client_server_entity_flaps
EXTRN	?close_client_server_entity_flaps@@YGXPAUENTITY@@@Z:PROC ; close_client_server_entity_flaps
EXTRN	?lower_client_server_entity_undercarriage@@YGXPAUENTITY@@@Z:PROC ; lower_client_server_entity_undercarriage
EXTRN	?raise_client_server_entity_undercarriage@@YGXPAUENTITY@@@Z:PROC ; raise_client_server_entity_undercarriage
EXTRN	?get_local_entity_weapon_available@@YGHPAUENTITY@@H@Z:PROC ; get_local_entity_weapon_available
EXTRN	?set_client_server_fixed_wing_afterburner_state@@YGXPAUENTITY@@H@Z:PROC ; set_client_server_fixed_wing_afterburner_state
EXTRN	?set_vehicle_headlight_state@@YGXPAUENTITY@@H@Z:PROC ; set_vehicle_headlight_state
EXTRN	?insert_mobile_into_takeoff_route@@YGHPAUENTITY@@0@Z:PROC ; insert_mobile_into_takeoff_route
EXTRN	?mobile_check_all_members_taken_off@@YGHPAUENTITY@@@Z:PROC ; mobile_check_all_members_taken_off
EXTRN	?repair_client_server_bridge_entity@@YGXPAUENTITY@@@Z:PROC ; repair_client_server_bridge_entity
EXTRN	?add_group_to_division@@YGPAUENTITY@@PAU1@0@Z:PROC ; add_group_to_division
EXTRN	?set_infinite_smoke_list_generating_state@@YGHPAUENTITY@@HM@Z:PROC ; set_infinite_smoke_list_generating_state
EXTRN	?get_speech_random_value@@YGHPAUSPEECH_INSTANCE_TYPE@@HH@Z:PROC ; get_speech_random_value
EXTRN	?play_client_server_cpg_message@@YGHPAUENTITY@@MMHMH@Z:PROC ; play_client_server_cpg_message
EXTRN	?play_client_server_wingman_message@@YGHPAUENTITY@@MMW4speech_category_types@@MW4speech_intro_types@@W4speech_array_types@@H@Z:PROC ; play_client_server_wingman_message
EXTRN	?amalgamate_groups@@YGHPAUENTITY@@0@Z:PROC	; amalgamate_groups
EXTRN	?assess_group_supplies@@YGXPAUENTITY@@@Z:PROC	; assess_group_supplies
EXTRN	?group_destroy_all_members@@YGXPAUENTITY@@@Z:PROC ; group_destroy_all_members
EXTRN	?create_group_emergency_transfer_task@@YGHPAUENTITY@@@Z:PROC ; create_group_emergency_transfer_task
EXTRN	?initialise_attack_guide@@YGXPAUENTITY@@@Z:PROC	; initialise_attack_guide
EXTRN	?set_guide_new_waypoint@@YGHPAUENTITY@@0@Z:PROC	; set_guide_new_waypoint
EXTRN	?set_guide_next_waypoint@@YGHPAUENTITY@@@Z:PROC	; set_guide_next_waypoint
EXTRN	?capture_keysite@@YGXPAUENTITY@@W4ENTITY_SIDES@@@Z:PROC ; capture_keysite
EXTRN	?get_local_entity_landing_entity@@YGPAUENTITY@@PAU1@H@Z:PROC ; get_local_entity_landing_entity
EXTRN	?get_local_landing_entity_task@@YGPAUENTITY@@PAU1@H@Z:PROC ; get_local_landing_entity_task
EXTRN	?get_local_group_member_landing_entity_from_keysite@@YGPAUENTITY@@PAU1@@Z:PROC ; get_local_group_member_landing_entity_from_keysite
EXTRN	?get_local_group_member_landing_entity_from_task@@YGPAUENTITY@@PAU1@@Z:PROC ; get_local_group_member_landing_entity_from_task
EXTRN	?get_local_group_primary_task@@YGPAUENTITY@@PAU1@@Z:PROC ; get_local_group_primary_task
EXTRN	?set_status_message@@YGXPBDW4STATUS_MESSAGE_TYPES@@@Z:PROC ; set_status_message
EXTRN	?get_trans@@YGPBDPBD@Z:PROC			; get_trans
EXTRN	?assign_task_to_group@@YGHPAUENTITY@@0I@Z:PROC	; assign_task_to_group
EXTRN	?engage_targets_in_sector@@YGHPAUENTITY@@HHIH@Z:PROC ; engage_targets_in_sector
EXTRN	?engage_targets_in_area@@YGHPAUENTITY@@PAUVEC3D@@MIH@Z:PROC ; engage_targets_in_area
EXTRN	?engage_targets_in_group@@YGHPAUENTITY@@0H@Z:PROC ; engage_targets_in_group
EXTRN	?engage_specific_target@@YGHPAUENTITY@@0IH@Z:PROC ; engage_specific_target
EXTRN	?terminate_all_engage_tasks@@YGXPAUENTITY@@@Z:PROC ; terminate_all_engage_tasks
EXTRN	?create_troop_movement_capture_task@@YGPAUENTITY@@W4ENTITY_SIDES@@PAUVEC3D@@PAU1@22@Z:PROC ; create_troop_movement_capture_task
EXTRN	?get_road_sub_route@@YGPAUNODE_LINK_DATA@@HHPAHPAU1@@Z:PROC ; get_road_sub_route
EXTRN	?create_faction_members@@YGPAUENTITY@@PAU1@HW4FORMATION_COMPONENT_TYPES@@HW4ENTITY_SIDES@@PAUVEC3D@@HH@Z:PROC ; create_faction_members
EXTRN	?random_number_seed@@3HA:DWORD			; random_number_seed
EXTRN	?null_entity_pointer_message@@3PBDB:DWORD	; null_entity_pointer_message
EXTRN	?system_comms_model@@3W4COMMS_MODEL_TYPES@@A:DWORD ; system_comms_model
EXTRN	?message_responses@@3PAY0GB@P6GHW4ENTITY_MESSAGES@@PAUENTITY@@1PAD@ZA:BYTE ; message_responses
EXTRN	?overload_invalid_list_type_message@@3PBDB:DWORD ; overload_invalid_list_type_message
EXTRN	?fn_get_local_entity_first_child@@3PAY0CN@P6GPAUENTITY@@PAU1@W4LIST_TYPES@@@ZA:BYTE ; fn_get_local_entity_first_child
EXTRN	?fn_get_local_entity_parent@@3PAY0CN@P6GPAUENTITY@@PAU1@W4LIST_TYPES@@@ZA:BYTE ; fn_get_local_entity_parent
EXTRN	?fn_get_local_entity_child_succ@@3PAY0CN@P6GPAUENTITY@@PAU1@W4LIST_TYPES@@@ZA:BYTE ; fn_get_local_entity_child_succ
EXTRN	?fn_destroy_client_server_entity@@3PAY01P6GXPAUENTITY@@@ZA:BYTE ; fn_destroy_client_server_entity
EXTRN	?overload_invalid_float_type_message@@3PBDB:DWORD ; overload_invalid_float_type_message
EXTRN	?fn_set_local_entity_float_value@@3PAY0KP@P6GXPAUENTITY@@W4FLOAT_TYPES@@M@ZA:BYTE ; fn_set_local_entity_float_value
EXTRN	?fn_set_client_server_entity_float_value@@3PAY1KP@1P6GXPAUENTITY@@W4FLOAT_TYPES@@M@ZA:BYTE ; fn_set_client_server_entity_float_value
EXTRN	?fn_get_local_entity_float_value@@3PAY0KP@P6GMPAUENTITY@@W4FLOAT_TYPES@@@ZA:BYTE ; fn_get_local_entity_float_value
EXTRN	?overload_invalid_int_type_message@@3PBDB:DWORD	; overload_invalid_int_type_message
EXTRN	?fn_set_local_entity_int_value@@3PAY0BBH@P6GXPAUENTITY@@W4INT_TYPES@@H@ZA:BYTE ; fn_set_local_entity_int_value
EXTRN	?fn_set_client_server_entity_int_value@@3PAY1BBH@1P6GXPAUENTITY@@W4INT_TYPES@@H@ZA:BYTE ; fn_set_client_server_entity_int_value
EXTRN	?fn_get_local_entity_int_value@@3PAY0BBH@P6GHPAUENTITY@@W4INT_TYPES@@@ZA:BYTE ; fn_get_local_entity_int_value
EXTRN	?overload_invalid_ptr_type_message@@3PBDB:DWORD	; overload_invalid_ptr_type_message
EXTRN	?fn_get_local_entity_ptr_value@@3PAY0BE@P6GPAXPAUENTITY@@W4PTR_TYPES@@@ZA:BYTE ; fn_get_local_entity_ptr_value
EXTRN	?overload_invalid_string_type_message@@3PBDB:DWORD ; overload_invalid_string_type_message
EXTRN	?fn_get_local_entity_string@@3PAY0N@P6GPBDPAUENTITY@@W4STRING_TYPES@@@ZA:BYTE ; fn_get_local_entity_string
EXTRN	?overload_invalid_vec3d_type_message@@3PBDB:DWORD ; overload_invalid_vec3d_type_message
EXTRN	?fn_set_client_server_entity_vec3d@@3PAY1BI@1P6GXPAUENTITY@@W4VEC3D_TYPES@@PAUVEC3D@@@ZA:BYTE ; fn_set_client_server_entity_vec3d
EXTRN	?fn_get_local_entity_vec3d@@3PAY0BI@P6GXPAUENTITY@@W4VEC3D_TYPES@@PAUVEC3D@@@ZA:BYTE ; fn_get_local_entity_vec3d
EXTRN	?fn_get_local_entity_vec3d_ptr@@3PAY0BI@P6GPAUVEC3D@@PAUENTITY@@W4VEC3D_TYPES@@@ZA:BYTE ; fn_get_local_entity_vec3d_ptr
EXTRN	?entities@@3PAUENTITY@@A:DWORD			; entities
EXTRN	?gunship_entity@@3PAUENTITY@@A:DWORD		; gunship_entity
EXTRN	?group_database@@3PAUGROUP_DATA@@A:BYTE		; group_database
EXTRN	?keysite_database@@3PAUKEYSITE_DATA@@A:BYTE	; keysite_database
EXTRN	?session_entity@@3PAUENTITY@@A:DWORD		; session_entity
EXTRN	?task_database@@3PAUTASK_DATA@@A:BYTE		; task_database
EXTRN	__fltused:DWORD
_BSS	SEGMENT
?last_waypoint_attack_cpg_comment@@3PAHA DD 03H DUP (?)	; last_waypoint_attack_cpg_comment
?last_waypoint_attack_wingman_comment@@3PAHA DD 03H DUP (?) ; last_waypoint_attack_wingman_comment
_BSS	ENDS
;	COMDAT __real@bf800000
CONST	SEGMENT
__real@bf800000 DD 0bf800000r			; -1
CONST	ENDS
;	COMDAT __real@44fa0000
CONST	SEGMENT
__real@44fa0000 DD 044fa0000r			; 2000
CONST	ENDS
;	COMDAT __real@41f00000
CONST	SEGMENT
__real@41f00000 DD 041f00000r			; 30
CONST	ENDS
;	COMDAT __real@41a00000
CONST	SEGMENT
__real@41a00000 DD 041a00000r			; 20
CONST	ENDS
;	COMDAT __real@40a00000
CONST	SEGMENT
__real@40a00000 DD 040a00000r			; 5
CONST	ENDS
;	COMDAT __real@408f400000000000
CONST	SEGMENT
__real@408f400000000000 DQ 0408f400000000000r	; 1000
CONST	ENDS
;	COMDAT __real@4059000000000000
CONST	SEGMENT
__real@4059000000000000 DQ 04059000000000000r	; 100
CONST	ENDS
;	COMDAT __real@4000000000000000
CONST	SEGMENT
__real@4000000000000000 DQ 04000000000000000r	; 2
CONST	ENDS
;	COMDAT __real@3ff0000000000000
CONST	SEGMENT
__real@3ff0000000000000 DQ 03ff0000000000000r	; 1
CONST	ENDS
;	COMDAT __real@3fe0000000000000
CONST	SEGMENT
__real@3fe0000000000000 DQ 03fe0000000000000r	; 0.5
CONST	ENDS
;	COMDAT __real@3f800000
CONST	SEGMENT
__real@3f800000 DD 03f800000r			; 1
CONST	ENDS
;	COMDAT __real@3f4ccccd
CONST	SEGMENT
__real@3f4ccccd DD 03f4ccccdr			; 0.8
CONST	ENDS
;	COMDAT __real@3f00002000400080
CONST	SEGMENT
__real@3f00002000400080 DQ 03f00002000400080r	; 3.05185e-05
CONST	ENDS
;	COMDAT ??_C@_1CK@NDNHPKPI@?$AA?$CC?$AAi?$AAn?$AAv?$AAa?$AAl?$AAi?$AAd?$AA?5?$AAc?$AAo?$AAm?$AAp?$AAa?$AAr@
CONST	SEGMENT
??_C@_1CK@NDNHPKPI@?$AA?$CC?$AAi?$AAn?$AAv?$AAa?$AAl?$AAi?$AAd?$AA?5?$AAc?$AAo?$AAm?$AAp?$AAa?$AAr@ DB '"'
	DB	00H, 'i', 00H, 'n', 00H, 'v', 00H, 'a', 00H, 'l', 00H, 'i', 00H
	DB	'd', 00H, ' ', 00H, 'c', 00H, 'o', 00H, 'm', 00H, 'p', 00H, 'a'
	DB	00H, 'r', 00H, 'a', 00H, 't', 00H, 'o', 00H, 'r', 00H, '"', 00H
	DB	00H, 00H					; `string'
CONST	ENDS
;	COMDAT ??_C@_1BC@ICCOKLEG@?$AAs?$AAt?$AAd?$AA?3?$AA?3?$AAm?$AAa?$AAx@
CONST	SEGMENT
??_C@_1BC@ICCOKLEG@?$AAs?$AAt?$AAd?$AA?3?$AA?3?$AAm?$AAa?$AAx@ DB 's', 00H
	DB	't', 00H, 'd', 00H, ':', 00H, ':', 00H, 'm', 00H, 'a', 00H, 'x'
	DB	00H, 00H, 00H				; `string'
CONST	ENDS
;	COMDAT ??_C@_1NE@FKBPBJEB@?$AAc?$AA?3?$AA?2?$AAp?$AAr?$AAo?$AAg?$AAr?$AAa?$AAm?$AA?5?$AAf?$AAi?$AAl?$AAe@
CONST	SEGMENT
??_C@_1NE@FKBPBJEB@?$AAc?$AA?3?$AA?2?$AAp?$AAr?$AAo?$AAg?$AAr?$AAa?$AAm?$AA?5?$AAf?$AAi?$AAl?$AAe@ DB 'c'
	DB	00H, ':', 00H, '\', 00H, 'p', 00H, 'r', 00H, 'o', 00H, 'g', 00H
	DB	'r', 00H, 'a', 00H, 'm', 00H, ' ', 00H, 'f', 00H, 'i', 00H, 'l'
	DB	00H, 'e', 00H, 's', 00H, ' ', 00H, '(', 00H, 'x', 00H, '8', 00H
	DB	'6', 00H, ')', 00H, '\', 00H, 'm', 00H, 'i', 00H, 'c', 00H, 'r'
	DB	00H, 'o', 00H, 's', 00H, 'o', 00H, 'f', 00H, 't', 00H, ' ', 00H
	DB	'v', 00H, 'i', 00H, 's', 00H, 'u', 00H, 'a', 00H, 'l', 00H, ' '
	DB	00H, 's', 00H, 't', 00H, 'u', 00H, 'd', 00H, 'i', 00H, 'o', 00H
	DB	'\', 00H, '2', 00H, '0', 00H, '1', 00H, '7', 00H, '\', 00H, 'c'
	DB	00H, 'o', 00H, 'm', 00H, 'm', 00H, 'u', 00H, 'n', 00H, 'i', 00H
	DB	't', 00H, 'y', 00H, '\', 00H, 'v', 00H, 'c', 00H, '\', 00H, 't'
	DB	00H, 'o', 00H, 'o', 00H, 'l', 00H, 's', 00H, '\', 00H, 'm', 00H
	DB	's', 00H, 'v', 00H, 'c', 00H, '\', 00H, '1', 00H, '4', 00H, '.'
	DB	00H, '1', 00H, '6', 00H, '.', 00H, '2', 00H, '7', 00H, '0', 00H
	DB	'2', 00H, '3', 00H, '\', 00H, 'i', 00H, 'n', 00H, 'c', 00H, 'l'
	DB	00H, 'u', 00H, 'd', 00H, 'e', 00H, '\', 00H, 'a', 00H, 'l', 00H
	DB	'g', 00H, 'o', 00H, 'r', 00H, 'i', 00H, 't', 00H, 'h', 00H, 'm'
	DB	00H, 00H, 00H				; `string'
CONST	ENDS
;	COMDAT ??_C@_0GK@JMBMHIBC@c?3?2program?5files?5?$CIx86?$CJ?2microsof@
CONST	SEGMENT
??_C@_0GK@JMBMHIBC@c?3?2program?5files?5?$CIx86?$CJ?2microsof@ DB 'c:\pro'
	DB	'gram files (x86)\microsoft visual studio\2017\community\vc\to'
	DB	'ols\msvc\14.16.27023\include\algorithm', 00H ; `string'
CONST	ENDS
;	COMDAT ??_C@_0BD@FEEMDEPI@invalid?5comparator@
CONST	SEGMENT
??_C@_0BD@FEEMDEPI@invalid?5comparator@ DB 'invalid comparator', 00H ; `string'
CONST	ENDS
;	COMDAT ??_C@_0CE@POHNKOJE@MB_MSGS?3?5pickup?5point?5start?5rea@
CONST	SEGMENT
??_C@_0CE@POHNKOJE@MB_MSGS?3?5pickup?5point?5start?5rea@ DB 'MB_MSGS: pic'
	DB	'kup point start reached', 00H		; `string'
CONST	ENDS
;	COMDAT ?__LINE__Var@?0??response_to_waypoint_troop_pickup_point_start_reached@@YGHW4ENTITY_MESSAGES@@PAUENTITY@@1PAD@Z@4JA
_DATA	SEGMENT
?__LINE__Var@?0??response_to_waypoint_troop_pickup_point_start_reached@@YGHW4ENTITY_MESSAGES@@PAUENTITY@@1PAD@Z@4JA DD 0a06H ; `response_to_waypoint_troop_pickup_point_start_reached'::`1'::__LINE__Var
_DATA	ENDS
;	COMDAT ?__LINE__Var@?0??response_to_waypoint_troop_pickup_point_end_reached@@YGHW4ENTITY_MESSAGES@@PAUENTITY@@1PAD@Z@4JA
_DATA	SEGMENT
?__LINE__Var@?0??response_to_waypoint_troop_pickup_point_end_reached@@YGHW4ENTITY_MESSAGES@@PAUENTITY@@1PAD@Z@4JA DD 09b4H ; `response_to_waypoint_troop_pickup_point_end_reached'::`1'::__LINE__Var
_DATA	ENDS
;	COMDAT ??_C@_0M@GMAFECLM@insert_task@
CONST	SEGMENT
??_C@_0M@GMAFECLM@insert_task@ DB 'insert_task', 00H	; `string'
CONST	ENDS
;	COMDAT ?__LINE__Var@?0??response_to_waypoint_troop_putdown_point_reached@@YGHW4ENTITY_MESSAGES@@PAUENTITY@@1PAD@Z@4JA
_DATA	SEGMENT
?__LINE__Var@?0??response_to_waypoint_troop_putdown_point_reached@@YGHW4ENTITY_MESSAGES@@PAUENTITY@@1PAD@Z@4JA DD 0979H ; `response_to_waypoint_troop_putdown_point_reached'::`1'::__LINE__Var
_DATA	ENDS
;	COMDAT ??_C@_0CJ@JBLDDPLM@MB_MSGS?3?5can?8t?5assign?5person?5to@
CONST	SEGMENT
??_C@_0CJ@JBLDDPLM@MB_MSGS?3?5can?8t?5assign?5person?5to@ DB 'MB_MSGS: ca'
	DB	'n''t assign person to its task', 00H	; `string'
CONST	ENDS
;	COMDAT ?__LINE__Var@?0??response_to_waypoint_troop_insert_reached@@YGHW4ENTITY_MESSAGES@@PAUENTITY@@1PAD@Z@4JA
_DATA	SEGMENT
?__LINE__Var@?0??response_to_waypoint_troop_insert_reached@@YGHW4ENTITY_MESSAGES@@PAUENTITY@@1PAD@Z@4JA DD 08f2H ; `response_to_waypoint_troop_insert_reached'::`1'::__LINE__Var
_DATA	ENDS
;	COMDAT ?__LINE__Var@?0??response_to_waypoint_troop_defend_reached@@YGHW4ENTITY_MESSAGES@@PAUENTITY@@1PAD@Z@4JA
_DATA	SEGMENT
?__LINE__Var@?0??response_to_waypoint_troop_defend_reached@@YGHW4ENTITY_MESSAGES@@PAUENTITY@@1PAD@Z@4JA DD 08d9H ; `response_to_waypoint_troop_defend_reached'::`1'::__LINE__Var
_DATA	ENDS
;	COMDAT ??_C@_0BN@JLLFKOHI@MB_MSGS?3?5Probability?5?$CFf?5?3?5?$CFf@
CONST	SEGMENT
??_C@_0BN@JLLFKOHI@MB_MSGS?3?5Probability?5?$CFf?5?3?5?$CFf@ DB 'MB_MSGS:'
	DB	' Probability %f : %f', 00H			; `string'
CONST	ENDS
;	COMDAT ??_C@_0CE@GEONFHI@MB_MSGS?3?5Efficiency?5?$CFf?5?9?5Minimu@
CONST	SEGMENT
??_C@_0CE@GEONFHI@MB_MSGS?3?5Efficiency?5?$CFf?5?9?5Minimu@ DB 'MB_MSGS: '
	DB	'Efficiency %f - Minimum %f', 00H		; `string'
CONST	ENDS
;	COMDAT ??_C@_0BO@INELKHEB@MB_MSGS?3?5Trying?5to?5capture?5?$CFs@
CONST	SEGMENT
??_C@_0BO@INELKHEB@MB_MSGS?3?5Trying?5to?5capture?5?$CFs@ DB 'MB_MSGS: Tr'
	DB	'ying to capture %s', 00H			; `string'
CONST	ENDS
;	COMDAT ??_C@_0BE@PGBBOPJ@destination_keysite@
CONST	SEGMENT
??_C@_0BE@PGBBOPJ@destination_keysite@ DB 'destination_keysite', 00H ; `string'
CONST	ENDS
;	COMDAT ??_C@_0HE@JKKEPILA@get_local_entity_int_value?5?$CItro@
CONST	SEGMENT
??_C@_0HE@JKKEPILA@get_local_entity_int_value?5?$CItro@ DB 'get_local_ent'
	DB	'ity_int_value (troop_insertion_task, INT_TYPE_ENTITY_SUB_TYPE'
	DB	') == ENTITY_SUB_TYPE_TASK_TROOP_INSERTION', 00H ; `string'
CONST	ENDS
;	COMDAT ??_C@_0BF@IHGGJPIA@troop_insertion_task@
CONST	SEGMENT
??_C@_0BF@IHGGJPIA@troop_insertion_task@ DB 'troop_insertion_task', 00H ; `string'
CONST	ENDS
;	COMDAT ?__LINE__Var@?0??response_to_waypoint_troop_capture_reached@@YGHW4ENTITY_MESSAGES@@PAUENTITY@@1PAD@Z@4JA
_DATA	SEGMENT
?__LINE__Var@?0??response_to_waypoint_troop_capture_reached@@YGHW4ENTITY_MESSAGES@@PAUENTITY@@1PAD@Z@4JA DD 0869H ; `response_to_waypoint_troop_capture_reached'::`1'::__LINE__Var
_DATA	ENDS
;	COMDAT ?__LINE__Var@?0??response_to_waypoint_taxi_reached@@YGHW4ENTITY_MESSAGES@@PAUENTITY@@1PAD@Z@4JA
_DATA	SEGMENT
?__LINE__Var@?0??response_to_waypoint_taxi_reached@@YGHW4ENTITY_MESSAGES@@PAUENTITY@@1PAD@Z@4JA DD 0850H ; `response_to_waypoint_taxi_reached'::`1'::__LINE__Var
_DATA	ENDS
;	COMDAT ?__LINE__Var@?0??response_to_waypoint_taken_off_reached@@YGHW4ENTITY_MESSAGES@@PAUENTITY@@1PAD@Z@4JA
_DATA	SEGMENT
?__LINE__Var@?0??response_to_waypoint_taken_off_reached@@YGHW4ENTITY_MESSAGES@@PAUENTITY@@1PAD@Z@4JA DD 07f2H ; `response_to_waypoint_taken_off_reached'::`1'::__LINE__Var
_DATA	ENDS
;	COMDAT ??_C@_0CH@MDABEMMF@MB_MSGS?3?5repair?5waypoint?5reache@
CONST	SEGMENT
??_C@_0CH@MDABEMMF@MB_MSGS?3?5repair?5waypoint?5reache@ DB 'MB_MSGS: repa'
	DB	'ir waypoint reached by %s', 00H		; `string'
CONST	ENDS
;	COMDAT ?__LINE__Var@?0??response_to_waypoint_repair_reached@@YGHW4ENTITY_MESSAGES@@PAUENTITY@@1PAD@Z@4JA
_DATA	SEGMENT
?__LINE__Var@?0??response_to_waypoint_repair_reached@@YGHW4ENTITY_MESSAGES@@PAUENTITY@@1PAD@Z@4JA DD 07c1H ; `response_to_waypoint_repair_reached'::`1'::__LINE__Var
_DATA	ENDS
;	COMDAT ?__LINE__Var@?0??response_to_waypoint_recon_reached@@YGHW4ENTITY_MESSAGES@@PAUENTITY@@1PAD@Z@4JA
_DATA	SEGMENT
?__LINE__Var@?0??response_to_waypoint_recon_reached@@YGHW4ENTITY_MESSAGES@@PAUENTITY@@1PAD@Z@4JA DD 077eH ; `response_to_waypoint_recon_reached'::`1'::__LINE__Var
_DATA	ENDS
;	COMDAT ??_C@_0BG@PFNEBFLH@ADVISE_TRANSMIT_RECON@
CONST	SEGMENT
??_C@_0BG@PFNEBFLH@ADVISE_TRANSMIT_RECON@ DB 'ADVISE_TRANSMIT_RECON', 00H ; `string'
CONST	ENDS
;	COMDAT ?__LINE__Var@?0??response_to_waypoint_recon_action@@YGHW4ENTITY_MESSAGES@@PAUENTITY@@1PAD@Z@4JA
_DATA	SEGMENT
?__LINE__Var@?0??response_to_waypoint_recon_action@@YGHW4ENTITY_MESSAGES@@PAUENTITY@@1PAD@Z@4JA DD 074eH ; `response_to_waypoint_recon_action'::`1'::__LINE__Var
_DATA	ENDS
;	COMDAT ?__LINE__Var@?0??response_to_waypoint_pick_up_reached@@YGHW4ENTITY_MESSAGES@@PAUENTITY@@1PAD@Z@4JA
_DATA	SEGMENT
?__LINE__Var@?0??response_to_waypoint_pick_up_reached@@YGHW4ENTITY_MESSAGES@@PAUENTITY@@1PAD@Z@4JA DD 0700H ; `response_to_waypoint_pick_up_reached'::`1'::__LINE__Var
_DATA	ENDS
;	COMDAT ?__LINE__Var@?0??response_to_waypoint_prepare_for_drop_off_reached@@YGHW4ENTITY_MESSAGES@@PAUENTITY@@1PAD@Z@4JA
_DATA	SEGMENT
?__LINE__Var@?0??response_to_waypoint_prepare_for_drop_off_reached@@YGHW4ENTITY_MESSAGES@@PAUENTITY@@1PAD@Z@4JA DD 06c5H ; `response_to_waypoint_prepare_for_drop_off_reached'::`1'::__LINE__Var
_DATA	ENDS
;	COMDAT ??_C@_0DN@JGLIDAKP@MB_MSGS?3?5ERROR?0?5no?5route?5found?5@
CONST	SEGMENT
??_C@_0DN@JGLIDAKP@MB_MSGS?3?5ERROR?0?5no?5route?5found?5@ DB 'MB_MSGS: E'
	DB	'RROR, no route found betweek road nodes %d and %d.', 00H ; `string'
CONST	ENDS
;	COMDAT ?__LINE__Var@?0??response_to_waypoint_sub_route_navigation_reached@@YGHW4ENTITY_MESSAGES@@PAUENTITY@@1PAD@Z@4JA
_DATA	SEGMENT
?__LINE__Var@?0??response_to_waypoint_sub_route_navigation_reached@@YGHW4ENTITY_MESSAGES@@PAUENTITY@@1PAD@Z@4JA DD 0645H ; `response_to_waypoint_sub_route_navigation_reached'::`1'::__LINE__Var
_DATA	ENDS
;	COMDAT ?__LINE__Var@?0??response_to_waypoint_navigation_reached@@YGHW4ENTITY_MESSAGES@@PAUENTITY@@1PAD@Z@4JA
_DATA	SEGMENT
?__LINE__Var@?0??response_to_waypoint_navigation_reached@@YGHW4ENTITY_MESSAGES@@PAUENTITY@@1PAD@Z@4JA DD 0623H ; `response_to_waypoint_navigation_reached'::`1'::__LINE__Var
_DATA	ENDS
;	COMDAT ?__LINE__Var@?0??response_to_waypoint_loop_reached@@YGHW4ENTITY_MESSAGES@@PAUENTITY@@1PAD@Z@4JA
_DATA	SEGMENT
?__LINE__Var@?0??response_to_waypoint_loop_reached@@YGHW4ENTITY_MESSAGES@@PAUENTITY@@1PAD@Z@4JA DD 05f2H ; `response_to_waypoint_loop_reached'::`1'::__LINE__Var
_DATA	ENDS
;	COMDAT ??_C@_0CI@GEHIFODJ@landing_en?9?$DOtype?5?$DN?$DN?5ENTITY_TYPE@
CONST	SEGMENT
??_C@_0CI@GEHIFODJ@landing_en?9?$DOtype?5?$DN?$DN?5ENTITY_TYPE@ DB 'landi'
	DB	'ng_en->type == ENTITY_TYPE_LANDING', 00H	; `string'
CONST	ENDS
;	COMDAT ?__LINE__Var@?0??response_to_waypoint_landed_reached@@YGHW4ENTITY_MESSAGES@@PAUENTITY@@1PAD@Z@4JA
_DATA	SEGMENT
?__LINE__Var@?0??response_to_waypoint_landed_reached@@YGHW4ENTITY_MESSAGES@@PAUENTITY@@1PAD@Z@4JA DD 04eeH ; `response_to_waypoint_landed_reached'::`1'::__LINE__Var
_DATA	ENDS
;	COMDAT ??_C@_0HM@NJEDKAHD@MB_MSGS?3?5?5?5?5?$CFs?5?$CI?$CFd?$CJ?5unreserving@
CONST	SEGMENT
??_C@_0HM@NJEDKAHD@MB_MSGS?3?5?5?5?5?$CFs?5?$CI?$CFd?$CJ?5unreserving@ DB 'M'
	DB	'B_MSGS:    %s (%d) unreserving landing place at keysite %s (%'
	DB	'd) (landing %d) and reserving at keysite %s (%d) (landing %d)'
	DB	00H						; `string'
CONST	ENDS
;	COMDAT ??_C@_0EG@INJKJDJC@MB_MSGS?3?5?$CFs?5?$CI?$CFd?$CJ?5reached?5land?5w@
CONST	SEGMENT
??_C@_0EG@INJKJDJC@MB_MSGS?3?5?$CFs?5?$CI?$CFd?$CJ?5reached?5land?5w@ DB 'M'
	DB	'B_MSGS: %s (%d) reached land waypoint but keysite has been de'
	DB	'stroyed', 00H				; `string'
CONST	ENDS
;	COMDAT ??_C@_07EAMPMOFH@landing@
CONST	SEGMENT
??_C@_07EAMPMOFH@landing@ DB 'landing', 00H		; `string'
CONST	ENDS
;	COMDAT ??_C@_07FBNBNOMI@keysite@
CONST	SEGMENT
??_C@_07FBNBNOMI@keysite@ DB 'keysite', 00H		; `string'
CONST	ENDS
;	COMDAT ??_C@_0BP@DMNHGEHG@task?9?$DOtype?5?$DN?$DN?5ENTITY_TYPE_TASK@
CONST	SEGMENT
??_C@_0BP@DMNHGEHG@task?9?$DOtype?5?$DN?$DN?5ENTITY_TYPE_TASK@ DB 'task->'
	DB	'type == ENTITY_TYPE_TASK', 00H		; `string'
CONST	ENDS
;	COMDAT ??_C@_0DH@NBKEDIK@get_local_entity_type?5?$CIsender?$CJ?5@
CONST	SEGMENT
??_C@_0DH@NBKEDIK@get_local_entity_type?5?$CIsender?$CJ?5@ DB 'get_local_'
	DB	'entity_type (sender) == ENTITY_TYPE_WAYPOINT', 00H ; `string'
CONST	ENDS
;	COMDAT ?__LINE__Var@?0??response_to_waypoint_land_reached@@YGHW4ENTITY_MESSAGES@@PAUENTITY@@1PAD@Z@4JA
_DATA	SEGMENT
?__LINE__Var@?0??response_to_waypoint_land_reached@@YGHW4ENTITY_MESSAGES@@PAUENTITY@@1PAD@Z@4JA DD 0447H ; `response_to_waypoint_land_reached'::`1'::__LINE__Var
_DATA	ENDS
;	COMDAT ?__LINE__Var@?0??response_to_waypoint_finish_drop_off_reached@@YGHW4ENTITY_MESSAGES@@PAUENTITY@@1PAD@Z@4JA
_DATA	SEGMENT
?__LINE__Var@?0??response_to_waypoint_finish_drop_off_reached@@YGHW4ENTITY_MESSAGES@@PAUENTITY@@1PAD@Z@4JA DD 042eH ; `response_to_waypoint_finish_drop_off_reached'::`1'::__LINE__Var
_DATA	ENDS
;	COMDAT ??_C@_0DH@LDJFNOEI@get_local_entity_type?5?$CIrequeste@
CONST	SEGMENT
??_C@_0DH@LDJFNOEI@get_local_entity_type?5?$CIrequeste@ DB 'get_local_ent'
	DB	'ity_type (requester) == ENTITY_TYPE_GROUP', 00H ; `string'
CONST	ENDS
;	COMDAT ?__LINE__Var@?0??response_to_waypoint_drop_off_reached@@YGHW4ENTITY_MESSAGES@@PAUENTITY@@1PAD@Z@4JA
_DATA	SEGMENT
?__LINE__Var@?0??response_to_waypoint_drop_off_reached@@YGHW4ENTITY_MESSAGES@@PAUENTITY@@1PAD@Z@4JA DD 0370H ; `response_to_waypoint_drop_off_reached'::`1'::__LINE__Var
_DATA	ENDS
;	COMDAT ?__LINE__Var@?0??response_to_waypoint_defend_reached@@YGHW4ENTITY_MESSAGES@@PAUENTITY@@1PAD@Z@4JA
_DATA	SEGMENT
?__LINE__Var@?0??response_to_waypoint_defend_reached@@YGHW4ENTITY_MESSAGES@@PAUENTITY@@1PAD@Z@4JA DD 02f3H ; `response_to_waypoint_defend_reached'::`1'::__LINE__Var
_DATA	ENDS
;	COMDAT ?__LINE__Var@?0??response_to_waypoint_convoy_reached@@YGHW4ENTITY_MESSAGES@@PAUENTITY@@1PAD@Z@4JA
_DATA	SEGMENT
?__LINE__Var@?0??response_to_waypoint_convoy_reached@@YGHW4ENTITY_MESSAGES@@PAUENTITY@@1PAD@Z@4JA DD 0290H ; `response_to_waypoint_convoy_reached'::`1'::__LINE__Var
_DATA	ENDS
;	COMDAT ??_C@_0O@GABLNPIN@objective_pos@
CONST	SEGMENT
??_C@_0O@GABLNPIN@objective_pos@ DB 'objective_pos', 00H ; `string'
CONST	ENDS
;	COMDAT ??_C@_0DK@HNNFKJEB@get_local_entity_int_value?5?$CIgro@
CONST	SEGMENT
??_C@_0DK@HNNFKJEB@get_local_entity_int_value?5?$CIgro@ DB 'get_local_ent'
	DB	'ity_int_value (group, INT_TYPE_ENGAGE_ENEMY)', 00H ; `string'
CONST	ENDS
;	COMDAT ??_C@_05MGJOOGAJ@group@
CONST	SEGMENT
??_C@_05MGJOOGAJ@group@ DB 'group', 00H			; `string'
CONST	ENDS
;	COMDAT ?__LINE__Var@?0??response_to_waypoint_attack_action@@YGHW4ENTITY_MESSAGES@@PAUENTITY@@1PAD@Z@4JA
_DATA	SEGMENT
?__LINE__Var@?0??response_to_waypoint_attack_action@@YGHW4ENTITY_MESSAGES@@PAUENTITY@@1PAD@Z@4JA DD 01ecH ; `response_to_waypoint_attack_action'::`1'::__LINE__Var
_DATA	ENDS
_DATA	SEGMENT
?num_waypoint_attack_cpg_comments@@3PAHA DD 00H		; num_waypoint_attack_cpg_comments
	DD	03H
	DD	03H
?waypoint_attack_cpg_comments@@3PAUSPEECH_INSTANCE_TYPE@@A DD 05eH ; waypoint_attack_cpg_comments
	DD	09H
	DD	064H
	DD	00H
	DD	05fH
	DD	09H
	DD	064H
	DD	00H
	DD	060H
	DD	09H
	DD	064H
	DD	00H
?num_waypoint_attack_wingman_comments@@3PAHA DD 00H	; num_waypoint_attack_wingman_comments
	DD	03H
	DD	03H
?waypoint_attack_wingman_comments@@3PAUSPEECH_INSTANCE_TYPE@@A DD 08H ; waypoint_attack_wingman_comments
	DD	07H
	DD	064H
	DD	02H
	DD	09H
	DD	07H
	DD	064H
	DD	02H
	DD	0aH
	DD	07H
	DD	064H
	DD	02H
_DATA	ENDS
;	COMDAT ??_C@_0CF@JOKOGIDD@sender?9?$DOtype?5?$DN?$DN?5ENTITY_TYPE_WAY@
CONST	SEGMENT
??_C@_0CF@JOKOGIDD@sender?9?$DOtype?5?$DN?$DN?5ENTITY_TYPE_WAY@ DB 'sende'
	DB	'r->type == ENTITY_TYPE_WAYPOINT', 00H	; `string'
CONST	ENDS
;	COMDAT ?__LINE__Var@?0??response_to_waypoint_approach_reached@@YGHW4ENTITY_MESSAGES@@PAUENTITY@@1PAD@Z@4JA
_DATA	SEGMENT
?__LINE__Var@?0??response_to_waypoint_approach_reached@@YGHW4ENTITY_MESSAGES@@PAUENTITY@@1PAD@Z@4JA DD 01b9H ; `response_to_waypoint_approach_reached'::`1'::__LINE__Var
_DATA	ENDS
;	COMDAT ??_C@_0M@IIJCELEF@end_keysite@
CONST	SEGMENT
??_C@_0M@IIJCELEF@end_keysite@ DB 'end_keysite', 00H	; `string'
CONST	ENDS
;	COMDAT ??_C@_0DN@FFBOCIDH@?$CBget_local_entity_parent?5?$CIrecei@
CONST	SEGMENT
??_C@_0DN@FFBOCIDH@?$CBget_local_entity_parent?5?$CIrecei@ DB '!get_local'
	DB	'_entity_parent (receiver, LIST_TYPE_TAKEOFF_QUEUE)', 00H ; `string'
CONST	ENDS
;	COMDAT ??_C@_04GGKLLKOO@task@
CONST	SEGMENT
??_C@_04GGKLLKOO@task@ DB 'task', 00H			; `string'
CONST	ENDS
;	COMDAT ??_C@_0L@BBFNENIC@landing_en@
CONST	SEGMENT
??_C@_0L@BBFNENIC@landing_en@ DB 'landing_en', 00H	; `string'
CONST	ENDS
;	COMDAT ??_C@_0DL@KGHJEFM@get_local_entity_parent?5?$CIguide?0@
CONST	SEGMENT
??_C@_0DL@KGHJEFM@get_local_entity_parent?5?$CIguide?0@ DB 'get_local_ent'
	DB	'ity_parent (guide, LIST_TYPE_GUIDE) == sender', 00H ; `string'
CONST	ENDS
;	COMDAT ??_C@_05HLIEEKJG@guide@
CONST	SEGMENT
??_C@_05HLIEEKJG@guide@ DB 'guide', 00H			; `string'
CONST	ENDS
;	COMDAT ??_C@_06JJLAMBGK@target@
CONST	SEGMENT
??_C@_06JJLAMBGK@target@ DB 'target', 00H		; `string'
CONST	ENDS
;	COMDAT ??_C@_0CJ@DMBLBJBK@get_comms_model?5?$CI?$CJ?5?$DN?$DN?5COMMS_MOD@
CONST	SEGMENT
??_C@_0CJ@DMBLBJBK@get_comms_model?5?$CI?$CJ?5?$DN?$DN?5COMMS_MOD@ DB 'ge'
	DB	't_comms_model () == COMMS_MODEL_SERVER', 00H ; `string'
CONST	ENDS
;	COMDAT ??_C@_0CB@JCFBNGNO@sender?9?$DOtype?5?$DN?$DN?5ENTITY_TYPE_TAS@
CONST	SEGMENT
??_C@_0CB@JCFBNGNO@sender?9?$DOtype?5?$DN?$DN?5ENTITY_TYPE_TAS@ DB 'sende'
	DB	'r->type == ENTITY_TYPE_TASK', 00H		; `string'
CONST	ENDS
;	COMDAT ??_C@_06CGHJMPBJ@sender@
CONST	SEGMENT
??_C@_06CGHJMPBJ@sender@ DB 'sender', 00H		; `string'
CONST	ENDS
;	COMDAT ??_C@_0EE@DLIIEJCN@c?3?2users?2nhv90?2projects?2eech?2ap@
CONST	SEGMENT
??_C@_0EE@DLIIEJCN@c?3?2users?2nhv90?2projects?2eech?2ap@ DB 'c:\users\nh'
	DB	'v90\projects\eech\aphavoc\source\entity\mobile\mb_msgs.c', 00H ; `string'
CONST	ENDS
;	COMDAT ?__LINE__Var@?0??response_to_task_assigned@@YGHW4ENTITY_MESSAGES@@PAUENTITY@@1PAD@Z@4JA
_DATA	SEGMENT
?__LINE__Var@?0??response_to_task_assigned@@YGHW4ENTITY_MESSAGES@@PAUENTITY@@1PAD@Z@4JA DD 099H ; `response_to_task_assigned'::`1'::__LINE__Var
_DATA	ENDS
;	COMDAT ??_C@_02DKCKIIND@?$CFs@
CONST	SEGMENT
??_C@_02DKCKIIND@?$CFs@ DB '%s', 00H			; `string'
CONST	ENDS
; Function compile flags: /Odtp /ZI
; File c:\users\nhv90\projects\eech\aphavoc\source\entity\mobile\mb_msgs.c
;	COMDAT ?response_to_waypoint_troop_pickup_point_start_reached@@YGHW4ENTITY_MESSAGES@@PAUENTITY@@1PAD@Z
_TEXT	SEGMENT
tv199 = -84						; size = 4
tv177 = -84						; size = 4
tv153 = -84						; size = 4
tv133 = -84						; size = 4
tv191 = -80						; size = 4
tv169 = -80						; size = 4
tv145 = -80						; size = 4
tv93 = -80						; size = 4
tv75 = -80						; size = 4
_sleep$ = -12						; size = 4
_mb$ = -8						; size = 4
_group$ = -4						; size = 4
_message$ = 8						; size = 4
_receiver$ = 12						; size = 4
_sender$ = 16						; size = 4
_pargs$ = 20						; size = 4
?response_to_waypoint_troop_pickup_point_start_reached@@YGHW4ENTITY_MESSAGES@@PAUENTITY@@1PAD@Z PROC ; response_to_waypoint_troop_pickup_point_start_reached, COMDAT

; 2566 : {

  00000	55		 push	 ebp
  00001	8b ec		 mov	 ebp, esp
  00003	83 ec 54	 sub	 esp, 84			; 00000054H
  00006	53		 push	 ebx
  00007	56		 push	 esi
  00008	57		 push	 edi

; 2567 : 	entity
; 2568 : 		*group,
; 2569 : 		*mb;
; 2570 : 
; 2571 : 	float
; 2572 : 		sleep;
; 2573 : 
; 2574 : 	ASSERT (sender);

  00009	83 7d 10 00	 cmp	 DWORD PTR _sender$[ebp], 0
  0000d	75 18		 jne	 SHORT $LN4@response_t
  0000f	a1 00 00 00 00	 mov	 eax, DWORD PTR ?__LINE__Var@?0??response_to_waypoint_troop_pickup_point_start_reached@@YGHW4ENTITY_MESSAGES@@PAUENTITY@@1PAD@Z@4JA
  00014	83 c0 08	 add	 eax, 8
  00017	50		 push	 eax
  00018	68 00 00 00 00	 push	 OFFSET ??_C@_0EE@DLIIEJCN@c?3?2users?2nhv90?2projects?2eech?2ap@
  0001d	68 00 00 00 00	 push	 OFFSET ??_C@_06CGHJMPBJ@sender@
  00022	e8 00 00 00 00	 call	 ?process_assert@@YGXPBD0H@Z ; process_assert
$LN4@response_t:

; 2575 : 
; 2576 : 	ASSERT (get_local_entity_type (sender) == ENTITY_TYPE_WAYPOINT);

  00027	83 7d 10 00	 cmp	 DWORD PTR _sender$[ebp], 0
  0002b	74 0a		 je	 SHORT $LN8@response_t
  0002d	8b 45 10	 mov	 eax, DWORD PTR _sender$[ebp]
  00030	8b 08		 mov	 ecx, DWORD PTR [eax]
  00032	89 4d b0	 mov	 DWORD PTR tv75[ebp], ecx
  00035	eb 21		 jmp	 SHORT $LN9@response_t
$LN8@response_t:
  00037	8b 15 00 00 00
	00		 mov	 edx, DWORD PTR ?__LINE__Var@?0??response_to_waypoint_troop_pickup_point_start_reached@@YGHW4ENTITY_MESSAGES@@PAUENTITY@@1PAD@Z@4JA
  0003d	83 c2 0a	 add	 edx, 10			; 0000000aH
  00040	52		 push	 edx
  00041	68 00 00 00 00	 push	 OFFSET ??_C@_0EE@DLIIEJCN@c?3?2users?2nhv90?2projects?2eech?2ap@
  00046	a1 00 00 00 00	 mov	 eax, DWORD PTR ?null_entity_pointer_message@@3PBDB ; null_entity_pointer_message
  0004b	50		 push	 eax
  0004c	e8 00 00 00 00	 call	 ?process_assert@@YGXPBD0H@Z ; process_assert
  00051	c7 45 b0 00 00
	00 00		 mov	 DWORD PTR tv75[ebp], 0
$LN9@response_t:
  00058	83 7d b0 24	 cmp	 DWORD PTR tv75[ebp], 36	; 00000024H
  0005c	74 18		 je	 SHORT $LN5@response_t
  0005e	a1 00 00 00 00	 mov	 eax, DWORD PTR ?__LINE__Var@?0??response_to_waypoint_troop_pickup_point_start_reached@@YGHW4ENTITY_MESSAGES@@PAUENTITY@@1PAD@Z@4JA
  00063	83 c0 0a	 add	 eax, 10			; 0000000aH
  00066	50		 push	 eax
  00067	68 00 00 00 00	 push	 OFFSET ??_C@_0EE@DLIIEJCN@c?3?2users?2nhv90?2projects?2eech?2ap@
  0006c	68 00 00 00 00	 push	 OFFSET ??_C@_0DH@NBKEDIK@get_local_entity_type?5?$CIsender?$CJ?5@
  00071	e8 00 00 00 00	 call	 ?process_assert@@YGXPBD0H@Z ; process_assert
$LN5@response_t:

; 2577 : 
; 2578 : 	ASSERT (get_comms_model () == COMMS_MODEL_SERVER);

  00076	83 3d 00 00 00
	00 00		 cmp	 DWORD PTR ?system_comms_model@@3W4COMMS_MODEL_TYPES@@A, 0 ; system_comms_model
  0007d	74 18		 je	 SHORT $LN6@response_t
  0007f	a1 00 00 00 00	 mov	 eax, DWORD PTR ?__LINE__Var@?0??response_to_waypoint_troop_pickup_point_start_reached@@YGHW4ENTITY_MESSAGES@@PAUENTITY@@1PAD@Z@4JA
  00084	83 c0 0c	 add	 eax, 12			; 0000000cH
  00087	50		 push	 eax
  00088	68 00 00 00 00	 push	 OFFSET ??_C@_0EE@DLIIEJCN@c?3?2users?2nhv90?2projects?2eech?2ap@
  0008d	68 00 00 00 00	 push	 OFFSET ??_C@_0CJ@DMBLBJBK@get_comms_model?5?$CI?$CJ?5?$DN?$DN?5COMMS_MOD@
  00092	e8 00 00 00 00	 call	 ?process_assert@@YGXPBD0H@Z ; process_assert
$LN6@response_t:

; 2579 : 
; 2580 : 	debug_log ("MB_MSGS: pickup point start reached");

  00097	68 00 00 00 00	 push	 OFFSET ??_C@_0CE@POHNKOJE@MB_MSGS?3?5pickup?5point?5start?5rea@
  0009c	e8 00 00 00 00	 call	 ?debug_log@@YAXPBDZZ	; debug_log
  000a1	83 c4 04	 add	 esp, 4

; 2581 : 
; 2582 : 	group = get_local_entity_parent (receiver, LIST_TYPE_MEMBER);

  000a4	83 7d 0c 00	 cmp	 DWORD PTR _receiver$[ebp], 0
  000a8	74 0a		 je	 SHORT $LN10@response_t
  000aa	8b 45 0c	 mov	 eax, DWORD PTR _receiver$[ebp]
  000ad	8b 08		 mov	 ecx, DWORD PTR [eax]
  000af	89 4d b0	 mov	 DWORD PTR tv93[ebp], ecx
  000b2	eb 21		 jmp	 SHORT $LN11@response_t
$LN10@response_t:
  000b4	8b 15 00 00 00
	00		 mov	 edx, DWORD PTR ?__LINE__Var@?0??response_to_waypoint_troop_pickup_point_start_reached@@YGHW4ENTITY_MESSAGES@@PAUENTITY@@1PAD@Z@4JA
  000ba	83 c2 10	 add	 edx, 16			; 00000010H
  000bd	52		 push	 edx
  000be	68 00 00 00 00	 push	 OFFSET ??_C@_0EE@DLIIEJCN@c?3?2users?2nhv90?2projects?2eech?2ap@
  000c3	a1 00 00 00 00	 mov	 eax, DWORD PTR ?null_entity_pointer_message@@3PBDB ; null_entity_pointer_message
  000c8	50		 push	 eax
  000c9	e8 00 00 00 00	 call	 ?process_assert@@YGXPBD0H@Z ; process_assert
  000ce	c7 45 b0 00 00
	00 00		 mov	 DWORD PTR tv93[ebp], 0
$LN11@response_t:
  000d5	b9 01 00 00 00	 mov	 ecx, 1
  000da	85 c9		 test	 ecx, ecx
  000dc	74 09		 je	 SHORT $LN12@response_t
  000de	c7 45 ac 19 00
	00 00		 mov	 DWORD PTR tv133[ebp], 25 ; 00000019H
  000e5	eb 21		 jmp	 SHORT $LN13@response_t
$LN12@response_t:
  000e7	8b 15 00 00 00
	00		 mov	 edx, DWORD PTR ?__LINE__Var@?0??response_to_waypoint_troop_pickup_point_start_reached@@YGHW4ENTITY_MESSAGES@@PAUENTITY@@1PAD@Z@4JA
  000ed	83 c2 10	 add	 edx, 16			; 00000010H
  000f0	52		 push	 edx
  000f1	68 00 00 00 00	 push	 OFFSET ??_C@_0EE@DLIIEJCN@c?3?2users?2nhv90?2projects?2eech?2ap@
  000f6	a1 00 00 00 00	 mov	 eax, DWORD PTR ?overload_invalid_list_type_message@@3PBDB ; overload_invalid_list_type_message
  000fb	50		 push	 eax
  000fc	e8 00 00 00 00	 call	 ?process_assert@@YGXPBD0H@Z ; process_assert
  00101	c7 45 ac 00 00
	00 00		 mov	 DWORD PTR tv133[ebp], 0
$LN13@response_t:
  00108	6a 19		 push	 25			; 00000019H
  0010a	8b 4d 0c	 mov	 ecx, DWORD PTR _receiver$[ebp]
  0010d	51		 push	 ecx
  0010e	69 55 b0 b4 00
	00 00		 imul	 edx, DWORD PTR tv93[ebp], 180
  00115	8b 45 ac	 mov	 eax, DWORD PTR tv133[ebp]
  00118	8b 8c 82 00 00
	00 00		 mov	 ecx, DWORD PTR ?fn_get_local_entity_parent@@3PAY0CN@P6GPAUENTITY@@PAU1@W4LIST_TYPES@@@ZA[edx+eax*4]
  0011f	ff d1		 call	 ecx
  00121	89 45 fc	 mov	 DWORD PTR _group$[ebp], eax

; 2583 : 
; 2584 : 	mb = get_local_entity_first_child (group, LIST_TYPE_MEMBER);

  00124	83 7d fc 00	 cmp	 DWORD PTR _group$[ebp], 0
  00128	74 0a		 je	 SHORT $LN14@response_t
  0012a	8b 45 fc	 mov	 eax, DWORD PTR _group$[ebp]
  0012d	8b 08		 mov	 ecx, DWORD PTR [eax]
  0012f	89 4d b0	 mov	 DWORD PTR tv145[ebp], ecx
  00132	eb 21		 jmp	 SHORT $LN15@response_t
$LN14@response_t:
  00134	8b 15 00 00 00
	00		 mov	 edx, DWORD PTR ?__LINE__Var@?0??response_to_waypoint_troop_pickup_point_start_reached@@YGHW4ENTITY_MESSAGES@@PAUENTITY@@1PAD@Z@4JA
  0013a	83 c2 12	 add	 edx, 18			; 00000012H
  0013d	52		 push	 edx
  0013e	68 00 00 00 00	 push	 OFFSET ??_C@_0EE@DLIIEJCN@c?3?2users?2nhv90?2projects?2eech?2ap@
  00143	a1 00 00 00 00	 mov	 eax, DWORD PTR ?null_entity_pointer_message@@3PBDB ; null_entity_pointer_message
  00148	50		 push	 eax
  00149	e8 00 00 00 00	 call	 ?process_assert@@YGXPBD0H@Z ; process_assert
  0014e	c7 45 b0 00 00
	00 00		 mov	 DWORD PTR tv145[ebp], 0
$LN15@response_t:
  00155	b9 01 00 00 00	 mov	 ecx, 1
  0015a	85 c9		 test	 ecx, ecx
  0015c	74 09		 je	 SHORT $LN16@response_t
  0015e	c7 45 ac 19 00
	00 00		 mov	 DWORD PTR tv153[ebp], 25 ; 00000019H
  00165	eb 21		 jmp	 SHORT $LN17@response_t
$LN16@response_t:
  00167	8b 15 00 00 00
	00		 mov	 edx, DWORD PTR ?__LINE__Var@?0??response_to_waypoint_troop_pickup_point_start_reached@@YGHW4ENTITY_MESSAGES@@PAUENTITY@@1PAD@Z@4JA
  0016d	83 c2 12	 add	 edx, 18			; 00000012H
  00170	52		 push	 edx
  00171	68 00 00 00 00	 push	 OFFSET ??_C@_0EE@DLIIEJCN@c?3?2users?2nhv90?2projects?2eech?2ap@
  00176	a1 00 00 00 00	 mov	 eax, DWORD PTR ?overload_invalid_list_type_message@@3PBDB ; overload_invalid_list_type_message
  0017b	50		 push	 eax
  0017c	e8 00 00 00 00	 call	 ?process_assert@@YGXPBD0H@Z ; process_assert
  00181	c7 45 ac 00 00
	00 00		 mov	 DWORD PTR tv153[ebp], 0
$LN17@response_t:
  00188	6a 19		 push	 25			; 00000019H
  0018a	8b 4d fc	 mov	 ecx, DWORD PTR _group$[ebp]
  0018d	51		 push	 ecx
  0018e	69 55 b0 b4 00
	00 00		 imul	 edx, DWORD PTR tv145[ebp], 180
  00195	8b 45 ac	 mov	 eax, DWORD PTR tv153[ebp]
  00198	8b 8c 82 00 00
	00 00		 mov	 ecx, DWORD PTR ?fn_get_local_entity_first_child@@3PAY0CN@P6GPAUENTITY@@PAU1@W4LIST_TYPES@@@ZA[edx+eax*4]
  0019f	ff d1		 call	 ecx
  001a1	89 45 f8	 mov	 DWORD PTR _mb$[ebp], eax

; 2585 : 
; 2586 : 	sleep = 0.0;

  001a4	0f 57 c0	 xorps	 xmm0, xmm0
  001a7	f3 0f 11 45 f4	 movss	 DWORD PTR _sleep$[ebp], xmm0
$LN2@response_t:

; 2587 : 
; 2588 : 	while (mb)

  001ac	83 7d f8 00	 cmp	 DWORD PTR _mb$[ebp], 0
  001b0	0f 84 2c 01 00
	00		 je	 $LN3@response_t

; 2589 : 	{
; 2590 : 
; 2591 : 		sleep += 2.0;

  001b6	f3 0f 5a 45 f4	 cvtss2sd xmm0, DWORD PTR _sleep$[ebp]
  001bb	f2 0f 58 05 00
	00 00 00	 addsd	 xmm0, QWORD PTR __real@4000000000000000
  001c3	f2 0f 5a c0	 cvtsd2ss xmm0, xmm0
  001c7	f3 0f 11 45 f4	 movss	 DWORD PTR _sleep$[ebp], xmm0

; 2592 : 	
; 2593 : 		// delay members to stagger their accent into the helicopter
; 2594 : 		set_client_server_entity_float_value (mb, FLOAT_TYPE_SLEEP, sleep);

  001cc	83 7d f8 00	 cmp	 DWORD PTR _mb$[ebp], 0
  001d0	74 0a		 je	 SHORT $LN18@response_t
  001d2	8b 45 f8	 mov	 eax, DWORD PTR _mb$[ebp]
  001d5	8b 08		 mov	 ecx, DWORD PTR [eax]
  001d7	89 4d b0	 mov	 DWORD PTR tv169[ebp], ecx
  001da	eb 21		 jmp	 SHORT $LN19@response_t
$LN18@response_t:
  001dc	8b 15 00 00 00
	00		 mov	 edx, DWORD PTR ?__LINE__Var@?0??response_to_waypoint_troop_pickup_point_start_reached@@YGHW4ENTITY_MESSAGES@@PAUENTITY@@1PAD@Z@4JA
  001e2	83 c2 1c	 add	 edx, 28			; 0000001cH
  001e5	52		 push	 edx
  001e6	68 00 00 00 00	 push	 OFFSET ??_C@_0EE@DLIIEJCN@c?3?2users?2nhv90?2projects?2eech?2ap@
  001eb	a1 00 00 00 00	 mov	 eax, DWORD PTR ?null_entity_pointer_message@@3PBDB ; null_entity_pointer_message
  001f0	50		 push	 eax
  001f1	e8 00 00 00 00	 call	 ?process_assert@@YGXPBD0H@Z ; process_assert
  001f6	c7 45 b0 00 00
	00 00		 mov	 DWORD PTR tv169[ebp], 0
$LN19@response_t:
  001fd	b9 01 00 00 00	 mov	 ecx, 1
  00202	85 c9		 test	 ecx, ecx
  00204	74 09		 je	 SHORT $LN20@response_t
  00206	c7 45 ac 75 00
	00 00		 mov	 DWORD PTR tv177[ebp], 117 ; 00000075H
  0020d	eb 21		 jmp	 SHORT $LN21@response_t
$LN20@response_t:
  0020f	8b 15 00 00 00
	00		 mov	 edx, DWORD PTR ?__LINE__Var@?0??response_to_waypoint_troop_pickup_point_start_reached@@YGHW4ENTITY_MESSAGES@@PAUENTITY@@1PAD@Z@4JA
  00215	83 c2 1c	 add	 edx, 28			; 0000001cH
  00218	52		 push	 edx
  00219	68 00 00 00 00	 push	 OFFSET ??_C@_0EE@DLIIEJCN@c?3?2users?2nhv90?2projects?2eech?2ap@
  0021e	a1 00 00 00 00	 mov	 eax, DWORD PTR ?overload_invalid_float_type_message@@3PBDB ; overload_invalid_float_type_message
  00223	50		 push	 eax
  00224	e8 00 00 00 00	 call	 ?process_assert@@YGXPBD0H@Z ; process_assert
  00229	c7 45 ac 00 00
	00 00		 mov	 DWORD PTR tv177[ebp], 0
$LN21@response_t:
  00230	51		 push	 ecx
  00231	f3 0f 10 45 f4	 movss	 xmm0, DWORD PTR _sleep$[ebp]
  00236	f3 0f 11 04 24	 movss	 DWORD PTR [esp], xmm0
  0023b	6a 75		 push	 117			; 00000075H
  0023d	8b 4d f8	 mov	 ecx, DWORD PTR _mb$[ebp]
  00240	51		 push	 ecx
  00241	69 55 b0 78 05
	00 00		 imul	 edx, DWORD PTR tv169[ebp], 1400
  00248	8b 45 ac	 mov	 eax, DWORD PTR tv177[ebp]
  0024b	8d 8c c2 00 00
	00 00		 lea	 ecx, DWORD PTR ?fn_set_client_server_entity_float_value@@3PAY1KP@1P6GXPAUENTITY@@W4FLOAT_TYPES@@M@ZA[edx+eax*8]
  00252	8b 15 00 00 00
	00		 mov	 edx, DWORD PTR ?system_comms_model@@3W4COMMS_MODEL_TYPES@@A ; system_comms_model
  00258	8b 04 91	 mov	 eax, DWORD PTR [ecx+edx*4]
  0025b	ff d0		 call	 eax

; 2595 : 
; 2596 : 		mb = get_local_entity_child_succ (mb, LIST_TYPE_MEMBER);

  0025d	83 7d f8 00	 cmp	 DWORD PTR _mb$[ebp], 0
  00261	74 0a		 je	 SHORT $LN22@response_t
  00263	8b 45 f8	 mov	 eax, DWORD PTR _mb$[ebp]
  00266	8b 08		 mov	 ecx, DWORD PTR [eax]
  00268	89 4d b0	 mov	 DWORD PTR tv191[ebp], ecx
  0026b	eb 21		 jmp	 SHORT $LN23@response_t
$LN22@response_t:
  0026d	8b 15 00 00 00
	00		 mov	 edx, DWORD PTR ?__LINE__Var@?0??response_to_waypoint_troop_pickup_point_start_reached@@YGHW4ENTITY_MESSAGES@@PAUENTITY@@1PAD@Z@4JA
  00273	83 c2 1e	 add	 edx, 30			; 0000001eH
  00276	52		 push	 edx
  00277	68 00 00 00 00	 push	 OFFSET ??_C@_0EE@DLIIEJCN@c?3?2users?2nhv90?2projects?2eech?2ap@
  0027c	a1 00 00 00 00	 mov	 eax, DWORD PTR ?null_entity_pointer_message@@3PBDB ; null_entity_pointer_message
  00281	50		 push	 eax
  00282	e8 00 00 00 00	 call	 ?process_assert@@YGXPBD0H@Z ; process_assert
  00287	c7 45 b0 00 00
	00 00		 mov	 DWORD PTR tv191[ebp], 0
$LN23@response_t:
  0028e	b9 01 00 00 00	 mov	 ecx, 1
  00293	85 c9		 test	 ecx, ecx
  00295	74 09		 je	 SHORT $LN24@response_t
  00297	c7 45 ac 19 00
	00 00		 mov	 DWORD PTR tv199[ebp], 25 ; 00000019H
  0029e	eb 21		 jmp	 SHORT $LN25@response_t
$LN24@response_t:
  002a0	8b 15 00 00 00
	00		 mov	 edx, DWORD PTR ?__LINE__Var@?0??response_to_waypoint_troop_pickup_point_start_reached@@YGHW4ENTITY_MESSAGES@@PAUENTITY@@1PAD@Z@4JA
  002a6	83 c2 1e	 add	 edx, 30			; 0000001eH
  002a9	52		 push	 edx
  002aa	68 00 00 00 00	 push	 OFFSET ??_C@_0EE@DLIIEJCN@c?3?2users?2nhv90?2projects?2eech?2ap@
  002af	a1 00 00 00 00	 mov	 eax, DWORD PTR ?overload_invalid_list_type_message@@3PBDB ; overload_invalid_list_type_message
  002b4	50		 push	 eax
  002b5	e8 00 00 00 00	 call	 ?process_assert@@YGXPBD0H@Z ; process_assert
  002ba	c7 45 ac 00 00
	00 00		 mov	 DWORD PTR tv199[ebp], 0
$LN25@response_t:
  002c1	6a 19		 push	 25			; 00000019H
  002c3	8b 4d f8	 mov	 ecx, DWORD PTR _mb$[ebp]
  002c6	51		 push	 ecx
  002c7	69 55 b0 b4 00
	00 00		 imul	 edx, DWORD PTR tv191[ebp], 180
  002ce	8b 45 ac	 mov	 eax, DWORD PTR tv199[ebp]
  002d1	8b 8c 82 00 00
	00 00		 mov	 ecx, DWORD PTR ?fn_get_local_entity_child_succ@@3PAY0CN@P6GPAUENTITY@@PAU1@W4LIST_TYPES@@@ZA[edx+eax*4]
  002d8	ff d1		 call	 ecx
  002da	89 45 f8	 mov	 DWORD PTR _mb$[ebp], eax

; 2597 : 	}

  002dd	e9 ca fe ff ff	 jmp	 $LN2@response_t
$LN3@response_t:

; 2598 : 
; 2599 : 	return (TRUE);

  002e2	b8 01 00 00 00	 mov	 eax, 1

; 2600 : }

  002e7	5f		 pop	 edi
  002e8	5e		 pop	 esi
  002e9	5b		 pop	 ebx
  002ea	8b e5		 mov	 esp, ebp
  002ec	5d		 pop	 ebp
  002ed	c2 10 00	 ret	 16			; 00000010H
?response_to_waypoint_troop_pickup_point_start_reached@@YGHW4ENTITY_MESSAGES@@PAUENTITY@@1PAD@Z ENDP ; response_to_waypoint_troop_pickup_point_start_reached
_TEXT	ENDS
; Function compile flags: /Odtp /ZI
; File c:\users\nhv90\projects\eech\aphavoc\source\entity\mobile\mb_msgs.c
;	COMDAT ?response_to_waypoint_troop_pickup_point_end_reached@@YGHW4ENTITY_MESSAGES@@PAUENTITY@@1PAD@Z
_TEXT	SEGMENT
tv277 = -100						; size = 4
tv256 = -100						; size = 4
tv235 = -100						; size = 4
tv214 = -100						; size = 4
tv192 = -100						; size = 4
tv172 = -100						; size = 4
tv152 = -100						; size = 4
tv132 = -100						; size = 4
tv289 = -96						; size = 4
tv269 = -96						; size = 4
tv248 = -96						; size = 4
tv227 = -96						; size = 4
tv206 = -96						; size = 4
tv184 = -96						; size = 4
tv164 = -96						; size = 4
tv144 = -96						; size = 4
tv92 = -96						; size = 4
tv75 = -96						; size = 4
_extract_task$ = -28					; size = 4
_destroy_mb$ = -24					; size = 4
_group$ = -20						; size = 4
_guide$ = -16						; size = 4
_task$ = -12						; size = 4
_mb$ = -8						; size = 4
_count$ = -4						; size = 4
_message$ = 8						; size = 4
_receiver$ = 12						; size = 4
_sender$ = 16						; size = 4
_pargs$ = 20						; size = 4
?response_to_waypoint_troop_pickup_point_end_reached@@YGHW4ENTITY_MESSAGES@@PAUENTITY@@1PAD@Z PROC ; response_to_waypoint_troop_pickup_point_end_reached, COMDAT

; 2484 : {

  00000	55		 push	 ebp
  00001	8b ec		 mov	 ebp, esp
  00003	83 ec 64	 sub	 esp, 100		; 00000064H
  00006	53		 push	 ebx
  00007	56		 push	 esi
  00008	57		 push	 edi

; 2485 : 
; 2486 : 	int
; 2487 : 		count;
; 2488 : 
; 2489 : 	entity
; 2490 : 		*mb,
; 2491 : 		*task,
; 2492 : 		*guide,
; 2493 : 		*group,
; 2494 : 		*destroy_mb,
; 2495 : 		*extract_task;
; 2496 : 
; 2497 : 	ASSERT (sender);

  00009	83 7d 10 00	 cmp	 DWORD PTR _sender$[ebp], 0
  0000d	75 18		 jne	 SHORT $LN6@response_t
  0000f	a1 00 00 00 00	 mov	 eax, DWORD PTR ?__LINE__Var@?0??response_to_waypoint_troop_pickup_point_end_reached@@YGHW4ENTITY_MESSAGES@@PAUENTITY@@1PAD@Z@4JA
  00014	83 c0 0d	 add	 eax, 13			; 0000000dH
  00017	50		 push	 eax
  00018	68 00 00 00 00	 push	 OFFSET ??_C@_0EE@DLIIEJCN@c?3?2users?2nhv90?2projects?2eech?2ap@
  0001d	68 00 00 00 00	 push	 OFFSET ??_C@_06CGHJMPBJ@sender@
  00022	e8 00 00 00 00	 call	 ?process_assert@@YGXPBD0H@Z ; process_assert
$LN6@response_t:

; 2498 : 
; 2499 : 	ASSERT (get_local_entity_type (sender) == ENTITY_TYPE_WAYPOINT);

  00027	83 7d 10 00	 cmp	 DWORD PTR _sender$[ebp], 0
  0002b	74 0a		 je	 SHORT $LN11@response_t
  0002d	8b 45 10	 mov	 eax, DWORD PTR _sender$[ebp]
  00030	8b 08		 mov	 ecx, DWORD PTR [eax]
  00032	89 4d a0	 mov	 DWORD PTR tv75[ebp], ecx
  00035	eb 21		 jmp	 SHORT $LN12@response_t
$LN11@response_t:
  00037	8b 15 00 00 00
	00		 mov	 edx, DWORD PTR ?__LINE__Var@?0??response_to_waypoint_troop_pickup_point_end_reached@@YGHW4ENTITY_MESSAGES@@PAUENTITY@@1PAD@Z@4JA
  0003d	83 c2 0f	 add	 edx, 15			; 0000000fH
  00040	52		 push	 edx
  00041	68 00 00 00 00	 push	 OFFSET ??_C@_0EE@DLIIEJCN@c?3?2users?2nhv90?2projects?2eech?2ap@
  00046	a1 00 00 00 00	 mov	 eax, DWORD PTR ?null_entity_pointer_message@@3PBDB ; null_entity_pointer_message
  0004b	50		 push	 eax
  0004c	e8 00 00 00 00	 call	 ?process_assert@@YGXPBD0H@Z ; process_assert
  00051	c7 45 a0 00 00
	00 00		 mov	 DWORD PTR tv75[ebp], 0
$LN12@response_t:
  00058	83 7d a0 24	 cmp	 DWORD PTR tv75[ebp], 36	; 00000024H
  0005c	74 18		 je	 SHORT $LN7@response_t
  0005e	a1 00 00 00 00	 mov	 eax, DWORD PTR ?__LINE__Var@?0??response_to_waypoint_troop_pickup_point_end_reached@@YGHW4ENTITY_MESSAGES@@PAUENTITY@@1PAD@Z@4JA
  00063	83 c0 0f	 add	 eax, 15			; 0000000fH
  00066	50		 push	 eax
  00067	68 00 00 00 00	 push	 OFFSET ??_C@_0EE@DLIIEJCN@c?3?2users?2nhv90?2projects?2eech?2ap@
  0006c	68 00 00 00 00	 push	 OFFSET ??_C@_0DH@NBKEDIK@get_local_entity_type?5?$CIsender?$CJ?5@
  00071	e8 00 00 00 00	 call	 ?process_assert@@YGXPBD0H@Z ; process_assert
$LN7@response_t:

; 2500 : 
; 2501 : 	ASSERT (get_comms_model () == COMMS_MODEL_SERVER);

  00076	83 3d 00 00 00
	00 00		 cmp	 DWORD PTR ?system_comms_model@@3W4COMMS_MODEL_TYPES@@A, 0 ; system_comms_model
  0007d	74 18		 je	 SHORT $LN8@response_t
  0007f	a1 00 00 00 00	 mov	 eax, DWORD PTR ?__LINE__Var@?0??response_to_waypoint_troop_pickup_point_end_reached@@YGHW4ENTITY_MESSAGES@@PAUENTITY@@1PAD@Z@4JA
  00084	83 c0 11	 add	 eax, 17			; 00000011H
  00087	50		 push	 eax
  00088	68 00 00 00 00	 push	 OFFSET ??_C@_0EE@DLIIEJCN@c?3?2users?2nhv90?2projects?2eech?2ap@
  0008d	68 00 00 00 00	 push	 OFFSET ??_C@_0CJ@DMBLBJBK@get_comms_model?5?$CI?$CJ?5?$DN?$DN?5COMMS_MOD@
  00092	e8 00 00 00 00	 call	 ?process_assert@@YGXPBD0H@Z ; process_assert
$LN8@response_t:

; 2502 : 
; 2503 : 	//
; 2504 : 	// tell extraction mission its complete if this is the last Troop_pickup_movement task.
; 2505 : 	// i.e there may be more than one Troop_pickup_movement task attached to this flight group
; 2506 : 	//
; 2507 : 
; 2508 : 	group = get_local_entity_parent (receiver, LIST_TYPE_MEMBER);

  00097	83 7d 0c 00	 cmp	 DWORD PTR _receiver$[ebp], 0
  0009b	74 0a		 je	 SHORT $LN13@response_t
  0009d	8b 45 0c	 mov	 eax, DWORD PTR _receiver$[ebp]
  000a0	8b 08		 mov	 ecx, DWORD PTR [eax]
  000a2	89 4d a0	 mov	 DWORD PTR tv92[ebp], ecx
  000a5	eb 21		 jmp	 SHORT $LN14@response_t
$LN13@response_t:
  000a7	8b 15 00 00 00
	00		 mov	 edx, DWORD PTR ?__LINE__Var@?0??response_to_waypoint_troop_pickup_point_end_reached@@YGHW4ENTITY_MESSAGES@@PAUENTITY@@1PAD@Z@4JA
  000ad	83 c2 18	 add	 edx, 24			; 00000018H
  000b0	52		 push	 edx
  000b1	68 00 00 00 00	 push	 OFFSET ??_C@_0EE@DLIIEJCN@c?3?2users?2nhv90?2projects?2eech?2ap@
  000b6	a1 00 00 00 00	 mov	 eax, DWORD PTR ?null_entity_pointer_message@@3PBDB ; null_entity_pointer_message
  000bb	50		 push	 eax
  000bc	e8 00 00 00 00	 call	 ?process_assert@@YGXPBD0H@Z ; process_assert
  000c1	c7 45 a0 00 00
	00 00		 mov	 DWORD PTR tv92[ebp], 0
$LN14@response_t:
  000c8	b9 01 00 00 00	 mov	 ecx, 1
  000cd	85 c9		 test	 ecx, ecx
  000cf	74 09		 je	 SHORT $LN15@response_t
  000d1	c7 45 9c 19 00
	00 00		 mov	 DWORD PTR tv132[ebp], 25 ; 00000019H
  000d8	eb 21		 jmp	 SHORT $LN16@response_t
$LN15@response_t:
  000da	8b 15 00 00 00
	00		 mov	 edx, DWORD PTR ?__LINE__Var@?0??response_to_waypoint_troop_pickup_point_end_reached@@YGHW4ENTITY_MESSAGES@@PAUENTITY@@1PAD@Z@4JA
  000e0	83 c2 18	 add	 edx, 24			; 00000018H
  000e3	52		 push	 edx
  000e4	68 00 00 00 00	 push	 OFFSET ??_C@_0EE@DLIIEJCN@c?3?2users?2nhv90?2projects?2eech?2ap@
  000e9	a1 00 00 00 00	 mov	 eax, DWORD PTR ?overload_invalid_list_type_message@@3PBDB ; overload_invalid_list_type_message
  000ee	50		 push	 eax
  000ef	e8 00 00 00 00	 call	 ?process_assert@@YGXPBD0H@Z ; process_assert
  000f4	c7 45 9c 00 00
	00 00		 mov	 DWORD PTR tv132[ebp], 0
$LN16@response_t:
  000fb	6a 19		 push	 25			; 00000019H
  000fd	8b 4d 0c	 mov	 ecx, DWORD PTR _receiver$[ebp]
  00100	51		 push	 ecx
  00101	69 55 a0 b4 00
	00 00		 imul	 edx, DWORD PTR tv92[ebp], 180
  00108	8b 45 9c	 mov	 eax, DWORD PTR tv132[ebp]
  0010b	8b 8c 82 00 00
	00 00		 mov	 ecx, DWORD PTR ?fn_get_local_entity_parent@@3PAY0CN@P6GPAUENTITY@@PAU1@W4LIST_TYPES@@@ZA[edx+eax*4]
  00112	ff d1		 call	 ecx
  00114	89 45 ec	 mov	 DWORD PTR _group$[ebp], eax

; 2509 : 
; 2510 : 	task = get_local_entity_parent (sender, LIST_TYPE_WAYPOINT);

  00117	83 7d 10 00	 cmp	 DWORD PTR _sender$[ebp], 0
  0011b	74 0a		 je	 SHORT $LN17@response_t
  0011d	8b 45 10	 mov	 eax, DWORD PTR _sender$[ebp]
  00120	8b 08		 mov	 ecx, DWORD PTR [eax]
  00122	89 4d a0	 mov	 DWORD PTR tv144[ebp], ecx
  00125	eb 21		 jmp	 SHORT $LN18@response_t
$LN17@response_t:
  00127	8b 15 00 00 00
	00		 mov	 edx, DWORD PTR ?__LINE__Var@?0??response_to_waypoint_troop_pickup_point_end_reached@@YGHW4ENTITY_MESSAGES@@PAUENTITY@@1PAD@Z@4JA
  0012d	83 c2 1a	 add	 edx, 26			; 0000001aH
  00130	52		 push	 edx
  00131	68 00 00 00 00	 push	 OFFSET ??_C@_0EE@DLIIEJCN@c?3?2users?2nhv90?2projects?2eech?2ap@
  00136	a1 00 00 00 00	 mov	 eax, DWORD PTR ?null_entity_pointer_message@@3PBDB ; null_entity_pointer_message
  0013b	50		 push	 eax
  0013c	e8 00 00 00 00	 call	 ?process_assert@@YGXPBD0H@Z ; process_assert
  00141	c7 45 a0 00 00
	00 00		 mov	 DWORD PTR tv144[ebp], 0
$LN18@response_t:
  00148	b9 01 00 00 00	 mov	 ecx, 1
  0014d	85 c9		 test	 ecx, ecx
  0014f	74 09		 je	 SHORT $LN19@response_t
  00151	c7 45 9c 2c 00
	00 00		 mov	 DWORD PTR tv152[ebp], 44 ; 0000002cH
  00158	eb 21		 jmp	 SHORT $LN20@response_t
$LN19@response_t:
  0015a	8b 15 00 00 00
	00		 mov	 edx, DWORD PTR ?__LINE__Var@?0??response_to_waypoint_troop_pickup_point_end_reached@@YGHW4ENTITY_MESSAGES@@PAUENTITY@@1PAD@Z@4JA
  00160	83 c2 1a	 add	 edx, 26			; 0000001aH
  00163	52		 push	 edx
  00164	68 00 00 00 00	 push	 OFFSET ??_C@_0EE@DLIIEJCN@c?3?2users?2nhv90?2projects?2eech?2ap@
  00169	a1 00 00 00 00	 mov	 eax, DWORD PTR ?overload_invalid_list_type_message@@3PBDB ; overload_invalid_list_type_message
  0016e	50		 push	 eax
  0016f	e8 00 00 00 00	 call	 ?process_assert@@YGXPBD0H@Z ; process_assert
  00174	c7 45 9c 00 00
	00 00		 mov	 DWORD PTR tv152[ebp], 0
$LN20@response_t:
  0017b	6a 2c		 push	 44			; 0000002cH
  0017d	8b 4d 10	 mov	 ecx, DWORD PTR _sender$[ebp]
  00180	51		 push	 ecx
  00181	69 55 a0 b4 00
	00 00		 imul	 edx, DWORD PTR tv144[ebp], 180
  00188	8b 45 9c	 mov	 eax, DWORD PTR tv152[ebp]
  0018b	8b 8c 82 00 00
	00 00		 mov	 ecx, DWORD PTR ?fn_get_local_entity_parent@@3PAY0CN@P6GPAUENTITY@@PAU1@W4LIST_TYPES@@@ZA[edx+eax*4]
  00192	ff d1		 call	 ecx
  00194	89 45 f4	 mov	 DWORD PTR _task$[ebp], eax

; 2511 : 
; 2512 : 	extract_task = get_local_entity_parent (task, LIST_TYPE_TASK_DEPENDENT);

  00197	83 7d f4 00	 cmp	 DWORD PTR _task$[ebp], 0
  0019b	74 0a		 je	 SHORT $LN21@response_t
  0019d	8b 45 f4	 mov	 eax, DWORD PTR _task$[ebp]
  001a0	8b 08		 mov	 ecx, DWORD PTR [eax]
  001a2	89 4d a0	 mov	 DWORD PTR tv164[ebp], ecx
  001a5	eb 21		 jmp	 SHORT $LN22@response_t
$LN21@response_t:
  001a7	8b 15 00 00 00
	00		 mov	 edx, DWORD PTR ?__LINE__Var@?0??response_to_waypoint_troop_pickup_point_end_reached@@YGHW4ENTITY_MESSAGES@@PAUENTITY@@1PAD@Z@4JA
  001ad	83 c2 1c	 add	 edx, 28			; 0000001cH
  001b0	52		 push	 edx
  001b1	68 00 00 00 00	 push	 OFFSET ??_C@_0EE@DLIIEJCN@c?3?2users?2nhv90?2projects?2eech?2ap@
  001b6	a1 00 00 00 00	 mov	 eax, DWORD PTR ?null_entity_pointer_message@@3PBDB ; null_entity_pointer_message
  001bb	50		 push	 eax
  001bc	e8 00 00 00 00	 call	 ?process_assert@@YGXPBD0H@Z ; process_assert
  001c1	c7 45 a0 00 00
	00 00		 mov	 DWORD PTR tv164[ebp], 0
$LN22@response_t:
  001c8	b9 01 00 00 00	 mov	 ecx, 1
  001cd	85 c9		 test	 ecx, ecx
  001cf	74 09		 je	 SHORT $LN23@response_t
  001d1	c7 45 9c 27 00
	00 00		 mov	 DWORD PTR tv172[ebp], 39 ; 00000027H
  001d8	eb 21		 jmp	 SHORT $LN24@response_t
$LN23@response_t:
  001da	8b 15 00 00 00
	00		 mov	 edx, DWORD PTR ?__LINE__Var@?0??response_to_waypoint_troop_pickup_point_end_reached@@YGHW4ENTITY_MESSAGES@@PAUENTITY@@1PAD@Z@4JA
  001e0	83 c2 1c	 add	 edx, 28			; 0000001cH
  001e3	52		 push	 edx
  001e4	68 00 00 00 00	 push	 OFFSET ??_C@_0EE@DLIIEJCN@c?3?2users?2nhv90?2projects?2eech?2ap@
  001e9	a1 00 00 00 00	 mov	 eax, DWORD PTR ?overload_invalid_list_type_message@@3PBDB ; overload_invalid_list_type_message
  001ee	50		 push	 eax
  001ef	e8 00 00 00 00	 call	 ?process_assert@@YGXPBD0H@Z ; process_assert
  001f4	c7 45 9c 00 00
	00 00		 mov	 DWORD PTR tv172[ebp], 0
$LN24@response_t:
  001fb	6a 27		 push	 39			; 00000027H
  001fd	8b 4d f4	 mov	 ecx, DWORD PTR _task$[ebp]
  00200	51		 push	 ecx
  00201	69 55 a0 b4 00
	00 00		 imul	 edx, DWORD PTR tv164[ebp], 180
  00208	8b 45 9c	 mov	 eax, DWORD PTR tv172[ebp]
  0020b	8b 8c 82 00 00
	00 00		 mov	 ecx, DWORD PTR ?fn_get_local_entity_parent@@3PAY0CN@P6GPAUENTITY@@PAU1@W4LIST_TYPES@@@ZA[edx+eax*4]
  00212	ff d1		 call	 ecx
  00214	89 45 e4	 mov	 DWORD PTR _extract_task$[ebp], eax

; 2513 : 
; 2514 : 	task = get_local_entity_first_child (extract_task, LIST_TYPE_TASK_DEPENDENT);

  00217	83 7d e4 00	 cmp	 DWORD PTR _extract_task$[ebp], 0
  0021b	74 0a		 je	 SHORT $LN25@response_t
  0021d	8b 45 e4	 mov	 eax, DWORD PTR _extract_task$[ebp]
  00220	8b 08		 mov	 ecx, DWORD PTR [eax]
  00222	89 4d a0	 mov	 DWORD PTR tv184[ebp], ecx
  00225	eb 21		 jmp	 SHORT $LN26@response_t
$LN25@response_t:
  00227	8b 15 00 00 00
	00		 mov	 edx, DWORD PTR ?__LINE__Var@?0??response_to_waypoint_troop_pickup_point_end_reached@@YGHW4ENTITY_MESSAGES@@PAUENTITY@@1PAD@Z@4JA
  0022d	83 c2 1e	 add	 edx, 30			; 0000001eH
  00230	52		 push	 edx
  00231	68 00 00 00 00	 push	 OFFSET ??_C@_0EE@DLIIEJCN@c?3?2users?2nhv90?2projects?2eech?2ap@
  00236	a1 00 00 00 00	 mov	 eax, DWORD PTR ?null_entity_pointer_message@@3PBDB ; null_entity_pointer_message
  0023b	50		 push	 eax
  0023c	e8 00 00 00 00	 call	 ?process_assert@@YGXPBD0H@Z ; process_assert
  00241	c7 45 a0 00 00
	00 00		 mov	 DWORD PTR tv184[ebp], 0
$LN26@response_t:
  00248	b9 01 00 00 00	 mov	 ecx, 1
  0024d	85 c9		 test	 ecx, ecx
  0024f	74 09		 je	 SHORT $LN27@response_t
  00251	c7 45 9c 27 00
	00 00		 mov	 DWORD PTR tv192[ebp], 39 ; 00000027H
  00258	eb 21		 jmp	 SHORT $LN28@response_t
$LN27@response_t:
  0025a	8b 15 00 00 00
	00		 mov	 edx, DWORD PTR ?__LINE__Var@?0??response_to_waypoint_troop_pickup_point_end_reached@@YGHW4ENTITY_MESSAGES@@PAUENTITY@@1PAD@Z@4JA
  00260	83 c2 1e	 add	 edx, 30			; 0000001eH
  00263	52		 push	 edx
  00264	68 00 00 00 00	 push	 OFFSET ??_C@_0EE@DLIIEJCN@c?3?2users?2nhv90?2projects?2eech?2ap@
  00269	a1 00 00 00 00	 mov	 eax, DWORD PTR ?overload_invalid_list_type_message@@3PBDB ; overload_invalid_list_type_message
  0026e	50		 push	 eax
  0026f	e8 00 00 00 00	 call	 ?process_assert@@YGXPBD0H@Z ; process_assert
  00274	c7 45 9c 00 00
	00 00		 mov	 DWORD PTR tv192[ebp], 0
$LN28@response_t:
  0027b	6a 27		 push	 39			; 00000027H
  0027d	8b 4d e4	 mov	 ecx, DWORD PTR _extract_task$[ebp]
  00280	51		 push	 ecx
  00281	69 55 a0 b4 00
	00 00		 imul	 edx, DWORD PTR tv184[ebp], 180
  00288	8b 45 9c	 mov	 eax, DWORD PTR tv192[ebp]
  0028b	8b 8c 82 00 00
	00 00		 mov	 ecx, DWORD PTR ?fn_get_local_entity_first_child@@3PAY0CN@P6GPAUENTITY@@PAU1@W4LIST_TYPES@@@ZA[edx+eax*4]
  00292	ff d1		 call	 ecx
  00294	89 45 f4	 mov	 DWORD PTR _task$[ebp], eax

; 2515 : 
; 2516 : 	count = 0;

  00297	c7 45 fc 00 00
	00 00		 mov	 DWORD PTR _count$[ebp], 0
$LN2@response_t:

; 2517 : 
; 2518 : 	while (task)

  0029e	83 7d f4 00	 cmp	 DWORD PTR _task$[ebp], 0
  002a2	0f 84 8e 00 00
	00		 je	 $LN3@response_t

; 2519 : 	{
; 2520 : 
; 2521 : 		count ++;

  002a8	8b 45 fc	 mov	 eax, DWORD PTR _count$[ebp]
  002ab	83 c0 01	 add	 eax, 1
  002ae	89 45 fc	 mov	 DWORD PTR _count$[ebp], eax

; 2522 : 
; 2523 : 		task = get_local_entity_child_succ (task, LIST_TYPE_TASK_DEPENDENT);

  002b1	83 7d f4 00	 cmp	 DWORD PTR _task$[ebp], 0
  002b5	74 0a		 je	 SHORT $LN29@response_t
  002b7	8b 45 f4	 mov	 eax, DWORD PTR _task$[ebp]
  002ba	8b 08		 mov	 ecx, DWORD PTR [eax]
  002bc	89 4d a0	 mov	 DWORD PTR tv206[ebp], ecx
  002bf	eb 21		 jmp	 SHORT $LN30@response_t
$LN29@response_t:
  002c1	8b 15 00 00 00
	00		 mov	 edx, DWORD PTR ?__LINE__Var@?0??response_to_waypoint_troop_pickup_point_end_reached@@YGHW4ENTITY_MESSAGES@@PAUENTITY@@1PAD@Z@4JA
  002c7	83 c2 27	 add	 edx, 39			; 00000027H
  002ca	52		 push	 edx
  002cb	68 00 00 00 00	 push	 OFFSET ??_C@_0EE@DLIIEJCN@c?3?2users?2nhv90?2projects?2eech?2ap@
  002d0	a1 00 00 00 00	 mov	 eax, DWORD PTR ?null_entity_pointer_message@@3PBDB ; null_entity_pointer_message
  002d5	50		 push	 eax
  002d6	e8 00 00 00 00	 call	 ?process_assert@@YGXPBD0H@Z ; process_assert
  002db	c7 45 a0 00 00
	00 00		 mov	 DWORD PTR tv206[ebp], 0
$LN30@response_t:
  002e2	b9 01 00 00 00	 mov	 ecx, 1
  002e7	85 c9		 test	 ecx, ecx
  002e9	74 09		 je	 SHORT $LN31@response_t
  002eb	c7 45 9c 27 00
	00 00		 mov	 DWORD PTR tv214[ebp], 39 ; 00000027H
  002f2	eb 21		 jmp	 SHORT $LN32@response_t
$LN31@response_t:
  002f4	8b 15 00 00 00
	00		 mov	 edx, DWORD PTR ?__LINE__Var@?0??response_to_waypoint_troop_pickup_point_end_reached@@YGHW4ENTITY_MESSAGES@@PAUENTITY@@1PAD@Z@4JA
  002fa	83 c2 27	 add	 edx, 39			; 00000027H
  002fd	52		 push	 edx
  002fe	68 00 00 00 00	 push	 OFFSET ??_C@_0EE@DLIIEJCN@c?3?2users?2nhv90?2projects?2eech?2ap@
  00303	a1 00 00 00 00	 mov	 eax, DWORD PTR ?overload_invalid_list_type_message@@3PBDB ; overload_invalid_list_type_message
  00308	50		 push	 eax
  00309	e8 00 00 00 00	 call	 ?process_assert@@YGXPBD0H@Z ; process_assert
  0030e	c7 45 9c 00 00
	00 00		 mov	 DWORD PTR tv214[ebp], 0
$LN32@response_t:
  00315	6a 27		 push	 39			; 00000027H
  00317	8b 4d f4	 mov	 ecx, DWORD PTR _task$[ebp]
  0031a	51		 push	 ecx
  0031b	69 55 a0 b4 00
	00 00		 imul	 edx, DWORD PTR tv206[ebp], 180
  00322	8b 45 9c	 mov	 eax, DWORD PTR tv214[ebp]
  00325	8b 8c 82 00 00
	00 00		 mov	 ecx, DWORD PTR ?fn_get_local_entity_child_succ@@3PAY0CN@P6GPAUENTITY@@PAU1@W4LIST_TYPES@@@ZA[edx+eax*4]
  0032c	ff d1		 call	 ecx
  0032e	89 45 f4	 mov	 DWORD PTR _task$[ebp], eax

; 2524 : 	}

  00331	e9 68 ff ff ff	 jmp	 $LN2@response_t
$LN3@response_t:

; 2525 : 
; 2526 : 	if (count <= 1)

  00336	83 7d fc 01	 cmp	 DWORD PTR _count$[ebp], 1
  0033a	0f 8f 89 00 00
	00		 jg	 $LN9@response_t

; 2527 : 	{
; 2528 : 
; 2529 : 		guide = get_local_entity_first_child (extract_task, LIST_TYPE_GUIDE);

  00340	83 7d e4 00	 cmp	 DWORD PTR _extract_task$[ebp], 0
  00344	74 0a		 je	 SHORT $LN33@response_t
  00346	8b 45 e4	 mov	 eax, DWORD PTR _extract_task$[ebp]
  00349	8b 08		 mov	 ecx, DWORD PTR [eax]
  0034b	89 4d a0	 mov	 DWORD PTR tv227[ebp], ecx
  0034e	eb 21		 jmp	 SHORT $LN34@response_t
$LN33@response_t:
  00350	8b 15 00 00 00
	00		 mov	 edx, DWORD PTR ?__LINE__Var@?0??response_to_waypoint_troop_pickup_point_end_reached@@YGHW4ENTITY_MESSAGES@@PAUENTITY@@1PAD@Z@4JA
  00356	83 c2 2d	 add	 edx, 45			; 0000002dH
  00359	52		 push	 edx
  0035a	68 00 00 00 00	 push	 OFFSET ??_C@_0EE@DLIIEJCN@c?3?2users?2nhv90?2projects?2eech?2ap@
  0035f	a1 00 00 00 00	 mov	 eax, DWORD PTR ?null_entity_pointer_message@@3PBDB ; null_entity_pointer_message
  00364	50		 push	 eax
  00365	e8 00 00 00 00	 call	 ?process_assert@@YGXPBD0H@Z ; process_assert
  0036a	c7 45 a0 00 00
	00 00		 mov	 DWORD PTR tv227[ebp], 0
$LN34@response_t:
  00371	b9 01 00 00 00	 mov	 ecx, 1
  00376	85 c9		 test	 ecx, ecx
  00378	74 09		 je	 SHORT $LN35@response_t
  0037a	c7 45 9c 10 00
	00 00		 mov	 DWORD PTR tv235[ebp], 16 ; 00000010H
  00381	eb 21		 jmp	 SHORT $LN36@response_t
$LN35@response_t:
  00383	8b 15 00 00 00
	00		 mov	 edx, DWORD PTR ?__LINE__Var@?0??response_to_waypoint_troop_pickup_point_end_reached@@YGHW4ENTITY_MESSAGES@@PAUENTITY@@1PAD@Z@4JA
  00389	83 c2 2d	 add	 edx, 45			; 0000002dH
  0038c	52		 push	 edx
  0038d	68 00 00 00 00	 push	 OFFSET ??_C@_0EE@DLIIEJCN@c?3?2users?2nhv90?2projects?2eech?2ap@
  00392	a1 00 00 00 00	 mov	 eax, DWORD PTR ?overload_invalid_list_type_message@@3PBDB ; overload_invalid_list_type_message
  00397	50		 push	 eax
  00398	e8 00 00 00 00	 call	 ?process_assert@@YGXPBD0H@Z ; process_assert
  0039d	c7 45 9c 00 00
	00 00		 mov	 DWORD PTR tv235[ebp], 0
$LN36@response_t:
  003a4	6a 10		 push	 16			; 00000010H
  003a6	8b 4d e4	 mov	 ecx, DWORD PTR _extract_task$[ebp]
  003a9	51		 push	 ecx
  003aa	69 55 a0 b4 00
	00 00		 imul	 edx, DWORD PTR tv227[ebp], 180
  003b1	8b 45 9c	 mov	 eax, DWORD PTR tv235[ebp]
  003b4	8b 8c 82 00 00
	00 00		 mov	 ecx, DWORD PTR ?fn_get_local_entity_first_child@@3PAY0CN@P6GPAUENTITY@@PAU1@W4LIST_TYPES@@@ZA[edx+eax*4]
  003bb	ff d1		 call	 ecx
  003bd	89 45 f0	 mov	 DWORD PTR _guide$[ebp], eax

; 2530 : 
; 2531 : 		set_guide_next_waypoint (guide);

  003c0	8b 45 f0	 mov	 eax, DWORD PTR _guide$[ebp]
  003c3	50		 push	 eax
  003c4	e8 00 00 00 00	 call	 ?set_guide_next_waypoint@@YGHPAUENTITY@@@Z ; set_guide_next_waypoint
$LN9@response_t:

; 2532 : 
; 2533 : 		//notify_local_entity (ENTITY_MESSAGE_TASK_COMPLETED, extract_task, group, TASK_TERMINATED_OBJECTIVE_MESSAGE);
; 2534 : 	}
; 2535 : 
; 2536 : 	//
; 2537 : 	// now destroy troops
; 2538 : 	//
; 2539 : 
; 2540 : 	#if DEBUG_MODULE
; 2541 : 
; 2542 : 	debug_log ("MB_MSGS: Troop pickup point reached destroying troops");
; 2543 : 
; 2544 : 	#endif
; 2545 : 
; 2546 : 	mb = get_local_entity_first_child (group, LIST_TYPE_MEMBER);

  003c9	83 7d ec 00	 cmp	 DWORD PTR _group$[ebp], 0
  003cd	74 0a		 je	 SHORT $LN37@response_t
  003cf	8b 45 ec	 mov	 eax, DWORD PTR _group$[ebp]
  003d2	8b 08		 mov	 ecx, DWORD PTR [eax]
  003d4	89 4d a0	 mov	 DWORD PTR tv248[ebp], ecx
  003d7	eb 21		 jmp	 SHORT $LN38@response_t
$LN37@response_t:
  003d9	8b 15 00 00 00
	00		 mov	 edx, DWORD PTR ?__LINE__Var@?0??response_to_waypoint_troop_pickup_point_end_reached@@YGHW4ENTITY_MESSAGES@@PAUENTITY@@1PAD@Z@4JA
  003df	83 c2 3e	 add	 edx, 62			; 0000003eH
  003e2	52		 push	 edx
  003e3	68 00 00 00 00	 push	 OFFSET ??_C@_0EE@DLIIEJCN@c?3?2users?2nhv90?2projects?2eech?2ap@
  003e8	a1 00 00 00 00	 mov	 eax, DWORD PTR ?null_entity_pointer_message@@3PBDB ; null_entity_pointer_message
  003ed	50		 push	 eax
  003ee	e8 00 00 00 00	 call	 ?process_assert@@YGXPBD0H@Z ; process_assert
  003f3	c7 45 a0 00 00
	00 00		 mov	 DWORD PTR tv248[ebp], 0
$LN38@response_t:
  003fa	b9 01 00 00 00	 mov	 ecx, 1
  003ff	85 c9		 test	 ecx, ecx
  00401	74 09		 je	 SHORT $LN39@response_t
  00403	c7 45 9c 19 00
	00 00		 mov	 DWORD PTR tv256[ebp], 25 ; 00000019H
  0040a	eb 21		 jmp	 SHORT $LN40@response_t
$LN39@response_t:
  0040c	8b 15 00 00 00
	00		 mov	 edx, DWORD PTR ?__LINE__Var@?0??response_to_waypoint_troop_pickup_point_end_reached@@YGHW4ENTITY_MESSAGES@@PAUENTITY@@1PAD@Z@4JA
  00412	83 c2 3e	 add	 edx, 62			; 0000003eH
  00415	52		 push	 edx
  00416	68 00 00 00 00	 push	 OFFSET ??_C@_0EE@DLIIEJCN@c?3?2users?2nhv90?2projects?2eech?2ap@
  0041b	a1 00 00 00 00	 mov	 eax, DWORD PTR ?overload_invalid_list_type_message@@3PBDB ; overload_invalid_list_type_message
  00420	50		 push	 eax
  00421	e8 00 00 00 00	 call	 ?process_assert@@YGXPBD0H@Z ; process_assert
  00426	c7 45 9c 00 00
	00 00		 mov	 DWORD PTR tv256[ebp], 0
$LN40@response_t:
  0042d	6a 19		 push	 25			; 00000019H
  0042f	8b 4d ec	 mov	 ecx, DWORD PTR _group$[ebp]
  00432	51		 push	 ecx
  00433	69 55 a0 b4 00
	00 00		 imul	 edx, DWORD PTR tv248[ebp], 180
  0043a	8b 45 9c	 mov	 eax, DWORD PTR tv256[ebp]
  0043d	8b 8c 82 00 00
	00 00		 mov	 ecx, DWORD PTR ?fn_get_local_entity_first_child@@3PAY0CN@P6GPAUENTITY@@PAU1@W4LIST_TYPES@@@ZA[edx+eax*4]
  00444	ff d1		 call	 ecx
  00446	89 45 f8	 mov	 DWORD PTR _mb$[ebp], eax
$LN4@response_t:

; 2547 : 
; 2548 : 	while (mb)

  00449	83 7d f8 00	 cmp	 DWORD PTR _mb$[ebp], 0
  0044d	0f 84 d5 00 00
	00		 je	 $LN5@response_t

; 2549 : 	{
; 2550 : 
; 2551 : 		destroy_mb = mb;

  00453	8b 45 f8	 mov	 eax, DWORD PTR _mb$[ebp]
  00456	89 45 e8	 mov	 DWORD PTR _destroy_mb$[ebp], eax

; 2552 : 
; 2553 : 		mb = get_local_entity_child_succ (mb, LIST_TYPE_MEMBER);

  00459	83 7d f8 00	 cmp	 DWORD PTR _mb$[ebp], 0
  0045d	74 0a		 je	 SHORT $LN41@response_t
  0045f	8b 45 f8	 mov	 eax, DWORD PTR _mb$[ebp]
  00462	8b 08		 mov	 ecx, DWORD PTR [eax]
  00464	89 4d a0	 mov	 DWORD PTR tv269[ebp], ecx
  00467	eb 21		 jmp	 SHORT $LN42@response_t
$LN41@response_t:
  00469	8b 15 00 00 00
	00		 mov	 edx, DWORD PTR ?__LINE__Var@?0??response_to_waypoint_troop_pickup_point_end_reached@@YGHW4ENTITY_MESSAGES@@PAUENTITY@@1PAD@Z@4JA
  0046f	83 c2 45	 add	 edx, 69			; 00000045H
  00472	52		 push	 edx
  00473	68 00 00 00 00	 push	 OFFSET ??_C@_0EE@DLIIEJCN@c?3?2users?2nhv90?2projects?2eech?2ap@
  00478	a1 00 00 00 00	 mov	 eax, DWORD PTR ?null_entity_pointer_message@@3PBDB ; null_entity_pointer_message
  0047d	50		 push	 eax
  0047e	e8 00 00 00 00	 call	 ?process_assert@@YGXPBD0H@Z ; process_assert
  00483	c7 45 a0 00 00
	00 00		 mov	 DWORD PTR tv269[ebp], 0
$LN42@response_t:
  0048a	b9 01 00 00 00	 mov	 ecx, 1
  0048f	85 c9		 test	 ecx, ecx
  00491	74 09		 je	 SHORT $LN43@response_t
  00493	c7 45 9c 19 00
	00 00		 mov	 DWORD PTR tv277[ebp], 25 ; 00000019H
  0049a	eb 21		 jmp	 SHORT $LN44@response_t
$LN43@response_t:
  0049c	8b 15 00 00 00
	00		 mov	 edx, DWORD PTR ?__LINE__Var@?0??response_to_waypoint_troop_pickup_point_end_reached@@YGHW4ENTITY_MESSAGES@@PAUENTITY@@1PAD@Z@4JA
  004a2	83 c2 45	 add	 edx, 69			; 00000045H
  004a5	52		 push	 edx
  004a6	68 00 00 00 00	 push	 OFFSET ??_C@_0EE@DLIIEJCN@c?3?2users?2nhv90?2projects?2eech?2ap@
  004ab	a1 00 00 00 00	 mov	 eax, DWORD PTR ?overload_invalid_list_type_message@@3PBDB ; overload_invalid_list_type_message
  004b0	50		 push	 eax
  004b1	e8 00 00 00 00	 call	 ?process_assert@@YGXPBD0H@Z ; process_assert
  004b6	c7 45 9c 00 00
	00 00		 mov	 DWORD PTR tv277[ebp], 0
$LN44@response_t:
  004bd	6a 19		 push	 25			; 00000019H
  004bf	8b 4d f8	 mov	 ecx, DWORD PTR _mb$[ebp]
  004c2	51		 push	 ecx
  004c3	69 55 a0 b4 00
	00 00		 imul	 edx, DWORD PTR tv269[ebp], 180
  004ca	8b 45 9c	 mov	 eax, DWORD PTR tv277[ebp]
  004cd	8b 8c 82 00 00
	00 00		 mov	 ecx, DWORD PTR ?fn_get_local_entity_child_succ@@3PAY0CN@P6GPAUENTITY@@PAU1@W4LIST_TYPES@@@ZA[edx+eax*4]
  004d4	ff d1		 call	 ecx
  004d6	89 45 f8	 mov	 DWORD PTR _mb$[ebp], eax

; 2554 : 
; 2555 : 		destroy_client_server_entity (destroy_mb);

  004d9	83 7d e8 00	 cmp	 DWORD PTR _destroy_mb$[ebp], 0
  004dd	74 0a		 je	 SHORT $LN45@response_t
  004df	8b 45 e8	 mov	 eax, DWORD PTR _destroy_mb$[ebp]
  004e2	8b 08		 mov	 ecx, DWORD PTR [eax]
  004e4	89 4d a0	 mov	 DWORD PTR tv289[ebp], ecx
  004e7	eb 21		 jmp	 SHORT $LN46@response_t
$LN45@response_t:
  004e9	8b 15 00 00 00
	00		 mov	 edx, DWORD PTR ?__LINE__Var@?0??response_to_waypoint_troop_pickup_point_end_reached@@YGHW4ENTITY_MESSAGES@@PAUENTITY@@1PAD@Z@4JA
  004ef	83 c2 47	 add	 edx, 71			; 00000047H
  004f2	52		 push	 edx
  004f3	68 00 00 00 00	 push	 OFFSET ??_C@_0EE@DLIIEJCN@c?3?2users?2nhv90?2projects?2eech?2ap@
  004f8	a1 00 00 00 00	 mov	 eax, DWORD PTR ?null_entity_pointer_message@@3PBDB ; null_entity_pointer_message
  004fd	50		 push	 eax
  004fe	e8 00 00 00 00	 call	 ?process_assert@@YGXPBD0H@Z ; process_assert
  00503	c7 45 a0 00 00
	00 00		 mov	 DWORD PTR tv289[ebp], 0
$LN46@response_t:
  0050a	8b 4d e8	 mov	 ecx, DWORD PTR _destroy_mb$[ebp]
  0050d	51		 push	 ecx
  0050e	8b 15 00 00 00
	00		 mov	 edx, DWORD PTR ?system_comms_model@@3W4COMMS_MODEL_TYPES@@A ; system_comms_model
  00514	c1 e2 02	 shl	 edx, 2
  00517	8b 45 a0	 mov	 eax, DWORD PTR tv289[ebp]
  0051a	8b 8c c2 00 00
	00 00		 mov	 ecx, DWORD PTR ?fn_destroy_client_server_entity@@3PAY01P6GXPAUENTITY@@@ZA[edx+eax*8]
  00521	ff d1		 call	 ecx

; 2556 : 	}

  00523	e9 21 ff ff ff	 jmp	 $LN4@response_t
$LN5@response_t:

; 2557 : 
; 2558 : 	return (TRUE);

  00528	b8 01 00 00 00	 mov	 eax, 1

; 2559 : }

  0052d	5f		 pop	 edi
  0052e	5e		 pop	 esi
  0052f	5b		 pop	 ebx
  00530	8b e5		 mov	 esp, ebp
  00532	5d		 pop	 ebp
  00533	c2 10 00	 ret	 16			; 00000010H
?response_to_waypoint_troop_pickup_point_end_reached@@YGHW4ENTITY_MESSAGES@@PAUENTITY@@1PAD@Z ENDP ; response_to_waypoint_troop_pickup_point_end_reached
_TEXT	ENDS
; Function compile flags: /Odtp /ZI
; File c:\users\nhv90\projects\eech\aphavoc\source\entity\mobile\mb_msgs.c
;	COMDAT ?response_to_waypoint_troop_putdown_point_reached@@YGHW4ENTITY_MESSAGES@@PAUENTITY@@1PAD@Z
_TEXT	SEGMENT
tv222 = -92						; size = 4
tv201 = -92						; size = 4
tv172 = -92						; size = 4
tv152 = -92						; size = 4
tv132 = -92						; size = 4
tv214 = -88						; size = 4
tv193 = -88						; size = 4
tv164 = -88						; size = 4
tv144 = -88						; size = 4
tv92 = -88						; size = 4
tv75 = -88						; size = 4
_leader$1 = -20						; size = 4
_guide$2 = -16						; size = 4
_insert_task$ = -12					; size = 4
_task$ = -8						; size = 4
_group$ = -4						; size = 4
_message$ = 8						; size = 4
_receiver$ = 12						; size = 4
_sender$ = 16						; size = 4
_pargs$ = 20						; size = 4
?response_to_waypoint_troop_putdown_point_reached@@YGHW4ENTITY_MESSAGES@@PAUENTITY@@1PAD@Z PROC ; response_to_waypoint_troop_putdown_point_reached, COMDAT

; 2425 : {

  00000	55		 push	 ebp
  00001	8b ec		 mov	 ebp, esp
  00003	83 ec 5c	 sub	 esp, 92			; 0000005cH
  00006	53		 push	 ebx
  00007	56		 push	 esi
  00008	57		 push	 edi

; 2426 : 	entity
; 2427 : 		*group,
; 2428 : 		*task,
; 2429 : 		*insert_task;
; 2430 : 
; 2431 : 	ASSERT (sender);

  00009	83 7d 10 00	 cmp	 DWORD PTR _sender$[ebp], 0
  0000d	75 18		 jne	 SHORT $LN2@response_t
  0000f	a1 00 00 00 00	 mov	 eax, DWORD PTR ?__LINE__Var@?0??response_to_waypoint_troop_putdown_point_reached@@YGHW4ENTITY_MESSAGES@@PAUENTITY@@1PAD@Z@4JA
  00014	83 c0 06	 add	 eax, 6
  00017	50		 push	 eax
  00018	68 00 00 00 00	 push	 OFFSET ??_C@_0EE@DLIIEJCN@c?3?2users?2nhv90?2projects?2eech?2ap@
  0001d	68 00 00 00 00	 push	 OFFSET ??_C@_06CGHJMPBJ@sender@
  00022	e8 00 00 00 00	 call	 ?process_assert@@YGXPBD0H@Z ; process_assert
$LN2@response_t:

; 2432 : 
; 2433 : 	ASSERT (get_local_entity_type (sender) == ENTITY_TYPE_WAYPOINT);

  00027	83 7d 10 00	 cmp	 DWORD PTR _sender$[ebp], 0
  0002b	74 0a		 je	 SHORT $LN10@response_t
  0002d	8b 45 10	 mov	 eax, DWORD PTR _sender$[ebp]
  00030	8b 08		 mov	 ecx, DWORD PTR [eax]
  00032	89 4d a8	 mov	 DWORD PTR tv75[ebp], ecx
  00035	eb 21		 jmp	 SHORT $LN11@response_t
$LN10@response_t:
  00037	8b 15 00 00 00
	00		 mov	 edx, DWORD PTR ?__LINE__Var@?0??response_to_waypoint_troop_putdown_point_reached@@YGHW4ENTITY_MESSAGES@@PAUENTITY@@1PAD@Z@4JA
  0003d	83 c2 08	 add	 edx, 8
  00040	52		 push	 edx
  00041	68 00 00 00 00	 push	 OFFSET ??_C@_0EE@DLIIEJCN@c?3?2users?2nhv90?2projects?2eech?2ap@
  00046	a1 00 00 00 00	 mov	 eax, DWORD PTR ?null_entity_pointer_message@@3PBDB ; null_entity_pointer_message
  0004b	50		 push	 eax
  0004c	e8 00 00 00 00	 call	 ?process_assert@@YGXPBD0H@Z ; process_assert
  00051	c7 45 a8 00 00
	00 00		 mov	 DWORD PTR tv75[ebp], 0
$LN11@response_t:
  00058	83 7d a8 24	 cmp	 DWORD PTR tv75[ebp], 36	; 00000024H
  0005c	74 18		 je	 SHORT $LN3@response_t
  0005e	a1 00 00 00 00	 mov	 eax, DWORD PTR ?__LINE__Var@?0??response_to_waypoint_troop_putdown_point_reached@@YGHW4ENTITY_MESSAGES@@PAUENTITY@@1PAD@Z@4JA
  00063	83 c0 08	 add	 eax, 8
  00066	50		 push	 eax
  00067	68 00 00 00 00	 push	 OFFSET ??_C@_0EE@DLIIEJCN@c?3?2users?2nhv90?2projects?2eech?2ap@
  0006c	68 00 00 00 00	 push	 OFFSET ??_C@_0DH@NBKEDIK@get_local_entity_type?5?$CIsender?$CJ?5@
  00071	e8 00 00 00 00	 call	 ?process_assert@@YGXPBD0H@Z ; process_assert
$LN3@response_t:

; 2434 : 
; 2435 : 	ASSERT (get_comms_model () == COMMS_MODEL_SERVER);

  00076	83 3d 00 00 00
	00 00		 cmp	 DWORD PTR ?system_comms_model@@3W4COMMS_MODEL_TYPES@@A, 0 ; system_comms_model
  0007d	74 18		 je	 SHORT $LN4@response_t
  0007f	a1 00 00 00 00	 mov	 eax, DWORD PTR ?__LINE__Var@?0??response_to_waypoint_troop_putdown_point_reached@@YGHW4ENTITY_MESSAGES@@PAUENTITY@@1PAD@Z@4JA
  00084	83 c0 0a	 add	 eax, 10			; 0000000aH
  00087	50		 push	 eax
  00088	68 00 00 00 00	 push	 OFFSET ??_C@_0EE@DLIIEJCN@c?3?2users?2nhv90?2projects?2eech?2ap@
  0008d	68 00 00 00 00	 push	 OFFSET ??_C@_0CJ@DMBLBJBK@get_comms_model?5?$CI?$CJ?5?$DN?$DN?5COMMS_MOD@
  00092	e8 00 00 00 00	 call	 ?process_assert@@YGXPBD0H@Z ; process_assert
$LN4@response_t:

; 2436 : 
; 2437 : 	//
; 2438 : 	// tell insertion mission its complete
; 2439 : 	//
; 2440 : 
; 2441 : 	group = get_local_entity_parent (receiver, LIST_TYPE_MEMBER);

  00097	83 7d 0c 00	 cmp	 DWORD PTR _receiver$[ebp], 0
  0009b	74 0a		 je	 SHORT $LN12@response_t
  0009d	8b 45 0c	 mov	 eax, DWORD PTR _receiver$[ebp]
  000a0	8b 08		 mov	 ecx, DWORD PTR [eax]
  000a2	89 4d a8	 mov	 DWORD PTR tv92[ebp], ecx
  000a5	eb 21		 jmp	 SHORT $LN13@response_t
$LN12@response_t:
  000a7	8b 15 00 00 00
	00		 mov	 edx, DWORD PTR ?__LINE__Var@?0??response_to_waypoint_troop_putdown_point_reached@@YGHW4ENTITY_MESSAGES@@PAUENTITY@@1PAD@Z@4JA
  000ad	83 c2 10	 add	 edx, 16			; 00000010H
  000b0	52		 push	 edx
  000b1	68 00 00 00 00	 push	 OFFSET ??_C@_0EE@DLIIEJCN@c?3?2users?2nhv90?2projects?2eech?2ap@
  000b6	a1 00 00 00 00	 mov	 eax, DWORD PTR ?null_entity_pointer_message@@3PBDB ; null_entity_pointer_message
  000bb	50		 push	 eax
  000bc	e8 00 00 00 00	 call	 ?process_assert@@YGXPBD0H@Z ; process_assert
  000c1	c7 45 a8 00 00
	00 00		 mov	 DWORD PTR tv92[ebp], 0
$LN13@response_t:
  000c8	b9 01 00 00 00	 mov	 ecx, 1
  000cd	85 c9		 test	 ecx, ecx
  000cf	74 09		 je	 SHORT $LN14@response_t
  000d1	c7 45 a4 19 00
	00 00		 mov	 DWORD PTR tv132[ebp], 25 ; 00000019H
  000d8	eb 21		 jmp	 SHORT $LN15@response_t
$LN14@response_t:
  000da	8b 15 00 00 00
	00		 mov	 edx, DWORD PTR ?__LINE__Var@?0??response_to_waypoint_troop_putdown_point_reached@@YGHW4ENTITY_MESSAGES@@PAUENTITY@@1PAD@Z@4JA
  000e0	83 c2 10	 add	 edx, 16			; 00000010H
  000e3	52		 push	 edx
  000e4	68 00 00 00 00	 push	 OFFSET ??_C@_0EE@DLIIEJCN@c?3?2users?2nhv90?2projects?2eech?2ap@
  000e9	a1 00 00 00 00	 mov	 eax, DWORD PTR ?overload_invalid_list_type_message@@3PBDB ; overload_invalid_list_type_message
  000ee	50		 push	 eax
  000ef	e8 00 00 00 00	 call	 ?process_assert@@YGXPBD0H@Z ; process_assert
  000f4	c7 45 a4 00 00
	00 00		 mov	 DWORD PTR tv132[ebp], 0
$LN15@response_t:
  000fb	6a 19		 push	 25			; 00000019H
  000fd	8b 4d 0c	 mov	 ecx, DWORD PTR _receiver$[ebp]
  00100	51		 push	 ecx
  00101	69 55 a8 b4 00
	00 00		 imul	 edx, DWORD PTR tv92[ebp], 180
  00108	8b 45 a4	 mov	 eax, DWORD PTR tv132[ebp]
  0010b	8b 8c 82 00 00
	00 00		 mov	 ecx, DWORD PTR ?fn_get_local_entity_parent@@3PAY0CN@P6GPAUENTITY@@PAU1@W4LIST_TYPES@@@ZA[edx+eax*4]
  00112	ff d1		 call	 ecx
  00114	89 45 fc	 mov	 DWORD PTR _group$[ebp], eax

; 2442 : 
; 2443 : 	task = get_local_entity_parent (sender, LIST_TYPE_WAYPOINT);

  00117	83 7d 10 00	 cmp	 DWORD PTR _sender$[ebp], 0
  0011b	74 0a		 je	 SHORT $LN16@response_t
  0011d	8b 45 10	 mov	 eax, DWORD PTR _sender$[ebp]
  00120	8b 08		 mov	 ecx, DWORD PTR [eax]
  00122	89 4d a8	 mov	 DWORD PTR tv144[ebp], ecx
  00125	eb 21		 jmp	 SHORT $LN17@response_t
$LN16@response_t:
  00127	8b 15 00 00 00
	00		 mov	 edx, DWORD PTR ?__LINE__Var@?0??response_to_waypoint_troop_putdown_point_reached@@YGHW4ENTITY_MESSAGES@@PAUENTITY@@1PAD@Z@4JA
  0012d	83 c2 12	 add	 edx, 18			; 00000012H
  00130	52		 push	 edx
  00131	68 00 00 00 00	 push	 OFFSET ??_C@_0EE@DLIIEJCN@c?3?2users?2nhv90?2projects?2eech?2ap@
  00136	a1 00 00 00 00	 mov	 eax, DWORD PTR ?null_entity_pointer_message@@3PBDB ; null_entity_pointer_message
  0013b	50		 push	 eax
  0013c	e8 00 00 00 00	 call	 ?process_assert@@YGXPBD0H@Z ; process_assert
  00141	c7 45 a8 00 00
	00 00		 mov	 DWORD PTR tv144[ebp], 0
$LN17@response_t:
  00148	b9 01 00 00 00	 mov	 ecx, 1
  0014d	85 c9		 test	 ecx, ecx
  0014f	74 09		 je	 SHORT $LN18@response_t
  00151	c7 45 a4 2c 00
	00 00		 mov	 DWORD PTR tv152[ebp], 44 ; 0000002cH
  00158	eb 21		 jmp	 SHORT $LN19@response_t
$LN18@response_t:
  0015a	8b 15 00 00 00
	00		 mov	 edx, DWORD PTR ?__LINE__Var@?0??response_to_waypoint_troop_putdown_point_reached@@YGHW4ENTITY_MESSAGES@@PAUENTITY@@1PAD@Z@4JA
  00160	83 c2 12	 add	 edx, 18			; 00000012H
  00163	52		 push	 edx
  00164	68 00 00 00 00	 push	 OFFSET ??_C@_0EE@DLIIEJCN@c?3?2users?2nhv90?2projects?2eech?2ap@
  00169	a1 00 00 00 00	 mov	 eax, DWORD PTR ?overload_invalid_list_type_message@@3PBDB ; overload_invalid_list_type_message
  0016e	50		 push	 eax
  0016f	e8 00 00 00 00	 call	 ?process_assert@@YGXPBD0H@Z ; process_assert
  00174	c7 45 a4 00 00
	00 00		 mov	 DWORD PTR tv152[ebp], 0
$LN19@response_t:
  0017b	6a 2c		 push	 44			; 0000002cH
  0017d	8b 4d 10	 mov	 ecx, DWORD PTR _sender$[ebp]
  00180	51		 push	 ecx
  00181	69 55 a8 b4 00
	00 00		 imul	 edx, DWORD PTR tv144[ebp], 180
  00188	8b 45 a4	 mov	 eax, DWORD PTR tv152[ebp]
  0018b	8b 8c 82 00 00
	00 00		 mov	 ecx, DWORD PTR ?fn_get_local_entity_parent@@3PAY0CN@P6GPAUENTITY@@PAU1@W4LIST_TYPES@@@ZA[edx+eax*4]
  00192	ff d1		 call	 ecx
  00194	89 45 f8	 mov	 DWORD PTR _task$[ebp], eax

; 2444 : 
; 2445 : 	insert_task = get_local_entity_parent (task, LIST_TYPE_TASK_DEPENDENT);

  00197	83 7d f8 00	 cmp	 DWORD PTR _task$[ebp], 0
  0019b	74 0a		 je	 SHORT $LN20@response_t
  0019d	8b 45 f8	 mov	 eax, DWORD PTR _task$[ebp]
  001a0	8b 08		 mov	 ecx, DWORD PTR [eax]
  001a2	89 4d a8	 mov	 DWORD PTR tv164[ebp], ecx
  001a5	eb 21		 jmp	 SHORT $LN21@response_t
$LN20@response_t:
  001a7	8b 15 00 00 00
	00		 mov	 edx, DWORD PTR ?__LINE__Var@?0??response_to_waypoint_troop_putdown_point_reached@@YGHW4ENTITY_MESSAGES@@PAUENTITY@@1PAD@Z@4JA
  001ad	83 c2 14	 add	 edx, 20			; 00000014H
  001b0	52		 push	 edx
  001b1	68 00 00 00 00	 push	 OFFSET ??_C@_0EE@DLIIEJCN@c?3?2users?2nhv90?2projects?2eech?2ap@
  001b6	a1 00 00 00 00	 mov	 eax, DWORD PTR ?null_entity_pointer_message@@3PBDB ; null_entity_pointer_message
  001bb	50		 push	 eax
  001bc	e8 00 00 00 00	 call	 ?process_assert@@YGXPBD0H@Z ; process_assert
  001c1	c7 45 a8 00 00
	00 00		 mov	 DWORD PTR tv164[ebp], 0
$LN21@response_t:
  001c8	b9 01 00 00 00	 mov	 ecx, 1
  001cd	85 c9		 test	 ecx, ecx
  001cf	74 09		 je	 SHORT $LN22@response_t
  001d1	c7 45 a4 27 00
	00 00		 mov	 DWORD PTR tv172[ebp], 39 ; 00000027H
  001d8	eb 21		 jmp	 SHORT $LN23@response_t
$LN22@response_t:
  001da	8b 15 00 00 00
	00		 mov	 edx, DWORD PTR ?__LINE__Var@?0??response_to_waypoint_troop_putdown_point_reached@@YGHW4ENTITY_MESSAGES@@PAUENTITY@@1PAD@Z@4JA
  001e0	83 c2 14	 add	 edx, 20			; 00000014H
  001e3	52		 push	 edx
  001e4	68 00 00 00 00	 push	 OFFSET ??_C@_0EE@DLIIEJCN@c?3?2users?2nhv90?2projects?2eech?2ap@
  001e9	a1 00 00 00 00	 mov	 eax, DWORD PTR ?overload_invalid_list_type_message@@3PBDB ; overload_invalid_list_type_message
  001ee	50		 push	 eax
  001ef	e8 00 00 00 00	 call	 ?process_assert@@YGXPBD0H@Z ; process_assert
  001f4	c7 45 a4 00 00
	00 00		 mov	 DWORD PTR tv172[ebp], 0
$LN23@response_t:
  001fb	6a 27		 push	 39			; 00000027H
  001fd	8b 4d f8	 mov	 ecx, DWORD PTR _task$[ebp]
  00200	51		 push	 ecx
  00201	69 55 a8 b4 00
	00 00		 imul	 edx, DWORD PTR tv164[ebp], 180
  00208	8b 45 a4	 mov	 eax, DWORD PTR tv172[ebp]
  0020b	8b 8c 82 00 00
	00 00		 mov	 ecx, DWORD PTR ?fn_get_local_entity_parent@@3PAY0CN@P6GPAUENTITY@@PAU1@W4LIST_TYPES@@@ZA[edx+eax*4]
  00212	ff d1		 call	 ecx
  00214	89 45 f4	 mov	 DWORD PTR _insert_task$[ebp], eax

; 2446 : 
; 2447 : 	ASSERT (insert_task);

  00217	83 7d f4 00	 cmp	 DWORD PTR _insert_task$[ebp], 0
  0021b	75 18		 jne	 SHORT $LN5@response_t
  0021d	a1 00 00 00 00	 mov	 eax, DWORD PTR ?__LINE__Var@?0??response_to_waypoint_troop_putdown_point_reached@@YGHW4ENTITY_MESSAGES@@PAUENTITY@@1PAD@Z@4JA
  00222	83 c0 16	 add	 eax, 22			; 00000016H
  00225	50		 push	 eax
  00226	68 00 00 00 00	 push	 OFFSET ??_C@_0EE@DLIIEJCN@c?3?2users?2nhv90?2projects?2eech?2ap@
  0022b	68 00 00 00 00	 push	 OFFSET ??_C@_0M@GMAFECLM@insert_task@
  00230	e8 00 00 00 00	 call	 ?process_assert@@YGXPBD0H@Z ; process_assert
$LN5@response_t:

; 2448 : 
; 2449 : 	notify_local_entity (ENTITY_MESSAGE_TASK_COMPLETED, insert_task, group, TASK_TERMINATED_OBJECTIVE_MESSAGE);

  00235	6a 04		 push	 4
  00237	8b 45 fc	 mov	 eax, DWORD PTR _group$[ebp]
  0023a	50		 push	 eax
  0023b	8b 4d f4	 mov	 ecx, DWORD PTR _insert_task$[ebp]
  0023e	51		 push	 ecx
  0023f	6a 32		 push	 50			; 00000032H
  00241	e8 00 00 00 00	 call	 ?notify_local_entity@@YAHW4ENTITY_MESSAGES@@PAUENTITY@@1ZZ ; notify_local_entity
  00246	83 c4 10	 add	 esp, 16			; 00000010H

; 2450 : 
; 2451 : 	//
; 2452 : 	// Close Flight Leader's Doors
; 2453 : 	//
; 2454 : 	{
; 2455 : 		entity
; 2456 : 			*guide,
; 2457 : 			*leader;
; 2458 : 
; 2459 : 		guide = get_local_entity_first_child (insert_task, LIST_TYPE_GUIDE);

  00249	83 7d f4 00	 cmp	 DWORD PTR _insert_task$[ebp], 0
  0024d	74 0a		 je	 SHORT $LN24@response_t
  0024f	8b 45 f4	 mov	 eax, DWORD PTR _insert_task$[ebp]
  00252	8b 08		 mov	 ecx, DWORD PTR [eax]
  00254	89 4d a8	 mov	 DWORD PTR tv193[ebp], ecx
  00257	eb 21		 jmp	 SHORT $LN25@response_t
$LN24@response_t:
  00259	8b 15 00 00 00
	00		 mov	 edx, DWORD PTR ?__LINE__Var@?0??response_to_waypoint_troop_putdown_point_reached@@YGHW4ENTITY_MESSAGES@@PAUENTITY@@1PAD@Z@4JA
  0025f	83 c2 22	 add	 edx, 34			; 00000022H
  00262	52		 push	 edx
  00263	68 00 00 00 00	 push	 OFFSET ??_C@_0EE@DLIIEJCN@c?3?2users?2nhv90?2projects?2eech?2ap@
  00268	a1 00 00 00 00	 mov	 eax, DWORD PTR ?null_entity_pointer_message@@3PBDB ; null_entity_pointer_message
  0026d	50		 push	 eax
  0026e	e8 00 00 00 00	 call	 ?process_assert@@YGXPBD0H@Z ; process_assert
  00273	c7 45 a8 00 00
	00 00		 mov	 DWORD PTR tv193[ebp], 0
$LN25@response_t:
  0027a	b9 01 00 00 00	 mov	 ecx, 1
  0027f	85 c9		 test	 ecx, ecx
  00281	74 09		 je	 SHORT $LN26@response_t
  00283	c7 45 a4 10 00
	00 00		 mov	 DWORD PTR tv201[ebp], 16 ; 00000010H
  0028a	eb 21		 jmp	 SHORT $LN27@response_t
$LN26@response_t:
  0028c	8b 15 00 00 00
	00		 mov	 edx, DWORD PTR ?__LINE__Var@?0??response_to_waypoint_troop_putdown_point_reached@@YGHW4ENTITY_MESSAGES@@PAUENTITY@@1PAD@Z@4JA
  00292	83 c2 22	 add	 edx, 34			; 00000022H
  00295	52		 push	 edx
  00296	68 00 00 00 00	 push	 OFFSET ??_C@_0EE@DLIIEJCN@c?3?2users?2nhv90?2projects?2eech?2ap@
  0029b	a1 00 00 00 00	 mov	 eax, DWORD PTR ?overload_invalid_list_type_message@@3PBDB ; overload_invalid_list_type_message
  002a0	50		 push	 eax
  002a1	e8 00 00 00 00	 call	 ?process_assert@@YGXPBD0H@Z ; process_assert
  002a6	c7 45 a4 00 00
	00 00		 mov	 DWORD PTR tv201[ebp], 0
$LN27@response_t:
  002ad	6a 10		 push	 16			; 00000010H
  002af	8b 4d f4	 mov	 ecx, DWORD PTR _insert_task$[ebp]
  002b2	51		 push	 ecx
  002b3	69 55 a8 b4 00
	00 00		 imul	 edx, DWORD PTR tv193[ebp], 180
  002ba	8b 45 a4	 mov	 eax, DWORD PTR tv201[ebp]
  002bd	8b 8c 82 00 00
	00 00		 mov	 ecx, DWORD PTR ?fn_get_local_entity_first_child@@3PAY0CN@P6GPAUENTITY@@PAU1@W4LIST_TYPES@@@ZA[edx+eax*4]
  002c4	ff d1		 call	 ecx
  002c6	89 45 f0	 mov	 DWORD PTR _guide$2[ebp], eax

; 2460 : 
; 2461 : 		if (guide)

  002c9	83 7d f0 00	 cmp	 DWORD PTR _guide$2[ebp], 0
  002cd	0f 84 a0 00 00
	00		 je	 $LN6@response_t

; 2462 : 		{
; 2463 : 			leader = (entity *) get_local_entity_ptr_value (guide, PTR_TYPE_TASK_LEADER);

  002d3	83 7d f0 00	 cmp	 DWORD PTR _guide$2[ebp], 0
  002d7	74 0a		 je	 SHORT $LN28@response_t
  002d9	8b 45 f0	 mov	 eax, DWORD PTR _guide$2[ebp]
  002dc	8b 08		 mov	 ecx, DWORD PTR [eax]
  002de	89 4d a8	 mov	 DWORD PTR tv214[ebp], ecx
  002e1	eb 21		 jmp	 SHORT $LN29@response_t
$LN28@response_t:
  002e3	8b 15 00 00 00
	00		 mov	 edx, DWORD PTR ?__LINE__Var@?0??response_to_waypoint_troop_putdown_point_reached@@YGHW4ENTITY_MESSAGES@@PAUENTITY@@1PAD@Z@4JA
  002e9	83 c2 26	 add	 edx, 38			; 00000026H
  002ec	52		 push	 edx
  002ed	68 00 00 00 00	 push	 OFFSET ??_C@_0EE@DLIIEJCN@c?3?2users?2nhv90?2projects?2eech?2ap@
  002f2	a1 00 00 00 00	 mov	 eax, DWORD PTR ?null_entity_pointer_message@@3PBDB ; null_entity_pointer_message
  002f7	50		 push	 eax
  002f8	e8 00 00 00 00	 call	 ?process_assert@@YGXPBD0H@Z ; process_assert
  002fd	c7 45 a8 00 00
	00 00		 mov	 DWORD PTR tv214[ebp], 0
$LN29@response_t:
  00304	b9 01 00 00 00	 mov	 ecx, 1
  00309	85 c9		 test	 ecx, ecx
  0030b	74 09		 je	 SHORT $LN30@response_t
  0030d	c7 45 a4 0f 00
	00 00		 mov	 DWORD PTR tv222[ebp], 15 ; 0000000fH
  00314	eb 21		 jmp	 SHORT $LN31@response_t
$LN30@response_t:
  00316	8b 15 00 00 00
	00		 mov	 edx, DWORD PTR ?__LINE__Var@?0??response_to_waypoint_troop_putdown_point_reached@@YGHW4ENTITY_MESSAGES@@PAUENTITY@@1PAD@Z@4JA
  0031c	83 c2 26	 add	 edx, 38			; 00000026H
  0031f	52		 push	 edx
  00320	68 00 00 00 00	 push	 OFFSET ??_C@_0EE@DLIIEJCN@c?3?2users?2nhv90?2projects?2eech?2ap@
  00325	a1 00 00 00 00	 mov	 eax, DWORD PTR ?overload_invalid_ptr_type_message@@3PBDB ; overload_invalid_ptr_type_message
  0032a	50		 push	 eax
  0032b	e8 00 00 00 00	 call	 ?process_assert@@YGXPBD0H@Z ; process_assert
  00330	c7 45 a4 00 00
	00 00		 mov	 DWORD PTR tv222[ebp], 0
$LN31@response_t:
  00337	6a 0f		 push	 15			; 0000000fH
  00339	8b 4d f0	 mov	 ecx, DWORD PTR _guide$2[ebp]
  0033c	51		 push	 ecx
  0033d	6b 55 a8 50	 imul	 edx, DWORD PTR tv214[ebp], 80
  00341	8b 45 a4	 mov	 eax, DWORD PTR tv222[ebp]
  00344	8b 8c 82 00 00
	00 00		 mov	 ecx, DWORD PTR ?fn_get_local_entity_ptr_value@@3PAY0BE@P6GPAXPAUENTITY@@W4PTR_TYPES@@@ZA[edx+eax*4]
  0034b	ff d1		 call	 ecx
  0034d	89 45 ec	 mov	 DWORD PTR _leader$1[ebp], eax

; 2464 : 
; 2465 : 			if (leader)

  00350	83 7d ec 00	 cmp	 DWORD PTR _leader$1[ebp], 0
  00354	74 1d		 je	 SHORT $LN6@response_t

; 2466 : 			{
; 2467 : 				close_client_server_entity_loading_doors (leader);

  00356	8b 45 ec	 mov	 eax, DWORD PTR _leader$1[ebp]
  00359	50		 push	 eax
  0035a	e8 00 00 00 00	 call	 ?close_client_server_entity_loading_doors@@YGXPAUENTITY@@@Z ; close_client_server_entity_loading_doors

; 2468 :         
; 2469 :         //ataribaby 31/12/2008 fix for player heli
; 2470 :         if (leader != get_gunship_entity ())

  0035f	8b 45 ec	 mov	 eax, DWORD PTR _leader$1[ebp]
  00362	3b 05 00 00 00
	00		 cmp	 eax, DWORD PTR ?gunship_entity@@3PAUENTITY@@A ; gunship_entity
  00368	74 09		 je	 SHORT $LN6@response_t

; 2471 : 				  raise_client_server_entity_undercarriage (leader);

  0036a	8b 45 ec	 mov	 eax, DWORD PTR _leader$1[ebp]
  0036d	50		 push	 eax
  0036e	e8 00 00 00 00	 call	 ?raise_client_server_entity_undercarriage@@YGXPAUENTITY@@@Z ; raise_client_server_entity_undercarriage
$LN6@response_t:

; 2472 : 			}
; 2473 : 		}
; 2474 : 	}
; 2475 : 
; 2476 : 	return (TRUE);

  00373	b8 01 00 00 00	 mov	 eax, 1

; 2477 : }

  00378	5f		 pop	 edi
  00379	5e		 pop	 esi
  0037a	5b		 pop	 ebx
  0037b	8b e5		 mov	 esp, ebp
  0037d	5d		 pop	 ebp
  0037e	c2 10 00	 ret	 16			; 00000010H
?response_to_waypoint_troop_putdown_point_reached@@YGHW4ENTITY_MESSAGES@@PAUENTITY@@1PAD@Z ENDP ; response_to_waypoint_troop_putdown_point_reached
_TEXT	ENDS
; Function compile flags: /Odtp /ZI
; File c:\users\nhv90\projects\eech\aphavoc\source\entity\mobile\mb_msgs.c
;	COMDAT ?response_to_waypoint_troop_insert_reached@@YGHW4ENTITY_MESSAGES@@PAUENTITY@@1PAD@Z
_TEXT	SEGMENT
tv410 = -116						; size = 4
tv335 = -112						; size = 4
tv313 = -112						; size = 4
tv291 = -112						; size = 4
tv267 = -112						; size = 4
tv217 = -112						; size = 4
tv197 = -112						; size = 4
tv174 = -112						; size = 4
tv154 = -112						; size = 4
tv132 = -112						; size = 4
tv327 = -108						; size = 4
tv305 = -108						; size = 4
tv283 = -108						; size = 4
tv259 = -108						; size = 4
tv209 = -108						; size = 4
tv189 = -108						; size = 4
tv166 = -108						; size = 4
tv146 = -108						; size = 4
tv92 = -108						; size = 4
tv75 = -108						; size = 4
_sleep$1 = -40						; size = 4
_mb$2 = -36						; size = 4
_side$ = -32						; size = 4
_insert_task$ = -28					; size = 4
_new_task$ = -24					; size = 4
_keysite$ = -20						; size = 4
_group$ = -16						; size = 4
_start_pos$ = -12					; size = 12
_message$ = 8						; size = 4
_receiver$ = 12						; size = 4
_sender$ = 16						; size = 4
_pargs$ = 20						; size = 4
?response_to_waypoint_troop_insert_reached@@YGHW4ENTITY_MESSAGES@@PAUENTITY@@1PAD@Z PROC ; response_to_waypoint_troop_insert_reached, COMDAT

; 2290 : {

  00000	55		 push	 ebp
  00001	8b ec		 mov	 ebp, esp
  00003	83 ec 74	 sub	 esp, 116		; 00000074H
  00006	53		 push	 ebx
  00007	56		 push	 esi
  00008	57		 push	 edi

; 2291 : 	vec3d
; 2292 : 		start_pos;
; 2293 : 
; 2294 : 	entity
; 2295 : 		*group,
; 2296 : 		*keysite,
; 2297 : 		*new_task,
; 2298 : 		*insert_task;
; 2299 : 
; 2300 : 	entity_sides
; 2301 : 		side;
; 2302 : 
; 2303 : 	ASSERT (sender);

  00009	83 7d 10 00	 cmp	 DWORD PTR _sender$[ebp], 0
  0000d	75 18		 jne	 SHORT $LN4@response_t
  0000f	a1 00 00 00 00	 mov	 eax, DWORD PTR ?__LINE__Var@?0??response_to_waypoint_troop_insert_reached@@YGHW4ENTITY_MESSAGES@@PAUENTITY@@1PAD@Z@4JA
  00014	83 c0 0d	 add	 eax, 13			; 0000000dH
  00017	50		 push	 eax
  00018	68 00 00 00 00	 push	 OFFSET ??_C@_0EE@DLIIEJCN@c?3?2users?2nhv90?2projects?2eech?2ap@
  0001d	68 00 00 00 00	 push	 OFFSET ??_C@_06CGHJMPBJ@sender@
  00022	e8 00 00 00 00	 call	 ?process_assert@@YGXPBD0H@Z ; process_assert
$LN4@response_t:

; 2304 : 
; 2305 : 	ASSERT (get_local_entity_type (sender) == ENTITY_TYPE_WAYPOINT);

  00027	83 7d 10 00	 cmp	 DWORD PTR _sender$[ebp], 0
  0002b	74 0a		 je	 SHORT $LN13@response_t
  0002d	8b 45 10	 mov	 eax, DWORD PTR _sender$[ebp]
  00030	8b 08		 mov	 ecx, DWORD PTR [eax]
  00032	89 4d 94	 mov	 DWORD PTR tv75[ebp], ecx
  00035	eb 21		 jmp	 SHORT $LN14@response_t
$LN13@response_t:
  00037	8b 15 00 00 00
	00		 mov	 edx, DWORD PTR ?__LINE__Var@?0??response_to_waypoint_troop_insert_reached@@YGHW4ENTITY_MESSAGES@@PAUENTITY@@1PAD@Z@4JA
  0003d	83 c2 0f	 add	 edx, 15			; 0000000fH
  00040	52		 push	 edx
  00041	68 00 00 00 00	 push	 OFFSET ??_C@_0EE@DLIIEJCN@c?3?2users?2nhv90?2projects?2eech?2ap@
  00046	a1 00 00 00 00	 mov	 eax, DWORD PTR ?null_entity_pointer_message@@3PBDB ; null_entity_pointer_message
  0004b	50		 push	 eax
  0004c	e8 00 00 00 00	 call	 ?process_assert@@YGXPBD0H@Z ; process_assert
  00051	c7 45 94 00 00
	00 00		 mov	 DWORD PTR tv75[ebp], 0
$LN14@response_t:
  00058	83 7d 94 24	 cmp	 DWORD PTR tv75[ebp], 36	; 00000024H
  0005c	74 18		 je	 SHORT $LN5@response_t
  0005e	a1 00 00 00 00	 mov	 eax, DWORD PTR ?__LINE__Var@?0??response_to_waypoint_troop_insert_reached@@YGHW4ENTITY_MESSAGES@@PAUENTITY@@1PAD@Z@4JA
  00063	83 c0 0f	 add	 eax, 15			; 0000000fH
  00066	50		 push	 eax
  00067	68 00 00 00 00	 push	 OFFSET ??_C@_0EE@DLIIEJCN@c?3?2users?2nhv90?2projects?2eech?2ap@
  0006c	68 00 00 00 00	 push	 OFFSET ??_C@_0DH@NBKEDIK@get_local_entity_type?5?$CIsender?$CJ?5@
  00071	e8 00 00 00 00	 call	 ?process_assert@@YGXPBD0H@Z ; process_assert
$LN5@response_t:

; 2306 : 
; 2307 : 	ASSERT (get_comms_model () == COMMS_MODEL_SERVER);

  00076	83 3d 00 00 00
	00 00		 cmp	 DWORD PTR ?system_comms_model@@3W4COMMS_MODEL_TYPES@@A, 0 ; system_comms_model
  0007d	74 18		 je	 SHORT $LN6@response_t
  0007f	a1 00 00 00 00	 mov	 eax, DWORD PTR ?__LINE__Var@?0??response_to_waypoint_troop_insert_reached@@YGHW4ENTITY_MESSAGES@@PAUENTITY@@1PAD@Z@4JA
  00084	83 c0 11	 add	 eax, 17			; 00000011H
  00087	50		 push	 eax
  00088	68 00 00 00 00	 push	 OFFSET ??_C@_0EE@DLIIEJCN@c?3?2users?2nhv90?2projects?2eech?2ap@
  0008d	68 00 00 00 00	 push	 OFFSET ??_C@_0CJ@DMBLBJBK@get_comms_model?5?$CI?$CJ?5?$DN?$DN?5COMMS_MOD@
  00092	e8 00 00 00 00	 call	 ?process_assert@@YGXPBD0H@Z ; process_assert
$LN6@response_t:

; 2308 : 
; 2309 : 	#if DEBUG_MODULE >= 2
; 2310 : 
; 2311 : 	debug_log_entity_message (message, receiver, sender, pargs);
; 2312 : 
; 2313 : 	#endif
; 2314 : 
; 2315 : 	group = get_local_entity_parent (receiver, LIST_TYPE_MEMBER);

  00097	83 7d 0c 00	 cmp	 DWORD PTR _receiver$[ebp], 0
  0009b	74 0a		 je	 SHORT $LN15@response_t
  0009d	8b 45 0c	 mov	 eax, DWORD PTR _receiver$[ebp]
  000a0	8b 08		 mov	 ecx, DWORD PTR [eax]
  000a2	89 4d 94	 mov	 DWORD PTR tv92[ebp], ecx
  000a5	eb 21		 jmp	 SHORT $LN16@response_t
$LN15@response_t:
  000a7	8b 15 00 00 00
	00		 mov	 edx, DWORD PTR ?__LINE__Var@?0??response_to_waypoint_troop_insert_reached@@YGHW4ENTITY_MESSAGES@@PAUENTITY@@1PAD@Z@4JA
  000ad	83 c2 19	 add	 edx, 25			; 00000019H
  000b0	52		 push	 edx
  000b1	68 00 00 00 00	 push	 OFFSET ??_C@_0EE@DLIIEJCN@c?3?2users?2nhv90?2projects?2eech?2ap@
  000b6	a1 00 00 00 00	 mov	 eax, DWORD PTR ?null_entity_pointer_message@@3PBDB ; null_entity_pointer_message
  000bb	50		 push	 eax
  000bc	e8 00 00 00 00	 call	 ?process_assert@@YGXPBD0H@Z ; process_assert
  000c1	c7 45 94 00 00
	00 00		 mov	 DWORD PTR tv92[ebp], 0
$LN16@response_t:
  000c8	b9 01 00 00 00	 mov	 ecx, 1
  000cd	85 c9		 test	 ecx, ecx
  000cf	74 09		 je	 SHORT $LN17@response_t
  000d1	c7 45 90 19 00
	00 00		 mov	 DWORD PTR tv132[ebp], 25 ; 00000019H
  000d8	eb 21		 jmp	 SHORT $LN18@response_t
$LN17@response_t:
  000da	8b 15 00 00 00
	00		 mov	 edx, DWORD PTR ?__LINE__Var@?0??response_to_waypoint_troop_insert_reached@@YGHW4ENTITY_MESSAGES@@PAUENTITY@@1PAD@Z@4JA
  000e0	83 c2 19	 add	 edx, 25			; 00000019H
  000e3	52		 push	 edx
  000e4	68 00 00 00 00	 push	 OFFSET ??_C@_0EE@DLIIEJCN@c?3?2users?2nhv90?2projects?2eech?2ap@
  000e9	a1 00 00 00 00	 mov	 eax, DWORD PTR ?overload_invalid_list_type_message@@3PBDB ; overload_invalid_list_type_message
  000ee	50		 push	 eax
  000ef	e8 00 00 00 00	 call	 ?process_assert@@YGXPBD0H@Z ; process_assert
  000f4	c7 45 90 00 00
	00 00		 mov	 DWORD PTR tv132[ebp], 0
$LN18@response_t:
  000fb	6a 19		 push	 25			; 00000019H
  000fd	8b 4d 0c	 mov	 ecx, DWORD PTR _receiver$[ebp]
  00100	51		 push	 ecx
  00101	69 55 94 b4 00
	00 00		 imul	 edx, DWORD PTR tv92[ebp], 180
  00108	8b 45 90	 mov	 eax, DWORD PTR tv132[ebp]
  0010b	8b 8c 82 00 00
	00 00		 mov	 ecx, DWORD PTR ?fn_get_local_entity_parent@@3PAY0CN@P6GPAUENTITY@@PAU1@W4LIST_TYPES@@@ZA[edx+eax*4]
  00112	ff d1		 call	 ecx
  00114	89 45 f0	 mov	 DWORD PTR _group$[ebp], eax

; 2316 : 
; 2317 : 	insert_task = get_local_group_primary_task (group);

  00117	8b 45 f0	 mov	 eax, DWORD PTR _group$[ebp]
  0011a	50		 push	 eax
  0011b	e8 00 00 00 00	 call	 ?get_local_group_primary_task@@YGPAUENTITY@@PAU1@@Z ; get_local_group_primary_task
  00120	89 45 e4	 mov	 DWORD PTR _insert_task$[ebp], eax

; 2318 : 
; 2319 : 	keysite = get_local_entity_parent (insert_task, LIST_TYPE_TASK_DEPENDENT);

  00123	83 7d e4 00	 cmp	 DWORD PTR _insert_task$[ebp], 0
  00127	74 0a		 je	 SHORT $LN19@response_t
  00129	8b 45 e4	 mov	 eax, DWORD PTR _insert_task$[ebp]
  0012c	8b 08		 mov	 ecx, DWORD PTR [eax]
  0012e	89 4d 94	 mov	 DWORD PTR tv146[ebp], ecx
  00131	eb 21		 jmp	 SHORT $LN20@response_t
$LN19@response_t:
  00133	8b 15 00 00 00
	00		 mov	 edx, DWORD PTR ?__LINE__Var@?0??response_to_waypoint_troop_insert_reached@@YGHW4ENTITY_MESSAGES@@PAUENTITY@@1PAD@Z@4JA
  00139	83 c2 1d	 add	 edx, 29			; 0000001dH
  0013c	52		 push	 edx
  0013d	68 00 00 00 00	 push	 OFFSET ??_C@_0EE@DLIIEJCN@c?3?2users?2nhv90?2projects?2eech?2ap@
  00142	a1 00 00 00 00	 mov	 eax, DWORD PTR ?null_entity_pointer_message@@3PBDB ; null_entity_pointer_message
  00147	50		 push	 eax
  00148	e8 00 00 00 00	 call	 ?process_assert@@YGXPBD0H@Z ; process_assert
  0014d	c7 45 94 00 00
	00 00		 mov	 DWORD PTR tv146[ebp], 0
$LN20@response_t:
  00154	b9 01 00 00 00	 mov	 ecx, 1
  00159	85 c9		 test	 ecx, ecx
  0015b	74 09		 je	 SHORT $LN21@response_t
  0015d	c7 45 90 27 00
	00 00		 mov	 DWORD PTR tv154[ebp], 39 ; 00000027H
  00164	eb 21		 jmp	 SHORT $LN22@response_t
$LN21@response_t:
  00166	8b 15 00 00 00
	00		 mov	 edx, DWORD PTR ?__LINE__Var@?0??response_to_waypoint_troop_insert_reached@@YGHW4ENTITY_MESSAGES@@PAUENTITY@@1PAD@Z@4JA
  0016c	83 c2 1d	 add	 edx, 29			; 0000001dH
  0016f	52		 push	 edx
  00170	68 00 00 00 00	 push	 OFFSET ??_C@_0EE@DLIIEJCN@c?3?2users?2nhv90?2projects?2eech?2ap@
  00175	a1 00 00 00 00	 mov	 eax, DWORD PTR ?overload_invalid_list_type_message@@3PBDB ; overload_invalid_list_type_message
  0017a	50		 push	 eax
  0017b	e8 00 00 00 00	 call	 ?process_assert@@YGXPBD0H@Z ; process_assert
  00180	c7 45 90 00 00
	00 00		 mov	 DWORD PTR tv154[ebp], 0
$LN22@response_t:
  00187	6a 27		 push	 39			; 00000027H
  00189	8b 4d e4	 mov	 ecx, DWORD PTR _insert_task$[ebp]
  0018c	51		 push	 ecx
  0018d	69 55 94 b4 00
	00 00		 imul	 edx, DWORD PTR tv146[ebp], 180
  00194	8b 45 90	 mov	 eax, DWORD PTR tv154[ebp]
  00197	8b 8c 82 00 00
	00 00		 mov	 ecx, DWORD PTR ?fn_get_local_entity_parent@@3PAY0CN@P6GPAUENTITY@@PAU1@W4LIST_TYPES@@@ZA[edx+eax*4]
  0019e	ff d1		 call	 ecx
  001a0	89 45 ec	 mov	 DWORD PTR _keysite$[ebp], eax

; 2320 : 
; 2321 : 	side = (entity_sides) get_local_entity_int_value (receiver, INT_TYPE_SIDE);

  001a3	83 7d 0c 00	 cmp	 DWORD PTR _receiver$[ebp], 0
  001a7	74 0a		 je	 SHORT $LN23@response_t
  001a9	8b 45 0c	 mov	 eax, DWORD PTR _receiver$[ebp]
  001ac	8b 08		 mov	 ecx, DWORD PTR [eax]
  001ae	89 4d 94	 mov	 DWORD PTR tv166[ebp], ecx
  001b1	eb 21		 jmp	 SHORT $LN24@response_t
$LN23@response_t:
  001b3	8b 15 00 00 00
	00		 mov	 edx, DWORD PTR ?__LINE__Var@?0??response_to_waypoint_troop_insert_reached@@YGHW4ENTITY_MESSAGES@@PAUENTITY@@1PAD@Z@4JA
  001b9	83 c2 1f	 add	 edx, 31			; 0000001fH
  001bc	52		 push	 edx
  001bd	68 00 00 00 00	 push	 OFFSET ??_C@_0EE@DLIIEJCN@c?3?2users?2nhv90?2projects?2eech?2ap@
  001c2	a1 00 00 00 00	 mov	 eax, DWORD PTR ?null_entity_pointer_message@@3PBDB ; null_entity_pointer_message
  001c7	50		 push	 eax
  001c8	e8 00 00 00 00	 call	 ?process_assert@@YGXPBD0H@Z ; process_assert
  001cd	c7 45 94 00 00
	00 00		 mov	 DWORD PTR tv166[ebp], 0
$LN24@response_t:
  001d4	b9 01 00 00 00	 mov	 ecx, 1
  001d9	85 c9		 test	 ecx, ecx
  001db	74 09		 je	 SHORT $LN25@response_t
  001dd	c7 45 90 bb 00
	00 00		 mov	 DWORD PTR tv174[ebp], 187 ; 000000bbH
  001e4	eb 21		 jmp	 SHORT $LN26@response_t
$LN25@response_t:
  001e6	8b 15 00 00 00
	00		 mov	 edx, DWORD PTR ?__LINE__Var@?0??response_to_waypoint_troop_insert_reached@@YGHW4ENTITY_MESSAGES@@PAUENTITY@@1PAD@Z@4JA
  001ec	83 c2 1f	 add	 edx, 31			; 0000001fH
  001ef	52		 push	 edx
  001f0	68 00 00 00 00	 push	 OFFSET ??_C@_0EE@DLIIEJCN@c?3?2users?2nhv90?2projects?2eech?2ap@
  001f5	a1 00 00 00 00	 mov	 eax, DWORD PTR ?overload_invalid_int_type_message@@3PBDB ; overload_invalid_int_type_message
  001fa	50		 push	 eax
  001fb	e8 00 00 00 00	 call	 ?process_assert@@YGXPBD0H@Z ; process_assert
  00200	c7 45 90 00 00
	00 00		 mov	 DWORD PTR tv174[ebp], 0
$LN26@response_t:
  00207	68 bb 00 00 00	 push	 187			; 000000bbH
  0020c	8b 4d 0c	 mov	 ecx, DWORD PTR _receiver$[ebp]
  0020f	51		 push	 ecx
  00210	69 55 94 5c 04
	00 00		 imul	 edx, DWORD PTR tv166[ebp], 1116
  00217	8b 45 90	 mov	 eax, DWORD PTR tv174[ebp]
  0021a	8b 8c 82 00 00
	00 00		 mov	 ecx, DWORD PTR ?fn_get_local_entity_int_value@@3PAY0BBH@P6GHPAUENTITY@@W4INT_TYPES@@@ZA[edx+eax*4]
  00221	ff d1		 call	 ecx
  00223	89 45 e0	 mov	 DWORD PTR _side$[ebp], eax

; 2322 : 
; 2323 : 	//
; 2324 : 	// Open Leader's Doors
; 2325 : 	//
; 2326 : 	
; 2327 : 	open_client_server_entity_loading_doors (receiver);

  00226	8b 45 0c	 mov	 eax, DWORD PTR _receiver$[ebp]
  00229	50		 push	 eax
  0022a	e8 00 00 00 00	 call	 ?open_client_server_entity_loading_doors@@YGXPAUENTITY@@@Z ; open_client_server_entity_loading_doors

; 2328 :   
; 2329 :   //ataribaby 31/12/2008 fix for player heli
; 2330 :   if (receiver != get_gunship_entity ())

  0022f	8b 45 0c	 mov	 eax, DWORD PTR _receiver$[ebp]
  00232	3b 05 00 00 00
	00		 cmp	 eax, DWORD PTR ?gunship_entity@@3PAUENTITY@@A ; gunship_entity
  00238	74 09		 je	 SHORT $LN7@response_t

; 2331 : 	 lower_client_server_entity_undercarriage (receiver);

  0023a	8b 45 0c	 mov	 eax, DWORD PTR _receiver$[ebp]
  0023d	50		 push	 eax
  0023e	e8 00 00 00 00	 call	 ?lower_client_server_entity_undercarriage@@YGXPAUENTITY@@@Z ; lower_client_server_entity_undercarriage
$LN7@response_t:

; 2332 : 
; 2333 : 	//
; 2334 : 	// Create a troop group for leader only
; 2335 : 	//
; 2336 : 
; 2337 : 	// work out troop task positions
; 2338 : 
; 2339 : 	get_local_entity_vec3d (receiver, VEC3D_TYPE_POSITION, &start_pos);

  00243	83 7d 0c 00	 cmp	 DWORD PTR _receiver$[ebp], 0
  00247	74 0a		 je	 SHORT $LN27@response_t
  00249	8b 45 0c	 mov	 eax, DWORD PTR _receiver$[ebp]
  0024c	8b 08		 mov	 ecx, DWORD PTR [eax]
  0024e	89 4d 94	 mov	 DWORD PTR tv189[ebp], ecx
  00251	eb 21		 jmp	 SHORT $LN28@response_t
$LN27@response_t:
  00253	8b 15 00 00 00
	00		 mov	 edx, DWORD PTR ?__LINE__Var@?0??response_to_waypoint_troop_insert_reached@@YGHW4ENTITY_MESSAGES@@PAUENTITY@@1PAD@Z@4JA
  00259	83 c2 31	 add	 edx, 49			; 00000031H
  0025c	52		 push	 edx
  0025d	68 00 00 00 00	 push	 OFFSET ??_C@_0EE@DLIIEJCN@c?3?2users?2nhv90?2projects?2eech?2ap@
  00262	a1 00 00 00 00	 mov	 eax, DWORD PTR ?null_entity_pointer_message@@3PBDB ; null_entity_pointer_message
  00267	50		 push	 eax
  00268	e8 00 00 00 00	 call	 ?process_assert@@YGXPBD0H@Z ; process_assert
  0026d	c7 45 94 00 00
	00 00		 mov	 DWORD PTR tv189[ebp], 0
$LN28@response_t:
  00274	b9 01 00 00 00	 mov	 ecx, 1
  00279	85 c9		 test	 ecx, ecx
  0027b	74 09		 je	 SHORT $LN29@response_t
  0027d	c7 45 90 08 00
	00 00		 mov	 DWORD PTR tv197[ebp], 8
  00284	eb 21		 jmp	 SHORT $LN30@response_t
$LN29@response_t:
  00286	8b 15 00 00 00
	00		 mov	 edx, DWORD PTR ?__LINE__Var@?0??response_to_waypoint_troop_insert_reached@@YGHW4ENTITY_MESSAGES@@PAUENTITY@@1PAD@Z@4JA
  0028c	83 c2 31	 add	 edx, 49			; 00000031H
  0028f	52		 push	 edx
  00290	68 00 00 00 00	 push	 OFFSET ??_C@_0EE@DLIIEJCN@c?3?2users?2nhv90?2projects?2eech?2ap@
  00295	a1 00 00 00 00	 mov	 eax, DWORD PTR ?overload_invalid_vec3d_type_message@@3PBDB ; overload_invalid_vec3d_type_message
  0029a	50		 push	 eax
  0029b	e8 00 00 00 00	 call	 ?process_assert@@YGXPBD0H@Z ; process_assert
  002a0	c7 45 90 00 00
	00 00		 mov	 DWORD PTR tv197[ebp], 0
$LN30@response_t:
  002a7	8d 4d f4	 lea	 ecx, DWORD PTR _start_pos$[ebp]
  002aa	51		 push	 ecx
  002ab	6a 08		 push	 8
  002ad	8b 55 0c	 mov	 edx, DWORD PTR _receiver$[ebp]
  002b0	52		 push	 edx
  002b1	6b 45 94 60	 imul	 eax, DWORD PTR tv189[ebp], 96
  002b5	8b 4d 90	 mov	 ecx, DWORD PTR tv197[ebp]
  002b8	8b 94 88 00 00
	00 00		 mov	 edx, DWORD PTR ?fn_get_local_entity_vec3d@@3PAY0BI@P6GXPAUENTITY@@W4VEC3D_TYPES@@PAUVEC3D@@@ZA[eax+ecx*4]
  002bf	ff d2		 call	 edx

; 2340 : 
; 2341 : 	start_pos.y -= get_local_entity_float_value (receiver, FLOAT_TYPE_CENTRE_OF_GRAVITY_TO_GROUND_DISTANCE);

  002c1	83 7d 0c 00	 cmp	 DWORD PTR _receiver$[ebp], 0
  002c5	74 0a		 je	 SHORT $LN31@response_t
  002c7	8b 45 0c	 mov	 eax, DWORD PTR _receiver$[ebp]
  002ca	8b 08		 mov	 ecx, DWORD PTR [eax]
  002cc	89 4d 94	 mov	 DWORD PTR tv209[ebp], ecx
  002cf	eb 21		 jmp	 SHORT $LN32@response_t
$LN31@response_t:
  002d1	8b 15 00 00 00
	00		 mov	 edx, DWORD PTR ?__LINE__Var@?0??response_to_waypoint_troop_insert_reached@@YGHW4ENTITY_MESSAGES@@PAUENTITY@@1PAD@Z@4JA
  002d7	83 c2 33	 add	 edx, 51			; 00000033H
  002da	52		 push	 edx
  002db	68 00 00 00 00	 push	 OFFSET ??_C@_0EE@DLIIEJCN@c?3?2users?2nhv90?2projects?2eech?2ap@
  002e0	a1 00 00 00 00	 mov	 eax, DWORD PTR ?null_entity_pointer_message@@3PBDB ; null_entity_pointer_message
  002e5	50		 push	 eax
  002e6	e8 00 00 00 00	 call	 ?process_assert@@YGXPBD0H@Z ; process_assert
  002eb	c7 45 94 00 00
	00 00		 mov	 DWORD PTR tv209[ebp], 0
$LN32@response_t:
  002f2	b9 01 00 00 00	 mov	 ecx, 1
  002f7	85 c9		 test	 ecx, ecx
  002f9	74 09		 je	 SHORT $LN33@response_t
  002fb	c7 45 90 12 00
	00 00		 mov	 DWORD PTR tv217[ebp], 18 ; 00000012H
  00302	eb 21		 jmp	 SHORT $LN34@response_t
$LN33@response_t:
  00304	8b 15 00 00 00
	00		 mov	 edx, DWORD PTR ?__LINE__Var@?0??response_to_waypoint_troop_insert_reached@@YGHW4ENTITY_MESSAGES@@PAUENTITY@@1PAD@Z@4JA
  0030a	83 c2 33	 add	 edx, 51			; 00000033H
  0030d	52		 push	 edx
  0030e	68 00 00 00 00	 push	 OFFSET ??_C@_0EE@DLIIEJCN@c?3?2users?2nhv90?2projects?2eech?2ap@
  00313	a1 00 00 00 00	 mov	 eax, DWORD PTR ?overload_invalid_float_type_message@@3PBDB ; overload_invalid_float_type_message
  00318	50		 push	 eax
  00319	e8 00 00 00 00	 call	 ?process_assert@@YGXPBD0H@Z ; process_assert
  0031e	c7 45 90 00 00
	00 00		 mov	 DWORD PTR tv217[ebp], 0
$LN34@response_t:
  00325	6a 12		 push	 18			; 00000012H
  00327	8b 4d 0c	 mov	 ecx, DWORD PTR _receiver$[ebp]
  0032a	51		 push	 ecx
  0032b	69 55 94 bc 02
	00 00		 imul	 edx, DWORD PTR tv209[ebp], 700
  00332	8b 45 90	 mov	 eax, DWORD PTR tv217[ebp]
  00335	8b 8c 82 00 00
	00 00		 mov	 ecx, DWORD PTR ?fn_get_local_entity_float_value@@3PAY0KP@P6GMPAUENTITY@@W4FLOAT_TYPES@@@ZA[edx+eax*4]
  0033c	ff d1		 call	 ecx
  0033e	d9 5d 8c	 fstp	 DWORD PTR tv410[ebp]
  00341	f3 0f 10 45 f8	 movss	 xmm0, DWORD PTR _start_pos$[ebp+4]
  00346	f3 0f 5c 45 8c	 subss	 xmm0, DWORD PTR tv410[ebp]
  0034b	f3 0f 11 45 f8	 movss	 DWORD PTR _start_pos$[ebp+4], xmm0

; 2342 : 
; 2343 : 	//
; 2344 : 	// create person
; 2345 : 	//
; 2346 : 
; 2347 : 	group = create_faction_members (keysite,

  00350	6a 00		 push	 0
  00352	6a 01		 push	 1
  00354	8d 45 f4	 lea	 eax, DWORD PTR _start_pos$[ebp]
  00357	50		 push	 eax
  00358	8b 4d e0	 mov	 ecx, DWORD PTR _side$[ebp]
  0035b	51		 push	 ecx
  0035c	6a 08		 push	 8
  0035e	6a 1f		 push	 31			; 0000001fH
  00360	6a 14		 push	 20			; 00000014H
  00362	8b 55 ec	 mov	 edx, DWORD PTR _keysite$[ebp]
  00365	52		 push	 edx
  00366	e8 00 00 00 00	 call	 ?create_faction_members@@YGPAUENTITY@@PAU1@HW4FORMATION_COMPONENT_TYPES@@HW4ENTITY_SIDES@@PAUVEC3D@@HH@Z ; create_faction_members
  0036b	89 45 f0	 mov	 DWORD PTR _group$[ebp], eax

; 2348 : 												ENTITY_SUB_TYPE_GROUP_INFANTRY,
; 2349 : 												FORMATION_COMPONENT_INFANTRY,
; 2350 : 												8,
; 2351 : 												side,
; 2352 : 												&start_pos,
; 2353 : 												TRUE,
; 2354 : 												FALSE);
; 2355 : 
; 2356 : 	if (group)

  0036e	83 7d f0 00	 cmp	 DWORD PTR _group$[ebp], 0
  00372	0f 84 b3 02 00
	00		 je	 $LN3@response_t

; 2357 : 	{
; 2358 : 		add_group_to_division (group, NULL);

  00378	6a 00		 push	 0
  0037a	8b 45 f0	 mov	 eax, DWORD PTR _group$[ebp]
  0037d	50		 push	 eax
  0037e	e8 00 00 00 00	 call	 ?add_group_to_division@@YGPAUENTITY@@PAU1@0@Z ; add_group_to_division

; 2359 : 
; 2360 : 		new_task = create_troop_movement_capture_task (side, &start_pos, insert_task, keysite, receiver);

  00383	8b 45 0c	 mov	 eax, DWORD PTR _receiver$[ebp]
  00386	50		 push	 eax
  00387	8b 4d ec	 mov	 ecx, DWORD PTR _keysite$[ebp]
  0038a	51		 push	 ecx
  0038b	8b 55 e4	 mov	 edx, DWORD PTR _insert_task$[ebp]
  0038e	52		 push	 edx
  0038f	8d 45 f4	 lea	 eax, DWORD PTR _start_pos$[ebp]
  00392	50		 push	 eax
  00393	8b 4d e0	 mov	 ecx, DWORD PTR _side$[ebp]
  00396	51		 push	 ecx
  00397	e8 00 00 00 00	 call	 ?create_troop_movement_capture_task@@YGPAUENTITY@@W4ENTITY_SIDES@@PAUVEC3D@@PAU1@22@Z ; create_troop_movement_capture_task
  0039c	89 45 e8	 mov	 DWORD PTR _new_task$[ebp], eax

; 2361 : 
; 2362 : 		// assign task
; 2363 : 	
; 2364 : 		if (new_task)

  0039f	83 7d e8 00	 cmp	 DWORD PTR _new_task$[ebp], 0
  003a3	0f 84 82 02 00
	00		 je	 $LN3@response_t

; 2365 : 		{
; 2366 : 			if (!assign_task_to_group (group, new_task, TASK_ASSIGN_ALL_MEMBERS))

  003a9	6a ff		 push	 -1
  003ab	8b 45 e8	 mov	 eax, DWORD PTR _new_task$[ebp]
  003ae	50		 push	 eax
  003af	8b 4d f0	 mov	 ecx, DWORD PTR _group$[ebp]
  003b2	51		 push	 ecx
  003b3	e8 00 00 00 00	 call	 ?assign_task_to_group@@YGHPAUENTITY@@0I@Z ; assign_task_to_group
  003b8	85 c0		 test	 eax, eax
  003ba	75 28		 jne	 SHORT $LN10@response_t

; 2367 : 			{
; 2368 : 				#ifdef DEBUG
; 2369 : 
; 2370 : 				breakout (NULL);

  003bc	6a 00		 push	 0
  003be	e8 00 00 00 00	 call	 ?breakout@@YGXPAUEVENT@@@Z ; breakout

; 2371 : 
; 2372 : 				assign_task_to_group (group, new_task, TASK_ASSIGN_ALL_MEMBERS);

  003c3	6a ff		 push	 -1
  003c5	8b 45 e8	 mov	 eax, DWORD PTR _new_task$[ebp]
  003c8	50		 push	 eax
  003c9	8b 4d f0	 mov	 ecx, DWORD PTR _group$[ebp]
  003cc	51		 push	 ecx
  003cd	e8 00 00 00 00	 call	 ?assign_task_to_group@@YGHPAUENTITY@@0I@Z ; assign_task_to_group

; 2373 : 
; 2374 : 				debug_fatal ("MB_MSGS: can't assign person to its task");

  003d2	68 00 00 00 00	 push	 OFFSET ??_C@_0CJ@JBLDDPLM@MB_MSGS?3?5can?8t?5assign?5person?5to@
  003d7	e8 00 00 00 00	 call	 ?debug_fatal@@YAXPBDZZ	; debug_fatal
  003dc	83 c4 04	 add	 esp, 4

; 2375 : 
; 2376 : 				#endif
; 2377 : 			}
; 2378 : 			else

  003df	e9 47 02 00 00	 jmp	 $LN3@response_t
$LN10@response_t:

; 2379 : 			{
; 2380 : 				entity
; 2381 : 					*mb;
; 2382 : 
; 2383 : 				float
; 2384 : 					sleep;
; 2385 : 
; 2386 : 				mb = get_local_entity_first_child (group, LIST_TYPE_MEMBER);

  003e4	83 7d f0 00	 cmp	 DWORD PTR _group$[ebp], 0
  003e8	74 0a		 je	 SHORT $LN35@response_t
  003ea	8b 45 f0	 mov	 eax, DWORD PTR _group$[ebp]
  003ed	8b 08		 mov	 ecx, DWORD PTR [eax]
  003ef	89 4d 94	 mov	 DWORD PTR tv259[ebp], ecx
  003f2	eb 21		 jmp	 SHORT $LN36@response_t
$LN35@response_t:
  003f4	8b 15 00 00 00
	00		 mov	 edx, DWORD PTR ?__LINE__Var@?0??response_to_waypoint_troop_insert_reached@@YGHW4ENTITY_MESSAGES@@PAUENTITY@@1PAD@Z@4JA
  003fa	83 c2 60	 add	 edx, 96			; 00000060H
  003fd	52		 push	 edx
  003fe	68 00 00 00 00	 push	 OFFSET ??_C@_0EE@DLIIEJCN@c?3?2users?2nhv90?2projects?2eech?2ap@
  00403	a1 00 00 00 00	 mov	 eax, DWORD PTR ?null_entity_pointer_message@@3PBDB ; null_entity_pointer_message
  00408	50		 push	 eax
  00409	e8 00 00 00 00	 call	 ?process_assert@@YGXPBD0H@Z ; process_assert
  0040e	c7 45 94 00 00
	00 00		 mov	 DWORD PTR tv259[ebp], 0
$LN36@response_t:
  00415	b9 01 00 00 00	 mov	 ecx, 1
  0041a	85 c9		 test	 ecx, ecx
  0041c	74 09		 je	 SHORT $LN37@response_t
  0041e	c7 45 90 19 00
	00 00		 mov	 DWORD PTR tv267[ebp], 25 ; 00000019H
  00425	eb 21		 jmp	 SHORT $LN38@response_t
$LN37@response_t:
  00427	8b 15 00 00 00
	00		 mov	 edx, DWORD PTR ?__LINE__Var@?0??response_to_waypoint_troop_insert_reached@@YGHW4ENTITY_MESSAGES@@PAUENTITY@@1PAD@Z@4JA
  0042d	83 c2 60	 add	 edx, 96			; 00000060H
  00430	52		 push	 edx
  00431	68 00 00 00 00	 push	 OFFSET ??_C@_0EE@DLIIEJCN@c?3?2users?2nhv90?2projects?2eech?2ap@
  00436	a1 00 00 00 00	 mov	 eax, DWORD PTR ?overload_invalid_list_type_message@@3PBDB ; overload_invalid_list_type_message
  0043b	50		 push	 eax
  0043c	e8 00 00 00 00	 call	 ?process_assert@@YGXPBD0H@Z ; process_assert
  00441	c7 45 90 00 00
	00 00		 mov	 DWORD PTR tv267[ebp], 0
$LN38@response_t:
  00448	6a 19		 push	 25			; 00000019H
  0044a	8b 4d f0	 mov	 ecx, DWORD PTR _group$[ebp]
  0044d	51		 push	 ecx
  0044e	69 55 94 b4 00
	00 00		 imul	 edx, DWORD PTR tv259[ebp], 180
  00455	8b 45 90	 mov	 eax, DWORD PTR tv267[ebp]
  00458	8b 8c 82 00 00
	00 00		 mov	 ecx, DWORD PTR ?fn_get_local_entity_first_child@@3PAY0CN@P6GPAUENTITY@@PAU1@W4LIST_TYPES@@@ZA[edx+eax*4]
  0045f	ff d1		 call	 ecx
  00461	89 45 dc	 mov	 DWORD PTR _mb$2[ebp], eax

; 2387 : 
; 2388 : 				sleep = 0.0;

  00464	0f 57 c0	 xorps	 xmm0, xmm0
  00467	f3 0f 11 45 d8	 movss	 DWORD PTR _sleep$1[ebp], xmm0
$LN2@response_t:

; 2389 : 		
; 2390 : 				while (mb)

  0046c	83 7d dc 00	 cmp	 DWORD PTR _mb$2[ebp], 0
  00470	0f 84 b5 01 00
	00		 je	 $LN3@response_t

; 2391 : 				{
; 2392 : 					sleep += 0.5;

  00476	f3 0f 5a 45 d8	 cvtss2sd xmm0, DWORD PTR _sleep$1[ebp]
  0047b	f2 0f 58 05 00
	00 00 00	 addsd	 xmm0, QWORD PTR __real@3fe0000000000000
  00483	f2 0f 5a c0	 cvtsd2ss xmm0, xmm0
  00487	f3 0f 11 45 d8	 movss	 DWORD PTR _sleep$1[ebp], xmm0

; 2393 : 				
; 2394 : 					// delay members to stagger their decend out of the helicopter
; 2395 : 					set_client_server_entity_float_value (mb, FLOAT_TYPE_SLEEP, sleep);

  0048c	83 7d dc 00	 cmp	 DWORD PTR _mb$2[ebp], 0
  00490	74 0a		 je	 SHORT $LN39@response_t
  00492	8b 45 dc	 mov	 eax, DWORD PTR _mb$2[ebp]
  00495	8b 08		 mov	 ecx, DWORD PTR [eax]
  00497	89 4d 94	 mov	 DWORD PTR tv283[ebp], ecx
  0049a	eb 21		 jmp	 SHORT $LN40@response_t
$LN39@response_t:
  0049c	8b 15 00 00 00
	00		 mov	 edx, DWORD PTR ?__LINE__Var@?0??response_to_waypoint_troop_insert_reached@@YGHW4ENTITY_MESSAGES@@PAUENTITY@@1PAD@Z@4JA
  004a2	83 c2 69	 add	 edx, 105		; 00000069H
  004a5	52		 push	 edx
  004a6	68 00 00 00 00	 push	 OFFSET ??_C@_0EE@DLIIEJCN@c?3?2users?2nhv90?2projects?2eech?2ap@
  004ab	a1 00 00 00 00	 mov	 eax, DWORD PTR ?null_entity_pointer_message@@3PBDB ; null_entity_pointer_message
  004b0	50		 push	 eax
  004b1	e8 00 00 00 00	 call	 ?process_assert@@YGXPBD0H@Z ; process_assert
  004b6	c7 45 94 00 00
	00 00		 mov	 DWORD PTR tv283[ebp], 0
$LN40@response_t:
  004bd	b9 01 00 00 00	 mov	 ecx, 1
  004c2	85 c9		 test	 ecx, ecx
  004c4	74 09		 je	 SHORT $LN41@response_t
  004c6	c7 45 90 75 00
	00 00		 mov	 DWORD PTR tv291[ebp], 117 ; 00000075H
  004cd	eb 21		 jmp	 SHORT $LN42@response_t
$LN41@response_t:
  004cf	8b 15 00 00 00
	00		 mov	 edx, DWORD PTR ?__LINE__Var@?0??response_to_waypoint_troop_insert_reached@@YGHW4ENTITY_MESSAGES@@PAUENTITY@@1PAD@Z@4JA
  004d5	83 c2 69	 add	 edx, 105		; 00000069H
  004d8	52		 push	 edx
  004d9	68 00 00 00 00	 push	 OFFSET ??_C@_0EE@DLIIEJCN@c?3?2users?2nhv90?2projects?2eech?2ap@
  004de	a1 00 00 00 00	 mov	 eax, DWORD PTR ?overload_invalid_float_type_message@@3PBDB ; overload_invalid_float_type_message
  004e3	50		 push	 eax
  004e4	e8 00 00 00 00	 call	 ?process_assert@@YGXPBD0H@Z ; process_assert
  004e9	c7 45 90 00 00
	00 00		 mov	 DWORD PTR tv291[ebp], 0
$LN42@response_t:
  004f0	51		 push	 ecx
  004f1	f3 0f 10 45 d8	 movss	 xmm0, DWORD PTR _sleep$1[ebp]
  004f6	f3 0f 11 04 24	 movss	 DWORD PTR [esp], xmm0
  004fb	6a 75		 push	 117			; 00000075H
  004fd	8b 4d dc	 mov	 ecx, DWORD PTR _mb$2[ebp]
  00500	51		 push	 ecx
  00501	69 55 94 78 05
	00 00		 imul	 edx, DWORD PTR tv283[ebp], 1400
  00508	8b 45 90	 mov	 eax, DWORD PTR tv291[ebp]
  0050b	8d 8c c2 00 00
	00 00		 lea	 ecx, DWORD PTR ?fn_set_client_server_entity_float_value@@3PAY1KP@1P6GXPAUENTITY@@W4FLOAT_TYPES@@M@ZA[edx+eax*8]
  00512	8b 15 00 00 00
	00		 mov	 edx, DWORD PTR ?system_comms_model@@3W4COMMS_MODEL_TYPES@@A ; system_comms_model
  00518	8b 04 91	 mov	 eax, DWORD PTR [ecx+edx*4]
  0051b	ff d0		 call	 eax

; 2396 : 
; 2397 : 					// get them inside the helicopter
; 2398 : 					set_client_server_entity_vec3d (mb, VEC3D_TYPE_POSITION, &start_pos);

  0051d	83 7d dc 00	 cmp	 DWORD PTR _mb$2[ebp], 0
  00521	74 0a		 je	 SHORT $LN43@response_t
  00523	8b 45 dc	 mov	 eax, DWORD PTR _mb$2[ebp]
  00526	8b 08		 mov	 ecx, DWORD PTR [eax]
  00528	89 4d 94	 mov	 DWORD PTR tv305[ebp], ecx
  0052b	eb 21		 jmp	 SHORT $LN44@response_t
$LN43@response_t:
  0052d	8b 15 00 00 00
	00		 mov	 edx, DWORD PTR ?__LINE__Var@?0??response_to_waypoint_troop_insert_reached@@YGHW4ENTITY_MESSAGES@@PAUENTITY@@1PAD@Z@4JA
  00533	83 c2 6c	 add	 edx, 108		; 0000006cH
  00536	52		 push	 edx
  00537	68 00 00 00 00	 push	 OFFSET ??_C@_0EE@DLIIEJCN@c?3?2users?2nhv90?2projects?2eech?2ap@
  0053c	a1 00 00 00 00	 mov	 eax, DWORD PTR ?null_entity_pointer_message@@3PBDB ; null_entity_pointer_message
  00541	50		 push	 eax
  00542	e8 00 00 00 00	 call	 ?process_assert@@YGXPBD0H@Z ; process_assert
  00547	c7 45 94 00 00
	00 00		 mov	 DWORD PTR tv305[ebp], 0
$LN44@response_t:
  0054e	b9 01 00 00 00	 mov	 ecx, 1
  00553	85 c9		 test	 ecx, ecx
  00555	74 09		 je	 SHORT $LN45@response_t
  00557	c7 45 90 08 00
	00 00		 mov	 DWORD PTR tv313[ebp], 8
  0055e	eb 21		 jmp	 SHORT $LN46@response_t
$LN45@response_t:
  00560	8b 15 00 00 00
	00		 mov	 edx, DWORD PTR ?__LINE__Var@?0??response_to_waypoint_troop_insert_reached@@YGHW4ENTITY_MESSAGES@@PAUENTITY@@1PAD@Z@4JA
  00566	83 c2 6c	 add	 edx, 108		; 0000006cH
  00569	52		 push	 edx
  0056a	68 00 00 00 00	 push	 OFFSET ??_C@_0EE@DLIIEJCN@c?3?2users?2nhv90?2projects?2eech?2ap@
  0056f	a1 00 00 00 00	 mov	 eax, DWORD PTR ?overload_invalid_vec3d_type_message@@3PBDB ; overload_invalid_vec3d_type_message
  00574	50		 push	 eax
  00575	e8 00 00 00 00	 call	 ?process_assert@@YGXPBD0H@Z ; process_assert
  0057a	c7 45 90 00 00
	00 00		 mov	 DWORD PTR tv313[ebp], 0
$LN46@response_t:
  00581	8d 4d f4	 lea	 ecx, DWORD PTR _start_pos$[ebp]
  00584	51		 push	 ecx
  00585	6a 08		 push	 8
  00587	8b 55 dc	 mov	 edx, DWORD PTR _mb$2[ebp]
  0058a	52		 push	 edx
  0058b	69 45 94 c0 00
	00 00		 imul	 eax, DWORD PTR tv305[ebp], 192
  00592	8b 4d 90	 mov	 ecx, DWORD PTR tv313[ebp]
  00595	8d 94 c8 00 00
	00 00		 lea	 edx, DWORD PTR ?fn_set_client_server_entity_vec3d@@3PAY1BI@1P6GXPAUENTITY@@W4VEC3D_TYPES@@PAUVEC3D@@@ZA[eax+ecx*8]
  0059c	a1 00 00 00 00	 mov	 eax, DWORD PTR ?system_comms_model@@3W4COMMS_MODEL_TYPES@@A ; system_comms_model
  005a1	8b 0c 82	 mov	 ecx, DWORD PTR [edx+eax*4]
  005a4	ff d1		 call	 ecx

; 2399 : 		
; 2400 : 					mb = get_local_entity_child_succ (mb, LIST_TYPE_MEMBER);

  005a6	83 7d dc 00	 cmp	 DWORD PTR _mb$2[ebp], 0
  005aa	74 0a		 je	 SHORT $LN47@response_t
  005ac	8b 45 dc	 mov	 eax, DWORD PTR _mb$2[ebp]
  005af	8b 08		 mov	 ecx, DWORD PTR [eax]
  005b1	89 4d 94	 mov	 DWORD PTR tv327[ebp], ecx
  005b4	eb 21		 jmp	 SHORT $LN48@response_t
$LN47@response_t:
  005b6	8b 15 00 00 00
	00		 mov	 edx, DWORD PTR ?__LINE__Var@?0??response_to_waypoint_troop_insert_reached@@YGHW4ENTITY_MESSAGES@@PAUENTITY@@1PAD@Z@4JA
  005bc	83 c2 6e	 add	 edx, 110		; 0000006eH
  005bf	52		 push	 edx
  005c0	68 00 00 00 00	 push	 OFFSET ??_C@_0EE@DLIIEJCN@c?3?2users?2nhv90?2projects?2eech?2ap@
  005c5	a1 00 00 00 00	 mov	 eax, DWORD PTR ?null_entity_pointer_message@@3PBDB ; null_entity_pointer_message
  005ca	50		 push	 eax
  005cb	e8 00 00 00 00	 call	 ?process_assert@@YGXPBD0H@Z ; process_assert
  005d0	c7 45 94 00 00
	00 00		 mov	 DWORD PTR tv327[ebp], 0
$LN48@response_t:
  005d7	b9 01 00 00 00	 mov	 ecx, 1
  005dc	85 c9		 test	 ecx, ecx
  005de	74 09		 je	 SHORT $LN49@response_t
  005e0	c7 45 90 19 00
	00 00		 mov	 DWORD PTR tv335[ebp], 25 ; 00000019H
  005e7	eb 21		 jmp	 SHORT $LN50@response_t
$LN49@response_t:
  005e9	8b 15 00 00 00
	00		 mov	 edx, DWORD PTR ?__LINE__Var@?0??response_to_waypoint_troop_insert_reached@@YGHW4ENTITY_MESSAGES@@PAUENTITY@@1PAD@Z@4JA
  005ef	83 c2 6e	 add	 edx, 110		; 0000006eH
  005f2	52		 push	 edx
  005f3	68 00 00 00 00	 push	 OFFSET ??_C@_0EE@DLIIEJCN@c?3?2users?2nhv90?2projects?2eech?2ap@
  005f8	a1 00 00 00 00	 mov	 eax, DWORD PTR ?overload_invalid_list_type_message@@3PBDB ; overload_invalid_list_type_message
  005fd	50		 push	 eax
  005fe	e8 00 00 00 00	 call	 ?process_assert@@YGXPBD0H@Z ; process_assert
  00603	c7 45 90 00 00
	00 00		 mov	 DWORD PTR tv335[ebp], 0
$LN50@response_t:
  0060a	6a 19		 push	 25			; 00000019H
  0060c	8b 4d dc	 mov	 ecx, DWORD PTR _mb$2[ebp]
  0060f	51		 push	 ecx
  00610	69 55 94 b4 00
	00 00		 imul	 edx, DWORD PTR tv327[ebp], 180
  00617	8b 45 90	 mov	 eax, DWORD PTR tv335[ebp]
  0061a	8b 8c 82 00 00
	00 00		 mov	 ecx, DWORD PTR ?fn_get_local_entity_child_succ@@3PAY0CN@P6GPAUENTITY@@PAU1@W4LIST_TYPES@@@ZA[edx+eax*4]
  00621	ff d1		 call	 ecx
  00623	89 45 dc	 mov	 DWORD PTR _mb$2[ebp], eax

; 2401 : 				}

  00626	e9 41 fe ff ff	 jmp	 $LN2@response_t
$LN3@response_t:

; 2402 : 			}
; 2403 : 		}
; 2404 : 	
; 2405 : 		/////////////////////////////////////////////////////////////////
; 2406 : 		//
; 2407 : 		// SPECIAL_EFFECT_HOOK FOR TROOP INSERT REACHED
; 2408 : 		//
; 2409 : 		/////////////////////////////////////////////////////////////////
; 2410 : 	
; 2411 : 		/////////////////////////////////////////////////////////////////
; 2412 : 		//
; 2413 : 		//
; 2414 : 		/////////////////////////////////////////////////////////////////
; 2415 : 	}
; 2416 : 
; 2417 : 	return (TRUE);

  0062b	b8 01 00 00 00	 mov	 eax, 1

; 2418 : }

  00630	5f		 pop	 edi
  00631	5e		 pop	 esi
  00632	5b		 pop	 ebx
  00633	8b e5		 mov	 esp, ebp
  00635	5d		 pop	 ebp
  00636	c2 10 00	 ret	 16			; 00000010H
?response_to_waypoint_troop_insert_reached@@YGHW4ENTITY_MESSAGES@@PAUENTITY@@1PAD@Z ENDP ; response_to_waypoint_troop_insert_reached
_TEXT	ENDS
; Function compile flags: /Odtp /ZI
; File c:\users\nhv90\projects\eech\aphavoc\source\entity\mobile\mb_msgs.c
;	COMDAT ?response_to_waypoint_troop_defend_reached@@YGHW4ENTITY_MESSAGES@@PAUENTITY@@1PAD@Z
_TEXT	SEGMENT
tv152 = -80						; size = 4
tv132 = -80						; size = 4
tv144 = -76						; size = 4
tv92 = -76						; size = 4
tv75 = -76						; size = 4
_group$ = -8						; size = 4
_task$ = -4						; size = 4
_message$ = 8						; size = 4
_receiver$ = 12						; size = 4
_sender$ = 16						; size = 4
_pargs$ = 20						; size = 4
?response_to_waypoint_troop_defend_reached@@YGHW4ENTITY_MESSAGES@@PAUENTITY@@1PAD@Z PROC ; response_to_waypoint_troop_defend_reached, COMDAT

; 2265 : {

  00000	55		 push	 ebp
  00001	8b ec		 mov	 ebp, esp
  00003	83 ec 50	 sub	 esp, 80			; 00000050H
  00006	53		 push	 ebx
  00007	56		 push	 esi
  00008	57		 push	 edi

; 2266 : 	entity
; 2267 : 		*task,
; 2268 : 		*group;
; 2269 : 
; 2270 : 	ASSERT (sender);

  00009	83 7d 10 00	 cmp	 DWORD PTR _sender$[ebp], 0
  0000d	75 18		 jne	 SHORT $LN2@response_t
  0000f	a1 00 00 00 00	 mov	 eax, DWORD PTR ?__LINE__Var@?0??response_to_waypoint_troop_defend_reached@@YGHW4ENTITY_MESSAGES@@PAUENTITY@@1PAD@Z@4JA
  00014	83 c0 05	 add	 eax, 5
  00017	50		 push	 eax
  00018	68 00 00 00 00	 push	 OFFSET ??_C@_0EE@DLIIEJCN@c?3?2users?2nhv90?2projects?2eech?2ap@
  0001d	68 00 00 00 00	 push	 OFFSET ??_C@_06CGHJMPBJ@sender@
  00022	e8 00 00 00 00	 call	 ?process_assert@@YGXPBD0H@Z ; process_assert
$LN2@response_t:

; 2271 : 
; 2272 : 	ASSERT (get_local_entity_type (sender) == ENTITY_TYPE_WAYPOINT);

  00027	83 7d 10 00	 cmp	 DWORD PTR _sender$[ebp], 0
  0002b	74 0a		 je	 SHORT $LN6@response_t
  0002d	8b 45 10	 mov	 eax, DWORD PTR _sender$[ebp]
  00030	8b 08		 mov	 ecx, DWORD PTR [eax]
  00032	89 4d b4	 mov	 DWORD PTR tv75[ebp], ecx
  00035	eb 21		 jmp	 SHORT $LN7@response_t
$LN6@response_t:
  00037	8b 15 00 00 00
	00		 mov	 edx, DWORD PTR ?__LINE__Var@?0??response_to_waypoint_troop_defend_reached@@YGHW4ENTITY_MESSAGES@@PAUENTITY@@1PAD@Z@4JA
  0003d	83 c2 07	 add	 edx, 7
  00040	52		 push	 edx
  00041	68 00 00 00 00	 push	 OFFSET ??_C@_0EE@DLIIEJCN@c?3?2users?2nhv90?2projects?2eech?2ap@
  00046	a1 00 00 00 00	 mov	 eax, DWORD PTR ?null_entity_pointer_message@@3PBDB ; null_entity_pointer_message
  0004b	50		 push	 eax
  0004c	e8 00 00 00 00	 call	 ?process_assert@@YGXPBD0H@Z ; process_assert
  00051	c7 45 b4 00 00
	00 00		 mov	 DWORD PTR tv75[ebp], 0
$LN7@response_t:
  00058	83 7d b4 24	 cmp	 DWORD PTR tv75[ebp], 36	; 00000024H
  0005c	74 18		 je	 SHORT $LN3@response_t
  0005e	a1 00 00 00 00	 mov	 eax, DWORD PTR ?__LINE__Var@?0??response_to_waypoint_troop_defend_reached@@YGHW4ENTITY_MESSAGES@@PAUENTITY@@1PAD@Z@4JA
  00063	83 c0 07	 add	 eax, 7
  00066	50		 push	 eax
  00067	68 00 00 00 00	 push	 OFFSET ??_C@_0EE@DLIIEJCN@c?3?2users?2nhv90?2projects?2eech?2ap@
  0006c	68 00 00 00 00	 push	 OFFSET ??_C@_0DH@NBKEDIK@get_local_entity_type?5?$CIsender?$CJ?5@
  00071	e8 00 00 00 00	 call	 ?process_assert@@YGXPBD0H@Z ; process_assert
$LN3@response_t:

; 2273 : 
; 2274 : 	ASSERT (get_comms_model () == COMMS_MODEL_SERVER);

  00076	83 3d 00 00 00
	00 00		 cmp	 DWORD PTR ?system_comms_model@@3W4COMMS_MODEL_TYPES@@A, 0 ; system_comms_model
  0007d	74 18		 je	 SHORT $LN4@response_t
  0007f	a1 00 00 00 00	 mov	 eax, DWORD PTR ?__LINE__Var@?0??response_to_waypoint_troop_defend_reached@@YGHW4ENTITY_MESSAGES@@PAUENTITY@@1PAD@Z@4JA
  00084	83 c0 09	 add	 eax, 9
  00087	50		 push	 eax
  00088	68 00 00 00 00	 push	 OFFSET ??_C@_0EE@DLIIEJCN@c?3?2users?2nhv90?2projects?2eech?2ap@
  0008d	68 00 00 00 00	 push	 OFFSET ??_C@_0CJ@DMBLBJBK@get_comms_model?5?$CI?$CJ?5?$DN?$DN?5COMMS_MOD@
  00092	e8 00 00 00 00	 call	 ?process_assert@@YGXPBD0H@Z ; process_assert
$LN4@response_t:

; 2275 : 
; 2276 : 	group = get_local_entity_parent (receiver, LIST_TYPE_MEMBER);

  00097	83 7d 0c 00	 cmp	 DWORD PTR _receiver$[ebp], 0
  0009b	74 0a		 je	 SHORT $LN8@response_t
  0009d	8b 45 0c	 mov	 eax, DWORD PTR _receiver$[ebp]
  000a0	8b 08		 mov	 ecx, DWORD PTR [eax]
  000a2	89 4d b4	 mov	 DWORD PTR tv92[ebp], ecx
  000a5	eb 21		 jmp	 SHORT $LN9@response_t
$LN8@response_t:
  000a7	8b 15 00 00 00
	00		 mov	 edx, DWORD PTR ?__LINE__Var@?0??response_to_waypoint_troop_defend_reached@@YGHW4ENTITY_MESSAGES@@PAUENTITY@@1PAD@Z@4JA
  000ad	83 c2 0b	 add	 edx, 11			; 0000000bH
  000b0	52		 push	 edx
  000b1	68 00 00 00 00	 push	 OFFSET ??_C@_0EE@DLIIEJCN@c?3?2users?2nhv90?2projects?2eech?2ap@
  000b6	a1 00 00 00 00	 mov	 eax, DWORD PTR ?null_entity_pointer_message@@3PBDB ; null_entity_pointer_message
  000bb	50		 push	 eax
  000bc	e8 00 00 00 00	 call	 ?process_assert@@YGXPBD0H@Z ; process_assert
  000c1	c7 45 b4 00 00
	00 00		 mov	 DWORD PTR tv92[ebp], 0
$LN9@response_t:
  000c8	b9 01 00 00 00	 mov	 ecx, 1
  000cd	85 c9		 test	 ecx, ecx
  000cf	74 09		 je	 SHORT $LN10@response_t
  000d1	c7 45 b0 19 00
	00 00		 mov	 DWORD PTR tv132[ebp], 25 ; 00000019H
  000d8	eb 21		 jmp	 SHORT $LN11@response_t
$LN10@response_t:
  000da	8b 15 00 00 00
	00		 mov	 edx, DWORD PTR ?__LINE__Var@?0??response_to_waypoint_troop_defend_reached@@YGHW4ENTITY_MESSAGES@@PAUENTITY@@1PAD@Z@4JA
  000e0	83 c2 0b	 add	 edx, 11			; 0000000bH
  000e3	52		 push	 edx
  000e4	68 00 00 00 00	 push	 OFFSET ??_C@_0EE@DLIIEJCN@c?3?2users?2nhv90?2projects?2eech?2ap@
  000e9	a1 00 00 00 00	 mov	 eax, DWORD PTR ?overload_invalid_list_type_message@@3PBDB ; overload_invalid_list_type_message
  000ee	50		 push	 eax
  000ef	e8 00 00 00 00	 call	 ?process_assert@@YGXPBD0H@Z ; process_assert
  000f4	c7 45 b0 00 00
	00 00		 mov	 DWORD PTR tv132[ebp], 0
$LN11@response_t:
  000fb	6a 19		 push	 25			; 00000019H
  000fd	8b 4d 0c	 mov	 ecx, DWORD PTR _receiver$[ebp]
  00100	51		 push	 ecx
  00101	69 55 b4 b4 00
	00 00		 imul	 edx, DWORD PTR tv92[ebp], 180
  00108	8b 45 b0	 mov	 eax, DWORD PTR tv132[ebp]
  0010b	8b 8c 82 00 00
	00 00		 mov	 ecx, DWORD PTR ?fn_get_local_entity_parent@@3PAY0CN@P6GPAUENTITY@@PAU1@W4LIST_TYPES@@@ZA[edx+eax*4]
  00112	ff d1		 call	 ecx
  00114	89 45 f8	 mov	 DWORD PTR _group$[ebp], eax

; 2277 : 
; 2278 : 	task = get_local_entity_parent (sender, LIST_TYPE_WAYPOINT);

  00117	83 7d 10 00	 cmp	 DWORD PTR _sender$[ebp], 0
  0011b	74 0a		 je	 SHORT $LN12@response_t
  0011d	8b 45 10	 mov	 eax, DWORD PTR _sender$[ebp]
  00120	8b 08		 mov	 ecx, DWORD PTR [eax]
  00122	89 4d b4	 mov	 DWORD PTR tv144[ebp], ecx
  00125	eb 21		 jmp	 SHORT $LN13@response_t
$LN12@response_t:
  00127	8b 15 00 00 00
	00		 mov	 edx, DWORD PTR ?__LINE__Var@?0??response_to_waypoint_troop_defend_reached@@YGHW4ENTITY_MESSAGES@@PAUENTITY@@1PAD@Z@4JA
  0012d	83 c2 0d	 add	 edx, 13			; 0000000dH
  00130	52		 push	 edx
  00131	68 00 00 00 00	 push	 OFFSET ??_C@_0EE@DLIIEJCN@c?3?2users?2nhv90?2projects?2eech?2ap@
  00136	a1 00 00 00 00	 mov	 eax, DWORD PTR ?null_entity_pointer_message@@3PBDB ; null_entity_pointer_message
  0013b	50		 push	 eax
  0013c	e8 00 00 00 00	 call	 ?process_assert@@YGXPBD0H@Z ; process_assert
  00141	c7 45 b4 00 00
	00 00		 mov	 DWORD PTR tv144[ebp], 0
$LN13@response_t:
  00148	b9 01 00 00 00	 mov	 ecx, 1
  0014d	85 c9		 test	 ecx, ecx
  0014f	74 09		 je	 SHORT $LN14@response_t
  00151	c7 45 b0 2c 00
	00 00		 mov	 DWORD PTR tv152[ebp], 44 ; 0000002cH
  00158	eb 21		 jmp	 SHORT $LN15@response_t
$LN14@response_t:
  0015a	8b 15 00 00 00
	00		 mov	 edx, DWORD PTR ?__LINE__Var@?0??response_to_waypoint_troop_defend_reached@@YGHW4ENTITY_MESSAGES@@PAUENTITY@@1PAD@Z@4JA
  00160	83 c2 0d	 add	 edx, 13			; 0000000dH
  00163	52		 push	 edx
  00164	68 00 00 00 00	 push	 OFFSET ??_C@_0EE@DLIIEJCN@c?3?2users?2nhv90?2projects?2eech?2ap@
  00169	a1 00 00 00 00	 mov	 eax, DWORD PTR ?overload_invalid_list_type_message@@3PBDB ; overload_invalid_list_type_message
  0016e	50		 push	 eax
  0016f	e8 00 00 00 00	 call	 ?process_assert@@YGXPBD0H@Z ; process_assert
  00174	c7 45 b0 00 00
	00 00		 mov	 DWORD PTR tv152[ebp], 0
$LN15@response_t:
  0017b	6a 2c		 push	 44			; 0000002cH
  0017d	8b 4d 10	 mov	 ecx, DWORD PTR _sender$[ebp]
  00180	51		 push	 ecx
  00181	69 55 b4 b4 00
	00 00		 imul	 edx, DWORD PTR tv144[ebp], 180
  00188	8b 45 b0	 mov	 eax, DWORD PTR tv152[ebp]
  0018b	8b 8c 82 00 00
	00 00		 mov	 ecx, DWORD PTR ?fn_get_local_entity_parent@@3PAY0CN@P6GPAUENTITY@@PAU1@W4LIST_TYPES@@@ZA[edx+eax*4]
  00192	ff d1		 call	 ecx
  00194	89 45 fc	 mov	 DWORD PTR _task$[ebp], eax

; 2279 : 
; 2280 : 	notify_local_entity (ENTITY_MESSAGE_TASK_TERMINATED, task, receiver, TASK_TERMINATED_WAYPOINT_ROUTE_COMPLETE);

  00197	6a 06		 push	 6
  00199	8b 45 0c	 mov	 eax, DWORD PTR _receiver$[ebp]
  0019c	50		 push	 eax
  0019d	8b 4d fc	 mov	 ecx, DWORD PTR _task$[ebp]
  001a0	51		 push	 ecx
  001a1	6a 36		 push	 54			; 00000036H
  001a3	e8 00 00 00 00	 call	 ?notify_local_entity@@YAHW4ENTITY_MESSAGES@@PAUENTITY@@1ZZ ; notify_local_entity
  001a8	83 c4 10	 add	 esp, 16			; 00000010H

; 2281 : 
; 2282 : 	return (TRUE);

  001ab	b8 01 00 00 00	 mov	 eax, 1

; 2283 : }

  001b0	5f		 pop	 edi
  001b1	5e		 pop	 esi
  001b2	5b		 pop	 ebx
  001b3	8b e5		 mov	 esp, ebp
  001b5	5d		 pop	 ebp
  001b6	c2 10 00	 ret	 16			; 00000010H
?response_to_waypoint_troop_defend_reached@@YGHW4ENTITY_MESSAGES@@PAUENTITY@@1PAD@Z ENDP ; response_to_waypoint_troop_defend_reached
_TEXT	ENDS
; Function compile flags: /Odtp /ZI
; File c:\users\nhv90\projects\eech\aphavoc\source\entity\mobile\mb_msgs.c
;	COMDAT ?response_to_waypoint_troop_capture_reached@@YGHW4ENTITY_MESSAGES@@PAUENTITY@@1PAD@Z
_TEXT	SEGMENT
tv417 = -120						; size = 4
tv386 = -120						; size = 4
tv365 = -120						; size = 4
tv339 = -120						; size = 4
tv319 = -120						; size = 4
tv292 = -120						; size = 4
tv274 = -120						; size = 4
tv254 = -120						; size = 4
tv228 = -120						; size = 4
tv203 = -120						; size = 4
tv177 = -120						; size = 4
tv152 = -120						; size = 4
tv132 = -120						; size = 4
tv409 = -116						; size = 4
tv378 = -116						; size = 4
tv357 = -116						; size = 4
tv331 = -116						; size = 4
tv311 = -116						; size = 4
tv285 = -116						; size = 4
tv266 = -116						; size = 4
tv246 = -116						; size = 4
tv220 = -116						; size = 4
tv195 = -116						; size = 4
tv169 = -116						; size = 4
tv144 = -116						; size = 4
tv92 = -116						; size = 4
tv75 = -116						; size = 4
_minimum$ = -48						; size = 4
_efficiency$ = -44					; size = 4
_losses$ = -40						; size = 4
_member_count$ = -36					; size = 4
_r$ = -32						; size = 4
_d$ = -28						; size = 4
_keysite_type$ = -24					; size = 4
_side$ = -20						; size = 4
_destination_keysite$ = -16				; size = 4
_troop_insertion_task$ = -12				; size = 4
_group$ = -8						; size = 4
_task$ = -4						; size = 4
_message$ = 8						; size = 4
_receiver$ = 12						; size = 4
_sender$ = 16						; size = 4
_pargs$ = 20						; size = 4
?response_to_waypoint_troop_capture_reached@@YGHW4ENTITY_MESSAGES@@PAUENTITY@@1PAD@Z PROC ; response_to_waypoint_troop_capture_reached, COMDAT

; 2153 : {

  00000	55		 push	 ebp
  00001	8b ec		 mov	 ebp, esp
  00003	83 ec 78	 sub	 esp, 120		; 00000078H
  00006	53		 push	 ebx
  00007	56		 push	 esi
  00008	57		 push	 edi

; 2154 : 	entity
; 2155 : 		*task,
; 2156 : 		*group,
; 2157 : 		*troop_insertion_task,
; 2158 : 		*destination_keysite;
; 2159 : 
; 2160 : 	int
; 2161 : 		side,
; 2162 : 		keysite_type;
; 2163 : 
; 2164 : 	float
; 2165 : 		d,
; 2166 : 		r,
; 2167 : 		member_count,
; 2168 : 		losses,
; 2169 : 		efficiency,
; 2170 : 		minimum;
; 2171 : 
; 2172 : 	ASSERT (sender);

  00009	83 7d 10 00	 cmp	 DWORD PTR _sender$[ebp], 0
  0000d	75 18		 jne	 SHORT $LN2@response_t
  0000f	a1 00 00 00 00	 mov	 eax, DWORD PTR ?__LINE__Var@?0??response_to_waypoint_troop_capture_reached@@YGHW4ENTITY_MESSAGES@@PAUENTITY@@1PAD@Z@4JA
  00014	83 c0 13	 add	 eax, 19			; 00000013H
  00017	50		 push	 eax
  00018	68 00 00 00 00	 push	 OFFSET ??_C@_0EE@DLIIEJCN@c?3?2users?2nhv90?2projects?2eech?2ap@
  0001d	68 00 00 00 00	 push	 OFFSET ??_C@_06CGHJMPBJ@sender@
  00022	e8 00 00 00 00	 call	 ?process_assert@@YGXPBD0H@Z ; process_assert
$LN2@response_t:

; 2173 : 
; 2174 : 	ASSERT (get_local_entity_type (sender) == ENTITY_TYPE_WAYPOINT);

  00027	83 7d 10 00	 cmp	 DWORD PTR _sender$[ebp], 0
  0002b	74 0a		 je	 SHORT $LN16@response_t
  0002d	8b 45 10	 mov	 eax, DWORD PTR _sender$[ebp]
  00030	8b 08		 mov	 ecx, DWORD PTR [eax]
  00032	89 4d 8c	 mov	 DWORD PTR tv75[ebp], ecx
  00035	eb 21		 jmp	 SHORT $LN17@response_t
$LN16@response_t:
  00037	8b 15 00 00 00
	00		 mov	 edx, DWORD PTR ?__LINE__Var@?0??response_to_waypoint_troop_capture_reached@@YGHW4ENTITY_MESSAGES@@PAUENTITY@@1PAD@Z@4JA
  0003d	83 c2 15	 add	 edx, 21			; 00000015H
  00040	52		 push	 edx
  00041	68 00 00 00 00	 push	 OFFSET ??_C@_0EE@DLIIEJCN@c?3?2users?2nhv90?2projects?2eech?2ap@
  00046	a1 00 00 00 00	 mov	 eax, DWORD PTR ?null_entity_pointer_message@@3PBDB ; null_entity_pointer_message
  0004b	50		 push	 eax
  0004c	e8 00 00 00 00	 call	 ?process_assert@@YGXPBD0H@Z ; process_assert
  00051	c7 45 8c 00 00
	00 00		 mov	 DWORD PTR tv75[ebp], 0
$LN17@response_t:
  00058	83 7d 8c 24	 cmp	 DWORD PTR tv75[ebp], 36	; 00000024H
  0005c	74 18		 je	 SHORT $LN3@response_t
  0005e	a1 00 00 00 00	 mov	 eax, DWORD PTR ?__LINE__Var@?0??response_to_waypoint_troop_capture_reached@@YGHW4ENTITY_MESSAGES@@PAUENTITY@@1PAD@Z@4JA
  00063	83 c0 15	 add	 eax, 21			; 00000015H
  00066	50		 push	 eax
  00067	68 00 00 00 00	 push	 OFFSET ??_C@_0EE@DLIIEJCN@c?3?2users?2nhv90?2projects?2eech?2ap@
  0006c	68 00 00 00 00	 push	 OFFSET ??_C@_0DH@NBKEDIK@get_local_entity_type?5?$CIsender?$CJ?5@
  00071	e8 00 00 00 00	 call	 ?process_assert@@YGXPBD0H@Z ; process_assert
$LN3@response_t:

; 2175 : 
; 2176 : 	ASSERT (get_comms_model () == COMMS_MODEL_SERVER);

  00076	83 3d 00 00 00
	00 00		 cmp	 DWORD PTR ?system_comms_model@@3W4COMMS_MODEL_TYPES@@A, 0 ; system_comms_model
  0007d	74 18		 je	 SHORT $LN4@response_t
  0007f	a1 00 00 00 00	 mov	 eax, DWORD PTR ?__LINE__Var@?0??response_to_waypoint_troop_capture_reached@@YGHW4ENTITY_MESSAGES@@PAUENTITY@@1PAD@Z@4JA
  00084	83 c0 17	 add	 eax, 23			; 00000017H
  00087	50		 push	 eax
  00088	68 00 00 00 00	 push	 OFFSET ??_C@_0EE@DLIIEJCN@c?3?2users?2nhv90?2projects?2eech?2ap@
  0008d	68 00 00 00 00	 push	 OFFSET ??_C@_0CJ@DMBLBJBK@get_comms_model?5?$CI?$CJ?5?$DN?$DN?5COMMS_MOD@
  00092	e8 00 00 00 00	 call	 ?process_assert@@YGXPBD0H@Z ; process_assert
$LN4@response_t:

; 2177 : 
; 2178 : 	group = get_local_entity_parent (receiver, LIST_TYPE_MEMBER);

  00097	83 7d 0c 00	 cmp	 DWORD PTR _receiver$[ebp], 0
  0009b	74 0a		 je	 SHORT $LN18@response_t
  0009d	8b 45 0c	 mov	 eax, DWORD PTR _receiver$[ebp]
  000a0	8b 08		 mov	 ecx, DWORD PTR [eax]
  000a2	89 4d 8c	 mov	 DWORD PTR tv92[ebp], ecx
  000a5	eb 21		 jmp	 SHORT $LN19@response_t
$LN18@response_t:
  000a7	8b 15 00 00 00
	00		 mov	 edx, DWORD PTR ?__LINE__Var@?0??response_to_waypoint_troop_capture_reached@@YGHW4ENTITY_MESSAGES@@PAUENTITY@@1PAD@Z@4JA
  000ad	83 c2 19	 add	 edx, 25			; 00000019H
  000b0	52		 push	 edx
  000b1	68 00 00 00 00	 push	 OFFSET ??_C@_0EE@DLIIEJCN@c?3?2users?2nhv90?2projects?2eech?2ap@
  000b6	a1 00 00 00 00	 mov	 eax, DWORD PTR ?null_entity_pointer_message@@3PBDB ; null_entity_pointer_message
  000bb	50		 push	 eax
  000bc	e8 00 00 00 00	 call	 ?process_assert@@YGXPBD0H@Z ; process_assert
  000c1	c7 45 8c 00 00
	00 00		 mov	 DWORD PTR tv92[ebp], 0
$LN19@response_t:
  000c8	b9 01 00 00 00	 mov	 ecx, 1
  000cd	85 c9		 test	 ecx, ecx
  000cf	74 09		 je	 SHORT $LN20@response_t
  000d1	c7 45 88 19 00
	00 00		 mov	 DWORD PTR tv132[ebp], 25 ; 00000019H
  000d8	eb 21		 jmp	 SHORT $LN21@response_t
$LN20@response_t:
  000da	8b 15 00 00 00
	00		 mov	 edx, DWORD PTR ?__LINE__Var@?0??response_to_waypoint_troop_capture_reached@@YGHW4ENTITY_MESSAGES@@PAUENTITY@@1PAD@Z@4JA
  000e0	83 c2 19	 add	 edx, 25			; 00000019H
  000e3	52		 push	 edx
  000e4	68 00 00 00 00	 push	 OFFSET ??_C@_0EE@DLIIEJCN@c?3?2users?2nhv90?2projects?2eech?2ap@
  000e9	a1 00 00 00 00	 mov	 eax, DWORD PTR ?overload_invalid_list_type_message@@3PBDB ; overload_invalid_list_type_message
  000ee	50		 push	 eax
  000ef	e8 00 00 00 00	 call	 ?process_assert@@YGXPBD0H@Z ; process_assert
  000f4	c7 45 88 00 00
	00 00		 mov	 DWORD PTR tv132[ebp], 0
$LN21@response_t:
  000fb	6a 19		 push	 25			; 00000019H
  000fd	8b 4d 0c	 mov	 ecx, DWORD PTR _receiver$[ebp]
  00100	51		 push	 ecx
  00101	69 55 8c b4 00
	00 00		 imul	 edx, DWORD PTR tv92[ebp], 180
  00108	8b 45 88	 mov	 eax, DWORD PTR tv132[ebp]
  0010b	8b 8c 82 00 00
	00 00		 mov	 ecx, DWORD PTR ?fn_get_local_entity_parent@@3PAY0CN@P6GPAUENTITY@@PAU1@W4LIST_TYPES@@@ZA[edx+eax*4]
  00112	ff d1		 call	 ecx
  00114	89 45 f8	 mov	 DWORD PTR _group$[ebp], eax

; 2179 : 
; 2180 : 	task = get_local_entity_parent (sender, LIST_TYPE_WAYPOINT);

  00117	83 7d 10 00	 cmp	 DWORD PTR _sender$[ebp], 0
  0011b	74 0a		 je	 SHORT $LN22@response_t
  0011d	8b 45 10	 mov	 eax, DWORD PTR _sender$[ebp]
  00120	8b 08		 mov	 ecx, DWORD PTR [eax]
  00122	89 4d 8c	 mov	 DWORD PTR tv144[ebp], ecx
  00125	eb 21		 jmp	 SHORT $LN23@response_t
$LN22@response_t:
  00127	8b 15 00 00 00
	00		 mov	 edx, DWORD PTR ?__LINE__Var@?0??response_to_waypoint_troop_capture_reached@@YGHW4ENTITY_MESSAGES@@PAUENTITY@@1PAD@Z@4JA
  0012d	83 c2 1b	 add	 edx, 27			; 0000001bH
  00130	52		 push	 edx
  00131	68 00 00 00 00	 push	 OFFSET ??_C@_0EE@DLIIEJCN@c?3?2users?2nhv90?2projects?2eech?2ap@
  00136	a1 00 00 00 00	 mov	 eax, DWORD PTR ?null_entity_pointer_message@@3PBDB ; null_entity_pointer_message
  0013b	50		 push	 eax
  0013c	e8 00 00 00 00	 call	 ?process_assert@@YGXPBD0H@Z ; process_assert
  00141	c7 45 8c 00 00
	00 00		 mov	 DWORD PTR tv144[ebp], 0
$LN23@response_t:
  00148	b9 01 00 00 00	 mov	 ecx, 1
  0014d	85 c9		 test	 ecx, ecx
  0014f	74 09		 je	 SHORT $LN24@response_t
  00151	c7 45 88 2c 00
	00 00		 mov	 DWORD PTR tv152[ebp], 44 ; 0000002cH
  00158	eb 21		 jmp	 SHORT $LN25@response_t
$LN24@response_t:
  0015a	8b 15 00 00 00
	00		 mov	 edx, DWORD PTR ?__LINE__Var@?0??response_to_waypoint_troop_capture_reached@@YGHW4ENTITY_MESSAGES@@PAUENTITY@@1PAD@Z@4JA
  00160	83 c2 1b	 add	 edx, 27			; 0000001bH
  00163	52		 push	 edx
  00164	68 00 00 00 00	 push	 OFFSET ??_C@_0EE@DLIIEJCN@c?3?2users?2nhv90?2projects?2eech?2ap@
  00169	a1 00 00 00 00	 mov	 eax, DWORD PTR ?overload_invalid_list_type_message@@3PBDB ; overload_invalid_list_type_message
  0016e	50		 push	 eax
  0016f	e8 00 00 00 00	 call	 ?process_assert@@YGXPBD0H@Z ; process_assert
  00174	c7 45 88 00 00
	00 00		 mov	 DWORD PTR tv152[ebp], 0
$LN25@response_t:
  0017b	6a 2c		 push	 44			; 0000002cH
  0017d	8b 4d 10	 mov	 ecx, DWORD PTR _sender$[ebp]
  00180	51		 push	 ecx
  00181	69 55 8c b4 00
	00 00		 imul	 edx, DWORD PTR tv144[ebp], 180
  00188	8b 45 88	 mov	 eax, DWORD PTR tv152[ebp]
  0018b	8b 8c 82 00 00
	00 00		 mov	 ecx, DWORD PTR ?fn_get_local_entity_parent@@3PAY0CN@P6GPAUENTITY@@PAU1@W4LIST_TYPES@@@ZA[edx+eax*4]
  00192	ff d1		 call	 ecx
  00194	89 45 fc	 mov	 DWORD PTR _task$[ebp], eax

; 2181 : 
; 2182 : 	ASSERT (task);

  00197	83 7d fc 00	 cmp	 DWORD PTR _task$[ebp], 0
  0019b	75 18		 jne	 SHORT $LN5@response_t
  0019d	a1 00 00 00 00	 mov	 eax, DWORD PTR ?__LINE__Var@?0??response_to_waypoint_troop_capture_reached@@YGHW4ENTITY_MESSAGES@@PAUENTITY@@1PAD@Z@4JA
  001a2	83 c0 1d	 add	 eax, 29			; 0000001dH
  001a5	50		 push	 eax
  001a6	68 00 00 00 00	 push	 OFFSET ??_C@_0EE@DLIIEJCN@c?3?2users?2nhv90?2projects?2eech?2ap@
  001ab	68 00 00 00 00	 push	 OFFSET ??_C@_04GGKLLKOO@task@
  001b0	e8 00 00 00 00	 call	 ?process_assert@@YGXPBD0H@Z ; process_assert
$LN5@response_t:

; 2183 : 
; 2184 : 	troop_insertion_task = get_local_entity_parent (task, LIST_TYPE_TASK_DEPENDENT);

  001b5	83 7d fc 00	 cmp	 DWORD PTR _task$[ebp], 0
  001b9	74 0a		 je	 SHORT $LN26@response_t
  001bb	8b 45 fc	 mov	 eax, DWORD PTR _task$[ebp]
  001be	8b 08		 mov	 ecx, DWORD PTR [eax]
  001c0	89 4d 8c	 mov	 DWORD PTR tv169[ebp], ecx
  001c3	eb 21		 jmp	 SHORT $LN27@response_t
$LN26@response_t:
  001c5	8b 15 00 00 00
	00		 mov	 edx, DWORD PTR ?__LINE__Var@?0??response_to_waypoint_troop_capture_reached@@YGHW4ENTITY_MESSAGES@@PAUENTITY@@1PAD@Z@4JA
  001cb	83 c2 1f	 add	 edx, 31			; 0000001fH
  001ce	52		 push	 edx
  001cf	68 00 00 00 00	 push	 OFFSET ??_C@_0EE@DLIIEJCN@c?3?2users?2nhv90?2projects?2eech?2ap@
  001d4	a1 00 00 00 00	 mov	 eax, DWORD PTR ?null_entity_pointer_message@@3PBDB ; null_entity_pointer_message
  001d9	50		 push	 eax
  001da	e8 00 00 00 00	 call	 ?process_assert@@YGXPBD0H@Z ; process_assert
  001df	c7 45 8c 00 00
	00 00		 mov	 DWORD PTR tv169[ebp], 0
$LN27@response_t:
  001e6	b9 01 00 00 00	 mov	 ecx, 1
  001eb	85 c9		 test	 ecx, ecx
  001ed	74 09		 je	 SHORT $LN28@response_t
  001ef	c7 45 88 27 00
	00 00		 mov	 DWORD PTR tv177[ebp], 39 ; 00000027H
  001f6	eb 21		 jmp	 SHORT $LN29@response_t
$LN28@response_t:
  001f8	8b 15 00 00 00
	00		 mov	 edx, DWORD PTR ?__LINE__Var@?0??response_to_waypoint_troop_capture_reached@@YGHW4ENTITY_MESSAGES@@PAUENTITY@@1PAD@Z@4JA
  001fe	83 c2 1f	 add	 edx, 31			; 0000001fH
  00201	52		 push	 edx
  00202	68 00 00 00 00	 push	 OFFSET ??_C@_0EE@DLIIEJCN@c?3?2users?2nhv90?2projects?2eech?2ap@
  00207	a1 00 00 00 00	 mov	 eax, DWORD PTR ?overload_invalid_list_type_message@@3PBDB ; overload_invalid_list_type_message
  0020c	50		 push	 eax
  0020d	e8 00 00 00 00	 call	 ?process_assert@@YGXPBD0H@Z ; process_assert
  00212	c7 45 88 00 00
	00 00		 mov	 DWORD PTR tv177[ebp], 0
$LN29@response_t:
  00219	6a 27		 push	 39			; 00000027H
  0021b	8b 4d fc	 mov	 ecx, DWORD PTR _task$[ebp]
  0021e	51		 push	 ecx
  0021f	69 55 8c b4 00
	00 00		 imul	 edx, DWORD PTR tv169[ebp], 180
  00226	8b 45 88	 mov	 eax, DWORD PTR tv177[ebp]
  00229	8b 8c 82 00 00
	00 00		 mov	 ecx, DWORD PTR ?fn_get_local_entity_parent@@3PAY0CN@P6GPAUENTITY@@PAU1@W4LIST_TYPES@@@ZA[edx+eax*4]
  00230	ff d1		 call	 ecx
  00232	89 45 f4	 mov	 DWORD PTR _troop_insertion_task$[ebp], eax

; 2185 : 
; 2186 : 	ASSERT (troop_insertion_task);

  00235	83 7d f4 00	 cmp	 DWORD PTR _troop_insertion_task$[ebp], 0
  00239	75 18		 jne	 SHORT $LN6@response_t
  0023b	a1 00 00 00 00	 mov	 eax, DWORD PTR ?__LINE__Var@?0??response_to_waypoint_troop_capture_reached@@YGHW4ENTITY_MESSAGES@@PAUENTITY@@1PAD@Z@4JA
  00240	83 c0 21	 add	 eax, 33			; 00000021H
  00243	50		 push	 eax
  00244	68 00 00 00 00	 push	 OFFSET ??_C@_0EE@DLIIEJCN@c?3?2users?2nhv90?2projects?2eech?2ap@
  00249	68 00 00 00 00	 push	 OFFSET ??_C@_0BF@IHGGJPIA@troop_insertion_task@
  0024e	e8 00 00 00 00	 call	 ?process_assert@@YGXPBD0H@Z ; process_assert
$LN6@response_t:

; 2187 : 
; 2188 : 	if (!troop_insertion_task)

  00253	83 7d f4 00	 cmp	 DWORD PTR _troop_insertion_task$[ebp], 0
  00257	75 07		 jne	 SHORT $LN7@response_t

; 2189 : 	{
; 2190 : 		return FALSE;

  00259	33 c0		 xor	 eax, eax
  0025b	e9 8e 06 00 00	 jmp	 $LN1@response_t
$LN7@response_t:

; 2191 : 	}
; 2192 : 
; 2193 : 	ASSERT (get_local_entity_int_value (troop_insertion_task, INT_TYPE_ENTITY_SUB_TYPE) == ENTITY_SUB_TYPE_TASK_TROOP_INSERTION);

  00260	83 7d f4 00	 cmp	 DWORD PTR _troop_insertion_task$[ebp], 0
  00264	74 0a		 je	 SHORT $LN30@response_t
  00266	8b 45 f4	 mov	 eax, DWORD PTR _troop_insertion_task$[ebp]
  00269	8b 08		 mov	 ecx, DWORD PTR [eax]
  0026b	89 4d 8c	 mov	 DWORD PTR tv195[ebp], ecx
  0026e	eb 21		 jmp	 SHORT $LN31@response_t
$LN30@response_t:
  00270	8b 15 00 00 00
	00		 mov	 edx, DWORD PTR ?__LINE__Var@?0??response_to_waypoint_troop_capture_reached@@YGHW4ENTITY_MESSAGES@@PAUENTITY@@1PAD@Z@4JA
  00276	83 c2 28	 add	 edx, 40			; 00000028H
  00279	52		 push	 edx
  0027a	68 00 00 00 00	 push	 OFFSET ??_C@_0EE@DLIIEJCN@c?3?2users?2nhv90?2projects?2eech?2ap@
  0027f	a1 00 00 00 00	 mov	 eax, DWORD PTR ?null_entity_pointer_message@@3PBDB ; null_entity_pointer_message
  00284	50		 push	 eax
  00285	e8 00 00 00 00	 call	 ?process_assert@@YGXPBD0H@Z ; process_assert
  0028a	c7 45 8c 00 00
	00 00		 mov	 DWORD PTR tv195[ebp], 0
$LN31@response_t:
  00291	b9 01 00 00 00	 mov	 ecx, 1
  00296	85 c9		 test	 ecx, ecx
  00298	74 09		 je	 SHORT $LN32@response_t
  0029a	c7 45 88 34 00
	00 00		 mov	 DWORD PTR tv203[ebp], 52 ; 00000034H
  002a1	eb 21		 jmp	 SHORT $LN33@response_t
$LN32@response_t:
  002a3	8b 15 00 00 00
	00		 mov	 edx, DWORD PTR ?__LINE__Var@?0??response_to_waypoint_troop_capture_reached@@YGHW4ENTITY_MESSAGES@@PAUENTITY@@1PAD@Z@4JA
  002a9	83 c2 28	 add	 edx, 40			; 00000028H
  002ac	52		 push	 edx
  002ad	68 00 00 00 00	 push	 OFFSET ??_C@_0EE@DLIIEJCN@c?3?2users?2nhv90?2projects?2eech?2ap@
  002b2	a1 00 00 00 00	 mov	 eax, DWORD PTR ?overload_invalid_int_type_message@@3PBDB ; overload_invalid_int_type_message
  002b7	50		 push	 eax
  002b8	e8 00 00 00 00	 call	 ?process_assert@@YGXPBD0H@Z ; process_assert
  002bd	c7 45 88 00 00
	00 00		 mov	 DWORD PTR tv203[ebp], 0
$LN33@response_t:
  002c4	6a 34		 push	 52			; 00000034H
  002c6	8b 4d f4	 mov	 ecx, DWORD PTR _troop_insertion_task$[ebp]
  002c9	51		 push	 ecx
  002ca	69 55 8c 5c 04
	00 00		 imul	 edx, DWORD PTR tv195[ebp], 1116
  002d1	8b 45 88	 mov	 eax, DWORD PTR tv203[ebp]
  002d4	8b 8c 82 00 00
	00 00		 mov	 ecx, DWORD PTR ?fn_get_local_entity_int_value@@3PAY0BBH@P6GHPAUENTITY@@W4INT_TYPES@@@ZA[edx+eax*4]
  002db	ff d1		 call	 ecx
  002dd	83 f8 1a	 cmp	 eax, 26			; 0000001aH
  002e0	74 18		 je	 SHORT $LN8@response_t
  002e2	a1 00 00 00 00	 mov	 eax, DWORD PTR ?__LINE__Var@?0??response_to_waypoint_troop_capture_reached@@YGHW4ENTITY_MESSAGES@@PAUENTITY@@1PAD@Z@4JA
  002e7	83 c0 28	 add	 eax, 40			; 00000028H
  002ea	50		 push	 eax
  002eb	68 00 00 00 00	 push	 OFFSET ??_C@_0EE@DLIIEJCN@c?3?2users?2nhv90?2projects?2eech?2ap@
  002f0	68 00 00 00 00	 push	 OFFSET ??_C@_0HE@JKKEPILA@get_local_entity_int_value?5?$CItro@
  002f5	e8 00 00 00 00	 call	 ?process_assert@@YGXPBD0H@Z ; process_assert
$LN8@response_t:

; 2194 : 
; 2195 : 	destination_keysite = get_local_entity_parent (troop_insertion_task, LIST_TYPE_TASK_DEPENDENT);

  002fa	83 7d f4 00	 cmp	 DWORD PTR _troop_insertion_task$[ebp], 0
  002fe	74 0a		 je	 SHORT $LN34@response_t
  00300	8b 45 f4	 mov	 eax, DWORD PTR _troop_insertion_task$[ebp]
  00303	8b 08		 mov	 ecx, DWORD PTR [eax]
  00305	89 4d 8c	 mov	 DWORD PTR tv220[ebp], ecx
  00308	eb 21		 jmp	 SHORT $LN35@response_t
$LN34@response_t:
  0030a	8b 15 00 00 00
	00		 mov	 edx, DWORD PTR ?__LINE__Var@?0??response_to_waypoint_troop_capture_reached@@YGHW4ENTITY_MESSAGES@@PAUENTITY@@1PAD@Z@4JA
  00310	83 c2 2a	 add	 edx, 42			; 0000002aH
  00313	52		 push	 edx
  00314	68 00 00 00 00	 push	 OFFSET ??_C@_0EE@DLIIEJCN@c?3?2users?2nhv90?2projects?2eech?2ap@
  00319	a1 00 00 00 00	 mov	 eax, DWORD PTR ?null_entity_pointer_message@@3PBDB ; null_entity_pointer_message
  0031e	50		 push	 eax
  0031f	e8 00 00 00 00	 call	 ?process_assert@@YGXPBD0H@Z ; process_assert
  00324	c7 45 8c 00 00
	00 00		 mov	 DWORD PTR tv220[ebp], 0
$LN35@response_t:
  0032b	b9 01 00 00 00	 mov	 ecx, 1
  00330	85 c9		 test	 ecx, ecx
  00332	74 09		 je	 SHORT $LN36@response_t
  00334	c7 45 88 27 00
	00 00		 mov	 DWORD PTR tv228[ebp], 39 ; 00000027H
  0033b	eb 21		 jmp	 SHORT $LN37@response_t
$LN36@response_t:
  0033d	8b 15 00 00 00
	00		 mov	 edx, DWORD PTR ?__LINE__Var@?0??response_to_waypoint_troop_capture_reached@@YGHW4ENTITY_MESSAGES@@PAUENTITY@@1PAD@Z@4JA
  00343	83 c2 2a	 add	 edx, 42			; 0000002aH
  00346	52		 push	 edx
  00347	68 00 00 00 00	 push	 OFFSET ??_C@_0EE@DLIIEJCN@c?3?2users?2nhv90?2projects?2eech?2ap@
  0034c	a1 00 00 00 00	 mov	 eax, DWORD PTR ?overload_invalid_list_type_message@@3PBDB ; overload_invalid_list_type_message
  00351	50		 push	 eax
  00352	e8 00 00 00 00	 call	 ?process_assert@@YGXPBD0H@Z ; process_assert
  00357	c7 45 88 00 00
	00 00		 mov	 DWORD PTR tv228[ebp], 0
$LN37@response_t:
  0035e	6a 27		 push	 39			; 00000027H
  00360	8b 4d f4	 mov	 ecx, DWORD PTR _troop_insertion_task$[ebp]
  00363	51		 push	 ecx
  00364	69 55 8c b4 00
	00 00		 imul	 edx, DWORD PTR tv220[ebp], 180
  0036b	8b 45 88	 mov	 eax, DWORD PTR tv228[ebp]
  0036e	8b 8c 82 00 00
	00 00		 mov	 ecx, DWORD PTR ?fn_get_local_entity_parent@@3PAY0CN@P6GPAUENTITY@@PAU1@W4LIST_TYPES@@@ZA[edx+eax*4]
  00375	ff d1		 call	 ecx
  00377	89 45 f0	 mov	 DWORD PTR _destination_keysite$[ebp], eax

; 2196 : 
; 2197 : 	ASSERT (destination_keysite);

  0037a	83 7d f0 00	 cmp	 DWORD PTR _destination_keysite$[ebp], 0
  0037e	75 18		 jne	 SHORT $LN9@response_t
  00380	a1 00 00 00 00	 mov	 eax, DWORD PTR ?__LINE__Var@?0??response_to_waypoint_troop_capture_reached@@YGHW4ENTITY_MESSAGES@@PAUENTITY@@1PAD@Z@4JA
  00385	83 c0 2c	 add	 eax, 44			; 0000002cH
  00388	50		 push	 eax
  00389	68 00 00 00 00	 push	 OFFSET ??_C@_0EE@DLIIEJCN@c?3?2users?2nhv90?2projects?2eech?2ap@
  0038e	68 00 00 00 00	 push	 OFFSET ??_C@_0BE@PGBBOPJ@destination_keysite@
  00393	e8 00 00 00 00	 call	 ?process_assert@@YGXPBD0H@Z ; process_assert
$LN9@response_t:

; 2198 : 
; 2199 : 	if (!destination_keysite)

  00398	83 7d f0 00	 cmp	 DWORD PTR _destination_keysite$[ebp], 0
  0039c	75 07		 jne	 SHORT $LN10@response_t

; 2200 : 	{
; 2201 : 		return FALSE;

  0039e	33 c0		 xor	 eax, eax
  003a0	e9 49 05 00 00	 jmp	 $LN1@response_t
$LN10@response_t:

; 2202 : 	}
; 2203 : 
; 2204 : 	keysite_type = get_local_entity_int_value (destination_keysite, INT_TYPE_ENTITY_SUB_TYPE);

  003a5	83 7d f0 00	 cmp	 DWORD PTR _destination_keysite$[ebp], 0
  003a9	74 0a		 je	 SHORT $LN38@response_t
  003ab	8b 45 f0	 mov	 eax, DWORD PTR _destination_keysite$[ebp]
  003ae	8b 08		 mov	 ecx, DWORD PTR [eax]
  003b0	89 4d 8c	 mov	 DWORD PTR tv246[ebp], ecx
  003b3	eb 21		 jmp	 SHORT $LN39@response_t
$LN38@response_t:
  003b5	8b 15 00 00 00
	00		 mov	 edx, DWORD PTR ?__LINE__Var@?0??response_to_waypoint_troop_capture_reached@@YGHW4ENTITY_MESSAGES@@PAUENTITY@@1PAD@Z@4JA
  003bb	83 c2 33	 add	 edx, 51			; 00000033H
  003be	52		 push	 edx
  003bf	68 00 00 00 00	 push	 OFFSET ??_C@_0EE@DLIIEJCN@c?3?2users?2nhv90?2projects?2eech?2ap@
  003c4	a1 00 00 00 00	 mov	 eax, DWORD PTR ?null_entity_pointer_message@@3PBDB ; null_entity_pointer_message
  003c9	50		 push	 eax
  003ca	e8 00 00 00 00	 call	 ?process_assert@@YGXPBD0H@Z ; process_assert
  003cf	c7 45 8c 00 00
	00 00		 mov	 DWORD PTR tv246[ebp], 0
$LN39@response_t:
  003d6	b9 01 00 00 00	 mov	 ecx, 1
  003db	85 c9		 test	 ecx, ecx
  003dd	74 09		 je	 SHORT $LN40@response_t
  003df	c7 45 88 34 00
	00 00		 mov	 DWORD PTR tv254[ebp], 52 ; 00000034H
  003e6	eb 21		 jmp	 SHORT $LN41@response_t
$LN40@response_t:
  003e8	8b 15 00 00 00
	00		 mov	 edx, DWORD PTR ?__LINE__Var@?0??response_to_waypoint_troop_capture_reached@@YGHW4ENTITY_MESSAGES@@PAUENTITY@@1PAD@Z@4JA
  003ee	83 c2 33	 add	 edx, 51			; 00000033H
  003f1	52		 push	 edx
  003f2	68 00 00 00 00	 push	 OFFSET ??_C@_0EE@DLIIEJCN@c?3?2users?2nhv90?2projects?2eech?2ap@
  003f7	a1 00 00 00 00	 mov	 eax, DWORD PTR ?overload_invalid_int_type_message@@3PBDB ; overload_invalid_int_type_message
  003fc	50		 push	 eax
  003fd	e8 00 00 00 00	 call	 ?process_assert@@YGXPBD0H@Z ; process_assert
  00402	c7 45 88 00 00
	00 00		 mov	 DWORD PTR tv254[ebp], 0
$LN41@response_t:
  00409	6a 34		 push	 52			; 00000034H
  0040b	8b 4d f0	 mov	 ecx, DWORD PTR _destination_keysite$[ebp]
  0040e	51		 push	 ecx
  0040f	69 55 8c 5c 04
	00 00		 imul	 edx, DWORD PTR tv246[ebp], 1116
  00416	8b 45 88	 mov	 eax, DWORD PTR tv254[ebp]
  00419	8b 8c 82 00 00
	00 00		 mov	 ecx, DWORD PTR ?fn_get_local_entity_int_value@@3PAY0BBH@P6GHPAUENTITY@@W4INT_TYPES@@@ZA[edx+eax*4]
  00420	ff d1		 call	 ecx
  00422	89 45 e8	 mov	 DWORD PTR _keysite_type$[ebp], eax

; 2205 : 
; 2206 : 	side = get_local_entity_int_value (group, INT_TYPE_SIDE);

  00425	83 7d f8 00	 cmp	 DWORD PTR _group$[ebp], 0
  00429	74 0a		 je	 SHORT $LN42@response_t
  0042b	8b 45 f8	 mov	 eax, DWORD PTR _group$[ebp]
  0042e	8b 08		 mov	 ecx, DWORD PTR [eax]
  00430	89 4d 8c	 mov	 DWORD PTR tv266[ebp], ecx
  00433	eb 21		 jmp	 SHORT $LN43@response_t
$LN42@response_t:
  00435	8b 15 00 00 00
	00		 mov	 edx, DWORD PTR ?__LINE__Var@?0??response_to_waypoint_troop_capture_reached@@YGHW4ENTITY_MESSAGES@@PAUENTITY@@1PAD@Z@4JA
  0043b	83 c2 35	 add	 edx, 53			; 00000035H
  0043e	52		 push	 edx
  0043f	68 00 00 00 00	 push	 OFFSET ??_C@_0EE@DLIIEJCN@c?3?2users?2nhv90?2projects?2eech?2ap@
  00444	a1 00 00 00 00	 mov	 eax, DWORD PTR ?null_entity_pointer_message@@3PBDB ; null_entity_pointer_message
  00449	50		 push	 eax
  0044a	e8 00 00 00 00	 call	 ?process_assert@@YGXPBD0H@Z ; process_assert
  0044f	c7 45 8c 00 00
	00 00		 mov	 DWORD PTR tv266[ebp], 0
$LN43@response_t:
  00456	b9 01 00 00 00	 mov	 ecx, 1
  0045b	85 c9		 test	 ecx, ecx
  0045d	74 09		 je	 SHORT $LN44@response_t
  0045f	c7 45 88 bb 00
	00 00		 mov	 DWORD PTR tv274[ebp], 187 ; 000000bbH
  00466	eb 21		 jmp	 SHORT $LN45@response_t
$LN44@response_t:
  00468	8b 15 00 00 00
	00		 mov	 edx, DWORD PTR ?__LINE__Var@?0??response_to_waypoint_troop_capture_reached@@YGHW4ENTITY_MESSAGES@@PAUENTITY@@1PAD@Z@4JA
  0046e	83 c2 35	 add	 edx, 53			; 00000035H
  00471	52		 push	 edx
  00472	68 00 00 00 00	 push	 OFFSET ??_C@_0EE@DLIIEJCN@c?3?2users?2nhv90?2projects?2eech?2ap@
  00477	a1 00 00 00 00	 mov	 eax, DWORD PTR ?overload_invalid_int_type_message@@3PBDB ; overload_invalid_int_type_message
  0047c	50		 push	 eax
  0047d	e8 00 00 00 00	 call	 ?process_assert@@YGXPBD0H@Z ; process_assert
  00482	c7 45 88 00 00
	00 00		 mov	 DWORD PTR tv274[ebp], 0
$LN45@response_t:
  00489	68 bb 00 00 00	 push	 187			; 000000bbH
  0048e	8b 4d f8	 mov	 ecx, DWORD PTR _group$[ebp]
  00491	51		 push	 ecx
  00492	69 55 8c 5c 04
	00 00		 imul	 edx, DWORD PTR tv266[ebp], 1116
  00499	8b 45 88	 mov	 eax, DWORD PTR tv274[ebp]
  0049c	8b 8c 82 00 00
	00 00		 mov	 ecx, DWORD PTR ?fn_get_local_entity_int_value@@3PAY0BBH@P6GHPAUENTITY@@W4INT_TYPES@@@ZA[edx+eax*4]
  004a3	ff d1		 call	 ecx
  004a5	89 45 ec	 mov	 DWORD PTR _side$[ebp], eax

; 2207 : 
; 2208 : 	if (side != get_local_entity_int_value (destination_keysite, INT_TYPE_SIDE))

  004a8	83 7d f0 00	 cmp	 DWORD PTR _destination_keysite$[ebp], 0
  004ac	74 0a		 je	 SHORT $LN46@response_t
  004ae	8b 45 f0	 mov	 eax, DWORD PTR _destination_keysite$[ebp]
  004b1	8b 08		 mov	 ecx, DWORD PTR [eax]
  004b3	89 4d 8c	 mov	 DWORD PTR tv285[ebp], ecx
  004b6	eb 1d		 jmp	 SHORT $LN47@response_t
$LN46@response_t:
  004b8	68 a0 08 00 00	 push	 2208			; 000008a0H
  004bd	68 00 00 00 00	 push	 OFFSET ??_C@_0EE@DLIIEJCN@c?3?2users?2nhv90?2projects?2eech?2ap@
  004c2	8b 15 00 00 00
	00		 mov	 edx, DWORD PTR ?null_entity_pointer_message@@3PBDB ; null_entity_pointer_message
  004c8	52		 push	 edx
  004c9	e8 00 00 00 00	 call	 ?process_assert@@YGXPBD0H@Z ; process_assert
  004ce	c7 45 8c 00 00
	00 00		 mov	 DWORD PTR tv285[ebp], 0
$LN47@response_t:
  004d5	b8 01 00 00 00	 mov	 eax, 1
  004da	85 c0		 test	 eax, eax
  004dc	74 09		 je	 SHORT $LN48@response_t
  004de	c7 45 88 bb 00
	00 00		 mov	 DWORD PTR tv292[ebp], 187 ; 000000bbH
  004e5	eb 1d		 jmp	 SHORT $LN49@response_t
$LN48@response_t:
  004e7	68 a0 08 00 00	 push	 2208			; 000008a0H
  004ec	68 00 00 00 00	 push	 OFFSET ??_C@_0EE@DLIIEJCN@c?3?2users?2nhv90?2projects?2eech?2ap@
  004f1	8b 0d 00 00 00
	00		 mov	 ecx, DWORD PTR ?overload_invalid_int_type_message@@3PBDB ; overload_invalid_int_type_message
  004f7	51		 push	 ecx
  004f8	e8 00 00 00 00	 call	 ?process_assert@@YGXPBD0H@Z ; process_assert
  004fd	c7 45 88 00 00
	00 00		 mov	 DWORD PTR tv292[ebp], 0
$LN49@response_t:
  00504	68 bb 00 00 00	 push	 187			; 000000bbH
  00509	8b 55 f0	 mov	 edx, DWORD PTR _destination_keysite$[ebp]
  0050c	52		 push	 edx
  0050d	69 45 8c 5c 04
	00 00		 imul	 eax, DWORD PTR tv285[ebp], 1116
  00514	8b 4d 88	 mov	 ecx, DWORD PTR tv292[ebp]
  00517	8b 94 88 00 00
	00 00		 mov	 edx, DWORD PTR ?fn_get_local_entity_int_value@@3PAY0BBH@P6GHPAUENTITY@@W4INT_TYPES@@@ZA[eax+ecx*4]
  0051e	ff d2		 call	 edx
  00520	39 45 ec	 cmp	 DWORD PTR _side$[ebp], eax
  00523	0f 84 a3 03 00
	00		 je	 $LN13@response_t

; 2209 : 	{
; 2210 : 		if (keysite_database [keysite_type].ground_strike_target)

  00529	6b 45 e8 44	 imul	 eax, DWORD PTR _keysite_type$[ebp], 68
  0052d	8b 88 40 00 00
	00		 mov	 ecx, DWORD PTR ?keysite_database@@3PAUKEYSITE_DATA@@A[eax+64]
  00533	c1 e9 0a	 shr	 ecx, 10			; 0000000aH
  00536	83 e1 01	 and	 ecx, 1
  00539	0f 84 80 03 00
	00		 je	 $LN12@response_t

; 2211 : 		{
; 2212 : 			//
; 2213 : 			// Chance of capturing keysite dependent upon efficiency
; 2214 : 			//
; 2215 : 	
; 2216 : 			efficiency = get_local_entity_float_value (destination_keysite, FLOAT_TYPE_EFFICIENCY);

  0053f	83 7d f0 00	 cmp	 DWORD PTR _destination_keysite$[ebp], 0
  00543	74 0a		 je	 SHORT $LN50@response_t
  00545	8b 45 f0	 mov	 eax, DWORD PTR _destination_keysite$[ebp]
  00548	8b 08		 mov	 ecx, DWORD PTR [eax]
  0054a	89 4d 8c	 mov	 DWORD PTR tv311[ebp], ecx
  0054d	eb 21		 jmp	 SHORT $LN51@response_t
$LN50@response_t:
  0054f	8b 15 00 00 00
	00		 mov	 edx, DWORD PTR ?__LINE__Var@?0??response_to_waypoint_troop_capture_reached@@YGHW4ENTITY_MESSAGES@@PAUENTITY@@1PAD@Z@4JA
  00555	83 c2 3f	 add	 edx, 63			; 0000003fH
  00558	52		 push	 edx
  00559	68 00 00 00 00	 push	 OFFSET ??_C@_0EE@DLIIEJCN@c?3?2users?2nhv90?2projects?2eech?2ap@
  0055e	a1 00 00 00 00	 mov	 eax, DWORD PTR ?null_entity_pointer_message@@3PBDB ; null_entity_pointer_message
  00563	50		 push	 eax
  00564	e8 00 00 00 00	 call	 ?process_assert@@YGXPBD0H@Z ; process_assert
  00569	c7 45 8c 00 00
	00 00		 mov	 DWORD PTR tv311[ebp], 0
$LN51@response_t:
  00570	b9 01 00 00 00	 mov	 ecx, 1
  00575	85 c9		 test	 ecx, ecx
  00577	74 09		 je	 SHORT $LN52@response_t
  00579	c7 45 88 21 00
	00 00		 mov	 DWORD PTR tv319[ebp], 33 ; 00000021H
  00580	eb 21		 jmp	 SHORT $LN53@response_t
$LN52@response_t:
  00582	8b 15 00 00 00
	00		 mov	 edx, DWORD PTR ?__LINE__Var@?0??response_to_waypoint_troop_capture_reached@@YGHW4ENTITY_MESSAGES@@PAUENTITY@@1PAD@Z@4JA
  00588	83 c2 3f	 add	 edx, 63			; 0000003fH
  0058b	52		 push	 edx
  0058c	68 00 00 00 00	 push	 OFFSET ??_C@_0EE@DLIIEJCN@c?3?2users?2nhv90?2projects?2eech?2ap@
  00591	a1 00 00 00 00	 mov	 eax, DWORD PTR ?overload_invalid_float_type_message@@3PBDB ; overload_invalid_float_type_message
  00596	50		 push	 eax
  00597	e8 00 00 00 00	 call	 ?process_assert@@YGXPBD0H@Z ; process_assert
  0059c	c7 45 88 00 00
	00 00		 mov	 DWORD PTR tv319[ebp], 0
$LN53@response_t:
  005a3	6a 21		 push	 33			; 00000021H
  005a5	8b 4d f0	 mov	 ecx, DWORD PTR _destination_keysite$[ebp]
  005a8	51		 push	 ecx
  005a9	69 55 8c bc 02
	00 00		 imul	 edx, DWORD PTR tv311[ebp], 700
  005b0	8b 45 88	 mov	 eax, DWORD PTR tv319[ebp]
  005b3	8b 8c 82 00 00
	00 00		 mov	 ecx, DWORD PTR ?fn_get_local_entity_float_value@@3PAY0KP@P6GMPAUENTITY@@W4FLOAT_TYPES@@@ZA[edx+eax*4]
  005ba	ff d1		 call	 ecx
  005bc	d9 5d d4	 fstp	 DWORD PTR _efficiency$[ebp]

; 2217 : 			
; 2218 : 			minimum = get_local_entity_float_value (destination_keysite, FLOAT_TYPE_MINIMUM_EFFICIENCY);

  005bf	83 7d f0 00	 cmp	 DWORD PTR _destination_keysite$[ebp], 0
  005c3	74 0a		 je	 SHORT $LN54@response_t
  005c5	8b 45 f0	 mov	 eax, DWORD PTR _destination_keysite$[ebp]
  005c8	8b 08		 mov	 ecx, DWORD PTR [eax]
  005ca	89 4d 8c	 mov	 DWORD PTR tv331[ebp], ecx
  005cd	eb 21		 jmp	 SHORT $LN55@response_t
$LN54@response_t:
  005cf	8b 15 00 00 00
	00		 mov	 edx, DWORD PTR ?__LINE__Var@?0??response_to_waypoint_troop_capture_reached@@YGHW4ENTITY_MESSAGES@@PAUENTITY@@1PAD@Z@4JA
  005d5	83 c2 41	 add	 edx, 65			; 00000041H
  005d8	52		 push	 edx
  005d9	68 00 00 00 00	 push	 OFFSET ??_C@_0EE@DLIIEJCN@c?3?2users?2nhv90?2projects?2eech?2ap@
  005de	a1 00 00 00 00	 mov	 eax, DWORD PTR ?null_entity_pointer_message@@3PBDB ; null_entity_pointer_message
  005e3	50		 push	 eax
  005e4	e8 00 00 00 00	 call	 ?process_assert@@YGXPBD0H@Z ; process_assert
  005e9	c7 45 8c 00 00
	00 00		 mov	 DWORD PTR tv331[ebp], 0
$LN55@response_t:
  005f0	b9 01 00 00 00	 mov	 ecx, 1
  005f5	85 c9		 test	 ecx, ecx
  005f7	74 09		 je	 SHORT $LN56@response_t
  005f9	c7 45 88 51 00
	00 00		 mov	 DWORD PTR tv339[ebp], 81 ; 00000051H
  00600	eb 21		 jmp	 SHORT $LN57@response_t
$LN56@response_t:
  00602	8b 15 00 00 00
	00		 mov	 edx, DWORD PTR ?__LINE__Var@?0??response_to_waypoint_troop_capture_reached@@YGHW4ENTITY_MESSAGES@@PAUENTITY@@1PAD@Z@4JA
  00608	83 c2 41	 add	 edx, 65			; 00000041H
  0060b	52		 push	 edx
  0060c	68 00 00 00 00	 push	 OFFSET ??_C@_0EE@DLIIEJCN@c?3?2users?2nhv90?2projects?2eech?2ap@
  00611	a1 00 00 00 00	 mov	 eax, DWORD PTR ?overload_invalid_float_type_message@@3PBDB ; overload_invalid_float_type_message
  00616	50		 push	 eax
  00617	e8 00 00 00 00	 call	 ?process_assert@@YGXPBD0H@Z ; process_assert
  0061c	c7 45 88 00 00
	00 00		 mov	 DWORD PTR tv339[ebp], 0
$LN57@response_t:
  00623	6a 51		 push	 81			; 00000051H
  00625	8b 4d f0	 mov	 ecx, DWORD PTR _destination_keysite$[ebp]
  00628	51		 push	 ecx
  00629	69 55 8c bc 02
	00 00		 imul	 edx, DWORD PTR tv331[ebp], 700
  00630	8b 45 88	 mov	 eax, DWORD PTR tv339[ebp]
  00633	8b 8c 82 00 00
	00 00		 mov	 ecx, DWORD PTR ?fn_get_local_entity_float_value@@3PAY0KP@P6GMPAUENTITY@@W4FLOAT_TYPES@@@ZA[edx+eax*4]
  0063a	ff d1		 call	 ecx
  0063c	d9 5d d0	 fstp	 DWORD PTR _minimum$[ebp]

; 2219 : 	
; 2220 : 			d = (efficiency - minimum) / (1.0 - minimum);

  0063f	f3 0f 10 45 d4	 movss	 xmm0, DWORD PTR _efficiency$[ebp]
  00644	f3 0f 5c 45 d0	 subss	 xmm0, DWORD PTR _minimum$[ebp]
  00649	f3 0f 5a c0	 cvtss2sd xmm0, xmm0
  0064d	f3 0f 5a 4d d0	 cvtss2sd xmm1, DWORD PTR _minimum$[ebp]
  00652	f2 0f 10 15 00
	00 00 00	 movsd	 xmm2, QWORD PTR __real@3ff0000000000000
  0065a	f2 0f 5c d1	 subsd	 xmm2, xmm1
  0065e	f2 0f 5e c2	 divsd	 xmm0, xmm2
  00662	f2 0f 5a c0	 cvtsd2ss xmm0, xmm0
  00666	f3 0f 11 45 e4	 movss	 DWORD PTR _d$[ebp], xmm0

; 2221 : 	
; 2222 : 			//
; 2223 : 			// And how many of the troops have been killed
; 2224 : 			//
; 2225 : 	
; 2226 : 			member_count = (float)get_local_entity_int_value (group, INT_TYPE_MEMBER_COUNT);

  0066b	83 7d f8 00	 cmp	 DWORD PTR _group$[ebp], 0
  0066f	74 0a		 je	 SHORT $LN58@response_t
  00671	8b 45 f8	 mov	 eax, DWORD PTR _group$[ebp]
  00674	8b 08		 mov	 ecx, DWORD PTR [eax]
  00676	89 4d 8c	 mov	 DWORD PTR tv357[ebp], ecx
  00679	eb 21		 jmp	 SHORT $LN59@response_t
$LN58@response_t:
  0067b	8b 15 00 00 00
	00		 mov	 edx, DWORD PTR ?__LINE__Var@?0??response_to_waypoint_troop_capture_reached@@YGHW4ENTITY_MESSAGES@@PAUENTITY@@1PAD@Z@4JA
  00681	83 c2 49	 add	 edx, 73			; 00000049H
  00684	52		 push	 edx
  00685	68 00 00 00 00	 push	 OFFSET ??_C@_0EE@DLIIEJCN@c?3?2users?2nhv90?2projects?2eech?2ap@
  0068a	a1 00 00 00 00	 mov	 eax, DWORD PTR ?null_entity_pointer_message@@3PBDB ; null_entity_pointer_message
  0068f	50		 push	 eax
  00690	e8 00 00 00 00	 call	 ?process_assert@@YGXPBD0H@Z ; process_assert
  00695	c7 45 8c 00 00
	00 00		 mov	 DWORD PTR tv357[ebp], 0
$LN59@response_t:
  0069c	b9 01 00 00 00	 mov	 ecx, 1
  006a1	85 c9		 test	 ecx, ecx
  006a3	74 09		 je	 SHORT $LN60@response_t
  006a5	c7 45 88 86 00
	00 00		 mov	 DWORD PTR tv365[ebp], 134 ; 00000086H
  006ac	eb 21		 jmp	 SHORT $LN61@response_t
$LN60@response_t:
  006ae	8b 15 00 00 00
	00		 mov	 edx, DWORD PTR ?__LINE__Var@?0??response_to_waypoint_troop_capture_reached@@YGHW4ENTITY_MESSAGES@@PAUENTITY@@1PAD@Z@4JA
  006b4	83 c2 49	 add	 edx, 73			; 00000049H
  006b7	52		 push	 edx
  006b8	68 00 00 00 00	 push	 OFFSET ??_C@_0EE@DLIIEJCN@c?3?2users?2nhv90?2projects?2eech?2ap@
  006bd	a1 00 00 00 00	 mov	 eax, DWORD PTR ?overload_invalid_int_type_message@@3PBDB ; overload_invalid_int_type_message
  006c2	50		 push	 eax
  006c3	e8 00 00 00 00	 call	 ?process_assert@@YGXPBD0H@Z ; process_assert
  006c8	c7 45 88 00 00
	00 00		 mov	 DWORD PTR tv365[ebp], 0
$LN61@response_t:
  006cf	68 86 00 00 00	 push	 134			; 00000086H
  006d4	8b 4d f8	 mov	 ecx, DWORD PTR _group$[ebp]
  006d7	51		 push	 ecx
  006d8	69 55 8c 5c 04
	00 00		 imul	 edx, DWORD PTR tv357[ebp], 1116
  006df	8b 45 88	 mov	 eax, DWORD PTR tv365[ebp]
  006e2	8b 8c 82 00 00
	00 00		 mov	 ecx, DWORD PTR ?fn_get_local_entity_int_value@@3PAY0BBH@P6GHPAUENTITY@@W4INT_TYPES@@@ZA[edx+eax*4]
  006e9	ff d1		 call	 ecx
  006eb	f3 0f 2a c0	 cvtsi2ss xmm0, eax
  006ef	f3 0f 11 45 dc	 movss	 DWORD PTR _member_count$[ebp], xmm0

; 2227 : 	
; 2228 : 			losses = (float)get_local_entity_int_value (group, INT_TYPE_LOSSES);

  006f4	83 7d f8 00	 cmp	 DWORD PTR _group$[ebp], 0
  006f8	74 0a		 je	 SHORT $LN62@response_t
  006fa	8b 45 f8	 mov	 eax, DWORD PTR _group$[ebp]
  006fd	8b 08		 mov	 ecx, DWORD PTR [eax]
  006ff	89 4d 8c	 mov	 DWORD PTR tv378[ebp], ecx
  00702	eb 21		 jmp	 SHORT $LN63@response_t
$LN62@response_t:
  00704	8b 15 00 00 00
	00		 mov	 edx, DWORD PTR ?__LINE__Var@?0??response_to_waypoint_troop_capture_reached@@YGHW4ENTITY_MESSAGES@@PAUENTITY@@1PAD@Z@4JA
  0070a	83 c2 4b	 add	 edx, 75			; 0000004bH
  0070d	52		 push	 edx
  0070e	68 00 00 00 00	 push	 OFFSET ??_C@_0EE@DLIIEJCN@c?3?2users?2nhv90?2projects?2eech?2ap@
  00713	a1 00 00 00 00	 mov	 eax, DWORD PTR ?null_entity_pointer_message@@3PBDB ; null_entity_pointer_message
  00718	50		 push	 eax
  00719	e8 00 00 00 00	 call	 ?process_assert@@YGXPBD0H@Z ; process_assert
  0071e	c7 45 8c 00 00
	00 00		 mov	 DWORD PTR tv378[ebp], 0
$LN63@response_t:
  00725	b9 01 00 00 00	 mov	 ecx, 1
  0072a	85 c9		 test	 ecx, ecx
  0072c	74 09		 je	 SHORT $LN64@response_t
  0072e	c7 45 88 7f 00
	00 00		 mov	 DWORD PTR tv386[ebp], 127 ; 0000007fH
  00735	eb 21		 jmp	 SHORT $LN65@response_t
$LN64@response_t:
  00737	8b 15 00 00 00
	00		 mov	 edx, DWORD PTR ?__LINE__Var@?0??response_to_waypoint_troop_capture_reached@@YGHW4ENTITY_MESSAGES@@PAUENTITY@@1PAD@Z@4JA
  0073d	83 c2 4b	 add	 edx, 75			; 0000004bH
  00740	52		 push	 edx
  00741	68 00 00 00 00	 push	 OFFSET ??_C@_0EE@DLIIEJCN@c?3?2users?2nhv90?2projects?2eech?2ap@
  00746	a1 00 00 00 00	 mov	 eax, DWORD PTR ?overload_invalid_int_type_message@@3PBDB ; overload_invalid_int_type_message
  0074b	50		 push	 eax
  0074c	e8 00 00 00 00	 call	 ?process_assert@@YGXPBD0H@Z ; process_assert
  00751	c7 45 88 00 00
	00 00		 mov	 DWORD PTR tv386[ebp], 0
$LN65@response_t:
  00758	6a 7f		 push	 127			; 0000007fH
  0075a	8b 4d f8	 mov	 ecx, DWORD PTR _group$[ebp]
  0075d	51		 push	 ecx
  0075e	69 55 8c 5c 04
	00 00		 imul	 edx, DWORD PTR tv378[ebp], 1116
  00765	8b 45 88	 mov	 eax, DWORD PTR tv386[ebp]
  00768	8b 8c 82 00 00
	00 00		 mov	 ecx, DWORD PTR ?fn_get_local_entity_int_value@@3PAY0BBH@P6GHPAUENTITY@@W4INT_TYPES@@@ZA[edx+eax*4]
  0076f	ff d1		 call	 ecx
  00771	f3 0f 2a c0	 cvtsi2ss xmm0, eax
  00775	f3 0f 11 45 d8	 movss	 DWORD PTR _losses$[ebp], xmm0

; 2229 : 	
; 2230 : 			d *= (member_count / (member_count + losses));

  0077a	f3 0f 10 45 dc	 movss	 xmm0, DWORD PTR _member_count$[ebp]
  0077f	f3 0f 58 45 d8	 addss	 xmm0, DWORD PTR _losses$[ebp]
  00784	f3 0f 10 4d dc	 movss	 xmm1, DWORD PTR _member_count$[ebp]
  00789	f3 0f 5e c8	 divss	 xmm1, xmm0
  0078d	f3 0f 59 4d e4	 mulss	 xmm1, DWORD PTR _d$[ebp]
  00792	f3 0f 11 4d e4	 movss	 DWORD PTR _d$[ebp], xmm1

; 2231 : 	
; 2232 : 			r = frand1 ();

  00797	69 05 00 00 00
	00 6d 4e c6 41	 imul	 eax, DWORD PTR ?random_number_seed@@3HA, 1103515245 ; random_number_seed
  007a1	05 39 30 00 00	 add	 eax, 12345		; 00003039H
  007a6	a3 00 00 00 00	 mov	 DWORD PTR ?random_number_seed@@3HA, eax ; random_number_seed
  007ab	8b 0d 00 00 00
	00		 mov	 ecx, DWORD PTR ?random_number_seed@@3HA ; random_number_seed
  007b1	c1 f9 10	 sar	 ecx, 16			; 00000010H
  007b4	81 e1 ff 7f 00
	00		 and	 ecx, 32767		; 00007fffH
  007ba	f2 0f 2a c1	 cvtsi2sd xmm0, ecx
  007be	f2 0f 59 05 00
	00 00 00	 mulsd	 xmm0, QWORD PTR __real@3f00002000400080
  007c6	f2 0f 5a c0	 cvtsd2ss xmm0, xmm0
  007ca	f3 0f 11 45 e0	 movss	 DWORD PTR _r$[ebp], xmm0

; 2233 : 	
; 2234 : 			debug_log ("MB_MSGS: Trying to capture %s", get_local_entity_string (destination_keysite, STRING_TYPE_KEYSITE_NAME));

  007cf	83 7d f0 00	 cmp	 DWORD PTR _destination_keysite$[ebp], 0
  007d3	74 0a		 je	 SHORT $LN66@response_t
  007d5	8b 45 f0	 mov	 eax, DWORD PTR _destination_keysite$[ebp]
  007d8	8b 08		 mov	 ecx, DWORD PTR [eax]
  007da	89 4d 8c	 mov	 DWORD PTR tv409[ebp], ecx
  007dd	eb 21		 jmp	 SHORT $LN67@response_t
$LN66@response_t:
  007df	8b 15 00 00 00
	00		 mov	 edx, DWORD PTR ?__LINE__Var@?0??response_to_waypoint_troop_capture_reached@@YGHW4ENTITY_MESSAGES@@PAUENTITY@@1PAD@Z@4JA
  007e5	83 c2 51	 add	 edx, 81			; 00000051H
  007e8	52		 push	 edx
  007e9	68 00 00 00 00	 push	 OFFSET ??_C@_0EE@DLIIEJCN@c?3?2users?2nhv90?2projects?2eech?2ap@
  007ee	a1 00 00 00 00	 mov	 eax, DWORD PTR ?null_entity_pointer_message@@3PBDB ; null_entity_pointer_message
  007f3	50		 push	 eax
  007f4	e8 00 00 00 00	 call	 ?process_assert@@YGXPBD0H@Z ; process_assert
  007f9	c7 45 8c 00 00
	00 00		 mov	 DWORD PTR tv409[ebp], 0
$LN67@response_t:
  00800	b9 01 00 00 00	 mov	 ecx, 1
  00805	85 c9		 test	 ecx, ecx
  00807	74 09		 je	 SHORT $LN68@response_t
  00809	c7 45 88 07 00
	00 00		 mov	 DWORD PTR tv417[ebp], 7
  00810	eb 21		 jmp	 SHORT $LN69@response_t
$LN68@response_t:
  00812	8b 15 00 00 00
	00		 mov	 edx, DWORD PTR ?__LINE__Var@?0??response_to_waypoint_troop_capture_reached@@YGHW4ENTITY_MESSAGES@@PAUENTITY@@1PAD@Z@4JA
  00818	83 c2 51	 add	 edx, 81			; 00000051H
  0081b	52		 push	 edx
  0081c	68 00 00 00 00	 push	 OFFSET ??_C@_0EE@DLIIEJCN@c?3?2users?2nhv90?2projects?2eech?2ap@
  00821	a1 00 00 00 00	 mov	 eax, DWORD PTR ?overload_invalid_string_type_message@@3PBDB ; overload_invalid_string_type_message
  00826	50		 push	 eax
  00827	e8 00 00 00 00	 call	 ?process_assert@@YGXPBD0H@Z ; process_assert
  0082c	c7 45 88 00 00
	00 00		 mov	 DWORD PTR tv417[ebp], 0
$LN69@response_t:
  00833	6a 07		 push	 7
  00835	8b 4d f0	 mov	 ecx, DWORD PTR _destination_keysite$[ebp]
  00838	51		 push	 ecx
  00839	6b 55 8c 34	 imul	 edx, DWORD PTR tv409[ebp], 52
  0083d	8b 45 88	 mov	 eax, DWORD PTR tv417[ebp]
  00840	8b 8c 82 00 00
	00 00		 mov	 ecx, DWORD PTR ?fn_get_local_entity_string@@3PAY0N@P6GPBDPAUENTITY@@W4STRING_TYPES@@@ZA[edx+eax*4]
  00847	ff d1		 call	 ecx
  00849	50		 push	 eax
  0084a	68 00 00 00 00	 push	 OFFSET ??_C@_0BO@INELKHEB@MB_MSGS?3?5Trying?5to?5capture?5?$CFs@
  0084f	e8 00 00 00 00	 call	 ?debug_log@@YAXPBDZZ	; debug_log
  00854	83 c4 08	 add	 esp, 8

; 2235 : 			debug_log ("MB_MSGS: Efficiency %f - Minimum %f", efficiency, minimum);

  00857	f3 0f 5a 45 d0	 cvtss2sd xmm0, DWORD PTR _minimum$[ebp]
  0085c	83 ec 08	 sub	 esp, 8
  0085f	f2 0f 11 04 24	 movsd	 QWORD PTR [esp], xmm0
  00864	f3 0f 5a 45 d4	 cvtss2sd xmm0, DWORD PTR _efficiency$[ebp]
  00869	83 ec 08	 sub	 esp, 8
  0086c	f2 0f 11 04 24	 movsd	 QWORD PTR [esp], xmm0
  00871	68 00 00 00 00	 push	 OFFSET ??_C@_0CE@GEONFHI@MB_MSGS?3?5Efficiency?5?$CFf?5?9?5Minimu@
  00876	e8 00 00 00 00	 call	 ?debug_log@@YAXPBDZZ	; debug_log
  0087b	83 c4 14	 add	 esp, 20			; 00000014H

; 2236 : 			debug_log ("MB_MSGS: Probability %f : %f", d, r);

  0087e	f3 0f 5a 45 e0	 cvtss2sd xmm0, DWORD PTR _r$[ebp]
  00883	83 ec 08	 sub	 esp, 8
  00886	f2 0f 11 04 24	 movsd	 QWORD PTR [esp], xmm0
  0088b	f3 0f 5a 45 e4	 cvtss2sd xmm0, DWORD PTR _d$[ebp]
  00890	83 ec 08	 sub	 esp, 8
  00893	f2 0f 11 04 24	 movsd	 QWORD PTR [esp], xmm0
  00898	68 00 00 00 00	 push	 OFFSET ??_C@_0BN@JLLFKOHI@MB_MSGS?3?5Probability?5?$CFf?5?3?5?$CFf@
  0089d	e8 00 00 00 00	 call	 ?debug_log@@YAXPBDZZ	; debug_log
  008a2	83 c4 14	 add	 esp, 20			; 00000014H

; 2237 : 	
; 2238 : 			if (d < r) 

  008a5	f3 0f 10 45 e0	 movss	 xmm0, DWORD PTR _r$[ebp]
  008aa	0f 2f 45 e4	 comiss	 xmm0, DWORD PTR _d$[ebp]
  008ae	76 0d		 jbe	 SHORT $LN14@response_t

; 2239 : 			{
; 2240 : 				capture_keysite (destination_keysite, (entity_sides) side);

  008b0	8b 45 ec	 mov	 eax, DWORD PTR _side$[ebp]
  008b3	50		 push	 eax
  008b4	8b 4d f0	 mov	 ecx, DWORD PTR _destination_keysite$[ebp]
  008b7	51		 push	 ecx
  008b8	e8 00 00 00 00	 call	 ?capture_keysite@@YGXPAUENTITY@@W4ENTITY_SIDES@@@Z ; capture_keysite
$LN14@response_t:

; 2241 : 			}
; 2242 : 		}
; 2243 : 		else

  008bd	eb 0d		 jmp	 SHORT $LN13@response_t
$LN12@response_t:

; 2244 : 		{
; 2245 : 			//
; 2246 : 			// Efficiency not applicable
; 2247 : 			//
; 2248 : 			
; 2249 : 			capture_keysite (destination_keysite, (entity_sides) side);

  008bf	8b 45 ec	 mov	 eax, DWORD PTR _side$[ebp]
  008c2	50		 push	 eax
  008c3	8b 4d f0	 mov	 ecx, DWORD PTR _destination_keysite$[ebp]
  008c6	51		 push	 ecx
  008c7	e8 00 00 00 00	 call	 ?capture_keysite@@YGXPAUENTITY@@W4ENTITY_SIDES@@@Z ; capture_keysite
$LN13@response_t:

; 2250 : 		}
; 2251 : 	}
; 2252 : 
; 2253 : 	notify_local_entity (ENTITY_MESSAGE_TASK_TERMINATED, task, receiver, TASK_TERMINATED_WAYPOINT_ROUTE_COMPLETE);

  008cc	6a 06		 push	 6
  008ce	8b 45 0c	 mov	 eax, DWORD PTR _receiver$[ebp]
  008d1	50		 push	 eax
  008d2	8b 4d fc	 mov	 ecx, DWORD PTR _task$[ebp]
  008d5	51		 push	 ecx
  008d6	6a 36		 push	 54			; 00000036H
  008d8	e8 00 00 00 00	 call	 ?notify_local_entity@@YAHW4ENTITY_MESSAGES@@PAUENTITY@@1ZZ ; notify_local_entity
  008dd	83 c4 10	 add	 esp, 16			; 00000010H

; 2254 : 
; 2255 : 	group_destroy_all_members (group);

  008e0	8b 45 f8	 mov	 eax, DWORD PTR _group$[ebp]
  008e3	50		 push	 eax
  008e4	e8 00 00 00 00	 call	 ?group_destroy_all_members@@YGXPAUENTITY@@@Z ; group_destroy_all_members

; 2256 : 
; 2257 : 	return (TRUE);

  008e9	b8 01 00 00 00	 mov	 eax, 1
$LN1@response_t:

; 2258 : }

  008ee	5f		 pop	 edi
  008ef	5e		 pop	 esi
  008f0	5b		 pop	 ebx
  008f1	8b e5		 mov	 esp, ebp
  008f3	5d		 pop	 ebp
  008f4	c2 10 00	 ret	 16			; 00000010H
?response_to_waypoint_troop_capture_reached@@YGHW4ENTITY_MESSAGES@@PAUENTITY@@1PAD@Z ENDP ; response_to_waypoint_troop_capture_reached
_TEXT	ENDS
; Function compile flags: /Odtp /ZI
; File c:\users\nhv90\projects\eech\aphavoc\source\entity\mobile\mb_msgs.c
;	COMDAT ?response_to_waypoint_taxi_reached@@YGHW4ENTITY_MESSAGES@@PAUENTITY@@1PAD@Z
_TEXT	SEGMENT
tv95 = -72						; size = 4
tv87 = -68						; size = 4
_message$ = 8						; size = 4
_receiver$ = 12						; size = 4
_sender$ = 16						; size = 4
_pargs$ = 20						; size = 4
?response_to_waypoint_taxi_reached@@YGHW4ENTITY_MESSAGES@@PAUENTITY@@1PAD@Z PROC ; response_to_waypoint_taxi_reached, COMDAT

; 2128 : {

  00000	55		 push	 ebp
  00001	8b ec		 mov	 ebp, esp
  00003	83 ec 48	 sub	 esp, 72			; 00000048H
  00006	53		 push	 ebx
  00007	56		 push	 esi
  00008	57		 push	 edi

; 2129 : 	ASSERT (sender);

  00009	83 7d 10 00	 cmp	 DWORD PTR _sender$[ebp], 0
  0000d	75 18		 jne	 SHORT $LN2@response_t
  0000f	a1 00 00 00 00	 mov	 eax, DWORD PTR ?__LINE__Var@?0??response_to_waypoint_taxi_reached@@YGHW4ENTITY_MESSAGES@@PAUENTITY@@1PAD@Z@4JA
  00014	83 c0 01	 add	 eax, 1
  00017	50		 push	 eax
  00018	68 00 00 00 00	 push	 OFFSET ??_C@_0EE@DLIIEJCN@c?3?2users?2nhv90?2projects?2eech?2ap@
  0001d	68 00 00 00 00	 push	 OFFSET ??_C@_06CGHJMPBJ@sender@
  00022	e8 00 00 00 00	 call	 ?process_assert@@YGXPBD0H@Z ; process_assert
$LN2@response_t:

; 2130 : 
; 2131 : 	ASSERT (sender->type == ENTITY_TYPE_WAYPOINT);

  00027	8b 45 10	 mov	 eax, DWORD PTR _sender$[ebp]
  0002a	83 38 24	 cmp	 DWORD PTR [eax], 36	; 00000024H
  0002d	74 18		 je	 SHORT $LN3@response_t
  0002f	a1 00 00 00 00	 mov	 eax, DWORD PTR ?__LINE__Var@?0??response_to_waypoint_taxi_reached@@YGHW4ENTITY_MESSAGES@@PAUENTITY@@1PAD@Z@4JA
  00034	83 c0 03	 add	 eax, 3
  00037	50		 push	 eax
  00038	68 00 00 00 00	 push	 OFFSET ??_C@_0EE@DLIIEJCN@c?3?2users?2nhv90?2projects?2eech?2ap@
  0003d	68 00 00 00 00	 push	 OFFSET ??_C@_0CF@JOKOGIDD@sender?9?$DOtype?5?$DN?$DN?5ENTITY_TYPE_WAY@
  00042	e8 00 00 00 00	 call	 ?process_assert@@YGXPBD0H@Z ; process_assert
$LN3@response_t:

; 2132 : 
; 2133 : 	ASSERT (get_comms_model () == COMMS_MODEL_SERVER);

  00047	83 3d 00 00 00
	00 00		 cmp	 DWORD PTR ?system_comms_model@@3W4COMMS_MODEL_TYPES@@A, 0 ; system_comms_model
  0004e	74 18		 je	 SHORT $LN4@response_t
  00050	a1 00 00 00 00	 mov	 eax, DWORD PTR ?__LINE__Var@?0??response_to_waypoint_taxi_reached@@YGHW4ENTITY_MESSAGES@@PAUENTITY@@1PAD@Z@4JA
  00055	83 c0 05	 add	 eax, 5
  00058	50		 push	 eax
  00059	68 00 00 00 00	 push	 OFFSET ??_C@_0EE@DLIIEJCN@c?3?2users?2nhv90?2projects?2eech?2ap@
  0005e	68 00 00 00 00	 push	 OFFSET ??_C@_0CJ@DMBLBJBK@get_comms_model?5?$CI?$CJ?5?$DN?$DN?5COMMS_MOD@
  00063	e8 00 00 00 00	 call	 ?process_assert@@YGXPBD0H@Z ; process_assert
$LN4@response_t:

; 2134 : 
; 2135 : 	#if DEBUG_MODULE >= 2
; 2136 : 
; 2137 : 	debug_log_entity_message (message, receiver, sender, pargs);
; 2138 : 
; 2139 : 	#endif
; 2140 : 
; 2141 : 	close_client_server_entity_airbrakes (receiver);

  00068	8b 45 0c	 mov	 eax, DWORD PTR _receiver$[ebp]
  0006b	50		 push	 eax
  0006c	e8 00 00 00 00	 call	 ?close_client_server_entity_airbrakes@@YGXPAUENTITY@@@Z ; close_client_server_entity_airbrakes

; 2142 : 
; 2143 : 	set_local_entity_float_value (receiver, FLOAT_TYPE_VIEW_INTEREST_LEVEL, DEFAULT_VIEW_INTEREST_LEVEL);

  00071	83 7d 0c 00	 cmp	 DWORD PTR _receiver$[ebp], 0
  00075	74 0a		 je	 SHORT $LN6@response_t
  00077	8b 45 0c	 mov	 eax, DWORD PTR _receiver$[ebp]
  0007a	8b 08		 mov	 ecx, DWORD PTR [eax]
  0007c	89 4d bc	 mov	 DWORD PTR tv87[ebp], ecx
  0007f	eb 21		 jmp	 SHORT $LN7@response_t
$LN6@response_t:
  00081	8b 15 00 00 00
	00		 mov	 edx, DWORD PTR ?__LINE__Var@?0??response_to_waypoint_taxi_reached@@YGHW4ENTITY_MESSAGES@@PAUENTITY@@1PAD@Z@4JA
  00087	83 c2 0f	 add	 edx, 15			; 0000000fH
  0008a	52		 push	 edx
  0008b	68 00 00 00 00	 push	 OFFSET ??_C@_0EE@DLIIEJCN@c?3?2users?2nhv90?2projects?2eech?2ap@
  00090	a1 00 00 00 00	 mov	 eax, DWORD PTR ?null_entity_pointer_message@@3PBDB ; null_entity_pointer_message
  00095	50		 push	 eax
  00096	e8 00 00 00 00	 call	 ?process_assert@@YGXPBD0H@Z ; process_assert
  0009b	c7 45 bc 00 00
	00 00		 mov	 DWORD PTR tv87[ebp], 0
$LN7@response_t:
  000a2	b9 01 00 00 00	 mov	 ecx, 1
  000a7	85 c9		 test	 ecx, ecx
  000a9	74 09		 je	 SHORT $LN8@response_t
  000ab	c7 45 b8 95 00
	00 00		 mov	 DWORD PTR tv95[ebp], 149 ; 00000095H
  000b2	eb 21		 jmp	 SHORT $LN9@response_t
$LN8@response_t:
  000b4	8b 15 00 00 00
	00		 mov	 edx, DWORD PTR ?__LINE__Var@?0??response_to_waypoint_taxi_reached@@YGHW4ENTITY_MESSAGES@@PAUENTITY@@1PAD@Z@4JA
  000ba	83 c2 0f	 add	 edx, 15			; 0000000fH
  000bd	52		 push	 edx
  000be	68 00 00 00 00	 push	 OFFSET ??_C@_0EE@DLIIEJCN@c?3?2users?2nhv90?2projects?2eech?2ap@
  000c3	a1 00 00 00 00	 mov	 eax, DWORD PTR ?overload_invalid_float_type_message@@3PBDB ; overload_invalid_float_type_message
  000c8	50		 push	 eax
  000c9	e8 00 00 00 00	 call	 ?process_assert@@YGXPBD0H@Z ; process_assert
  000ce	c7 45 b8 00 00
	00 00		 mov	 DWORD PTR tv95[ebp], 0
$LN9@response_t:
  000d5	51		 push	 ecx
  000d6	f3 0f 10 05 00
	00 00 00	 movss	 xmm0, DWORD PTR __real@40a00000
  000de	f3 0f 11 04 24	 movss	 DWORD PTR [esp], xmm0
  000e3	68 95 00 00 00	 push	 149			; 00000095H
  000e8	8b 4d 0c	 mov	 ecx, DWORD PTR _receiver$[ebp]
  000eb	51		 push	 ecx
  000ec	69 55 bc bc 02
	00 00		 imul	 edx, DWORD PTR tv87[ebp], 700
  000f3	8b 45 b8	 mov	 eax, DWORD PTR tv95[ebp]
  000f6	8b 8c 82 00 00
	00 00		 mov	 ecx, DWORD PTR ?fn_set_local_entity_float_value@@3PAY0KP@P6GXPAUENTITY@@W4FLOAT_TYPES@@M@ZA[edx+eax*4]
  000fd	ff d1		 call	 ecx

; 2144 : 
; 2145 : 	return (TRUE);

  000ff	b8 01 00 00 00	 mov	 eax, 1

; 2146 : }

  00104	5f		 pop	 edi
  00105	5e		 pop	 esi
  00106	5b		 pop	 ebx
  00107	8b e5		 mov	 esp, ebp
  00109	5d		 pop	 ebp
  0010a	c2 10 00	 ret	 16			; 00000010H
?response_to_waypoint_taxi_reached@@YGHW4ENTITY_MESSAGES@@PAUENTITY@@1PAD@Z ENDP ; response_to_waypoint_taxi_reached
_TEXT	ENDS
; Function compile flags: /Odtp /ZI
; File c:\users\nhv90\projects\eech\aphavoc\source\entity\mobile\mb_msgs.c
;	COMDAT ?response_to_waypoint_taken_off_reached@@YGHW4ENTITY_MESSAGES@@PAUENTITY@@1PAD@Z
_TEXT	SEGMENT
tv232 = -96						; size = 4
tv224 = -92						; size = 4
tv251 = -88						; size = 4
tv195 = -88						; size = 4
tv172 = -88						; size = 4
tv149 = -88						; size = 4
tv129 = -88						; size = 4
tv243 = -84						; size = 4
tv216 = -84						; size = 4
tv206 = -84						; size = 4
tv187 = -84						; size = 4
tv164 = -84						; size = 4
tv141 = -84						; size = 4
tv89 = -84						; size = 4
_raw$ = -16						; size = 4
_group$ = -12						; size = 4
_member$ = -8						; size = 4
_landing_en$ = -4					; size = 4
_message$ = 8						; size = 4
_receiver$ = 12						; size = 4
_sender$ = 16						; size = 4
_pargs$ = 20						; size = 4
?response_to_waypoint_taken_off_reached@@YGHW4ENTITY_MESSAGES@@PAUENTITY@@1PAD@Z PROC ; response_to_waypoint_taken_off_reached, COMDAT

; 2034 : {

  00000	55		 push	 ebp
  00001	8b ec		 mov	 ebp, esp
  00003	83 ec 60	 sub	 esp, 96			; 00000060H
  00006	53		 push	 ebx
  00007	56		 push	 esi
  00008	57		 push	 edi

; 2035 : 	entity
; 2036 : 		*landing_en,
; 2037 : 		*member,
; 2038 : 		*group;
; 2039 : 
; 2040 : 	mobile
; 2041 : 		*raw;
; 2042 : 
; 2043 : 	ASSERT (sender);

  00009	83 7d 10 00	 cmp	 DWORD PTR _sender$[ebp], 0
  0000d	75 18		 jne	 SHORT $LN2@response_t
  0000f	a1 00 00 00 00	 mov	 eax, DWORD PTR ?__LINE__Var@?0??response_to_waypoint_taken_off_reached@@YGHW4ENTITY_MESSAGES@@PAUENTITY@@1PAD@Z@4JA
  00014	83 c0 09	 add	 eax, 9
  00017	50		 push	 eax
  00018	68 00 00 00 00	 push	 OFFSET ??_C@_0EE@DLIIEJCN@c?3?2users?2nhv90?2projects?2eech?2ap@
  0001d	68 00 00 00 00	 push	 OFFSET ??_C@_06CGHJMPBJ@sender@
  00022	e8 00 00 00 00	 call	 ?process_assert@@YGXPBD0H@Z ; process_assert
$LN2@response_t:

; 2044 : 
; 2045 : 	ASSERT (sender->type == ENTITY_TYPE_WAYPOINT);

  00027	8b 45 10	 mov	 eax, DWORD PTR _sender$[ebp]
  0002a	83 38 24	 cmp	 DWORD PTR [eax], 36	; 00000024H
  0002d	74 18		 je	 SHORT $LN3@response_t
  0002f	a1 00 00 00 00	 mov	 eax, DWORD PTR ?__LINE__Var@?0??response_to_waypoint_taken_off_reached@@YGHW4ENTITY_MESSAGES@@PAUENTITY@@1PAD@Z@4JA
  00034	83 c0 0b	 add	 eax, 11			; 0000000bH
  00037	50		 push	 eax
  00038	68 00 00 00 00	 push	 OFFSET ??_C@_0EE@DLIIEJCN@c?3?2users?2nhv90?2projects?2eech?2ap@
  0003d	68 00 00 00 00	 push	 OFFSET ??_C@_0CF@JOKOGIDD@sender?9?$DOtype?5?$DN?$DN?5ENTITY_TYPE_WAY@
  00042	e8 00 00 00 00	 call	 ?process_assert@@YGXPBD0H@Z ; process_assert
$LN3@response_t:

; 2046 : 
; 2047 : 	ASSERT (get_comms_model () == COMMS_MODEL_SERVER);

  00047	83 3d 00 00 00
	00 00		 cmp	 DWORD PTR ?system_comms_model@@3W4COMMS_MODEL_TYPES@@A, 0 ; system_comms_model
  0004e	74 18		 je	 SHORT $LN4@response_t
  00050	a1 00 00 00 00	 mov	 eax, DWORD PTR ?__LINE__Var@?0??response_to_waypoint_taken_off_reached@@YGHW4ENTITY_MESSAGES@@PAUENTITY@@1PAD@Z@4JA
  00055	83 c0 0d	 add	 eax, 13			; 0000000dH
  00058	50		 push	 eax
  00059	68 00 00 00 00	 push	 OFFSET ??_C@_0EE@DLIIEJCN@c?3?2users?2nhv90?2projects?2eech?2ap@
  0005e	68 00 00 00 00	 push	 OFFSET ??_C@_0CJ@DMBLBJBK@get_comms_model?5?$CI?$CJ?5?$DN?$DN?5COMMS_MOD@
  00063	e8 00 00 00 00	 call	 ?process_assert@@YGXPBD0H@Z ; process_assert
$LN4@response_t:

; 2048 : 
; 2049 : 	#if DEBUG_MODULE >= 2
; 2050 : 
; 2051 : 	debug_log_entity_message (message, receiver, sender, pargs);
; 2052 : 
; 2053 : 	#endif
; 2054 : 
; 2055 : 	raw = (mobile *) get_local_entity_data (receiver);

  00068	8b 45 0c	 mov	 eax, DWORD PTR _receiver$[ebp]
  0006b	8b 48 04	 mov	 ecx, DWORD PTR [eax+4]
  0006e	89 4d f0	 mov	 DWORD PTR _raw$[ebp], ecx

; 2056 : 
; 2057 : 	landing_en = get_local_group_member_landing_entity_from_task (receiver);

  00071	8b 45 0c	 mov	 eax, DWORD PTR _receiver$[ebp]
  00074	50		 push	 eax
  00075	e8 00 00 00 00	 call	 ?get_local_group_member_landing_entity_from_task@@YGPAUENTITY@@PAU1@@Z ; get_local_group_member_landing_entity_from_task
  0007a	89 45 fc	 mov	 DWORD PTR _landing_en$[ebp], eax

; 2058 : 
; 2059 : 	group = get_local_entity_parent (receiver, LIST_TYPE_MEMBER);

  0007d	83 7d 0c 00	 cmp	 DWORD PTR _receiver$[ebp], 0
  00081	74 0a		 je	 SHORT $LN9@response_t
  00083	8b 45 0c	 mov	 eax, DWORD PTR _receiver$[ebp]
  00086	8b 08		 mov	 ecx, DWORD PTR [eax]
  00088	89 4d ac	 mov	 DWORD PTR tv89[ebp], ecx
  0008b	eb 21		 jmp	 SHORT $LN10@response_t
$LN9@response_t:
  0008d	8b 15 00 00 00
	00		 mov	 edx, DWORD PTR ?__LINE__Var@?0??response_to_waypoint_taken_off_reached@@YGHW4ENTITY_MESSAGES@@PAUENTITY@@1PAD@Z@4JA
  00093	83 c2 19	 add	 edx, 25			; 00000019H
  00096	52		 push	 edx
  00097	68 00 00 00 00	 push	 OFFSET ??_C@_0EE@DLIIEJCN@c?3?2users?2nhv90?2projects?2eech?2ap@
  0009c	a1 00 00 00 00	 mov	 eax, DWORD PTR ?null_entity_pointer_message@@3PBDB ; null_entity_pointer_message
  000a1	50		 push	 eax
  000a2	e8 00 00 00 00	 call	 ?process_assert@@YGXPBD0H@Z ; process_assert
  000a7	c7 45 ac 00 00
	00 00		 mov	 DWORD PTR tv89[ebp], 0
$LN10@response_t:
  000ae	b9 01 00 00 00	 mov	 ecx, 1
  000b3	85 c9		 test	 ecx, ecx
  000b5	74 09		 je	 SHORT $LN11@response_t
  000b7	c7 45 a8 19 00
	00 00		 mov	 DWORD PTR tv129[ebp], 25 ; 00000019H
  000be	eb 21		 jmp	 SHORT $LN12@response_t
$LN11@response_t:
  000c0	8b 15 00 00 00
	00		 mov	 edx, DWORD PTR ?__LINE__Var@?0??response_to_waypoint_taken_off_reached@@YGHW4ENTITY_MESSAGES@@PAUENTITY@@1PAD@Z@4JA
  000c6	83 c2 19	 add	 edx, 25			; 00000019H
  000c9	52		 push	 edx
  000ca	68 00 00 00 00	 push	 OFFSET ??_C@_0EE@DLIIEJCN@c?3?2users?2nhv90?2projects?2eech?2ap@
  000cf	a1 00 00 00 00	 mov	 eax, DWORD PTR ?overload_invalid_list_type_message@@3PBDB ; overload_invalid_list_type_message
  000d4	50		 push	 eax
  000d5	e8 00 00 00 00	 call	 ?process_assert@@YGXPBD0H@Z ; process_assert
  000da	c7 45 a8 00 00
	00 00		 mov	 DWORD PTR tv129[ebp], 0
$LN12@response_t:
  000e1	6a 19		 push	 25			; 00000019H
  000e3	8b 4d 0c	 mov	 ecx, DWORD PTR _receiver$[ebp]
  000e6	51		 push	 ecx
  000e7	69 55 ac b4 00
	00 00		 imul	 edx, DWORD PTR tv89[ebp], 180
  000ee	8b 45 a8	 mov	 eax, DWORD PTR tv129[ebp]
  000f1	8b 8c 82 00 00
	00 00		 mov	 ecx, DWORD PTR ?fn_get_local_entity_parent@@3PAY0CN@P6GPAUENTITY@@PAU1@W4LIST_TYPES@@@ZA[edx+eax*4]
  000f8	ff d1		 call	 ecx
  000fa	89 45 f4	 mov	 DWORD PTR _group$[ebp], eax

; 2060 : 
; 2061 : 	member = get_local_entity_first_child (group, LIST_TYPE_MEMBER);

  000fd	83 7d f4 00	 cmp	 DWORD PTR _group$[ebp], 0
  00101	74 0a		 je	 SHORT $LN13@response_t
  00103	8b 45 f4	 mov	 eax, DWORD PTR _group$[ebp]
  00106	8b 08		 mov	 ecx, DWORD PTR [eax]
  00108	89 4d ac	 mov	 DWORD PTR tv141[ebp], ecx
  0010b	eb 21		 jmp	 SHORT $LN14@response_t
$LN13@response_t:
  0010d	8b 15 00 00 00
	00		 mov	 edx, DWORD PTR ?__LINE__Var@?0??response_to_waypoint_taken_off_reached@@YGHW4ENTITY_MESSAGES@@PAUENTITY@@1PAD@Z@4JA
  00113	83 c2 1b	 add	 edx, 27			; 0000001bH
  00116	52		 push	 edx
  00117	68 00 00 00 00	 push	 OFFSET ??_C@_0EE@DLIIEJCN@c?3?2users?2nhv90?2projects?2eech?2ap@
  0011c	a1 00 00 00 00	 mov	 eax, DWORD PTR ?null_entity_pointer_message@@3PBDB ; null_entity_pointer_message
  00121	50		 push	 eax
  00122	e8 00 00 00 00	 call	 ?process_assert@@YGXPBD0H@Z ; process_assert
  00127	c7 45 ac 00 00
	00 00		 mov	 DWORD PTR tv141[ebp], 0
$LN14@response_t:
  0012e	b9 01 00 00 00	 mov	 ecx, 1
  00133	85 c9		 test	 ecx, ecx
  00135	74 09		 je	 SHORT $LN15@response_t
  00137	c7 45 a8 19 00
	00 00		 mov	 DWORD PTR tv149[ebp], 25 ; 00000019H
  0013e	eb 21		 jmp	 SHORT $LN16@response_t
$LN15@response_t:
  00140	8b 15 00 00 00
	00		 mov	 edx, DWORD PTR ?__LINE__Var@?0??response_to_waypoint_taken_off_reached@@YGHW4ENTITY_MESSAGES@@PAUENTITY@@1PAD@Z@4JA
  00146	83 c2 1b	 add	 edx, 27			; 0000001bH
  00149	52		 push	 edx
  0014a	68 00 00 00 00	 push	 OFFSET ??_C@_0EE@DLIIEJCN@c?3?2users?2nhv90?2projects?2eech?2ap@
  0014f	a1 00 00 00 00	 mov	 eax, DWORD PTR ?overload_invalid_list_type_message@@3PBDB ; overload_invalid_list_type_message
  00154	50		 push	 eax
  00155	e8 00 00 00 00	 call	 ?process_assert@@YGXPBD0H@Z ; process_assert
  0015a	c7 45 a8 00 00
	00 00		 mov	 DWORD PTR tv149[ebp], 0
$LN16@response_t:
  00161	6a 19		 push	 25			; 00000019H
  00163	8b 4d f4	 mov	 ecx, DWORD PTR _group$[ebp]
  00166	51		 push	 ecx
  00167	69 55 ac b4 00
	00 00		 imul	 edx, DWORD PTR tv141[ebp], 180
  0016e	8b 45 a8	 mov	 eax, DWORD PTR tv149[ebp]
  00171	8b 8c 82 00 00
	00 00		 mov	 ecx, DWORD PTR ?fn_get_local_entity_first_child@@3PAY0CN@P6GPAUENTITY@@PAU1@W4LIST_TYPES@@@ZA[edx+eax*4]
  00178	ff d1		 call	 ecx
  0017a	89 45 f8	 mov	 DWORD PTR _member$[ebp], eax

; 2062 : 
; 2063 : 	//
; 2064 : 	// Unlock takeoff route
; 2065 : 	//
; 2066 : 
; 2067 : 	notify_local_entity (ENTITY_MESSAGE_WAYPOINT_TAKEN_OFF_REACHED, landing_en, receiver);

  0017d	8b 45 0c	 mov	 eax, DWORD PTR _receiver$[ebp]
  00180	50		 push	 eax
  00181	8b 4d fc	 mov	 ecx, DWORD PTR _landing_en$[ebp]
  00184	51		 push	 ecx
  00185	6a 56		 push	 86			; 00000056H
  00187	e8 00 00 00 00	 call	 ?notify_local_entity@@YAHW4ENTITY_MESSAGES@@PAUENTITY@@1ZZ ; notify_local_entity
  0018c	83 c4 0c	 add	 esp, 12			; 0000000cH

; 2068 : 
; 2069 : 	//
; 2070 : 	// Operational states
; 2071 : 	//
; 2072 : 
; 2073 : 	set_client_server_entity_int_value (receiver, INT_TYPE_OPERATIONAL_STATE, OPERATIONAL_STATE_TAKEOFF_HOLDING);

  0018f	83 7d 0c 00	 cmp	 DWORD PTR _receiver$[ebp], 0
  00193	74 0a		 je	 SHORT $LN17@response_t
  00195	8b 45 0c	 mov	 eax, DWORD PTR _receiver$[ebp]
  00198	8b 08		 mov	 ecx, DWORD PTR [eax]
  0019a	89 4d ac	 mov	 DWORD PTR tv164[ebp], ecx
  0019d	eb 21		 jmp	 SHORT $LN18@response_t
$LN17@response_t:
  0019f	8b 15 00 00 00
	00		 mov	 edx, DWORD PTR ?__LINE__Var@?0??response_to_waypoint_taken_off_reached@@YGHW4ENTITY_MESSAGES@@PAUENTITY@@1PAD@Z@4JA
  001a5	83 c2 27	 add	 edx, 39			; 00000027H
  001a8	52		 push	 edx
  001a9	68 00 00 00 00	 push	 OFFSET ??_C@_0EE@DLIIEJCN@c?3?2users?2nhv90?2projects?2eech?2ap@
  001ae	a1 00 00 00 00	 mov	 eax, DWORD PTR ?null_entity_pointer_message@@3PBDB ; null_entity_pointer_message
  001b3	50		 push	 eax
  001b4	e8 00 00 00 00	 call	 ?process_assert@@YGXPBD0H@Z ; process_assert
  001b9	c7 45 ac 00 00
	00 00		 mov	 DWORD PTR tv164[ebp], 0
$LN18@response_t:
  001c0	b9 01 00 00 00	 mov	 ecx, 1
  001c5	85 c9		 test	 ecx, ecx
  001c7	74 09		 je	 SHORT $LN19@response_t
  001c9	c7 45 a8 97 00
	00 00		 mov	 DWORD PTR tv172[ebp], 151 ; 00000097H
  001d0	eb 21		 jmp	 SHORT $LN20@response_t
$LN19@response_t:
  001d2	8b 15 00 00 00
	00		 mov	 edx, DWORD PTR ?__LINE__Var@?0??response_to_waypoint_taken_off_reached@@YGHW4ENTITY_MESSAGES@@PAUENTITY@@1PAD@Z@4JA
  001d8	83 c2 27	 add	 edx, 39			; 00000027H
  001db	52		 push	 edx
  001dc	68 00 00 00 00	 push	 OFFSET ??_C@_0EE@DLIIEJCN@c?3?2users?2nhv90?2projects?2eech?2ap@
  001e1	a1 00 00 00 00	 mov	 eax, DWORD PTR ?overload_invalid_int_type_message@@3PBDB ; overload_invalid_int_type_message
  001e6	50		 push	 eax
  001e7	e8 00 00 00 00	 call	 ?process_assert@@YGXPBD0H@Z ; process_assert
  001ec	c7 45 a8 00 00
	00 00		 mov	 DWORD PTR tv172[ebp], 0
$LN20@response_t:
  001f3	6a 0a		 push	 10			; 0000000aH
  001f5	68 97 00 00 00	 push	 151			; 00000097H
  001fa	8b 4d 0c	 mov	 ecx, DWORD PTR _receiver$[ebp]
  001fd	51		 push	 ecx
  001fe	69 55 ac b8 08
	00 00		 imul	 edx, DWORD PTR tv164[ebp], 2232
  00205	8b 45 a8	 mov	 eax, DWORD PTR tv172[ebp]
  00208	8d 8c c2 00 00
	00 00		 lea	 ecx, DWORD PTR ?fn_set_client_server_entity_int_value@@3PAY1BBH@1P6GXPAUENTITY@@W4INT_TYPES@@H@ZA[edx+eax*8]
  0020f	8b 15 00 00 00
	00		 mov	 edx, DWORD PTR ?system_comms_model@@3W4COMMS_MODEL_TYPES@@A ; system_comms_model
  00215	8b 04 91	 mov	 eax, DWORD PTR [ecx+edx*4]
  00218	ff d0		 call	 eax

; 2074 : 
; 2075 : 	/////////////////////////////////////////////////////////////////
; 2076 : 	//
; 2077 : 	// SPECIAL_EFFECT_HOOK FOR ENTERING HOLDING PATTERN
; 2078 : 	//
; 2079 : 	/////////////////////////////////////////////////////////////////
; 2080 : 
; 2081 : 	/////////////////////////////////////////////////////////////////
; 2082 : 	//
; 2083 : 	//
; 2084 : 	/////////////////////////////////////////////////////////////////
; 2085 : 
; 2086 : 	//
; 2087 : 	// Have all members taken off ?
; 2088 : 	//
; 2089 : 
; 2090 : 	mobile_check_all_members_taken_off (receiver);

  0021a	8b 45 0c	 mov	 eax, DWORD PTR _receiver$[ebp]
  0021d	50		 push	 eax
  0021e	e8 00 00 00 00	 call	 ?mobile_check_all_members_taken_off@@YGHPAUENTITY@@@Z ; mobile_check_all_members_taken_off

; 2091 : 
; 2092 : 	/////////////////////////////////////////////////////////////////
; 2093 : 	//
; 2094 : 	// SPECIAL_EFFECT_HOOK FOR COMPLETED TAKEOFF 
; 2095 : 	//
; 2096 : 	/////////////////////////////////////////////////////////////////
; 2097 : 
; 2098 : 	set_local_entity_float_value (receiver, FLOAT_TYPE_VIEW_INTEREST_LEVEL, DEFAULT_VIEW_INTEREST_LEVEL);

  00223	83 7d 0c 00	 cmp	 DWORD PTR _receiver$[ebp], 0
  00227	74 0a		 je	 SHORT $LN21@response_t
  00229	8b 45 0c	 mov	 eax, DWORD PTR _receiver$[ebp]
  0022c	8b 08		 mov	 ecx, DWORD PTR [eax]
  0022e	89 4d ac	 mov	 DWORD PTR tv187[ebp], ecx
  00231	eb 21		 jmp	 SHORT $LN22@response_t
$LN21@response_t:
  00233	8b 15 00 00 00
	00		 mov	 edx, DWORD PTR ?__LINE__Var@?0??response_to_waypoint_taken_off_reached@@YGHW4ENTITY_MESSAGES@@PAUENTITY@@1PAD@Z@4JA
  00239	83 c2 40	 add	 edx, 64			; 00000040H
  0023c	52		 push	 edx
  0023d	68 00 00 00 00	 push	 OFFSET ??_C@_0EE@DLIIEJCN@c?3?2users?2nhv90?2projects?2eech?2ap@
  00242	a1 00 00 00 00	 mov	 eax, DWORD PTR ?null_entity_pointer_message@@3PBDB ; null_entity_pointer_message
  00247	50		 push	 eax
  00248	e8 00 00 00 00	 call	 ?process_assert@@YGXPBD0H@Z ; process_assert
  0024d	c7 45 ac 00 00
	00 00		 mov	 DWORD PTR tv187[ebp], 0
$LN22@response_t:
  00254	b9 01 00 00 00	 mov	 ecx, 1
  00259	85 c9		 test	 ecx, ecx
  0025b	74 09		 je	 SHORT $LN23@response_t
  0025d	c7 45 a8 95 00
	00 00		 mov	 DWORD PTR tv195[ebp], 149 ; 00000095H
  00264	eb 21		 jmp	 SHORT $LN24@response_t
$LN23@response_t:
  00266	8b 15 00 00 00
	00		 mov	 edx, DWORD PTR ?__LINE__Var@?0??response_to_waypoint_taken_off_reached@@YGHW4ENTITY_MESSAGES@@PAUENTITY@@1PAD@Z@4JA
  0026c	83 c2 40	 add	 edx, 64			; 00000040H
  0026f	52		 push	 edx
  00270	68 00 00 00 00	 push	 OFFSET ??_C@_0EE@DLIIEJCN@c?3?2users?2nhv90?2projects?2eech?2ap@
  00275	a1 00 00 00 00	 mov	 eax, DWORD PTR ?overload_invalid_float_type_message@@3PBDB ; overload_invalid_float_type_message
  0027a	50		 push	 eax
  0027b	e8 00 00 00 00	 call	 ?process_assert@@YGXPBD0H@Z ; process_assert
  00280	c7 45 a8 00 00
	00 00		 mov	 DWORD PTR tv195[ebp], 0
$LN24@response_t:
  00287	51		 push	 ecx
  00288	f3 0f 10 05 00
	00 00 00	 movss	 xmm0, DWORD PTR __real@40a00000
  00290	f3 0f 11 04 24	 movss	 DWORD PTR [esp], xmm0
  00295	68 95 00 00 00	 push	 149			; 00000095H
  0029a	8b 4d 0c	 mov	 ecx, DWORD PTR _receiver$[ebp]
  0029d	51		 push	 ecx
  0029e	69 55 ac bc 02
	00 00		 imul	 edx, DWORD PTR tv187[ebp], 700
  002a5	8b 45 a8	 mov	 eax, DWORD PTR tv195[ebp]
  002a8	8b 8c 82 00 00
	00 00		 mov	 ecx, DWORD PTR ?fn_set_local_entity_float_value@@3PAY0KP@P6GXPAUENTITY@@W4FLOAT_TYPES@@M@ZA[edx+eax*4]
  002af	ff d1		 call	 ecx

; 2099 : 
; 2100 : 	if (get_local_entity_type (receiver) == ENTITY_TYPE_FIXED_WING)

  002b1	83 7d 0c 00	 cmp	 DWORD PTR _receiver$[ebp], 0
  002b5	74 0a		 je	 SHORT $LN25@response_t
  002b7	8b 45 0c	 mov	 eax, DWORD PTR _receiver$[ebp]
  002ba	8b 08		 mov	 ecx, DWORD PTR [eax]
  002bc	89 4d ac	 mov	 DWORD PTR tv206[ebp], ecx
  002bf	eb 1d		 jmp	 SHORT $LN26@response_t
$LN25@response_t:
  002c1	68 34 08 00 00	 push	 2100			; 00000834H
  002c6	68 00 00 00 00	 push	 OFFSET ??_C@_0EE@DLIIEJCN@c?3?2users?2nhv90?2projects?2eech?2ap@
  002cb	8b 15 00 00 00
	00		 mov	 edx, DWORD PTR ?null_entity_pointer_message@@3PBDB ; null_entity_pointer_message
  002d1	52		 push	 edx
  002d2	e8 00 00 00 00	 call	 ?process_assert@@YGXPBD0H@Z ; process_assert
  002d7	c7 45 ac 00 00
	00 00		 mov	 DWORD PTR tv206[ebp], 0
$LN26@response_t:
  002de	83 7d ac 0a	 cmp	 DWORD PTR tv206[ebp], 10 ; 0000000aH
  002e2	75 19		 jne	 SHORT $LN5@response_t

; 2101 : 	{
; 2102 : 		set_client_server_fixed_wing_afterburner_state (receiver, OFF);

  002e4	6a 00		 push	 0
  002e6	8b 45 0c	 mov	 eax, DWORD PTR _receiver$[ebp]
  002e9	50		 push	 eax
  002ea	e8 00 00 00 00	 call	 ?set_client_server_fixed_wing_afterburner_state@@YGXPAUENTITY@@H@Z ; set_client_server_fixed_wing_afterburner_state

; 2103 : 
; 2104 : 		close_client_server_entity_flaps (receiver);

  002ef	8b 45 0c	 mov	 eax, DWORD PTR _receiver$[ebp]
  002f2	50		 push	 eax
  002f3	e8 00 00 00 00	 call	 ?close_client_server_entity_flaps@@YGXPAUENTITY@@@Z ; close_client_server_entity_flaps
  002f8	e9 3b 01 00 00	 jmp	 $LN7@response_t
$LN5@response_t:

; 2105 : 	}
; 2106 : 	else if (get_local_entity_type (receiver) == ENTITY_TYPE_ROUTED_VEHICLE)

  002fd	83 7d 0c 00	 cmp	 DWORD PTR _receiver$[ebp], 0
  00301	74 0a		 je	 SHORT $LN27@response_t
  00303	8b 45 0c	 mov	 eax, DWORD PTR _receiver$[ebp]
  00306	8b 08		 mov	 ecx, DWORD PTR [eax]
  00308	89 4d ac	 mov	 DWORD PTR tv216[ebp], ecx
  0030b	eb 1d		 jmp	 SHORT $LN28@response_t
$LN27@response_t:
  0030d	68 3a 08 00 00	 push	 2106			; 0000083aH
  00312	68 00 00 00 00	 push	 OFFSET ??_C@_0EE@DLIIEJCN@c?3?2users?2nhv90?2projects?2eech?2ap@
  00317	8b 15 00 00 00
	00		 mov	 edx, DWORD PTR ?null_entity_pointer_message@@3PBDB ; null_entity_pointer_message
  0031d	52		 push	 edx
  0031e	e8 00 00 00 00	 call	 ?process_assert@@YGXPBD0H@Z ; process_assert
  00323	c7 45 ac 00 00
	00 00		 mov	 DWORD PTR tv216[ebp], 0
$LN28@response_t:
  0032a	83 7d ac 17	 cmp	 DWORD PTR tv216[ebp], 23 ; 00000017H
  0032e	0f 85 04 01 00
	00		 jne	 $LN7@response_t

; 2107 : 	{
; 2108 : 
; 2109 : 		// set the formation numbers of the group to make the leader formation position 0
; 2110 : 		// stopping RV's driving on top of each other
; 2111 : 
; 2112 : 		set_client_server_entity_int_value (receiver, INT_TYPE_FORMATION_POSITION, get_local_entity_int_value (receiver, INT_TYPE_GROUP_MEMBER_NUMBER));

  00334	83 7d 0c 00	 cmp	 DWORD PTR _receiver$[ebp], 0
  00338	74 0a		 je	 SHORT $LN33@response_t
  0033a	8b 45 0c	 mov	 eax, DWORD PTR _receiver$[ebp]
  0033d	8b 08		 mov	 ecx, DWORD PTR [eax]
  0033f	89 4d ac	 mov	 DWORD PTR tv243[ebp], ecx
  00342	eb 21		 jmp	 SHORT $LN34@response_t
$LN33@response_t:
  00344	8b 15 00 00 00
	00		 mov	 edx, DWORD PTR ?__LINE__Var@?0??response_to_waypoint_taken_off_reached@@YGHW4ENTITY_MESSAGES@@PAUENTITY@@1PAD@Z@4JA
  0034a	83 c2 4e	 add	 edx, 78			; 0000004eH
  0034d	52		 push	 edx
  0034e	68 00 00 00 00	 push	 OFFSET ??_C@_0EE@DLIIEJCN@c?3?2users?2nhv90?2projects?2eech?2ap@
  00353	a1 00 00 00 00	 mov	 eax, DWORD PTR ?null_entity_pointer_message@@3PBDB ; null_entity_pointer_message
  00358	50		 push	 eax
  00359	e8 00 00 00 00	 call	 ?process_assert@@YGXPBD0H@Z ; process_assert
  0035e	c7 45 ac 00 00
	00 00		 mov	 DWORD PTR tv243[ebp], 0
$LN34@response_t:
  00365	b9 01 00 00 00	 mov	 ecx, 1
  0036a	85 c9		 test	 ecx, ecx
  0036c	74 09		 je	 SHORT $LN35@response_t
  0036e	c7 45 a8 4b 00
	00 00		 mov	 DWORD PTR tv251[ebp], 75 ; 0000004bH
  00375	eb 21		 jmp	 SHORT $LN36@response_t
$LN35@response_t:
  00377	8b 15 00 00 00
	00		 mov	 edx, DWORD PTR ?__LINE__Var@?0??response_to_waypoint_taken_off_reached@@YGHW4ENTITY_MESSAGES@@PAUENTITY@@1PAD@Z@4JA
  0037d	83 c2 4e	 add	 edx, 78			; 0000004eH
  00380	52		 push	 edx
  00381	68 00 00 00 00	 push	 OFFSET ??_C@_0EE@DLIIEJCN@c?3?2users?2nhv90?2projects?2eech?2ap@
  00386	a1 00 00 00 00	 mov	 eax, DWORD PTR ?overload_invalid_int_type_message@@3PBDB ; overload_invalid_int_type_message
  0038b	50		 push	 eax
  0038c	e8 00 00 00 00	 call	 ?process_assert@@YGXPBD0H@Z ; process_assert
  00391	c7 45 a8 00 00
	00 00		 mov	 DWORD PTR tv251[ebp], 0
$LN36@response_t:
  00398	83 7d 0c 00	 cmp	 DWORD PTR _receiver$[ebp], 0
  0039c	74 0a		 je	 SHORT $LN29@response_t
  0039e	8b 4d 0c	 mov	 ecx, DWORD PTR _receiver$[ebp]
  003a1	8b 11		 mov	 edx, DWORD PTR [ecx]
  003a3	89 55 a4	 mov	 DWORD PTR tv224[ebp], edx
  003a6	eb 21		 jmp	 SHORT $LN30@response_t
$LN29@response_t:
  003a8	a1 00 00 00 00	 mov	 eax, DWORD PTR ?__LINE__Var@?0??response_to_waypoint_taken_off_reached@@YGHW4ENTITY_MESSAGES@@PAUENTITY@@1PAD@Z@4JA
  003ad	83 c0 4e	 add	 eax, 78			; 0000004eH
  003b0	50		 push	 eax
  003b1	68 00 00 00 00	 push	 OFFSET ??_C@_0EE@DLIIEJCN@c?3?2users?2nhv90?2projects?2eech?2ap@
  003b6	8b 0d 00 00 00
	00		 mov	 ecx, DWORD PTR ?null_entity_pointer_message@@3PBDB ; null_entity_pointer_message
  003bc	51		 push	 ecx
  003bd	e8 00 00 00 00	 call	 ?process_assert@@YGXPBD0H@Z ; process_assert
  003c2	c7 45 a4 00 00
	00 00		 mov	 DWORD PTR tv224[ebp], 0
$LN30@response_t:
  003c9	ba 01 00 00 00	 mov	 edx, 1
  003ce	85 d2		 test	 edx, edx
  003d0	74 09		 je	 SHORT $LN31@response_t
  003d2	c7 45 a0 3e 00
	00 00		 mov	 DWORD PTR tv232[ebp], 62 ; 0000003eH
  003d9	eb 21		 jmp	 SHORT $LN32@response_t
$LN31@response_t:
  003db	a1 00 00 00 00	 mov	 eax, DWORD PTR ?__LINE__Var@?0??response_to_waypoint_taken_off_reached@@YGHW4ENTITY_MESSAGES@@PAUENTITY@@1PAD@Z@4JA
  003e0	83 c0 4e	 add	 eax, 78			; 0000004eH
  003e3	50		 push	 eax
  003e4	68 00 00 00 00	 push	 OFFSET ??_C@_0EE@DLIIEJCN@c?3?2users?2nhv90?2projects?2eech?2ap@
  003e9	8b 0d 00 00 00
	00		 mov	 ecx, DWORD PTR ?overload_invalid_int_type_message@@3PBDB ; overload_invalid_int_type_message
  003ef	51		 push	 ecx
  003f0	e8 00 00 00 00	 call	 ?process_assert@@YGXPBD0H@Z ; process_assert
  003f5	c7 45 a0 00 00
	00 00		 mov	 DWORD PTR tv232[ebp], 0
$LN32@response_t:
  003fc	6a 4b		 push	 75			; 0000004bH
  003fe	8b 55 0c	 mov	 edx, DWORD PTR _receiver$[ebp]
  00401	52		 push	 edx
  00402	69 45 ac 5c 04
	00 00		 imul	 eax, DWORD PTR tv243[ebp], 1116
  00409	8b 4d a8	 mov	 ecx, DWORD PTR tv251[ebp]
  0040c	8b 94 88 00 00
	00 00		 mov	 edx, DWORD PTR ?fn_get_local_entity_int_value@@3PAY0BBH@P6GHPAUENTITY@@W4INT_TYPES@@@ZA[eax+ecx*4]
  00413	ff d2		 call	 edx
  00415	50		 push	 eax
  00416	6a 3e		 push	 62			; 0000003eH
  00418	8b 45 0c	 mov	 eax, DWORD PTR _receiver$[ebp]
  0041b	50		 push	 eax
  0041c	69 4d a4 b8 08
	00 00		 imul	 ecx, DWORD PTR tv224[ebp], 2232
  00423	8b 55 a0	 mov	 edx, DWORD PTR tv232[ebp]
  00426	8d 84 d1 00 00
	00 00		 lea	 eax, DWORD PTR ?fn_set_client_server_entity_int_value@@3PAY1BBH@1P6GXPAUENTITY@@W4INT_TYPES@@H@ZA[ecx+edx*8]
  0042d	8b 0d 00 00 00
	00		 mov	 ecx, DWORD PTR ?system_comms_model@@3W4COMMS_MODEL_TYPES@@A ; system_comms_model
  00433	8b 14 88	 mov	 edx, DWORD PTR [eax+ecx*4]
  00436	ff d2		 call	 edx
$LN7@response_t:

; 2113 : 	}
; 2114 : 
; 2115 : 	/////////////////////////////////////////////////////////////////
; 2116 : 	//
; 2117 : 	//
; 2118 : 	/////////////////////////////////////////////////////////////////
; 2119 : 
; 2120 : 	return (TRUE);

  00438	b8 01 00 00 00	 mov	 eax, 1

; 2121 : }

  0043d	5f		 pop	 edi
  0043e	5e		 pop	 esi
  0043f	5b		 pop	 ebx
  00440	8b e5		 mov	 esp, ebp
  00442	5d		 pop	 ebp
  00443	c2 10 00	 ret	 16			; 00000010H
?response_to_waypoint_taken_off_reached@@YGHW4ENTITY_MESSAGES@@PAUENTITY@@1PAD@Z ENDP ; response_to_waypoint_taken_off_reached
_TEXT	ENDS
; Function compile flags: /Odtp /ZI
; File c:\users\nhv90\projects\eech\aphavoc\source\entity\mobile\mb_msgs.c
;	COMDAT ?response_to_waypoint_repair_reached@@YGHW4ENTITY_MESSAGES@@PAUENTITY@@1PAD@Z
_TEXT	SEGMENT
tv201 = -80						; size = 4
tv185 = -80						; size = 4
tv173 = -80						; size = 4
tv148 = -80						; size = 4
tv94 = -80						; size = 4
tv193 = -76						; size = 4
tv184 = -76						; size = 4
tv165 = -76						; size = 4
tv140 = -76						; size = 4
tv86 = -76						; size = 4
_objective$ = -8					; size = 4
_task$ = -4						; size = 4
_message$ = 8						; size = 4
_receiver$ = 12						; size = 4
_sender$ = 16						; size = 4
_pargs$ = 20						; size = 4
?response_to_waypoint_repair_reached@@YGHW4ENTITY_MESSAGES@@PAUENTITY@@1PAD@Z PROC ; response_to_waypoint_repair_reached, COMDAT

; 1985 : {

  00000	55		 push	 ebp
  00001	8b ec		 mov	 ebp, esp
  00003	83 ec 50	 sub	 esp, 80			; 00000050H
  00006	53		 push	 ebx
  00007	56		 push	 esi
  00008	57		 push	 edi

; 1986 : 	entity
; 1987 : 		*task,
; 1988 : 		*objective;
; 1989 : 
; 1990 : 	ASSERT (sender);

  00009	83 7d 10 00	 cmp	 DWORD PTR _sender$[ebp], 0
  0000d	75 18		 jne	 SHORT $LN4@response_t
  0000f	a1 00 00 00 00	 mov	 eax, DWORD PTR ?__LINE__Var@?0??response_to_waypoint_repair_reached@@YGHW4ENTITY_MESSAGES@@PAUENTITY@@1PAD@Z@4JA
  00014	83 c0 05	 add	 eax, 5
  00017	50		 push	 eax
  00018	68 00 00 00 00	 push	 OFFSET ??_C@_0EE@DLIIEJCN@c?3?2users?2nhv90?2projects?2eech?2ap@
  0001d	68 00 00 00 00	 push	 OFFSET ??_C@_06CGHJMPBJ@sender@
  00022	e8 00 00 00 00	 call	 ?process_assert@@YGXPBD0H@Z ; process_assert
$LN4@response_t:

; 1991 : 
; 1992 : 	ASSERT (sender->type == ENTITY_TYPE_WAYPOINT);

  00027	8b 45 10	 mov	 eax, DWORD PTR _sender$[ebp]
  0002a	83 38 24	 cmp	 DWORD PTR [eax], 36	; 00000024H
  0002d	74 18		 je	 SHORT $LN5@response_t
  0002f	a1 00 00 00 00	 mov	 eax, DWORD PTR ?__LINE__Var@?0??response_to_waypoint_repair_reached@@YGHW4ENTITY_MESSAGES@@PAUENTITY@@1PAD@Z@4JA
  00034	83 c0 07	 add	 eax, 7
  00037	50		 push	 eax
  00038	68 00 00 00 00	 push	 OFFSET ??_C@_0EE@DLIIEJCN@c?3?2users?2nhv90?2projects?2eech?2ap@
  0003d	68 00 00 00 00	 push	 OFFSET ??_C@_0CF@JOKOGIDD@sender?9?$DOtype?5?$DN?$DN?5ENTITY_TYPE_WAY@
  00042	e8 00 00 00 00	 call	 ?process_assert@@YGXPBD0H@Z ; process_assert
$LN5@response_t:

; 1993 : 
; 1994 : 	ASSERT (get_comms_model () == COMMS_MODEL_SERVER);

  00047	83 3d 00 00 00
	00 00		 cmp	 DWORD PTR ?system_comms_model@@3W4COMMS_MODEL_TYPES@@A, 0 ; system_comms_model
  0004e	74 18		 je	 SHORT $LN6@response_t
  00050	a1 00 00 00 00	 mov	 eax, DWORD PTR ?__LINE__Var@?0??response_to_waypoint_repair_reached@@YGHW4ENTITY_MESSAGES@@PAUENTITY@@1PAD@Z@4JA
  00055	83 c0 09	 add	 eax, 9
  00058	50		 push	 eax
  00059	68 00 00 00 00	 push	 OFFSET ??_C@_0EE@DLIIEJCN@c?3?2users?2nhv90?2projects?2eech?2ap@
  0005e	68 00 00 00 00	 push	 OFFSET ??_C@_0CJ@DMBLBJBK@get_comms_model?5?$CI?$CJ?5?$DN?$DN?5COMMS_MOD@
  00063	e8 00 00 00 00	 call	 ?process_assert@@YGXPBD0H@Z ; process_assert
$LN6@response_t:

; 1995 : 
; 1996 : 	debug_log ("MB_MSGS: repair waypoint reached by %s", get_local_entity_string (receiver, STRING_TYPE_FULL_NAME));

  00068	83 7d 0c 00	 cmp	 DWORD PTR _receiver$[ebp], 0
  0006c	74 0a		 je	 SHORT $LN11@response_t
  0006e	8b 45 0c	 mov	 eax, DWORD PTR _receiver$[ebp]
  00071	8b 08		 mov	 ecx, DWORD PTR [eax]
  00073	89 4d b4	 mov	 DWORD PTR tv86[ebp], ecx
  00076	eb 21		 jmp	 SHORT $LN12@response_t
$LN11@response_t:
  00078	8b 15 00 00 00
	00		 mov	 edx, DWORD PTR ?__LINE__Var@?0??response_to_waypoint_repair_reached@@YGHW4ENTITY_MESSAGES@@PAUENTITY@@1PAD@Z@4JA
  0007e	83 c2 0b	 add	 edx, 11			; 0000000bH
  00081	52		 push	 edx
  00082	68 00 00 00 00	 push	 OFFSET ??_C@_0EE@DLIIEJCN@c?3?2users?2nhv90?2projects?2eech?2ap@
  00087	a1 00 00 00 00	 mov	 eax, DWORD PTR ?null_entity_pointer_message@@3PBDB ; null_entity_pointer_message
  0008c	50		 push	 eax
  0008d	e8 00 00 00 00	 call	 ?process_assert@@YGXPBD0H@Z ; process_assert
  00092	c7 45 b4 00 00
	00 00		 mov	 DWORD PTR tv86[ebp], 0
$LN12@response_t:
  00099	b9 01 00 00 00	 mov	 ecx, 1
  0009e	85 c9		 test	 ecx, ecx
  000a0	74 09		 je	 SHORT $LN13@response_t
  000a2	c7 45 b0 03 00
	00 00		 mov	 DWORD PTR tv94[ebp], 3
  000a9	eb 21		 jmp	 SHORT $LN14@response_t
$LN13@response_t:
  000ab	8b 15 00 00 00
	00		 mov	 edx, DWORD PTR ?__LINE__Var@?0??response_to_waypoint_repair_reached@@YGHW4ENTITY_MESSAGES@@PAUENTITY@@1PAD@Z@4JA
  000b1	83 c2 0b	 add	 edx, 11			; 0000000bH
  000b4	52		 push	 edx
  000b5	68 00 00 00 00	 push	 OFFSET ??_C@_0EE@DLIIEJCN@c?3?2users?2nhv90?2projects?2eech?2ap@
  000ba	a1 00 00 00 00	 mov	 eax, DWORD PTR ?overload_invalid_string_type_message@@3PBDB ; overload_invalid_string_type_message
  000bf	50		 push	 eax
  000c0	e8 00 00 00 00	 call	 ?process_assert@@YGXPBD0H@Z ; process_assert
  000c5	c7 45 b0 00 00
	00 00		 mov	 DWORD PTR tv94[ebp], 0
$LN14@response_t:
  000cc	6a 03		 push	 3
  000ce	8b 4d 0c	 mov	 ecx, DWORD PTR _receiver$[ebp]
  000d1	51		 push	 ecx
  000d2	6b 55 b4 34	 imul	 edx, DWORD PTR tv86[ebp], 52
  000d6	8b 45 b0	 mov	 eax, DWORD PTR tv94[ebp]
  000d9	8b 8c 82 00 00
	00 00		 mov	 ecx, DWORD PTR ?fn_get_local_entity_string@@3PAY0N@P6GPBDPAUENTITY@@W4STRING_TYPES@@@ZA[edx+eax*4]
  000e0	ff d1		 call	 ecx
  000e2	50		 push	 eax
  000e3	68 00 00 00 00	 push	 OFFSET ??_C@_0CH@MDABEMMF@MB_MSGS?3?5repair?5waypoint?5reache@
  000e8	e8 00 00 00 00	 call	 ?debug_log@@YAXPBDZZ	; debug_log
  000ed	83 c4 08	 add	 esp, 8

; 1997 : 
; 1998 : 	task = get_local_entity_parent (sender, LIST_TYPE_WAYPOINT);

  000f0	83 7d 10 00	 cmp	 DWORD PTR _sender$[ebp], 0
  000f4	74 0a		 je	 SHORT $LN15@response_t
  000f6	8b 45 10	 mov	 eax, DWORD PTR _sender$[ebp]
  000f9	8b 08		 mov	 ecx, DWORD PTR [eax]
  000fb	89 4d b4	 mov	 DWORD PTR tv140[ebp], ecx
  000fe	eb 21		 jmp	 SHORT $LN16@response_t
$LN15@response_t:
  00100	8b 15 00 00 00
	00		 mov	 edx, DWORD PTR ?__LINE__Var@?0??response_to_waypoint_repair_reached@@YGHW4ENTITY_MESSAGES@@PAUENTITY@@1PAD@Z@4JA
  00106	83 c2 0d	 add	 edx, 13			; 0000000dH
  00109	52		 push	 edx
  0010a	68 00 00 00 00	 push	 OFFSET ??_C@_0EE@DLIIEJCN@c?3?2users?2nhv90?2projects?2eech?2ap@
  0010f	a1 00 00 00 00	 mov	 eax, DWORD PTR ?null_entity_pointer_message@@3PBDB ; null_entity_pointer_message
  00114	50		 push	 eax
  00115	e8 00 00 00 00	 call	 ?process_assert@@YGXPBD0H@Z ; process_assert
  0011a	c7 45 b4 00 00
	00 00		 mov	 DWORD PTR tv140[ebp], 0
$LN16@response_t:
  00121	b9 01 00 00 00	 mov	 ecx, 1
  00126	85 c9		 test	 ecx, ecx
  00128	74 09		 je	 SHORT $LN17@response_t
  0012a	c7 45 b0 2c 00
	00 00		 mov	 DWORD PTR tv148[ebp], 44 ; 0000002cH
  00131	eb 21		 jmp	 SHORT $LN18@response_t
$LN17@response_t:
  00133	8b 15 00 00 00
	00		 mov	 edx, DWORD PTR ?__LINE__Var@?0??response_to_waypoint_repair_reached@@YGHW4ENTITY_MESSAGES@@PAUENTITY@@1PAD@Z@4JA
  00139	83 c2 0d	 add	 edx, 13			; 0000000dH
  0013c	52		 push	 edx
  0013d	68 00 00 00 00	 push	 OFFSET ??_C@_0EE@DLIIEJCN@c?3?2users?2nhv90?2projects?2eech?2ap@
  00142	a1 00 00 00 00	 mov	 eax, DWORD PTR ?overload_invalid_list_type_message@@3PBDB ; overload_invalid_list_type_message
  00147	50		 push	 eax
  00148	e8 00 00 00 00	 call	 ?process_assert@@YGXPBD0H@Z ; process_assert
  0014d	c7 45 b0 00 00
	00 00		 mov	 DWORD PTR tv148[ebp], 0
$LN18@response_t:
  00154	6a 2c		 push	 44			; 0000002cH
  00156	8b 4d 10	 mov	 ecx, DWORD PTR _sender$[ebp]
  00159	51		 push	 ecx
  0015a	69 55 b4 b4 00
	00 00		 imul	 edx, DWORD PTR tv140[ebp], 180
  00161	8b 45 b0	 mov	 eax, DWORD PTR tv148[ebp]
  00164	8b 8c 82 00 00
	00 00		 mov	 ecx, DWORD PTR ?fn_get_local_entity_parent@@3PAY0CN@P6GPAUENTITY@@PAU1@W4LIST_TYPES@@@ZA[edx+eax*4]
  0016b	ff d1		 call	 ecx
  0016d	89 45 fc	 mov	 DWORD PTR _task$[ebp], eax

; 1999 : 
; 2000 : 	ASSERT (task);

  00170	83 7d fc 00	 cmp	 DWORD PTR _task$[ebp], 0
  00174	75 18		 jne	 SHORT $LN7@response_t
  00176	a1 00 00 00 00	 mov	 eax, DWORD PTR ?__LINE__Var@?0??response_to_waypoint_repair_reached@@YGHW4ENTITY_MESSAGES@@PAUENTITY@@1PAD@Z@4JA
  0017b	83 c0 0f	 add	 eax, 15			; 0000000fH
  0017e	50		 push	 eax
  0017f	68 00 00 00 00	 push	 OFFSET ??_C@_0EE@DLIIEJCN@c?3?2users?2nhv90?2projects?2eech?2ap@
  00184	68 00 00 00 00	 push	 OFFSET ??_C@_04GGKLLKOO@task@
  00189	e8 00 00 00 00	 call	 ?process_assert@@YGXPBD0H@Z ; process_assert
$LN7@response_t:

; 2001 : 
; 2002 : 	objective = get_local_entity_parent (task, LIST_TYPE_TASK_DEPENDENT);

  0018e	83 7d fc 00	 cmp	 DWORD PTR _task$[ebp], 0
  00192	74 0a		 je	 SHORT $LN19@response_t
  00194	8b 45 fc	 mov	 eax, DWORD PTR _task$[ebp]
  00197	8b 08		 mov	 ecx, DWORD PTR [eax]
  00199	89 4d b4	 mov	 DWORD PTR tv165[ebp], ecx
  0019c	eb 21		 jmp	 SHORT $LN20@response_t
$LN19@response_t:
  0019e	8b 15 00 00 00
	00		 mov	 edx, DWORD PTR ?__LINE__Var@?0??response_to_waypoint_repair_reached@@YGHW4ENTITY_MESSAGES@@PAUENTITY@@1PAD@Z@4JA
  001a4	83 c2 11	 add	 edx, 17			; 00000011H
  001a7	52		 push	 edx
  001a8	68 00 00 00 00	 push	 OFFSET ??_C@_0EE@DLIIEJCN@c?3?2users?2nhv90?2projects?2eech?2ap@
  001ad	a1 00 00 00 00	 mov	 eax, DWORD PTR ?null_entity_pointer_message@@3PBDB ; null_entity_pointer_message
  001b2	50		 push	 eax
  001b3	e8 00 00 00 00	 call	 ?process_assert@@YGXPBD0H@Z ; process_assert
  001b8	c7 45 b4 00 00
	00 00		 mov	 DWORD PTR tv165[ebp], 0
$LN20@response_t:
  001bf	b9 01 00 00 00	 mov	 ecx, 1
  001c4	85 c9		 test	 ecx, ecx
  001c6	74 09		 je	 SHORT $LN21@response_t
  001c8	c7 45 b0 27 00
	00 00		 mov	 DWORD PTR tv173[ebp], 39 ; 00000027H
  001cf	eb 21		 jmp	 SHORT $LN22@response_t
$LN21@response_t:
  001d1	8b 15 00 00 00
	00		 mov	 edx, DWORD PTR ?__LINE__Var@?0??response_to_waypoint_repair_reached@@YGHW4ENTITY_MESSAGES@@PAUENTITY@@1PAD@Z@4JA
  001d7	83 c2 11	 add	 edx, 17			; 00000011H
  001da	52		 push	 edx
  001db	68 00 00 00 00	 push	 OFFSET ??_C@_0EE@DLIIEJCN@c?3?2users?2nhv90?2projects?2eech?2ap@
  001e0	a1 00 00 00 00	 mov	 eax, DWORD PTR ?overload_invalid_list_type_message@@3PBDB ; overload_invalid_list_type_message
  001e5	50		 push	 eax
  001e6	e8 00 00 00 00	 call	 ?process_assert@@YGXPBD0H@Z ; process_assert
  001eb	c7 45 b0 00 00
	00 00		 mov	 DWORD PTR tv173[ebp], 0
$LN22@response_t:
  001f2	6a 27		 push	 39			; 00000027H
  001f4	8b 4d fc	 mov	 ecx, DWORD PTR _task$[ebp]
  001f7	51		 push	 ecx
  001f8	69 55 b4 b4 00
	00 00		 imul	 edx, DWORD PTR tv165[ebp], 180
  001ff	8b 45 b0	 mov	 eax, DWORD PTR tv173[ebp]
  00202	8b 8c 82 00 00
	00 00		 mov	 ecx, DWORD PTR ?fn_get_local_entity_parent@@3PAY0CN@P6GPAUENTITY@@PAU1@W4LIST_TYPES@@@ZA[edx+eax*4]
  00209	ff d1		 call	 ecx
  0020b	89 45 f8	 mov	 DWORD PTR _objective$[ebp], eax

; 2003 : 
; 2004 : 	switch (get_local_entity_type (objective))

  0020e	83 7d f8 00	 cmp	 DWORD PTR _objective$[ebp], 0
  00212	74 0a		 je	 SHORT $LN23@response_t
  00214	8b 45 f8	 mov	 eax, DWORD PTR _objective$[ebp]
  00217	8b 08		 mov	 ecx, DWORD PTR [eax]
  00219	89 4d b4	 mov	 DWORD PTR tv184[ebp], ecx
  0021c	eb 1d		 jmp	 SHORT $LN24@response_t
$LN23@response_t:
  0021e	68 d4 07 00 00	 push	 2004			; 000007d4H
  00223	68 00 00 00 00	 push	 OFFSET ??_C@_0EE@DLIIEJCN@c?3?2users?2nhv90?2projects?2eech?2ap@
  00228	8b 15 00 00 00
	00		 mov	 edx, DWORD PTR ?null_entity_pointer_message@@3PBDB ; null_entity_pointer_message
  0022e	52		 push	 edx
  0022f	e8 00 00 00 00	 call	 ?process_assert@@YGXPBD0H@Z ; process_assert
  00234	c7 45 b4 00 00
	00 00		 mov	 DWORD PTR tv184[ebp], 0
$LN24@response_t:
  0023b	8b 45 b4	 mov	 eax, DWORD PTR tv184[ebp]
  0023e	89 45 b0	 mov	 DWORD PTR tv185[ebp], eax
  00241	83 7d b0 02	 cmp	 DWORD PTR tv185[ebp], 2
  00245	74 0b		 je	 SHORT $LN8@response_t
  00247	83 7d b0 0f	 cmp	 DWORD PTR tv185[ebp], 15 ; 0000000fH
  0024b	74 13		 je	 SHORT $LN9@response_t
  0024d	e9 96 00 00 00	 jmp	 $LN2@response_t
$LN8@response_t:

; 2005 : 	{
; 2006 : 		case ENTITY_TYPE_BRIDGE:
; 2007 : 		{
; 2008 : 			repair_client_server_bridge_entity (objective);

  00252	8b 45 f8	 mov	 eax, DWORD PTR _objective$[ebp]
  00255	50		 push	 eax
  00256	e8 00 00 00 00	 call	 ?repair_client_server_bridge_entity@@YGXPAUENTITY@@@Z ; repair_client_server_bridge_entity

; 2009 : 
; 2010 : 			break;

  0025b	e9 88 00 00 00	 jmp	 $LN2@response_t
$LN9@response_t:

; 2011 : 		}
; 2012 : 		case ENTITY_TYPE_KEYSITE:
; 2013 : 		{
; 2014 : 			set_client_server_entity_int_value (objective, INT_TYPE_KEYSITE_USABLE_STATE, KEYSITE_STATE_REPAIRING);

  00260	83 7d f8 00	 cmp	 DWORD PTR _objective$[ebp], 0
  00264	74 0a		 je	 SHORT $LN25@response_t
  00266	8b 45 f8	 mov	 eax, DWORD PTR _objective$[ebp]
  00269	8b 08		 mov	 ecx, DWORD PTR [eax]
  0026b	89 4d b4	 mov	 DWORD PTR tv193[ebp], ecx
  0026e	eb 21		 jmp	 SHORT $LN26@response_t
$LN25@response_t:
  00270	8b 15 00 00 00
	00		 mov	 edx, DWORD PTR ?__LINE__Var@?0??response_to_waypoint_repair_reached@@YGHW4ENTITY_MESSAGES@@PAUENTITY@@1PAD@Z@4JA
  00276	83 c2 1d	 add	 edx, 29			; 0000001dH
  00279	52		 push	 edx
  0027a	68 00 00 00 00	 push	 OFFSET ??_C@_0EE@DLIIEJCN@c?3?2users?2nhv90?2projects?2eech?2ap@
  0027f	a1 00 00 00 00	 mov	 eax, DWORD PTR ?null_entity_pointer_message@@3PBDB ; null_entity_pointer_message
  00284	50		 push	 eax
  00285	e8 00 00 00 00	 call	 ?process_assert@@YGXPBD0H@Z ; process_assert
  0028a	c7 45 b4 00 00
	00 00		 mov	 DWORD PTR tv193[ebp], 0
$LN26@response_t:
  00291	b9 01 00 00 00	 mov	 ecx, 1
  00296	85 c9		 test	 ecx, ecx
  00298	74 09		 je	 SHORT $LN27@response_t
  0029a	c7 45 b0 70 00
	00 00		 mov	 DWORD PTR tv201[ebp], 112 ; 00000070H
  002a1	eb 21		 jmp	 SHORT $LN28@response_t
$LN27@response_t:
  002a3	8b 15 00 00 00
	00		 mov	 edx, DWORD PTR ?__LINE__Var@?0??response_to_waypoint_repair_reached@@YGHW4ENTITY_MESSAGES@@PAUENTITY@@1PAD@Z@4JA
  002a9	83 c2 1d	 add	 edx, 29			; 0000001dH
  002ac	52		 push	 edx
  002ad	68 00 00 00 00	 push	 OFFSET ??_C@_0EE@DLIIEJCN@c?3?2users?2nhv90?2projects?2eech?2ap@
  002b2	a1 00 00 00 00	 mov	 eax, DWORD PTR ?overload_invalid_int_type_message@@3PBDB ; overload_invalid_int_type_message
  002b7	50		 push	 eax
  002b8	e8 00 00 00 00	 call	 ?process_assert@@YGXPBD0H@Z ; process_assert
  002bd	c7 45 b0 00 00
	00 00		 mov	 DWORD PTR tv201[ebp], 0
$LN28@response_t:
  002c4	6a 02		 push	 2
  002c6	6a 70		 push	 112			; 00000070H
  002c8	8b 4d f8	 mov	 ecx, DWORD PTR _objective$[ebp]
  002cb	51		 push	 ecx
  002cc	69 55 b4 b8 08
	00 00		 imul	 edx, DWORD PTR tv193[ebp], 2232
  002d3	8b 45 b0	 mov	 eax, DWORD PTR tv201[ebp]
  002d6	8d 8c c2 00 00
	00 00		 lea	 ecx, DWORD PTR ?fn_set_client_server_entity_int_value@@3PAY1BBH@1P6GXPAUENTITY@@W4INT_TYPES@@H@ZA[edx+eax*8]
  002dd	8b 15 00 00 00
	00		 mov	 edx, DWORD PTR ?system_comms_model@@3W4COMMS_MODEL_TYPES@@A ; system_comms_model
  002e3	8b 04 91	 mov	 eax, DWORD PTR [ecx+edx*4]
  002e6	ff d0		 call	 eax
$LN2@response_t:

; 2015 : 
; 2016 : 			break;
; 2017 : 		}
; 2018 : 	}
; 2019 : 
; 2020 : 	//
; 2021 : 	// Nofity task of task_complete
; 2022 : 	//
; 2023 : 
; 2024 : 	notify_local_entity (ENTITY_MESSAGE_TASK_COMPLETED, task, receiver, TASK_TERMINATED_OBJECTIVE_MESSAGE);

  002e8	6a 04		 push	 4
  002ea	8b 45 0c	 mov	 eax, DWORD PTR _receiver$[ebp]
  002ed	50		 push	 eax
  002ee	8b 4d fc	 mov	 ecx, DWORD PTR _task$[ebp]
  002f1	51		 push	 ecx
  002f2	6a 32		 push	 50			; 00000032H
  002f4	e8 00 00 00 00	 call	 ?notify_local_entity@@YAHW4ENTITY_MESSAGES@@PAUENTITY@@1ZZ ; notify_local_entity
  002f9	83 c4 10	 add	 esp, 16			; 00000010H

; 2025 : 
; 2026 : 	return (TRUE);

  002fc	b8 01 00 00 00	 mov	 eax, 1

; 2027 : }

  00301	5f		 pop	 edi
  00302	5e		 pop	 esi
  00303	5b		 pop	 ebx
  00304	8b e5		 mov	 esp, ebp
  00306	5d		 pop	 ebp
  00307	c2 10 00	 ret	 16			; 00000010H
?response_to_waypoint_repair_reached@@YGHW4ENTITY_MESSAGES@@PAUENTITY@@1PAD@Z ENDP ; response_to_waypoint_repair_reached
_TEXT	ENDS
; Function compile flags: /Odtp /ZI
; File c:\users\nhv90\projects\eech\aphavoc\source\entity\mobile\mb_msgs.c
;	COMDAT ?response_to_waypoint_recon_reached@@YGHW4ENTITY_MESSAGES@@PAUENTITY@@1PAD@Z
_TEXT	SEGMENT
tv188 = -80						; size = 4
tv170 = -80						; size = 4
tv146 = -80						; size = 4
tv94 = -80						; size = 4
tv181 = -76						; size = 4
tv162 = -76						; size = 4
tv138 = -76						; size = 4
tv86 = -76						; size = 4
_task$ = -8						; size = 4
_side$ = -4						; size = 4
_message$ = 8						; size = 4
_receiver$ = 12						; size = 4
_sender$ = 16						; size = 4
_pargs$ = 20						; size = 4
?response_to_waypoint_recon_reached@@YGHW4ENTITY_MESSAGES@@PAUENTITY@@1PAD@Z PROC ; response_to_waypoint_recon_reached, COMDAT

; 1918 : {

  00000	55		 push	 ebp
  00001	8b ec		 mov	 ebp, esp
  00003	83 ec 50	 sub	 esp, 80			; 00000050H
  00006	53		 push	 ebx
  00007	56		 push	 esi
  00008	57		 push	 edi

; 1919 : 	int
; 1920 : 		side;
; 1921 : 
; 1922 : 	entity
; 1923 : 		*task;
; 1924 : 
; 1925 : 	ASSERT (sender);

  00009	83 7d 10 00	 cmp	 DWORD PTR _sender$[ebp], 0
  0000d	75 18		 jne	 SHORT $LN2@response_t
  0000f	a1 00 00 00 00	 mov	 eax, DWORD PTR ?__LINE__Var@?0??response_to_waypoint_recon_reached@@YGHW4ENTITY_MESSAGES@@PAUENTITY@@1PAD@Z@4JA
  00014	83 c0 07	 add	 eax, 7
  00017	50		 push	 eax
  00018	68 00 00 00 00	 push	 OFFSET ??_C@_0EE@DLIIEJCN@c?3?2users?2nhv90?2projects?2eech?2ap@
  0001d	68 00 00 00 00	 push	 OFFSET ??_C@_06CGHJMPBJ@sender@
  00022	e8 00 00 00 00	 call	 ?process_assert@@YGXPBD0H@Z ; process_assert
$LN2@response_t:

; 1926 : 
; 1927 : 	ASSERT (sender->type == ENTITY_TYPE_WAYPOINT);

  00027	8b 45 10	 mov	 eax, DWORD PTR _sender$[ebp]
  0002a	83 38 24	 cmp	 DWORD PTR [eax], 36	; 00000024H
  0002d	74 18		 je	 SHORT $LN3@response_t
  0002f	a1 00 00 00 00	 mov	 eax, DWORD PTR ?__LINE__Var@?0??response_to_waypoint_recon_reached@@YGHW4ENTITY_MESSAGES@@PAUENTITY@@1PAD@Z@4JA
  00034	83 c0 09	 add	 eax, 9
  00037	50		 push	 eax
  00038	68 00 00 00 00	 push	 OFFSET ??_C@_0EE@DLIIEJCN@c?3?2users?2nhv90?2projects?2eech?2ap@
  0003d	68 00 00 00 00	 push	 OFFSET ??_C@_0CF@JOKOGIDD@sender?9?$DOtype?5?$DN?$DN?5ENTITY_TYPE_WAY@
  00042	e8 00 00 00 00	 call	 ?process_assert@@YGXPBD0H@Z ; process_assert
$LN3@response_t:

; 1928 : 
; 1929 : 	ASSERT (get_comms_model () == COMMS_MODEL_SERVER);

  00047	83 3d 00 00 00
	00 00		 cmp	 DWORD PTR ?system_comms_model@@3W4COMMS_MODEL_TYPES@@A, 0 ; system_comms_model
  0004e	74 18		 je	 SHORT $LN4@response_t
  00050	a1 00 00 00 00	 mov	 eax, DWORD PTR ?__LINE__Var@?0??response_to_waypoint_recon_reached@@YGHW4ENTITY_MESSAGES@@PAUENTITY@@1PAD@Z@4JA
  00055	83 c0 0b	 add	 eax, 11			; 0000000bH
  00058	50		 push	 eax
  00059	68 00 00 00 00	 push	 OFFSET ??_C@_0EE@DLIIEJCN@c?3?2users?2nhv90?2projects?2eech?2ap@
  0005e	68 00 00 00 00	 push	 OFFSET ??_C@_0CJ@DMBLBJBK@get_comms_model?5?$CI?$CJ?5?$DN?$DN?5COMMS_MOD@
  00063	e8 00 00 00 00	 call	 ?process_assert@@YGXPBD0H@Z ; process_assert
$LN4@response_t:

; 1930 : 
; 1931 : 	#if DEBUG_MODULE >= 2
; 1932 : 
; 1933 : 	debug_log_entity_message (message, receiver, sender, pargs);
; 1934 : 
; 1935 : 	#endif
; 1936 : 
; 1937 : 	side = get_local_entity_int_value (receiver, INT_TYPE_SIDE);

  00068	83 7d 0c 00	 cmp	 DWORD PTR _receiver$[ebp], 0
  0006c	74 0a		 je	 SHORT $LN8@response_t
  0006e	8b 45 0c	 mov	 eax, DWORD PTR _receiver$[ebp]
  00071	8b 08		 mov	 ecx, DWORD PTR [eax]
  00073	89 4d b4	 mov	 DWORD PTR tv86[ebp], ecx
  00076	eb 21		 jmp	 SHORT $LN9@response_t
$LN8@response_t:
  00078	8b 15 00 00 00
	00		 mov	 edx, DWORD PTR ?__LINE__Var@?0??response_to_waypoint_recon_reached@@YGHW4ENTITY_MESSAGES@@PAUENTITY@@1PAD@Z@4JA
  0007e	83 c2 13	 add	 edx, 19			; 00000013H
  00081	52		 push	 edx
  00082	68 00 00 00 00	 push	 OFFSET ??_C@_0EE@DLIIEJCN@c?3?2users?2nhv90?2projects?2eech?2ap@
  00087	a1 00 00 00 00	 mov	 eax, DWORD PTR ?null_entity_pointer_message@@3PBDB ; null_entity_pointer_message
  0008c	50		 push	 eax
  0008d	e8 00 00 00 00	 call	 ?process_assert@@YGXPBD0H@Z ; process_assert
  00092	c7 45 b4 00 00
	00 00		 mov	 DWORD PTR tv86[ebp], 0
$LN9@response_t:
  00099	b9 01 00 00 00	 mov	 ecx, 1
  0009e	85 c9		 test	 ecx, ecx
  000a0	74 09		 je	 SHORT $LN10@response_t
  000a2	c7 45 b0 bb 00
	00 00		 mov	 DWORD PTR tv94[ebp], 187 ; 000000bbH
  000a9	eb 21		 jmp	 SHORT $LN11@response_t
$LN10@response_t:
  000ab	8b 15 00 00 00
	00		 mov	 edx, DWORD PTR ?__LINE__Var@?0??response_to_waypoint_recon_reached@@YGHW4ENTITY_MESSAGES@@PAUENTITY@@1PAD@Z@4JA
  000b1	83 c2 13	 add	 edx, 19			; 00000013H
  000b4	52		 push	 edx
  000b5	68 00 00 00 00	 push	 OFFSET ??_C@_0EE@DLIIEJCN@c?3?2users?2nhv90?2projects?2eech?2ap@
  000ba	a1 00 00 00 00	 mov	 eax, DWORD PTR ?overload_invalid_int_type_message@@3PBDB ; overload_invalid_int_type_message
  000bf	50		 push	 eax
  000c0	e8 00 00 00 00	 call	 ?process_assert@@YGXPBD0H@Z ; process_assert
  000c5	c7 45 b0 00 00
	00 00		 mov	 DWORD PTR tv94[ebp], 0
$LN11@response_t:
  000cc	68 bb 00 00 00	 push	 187			; 000000bbH
  000d1	8b 4d 0c	 mov	 ecx, DWORD PTR _receiver$[ebp]
  000d4	51		 push	 ecx
  000d5	69 55 b4 5c 04
	00 00		 imul	 edx, DWORD PTR tv86[ebp], 1116
  000dc	8b 45 b0	 mov	 eax, DWORD PTR tv94[ebp]
  000df	8b 8c 82 00 00
	00 00		 mov	 ecx, DWORD PTR ?fn_get_local_entity_int_value@@3PAY0BBH@P6GHPAUENTITY@@W4INT_TYPES@@@ZA[edx+eax*4]
  000e6	ff d1		 call	 ecx
  000e8	89 45 fc	 mov	 DWORD PTR _side$[ebp], eax

; 1938 : 
; 1939 : 	//
; 1940 : 	// Nofity task of task_complete
; 1941 : 	//
; 1942 : 
; 1943 : 	task = get_local_entity_parent (sender, LIST_TYPE_WAYPOINT);

  000eb	83 7d 10 00	 cmp	 DWORD PTR _sender$[ebp], 0
  000ef	74 0a		 je	 SHORT $LN12@response_t
  000f1	8b 45 10	 mov	 eax, DWORD PTR _sender$[ebp]
  000f4	8b 08		 mov	 ecx, DWORD PTR [eax]
  000f6	89 4d b4	 mov	 DWORD PTR tv138[ebp], ecx
  000f9	eb 21		 jmp	 SHORT $LN13@response_t
$LN12@response_t:
  000fb	8b 15 00 00 00
	00		 mov	 edx, DWORD PTR ?__LINE__Var@?0??response_to_waypoint_recon_reached@@YGHW4ENTITY_MESSAGES@@PAUENTITY@@1PAD@Z@4JA
  00101	83 c2 19	 add	 edx, 25			; 00000019H
  00104	52		 push	 edx
  00105	68 00 00 00 00	 push	 OFFSET ??_C@_0EE@DLIIEJCN@c?3?2users?2nhv90?2projects?2eech?2ap@
  0010a	a1 00 00 00 00	 mov	 eax, DWORD PTR ?null_entity_pointer_message@@3PBDB ; null_entity_pointer_message
  0010f	50		 push	 eax
  00110	e8 00 00 00 00	 call	 ?process_assert@@YGXPBD0H@Z ; process_assert
  00115	c7 45 b4 00 00
	00 00		 mov	 DWORD PTR tv138[ebp], 0
$LN13@response_t:
  0011c	b9 01 00 00 00	 mov	 ecx, 1
  00121	85 c9		 test	 ecx, ecx
  00123	74 09		 je	 SHORT $LN14@response_t
  00125	c7 45 b0 2c 00
	00 00		 mov	 DWORD PTR tv146[ebp], 44 ; 0000002cH
  0012c	eb 21		 jmp	 SHORT $LN15@response_t
$LN14@response_t:
  0012e	8b 15 00 00 00
	00		 mov	 edx, DWORD PTR ?__LINE__Var@?0??response_to_waypoint_recon_reached@@YGHW4ENTITY_MESSAGES@@PAUENTITY@@1PAD@Z@4JA
  00134	83 c2 19	 add	 edx, 25			; 00000019H
  00137	52		 push	 edx
  00138	68 00 00 00 00	 push	 OFFSET ??_C@_0EE@DLIIEJCN@c?3?2users?2nhv90?2projects?2eech?2ap@
  0013d	a1 00 00 00 00	 mov	 eax, DWORD PTR ?overload_invalid_list_type_message@@3PBDB ; overload_invalid_list_type_message
  00142	50		 push	 eax
  00143	e8 00 00 00 00	 call	 ?process_assert@@YGXPBD0H@Z ; process_assert
  00148	c7 45 b0 00 00
	00 00		 mov	 DWORD PTR tv146[ebp], 0
$LN15@response_t:
  0014f	6a 2c		 push	 44			; 0000002cH
  00151	8b 4d 10	 mov	 ecx, DWORD PTR _sender$[ebp]
  00154	51		 push	 ecx
  00155	69 55 b4 b4 00
	00 00		 imul	 edx, DWORD PTR tv138[ebp], 180
  0015c	8b 45 b0	 mov	 eax, DWORD PTR tv146[ebp]
  0015f	8b 8c 82 00 00
	00 00		 mov	 ecx, DWORD PTR ?fn_get_local_entity_parent@@3PAY0CN@P6GPAUENTITY@@PAU1@W4LIST_TYPES@@@ZA[edx+eax*4]
  00166	ff d1		 call	 ecx
  00168	89 45 f8	 mov	 DWORD PTR _task$[ebp], eax

; 1944 : 
; 1945 : 	notify_local_entity (ENTITY_MESSAGE_TASK_COMPLETED, task, receiver, TASK_TERMINATED_OBJECTIVE_MESSAGE);

  0016b	6a 04		 push	 4
  0016d	8b 45 0c	 mov	 eax, DWORD PTR _receiver$[ebp]
  00170	50		 push	 eax
  00171	8b 4d f8	 mov	 ecx, DWORD PTR _task$[ebp]
  00174	51		 push	 ecx
  00175	6a 32		 push	 50			; 00000032H
  00177	e8 00 00 00 00	 call	 ?notify_local_entity@@YAHW4ENTITY_MESSAGES@@PAUENTITY@@1ZZ ; notify_local_entity
  0017c	83 c4 10	 add	 esp, 16			; 00000010H

; 1946 : 
; 1947 : 	set_local_entity_float_value (receiver, FLOAT_TYPE_VIEW_INTEREST_LEVEL, DEFAULT_VIEW_INTEREST_LEVEL);

  0017f	83 7d 0c 00	 cmp	 DWORD PTR _receiver$[ebp], 0
  00183	74 0a		 je	 SHORT $LN16@response_t
  00185	8b 45 0c	 mov	 eax, DWORD PTR _receiver$[ebp]
  00188	8b 08		 mov	 ecx, DWORD PTR [eax]
  0018a	89 4d b4	 mov	 DWORD PTR tv162[ebp], ecx
  0018d	eb 21		 jmp	 SHORT $LN17@response_t
$LN16@response_t:
  0018f	8b 15 00 00 00
	00		 mov	 edx, DWORD PTR ?__LINE__Var@?0??response_to_waypoint_recon_reached@@YGHW4ENTITY_MESSAGES@@PAUENTITY@@1PAD@Z@4JA
  00195	83 c2 1d	 add	 edx, 29			; 0000001dH
  00198	52		 push	 edx
  00199	68 00 00 00 00	 push	 OFFSET ??_C@_0EE@DLIIEJCN@c?3?2users?2nhv90?2projects?2eech?2ap@
  0019e	a1 00 00 00 00	 mov	 eax, DWORD PTR ?null_entity_pointer_message@@3PBDB ; null_entity_pointer_message
  001a3	50		 push	 eax
  001a4	e8 00 00 00 00	 call	 ?process_assert@@YGXPBD0H@Z ; process_assert
  001a9	c7 45 b4 00 00
	00 00		 mov	 DWORD PTR tv162[ebp], 0
$LN17@response_t:
  001b0	b9 01 00 00 00	 mov	 ecx, 1
  001b5	85 c9		 test	 ecx, ecx
  001b7	74 09		 je	 SHORT $LN18@response_t
  001b9	c7 45 b0 95 00
	00 00		 mov	 DWORD PTR tv170[ebp], 149 ; 00000095H
  001c0	eb 21		 jmp	 SHORT $LN19@response_t
$LN18@response_t:
  001c2	8b 15 00 00 00
	00		 mov	 edx, DWORD PTR ?__LINE__Var@?0??response_to_waypoint_recon_reached@@YGHW4ENTITY_MESSAGES@@PAUENTITY@@1PAD@Z@4JA
  001c8	83 c2 1d	 add	 edx, 29			; 0000001dH
  001cb	52		 push	 edx
  001cc	68 00 00 00 00	 push	 OFFSET ??_C@_0EE@DLIIEJCN@c?3?2users?2nhv90?2projects?2eech?2ap@
  001d1	a1 00 00 00 00	 mov	 eax, DWORD PTR ?overload_invalid_float_type_message@@3PBDB ; overload_invalid_float_type_message
  001d6	50		 push	 eax
  001d7	e8 00 00 00 00	 call	 ?process_assert@@YGXPBD0H@Z ; process_assert
  001dc	c7 45 b0 00 00
	00 00		 mov	 DWORD PTR tv170[ebp], 0
$LN19@response_t:
  001e3	51		 push	 ecx
  001e4	f3 0f 10 05 00
	00 00 00	 movss	 xmm0, DWORD PTR __real@40a00000
  001ec	f3 0f 11 04 24	 movss	 DWORD PTR [esp], xmm0
  001f1	68 95 00 00 00	 push	 149			; 00000095H
  001f6	8b 4d 0c	 mov	 ecx, DWORD PTR _receiver$[ebp]
  001f9	51		 push	 ecx
  001fa	69 55 b4 bc 02
	00 00		 imul	 edx, DWORD PTR tv162[ebp], 700
  00201	8b 45 b0	 mov	 eax, DWORD PTR tv170[ebp]
  00204	8b 8c 82 00 00
	00 00		 mov	 ecx, DWORD PTR ?fn_set_local_entity_float_value@@3PAY0KP@P6GXPAUENTITY@@W4FLOAT_TYPES@@M@ZA[edx+eax*4]
  0020b	ff d1		 call	 ecx

; 1948 : 
; 1949 : 	/////////////////////////////////////////////////////////////////
; 1950 : 	//
; 1951 : 	// SPECIAL_EFFECT_HOOK FOR RECON WAYPOINT REACHED
; 1952 : 	//
; 1953 : 	/////////////////////////////////////////////////////////////////
; 1954 : 
; 1955 : 	if (get_local_entity_int_value (receiver, INT_TYPE_PLAYER) == ENTITY_PLAYER_AI)

  0020d	83 7d 0c 00	 cmp	 DWORD PTR _receiver$[ebp], 0
  00211	74 0a		 je	 SHORT $LN20@response_t
  00213	8b 45 0c	 mov	 eax, DWORD PTR _receiver$[ebp]
  00216	8b 08		 mov	 ecx, DWORD PTR [eax]
  00218	89 4d b4	 mov	 DWORD PTR tv181[ebp], ecx
  0021b	eb 1d		 jmp	 SHORT $LN21@response_t
$LN20@response_t:
  0021d	68 a3 07 00 00	 push	 1955			; 000007a3H
  00222	68 00 00 00 00	 push	 OFFSET ??_C@_0EE@DLIIEJCN@c?3?2users?2nhv90?2projects?2eech?2ap@
  00227	8b 15 00 00 00
	00		 mov	 edx, DWORD PTR ?null_entity_pointer_message@@3PBDB ; null_entity_pointer_message
  0022d	52		 push	 edx
  0022e	e8 00 00 00 00	 call	 ?process_assert@@YGXPBD0H@Z ; process_assert
  00233	c7 45 b4 00 00
	00 00		 mov	 DWORD PTR tv181[ebp], 0
$LN21@response_t:
  0023a	b8 01 00 00 00	 mov	 eax, 1
  0023f	85 c0		 test	 eax, eax
  00241	74 09		 je	 SHORT $LN22@response_t
  00243	c7 45 b0 9c 00
	00 00		 mov	 DWORD PTR tv188[ebp], 156 ; 0000009cH
  0024a	eb 1d		 jmp	 SHORT $LN23@response_t
$LN22@response_t:
  0024c	68 a3 07 00 00	 push	 1955			; 000007a3H
  00251	68 00 00 00 00	 push	 OFFSET ??_C@_0EE@DLIIEJCN@c?3?2users?2nhv90?2projects?2eech?2ap@
  00256	8b 0d 00 00 00
	00		 mov	 ecx, DWORD PTR ?overload_invalid_int_type_message@@3PBDB ; overload_invalid_int_type_message
  0025c	51		 push	 ecx
  0025d	e8 00 00 00 00	 call	 ?process_assert@@YGXPBD0H@Z ; process_assert
  00262	c7 45 b0 00 00
	00 00		 mov	 DWORD PTR tv188[ebp], 0
$LN23@response_t:
  00269	68 9c 00 00 00	 push	 156			; 0000009cH
  0026e	8b 55 0c	 mov	 edx, DWORD PTR _receiver$[ebp]
  00271	52		 push	 edx
  00272	69 45 b4 5c 04
	00 00		 imul	 eax, DWORD PTR tv181[ebp], 1116
  00279	8b 4d b0	 mov	 ecx, DWORD PTR tv188[ebp]
  0027c	8b 94 88 00 00
	00 00		 mov	 edx, DWORD PTR ?fn_get_local_entity_int_value@@3PAY0BBH@P6GHPAUENTITY@@W4INT_TYPES@@@ZA[eax+ecx*4]
  00283	ff d2		 call	 edx
  00285	85 c0		 test	 eax, eax
  00287	75 3d		 jne	 SHORT $LN5@response_t

; 1956 : 	{
; 1957 : 		play_client_server_wingman_message

  00289	6a 33		 push	 51			; 00000033H
  0028b	6a 07		 push	 7
  0028d	6a 02		 push	 2
  0028f	51		 push	 ecx
  00290	f3 0f 10 05 00
	00 00 00	 movss	 xmm0, DWORD PTR __real@bf800000
  00298	f3 0f 11 04 24	 movss	 DWORD PTR [esp], xmm0
  0029d	6a 0a		 push	 10			; 0000000aH
  0029f	51		 push	 ecx
  002a0	f3 0f 10 05 00
	00 00 00	 movss	 xmm0, DWORD PTR __real@41a00000
  002a8	f3 0f 11 04 24	 movss	 DWORD PTR [esp], xmm0
  002ad	51		 push	 ecx
  002ae	f3 0f 10 05 00
	00 00 00	 movss	 xmm0, DWORD PTR __real@3f800000
  002b6	f3 0f 11 04 24	 movss	 DWORD PTR [esp], xmm0
  002bb	8b 45 0c	 mov	 eax, DWORD PTR _receiver$[ebp]
  002be	50		 push	 eax
  002bf	e8 00 00 00 00	 call	 ?play_client_server_wingman_message@@YGHPAUENTITY@@MMW4speech_category_types@@MW4speech_intro_types@@W4speech_array_types@@H@Z ; play_client_server_wingman_message

; 1958 : 		(
; 1959 : 			receiver,
; 1960 : 			1.0,
; 1961 : 			20.0,
; 1962 : 			SPEECH_CATEGORY_MISSION_RELATED, -1.0,
; 1963 : 			SPEECH_INTRODUCTION_ALWAYS,
; 1964 : 			SPEECH_ARRAY_WINGMAN_MESSAGES, SPEECH_WINGMAN_TRANSMITTING_RECON_DATA
; 1965 : 		);
; 1966 : 	}
; 1967 : 	else

  002c4	eb 37		 jmp	 SHORT $LN6@response_t
$LN5@response_t:

; 1968 : 	{
; 1969 : 		play_client_server_cpg_message (receiver, 0.8, 30.0, SPEECH_CATEGORY_MISSION_RELATED, -1.0, SPEECH_CPG_TRANSMITTING_RECON);

  002c6	6a 62		 push	 98			; 00000062H
  002c8	51		 push	 ecx
  002c9	f3 0f 10 05 00
	00 00 00	 movss	 xmm0, DWORD PTR __real@bf800000
  002d1	f3 0f 11 04 24	 movss	 DWORD PTR [esp], xmm0
  002d6	6a 0a		 push	 10			; 0000000aH
  002d8	51		 push	 ecx
  002d9	f3 0f 10 05 00
	00 00 00	 movss	 xmm0, DWORD PTR __real@41f00000
  002e1	f3 0f 11 04 24	 movss	 DWORD PTR [esp], xmm0
  002e6	51		 push	 ecx
  002e7	f3 0f 10 05 00
	00 00 00	 movss	 xmm0, DWORD PTR __real@3f4ccccd
  002ef	f3 0f 11 04 24	 movss	 DWORD PTR [esp], xmm0
  002f4	8b 45 0c	 mov	 eax, DWORD PTR _receiver$[ebp]
  002f7	50		 push	 eax
  002f8	e8 00 00 00 00	 call	 ?play_client_server_cpg_message@@YGHPAUENTITY@@MMHMH@Z ; play_client_server_cpg_message
$LN6@response_t:

; 1970 : 	}
; 1971 : 
; 1972 : 	/////////////////////////////////////////////////////////////////
; 1973 : 	//
; 1974 : 	//
; 1975 : 	/////////////////////////////////////////////////////////////////
; 1976 : 
; 1977 : 	return (TRUE);

  002fd	b8 01 00 00 00	 mov	 eax, 1

; 1978 : }

  00302	5f		 pop	 edi
  00303	5e		 pop	 esi
  00304	5b		 pop	 ebx
  00305	8b e5		 mov	 esp, ebp
  00307	5d		 pop	 ebp
  00308	c2 10 00	 ret	 16			; 00000010H
?response_to_waypoint_recon_reached@@YGHW4ENTITY_MESSAGES@@PAUENTITY@@1PAD@Z ENDP ; response_to_waypoint_recon_reached
_TEXT	ENDS
; Function compile flags: /Odtp /ZI
; File c:\users\nhv90\projects\eech\aphavoc\source\entity\mobile\mb_msgs.c
;	COMDAT ?response_to_waypoint_recon_action@@YGHW4ENTITY_MESSAGES@@PAUENTITY@@1PAD@Z
_TEXT	SEGMENT
tv92 = -72						; size = 4
tv85 = -68						; size = 4
_message$ = 8						; size = 4
_receiver$ = 12						; size = 4
_sender$ = 16						; size = 4
_pargs$ = 20						; size = 4
?response_to_waypoint_recon_action@@YGHW4ENTITY_MESSAGES@@PAUENTITY@@1PAD@Z PROC ; response_to_waypoint_recon_action, COMDAT

; 1870 : {

  00000	55		 push	 ebp
  00001	8b ec		 mov	 ebp, esp
  00003	83 ec 48	 sub	 esp, 72			; 00000048H
  00006	53		 push	 ebx
  00007	56		 push	 esi
  00008	57		 push	 edi

; 1871 : 	ASSERT (sender);

  00009	83 7d 10 00	 cmp	 DWORD PTR _sender$[ebp], 0
  0000d	75 18		 jne	 SHORT $LN2@response_t
  0000f	a1 00 00 00 00	 mov	 eax, DWORD PTR ?__LINE__Var@?0??response_to_waypoint_recon_action@@YGHW4ENTITY_MESSAGES@@PAUENTITY@@1PAD@Z@4JA
  00014	83 c0 01	 add	 eax, 1
  00017	50		 push	 eax
  00018	68 00 00 00 00	 push	 OFFSET ??_C@_0EE@DLIIEJCN@c?3?2users?2nhv90?2projects?2eech?2ap@
  0001d	68 00 00 00 00	 push	 OFFSET ??_C@_06CGHJMPBJ@sender@
  00022	e8 00 00 00 00	 call	 ?process_assert@@YGXPBD0H@Z ; process_assert
$LN2@response_t:

; 1872 : 
; 1873 : 	ASSERT (sender->type == ENTITY_TYPE_WAYPOINT);

  00027	8b 45 10	 mov	 eax, DWORD PTR _sender$[ebp]
  0002a	83 38 24	 cmp	 DWORD PTR [eax], 36	; 00000024H
  0002d	74 18		 je	 SHORT $LN3@response_t
  0002f	a1 00 00 00 00	 mov	 eax, DWORD PTR ?__LINE__Var@?0??response_to_waypoint_recon_action@@YGHW4ENTITY_MESSAGES@@PAUENTITY@@1PAD@Z@4JA
  00034	83 c0 03	 add	 eax, 3
  00037	50		 push	 eax
  00038	68 00 00 00 00	 push	 OFFSET ??_C@_0EE@DLIIEJCN@c?3?2users?2nhv90?2projects?2eech?2ap@
  0003d	68 00 00 00 00	 push	 OFFSET ??_C@_0CF@JOKOGIDD@sender?9?$DOtype?5?$DN?$DN?5ENTITY_TYPE_WAY@
  00042	e8 00 00 00 00	 call	 ?process_assert@@YGXPBD0H@Z ; process_assert
$LN3@response_t:

; 1874 : 
; 1875 : 	ASSERT (get_comms_model () == COMMS_MODEL_SERVER);

  00047	83 3d 00 00 00
	00 00		 cmp	 DWORD PTR ?system_comms_model@@3W4COMMS_MODEL_TYPES@@A, 0 ; system_comms_model
  0004e	74 18		 je	 SHORT $LN4@response_t
  00050	a1 00 00 00 00	 mov	 eax, DWORD PTR ?__LINE__Var@?0??response_to_waypoint_recon_action@@YGHW4ENTITY_MESSAGES@@PAUENTITY@@1PAD@Z@4JA
  00055	83 c0 05	 add	 eax, 5
  00058	50		 push	 eax
  00059	68 00 00 00 00	 push	 OFFSET ??_C@_0EE@DLIIEJCN@c?3?2users?2nhv90?2projects?2eech?2ap@
  0005e	68 00 00 00 00	 push	 OFFSET ??_C@_0CJ@DMBLBJBK@get_comms_model?5?$CI?$CJ?5?$DN?$DN?5COMMS_MOD@
  00063	e8 00 00 00 00	 call	 ?process_assert@@YGXPBD0H@Z ; process_assert
$LN4@response_t:

; 1876 : 
; 1877 : 	#if DEBUG_MODULE >= 2
; 1878 : 
; 1879 : 	debug_log_entity_message (message, receiver, sender, pargs);
; 1880 : 
; 1881 : 	#endif
; 1882 : 
; 1883 : 	if (get_local_entity_int_value (receiver, INT_TYPE_PLAYER) == ENTITY_PLAYER_AI)

  00068	83 7d 0c 00	 cmp	 DWORD PTR _receiver$[ebp], 0
  0006c	74 0a		 je	 SHORT $LN10@response_t
  0006e	8b 45 0c	 mov	 eax, DWORD PTR _receiver$[ebp]
  00071	8b 08		 mov	 ecx, DWORD PTR [eax]
  00073	89 4d bc	 mov	 DWORD PTR tv85[ebp], ecx
  00076	eb 1d		 jmp	 SHORT $LN11@response_t
$LN10@response_t:
  00078	68 5b 07 00 00	 push	 1883			; 0000075bH
  0007d	68 00 00 00 00	 push	 OFFSET ??_C@_0EE@DLIIEJCN@c?3?2users?2nhv90?2projects?2eech?2ap@
  00082	8b 15 00 00 00
	00		 mov	 edx, DWORD PTR ?null_entity_pointer_message@@3PBDB ; null_entity_pointer_message
  00088	52		 push	 edx
  00089	e8 00 00 00 00	 call	 ?process_assert@@YGXPBD0H@Z ; process_assert
  0008e	c7 45 bc 00 00
	00 00		 mov	 DWORD PTR tv85[ebp], 0
$LN11@response_t:
  00095	b8 01 00 00 00	 mov	 eax, 1
  0009a	85 c0		 test	 eax, eax
  0009c	74 09		 je	 SHORT $LN12@response_t
  0009e	c7 45 b8 9c 00
	00 00		 mov	 DWORD PTR tv92[ebp], 156 ; 0000009cH
  000a5	eb 1d		 jmp	 SHORT $LN13@response_t
$LN12@response_t:
  000a7	68 5b 07 00 00	 push	 1883			; 0000075bH
  000ac	68 00 00 00 00	 push	 OFFSET ??_C@_0EE@DLIIEJCN@c?3?2users?2nhv90?2projects?2eech?2ap@
  000b1	8b 0d 00 00 00
	00		 mov	 ecx, DWORD PTR ?overload_invalid_int_type_message@@3PBDB ; overload_invalid_int_type_message
  000b7	51		 push	 ecx
  000b8	e8 00 00 00 00	 call	 ?process_assert@@YGXPBD0H@Z ; process_assert
  000bd	c7 45 b8 00 00
	00 00		 mov	 DWORD PTR tv92[ebp], 0
$LN13@response_t:
  000c4	68 9c 00 00 00	 push	 156			; 0000009cH
  000c9	8b 55 0c	 mov	 edx, DWORD PTR _receiver$[ebp]
  000cc	52		 push	 edx
  000cd	69 45 bc 5c 04
	00 00		 imul	 eax, DWORD PTR tv85[ebp], 1116
  000d4	8b 4d b8	 mov	 ecx, DWORD PTR tv92[ebp]
  000d7	8b 94 88 00 00
	00 00		 mov	 edx, DWORD PTR ?fn_get_local_entity_int_value@@3PAY0BBH@P6GHPAUENTITY@@W4INT_TYPES@@@ZA[eax+ecx*4]
  000de	ff d2		 call	 edx
  000e0	85 c0		 test	 eax, eax
  000e2	75 14		 jne	 SHORT $LN5@response_t

; 1884 : 	{
; 1885 : 		notify_local_entity (ENTITY_MESSAGE_WAYPOINT_RECON_REACHED, receiver, sender);

  000e4	8b 45 10	 mov	 eax, DWORD PTR _sender$[ebp]
  000e7	50		 push	 eax
  000e8	8b 4d 0c	 mov	 ecx, DWORD PTR _receiver$[ebp]
  000eb	51		 push	 ecx
  000ec	6a 51		 push	 81			; 00000051H
  000ee	e8 00 00 00 00	 call	 ?notify_local_entity@@YAHW4ENTITY_MESSAGES@@PAUENTITY@@1ZZ ; notify_local_entity
  000f3	83 c4 0c	 add	 esp, 12			; 0000000cH

; 1886 : 	}
; 1887 : 	else

  000f6	eb 64		 jmp	 SHORT $LN8@response_t
$LN5@response_t:

; 1888 : 	{
; 1889 : 		//
; 1890 : 		// tell player to transmit recon
; 1891 : 		//
; 1892 : 
; 1893 : 		play_client_server_cpg_message (receiver, 1.0, 30.0, SPEECH_CATEGORY_MISSION_RELATED, -1.0, SPEECH_CPG_OBJECTIVE_IN_RANGE_RECON);

  000f8	6a 61		 push	 97			; 00000061H
  000fa	51		 push	 ecx
  000fb	f3 0f 10 05 00
	00 00 00	 movss	 xmm0, DWORD PTR __real@bf800000
  00103	f3 0f 11 04 24	 movss	 DWORD PTR [esp], xmm0
  00108	6a 0a		 push	 10			; 0000000aH
  0010a	51		 push	 ecx
  0010b	f3 0f 10 05 00
	00 00 00	 movss	 xmm0, DWORD PTR __real@41f00000
  00113	f3 0f 11 04 24	 movss	 DWORD PTR [esp], xmm0
  00118	51		 push	 ecx
  00119	f3 0f 10 05 00
	00 00 00	 movss	 xmm0, DWORD PTR __real@3f800000
  00121	f3 0f 11 04 24	 movss	 DWORD PTR [esp], xmm0
  00126	8b 45 0c	 mov	 eax, DWORD PTR _receiver$[ebp]
  00129	50		 push	 eax
  0012a	e8 00 00 00 00	 call	 ?play_client_server_cpg_message@@YGHPAUENTITY@@MMHMH@Z ; play_client_server_cpg_message

; 1894 : 
; 1895 : 		if (receiver == get_gunship_entity ())

  0012f	8b 45 0c	 mov	 eax, DWORD PTR _receiver$[ebp]
  00132	3b 05 00 00 00
	00		 cmp	 eax, DWORD PTR ?gunship_entity@@3PAUENTITY@@A ; gunship_entity
  00138	75 14		 jne	 SHORT $LN7@response_t

; 1896 : 		{
; 1897 : 			set_status_message (get_trans ("ADVISE_TRANSMIT_RECON"), STATUS_MESSAGE_TYPE_ALERT);

  0013a	6a 01		 push	 1
  0013c	68 00 00 00 00	 push	 OFFSET ??_C@_0BG@PFNEBFLH@ADVISE_TRANSMIT_RECON@
  00141	e8 00 00 00 00	 call	 ?get_trans@@YGPBDPBD@Z	; get_trans
  00146	50		 push	 eax
  00147	e8 00 00 00 00	 call	 ?set_status_message@@YGXPBDW4STATUS_MESSAGE_TYPES@@@Z ; set_status_message

; 1898 : 		}
; 1899 : 		else

  0014c	eb 0e		 jmp	 SHORT $LN8@response_t
$LN7@response_t:

; 1900 : 		{
; 1901 : 			transmit_entity_comms_message (ENTITY_COMMS_ADVISE_TRANSMIT_RECON, receiver);

  0014e	8b 45 0c	 mov	 eax, DWORD PTR _receiver$[ebp]
  00151	50		 push	 eax
  00152	6a 02		 push	 2
  00154	e8 00 00 00 00	 call	 ?transmit_entity_comms_message@@YAXW4ENTITY_COMMS_MESSAGES@@PAUENTITY@@ZZ ; transmit_entity_comms_message
  00159	83 c4 08	 add	 esp, 8
$LN8@response_t:

; 1902 : 		}
; 1903 : 	}
; 1904 : 
; 1905 : 	/////////////////////////////////////////////////////////////////
; 1906 : 	//
; 1907 : 	//
; 1908 : 	/////////////////////////////////////////////////////////////////
; 1909 : 
; 1910 : 	return (TRUE);

  0015c	b8 01 00 00 00	 mov	 eax, 1

; 1911 : }

  00161	5f		 pop	 edi
  00162	5e		 pop	 esi
  00163	5b		 pop	 ebx
  00164	8b e5		 mov	 esp, ebp
  00166	5d		 pop	 ebp
  00167	c2 10 00	 ret	 16			; 00000010H
?response_to_waypoint_recon_action@@YGHW4ENTITY_MESSAGES@@PAUENTITY@@1PAD@Z ENDP ; response_to_waypoint_recon_action
_TEXT	ENDS
; Function compile flags: /Odtp /ZI
; File c:\users\nhv90\projects\eech\aphavoc\source\entity\mobile\mb_msgs.c
;	COMDAT ?response_to_waypoint_pick_up_reached@@YGHW4ENTITY_MESSAGES@@PAUENTITY@@1PAD@Z
_TEXT	SEGMENT
tv258 = -80						; size = 4
tv236 = -80						; size = 4
tv215 = -80						; size = 4
tv181 = -80						; size = 4
tv152 = -80						; size = 4
tv132 = -80						; size = 4
tv250 = -76						; size = 4
tv228 = -76						; size = 4
tv208 = -76						; size = 4
tv173 = -76						; size = 4
tv165 = -76						; size = 4
tv144 = -76						; size = 4
tv92 = -76						; size = 4
tv75 = -76						; size = 4
_cargo$ = -8						; size = 4
_keysite$ = -4						; size = 4
_message$ = 8						; size = 4
_receiver$ = 12						; size = 4
_sender$ = 16						; size = 4
_pargs$ = 20						; size = 4
?response_to_waypoint_pick_up_reached@@YGHW4ENTITY_MESSAGES@@PAUENTITY@@1PAD@Z PROC ; response_to_waypoint_pick_up_reached, COMDAT

; 1792 : {

  00000	55		 push	 ebp
  00001	8b ec		 mov	 ebp, esp
  00003	83 ec 50	 sub	 esp, 80			; 00000050H
  00006	53		 push	 ebx
  00007	56		 push	 esi
  00008	57		 push	 edi

; 1793 : 	entity
; 1794 : 		*keysite,
; 1795 : 		*cargo;
; 1796 : 
; 1797 : 	ASSERT (sender);

  00009	83 7d 10 00	 cmp	 DWORD PTR _sender$[ebp], 0
  0000d	75 18		 jne	 SHORT $LN4@response_t
  0000f	a1 00 00 00 00	 mov	 eax, DWORD PTR ?__LINE__Var@?0??response_to_waypoint_pick_up_reached@@YGHW4ENTITY_MESSAGES@@PAUENTITY@@1PAD@Z@4JA
  00014	83 c0 05	 add	 eax, 5
  00017	50		 push	 eax
  00018	68 00 00 00 00	 push	 OFFSET ??_C@_0EE@DLIIEJCN@c?3?2users?2nhv90?2projects?2eech?2ap@
  0001d	68 00 00 00 00	 push	 OFFSET ??_C@_06CGHJMPBJ@sender@
  00022	e8 00 00 00 00	 call	 ?process_assert@@YGXPBD0H@Z ; process_assert
$LN4@response_t:

; 1798 : 
; 1799 : 	ASSERT (get_local_entity_type (sender) == ENTITY_TYPE_WAYPOINT);

  00027	83 7d 10 00	 cmp	 DWORD PTR _sender$[ebp], 0
  0002b	74 0a		 je	 SHORT $LN10@response_t
  0002d	8b 45 10	 mov	 eax, DWORD PTR _sender$[ebp]
  00030	8b 08		 mov	 ecx, DWORD PTR [eax]
  00032	89 4d b4	 mov	 DWORD PTR tv75[ebp], ecx
  00035	eb 21		 jmp	 SHORT $LN11@response_t
$LN10@response_t:
  00037	8b 15 00 00 00
	00		 mov	 edx, DWORD PTR ?__LINE__Var@?0??response_to_waypoint_pick_up_reached@@YGHW4ENTITY_MESSAGES@@PAUENTITY@@1PAD@Z@4JA
  0003d	83 c2 07	 add	 edx, 7
  00040	52		 push	 edx
  00041	68 00 00 00 00	 push	 OFFSET ??_C@_0EE@DLIIEJCN@c?3?2users?2nhv90?2projects?2eech?2ap@
  00046	a1 00 00 00 00	 mov	 eax, DWORD PTR ?null_entity_pointer_message@@3PBDB ; null_entity_pointer_message
  0004b	50		 push	 eax
  0004c	e8 00 00 00 00	 call	 ?process_assert@@YGXPBD0H@Z ; process_assert
  00051	c7 45 b4 00 00
	00 00		 mov	 DWORD PTR tv75[ebp], 0
$LN11@response_t:
  00058	83 7d b4 24	 cmp	 DWORD PTR tv75[ebp], 36	; 00000024H
  0005c	74 18		 je	 SHORT $LN5@response_t
  0005e	a1 00 00 00 00	 mov	 eax, DWORD PTR ?__LINE__Var@?0??response_to_waypoint_pick_up_reached@@YGHW4ENTITY_MESSAGES@@PAUENTITY@@1PAD@Z@4JA
  00063	83 c0 07	 add	 eax, 7
  00066	50		 push	 eax
  00067	68 00 00 00 00	 push	 OFFSET ??_C@_0EE@DLIIEJCN@c?3?2users?2nhv90?2projects?2eech?2ap@
  0006c	68 00 00 00 00	 push	 OFFSET ??_C@_0DH@NBKEDIK@get_local_entity_type?5?$CIsender?$CJ?5@
  00071	e8 00 00 00 00	 call	 ?process_assert@@YGXPBD0H@Z ; process_assert
$LN5@response_t:

; 1800 : 
; 1801 : 	ASSERT (get_comms_model () == COMMS_MODEL_SERVER);

  00076	83 3d 00 00 00
	00 00		 cmp	 DWORD PTR ?system_comms_model@@3W4COMMS_MODEL_TYPES@@A, 0 ; system_comms_model
  0007d	74 18		 je	 SHORT $LN6@response_t
  0007f	a1 00 00 00 00	 mov	 eax, DWORD PTR ?__LINE__Var@?0??response_to_waypoint_pick_up_reached@@YGHW4ENTITY_MESSAGES@@PAUENTITY@@1PAD@Z@4JA
  00084	83 c0 09	 add	 eax, 9
  00087	50		 push	 eax
  00088	68 00 00 00 00	 push	 OFFSET ??_C@_0EE@DLIIEJCN@c?3?2users?2nhv90?2projects?2eech?2ap@
  0008d	68 00 00 00 00	 push	 OFFSET ??_C@_0CJ@DMBLBJBK@get_comms_model?5?$CI?$CJ?5?$DN?$DN?5COMMS_MOD@
  00092	e8 00 00 00 00	 call	 ?process_assert@@YGXPBD0H@Z ; process_assert
$LN6@response_t:

; 1802 : 
; 1803 : 	#if DEBUG_MODULE >= 2
; 1804 : 
; 1805 : 	debug_log_entity_message (message, receiver, sender, pargs);
; 1806 : 
; 1807 : 	#endif
; 1808 : 
; 1809 : 	keysite = get_local_entity_parent (sender, LIST_TYPE_TASK_DEPENDENT);

  00097	83 7d 10 00	 cmp	 DWORD PTR _sender$[ebp], 0
  0009b	74 0a		 je	 SHORT $LN12@response_t
  0009d	8b 45 10	 mov	 eax, DWORD PTR _sender$[ebp]
  000a0	8b 08		 mov	 ecx, DWORD PTR [eax]
  000a2	89 4d b4	 mov	 DWORD PTR tv92[ebp], ecx
  000a5	eb 21		 jmp	 SHORT $LN13@response_t
$LN12@response_t:
  000a7	8b 15 00 00 00
	00		 mov	 edx, DWORD PTR ?__LINE__Var@?0??response_to_waypoint_pick_up_reached@@YGHW4ENTITY_MESSAGES@@PAUENTITY@@1PAD@Z@4JA
  000ad	83 c2 11	 add	 edx, 17			; 00000011H
  000b0	52		 push	 edx
  000b1	68 00 00 00 00	 push	 OFFSET ??_C@_0EE@DLIIEJCN@c?3?2users?2nhv90?2projects?2eech?2ap@
  000b6	a1 00 00 00 00	 mov	 eax, DWORD PTR ?null_entity_pointer_message@@3PBDB ; null_entity_pointer_message
  000bb	50		 push	 eax
  000bc	e8 00 00 00 00	 call	 ?process_assert@@YGXPBD0H@Z ; process_assert
  000c1	c7 45 b4 00 00
	00 00		 mov	 DWORD PTR tv92[ebp], 0
$LN13@response_t:
  000c8	b9 01 00 00 00	 mov	 ecx, 1
  000cd	85 c9		 test	 ecx, ecx
  000cf	74 09		 je	 SHORT $LN14@response_t
  000d1	c7 45 b0 27 00
	00 00		 mov	 DWORD PTR tv132[ebp], 39 ; 00000027H
  000d8	eb 21		 jmp	 SHORT $LN15@response_t
$LN14@response_t:
  000da	8b 15 00 00 00
	00		 mov	 edx, DWORD PTR ?__LINE__Var@?0??response_to_waypoint_pick_up_reached@@YGHW4ENTITY_MESSAGES@@PAUENTITY@@1PAD@Z@4JA
  000e0	83 c2 11	 add	 edx, 17			; 00000011H
  000e3	52		 push	 edx
  000e4	68 00 00 00 00	 push	 OFFSET ??_C@_0EE@DLIIEJCN@c?3?2users?2nhv90?2projects?2eech?2ap@
  000e9	a1 00 00 00 00	 mov	 eax, DWORD PTR ?overload_invalid_list_type_message@@3PBDB ; overload_invalid_list_type_message
  000ee	50		 push	 eax
  000ef	e8 00 00 00 00	 call	 ?process_assert@@YGXPBD0H@Z ; process_assert
  000f4	c7 45 b0 00 00
	00 00		 mov	 DWORD PTR tv132[ebp], 0
$LN15@response_t:
  000fb	6a 27		 push	 39			; 00000027H
  000fd	8b 4d 10	 mov	 ecx, DWORD PTR _sender$[ebp]
  00100	51		 push	 ecx
  00101	69 55 b4 b4 00
	00 00		 imul	 edx, DWORD PTR tv92[ebp], 180
  00108	8b 45 b0	 mov	 eax, DWORD PTR tv132[ebp]
  0010b	8b 8c 82 00 00
	00 00		 mov	 ecx, DWORD PTR ?fn_get_local_entity_parent@@3PAY0CN@P6GPAUENTITY@@PAU1@W4LIST_TYPES@@@ZA[edx+eax*4]
  00112	ff d1		 call	 ecx
  00114	89 45 fc	 mov	 DWORD PTR _keysite$[ebp], eax

; 1810 : 
; 1811 : 	cargo = get_local_entity_first_child (keysite, LIST_TYPE_CARGO);

  00117	83 7d fc 00	 cmp	 DWORD PTR _keysite$[ebp], 0
  0011b	74 0a		 je	 SHORT $LN16@response_t
  0011d	8b 45 fc	 mov	 eax, DWORD PTR _keysite$[ebp]
  00120	8b 08		 mov	 ecx, DWORD PTR [eax]
  00122	89 4d b4	 mov	 DWORD PTR tv144[ebp], ecx
  00125	eb 21		 jmp	 SHORT $LN17@response_t
$LN16@response_t:
  00127	8b 15 00 00 00
	00		 mov	 edx, DWORD PTR ?__LINE__Var@?0??response_to_waypoint_pick_up_reached@@YGHW4ENTITY_MESSAGES@@PAUENTITY@@1PAD@Z@4JA
  0012d	83 c2 13	 add	 edx, 19			; 00000013H
  00130	52		 push	 edx
  00131	68 00 00 00 00	 push	 OFFSET ??_C@_0EE@DLIIEJCN@c?3?2users?2nhv90?2projects?2eech?2ap@
  00136	a1 00 00 00 00	 mov	 eax, DWORD PTR ?null_entity_pointer_message@@3PBDB ; null_entity_pointer_message
  0013b	50		 push	 eax
  0013c	e8 00 00 00 00	 call	 ?process_assert@@YGXPBD0H@Z ; process_assert
  00141	c7 45 b4 00 00
	00 00		 mov	 DWORD PTR tv144[ebp], 0
$LN17@response_t:
  00148	b9 01 00 00 00	 mov	 ecx, 1
  0014d	85 c9		 test	 ecx, ecx
  0014f	74 09		 je	 SHORT $LN18@response_t
  00151	c7 45 b0 06 00
	00 00		 mov	 DWORD PTR tv152[ebp], 6
  00158	eb 21		 jmp	 SHORT $LN19@response_t
$LN18@response_t:
  0015a	8b 15 00 00 00
	00		 mov	 edx, DWORD PTR ?__LINE__Var@?0??response_to_waypoint_pick_up_reached@@YGHW4ENTITY_MESSAGES@@PAUENTITY@@1PAD@Z@4JA
  00160	83 c2 13	 add	 edx, 19			; 00000013H
  00163	52		 push	 edx
  00164	68 00 00 00 00	 push	 OFFSET ??_C@_0EE@DLIIEJCN@c?3?2users?2nhv90?2projects?2eech?2ap@
  00169	a1 00 00 00 00	 mov	 eax, DWORD PTR ?overload_invalid_list_type_message@@3PBDB ; overload_invalid_list_type_message
  0016e	50		 push	 eax
  0016f	e8 00 00 00 00	 call	 ?process_assert@@YGXPBD0H@Z ; process_assert
  00174	c7 45 b0 00 00
	00 00		 mov	 DWORD PTR tv152[ebp], 0
$LN19@response_t:
  0017b	6a 06		 push	 6
  0017d	8b 4d fc	 mov	 ecx, DWORD PTR _keysite$[ebp]
  00180	51		 push	 ecx
  00181	69 55 b4 b4 00
	00 00		 imul	 edx, DWORD PTR tv144[ebp], 180
  00188	8b 45 b0	 mov	 eax, DWORD PTR tv152[ebp]
  0018b	8b 8c 82 00 00
	00 00		 mov	 ecx, DWORD PTR ?fn_get_local_entity_first_child@@3PAY0CN@P6GPAUENTITY@@PAU1@W4LIST_TYPES@@@ZA[edx+eax*4]
  00192	ff d1		 call	 ecx
  00194	89 45 f8	 mov	 DWORD PTR _cargo$[ebp], eax
$LN2@response_t:

; 1812 : 
; 1813 : 	while ((cargo) && (get_local_entity_type (cargo) != ENTITY_TYPE_CARGO))

  00197	83 7d f8 00	 cmp	 DWORD PTR _cargo$[ebp], 0
  0019b	0f 84 c0 00 00
	00		 je	 $LN3@response_t
  001a1	83 7d f8 00	 cmp	 DWORD PTR _cargo$[ebp], 0
  001a5	74 0a		 je	 SHORT $LN20@response_t
  001a7	8b 45 f8	 mov	 eax, DWORD PTR _cargo$[ebp]
  001aa	8b 08		 mov	 ecx, DWORD PTR [eax]
  001ac	89 4d b4	 mov	 DWORD PTR tv165[ebp], ecx
  001af	eb 21		 jmp	 SHORT $LN21@response_t
$LN20@response_t:
  001b1	8b 15 00 00 00
	00		 mov	 edx, DWORD PTR ?__LINE__Var@?0??response_to_waypoint_pick_up_reached@@YGHW4ENTITY_MESSAGES@@PAUENTITY@@1PAD@Z@4JA
  001b7	83 c2 15	 add	 edx, 21			; 00000015H
  001ba	52		 push	 edx
  001bb	68 00 00 00 00	 push	 OFFSET ??_C@_0EE@DLIIEJCN@c?3?2users?2nhv90?2projects?2eech?2ap@
  001c0	a1 00 00 00 00	 mov	 eax, DWORD PTR ?null_entity_pointer_message@@3PBDB ; null_entity_pointer_message
  001c5	50		 push	 eax
  001c6	e8 00 00 00 00	 call	 ?process_assert@@YGXPBD0H@Z ; process_assert
  001cb	c7 45 b4 00 00
	00 00		 mov	 DWORD PTR tv165[ebp], 0
$LN21@response_t:
  001d2	83 7d b4 04	 cmp	 DWORD PTR tv165[ebp], 4
  001d6	0f 84 85 00 00
	00		 je	 $LN3@response_t

; 1814 : 	{
; 1815 : 
; 1816 : 		cargo = get_local_entity_child_succ (cargo, LIST_TYPE_CARGO);

  001dc	83 7d f8 00	 cmp	 DWORD PTR _cargo$[ebp], 0
  001e0	74 0a		 je	 SHORT $LN22@response_t
  001e2	8b 45 f8	 mov	 eax, DWORD PTR _cargo$[ebp]
  001e5	8b 08		 mov	 ecx, DWORD PTR [eax]
  001e7	89 4d b4	 mov	 DWORD PTR tv173[ebp], ecx
  001ea	eb 21		 jmp	 SHORT $LN23@response_t
$LN22@response_t:
  001ec	8b 15 00 00 00
	00		 mov	 edx, DWORD PTR ?__LINE__Var@?0??response_to_waypoint_pick_up_reached@@YGHW4ENTITY_MESSAGES@@PAUENTITY@@1PAD@Z@4JA
  001f2	83 c2 18	 add	 edx, 24			; 00000018H
  001f5	52		 push	 edx
  001f6	68 00 00 00 00	 push	 OFFSET ??_C@_0EE@DLIIEJCN@c?3?2users?2nhv90?2projects?2eech?2ap@
  001fb	a1 00 00 00 00	 mov	 eax, DWORD PTR ?null_entity_pointer_message@@3PBDB ; null_entity_pointer_message
  00200	50		 push	 eax
  00201	e8 00 00 00 00	 call	 ?process_assert@@YGXPBD0H@Z ; process_assert
  00206	c7 45 b4 00 00
	00 00		 mov	 DWORD PTR tv173[ebp], 0
$LN23@response_t:
  0020d	b9 01 00 00 00	 mov	 ecx, 1
  00212	85 c9		 test	 ecx, ecx
  00214	74 09		 je	 SHORT $LN24@response_t
  00216	c7 45 b0 06 00
	00 00		 mov	 DWORD PTR tv181[ebp], 6
  0021d	eb 21		 jmp	 SHORT $LN25@response_t
$LN24@response_t:
  0021f	8b 15 00 00 00
	00		 mov	 edx, DWORD PTR ?__LINE__Var@?0??response_to_waypoint_pick_up_reached@@YGHW4ENTITY_MESSAGES@@PAUENTITY@@1PAD@Z@4JA
  00225	83 c2 18	 add	 edx, 24			; 00000018H
  00228	52		 push	 edx
  00229	68 00 00 00 00	 push	 OFFSET ??_C@_0EE@DLIIEJCN@c?3?2users?2nhv90?2projects?2eech?2ap@
  0022e	a1 00 00 00 00	 mov	 eax, DWORD PTR ?overload_invalid_list_type_message@@3PBDB ; overload_invalid_list_type_message
  00233	50		 push	 eax
  00234	e8 00 00 00 00	 call	 ?process_assert@@YGXPBD0H@Z ; process_assert
  00239	c7 45 b0 00 00
	00 00		 mov	 DWORD PTR tv181[ebp], 0
$LN25@response_t:
  00240	6a 06		 push	 6
  00242	8b 4d f8	 mov	 ecx, DWORD PTR _cargo$[ebp]
  00245	51		 push	 ecx
  00246	69 55 b4 b4 00
	00 00		 imul	 edx, DWORD PTR tv173[ebp], 180
  0024d	8b 45 b0	 mov	 eax, DWORD PTR tv181[ebp]
  00250	8b 8c 82 00 00
	00 00		 mov	 ecx, DWORD PTR ?fn_get_local_entity_child_succ@@3PAY0CN@P6GPAUENTITY@@PAU1@W4LIST_TYPES@@@ZA[edx+eax*4]
  00257	ff d1		 call	 ecx
  00259	89 45 f8	 mov	 DWORD PTR _cargo$[ebp], eax

; 1817 : 	}

  0025c	e9 36 ff ff ff	 jmp	 $LN2@response_t
$LN3@response_t:

; 1818 : 
; 1819 : 	if (!cargo)

  00261	83 7d f8 00	 cmp	 DWORD PTR _cargo$[ebp], 0
  00265	75 0a		 jne	 SHORT $LN7@response_t

; 1820 : 	{
; 1821 : 
; 1822 : 		return (TRUE);

  00267	b8 01 00 00 00	 mov	 eax, 1
  0026c	e9 e7 01 00 00	 jmp	 $LN1@response_t
$LN7@response_t:

; 1823 : 	}
; 1824 : 
; 1825 : 	notify_local_entity (ENTITY_MESSAGE_WAYPOINT_PICK_UP_REACHED, keysite, receiver, cargo);

  00271	8b 45 f8	 mov	 eax, DWORD PTR _cargo$[ebp]
  00274	50		 push	 eax
  00275	8b 4d 0c	 mov	 ecx, DWORD PTR _receiver$[ebp]
  00278	51		 push	 ecx
  00279	8b 55 fc	 mov	 edx, DWORD PTR _keysite$[ebp]
  0027c	52		 push	 edx
  0027d	6a 4d		 push	 77			; 0000004dH
  0027f	e8 00 00 00 00	 call	 ?notify_local_entity@@YAHW4ENTITY_MESSAGES@@PAUENTITY@@1ZZ ; notify_local_entity
  00284	83 c4 10	 add	 esp, 16			; 00000010H

; 1826 : 
; 1827 : 	delete_local_entity_from_parents_child_list (cargo, LIST_TYPE_CARGO);

  00287	6a 06		 push	 6
  00289	8b 45 f8	 mov	 eax, DWORD PTR _cargo$[ebp]
  0028c	50		 push	 eax
  0028d	e8 00 00 00 00	 call	 ?delete_local_entity_from_parents_child_list@@YGXPAUENTITY@@W4LIST_TYPES@@@Z ; delete_local_entity_from_parents_child_list

; 1828 : 
; 1829 : 	insert_local_entity_into_parents_child_list (cargo, LIST_TYPE_MOVEMENT_DEPENDENT, receiver, NULL);

  00292	6a 00		 push	 0
  00294	8b 45 0c	 mov	 eax, DWORD PTR _receiver$[ebp]
  00297	50		 push	 eax
  00298	6a 1a		 push	 26			; 0000001aH
  0029a	8b 4d f8	 mov	 ecx, DWORD PTR _cargo$[ebp]
  0029d	51		 push	 ecx
  0029e	e8 00 00 00 00	 call	 ?insert_local_entity_into_parents_child_list@@YGXPAUENTITY@@W4LIST_TYPES@@00@Z ; insert_local_entity_into_parents_child_list

; 1830 : 
; 1831 : 	transmit_entity_comms_message (ENTITY_COMMS_SWITCH_LIST, cargo, LIST_TYPE_CARGO, receiver, LIST_TYPE_MOVEMENT_DEPENDENT);

  002a3	6a 1a		 push	 26			; 0000001aH
  002a5	8b 45 0c	 mov	 eax, DWORD PTR _receiver$[ebp]
  002a8	50		 push	 eax
  002a9	6a 06		 push	 6
  002ab	8b 4d f8	 mov	 ecx, DWORD PTR _cargo$[ebp]
  002ae	51		 push	 ecx
  002af	6a 38		 push	 56			; 00000038H
  002b1	e8 00 00 00 00	 call	 ?transmit_entity_comms_message@@YAXW4ENTITY_COMMS_MESSAGES@@PAUENTITY@@ZZ ; transmit_entity_comms_message
  002b6	83 c4 14	 add	 esp, 20			; 00000014H

; 1832 : 
; 1833 : 	//
; 1834 : 	//
; 1835 : 	//
; 1836 : 
; 1837 : 	if (get_local_entity_int_value (receiver, INT_TYPE_OPERATIONAL_STATE) != OPERATIONAL_STATE_NAVIGATING)

  002b9	83 7d 0c 00	 cmp	 DWORD PTR _receiver$[ebp], 0
  002bd	74 0a		 je	 SHORT $LN26@response_t
  002bf	8b 45 0c	 mov	 eax, DWORD PTR _receiver$[ebp]
  002c2	8b 08		 mov	 ecx, DWORD PTR [eax]
  002c4	89 4d b4	 mov	 DWORD PTR tv208[ebp], ecx
  002c7	eb 1d		 jmp	 SHORT $LN27@response_t
$LN26@response_t:
  002c9	68 2d 07 00 00	 push	 1837			; 0000072dH
  002ce	68 00 00 00 00	 push	 OFFSET ??_C@_0EE@DLIIEJCN@c?3?2users?2nhv90?2projects?2eech?2ap@
  002d3	8b 15 00 00 00
	00		 mov	 edx, DWORD PTR ?null_entity_pointer_message@@3PBDB ; null_entity_pointer_message
  002d9	52		 push	 edx
  002da	e8 00 00 00 00	 call	 ?process_assert@@YGXPBD0H@Z ; process_assert
  002df	c7 45 b4 00 00
	00 00		 mov	 DWORD PTR tv208[ebp], 0
$LN27@response_t:
  002e6	b8 01 00 00 00	 mov	 eax, 1
  002eb	85 c0		 test	 eax, eax
  002ed	74 09		 je	 SHORT $LN28@response_t
  002ef	c7 45 b0 97 00
	00 00		 mov	 DWORD PTR tv215[ebp], 151 ; 00000097H
  002f6	eb 1d		 jmp	 SHORT $LN29@response_t
$LN28@response_t:
  002f8	68 2d 07 00 00	 push	 1837			; 0000072dH
  002fd	68 00 00 00 00	 push	 OFFSET ??_C@_0EE@DLIIEJCN@c?3?2users?2nhv90?2projects?2eech?2ap@
  00302	8b 0d 00 00 00
	00		 mov	 ecx, DWORD PTR ?overload_invalid_int_type_message@@3PBDB ; overload_invalid_int_type_message
  00308	51		 push	 ecx
  00309	e8 00 00 00 00	 call	 ?process_assert@@YGXPBD0H@Z ; process_assert
  0030e	c7 45 b0 00 00
	00 00		 mov	 DWORD PTR tv215[ebp], 0
$LN29@response_t:
  00315	68 97 00 00 00	 push	 151			; 00000097H
  0031a	8b 55 0c	 mov	 edx, DWORD PTR _receiver$[ebp]
  0031d	52		 push	 edx
  0031e	69 45 b4 5c 04
	00 00		 imul	 eax, DWORD PTR tv208[ebp], 1116
  00325	8b 4d b0	 mov	 ecx, DWORD PTR tv215[ebp]
  00328	8b 94 88 00 00
	00 00		 mov	 edx, DWORD PTR ?fn_get_local_entity_int_value@@3PAY0BBH@P6GHPAUENTITY@@W4INT_TYPES@@@ZA[eax+ecx*4]
  0032f	ff d2		 call	 edx
  00331	83 f8 07	 cmp	 eax, 7
  00334	0f 84 8b 00 00
	00		 je	 $LN8@response_t

; 1838 : 	{
; 1839 : 
; 1840 : 		set_client_server_entity_int_value (receiver, INT_TYPE_OPERATIONAL_STATE, OPERATIONAL_STATE_NAVIGATING);

  0033a	83 7d 0c 00	 cmp	 DWORD PTR _receiver$[ebp], 0
  0033e	74 0a		 je	 SHORT $LN30@response_t
  00340	8b 45 0c	 mov	 eax, DWORD PTR _receiver$[ebp]
  00343	8b 08		 mov	 ecx, DWORD PTR [eax]
  00345	89 4d b4	 mov	 DWORD PTR tv228[ebp], ecx
  00348	eb 21		 jmp	 SHORT $LN31@response_t
$LN30@response_t:
  0034a	8b 15 00 00 00
	00		 mov	 edx, DWORD PTR ?__LINE__Var@?0??response_to_waypoint_pick_up_reached@@YGHW4ENTITY_MESSAGES@@PAUENTITY@@1PAD@Z@4JA
  00350	83 c2 30	 add	 edx, 48			; 00000030H
  00353	52		 push	 edx
  00354	68 00 00 00 00	 push	 OFFSET ??_C@_0EE@DLIIEJCN@c?3?2users?2nhv90?2projects?2eech?2ap@
  00359	a1 00 00 00 00	 mov	 eax, DWORD PTR ?null_entity_pointer_message@@3PBDB ; null_entity_pointer_message
  0035e	50		 push	 eax
  0035f	e8 00 00 00 00	 call	 ?process_assert@@YGXPBD0H@Z ; process_assert
  00364	c7 45 b4 00 00
	00 00		 mov	 DWORD PTR tv228[ebp], 0
$LN31@response_t:
  0036b	b9 01 00 00 00	 mov	 ecx, 1
  00370	85 c9		 test	 ecx, ecx
  00372	74 09		 je	 SHORT $LN32@response_t
  00374	c7 45 b0 97 00
	00 00		 mov	 DWORD PTR tv236[ebp], 151 ; 00000097H
  0037b	eb 21		 jmp	 SHORT $LN33@response_t
$LN32@response_t:
  0037d	8b 15 00 00 00
	00		 mov	 edx, DWORD PTR ?__LINE__Var@?0??response_to_waypoint_pick_up_reached@@YGHW4ENTITY_MESSAGES@@PAUENTITY@@1PAD@Z@4JA
  00383	83 c2 30	 add	 edx, 48			; 00000030H
  00386	52		 push	 edx
  00387	68 00 00 00 00	 push	 OFFSET ??_C@_0EE@DLIIEJCN@c?3?2users?2nhv90?2projects?2eech?2ap@
  0038c	a1 00 00 00 00	 mov	 eax, DWORD PTR ?overload_invalid_int_type_message@@3PBDB ; overload_invalid_int_type_message
  00391	50		 push	 eax
  00392	e8 00 00 00 00	 call	 ?process_assert@@YGXPBD0H@Z ; process_assert
  00397	c7 45 b0 00 00
	00 00		 mov	 DWORD PTR tv236[ebp], 0
$LN33@response_t:
  0039e	6a 07		 push	 7
  003a0	68 97 00 00 00	 push	 151			; 00000097H
  003a5	8b 4d 0c	 mov	 ecx, DWORD PTR _receiver$[ebp]
  003a8	51		 push	 ecx
  003a9	69 55 b4 b8 08
	00 00		 imul	 edx, DWORD PTR tv228[ebp], 2232
  003b0	8b 45 b0	 mov	 eax, DWORD PTR tv236[ebp]
  003b3	8d 8c c2 00 00
	00 00		 lea	 ecx, DWORD PTR ?fn_set_client_server_entity_int_value@@3PAY1BBH@1P6GXPAUENTITY@@W4INT_TYPES@@H@ZA[edx+eax*8]
  003ba	8b 15 00 00 00
	00		 mov	 edx, DWORD PTR ?system_comms_model@@3W4COMMS_MODEL_TYPES@@A ; system_comms_model
  003c0	8b 04 91	 mov	 eax, DWORD PTR [ecx+edx*4]
  003c3	ff d0		 call	 eax
$LN8@response_t:

; 1841 : 	}
; 1842 : 
; 1843 : 	set_local_entity_float_value (receiver, FLOAT_TYPE_VIEW_INTEREST_LEVEL, DEFAULT_VIEW_INTEREST_LEVEL);

  003c5	83 7d 0c 00	 cmp	 DWORD PTR _receiver$[ebp], 0
  003c9	74 0a		 je	 SHORT $LN34@response_t
  003cb	8b 45 0c	 mov	 eax, DWORD PTR _receiver$[ebp]
  003ce	8b 08		 mov	 ecx, DWORD PTR [eax]
  003d0	89 4d b4	 mov	 DWORD PTR tv250[ebp], ecx
  003d3	eb 21		 jmp	 SHORT $LN35@response_t
$LN34@response_t:
  003d5	8b 15 00 00 00
	00		 mov	 edx, DWORD PTR ?__LINE__Var@?0??response_to_waypoint_pick_up_reached@@YGHW4ENTITY_MESSAGES@@PAUENTITY@@1PAD@Z@4JA
  003db	83 c2 33	 add	 edx, 51			; 00000033H
  003de	52		 push	 edx
  003df	68 00 00 00 00	 push	 OFFSET ??_C@_0EE@DLIIEJCN@c?3?2users?2nhv90?2projects?2eech?2ap@
  003e4	a1 00 00 00 00	 mov	 eax, DWORD PTR ?null_entity_pointer_message@@3PBDB ; null_entity_pointer_message
  003e9	50		 push	 eax
  003ea	e8 00 00 00 00	 call	 ?process_assert@@YGXPBD0H@Z ; process_assert
  003ef	c7 45 b4 00 00
	00 00		 mov	 DWORD PTR tv250[ebp], 0
$LN35@response_t:
  003f6	b9 01 00 00 00	 mov	 ecx, 1
  003fb	85 c9		 test	 ecx, ecx
  003fd	74 09		 je	 SHORT $LN36@response_t
  003ff	c7 45 b0 95 00
	00 00		 mov	 DWORD PTR tv258[ebp], 149 ; 00000095H
  00406	eb 21		 jmp	 SHORT $LN37@response_t
$LN36@response_t:
  00408	8b 15 00 00 00
	00		 mov	 edx, DWORD PTR ?__LINE__Var@?0??response_to_waypoint_pick_up_reached@@YGHW4ENTITY_MESSAGES@@PAUENTITY@@1PAD@Z@4JA
  0040e	83 c2 33	 add	 edx, 51			; 00000033H
  00411	52		 push	 edx
  00412	68 00 00 00 00	 push	 OFFSET ??_C@_0EE@DLIIEJCN@c?3?2users?2nhv90?2projects?2eech?2ap@
  00417	a1 00 00 00 00	 mov	 eax, DWORD PTR ?overload_invalid_float_type_message@@3PBDB ; overload_invalid_float_type_message
  0041c	50		 push	 eax
  0041d	e8 00 00 00 00	 call	 ?process_assert@@YGXPBD0H@Z ; process_assert
  00422	c7 45 b0 00 00
	00 00		 mov	 DWORD PTR tv258[ebp], 0
$LN37@response_t:
  00429	51		 push	 ecx
  0042a	f3 0f 10 05 00
	00 00 00	 movss	 xmm0, DWORD PTR __real@40a00000
  00432	f3 0f 11 04 24	 movss	 DWORD PTR [esp], xmm0
  00437	68 95 00 00 00	 push	 149			; 00000095H
  0043c	8b 4d 0c	 mov	 ecx, DWORD PTR _receiver$[ebp]
  0043f	51		 push	 ecx
  00440	69 55 b4 bc 02
	00 00		 imul	 edx, DWORD PTR tv250[ebp], 700
  00447	8b 45 b0	 mov	 eax, DWORD PTR tv258[ebp]
  0044a	8b 8c 82 00 00
	00 00		 mov	 ecx, DWORD PTR ?fn_set_local_entity_float_value@@3PAY0KP@P6GXPAUENTITY@@W4FLOAT_TYPES@@M@ZA[edx+eax*4]
  00451	ff d1		 call	 ecx

; 1844 : 
; 1845 : 	#if DEBUG_MODULE
; 1846 : 
; 1847 : 	debug_log ("MB_MSGS: inserting cargo %s into %s movement_dependent list", entity_sub_type_cargo_names [get_local_entity_int_value (cargo, INT_TYPE_ENTITY_SUB_TYPE)], entity_type_names [get_local_entity_type (receiver)]);
; 1848 : 
; 1849 : 	#endif
; 1850 : 
; 1851 : 	/////////////////////////////////////////////////////////////////
; 1852 : 	//
; 1853 : 	// SPECIAL_EFFECT_HOOK FOR PICKUP WAYPOINT REACHED
; 1854 : 	//
; 1855 : 	/////////////////////////////////////////////////////////////////
; 1856 : 
; 1857 : 	/////////////////////////////////////////////////////////////////
; 1858 : 	//
; 1859 : 	//
; 1860 : 	/////////////////////////////////////////////////////////////////
; 1861 : 
; 1862 : 	return (TRUE);

  00453	b8 01 00 00 00	 mov	 eax, 1
$LN1@response_t:

; 1863 : }

  00458	5f		 pop	 edi
  00459	5e		 pop	 esi
  0045a	5b		 pop	 ebx
  0045b	8b e5		 mov	 esp, ebp
  0045d	5d		 pop	 ebp
  0045e	c2 10 00	 ret	 16			; 00000010H
?response_to_waypoint_pick_up_reached@@YGHW4ENTITY_MESSAGES@@PAUENTITY@@1PAD@Z ENDP ; response_to_waypoint_pick_up_reached
_TEXT	ENDS
; Function compile flags: /Odtp /ZI
; File c:\users\nhv90\projects\eech\aphavoc\source\entity\mobile\mb_msgs.c
;	COMDAT ?response_to_waypoint_prepare_for_drop_off_reached@@YGHW4ENTITY_MESSAGES@@PAUENTITY@@1PAD@Z
_TEXT	SEGMENT
tv200 = -80						; size = 4
tv178 = -80						; size = 4
tv152 = -80						; size = 4
tv132 = -80						; size = 4
tv192 = -76						; size = 4
tv170 = -76						; size = 4
tv144 = -76						; size = 4
tv92 = -76						; size = 4
tv75 = -76						; size = 4
_group$ = -8						; size = 4
_mb$ = -4						; size = 4
_message$ = 8						; size = 4
_receiver$ = 12						; size = 4
_sender$ = 16						; size = 4
_pargs$ = 20						; size = 4
?response_to_waypoint_prepare_for_drop_off_reached@@YGHW4ENTITY_MESSAGES@@PAUENTITY@@1PAD@Z PROC ; response_to_waypoint_prepare_for_drop_off_reached, COMDAT

; 1733 : {

  00000	55		 push	 ebp
  00001	8b ec		 mov	 ebp, esp
  00003	83 ec 50	 sub	 esp, 80			; 00000050H
  00006	53		 push	 ebx
  00007	56		 push	 esi
  00008	57		 push	 edi

; 1734 : 	entity
; 1735 : 		*mb,
; 1736 : 		*group;
; 1737 : 
; 1738 : 	ASSERT (sender);

  00009	83 7d 10 00	 cmp	 DWORD PTR _sender$[ebp], 0
  0000d	75 18		 jne	 SHORT $LN4@response_t
  0000f	a1 00 00 00 00	 mov	 eax, DWORD PTR ?__LINE__Var@?0??response_to_waypoint_prepare_for_drop_off_reached@@YGHW4ENTITY_MESSAGES@@PAUENTITY@@1PAD@Z@4JA
  00014	83 c0 05	 add	 eax, 5
  00017	50		 push	 eax
  00018	68 00 00 00 00	 push	 OFFSET ??_C@_0EE@DLIIEJCN@c?3?2users?2nhv90?2projects?2eech?2ap@
  0001d	68 00 00 00 00	 push	 OFFSET ??_C@_06CGHJMPBJ@sender@
  00022	e8 00 00 00 00	 call	 ?process_assert@@YGXPBD0H@Z ; process_assert
$LN4@response_t:

; 1739 : 
; 1740 : 	ASSERT (get_local_entity_type (sender) == ENTITY_TYPE_WAYPOINT);

  00027	83 7d 10 00	 cmp	 DWORD PTR _sender$[ebp], 0
  0002b	74 0a		 je	 SHORT $LN9@response_t
  0002d	8b 45 10	 mov	 eax, DWORD PTR _sender$[ebp]
  00030	8b 08		 mov	 ecx, DWORD PTR [eax]
  00032	89 4d b4	 mov	 DWORD PTR tv75[ebp], ecx
  00035	eb 21		 jmp	 SHORT $LN10@response_t
$LN9@response_t:
  00037	8b 15 00 00 00
	00		 mov	 edx, DWORD PTR ?__LINE__Var@?0??response_to_waypoint_prepare_for_drop_off_reached@@YGHW4ENTITY_MESSAGES@@PAUENTITY@@1PAD@Z@4JA
  0003d	83 c2 07	 add	 edx, 7
  00040	52		 push	 edx
  00041	68 00 00 00 00	 push	 OFFSET ??_C@_0EE@DLIIEJCN@c?3?2users?2nhv90?2projects?2eech?2ap@
  00046	a1 00 00 00 00	 mov	 eax, DWORD PTR ?null_entity_pointer_message@@3PBDB ; null_entity_pointer_message
  0004b	50		 push	 eax
  0004c	e8 00 00 00 00	 call	 ?process_assert@@YGXPBD0H@Z ; process_assert
  00051	c7 45 b4 00 00
	00 00		 mov	 DWORD PTR tv75[ebp], 0
$LN10@response_t:
  00058	83 7d b4 24	 cmp	 DWORD PTR tv75[ebp], 36	; 00000024H
  0005c	74 18		 je	 SHORT $LN5@response_t
  0005e	a1 00 00 00 00	 mov	 eax, DWORD PTR ?__LINE__Var@?0??response_to_waypoint_prepare_for_drop_off_reached@@YGHW4ENTITY_MESSAGES@@PAUENTITY@@1PAD@Z@4JA
  00063	83 c0 07	 add	 eax, 7
  00066	50		 push	 eax
  00067	68 00 00 00 00	 push	 OFFSET ??_C@_0EE@DLIIEJCN@c?3?2users?2nhv90?2projects?2eech?2ap@
  0006c	68 00 00 00 00	 push	 OFFSET ??_C@_0DH@NBKEDIK@get_local_entity_type?5?$CIsender?$CJ?5@
  00071	e8 00 00 00 00	 call	 ?process_assert@@YGXPBD0H@Z ; process_assert
$LN5@response_t:

; 1741 : 
; 1742 : 	ASSERT (get_comms_model () == COMMS_MODEL_SERVER);

  00076	83 3d 00 00 00
	00 00		 cmp	 DWORD PTR ?system_comms_model@@3W4COMMS_MODEL_TYPES@@A, 0 ; system_comms_model
  0007d	74 18		 je	 SHORT $LN6@response_t
  0007f	a1 00 00 00 00	 mov	 eax, DWORD PTR ?__LINE__Var@?0??response_to_waypoint_prepare_for_drop_off_reached@@YGHW4ENTITY_MESSAGES@@PAUENTITY@@1PAD@Z@4JA
  00084	83 c0 09	 add	 eax, 9
  00087	50		 push	 eax
  00088	68 00 00 00 00	 push	 OFFSET ??_C@_0EE@DLIIEJCN@c?3?2users?2nhv90?2projects?2eech?2ap@
  0008d	68 00 00 00 00	 push	 OFFSET ??_C@_0CJ@DMBLBJBK@get_comms_model?5?$CI?$CJ?5?$DN?$DN?5COMMS_MOD@
  00092	e8 00 00 00 00	 call	 ?process_assert@@YGXPBD0H@Z ; process_assert
$LN6@response_t:

; 1743 : 
; 1744 : 	#if DEBUG_MODULE >= 2
; 1745 : 
; 1746 : 	debug_log_entity_message (message, receiver, sender, pargs);
; 1747 : 
; 1748 : 	#endif
; 1749 : 
; 1750 : 	/////////////////////////////////////////////////////////////////
; 1751 : 	//
; 1752 : 	// SPECIAL_EFFECT_HOOK FOR PREPARE_FOR_DROP_OFF WAYPOINT REACHED
; 1753 : 	//
; 1754 : 	/////////////////////////////////////////////////////////////////
; 1755 : 
; 1756 : 	group = get_local_entity_parent (receiver, LIST_TYPE_MEMBER);

  00097	83 7d 0c 00	 cmp	 DWORD PTR _receiver$[ebp], 0
  0009b	74 0a		 je	 SHORT $LN11@response_t
  0009d	8b 45 0c	 mov	 eax, DWORD PTR _receiver$[ebp]
  000a0	8b 08		 mov	 ecx, DWORD PTR [eax]
  000a2	89 4d b4	 mov	 DWORD PTR tv92[ebp], ecx
  000a5	eb 21		 jmp	 SHORT $LN12@response_t
$LN11@response_t:
  000a7	8b 15 00 00 00
	00		 mov	 edx, DWORD PTR ?__LINE__Var@?0??response_to_waypoint_prepare_for_drop_off_reached@@YGHW4ENTITY_MESSAGES@@PAUENTITY@@1PAD@Z@4JA
  000ad	83 c2 17	 add	 edx, 23			; 00000017H
  000b0	52		 push	 edx
  000b1	68 00 00 00 00	 push	 OFFSET ??_C@_0EE@DLIIEJCN@c?3?2users?2nhv90?2projects?2eech?2ap@
  000b6	a1 00 00 00 00	 mov	 eax, DWORD PTR ?null_entity_pointer_message@@3PBDB ; null_entity_pointer_message
  000bb	50		 push	 eax
  000bc	e8 00 00 00 00	 call	 ?process_assert@@YGXPBD0H@Z ; process_assert
  000c1	c7 45 b4 00 00
	00 00		 mov	 DWORD PTR tv92[ebp], 0
$LN12@response_t:
  000c8	b9 01 00 00 00	 mov	 ecx, 1
  000cd	85 c9		 test	 ecx, ecx
  000cf	74 09		 je	 SHORT $LN13@response_t
  000d1	c7 45 b0 19 00
	00 00		 mov	 DWORD PTR tv132[ebp], 25 ; 00000019H
  000d8	eb 21		 jmp	 SHORT $LN14@response_t
$LN13@response_t:
  000da	8b 15 00 00 00
	00		 mov	 edx, DWORD PTR ?__LINE__Var@?0??response_to_waypoint_prepare_for_drop_off_reached@@YGHW4ENTITY_MESSAGES@@PAUENTITY@@1PAD@Z@4JA
  000e0	83 c2 17	 add	 edx, 23			; 00000017H
  000e3	52		 push	 edx
  000e4	68 00 00 00 00	 push	 OFFSET ??_C@_0EE@DLIIEJCN@c?3?2users?2nhv90?2projects?2eech?2ap@
  000e9	a1 00 00 00 00	 mov	 eax, DWORD PTR ?overload_invalid_list_type_message@@3PBDB ; overload_invalid_list_type_message
  000ee	50		 push	 eax
  000ef	e8 00 00 00 00	 call	 ?process_assert@@YGXPBD0H@Z ; process_assert
  000f4	c7 45 b0 00 00
	00 00		 mov	 DWORD PTR tv132[ebp], 0
$LN14@response_t:
  000fb	6a 19		 push	 25			; 00000019H
  000fd	8b 4d 0c	 mov	 ecx, DWORD PTR _receiver$[ebp]
  00100	51		 push	 ecx
  00101	69 55 b4 b4 00
	00 00		 imul	 edx, DWORD PTR tv92[ebp], 180
  00108	8b 45 b0	 mov	 eax, DWORD PTR tv132[ebp]
  0010b	8b 8c 82 00 00
	00 00		 mov	 ecx, DWORD PTR ?fn_get_local_entity_parent@@3PAY0CN@P6GPAUENTITY@@PAU1@W4LIST_TYPES@@@ZA[edx+eax*4]
  00112	ff d1		 call	 ecx
  00114	89 45 f8	 mov	 DWORD PTR _group$[ebp], eax

; 1757 : 
; 1758 : 	mb = get_local_entity_first_child (group, LIST_TYPE_MEMBER);

  00117	83 7d f8 00	 cmp	 DWORD PTR _group$[ebp], 0
  0011b	74 0a		 je	 SHORT $LN15@response_t
  0011d	8b 45 f8	 mov	 eax, DWORD PTR _group$[ebp]
  00120	8b 08		 mov	 ecx, DWORD PTR [eax]
  00122	89 4d b4	 mov	 DWORD PTR tv144[ebp], ecx
  00125	eb 21		 jmp	 SHORT $LN16@response_t
$LN15@response_t:
  00127	8b 15 00 00 00
	00		 mov	 edx, DWORD PTR ?__LINE__Var@?0??response_to_waypoint_prepare_for_drop_off_reached@@YGHW4ENTITY_MESSAGES@@PAUENTITY@@1PAD@Z@4JA
  0012d	83 c2 19	 add	 edx, 25			; 00000019H
  00130	52		 push	 edx
  00131	68 00 00 00 00	 push	 OFFSET ??_C@_0EE@DLIIEJCN@c?3?2users?2nhv90?2projects?2eech?2ap@
  00136	a1 00 00 00 00	 mov	 eax, DWORD PTR ?null_entity_pointer_message@@3PBDB ; null_entity_pointer_message
  0013b	50		 push	 eax
  0013c	e8 00 00 00 00	 call	 ?process_assert@@YGXPBD0H@Z ; process_assert
  00141	c7 45 b4 00 00
	00 00		 mov	 DWORD PTR tv144[ebp], 0
$LN16@response_t:
  00148	b9 01 00 00 00	 mov	 ecx, 1
  0014d	85 c9		 test	 ecx, ecx
  0014f	74 09		 je	 SHORT $LN17@response_t
  00151	c7 45 b0 19 00
	00 00		 mov	 DWORD PTR tv152[ebp], 25 ; 00000019H
  00158	eb 21		 jmp	 SHORT $LN18@response_t
$LN17@response_t:
  0015a	8b 15 00 00 00
	00		 mov	 edx, DWORD PTR ?__LINE__Var@?0??response_to_waypoint_prepare_for_drop_off_reached@@YGHW4ENTITY_MESSAGES@@PAUENTITY@@1PAD@Z@4JA
  00160	83 c2 19	 add	 edx, 25			; 00000019H
  00163	52		 push	 edx
  00164	68 00 00 00 00	 push	 OFFSET ??_C@_0EE@DLIIEJCN@c?3?2users?2nhv90?2projects?2eech?2ap@
  00169	a1 00 00 00 00	 mov	 eax, DWORD PTR ?overload_invalid_list_type_message@@3PBDB ; overload_invalid_list_type_message
  0016e	50		 push	 eax
  0016f	e8 00 00 00 00	 call	 ?process_assert@@YGXPBD0H@Z ; process_assert
  00174	c7 45 b0 00 00
	00 00		 mov	 DWORD PTR tv152[ebp], 0
$LN18@response_t:
  0017b	6a 19		 push	 25			; 00000019H
  0017d	8b 4d f8	 mov	 ecx, DWORD PTR _group$[ebp]
  00180	51		 push	 ecx
  00181	69 55 b4 b4 00
	00 00		 imul	 edx, DWORD PTR tv144[ebp], 180
  00188	8b 45 b0	 mov	 eax, DWORD PTR tv152[ebp]
  0018b	8b 8c 82 00 00
	00 00		 mov	 ecx, DWORD PTR ?fn_get_local_entity_first_child@@3PAY0CN@P6GPAUENTITY@@PAU1@W4LIST_TYPES@@@ZA[edx+eax*4]
  00192	ff d1		 call	 ecx
  00194	89 45 fc	 mov	 DWORD PTR _mb$[ebp], eax
$LN2@response_t:

; 1759 : 
; 1760 : 	while (mb)

  00197	83 7d fc 00	 cmp	 DWORD PTR _mb$[ebp], 0
  0019b	0f 84 2c 01 00
	00		 je	 $LN3@response_t

; 1761 : 	{
; 1762 : 		open_client_server_entity_cargo_doors (mb);

  001a1	8b 45 fc	 mov	 eax, DWORD PTR _mb$[ebp]
  001a4	50		 push	 eax
  001a5	e8 00 00 00 00	 call	 ?open_client_server_entity_cargo_doors@@YGXPAUENTITY@@@Z ; open_client_server_entity_cargo_doors

; 1763 : 
; 1764 : 		if (get_local_entity_weapon_available (mb, ENTITY_SUB_TYPE_WEAPON_CRATE))

  001aa	6a 46		 push	 70			; 00000046H
  001ac	8b 45 fc	 mov	 eax, DWORD PTR _mb$[ebp]
  001af	50		 push	 eax
  001b0	e8 00 00 00 00	 call	 ?get_local_entity_weapon_available@@YGHPAUENTITY@@H@Z ; get_local_entity_weapon_available
  001b5	85 c0		 test	 eax, eax
  001b7	0f 84 8b 00 00
	00		 je	 $LN7@response_t

; 1765 : 		{
; 1766 : 	
; 1767 : 			set_client_server_entity_int_value (mb, INT_TYPE_SELECTED_WEAPON, ENTITY_SUB_TYPE_WEAPON_CRATE);

  001bd	83 7d fc 00	 cmp	 DWORD PTR _mb$[ebp], 0
  001c1	74 0a		 je	 SHORT $LN19@response_t
  001c3	8b 45 fc	 mov	 eax, DWORD PTR _mb$[ebp]
  001c6	8b 08		 mov	 ecx, DWORD PTR [eax]
  001c8	89 4d b4	 mov	 DWORD PTR tv170[ebp], ecx
  001cb	eb 21		 jmp	 SHORT $LN20@response_t
$LN19@response_t:
  001cd	8b 15 00 00 00
	00		 mov	 edx, DWORD PTR ?__LINE__Var@?0??response_to_waypoint_prepare_for_drop_off_reached@@YGHW4ENTITY_MESSAGES@@PAUENTITY@@1PAD@Z@4JA
  001d3	83 c2 22	 add	 edx, 34			; 00000022H
  001d6	52		 push	 edx
  001d7	68 00 00 00 00	 push	 OFFSET ??_C@_0EE@DLIIEJCN@c?3?2users?2nhv90?2projects?2eech?2ap@
  001dc	a1 00 00 00 00	 mov	 eax, DWORD PTR ?null_entity_pointer_message@@3PBDB ; null_entity_pointer_message
  001e1	50		 push	 eax
  001e2	e8 00 00 00 00	 call	 ?process_assert@@YGXPBD0H@Z ; process_assert
  001e7	c7 45 b4 00 00
	00 00		 mov	 DWORD PTR tv170[ebp], 0
$LN20@response_t:
  001ee	b9 01 00 00 00	 mov	 ecx, 1
  001f3	85 c9		 test	 ecx, ecx
  001f5	74 09		 je	 SHORT $LN21@response_t
  001f7	c7 45 b0 b8 00
	00 00		 mov	 DWORD PTR tv178[ebp], 184 ; 000000b8H
  001fe	eb 21		 jmp	 SHORT $LN22@response_t
$LN21@response_t:
  00200	8b 15 00 00 00
	00		 mov	 edx, DWORD PTR ?__LINE__Var@?0??response_to_waypoint_prepare_for_drop_off_reached@@YGHW4ENTITY_MESSAGES@@PAUENTITY@@1PAD@Z@4JA
  00206	83 c2 22	 add	 edx, 34			; 00000022H
  00209	52		 push	 edx
  0020a	68 00 00 00 00	 push	 OFFSET ??_C@_0EE@DLIIEJCN@c?3?2users?2nhv90?2projects?2eech?2ap@
  0020f	a1 00 00 00 00	 mov	 eax, DWORD PTR ?overload_invalid_int_type_message@@3PBDB ; overload_invalid_int_type_message
  00214	50		 push	 eax
  00215	e8 00 00 00 00	 call	 ?process_assert@@YGXPBD0H@Z ; process_assert
  0021a	c7 45 b0 00 00
	00 00		 mov	 DWORD PTR tv178[ebp], 0
$LN22@response_t:
  00221	6a 46		 push	 70			; 00000046H
  00223	68 b8 00 00 00	 push	 184			; 000000b8H
  00228	8b 4d fc	 mov	 ecx, DWORD PTR _mb$[ebp]
  0022b	51		 push	 ecx
  0022c	69 55 b4 b8 08
	00 00		 imul	 edx, DWORD PTR tv170[ebp], 2232
  00233	8b 45 b0	 mov	 eax, DWORD PTR tv178[ebp]
  00236	8d 8c c2 00 00
	00 00		 lea	 ecx, DWORD PTR ?fn_set_client_server_entity_int_value@@3PAY1BBH@1P6GXPAUENTITY@@W4INT_TYPES@@H@ZA[edx+eax*8]
  0023d	8b 15 00 00 00
	00		 mov	 edx, DWORD PTR ?system_comms_model@@3W4COMMS_MODEL_TYPES@@A ; system_comms_model
  00243	8b 04 91	 mov	 eax, DWORD PTR [ecx+edx*4]
  00246	ff d0		 call	 eax
$LN7@response_t:

; 1768 : 
; 1769 : 			#if DEBUG_MODULE
; 1770 : 	
; 1771 : 			debug_log ("MB_MSGS: %s (%d) reached prepare_for_drop_off, selecting crate_weapon", get_local_entity_string (mb, STRING_TYPE_FULL_NAME), get_local_entity_index (mb));
; 1772 : 
; 1773 : 			#endif
; 1774 : 		}
; 1775 : 	
; 1776 : 		mb = get_local_entity_child_succ (mb, LIST_TYPE_MEMBER);

  00248	83 7d fc 00	 cmp	 DWORD PTR _mb$[ebp], 0
  0024c	74 0a		 je	 SHORT $LN23@response_t
  0024e	8b 45 fc	 mov	 eax, DWORD PTR _mb$[ebp]
  00251	8b 08		 mov	 ecx, DWORD PTR [eax]
  00253	89 4d b4	 mov	 DWORD PTR tv192[ebp], ecx
  00256	eb 21		 jmp	 SHORT $LN24@response_t
$LN23@response_t:
  00258	8b 15 00 00 00
	00		 mov	 edx, DWORD PTR ?__LINE__Var@?0??response_to_waypoint_prepare_for_drop_off_reached@@YGHW4ENTITY_MESSAGES@@PAUENTITY@@1PAD@Z@4JA
  0025e	83 c2 2b	 add	 edx, 43			; 0000002bH
  00261	52		 push	 edx
  00262	68 00 00 00 00	 push	 OFFSET ??_C@_0EE@DLIIEJCN@c?3?2users?2nhv90?2projects?2eech?2ap@
  00267	a1 00 00 00 00	 mov	 eax, DWORD PTR ?null_entity_pointer_message@@3PBDB ; null_entity_pointer_message
  0026c	50		 push	 eax
  0026d	e8 00 00 00 00	 call	 ?process_assert@@YGXPBD0H@Z ; process_assert
  00272	c7 45 b4 00 00
	00 00		 mov	 DWORD PTR tv192[ebp], 0
$LN24@response_t:
  00279	b9 01 00 00 00	 mov	 ecx, 1
  0027e	85 c9		 test	 ecx, ecx
  00280	74 09		 je	 SHORT $LN25@response_t
  00282	c7 45 b0 19 00
	00 00		 mov	 DWORD PTR tv200[ebp], 25 ; 00000019H
  00289	eb 21		 jmp	 SHORT $LN26@response_t
$LN25@response_t:
  0028b	8b 15 00 00 00
	00		 mov	 edx, DWORD PTR ?__LINE__Var@?0??response_to_waypoint_prepare_for_drop_off_reached@@YGHW4ENTITY_MESSAGES@@PAUENTITY@@1PAD@Z@4JA
  00291	83 c2 2b	 add	 edx, 43			; 0000002bH
  00294	52		 push	 edx
  00295	68 00 00 00 00	 push	 OFFSET ??_C@_0EE@DLIIEJCN@c?3?2users?2nhv90?2projects?2eech?2ap@
  0029a	a1 00 00 00 00	 mov	 eax, DWORD PTR ?overload_invalid_list_type_message@@3PBDB ; overload_invalid_list_type_message
  0029f	50		 push	 eax
  002a0	e8 00 00 00 00	 call	 ?process_assert@@YGXPBD0H@Z ; process_assert
  002a5	c7 45 b0 00 00
	00 00		 mov	 DWORD PTR tv200[ebp], 0
$LN26@response_t:
  002ac	6a 19		 push	 25			; 00000019H
  002ae	8b 4d fc	 mov	 ecx, DWORD PTR _mb$[ebp]
  002b1	51		 push	 ecx
  002b2	69 55 b4 b4 00
	00 00		 imul	 edx, DWORD PTR tv192[ebp], 180
  002b9	8b 45 b0	 mov	 eax, DWORD PTR tv200[ebp]
  002bc	8b 8c 82 00 00
	00 00		 mov	 ecx, DWORD PTR ?fn_get_local_entity_child_succ@@3PAY0CN@P6GPAUENTITY@@PAU1@W4LIST_TYPES@@@ZA[edx+eax*4]
  002c3	ff d1		 call	 ecx
  002c5	89 45 fc	 mov	 DWORD PTR _mb$[ebp], eax

; 1777 : 	}

  002c8	e9 ca fe ff ff	 jmp	 $LN2@response_t
$LN3@response_t:

; 1778 : 
; 1779 : 	/////////////////////////////////////////////////////////////////
; 1780 : 	//
; 1781 : 	//
; 1782 : 	/////////////////////////////////////////////////////////////////
; 1783 : 
; 1784 : 	return (TRUE);

  002cd	b8 01 00 00 00	 mov	 eax, 1

; 1785 : }

  002d2	5f		 pop	 edi
  002d3	5e		 pop	 esi
  002d4	5b		 pop	 ebx
  002d5	8b e5		 mov	 esp, ebp
  002d7	5d		 pop	 ebp
  002d8	c2 10 00	 ret	 16			; 00000010H
?response_to_waypoint_prepare_for_drop_off_reached@@YGHW4ENTITY_MESSAGES@@PAUENTITY@@1PAD@Z ENDP ; response_to_waypoint_prepare_for_drop_off_reached
_TEXT	ENDS
; Function compile flags: /Odtp /ZI
; File c:\users\nhv90\projects\eech\aphavoc\source\entity\mobile\mb_msgs.c
;	COMDAT ?response_to_waypoint_sub_route_navigation_reached@@YGHW4ENTITY_MESSAGES@@PAUENTITY@@1PAD@Z
_TEXT	SEGMENT
tv383 = -104						; size = 4
tv363 = -104						; size = 4
tv342 = -104						; size = 4
tv322 = -104						; size = 4
tv302 = -104						; size = 4
tv280 = -104						; size = 4
tv260 = -104						; size = 4
tv234 = -104						; size = 4
tv213 = -104						; size = 4
tv193 = -104						; size = 4
tv170 = -104						; size = 4
tv149 = -104						; size = 4
tv130 = -104						; size = 4
tv375 = -100						; size = 4
tv355 = -100						; size = 4
tv334 = -100						; size = 4
tv314 = -100						; size = 4
tv294 = -100						; size = 4
tv272 = -100						; size = 4
tv252 = -100						; size = 4
tv226 = -100						; size = 4
tv205 = -100						; size = 4
tv185 = -100						; size = 4
tv163 = -100						; size = 4
tv142 = -100						; size = 4
tv91 = -100						; size = 4
tv75 = -100						; size = 4
_raw$1 = -32						; size = 4
_succ_wp$ = -28						; size = 4
_group$ = -24						; size = 4
_mb$ = -20						; size = 4
_sub_route_node$ = -16					; size = 4
_to_node$ = -12						; size = 4
_from_node$ = -8					; size = 4
_count$ = -4						; size = 4
_message$ = 8						; size = 4
_receiver$ = 12						; size = 4
_sender$ = 16						; size = 4
_pargs$ = 20						; size = 4
?response_to_waypoint_sub_route_navigation_reached@@YGHW4ENTITY_MESSAGES@@PAUENTITY@@1PAD@Z PROC ; response_to_waypoint_sub_route_navigation_reached, COMDAT

; 1605 : {

  00000	55		 push	 ebp
  00001	8b ec		 mov	 ebp, esp
  00003	83 ec 68	 sub	 esp, 104		; 00000068H
  00006	53		 push	 ebx
  00007	56		 push	 esi
  00008	57		 push	 edi

; 1606 : 	int
; 1607 : 		count,
; 1608 : 		from_node,
; 1609 : 		to_node;
; 1610 : 
; 1611 : 	node_link_data
; 1612 : 		*sub_route_node;
; 1613 : 
; 1614 : 	entity
; 1615 : 		*mb,
; 1616 : 		*group,
; 1617 : 		*succ_wp;
; 1618 : 
; 1619 : 	ASSERT (sender);

  00009	83 7d 10 00	 cmp	 DWORD PTR _sender$[ebp], 0
  0000d	75 18		 jne	 SHORT $LN4@response_t
  0000f	a1 00 00 00 00	 mov	 eax, DWORD PTR ?__LINE__Var@?0??response_to_waypoint_sub_route_navigation_reached@@YGHW4ENTITY_MESSAGES@@PAUENTITY@@1PAD@Z@4JA
  00014	83 c0 0e	 add	 eax, 14			; 0000000eH
  00017	50		 push	 eax
  00018	68 00 00 00 00	 push	 OFFSET ??_C@_0EE@DLIIEJCN@c?3?2users?2nhv90?2projects?2eech?2ap@
  0001d	68 00 00 00 00	 push	 OFFSET ??_C@_06CGHJMPBJ@sender@
  00022	e8 00 00 00 00	 call	 ?process_assert@@YGXPBD0H@Z ; process_assert
$LN4@response_t:

; 1620 : 
; 1621 : 	ASSERT (get_local_entity_type (sender) == ENTITY_TYPE_WAYPOINT);

  00027	83 7d 10 00	 cmp	 DWORD PTR _sender$[ebp], 0
  0002b	74 0a		 je	 SHORT $LN15@response_t
  0002d	8b 45 10	 mov	 eax, DWORD PTR _sender$[ebp]
  00030	8b 08		 mov	 ecx, DWORD PTR [eax]
  00032	89 4d 9c	 mov	 DWORD PTR tv75[ebp], ecx
  00035	eb 21		 jmp	 SHORT $LN16@response_t
$LN15@response_t:
  00037	8b 15 00 00 00
	00		 mov	 edx, DWORD PTR ?__LINE__Var@?0??response_to_waypoint_sub_route_navigation_reached@@YGHW4ENTITY_MESSAGES@@PAUENTITY@@1PAD@Z@4JA
  0003d	83 c2 10	 add	 edx, 16			; 00000010H
  00040	52		 push	 edx
  00041	68 00 00 00 00	 push	 OFFSET ??_C@_0EE@DLIIEJCN@c?3?2users?2nhv90?2projects?2eech?2ap@
  00046	a1 00 00 00 00	 mov	 eax, DWORD PTR ?null_entity_pointer_message@@3PBDB ; null_entity_pointer_message
  0004b	50		 push	 eax
  0004c	e8 00 00 00 00	 call	 ?process_assert@@YGXPBD0H@Z ; process_assert
  00051	c7 45 9c 00 00
	00 00		 mov	 DWORD PTR tv75[ebp], 0
$LN16@response_t:
  00058	83 7d 9c 24	 cmp	 DWORD PTR tv75[ebp], 36	; 00000024H
  0005c	74 18		 je	 SHORT $LN5@response_t
  0005e	a1 00 00 00 00	 mov	 eax, DWORD PTR ?__LINE__Var@?0??response_to_waypoint_sub_route_navigation_reached@@YGHW4ENTITY_MESSAGES@@PAUENTITY@@1PAD@Z@4JA
  00063	83 c0 10	 add	 eax, 16			; 00000010H
  00066	50		 push	 eax
  00067	68 00 00 00 00	 push	 OFFSET ??_C@_0EE@DLIIEJCN@c?3?2users?2nhv90?2projects?2eech?2ap@
  0006c	68 00 00 00 00	 push	 OFFSET ??_C@_0DH@NBKEDIK@get_local_entity_type?5?$CIsender?$CJ?5@
  00071	e8 00 00 00 00	 call	 ?process_assert@@YGXPBD0H@Z ; process_assert
$LN5@response_t:

; 1622 : 
; 1623 : 	ASSERT (get_comms_model () == COMMS_MODEL_SERVER);

  00076	83 3d 00 00 00
	00 00		 cmp	 DWORD PTR ?system_comms_model@@3W4COMMS_MODEL_TYPES@@A, 0 ; system_comms_model
  0007d	74 18		 je	 SHORT $LN6@response_t
  0007f	a1 00 00 00 00	 mov	 eax, DWORD PTR ?__LINE__Var@?0??response_to_waypoint_sub_route_navigation_reached@@YGHW4ENTITY_MESSAGES@@PAUENTITY@@1PAD@Z@4JA
  00084	83 c0 12	 add	 eax, 18			; 00000012H
  00087	50		 push	 eax
  00088	68 00 00 00 00	 push	 OFFSET ??_C@_0EE@DLIIEJCN@c?3?2users?2nhv90?2projects?2eech?2ap@
  0008d	68 00 00 00 00	 push	 OFFSET ??_C@_0CJ@DMBLBJBK@get_comms_model?5?$CI?$CJ?5?$DN?$DN?5COMMS_MOD@
  00092	e8 00 00 00 00	 call	 ?process_assert@@YGXPBD0H@Z ; process_assert
$LN6@response_t:

; 1624 : 
; 1625 : 	#if DEBUG_MODULE >= 2
; 1626 : 
; 1627 : 	debug_log_entity_message (message, receiver, sender, pargs);
; 1628 : 
; 1629 : 	#endif
; 1630 : 
; 1631 : 	if (get_local_entity_int_value (get_session_entity (), INT_TYPE_DAY_SEGMENT_TYPE) == DAY_SEGMENT_TYPE_NIGHT)

  00097	83 3d 00 00 00
	00 00		 cmp	 DWORD PTR ?session_entity@@3PAUENTITY@@A, 0 ; session_entity
  0009e	74 0c		 je	 SHORT $LN17@response_t
  000a0	a1 00 00 00 00	 mov	 eax, DWORD PTR ?session_entity@@3PAUENTITY@@A ; session_entity
  000a5	8b 08		 mov	 ecx, DWORD PTR [eax]
  000a7	89 4d 9c	 mov	 DWORD PTR tv91[ebp], ecx
  000aa	eb 1d		 jmp	 SHORT $LN18@response_t
$LN17@response_t:
  000ac	68 5f 06 00 00	 push	 1631			; 0000065fH
  000b1	68 00 00 00 00	 push	 OFFSET ??_C@_0EE@DLIIEJCN@c?3?2users?2nhv90?2projects?2eech?2ap@
  000b6	8b 15 00 00 00
	00		 mov	 edx, DWORD PTR ?null_entity_pointer_message@@3PBDB ; null_entity_pointer_message
  000bc	52		 push	 edx
  000bd	e8 00 00 00 00	 call	 ?process_assert@@YGXPBD0H@Z ; process_assert
  000c2	c7 45 9c 00 00
	00 00		 mov	 DWORD PTR tv91[ebp], 0
$LN18@response_t:
  000c9	b8 01 00 00 00	 mov	 eax, 1
  000ce	85 c0		 test	 eax, eax
  000d0	74 09		 je	 SHORT $LN19@response_t
  000d2	c7 45 98 27 00
	00 00		 mov	 DWORD PTR tv130[ebp], 39 ; 00000027H
  000d9	eb 1d		 jmp	 SHORT $LN20@response_t
$LN19@response_t:
  000db	68 5f 06 00 00	 push	 1631			; 0000065fH
  000e0	68 00 00 00 00	 push	 OFFSET ??_C@_0EE@DLIIEJCN@c?3?2users?2nhv90?2projects?2eech?2ap@
  000e5	8b 0d 00 00 00
	00		 mov	 ecx, DWORD PTR ?overload_invalid_int_type_message@@3PBDB ; overload_invalid_int_type_message
  000eb	51		 push	 ecx
  000ec	e8 00 00 00 00	 call	 ?process_assert@@YGXPBD0H@Z ; process_assert
  000f1	c7 45 98 00 00
	00 00		 mov	 DWORD PTR tv130[ebp], 0
$LN20@response_t:
  000f8	6a 27		 push	 39			; 00000027H
  000fa	8b 15 00 00 00
	00		 mov	 edx, DWORD PTR ?session_entity@@3PAUENTITY@@A ; session_entity
  00100	52		 push	 edx
  00101	69 45 9c 5c 04
	00 00		 imul	 eax, DWORD PTR tv91[ebp], 1116
  00108	8b 4d 98	 mov	 ecx, DWORD PTR tv130[ebp]
  0010b	8b 94 88 00 00
	00 00		 mov	 edx, DWORD PTR ?fn_get_local_entity_int_value@@3PAY0BBH@P6GHPAUENTITY@@W4INT_TYPES@@@ZA[eax+ecx*4]
  00112	ff d2		 call	 edx
  00114	83 f8 03	 cmp	 eax, 3
  00117	0f 85 89 00 00
	00		 jne	 $LN7@response_t

; 1632 : 	{
; 1633 : 		if (!get_local_entity_int_value (receiver, INT_TYPE_LIGHTS_ON))

  0011d	83 7d 0c 00	 cmp	 DWORD PTR _receiver$[ebp], 0
  00121	74 0a		 je	 SHORT $LN21@response_t
  00123	8b 45 0c	 mov	 eax, DWORD PTR _receiver$[ebp]
  00126	8b 08		 mov	 ecx, DWORD PTR [eax]
  00128	89 4d 9c	 mov	 DWORD PTR tv142[ebp], ecx
  0012b	eb 1d		 jmp	 SHORT $LN22@response_t
$LN21@response_t:
  0012d	68 61 06 00 00	 push	 1633			; 00000661H
  00132	68 00 00 00 00	 push	 OFFSET ??_C@_0EE@DLIIEJCN@c?3?2users?2nhv90?2projects?2eech?2ap@
  00137	8b 15 00 00 00
	00		 mov	 edx, DWORD PTR ?null_entity_pointer_message@@3PBDB ; null_entity_pointer_message
  0013d	52		 push	 edx
  0013e	e8 00 00 00 00	 call	 ?process_assert@@YGXPBD0H@Z ; process_assert
  00143	c7 45 9c 00 00
	00 00		 mov	 DWORD PTR tv142[ebp], 0
$LN22@response_t:
  0014a	b8 01 00 00 00	 mov	 eax, 1
  0014f	85 c0		 test	 eax, eax
  00151	74 09		 je	 SHORT $LN23@response_t
  00153	c7 45 98 7a 00
	00 00		 mov	 DWORD PTR tv149[ebp], 122 ; 0000007aH
  0015a	eb 1d		 jmp	 SHORT $LN24@response_t
$LN23@response_t:
  0015c	68 61 06 00 00	 push	 1633			; 00000661H
  00161	68 00 00 00 00	 push	 OFFSET ??_C@_0EE@DLIIEJCN@c?3?2users?2nhv90?2projects?2eech?2ap@
  00166	8b 0d 00 00 00
	00		 mov	 ecx, DWORD PTR ?overload_invalid_int_type_message@@3PBDB ; overload_invalid_int_type_message
  0016c	51		 push	 ecx
  0016d	e8 00 00 00 00	 call	 ?process_assert@@YGXPBD0H@Z ; process_assert
  00172	c7 45 98 00 00
	00 00		 mov	 DWORD PTR tv149[ebp], 0
$LN24@response_t:
  00179	6a 7a		 push	 122			; 0000007aH
  0017b	8b 55 0c	 mov	 edx, DWORD PTR _receiver$[ebp]
  0017e	52		 push	 edx
  0017f	69 45 9c 5c 04
	00 00		 imul	 eax, DWORD PTR tv142[ebp], 1116
  00186	8b 4d 98	 mov	 ecx, DWORD PTR tv149[ebp]
  00189	8b 94 88 00 00
	00 00		 mov	 edx, DWORD PTR ?fn_get_local_entity_int_value@@3PAY0BBH@P6GHPAUENTITY@@W4INT_TYPES@@@ZA[eax+ecx*4]
  00190	ff d2		 call	 edx
  00192	85 c0		 test	 eax, eax
  00194	75 0b		 jne	 SHORT $LN9@response_t

; 1634 : 		{
; 1635 : 			set_vehicle_headlight_state (receiver, ON);

  00196	6a 01		 push	 1
  00198	8b 45 0c	 mov	 eax, DWORD PTR _receiver$[ebp]
  0019b	50		 push	 eax
  0019c	e8 00 00 00 00	 call	 ?set_vehicle_headlight_state@@YGXPAUENTITY@@H@Z ; set_vehicle_headlight_state
$LN9@response_t:

; 1636 : 		}
; 1637 : 	}
; 1638 : 	else

  001a1	e9 84 00 00 00	 jmp	 $LN8@response_t
$LN7@response_t:

; 1639 : 	{
; 1640 : 		if (get_local_entity_int_value (receiver, INT_TYPE_LIGHTS_ON))

  001a6	83 7d 0c 00	 cmp	 DWORD PTR _receiver$[ebp], 0
  001aa	74 0a		 je	 SHORT $LN25@response_t
  001ac	8b 45 0c	 mov	 eax, DWORD PTR _receiver$[ebp]
  001af	8b 08		 mov	 ecx, DWORD PTR [eax]
  001b1	89 4d 9c	 mov	 DWORD PTR tv163[ebp], ecx
  001b4	eb 1d		 jmp	 SHORT $LN26@response_t
$LN25@response_t:
  001b6	68 68 06 00 00	 push	 1640			; 00000668H
  001bb	68 00 00 00 00	 push	 OFFSET ??_C@_0EE@DLIIEJCN@c?3?2users?2nhv90?2projects?2eech?2ap@
  001c0	8b 15 00 00 00
	00		 mov	 edx, DWORD PTR ?null_entity_pointer_message@@3PBDB ; null_entity_pointer_message
  001c6	52		 push	 edx
  001c7	e8 00 00 00 00	 call	 ?process_assert@@YGXPBD0H@Z ; process_assert
  001cc	c7 45 9c 00 00
	00 00		 mov	 DWORD PTR tv163[ebp], 0
$LN26@response_t:
  001d3	b8 01 00 00 00	 mov	 eax, 1
  001d8	85 c0		 test	 eax, eax
  001da	74 09		 je	 SHORT $LN27@response_t
  001dc	c7 45 98 7a 00
	00 00		 mov	 DWORD PTR tv170[ebp], 122 ; 0000007aH
  001e3	eb 1d		 jmp	 SHORT $LN28@response_t
$LN27@response_t:
  001e5	68 68 06 00 00	 push	 1640			; 00000668H
  001ea	68 00 00 00 00	 push	 OFFSET ??_C@_0EE@DLIIEJCN@c?3?2users?2nhv90?2projects?2eech?2ap@
  001ef	8b 0d 00 00 00
	00		 mov	 ecx, DWORD PTR ?overload_invalid_int_type_message@@3PBDB ; overload_invalid_int_type_message
  001f5	51		 push	 ecx
  001f6	e8 00 00 00 00	 call	 ?process_assert@@YGXPBD0H@Z ; process_assert
  001fb	c7 45 98 00 00
	00 00		 mov	 DWORD PTR tv170[ebp], 0
$LN28@response_t:
  00202	6a 7a		 push	 122			; 0000007aH
  00204	8b 55 0c	 mov	 edx, DWORD PTR _receiver$[ebp]
  00207	52		 push	 edx
  00208	69 45 9c 5c 04
	00 00		 imul	 eax, DWORD PTR tv163[ebp], 1116
  0020f	8b 4d 98	 mov	 ecx, DWORD PTR tv170[ebp]
  00212	8b 94 88 00 00
	00 00		 mov	 edx, DWORD PTR ?fn_get_local_entity_int_value@@3PAY0BBH@P6GHPAUENTITY@@W4INT_TYPES@@@ZA[eax+ecx*4]
  00219	ff d2		 call	 edx
  0021b	85 c0		 test	 eax, eax
  0021d	74 0b		 je	 SHORT $LN8@response_t

; 1641 : 		{
; 1642 : 			set_vehicle_headlight_state (receiver, OFF);

  0021f	6a 00		 push	 0
  00221	8b 45 0c	 mov	 eax, DWORD PTR _receiver$[ebp]
  00224	50		 push	 eax
  00225	e8 00 00 00 00	 call	 ?set_vehicle_headlight_state@@YGXPAUENTITY@@H@Z ; set_vehicle_headlight_state
$LN8@response_t:

; 1643 : 		}
; 1644 : 	}
; 1645 : 
; 1646 : 	//
; 1647 : 	// Setup sub_route points. NB: ONLY the leader does this
; 1648 : 	//
; 1649 : 
; 1650 : 	#if DEBUG_MODULE
; 1651 : 
; 1652 : 	debug_log ("MB_MSGS: sub_route navigation waypoint reached by %s (%d)",
; 1653 : 					get_local_entity_string (receiver, STRING_TYPE_FULL_NAME),
; 1654 : 					get_local_entity_index (receiver),
; 1655 : 					get_local_entity_int_value (sender, INT_TYPE_ROUTE_NODE));
; 1656 : 
; 1657 : 	#endif
; 1658 : 
; 1659 : 	succ_wp = get_local_entity_child_succ (sender, LIST_TYPE_WAYPOINT);

  0022a	83 7d 10 00	 cmp	 DWORD PTR _sender$[ebp], 0
  0022e	74 0a		 je	 SHORT $LN29@response_t
  00230	8b 45 10	 mov	 eax, DWORD PTR _sender$[ebp]
  00233	8b 08		 mov	 ecx, DWORD PTR [eax]
  00235	89 4d 9c	 mov	 DWORD PTR tv185[ebp], ecx
  00238	eb 21		 jmp	 SHORT $LN30@response_t
$LN29@response_t:
  0023a	8b 15 00 00 00
	00		 mov	 edx, DWORD PTR ?__LINE__Var@?0??response_to_waypoint_sub_route_navigation_reached@@YGHW4ENTITY_MESSAGES@@PAUENTITY@@1PAD@Z@4JA
  00240	83 c2 36	 add	 edx, 54			; 00000036H
  00243	52		 push	 edx
  00244	68 00 00 00 00	 push	 OFFSET ??_C@_0EE@DLIIEJCN@c?3?2users?2nhv90?2projects?2eech?2ap@
  00249	a1 00 00 00 00	 mov	 eax, DWORD PTR ?null_entity_pointer_message@@3PBDB ; null_entity_pointer_message
  0024e	50		 push	 eax
  0024f	e8 00 00 00 00	 call	 ?process_assert@@YGXPBD0H@Z ; process_assert
  00254	c7 45 9c 00 00
	00 00		 mov	 DWORD PTR tv185[ebp], 0
$LN30@response_t:
  0025b	b9 01 00 00 00	 mov	 ecx, 1
  00260	85 c9		 test	 ecx, ecx
  00262	74 09		 je	 SHORT $LN31@response_t
  00264	c7 45 98 2c 00
	00 00		 mov	 DWORD PTR tv193[ebp], 44 ; 0000002cH
  0026b	eb 21		 jmp	 SHORT $LN32@response_t
$LN31@response_t:
  0026d	8b 15 00 00 00
	00		 mov	 edx, DWORD PTR ?__LINE__Var@?0??response_to_waypoint_sub_route_navigation_reached@@YGHW4ENTITY_MESSAGES@@PAUENTITY@@1PAD@Z@4JA
  00273	83 c2 36	 add	 edx, 54			; 00000036H
  00276	52		 push	 edx
  00277	68 00 00 00 00	 push	 OFFSET ??_C@_0EE@DLIIEJCN@c?3?2users?2nhv90?2projects?2eech?2ap@
  0027c	a1 00 00 00 00	 mov	 eax, DWORD PTR ?overload_invalid_list_type_message@@3PBDB ; overload_invalid_list_type_message
  00281	50		 push	 eax
  00282	e8 00 00 00 00	 call	 ?process_assert@@YGXPBD0H@Z ; process_assert
  00287	c7 45 98 00 00
	00 00		 mov	 DWORD PTR tv193[ebp], 0
$LN32@response_t:
  0028e	6a 2c		 push	 44			; 0000002cH
  00290	8b 4d 10	 mov	 ecx, DWORD PTR _sender$[ebp]
  00293	51		 push	 ecx
  00294	69 55 9c b4 00
	00 00		 imul	 edx, DWORD PTR tv185[ebp], 180
  0029b	8b 45 98	 mov	 eax, DWORD PTR tv193[ebp]
  0029e	8b 8c 82 00 00
	00 00		 mov	 ecx, DWORD PTR ?fn_get_local_entity_child_succ@@3PAY0CN@P6GPAUENTITY@@PAU1@W4LIST_TYPES@@@ZA[edx+eax*4]
  002a5	ff d1		 call	 ecx
  002a7	89 45 e4	 mov	 DWORD PTR _succ_wp$[ebp], eax

; 1660 : 
; 1661 : 	from_node = get_local_entity_int_value (sender, INT_TYPE_ROUTE_NODE);

  002aa	83 7d 10 00	 cmp	 DWORD PTR _sender$[ebp], 0
  002ae	74 0a		 je	 SHORT $LN33@response_t
  002b0	8b 45 10	 mov	 eax, DWORD PTR _sender$[ebp]
  002b3	8b 08		 mov	 ecx, DWORD PTR [eax]
  002b5	89 4d 9c	 mov	 DWORD PTR tv205[ebp], ecx
  002b8	eb 21		 jmp	 SHORT $LN34@response_t
$LN33@response_t:
  002ba	8b 15 00 00 00
	00		 mov	 edx, DWORD PTR ?__LINE__Var@?0??response_to_waypoint_sub_route_navigation_reached@@YGHW4ENTITY_MESSAGES@@PAUENTITY@@1PAD@Z@4JA
  002c0	83 c2 38	 add	 edx, 56			; 00000038H
  002c3	52		 push	 edx
  002c4	68 00 00 00 00	 push	 OFFSET ??_C@_0EE@DLIIEJCN@c?3?2users?2nhv90?2projects?2eech?2ap@
  002c9	a1 00 00 00 00	 mov	 eax, DWORD PTR ?null_entity_pointer_message@@3PBDB ; null_entity_pointer_message
  002ce	50		 push	 eax
  002cf	e8 00 00 00 00	 call	 ?process_assert@@YGXPBD0H@Z ; process_assert
  002d4	c7 45 9c 00 00
	00 00		 mov	 DWORD PTR tv205[ebp], 0
$LN34@response_t:
  002db	b9 01 00 00 00	 mov	 ecx, 1
  002e0	85 c9		 test	 ecx, ecx
  002e2	74 09		 je	 SHORT $LN35@response_t
  002e4	c7 45 98 b4 00
	00 00		 mov	 DWORD PTR tv213[ebp], 180 ; 000000b4H
  002eb	eb 21		 jmp	 SHORT $LN36@response_t
$LN35@response_t:
  002ed	8b 15 00 00 00
	00		 mov	 edx, DWORD PTR ?__LINE__Var@?0??response_to_waypoint_sub_route_navigation_reached@@YGHW4ENTITY_MESSAGES@@PAUENTITY@@1PAD@Z@4JA
  002f3	83 c2 38	 add	 edx, 56			; 00000038H
  002f6	52		 push	 edx
  002f7	68 00 00 00 00	 push	 OFFSET ??_C@_0EE@DLIIEJCN@c?3?2users?2nhv90?2projects?2eech?2ap@
  002fc	a1 00 00 00 00	 mov	 eax, DWORD PTR ?overload_invalid_int_type_message@@3PBDB ; overload_invalid_int_type_message
  00301	50		 push	 eax
  00302	e8 00 00 00 00	 call	 ?process_assert@@YGXPBD0H@Z ; process_assert
  00307	c7 45 98 00 00
	00 00		 mov	 DWORD PTR tv213[ebp], 0
$LN36@response_t:
  0030e	68 b4 00 00 00	 push	 180			; 000000b4H
  00313	8b 4d 10	 mov	 ecx, DWORD PTR _sender$[ebp]
  00316	51		 push	 ecx
  00317	69 55 9c 5c 04
	00 00		 imul	 edx, DWORD PTR tv205[ebp], 1116
  0031e	8b 45 98	 mov	 eax, DWORD PTR tv213[ebp]
  00321	8b 8c 82 00 00
	00 00		 mov	 ecx, DWORD PTR ?fn_get_local_entity_int_value@@3PAY0BBH@P6GHPAUENTITY@@W4INT_TYPES@@@ZA[edx+eax*4]
  00328	ff d1		 call	 ecx
  0032a	89 45 f8	 mov	 DWORD PTR _from_node$[ebp], eax

; 1662 : 
; 1663 : 	#if DEBUG_MODULE
; 1664 : 
; 1665 : 	debug_log ("MB_MSGS: travelling from node %d", from_node);
; 1666 : 
; 1667 : 	#endif
; 1668 : 
; 1669 : 	if (succ_wp)

  0032d	83 7d e4 00	 cmp	 DWORD PTR _succ_wp$[ebp], 0
  00331	0f 84 80 04 00
	00		 je	 $LN11@response_t

; 1670 : 	{
; 1671 : 
; 1672 : 		to_node = get_local_entity_int_value (succ_wp, INT_TYPE_ROUTE_NODE);

  00337	83 7d e4 00	 cmp	 DWORD PTR _succ_wp$[ebp], 0
  0033b	74 0a		 je	 SHORT $LN37@response_t
  0033d	8b 45 e4	 mov	 eax, DWORD PTR _succ_wp$[ebp]
  00340	8b 08		 mov	 ecx, DWORD PTR [eax]
  00342	89 4d 9c	 mov	 DWORD PTR tv226[ebp], ecx
  00345	eb 21		 jmp	 SHORT $LN38@response_t
$LN37@response_t:
  00347	8b 15 00 00 00
	00		 mov	 edx, DWORD PTR ?__LINE__Var@?0??response_to_waypoint_sub_route_navigation_reached@@YGHW4ENTITY_MESSAGES@@PAUENTITY@@1PAD@Z@4JA
  0034d	83 c2 43	 add	 edx, 67			; 00000043H
  00350	52		 push	 edx
  00351	68 00 00 00 00	 push	 OFFSET ??_C@_0EE@DLIIEJCN@c?3?2users?2nhv90?2projects?2eech?2ap@
  00356	a1 00 00 00 00	 mov	 eax, DWORD PTR ?null_entity_pointer_message@@3PBDB ; null_entity_pointer_message
  0035b	50		 push	 eax
  0035c	e8 00 00 00 00	 call	 ?process_assert@@YGXPBD0H@Z ; process_assert
  00361	c7 45 9c 00 00
	00 00		 mov	 DWORD PTR tv226[ebp], 0
$LN38@response_t:
  00368	b9 01 00 00 00	 mov	 ecx, 1
  0036d	85 c9		 test	 ecx, ecx
  0036f	74 09		 je	 SHORT $LN39@response_t
  00371	c7 45 98 b4 00
	00 00		 mov	 DWORD PTR tv234[ebp], 180 ; 000000b4H
  00378	eb 21		 jmp	 SHORT $LN40@response_t
$LN39@response_t:
  0037a	8b 15 00 00 00
	00		 mov	 edx, DWORD PTR ?__LINE__Var@?0??response_to_waypoint_sub_route_navigation_reached@@YGHW4ENTITY_MESSAGES@@PAUENTITY@@1PAD@Z@4JA
  00380	83 c2 43	 add	 edx, 67			; 00000043H
  00383	52		 push	 edx
  00384	68 00 00 00 00	 push	 OFFSET ??_C@_0EE@DLIIEJCN@c?3?2users?2nhv90?2projects?2eech?2ap@
  00389	a1 00 00 00 00	 mov	 eax, DWORD PTR ?overload_invalid_int_type_message@@3PBDB ; overload_invalid_int_type_message
  0038e	50		 push	 eax
  0038f	e8 00 00 00 00	 call	 ?process_assert@@YGXPBD0H@Z ; process_assert
  00394	c7 45 98 00 00
	00 00		 mov	 DWORD PTR tv234[ebp], 0
$LN40@response_t:
  0039b	68 b4 00 00 00	 push	 180			; 000000b4H
  003a0	8b 4d e4	 mov	 ecx, DWORD PTR _succ_wp$[ebp]
  003a3	51		 push	 ecx
  003a4	69 55 9c 5c 04
	00 00		 imul	 edx, DWORD PTR tv226[ebp], 1116
  003ab	8b 45 98	 mov	 eax, DWORD PTR tv234[ebp]
  003ae	8b 8c 82 00 00
	00 00		 mov	 ecx, DWORD PTR ?fn_get_local_entity_int_value@@3PAY0BBH@P6GHPAUENTITY@@W4INT_TYPES@@@ZA[edx+eax*4]
  003b5	ff d1		 call	 ecx
  003b7	89 45 f4	 mov	 DWORD PTR _to_node$[ebp], eax

; 1673 : 
; 1674 : 		#if DEBUG_MODULE
; 1675 : 
; 1676 : 		debug_log ("MB_MSGS: travelling to node %d", to_node);
; 1677 : 
; 1678 : 		#endif
; 1679 : 
; 1680 : 		sub_route_node = get_road_sub_route (from_node, to_node, &count, NULL);

  003ba	6a 00		 push	 0
  003bc	8d 45 fc	 lea	 eax, DWORD PTR _count$[ebp]
  003bf	50		 push	 eax
  003c0	8b 4d f4	 mov	 ecx, DWORD PTR _to_node$[ebp]
  003c3	51		 push	 ecx
  003c4	8b 55 f8	 mov	 edx, DWORD PTR _from_node$[ebp]
  003c7	52		 push	 edx
  003c8	e8 00 00 00 00	 call	 ?get_road_sub_route@@YGPAUNODE_LINK_DATA@@HHPAHPAU1@@Z ; get_road_sub_route
  003cd	89 45 f0	 mov	 DWORD PTR _sub_route_node$[ebp], eax

; 1681 : 
; 1682 : 		if (sub_route_node)

  003d0	83 7d f0 00	 cmp	 DWORD PTR _sub_route_node$[ebp], 0
  003d4	0f 84 c8 03 00
	00		 je	 $LN12@response_t

; 1683 : 		{
; 1684 : 			group = get_local_entity_parent (receiver, LIST_TYPE_MEMBER);

  003da	83 7d 0c 00	 cmp	 DWORD PTR _receiver$[ebp], 0
  003de	74 0a		 je	 SHORT $LN41@response_t
  003e0	8b 45 0c	 mov	 eax, DWORD PTR _receiver$[ebp]
  003e3	8b 08		 mov	 ecx, DWORD PTR [eax]
  003e5	89 4d 9c	 mov	 DWORD PTR tv252[ebp], ecx
  003e8	eb 21		 jmp	 SHORT $LN42@response_t
$LN41@response_t:
  003ea	8b 15 00 00 00
	00		 mov	 edx, DWORD PTR ?__LINE__Var@?0??response_to_waypoint_sub_route_navigation_reached@@YGHW4ENTITY_MESSAGES@@PAUENTITY@@1PAD@Z@4JA
  003f0	83 c2 4f	 add	 edx, 79			; 0000004fH
  003f3	52		 push	 edx
  003f4	68 00 00 00 00	 push	 OFFSET ??_C@_0EE@DLIIEJCN@c?3?2users?2nhv90?2projects?2eech?2ap@
  003f9	a1 00 00 00 00	 mov	 eax, DWORD PTR ?null_entity_pointer_message@@3PBDB ; null_entity_pointer_message
  003fe	50		 push	 eax
  003ff	e8 00 00 00 00	 call	 ?process_assert@@YGXPBD0H@Z ; process_assert
  00404	c7 45 9c 00 00
	00 00		 mov	 DWORD PTR tv252[ebp], 0
$LN42@response_t:
  0040b	b9 01 00 00 00	 mov	 ecx, 1
  00410	85 c9		 test	 ecx, ecx
  00412	74 09		 je	 SHORT $LN43@response_t
  00414	c7 45 98 19 00
	00 00		 mov	 DWORD PTR tv260[ebp], 25 ; 00000019H
  0041b	eb 21		 jmp	 SHORT $LN44@response_t
$LN43@response_t:
  0041d	8b 15 00 00 00
	00		 mov	 edx, DWORD PTR ?__LINE__Var@?0??response_to_waypoint_sub_route_navigation_reached@@YGHW4ENTITY_MESSAGES@@PAUENTITY@@1PAD@Z@4JA
  00423	83 c2 4f	 add	 edx, 79			; 0000004fH
  00426	52		 push	 edx
  00427	68 00 00 00 00	 push	 OFFSET ??_C@_0EE@DLIIEJCN@c?3?2users?2nhv90?2projects?2eech?2ap@
  0042c	a1 00 00 00 00	 mov	 eax, DWORD PTR ?overload_invalid_list_type_message@@3PBDB ; overload_invalid_list_type_message
  00431	50		 push	 eax
  00432	e8 00 00 00 00	 call	 ?process_assert@@YGXPBD0H@Z ; process_assert
  00437	c7 45 98 00 00
	00 00		 mov	 DWORD PTR tv260[ebp], 0
$LN44@response_t:
  0043e	6a 19		 push	 25			; 00000019H
  00440	8b 4d 0c	 mov	 ecx, DWORD PTR _receiver$[ebp]
  00443	51		 push	 ecx
  00444	69 55 9c b4 00
	00 00		 imul	 edx, DWORD PTR tv252[ebp], 180
  0044b	8b 45 98	 mov	 eax, DWORD PTR tv260[ebp]
  0044e	8b 8c 82 00 00
	00 00		 mov	 ecx, DWORD PTR ?fn_get_local_entity_parent@@3PAY0CN@P6GPAUENTITY@@PAU1@W4LIST_TYPES@@@ZA[edx+eax*4]
  00455	ff d1		 call	 ecx
  00457	89 45 e8	 mov	 DWORD PTR _group$[ebp], eax

; 1685 : 
; 1686 : 			mb = get_local_entity_first_child (group, LIST_TYPE_MEMBER);

  0045a	83 7d e8 00	 cmp	 DWORD PTR _group$[ebp], 0
  0045e	74 0a		 je	 SHORT $LN45@response_t
  00460	8b 45 e8	 mov	 eax, DWORD PTR _group$[ebp]
  00463	8b 08		 mov	 ecx, DWORD PTR [eax]
  00465	89 4d 9c	 mov	 DWORD PTR tv272[ebp], ecx
  00468	eb 21		 jmp	 SHORT $LN46@response_t
$LN45@response_t:
  0046a	8b 15 00 00 00
	00		 mov	 edx, DWORD PTR ?__LINE__Var@?0??response_to_waypoint_sub_route_navigation_reached@@YGHW4ENTITY_MESSAGES@@PAUENTITY@@1PAD@Z@4JA
  00470	83 c2 51	 add	 edx, 81			; 00000051H
  00473	52		 push	 edx
  00474	68 00 00 00 00	 push	 OFFSET ??_C@_0EE@DLIIEJCN@c?3?2users?2nhv90?2projects?2eech?2ap@
  00479	a1 00 00 00 00	 mov	 eax, DWORD PTR ?null_entity_pointer_message@@3PBDB ; null_entity_pointer_message
  0047e	50		 push	 eax
  0047f	e8 00 00 00 00	 call	 ?process_assert@@YGXPBD0H@Z ; process_assert
  00484	c7 45 9c 00 00
	00 00		 mov	 DWORD PTR tv272[ebp], 0
$LN46@response_t:
  0048b	b9 01 00 00 00	 mov	 ecx, 1
  00490	85 c9		 test	 ecx, ecx
  00492	74 09		 je	 SHORT $LN47@response_t
  00494	c7 45 98 19 00
	00 00		 mov	 DWORD PTR tv280[ebp], 25 ; 00000019H
  0049b	eb 21		 jmp	 SHORT $LN48@response_t
$LN47@response_t:
  0049d	8b 15 00 00 00
	00		 mov	 edx, DWORD PTR ?__LINE__Var@?0??response_to_waypoint_sub_route_navigation_reached@@YGHW4ENTITY_MESSAGES@@PAUENTITY@@1PAD@Z@4JA
  004a3	83 c2 51	 add	 edx, 81			; 00000051H
  004a6	52		 push	 edx
  004a7	68 00 00 00 00	 push	 OFFSET ??_C@_0EE@DLIIEJCN@c?3?2users?2nhv90?2projects?2eech?2ap@
  004ac	a1 00 00 00 00	 mov	 eax, DWORD PTR ?overload_invalid_list_type_message@@3PBDB ; overload_invalid_list_type_message
  004b1	50		 push	 eax
  004b2	e8 00 00 00 00	 call	 ?process_assert@@YGXPBD0H@Z ; process_assert
  004b7	c7 45 98 00 00
	00 00		 mov	 DWORD PTR tv280[ebp], 0
$LN48@response_t:
  004be	6a 19		 push	 25			; 00000019H
  004c0	8b 4d e8	 mov	 ecx, DWORD PTR _group$[ebp]
  004c3	51		 push	 ecx
  004c4	69 55 9c b4 00
	00 00		 imul	 edx, DWORD PTR tv272[ebp], 180
  004cb	8b 45 98	 mov	 eax, DWORD PTR tv280[ebp]
  004ce	8b 8c 82 00 00
	00 00		 mov	 ecx, DWORD PTR ?fn_get_local_entity_first_child@@3PAY0CN@P6GPAUENTITY@@PAU1@W4LIST_TYPES@@@ZA[edx+eax*4]
  004d5	ff d1		 call	 ecx
  004d7	89 45 ec	 mov	 DWORD PTR _mb$[ebp], eax
$LN2@response_t:

; 1687 : 
; 1688 : 			while (mb)

  004da	83 7d ec 00	 cmp	 DWORD PTR _mb$[ebp], 0
  004de	0f 84 26 02 00
	00		 je	 $LN3@response_t

; 1689 : 			{
; 1690 : 
; 1691 : 				routed_vehicle
; 1692 : 					*raw;
; 1693 : 
; 1694 : 				raw = (routed_vehicle *) get_local_entity_data (mb);

  004e4	8b 45 ec	 mov	 eax, DWORD PTR _mb$[ebp]
  004e7	8b 48 04	 mov	 ecx, DWORD PTR [eax+4]
  004ea	89 4d e0	 mov	 DWORD PTR _raw$1[ebp], ecx

; 1695 : 
; 1696 : 				set_local_entity_int_value (mb, INT_TYPE_WAYPOINT_NEXT_INDEX, to_node);

  004ed	83 7d ec 00	 cmp	 DWORD PTR _mb$[ebp], 0
  004f1	74 0a		 je	 SHORT $LN49@response_t
  004f3	8b 45 ec	 mov	 eax, DWORD PTR _mb$[ebp]
  004f6	8b 08		 mov	 ecx, DWORD PTR [eax]
  004f8	89 4d 9c	 mov	 DWORD PTR tv294[ebp], ecx
  004fb	eb 21		 jmp	 SHORT $LN50@response_t
$LN49@response_t:
  004fd	8b 15 00 00 00
	00		 mov	 edx, DWORD PTR ?__LINE__Var@?0??response_to_waypoint_sub_route_navigation_reached@@YGHW4ENTITY_MESSAGES@@PAUENTITY@@1PAD@Z@4JA
  00503	83 c2 5b	 add	 edx, 91			; 0000005bH
  00506	52		 push	 edx
  00507	68 00 00 00 00	 push	 OFFSET ??_C@_0EE@DLIIEJCN@c?3?2users?2nhv90?2projects?2eech?2ap@
  0050c	a1 00 00 00 00	 mov	 eax, DWORD PTR ?null_entity_pointer_message@@3PBDB ; null_entity_pointer_message
  00511	50		 push	 eax
  00512	e8 00 00 00 00	 call	 ?process_assert@@YGXPBD0H@Z ; process_assert
  00517	c7 45 9c 00 00
	00 00		 mov	 DWORD PTR tv294[ebp], 0
$LN50@response_t:
  0051e	b9 01 00 00 00	 mov	 ecx, 1
  00523	85 c9		 test	 ecx, ecx
  00525	74 09		 je	 SHORT $LN51@response_t
  00527	c7 45 98 00 01
	00 00		 mov	 DWORD PTR tv302[ebp], 256 ; 00000100H
  0052e	eb 21		 jmp	 SHORT $LN52@response_t
$LN51@response_t:
  00530	8b 15 00 00 00
	00		 mov	 edx, DWORD PTR ?__LINE__Var@?0??response_to_waypoint_sub_route_navigation_reached@@YGHW4ENTITY_MESSAGES@@PAUENTITY@@1PAD@Z@4JA
  00536	83 c2 5b	 add	 edx, 91			; 0000005bH
  00539	52		 push	 edx
  0053a	68 00 00 00 00	 push	 OFFSET ??_C@_0EE@DLIIEJCN@c?3?2users?2nhv90?2projects?2eech?2ap@
  0053f	a1 00 00 00 00	 mov	 eax, DWORD PTR ?overload_invalid_int_type_message@@3PBDB ; overload_invalid_int_type_message
  00544	50		 push	 eax
  00545	e8 00 00 00 00	 call	 ?process_assert@@YGXPBD0H@Z ; process_assert
  0054a	c7 45 98 00 00
	00 00		 mov	 DWORD PTR tv302[ebp], 0
$LN52@response_t:
  00551	8b 4d f4	 mov	 ecx, DWORD PTR _to_node$[ebp]
  00554	51		 push	 ecx
  00555	68 00 01 00 00	 push	 256			; 00000100H
  0055a	8b 55 ec	 mov	 edx, DWORD PTR _mb$[ebp]
  0055d	52		 push	 edx
  0055e	69 45 9c 5c 04
	00 00		 imul	 eax, DWORD PTR tv294[ebp], 1116
  00565	8b 4d 98	 mov	 ecx, DWORD PTR tv302[ebp]
  00568	8b 94 88 00 00
	00 00		 mov	 edx, DWORD PTR ?fn_set_local_entity_int_value@@3PAY0BBH@P6GXPAUENTITY@@W4INT_TYPES@@H@ZA[eax+ecx*4]
  0056f	ff d2		 call	 edx

; 1697 : 				set_local_entity_int_value (mb, INT_TYPE_WAYPOINT_THIS_INDEX, from_node);

  00571	83 7d ec 00	 cmp	 DWORD PTR _mb$[ebp], 0
  00575	74 0a		 je	 SHORT $LN53@response_t
  00577	8b 45 ec	 mov	 eax, DWORD PTR _mb$[ebp]
  0057a	8b 08		 mov	 ecx, DWORD PTR [eax]
  0057c	89 4d 9c	 mov	 DWORD PTR tv314[ebp], ecx
  0057f	eb 21		 jmp	 SHORT $LN54@response_t
$LN53@response_t:
  00581	8b 15 00 00 00
	00		 mov	 edx, DWORD PTR ?__LINE__Var@?0??response_to_waypoint_sub_route_navigation_reached@@YGHW4ENTITY_MESSAGES@@PAUENTITY@@1PAD@Z@4JA
  00587	83 c2 5c	 add	 edx, 92			; 0000005cH
  0058a	52		 push	 edx
  0058b	68 00 00 00 00	 push	 OFFSET ??_C@_0EE@DLIIEJCN@c?3?2users?2nhv90?2projects?2eech?2ap@
  00590	a1 00 00 00 00	 mov	 eax, DWORD PTR ?null_entity_pointer_message@@3PBDB ; null_entity_pointer_message
  00595	50		 push	 eax
  00596	e8 00 00 00 00	 call	 ?process_assert@@YGXPBD0H@Z ; process_assert
  0059b	c7 45 9c 00 00
	00 00		 mov	 DWORD PTR tv314[ebp], 0
$LN54@response_t:
  005a2	b9 01 00 00 00	 mov	 ecx, 1
  005a7	85 c9		 test	 ecx, ecx
  005a9	74 09		 je	 SHORT $LN55@response_t
  005ab	c7 45 98 01 01
	00 00		 mov	 DWORD PTR tv322[ebp], 257 ; 00000101H
  005b2	eb 21		 jmp	 SHORT $LN56@response_t
$LN55@response_t:
  005b4	8b 15 00 00 00
	00		 mov	 edx, DWORD PTR ?__LINE__Var@?0??response_to_waypoint_sub_route_navigation_reached@@YGHW4ENTITY_MESSAGES@@PAUENTITY@@1PAD@Z@4JA
  005ba	83 c2 5c	 add	 edx, 92			; 0000005cH
  005bd	52		 push	 edx
  005be	68 00 00 00 00	 push	 OFFSET ??_C@_0EE@DLIIEJCN@c?3?2users?2nhv90?2projects?2eech?2ap@
  005c3	a1 00 00 00 00	 mov	 eax, DWORD PTR ?overload_invalid_int_type_message@@3PBDB ; overload_invalid_int_type_message
  005c8	50		 push	 eax
  005c9	e8 00 00 00 00	 call	 ?process_assert@@YGXPBD0H@Z ; process_assert
  005ce	c7 45 98 00 00
	00 00		 mov	 DWORD PTR tv322[ebp], 0
$LN56@response_t:
  005d5	8b 4d f8	 mov	 ecx, DWORD PTR _from_node$[ebp]
  005d8	51		 push	 ecx
  005d9	68 01 01 00 00	 push	 257			; 00000101H
  005de	8b 55 ec	 mov	 edx, DWORD PTR _mb$[ebp]
  005e1	52		 push	 edx
  005e2	69 45 9c 5c 04
	00 00		 imul	 eax, DWORD PTR tv314[ebp], 1116
  005e9	8b 4d 98	 mov	 ecx, DWORD PTR tv322[ebp]
  005ec	8b 94 88 00 00
	00 00		 mov	 edx, DWORD PTR ?fn_set_local_entity_int_value@@3PAY0BBH@P6GXPAUENTITY@@W4INT_TYPES@@H@ZA[eax+ecx*4]
  005f3	ff d2		 call	 edx

; 1698 : 				set_local_entity_int_value (mb, INT_TYPE_SUB_WAYPOINT_COUNT, count);

  005f5	83 7d ec 00	 cmp	 DWORD PTR _mb$[ebp], 0
  005f9	74 0a		 je	 SHORT $LN57@response_t
  005fb	8b 45 ec	 mov	 eax, DWORD PTR _mb$[ebp]
  005fe	8b 08		 mov	 ecx, DWORD PTR [eax]
  00600	89 4d 9c	 mov	 DWORD PTR tv334[ebp], ecx
  00603	eb 21		 jmp	 SHORT $LN58@response_t
$LN57@response_t:
  00605	8b 15 00 00 00
	00		 mov	 edx, DWORD PTR ?__LINE__Var@?0??response_to_waypoint_sub_route_navigation_reached@@YGHW4ENTITY_MESSAGES@@PAUENTITY@@1PAD@Z@4JA
  0060b	83 c2 5d	 add	 edx, 93			; 0000005dH
  0060e	52		 push	 edx
  0060f	68 00 00 00 00	 push	 OFFSET ??_C@_0EE@DLIIEJCN@c?3?2users?2nhv90?2projects?2eech?2ap@
  00614	a1 00 00 00 00	 mov	 eax, DWORD PTR ?null_entity_pointer_message@@3PBDB ; null_entity_pointer_message
  00619	50		 push	 eax
  0061a	e8 00 00 00 00	 call	 ?process_assert@@YGXPBD0H@Z ; process_assert
  0061f	c7 45 9c 00 00
	00 00		 mov	 DWORD PTR tv334[ebp], 0
$LN58@response_t:
  00626	b9 01 00 00 00	 mov	 ecx, 1
  0062b	85 c9		 test	 ecx, ecx
  0062d	74 09		 je	 SHORT $LN59@response_t
  0062f	c7 45 98 cf 00
	00 00		 mov	 DWORD PTR tv342[ebp], 207 ; 000000cfH
  00636	eb 21		 jmp	 SHORT $LN60@response_t
$LN59@response_t:
  00638	8b 15 00 00 00
	00		 mov	 edx, DWORD PTR ?__LINE__Var@?0??response_to_waypoint_sub_route_navigation_reached@@YGHW4ENTITY_MESSAGES@@PAUENTITY@@1PAD@Z@4JA
  0063e	83 c2 5d	 add	 edx, 93			; 0000005dH
  00641	52		 push	 edx
  00642	68 00 00 00 00	 push	 OFFSET ??_C@_0EE@DLIIEJCN@c?3?2users?2nhv90?2projects?2eech?2ap@
  00647	a1 00 00 00 00	 mov	 eax, DWORD PTR ?overload_invalid_int_type_message@@3PBDB ; overload_invalid_int_type_message
  0064c	50		 push	 eax
  0064d	e8 00 00 00 00	 call	 ?process_assert@@YGXPBD0H@Z ; process_assert
  00652	c7 45 98 00 00
	00 00		 mov	 DWORD PTR tv342[ebp], 0
$LN60@response_t:
  00659	8b 4d fc	 mov	 ecx, DWORD PTR _count$[ebp]
  0065c	51		 push	 ecx
  0065d	68 cf 00 00 00	 push	 207			; 000000cfH
  00662	8b 55 ec	 mov	 edx, DWORD PTR _mb$[ebp]
  00665	52		 push	 edx
  00666	69 45 9c 5c 04
	00 00		 imul	 eax, DWORD PTR tv334[ebp], 1116
  0066d	8b 4d 98	 mov	 ecx, DWORD PTR tv342[ebp]
  00670	8b 94 88 00 00
	00 00		 mov	 edx, DWORD PTR ?fn_set_local_entity_int_value@@3PAY0BBH@P6GXPAUENTITY@@W4INT_TYPES@@H@ZA[eax+ecx*4]
  00677	ff d2		 call	 edx

; 1699 : 				raw->sub_route = sub_route_node;

  00679	8b 45 e0	 mov	 eax, DWORD PTR _raw$1[ebp]
  0067c	8b 4d f0	 mov	 ecx, DWORD PTR _sub_route_node$[ebp]
  0067f	89 88 80 01 00
	00		 mov	 DWORD PTR [eax+384], ecx

; 1700 : 
; 1701 : 				#if DEBUG_MODULE
; 1702 : 
; 1703 : 				debug_log ("MB_MSGS: SET-UP sub_route for leader entity %s, %d between %d and %d",
; 1704 : 						get_local_entity_string (mb, STRING_TYPE_FULL_NAME),
; 1705 : 						get_local_entity_index (mb),
; 1706 : 						from_node,
; 1707 : 						to_node);
; 1708 : 
; 1709 : 				#endif
; 1710 : 
; 1711 : 				mb = get_local_entity_child_succ (mb, LIST_TYPE_MEMBER);

  00685	83 7d ec 00	 cmp	 DWORD PTR _mb$[ebp], 0
  00689	74 0a		 je	 SHORT $LN61@response_t
  0068b	8b 45 ec	 mov	 eax, DWORD PTR _mb$[ebp]
  0068e	8b 08		 mov	 ecx, DWORD PTR [eax]
  00690	89 4d 9c	 mov	 DWORD PTR tv355[ebp], ecx
  00693	eb 21		 jmp	 SHORT $LN62@response_t
$LN61@response_t:
  00695	8b 15 00 00 00
	00		 mov	 edx, DWORD PTR ?__LINE__Var@?0??response_to_waypoint_sub_route_navigation_reached@@YGHW4ENTITY_MESSAGES@@PAUENTITY@@1PAD@Z@4JA
  0069b	83 c2 6a	 add	 edx, 106		; 0000006aH
  0069e	52		 push	 edx
  0069f	68 00 00 00 00	 push	 OFFSET ??_C@_0EE@DLIIEJCN@c?3?2users?2nhv90?2projects?2eech?2ap@
  006a4	a1 00 00 00 00	 mov	 eax, DWORD PTR ?null_entity_pointer_message@@3PBDB ; null_entity_pointer_message
  006a9	50		 push	 eax
  006aa	e8 00 00 00 00	 call	 ?process_assert@@YGXPBD0H@Z ; process_assert
  006af	c7 45 9c 00 00
	00 00		 mov	 DWORD PTR tv355[ebp], 0
$LN62@response_t:
  006b6	b9 01 00 00 00	 mov	 ecx, 1
  006bb	85 c9		 test	 ecx, ecx
  006bd	74 09		 je	 SHORT $LN63@response_t
  006bf	c7 45 98 19 00
	00 00		 mov	 DWORD PTR tv363[ebp], 25 ; 00000019H
  006c6	eb 21		 jmp	 SHORT $LN64@response_t
$LN63@response_t:
  006c8	8b 15 00 00 00
	00		 mov	 edx, DWORD PTR ?__LINE__Var@?0??response_to_waypoint_sub_route_navigation_reached@@YGHW4ENTITY_MESSAGES@@PAUENTITY@@1PAD@Z@4JA
  006ce	83 c2 6a	 add	 edx, 106		; 0000006aH
  006d1	52		 push	 edx
  006d2	68 00 00 00 00	 push	 OFFSET ??_C@_0EE@DLIIEJCN@c?3?2users?2nhv90?2projects?2eech?2ap@
  006d7	a1 00 00 00 00	 mov	 eax, DWORD PTR ?overload_invalid_list_type_message@@3PBDB ; overload_invalid_list_type_message
  006dc	50		 push	 eax
  006dd	e8 00 00 00 00	 call	 ?process_assert@@YGXPBD0H@Z ; process_assert
  006e2	c7 45 98 00 00
	00 00		 mov	 DWORD PTR tv363[ebp], 0
$LN64@response_t:
  006e9	6a 19		 push	 25			; 00000019H
  006eb	8b 4d ec	 mov	 ecx, DWORD PTR _mb$[ebp]
  006ee	51		 push	 ecx
  006ef	69 55 9c b4 00
	00 00		 imul	 edx, DWORD PTR tv355[ebp], 180
  006f6	8b 45 98	 mov	 eax, DWORD PTR tv363[ebp]
  006f9	8b 8c 82 00 00
	00 00		 mov	 ecx, DWORD PTR ?fn_get_local_entity_child_succ@@3PAY0CN@P6GPAUENTITY@@PAU1@W4LIST_TYPES@@@ZA[edx+eax*4]
  00700	ff d1		 call	 ecx
  00702	89 45 ec	 mov	 DWORD PTR _mb$[ebp], eax

; 1712 : 			}

  00705	e9 d0 fd ff ff	 jmp	 $LN2@response_t
$LN3@response_t:

; 1713 : 
; 1714 : 			mb = get_local_entity_first_child (group, LIST_TYPE_MEMBER);

  0070a	83 7d e8 00	 cmp	 DWORD PTR _group$[ebp], 0
  0070e	74 0a		 je	 SHORT $LN65@response_t
  00710	8b 45 e8	 mov	 eax, DWORD PTR _group$[ebp]
  00713	8b 08		 mov	 ecx, DWORD PTR [eax]
  00715	89 4d 9c	 mov	 DWORD PTR tv375[ebp], ecx
  00718	eb 21		 jmp	 SHORT $LN66@response_t
$LN65@response_t:
  0071a	8b 15 00 00 00
	00		 mov	 edx, DWORD PTR ?__LINE__Var@?0??response_to_waypoint_sub_route_navigation_reached@@YGHW4ENTITY_MESSAGES@@PAUENTITY@@1PAD@Z@4JA
  00720	83 c2 6d	 add	 edx, 109		; 0000006dH
  00723	52		 push	 edx
  00724	68 00 00 00 00	 push	 OFFSET ??_C@_0EE@DLIIEJCN@c?3?2users?2nhv90?2projects?2eech?2ap@
  00729	a1 00 00 00 00	 mov	 eax, DWORD PTR ?null_entity_pointer_message@@3PBDB ; null_entity_pointer_message
  0072e	50		 push	 eax
  0072f	e8 00 00 00 00	 call	 ?process_assert@@YGXPBD0H@Z ; process_assert
  00734	c7 45 9c 00 00
	00 00		 mov	 DWORD PTR tv375[ebp], 0
$LN66@response_t:
  0073b	b9 01 00 00 00	 mov	 ecx, 1
  00740	85 c9		 test	 ecx, ecx
  00742	74 09		 je	 SHORT $LN67@response_t
  00744	c7 45 98 19 00
	00 00		 mov	 DWORD PTR tv383[ebp], 25 ; 00000019H
  0074b	eb 21		 jmp	 SHORT $LN68@response_t
$LN67@response_t:
  0074d	8b 15 00 00 00
	00		 mov	 edx, DWORD PTR ?__LINE__Var@?0??response_to_waypoint_sub_route_navigation_reached@@YGHW4ENTITY_MESSAGES@@PAUENTITY@@1PAD@Z@4JA
  00753	83 c2 6d	 add	 edx, 109		; 0000006dH
  00756	52		 push	 edx
  00757	68 00 00 00 00	 push	 OFFSET ??_C@_0EE@DLIIEJCN@c?3?2users?2nhv90?2projects?2eech?2ap@
  0075c	a1 00 00 00 00	 mov	 eax, DWORD PTR ?overload_invalid_list_type_message@@3PBDB ; overload_invalid_list_type_message
  00761	50		 push	 eax
  00762	e8 00 00 00 00	 call	 ?process_assert@@YGXPBD0H@Z ; process_assert
  00767	c7 45 98 00 00
	00 00		 mov	 DWORD PTR tv383[ebp], 0
$LN68@response_t:
  0076e	6a 19		 push	 25			; 00000019H
  00770	8b 4d e8	 mov	 ecx, DWORD PTR _group$[ebp]
  00773	51		 push	 ecx
  00774	69 55 9c b4 00
	00 00		 imul	 edx, DWORD PTR tv375[ebp], 180
  0077b	8b 45 98	 mov	 eax, DWORD PTR tv383[ebp]
  0077e	8b 8c 82 00 00
	00 00		 mov	 ecx, DWORD PTR ?fn_get_local_entity_first_child@@3PAY0CN@P6GPAUENTITY@@PAU1@W4LIST_TYPES@@@ZA[edx+eax*4]
  00785	ff d1		 call	 ecx
  00787	89 45 ec	 mov	 DWORD PTR _mb$[ebp], eax

; 1715 : 
; 1716 : 			transmit_entity_comms_message (ENTITY_COMMS_ROUTED_VEHICLE_ROUTE_DATA, mb, from_node, to_node);

  0078a	8b 45 f4	 mov	 eax, DWORD PTR _to_node$[ebp]
  0078d	50		 push	 eax
  0078e	8b 4d f8	 mov	 ecx, DWORD PTR _from_node$[ebp]
  00791	51		 push	 ecx
  00792	8b 55 ec	 mov	 edx, DWORD PTR _mb$[ebp]
  00795	52		 push	 edx
  00796	6a 2f		 push	 47			; 0000002fH
  00798	e8 00 00 00 00	 call	 ?transmit_entity_comms_message@@YAXW4ENTITY_COMMS_MESSAGES@@PAUENTITY@@ZZ ; transmit_entity_comms_message
  0079d	83 c4 10	 add	 esp, 16			; 00000010H

; 1717 : 		}
; 1718 : 		else

  007a0	eb 15		 jmp	 SHORT $LN11@response_t
$LN12@response_t:

; 1719 : 		{
; 1720 : 
; 1721 : 			debug_log ("MB_MSGS: ERROR, no route found betweek road nodes %d and %d.", from_node, to_node);

  007a2	8b 45 f4	 mov	 eax, DWORD PTR _to_node$[ebp]
  007a5	50		 push	 eax
  007a6	8b 4d f8	 mov	 ecx, DWORD PTR _from_node$[ebp]
  007a9	51		 push	 ecx
  007aa	68 00 00 00 00	 push	 OFFSET ??_C@_0DN@JGLIDAKP@MB_MSGS?3?5ERROR?0?5no?5route?5found?5@
  007af	e8 00 00 00 00	 call	 ?debug_log@@YAXPBDZZ	; debug_log
  007b4	83 c4 0c	 add	 esp, 12			; 0000000cH
$LN11@response_t:

; 1722 : 		}
; 1723 : 	}
; 1724 : 
; 1725 : 	return (TRUE);

  007b7	b8 01 00 00 00	 mov	 eax, 1

; 1726 : }

  007bc	5f		 pop	 edi
  007bd	5e		 pop	 esi
  007be	5b		 pop	 ebx
  007bf	8b e5		 mov	 esp, ebp
  007c1	5d		 pop	 ebp
  007c2	c2 10 00	 ret	 16			; 00000010H
?response_to_waypoint_sub_route_navigation_reached@@YGHW4ENTITY_MESSAGES@@PAUENTITY@@1PAD@Z ENDP ; response_to_waypoint_sub_route_navigation_reached
_TEXT	ENDS
; Function compile flags: /Odtp /ZI
; File c:\users\nhv90\projects\eech\aphavoc\source\entity\mobile\mb_msgs.c
;	COMDAT ?response_to_waypoint_navigation_reached@@YGHW4ENTITY_MESSAGES@@PAUENTITY@@1PAD@Z
_TEXT	SEGMENT
tv132 = -72						; size = 4
tv92 = -68						; size = 4
tv75 = -68						; size = 4
_message$ = 8						; size = 4
_receiver$ = 12						; size = 4
_sender$ = 16						; size = 4
_pargs$ = 20						; size = 4
?response_to_waypoint_navigation_reached@@YGHW4ENTITY_MESSAGES@@PAUENTITY@@1PAD@Z PROC ; response_to_waypoint_navigation_reached, COMDAT

; 1571 : {

  00000	55		 push	 ebp
  00001	8b ec		 mov	 ebp, esp
  00003	83 ec 48	 sub	 esp, 72			; 00000048H
  00006	53		 push	 ebx
  00007	56		 push	 esi
  00008	57		 push	 edi

; 1572 : 	ASSERT (sender);

  00009	83 7d 10 00	 cmp	 DWORD PTR _sender$[ebp], 0
  0000d	75 18		 jne	 SHORT $LN2@response_t
  0000f	a1 00 00 00 00	 mov	 eax, DWORD PTR ?__LINE__Var@?0??response_to_waypoint_navigation_reached@@YGHW4ENTITY_MESSAGES@@PAUENTITY@@1PAD@Z@4JA
  00014	83 c0 01	 add	 eax, 1
  00017	50		 push	 eax
  00018	68 00 00 00 00	 push	 OFFSET ??_C@_0EE@DLIIEJCN@c?3?2users?2nhv90?2projects?2eech?2ap@
  0001d	68 00 00 00 00	 push	 OFFSET ??_C@_06CGHJMPBJ@sender@
  00022	e8 00 00 00 00	 call	 ?process_assert@@YGXPBD0H@Z ; process_assert
$LN2@response_t:

; 1573 : 
; 1574 : 	ASSERT (get_local_entity_type (sender) == ENTITY_TYPE_WAYPOINT);

  00027	83 7d 10 00	 cmp	 DWORD PTR _sender$[ebp], 0
  0002b	74 0a		 je	 SHORT $LN6@response_t
  0002d	8b 45 10	 mov	 eax, DWORD PTR _sender$[ebp]
  00030	8b 08		 mov	 ecx, DWORD PTR [eax]
  00032	89 4d bc	 mov	 DWORD PTR tv75[ebp], ecx
  00035	eb 21		 jmp	 SHORT $LN7@response_t
$LN6@response_t:
  00037	8b 15 00 00 00
	00		 mov	 edx, DWORD PTR ?__LINE__Var@?0??response_to_waypoint_navigation_reached@@YGHW4ENTITY_MESSAGES@@PAUENTITY@@1PAD@Z@4JA
  0003d	83 c2 03	 add	 edx, 3
  00040	52		 push	 edx
  00041	68 00 00 00 00	 push	 OFFSET ??_C@_0EE@DLIIEJCN@c?3?2users?2nhv90?2projects?2eech?2ap@
  00046	a1 00 00 00 00	 mov	 eax, DWORD PTR ?null_entity_pointer_message@@3PBDB ; null_entity_pointer_message
  0004b	50		 push	 eax
  0004c	e8 00 00 00 00	 call	 ?process_assert@@YGXPBD0H@Z ; process_assert
  00051	c7 45 bc 00 00
	00 00		 mov	 DWORD PTR tv75[ebp], 0
$LN7@response_t:
  00058	83 7d bc 24	 cmp	 DWORD PTR tv75[ebp], 36	; 00000024H
  0005c	74 18		 je	 SHORT $LN3@response_t
  0005e	a1 00 00 00 00	 mov	 eax, DWORD PTR ?__LINE__Var@?0??response_to_waypoint_navigation_reached@@YGHW4ENTITY_MESSAGES@@PAUENTITY@@1PAD@Z@4JA
  00063	83 c0 03	 add	 eax, 3
  00066	50		 push	 eax
  00067	68 00 00 00 00	 push	 OFFSET ??_C@_0EE@DLIIEJCN@c?3?2users?2nhv90?2projects?2eech?2ap@
  0006c	68 00 00 00 00	 push	 OFFSET ??_C@_0DH@NBKEDIK@get_local_entity_type?5?$CIsender?$CJ?5@
  00071	e8 00 00 00 00	 call	 ?process_assert@@YGXPBD0H@Z ; process_assert
$LN3@response_t:

; 1575 : 
; 1576 : 	ASSERT (get_comms_model () == COMMS_MODEL_SERVER);

  00076	83 3d 00 00 00
	00 00		 cmp	 DWORD PTR ?system_comms_model@@3W4COMMS_MODEL_TYPES@@A, 0 ; system_comms_model
  0007d	74 18		 je	 SHORT $LN4@response_t
  0007f	a1 00 00 00 00	 mov	 eax, DWORD PTR ?__LINE__Var@?0??response_to_waypoint_navigation_reached@@YGHW4ENTITY_MESSAGES@@PAUENTITY@@1PAD@Z@4JA
  00084	83 c0 05	 add	 eax, 5
  00087	50		 push	 eax
  00088	68 00 00 00 00	 push	 OFFSET ??_C@_0EE@DLIIEJCN@c?3?2users?2nhv90?2projects?2eech?2ap@
  0008d	68 00 00 00 00	 push	 OFFSET ??_C@_0CJ@DMBLBJBK@get_comms_model?5?$CI?$CJ?5?$DN?$DN?5COMMS_MOD@
  00092	e8 00 00 00 00	 call	 ?process_assert@@YGXPBD0H@Z ; process_assert
$LN4@response_t:

; 1577 : 
; 1578 : 	#if DEBUG_MODULE >= 2
; 1579 : 
; 1580 : 	debug_log_entity_message (message, receiver, sender, pargs);
; 1581 : 
; 1582 : 	#endif
; 1583 : 
; 1584 : 	set_local_entity_float_value (receiver, FLOAT_TYPE_VIEW_INTEREST_LEVEL, DEFAULT_VIEW_INTEREST_LEVEL);

  00097	83 7d 0c 00	 cmp	 DWORD PTR _receiver$[ebp], 0
  0009b	74 0a		 je	 SHORT $LN8@response_t
  0009d	8b 45 0c	 mov	 eax, DWORD PTR _receiver$[ebp]
  000a0	8b 08		 mov	 ecx, DWORD PTR [eax]
  000a2	89 4d bc	 mov	 DWORD PTR tv92[ebp], ecx
  000a5	eb 21		 jmp	 SHORT $LN9@response_t
$LN8@response_t:
  000a7	8b 15 00 00 00
	00		 mov	 edx, DWORD PTR ?__LINE__Var@?0??response_to_waypoint_navigation_reached@@YGHW4ENTITY_MESSAGES@@PAUENTITY@@1PAD@Z@4JA
  000ad	83 c2 0d	 add	 edx, 13			; 0000000dH
  000b0	52		 push	 edx
  000b1	68 00 00 00 00	 push	 OFFSET ??_C@_0EE@DLIIEJCN@c?3?2users?2nhv90?2projects?2eech?2ap@
  000b6	a1 00 00 00 00	 mov	 eax, DWORD PTR ?null_entity_pointer_message@@3PBDB ; null_entity_pointer_message
  000bb	50		 push	 eax
  000bc	e8 00 00 00 00	 call	 ?process_assert@@YGXPBD0H@Z ; process_assert
  000c1	c7 45 bc 00 00
	00 00		 mov	 DWORD PTR tv92[ebp], 0
$LN9@response_t:
  000c8	b9 01 00 00 00	 mov	 ecx, 1
  000cd	85 c9		 test	 ecx, ecx
  000cf	74 09		 je	 SHORT $LN10@response_t
  000d1	c7 45 b8 95 00
	00 00		 mov	 DWORD PTR tv132[ebp], 149 ; 00000095H
  000d8	eb 21		 jmp	 SHORT $LN11@response_t
$LN10@response_t:
  000da	8b 15 00 00 00
	00		 mov	 edx, DWORD PTR ?__LINE__Var@?0??response_to_waypoint_navigation_reached@@YGHW4ENTITY_MESSAGES@@PAUENTITY@@1PAD@Z@4JA
  000e0	83 c2 0d	 add	 edx, 13			; 0000000dH
  000e3	52		 push	 edx
  000e4	68 00 00 00 00	 push	 OFFSET ??_C@_0EE@DLIIEJCN@c?3?2users?2nhv90?2projects?2eech?2ap@
  000e9	a1 00 00 00 00	 mov	 eax, DWORD PTR ?overload_invalid_float_type_message@@3PBDB ; overload_invalid_float_type_message
  000ee	50		 push	 eax
  000ef	e8 00 00 00 00	 call	 ?process_assert@@YGXPBD0H@Z ; process_assert
  000f4	c7 45 b8 00 00
	00 00		 mov	 DWORD PTR tv132[ebp], 0
$LN11@response_t:
  000fb	51		 push	 ecx
  000fc	f3 0f 10 05 00
	00 00 00	 movss	 xmm0, DWORD PTR __real@40a00000
  00104	f3 0f 11 04 24	 movss	 DWORD PTR [esp], xmm0
  00109	68 95 00 00 00	 push	 149			; 00000095H
  0010e	8b 4d 0c	 mov	 ecx, DWORD PTR _receiver$[ebp]
  00111	51		 push	 ecx
  00112	69 55 bc bc 02
	00 00		 imul	 edx, DWORD PTR tv92[ebp], 700
  00119	8b 45 b8	 mov	 eax, DWORD PTR tv132[ebp]
  0011c	8b 8c 82 00 00
	00 00		 mov	 ecx, DWORD PTR ?fn_set_local_entity_float_value@@3PAY0KP@P6GXPAUENTITY@@W4FLOAT_TYPES@@M@ZA[edx+eax*4]
  00123	ff d1		 call	 ecx

; 1585 : 
; 1586 : 	/////////////////////////////////////////////////////////////////
; 1587 : 	//
; 1588 : 	// SPECIAL_EFFECT_HOOK FOR WAYPOINT REACHED
; 1589 : 	//
; 1590 : 	/////////////////////////////////////////////////////////////////
; 1591 : 
; 1592 : 	/////////////////////////////////////////////////////////////////
; 1593 : 	//
; 1594 : 	//
; 1595 : 	/////////////////////////////////////////////////////////////////
; 1596 : 
; 1597 : 	return (TRUE);

  00125	b8 01 00 00 00	 mov	 eax, 1

; 1598 : }

  0012a	5f		 pop	 edi
  0012b	5e		 pop	 esi
  0012c	5b		 pop	 ebx
  0012d	8b e5		 mov	 esp, ebp
  0012f	5d		 pop	 ebp
  00130	c2 10 00	 ret	 16			; 00000010H
?response_to_waypoint_navigation_reached@@YGHW4ENTITY_MESSAGES@@PAUENTITY@@1PAD@Z ENDP ; response_to_waypoint_navigation_reached
_TEXT	ENDS
; Function compile flags: /Odtp /ZI
; File c:\users\nhv90\projects\eech\aphavoc\source\entity\mobile\mb_msgs.c
;	COMDAT ?response_to_waypoint_loop_reached@@YGHW4ENTITY_MESSAGES@@PAUENTITY@@1PAD@Z
_TEXT	SEGMENT
tv192 = -84						; size = 4
tv172 = -84						; size = 4
tv150 = -84						; size = 4
tv132 = -84						; size = 4
tv184 = -80						; size = 4
tv164 = -80						; size = 4
tv143 = -80						; size = 4
tv92 = -80						; size = 4
tv75 = -80						; size = 4
_guide$ = -12						; size = 4
_task$ = -8						; size = 4
_wp$ = -4						; size = 4
_message$ = 8						; size = 4
_receiver$ = 12						; size = 4
_sender$ = 16						; size = 4
_pargs$ = 20						; size = 4
?response_to_waypoint_loop_reached@@YGHW4ENTITY_MESSAGES@@PAUENTITY@@1PAD@Z PROC ; response_to_waypoint_loop_reached, COMDAT

; 1522 : {

  00000	55		 push	 ebp
  00001	8b ec		 mov	 ebp, esp
  00003	83 ec 54	 sub	 esp, 84			; 00000054H
  00006	53		 push	 ebx
  00007	56		 push	 esi
  00008	57		 push	 edi

; 1523 : 	entity
; 1524 : 		*wp,
; 1525 : 		*task,
; 1526 : 		*guide;
; 1527 : 
; 1528 : 	ASSERT (sender);

  00009	83 7d 10 00	 cmp	 DWORD PTR _sender$[ebp], 0
  0000d	75 18		 jne	 SHORT $LN2@response_t
  0000f	a1 00 00 00 00	 mov	 eax, DWORD PTR ?__LINE__Var@?0??response_to_waypoint_loop_reached@@YGHW4ENTITY_MESSAGES@@PAUENTITY@@1PAD@Z@4JA
  00014	83 c0 06	 add	 eax, 6
  00017	50		 push	 eax
  00018	68 00 00 00 00	 push	 OFFSET ??_C@_0EE@DLIIEJCN@c?3?2users?2nhv90?2projects?2eech?2ap@
  0001d	68 00 00 00 00	 push	 OFFSET ??_C@_06CGHJMPBJ@sender@
  00022	e8 00 00 00 00	 call	 ?process_assert@@YGXPBD0H@Z ; process_assert
$LN2@response_t:

; 1529 : 
; 1530 : 	ASSERT (get_local_entity_type (sender) == ENTITY_TYPE_WAYPOINT);

  00027	83 7d 10 00	 cmp	 DWORD PTR _sender$[ebp], 0
  0002b	74 0a		 je	 SHORT $LN8@response_t
  0002d	8b 45 10	 mov	 eax, DWORD PTR _sender$[ebp]
  00030	8b 08		 mov	 ecx, DWORD PTR [eax]
  00032	89 4d b0	 mov	 DWORD PTR tv75[ebp], ecx
  00035	eb 21		 jmp	 SHORT $LN9@response_t
$LN8@response_t:
  00037	8b 15 00 00 00
	00		 mov	 edx, DWORD PTR ?__LINE__Var@?0??response_to_waypoint_loop_reached@@YGHW4ENTITY_MESSAGES@@PAUENTITY@@1PAD@Z@4JA
  0003d	83 c2 08	 add	 edx, 8
  00040	52		 push	 edx
  00041	68 00 00 00 00	 push	 OFFSET ??_C@_0EE@DLIIEJCN@c?3?2users?2nhv90?2projects?2eech?2ap@
  00046	a1 00 00 00 00	 mov	 eax, DWORD PTR ?null_entity_pointer_message@@3PBDB ; null_entity_pointer_message
  0004b	50		 push	 eax
  0004c	e8 00 00 00 00	 call	 ?process_assert@@YGXPBD0H@Z ; process_assert
  00051	c7 45 b0 00 00
	00 00		 mov	 DWORD PTR tv75[ebp], 0
$LN9@response_t:
  00058	83 7d b0 24	 cmp	 DWORD PTR tv75[ebp], 36	; 00000024H
  0005c	74 18		 je	 SHORT $LN3@response_t
  0005e	a1 00 00 00 00	 mov	 eax, DWORD PTR ?__LINE__Var@?0??response_to_waypoint_loop_reached@@YGHW4ENTITY_MESSAGES@@PAUENTITY@@1PAD@Z@4JA
  00063	83 c0 08	 add	 eax, 8
  00066	50		 push	 eax
  00067	68 00 00 00 00	 push	 OFFSET ??_C@_0EE@DLIIEJCN@c?3?2users?2nhv90?2projects?2eech?2ap@
  0006c	68 00 00 00 00	 push	 OFFSET ??_C@_0DH@NBKEDIK@get_local_entity_type?5?$CIsender?$CJ?5@
  00071	e8 00 00 00 00	 call	 ?process_assert@@YGXPBD0H@Z ; process_assert
$LN3@response_t:

; 1531 : 
; 1532 : 	ASSERT (get_comms_model () == COMMS_MODEL_SERVER);

  00076	83 3d 00 00 00
	00 00		 cmp	 DWORD PTR ?system_comms_model@@3W4COMMS_MODEL_TYPES@@A, 0 ; system_comms_model
  0007d	74 18		 je	 SHORT $LN4@response_t
  0007f	a1 00 00 00 00	 mov	 eax, DWORD PTR ?__LINE__Var@?0??response_to_waypoint_loop_reached@@YGHW4ENTITY_MESSAGES@@PAUENTITY@@1PAD@Z@4JA
  00084	83 c0 0a	 add	 eax, 10			; 0000000aH
  00087	50		 push	 eax
  00088	68 00 00 00 00	 push	 OFFSET ??_C@_0EE@DLIIEJCN@c?3?2users?2nhv90?2projects?2eech?2ap@
  0008d	68 00 00 00 00	 push	 OFFSET ??_C@_0CJ@DMBLBJBK@get_comms_model?5?$CI?$CJ?5?$DN?$DN?5COMMS_MOD@
  00092	e8 00 00 00 00	 call	 ?process_assert@@YGXPBD0H@Z ; process_assert
$LN4@response_t:

; 1533 : 
; 1534 : 	#if DEBUG_MODULE >= 2
; 1535 : 
; 1536 : 	debug_log_entity_message (message, receiver, sender, pargs);
; 1537 : 
; 1538 : 	#endif
; 1539 : 
; 1540 : 	//
; 1541 : 	// delete mobile from current waypoint and insert on first wp
; 1542 : 	//
; 1543 : 
; 1544 : 	task = get_local_entity_parent (sender, LIST_TYPE_WAYPOINT);

  00097	83 7d 10 00	 cmp	 DWORD PTR _sender$[ebp], 0
  0009b	74 0a		 je	 SHORT $LN10@response_t
  0009d	8b 45 10	 mov	 eax, DWORD PTR _sender$[ebp]
  000a0	8b 08		 mov	 ecx, DWORD PTR [eax]
  000a2	89 4d b0	 mov	 DWORD PTR tv92[ebp], ecx
  000a5	eb 21		 jmp	 SHORT $LN11@response_t
$LN10@response_t:
  000a7	8b 15 00 00 00
	00		 mov	 edx, DWORD PTR ?__LINE__Var@?0??response_to_waypoint_loop_reached@@YGHW4ENTITY_MESSAGES@@PAUENTITY@@1PAD@Z@4JA
  000ad	83 c2 16	 add	 edx, 22			; 00000016H
  000b0	52		 push	 edx
  000b1	68 00 00 00 00	 push	 OFFSET ??_C@_0EE@DLIIEJCN@c?3?2users?2nhv90?2projects?2eech?2ap@
  000b6	a1 00 00 00 00	 mov	 eax, DWORD PTR ?null_entity_pointer_message@@3PBDB ; null_entity_pointer_message
  000bb	50		 push	 eax
  000bc	e8 00 00 00 00	 call	 ?process_assert@@YGXPBD0H@Z ; process_assert
  000c1	c7 45 b0 00 00
	00 00		 mov	 DWORD PTR tv92[ebp], 0
$LN11@response_t:
  000c8	b9 01 00 00 00	 mov	 ecx, 1
  000cd	85 c9		 test	 ecx, ecx
  000cf	74 09		 je	 SHORT $LN12@response_t
  000d1	c7 45 ac 2c 00
	00 00		 mov	 DWORD PTR tv132[ebp], 44 ; 0000002cH
  000d8	eb 21		 jmp	 SHORT $LN13@response_t
$LN12@response_t:
  000da	8b 15 00 00 00
	00		 mov	 edx, DWORD PTR ?__LINE__Var@?0??response_to_waypoint_loop_reached@@YGHW4ENTITY_MESSAGES@@PAUENTITY@@1PAD@Z@4JA
  000e0	83 c2 16	 add	 edx, 22			; 00000016H
  000e3	52		 push	 edx
  000e4	68 00 00 00 00	 push	 OFFSET ??_C@_0EE@DLIIEJCN@c?3?2users?2nhv90?2projects?2eech?2ap@
  000e9	a1 00 00 00 00	 mov	 eax, DWORD PTR ?overload_invalid_list_type_message@@3PBDB ; overload_invalid_list_type_message
  000ee	50		 push	 eax
  000ef	e8 00 00 00 00	 call	 ?process_assert@@YGXPBD0H@Z ; process_assert
  000f4	c7 45 ac 00 00
	00 00		 mov	 DWORD PTR tv132[ebp], 0
$LN13@response_t:
  000fb	6a 2c		 push	 44			; 0000002cH
  000fd	8b 4d 10	 mov	 ecx, DWORD PTR _sender$[ebp]
  00100	51		 push	 ecx
  00101	69 55 b0 b4 00
	00 00		 imul	 edx, DWORD PTR tv92[ebp], 180
  00108	8b 45 ac	 mov	 eax, DWORD PTR tv132[ebp]
  0010b	8b 8c 82 00 00
	00 00		 mov	 ecx, DWORD PTR ?fn_get_local_entity_parent@@3PAY0CN@P6GPAUENTITY@@PAU1@W4LIST_TYPES@@@ZA[edx+eax*4]
  00112	ff d1		 call	 ecx
  00114	89 45 f8	 mov	 DWORD PTR _task$[ebp], eax

; 1545 : 
; 1546 : 	if (get_local_entity_int_value (task, INT_TYPE_ENTITY_SUB_TYPE) == ENTITY_SUB_TYPE_TASK_TAKEOFF_HOLDING)

  00117	83 7d f8 00	 cmp	 DWORD PTR _task$[ebp], 0
  0011b	74 0a		 je	 SHORT $LN14@response_t
  0011d	8b 45 f8	 mov	 eax, DWORD PTR _task$[ebp]
  00120	8b 08		 mov	 ecx, DWORD PTR [eax]
  00122	89 4d b0	 mov	 DWORD PTR tv143[ebp], ecx
  00125	eb 1d		 jmp	 SHORT $LN15@response_t
$LN14@response_t:
  00127	68 0a 06 00 00	 push	 1546			; 0000060aH
  0012c	68 00 00 00 00	 push	 OFFSET ??_C@_0EE@DLIIEJCN@c?3?2users?2nhv90?2projects?2eech?2ap@
  00131	8b 15 00 00 00
	00		 mov	 edx, DWORD PTR ?null_entity_pointer_message@@3PBDB ; null_entity_pointer_message
  00137	52		 push	 edx
  00138	e8 00 00 00 00	 call	 ?process_assert@@YGXPBD0H@Z ; process_assert
  0013d	c7 45 b0 00 00
	00 00		 mov	 DWORD PTR tv143[ebp], 0
$LN15@response_t:
  00144	b8 01 00 00 00	 mov	 eax, 1
  00149	85 c0		 test	 eax, eax
  0014b	74 09		 je	 SHORT $LN16@response_t
  0014d	c7 45 ac 34 00
	00 00		 mov	 DWORD PTR tv150[ebp], 52 ; 00000034H
  00154	eb 1d		 jmp	 SHORT $LN17@response_t
$LN16@response_t:
  00156	68 0a 06 00 00	 push	 1546			; 0000060aH
  0015b	68 00 00 00 00	 push	 OFFSET ??_C@_0EE@DLIIEJCN@c?3?2users?2nhv90?2projects?2eech?2ap@
  00160	8b 0d 00 00 00
	00		 mov	 ecx, DWORD PTR ?overload_invalid_int_type_message@@3PBDB ; overload_invalid_int_type_message
  00166	51		 push	 ecx
  00167	e8 00 00 00 00	 call	 ?process_assert@@YGXPBD0H@Z ; process_assert
  0016c	c7 45 ac 00 00
	00 00		 mov	 DWORD PTR tv150[ebp], 0
$LN17@response_t:
  00173	6a 34		 push	 52			; 00000034H
  00175	8b 55 f8	 mov	 edx, DWORD PTR _task$[ebp]
  00178	52		 push	 edx
  00179	69 45 b0 5c 04
	00 00		 imul	 eax, DWORD PTR tv143[ebp], 1116
  00180	8b 4d ac	 mov	 ecx, DWORD PTR tv150[ebp]
  00183	8b 94 88 00 00
	00 00		 mov	 edx, DWORD PTR ?fn_get_local_entity_int_value@@3PAY0BBH@P6GHPAUENTITY@@W4INT_TYPES@@@ZA[eax+ecx*4]
  0018a	ff d2		 call	 edx
  0018c	83 f8 17	 cmp	 eax, 23			; 00000017H
  0018f	75 0e		 jne	 SHORT $LN5@response_t

; 1547 : 	{
; 1548 : 		//
; 1549 : 		// Needed in case a member was killed during takeoff, or other such problems which might occur 
; 1550 : 		//
; 1551 : 		
; 1552 : 		mobile_check_all_members_taken_off (receiver);

  00191	8b 45 0c	 mov	 eax, DWORD PTR _receiver$[ebp]
  00194	50		 push	 eax
  00195	e8 00 00 00 00	 call	 ?mobile_check_all_members_taken_off@@YGHPAUENTITY@@@Z ; mobile_check_all_members_taken_off

; 1553 : 	}
; 1554 : 	else

  0019a	e9 0d 01 00 00	 jmp	 $LN6@response_t
$LN5@response_t:

; 1555 : 	{
; 1556 : 		wp = get_local_entity_first_child (task, LIST_TYPE_WAYPOINT);

  0019f	83 7d f8 00	 cmp	 DWORD PTR _task$[ebp], 0
  001a3	74 0a		 je	 SHORT $LN18@response_t
  001a5	8b 45 f8	 mov	 eax, DWORD PTR _task$[ebp]
  001a8	8b 08		 mov	 ecx, DWORD PTR [eax]
  001aa	89 4d b0	 mov	 DWORD PTR tv164[ebp], ecx
  001ad	eb 21		 jmp	 SHORT $LN19@response_t
$LN18@response_t:
  001af	8b 15 00 00 00
	00		 mov	 edx, DWORD PTR ?__LINE__Var@?0??response_to_waypoint_loop_reached@@YGHW4ENTITY_MESSAGES@@PAUENTITY@@1PAD@Z@4JA
  001b5	83 c2 22	 add	 edx, 34			; 00000022H
  001b8	52		 push	 edx
  001b9	68 00 00 00 00	 push	 OFFSET ??_C@_0EE@DLIIEJCN@c?3?2users?2nhv90?2projects?2eech?2ap@
  001be	a1 00 00 00 00	 mov	 eax, DWORD PTR ?null_entity_pointer_message@@3PBDB ; null_entity_pointer_message
  001c3	50		 push	 eax
  001c4	e8 00 00 00 00	 call	 ?process_assert@@YGXPBD0H@Z ; process_assert
  001c9	c7 45 b0 00 00
	00 00		 mov	 DWORD PTR tv164[ebp], 0
$LN19@response_t:
  001d0	b9 01 00 00 00	 mov	 ecx, 1
  001d5	85 c9		 test	 ecx, ecx
  001d7	74 09		 je	 SHORT $LN20@response_t
  001d9	c7 45 ac 2c 00
	00 00		 mov	 DWORD PTR tv172[ebp], 44 ; 0000002cH
  001e0	eb 21		 jmp	 SHORT $LN21@response_t
$LN20@response_t:
  001e2	8b 15 00 00 00
	00		 mov	 edx, DWORD PTR ?__LINE__Var@?0??response_to_waypoint_loop_reached@@YGHW4ENTITY_MESSAGES@@PAUENTITY@@1PAD@Z@4JA
  001e8	83 c2 22	 add	 edx, 34			; 00000022H
  001eb	52		 push	 edx
  001ec	68 00 00 00 00	 push	 OFFSET ??_C@_0EE@DLIIEJCN@c?3?2users?2nhv90?2projects?2eech?2ap@
  001f1	a1 00 00 00 00	 mov	 eax, DWORD PTR ?overload_invalid_list_type_message@@3PBDB ; overload_invalid_list_type_message
  001f6	50		 push	 eax
  001f7	e8 00 00 00 00	 call	 ?process_assert@@YGXPBD0H@Z ; process_assert
  001fc	c7 45 ac 00 00
	00 00		 mov	 DWORD PTR tv172[ebp], 0
$LN21@response_t:
  00203	6a 2c		 push	 44			; 0000002cH
  00205	8b 4d f8	 mov	 ecx, DWORD PTR _task$[ebp]
  00208	51		 push	 ecx
  00209	69 55 b0 b4 00
	00 00		 imul	 edx, DWORD PTR tv164[ebp], 180
  00210	8b 45 ac	 mov	 eax, DWORD PTR tv172[ebp]
  00213	8b 8c 82 00 00
	00 00		 mov	 ecx, DWORD PTR ?fn_get_local_entity_first_child@@3PAY0CN@P6GPAUENTITY@@PAU1@W4LIST_TYPES@@@ZA[edx+eax*4]
  0021a	ff d1		 call	 ecx
  0021c	89 45 fc	 mov	 DWORD PTR _wp$[ebp], eax

; 1557 : 	
; 1558 : 		guide = get_local_entity_parent (receiver, LIST_TYPE_FOLLOWER);

  0021f	83 7d 0c 00	 cmp	 DWORD PTR _receiver$[ebp], 0
  00223	74 0a		 je	 SHORT $LN22@response_t
  00225	8b 45 0c	 mov	 eax, DWORD PTR _receiver$[ebp]
  00228	8b 08		 mov	 ecx, DWORD PTR [eax]
  0022a	89 4d b0	 mov	 DWORD PTR tv184[ebp], ecx
  0022d	eb 21		 jmp	 SHORT $LN23@response_t
$LN22@response_t:
  0022f	8b 15 00 00 00
	00		 mov	 edx, DWORD PTR ?__LINE__Var@?0??response_to_waypoint_loop_reached@@YGHW4ENTITY_MESSAGES@@PAUENTITY@@1PAD@Z@4JA
  00235	83 c2 24	 add	 edx, 36			; 00000024H
  00238	52		 push	 edx
  00239	68 00 00 00 00	 push	 OFFSET ??_C@_0EE@DLIIEJCN@c?3?2users?2nhv90?2projects?2eech?2ap@
  0023e	a1 00 00 00 00	 mov	 eax, DWORD PTR ?null_entity_pointer_message@@3PBDB ; null_entity_pointer_message
  00243	50		 push	 eax
  00244	e8 00 00 00 00	 call	 ?process_assert@@YGXPBD0H@Z ; process_assert
  00249	c7 45 b0 00 00
	00 00		 mov	 DWORD PTR tv184[ebp], 0
$LN23@response_t:
  00250	b9 01 00 00 00	 mov	 ecx, 1
  00255	85 c9		 test	 ecx, ecx
  00257	74 09		 je	 SHORT $LN24@response_t
  00259	c7 45 ac 0d 00
	00 00		 mov	 DWORD PTR tv192[ebp], 13 ; 0000000dH
  00260	eb 21		 jmp	 SHORT $LN25@response_t
$LN24@response_t:
  00262	8b 15 00 00 00
	00		 mov	 edx, DWORD PTR ?__LINE__Var@?0??response_to_waypoint_loop_reached@@YGHW4ENTITY_MESSAGES@@PAUENTITY@@1PAD@Z@4JA
  00268	83 c2 24	 add	 edx, 36			; 00000024H
  0026b	52		 push	 edx
  0026c	68 00 00 00 00	 push	 OFFSET ??_C@_0EE@DLIIEJCN@c?3?2users?2nhv90?2projects?2eech?2ap@
  00271	a1 00 00 00 00	 mov	 eax, DWORD PTR ?overload_invalid_list_type_message@@3PBDB ; overload_invalid_list_type_message
  00276	50		 push	 eax
  00277	e8 00 00 00 00	 call	 ?process_assert@@YGXPBD0H@Z ; process_assert
  0027c	c7 45 ac 00 00
	00 00		 mov	 DWORD PTR tv192[ebp], 0
$LN25@response_t:
  00283	6a 0d		 push	 13			; 0000000dH
  00285	8b 4d 0c	 mov	 ecx, DWORD PTR _receiver$[ebp]
  00288	51		 push	 ecx
  00289	69 55 b0 b4 00
	00 00		 imul	 edx, DWORD PTR tv184[ebp], 180
  00290	8b 45 ac	 mov	 eax, DWORD PTR tv192[ebp]
  00293	8b 8c 82 00 00
	00 00		 mov	 ecx, DWORD PTR ?fn_get_local_entity_parent@@3PAY0CN@P6GPAUENTITY@@PAU1@W4LIST_TYPES@@@ZA[edx+eax*4]
  0029a	ff d1		 call	 ecx
  0029c	89 45 f4	 mov	 DWORD PTR _guide$[ebp], eax

; 1559 : 	
; 1560 : 		set_guide_new_waypoint (guide, wp);

  0029f	8b 45 fc	 mov	 eax, DWORD PTR _wp$[ebp]
  002a2	50		 push	 eax
  002a3	8b 4d f4	 mov	 ecx, DWORD PTR _guide$[ebp]
  002a6	51		 push	 ecx
  002a7	e8 00 00 00 00	 call	 ?set_guide_new_waypoint@@YGHPAUENTITY@@0@Z ; set_guide_new_waypoint
$LN6@response_t:

; 1561 : 	}
; 1562 : 
; 1563 : 	return (TRUE);

  002ac	b8 01 00 00 00	 mov	 eax, 1

; 1564 : }

  002b1	5f		 pop	 edi
  002b2	5e		 pop	 esi
  002b3	5b		 pop	 ebx
  002b4	8b e5		 mov	 esp, ebp
  002b6	5d		 pop	 ebp
  002b7	c2 10 00	 ret	 16			; 00000010H
?response_to_waypoint_loop_reached@@YGHW4ENTITY_MESSAGES@@PAUENTITY@@1PAD@Z ENDP ; response_to_waypoint_loop_reached
_TEXT	ENDS
; Function compile flags: /Odtp /ZI
; File c:\users\nhv90\projects\eech\aphavoc\source\entity\mobile\mb_msgs.c
;	COMDAT ?response_to_waypoint_landed_reached@@YGHW4ENTITY_MESSAGES@@PAUENTITY@@1PAD@Z
_TEXT	SEGMENT
tv1151 = -128						; size = 4
tv1217 = -124						; size = 8
tv1111 = -124						; size = 8
tv666 = -124						; size = 4
tv624 = -124						; size = 4
tv557 = -124						; size = 8
tv414 = -124						; size = 4
tv375 = -124						; size = 8
tv658 = -120						; size = 4
tv616 = -120						; size = 4
tv406 = -120						; size = 4
tv957 = -116						; size = 4
tv932 = -116						; size = 4
tv913 = -116						; size = 4
tv892 = -116						; size = 4
tv867 = -116						; size = 4
tv848 = -116						; size = 4
tv828 = -116						; size = 4
tv807 = -116						; size = 4
tv788 = -116						; size = 4
tv770 = -116						; size = 4
tv747 = -116						; size = 4
tv725 = -116						; size = 4
tv706 = -116						; size = 4
tv685 = -116						; size = 4
tv643 = -116						; size = 4
tv601 = -116						; size = 4
tv574 = -116						; size = 4
tv558 = -116						; size = 8
tv541 = -116						; size = 4
tv521 = -116						; size = 4
tv499 = -116						; size = 4
tv479 = -116						; size = 4
tv458 = -116						; size = 4
tv433 = -116						; size = 4
tv392 = -116						; size = 4
tv376 = -116						; size = 8
tv359 = -116						; size = 4
tv339 = -116						; size = 4
tv318 = -116						; size = 4
tv299 = -116						; size = 4
tv276 = -116						; size = 4
tv244 = -116						; size = 4
tv223 = -116						; size = 4
tv193 = -116						; size = 4
tv173 = -116						; size = 4
tv153 = -116						; size = 4
tv133 = -116						; size = 4
tv1242 = -112						; size = 4
tv949 = -112						; size = 4
tv925 = -112						; size = 4
tv906 = -112						; size = 4
tv884 = -112						; size = 4
tv860 = -112						; size = 4
tv841 = -112						; size = 4
tv820 = -112						; size = 4
tv800 = -112						; size = 4
tv781 = -112						; size = 4
tv762 = -112						; size = 4
tv739 = -112						; size = 4
tv718 = -112						; size = 4
tv699 = -112						; size = 4
tv677 = -112						; size = 4
tv635 = -112						; size = 4
tv593 = -112						; size = 4
tv566 = -112						; size = 4
tv533 = -112						; size = 4
tv513 = -112						; size = 4
tv491 = -112						; size = 4
tv471 = -112						; size = 4
tv450 = -112						; size = 4
tv425 = -112						; size = 4
tv384 = -112						; size = 4
tv351 = -112						; size = 4
tv331 = -112						; size = 4
tv311 = -112						; size = 4
tv292 = -112						; size = 4
tv268 = -112						; size = 4
tv236 = -112						; size = 4
tv216 = -112						; size = 4
tv205 = -112						; size = 4
tv185 = -112						; size = 4
tv165 = -112						; size = 4
tv145 = -112						; size = 4
tv93 = -112						; size = 4
tv75 = -112						; size = 4
_config_type$1 = -44					; size = 4
_ammo$2 = -40						; size = 4
_fuel$3 = -36						; size = 4
_raw$ = -32						; size = 4
_donar_group$ = -28					; size = 4
_landing_en$ = -24					; size = 4
_keysite$ = -20						; size = 4
_guide$ = -16						; size = 4
_group$ = -12						; size = 4
_task$ = -8						; size = 4
_sleep$ = -4						; size = 4
_message$ = 8						; size = 4
_receiver$ = 12						; size = 4
_sender$ = 16						; size = 4
_pargs$ = 20						; size = 4
?response_to_waypoint_landed_reached@@YGHW4ENTITY_MESSAGES@@PAUENTITY@@1PAD@Z PROC ; response_to_waypoint_landed_reached, COMDAT

; 1262 : {

  00000	55		 push	 ebp
  00001	8b ec		 mov	 ebp, esp
  00003	81 ec 80 00 00
	00		 sub	 esp, 128		; 00000080H
  00009	53		 push	 ebx
  0000a	56		 push	 esi
  0000b	57		 push	 edi

; 1263 : 
; 1264 : 	float
; 1265 : 		sleep;
; 1266 : 		//fuel,
; 1267 : 		//ammo;
; 1268 : 
; 1269 : 	entity
; 1270 : 		*task,
; 1271 : 		*group,
; 1272 : 		*guide,
; 1273 : 		*keysite,
; 1274 : 		*landing_en,
; 1275 : 		*donar_group;
; 1276 : 
; 1277 : 	mobile
; 1278 : 		*raw;
; 1279 : 
; 1280 : 	ASSERT (sender);

  0000c	83 7d 10 00	 cmp	 DWORD PTR _sender$[ebp], 0
  00010	75 18		 jne	 SHORT $LN4@response_t
  00012	a1 00 00 00 00	 mov	 eax, DWORD PTR ?__LINE__Var@?0??response_to_waypoint_landed_reached@@YGHW4ENTITY_MESSAGES@@PAUENTITY@@1PAD@Z@4JA
  00017	83 c0 12	 add	 eax, 18			; 00000012H
  0001a	50		 push	 eax
  0001b	68 00 00 00 00	 push	 OFFSET ??_C@_0EE@DLIIEJCN@c?3?2users?2nhv90?2projects?2eech?2ap@
  00020	68 00 00 00 00	 push	 OFFSET ??_C@_06CGHJMPBJ@sender@
  00025	e8 00 00 00 00	 call	 ?process_assert@@YGXPBD0H@Z ; process_assert
$LN4@response_t:

; 1281 : 
; 1282 : 	ASSERT (get_local_entity_type (sender) == ENTITY_TYPE_WAYPOINT);

  0002a	83 7d 10 00	 cmp	 DWORD PTR _sender$[ebp], 0
  0002e	74 0a		 je	 SHORT $LN22@response_t
  00030	8b 45 10	 mov	 eax, DWORD PTR _sender$[ebp]
  00033	8b 08		 mov	 ecx, DWORD PTR [eax]
  00035	89 4d 90	 mov	 DWORD PTR tv75[ebp], ecx
  00038	eb 21		 jmp	 SHORT $LN23@response_t
$LN22@response_t:
  0003a	8b 15 00 00 00
	00		 mov	 edx, DWORD PTR ?__LINE__Var@?0??response_to_waypoint_landed_reached@@YGHW4ENTITY_MESSAGES@@PAUENTITY@@1PAD@Z@4JA
  00040	83 c2 14	 add	 edx, 20			; 00000014H
  00043	52		 push	 edx
  00044	68 00 00 00 00	 push	 OFFSET ??_C@_0EE@DLIIEJCN@c?3?2users?2nhv90?2projects?2eech?2ap@
  00049	a1 00 00 00 00	 mov	 eax, DWORD PTR ?null_entity_pointer_message@@3PBDB ; null_entity_pointer_message
  0004e	50		 push	 eax
  0004f	e8 00 00 00 00	 call	 ?process_assert@@YGXPBD0H@Z ; process_assert
  00054	c7 45 90 00 00
	00 00		 mov	 DWORD PTR tv75[ebp], 0
$LN23@response_t:
  0005b	83 7d 90 24	 cmp	 DWORD PTR tv75[ebp], 36	; 00000024H
  0005f	74 18		 je	 SHORT $LN5@response_t
  00061	a1 00 00 00 00	 mov	 eax, DWORD PTR ?__LINE__Var@?0??response_to_waypoint_landed_reached@@YGHW4ENTITY_MESSAGES@@PAUENTITY@@1PAD@Z@4JA
  00066	83 c0 14	 add	 eax, 20			; 00000014H
  00069	50		 push	 eax
  0006a	68 00 00 00 00	 push	 OFFSET ??_C@_0EE@DLIIEJCN@c?3?2users?2nhv90?2projects?2eech?2ap@
  0006f	68 00 00 00 00	 push	 OFFSET ??_C@_0DH@NBKEDIK@get_local_entity_type?5?$CIsender?$CJ?5@
  00074	e8 00 00 00 00	 call	 ?process_assert@@YGXPBD0H@Z ; process_assert
$LN5@response_t:

; 1283 : 
; 1284 : 	ASSERT (get_comms_model () == COMMS_MODEL_SERVER);

  00079	83 3d 00 00 00
	00 00		 cmp	 DWORD PTR ?system_comms_model@@3W4COMMS_MODEL_TYPES@@A, 0 ; system_comms_model
  00080	74 18		 je	 SHORT $LN6@response_t
  00082	a1 00 00 00 00	 mov	 eax, DWORD PTR ?__LINE__Var@?0??response_to_waypoint_landed_reached@@YGHW4ENTITY_MESSAGES@@PAUENTITY@@1PAD@Z@4JA
  00087	83 c0 16	 add	 eax, 22			; 00000016H
  0008a	50		 push	 eax
  0008b	68 00 00 00 00	 push	 OFFSET ??_C@_0EE@DLIIEJCN@c?3?2users?2nhv90?2projects?2eech?2ap@
  00090	68 00 00 00 00	 push	 OFFSET ??_C@_0CJ@DMBLBJBK@get_comms_model?5?$CI?$CJ?5?$DN?$DN?5COMMS_MOD@
  00095	e8 00 00 00 00	 call	 ?process_assert@@YGXPBD0H@Z ; process_assert
$LN6@response_t:

; 1285 : 
; 1286 : 	#if DEBUG_MODULE >= 2
; 1287 : 
; 1288 : 	debug_log_entity_message (message, receiver, sender, pargs);
; 1289 : 
; 1290 : 	#endif
; 1291 : 
; 1292 : 	raw = (mobile *) get_local_entity_data (receiver);

  0009a	8b 45 0c	 mov	 eax, DWORD PTR _receiver$[ebp]
  0009d	8b 48 04	 mov	 ecx, DWORD PTR [eax+4]
  000a0	89 4d e0	 mov	 DWORD PTR _raw$[ebp], ecx

; 1293 : 
; 1294 : 	//
; 1295 : 	// Notify end task
; 1296 : 	//
; 1297 : 
; 1298 : 	guide = get_local_entity_parent (receiver, LIST_TYPE_FOLLOWER);

  000a3	83 7d 0c 00	 cmp	 DWORD PTR _receiver$[ebp], 0
  000a7	74 0a		 je	 SHORT $LN24@response_t
  000a9	8b 45 0c	 mov	 eax, DWORD PTR _receiver$[ebp]
  000ac	8b 08		 mov	 ecx, DWORD PTR [eax]
  000ae	89 4d 90	 mov	 DWORD PTR tv93[ebp], ecx
  000b1	eb 21		 jmp	 SHORT $LN25@response_t
$LN24@response_t:
  000b3	8b 15 00 00 00
	00		 mov	 edx, DWORD PTR ?__LINE__Var@?0??response_to_waypoint_landed_reached@@YGHW4ENTITY_MESSAGES@@PAUENTITY@@1PAD@Z@4JA
  000b9	83 c2 24	 add	 edx, 36			; 00000024H
  000bc	52		 push	 edx
  000bd	68 00 00 00 00	 push	 OFFSET ??_C@_0EE@DLIIEJCN@c?3?2users?2nhv90?2projects?2eech?2ap@
  000c2	a1 00 00 00 00	 mov	 eax, DWORD PTR ?null_entity_pointer_message@@3PBDB ; null_entity_pointer_message
  000c7	50		 push	 eax
  000c8	e8 00 00 00 00	 call	 ?process_assert@@YGXPBD0H@Z ; process_assert
  000cd	c7 45 90 00 00
	00 00		 mov	 DWORD PTR tv93[ebp], 0
$LN25@response_t:
  000d4	b9 01 00 00 00	 mov	 ecx, 1
  000d9	85 c9		 test	 ecx, ecx
  000db	74 09		 je	 SHORT $LN26@response_t
  000dd	c7 45 8c 0d 00
	00 00		 mov	 DWORD PTR tv133[ebp], 13 ; 0000000dH
  000e4	eb 21		 jmp	 SHORT $LN27@response_t
$LN26@response_t:
  000e6	8b 15 00 00 00
	00		 mov	 edx, DWORD PTR ?__LINE__Var@?0??response_to_waypoint_landed_reached@@YGHW4ENTITY_MESSAGES@@PAUENTITY@@1PAD@Z@4JA
  000ec	83 c2 24	 add	 edx, 36			; 00000024H
  000ef	52		 push	 edx
  000f0	68 00 00 00 00	 push	 OFFSET ??_C@_0EE@DLIIEJCN@c?3?2users?2nhv90?2projects?2eech?2ap@
  000f5	a1 00 00 00 00	 mov	 eax, DWORD PTR ?overload_invalid_list_type_message@@3PBDB ; overload_invalid_list_type_message
  000fa	50		 push	 eax
  000fb	e8 00 00 00 00	 call	 ?process_assert@@YGXPBD0H@Z ; process_assert
  00100	c7 45 8c 00 00
	00 00		 mov	 DWORD PTR tv133[ebp], 0
$LN27@response_t:
  00107	6a 0d		 push	 13			; 0000000dH
  00109	8b 4d 0c	 mov	 ecx, DWORD PTR _receiver$[ebp]
  0010c	51		 push	 ecx
  0010d	69 55 90 b4 00
	00 00		 imul	 edx, DWORD PTR tv93[ebp], 180
  00114	8b 45 8c	 mov	 eax, DWORD PTR tv133[ebp]
  00117	8b 8c 82 00 00
	00 00		 mov	 ecx, DWORD PTR ?fn_get_local_entity_parent@@3PAY0CN@P6GPAUENTITY@@PAU1@W4LIST_TYPES@@@ZA[edx+eax*4]
  0011e	ff d1		 call	 ecx
  00120	89 45 f0	 mov	 DWORD PTR _guide$[ebp], eax

; 1299 : 
; 1300 : 	task = get_local_entity_parent (guide, LIST_TYPE_GUIDE);

  00123	83 7d f0 00	 cmp	 DWORD PTR _guide$[ebp], 0
  00127	74 0a		 je	 SHORT $LN28@response_t
  00129	8b 45 f0	 mov	 eax, DWORD PTR _guide$[ebp]
  0012c	8b 08		 mov	 ecx, DWORD PTR [eax]
  0012e	89 4d 90	 mov	 DWORD PTR tv145[ebp], ecx
  00131	eb 21		 jmp	 SHORT $LN29@response_t
$LN28@response_t:
  00133	8b 15 00 00 00
	00		 mov	 edx, DWORD PTR ?__LINE__Var@?0??response_to_waypoint_landed_reached@@YGHW4ENTITY_MESSAGES@@PAUENTITY@@1PAD@Z@4JA
  00139	83 c2 26	 add	 edx, 38			; 00000026H
  0013c	52		 push	 edx
  0013d	68 00 00 00 00	 push	 OFFSET ??_C@_0EE@DLIIEJCN@c?3?2users?2nhv90?2projects?2eech?2ap@
  00142	a1 00 00 00 00	 mov	 eax, DWORD PTR ?null_entity_pointer_message@@3PBDB ; null_entity_pointer_message
  00147	50		 push	 eax
  00148	e8 00 00 00 00	 call	 ?process_assert@@YGXPBD0H@Z ; process_assert
  0014d	c7 45 90 00 00
	00 00		 mov	 DWORD PTR tv145[ebp], 0
$LN29@response_t:
  00154	b9 01 00 00 00	 mov	 ecx, 1
  00159	85 c9		 test	 ecx, ecx
  0015b	74 09		 je	 SHORT $LN30@response_t
  0015d	c7 45 8c 10 00
	00 00		 mov	 DWORD PTR tv153[ebp], 16 ; 00000010H
  00164	eb 21		 jmp	 SHORT $LN31@response_t
$LN30@response_t:
  00166	8b 15 00 00 00
	00		 mov	 edx, DWORD PTR ?__LINE__Var@?0??response_to_waypoint_landed_reached@@YGHW4ENTITY_MESSAGES@@PAUENTITY@@1PAD@Z@4JA
  0016c	83 c2 26	 add	 edx, 38			; 00000026H
  0016f	52		 push	 edx
  00170	68 00 00 00 00	 push	 OFFSET ??_C@_0EE@DLIIEJCN@c?3?2users?2nhv90?2projects?2eech?2ap@
  00175	a1 00 00 00 00	 mov	 eax, DWORD PTR ?overload_invalid_list_type_message@@3PBDB ; overload_invalid_list_type_message
  0017a	50		 push	 eax
  0017b	e8 00 00 00 00	 call	 ?process_assert@@YGXPBD0H@Z ; process_assert
  00180	c7 45 8c 00 00
	00 00		 mov	 DWORD PTR tv153[ebp], 0
$LN31@response_t:
  00187	6a 10		 push	 16			; 00000010H
  00189	8b 4d f0	 mov	 ecx, DWORD PTR _guide$[ebp]
  0018c	51		 push	 ecx
  0018d	69 55 90 b4 00
	00 00		 imul	 edx, DWORD PTR tv145[ebp], 180
  00194	8b 45 8c	 mov	 eax, DWORD PTR tv153[ebp]
  00197	8b 8c 82 00 00
	00 00		 mov	 ecx, DWORD PTR ?fn_get_local_entity_parent@@3PAY0CN@P6GPAUENTITY@@PAU1@W4LIST_TYPES@@@ZA[edx+eax*4]
  0019e	ff d1		 call	 ecx
  001a0	89 45 f8	 mov	 DWORD PTR _task$[ebp], eax

; 1301 : 
; 1302 : 	group = get_local_entity_parent (receiver, LIST_TYPE_MEMBER);

  001a3	83 7d 0c 00	 cmp	 DWORD PTR _receiver$[ebp], 0
  001a7	74 0a		 je	 SHORT $LN32@response_t
  001a9	8b 45 0c	 mov	 eax, DWORD PTR _receiver$[ebp]
  001ac	8b 08		 mov	 ecx, DWORD PTR [eax]
  001ae	89 4d 90	 mov	 DWORD PTR tv165[ebp], ecx
  001b1	eb 21		 jmp	 SHORT $LN33@response_t
$LN32@response_t:
  001b3	8b 15 00 00 00
	00		 mov	 edx, DWORD PTR ?__LINE__Var@?0??response_to_waypoint_landed_reached@@YGHW4ENTITY_MESSAGES@@PAUENTITY@@1PAD@Z@4JA
  001b9	83 c2 28	 add	 edx, 40			; 00000028H
  001bc	52		 push	 edx
  001bd	68 00 00 00 00	 push	 OFFSET ??_C@_0EE@DLIIEJCN@c?3?2users?2nhv90?2projects?2eech?2ap@
  001c2	a1 00 00 00 00	 mov	 eax, DWORD PTR ?null_entity_pointer_message@@3PBDB ; null_entity_pointer_message
  001c7	50		 push	 eax
  001c8	e8 00 00 00 00	 call	 ?process_assert@@YGXPBD0H@Z ; process_assert
  001cd	c7 45 90 00 00
	00 00		 mov	 DWORD PTR tv165[ebp], 0
$LN33@response_t:
  001d4	b9 01 00 00 00	 mov	 ecx, 1
  001d9	85 c9		 test	 ecx, ecx
  001db	74 09		 je	 SHORT $LN34@response_t
  001dd	c7 45 8c 19 00
	00 00		 mov	 DWORD PTR tv173[ebp], 25 ; 00000019H
  001e4	eb 21		 jmp	 SHORT $LN35@response_t
$LN34@response_t:
  001e6	8b 15 00 00 00
	00		 mov	 edx, DWORD PTR ?__LINE__Var@?0??response_to_waypoint_landed_reached@@YGHW4ENTITY_MESSAGES@@PAUENTITY@@1PAD@Z@4JA
  001ec	83 c2 28	 add	 edx, 40			; 00000028H
  001ef	52		 push	 edx
  001f0	68 00 00 00 00	 push	 OFFSET ??_C@_0EE@DLIIEJCN@c?3?2users?2nhv90?2projects?2eech?2ap@
  001f5	a1 00 00 00 00	 mov	 eax, DWORD PTR ?overload_invalid_list_type_message@@3PBDB ; overload_invalid_list_type_message
  001fa	50		 push	 eax
  001fb	e8 00 00 00 00	 call	 ?process_assert@@YGXPBD0H@Z ; process_assert
  00200	c7 45 8c 00 00
	00 00		 mov	 DWORD PTR tv173[ebp], 0
$LN35@response_t:
  00207	6a 19		 push	 25			; 00000019H
  00209	8b 4d 0c	 mov	 ecx, DWORD PTR _receiver$[ebp]
  0020c	51		 push	 ecx
  0020d	69 55 90 b4 00
	00 00		 imul	 edx, DWORD PTR tv165[ebp], 180
  00214	8b 45 8c	 mov	 eax, DWORD PTR tv173[ebp]
  00217	8b 8c 82 00 00
	00 00		 mov	 ecx, DWORD PTR ?fn_get_local_entity_parent@@3PAY0CN@P6GPAUENTITY@@PAU1@W4LIST_TYPES@@@ZA[edx+eax*4]
  0021e	ff d1		 call	 ecx
  00220	89 45 f4	 mov	 DWORD PTR _group$[ebp], eax

; 1303 : 
; 1304 : 	landing_en = get_local_entity_parent (task, LIST_TYPE_ASSIGNED_TASK);

  00223	83 7d f8 00	 cmp	 DWORD PTR _task$[ebp], 0
  00227	74 0a		 je	 SHORT $LN36@response_t
  00229	8b 45 f8	 mov	 eax, DWORD PTR _task$[ebp]
  0022c	8b 08		 mov	 ecx, DWORD PTR [eax]
  0022e	89 4d 90	 mov	 DWORD PTR tv185[ebp], ecx
  00231	eb 21		 jmp	 SHORT $LN37@response_t
$LN36@response_t:
  00233	8b 15 00 00 00
	00		 mov	 edx, DWORD PTR ?__LINE__Var@?0??response_to_waypoint_landed_reached@@YGHW4ENTITY_MESSAGES@@PAUENTITY@@1PAD@Z@4JA
  00239	83 c2 2a	 add	 edx, 42			; 0000002aH
  0023c	52		 push	 edx
  0023d	68 00 00 00 00	 push	 OFFSET ??_C@_0EE@DLIIEJCN@c?3?2users?2nhv90?2projects?2eech?2ap@
  00242	a1 00 00 00 00	 mov	 eax, DWORD PTR ?null_entity_pointer_message@@3PBDB ; null_entity_pointer_message
  00247	50		 push	 eax
  00248	e8 00 00 00 00	 call	 ?process_assert@@YGXPBD0H@Z ; process_assert
  0024d	c7 45 90 00 00
	00 00		 mov	 DWORD PTR tv185[ebp], 0
$LN37@response_t:
  00254	b9 01 00 00 00	 mov	 ecx, 1
  00259	85 c9		 test	 ecx, ecx
  0025b	74 09		 je	 SHORT $LN38@response_t
  0025d	c7 45 8c 03 00
	00 00		 mov	 DWORD PTR tv193[ebp], 3
  00264	eb 21		 jmp	 SHORT $LN39@response_t
$LN38@response_t:
  00266	8b 15 00 00 00
	00		 mov	 edx, DWORD PTR ?__LINE__Var@?0??response_to_waypoint_landed_reached@@YGHW4ENTITY_MESSAGES@@PAUENTITY@@1PAD@Z@4JA
  0026c	83 c2 2a	 add	 edx, 42			; 0000002aH
  0026f	52		 push	 edx
  00270	68 00 00 00 00	 push	 OFFSET ??_C@_0EE@DLIIEJCN@c?3?2users?2nhv90?2projects?2eech?2ap@
  00275	a1 00 00 00 00	 mov	 eax, DWORD PTR ?overload_invalid_list_type_message@@3PBDB ; overload_invalid_list_type_message
  0027a	50		 push	 eax
  0027b	e8 00 00 00 00	 call	 ?process_assert@@YGXPBD0H@Z ; process_assert
  00280	c7 45 8c 00 00
	00 00		 mov	 DWORD PTR tv193[ebp], 0
$LN39@response_t:
  00287	6a 03		 push	 3
  00289	8b 4d f8	 mov	 ecx, DWORD PTR _task$[ebp]
  0028c	51		 push	 ecx
  0028d	69 55 90 b4 00
	00 00		 imul	 edx, DWORD PTR tv185[ebp], 180
  00294	8b 45 8c	 mov	 eax, DWORD PTR tv193[ebp]
  00297	8b 8c 82 00 00
	00 00		 mov	 ecx, DWORD PTR ?fn_get_local_entity_parent@@3PAY0CN@P6GPAUENTITY@@PAU1@W4LIST_TYPES@@@ZA[edx+eax*4]
  0029e	ff d1		 call	 ecx
  002a0	89 45 e8	 mov	 DWORD PTR _landing_en$[ebp], eax

; 1305 : 
; 1306 : 	/////////////////////////////////////////////////////////////////
; 1307 : 	//
; 1308 : 	// destroy guide entity (thus removing member from task)
; 1309 : 	//
; 1310 : 	/////////////////////////////////////////////////////////////////
; 1311 : 
; 1312 : 	destroy_client_server_entity (guide);

  002a3	83 7d f0 00	 cmp	 DWORD PTR _guide$[ebp], 0
  002a7	74 0a		 je	 SHORT $LN40@response_t
  002a9	8b 45 f0	 mov	 eax, DWORD PTR _guide$[ebp]
  002ac	8b 08		 mov	 ecx, DWORD PTR [eax]
  002ae	89 4d 90	 mov	 DWORD PTR tv205[ebp], ecx
  002b1	eb 21		 jmp	 SHORT $LN41@response_t
$LN40@response_t:
  002b3	8b 15 00 00 00
	00		 mov	 edx, DWORD PTR ?__LINE__Var@?0??response_to_waypoint_landed_reached@@YGHW4ENTITY_MESSAGES@@PAUENTITY@@1PAD@Z@4JA
  002b9	83 c2 32	 add	 edx, 50			; 00000032H
  002bc	52		 push	 edx
  002bd	68 00 00 00 00	 push	 OFFSET ??_C@_0EE@DLIIEJCN@c?3?2users?2nhv90?2projects?2eech?2ap@
  002c2	a1 00 00 00 00	 mov	 eax, DWORD PTR ?null_entity_pointer_message@@3PBDB ; null_entity_pointer_message
  002c7	50		 push	 eax
  002c8	e8 00 00 00 00	 call	 ?process_assert@@YGXPBD0H@Z ; process_assert
  002cd	c7 45 90 00 00
	00 00		 mov	 DWORD PTR tv205[ebp], 0
$LN41@response_t:
  002d4	8b 4d f0	 mov	 ecx, DWORD PTR _guide$[ebp]
  002d7	51		 push	 ecx
  002d8	8b 15 00 00 00
	00		 mov	 edx, DWORD PTR ?system_comms_model@@3W4COMMS_MODEL_TYPES@@A ; system_comms_model
  002de	c1 e2 02	 shl	 edx, 2
  002e1	8b 45 90	 mov	 eax, DWORD PTR tv205[ebp]
  002e4	8b 8c c2 00 00
	00 00		 mov	 ecx, DWORD PTR ?fn_destroy_client_server_entity@@3PAY01P6GXPAUENTITY@@@ZA[edx+eax*8]
  002eb	ff d1		 call	 ecx

; 1313 : 
; 1314 : 	/////////////////////////////////////////////////////////////////
; 1315 : 	//
; 1316 : 	// Set mobile to landed
; 1317 : 	//
; 1318 : 	/////////////////////////////////////////////////////////////////
; 1319 : 	
; 1320 : 	if (!get_local_entity_int_value (receiver, INT_TYPE_LANDED))

  002ed	83 7d 0c 00	 cmp	 DWORD PTR _receiver$[ebp], 0
  002f1	74 0a		 je	 SHORT $LN42@response_t
  002f3	8b 45 0c	 mov	 eax, DWORD PTR _receiver$[ebp]
  002f6	8b 08		 mov	 ecx, DWORD PTR [eax]
  002f8	89 4d 90	 mov	 DWORD PTR tv216[ebp], ecx
  002fb	eb 1d		 jmp	 SHORT $LN43@response_t
$LN42@response_t:
  002fd	68 28 05 00 00	 push	 1320			; 00000528H
  00302	68 00 00 00 00	 push	 OFFSET ??_C@_0EE@DLIIEJCN@c?3?2users?2nhv90?2projects?2eech?2ap@
  00307	8b 15 00 00 00
	00		 mov	 edx, DWORD PTR ?null_entity_pointer_message@@3PBDB ; null_entity_pointer_message
  0030d	52		 push	 edx
  0030e	e8 00 00 00 00	 call	 ?process_assert@@YGXPBD0H@Z ; process_assert
  00313	c7 45 90 00 00
	00 00		 mov	 DWORD PTR tv216[ebp], 0
$LN43@response_t:
  0031a	b8 01 00 00 00	 mov	 eax, 1
  0031f	85 c0		 test	 eax, eax
  00321	74 09		 je	 SHORT $LN44@response_t
  00323	c7 45 8c 73 00
	00 00		 mov	 DWORD PTR tv223[ebp], 115 ; 00000073H
  0032a	eb 1d		 jmp	 SHORT $LN45@response_t
$LN44@response_t:
  0032c	68 28 05 00 00	 push	 1320			; 00000528H
  00331	68 00 00 00 00	 push	 OFFSET ??_C@_0EE@DLIIEJCN@c?3?2users?2nhv90?2projects?2eech?2ap@
  00336	8b 0d 00 00 00
	00		 mov	 ecx, DWORD PTR ?overload_invalid_int_type_message@@3PBDB ; overload_invalid_int_type_message
  0033c	51		 push	 ecx
  0033d	e8 00 00 00 00	 call	 ?process_assert@@YGXPBD0H@Z ; process_assert
  00342	c7 45 8c 00 00
	00 00		 mov	 DWORD PTR tv223[ebp], 0
$LN45@response_t:
  00349	6a 73		 push	 115			; 00000073H
  0034b	8b 55 0c	 mov	 edx, DWORD PTR _receiver$[ebp]
  0034e	52		 push	 edx
  0034f	69 45 90 5c 04
	00 00		 imul	 eax, DWORD PTR tv216[ebp], 1116
  00356	8b 4d 8c	 mov	 ecx, DWORD PTR tv223[ebp]
  00359	8b 94 88 00 00
	00 00		 mov	 edx, DWORD PTR ?fn_get_local_entity_int_value@@3PAY0BBH@P6GHPAUENTITY@@W4INT_TYPES@@@ZA[eax+ecx*4]
  00360	ff d2		 call	 edx
  00362	85 c0		 test	 eax, eax
  00364	0f 85 8b 00 00
	00		 jne	 $LN7@response_t

; 1321 : 	{
; 1322 : 
; 1323 : 		set_client_server_entity_int_value (receiver, INT_TYPE_OPERATIONAL_STATE, OPERATIONAL_STATE_LANDED);

  0036a	83 7d 0c 00	 cmp	 DWORD PTR _receiver$[ebp], 0
  0036e	74 0a		 je	 SHORT $LN46@response_t
  00370	8b 45 0c	 mov	 eax, DWORD PTR _receiver$[ebp]
  00373	8b 08		 mov	 ecx, DWORD PTR [eax]
  00375	89 4d 90	 mov	 DWORD PTR tv236[ebp], ecx
  00378	eb 21		 jmp	 SHORT $LN47@response_t
$LN46@response_t:
  0037a	8b 15 00 00 00
	00		 mov	 edx, DWORD PTR ?__LINE__Var@?0??response_to_waypoint_landed_reached@@YGHW4ENTITY_MESSAGES@@PAUENTITY@@1PAD@Z@4JA
  00380	83 c2 3d	 add	 edx, 61			; 0000003dH
  00383	52		 push	 edx
  00384	68 00 00 00 00	 push	 OFFSET ??_C@_0EE@DLIIEJCN@c?3?2users?2nhv90?2projects?2eech?2ap@
  00389	a1 00 00 00 00	 mov	 eax, DWORD PTR ?null_entity_pointer_message@@3PBDB ; null_entity_pointer_message
  0038e	50		 push	 eax
  0038f	e8 00 00 00 00	 call	 ?process_assert@@YGXPBD0H@Z ; process_assert
  00394	c7 45 90 00 00
	00 00		 mov	 DWORD PTR tv236[ebp], 0
$LN47@response_t:
  0039b	b9 01 00 00 00	 mov	 ecx, 1
  003a0	85 c9		 test	 ecx, ecx
  003a2	74 09		 je	 SHORT $LN48@response_t
  003a4	c7 45 8c 97 00
	00 00		 mov	 DWORD PTR tv244[ebp], 151 ; 00000097H
  003ab	eb 21		 jmp	 SHORT $LN49@response_t
$LN48@response_t:
  003ad	8b 15 00 00 00
	00		 mov	 edx, DWORD PTR ?__LINE__Var@?0??response_to_waypoint_landed_reached@@YGHW4ENTITY_MESSAGES@@PAUENTITY@@1PAD@Z@4JA
  003b3	83 c2 3d	 add	 edx, 61			; 0000003dH
  003b6	52		 push	 edx
  003b7	68 00 00 00 00	 push	 OFFSET ??_C@_0EE@DLIIEJCN@c?3?2users?2nhv90?2projects?2eech?2ap@
  003bc	a1 00 00 00 00	 mov	 eax, DWORD PTR ?overload_invalid_int_type_message@@3PBDB ; overload_invalid_int_type_message
  003c1	50		 push	 eax
  003c2	e8 00 00 00 00	 call	 ?process_assert@@YGXPBD0H@Z ; process_assert
  003c7	c7 45 8c 00 00
	00 00		 mov	 DWORD PTR tv244[ebp], 0
$LN49@response_t:
  003ce	6a 04		 push	 4
  003d0	68 97 00 00 00	 push	 151			; 00000097H
  003d5	8b 4d 0c	 mov	 ecx, DWORD PTR _receiver$[ebp]
  003d8	51		 push	 ecx
  003d9	69 55 90 b8 08
	00 00		 imul	 edx, DWORD PTR tv236[ebp], 2232
  003e0	8b 45 8c	 mov	 eax, DWORD PTR tv244[ebp]
  003e3	8d 8c c2 00 00
	00 00		 lea	 ecx, DWORD PTR ?fn_set_client_server_entity_int_value@@3PAY1BBH@1P6GXPAUENTITY@@W4INT_TYPES@@H@ZA[edx+eax*8]
  003ea	8b 15 00 00 00
	00		 mov	 edx, DWORD PTR ?system_comms_model@@3W4COMMS_MODEL_TYPES@@A ; system_comms_model
  003f0	8b 04 91	 mov	 eax, DWORD PTR [ecx+edx*4]
  003f3	ff d0		 call	 eax
$LN7@response_t:

; 1324 : 	}
; 1325 : 
; 1326 : 	notify_local_entity (ENTITY_MESSAGE_TASK_TERMINATED, landing_en, receiver, TASK_TERMINATED_WAYPOINT_ROUTE_COMPLETE);

  003f5	6a 06		 push	 6
  003f7	8b 45 0c	 mov	 eax, DWORD PTR _receiver$[ebp]
  003fa	50		 push	 eax
  003fb	8b 4d e8	 mov	 ecx, DWORD PTR _landing_en$[ebp]
  003fe	51		 push	 ecx
  003ff	6a 36		 push	 54			; 00000036H
  00401	e8 00 00 00 00	 call	 ?notify_local_entity@@YAHW4ENTITY_MESSAGES@@PAUENTITY@@1ZZ ; notify_local_entity
  00406	83 c4 10	 add	 esp, 16			; 00000010H

; 1327 : 
; 1328 : 	/////////////////////////////////////////////////////////////////
; 1329 : 	//
; 1330 : 	// Refuel / Re-arm / Repair
; 1331 : 	//
; 1332 : 	/////////////////////////////////////////////////////////////////
; 1333 : 
; 1334 : 	ASSERT (landing_en->type == ENTITY_TYPE_LANDING);

  00409	8b 45 e8	 mov	 eax, DWORD PTR _landing_en$[ebp]
  0040c	83 38 10	 cmp	 DWORD PTR [eax], 16	; 00000010H
  0040f	74 18		 je	 SHORT $LN8@response_t
  00411	a1 00 00 00 00	 mov	 eax, DWORD PTR ?__LINE__Var@?0??response_to_waypoint_landed_reached@@YGHW4ENTITY_MESSAGES@@PAUENTITY@@1PAD@Z@4JA
  00416	83 c0 48	 add	 eax, 72			; 00000048H
  00419	50		 push	 eax
  0041a	68 00 00 00 00	 push	 OFFSET ??_C@_0EE@DLIIEJCN@c?3?2users?2nhv90?2projects?2eech?2ap@
  0041f	68 00 00 00 00	 push	 OFFSET ??_C@_0CI@GEHIFODJ@landing_en?9?$DOtype?5?$DN?$DN?5ENTITY_TYPE@
  00424	e8 00 00 00 00	 call	 ?process_assert@@YGXPBD0H@Z ; process_assert
$LN8@response_t:

; 1335 : 
; 1336 : 	keysite = get_local_entity_parent (landing_en, LIST_TYPE_LANDING_SITE);

  00429	83 7d e8 00	 cmp	 DWORD PTR _landing_en$[ebp], 0
  0042d	74 0a		 je	 SHORT $LN50@response_t
  0042f	8b 45 e8	 mov	 eax, DWORD PTR _landing_en$[ebp]
  00432	8b 08		 mov	 ecx, DWORD PTR [eax]
  00434	89 4d 90	 mov	 DWORD PTR tv268[ebp], ecx
  00437	eb 21		 jmp	 SHORT $LN51@response_t
$LN50@response_t:
  00439	8b 15 00 00 00
	00		 mov	 edx, DWORD PTR ?__LINE__Var@?0??response_to_waypoint_landed_reached@@YGHW4ENTITY_MESSAGES@@PAUENTITY@@1PAD@Z@4JA
  0043f	83 c2 4a	 add	 edx, 74			; 0000004aH
  00442	52		 push	 edx
  00443	68 00 00 00 00	 push	 OFFSET ??_C@_0EE@DLIIEJCN@c?3?2users?2nhv90?2projects?2eech?2ap@
  00448	a1 00 00 00 00	 mov	 eax, DWORD PTR ?null_entity_pointer_message@@3PBDB ; null_entity_pointer_message
  0044d	50		 push	 eax
  0044e	e8 00 00 00 00	 call	 ?process_assert@@YGXPBD0H@Z ; process_assert
  00453	c7 45 90 00 00
	00 00		 mov	 DWORD PTR tv268[ebp], 0
$LN51@response_t:
  0045a	b9 01 00 00 00	 mov	 ecx, 1
  0045f	85 c9		 test	 ecx, ecx
  00461	74 09		 je	 SHORT $LN52@response_t
  00463	c7 45 8c 17 00
	00 00		 mov	 DWORD PTR tv276[ebp], 23 ; 00000017H
  0046a	eb 21		 jmp	 SHORT $LN53@response_t
$LN52@response_t:
  0046c	8b 15 00 00 00
	00		 mov	 edx, DWORD PTR ?__LINE__Var@?0??response_to_waypoint_landed_reached@@YGHW4ENTITY_MESSAGES@@PAUENTITY@@1PAD@Z@4JA
  00472	83 c2 4a	 add	 edx, 74			; 0000004aH
  00475	52		 push	 edx
  00476	68 00 00 00 00	 push	 OFFSET ??_C@_0EE@DLIIEJCN@c?3?2users?2nhv90?2projects?2eech?2ap@
  0047b	a1 00 00 00 00	 mov	 eax, DWORD PTR ?overload_invalid_list_type_message@@3PBDB ; overload_invalid_list_type_message
  00480	50		 push	 eax
  00481	e8 00 00 00 00	 call	 ?process_assert@@YGXPBD0H@Z ; process_assert
  00486	c7 45 8c 00 00
	00 00		 mov	 DWORD PTR tv276[ebp], 0
$LN53@response_t:
  0048d	6a 17		 push	 23			; 00000017H
  0048f	8b 4d e8	 mov	 ecx, DWORD PTR _landing_en$[ebp]
  00492	51		 push	 ecx
  00493	69 55 90 b4 00
	00 00		 imul	 edx, DWORD PTR tv268[ebp], 180
  0049a	8b 45 8c	 mov	 eax, DWORD PTR tv276[ebp]
  0049d	8b 8c 82 00 00
	00 00		 mov	 ecx, DWORD PTR ?fn_get_local_entity_parent@@3PAY0CN@P6GPAUENTITY@@PAU1@W4LIST_TYPES@@@ZA[edx+eax*4]
  004a4	ff d1		 call	 ecx
  004a6	89 45 ec	 mov	 DWORD PTR _keysite$[ebp], eax

; 1337 : 
; 1338 : 	ASSERT (keysite);

  004a9	83 7d ec 00	 cmp	 DWORD PTR _keysite$[ebp], 0
  004ad	75 18		 jne	 SHORT $LN9@response_t
  004af	a1 00 00 00 00	 mov	 eax, DWORD PTR ?__LINE__Var@?0??response_to_waypoint_landed_reached@@YGHW4ENTITY_MESSAGES@@PAUENTITY@@1PAD@Z@4JA
  004b4	83 c0 4c	 add	 eax, 76			; 0000004cH
  004b7	50		 push	 eax
  004b8	68 00 00 00 00	 push	 OFFSET ??_C@_0EE@DLIIEJCN@c?3?2users?2nhv90?2projects?2eech?2ap@
  004bd	68 00 00 00 00	 push	 OFFSET ??_C@_07FBNBNOMI@keysite@
  004c2	e8 00 00 00 00	 call	 ?process_assert@@YGXPBD0H@Z ; process_assert
$LN9@response_t:

; 1339 : 
; 1340 : 	if ((get_local_entity_int_value (receiver, INT_TYPE_PLAYER) == ENTITY_PLAYER_AI) &&

  004c7	83 7d 0c 00	 cmp	 DWORD PTR _receiver$[ebp], 0
  004cb	74 0a		 je	 SHORT $LN54@response_t
  004cd	8b 45 0c	 mov	 eax, DWORD PTR _receiver$[ebp]
  004d0	8b 08		 mov	 ecx, DWORD PTR [eax]
  004d2	89 4d 90	 mov	 DWORD PTR tv292[ebp], ecx
  004d5	eb 1d		 jmp	 SHORT $LN55@response_t
$LN54@response_t:
  004d7	68 3c 05 00 00	 push	 1340			; 0000053cH
  004dc	68 00 00 00 00	 push	 OFFSET ??_C@_0EE@DLIIEJCN@c?3?2users?2nhv90?2projects?2eech?2ap@
  004e1	8b 15 00 00 00
	00		 mov	 edx, DWORD PTR ?null_entity_pointer_message@@3PBDB ; null_entity_pointer_message
  004e7	52		 push	 edx
  004e8	e8 00 00 00 00	 call	 ?process_assert@@YGXPBD0H@Z ; process_assert
  004ed	c7 45 90 00 00
	00 00		 mov	 DWORD PTR tv292[ebp], 0
$LN55@response_t:
  004f4	b8 01 00 00 00	 mov	 eax, 1
  004f9	85 c0		 test	 eax, eax
  004fb	74 09		 je	 SHORT $LN56@response_t
  004fd	c7 45 8c 9c 00
	00 00		 mov	 DWORD PTR tv299[ebp], 156 ; 0000009cH
  00504	eb 1d		 jmp	 SHORT $LN57@response_t
$LN56@response_t:
  00506	68 3c 05 00 00	 push	 1340			; 0000053cH
  0050b	68 00 00 00 00	 push	 OFFSET ??_C@_0EE@DLIIEJCN@c?3?2users?2nhv90?2projects?2eech?2ap@
  00510	8b 0d 00 00 00
	00		 mov	 ecx, DWORD PTR ?overload_invalid_int_type_message@@3PBDB ; overload_invalid_int_type_message
  00516	51		 push	 ecx
  00517	e8 00 00 00 00	 call	 ?process_assert@@YGXPBD0H@Z ; process_assert
  0051c	c7 45 8c 00 00
	00 00		 mov	 DWORD PTR tv299[ebp], 0
$LN57@response_t:
  00523	68 9c 00 00 00	 push	 156			; 0000009cH
  00528	8b 55 0c	 mov	 edx, DWORD PTR _receiver$[ebp]
  0052b	52		 push	 edx
  0052c	69 45 90 5c 04
	00 00		 imul	 eax, DWORD PTR tv292[ebp], 1116
  00533	8b 4d 8c	 mov	 ecx, DWORD PTR tv299[ebp]
  00536	8b 94 88 00 00
	00 00		 mov	 edx, DWORD PTR ?fn_get_local_entity_int_value@@3PAY0BBH@P6GHPAUENTITY@@W4INT_TYPES@@@ZA[eax+ecx*4]
  0053d	ff d2		 call	 edx
  0053f	85 c0		 test	 eax, eax
  00541	0f 85 fa 07 00
	00		 jne	 $LN10@response_t
  00547	83 7d f4 00	 cmp	 DWORD PTR _group$[ebp], 0
  0054b	74 0a		 je	 SHORT $LN58@response_t
  0054d	8b 45 f4	 mov	 eax, DWORD PTR _group$[ebp]
  00550	8b 08		 mov	 ecx, DWORD PTR [eax]
  00552	89 4d 90	 mov	 DWORD PTR tv311[ebp], ecx
  00555	eb 1d		 jmp	 SHORT $LN59@response_t
$LN58@response_t:
  00557	68 3d 05 00 00	 push	 1341			; 0000053dH
  0055c	68 00 00 00 00	 push	 OFFSET ??_C@_0EE@DLIIEJCN@c?3?2users?2nhv90?2projects?2eech?2ap@
  00561	8b 15 00 00 00
	00		 mov	 edx, DWORD PTR ?null_entity_pointer_message@@3PBDB ; null_entity_pointer_message
  00567	52		 push	 edx
  00568	e8 00 00 00 00	 call	 ?process_assert@@YGXPBD0H@Z ; process_assert
  0056d	c7 45 90 00 00
	00 00		 mov	 DWORD PTR tv311[ebp], 0
$LN59@response_t:
  00574	b8 01 00 00 00	 mov	 eax, 1
  00579	85 c0		 test	 eax, eax
  0057b	74 09		 je	 SHORT $LN60@response_t
  0057d	c7 45 8c b0 00
	00 00		 mov	 DWORD PTR tv318[ebp], 176 ; 000000b0H
  00584	eb 1d		 jmp	 SHORT $LN61@response_t
$LN60@response_t:
  00586	68 3d 05 00 00	 push	 1341			; 0000053dH
  0058b	68 00 00 00 00	 push	 OFFSET ??_C@_0EE@DLIIEJCN@c?3?2users?2nhv90?2projects?2eech?2ap@
  00590	8b 0d 00 00 00
	00		 mov	 ecx, DWORD PTR ?overload_invalid_int_type_message@@3PBDB ; overload_invalid_int_type_message
  00596	51		 push	 ecx
  00597	e8 00 00 00 00	 call	 ?process_assert@@YGXPBD0H@Z ; process_assert
  0059c	c7 45 8c 00 00
	00 00		 mov	 DWORD PTR tv318[ebp], 0
$LN61@response_t:
  005a3	68 b0 00 00 00	 push	 176			; 000000b0H
  005a8	8b 55 f4	 mov	 edx, DWORD PTR _group$[ebp]
  005ab	52		 push	 edx
  005ac	69 45 90 5c 04
	00 00		 imul	 eax, DWORD PTR tv311[ebp], 1116
  005b3	8b 4d 8c	 mov	 ecx, DWORD PTR tv318[ebp]
  005b6	8b 94 88 00 00
	00 00		 mov	 edx, DWORD PTR ?fn_get_local_entity_int_value@@3PAY0BBH@P6GHPAUENTITY@@W4INT_TYPES@@@ZA[eax+ecx*4]
  005bd	ff d2		 call	 edx
  005bf	83 f8 01	 cmp	 eax, 1
  005c2	0f 85 79 07 00
	00		 jne	 $LN10@response_t

; 1341 : 		(get_local_entity_int_value (group, INT_TYPE_RESUPPLY_SOURCE) == RESUPPLY_SOURCE_KEYSITE))
; 1342 : 	{
; 1343 : 
; 1344 : 		float
; 1345 : 			fuel,
; 1346 : 			ammo;
; 1347 : 
; 1348 : 		weapon_config_types
; 1349 : 			config_type;
; 1350 : 
; 1351 : 		//
; 1352 : 		// fuel
; 1353 : 		//
; 1354 : 	
; 1355 : 		fuel = get_local_entity_float_value (group, FLOAT_TYPE_FUEL_SUPPLY_LEVEL);

  005c8	83 7d f4 00	 cmp	 DWORD PTR _group$[ebp], 0
  005cc	74 0a		 je	 SHORT $LN62@response_t
  005ce	8b 45 f4	 mov	 eax, DWORD PTR _group$[ebp]
  005d1	8b 08		 mov	 ecx, DWORD PTR [eax]
  005d3	89 4d 90	 mov	 DWORD PTR tv331[ebp], ecx
  005d6	eb 21		 jmp	 SHORT $LN63@response_t
$LN62@response_t:
  005d8	8b 15 00 00 00
	00		 mov	 edx, DWORD PTR ?__LINE__Var@?0??response_to_waypoint_landed_reached@@YGHW4ENTITY_MESSAGES@@PAUENTITY@@1PAD@Z@4JA
  005de	83 c2 5d	 add	 edx, 93			; 0000005dH
  005e1	52		 push	 edx
  005e2	68 00 00 00 00	 push	 OFFSET ??_C@_0EE@DLIIEJCN@c?3?2users?2nhv90?2projects?2eech?2ap@
  005e7	a1 00 00 00 00	 mov	 eax, DWORD PTR ?null_entity_pointer_message@@3PBDB ; null_entity_pointer_message
  005ec	50		 push	 eax
  005ed	e8 00 00 00 00	 call	 ?process_assert@@YGXPBD0H@Z ; process_assert
  005f2	c7 45 90 00 00
	00 00		 mov	 DWORD PTR tv331[ebp], 0
$LN63@response_t:
  005f9	b9 01 00 00 00	 mov	 ecx, 1
  005fe	85 c9		 test	 ecx, ecx
  00600	74 09		 je	 SHORT $LN64@response_t
  00602	c7 45 8c 30 00
	00 00		 mov	 DWORD PTR tv339[ebp], 48 ; 00000030H
  00609	eb 21		 jmp	 SHORT $LN65@response_t
$LN64@response_t:
  0060b	8b 15 00 00 00
	00		 mov	 edx, DWORD PTR ?__LINE__Var@?0??response_to_waypoint_landed_reached@@YGHW4ENTITY_MESSAGES@@PAUENTITY@@1PAD@Z@4JA
  00611	83 c2 5d	 add	 edx, 93			; 0000005dH
  00614	52		 push	 edx
  00615	68 00 00 00 00	 push	 OFFSET ??_C@_0EE@DLIIEJCN@c?3?2users?2nhv90?2projects?2eech?2ap@
  0061a	a1 00 00 00 00	 mov	 eax, DWORD PTR ?overload_invalid_float_type_message@@3PBDB ; overload_invalid_float_type_message
  0061f	50		 push	 eax
  00620	e8 00 00 00 00	 call	 ?process_assert@@YGXPBD0H@Z ; process_assert
  00625	c7 45 8c 00 00
	00 00		 mov	 DWORD PTR tv339[ebp], 0
$LN65@response_t:
  0062c	6a 30		 push	 48			; 00000030H
  0062e	8b 4d f4	 mov	 ecx, DWORD PTR _group$[ebp]
  00631	51		 push	 ecx
  00632	69 55 90 bc 02
	00 00		 imul	 edx, DWORD PTR tv331[ebp], 700
  00639	8b 45 8c	 mov	 eax, DWORD PTR tv339[ebp]
  0063c	8b 8c 82 00 00
	00 00		 mov	 ecx, DWORD PTR ?fn_get_local_entity_float_value@@3PAY0KP@P6GMPAUENTITY@@W4FLOAT_TYPES@@@ZA[edx+eax*4]
  00643	ff d1		 call	 ecx
  00645	d9 5d dc	 fstp	 DWORD PTR _fuel$3[ebp]

; 1356 : 
; 1357 : 		fuel -= get_local_entity_float_value (receiver, FLOAT_TYPE_FUEL_ECONOMY) * FUEL_USAGE_ACCELERATOR;

  00648	83 7d 0c 00	 cmp	 DWORD PTR _receiver$[ebp], 0
  0064c	74 0a		 je	 SHORT $LN66@response_t
  0064e	8b 45 0c	 mov	 eax, DWORD PTR _receiver$[ebp]
  00651	8b 08		 mov	 ecx, DWORD PTR [eax]
  00653	89 4d 90	 mov	 DWORD PTR tv351[ebp], ecx
  00656	eb 21		 jmp	 SHORT $LN67@response_t
$LN66@response_t:
  00658	8b 15 00 00 00
	00		 mov	 edx, DWORD PTR ?__LINE__Var@?0??response_to_waypoint_landed_reached@@YGHW4ENTITY_MESSAGES@@PAUENTITY@@1PAD@Z@4JA
  0065e	83 c2 5f	 add	 edx, 95			; 0000005fH
  00661	52		 push	 edx
  00662	68 00 00 00 00	 push	 OFFSET ??_C@_0EE@DLIIEJCN@c?3?2users?2nhv90?2projects?2eech?2ap@
  00667	a1 00 00 00 00	 mov	 eax, DWORD PTR ?null_entity_pointer_message@@3PBDB ; null_entity_pointer_message
  0066c	50		 push	 eax
  0066d	e8 00 00 00 00	 call	 ?process_assert@@YGXPBD0H@Z ; process_assert
  00672	c7 45 90 00 00
	00 00		 mov	 DWORD PTR tv351[ebp], 0
$LN67@response_t:
  00679	b9 01 00 00 00	 mov	 ecx, 1
  0067e	85 c9		 test	 ecx, ecx
  00680	74 09		 je	 SHORT $LN68@response_t
  00682	c7 45 8c 2f 00
	00 00		 mov	 DWORD PTR tv359[ebp], 47 ; 0000002fH
  00689	eb 21		 jmp	 SHORT $LN69@response_t
$LN68@response_t:
  0068b	8b 15 00 00 00
	00		 mov	 edx, DWORD PTR ?__LINE__Var@?0??response_to_waypoint_landed_reached@@YGHW4ENTITY_MESSAGES@@PAUENTITY@@1PAD@Z@4JA
  00691	83 c2 5f	 add	 edx, 95			; 0000005fH
  00694	52		 push	 edx
  00695	68 00 00 00 00	 push	 OFFSET ??_C@_0EE@DLIIEJCN@c?3?2users?2nhv90?2projects?2eech?2ap@
  0069a	a1 00 00 00 00	 mov	 eax, DWORD PTR ?overload_invalid_float_type_message@@3PBDB ; overload_invalid_float_type_message
  0069f	50		 push	 eax
  006a0	e8 00 00 00 00	 call	 ?process_assert@@YGXPBD0H@Z ; process_assert
  006a5	c7 45 8c 00 00
	00 00		 mov	 DWORD PTR tv359[ebp], 0
$LN69@response_t:
  006ac	6a 2f		 push	 47			; 0000002fH
  006ae	8b 4d 0c	 mov	 ecx, DWORD PTR _receiver$[ebp]
  006b1	51		 push	 ecx
  006b2	69 55 90 bc 02
	00 00		 imul	 edx, DWORD PTR tv351[ebp], 700
  006b9	8b 45 8c	 mov	 eax, DWORD PTR tv359[ebp]
  006bc	8b 8c 82 00 00
	00 00		 mov	 ecx, DWORD PTR ?fn_get_local_entity_float_value@@3PAY0KP@P6GMPAUENTITY@@W4FLOAT_TYPES@@@ZA[edx+eax*4]
  006c3	ff d1		 call	 ecx
  006c5	dd 5d 84	 fstp	 QWORD PTR tv1111[ebp]
  006c8	f2 0f 10 45 84	 movsd	 xmm0, QWORD PTR tv1111[ebp]
  006cd	f2 0f 59 05 00
	00 00 00	 mulsd	 xmm0, QWORD PTR __real@3ff0000000000000
  006d5	f3 0f 5a 4d dc	 cvtss2sd xmm1, DWORD PTR _fuel$3[ebp]
  006da	f2 0f 5c c8	 subsd	 xmm1, xmm0
  006de	f2 0f 5a c1	 cvtsd2ss xmm0, xmm1
  006e2	f3 0f 11 45 dc	 movss	 DWORD PTR _fuel$3[ebp], xmm0

; 1358 : 
; 1359 : 		fuel = bound (fuel, 0.0, 100.0);

  006e7	f3 0f 5a 45 dc	 cvtss2sd xmm0, DWORD PTR _fuel$3[ebp]
  006ec	0f 57 c9	 xorps	 xmm1, xmm1
  006ef	66 0f 2f c8	 comisd	 xmm1, xmm0
  006f3	76 0a		 jbe	 SHORT $LN72@response_t
  006f5	0f 57 c0	 xorps	 xmm0, xmm0
  006f8	f2 0f 11 45 8c	 movsd	 QWORD PTR tv376[ebp], xmm0
  006fd	eb 32		 jmp	 SHORT $LN73@response_t
$LN72@response_t:
  006ff	f3 0f 5a 45 dc	 cvtss2sd xmm0, DWORD PTR _fuel$3[ebp]
  00704	66 0f 2f 05 00
	00 00 00	 comisd	 xmm0, QWORD PTR __real@4059000000000000
  0070c	76 0f		 jbe	 SHORT $LN70@response_t
  0070e	f2 0f 10 05 00
	00 00 00	 movsd	 xmm0, QWORD PTR __real@4059000000000000
  00716	f2 0f 11 45 84	 movsd	 QWORD PTR tv375[ebp], xmm0
  0071b	eb 0a		 jmp	 SHORT $LN71@response_t
$LN70@response_t:
  0071d	f3 0f 5a 45 dc	 cvtss2sd xmm0, DWORD PTR _fuel$3[ebp]
  00722	f2 0f 11 45 84	 movsd	 QWORD PTR tv375[ebp], xmm0
$LN71@response_t:
  00727	f2 0f 10 45 84	 movsd	 xmm0, QWORD PTR tv375[ebp]
  0072c	f2 0f 11 45 8c	 movsd	 QWORD PTR tv376[ebp], xmm0
$LN73@response_t:
  00731	f2 0f 5a 45 8c	 cvtsd2ss xmm0, QWORD PTR tv376[ebp]
  00736	f3 0f 11 45 dc	 movss	 DWORD PTR _fuel$3[ebp], xmm0

; 1360 : 
; 1361 : 		set_client_server_entity_float_value (group, FLOAT_TYPE_FUEL_SUPPLY_LEVEL, fuel);

  0073b	83 7d f4 00	 cmp	 DWORD PTR _group$[ebp], 0
  0073f	74 0a		 je	 SHORT $LN74@response_t
  00741	8b 45 f4	 mov	 eax, DWORD PTR _group$[ebp]
  00744	8b 08		 mov	 ecx, DWORD PTR [eax]
  00746	89 4d 90	 mov	 DWORD PTR tv384[ebp], ecx
  00749	eb 21		 jmp	 SHORT $LN75@response_t
$LN74@response_t:
  0074b	8b 15 00 00 00
	00		 mov	 edx, DWORD PTR ?__LINE__Var@?0??response_to_waypoint_landed_reached@@YGHW4ENTITY_MESSAGES@@PAUENTITY@@1PAD@Z@4JA
  00751	83 c2 63	 add	 edx, 99			; 00000063H
  00754	52		 push	 edx
  00755	68 00 00 00 00	 push	 OFFSET ??_C@_0EE@DLIIEJCN@c?3?2users?2nhv90?2projects?2eech?2ap@
  0075a	a1 00 00 00 00	 mov	 eax, DWORD PTR ?null_entity_pointer_message@@3PBDB ; null_entity_pointer_message
  0075f	50		 push	 eax
  00760	e8 00 00 00 00	 call	 ?process_assert@@YGXPBD0H@Z ; process_assert
  00765	c7 45 90 00 00
	00 00		 mov	 DWORD PTR tv384[ebp], 0
$LN75@response_t:
  0076c	b9 01 00 00 00	 mov	 ecx, 1
  00771	85 c9		 test	 ecx, ecx
  00773	74 09		 je	 SHORT $LN76@response_t
  00775	c7 45 8c 30 00
	00 00		 mov	 DWORD PTR tv392[ebp], 48 ; 00000030H
  0077c	eb 21		 jmp	 SHORT $LN77@response_t
$LN76@response_t:
  0077e	8b 15 00 00 00
	00		 mov	 edx, DWORD PTR ?__LINE__Var@?0??response_to_waypoint_landed_reached@@YGHW4ENTITY_MESSAGES@@PAUENTITY@@1PAD@Z@4JA
  00784	83 c2 63	 add	 edx, 99			; 00000063H
  00787	52		 push	 edx
  00788	68 00 00 00 00	 push	 OFFSET ??_C@_0EE@DLIIEJCN@c?3?2users?2nhv90?2projects?2eech?2ap@
  0078d	a1 00 00 00 00	 mov	 eax, DWORD PTR ?overload_invalid_float_type_message@@3PBDB ; overload_invalid_float_type_message
  00792	50		 push	 eax
  00793	e8 00 00 00 00	 call	 ?process_assert@@YGXPBD0H@Z ; process_assert
  00798	c7 45 8c 00 00
	00 00		 mov	 DWORD PTR tv392[ebp], 0
$LN77@response_t:
  0079f	51		 push	 ecx
  007a0	f3 0f 10 45 dc	 movss	 xmm0, DWORD PTR _fuel$3[ebp]
  007a5	f3 0f 11 04 24	 movss	 DWORD PTR [esp], xmm0
  007aa	6a 30		 push	 48			; 00000030H
  007ac	8b 4d f4	 mov	 ecx, DWORD PTR _group$[ebp]
  007af	51		 push	 ecx
  007b0	69 55 90 78 05
	00 00		 imul	 edx, DWORD PTR tv384[ebp], 1400
  007b7	8b 45 8c	 mov	 eax, DWORD PTR tv392[ebp]
  007ba	8d 8c c2 00 00
	00 00		 lea	 ecx, DWORD PTR ?fn_set_client_server_entity_float_value@@3PAY1KP@1P6GXPAUENTITY@@W4FLOAT_TYPES@@M@ZA[edx+eax*8]
  007c1	8b 15 00 00 00
	00		 mov	 edx, DWORD PTR ?system_comms_model@@3W4COMMS_MODEL_TYPES@@A ; system_comms_model
  007c7	8b 04 91	 mov	 eax, DWORD PTR [ecx+edx*4]
  007ca	ff d0		 call	 eax

; 1362 : 
; 1363 : 		set_client_server_entity_float_value (receiver, FLOAT_TYPE_FUEL_SUPPLY_LEVEL, get_local_entity_float_value (receiver, FLOAT_TYPE_FUEL_DEFAULT_WEIGHT));

  007cc	83 7d 0c 00	 cmp	 DWORD PTR _receiver$[ebp], 0
  007d0	74 0a		 je	 SHORT $LN82@response_t
  007d2	8b 45 0c	 mov	 eax, DWORD PTR _receiver$[ebp]
  007d5	8b 08		 mov	 ecx, DWORD PTR [eax]
  007d7	89 4d 90	 mov	 DWORD PTR tv425[ebp], ecx
  007da	eb 21		 jmp	 SHORT $LN83@response_t
$LN82@response_t:
  007dc	8b 15 00 00 00
	00		 mov	 edx, DWORD PTR ?__LINE__Var@?0??response_to_waypoint_landed_reached@@YGHW4ENTITY_MESSAGES@@PAUENTITY@@1PAD@Z@4JA
  007e2	83 c2 65	 add	 edx, 101		; 00000065H
  007e5	52		 push	 edx
  007e6	68 00 00 00 00	 push	 OFFSET ??_C@_0EE@DLIIEJCN@c?3?2users?2nhv90?2projects?2eech?2ap@
  007eb	a1 00 00 00 00	 mov	 eax, DWORD PTR ?null_entity_pointer_message@@3PBDB ; null_entity_pointer_message
  007f0	50		 push	 eax
  007f1	e8 00 00 00 00	 call	 ?process_assert@@YGXPBD0H@Z ; process_assert
  007f6	c7 45 90 00 00
	00 00		 mov	 DWORD PTR tv425[ebp], 0
$LN83@response_t:
  007fd	b9 01 00 00 00	 mov	 ecx, 1
  00802	85 c9		 test	 ecx, ecx
  00804	74 09		 je	 SHORT $LN84@response_t
  00806	c7 45 8c 2e 00
	00 00		 mov	 DWORD PTR tv433[ebp], 46 ; 0000002eH
  0080d	eb 21		 jmp	 SHORT $LN85@response_t
$LN84@response_t:
  0080f	8b 15 00 00 00
	00		 mov	 edx, DWORD PTR ?__LINE__Var@?0??response_to_waypoint_landed_reached@@YGHW4ENTITY_MESSAGES@@PAUENTITY@@1PAD@Z@4JA
  00815	83 c2 65	 add	 edx, 101		; 00000065H
  00818	52		 push	 edx
  00819	68 00 00 00 00	 push	 OFFSET ??_C@_0EE@DLIIEJCN@c?3?2users?2nhv90?2projects?2eech?2ap@
  0081e	a1 00 00 00 00	 mov	 eax, DWORD PTR ?overload_invalid_float_type_message@@3PBDB ; overload_invalid_float_type_message
  00823	50		 push	 eax
  00824	e8 00 00 00 00	 call	 ?process_assert@@YGXPBD0H@Z ; process_assert
  00829	c7 45 8c 00 00
	00 00		 mov	 DWORD PTR tv433[ebp], 0
$LN85@response_t:
  00830	83 7d 0c 00	 cmp	 DWORD PTR _receiver$[ebp], 0
  00834	74 0a		 je	 SHORT $LN78@response_t
  00836	8b 4d 0c	 mov	 ecx, DWORD PTR _receiver$[ebp]
  00839	8b 11		 mov	 edx, DWORD PTR [ecx]
  0083b	89 55 88	 mov	 DWORD PTR tv406[ebp], edx
  0083e	eb 21		 jmp	 SHORT $LN79@response_t
$LN78@response_t:
  00840	a1 00 00 00 00	 mov	 eax, DWORD PTR ?__LINE__Var@?0??response_to_waypoint_landed_reached@@YGHW4ENTITY_MESSAGES@@PAUENTITY@@1PAD@Z@4JA
  00845	83 c0 65	 add	 eax, 101		; 00000065H
  00848	50		 push	 eax
  00849	68 00 00 00 00	 push	 OFFSET ??_C@_0EE@DLIIEJCN@c?3?2users?2nhv90?2projects?2eech?2ap@
  0084e	8b 0d 00 00 00
	00		 mov	 ecx, DWORD PTR ?null_entity_pointer_message@@3PBDB ; null_entity_pointer_message
  00854	51		 push	 ecx
  00855	e8 00 00 00 00	 call	 ?process_assert@@YGXPBD0H@Z ; process_assert
  0085a	c7 45 88 00 00
	00 00		 mov	 DWORD PTR tv406[ebp], 0
$LN79@response_t:
  00861	ba 01 00 00 00	 mov	 edx, 1
  00866	85 d2		 test	 edx, edx
  00868	74 09		 je	 SHORT $LN80@response_t
  0086a	c7 45 84 30 00
	00 00		 mov	 DWORD PTR tv414[ebp], 48 ; 00000030H
  00871	eb 21		 jmp	 SHORT $LN81@response_t
$LN80@response_t:
  00873	a1 00 00 00 00	 mov	 eax, DWORD PTR ?__LINE__Var@?0??response_to_waypoint_landed_reached@@YGHW4ENTITY_MESSAGES@@PAUENTITY@@1PAD@Z@4JA
  00878	83 c0 65	 add	 eax, 101		; 00000065H
  0087b	50		 push	 eax
  0087c	68 00 00 00 00	 push	 OFFSET ??_C@_0EE@DLIIEJCN@c?3?2users?2nhv90?2projects?2eech?2ap@
  00881	8b 0d 00 00 00
	00		 mov	 ecx, DWORD PTR ?overload_invalid_float_type_message@@3PBDB ; overload_invalid_float_type_message
  00887	51		 push	 ecx
  00888	e8 00 00 00 00	 call	 ?process_assert@@YGXPBD0H@Z ; process_assert
  0088d	c7 45 84 00 00
	00 00		 mov	 DWORD PTR tv414[ebp], 0
$LN81@response_t:
  00894	6a 2e		 push	 46			; 0000002eH
  00896	8b 55 0c	 mov	 edx, DWORD PTR _receiver$[ebp]
  00899	52		 push	 edx
  0089a	69 45 90 bc 02
	00 00		 imul	 eax, DWORD PTR tv425[ebp], 700
  008a1	8b 4d 8c	 mov	 ecx, DWORD PTR tv433[ebp]
  008a4	8b 94 88 00 00
	00 00		 mov	 edx, DWORD PTR ?fn_get_local_entity_float_value@@3PAY0KP@P6GMPAUENTITY@@W4FLOAT_TYPES@@@ZA[eax+ecx*4]
  008ab	ff d2		 call	 edx
  008ad	d9 5d 80	 fstp	 DWORD PTR tv1151[ebp]
  008b0	f3 0f 10 45 80	 movss	 xmm0, DWORD PTR tv1151[ebp]
  008b5	51		 push	 ecx
  008b6	f3 0f 11 04 24	 movss	 DWORD PTR [esp], xmm0
  008bb	6a 30		 push	 48			; 00000030H
  008bd	8b 45 0c	 mov	 eax, DWORD PTR _receiver$[ebp]
  008c0	50		 push	 eax
  008c1	69 4d 88 78 05
	00 00		 imul	 ecx, DWORD PTR tv406[ebp], 1400
  008c8	8b 55 84	 mov	 edx, DWORD PTR tv414[ebp]
  008cb	8d 84 d1 00 00
	00 00		 lea	 eax, DWORD PTR ?fn_set_client_server_entity_float_value@@3PAY1KP@1P6GXPAUENTITY@@W4FLOAT_TYPES@@M@ZA[ecx+edx*8]
  008d2	8b 0d 00 00 00
	00		 mov	 ecx, DWORD PTR ?system_comms_model@@3W4COMMS_MODEL_TYPES@@A ; system_comms_model
  008d8	8b 14 88	 mov	 edx, DWORD PTR [eax+ecx*4]
  008db	ff d2		 call	 edx

; 1364 : 	
; 1365 : 		//
; 1366 : 		// ammo
; 1367 : 		//
; 1368 : 	
; 1369 : 		config_type = (weapon_config_types) get_local_entity_int_value (receiver, INT_TYPE_WEAPON_CONFIG_TYPE);

  008dd	83 7d 0c 00	 cmp	 DWORD PTR _receiver$[ebp], 0
  008e1	74 0a		 je	 SHORT $LN86@response_t
  008e3	8b 45 0c	 mov	 eax, DWORD PTR _receiver$[ebp]
  008e6	8b 08		 mov	 ecx, DWORD PTR [eax]
  008e8	89 4d 90	 mov	 DWORD PTR tv450[ebp], ecx
  008eb	eb 21		 jmp	 SHORT $LN87@response_t
$LN86@response_t:
  008ed	8b 15 00 00 00
	00		 mov	 edx, DWORD PTR ?__LINE__Var@?0??response_to_waypoint_landed_reached@@YGHW4ENTITY_MESSAGES@@PAUENTITY@@1PAD@Z@4JA
  008f3	83 c2 6b	 add	 edx, 107		; 0000006bH
  008f6	52		 push	 edx
  008f7	68 00 00 00 00	 push	 OFFSET ??_C@_0EE@DLIIEJCN@c?3?2users?2nhv90?2projects?2eech?2ap@
  008fc	a1 00 00 00 00	 mov	 eax, DWORD PTR ?null_entity_pointer_message@@3PBDB ; null_entity_pointer_message
  00901	50		 push	 eax
  00902	e8 00 00 00 00	 call	 ?process_assert@@YGXPBD0H@Z ; process_assert
  00907	c7 45 90 00 00
	00 00		 mov	 DWORD PTR tv450[ebp], 0
$LN87@response_t:
  0090e	b9 01 00 00 00	 mov	 ecx, 1
  00913	85 c9		 test	 ecx, ecx
  00915	74 09		 je	 SHORT $LN88@response_t
  00917	c7 45 8c 05 01
	00 00		 mov	 DWORD PTR tv458[ebp], 261 ; 00000105H
  0091e	eb 21		 jmp	 SHORT $LN89@response_t
$LN88@response_t:
  00920	8b 15 00 00 00
	00		 mov	 edx, DWORD PTR ?__LINE__Var@?0??response_to_waypoint_landed_reached@@YGHW4ENTITY_MESSAGES@@PAUENTITY@@1PAD@Z@4JA
  00926	83 c2 6b	 add	 edx, 107		; 0000006bH
  00929	52		 push	 edx
  0092a	68 00 00 00 00	 push	 OFFSET ??_C@_0EE@DLIIEJCN@c?3?2users?2nhv90?2projects?2eech?2ap@
  0092f	a1 00 00 00 00	 mov	 eax, DWORD PTR ?overload_invalid_int_type_message@@3PBDB ; overload_invalid_int_type_message
  00934	50		 push	 eax
  00935	e8 00 00 00 00	 call	 ?process_assert@@YGXPBD0H@Z ; process_assert
  0093a	c7 45 8c 00 00
	00 00		 mov	 DWORD PTR tv458[ebp], 0
$LN89@response_t:
  00941	68 05 01 00 00	 push	 261			; 00000105H
  00946	8b 4d 0c	 mov	 ecx, DWORD PTR _receiver$[ebp]
  00949	51		 push	 ecx
  0094a	69 55 90 5c 04
	00 00		 imul	 edx, DWORD PTR tv450[ebp], 1116
  00951	8b 45 8c	 mov	 eax, DWORD PTR tv458[ebp]
  00954	8b 8c 82 00 00
	00 00		 mov	 ecx, DWORD PTR ?fn_get_local_entity_int_value@@3PAY0BBH@P6GHPAUENTITY@@W4INT_TYPES@@@ZA[edx+eax*4]
  0095b	ff d1		 call	 ecx
  0095d	89 45 d4	 mov	 DWORD PTR _config_type$1[ebp], eax

; 1370 : 	
; 1371 : 		if (config_type == WEAPON_CONFIG_TYPE_UNARMED)

  00960	83 7d d4 00	 cmp	 DWORD PTR _config_type$1[ebp], 0
  00964	0f 85 80 00 00
	00		 jne	 $LN11@response_t

; 1372 : 		{
; 1373 : 	
; 1374 : 			config_type = (weapon_config_types) get_local_entity_int_value (receiver, INT_TYPE_DEFAULT_WEAPON_CONFIG_TYPE);

  0096a	83 7d 0c 00	 cmp	 DWORD PTR _receiver$[ebp], 0
  0096e	74 0a		 je	 SHORT $LN90@response_t
  00970	8b 45 0c	 mov	 eax, DWORD PTR _receiver$[ebp]
  00973	8b 08		 mov	 ecx, DWORD PTR [eax]
  00975	89 4d 90	 mov	 DWORD PTR tv471[ebp], ecx
  00978	eb 21		 jmp	 SHORT $LN91@response_t
$LN90@response_t:
  0097a	8b 15 00 00 00
	00		 mov	 edx, DWORD PTR ?__LINE__Var@?0??response_to_waypoint_landed_reached@@YGHW4ENTITY_MESSAGES@@PAUENTITY@@1PAD@Z@4JA
  00980	83 c2 70	 add	 edx, 112		; 00000070H
  00983	52		 push	 edx
  00984	68 00 00 00 00	 push	 OFFSET ??_C@_0EE@DLIIEJCN@c?3?2users?2nhv90?2projects?2eech?2ap@
  00989	a1 00 00 00 00	 mov	 eax, DWORD PTR ?null_entity_pointer_message@@3PBDB ; null_entity_pointer_message
  0098e	50		 push	 eax
  0098f	e8 00 00 00 00	 call	 ?process_assert@@YGXPBD0H@Z ; process_assert
  00994	c7 45 90 00 00
	00 00		 mov	 DWORD PTR tv471[ebp], 0
$LN91@response_t:
  0099b	b9 01 00 00 00	 mov	 ecx, 1
  009a0	85 c9		 test	 ecx, ecx
  009a2	74 09		 je	 SHORT $LN92@response_t
  009a4	c7 45 8c 2c 00
	00 00		 mov	 DWORD PTR tv479[ebp], 44 ; 0000002cH
  009ab	eb 21		 jmp	 SHORT $LN93@response_t
$LN92@response_t:
  009ad	8b 15 00 00 00
	00		 mov	 edx, DWORD PTR ?__LINE__Var@?0??response_to_waypoint_landed_reached@@YGHW4ENTITY_MESSAGES@@PAUENTITY@@1PAD@Z@4JA
  009b3	83 c2 70	 add	 edx, 112		; 00000070H
  009b6	52		 push	 edx
  009b7	68 00 00 00 00	 push	 OFFSET ??_C@_0EE@DLIIEJCN@c?3?2users?2nhv90?2projects?2eech?2ap@
  009bc	a1 00 00 00 00	 mov	 eax, DWORD PTR ?overload_invalid_int_type_message@@3PBDB ; overload_invalid_int_type_message
  009c1	50		 push	 eax
  009c2	e8 00 00 00 00	 call	 ?process_assert@@YGXPBD0H@Z ; process_assert
  009c7	c7 45 8c 00 00
	00 00		 mov	 DWORD PTR tv479[ebp], 0
$LN93@response_t:
  009ce	6a 2c		 push	 44			; 0000002cH
  009d0	8b 4d 0c	 mov	 ecx, DWORD PTR _receiver$[ebp]
  009d3	51		 push	 ecx
  009d4	69 55 90 5c 04
	00 00		 imul	 edx, DWORD PTR tv471[ebp], 1116
  009db	8b 45 8c	 mov	 eax, DWORD PTR tv479[ebp]
  009de	8b 8c 82 00 00
	00 00		 mov	 ecx, DWORD PTR ?fn_get_local_entity_int_value@@3PAY0BBH@P6GHPAUENTITY@@W4INT_TYPES@@@ZA[edx+eax*4]
  009e5	ff d1		 call	 ecx
  009e7	89 45 d4	 mov	 DWORD PTR _config_type$1[ebp], eax
$LN11@response_t:

; 1375 : 		}
; 1376 : 	
; 1377 : 		set_client_server_entity_int_value (receiver, INT_TYPE_WEAPON_CONFIG_TYPE, config_type);

  009ea	83 7d 0c 00	 cmp	 DWORD PTR _receiver$[ebp], 0
  009ee	74 0a		 je	 SHORT $LN94@response_t
  009f0	8b 45 0c	 mov	 eax, DWORD PTR _receiver$[ebp]
  009f3	8b 08		 mov	 ecx, DWORD PTR [eax]
  009f5	89 4d 90	 mov	 DWORD PTR tv491[ebp], ecx
  009f8	eb 21		 jmp	 SHORT $LN95@response_t
$LN94@response_t:
  009fa	8b 15 00 00 00
	00		 mov	 edx, DWORD PTR ?__LINE__Var@?0??response_to_waypoint_landed_reached@@YGHW4ENTITY_MESSAGES@@PAUENTITY@@1PAD@Z@4JA
  00a00	83 c2 73	 add	 edx, 115		; 00000073H
  00a03	52		 push	 edx
  00a04	68 00 00 00 00	 push	 OFFSET ??_C@_0EE@DLIIEJCN@c?3?2users?2nhv90?2projects?2eech?2ap@
  00a09	a1 00 00 00 00	 mov	 eax, DWORD PTR ?null_entity_pointer_message@@3PBDB ; null_entity_pointer_message
  00a0e	50		 push	 eax
  00a0f	e8 00 00 00 00	 call	 ?process_assert@@YGXPBD0H@Z ; process_assert
  00a14	c7 45 90 00 00
	00 00		 mov	 DWORD PTR tv491[ebp], 0
$LN95@response_t:
  00a1b	b9 01 00 00 00	 mov	 ecx, 1
  00a20	85 c9		 test	 ecx, ecx
  00a22	74 09		 je	 SHORT $LN96@response_t
  00a24	c7 45 8c 05 01
	00 00		 mov	 DWORD PTR tv499[ebp], 261 ; 00000105H
  00a2b	eb 21		 jmp	 SHORT $LN97@response_t
$LN96@response_t:
  00a2d	8b 15 00 00 00
	00		 mov	 edx, DWORD PTR ?__LINE__Var@?0??response_to_waypoint_landed_reached@@YGHW4ENTITY_MESSAGES@@PAUENTITY@@1PAD@Z@4JA
  00a33	83 c2 73	 add	 edx, 115		; 00000073H
  00a36	52		 push	 edx
  00a37	68 00 00 00 00	 push	 OFFSET ??_C@_0EE@DLIIEJCN@c?3?2users?2nhv90?2projects?2eech?2ap@
  00a3c	a1 00 00 00 00	 mov	 eax, DWORD PTR ?overload_invalid_int_type_message@@3PBDB ; overload_invalid_int_type_message
  00a41	50		 push	 eax
  00a42	e8 00 00 00 00	 call	 ?process_assert@@YGXPBD0H@Z ; process_assert
  00a47	c7 45 8c 00 00
	00 00		 mov	 DWORD PTR tv499[ebp], 0
$LN97@response_t:
  00a4e	8b 4d d4	 mov	 ecx, DWORD PTR _config_type$1[ebp]
  00a51	51		 push	 ecx
  00a52	68 05 01 00 00	 push	 261			; 00000105H
  00a57	8b 55 0c	 mov	 edx, DWORD PTR _receiver$[ebp]
  00a5a	52		 push	 edx
  00a5b	69 45 90 b8 08
	00 00		 imul	 eax, DWORD PTR tv491[ebp], 2232
  00a62	8b 4d 8c	 mov	 ecx, DWORD PTR tv499[ebp]
  00a65	8d 94 c8 00 00
	00 00		 lea	 edx, DWORD PTR ?fn_set_client_server_entity_int_value@@3PAY1BBH@1P6GXPAUENTITY@@W4INT_TYPES@@H@ZA[eax+ecx*8]
  00a6c	a1 00 00 00 00	 mov	 eax, DWORD PTR ?system_comms_model@@3W4COMMS_MODEL_TYPES@@A ; system_comms_model
  00a71	8b 0c 82	 mov	 ecx, DWORD PTR [edx+eax*4]
  00a74	ff d1		 call	 ecx

; 1378 : 
; 1379 : 		ammo = get_local_entity_float_value (group, FLOAT_TYPE_AMMO_SUPPLY_LEVEL);

  00a76	83 7d f4 00	 cmp	 DWORD PTR _group$[ebp], 0
  00a7a	74 0a		 je	 SHORT $LN98@response_t
  00a7c	8b 45 f4	 mov	 eax, DWORD PTR _group$[ebp]
  00a7f	8b 08		 mov	 ecx, DWORD PTR [eax]
  00a81	89 4d 90	 mov	 DWORD PTR tv513[ebp], ecx
  00a84	eb 21		 jmp	 SHORT $LN99@response_t
$LN98@response_t:
  00a86	8b 15 00 00 00
	00		 mov	 edx, DWORD PTR ?__LINE__Var@?0??response_to_waypoint_landed_reached@@YGHW4ENTITY_MESSAGES@@PAUENTITY@@1PAD@Z@4JA
  00a8c	83 c2 75	 add	 edx, 117		; 00000075H
  00a8f	52		 push	 edx
  00a90	68 00 00 00 00	 push	 OFFSET ??_C@_0EE@DLIIEJCN@c?3?2users?2nhv90?2projects?2eech?2ap@
  00a95	a1 00 00 00 00	 mov	 eax, DWORD PTR ?null_entity_pointer_message@@3PBDB ; null_entity_pointer_message
  00a9a	50		 push	 eax
  00a9b	e8 00 00 00 00	 call	 ?process_assert@@YGXPBD0H@Z ; process_assert
  00aa0	c7 45 90 00 00
	00 00		 mov	 DWORD PTR tv513[ebp], 0
$LN99@response_t:
  00aa7	b9 01 00 00 00	 mov	 ecx, 1
  00aac	85 c9		 test	 ecx, ecx
  00aae	74 09		 je	 SHORT $LN100@response_t
  00ab0	c7 45 8c 08 00
	00 00		 mov	 DWORD PTR tv521[ebp], 8
  00ab7	eb 21		 jmp	 SHORT $LN101@response_t
$LN100@response_t:
  00ab9	8b 15 00 00 00
	00		 mov	 edx, DWORD PTR ?__LINE__Var@?0??response_to_waypoint_landed_reached@@YGHW4ENTITY_MESSAGES@@PAUENTITY@@1PAD@Z@4JA
  00abf	83 c2 75	 add	 edx, 117		; 00000075H
  00ac2	52		 push	 edx
  00ac3	68 00 00 00 00	 push	 OFFSET ??_C@_0EE@DLIIEJCN@c?3?2users?2nhv90?2projects?2eech?2ap@
  00ac8	a1 00 00 00 00	 mov	 eax, DWORD PTR ?overload_invalid_float_type_message@@3PBDB ; overload_invalid_float_type_message
  00acd	50		 push	 eax
  00ace	e8 00 00 00 00	 call	 ?process_assert@@YGXPBD0H@Z ; process_assert
  00ad3	c7 45 8c 00 00
	00 00		 mov	 DWORD PTR tv521[ebp], 0
$LN101@response_t:
  00ada	6a 08		 push	 8
  00adc	8b 4d f4	 mov	 ecx, DWORD PTR _group$[ebp]
  00adf	51		 push	 ecx
  00ae0	69 55 90 bc 02
	00 00		 imul	 edx, DWORD PTR tv513[ebp], 700
  00ae7	8b 45 8c	 mov	 eax, DWORD PTR tv521[ebp]
  00aea	8b 8c 82 00 00
	00 00		 mov	 ecx, DWORD PTR ?fn_get_local_entity_float_value@@3PAY0KP@P6GMPAUENTITY@@W4FLOAT_TYPES@@@ZA[edx+eax*4]
  00af1	ff d1		 call	 ecx
  00af3	d9 5d d8	 fstp	 DWORD PTR _ammo$2[ebp]

; 1380 : 
; 1381 : 		ammo -= get_local_entity_float_value (receiver, FLOAT_TYPE_AMMO_ECONOMY) * AMMO_USAGE_ACCELERATOR;

  00af6	83 7d 0c 00	 cmp	 DWORD PTR _receiver$[ebp], 0
  00afa	74 0a		 je	 SHORT $LN102@response_t
  00afc	8b 45 0c	 mov	 eax, DWORD PTR _receiver$[ebp]
  00aff	8b 08		 mov	 ecx, DWORD PTR [eax]
  00b01	89 4d 90	 mov	 DWORD PTR tv533[ebp], ecx
  00b04	eb 21		 jmp	 SHORT $LN103@response_t
$LN102@response_t:
  00b06	8b 15 00 00 00
	00		 mov	 edx, DWORD PTR ?__LINE__Var@?0??response_to_waypoint_landed_reached@@YGHW4ENTITY_MESSAGES@@PAUENTITY@@1PAD@Z@4JA
  00b0c	83 c2 77	 add	 edx, 119		; 00000077H
  00b0f	52		 push	 edx
  00b10	68 00 00 00 00	 push	 OFFSET ??_C@_0EE@DLIIEJCN@c?3?2users?2nhv90?2projects?2eech?2ap@
  00b15	a1 00 00 00 00	 mov	 eax, DWORD PTR ?null_entity_pointer_message@@3PBDB ; null_entity_pointer_message
  00b1a	50		 push	 eax
  00b1b	e8 00 00 00 00	 call	 ?process_assert@@YGXPBD0H@Z ; process_assert
  00b20	c7 45 90 00 00
	00 00		 mov	 DWORD PTR tv533[ebp], 0
$LN103@response_t:
  00b27	b9 01 00 00 00	 mov	 ecx, 1
  00b2c	85 c9		 test	 ecx, ecx
  00b2e	74 09		 je	 SHORT $LN104@response_t
  00b30	c7 45 8c 07 00
	00 00		 mov	 DWORD PTR tv541[ebp], 7
  00b37	eb 21		 jmp	 SHORT $LN105@response_t
$LN104@response_t:
  00b39	8b 15 00 00 00
	00		 mov	 edx, DWORD PTR ?__LINE__Var@?0??response_to_waypoint_landed_reached@@YGHW4ENTITY_MESSAGES@@PAUENTITY@@1PAD@Z@4JA
  00b3f	83 c2 77	 add	 edx, 119		; 00000077H
  00b42	52		 push	 edx
  00b43	68 00 00 00 00	 push	 OFFSET ??_C@_0EE@DLIIEJCN@c?3?2users?2nhv90?2projects?2eech?2ap@
  00b48	a1 00 00 00 00	 mov	 eax, DWORD PTR ?overload_invalid_float_type_message@@3PBDB ; overload_invalid_float_type_message
  00b4d	50		 push	 eax
  00b4e	e8 00 00 00 00	 call	 ?process_assert@@YGXPBD0H@Z ; process_assert
  00b53	c7 45 8c 00 00
	00 00		 mov	 DWORD PTR tv541[ebp], 0
$LN105@response_t:
  00b5a	6a 07		 push	 7
  00b5c	8b 4d 0c	 mov	 ecx, DWORD PTR _receiver$[ebp]
  00b5f	51		 push	 ecx
  00b60	69 55 90 bc 02
	00 00		 imul	 edx, DWORD PTR tv533[ebp], 700
  00b67	8b 45 8c	 mov	 eax, DWORD PTR tv541[ebp]
  00b6a	8b 8c 82 00 00
	00 00		 mov	 ecx, DWORD PTR ?fn_get_local_entity_float_value@@3PAY0KP@P6GMPAUENTITY@@W4FLOAT_TYPES@@@ZA[edx+eax*4]
  00b71	ff d1		 call	 ecx
  00b73	dd 5d 84	 fstp	 QWORD PTR tv1217[ebp]
  00b76	f2 0f 10 45 84	 movsd	 xmm0, QWORD PTR tv1217[ebp]
  00b7b	f2 0f 59 05 00
	00 00 00	 mulsd	 xmm0, QWORD PTR __real@3ff0000000000000
  00b83	f3 0f 5a 4d d8	 cvtss2sd xmm1, DWORD PTR _ammo$2[ebp]
  00b88	f2 0f 5c c8	 subsd	 xmm1, xmm0
  00b8c	f2 0f 5a c1	 cvtsd2ss xmm0, xmm1
  00b90	f3 0f 11 45 d8	 movss	 DWORD PTR _ammo$2[ebp], xmm0

; 1382 : 
; 1383 : 		ammo = bound (ammo, 0.0, 100.0);

  00b95	f3 0f 5a 45 d8	 cvtss2sd xmm0, DWORD PTR _ammo$2[ebp]
  00b9a	0f 57 c9	 xorps	 xmm1, xmm1
  00b9d	66 0f 2f c8	 comisd	 xmm1, xmm0
  00ba1	76 0a		 jbe	 SHORT $LN108@response_t
  00ba3	0f 57 c0	 xorps	 xmm0, xmm0
  00ba6	f2 0f 11 45 8c	 movsd	 QWORD PTR tv558[ebp], xmm0
  00bab	eb 32		 jmp	 SHORT $LN109@response_t
$LN108@response_t:
  00bad	f3 0f 5a 45 d8	 cvtss2sd xmm0, DWORD PTR _ammo$2[ebp]
  00bb2	66 0f 2f 05 00
	00 00 00	 comisd	 xmm0, QWORD PTR __real@4059000000000000
  00bba	76 0f		 jbe	 SHORT $LN106@response_t
  00bbc	f2 0f 10 05 00
	00 00 00	 movsd	 xmm0, QWORD PTR __real@4059000000000000
  00bc4	f2 0f 11 45 84	 movsd	 QWORD PTR tv557[ebp], xmm0
  00bc9	eb 0a		 jmp	 SHORT $LN107@response_t
$LN106@response_t:
  00bcb	f3 0f 5a 45 d8	 cvtss2sd xmm0, DWORD PTR _ammo$2[ebp]
  00bd0	f2 0f 11 45 84	 movsd	 QWORD PTR tv557[ebp], xmm0
$LN107@response_t:
  00bd5	f2 0f 10 45 84	 movsd	 xmm0, QWORD PTR tv557[ebp]
  00bda	f2 0f 11 45 8c	 movsd	 QWORD PTR tv558[ebp], xmm0
$LN109@response_t:
  00bdf	f2 0f 5a 45 8c	 cvtsd2ss xmm0, QWORD PTR tv558[ebp]
  00be4	f3 0f 11 45 d8	 movss	 DWORD PTR _ammo$2[ebp], xmm0

; 1384 : 
; 1385 : 		set_client_server_entity_float_value (group, FLOAT_TYPE_AMMO_SUPPLY_LEVEL, ammo);

  00be9	83 7d f4 00	 cmp	 DWORD PTR _group$[ebp], 0
  00bed	74 0a		 je	 SHORT $LN110@response_t
  00bef	8b 45 f4	 mov	 eax, DWORD PTR _group$[ebp]
  00bf2	8b 08		 mov	 ecx, DWORD PTR [eax]
  00bf4	89 4d 90	 mov	 DWORD PTR tv566[ebp], ecx
  00bf7	eb 21		 jmp	 SHORT $LN111@response_t
$LN110@response_t:
  00bf9	8b 15 00 00 00
	00		 mov	 edx, DWORD PTR ?__LINE__Var@?0??response_to_waypoint_landed_reached@@YGHW4ENTITY_MESSAGES@@PAUENTITY@@1PAD@Z@4JA
  00bff	83 c2 7b	 add	 edx, 123		; 0000007bH
  00c02	52		 push	 edx
  00c03	68 00 00 00 00	 push	 OFFSET ??_C@_0EE@DLIIEJCN@c?3?2users?2nhv90?2projects?2eech?2ap@
  00c08	a1 00 00 00 00	 mov	 eax, DWORD PTR ?null_entity_pointer_message@@3PBDB ; null_entity_pointer_message
  00c0d	50		 push	 eax
  00c0e	e8 00 00 00 00	 call	 ?process_assert@@YGXPBD0H@Z ; process_assert
  00c13	c7 45 90 00 00
	00 00		 mov	 DWORD PTR tv566[ebp], 0
$LN111@response_t:
  00c1a	b9 01 00 00 00	 mov	 ecx, 1
  00c1f	85 c9		 test	 ecx, ecx
  00c21	74 09		 je	 SHORT $LN112@response_t
  00c23	c7 45 8c 08 00
	00 00		 mov	 DWORD PTR tv574[ebp], 8
  00c2a	eb 21		 jmp	 SHORT $LN113@response_t
$LN112@response_t:
  00c2c	8b 15 00 00 00
	00		 mov	 edx, DWORD PTR ?__LINE__Var@?0??response_to_waypoint_landed_reached@@YGHW4ENTITY_MESSAGES@@PAUENTITY@@1PAD@Z@4JA
  00c32	83 c2 7b	 add	 edx, 123		; 0000007bH
  00c35	52		 push	 edx
  00c36	68 00 00 00 00	 push	 OFFSET ??_C@_0EE@DLIIEJCN@c?3?2users?2nhv90?2projects?2eech?2ap@
  00c3b	a1 00 00 00 00	 mov	 eax, DWORD PTR ?overload_invalid_float_type_message@@3PBDB ; overload_invalid_float_type_message
  00c40	50		 push	 eax
  00c41	e8 00 00 00 00	 call	 ?process_assert@@YGXPBD0H@Z ; process_assert
  00c46	c7 45 8c 00 00
	00 00		 mov	 DWORD PTR tv574[ebp], 0
$LN113@response_t:
  00c4d	51		 push	 ecx
  00c4e	f3 0f 10 45 d8	 movss	 xmm0, DWORD PTR _ammo$2[ebp]
  00c53	f3 0f 11 04 24	 movss	 DWORD PTR [esp], xmm0
  00c58	6a 08		 push	 8
  00c5a	8b 4d f4	 mov	 ecx, DWORD PTR _group$[ebp]
  00c5d	51		 push	 ecx
  00c5e	69 55 90 78 05
	00 00		 imul	 edx, DWORD PTR tv566[ebp], 1400
  00c65	8b 45 8c	 mov	 eax, DWORD PTR tv574[ebp]
  00c68	8d 8c c2 00 00
	00 00		 lea	 ecx, DWORD PTR ?fn_set_client_server_entity_float_value@@3PAY1KP@1P6GXPAUENTITY@@W4FLOAT_TYPES@@M@ZA[edx+eax*8]
  00c6f	8b 15 00 00 00
	00		 mov	 edx, DWORD PTR ?system_comms_model@@3W4COMMS_MODEL_TYPES@@A ; system_comms_model
  00c75	8b 04 91	 mov	 eax, DWORD PTR [ecx+edx*4]
  00c78	ff d0		 call	 eax

; 1386 : 
; 1387 : 		//
; 1388 : 		// sleep
; 1389 : 		//
; 1390 : 
; 1391 : 		sleep = get_local_entity_rearming_sleep_time (group);

  00c7a	8b 45 f4	 mov	 eax, DWORD PTR _group$[ebp]
  00c7d	50		 push	 eax
  00c7e	e8 00 00 00 00	 call	 ?get_local_entity_rearming_sleep_time@@YGMPAUENTITY@@@Z ; get_local_entity_rearming_sleep_time
  00c83	d9 5d fc	 fstp	 DWORD PTR _sleep$[ebp]

; 1392 : 		sleep += get_local_entity_refueling_sleep_time (group);

  00c86	8b 45 f4	 mov	 eax, DWORD PTR _group$[ebp]
  00c89	50		 push	 eax
  00c8a	e8 00 00 00 00	 call	 ?get_local_entity_refueling_sleep_time@@YGMPAUENTITY@@@Z ; get_local_entity_refueling_sleep_time
  00c8f	d9 5d 90	 fstp	 DWORD PTR tv1242[ebp]
  00c92	f3 0f 10 45 90	 movss	 xmm0, DWORD PTR tv1242[ebp]
  00c97	f3 0f 58 45 fc	 addss	 xmm0, DWORD PTR _sleep$[ebp]
  00c9c	f3 0f 11 45 fc	 movss	 DWORD PTR _sleep$[ebp], xmm0

; 1393 : 
; 1394 : 		//sleep = ONE_MINUTE * ((-0.02 * (ammo + fuel)) + 5.0);
; 1395 : 		set_client_server_entity_float_value (receiver, FLOAT_TYPE_SLEEP, sleep);

  00ca1	83 7d 0c 00	 cmp	 DWORD PTR _receiver$[ebp], 0
  00ca5	74 0a		 je	 SHORT $LN114@response_t
  00ca7	8b 45 0c	 mov	 eax, DWORD PTR _receiver$[ebp]
  00caa	8b 08		 mov	 ecx, DWORD PTR [eax]
  00cac	89 4d 90	 mov	 DWORD PTR tv593[ebp], ecx
  00caf	eb 24		 jmp	 SHORT $LN115@response_t
$LN114@response_t:
  00cb1	8b 15 00 00 00
	00		 mov	 edx, DWORD PTR ?__LINE__Var@?0??response_to_waypoint_landed_reached@@YGHW4ENTITY_MESSAGES@@PAUENTITY@@1PAD@Z@4JA
  00cb7	81 c2 85 00 00
	00		 add	 edx, 133		; 00000085H
  00cbd	52		 push	 edx
  00cbe	68 00 00 00 00	 push	 OFFSET ??_C@_0EE@DLIIEJCN@c?3?2users?2nhv90?2projects?2eech?2ap@
  00cc3	a1 00 00 00 00	 mov	 eax, DWORD PTR ?null_entity_pointer_message@@3PBDB ; null_entity_pointer_message
  00cc8	50		 push	 eax
  00cc9	e8 00 00 00 00	 call	 ?process_assert@@YGXPBD0H@Z ; process_assert
  00cce	c7 45 90 00 00
	00 00		 mov	 DWORD PTR tv593[ebp], 0
$LN115@response_t:
  00cd5	b9 01 00 00 00	 mov	 ecx, 1
  00cda	85 c9		 test	 ecx, ecx
  00cdc	74 09		 je	 SHORT $LN116@response_t
  00cde	c7 45 8c 75 00
	00 00		 mov	 DWORD PTR tv601[ebp], 117 ; 00000075H
  00ce5	eb 24		 jmp	 SHORT $LN117@response_t
$LN116@response_t:
  00ce7	8b 15 00 00 00
	00		 mov	 edx, DWORD PTR ?__LINE__Var@?0??response_to_waypoint_landed_reached@@YGHW4ENTITY_MESSAGES@@PAUENTITY@@1PAD@Z@4JA
  00ced	81 c2 85 00 00
	00		 add	 edx, 133		; 00000085H
  00cf3	52		 push	 edx
  00cf4	68 00 00 00 00	 push	 OFFSET ??_C@_0EE@DLIIEJCN@c?3?2users?2nhv90?2projects?2eech?2ap@
  00cf9	a1 00 00 00 00	 mov	 eax, DWORD PTR ?overload_invalid_float_type_message@@3PBDB ; overload_invalid_float_type_message
  00cfe	50		 push	 eax
  00cff	e8 00 00 00 00	 call	 ?process_assert@@YGXPBD0H@Z ; process_assert
  00d04	c7 45 8c 00 00
	00 00		 mov	 DWORD PTR tv601[ebp], 0
$LN117@response_t:
  00d0b	51		 push	 ecx
  00d0c	f3 0f 10 45 fc	 movss	 xmm0, DWORD PTR _sleep$[ebp]
  00d11	f3 0f 11 04 24	 movss	 DWORD PTR [esp], xmm0
  00d16	6a 75		 push	 117			; 00000075H
  00d18	8b 4d 0c	 mov	 ecx, DWORD PTR _receiver$[ebp]
  00d1b	51		 push	 ecx
  00d1c	69 55 90 78 05
	00 00		 imul	 edx, DWORD PTR tv593[ebp], 1400
  00d23	8b 45 8c	 mov	 eax, DWORD PTR tv601[ebp]
  00d26	8d 8c c2 00 00
	00 00		 lea	 ecx, DWORD PTR ?fn_set_client_server_entity_float_value@@3PAY1KP@1P6GXPAUENTITY@@W4FLOAT_TYPES@@M@ZA[edx+eax*8]
  00d2d	8b 15 00 00 00
	00		 mov	 edx, DWORD PTR ?system_comms_model@@3W4COMMS_MODEL_TYPES@@A ; system_comms_model
  00d33	8b 04 91	 mov	 eax, DWORD PTR [ecx+edx*4]
  00d36	ff d0		 call	 eax

; 1396 : 
; 1397 : 		#if DEBUG_MODULE || DEBUG_SUPPLY
; 1398 : 
; 1399 : 		debug_log ("MB_MSGS: SUPPLY_INFO: member %s (%d) landed and refuelled/rearmed at %s (%d). Group supplies now ammo = %f, fuel = %f, sleeping for %f",
; 1400 : 						get_local_entity_string (receiver, STRING_TYPE_FULL_NAME),
; 1401 : 						get_local_entity_index (receiver),
; 1402 : 						get_local_entity_string (keysite, STRING_TYPE_FULL_NAME),
; 1403 : 						get_local_entity_index (keysite),
; 1404 : 						get_local_entity_float_value (group, FLOAT_TYPE_AMMO_SUPPLY_LEVEL),
; 1405 : 						get_local_entity_float_value (group, FLOAT_TYPE_FUEL_SUPPLY_LEVEL),
; 1406 : 						sleep);
; 1407 : 
; 1408 : 		#endif
; 1409 : 
; 1410 : 		assess_group_supplies (group);

  00d38	8b 45 f4	 mov	 eax, DWORD PTR _group$[ebp]
  00d3b	50		 push	 eax
  00d3c	e8 00 00 00 00	 call	 ?assess_group_supplies@@YGXPAUENTITY@@@Z ; assess_group_supplies
$LN10@response_t:

; 1411 : 	}
; 1412 : 
; 1413 : 	/////////////////////////////////////////////////////////////////
; 1414 : 	//
; 1415 : 	// repair
; 1416 : 	//
; 1417 : 	/////////////////////////////////////////////////////////////////
; 1418 : 
; 1419 : 	set_client_server_entity_int_value (receiver, INT_TYPE_DAMAGE_LEVEL, get_local_entity_int_value (receiver, INT_TYPE_INITIAL_DAMAGE_LEVEL));

  00d41	83 7d 0c 00	 cmp	 DWORD PTR _receiver$[ebp], 0
  00d45	74 0a		 je	 SHORT $LN122@response_t
  00d47	8b 45 0c	 mov	 eax, DWORD PTR _receiver$[ebp]
  00d4a	8b 08		 mov	 ecx, DWORD PTR [eax]
  00d4c	89 4d 90	 mov	 DWORD PTR tv635[ebp], ecx
  00d4f	eb 24		 jmp	 SHORT $LN123@response_t
$LN122@response_t:
  00d51	8b 15 00 00 00
	00		 mov	 edx, DWORD PTR ?__LINE__Var@?0??response_to_waypoint_landed_reached@@YGHW4ENTITY_MESSAGES@@PAUENTITY@@1PAD@Z@4JA
  00d57	81 c2 9d 00 00
	00		 add	 edx, 157		; 0000009dH
  00d5d	52		 push	 edx
  00d5e	68 00 00 00 00	 push	 OFFSET ??_C@_0EE@DLIIEJCN@c?3?2users?2nhv90?2projects?2eech?2ap@
  00d63	a1 00 00 00 00	 mov	 eax, DWORD PTR ?null_entity_pointer_message@@3PBDB ; null_entity_pointer_message
  00d68	50		 push	 eax
  00d69	e8 00 00 00 00	 call	 ?process_assert@@YGXPBD0H@Z ; process_assert
  00d6e	c7 45 90 00 00
	00 00		 mov	 DWORD PTR tv635[ebp], 0
$LN123@response_t:
  00d75	b9 01 00 00 00	 mov	 ecx, 1
  00d7a	85 c9		 test	 ecx, ecx
  00d7c	74 09		 je	 SHORT $LN124@response_t
  00d7e	c7 45 8c 69 00
	00 00		 mov	 DWORD PTR tv643[ebp], 105 ; 00000069H
  00d85	eb 24		 jmp	 SHORT $LN125@response_t
$LN124@response_t:
  00d87	8b 15 00 00 00
	00		 mov	 edx, DWORD PTR ?__LINE__Var@?0??response_to_waypoint_landed_reached@@YGHW4ENTITY_MESSAGES@@PAUENTITY@@1PAD@Z@4JA
  00d8d	81 c2 9d 00 00
	00		 add	 edx, 157		; 0000009dH
  00d93	52		 push	 edx
  00d94	68 00 00 00 00	 push	 OFFSET ??_C@_0EE@DLIIEJCN@c?3?2users?2nhv90?2projects?2eech?2ap@
  00d99	a1 00 00 00 00	 mov	 eax, DWORD PTR ?overload_invalid_int_type_message@@3PBDB ; overload_invalid_int_type_message
  00d9e	50		 push	 eax
  00d9f	e8 00 00 00 00	 call	 ?process_assert@@YGXPBD0H@Z ; process_assert
  00da4	c7 45 8c 00 00
	00 00		 mov	 DWORD PTR tv643[ebp], 0
$LN125@response_t:
  00dab	83 7d 0c 00	 cmp	 DWORD PTR _receiver$[ebp], 0
  00daf	74 0a		 je	 SHORT $LN118@response_t
  00db1	8b 4d 0c	 mov	 ecx, DWORD PTR _receiver$[ebp]
  00db4	8b 11		 mov	 edx, DWORD PTR [ecx]
  00db6	89 55 88	 mov	 DWORD PTR tv616[ebp], edx
  00db9	eb 23		 jmp	 SHORT $LN119@response_t
$LN118@response_t:
  00dbb	a1 00 00 00 00	 mov	 eax, DWORD PTR ?__LINE__Var@?0??response_to_waypoint_landed_reached@@YGHW4ENTITY_MESSAGES@@PAUENTITY@@1PAD@Z@4JA
  00dc0	05 9d 00 00 00	 add	 eax, 157		; 0000009dH
  00dc5	50		 push	 eax
  00dc6	68 00 00 00 00	 push	 OFFSET ??_C@_0EE@DLIIEJCN@c?3?2users?2nhv90?2projects?2eech?2ap@
  00dcb	8b 0d 00 00 00
	00		 mov	 ecx, DWORD PTR ?null_entity_pointer_message@@3PBDB ; null_entity_pointer_message
  00dd1	51		 push	 ecx
  00dd2	e8 00 00 00 00	 call	 ?process_assert@@YGXPBD0H@Z ; process_assert
  00dd7	c7 45 88 00 00
	00 00		 mov	 DWORD PTR tv616[ebp], 0
$LN119@response_t:
  00dde	ba 01 00 00 00	 mov	 edx, 1
  00de3	85 d2		 test	 edx, edx
  00de5	74 09		 je	 SHORT $LN120@response_t
  00de7	c7 45 84 25 00
	00 00		 mov	 DWORD PTR tv624[ebp], 37 ; 00000025H
  00dee	eb 23		 jmp	 SHORT $LN121@response_t
$LN120@response_t:
  00df0	a1 00 00 00 00	 mov	 eax, DWORD PTR ?__LINE__Var@?0??response_to_waypoint_landed_reached@@YGHW4ENTITY_MESSAGES@@PAUENTITY@@1PAD@Z@4JA
  00df5	05 9d 00 00 00	 add	 eax, 157		; 0000009dH
  00dfa	50		 push	 eax
  00dfb	68 00 00 00 00	 push	 OFFSET ??_C@_0EE@DLIIEJCN@c?3?2users?2nhv90?2projects?2eech?2ap@
  00e00	8b 0d 00 00 00
	00		 mov	 ecx, DWORD PTR ?overload_invalid_int_type_message@@3PBDB ; overload_invalid_int_type_message
  00e06	51		 push	 ecx
  00e07	e8 00 00 00 00	 call	 ?process_assert@@YGXPBD0H@Z ; process_assert
  00e0c	c7 45 84 00 00
	00 00		 mov	 DWORD PTR tv624[ebp], 0
$LN121@response_t:
  00e13	6a 69		 push	 105			; 00000069H
  00e15	8b 55 0c	 mov	 edx, DWORD PTR _receiver$[ebp]
  00e18	52		 push	 edx
  00e19	69 45 90 5c 04
	00 00		 imul	 eax, DWORD PTR tv635[ebp], 1116
  00e20	8b 4d 8c	 mov	 ecx, DWORD PTR tv643[ebp]
  00e23	8b 94 88 00 00
	00 00		 mov	 edx, DWORD PTR ?fn_get_local_entity_int_value@@3PAY0BBH@P6GHPAUENTITY@@W4INT_TYPES@@@ZA[eax+ecx*4]
  00e2a	ff d2		 call	 edx
  00e2c	50		 push	 eax
  00e2d	6a 25		 push	 37			; 00000025H
  00e2f	8b 45 0c	 mov	 eax, DWORD PTR _receiver$[ebp]
  00e32	50		 push	 eax
  00e33	69 4d 88 b8 08
	00 00		 imul	 ecx, DWORD PTR tv616[ebp], 2232
  00e3a	8b 55 84	 mov	 edx, DWORD PTR tv624[ebp]
  00e3d	8d 84 d1 00 00
	00 00		 lea	 eax, DWORD PTR ?fn_set_client_server_entity_int_value@@3PAY1BBH@1P6GXPAUENTITY@@W4INT_TYPES@@H@ZA[ecx+edx*8]
  00e44	8b 0d 00 00 00
	00		 mov	 ecx, DWORD PTR ?system_comms_model@@3W4COMMS_MODEL_TYPES@@A ; system_comms_model
  00e4a	8b 14 88	 mov	 edx, DWORD PTR [eax+ecx*4]
  00e4d	ff d2		 call	 edx

; 1420 : 
; 1421 : 	/////////////////////////////////////////////////////////////////
; 1422 : 	//
; 1423 : 	// re-sync positions on clients machines
; 1424 : 	//
; 1425 : 	/////////////////////////////////////////////////////////////////
; 1426 : 
; 1427 : 	set_client_server_entity_vec3d (receiver, VEC3D_TYPE_POSITION, get_local_entity_vec3d_ptr (receiver, VEC3D_TYPE_POSITION));

  00e4f	83 7d 0c 00	 cmp	 DWORD PTR _receiver$[ebp], 0
  00e53	74 0a		 je	 SHORT $LN130@response_t
  00e55	8b 45 0c	 mov	 eax, DWORD PTR _receiver$[ebp]
  00e58	8b 08		 mov	 ecx, DWORD PTR [eax]
  00e5a	89 4d 90	 mov	 DWORD PTR tv677[ebp], ecx
  00e5d	eb 24		 jmp	 SHORT $LN131@response_t
$LN130@response_t:
  00e5f	8b 15 00 00 00
	00		 mov	 edx, DWORD PTR ?__LINE__Var@?0??response_to_waypoint_landed_reached@@YGHW4ENTITY_MESSAGES@@PAUENTITY@@1PAD@Z@4JA
  00e65	81 c2 a5 00 00
	00		 add	 edx, 165		; 000000a5H
  00e6b	52		 push	 edx
  00e6c	68 00 00 00 00	 push	 OFFSET ??_C@_0EE@DLIIEJCN@c?3?2users?2nhv90?2projects?2eech?2ap@
  00e71	a1 00 00 00 00	 mov	 eax, DWORD PTR ?null_entity_pointer_message@@3PBDB ; null_entity_pointer_message
  00e76	50		 push	 eax
  00e77	e8 00 00 00 00	 call	 ?process_assert@@YGXPBD0H@Z ; process_assert
  00e7c	c7 45 90 00 00
	00 00		 mov	 DWORD PTR tv677[ebp], 0
$LN131@response_t:
  00e83	b9 01 00 00 00	 mov	 ecx, 1
  00e88	85 c9		 test	 ecx, ecx
  00e8a	74 09		 je	 SHORT $LN132@response_t
  00e8c	c7 45 8c 08 00
	00 00		 mov	 DWORD PTR tv685[ebp], 8
  00e93	eb 24		 jmp	 SHORT $LN133@response_t
$LN132@response_t:
  00e95	8b 15 00 00 00
	00		 mov	 edx, DWORD PTR ?__LINE__Var@?0??response_to_waypoint_landed_reached@@YGHW4ENTITY_MESSAGES@@PAUENTITY@@1PAD@Z@4JA
  00e9b	81 c2 a5 00 00
	00		 add	 edx, 165		; 000000a5H
  00ea1	52		 push	 edx
  00ea2	68 00 00 00 00	 push	 OFFSET ??_C@_0EE@DLIIEJCN@c?3?2users?2nhv90?2projects?2eech?2ap@
  00ea7	a1 00 00 00 00	 mov	 eax, DWORD PTR ?overload_invalid_vec3d_type_message@@3PBDB ; overload_invalid_vec3d_type_message
  00eac	50		 push	 eax
  00ead	e8 00 00 00 00	 call	 ?process_assert@@YGXPBD0H@Z ; process_assert
  00eb2	c7 45 8c 00 00
	00 00		 mov	 DWORD PTR tv685[ebp], 0
$LN133@response_t:
  00eb9	83 7d 0c 00	 cmp	 DWORD PTR _receiver$[ebp], 0
  00ebd	74 0a		 je	 SHORT $LN126@response_t
  00ebf	8b 4d 0c	 mov	 ecx, DWORD PTR _receiver$[ebp]
  00ec2	8b 11		 mov	 edx, DWORD PTR [ecx]
  00ec4	89 55 88	 mov	 DWORD PTR tv658[ebp], edx
  00ec7	eb 23		 jmp	 SHORT $LN127@response_t
$LN126@response_t:
  00ec9	a1 00 00 00 00	 mov	 eax, DWORD PTR ?__LINE__Var@?0??response_to_waypoint_landed_reached@@YGHW4ENTITY_MESSAGES@@PAUENTITY@@1PAD@Z@4JA
  00ece	05 a5 00 00 00	 add	 eax, 165		; 000000a5H
  00ed3	50		 push	 eax
  00ed4	68 00 00 00 00	 push	 OFFSET ??_C@_0EE@DLIIEJCN@c?3?2users?2nhv90?2projects?2eech?2ap@
  00ed9	8b 0d 00 00 00
	00		 mov	 ecx, DWORD PTR ?null_entity_pointer_message@@3PBDB ; null_entity_pointer_message
  00edf	51		 push	 ecx
  00ee0	e8 00 00 00 00	 call	 ?process_assert@@YGXPBD0H@Z ; process_assert
  00ee5	c7 45 88 00 00
	00 00		 mov	 DWORD PTR tv658[ebp], 0
$LN127@response_t:
  00eec	ba 01 00 00 00	 mov	 edx, 1
  00ef1	85 d2		 test	 edx, edx
  00ef3	74 09		 je	 SHORT $LN128@response_t
  00ef5	c7 45 84 08 00
	00 00		 mov	 DWORD PTR tv666[ebp], 8
  00efc	eb 23		 jmp	 SHORT $LN129@response_t
$LN128@response_t:
  00efe	a1 00 00 00 00	 mov	 eax, DWORD PTR ?__LINE__Var@?0??response_to_waypoint_landed_reached@@YGHW4ENTITY_MESSAGES@@PAUENTITY@@1PAD@Z@4JA
  00f03	05 a5 00 00 00	 add	 eax, 165		; 000000a5H
  00f08	50		 push	 eax
  00f09	68 00 00 00 00	 push	 OFFSET ??_C@_0EE@DLIIEJCN@c?3?2users?2nhv90?2projects?2eech?2ap@
  00f0e	8b 0d 00 00 00
	00		 mov	 ecx, DWORD PTR ?overload_invalid_vec3d_type_message@@3PBDB ; overload_invalid_vec3d_type_message
  00f14	51		 push	 ecx
  00f15	e8 00 00 00 00	 call	 ?process_assert@@YGXPBD0H@Z ; process_assert
  00f1a	c7 45 84 00 00
	00 00		 mov	 DWORD PTR tv666[ebp], 0
$LN129@response_t:
  00f21	6a 08		 push	 8
  00f23	8b 55 0c	 mov	 edx, DWORD PTR _receiver$[ebp]
  00f26	52		 push	 edx
  00f27	6b 45 90 60	 imul	 eax, DWORD PTR tv677[ebp], 96
  00f2b	8b 4d 8c	 mov	 ecx, DWORD PTR tv685[ebp]
  00f2e	8b 94 88 00 00
	00 00		 mov	 edx, DWORD PTR ?fn_get_local_entity_vec3d_ptr@@3PAY0BI@P6GPAUVEC3D@@PAUENTITY@@W4VEC3D_TYPES@@@ZA[eax+ecx*4]
  00f35	ff d2		 call	 edx
  00f37	50		 push	 eax
  00f38	6a 08		 push	 8
  00f3a	8b 45 0c	 mov	 eax, DWORD PTR _receiver$[ebp]
  00f3d	50		 push	 eax
  00f3e	69 4d 88 c0 00
	00 00		 imul	 ecx, DWORD PTR tv658[ebp], 192
  00f45	8b 55 84	 mov	 edx, DWORD PTR tv666[ebp]
  00f48	8d 84 d1 00 00
	00 00		 lea	 eax, DWORD PTR ?fn_set_client_server_entity_vec3d@@3PAY1BI@1P6GXPAUENTITY@@W4VEC3D_TYPES@@PAUVEC3D@@@ZA[ecx+edx*8]
  00f4f	8b 0d 00 00 00
	00		 mov	 ecx, DWORD PTR ?system_comms_model@@3W4COMMS_MODEL_TYPES@@A ; system_comms_model
  00f55	8b 14 88	 mov	 edx, DWORD PTR [eax+ecx*4]
  00f58	ff d2		 call	 edx

; 1428 : 
; 1429 : 	/////////////////////////////////////////////////////////////////
; 1430 : 	//
; 1431 : 	// Link into MOVEMENT_DEPENDENT list (if on mobile_keysite)
; 1432 : 	//
; 1433 : 	/////////////////////////////////////////////////////////////////
; 1434 : 
; 1435 : 	if ((receiver != get_local_entity_parent (keysite, LIST_TYPE_MOVEMENT_DEPENDENT)) && (get_local_entity_parent (keysite, LIST_TYPE_MOVEMENT_DEPENDENT)))

  00f5a	83 7d ec 00	 cmp	 DWORD PTR _keysite$[ebp], 0
  00f5e	74 0a		 je	 SHORT $LN134@response_t
  00f60	8b 45 ec	 mov	 eax, DWORD PTR _keysite$[ebp]
  00f63	8b 08		 mov	 ecx, DWORD PTR [eax]
  00f65	89 4d 90	 mov	 DWORD PTR tv699[ebp], ecx
  00f68	eb 1d		 jmp	 SHORT $LN135@response_t
$LN134@response_t:
  00f6a	68 9b 05 00 00	 push	 1435			; 0000059bH
  00f6f	68 00 00 00 00	 push	 OFFSET ??_C@_0EE@DLIIEJCN@c?3?2users?2nhv90?2projects?2eech?2ap@
  00f74	8b 15 00 00 00
	00		 mov	 edx, DWORD PTR ?null_entity_pointer_message@@3PBDB ; null_entity_pointer_message
  00f7a	52		 push	 edx
  00f7b	e8 00 00 00 00	 call	 ?process_assert@@YGXPBD0H@Z ; process_assert
  00f80	c7 45 90 00 00
	00 00		 mov	 DWORD PTR tv699[ebp], 0
$LN135@response_t:
  00f87	b8 01 00 00 00	 mov	 eax, 1
  00f8c	85 c0		 test	 eax, eax
  00f8e	74 09		 je	 SHORT $LN136@response_t
  00f90	c7 45 8c 1a 00
	00 00		 mov	 DWORD PTR tv706[ebp], 26 ; 0000001aH
  00f97	eb 1d		 jmp	 SHORT $LN137@response_t
$LN136@response_t:
  00f99	68 9b 05 00 00	 push	 1435			; 0000059bH
  00f9e	68 00 00 00 00	 push	 OFFSET ??_C@_0EE@DLIIEJCN@c?3?2users?2nhv90?2projects?2eech?2ap@
  00fa3	8b 0d 00 00 00
	00		 mov	 ecx, DWORD PTR ?overload_invalid_list_type_message@@3PBDB ; overload_invalid_list_type_message
  00fa9	51		 push	 ecx
  00faa	e8 00 00 00 00	 call	 ?process_assert@@YGXPBD0H@Z ; process_assert
  00faf	c7 45 8c 00 00
	00 00		 mov	 DWORD PTR tv706[ebp], 0
$LN137@response_t:
  00fb6	6a 1a		 push	 26			; 0000001aH
  00fb8	8b 55 ec	 mov	 edx, DWORD PTR _keysite$[ebp]
  00fbb	52		 push	 edx
  00fbc	69 45 90 b4 00
	00 00		 imul	 eax, DWORD PTR tv699[ebp], 180
  00fc3	8b 4d 8c	 mov	 ecx, DWORD PTR tv706[ebp]
  00fc6	8b 94 88 00 00
	00 00		 mov	 edx, DWORD PTR ?fn_get_local_entity_parent@@3PAY0CN@P6GPAUENTITY@@PAU1@W4LIST_TYPES@@@ZA[eax+ecx*4]
  00fcd	ff d2		 call	 edx
  00fcf	39 45 0c	 cmp	 DWORD PTR _receiver$[ebp], eax
  00fd2	0f 84 0e 01 00
	00		 je	 $LN12@response_t
  00fd8	83 7d ec 00	 cmp	 DWORD PTR _keysite$[ebp], 0
  00fdc	74 0a		 je	 SHORT $LN138@response_t
  00fde	8b 45 ec	 mov	 eax, DWORD PTR _keysite$[ebp]
  00fe1	8b 08		 mov	 ecx, DWORD PTR [eax]
  00fe3	89 4d 90	 mov	 DWORD PTR tv718[ebp], ecx
  00fe6	eb 1d		 jmp	 SHORT $LN139@response_t
$LN138@response_t:
  00fe8	68 9b 05 00 00	 push	 1435			; 0000059bH
  00fed	68 00 00 00 00	 push	 OFFSET ??_C@_0EE@DLIIEJCN@c?3?2users?2nhv90?2projects?2eech?2ap@
  00ff2	8b 15 00 00 00
	00		 mov	 edx, DWORD PTR ?null_entity_pointer_message@@3PBDB ; null_entity_pointer_message
  00ff8	52		 push	 edx
  00ff9	e8 00 00 00 00	 call	 ?process_assert@@YGXPBD0H@Z ; process_assert
  00ffe	c7 45 90 00 00
	00 00		 mov	 DWORD PTR tv718[ebp], 0
$LN139@response_t:
  01005	b8 01 00 00 00	 mov	 eax, 1
  0100a	85 c0		 test	 eax, eax
  0100c	74 09		 je	 SHORT $LN140@response_t
  0100e	c7 45 8c 1a 00
	00 00		 mov	 DWORD PTR tv725[ebp], 26 ; 0000001aH
  01015	eb 1d		 jmp	 SHORT $LN141@response_t
$LN140@response_t:
  01017	68 9b 05 00 00	 push	 1435			; 0000059bH
  0101c	68 00 00 00 00	 push	 OFFSET ??_C@_0EE@DLIIEJCN@c?3?2users?2nhv90?2projects?2eech?2ap@
  01021	8b 0d 00 00 00
	00		 mov	 ecx, DWORD PTR ?overload_invalid_list_type_message@@3PBDB ; overload_invalid_list_type_message
  01027	51		 push	 ecx
  01028	e8 00 00 00 00	 call	 ?process_assert@@YGXPBD0H@Z ; process_assert
  0102d	c7 45 8c 00 00
	00 00		 mov	 DWORD PTR tv725[ebp], 0
$LN141@response_t:
  01034	6a 1a		 push	 26			; 0000001aH
  01036	8b 55 ec	 mov	 edx, DWORD PTR _keysite$[ebp]
  01039	52		 push	 edx
  0103a	69 45 90 b4 00
	00 00		 imul	 eax, DWORD PTR tv718[ebp], 180
  01041	8b 4d 8c	 mov	 ecx, DWORD PTR tv725[ebp]
  01044	8b 94 88 00 00
	00 00		 mov	 edx, DWORD PTR ?fn_get_local_entity_parent@@3PAY0CN@P6GPAUENTITY@@PAU1@W4LIST_TYPES@@@ZA[eax+ecx*4]
  0104b	ff d2		 call	 edx
  0104d	85 c0		 test	 eax, eax
  0104f	0f 84 91 00 00
	00		 je	 $LN12@response_t

; 1436 : 	{
; 1437 : 
; 1438 : 		insert_local_entity_into_parents_child_list (receiver, LIST_TYPE_MOVEMENT_DEPENDENT, get_local_entity_parent (keysite, LIST_TYPE_MOVEMENT_DEPENDENT), NULL);

  01055	83 7d ec 00	 cmp	 DWORD PTR _keysite$[ebp], 0
  01059	74 0a		 je	 SHORT $LN142@response_t
  0105b	8b 45 ec	 mov	 eax, DWORD PTR _keysite$[ebp]
  0105e	8b 08		 mov	 ecx, DWORD PTR [eax]
  01060	89 4d 90	 mov	 DWORD PTR tv739[ebp], ecx
  01063	eb 24		 jmp	 SHORT $LN143@response_t
$LN142@response_t:
  01065	8b 15 00 00 00
	00		 mov	 edx, DWORD PTR ?__LINE__Var@?0??response_to_waypoint_landed_reached@@YGHW4ENTITY_MESSAGES@@PAUENTITY@@1PAD@Z@4JA
  0106b	81 c2 b0 00 00
	00		 add	 edx, 176		; 000000b0H
  01071	52		 push	 edx
  01072	68 00 00 00 00	 push	 OFFSET ??_C@_0EE@DLIIEJCN@c?3?2users?2nhv90?2projects?2eech?2ap@
  01077	a1 00 00 00 00	 mov	 eax, DWORD PTR ?null_entity_pointer_message@@3PBDB ; null_entity_pointer_message
  0107c	50		 push	 eax
  0107d	e8 00 00 00 00	 call	 ?process_assert@@YGXPBD0H@Z ; process_assert
  01082	c7 45 90 00 00
	00 00		 mov	 DWORD PTR tv739[ebp], 0
$LN143@response_t:
  01089	b9 01 00 00 00	 mov	 ecx, 1
  0108e	85 c9		 test	 ecx, ecx
  01090	74 09		 je	 SHORT $LN144@response_t
  01092	c7 45 8c 1a 00
	00 00		 mov	 DWORD PTR tv747[ebp], 26 ; 0000001aH
  01099	eb 24		 jmp	 SHORT $LN145@response_t
$LN144@response_t:
  0109b	8b 15 00 00 00
	00		 mov	 edx, DWORD PTR ?__LINE__Var@?0??response_to_waypoint_landed_reached@@YGHW4ENTITY_MESSAGES@@PAUENTITY@@1PAD@Z@4JA
  010a1	81 c2 b0 00 00
	00		 add	 edx, 176		; 000000b0H
  010a7	52		 push	 edx
  010a8	68 00 00 00 00	 push	 OFFSET ??_C@_0EE@DLIIEJCN@c?3?2users?2nhv90?2projects?2eech?2ap@
  010ad	a1 00 00 00 00	 mov	 eax, DWORD PTR ?overload_invalid_list_type_message@@3PBDB ; overload_invalid_list_type_message
  010b2	50		 push	 eax
  010b3	e8 00 00 00 00	 call	 ?process_assert@@YGXPBD0H@Z ; process_assert
  010b8	c7 45 8c 00 00
	00 00		 mov	 DWORD PTR tv747[ebp], 0
$LN145@response_t:
  010bf	6a 00		 push	 0
  010c1	6a 1a		 push	 26			; 0000001aH
  010c3	8b 4d ec	 mov	 ecx, DWORD PTR _keysite$[ebp]
  010c6	51		 push	 ecx
  010c7	69 55 90 b4 00
	00 00		 imul	 edx, DWORD PTR tv739[ebp], 180
  010ce	8b 45 8c	 mov	 eax, DWORD PTR tv747[ebp]
  010d1	8b 8c 82 00 00
	00 00		 mov	 ecx, DWORD PTR ?fn_get_local_entity_parent@@3PAY0CN@P6GPAUENTITY@@PAU1@W4LIST_TYPES@@@ZA[edx+eax*4]
  010d8	ff d1		 call	 ecx
  010da	50		 push	 eax
  010db	6a 1a		 push	 26			; 0000001aH
  010dd	8b 55 0c	 mov	 edx, DWORD PTR _receiver$[ebp]
  010e0	52		 push	 edx
  010e1	e8 00 00 00 00	 call	 ?insert_local_entity_into_parents_child_list@@YGXPAUENTITY@@W4LIST_TYPES@@00@Z ; insert_local_entity_into_parents_child_list
$LN12@response_t:

; 1439 : 	}
; 1440 : 
; 1441 : 	/////////////////////////////////////////////////////////////////
; 1442 : 	//
; 1443 : 	// Amalgamate groups
; 1444 : 	//
; 1445 : 	/////////////////////////////////////////////////////////////////
; 1446 : 
; 1447 : 	group = get_local_entity_parent (receiver, LIST_TYPE_MEMBER);

  010e6	83 7d 0c 00	 cmp	 DWORD PTR _receiver$[ebp], 0
  010ea	74 0a		 je	 SHORT $LN146@response_t
  010ec	8b 45 0c	 mov	 eax, DWORD PTR _receiver$[ebp]
  010ef	8b 08		 mov	 ecx, DWORD PTR [eax]
  010f1	89 4d 90	 mov	 DWORD PTR tv762[ebp], ecx
  010f4	eb 24		 jmp	 SHORT $LN147@response_t
$LN146@response_t:
  010f6	8b 15 00 00 00
	00		 mov	 edx, DWORD PTR ?__LINE__Var@?0??response_to_waypoint_landed_reached@@YGHW4ENTITY_MESSAGES@@PAUENTITY@@1PAD@Z@4JA
  010fc	81 c2 b9 00 00
	00		 add	 edx, 185		; 000000b9H
  01102	52		 push	 edx
  01103	68 00 00 00 00	 push	 OFFSET ??_C@_0EE@DLIIEJCN@c?3?2users?2nhv90?2projects?2eech?2ap@
  01108	a1 00 00 00 00	 mov	 eax, DWORD PTR ?null_entity_pointer_message@@3PBDB ; null_entity_pointer_message
  0110d	50		 push	 eax
  0110e	e8 00 00 00 00	 call	 ?process_assert@@YGXPBD0H@Z ; process_assert
  01113	c7 45 90 00 00
	00 00		 mov	 DWORD PTR tv762[ebp], 0
$LN147@response_t:
  0111a	b9 01 00 00 00	 mov	 ecx, 1
  0111f	85 c9		 test	 ecx, ecx
  01121	74 09		 je	 SHORT $LN148@response_t
  01123	c7 45 8c 19 00
	00 00		 mov	 DWORD PTR tv770[ebp], 25 ; 00000019H
  0112a	eb 24		 jmp	 SHORT $LN149@response_t
$LN148@response_t:
  0112c	8b 15 00 00 00
	00		 mov	 edx, DWORD PTR ?__LINE__Var@?0??response_to_waypoint_landed_reached@@YGHW4ENTITY_MESSAGES@@PAUENTITY@@1PAD@Z@4JA
  01132	81 c2 b9 00 00
	00		 add	 edx, 185		; 000000b9H
  01138	52		 push	 edx
  01139	68 00 00 00 00	 push	 OFFSET ??_C@_0EE@DLIIEJCN@c?3?2users?2nhv90?2projects?2eech?2ap@
  0113e	a1 00 00 00 00	 mov	 eax, DWORD PTR ?overload_invalid_list_type_message@@3PBDB ; overload_invalid_list_type_message
  01143	50		 push	 eax
  01144	e8 00 00 00 00	 call	 ?process_assert@@YGXPBD0H@Z ; process_assert
  01149	c7 45 8c 00 00
	00 00		 mov	 DWORD PTR tv770[ebp], 0
$LN149@response_t:
  01150	6a 19		 push	 25			; 00000019H
  01152	8b 4d 0c	 mov	 ecx, DWORD PTR _receiver$[ebp]
  01155	51		 push	 ecx
  01156	69 55 90 b4 00
	00 00		 imul	 edx, DWORD PTR tv762[ebp], 180
  0115d	8b 45 8c	 mov	 eax, DWORD PTR tv770[ebp]
  01160	8b 8c 82 00 00
	00 00		 mov	 ecx, DWORD PTR ?fn_get_local_entity_parent@@3PAY0CN@P6GPAUENTITY@@PAU1@W4LIST_TYPES@@@ZA[edx+eax*4]
  01167	ff d1		 call	 ecx
  01169	89 45 f4	 mov	 DWORD PTR _group$[ebp], eax

; 1448 : 
; 1449 : 	if (get_local_entity_int_value (group, INT_TYPE_GROUP_MODE) == GROUP_MODE_IDLE)

  0116c	83 7d f4 00	 cmp	 DWORD PTR _group$[ebp], 0
  01170	74 0a		 je	 SHORT $LN150@response_t
  01172	8b 45 f4	 mov	 eax, DWORD PTR _group$[ebp]
  01175	8b 08		 mov	 ecx, DWORD PTR [eax]
  01177	89 4d 90	 mov	 DWORD PTR tv781[ebp], ecx
  0117a	eb 1d		 jmp	 SHORT $LN151@response_t
$LN150@response_t:
  0117c	68 a9 05 00 00	 push	 1449			; 000005a9H
  01181	68 00 00 00 00	 push	 OFFSET ??_C@_0EE@DLIIEJCN@c?3?2users?2nhv90?2projects?2eech?2ap@
  01186	8b 15 00 00 00
	00		 mov	 edx, DWORD PTR ?null_entity_pointer_message@@3PBDB ; null_entity_pointer_message
  0118c	52		 push	 edx
  0118d	e8 00 00 00 00	 call	 ?process_assert@@YGXPBD0H@Z ; process_assert
  01192	c7 45 90 00 00
	00 00		 mov	 DWORD PTR tv781[ebp], 0
$LN151@response_t:
  01199	b8 01 00 00 00	 mov	 eax, 1
  0119e	85 c0		 test	 eax, eax
  011a0	74 09		 je	 SHORT $LN152@response_t
  011a2	c7 45 8c 4d 00
	00 00		 mov	 DWORD PTR tv788[ebp], 77 ; 0000004dH
  011a9	eb 1d		 jmp	 SHORT $LN153@response_t
$LN152@response_t:
  011ab	68 a9 05 00 00	 push	 1449			; 000005a9H
  011b0	68 00 00 00 00	 push	 OFFSET ??_C@_0EE@DLIIEJCN@c?3?2users?2nhv90?2projects?2eech?2ap@
  011b5	8b 0d 00 00 00
	00		 mov	 ecx, DWORD PTR ?overload_invalid_int_type_message@@3PBDB ; overload_invalid_int_type_message
  011bb	51		 push	 ecx
  011bc	e8 00 00 00 00	 call	 ?process_assert@@YGXPBD0H@Z ; process_assert
  011c1	c7 45 8c 00 00
	00 00		 mov	 DWORD PTR tv788[ebp], 0
$LN153@response_t:
  011c8	6a 4d		 push	 77			; 0000004dH
  011ca	8b 55 f4	 mov	 edx, DWORD PTR _group$[ebp]
  011cd	52		 push	 edx
  011ce	69 45 90 5c 04
	00 00		 imul	 eax, DWORD PTR tv781[ebp], 1116
  011d5	8b 4d 8c	 mov	 ecx, DWORD PTR tv788[ebp]
  011d8	8b 94 88 00 00
	00 00		 mov	 edx, DWORD PTR ?fn_get_local_entity_int_value@@3PAY0BBH@P6GHPAUENTITY@@W4INT_TYPES@@@ZA[eax+ecx*4]
  011df	ff d2		 call	 edx
  011e1	85 c0		 test	 eax, eax
  011e3	0f 85 b7 02 00
	00		 jne	 $LN3@response_t

; 1450 : 	{
; 1451 : 		if (get_local_entity_int_value (group, INT_TYPE_GROUP_AMALGAMATE))

  011e9	83 7d f4 00	 cmp	 DWORD PTR _group$[ebp], 0
  011ed	74 0a		 je	 SHORT $LN154@response_t
  011ef	8b 45 f4	 mov	 eax, DWORD PTR _group$[ebp]
  011f2	8b 08		 mov	 ecx, DWORD PTR [eax]
  011f4	89 4d 90	 mov	 DWORD PTR tv800[ebp], ecx
  011f7	eb 1d		 jmp	 SHORT $LN155@response_t
$LN154@response_t:
  011f9	68 ab 05 00 00	 push	 1451			; 000005abH
  011fe	68 00 00 00 00	 push	 OFFSET ??_C@_0EE@DLIIEJCN@c?3?2users?2nhv90?2projects?2eech?2ap@
  01203	8b 15 00 00 00
	00		 mov	 edx, DWORD PTR ?null_entity_pointer_message@@3PBDB ; null_entity_pointer_message
  01209	52		 push	 edx
  0120a	e8 00 00 00 00	 call	 ?process_assert@@YGXPBD0H@Z ; process_assert
  0120f	c7 45 90 00 00
	00 00		 mov	 DWORD PTR tv800[ebp], 0
$LN155@response_t:
  01216	b8 01 00 00 00	 mov	 eax, 1
  0121b	85 c0		 test	 eax, eax
  0121d	74 09		 je	 SHORT $LN156@response_t
  0121f	c7 45 8c 43 00
	00 00		 mov	 DWORD PTR tv807[ebp], 67 ; 00000043H
  01226	eb 1d		 jmp	 SHORT $LN157@response_t
$LN156@response_t:
  01228	68 ab 05 00 00	 push	 1451			; 000005abH
  0122d	68 00 00 00 00	 push	 OFFSET ??_C@_0EE@DLIIEJCN@c?3?2users?2nhv90?2projects?2eech?2ap@
  01232	8b 0d 00 00 00
	00		 mov	 ecx, DWORD PTR ?overload_invalid_int_type_message@@3PBDB ; overload_invalid_int_type_message
  01238	51		 push	 ecx
  01239	e8 00 00 00 00	 call	 ?process_assert@@YGXPBD0H@Z ; process_assert
  0123e	c7 45 8c 00 00
	00 00		 mov	 DWORD PTR tv807[ebp], 0
$LN157@response_t:
  01245	6a 43		 push	 67			; 00000043H
  01247	8b 55 f4	 mov	 edx, DWORD PTR _group$[ebp]
  0124a	52		 push	 edx
  0124b	69 45 90 5c 04
	00 00		 imul	 eax, DWORD PTR tv800[ebp], 1116
  01252	8b 4d 8c	 mov	 ecx, DWORD PTR tv807[ebp]
  01255	8b 94 88 00 00
	00 00		 mov	 edx, DWORD PTR ?fn_get_local_entity_int_value@@3PAY0BBH@P6GHPAUENTITY@@W4INT_TYPES@@@ZA[eax+ecx*4]
  0125c	ff d2		 call	 edx
  0125e	85 c0		 test	 eax, eax
  01260	0f 84 3a 02 00
	00		 je	 $LN3@response_t

; 1452 : 		{
; 1453 : 			//
; 1454 : 			// only amalgamate group if all members landed
; 1455 : 			//
; 1456 : 
; 1457 : 			donar_group = get_local_entity_first_child (keysite, LIST_TYPE_KEYSITE_GROUP);

  01266	83 7d ec 00	 cmp	 DWORD PTR _keysite$[ebp], 0
  0126a	74 0a		 je	 SHORT $LN158@response_t
  0126c	8b 45 ec	 mov	 eax, DWORD PTR _keysite$[ebp]
  0126f	8b 08		 mov	 ecx, DWORD PTR [eax]
  01271	89 4d 90	 mov	 DWORD PTR tv820[ebp], ecx
  01274	eb 24		 jmp	 SHORT $LN159@response_t
$LN158@response_t:
  01276	8b 15 00 00 00
	00		 mov	 edx, DWORD PTR ?__LINE__Var@?0??response_to_waypoint_landed_reached@@YGHW4ENTITY_MESSAGES@@PAUENTITY@@1PAD@Z@4JA
  0127c	81 c2 c3 00 00
	00		 add	 edx, 195		; 000000c3H
  01282	52		 push	 edx
  01283	68 00 00 00 00	 push	 OFFSET ??_C@_0EE@DLIIEJCN@c?3?2users?2nhv90?2projects?2eech?2ap@
  01288	a1 00 00 00 00	 mov	 eax, DWORD PTR ?null_entity_pointer_message@@3PBDB ; null_entity_pointer_message
  0128d	50		 push	 eax
  0128e	e8 00 00 00 00	 call	 ?process_assert@@YGXPBD0H@Z ; process_assert
  01293	c7 45 90 00 00
	00 00		 mov	 DWORD PTR tv820[ebp], 0
$LN159@response_t:
  0129a	b9 01 00 00 00	 mov	 ecx, 1
  0129f	85 c9		 test	 ecx, ecx
  012a1	74 09		 je	 SHORT $LN160@response_t
  012a3	c7 45 8c 16 00
	00 00		 mov	 DWORD PTR tv828[ebp], 22 ; 00000016H
  012aa	eb 24		 jmp	 SHORT $LN161@response_t
$LN160@response_t:
  012ac	8b 15 00 00 00
	00		 mov	 edx, DWORD PTR ?__LINE__Var@?0??response_to_waypoint_landed_reached@@YGHW4ENTITY_MESSAGES@@PAUENTITY@@1PAD@Z@4JA
  012b2	81 c2 c3 00 00
	00		 add	 edx, 195		; 000000c3H
  012b8	52		 push	 edx
  012b9	68 00 00 00 00	 push	 OFFSET ??_C@_0EE@DLIIEJCN@c?3?2users?2nhv90?2projects?2eech?2ap@
  012be	a1 00 00 00 00	 mov	 eax, DWORD PTR ?overload_invalid_list_type_message@@3PBDB ; overload_invalid_list_type_message
  012c3	50		 push	 eax
  012c4	e8 00 00 00 00	 call	 ?process_assert@@YGXPBD0H@Z ; process_assert
  012c9	c7 45 8c 00 00
	00 00		 mov	 DWORD PTR tv828[ebp], 0
$LN161@response_t:
  012d0	6a 16		 push	 22			; 00000016H
  012d2	8b 4d ec	 mov	 ecx, DWORD PTR _keysite$[ebp]
  012d5	51		 push	 ecx
  012d6	69 55 90 b4 00
	00 00		 imul	 edx, DWORD PTR tv820[ebp], 180
  012dd	8b 45 8c	 mov	 eax, DWORD PTR tv828[ebp]
  012e0	8b 8c 82 00 00
	00 00		 mov	 ecx, DWORD PTR ?fn_get_local_entity_first_child@@3PAY0CN@P6GPAUENTITY@@PAU1@W4LIST_TYPES@@@ZA[edx+eax*4]
  012e7	ff d1		 call	 ecx
  012e9	89 45 e4	 mov	 DWORD PTR _donar_group$[ebp], eax
$LN2@response_t:

; 1458 : 
; 1459 : 			while (donar_group)

  012ec	83 7d e4 00	 cmp	 DWORD PTR _donar_group$[ebp], 0
  012f0	0f 84 aa 01 00
	00		 je	 $LN3@response_t

; 1460 : 			{
; 1461 : 
; 1462 : 				if (donar_group != group)

  012f6	8b 45 e4	 mov	 eax, DWORD PTR _donar_group$[ebp]
  012f9	3b 45 f4	 cmp	 eax, DWORD PTR _group$[ebp]
  012fc	0f 84 13 01 00
	00		 je	 $LN18@response_t

; 1463 : 				{
; 1464 : 		
; 1465 : 					if (get_local_entity_int_value (donar_group, INT_TYPE_GROUP_MODE) == GROUP_MODE_IDLE)

  01302	83 7d e4 00	 cmp	 DWORD PTR _donar_group$[ebp], 0
  01306	74 0a		 je	 SHORT $LN162@response_t
  01308	8b 45 e4	 mov	 eax, DWORD PTR _donar_group$[ebp]
  0130b	8b 08		 mov	 ecx, DWORD PTR [eax]
  0130d	89 4d 90	 mov	 DWORD PTR tv841[ebp], ecx
  01310	eb 1d		 jmp	 SHORT $LN163@response_t
$LN162@response_t:
  01312	68 b9 05 00 00	 push	 1465			; 000005b9H
  01317	68 00 00 00 00	 push	 OFFSET ??_C@_0EE@DLIIEJCN@c?3?2users?2nhv90?2projects?2eech?2ap@
  0131c	8b 15 00 00 00
	00		 mov	 edx, DWORD PTR ?null_entity_pointer_message@@3PBDB ; null_entity_pointer_message
  01322	52		 push	 edx
  01323	e8 00 00 00 00	 call	 ?process_assert@@YGXPBD0H@Z ; process_assert
  01328	c7 45 90 00 00
	00 00		 mov	 DWORD PTR tv841[ebp], 0
$LN163@response_t:
  0132f	b8 01 00 00 00	 mov	 eax, 1
  01334	85 c0		 test	 eax, eax
  01336	74 09		 je	 SHORT $LN164@response_t
  01338	c7 45 8c 4d 00
	00 00		 mov	 DWORD PTR tv848[ebp], 77 ; 0000004dH
  0133f	eb 1d		 jmp	 SHORT $LN165@response_t
$LN164@response_t:
  01341	68 b9 05 00 00	 push	 1465			; 000005b9H
  01346	68 00 00 00 00	 push	 OFFSET ??_C@_0EE@DLIIEJCN@c?3?2users?2nhv90?2projects?2eech?2ap@
  0134b	8b 0d 00 00 00
	00		 mov	 ecx, DWORD PTR ?overload_invalid_int_type_message@@3PBDB ; overload_invalid_int_type_message
  01351	51		 push	 ecx
  01352	e8 00 00 00 00	 call	 ?process_assert@@YGXPBD0H@Z ; process_assert
  01357	c7 45 8c 00 00
	00 00		 mov	 DWORD PTR tv848[ebp], 0
$LN165@response_t:
  0135e	6a 4d		 push	 77			; 0000004dH
  01360	8b 55 e4	 mov	 edx, DWORD PTR _donar_group$[ebp]
  01363	52		 push	 edx
  01364	69 45 90 5c 04
	00 00		 imul	 eax, DWORD PTR tv841[ebp], 1116
  0136b	8b 4d 8c	 mov	 ecx, DWORD PTR tv848[ebp]
  0136e	8b 94 88 00 00
	00 00		 mov	 edx, DWORD PTR ?fn_get_local_entity_int_value@@3PAY0BBH@P6GHPAUENTITY@@W4INT_TYPES@@@ZA[eax+ecx*4]
  01375	ff d2		 call	 edx
  01377	85 c0		 test	 eax, eax
  01379	0f 85 96 00 00
	00		 jne	 $LN18@response_t

; 1466 : 					{
; 1467 : 
; 1468 : 						if (get_local_entity_int_value (donar_group, INT_TYPE_GROUP_AMALGAMATE))

  0137f	83 7d e4 00	 cmp	 DWORD PTR _donar_group$[ebp], 0
  01383	74 0a		 je	 SHORT $LN166@response_t
  01385	8b 45 e4	 mov	 eax, DWORD PTR _donar_group$[ebp]
  01388	8b 08		 mov	 ecx, DWORD PTR [eax]
  0138a	89 4d 90	 mov	 DWORD PTR tv860[ebp], ecx
  0138d	eb 1d		 jmp	 SHORT $LN167@response_t
$LN166@response_t:
  0138f	68 bc 05 00 00	 push	 1468			; 000005bcH
  01394	68 00 00 00 00	 push	 OFFSET ??_C@_0EE@DLIIEJCN@c?3?2users?2nhv90?2projects?2eech?2ap@
  01399	8b 15 00 00 00
	00		 mov	 edx, DWORD PTR ?null_entity_pointer_message@@3PBDB ; null_entity_pointer_message
  0139f	52		 push	 edx
  013a0	e8 00 00 00 00	 call	 ?process_assert@@YGXPBD0H@Z ; process_assert
  013a5	c7 45 90 00 00
	00 00		 mov	 DWORD PTR tv860[ebp], 0
$LN167@response_t:
  013ac	b8 01 00 00 00	 mov	 eax, 1
  013b1	85 c0		 test	 eax, eax
  013b3	74 09		 je	 SHORT $LN168@response_t
  013b5	c7 45 8c 43 00
	00 00		 mov	 DWORD PTR tv867[ebp], 67 ; 00000043H
  013bc	eb 1d		 jmp	 SHORT $LN169@response_t
$LN168@response_t:
  013be	68 bc 05 00 00	 push	 1468			; 000005bcH
  013c3	68 00 00 00 00	 push	 OFFSET ??_C@_0EE@DLIIEJCN@c?3?2users?2nhv90?2projects?2eech?2ap@
  013c8	8b 0d 00 00 00
	00		 mov	 ecx, DWORD PTR ?overload_invalid_int_type_message@@3PBDB ; overload_invalid_int_type_message
  013ce	51		 push	 ecx
  013cf	e8 00 00 00 00	 call	 ?process_assert@@YGXPBD0H@Z ; process_assert
  013d4	c7 45 8c 00 00
	00 00		 mov	 DWORD PTR tv867[ebp], 0
$LN169@response_t:
  013db	6a 43		 push	 67			; 00000043H
  013dd	8b 55 e4	 mov	 edx, DWORD PTR _donar_group$[ebp]
  013e0	52		 push	 edx
  013e1	69 45 90 5c 04
	00 00		 imul	 eax, DWORD PTR tv860[ebp], 1116
  013e8	8b 4d 8c	 mov	 ecx, DWORD PTR tv867[ebp]
  013eb	8b 94 88 00 00
	00 00		 mov	 edx, DWORD PTR ?fn_get_local_entity_int_value@@3PAY0BBH@P6GHPAUENTITY@@W4INT_TYPES@@@ZA[eax+ecx*4]
  013f2	ff d2		 call	 edx
  013f4	85 c0		 test	 eax, eax
  013f6	74 1d		 je	 SHORT $LN18@response_t

; 1469 : 						{
; 1470 : 
; 1471 : 							if (amalgamate_groups (group, donar_group))

  013f8	8b 45 e4	 mov	 eax, DWORD PTR _donar_group$[ebp]
  013fb	50		 push	 eax
  013fc	8b 4d f4	 mov	 ecx, DWORD PTR _group$[ebp]
  013ff	51		 push	 ecx
  01400	e8 00 00 00 00	 call	 ?amalgamate_groups@@YGHPAUENTITY@@0@Z ; amalgamate_groups
  01405	85 c0		 test	 eax, eax
  01407	74 0c		 je	 SHORT $LN18@response_t

; 1472 : 							{
; 1473 : 		
; 1474 : 								donar_group = NULL;

  01409	c7 45 e4 00 00
	00 00		 mov	 DWORD PTR _donar_group$[ebp], 0

; 1475 : 	
; 1476 : 								break;

  01410	e9 8b 00 00 00	 jmp	 $LN3@response_t
$LN18@response_t:

; 1477 : 							}
; 1478 : 						}
; 1479 : 					}
; 1480 : 				}
; 1481 : 
; 1482 : 				donar_group = get_local_entity_child_succ (donar_group, LIST_TYPE_KEYSITE_GROUP);

  01415	83 7d e4 00	 cmp	 DWORD PTR _donar_group$[ebp], 0
  01419	74 0a		 je	 SHORT $LN170@response_t
  0141b	8b 45 e4	 mov	 eax, DWORD PTR _donar_group$[ebp]
  0141e	8b 08		 mov	 ecx, DWORD PTR [eax]
  01420	89 4d 90	 mov	 DWORD PTR tv884[ebp], ecx
  01423	eb 24		 jmp	 SHORT $LN171@response_t
$LN170@response_t:
  01425	8b 15 00 00 00
	00		 mov	 edx, DWORD PTR ?__LINE__Var@?0??response_to_waypoint_landed_reached@@YGHW4ENTITY_MESSAGES@@PAUENTITY@@1PAD@Z@4JA
  0142b	81 c2 dc 00 00
	00		 add	 edx, 220		; 000000dcH
  01431	52		 push	 edx
  01432	68 00 00 00 00	 push	 OFFSET ??_C@_0EE@DLIIEJCN@c?3?2users?2nhv90?2projects?2eech?2ap@
  01437	a1 00 00 00 00	 mov	 eax, DWORD PTR ?null_entity_pointer_message@@3PBDB ; null_entity_pointer_message
  0143c	50		 push	 eax
  0143d	e8 00 00 00 00	 call	 ?process_assert@@YGXPBD0H@Z ; process_assert
  01442	c7 45 90 00 00
	00 00		 mov	 DWORD PTR tv884[ebp], 0
$LN171@response_t:
  01449	b9 01 00 00 00	 mov	 ecx, 1
  0144e	85 c9		 test	 ecx, ecx
  01450	74 09		 je	 SHORT $LN172@response_t
  01452	c7 45 8c 16 00
	00 00		 mov	 DWORD PTR tv892[ebp], 22 ; 00000016H
  01459	eb 24		 jmp	 SHORT $LN173@response_t
$LN172@response_t:
  0145b	8b 15 00 00 00
	00		 mov	 edx, DWORD PTR ?__LINE__Var@?0??response_to_waypoint_landed_reached@@YGHW4ENTITY_MESSAGES@@PAUENTITY@@1PAD@Z@4JA
  01461	81 c2 dc 00 00
	00		 add	 edx, 220		; 000000dcH
  01467	52		 push	 edx
  01468	68 00 00 00 00	 push	 OFFSET ??_C@_0EE@DLIIEJCN@c?3?2users?2nhv90?2projects?2eech?2ap@
  0146d	a1 00 00 00 00	 mov	 eax, DWORD PTR ?overload_invalid_list_type_message@@3PBDB ; overload_invalid_list_type_message
  01472	50		 push	 eax
  01473	e8 00 00 00 00	 call	 ?process_assert@@YGXPBD0H@Z ; process_assert
  01478	c7 45 8c 00 00
	00 00		 mov	 DWORD PTR tv892[ebp], 0
$LN173@response_t:
  0147f	6a 16		 push	 22			; 00000016H
  01481	8b 4d e4	 mov	 ecx, DWORD PTR _donar_group$[ebp]
  01484	51		 push	 ecx
  01485	69 55 90 b4 00
	00 00		 imul	 edx, DWORD PTR tv884[ebp], 180
  0148c	8b 45 8c	 mov	 eax, DWORD PTR tv892[ebp]
  0148f	8b 8c 82 00 00
	00 00		 mov	 ecx, DWORD PTR ?fn_get_local_entity_child_succ@@3PAY0CN@P6GPAUENTITY@@PAU1@W4LIST_TYPES@@@ZA[edx+eax*4]
  01496	ff d1		 call	 ecx
  01498	89 45 e4	 mov	 DWORD PTR _donar_group$[ebp], eax

; 1483 : 			}

  0149b	e9 4c fe ff ff	 jmp	 $LN2@response_t
$LN3@response_t:

; 1484 : 		}
; 1485 : 	}
; 1486 : 
; 1487 : 	/////////////////////////////////////////////////////////////////
; 1488 : 	//
; 1489 : 	// SPECIAL_EFFECT_HOOK FOR LANDED
; 1490 : 	//
; 1491 : 	/////////////////////////////////////////////////////////////////
; 1492 : 
; 1493 : 	set_infinite_smoke_list_generating_state (receiver, ENTITY_SUB_TYPE_EFFECT_SMOKE_LIST_VEHICLE_WAKE, INFINITE_SMOKE_OFF);

  014a0	51		 push	 ecx
  014a1	0f 57 c0	 xorps	 xmm0, xmm0
  014a4	f3 0f 11 04 24	 movss	 DWORD PTR [esp], xmm0
  014a9	6a 09		 push	 9
  014ab	8b 45 0c	 mov	 eax, DWORD PTR _receiver$[ebp]
  014ae	50		 push	 eax
  014af	e8 00 00 00 00	 call	 ?set_infinite_smoke_list_generating_state@@YGHPAUENTITY@@HM@Z ; set_infinite_smoke_list_generating_state

; 1494 : 
; 1495 : 	if (get_local_entity_int_value (receiver, INT_TYPE_IDENTIFY_VEHICLE))

  014b4	83 7d 0c 00	 cmp	 DWORD PTR _receiver$[ebp], 0
  014b8	74 0a		 je	 SHORT $LN174@response_t
  014ba	8b 45 0c	 mov	 eax, DWORD PTR _receiver$[ebp]
  014bd	8b 08		 mov	 ecx, DWORD PTR [eax]
  014bf	89 4d 90	 mov	 DWORD PTR tv906[ebp], ecx
  014c2	eb 1d		 jmp	 SHORT $LN175@response_t
$LN174@response_t:
  014c4	68 d7 05 00 00	 push	 1495			; 000005d7H
  014c9	68 00 00 00 00	 push	 OFFSET ??_C@_0EE@DLIIEJCN@c?3?2users?2nhv90?2projects?2eech?2ap@
  014ce	8b 15 00 00 00
	00		 mov	 edx, DWORD PTR ?null_entity_pointer_message@@3PBDB ; null_entity_pointer_message
  014d4	52		 push	 edx
  014d5	e8 00 00 00 00	 call	 ?process_assert@@YGXPBD0H@Z ; process_assert
  014da	c7 45 90 00 00
	00 00		 mov	 DWORD PTR tv906[ebp], 0
$LN175@response_t:
  014e1	b8 01 00 00 00	 mov	 eax, 1
  014e6	85 c0		 test	 eax, eax
  014e8	74 09		 je	 SHORT $LN176@response_t
  014ea	c7 45 8c 60 00
	00 00		 mov	 DWORD PTR tv913[ebp], 96 ; 00000060H
  014f1	eb 1d		 jmp	 SHORT $LN177@response_t
$LN176@response_t:
  014f3	68 d7 05 00 00	 push	 1495			; 000005d7H
  014f8	68 00 00 00 00	 push	 OFFSET ??_C@_0EE@DLIIEJCN@c?3?2users?2nhv90?2projects?2eech?2ap@
  014fd	8b 0d 00 00 00
	00		 mov	 ecx, DWORD PTR ?overload_invalid_int_type_message@@3PBDB ; overload_invalid_int_type_message
  01503	51		 push	 ecx
  01504	e8 00 00 00 00	 call	 ?process_assert@@YGXPBD0H@Z ; process_assert
  01509	c7 45 8c 00 00
	00 00		 mov	 DWORD PTR tv913[ebp], 0
$LN177@response_t:
  01510	6a 60		 push	 96			; 00000060H
  01512	8b 55 0c	 mov	 edx, DWORD PTR _receiver$[ebp]
  01515	52		 push	 edx
  01516	69 45 90 5c 04
	00 00		 imul	 eax, DWORD PTR tv906[ebp], 1116
  0151d	8b 4d 8c	 mov	 ecx, DWORD PTR tv913[ebp]
  01520	8b 94 88 00 00
	00 00		 mov	 edx, DWORD PTR ?fn_get_local_entity_int_value@@3PAY0BBH@P6GHPAUENTITY@@W4INT_TYPES@@@ZA[eax+ecx*4]
  01527	ff d2		 call	 edx
  01529	85 c0		 test	 eax, eax
  0152b	0f 84 84 00 00
	00		 je	 $LN20@response_t

; 1496 : 	{
; 1497 : 		if (get_local_entity_int_value (receiver, INT_TYPE_LIGHTS_ON))

  01531	83 7d 0c 00	 cmp	 DWORD PTR _receiver$[ebp], 0
  01535	74 0a		 je	 SHORT $LN178@response_t
  01537	8b 45 0c	 mov	 eax, DWORD PTR _receiver$[ebp]
  0153a	8b 08		 mov	 ecx, DWORD PTR [eax]
  0153c	89 4d 90	 mov	 DWORD PTR tv925[ebp], ecx
  0153f	eb 1d		 jmp	 SHORT $LN179@response_t
$LN178@response_t:
  01541	68 d9 05 00 00	 push	 1497			; 000005d9H
  01546	68 00 00 00 00	 push	 OFFSET ??_C@_0EE@DLIIEJCN@c?3?2users?2nhv90?2projects?2eech?2ap@
  0154b	8b 15 00 00 00
	00		 mov	 edx, DWORD PTR ?null_entity_pointer_message@@3PBDB ; null_entity_pointer_message
  01551	52		 push	 edx
  01552	e8 00 00 00 00	 call	 ?process_assert@@YGXPBD0H@Z ; process_assert
  01557	c7 45 90 00 00
	00 00		 mov	 DWORD PTR tv925[ebp], 0
$LN179@response_t:
  0155e	b8 01 00 00 00	 mov	 eax, 1
  01563	85 c0		 test	 eax, eax
  01565	74 09		 je	 SHORT $LN180@response_t
  01567	c7 45 8c 7a 00
	00 00		 mov	 DWORD PTR tv932[ebp], 122 ; 0000007aH
  0156e	eb 1d		 jmp	 SHORT $LN181@response_t
$LN180@response_t:
  01570	68 d9 05 00 00	 push	 1497			; 000005d9H
  01575	68 00 00 00 00	 push	 OFFSET ??_C@_0EE@DLIIEJCN@c?3?2users?2nhv90?2projects?2eech?2ap@
  0157a	8b 0d 00 00 00
	00		 mov	 ecx, DWORD PTR ?overload_invalid_int_type_message@@3PBDB ; overload_invalid_int_type_message
  01580	51		 push	 ecx
  01581	e8 00 00 00 00	 call	 ?process_assert@@YGXPBD0H@Z ; process_assert
  01586	c7 45 8c 00 00
	00 00		 mov	 DWORD PTR tv932[ebp], 0
$LN181@response_t:
  0158d	6a 7a		 push	 122			; 0000007aH
  0158f	8b 55 0c	 mov	 edx, DWORD PTR _receiver$[ebp]
  01592	52		 push	 edx
  01593	69 45 90 5c 04
	00 00		 imul	 eax, DWORD PTR tv925[ebp], 1116
  0159a	8b 4d 8c	 mov	 ecx, DWORD PTR tv932[ebp]
  0159d	8b 94 88 00 00
	00 00		 mov	 edx, DWORD PTR ?fn_get_local_entity_int_value@@3PAY0BBH@P6GHPAUENTITY@@W4INT_TYPES@@@ZA[eax+ecx*4]
  015a4	ff d2		 call	 edx
  015a6	85 c0		 test	 eax, eax
  015a8	74 0b		 je	 SHORT $LN20@response_t

; 1498 : 		{
; 1499 : 			set_vehicle_headlight_state (receiver, OFF);

  015aa	6a 00		 push	 0
  015ac	8b 45 0c	 mov	 eax, DWORD PTR _receiver$[ebp]
  015af	50		 push	 eax
  015b0	e8 00 00 00 00	 call	 ?set_vehicle_headlight_state@@YGXPAUENTITY@@H@Z ; set_vehicle_headlight_state
$LN20@response_t:

; 1500 : 		}
; 1501 : 	}
; 1502 : 
; 1503 : 	open_client_server_entity_loading_doors (receiver);

  015b5	8b 45 0c	 mov	 eax, DWORD PTR _receiver$[ebp]
  015b8	50		 push	 eax
  015b9	e8 00 00 00 00	 call	 ?open_client_server_entity_loading_doors@@YGXPAUENTITY@@@Z ; open_client_server_entity_loading_doors

; 1504 : 
; 1505 : 	open_client_server_entity_cargo_doors (receiver);

  015be	8b 45 0c	 mov	 eax, DWORD PTR _receiver$[ebp]
  015c1	50		 push	 eax
  015c2	e8 00 00 00 00	 call	 ?open_client_server_entity_cargo_doors@@YGXPAUENTITY@@@Z ; open_client_server_entity_cargo_doors

; 1506 : 
; 1507 : 	/////////////////////////////////////////////////////////////////
; 1508 : 	//
; 1509 : 	//
; 1510 : 	/////////////////////////////////////////////////////////////////
; 1511 : 
; 1512 : 	set_local_entity_float_value (receiver, FLOAT_TYPE_VIEW_INTEREST_LEVEL, DEFAULT_VIEW_INTEREST_LEVEL);

  015c7	83 7d 0c 00	 cmp	 DWORD PTR _receiver$[ebp], 0
  015cb	74 0a		 je	 SHORT $LN182@response_t
  015cd	8b 45 0c	 mov	 eax, DWORD PTR _receiver$[ebp]
  015d0	8b 08		 mov	 ecx, DWORD PTR [eax]
  015d2	89 4d 90	 mov	 DWORD PTR tv949[ebp], ecx
  015d5	eb 24		 jmp	 SHORT $LN183@response_t
$LN182@response_t:
  015d7	8b 15 00 00 00
	00		 mov	 edx, DWORD PTR ?__LINE__Var@?0??response_to_waypoint_landed_reached@@YGHW4ENTITY_MESSAGES@@PAUENTITY@@1PAD@Z@4JA
  015dd	81 c2 fa 00 00
	00		 add	 edx, 250		; 000000faH
  015e3	52		 push	 edx
  015e4	68 00 00 00 00	 push	 OFFSET ??_C@_0EE@DLIIEJCN@c?3?2users?2nhv90?2projects?2eech?2ap@
  015e9	a1 00 00 00 00	 mov	 eax, DWORD PTR ?null_entity_pointer_message@@3PBDB ; null_entity_pointer_message
  015ee	50		 push	 eax
  015ef	e8 00 00 00 00	 call	 ?process_assert@@YGXPBD0H@Z ; process_assert
  015f4	c7 45 90 00 00
	00 00		 mov	 DWORD PTR tv949[ebp], 0
$LN183@response_t:
  015fb	b9 01 00 00 00	 mov	 ecx, 1
  01600	85 c9		 test	 ecx, ecx
  01602	74 09		 je	 SHORT $LN184@response_t
  01604	c7 45 8c 95 00
	00 00		 mov	 DWORD PTR tv957[ebp], 149 ; 00000095H
  0160b	eb 24		 jmp	 SHORT $LN185@response_t
$LN184@response_t:
  0160d	8b 15 00 00 00
	00		 mov	 edx, DWORD PTR ?__LINE__Var@?0??response_to_waypoint_landed_reached@@YGHW4ENTITY_MESSAGES@@PAUENTITY@@1PAD@Z@4JA
  01613	81 c2 fa 00 00
	00		 add	 edx, 250		; 000000faH
  01619	52		 push	 edx
  0161a	68 00 00 00 00	 push	 OFFSET ??_C@_0EE@DLIIEJCN@c?3?2users?2nhv90?2projects?2eech?2ap@
  0161f	a1 00 00 00 00	 mov	 eax, DWORD PTR ?overload_invalid_float_type_message@@3PBDB ; overload_invalid_float_type_message
  01624	50		 push	 eax
  01625	e8 00 00 00 00	 call	 ?process_assert@@YGXPBD0H@Z ; process_assert
  0162a	c7 45 8c 00 00
	00 00		 mov	 DWORD PTR tv957[ebp], 0
$LN185@response_t:
  01631	51		 push	 ecx
  01632	f3 0f 10 05 00
	00 00 00	 movss	 xmm0, DWORD PTR __real@40a00000
  0163a	f3 0f 11 04 24	 movss	 DWORD PTR [esp], xmm0
  0163f	68 95 00 00 00	 push	 149			; 00000095H
  01644	8b 4d 0c	 mov	 ecx, DWORD PTR _receiver$[ebp]
  01647	51		 push	 ecx
  01648	69 55 90 bc 02
	00 00		 imul	 edx, DWORD PTR tv949[ebp], 700
  0164f	8b 45 8c	 mov	 eax, DWORD PTR tv957[ebp]
  01652	8b 8c 82 00 00
	00 00		 mov	 ecx, DWORD PTR ?fn_set_local_entity_float_value@@3PAY0KP@P6GXPAUENTITY@@W4FLOAT_TYPES@@M@ZA[edx+eax*4]
  01659	ff d1		 call	 ecx

; 1513 : 
; 1514 : 	return (TRUE);

  0165b	b8 01 00 00 00	 mov	 eax, 1

; 1515 : }

  01660	5f		 pop	 edi
  01661	5e		 pop	 esi
  01662	5b		 pop	 ebx
  01663	8b e5		 mov	 esp, ebp
  01665	5d		 pop	 ebp
  01666	c2 10 00	 ret	 16			; 00000010H
?response_to_waypoint_landed_reached@@YGHW4ENTITY_MESSAGES@@PAUENTITY@@1PAD@Z ENDP ; response_to_waypoint_landed_reached
_TEXT	ENDS
; Function compile flags: /Odtp /ZI
; File c:\users\nhv90\projects\eech\aphavoc\source\entity\mobile\mb_msgs.c
;	COMDAT ?response_to_waypoint_land_reached@@YGHW4ENTITY_MESSAGES@@PAUENTITY@@1PAD@Z
_TEXT	SEGMENT
tv567 = -124						; size = 4
tv559 = -120						; size = 4
tv543 = -116						; size = 4
tv352 = -116						; size = 4
tv535 = -112						; size = 4
tv345 = -112						; size = 4
tv609 = -108						; size = 4
tv589 = -108						; size = 4
tv516 = -108						; size = 4
tv481 = -108						; size = 4
tv456 = -108						; size = 4
tv435 = -108						; size = 4
tv404 = -108						; size = 4
tv381 = -108						; size = 4
tv334 = -108						; size = 4
tv315 = -108						; size = 4
tv287 = -108						; size = 4
tv261 = -108						; size = 4
tv241 = -108						; size = 4
tv219 = -108						; size = 4
tv198 = -108						; size = 4
tv179 = -108						; size = 4
tv153 = -108						; size = 4
tv133 = -108						; size = 4
tv601 = -104						; size = 4
tv581 = -104						; size = 4
tv508 = -104						; size = 4
tv473 = -104						; size = 4
tv448 = -104						; size = 4
tv427 = -104						; size = 4
tv396 = -104						; size = 4
tv373 = -104						; size = 4
tv327 = -104						; size = 4
tv308 = -104						; size = 4
tv279 = -104						; size = 4
tv253 = -104						; size = 4
tv233 = -104						; size = 4
tv211 = -104						; size = 4
tv191 = -104						; size = 4
tv171 = -104						; size = 4
tv145 = -104						; size = 4
tv93 = -104						; size = 4
tv75 = -104						; size = 4
_raw$ = -36						; size = 4
_new_landing$ = -32					; size = 4
_new_keysite$ = -28					; size = 4
_new_task$ = -24					; size = 4
_landing$ = -20						; size = 4
_keysite$ = -16						; size = 4
_group$ = -12						; size = 4
_task$ = -8						; size = 4
_mb$ = -4						; size = 4
_message$ = 8						; size = 4
_receiver$ = 12						; size = 4
_sender$ = 16						; size = 4
_pargs$ = 20						; size = 4
?response_to_waypoint_land_reached@@YGHW4ENTITY_MESSAGES@@PAUENTITY@@1PAD@Z PROC ; response_to_waypoint_land_reached, COMDAT

; 1095 : {

  00000	55		 push	 ebp
  00001	8b ec		 mov	 ebp, esp
  00003	83 ec 7c	 sub	 esp, 124		; 0000007cH
  00006	53		 push	 ebx
  00007	56		 push	 esi
  00008	57		 push	 edi

; 1096 : 
; 1097 : 	entity
; 1098 : 		*mb,
; 1099 : 		*task,
; 1100 : 		*group,
; 1101 : 		*keysite,
; 1102 : 		*landing,
; 1103 : 		*new_task,
; 1104 : 		*new_keysite,
; 1105 : 		*new_landing;
; 1106 : 
; 1107 : 	mobile
; 1108 : 		*raw;
; 1109 : 
; 1110 : 	ASSERT (sender);

  00009	83 7d 10 00	 cmp	 DWORD PTR _sender$[ebp], 0
  0000d	75 18		 jne	 SHORT $LN6@response_t
  0000f	a1 00 00 00 00	 mov	 eax, DWORD PTR ?__LINE__Var@?0??response_to_waypoint_land_reached@@YGHW4ENTITY_MESSAGES@@PAUENTITY@@1PAD@Z@4JA
  00014	83 c0 0f	 add	 eax, 15			; 0000000fH
  00017	50		 push	 eax
  00018	68 00 00 00 00	 push	 OFFSET ??_C@_0EE@DLIIEJCN@c?3?2users?2nhv90?2projects?2eech?2ap@
  0001d	68 00 00 00 00	 push	 OFFSET ??_C@_06CGHJMPBJ@sender@
  00022	e8 00 00 00 00	 call	 ?process_assert@@YGXPBD0H@Z ; process_assert
$LN6@response_t:

; 1111 : 
; 1112 : 	ASSERT (get_local_entity_type (sender) == ENTITY_TYPE_WAYPOINT);

  00027	83 7d 10 00	 cmp	 DWORD PTR _sender$[ebp], 0
  0002b	74 0a		 je	 SHORT $LN17@response_t
  0002d	8b 45 10	 mov	 eax, DWORD PTR _sender$[ebp]
  00030	8b 08		 mov	 ecx, DWORD PTR [eax]
  00032	89 4d 98	 mov	 DWORD PTR tv75[ebp], ecx
  00035	eb 21		 jmp	 SHORT $LN18@response_t
$LN17@response_t:
  00037	8b 15 00 00 00
	00		 mov	 edx, DWORD PTR ?__LINE__Var@?0??response_to_waypoint_land_reached@@YGHW4ENTITY_MESSAGES@@PAUENTITY@@1PAD@Z@4JA
  0003d	83 c2 11	 add	 edx, 17			; 00000011H
  00040	52		 push	 edx
  00041	68 00 00 00 00	 push	 OFFSET ??_C@_0EE@DLIIEJCN@c?3?2users?2nhv90?2projects?2eech?2ap@
  00046	a1 00 00 00 00	 mov	 eax, DWORD PTR ?null_entity_pointer_message@@3PBDB ; null_entity_pointer_message
  0004b	50		 push	 eax
  0004c	e8 00 00 00 00	 call	 ?process_assert@@YGXPBD0H@Z ; process_assert
  00051	c7 45 98 00 00
	00 00		 mov	 DWORD PTR tv75[ebp], 0
$LN18@response_t:
  00058	83 7d 98 24	 cmp	 DWORD PTR tv75[ebp], 36	; 00000024H
  0005c	74 18		 je	 SHORT $LN7@response_t
  0005e	a1 00 00 00 00	 mov	 eax, DWORD PTR ?__LINE__Var@?0??response_to_waypoint_land_reached@@YGHW4ENTITY_MESSAGES@@PAUENTITY@@1PAD@Z@4JA
  00063	83 c0 11	 add	 eax, 17			; 00000011H
  00066	50		 push	 eax
  00067	68 00 00 00 00	 push	 OFFSET ??_C@_0EE@DLIIEJCN@c?3?2users?2nhv90?2projects?2eech?2ap@
  0006c	68 00 00 00 00	 push	 OFFSET ??_C@_0DH@NBKEDIK@get_local_entity_type?5?$CIsender?$CJ?5@
  00071	e8 00 00 00 00	 call	 ?process_assert@@YGXPBD0H@Z ; process_assert
$LN7@response_t:

; 1113 : 
; 1114 : 	ASSERT (get_comms_model () == COMMS_MODEL_SERVER);

  00076	83 3d 00 00 00
	00 00		 cmp	 DWORD PTR ?system_comms_model@@3W4COMMS_MODEL_TYPES@@A, 0 ; system_comms_model
  0007d	74 18		 je	 SHORT $LN8@response_t
  0007f	a1 00 00 00 00	 mov	 eax, DWORD PTR ?__LINE__Var@?0??response_to_waypoint_land_reached@@YGHW4ENTITY_MESSAGES@@PAUENTITY@@1PAD@Z@4JA
  00084	83 c0 13	 add	 eax, 19			; 00000013H
  00087	50		 push	 eax
  00088	68 00 00 00 00	 push	 OFFSET ??_C@_0EE@DLIIEJCN@c?3?2users?2nhv90?2projects?2eech?2ap@
  0008d	68 00 00 00 00	 push	 OFFSET ??_C@_0CJ@DMBLBJBK@get_comms_model?5?$CI?$CJ?5?$DN?$DN?5COMMS_MOD@
  00092	e8 00 00 00 00	 call	 ?process_assert@@YGXPBD0H@Z ; process_assert
$LN8@response_t:

; 1115 : 
; 1116 : 	#if DEBUG_MODULE >= 2
; 1117 : 
; 1118 : 	debug_log_entity_message (message, receiver, sender, pargs);
; 1119 : 
; 1120 : 	#endif
; 1121 : 
; 1122 : 	raw = (mobile *) get_local_entity_data (receiver);

  00097	8b 45 0c	 mov	 eax, DWORD PTR _receiver$[ebp]
  0009a	8b 48 04	 mov	 ecx, DWORD PTR [eax+4]
  0009d	89 4d dc	 mov	 DWORD PTR _raw$[ebp], ecx

; 1123 : 
; 1124 : 	group = get_local_entity_parent (receiver, LIST_TYPE_MEMBER);

  000a0	83 7d 0c 00	 cmp	 DWORD PTR _receiver$[ebp], 0
  000a4	74 0a		 je	 SHORT $LN19@response_t
  000a6	8b 45 0c	 mov	 eax, DWORD PTR _receiver$[ebp]
  000a9	8b 08		 mov	 ecx, DWORD PTR [eax]
  000ab	89 4d 98	 mov	 DWORD PTR tv93[ebp], ecx
  000ae	eb 21		 jmp	 SHORT $LN20@response_t
$LN19@response_t:
  000b0	8b 15 00 00 00
	00		 mov	 edx, DWORD PTR ?__LINE__Var@?0??response_to_waypoint_land_reached@@YGHW4ENTITY_MESSAGES@@PAUENTITY@@1PAD@Z@4JA
  000b6	83 c2 1d	 add	 edx, 29			; 0000001dH
  000b9	52		 push	 edx
  000ba	68 00 00 00 00	 push	 OFFSET ??_C@_0EE@DLIIEJCN@c?3?2users?2nhv90?2projects?2eech?2ap@
  000bf	a1 00 00 00 00	 mov	 eax, DWORD PTR ?null_entity_pointer_message@@3PBDB ; null_entity_pointer_message
  000c4	50		 push	 eax
  000c5	e8 00 00 00 00	 call	 ?process_assert@@YGXPBD0H@Z ; process_assert
  000ca	c7 45 98 00 00
	00 00		 mov	 DWORD PTR tv93[ebp], 0
$LN20@response_t:
  000d1	b9 01 00 00 00	 mov	 ecx, 1
  000d6	85 c9		 test	 ecx, ecx
  000d8	74 09		 je	 SHORT $LN21@response_t
  000da	c7 45 94 19 00
	00 00		 mov	 DWORD PTR tv133[ebp], 25 ; 00000019H
  000e1	eb 21		 jmp	 SHORT $LN22@response_t
$LN21@response_t:
  000e3	8b 15 00 00 00
	00		 mov	 edx, DWORD PTR ?__LINE__Var@?0??response_to_waypoint_land_reached@@YGHW4ENTITY_MESSAGES@@PAUENTITY@@1PAD@Z@4JA
  000e9	83 c2 1d	 add	 edx, 29			; 0000001dH
  000ec	52		 push	 edx
  000ed	68 00 00 00 00	 push	 OFFSET ??_C@_0EE@DLIIEJCN@c?3?2users?2nhv90?2projects?2eech?2ap@
  000f2	a1 00 00 00 00	 mov	 eax, DWORD PTR ?overload_invalid_list_type_message@@3PBDB ; overload_invalid_list_type_message
  000f7	50		 push	 eax
  000f8	e8 00 00 00 00	 call	 ?process_assert@@YGXPBD0H@Z ; process_assert
  000fd	c7 45 94 00 00
	00 00		 mov	 DWORD PTR tv133[ebp], 0
$LN22@response_t:
  00104	6a 19		 push	 25			; 00000019H
  00106	8b 4d 0c	 mov	 ecx, DWORD PTR _receiver$[ebp]
  00109	51		 push	 ecx
  0010a	69 55 98 b4 00
	00 00		 imul	 edx, DWORD PTR tv93[ebp], 180
  00111	8b 45 94	 mov	 eax, DWORD PTR tv133[ebp]
  00114	8b 8c 82 00 00
	00 00		 mov	 ecx, DWORD PTR ?fn_get_local_entity_parent@@3PAY0CN@P6GPAUENTITY@@PAU1@W4LIST_TYPES@@@ZA[edx+eax*4]
  0011b	ff d1		 call	 ecx
  0011d	89 45 f4	 mov	 DWORD PTR _group$[ebp], eax

; 1125 : 
; 1126 : 	task = get_local_entity_parent (sender, LIST_TYPE_WAYPOINT);

  00120	83 7d 10 00	 cmp	 DWORD PTR _sender$[ebp], 0
  00124	74 0a		 je	 SHORT $LN23@response_t
  00126	8b 45 10	 mov	 eax, DWORD PTR _sender$[ebp]
  00129	8b 08		 mov	 ecx, DWORD PTR [eax]
  0012b	89 4d 98	 mov	 DWORD PTR tv145[ebp], ecx
  0012e	eb 21		 jmp	 SHORT $LN24@response_t
$LN23@response_t:
  00130	8b 15 00 00 00
	00		 mov	 edx, DWORD PTR ?__LINE__Var@?0??response_to_waypoint_land_reached@@YGHW4ENTITY_MESSAGES@@PAUENTITY@@1PAD@Z@4JA
  00136	83 c2 1f	 add	 edx, 31			; 0000001fH
  00139	52		 push	 edx
  0013a	68 00 00 00 00	 push	 OFFSET ??_C@_0EE@DLIIEJCN@c?3?2users?2nhv90?2projects?2eech?2ap@
  0013f	a1 00 00 00 00	 mov	 eax, DWORD PTR ?null_entity_pointer_message@@3PBDB ; null_entity_pointer_message
  00144	50		 push	 eax
  00145	e8 00 00 00 00	 call	 ?process_assert@@YGXPBD0H@Z ; process_assert
  0014a	c7 45 98 00 00
	00 00		 mov	 DWORD PTR tv145[ebp], 0
$LN24@response_t:
  00151	b9 01 00 00 00	 mov	 ecx, 1
  00156	85 c9		 test	 ecx, ecx
  00158	74 09		 je	 SHORT $LN25@response_t
  0015a	c7 45 94 2c 00
	00 00		 mov	 DWORD PTR tv153[ebp], 44 ; 0000002cH
  00161	eb 21		 jmp	 SHORT $LN26@response_t
$LN25@response_t:
  00163	8b 15 00 00 00
	00		 mov	 edx, DWORD PTR ?__LINE__Var@?0??response_to_waypoint_land_reached@@YGHW4ENTITY_MESSAGES@@PAUENTITY@@1PAD@Z@4JA
  00169	83 c2 1f	 add	 edx, 31			; 0000001fH
  0016c	52		 push	 edx
  0016d	68 00 00 00 00	 push	 OFFSET ??_C@_0EE@DLIIEJCN@c?3?2users?2nhv90?2projects?2eech?2ap@
  00172	a1 00 00 00 00	 mov	 eax, DWORD PTR ?overload_invalid_list_type_message@@3PBDB ; overload_invalid_list_type_message
  00177	50		 push	 eax
  00178	e8 00 00 00 00	 call	 ?process_assert@@YGXPBD0H@Z ; process_assert
  0017d	c7 45 94 00 00
	00 00		 mov	 DWORD PTR tv153[ebp], 0
$LN26@response_t:
  00184	6a 2c		 push	 44			; 0000002cH
  00186	8b 4d 10	 mov	 ecx, DWORD PTR _sender$[ebp]
  00189	51		 push	 ecx
  0018a	69 55 98 b4 00
	00 00		 imul	 edx, DWORD PTR tv145[ebp], 180
  00191	8b 45 94	 mov	 eax, DWORD PTR tv153[ebp]
  00194	8b 8c 82 00 00
	00 00		 mov	 ecx, DWORD PTR ?fn_get_local_entity_parent@@3PAY0CN@P6GPAUENTITY@@PAU1@W4LIST_TYPES@@@ZA[edx+eax*4]
  0019b	ff d1		 call	 ecx
  0019d	89 45 f8	 mov	 DWORD PTR _task$[ebp], eax

; 1127 : 
; 1128 : 	ASSERT (task->type == ENTITY_TYPE_TASK);

  001a0	8b 45 f8	 mov	 eax, DWORD PTR _task$[ebp]
  001a3	83 38 22	 cmp	 DWORD PTR [eax], 34	; 00000022H
  001a6	74 18		 je	 SHORT $LN9@response_t
  001a8	a1 00 00 00 00	 mov	 eax, DWORD PTR ?__LINE__Var@?0??response_to_waypoint_land_reached@@YGHW4ENTITY_MESSAGES@@PAUENTITY@@1PAD@Z@4JA
  001ad	83 c0 21	 add	 eax, 33			; 00000021H
  001b0	50		 push	 eax
  001b1	68 00 00 00 00	 push	 OFFSET ??_C@_0EE@DLIIEJCN@c?3?2users?2nhv90?2projects?2eech?2ap@
  001b6	68 00 00 00 00	 push	 OFFSET ??_C@_0BP@DMNHGEHG@task?9?$DOtype?5?$DN?$DN?5ENTITY_TYPE_TASK@
  001bb	e8 00 00 00 00	 call	 ?process_assert@@YGXPBD0H@Z ; process_assert
$LN9@response_t:

; 1129 : 
; 1130 : 	//
; 1131 : 	// Clear position hold flags
; 1132 : 	//
; 1133 : 
; 1134 : 	mb = get_local_entity_first_child (group, LIST_TYPE_MEMBER);

  001c0	83 7d f4 00	 cmp	 DWORD PTR _group$[ebp], 0
  001c4	74 0a		 je	 SHORT $LN27@response_t
  001c6	8b 45 f4	 mov	 eax, DWORD PTR _group$[ebp]
  001c9	8b 08		 mov	 ecx, DWORD PTR [eax]
  001cb	89 4d 98	 mov	 DWORD PTR tv171[ebp], ecx
  001ce	eb 21		 jmp	 SHORT $LN28@response_t
$LN27@response_t:
  001d0	8b 15 00 00 00
	00		 mov	 edx, DWORD PTR ?__LINE__Var@?0??response_to_waypoint_land_reached@@YGHW4ENTITY_MESSAGES@@PAUENTITY@@1PAD@Z@4JA
  001d6	83 c2 27	 add	 edx, 39			; 00000027H
  001d9	52		 push	 edx
  001da	68 00 00 00 00	 push	 OFFSET ??_C@_0EE@DLIIEJCN@c?3?2users?2nhv90?2projects?2eech?2ap@
  001df	a1 00 00 00 00	 mov	 eax, DWORD PTR ?null_entity_pointer_message@@3PBDB ; null_entity_pointer_message
  001e4	50		 push	 eax
  001e5	e8 00 00 00 00	 call	 ?process_assert@@YGXPBD0H@Z ; process_assert
  001ea	c7 45 98 00 00
	00 00		 mov	 DWORD PTR tv171[ebp], 0
$LN28@response_t:
  001f1	b9 01 00 00 00	 mov	 ecx, 1
  001f6	85 c9		 test	 ecx, ecx
  001f8	74 09		 je	 SHORT $LN29@response_t
  001fa	c7 45 94 19 00
	00 00		 mov	 DWORD PTR tv179[ebp], 25 ; 00000019H
  00201	eb 21		 jmp	 SHORT $LN30@response_t
$LN29@response_t:
  00203	8b 15 00 00 00
	00		 mov	 edx, DWORD PTR ?__LINE__Var@?0??response_to_waypoint_land_reached@@YGHW4ENTITY_MESSAGES@@PAUENTITY@@1PAD@Z@4JA
  00209	83 c2 27	 add	 edx, 39			; 00000027H
  0020c	52		 push	 edx
  0020d	68 00 00 00 00	 push	 OFFSET ??_C@_0EE@DLIIEJCN@c?3?2users?2nhv90?2projects?2eech?2ap@
  00212	a1 00 00 00 00	 mov	 eax, DWORD PTR ?overload_invalid_list_type_message@@3PBDB ; overload_invalid_list_type_message
  00217	50		 push	 eax
  00218	e8 00 00 00 00	 call	 ?process_assert@@YGXPBD0H@Z ; process_assert
  0021d	c7 45 94 00 00
	00 00		 mov	 DWORD PTR tv179[ebp], 0
$LN30@response_t:
  00224	6a 19		 push	 25			; 00000019H
  00226	8b 4d f4	 mov	 ecx, DWORD PTR _group$[ebp]
  00229	51		 push	 ecx
  0022a	69 55 98 b4 00
	00 00		 imul	 edx, DWORD PTR tv171[ebp], 180
  00231	8b 45 94	 mov	 eax, DWORD PTR tv179[ebp]
  00234	8b 8c 82 00 00
	00 00		 mov	 ecx, DWORD PTR ?fn_get_local_entity_first_child@@3PAY0CN@P6GPAUENTITY@@PAU1@W4LIST_TYPES@@@ZA[edx+eax*4]
  0023b	ff d1		 call	 ecx
  0023d	89 45 fc	 mov	 DWORD PTR _mb$[ebp], eax
$LN2@response_t:

; 1135 : 
; 1136 : 	while (mb)

  00240	83 7d fc 00	 cmp	 DWORD PTR _mb$[ebp], 0
  00244	0f 84 90 01 00
	00		 je	 $LN3@response_t

; 1137 : 	{
; 1138 : 		if (get_local_entity_int_value (mb, INT_TYPE_POSITION_HOLD))

  0024a	83 7d fc 00	 cmp	 DWORD PTR _mb$[ebp], 0
  0024e	74 0a		 je	 SHORT $LN31@response_t
  00250	8b 45 fc	 mov	 eax, DWORD PTR _mb$[ebp]
  00253	8b 08		 mov	 ecx, DWORD PTR [eax]
  00255	89 4d 98	 mov	 DWORD PTR tv191[ebp], ecx
  00258	eb 1d		 jmp	 SHORT $LN32@response_t
$LN31@response_t:
  0025a	68 72 04 00 00	 push	 1138			; 00000472H
  0025f	68 00 00 00 00	 push	 OFFSET ??_C@_0EE@DLIIEJCN@c?3?2users?2nhv90?2projects?2eech?2ap@
  00264	8b 15 00 00 00
	00		 mov	 edx, DWORD PTR ?null_entity_pointer_message@@3PBDB ; null_entity_pointer_message
  0026a	52		 push	 edx
  0026b	e8 00 00 00 00	 call	 ?process_assert@@YGXPBD0H@Z ; process_assert
  00270	c7 45 98 00 00
	00 00		 mov	 DWORD PTR tv191[ebp], 0
$LN32@response_t:
  00277	b8 01 00 00 00	 mov	 eax, 1
  0027c	85 c0		 test	 eax, eax
  0027e	74 09		 je	 SHORT $LN33@response_t
  00280	c7 45 94 a0 00
	00 00		 mov	 DWORD PTR tv198[ebp], 160 ; 000000a0H
  00287	eb 1d		 jmp	 SHORT $LN34@response_t
$LN33@response_t:
  00289	68 72 04 00 00	 push	 1138			; 00000472H
  0028e	68 00 00 00 00	 push	 OFFSET ??_C@_0EE@DLIIEJCN@c?3?2users?2nhv90?2projects?2eech?2ap@
  00293	8b 0d 00 00 00
	00		 mov	 ecx, DWORD PTR ?overload_invalid_int_type_message@@3PBDB ; overload_invalid_int_type_message
  00299	51		 push	 ecx
  0029a	e8 00 00 00 00	 call	 ?process_assert@@YGXPBD0H@Z ; process_assert
  0029f	c7 45 94 00 00
	00 00		 mov	 DWORD PTR tv198[ebp], 0
$LN34@response_t:
  002a6	68 a0 00 00 00	 push	 160			; 000000a0H
  002ab	8b 55 fc	 mov	 edx, DWORD PTR _mb$[ebp]
  002ae	52		 push	 edx
  002af	69 45 98 5c 04
	00 00		 imul	 eax, DWORD PTR tv191[ebp], 1116
  002b6	8b 4d 94	 mov	 ecx, DWORD PTR tv198[ebp]
  002b9	8b 94 88 00 00
	00 00		 mov	 edx, DWORD PTR ?fn_get_local_entity_int_value@@3PAY0BBH@P6GHPAUENTITY@@W4INT_TYPES@@@ZA[eax+ecx*4]
  002c0	ff d2		 call	 edx
  002c2	85 c0		 test	 eax, eax
  002c4	0f 84 8b 00 00
	00		 je	 $LN10@response_t

; 1139 : 		{
; 1140 : 			set_client_server_entity_int_value (mb, INT_TYPE_POSITION_HOLD, FALSE);

  002ca	83 7d fc 00	 cmp	 DWORD PTR _mb$[ebp], 0
  002ce	74 0a		 je	 SHORT $LN35@response_t
  002d0	8b 45 fc	 mov	 eax, DWORD PTR _mb$[ebp]
  002d3	8b 08		 mov	 ecx, DWORD PTR [eax]
  002d5	89 4d 98	 mov	 DWORD PTR tv211[ebp], ecx
  002d8	eb 21		 jmp	 SHORT $LN36@response_t
$LN35@response_t:
  002da	8b 15 00 00 00
	00		 mov	 edx, DWORD PTR ?__LINE__Var@?0??response_to_waypoint_land_reached@@YGHW4ENTITY_MESSAGES@@PAUENTITY@@1PAD@Z@4JA
  002e0	83 c2 2d	 add	 edx, 45			; 0000002dH
  002e3	52		 push	 edx
  002e4	68 00 00 00 00	 push	 OFFSET ??_C@_0EE@DLIIEJCN@c?3?2users?2nhv90?2projects?2eech?2ap@
  002e9	a1 00 00 00 00	 mov	 eax, DWORD PTR ?null_entity_pointer_message@@3PBDB ; null_entity_pointer_message
  002ee	50		 push	 eax
  002ef	e8 00 00 00 00	 call	 ?process_assert@@YGXPBD0H@Z ; process_assert
  002f4	c7 45 98 00 00
	00 00		 mov	 DWORD PTR tv211[ebp], 0
$LN36@response_t:
  002fb	b9 01 00 00 00	 mov	 ecx, 1
  00300	85 c9		 test	 ecx, ecx
  00302	74 09		 je	 SHORT $LN37@response_t
  00304	c7 45 94 a0 00
	00 00		 mov	 DWORD PTR tv219[ebp], 160 ; 000000a0H
  0030b	eb 21		 jmp	 SHORT $LN38@response_t
$LN37@response_t:
  0030d	8b 15 00 00 00
	00		 mov	 edx, DWORD PTR ?__LINE__Var@?0??response_to_waypoint_land_reached@@YGHW4ENTITY_MESSAGES@@PAUENTITY@@1PAD@Z@4JA
  00313	83 c2 2d	 add	 edx, 45			; 0000002dH
  00316	52		 push	 edx
  00317	68 00 00 00 00	 push	 OFFSET ??_C@_0EE@DLIIEJCN@c?3?2users?2nhv90?2projects?2eech?2ap@
  0031c	a1 00 00 00 00	 mov	 eax, DWORD PTR ?overload_invalid_int_type_message@@3PBDB ; overload_invalid_int_type_message
  00321	50		 push	 eax
  00322	e8 00 00 00 00	 call	 ?process_assert@@YGXPBD0H@Z ; process_assert
  00327	c7 45 94 00 00
	00 00		 mov	 DWORD PTR tv219[ebp], 0
$LN38@response_t:
  0032e	6a 00		 push	 0
  00330	68 a0 00 00 00	 push	 160			; 000000a0H
  00335	8b 4d fc	 mov	 ecx, DWORD PTR _mb$[ebp]
  00338	51		 push	 ecx
  00339	69 55 98 b8 08
	00 00		 imul	 edx, DWORD PTR tv211[ebp], 2232
  00340	8b 45 94	 mov	 eax, DWORD PTR tv219[ebp]
  00343	8d 8c c2 00 00
	00 00		 lea	 ecx, DWORD PTR ?fn_set_client_server_entity_int_value@@3PAY1BBH@1P6GXPAUENTITY@@W4INT_TYPES@@H@ZA[edx+eax*8]
  0034a	8b 15 00 00 00
	00		 mov	 edx, DWORD PTR ?system_comms_model@@3W4COMMS_MODEL_TYPES@@A ; system_comms_model
  00350	8b 04 91	 mov	 eax, DWORD PTR [ecx+edx*4]
  00353	ff d0		 call	 eax
$LN10@response_t:

; 1141 : 		}
; 1142 : 
; 1143 : 		mb = get_local_entity_child_succ (mb, LIST_TYPE_MEMBER);

  00355	83 7d fc 00	 cmp	 DWORD PTR _mb$[ebp], 0
  00359	74 0a		 je	 SHORT $LN39@response_t
  0035b	8b 45 fc	 mov	 eax, DWORD PTR _mb$[ebp]
  0035e	8b 08		 mov	 ecx, DWORD PTR [eax]
  00360	89 4d 98	 mov	 DWORD PTR tv233[ebp], ecx
  00363	eb 21		 jmp	 SHORT $LN40@response_t
$LN39@response_t:
  00365	8b 15 00 00 00
	00		 mov	 edx, DWORD PTR ?__LINE__Var@?0??response_to_waypoint_land_reached@@YGHW4ENTITY_MESSAGES@@PAUENTITY@@1PAD@Z@4JA
  0036b	83 c2 30	 add	 edx, 48			; 00000030H
  0036e	52		 push	 edx
  0036f	68 00 00 00 00	 push	 OFFSET ??_C@_0EE@DLIIEJCN@c?3?2users?2nhv90?2projects?2eech?2ap@
  00374	a1 00 00 00 00	 mov	 eax, DWORD PTR ?null_entity_pointer_message@@3PBDB ; null_entity_pointer_message
  00379	50		 push	 eax
  0037a	e8 00 00 00 00	 call	 ?process_assert@@YGXPBD0H@Z ; process_assert
  0037f	c7 45 98 00 00
	00 00		 mov	 DWORD PTR tv233[ebp], 0
$LN40@response_t:
  00386	b9 01 00 00 00	 mov	 ecx, 1
  0038b	85 c9		 test	 ecx, ecx
  0038d	74 09		 je	 SHORT $LN41@response_t
  0038f	c7 45 94 19 00
	00 00		 mov	 DWORD PTR tv241[ebp], 25 ; 00000019H
  00396	eb 21		 jmp	 SHORT $LN42@response_t
$LN41@response_t:
  00398	8b 15 00 00 00
	00		 mov	 edx, DWORD PTR ?__LINE__Var@?0??response_to_waypoint_land_reached@@YGHW4ENTITY_MESSAGES@@PAUENTITY@@1PAD@Z@4JA
  0039e	83 c2 30	 add	 edx, 48			; 00000030H
  003a1	52		 push	 edx
  003a2	68 00 00 00 00	 push	 OFFSET ??_C@_0EE@DLIIEJCN@c?3?2users?2nhv90?2projects?2eech?2ap@
  003a7	a1 00 00 00 00	 mov	 eax, DWORD PTR ?overload_invalid_list_type_message@@3PBDB ; overload_invalid_list_type_message
  003ac	50		 push	 eax
  003ad	e8 00 00 00 00	 call	 ?process_assert@@YGXPBD0H@Z ; process_assert
  003b2	c7 45 94 00 00
	00 00		 mov	 DWORD PTR tv241[ebp], 0
$LN42@response_t:
  003b9	6a 19		 push	 25			; 00000019H
  003bb	8b 4d fc	 mov	 ecx, DWORD PTR _mb$[ebp]
  003be	51		 push	 ecx
  003bf	69 55 98 b4 00
	00 00		 imul	 edx, DWORD PTR tv233[ebp], 180
  003c6	8b 45 94	 mov	 eax, DWORD PTR tv241[ebp]
  003c9	8b 8c 82 00 00
	00 00		 mov	 ecx, DWORD PTR ?fn_get_local_entity_child_succ@@3PAY0CN@P6GPAUENTITY@@PAU1@W4LIST_TYPES@@@ZA[edx+eax*4]
  003d0	ff d1		 call	 ecx
  003d2	89 45 fc	 mov	 DWORD PTR _mb$[ebp], eax

; 1144 : 	}

  003d5	e9 66 fe ff ff	 jmp	 $LN2@response_t
$LN3@response_t:

; 1145 : 
; 1146 : 	//
; 1147 : 
; 1148 : 	keysite = (entity *) get_local_entity_parent (sender, LIST_TYPE_TASK_DEPENDENT);

  003da	83 7d 10 00	 cmp	 DWORD PTR _sender$[ebp], 0
  003de	74 0a		 je	 SHORT $LN43@response_t
  003e0	8b 45 10	 mov	 eax, DWORD PTR _sender$[ebp]
  003e3	8b 08		 mov	 ecx, DWORD PTR [eax]
  003e5	89 4d 98	 mov	 DWORD PTR tv253[ebp], ecx
  003e8	eb 21		 jmp	 SHORT $LN44@response_t
$LN43@response_t:
  003ea	8b 15 00 00 00
	00		 mov	 edx, DWORD PTR ?__LINE__Var@?0??response_to_waypoint_land_reached@@YGHW4ENTITY_MESSAGES@@PAUENTITY@@1PAD@Z@4JA
  003f0	83 c2 35	 add	 edx, 53			; 00000035H
  003f3	52		 push	 edx
  003f4	68 00 00 00 00	 push	 OFFSET ??_C@_0EE@DLIIEJCN@c?3?2users?2nhv90?2projects?2eech?2ap@
  003f9	a1 00 00 00 00	 mov	 eax, DWORD PTR ?null_entity_pointer_message@@3PBDB ; null_entity_pointer_message
  003fe	50		 push	 eax
  003ff	e8 00 00 00 00	 call	 ?process_assert@@YGXPBD0H@Z ; process_assert
  00404	c7 45 98 00 00
	00 00		 mov	 DWORD PTR tv253[ebp], 0
$LN44@response_t:
  0040b	b9 01 00 00 00	 mov	 ecx, 1
  00410	85 c9		 test	 ecx, ecx
  00412	74 09		 je	 SHORT $LN45@response_t
  00414	c7 45 94 27 00
	00 00		 mov	 DWORD PTR tv261[ebp], 39 ; 00000027H
  0041b	eb 21		 jmp	 SHORT $LN46@response_t
$LN45@response_t:
  0041d	8b 15 00 00 00
	00		 mov	 edx, DWORD PTR ?__LINE__Var@?0??response_to_waypoint_land_reached@@YGHW4ENTITY_MESSAGES@@PAUENTITY@@1PAD@Z@4JA
  00423	83 c2 35	 add	 edx, 53			; 00000035H
  00426	52		 push	 edx
  00427	68 00 00 00 00	 push	 OFFSET ??_C@_0EE@DLIIEJCN@c?3?2users?2nhv90?2projects?2eech?2ap@
  0042c	a1 00 00 00 00	 mov	 eax, DWORD PTR ?overload_invalid_list_type_message@@3PBDB ; overload_invalid_list_type_message
  00431	50		 push	 eax
  00432	e8 00 00 00 00	 call	 ?process_assert@@YGXPBD0H@Z ; process_assert
  00437	c7 45 94 00 00
	00 00		 mov	 DWORD PTR tv261[ebp], 0
$LN46@response_t:
  0043e	6a 27		 push	 39			; 00000027H
  00440	8b 4d 10	 mov	 ecx, DWORD PTR _sender$[ebp]
  00443	51		 push	 ecx
  00444	69 55 98 b4 00
	00 00		 imul	 edx, DWORD PTR tv253[ebp], 180
  0044b	8b 45 94	 mov	 eax, DWORD PTR tv261[ebp]
  0044e	8b 8c 82 00 00
	00 00		 mov	 ecx, DWORD PTR ?fn_get_local_entity_parent@@3PAY0CN@P6GPAUENTITY@@PAU1@W4LIST_TYPES@@@ZA[edx+eax*4]
  00455	ff d1		 call	 ecx
  00457	89 45 f0	 mov	 DWORD PTR _keysite$[ebp], eax

; 1149 : 
; 1150 : 	ASSERT (keysite);

  0045a	83 7d f0 00	 cmp	 DWORD PTR _keysite$[ebp], 0
  0045e	75 18		 jne	 SHORT $LN11@response_t
  00460	a1 00 00 00 00	 mov	 eax, DWORD PTR ?__LINE__Var@?0??response_to_waypoint_land_reached@@YGHW4ENTITY_MESSAGES@@PAUENTITY@@1PAD@Z@4JA
  00465	83 c0 37	 add	 eax, 55			; 00000037H
  00468	50		 push	 eax
  00469	68 00 00 00 00	 push	 OFFSET ??_C@_0EE@DLIIEJCN@c?3?2users?2nhv90?2projects?2eech?2ap@
  0046e	68 00 00 00 00	 push	 OFFSET ??_C@_07FBNBNOMI@keysite@
  00473	e8 00 00 00 00	 call	 ?process_assert@@YGXPBD0H@Z ; process_assert
$LN11@response_t:

; 1151 : 
; 1152 : 	landing = get_local_entity_landing_entity (keysite, group_database [get_local_entity_int_value (group, INT_TYPE_ENTITY_SUB_TYPE)].default_landing_type);

  00478	83 7d f4 00	 cmp	 DWORD PTR _group$[ebp], 0
  0047c	74 0a		 je	 SHORT $LN47@response_t
  0047e	8b 45 f4	 mov	 eax, DWORD PTR _group$[ebp]
  00481	8b 08		 mov	 ecx, DWORD PTR [eax]
  00483	89 4d 98	 mov	 DWORD PTR tv279[ebp], ecx
  00486	eb 21		 jmp	 SHORT $LN48@response_t
$LN47@response_t:
  00488	8b 15 00 00 00
	00		 mov	 edx, DWORD PTR ?__LINE__Var@?0??response_to_waypoint_land_reached@@YGHW4ENTITY_MESSAGES@@PAUENTITY@@1PAD@Z@4JA
  0048e	83 c2 39	 add	 edx, 57			; 00000039H
  00491	52		 push	 edx
  00492	68 00 00 00 00	 push	 OFFSET ??_C@_0EE@DLIIEJCN@c?3?2users?2nhv90?2projects?2eech?2ap@
  00497	a1 00 00 00 00	 mov	 eax, DWORD PTR ?null_entity_pointer_message@@3PBDB ; null_entity_pointer_message
  0049c	50		 push	 eax
  0049d	e8 00 00 00 00	 call	 ?process_assert@@YGXPBD0H@Z ; process_assert
  004a2	c7 45 98 00 00
	00 00		 mov	 DWORD PTR tv279[ebp], 0
$LN48@response_t:
  004a9	b9 01 00 00 00	 mov	 ecx, 1
  004ae	85 c9		 test	 ecx, ecx
  004b0	74 09		 je	 SHORT $LN49@response_t
  004b2	c7 45 94 34 00
	00 00		 mov	 DWORD PTR tv287[ebp], 52 ; 00000034H
  004b9	eb 21		 jmp	 SHORT $LN50@response_t
$LN49@response_t:
  004bb	8b 15 00 00 00
	00		 mov	 edx, DWORD PTR ?__LINE__Var@?0??response_to_waypoint_land_reached@@YGHW4ENTITY_MESSAGES@@PAUENTITY@@1PAD@Z@4JA
  004c1	83 c2 39	 add	 edx, 57			; 00000039H
  004c4	52		 push	 edx
  004c5	68 00 00 00 00	 push	 OFFSET ??_C@_0EE@DLIIEJCN@c?3?2users?2nhv90?2projects?2eech?2ap@
  004ca	a1 00 00 00 00	 mov	 eax, DWORD PTR ?overload_invalid_int_type_message@@3PBDB ; overload_invalid_int_type_message
  004cf	50		 push	 eax
  004d0	e8 00 00 00 00	 call	 ?process_assert@@YGXPBD0H@Z ; process_assert
  004d5	c7 45 94 00 00
	00 00		 mov	 DWORD PTR tv287[ebp], 0
$LN50@response_t:
  004dc	6a 34		 push	 52			; 00000034H
  004de	8b 4d f4	 mov	 ecx, DWORD PTR _group$[ebp]
  004e1	51		 push	 ecx
  004e2	69 55 98 5c 04
	00 00		 imul	 edx, DWORD PTR tv279[ebp], 1116
  004e9	8b 45 94	 mov	 eax, DWORD PTR tv287[ebp]
  004ec	8b 8c 82 00 00
	00 00		 mov	 ecx, DWORD PTR ?fn_get_local_entity_int_value@@3PAY0BBH@P6GHPAUENTITY@@W4INT_TYPES@@@ZA[edx+eax*4]
  004f3	ff d1		 call	 ecx
  004f5	6b d0 64	 imul	 edx, eax, 100
  004f8	8b 82 18 00 00
	00		 mov	 eax, DWORD PTR ?group_database@@3PAUGROUP_DATA@@A[edx+24]
  004fe	50		 push	 eax
  004ff	8b 4d f0	 mov	 ecx, DWORD PTR _keysite$[ebp]
  00502	51		 push	 ecx
  00503	e8 00 00 00 00	 call	 ?get_local_entity_landing_entity@@YGPAUENTITY@@PAU1@H@Z ; get_local_entity_landing_entity
  00508	89 45 ec	 mov	 DWORD PTR _landing$[ebp], eax

; 1153 : 
; 1154 : 	ASSERT (landing);

  0050b	83 7d ec 00	 cmp	 DWORD PTR _landing$[ebp], 0
  0050f	75 18		 jne	 SHORT $LN12@response_t
  00511	a1 00 00 00 00	 mov	 eax, DWORD PTR ?__LINE__Var@?0??response_to_waypoint_land_reached@@YGHW4ENTITY_MESSAGES@@PAUENTITY@@1PAD@Z@4JA
  00516	83 c0 3b	 add	 eax, 59			; 0000003bH
  00519	50		 push	 eax
  0051a	68 00 00 00 00	 push	 OFFSET ??_C@_0EE@DLIIEJCN@c?3?2users?2nhv90?2projects?2eech?2ap@
  0051f	68 00 00 00 00	 push	 OFFSET ??_C@_07EAMPMOFH@landing@
  00524	e8 00 00 00 00	 call	 ?process_assert@@YGXPBD0H@Z ; process_assert
$LN12@response_t:

; 1155 : 
; 1156 : 	if ((get_local_entity_int_value (keysite, INT_TYPE_IN_USE)) && (get_local_entity_int_value (keysite, INT_TYPE_SIDE) == get_local_entity_int_value (group, INT_TYPE_SIDE)))

  00529	83 7d f0 00	 cmp	 DWORD PTR _keysite$[ebp], 0
  0052d	74 0a		 je	 SHORT $LN51@response_t
  0052f	8b 45 f0	 mov	 eax, DWORD PTR _keysite$[ebp]
  00532	8b 08		 mov	 ecx, DWORD PTR [eax]
  00534	89 4d 98	 mov	 DWORD PTR tv308[ebp], ecx
  00537	eb 1d		 jmp	 SHORT $LN52@response_t
$LN51@response_t:
  00539	68 84 04 00 00	 push	 1156			; 00000484H
  0053e	68 00 00 00 00	 push	 OFFSET ??_C@_0EE@DLIIEJCN@c?3?2users?2nhv90?2projects?2eech?2ap@
  00543	8b 15 00 00 00
	00		 mov	 edx, DWORD PTR ?null_entity_pointer_message@@3PBDB ; null_entity_pointer_message
  00549	52		 push	 edx
  0054a	e8 00 00 00 00	 call	 ?process_assert@@YGXPBD0H@Z ; process_assert
  0054f	c7 45 98 00 00
	00 00		 mov	 DWORD PTR tv308[ebp], 0
$LN52@response_t:
  00556	b8 01 00 00 00	 mov	 eax, 1
  0055b	85 c0		 test	 eax, eax
  0055d	74 09		 je	 SHORT $LN53@response_t
  0055f	c7 45 94 6d 00
	00 00		 mov	 DWORD PTR tv315[ebp], 109 ; 0000006dH
  00566	eb 1d		 jmp	 SHORT $LN54@response_t
$LN53@response_t:
  00568	68 84 04 00 00	 push	 1156			; 00000484H
  0056d	68 00 00 00 00	 push	 OFFSET ??_C@_0EE@DLIIEJCN@c?3?2users?2nhv90?2projects?2eech?2ap@
  00572	8b 0d 00 00 00
	00		 mov	 ecx, DWORD PTR ?overload_invalid_int_type_message@@3PBDB ; overload_invalid_int_type_message
  00578	51		 push	 ecx
  00579	e8 00 00 00 00	 call	 ?process_assert@@YGXPBD0H@Z ; process_assert
  0057e	c7 45 94 00 00
	00 00		 mov	 DWORD PTR tv315[ebp], 0
$LN54@response_t:
  00585	6a 6d		 push	 109			; 0000006dH
  00587	8b 55 f0	 mov	 edx, DWORD PTR _keysite$[ebp]
  0058a	52		 push	 edx
  0058b	69 45 98 5c 04
	00 00		 imul	 eax, DWORD PTR tv308[ebp], 1116
  00592	8b 4d 94	 mov	 ecx, DWORD PTR tv315[ebp]
  00595	8b 94 88 00 00
	00 00		 mov	 edx, DWORD PTR ?fn_get_local_entity_int_value@@3PAY0BBH@P6GHPAUENTITY@@W4INT_TYPES@@@ZA[eax+ecx*4]
  0059c	ff d2		 call	 edx
  0059e	85 c0		 test	 eax, eax
  005a0	0f 84 ac 01 00
	00		 je	 $LN13@response_t
  005a6	83 7d f0 00	 cmp	 DWORD PTR _keysite$[ebp], 0
  005aa	74 0a		 je	 SHORT $LN55@response_t
  005ac	8b 45 f0	 mov	 eax, DWORD PTR _keysite$[ebp]
  005af	8b 08		 mov	 ecx, DWORD PTR [eax]
  005b1	89 4d 98	 mov	 DWORD PTR tv327[ebp], ecx
  005b4	eb 1d		 jmp	 SHORT $LN56@response_t
$LN55@response_t:
  005b6	68 84 04 00 00	 push	 1156			; 00000484H
  005bb	68 00 00 00 00	 push	 OFFSET ??_C@_0EE@DLIIEJCN@c?3?2users?2nhv90?2projects?2eech?2ap@
  005c0	8b 15 00 00 00
	00		 mov	 edx, DWORD PTR ?null_entity_pointer_message@@3PBDB ; null_entity_pointer_message
  005c6	52		 push	 edx
  005c7	e8 00 00 00 00	 call	 ?process_assert@@YGXPBD0H@Z ; process_assert
  005cc	c7 45 98 00 00
	00 00		 mov	 DWORD PTR tv327[ebp], 0
$LN56@response_t:
  005d3	b8 01 00 00 00	 mov	 eax, 1
  005d8	85 c0		 test	 eax, eax
  005da	74 09		 je	 SHORT $LN57@response_t
  005dc	c7 45 94 bb 00
	00 00		 mov	 DWORD PTR tv334[ebp], 187 ; 000000bbH
  005e3	eb 1d		 jmp	 SHORT $LN58@response_t
$LN57@response_t:
  005e5	68 84 04 00 00	 push	 1156			; 00000484H
  005ea	68 00 00 00 00	 push	 OFFSET ??_C@_0EE@DLIIEJCN@c?3?2users?2nhv90?2projects?2eech?2ap@
  005ef	8b 0d 00 00 00
	00		 mov	 ecx, DWORD PTR ?overload_invalid_int_type_message@@3PBDB ; overload_invalid_int_type_message
  005f5	51		 push	 ecx
  005f6	e8 00 00 00 00	 call	 ?process_assert@@YGXPBD0H@Z ; process_assert
  005fb	c7 45 94 00 00
	00 00		 mov	 DWORD PTR tv334[ebp], 0
$LN58@response_t:
  00602	83 7d f4 00	 cmp	 DWORD PTR _group$[ebp], 0
  00606	74 0a		 je	 SHORT $LN59@response_t
  00608	8b 55 f4	 mov	 edx, DWORD PTR _group$[ebp]
  0060b	8b 02		 mov	 eax, DWORD PTR [edx]
  0060d	89 45 90	 mov	 DWORD PTR tv345[ebp], eax
  00610	eb 1d		 jmp	 SHORT $LN60@response_t
$LN59@response_t:
  00612	68 84 04 00 00	 push	 1156			; 00000484H
  00617	68 00 00 00 00	 push	 OFFSET ??_C@_0EE@DLIIEJCN@c?3?2users?2nhv90?2projects?2eech?2ap@
  0061c	8b 0d 00 00 00
	00		 mov	 ecx, DWORD PTR ?null_entity_pointer_message@@3PBDB ; null_entity_pointer_message
  00622	51		 push	 ecx
  00623	e8 00 00 00 00	 call	 ?process_assert@@YGXPBD0H@Z ; process_assert
  00628	c7 45 90 00 00
	00 00		 mov	 DWORD PTR tv345[ebp], 0
$LN60@response_t:
  0062f	ba 01 00 00 00	 mov	 edx, 1
  00634	85 d2		 test	 edx, edx
  00636	74 09		 je	 SHORT $LN61@response_t
  00638	c7 45 8c bb 00
	00 00		 mov	 DWORD PTR tv352[ebp], 187 ; 000000bbH
  0063f	eb 1c		 jmp	 SHORT $LN62@response_t
$LN61@response_t:
  00641	68 84 04 00 00	 push	 1156			; 00000484H
  00646	68 00 00 00 00	 push	 OFFSET ??_C@_0EE@DLIIEJCN@c?3?2users?2nhv90?2projects?2eech?2ap@
  0064b	a1 00 00 00 00	 mov	 eax, DWORD PTR ?overload_invalid_int_type_message@@3PBDB ; overload_invalid_int_type_message
  00650	50		 push	 eax
  00651	e8 00 00 00 00	 call	 ?process_assert@@YGXPBD0H@Z ; process_assert
  00656	c7 45 8c 00 00
	00 00		 mov	 DWORD PTR tv352[ebp], 0
$LN62@response_t:
  0065d	68 bb 00 00 00	 push	 187			; 000000bbH
  00662	8b 4d f0	 mov	 ecx, DWORD PTR _keysite$[ebp]
  00665	51		 push	 ecx
  00666	69 55 98 5c 04
	00 00		 imul	 edx, DWORD PTR tv327[ebp], 1116
  0066d	8b 45 94	 mov	 eax, DWORD PTR tv334[ebp]
  00670	8b 8c 82 00 00
	00 00		 mov	 ecx, DWORD PTR ?fn_get_local_entity_int_value@@3PAY0BBH@P6GHPAUENTITY@@W4INT_TYPES@@@ZA[edx+eax*4]
  00677	ff d1		 call	 ecx
  00679	8b f0		 mov	 esi, eax
  0067b	68 bb 00 00 00	 push	 187			; 000000bbH
  00680	8b 55 f4	 mov	 edx, DWORD PTR _group$[ebp]
  00683	52		 push	 edx
  00684	69 45 90 5c 04
	00 00		 imul	 eax, DWORD PTR tv345[ebp], 1116
  0068b	8b 4d 8c	 mov	 ecx, DWORD PTR tv352[ebp]
  0068e	8b 94 88 00 00
	00 00		 mov	 edx, DWORD PTR ?fn_get_local_entity_int_value@@3PAY0BBH@P6GHPAUENTITY@@W4INT_TYPES@@@ZA[eax+ecx*4]
  00695	ff d2		 call	 edx
  00697	3b f0		 cmp	 esi, eax
  00699	0f 85 b3 00 00
	00		 jne	 $LN13@response_t

; 1157 : 	{
; 1158 : 
; 1159 : 		//
; 1160 : 		// terminate land task
; 1161 : 		//
; 1162 : 
; 1163 : 		notify_local_entity (ENTITY_MESSAGE_TASK_TERMINATED, task, receiver, TASK_TERMINATED_WAYPOINT_ROUTE_COMPLETE);

  0069f	6a 06		 push	 6
  006a1	8b 45 0c	 mov	 eax, DWORD PTR _receiver$[ebp]
  006a4	50		 push	 eax
  006a5	8b 4d f8	 mov	 ecx, DWORD PTR _task$[ebp]
  006a8	51		 push	 ecx
  006a9	6a 36		 push	 54			; 00000036H
  006ab	e8 00 00 00 00	 call	 ?notify_local_entity@@YAHW4ENTITY_MESSAGES@@PAUENTITY@@1ZZ ; notify_local_entity
  006b0	83 c4 10	 add	 esp, 16			; 00000010H

; 1164 : 
; 1165 : 		//
; 1166 : 		// request landing site
; 1167 : 		//
; 1168 : 
; 1169 : 		notify_local_entity (ENTITY_MESSAGE_LANDING_SITE_REQUEST, landing, receiver);

  006b3	8b 45 0c	 mov	 eax, DWORD PTR _receiver$[ebp]
  006b6	50		 push	 eax
  006b7	8b 4d ec	 mov	 ecx, DWORD PTR _landing$[ebp]
  006ba	51		 push	 ecx
  006bb	6a 22		 push	 34			; 00000022H
  006bd	e8 00 00 00 00	 call	 ?notify_local_entity@@YAHW4ENTITY_MESSAGES@@PAUENTITY@@1ZZ ; notify_local_entity
  006c2	83 c4 0c	 add	 esp, 12			; 0000000cH

; 1170 : 
; 1171 : 		//
; 1172 : 		// Abort all engage tasks
; 1173 : 		//
; 1174 : 
; 1175 : 		terminate_all_engage_tasks (group);

  006c5	8b 45 f4	 mov	 eax, DWORD PTR _group$[ebp]
  006c8	50		 push	 eax
  006c9	e8 00 00 00 00	 call	 ?terminate_all_engage_tasks@@YGXPAUENTITY@@@Z ; terminate_all_engage_tasks

; 1176 : 
; 1177 : 		//
; 1178 : 		// Stop group from engaging
; 1179 : 		//
; 1180 : 
; 1181 : 		set_local_entity_int_value (group, INT_TYPE_ENGAGE_ENEMY, FALSE);

  006ce	83 7d f4 00	 cmp	 DWORD PTR _group$[ebp], 0
  006d2	74 0a		 je	 SHORT $LN63@response_t
  006d4	8b 45 f4	 mov	 eax, DWORD PTR _group$[ebp]
  006d7	8b 08		 mov	 ecx, DWORD PTR [eax]
  006d9	89 4d 98	 mov	 DWORD PTR tv373[ebp], ecx
  006dc	eb 21		 jmp	 SHORT $LN64@response_t
$LN63@response_t:
  006de	8b 15 00 00 00
	00		 mov	 edx, DWORD PTR ?__LINE__Var@?0??response_to_waypoint_land_reached@@YGHW4ENTITY_MESSAGES@@PAUENTITY@@1PAD@Z@4JA
  006e4	83 c2 56	 add	 edx, 86			; 00000056H
  006e7	52		 push	 edx
  006e8	68 00 00 00 00	 push	 OFFSET ??_C@_0EE@DLIIEJCN@c?3?2users?2nhv90?2projects?2eech?2ap@
  006ed	a1 00 00 00 00	 mov	 eax, DWORD PTR ?null_entity_pointer_message@@3PBDB ; null_entity_pointer_message
  006f2	50		 push	 eax
  006f3	e8 00 00 00 00	 call	 ?process_assert@@YGXPBD0H@Z ; process_assert
  006f8	c7 45 98 00 00
	00 00		 mov	 DWORD PTR tv373[ebp], 0
$LN64@response_t:
  006ff	b9 01 00 00 00	 mov	 ecx, 1
  00704	85 c9		 test	 ecx, ecx
  00706	74 09		 je	 SHORT $LN65@response_t
  00708	c7 45 94 33 00
	00 00		 mov	 DWORD PTR tv381[ebp], 51 ; 00000033H
  0070f	eb 21		 jmp	 SHORT $LN66@response_t
$LN65@response_t:
  00711	8b 15 00 00 00
	00		 mov	 edx, DWORD PTR ?__LINE__Var@?0??response_to_waypoint_land_reached@@YGHW4ENTITY_MESSAGES@@PAUENTITY@@1PAD@Z@4JA
  00717	83 c2 56	 add	 edx, 86			; 00000056H
  0071a	52		 push	 edx
  0071b	68 00 00 00 00	 push	 OFFSET ??_C@_0EE@DLIIEJCN@c?3?2users?2nhv90?2projects?2eech?2ap@
  00720	a1 00 00 00 00	 mov	 eax, DWORD PTR ?overload_invalid_int_type_message@@3PBDB ; overload_invalid_int_type_message
  00725	50		 push	 eax
  00726	e8 00 00 00 00	 call	 ?process_assert@@YGXPBD0H@Z ; process_assert
  0072b	c7 45 94 00 00
	00 00		 mov	 DWORD PTR tv381[ebp], 0
$LN66@response_t:
  00732	6a 00		 push	 0
  00734	6a 33		 push	 51			; 00000033H
  00736	8b 4d f4	 mov	 ecx, DWORD PTR _group$[ebp]
  00739	51		 push	 ecx
  0073a	69 55 98 5c 04
	00 00		 imul	 edx, DWORD PTR tv373[ebp], 1116
  00741	8b 45 94	 mov	 eax, DWORD PTR tv381[ebp]
  00744	8b 8c 82 00 00
	00 00		 mov	 ecx, DWORD PTR ?fn_set_local_entity_int_value@@3PAY0BBH@P6GXPAUENTITY@@W4INT_TYPES@@H@ZA[edx+eax*4]
  0074b	ff d1		 call	 ecx

; 1182 : 
; 1183 : 		/////////////////////////////////////////////////////////////////
; 1184 : 		//
; 1185 : 		// SPECIAL_EFFECT_HOOK FOR REQUESTING TO LAND
; 1186 : 		//
; 1187 : 		/////////////////////////////////////////////////////////////////
; 1188 : 
; 1189 : 		/////////////////////////////////////////////////////////////////
; 1190 : 		//
; 1191 : 		// 
; 1192 : 		//
; 1193 : 		/////////////////////////////////////////////////////////////////
; 1194 : 	}
; 1195 : 	else

  0074d	e9 f0 04 00 00	 jmp	 $LN5@response_t
$LN13@response_t:

; 1196 : 	{
; 1197 : 
; 1198 : 		/////////////////////////////////////////////////////////////////
; 1199 : 		//
; 1200 : 		// SPECIAL_EFFECT_HOOK FOR REACHING AIRBASE AND FINDING IT DESTROYED / CAPTURED
; 1201 : 		//
; 1202 : 		/////////////////////////////////////////////////////////////////
; 1203 : 
; 1204 : 		/////////////////////////////////////////////////////////////////
; 1205 : 		//
; 1206 : 		// 
; 1207 : 		//
; 1208 : 		/////////////////////////////////////////////////////////////////
; 1209 : 
; 1210 : 		debug_log ("MB_MSGS: %s (%d) reached land waypoint but keysite has been destroyed", get_local_entity_string (receiver, STRING_TYPE_FULL_NAME), get_local_entity_index (receiver));

  00752	83 7d 0c 00	 cmp	 DWORD PTR _receiver$[ebp], 0
  00756	74 0a		 je	 SHORT $LN67@response_t
  00758	8b 45 0c	 mov	 eax, DWORD PTR _receiver$[ebp]
  0075b	8b 08		 mov	 ecx, DWORD PTR [eax]
  0075d	89 4d 98	 mov	 DWORD PTR tv396[ebp], ecx
  00760	eb 21		 jmp	 SHORT $LN68@response_t
$LN67@response_t:
  00762	8b 15 00 00 00
	00		 mov	 edx, DWORD PTR ?__LINE__Var@?0??response_to_waypoint_land_reached@@YGHW4ENTITY_MESSAGES@@PAUENTITY@@1PAD@Z@4JA
  00768	83 c2 73	 add	 edx, 115		; 00000073H
  0076b	52		 push	 edx
  0076c	68 00 00 00 00	 push	 OFFSET ??_C@_0EE@DLIIEJCN@c?3?2users?2nhv90?2projects?2eech?2ap@
  00771	a1 00 00 00 00	 mov	 eax, DWORD PTR ?null_entity_pointer_message@@3PBDB ; null_entity_pointer_message
  00776	50		 push	 eax
  00777	e8 00 00 00 00	 call	 ?process_assert@@YGXPBD0H@Z ; process_assert
  0077c	c7 45 98 00 00
	00 00		 mov	 DWORD PTR tv396[ebp], 0
$LN68@response_t:
  00783	b9 01 00 00 00	 mov	 ecx, 1
  00788	85 c9		 test	 ecx, ecx
  0078a	74 09		 je	 SHORT $LN69@response_t
  0078c	c7 45 94 03 00
	00 00		 mov	 DWORD PTR tv404[ebp], 3
  00793	eb 21		 jmp	 SHORT $LN70@response_t
$LN69@response_t:
  00795	8b 15 00 00 00
	00		 mov	 edx, DWORD PTR ?__LINE__Var@?0??response_to_waypoint_land_reached@@YGHW4ENTITY_MESSAGES@@PAUENTITY@@1PAD@Z@4JA
  0079b	83 c2 73	 add	 edx, 115		; 00000073H
  0079e	52		 push	 edx
  0079f	68 00 00 00 00	 push	 OFFSET ??_C@_0EE@DLIIEJCN@c?3?2users?2nhv90?2projects?2eech?2ap@
  007a4	a1 00 00 00 00	 mov	 eax, DWORD PTR ?overload_invalid_string_type_message@@3PBDB ; overload_invalid_string_type_message
  007a9	50		 push	 eax
  007aa	e8 00 00 00 00	 call	 ?process_assert@@YGXPBD0H@Z ; process_assert
  007af	c7 45 94 00 00
	00 00		 mov	 DWORD PTR tv404[ebp], 0
$LN70@response_t:
  007b6	8b 4d 0c	 mov	 ecx, DWORD PTR _receiver$[ebp]
  007b9	2b 0d 00 00 00
	00		 sub	 ecx, DWORD PTR ?entities@@3PAUENTITY@@A ; entities
  007bf	c1 f9 04	 sar	 ecx, 4
  007c2	51		 push	 ecx
  007c3	6a 03		 push	 3
  007c5	8b 55 0c	 mov	 edx, DWORD PTR _receiver$[ebp]
  007c8	52		 push	 edx
  007c9	6b 45 98 34	 imul	 eax, DWORD PTR tv396[ebp], 52
  007cd	8b 4d 94	 mov	 ecx, DWORD PTR tv404[ebp]
  007d0	8b 94 88 00 00
	00 00		 mov	 edx, DWORD PTR ?fn_get_local_entity_string@@3PAY0N@P6GPBDPAUENTITY@@W4STRING_TYPES@@@ZA[eax+ecx*4]
  007d7	ff d2		 call	 edx
  007d9	50		 push	 eax
  007da	68 00 00 00 00	 push	 OFFSET ??_C@_0EG@INJKJDJC@MB_MSGS?3?5?$CFs?5?$CI?$CFd?$CJ?5reached?5land?5w@
  007df	e8 00 00 00 00	 call	 ?debug_log@@YAXPBDZZ	; debug_log
  007e4	83 c4 0c	 add	 esp, 12			; 0000000cH

; 1211 : 
; 1212 : 		// destroy old task
; 1213 : 
; 1214 : 		notify_local_entity (ENTITY_MESSAGE_TASK_TERMINATED, task, receiver, TASK_TERMINATED_WAYPOINT_ROUTE_COMPLETE);

  007e7	6a 06		 push	 6
  007e9	8b 45 0c	 mov	 eax, DWORD PTR _receiver$[ebp]
  007ec	50		 push	 eax
  007ed	8b 4d f8	 mov	 ecx, DWORD PTR _task$[ebp]
  007f0	51		 push	 ecx
  007f1	6a 36		 push	 54			; 00000036H
  007f3	e8 00 00 00 00	 call	 ?notify_local_entity@@YAHW4ENTITY_MESSAGES@@PAUENTITY@@1ZZ ; notify_local_entity
  007f8	83 c4 10	 add	 esp, 16			; 00000010H

; 1215 : 
; 1216 : 		// create transfer task to new keysite
; 1217 : 
; 1218 : 		if (create_group_emergency_transfer_task (group))

  007fb	8b 45 f4	 mov	 eax, DWORD PTR _group$[ebp]
  007fe	50		 push	 eax
  007ff	e8 00 00 00 00	 call	 ?create_group_emergency_transfer_task@@YGHPAUENTITY@@@Z ; create_group_emergency_transfer_task
  00804	85 c0		 test	 eax, eax
  00806	0f 84 36 04 00
	00		 je	 $LN5@response_t

; 1219 : 		{
; 1220 : 			new_task = get_local_group_primary_task (group);

  0080c	8b 45 f4	 mov	 eax, DWORD PTR _group$[ebp]
  0080f	50		 push	 eax
  00810	e8 00 00 00 00	 call	 ?get_local_group_primary_task@@YGPAUENTITY@@PAU1@@Z ; get_local_group_primary_task
  00815	89 45 e8	 mov	 DWORD PTR _new_task$[ebp], eax

; 1221 : 	
; 1222 : 			new_keysite = (entity *) get_local_entity_ptr_value (new_task, PTR_TYPE_RETURN_KEYSITE);

  00818	83 7d e8 00	 cmp	 DWORD PTR _new_task$[ebp], 0
  0081c	74 0a		 je	 SHORT $LN71@response_t
  0081e	8b 45 e8	 mov	 eax, DWORD PTR _new_task$[ebp]
  00821	8b 08		 mov	 ecx, DWORD PTR [eax]
  00823	89 4d 98	 mov	 DWORD PTR tv427[ebp], ecx
  00826	eb 21		 jmp	 SHORT $LN72@response_t
$LN71@response_t:
  00828	8b 15 00 00 00
	00		 mov	 edx, DWORD PTR ?__LINE__Var@?0??response_to_waypoint_land_reached@@YGHW4ENTITY_MESSAGES@@PAUENTITY@@1PAD@Z@4JA
  0082e	83 c2 7f	 add	 edx, 127		; 0000007fH
  00831	52		 push	 edx
  00832	68 00 00 00 00	 push	 OFFSET ??_C@_0EE@DLIIEJCN@c?3?2users?2nhv90?2projects?2eech?2ap@
  00837	a1 00 00 00 00	 mov	 eax, DWORD PTR ?null_entity_pointer_message@@3PBDB ; null_entity_pointer_message
  0083c	50		 push	 eax
  0083d	e8 00 00 00 00	 call	 ?process_assert@@YGXPBD0H@Z ; process_assert
  00842	c7 45 98 00 00
	00 00		 mov	 DWORD PTR tv427[ebp], 0
$LN72@response_t:
  00849	b9 01 00 00 00	 mov	 ecx, 1
  0084e	85 c9		 test	 ecx, ecx
  00850	74 09		 je	 SHORT $LN73@response_t
  00852	c7 45 94 08 00
	00 00		 mov	 DWORD PTR tv435[ebp], 8
  00859	eb 21		 jmp	 SHORT $LN74@response_t
$LN73@response_t:
  0085b	8b 15 00 00 00
	00		 mov	 edx, DWORD PTR ?__LINE__Var@?0??response_to_waypoint_land_reached@@YGHW4ENTITY_MESSAGES@@PAUENTITY@@1PAD@Z@4JA
  00861	83 c2 7f	 add	 edx, 127		; 0000007fH
  00864	52		 push	 edx
  00865	68 00 00 00 00	 push	 OFFSET ??_C@_0EE@DLIIEJCN@c?3?2users?2nhv90?2projects?2eech?2ap@
  0086a	a1 00 00 00 00	 mov	 eax, DWORD PTR ?overload_invalid_ptr_type_message@@3PBDB ; overload_invalid_ptr_type_message
  0086f	50		 push	 eax
  00870	e8 00 00 00 00	 call	 ?process_assert@@YGXPBD0H@Z ; process_assert
  00875	c7 45 94 00 00
	00 00		 mov	 DWORD PTR tv435[ebp], 0
$LN74@response_t:
  0087c	6a 08		 push	 8
  0087e	8b 4d e8	 mov	 ecx, DWORD PTR _new_task$[ebp]
  00881	51		 push	 ecx
  00882	6b 55 98 50	 imul	 edx, DWORD PTR tv427[ebp], 80
  00886	8b 45 94	 mov	 eax, DWORD PTR tv435[ebp]
  00889	8b 8c 82 00 00
	00 00		 mov	 ecx, DWORD PTR ?fn_get_local_entity_ptr_value@@3PAY0BE@P6GPAXPAUENTITY@@W4PTR_TYPES@@@ZA[edx+eax*4]
  00890	ff d1		 call	 ecx
  00892	89 45 e4	 mov	 DWORD PTR _new_keysite$[ebp], eax

; 1223 : 	
; 1224 : 			new_landing = get_local_entity_landing_entity (new_keysite, group_database [get_local_entity_int_value (group, INT_TYPE_ENTITY_SUB_TYPE)].default_landing_type);

  00895	83 7d f4 00	 cmp	 DWORD PTR _group$[ebp], 0
  00899	74 0a		 je	 SHORT $LN75@response_t
  0089b	8b 45 f4	 mov	 eax, DWORD PTR _group$[ebp]
  0089e	8b 08		 mov	 ecx, DWORD PTR [eax]
  008a0	89 4d 98	 mov	 DWORD PTR tv448[ebp], ecx
  008a3	eb 24		 jmp	 SHORT $LN76@response_t
$LN75@response_t:
  008a5	8b 15 00 00 00
	00		 mov	 edx, DWORD PTR ?__LINE__Var@?0??response_to_waypoint_land_reached@@YGHW4ENTITY_MESSAGES@@PAUENTITY@@1PAD@Z@4JA
  008ab	81 c2 81 00 00
	00		 add	 edx, 129		; 00000081H
  008b1	52		 push	 edx
  008b2	68 00 00 00 00	 push	 OFFSET ??_C@_0EE@DLIIEJCN@c?3?2users?2nhv90?2projects?2eech?2ap@
  008b7	a1 00 00 00 00	 mov	 eax, DWORD PTR ?null_entity_pointer_message@@3PBDB ; null_entity_pointer_message
  008bc	50		 push	 eax
  008bd	e8 00 00 00 00	 call	 ?process_assert@@YGXPBD0H@Z ; process_assert
  008c2	c7 45 98 00 00
	00 00		 mov	 DWORD PTR tv448[ebp], 0
$LN76@response_t:
  008c9	b9 01 00 00 00	 mov	 ecx, 1
  008ce	85 c9		 test	 ecx, ecx
  008d0	74 09		 je	 SHORT $LN77@response_t
  008d2	c7 45 94 34 00
	00 00		 mov	 DWORD PTR tv456[ebp], 52 ; 00000034H
  008d9	eb 24		 jmp	 SHORT $LN78@response_t
$LN77@response_t:
  008db	8b 15 00 00 00
	00		 mov	 edx, DWORD PTR ?__LINE__Var@?0??response_to_waypoint_land_reached@@YGHW4ENTITY_MESSAGES@@PAUENTITY@@1PAD@Z@4JA
  008e1	81 c2 81 00 00
	00		 add	 edx, 129		; 00000081H
  008e7	52		 push	 edx
  008e8	68 00 00 00 00	 push	 OFFSET ??_C@_0EE@DLIIEJCN@c?3?2users?2nhv90?2projects?2eech?2ap@
  008ed	a1 00 00 00 00	 mov	 eax, DWORD PTR ?overload_invalid_int_type_message@@3PBDB ; overload_invalid_int_type_message
  008f2	50		 push	 eax
  008f3	e8 00 00 00 00	 call	 ?process_assert@@YGXPBD0H@Z ; process_assert
  008f8	c7 45 94 00 00
	00 00		 mov	 DWORD PTR tv456[ebp], 0
$LN78@response_t:
  008ff	6a 34		 push	 52			; 00000034H
  00901	8b 4d f4	 mov	 ecx, DWORD PTR _group$[ebp]
  00904	51		 push	 ecx
  00905	69 55 98 5c 04
	00 00		 imul	 edx, DWORD PTR tv448[ebp], 1116
  0090c	8b 45 94	 mov	 eax, DWORD PTR tv456[ebp]
  0090f	8b 8c 82 00 00
	00 00		 mov	 ecx, DWORD PTR ?fn_get_local_entity_int_value@@3PAY0BBH@P6GHPAUENTITY@@W4INT_TYPES@@@ZA[edx+eax*4]
  00916	ff d1		 call	 ecx
  00918	6b d0 64	 imul	 edx, eax, 100
  0091b	8b 82 18 00 00
	00		 mov	 eax, DWORD PTR ?group_database@@3PAUGROUP_DATA@@A[edx+24]
  00921	50		 push	 eax
  00922	8b 4d e4	 mov	 ecx, DWORD PTR _new_keysite$[ebp]
  00925	51		 push	 ecx
  00926	e8 00 00 00 00	 call	 ?get_local_entity_landing_entity@@YGPAUENTITY@@PAU1@H@Z ; get_local_entity_landing_entity
  0092b	89 45 e0	 mov	 DWORD PTR _new_landing$[ebp], eax

; 1225 : 	
; 1226 : 			// unreserver landing site and reserver new ones
; 1227 : 	
; 1228 : 			mb = get_local_entity_first_child (group, LIST_TYPE_MEMBER);

  0092e	83 7d f4 00	 cmp	 DWORD PTR _group$[ebp], 0
  00932	74 0a		 je	 SHORT $LN79@response_t
  00934	8b 45 f4	 mov	 eax, DWORD PTR _group$[ebp]
  00937	8b 08		 mov	 ecx, DWORD PTR [eax]
  00939	89 4d 98	 mov	 DWORD PTR tv473[ebp], ecx
  0093c	eb 24		 jmp	 SHORT $LN80@response_t
$LN79@response_t:
  0093e	8b 15 00 00 00
	00		 mov	 edx, DWORD PTR ?__LINE__Var@?0??response_to_waypoint_land_reached@@YGHW4ENTITY_MESSAGES@@PAUENTITY@@1PAD@Z@4JA
  00944	81 c2 85 00 00
	00		 add	 edx, 133		; 00000085H
  0094a	52		 push	 edx
  0094b	68 00 00 00 00	 push	 OFFSET ??_C@_0EE@DLIIEJCN@c?3?2users?2nhv90?2projects?2eech?2ap@
  00950	a1 00 00 00 00	 mov	 eax, DWORD PTR ?null_entity_pointer_message@@3PBDB ; null_entity_pointer_message
  00955	50		 push	 eax
  00956	e8 00 00 00 00	 call	 ?process_assert@@YGXPBD0H@Z ; process_assert
  0095b	c7 45 98 00 00
	00 00		 mov	 DWORD PTR tv473[ebp], 0
$LN80@response_t:
  00962	b9 01 00 00 00	 mov	 ecx, 1
  00967	85 c9		 test	 ecx, ecx
  00969	74 09		 je	 SHORT $LN81@response_t
  0096b	c7 45 94 19 00
	00 00		 mov	 DWORD PTR tv481[ebp], 25 ; 00000019H
  00972	eb 24		 jmp	 SHORT $LN82@response_t
$LN81@response_t:
  00974	8b 15 00 00 00
	00		 mov	 edx, DWORD PTR ?__LINE__Var@?0??response_to_waypoint_land_reached@@YGHW4ENTITY_MESSAGES@@PAUENTITY@@1PAD@Z@4JA
  0097a	81 c2 85 00 00
	00		 add	 edx, 133		; 00000085H
  00980	52		 push	 edx
  00981	68 00 00 00 00	 push	 OFFSET ??_C@_0EE@DLIIEJCN@c?3?2users?2nhv90?2projects?2eech?2ap@
  00986	a1 00 00 00 00	 mov	 eax, DWORD PTR ?overload_invalid_list_type_message@@3PBDB ; overload_invalid_list_type_message
  0098b	50		 push	 eax
  0098c	e8 00 00 00 00	 call	 ?process_assert@@YGXPBD0H@Z ; process_assert
  00991	c7 45 94 00 00
	00 00		 mov	 DWORD PTR tv481[ebp], 0
$LN82@response_t:
  00998	6a 19		 push	 25			; 00000019H
  0099a	8b 4d f4	 mov	 ecx, DWORD PTR _group$[ebp]
  0099d	51		 push	 ecx
  0099e	69 55 98 b4 00
	00 00		 imul	 edx, DWORD PTR tv473[ebp], 180
  009a5	8b 45 94	 mov	 eax, DWORD PTR tv481[ebp]
  009a8	8b 8c 82 00 00
	00 00		 mov	 ecx, DWORD PTR ?fn_get_local_entity_first_child@@3PAY0CN@P6GPAUENTITY@@PAU1@W4LIST_TYPES@@@ZA[edx+eax*4]
  009af	ff d1		 call	 ecx
  009b1	89 45 fc	 mov	 DWORD PTR _mb$[ebp], eax
$LN4@response_t:

; 1229 : 	
; 1230 : 			while (mb)

  009b4	83 7d fc 00	 cmp	 DWORD PTR _mb$[ebp], 0
  009b8	0f 84 84 02 00
	00		 je	 $LN5@response_t

; 1231 : 			{
; 1232 : 	
; 1233 : 				notify_local_entity (ENTITY_MESSAGE_UNRESERVE_LANDING_SITE, landing, mb, 1);

  009be	6a 01		 push	 1
  009c0	8b 45 fc	 mov	 eax, DWORD PTR _mb$[ebp]
  009c3	50		 push	 eax
  009c4	8b 4d ec	 mov	 ecx, DWORD PTR _landing$[ebp]
  009c7	51		 push	 ecx
  009c8	6a 3c		 push	 60			; 0000003cH
  009ca	e8 00 00 00 00	 call	 ?notify_local_entity@@YAHW4ENTITY_MESSAGES@@PAUENTITY@@1ZZ ; notify_local_entity
  009cf	83 c4 10	 add	 esp, 16			; 00000010H

; 1234 : 	
; 1235 : 				notify_local_entity (ENTITY_MESSAGE_RESERVE_LANDING_SITE, new_landing, mb, 1);

  009d2	6a 01		 push	 1
  009d4	8b 45 fc	 mov	 eax, DWORD PTR _mb$[ebp]
  009d7	50		 push	 eax
  009d8	8b 4d e0	 mov	 ecx, DWORD PTR _new_landing$[ebp]
  009db	51		 push	 ecx
  009dc	6a 2e		 push	 46			; 0000002eH
  009de	e8 00 00 00 00	 call	 ?notify_local_entity@@YAHW4ENTITY_MESSAGES@@PAUENTITY@@1ZZ ; notify_local_entity
  009e3	83 c4 10	 add	 esp, 16			; 00000010H

; 1236 : 	
; 1237 : 				debug_log ("MB_MSGS:    %s (%d) unreserving landing place at keysite %s (%d) (landing %d) and reserving at keysite %s (%d) (landing %d)",

  009e6	83 7d e4 00	 cmp	 DWORD PTR _new_keysite$[ebp], 0
  009ea	74 0a		 je	 SHORT $LN83@response_t
  009ec	8b 45 e4	 mov	 eax, DWORD PTR _new_keysite$[ebp]
  009ef	8b 08		 mov	 ecx, DWORD PTR [eax]
  009f1	89 4d 98	 mov	 DWORD PTR tv508[ebp], ecx
  009f4	eb 24		 jmp	 SHORT $LN84@response_t
$LN83@response_t:
  009f6	8b 15 00 00 00
	00		 mov	 edx, DWORD PTR ?__LINE__Var@?0??response_to_waypoint_land_reached@@YGHW4ENTITY_MESSAGES@@PAUENTITY@@1PAD@Z@4JA
  009fc	81 c2 94 00 00
	00		 add	 edx, 148		; 00000094H
  00a02	52		 push	 edx
  00a03	68 00 00 00 00	 push	 OFFSET ??_C@_0EE@DLIIEJCN@c?3?2users?2nhv90?2projects?2eech?2ap@
  00a08	a1 00 00 00 00	 mov	 eax, DWORD PTR ?null_entity_pointer_message@@3PBDB ; null_entity_pointer_message
  00a0d	50		 push	 eax
  00a0e	e8 00 00 00 00	 call	 ?process_assert@@YGXPBD0H@Z ; process_assert
  00a13	c7 45 98 00 00
	00 00		 mov	 DWORD PTR tv508[ebp], 0
$LN84@response_t:
  00a1a	b9 01 00 00 00	 mov	 ecx, 1
  00a1f	85 c9		 test	 ecx, ecx
  00a21	74 09		 je	 SHORT $LN85@response_t
  00a23	c7 45 94 03 00
	00 00		 mov	 DWORD PTR tv516[ebp], 3
  00a2a	eb 24		 jmp	 SHORT $LN86@response_t
$LN85@response_t:
  00a2c	8b 15 00 00 00
	00		 mov	 edx, DWORD PTR ?__LINE__Var@?0??response_to_waypoint_land_reached@@YGHW4ENTITY_MESSAGES@@PAUENTITY@@1PAD@Z@4JA
  00a32	81 c2 94 00 00
	00		 add	 edx, 148		; 00000094H
  00a38	52		 push	 edx
  00a39	68 00 00 00 00	 push	 OFFSET ??_C@_0EE@DLIIEJCN@c?3?2users?2nhv90?2projects?2eech?2ap@
  00a3e	a1 00 00 00 00	 mov	 eax, DWORD PTR ?overload_invalid_string_type_message@@3PBDB ; overload_invalid_string_type_message
  00a43	50		 push	 eax
  00a44	e8 00 00 00 00	 call	 ?process_assert@@YGXPBD0H@Z ; process_assert
  00a49	c7 45 94 00 00
	00 00		 mov	 DWORD PTR tv516[ebp], 0
$LN86@response_t:
  00a50	83 7d f0 00	 cmp	 DWORD PTR _keysite$[ebp], 0
  00a54	74 0a		 je	 SHORT $LN87@response_t
  00a56	8b 4d f0	 mov	 ecx, DWORD PTR _keysite$[ebp]
  00a59	8b 11		 mov	 edx, DWORD PTR [ecx]
  00a5b	89 55 90	 mov	 DWORD PTR tv535[ebp], edx
  00a5e	eb 23		 jmp	 SHORT $LN88@response_t
$LN87@response_t:
  00a60	a1 00 00 00 00	 mov	 eax, DWORD PTR ?__LINE__Var@?0??response_to_waypoint_land_reached@@YGHW4ENTITY_MESSAGES@@PAUENTITY@@1PAD@Z@4JA
  00a65	05 91 00 00 00	 add	 eax, 145		; 00000091H
  00a6a	50		 push	 eax
  00a6b	68 00 00 00 00	 push	 OFFSET ??_C@_0EE@DLIIEJCN@c?3?2users?2nhv90?2projects?2eech?2ap@
  00a70	8b 0d 00 00 00
	00		 mov	 ecx, DWORD PTR ?null_entity_pointer_message@@3PBDB ; null_entity_pointer_message
  00a76	51		 push	 ecx
  00a77	e8 00 00 00 00	 call	 ?process_assert@@YGXPBD0H@Z ; process_assert
  00a7c	c7 45 90 00 00
	00 00		 mov	 DWORD PTR tv535[ebp], 0
$LN88@response_t:
  00a83	ba 01 00 00 00	 mov	 edx, 1
  00a88	85 d2		 test	 edx, edx
  00a8a	74 09		 je	 SHORT $LN89@response_t
  00a8c	c7 45 8c 03 00
	00 00		 mov	 DWORD PTR tv543[ebp], 3
  00a93	eb 23		 jmp	 SHORT $LN90@response_t
$LN89@response_t:
  00a95	a1 00 00 00 00	 mov	 eax, DWORD PTR ?__LINE__Var@?0??response_to_waypoint_land_reached@@YGHW4ENTITY_MESSAGES@@PAUENTITY@@1PAD@Z@4JA
  00a9a	05 91 00 00 00	 add	 eax, 145		; 00000091H
  00a9f	50		 push	 eax
  00aa0	68 00 00 00 00	 push	 OFFSET ??_C@_0EE@DLIIEJCN@c?3?2users?2nhv90?2projects?2eech?2ap@
  00aa5	8b 0d 00 00 00
	00		 mov	 ecx, DWORD PTR ?overload_invalid_string_type_message@@3PBDB ; overload_invalid_string_type_message
  00aab	51		 push	 ecx
  00aac	e8 00 00 00 00	 call	 ?process_assert@@YGXPBD0H@Z ; process_assert
  00ab1	c7 45 8c 00 00
	00 00		 mov	 DWORD PTR tv543[ebp], 0
$LN90@response_t:
  00ab8	83 7d fc 00	 cmp	 DWORD PTR _mb$[ebp], 0
  00abc	74 0a		 je	 SHORT $LN91@response_t
  00abe	8b 55 fc	 mov	 edx, DWORD PTR _mb$[ebp]
  00ac1	8b 02		 mov	 eax, DWORD PTR [edx]
  00ac3	89 45 88	 mov	 DWORD PTR tv559[ebp], eax
  00ac6	eb 25		 jmp	 SHORT $LN92@response_t
$LN91@response_t:
  00ac8	8b 0d 00 00 00
	00		 mov	 ecx, DWORD PTR ?__LINE__Var@?0??response_to_waypoint_land_reached@@YGHW4ENTITY_MESSAGES@@PAUENTITY@@1PAD@Z@4JA
  00ace	81 c1 8f 00 00
	00		 add	 ecx, 143		; 0000008fH
  00ad4	51		 push	 ecx
  00ad5	68 00 00 00 00	 push	 OFFSET ??_C@_0EE@DLIIEJCN@c?3?2users?2nhv90?2projects?2eech?2ap@
  00ada	8b 15 00 00 00
	00		 mov	 edx, DWORD PTR ?null_entity_pointer_message@@3PBDB ; null_entity_pointer_message
  00ae0	52		 push	 edx
  00ae1	e8 00 00 00 00	 call	 ?process_assert@@YGXPBD0H@Z ; process_assert
  00ae6	c7 45 88 00 00
	00 00		 mov	 DWORD PTR tv559[ebp], 0
$LN92@response_t:
  00aed	b8 01 00 00 00	 mov	 eax, 1
  00af2	85 c0		 test	 eax, eax
  00af4	74 09		 je	 SHORT $LN93@response_t
  00af6	c7 45 84 03 00
	00 00		 mov	 DWORD PTR tv567[ebp], 3
  00afd	eb 25		 jmp	 SHORT $LN94@response_t
$LN93@response_t:
  00aff	8b 0d 00 00 00
	00		 mov	 ecx, DWORD PTR ?__LINE__Var@?0??response_to_waypoint_land_reached@@YGHW4ENTITY_MESSAGES@@PAUENTITY@@1PAD@Z@4JA
  00b05	81 c1 8f 00 00
	00		 add	 ecx, 143		; 0000008fH
  00b0b	51		 push	 ecx
  00b0c	68 00 00 00 00	 push	 OFFSET ??_C@_0EE@DLIIEJCN@c?3?2users?2nhv90?2projects?2eech?2ap@
  00b11	8b 15 00 00 00
	00		 mov	 edx, DWORD PTR ?overload_invalid_string_type_message@@3PBDB ; overload_invalid_string_type_message
  00b17	52		 push	 edx
  00b18	e8 00 00 00 00	 call	 ?process_assert@@YGXPBD0H@Z ; process_assert
  00b1d	c7 45 84 00 00
	00 00		 mov	 DWORD PTR tv567[ebp], 0
$LN94@response_t:
  00b24	8b 45 e0	 mov	 eax, DWORD PTR _new_landing$[ebp]
  00b27	2b 05 00 00 00
	00		 sub	 eax, DWORD PTR ?entities@@3PAUENTITY@@A ; entities
  00b2d	c1 f8 04	 sar	 eax, 4
  00b30	50		 push	 eax
  00b31	8b 4d e4	 mov	 ecx, DWORD PTR _new_keysite$[ebp]
  00b34	2b 0d 00 00 00
	00		 sub	 ecx, DWORD PTR ?entities@@3PAUENTITY@@A ; entities
  00b3a	c1 f9 04	 sar	 ecx, 4
  00b3d	51		 push	 ecx
  00b3e	6a 03		 push	 3
  00b40	8b 55 e4	 mov	 edx, DWORD PTR _new_keysite$[ebp]
  00b43	52		 push	 edx
  00b44	6b 45 98 34	 imul	 eax, DWORD PTR tv508[ebp], 52
  00b48	8b 4d 94	 mov	 ecx, DWORD PTR tv516[ebp]
  00b4b	8b 94 88 00 00
	00 00		 mov	 edx, DWORD PTR ?fn_get_local_entity_string@@3PAY0N@P6GPBDPAUENTITY@@W4STRING_TYPES@@@ZA[eax+ecx*4]
  00b52	ff d2		 call	 edx
  00b54	50		 push	 eax
  00b55	8b 45 ec	 mov	 eax, DWORD PTR _landing$[ebp]
  00b58	2b 05 00 00 00
	00		 sub	 eax, DWORD PTR ?entities@@3PAUENTITY@@A ; entities
  00b5e	c1 f8 04	 sar	 eax, 4
  00b61	50		 push	 eax
  00b62	8b 4d f0	 mov	 ecx, DWORD PTR _keysite$[ebp]
  00b65	2b 0d 00 00 00
	00		 sub	 ecx, DWORD PTR ?entities@@3PAUENTITY@@A ; entities
  00b6b	c1 f9 04	 sar	 ecx, 4
  00b6e	51		 push	 ecx
  00b6f	6a 03		 push	 3
  00b71	8b 55 f0	 mov	 edx, DWORD PTR _keysite$[ebp]
  00b74	52		 push	 edx
  00b75	6b 45 90 34	 imul	 eax, DWORD PTR tv535[ebp], 52
  00b79	8b 4d 8c	 mov	 ecx, DWORD PTR tv543[ebp]
  00b7c	8b 94 88 00 00
	00 00		 mov	 edx, DWORD PTR ?fn_get_local_entity_string@@3PAY0N@P6GPBDPAUENTITY@@W4STRING_TYPES@@@ZA[eax+ecx*4]
  00b83	ff d2		 call	 edx
  00b85	50		 push	 eax
  00b86	8b 45 fc	 mov	 eax, DWORD PTR _mb$[ebp]
  00b89	2b 05 00 00 00
	00		 sub	 eax, DWORD PTR ?entities@@3PAUENTITY@@A ; entities
  00b8f	c1 f8 04	 sar	 eax, 4
  00b92	50		 push	 eax
  00b93	6a 03		 push	 3
  00b95	8b 4d fc	 mov	 ecx, DWORD PTR _mb$[ebp]
  00b98	51		 push	 ecx
  00b99	6b 55 88 34	 imul	 edx, DWORD PTR tv559[ebp], 52
  00b9d	8b 45 84	 mov	 eax, DWORD PTR tv567[ebp]
  00ba0	8b 8c 82 00 00
	00 00		 mov	 ecx, DWORD PTR ?fn_get_local_entity_string@@3PAY0N@P6GPBDPAUENTITY@@W4STRING_TYPES@@@ZA[edx+eax*4]
  00ba7	ff d1		 call	 ecx
  00ba9	50		 push	 eax
  00baa	68 00 00 00 00	 push	 OFFSET ??_C@_0HM@NJEDKAHD@MB_MSGS?3?5?5?5?5?$CFs?5?$CI?$CFd?$CJ?5unreserving@
  00baf	e8 00 00 00 00	 call	 ?debug_log@@YAXPBDZZ	; debug_log
  00bb4	83 c4 24	 add	 esp, 36			; 00000024H

; 1238 : 								get_local_entity_string (mb, STRING_TYPE_FULL_NAME),
; 1239 : 								get_local_entity_index (mb),
; 1240 : 								get_local_entity_string (keysite, STRING_TYPE_FULL_NAME),
; 1241 : 								get_local_entity_index (keysite),
; 1242 : 								get_local_entity_index (landing),
; 1243 : 								get_local_entity_string (new_keysite, STRING_TYPE_FULL_NAME),
; 1244 : 								get_local_entity_index (new_keysite),
; 1245 : 								get_local_entity_index (new_landing));
; 1246 : 	
; 1247 : 				mb = get_local_entity_child_succ (mb, LIST_TYPE_MEMBER);

  00bb7	83 7d fc 00	 cmp	 DWORD PTR _mb$[ebp], 0
  00bbb	74 0a		 je	 SHORT $LN95@response_t
  00bbd	8b 45 fc	 mov	 eax, DWORD PTR _mb$[ebp]
  00bc0	8b 08		 mov	 ecx, DWORD PTR [eax]
  00bc2	89 4d 98	 mov	 DWORD PTR tv581[ebp], ecx
  00bc5	eb 24		 jmp	 SHORT $LN96@response_t
$LN95@response_t:
  00bc7	8b 15 00 00 00
	00		 mov	 edx, DWORD PTR ?__LINE__Var@?0??response_to_waypoint_land_reached@@YGHW4ENTITY_MESSAGES@@PAUENTITY@@1PAD@Z@4JA
  00bcd	81 c2 98 00 00
	00		 add	 edx, 152		; 00000098H
  00bd3	52		 push	 edx
  00bd4	68 00 00 00 00	 push	 OFFSET ??_C@_0EE@DLIIEJCN@c?3?2users?2nhv90?2projects?2eech?2ap@
  00bd9	a1 00 00 00 00	 mov	 eax, DWORD PTR ?null_entity_pointer_message@@3PBDB ; null_entity_pointer_message
  00bde	50		 push	 eax
  00bdf	e8 00 00 00 00	 call	 ?process_assert@@YGXPBD0H@Z ; process_assert
  00be4	c7 45 98 00 00
	00 00		 mov	 DWORD PTR tv581[ebp], 0
$LN96@response_t:
  00beb	b9 01 00 00 00	 mov	 ecx, 1
  00bf0	85 c9		 test	 ecx, ecx
  00bf2	74 09		 je	 SHORT $LN97@response_t
  00bf4	c7 45 94 19 00
	00 00		 mov	 DWORD PTR tv589[ebp], 25 ; 00000019H
  00bfb	eb 24		 jmp	 SHORT $LN98@response_t
$LN97@response_t:
  00bfd	8b 15 00 00 00
	00		 mov	 edx, DWORD PTR ?__LINE__Var@?0??response_to_waypoint_land_reached@@YGHW4ENTITY_MESSAGES@@PAUENTITY@@1PAD@Z@4JA
  00c03	81 c2 98 00 00
	00		 add	 edx, 152		; 00000098H
  00c09	52		 push	 edx
  00c0a	68 00 00 00 00	 push	 OFFSET ??_C@_0EE@DLIIEJCN@c?3?2users?2nhv90?2projects?2eech?2ap@
  00c0f	a1 00 00 00 00	 mov	 eax, DWORD PTR ?overload_invalid_list_type_message@@3PBDB ; overload_invalid_list_type_message
  00c14	50		 push	 eax
  00c15	e8 00 00 00 00	 call	 ?process_assert@@YGXPBD0H@Z ; process_assert
  00c1a	c7 45 94 00 00
	00 00		 mov	 DWORD PTR tv589[ebp], 0
$LN98@response_t:
  00c21	6a 19		 push	 25			; 00000019H
  00c23	8b 4d fc	 mov	 ecx, DWORD PTR _mb$[ebp]
  00c26	51		 push	 ecx
  00c27	69 55 98 b4 00
	00 00		 imul	 edx, DWORD PTR tv581[ebp], 180
  00c2e	8b 45 94	 mov	 eax, DWORD PTR tv589[ebp]
  00c31	8b 8c 82 00 00
	00 00		 mov	 ecx, DWORD PTR ?fn_get_local_entity_child_succ@@3PAY0CN@P6GPAUENTITY@@PAU1@W4LIST_TYPES@@@ZA[edx+eax*4]
  00c38	ff d1		 call	 ecx
  00c3a	89 45 fc	 mov	 DWORD PTR _mb$[ebp], eax

; 1248 : 			}

  00c3d	e9 72 fd ff ff	 jmp	 $LN4@response_t
$LN5@response_t:

; 1249 : 		}
; 1250 : 	}
; 1251 : 
; 1252 : 	set_local_entity_float_value (receiver, FLOAT_TYPE_VIEW_INTEREST_LEVEL, DEFAULT_VIEW_INTEREST_LEVEL);

  00c42	83 7d 0c 00	 cmp	 DWORD PTR _receiver$[ebp], 0
  00c46	74 0a		 je	 SHORT $LN99@response_t
  00c48	8b 45 0c	 mov	 eax, DWORD PTR _receiver$[ebp]
  00c4b	8b 08		 mov	 ecx, DWORD PTR [eax]
  00c4d	89 4d 98	 mov	 DWORD PTR tv601[ebp], ecx
  00c50	eb 24		 jmp	 SHORT $LN100@response_t
$LN99@response_t:
  00c52	8b 15 00 00 00
	00		 mov	 edx, DWORD PTR ?__LINE__Var@?0??response_to_waypoint_land_reached@@YGHW4ENTITY_MESSAGES@@PAUENTITY@@1PAD@Z@4JA
  00c58	81 c2 9d 00 00
	00		 add	 edx, 157		; 0000009dH
  00c5e	52		 push	 edx
  00c5f	68 00 00 00 00	 push	 OFFSET ??_C@_0EE@DLIIEJCN@c?3?2users?2nhv90?2projects?2eech?2ap@
  00c64	a1 00 00 00 00	 mov	 eax, DWORD PTR ?null_entity_pointer_message@@3PBDB ; null_entity_pointer_message
  00c69	50		 push	 eax
  00c6a	e8 00 00 00 00	 call	 ?process_assert@@YGXPBD0H@Z ; process_assert
  00c6f	c7 45 98 00 00
	00 00		 mov	 DWORD PTR tv601[ebp], 0
$LN100@response_t:
  00c76	b9 01 00 00 00	 mov	 ecx, 1
  00c7b	85 c9		 test	 ecx, ecx
  00c7d	74 09		 je	 SHORT $LN101@response_t
  00c7f	c7 45 94 95 00
	00 00		 mov	 DWORD PTR tv609[ebp], 149 ; 00000095H
  00c86	eb 24		 jmp	 SHORT $LN102@response_t
$LN101@response_t:
  00c88	8b 15 00 00 00
	00		 mov	 edx, DWORD PTR ?__LINE__Var@?0??response_to_waypoint_land_reached@@YGHW4ENTITY_MESSAGES@@PAUENTITY@@1PAD@Z@4JA
  00c8e	81 c2 9d 00 00
	00		 add	 edx, 157		; 0000009dH
  00c94	52		 push	 edx
  00c95	68 00 00 00 00	 push	 OFFSET ??_C@_0EE@DLIIEJCN@c?3?2users?2nhv90?2projects?2eech?2ap@
  00c9a	a1 00 00 00 00	 mov	 eax, DWORD PTR ?overload_invalid_float_type_message@@3PBDB ; overload_invalid_float_type_message
  00c9f	50		 push	 eax
  00ca0	e8 00 00 00 00	 call	 ?process_assert@@YGXPBD0H@Z ; process_assert
  00ca5	c7 45 94 00 00
	00 00		 mov	 DWORD PTR tv609[ebp], 0
$LN102@response_t:
  00cac	51		 push	 ecx
  00cad	f3 0f 10 05 00
	00 00 00	 movss	 xmm0, DWORD PTR __real@40a00000
  00cb5	f3 0f 11 04 24	 movss	 DWORD PTR [esp], xmm0
  00cba	68 95 00 00 00	 push	 149			; 00000095H
  00cbf	8b 4d 0c	 mov	 ecx, DWORD PTR _receiver$[ebp]
  00cc2	51		 push	 ecx
  00cc3	69 55 98 bc 02
	00 00		 imul	 edx, DWORD PTR tv601[ebp], 700
  00cca	8b 45 94	 mov	 eax, DWORD PTR tv609[ebp]
  00ccd	8b 8c 82 00 00
	00 00		 mov	 ecx, DWORD PTR ?fn_set_local_entity_float_value@@3PAY0KP@P6GXPAUENTITY@@W4FLOAT_TYPES@@M@ZA[edx+eax*4]
  00cd4	ff d1		 call	 ecx

; 1253 : 
; 1254 : 	return (TRUE);

  00cd6	b8 01 00 00 00	 mov	 eax, 1

; 1255 : }

  00cdb	5f		 pop	 edi
  00cdc	5e		 pop	 esi
  00cdd	5b		 pop	 ebx
  00cde	8b e5		 mov	 esp, ebp
  00ce0	5d		 pop	 ebp
  00ce1	c2 10 00	 ret	 16			; 00000010H
?response_to_waypoint_land_reached@@YGHW4ENTITY_MESSAGES@@PAUENTITY@@1PAD@Z ENDP ; response_to_waypoint_land_reached
_TEXT	ENDS
; Function compile flags: /Odtp /ZI
; File c:\users\nhv90\projects\eech\aphavoc\source\entity\mobile\mb_msgs.c
;	COMDAT ?response_to_waypoint_finish_drop_off_reached@@YGHW4ENTITY_MESSAGES@@PAUENTITY@@1PAD@Z
_TEXT	SEGMENT
tv79 = -76						; size = 4
tv71 = -72						; size = 4
_task$ = -4						; size = 4
_message$ = 8						; size = 4
_receiver$ = 12						; size = 4
_sender$ = 16						; size = 4
_pargs$ = 20						; size = 4
?response_to_waypoint_finish_drop_off_reached@@YGHW4ENTITY_MESSAGES@@PAUENTITY@@1PAD@Z PROC ; response_to_waypoint_finish_drop_off_reached, COMDAT

; 1070 : {

  00000	55		 push	 ebp
  00001	8b ec		 mov	 ebp, esp
  00003	83 ec 4c	 sub	 esp, 76			; 0000004cH
  00006	53		 push	 ebx
  00007	56		 push	 esi
  00008	57		 push	 edi

; 1071 : 
; 1072 : 	entity
; 1073 : 		*task;
; 1074 : 
; 1075 : 	#if DEBUG_MODULE
; 1076 : 
; 1077 : 	debug_log ("MB_MSGS: FINSIH_DROP_OFF REACHED. closing cargo doors");
; 1078 : 
; 1079 : 	#endif
; 1080 : 		
; 1081 : 	close_client_server_entity_cargo_doors (receiver);

  00009	8b 45 0c	 mov	 eax, DWORD PTR _receiver$[ebp]
  0000c	50		 push	 eax
  0000d	e8 00 00 00 00	 call	 ?close_client_server_entity_cargo_doors@@YGXPAUENTITY@@@Z ; close_client_server_entity_cargo_doors

; 1082 : 
; 1083 : 	task = get_local_entity_parent (sender, LIST_TYPE_WAYPOINT);

  00012	83 7d 10 00	 cmp	 DWORD PTR _sender$[ebp], 0
  00016	74 0a		 je	 SHORT $LN3@response_t
  00018	8b 45 10	 mov	 eax, DWORD PTR _sender$[ebp]
  0001b	8b 08		 mov	 ecx, DWORD PTR [eax]
  0001d	89 4d b8	 mov	 DWORD PTR tv71[ebp], ecx
  00020	eb 21		 jmp	 SHORT $LN4@response_t
$LN3@response_t:
  00022	8b 15 00 00 00
	00		 mov	 edx, DWORD PTR ?__LINE__Var@?0??response_to_waypoint_finish_drop_off_reached@@YGHW4ENTITY_MESSAGES@@PAUENTITY@@1PAD@Z@4JA
  00028	83 c2 0d	 add	 edx, 13			; 0000000dH
  0002b	52		 push	 edx
  0002c	68 00 00 00 00	 push	 OFFSET ??_C@_0EE@DLIIEJCN@c?3?2users?2nhv90?2projects?2eech?2ap@
  00031	a1 00 00 00 00	 mov	 eax, DWORD PTR ?null_entity_pointer_message@@3PBDB ; null_entity_pointer_message
  00036	50		 push	 eax
  00037	e8 00 00 00 00	 call	 ?process_assert@@YGXPBD0H@Z ; process_assert
  0003c	c7 45 b8 00 00
	00 00		 mov	 DWORD PTR tv71[ebp], 0
$LN4@response_t:
  00043	b9 01 00 00 00	 mov	 ecx, 1
  00048	85 c9		 test	 ecx, ecx
  0004a	74 09		 je	 SHORT $LN5@response_t
  0004c	c7 45 b4 2c 00
	00 00		 mov	 DWORD PTR tv79[ebp], 44	; 0000002cH
  00053	eb 21		 jmp	 SHORT $LN6@response_t
$LN5@response_t:
  00055	8b 15 00 00 00
	00		 mov	 edx, DWORD PTR ?__LINE__Var@?0??response_to_waypoint_finish_drop_off_reached@@YGHW4ENTITY_MESSAGES@@PAUENTITY@@1PAD@Z@4JA
  0005b	83 c2 0d	 add	 edx, 13			; 0000000dH
  0005e	52		 push	 edx
  0005f	68 00 00 00 00	 push	 OFFSET ??_C@_0EE@DLIIEJCN@c?3?2users?2nhv90?2projects?2eech?2ap@
  00064	a1 00 00 00 00	 mov	 eax, DWORD PTR ?overload_invalid_list_type_message@@3PBDB ; overload_invalid_list_type_message
  00069	50		 push	 eax
  0006a	e8 00 00 00 00	 call	 ?process_assert@@YGXPBD0H@Z ; process_assert
  0006f	c7 45 b4 00 00
	00 00		 mov	 DWORD PTR tv79[ebp], 0
$LN6@response_t:
  00076	6a 2c		 push	 44			; 0000002cH
  00078	8b 4d 10	 mov	 ecx, DWORD PTR _sender$[ebp]
  0007b	51		 push	 ecx
  0007c	69 55 b8 b4 00
	00 00		 imul	 edx, DWORD PTR tv71[ebp], 180
  00083	8b 45 b4	 mov	 eax, DWORD PTR tv79[ebp]
  00086	8b 8c 82 00 00
	00 00		 mov	 ecx, DWORD PTR ?fn_get_local_entity_parent@@3PAY0CN@P6GPAUENTITY@@PAU1@W4LIST_TYPES@@@ZA[edx+eax*4]
  0008d	ff d1		 call	 ecx
  0008f	89 45 fc	 mov	 DWORD PTR _task$[ebp], eax

; 1084 : 
; 1085 : 	notify_local_entity (ENTITY_MESSAGE_TASK_COMPLETED, task, receiver, TASK_TERMINATED_OBJECTIVE_MESSAGE);

  00092	6a 04		 push	 4
  00094	8b 45 0c	 mov	 eax, DWORD PTR _receiver$[ebp]
  00097	50		 push	 eax
  00098	8b 4d fc	 mov	 ecx, DWORD PTR _task$[ebp]
  0009b	51		 push	 ecx
  0009c	6a 32		 push	 50			; 00000032H
  0009e	e8 00 00 00 00	 call	 ?notify_local_entity@@YAHW4ENTITY_MESSAGES@@PAUENTITY@@1ZZ ; notify_local_entity
  000a3	83 c4 10	 add	 esp, 16			; 00000010H

; 1086 : 
; 1087 : 	return (TRUE);

  000a6	b8 01 00 00 00	 mov	 eax, 1

; 1088 : }

  000ab	5f		 pop	 edi
  000ac	5e		 pop	 esi
  000ad	5b		 pop	 ebx
  000ae	8b e5		 mov	 esp, ebp
  000b0	5d		 pop	 ebp
  000b1	c2 10 00	 ret	 16			; 00000010H
?response_to_waypoint_finish_drop_off_reached@@YGHW4ENTITY_MESSAGES@@PAUENTITY@@1PAD@Z ENDP ; response_to_waypoint_finish_drop_off_reached
_TEXT	ENDS
; Function compile flags: /Odtp /ZI
; File c:\users\nhv90\projects\eech\aphavoc\source\entity\mobile\mb_msgs.c
;	COMDAT ?response_to_waypoint_drop_off_reached@@YGHW4ENTITY_MESSAGES@@PAUENTITY@@1PAD@Z
_TEXT	SEGMENT
tv326 = -92						; size = 8
tv254 = -92						; size = 8
tv426 = -84						; size = 4
tv404 = -84						; size = 4
tv383 = -84						; size = 4
tv365 = -84						; size = 4
tv343 = -84						; size = 4
tv327 = -84						; size = 8
tv312 = -84						; size = 4
tv291 = -84						; size = 4
tv271 = -84						; size = 4
tv255 = -84						; size = 8
tv240 = -84						; size = 4
tv219 = -84						; size = 4
tv166 = -84						; size = 4
tv145 = -84						; size = 4
tv94 = -84						; size = 4
tv418 = -80						; size = 4
tv396 = -80						; size = 4
tv376 = -80						; size = 4
tv357 = -80						; size = 4
tv335 = -80						; size = 4
tv304 = -80						; size = 4
tv284 = -80						; size = 4
tv263 = -80						; size = 4
tv232 = -80						; size = 4
tv212 = -80						; size = 4
tv201 = -80						; size = 4
tv178 = -80						; size = 4
tv158 = -80						; size = 4
tv138 = -80						; size = 4
tv86 = -80						; size = 4
_level$1 = -12						; size = 4
_cargo$ = -8						; size = 4
_requester$ = -4					; size = 4
_message$ = 8						; size = 4
_receiver$ = 12						; size = 4
_sender$ = 16						; size = 4
_pargs$ = 20						; size = 4
?response_to_waypoint_drop_off_reached@@YGHW4ENTITY_MESSAGES@@PAUENTITY@@1PAD@Z PROC ; response_to_waypoint_drop_off_reached, COMDAT

; 880  : {

  00000	55		 push	 ebp
  00001	8b ec		 mov	 ebp, esp
  00003	83 ec 5c	 sub	 esp, 92			; 0000005cH
  00006	53		 push	 ebx
  00007	56		 push	 esi
  00008	57		 push	 edi

; 881  : 
; 882  : 	entity
; 883  : 		//*mb,
; 884  : 		//*group,
; 885  : 		*requester,
; 886  : 		*cargo;
; 887  : 
; 888  : 	ASSERT (sender);

  00009	83 7d 10 00	 cmp	 DWORD PTR _sender$[ebp], 0
  0000d	75 18		 jne	 SHORT $LN4@response_t
  0000f	a1 00 00 00 00	 mov	 eax, DWORD PTR ?__LINE__Var@?0??response_to_waypoint_drop_off_reached@@YGHW4ENTITY_MESSAGES@@PAUENTITY@@1PAD@Z@4JA
  00014	83 c0 08	 add	 eax, 8
  00017	50		 push	 eax
  00018	68 00 00 00 00	 push	 OFFSET ??_C@_0EE@DLIIEJCN@c?3?2users?2nhv90?2projects?2eech?2ap@
  0001d	68 00 00 00 00	 push	 OFFSET ??_C@_06CGHJMPBJ@sender@
  00022	e8 00 00 00 00	 call	 ?process_assert@@YGXPBD0H@Z ; process_assert
$LN4@response_t:

; 889  : 
; 890  : 	ASSERT (sender->type == ENTITY_TYPE_WAYPOINT);

  00027	8b 45 10	 mov	 eax, DWORD PTR _sender$[ebp]
  0002a	83 38 24	 cmp	 DWORD PTR [eax], 36	; 00000024H
  0002d	74 18		 je	 SHORT $LN5@response_t
  0002f	a1 00 00 00 00	 mov	 eax, DWORD PTR ?__LINE__Var@?0??response_to_waypoint_drop_off_reached@@YGHW4ENTITY_MESSAGES@@PAUENTITY@@1PAD@Z@4JA
  00034	83 c0 0a	 add	 eax, 10			; 0000000aH
  00037	50		 push	 eax
  00038	68 00 00 00 00	 push	 OFFSET ??_C@_0EE@DLIIEJCN@c?3?2users?2nhv90?2projects?2eech?2ap@
  0003d	68 00 00 00 00	 push	 OFFSET ??_C@_0CF@JOKOGIDD@sender?9?$DOtype?5?$DN?$DN?5ENTITY_TYPE_WAY@
  00042	e8 00 00 00 00	 call	 ?process_assert@@YGXPBD0H@Z ; process_assert
$LN5@response_t:

; 891  : 
; 892  : 	ASSERT (get_comms_model () == COMMS_MODEL_SERVER);

  00047	83 3d 00 00 00
	00 00		 cmp	 DWORD PTR ?system_comms_model@@3W4COMMS_MODEL_TYPES@@A, 0 ; system_comms_model
  0004e	74 18		 je	 SHORT $LN6@response_t
  00050	a1 00 00 00 00	 mov	 eax, DWORD PTR ?__LINE__Var@?0??response_to_waypoint_drop_off_reached@@YGHW4ENTITY_MESSAGES@@PAUENTITY@@1PAD@Z@4JA
  00055	83 c0 0c	 add	 eax, 12			; 0000000cH
  00058	50		 push	 eax
  00059	68 00 00 00 00	 push	 OFFSET ??_C@_0EE@DLIIEJCN@c?3?2users?2nhv90?2projects?2eech?2ap@
  0005e	68 00 00 00 00	 push	 OFFSET ??_C@_0CJ@DMBLBJBK@get_comms_model?5?$CI?$CJ?5?$DN?$DN?5COMMS_MOD@
  00063	e8 00 00 00 00	 call	 ?process_assert@@YGXPBD0H@Z ; process_assert
$LN6@response_t:

; 893  : 
; 894  : 	#if DEBUG_MODULE >= 2
; 895  : 
; 896  : 	debug_log_entity_message (message, receiver, sender, pargs);
; 897  : 
; 898  : 	#endif
; 899  : 
; 900  : 	cargo = get_local_entity_first_child (receiver, LIST_TYPE_MOVEMENT_DEPENDENT);

  00068	83 7d 0c 00	 cmp	 DWORD PTR _receiver$[ebp], 0
  0006c	74 0a		 je	 SHORT $LN19@response_t
  0006e	8b 45 0c	 mov	 eax, DWORD PTR _receiver$[ebp]
  00071	8b 08		 mov	 ecx, DWORD PTR [eax]
  00073	89 4d b0	 mov	 DWORD PTR tv86[ebp], ecx
  00076	eb 21		 jmp	 SHORT $LN20@response_t
$LN19@response_t:
  00078	8b 15 00 00 00
	00		 mov	 edx, DWORD PTR ?__LINE__Var@?0??response_to_waypoint_drop_off_reached@@YGHW4ENTITY_MESSAGES@@PAUENTITY@@1PAD@Z@4JA
  0007e	83 c2 14	 add	 edx, 20			; 00000014H
  00081	52		 push	 edx
  00082	68 00 00 00 00	 push	 OFFSET ??_C@_0EE@DLIIEJCN@c?3?2users?2nhv90?2projects?2eech?2ap@
  00087	a1 00 00 00 00	 mov	 eax, DWORD PTR ?null_entity_pointer_message@@3PBDB ; null_entity_pointer_message
  0008c	50		 push	 eax
  0008d	e8 00 00 00 00	 call	 ?process_assert@@YGXPBD0H@Z ; process_assert
  00092	c7 45 b0 00 00
	00 00		 mov	 DWORD PTR tv86[ebp], 0
$LN20@response_t:
  00099	b9 01 00 00 00	 mov	 ecx, 1
  0009e	85 c9		 test	 ecx, ecx
  000a0	74 09		 je	 SHORT $LN21@response_t
  000a2	c7 45 ac 1a 00
	00 00		 mov	 DWORD PTR tv94[ebp], 26	; 0000001aH
  000a9	eb 21		 jmp	 SHORT $LN22@response_t
$LN21@response_t:
  000ab	8b 15 00 00 00
	00		 mov	 edx, DWORD PTR ?__LINE__Var@?0??response_to_waypoint_drop_off_reached@@YGHW4ENTITY_MESSAGES@@PAUENTITY@@1PAD@Z@4JA
  000b1	83 c2 14	 add	 edx, 20			; 00000014H
  000b4	52		 push	 edx
  000b5	68 00 00 00 00	 push	 OFFSET ??_C@_0EE@DLIIEJCN@c?3?2users?2nhv90?2projects?2eech?2ap@
  000ba	a1 00 00 00 00	 mov	 eax, DWORD PTR ?overload_invalid_list_type_message@@3PBDB ; overload_invalid_list_type_message
  000bf	50		 push	 eax
  000c0	e8 00 00 00 00	 call	 ?process_assert@@YGXPBD0H@Z ; process_assert
  000c5	c7 45 ac 00 00
	00 00		 mov	 DWORD PTR tv94[ebp], 0
$LN22@response_t:
  000cc	6a 1a		 push	 26			; 0000001aH
  000ce	8b 4d 0c	 mov	 ecx, DWORD PTR _receiver$[ebp]
  000d1	51		 push	 ecx
  000d2	69 55 b0 b4 00
	00 00		 imul	 edx, DWORD PTR tv86[ebp], 180
  000d9	8b 45 ac	 mov	 eax, DWORD PTR tv94[ebp]
  000dc	8b 8c 82 00 00
	00 00		 mov	 ecx, DWORD PTR ?fn_get_local_entity_first_child@@3PAY0CN@P6GPAUENTITY@@PAU1@W4LIST_TYPES@@@ZA[edx+eax*4]
  000e3	ff d1		 call	 ecx
  000e5	89 45 f8	 mov	 DWORD PTR _cargo$[ebp], eax
$LN2@response_t:

; 901  : 
; 902  : 	while (cargo)

  000e8	83 7d f8 00	 cmp	 DWORD PTR _cargo$[ebp], 0
  000ec	0f 84 51 06 00
	00		 je	 $LN3@response_t

; 903  : 	{
; 904  : 
; 905  : 		if (get_local_entity_int_value (cargo, INT_TYPE_IDENTIFY_CARGO))

  000f2	83 7d f8 00	 cmp	 DWORD PTR _cargo$[ebp], 0
  000f6	74 0a		 je	 SHORT $LN23@response_t
  000f8	8b 45 f8	 mov	 eax, DWORD PTR _cargo$[ebp]
  000fb	8b 08		 mov	 ecx, DWORD PTR [eax]
  000fd	89 4d b0	 mov	 DWORD PTR tv138[ebp], ecx
  00100	eb 1d		 jmp	 SHORT $LN24@response_t
$LN23@response_t:
  00102	68 89 03 00 00	 push	 905			; 00000389H
  00107	68 00 00 00 00	 push	 OFFSET ??_C@_0EE@DLIIEJCN@c?3?2users?2nhv90?2projects?2eech?2ap@
  0010c	8b 15 00 00 00
	00		 mov	 edx, DWORD PTR ?null_entity_pointer_message@@3PBDB ; null_entity_pointer_message
  00112	52		 push	 edx
  00113	e8 00 00 00 00	 call	 ?process_assert@@YGXPBD0H@Z ; process_assert
  00118	c7 45 b0 00 00
	00 00		 mov	 DWORD PTR tv138[ebp], 0
$LN24@response_t:
  0011f	b8 01 00 00 00	 mov	 eax, 1
  00124	85 c0		 test	 eax, eax
  00126	74 09		 je	 SHORT $LN25@response_t
  00128	c7 45 ac 59 00
	00 00		 mov	 DWORD PTR tv145[ebp], 89 ; 00000059H
  0012f	eb 1d		 jmp	 SHORT $LN26@response_t
$LN25@response_t:
  00131	68 89 03 00 00	 push	 905			; 00000389H
  00136	68 00 00 00 00	 push	 OFFSET ??_C@_0EE@DLIIEJCN@c?3?2users?2nhv90?2projects?2eech?2ap@
  0013b	8b 0d 00 00 00
	00		 mov	 ecx, DWORD PTR ?overload_invalid_int_type_message@@3PBDB ; overload_invalid_int_type_message
  00141	51		 push	 ecx
  00142	e8 00 00 00 00	 call	 ?process_assert@@YGXPBD0H@Z ; process_assert
  00147	c7 45 ac 00 00
	00 00		 mov	 DWORD PTR tv145[ebp], 0
$LN26@response_t:
  0014e	6a 59		 push	 89			; 00000059H
  00150	8b 55 f8	 mov	 edx, DWORD PTR _cargo$[ebp]
  00153	52		 push	 edx
  00154	69 45 b0 5c 04
	00 00		 imul	 eax, DWORD PTR tv138[ebp], 1116
  0015b	8b 4d ac	 mov	 ecx, DWORD PTR tv145[ebp]
  0015e	8b 94 88 00 00
	00 00		 mov	 edx, DWORD PTR ?fn_get_local_entity_int_value@@3PAY0BBH@P6GHPAUENTITY@@W4INT_TYPES@@@ZA[eax+ecx*4]
  00165	ff d2		 call	 edx
  00167	85 c0		 test	 eax, eax
  00169	0f 84 4f 05 00
	00		 je	 $LN8@response_t

; 906  : 		{
; 907  : 
; 908  : 			requester = get_local_entity_parent (sender, LIST_TYPE_TASK_DEPENDENT);

  0016f	83 7d 10 00	 cmp	 DWORD PTR _sender$[ebp], 0
  00173	74 0a		 je	 SHORT $LN27@response_t
  00175	8b 45 10	 mov	 eax, DWORD PTR _sender$[ebp]
  00178	8b 08		 mov	 ecx, DWORD PTR [eax]
  0017a	89 4d b0	 mov	 DWORD PTR tv158[ebp], ecx
  0017d	eb 21		 jmp	 SHORT $LN28@response_t
$LN27@response_t:
  0017f	8b 15 00 00 00
	00		 mov	 edx, DWORD PTR ?__LINE__Var@?0??response_to_waypoint_drop_off_reached@@YGHW4ENTITY_MESSAGES@@PAUENTITY@@1PAD@Z@4JA
  00185	83 c2 1c	 add	 edx, 28			; 0000001cH
  00188	52		 push	 edx
  00189	68 00 00 00 00	 push	 OFFSET ??_C@_0EE@DLIIEJCN@c?3?2users?2nhv90?2projects?2eech?2ap@
  0018e	a1 00 00 00 00	 mov	 eax, DWORD PTR ?null_entity_pointer_message@@3PBDB ; null_entity_pointer_message
  00193	50		 push	 eax
  00194	e8 00 00 00 00	 call	 ?process_assert@@YGXPBD0H@Z ; process_assert
  00199	c7 45 b0 00 00
	00 00		 mov	 DWORD PTR tv158[ebp], 0
$LN28@response_t:
  001a0	b9 01 00 00 00	 mov	 ecx, 1
  001a5	85 c9		 test	 ecx, ecx
  001a7	74 09		 je	 SHORT $LN29@response_t
  001a9	c7 45 ac 27 00
	00 00		 mov	 DWORD PTR tv166[ebp], 39 ; 00000027H
  001b0	eb 21		 jmp	 SHORT $LN30@response_t
$LN29@response_t:
  001b2	8b 15 00 00 00
	00		 mov	 edx, DWORD PTR ?__LINE__Var@?0??response_to_waypoint_drop_off_reached@@YGHW4ENTITY_MESSAGES@@PAUENTITY@@1PAD@Z@4JA
  001b8	83 c2 1c	 add	 edx, 28			; 0000001cH
  001bb	52		 push	 edx
  001bc	68 00 00 00 00	 push	 OFFSET ??_C@_0EE@DLIIEJCN@c?3?2users?2nhv90?2projects?2eech?2ap@
  001c1	a1 00 00 00 00	 mov	 eax, DWORD PTR ?overload_invalid_list_type_message@@3PBDB ; overload_invalid_list_type_message
  001c6	50		 push	 eax
  001c7	e8 00 00 00 00	 call	 ?process_assert@@YGXPBD0H@Z ; process_assert
  001cc	c7 45 ac 00 00
	00 00		 mov	 DWORD PTR tv166[ebp], 0
$LN30@response_t:
  001d3	6a 27		 push	 39			; 00000027H
  001d5	8b 4d 10	 mov	 ecx, DWORD PTR _sender$[ebp]
  001d8	51		 push	 ecx
  001d9	69 55 b0 b4 00
	00 00		 imul	 edx, DWORD PTR tv158[ebp], 180
  001e0	8b 45 ac	 mov	 eax, DWORD PTR tv166[ebp]
  001e3	8b 8c 82 00 00
	00 00		 mov	 ecx, DWORD PTR ?fn_get_local_entity_parent@@3PAY0CN@P6GPAUENTITY@@PAU1@W4LIST_TYPES@@@ZA[edx+eax*4]
  001ea	ff d1		 call	 ecx
  001ec	89 45 fc	 mov	 DWORD PTR _requester$[ebp], eax

; 909  : 
; 910  : 			if (requester)

  001ef	83 7d fc 00	 cmp	 DWORD PTR _requester$[ebp], 0
  001f3	0f 84 c5 04 00
	00		 je	 $LN8@response_t

; 911  : 			{
; 912  : 
; 913  : 				if (get_local_entity_type (requester) == ENTITY_TYPE_KEYSITE)

  001f9	83 7d fc 00	 cmp	 DWORD PTR _requester$[ebp], 0
  001fd	74 0a		 je	 SHORT $LN31@response_t
  001ff	8b 45 fc	 mov	 eax, DWORD PTR _requester$[ebp]
  00202	8b 08		 mov	 ecx, DWORD PTR [eax]
  00204	89 4d b0	 mov	 DWORD PTR tv178[ebp], ecx
  00207	eb 1d		 jmp	 SHORT $LN32@response_t
$LN31@response_t:
  00209	68 91 03 00 00	 push	 913			; 00000391H
  0020e	68 00 00 00 00	 push	 OFFSET ??_C@_0EE@DLIIEJCN@c?3?2users?2nhv90?2projects?2eech?2ap@
  00213	8b 15 00 00 00
	00		 mov	 edx, DWORD PTR ?null_entity_pointer_message@@3PBDB ; null_entity_pointer_message
  00219	52		 push	 edx
  0021a	e8 00 00 00 00	 call	 ?process_assert@@YGXPBD0H@Z ; process_assert
  0021f	c7 45 b0 00 00
	00 00		 mov	 DWORD PTR tv178[ebp], 0
$LN32@response_t:
  00226	83 7d b0 0f	 cmp	 DWORD PTR tv178[ebp], 15 ; 0000000fH
  0022a	75 4d		 jne	 SHORT $LN10@response_t

; 914  : 				{
; 915  : 	
; 916  : 					delete_local_entity_from_parents_child_list (cargo, LIST_TYPE_MOVEMENT_DEPENDENT);

  0022c	6a 1a		 push	 26			; 0000001aH
  0022e	8b 45 f8	 mov	 eax, DWORD PTR _cargo$[ebp]
  00231	50		 push	 eax
  00232	e8 00 00 00 00	 call	 ?delete_local_entity_from_parents_child_list@@YGXPAUENTITY@@W4LIST_TYPES@@@Z ; delete_local_entity_from_parents_child_list

; 917  : 	
; 918  : 					#if DEBUG_MODULE
; 919  : 	
; 920  : 					debug_log ("MB_MSGS: SUPPLY_INFO: removing cargo %s from %s movement_dependent list", entity_sub_type_cargo_names [get_local_entity_int_value (cargo, INT_TYPE_ENTITY_SUB_TYPE)], entity_type_names [get_local_entity_type (receiver)]);
; 921  : 	
; 922  : 					#endif
; 923  : 		
; 924  : 					insert_local_entity_into_parents_child_list (cargo, LIST_TYPE_CARGO, requester, NULL);

  00237	6a 00		 push	 0
  00239	8b 45 fc	 mov	 eax, DWORD PTR _requester$[ebp]
  0023c	50		 push	 eax
  0023d	6a 06		 push	 6
  0023f	8b 4d f8	 mov	 ecx, DWORD PTR _cargo$[ebp]
  00242	51		 push	 ecx
  00243	e8 00 00 00 00	 call	 ?insert_local_entity_into_parents_child_list@@YGXPAUENTITY@@W4LIST_TYPES@@00@Z ; insert_local_entity_into_parents_child_list

; 925  : 		
; 926  : 					notify_local_entity (ENTITY_MESSAGE_WAYPOINT_DROP_OFF_REACHED, requester, receiver, cargo);

  00248	8b 45 f8	 mov	 eax, DWORD PTR _cargo$[ebp]
  0024b	50		 push	 eax
  0024c	8b 4d 0c	 mov	 ecx, DWORD PTR _receiver$[ebp]
  0024f	51		 push	 ecx
  00250	8b 55 fc	 mov	 edx, DWORD PTR _requester$[ebp]
  00253	52		 push	 edx
  00254	6a 42		 push	 66			; 00000042H
  00256	e8 00 00 00 00	 call	 ?notify_local_entity@@YAHW4ENTITY_MESSAGES@@PAUENTITY@@1ZZ ; notify_local_entity
  0025b	83 c4 10	 add	 esp, 16			; 00000010H

; 927  : 		
; 928  : 					transmit_entity_comms_message (ENTITY_COMMS_SWITCH_LIST, cargo, LIST_TYPE_MOVEMENT_DEPENDENT, requester, LIST_TYPE_CARGO);

  0025e	6a 06		 push	 6
  00260	8b 45 fc	 mov	 eax, DWORD PTR _requester$[ebp]
  00263	50		 push	 eax
  00264	6a 1a		 push	 26			; 0000001aH
  00266	8b 4d f8	 mov	 ecx, DWORD PTR _cargo$[ebp]
  00269	51		 push	 ecx
  0026a	6a 38		 push	 56			; 00000038H
  0026c	e8 00 00 00 00	 call	 ?transmit_entity_comms_message@@YAXW4ENTITY_COMMS_MESSAGES@@PAUENTITY@@ZZ ; transmit_entity_comms_message
  00271	83 c4 14	 add	 esp, 20			; 00000014H

; 929  : 	
; 930  : 					#if DEBUG_MODULE || DEBUG_SUPPLY
; 931  : 		
; 932  : 					debug_log ("MB_MSGS: SUPPLY_INFO: Drop_Off reached... inserting cargo %s into %s cargo list", entity_sub_type_cargo_names [get_local_entity_int_value (cargo, INT_TYPE_ENTITY_SUB_TYPE)], get_local_entity_string (requester, STRING_TYPE_KEYSITE_NAME));
; 933  : 		
; 934  : 					#endif
; 935  : 				}
; 936  : 				else

  00274	e9 45 04 00 00	 jmp	 $LN15@response_t
$LN10@response_t:

; 937  : 				{
; 938  : 
; 939  : 					float
; 940  : 						level;
; 941  : 
; 942  : 					//
; 943  : 					// its a group
; 944  : 					//
; 945  : 
; 946  : 					ASSERT (get_local_entity_type (requester) == ENTITY_TYPE_GROUP);

  00279	83 7d fc 00	 cmp	 DWORD PTR _requester$[ebp], 0
  0027d	74 0a		 je	 SHORT $LN33@response_t
  0027f	8b 45 fc	 mov	 eax, DWORD PTR _requester$[ebp]
  00282	8b 08		 mov	 ecx, DWORD PTR [eax]
  00284	89 4d b0	 mov	 DWORD PTR tv201[ebp], ecx
  00287	eb 21		 jmp	 SHORT $LN34@response_t
$LN33@response_t:
  00289	8b 15 00 00 00
	00		 mov	 edx, DWORD PTR ?__LINE__Var@?0??response_to_waypoint_drop_off_reached@@YGHW4ENTITY_MESSAGES@@PAUENTITY@@1PAD@Z@4JA
  0028f	83 c2 42	 add	 edx, 66			; 00000042H
  00292	52		 push	 edx
  00293	68 00 00 00 00	 push	 OFFSET ??_C@_0EE@DLIIEJCN@c?3?2users?2nhv90?2projects?2eech?2ap@
  00298	a1 00 00 00 00	 mov	 eax, DWORD PTR ?null_entity_pointer_message@@3PBDB ; null_entity_pointer_message
  0029d	50		 push	 eax
  0029e	e8 00 00 00 00	 call	 ?process_assert@@YGXPBD0H@Z ; process_assert
  002a3	c7 45 b0 00 00
	00 00		 mov	 DWORD PTR tv201[ebp], 0
$LN34@response_t:
  002aa	83 7d b0 0c	 cmp	 DWORD PTR tv201[ebp], 12 ; 0000000cH
  002ae	74 18		 je	 SHORT $LN12@response_t
  002b0	a1 00 00 00 00	 mov	 eax, DWORD PTR ?__LINE__Var@?0??response_to_waypoint_drop_off_reached@@YGHW4ENTITY_MESSAGES@@PAUENTITY@@1PAD@Z@4JA
  002b5	83 c0 42	 add	 eax, 66			; 00000042H
  002b8	50		 push	 eax
  002b9	68 00 00 00 00	 push	 OFFSET ??_C@_0EE@DLIIEJCN@c?3?2users?2nhv90?2projects?2eech?2ap@
  002be	68 00 00 00 00	 push	 OFFSET ??_C@_0DH@LDJFNOEI@get_local_entity_type?5?$CIrequeste@
  002c3	e8 00 00 00 00	 call	 ?process_assert@@YGXPBD0H@Z ; process_assert
$LN12@response_t:

; 947  : 
; 948  : 					if (get_local_entity_int_value (cargo, INT_TYPE_ENTITY_SUB_TYPE) == ENTITY_SUB_TYPE_CARGO_AMMO)

  002c8	83 7d f8 00	 cmp	 DWORD PTR _cargo$[ebp], 0
  002cc	74 0a		 je	 SHORT $LN35@response_t
  002ce	8b 45 f8	 mov	 eax, DWORD PTR _cargo$[ebp]
  002d1	8b 08		 mov	 ecx, DWORD PTR [eax]
  002d3	89 4d b0	 mov	 DWORD PTR tv212[ebp], ecx
  002d6	eb 1d		 jmp	 SHORT $LN36@response_t
$LN35@response_t:
  002d8	68 b4 03 00 00	 push	 948			; 000003b4H
  002dd	68 00 00 00 00	 push	 OFFSET ??_C@_0EE@DLIIEJCN@c?3?2users?2nhv90?2projects?2eech?2ap@
  002e2	8b 15 00 00 00
	00		 mov	 edx, DWORD PTR ?null_entity_pointer_message@@3PBDB ; null_entity_pointer_message
  002e8	52		 push	 edx
  002e9	e8 00 00 00 00	 call	 ?process_assert@@YGXPBD0H@Z ; process_assert
  002ee	c7 45 b0 00 00
	00 00		 mov	 DWORD PTR tv212[ebp], 0
$LN36@response_t:
  002f5	b8 01 00 00 00	 mov	 eax, 1
  002fa	85 c0		 test	 eax, eax
  002fc	74 09		 je	 SHORT $LN37@response_t
  002fe	c7 45 ac 34 00
	00 00		 mov	 DWORD PTR tv219[ebp], 52 ; 00000034H
  00305	eb 1d		 jmp	 SHORT $LN38@response_t
$LN37@response_t:
  00307	68 b4 03 00 00	 push	 948			; 000003b4H
  0030c	68 00 00 00 00	 push	 OFFSET ??_C@_0EE@DLIIEJCN@c?3?2users?2nhv90?2projects?2eech?2ap@
  00311	8b 0d 00 00 00
	00		 mov	 ecx, DWORD PTR ?overload_invalid_int_type_message@@3PBDB ; overload_invalid_int_type_message
  00317	51		 push	 ecx
  00318	e8 00 00 00 00	 call	 ?process_assert@@YGXPBD0H@Z ; process_assert
  0031d	c7 45 ac 00 00
	00 00		 mov	 DWORD PTR tv219[ebp], 0
$LN38@response_t:
  00324	6a 34		 push	 52			; 00000034H
  00326	8b 55 f8	 mov	 edx, DWORD PTR _cargo$[ebp]
  00329	52		 push	 edx
  0032a	69 45 b0 5c 04
	00 00		 imul	 eax, DWORD PTR tv212[ebp], 1116
  00331	8b 4d ac	 mov	 ecx, DWORD PTR tv219[ebp]
  00334	8b 94 88 00 00
	00 00		 mov	 edx, DWORD PTR ?fn_get_local_entity_int_value@@3PAY0BBH@P6GHPAUENTITY@@W4INT_TYPES@@@ZA[eax+ecx*4]
  0033b	ff d2		 call	 edx
  0033d	85 c0		 test	 eax, eax
  0033f	0f 85 80 01 00
	00		 jne	 $LN13@response_t

; 949  : 					{
; 950  : 
; 951  : 						level = get_local_entity_float_value (requester, FLOAT_TYPE_AMMO_SUPPLY_LEVEL);

  00345	83 7d fc 00	 cmp	 DWORD PTR _requester$[ebp], 0
  00349	74 0a		 je	 SHORT $LN39@response_t
  0034b	8b 45 fc	 mov	 eax, DWORD PTR _requester$[ebp]
  0034e	8b 08		 mov	 ecx, DWORD PTR [eax]
  00350	89 4d b0	 mov	 DWORD PTR tv232[ebp], ecx
  00353	eb 21		 jmp	 SHORT $LN40@response_t
$LN39@response_t:
  00355	8b 15 00 00 00
	00		 mov	 edx, DWORD PTR ?__LINE__Var@?0??response_to_waypoint_drop_off_reached@@YGHW4ENTITY_MESSAGES@@PAUENTITY@@1PAD@Z@4JA
  0035b	83 c2 47	 add	 edx, 71			; 00000047H
  0035e	52		 push	 edx
  0035f	68 00 00 00 00	 push	 OFFSET ??_C@_0EE@DLIIEJCN@c?3?2users?2nhv90?2projects?2eech?2ap@
  00364	a1 00 00 00 00	 mov	 eax, DWORD PTR ?null_entity_pointer_message@@3PBDB ; null_entity_pointer_message
  00369	50		 push	 eax
  0036a	e8 00 00 00 00	 call	 ?process_assert@@YGXPBD0H@Z ; process_assert
  0036f	c7 45 b0 00 00
	00 00		 mov	 DWORD PTR tv232[ebp], 0
$LN40@response_t:
  00376	b9 01 00 00 00	 mov	 ecx, 1
  0037b	85 c9		 test	 ecx, ecx
  0037d	74 09		 je	 SHORT $LN41@response_t
  0037f	c7 45 ac 08 00
	00 00		 mov	 DWORD PTR tv240[ebp], 8
  00386	eb 21		 jmp	 SHORT $LN42@response_t
$LN41@response_t:
  00388	8b 15 00 00 00
	00		 mov	 edx, DWORD PTR ?__LINE__Var@?0??response_to_waypoint_drop_off_reached@@YGHW4ENTITY_MESSAGES@@PAUENTITY@@1PAD@Z@4JA
  0038e	83 c2 47	 add	 edx, 71			; 00000047H
  00391	52		 push	 edx
  00392	68 00 00 00 00	 push	 OFFSET ??_C@_0EE@DLIIEJCN@c?3?2users?2nhv90?2projects?2eech?2ap@
  00397	a1 00 00 00 00	 mov	 eax, DWORD PTR ?overload_invalid_float_type_message@@3PBDB ; overload_invalid_float_type_message
  0039c	50		 push	 eax
  0039d	e8 00 00 00 00	 call	 ?process_assert@@YGXPBD0H@Z ; process_assert
  003a2	c7 45 ac 00 00
	00 00		 mov	 DWORD PTR tv240[ebp], 0
$LN42@response_t:
  003a9	6a 08		 push	 8
  003ab	8b 4d fc	 mov	 ecx, DWORD PTR _requester$[ebp]
  003ae	51		 push	 ecx
  003af	69 55 b0 bc 02
	00 00		 imul	 edx, DWORD PTR tv232[ebp], 700
  003b6	8b 45 ac	 mov	 eax, DWORD PTR tv240[ebp]
  003b9	8b 8c 82 00 00
	00 00		 mov	 ecx, DWORD PTR ?fn_get_local_entity_float_value@@3PAY0KP@P6GMPAUENTITY@@W4FLOAT_TYPES@@@ZA[edx+eax*4]
  003c0	ff d1		 call	 ecx
  003c2	d9 5d f4	 fstp	 DWORD PTR _level$1[ebp]

; 952  : 
; 953  : 						level += (KEYSITE_MINIMUM_AMMO_SUPPLY_LEVEL * AMMO_RESTOCK_ACCELERATOR);

  003c5	f3 0f 5a 45 f4	 cvtss2sd xmm0, DWORD PTR _level$1[ebp]
  003ca	f2 0f 58 05 00
	00 00 00	 addsd	 xmm0, QWORD PTR __real@408f400000000000
  003d2	f2 0f 5a c0	 cvtsd2ss xmm0, xmm0
  003d6	f3 0f 11 45 f4	 movss	 DWORD PTR _level$1[ebp], xmm0

; 954  : 
; 955  : 						level = bound (level, 0.0, 100.0);

  003db	f3 0f 5a 45 f4	 cvtss2sd xmm0, DWORD PTR _level$1[ebp]
  003e0	0f 57 c9	 xorps	 xmm1, xmm1
  003e3	66 0f 2f c8	 comisd	 xmm1, xmm0
  003e7	76 0a		 jbe	 SHORT $LN45@response_t
  003e9	0f 57 c0	 xorps	 xmm0, xmm0
  003ec	f2 0f 11 45 ac	 movsd	 QWORD PTR tv255[ebp], xmm0
  003f1	eb 32		 jmp	 SHORT $LN46@response_t
$LN45@response_t:
  003f3	f3 0f 5a 45 f4	 cvtss2sd xmm0, DWORD PTR _level$1[ebp]
  003f8	66 0f 2f 05 00
	00 00 00	 comisd	 xmm0, QWORD PTR __real@4059000000000000
  00400	76 0f		 jbe	 SHORT $LN43@response_t
  00402	f2 0f 10 05 00
	00 00 00	 movsd	 xmm0, QWORD PTR __real@4059000000000000
  0040a	f2 0f 11 45 a4	 movsd	 QWORD PTR tv254[ebp], xmm0
  0040f	eb 0a		 jmp	 SHORT $LN44@response_t
$LN43@response_t:
  00411	f3 0f 5a 45 f4	 cvtss2sd xmm0, DWORD PTR _level$1[ebp]
  00416	f2 0f 11 45 a4	 movsd	 QWORD PTR tv254[ebp], xmm0
$LN44@response_t:
  0041b	f2 0f 10 45 a4	 movsd	 xmm0, QWORD PTR tv254[ebp]
  00420	f2 0f 11 45 ac	 movsd	 QWORD PTR tv255[ebp], xmm0
$LN46@response_t:
  00425	f2 0f 5a 45 ac	 cvtsd2ss xmm0, QWORD PTR tv255[ebp]
  0042a	f3 0f 11 45 f4	 movss	 DWORD PTR _level$1[ebp], xmm0

; 956  : 
; 957  : 						set_client_server_entity_float_value (requester, FLOAT_TYPE_AMMO_SUPPLY_LEVEL, level);

  0042f	83 7d fc 00	 cmp	 DWORD PTR _requester$[ebp], 0
  00433	74 0a		 je	 SHORT $LN47@response_t
  00435	8b 45 fc	 mov	 eax, DWORD PTR _requester$[ebp]
  00438	8b 08		 mov	 ecx, DWORD PTR [eax]
  0043a	89 4d b0	 mov	 DWORD PTR tv263[ebp], ecx
  0043d	eb 21		 jmp	 SHORT $LN48@response_t
$LN47@response_t:
  0043f	8b 15 00 00 00
	00		 mov	 edx, DWORD PTR ?__LINE__Var@?0??response_to_waypoint_drop_off_reached@@YGHW4ENTITY_MESSAGES@@PAUENTITY@@1PAD@Z@4JA
  00445	83 c2 4d	 add	 edx, 77			; 0000004dH
  00448	52		 push	 edx
  00449	68 00 00 00 00	 push	 OFFSET ??_C@_0EE@DLIIEJCN@c?3?2users?2nhv90?2projects?2eech?2ap@
  0044e	a1 00 00 00 00	 mov	 eax, DWORD PTR ?null_entity_pointer_message@@3PBDB ; null_entity_pointer_message
  00453	50		 push	 eax
  00454	e8 00 00 00 00	 call	 ?process_assert@@YGXPBD0H@Z ; process_assert
  00459	c7 45 b0 00 00
	00 00		 mov	 DWORD PTR tv263[ebp], 0
$LN48@response_t:
  00460	b9 01 00 00 00	 mov	 ecx, 1
  00465	85 c9		 test	 ecx, ecx
  00467	74 09		 je	 SHORT $LN49@response_t
  00469	c7 45 ac 08 00
	00 00		 mov	 DWORD PTR tv271[ebp], 8
  00470	eb 21		 jmp	 SHORT $LN50@response_t
$LN49@response_t:
  00472	8b 15 00 00 00
	00		 mov	 edx, DWORD PTR ?__LINE__Var@?0??response_to_waypoint_drop_off_reached@@YGHW4ENTITY_MESSAGES@@PAUENTITY@@1PAD@Z@4JA
  00478	83 c2 4d	 add	 edx, 77			; 0000004dH
  0047b	52		 push	 edx
  0047c	68 00 00 00 00	 push	 OFFSET ??_C@_0EE@DLIIEJCN@c?3?2users?2nhv90?2projects?2eech?2ap@
  00481	a1 00 00 00 00	 mov	 eax, DWORD PTR ?overload_invalid_float_type_message@@3PBDB ; overload_invalid_float_type_message
  00486	50		 push	 eax
  00487	e8 00 00 00 00	 call	 ?process_assert@@YGXPBD0H@Z ; process_assert
  0048c	c7 45 ac 00 00
	00 00		 mov	 DWORD PTR tv271[ebp], 0
$LN50@response_t:
  00493	51		 push	 ecx
  00494	f3 0f 10 45 f4	 movss	 xmm0, DWORD PTR _level$1[ebp]
  00499	f3 0f 11 04 24	 movss	 DWORD PTR [esp], xmm0
  0049e	6a 08		 push	 8
  004a0	8b 4d fc	 mov	 ecx, DWORD PTR _requester$[ebp]
  004a3	51		 push	 ecx
  004a4	69 55 b0 78 05
	00 00		 imul	 edx, DWORD PTR tv263[ebp], 1400
  004ab	8b 45 ac	 mov	 eax, DWORD PTR tv271[ebp]
  004ae	8d 8c c2 00 00
	00 00		 lea	 ecx, DWORD PTR ?fn_set_client_server_entity_float_value@@3PAY1KP@1P6GXPAUENTITY@@W4FLOAT_TYPES@@M@ZA[edx+eax*8]
  004b5	8b 15 00 00 00
	00		 mov	 edx, DWORD PTR ?system_comms_model@@3W4COMMS_MODEL_TYPES@@A ; system_comms_model
  004bb	8b 04 91	 mov	 eax, DWORD PTR [ecx+edx*4]
  004be	ff d0		 call	 eax
  004c0	e9 f9 01 00 00	 jmp	 $LN15@response_t
$LN13@response_t:

; 958  : 		
; 959  : 						#if DEBUG_MODULE || DEBUG_SUPPLY
; 960  : 
; 961  : 						debug_log ("MB_MSGS: SUPPLY_INFO: Drop_Off reached... increasing group ammo to %f", level);
; 962  : 
; 963  : 						#endif
; 964  : 					}
; 965  : 					else if (get_local_entity_int_value (cargo, INT_TYPE_ENTITY_SUB_TYPE) == ENTITY_SUB_TYPE_CARGO_FUEL)

  004c5	83 7d f8 00	 cmp	 DWORD PTR _cargo$[ebp], 0
  004c9	74 0a		 je	 SHORT $LN51@response_t
  004cb	8b 45 f8	 mov	 eax, DWORD PTR _cargo$[ebp]
  004ce	8b 08		 mov	 ecx, DWORD PTR [eax]
  004d0	89 4d b0	 mov	 DWORD PTR tv284[ebp], ecx
  004d3	eb 1d		 jmp	 SHORT $LN52@response_t
$LN51@response_t:
  004d5	68 c5 03 00 00	 push	 965			; 000003c5H
  004da	68 00 00 00 00	 push	 OFFSET ??_C@_0EE@DLIIEJCN@c?3?2users?2nhv90?2projects?2eech?2ap@
  004df	8b 15 00 00 00
	00		 mov	 edx, DWORD PTR ?null_entity_pointer_message@@3PBDB ; null_entity_pointer_message
  004e5	52		 push	 edx
  004e6	e8 00 00 00 00	 call	 ?process_assert@@YGXPBD0H@Z ; process_assert
  004eb	c7 45 b0 00 00
	00 00		 mov	 DWORD PTR tv284[ebp], 0
$LN52@response_t:
  004f2	b8 01 00 00 00	 mov	 eax, 1
  004f7	85 c0		 test	 eax, eax
  004f9	74 09		 je	 SHORT $LN53@response_t
  004fb	c7 45 ac 34 00
	00 00		 mov	 DWORD PTR tv291[ebp], 52 ; 00000034H
  00502	eb 1d		 jmp	 SHORT $LN54@response_t
$LN53@response_t:
  00504	68 c5 03 00 00	 push	 965			; 000003c5H
  00509	68 00 00 00 00	 push	 OFFSET ??_C@_0EE@DLIIEJCN@c?3?2users?2nhv90?2projects?2eech?2ap@
  0050e	8b 0d 00 00 00
	00		 mov	 ecx, DWORD PTR ?overload_invalid_int_type_message@@3PBDB ; overload_invalid_int_type_message
  00514	51		 push	 ecx
  00515	e8 00 00 00 00	 call	 ?process_assert@@YGXPBD0H@Z ; process_assert
  0051a	c7 45 ac 00 00
	00 00		 mov	 DWORD PTR tv291[ebp], 0
$LN54@response_t:
  00521	6a 34		 push	 52			; 00000034H
  00523	8b 55 f8	 mov	 edx, DWORD PTR _cargo$[ebp]
  00526	52		 push	 edx
  00527	69 45 b0 5c 04
	00 00		 imul	 eax, DWORD PTR tv284[ebp], 1116
  0052e	8b 4d ac	 mov	 ecx, DWORD PTR tv291[ebp]
  00531	8b 94 88 00 00
	00 00		 mov	 edx, DWORD PTR ?fn_get_local_entity_int_value@@3PAY0BBH@P6GHPAUENTITY@@W4INT_TYPES@@@ZA[eax+ecx*4]
  00538	ff d2		 call	 edx
  0053a	83 f8 01	 cmp	 eax, 1
  0053d	0f 85 7b 01 00
	00		 jne	 $LN15@response_t

; 966  : 					{
; 967  : 
; 968  : 						level = get_local_entity_float_value (requester, FLOAT_TYPE_FUEL_SUPPLY_LEVEL);

  00543	83 7d fc 00	 cmp	 DWORD PTR _requester$[ebp], 0
  00547	74 0a		 je	 SHORT $LN55@response_t
  00549	8b 45 fc	 mov	 eax, DWORD PTR _requester$[ebp]
  0054c	8b 08		 mov	 ecx, DWORD PTR [eax]
  0054e	89 4d b0	 mov	 DWORD PTR tv304[ebp], ecx
  00551	eb 21		 jmp	 SHORT $LN56@response_t
$LN55@response_t:
  00553	8b 15 00 00 00
	00		 mov	 edx, DWORD PTR ?__LINE__Var@?0??response_to_waypoint_drop_off_reached@@YGHW4ENTITY_MESSAGES@@PAUENTITY@@1PAD@Z@4JA
  00559	83 c2 58	 add	 edx, 88			; 00000058H
  0055c	52		 push	 edx
  0055d	68 00 00 00 00	 push	 OFFSET ??_C@_0EE@DLIIEJCN@c?3?2users?2nhv90?2projects?2eech?2ap@
  00562	a1 00 00 00 00	 mov	 eax, DWORD PTR ?null_entity_pointer_message@@3PBDB ; null_entity_pointer_message
  00567	50		 push	 eax
  00568	e8 00 00 00 00	 call	 ?process_assert@@YGXPBD0H@Z ; process_assert
  0056d	c7 45 b0 00 00
	00 00		 mov	 DWORD PTR tv304[ebp], 0
$LN56@response_t:
  00574	b9 01 00 00 00	 mov	 ecx, 1
  00579	85 c9		 test	 ecx, ecx
  0057b	74 09		 je	 SHORT $LN57@response_t
  0057d	c7 45 ac 30 00
	00 00		 mov	 DWORD PTR tv312[ebp], 48 ; 00000030H
  00584	eb 21		 jmp	 SHORT $LN58@response_t
$LN57@response_t:
  00586	8b 15 00 00 00
	00		 mov	 edx, DWORD PTR ?__LINE__Var@?0??response_to_waypoint_drop_off_reached@@YGHW4ENTITY_MESSAGES@@PAUENTITY@@1PAD@Z@4JA
  0058c	83 c2 58	 add	 edx, 88			; 00000058H
  0058f	52		 push	 edx
  00590	68 00 00 00 00	 push	 OFFSET ??_C@_0EE@DLIIEJCN@c?3?2users?2nhv90?2projects?2eech?2ap@
  00595	a1 00 00 00 00	 mov	 eax, DWORD PTR ?overload_invalid_float_type_message@@3PBDB ; overload_invalid_float_type_message
  0059a	50		 push	 eax
  0059b	e8 00 00 00 00	 call	 ?process_assert@@YGXPBD0H@Z ; process_assert
  005a0	c7 45 ac 00 00
	00 00		 mov	 DWORD PTR tv312[ebp], 0
$LN58@response_t:
  005a7	6a 30		 push	 48			; 00000030H
  005a9	8b 4d fc	 mov	 ecx, DWORD PTR _requester$[ebp]
  005ac	51		 push	 ecx
  005ad	69 55 b0 bc 02
	00 00		 imul	 edx, DWORD PTR tv304[ebp], 700
  005b4	8b 45 ac	 mov	 eax, DWORD PTR tv312[ebp]
  005b7	8b 8c 82 00 00
	00 00		 mov	 ecx, DWORD PTR ?fn_get_local_entity_float_value@@3PAY0KP@P6GMPAUENTITY@@W4FLOAT_TYPES@@@ZA[edx+eax*4]
  005be	ff d1		 call	 ecx
  005c0	d9 5d f4	 fstp	 DWORD PTR _level$1[ebp]

; 969  : 
; 970  : 						level += (KEYSITE_MINIMUM_FUEL_SUPPLY_LEVEL * FUEL_RESTOCK_ACCELERATOR);

  005c3	f3 0f 5a 45 f4	 cvtss2sd xmm0, DWORD PTR _level$1[ebp]
  005c8	f2 0f 58 05 00
	00 00 00	 addsd	 xmm0, QWORD PTR __real@408f400000000000
  005d0	f2 0f 5a c0	 cvtsd2ss xmm0, xmm0
  005d4	f3 0f 11 45 f4	 movss	 DWORD PTR _level$1[ebp], xmm0

; 971  : 
; 972  : 						level = bound (level, 0.0, 100.0);

  005d9	f3 0f 5a 45 f4	 cvtss2sd xmm0, DWORD PTR _level$1[ebp]
  005de	0f 57 c9	 xorps	 xmm1, xmm1
  005e1	66 0f 2f c8	 comisd	 xmm1, xmm0
  005e5	76 0a		 jbe	 SHORT $LN61@response_t
  005e7	0f 57 c0	 xorps	 xmm0, xmm0
  005ea	f2 0f 11 45 ac	 movsd	 QWORD PTR tv327[ebp], xmm0
  005ef	eb 32		 jmp	 SHORT $LN62@response_t
$LN61@response_t:
  005f1	f3 0f 5a 45 f4	 cvtss2sd xmm0, DWORD PTR _level$1[ebp]
  005f6	66 0f 2f 05 00
	00 00 00	 comisd	 xmm0, QWORD PTR __real@4059000000000000
  005fe	76 0f		 jbe	 SHORT $LN59@response_t
  00600	f2 0f 10 05 00
	00 00 00	 movsd	 xmm0, QWORD PTR __real@4059000000000000
  00608	f2 0f 11 45 a4	 movsd	 QWORD PTR tv326[ebp], xmm0
  0060d	eb 0a		 jmp	 SHORT $LN60@response_t
$LN59@response_t:
  0060f	f3 0f 5a 45 f4	 cvtss2sd xmm0, DWORD PTR _level$1[ebp]
  00614	f2 0f 11 45 a4	 movsd	 QWORD PTR tv326[ebp], xmm0
$LN60@response_t:
  00619	f2 0f 10 45 a4	 movsd	 xmm0, QWORD PTR tv326[ebp]
  0061e	f2 0f 11 45 ac	 movsd	 QWORD PTR tv327[ebp], xmm0
$LN62@response_t:
  00623	f2 0f 5a 45 ac	 cvtsd2ss xmm0, QWORD PTR tv327[ebp]
  00628	f3 0f 11 45 f4	 movss	 DWORD PTR _level$1[ebp], xmm0

; 973  : 
; 974  : 						set_client_server_entity_float_value (requester, FLOAT_TYPE_FUEL_SUPPLY_LEVEL, level);

  0062d	83 7d fc 00	 cmp	 DWORD PTR _requester$[ebp], 0
  00631	74 0a		 je	 SHORT $LN63@response_t
  00633	8b 45 fc	 mov	 eax, DWORD PTR _requester$[ebp]
  00636	8b 08		 mov	 ecx, DWORD PTR [eax]
  00638	89 4d b0	 mov	 DWORD PTR tv335[ebp], ecx
  0063b	eb 21		 jmp	 SHORT $LN64@response_t
$LN63@response_t:
  0063d	8b 15 00 00 00
	00		 mov	 edx, DWORD PTR ?__LINE__Var@?0??response_to_waypoint_drop_off_reached@@YGHW4ENTITY_MESSAGES@@PAUENTITY@@1PAD@Z@4JA
  00643	83 c2 5e	 add	 edx, 94			; 0000005eH
  00646	52		 push	 edx
  00647	68 00 00 00 00	 push	 OFFSET ??_C@_0EE@DLIIEJCN@c?3?2users?2nhv90?2projects?2eech?2ap@
  0064c	a1 00 00 00 00	 mov	 eax, DWORD PTR ?null_entity_pointer_message@@3PBDB ; null_entity_pointer_message
  00651	50		 push	 eax
  00652	e8 00 00 00 00	 call	 ?process_assert@@YGXPBD0H@Z ; process_assert
  00657	c7 45 b0 00 00
	00 00		 mov	 DWORD PTR tv335[ebp], 0
$LN64@response_t:
  0065e	b9 01 00 00 00	 mov	 ecx, 1
  00663	85 c9		 test	 ecx, ecx
  00665	74 09		 je	 SHORT $LN65@response_t
  00667	c7 45 ac 30 00
	00 00		 mov	 DWORD PTR tv343[ebp], 48 ; 00000030H
  0066e	eb 21		 jmp	 SHORT $LN66@response_t
$LN65@response_t:
  00670	8b 15 00 00 00
	00		 mov	 edx, DWORD PTR ?__LINE__Var@?0??response_to_waypoint_drop_off_reached@@YGHW4ENTITY_MESSAGES@@PAUENTITY@@1PAD@Z@4JA
  00676	83 c2 5e	 add	 edx, 94			; 0000005eH
  00679	52		 push	 edx
  0067a	68 00 00 00 00	 push	 OFFSET ??_C@_0EE@DLIIEJCN@c?3?2users?2nhv90?2projects?2eech?2ap@
  0067f	a1 00 00 00 00	 mov	 eax, DWORD PTR ?overload_invalid_float_type_message@@3PBDB ; overload_invalid_float_type_message
  00684	50		 push	 eax
  00685	e8 00 00 00 00	 call	 ?process_assert@@YGXPBD0H@Z ; process_assert
  0068a	c7 45 ac 00 00
	00 00		 mov	 DWORD PTR tv343[ebp], 0
$LN66@response_t:
  00691	51		 push	 ecx
  00692	f3 0f 10 45 f4	 movss	 xmm0, DWORD PTR _level$1[ebp]
  00697	f3 0f 11 04 24	 movss	 DWORD PTR [esp], xmm0
  0069c	6a 30		 push	 48			; 00000030H
  0069e	8b 4d fc	 mov	 ecx, DWORD PTR _requester$[ebp]
  006a1	51		 push	 ecx
  006a2	69 55 b0 78 05
	00 00		 imul	 edx, DWORD PTR tv335[ebp], 1400
  006a9	8b 45 ac	 mov	 eax, DWORD PTR tv343[ebp]
  006ac	8d 8c c2 00 00
	00 00		 lea	 ecx, DWORD PTR ?fn_set_client_server_entity_float_value@@3PAY1KP@1P6GXPAUENTITY@@W4FLOAT_TYPES@@M@ZA[edx+eax*8]
  006b3	8b 15 00 00 00
	00		 mov	 edx, DWORD PTR ?system_comms_model@@3W4COMMS_MODEL_TYPES@@A ; system_comms_model
  006b9	8b 04 91	 mov	 eax, DWORD PTR [ecx+edx*4]
  006bc	ff d0		 call	 eax
$LN15@response_t:
$LN8@response_t:

; 975  : 		
; 976  : 						#if DEBUG_MODULE || DEBUG_SUPPLY
; 977  : 
; 978  : 						debug_log ("MB_MSGS: SUPPLY_INFO: Drop_Off reached... increasing group fuel to %f", level);
; 979  : 
; 980  : 						#endif
; 981  : 					}
; 982  : 					else
; 983  : 					{
; 984  : 		
; 985  : 						#if DEBUG_MODULE || DEBUG_SUPPLY
; 986  : 			
; 987  : 						debug_log ("MB_MSGS: SUPPLY_INFO: invalid cargo type for group");
; 988  : 			
; 989  : 						#endif
; 990  : 					}
; 991  : 				}
; 992  : 			}
; 993  : 			else
; 994  : 			{
; 995  : 
; 996  : 				#if DEBUG_MODULE || DEBUG_SUPPLY
; 997  : 
; 998  : 				debug_log ("MB_MSGS: SUPPLY_INFO: Reached Dropoff but no keysite to deliever to.");
; 999  : 
; 1000 : 				#endif
; 1001 : 			}
; 1002 : 		}
; 1003 : 
; 1004 : 		cargo = get_local_entity_child_succ (cargo, LIST_TYPE_MOVEMENT_DEPENDENT);

  006be	83 7d f8 00	 cmp	 DWORD PTR _cargo$[ebp], 0
  006c2	74 0a		 je	 SHORT $LN67@response_t
  006c4	8b 45 f8	 mov	 eax, DWORD PTR _cargo$[ebp]
  006c7	8b 08		 mov	 ecx, DWORD PTR [eax]
  006c9	89 4d b0	 mov	 DWORD PTR tv357[ebp], ecx
  006cc	eb 21		 jmp	 SHORT $LN68@response_t
$LN67@response_t:
  006ce	8b 15 00 00 00
	00		 mov	 edx, DWORD PTR ?__LINE__Var@?0??response_to_waypoint_drop_off_reached@@YGHW4ENTITY_MESSAGES@@PAUENTITY@@1PAD@Z@4JA
  006d4	83 c2 7c	 add	 edx, 124		; 0000007cH
  006d7	52		 push	 edx
  006d8	68 00 00 00 00	 push	 OFFSET ??_C@_0EE@DLIIEJCN@c?3?2users?2nhv90?2projects?2eech?2ap@
  006dd	a1 00 00 00 00	 mov	 eax, DWORD PTR ?null_entity_pointer_message@@3PBDB ; null_entity_pointer_message
  006e2	50		 push	 eax
  006e3	e8 00 00 00 00	 call	 ?process_assert@@YGXPBD0H@Z ; process_assert
  006e8	c7 45 b0 00 00
	00 00		 mov	 DWORD PTR tv357[ebp], 0
$LN68@response_t:
  006ef	b9 01 00 00 00	 mov	 ecx, 1
  006f4	85 c9		 test	 ecx, ecx
  006f6	74 09		 je	 SHORT $LN69@response_t
  006f8	c7 45 ac 1a 00
	00 00		 mov	 DWORD PTR tv365[ebp], 26 ; 0000001aH
  006ff	eb 21		 jmp	 SHORT $LN70@response_t
$LN69@response_t:
  00701	8b 15 00 00 00
	00		 mov	 edx, DWORD PTR ?__LINE__Var@?0??response_to_waypoint_drop_off_reached@@YGHW4ENTITY_MESSAGES@@PAUENTITY@@1PAD@Z@4JA
  00707	83 c2 7c	 add	 edx, 124		; 0000007cH
  0070a	52		 push	 edx
  0070b	68 00 00 00 00	 push	 OFFSET ??_C@_0EE@DLIIEJCN@c?3?2users?2nhv90?2projects?2eech?2ap@
  00710	a1 00 00 00 00	 mov	 eax, DWORD PTR ?overload_invalid_list_type_message@@3PBDB ; overload_invalid_list_type_message
  00715	50		 push	 eax
  00716	e8 00 00 00 00	 call	 ?process_assert@@YGXPBD0H@Z ; process_assert
  0071b	c7 45 ac 00 00
	00 00		 mov	 DWORD PTR tv365[ebp], 0
$LN70@response_t:
  00722	6a 1a		 push	 26			; 0000001aH
  00724	8b 4d f8	 mov	 ecx, DWORD PTR _cargo$[ebp]
  00727	51		 push	 ecx
  00728	69 55 b0 b4 00
	00 00		 imul	 edx, DWORD PTR tv357[ebp], 180
  0072f	8b 45 ac	 mov	 eax, DWORD PTR tv365[ebp]
  00732	8b 8c 82 00 00
	00 00		 mov	 ecx, DWORD PTR ?fn_get_local_entity_child_succ@@3PAY0CN@P6GPAUENTITY@@PAU1@W4LIST_TYPES@@@ZA[edx+eax*4]
  00739	ff d1		 call	 ecx
  0073b	89 45 f8	 mov	 DWORD PTR _cargo$[ebp], eax

; 1005 : 	}

  0073e	e9 a5 f9 ff ff	 jmp	 $LN2@response_t
$LN3@response_t:

; 1006 : /*
; 1007 : 	//
; 1008 : 	// try to fire off the cargo
; 1009 : 	//
; 1010 : 
; 1011 : 	group = get_local_entity_parent (receiver, LIST_TYPE_MEMBER);
; 1012 : 
; 1013 : 	mb = get_local_entity_first_child (group, LIST_TYPE_MEMBER);
; 1014 : 
; 1015 : 	while (mb)
; 1016 : 	{
; 1017 : 	
; 1018 : 		if (get_local_entity_int_value (mb, INT_TYPE_SELECTED_WEAPON) == ENTITY_SUB_TYPE_WEAPON_CRATE)
; 1019 : 		{
; 1020 : 	
; 1021 : 			if (aircraft_fire_weapon (mb, AIRCRAFT_FIRE_WEAPON_SYSTEM_NOT_READY) == AIRCRAFT_FIRE_WEAPON_SYSTEM_NOT_READY)
; 1022 : 			{
; 1023 : 	
; 1024 : 				//
; 1025 : 				// go round again
; 1026 : 				//
; 1027 : 
; 1028 : 				#if DEBUG_MODULE
; 1029 : 
; 1030 : 				debug_log ("MB_MSGS: SUPPLY_INFO: aircraft not ready to drop crates");
; 1031 : 
; 1032 : 				#endif
; 1033 : 			}
; 1034 : 			else
; 1035 : 			{
; 1036 : 
; 1037 : 				#if DEBUG_MODULE
; 1038 : 
; 1039 : 				debug_log ("MB_MSGS: SUPPLY_INFO: aircraft dropping crate");
; 1040 : 
; 1041 : 				#endif
; 1042 : 			}
; 1043 : 		}
; 1044 : 
; 1045 : 		close_client_server_entity_cargo_doors (mb);
; 1046 : 	
; 1047 : 		mb = get_local_entity_child_succ (mb, LIST_TYPE_MEMBER);
; 1048 : 	}
; 1049 : */
; 1050 : 	//
; 1051 : 	//
; 1052 : 	//
; 1053 : 
; 1054 : 	if (get_local_entity_int_value (receiver, INT_TYPE_OPERATIONAL_STATE) != OPERATIONAL_STATE_NAVIGATING)

  00743	83 7d 0c 00	 cmp	 DWORD PTR _receiver$[ebp], 0
  00747	74 0a		 je	 SHORT $LN71@response_t
  00749	8b 45 0c	 mov	 eax, DWORD PTR _receiver$[ebp]
  0074c	8b 08		 mov	 ecx, DWORD PTR [eax]
  0074e	89 4d b0	 mov	 DWORD PTR tv376[ebp], ecx
  00751	eb 1d		 jmp	 SHORT $LN72@response_t
$LN71@response_t:
  00753	68 1e 04 00 00	 push	 1054			; 0000041eH
  00758	68 00 00 00 00	 push	 OFFSET ??_C@_0EE@DLIIEJCN@c?3?2users?2nhv90?2projects?2eech?2ap@
  0075d	8b 15 00 00 00
	00		 mov	 edx, DWORD PTR ?null_entity_pointer_message@@3PBDB ; null_entity_pointer_message
  00763	52		 push	 edx
  00764	e8 00 00 00 00	 call	 ?process_assert@@YGXPBD0H@Z ; process_assert
  00769	c7 45 b0 00 00
	00 00		 mov	 DWORD PTR tv376[ebp], 0
$LN72@response_t:
  00770	b8 01 00 00 00	 mov	 eax, 1
  00775	85 c0		 test	 eax, eax
  00777	74 09		 je	 SHORT $LN73@response_t
  00779	c7 45 ac 97 00
	00 00		 mov	 DWORD PTR tv383[ebp], 151 ; 00000097H
  00780	eb 1d		 jmp	 SHORT $LN74@response_t
$LN73@response_t:
  00782	68 1e 04 00 00	 push	 1054			; 0000041eH
  00787	68 00 00 00 00	 push	 OFFSET ??_C@_0EE@DLIIEJCN@c?3?2users?2nhv90?2projects?2eech?2ap@
  0078c	8b 0d 00 00 00
	00		 mov	 ecx, DWORD PTR ?overload_invalid_int_type_message@@3PBDB ; overload_invalid_int_type_message
  00792	51		 push	 ecx
  00793	e8 00 00 00 00	 call	 ?process_assert@@YGXPBD0H@Z ; process_assert
  00798	c7 45 ac 00 00
	00 00		 mov	 DWORD PTR tv383[ebp], 0
$LN74@response_t:
  0079f	68 97 00 00 00	 push	 151			; 00000097H
  007a4	8b 55 0c	 mov	 edx, DWORD PTR _receiver$[ebp]
  007a7	52		 push	 edx
  007a8	69 45 b0 5c 04
	00 00		 imul	 eax, DWORD PTR tv376[ebp], 1116
  007af	8b 4d ac	 mov	 ecx, DWORD PTR tv383[ebp]
  007b2	8b 94 88 00 00
	00 00		 mov	 edx, DWORD PTR ?fn_get_local_entity_int_value@@3PAY0BBH@P6GHPAUENTITY@@W4INT_TYPES@@@ZA[eax+ecx*4]
  007b9	ff d2		 call	 edx
  007bb	83 f8 07	 cmp	 eax, 7
  007be	0f 84 91 00 00
	00		 je	 $LN17@response_t

; 1055 : 	{
; 1056 : 
; 1057 : 		set_client_server_entity_int_value (receiver, INT_TYPE_OPERATIONAL_STATE, OPERATIONAL_STATE_NAVIGATING);

  007c4	83 7d 0c 00	 cmp	 DWORD PTR _receiver$[ebp], 0
  007c8	74 0a		 je	 SHORT $LN75@response_t
  007ca	8b 45 0c	 mov	 eax, DWORD PTR _receiver$[ebp]
  007cd	8b 08		 mov	 ecx, DWORD PTR [eax]
  007cf	89 4d b0	 mov	 DWORD PTR tv396[ebp], ecx
  007d2	eb 24		 jmp	 SHORT $LN76@response_t
$LN75@response_t:
  007d4	8b 15 00 00 00
	00		 mov	 edx, DWORD PTR ?__LINE__Var@?0??response_to_waypoint_drop_off_reached@@YGHW4ENTITY_MESSAGES@@PAUENTITY@@1PAD@Z@4JA
  007da	81 c2 b1 00 00
	00		 add	 edx, 177		; 000000b1H
  007e0	52		 push	 edx
  007e1	68 00 00 00 00	 push	 OFFSET ??_C@_0EE@DLIIEJCN@c?3?2users?2nhv90?2projects?2eech?2ap@
  007e6	a1 00 00 00 00	 mov	 eax, DWORD PTR ?null_entity_pointer_message@@3PBDB ; null_entity_pointer_message
  007eb	50		 push	 eax
  007ec	e8 00 00 00 00	 call	 ?process_assert@@YGXPBD0H@Z ; process_assert
  007f1	c7 45 b0 00 00
	00 00		 mov	 DWORD PTR tv396[ebp], 0
$LN76@response_t:
  007f8	b9 01 00 00 00	 mov	 ecx, 1
  007fd	85 c9		 test	 ecx, ecx
  007ff	74 09		 je	 SHORT $LN77@response_t
  00801	c7 45 ac 97 00
	00 00		 mov	 DWORD PTR tv404[ebp], 151 ; 00000097H
  00808	eb 24		 jmp	 SHORT $LN78@response_t
$LN77@response_t:
  0080a	8b 15 00 00 00
	00		 mov	 edx, DWORD PTR ?__LINE__Var@?0??response_to_waypoint_drop_off_reached@@YGHW4ENTITY_MESSAGES@@PAUENTITY@@1PAD@Z@4JA
  00810	81 c2 b1 00 00
	00		 add	 edx, 177		; 000000b1H
  00816	52		 push	 edx
  00817	68 00 00 00 00	 push	 OFFSET ??_C@_0EE@DLIIEJCN@c?3?2users?2nhv90?2projects?2eech?2ap@
  0081c	a1 00 00 00 00	 mov	 eax, DWORD PTR ?overload_invalid_int_type_message@@3PBDB ; overload_invalid_int_type_message
  00821	50		 push	 eax
  00822	e8 00 00 00 00	 call	 ?process_assert@@YGXPBD0H@Z ; process_assert
  00827	c7 45 ac 00 00
	00 00		 mov	 DWORD PTR tv404[ebp], 0
$LN78@response_t:
  0082e	6a 07		 push	 7
  00830	68 97 00 00 00	 push	 151			; 00000097H
  00835	8b 4d 0c	 mov	 ecx, DWORD PTR _receiver$[ebp]
  00838	51		 push	 ecx
  00839	69 55 b0 b8 08
	00 00		 imul	 edx, DWORD PTR tv396[ebp], 2232
  00840	8b 45 ac	 mov	 eax, DWORD PTR tv404[ebp]
  00843	8d 8c c2 00 00
	00 00		 lea	 ecx, DWORD PTR ?fn_set_client_server_entity_int_value@@3PAY1BBH@1P6GXPAUENTITY@@W4INT_TYPES@@H@ZA[edx+eax*8]
  0084a	8b 15 00 00 00
	00		 mov	 edx, DWORD PTR ?system_comms_model@@3W4COMMS_MODEL_TYPES@@A ; system_comms_model
  00850	8b 04 91	 mov	 eax, DWORD PTR [ecx+edx*4]
  00853	ff d0		 call	 eax
$LN17@response_t:

; 1058 : 	}
; 1059 : 
; 1060 : 	set_local_entity_float_value (receiver, FLOAT_TYPE_VIEW_INTEREST_LEVEL, DEFAULT_VIEW_INTEREST_LEVEL);

  00855	83 7d 0c 00	 cmp	 DWORD PTR _receiver$[ebp], 0
  00859	74 0a		 je	 SHORT $LN79@response_t
  0085b	8b 45 0c	 mov	 eax, DWORD PTR _receiver$[ebp]
  0085e	8b 08		 mov	 ecx, DWORD PTR [eax]
  00860	89 4d b0	 mov	 DWORD PTR tv418[ebp], ecx
  00863	eb 24		 jmp	 SHORT $LN80@response_t
$LN79@response_t:
  00865	8b 15 00 00 00
	00		 mov	 edx, DWORD PTR ?__LINE__Var@?0??response_to_waypoint_drop_off_reached@@YGHW4ENTITY_MESSAGES@@PAUENTITY@@1PAD@Z@4JA
  0086b	81 c2 b4 00 00
	00		 add	 edx, 180		; 000000b4H
  00871	52		 push	 edx
  00872	68 00 00 00 00	 push	 OFFSET ??_C@_0EE@DLIIEJCN@c?3?2users?2nhv90?2projects?2eech?2ap@
  00877	a1 00 00 00 00	 mov	 eax, DWORD PTR ?null_entity_pointer_message@@3PBDB ; null_entity_pointer_message
  0087c	50		 push	 eax
  0087d	e8 00 00 00 00	 call	 ?process_assert@@YGXPBD0H@Z ; process_assert
  00882	c7 45 b0 00 00
	00 00		 mov	 DWORD PTR tv418[ebp], 0
$LN80@response_t:
  00889	b9 01 00 00 00	 mov	 ecx, 1
  0088e	85 c9		 test	 ecx, ecx
  00890	74 09		 je	 SHORT $LN81@response_t
  00892	c7 45 ac 95 00
	00 00		 mov	 DWORD PTR tv426[ebp], 149 ; 00000095H
  00899	eb 24		 jmp	 SHORT $LN82@response_t
$LN81@response_t:
  0089b	8b 15 00 00 00
	00		 mov	 edx, DWORD PTR ?__LINE__Var@?0??response_to_waypoint_drop_off_reached@@YGHW4ENTITY_MESSAGES@@PAUENTITY@@1PAD@Z@4JA
  008a1	81 c2 b4 00 00
	00		 add	 edx, 180		; 000000b4H
  008a7	52		 push	 edx
  008a8	68 00 00 00 00	 push	 OFFSET ??_C@_0EE@DLIIEJCN@c?3?2users?2nhv90?2projects?2eech?2ap@
  008ad	a1 00 00 00 00	 mov	 eax, DWORD PTR ?overload_invalid_float_type_message@@3PBDB ; overload_invalid_float_type_message
  008b2	50		 push	 eax
  008b3	e8 00 00 00 00	 call	 ?process_assert@@YGXPBD0H@Z ; process_assert
  008b8	c7 45 ac 00 00
	00 00		 mov	 DWORD PTR tv426[ebp], 0
$LN82@response_t:
  008bf	51		 push	 ecx
  008c0	f3 0f 10 05 00
	00 00 00	 movss	 xmm0, DWORD PTR __real@40a00000
  008c8	f3 0f 11 04 24	 movss	 DWORD PTR [esp], xmm0
  008cd	68 95 00 00 00	 push	 149			; 00000095H
  008d2	8b 4d 0c	 mov	 ecx, DWORD PTR _receiver$[ebp]
  008d5	51		 push	 ecx
  008d6	69 55 b0 bc 02
	00 00		 imul	 edx, DWORD PTR tv418[ebp], 700
  008dd	8b 45 ac	 mov	 eax, DWORD PTR tv426[ebp]
  008e0	8b 8c 82 00 00
	00 00		 mov	 ecx, DWORD PTR ?fn_set_local_entity_float_value@@3PAY0KP@P6GXPAUENTITY@@W4FLOAT_TYPES@@M@ZA[edx+eax*4]
  008e7	ff d1		 call	 ecx

; 1061 : 
; 1062 : 	return (TRUE);

  008e9	b8 01 00 00 00	 mov	 eax, 1

; 1063 : }

  008ee	5f		 pop	 edi
  008ef	5e		 pop	 esi
  008f0	5b		 pop	 ebx
  008f1	8b e5		 mov	 esp, ebp
  008f3	5d		 pop	 ebp
  008f4	c2 10 00	 ret	 16			; 00000010H
?response_to_waypoint_drop_off_reached@@YGHW4ENTITY_MESSAGES@@PAUENTITY@@1PAD@Z ENDP ; response_to_waypoint_drop_off_reached
_TEXT	ENDS
; Function compile flags: /Odtp /ZI
; File c:\users\nhv90\projects\eech\aphavoc\source\entity\mobile\mb_msgs.c
;	COMDAT ?response_to_waypoint_defend_reached@@YGHW4ENTITY_MESSAGES@@PAUENTITY@@1PAD@Z
_TEXT	SEGMENT
tv602 = -116						; size = 8
tv352 = -116						; size = 8
tv171 = -116						; size = 4
tv163 = -112						; size = 4
tv459 = -108						; size = 4
tv437 = -108						; size = 4
tv413 = -108						; size = 4
tv393 = -108						; size = 4
tv369 = -108						; size = 4
tv353 = -108						; size = 8
tv336 = -108						; size = 4
tv316 = -108						; size = 4
tv293 = -108						; size = 4
tv272 = -108						; size = 4
tv252 = -108						; size = 4
tv231 = -108						; size = 4
tv211 = -108						; size = 4
tv188 = -108						; size = 4
tv147 = -108						; size = 4
tv95 = -108						; size = 4
tv451 = -104						; size = 4
tv429 = -104						; size = 4
tv405 = -104						; size = 4
tv385 = -104						; size = 4
tv361 = -104						; size = 4
tv328 = -104						; size = 4
tv308 = -104						; size = 4
tv286 = -104						; size = 4
tv264 = -104						; size = 4
tv244 = -104						; size = 4
tv223 = -104						; size = 4
tv203 = -104						; size = 4
tv180 = -104						; size = 4
tv139 = -104						; size = 4
tv87 = -104						; size = 4
_raw$ = -36						; size = 4
_new_pos$ = -32						; size = 12
_task$ = -20						; size = 4
_member$ = -16						; size = 4
_group$ = -12						; size = 4
_fuel$ = -8						; size = 4
_sleep$ = -4						; size = 4
_message$ = 8						; size = 4
_receiver$ = 12						; size = 4
_sender$ = 16						; size = 4
_pargs$ = 20						; size = 4
?response_to_waypoint_defend_reached@@YGHW4ENTITY_MESSAGES@@PAUENTITY@@1PAD@Z PROC ; response_to_waypoint_defend_reached, COMDAT

; 755  : {

  00000	55		 push	 ebp
  00001	8b ec		 mov	 ebp, esp
  00003	83 ec 74	 sub	 esp, 116		; 00000074H
  00006	53		 push	 ebx
  00007	56		 push	 esi
  00008	57		 push	 edi

; 756  : 
; 757  : 	float
; 758  : 		sleep,
; 759  : 		fuel;
; 760  : 
; 761  : 	entity
; 762  : 		*group,
; 763  : 		*member,
; 764  : 		*task;
; 765  : 
; 766  : 	vec3d
; 767  : 		new_pos;
; 768  : 
; 769  : 	mobile
; 770  : 		*raw;
; 771  : 
; 772  : 	ASSERT (sender);

  00009	83 7d 10 00	 cmp	 DWORD PTR _sender$[ebp], 0
  0000d	75 18		 jne	 SHORT $LN4@response_t
  0000f	a1 00 00 00 00	 mov	 eax, DWORD PTR ?__LINE__Var@?0??response_to_waypoint_defend_reached@@YGHW4ENTITY_MESSAGES@@PAUENTITY@@1PAD@Z@4JA
  00014	83 c0 11	 add	 eax, 17			; 00000011H
  00017	50		 push	 eax
  00018	68 00 00 00 00	 push	 OFFSET ??_C@_0EE@DLIIEJCN@c?3?2users?2nhv90?2projects?2eech?2ap@
  0001d	68 00 00 00 00	 push	 OFFSET ??_C@_06CGHJMPBJ@sender@
  00022	e8 00 00 00 00	 call	 ?process_assert@@YGXPBD0H@Z ; process_assert
$LN4@response_t:

; 773  : 
; 774  : 	ASSERT (sender->type == ENTITY_TYPE_WAYPOINT);

  00027	8b 45 10	 mov	 eax, DWORD PTR _sender$[ebp]
  0002a	83 38 24	 cmp	 DWORD PTR [eax], 36	; 00000024H
  0002d	74 18		 je	 SHORT $LN5@response_t
  0002f	a1 00 00 00 00	 mov	 eax, DWORD PTR ?__LINE__Var@?0??response_to_waypoint_defend_reached@@YGHW4ENTITY_MESSAGES@@PAUENTITY@@1PAD@Z@4JA
  00034	83 c0 13	 add	 eax, 19			; 00000013H
  00037	50		 push	 eax
  00038	68 00 00 00 00	 push	 OFFSET ??_C@_0EE@DLIIEJCN@c?3?2users?2nhv90?2projects?2eech?2ap@
  0003d	68 00 00 00 00	 push	 OFFSET ??_C@_0CF@JOKOGIDD@sender?9?$DOtype?5?$DN?$DN?5ENTITY_TYPE_WAY@
  00042	e8 00 00 00 00	 call	 ?process_assert@@YGXPBD0H@Z ; process_assert
$LN5@response_t:

; 775  : 
; 776  : 	ASSERT (get_comms_model () == COMMS_MODEL_SERVER);

  00047	83 3d 00 00 00
	00 00		 cmp	 DWORD PTR ?system_comms_model@@3W4COMMS_MODEL_TYPES@@A, 0 ; system_comms_model
  0004e	74 18		 je	 SHORT $LN6@response_t
  00050	a1 00 00 00 00	 mov	 eax, DWORD PTR ?__LINE__Var@?0??response_to_waypoint_defend_reached@@YGHW4ENTITY_MESSAGES@@PAUENTITY@@1PAD@Z@4JA
  00055	83 c0 15	 add	 eax, 21			; 00000015H
  00058	50		 push	 eax
  00059	68 00 00 00 00	 push	 OFFSET ??_C@_0EE@DLIIEJCN@c?3?2users?2nhv90?2projects?2eech?2ap@
  0005e	68 00 00 00 00	 push	 OFFSET ??_C@_0CJ@DMBLBJBK@get_comms_model?5?$CI?$CJ?5?$DN?$DN?5COMMS_MOD@
  00063	e8 00 00 00 00	 call	 ?process_assert@@YGXPBD0H@Z ; process_assert
$LN6@response_t:

; 777  : 
; 778  : 	#if DEBUG_MODULE >= 2
; 779  : 
; 780  : 	debug_log_entity_message (message, receiver, sender, pargs);
; 781  : 
; 782  : 	#endif
; 783  : 
; 784  : 	#if DEBUG_MODULE
; 785  : 
; 786  : 	if (receiver == get_external_view_entity ())
; 787  : 	{
; 788  : 		debug_log ("MB_MSGS: defend waypoint reached mb %d", get_local_entity_safe_index (receiver));
; 789  : 	}
; 790  : 
; 791  : 	#endif
; 792  : 
; 793  : 	raw = (mobile *) get_local_entity_data (receiver);

  00068	8b 45 0c	 mov	 eax, DWORD PTR _receiver$[ebp]
  0006b	8b 48 04	 mov	 ecx, DWORD PTR [eax+4]
  0006e	89 4d dc	 mov	 DWORD PTR _raw$[ebp], ecx

; 794  : 
; 795  : 	group = get_local_entity_parent (receiver, LIST_TYPE_MEMBER);

  00071	83 7d 0c 00	 cmp	 DWORD PTR _receiver$[ebp], 0
  00075	74 0a		 je	 SHORT $LN9@response_t
  00077	8b 45 0c	 mov	 eax, DWORD PTR _receiver$[ebp]
  0007a	8b 08		 mov	 ecx, DWORD PTR [eax]
  0007c	89 4d 98	 mov	 DWORD PTR tv87[ebp], ecx
  0007f	eb 21		 jmp	 SHORT $LN10@response_t
$LN9@response_t:
  00081	8b 15 00 00 00
	00		 mov	 edx, DWORD PTR ?__LINE__Var@?0??response_to_waypoint_defend_reached@@YGHW4ENTITY_MESSAGES@@PAUENTITY@@1PAD@Z@4JA
  00087	83 c2 28	 add	 edx, 40			; 00000028H
  0008a	52		 push	 edx
  0008b	68 00 00 00 00	 push	 OFFSET ??_C@_0EE@DLIIEJCN@c?3?2users?2nhv90?2projects?2eech?2ap@
  00090	a1 00 00 00 00	 mov	 eax, DWORD PTR ?null_entity_pointer_message@@3PBDB ; null_entity_pointer_message
  00095	50		 push	 eax
  00096	e8 00 00 00 00	 call	 ?process_assert@@YGXPBD0H@Z ; process_assert
  0009b	c7 45 98 00 00
	00 00		 mov	 DWORD PTR tv87[ebp], 0
$LN10@response_t:
  000a2	b9 01 00 00 00	 mov	 ecx, 1
  000a7	85 c9		 test	 ecx, ecx
  000a9	74 09		 je	 SHORT $LN11@response_t
  000ab	c7 45 94 19 00
	00 00		 mov	 DWORD PTR tv95[ebp], 25	; 00000019H
  000b2	eb 21		 jmp	 SHORT $LN12@response_t
$LN11@response_t:
  000b4	8b 15 00 00 00
	00		 mov	 edx, DWORD PTR ?__LINE__Var@?0??response_to_waypoint_defend_reached@@YGHW4ENTITY_MESSAGES@@PAUENTITY@@1PAD@Z@4JA
  000ba	83 c2 28	 add	 edx, 40			; 00000028H
  000bd	52		 push	 edx
  000be	68 00 00 00 00	 push	 OFFSET ??_C@_0EE@DLIIEJCN@c?3?2users?2nhv90?2projects?2eech?2ap@
  000c3	a1 00 00 00 00	 mov	 eax, DWORD PTR ?overload_invalid_list_type_message@@3PBDB ; overload_invalid_list_type_message
  000c8	50		 push	 eax
  000c9	e8 00 00 00 00	 call	 ?process_assert@@YGXPBD0H@Z ; process_assert
  000ce	c7 45 94 00 00
	00 00		 mov	 DWORD PTR tv95[ebp], 0
$LN12@response_t:
  000d5	6a 19		 push	 25			; 00000019H
  000d7	8b 4d 0c	 mov	 ecx, DWORD PTR _receiver$[ebp]
  000da	51		 push	 ecx
  000db	69 55 98 b4 00
	00 00		 imul	 edx, DWORD PTR tv87[ebp], 180
  000e2	8b 45 94	 mov	 eax, DWORD PTR tv95[ebp]
  000e5	8b 8c 82 00 00
	00 00		 mov	 ecx, DWORD PTR ?fn_get_local_entity_parent@@3PAY0CN@P6GPAUENTITY@@PAU1@W4LIST_TYPES@@@ZA[edx+eax*4]
  000ec	ff d1		 call	 ecx
  000ee	89 45 f4	 mov	 DWORD PTR _group$[ebp], eax

; 796  : 
; 797  : 	task = get_local_entity_parent (sender, LIST_TYPE_WAYPOINT);

  000f1	83 7d 10 00	 cmp	 DWORD PTR _sender$[ebp], 0
  000f5	74 0a		 je	 SHORT $LN13@response_t
  000f7	8b 45 10	 mov	 eax, DWORD PTR _sender$[ebp]
  000fa	8b 08		 mov	 ecx, DWORD PTR [eax]
  000fc	89 4d 98	 mov	 DWORD PTR tv139[ebp], ecx
  000ff	eb 21		 jmp	 SHORT $LN14@response_t
$LN13@response_t:
  00101	8b 15 00 00 00
	00		 mov	 edx, DWORD PTR ?__LINE__Var@?0??response_to_waypoint_defend_reached@@YGHW4ENTITY_MESSAGES@@PAUENTITY@@1PAD@Z@4JA
  00107	83 c2 2a	 add	 edx, 42			; 0000002aH
  0010a	52		 push	 edx
  0010b	68 00 00 00 00	 push	 OFFSET ??_C@_0EE@DLIIEJCN@c?3?2users?2nhv90?2projects?2eech?2ap@
  00110	a1 00 00 00 00	 mov	 eax, DWORD PTR ?null_entity_pointer_message@@3PBDB ; null_entity_pointer_message
  00115	50		 push	 eax
  00116	e8 00 00 00 00	 call	 ?process_assert@@YGXPBD0H@Z ; process_assert
  0011b	c7 45 98 00 00
	00 00		 mov	 DWORD PTR tv139[ebp], 0
$LN14@response_t:
  00122	b9 01 00 00 00	 mov	 ecx, 1
  00127	85 c9		 test	 ecx, ecx
  00129	74 09		 je	 SHORT $LN15@response_t
  0012b	c7 45 94 2c 00
	00 00		 mov	 DWORD PTR tv147[ebp], 44 ; 0000002cH
  00132	eb 21		 jmp	 SHORT $LN16@response_t
$LN15@response_t:
  00134	8b 15 00 00 00
	00		 mov	 edx, DWORD PTR ?__LINE__Var@?0??response_to_waypoint_defend_reached@@YGHW4ENTITY_MESSAGES@@PAUENTITY@@1PAD@Z@4JA
  0013a	83 c2 2a	 add	 edx, 42			; 0000002aH
  0013d	52		 push	 edx
  0013e	68 00 00 00 00	 push	 OFFSET ??_C@_0EE@DLIIEJCN@c?3?2users?2nhv90?2projects?2eech?2ap@
  00143	a1 00 00 00 00	 mov	 eax, DWORD PTR ?overload_invalid_list_type_message@@3PBDB ; overload_invalid_list_type_message
  00148	50		 push	 eax
  00149	e8 00 00 00 00	 call	 ?process_assert@@YGXPBD0H@Z ; process_assert
  0014e	c7 45 94 00 00
	00 00		 mov	 DWORD PTR tv147[ebp], 0
$LN16@response_t:
  00155	6a 2c		 push	 44			; 0000002cH
  00157	8b 4d 10	 mov	 ecx, DWORD PTR _sender$[ebp]
  0015a	51		 push	 ecx
  0015b	69 55 98 b4 00
	00 00		 imul	 edx, DWORD PTR tv139[ebp], 180
  00162	8b 45 94	 mov	 eax, DWORD PTR tv147[ebp]
  00165	8b 8c 82 00 00
	00 00		 mov	 ecx, DWORD PTR ?fn_get_local_entity_parent@@3PAY0CN@P6GPAUENTITY@@PAU1@W4LIST_TYPES@@@ZA[edx+eax*4]
  0016c	ff d1		 call	 ecx
  0016e	89 45 ec	 mov	 DWORD PTR _task$[ebp], eax

; 798  : 
; 799  : 	//
; 800  : 	// Nofity task of task_complete
; 801  : 	//
; 802  : 
; 803  : 	notify_local_entity (ENTITY_MESSAGE_TASK_TERMINATED, task, receiver, TASK_TERMINATED_WAYPOINT_ROUTE_COMPLETE);

  00171	6a 06		 push	 6
  00173	8b 45 0c	 mov	 eax, DWORD PTR _receiver$[ebp]
  00176	50		 push	 eax
  00177	8b 4d ec	 mov	 ecx, DWORD PTR _task$[ebp]
  0017a	51		 push	 ecx
  0017b	6a 36		 push	 54			; 00000036H
  0017d	e8 00 00 00 00	 call	 ?notify_local_entity@@YAHW4ENTITY_MESSAGES@@PAUENTITY@@1ZZ ; notify_local_entity
  00182	83 c4 10	 add	 esp, 16			; 00000010H

; 804  : 
; 805  : 	set_local_entity_int_value (group, INT_TYPE_ENGAGE_ENEMY, get_local_entity_int_value (group, INT_TYPE_DEFAULT_ENGAGE_ENEMY));

  00185	83 7d f4 00	 cmp	 DWORD PTR _group$[ebp], 0
  00189	74 0a		 je	 SHORT $LN21@response_t
  0018b	8b 45 f4	 mov	 eax, DWORD PTR _group$[ebp]
  0018e	8b 08		 mov	 ecx, DWORD PTR [eax]
  00190	89 4d 98	 mov	 DWORD PTR tv180[ebp], ecx
  00193	eb 21		 jmp	 SHORT $LN22@response_t
$LN21@response_t:
  00195	8b 15 00 00 00
	00		 mov	 edx, DWORD PTR ?__LINE__Var@?0??response_to_waypoint_defend_reached@@YGHW4ENTITY_MESSAGES@@PAUENTITY@@1PAD@Z@4JA
  0019b	83 c2 32	 add	 edx, 50			; 00000032H
  0019e	52		 push	 edx
  0019f	68 00 00 00 00	 push	 OFFSET ??_C@_0EE@DLIIEJCN@c?3?2users?2nhv90?2projects?2eech?2ap@
  001a4	a1 00 00 00 00	 mov	 eax, DWORD PTR ?null_entity_pointer_message@@3PBDB ; null_entity_pointer_message
  001a9	50		 push	 eax
  001aa	e8 00 00 00 00	 call	 ?process_assert@@YGXPBD0H@Z ; process_assert
  001af	c7 45 98 00 00
	00 00		 mov	 DWORD PTR tv180[ebp], 0
$LN22@response_t:
  001b6	b9 01 00 00 00	 mov	 ecx, 1
  001bb	85 c9		 test	 ecx, ecx
  001bd	74 09		 je	 SHORT $LN23@response_t
  001bf	c7 45 94 2a 00
	00 00		 mov	 DWORD PTR tv188[ebp], 42 ; 0000002aH
  001c6	eb 21		 jmp	 SHORT $LN24@response_t
$LN23@response_t:
  001c8	8b 15 00 00 00
	00		 mov	 edx, DWORD PTR ?__LINE__Var@?0??response_to_waypoint_defend_reached@@YGHW4ENTITY_MESSAGES@@PAUENTITY@@1PAD@Z@4JA
  001ce	83 c2 32	 add	 edx, 50			; 00000032H
  001d1	52		 push	 edx
  001d2	68 00 00 00 00	 push	 OFFSET ??_C@_0EE@DLIIEJCN@c?3?2users?2nhv90?2projects?2eech?2ap@
  001d7	a1 00 00 00 00	 mov	 eax, DWORD PTR ?overload_invalid_int_type_message@@3PBDB ; overload_invalid_int_type_message
  001dc	50		 push	 eax
  001dd	e8 00 00 00 00	 call	 ?process_assert@@YGXPBD0H@Z ; process_assert
  001e2	c7 45 94 00 00
	00 00		 mov	 DWORD PTR tv188[ebp], 0
$LN24@response_t:
  001e9	83 7d f4 00	 cmp	 DWORD PTR _group$[ebp], 0
  001ed	74 0a		 je	 SHORT $LN17@response_t
  001ef	8b 4d f4	 mov	 ecx, DWORD PTR _group$[ebp]
  001f2	8b 11		 mov	 edx, DWORD PTR [ecx]
  001f4	89 55 90	 mov	 DWORD PTR tv163[ebp], edx
  001f7	eb 21		 jmp	 SHORT $LN18@response_t
$LN17@response_t:
  001f9	a1 00 00 00 00	 mov	 eax, DWORD PTR ?__LINE__Var@?0??response_to_waypoint_defend_reached@@YGHW4ENTITY_MESSAGES@@PAUENTITY@@1PAD@Z@4JA
  001fe	83 c0 32	 add	 eax, 50			; 00000032H
  00201	50		 push	 eax
  00202	68 00 00 00 00	 push	 OFFSET ??_C@_0EE@DLIIEJCN@c?3?2users?2nhv90?2projects?2eech?2ap@
  00207	8b 0d 00 00 00
	00		 mov	 ecx, DWORD PTR ?null_entity_pointer_message@@3PBDB ; null_entity_pointer_message
  0020d	51		 push	 ecx
  0020e	e8 00 00 00 00	 call	 ?process_assert@@YGXPBD0H@Z ; process_assert
  00213	c7 45 90 00 00
	00 00		 mov	 DWORD PTR tv163[ebp], 0
$LN18@response_t:
  0021a	ba 01 00 00 00	 mov	 edx, 1
  0021f	85 d2		 test	 edx, edx
  00221	74 09		 je	 SHORT $LN19@response_t
  00223	c7 45 8c 33 00
	00 00		 mov	 DWORD PTR tv171[ebp], 51 ; 00000033H
  0022a	eb 21		 jmp	 SHORT $LN20@response_t
$LN19@response_t:
  0022c	a1 00 00 00 00	 mov	 eax, DWORD PTR ?__LINE__Var@?0??response_to_waypoint_defend_reached@@YGHW4ENTITY_MESSAGES@@PAUENTITY@@1PAD@Z@4JA
  00231	83 c0 32	 add	 eax, 50			; 00000032H
  00234	50		 push	 eax
  00235	68 00 00 00 00	 push	 OFFSET ??_C@_0EE@DLIIEJCN@c?3?2users?2nhv90?2projects?2eech?2ap@
  0023a	8b 0d 00 00 00
	00		 mov	 ecx, DWORD PTR ?overload_invalid_int_type_message@@3PBDB ; overload_invalid_int_type_message
  00240	51		 push	 ecx
  00241	e8 00 00 00 00	 call	 ?process_assert@@YGXPBD0H@Z ; process_assert
  00246	c7 45 8c 00 00
	00 00		 mov	 DWORD PTR tv171[ebp], 0
$LN20@response_t:
  0024d	6a 2a		 push	 42			; 0000002aH
  0024f	8b 55 f4	 mov	 edx, DWORD PTR _group$[ebp]
  00252	52		 push	 edx
  00253	69 45 98 5c 04
	00 00		 imul	 eax, DWORD PTR tv180[ebp], 1116
  0025a	8b 4d 94	 mov	 ecx, DWORD PTR tv188[ebp]
  0025d	8b 94 88 00 00
	00 00		 mov	 edx, DWORD PTR ?fn_get_local_entity_int_value@@3PAY0BBH@P6GHPAUENTITY@@W4INT_TYPES@@@ZA[eax+ecx*4]
  00264	ff d2		 call	 edx
  00266	50		 push	 eax
  00267	6a 33		 push	 51			; 00000033H
  00269	8b 45 f4	 mov	 eax, DWORD PTR _group$[ebp]
  0026c	50		 push	 eax
  0026d	69 4d 90 5c 04
	00 00		 imul	 ecx, DWORD PTR tv163[ebp], 1116
  00274	8b 55 8c	 mov	 edx, DWORD PTR tv171[ebp]
  00277	8b 84 91 00 00
	00 00		 mov	 eax, DWORD PTR ?fn_set_local_entity_int_value@@3PAY0BBH@P6GXPAUENTITY@@W4INT_TYPES@@H@ZA[ecx+edx*4]
  0027e	ff d0		 call	 eax

; 806  : 
; 807  : 	//
; 808  : 	// for all group members
; 809  : 	//
; 810  : 
; 811  : 	group = get_local_entity_parent (receiver, LIST_TYPE_MEMBER);

  00280	83 7d 0c 00	 cmp	 DWORD PTR _receiver$[ebp], 0
  00284	74 0a		 je	 SHORT $LN25@response_t
  00286	8b 45 0c	 mov	 eax, DWORD PTR _receiver$[ebp]
  00289	8b 08		 mov	 ecx, DWORD PTR [eax]
  0028b	89 4d 98	 mov	 DWORD PTR tv203[ebp], ecx
  0028e	eb 21		 jmp	 SHORT $LN26@response_t
$LN25@response_t:
  00290	8b 15 00 00 00
	00		 mov	 edx, DWORD PTR ?__LINE__Var@?0??response_to_waypoint_defend_reached@@YGHW4ENTITY_MESSAGES@@PAUENTITY@@1PAD@Z@4JA
  00296	83 c2 38	 add	 edx, 56			; 00000038H
  00299	52		 push	 edx
  0029a	68 00 00 00 00	 push	 OFFSET ??_C@_0EE@DLIIEJCN@c?3?2users?2nhv90?2projects?2eech?2ap@
  0029f	a1 00 00 00 00	 mov	 eax, DWORD PTR ?null_entity_pointer_message@@3PBDB ; null_entity_pointer_message
  002a4	50		 push	 eax
  002a5	e8 00 00 00 00	 call	 ?process_assert@@YGXPBD0H@Z ; process_assert
  002aa	c7 45 98 00 00
	00 00		 mov	 DWORD PTR tv203[ebp], 0
$LN26@response_t:
  002b1	b9 01 00 00 00	 mov	 ecx, 1
  002b6	85 c9		 test	 ecx, ecx
  002b8	74 09		 je	 SHORT $LN27@response_t
  002ba	c7 45 94 19 00
	00 00		 mov	 DWORD PTR tv211[ebp], 25 ; 00000019H
  002c1	eb 21		 jmp	 SHORT $LN28@response_t
$LN27@response_t:
  002c3	8b 15 00 00 00
	00		 mov	 edx, DWORD PTR ?__LINE__Var@?0??response_to_waypoint_defend_reached@@YGHW4ENTITY_MESSAGES@@PAUENTITY@@1PAD@Z@4JA
  002c9	83 c2 38	 add	 edx, 56			; 00000038H
  002cc	52		 push	 edx
  002cd	68 00 00 00 00	 push	 OFFSET ??_C@_0EE@DLIIEJCN@c?3?2users?2nhv90?2projects?2eech?2ap@
  002d2	a1 00 00 00 00	 mov	 eax, DWORD PTR ?overload_invalid_list_type_message@@3PBDB ; overload_invalid_list_type_message
  002d7	50		 push	 eax
  002d8	e8 00 00 00 00	 call	 ?process_assert@@YGXPBD0H@Z ; process_assert
  002dd	c7 45 94 00 00
	00 00		 mov	 DWORD PTR tv211[ebp], 0
$LN28@response_t:
  002e4	6a 19		 push	 25			; 00000019H
  002e6	8b 4d 0c	 mov	 ecx, DWORD PTR _receiver$[ebp]
  002e9	51		 push	 ecx
  002ea	69 55 98 b4 00
	00 00		 imul	 edx, DWORD PTR tv203[ebp], 180
  002f1	8b 45 94	 mov	 eax, DWORD PTR tv211[ebp]
  002f4	8b 8c 82 00 00
	00 00		 mov	 ecx, DWORD PTR ?fn_get_local_entity_parent@@3PAY0CN@P6GPAUENTITY@@PAU1@W4LIST_TYPES@@@ZA[edx+eax*4]
  002fb	ff d1		 call	 ecx
  002fd	89 45 f4	 mov	 DWORD PTR _group$[ebp], eax

; 812  : 
; 813  : 	member = get_local_entity_first_child (group, LIST_TYPE_MEMBER);

  00300	83 7d f4 00	 cmp	 DWORD PTR _group$[ebp], 0
  00304	74 0a		 je	 SHORT $LN29@response_t
  00306	8b 45 f4	 mov	 eax, DWORD PTR _group$[ebp]
  00309	8b 08		 mov	 ecx, DWORD PTR [eax]
  0030b	89 4d 98	 mov	 DWORD PTR tv223[ebp], ecx
  0030e	eb 21		 jmp	 SHORT $LN30@response_t
$LN29@response_t:
  00310	8b 15 00 00 00
	00		 mov	 edx, DWORD PTR ?__LINE__Var@?0??response_to_waypoint_defend_reached@@YGHW4ENTITY_MESSAGES@@PAUENTITY@@1PAD@Z@4JA
  00316	83 c2 3a	 add	 edx, 58			; 0000003aH
  00319	52		 push	 edx
  0031a	68 00 00 00 00	 push	 OFFSET ??_C@_0EE@DLIIEJCN@c?3?2users?2nhv90?2projects?2eech?2ap@
  0031f	a1 00 00 00 00	 mov	 eax, DWORD PTR ?null_entity_pointer_message@@3PBDB ; null_entity_pointer_message
  00324	50		 push	 eax
  00325	e8 00 00 00 00	 call	 ?process_assert@@YGXPBD0H@Z ; process_assert
  0032a	c7 45 98 00 00
	00 00		 mov	 DWORD PTR tv223[ebp], 0
$LN30@response_t:
  00331	b9 01 00 00 00	 mov	 ecx, 1
  00336	85 c9		 test	 ecx, ecx
  00338	74 09		 je	 SHORT $LN31@response_t
  0033a	c7 45 94 19 00
	00 00		 mov	 DWORD PTR tv231[ebp], 25 ; 00000019H
  00341	eb 21		 jmp	 SHORT $LN32@response_t
$LN31@response_t:
  00343	8b 15 00 00 00
	00		 mov	 edx, DWORD PTR ?__LINE__Var@?0??response_to_waypoint_defend_reached@@YGHW4ENTITY_MESSAGES@@PAUENTITY@@1PAD@Z@4JA
  00349	83 c2 3a	 add	 edx, 58			; 0000003aH
  0034c	52		 push	 edx
  0034d	68 00 00 00 00	 push	 OFFSET ??_C@_0EE@DLIIEJCN@c?3?2users?2nhv90?2projects?2eech?2ap@
  00352	a1 00 00 00 00	 mov	 eax, DWORD PTR ?overload_invalid_list_type_message@@3PBDB ; overload_invalid_list_type_message
  00357	50		 push	 eax
  00358	e8 00 00 00 00	 call	 ?process_assert@@YGXPBD0H@Z ; process_assert
  0035d	c7 45 94 00 00
	00 00		 mov	 DWORD PTR tv231[ebp], 0
$LN32@response_t:
  00364	6a 19		 push	 25			; 00000019H
  00366	8b 4d f4	 mov	 ecx, DWORD PTR _group$[ebp]
  00369	51		 push	 ecx
  0036a	69 55 98 b4 00
	00 00		 imul	 edx, DWORD PTR tv223[ebp], 180
  00371	8b 45 94	 mov	 eax, DWORD PTR tv231[ebp]
  00374	8b 8c 82 00 00
	00 00		 mov	 ecx, DWORD PTR ?fn_get_local_entity_first_child@@3PAY0CN@P6GPAUENTITY@@PAU1@W4LIST_TYPES@@@ZA[edx+eax*4]
  0037b	ff d1		 call	 ecx
  0037d	89 45 f0	 mov	 DWORD PTR _member$[ebp], eax
$LN2@response_t:

; 814  : 
; 815  : 	while (member)

  00380	83 7d f0 00	 cmp	 DWORD PTR _member$[ebp], 0
  00384	0f 84 ec 05 00
	00		 je	 $LN3@response_t

; 816  : 	{
; 817  : 		
; 818  : 		set_local_entity_int_value (member, INT_TYPE_OPERATIONAL_STATE, OPERATIONAL_STATE_STOPPED);

  0038a	83 7d f0 00	 cmp	 DWORD PTR _member$[ebp], 0
  0038e	74 0a		 je	 SHORT $LN33@response_t
  00390	8b 45 f0	 mov	 eax, DWORD PTR _member$[ebp]
  00393	8b 08		 mov	 ecx, DWORD PTR [eax]
  00395	89 4d 98	 mov	 DWORD PTR tv244[ebp], ecx
  00398	eb 21		 jmp	 SHORT $LN34@response_t
$LN33@response_t:
  0039a	8b 15 00 00 00
	00		 mov	 edx, DWORD PTR ?__LINE__Var@?0??response_to_waypoint_defend_reached@@YGHW4ENTITY_MESSAGES@@PAUENTITY@@1PAD@Z@4JA
  003a0	83 c2 3f	 add	 edx, 63			; 0000003fH
  003a3	52		 push	 edx
  003a4	68 00 00 00 00	 push	 OFFSET ??_C@_0EE@DLIIEJCN@c?3?2users?2nhv90?2projects?2eech?2ap@
  003a9	a1 00 00 00 00	 mov	 eax, DWORD PTR ?null_entity_pointer_message@@3PBDB ; null_entity_pointer_message
  003ae	50		 push	 eax
  003af	e8 00 00 00 00	 call	 ?process_assert@@YGXPBD0H@Z ; process_assert
  003b4	c7 45 98 00 00
	00 00		 mov	 DWORD PTR tv244[ebp], 0
$LN34@response_t:
  003bb	b9 01 00 00 00	 mov	 ecx, 1
  003c0	85 c9		 test	 ecx, ecx
  003c2	74 09		 je	 SHORT $LN35@response_t
  003c4	c7 45 94 97 00
	00 00		 mov	 DWORD PTR tv252[ebp], 151 ; 00000097H
  003cb	eb 21		 jmp	 SHORT $LN36@response_t
$LN35@response_t:
  003cd	8b 15 00 00 00
	00		 mov	 edx, DWORD PTR ?__LINE__Var@?0??response_to_waypoint_defend_reached@@YGHW4ENTITY_MESSAGES@@PAUENTITY@@1PAD@Z@4JA
  003d3	83 c2 3f	 add	 edx, 63			; 0000003fH
  003d6	52		 push	 edx
  003d7	68 00 00 00 00	 push	 OFFSET ??_C@_0EE@DLIIEJCN@c?3?2users?2nhv90?2projects?2eech?2ap@
  003dc	a1 00 00 00 00	 mov	 eax, DWORD PTR ?overload_invalid_int_type_message@@3PBDB ; overload_invalid_int_type_message
  003e1	50		 push	 eax
  003e2	e8 00 00 00 00	 call	 ?process_assert@@YGXPBD0H@Z ; process_assert
  003e7	c7 45 94 00 00
	00 00		 mov	 DWORD PTR tv252[ebp], 0
$LN36@response_t:
  003ee	6a 08		 push	 8
  003f0	68 97 00 00 00	 push	 151			; 00000097H
  003f5	8b 4d f0	 mov	 ecx, DWORD PTR _member$[ebp]
  003f8	51		 push	 ecx
  003f9	69 55 98 5c 04
	00 00		 imul	 edx, DWORD PTR tv244[ebp], 1116
  00400	8b 45 94	 mov	 eax, DWORD PTR tv252[ebp]
  00403	8b 8c 82 00 00
	00 00		 mov	 ecx, DWORD PTR ?fn_set_local_entity_int_value@@3PAY0BBH@P6GXPAUENTITY@@W4INT_TYPES@@H@ZA[edx+eax*4]
  0040a	ff d1		 call	 ecx

; 819  : 	
; 820  : 		set_local_entity_float_value (member, FLOAT_TYPE_VIEW_INTEREST_LEVEL, DEFAULT_VIEW_INTEREST_LEVEL);

  0040c	83 7d f0 00	 cmp	 DWORD PTR _member$[ebp], 0
  00410	74 0a		 je	 SHORT $LN37@response_t
  00412	8b 45 f0	 mov	 eax, DWORD PTR _member$[ebp]
  00415	8b 08		 mov	 ecx, DWORD PTR [eax]
  00417	89 4d 98	 mov	 DWORD PTR tv264[ebp], ecx
  0041a	eb 21		 jmp	 SHORT $LN38@response_t
$LN37@response_t:
  0041c	8b 15 00 00 00
	00		 mov	 edx, DWORD PTR ?__LINE__Var@?0??response_to_waypoint_defend_reached@@YGHW4ENTITY_MESSAGES@@PAUENTITY@@1PAD@Z@4JA
  00422	83 c2 41	 add	 edx, 65			; 00000041H
  00425	52		 push	 edx
  00426	68 00 00 00 00	 push	 OFFSET ??_C@_0EE@DLIIEJCN@c?3?2users?2nhv90?2projects?2eech?2ap@
  0042b	a1 00 00 00 00	 mov	 eax, DWORD PTR ?null_entity_pointer_message@@3PBDB ; null_entity_pointer_message
  00430	50		 push	 eax
  00431	e8 00 00 00 00	 call	 ?process_assert@@YGXPBD0H@Z ; process_assert
  00436	c7 45 98 00 00
	00 00		 mov	 DWORD PTR tv264[ebp], 0
$LN38@response_t:
  0043d	b9 01 00 00 00	 mov	 ecx, 1
  00442	85 c9		 test	 ecx, ecx
  00444	74 09		 je	 SHORT $LN39@response_t
  00446	c7 45 94 95 00
	00 00		 mov	 DWORD PTR tv272[ebp], 149 ; 00000095H
  0044d	eb 21		 jmp	 SHORT $LN40@response_t
$LN39@response_t:
  0044f	8b 15 00 00 00
	00		 mov	 edx, DWORD PTR ?__LINE__Var@?0??response_to_waypoint_defend_reached@@YGHW4ENTITY_MESSAGES@@PAUENTITY@@1PAD@Z@4JA
  00455	83 c2 41	 add	 edx, 65			; 00000041H
  00458	52		 push	 edx
  00459	68 00 00 00 00	 push	 OFFSET ??_C@_0EE@DLIIEJCN@c?3?2users?2nhv90?2projects?2eech?2ap@
  0045e	a1 00 00 00 00	 mov	 eax, DWORD PTR ?overload_invalid_float_type_message@@3PBDB ; overload_invalid_float_type_message
  00463	50		 push	 eax
  00464	e8 00 00 00 00	 call	 ?process_assert@@YGXPBD0H@Z ; process_assert
  00469	c7 45 94 00 00
	00 00		 mov	 DWORD PTR tv272[ebp], 0
$LN40@response_t:
  00470	51		 push	 ecx
  00471	f3 0f 10 05 00
	00 00 00	 movss	 xmm0, DWORD PTR __real@40a00000
  00479	f3 0f 11 04 24	 movss	 DWORD PTR [esp], xmm0
  0047e	68 95 00 00 00	 push	 149			; 00000095H
  00483	8b 4d f0	 mov	 ecx, DWORD PTR _member$[ebp]
  00486	51		 push	 ecx
  00487	69 55 98 bc 02
	00 00		 imul	 edx, DWORD PTR tv264[ebp], 700
  0048e	8b 45 94	 mov	 eax, DWORD PTR tv272[ebp]
  00491	8b 8c 82 00 00
	00 00		 mov	 ecx, DWORD PTR ?fn_set_local_entity_float_value@@3PAY0KP@P6GXPAUENTITY@@W4FLOAT_TYPES@@M@ZA[edx+eax*4]
  00498	ff d1		 call	 ecx

; 821  : 	
; 822  : 		set_infinite_smoke_list_generating_state (member, ENTITY_SUB_TYPE_EFFECT_SMOKE_LIST_VEHICLE_WAKE, INFINITE_SMOKE_OFF);

  0049a	51		 push	 ecx
  0049b	0f 57 c0	 xorps	 xmm0, xmm0
  0049e	f3 0f 11 04 24	 movss	 DWORD PTR [esp], xmm0
  004a3	6a 09		 push	 9
  004a5	8b 45 f0	 mov	 eax, DWORD PTR _member$[ebp]
  004a8	50		 push	 eax
  004a9	e8 00 00 00 00	 call	 ?set_infinite_smoke_list_generating_state@@YGHPAUENTITY@@HM@Z ; set_infinite_smoke_list_generating_state

; 823  : 	
; 824  : 		if (get_local_entity_int_value (member, INT_TYPE_LIGHTS_ON))

  004ae	83 7d f0 00	 cmp	 DWORD PTR _member$[ebp], 0
  004b2	74 0a		 je	 SHORT $LN41@response_t
  004b4	8b 45 f0	 mov	 eax, DWORD PTR _member$[ebp]
  004b7	8b 08		 mov	 ecx, DWORD PTR [eax]
  004b9	89 4d 98	 mov	 DWORD PTR tv286[ebp], ecx
  004bc	eb 1d		 jmp	 SHORT $LN42@response_t
$LN41@response_t:
  004be	68 38 03 00 00	 push	 824			; 00000338H
  004c3	68 00 00 00 00	 push	 OFFSET ??_C@_0EE@DLIIEJCN@c?3?2users?2nhv90?2projects?2eech?2ap@
  004c8	8b 15 00 00 00
	00		 mov	 edx, DWORD PTR ?null_entity_pointer_message@@3PBDB ; null_entity_pointer_message
  004ce	52		 push	 edx
  004cf	e8 00 00 00 00	 call	 ?process_assert@@YGXPBD0H@Z ; process_assert
  004d4	c7 45 98 00 00
	00 00		 mov	 DWORD PTR tv286[ebp], 0
$LN42@response_t:
  004db	b8 01 00 00 00	 mov	 eax, 1
  004e0	85 c0		 test	 eax, eax
  004e2	74 09		 je	 SHORT $LN43@response_t
  004e4	c7 45 94 7a 00
	00 00		 mov	 DWORD PTR tv293[ebp], 122 ; 0000007aH
  004eb	eb 1d		 jmp	 SHORT $LN44@response_t
$LN43@response_t:
  004ed	68 38 03 00 00	 push	 824			; 00000338H
  004f2	68 00 00 00 00	 push	 OFFSET ??_C@_0EE@DLIIEJCN@c?3?2users?2nhv90?2projects?2eech?2ap@
  004f7	8b 0d 00 00 00
	00		 mov	 ecx, DWORD PTR ?overload_invalid_int_type_message@@3PBDB ; overload_invalid_int_type_message
  004fd	51		 push	 ecx
  004fe	e8 00 00 00 00	 call	 ?process_assert@@YGXPBD0H@Z ; process_assert
  00503	c7 45 94 00 00
	00 00		 mov	 DWORD PTR tv293[ebp], 0
$LN44@response_t:
  0050a	6a 7a		 push	 122			; 0000007aH
  0050c	8b 55 f0	 mov	 edx, DWORD PTR _member$[ebp]
  0050f	52		 push	 edx
  00510	69 45 98 5c 04
	00 00		 imul	 eax, DWORD PTR tv286[ebp], 1116
  00517	8b 4d 94	 mov	 ecx, DWORD PTR tv293[ebp]
  0051a	8b 94 88 00 00
	00 00		 mov	 edx, DWORD PTR ?fn_get_local_entity_int_value@@3PAY0BBH@P6GHPAUENTITY@@W4INT_TYPES@@@ZA[eax+ecx*4]
  00521	ff d2		 call	 edx
  00523	85 c0		 test	 eax, eax
  00525	74 0b		 je	 SHORT $LN7@response_t

; 825  : 		{
; 826  : 	
; 827  : 			set_vehicle_headlight_state (member, OFF);

  00527	6a 00		 push	 0
  00529	8b 45 f0	 mov	 eax, DWORD PTR _member$[ebp]
  0052c	50		 push	 eax
  0052d	e8 00 00 00 00	 call	 ?set_vehicle_headlight_state@@YGXPAUENTITY@@H@Z ; set_vehicle_headlight_state
$LN7@response_t:

; 828  : 		}
; 829  : 
; 830  : 		//
; 831  : 		// sort out supplies (ie. reduce group fuel only)
; 832  : 		//
; 833  : 
; 834  : 		fuel = get_local_entity_float_value (group, FLOAT_TYPE_FUEL_SUPPLY_LEVEL);

  00532	83 7d f4 00	 cmp	 DWORD PTR _group$[ebp], 0
  00536	74 0a		 je	 SHORT $LN45@response_t
  00538	8b 45 f4	 mov	 eax, DWORD PTR _group$[ebp]
  0053b	8b 08		 mov	 ecx, DWORD PTR [eax]
  0053d	89 4d 98	 mov	 DWORD PTR tv308[ebp], ecx
  00540	eb 21		 jmp	 SHORT $LN46@response_t
$LN45@response_t:
  00542	8b 15 00 00 00
	00		 mov	 edx, DWORD PTR ?__LINE__Var@?0??response_to_waypoint_defend_reached@@YGHW4ENTITY_MESSAGES@@PAUENTITY@@1PAD@Z@4JA
  00548	83 c2 4f	 add	 edx, 79			; 0000004fH
  0054b	52		 push	 edx
  0054c	68 00 00 00 00	 push	 OFFSET ??_C@_0EE@DLIIEJCN@c?3?2users?2nhv90?2projects?2eech?2ap@
  00551	a1 00 00 00 00	 mov	 eax, DWORD PTR ?null_entity_pointer_message@@3PBDB ; null_entity_pointer_message
  00556	50		 push	 eax
  00557	e8 00 00 00 00	 call	 ?process_assert@@YGXPBD0H@Z ; process_assert
  0055c	c7 45 98 00 00
	00 00		 mov	 DWORD PTR tv308[ebp], 0
$LN46@response_t:
  00563	b9 01 00 00 00	 mov	 ecx, 1
  00568	85 c9		 test	 ecx, ecx
  0056a	74 09		 je	 SHORT $LN47@response_t
  0056c	c7 45 94 30 00
	00 00		 mov	 DWORD PTR tv316[ebp], 48 ; 00000030H
  00573	eb 21		 jmp	 SHORT $LN48@response_t
$LN47@response_t:
  00575	8b 15 00 00 00
	00		 mov	 edx, DWORD PTR ?__LINE__Var@?0??response_to_waypoint_defend_reached@@YGHW4ENTITY_MESSAGES@@PAUENTITY@@1PAD@Z@4JA
  0057b	83 c2 4f	 add	 edx, 79			; 0000004fH
  0057e	52		 push	 edx
  0057f	68 00 00 00 00	 push	 OFFSET ??_C@_0EE@DLIIEJCN@c?3?2users?2nhv90?2projects?2eech?2ap@
  00584	a1 00 00 00 00	 mov	 eax, DWORD PTR ?overload_invalid_float_type_message@@3PBDB ; overload_invalid_float_type_message
  00589	50		 push	 eax
  0058a	e8 00 00 00 00	 call	 ?process_assert@@YGXPBD0H@Z ; process_assert
  0058f	c7 45 94 00 00
	00 00		 mov	 DWORD PTR tv316[ebp], 0
$LN48@response_t:
  00596	6a 30		 push	 48			; 00000030H
  00598	8b 4d f4	 mov	 ecx, DWORD PTR _group$[ebp]
  0059b	51		 push	 ecx
  0059c	69 55 98 bc 02
	00 00		 imul	 edx, DWORD PTR tv308[ebp], 700
  005a3	8b 45 94	 mov	 eax, DWORD PTR tv316[ebp]
  005a6	8b 8c 82 00 00
	00 00		 mov	 ecx, DWORD PTR ?fn_get_local_entity_float_value@@3PAY0KP@P6GMPAUENTITY@@W4FLOAT_TYPES@@@ZA[edx+eax*4]
  005ad	ff d1		 call	 ecx
  005af	d9 5d f8	 fstp	 DWORD PTR _fuel$[ebp]

; 835  : 
; 836  : 		fuel -= get_local_entity_float_value (receiver, FLOAT_TYPE_FUEL_ECONOMY) * FUEL_USAGE_ACCELERATOR;

  005b2	83 7d 0c 00	 cmp	 DWORD PTR _receiver$[ebp], 0
  005b6	74 0a		 je	 SHORT $LN49@response_t
  005b8	8b 45 0c	 mov	 eax, DWORD PTR _receiver$[ebp]
  005bb	8b 08		 mov	 ecx, DWORD PTR [eax]
  005bd	89 4d 98	 mov	 DWORD PTR tv328[ebp], ecx
  005c0	eb 21		 jmp	 SHORT $LN50@response_t
$LN49@response_t:
  005c2	8b 15 00 00 00
	00		 mov	 edx, DWORD PTR ?__LINE__Var@?0??response_to_waypoint_defend_reached@@YGHW4ENTITY_MESSAGES@@PAUENTITY@@1PAD@Z@4JA
  005c8	83 c2 51	 add	 edx, 81			; 00000051H
  005cb	52		 push	 edx
  005cc	68 00 00 00 00	 push	 OFFSET ??_C@_0EE@DLIIEJCN@c?3?2users?2nhv90?2projects?2eech?2ap@
  005d1	a1 00 00 00 00	 mov	 eax, DWORD PTR ?null_entity_pointer_message@@3PBDB ; null_entity_pointer_message
  005d6	50		 push	 eax
  005d7	e8 00 00 00 00	 call	 ?process_assert@@YGXPBD0H@Z ; process_assert
  005dc	c7 45 98 00 00
	00 00		 mov	 DWORD PTR tv328[ebp], 0
$LN50@response_t:
  005e3	b9 01 00 00 00	 mov	 ecx, 1
  005e8	85 c9		 test	 ecx, ecx
  005ea	74 09		 je	 SHORT $LN51@response_t
  005ec	c7 45 94 2f 00
	00 00		 mov	 DWORD PTR tv336[ebp], 47 ; 0000002fH
  005f3	eb 21		 jmp	 SHORT $LN52@response_t
$LN51@response_t:
  005f5	8b 15 00 00 00
	00		 mov	 edx, DWORD PTR ?__LINE__Var@?0??response_to_waypoint_defend_reached@@YGHW4ENTITY_MESSAGES@@PAUENTITY@@1PAD@Z@4JA
  005fb	83 c2 51	 add	 edx, 81			; 00000051H
  005fe	52		 push	 edx
  005ff	68 00 00 00 00	 push	 OFFSET ??_C@_0EE@DLIIEJCN@c?3?2users?2nhv90?2projects?2eech?2ap@
  00604	a1 00 00 00 00	 mov	 eax, DWORD PTR ?overload_invalid_float_type_message@@3PBDB ; overload_invalid_float_type_message
  00609	50		 push	 eax
  0060a	e8 00 00 00 00	 call	 ?process_assert@@YGXPBD0H@Z ; process_assert
  0060f	c7 45 94 00 00
	00 00		 mov	 DWORD PTR tv336[ebp], 0
$LN52@response_t:
  00616	6a 2f		 push	 47			; 0000002fH
  00618	8b 4d 0c	 mov	 ecx, DWORD PTR _receiver$[ebp]
  0061b	51		 push	 ecx
  0061c	69 55 98 bc 02
	00 00		 imul	 edx, DWORD PTR tv328[ebp], 700
  00623	8b 45 94	 mov	 eax, DWORD PTR tv336[ebp]
  00626	8b 8c 82 00 00
	00 00		 mov	 ecx, DWORD PTR ?fn_get_local_entity_float_value@@3PAY0KP@P6GMPAUENTITY@@W4FLOAT_TYPES@@@ZA[edx+eax*4]
  0062d	ff d1		 call	 ecx
  0062f	dd 5d 8c	 fstp	 QWORD PTR tv602[ebp]
  00632	f2 0f 10 45 8c	 movsd	 xmm0, QWORD PTR tv602[ebp]
  00637	f2 0f 59 05 00
	00 00 00	 mulsd	 xmm0, QWORD PTR __real@3ff0000000000000
  0063f	f3 0f 5a 4d f8	 cvtss2sd xmm1, DWORD PTR _fuel$[ebp]
  00644	f2 0f 5c c8	 subsd	 xmm1, xmm0
  00648	f2 0f 5a c1	 cvtsd2ss xmm0, xmm1
  0064c	f3 0f 11 45 f8	 movss	 DWORD PTR _fuel$[ebp], xmm0

; 837  : 
; 838  : 		fuel = bound (fuel, 0.0, 100.0);

  00651	f3 0f 5a 45 f8	 cvtss2sd xmm0, DWORD PTR _fuel$[ebp]
  00656	0f 57 c9	 xorps	 xmm1, xmm1
  00659	66 0f 2f c8	 comisd	 xmm1, xmm0
  0065d	76 0a		 jbe	 SHORT $LN55@response_t
  0065f	0f 57 c0	 xorps	 xmm0, xmm0
  00662	f2 0f 11 45 94	 movsd	 QWORD PTR tv353[ebp], xmm0
  00667	eb 32		 jmp	 SHORT $LN56@response_t
$LN55@response_t:
  00669	f3 0f 5a 45 f8	 cvtss2sd xmm0, DWORD PTR _fuel$[ebp]
  0066e	66 0f 2f 05 00
	00 00 00	 comisd	 xmm0, QWORD PTR __real@4059000000000000
  00676	76 0f		 jbe	 SHORT $LN53@response_t
  00678	f2 0f 10 05 00
	00 00 00	 movsd	 xmm0, QWORD PTR __real@4059000000000000
  00680	f2 0f 11 45 8c	 movsd	 QWORD PTR tv352[ebp], xmm0
  00685	eb 0a		 jmp	 SHORT $LN54@response_t
$LN53@response_t:
  00687	f3 0f 5a 45 f8	 cvtss2sd xmm0, DWORD PTR _fuel$[ebp]
  0068c	f2 0f 11 45 8c	 movsd	 QWORD PTR tv352[ebp], xmm0
$LN54@response_t:
  00691	f2 0f 10 45 8c	 movsd	 xmm0, QWORD PTR tv352[ebp]
  00696	f2 0f 11 45 94	 movsd	 QWORD PTR tv353[ebp], xmm0
$LN56@response_t:
  0069b	f2 0f 5a 45 94	 cvtsd2ss xmm0, QWORD PTR tv353[ebp]
  006a0	f3 0f 11 45 f8	 movss	 DWORD PTR _fuel$[ebp], xmm0

; 839  : 
; 840  : 		set_client_server_entity_float_value (group, FLOAT_TYPE_FUEL_SUPPLY_LEVEL, fuel);

  006a5	83 7d f4 00	 cmp	 DWORD PTR _group$[ebp], 0
  006a9	74 0a		 je	 SHORT $LN57@response_t
  006ab	8b 45 f4	 mov	 eax, DWORD PTR _group$[ebp]
  006ae	8b 08		 mov	 ecx, DWORD PTR [eax]
  006b0	89 4d 98	 mov	 DWORD PTR tv361[ebp], ecx
  006b3	eb 21		 jmp	 SHORT $LN58@response_t
$LN57@response_t:
  006b5	8b 15 00 00 00
	00		 mov	 edx, DWORD PTR ?__LINE__Var@?0??response_to_waypoint_defend_reached@@YGHW4ENTITY_MESSAGES@@PAUENTITY@@1PAD@Z@4JA
  006bb	83 c2 55	 add	 edx, 85			; 00000055H
  006be	52		 push	 edx
  006bf	68 00 00 00 00	 push	 OFFSET ??_C@_0EE@DLIIEJCN@c?3?2users?2nhv90?2projects?2eech?2ap@
  006c4	a1 00 00 00 00	 mov	 eax, DWORD PTR ?null_entity_pointer_message@@3PBDB ; null_entity_pointer_message
  006c9	50		 push	 eax
  006ca	e8 00 00 00 00	 call	 ?process_assert@@YGXPBD0H@Z ; process_assert
  006cf	c7 45 98 00 00
	00 00		 mov	 DWORD PTR tv361[ebp], 0
$LN58@response_t:
  006d6	b9 01 00 00 00	 mov	 ecx, 1
  006db	85 c9		 test	 ecx, ecx
  006dd	74 09		 je	 SHORT $LN59@response_t
  006df	c7 45 94 30 00
	00 00		 mov	 DWORD PTR tv369[ebp], 48 ; 00000030H
  006e6	eb 21		 jmp	 SHORT $LN60@response_t
$LN59@response_t:
  006e8	8b 15 00 00 00
	00		 mov	 edx, DWORD PTR ?__LINE__Var@?0??response_to_waypoint_defend_reached@@YGHW4ENTITY_MESSAGES@@PAUENTITY@@1PAD@Z@4JA
  006ee	83 c2 55	 add	 edx, 85			; 00000055H
  006f1	52		 push	 edx
  006f2	68 00 00 00 00	 push	 OFFSET ??_C@_0EE@DLIIEJCN@c?3?2users?2nhv90?2projects?2eech?2ap@
  006f7	a1 00 00 00 00	 mov	 eax, DWORD PTR ?overload_invalid_float_type_message@@3PBDB ; overload_invalid_float_type_message
  006fc	50		 push	 eax
  006fd	e8 00 00 00 00	 call	 ?process_assert@@YGXPBD0H@Z ; process_assert
  00702	c7 45 94 00 00
	00 00		 mov	 DWORD PTR tv369[ebp], 0
$LN60@response_t:
  00709	51		 push	 ecx
  0070a	f3 0f 10 45 f8	 movss	 xmm0, DWORD PTR _fuel$[ebp]
  0070f	f3 0f 11 04 24	 movss	 DWORD PTR [esp], xmm0
  00714	6a 30		 push	 48			; 00000030H
  00716	8b 4d f4	 mov	 ecx, DWORD PTR _group$[ebp]
  00719	51		 push	 ecx
  0071a	69 55 98 78 05
	00 00		 imul	 edx, DWORD PTR tv361[ebp], 1400
  00721	8b 45 94	 mov	 eax, DWORD PTR tv369[ebp]
  00724	8d 8c c2 00 00
	00 00		 lea	 ecx, DWORD PTR ?fn_set_client_server_entity_float_value@@3PAY1KP@1P6GXPAUENTITY@@W4FLOAT_TYPES@@M@ZA[edx+eax*8]
  0072b	8b 15 00 00 00
	00		 mov	 edx, DWORD PTR ?system_comms_model@@3W4COMMS_MODEL_TYPES@@A ; system_comms_model
  00731	8b 04 91	 mov	 eax, DWORD PTR [ecx+edx*4]
  00734	ff d0		 call	 eax

; 841  : 
; 842  : 		sleep = get_local_entity_refueling_sleep_time (group);

  00736	8b 45 f4	 mov	 eax, DWORD PTR _group$[ebp]
  00739	50		 push	 eax
  0073a	e8 00 00 00 00	 call	 ?get_local_entity_refueling_sleep_time@@YGMPAUENTITY@@@Z ; get_local_entity_refueling_sleep_time
  0073f	d9 5d fc	 fstp	 DWORD PTR _sleep$[ebp]

; 843  : 		set_local_entity_float_value (member, FLOAT_TYPE_SLEEP, sleep);

  00742	83 7d f0 00	 cmp	 DWORD PTR _member$[ebp], 0
  00746	74 0a		 je	 SHORT $LN61@response_t
  00748	8b 45 f0	 mov	 eax, DWORD PTR _member$[ebp]
  0074b	8b 08		 mov	 ecx, DWORD PTR [eax]
  0074d	89 4d 98	 mov	 DWORD PTR tv385[ebp], ecx
  00750	eb 21		 jmp	 SHORT $LN62@response_t
$LN61@response_t:
  00752	8b 15 00 00 00
	00		 mov	 edx, DWORD PTR ?__LINE__Var@?0??response_to_waypoint_defend_reached@@YGHW4ENTITY_MESSAGES@@PAUENTITY@@1PAD@Z@4JA
  00758	83 c2 58	 add	 edx, 88			; 00000058H
  0075b	52		 push	 edx
  0075c	68 00 00 00 00	 push	 OFFSET ??_C@_0EE@DLIIEJCN@c?3?2users?2nhv90?2projects?2eech?2ap@
  00761	a1 00 00 00 00	 mov	 eax, DWORD PTR ?null_entity_pointer_message@@3PBDB ; null_entity_pointer_message
  00766	50		 push	 eax
  00767	e8 00 00 00 00	 call	 ?process_assert@@YGXPBD0H@Z ; process_assert
  0076c	c7 45 98 00 00
	00 00		 mov	 DWORD PTR tv385[ebp], 0
$LN62@response_t:
  00773	b9 01 00 00 00	 mov	 ecx, 1
  00778	85 c9		 test	 ecx, ecx
  0077a	74 09		 je	 SHORT $LN63@response_t
  0077c	c7 45 94 75 00
	00 00		 mov	 DWORD PTR tv393[ebp], 117 ; 00000075H
  00783	eb 21		 jmp	 SHORT $LN64@response_t
$LN63@response_t:
  00785	8b 15 00 00 00
	00		 mov	 edx, DWORD PTR ?__LINE__Var@?0??response_to_waypoint_defend_reached@@YGHW4ENTITY_MESSAGES@@PAUENTITY@@1PAD@Z@4JA
  0078b	83 c2 58	 add	 edx, 88			; 00000058H
  0078e	52		 push	 edx
  0078f	68 00 00 00 00	 push	 OFFSET ??_C@_0EE@DLIIEJCN@c?3?2users?2nhv90?2projects?2eech?2ap@
  00794	a1 00 00 00 00	 mov	 eax, DWORD PTR ?overload_invalid_float_type_message@@3PBDB ; overload_invalid_float_type_message
  00799	50		 push	 eax
  0079a	e8 00 00 00 00	 call	 ?process_assert@@YGXPBD0H@Z ; process_assert
  0079f	c7 45 94 00 00
	00 00		 mov	 DWORD PTR tv393[ebp], 0
$LN64@response_t:
  007a6	51		 push	 ecx
  007a7	f3 0f 10 45 fc	 movss	 xmm0, DWORD PTR _sleep$[ebp]
  007ac	f3 0f 11 04 24	 movss	 DWORD PTR [esp], xmm0
  007b1	6a 75		 push	 117			; 00000075H
  007b3	8b 4d f0	 mov	 ecx, DWORD PTR _member$[ebp]
  007b6	51		 push	 ecx
  007b7	69 55 98 bc 02
	00 00		 imul	 edx, DWORD PTR tv385[ebp], 700
  007be	8b 45 94	 mov	 eax, DWORD PTR tv393[ebp]
  007c1	8b 8c 82 00 00
	00 00		 mov	 ecx, DWORD PTR ?fn_set_local_entity_float_value@@3PAY0KP@P6GXPAUENTITY@@W4FLOAT_TYPES@@M@ZA[edx+eax*4]
  007c8	ff d1		 call	 ecx

; 844  : 
; 845  : 		//
; 846  : 		// Set Y to terrain altitude to make sure they are on the floor
; 847  : 		//
; 848  : 
; 849  : 		get_local_entity_vec3d (member, VEC3D_TYPE_POSITION, &new_pos);

  007ca	83 7d f0 00	 cmp	 DWORD PTR _member$[ebp], 0
  007ce	74 0a		 je	 SHORT $LN65@response_t
  007d0	8b 45 f0	 mov	 eax, DWORD PTR _member$[ebp]
  007d3	8b 08		 mov	 ecx, DWORD PTR [eax]
  007d5	89 4d 98	 mov	 DWORD PTR tv405[ebp], ecx
  007d8	eb 21		 jmp	 SHORT $LN66@response_t
$LN65@response_t:
  007da	8b 15 00 00 00
	00		 mov	 edx, DWORD PTR ?__LINE__Var@?0??response_to_waypoint_defend_reached@@YGHW4ENTITY_MESSAGES@@PAUENTITY@@1PAD@Z@4JA
  007e0	83 c2 5e	 add	 edx, 94			; 0000005eH
  007e3	52		 push	 edx
  007e4	68 00 00 00 00	 push	 OFFSET ??_C@_0EE@DLIIEJCN@c?3?2users?2nhv90?2projects?2eech?2ap@
  007e9	a1 00 00 00 00	 mov	 eax, DWORD PTR ?null_entity_pointer_message@@3PBDB ; null_entity_pointer_message
  007ee	50		 push	 eax
  007ef	e8 00 00 00 00	 call	 ?process_assert@@YGXPBD0H@Z ; process_assert
  007f4	c7 45 98 00 00
	00 00		 mov	 DWORD PTR tv405[ebp], 0
$LN66@response_t:
  007fb	b9 01 00 00 00	 mov	 ecx, 1
  00800	85 c9		 test	 ecx, ecx
  00802	74 09		 je	 SHORT $LN67@response_t
  00804	c7 45 94 08 00
	00 00		 mov	 DWORD PTR tv413[ebp], 8
  0080b	eb 21		 jmp	 SHORT $LN68@response_t
$LN67@response_t:
  0080d	8b 15 00 00 00
	00		 mov	 edx, DWORD PTR ?__LINE__Var@?0??response_to_waypoint_defend_reached@@YGHW4ENTITY_MESSAGES@@PAUENTITY@@1PAD@Z@4JA
  00813	83 c2 5e	 add	 edx, 94			; 0000005eH
  00816	52		 push	 edx
  00817	68 00 00 00 00	 push	 OFFSET ??_C@_0EE@DLIIEJCN@c?3?2users?2nhv90?2projects?2eech?2ap@
  0081c	a1 00 00 00 00	 mov	 eax, DWORD PTR ?overload_invalid_vec3d_type_message@@3PBDB ; overload_invalid_vec3d_type_message
  00821	50		 push	 eax
  00822	e8 00 00 00 00	 call	 ?process_assert@@YGXPBD0H@Z ; process_assert
  00827	c7 45 94 00 00
	00 00		 mov	 DWORD PTR tv413[ebp], 0
$LN68@response_t:
  0082e	8d 4d e0	 lea	 ecx, DWORD PTR _new_pos$[ebp]
  00831	51		 push	 ecx
  00832	6a 08		 push	 8
  00834	8b 55 f0	 mov	 edx, DWORD PTR _member$[ebp]
  00837	52		 push	 edx
  00838	6b 45 98 60	 imul	 eax, DWORD PTR tv405[ebp], 96
  0083c	8b 4d 94	 mov	 ecx, DWORD PTR tv413[ebp]
  0083f	8b 94 88 00 00
	00 00		 mov	 edx, DWORD PTR ?fn_get_local_entity_vec3d@@3PAY0BI@P6GXPAUENTITY@@W4VEC3D_TYPES@@PAUVEC3D@@@ZA[eax+ecx*4]
  00846	ff d2		 call	 edx

; 850  : 
; 851  : 		new_pos.y = get_3d_terrain_elevation (new_pos.x, new_pos.z);

  00848	6a 00		 push	 0
  0084a	51		 push	 ecx
  0084b	f3 0f 10 45 e8	 movss	 xmm0, DWORD PTR _new_pos$[ebp+8]
  00850	f3 0f 11 04 24	 movss	 DWORD PTR [esp], xmm0
  00855	51		 push	 ecx
  00856	f3 0f 10 45 e0	 movss	 xmm0, DWORD PTR _new_pos$[ebp]
  0085b	f3 0f 11 04 24	 movss	 DWORD PTR [esp], xmm0
  00860	e8 00 00 00 00	 call	 ?get_3d_terrain_point_data@@YGMMMPAUTERRAIN_3D_POINT_DATA@@@Z ; get_3d_terrain_point_data
  00865	d9 5d e4	 fstp	 DWORD PTR _new_pos$[ebp+4]

; 852  : 
; 853  : 		set_client_server_entity_vec3d (member, VEC3D_TYPE_POSITION, &new_pos);

  00868	83 7d f0 00	 cmp	 DWORD PTR _member$[ebp], 0
  0086c	74 0a		 je	 SHORT $LN69@response_t
  0086e	8b 45 f0	 mov	 eax, DWORD PTR _member$[ebp]
  00871	8b 08		 mov	 ecx, DWORD PTR [eax]
  00873	89 4d 98	 mov	 DWORD PTR tv429[ebp], ecx
  00876	eb 21		 jmp	 SHORT $LN70@response_t
$LN69@response_t:
  00878	8b 15 00 00 00
	00		 mov	 edx, DWORD PTR ?__LINE__Var@?0??response_to_waypoint_defend_reached@@YGHW4ENTITY_MESSAGES@@PAUENTITY@@1PAD@Z@4JA
  0087e	83 c2 62	 add	 edx, 98			; 00000062H
  00881	52		 push	 edx
  00882	68 00 00 00 00	 push	 OFFSET ??_C@_0EE@DLIIEJCN@c?3?2users?2nhv90?2projects?2eech?2ap@
  00887	a1 00 00 00 00	 mov	 eax, DWORD PTR ?null_entity_pointer_message@@3PBDB ; null_entity_pointer_message
  0088c	50		 push	 eax
  0088d	e8 00 00 00 00	 call	 ?process_assert@@YGXPBD0H@Z ; process_assert
  00892	c7 45 98 00 00
	00 00		 mov	 DWORD PTR tv429[ebp], 0
$LN70@response_t:
  00899	b9 01 00 00 00	 mov	 ecx, 1
  0089e	85 c9		 test	 ecx, ecx
  008a0	74 09		 je	 SHORT $LN71@response_t
  008a2	c7 45 94 08 00
	00 00		 mov	 DWORD PTR tv437[ebp], 8
  008a9	eb 21		 jmp	 SHORT $LN72@response_t
$LN71@response_t:
  008ab	8b 15 00 00 00
	00		 mov	 edx, DWORD PTR ?__LINE__Var@?0??response_to_waypoint_defend_reached@@YGHW4ENTITY_MESSAGES@@PAUENTITY@@1PAD@Z@4JA
  008b1	83 c2 62	 add	 edx, 98			; 00000062H
  008b4	52		 push	 edx
  008b5	68 00 00 00 00	 push	 OFFSET ??_C@_0EE@DLIIEJCN@c?3?2users?2nhv90?2projects?2eech?2ap@
  008ba	a1 00 00 00 00	 mov	 eax, DWORD PTR ?overload_invalid_vec3d_type_message@@3PBDB ; overload_invalid_vec3d_type_message
  008bf	50		 push	 eax
  008c0	e8 00 00 00 00	 call	 ?process_assert@@YGXPBD0H@Z ; process_assert
  008c5	c7 45 94 00 00
	00 00		 mov	 DWORD PTR tv437[ebp], 0
$LN72@response_t:
  008cc	8d 4d e0	 lea	 ecx, DWORD PTR _new_pos$[ebp]
  008cf	51		 push	 ecx
  008d0	6a 08		 push	 8
  008d2	8b 55 f0	 mov	 edx, DWORD PTR _member$[ebp]
  008d5	52		 push	 edx
  008d6	69 45 98 c0 00
	00 00		 imul	 eax, DWORD PTR tv429[ebp], 192
  008dd	8b 4d 94	 mov	 ecx, DWORD PTR tv437[ebp]
  008e0	8d 94 c8 00 00
	00 00		 lea	 edx, DWORD PTR ?fn_set_client_server_entity_vec3d@@3PAY1BI@1P6GXPAUENTITY@@W4VEC3D_TYPES@@PAUVEC3D@@@ZA[eax+ecx*8]
  008e7	a1 00 00 00 00	 mov	 eax, DWORD PTR ?system_comms_model@@3W4COMMS_MODEL_TYPES@@A ; system_comms_model
  008ec	8b 0c 82	 mov	 ecx, DWORD PTR [edx+eax*4]
  008ef	ff d1		 call	 ecx

; 854  : 
; 855  : 		#if DEBUG_MODULE || DEBUG_SUPPLY
; 856  : 
; 857  : 		debug_log ("MB_MSGS: SUPPLY_INFO: Ground force defending: reducing group %s (%d) fuel level for %s (%d) to %f, sleeping for %f",
; 858  : 						get_local_entity_string (group, STRING_TYPE_FULL_NAME),
; 859  : 						get_local_entity_index (group),
; 860  : 						get_local_entity_string (member, STRING_TYPE_FULL_NAME),
; 861  : 						get_local_entity_index (member),
; 862  : 						fuel,
; 863  : 						sleep);
; 864  : 
; 865  : 		#endif
; 866  : 
; 867  : 		member = get_local_entity_child_succ (member, LIST_TYPE_MEMBER);

  008f1	83 7d f0 00	 cmp	 DWORD PTR _member$[ebp], 0
  008f5	74 0a		 je	 SHORT $LN73@response_t
  008f7	8b 45 f0	 mov	 eax, DWORD PTR _member$[ebp]
  008fa	8b 08		 mov	 ecx, DWORD PTR [eax]
  008fc	89 4d 98	 mov	 DWORD PTR tv451[ebp], ecx
  008ff	eb 21		 jmp	 SHORT $LN74@response_t
$LN73@response_t:
  00901	8b 15 00 00 00
	00		 mov	 edx, DWORD PTR ?__LINE__Var@?0??response_to_waypoint_defend_reached@@YGHW4ENTITY_MESSAGES@@PAUENTITY@@1PAD@Z@4JA
  00907	83 c2 70	 add	 edx, 112		; 00000070H
  0090a	52		 push	 edx
  0090b	68 00 00 00 00	 push	 OFFSET ??_C@_0EE@DLIIEJCN@c?3?2users?2nhv90?2projects?2eech?2ap@
  00910	a1 00 00 00 00	 mov	 eax, DWORD PTR ?null_entity_pointer_message@@3PBDB ; null_entity_pointer_message
  00915	50		 push	 eax
  00916	e8 00 00 00 00	 call	 ?process_assert@@YGXPBD0H@Z ; process_assert
  0091b	c7 45 98 00 00
	00 00		 mov	 DWORD PTR tv451[ebp], 0
$LN74@response_t:
  00922	b9 01 00 00 00	 mov	 ecx, 1
  00927	85 c9		 test	 ecx, ecx
  00929	74 09		 je	 SHORT $LN75@response_t
  0092b	c7 45 94 19 00
	00 00		 mov	 DWORD PTR tv459[ebp], 25 ; 00000019H
  00932	eb 21		 jmp	 SHORT $LN76@response_t
$LN75@response_t:
  00934	8b 15 00 00 00
	00		 mov	 edx, DWORD PTR ?__LINE__Var@?0??response_to_waypoint_defend_reached@@YGHW4ENTITY_MESSAGES@@PAUENTITY@@1PAD@Z@4JA
  0093a	83 c2 70	 add	 edx, 112		; 00000070H
  0093d	52		 push	 edx
  0093e	68 00 00 00 00	 push	 OFFSET ??_C@_0EE@DLIIEJCN@c?3?2users?2nhv90?2projects?2eech?2ap@
  00943	a1 00 00 00 00	 mov	 eax, DWORD PTR ?overload_invalid_list_type_message@@3PBDB ; overload_invalid_list_type_message
  00948	50		 push	 eax
  00949	e8 00 00 00 00	 call	 ?process_assert@@YGXPBD0H@Z ; process_assert
  0094e	c7 45 94 00 00
	00 00		 mov	 DWORD PTR tv459[ebp], 0
$LN76@response_t:
  00955	6a 19		 push	 25			; 00000019H
  00957	8b 4d f0	 mov	 ecx, DWORD PTR _member$[ebp]
  0095a	51		 push	 ecx
  0095b	69 55 98 b4 00
	00 00		 imul	 edx, DWORD PTR tv451[ebp], 180
  00962	8b 45 94	 mov	 eax, DWORD PTR tv459[ebp]
  00965	8b 8c 82 00 00
	00 00		 mov	 ecx, DWORD PTR ?fn_get_local_entity_child_succ@@3PAY0CN@P6GPAUENTITY@@PAU1@W4LIST_TYPES@@@ZA[edx+eax*4]
  0096c	ff d1		 call	 ecx
  0096e	89 45 f0	 mov	 DWORD PTR _member$[ebp], eax

; 868  : 	}

  00971	e9 0a fa ff ff	 jmp	 $LN2@response_t
$LN3@response_t:

; 869  : 
; 870  : 	assess_group_supplies (group);

  00976	8b 45 f4	 mov	 eax, DWORD PTR _group$[ebp]
  00979	50		 push	 eax
  0097a	e8 00 00 00 00	 call	 ?assess_group_supplies@@YGXPAUENTITY@@@Z ; assess_group_supplies

; 871  : 
; 872  : 	return (TRUE);

  0097f	b8 01 00 00 00	 mov	 eax, 1

; 873  : }

  00984	5f		 pop	 edi
  00985	5e		 pop	 esi
  00986	5b		 pop	 ebx
  00987	8b e5		 mov	 esp, ebp
  00989	5d		 pop	 ebp
  0098a	c2 10 00	 ret	 16			; 00000010H
?response_to_waypoint_defend_reached@@YGHW4ENTITY_MESSAGES@@PAUENTITY@@1PAD@Z ENDP ; response_to_waypoint_defend_reached
_TEXT	ENDS
; Function compile flags: /Odtp /ZI
; File c:\program files (x86)\microsoft visual studio\2017\community\vc\tools\msvc\14.16.27023\include\algorithm
;	COMDAT ??$max@M@std@@YGABMABM0@Z
_TEXT	SEGMENT
__Left$ = 8						; size = 4
__Right$ = 12						; size = 4
??$max@M@std@@YGABMABM0@Z PROC				; std::max<float>, COMDAT

; 5387 : 	{	// return larger of _Left and _Right

  00000	55		 push	 ebp
  00001	8b ec		 mov	 ebp, esp
  00003	83 ec 40	 sub	 esp, 64			; 00000040H
  00006	53		 push	 ebx
  00007	56		 push	 esi
  00008	57		 push	 edi

; 5388 : 	if (_Left < _Right)

  00009	8b 45 0c	 mov	 eax, DWORD PTR __Right$[ebp]
  0000c	8b 4d 08	 mov	 ecx, DWORD PTR __Left$[ebp]
  0000f	f3 0f 10 00	 movss	 xmm0, DWORD PTR [eax]
  00013	0f 2f 01	 comiss	 xmm0, DWORD PTR [ecx]
  00016	76 64		 jbe	 SHORT $LN8@max
$LN4@max:

; 5389 : 		{
; 5390 : 		_STL_ASSERT(!(_Right < _Left), "invalid comparator");

  00018	8b 45 08	 mov	 eax, DWORD PTR __Left$[ebp]
  0001b	8b 4d 0c	 mov	 ecx, DWORD PTR __Right$[ebp]
  0001e	f3 0f 10 00	 movss	 xmm0, DWORD PTR [eax]
  00022	0f 2f 01	 comiss	 xmm0, DWORD PTR [ecx]
  00025	77 02		 ja	 SHORT $LN9@max
  00027	eb 4a		 jmp	 SHORT $LN6@max
$LN9@max:
  00029	68 00 00 00 00	 push	 OFFSET ??_C@_0BD@FEEMDEPI@invalid?5comparator@
  0002e	68 00 00 00 00	 push	 OFFSET ??_C@_02DKCKIIND@?$CFs@
  00033	6a 00		 push	 0
  00035	68 0e 15 00 00	 push	 5390			; 0000150eH
  0003a	68 00 00 00 00	 push	 OFFSET ??_C@_0GK@JMBMHIBC@c?3?2program?5files?5?$CIx86?$CJ?2microsof@
  0003f	6a 02		 push	 2
  00041	ff 15 00 00 00
	00		 call	 DWORD PTR __imp___CrtDbgReport
  00047	83 c4 18	 add	 esp, 24			; 00000018H
  0004a	83 f8 01	 cmp	 eax, 1
  0004d	75 01		 jne	 SHORT $LN12@max
  0004f	cc		 int	 3
$LN12@max:
  00050	6a 00		 push	 0
  00052	68 0e 15 00 00	 push	 5390			; 0000150eH
  00057	68 00 00 00 00	 push	 OFFSET ??_C@_1NE@FKBPBJEB@?$AAc?$AA?3?$AA?2?$AAp?$AAr?$AAo?$AAg?$AAr?$AAa?$AAm?$AA?5?$AAf?$AAi?$AAl?$AAe@
  0005c	68 00 00 00 00	 push	 OFFSET ??_C@_1BC@ICCOKLEG@?$AAs?$AAt?$AAd?$AA?3?$AA?3?$AAm?$AAa?$AAx@
  00061	68 00 00 00 00	 push	 OFFSET ??_C@_1CK@NDNHPKPI@?$AA?$CC?$AAi?$AAn?$AAv?$AAa?$AAl?$AAi?$AAd?$AA?5?$AAc?$AAo?$AAm?$AAp?$AAa?$AAr@
  00066	ff 15 00 00 00
	00		 call	 DWORD PTR __imp___invalid_parameter
  0006c	83 c4 14	 add	 esp, 20			; 00000014H
  0006f	33 c0		 xor	 eax, eax
  00071	75 b6		 jne	 SHORT $LN9@max
$LN6@max:
  00073	33 c0		 xor	 eax, eax
  00075	75 a1		 jne	 SHORT $LN4@max

; 5391 : 		return (_Right);

  00077	8b 45 0c	 mov	 eax, DWORD PTR __Right$[ebp]
  0007a	eb 03		 jmp	 SHORT $LN1@max
$LN8@max:

; 5392 : 		}
; 5393 : 
; 5394 : 	return (_Left);

  0007c	8b 45 08	 mov	 eax, DWORD PTR __Left$[ebp]
$LN1@max:

; 5395 : 	}

  0007f	5f		 pop	 edi
  00080	5e		 pop	 esi
  00081	5b		 pop	 ebx
  00082	8b e5		 mov	 esp, ebp
  00084	5d		 pop	 ebp
  00085	c2 08 00	 ret	 8
??$max@M@std@@YGABMABM0@Z ENDP				; std::max<float>
_TEXT	ENDS
; Function compile flags: /Odtp /ZI
; File c:\users\nhv90\projects\eech\aphavoc\source\entity\mobile\mb_msgs.c
;	COMDAT ?response_to_waypoint_convoy_reached@@YGHW4ENTITY_MESSAGES@@PAUENTITY@@1PAD@Z
_TEXT	SEGMENT
tv440 = -128						; size = 4
tv327 = -124						; size = 4
tv305 = -124						; size = 4
tv280 = -124						; size = 4
tv257 = -124						; size = 4
tv237 = -124						; size = 4
tv208 = -124						; size = 4
tv188 = -124						; size = 4
tv167 = -124						; size = 4
tv147 = -124						; size = 4
tv95 = -124						; size = 4
tv319 = -120						; size = 4
tv297 = -120						; size = 4
tv272 = -120						; size = 4
tv249 = -120						; size = 4
tv229 = -120						; size = 4
tv200 = -120						; size = 4
tv180 = -120						; size = 4
tv159 = -120						; size = 4
tv139 = -120						; size = 4
tv87 = -120						; size = 4
$T1 = -116						; size = 4
_raw$ = -48						; size = 4
_group_count$ = -44					; size = 4
_sleep$ = -40						; size = 4
_distance$ = -36					; size = 4
_vec$ = -32						; size = 12
_wp_pos$ = -20						; size = 4
_mb_pos$ = -16						; size = 4
_wp$ = -12						; size = 4
_group$ = -8						; size = 4
_mb$ = -4						; size = 4
_message$ = 8						; size = 4
_receiver$ = 12						; size = 4
_sender$ = 16						; size = 4
_pargs$ = 20						; size = 4
?response_to_waypoint_convoy_reached@@YGHW4ENTITY_MESSAGES@@PAUENTITY@@1PAD@Z PROC ; response_to_waypoint_convoy_reached, COMDAT

; 656  : {

  00000	55		 push	 ebp
  00001	8b ec		 mov	 ebp, esp
  00003	81 ec 80 00 00
	00		 sub	 esp, 128		; 00000080H
  00009	53		 push	 ebx
  0000a	56		 push	 esi
  0000b	57		 push	 edi

; 657  : 
; 658  : 	entity
; 659  : 		*mb,
; 660  : 		*group,
; 661  : 		*wp;
; 662  : 
; 663  : 	vec3d
; 664  : 		*mb_pos,
; 665  : 		*wp_pos,
; 666  : 		vec;
; 667  : 
; 668  : 	float
; 669  : 		distance,
; 670  : 		sleep;
; 671  : 
; 672  : 	int
; 673  : 		group_count;
; 674  : 
; 675  : 	mobile
; 676  : 		*raw;
; 677  : 
; 678  : 	ASSERT (sender);

  0000c	83 7d 10 00	 cmp	 DWORD PTR _sender$[ebp], 0
  00010	75 18		 jne	 SHORT $LN4@response_t
  00012	a1 00 00 00 00	 mov	 eax, DWORD PTR ?__LINE__Var@?0??response_to_waypoint_convoy_reached@@YGHW4ENTITY_MESSAGES@@PAUENTITY@@1PAD@Z@4JA
  00017	83 c0 16	 add	 eax, 22			; 00000016H
  0001a	50		 push	 eax
  0001b	68 00 00 00 00	 push	 OFFSET ??_C@_0EE@DLIIEJCN@c?3?2users?2nhv90?2projects?2eech?2ap@
  00020	68 00 00 00 00	 push	 OFFSET ??_C@_06CGHJMPBJ@sender@
  00025	e8 00 00 00 00	 call	 ?process_assert@@YGXPBD0H@Z ; process_assert
$LN4@response_t:

; 679  : 
; 680  : 	ASSERT (sender->type == ENTITY_TYPE_WAYPOINT);

  0002a	8b 45 10	 mov	 eax, DWORD PTR _sender$[ebp]
  0002d	83 38 24	 cmp	 DWORD PTR [eax], 36	; 00000024H
  00030	74 18		 je	 SHORT $LN5@response_t
  00032	a1 00 00 00 00	 mov	 eax, DWORD PTR ?__LINE__Var@?0??response_to_waypoint_convoy_reached@@YGHW4ENTITY_MESSAGES@@PAUENTITY@@1PAD@Z@4JA
  00037	83 c0 18	 add	 eax, 24			; 00000018H
  0003a	50		 push	 eax
  0003b	68 00 00 00 00	 push	 OFFSET ??_C@_0EE@DLIIEJCN@c?3?2users?2nhv90?2projects?2eech?2ap@
  00040	68 00 00 00 00	 push	 OFFSET ??_C@_0CF@JOKOGIDD@sender?9?$DOtype?5?$DN?$DN?5ENTITY_TYPE_WAY@
  00045	e8 00 00 00 00	 call	 ?process_assert@@YGXPBD0H@Z ; process_assert
$LN5@response_t:

; 681  : 
; 682  : 	ASSERT (get_comms_model () == COMMS_MODEL_SERVER);

  0004a	83 3d 00 00 00
	00 00		 cmp	 DWORD PTR ?system_comms_model@@3W4COMMS_MODEL_TYPES@@A, 0 ; system_comms_model
  00051	74 18		 je	 SHORT $LN6@response_t
  00053	a1 00 00 00 00	 mov	 eax, DWORD PTR ?__LINE__Var@?0??response_to_waypoint_convoy_reached@@YGHW4ENTITY_MESSAGES@@PAUENTITY@@1PAD@Z@4JA
  00058	83 c0 1a	 add	 eax, 26			; 0000001aH
  0005b	50		 push	 eax
  0005c	68 00 00 00 00	 push	 OFFSET ??_C@_0EE@DLIIEJCN@c?3?2users?2nhv90?2projects?2eech?2ap@
  00061	68 00 00 00 00	 push	 OFFSET ??_C@_0CJ@DMBLBJBK@get_comms_model?5?$CI?$CJ?5?$DN?$DN?5COMMS_MOD@
  00066	e8 00 00 00 00	 call	 ?process_assert@@YGXPBD0H@Z ; process_assert
$LN6@response_t:

; 683  : 
; 684  : 	#if DEBUG_MODULE >= 2
; 685  : 
; 686  : 	debug_log_entity_message (message, receiver, sender, pargs);
; 687  : 
; 688  : 	#endif
; 689  : 
; 690  : 	group_count = 0;

  0006b	c7 45 d4 00 00
	00 00		 mov	 DWORD PTR _group_count$[ebp], 0

; 691  : 	
; 692  : 	raw = (mobile *) get_local_entity_data (receiver);

  00072	8b 45 0c	 mov	 eax, DWORD PTR _receiver$[ebp]
  00075	8b 48 04	 mov	 ecx, DWORD PTR [eax+4]
  00078	89 4d d0	 mov	 DWORD PTR _raw$[ebp], ecx

; 693  : 
; 694  : 	set_local_entity_float_value (receiver, FLOAT_TYPE_VIEW_INTEREST_LEVEL, DEFAULT_VIEW_INTEREST_LEVEL);

  0007b	83 7d 0c 00	 cmp	 DWORD PTR _receiver$[ebp], 0
  0007f	74 0a		 je	 SHORT $LN9@response_t
  00081	8b 45 0c	 mov	 eax, DWORD PTR _receiver$[ebp]
  00084	8b 08		 mov	 ecx, DWORD PTR [eax]
  00086	89 4d 88	 mov	 DWORD PTR tv87[ebp], ecx
  00089	eb 21		 jmp	 SHORT $LN10@response_t
$LN9@response_t:
  0008b	8b 15 00 00 00
	00		 mov	 edx, DWORD PTR ?__LINE__Var@?0??response_to_waypoint_convoy_reached@@YGHW4ENTITY_MESSAGES@@PAUENTITY@@1PAD@Z@4JA
  00091	83 c2 26	 add	 edx, 38			; 00000026H
  00094	52		 push	 edx
  00095	68 00 00 00 00	 push	 OFFSET ??_C@_0EE@DLIIEJCN@c?3?2users?2nhv90?2projects?2eech?2ap@
  0009a	a1 00 00 00 00	 mov	 eax, DWORD PTR ?null_entity_pointer_message@@3PBDB ; null_entity_pointer_message
  0009f	50		 push	 eax
  000a0	e8 00 00 00 00	 call	 ?process_assert@@YGXPBD0H@Z ; process_assert
  000a5	c7 45 88 00 00
	00 00		 mov	 DWORD PTR tv87[ebp], 0
$LN10@response_t:
  000ac	b9 01 00 00 00	 mov	 ecx, 1
  000b1	85 c9		 test	 ecx, ecx
  000b3	74 09		 je	 SHORT $LN11@response_t
  000b5	c7 45 84 95 00
	00 00		 mov	 DWORD PTR tv95[ebp], 149 ; 00000095H
  000bc	eb 21		 jmp	 SHORT $LN12@response_t
$LN11@response_t:
  000be	8b 15 00 00 00
	00		 mov	 edx, DWORD PTR ?__LINE__Var@?0??response_to_waypoint_convoy_reached@@YGHW4ENTITY_MESSAGES@@PAUENTITY@@1PAD@Z@4JA
  000c4	83 c2 26	 add	 edx, 38			; 00000026H
  000c7	52		 push	 edx
  000c8	68 00 00 00 00	 push	 OFFSET ??_C@_0EE@DLIIEJCN@c?3?2users?2nhv90?2projects?2eech?2ap@
  000cd	a1 00 00 00 00	 mov	 eax, DWORD PTR ?overload_invalid_float_type_message@@3PBDB ; overload_invalid_float_type_message
  000d2	50		 push	 eax
  000d3	e8 00 00 00 00	 call	 ?process_assert@@YGXPBD0H@Z ; process_assert
  000d8	c7 45 84 00 00
	00 00		 mov	 DWORD PTR tv95[ebp], 0
$LN12@response_t:
  000df	51		 push	 ecx
  000e0	f3 0f 10 05 00
	00 00 00	 movss	 xmm0, DWORD PTR __real@40a00000
  000e8	f3 0f 11 04 24	 movss	 DWORD PTR [esp], xmm0
  000ed	68 95 00 00 00	 push	 149			; 00000095H
  000f2	8b 4d 0c	 mov	 ecx, DWORD PTR _receiver$[ebp]
  000f5	51		 push	 ecx
  000f6	69 55 88 bc 02
	00 00		 imul	 edx, DWORD PTR tv87[ebp], 700
  000fd	8b 45 84	 mov	 eax, DWORD PTR tv95[ebp]
  00100	8b 8c 82 00 00
	00 00		 mov	 ecx, DWORD PTR ?fn_set_local_entity_float_value@@3PAY0KP@P6GXPAUENTITY@@W4FLOAT_TYPES@@M@ZA[edx+eax*4]
  00107	ff d1		 call	 ecx

; 695  : 
; 696  : 	//
; 697  : 	// work out sleep timer
; 698  : 	//
; 699  : 
; 700  : 	group = get_local_entity_parent (receiver, LIST_TYPE_MEMBER);

  00109	83 7d 0c 00	 cmp	 DWORD PTR _receiver$[ebp], 0
  0010d	74 0a		 je	 SHORT $LN13@response_t
  0010f	8b 45 0c	 mov	 eax, DWORD PTR _receiver$[ebp]
  00112	8b 08		 mov	 ecx, DWORD PTR [eax]
  00114	89 4d 88	 mov	 DWORD PTR tv139[ebp], ecx
  00117	eb 21		 jmp	 SHORT $LN14@response_t
$LN13@response_t:
  00119	8b 15 00 00 00
	00		 mov	 edx, DWORD PTR ?__LINE__Var@?0??response_to_waypoint_convoy_reached@@YGHW4ENTITY_MESSAGES@@PAUENTITY@@1PAD@Z@4JA
  0011f	83 c2 2c	 add	 edx, 44			; 0000002cH
  00122	52		 push	 edx
  00123	68 00 00 00 00	 push	 OFFSET ??_C@_0EE@DLIIEJCN@c?3?2users?2nhv90?2projects?2eech?2ap@
  00128	a1 00 00 00 00	 mov	 eax, DWORD PTR ?null_entity_pointer_message@@3PBDB ; null_entity_pointer_message
  0012d	50		 push	 eax
  0012e	e8 00 00 00 00	 call	 ?process_assert@@YGXPBD0H@Z ; process_assert
  00133	c7 45 88 00 00
	00 00		 mov	 DWORD PTR tv139[ebp], 0
$LN14@response_t:
  0013a	b9 01 00 00 00	 mov	 ecx, 1
  0013f	85 c9		 test	 ecx, ecx
  00141	74 09		 je	 SHORT $LN15@response_t
  00143	c7 45 84 19 00
	00 00		 mov	 DWORD PTR tv147[ebp], 25 ; 00000019H
  0014a	eb 21		 jmp	 SHORT $LN16@response_t
$LN15@response_t:
  0014c	8b 15 00 00 00
	00		 mov	 edx, DWORD PTR ?__LINE__Var@?0??response_to_waypoint_convoy_reached@@YGHW4ENTITY_MESSAGES@@PAUENTITY@@1PAD@Z@4JA
  00152	83 c2 2c	 add	 edx, 44			; 0000002cH
  00155	52		 push	 edx
  00156	68 00 00 00 00	 push	 OFFSET ??_C@_0EE@DLIIEJCN@c?3?2users?2nhv90?2projects?2eech?2ap@
  0015b	a1 00 00 00 00	 mov	 eax, DWORD PTR ?overload_invalid_list_type_message@@3PBDB ; overload_invalid_list_type_message
  00160	50		 push	 eax
  00161	e8 00 00 00 00	 call	 ?process_assert@@YGXPBD0H@Z ; process_assert
  00166	c7 45 84 00 00
	00 00		 mov	 DWORD PTR tv147[ebp], 0
$LN16@response_t:
  0016d	6a 19		 push	 25			; 00000019H
  0016f	8b 4d 0c	 mov	 ecx, DWORD PTR _receiver$[ebp]
  00172	51		 push	 ecx
  00173	69 55 88 b4 00
	00 00		 imul	 edx, DWORD PTR tv139[ebp], 180
  0017a	8b 45 84	 mov	 eax, DWORD PTR tv147[ebp]
  0017d	8b 8c 82 00 00
	00 00		 mov	 ecx, DWORD PTR ?fn_get_local_entity_parent@@3PAY0CN@P6GPAUENTITY@@PAU1@W4LIST_TYPES@@@ZA[edx+eax*4]
  00184	ff d1		 call	 ecx
  00186	89 45 f8	 mov	 DWORD PTR _group$[ebp], eax

; 701  : 
; 702  : 	mb = get_local_entity_first_child (group, LIST_TYPE_MEMBER);

  00189	83 7d f8 00	 cmp	 DWORD PTR _group$[ebp], 0
  0018d	74 0a		 je	 SHORT $LN17@response_t
  0018f	8b 45 f8	 mov	 eax, DWORD PTR _group$[ebp]
  00192	8b 08		 mov	 ecx, DWORD PTR [eax]
  00194	89 4d 88	 mov	 DWORD PTR tv159[ebp], ecx
  00197	eb 21		 jmp	 SHORT $LN18@response_t
$LN17@response_t:
  00199	8b 15 00 00 00
	00		 mov	 edx, DWORD PTR ?__LINE__Var@?0??response_to_waypoint_convoy_reached@@YGHW4ENTITY_MESSAGES@@PAUENTITY@@1PAD@Z@4JA
  0019f	83 c2 2e	 add	 edx, 46			; 0000002eH
  001a2	52		 push	 edx
  001a3	68 00 00 00 00	 push	 OFFSET ??_C@_0EE@DLIIEJCN@c?3?2users?2nhv90?2projects?2eech?2ap@
  001a8	a1 00 00 00 00	 mov	 eax, DWORD PTR ?null_entity_pointer_message@@3PBDB ; null_entity_pointer_message
  001ad	50		 push	 eax
  001ae	e8 00 00 00 00	 call	 ?process_assert@@YGXPBD0H@Z ; process_assert
  001b3	c7 45 88 00 00
	00 00		 mov	 DWORD PTR tv159[ebp], 0
$LN18@response_t:
  001ba	b9 01 00 00 00	 mov	 ecx, 1
  001bf	85 c9		 test	 ecx, ecx
  001c1	74 09		 je	 SHORT $LN19@response_t
  001c3	c7 45 84 19 00
	00 00		 mov	 DWORD PTR tv167[ebp], 25 ; 00000019H
  001ca	eb 21		 jmp	 SHORT $LN20@response_t
$LN19@response_t:
  001cc	8b 15 00 00 00
	00		 mov	 edx, DWORD PTR ?__LINE__Var@?0??response_to_waypoint_convoy_reached@@YGHW4ENTITY_MESSAGES@@PAUENTITY@@1PAD@Z@4JA
  001d2	83 c2 2e	 add	 edx, 46			; 0000002eH
  001d5	52		 push	 edx
  001d6	68 00 00 00 00	 push	 OFFSET ??_C@_0EE@DLIIEJCN@c?3?2users?2nhv90?2projects?2eech?2ap@
  001db	a1 00 00 00 00	 mov	 eax, DWORD PTR ?overload_invalid_list_type_message@@3PBDB ; overload_invalid_list_type_message
  001e0	50		 push	 eax
  001e1	e8 00 00 00 00	 call	 ?process_assert@@YGXPBD0H@Z ; process_assert
  001e6	c7 45 84 00 00
	00 00		 mov	 DWORD PTR tv167[ebp], 0
$LN20@response_t:
  001ed	6a 19		 push	 25			; 00000019H
  001ef	8b 4d f8	 mov	 ecx, DWORD PTR _group$[ebp]
  001f2	51		 push	 ecx
  001f3	69 55 88 b4 00
	00 00		 imul	 edx, DWORD PTR tv159[ebp], 180
  001fa	8b 45 84	 mov	 eax, DWORD PTR tv167[ebp]
  001fd	8b 8c 82 00 00
	00 00		 mov	 ecx, DWORD PTR ?fn_get_local_entity_first_child@@3PAY0CN@P6GPAUENTITY@@PAU1@W4LIST_TYPES@@@ZA[edx+eax*4]
  00204	ff d1		 call	 ecx
  00206	89 45 fc	 mov	 DWORD PTR _mb$[ebp], eax

; 703  : 	
; 704  : 	wp = sender;

  00209	8b 45 10	 mov	 eax, DWORD PTR _sender$[ebp]
  0020c	89 45 f4	 mov	 DWORD PTR _wp$[ebp], eax
$LN2@response_t:

; 705  : 
; 706  : 	while (mb)

  0020f	83 7d fc 00	 cmp	 DWORD PTR _mb$[ebp], 0
  00213	0f 84 11 04 00
	00		 je	 $LN3@response_t

; 707  : 	{
; 708  : 	
; 709  : 		//get_formation_position (get_local_entity_int_value (wp, INT_TYPE_WAYPOINT_FORMATION), get_local_entity_int_value (mb, INT_TYPE_FORMATION_POSITION), &vec);
; 710  : 	
; 711  : 		//distance = sqrt ((vec.x * vec.x) + (vec.y * vec.y) + (vec.z * vec.z));
; 712  : 		mb_pos = get_local_entity_vec3d_ptr (mb, VEC3D_TYPE_POSITION);

  00219	83 7d fc 00	 cmp	 DWORD PTR _mb$[ebp], 0
  0021d	74 0a		 je	 SHORT $LN21@response_t
  0021f	8b 45 fc	 mov	 eax, DWORD PTR _mb$[ebp]
  00222	8b 08		 mov	 ecx, DWORD PTR [eax]
  00224	89 4d 88	 mov	 DWORD PTR tv180[ebp], ecx
  00227	eb 21		 jmp	 SHORT $LN22@response_t
$LN21@response_t:
  00229	8b 15 00 00 00
	00		 mov	 edx, DWORD PTR ?__LINE__Var@?0??response_to_waypoint_convoy_reached@@YGHW4ENTITY_MESSAGES@@PAUENTITY@@1PAD@Z@4JA
  0022f	83 c2 38	 add	 edx, 56			; 00000038H
  00232	52		 push	 edx
  00233	68 00 00 00 00	 push	 OFFSET ??_C@_0EE@DLIIEJCN@c?3?2users?2nhv90?2projects?2eech?2ap@
  00238	a1 00 00 00 00	 mov	 eax, DWORD PTR ?null_entity_pointer_message@@3PBDB ; null_entity_pointer_message
  0023d	50		 push	 eax
  0023e	e8 00 00 00 00	 call	 ?process_assert@@YGXPBD0H@Z ; process_assert
  00243	c7 45 88 00 00
	00 00		 mov	 DWORD PTR tv180[ebp], 0
$LN22@response_t:
  0024a	b9 01 00 00 00	 mov	 ecx, 1
  0024f	85 c9		 test	 ecx, ecx
  00251	74 09		 je	 SHORT $LN23@response_t
  00253	c7 45 84 08 00
	00 00		 mov	 DWORD PTR tv188[ebp], 8
  0025a	eb 21		 jmp	 SHORT $LN24@response_t
$LN23@response_t:
  0025c	8b 15 00 00 00
	00		 mov	 edx, DWORD PTR ?__LINE__Var@?0??response_to_waypoint_convoy_reached@@YGHW4ENTITY_MESSAGES@@PAUENTITY@@1PAD@Z@4JA
  00262	83 c2 38	 add	 edx, 56			; 00000038H
  00265	52		 push	 edx
  00266	68 00 00 00 00	 push	 OFFSET ??_C@_0EE@DLIIEJCN@c?3?2users?2nhv90?2projects?2eech?2ap@
  0026b	a1 00 00 00 00	 mov	 eax, DWORD PTR ?overload_invalid_vec3d_type_message@@3PBDB ; overload_invalid_vec3d_type_message
  00270	50		 push	 eax
  00271	e8 00 00 00 00	 call	 ?process_assert@@YGXPBD0H@Z ; process_assert
  00276	c7 45 84 00 00
	00 00		 mov	 DWORD PTR tv188[ebp], 0
$LN24@response_t:
  0027d	6a 08		 push	 8
  0027f	8b 4d fc	 mov	 ecx, DWORD PTR _mb$[ebp]
  00282	51		 push	 ecx
  00283	6b 55 88 60	 imul	 edx, DWORD PTR tv180[ebp], 96
  00287	8b 45 84	 mov	 eax, DWORD PTR tv188[ebp]
  0028a	8b 8c 82 00 00
	00 00		 mov	 ecx, DWORD PTR ?fn_get_local_entity_vec3d_ptr@@3PAY0BI@P6GPAUVEC3D@@PAUENTITY@@W4VEC3D_TYPES@@@ZA[edx+eax*4]
  00291	ff d1		 call	 ecx
  00293	89 45 f0	 mov	 DWORD PTR _mb_pos$[ebp], eax

; 713  : 		wp_pos = get_local_entity_vec3d_ptr (wp, VEC3D_TYPE_POSITION);

  00296	83 7d f4 00	 cmp	 DWORD PTR _wp$[ebp], 0
  0029a	74 0a		 je	 SHORT $LN25@response_t
  0029c	8b 45 f4	 mov	 eax, DWORD PTR _wp$[ebp]
  0029f	8b 08		 mov	 ecx, DWORD PTR [eax]
  002a1	89 4d 88	 mov	 DWORD PTR tv200[ebp], ecx
  002a4	eb 21		 jmp	 SHORT $LN26@response_t
$LN25@response_t:
  002a6	8b 15 00 00 00
	00		 mov	 edx, DWORD PTR ?__LINE__Var@?0??response_to_waypoint_convoy_reached@@YGHW4ENTITY_MESSAGES@@PAUENTITY@@1PAD@Z@4JA
  002ac	83 c2 39	 add	 edx, 57			; 00000039H
  002af	52		 push	 edx
  002b0	68 00 00 00 00	 push	 OFFSET ??_C@_0EE@DLIIEJCN@c?3?2users?2nhv90?2projects?2eech?2ap@
  002b5	a1 00 00 00 00	 mov	 eax, DWORD PTR ?null_entity_pointer_message@@3PBDB ; null_entity_pointer_message
  002ba	50		 push	 eax
  002bb	e8 00 00 00 00	 call	 ?process_assert@@YGXPBD0H@Z ; process_assert
  002c0	c7 45 88 00 00
	00 00		 mov	 DWORD PTR tv200[ebp], 0
$LN26@response_t:
  002c7	b9 01 00 00 00	 mov	 ecx, 1
  002cc	85 c9		 test	 ecx, ecx
  002ce	74 09		 je	 SHORT $LN27@response_t
  002d0	c7 45 84 08 00
	00 00		 mov	 DWORD PTR tv208[ebp], 8
  002d7	eb 21		 jmp	 SHORT $LN28@response_t
$LN27@response_t:
  002d9	8b 15 00 00 00
	00		 mov	 edx, DWORD PTR ?__LINE__Var@?0??response_to_waypoint_convoy_reached@@YGHW4ENTITY_MESSAGES@@PAUENTITY@@1PAD@Z@4JA
  002df	83 c2 39	 add	 edx, 57			; 00000039H
  002e2	52		 push	 edx
  002e3	68 00 00 00 00	 push	 OFFSET ??_C@_0EE@DLIIEJCN@c?3?2users?2nhv90?2projects?2eech?2ap@
  002e8	a1 00 00 00 00	 mov	 eax, DWORD PTR ?overload_invalid_vec3d_type_message@@3PBDB ; overload_invalid_vec3d_type_message
  002ed	50		 push	 eax
  002ee	e8 00 00 00 00	 call	 ?process_assert@@YGXPBD0H@Z ; process_assert
  002f3	c7 45 84 00 00
	00 00		 mov	 DWORD PTR tv208[ebp], 0
$LN28@response_t:
  002fa	6a 08		 push	 8
  002fc	8b 4d f4	 mov	 ecx, DWORD PTR _wp$[ebp]
  002ff	51		 push	 ecx
  00300	6b 55 88 60	 imul	 edx, DWORD PTR tv200[ebp], 96
  00304	8b 45 84	 mov	 eax, DWORD PTR tv208[ebp]
  00307	8b 8c 82 00 00
	00 00		 mov	 ecx, DWORD PTR ?fn_get_local_entity_vec3d_ptr@@3PAY0BI@P6GPAUVEC3D@@PAUENTITY@@W4VEC3D_TYPES@@@ZA[edx+eax*4]
  0030e	ff d1		 call	 ecx
  00310	89 45 ec	 mov	 DWORD PTR _wp_pos$[ebp], eax

; 714  : 		vec.x = wp_pos->x - mb_pos->x;

  00313	8b 45 ec	 mov	 eax, DWORD PTR _wp_pos$[ebp]
  00316	8b 4d f0	 mov	 ecx, DWORD PTR _mb_pos$[ebp]
  00319	f3 0f 10 00	 movss	 xmm0, DWORD PTR [eax]
  0031d	f3 0f 5c 01	 subss	 xmm0, DWORD PTR [ecx]
  00321	f3 0f 11 45 e0	 movss	 DWORD PTR _vec$[ebp], xmm0

; 715  : 		vec.z = wp_pos->z - mb_pos->z;

  00326	8b 45 ec	 mov	 eax, DWORD PTR _wp_pos$[ebp]
  00329	8b 4d f0	 mov	 ecx, DWORD PTR _mb_pos$[ebp]
  0032c	f3 0f 10 40 08	 movss	 xmm0, DWORD PTR [eax+8]
  00331	f3 0f 5c 41 08	 subss	 xmm0, DWORD PTR [ecx+8]
  00336	f3 0f 11 45 e8	 movss	 DWORD PTR _vec$[ebp+8], xmm0

; 716  : 		distance = normalise_any_3d_vector (&vec);

  0033b	8d 45 e0	 lea	 eax, DWORD PTR _vec$[ebp]
  0033e	50		 push	 eax
  0033f	e8 00 00 00 00	 call	 ?normalise_any_3d_vector@@YGMPAUVEC3D@@@Z ; normalise_any_3d_vector
  00344	d9 5d dc	 fstp	 DWORD PTR _distance$[ebp]

; 717  : 	
; 718  : 		if (group)

  00347	83 7d f8 00	 cmp	 DWORD PTR _group$[ebp], 0
  0034b	0f 84 83 00 00
	00		 je	 $LN7@response_t

; 719  : 		{
; 720  : 	
; 721  : 			group_count = get_local_entity_int_value (group, INT_TYPE_MEMBER_COUNT);

  00351	83 7d f8 00	 cmp	 DWORD PTR _group$[ebp], 0
  00355	74 0a		 je	 SHORT $LN29@response_t
  00357	8b 45 f8	 mov	 eax, DWORD PTR _group$[ebp]
  0035a	8b 08		 mov	 ecx, DWORD PTR [eax]
  0035c	89 4d 88	 mov	 DWORD PTR tv229[ebp], ecx
  0035f	eb 21		 jmp	 SHORT $LN30@response_t
$LN29@response_t:
  00361	8b 15 00 00 00
	00		 mov	 edx, DWORD PTR ?__LINE__Var@?0??response_to_waypoint_convoy_reached@@YGHW4ENTITY_MESSAGES@@PAUENTITY@@1PAD@Z@4JA
  00367	83 c2 41	 add	 edx, 65			; 00000041H
  0036a	52		 push	 edx
  0036b	68 00 00 00 00	 push	 OFFSET ??_C@_0EE@DLIIEJCN@c?3?2users?2nhv90?2projects?2eech?2ap@
  00370	a1 00 00 00 00	 mov	 eax, DWORD PTR ?null_entity_pointer_message@@3PBDB ; null_entity_pointer_message
  00375	50		 push	 eax
  00376	e8 00 00 00 00	 call	 ?process_assert@@YGXPBD0H@Z ; process_assert
  0037b	c7 45 88 00 00
	00 00		 mov	 DWORD PTR tv229[ebp], 0
$LN30@response_t:
  00382	b9 01 00 00 00	 mov	 ecx, 1
  00387	85 c9		 test	 ecx, ecx
  00389	74 09		 je	 SHORT $LN31@response_t
  0038b	c7 45 84 86 00
	00 00		 mov	 DWORD PTR tv237[ebp], 134 ; 00000086H
  00392	eb 21		 jmp	 SHORT $LN32@response_t
$LN31@response_t:
  00394	8b 15 00 00 00
	00		 mov	 edx, DWORD PTR ?__LINE__Var@?0??response_to_waypoint_convoy_reached@@YGHW4ENTITY_MESSAGES@@PAUENTITY@@1PAD@Z@4JA
  0039a	83 c2 41	 add	 edx, 65			; 00000041H
  0039d	52		 push	 edx
  0039e	68 00 00 00 00	 push	 OFFSET ??_C@_0EE@DLIIEJCN@c?3?2users?2nhv90?2projects?2eech?2ap@
  003a3	a1 00 00 00 00	 mov	 eax, DWORD PTR ?overload_invalid_int_type_message@@3PBDB ; overload_invalid_int_type_message
  003a8	50		 push	 eax
  003a9	e8 00 00 00 00	 call	 ?process_assert@@YGXPBD0H@Z ; process_assert
  003ae	c7 45 84 00 00
	00 00		 mov	 DWORD PTR tv237[ebp], 0
$LN32@response_t:
  003b5	68 86 00 00 00	 push	 134			; 00000086H
  003ba	8b 4d f8	 mov	 ecx, DWORD PTR _group$[ebp]
  003bd	51		 push	 ecx
  003be	69 55 88 5c 04
	00 00		 imul	 edx, DWORD PTR tv229[ebp], 1116
  003c5	8b 45 84	 mov	 eax, DWORD PTR tv237[ebp]
  003c8	8b 8c 82 00 00
	00 00		 mov	 ecx, DWORD PTR ?fn_get_local_entity_int_value@@3PAY0BBH@P6GHPAUENTITY@@W4INT_TYPES@@@ZA[edx+eax*4]
  003cf	ff d1		 call	 ecx
  003d1	89 45 d4	 mov	 DWORD PTR _group_count$[ebp], eax
$LN7@response_t:

; 722  : 		}
; 723  : 
; 724  : 		// index number
; 725  : 		sleep = INITIAL_SLEEP_TIME + (OFFSET_SLEEP_TIME * get_local_entity_int_value (mb, INT_TYPE_FORMATION_POSITION));

  003d4	83 7d fc 00	 cmp	 DWORD PTR _mb$[ebp], 0
  003d8	74 0a		 je	 SHORT $LN33@response_t
  003da	8b 45 fc	 mov	 eax, DWORD PTR _mb$[ebp]
  003dd	8b 08		 mov	 ecx, DWORD PTR [eax]
  003df	89 4d 88	 mov	 DWORD PTR tv249[ebp], ecx
  003e2	eb 21		 jmp	 SHORT $LN34@response_t
$LN33@response_t:
  003e4	8b 15 00 00 00
	00		 mov	 edx, DWORD PTR ?__LINE__Var@?0??response_to_waypoint_convoy_reached@@YGHW4ENTITY_MESSAGES@@PAUENTITY@@1PAD@Z@4JA
  003ea	83 c2 45	 add	 edx, 69			; 00000045H
  003ed	52		 push	 edx
  003ee	68 00 00 00 00	 push	 OFFSET ??_C@_0EE@DLIIEJCN@c?3?2users?2nhv90?2projects?2eech?2ap@
  003f3	a1 00 00 00 00	 mov	 eax, DWORD PTR ?null_entity_pointer_message@@3PBDB ; null_entity_pointer_message
  003f8	50		 push	 eax
  003f9	e8 00 00 00 00	 call	 ?process_assert@@YGXPBD0H@Z ; process_assert
  003fe	c7 45 88 00 00
	00 00		 mov	 DWORD PTR tv249[ebp], 0
$LN34@response_t:
  00405	b9 01 00 00 00	 mov	 ecx, 1
  0040a	85 c9		 test	 ecx, ecx
  0040c	74 09		 je	 SHORT $LN35@response_t
  0040e	c7 45 84 3e 00
	00 00		 mov	 DWORD PTR tv257[ebp], 62 ; 0000003eH
  00415	eb 21		 jmp	 SHORT $LN36@response_t
$LN35@response_t:
  00417	8b 15 00 00 00
	00		 mov	 edx, DWORD PTR ?__LINE__Var@?0??response_to_waypoint_convoy_reached@@YGHW4ENTITY_MESSAGES@@PAUENTITY@@1PAD@Z@4JA
  0041d	83 c2 45	 add	 edx, 69			; 00000045H
  00420	52		 push	 edx
  00421	68 00 00 00 00	 push	 OFFSET ??_C@_0EE@DLIIEJCN@c?3?2users?2nhv90?2projects?2eech?2ap@
  00426	a1 00 00 00 00	 mov	 eax, DWORD PTR ?overload_invalid_int_type_message@@3PBDB ; overload_invalid_int_type_message
  0042b	50		 push	 eax
  0042c	e8 00 00 00 00	 call	 ?process_assert@@YGXPBD0H@Z ; process_assert
  00431	c7 45 84 00 00
	00 00		 mov	 DWORD PTR tv257[ebp], 0
$LN36@response_t:
  00438	6a 3e		 push	 62			; 0000003eH
  0043a	8b 4d fc	 mov	 ecx, DWORD PTR _mb$[ebp]
  0043d	51		 push	 ecx
  0043e	69 55 88 5c 04
	00 00		 imul	 edx, DWORD PTR tv249[ebp], 1116
  00445	8b 45 84	 mov	 eax, DWORD PTR tv257[ebp]
  00448	8b 8c 82 00 00
	00 00		 mov	 ecx, DWORD PTR ?fn_get_local_entity_int_value@@3PAY0BBH@P6GHPAUENTITY@@W4INT_TYPES@@@ZA[edx+eax*4]
  0044f	ff d1		 call	 ecx
  00451	8d 54 00 05	 lea	 edx, DWORD PTR [eax+eax+5]
  00455	f3 0f 2a c2	 cvtsi2ss xmm0, edx
  00459	f3 0f 11 45 d8	 movss	 DWORD PTR _sleep$[ebp], xmm0

; 726  : 	
; 727  :   		// allow for distance from wp
; 728  : 		sleep -= distance / get_local_entity_float_value (mb, FLOAT_TYPE_CRUISE_VELOCITY);

  0045e	83 7d fc 00	 cmp	 DWORD PTR _mb$[ebp], 0
  00462	74 0a		 je	 SHORT $LN37@response_t
  00464	8b 45 fc	 mov	 eax, DWORD PTR _mb$[ebp]
  00467	8b 08		 mov	 ecx, DWORD PTR [eax]
  00469	89 4d 88	 mov	 DWORD PTR tv272[ebp], ecx
  0046c	eb 21		 jmp	 SHORT $LN38@response_t
$LN37@response_t:
  0046e	8b 15 00 00 00
	00		 mov	 edx, DWORD PTR ?__LINE__Var@?0??response_to_waypoint_convoy_reached@@YGHW4ENTITY_MESSAGES@@PAUENTITY@@1PAD@Z@4JA
  00474	83 c2 48	 add	 edx, 72			; 00000048H
  00477	52		 push	 edx
  00478	68 00 00 00 00	 push	 OFFSET ??_C@_0EE@DLIIEJCN@c?3?2users?2nhv90?2projects?2eech?2ap@
  0047d	a1 00 00 00 00	 mov	 eax, DWORD PTR ?null_entity_pointer_message@@3PBDB ; null_entity_pointer_message
  00482	50		 push	 eax
  00483	e8 00 00 00 00	 call	 ?process_assert@@YGXPBD0H@Z ; process_assert
  00488	c7 45 88 00 00
	00 00		 mov	 DWORD PTR tv272[ebp], 0
$LN38@response_t:
  0048f	b9 01 00 00 00	 mov	 ecx, 1
  00494	85 c9		 test	 ecx, ecx
  00496	74 09		 je	 SHORT $LN39@response_t
  00498	c7 45 84 19 00
	00 00		 mov	 DWORD PTR tv280[ebp], 25 ; 00000019H
  0049f	eb 21		 jmp	 SHORT $LN40@response_t
$LN39@response_t:
  004a1	8b 15 00 00 00
	00		 mov	 edx, DWORD PTR ?__LINE__Var@?0??response_to_waypoint_convoy_reached@@YGHW4ENTITY_MESSAGES@@PAUENTITY@@1PAD@Z@4JA
  004a7	83 c2 48	 add	 edx, 72			; 00000048H
  004aa	52		 push	 edx
  004ab	68 00 00 00 00	 push	 OFFSET ??_C@_0EE@DLIIEJCN@c?3?2users?2nhv90?2projects?2eech?2ap@
  004b0	a1 00 00 00 00	 mov	 eax, DWORD PTR ?overload_invalid_float_type_message@@3PBDB ; overload_invalid_float_type_message
  004b5	50		 push	 eax
  004b6	e8 00 00 00 00	 call	 ?process_assert@@YGXPBD0H@Z ; process_assert
  004bb	c7 45 84 00 00
	00 00		 mov	 DWORD PTR tv280[ebp], 0
$LN40@response_t:
  004c2	6a 19		 push	 25			; 00000019H
  004c4	8b 4d fc	 mov	 ecx, DWORD PTR _mb$[ebp]
  004c7	51		 push	 ecx
  004c8	69 55 88 bc 02
	00 00		 imul	 edx, DWORD PTR tv272[ebp], 700
  004cf	8b 45 84	 mov	 eax, DWORD PTR tv280[ebp]
  004d2	8b 8c 82 00 00
	00 00		 mov	 ecx, DWORD PTR ?fn_get_local_entity_float_value@@3PAY0KP@P6GMPAUENTITY@@W4FLOAT_TYPES@@@ZA[edx+eax*4]
  004d9	ff d1		 call	 ecx
  004db	d9 5d 80	 fstp	 DWORD PTR tv440[ebp]
  004de	f3 0f 10 45 dc	 movss	 xmm0, DWORD PTR _distance$[ebp]
  004e3	f3 0f 5e 45 80	 divss	 xmm0, DWORD PTR tv440[ebp]
  004e8	f3 0f 10 4d d8	 movss	 xmm1, DWORD PTR _sleep$[ebp]
  004ed	f3 0f 5c c8	 subss	 xmm1, xmm0
  004f1	f3 0f 11 4d d8	 movss	 DWORD PTR _sleep$[ebp], xmm1

; 729  : 
; 730  : 		sleep = max (sleep, 0.0f);

  004f6	0f 57 c0	 xorps	 xmm0, xmm0
  004f9	f3 0f 11 45 8c	 movss	 DWORD PTR $T1[ebp], xmm0
  004fe	8d 45 8c	 lea	 eax, DWORD PTR $T1[ebp]
  00501	50		 push	 eax
  00502	8d 4d d8	 lea	 ecx, DWORD PTR _sleep$[ebp]
  00505	51		 push	 ecx
  00506	e8 00 00 00 00	 call	 ??$max@M@std@@YGABMABM0@Z ; std::max<float>
  0050b	f3 0f 10 00	 movss	 xmm0, DWORD PTR [eax]
  0050f	f3 0f 11 45 d8	 movss	 DWORD PTR _sleep$[ebp], xmm0

; 731  : 	
; 732  : 		set_client_server_entity_float_value (mb, FLOAT_TYPE_SLEEP, sleep);

  00514	83 7d fc 00	 cmp	 DWORD PTR _mb$[ebp], 0
  00518	74 0a		 je	 SHORT $LN41@response_t
  0051a	8b 45 fc	 mov	 eax, DWORD PTR _mb$[ebp]
  0051d	8b 08		 mov	 ecx, DWORD PTR [eax]
  0051f	89 4d 88	 mov	 DWORD PTR tv297[ebp], ecx
  00522	eb 21		 jmp	 SHORT $LN42@response_t
$LN41@response_t:
  00524	8b 15 00 00 00
	00		 mov	 edx, DWORD PTR ?__LINE__Var@?0??response_to_waypoint_convoy_reached@@YGHW4ENTITY_MESSAGES@@PAUENTITY@@1PAD@Z@4JA
  0052a	83 c2 4c	 add	 edx, 76			; 0000004cH
  0052d	52		 push	 edx
  0052e	68 00 00 00 00	 push	 OFFSET ??_C@_0EE@DLIIEJCN@c?3?2users?2nhv90?2projects?2eech?2ap@
  00533	a1 00 00 00 00	 mov	 eax, DWORD PTR ?null_entity_pointer_message@@3PBDB ; null_entity_pointer_message
  00538	50		 push	 eax
  00539	e8 00 00 00 00	 call	 ?process_assert@@YGXPBD0H@Z ; process_assert
  0053e	c7 45 88 00 00
	00 00		 mov	 DWORD PTR tv297[ebp], 0
$LN42@response_t:
  00545	b9 01 00 00 00	 mov	 ecx, 1
  0054a	85 c9		 test	 ecx, ecx
  0054c	74 09		 je	 SHORT $LN43@response_t
  0054e	c7 45 84 75 00
	00 00		 mov	 DWORD PTR tv305[ebp], 117 ; 00000075H
  00555	eb 21		 jmp	 SHORT $LN44@response_t
$LN43@response_t:
  00557	8b 15 00 00 00
	00		 mov	 edx, DWORD PTR ?__LINE__Var@?0??response_to_waypoint_convoy_reached@@YGHW4ENTITY_MESSAGES@@PAUENTITY@@1PAD@Z@4JA
  0055d	83 c2 4c	 add	 edx, 76			; 0000004cH
  00560	52		 push	 edx
  00561	68 00 00 00 00	 push	 OFFSET ??_C@_0EE@DLIIEJCN@c?3?2users?2nhv90?2projects?2eech?2ap@
  00566	a1 00 00 00 00	 mov	 eax, DWORD PTR ?overload_invalid_float_type_message@@3PBDB ; overload_invalid_float_type_message
  0056b	50		 push	 eax
  0056c	e8 00 00 00 00	 call	 ?process_assert@@YGXPBD0H@Z ; process_assert
  00571	c7 45 84 00 00
	00 00		 mov	 DWORD PTR tv305[ebp], 0
$LN44@response_t:
  00578	51		 push	 ecx
  00579	f3 0f 10 45 d8	 movss	 xmm0, DWORD PTR _sleep$[ebp]
  0057e	f3 0f 11 04 24	 movss	 DWORD PTR [esp], xmm0
  00583	6a 75		 push	 117			; 00000075H
  00585	8b 4d fc	 mov	 ecx, DWORD PTR _mb$[ebp]
  00588	51		 push	 ecx
  00589	69 55 88 78 05
	00 00		 imul	 edx, DWORD PTR tv297[ebp], 1400
  00590	8b 45 84	 mov	 eax, DWORD PTR tv305[ebp]
  00593	8d 8c c2 00 00
	00 00		 lea	 ecx, DWORD PTR ?fn_set_client_server_entity_float_value@@3PAY1KP@1P6GXPAUENTITY@@W4FLOAT_TYPES@@M@ZA[edx+eax*8]
  0059a	8b 15 00 00 00
	00		 mov	 edx, DWORD PTR ?system_comms_model@@3W4COMMS_MODEL_TYPES@@A ; system_comms_model
  005a0	8b 04 91	 mov	 eax, DWORD PTR [ecx+edx*4]
  005a3	ff d0		 call	 eax

; 733  : 
; 734  : 		mb = get_local_entity_child_succ (mb, LIST_TYPE_MEMBER);

  005a5	83 7d fc 00	 cmp	 DWORD PTR _mb$[ebp], 0
  005a9	74 0a		 je	 SHORT $LN45@response_t
  005ab	8b 45 fc	 mov	 eax, DWORD PTR _mb$[ebp]
  005ae	8b 08		 mov	 ecx, DWORD PTR [eax]
  005b0	89 4d 88	 mov	 DWORD PTR tv319[ebp], ecx
  005b3	eb 21		 jmp	 SHORT $LN46@response_t
$LN45@response_t:
  005b5	8b 15 00 00 00
	00		 mov	 edx, DWORD PTR ?__LINE__Var@?0??response_to_waypoint_convoy_reached@@YGHW4ENTITY_MESSAGES@@PAUENTITY@@1PAD@Z@4JA
  005bb	83 c2 4e	 add	 edx, 78			; 0000004eH
  005be	52		 push	 edx
  005bf	68 00 00 00 00	 push	 OFFSET ??_C@_0EE@DLIIEJCN@c?3?2users?2nhv90?2projects?2eech?2ap@
  005c4	a1 00 00 00 00	 mov	 eax, DWORD PTR ?null_entity_pointer_message@@3PBDB ; null_entity_pointer_message
  005c9	50		 push	 eax
  005ca	e8 00 00 00 00	 call	 ?process_assert@@YGXPBD0H@Z ; process_assert
  005cf	c7 45 88 00 00
	00 00		 mov	 DWORD PTR tv319[ebp], 0
$LN46@response_t:
  005d6	b9 01 00 00 00	 mov	 ecx, 1
  005db	85 c9		 test	 ecx, ecx
  005dd	74 09		 je	 SHORT $LN47@response_t
  005df	c7 45 84 19 00
	00 00		 mov	 DWORD PTR tv327[ebp], 25 ; 00000019H
  005e6	eb 21		 jmp	 SHORT $LN48@response_t
$LN47@response_t:
  005e8	8b 15 00 00 00
	00		 mov	 edx, DWORD PTR ?__LINE__Var@?0??response_to_waypoint_convoy_reached@@YGHW4ENTITY_MESSAGES@@PAUENTITY@@1PAD@Z@4JA
  005ee	83 c2 4e	 add	 edx, 78			; 0000004eH
  005f1	52		 push	 edx
  005f2	68 00 00 00 00	 push	 OFFSET ??_C@_0EE@DLIIEJCN@c?3?2users?2nhv90?2projects?2eech?2ap@
  005f7	a1 00 00 00 00	 mov	 eax, DWORD PTR ?overload_invalid_list_type_message@@3PBDB ; overload_invalid_list_type_message
  005fc	50		 push	 eax
  005fd	e8 00 00 00 00	 call	 ?process_assert@@YGXPBD0H@Z ; process_assert
  00602	c7 45 84 00 00
	00 00		 mov	 DWORD PTR tv327[ebp], 0
$LN48@response_t:
  00609	6a 19		 push	 25			; 00000019H
  0060b	8b 4d fc	 mov	 ecx, DWORD PTR _mb$[ebp]
  0060e	51		 push	 ecx
  0060f	69 55 88 b4 00
	00 00		 imul	 edx, DWORD PTR tv319[ebp], 180
  00616	8b 45 84	 mov	 eax, DWORD PTR tv327[ebp]
  00619	8b 8c 82 00 00
	00 00		 mov	 ecx, DWORD PTR ?fn_get_local_entity_child_succ@@3PAY0CN@P6GPAUENTITY@@PAU1@W4LIST_TYPES@@@ZA[edx+eax*4]
  00620	ff d1		 call	 ecx
  00622	89 45 fc	 mov	 DWORD PTR _mb$[ebp], eax

; 735  : 	}

  00625	e9 e5 fb ff ff	 jmp	 $LN2@response_t
$LN3@response_t:

; 736  : 
; 737  : 	#if DEBUG_MODULE
; 738  : 	
; 739  : 	if (receiver == get_external_view_entity ())
; 740  : 	{
; 741  : 			
; 742  : 		debug_log ("MB_MSGS: convoy waypoint reached mb %d (gp %d), formation pos %d setting sleep to %f, distance %f", get_local_entity_safe_index (receiver), get_local_entity_safe_index (group), get_local_entity_int_value (receiver, INT_TYPE_FORMATION_POSITION), sleep, distance);
; 743  : 	}
; 744  : 
; 745  : 	#endif
; 746  : 
; 747  : 	return (TRUE);

  0062a	b8 01 00 00 00	 mov	 eax, 1

; 748  : }

  0062f	5f		 pop	 edi
  00630	5e		 pop	 esi
  00631	5b		 pop	 ebx
  00632	8b e5		 mov	 esp, ebp
  00634	5d		 pop	 ebp
  00635	c2 10 00	 ret	 16			; 00000010H
?response_to_waypoint_convoy_reached@@YGHW4ENTITY_MESSAGES@@PAUENTITY@@1PAD@Z ENDP ; response_to_waypoint_convoy_reached
_TEXT	ENDS
; Function compile flags: /Odtp /ZI
; File c:\users\nhv90\projects\eech\aphavoc\source\entity\mobile\mb_msgs.c
;	COMDAT ?response_to_waypoint_attack_action@@YGHW4ENTITY_MESSAGES@@PAUENTITY@@1PAD@Z
_TEXT	SEGMENT
tv437 = -116						; size = 4
tv412 = -116						; size = 4
tv380 = -116						; size = 4
tv355 = -116						; size = 4
tv335 = -116						; size = 4
tv313 = -116						; size = 4
tv300 = -116						; size = 4
tv280 = -116						; size = 4
tv220 = -116						; size = 4
tv202 = -116						; size = 4
tv177 = -116						; size = 4
tv152 = -116						; size = 4
tv95 = -116						; size = 4
tv429 = -112						; size = 4
tv404 = -112						; size = 4
tv372 = -112						; size = 4
tv347 = -112						; size = 4
tv327 = -112						; size = 4
tv312 = -112						; size = 4
tv292 = -112						; size = 4
tv272 = -112						; size = 4
tv213 = -112						; size = 4
tv194 = -112						; size = 4
tv169 = -112						; size = 4
tv144 = -112						; size = 4
tv87 = -112						; size = 4
_sz$1 = -44						; size = 4
_sx$2 = -40						; size = 4
_speech_index$ = -36					; size = 4
_val$ = -32						; size = 4
_task_target_type$ = -28				; size = 4
_objective_pos$ = -24					; size = 4
_raw$ = -20						; size = 4
_side$ = -16						; size = 4
_task$ = -12						; size = 4
_objective$ = -8					; size = 4
_group$ = -4						; size = 4
_message$ = 8						; size = 4
_receiver$ = 12						; size = 4
_sender$ = 16						; size = 4
_pargs$ = 20						; size = 4
?response_to_waypoint_attack_action@@YGHW4ENTITY_MESSAGES@@PAUENTITY@@1PAD@Z PROC ; response_to_waypoint_attack_action, COMDAT

; 492  : {

  00000	55		 push	 ebp
  00001	8b ec		 mov	 ebp, esp
  00003	83 ec 74	 sub	 esp, 116		; 00000074H
  00006	53		 push	 ebx
  00007	56		 push	 esi
  00008	57		 push	 edi

; 493  : 
; 494  : 	entity
; 495  : 		*group,
; 496  : 		*objective,
; 497  : 		*task;
; 498  : 
; 499  : 	entity_sides
; 500  : 		side;
; 501  : 
; 502  : 	mobile
; 503  : 		*raw;
; 504  : 
; 505  : 	vec3d
; 506  : 		*objective_pos;
; 507  : 
; 508  : 	unsigned int
; 509  : 		task_target_type;
; 510  : 
; 511  : 	int
; 512  : 		val,
; 513  : 		speech_index;
; 514  : 
; 515  : 	ASSERT (sender);

  00009	83 7d 10 00	 cmp	 DWORD PTR _sender$[ebp], 0
  0000d	75 18		 jne	 SHORT $LN4@response_t
  0000f	a1 00 00 00 00	 mov	 eax, DWORD PTR ?__LINE__Var@?0??response_to_waypoint_attack_action@@YGHW4ENTITY_MESSAGES@@PAUENTITY@@1PAD@Z@4JA
  00014	83 c0 17	 add	 eax, 23			; 00000017H
  00017	50		 push	 eax
  00018	68 00 00 00 00	 push	 OFFSET ??_C@_0EE@DLIIEJCN@c?3?2users?2nhv90?2projects?2eech?2ap@
  0001d	68 00 00 00 00	 push	 OFFSET ??_C@_06CGHJMPBJ@sender@
  00022	e8 00 00 00 00	 call	 ?process_assert@@YGXPBD0H@Z ; process_assert
$LN4@response_t:

; 516  : 
; 517  : 	ASSERT (sender->type == ENTITY_TYPE_WAYPOINT);

  00027	8b 45 10	 mov	 eax, DWORD PTR _sender$[ebp]
  0002a	83 38 24	 cmp	 DWORD PTR [eax], 36	; 00000024H
  0002d	74 18		 je	 SHORT $LN5@response_t
  0002f	a1 00 00 00 00	 mov	 eax, DWORD PTR ?__LINE__Var@?0??response_to_waypoint_attack_action@@YGHW4ENTITY_MESSAGES@@PAUENTITY@@1PAD@Z@4JA
  00034	83 c0 19	 add	 eax, 25			; 00000019H
  00037	50		 push	 eax
  00038	68 00 00 00 00	 push	 OFFSET ??_C@_0EE@DLIIEJCN@c?3?2users?2nhv90?2projects?2eech?2ap@
  0003d	68 00 00 00 00	 push	 OFFSET ??_C@_0CF@JOKOGIDD@sender?9?$DOtype?5?$DN?$DN?5ENTITY_TYPE_WAY@
  00042	e8 00 00 00 00	 call	 ?process_assert@@YGXPBD0H@Z ; process_assert
$LN5@response_t:

; 518  : 
; 519  : 	ASSERT (get_comms_model () == COMMS_MODEL_SERVER);

  00047	83 3d 00 00 00
	00 00		 cmp	 DWORD PTR ?system_comms_model@@3W4COMMS_MODEL_TYPES@@A, 0 ; system_comms_model
  0004e	74 18		 je	 SHORT $LN6@response_t
  00050	a1 00 00 00 00	 mov	 eax, DWORD PTR ?__LINE__Var@?0??response_to_waypoint_attack_action@@YGHW4ENTITY_MESSAGES@@PAUENTITY@@1PAD@Z@4JA
  00055	83 c0 1b	 add	 eax, 27			; 0000001bH
  00058	50		 push	 eax
  00059	68 00 00 00 00	 push	 OFFSET ??_C@_0EE@DLIIEJCN@c?3?2users?2nhv90?2projects?2eech?2ap@
  0005e	68 00 00 00 00	 push	 OFFSET ??_C@_0CJ@DMBLBJBK@get_comms_model?5?$CI?$CJ?5?$DN?$DN?5COMMS_MOD@
  00063	e8 00 00 00 00	 call	 ?process_assert@@YGXPBD0H@Z ; process_assert
$LN6@response_t:

; 520  : 
; 521  : 	#if DEBUG_MODULE >= 2
; 522  : 
; 523  : 	debug_log_entity_message (message, receiver, sender, pargs);
; 524  : 
; 525  : 	#endif
; 526  : 
; 527  : 	raw = (mobile *) get_local_entity_data (receiver);

  00068	8b 45 0c	 mov	 eax, DWORD PTR _receiver$[ebp]
  0006b	8b 48 04	 mov	 ecx, DWORD PTR [eax+4]
  0006e	89 4d ec	 mov	 DWORD PTR _raw$[ebp], ecx

; 528  : 
; 529  : 	//
; 530  : 	// if the groups current task has an objective - create engage tasks in the objectives sector,
; 531  : 	// else - create engage tasks in the current sector
; 532  : 	// 
; 533  : 
; 534  : 	group = get_local_entity_parent (receiver, LIST_TYPE_MEMBER);

  00071	83 7d 0c 00	 cmp	 DWORD PTR _receiver$[ebp], 0
  00075	74 0a		 je	 SHORT $LN20@response_t
  00077	8b 45 0c	 mov	 eax, DWORD PTR _receiver$[ebp]
  0007a	8b 08		 mov	 ecx, DWORD PTR [eax]
  0007c	89 4d 90	 mov	 DWORD PTR tv87[ebp], ecx
  0007f	eb 21		 jmp	 SHORT $LN21@response_t
$LN20@response_t:
  00081	8b 15 00 00 00
	00		 mov	 edx, DWORD PTR ?__LINE__Var@?0??response_to_waypoint_attack_action@@YGHW4ENTITY_MESSAGES@@PAUENTITY@@1PAD@Z@4JA
  00087	83 c2 2a	 add	 edx, 42			; 0000002aH
  0008a	52		 push	 edx
  0008b	68 00 00 00 00	 push	 OFFSET ??_C@_0EE@DLIIEJCN@c?3?2users?2nhv90?2projects?2eech?2ap@
  00090	a1 00 00 00 00	 mov	 eax, DWORD PTR ?null_entity_pointer_message@@3PBDB ; null_entity_pointer_message
  00095	50		 push	 eax
  00096	e8 00 00 00 00	 call	 ?process_assert@@YGXPBD0H@Z ; process_assert
  0009b	c7 45 90 00 00
	00 00		 mov	 DWORD PTR tv87[ebp], 0
$LN21@response_t:
  000a2	b9 01 00 00 00	 mov	 ecx, 1
  000a7	85 c9		 test	 ecx, ecx
  000a9	74 09		 je	 SHORT $LN22@response_t
  000ab	c7 45 8c 19 00
	00 00		 mov	 DWORD PTR tv95[ebp], 25	; 00000019H
  000b2	eb 21		 jmp	 SHORT $LN23@response_t
$LN22@response_t:
  000b4	8b 15 00 00 00
	00		 mov	 edx, DWORD PTR ?__LINE__Var@?0??response_to_waypoint_attack_action@@YGHW4ENTITY_MESSAGES@@PAUENTITY@@1PAD@Z@4JA
  000ba	83 c2 2a	 add	 edx, 42			; 0000002aH
  000bd	52		 push	 edx
  000be	68 00 00 00 00	 push	 OFFSET ??_C@_0EE@DLIIEJCN@c?3?2users?2nhv90?2projects?2eech?2ap@
  000c3	a1 00 00 00 00	 mov	 eax, DWORD PTR ?overload_invalid_list_type_message@@3PBDB ; overload_invalid_list_type_message
  000c8	50		 push	 eax
  000c9	e8 00 00 00 00	 call	 ?process_assert@@YGXPBD0H@Z ; process_assert
  000ce	c7 45 8c 00 00
	00 00		 mov	 DWORD PTR tv95[ebp], 0
$LN23@response_t:
  000d5	6a 19		 push	 25			; 00000019H
  000d7	8b 4d 0c	 mov	 ecx, DWORD PTR _receiver$[ebp]
  000da	51		 push	 ecx
  000db	69 55 90 b4 00
	00 00		 imul	 edx, DWORD PTR tv87[ebp], 180
  000e2	8b 45 8c	 mov	 eax, DWORD PTR tv95[ebp]
  000e5	8b 8c 82 00 00
	00 00		 mov	 ecx, DWORD PTR ?fn_get_local_entity_parent@@3PAY0CN@P6GPAUENTITY@@PAU1@W4LIST_TYPES@@@ZA[edx+eax*4]
  000ec	ff d1		 call	 ecx
  000ee	89 45 fc	 mov	 DWORD PTR _group$[ebp], eax

; 535  : 
; 536  : 	ASSERT (group);

  000f1	83 7d fc 00	 cmp	 DWORD PTR _group$[ebp], 0
  000f5	75 18		 jne	 SHORT $LN7@response_t
  000f7	a1 00 00 00 00	 mov	 eax, DWORD PTR ?__LINE__Var@?0??response_to_waypoint_attack_action@@YGHW4ENTITY_MESSAGES@@PAUENTITY@@1PAD@Z@4JA
  000fc	83 c0 2c	 add	 eax, 44			; 0000002cH
  000ff	50		 push	 eax
  00100	68 00 00 00 00	 push	 OFFSET ??_C@_0EE@DLIIEJCN@c?3?2users?2nhv90?2projects?2eech?2ap@
  00105	68 00 00 00 00	 push	 OFFSET ??_C@_05MGJOOGAJ@group@
  0010a	e8 00 00 00 00	 call	 ?process_assert@@YGXPBD0H@Z ; process_assert
$LN7@response_t:

; 537  : 
; 538  : 	// Group should not have been assigned this task if it is a passive group
; 539  : 	ASSERT (get_local_entity_int_value (group, INT_TYPE_ENGAGE_ENEMY));

  0010f	83 7d fc 00	 cmp	 DWORD PTR _group$[ebp], 0
  00113	74 0a		 je	 SHORT $LN24@response_t
  00115	8b 45 fc	 mov	 eax, DWORD PTR _group$[ebp]
  00118	8b 08		 mov	 ecx, DWORD PTR [eax]
  0011a	89 4d 90	 mov	 DWORD PTR tv144[ebp], ecx
  0011d	eb 21		 jmp	 SHORT $LN25@response_t
$LN24@response_t:
  0011f	8b 15 00 00 00
	00		 mov	 edx, DWORD PTR ?__LINE__Var@?0??response_to_waypoint_attack_action@@YGHW4ENTITY_MESSAGES@@PAUENTITY@@1PAD@Z@4JA
  00125	83 c2 2f	 add	 edx, 47			; 0000002fH
  00128	52		 push	 edx
  00129	68 00 00 00 00	 push	 OFFSET ??_C@_0EE@DLIIEJCN@c?3?2users?2nhv90?2projects?2eech?2ap@
  0012e	a1 00 00 00 00	 mov	 eax, DWORD PTR ?null_entity_pointer_message@@3PBDB ; null_entity_pointer_message
  00133	50		 push	 eax
  00134	e8 00 00 00 00	 call	 ?process_assert@@YGXPBD0H@Z ; process_assert
  00139	c7 45 90 00 00
	00 00		 mov	 DWORD PTR tv144[ebp], 0
$LN25@response_t:
  00140	b9 01 00 00 00	 mov	 ecx, 1
  00145	85 c9		 test	 ecx, ecx
  00147	74 09		 je	 SHORT $LN26@response_t
  00149	c7 45 8c 33 00
	00 00		 mov	 DWORD PTR tv152[ebp], 51 ; 00000033H
  00150	eb 21		 jmp	 SHORT $LN27@response_t
$LN26@response_t:
  00152	8b 15 00 00 00
	00		 mov	 edx, DWORD PTR ?__LINE__Var@?0??response_to_waypoint_attack_action@@YGHW4ENTITY_MESSAGES@@PAUENTITY@@1PAD@Z@4JA
  00158	83 c2 2f	 add	 edx, 47			; 0000002fH
  0015b	52		 push	 edx
  0015c	68 00 00 00 00	 push	 OFFSET ??_C@_0EE@DLIIEJCN@c?3?2users?2nhv90?2projects?2eech?2ap@
  00161	a1 00 00 00 00	 mov	 eax, DWORD PTR ?overload_invalid_int_type_message@@3PBDB ; overload_invalid_int_type_message
  00166	50		 push	 eax
  00167	e8 00 00 00 00	 call	 ?process_assert@@YGXPBD0H@Z ; process_assert
  0016c	c7 45 8c 00 00
	00 00		 mov	 DWORD PTR tv152[ebp], 0
$LN27@response_t:
  00173	6a 33		 push	 51			; 00000033H
  00175	8b 4d fc	 mov	 ecx, DWORD PTR _group$[ebp]
  00178	51		 push	 ecx
  00179	69 55 90 5c 04
	00 00		 imul	 edx, DWORD PTR tv144[ebp], 1116
  00180	8b 45 8c	 mov	 eax, DWORD PTR tv152[ebp]
  00183	8b 8c 82 00 00
	00 00		 mov	 ecx, DWORD PTR ?fn_get_local_entity_int_value@@3PAY0BBH@P6GHPAUENTITY@@W4INT_TYPES@@@ZA[edx+eax*4]
  0018a	ff d1		 call	 ecx
  0018c	85 c0		 test	 eax, eax
  0018e	75 18		 jne	 SHORT $LN8@response_t
  00190	a1 00 00 00 00	 mov	 eax, DWORD PTR ?__LINE__Var@?0??response_to_waypoint_attack_action@@YGHW4ENTITY_MESSAGES@@PAUENTITY@@1PAD@Z@4JA
  00195	83 c0 2f	 add	 eax, 47			; 0000002fH
  00198	50		 push	 eax
  00199	68 00 00 00 00	 push	 OFFSET ??_C@_0EE@DLIIEJCN@c?3?2users?2nhv90?2projects?2eech?2ap@
  0019e	68 00 00 00 00	 push	 OFFSET ??_C@_0DK@HNNFKJEB@get_local_entity_int_value?5?$CIgro@
  001a3	e8 00 00 00 00	 call	 ?process_assert@@YGXPBD0H@Z ; process_assert
$LN8@response_t:

; 540  : 
; 541  : 	task = get_local_entity_parent (sender, LIST_TYPE_WAYPOINT);

  001a8	83 7d 10 00	 cmp	 DWORD PTR _sender$[ebp], 0
  001ac	74 0a		 je	 SHORT $LN28@response_t
  001ae	8b 45 10	 mov	 eax, DWORD PTR _sender$[ebp]
  001b1	8b 08		 mov	 ecx, DWORD PTR [eax]
  001b3	89 4d 90	 mov	 DWORD PTR tv169[ebp], ecx
  001b6	eb 21		 jmp	 SHORT $LN29@response_t
$LN28@response_t:
  001b8	8b 15 00 00 00
	00		 mov	 edx, DWORD PTR ?__LINE__Var@?0??response_to_waypoint_attack_action@@YGHW4ENTITY_MESSAGES@@PAUENTITY@@1PAD@Z@4JA
  001be	83 c2 31	 add	 edx, 49			; 00000031H
  001c1	52		 push	 edx
  001c2	68 00 00 00 00	 push	 OFFSET ??_C@_0EE@DLIIEJCN@c?3?2users?2nhv90?2projects?2eech?2ap@
  001c7	a1 00 00 00 00	 mov	 eax, DWORD PTR ?null_entity_pointer_message@@3PBDB ; null_entity_pointer_message
  001cc	50		 push	 eax
  001cd	e8 00 00 00 00	 call	 ?process_assert@@YGXPBD0H@Z ; process_assert
  001d2	c7 45 90 00 00
	00 00		 mov	 DWORD PTR tv169[ebp], 0
$LN29@response_t:
  001d9	b9 01 00 00 00	 mov	 ecx, 1
  001de	85 c9		 test	 ecx, ecx
  001e0	74 09		 je	 SHORT $LN30@response_t
  001e2	c7 45 8c 2c 00
	00 00		 mov	 DWORD PTR tv177[ebp], 44 ; 0000002cH
  001e9	eb 21		 jmp	 SHORT $LN31@response_t
$LN30@response_t:
  001eb	8b 15 00 00 00
	00		 mov	 edx, DWORD PTR ?__LINE__Var@?0??response_to_waypoint_attack_action@@YGHW4ENTITY_MESSAGES@@PAUENTITY@@1PAD@Z@4JA
  001f1	83 c2 31	 add	 edx, 49			; 00000031H
  001f4	52		 push	 edx
  001f5	68 00 00 00 00	 push	 OFFSET ??_C@_0EE@DLIIEJCN@c?3?2users?2nhv90?2projects?2eech?2ap@
  001fa	a1 00 00 00 00	 mov	 eax, DWORD PTR ?overload_invalid_list_type_message@@3PBDB ; overload_invalid_list_type_message
  001ff	50		 push	 eax
  00200	e8 00 00 00 00	 call	 ?process_assert@@YGXPBD0H@Z ; process_assert
  00205	c7 45 8c 00 00
	00 00		 mov	 DWORD PTR tv177[ebp], 0
$LN31@response_t:
  0020c	6a 2c		 push	 44			; 0000002cH
  0020e	8b 4d 10	 mov	 ecx, DWORD PTR _sender$[ebp]
  00211	51		 push	 ecx
  00212	69 55 90 b4 00
	00 00		 imul	 edx, DWORD PTR tv169[ebp], 180
  00219	8b 45 8c	 mov	 eax, DWORD PTR tv177[ebp]
  0021c	8b 8c 82 00 00
	00 00		 mov	 ecx, DWORD PTR ?fn_get_local_entity_parent@@3PAY0CN@P6GPAUENTITY@@PAU1@W4LIST_TYPES@@@ZA[edx+eax*4]
  00223	ff d1		 call	 ecx
  00225	89 45 f4	 mov	 DWORD PTR _task$[ebp], eax

; 542  : 
; 543  : 	ASSERT (task);

  00228	83 7d f4 00	 cmp	 DWORD PTR _task$[ebp], 0
  0022c	75 18		 jne	 SHORT $LN9@response_t
  0022e	a1 00 00 00 00	 mov	 eax, DWORD PTR ?__LINE__Var@?0??response_to_waypoint_attack_action@@YGHW4ENTITY_MESSAGES@@PAUENTITY@@1PAD@Z@4JA
  00233	83 c0 33	 add	 eax, 51			; 00000033H
  00236	50		 push	 eax
  00237	68 00 00 00 00	 push	 OFFSET ??_C@_0EE@DLIIEJCN@c?3?2users?2nhv90?2projects?2eech?2ap@
  0023c	68 00 00 00 00	 push	 OFFSET ??_C@_04GGKLLKOO@task@
  00241	e8 00 00 00 00	 call	 ?process_assert@@YGXPBD0H@Z ; process_assert
$LN9@response_t:

; 544  : 
; 545  : 	side = (entity_sides) get_local_entity_int_value (receiver, INT_TYPE_SIDE);

  00246	83 7d 0c 00	 cmp	 DWORD PTR _receiver$[ebp], 0
  0024a	74 0a		 je	 SHORT $LN32@response_t
  0024c	8b 45 0c	 mov	 eax, DWORD PTR _receiver$[ebp]
  0024f	8b 08		 mov	 ecx, DWORD PTR [eax]
  00251	89 4d 90	 mov	 DWORD PTR tv194[ebp], ecx
  00254	eb 21		 jmp	 SHORT $LN33@response_t
$LN32@response_t:
  00256	8b 15 00 00 00
	00		 mov	 edx, DWORD PTR ?__LINE__Var@?0??response_to_waypoint_attack_action@@YGHW4ENTITY_MESSAGES@@PAUENTITY@@1PAD@Z@4JA
  0025c	83 c2 35	 add	 edx, 53			; 00000035H
  0025f	52		 push	 edx
  00260	68 00 00 00 00	 push	 OFFSET ??_C@_0EE@DLIIEJCN@c?3?2users?2nhv90?2projects?2eech?2ap@
  00265	a1 00 00 00 00	 mov	 eax, DWORD PTR ?null_entity_pointer_message@@3PBDB ; null_entity_pointer_message
  0026a	50		 push	 eax
  0026b	e8 00 00 00 00	 call	 ?process_assert@@YGXPBD0H@Z ; process_assert
  00270	c7 45 90 00 00
	00 00		 mov	 DWORD PTR tv194[ebp], 0
$LN33@response_t:
  00277	b9 01 00 00 00	 mov	 ecx, 1
  0027c	85 c9		 test	 ecx, ecx
  0027e	74 09		 je	 SHORT $LN34@response_t
  00280	c7 45 8c bb 00
	00 00		 mov	 DWORD PTR tv202[ebp], 187 ; 000000bbH
  00287	eb 21		 jmp	 SHORT $LN35@response_t
$LN34@response_t:
  00289	8b 15 00 00 00
	00		 mov	 edx, DWORD PTR ?__LINE__Var@?0??response_to_waypoint_attack_action@@YGHW4ENTITY_MESSAGES@@PAUENTITY@@1PAD@Z@4JA
  0028f	83 c2 35	 add	 edx, 53			; 00000035H
  00292	52		 push	 edx
  00293	68 00 00 00 00	 push	 OFFSET ??_C@_0EE@DLIIEJCN@c?3?2users?2nhv90?2projects?2eech?2ap@
  00298	a1 00 00 00 00	 mov	 eax, DWORD PTR ?overload_invalid_int_type_message@@3PBDB ; overload_invalid_int_type_message
  0029d	50		 push	 eax
  0029e	e8 00 00 00 00	 call	 ?process_assert@@YGXPBD0H@Z ; process_assert
  002a3	c7 45 8c 00 00
	00 00		 mov	 DWORD PTR tv202[ebp], 0
$LN35@response_t:
  002aa	68 bb 00 00 00	 push	 187			; 000000bbH
  002af	8b 4d 0c	 mov	 ecx, DWORD PTR _receiver$[ebp]
  002b2	51		 push	 ecx
  002b3	69 55 90 5c 04
	00 00		 imul	 edx, DWORD PTR tv194[ebp], 1116
  002ba	8b 45 8c	 mov	 eax, DWORD PTR tv202[ebp]
  002bd	8b 8c 82 00 00
	00 00		 mov	 ecx, DWORD PTR ?fn_get_local_entity_int_value@@3PAY0BBH@P6GHPAUENTITY@@W4INT_TYPES@@@ZA[edx+eax*4]
  002c4	ff d1		 call	 ecx
  002c6	89 45 f0	 mov	 DWORD PTR _side$[ebp], eax

; 546  : 
; 547  : 	//
; 548  : 	// Play Speech
; 549  : 	//
; 550  : 	
; 551  : 	if (get_local_entity_int_value (receiver, INT_TYPE_PLAYER) == ENTITY_PLAYER_AI)

  002c9	83 7d 0c 00	 cmp	 DWORD PTR _receiver$[ebp], 0
  002cd	74 0a		 je	 SHORT $LN36@response_t
  002cf	8b 45 0c	 mov	 eax, DWORD PTR _receiver$[ebp]
  002d2	8b 08		 mov	 ecx, DWORD PTR [eax]
  002d4	89 4d 90	 mov	 DWORD PTR tv213[ebp], ecx
  002d7	eb 1d		 jmp	 SHORT $LN37@response_t
$LN36@response_t:
  002d9	68 27 02 00 00	 push	 551			; 00000227H
  002de	68 00 00 00 00	 push	 OFFSET ??_C@_0EE@DLIIEJCN@c?3?2users?2nhv90?2projects?2eech?2ap@
  002e3	8b 15 00 00 00
	00		 mov	 edx, DWORD PTR ?null_entity_pointer_message@@3PBDB ; null_entity_pointer_message
  002e9	52		 push	 edx
  002ea	e8 00 00 00 00	 call	 ?process_assert@@YGXPBD0H@Z ; process_assert
  002ef	c7 45 90 00 00
	00 00		 mov	 DWORD PTR tv213[ebp], 0
$LN37@response_t:
  002f6	b8 01 00 00 00	 mov	 eax, 1
  002fb	85 c0		 test	 eax, eax
  002fd	74 09		 je	 SHORT $LN38@response_t
  002ff	c7 45 8c 9c 00
	00 00		 mov	 DWORD PTR tv220[ebp], 156 ; 0000009cH
  00306	eb 1d		 jmp	 SHORT $LN39@response_t
$LN38@response_t:
  00308	68 27 02 00 00	 push	 551			; 00000227H
  0030d	68 00 00 00 00	 push	 OFFSET ??_C@_0EE@DLIIEJCN@c?3?2users?2nhv90?2projects?2eech?2ap@
  00312	8b 0d 00 00 00
	00		 mov	 ecx, DWORD PTR ?overload_invalid_int_type_message@@3PBDB ; overload_invalid_int_type_message
  00318	51		 push	 ecx
  00319	e8 00 00 00 00	 call	 ?process_assert@@YGXPBD0H@Z ; process_assert
  0031e	c7 45 8c 00 00
	00 00		 mov	 DWORD PTR tv220[ebp], 0
$LN39@response_t:
  00325	68 9c 00 00 00	 push	 156			; 0000009cH
  0032a	8b 55 0c	 mov	 edx, DWORD PTR _receiver$[ebp]
  0032d	52		 push	 edx
  0032e	69 45 90 5c 04
	00 00		 imul	 eax, DWORD PTR tv213[ebp], 1116
  00335	8b 4d 8c	 mov	 ecx, DWORD PTR tv220[ebp]
  00338	8b 94 88 00 00
	00 00		 mov	 edx, DWORD PTR ?fn_get_local_entity_int_value@@3PAY0BBH@P6GHPAUENTITY@@W4INT_TYPES@@@ZA[eax+ecx*4]
  0033f	ff d2		 call	 edx
  00341	85 c0		 test	 eax, eax
  00343	75 7c		 jne	 SHORT $LN10@response_t

; 552  : 	{
; 553  : 		val = get_speech_random_value

  00345	8b 45 f0	 mov	 eax, DWORD PTR _side$[ebp]
  00348	8b 0c 85 00 00
	00 00		 mov	 ecx, DWORD PTR ?last_waypoint_attack_wingman_comment@@3PAHA[eax*4]
  0034f	51		 push	 ecx
  00350	8b 55 f0	 mov	 edx, DWORD PTR _side$[ebp]
  00353	8b 04 95 00 00
	00 00		 mov	 eax, DWORD PTR ?num_waypoint_attack_wingman_comments@@3PAHA[edx*4]
  0035a	50		 push	 eax
  0035b	68 00 00 00 00	 push	 OFFSET ?waypoint_attack_wingman_comments@@3PAUSPEECH_INSTANCE_TYPE@@A
  00360	e8 00 00 00 00	 call	 ?get_speech_random_value@@YGHPAUSPEECH_INSTANCE_TYPE@@HH@Z ; get_speech_random_value
  00365	89 45 e0	 mov	 DWORD PTR _val$[ebp], eax

; 554  : 				(
; 555  : 					waypoint_attack_wingman_comments,
; 556  : 					num_waypoint_attack_wingman_comments [side],
; 557  : 					last_waypoint_attack_wingman_comment [side]
; 558  : 				);
; 559  : 
; 560  : 		speech_index = waypoint_attack_wingman_comments [val].speech_index;

  00368	8b 45 e0	 mov	 eax, DWORD PTR _val$[ebp]
  0036b	c1 e0 04	 shl	 eax, 4
  0036e	8b 88 00 00 00
	00		 mov	 ecx, DWORD PTR ?waypoint_attack_wingman_comments@@3PAUSPEECH_INSTANCE_TYPE@@A[eax]
  00374	89 4d dc	 mov	 DWORD PTR _speech_index$[ebp], ecx

; 561  : 	
; 562  : 		play_client_server_wingman_message

  00377	8b 45 dc	 mov	 eax, DWORD PTR _speech_index$[ebp]
  0037a	50		 push	 eax
  0037b	6a 07		 push	 7
  0037d	8b 4d e0	 mov	 ecx, DWORD PTR _val$[ebp]
  00380	c1 e1 04	 shl	 ecx, 4
  00383	8b 91 0c 00 00
	00		 mov	 edx, DWORD PTR ?waypoint_attack_wingman_comments@@3PAUSPEECH_INSTANCE_TYPE@@A[ecx+12]
  00389	52		 push	 edx
  0038a	51		 push	 ecx
  0038b	f3 0f 10 05 00
	00 00 00	 movss	 xmm0, DWORD PTR __real@bf800000
  00393	f3 0f 11 04 24	 movss	 DWORD PTR [esp], xmm0
  00398	6a 0a		 push	 10			; 0000000aH
  0039a	51		 push	 ecx
  0039b	f3 0f 10 05 00
	00 00 00	 movss	 xmm0, DWORD PTR __real@40a00000
  003a3	f3 0f 11 04 24	 movss	 DWORD PTR [esp], xmm0
  003a8	51		 push	 ecx
  003a9	f3 0f 10 05 00
	00 00 00	 movss	 xmm0, DWORD PTR __real@3f800000
  003b1	f3 0f 11 04 24	 movss	 DWORD PTR [esp], xmm0
  003b6	8b 45 0c	 mov	 eax, DWORD PTR _receiver$[ebp]
  003b9	50		 push	 eax
  003ba	e8 00 00 00 00	 call	 ?play_client_server_wingman_message@@YGHPAUENTITY@@MMW4speech_category_types@@MW4speech_intro_types@@W4speech_array_types@@H@Z ; play_client_server_wingman_message

; 563  : 		(
; 564  : 			receiver,
; 565  : 			1.0,
; 566  : 			5.0,
; 567  : 			SPEECH_CATEGORY_MISSION_RELATED, -1.0,
; 568  : 			waypoint_attack_wingman_comments [val].introduction,
; 569  : 			SPEECH_ARRAY_WINGMAN_MESSAGES, speech_index
; 570  : 		);
; 571  : 	}
; 572  : 	else

  003bf	eb 6b		 jmp	 SHORT $LN11@response_t
$LN10@response_t:

; 573  : 	{
; 574  : 		val = get_speech_random_value

  003c1	8b 45 f0	 mov	 eax, DWORD PTR _side$[ebp]
  003c4	8b 0c 85 00 00
	00 00		 mov	 ecx, DWORD PTR ?last_waypoint_attack_cpg_comment@@3PAHA[eax*4]
  003cb	51		 push	 ecx
  003cc	8b 55 f0	 mov	 edx, DWORD PTR _side$[ebp]
  003cf	8b 04 95 00 00
	00 00		 mov	 eax, DWORD PTR ?num_waypoint_attack_cpg_comments@@3PAHA[edx*4]
  003d6	50		 push	 eax
  003d7	68 00 00 00 00	 push	 OFFSET ?waypoint_attack_cpg_comments@@3PAUSPEECH_INSTANCE_TYPE@@A
  003dc	e8 00 00 00 00	 call	 ?get_speech_random_value@@YGHPAUSPEECH_INSTANCE_TYPE@@HH@Z ; get_speech_random_value
  003e1	89 45 e0	 mov	 DWORD PTR _val$[ebp], eax

; 575  : 				(
; 576  : 					waypoint_attack_cpg_comments,
; 577  : 					num_waypoint_attack_cpg_comments [side],
; 578  : 					last_waypoint_attack_cpg_comment [side]
; 579  : 				);
; 580  : 
; 581  : 		speech_index = waypoint_attack_cpg_comments [val].speech_index;

  003e4	8b 45 e0	 mov	 eax, DWORD PTR _val$[ebp]
  003e7	c1 e0 04	 shl	 eax, 4
  003ea	8b 88 00 00 00
	00		 mov	 ecx, DWORD PTR ?waypoint_attack_cpg_comments@@3PAUSPEECH_INSTANCE_TYPE@@A[eax]
  003f0	89 4d dc	 mov	 DWORD PTR _speech_index$[ebp], ecx

; 582  : 	
; 583  : 		play_client_server_cpg_message (receiver, 1.0, 5.0, SPEECH_CATEGORY_MISSION_RELATED, -1.0, speech_index);

  003f3	8b 45 dc	 mov	 eax, DWORD PTR _speech_index$[ebp]
  003f6	50		 push	 eax
  003f7	51		 push	 ecx
  003f8	f3 0f 10 05 00
	00 00 00	 movss	 xmm0, DWORD PTR __real@bf800000
  00400	f3 0f 11 04 24	 movss	 DWORD PTR [esp], xmm0
  00405	6a 0a		 push	 10			; 0000000aH
  00407	51		 push	 ecx
  00408	f3 0f 10 05 00
	00 00 00	 movss	 xmm0, DWORD PTR __real@40a00000
  00410	f3 0f 11 04 24	 movss	 DWORD PTR [esp], xmm0
  00415	51		 push	 ecx
  00416	f3 0f 10 05 00
	00 00 00	 movss	 xmm0, DWORD PTR __real@3f800000
  0041e	f3 0f 11 04 24	 movss	 DWORD PTR [esp], xmm0
  00423	8b 4d 0c	 mov	 ecx, DWORD PTR _receiver$[ebp]
  00426	51		 push	 ecx
  00427	e8 00 00 00 00	 call	 ?play_client_server_cpg_message@@YGHPAUENTITY@@MMHMH@Z ; play_client_server_cpg_message
$LN11@response_t:

; 584  : 	}
; 585  : 
; 586  : 	//
; 587  : 	// Engage Targets
; 588  : 	//
; 589  : 	
; 590  : 	task_target_type = get_local_entity_int_value (task, INT_TYPE_TASK_TARGET_TYPE);

  0042c	83 7d f4 00	 cmp	 DWORD PTR _task$[ebp], 0
  00430	74 0a		 je	 SHORT $LN40@response_t
  00432	8b 45 f4	 mov	 eax, DWORD PTR _task$[ebp]
  00435	8b 08		 mov	 ecx, DWORD PTR [eax]
  00437	89 4d 90	 mov	 DWORD PTR tv272[ebp], ecx
  0043a	eb 21		 jmp	 SHORT $LN41@response_t
$LN40@response_t:
  0043c	8b 15 00 00 00
	00		 mov	 edx, DWORD PTR ?__LINE__Var@?0??response_to_waypoint_attack_action@@YGHW4ENTITY_MESSAGES@@PAUENTITY@@1PAD@Z@4JA
  00442	83 c2 62	 add	 edx, 98			; 00000062H
  00445	52		 push	 edx
  00446	68 00 00 00 00	 push	 OFFSET ??_C@_0EE@DLIIEJCN@c?3?2users?2nhv90?2projects?2eech?2ap@
  0044b	a1 00 00 00 00	 mov	 eax, DWORD PTR ?null_entity_pointer_message@@3PBDB ; null_entity_pointer_message
  00450	50		 push	 eax
  00451	e8 00 00 00 00	 call	 ?process_assert@@YGXPBD0H@Z ; process_assert
  00456	c7 45 90 00 00
	00 00		 mov	 DWORD PTR tv272[ebp], 0
$LN41@response_t:
  0045d	b9 01 00 00 00	 mov	 ecx, 1
  00462	85 c9		 test	 ecx, ecx
  00464	74 09		 je	 SHORT $LN42@response_t
  00466	c7 45 8c e6 00
	00 00		 mov	 DWORD PTR tv280[ebp], 230 ; 000000e6H
  0046d	eb 21		 jmp	 SHORT $LN43@response_t
$LN42@response_t:
  0046f	8b 15 00 00 00
	00		 mov	 edx, DWORD PTR ?__LINE__Var@?0??response_to_waypoint_attack_action@@YGHW4ENTITY_MESSAGES@@PAUENTITY@@1PAD@Z@4JA
  00475	83 c2 62	 add	 edx, 98			; 00000062H
  00478	52		 push	 edx
  00479	68 00 00 00 00	 push	 OFFSET ??_C@_0EE@DLIIEJCN@c?3?2users?2nhv90?2projects?2eech?2ap@
  0047e	a1 00 00 00 00	 mov	 eax, DWORD PTR ?overload_invalid_int_type_message@@3PBDB ; overload_invalid_int_type_message
  00483	50		 push	 eax
  00484	e8 00 00 00 00	 call	 ?process_assert@@YGXPBD0H@Z ; process_assert
  00489	c7 45 8c 00 00
	00 00		 mov	 DWORD PTR tv280[ebp], 0
$LN43@response_t:
  00490	68 e6 00 00 00	 push	 230			; 000000e6H
  00495	8b 4d f4	 mov	 ecx, DWORD PTR _task$[ebp]
  00498	51		 push	 ecx
  00499	69 55 90 5c 04
	00 00		 imul	 edx, DWORD PTR tv272[ebp], 1116
  004a0	8b 45 8c	 mov	 eax, DWORD PTR tv280[ebp]
  004a3	8b 8c 82 00 00
	00 00		 mov	 ecx, DWORD PTR ?fn_get_local_entity_int_value@@3PAY0BBH@P6GHPAUENTITY@@W4INT_TYPES@@@ZA[edx+eax*4]
  004aa	ff d1		 call	 ecx
  004ac	89 45 e4	 mov	 DWORD PTR _task_target_type$[ebp], eax

; 591  : 
; 592  : 	objective = get_local_entity_parent (task, LIST_TYPE_TASK_DEPENDENT);

  004af	83 7d f4 00	 cmp	 DWORD PTR _task$[ebp], 0
  004b3	74 0a		 je	 SHORT $LN44@response_t
  004b5	8b 45 f4	 mov	 eax, DWORD PTR _task$[ebp]
  004b8	8b 08		 mov	 ecx, DWORD PTR [eax]
  004ba	89 4d 90	 mov	 DWORD PTR tv292[ebp], ecx
  004bd	eb 21		 jmp	 SHORT $LN45@response_t
$LN44@response_t:
  004bf	8b 15 00 00 00
	00		 mov	 edx, DWORD PTR ?__LINE__Var@?0??response_to_waypoint_attack_action@@YGHW4ENTITY_MESSAGES@@PAUENTITY@@1PAD@Z@4JA
  004c5	83 c2 64	 add	 edx, 100		; 00000064H
  004c8	52		 push	 edx
  004c9	68 00 00 00 00	 push	 OFFSET ??_C@_0EE@DLIIEJCN@c?3?2users?2nhv90?2projects?2eech?2ap@
  004ce	a1 00 00 00 00	 mov	 eax, DWORD PTR ?null_entity_pointer_message@@3PBDB ; null_entity_pointer_message
  004d3	50		 push	 eax
  004d4	e8 00 00 00 00	 call	 ?process_assert@@YGXPBD0H@Z ; process_assert
  004d9	c7 45 90 00 00
	00 00		 mov	 DWORD PTR tv292[ebp], 0
$LN45@response_t:
  004e0	b9 01 00 00 00	 mov	 ecx, 1
  004e5	85 c9		 test	 ecx, ecx
  004e7	74 09		 je	 SHORT $LN46@response_t
  004e9	c7 45 8c 27 00
	00 00		 mov	 DWORD PTR tv300[ebp], 39 ; 00000027H
  004f0	eb 21		 jmp	 SHORT $LN47@response_t
$LN46@response_t:
  004f2	8b 15 00 00 00
	00		 mov	 edx, DWORD PTR ?__LINE__Var@?0??response_to_waypoint_attack_action@@YGHW4ENTITY_MESSAGES@@PAUENTITY@@1PAD@Z@4JA
  004f8	83 c2 64	 add	 edx, 100		; 00000064H
  004fb	52		 push	 edx
  004fc	68 00 00 00 00	 push	 OFFSET ??_C@_0EE@DLIIEJCN@c?3?2users?2nhv90?2projects?2eech?2ap@
  00501	a1 00 00 00 00	 mov	 eax, DWORD PTR ?overload_invalid_list_type_message@@3PBDB ; overload_invalid_list_type_message
  00506	50		 push	 eax
  00507	e8 00 00 00 00	 call	 ?process_assert@@YGXPBD0H@Z ; process_assert
  0050c	c7 45 8c 00 00
	00 00		 mov	 DWORD PTR tv300[ebp], 0
$LN47@response_t:
  00513	6a 27		 push	 39			; 00000027H
  00515	8b 4d f4	 mov	 ecx, DWORD PTR _task$[ebp]
  00518	51		 push	 ecx
  00519	69 55 90 b4 00
	00 00		 imul	 edx, DWORD PTR tv292[ebp], 180
  00520	8b 45 8c	 mov	 eax, DWORD PTR tv300[ebp]
  00523	8b 8c 82 00 00
	00 00		 mov	 ecx, DWORD PTR ?fn_get_local_entity_parent@@3PAY0CN@P6GPAUENTITY@@PAU1@W4LIST_TYPES@@@ZA[edx+eax*4]
  0052a	ff d1		 call	 ecx
  0052c	89 45 f8	 mov	 DWORD PTR _objective$[ebp], eax

; 593  : 
; 594  : 	if (objective)

  0052f	83 7d f8 00	 cmp	 DWORD PTR _objective$[ebp], 0
  00533	0f 84 78 02 00
	00		 je	 $LN12@response_t

; 595  : 	{
; 596  : 		switch (get_local_entity_type (objective))

  00539	83 7d f8 00	 cmp	 DWORD PTR _objective$[ebp], 0
  0053d	74 0a		 je	 SHORT $LN48@response_t
  0053f	8b 45 f8	 mov	 eax, DWORD PTR _objective$[ebp]
  00542	8b 08		 mov	 ecx, DWORD PTR [eax]
  00544	89 4d 90	 mov	 DWORD PTR tv312[ebp], ecx
  00547	eb 1d		 jmp	 SHORT $LN49@response_t
$LN48@response_t:
  00549	68 54 02 00 00	 push	 596			; 00000254H
  0054e	68 00 00 00 00	 push	 OFFSET ??_C@_0EE@DLIIEJCN@c?3?2users?2nhv90?2projects?2eech?2ap@
  00553	8b 15 00 00 00
	00		 mov	 edx, DWORD PTR ?null_entity_pointer_message@@3PBDB ; null_entity_pointer_message
  00559	52		 push	 edx
  0055a	e8 00 00 00 00	 call	 ?process_assert@@YGXPBD0H@Z ; process_assert
  0055f	c7 45 90 00 00
	00 00		 mov	 DWORD PTR tv312[ebp], 0
$LN49@response_t:
  00566	8b 45 90	 mov	 eax, DWORD PTR tv312[ebp]
  00569	89 45 8c	 mov	 DWORD PTR tv313[ebp], eax
  0056c	8b 4d 8c	 mov	 ecx, DWORD PTR tv313[ebp]
  0056f	83 e9 01	 sub	 ecx, 1
  00572	89 4d 8c	 mov	 DWORD PTR tv313[ebp], ecx
  00575	83 7d 8c 1b	 cmp	 DWORD PTR tv313[ebp], 27 ; 0000001bH
  00579	0f 87 69 01 00
	00		 ja	 $LN17@response_t
  0057f	8b 55 8c	 mov	 edx, DWORD PTR tv313[ebp]
  00582	0f b6 82 00 00
	00 00		 movzx	 eax, BYTE PTR $LN70@response_t[edx]
  00589	ff 24 85 00 00
	00 00		 jmp	 DWORD PTR $LN71@response_t[eax*4]
$LN14@response_t:

; 597  : 		{
; 598  : 			case ENTITY_TYPE_GROUP:
; 599  : 			{
; 600  : 				engage_targets_in_group (group, objective, FALSE);

  00590	6a 00		 push	 0
  00592	8b 45 f8	 mov	 eax, DWORD PTR _objective$[ebp]
  00595	50		 push	 eax
  00596	8b 4d fc	 mov	 ecx, DWORD PTR _group$[ebp]
  00599	51		 push	 ecx
  0059a	e8 00 00 00 00	 call	 ?engage_targets_in_group@@YGHPAUENTITY@@0H@Z ; engage_targets_in_group

; 601  : 
; 602  : 				break;

  0059f	e9 08 02 00 00	 jmp	 $LN2@response_t
$LN15@response_t:

; 603  : 			}
; 604  : 			case ENTITY_TYPE_HELICOPTER:
; 605  : 			case ENTITY_TYPE_FIXED_WING:
; 606  : 			case ENTITY_TYPE_ROUTED_VEHICLE:
; 607  : 			case ENTITY_TYPE_SHIP_VEHICLE:
; 608  : 			case ENTITY_TYPE_ANTI_AIRCRAFT:
; 609  : 			{
; 610  : 				engage_specific_target (group, objective, TASK_ASSIGN_ALL_MEMBERS, FALSE);

  005a4	6a 00		 push	 0
  005a6	6a ff		 push	 -1
  005a8	8b 45 f8	 mov	 eax, DWORD PTR _objective$[ebp]
  005ab	50		 push	 eax
  005ac	8b 4d fc	 mov	 ecx, DWORD PTR _group$[ebp]
  005af	51		 push	 ecx
  005b0	e8 00 00 00 00	 call	 ?engage_specific_target@@YGHPAUENTITY@@0IH@Z ; engage_specific_target

; 611  : 
; 612  : 				break;

  005b5	e9 f2 01 00 00	 jmp	 $LN2@response_t
$LN16@response_t:

; 613  : 			}
; 614  : 			case ENTITY_TYPE_SECTOR:
; 615  : 			{
; 616  : 				int
; 617  : 					sx,
; 618  : 					sz;
; 619  : 					
; 620  : 				sx = get_local_entity_int_value (objective, INT_TYPE_X_SECTOR);

  005ba	83 7d f8 00	 cmp	 DWORD PTR _objective$[ebp], 0
  005be	74 0a		 je	 SHORT $LN50@response_t
  005c0	8b 45 f8	 mov	 eax, DWORD PTR _objective$[ebp]
  005c3	8b 08		 mov	 ecx, DWORD PTR [eax]
  005c5	89 4d 90	 mov	 DWORD PTR tv327[ebp], ecx
  005c8	eb 24		 jmp	 SHORT $LN51@response_t
$LN50@response_t:
  005ca	8b 15 00 00 00
	00		 mov	 edx, DWORD PTR ?__LINE__Var@?0??response_to_waypoint_attack_action@@YGHW4ENTITY_MESSAGES@@PAUENTITY@@1PAD@Z@4JA
  005d0	81 c2 80 00 00
	00		 add	 edx, 128		; 00000080H
  005d6	52		 push	 edx
  005d7	68 00 00 00 00	 push	 OFFSET ??_C@_0EE@DLIIEJCN@c?3?2users?2nhv90?2projects?2eech?2ap@
  005dc	a1 00 00 00 00	 mov	 eax, DWORD PTR ?null_entity_pointer_message@@3PBDB ; null_entity_pointer_message
  005e1	50		 push	 eax
  005e2	e8 00 00 00 00	 call	 ?process_assert@@YGXPBD0H@Z ; process_assert
  005e7	c7 45 90 00 00
	00 00		 mov	 DWORD PTR tv327[ebp], 0
$LN51@response_t:
  005ee	b9 01 00 00 00	 mov	 ecx, 1
  005f3	85 c9		 test	 ecx, ecx
  005f5	74 09		 je	 SHORT $LN52@response_t
  005f7	c7 45 8c 15 01
	00 00		 mov	 DWORD PTR tv335[ebp], 277 ; 00000115H
  005fe	eb 24		 jmp	 SHORT $LN53@response_t
$LN52@response_t:
  00600	8b 15 00 00 00
	00		 mov	 edx, DWORD PTR ?__LINE__Var@?0??response_to_waypoint_attack_action@@YGHW4ENTITY_MESSAGES@@PAUENTITY@@1PAD@Z@4JA
  00606	81 c2 80 00 00
	00		 add	 edx, 128		; 00000080H
  0060c	52		 push	 edx
  0060d	68 00 00 00 00	 push	 OFFSET ??_C@_0EE@DLIIEJCN@c?3?2users?2nhv90?2projects?2eech?2ap@
  00612	a1 00 00 00 00	 mov	 eax, DWORD PTR ?overload_invalid_int_type_message@@3PBDB ; overload_invalid_int_type_message
  00617	50		 push	 eax
  00618	e8 00 00 00 00	 call	 ?process_assert@@YGXPBD0H@Z ; process_assert
  0061d	c7 45 8c 00 00
	00 00		 mov	 DWORD PTR tv335[ebp], 0
$LN53@response_t:
  00624	68 15 01 00 00	 push	 277			; 00000115H
  00629	8b 4d f8	 mov	 ecx, DWORD PTR _objective$[ebp]
  0062c	51		 push	 ecx
  0062d	69 55 90 5c 04
	00 00		 imul	 edx, DWORD PTR tv327[ebp], 1116
  00634	8b 45 8c	 mov	 eax, DWORD PTR tv335[ebp]
  00637	8b 8c 82 00 00
	00 00		 mov	 ecx, DWORD PTR ?fn_get_local_entity_int_value@@3PAY0BBH@P6GHPAUENTITY@@W4INT_TYPES@@@ZA[edx+eax*4]
  0063e	ff d1		 call	 ecx
  00640	89 45 d8	 mov	 DWORD PTR _sx$2[ebp], eax

; 621  : 				sz = get_local_entity_int_value (objective, INT_TYPE_Z_SECTOR);

  00643	83 7d f8 00	 cmp	 DWORD PTR _objective$[ebp], 0
  00647	74 0a		 je	 SHORT $LN54@response_t
  00649	8b 45 f8	 mov	 eax, DWORD PTR _objective$[ebp]
  0064c	8b 08		 mov	 ecx, DWORD PTR [eax]
  0064e	89 4d 90	 mov	 DWORD PTR tv347[ebp], ecx
  00651	eb 24		 jmp	 SHORT $LN55@response_t
$LN54@response_t:
  00653	8b 15 00 00 00
	00		 mov	 edx, DWORD PTR ?__LINE__Var@?0??response_to_waypoint_attack_action@@YGHW4ENTITY_MESSAGES@@PAUENTITY@@1PAD@Z@4JA
  00659	81 c2 81 00 00
	00		 add	 edx, 129		; 00000081H
  0065f	52		 push	 edx
  00660	68 00 00 00 00	 push	 OFFSET ??_C@_0EE@DLIIEJCN@c?3?2users?2nhv90?2projects?2eech?2ap@
  00665	a1 00 00 00 00	 mov	 eax, DWORD PTR ?null_entity_pointer_message@@3PBDB ; null_entity_pointer_message
  0066a	50		 push	 eax
  0066b	e8 00 00 00 00	 call	 ?process_assert@@YGXPBD0H@Z ; process_assert
  00670	c7 45 90 00 00
	00 00		 mov	 DWORD PTR tv347[ebp], 0
$LN55@response_t:
  00677	b9 01 00 00 00	 mov	 ecx, 1
  0067c	85 c9		 test	 ecx, ecx
  0067e	74 09		 je	 SHORT $LN56@response_t
  00680	c7 45 8c 16 01
	00 00		 mov	 DWORD PTR tv355[ebp], 278 ; 00000116H
  00687	eb 24		 jmp	 SHORT $LN57@response_t
$LN56@response_t:
  00689	8b 15 00 00 00
	00		 mov	 edx, DWORD PTR ?__LINE__Var@?0??response_to_waypoint_attack_action@@YGHW4ENTITY_MESSAGES@@PAUENTITY@@1PAD@Z@4JA
  0068f	81 c2 81 00 00
	00		 add	 edx, 129		; 00000081H
  00695	52		 push	 edx
  00696	68 00 00 00 00	 push	 OFFSET ??_C@_0EE@DLIIEJCN@c?3?2users?2nhv90?2projects?2eech?2ap@
  0069b	a1 00 00 00 00	 mov	 eax, DWORD PTR ?overload_invalid_int_type_message@@3PBDB ; overload_invalid_int_type_message
  006a0	50		 push	 eax
  006a1	e8 00 00 00 00	 call	 ?process_assert@@YGXPBD0H@Z ; process_assert
  006a6	c7 45 8c 00 00
	00 00		 mov	 DWORD PTR tv355[ebp], 0
$LN57@response_t:
  006ad	68 16 01 00 00	 push	 278			; 00000116H
  006b2	8b 4d f8	 mov	 ecx, DWORD PTR _objective$[ebp]
  006b5	51		 push	 ecx
  006b6	69 55 90 5c 04
	00 00		 imul	 edx, DWORD PTR tv347[ebp], 1116
  006bd	8b 45 8c	 mov	 eax, DWORD PTR tv355[ebp]
  006c0	8b 8c 82 00 00
	00 00		 mov	 ecx, DWORD PTR ?fn_get_local_entity_int_value@@3PAY0BBH@P6GHPAUENTITY@@W4INT_TYPES@@@ZA[edx+eax*4]
  006c7	ff d1		 call	 ecx
  006c9	89 45 d4	 mov	 DWORD PTR _sz$1[ebp], eax

; 622  : 
; 623  : 				engage_targets_in_sector (group, sx, sz, task_target_type, FALSE);

  006cc	6a 00		 push	 0
  006ce	8b 45 e4	 mov	 eax, DWORD PTR _task_target_type$[ebp]
  006d1	50		 push	 eax
  006d2	8b 4d d4	 mov	 ecx, DWORD PTR _sz$1[ebp]
  006d5	51		 push	 ecx
  006d6	8b 55 d8	 mov	 edx, DWORD PTR _sx$2[ebp]
  006d9	52		 push	 edx
  006da	8b 45 fc	 mov	 eax, DWORD PTR _group$[ebp]
  006dd	50		 push	 eax
  006de	e8 00 00 00 00	 call	 ?engage_targets_in_sector@@YGHPAUENTITY@@HHIH@Z ; engage_targets_in_sector

; 624  : 
; 625  : 				break;

  006e3	e9 c4 00 00 00	 jmp	 $LN2@response_t
$LN17@response_t:

; 626  : 			}
; 627  : 			default:
; 628  : 			{			
; 629  : 				objective_pos = get_local_entity_vec3d_ptr (objective, VEC3D_TYPE_POSITION);

  006e8	83 7d f8 00	 cmp	 DWORD PTR _objective$[ebp], 0
  006ec	74 0a		 je	 SHORT $LN58@response_t
  006ee	8b 45 f8	 mov	 eax, DWORD PTR _objective$[ebp]
  006f1	8b 08		 mov	 ecx, DWORD PTR [eax]
  006f3	89 4d 90	 mov	 DWORD PTR tv372[ebp], ecx
  006f6	eb 24		 jmp	 SHORT $LN59@response_t
$LN58@response_t:
  006f8	8b 15 00 00 00
	00		 mov	 edx, DWORD PTR ?__LINE__Var@?0??response_to_waypoint_attack_action@@YGHW4ENTITY_MESSAGES@@PAUENTITY@@1PAD@Z@4JA
  006fe	81 c2 89 00 00
	00		 add	 edx, 137		; 00000089H
  00704	52		 push	 edx
  00705	68 00 00 00 00	 push	 OFFSET ??_C@_0EE@DLIIEJCN@c?3?2users?2nhv90?2projects?2eech?2ap@
  0070a	a1 00 00 00 00	 mov	 eax, DWORD PTR ?null_entity_pointer_message@@3PBDB ; null_entity_pointer_message
  0070f	50		 push	 eax
  00710	e8 00 00 00 00	 call	 ?process_assert@@YGXPBD0H@Z ; process_assert
  00715	c7 45 90 00 00
	00 00		 mov	 DWORD PTR tv372[ebp], 0
$LN59@response_t:
  0071c	b9 01 00 00 00	 mov	 ecx, 1
  00721	85 c9		 test	 ecx, ecx
  00723	74 09		 je	 SHORT $LN60@response_t
  00725	c7 45 8c 08 00
	00 00		 mov	 DWORD PTR tv380[ebp], 8
  0072c	eb 24		 jmp	 SHORT $LN61@response_t
$LN60@response_t:
  0072e	8b 15 00 00 00
	00		 mov	 edx, DWORD PTR ?__LINE__Var@?0??response_to_waypoint_attack_action@@YGHW4ENTITY_MESSAGES@@PAUENTITY@@1PAD@Z@4JA
  00734	81 c2 89 00 00
	00		 add	 edx, 137		; 00000089H
  0073a	52		 push	 edx
  0073b	68 00 00 00 00	 push	 OFFSET ??_C@_0EE@DLIIEJCN@c?3?2users?2nhv90?2projects?2eech?2ap@
  00740	a1 00 00 00 00	 mov	 eax, DWORD PTR ?overload_invalid_vec3d_type_message@@3PBDB ; overload_invalid_vec3d_type_message
  00745	50		 push	 eax
  00746	e8 00 00 00 00	 call	 ?process_assert@@YGXPBD0H@Z ; process_assert
  0074b	c7 45 8c 00 00
	00 00		 mov	 DWORD PTR tv380[ebp], 0
$LN61@response_t:
  00752	6a 08		 push	 8
  00754	8b 4d f8	 mov	 ecx, DWORD PTR _objective$[ebp]
  00757	51		 push	 ecx
  00758	6b 55 90 60	 imul	 edx, DWORD PTR tv372[ebp], 96
  0075c	8b 45 8c	 mov	 eax, DWORD PTR tv380[ebp]
  0075f	8b 8c 82 00 00
	00 00		 mov	 ecx, DWORD PTR ?fn_get_local_entity_vec3d_ptr@@3PAY0BI@P6GPAUVEC3D@@PAUENTITY@@W4VEC3D_TYPES@@@ZA[edx+eax*4]
  00766	ff d1		 call	 ecx
  00768	89 45 e8	 mov	 DWORD PTR _objective_pos$[ebp], eax

; 630  : 
; 631  : 				ASSERT (objective_pos);

  0076b	83 7d e8 00	 cmp	 DWORD PTR _objective_pos$[ebp], 0
  0076f	75 1a		 jne	 SHORT $LN18@response_t
  00771	a1 00 00 00 00	 mov	 eax, DWORD PTR ?__LINE__Var@?0??response_to_waypoint_attack_action@@YGHW4ENTITY_MESSAGES@@PAUENTITY@@1PAD@Z@4JA
  00776	05 8b 00 00 00	 add	 eax, 139		; 0000008bH
  0077b	50		 push	 eax
  0077c	68 00 00 00 00	 push	 OFFSET ??_C@_0EE@DLIIEJCN@c?3?2users?2nhv90?2projects?2eech?2ap@
  00781	68 00 00 00 00	 push	 OFFSET ??_C@_0O@GABLNPIN@objective_pos@
  00786	e8 00 00 00 00	 call	 ?process_assert@@YGXPBD0H@Z ; process_assert
$LN18@response_t:

; 632  : 
; 633  : 				engage_targets_in_area (group, objective_pos, 2 * KILOMETRE, task_target_type, FALSE);

  0078b	6a 00		 push	 0
  0078d	8b 45 e4	 mov	 eax, DWORD PTR _task_target_type$[ebp]
  00790	50		 push	 eax
  00791	51		 push	 ecx
  00792	f3 0f 10 05 00
	00 00 00	 movss	 xmm0, DWORD PTR __real@44fa0000
  0079a	f3 0f 11 04 24	 movss	 DWORD PTR [esp], xmm0
  0079f	8b 4d e8	 mov	 ecx, DWORD PTR _objective_pos$[ebp]
  007a2	51		 push	 ecx
  007a3	8b 55 fc	 mov	 edx, DWORD PTR _group$[ebp]
  007a6	52		 push	 edx
  007a7	e8 00 00 00 00	 call	 ?engage_targets_in_area@@YGHPAUENTITY@@PAUVEC3D@@MIH@Z ; engage_targets_in_area
$LN2@response_t:

; 634  : 
; 635  : 				break;
; 636  : 			}
; 637  : 		}
; 638  : 	}
; 639  : 	else

  007ac	e9 a4 00 00 00	 jmp	 $LN13@response_t
$LN12@response_t:

; 640  : 	{
; 641  : 		objective_pos = get_local_entity_vec3d_ptr (group, VEC3D_TYPE_POSITION);

  007b1	83 7d fc 00	 cmp	 DWORD PTR _group$[ebp], 0
  007b5	74 0a		 je	 SHORT $LN62@response_t
  007b7	8b 45 fc	 mov	 eax, DWORD PTR _group$[ebp]
  007ba	8b 08		 mov	 ecx, DWORD PTR [eax]
  007bc	89 4d 90	 mov	 DWORD PTR tv404[ebp], ecx
  007bf	eb 24		 jmp	 SHORT $LN63@response_t
$LN62@response_t:
  007c1	8b 15 00 00 00
	00		 mov	 edx, DWORD PTR ?__LINE__Var@?0??response_to_waypoint_attack_action@@YGHW4ENTITY_MESSAGES@@PAUENTITY@@1PAD@Z@4JA
  007c7	81 c2 95 00 00
	00		 add	 edx, 149		; 00000095H
  007cd	52		 push	 edx
  007ce	68 00 00 00 00	 push	 OFFSET ??_C@_0EE@DLIIEJCN@c?3?2users?2nhv90?2projects?2eech?2ap@
  007d3	a1 00 00 00 00	 mov	 eax, DWORD PTR ?null_entity_pointer_message@@3PBDB ; null_entity_pointer_message
  007d8	50		 push	 eax
  007d9	e8 00 00 00 00	 call	 ?process_assert@@YGXPBD0H@Z ; process_assert
  007de	c7 45 90 00 00
	00 00		 mov	 DWORD PTR tv404[ebp], 0
$LN63@response_t:
  007e5	b9 01 00 00 00	 mov	 ecx, 1
  007ea	85 c9		 test	 ecx, ecx
  007ec	74 09		 je	 SHORT $LN64@response_t
  007ee	c7 45 8c 08 00
	00 00		 mov	 DWORD PTR tv412[ebp], 8
  007f5	eb 24		 jmp	 SHORT $LN65@response_t
$LN64@response_t:
  007f7	8b 15 00 00 00
	00		 mov	 edx, DWORD PTR ?__LINE__Var@?0??response_to_waypoint_attack_action@@YGHW4ENTITY_MESSAGES@@PAUENTITY@@1PAD@Z@4JA
  007fd	81 c2 95 00 00
	00		 add	 edx, 149		; 00000095H
  00803	52		 push	 edx
  00804	68 00 00 00 00	 push	 OFFSET ??_C@_0EE@DLIIEJCN@c?3?2users?2nhv90?2projects?2eech?2ap@
  00809	a1 00 00 00 00	 mov	 eax, DWORD PTR ?overload_invalid_vec3d_type_message@@3PBDB ; overload_invalid_vec3d_type_message
  0080e	50		 push	 eax
  0080f	e8 00 00 00 00	 call	 ?process_assert@@YGXPBD0H@Z ; process_assert
  00814	c7 45 8c 00 00
	00 00		 mov	 DWORD PTR tv412[ebp], 0
$LN65@response_t:
  0081b	6a 08		 push	 8
  0081d	8b 4d fc	 mov	 ecx, DWORD PTR _group$[ebp]
  00820	51		 push	 ecx
  00821	6b 55 90 60	 imul	 edx, DWORD PTR tv404[ebp], 96
  00825	8b 45 8c	 mov	 eax, DWORD PTR tv412[ebp]
  00828	8b 8c 82 00 00
	00 00		 mov	 ecx, DWORD PTR ?fn_get_local_entity_vec3d_ptr@@3PAY0BI@P6GPAUVEC3D@@PAUENTITY@@W4VEC3D_TYPES@@@ZA[edx+eax*4]
  0082f	ff d1		 call	 ecx
  00831	89 45 e8	 mov	 DWORD PTR _objective_pos$[ebp], eax

; 642  : 
; 643  : 		engage_targets_in_area (group, objective_pos, 2 * KILOMETRE, task_target_type, FALSE);

  00834	6a 00		 push	 0
  00836	8b 45 e4	 mov	 eax, DWORD PTR _task_target_type$[ebp]
  00839	50		 push	 eax
  0083a	51		 push	 ecx
  0083b	f3 0f 10 05 00
	00 00 00	 movss	 xmm0, DWORD PTR __real@44fa0000
  00843	f3 0f 11 04 24	 movss	 DWORD PTR [esp], xmm0
  00848	8b 4d e8	 mov	 ecx, DWORD PTR _objective_pos$[ebp]
  0084b	51		 push	 ecx
  0084c	8b 55 fc	 mov	 edx, DWORD PTR _group$[ebp]
  0084f	52		 push	 edx
  00850	e8 00 00 00 00	 call	 ?engage_targets_in_area@@YGHPAUENTITY@@PAUVEC3D@@MIH@Z ; engage_targets_in_area
$LN13@response_t:

; 644  : 	}
; 645  : 
; 646  : 	set_local_entity_float_value (receiver, FLOAT_TYPE_VIEW_INTEREST_LEVEL, DEFAULT_VIEW_INTEREST_LEVEL);

  00855	83 7d 0c 00	 cmp	 DWORD PTR _receiver$[ebp], 0
  00859	74 0a		 je	 SHORT $LN66@response_t
  0085b	8b 45 0c	 mov	 eax, DWORD PTR _receiver$[ebp]
  0085e	8b 08		 mov	 ecx, DWORD PTR [eax]
  00860	89 4d 90	 mov	 DWORD PTR tv429[ebp], ecx
  00863	eb 24		 jmp	 SHORT $LN67@response_t
$LN66@response_t:
  00865	8b 15 00 00 00
	00		 mov	 edx, DWORD PTR ?__LINE__Var@?0??response_to_waypoint_attack_action@@YGHW4ENTITY_MESSAGES@@PAUENTITY@@1PAD@Z@4JA
  0086b	81 c2 9a 00 00
	00		 add	 edx, 154		; 0000009aH
  00871	52		 push	 edx
  00872	68 00 00 00 00	 push	 OFFSET ??_C@_0EE@DLIIEJCN@c?3?2users?2nhv90?2projects?2eech?2ap@
  00877	a1 00 00 00 00	 mov	 eax, DWORD PTR ?null_entity_pointer_message@@3PBDB ; null_entity_pointer_message
  0087c	50		 push	 eax
  0087d	e8 00 00 00 00	 call	 ?process_assert@@YGXPBD0H@Z ; process_assert
  00882	c7 45 90 00 00
	00 00		 mov	 DWORD PTR tv429[ebp], 0
$LN67@response_t:
  00889	b9 01 00 00 00	 mov	 ecx, 1
  0088e	85 c9		 test	 ecx, ecx
  00890	74 09		 je	 SHORT $LN68@response_t
  00892	c7 45 8c 95 00
	00 00		 mov	 DWORD PTR tv437[ebp], 149 ; 00000095H
  00899	eb 24		 jmp	 SHORT $LN69@response_t
$LN68@response_t:
  0089b	8b 15 00 00 00
	00		 mov	 edx, DWORD PTR ?__LINE__Var@?0??response_to_waypoint_attack_action@@YGHW4ENTITY_MESSAGES@@PAUENTITY@@1PAD@Z@4JA
  008a1	81 c2 9a 00 00
	00		 add	 edx, 154		; 0000009aH
  008a7	52		 push	 edx
  008a8	68 00 00 00 00	 push	 OFFSET ??_C@_0EE@DLIIEJCN@c?3?2users?2nhv90?2projects?2eech?2ap@
  008ad	a1 00 00 00 00	 mov	 eax, DWORD PTR ?overload_invalid_float_type_message@@3PBDB ; overload_invalid_float_type_message
  008b2	50		 push	 eax
  008b3	e8 00 00 00 00	 call	 ?process_assert@@YGXPBD0H@Z ; process_assert
  008b8	c7 45 8c 00 00
	00 00		 mov	 DWORD PTR tv437[ebp], 0
$LN69@response_t:
  008bf	51		 push	 ecx
  008c0	f3 0f 10 05 00
	00 00 00	 movss	 xmm0, DWORD PTR __real@40a00000
  008c8	f3 0f 11 04 24	 movss	 DWORD PTR [esp], xmm0
  008cd	68 95 00 00 00	 push	 149			; 00000095H
  008d2	8b 4d 0c	 mov	 ecx, DWORD PTR _receiver$[ebp]
  008d5	51		 push	 ecx
  008d6	69 55 90 bc 02
	00 00		 imul	 edx, DWORD PTR tv429[ebp], 700
  008dd	8b 45 8c	 mov	 eax, DWORD PTR tv437[ebp]
  008e0	8b 8c 82 00 00
	00 00		 mov	 ecx, DWORD PTR ?fn_set_local_entity_float_value@@3PAY0KP@P6GXPAUENTITY@@W4FLOAT_TYPES@@M@ZA[edx+eax*4]
  008e7	ff d1		 call	 ecx

; 647  : 
; 648  : 	return (TRUE);

  008e9	b8 01 00 00 00	 mov	 eax, 1

; 649  : }

  008ee	5f		 pop	 edi
  008ef	5e		 pop	 esi
  008f0	5b		 pop	 ebx
  008f1	8b e5		 mov	 esp, ebp
  008f3	5d		 pop	 ebp
  008f4	c2 10 00	 ret	 16			; 00000010H
  008f7	90		 npad	 1
$LN71@response_t:
  008f8	00 00 00 00	 DD	 $LN15@response_t
  008fc	00 00 00 00	 DD	 $LN14@response_t
  00900	00 00 00 00	 DD	 $LN16@response_t
  00904	00 00 00 00	 DD	 $LN17@response_t
$LN70@response_t:
  00908	00		 DB	 0
  00909	03		 DB	 3
  0090a	03		 DB	 3
  0090b	03		 DB	 3
  0090c	03		 DB	 3
  0090d	03		 DB	 3
  0090e	03		 DB	 3
  0090f	03		 DB	 3
  00910	03		 DB	 3
  00911	00		 DB	 0
  00912	03		 DB	 3
  00913	01		 DB	 1
  00914	03		 DB	 3
  00915	00		 DB	 0
  00916	03		 DB	 3
  00917	03		 DB	 3
  00918	03		 DB	 3
  00919	03		 DB	 3
  0091a	03		 DB	 3
  0091b	03		 DB	 3
  0091c	03		 DB	 3
  0091d	03		 DB	 3
  0091e	00		 DB	 0
  0091f	03		 DB	 3
  00920	02		 DB	 2
  00921	03		 DB	 3
  00922	03		 DB	 3
  00923	00		 DB	 0
?response_to_waypoint_attack_action@@YGHW4ENTITY_MESSAGES@@PAUENTITY@@1PAD@Z ENDP ; response_to_waypoint_attack_action
_TEXT	ENDS
; Function compile flags: /Odtp /ZI
; File c:\users\nhv90\projects\eech\aphavoc\source\entity\mobile\mb_msgs.c
;	COMDAT ?response_to_waypoint_approach_reached@@YGHW4ENTITY_MESSAGES@@PAUENTITY@@1PAD@Z
_TEXT	SEGMENT
_message$ = 8						; size = 4
_receiver$ = 12						; size = 4
_sender$ = 16						; size = 4
_pargs$ = 20						; size = 4
?response_to_waypoint_approach_reached@@YGHW4ENTITY_MESSAGES@@PAUENTITY@@1PAD@Z PROC ; response_to_waypoint_approach_reached, COMDAT

; 441  : {

  00000	55		 push	 ebp
  00001	8b ec		 mov	 ebp, esp
  00003	83 ec 40	 sub	 esp, 64			; 00000040H
  00006	53		 push	 ebx
  00007	56		 push	 esi
  00008	57		 push	 edi

; 442  : 	ASSERT (sender);

  00009	83 7d 10 00	 cmp	 DWORD PTR _sender$[ebp], 0
  0000d	75 18		 jne	 SHORT $LN2@response_t
  0000f	a1 00 00 00 00	 mov	 eax, DWORD PTR ?__LINE__Var@?0??response_to_waypoint_approach_reached@@YGHW4ENTITY_MESSAGES@@PAUENTITY@@1PAD@Z@4JA
  00014	83 c0 01	 add	 eax, 1
  00017	50		 push	 eax
  00018	68 00 00 00 00	 push	 OFFSET ??_C@_0EE@DLIIEJCN@c?3?2users?2nhv90?2projects?2eech?2ap@
  0001d	68 00 00 00 00	 push	 OFFSET ??_C@_06CGHJMPBJ@sender@
  00022	e8 00 00 00 00	 call	 ?process_assert@@YGXPBD0H@Z ; process_assert
$LN2@response_t:

; 443  : 
; 444  : 	ASSERT (sender->type == ENTITY_TYPE_WAYPOINT);

  00027	8b 45 10	 mov	 eax, DWORD PTR _sender$[ebp]
  0002a	83 38 24	 cmp	 DWORD PTR [eax], 36	; 00000024H
  0002d	74 18		 je	 SHORT $LN3@response_t
  0002f	a1 00 00 00 00	 mov	 eax, DWORD PTR ?__LINE__Var@?0??response_to_waypoint_approach_reached@@YGHW4ENTITY_MESSAGES@@PAUENTITY@@1PAD@Z@4JA
  00034	83 c0 03	 add	 eax, 3
  00037	50		 push	 eax
  00038	68 00 00 00 00	 push	 OFFSET ??_C@_0EE@DLIIEJCN@c?3?2users?2nhv90?2projects?2eech?2ap@
  0003d	68 00 00 00 00	 push	 OFFSET ??_C@_0CF@JOKOGIDD@sender?9?$DOtype?5?$DN?$DN?5ENTITY_TYPE_WAY@
  00042	e8 00 00 00 00	 call	 ?process_assert@@YGXPBD0H@Z ; process_assert
$LN3@response_t:

; 445  : 
; 446  : 	ASSERT (get_comms_model () == COMMS_MODEL_SERVER);

  00047	83 3d 00 00 00
	00 00		 cmp	 DWORD PTR ?system_comms_model@@3W4COMMS_MODEL_TYPES@@A, 0 ; system_comms_model
  0004e	74 18		 je	 SHORT $LN4@response_t
  00050	a1 00 00 00 00	 mov	 eax, DWORD PTR ?__LINE__Var@?0??response_to_waypoint_approach_reached@@YGHW4ENTITY_MESSAGES@@PAUENTITY@@1PAD@Z@4JA
  00055	83 c0 05	 add	 eax, 5
  00058	50		 push	 eax
  00059	68 00 00 00 00	 push	 OFFSET ??_C@_0EE@DLIIEJCN@c?3?2users?2nhv90?2projects?2eech?2ap@
  0005e	68 00 00 00 00	 push	 OFFSET ??_C@_0CJ@DMBLBJBK@get_comms_model?5?$CI?$CJ?5?$DN?$DN?5COMMS_MOD@
  00063	e8 00 00 00 00	 call	 ?process_assert@@YGXPBD0H@Z ; process_assert
$LN4@response_t:

; 447  : 
; 448  : 	#if DEBUG_MODULE >= 2
; 449  : 
; 450  : 	debug_log_entity_message (message, receiver, sender, pargs);
; 451  : 
; 452  : 	#endif
; 453  : 
; 454  : 	open_client_server_entity_flaps (receiver);

  00068	8b 45 0c	 mov	 eax, DWORD PTR _receiver$[ebp]
  0006b	50		 push	 eax
  0006c	e8 00 00 00 00	 call	 ?open_client_server_entity_flaps@@YGXPAUENTITY@@@Z ; open_client_server_entity_flaps

; 455  : 
; 456  : 	return (TRUE);

  00071	b8 01 00 00 00	 mov	 eax, 1

; 457  : }

  00076	5f		 pop	 edi
  00077	5e		 pop	 esi
  00078	5b		 pop	 ebx
  00079	8b e5		 mov	 esp, ebp
  0007b	5d		 pop	 ebp
  0007c	c2 10 00	 ret	 16			; 00000010H
?response_to_waypoint_approach_reached@@YGHW4ENTITY_MESSAGES@@PAUENTITY@@1PAD@Z ENDP ; response_to_waypoint_approach_reached
_TEXT	ENDS
; Function compile flags: /Odtp /ZI
; File c:\users\nhv90\projects\eech\aphavoc\source\entity\mobile\mb_msgs.c
;	COMDAT ?response_to_task_assigned@@YGHW4ENTITY_MESSAGES@@PAUENTITY@@1PAD@Z
_TEXT	SEGMENT
tv489 = -116						; size = 4
tv447 = -116						; size = 4
tv405 = -116						; size = 4
tv344 = -116						; size = 4
tv481 = -112						; size = 4
tv439 = -112						; size = 4
tv397 = -112						; size = 4
tv390 = -112						; size = 4
tv336 = -112						; size = 4
tv251 = -112						; size = 4
tv692 = -108						; size = 4
tv670 = -108						; size = 4
tv644 = -108						; size = 4
tv614 = -108						; size = 4
tv588 = -108						; size = 4
tv567 = -108						; size = 4
tv540 = -108						; size = 4
tv508 = -108						; size = 4
tv466 = -108						; size = 4
tv424 = -108						; size = 4
tv384 = -108						; size = 4
tv363 = -108						; size = 4
tv318 = -108						; size = 4
tv299 = -108						; size = 4
tv265 = -108						; size = 4
tv245 = -108						; size = 4
tv221 = -108						; size = 4
tv196 = -108						; size = 4
tv168 = -108						; size = 4
tv147 = -108						; size = 4
tv95 = -108						; size = 4
tv684 = -104						; size = 4
tv662 = -104						; size = 4
tv636 = -104						; size = 4
tv606 = -104						; size = 4
tv580 = -104						; size = 4
tv560 = -104						; size = 4
tv532 = -104						; size = 4
tv500 = -104						; size = 4
tv458 = -104						; size = 4
tv416 = -104						; size = 4
tv377 = -104						; size = 4
tv355 = -104						; size = 4
tv311 = -104						; size = 4
tv292 = -104						; size = 4
tv258 = -104						; size = 4
tv238 = -104						; size = 4
tv213 = -104						; size = 4
tv188 = -104						; size = 4
tv160 = -104						; size = 4
tv139 = -104						; size = 4
tv87 = -104						; size = 4
_target$1 = -36						; size = 4
_guide$2 = -32						; size = 4
_task_type$ = -28					; size = 4
_raw$ = -24						; size = 4
_end_landing$ = -20					; size = 4
_end_keysite$ = -16					; size = 4
_landing_en$ = -12					; size = 4
_group$ = -8						; size = 4
_task$ = -4						; size = 4
_message$ = 8						; size = 4
_receiver$ = 12						; size = 4
_sender$ = 16						; size = 4
_pargs$ = 20						; size = 4
?response_to_task_assigned@@YGHW4ENTITY_MESSAGES@@PAUENTITY@@1PAD@Z PROC ; response_to_task_assigned, COMDAT

; 153  : {

  00000	55		 push	 ebp
  00001	8b ec		 mov	 ebp, esp
  00003	83 ec 74	 sub	 esp, 116		; 00000074H
  00006	53		 push	 ebx
  00007	56		 push	 esi
  00008	57		 push	 edi

; 154  : 
; 155  : 	entity
; 156  : 		*task,
; 157  : 		*group,
; 158  : 		*landing_en,
; 159  : 		*end_keysite,
; 160  : 		*end_landing;
; 161  : 
; 162  : 	mobile
; 163  : 		*raw;
; 164  : 
; 165  : 	int
; 166  : 		task_type;
; 167  : 
; 168  : 	#if DEBUG_MODULE >= 2
; 169  : 
; 170  : 	debug_log_entity_message (message, receiver, sender, pargs);
; 171  : 
; 172  : 	#endif
; 173  : 
; 174  : 	ASSERT (sender);

  00009	83 7d 10 00	 cmp	 DWORD PTR _sender$[ebp], 0
  0000d	75 18		 jne	 SHORT $LN6@response_t
  0000f	a1 00 00 00 00	 mov	 eax, DWORD PTR ?__LINE__Var@?0??response_to_task_assigned@@YGHW4ENTITY_MESSAGES@@PAUENTITY@@1PAD@Z@4JA
  00014	83 c0 15	 add	 eax, 21			; 00000015H
  00017	50		 push	 eax
  00018	68 00 00 00 00	 push	 OFFSET ??_C@_0EE@DLIIEJCN@c?3?2users?2nhv90?2projects?2eech?2ap@
  0001d	68 00 00 00 00	 push	 OFFSET ??_C@_06CGHJMPBJ@sender@
  00022	e8 00 00 00 00	 call	 ?process_assert@@YGXPBD0H@Z ; process_assert
$LN6@response_t:

; 175  : 
; 176  : 	ASSERT (sender->type == ENTITY_TYPE_TASK);

  00027	8b 45 10	 mov	 eax, DWORD PTR _sender$[ebp]
  0002a	83 38 22	 cmp	 DWORD PTR [eax], 34	; 00000022H
  0002d	74 18		 je	 SHORT $LN7@response_t
  0002f	a1 00 00 00 00	 mov	 eax, DWORD PTR ?__LINE__Var@?0??response_to_task_assigned@@YGHW4ENTITY_MESSAGES@@PAUENTITY@@1PAD@Z@4JA
  00034	83 c0 17	 add	 eax, 23			; 00000017H
  00037	50		 push	 eax
  00038	68 00 00 00 00	 push	 OFFSET ??_C@_0EE@DLIIEJCN@c?3?2users?2nhv90?2projects?2eech?2ap@
  0003d	68 00 00 00 00	 push	 OFFSET ??_C@_0CB@JCFBNGNO@sender?9?$DOtype?5?$DN?$DN?5ENTITY_TYPE_TAS@
  00042	e8 00 00 00 00	 call	 ?process_assert@@YGXPBD0H@Z ; process_assert
$LN7@response_t:

; 177  : 
; 178  : 	ASSERT (get_comms_model () == COMMS_MODEL_SERVER);

  00047	83 3d 00 00 00
	00 00		 cmp	 DWORD PTR ?system_comms_model@@3W4COMMS_MODEL_TYPES@@A, 0 ; system_comms_model
  0004e	74 18		 je	 SHORT $LN8@response_t
  00050	a1 00 00 00 00	 mov	 eax, DWORD PTR ?__LINE__Var@?0??response_to_task_assigned@@YGHW4ENTITY_MESSAGES@@PAUENTITY@@1PAD@Z@4JA
  00055	83 c0 19	 add	 eax, 25			; 00000019H
  00058	50		 push	 eax
  00059	68 00 00 00 00	 push	 OFFSET ??_C@_0EE@DLIIEJCN@c?3?2users?2nhv90?2projects?2eech?2ap@
  0005e	68 00 00 00 00	 push	 OFFSET ??_C@_0CJ@DMBLBJBK@get_comms_model?5?$CI?$CJ?5?$DN?$DN?5COMMS_MOD@
  00063	e8 00 00 00 00	 call	 ?process_assert@@YGXPBD0H@Z ; process_assert
$LN8@response_t:

; 179  : 
; 180  : 	raw = (mobile *) get_local_entity_data (receiver);

  00068	8b 45 0c	 mov	 eax, DWORD PTR _receiver$[ebp]
  0006b	8b 48 04	 mov	 ecx, DWORD PTR [eax+4]
  0006e	89 4d e8	 mov	 DWORD PTR _raw$[ebp], ecx

; 181  : 
; 182  : 	group = get_local_entity_parent (receiver, LIST_TYPE_MEMBER);

  00071	83 7d 0c 00	 cmp	 DWORD PTR _receiver$[ebp], 0
  00075	74 0a		 je	 SHORT $LN36@response_t
  00077	8b 45 0c	 mov	 eax, DWORD PTR _receiver$[ebp]
  0007a	8b 08		 mov	 ecx, DWORD PTR [eax]
  0007c	89 4d 98	 mov	 DWORD PTR tv87[ebp], ecx
  0007f	eb 21		 jmp	 SHORT $LN37@response_t
$LN36@response_t:
  00081	8b 15 00 00 00
	00		 mov	 edx, DWORD PTR ?__LINE__Var@?0??response_to_task_assigned@@YGHW4ENTITY_MESSAGES@@PAUENTITY@@1PAD@Z@4JA
  00087	83 c2 1d	 add	 edx, 29			; 0000001dH
  0008a	52		 push	 edx
  0008b	68 00 00 00 00	 push	 OFFSET ??_C@_0EE@DLIIEJCN@c?3?2users?2nhv90?2projects?2eech?2ap@
  00090	a1 00 00 00 00	 mov	 eax, DWORD PTR ?null_entity_pointer_message@@3PBDB ; null_entity_pointer_message
  00095	50		 push	 eax
  00096	e8 00 00 00 00	 call	 ?process_assert@@YGXPBD0H@Z ; process_assert
  0009b	c7 45 98 00 00
	00 00		 mov	 DWORD PTR tv87[ebp], 0
$LN37@response_t:
  000a2	b9 01 00 00 00	 mov	 ecx, 1
  000a7	85 c9		 test	 ecx, ecx
  000a9	74 09		 je	 SHORT $LN38@response_t
  000ab	c7 45 94 19 00
	00 00		 mov	 DWORD PTR tv95[ebp], 25	; 00000019H
  000b2	eb 21		 jmp	 SHORT $LN39@response_t
$LN38@response_t:
  000b4	8b 15 00 00 00
	00		 mov	 edx, DWORD PTR ?__LINE__Var@?0??response_to_task_assigned@@YGHW4ENTITY_MESSAGES@@PAUENTITY@@1PAD@Z@4JA
  000ba	83 c2 1d	 add	 edx, 29			; 0000001dH
  000bd	52		 push	 edx
  000be	68 00 00 00 00	 push	 OFFSET ??_C@_0EE@DLIIEJCN@c?3?2users?2nhv90?2projects?2eech?2ap@
  000c3	a1 00 00 00 00	 mov	 eax, DWORD PTR ?overload_invalid_list_type_message@@3PBDB ; overload_invalid_list_type_message
  000c8	50		 push	 eax
  000c9	e8 00 00 00 00	 call	 ?process_assert@@YGXPBD0H@Z ; process_assert
  000ce	c7 45 94 00 00
	00 00		 mov	 DWORD PTR tv95[ebp], 0
$LN39@response_t:
  000d5	6a 19		 push	 25			; 00000019H
  000d7	8b 4d 0c	 mov	 ecx, DWORD PTR _receiver$[ebp]
  000da	51		 push	 ecx
  000db	69 55 98 b4 00
	00 00		 imul	 edx, DWORD PTR tv87[ebp], 180
  000e2	8b 45 94	 mov	 eax, DWORD PTR tv95[ebp]
  000e5	8b 8c 82 00 00
	00 00		 mov	 ecx, DWORD PTR ?fn_get_local_entity_parent@@3PAY0CN@P6GPAUENTITY@@PAU1@W4LIST_TYPES@@@ZA[edx+eax*4]
  000ec	ff d1		 call	 ecx
  000ee	89 45 f8	 mov	 DWORD PTR _group$[ebp], eax

; 183  : 
; 184  : 	task_type = get_local_entity_int_value (sender, INT_TYPE_ENTITY_SUB_TYPE); 

  000f1	83 7d 10 00	 cmp	 DWORD PTR _sender$[ebp], 0
  000f5	74 0a		 je	 SHORT $LN40@response_t
  000f7	8b 45 10	 mov	 eax, DWORD PTR _sender$[ebp]
  000fa	8b 08		 mov	 ecx, DWORD PTR [eax]
  000fc	89 4d 98	 mov	 DWORD PTR tv139[ebp], ecx
  000ff	eb 21		 jmp	 SHORT $LN41@response_t
$LN40@response_t:
  00101	8b 15 00 00 00
	00		 mov	 edx, DWORD PTR ?__LINE__Var@?0??response_to_task_assigned@@YGHW4ENTITY_MESSAGES@@PAUENTITY@@1PAD@Z@4JA
  00107	83 c2 1f	 add	 edx, 31			; 0000001fH
  0010a	52		 push	 edx
  0010b	68 00 00 00 00	 push	 OFFSET ??_C@_0EE@DLIIEJCN@c?3?2users?2nhv90?2projects?2eech?2ap@
  00110	a1 00 00 00 00	 mov	 eax, DWORD PTR ?null_entity_pointer_message@@3PBDB ; null_entity_pointer_message
  00115	50		 push	 eax
  00116	e8 00 00 00 00	 call	 ?process_assert@@YGXPBD0H@Z ; process_assert
  0011b	c7 45 98 00 00
	00 00		 mov	 DWORD PTR tv139[ebp], 0
$LN41@response_t:
  00122	b9 01 00 00 00	 mov	 ecx, 1
  00127	85 c9		 test	 ecx, ecx
  00129	74 09		 je	 SHORT $LN42@response_t
  0012b	c7 45 94 34 00
	00 00		 mov	 DWORD PTR tv147[ebp], 52 ; 00000034H
  00132	eb 21		 jmp	 SHORT $LN43@response_t
$LN42@response_t:
  00134	8b 15 00 00 00
	00		 mov	 edx, DWORD PTR ?__LINE__Var@?0??response_to_task_assigned@@YGHW4ENTITY_MESSAGES@@PAUENTITY@@1PAD@Z@4JA
  0013a	83 c2 1f	 add	 edx, 31			; 0000001fH
  0013d	52		 push	 edx
  0013e	68 00 00 00 00	 push	 OFFSET ??_C@_0EE@DLIIEJCN@c?3?2users?2nhv90?2projects?2eech?2ap@
  00143	a1 00 00 00 00	 mov	 eax, DWORD PTR ?overload_invalid_int_type_message@@3PBDB ; overload_invalid_int_type_message
  00148	50		 push	 eax
  00149	e8 00 00 00 00	 call	 ?process_assert@@YGXPBD0H@Z ; process_assert
  0014e	c7 45 94 00 00
	00 00		 mov	 DWORD PTR tv147[ebp], 0
$LN43@response_t:
  00155	6a 34		 push	 52			; 00000034H
  00157	8b 4d 10	 mov	 ecx, DWORD PTR _sender$[ebp]
  0015a	51		 push	 ecx
  0015b	69 55 98 5c 04
	00 00		 imul	 edx, DWORD PTR tv139[ebp], 1116
  00162	8b 45 94	 mov	 eax, DWORD PTR tv147[ebp]
  00165	8b 8c 82 00 00
	00 00		 mov	 ecx, DWORD PTR ?fn_get_local_entity_int_value@@3PAY0BBH@P6GHPAUENTITY@@W4INT_TYPES@@@ZA[edx+eax*4]
  0016c	ff d1		 call	 ecx
  0016e	89 45 e4	 mov	 DWORD PTR _task_type$[ebp], eax

; 185  : 
; 186  : 	/////////////////////////////////////////////////////////////////
; 187  : 	//
; 188  : 	// Assign task target to mobile (must be done before takeoff task assigned)
; 189  : 	//
; 190  : 	/////////////////////////////////////////////////////////////////
; 191  : 
; 192  : 	if (task_type == ENTITY_SUB_TYPE_TASK_ENGAGE)

  00171	83 7d e4 09	 cmp	 DWORD PTR _task_type$[ebp], 9
  00175	0f 85 ee 01 00
	00		 jne	 $LN9@response_t

; 193  : 	{
; 194  : 		entity
; 195  : 			*guide,
; 196  : 			*target;
; 197  : 
; 198  : 		target = get_local_entity_parent (sender, LIST_TYPE_TASK_DEPENDENT);

  0017b	83 7d 10 00	 cmp	 DWORD PTR _sender$[ebp], 0
  0017f	74 0a		 je	 SHORT $LN44@response_t
  00181	8b 45 10	 mov	 eax, DWORD PTR _sender$[ebp]
  00184	8b 08		 mov	 ecx, DWORD PTR [eax]
  00186	89 4d 98	 mov	 DWORD PTR tv160[ebp], ecx
  00189	eb 21		 jmp	 SHORT $LN45@response_t
$LN44@response_t:
  0018b	8b 15 00 00 00
	00		 mov	 edx, DWORD PTR ?__LINE__Var@?0??response_to_task_assigned@@YGHW4ENTITY_MESSAGES@@PAUENTITY@@1PAD@Z@4JA
  00191	83 c2 2d	 add	 edx, 45			; 0000002dH
  00194	52		 push	 edx
  00195	68 00 00 00 00	 push	 OFFSET ??_C@_0EE@DLIIEJCN@c?3?2users?2nhv90?2projects?2eech?2ap@
  0019a	a1 00 00 00 00	 mov	 eax, DWORD PTR ?null_entity_pointer_message@@3PBDB ; null_entity_pointer_message
  0019f	50		 push	 eax
  001a0	e8 00 00 00 00	 call	 ?process_assert@@YGXPBD0H@Z ; process_assert
  001a5	c7 45 98 00 00
	00 00		 mov	 DWORD PTR tv160[ebp], 0
$LN45@response_t:
  001ac	b9 01 00 00 00	 mov	 ecx, 1
  001b1	85 c9		 test	 ecx, ecx
  001b3	74 09		 je	 SHORT $LN46@response_t
  001b5	c7 45 94 27 00
	00 00		 mov	 DWORD PTR tv168[ebp], 39 ; 00000027H
  001bc	eb 21		 jmp	 SHORT $LN47@response_t
$LN46@response_t:
  001be	8b 15 00 00 00
	00		 mov	 edx, DWORD PTR ?__LINE__Var@?0??response_to_task_assigned@@YGHW4ENTITY_MESSAGES@@PAUENTITY@@1PAD@Z@4JA
  001c4	83 c2 2d	 add	 edx, 45			; 0000002dH
  001c7	52		 push	 edx
  001c8	68 00 00 00 00	 push	 OFFSET ??_C@_0EE@DLIIEJCN@c?3?2users?2nhv90?2projects?2eech?2ap@
  001cd	a1 00 00 00 00	 mov	 eax, DWORD PTR ?overload_invalid_list_type_message@@3PBDB ; overload_invalid_list_type_message
  001d2	50		 push	 eax
  001d3	e8 00 00 00 00	 call	 ?process_assert@@YGXPBD0H@Z ; process_assert
  001d8	c7 45 94 00 00
	00 00		 mov	 DWORD PTR tv168[ebp], 0
$LN47@response_t:
  001df	6a 27		 push	 39			; 00000027H
  001e1	8b 4d 10	 mov	 ecx, DWORD PTR _sender$[ebp]
  001e4	51		 push	 ecx
  001e5	69 55 98 b4 00
	00 00		 imul	 edx, DWORD PTR tv160[ebp], 180
  001ec	8b 45 94	 mov	 eax, DWORD PTR tv168[ebp]
  001ef	8b 8c 82 00 00
	00 00		 mov	 ecx, DWORD PTR ?fn_get_local_entity_parent@@3PAY0CN@P6GPAUENTITY@@PAU1@W4LIST_TYPES@@@ZA[edx+eax*4]
  001f6	ff d1		 call	 ecx
  001f8	89 45 dc	 mov	 DWORD PTR _target$1[ebp], eax

; 199  : 
; 200  : 		ASSERT (target);

  001fb	83 7d dc 00	 cmp	 DWORD PTR _target$1[ebp], 0
  001ff	75 18		 jne	 SHORT $LN10@response_t
  00201	a1 00 00 00 00	 mov	 eax, DWORD PTR ?__LINE__Var@?0??response_to_task_assigned@@YGHW4ENTITY_MESSAGES@@PAUENTITY@@1PAD@Z@4JA
  00206	83 c0 2f	 add	 eax, 47			; 0000002fH
  00209	50		 push	 eax
  0020a	68 00 00 00 00	 push	 OFFSET ??_C@_0EE@DLIIEJCN@c?3?2users?2nhv90?2projects?2eech?2ap@
  0020f	68 00 00 00 00	 push	 OFFSET ??_C@_06JJLAMBGK@target@
  00214	e8 00 00 00 00	 call	 ?process_assert@@YGXPBD0H@Z ; process_assert
$LN10@response_t:

; 201  : 
; 202  : 		set_client_server_entity_parent (receiver, LIST_TYPE_TARGET, target);

  00219	8b 45 dc	 mov	 eax, DWORD PTR _target$1[ebp]
  0021c	50		 push	 eax
  0021d	6a 26		 push	 38			; 00000026H
  0021f	8b 4d 0c	 mov	 ecx, DWORD PTR _receiver$[ebp]
  00222	51		 push	 ecx
  00223	e8 00 00 00 00	 call	 ?set_client_server_entity_parent@@YGXPAUENTITY@@W4LIST_TYPES@@0@Z ; set_client_server_entity_parent

; 203  : 
; 204  : 		guide = get_local_entity_parent (receiver, LIST_TYPE_FOLLOWER);

  00228	83 7d 0c 00	 cmp	 DWORD PTR _receiver$[ebp], 0
  0022c	74 0a		 je	 SHORT $LN48@response_t
  0022e	8b 45 0c	 mov	 eax, DWORD PTR _receiver$[ebp]
  00231	8b 08		 mov	 ecx, DWORD PTR [eax]
  00233	89 4d 98	 mov	 DWORD PTR tv188[ebp], ecx
  00236	eb 21		 jmp	 SHORT $LN49@response_t
$LN48@response_t:
  00238	8b 15 00 00 00
	00		 mov	 edx, DWORD PTR ?__LINE__Var@?0??response_to_task_assigned@@YGHW4ENTITY_MESSAGES@@PAUENTITY@@1PAD@Z@4JA
  0023e	83 c2 33	 add	 edx, 51			; 00000033H
  00241	52		 push	 edx
  00242	68 00 00 00 00	 push	 OFFSET ??_C@_0EE@DLIIEJCN@c?3?2users?2nhv90?2projects?2eech?2ap@
  00247	a1 00 00 00 00	 mov	 eax, DWORD PTR ?null_entity_pointer_message@@3PBDB ; null_entity_pointer_message
  0024c	50		 push	 eax
  0024d	e8 00 00 00 00	 call	 ?process_assert@@YGXPBD0H@Z ; process_assert
  00252	c7 45 98 00 00
	00 00		 mov	 DWORD PTR tv188[ebp], 0
$LN49@response_t:
  00259	b9 01 00 00 00	 mov	 ecx, 1
  0025e	85 c9		 test	 ecx, ecx
  00260	74 09		 je	 SHORT $LN50@response_t
  00262	c7 45 94 0d 00
	00 00		 mov	 DWORD PTR tv196[ebp], 13 ; 0000000dH
  00269	eb 21		 jmp	 SHORT $LN51@response_t
$LN50@response_t:
  0026b	8b 15 00 00 00
	00		 mov	 edx, DWORD PTR ?__LINE__Var@?0??response_to_task_assigned@@YGHW4ENTITY_MESSAGES@@PAUENTITY@@1PAD@Z@4JA
  00271	83 c2 33	 add	 edx, 51			; 00000033H
  00274	52		 push	 edx
  00275	68 00 00 00 00	 push	 OFFSET ??_C@_0EE@DLIIEJCN@c?3?2users?2nhv90?2projects?2eech?2ap@
  0027a	a1 00 00 00 00	 mov	 eax, DWORD PTR ?overload_invalid_list_type_message@@3PBDB ; overload_invalid_list_type_message
  0027f	50		 push	 eax
  00280	e8 00 00 00 00	 call	 ?process_assert@@YGXPBD0H@Z ; process_assert
  00285	c7 45 94 00 00
	00 00		 mov	 DWORD PTR tv196[ebp], 0
$LN51@response_t:
  0028c	6a 0d		 push	 13			; 0000000dH
  0028e	8b 4d 0c	 mov	 ecx, DWORD PTR _receiver$[ebp]
  00291	51		 push	 ecx
  00292	69 55 98 b4 00
	00 00		 imul	 edx, DWORD PTR tv188[ebp], 180
  00299	8b 45 94	 mov	 eax, DWORD PTR tv196[ebp]
  0029c	8b 8c 82 00 00
	00 00		 mov	 ecx, DWORD PTR ?fn_get_local_entity_parent@@3PAY0CN@P6GPAUENTITY@@PAU1@W4LIST_TYPES@@@ZA[edx+eax*4]
  002a3	ff d1		 call	 ecx
  002a5	89 45 e0	 mov	 DWORD PTR _guide$2[ebp], eax

; 205  : 
; 206  : 		ASSERT (guide);

  002a8	83 7d e0 00	 cmp	 DWORD PTR _guide$2[ebp], 0
  002ac	75 18		 jne	 SHORT $LN11@response_t
  002ae	a1 00 00 00 00	 mov	 eax, DWORD PTR ?__LINE__Var@?0??response_to_task_assigned@@YGHW4ENTITY_MESSAGES@@PAUENTITY@@1PAD@Z@4JA
  002b3	83 c0 35	 add	 eax, 53			; 00000035H
  002b6	50		 push	 eax
  002b7	68 00 00 00 00	 push	 OFFSET ??_C@_0EE@DLIIEJCN@c?3?2users?2nhv90?2projects?2eech?2ap@
  002bc	68 00 00 00 00	 push	 OFFSET ??_C@_05HLIEEKJG@guide@
  002c1	e8 00 00 00 00	 call	 ?process_assert@@YGXPBD0H@Z ; process_assert
$LN11@response_t:

; 207  : 
; 208  : 		ASSERT (get_local_entity_parent (guide, LIST_TYPE_GUIDE) == sender);

  002c6	83 7d e0 00	 cmp	 DWORD PTR _guide$2[ebp], 0
  002ca	74 0a		 je	 SHORT $LN52@response_t
  002cc	8b 45 e0	 mov	 eax, DWORD PTR _guide$2[ebp]
  002cf	8b 08		 mov	 ecx, DWORD PTR [eax]
  002d1	89 4d 98	 mov	 DWORD PTR tv213[ebp], ecx
  002d4	eb 21		 jmp	 SHORT $LN53@response_t
$LN52@response_t:
  002d6	8b 15 00 00 00
	00		 mov	 edx, DWORD PTR ?__LINE__Var@?0??response_to_task_assigned@@YGHW4ENTITY_MESSAGES@@PAUENTITY@@1PAD@Z@4JA
  002dc	83 c2 37	 add	 edx, 55			; 00000037H
  002df	52		 push	 edx
  002e0	68 00 00 00 00	 push	 OFFSET ??_C@_0EE@DLIIEJCN@c?3?2users?2nhv90?2projects?2eech?2ap@
  002e5	a1 00 00 00 00	 mov	 eax, DWORD PTR ?null_entity_pointer_message@@3PBDB ; null_entity_pointer_message
  002ea	50		 push	 eax
  002eb	e8 00 00 00 00	 call	 ?process_assert@@YGXPBD0H@Z ; process_assert
  002f0	c7 45 98 00 00
	00 00		 mov	 DWORD PTR tv213[ebp], 0
$LN53@response_t:
  002f7	b9 01 00 00 00	 mov	 ecx, 1
  002fc	85 c9		 test	 ecx, ecx
  002fe	74 09		 je	 SHORT $LN54@response_t
  00300	c7 45 94 10 00
	00 00		 mov	 DWORD PTR tv221[ebp], 16 ; 00000010H
  00307	eb 21		 jmp	 SHORT $LN55@response_t
$LN54@response_t:
  00309	8b 15 00 00 00
	00		 mov	 edx, DWORD PTR ?__LINE__Var@?0??response_to_task_assigned@@YGHW4ENTITY_MESSAGES@@PAUENTITY@@1PAD@Z@4JA
  0030f	83 c2 37	 add	 edx, 55			; 00000037H
  00312	52		 push	 edx
  00313	68 00 00 00 00	 push	 OFFSET ??_C@_0EE@DLIIEJCN@c?3?2users?2nhv90?2projects?2eech?2ap@
  00318	a1 00 00 00 00	 mov	 eax, DWORD PTR ?overload_invalid_list_type_message@@3PBDB ; overload_invalid_list_type_message
  0031d	50		 push	 eax
  0031e	e8 00 00 00 00	 call	 ?process_assert@@YGXPBD0H@Z ; process_assert
  00323	c7 45 94 00 00
	00 00		 mov	 DWORD PTR tv221[ebp], 0
$LN55@response_t:
  0032a	6a 10		 push	 16			; 00000010H
  0032c	8b 4d e0	 mov	 ecx, DWORD PTR _guide$2[ebp]
  0032f	51		 push	 ecx
  00330	69 55 98 b4 00
	00 00		 imul	 edx, DWORD PTR tv213[ebp], 180
  00337	8b 45 94	 mov	 eax, DWORD PTR tv221[ebp]
  0033a	8b 8c 82 00 00
	00 00		 mov	 ecx, DWORD PTR ?fn_get_local_entity_parent@@3PAY0CN@P6GPAUENTITY@@PAU1@W4LIST_TYPES@@@ZA[edx+eax*4]
  00341	ff d1		 call	 ecx
  00343	3b 45 10	 cmp	 eax, DWORD PTR _sender$[ebp]
  00346	74 18		 je	 SHORT $LN12@response_t
  00348	a1 00 00 00 00	 mov	 eax, DWORD PTR ?__LINE__Var@?0??response_to_task_assigned@@YGHW4ENTITY_MESSAGES@@PAUENTITY@@1PAD@Z@4JA
  0034d	83 c0 37	 add	 eax, 55			; 00000037H
  00350	50		 push	 eax
  00351	68 00 00 00 00	 push	 OFFSET ??_C@_0EE@DLIIEJCN@c?3?2users?2nhv90?2projects?2eech?2ap@
  00356	68 00 00 00 00	 push	 OFFSET ??_C@_0DL@KGHJEFM@get_local_entity_parent?5?$CIguide?0@
  0035b	e8 00 00 00 00	 call	 ?process_assert@@YGXPBD0H@Z ; process_assert
$LN12@response_t:

; 209  : 
; 210  : 		initialise_attack_guide (guide);

  00360	8b 45 e0	 mov	 eax, DWORD PTR _guide$2[ebp]
  00363	50		 push	 eax
  00364	e8 00 00 00 00	 call	 ?initialise_attack_guide@@YGXPAUENTITY@@@Z ; initialise_attack_guide
$LN9@response_t:

; 211  : 	}
; 212  : 
; 213  : 	/////////////////////////////////////////////////////////////////
; 214  : 	//
; 215  : 	//
; 216  : 	//
; 217  : 	/////////////////////////////////////////////////////////////////
; 218  : 
; 219  : 	switch (get_local_entity_int_value (receiver, INT_TYPE_OPERATIONAL_STATE))

  00369	83 7d 0c 00	 cmp	 DWORD PTR _receiver$[ebp], 0
  0036d	74 0a		 je	 SHORT $LN56@response_t
  0036f	8b 45 0c	 mov	 eax, DWORD PTR _receiver$[ebp]
  00372	8b 08		 mov	 ecx, DWORD PTR [eax]
  00374	89 4d 98	 mov	 DWORD PTR tv238[ebp], ecx
  00377	eb 1d		 jmp	 SHORT $LN57@response_t
$LN56@response_t:
  00379	68 db 00 00 00	 push	 219			; 000000dbH
  0037e	68 00 00 00 00	 push	 OFFSET ??_C@_0EE@DLIIEJCN@c?3?2users?2nhv90?2projects?2eech?2ap@
  00383	8b 15 00 00 00
	00		 mov	 edx, DWORD PTR ?null_entity_pointer_message@@3PBDB ; null_entity_pointer_message
  00389	52		 push	 edx
  0038a	e8 00 00 00 00	 call	 ?process_assert@@YGXPBD0H@Z ; process_assert
  0038f	c7 45 98 00 00
	00 00		 mov	 DWORD PTR tv238[ebp], 0
$LN57@response_t:
  00396	b8 01 00 00 00	 mov	 eax, 1
  0039b	85 c0		 test	 eax, eax
  0039d	74 09		 je	 SHORT $LN58@response_t
  0039f	c7 45 94 97 00
	00 00		 mov	 DWORD PTR tv245[ebp], 151 ; 00000097H
  003a6	eb 1d		 jmp	 SHORT $LN59@response_t
$LN58@response_t:
  003a8	68 db 00 00 00	 push	 219			; 000000dbH
  003ad	68 00 00 00 00	 push	 OFFSET ??_C@_0EE@DLIIEJCN@c?3?2users?2nhv90?2projects?2eech?2ap@
  003b2	8b 0d 00 00 00
	00		 mov	 ecx, DWORD PTR ?overload_invalid_int_type_message@@3PBDB ; overload_invalid_int_type_message
  003b8	51		 push	 ecx
  003b9	e8 00 00 00 00	 call	 ?process_assert@@YGXPBD0H@Z ; process_assert
  003be	c7 45 94 00 00
	00 00		 mov	 DWORD PTR tv245[ebp], 0
$LN59@response_t:
  003c5	68 97 00 00 00	 push	 151			; 00000097H
  003ca	8b 55 0c	 mov	 edx, DWORD PTR _receiver$[ebp]
  003cd	52		 push	 edx
  003ce	69 45 98 5c 04
	00 00		 imul	 eax, DWORD PTR tv238[ebp], 1116
  003d5	8b 4d 94	 mov	 ecx, DWORD PTR tv245[ebp]
  003d8	8b 94 88 00 00
	00 00		 mov	 edx, DWORD PTR ?fn_get_local_entity_int_value@@3PAY0BBH@P6GHPAUENTITY@@W4INT_TYPES@@@ZA[eax+ecx*4]
  003df	ff d2		 call	 edx
  003e1	89 45 90	 mov	 DWORD PTR tv251[ebp], eax
  003e4	83 7d 90 04	 cmp	 DWORD PTR tv251[ebp], 4
  003e8	74 19		 je	 SHORT $LN13@response_t
  003ea	83 7d 90 08	 cmp	 DWORD PTR tv251[ebp], 8
  003ee	0f 84 66 09 00
	00		 je	 $LN31@response_t
  003f4	83 7d 90 0c	 cmp	 DWORD PTR tv251[ebp], 12 ; 0000000cH
  003f8	0f 84 5c 09 00
	00		 je	 $LN31@response_t
  003fe	e9 f2 09 00 00	 jmp	 $LN32@response_t
$LN13@response_t:

; 220  : 	{
; 221  : 
; 222  : 		case OPERATIONAL_STATE_LANDED:
; 223  : 		{
; 224  : 
; 225  : 			if ((task_type == ENTITY_SUB_TYPE_TASK_ENGAGE) && (!get_local_entity_int_value (group, INT_TYPE_AIRCRAFT_GROUP)))

  00403	83 7d e4 09	 cmp	 DWORD PTR _task_type$[ebp], 9
  00407	75 7e		 jne	 SHORT $LN14@response_t
  00409	83 7d f8 00	 cmp	 DWORD PTR _group$[ebp], 0
  0040d	74 0a		 je	 SHORT $LN60@response_t
  0040f	8b 45 f8	 mov	 eax, DWORD PTR _group$[ebp]
  00412	8b 08		 mov	 ecx, DWORD PTR [eax]
  00414	89 4d 98	 mov	 DWORD PTR tv258[ebp], ecx
  00417	eb 1d		 jmp	 SHORT $LN61@response_t
$LN60@response_t:
  00419	68 e1 00 00 00	 push	 225			; 000000e1H
  0041e	68 00 00 00 00	 push	 OFFSET ??_C@_0EE@DLIIEJCN@c?3?2users?2nhv90?2projects?2eech?2ap@
  00423	8b 15 00 00 00
	00		 mov	 edx, DWORD PTR ?null_entity_pointer_message@@3PBDB ; null_entity_pointer_message
  00429	52		 push	 edx
  0042a	e8 00 00 00 00	 call	 ?process_assert@@YGXPBD0H@Z ; process_assert
  0042f	c7 45 98 00 00
	00 00		 mov	 DWORD PTR tv258[ebp], 0
$LN61@response_t:
  00436	b8 01 00 00 00	 mov	 eax, 1
  0043b	85 c0		 test	 eax, eax
  0043d	74 09		 je	 SHORT $LN62@response_t
  0043f	c7 45 94 05 00
	00 00		 mov	 DWORD PTR tv265[ebp], 5
  00446	eb 1d		 jmp	 SHORT $LN63@response_t
$LN62@response_t:
  00448	68 e1 00 00 00	 push	 225			; 000000e1H
  0044d	68 00 00 00 00	 push	 OFFSET ??_C@_0EE@DLIIEJCN@c?3?2users?2nhv90?2projects?2eech?2ap@
  00452	8b 0d 00 00 00
	00		 mov	 ecx, DWORD PTR ?overload_invalid_int_type_message@@3PBDB ; overload_invalid_int_type_message
  00458	51		 push	 ecx
  00459	e8 00 00 00 00	 call	 ?process_assert@@YGXPBD0H@Z ; process_assert
  0045e	c7 45 94 00 00
	00 00		 mov	 DWORD PTR tv265[ebp], 0
$LN63@response_t:
  00465	6a 05		 push	 5
  00467	8b 55 f8	 mov	 edx, DWORD PTR _group$[ebp]
  0046a	52		 push	 edx
  0046b	69 45 98 5c 04
	00 00		 imul	 eax, DWORD PTR tv258[ebp], 1116
  00472	8b 4d 94	 mov	 ecx, DWORD PTR tv265[ebp]
  00475	8b 94 88 00 00
	00 00		 mov	 edx, DWORD PTR ?fn_get_local_entity_int_value@@3PAY0BBH@P6GHPAUENTITY@@W4INT_TYPES@@@ZA[eax+ecx*4]
  0047c	ff d2		 call	 edx
  0047e	85 c0		 test	 eax, eax
  00480	75 05		 jne	 SHORT $LN14@response_t

; 226  : 			{
; 227  : 				//
; 228  : 				// Ground based vehicles do not need to takeoff in order to do engage tasks
; 229  : 				//
; 230  : 			}
; 231  : 			else

  00482	e9 c9 08 00 00	 jmp	 $LN28@response_t
$LN14@response_t:

; 232  : 			{
; 233  : 				//
; 234  : 				// Member landed so must takeoff first.
; 235  : 				//
; 236  : 	
; 237  : 				landing_en = get_local_group_member_landing_entity_from_keysite (receiver);

  00487	8b 45 0c	 mov	 eax, DWORD PTR _receiver$[ebp]
  0048a	50		 push	 eax
  0048b	e8 00 00 00 00	 call	 ?get_local_group_member_landing_entity_from_keysite@@YGPAUENTITY@@PAU1@@Z ; get_local_group_member_landing_entity_from_keysite
  00490	89 45 f4	 mov	 DWORD PTR _landing_en$[ebp], eax

; 238  : 	
; 239  : 				ASSERT (landing_en);

  00493	83 7d f4 00	 cmp	 DWORD PTR _landing_en$[ebp], 0
  00497	75 18		 jne	 SHORT $LN16@response_t
  00499	a1 00 00 00 00	 mov	 eax, DWORD PTR ?__LINE__Var@?0??response_to_task_assigned@@YGHW4ENTITY_MESSAGES@@PAUENTITY@@1PAD@Z@4JA
  0049e	83 c0 56	 add	 eax, 86			; 00000056H
  004a1	50		 push	 eax
  004a2	68 00 00 00 00	 push	 OFFSET ??_C@_0EE@DLIIEJCN@c?3?2users?2nhv90?2projects?2eech?2ap@
  004a7	68 00 00 00 00	 push	 OFFSET ??_C@_0L@BBFNENIC@landing_en@
  004ac	e8 00 00 00 00	 call	 ?process_assert@@YGXPBD0H@Z ; process_assert
$LN16@response_t:

; 240  : 	
; 241  : 				task = get_local_landing_entity_task (landing_en, ENTITY_SUB_TYPE_TASK_TAKEOFF);

  004b1	6a 16		 push	 22			; 00000016H
  004b3	8b 45 f4	 mov	 eax, DWORD PTR _landing_en$[ebp]
  004b6	50		 push	 eax
  004b7	e8 00 00 00 00	 call	 ?get_local_landing_entity_task@@YGPAUENTITY@@PAU1@H@Z ; get_local_landing_entity_task
  004bc	89 45 fc	 mov	 DWORD PTR _task$[ebp], eax

; 242  : 	
; 243  : 				ASSERT (task);

  004bf	83 7d fc 00	 cmp	 DWORD PTR _task$[ebp], 0
  004c3	75 18		 jne	 SHORT $LN17@response_t
  004c5	a1 00 00 00 00	 mov	 eax, DWORD PTR ?__LINE__Var@?0??response_to_task_assigned@@YGHW4ENTITY_MESSAGES@@PAUENTITY@@1PAD@Z@4JA
  004ca	83 c0 5a	 add	 eax, 90			; 0000005aH
  004cd	50		 push	 eax
  004ce	68 00 00 00 00	 push	 OFFSET ??_C@_0EE@DLIIEJCN@c?3?2users?2nhv90?2projects?2eech?2ap@
  004d3	68 00 00 00 00	 push	 OFFSET ??_C@_04GGKLLKOO@task@
  004d8	e8 00 00 00 00	 call	 ?process_assert@@YGXPBD0H@Z ; process_assert
$LN17@response_t:

; 244  : 	
; 245  : 				if (get_local_entity_int_value (receiver, INT_TYPE_PLAYER) == ENTITY_PLAYER_AI)

  004dd	83 7d 0c 00	 cmp	 DWORD PTR _receiver$[ebp], 0
  004e1	74 0a		 je	 SHORT $LN64@response_t
  004e3	8b 45 0c	 mov	 eax, DWORD PTR _receiver$[ebp]
  004e6	8b 08		 mov	 ecx, DWORD PTR [eax]
  004e8	89 4d 98	 mov	 DWORD PTR tv292[ebp], ecx
  004eb	eb 1d		 jmp	 SHORT $LN65@response_t
$LN64@response_t:
  004ed	68 f5 00 00 00	 push	 245			; 000000f5H
  004f2	68 00 00 00 00	 push	 OFFSET ??_C@_0EE@DLIIEJCN@c?3?2users?2nhv90?2projects?2eech?2ap@
  004f7	8b 15 00 00 00
	00		 mov	 edx, DWORD PTR ?null_entity_pointer_message@@3PBDB ; null_entity_pointer_message
  004fd	52		 push	 edx
  004fe	e8 00 00 00 00	 call	 ?process_assert@@YGXPBD0H@Z ; process_assert
  00503	c7 45 98 00 00
	00 00		 mov	 DWORD PTR tv292[ebp], 0
$LN65@response_t:
  0050a	b8 01 00 00 00	 mov	 eax, 1
  0050f	85 c0		 test	 eax, eax
  00511	74 09		 je	 SHORT $LN66@response_t
  00513	c7 45 94 9c 00
	00 00		 mov	 DWORD PTR tv299[ebp], 156 ; 0000009cH
  0051a	eb 1d		 jmp	 SHORT $LN67@response_t
$LN66@response_t:
  0051c	68 f5 00 00 00	 push	 245			; 000000f5H
  00521	68 00 00 00 00	 push	 OFFSET ??_C@_0EE@DLIIEJCN@c?3?2users?2nhv90?2projects?2eech?2ap@
  00526	8b 0d 00 00 00
	00		 mov	 ecx, DWORD PTR ?overload_invalid_int_type_message@@3PBDB ; overload_invalid_int_type_message
  0052c	51		 push	 ecx
  0052d	e8 00 00 00 00	 call	 ?process_assert@@YGXPBD0H@Z ; process_assert
  00532	c7 45 94 00 00
	00 00		 mov	 DWORD PTR tv299[ebp], 0
$LN67@response_t:
  00539	68 9c 00 00 00	 push	 156			; 0000009cH
  0053e	8b 55 0c	 mov	 edx, DWORD PTR _receiver$[ebp]
  00541	52		 push	 edx
  00542	69 45 98 5c 04
	00 00		 imul	 eax, DWORD PTR tv292[ebp], 1116
  00549	8b 4d 94	 mov	 ecx, DWORD PTR tv299[ebp]
  0054c	8b 94 88 00 00
	00 00		 mov	 edx, DWORD PTR ?fn_get_local_entity_int_value@@3PAY0BBH@P6GHPAUENTITY@@W4INT_TYPES@@@ZA[eax+ecx*4]
  00553	ff d2		 call	 edx
  00555	85 c0		 test	 eax, eax
  00557	0f 85 4c 05 00
	00		 jne	 $LN4@response_t

; 246  : 				{
; 247  : 					//
; 248  : 					// Set weapon config, AI ONLY
; 249  : 					//
; 250  : 	
; 251  : 					if (get_local_entity_int_value (receiver, INT_TYPE_IDENTIFY_AIRCRAFT))

  0055d	83 7d 0c 00	 cmp	 DWORD PTR _receiver$[ebp], 0
  00561	74 0a		 je	 SHORT $LN68@response_t
  00563	8b 45 0c	 mov	 eax, DWORD PTR _receiver$[ebp]
  00566	8b 08		 mov	 ecx, DWORD PTR [eax]
  00568	89 4d 98	 mov	 DWORD PTR tv311[ebp], ecx
  0056b	eb 1d		 jmp	 SHORT $LN69@response_t
$LN68@response_t:
  0056d	68 fb 00 00 00	 push	 251			; 000000fbH
  00572	68 00 00 00 00	 push	 OFFSET ??_C@_0EE@DLIIEJCN@c?3?2users?2nhv90?2projects?2eech?2ap@
  00577	8b 15 00 00 00
	00		 mov	 edx, DWORD PTR ?null_entity_pointer_message@@3PBDB ; null_entity_pointer_message
  0057d	52		 push	 edx
  0057e	e8 00 00 00 00	 call	 ?process_assert@@YGXPBD0H@Z ; process_assert
  00583	c7 45 98 00 00
	00 00		 mov	 DWORD PTR tv311[ebp], 0
$LN69@response_t:
  0058a	b8 01 00 00 00	 mov	 eax, 1
  0058f	85 c0		 test	 eax, eax
  00591	74 09		 je	 SHORT $LN70@response_t
  00593	c7 45 94 57 00
	00 00		 mov	 DWORD PTR tv318[ebp], 87 ; 00000057H
  0059a	eb 1d		 jmp	 SHORT $LN71@response_t
$LN70@response_t:
  0059c	68 fb 00 00 00	 push	 251			; 000000fbH
  005a1	68 00 00 00 00	 push	 OFFSET ??_C@_0EE@DLIIEJCN@c?3?2users?2nhv90?2projects?2eech?2ap@
  005a6	8b 0d 00 00 00
	00		 mov	 ecx, DWORD PTR ?overload_invalid_int_type_message@@3PBDB ; overload_invalid_int_type_message
  005ac	51		 push	 ecx
  005ad	e8 00 00 00 00	 call	 ?process_assert@@YGXPBD0H@Z ; process_assert
  005b2	c7 45 94 00 00
	00 00		 mov	 DWORD PTR tv318[ebp], 0
$LN71@response_t:
  005b9	6a 57		 push	 87			; 00000057H
  005bb	8b 55 0c	 mov	 edx, DWORD PTR _receiver$[ebp]
  005be	52		 push	 edx
  005bf	69 45 98 5c 04
	00 00		 imul	 eax, DWORD PTR tv311[ebp], 1116
  005c6	8b 4d 94	 mov	 ecx, DWORD PTR tv318[ebp]
  005c9	8b 94 88 00 00
	00 00		 mov	 edx, DWORD PTR ?fn_get_local_entity_int_value@@3PAY0BBH@P6GHPAUENTITY@@W4INT_TYPES@@@ZA[eax+ecx*4]
  005d0	ff d2		 call	 edx
  005d2	85 c0		 test	 eax, eax
  005d4	0f 84 cf 04 00
	00		 je	 $LN4@response_t

; 252  : 					{
; 253  : 						if (task_database [task_type].ai_stats.movement_stealth > 0)

  005da	6b 45 e4 50	 imul	 eax, DWORD PTR _task_type$[ebp], 80
  005de	83 b8 44 00 00
	00 00		 cmp	 DWORD PTR ?task_database@@3PAUTASK_DATA@@A[eax+68], 0
  005e5	0f 8e 0f 01 00
	00		 jle	 $LN20@response_t

; 254  : 						{
; 255  : 							set_client_server_entity_int_value (receiver, INT_TYPE_WEAPON_CONFIG_TYPE, get_local_entity_int_value (receiver, INT_TYPE_SCOUT_WEAPON_CONFIG_TYPE));

  005eb	83 7d 0c 00	 cmp	 DWORD PTR _receiver$[ebp], 0
  005ef	74 0a		 je	 SHORT $LN76@response_t
  005f1	8b 45 0c	 mov	 eax, DWORD PTR _receiver$[ebp]
  005f4	8b 08		 mov	 ecx, DWORD PTR [eax]
  005f6	89 4d 98	 mov	 DWORD PTR tv355[ebp], ecx
  005f9	eb 21		 jmp	 SHORT $LN77@response_t
$LN76@response_t:
  005fb	8b 15 00 00 00
	00		 mov	 edx, DWORD PTR ?__LINE__Var@?0??response_to_task_assigned@@YGHW4ENTITY_MESSAGES@@PAUENTITY@@1PAD@Z@4JA
  00601	83 c2 66	 add	 edx, 102		; 00000066H
  00604	52		 push	 edx
  00605	68 00 00 00 00	 push	 OFFSET ??_C@_0EE@DLIIEJCN@c?3?2users?2nhv90?2projects?2eech?2ap@
  0060a	a1 00 00 00 00	 mov	 eax, DWORD PTR ?null_entity_pointer_message@@3PBDB ; null_entity_pointer_message
  0060f	50		 push	 eax
  00610	e8 00 00 00 00	 call	 ?process_assert@@YGXPBD0H@Z ; process_assert
  00615	c7 45 98 00 00
	00 00		 mov	 DWORD PTR tv355[ebp], 0
$LN77@response_t:
  0061c	b9 01 00 00 00	 mov	 ecx, 1
  00621	85 c9		 test	 ecx, ecx
  00623	74 09		 je	 SHORT $LN78@response_t
  00625	c7 45 94 b6 00
	00 00		 mov	 DWORD PTR tv363[ebp], 182 ; 000000b6H
  0062c	eb 21		 jmp	 SHORT $LN79@response_t
$LN78@response_t:
  0062e	8b 15 00 00 00
	00		 mov	 edx, DWORD PTR ?__LINE__Var@?0??response_to_task_assigned@@YGHW4ENTITY_MESSAGES@@PAUENTITY@@1PAD@Z@4JA
  00634	83 c2 66	 add	 edx, 102		; 00000066H
  00637	52		 push	 edx
  00638	68 00 00 00 00	 push	 OFFSET ??_C@_0EE@DLIIEJCN@c?3?2users?2nhv90?2projects?2eech?2ap@
  0063d	a1 00 00 00 00	 mov	 eax, DWORD PTR ?overload_invalid_int_type_message@@3PBDB ; overload_invalid_int_type_message
  00642	50		 push	 eax
  00643	e8 00 00 00 00	 call	 ?process_assert@@YGXPBD0H@Z ; process_assert
  00648	c7 45 94 00 00
	00 00		 mov	 DWORD PTR tv363[ebp], 0
$LN79@response_t:
  0064f	83 7d 0c 00	 cmp	 DWORD PTR _receiver$[ebp], 0
  00653	74 0a		 je	 SHORT $LN72@response_t
  00655	8b 4d 0c	 mov	 ecx, DWORD PTR _receiver$[ebp]
  00658	8b 11		 mov	 edx, DWORD PTR [ecx]
  0065a	89 55 90	 mov	 DWORD PTR tv336[ebp], edx
  0065d	eb 21		 jmp	 SHORT $LN73@response_t
$LN72@response_t:
  0065f	a1 00 00 00 00	 mov	 eax, DWORD PTR ?__LINE__Var@?0??response_to_task_assigned@@YGHW4ENTITY_MESSAGES@@PAUENTITY@@1PAD@Z@4JA
  00664	83 c0 66	 add	 eax, 102		; 00000066H
  00667	50		 push	 eax
  00668	68 00 00 00 00	 push	 OFFSET ??_C@_0EE@DLIIEJCN@c?3?2users?2nhv90?2projects?2eech?2ap@
  0066d	8b 0d 00 00 00
	00		 mov	 ecx, DWORD PTR ?null_entity_pointer_message@@3PBDB ; null_entity_pointer_message
  00673	51		 push	 ecx
  00674	e8 00 00 00 00	 call	 ?process_assert@@YGXPBD0H@Z ; process_assert
  00679	c7 45 90 00 00
	00 00		 mov	 DWORD PTR tv336[ebp], 0
$LN73@response_t:
  00680	ba 01 00 00 00	 mov	 edx, 1
  00685	85 d2		 test	 edx, edx
  00687	74 09		 je	 SHORT $LN74@response_t
  00689	c7 45 8c 05 01
	00 00		 mov	 DWORD PTR tv344[ebp], 261 ; 00000105H
  00690	eb 21		 jmp	 SHORT $LN75@response_t
$LN74@response_t:
  00692	a1 00 00 00 00	 mov	 eax, DWORD PTR ?__LINE__Var@?0??response_to_task_assigned@@YGHW4ENTITY_MESSAGES@@PAUENTITY@@1PAD@Z@4JA
  00697	83 c0 66	 add	 eax, 102		; 00000066H
  0069a	50		 push	 eax
  0069b	68 00 00 00 00	 push	 OFFSET ??_C@_0EE@DLIIEJCN@c?3?2users?2nhv90?2projects?2eech?2ap@
  006a0	8b 0d 00 00 00
	00		 mov	 ecx, DWORD PTR ?overload_invalid_int_type_message@@3PBDB ; overload_invalid_int_type_message
  006a6	51		 push	 ecx
  006a7	e8 00 00 00 00	 call	 ?process_assert@@YGXPBD0H@Z ; process_assert
  006ac	c7 45 8c 00 00
	00 00		 mov	 DWORD PTR tv344[ebp], 0
$LN75@response_t:
  006b3	68 b6 00 00 00	 push	 182			; 000000b6H
  006b8	8b 55 0c	 mov	 edx, DWORD PTR _receiver$[ebp]
  006bb	52		 push	 edx
  006bc	69 45 98 5c 04
	00 00		 imul	 eax, DWORD PTR tv355[ebp], 1116
  006c3	8b 4d 94	 mov	 ecx, DWORD PTR tv363[ebp]
  006c6	8b 94 88 00 00
	00 00		 mov	 edx, DWORD PTR ?fn_get_local_entity_int_value@@3PAY0BBH@P6GHPAUENTITY@@W4INT_TYPES@@@ZA[eax+ecx*4]
  006cd	ff d2		 call	 edx
  006cf	50		 push	 eax
  006d0	68 05 01 00 00	 push	 261			; 00000105H
  006d5	8b 45 0c	 mov	 eax, DWORD PTR _receiver$[ebp]
  006d8	50		 push	 eax
  006d9	69 4d 90 b8 08
	00 00		 imul	 ecx, DWORD PTR tv336[ebp], 2232
  006e0	8b 55 8c	 mov	 edx, DWORD PTR tv344[ebp]
  006e3	8d 84 d1 00 00
	00 00		 lea	 eax, DWORD PTR ?fn_set_client_server_entity_int_value@@3PAY1BBH@1P6GXPAUENTITY@@W4INT_TYPES@@H@ZA[ecx+edx*8]
  006ea	8b 0d 00 00 00
	00		 mov	 ecx, DWORD PTR ?system_comms_model@@3W4COMMS_MODEL_TYPES@@A ; system_comms_model
  006f0	8b 14 88	 mov	 edx, DWORD PTR [eax+ecx*4]
  006f3	ff d2		 call	 edx

; 256  : 						}
; 257  : 						else

  006f5	e9 af 03 00 00	 jmp	 $LN4@response_t
$LN20@response_t:

; 258  : 						{
; 259  : 							switch (get_local_entity_int_value (sender, INT_TYPE_TASK_TARGET_CLASS))

  006fa	83 7d 10 00	 cmp	 DWORD PTR _sender$[ebp], 0
  006fe	74 0a		 je	 SHORT $LN80@response_t
  00700	8b 45 10	 mov	 eax, DWORD PTR _sender$[ebp]
  00703	8b 08		 mov	 ecx, DWORD PTR [eax]
  00705	89 4d 98	 mov	 DWORD PTR tv377[ebp], ecx
  00708	eb 1d		 jmp	 SHORT $LN81@response_t
$LN80@response_t:
  0070a	68 03 01 00 00	 push	 259			; 00000103H
  0070f	68 00 00 00 00	 push	 OFFSET ??_C@_0EE@DLIIEJCN@c?3?2users?2nhv90?2projects?2eech?2ap@
  00714	8b 15 00 00 00
	00		 mov	 edx, DWORD PTR ?null_entity_pointer_message@@3PBDB ; null_entity_pointer_message
  0071a	52		 push	 edx
  0071b	e8 00 00 00 00	 call	 ?process_assert@@YGXPBD0H@Z ; process_assert
  00720	c7 45 98 00 00
	00 00		 mov	 DWORD PTR tv377[ebp], 0
$LN81@response_t:
  00727	b8 01 00 00 00	 mov	 eax, 1
  0072c	85 c0		 test	 eax, eax
  0072e	74 09		 je	 SHORT $LN82@response_t
  00730	c7 45 94 e4 00
	00 00		 mov	 DWORD PTR tv384[ebp], 228 ; 000000e4H
  00737	eb 1d		 jmp	 SHORT $LN83@response_t
$LN82@response_t:
  00739	68 03 01 00 00	 push	 259			; 00000103H
  0073e	68 00 00 00 00	 push	 OFFSET ??_C@_0EE@DLIIEJCN@c?3?2users?2nhv90?2projects?2eech?2ap@
  00743	8b 0d 00 00 00
	00		 mov	 ecx, DWORD PTR ?overload_invalid_int_type_message@@3PBDB ; overload_invalid_int_type_message
  00749	51		 push	 ecx
  0074a	e8 00 00 00 00	 call	 ?process_assert@@YGXPBD0H@Z ; process_assert
  0074f	c7 45 94 00 00
	00 00		 mov	 DWORD PTR tv384[ebp], 0
$LN83@response_t:
  00756	68 e4 00 00 00	 push	 228			; 000000e4H
  0075b	8b 55 10	 mov	 edx, DWORD PTR _sender$[ebp]
  0075e	52		 push	 edx
  0075f	69 45 98 5c 04
	00 00		 imul	 eax, DWORD PTR tv377[ebp], 1116
  00766	8b 4d 94	 mov	 ecx, DWORD PTR tv384[ebp]
  00769	8b 94 88 00 00
	00 00		 mov	 edx, DWORD PTR ?fn_get_local_entity_int_value@@3PAY0BBH@P6GHPAUENTITY@@W4INT_TYPES@@@ZA[eax+ecx*4]
  00770	ff d2		 call	 edx
  00772	89 45 90	 mov	 DWORD PTR tv390[ebp], eax
  00775	83 7d 90 01	 cmp	 DWORD PTR tv390[ebp], 1
  00779	74 0f		 je	 SHORT $LN22@response_t
  0077b	83 7d 90 02	 cmp	 DWORD PTR tv390[ebp], 2
  0077f	0f 84 11 01 00
	00		 je	 $LN23@response_t
  00785	e9 18 02 00 00	 jmp	 $LN24@response_t
$LN22@response_t:

; 260  : 							{
; 261  : 								case TASK_TARGET_CLASS_AIR:
; 262  : 								{
; 263  : 									set_client_server_entity_int_value (receiver, INT_TYPE_WEAPON_CONFIG_TYPE, get_local_entity_int_value (receiver, INT_TYPE_AIR_TO_AIR_WEAPON_CONFIG_TYPE));

  0078a	83 7d 0c 00	 cmp	 DWORD PTR _receiver$[ebp], 0
  0078e	74 0a		 je	 SHORT $LN88@response_t
  00790	8b 45 0c	 mov	 eax, DWORD PTR _receiver$[ebp]
  00793	8b 08		 mov	 ecx, DWORD PTR [eax]
  00795	89 4d 98	 mov	 DWORD PTR tv416[ebp], ecx
  00798	eb 21		 jmp	 SHORT $LN89@response_t
$LN88@response_t:
  0079a	8b 15 00 00 00
	00		 mov	 edx, DWORD PTR ?__LINE__Var@?0??response_to_task_assigned@@YGHW4ENTITY_MESSAGES@@PAUENTITY@@1PAD@Z@4JA
  007a0	83 c2 6e	 add	 edx, 110		; 0000006eH
  007a3	52		 push	 edx
  007a4	68 00 00 00 00	 push	 OFFSET ??_C@_0EE@DLIIEJCN@c?3?2users?2nhv90?2projects?2eech?2ap@
  007a9	a1 00 00 00 00	 mov	 eax, DWORD PTR ?null_entity_pointer_message@@3PBDB ; null_entity_pointer_message
  007ae	50		 push	 eax
  007af	e8 00 00 00 00	 call	 ?process_assert@@YGXPBD0H@Z ; process_assert
  007b4	c7 45 98 00 00
	00 00		 mov	 DWORD PTR tv416[ebp], 0
$LN89@response_t:
  007bb	b9 01 00 00 00	 mov	 ecx, 1
  007c0	85 c9		 test	 ecx, ecx
  007c2	74 09		 je	 SHORT $LN90@response_t
  007c4	c7 45 94 02 00
	00 00		 mov	 DWORD PTR tv424[ebp], 2
  007cb	eb 21		 jmp	 SHORT $LN91@response_t
$LN90@response_t:
  007cd	8b 15 00 00 00
	00		 mov	 edx, DWORD PTR ?__LINE__Var@?0??response_to_task_assigned@@YGHW4ENTITY_MESSAGES@@PAUENTITY@@1PAD@Z@4JA
  007d3	83 c2 6e	 add	 edx, 110		; 0000006eH
  007d6	52		 push	 edx
  007d7	68 00 00 00 00	 push	 OFFSET ??_C@_0EE@DLIIEJCN@c?3?2users?2nhv90?2projects?2eech?2ap@
  007dc	a1 00 00 00 00	 mov	 eax, DWORD PTR ?overload_invalid_int_type_message@@3PBDB ; overload_invalid_int_type_message
  007e1	50		 push	 eax
  007e2	e8 00 00 00 00	 call	 ?process_assert@@YGXPBD0H@Z ; process_assert
  007e7	c7 45 94 00 00
	00 00		 mov	 DWORD PTR tv424[ebp], 0
$LN91@response_t:
  007ee	83 7d 0c 00	 cmp	 DWORD PTR _receiver$[ebp], 0
  007f2	74 0a		 je	 SHORT $LN84@response_t
  007f4	8b 4d 0c	 mov	 ecx, DWORD PTR _receiver$[ebp]
  007f7	8b 11		 mov	 edx, DWORD PTR [ecx]
  007f9	89 55 90	 mov	 DWORD PTR tv397[ebp], edx
  007fc	eb 21		 jmp	 SHORT $LN85@response_t
$LN84@response_t:
  007fe	a1 00 00 00 00	 mov	 eax, DWORD PTR ?__LINE__Var@?0??response_to_task_assigned@@YGHW4ENTITY_MESSAGES@@PAUENTITY@@1PAD@Z@4JA
  00803	83 c0 6e	 add	 eax, 110		; 0000006eH
  00806	50		 push	 eax
  00807	68 00 00 00 00	 push	 OFFSET ??_C@_0EE@DLIIEJCN@c?3?2users?2nhv90?2projects?2eech?2ap@
  0080c	8b 0d 00 00 00
	00		 mov	 ecx, DWORD PTR ?null_entity_pointer_message@@3PBDB ; null_entity_pointer_message
  00812	51		 push	 ecx
  00813	e8 00 00 00 00	 call	 ?process_assert@@YGXPBD0H@Z ; process_assert
  00818	c7 45 90 00 00
	00 00		 mov	 DWORD PTR tv397[ebp], 0
$LN85@response_t:
  0081f	ba 01 00 00 00	 mov	 edx, 1
  00824	85 d2		 test	 edx, edx
  00826	74 09		 je	 SHORT $LN86@response_t
  00828	c7 45 8c 05 01
	00 00		 mov	 DWORD PTR tv405[ebp], 261 ; 00000105H
  0082f	eb 21		 jmp	 SHORT $LN87@response_t
$LN86@response_t:
  00831	a1 00 00 00 00	 mov	 eax, DWORD PTR ?__LINE__Var@?0??response_to_task_assigned@@YGHW4ENTITY_MESSAGES@@PAUENTITY@@1PAD@Z@4JA
  00836	83 c0 6e	 add	 eax, 110		; 0000006eH
  00839	50		 push	 eax
  0083a	68 00 00 00 00	 push	 OFFSET ??_C@_0EE@DLIIEJCN@c?3?2users?2nhv90?2projects?2eech?2ap@
  0083f	8b 0d 00 00 00
	00		 mov	 ecx, DWORD PTR ?overload_invalid_int_type_message@@3PBDB ; overload_invalid_int_type_message
  00845	51		 push	 ecx
  00846	e8 00 00 00 00	 call	 ?process_assert@@YGXPBD0H@Z ; process_assert
  0084b	c7 45 8c 00 00
	00 00		 mov	 DWORD PTR tv405[ebp], 0
$LN87@response_t:
  00852	6a 02		 push	 2
  00854	8b 55 0c	 mov	 edx, DWORD PTR _receiver$[ebp]
  00857	52		 push	 edx
  00858	69 45 98 5c 04
	00 00		 imul	 eax, DWORD PTR tv416[ebp], 1116
  0085f	8b 4d 94	 mov	 ecx, DWORD PTR tv424[ebp]
  00862	8b 94 88 00 00
	00 00		 mov	 edx, DWORD PTR ?fn_get_local_entity_int_value@@3PAY0BBH@P6GHPAUENTITY@@W4INT_TYPES@@@ZA[eax+ecx*4]
  00869	ff d2		 call	 edx
  0086b	50		 push	 eax
  0086c	68 05 01 00 00	 push	 261			; 00000105H
  00871	8b 45 0c	 mov	 eax, DWORD PTR _receiver$[ebp]
  00874	50		 push	 eax
  00875	69 4d 90 b8 08
	00 00		 imul	 ecx, DWORD PTR tv397[ebp], 2232
  0087c	8b 55 8c	 mov	 edx, DWORD PTR tv405[ebp]
  0087f	8d 84 d1 00 00
	00 00		 lea	 eax, DWORD PTR ?fn_set_client_server_entity_int_value@@3PAY1BBH@1P6GXPAUENTITY@@W4INT_TYPES@@H@ZA[ecx+edx*8]
  00886	8b 0d 00 00 00
	00		 mov	 ecx, DWORD PTR ?system_comms_model@@3W4COMMS_MODEL_TYPES@@A ; system_comms_model
  0088c	8b 14 88	 mov	 edx, DWORD PTR [eax+ecx*4]
  0088f	ff d2		 call	 edx

; 264  : 			
; 265  : 									break;

  00891	e9 13 02 00 00	 jmp	 $LN4@response_t
$LN23@response_t:

; 266  : 								}
; 267  : 								case TASK_TARGET_CLASS_GROUND:
; 268  : 								{
; 269  : 									set_client_server_entity_int_value (receiver, INT_TYPE_WEAPON_CONFIG_TYPE, get_local_entity_int_value (receiver, INT_TYPE_AIR_TO_SURFACE_WEAPON_CONFIG_TYPE));

  00896	83 7d 0c 00	 cmp	 DWORD PTR _receiver$[ebp], 0
  0089a	74 0a		 je	 SHORT $LN96@response_t
  0089c	8b 45 0c	 mov	 eax, DWORD PTR _receiver$[ebp]
  0089f	8b 08		 mov	 ecx, DWORD PTR [eax]
  008a1	89 4d 98	 mov	 DWORD PTR tv458[ebp], ecx
  008a4	eb 21		 jmp	 SHORT $LN97@response_t
$LN96@response_t:
  008a6	8b 15 00 00 00
	00		 mov	 edx, DWORD PTR ?__LINE__Var@?0??response_to_task_assigned@@YGHW4ENTITY_MESSAGES@@PAUENTITY@@1PAD@Z@4JA
  008ac	83 c2 74	 add	 edx, 116		; 00000074H
  008af	52		 push	 edx
  008b0	68 00 00 00 00	 push	 OFFSET ??_C@_0EE@DLIIEJCN@c?3?2users?2nhv90?2projects?2eech?2ap@
  008b5	a1 00 00 00 00	 mov	 eax, DWORD PTR ?null_entity_pointer_message@@3PBDB ; null_entity_pointer_message
  008ba	50		 push	 eax
  008bb	e8 00 00 00 00	 call	 ?process_assert@@YGXPBD0H@Z ; process_assert
  008c0	c7 45 98 00 00
	00 00		 mov	 DWORD PTR tv458[ebp], 0
$LN97@response_t:
  008c7	b9 01 00 00 00	 mov	 ecx, 1
  008cc	85 c9		 test	 ecx, ecx
  008ce	74 09		 je	 SHORT $LN98@response_t
  008d0	c7 45 94 03 00
	00 00		 mov	 DWORD PTR tv466[ebp], 3
  008d7	eb 21		 jmp	 SHORT $LN99@response_t
$LN98@response_t:
  008d9	8b 15 00 00 00
	00		 mov	 edx, DWORD PTR ?__LINE__Var@?0??response_to_task_assigned@@YGHW4ENTITY_MESSAGES@@PAUENTITY@@1PAD@Z@4JA
  008df	83 c2 74	 add	 edx, 116		; 00000074H
  008e2	52		 push	 edx
  008e3	68 00 00 00 00	 push	 OFFSET ??_C@_0EE@DLIIEJCN@c?3?2users?2nhv90?2projects?2eech?2ap@
  008e8	a1 00 00 00 00	 mov	 eax, DWORD PTR ?overload_invalid_int_type_message@@3PBDB ; overload_invalid_int_type_message
  008ed	50		 push	 eax
  008ee	e8 00 00 00 00	 call	 ?process_assert@@YGXPBD0H@Z ; process_assert
  008f3	c7 45 94 00 00
	00 00		 mov	 DWORD PTR tv466[ebp], 0
$LN99@response_t:
  008fa	83 7d 0c 00	 cmp	 DWORD PTR _receiver$[ebp], 0
  008fe	74 0a		 je	 SHORT $LN92@response_t
  00900	8b 4d 0c	 mov	 ecx, DWORD PTR _receiver$[ebp]
  00903	8b 11		 mov	 edx, DWORD PTR [ecx]
  00905	89 55 90	 mov	 DWORD PTR tv439[ebp], edx
  00908	eb 21		 jmp	 SHORT $LN93@response_t
$LN92@response_t:
  0090a	a1 00 00 00 00	 mov	 eax, DWORD PTR ?__LINE__Var@?0??response_to_task_assigned@@YGHW4ENTITY_MESSAGES@@PAUENTITY@@1PAD@Z@4JA
  0090f	83 c0 74	 add	 eax, 116		; 00000074H
  00912	50		 push	 eax
  00913	68 00 00 00 00	 push	 OFFSET ??_C@_0EE@DLIIEJCN@c?3?2users?2nhv90?2projects?2eech?2ap@
  00918	8b 0d 00 00 00
	00		 mov	 ecx, DWORD PTR ?null_entity_pointer_message@@3PBDB ; null_entity_pointer_message
  0091e	51		 push	 ecx
  0091f	e8 00 00 00 00	 call	 ?process_assert@@YGXPBD0H@Z ; process_assert
  00924	c7 45 90 00 00
	00 00		 mov	 DWORD PTR tv439[ebp], 0
$LN93@response_t:
  0092b	ba 01 00 00 00	 mov	 edx, 1
  00930	85 d2		 test	 edx, edx
  00932	74 09		 je	 SHORT $LN94@response_t
  00934	c7 45 8c 05 01
	00 00		 mov	 DWORD PTR tv447[ebp], 261 ; 00000105H
  0093b	eb 21		 jmp	 SHORT $LN95@response_t
$LN94@response_t:
  0093d	a1 00 00 00 00	 mov	 eax, DWORD PTR ?__LINE__Var@?0??response_to_task_assigned@@YGHW4ENTITY_MESSAGES@@PAUENTITY@@1PAD@Z@4JA
  00942	83 c0 74	 add	 eax, 116		; 00000074H
  00945	50		 push	 eax
  00946	68 00 00 00 00	 push	 OFFSET ??_C@_0EE@DLIIEJCN@c?3?2users?2nhv90?2projects?2eech?2ap@
  0094b	8b 0d 00 00 00
	00		 mov	 ecx, DWORD PTR ?overload_invalid_int_type_message@@3PBDB ; overload_invalid_int_type_message
  00951	51		 push	 ecx
  00952	e8 00 00 00 00	 call	 ?process_assert@@YGXPBD0H@Z ; process_assert
  00957	c7 45 8c 00 00
	00 00		 mov	 DWORD PTR tv447[ebp], 0
$LN95@response_t:
  0095e	6a 03		 push	 3
  00960	8b 55 0c	 mov	 edx, DWORD PTR _receiver$[ebp]
  00963	52		 push	 edx
  00964	69 45 98 5c 04
	00 00		 imul	 eax, DWORD PTR tv458[ebp], 1116
  0096b	8b 4d 94	 mov	 ecx, DWORD PTR tv466[ebp]
  0096e	8b 94 88 00 00
	00 00		 mov	 edx, DWORD PTR ?fn_get_local_entity_int_value@@3PAY0BBH@P6GHPAUENTITY@@W4INT_TYPES@@@ZA[eax+ecx*4]
  00975	ff d2		 call	 edx
  00977	50		 push	 eax
  00978	68 05 01 00 00	 push	 261			; 00000105H
  0097d	8b 45 0c	 mov	 eax, DWORD PTR _receiver$[ebp]
  00980	50		 push	 eax
  00981	69 4d 90 b8 08
	00 00		 imul	 ecx, DWORD PTR tv439[ebp], 2232
  00988	8b 55 8c	 mov	 edx, DWORD PTR tv447[ebp]
  0098b	8d 84 d1 00 00
	00 00		 lea	 eax, DWORD PTR ?fn_set_client_server_entity_int_value@@3PAY1BBH@1P6GXPAUENTITY@@W4INT_TYPES@@H@ZA[ecx+edx*8]
  00992	8b 0d 00 00 00
	00		 mov	 ecx, DWORD PTR ?system_comms_model@@3W4COMMS_MODEL_TYPES@@A ; system_comms_model
  00998	8b 14 88	 mov	 edx, DWORD PTR [eax+ecx*4]
  0099b	ff d2		 call	 edx

; 270  : 		
; 271  : 									break;

  0099d	e9 07 01 00 00	 jmp	 $LN4@response_t
$LN24@response_t:

; 272  : 								}
; 273  : 								default :
; 274  : 								{
; 275  : 									set_client_server_entity_int_value (receiver, INT_TYPE_WEAPON_CONFIG_TYPE, get_local_entity_int_value (receiver, INT_TYPE_DEFAULT_WEAPON_CONFIG_TYPE));

  009a2	83 7d 0c 00	 cmp	 DWORD PTR _receiver$[ebp], 0
  009a6	74 0a		 je	 SHORT $LN104@response_t
  009a8	8b 45 0c	 mov	 eax, DWORD PTR _receiver$[ebp]
  009ab	8b 08		 mov	 ecx, DWORD PTR [eax]
  009ad	89 4d 98	 mov	 DWORD PTR tv500[ebp], ecx
  009b0	eb 21		 jmp	 SHORT $LN105@response_t
$LN104@response_t:
  009b2	8b 15 00 00 00
	00		 mov	 edx, DWORD PTR ?__LINE__Var@?0??response_to_task_assigned@@YGHW4ENTITY_MESSAGES@@PAUENTITY@@1PAD@Z@4JA
  009b8	83 c2 7a	 add	 edx, 122		; 0000007aH
  009bb	52		 push	 edx
  009bc	68 00 00 00 00	 push	 OFFSET ??_C@_0EE@DLIIEJCN@c?3?2users?2nhv90?2projects?2eech?2ap@
  009c1	a1 00 00 00 00	 mov	 eax, DWORD PTR ?null_entity_pointer_message@@3PBDB ; null_entity_pointer_message
  009c6	50		 push	 eax
  009c7	e8 00 00 00 00	 call	 ?process_assert@@YGXPBD0H@Z ; process_assert
  009cc	c7 45 98 00 00
	00 00		 mov	 DWORD PTR tv500[ebp], 0
$LN105@response_t:
  009d3	b9 01 00 00 00	 mov	 ecx, 1
  009d8	85 c9		 test	 ecx, ecx
  009da	74 09		 je	 SHORT $LN106@response_t
  009dc	c7 45 94 2c 00
	00 00		 mov	 DWORD PTR tv508[ebp], 44 ; 0000002cH
  009e3	eb 21		 jmp	 SHORT $LN107@response_t
$LN106@response_t:
  009e5	8b 15 00 00 00
	00		 mov	 edx, DWORD PTR ?__LINE__Var@?0??response_to_task_assigned@@YGHW4ENTITY_MESSAGES@@PAUENTITY@@1PAD@Z@4JA
  009eb	83 c2 7a	 add	 edx, 122		; 0000007aH
  009ee	52		 push	 edx
  009ef	68 00 00 00 00	 push	 OFFSET ??_C@_0EE@DLIIEJCN@c?3?2users?2nhv90?2projects?2eech?2ap@
  009f4	a1 00 00 00 00	 mov	 eax, DWORD PTR ?overload_invalid_int_type_message@@3PBDB ; overload_invalid_int_type_message
  009f9	50		 push	 eax
  009fa	e8 00 00 00 00	 call	 ?process_assert@@YGXPBD0H@Z ; process_assert
  009ff	c7 45 94 00 00
	00 00		 mov	 DWORD PTR tv508[ebp], 0
$LN107@response_t:
  00a06	83 7d 0c 00	 cmp	 DWORD PTR _receiver$[ebp], 0
  00a0a	74 0a		 je	 SHORT $LN100@response_t
  00a0c	8b 4d 0c	 mov	 ecx, DWORD PTR _receiver$[ebp]
  00a0f	8b 11		 mov	 edx, DWORD PTR [ecx]
  00a11	89 55 90	 mov	 DWORD PTR tv481[ebp], edx
  00a14	eb 21		 jmp	 SHORT $LN101@response_t
$LN100@response_t:
  00a16	a1 00 00 00 00	 mov	 eax, DWORD PTR ?__LINE__Var@?0??response_to_task_assigned@@YGHW4ENTITY_MESSAGES@@PAUENTITY@@1PAD@Z@4JA
  00a1b	83 c0 7a	 add	 eax, 122		; 0000007aH
  00a1e	50		 push	 eax
  00a1f	68 00 00 00 00	 push	 OFFSET ??_C@_0EE@DLIIEJCN@c?3?2users?2nhv90?2projects?2eech?2ap@
  00a24	8b 0d 00 00 00
	00		 mov	 ecx, DWORD PTR ?null_entity_pointer_message@@3PBDB ; null_entity_pointer_message
  00a2a	51		 push	 ecx
  00a2b	e8 00 00 00 00	 call	 ?process_assert@@YGXPBD0H@Z ; process_assert
  00a30	c7 45 90 00 00
	00 00		 mov	 DWORD PTR tv481[ebp], 0
$LN101@response_t:
  00a37	ba 01 00 00 00	 mov	 edx, 1
  00a3c	85 d2		 test	 edx, edx
  00a3e	74 09		 je	 SHORT $LN102@response_t
  00a40	c7 45 8c 05 01
	00 00		 mov	 DWORD PTR tv489[ebp], 261 ; 00000105H
  00a47	eb 21		 jmp	 SHORT $LN103@response_t
$LN102@response_t:
  00a49	a1 00 00 00 00	 mov	 eax, DWORD PTR ?__LINE__Var@?0??response_to_task_assigned@@YGHW4ENTITY_MESSAGES@@PAUENTITY@@1PAD@Z@4JA
  00a4e	83 c0 7a	 add	 eax, 122		; 0000007aH
  00a51	50		 push	 eax
  00a52	68 00 00 00 00	 push	 OFFSET ??_C@_0EE@DLIIEJCN@c?3?2users?2nhv90?2projects?2eech?2ap@
  00a57	8b 0d 00 00 00
	00		 mov	 ecx, DWORD PTR ?overload_invalid_int_type_message@@3PBDB ; overload_invalid_int_type_message
  00a5d	51		 push	 ecx
  00a5e	e8 00 00 00 00	 call	 ?process_assert@@YGXPBD0H@Z ; process_assert
  00a63	c7 45 8c 00 00
	00 00		 mov	 DWORD PTR tv489[ebp], 0
$LN103@response_t:
  00a6a	6a 2c		 push	 44			; 0000002cH
  00a6c	8b 55 0c	 mov	 edx, DWORD PTR _receiver$[ebp]
  00a6f	52		 push	 edx
  00a70	69 45 98 5c 04
	00 00		 imul	 eax, DWORD PTR tv500[ebp], 1116
  00a77	8b 4d 94	 mov	 ecx, DWORD PTR tv508[ebp]
  00a7a	8b 94 88 00 00
	00 00		 mov	 edx, DWORD PTR ?fn_get_local_entity_int_value@@3PAY0BBH@P6GHPAUENTITY@@W4INT_TYPES@@@ZA[eax+ecx*4]
  00a81	ff d2		 call	 edx
  00a83	50		 push	 eax
  00a84	68 05 01 00 00	 push	 261			; 00000105H
  00a89	8b 45 0c	 mov	 eax, DWORD PTR _receiver$[ebp]
  00a8c	50		 push	 eax
  00a8d	69 4d 90 b8 08
	00 00		 imul	 ecx, DWORD PTR tv481[ebp], 2232
  00a94	8b 55 8c	 mov	 edx, DWORD PTR tv489[ebp]
  00a97	8d 84 d1 00 00
	00 00		 lea	 eax, DWORD PTR ?fn_set_client_server_entity_int_value@@3PAY1BBH@1P6GXPAUENTITY@@W4INT_TYPES@@H@ZA[ecx+edx*8]
  00a9e	8b 0d 00 00 00
	00		 mov	 ecx, DWORD PTR ?system_comms_model@@3W4COMMS_MODEL_TYPES@@A ; system_comms_model
  00aa4	8b 14 88	 mov	 edx, DWORD PTR [eax+ecx*4]
  00aa7	ff d2		 call	 edx
$LN4@response_t:

; 276  : 		
; 277  : 									break;
; 278  : 								}
; 279  : 							}
; 280  : 						}
; 281  : 					}
; 282  : 				}
; 283  : 	
; 284  : 				//
; 285  : 				// Check if entity can Lock takeoff route and Reserve landing site at destination keysite
; 286  : 				//
; 287  : 	
; 288  : 				if (notify_local_entity (ENTITY_MESSAGE_LOCK_TAKEOFF_ROUTE, landing_en, receiver))

  00aa9	8b 45 0c	 mov	 eax, DWORD PTR _receiver$[ebp]
  00aac	50		 push	 eax
  00aad	8b 4d f4	 mov	 ecx, DWORD PTR _landing_en$[ebp]
  00ab0	51		 push	 ecx
  00ab1	6a 27		 push	 39			; 00000027H
  00ab3	e8 00 00 00 00	 call	 ?notify_local_entity@@YAHW4ENTITY_MESSAGES@@PAUENTITY@@1ZZ ; notify_local_entity
  00ab8	83 c4 0c	 add	 esp, 12			; 0000000cH
  00abb	85 c0		 test	 eax, eax
  00abd	74 12		 je	 SHORT $LN25@response_t

; 289  : 				{
; 290  : 	
; 291  : 					insert_mobile_into_takeoff_route (receiver, landing_en);

  00abf	8b 45 f4	 mov	 eax, DWORD PTR _landing_en$[ebp]
  00ac2	50		 push	 eax
  00ac3	8b 4d 0c	 mov	 ecx, DWORD PTR _receiver$[ebp]
  00ac6	51		 push	 ecx
  00ac7	e8 00 00 00 00	 call	 ?insert_mobile_into_takeoff_route@@YGHPAUENTITY@@0@Z ; insert_mobile_into_takeoff_route

; 292  : 				}
; 293  : 				else

  00acc	e9 b2 00 00 00	 jmp	 $LN26@response_t
$LN25@response_t:

; 294  : 				{
; 295  : 					#if DEBUG_MODULE
; 296  : 	
; 297  : 					debug_log ("MB_MSGS: Task %s : Mobile %s (%d) can't lock takeoff route",
; 298  : 									get_local_entity_string (sender, STRING_TYPE_FULL_NAME),
; 299  : 									get_local_entity_string (receiver, STRING_TYPE_FULL_NAME),
; 300  : 									get_local_entity_index (receiver));
; 301  : 	
; 302  : 					#endif
; 303  : 	
; 304  : 					//
; 305  : 					// insert mobile into takeoff queue
; 306  : 					//
; 307  : 	
; 308  : 					ASSERT (!get_local_entity_parent (receiver, LIST_TYPE_TAKEOFF_QUEUE));

  00ad1	83 7d 0c 00	 cmp	 DWORD PTR _receiver$[ebp], 0
  00ad5	74 0a		 je	 SHORT $LN108@response_t
  00ad7	8b 45 0c	 mov	 eax, DWORD PTR _receiver$[ebp]
  00ada	8b 08		 mov	 ecx, DWORD PTR [eax]
  00adc	89 4d 98	 mov	 DWORD PTR tv532[ebp], ecx
  00adf	eb 24		 jmp	 SHORT $LN109@response_t
$LN108@response_t:
  00ae1	8b 15 00 00 00
	00		 mov	 edx, DWORD PTR ?__LINE__Var@?0??response_to_task_assigned@@YGHW4ENTITY_MESSAGES@@PAUENTITY@@1PAD@Z@4JA
  00ae7	81 c2 9b 00 00
	00		 add	 edx, 155		; 0000009bH
  00aed	52		 push	 edx
  00aee	68 00 00 00 00	 push	 OFFSET ??_C@_0EE@DLIIEJCN@c?3?2users?2nhv90?2projects?2eech?2ap@
  00af3	a1 00 00 00 00	 mov	 eax, DWORD PTR ?null_entity_pointer_message@@3PBDB ; null_entity_pointer_message
  00af8	50		 push	 eax
  00af9	e8 00 00 00 00	 call	 ?process_assert@@YGXPBD0H@Z ; process_assert
  00afe	c7 45 98 00 00
	00 00		 mov	 DWORD PTR tv532[ebp], 0
$LN109@response_t:
  00b05	b9 01 00 00 00	 mov	 ecx, 1
  00b0a	85 c9		 test	 ecx, ecx
  00b0c	74 09		 je	 SHORT $LN110@response_t
  00b0e	c7 45 94 25 00
	00 00		 mov	 DWORD PTR tv540[ebp], 37 ; 00000025H
  00b15	eb 24		 jmp	 SHORT $LN111@response_t
$LN110@response_t:
  00b17	8b 15 00 00 00
	00		 mov	 edx, DWORD PTR ?__LINE__Var@?0??response_to_task_assigned@@YGHW4ENTITY_MESSAGES@@PAUENTITY@@1PAD@Z@4JA
  00b1d	81 c2 9b 00 00
	00		 add	 edx, 155		; 0000009bH
  00b23	52		 push	 edx
  00b24	68 00 00 00 00	 push	 OFFSET ??_C@_0EE@DLIIEJCN@c?3?2users?2nhv90?2projects?2eech?2ap@
  00b29	a1 00 00 00 00	 mov	 eax, DWORD PTR ?overload_invalid_list_type_message@@3PBDB ; overload_invalid_list_type_message
  00b2e	50		 push	 eax
  00b2f	e8 00 00 00 00	 call	 ?process_assert@@YGXPBD0H@Z ; process_assert
  00b34	c7 45 94 00 00
	00 00		 mov	 DWORD PTR tv540[ebp], 0
$LN111@response_t:
  00b3b	6a 25		 push	 37			; 00000025H
  00b3d	8b 4d 0c	 mov	 ecx, DWORD PTR _receiver$[ebp]
  00b40	51		 push	 ecx
  00b41	69 55 98 b4 00
	00 00		 imul	 edx, DWORD PTR tv532[ebp], 180
  00b48	8b 45 94	 mov	 eax, DWORD PTR tv540[ebp]
  00b4b	8b 8c 82 00 00
	00 00		 mov	 ecx, DWORD PTR ?fn_get_local_entity_parent@@3PAY0CN@P6GPAUENTITY@@PAU1@W4LIST_TYPES@@@ZA[edx+eax*4]
  00b52	ff d1		 call	 ecx
  00b54	85 c0		 test	 eax, eax
  00b56	74 1a		 je	 SHORT $LN27@response_t
  00b58	a1 00 00 00 00	 mov	 eax, DWORD PTR ?__LINE__Var@?0??response_to_task_assigned@@YGHW4ENTITY_MESSAGES@@PAUENTITY@@1PAD@Z@4JA
  00b5d	05 9b 00 00 00	 add	 eax, 155		; 0000009bH
  00b62	50		 push	 eax
  00b63	68 00 00 00 00	 push	 OFFSET ??_C@_0EE@DLIIEJCN@c?3?2users?2nhv90?2projects?2eech?2ap@
  00b68	68 00 00 00 00	 push	 OFFSET ??_C@_0DN@FFBOCIDH@?$CBget_local_entity_parent?5?$CIrecei@
  00b6d	e8 00 00 00 00	 call	 ?process_assert@@YGXPBD0H@Z ; process_assert
$LN27@response_t:

; 309  : 	
; 310  : 					insert_local_entity_into_parents_child_list (receiver, LIST_TYPE_TAKEOFF_QUEUE, landing_en, NULL);

  00b72	6a 00		 push	 0
  00b74	8b 45 f4	 mov	 eax, DWORD PTR _landing_en$[ebp]
  00b77	50		 push	 eax
  00b78	6a 25		 push	 37			; 00000025H
  00b7a	8b 4d 0c	 mov	 ecx, DWORD PTR _receiver$[ebp]
  00b7d	51		 push	 ecx
  00b7e	e8 00 00 00 00	 call	 ?insert_local_entity_into_parents_child_list@@YGXPAUENTITY@@W4LIST_TYPES@@00@Z ; insert_local_entity_into_parents_child_list
$LN26@response_t:

; 311  : 				}
; 312  : 	
; 313  : 				//
; 314  : 				// reserve landing site for mobile
; 315  : 				//
; 316  : 	
; 317  : 				if (get_local_entity_int_value (sender, INT_TYPE_ASSESS_LANDING))

  00b83	83 7d 10 00	 cmp	 DWORD PTR _sender$[ebp], 0
  00b87	74 0a		 je	 SHORT $LN112@response_t
  00b89	8b 45 10	 mov	 eax, DWORD PTR _sender$[ebp]
  00b8c	8b 08		 mov	 ecx, DWORD PTR [eax]
  00b8e	89 4d 98	 mov	 DWORD PTR tv560[ebp], ecx
  00b91	eb 1d		 jmp	 SHORT $LN113@response_t
$LN112@response_t:
  00b93	68 3d 01 00 00	 push	 317			; 0000013dH
  00b98	68 00 00 00 00	 push	 OFFSET ??_C@_0EE@DLIIEJCN@c?3?2users?2nhv90?2projects?2eech?2ap@
  00b9d	8b 15 00 00 00
	00		 mov	 edx, DWORD PTR ?null_entity_pointer_message@@3PBDB ; null_entity_pointer_message
  00ba3	52		 push	 edx
  00ba4	e8 00 00 00 00	 call	 ?process_assert@@YGXPBD0H@Z ; process_assert
  00ba9	c7 45 98 00 00
	00 00		 mov	 DWORD PTR tv560[ebp], 0
$LN113@response_t:
  00bb0	b8 01 00 00 00	 mov	 eax, 1
  00bb5	85 c0		 test	 eax, eax
  00bb7	74 09		 je	 SHORT $LN114@response_t
  00bb9	c7 45 94 0a 00
	00 00		 mov	 DWORD PTR tv567[ebp], 10 ; 0000000aH
  00bc0	eb 1d		 jmp	 SHORT $LN115@response_t
$LN114@response_t:
  00bc2	68 3d 01 00 00	 push	 317			; 0000013dH
  00bc7	68 00 00 00 00	 push	 OFFSET ??_C@_0EE@DLIIEJCN@c?3?2users?2nhv90?2projects?2eech?2ap@
  00bcc	8b 0d 00 00 00
	00		 mov	 ecx, DWORD PTR ?overload_invalid_int_type_message@@3PBDB ; overload_invalid_int_type_message
  00bd2	51		 push	 ecx
  00bd3	e8 00 00 00 00	 call	 ?process_assert@@YGXPBD0H@Z ; process_assert
  00bd8	c7 45 94 00 00
	00 00		 mov	 DWORD PTR tv567[ebp], 0
$LN115@response_t:
  00bdf	6a 0a		 push	 10			; 0000000aH
  00be1	8b 55 10	 mov	 edx, DWORD PTR _sender$[ebp]
  00be4	52		 push	 edx
  00be5	69 45 98 5c 04
	00 00		 imul	 eax, DWORD PTR tv560[ebp], 1116
  00bec	8b 4d 94	 mov	 ecx, DWORD PTR tv567[ebp]
  00bef	8b 94 88 00 00
	00 00		 mov	 edx, DWORD PTR ?fn_get_local_entity_int_value@@3PAY0BBH@P6GHPAUENTITY@@W4INT_TYPES@@@ZA[eax+ecx*4]
  00bf6	ff d2		 call	 edx
  00bf8	85 c0		 test	 eax, eax
  00bfa	0f 84 50 01 00
	00		 je	 $LN28@response_t

; 318  : 				{
; 319  : 					end_keysite = (entity *) get_local_entity_ptr_value (sender, PTR_TYPE_RETURN_KEYSITE);

  00c00	83 7d 10 00	 cmp	 DWORD PTR _sender$[ebp], 0
  00c04	74 0a		 je	 SHORT $LN116@response_t
  00c06	8b 45 10	 mov	 eax, DWORD PTR _sender$[ebp]
  00c09	8b 08		 mov	 ecx, DWORD PTR [eax]
  00c0b	89 4d 98	 mov	 DWORD PTR tv580[ebp], ecx
  00c0e	eb 24		 jmp	 SHORT $LN117@response_t
$LN116@response_t:
  00c10	8b 15 00 00 00
	00		 mov	 edx, DWORD PTR ?__LINE__Var@?0??response_to_task_assigned@@YGHW4ENTITY_MESSAGES@@PAUENTITY@@1PAD@Z@4JA
  00c16	81 c2 a6 00 00
	00		 add	 edx, 166		; 000000a6H
  00c1c	52		 push	 edx
  00c1d	68 00 00 00 00	 push	 OFFSET ??_C@_0EE@DLIIEJCN@c?3?2users?2nhv90?2projects?2eech?2ap@
  00c22	a1 00 00 00 00	 mov	 eax, DWORD PTR ?null_entity_pointer_message@@3PBDB ; null_entity_pointer_message
  00c27	50		 push	 eax
  00c28	e8 00 00 00 00	 call	 ?process_assert@@YGXPBD0H@Z ; process_assert
  00c2d	c7 45 98 00 00
	00 00		 mov	 DWORD PTR tv580[ebp], 0
$LN117@response_t:
  00c34	b9 01 00 00 00	 mov	 ecx, 1
  00c39	85 c9		 test	 ecx, ecx
  00c3b	74 09		 je	 SHORT $LN118@response_t
  00c3d	c7 45 94 08 00
	00 00		 mov	 DWORD PTR tv588[ebp], 8
  00c44	eb 24		 jmp	 SHORT $LN119@response_t
$LN118@response_t:
  00c46	8b 15 00 00 00
	00		 mov	 edx, DWORD PTR ?__LINE__Var@?0??response_to_task_assigned@@YGHW4ENTITY_MESSAGES@@PAUENTITY@@1PAD@Z@4JA
  00c4c	81 c2 a6 00 00
	00		 add	 edx, 166		; 000000a6H
  00c52	52		 push	 edx
  00c53	68 00 00 00 00	 push	 OFFSET ??_C@_0EE@DLIIEJCN@c?3?2users?2nhv90?2projects?2eech?2ap@
  00c58	a1 00 00 00 00	 mov	 eax, DWORD PTR ?overload_invalid_ptr_type_message@@3PBDB ; overload_invalid_ptr_type_message
  00c5d	50		 push	 eax
  00c5e	e8 00 00 00 00	 call	 ?process_assert@@YGXPBD0H@Z ; process_assert
  00c63	c7 45 94 00 00
	00 00		 mov	 DWORD PTR tv588[ebp], 0
$LN119@response_t:
  00c6a	6a 08		 push	 8
  00c6c	8b 4d 10	 mov	 ecx, DWORD PTR _sender$[ebp]
  00c6f	51		 push	 ecx
  00c70	6b 55 98 50	 imul	 edx, DWORD PTR tv580[ebp], 80
  00c74	8b 45 94	 mov	 eax, DWORD PTR tv588[ebp]
  00c77	8b 8c 82 00 00
	00 00		 mov	 ecx, DWORD PTR ?fn_get_local_entity_ptr_value@@3PAY0BE@P6GPAXPAUENTITY@@W4PTR_TYPES@@@ZA[edx+eax*4]
  00c7e	ff d1		 call	 ecx
  00c80	89 45 f0	 mov	 DWORD PTR _end_keysite$[ebp], eax

; 320  : 		
; 321  : 					ASSERT (end_keysite);

  00c83	83 7d f0 00	 cmp	 DWORD PTR _end_keysite$[ebp], 0
  00c87	75 1a		 jne	 SHORT $LN29@response_t
  00c89	a1 00 00 00 00	 mov	 eax, DWORD PTR ?__LINE__Var@?0??response_to_task_assigned@@YGHW4ENTITY_MESSAGES@@PAUENTITY@@1PAD@Z@4JA
  00c8e	05 a8 00 00 00	 add	 eax, 168		; 000000a8H
  00c93	50		 push	 eax
  00c94	68 00 00 00 00	 push	 OFFSET ??_C@_0EE@DLIIEJCN@c?3?2users?2nhv90?2projects?2eech?2ap@
  00c99	68 00 00 00 00	 push	 OFFSET ??_C@_0M@IIJCELEF@end_keysite@
  00c9e	e8 00 00 00 00	 call	 ?process_assert@@YGXPBD0H@Z ; process_assert
$LN29@response_t:

; 322  : 		
; 323  : 					end_landing = get_local_entity_landing_entity (end_keysite, group_database [get_local_entity_int_value (group, INT_TYPE_ENTITY_SUB_TYPE)].default_landing_type);

  00ca3	83 7d f8 00	 cmp	 DWORD PTR _group$[ebp], 0
  00ca7	74 0a		 je	 SHORT $LN120@response_t
  00ca9	8b 45 f8	 mov	 eax, DWORD PTR _group$[ebp]
  00cac	8b 08		 mov	 ecx, DWORD PTR [eax]
  00cae	89 4d 98	 mov	 DWORD PTR tv606[ebp], ecx
  00cb1	eb 24		 jmp	 SHORT $LN121@response_t
$LN120@response_t:
  00cb3	8b 15 00 00 00
	00		 mov	 edx, DWORD PTR ?__LINE__Var@?0??response_to_task_assigned@@YGHW4ENTITY_MESSAGES@@PAUENTITY@@1PAD@Z@4JA
  00cb9	81 c2 aa 00 00
	00		 add	 edx, 170		; 000000aaH
  00cbf	52		 push	 edx
  00cc0	68 00 00 00 00	 push	 OFFSET ??_C@_0EE@DLIIEJCN@c?3?2users?2nhv90?2projects?2eech?2ap@
  00cc5	a1 00 00 00 00	 mov	 eax, DWORD PTR ?null_entity_pointer_message@@3PBDB ; null_entity_pointer_message
  00cca	50		 push	 eax
  00ccb	e8 00 00 00 00	 call	 ?process_assert@@YGXPBD0H@Z ; process_assert
  00cd0	c7 45 98 00 00
	00 00		 mov	 DWORD PTR tv606[ebp], 0
$LN121@response_t:
  00cd7	b9 01 00 00 00	 mov	 ecx, 1
  00cdc	85 c9		 test	 ecx, ecx
  00cde	74 09		 je	 SHORT $LN122@response_t
  00ce0	c7 45 94 34 00
	00 00		 mov	 DWORD PTR tv614[ebp], 52 ; 00000034H
  00ce7	eb 24		 jmp	 SHORT $LN123@response_t
$LN122@response_t:
  00ce9	8b 15 00 00 00
	00		 mov	 edx, DWORD PTR ?__LINE__Var@?0??response_to_task_assigned@@YGHW4ENTITY_MESSAGES@@PAUENTITY@@1PAD@Z@4JA
  00cef	81 c2 aa 00 00
	00		 add	 edx, 170		; 000000aaH
  00cf5	52		 push	 edx
  00cf6	68 00 00 00 00	 push	 OFFSET ??_C@_0EE@DLIIEJCN@c?3?2users?2nhv90?2projects?2eech?2ap@
  00cfb	a1 00 00 00 00	 mov	 eax, DWORD PTR ?overload_invalid_int_type_message@@3PBDB ; overload_invalid_int_type_message
  00d00	50		 push	 eax
  00d01	e8 00 00 00 00	 call	 ?process_assert@@YGXPBD0H@Z ; process_assert
  00d06	c7 45 94 00 00
	00 00		 mov	 DWORD PTR tv614[ebp], 0
$LN123@response_t:
  00d0d	6a 34		 push	 52			; 00000034H
  00d0f	8b 4d f8	 mov	 ecx, DWORD PTR _group$[ebp]
  00d12	51		 push	 ecx
  00d13	69 55 98 5c 04
	00 00		 imul	 edx, DWORD PTR tv606[ebp], 1116
  00d1a	8b 45 94	 mov	 eax, DWORD PTR tv614[ebp]
  00d1d	8b 8c 82 00 00
	00 00		 mov	 ecx, DWORD PTR ?fn_get_local_entity_int_value@@3PAY0BBH@P6GHPAUENTITY@@W4INT_TYPES@@@ZA[edx+eax*4]
  00d24	ff d1		 call	 ecx
  00d26	6b d0 64	 imul	 edx, eax, 100
  00d29	8b 82 18 00 00
	00		 mov	 eax, DWORD PTR ?group_database@@3PAUGROUP_DATA@@A[edx+24]
  00d2f	50		 push	 eax
  00d30	8b 4d f0	 mov	 ecx, DWORD PTR _end_keysite$[ebp]
  00d33	51		 push	 ecx
  00d34	e8 00 00 00 00	 call	 ?get_local_entity_landing_entity@@YGPAUENTITY@@PAU1@H@Z ; get_local_entity_landing_entity
  00d39	89 45 ec	 mov	 DWORD PTR _end_landing$[ebp], eax

; 324  : 		
; 325  : 					notify_local_entity (ENTITY_MESSAGE_RESERVE_LANDING_SITE, end_landing, receiver, 1);

  00d3c	6a 01		 push	 1
  00d3e	8b 45 0c	 mov	 eax, DWORD PTR _receiver$[ebp]
  00d41	50		 push	 eax
  00d42	8b 4d ec	 mov	 ecx, DWORD PTR _end_landing$[ebp]
  00d45	51		 push	 ecx
  00d46	6a 2e		 push	 46			; 0000002eH
  00d48	e8 00 00 00 00	 call	 ?notify_local_entity@@YAHW4ENTITY_MESSAGES@@PAUENTITY@@1ZZ ; notify_local_entity
  00d4d	83 c4 10	 add	 esp, 16			; 00000010H
$LN28@response_t:

; 326  : 				}
; 327  : 	
; 328  : 				/////////////////////////////////////////////////////////////////
; 329  : 				//
; 330  : 				// SPECIAL_EFFECT_HOOK FOR TAKEOFF REQUEST
; 331  : 				//
; 332  : 				/////////////////////////////////////////////////////////////////
; 333  : 	
; 334  : 				/////////////////////////////////////////////////////////////////
; 335  : 				//
; 336  : 				//
; 337  : 				/////////////////////////////////////////////////////////////////
; 338  : 			}
; 339  : 		
; 340  : 			break;

  00d50	e9 a0 00 00 00	 jmp	 $LN2@response_t

; 341  : 		}
; 342  : 
; 343  : 		case OPERATIONAL_STATE_TAXIING:
; 344  : 		case OPERATIONAL_STATE_TAKEOFF:
; 345  : 		case OPERATIONAL_STATE_TAKEOFF_HOLDING:
; 346  : 		case OPERATIONAL_STATE_LANDING:
; 347  : 		case OPERATIONAL_STATE_LANDING_HOLDING:
; 348  : 		{
; 349  : 
; 350  : 			#if DEBUG_MODULE
; 351  : 
; 352  : 			if (receiver == get_external_view_entity ())
; 353  : 			{
; 354  : 				
; 355  : 				debug_log ("MB_MSGS: not assigning landing/holding mobile %s (%d, group %d)",
; 356  : 							get_local_entity_string (receiver, STRING_TYPE_FULL_NAME),
; 357  : 							get_local_entity_safe_index (receiver),
; 358  : 							get_local_entity_index (get_local_entity_parent (receiver, LIST_TYPE_MEMBER)));
; 359  : 			}
; 360  : 
; 361  : 			#endif
; 362  : 
; 363  : 			break;

  00d55	e9 9b 00 00 00	 jmp	 $LN2@response_t
$LN31@response_t:

; 364  : 		}
; 365  : 
; 366  : 		case OPERATIONAL_STATE_STOPPED:
; 367  : 		case OPERATIONAL_STATE_WAITING:
; 368  : 		{
; 369  : 
; 370  : 			if (task_type != ENTITY_SUB_TYPE_TASK_ENGAGE)

  00d5a	83 7d e4 09	 cmp	 DWORD PTR _task_type$[ebp], 9
  00d5e	0f 84 91 00 00
	00		 je	 $LN32@response_t

; 371  : 			{
; 372  : 				set_client_server_entity_int_value (receiver, INT_TYPE_OPERATIONAL_STATE, OPERATIONAL_STATE_NAVIGATING);

  00d64	83 7d 0c 00	 cmp	 DWORD PTR _receiver$[ebp], 0
  00d68	74 0a		 je	 SHORT $LN124@response_t
  00d6a	8b 45 0c	 mov	 eax, DWORD PTR _receiver$[ebp]
  00d6d	8b 08		 mov	 ecx, DWORD PTR [eax]
  00d6f	89 4d 98	 mov	 DWORD PTR tv636[ebp], ecx
  00d72	eb 24		 jmp	 SHORT $LN125@response_t
$LN124@response_t:
  00d74	8b 15 00 00 00
	00		 mov	 edx, DWORD PTR ?__LINE__Var@?0??response_to_task_assigned@@YGHW4ENTITY_MESSAGES@@PAUENTITY@@1PAD@Z@4JA
  00d7a	81 c2 db 00 00
	00		 add	 edx, 219		; 000000dbH
  00d80	52		 push	 edx
  00d81	68 00 00 00 00	 push	 OFFSET ??_C@_0EE@DLIIEJCN@c?3?2users?2nhv90?2projects?2eech?2ap@
  00d86	a1 00 00 00 00	 mov	 eax, DWORD PTR ?null_entity_pointer_message@@3PBDB ; null_entity_pointer_message
  00d8b	50		 push	 eax
  00d8c	e8 00 00 00 00	 call	 ?process_assert@@YGXPBD0H@Z ; process_assert
  00d91	c7 45 98 00 00
	00 00		 mov	 DWORD PTR tv636[ebp], 0
$LN125@response_t:
  00d98	b9 01 00 00 00	 mov	 ecx, 1
  00d9d	85 c9		 test	 ecx, ecx
  00d9f	74 09		 je	 SHORT $LN126@response_t
  00da1	c7 45 94 97 00
	00 00		 mov	 DWORD PTR tv644[ebp], 151 ; 00000097H
  00da8	eb 24		 jmp	 SHORT $LN127@response_t
$LN126@response_t:
  00daa	8b 15 00 00 00
	00		 mov	 edx, DWORD PTR ?__LINE__Var@?0??response_to_task_assigned@@YGHW4ENTITY_MESSAGES@@PAUENTITY@@1PAD@Z@4JA
  00db0	81 c2 db 00 00
	00		 add	 edx, 219		; 000000dbH
  00db6	52		 push	 edx
  00db7	68 00 00 00 00	 push	 OFFSET ??_C@_0EE@DLIIEJCN@c?3?2users?2nhv90?2projects?2eech?2ap@
  00dbc	a1 00 00 00 00	 mov	 eax, DWORD PTR ?overload_invalid_int_type_message@@3PBDB ; overload_invalid_int_type_message
  00dc1	50		 push	 eax
  00dc2	e8 00 00 00 00	 call	 ?process_assert@@YGXPBD0H@Z ; process_assert
  00dc7	c7 45 94 00 00
	00 00		 mov	 DWORD PTR tv644[ebp], 0
$LN127@response_t:
  00dce	6a 07		 push	 7
  00dd0	68 97 00 00 00	 push	 151			; 00000097H
  00dd5	8b 4d 0c	 mov	 ecx, DWORD PTR _receiver$[ebp]
  00dd8	51		 push	 ecx
  00dd9	69 55 98 b8 08
	00 00		 imul	 edx, DWORD PTR tv636[ebp], 2232
  00de0	8b 45 94	 mov	 eax, DWORD PTR tv644[ebp]
  00de3	8d 8c c2 00 00
	00 00		 lea	 ecx, DWORD PTR ?fn_set_client_server_entity_int_value@@3PAY1BBH@1P6GXPAUENTITY@@W4INT_TYPES@@H@ZA[edx+eax*8]
  00dea	8b 15 00 00 00
	00		 mov	 edx, DWORD PTR ?system_comms_model@@3W4COMMS_MODEL_TYPES@@A ; system_comms_model
  00df0	8b 04 91	 mov	 eax, DWORD PTR [ecx+edx*4]
  00df3	ff d0		 call	 eax
$LN32@response_t:
$LN2@response_t:

; 373  : 			}
; 374  : 
; 375  : 			//
; 376  : 			// Intentional follow-through...
; 377  : 			//
; 378  : 		}
; 379  : 
; 380  : 		default:
; 381  : 		{
; 382  : 
; 383  : 			#if DEBUG_MODULE
; 384  : 
; 385  : 			if (receiver == get_external_view_entity ())
; 386  : 			{
; 387  : 				
; 388  : 				debug_log ("MB_MSGS: assign non-landed mobile %s (%d, group %d)",
; 389  : 							get_local_entity_string (receiver, STRING_TYPE_FULL_NAME),
; 390  : 							get_local_entity_safe_index (receiver),
; 391  : 							get_local_entity_index (get_local_entity_parent (receiver, LIST_TYPE_MEMBER)));
; 392  : 			}
; 393  : 
; 394  : 			#endif
; 395  : 
; 396  : 			/////////////////////////////////////////////////////////////////
; 397  : 			//
; 398  : 			// SPECIAL_EFFECT_HOOK FOR ASSIGNING TASK TO IN-FLIGHT DRONES
; 399  : 			//
; 400  : 			/////////////////////////////////////////////////////////////////
; 401  : 
; 402  : 			/////////////////////////////////////////////////////////////////
; 403  : 			//
; 404  : 			//
; 405  : 			/////////////////////////////////////////////////////////////////
; 406  : 
; 407  : 			break;
; 408  : 		}
; 409  : 	}
; 410  : 	
; 411  : 	//
; 412  : 	// If not attacking, then "button-up"
; 413  : 	//
; 414  : 		
; 415  : 	if (task_type != ENTITY_SUB_TYPE_TASK_ENGAGE)

  00df5	83 7d e4 09	 cmp	 DWORD PTR _task_type$[ebp], 9
  00df9	0f 84 91 00 00
	00		 je	 $LN34@response_t

; 416  : 	{
; 417  : 		set_client_server_entity_int_value (receiver, INT_TYPE_SELECTED_WEAPON, ENTITY_SUB_TYPE_WEAPON_NO_WEAPON);

  00dff	83 7d 0c 00	 cmp	 DWORD PTR _receiver$[ebp], 0
  00e03	74 0a		 je	 SHORT $LN128@response_t
  00e05	8b 45 0c	 mov	 eax, DWORD PTR _receiver$[ebp]
  00e08	8b 08		 mov	 ecx, DWORD PTR [eax]
  00e0a	89 4d 98	 mov	 DWORD PTR tv662[ebp], ecx
  00e0d	eb 24		 jmp	 SHORT $LN129@response_t
$LN128@response_t:
  00e0f	8b 15 00 00 00
	00		 mov	 edx, DWORD PTR ?__LINE__Var@?0??response_to_task_assigned@@YGHW4ENTITY_MESSAGES@@PAUENTITY@@1PAD@Z@4JA
  00e15	81 c2 08 01 00
	00		 add	 edx, 264		; 00000108H
  00e1b	52		 push	 edx
  00e1c	68 00 00 00 00	 push	 OFFSET ??_C@_0EE@DLIIEJCN@c?3?2users?2nhv90?2projects?2eech?2ap@
  00e21	a1 00 00 00 00	 mov	 eax, DWORD PTR ?null_entity_pointer_message@@3PBDB ; null_entity_pointer_message
  00e26	50		 push	 eax
  00e27	e8 00 00 00 00	 call	 ?process_assert@@YGXPBD0H@Z ; process_assert
  00e2c	c7 45 98 00 00
	00 00		 mov	 DWORD PTR tv662[ebp], 0
$LN129@response_t:
  00e33	b9 01 00 00 00	 mov	 ecx, 1
  00e38	85 c9		 test	 ecx, ecx
  00e3a	74 09		 je	 SHORT $LN130@response_t
  00e3c	c7 45 94 b8 00
	00 00		 mov	 DWORD PTR tv670[ebp], 184 ; 000000b8H
  00e43	eb 24		 jmp	 SHORT $LN131@response_t
$LN130@response_t:
  00e45	8b 15 00 00 00
	00		 mov	 edx, DWORD PTR ?__LINE__Var@?0??response_to_task_assigned@@YGHW4ENTITY_MESSAGES@@PAUENTITY@@1PAD@Z@4JA
  00e4b	81 c2 08 01 00
	00		 add	 edx, 264		; 00000108H
  00e51	52		 push	 edx
  00e52	68 00 00 00 00	 push	 OFFSET ??_C@_0EE@DLIIEJCN@c?3?2users?2nhv90?2projects?2eech?2ap@
  00e57	a1 00 00 00 00	 mov	 eax, DWORD PTR ?overload_invalid_int_type_message@@3PBDB ; overload_invalid_int_type_message
  00e5c	50		 push	 eax
  00e5d	e8 00 00 00 00	 call	 ?process_assert@@YGXPBD0H@Z ; process_assert
  00e62	c7 45 94 00 00
	00 00		 mov	 DWORD PTR tv670[ebp], 0
$LN131@response_t:
  00e69	6a 00		 push	 0
  00e6b	68 b8 00 00 00	 push	 184			; 000000b8H
  00e70	8b 4d 0c	 mov	 ecx, DWORD PTR _receiver$[ebp]
  00e73	51		 push	 ecx
  00e74	69 55 98 b8 08
	00 00		 imul	 edx, DWORD PTR tv662[ebp], 2232
  00e7b	8b 45 94	 mov	 eax, DWORD PTR tv670[ebp]
  00e7e	8d 8c c2 00 00
	00 00		 lea	 ecx, DWORD PTR ?fn_set_client_server_entity_int_value@@3PAY1BBH@1P6GXPAUENTITY@@W4INT_TYPES@@H@ZA[edx+eax*8]
  00e85	8b 15 00 00 00
	00		 mov	 edx, DWORD PTR ?system_comms_model@@3W4COMMS_MODEL_TYPES@@A ; system_comms_model
  00e8b	8b 04 91	 mov	 eax, DWORD PTR [ecx+edx*4]
  00e8e	ff d0		 call	 eax
$LN34@response_t:

; 418  : 	}
; 419  : 
; 420  : 	/////////////////////////////////////////////////////////////////
; 421  : 	//
; 422  : 	// SPECIAL_EFFECT_HOOK FOR TASK ASSIGNED 
; 423  : 	//
; 424  : 	/////////////////////////////////////////////////////////////////
; 425  : 
; 426  : 	set_local_entity_float_value (receiver, FLOAT_TYPE_VIEW_INTEREST_LEVEL, DEFAULT_VIEW_INTEREST_LEVEL);

  00e90	83 7d 0c 00	 cmp	 DWORD PTR _receiver$[ebp], 0
  00e94	74 0a		 je	 SHORT $LN132@response_t
  00e96	8b 45 0c	 mov	 eax, DWORD PTR _receiver$[ebp]
  00e99	8b 08		 mov	 ecx, DWORD PTR [eax]
  00e9b	89 4d 98	 mov	 DWORD PTR tv684[ebp], ecx
  00e9e	eb 24		 jmp	 SHORT $LN133@response_t
$LN132@response_t:
  00ea0	8b 15 00 00 00
	00		 mov	 edx, DWORD PTR ?__LINE__Var@?0??response_to_task_assigned@@YGHW4ENTITY_MESSAGES@@PAUENTITY@@1PAD@Z@4JA
  00ea6	81 c2 11 01 00
	00		 add	 edx, 273		; 00000111H
  00eac	52		 push	 edx
  00ead	68 00 00 00 00	 push	 OFFSET ??_C@_0EE@DLIIEJCN@c?3?2users?2nhv90?2projects?2eech?2ap@
  00eb2	a1 00 00 00 00	 mov	 eax, DWORD PTR ?null_entity_pointer_message@@3PBDB ; null_entity_pointer_message
  00eb7	50		 push	 eax
  00eb8	e8 00 00 00 00	 call	 ?process_assert@@YGXPBD0H@Z ; process_assert
  00ebd	c7 45 98 00 00
	00 00		 mov	 DWORD PTR tv684[ebp], 0
$LN133@response_t:
  00ec4	b9 01 00 00 00	 mov	 ecx, 1
  00ec9	85 c9		 test	 ecx, ecx
  00ecb	74 09		 je	 SHORT $LN134@response_t
  00ecd	c7 45 94 95 00
	00 00		 mov	 DWORD PTR tv692[ebp], 149 ; 00000095H
  00ed4	eb 24		 jmp	 SHORT $LN135@response_t
$LN134@response_t:
  00ed6	8b 15 00 00 00
	00		 mov	 edx, DWORD PTR ?__LINE__Var@?0??response_to_task_assigned@@YGHW4ENTITY_MESSAGES@@PAUENTITY@@1PAD@Z@4JA
  00edc	81 c2 11 01 00
	00		 add	 edx, 273		; 00000111H
  00ee2	52		 push	 edx
  00ee3	68 00 00 00 00	 push	 OFFSET ??_C@_0EE@DLIIEJCN@c?3?2users?2nhv90?2projects?2eech?2ap@
  00ee8	a1 00 00 00 00	 mov	 eax, DWORD PTR ?overload_invalid_float_type_message@@3PBDB ; overload_invalid_float_type_message
  00eed	50		 push	 eax
  00eee	e8 00 00 00 00	 call	 ?process_assert@@YGXPBD0H@Z ; process_assert
  00ef3	c7 45 94 00 00
	00 00		 mov	 DWORD PTR tv692[ebp], 0
$LN135@response_t:
  00efa	51		 push	 ecx
  00efb	f3 0f 10 05 00
	00 00 00	 movss	 xmm0, DWORD PTR __real@40a00000
  00f03	f3 0f 11 04 24	 movss	 DWORD PTR [esp], xmm0
  00f08	68 95 00 00 00	 push	 149			; 00000095H
  00f0d	8b 4d 0c	 mov	 ecx, DWORD PTR _receiver$[ebp]
  00f10	51		 push	 ecx
  00f11	69 55 98 bc 02
	00 00		 imul	 edx, DWORD PTR tv684[ebp], 700
  00f18	8b 45 94	 mov	 eax, DWORD PTR tv692[ebp]
  00f1b	8b 8c 82 00 00
	00 00		 mov	 ecx, DWORD PTR ?fn_set_local_entity_float_value@@3PAY0KP@P6GXPAUENTITY@@W4FLOAT_TYPES@@M@ZA[edx+eax*4]
  00f22	ff d1		 call	 ecx

; 427  : 
; 428  : 	/////////////////////////////////////////////////////////////////
; 429  : 	//
; 430  : 	//
; 431  : 	/////////////////////////////////////////////////////////////////
; 432  : 
; 433  : 	return (TRUE);

  00f24	b8 01 00 00 00	 mov	 eax, 1

; 434  : }

  00f29	5f		 pop	 edi
  00f2a	5e		 pop	 esi
  00f2b	5b		 pop	 ebx
  00f2c	8b e5		 mov	 esp, ebp
  00f2e	5d		 pop	 ebp
  00f2f	c2 10 00	 ret	 16			; 00000010H
?response_to_task_assigned@@YGHW4ENTITY_MESSAGES@@PAUENTITY@@1PAD@Z ENDP ; response_to_task_assigned
_TEXT	ENDS
; Function compile flags: /Odtp /ZI
; File c:\users\nhv90\projects\eech\aphavoc\source\entity\mobile\mb_msgs.c
;	COMDAT ?overload_mobile_message_responses@@YGXW4ENTITY_TYPES@@@Z
_TEXT	SEGMENT
_type$ = 8						; size = 4
?overload_mobile_message_responses@@YGXW4ENTITY_TYPES@@@Z PROC ; overload_mobile_message_responses, COMDAT

; 2607 : {

  00000	55		 push	 ebp
  00001	8b ec		 mov	 ebp, esp
  00003	83 ec 40	 sub	 esp, 64			; 00000040H
  00006	53		 push	 ebx
  00007	56		 push	 esi
  00008	57		 push	 edi

; 2608 : 	#if DEBUG_MODULE >= 2
; 2609 : 
; 2610 : 	message_responses[type][ENTITY_MESSAGE_LINK_CHILD] 										= response_to_link_child;
; 2611 : 
; 2612 : 	message_responses[type][ENTITY_MESSAGE_UNLINK_CHILD]										= response_to_unlink_child;
; 2613 : 
; 2614 : 	message_responses[type][ENTITY_MESSAGE_LINK_PARENT]										= response_to_link_parent;
; 2615 : 
; 2616 : 	message_responses[type][ENTITY_MESSAGE_UNLINK_PARENT]										= response_to_unlink_parent;
; 2617 : 
; 2618 : 	#endif
; 2619 : 
; 2620 : 	message_responses[type][ENTITY_MESSAGE_TASK_ASSIGNED]										= response_to_task_assigned;

  00009	69 45 08 84 01
	00 00		 imul	 eax, DWORD PTR _type$[ebp], 388
  00010	b9 04 00 00 00	 mov	 ecx, 4
  00015	6b d1 31	 imul	 edx, ecx, 49
  00018	c7 84 10 00 00
	00 00 00 00 00
	00		 mov	 DWORD PTR ?message_responses@@3PAY0GB@P6GHW4ENTITY_MESSAGES@@PAUENTITY@@1PAD@ZA[eax+edx], OFFSET ?response_to_task_assigned@@YGHW4ENTITY_MESSAGES@@PAUENTITY@@1PAD@Z ; response_to_task_assigned

; 2621 : 
; 2622 : 	message_responses[type][ENTITY_MESSAGE_WAYPOINT_APPROACH_REACHED]						= response_to_waypoint_approach_reached;

  00023	69 45 08 84 01
	00 00		 imul	 eax, DWORD PTR _type$[ebp], 388
  0002a	b9 04 00 00 00	 mov	 ecx, 4
  0002f	6b d1 3e	 imul	 edx, ecx, 62
  00032	c7 84 10 00 00
	00 00 00 00 00
	00		 mov	 DWORD PTR ?message_responses@@3PAY0GB@P6GHW4ENTITY_MESSAGES@@PAUENTITY@@1PAD@ZA[eax+edx], OFFSET ?response_to_waypoint_approach_reached@@YGHW4ENTITY_MESSAGES@@PAUENTITY@@1PAD@Z ; response_to_waypoint_approach_reached

; 2623 : 
; 2624 : 	message_responses[type][ENTITY_MESSAGE_WAYPOINT_ATTACK_ACTION]							= response_to_waypoint_attack_action;

  0003d	69 45 08 84 01
	00 00		 imul	 eax, DWORD PTR _type$[ebp], 388
  00044	b9 04 00 00 00	 mov	 ecx, 4
  00049	6b d1 3f	 imul	 edx, ecx, 63
  0004c	c7 84 10 00 00
	00 00 00 00 00
	00		 mov	 DWORD PTR ?message_responses@@3PAY0GB@P6GHW4ENTITY_MESSAGES@@PAUENTITY@@1PAD@ZA[eax+edx], OFFSET ?response_to_waypoint_attack_action@@YGHW4ENTITY_MESSAGES@@PAUENTITY@@1PAD@Z ; response_to_waypoint_attack_action

; 2625 : 
; 2626 : 	message_responses[type][ENTITY_MESSAGE_WAYPOINT_CONVOY_REACHED]						= response_to_waypoint_convoy_reached;

  00057	69 45 08 84 01
	00 00		 imul	 eax, DWORD PTR _type$[ebp], 388
  0005e	b9 04 00 00 00	 mov	 ecx, 4
  00063	c1 e1 06	 shl	 ecx, 6
  00066	c7 84 08 00 00
	00 00 00 00 00
	00		 mov	 DWORD PTR ?message_responses@@3PAY0GB@P6GHW4ENTITY_MESSAGES@@PAUENTITY@@1PAD@ZA[eax+ecx], OFFSET ?response_to_waypoint_convoy_reached@@YGHW4ENTITY_MESSAGES@@PAUENTITY@@1PAD@Z ; response_to_waypoint_convoy_reached

; 2627 : 
; 2628 : 	message_responses[type][ENTITY_MESSAGE_WAYPOINT_DEFEND_REACHED]						= response_to_waypoint_defend_reached;

  00071	69 45 08 84 01
	00 00		 imul	 eax, DWORD PTR _type$[ebp], 388
  00078	b9 04 00 00 00	 mov	 ecx, 4
  0007d	6b d1 41	 imul	 edx, ecx, 65
  00080	c7 84 10 00 00
	00 00 00 00 00
	00		 mov	 DWORD PTR ?message_responses@@3PAY0GB@P6GHW4ENTITY_MESSAGES@@PAUENTITY@@1PAD@ZA[eax+edx], OFFSET ?response_to_waypoint_defend_reached@@YGHW4ENTITY_MESSAGES@@PAUENTITY@@1PAD@Z ; response_to_waypoint_defend_reached

; 2629 : 
; 2630 : 	message_responses[type][ENTITY_MESSAGE_WAYPOINT_DROP_OFF_REACHED]						= response_to_waypoint_drop_off_reached;

  0008b	69 45 08 84 01
	00 00		 imul	 eax, DWORD PTR _type$[ebp], 388
  00092	b9 04 00 00 00	 mov	 ecx, 4
  00097	6b d1 42	 imul	 edx, ecx, 66
  0009a	c7 84 10 00 00
	00 00 00 00 00
	00		 mov	 DWORD PTR ?message_responses@@3PAY0GB@P6GHW4ENTITY_MESSAGES@@PAUENTITY@@1PAD@ZA[eax+edx], OFFSET ?response_to_waypoint_drop_off_reached@@YGHW4ENTITY_MESSAGES@@PAUENTITY@@1PAD@Z ; response_to_waypoint_drop_off_reached

; 2631 : 
; 2632 : 	message_responses[type][ENTITY_MESSAGE_WAYPOINT_FINISH_DROP_OFF_REACHED]			= response_to_waypoint_finish_drop_off_reached;

  000a5	69 45 08 84 01
	00 00		 imul	 eax, DWORD PTR _type$[ebp], 388
  000ac	b9 04 00 00 00	 mov	 ecx, 4
  000b1	6b d1 44	 imul	 edx, ecx, 68
  000b4	c7 84 10 00 00
	00 00 00 00 00
	00		 mov	 DWORD PTR ?message_responses@@3PAY0GB@P6GHW4ENTITY_MESSAGES@@PAUENTITY@@1PAD@ZA[eax+edx], OFFSET ?response_to_waypoint_finish_drop_off_reached@@YGHW4ENTITY_MESSAGES@@PAUENTITY@@1PAD@Z ; response_to_waypoint_finish_drop_off_reached

; 2633 : 
; 2634 : 	message_responses[type][ENTITY_MESSAGE_WAYPOINT_LAND_REACHED]							= response_to_waypoint_land_reached;

  000bf	69 45 08 84 01
	00 00		 imul	 eax, DWORD PTR _type$[ebp], 388
  000c6	b9 04 00 00 00	 mov	 ecx, 4
  000cb	6b d1 46	 imul	 edx, ecx, 70
  000ce	c7 84 10 00 00
	00 00 00 00 00
	00		 mov	 DWORD PTR ?message_responses@@3PAY0GB@P6GHW4ENTITY_MESSAGES@@PAUENTITY@@1PAD@ZA[eax+edx], OFFSET ?response_to_waypoint_land_reached@@YGHW4ENTITY_MESSAGES@@PAUENTITY@@1PAD@Z ; response_to_waypoint_land_reached

; 2635 : 
; 2636 : 	message_responses[type][ENTITY_MESSAGE_WAYPOINT_LANDED_REACHED]						= response_to_waypoint_landed_reached;

  000d9	69 45 08 84 01
	00 00		 imul	 eax, DWORD PTR _type$[ebp], 388
  000e0	b9 04 00 00 00	 mov	 ecx, 4
  000e5	6b d1 47	 imul	 edx, ecx, 71
  000e8	c7 84 10 00 00
	00 00 00 00 00
	00		 mov	 DWORD PTR ?message_responses@@3PAY0GB@P6GHW4ENTITY_MESSAGES@@PAUENTITY@@1PAD@ZA[eax+edx], OFFSET ?response_to_waypoint_landed_reached@@YGHW4ENTITY_MESSAGES@@PAUENTITY@@1PAD@Z ; response_to_waypoint_landed_reached

; 2637 : 
; 2638 : 	message_responses[type][ENTITY_MESSAGE_WAYPOINT_LOOP_REACHED]							= response_to_waypoint_loop_reached;

  000f3	69 45 08 84 01
	00 00		 imul	 eax, DWORD PTR _type$[ebp], 388
  000fa	b9 04 00 00 00	 mov	 ecx, 4
  000ff	6b d1 49	 imul	 edx, ecx, 73
  00102	c7 84 10 00 00
	00 00 00 00 00
	00		 mov	 DWORD PTR ?message_responses@@3PAY0GB@P6GHW4ENTITY_MESSAGES@@PAUENTITY@@1PAD@ZA[eax+edx], OFFSET ?response_to_waypoint_loop_reached@@YGHW4ENTITY_MESSAGES@@PAUENTITY@@1PAD@Z ; response_to_waypoint_loop_reached

; 2639 : 
; 2640 : 	message_responses[type][ENTITY_MESSAGE_WAYPOINT_NAVIGATION_REACHED]					= response_to_waypoint_navigation_reached;

  0010d	69 45 08 84 01
	00 00		 imul	 eax, DWORD PTR _type$[ebp], 388
  00114	b9 04 00 00 00	 mov	 ecx, 4
  00119	6b d1 4b	 imul	 edx, ecx, 75
  0011c	c7 84 10 00 00
	00 00 00 00 00
	00		 mov	 DWORD PTR ?message_responses@@3PAY0GB@P6GHW4ENTITY_MESSAGES@@PAUENTITY@@1PAD@ZA[eax+edx], OFFSET ?response_to_waypoint_navigation_reached@@YGHW4ENTITY_MESSAGES@@PAUENTITY@@1PAD@Z ; response_to_waypoint_navigation_reached

; 2641 : 
; 2642 : 	message_responses[type][ENTITY_MESSAGE_WAYPOINT_SUB_ROUTE_NAVIGATION_REACHED]		= response_to_waypoint_sub_route_navigation_reached;

  00127	69 45 08 84 01
	00 00		 imul	 eax, DWORD PTR _type$[ebp], 388
  0012e	b9 04 00 00 00	 mov	 ecx, 4
  00133	6b d1 55	 imul	 edx, ecx, 85
  00136	c7 84 10 00 00
	00 00 00 00 00
	00		 mov	 DWORD PTR ?message_responses@@3PAY0GB@P6GHW4ENTITY_MESSAGES@@PAUENTITY@@1PAD@ZA[eax+edx], OFFSET ?response_to_waypoint_sub_route_navigation_reached@@YGHW4ENTITY_MESSAGES@@PAUENTITY@@1PAD@Z ; response_to_waypoint_sub_route_navigation_reached

; 2643 : 
; 2644 : 	message_responses[type][ENTITY_MESSAGE_WAYPOINT_PREPARE_FOR_DROP_OFF_REACHED]		= response_to_waypoint_prepare_for_drop_off_reached;

  00141	69 45 08 84 01
	00 00		 imul	 eax, DWORD PTR _type$[ebp], 388
  00148	b9 04 00 00 00	 mov	 ecx, 4
  0014d	6b d1 4c	 imul	 edx, ecx, 76
  00150	c7 84 10 00 00
	00 00 00 00 00
	00		 mov	 DWORD PTR ?message_responses@@3PAY0GB@P6GHW4ENTITY_MESSAGES@@PAUENTITY@@1PAD@ZA[eax+edx], OFFSET ?response_to_waypoint_prepare_for_drop_off_reached@@YGHW4ENTITY_MESSAGES@@PAUENTITY@@1PAD@Z ; response_to_waypoint_prepare_for_drop_off_reached

; 2645 : 
; 2646 : 	message_responses[type][ENTITY_MESSAGE_WAYPOINT_PICK_UP_REACHED]						= response_to_waypoint_pick_up_reached;

  0015b	69 45 08 84 01
	00 00		 imul	 eax, DWORD PTR _type$[ebp], 388
  00162	b9 04 00 00 00	 mov	 ecx, 4
  00167	6b d1 4d	 imul	 edx, ecx, 77
  0016a	c7 84 10 00 00
	00 00 00 00 00
	00		 mov	 DWORD PTR ?message_responses@@3PAY0GB@P6GHW4ENTITY_MESSAGES@@PAUENTITY@@1PAD@ZA[eax+edx], OFFSET ?response_to_waypoint_pick_up_reached@@YGHW4ENTITY_MESSAGES@@PAUENTITY@@1PAD@Z ; response_to_waypoint_pick_up_reached

; 2647 : 
; 2648 : 	message_responses[type][ENTITY_MESSAGE_WAYPOINT_RECON_ACTION]							= response_to_waypoint_recon_action;

  00175	69 45 08 84 01
	00 00		 imul	 eax, DWORD PTR _type$[ebp], 388
  0017c	b9 04 00 00 00	 mov	 ecx, 4
  00181	6b d1 50	 imul	 edx, ecx, 80
  00184	c7 84 10 00 00
	00 00 00 00 00
	00		 mov	 DWORD PTR ?message_responses@@3PAY0GB@P6GHW4ENTITY_MESSAGES@@PAUENTITY@@1PAD@ZA[eax+edx], OFFSET ?response_to_waypoint_recon_action@@YGHW4ENTITY_MESSAGES@@PAUENTITY@@1PAD@Z ; response_to_waypoint_recon_action

; 2649 : 
; 2650 : 	message_responses[type][ENTITY_MESSAGE_WAYPOINT_RECON_REACHED]							= response_to_waypoint_recon_reached;

  0018f	69 45 08 84 01
	00 00		 imul	 eax, DWORD PTR _type$[ebp], 388
  00196	b9 04 00 00 00	 mov	 ecx, 4
  0019b	6b d1 51	 imul	 edx, ecx, 81
  0019e	c7 84 10 00 00
	00 00 00 00 00
	00		 mov	 DWORD PTR ?message_responses@@3PAY0GB@P6GHW4ENTITY_MESSAGES@@PAUENTITY@@1PAD@ZA[eax+edx], OFFSET ?response_to_waypoint_recon_reached@@YGHW4ENTITY_MESSAGES@@PAUENTITY@@1PAD@Z ; response_to_waypoint_recon_reached

; 2651 : 
; 2652 : 	message_responses[type][ENTITY_MESSAGE_WAYPOINT_REPAIR_REACHED]						= response_to_waypoint_repair_reached;

  001a9	69 45 08 84 01
	00 00		 imul	 eax, DWORD PTR _type$[ebp], 388
  001b0	b9 04 00 00 00	 mov	 ecx, 4
  001b5	6b d1 52	 imul	 edx, ecx, 82
  001b8	c7 84 10 00 00
	00 00 00 00 00
	00		 mov	 DWORD PTR ?message_responses@@3PAY0GB@P6GHW4ENTITY_MESSAGES@@PAUENTITY@@1PAD@ZA[eax+edx], OFFSET ?response_to_waypoint_repair_reached@@YGHW4ENTITY_MESSAGES@@PAUENTITY@@1PAD@Z ; response_to_waypoint_repair_reached

; 2653 : 
; 2654 : 	message_responses[type][ENTITY_MESSAGE_WAYPOINT_TAKEN_OFF_REACHED]					= response_to_waypoint_taken_off_reached;

  001c3	69 45 08 84 01
	00 00		 imul	 eax, DWORD PTR _type$[ebp], 388
  001ca	b9 04 00 00 00	 mov	 ecx, 4
  001cf	6b d1 56	 imul	 edx, ecx, 86
  001d2	c7 84 10 00 00
	00 00 00 00 00
	00		 mov	 DWORD PTR ?message_responses@@3PAY0GB@P6GHW4ENTITY_MESSAGES@@PAUENTITY@@1PAD@ZA[eax+edx], OFFSET ?response_to_waypoint_taken_off_reached@@YGHW4ENTITY_MESSAGES@@PAUENTITY@@1PAD@Z ; response_to_waypoint_taken_off_reached

; 2655 : 
; 2656 : 	message_responses[type][ENTITY_MESSAGE_WAYPOINT_TAXI_REACHED]							= response_to_waypoint_taxi_reached;

  001dd	69 45 08 84 01
	00 00		 imul	 eax, DWORD PTR _type$[ebp], 388
  001e4	b9 04 00 00 00	 mov	 ecx, 4
  001e9	6b d1 57	 imul	 edx, ecx, 87
  001ec	c7 84 10 00 00
	00 00 00 00 00
	00		 mov	 DWORD PTR ?message_responses@@3PAY0GB@P6GHW4ENTITY_MESSAGES@@PAUENTITY@@1PAD@ZA[eax+edx], OFFSET ?response_to_waypoint_taxi_reached@@YGHW4ENTITY_MESSAGES@@PAUENTITY@@1PAD@Z ; response_to_waypoint_taxi_reached

; 2657 : 
; 2658 : 	message_responses[type][ENTITY_MESSAGE_WAYPOINT_TROOP_CAPTURE_REACHED]				= response_to_waypoint_troop_capture_reached;

  001f7	69 45 08 84 01
	00 00		 imul	 eax, DWORD PTR _type$[ebp], 388
  001fe	b9 04 00 00 00	 mov	 ecx, 4
  00203	6b d1 59	 imul	 edx, ecx, 89
  00206	c7 84 10 00 00
	00 00 00 00 00
	00		 mov	 DWORD PTR ?message_responses@@3PAY0GB@P6GHW4ENTITY_MESSAGES@@PAUENTITY@@1PAD@ZA[eax+edx], OFFSET ?response_to_waypoint_troop_capture_reached@@YGHW4ENTITY_MESSAGES@@PAUENTITY@@1PAD@Z ; response_to_waypoint_troop_capture_reached

; 2659 : 
; 2660 : 	message_responses[type][ENTITY_MESSAGE_WAYPOINT_TROOP_DEFEND_REACHED]				= response_to_waypoint_troop_defend_reached;

  00211	69 45 08 84 01
	00 00		 imul	 eax, DWORD PTR _type$[ebp], 388
  00218	b9 04 00 00 00	 mov	 ecx, 4
  0021d	6b d1 5a	 imul	 edx, ecx, 90
  00220	c7 84 10 00 00
	00 00 00 00 00
	00		 mov	 DWORD PTR ?message_responses@@3PAY0GB@P6GHW4ENTITY_MESSAGES@@PAUENTITY@@1PAD@ZA[eax+edx], OFFSET ?response_to_waypoint_troop_defend_reached@@YGHW4ENTITY_MESSAGES@@PAUENTITY@@1PAD@Z ; response_to_waypoint_troop_defend_reached

; 2661 : 
; 2662 : 	message_responses[type][ENTITY_MESSAGE_WAYPOINT_TROOP_INSERT_REACHED]				= response_to_waypoint_troop_insert_reached;

  0022b	69 45 08 84 01
	00 00		 imul	 eax, DWORD PTR _type$[ebp], 388
  00232	b9 04 00 00 00	 mov	 ecx, 4
  00237	6b d1 5c	 imul	 edx, ecx, 92
  0023a	c7 84 10 00 00
	00 00 00 00 00
	00		 mov	 DWORD PTR ?message_responses@@3PAY0GB@P6GHW4ENTITY_MESSAGES@@PAUENTITY@@1PAD@ZA[eax+edx], OFFSET ?response_to_waypoint_troop_insert_reached@@YGHW4ENTITY_MESSAGES@@PAUENTITY@@1PAD@Z ; response_to_waypoint_troop_insert_reached

; 2663 : 
; 2664 : 	message_responses[type][ENTITY_MESSAGE_WAYPOINT_TROOP_PICKUP_POINT_END_REACHED]	= response_to_waypoint_troop_pickup_point_end_reached;

  00245	69 45 08 84 01
	00 00		 imul	 eax, DWORD PTR _type$[ebp], 388
  0024c	b9 04 00 00 00	 mov	 ecx, 4
  00251	6b d1 5d	 imul	 edx, ecx, 93
  00254	c7 84 10 00 00
	00 00 00 00 00
	00		 mov	 DWORD PTR ?message_responses@@3PAY0GB@P6GHW4ENTITY_MESSAGES@@PAUENTITY@@1PAD@ZA[eax+edx], OFFSET ?response_to_waypoint_troop_pickup_point_end_reached@@YGHW4ENTITY_MESSAGES@@PAUENTITY@@1PAD@Z ; response_to_waypoint_troop_pickup_point_end_reached

; 2665 : 
; 2666 : 	message_responses[type][ENTITY_MESSAGE_WAYPOINT_TROOP_PICKUP_POINT_START_REACHED]= response_to_waypoint_troop_pickup_point_start_reached;

  0025f	69 45 08 84 01
	00 00		 imul	 eax, DWORD PTR _type$[ebp], 388
  00266	b9 04 00 00 00	 mov	 ecx, 4
  0026b	6b d1 5e	 imul	 edx, ecx, 94
  0026e	c7 84 10 00 00
	00 00 00 00 00
	00		 mov	 DWORD PTR ?message_responses@@3PAY0GB@P6GHW4ENTITY_MESSAGES@@PAUENTITY@@1PAD@ZA[eax+edx], OFFSET ?response_to_waypoint_troop_pickup_point_start_reached@@YGHW4ENTITY_MESSAGES@@PAUENTITY@@1PAD@Z ; response_to_waypoint_troop_pickup_point_start_reached

; 2667 : 
; 2668 : 	message_responses[type][ENTITY_MESSAGE_WAYPOINT_TROOP_PUTDOWN_POINT_REACHED]		= response_to_waypoint_troop_putdown_point_reached;

  00279	69 45 08 84 01
	00 00		 imul	 eax, DWORD PTR _type$[ebp], 388
  00280	b9 04 00 00 00	 mov	 ecx, 4
  00285	6b d1 5f	 imul	 edx, ecx, 95
  00288	c7 84 10 00 00
	00 00 00 00 00
	00		 mov	 DWORD PTR ?message_responses@@3PAY0GB@P6GHW4ENTITY_MESSAGES@@PAUENTITY@@1PAD@ZA[eax+edx], OFFSET ?response_to_waypoint_troop_putdown_point_reached@@YGHW4ENTITY_MESSAGES@@PAUENTITY@@1PAD@Z ; response_to_waypoint_troop_putdown_point_reached

; 2669 : }

  00293	5f		 pop	 edi
  00294	5e		 pop	 esi
  00295	5b		 pop	 ebx
  00296	8b e5		 mov	 esp, ebp
  00298	5d		 pop	 ebp
  00299	c2 04 00	 ret	 4
?overload_mobile_message_responses@@YGXW4ENTITY_TYPES@@@Z ENDP ; overload_mobile_message_responses
_TEXT	ENDS
END
