; Listing generated by Microsoft (R) Optimizing Compiler Version 19.16.27045.0 

	TITLE	C:\Users\nhv90\Projects\eech\aphavoc\source\entity\mobile\mb_vec3d.c
	.686P
	.XMM
	include listing.inc
	.model	flat

INCLUDELIB MSVCRTD
INCLUDELIB OLDNAMES

PUBLIC	?overload_mobile_vec3d_functions@@YGXW4ENTITY_TYPES@@@Z ; overload_mobile_vec3d_functions
PUBLIC	?__LINE__Var@?0??set_local_raw_vec3d@@YGXPAUENTITY@@W4VEC3D_TYPES@@PAUVEC3D@@@Z@4JA ; `set_local_raw_vec3d'::`1'::__LINE__Var
PUBLIC	??_C@_0EF@GBGCNEEE@c?3?2users?2nhv90?2projects?2eech?2ap@ ; `string'
PUBLIC	??_C@_01MHEDDDHA@v@				; `string'
PUBLIC	?__LINE__Var@?0??set_local_vec3d@@YGXPAUENTITY@@W4VEC3D_TYPES@@PAUVEC3D@@@Z@4JA ; `set_local_vec3d'::`1'::__LINE__Var
PUBLIC	?__LINE__Var@?0??set_remote_vec3d@@YGXPAUENTITY@@W4VEC3D_TYPES@@PAUVEC3D@@@Z@4JA ; `set_remote_vec3d'::`1'::__LINE__Var
PUBLIC	?__LINE__Var@?0??set_server_vec3d@@YGXPAUENTITY@@W4VEC3D_TYPES@@PAUVEC3D@@@Z@4JA ; `set_server_vec3d'::`1'::__LINE__Var
PUBLIC	??_C@_0CB@CFOCLFOK@assert_client_server_local_fn?5?$CI@ ; `string'
PUBLIC	??_C@_0CC@BNNNEGEG@assert_client_server_remote_fn?5@ ; `string'
PUBLIC	?__LINE__Var@?0??set_client_vec3d@@YGXPAUENTITY@@W4VEC3D_TYPES@@PAUVEC3D@@@Z@4JA ; `set_client_vec3d'::`1'::__LINE__Var
PUBLIC	?__LINE__Var@?0??get_local_vec3d@@YGXPAUENTITY@@W4VEC3D_TYPES@@PAUVEC3D@@@Z@4JA ; `get_local_vec3d'::`1'::__LINE__Var
PUBLIC	?__LINE__Var@?0??get_local_vec3d_ptr@@YGPAUVEC3D@@PAUENTITY@@W4VEC3D_TYPES@@@Z@4JA ; `get_local_vec3d_ptr'::`1'::__LINE__Var
EXTRN	?process_assert@@YGXPBD0H@Z:PROC		; process_assert
EXTRN	?debug_fatal@@YAXPBDZZ:PROC			; debug_fatal
EXTRN	?insert_local_entity_into_parents_child_list@@YGXPAUENTITY@@W4LIST_TYPES@@00@Z:PROC ; insert_local_entity_into_parents_child_list
EXTRN	?delete_local_entity_from_parents_child_list@@YGXPAUENTITY@@W4LIST_TYPES@@@Z:PROC ; delete_local_entity_from_parents_child_list
EXTRN	?transmit_entity_comms_message@@YAXW4ENTITY_COMMS_MESSAGES@@PAUENTITY@@ZZ:PROC ; transmit_entity_comms_message
EXTRN	?assert_client_server_local_fn@@YGHXZ:PROC	; assert_client_server_local_fn
EXTRN	?assert_client_server_remote_fn@@YGHXZ:PROC	; assert_client_server_remote_fn
EXTRN	?get_local_sector_entity@@YGPAUENTITY@@PAUVEC3D@@@Z:PROC ; get_local_sector_entity
EXTRN	?null_entity_pointer_message@@3PBDB:DWORD	; null_entity_pointer_message
EXTRN	?entity_type_database@@3PAUENTITY_TYPE_DATA@@A:BYTE ; entity_type_database
EXTRN	?system_comms_data_flow@@3W4COMMS_DATA_FLOW_TYPES@@A:DWORD ; system_comms_data_flow
EXTRN	?overload_invalid_list_type_message@@3PBDB:DWORD ; overload_invalid_list_type_message
EXTRN	?fn_get_local_entity_parent@@3PAY0CN@P6GPAUENTITY@@PAU1@W4LIST_TYPES@@@ZA:BYTE ; fn_get_local_entity_parent
EXTRN	?vec3d_type_database@@3PAUVEC3D_TYPE_DATA@@A:BYTE ; vec3d_type_database
EXTRN	?debug_fatal_invalid_vec3d_type_message@@3PBDB:DWORD ; debug_fatal_invalid_vec3d_type_message
EXTRN	?fn_set_local_entity_raw_vec3d@@3PAY0BI@P6GXPAUENTITY@@W4VEC3D_TYPES@@PAUVEC3D@@@ZA:BYTE ; fn_set_local_entity_raw_vec3d
EXTRN	?fn_set_local_entity_vec3d@@3PAY0BI@P6GXPAUENTITY@@W4VEC3D_TYPES@@PAUVEC3D@@@ZA:BYTE ; fn_set_local_entity_vec3d
EXTRN	?fn_set_client_server_entity_vec3d@@3PAY1BI@1P6GXPAUENTITY@@W4VEC3D_TYPES@@PAUVEC3D@@@ZA:BYTE ; fn_set_client_server_entity_vec3d
EXTRN	?fn_get_local_entity_vec3d@@3PAY0BI@P6GXPAUENTITY@@W4VEC3D_TYPES@@PAUVEC3D@@@ZA:BYTE ; fn_get_local_entity_vec3d
EXTRN	?fn_get_local_entity_vec3d_ptr@@3PAY0BI@P6GPAUVEC3D@@PAUENTITY@@W4VEC3D_TYPES@@@ZA:BYTE ; fn_get_local_entity_vec3d_ptr
EXTRN	?entities@@3PAUENTITY@@A:DWORD			; entities
;	COMDAT ?__LINE__Var@?0??get_local_vec3d_ptr@@YGPAUVEC3D@@PAUENTITY@@W4VEC3D_TYPES@@@Z@4JA
_DATA	SEGMENT
?__LINE__Var@?0??get_local_vec3d_ptr@@YGPAUVEC3D@@PAUENTITY@@W4VEC3D_TYPES@@@Z@4JA DD 0133H ; `get_local_vec3d_ptr'::`1'::__LINE__Var
_DATA	ENDS
;	COMDAT ?__LINE__Var@?0??get_local_vec3d@@YGXPAUENTITY@@W4VEC3D_TYPES@@PAUVEC3D@@@Z@4JA
_DATA	SEGMENT
?__LINE__Var@?0??get_local_vec3d@@YGXPAUENTITY@@W4VEC3D_TYPES@@PAUVEC3D@@@Z@4JA DD 0f1H ; `get_local_vec3d'::`1'::__LINE__Var
_DATA	ENDS
;	COMDAT ?__LINE__Var@?0??set_client_vec3d@@YGXPAUENTITY@@W4VEC3D_TYPES@@PAUVEC3D@@@Z@4JA
_DATA	SEGMENT
?__LINE__Var@?0??set_client_vec3d@@YGXPAUENTITY@@W4VEC3D_TYPES@@PAUVEC3D@@@Z@4JA DD 0dbH ; `set_client_vec3d'::`1'::__LINE__Var
_DATA	ENDS
;	COMDAT ??_C@_0CC@BNNNEGEG@assert_client_server_remote_fn?5@
CONST	SEGMENT
??_C@_0CC@BNNNEGEG@assert_client_server_remote_fn?5@ DB 'assert_client_se'
	DB	'rver_remote_fn ()', 00H			; `string'
CONST	ENDS
;	COMDAT ??_C@_0CB@CFOCLFOK@assert_client_server_local_fn?5?$CI@
CONST	SEGMENT
??_C@_0CB@CFOCLFOK@assert_client_server_local_fn?5?$CI@ DB 'assert_client'
	DB	'_server_local_fn ()', 00H			; `string'
CONST	ENDS
;	COMDAT ?__LINE__Var@?0??set_server_vec3d@@YGXPAUENTITY@@W4VEC3D_TYPES@@PAUVEC3D@@@Z@4JA
_DATA	SEGMENT
?__LINE__Var@?0??set_server_vec3d@@YGXPAUENTITY@@W4VEC3D_TYPES@@PAUVEC3D@@@Z@4JA DD 0caH ; `set_server_vec3d'::`1'::__LINE__Var
_DATA	ENDS
;	COMDAT ?__LINE__Var@?0??set_remote_vec3d@@YGXPAUENTITY@@W4VEC3D_TYPES@@PAUVEC3D@@@Z@4JA
_DATA	SEGMENT
?__LINE__Var@?0??set_remote_vec3d@@YGXPAUENTITY@@W4VEC3D_TYPES@@PAUVEC3D@@@Z@4JA DD 0b9H ; `set_remote_vec3d'::`1'::__LINE__Var
_DATA	ENDS
;	COMDAT ?__LINE__Var@?0??set_local_vec3d@@YGXPAUENTITY@@W4VEC3D_TYPES@@PAUVEC3D@@@Z@4JA
_DATA	SEGMENT
?__LINE__Var@?0??set_local_vec3d@@YGXPAUENTITY@@W4VEC3D_TYPES@@PAUVEC3D@@@Z@4JA DD 079H ; `set_local_vec3d'::`1'::__LINE__Var
_DATA	ENDS
;	COMDAT ??_C@_01MHEDDDHA@v@
CONST	SEGMENT
??_C@_01MHEDDDHA@v@ DB 'v', 00H				; `string'
CONST	ENDS
;	COMDAT ??_C@_0EF@GBGCNEEE@c?3?2users?2nhv90?2projects?2eech?2ap@
CONST	SEGMENT
??_C@_0EF@GBGCNEEE@c?3?2users?2nhv90?2projects?2eech?2ap@ DB 'c:\users\nh'
	DB	'v90\projects\eech\aphavoc\source\entity\mobile\mb_vec3d.c', 00H ; `string'
CONST	ENDS
;	COMDAT ?__LINE__Var@?0??set_local_raw_vec3d@@YGXPAUENTITY@@W4VEC3D_TYPES@@PAUVEC3D@@@Z@4JA
_DATA	SEGMENT
?__LINE__Var@?0??set_local_raw_vec3d@@YGXPAUENTITY@@W4VEC3D_TYPES@@PAUVEC3D@@@Z@4JA DD 050H ; `set_local_raw_vec3d'::`1'::__LINE__Var
_DATA	ENDS
; Function compile flags: /Odtp /ZI
; File c:\users\nhv90\projects\eech\aphavoc\source\entity\mobile\mb_vec3d.c
;	COMDAT ?get_local_vec3d_ptr@@YGPAUVEC3D@@PAUENTITY@@W4VEC3D_TYPES@@@Z
_TEXT	SEGMENT
tv87 = -76						; size = 4
tv65 = -76						; size = 4
_v$ = -8						; size = 4
_raw$ = -4						; size = 4
_en$ = 8						; size = 4
_type$ = 12						; size = 4
?get_local_vec3d_ptr@@YGPAUVEC3D@@PAUENTITY@@W4VEC3D_TYPES@@@Z PROC ; get_local_vec3d_ptr, COMDAT

; 307  : {

  00000	55		 push	 ebp
  00001	8b ec		 mov	 ebp, esp
  00003	83 ec 4c	 sub	 esp, 76			; 0000004cH
  00006	53		 push	 ebx
  00007	56		 push	 esi
  00008	57		 push	 edi

; 308  : 	mobile
; 309  : 		*raw;
; 310  : 
; 311  : 	vec3d
; 312  : 		*v;
; 313  : 
; 314  : 	raw = (mobile *) get_local_entity_data (en);

  00009	8b 45 08	 mov	 eax, DWORD PTR _en$[ebp]
  0000c	8b 48 04	 mov	 ecx, DWORD PTR [eax+4]
  0000f	89 4d fc	 mov	 DWORD PTR _raw$[ebp], ecx

; 315  : 
; 316  : 	switch (type)

  00012	8b 45 0c	 mov	 eax, DWORD PTR _type$[ebp]
  00015	89 45 b4	 mov	 DWORD PTR tv65[ebp], eax
  00018	8b 4d b4	 mov	 ecx, DWORD PTR tv65[ebp]
  0001b	83 e9 06	 sub	 ecx, 6
  0001e	89 4d b4	 mov	 DWORD PTR tv65[ebp], ecx
  00021	83 7d b4 10	 cmp	 DWORD PTR tv65[ebp], 16	; 00000010H
  00025	77 51		 ja	 SHORT $LN9@get_local_
  00027	8b 55 b4	 mov	 edx, DWORD PTR tv65[ebp]
  0002a	0f b6 82 00 00
	00 00		 movzx	 eax, BYTE PTR $LN13@get_local_[edx]
  00031	ff 24 85 00 00
	00 00		 jmp	 DWORD PTR $LN14@get_local_[eax*4]
$LN4@get_local_:

; 317  : 	{
; 318  : 		////////////////////////////////////////
; 319  : 		case VEC3D_TYPE_MOTION_VECTOR:
; 320  : 		////////////////////////////////////////
; 321  : 		{
; 322  : 			v = &raw->motion_vector;

  00038	8b 45 fc	 mov	 eax, DWORD PTR _raw$[ebp]
  0003b	83 c0 34	 add	 eax, 52			; 00000034H
  0003e	89 45 f8	 mov	 DWORD PTR _v$[ebp], eax

; 323  : 
; 324  : 			break;

  00041	e9 a4 00 00 00	 jmp	 $LN2@get_local_
$LN5@get_local_:

; 325  : 		}
; 326  : 		////////////////////////////////////////
; 327  : 		case VEC3D_TYPE_POSITION:
; 328  : 		////////////////////////////////////////
; 329  : 		{
; 330  : 			v = &raw->position;

  00046	8b 45 fc	 mov	 eax, DWORD PTR _raw$[ebp]
  00049	83 c0 04	 add	 eax, 4
  0004c	89 45 f8	 mov	 DWORD PTR _v$[ebp], eax

; 331  : 
; 332  : 			break;

  0004f	e9 96 00 00 00	 jmp	 $LN2@get_local_
$LN6@get_local_:

; 333  : 		}
; 334  : 		////////////////////////////////////////
; 335  : 		case VEC3D_TYPE_XV:
; 336  : 		////////////////////////////////////////
; 337  : 		{
; 338  : 			v = &raw->xv;

  00054	8b 45 fc	 mov	 eax, DWORD PTR _raw$[ebp]
  00057	83 c0 10	 add	 eax, 16			; 00000010H
  0005a	89 45 f8	 mov	 DWORD PTR _v$[ebp], eax

; 339  : 
; 340  : 			break;

  0005d	e9 88 00 00 00	 jmp	 $LN2@get_local_
$LN7@get_local_:

; 341  : 		}
; 342  : 		////////////////////////////////////////
; 343  : 		case VEC3D_TYPE_YV:
; 344  : 		////////////////////////////////////////
; 345  : 		{
; 346  : 			v = &raw->yv;

  00062	8b 45 fc	 mov	 eax, DWORD PTR _raw$[ebp]
  00065	83 c0 1c	 add	 eax, 28			; 0000001cH
  00068	89 45 f8	 mov	 DWORD PTR _v$[ebp], eax

; 347  : 
; 348  : 			break;

  0006b	eb 7d		 jmp	 SHORT $LN2@get_local_
$LN8@get_local_:

; 349  : 		}
; 350  : 		////////////////////////////////////////
; 351  : 		case VEC3D_TYPE_ZV:
; 352  : 		////////////////////////////////////////
; 353  : 		{
; 354  : 			v = &raw->zv;

  0006d	8b 45 fc	 mov	 eax, DWORD PTR _raw$[ebp]
  00070	83 c0 28	 add	 eax, 40			; 00000028H
  00073	89 45 f8	 mov	 DWORD PTR _v$[ebp], eax

; 355  : 
; 356  : 			break;

  00076	eb 72		 jmp	 SHORT $LN2@get_local_
$LN9@get_local_:

; 357  : 		}
; 358  : 		////////////////////////////////////////
; 359  : 		default:
; 360  : 		////////////////////////////////////////
; 361  : 		{
; 362  : 			debug_fatal_invalid_vec3d_type (en, type);

  00078	83 7d 08 00	 cmp	 DWORD PTR _en$[ebp], 0
  0007c	74 0a		 je	 SHORT $LN11@get_local_
  0007e	8b 45 08	 mov	 eax, DWORD PTR _en$[ebp]
  00081	8b 08		 mov	 ecx, DWORD PTR [eax]
  00083	89 4d b4	 mov	 DWORD PTR tv87[ebp], ecx
  00086	eb 21		 jmp	 SHORT $LN12@get_local_
$LN11@get_local_:
  00088	8b 15 00 00 00
	00		 mov	 edx, DWORD PTR ?__LINE__Var@?0??get_local_vec3d_ptr@@YGPAUVEC3D@@PAUENTITY@@W4VEC3D_TYPES@@@Z@4JA
  0008e	83 c2 37	 add	 edx, 55			; 00000037H
  00091	52		 push	 edx
  00092	68 00 00 00 00	 push	 OFFSET ??_C@_0EF@GBGCNEEE@c?3?2users?2nhv90?2projects?2eech?2ap@
  00097	a1 00 00 00 00	 mov	 eax, DWORD PTR ?null_entity_pointer_message@@3PBDB ; null_entity_pointer_message
  0009c	50		 push	 eax
  0009d	e8 00 00 00 00	 call	 ?process_assert@@YGXPBD0H@Z ; process_assert
  000a2	c7 45 b4 00 00
	00 00		 mov	 DWORD PTR tv87[ebp], 0
$LN12@get_local_:
  000a9	8b 0d 00 00 00
	00		 mov	 ecx, DWORD PTR ?__LINE__Var@?0??get_local_vec3d_ptr@@YGPAUVEC3D@@PAUENTITY@@W4VEC3D_TYPES@@@Z@4JA
  000af	83 c1 37	 add	 ecx, 55			; 00000037H
  000b2	51		 push	 ecx
  000b3	68 00 00 00 00	 push	 OFFSET ??_C@_0EF@GBGCNEEE@c?3?2users?2nhv90?2projects?2eech?2ap@
  000b8	6b 55 0c 0c	 imul	 edx, DWORD PTR _type$[ebp], 12
  000bc	8b 82 00 00 00
	00		 mov	 eax, DWORD PTR ?vec3d_type_database@@3PAUVEC3D_TYPE_DATA@@A[edx]
  000c2	50		 push	 eax
  000c3	8b 4d 08	 mov	 ecx, DWORD PTR _en$[ebp]
  000c6	2b 0d 00 00 00
	00		 sub	 ecx, DWORD PTR ?entities@@3PAUENTITY@@A ; entities
  000cc	c1 f9 04	 sar	 ecx, 4
  000cf	51		 push	 ecx
  000d0	6b 55 b4 0c	 imul	 edx, DWORD PTR tv87[ebp], 12
  000d4	8b 82 00 00 00
	00		 mov	 eax, DWORD PTR ?entity_type_database@@3PAUENTITY_TYPE_DATA@@A[edx]
  000da	50		 push	 eax
  000db	8b 0d 00 00 00
	00		 mov	 ecx, DWORD PTR ?debug_fatal_invalid_vec3d_type_message@@3PBDB ; debug_fatal_invalid_vec3d_type_message
  000e1	51		 push	 ecx
  000e2	e8 00 00 00 00	 call	 ?debug_fatal@@YAXPBDZZ	; debug_fatal
  000e7	83 c4 18	 add	 esp, 24			; 00000018H
$LN2@get_local_:

; 363  : 
; 364  : 			break;
; 365  : 		}
; 366  : 	}
; 367  : 
; 368  : 	return (v);

  000ea	8b 45 f8	 mov	 eax, DWORD PTR _v$[ebp]

; 369  : }

  000ed	5f		 pop	 edi
  000ee	5e		 pop	 esi
  000ef	5b		 pop	 ebx
  000f0	8b e5		 mov	 esp, ebp
  000f2	5d		 pop	 ebp
  000f3	c2 08 00	 ret	 8
  000f6	66 90		 npad	 2
$LN14@get_local_:
  000f8	00 00 00 00	 DD	 $LN4@get_local_
  000fc	00 00 00 00	 DD	 $LN5@get_local_
  00100	00 00 00 00	 DD	 $LN6@get_local_
  00104	00 00 00 00	 DD	 $LN7@get_local_
  00108	00 00 00 00	 DD	 $LN8@get_local_
  0010c	00 00 00 00	 DD	 $LN9@get_local_
$LN13@get_local_:
  00110	00		 DB	 0
  00111	05		 DB	 5
  00112	01		 DB	 1
  00113	05		 DB	 5
  00114	05		 DB	 5
  00115	05		 DB	 5
  00116	05		 DB	 5
  00117	05		 DB	 5
  00118	05		 DB	 5
  00119	05		 DB	 5
  0011a	05		 DB	 5
  0011b	05		 DB	 5
  0011c	05		 DB	 5
  0011d	05		 DB	 5
  0011e	02		 DB	 2
  0011f	03		 DB	 3
  00120	04		 DB	 4
?get_local_vec3d_ptr@@YGPAUVEC3D@@PAUENTITY@@W4VEC3D_TYPES@@@Z ENDP ; get_local_vec3d_ptr
_TEXT	ENDS
; Function compile flags: /Odtp /ZI
; File c:\users\nhv90\projects\eech\aphavoc\source\entity\mobile\mb_vec3d.c
;	COMDAT ?get_local_vec3d@@YGXPAUENTITY@@W4VEC3D_TYPES@@PAUVEC3D@@@Z
_TEXT	SEGMENT
tv129 = -72						; size = 4
tv70 = -72						; size = 4
_raw$ = -4						; size = 4
_en$ = 8						; size = 4
_type$ = 12						; size = 4
_v$ = 16						; size = 4
?get_local_vec3d@@YGXPAUENTITY@@W4VEC3D_TYPES@@PAUVEC3D@@@Z PROC ; get_local_vec3d, COMDAT

; 241  : {

  00000	55		 push	 ebp
  00001	8b ec		 mov	 ebp, esp
  00003	83 ec 48	 sub	 esp, 72			; 00000048H
  00006	53		 push	 ebx
  00007	56		 push	 esi
  00008	57		 push	 edi

; 242  : 	mobile
; 243  : 		*raw;
; 244  : 
; 245  : 	ASSERT (v);

  00009	83 7d 10 00	 cmp	 DWORD PTR _v$[ebp], 0
  0000d	75 18		 jne	 SHORT $LN4@get_local_
  0000f	a1 00 00 00 00	 mov	 eax, DWORD PTR ?__LINE__Var@?0??get_local_vec3d@@YGXPAUENTITY@@W4VEC3D_TYPES@@PAUVEC3D@@@Z@4JA
  00014	83 c0 04	 add	 eax, 4
  00017	50		 push	 eax
  00018	68 00 00 00 00	 push	 OFFSET ??_C@_0EF@GBGCNEEE@c?3?2users?2nhv90?2projects?2eech?2ap@
  0001d	68 00 00 00 00	 push	 OFFSET ??_C@_01MHEDDDHA@v@
  00022	e8 00 00 00 00	 call	 ?process_assert@@YGXPBD0H@Z ; process_assert
$LN4@get_local_:

; 246  : 
; 247  : 	raw = (mobile *) get_local_entity_data (en);

  00027	8b 45 08	 mov	 eax, DWORD PTR _en$[ebp]
  0002a	8b 48 04	 mov	 ecx, DWORD PTR [eax+4]
  0002d	89 4d fc	 mov	 DWORD PTR _raw$[ebp], ecx

; 248  : 
; 249  : 	switch (type)

  00030	8b 45 0c	 mov	 eax, DWORD PTR _type$[ebp]
  00033	89 45 b8	 mov	 DWORD PTR tv70[ebp], eax
  00036	8b 4d b8	 mov	 ecx, DWORD PTR tv70[ebp]
  00039	83 e9 06	 sub	 ecx, 6
  0003c	89 4d b8	 mov	 DWORD PTR tv70[ebp], ecx
  0003f	83 7d b8 10	 cmp	 DWORD PTR tv70[ebp], 16	; 00000010H
  00043	0f 87 a4 00 00
	00		 ja	 $LN10@get_local_
  00049	8b 55 b8	 mov	 edx, DWORD PTR tv70[ebp]
  0004c	0f b6 82 00 00
	00 00		 movzx	 eax, BYTE PTR $LN14@get_local_[edx]
  00053	ff 24 85 00 00
	00 00		 jmp	 DWORD PTR $LN15@get_local_[eax*4]
$LN5@get_local_:

; 250  : 	{
; 251  : 		////////////////////////////////////////
; 252  : 		case VEC3D_TYPE_MOTION_VECTOR:
; 253  : 		////////////////////////////////////////
; 254  : 		{
; 255  : 			*v = raw->motion_vector;

  0005a	8b 45 fc	 mov	 eax, DWORD PTR _raw$[ebp]
  0005d	83 c0 34	 add	 eax, 52			; 00000034H
  00060	8b 4d 10	 mov	 ecx, DWORD PTR _v$[ebp]
  00063	8b 10		 mov	 edx, DWORD PTR [eax]
  00065	89 11		 mov	 DWORD PTR [ecx], edx
  00067	8b 50 04	 mov	 edx, DWORD PTR [eax+4]
  0006a	89 51 04	 mov	 DWORD PTR [ecx+4], edx
  0006d	8b 40 08	 mov	 eax, DWORD PTR [eax+8]
  00070	89 41 08	 mov	 DWORD PTR [ecx+8], eax

; 256  : 
; 257  : 			break;

  00073	e9 e7 00 00 00	 jmp	 $LN1@get_local_
$LN6@get_local_:

; 258  : 		}
; 259  : 		////////////////////////////////////////
; 260  : 		case VEC3D_TYPE_POSITION:
; 261  : 		////////////////////////////////////////
; 262  : 		{
; 263  : 			*v = raw->position;

  00078	8b 45 fc	 mov	 eax, DWORD PTR _raw$[ebp]
  0007b	83 c0 04	 add	 eax, 4
  0007e	8b 4d 10	 mov	 ecx, DWORD PTR _v$[ebp]
  00081	8b 10		 mov	 edx, DWORD PTR [eax]
  00083	89 11		 mov	 DWORD PTR [ecx], edx
  00085	8b 50 04	 mov	 edx, DWORD PTR [eax+4]
  00088	89 51 04	 mov	 DWORD PTR [ecx+4], edx
  0008b	8b 40 08	 mov	 eax, DWORD PTR [eax+8]
  0008e	89 41 08	 mov	 DWORD PTR [ecx+8], eax

; 264  : 
; 265  : 			break;

  00091	e9 c9 00 00 00	 jmp	 $LN1@get_local_
$LN7@get_local_:

; 266  : 		}
; 267  : 		////////////////////////////////////////
; 268  : 		case VEC3D_TYPE_XV:
; 269  : 		////////////////////////////////////////
; 270  : 		{
; 271  : 			*v = raw->xv;

  00096	8b 45 fc	 mov	 eax, DWORD PTR _raw$[ebp]
  00099	83 c0 10	 add	 eax, 16			; 00000010H
  0009c	8b 4d 10	 mov	 ecx, DWORD PTR _v$[ebp]
  0009f	8b 10		 mov	 edx, DWORD PTR [eax]
  000a1	89 11		 mov	 DWORD PTR [ecx], edx
  000a3	8b 50 04	 mov	 edx, DWORD PTR [eax+4]
  000a6	89 51 04	 mov	 DWORD PTR [ecx+4], edx
  000a9	8b 40 08	 mov	 eax, DWORD PTR [eax+8]
  000ac	89 41 08	 mov	 DWORD PTR [ecx+8], eax

; 272  : 
; 273  : 			break;

  000af	e9 ab 00 00 00	 jmp	 $LN1@get_local_
$LN8@get_local_:

; 274  : 		}
; 275  : 		////////////////////////////////////////
; 276  : 		case VEC3D_TYPE_YV:
; 277  : 		////////////////////////////////////////
; 278  : 		{
; 279  : 			*v = raw->yv;

  000b4	8b 45 fc	 mov	 eax, DWORD PTR _raw$[ebp]
  000b7	83 c0 1c	 add	 eax, 28			; 0000001cH
  000ba	8b 4d 10	 mov	 ecx, DWORD PTR _v$[ebp]
  000bd	8b 10		 mov	 edx, DWORD PTR [eax]
  000bf	89 11		 mov	 DWORD PTR [ecx], edx
  000c1	8b 50 04	 mov	 edx, DWORD PTR [eax+4]
  000c4	89 51 04	 mov	 DWORD PTR [ecx+4], edx
  000c7	8b 40 08	 mov	 eax, DWORD PTR [eax+8]
  000ca	89 41 08	 mov	 DWORD PTR [ecx+8], eax

; 280  : 
; 281  : 			break;

  000cd	e9 8d 00 00 00	 jmp	 $LN1@get_local_
$LN9@get_local_:

; 282  : 		}
; 283  : 		////////////////////////////////////////
; 284  : 		case VEC3D_TYPE_ZV:
; 285  : 		////////////////////////////////////////
; 286  : 		{
; 287  : 			*v = raw->zv;

  000d2	8b 45 fc	 mov	 eax, DWORD PTR _raw$[ebp]
  000d5	83 c0 28	 add	 eax, 40			; 00000028H
  000d8	8b 4d 10	 mov	 ecx, DWORD PTR _v$[ebp]
  000db	8b 10		 mov	 edx, DWORD PTR [eax]
  000dd	89 11		 mov	 DWORD PTR [ecx], edx
  000df	8b 50 04	 mov	 edx, DWORD PTR [eax+4]
  000e2	89 51 04	 mov	 DWORD PTR [ecx+4], edx
  000e5	8b 40 08	 mov	 eax, DWORD PTR [eax+8]
  000e8	89 41 08	 mov	 DWORD PTR [ecx+8], eax

; 288  : 
; 289  : 			break;

  000eb	eb 72		 jmp	 SHORT $LN1@get_local_
$LN10@get_local_:

; 290  : 		}
; 291  : 		////////////////////////////////////////
; 292  : 		default:
; 293  : 		////////////////////////////////////////
; 294  : 		{
; 295  : 			debug_fatal_invalid_vec3d_type (en, type);

  000ed	83 7d 08 00	 cmp	 DWORD PTR _en$[ebp], 0
  000f1	74 0a		 je	 SHORT $LN12@get_local_
  000f3	8b 45 08	 mov	 eax, DWORD PTR _en$[ebp]
  000f6	8b 08		 mov	 ecx, DWORD PTR [eax]
  000f8	89 4d b8	 mov	 DWORD PTR tv129[ebp], ecx
  000fb	eb 21		 jmp	 SHORT $LN13@get_local_
$LN12@get_local_:
  000fd	8b 15 00 00 00
	00		 mov	 edx, DWORD PTR ?__LINE__Var@?0??get_local_vec3d@@YGXPAUENTITY@@W4VEC3D_TYPES@@PAUVEC3D@@@Z@4JA
  00103	83 c2 36	 add	 edx, 54			; 00000036H
  00106	52		 push	 edx
  00107	68 00 00 00 00	 push	 OFFSET ??_C@_0EF@GBGCNEEE@c?3?2users?2nhv90?2projects?2eech?2ap@
  0010c	a1 00 00 00 00	 mov	 eax, DWORD PTR ?null_entity_pointer_message@@3PBDB ; null_entity_pointer_message
  00111	50		 push	 eax
  00112	e8 00 00 00 00	 call	 ?process_assert@@YGXPBD0H@Z ; process_assert
  00117	c7 45 b8 00 00
	00 00		 mov	 DWORD PTR tv129[ebp], 0
$LN13@get_local_:
  0011e	8b 0d 00 00 00
	00		 mov	 ecx, DWORD PTR ?__LINE__Var@?0??get_local_vec3d@@YGXPAUENTITY@@W4VEC3D_TYPES@@PAUVEC3D@@@Z@4JA
  00124	83 c1 36	 add	 ecx, 54			; 00000036H
  00127	51		 push	 ecx
  00128	68 00 00 00 00	 push	 OFFSET ??_C@_0EF@GBGCNEEE@c?3?2users?2nhv90?2projects?2eech?2ap@
  0012d	6b 55 0c 0c	 imul	 edx, DWORD PTR _type$[ebp], 12
  00131	8b 82 00 00 00
	00		 mov	 eax, DWORD PTR ?vec3d_type_database@@3PAUVEC3D_TYPE_DATA@@A[edx]
  00137	50		 push	 eax
  00138	8b 4d 08	 mov	 ecx, DWORD PTR _en$[ebp]
  0013b	2b 0d 00 00 00
	00		 sub	 ecx, DWORD PTR ?entities@@3PAUENTITY@@A ; entities
  00141	c1 f9 04	 sar	 ecx, 4
  00144	51		 push	 ecx
  00145	6b 55 b8 0c	 imul	 edx, DWORD PTR tv129[ebp], 12
  00149	8b 82 00 00 00
	00		 mov	 eax, DWORD PTR ?entity_type_database@@3PAUENTITY_TYPE_DATA@@A[edx]
  0014f	50		 push	 eax
  00150	8b 0d 00 00 00
	00		 mov	 ecx, DWORD PTR ?debug_fatal_invalid_vec3d_type_message@@3PBDB ; debug_fatal_invalid_vec3d_type_message
  00156	51		 push	 ecx
  00157	e8 00 00 00 00	 call	 ?debug_fatal@@YAXPBDZZ	; debug_fatal
  0015c	83 c4 18	 add	 esp, 24			; 00000018H
$LN1@get_local_:

; 296  : 
; 297  : 			break;
; 298  : 		}
; 299  : 	}
; 300  : }

  0015f	5f		 pop	 edi
  00160	5e		 pop	 esi
  00161	5b		 pop	 ebx
  00162	8b e5		 mov	 esp, ebp
  00164	5d		 pop	 ebp
  00165	c2 0c 00	 ret	 12			; 0000000cH
$LN15@get_local_:
  00168	00 00 00 00	 DD	 $LN5@get_local_
  0016c	00 00 00 00	 DD	 $LN6@get_local_
  00170	00 00 00 00	 DD	 $LN7@get_local_
  00174	00 00 00 00	 DD	 $LN8@get_local_
  00178	00 00 00 00	 DD	 $LN9@get_local_
  0017c	00 00 00 00	 DD	 $LN10@get_local_
$LN14@get_local_:
  00180	00		 DB	 0
  00181	05		 DB	 5
  00182	01		 DB	 1
  00183	05		 DB	 5
  00184	05		 DB	 5
  00185	05		 DB	 5
  00186	05		 DB	 5
  00187	05		 DB	 5
  00188	05		 DB	 5
  00189	05		 DB	 5
  0018a	05		 DB	 5
  0018b	05		 DB	 5
  0018c	05		 DB	 5
  0018d	05		 DB	 5
  0018e	02		 DB	 2
  0018f	03		 DB	 3
  00190	04		 DB	 4
?get_local_vec3d@@YGXPAUENTITY@@W4VEC3D_TYPES@@PAUVEC3D@@@Z ENDP ; get_local_vec3d
_TEXT	ENDS
; Function compile flags: /Odtp /ZI
; File c:\users\nhv90\projects\eech\aphavoc\source\entity\mobile\mb_vec3d.c
;	COMDAT ?set_client_vec3d@@YGXPAUENTITY@@W4VEC3D_TYPES@@PAUVEC3D@@@Z
_TEXT	SEGMENT
_en$ = 8						; size = 4
_type$ = 12						; size = 4
_v$ = 16						; size = 4
?set_client_vec3d@@YGXPAUENTITY@@W4VEC3D_TYPES@@PAUVEC3D@@@Z PROC ; set_client_vec3d, COMDAT

; 219  : {

  00000	55		 push	 ebp
  00001	8b ec		 mov	 ebp, esp
  00003	83 ec 40	 sub	 esp, 64			; 00000040H
  00006	53		 push	 ebx
  00007	56		 push	 esi
  00008	57		 push	 edi

; 220  : 	ASSERT (v);

  00009	83 7d 10 00	 cmp	 DWORD PTR _v$[ebp], 0
  0000d	75 18		 jne	 SHORT $LN2@set_client
  0000f	a1 00 00 00 00	 mov	 eax, DWORD PTR ?__LINE__Var@?0??set_client_vec3d@@YGXPAUENTITY@@W4VEC3D_TYPES@@PAUVEC3D@@@Z@4JA
  00014	83 c0 01	 add	 eax, 1
  00017	50		 push	 eax
  00018	68 00 00 00 00	 push	 OFFSET ??_C@_0EF@GBGCNEEE@c?3?2users?2nhv90?2projects?2eech?2ap@
  0001d	68 00 00 00 00	 push	 OFFSET ??_C@_01MHEDDDHA@v@
  00022	e8 00 00 00 00	 call	 ?process_assert@@YGXPBD0H@Z ; process_assert
$LN2@set_client:

; 221  : 
; 222  : 	if (get_comms_data_flow () == COMMS_DATA_FLOW_TX)

  00027	83 3d 00 00 00
	00 00		 cmp	 DWORD PTR ?system_comms_data_flow@@3W4COMMS_DATA_FLOW_TYPES@@A, 0 ; system_comms_data_flow
  0002e	75 34		 jne	 SHORT $LN3@set_client

; 223  : 	{
; 224  : 		validate_client_server_remote_fn ();

  00030	e8 00 00 00 00	 call	 ?assert_client_server_remote_fn@@YGHXZ ; assert_client_server_remote_fn
  00035	85 c0		 test	 eax, eax
  00037	75 18		 jne	 SHORT $LN5@set_client
  00039	a1 00 00 00 00	 mov	 eax, DWORD PTR ?__LINE__Var@?0??set_client_vec3d@@YGXPAUENTITY@@W4VEC3D_TYPES@@PAUVEC3D@@@Z@4JA
  0003e	83 c0 05	 add	 eax, 5
  00041	50		 push	 eax
  00042	68 00 00 00 00	 push	 OFFSET ??_C@_0EF@GBGCNEEE@c?3?2users?2nhv90?2projects?2eech?2ap@
  00047	68 00 00 00 00	 push	 OFFSET ??_C@_0CC@BNNNEGEG@assert_client_server_remote_fn?5@
  0004c	e8 00 00 00 00	 call	 ?process_assert@@YGXPBD0H@Z ; process_assert
$LN5@set_client:

; 225  : 
; 226  : 		set_remote_vec3d (en, type, v);

  00051	8b 45 10	 mov	 eax, DWORD PTR _v$[ebp]
  00054	50		 push	 eax
  00055	8b 4d 0c	 mov	 ecx, DWORD PTR _type$[ebp]
  00058	51		 push	 ecx
  00059	8b 55 08	 mov	 edx, DWORD PTR _en$[ebp]
  0005c	52		 push	 edx
  0005d	e8 00 00 00 00	 call	 ?set_remote_vec3d@@YGXPAUENTITY@@W4VEC3D_TYPES@@PAUVEC3D@@@Z ; set_remote_vec3d

; 227  : 	}
; 228  : 	else

  00062	eb 32		 jmp	 SHORT $LN1@set_client
$LN3@set_client:

; 229  : 	{
; 230  : 		validate_client_server_local_fn ();

  00064	e8 00 00 00 00	 call	 ?assert_client_server_local_fn@@YGHXZ ; assert_client_server_local_fn
  00069	85 c0		 test	 eax, eax
  0006b	75 18		 jne	 SHORT $LN6@set_client
  0006d	a1 00 00 00 00	 mov	 eax, DWORD PTR ?__LINE__Var@?0??set_client_vec3d@@YGXPAUENTITY@@W4VEC3D_TYPES@@PAUVEC3D@@@Z@4JA
  00072	83 c0 0b	 add	 eax, 11			; 0000000bH
  00075	50		 push	 eax
  00076	68 00 00 00 00	 push	 OFFSET ??_C@_0EF@GBGCNEEE@c?3?2users?2nhv90?2projects?2eech?2ap@
  0007b	68 00 00 00 00	 push	 OFFSET ??_C@_0CB@CFOCLFOK@assert_client_server_local_fn?5?$CI@
  00080	e8 00 00 00 00	 call	 ?process_assert@@YGXPBD0H@Z ; process_assert
$LN6@set_client:

; 231  : 
; 232  : 		set_local_vec3d (en, type, v);

  00085	8b 45 10	 mov	 eax, DWORD PTR _v$[ebp]
  00088	50		 push	 eax
  00089	8b 4d 0c	 mov	 ecx, DWORD PTR _type$[ebp]
  0008c	51		 push	 ecx
  0008d	8b 55 08	 mov	 edx, DWORD PTR _en$[ebp]
  00090	52		 push	 edx
  00091	e8 00 00 00 00	 call	 ?set_local_vec3d@@YGXPAUENTITY@@W4VEC3D_TYPES@@PAUVEC3D@@@Z ; set_local_vec3d
$LN1@set_client:

; 233  : 	}
; 234  : }

  00096	5f		 pop	 edi
  00097	5e		 pop	 esi
  00098	5b		 pop	 ebx
  00099	8b e5		 mov	 esp, ebp
  0009b	5d		 pop	 ebp
  0009c	c2 0c 00	 ret	 12			; 0000000cH
?set_client_vec3d@@YGXPAUENTITY@@W4VEC3D_TYPES@@PAUVEC3D@@@Z ENDP ; set_client_vec3d
_TEXT	ENDS
; Function compile flags: /Odtp /ZI
; File c:\users\nhv90\projects\eech\aphavoc\source\entity\mobile\mb_vec3d.c
;	COMDAT ?set_server_vec3d@@YGXPAUENTITY@@W4VEC3D_TYPES@@PAUVEC3D@@@Z
_TEXT	SEGMENT
_en$ = 8						; size = 4
_type$ = 12						; size = 4
_v$ = 16						; size = 4
?set_server_vec3d@@YGXPAUENTITY@@W4VEC3D_TYPES@@PAUVEC3D@@@Z PROC ; set_server_vec3d, COMDAT

; 202  : {

  00000	55		 push	 ebp
  00001	8b ec		 mov	 ebp, esp
  00003	83 ec 40	 sub	 esp, 64			; 00000040H
  00006	53		 push	 ebx
  00007	56		 push	 esi
  00008	57		 push	 edi

; 203  : 	ASSERT (v);

  00009	83 7d 10 00	 cmp	 DWORD PTR _v$[ebp], 0
  0000d	75 18		 jne	 SHORT $LN2@set_server
  0000f	a1 00 00 00 00	 mov	 eax, DWORD PTR ?__LINE__Var@?0??set_server_vec3d@@YGXPAUENTITY@@W4VEC3D_TYPES@@PAUVEC3D@@@Z@4JA
  00014	83 c0 01	 add	 eax, 1
  00017	50		 push	 eax
  00018	68 00 00 00 00	 push	 OFFSET ??_C@_0EF@GBGCNEEE@c?3?2users?2nhv90?2projects?2eech?2ap@
  0001d	68 00 00 00 00	 push	 OFFSET ??_C@_01MHEDDDHA@v@
  00022	e8 00 00 00 00	 call	 ?process_assert@@YGXPBD0H@Z ; process_assert
$LN2@set_server:

; 204  : 
; 205  : 	validate_client_server_local_fn ();

  00027	e8 00 00 00 00	 call	 ?assert_client_server_local_fn@@YGHXZ ; assert_client_server_local_fn
  0002c	85 c0		 test	 eax, eax
  0002e	75 18		 jne	 SHORT $LN3@set_server
  00030	a1 00 00 00 00	 mov	 eax, DWORD PTR ?__LINE__Var@?0??set_server_vec3d@@YGXPAUENTITY@@W4VEC3D_TYPES@@PAUVEC3D@@@Z@4JA
  00035	83 c0 03	 add	 eax, 3
  00038	50		 push	 eax
  00039	68 00 00 00 00	 push	 OFFSET ??_C@_0EF@GBGCNEEE@c?3?2users?2nhv90?2projects?2eech?2ap@
  0003e	68 00 00 00 00	 push	 OFFSET ??_C@_0CB@CFOCLFOK@assert_client_server_local_fn?5?$CI@
  00043	e8 00 00 00 00	 call	 ?process_assert@@YGXPBD0H@Z ; process_assert
$LN3@set_server:

; 206  : 
; 207  : 	set_local_vec3d (en, type, v);

  00048	8b 45 10	 mov	 eax, DWORD PTR _v$[ebp]
  0004b	50		 push	 eax
  0004c	8b 4d 0c	 mov	 ecx, DWORD PTR _type$[ebp]
  0004f	51		 push	 ecx
  00050	8b 55 08	 mov	 edx, DWORD PTR _en$[ebp]
  00053	52		 push	 edx
  00054	e8 00 00 00 00	 call	 ?set_local_vec3d@@YGXPAUENTITY@@W4VEC3D_TYPES@@PAUVEC3D@@@Z ; set_local_vec3d

; 208  : 
; 209  : 	validate_client_server_remote_fn ();

  00059	e8 00 00 00 00	 call	 ?assert_client_server_remote_fn@@YGHXZ ; assert_client_server_remote_fn
  0005e	85 c0		 test	 eax, eax
  00060	75 18		 jne	 SHORT $LN4@set_server
  00062	a1 00 00 00 00	 mov	 eax, DWORD PTR ?__LINE__Var@?0??set_server_vec3d@@YGXPAUENTITY@@W4VEC3D_TYPES@@PAUVEC3D@@@Z@4JA
  00067	83 c0 07	 add	 eax, 7
  0006a	50		 push	 eax
  0006b	68 00 00 00 00	 push	 OFFSET ??_C@_0EF@GBGCNEEE@c?3?2users?2nhv90?2projects?2eech?2ap@
  00070	68 00 00 00 00	 push	 OFFSET ??_C@_0CC@BNNNEGEG@assert_client_server_remote_fn?5@
  00075	e8 00 00 00 00	 call	 ?process_assert@@YGXPBD0H@Z ; process_assert
$LN4@set_server:

; 210  : 
; 211  : 	set_remote_vec3d (en, type, v);

  0007a	8b 45 10	 mov	 eax, DWORD PTR _v$[ebp]
  0007d	50		 push	 eax
  0007e	8b 4d 0c	 mov	 ecx, DWORD PTR _type$[ebp]
  00081	51		 push	 ecx
  00082	8b 55 08	 mov	 edx, DWORD PTR _en$[ebp]
  00085	52		 push	 edx
  00086	e8 00 00 00 00	 call	 ?set_remote_vec3d@@YGXPAUENTITY@@W4VEC3D_TYPES@@PAUVEC3D@@@Z ; set_remote_vec3d

; 212  : }

  0008b	5f		 pop	 edi
  0008c	5e		 pop	 esi
  0008d	5b		 pop	 ebx
  0008e	8b e5		 mov	 esp, ebp
  00090	5d		 pop	 ebp
  00091	c2 0c 00	 ret	 12			; 0000000cH
?set_server_vec3d@@YGXPAUENTITY@@W4VEC3D_TYPES@@PAUVEC3D@@@Z ENDP ; set_server_vec3d
_TEXT	ENDS
; Function compile flags: /Odtp /ZI
; File c:\users\nhv90\projects\eech\aphavoc\source\entity\mobile\mb_vec3d.c
;	COMDAT ?set_remote_vec3d@@YGXPAUENTITY@@W4VEC3D_TYPES@@PAUVEC3D@@@Z
_TEXT	SEGMENT
_en$ = 8						; size = 4
_type$ = 12						; size = 4
_v$ = 16						; size = 4
?set_remote_vec3d@@YGXPAUENTITY@@W4VEC3D_TYPES@@PAUVEC3D@@@Z PROC ; set_remote_vec3d, COMDAT

; 185  : {

  00000	55		 push	 ebp
  00001	8b ec		 mov	 ebp, esp
  00003	83 ec 40	 sub	 esp, 64			; 00000040H
  00006	53		 push	 ebx
  00007	56		 push	 esi
  00008	57		 push	 edi

; 186  : 	ASSERT (v);

  00009	83 7d 10 00	 cmp	 DWORD PTR _v$[ebp], 0
  0000d	75 18		 jne	 SHORT $LN2@set_remote
  0000f	a1 00 00 00 00	 mov	 eax, DWORD PTR ?__LINE__Var@?0??set_remote_vec3d@@YGXPAUENTITY@@W4VEC3D_TYPES@@PAUVEC3D@@@Z@4JA
  00014	83 c0 01	 add	 eax, 1
  00017	50		 push	 eax
  00018	68 00 00 00 00	 push	 OFFSET ??_C@_0EF@GBGCNEEE@c?3?2users?2nhv90?2projects?2eech?2ap@
  0001d	68 00 00 00 00	 push	 OFFSET ??_C@_01MHEDDDHA@v@
  00022	e8 00 00 00 00	 call	 ?process_assert@@YGXPBD0H@Z ; process_assert
$LN2@set_remote:

; 187  : 
; 188  : 	#if DEBUG_MODULE
; 189  : 
; 190  : 	debug_log_entity_args (ENTITY_DEBUG_REMOTE, ENTITY_DEBUG_VEC3D, en, type, v);
; 191  : 
; 192  : 	#endif
; 193  : 
; 194  : 	transmit_entity_comms_message (ENTITY_COMMS_VEC3D, en, type, v);

  00027	8b 45 10	 mov	 eax, DWORD PTR _v$[ebp]
  0002a	50		 push	 eax
  0002b	8b 4d 0c	 mov	 ecx, DWORD PTR _type$[ebp]
  0002e	51		 push	 ecx
  0002f	8b 55 08	 mov	 edx, DWORD PTR _en$[ebp]
  00032	52		 push	 edx
  00033	6a 42		 push	 66			; 00000042H
  00035	e8 00 00 00 00	 call	 ?transmit_entity_comms_message@@YAXW4ENTITY_COMMS_MESSAGES@@PAUENTITY@@ZZ ; transmit_entity_comms_message
  0003a	83 c4 10	 add	 esp, 16			; 00000010H

; 195  : }

  0003d	5f		 pop	 edi
  0003e	5e		 pop	 esi
  0003f	5b		 pop	 ebx
  00040	8b e5		 mov	 esp, ebp
  00042	5d		 pop	 ebp
  00043	c2 0c 00	 ret	 12			; 0000000cH
?set_remote_vec3d@@YGXPAUENTITY@@W4VEC3D_TYPES@@PAUVEC3D@@@Z ENDP ; set_remote_vec3d
_TEXT	ENDS
; Function compile flags: /Odtp /ZI
; File c:\users\nhv90\projects\eech\aphavoc\source\entity\mobile\mb_vec3d.c
;	COMDAT ?set_local_vec3d@@YGXPAUENTITY@@W4VEC3D_TYPES@@PAUVEC3D@@@Z
_TEXT	SEGMENT
tv89 = -84						; size = 4
tv152 = -80						; size = 4
tv81 = -80						; size = 4
tv70 = -80						; size = 4
_new_sector$1 = -12					; size = 4
_old_sector$2 = -8					; size = 4
_raw$ = -4						; size = 4
_en$ = 8						; size = 4
_type$ = 12						; size = 4
_v$ = 16						; size = 4
?set_local_vec3d@@YGXPAUENTITY@@W4VEC3D_TYPES@@PAUVEC3D@@@Z PROC ; set_local_vec3d, COMDAT

; 121  : {

  00000	55		 push	 ebp
  00001	8b ec		 mov	 ebp, esp
  00003	83 ec 54	 sub	 esp, 84			; 00000054H
  00006	53		 push	 ebx
  00007	56		 push	 esi
  00008	57		 push	 edi

; 122  : 	mobile
; 123  : 		*raw;
; 124  : 
; 125  : 	ASSERT (v);

  00009	83 7d 10 00	 cmp	 DWORD PTR _v$[ebp], 0
  0000d	75 18		 jne	 SHORT $LN4@set_local_
  0000f	a1 00 00 00 00	 mov	 eax, DWORD PTR ?__LINE__Var@?0??set_local_vec3d@@YGXPAUENTITY@@W4VEC3D_TYPES@@PAUVEC3D@@@Z@4JA
  00014	83 c0 04	 add	 eax, 4
  00017	50		 push	 eax
  00018	68 00 00 00 00	 push	 OFFSET ??_C@_0EF@GBGCNEEE@c?3?2users?2nhv90?2projects?2eech?2ap@
  0001d	68 00 00 00 00	 push	 OFFSET ??_C@_01MHEDDDHA@v@
  00022	e8 00 00 00 00	 call	 ?process_assert@@YGXPBD0H@Z ; process_assert
$LN4@set_local_:

; 126  : 
; 127  : 	#if DEBUG_MODULE
; 128  : 
; 129  : 	debug_log_entity_args (ENTITY_DEBUG_LOCAL, ENTITY_DEBUG_VEC3D, en, type, v);
; 130  : 
; 131  : 	#endif
; 132  : 
; 133  : 	raw = (mobile *) get_local_entity_data (en);

  00027	8b 45 08	 mov	 eax, DWORD PTR _en$[ebp]
  0002a	8b 48 04	 mov	 ecx, DWORD PTR [eax+4]
  0002d	89 4d fc	 mov	 DWORD PTR _raw$[ebp], ecx

; 134  : 
; 135  : 	switch (type)

  00030	8b 45 0c	 mov	 eax, DWORD PTR _type$[ebp]
  00033	89 45 b0	 mov	 DWORD PTR tv70[ebp], eax
  00036	83 7d b0 06	 cmp	 DWORD PTR tv70[ebp], 6
  0003a	74 0b		 je	 SHORT $LN5@set_local_
  0003c	83 7d b0 08	 cmp	 DWORD PTR tv70[ebp], 8
  00040	74 23		 je	 SHORT $LN6@set_local_
  00042	e9 e9 00 00 00	 jmp	 $LN8@set_local_
$LN5@set_local_:

; 136  : 	{
; 137  : 		////////////////////////////////////////
; 138  : 		case VEC3D_TYPE_MOTION_VECTOR:
; 139  : 		////////////////////////////////////////
; 140  : 		{
; 141  : 			raw->motion_vector = *v;

  00047	8b 45 fc	 mov	 eax, DWORD PTR _raw$[ebp]
  0004a	83 c0 34	 add	 eax, 52			; 00000034H
  0004d	8b 4d 10	 mov	 ecx, DWORD PTR _v$[ebp]
  00050	8b 11		 mov	 edx, DWORD PTR [ecx]
  00052	89 10		 mov	 DWORD PTR [eax], edx
  00054	8b 51 04	 mov	 edx, DWORD PTR [ecx+4]
  00057	89 50 04	 mov	 DWORD PTR [eax+4], edx
  0005a	8b 49 08	 mov	 ecx, DWORD PTR [ecx+8]
  0005d	89 48 08	 mov	 DWORD PTR [eax+8], ecx

; 142  : 
; 143  : 			break;

  00060	e9 3d 01 00 00	 jmp	 $LN1@set_local_
$LN6@set_local_:

; 144  : 		}
; 145  : 		////////////////////////////////////////
; 146  : 		case VEC3D_TYPE_POSITION:
; 147  : 		////////////////////////////////////////
; 148  : 		{
; 149  : 
; 150  : 			entity
; 151  : 				*old_sector,
; 152  : 				*new_sector;
; 153  : 
; 154  : 			raw->position = *v;

  00065	8b 45 fc	 mov	 eax, DWORD PTR _raw$[ebp]
  00068	83 c0 04	 add	 eax, 4
  0006b	8b 4d 10	 mov	 ecx, DWORD PTR _v$[ebp]
  0006e	8b 11		 mov	 edx, DWORD PTR [ecx]
  00070	89 10		 mov	 DWORD PTR [eax], edx
  00072	8b 51 04	 mov	 edx, DWORD PTR [ecx+4]
  00075	89 50 04	 mov	 DWORD PTR [eax+4], edx
  00078	8b 49 08	 mov	 ecx, DWORD PTR [ecx+8]
  0007b	89 48 08	 mov	 DWORD PTR [eax+8], ecx

; 155  : 
; 156  : 			old_sector = get_local_entity_parent (en, LIST_TYPE_SECTOR);

  0007e	83 7d 08 00	 cmp	 DWORD PTR _en$[ebp], 0
  00082	74 0a		 je	 SHORT $LN10@set_local_
  00084	8b 45 08	 mov	 eax, DWORD PTR _en$[ebp]
  00087	8b 08		 mov	 ecx, DWORD PTR [eax]
  00089	89 4d b0	 mov	 DWORD PTR tv81[ebp], ecx
  0008c	eb 21		 jmp	 SHORT $LN11@set_local_
$LN10@set_local_:
  0008e	8b 15 00 00 00
	00		 mov	 edx, DWORD PTR ?__LINE__Var@?0??set_local_vec3d@@YGXPAUENTITY@@W4VEC3D_TYPES@@PAUVEC3D@@@Z@4JA
  00094	83 c2 23	 add	 edx, 35			; 00000023H
  00097	52		 push	 edx
  00098	68 00 00 00 00	 push	 OFFSET ??_C@_0EF@GBGCNEEE@c?3?2users?2nhv90?2projects?2eech?2ap@
  0009d	a1 00 00 00 00	 mov	 eax, DWORD PTR ?null_entity_pointer_message@@3PBDB ; null_entity_pointer_message
  000a2	50		 push	 eax
  000a3	e8 00 00 00 00	 call	 ?process_assert@@YGXPBD0H@Z ; process_assert
  000a8	c7 45 b0 00 00
	00 00		 mov	 DWORD PTR tv81[ebp], 0
$LN11@set_local_:
  000af	b9 01 00 00 00	 mov	 ecx, 1
  000b4	85 c9		 test	 ecx, ecx
  000b6	74 09		 je	 SHORT $LN12@set_local_
  000b8	c7 45 ac 21 00
	00 00		 mov	 DWORD PTR tv89[ebp], 33	; 00000021H
  000bf	eb 21		 jmp	 SHORT $LN13@set_local_
$LN12@set_local_:
  000c1	8b 15 00 00 00
	00		 mov	 edx, DWORD PTR ?__LINE__Var@?0??set_local_vec3d@@YGXPAUENTITY@@W4VEC3D_TYPES@@PAUVEC3D@@@Z@4JA
  000c7	83 c2 23	 add	 edx, 35			; 00000023H
  000ca	52		 push	 edx
  000cb	68 00 00 00 00	 push	 OFFSET ??_C@_0EF@GBGCNEEE@c?3?2users?2nhv90?2projects?2eech?2ap@
  000d0	a1 00 00 00 00	 mov	 eax, DWORD PTR ?overload_invalid_list_type_message@@3PBDB ; overload_invalid_list_type_message
  000d5	50		 push	 eax
  000d6	e8 00 00 00 00	 call	 ?process_assert@@YGXPBD0H@Z ; process_assert
  000db	c7 45 ac 00 00
	00 00		 mov	 DWORD PTR tv89[ebp], 0
$LN13@set_local_:
  000e2	6a 21		 push	 33			; 00000021H
  000e4	8b 4d 08	 mov	 ecx, DWORD PTR _en$[ebp]
  000e7	51		 push	 ecx
  000e8	69 55 b0 b4 00
	00 00		 imul	 edx, DWORD PTR tv81[ebp], 180
  000ef	8b 45 ac	 mov	 eax, DWORD PTR tv89[ebp]
  000f2	8b 8c 82 00 00
	00 00		 mov	 ecx, DWORD PTR ?fn_get_local_entity_parent@@3PAY0CN@P6GPAUENTITY@@PAU1@W4LIST_TYPES@@@ZA[edx+eax*4]
  000f9	ff d1		 call	 ecx
  000fb	89 45 f8	 mov	 DWORD PTR _old_sector$2[ebp], eax

; 157  : 
; 158  : 			new_sector = get_local_sector_entity (v);

  000fe	8b 45 10	 mov	 eax, DWORD PTR _v$[ebp]
  00101	50		 push	 eax
  00102	e8 00 00 00 00	 call	 ?get_local_sector_entity@@YGPAUENTITY@@PAUVEC3D@@@Z ; get_local_sector_entity
  00107	89 45 f4	 mov	 DWORD PTR _new_sector$1[ebp], eax

; 159  : 
; 160  : 			if (old_sector != new_sector)

  0010a	8b 45 f8	 mov	 eax, DWORD PTR _old_sector$2[ebp]
  0010d	3b 45 f4	 cmp	 eax, DWORD PTR _new_sector$1[ebp]
  00110	74 1c		 je	 SHORT $LN7@set_local_

; 161  : 			{
; 162  : 				delete_local_entity_from_parents_child_list (en, LIST_TYPE_SECTOR);

  00112	6a 21		 push	 33			; 00000021H
  00114	8b 45 08	 mov	 eax, DWORD PTR _en$[ebp]
  00117	50		 push	 eax
  00118	e8 00 00 00 00	 call	 ?delete_local_entity_from_parents_child_list@@YGXPAUENTITY@@W4LIST_TYPES@@@Z ; delete_local_entity_from_parents_child_list

; 163  : 
; 164  : 				insert_local_entity_into_parents_child_list (en, LIST_TYPE_SECTOR, new_sector, NULL);

  0011d	6a 00		 push	 0
  0011f	8b 45 f4	 mov	 eax, DWORD PTR _new_sector$1[ebp]
  00122	50		 push	 eax
  00123	6a 21		 push	 33			; 00000021H
  00125	8b 4d 08	 mov	 ecx, DWORD PTR _en$[ebp]
  00128	51		 push	 ecx
  00129	e8 00 00 00 00	 call	 ?insert_local_entity_into_parents_child_list@@YGXPAUENTITY@@W4LIST_TYPES@@00@Z ; insert_local_entity_into_parents_child_list
$LN7@set_local_:

; 165  : 			}
; 166  : 
; 167  : 			break;

  0012e	eb 72		 jmp	 SHORT $LN1@set_local_
$LN8@set_local_:

; 168  : 		}
; 169  : 		////////////////////////////////////////
; 170  : 		default:
; 171  : 		////////////////////////////////////////
; 172  : 		{
; 173  : 			debug_fatal_invalid_vec3d_type (en, type);

  00130	83 7d 08 00	 cmp	 DWORD PTR _en$[ebp], 0
  00134	74 0a		 je	 SHORT $LN14@set_local_
  00136	8b 45 08	 mov	 eax, DWORD PTR _en$[ebp]
  00139	8b 08		 mov	 ecx, DWORD PTR [eax]
  0013b	89 4d b0	 mov	 DWORD PTR tv152[ebp], ecx
  0013e	eb 21		 jmp	 SHORT $LN15@set_local_
$LN14@set_local_:
  00140	8b 15 00 00 00
	00		 mov	 edx, DWORD PTR ?__LINE__Var@?0??set_local_vec3d@@YGXPAUENTITY@@W4VEC3D_TYPES@@PAUVEC3D@@@Z@4JA
  00146	83 c2 34	 add	 edx, 52			; 00000034H
  00149	52		 push	 edx
  0014a	68 00 00 00 00	 push	 OFFSET ??_C@_0EF@GBGCNEEE@c?3?2users?2nhv90?2projects?2eech?2ap@
  0014f	a1 00 00 00 00	 mov	 eax, DWORD PTR ?null_entity_pointer_message@@3PBDB ; null_entity_pointer_message
  00154	50		 push	 eax
  00155	e8 00 00 00 00	 call	 ?process_assert@@YGXPBD0H@Z ; process_assert
  0015a	c7 45 b0 00 00
	00 00		 mov	 DWORD PTR tv152[ebp], 0
$LN15@set_local_:
  00161	8b 0d 00 00 00
	00		 mov	 ecx, DWORD PTR ?__LINE__Var@?0??set_local_vec3d@@YGXPAUENTITY@@W4VEC3D_TYPES@@PAUVEC3D@@@Z@4JA
  00167	83 c1 34	 add	 ecx, 52			; 00000034H
  0016a	51		 push	 ecx
  0016b	68 00 00 00 00	 push	 OFFSET ??_C@_0EF@GBGCNEEE@c?3?2users?2nhv90?2projects?2eech?2ap@
  00170	6b 55 0c 0c	 imul	 edx, DWORD PTR _type$[ebp], 12
  00174	8b 82 00 00 00
	00		 mov	 eax, DWORD PTR ?vec3d_type_database@@3PAUVEC3D_TYPE_DATA@@A[edx]
  0017a	50		 push	 eax
  0017b	8b 4d 08	 mov	 ecx, DWORD PTR _en$[ebp]
  0017e	2b 0d 00 00 00
	00		 sub	 ecx, DWORD PTR ?entities@@3PAUENTITY@@A ; entities
  00184	c1 f9 04	 sar	 ecx, 4
  00187	51		 push	 ecx
  00188	6b 55 b0 0c	 imul	 edx, DWORD PTR tv152[ebp], 12
  0018c	8b 82 00 00 00
	00		 mov	 eax, DWORD PTR ?entity_type_database@@3PAUENTITY_TYPE_DATA@@A[edx]
  00192	50		 push	 eax
  00193	8b 0d 00 00 00
	00		 mov	 ecx, DWORD PTR ?debug_fatal_invalid_vec3d_type_message@@3PBDB ; debug_fatal_invalid_vec3d_type_message
  00199	51		 push	 ecx
  0019a	e8 00 00 00 00	 call	 ?debug_fatal@@YAXPBDZZ	; debug_fatal
  0019f	83 c4 18	 add	 esp, 24			; 00000018H
$LN1@set_local_:

; 174  : 
; 175  : 			break;
; 176  : 		}
; 177  : 	}
; 178  : }

  001a2	5f		 pop	 edi
  001a3	5e		 pop	 esi
  001a4	5b		 pop	 ebx
  001a5	8b e5		 mov	 esp, ebp
  001a7	5d		 pop	 ebp
  001a8	c2 0c 00	 ret	 12			; 0000000cH
?set_local_vec3d@@YGXPAUENTITY@@W4VEC3D_TYPES@@PAUVEC3D@@@Z ENDP ; set_local_vec3d
_TEXT	ENDS
; Function compile flags: /Odtp /ZI
; File c:\users\nhv90\projects\eech\aphavoc\source\entity\mobile\mb_vec3d.c
;	COMDAT ?set_local_raw_vec3d@@YGXPAUENTITY@@W4VEC3D_TYPES@@PAUVEC3D@@@Z
_TEXT	SEGMENT
tv89 = -72						; size = 4
tv70 = -72						; size = 4
_raw$ = -4						; size = 4
_en$ = 8						; size = 4
_type$ = 12						; size = 4
_v$ = 16						; size = 4
?set_local_raw_vec3d@@YGXPAUENTITY@@W4VEC3D_TYPES@@PAUVEC3D@@@Z PROC ; set_local_raw_vec3d, COMDAT

; 80   : {

  00000	55		 push	 ebp
  00001	8b ec		 mov	 ebp, esp
  00003	83 ec 48	 sub	 esp, 72			; 00000048H
  00006	53		 push	 ebx
  00007	56		 push	 esi
  00008	57		 push	 edi

; 81   : 	mobile
; 82   : 		*raw;
; 83   : 
; 84   : 	ASSERT (v);

  00009	83 7d 10 00	 cmp	 DWORD PTR _v$[ebp], 0
  0000d	75 18		 jne	 SHORT $LN4@set_local_
  0000f	a1 00 00 00 00	 mov	 eax, DWORD PTR ?__LINE__Var@?0??set_local_raw_vec3d@@YGXPAUENTITY@@W4VEC3D_TYPES@@PAUVEC3D@@@Z@4JA
  00014	83 c0 04	 add	 eax, 4
  00017	50		 push	 eax
  00018	68 00 00 00 00	 push	 OFFSET ??_C@_0EF@GBGCNEEE@c?3?2users?2nhv90?2projects?2eech?2ap@
  0001d	68 00 00 00 00	 push	 OFFSET ??_C@_01MHEDDDHA@v@
  00022	e8 00 00 00 00	 call	 ?process_assert@@YGXPBD0H@Z ; process_assert
$LN4@set_local_:

; 85   : 
; 86   : 	#if DEBUG_MODULE
; 87   : 
; 88   : 	debug_log_entity_args (ENTITY_DEBUG_LOCAL, ENTITY_DEBUG_VEC3D, en, type, v);
; 89   : 
; 90   : 	#endif
; 91   : 
; 92   : 	raw = (mobile *) get_local_entity_data (en);

  00027	8b 45 08	 mov	 eax, DWORD PTR _en$[ebp]
  0002a	8b 48 04	 mov	 ecx, DWORD PTR [eax+4]
  0002d	89 4d fc	 mov	 DWORD PTR _raw$[ebp], ecx

; 93   : 
; 94   : 	switch (type)

  00030	8b 45 0c	 mov	 eax, DWORD PTR _type$[ebp]
  00033	89 45 b8	 mov	 DWORD PTR tv70[ebp], eax
  00036	83 7d b8 08	 cmp	 DWORD PTR tv70[ebp], 8
  0003a	74 02		 je	 SHORT $LN5@set_local_
  0003c	eb 1b		 jmp	 SHORT $LN6@set_local_
$LN5@set_local_:

; 95   : 	{
; 96   : 		////////////////////////////////////////
; 97   : 		case VEC3D_TYPE_POSITION:
; 98   : 		////////////////////////////////////////
; 99   : 		{
; 100  : 
; 101  : 			raw->position = *v;

  0003e	8b 45 fc	 mov	 eax, DWORD PTR _raw$[ebp]
  00041	83 c0 04	 add	 eax, 4
  00044	8b 4d 10	 mov	 ecx, DWORD PTR _v$[ebp]
  00047	8b 11		 mov	 edx, DWORD PTR [ecx]
  00049	89 10		 mov	 DWORD PTR [eax], edx
  0004b	8b 51 04	 mov	 edx, DWORD PTR [ecx+4]
  0004e	89 50 04	 mov	 DWORD PTR [eax+4], edx
  00051	8b 49 08	 mov	 ecx, DWORD PTR [ecx+8]
  00054	89 48 08	 mov	 DWORD PTR [eax+8], ecx

; 102  : 
; 103  : 			break;

  00057	eb 72		 jmp	 SHORT $LN1@set_local_
$LN6@set_local_:

; 104  : 		}
; 105  : 		////////////////////////////////////////
; 106  : 		default:
; 107  : 		////////////////////////////////////////
; 108  : 		{
; 109  : 			debug_fatal_invalid_vec3d_type (en, type);

  00059	83 7d 08 00	 cmp	 DWORD PTR _en$[ebp], 0
  0005d	74 0a		 je	 SHORT $LN8@set_local_
  0005f	8b 45 08	 mov	 eax, DWORD PTR _en$[ebp]
  00062	8b 08		 mov	 ecx, DWORD PTR [eax]
  00064	89 4d b8	 mov	 DWORD PTR tv89[ebp], ecx
  00067	eb 21		 jmp	 SHORT $LN9@set_local_
$LN8@set_local_:
  00069	8b 15 00 00 00
	00		 mov	 edx, DWORD PTR ?__LINE__Var@?0??set_local_raw_vec3d@@YGXPAUENTITY@@W4VEC3D_TYPES@@PAUVEC3D@@@Z@4JA
  0006f	83 c2 1d	 add	 edx, 29			; 0000001dH
  00072	52		 push	 edx
  00073	68 00 00 00 00	 push	 OFFSET ??_C@_0EF@GBGCNEEE@c?3?2users?2nhv90?2projects?2eech?2ap@
  00078	a1 00 00 00 00	 mov	 eax, DWORD PTR ?null_entity_pointer_message@@3PBDB ; null_entity_pointer_message
  0007d	50		 push	 eax
  0007e	e8 00 00 00 00	 call	 ?process_assert@@YGXPBD0H@Z ; process_assert
  00083	c7 45 b8 00 00
	00 00		 mov	 DWORD PTR tv89[ebp], 0
$LN9@set_local_:
  0008a	8b 0d 00 00 00
	00		 mov	 ecx, DWORD PTR ?__LINE__Var@?0??set_local_raw_vec3d@@YGXPAUENTITY@@W4VEC3D_TYPES@@PAUVEC3D@@@Z@4JA
  00090	83 c1 1d	 add	 ecx, 29			; 0000001dH
  00093	51		 push	 ecx
  00094	68 00 00 00 00	 push	 OFFSET ??_C@_0EF@GBGCNEEE@c?3?2users?2nhv90?2projects?2eech?2ap@
  00099	6b 55 0c 0c	 imul	 edx, DWORD PTR _type$[ebp], 12
  0009d	8b 82 00 00 00
	00		 mov	 eax, DWORD PTR ?vec3d_type_database@@3PAUVEC3D_TYPE_DATA@@A[edx]
  000a3	50		 push	 eax
  000a4	8b 4d 08	 mov	 ecx, DWORD PTR _en$[ebp]
  000a7	2b 0d 00 00 00
	00		 sub	 ecx, DWORD PTR ?entities@@3PAUENTITY@@A ; entities
  000ad	c1 f9 04	 sar	 ecx, 4
  000b0	51		 push	 ecx
  000b1	6b 55 b8 0c	 imul	 edx, DWORD PTR tv89[ebp], 12
  000b5	8b 82 00 00 00
	00		 mov	 eax, DWORD PTR ?entity_type_database@@3PAUENTITY_TYPE_DATA@@A[edx]
  000bb	50		 push	 eax
  000bc	8b 0d 00 00 00
	00		 mov	 ecx, DWORD PTR ?debug_fatal_invalid_vec3d_type_message@@3PBDB ; debug_fatal_invalid_vec3d_type_message
  000c2	51		 push	 ecx
  000c3	e8 00 00 00 00	 call	 ?debug_fatal@@YAXPBDZZ	; debug_fatal
  000c8	83 c4 18	 add	 esp, 24			; 00000018H
$LN1@set_local_:

; 110  : 
; 111  : 			break;
; 112  : 		}
; 113  : 	}
; 114  : }

  000cb	5f		 pop	 edi
  000cc	5e		 pop	 esi
  000cd	5b		 pop	 ebx
  000ce	8b e5		 mov	 esp, ebp
  000d0	5d		 pop	 ebp
  000d1	c2 0c 00	 ret	 12			; 0000000cH
?set_local_raw_vec3d@@YGXPAUENTITY@@W4VEC3D_TYPES@@PAUVEC3D@@@Z ENDP ; set_local_raw_vec3d
_TEXT	ENDS
; Function compile flags: /Odtp /ZI
; File c:\users\nhv90\projects\eech\aphavoc\source\entity\mobile\mb_vec3d.c
;	COMDAT ?overload_mobile_vec3d_functions@@YGXW4ENTITY_TYPES@@@Z
_TEXT	SEGMENT
_type$ = 8						; size = 4
?overload_mobile_vec3d_functions@@YGXW4ENTITY_TYPES@@@Z PROC ; overload_mobile_vec3d_functions, COMDAT

; 376  : {

  00000	55		 push	 ebp
  00001	8b ec		 mov	 ebp, esp
  00003	83 ec 40	 sub	 esp, 64			; 00000040H
  00006	53		 push	 ebx
  00007	56		 push	 esi
  00008	57		 push	 edi

; 377  : 	fn_set_local_entity_raw_vec3d			[type][VEC3D_TYPE_MOTION_VECTOR]								= set_local_vec3d;

  00009	6b 45 08 60	 imul	 eax, DWORD PTR _type$[ebp], 96
  0000d	b9 04 00 00 00	 mov	 ecx, 4
  00012	6b d1 06	 imul	 edx, ecx, 6
  00015	c7 84 10 00 00
	00 00 00 00 00
	00		 mov	 DWORD PTR ?fn_set_local_entity_raw_vec3d@@3PAY0BI@P6GXPAUENTITY@@W4VEC3D_TYPES@@PAUVEC3D@@@ZA[eax+edx], OFFSET ?set_local_vec3d@@YGXPAUENTITY@@W4VEC3D_TYPES@@PAUVEC3D@@@Z ; set_local_vec3d

; 378  : 	fn_set_local_entity_vec3d				[type][VEC3D_TYPE_MOTION_VECTOR]								= set_local_vec3d;

  00020	6b 45 08 60	 imul	 eax, DWORD PTR _type$[ebp], 96
  00024	b9 04 00 00 00	 mov	 ecx, 4
  00029	6b d1 06	 imul	 edx, ecx, 6
  0002c	c7 84 10 00 00
	00 00 00 00 00
	00		 mov	 DWORD PTR ?fn_set_local_entity_vec3d@@3PAY0BI@P6GXPAUENTITY@@W4VEC3D_TYPES@@PAUVEC3D@@@ZA[eax+edx], OFFSET ?set_local_vec3d@@YGXPAUENTITY@@W4VEC3D_TYPES@@PAUVEC3D@@@Z ; set_local_vec3d

; 379  : 	fn_set_client_server_entity_vec3d	[type][VEC3D_TYPE_MOTION_VECTOR][COMMS_MODEL_SERVER]	= set_server_vec3d;

  00037	69 45 08 c0 00
	00 00		 imul	 eax, DWORD PTR _type$[ebp], 192
  0003e	b9 08 00 00 00	 mov	 ecx, 8
  00043	6b d1 06	 imul	 edx, ecx, 6
  00046	8d 84 10 00 00
	00 00		 lea	 eax, DWORD PTR ?fn_set_client_server_entity_vec3d@@3PAY1BI@1P6GXPAUENTITY@@W4VEC3D_TYPES@@PAUVEC3D@@@ZA[eax+edx]
  0004d	b9 04 00 00 00	 mov	 ecx, 4
  00052	6b d1 00	 imul	 edx, ecx, 0
  00055	c7 04 10 00 00
	00 00		 mov	 DWORD PTR [eax+edx], OFFSET ?set_server_vec3d@@YGXPAUENTITY@@W4VEC3D_TYPES@@PAUVEC3D@@@Z ; set_server_vec3d

; 380  : 	fn_set_client_server_entity_vec3d	[type][VEC3D_TYPE_MOTION_VECTOR][COMMS_MODEL_CLIENT]	= set_client_vec3d;

  0005c	69 45 08 c0 00
	00 00		 imul	 eax, DWORD PTR _type$[ebp], 192
  00063	b9 08 00 00 00	 mov	 ecx, 8
  00068	6b d1 06	 imul	 edx, ecx, 6
  0006b	8d 84 10 00 00
	00 00		 lea	 eax, DWORD PTR ?fn_set_client_server_entity_vec3d@@3PAY1BI@1P6GXPAUENTITY@@W4VEC3D_TYPES@@PAUVEC3D@@@ZA[eax+edx]
  00072	b9 04 00 00 00	 mov	 ecx, 4
  00077	c1 e1 00	 shl	 ecx, 0
  0007a	c7 04 08 00 00
	00 00		 mov	 DWORD PTR [eax+ecx], OFFSET ?set_client_vec3d@@YGXPAUENTITY@@W4VEC3D_TYPES@@PAUVEC3D@@@Z ; set_client_vec3d

; 381  : 	fn_get_local_entity_vec3d				[type][VEC3D_TYPE_MOTION_VECTOR]								= get_local_vec3d;

  00081	6b 45 08 60	 imul	 eax, DWORD PTR _type$[ebp], 96
  00085	b9 04 00 00 00	 mov	 ecx, 4
  0008a	6b d1 06	 imul	 edx, ecx, 6
  0008d	c7 84 10 00 00
	00 00 00 00 00
	00		 mov	 DWORD PTR ?fn_get_local_entity_vec3d@@3PAY0BI@P6GXPAUENTITY@@W4VEC3D_TYPES@@PAUVEC3D@@@ZA[eax+edx], OFFSET ?get_local_vec3d@@YGXPAUENTITY@@W4VEC3D_TYPES@@PAUVEC3D@@@Z ; get_local_vec3d

; 382  : 	fn_get_local_entity_vec3d_ptr			[type][VEC3D_TYPE_MOTION_VECTOR]								= get_local_vec3d_ptr;

  00098	6b 45 08 60	 imul	 eax, DWORD PTR _type$[ebp], 96
  0009c	b9 04 00 00 00	 mov	 ecx, 4
  000a1	6b d1 06	 imul	 edx, ecx, 6
  000a4	c7 84 10 00 00
	00 00 00 00 00
	00		 mov	 DWORD PTR ?fn_get_local_entity_vec3d_ptr@@3PAY0BI@P6GPAUVEC3D@@PAUENTITY@@W4VEC3D_TYPES@@@ZA[eax+edx], OFFSET ?get_local_vec3d_ptr@@YGPAUVEC3D@@PAUENTITY@@W4VEC3D_TYPES@@@Z ; get_local_vec3d_ptr

; 383  : 
; 384  : 	fn_set_local_entity_raw_vec3d			[type][VEC3D_TYPE_POSITION]									= set_local_raw_vec3d;

  000af	6b 45 08 60	 imul	 eax, DWORD PTR _type$[ebp], 96
  000b3	b9 04 00 00 00	 mov	 ecx, 4
  000b8	c1 e1 03	 shl	 ecx, 3
  000bb	c7 84 08 00 00
	00 00 00 00 00
	00		 mov	 DWORD PTR ?fn_set_local_entity_raw_vec3d@@3PAY0BI@P6GXPAUENTITY@@W4VEC3D_TYPES@@PAUVEC3D@@@ZA[eax+ecx], OFFSET ?set_local_raw_vec3d@@YGXPAUENTITY@@W4VEC3D_TYPES@@PAUVEC3D@@@Z ; set_local_raw_vec3d

; 385  : 	fn_set_local_entity_vec3d				[type][VEC3D_TYPE_POSITION]									= set_local_vec3d;

  000c6	6b 45 08 60	 imul	 eax, DWORD PTR _type$[ebp], 96
  000ca	b9 04 00 00 00	 mov	 ecx, 4
  000cf	c1 e1 03	 shl	 ecx, 3
  000d2	c7 84 08 00 00
	00 00 00 00 00
	00		 mov	 DWORD PTR ?fn_set_local_entity_vec3d@@3PAY0BI@P6GXPAUENTITY@@W4VEC3D_TYPES@@PAUVEC3D@@@ZA[eax+ecx], OFFSET ?set_local_vec3d@@YGXPAUENTITY@@W4VEC3D_TYPES@@PAUVEC3D@@@Z ; set_local_vec3d

; 386  : 	fn_set_client_server_entity_vec3d	[type][VEC3D_TYPE_POSITION][COMMS_MODEL_SERVER]			= set_server_vec3d;

  000dd	69 45 08 c0 00
	00 00		 imul	 eax, DWORD PTR _type$[ebp], 192
  000e4	b9 08 00 00 00	 mov	 ecx, 8
  000e9	c1 e1 03	 shl	 ecx, 3
  000ec	8d 94 08 00 00
	00 00		 lea	 edx, DWORD PTR ?fn_set_client_server_entity_vec3d@@3PAY1BI@1P6GXPAUENTITY@@W4VEC3D_TYPES@@PAUVEC3D@@@ZA[eax+ecx]
  000f3	b8 04 00 00 00	 mov	 eax, 4
  000f8	6b c8 00	 imul	 ecx, eax, 0
  000fb	c7 04 0a 00 00
	00 00		 mov	 DWORD PTR [edx+ecx], OFFSET ?set_server_vec3d@@YGXPAUENTITY@@W4VEC3D_TYPES@@PAUVEC3D@@@Z ; set_server_vec3d

; 387  : 	fn_set_client_server_entity_vec3d	[type][VEC3D_TYPE_POSITION][COMMS_MODEL_CLIENT]			= set_client_vec3d;

  00102	69 45 08 c0 00
	00 00		 imul	 eax, DWORD PTR _type$[ebp], 192
  00109	b9 08 00 00 00	 mov	 ecx, 8
  0010e	c1 e1 03	 shl	 ecx, 3
  00111	8d 94 08 00 00
	00 00		 lea	 edx, DWORD PTR ?fn_set_client_server_entity_vec3d@@3PAY1BI@1P6GXPAUENTITY@@W4VEC3D_TYPES@@PAUVEC3D@@@ZA[eax+ecx]
  00118	b8 04 00 00 00	 mov	 eax, 4
  0011d	c1 e0 00	 shl	 eax, 0
  00120	c7 04 02 00 00
	00 00		 mov	 DWORD PTR [edx+eax], OFFSET ?set_client_vec3d@@YGXPAUENTITY@@W4VEC3D_TYPES@@PAUVEC3D@@@Z ; set_client_vec3d

; 388  : 	fn_get_local_entity_vec3d				[type][VEC3D_TYPE_POSITION]							 		= get_local_vec3d;

  00127	6b 45 08 60	 imul	 eax, DWORD PTR _type$[ebp], 96
  0012b	b9 04 00 00 00	 mov	 ecx, 4
  00130	c1 e1 03	 shl	 ecx, 3
  00133	c7 84 08 00 00
	00 00 00 00 00
	00		 mov	 DWORD PTR ?fn_get_local_entity_vec3d@@3PAY0BI@P6GXPAUENTITY@@W4VEC3D_TYPES@@PAUVEC3D@@@ZA[eax+ecx], OFFSET ?get_local_vec3d@@YGXPAUENTITY@@W4VEC3D_TYPES@@PAUVEC3D@@@Z ; get_local_vec3d

; 389  : 	fn_get_local_entity_vec3d_ptr			[type][VEC3D_TYPE_POSITION]									= get_local_vec3d_ptr;

  0013e	6b 45 08 60	 imul	 eax, DWORD PTR _type$[ebp], 96
  00142	b9 04 00 00 00	 mov	 ecx, 4
  00147	c1 e1 03	 shl	 ecx, 3
  0014a	c7 84 08 00 00
	00 00 00 00 00
	00		 mov	 DWORD PTR ?fn_get_local_entity_vec3d_ptr@@3PAY0BI@P6GPAUVEC3D@@PAUENTITY@@W4VEC3D_TYPES@@@ZA[eax+ecx], OFFSET ?get_local_vec3d_ptr@@YGPAUVEC3D@@PAUENTITY@@W4VEC3D_TYPES@@@Z ; get_local_vec3d_ptr

; 390  : 
; 391  : 	fn_get_local_entity_vec3d				[type][VEC3D_TYPE_XV]									 		= get_local_vec3d;

  00155	6b 45 08 60	 imul	 eax, DWORD PTR _type$[ebp], 96
  00159	b9 04 00 00 00	 mov	 ecx, 4
  0015e	6b d1 14	 imul	 edx, ecx, 20
  00161	c7 84 10 00 00
	00 00 00 00 00
	00		 mov	 DWORD PTR ?fn_get_local_entity_vec3d@@3PAY0BI@P6GXPAUENTITY@@W4VEC3D_TYPES@@PAUVEC3D@@@ZA[eax+edx], OFFSET ?get_local_vec3d@@YGXPAUENTITY@@W4VEC3D_TYPES@@PAUVEC3D@@@Z ; get_local_vec3d

; 392  : 	fn_get_local_entity_vec3d_ptr			[type][VEC3D_TYPE_XV]											= get_local_vec3d_ptr;

  0016c	6b 45 08 60	 imul	 eax, DWORD PTR _type$[ebp], 96
  00170	b9 04 00 00 00	 mov	 ecx, 4
  00175	6b d1 14	 imul	 edx, ecx, 20
  00178	c7 84 10 00 00
	00 00 00 00 00
	00		 mov	 DWORD PTR ?fn_get_local_entity_vec3d_ptr@@3PAY0BI@P6GPAUVEC3D@@PAUENTITY@@W4VEC3D_TYPES@@@ZA[eax+edx], OFFSET ?get_local_vec3d_ptr@@YGPAUVEC3D@@PAUENTITY@@W4VEC3D_TYPES@@@Z ; get_local_vec3d_ptr

; 393  : 
; 394  : 	fn_get_local_entity_vec3d				[type][VEC3D_TYPE_YV]									 		= get_local_vec3d;

  00183	6b 45 08 60	 imul	 eax, DWORD PTR _type$[ebp], 96
  00187	b9 04 00 00 00	 mov	 ecx, 4
  0018c	6b d1 15	 imul	 edx, ecx, 21
  0018f	c7 84 10 00 00
	00 00 00 00 00
	00		 mov	 DWORD PTR ?fn_get_local_entity_vec3d@@3PAY0BI@P6GXPAUENTITY@@W4VEC3D_TYPES@@PAUVEC3D@@@ZA[eax+edx], OFFSET ?get_local_vec3d@@YGXPAUENTITY@@W4VEC3D_TYPES@@PAUVEC3D@@@Z ; get_local_vec3d

; 395  : 	fn_get_local_entity_vec3d_ptr			[type][VEC3D_TYPE_YV]											= get_local_vec3d_ptr;

  0019a	6b 45 08 60	 imul	 eax, DWORD PTR _type$[ebp], 96
  0019e	b9 04 00 00 00	 mov	 ecx, 4
  001a3	6b d1 15	 imul	 edx, ecx, 21
  001a6	c7 84 10 00 00
	00 00 00 00 00
	00		 mov	 DWORD PTR ?fn_get_local_entity_vec3d_ptr@@3PAY0BI@P6GPAUVEC3D@@PAUENTITY@@W4VEC3D_TYPES@@@ZA[eax+edx], OFFSET ?get_local_vec3d_ptr@@YGPAUVEC3D@@PAUENTITY@@W4VEC3D_TYPES@@@Z ; get_local_vec3d_ptr

; 396  : 
; 397  : 	fn_get_local_entity_vec3d				[type][VEC3D_TYPE_ZV]									 		= get_local_vec3d;

  001b1	6b 45 08 60	 imul	 eax, DWORD PTR _type$[ebp], 96
  001b5	b9 04 00 00 00	 mov	 ecx, 4
  001ba	6b d1 16	 imul	 edx, ecx, 22
  001bd	c7 84 10 00 00
	00 00 00 00 00
	00		 mov	 DWORD PTR ?fn_get_local_entity_vec3d@@3PAY0BI@P6GXPAUENTITY@@W4VEC3D_TYPES@@PAUVEC3D@@@ZA[eax+edx], OFFSET ?get_local_vec3d@@YGXPAUENTITY@@W4VEC3D_TYPES@@PAUVEC3D@@@Z ; get_local_vec3d

; 398  : 	fn_get_local_entity_vec3d_ptr			[type][VEC3D_TYPE_ZV]											= get_local_vec3d_ptr;

  001c8	6b 45 08 60	 imul	 eax, DWORD PTR _type$[ebp], 96
  001cc	b9 04 00 00 00	 mov	 ecx, 4
  001d1	6b d1 16	 imul	 edx, ecx, 22
  001d4	c7 84 10 00 00
	00 00 00 00 00
	00		 mov	 DWORD PTR ?fn_get_local_entity_vec3d_ptr@@3PAY0BI@P6GPAUVEC3D@@PAUENTITY@@W4VEC3D_TYPES@@@ZA[eax+edx], OFFSET ?get_local_vec3d_ptr@@YGPAUVEC3D@@PAUENTITY@@W4VEC3D_TYPES@@@Z ; get_local_vec3d_ptr

; 399  : }

  001df	5f		 pop	 edi
  001e0	5e		 pop	 esi
  001e1	5b		 pop	 ebx
  001e2	8b e5		 mov	 esp, ebp
  001e4	5d		 pop	 ebp
  001e5	c2 04 00	 ret	 4
?overload_mobile_vec3d_functions@@YGXW4ENTITY_TYPES@@@Z ENDP ; overload_mobile_vec3d_functions
_TEXT	ENDS
END
