; Listing generated by Microsoft (R) Optimizing Compiler Version 19.16.27045.0 

	TITLE	C:\Users\nhv90\Projects\eech\modules\userint2\ui_obj\menu\me_draw.c
	.686P
	.XMM
	include listing.inc
	.model	flat

INCLUDELIB MSVCRTD
INCLUDELIB OLDNAMES

PUBLIC	?overload_menu_ui_object_draw_functions@@YGXH@Z	; overload_menu_ui_object_draw_functions
PUBLIC	__real@3f800000
EXTRN	?pretouch_memory@@YGXPADH@Z:PROC		; pretouch_memory
EXTRN	?set_viewport@@YGXMMMM@Z:PROC			; set_viewport
EXTRN	?set_active_screen@@YGHPAUSCREEN@@@Z:PROC	; set_active_screen
EXTRN	?get_active_screen@@YGPAUSCREEN@@XZ:PROC	; get_active_screen
EXTRN	?set_ui_repaint_area@@YGXHHHH@Z:PROC		; set_ui_repaint_area
EXTRN	?ui_set_origin@@YGXMM@Z:PROC			; ui_set_origin
EXTRN	?ui_draw_area@@YGXMMMMPAUUI_OBJECT@@@Z:PROC	; ui_draw_area
EXTRN	?ui_draw_graphic@@YGXMMMMPAG@Z:PROC		; ui_draw_graphic
EXTRN	__ftol2_sse:PROC
EXTRN	?video_screen@@3PAUSCREEN@@A:DWORD		; video_screen
EXTRN	?fn_draw_ui_object@@3PAP6GXPAUUI_OBJECT@@@ZA:BYTE ; fn_draw_ui_object
EXTRN	?fn_get_ui_object_x@@3PAP6GMPAUUI_OBJECT@@@ZA:BYTE ; fn_get_ui_object_x
EXTRN	?fn_get_ui_object_y@@3PAP6GMPAUUI_OBJECT@@@ZA:BYTE ; fn_get_ui_object_y
EXTRN	?fn_get_ui_object_x_size@@3PAP6GMPAUUI_OBJECT@@@ZA:BYTE ; fn_get_ui_object_x_size
EXTRN	?fn_get_ui_object_y_size@@3PAP6GMPAUUI_OBJECT@@@ZA:BYTE ; fn_get_ui_object_y_size
EXTRN	?fn_get_ui_object_state@@3PAP6GHPAUUI_OBJECT@@@ZA:BYTE ; fn_get_ui_object_state
EXTRN	?fn_get_ui_object_redraw@@3PAP6GHPAUUI_OBJECT@@@ZA:BYTE ; fn_get_ui_object_redraw
EXTRN	?fn_get_ui_object_highlighted@@3PAP6GHPAUUI_OBJECT@@@ZA:BYTE ; fn_get_ui_object_highlighted
EXTRN	?fn_get_ui_object_graphic@@3PAP6GPAGPAUUI_OBJECT@@@ZA:BYTE ; fn_get_ui_object_graphic
EXTRN	?fn_get_ui_object_active_screen@@3PAP6GPAUSCREEN@@PAUUI_OBJECT@@@ZA:BYTE ; fn_get_ui_object_active_screen
EXTRN	__fltused:DWORD
;	COMDAT __real@3f800000
CONST	SEGMENT
__real@3f800000 DD 03f800000r			; 1
CONST	ENDS
; Function compile flags: /Odtp /ZI
; File c:\users\nhv90\projects\eech\modules\userint2\ui_obj\menu\me_draw.c
;	COMDAT ?draw_menu_ui_object@@YGXPAUUI_OBJECT@@@Z
_TEXT	SEGMENT
_state$1 = -44						; size = 4
_old_active_screen$ = -40				; size = 4
_menu$ = -36						; size = 4
_y_size$ = -32						; size = 4
_x_size$ = -28						; size = 4
_graphic$ = -24						; size = 4
_area$ = -20						; size = 4
_y2$ = -16						; size = 4
_x2$ = -12						; size = 4
_y1$ = -8						; size = 4
_x1$ = -4						; size = 4
_obj$ = 8						; size = 4
?draw_menu_ui_object@@YGXPAUUI_OBJECT@@@Z PROC		; draw_menu_ui_object, COMDAT

; 74   : {

  00000	55		 push	 ebp
  00001	8b ec		 mov	 ebp, esp
  00003	83 ec 6c	 sub	 esp, 108		; 0000006cH
  00006	53		 push	 ebx
  00007	56		 push	 esi
  00008	57		 push	 edi

; 75   : 
; 76   : 	float
; 77   : 		x1,
; 78   : 		y1,
; 79   : 		x2,
; 80   : 		y2;
; 81   : 
; 82   : 	area_ui_object
; 83   : 		*area;
; 84   : 
; 85   : 	unsigned short int
; 86   : 		*graphic;
; 87   : 
; 88   : 	int
; 89   : 		x_size,
; 90   : 		y_size;
; 91   : 
; 92   : 	menu_ui_object
; 93   : 		*menu;
; 94   : 
; 95   : 	struct SCREEN
; 96   : 		*old_active_screen;
; 97   : 
; 98   : 	menu = (menu_ui_object *) obj->data;

  00009	8b 45 08	 mov	 eax, DWORD PTR _obj$[ebp]
  0000c	8b 48 04	 mov	 ecx, DWORD PTR [eax+4]
  0000f	89 4d dc	 mov	 DWORD PTR _menu$[ebp], ecx

; 99   : 
; 100  : 	if (get_ui_object_redraw (obj))

  00012	8b 45 08	 mov	 eax, DWORD PTR _obj$[ebp]
  00015	50		 push	 eax
  00016	8b 4d 08	 mov	 ecx, DWORD PTR _obj$[ebp]
  00019	8b 11		 mov	 edx, DWORD PTR [ecx]
  0001b	8b 04 95 00 00
	00 00		 mov	 eax, DWORD PTR ?fn_get_ui_object_redraw@@3PAP6GHPAUUI_OBJECT@@@ZA[edx*4]
  00022	ff d0		 call	 eax
  00024	85 c0		 test	 eax, eax
  00026	0f 84 b8 02 00
	00		 je	 $LN2@draw_menu_

; 101  : 	{
; 102  : 
; 103  : 		area = (area_ui_object *) obj->data;

  0002c	8b 45 08	 mov	 eax, DWORD PTR _obj$[ebp]
  0002f	8b 48 04	 mov	 ecx, DWORD PTR [eax+4]
  00032	89 4d ec	 mov	 DWORD PTR _area$[ebp], ecx

; 104  : 	
; 105  : 		x1 = get_ui_object_x (obj);

  00035	8b 45 08	 mov	 eax, DWORD PTR _obj$[ebp]
  00038	50		 push	 eax
  00039	8b 4d 08	 mov	 ecx, DWORD PTR _obj$[ebp]
  0003c	8b 11		 mov	 edx, DWORD PTR [ecx]
  0003e	8b 04 95 00 00
	00 00		 mov	 eax, DWORD PTR ?fn_get_ui_object_x@@3PAP6GMPAUUI_OBJECT@@@ZA[edx*4]
  00045	ff d0		 call	 eax
  00047	d9 5d fc	 fstp	 DWORD PTR _x1$[ebp]

; 106  : 
; 107  : 		y1 = get_ui_object_y (obj);

  0004a	8b 45 08	 mov	 eax, DWORD PTR _obj$[ebp]
  0004d	50		 push	 eax
  0004e	8b 4d 08	 mov	 ecx, DWORD PTR _obj$[ebp]
  00051	8b 11		 mov	 edx, DWORD PTR [ecx]
  00053	8b 04 95 00 00
	00 00		 mov	 eax, DWORD PTR ?fn_get_ui_object_y@@3PAP6GMPAUUI_OBJECT@@@ZA[edx*4]
  0005a	ff d0		 call	 eax
  0005c	d9 5d f8	 fstp	 DWORD PTR _y1$[ebp]

; 108  : 
; 109  : 		x_size = get_ui_object_x_size (obj);

  0005f	8b 45 08	 mov	 eax, DWORD PTR _obj$[ebp]
  00062	50		 push	 eax
  00063	8b 4d 08	 mov	 ecx, DWORD PTR _obj$[ebp]
  00066	8b 11		 mov	 edx, DWORD PTR [ecx]
  00068	8b 04 95 00 00
	00 00		 mov	 eax, DWORD PTR ?fn_get_ui_object_x_size@@3PAP6GMPAUUI_OBJECT@@@ZA[edx*4]
  0006f	ff d0		 call	 eax
  00071	e8 00 00 00 00	 call	 __ftol2_sse
  00076	89 45 e4	 mov	 DWORD PTR _x_size$[ebp], eax

; 110  : 
; 111  : 		y_size = get_ui_object_y_size (obj);

  00079	8b 45 08	 mov	 eax, DWORD PTR _obj$[ebp]
  0007c	50		 push	 eax
  0007d	8b 4d 08	 mov	 ecx, DWORD PTR _obj$[ebp]
  00080	8b 11		 mov	 edx, DWORD PTR [ecx]
  00082	8b 04 95 00 00
	00 00		 mov	 eax, DWORD PTR ?fn_get_ui_object_y_size@@3PAP6GMPAUUI_OBJECT@@@ZA[edx*4]
  00089	ff d0		 call	 eax
  0008b	e8 00 00 00 00	 call	 __ftol2_sse
  00090	89 45 e0	 mov	 DWORD PTR _y_size$[ebp], eax

; 112  : 	
; 113  : 		x2 = x1 + x_size;

  00093	f3 0f 2a 45 e4	 cvtsi2ss xmm0, DWORD PTR _x_size$[ebp]
  00098	f3 0f 58 45 fc	 addss	 xmm0, DWORD PTR _x1$[ebp]
  0009d	f3 0f 11 45 f4	 movss	 DWORD PTR _x2$[ebp], xmm0

; 114  : 
; 115  : 		y2 = y1 + y_size;

  000a2	f3 0f 2a 45 e0	 cvtsi2ss xmm0, DWORD PTR _y_size$[ebp]
  000a7	f3 0f 58 45 f8	 addss	 xmm0, DWORD PTR _y1$[ebp]
  000ac	f3 0f 11 45 f0	 movss	 DWORD PTR _y2$[ebp], xmm0

; 116  : 
; 117  : 		graphic = get_ui_object_graphic (obj);

  000b1	8b 45 08	 mov	 eax, DWORD PTR _obj$[ebp]
  000b4	50		 push	 eax
  000b5	8b 4d 08	 mov	 ecx, DWORD PTR _obj$[ebp]
  000b8	8b 11		 mov	 edx, DWORD PTR [ecx]
  000ba	8b 04 95 00 00
	00 00		 mov	 eax, DWORD PTR ?fn_get_ui_object_graphic@@3PAP6GPAGPAUUI_OBJECT@@@ZA[edx*4]
  000c1	ff d0		 call	 eax
  000c3	89 45 e8	 mov	 DWORD PTR _graphic$[ebp], eax

; 118  : 
; 119  : 		if (graphic)

  000c6	83 7d e8 00	 cmp	 DWORD PTR _graphic$[ebp], 0
  000ca	74 13		 je	 SHORT $LN3@draw_menu_

; 120  : 		{
; 121  : 
; 122  : 			pretouch_memory ((char *) graphic, x_size * y_size * 2);

  000cc	8b 45 e4	 mov	 eax, DWORD PTR _x_size$[ebp]
  000cf	0f af 45 e0	 imul	 eax, DWORD PTR _y_size$[ebp]
  000d3	d1 e0		 shl	 eax, 1
  000d5	50		 push	 eax
  000d6	8b 4d e8	 mov	 ecx, DWORD PTR _graphic$[ebp]
  000d9	51		 push	 ecx
  000da	e8 00 00 00 00	 call	 ?pretouch_memory@@YGXPADH@Z ; pretouch_memory
$LN3@draw_menu_:

; 123  : 		}
; 124  : 
; 125  : 		old_active_screen = get_active_screen ();

  000df	e8 00 00 00 00	 call	 ?get_active_screen@@YGPAUSCREEN@@XZ ; get_active_screen
  000e4	89 45 d8	 mov	 DWORD PTR _old_active_screen$[ebp], eax

; 126  : 
; 127  : 		if (get_ui_object_active_screen (obj))

  000e7	8b 45 08	 mov	 eax, DWORD PTR _obj$[ebp]
  000ea	50		 push	 eax
  000eb	8b 4d 08	 mov	 ecx, DWORD PTR _obj$[ebp]
  000ee	8b 11		 mov	 edx, DWORD PTR [ecx]
  000f0	8b 04 95 00 00
	00 00		 mov	 eax, DWORD PTR ?fn_get_ui_object_active_screen@@3PAP6GPAUSCREEN@@PAUUI_OBJECT@@@ZA[edx*4]
  000f7	ff d0		 call	 eax
  000f9	85 c0		 test	 eax, eax
  000fb	74 1a		 je	 SHORT $LN4@draw_menu_

; 128  : 		{
; 129  : 	
; 130  : 			set_active_screen (get_ui_object_active_screen (obj));

  000fd	8b 45 08	 mov	 eax, DWORD PTR _obj$[ebp]
  00100	50		 push	 eax
  00101	8b 4d 08	 mov	 ecx, DWORD PTR _obj$[ebp]
  00104	8b 11		 mov	 edx, DWORD PTR [ecx]
  00106	8b 04 95 00 00
	00 00		 mov	 eax, DWORD PTR ?fn_get_ui_object_active_screen@@3PAP6GPAUSCREEN@@PAUUI_OBJECT@@@ZA[edx*4]
  0010d	ff d0		 call	 eax
  0010f	50		 push	 eax
  00110	e8 00 00 00 00	 call	 ?set_active_screen@@YGHPAUSCREEN@@@Z ; set_active_screen

; 131  : 		}
; 132  : 		else

  00115	eb 0b		 jmp	 SHORT $LN5@draw_menu_
$LN4@draw_menu_:

; 133  : 		{
; 134  : 
; 135  : 			set_active_screen (video_screen);

  00117	a1 00 00 00 00	 mov	 eax, DWORD PTR ?video_screen@@3PAUSCREEN@@A ; video_screen
  0011c	50		 push	 eax
  0011d	e8 00 00 00 00	 call	 ?set_active_screen@@YGHPAUSCREEN@@@Z ; set_active_screen
$LN5@draw_menu_:

; 136  : 		}
; 137  : 
; 138  : 		//if (lock_screen (active_screen))
; 139  : 		{
; 140  : 		
; 141  : 			set_viewport (x1, y1, x2, y2);

  00122	51		 push	 ecx
  00123	f3 0f 10 45 f0	 movss	 xmm0, DWORD PTR _y2$[ebp]
  00128	f3 0f 11 04 24	 movss	 DWORD PTR [esp], xmm0
  0012d	51		 push	 ecx
  0012e	f3 0f 10 45 f4	 movss	 xmm0, DWORD PTR _x2$[ebp]
  00133	f3 0f 11 04 24	 movss	 DWORD PTR [esp], xmm0
  00138	51		 push	 ecx
  00139	f3 0f 10 45 f8	 movss	 xmm0, DWORD PTR _y1$[ebp]
  0013e	f3 0f 11 04 24	 movss	 DWORD PTR [esp], xmm0
  00143	51		 push	 ecx
  00144	f3 0f 10 45 fc	 movss	 xmm0, DWORD PTR _x1$[ebp]
  00149	f3 0f 11 04 24	 movss	 DWORD PTR [esp], xmm0
  0014e	e8 00 00 00 00	 call	 ?set_viewport@@YGXMMMM@Z ; set_viewport

; 142  : 		
; 143  : 			ui_set_origin (x1, y1);

  00153	51		 push	 ecx
  00154	f3 0f 10 45 f8	 movss	 xmm0, DWORD PTR _y1$[ebp]
  00159	f3 0f 11 04 24	 movss	 DWORD PTR [esp], xmm0
  0015e	51		 push	 ecx
  0015f	f3 0f 10 45 fc	 movss	 xmm0, DWORD PTR _x1$[ebp]
  00164	f3 0f 11 04 24	 movss	 DWORD PTR [esp], xmm0
  00169	e8 00 00 00 00	 call	 ?ui_set_origin@@YGXMM@Z	; ui_set_origin

; 144  : 		
; 145  : 			if (graphic)

  0016e	83 7d e8 00	 cmp	 DWORD PTR _graphic$[ebp], 0
  00172	74 37		 je	 SHORT $LN6@draw_menu_

; 146  : 			{
; 147  : 	
; 148  : 				ui_draw_graphic (x1, y1, x2, y2, graphic);

  00174	8b 45 e8	 mov	 eax, DWORD PTR _graphic$[ebp]
  00177	50		 push	 eax
  00178	51		 push	 ecx
  00179	f3 0f 10 45 f0	 movss	 xmm0, DWORD PTR _y2$[ebp]
  0017e	f3 0f 11 04 24	 movss	 DWORD PTR [esp], xmm0
  00183	51		 push	 ecx
  00184	f3 0f 10 45 f4	 movss	 xmm0, DWORD PTR _x2$[ebp]
  00189	f3 0f 11 04 24	 movss	 DWORD PTR [esp], xmm0
  0018e	51		 push	 ecx
  0018f	f3 0f 10 45 f8	 movss	 xmm0, DWORD PTR _y1$[ebp]
  00194	f3 0f 11 04 24	 movss	 DWORD PTR [esp], xmm0
  00199	51		 push	 ecx
  0019a	f3 0f 10 45 fc	 movss	 xmm0, DWORD PTR _x1$[ebp]
  0019f	f3 0f 11 04 24	 movss	 DWORD PTR [esp], xmm0
  001a4	e8 00 00 00 00	 call	 ?ui_draw_graphic@@YGXMMMMPAG@Z ; ui_draw_graphic

; 149  : 			}
; 150  : 			else

  001a9	eb 69		 jmp	 SHORT $LN7@draw_menu_
$LN6@draw_menu_:

; 151  : 			{
; 152  : 
; 153  : 				int
; 154  : 					state;
; 155  : 
; 156  : 				if (get_ui_object_highlighted (obj))

  001ab	8b 45 08	 mov	 eax, DWORD PTR _obj$[ebp]
  001ae	50		 push	 eax
  001af	8b 4d 08	 mov	 ecx, DWORD PTR _obj$[ebp]
  001b2	8b 11		 mov	 edx, DWORD PTR [ecx]
  001b4	8b 04 95 00 00
	00 00		 mov	 eax, DWORD PTR ?fn_get_ui_object_highlighted@@3PAP6GHPAUUI_OBJECT@@@ZA[edx*4]
  001bb	ff d0		 call	 eax
  001bd	85 c0		 test	 eax, eax
  001bf	74 09		 je	 SHORT $LN8@draw_menu_

; 157  : 				{
; 158  : 
; 159  : 					state = UI_OBJECT_STATE_HIGHLIGHTED;

  001c1	c7 45 d4 02 00
	00 00		 mov	 DWORD PTR _state$1[ebp], 2

; 160  : 				}
; 161  : 				else

  001c8	eb 15		 jmp	 SHORT $LN9@draw_menu_
$LN8@draw_menu_:

; 162  : 				{
; 163  : 
; 164  : 					state = get_ui_object_state (obj);

  001ca	8b 45 08	 mov	 eax, DWORD PTR _obj$[ebp]
  001cd	50		 push	 eax
  001ce	8b 4d 08	 mov	 ecx, DWORD PTR _obj$[ebp]
  001d1	8b 11		 mov	 edx, DWORD PTR [ecx]
  001d3	8b 04 95 00 00
	00 00		 mov	 eax, DWORD PTR ?fn_get_ui_object_state@@3PAP6GHPAUUI_OBJECT@@@ZA[edx*4]
  001da	ff d0		 call	 eax
  001dc	89 45 d4	 mov	 DWORD PTR _state$1[ebp], eax
$LN9@draw_menu_:

; 165  : 				}
; 166  : 				
; 167  : 				ui_draw_area (x1, y1, x2, y2, obj);

  001df	8b 45 08	 mov	 eax, DWORD PTR _obj$[ebp]
  001e2	50		 push	 eax
  001e3	51		 push	 ecx
  001e4	f3 0f 10 45 f0	 movss	 xmm0, DWORD PTR _y2$[ebp]
  001e9	f3 0f 11 04 24	 movss	 DWORD PTR [esp], xmm0
  001ee	51		 push	 ecx
  001ef	f3 0f 10 45 f4	 movss	 xmm0, DWORD PTR _x2$[ebp]
  001f4	f3 0f 11 04 24	 movss	 DWORD PTR [esp], xmm0
  001f9	51		 push	 ecx
  001fa	f3 0f 10 45 f8	 movss	 xmm0, DWORD PTR _y1$[ebp]
  001ff	f3 0f 11 04 24	 movss	 DWORD PTR [esp], xmm0
  00204	51		 push	 ecx
  00205	f3 0f 10 45 fc	 movss	 xmm0, DWORD PTR _x1$[ebp]
  0020a	f3 0f 11 04 24	 movss	 DWORD PTR [esp], xmm0
  0020f	e8 00 00 00 00	 call	 ?ui_draw_area@@YGXMMMMPAUUI_OBJECT@@@Z ; ui_draw_area
$LN7@draw_menu_:

; 168  : 			}
; 169  : 	
; 170  : 			set_viewport (x1 + 1, y1 + 1, x2 - 1, y2 - 1);

  00214	f3 0f 10 45 f0	 movss	 xmm0, DWORD PTR _y2$[ebp]
  00219	f3 0f 5c 05 00
	00 00 00	 subss	 xmm0, DWORD PTR __real@3f800000
  00221	51		 push	 ecx
  00222	f3 0f 11 04 24	 movss	 DWORD PTR [esp], xmm0
  00227	f3 0f 10 45 f4	 movss	 xmm0, DWORD PTR _x2$[ebp]
  0022c	f3 0f 5c 05 00
	00 00 00	 subss	 xmm0, DWORD PTR __real@3f800000
  00234	51		 push	 ecx
  00235	f3 0f 11 04 24	 movss	 DWORD PTR [esp], xmm0
  0023a	f3 0f 10 45 f8	 movss	 xmm0, DWORD PTR _y1$[ebp]
  0023f	f3 0f 58 05 00
	00 00 00	 addss	 xmm0, DWORD PTR __real@3f800000
  00247	51		 push	 ecx
  00248	f3 0f 11 04 24	 movss	 DWORD PTR [esp], xmm0
  0024d	f3 0f 10 45 fc	 movss	 xmm0, DWORD PTR _x1$[ebp]
  00252	f3 0f 58 05 00
	00 00 00	 addss	 xmm0, DWORD PTR __real@3f800000
  0025a	51		 push	 ecx
  0025b	f3 0f 11 04 24	 movss	 DWORD PTR [esp], xmm0
  00260	e8 00 00 00 00	 call	 ?set_viewport@@YGXMMMM@Z ; set_viewport

; 171  : 		
; 172  : 			ui_set_origin (x1 + 1, y1 + 1);

  00265	f3 0f 10 45 f8	 movss	 xmm0, DWORD PTR _y1$[ebp]
  0026a	f3 0f 58 05 00
	00 00 00	 addss	 xmm0, DWORD PTR __real@3f800000
  00272	51		 push	 ecx
  00273	f3 0f 11 04 24	 movss	 DWORD PTR [esp], xmm0
  00278	f3 0f 10 45 fc	 movss	 xmm0, DWORD PTR _x1$[ebp]
  0027d	f3 0f 58 05 00
	00 00 00	 addss	 xmm0, DWORD PTR __real@3f800000
  00285	51		 push	 ecx
  00286	f3 0f 11 04 24	 movss	 DWORD PTR [esp], xmm0
  0028b	e8 00 00 00 00	 call	 ?ui_set_origin@@YGXMM@Z	; ui_set_origin

; 173  : 		
; 174  : 			//unlock_screen (active_screen);
; 175  : 		}
; 176  : 
; 177  : 		set_active_screen (old_active_screen);

  00290	8b 45 d8	 mov	 eax, DWORD PTR _old_active_screen$[ebp]
  00293	50		 push	 eax
  00294	e8 00 00 00 00	 call	 ?set_active_screen@@YGHPAUSCREEN@@@Z ; set_active_screen

; 178  : 	
; 179  : 		set_ui_repaint_area (x1, y1, x2, y2);

  00299	f3 0f 2c 45 f0	 cvttss2si eax, DWORD PTR _y2$[ebp]
  0029e	50		 push	 eax
  0029f	f3 0f 2c 4d f4	 cvttss2si ecx, DWORD PTR _x2$[ebp]
  002a4	51		 push	 ecx
  002a5	f3 0f 2c 55 f8	 cvttss2si edx, DWORD PTR _y1$[ebp]
  002aa	52		 push	 edx
  002ab	f3 0f 2c 45 fc	 cvttss2si eax, DWORD PTR _x1$[ebp]
  002b0	50		 push	 eax
  002b1	e8 00 00 00 00	 call	 ?set_ui_repaint_area@@YGXHHHH@Z ; set_ui_repaint_area

; 180  : 
; 181  : 		menu->area.redraw --;

  002b6	8b 45 dc	 mov	 eax, DWORD PTR _menu$[ebp]
  002b9	8b 48 4c	 mov	 ecx, DWORD PTR [eax+76]
  002bc	c1 e9 07	 shr	 ecx, 7
  002bf	81 e1 ff 00 00
	00		 and	 ecx, 255		; 000000ffH
  002c5	83 e9 01	 sub	 ecx, 1
  002c8	81 e1 ff 00 00
	00		 and	 ecx, 255		; 000000ffH
  002ce	c1 e1 07	 shl	 ecx, 7
  002d1	8b 55 dc	 mov	 edx, DWORD PTR _menu$[ebp]
  002d4	8b 42 4c	 mov	 eax, DWORD PTR [edx+76]
  002d7	25 7f 80 ff ff	 and	 eax, -32641		; ffff807fH
  002dc	0b c1		 or	 eax, ecx
  002de	8b 4d dc	 mov	 ecx, DWORD PTR _menu$[ebp]
  002e1	89 41 4c	 mov	 DWORD PTR [ecx+76], eax
$LN2@draw_menu_:

; 182  : 	}
; 183  : }

  002e4	5f		 pop	 edi
  002e5	5e		 pop	 esi
  002e6	5b		 pop	 ebx
  002e7	8b e5		 mov	 esp, ebp
  002e9	5d		 pop	 ebp
  002ea	c2 04 00	 ret	 4
?draw_menu_ui_object@@YGXPAUUI_OBJECT@@@Z ENDP		; draw_menu_ui_object
_TEXT	ENDS
; Function compile flags: /Odtp /ZI
; File c:\users\nhv90\projects\eech\modules\userint2\ui_obj\menu\me_draw.c
;	COMDAT ?overload_menu_ui_object_draw_functions@@YGXH@Z
_TEXT	SEGMENT
_type$ = 8						; size = 4
?overload_menu_ui_object_draw_functions@@YGXH@Z PROC	; overload_menu_ui_object_draw_functions, COMDAT

; 190  : {

  00000	55		 push	 ebp
  00001	8b ec		 mov	 ebp, esp
  00003	83 ec 40	 sub	 esp, 64			; 00000040H
  00006	53		 push	 ebx
  00007	56		 push	 esi
  00008	57		 push	 edi

; 191  : 
; 192  : 	fn_draw_ui_object [type] = draw_menu_ui_object;

  00009	8b 45 08	 mov	 eax, DWORD PTR _type$[ebp]
  0000c	c7 04 85 00 00
	00 00 00 00 00
	00		 mov	 DWORD PTR ?fn_draw_ui_object@@3PAP6GXPAUUI_OBJECT@@@ZA[eax*4], OFFSET ?draw_menu_ui_object@@YGXPAUUI_OBJECT@@@Z ; draw_menu_ui_object

; 193  : }

  00017	5f		 pop	 edi
  00018	5e		 pop	 esi
  00019	5b		 pop	 ebx
  0001a	8b e5		 mov	 esp, ebp
  0001c	5d		 pop	 ebp
  0001d	c2 04 00	 ret	 4
?overload_menu_ui_object_draw_functions@@YGXH@Z ENDP	; overload_menu_ui_object_draw_functions
_TEXT	ENDS
END
