; Listing generated by Microsoft (R) Optimizing Compiler Version 19.16.27045.0 

	TITLE	C:\Users\nhv90\Projects\eech\modules\userint2\ui_obj\menu\me_updt.c
	.686P
	.XMM
	include listing.inc
	.model	flat

INCLUDELIB MSVCRTD
INCLUDELIB OLDNAMES

PUBLIC	?overload_menu_ui_object_update_functions@@YGXH@Z ; overload_menu_ui_object_update_functions
EXTRN	?set_viewport@@YGXMMMM@Z:PROC			; set_viewport
EXTRN	?ui_set_origin@@YGXMM@Z:PROC			; ui_set_origin
EXTRN	?ui_clip_area@@YGHPAM000@Z:PROC			; ui_clip_area
EXTRN	?fn_draw_ui_object@@3PAP6GXPAUUI_OBJECT@@@ZA:BYTE ; fn_draw_ui_object
EXTRN	?fn_get_ui_object_x@@3PAP6GMPAUUI_OBJECT@@@ZA:BYTE ; fn_get_ui_object_x
EXTRN	?fn_get_ui_object_y@@3PAP6GMPAUUI_OBJECT@@@ZA:BYTE ; fn_get_ui_object_y
EXTRN	?fn_get_ui_object_x_size@@3PAP6GMPAUUI_OBJECT@@@ZA:BYTE ; fn_get_ui_object_x_size
EXTRN	?fn_get_ui_object_y_size@@3PAP6GMPAUUI_OBJECT@@@ZA:BYTE ; fn_get_ui_object_y_size
EXTRN	?fn_get_ui_object_x_origin@@3PAP6GMPAUUI_OBJECT@@@ZA:BYTE ; fn_get_ui_object_x_origin
EXTRN	?fn_get_ui_object_y_origin@@3PAP6GMPAUUI_OBJECT@@@ZA:BYTE ; fn_get_ui_object_y_origin
EXTRN	?fn_get_ui_object_parent@@3PAP6GPAUUI_OBJECT@@PAU1@@ZA:BYTE ; fn_get_ui_object_parent
EXTRN	?fn_update_ui_object@@3PAP6GXPAUUI_OBJECT@@@ZA:BYTE ; fn_update_ui_object
EXTRN	__fltused:DWORD
; Function compile flags: /Odtp /ZI
; File c:\users\nhv90\projects\eech\modules\userint2\ui_obj\menu\me_updt.c
;	COMDAT ?update_menu_ui_object@@YGXPAUUI_OBJECT@@@Z
_TEXT	SEGMENT
tv575 = -124						; size = 4
tv567 = -124						; size = 4
tv543 = -124						; size = 4
tv535 = -124						; size = 4
tv469 = -124						; size = 4
tv461 = -124						; size = 4
tv394 = -124						; size = 4
tv386 = -124						; size = 4
_area$ = -56						; size = 4
_parent$ = -52						; size = 4
_grand_parent$ = -48					; size = 4
_stack_head$ = -44					; size = 4
_grand_parent_y_origin$ = -40				; size = 4
_grand_parent_x_origin$ = -36				; size = 4
_parent_y2$ = -32					; size = 4
_parent_x2$ = -28					; size = 4
_parent_y1$ = -24					; size = 4
_parent_x1$ = -20					; size = 4
_y2$ = -16						; size = 4
_x2$ = -12						; size = 4
_y1$ = -8						; size = 4
_x1$ = -4						; size = 4
_obj$ = 8						; size = 4
?update_menu_ui_object@@YGXPAUUI_OBJECT@@@Z PROC	; update_menu_ui_object, COMDAT

; 74   : {

  00000	55		 push	 ebp
  00001	8b ec		 mov	 ebp, esp
  00003	83 ec 7c	 sub	 esp, 124		; 0000007cH
  00006	53		 push	 ebx
  00007	56		 push	 esi
  00008	57		 push	 edi

; 75   : 
; 76   : 	float
; 77   : 		x1,
; 78   : 		y1,
; 79   : 		x2,
; 80   : 		y2,
; 81   : 		parent_x1,
; 82   : 		parent_y1,
; 83   : 		parent_x2,
; 84   : 		parent_y2,
; 85   : 		grand_parent_x_origin = 0.0,

  00009	0f 57 c0	 xorps	 xmm0, xmm0
  0000c	f3 0f 11 45 dc	 movss	 DWORD PTR _grand_parent_x_origin$[ebp], xmm0

; 86   : 		grand_parent_y_origin = 0.0;

  00011	0f 57 c0	 xorps	 xmm0, xmm0
  00014	f3 0f 11 45 d8	 movss	 DWORD PTR _grand_parent_y_origin$[ebp], xmm0

; 87   : 
; 88   : 	ui_object
; 89   : 		*stack_head,
; 90   : 		*grand_parent,
; 91   : 		*parent;
; 92   : 
; 93   :    area_ui_object
; 94   :       *area;
; 95   : 
; 96   :    area = (area_ui_object *) obj->data;

  00019	8b 45 08	 mov	 eax, DWORD PTR _obj$[ebp]
  0001c	8b 48 04	 mov	 ecx, DWORD PTR [eax+4]
  0001f	89 4d c8	 mov	 DWORD PTR _area$[ebp], ecx

; 97   : 
; 98   : 	// store parents viewport data
; 99   : 
; 100  : 	parent = get_ui_object_parent (obj);

  00022	8b 45 08	 mov	 eax, DWORD PTR _obj$[ebp]
  00025	50		 push	 eax
  00026	8b 4d 08	 mov	 ecx, DWORD PTR _obj$[ebp]
  00029	8b 11		 mov	 edx, DWORD PTR [ecx]
  0002b	8b 04 95 00 00
	00 00		 mov	 eax, DWORD PTR ?fn_get_ui_object_parent@@3PAP6GPAUUI_OBJECT@@PAU1@@ZA[edx*4]
  00032	ff d0		 call	 eax
  00034	89 45 cc	 mov	 DWORD PTR _parent$[ebp], eax

; 101  : 
; 102  : 	grand_parent = get_ui_object_parent (parent);

  00037	8b 45 cc	 mov	 eax, DWORD PTR _parent$[ebp]
  0003a	50		 push	 eax
  0003b	8b 4d cc	 mov	 ecx, DWORD PTR _parent$[ebp]
  0003e	8b 11		 mov	 edx, DWORD PTR [ecx]
  00040	8b 04 95 00 00
	00 00		 mov	 eax, DWORD PTR ?fn_get_ui_object_parent@@3PAP6GPAUUI_OBJECT@@PAU1@@ZA[edx*4]
  00047	ff d0		 call	 eax
  00049	89 45 d0	 mov	 DWORD PTR _grand_parent$[ebp], eax

; 103  : 
; 104  : 	if (parent)

  0004c	83 7d cc 00	 cmp	 DWORD PTR _parent$[ebp], 0
  00050	0f 84 67 01 00
	00		 je	 $LN2@update_men

; 105  : 	{
; 106  : 	
; 107  :   		if (grand_parent)

  00056	83 7d d0 00	 cmp	 DWORD PTR _grand_parent$[ebp], 0
  0005a	74 2a		 je	 SHORT $LN3@update_men

; 108  : 		{
; 109  : 	
; 110  : 			grand_parent_x_origin = get_ui_object_x_origin (grand_parent);

  0005c	8b 45 d0	 mov	 eax, DWORD PTR _grand_parent$[ebp]
  0005f	50		 push	 eax
  00060	8b 4d d0	 mov	 ecx, DWORD PTR _grand_parent$[ebp]
  00063	8b 11		 mov	 edx, DWORD PTR [ecx]
  00065	8b 04 95 00 00
	00 00		 mov	 eax, DWORD PTR ?fn_get_ui_object_x_origin@@3PAP6GMPAUUI_OBJECT@@@ZA[edx*4]
  0006c	ff d0		 call	 eax
  0006e	d9 5d dc	 fstp	 DWORD PTR _grand_parent_x_origin$[ebp]

; 111  : 
; 112  : 			grand_parent_y_origin = get_ui_object_y_origin (grand_parent);

  00071	8b 45 d0	 mov	 eax, DWORD PTR _grand_parent$[ebp]
  00074	50		 push	 eax
  00075	8b 4d d0	 mov	 ecx, DWORD PTR _grand_parent$[ebp]
  00078	8b 11		 mov	 edx, DWORD PTR [ecx]
  0007a	8b 04 95 00 00
	00 00		 mov	 eax, DWORD PTR ?fn_get_ui_object_y_origin@@3PAP6GMPAUUI_OBJECT@@@ZA[edx*4]
  00081	ff d0		 call	 eax
  00083	d9 5d d8	 fstp	 DWORD PTR _grand_parent_y_origin$[ebp]
$LN3@update_men:

; 113  : 		}
; 114  : 
; 115  : 		ui_set_origin (grand_parent_x_origin, grand_parent_y_origin);

  00086	51		 push	 ecx
  00087	f3 0f 10 45 d8	 movss	 xmm0, DWORD PTR _grand_parent_y_origin$[ebp]
  0008c	f3 0f 11 04 24	 movss	 DWORD PTR [esp], xmm0
  00091	51		 push	 ecx
  00092	f3 0f 10 45 dc	 movss	 xmm0, DWORD PTR _grand_parent_x_origin$[ebp]
  00097	f3 0f 11 04 24	 movss	 DWORD PTR [esp], xmm0
  0009c	e8 00 00 00 00	 call	 ?ui_set_origin@@YGXMM@Z	; ui_set_origin

; 116  : 
; 117  : 		parent_x1 = get_ui_object_x (parent);

  000a1	8b 45 cc	 mov	 eax, DWORD PTR _parent$[ebp]
  000a4	50		 push	 eax
  000a5	8b 4d cc	 mov	 ecx, DWORD PTR _parent$[ebp]
  000a8	8b 11		 mov	 edx, DWORD PTR [ecx]
  000aa	8b 04 95 00 00
	00 00		 mov	 eax, DWORD PTR ?fn_get_ui_object_x@@3PAP6GMPAUUI_OBJECT@@@ZA[edx*4]
  000b1	ff d0		 call	 eax
  000b3	d9 5d ec	 fstp	 DWORD PTR _parent_x1$[ebp]

; 118  : 
; 119  : 		parent_y1 = get_ui_object_y (parent);

  000b6	8b 45 cc	 mov	 eax, DWORD PTR _parent$[ebp]
  000b9	50		 push	 eax
  000ba	8b 4d cc	 mov	 ecx, DWORD PTR _parent$[ebp]
  000bd	8b 11		 mov	 edx, DWORD PTR [ecx]
  000bf	8b 04 95 00 00
	00 00		 mov	 eax, DWORD PTR ?fn_get_ui_object_y@@3PAP6GMPAUUI_OBJECT@@@ZA[edx*4]
  000c6	ff d0		 call	 eax
  000c8	d9 5d e8	 fstp	 DWORD PTR _parent_y1$[ebp]

; 120  : 
; 121  : 		parent_x2 = parent_x1 + get_ui_object_x_size (parent);

  000cb	8b 45 cc	 mov	 eax, DWORD PTR _parent$[ebp]
  000ce	50		 push	 eax
  000cf	8b 4d cc	 mov	 ecx, DWORD PTR _parent$[ebp]
  000d2	8b 11		 mov	 edx, DWORD PTR [ecx]
  000d4	8b 04 95 00 00
	00 00		 mov	 eax, DWORD PTR ?fn_get_ui_object_x_size@@3PAP6GMPAUUI_OBJECT@@@ZA[edx*4]
  000db	ff d0		 call	 eax
  000dd	d9 5d 84	 fstp	 DWORD PTR tv386[ebp]
  000e0	f3 0f 10 45 84	 movss	 xmm0, DWORD PTR tv386[ebp]
  000e5	f3 0f 58 45 ec	 addss	 xmm0, DWORD PTR _parent_x1$[ebp]
  000ea	f3 0f 11 45 e4	 movss	 DWORD PTR _parent_x2$[ebp], xmm0

; 122  : 
; 123  : 		parent_y2 = parent_y1 + get_ui_object_y_size (parent);

  000ef	8b 45 cc	 mov	 eax, DWORD PTR _parent$[ebp]
  000f2	50		 push	 eax
  000f3	8b 4d cc	 mov	 ecx, DWORD PTR _parent$[ebp]
  000f6	8b 11		 mov	 edx, DWORD PTR [ecx]
  000f8	8b 04 95 00 00
	00 00		 mov	 eax, DWORD PTR ?fn_get_ui_object_y_size@@3PAP6GMPAUUI_OBJECT@@@ZA[edx*4]
  000ff	ff d0		 call	 eax
  00101	d9 5d 84	 fstp	 DWORD PTR tv394[ebp]
  00104	f3 0f 10 45 84	 movss	 xmm0, DWORD PTR tv394[ebp]
  00109	f3 0f 58 45 e8	 addss	 xmm0, DWORD PTR _parent_y1$[ebp]
  0010e	f3 0f 11 45 e0	 movss	 DWORD PTR _parent_y2$[ebp], xmm0

; 124  : 
; 125  : 		x1 = parent_x1;

  00113	f3 0f 10 45 ec	 movss	 xmm0, DWORD PTR _parent_x1$[ebp]
  00118	f3 0f 11 45 fc	 movss	 DWORD PTR _x1$[ebp], xmm0

; 126  : 
; 127  : 		y1 = parent_y1;

  0011d	f3 0f 10 45 e8	 movss	 xmm0, DWORD PTR _parent_y1$[ebp]
  00122	f3 0f 11 45 f8	 movss	 DWORD PTR _y1$[ebp], xmm0

; 128  : 
; 129  : 		x2 = parent_x2;

  00127	f3 0f 10 45 e4	 movss	 xmm0, DWORD PTR _parent_x2$[ebp]
  0012c	f3 0f 11 45 f4	 movss	 DWORD PTR _x2$[ebp], xmm0

; 130  : 
; 131  : 		y2 = parent_y2;

  00131	f3 0f 10 45 e0	 movss	 xmm0, DWORD PTR _parent_y2$[ebp]
  00136	f3 0f 11 45 f0	 movss	 DWORD PTR _y2$[ebp], xmm0

; 132  : 
; 133  : 		ui_clip_area (&x1, &y1, &x2, &y2);

  0013b	8d 45 f0	 lea	 eax, DWORD PTR _y2$[ebp]
  0013e	50		 push	 eax
  0013f	8d 4d f4	 lea	 ecx, DWORD PTR _x2$[ebp]
  00142	51		 push	 ecx
  00143	8d 55 f8	 lea	 edx, DWORD PTR _y1$[ebp]
  00146	52		 push	 edx
  00147	8d 45 fc	 lea	 eax, DWORD PTR _x1$[ebp]
  0014a	50		 push	 eax
  0014b	e8 00 00 00 00	 call	 ?ui_clip_area@@YGHPAM000@Z ; ui_clip_area

; 134  : 
; 135  : 		x1 += grand_parent_x_origin;

  00150	f3 0f 10 45 fc	 movss	 xmm0, DWORD PTR _x1$[ebp]
  00155	f3 0f 58 45 dc	 addss	 xmm0, DWORD PTR _grand_parent_x_origin$[ebp]
  0015a	f3 0f 11 45 fc	 movss	 DWORD PTR _x1$[ebp], xmm0

; 136  : 
; 137  : 		y1 += grand_parent_y_origin;

  0015f	f3 0f 10 45 f8	 movss	 xmm0, DWORD PTR _y1$[ebp]
  00164	f3 0f 58 45 d8	 addss	 xmm0, DWORD PTR _grand_parent_y_origin$[ebp]
  00169	f3 0f 11 45 f8	 movss	 DWORD PTR _y1$[ebp], xmm0

; 138  : 
; 139  : 		x2 += grand_parent_x_origin;

  0016e	f3 0f 10 45 f4	 movss	 xmm0, DWORD PTR _x2$[ebp]
  00173	f3 0f 58 45 dc	 addss	 xmm0, DWORD PTR _grand_parent_x_origin$[ebp]
  00178	f3 0f 11 45 f4	 movss	 DWORD PTR _x2$[ebp], xmm0

; 140  : 
; 141  : 		y2 += grand_parent_y_origin;

  0017d	f3 0f 10 45 f0	 movss	 xmm0, DWORD PTR _y2$[ebp]
  00182	f3 0f 58 45 d8	 addss	 xmm0, DWORD PTR _grand_parent_y_origin$[ebp]
  00187	f3 0f 11 45 f0	 movss	 DWORD PTR _y2$[ebp], xmm0

; 142  : 
; 143  : 		set_viewport (x1, y1, x2, y2);

  0018c	51		 push	 ecx
  0018d	f3 0f 10 45 f0	 movss	 xmm0, DWORD PTR _y2$[ebp]
  00192	f3 0f 11 04 24	 movss	 DWORD PTR [esp], xmm0
  00197	51		 push	 ecx
  00198	f3 0f 10 45 f4	 movss	 xmm0, DWORD PTR _x2$[ebp]
  0019d	f3 0f 11 04 24	 movss	 DWORD PTR [esp], xmm0
  001a2	51		 push	 ecx
  001a3	f3 0f 10 45 f8	 movss	 xmm0, DWORD PTR _y1$[ebp]
  001a8	f3 0f 11 04 24	 movss	 DWORD PTR [esp], xmm0
  001ad	51		 push	 ecx
  001ae	f3 0f 10 45 fc	 movss	 xmm0, DWORD PTR _x1$[ebp]
  001b3	f3 0f 11 04 24	 movss	 DWORD PTR [esp], xmm0
  001b8	e8 00 00 00 00	 call	 ?set_viewport@@YGXMMMM@Z ; set_viewport
$LN2@update_men:

; 144  : 	}
; 145  : 
; 146  :    if (area->drawable)

  001bd	8b 45 c8	 mov	 eax, DWORD PTR _area$[ebp]
  001c0	8b 48 4c	 mov	 ecx, DWORD PTR [eax+76]
  001c3	c1 e9 05	 shr	 ecx, 5
  001c6	83 e1 01	 and	 ecx, 1
  001c9	74 12		 je	 SHORT $LN4@update_men

; 147  :    {
; 148  : 
; 149  :       draw_ui_object (obj);

  001cb	8b 45 08	 mov	 eax, DWORD PTR _obj$[ebp]
  001ce	50		 push	 eax
  001cf	8b 4d 08	 mov	 ecx, DWORD PTR _obj$[ebp]
  001d2	8b 11		 mov	 edx, DWORD PTR [ecx]
  001d4	8b 04 95 00 00
	00 00		 mov	 eax, DWORD PTR ?fn_draw_ui_object@@3PAP6GXPAUUI_OBJECT@@@ZA[edx*4]
  001db	ff d0		 call	 eax
$LN4@update_men:

; 150  : 	}
; 151  : 
; 152  : 	// and its list head
; 153  : 
; 154  : 	stack_head = obj->stack_head;

  001dd	8b 45 08	 mov	 eax, DWORD PTR _obj$[ebp]
  001e0	8b 48 10	 mov	 ecx, DWORD PTR [eax+16]
  001e3	89 4d d4	 mov	 DWORD PTR _stack_head$[ebp], ecx

; 155  : 
; 156  : 	if (stack_head)

  001e6	83 7d d4 00	 cmp	 DWORD PTR _stack_head$[ebp], 0
  001ea	0f 84 bb 01 00
	00		 je	 $LN8@update_men

; 157  : 	{
; 158  : 	
; 159  : 		parent = get_ui_object_parent (stack_head);

  001f0	8b 45 d4	 mov	 eax, DWORD PTR _stack_head$[ebp]
  001f3	50		 push	 eax
  001f4	8b 4d d4	 mov	 ecx, DWORD PTR _stack_head$[ebp]
  001f7	8b 11		 mov	 edx, DWORD PTR [ecx]
  001f9	8b 04 95 00 00
	00 00		 mov	 eax, DWORD PTR ?fn_get_ui_object_parent@@3PAP6GPAUUI_OBJECT@@PAU1@@ZA[edx*4]
  00200	ff d0		 call	 eax
  00202	89 45 cc	 mov	 DWORD PTR _parent$[ebp], eax

; 160  : 	
; 161  : 		grand_parent = get_ui_object_parent (parent);

  00205	8b 45 cc	 mov	 eax, DWORD PTR _parent$[ebp]
  00208	50		 push	 eax
  00209	8b 4d cc	 mov	 ecx, DWORD PTR _parent$[ebp]
  0020c	8b 11		 mov	 edx, DWORD PTR [ecx]
  0020e	8b 04 95 00 00
	00 00		 mov	 eax, DWORD PTR ?fn_get_ui_object_parent@@3PAP6GPAUUI_OBJECT@@PAU1@@ZA[edx*4]
  00215	ff d0		 call	 eax
  00217	89 45 d0	 mov	 DWORD PTR _grand_parent$[ebp], eax

; 162  : 	
; 163  : 		if (parent)

  0021a	83 7d cc 00	 cmp	 DWORD PTR _parent$[ebp], 0
  0021e	0f 84 67 01 00
	00		 je	 $LN6@update_men

; 164  : 		{
; 165  : 
; 166  : 			if (grand_parent)

  00224	83 7d d0 00	 cmp	 DWORD PTR _grand_parent$[ebp], 0
  00228	74 2a		 je	 SHORT $LN7@update_men

; 167  : 			{
; 168  : 		
; 169  : 				grand_parent_x_origin = get_ui_object_x_origin (grand_parent);

  0022a	8b 45 d0	 mov	 eax, DWORD PTR _grand_parent$[ebp]
  0022d	50		 push	 eax
  0022e	8b 4d d0	 mov	 ecx, DWORD PTR _grand_parent$[ebp]
  00231	8b 11		 mov	 edx, DWORD PTR [ecx]
  00233	8b 04 95 00 00
	00 00		 mov	 eax, DWORD PTR ?fn_get_ui_object_x_origin@@3PAP6GMPAUUI_OBJECT@@@ZA[edx*4]
  0023a	ff d0		 call	 eax
  0023c	d9 5d dc	 fstp	 DWORD PTR _grand_parent_x_origin$[ebp]

; 170  : 
; 171  : 				grand_parent_y_origin = get_ui_object_y_origin (grand_parent);

  0023f	8b 45 d0	 mov	 eax, DWORD PTR _grand_parent$[ebp]
  00242	50		 push	 eax
  00243	8b 4d d0	 mov	 ecx, DWORD PTR _grand_parent$[ebp]
  00246	8b 11		 mov	 edx, DWORD PTR [ecx]
  00248	8b 04 95 00 00
	00 00		 mov	 eax, DWORD PTR ?fn_get_ui_object_y_origin@@3PAP6GMPAUUI_OBJECT@@@ZA[edx*4]
  0024f	ff d0		 call	 eax
  00251	d9 5d d8	 fstp	 DWORD PTR _grand_parent_y_origin$[ebp]
$LN7@update_men:

; 172  : 			}
; 173  : 	
; 174  : 			ui_set_origin (grand_parent_x_origin, grand_parent_y_origin);

  00254	51		 push	 ecx
  00255	f3 0f 10 45 d8	 movss	 xmm0, DWORD PTR _grand_parent_y_origin$[ebp]
  0025a	f3 0f 11 04 24	 movss	 DWORD PTR [esp], xmm0
  0025f	51		 push	 ecx
  00260	f3 0f 10 45 dc	 movss	 xmm0, DWORD PTR _grand_parent_x_origin$[ebp]
  00265	f3 0f 11 04 24	 movss	 DWORD PTR [esp], xmm0
  0026a	e8 00 00 00 00	 call	 ?ui_set_origin@@YGXMM@Z	; ui_set_origin

; 175  : 
; 176  : 			parent_x1 = get_ui_object_x (parent);

  0026f	8b 45 cc	 mov	 eax, DWORD PTR _parent$[ebp]
  00272	50		 push	 eax
  00273	8b 4d cc	 mov	 ecx, DWORD PTR _parent$[ebp]
  00276	8b 11		 mov	 edx, DWORD PTR [ecx]
  00278	8b 04 95 00 00
	00 00		 mov	 eax, DWORD PTR ?fn_get_ui_object_x@@3PAP6GMPAUUI_OBJECT@@@ZA[edx*4]
  0027f	ff d0		 call	 eax
  00281	d9 5d ec	 fstp	 DWORD PTR _parent_x1$[ebp]

; 177  : 
; 178  : 			parent_y1 = get_ui_object_y (parent);

  00284	8b 45 cc	 mov	 eax, DWORD PTR _parent$[ebp]
  00287	50		 push	 eax
  00288	8b 4d cc	 mov	 ecx, DWORD PTR _parent$[ebp]
  0028b	8b 11		 mov	 edx, DWORD PTR [ecx]
  0028d	8b 04 95 00 00
	00 00		 mov	 eax, DWORD PTR ?fn_get_ui_object_y@@3PAP6GMPAUUI_OBJECT@@@ZA[edx*4]
  00294	ff d0		 call	 eax
  00296	d9 5d e8	 fstp	 DWORD PTR _parent_y1$[ebp]

; 179  : 
; 180  : 			parent_x2 = parent_x1 + get_ui_object_x_size (parent);

  00299	8b 45 cc	 mov	 eax, DWORD PTR _parent$[ebp]
  0029c	50		 push	 eax
  0029d	8b 4d cc	 mov	 ecx, DWORD PTR _parent$[ebp]
  002a0	8b 11		 mov	 edx, DWORD PTR [ecx]
  002a2	8b 04 95 00 00
	00 00		 mov	 eax, DWORD PTR ?fn_get_ui_object_x_size@@3PAP6GMPAUUI_OBJECT@@@ZA[edx*4]
  002a9	ff d0		 call	 eax
  002ab	d9 5d 84	 fstp	 DWORD PTR tv461[ebp]
  002ae	f3 0f 10 45 84	 movss	 xmm0, DWORD PTR tv461[ebp]
  002b3	f3 0f 58 45 ec	 addss	 xmm0, DWORD PTR _parent_x1$[ebp]
  002b8	f3 0f 11 45 e4	 movss	 DWORD PTR _parent_x2$[ebp], xmm0

; 181  : 
; 182  : 			parent_y2 = parent_y1 + get_ui_object_y_size (parent);

  002bd	8b 45 cc	 mov	 eax, DWORD PTR _parent$[ebp]
  002c0	50		 push	 eax
  002c1	8b 4d cc	 mov	 ecx, DWORD PTR _parent$[ebp]
  002c4	8b 11		 mov	 edx, DWORD PTR [ecx]
  002c6	8b 04 95 00 00
	00 00		 mov	 eax, DWORD PTR ?fn_get_ui_object_y_size@@3PAP6GMPAUUI_OBJECT@@@ZA[edx*4]
  002cd	ff d0		 call	 eax
  002cf	d9 5d 84	 fstp	 DWORD PTR tv469[ebp]
  002d2	f3 0f 10 45 84	 movss	 xmm0, DWORD PTR tv469[ebp]
  002d7	f3 0f 58 45 e8	 addss	 xmm0, DWORD PTR _parent_y1$[ebp]
  002dc	f3 0f 11 45 e0	 movss	 DWORD PTR _parent_y2$[ebp], xmm0

; 183  : 	
; 184  : 			x1 = parent_x1;

  002e1	f3 0f 10 45 ec	 movss	 xmm0, DWORD PTR _parent_x1$[ebp]
  002e6	f3 0f 11 45 fc	 movss	 DWORD PTR _x1$[ebp], xmm0

; 185  : 
; 186  : 			y1 = parent_y1;

  002eb	f3 0f 10 45 e8	 movss	 xmm0, DWORD PTR _parent_y1$[ebp]
  002f0	f3 0f 11 45 f8	 movss	 DWORD PTR _y1$[ebp], xmm0

; 187  : 
; 188  : 			x2 = parent_x2;

  002f5	f3 0f 10 45 e4	 movss	 xmm0, DWORD PTR _parent_x2$[ebp]
  002fa	f3 0f 11 45 f4	 movss	 DWORD PTR _x2$[ebp], xmm0

; 189  : 
; 190  : 			y2 = parent_y2;

  002ff	f3 0f 10 45 e0	 movss	 xmm0, DWORD PTR _parent_y2$[ebp]
  00304	f3 0f 11 45 f0	 movss	 DWORD PTR _y2$[ebp], xmm0

; 191  : 
; 192  : 			ui_clip_area (&x1, &y1, &x2, &y2);

  00309	8d 45 f0	 lea	 eax, DWORD PTR _y2$[ebp]
  0030c	50		 push	 eax
  0030d	8d 4d f4	 lea	 ecx, DWORD PTR _x2$[ebp]
  00310	51		 push	 ecx
  00311	8d 55 f8	 lea	 edx, DWORD PTR _y1$[ebp]
  00314	52		 push	 edx
  00315	8d 45 fc	 lea	 eax, DWORD PTR _x1$[ebp]
  00318	50		 push	 eax
  00319	e8 00 00 00 00	 call	 ?ui_clip_area@@YGHPAM000@Z ; ui_clip_area

; 193  : 	
; 194  : 			x1 += grand_parent_x_origin;

  0031e	f3 0f 10 45 fc	 movss	 xmm0, DWORD PTR _x1$[ebp]
  00323	f3 0f 58 45 dc	 addss	 xmm0, DWORD PTR _grand_parent_x_origin$[ebp]
  00328	f3 0f 11 45 fc	 movss	 DWORD PTR _x1$[ebp], xmm0

; 195  : 
; 196  : 			y1 += grand_parent_y_origin;

  0032d	f3 0f 10 45 f8	 movss	 xmm0, DWORD PTR _y1$[ebp]
  00332	f3 0f 58 45 d8	 addss	 xmm0, DWORD PTR _grand_parent_y_origin$[ebp]
  00337	f3 0f 11 45 f8	 movss	 DWORD PTR _y1$[ebp], xmm0

; 197  : 
; 198  : 			x2 += grand_parent_x_origin;

  0033c	f3 0f 10 45 f4	 movss	 xmm0, DWORD PTR _x2$[ebp]
  00341	f3 0f 58 45 dc	 addss	 xmm0, DWORD PTR _grand_parent_x_origin$[ebp]
  00346	f3 0f 11 45 f4	 movss	 DWORD PTR _x2$[ebp], xmm0

; 199  : 
; 200  : 			y2 += grand_parent_y_origin;

  0034b	f3 0f 10 45 f0	 movss	 xmm0, DWORD PTR _y2$[ebp]
  00350	f3 0f 58 45 d8	 addss	 xmm0, DWORD PTR _grand_parent_y_origin$[ebp]
  00355	f3 0f 11 45 f0	 movss	 DWORD PTR _y2$[ebp], xmm0

; 201  : 
; 202  : 			set_viewport (x1, y1, x2, y2);

  0035a	51		 push	 ecx
  0035b	f3 0f 10 45 f0	 movss	 xmm0, DWORD PTR _y2$[ebp]
  00360	f3 0f 11 04 24	 movss	 DWORD PTR [esp], xmm0
  00365	51		 push	 ecx
  00366	f3 0f 10 45 f4	 movss	 xmm0, DWORD PTR _x2$[ebp]
  0036b	f3 0f 11 04 24	 movss	 DWORD PTR [esp], xmm0
  00370	51		 push	 ecx
  00371	f3 0f 10 45 f8	 movss	 xmm0, DWORD PTR _y1$[ebp]
  00376	f3 0f 11 04 24	 movss	 DWORD PTR [esp], xmm0
  0037b	51		 push	 ecx
  0037c	f3 0f 10 45 fc	 movss	 xmm0, DWORD PTR _x1$[ebp]
  00381	f3 0f 11 04 24	 movss	 DWORD PTR [esp], xmm0
  00386	e8 00 00 00 00	 call	 ?set_viewport@@YGXMMMM@Z ; set_viewport
$LN6@update_men:

; 203  : 		}
; 204  : 	
; 205  : 		if (area->drawable)

  0038b	8b 45 c8	 mov	 eax, DWORD PTR _area$[ebp]
  0038e	8b 48 4c	 mov	 ecx, DWORD PTR [eax+76]
  00391	c1 e9 05	 shr	 ecx, 5
  00394	83 e1 01	 and	 ecx, 1
  00397	74 12		 je	 SHORT $LN8@update_men

; 206  : 		{
; 207  : 	
; 208  : 			draw_ui_object (stack_head);

  00399	8b 45 d4	 mov	 eax, DWORD PTR _stack_head$[ebp]
  0039c	50		 push	 eax
  0039d	8b 4d d4	 mov	 ecx, DWORD PTR _stack_head$[ebp]
  003a0	8b 11		 mov	 edx, DWORD PTR [ecx]
  003a2	8b 04 95 00 00
	00 00		 mov	 eax, DWORD PTR ?fn_draw_ui_object@@3PAP6GXPAUUI_OBJECT@@@ZA[edx*4]
  003a9	ff d0		 call	 eax
$LN8@update_men:

; 209  : 		}
; 210  : 	}
; 211  : 
; 212  : 	// list head end
; 213  : 
; 214  : 	if (area->next)

  003ab	8b 45 c8	 mov	 eax, DWORD PTR _area$[ebp]
  003ae	83 78 44 00	 cmp	 DWORD PTR [eax+68], 0
  003b2	0f 84 01 02 00
	00		 je	 $LN9@update_men

; 215  : 	{
; 216  : 
; 217  : 		parent = get_ui_object_parent (obj);

  003b8	8b 45 08	 mov	 eax, DWORD PTR _obj$[ebp]
  003bb	50		 push	 eax
  003bc	8b 4d 08	 mov	 ecx, DWORD PTR _obj$[ebp]
  003bf	8b 11		 mov	 edx, DWORD PTR [ecx]
  003c1	8b 04 95 00 00
	00 00		 mov	 eax, DWORD PTR ?fn_get_ui_object_parent@@3PAP6GPAUUI_OBJECT@@PAU1@@ZA[edx*4]
  003c8	ff d0		 call	 eax
  003ca	89 45 cc	 mov	 DWORD PTR _parent$[ebp], eax

; 218  : 
; 219  : 		grand_parent = get_ui_object_parent (parent);

  003cd	8b 45 cc	 mov	 eax, DWORD PTR _parent$[ebp]
  003d0	50		 push	 eax
  003d1	8b 4d cc	 mov	 ecx, DWORD PTR _parent$[ebp]
  003d4	8b 11		 mov	 edx, DWORD PTR [ecx]
  003d6	8b 04 95 00 00
	00 00		 mov	 eax, DWORD PTR ?fn_get_ui_object_parent@@3PAP6GPAUUI_OBJECT@@PAU1@@ZA[edx*4]
  003dd	ff d0		 call	 eax
  003df	89 45 d0	 mov	 DWORD PTR _grand_parent$[ebp], eax

; 220  : 
; 221  : 		if (parent)

  003e2	83 7d cc 00	 cmp	 DWORD PTR _parent$[ebp], 0
  003e6	0f 84 b5 01 00
	00		 je	 $LN10@update_men

; 222  : 		{
; 223  : 
; 224  : 			if (grand_parent)

  003ec	83 7d d0 00	 cmp	 DWORD PTR _grand_parent$[ebp], 0
  003f0	74 2a		 je	 SHORT $LN11@update_men

; 225  : 			{
; 226  : 		
; 227  : 				grand_parent_x_origin = get_ui_object_x_origin (grand_parent);

  003f2	8b 45 d0	 mov	 eax, DWORD PTR _grand_parent$[ebp]
  003f5	50		 push	 eax
  003f6	8b 4d d0	 mov	 ecx, DWORD PTR _grand_parent$[ebp]
  003f9	8b 11		 mov	 edx, DWORD PTR [ecx]
  003fb	8b 04 95 00 00
	00 00		 mov	 eax, DWORD PTR ?fn_get_ui_object_x_origin@@3PAP6GMPAUUI_OBJECT@@@ZA[edx*4]
  00402	ff d0		 call	 eax
  00404	d9 5d dc	 fstp	 DWORD PTR _grand_parent_x_origin$[ebp]

; 228  : 
; 229  : 				grand_parent_y_origin = get_ui_object_y_origin (grand_parent);

  00407	8b 45 d0	 mov	 eax, DWORD PTR _grand_parent$[ebp]
  0040a	50		 push	 eax
  0040b	8b 4d d0	 mov	 ecx, DWORD PTR _grand_parent$[ebp]
  0040e	8b 11		 mov	 edx, DWORD PTR [ecx]
  00410	8b 04 95 00 00
	00 00		 mov	 eax, DWORD PTR ?fn_get_ui_object_y_origin@@3PAP6GMPAUUI_OBJECT@@@ZA[edx*4]
  00417	ff d0		 call	 eax
  00419	d9 5d d8	 fstp	 DWORD PTR _grand_parent_y_origin$[ebp]
$LN11@update_men:

; 230  : 			}
; 231  : 
; 232  : 			ui_set_origin (grand_parent_x_origin, grand_parent_y_origin);

  0041c	51		 push	 ecx
  0041d	f3 0f 10 45 d8	 movss	 xmm0, DWORD PTR _grand_parent_y_origin$[ebp]
  00422	f3 0f 11 04 24	 movss	 DWORD PTR [esp], xmm0
  00427	51		 push	 ecx
  00428	f3 0f 10 45 dc	 movss	 xmm0, DWORD PTR _grand_parent_x_origin$[ebp]
  0042d	f3 0f 11 04 24	 movss	 DWORD PTR [esp], xmm0
  00432	e8 00 00 00 00	 call	 ?ui_set_origin@@YGXMM@Z	; ui_set_origin

; 233  : 	
; 234  : 			parent_x1 = get_ui_object_x (parent);

  00437	8b 45 cc	 mov	 eax, DWORD PTR _parent$[ebp]
  0043a	50		 push	 eax
  0043b	8b 4d cc	 mov	 ecx, DWORD PTR _parent$[ebp]
  0043e	8b 11		 mov	 edx, DWORD PTR [ecx]
  00440	8b 04 95 00 00
	00 00		 mov	 eax, DWORD PTR ?fn_get_ui_object_x@@3PAP6GMPAUUI_OBJECT@@@ZA[edx*4]
  00447	ff d0		 call	 eax
  00449	d9 5d ec	 fstp	 DWORD PTR _parent_x1$[ebp]

; 235  : 
; 236  : 			parent_y1 = get_ui_object_y (parent);

  0044c	8b 45 cc	 mov	 eax, DWORD PTR _parent$[ebp]
  0044f	50		 push	 eax
  00450	8b 4d cc	 mov	 ecx, DWORD PTR _parent$[ebp]
  00453	8b 11		 mov	 edx, DWORD PTR [ecx]
  00455	8b 04 95 00 00
	00 00		 mov	 eax, DWORD PTR ?fn_get_ui_object_y@@3PAP6GMPAUUI_OBJECT@@@ZA[edx*4]
  0045c	ff d0		 call	 eax
  0045e	d9 5d e8	 fstp	 DWORD PTR _parent_y1$[ebp]

; 237  : 
; 238  : 			parent_x2 = parent_x1 + get_ui_object_x_size (parent);

  00461	8b 45 cc	 mov	 eax, DWORD PTR _parent$[ebp]
  00464	50		 push	 eax
  00465	8b 4d cc	 mov	 ecx, DWORD PTR _parent$[ebp]
  00468	8b 11		 mov	 edx, DWORD PTR [ecx]
  0046a	8b 04 95 00 00
	00 00		 mov	 eax, DWORD PTR ?fn_get_ui_object_x_size@@3PAP6GMPAUUI_OBJECT@@@ZA[edx*4]
  00471	ff d0		 call	 eax
  00473	d9 5d 84	 fstp	 DWORD PTR tv535[ebp]
  00476	f3 0f 10 45 84	 movss	 xmm0, DWORD PTR tv535[ebp]
  0047b	f3 0f 58 45 ec	 addss	 xmm0, DWORD PTR _parent_x1$[ebp]
  00480	f3 0f 11 45 e4	 movss	 DWORD PTR _parent_x2$[ebp], xmm0

; 239  : 
; 240  : 			parent_y2 = parent_y1 + get_ui_object_y_size (parent);

  00485	8b 45 cc	 mov	 eax, DWORD PTR _parent$[ebp]
  00488	50		 push	 eax
  00489	8b 4d cc	 mov	 ecx, DWORD PTR _parent$[ebp]
  0048c	8b 11		 mov	 edx, DWORD PTR [ecx]
  0048e	8b 04 95 00 00
	00 00		 mov	 eax, DWORD PTR ?fn_get_ui_object_y_size@@3PAP6GMPAUUI_OBJECT@@@ZA[edx*4]
  00495	ff d0		 call	 eax
  00497	d9 5d 84	 fstp	 DWORD PTR tv543[ebp]
  0049a	f3 0f 10 45 84	 movss	 xmm0, DWORD PTR tv543[ebp]
  0049f	f3 0f 58 45 e8	 addss	 xmm0, DWORD PTR _parent_y1$[ebp]
  004a4	f3 0f 11 45 e0	 movss	 DWORD PTR _parent_y2$[ebp], xmm0

; 241  : 	
; 242  : 			x1 = parent_x1;

  004a9	f3 0f 10 45 ec	 movss	 xmm0, DWORD PTR _parent_x1$[ebp]
  004ae	f3 0f 11 45 fc	 movss	 DWORD PTR _x1$[ebp], xmm0

; 243  : 
; 244  : 			y1 = parent_y1;

  004b3	f3 0f 10 45 e8	 movss	 xmm0, DWORD PTR _parent_y1$[ebp]
  004b8	f3 0f 11 45 f8	 movss	 DWORD PTR _y1$[ebp], xmm0

; 245  : 
; 246  : 			x2 = parent_x2;

  004bd	f3 0f 10 45 e4	 movss	 xmm0, DWORD PTR _parent_x2$[ebp]
  004c2	f3 0f 11 45 f4	 movss	 DWORD PTR _x2$[ebp], xmm0

; 247  : 
; 248  : 			y2 = parent_y2;

  004c7	f3 0f 10 45 e0	 movss	 xmm0, DWORD PTR _parent_y2$[ebp]
  004cc	f3 0f 11 45 f0	 movss	 DWORD PTR _y2$[ebp], xmm0

; 249  : 	
; 250  : 			x1 += grand_parent_x_origin;

  004d1	f3 0f 10 45 fc	 movss	 xmm0, DWORD PTR _x1$[ebp]
  004d6	f3 0f 58 45 dc	 addss	 xmm0, DWORD PTR _grand_parent_x_origin$[ebp]
  004db	f3 0f 11 45 fc	 movss	 DWORD PTR _x1$[ebp], xmm0

; 251  : 
; 252  : 			y1 += grand_parent_y_origin;

  004e0	f3 0f 10 45 f8	 movss	 xmm0, DWORD PTR _y1$[ebp]
  004e5	f3 0f 58 45 d8	 addss	 xmm0, DWORD PTR _grand_parent_y_origin$[ebp]
  004ea	f3 0f 11 45 f8	 movss	 DWORD PTR _y1$[ebp], xmm0

; 253  : 
; 254  : 			x2 += grand_parent_x_origin;

  004ef	f3 0f 10 45 f4	 movss	 xmm0, DWORD PTR _x2$[ebp]
  004f4	f3 0f 58 45 dc	 addss	 xmm0, DWORD PTR _grand_parent_x_origin$[ebp]
  004f9	f3 0f 11 45 f4	 movss	 DWORD PTR _x2$[ebp], xmm0

; 255  : 
; 256  : 			y2 += grand_parent_y_origin;

  004fe	f3 0f 10 45 f0	 movss	 xmm0, DWORD PTR _y2$[ebp]
  00503	f3 0f 58 45 d8	 addss	 xmm0, DWORD PTR _grand_parent_y_origin$[ebp]
  00508	f3 0f 11 45 f0	 movss	 DWORD PTR _y2$[ebp], xmm0

; 257  : 
; 258  : 			set_viewport (x1, y1, x2, y2);

  0050d	51		 push	 ecx
  0050e	f3 0f 10 45 f0	 movss	 xmm0, DWORD PTR _y2$[ebp]
  00513	f3 0f 11 04 24	 movss	 DWORD PTR [esp], xmm0
  00518	51		 push	 ecx
  00519	f3 0f 10 45 f4	 movss	 xmm0, DWORD PTR _x2$[ebp]
  0051e	f3 0f 11 04 24	 movss	 DWORD PTR [esp], xmm0
  00523	51		 push	 ecx
  00524	f3 0f 10 45 f8	 movss	 xmm0, DWORD PTR _y1$[ebp]
  00529	f3 0f 11 04 24	 movss	 DWORD PTR [esp], xmm0
  0052e	51		 push	 ecx
  0052f	f3 0f 10 45 fc	 movss	 xmm0, DWORD PTR _x1$[ebp]
  00534	f3 0f 11 04 24	 movss	 DWORD PTR [esp], xmm0
  00539	e8 00 00 00 00	 call	 ?set_viewport@@YGXMMMM@Z ; set_viewport

; 259  : 			
; 260  : 			parent_x1 += get_ui_object_x_origin (parent);

  0053e	8b 45 cc	 mov	 eax, DWORD PTR _parent$[ebp]
  00541	50		 push	 eax
  00542	8b 4d cc	 mov	 ecx, DWORD PTR _parent$[ebp]
  00545	8b 11		 mov	 edx, DWORD PTR [ecx]
  00547	8b 04 95 00 00
	00 00		 mov	 eax, DWORD PTR ?fn_get_ui_object_x_origin@@3PAP6GMPAUUI_OBJECT@@@ZA[edx*4]
  0054e	ff d0		 call	 eax
  00550	d9 5d 84	 fstp	 DWORD PTR tv567[ebp]
  00553	f3 0f 10 45 84	 movss	 xmm0, DWORD PTR tv567[ebp]
  00558	f3 0f 58 45 ec	 addss	 xmm0, DWORD PTR _parent_x1$[ebp]
  0055d	f3 0f 11 45 ec	 movss	 DWORD PTR _parent_x1$[ebp], xmm0

; 261  : 
; 262  : 			parent_y1 += get_ui_object_y_origin (parent);

  00562	8b 45 cc	 mov	 eax, DWORD PTR _parent$[ebp]
  00565	50		 push	 eax
  00566	8b 4d cc	 mov	 ecx, DWORD PTR _parent$[ebp]
  00569	8b 11		 mov	 edx, DWORD PTR [ecx]
  0056b	8b 04 95 00 00
	00 00		 mov	 eax, DWORD PTR ?fn_get_ui_object_y_origin@@3PAP6GMPAUUI_OBJECT@@@ZA[edx*4]
  00572	ff d0		 call	 eax
  00574	d9 5d 84	 fstp	 DWORD PTR tv575[ebp]
  00577	f3 0f 10 45 84	 movss	 xmm0, DWORD PTR tv575[ebp]
  0057c	f3 0f 58 45 e8	 addss	 xmm0, DWORD PTR _parent_y1$[ebp]
  00581	f3 0f 11 45 e8	 movss	 DWORD PTR _parent_y1$[ebp], xmm0

; 263  : 
; 264  : 			ui_set_origin (parent_x1, parent_y1);

  00586	51		 push	 ecx
  00587	f3 0f 10 45 e8	 movss	 xmm0, DWORD PTR _parent_y1$[ebp]
  0058c	f3 0f 11 04 24	 movss	 DWORD PTR [esp], xmm0
  00591	51		 push	 ecx
  00592	f3 0f 10 45 ec	 movss	 xmm0, DWORD PTR _parent_x1$[ebp]
  00597	f3 0f 11 04 24	 movss	 DWORD PTR [esp], xmm0
  0059c	e8 00 00 00 00	 call	 ?ui_set_origin@@YGXMM@Z	; ui_set_origin
$LN10@update_men:

; 265  : 		}
; 266  : 
; 267  : 		update_ui_object (area->next);

  005a1	8b 45 c8	 mov	 eax, DWORD PTR _area$[ebp]
  005a4	8b 48 44	 mov	 ecx, DWORD PTR [eax+68]
  005a7	51		 push	 ecx
  005a8	8b 55 c8	 mov	 edx, DWORD PTR _area$[ebp]
  005ab	8b 42 44	 mov	 eax, DWORD PTR [edx+68]
  005ae	8b 08		 mov	 ecx, DWORD PTR [eax]
  005b0	8b 14 8d 00 00
	00 00		 mov	 edx, DWORD PTR ?fn_update_ui_object@@3PAP6GXPAUUI_OBJECT@@@ZA[ecx*4]
  005b7	ff d2		 call	 edx
$LN9@update_men:

; 268  : 	}
; 269  : }

  005b9	5f		 pop	 edi
  005ba	5e		 pop	 esi
  005bb	5b		 pop	 ebx
  005bc	8b e5		 mov	 esp, ebp
  005be	5d		 pop	 ebp
  005bf	c2 04 00	 ret	 4
?update_menu_ui_object@@YGXPAUUI_OBJECT@@@Z ENDP	; update_menu_ui_object
_TEXT	ENDS
; Function compile flags: /Odtp /ZI
; File c:\users\nhv90\projects\eech\modules\userint2\ui_obj\menu\me_updt.c
;	COMDAT ?overload_menu_ui_object_update_functions@@YGXH@Z
_TEXT	SEGMENT
_type$ = 8						; size = 4
?overload_menu_ui_object_update_functions@@YGXH@Z PROC	; overload_menu_ui_object_update_functions, COMDAT

; 276  : {

  00000	55		 push	 ebp
  00001	8b ec		 mov	 ebp, esp
  00003	83 ec 40	 sub	 esp, 64			; 00000040H
  00006	53		 push	 ebx
  00007	56		 push	 esi
  00008	57		 push	 edi

; 277  : 
; 278  : 	fn_update_ui_object [type] = update_menu_ui_object;

  00009	8b 45 08	 mov	 eax, DWORD PTR _type$[ebp]
  0000c	c7 04 85 00 00
	00 00 00 00 00
	00		 mov	 DWORD PTR ?fn_update_ui_object@@3PAP6GXPAUUI_OBJECT@@@ZA[eax*4], OFFSET ?update_menu_ui_object@@YGXPAUUI_OBJECT@@@Z ; update_menu_ui_object

; 279  : }

  00017	5f		 pop	 edi
  00018	5e		 pop	 esi
  00019	5b		 pop	 ebx
  0001a	8b e5		 mov	 esp, ebp
  0001c	5d		 pop	 ebp
  0001d	c2 04 00	 ret	 4
?overload_menu_ui_object_update_functions@@YGXH@Z ENDP	; overload_menu_ui_object_update_functions
_TEXT	ENDS
END
