; Listing generated by Microsoft (R) Optimizing Compiler Version 19.16.27045.0 

	TITLE	C:\Users\nhv90\Projects\eech\aphavoc\source\entity\mobile\mobile.c
	.686P
	.XMM
	include listing.inc
	.model	flat

INCLUDELIB MSVCRTD
INCLUDELIB OLDNAMES

PUBLIC	_ceilf
PUBLIC	_fabsf
PUBLIC	_sqrtf
PUBLIC	?ceil@@YGMM@Z					; ceil
PUBLIC	?fabs@@YGMM@Z					; fabs
PUBLIC	?sqrt@@YGMM@Z					; sqrt
PUBLIC	?mobile_terrain_adjust_waypoint_height@@YGMPAUENTITY@@PAUVEC3D@@M@Z ; mobile_terrain_adjust_waypoint_height
PUBLIC	?draw_mobile_entity_debug_info@@YGXPAUENTITY@@@Z ; draw_mobile_entity_debug_info
PUBLIC	?update_mobile_sprite_light_timers@@YGXXZ	; update_mobile_sprite_light_timers
PUBLIC	?credit_client_server_mobile_kill@@YGXPAUENTITY@@0@Z ; credit_client_server_mobile_kill
PUBLIC	?calculate_mobile_death_timer_value@@YGMPAUENTITY@@@Z ; calculate_mobile_death_timer_value
PUBLIC	?insert_mobile_into_takeoff_route@@YGHPAUENTITY@@0@Z ; insert_mobile_into_takeoff_route
PUBLIC	?mobile_check_all_members_taken_off@@YGHPAUENTITY@@@Z ; mobile_check_all_members_taken_off
PUBLIC	?play_mobile_under_attack_speech@@YGXPAUENTITY@@0@Z ; play_mobile_under_attack_speech
PUBLIC	??_C@_0ED@JCPIACOE@c?3?2users?2nhv90?2projects?2eech?2ap@ ; `string'
PUBLIC	?__LINE__Var@?0??draw_mobile_entity_debug_info@@YGXPAUENTITY@@@Z@4JA ; `draw_mobile_entity_debug_info'::`1'::__LINE__Var
PUBLIC	??_C@_02LFNMGJAP@en@				; `string'
PUBLIC	?__LINE__Var@?0??calculate_task_points_for_kill@@YGHPAUENTITY@@0@Z@4JA ; `calculate_task_points_for_kill'::`1'::__LINE__Var
PUBLIC	?__LINE__Var@?0??credit_client_server_mobile_kill@@YGXPAUENTITY@@0@Z@4JA ; `credit_client_server_mobile_kill'::`1'::__LINE__Var
PUBLIC	??_C@_06GPEKEEBB@victim@			; `string'
PUBLIC	??_C@_09HKMIOAOH@aggressor@			; `string'
PUBLIC	??_C@_0CJ@DMBLBJBK@get_comms_model?5?$CI?$CJ?5?$DN?$DN?5COMMS_MOD@ ; `string'
PUBLIC	??_C@_0DE@NHDCOFFE@get_local_entity_int_value?5?$CIvic@ ; `string'
PUBLIC	?__LINE__Var@?0??calculate_mobile_death_timer_value@@YGMPAUENTITY@@@Z@4JA ; `calculate_mobile_death_timer_value'::`1'::__LINE__Var
PUBLIC	??_C@_0BG@EFCJJKAA@get_session_entity?5?$CI?$CJ@ ; `string'
PUBLIC	?__LINE__Var@?0??insert_mobile_into_takeoff_route@@YGHPAUENTITY@@0@Z@4JA ; `insert_mobile_into_takeoff_route'::`1'::__LINE__Var
PUBLIC	??_C@_06HDFDANIG@member@			; `string'
PUBLIC	??_C@_0P@LNMOJPHN@landing_entity@		; `string'
PUBLIC	??_C@_05MGJOOGAJ@group@				; `string'
PUBLIC	??_C@_04GGKLLKOO@task@				; `string'
PUBLIC	??_C@_08FMLGOCKE@route_wp@			; `string'
PUBLIC	??_C@_0DA@LCNDHBIA@MOBILE?3?5can?8t?5set?5operational?5s@ ; `string'
PUBLIC	?__LINE__Var@?0??mobile_check_all_members_taken_off@@YGHPAUENTITY@@@Z@4JA ; `mobile_check_all_members_taken_off'::`1'::__LINE__Var
PUBLIC	??_C@_09IDBOHCLM@new_guide@			; `string'
PUBLIC	??_C@_0ED@PNFONGNP@get_local_entity_int_value?5?$CIgro@ ; `string'
PUBLIC	??_C@_0FI@MBCGMO@get_local_entity_int_value?5?$CIgro@ ; `string'
PUBLIC	??_C@_05BINPNAAL@force@				; `string'
PUBLIC	??_C@_0O@HMENJAPI@current_guide@		; `string'
PUBLIC	??_C@_0BL@ONBGIOLM@current_guide?5?$CB?$DN?5new_guide@ ; `string'
PUBLIC	?__LINE__Var@?0??play_mobile_under_attack_speech@@YGXPAUENTITY@@0@Z@4JA ; `play_mobile_under_attack_speech'::`1'::__LINE__Var
PUBLIC	??_C@_03PCBNCGFH@pos@				; `string'
PUBLIC	__real@0000000000000000
PUBLIC	__real@3f333333
PUBLIC	__real@3fb999999999999a
PUBLIC	__real@3fe0000000000000
PUBLIC	__real@3ff0000000000000
PUBLIC	__real@4024000000000000
PUBLIC	__real@4034000000000000
PUBLIC	__real@4072c00000000000
PUBLIC	__real@40c00000
PUBLIC	__real@40c4820000000000
PUBLIC	__real@41700000
PUBLIC	__real@41c80000
PUBLIC	__real@43960000
PUBLIC	__real@4628c000
PUBLIC	__real@49742400
PUBLIC	__real@4cbebc20
PUBLIC	__real@7f7fffff
PUBLIC	__real@bff0000000000000
EXTRN	_fabs:PROC
EXTRN	_sqrt:PROC
EXTRN	__imp__ceil:PROC
EXTRN	?process_assert@@YGXPBD0H@Z:PROC		; process_assert
EXTRN	?convert_float_to_int@@YGXMPAH@Z:PROC		; convert_float_to_int
EXTRN	?debug_fatal@@YAXPBDZZ:PROC			; debug_fatal
EXTRN	?normalise_any_3d_vector@@YGMPAUVEC3D@@@Z:PROC	; normalise_any_3d_vector
EXTRN	?get_sqr_2d_range@@YGMPBUVEC3D@@0@Z:PROC	; get_sqr_2d_range
EXTRN	?get_3d_terrain_fast_elevation@@YGMMM@Z:PROC	; get_3d_terrain_fast_elevation
EXTRN	?notify_local_entity@@YAHW4ENTITY_MESSAGES@@PAUENTITY@@1ZZ:PROC ; notify_local_entity
EXTRN	?delete_local_entity_from_parents_child_list@@YGXPAUENTITY@@W4LIST_TYPES@@@Z:PROC ; delete_local_entity_from_parents_child_list
EXTRN	?set_client_server_entity_parent@@YGXPAUENTITY@@W4LIST_TYPES@@0@Z:PROC ; set_client_server_entity_parent
EXTRN	?transmit_entity_comms_message@@YAXW4ENTITY_COMMS_MESSAGES@@PAUENTITY@@ZZ:PROC ; transmit_entity_comms_message
EXTRN	?create_debug_3d_line@@YGPAUDEBUG_3D_LINE@@PAUVEC3D@@0UREAL_COLOUR@@M@Z:PROC ; create_debug_3d_line
EXTRN	?close_client_server_entity_loading_doors@@YGXPAUENTITY@@@Z:PROC ; close_client_server_entity_loading_doors
EXTRN	?close_client_server_entity_cargo_doors@@YGXPAUENTITY@@@Z:PROC ; close_client_server_entity_cargo_doors
EXTRN	?display_debug_kill_info@@YGXPAUENTITY@@0@Z:PROC ; display_debug_kill_info
EXTRN	?update_helicopter_sprite_light_timers@@YGXXZ:PROC ; update_helicopter_sprite_light_timers
EXTRN	?update_fixed_wing_sprite_light_timers@@YGXXZ:PROC ; update_fixed_wing_sprite_light_timers
EXTRN	?play_client_server_speech@@YAHPAUENTITY@@0W4ENTITY_SIDES@@HW4SOUND_LOCALITY_TYPES@@MMMW4speech_originator_types@@W4speech_category_types@@MZZ:PROC ; play_client_server_speech
EXTRN	?get_wingman_speech_originator@@YG?AW4speech_originator_types@@PAUENTITY@@@Z:PROC ; get_wingman_speech_originator
EXTRN	?get_speech_sector_coordinates@@YGPAHPAUVEC3D@@@Z:PROC ; get_speech_sector_coordinates
EXTRN	?get_local_force_entity@@YGPAUENTITY@@W4ENTITY_SIDES@@@Z:PROC ; get_local_force_entity
EXTRN	?add_mobile_to_force_kills_stats@@YGXPAUENTITY@@0@Z:PROC ; add_mobile_to_force_kills_stats
EXTRN	?draw_debug_guide_entity@@YGXPAUENTITY@@@Z:PROC	; draw_debug_guide_entity
EXTRN	?create_client_server_guide_entity@@YGPAUENTITY@@PAU1@0I@Z:PROC ; create_client_server_guide_entity
EXTRN	?attach_group_member_to_guide_entity@@YGXPAUENTITY@@0@Z:PROC ; attach_group_member_to_guide_entity
EXTRN	?attach_group_to_guide_entity@@YGXPAUENTITY@@0@Z:PROC ; attach_group_to_guide_entity
EXTRN	?get_local_group_primary_guide@@YGPAUENTITY@@PAU1@@Z:PROC ; get_local_group_primary_guide
EXTRN	?get_local_landing_entity_route@@YGPAUENTITY@@PAU1@H@Z:PROC ; get_local_landing_entity_route
EXTRN	?get_local_landing_entity_task@@YGPAUENTITY@@PAU1@H@Z:PROC ; get_local_landing_entity_task
EXTRN	?get_local_group_member_landing_entity_from_task@@YGPAUENTITY@@PAU1@@Z:PROC ; get_local_group_member_landing_entity_from_task
EXTRN	?play_landing_clear_for_takeoff_speech@@YGXPAUENTITY@@@Z:PROC ; play_landing_clear_for_takeoff_speech
EXTRN	?get_local_entity_primary_task@@YGPAUENTITY@@PAU1@@Z:PROC ; get_local_entity_primary_task
EXTRN	?add_kill_to_task@@YGXPAUENTITY@@00@Z:PROC	; add_kill_to_task
EXTRN	?add_loss_to_task@@YGXPAUENTITY@@00@Z:PROC	; add_loss_to_task
EXTRN	?send_text_message@@YGXPAUENTITY@@0W4MESSAGE_TEXT_TYPES@@PBD@Z:PROC ; send_text_message
EXTRN	?get_current_player_log@@YGPAUPLAYER_LOG_TYPE@@XZ:PROC ; get_current_player_log
EXTRN	?inc_player_log_kills@@YGXHPAUPLAYER_LOG_TYPE@@PAUENTITY@@@Z:PROC ; inc_player_log_kills
EXTRN	?sys_col_green@@3UREAL_COLOUR@@A:DWORD		; sys_col_green
EXTRN	?sys_col_yellow@@3UREAL_COLOUR@@A:DWORD		; sys_col_yellow
EXTRN	?sys_col_sky_blue@@3UREAL_COLOUR@@A:DWORD	; sys_col_sky_blue
EXTRN	?sys_col_dark_red@@3UREAL_COLOUR@@A:DWORD	; sys_col_dark_red
EXTRN	?null_entity_pointer_message@@3PBDB:DWORD	; null_entity_pointer_message
EXTRN	?global_options@@3UGLOBAL_OPTIONS_DATA@@A:BYTE	; global_options
EXTRN	?system_comms_model@@3W4COMMS_MODEL_TYPES@@A:DWORD ; system_comms_model
EXTRN	?overload_invalid_list_type_message@@3PBDB:DWORD ; overload_invalid_list_type_message
EXTRN	?fn_get_local_entity_first_child@@3PAY0CN@P6GPAUENTITY@@PAU1@W4LIST_TYPES@@@ZA:BYTE ; fn_get_local_entity_first_child
EXTRN	?fn_get_local_entity_parent@@3PAY0CN@P6GPAUENTITY@@PAU1@W4LIST_TYPES@@@ZA:BYTE ; fn_get_local_entity_parent
EXTRN	?fn_get_local_entity_child_succ@@3PAY0CN@P6GPAUENTITY@@PAU1@W4LIST_TYPES@@@ZA:BYTE ; fn_get_local_entity_child_succ
EXTRN	?fn_destroy_client_server_entity@@3PAY01P6GXPAUENTITY@@@ZA:BYTE ; fn_destroy_client_server_entity
EXTRN	?overload_invalid_float_type_message@@3PBDB:DWORD ; overload_invalid_float_type_message
EXTRN	?fn_set_client_server_entity_float_value@@3PAY1KP@1P6GXPAUENTITY@@W4FLOAT_TYPES@@M@ZA:BYTE ; fn_set_client_server_entity_float_value
EXTRN	?overload_invalid_int_type_message@@3PBDB:DWORD	; overload_invalid_int_type_message
EXTRN	?fn_set_local_entity_int_value@@3PAY0BBH@P6GXPAUENTITY@@W4INT_TYPES@@H@ZA:BYTE ; fn_set_local_entity_int_value
EXTRN	?fn_set_client_server_entity_int_value@@3PAY1BBH@1P6GXPAUENTITY@@W4INT_TYPES@@H@ZA:BYTE ; fn_set_client_server_entity_int_value
EXTRN	?fn_get_local_entity_int_value@@3PAY0BBH@P6GHPAUENTITY@@W4INT_TYPES@@@ZA:BYTE ; fn_get_local_entity_int_value
EXTRN	?overload_invalid_string_type_message@@3PBDB:DWORD ; overload_invalid_string_type_message
EXTRN	?fn_get_local_entity_string@@3PAY0N@P6GPBDPAUENTITY@@W4STRING_TYPES@@@ZA:BYTE ; fn_get_local_entity_string
EXTRN	?overload_invalid_vec3d_type_message@@3PBDB:DWORD ; overload_invalid_vec3d_type_message
EXTRN	?fn_get_local_entity_vec3d_ptr@@3PAY0BI@P6GPAUVEC3D@@PAUENTITY@@W4VEC3D_TYPES@@@ZA:BYTE ; fn_get_local_entity_vec3d_ptr
EXTRN	?entities@@3PAUENTITY@@A:DWORD			; entities
EXTRN	?speech_sector_coordinates@@3PAHA:BYTE		; speech_sector_coordinates
EXTRN	?session_entity@@3PAUENTITY@@A:DWORD		; session_entity
EXTRN	?game_type@@3W4GAME_TYPES@@A:DWORD		; game_type
EXTRN	__fltused:DWORD
;	COMDAT __real@bff0000000000000
CONST	SEGMENT
__real@bff0000000000000 DQ 0bff0000000000000r	; -1
CONST	ENDS
;	COMDAT __real@7f7fffff
CONST	SEGMENT
__real@7f7fffff DD 07f7fffffr			; 3.40282e+38
CONST	ENDS
;	COMDAT __real@4cbebc20
CONST	SEGMENT
__real@4cbebc20 DD 04cbebc20r			; 1e+08
CONST	ENDS
;	COMDAT __real@49742400
CONST	SEGMENT
__real@49742400 DD 049742400r			; 1e+06
CONST	ENDS
;	COMDAT __real@4628c000
CONST	SEGMENT
__real@4628c000 DD 04628c000r			; 10800
CONST	ENDS
;	COMDAT __real@43960000
CONST	SEGMENT
__real@43960000 DD 043960000r			; 300
CONST	ENDS
;	COMDAT __real@41c80000
CONST	SEGMENT
__real@41c80000 DD 041c80000r			; 25
CONST	ENDS
;	COMDAT __real@41700000
CONST	SEGMENT
__real@41700000 DD 041700000r			; 15
CONST	ENDS
;	COMDAT __real@40c4820000000000
CONST	SEGMENT
__real@40c4820000000000 DQ 040c4820000000000r	; 10500
CONST	ENDS
;	COMDAT __real@40c00000
CONST	SEGMENT
__real@40c00000 DD 040c00000r			; 6
CONST	ENDS
;	COMDAT __real@4072c00000000000
CONST	SEGMENT
__real@4072c00000000000 DQ 04072c00000000000r	; 300
CONST	ENDS
;	COMDAT __real@4034000000000000
CONST	SEGMENT
__real@4034000000000000 DQ 04034000000000000r	; 20
CONST	ENDS
;	COMDAT __real@4024000000000000
CONST	SEGMENT
__real@4024000000000000 DQ 04024000000000000r	; 10
CONST	ENDS
;	COMDAT __real@3ff0000000000000
CONST	SEGMENT
__real@3ff0000000000000 DQ 03ff0000000000000r	; 1
CONST	ENDS
;	COMDAT __real@3fe0000000000000
CONST	SEGMENT
__real@3fe0000000000000 DQ 03fe0000000000000r	; 0.5
CONST	ENDS
;	COMDAT __real@3fb999999999999a
CONST	SEGMENT
__real@3fb999999999999a DQ 03fb999999999999ar	; 0.1
CONST	ENDS
;	COMDAT __real@3f333333
CONST	SEGMENT
__real@3f333333 DD 03f333333r			; 0.7
CONST	ENDS
;	COMDAT __real@0000000000000000
CONST	SEGMENT
__real@0000000000000000 DQ 00000000000000000r	; 0
CONST	ENDS
;	COMDAT ??_C@_03PCBNCGFH@pos@
CONST	SEGMENT
??_C@_03PCBNCGFH@pos@ DB 'pos', 00H			; `string'
CONST	ENDS
;	COMDAT ?__LINE__Var@?0??play_mobile_under_attack_speech@@YGXPAUENTITY@@0@Z@4JA
_DATA	SEGMENT
?__LINE__Var@?0??play_mobile_under_attack_speech@@YGXPAUENTITY@@0@Z@4JA DD 039dH ; `play_mobile_under_attack_speech'::`1'::__LINE__Var
_DATA	ENDS
;	COMDAT ??_C@_0BL@ONBGIOLM@current_guide?5?$CB?$DN?5new_guide@
CONST	SEGMENT
??_C@_0BL@ONBGIOLM@current_guide?5?$CB?$DN?5new_guide@ DB 'current_guide '
	DB	'!= new_guide', 00H				; `string'
CONST	ENDS
;	COMDAT ??_C@_0O@HMENJAPI@current_guide@
CONST	SEGMENT
??_C@_0O@HMENJAPI@current_guide@ DB 'current_guide', 00H ; `string'
CONST	ENDS
;	COMDAT ??_C@_05BINPNAAL@force@
CONST	SEGMENT
??_C@_05BINPNAAL@force@ DB 'force', 00H			; `string'
CONST	ENDS
;	COMDAT ??_C@_0FI@MBCGMO@get_local_entity_int_value?5?$CIgro@
CONST	SEGMENT
??_C@_0FI@MBCGMO@get_local_entity_int_value?5?$CIgro@ DB 'get_local_entit'
	DB	'y_int_value (group, INT_TYPE_GROUP_LIST_TYPE) == LIST_TYPE_KE'
	DB	'YSITE_GROUP', 00H				; `string'
CONST	ENDS
;	COMDAT ??_C@_0ED@PNFONGNP@get_local_entity_int_value?5?$CIgro@
CONST	SEGMENT
??_C@_0ED@PNFONGNP@get_local_entity_int_value?5?$CIgro@ DB 'get_local_ent'
	DB	'ity_int_value (group, INT_TYPE_ENGAGE_ENEMY) == FALSE', 00H ; `string'
CONST	ENDS
;	COMDAT ??_C@_09IDBOHCLM@new_guide@
CONST	SEGMENT
??_C@_09IDBOHCLM@new_guide@ DB 'new_guide', 00H		; `string'
CONST	ENDS
;	COMDAT ?__LINE__Var@?0??mobile_check_all_members_taken_off@@YGHPAUENTITY@@@Z@4JA
_DATA	SEGMENT
?__LINE__Var@?0??mobile_check_all_members_taken_off@@YGHPAUENTITY@@@Z@4JA DD 02beH ; `mobile_check_all_members_taken_off'::`1'::__LINE__Var
_DATA	ENDS
;	COMDAT ??_C@_0DA@LCNDHBIA@MOBILE?3?5can?8t?5set?5operational?5s@
CONST	SEGMENT
??_C@_0DA@LCNDHBIA@MOBILE?3?5can?8t?5set?5operational?5s@ DB 'MOBILE: can'
	DB	'''t set operational state for %s (%d)', 00H	; `string'
CONST	ENDS
;	COMDAT ??_C@_08FMLGOCKE@route_wp@
CONST	SEGMENT
??_C@_08FMLGOCKE@route_wp@ DB 'route_wp', 00H		; `string'
CONST	ENDS
;	COMDAT ??_C@_04GGKLLKOO@task@
CONST	SEGMENT
??_C@_04GGKLLKOO@task@ DB 'task', 00H			; `string'
CONST	ENDS
;	COMDAT ??_C@_05MGJOOGAJ@group@
CONST	SEGMENT
??_C@_05MGJOOGAJ@group@ DB 'group', 00H			; `string'
CONST	ENDS
;	COMDAT ??_C@_0P@LNMOJPHN@landing_entity@
CONST	SEGMENT
??_C@_0P@LNMOJPHN@landing_entity@ DB 'landing_entity', 00H ; `string'
CONST	ENDS
;	COMDAT ??_C@_06HDFDANIG@member@
CONST	SEGMENT
??_C@_06HDFDANIG@member@ DB 'member', 00H		; `string'
CONST	ENDS
;	COMDAT ?__LINE__Var@?0??insert_mobile_into_takeoff_route@@YGHPAUENTITY@@0@Z@4JA
_DATA	SEGMENT
?__LINE__Var@?0??insert_mobile_into_takeoff_route@@YGHPAUENTITY@@0@Z@4JA DD 023eH ; `insert_mobile_into_takeoff_route'::`1'::__LINE__Var
_DATA	ENDS
;	COMDAT ??_C@_0BG@EFCJJKAA@get_session_entity?5?$CI?$CJ@
CONST	SEGMENT
??_C@_0BG@EFCJJKAA@get_session_entity?5?$CI?$CJ@ DB 'get_session_entity ('
	DB	')', 00H					; `string'
CONST	ENDS
;	COMDAT ?__LINE__Var@?0??calculate_mobile_death_timer_value@@YGMPAUENTITY@@@Z@4JA
_DATA	SEGMENT
?__LINE__Var@?0??calculate_mobile_death_timer_value@@YGMPAUENTITY@@@Z@4JA DD 01f3H ; `calculate_mobile_death_timer_value'::`1'::__LINE__Var
_DATA	ENDS
;	COMDAT ??_C@_0DE@NHDCOFFE@get_local_entity_int_value?5?$CIvic@
CONST	SEGMENT
??_C@_0DE@NHDCOFFE@get_local_entity_int_value?5?$CIvic@ DB 'get_local_ent'
	DB	'ity_int_value (victim, INT_TYPE_ALIVE)', 00H ; `string'
CONST	ENDS
;	COMDAT ??_C@_0CJ@DMBLBJBK@get_comms_model?5?$CI?$CJ?5?$DN?$DN?5COMMS_MOD@
CONST	SEGMENT
??_C@_0CJ@DMBLBJBK@get_comms_model?5?$CI?$CJ?5?$DN?$DN?5COMMS_MOD@ DB 'ge'
	DB	't_comms_model () == COMMS_MODEL_SERVER', 00H ; `string'
CONST	ENDS
;	COMDAT ??_C@_09HKMIOAOH@aggressor@
CONST	SEGMENT
??_C@_09HKMIOAOH@aggressor@ DB 'aggressor', 00H		; `string'
CONST	ENDS
;	COMDAT ??_C@_06GPEKEEBB@victim@
CONST	SEGMENT
??_C@_06GPEKEEBB@victim@ DB 'victim', 00H		; `string'
CONST	ENDS
;	COMDAT ?__LINE__Var@?0??credit_client_server_mobile_kill@@YGXPAUENTITY@@0@Z@4JA
_DATA	SEGMENT
?__LINE__Var@?0??credit_client_server_mobile_kill@@YGXPAUENTITY@@0@Z@4JA DD 016eH ; `credit_client_server_mobile_kill'::`1'::__LINE__Var
_DATA	ENDS
;	COMDAT ?__LINE__Var@?0??calculate_task_points_for_kill@@YGHPAUENTITY@@0@Z@4JA
_DATA	SEGMENT
?__LINE__Var@?0??calculate_task_points_for_kill@@YGHPAUENTITY@@0@Z@4JA DD 011aH ; `calculate_task_points_for_kill'::`1'::__LINE__Var
_DATA	ENDS
;	COMDAT ??_C@_02LFNMGJAP@en@
CONST	SEGMENT
??_C@_02LFNMGJAP@en@ DB 'en', 00H			; `string'
CONST	ENDS
;	COMDAT ?__LINE__Var@?0??draw_mobile_entity_debug_info@@YGXPAUENTITY@@@Z@4JA
_DATA	SEGMENT
?__LINE__Var@?0??draw_mobile_entity_debug_info@@YGXPAUENTITY@@@Z@4JA DD 0bcH ; `draw_mobile_entity_debug_info'::`1'::__LINE__Var
_DATA	ENDS
;	COMDAT ??_C@_0ED@JCPIACOE@c?3?2users?2nhv90?2projects?2eech?2ap@
CONST	SEGMENT
??_C@_0ED@JCPIACOE@c?3?2users?2nhv90?2projects?2eech?2ap@ DB 'c:\users\nh'
	DB	'v90\projects\eech\aphavoc\source\entity\mobile\mobile.c', 00H ; `string'
CONST	ENDS
; Function compile flags: /Odtp /ZI
; File c:\users\nhv90\projects\eech\aphavoc\source\entity\mobile\mobile.c
;	COMDAT ?calculate_task_points_for_kill@@YGHPAUENTITY@@0@Z
_TEXT	SEGMENT
tv275 = -96						; size = 4
tv250 = -96						; size = 4
tv229 = -96						; size = 4
tv210 = -96						; size = 4
tv190 = -96						; size = 4
tv170 = -96						; size = 4
tv149 = -96						; size = 4
tv131 = -96						; size = 4
tv78 = -96						; size = 4
tv268 = -92						; size = 4
tv242 = -92						; size = 4
tv222 = -92						; size = 4
tv203 = -92						; size = 4
tv182 = -92						; size = 4
tv162 = -92						; size = 4
tv142 = -92						; size = 4
tv91 = -92						; size = 4
tv70 = -92						; size = 4
_aggressor_group$ = -24					; size = 4
_group$ = -20						; size = 4
_target$ = -16						; size = 4
_p$ = -12						; size = 4
_points$ = -8						; size = 4
_side$ = -4						; size = 4
_victim$ = 8						; size = 4
_aggressor$ = 12					; size = 4
?calculate_task_points_for_kill@@YGHPAUENTITY@@0@Z PROC	; calculate_task_points_for_kill, COMDAT

; 282  : {

  00000	55		 push	 ebp
  00001	8b ec		 mov	 ebp, esp
  00003	83 ec 60	 sub	 esp, 96			; 00000060H
  00006	53		 push	 ebx
  00007	56		 push	 esi
  00008	57		 push	 edi

; 283  : 	int
; 284  : 		side,
; 285  : 		points;
; 286  : 
; 287  : 	float
; 288  : 		p;
; 289  : 
; 290  : 	entity
; 291  : 		*target,
; 292  : 		*group,
; 293  : 		*aggressor_group;
; 294  : 
; 295  : 	points = get_local_entity_int_value (victim, INT_TYPE_POINTS_VALUE);

  00009	83 7d 08 00	 cmp	 DWORD PTR _victim$[ebp], 0
  0000d	74 0a		 je	 SHORT $LN12@calculate_
  0000f	8b 45 08	 mov	 eax, DWORD PTR _victim$[ebp]
  00012	8b 08		 mov	 ecx, DWORD PTR [eax]
  00014	89 4d a4	 mov	 DWORD PTR tv70[ebp], ecx
  00017	eb 21		 jmp	 SHORT $LN13@calculate_
$LN12@calculate_:
  00019	8b 15 00 00 00
	00		 mov	 edx, DWORD PTR ?__LINE__Var@?0??calculate_task_points_for_kill@@YGHPAUENTITY@@0@Z@4JA
  0001f	83 c2 0d	 add	 edx, 13			; 0000000dH
  00022	52		 push	 edx
  00023	68 00 00 00 00	 push	 OFFSET ??_C@_0ED@JCPIACOE@c?3?2users?2nhv90?2projects?2eech?2ap@
  00028	a1 00 00 00 00	 mov	 eax, DWORD PTR ?null_entity_pointer_message@@3PBDB ; null_entity_pointer_message
  0002d	50		 push	 eax
  0002e	e8 00 00 00 00	 call	 ?process_assert@@YGXPBD0H@Z ; process_assert
  00033	c7 45 a4 00 00
	00 00		 mov	 DWORD PTR tv70[ebp], 0
$LN13@calculate_:
  0003a	b9 01 00 00 00	 mov	 ecx, 1
  0003f	85 c9		 test	 ecx, ecx
  00041	74 09		 je	 SHORT $LN14@calculate_
  00043	c7 45 a0 9f 00
	00 00		 mov	 DWORD PTR tv78[ebp], 159 ; 0000009fH
  0004a	eb 21		 jmp	 SHORT $LN15@calculate_
$LN14@calculate_:
  0004c	8b 15 00 00 00
	00		 mov	 edx, DWORD PTR ?__LINE__Var@?0??calculate_task_points_for_kill@@YGHPAUENTITY@@0@Z@4JA
  00052	83 c2 0d	 add	 edx, 13			; 0000000dH
  00055	52		 push	 edx
  00056	68 00 00 00 00	 push	 OFFSET ??_C@_0ED@JCPIACOE@c?3?2users?2nhv90?2projects?2eech?2ap@
  0005b	a1 00 00 00 00	 mov	 eax, DWORD PTR ?overload_invalid_int_type_message@@3PBDB ; overload_invalid_int_type_message
  00060	50		 push	 eax
  00061	e8 00 00 00 00	 call	 ?process_assert@@YGXPBD0H@Z ; process_assert
  00066	c7 45 a0 00 00
	00 00		 mov	 DWORD PTR tv78[ebp], 0
$LN15@calculate_:
  0006d	68 9f 00 00 00	 push	 159			; 0000009fH
  00072	8b 4d 08	 mov	 ecx, DWORD PTR _victim$[ebp]
  00075	51		 push	 ecx
  00076	69 55 a4 5c 04
	00 00		 imul	 edx, DWORD PTR tv70[ebp], 1116
  0007d	8b 45 a0	 mov	 eax, DWORD PTR tv78[ebp]
  00080	8b 8c 82 00 00
	00 00		 mov	 ecx, DWORD PTR ?fn_get_local_entity_int_value@@3PAY0BBH@P6GHPAUENTITY@@W4INT_TYPES@@@ZA[edx+eax*4]
  00087	ff d1		 call	 ecx
  00089	89 45 f8	 mov	 DWORD PTR _points$[ebp], eax

; 296  : 
; 297  : 	if (points == 0)

  0008c	83 7d f8 00	 cmp	 DWORD PTR _points$[ebp], 0
  00090	75 07		 jne	 SHORT $LN2@calculate_

; 298  : 	{
; 299  : 		return 0;

  00092	33 c0		 xor	 eax, eax
  00094	e9 83 04 00 00	 jmp	 $LN1@calculate_
$LN2@calculate_:

; 300  : 	}
; 301  : 
; 302  : 	//
; 303  : 	// No points awarded for same-side kills....
; 304  : 	//
; 305  : 
; 306  : 	side = get_local_entity_int_value (aggressor, INT_TYPE_SIDE);

  00099	83 7d 0c 00	 cmp	 DWORD PTR _aggressor$[ebp], 0
  0009d	74 0a		 je	 SHORT $LN16@calculate_
  0009f	8b 45 0c	 mov	 eax, DWORD PTR _aggressor$[ebp]
  000a2	8b 08		 mov	 ecx, DWORD PTR [eax]
  000a4	89 4d a4	 mov	 DWORD PTR tv91[ebp], ecx
  000a7	eb 21		 jmp	 SHORT $LN17@calculate_
$LN16@calculate_:
  000a9	8b 15 00 00 00
	00		 mov	 edx, DWORD PTR ?__LINE__Var@?0??calculate_task_points_for_kill@@YGHPAUENTITY@@0@Z@4JA
  000af	83 c2 18	 add	 edx, 24			; 00000018H
  000b2	52		 push	 edx
  000b3	68 00 00 00 00	 push	 OFFSET ??_C@_0ED@JCPIACOE@c?3?2users?2nhv90?2projects?2eech?2ap@
  000b8	a1 00 00 00 00	 mov	 eax, DWORD PTR ?null_entity_pointer_message@@3PBDB ; null_entity_pointer_message
  000bd	50		 push	 eax
  000be	e8 00 00 00 00	 call	 ?process_assert@@YGXPBD0H@Z ; process_assert
  000c3	c7 45 a4 00 00
	00 00		 mov	 DWORD PTR tv91[ebp], 0
$LN17@calculate_:
  000ca	b9 01 00 00 00	 mov	 ecx, 1
  000cf	85 c9		 test	 ecx, ecx
  000d1	74 09		 je	 SHORT $LN18@calculate_
  000d3	c7 45 a0 bb 00
	00 00		 mov	 DWORD PTR tv131[ebp], 187 ; 000000bbH
  000da	eb 21		 jmp	 SHORT $LN19@calculate_
$LN18@calculate_:
  000dc	8b 15 00 00 00
	00		 mov	 edx, DWORD PTR ?__LINE__Var@?0??calculate_task_points_for_kill@@YGHPAUENTITY@@0@Z@4JA
  000e2	83 c2 18	 add	 edx, 24			; 00000018H
  000e5	52		 push	 edx
  000e6	68 00 00 00 00	 push	 OFFSET ??_C@_0ED@JCPIACOE@c?3?2users?2nhv90?2projects?2eech?2ap@
  000eb	a1 00 00 00 00	 mov	 eax, DWORD PTR ?overload_invalid_int_type_message@@3PBDB ; overload_invalid_int_type_message
  000f0	50		 push	 eax
  000f1	e8 00 00 00 00	 call	 ?process_assert@@YGXPBD0H@Z ; process_assert
  000f6	c7 45 a0 00 00
	00 00		 mov	 DWORD PTR tv131[ebp], 0
$LN19@calculate_:
  000fd	68 bb 00 00 00	 push	 187			; 000000bbH
  00102	8b 4d 0c	 mov	 ecx, DWORD PTR _aggressor$[ebp]
  00105	51		 push	 ecx
  00106	69 55 a4 5c 04
	00 00		 imul	 edx, DWORD PTR tv91[ebp], 1116
  0010d	8b 45 a0	 mov	 eax, DWORD PTR tv131[ebp]
  00110	8b 8c 82 00 00
	00 00		 mov	 ecx, DWORD PTR ?fn_get_local_entity_int_value@@3PAY0BBH@P6GHPAUENTITY@@W4INT_TYPES@@@ZA[edx+eax*4]
  00117	ff d1		 call	 ecx
  00119	89 45 fc	 mov	 DWORD PTR _side$[ebp], eax

; 307  : 
; 308  : 	if (get_local_entity_int_value (victim, INT_TYPE_SIDE) == side)

  0011c	83 7d 08 00	 cmp	 DWORD PTR _victim$[ebp], 0
  00120	74 0a		 je	 SHORT $LN20@calculate_
  00122	8b 45 08	 mov	 eax, DWORD PTR _victim$[ebp]
  00125	8b 08		 mov	 ecx, DWORD PTR [eax]
  00127	89 4d a4	 mov	 DWORD PTR tv142[ebp], ecx
  0012a	eb 1d		 jmp	 SHORT $LN21@calculate_
$LN20@calculate_:
  0012c	68 34 01 00 00	 push	 308			; 00000134H
  00131	68 00 00 00 00	 push	 OFFSET ??_C@_0ED@JCPIACOE@c?3?2users?2nhv90?2projects?2eech?2ap@
  00136	8b 15 00 00 00
	00		 mov	 edx, DWORD PTR ?null_entity_pointer_message@@3PBDB ; null_entity_pointer_message
  0013c	52		 push	 edx
  0013d	e8 00 00 00 00	 call	 ?process_assert@@YGXPBD0H@Z ; process_assert
  00142	c7 45 a4 00 00
	00 00		 mov	 DWORD PTR tv142[ebp], 0
$LN21@calculate_:
  00149	b8 01 00 00 00	 mov	 eax, 1
  0014e	85 c0		 test	 eax, eax
  00150	74 09		 je	 SHORT $LN22@calculate_
  00152	c7 45 a0 bb 00
	00 00		 mov	 DWORD PTR tv149[ebp], 187 ; 000000bbH
  00159	eb 1d		 jmp	 SHORT $LN23@calculate_
$LN22@calculate_:
  0015b	68 34 01 00 00	 push	 308			; 00000134H
  00160	68 00 00 00 00	 push	 OFFSET ??_C@_0ED@JCPIACOE@c?3?2users?2nhv90?2projects?2eech?2ap@
  00165	8b 0d 00 00 00
	00		 mov	 ecx, DWORD PTR ?overload_invalid_int_type_message@@3PBDB ; overload_invalid_int_type_message
  0016b	51		 push	 ecx
  0016c	e8 00 00 00 00	 call	 ?process_assert@@YGXPBD0H@Z ; process_assert
  00171	c7 45 a0 00 00
	00 00		 mov	 DWORD PTR tv149[ebp], 0
$LN23@calculate_:
  00178	68 bb 00 00 00	 push	 187			; 000000bbH
  0017d	8b 55 08	 mov	 edx, DWORD PTR _victim$[ebp]
  00180	52		 push	 edx
  00181	69 45 a4 5c 04
	00 00		 imul	 eax, DWORD PTR tv142[ebp], 1116
  00188	8b 4d a0	 mov	 ecx, DWORD PTR tv149[ebp]
  0018b	8b 94 88 00 00
	00 00		 mov	 edx, DWORD PTR ?fn_get_local_entity_int_value@@3PAY0BBH@P6GHPAUENTITY@@W4INT_TYPES@@@ZA[eax+ecx*4]
  00192	ff d2		 call	 edx
  00194	3b 45 fc	 cmp	 eax, DWORD PTR _side$[ebp]
  00197	75 07		 jne	 SHORT $LN3@calculate_

; 309  : 	{
; 310  : 		return 0;

  00199	33 c0		 xor	 eax, eax
  0019b	e9 7c 03 00 00	 jmp	 $LN1@calculate_
$LN3@calculate_:

; 311  : 	}
; 312  : 
; 313  : 	aggressor_group = get_local_entity_parent (aggressor, LIST_TYPE_MEMBER);

  001a0	83 7d 0c 00	 cmp	 DWORD PTR _aggressor$[ebp], 0
  001a4	74 0a		 je	 SHORT $LN24@calculate_
  001a6	8b 45 0c	 mov	 eax, DWORD PTR _aggressor$[ebp]
  001a9	8b 08		 mov	 ecx, DWORD PTR [eax]
  001ab	89 4d a4	 mov	 DWORD PTR tv162[ebp], ecx
  001ae	eb 21		 jmp	 SHORT $LN25@calculate_
$LN24@calculate_:
  001b0	8b 15 00 00 00
	00		 mov	 edx, DWORD PTR ?__LINE__Var@?0??calculate_task_points_for_kill@@YGHPAUENTITY@@0@Z@4JA
  001b6	83 c2 1f	 add	 edx, 31			; 0000001fH
  001b9	52		 push	 edx
  001ba	68 00 00 00 00	 push	 OFFSET ??_C@_0ED@JCPIACOE@c?3?2users?2nhv90?2projects?2eech?2ap@
  001bf	a1 00 00 00 00	 mov	 eax, DWORD PTR ?null_entity_pointer_message@@3PBDB ; null_entity_pointer_message
  001c4	50		 push	 eax
  001c5	e8 00 00 00 00	 call	 ?process_assert@@YGXPBD0H@Z ; process_assert
  001ca	c7 45 a4 00 00
	00 00		 mov	 DWORD PTR tv162[ebp], 0
$LN25@calculate_:
  001d1	b9 01 00 00 00	 mov	 ecx, 1
  001d6	85 c9		 test	 ecx, ecx
  001d8	74 09		 je	 SHORT $LN26@calculate_
  001da	c7 45 a0 19 00
	00 00		 mov	 DWORD PTR tv170[ebp], 25 ; 00000019H
  001e1	eb 21		 jmp	 SHORT $LN27@calculate_
$LN26@calculate_:
  001e3	8b 15 00 00 00
	00		 mov	 edx, DWORD PTR ?__LINE__Var@?0??calculate_task_points_for_kill@@YGHPAUENTITY@@0@Z@4JA
  001e9	83 c2 1f	 add	 edx, 31			; 0000001fH
  001ec	52		 push	 edx
  001ed	68 00 00 00 00	 push	 OFFSET ??_C@_0ED@JCPIACOE@c?3?2users?2nhv90?2projects?2eech?2ap@
  001f2	a1 00 00 00 00	 mov	 eax, DWORD PTR ?overload_invalid_list_type_message@@3PBDB ; overload_invalid_list_type_message
  001f7	50		 push	 eax
  001f8	e8 00 00 00 00	 call	 ?process_assert@@YGXPBD0H@Z ; process_assert
  001fd	c7 45 a0 00 00
	00 00		 mov	 DWORD PTR tv170[ebp], 0
$LN27@calculate_:
  00204	6a 19		 push	 25			; 00000019H
  00206	8b 4d 0c	 mov	 ecx, DWORD PTR _aggressor$[ebp]
  00209	51		 push	 ecx
  0020a	69 55 a4 b4 00
	00 00		 imul	 edx, DWORD PTR tv162[ebp], 180
  00211	8b 45 a0	 mov	 eax, DWORD PTR tv170[ebp]
  00214	8b 8c 82 00 00
	00 00		 mov	 ecx, DWORD PTR ?fn_get_local_entity_parent@@3PAY0CN@P6GPAUENTITY@@PAU1@W4LIST_TYPES@@@ZA[edx+eax*4]
  0021b	ff d1		 call	 ecx
  0021d	89 45 e8	 mov	 DWORD PTR _aggressor_group$[ebp], eax

; 314  : 
; 315  : 	//
; 316  : 	// Extra points for helping out allies....
; 317  : 	//
; 318  : 
; 319  : 	target = get_local_entity_parent (victim, LIST_TYPE_TARGET);

  00220	83 7d 08 00	 cmp	 DWORD PTR _victim$[ebp], 0
  00224	74 0a		 je	 SHORT $LN28@calculate_
  00226	8b 45 08	 mov	 eax, DWORD PTR _victim$[ebp]
  00229	8b 08		 mov	 ecx, DWORD PTR [eax]
  0022b	89 4d a4	 mov	 DWORD PTR tv182[ebp], ecx
  0022e	eb 21		 jmp	 SHORT $LN29@calculate_
$LN28@calculate_:
  00230	8b 15 00 00 00
	00		 mov	 edx, DWORD PTR ?__LINE__Var@?0??calculate_task_points_for_kill@@YGHPAUENTITY@@0@Z@4JA
  00236	83 c2 25	 add	 edx, 37			; 00000025H
  00239	52		 push	 edx
  0023a	68 00 00 00 00	 push	 OFFSET ??_C@_0ED@JCPIACOE@c?3?2users?2nhv90?2projects?2eech?2ap@
  0023f	a1 00 00 00 00	 mov	 eax, DWORD PTR ?null_entity_pointer_message@@3PBDB ; null_entity_pointer_message
  00244	50		 push	 eax
  00245	e8 00 00 00 00	 call	 ?process_assert@@YGXPBD0H@Z ; process_assert
  0024a	c7 45 a4 00 00
	00 00		 mov	 DWORD PTR tv182[ebp], 0
$LN29@calculate_:
  00251	b9 01 00 00 00	 mov	 ecx, 1
  00256	85 c9		 test	 ecx, ecx
  00258	74 09		 je	 SHORT $LN30@calculate_
  0025a	c7 45 a0 26 00
	00 00		 mov	 DWORD PTR tv190[ebp], 38 ; 00000026H
  00261	eb 21		 jmp	 SHORT $LN31@calculate_
$LN30@calculate_:
  00263	8b 15 00 00 00
	00		 mov	 edx, DWORD PTR ?__LINE__Var@?0??calculate_task_points_for_kill@@YGHPAUENTITY@@0@Z@4JA
  00269	83 c2 25	 add	 edx, 37			; 00000025H
  0026c	52		 push	 edx
  0026d	68 00 00 00 00	 push	 OFFSET ??_C@_0ED@JCPIACOE@c?3?2users?2nhv90?2projects?2eech?2ap@
  00272	a1 00 00 00 00	 mov	 eax, DWORD PTR ?overload_invalid_list_type_message@@3PBDB ; overload_invalid_list_type_message
  00277	50		 push	 eax
  00278	e8 00 00 00 00	 call	 ?process_assert@@YGXPBD0H@Z ; process_assert
  0027d	c7 45 a0 00 00
	00 00		 mov	 DWORD PTR tv190[ebp], 0
$LN31@calculate_:
  00284	6a 26		 push	 38			; 00000026H
  00286	8b 4d 08	 mov	 ecx, DWORD PTR _victim$[ebp]
  00289	51		 push	 ecx
  0028a	69 55 a4 b4 00
	00 00		 imul	 edx, DWORD PTR tv182[ebp], 180
  00291	8b 45 a0	 mov	 eax, DWORD PTR tv190[ebp]
  00294	8b 8c 82 00 00
	00 00		 mov	 ecx, DWORD PTR ?fn_get_local_entity_parent@@3PAY0CN@P6GPAUENTITY@@PAU1@W4LIST_TYPES@@@ZA[edx+eax*4]
  0029b	ff d1		 call	 ecx
  0029d	89 45 f0	 mov	 DWORD PTR _target$[ebp], eax

; 320  : 
; 321  : 	if (target)

  002a0	83 7d f0 00	 cmp	 DWORD PTR _target$[ebp], 0
  002a4	0f 84 6f 02 00
	00		 je	 $LN4@calculate_

; 322  : 	{
; 323  : 		p = (float)points;

  002aa	f3 0f 2a 45 f8	 cvtsi2ss xmm0, DWORD PTR _points$[ebp]
  002af	f3 0f 11 45 f4	 movss	 DWORD PTR _p$[ebp], xmm0

; 324  : 
; 325  : 		if ((get_local_entity_int_value (target, INT_TYPE_IDENTIFY_AIRCRAFT)) ||

  002b4	83 7d f0 00	 cmp	 DWORD PTR _target$[ebp], 0
  002b8	74 0a		 je	 SHORT $LN32@calculate_
  002ba	8b 45 f0	 mov	 eax, DWORD PTR _target$[ebp]
  002bd	8b 08		 mov	 ecx, DWORD PTR [eax]
  002bf	89 4d a4	 mov	 DWORD PTR tv203[ebp], ecx
  002c2	eb 1d		 jmp	 SHORT $LN33@calculate_
$LN32@calculate_:
  002c4	68 45 01 00 00	 push	 325			; 00000145H
  002c9	68 00 00 00 00	 push	 OFFSET ??_C@_0ED@JCPIACOE@c?3?2users?2nhv90?2projects?2eech?2ap@
  002ce	8b 15 00 00 00
	00		 mov	 edx, DWORD PTR ?null_entity_pointer_message@@3PBDB ; null_entity_pointer_message
  002d4	52		 push	 edx
  002d5	e8 00 00 00 00	 call	 ?process_assert@@YGXPBD0H@Z ; process_assert
  002da	c7 45 a4 00 00
	00 00		 mov	 DWORD PTR tv203[ebp], 0
$LN33@calculate_:
  002e1	b8 01 00 00 00	 mov	 eax, 1
  002e6	85 c0		 test	 eax, eax
  002e8	74 09		 je	 SHORT $LN34@calculate_
  002ea	c7 45 a0 57 00
	00 00		 mov	 DWORD PTR tv210[ebp], 87 ; 00000057H
  002f1	eb 1d		 jmp	 SHORT $LN35@calculate_
$LN34@calculate_:
  002f3	68 45 01 00 00	 push	 325			; 00000145H
  002f8	68 00 00 00 00	 push	 OFFSET ??_C@_0ED@JCPIACOE@c?3?2users?2nhv90?2projects?2eech?2ap@
  002fd	8b 0d 00 00 00
	00		 mov	 ecx, DWORD PTR ?overload_invalid_int_type_message@@3PBDB ; overload_invalid_int_type_message
  00303	51		 push	 ecx
  00304	e8 00 00 00 00	 call	 ?process_assert@@YGXPBD0H@Z ; process_assert
  00309	c7 45 a0 00 00
	00 00		 mov	 DWORD PTR tv210[ebp], 0
$LN35@calculate_:
  00310	6a 57		 push	 87			; 00000057H
  00312	8b 55 f0	 mov	 edx, DWORD PTR _target$[ebp]
  00315	52		 push	 edx
  00316	69 45 a4 5c 04
	00 00		 imul	 eax, DWORD PTR tv203[ebp], 1116
  0031d	8b 4d a0	 mov	 ecx, DWORD PTR tv210[ebp]
  00320	8b 94 88 00 00
	00 00		 mov	 edx, DWORD PTR ?fn_get_local_entity_int_value@@3PAY0BBH@P6GHPAUENTITY@@W4INT_TYPES@@@ZA[eax+ecx*4]
  00327	ff d2		 call	 edx
  00329	85 c0		 test	 eax, eax
  0032b	75 7d		 jne	 SHORT $LN6@calculate_
  0032d	83 7d f0 00	 cmp	 DWORD PTR _target$[ebp], 0
  00331	74 0a		 je	 SHORT $LN36@calculate_
  00333	8b 45 f0	 mov	 eax, DWORD PTR _target$[ebp]
  00336	8b 08		 mov	 ecx, DWORD PTR [eax]
  00338	89 4d a4	 mov	 DWORD PTR tv222[ebp], ecx
  0033b	eb 1d		 jmp	 SHORT $LN37@calculate_
$LN36@calculate_:
  0033d	68 46 01 00 00	 push	 326			; 00000146H
  00342	68 00 00 00 00	 push	 OFFSET ??_C@_0ED@JCPIACOE@c?3?2users?2nhv90?2projects?2eech?2ap@
  00347	8b 15 00 00 00
	00		 mov	 edx, DWORD PTR ?null_entity_pointer_message@@3PBDB ; null_entity_pointer_message
  0034d	52		 push	 edx
  0034e	e8 00 00 00 00	 call	 ?process_assert@@YGXPBD0H@Z ; process_assert
  00353	c7 45 a4 00 00
	00 00		 mov	 DWORD PTR tv222[ebp], 0
$LN37@calculate_:
  0035a	b8 01 00 00 00	 mov	 eax, 1
  0035f	85 c0		 test	 eax, eax
  00361	74 09		 je	 SHORT $LN38@calculate_
  00363	c7 45 a0 60 00
	00 00		 mov	 DWORD PTR tv229[ebp], 96 ; 00000060H
  0036a	eb 1d		 jmp	 SHORT $LN39@calculate_
$LN38@calculate_:
  0036c	68 46 01 00 00	 push	 326			; 00000146H
  00371	68 00 00 00 00	 push	 OFFSET ??_C@_0ED@JCPIACOE@c?3?2users?2nhv90?2projects?2eech?2ap@
  00376	8b 0d 00 00 00
	00		 mov	 ecx, DWORD PTR ?overload_invalid_int_type_message@@3PBDB ; overload_invalid_int_type_message
  0037c	51		 push	 ecx
  0037d	e8 00 00 00 00	 call	 ?process_assert@@YGXPBD0H@Z ; process_assert
  00382	c7 45 a0 00 00
	00 00		 mov	 DWORD PTR tv229[ebp], 0
$LN39@calculate_:
  00389	6a 60		 push	 96			; 00000060H
  0038b	8b 55 f0	 mov	 edx, DWORD PTR _target$[ebp]
  0038e	52		 push	 edx
  0038f	69 45 a4 5c 04
	00 00		 imul	 eax, DWORD PTR tv222[ebp], 1116
  00396	8b 4d a0	 mov	 ecx, DWORD PTR tv229[ebp]
  00399	8b 94 88 00 00
	00 00		 mov	 edx, DWORD PTR ?fn_get_local_entity_int_value@@3PAY0BBH@P6GHPAUENTITY@@W4INT_TYPES@@@ZA[eax+ecx*4]
  003a0	ff d2		 call	 edx
  003a2	85 c0		 test	 eax, eax
  003a4	0f 84 52 01 00
	00		 je	 $LN10@calculate_
$LN6@calculate_:

; 326  : 				(get_local_entity_int_value (target, INT_TYPE_IDENTIFY_VEHICLE)))
; 327  : 		{
; 328  : 			group = get_local_entity_parent (target, LIST_TYPE_MEMBER);

  003aa	83 7d f0 00	 cmp	 DWORD PTR _target$[ebp], 0
  003ae	74 0a		 je	 SHORT $LN40@calculate_
  003b0	8b 45 f0	 mov	 eax, DWORD PTR _target$[ebp]
  003b3	8b 08		 mov	 ecx, DWORD PTR [eax]
  003b5	89 4d a4	 mov	 DWORD PTR tv242[ebp], ecx
  003b8	eb 21		 jmp	 SHORT $LN41@calculate_
$LN40@calculate_:
  003ba	8b 15 00 00 00
	00		 mov	 edx, DWORD PTR ?__LINE__Var@?0??calculate_task_points_for_kill@@YGHPAUENTITY@@0@Z@4JA
  003c0	83 c2 2e	 add	 edx, 46			; 0000002eH
  003c3	52		 push	 edx
  003c4	68 00 00 00 00	 push	 OFFSET ??_C@_0ED@JCPIACOE@c?3?2users?2nhv90?2projects?2eech?2ap@
  003c9	a1 00 00 00 00	 mov	 eax, DWORD PTR ?null_entity_pointer_message@@3PBDB ; null_entity_pointer_message
  003ce	50		 push	 eax
  003cf	e8 00 00 00 00	 call	 ?process_assert@@YGXPBD0H@Z ; process_assert
  003d4	c7 45 a4 00 00
	00 00		 mov	 DWORD PTR tv242[ebp], 0
$LN41@calculate_:
  003db	b9 01 00 00 00	 mov	 ecx, 1
  003e0	85 c9		 test	 ecx, ecx
  003e2	74 09		 je	 SHORT $LN42@calculate_
  003e4	c7 45 a0 19 00
	00 00		 mov	 DWORD PTR tv250[ebp], 25 ; 00000019H
  003eb	eb 21		 jmp	 SHORT $LN43@calculate_
$LN42@calculate_:
  003ed	8b 15 00 00 00
	00		 mov	 edx, DWORD PTR ?__LINE__Var@?0??calculate_task_points_for_kill@@YGHPAUENTITY@@0@Z@4JA
  003f3	83 c2 2e	 add	 edx, 46			; 0000002eH
  003f6	52		 push	 edx
  003f7	68 00 00 00 00	 push	 OFFSET ??_C@_0ED@JCPIACOE@c?3?2users?2nhv90?2projects?2eech?2ap@
  003fc	a1 00 00 00 00	 mov	 eax, DWORD PTR ?overload_invalid_list_type_message@@3PBDB ; overload_invalid_list_type_message
  00401	50		 push	 eax
  00402	e8 00 00 00 00	 call	 ?process_assert@@YGXPBD0H@Z ; process_assert
  00407	c7 45 a0 00 00
	00 00		 mov	 DWORD PTR tv250[ebp], 0
$LN43@calculate_:
  0040e	6a 19		 push	 25			; 00000019H
  00410	8b 4d f0	 mov	 ecx, DWORD PTR _target$[ebp]
  00413	51		 push	 ecx
  00414	69 55 a4 b4 00
	00 00		 imul	 edx, DWORD PTR tv242[ebp], 180
  0041b	8b 45 a0	 mov	 eax, DWORD PTR tv250[ebp]
  0041e	8b 8c 82 00 00
	00 00		 mov	 ecx, DWORD PTR ?fn_get_local_entity_parent@@3PAY0CN@P6GPAUENTITY@@PAU1@W4LIST_TYPES@@@ZA[edx+eax*4]
  00425	ff d1		 call	 ecx
  00427	89 45 ec	 mov	 DWORD PTR _group$[ebp], eax

; 329  : 
; 330  : 			if (group)

  0042a	83 7d ec 00	 cmp	 DWORD PTR _group$[ebp], 0
  0042e	0f 84 c8 00 00
	00		 je	 $LN10@calculate_

; 331  : 			{
; 332  : 				if (group == aggressor_group)

  00434	8b 45 ec	 mov	 eax, DWORD PTR _group$[ebp]
  00437	3b 45 e8	 cmp	 eax, DWORD PTR _aggressor_group$[ebp]
  0043a	75 24		 jne	 SHORT $LN8@calculate_

; 333  : 				{
; 334  : 					//
; 335  : 					// 10% bonus for threat to your group....
; 336  : 					//
; 337  : 					
; 338  : 					p += (p * 0.10);

  0043c	f3 0f 5a 45 f4	 cvtss2sd xmm0, DWORD PTR _p$[ebp]
  00441	f2 0f 59 05 00
	00 00 00	 mulsd	 xmm0, QWORD PTR __real@3fb999999999999a
  00449	f3 0f 5a 4d f4	 cvtss2sd xmm1, DWORD PTR _p$[ebp]
  0044e	f2 0f 58 c8	 addsd	 xmm1, xmm0
  00452	f2 0f 5a c1	 cvtsd2ss xmm0, xmm1
  00456	f3 0f 11 45 f4	 movss	 DWORD PTR _p$[ebp], xmm0
  0045b	e9 9c 00 00 00	 jmp	 $LN10@calculate_
$LN8@calculate_:

; 339  : 				}
; 340  : 				else if (get_local_entity_int_value (group, INT_TYPE_SIDE) == side)

  00460	83 7d ec 00	 cmp	 DWORD PTR _group$[ebp], 0
  00464	74 0a		 je	 SHORT $LN44@calculate_
  00466	8b 45 ec	 mov	 eax, DWORD PTR _group$[ebp]
  00469	8b 08		 mov	 ecx, DWORD PTR [eax]
  0046b	89 4d a4	 mov	 DWORD PTR tv268[ebp], ecx
  0046e	eb 1d		 jmp	 SHORT $LN45@calculate_
$LN44@calculate_:
  00470	68 54 01 00 00	 push	 340			; 00000154H
  00475	68 00 00 00 00	 push	 OFFSET ??_C@_0ED@JCPIACOE@c?3?2users?2nhv90?2projects?2eech?2ap@
  0047a	8b 15 00 00 00
	00		 mov	 edx, DWORD PTR ?null_entity_pointer_message@@3PBDB ; null_entity_pointer_message
  00480	52		 push	 edx
  00481	e8 00 00 00 00	 call	 ?process_assert@@YGXPBD0H@Z ; process_assert
  00486	c7 45 a4 00 00
	00 00		 mov	 DWORD PTR tv268[ebp], 0
$LN45@calculate_:
  0048d	b8 01 00 00 00	 mov	 eax, 1
  00492	85 c0		 test	 eax, eax
  00494	74 09		 je	 SHORT $LN46@calculate_
  00496	c7 45 a0 bb 00
	00 00		 mov	 DWORD PTR tv275[ebp], 187 ; 000000bbH
  0049d	eb 1d		 jmp	 SHORT $LN47@calculate_
$LN46@calculate_:
  0049f	68 54 01 00 00	 push	 340			; 00000154H
  004a4	68 00 00 00 00	 push	 OFFSET ??_C@_0ED@JCPIACOE@c?3?2users?2nhv90?2projects?2eech?2ap@
  004a9	8b 0d 00 00 00
	00		 mov	 ecx, DWORD PTR ?overload_invalid_int_type_message@@3PBDB ; overload_invalid_int_type_message
  004af	51		 push	 ecx
  004b0	e8 00 00 00 00	 call	 ?process_assert@@YGXPBD0H@Z ; process_assert
  004b5	c7 45 a0 00 00
	00 00		 mov	 DWORD PTR tv275[ebp], 0
$LN47@calculate_:
  004bc	68 bb 00 00 00	 push	 187			; 000000bbH
  004c1	8b 55 ec	 mov	 edx, DWORD PTR _group$[ebp]
  004c4	52		 push	 edx
  004c5	69 45 a4 5c 04
	00 00		 imul	 eax, DWORD PTR tv268[ebp], 1116
  004cc	8b 4d a0	 mov	 ecx, DWORD PTR tv275[ebp]
  004cf	8b 94 88 00 00
	00 00		 mov	 edx, DWORD PTR ?fn_get_local_entity_int_value@@3PAY0BBH@P6GHPAUENTITY@@W4INT_TYPES@@@ZA[eax+ecx*4]
  004d6	ff d2		 call	 edx
  004d8	3b 45 fc	 cmp	 eax, DWORD PTR _side$[ebp]
  004db	75 1f		 jne	 SHORT $LN10@calculate_

; 341  : 				{
; 342  : 					//
; 343  : 					// 50% bonus for threat to another friendly group....
; 344  : 					//
; 345  : 					
; 346  : 					p += (p * 0.50);

  004dd	f3 0f 5a 45 f4	 cvtss2sd xmm0, DWORD PTR _p$[ebp]
  004e2	f2 0f 59 05 00
	00 00 00	 mulsd	 xmm0, QWORD PTR __real@3fe0000000000000
  004ea	f3 0f 5a 4d f4	 cvtss2sd xmm1, DWORD PTR _p$[ebp]
  004ef	f2 0f 58 c8	 addsd	 xmm1, xmm0
  004f3	f2 0f 5a c1	 cvtsd2ss xmm0, xmm1
  004f7	f3 0f 11 45 f4	 movss	 DWORD PTR _p$[ebp], xmm0
$LN10@calculate_:

; 347  : 				}
; 348  : 			}
; 349  : 		}
; 350  : 
; 351  : 		//
; 352  : 		// Round Up
; 353  : 		//
; 354  : 		
; 355  : 		convert_float_to_int (ceil (p), &points);

  004fc	8d 45 f8	 lea	 eax, DWORD PTR _points$[ebp]
  004ff	50		 push	 eax
  00500	51		 push	 ecx
  00501	f3 0f 10 45 f4	 movss	 xmm0, DWORD PTR _p$[ebp]
  00506	f3 0f 11 04 24	 movss	 DWORD PTR [esp], xmm0
  0050b	e8 00 00 00 00	 call	 ?ceil@@YGMM@Z		; ceil
  00510	51		 push	 ecx
  00511	d9 1c 24	 fstp	 DWORD PTR [esp]
  00514	e8 00 00 00 00	 call	 ?convert_float_to_int@@YGXMPAH@Z ; convert_float_to_int
$LN4@calculate_:

; 356  : 	}
; 357  : 
; 358  : 	return points;

  00519	8b 45 f8	 mov	 eax, DWORD PTR _points$[ebp]
$LN1@calculate_:

; 359  : }

  0051c	5f		 pop	 edi
  0051d	5e		 pop	 esi
  0051e	5b		 pop	 ebx
  0051f	8b e5		 mov	 esp, ebp
  00521	5d		 pop	 ebp
  00522	c2 08 00	 ret	 8
?calculate_task_points_for_kill@@YGHPAUENTITY@@0@Z ENDP	; calculate_task_points_for_kill
_TEXT	ENDS
; Function compile flags: /Odtp /ZI
; File c:\users\nhv90\projects\eech\aphavoc\source\entity\mobile\mobile.c
;	COMDAT ?play_mobile_under_attack_speech@@YGXPAUENTITY@@0@Z
_TEXT	SEGMENT
tv306 = -96						; size = 4
tv298 = -92						; size = 4
tv272 = -88						; size = 4
tv218 = -88						; size = 4
tv198 = -88						; size = 4
tv177 = -88						; size = 4
tv153 = -88						; size = 4
tv132 = -88						; size = 4
tv81 = -88						; size = 4
tv264 = -84						; size = 4
tv210 = -84						; size = 4
tv190 = -84						; size = 4
tv170 = -84						; size = 4
tv145 = -84						; size = 4
tv93 = -84						; size = 4
tv74 = -84						; size = 4
_group$ = -16						; size = 4
_speech_index$ = -12					; size = 4
_member_number$ = -8					; size = 4
_pos$ = -4						; size = 4
_en$ = 8						; size = 4
_aggressor$ = 12					; size = 4
?play_mobile_under_attack_speech@@YGXPAUENTITY@@0@Z PROC ; play_mobile_under_attack_speech, COMDAT

; 925  : {

  00000	55		 push	 ebp
  00001	8b ec		 mov	 ebp, esp
  00003	83 ec 60	 sub	 esp, 96			; 00000060H
  00006	53		 push	 ebx
  00007	56		 push	 esi
  00008	57		 push	 edi

; 926  : 	vec3d
; 927  : 		*pos;
; 928  : 
; 929  : 	int
; 930  : 		member_number,
; 931  : 		speech_index;
; 932  : 
; 933  : 	entity
; 934  : 		*group;
; 935  : 
; 936  : 	ASSERT (get_comms_model () == COMMS_MODEL_SERVER);

  00009	83 3d 00 00 00
	00 00		 cmp	 DWORD PTR ?system_comms_model@@3W4COMMS_MODEL_TYPES@@A, 0 ; system_comms_model
  00010	74 18		 je	 SHORT $LN2@play_mobil
  00012	a1 00 00 00 00	 mov	 eax, DWORD PTR ?__LINE__Var@?0??play_mobile_under_attack_speech@@YGXPAUENTITY@@0@Z@4JA
  00017	83 c0 0b	 add	 eax, 11			; 0000000bH
  0001a	50		 push	 eax
  0001b	68 00 00 00 00	 push	 OFFSET ??_C@_0ED@JCPIACOE@c?3?2users?2nhv90?2projects?2eech?2ap@
  00020	68 00 00 00 00	 push	 OFFSET ??_C@_0CJ@DMBLBJBK@get_comms_model?5?$CI?$CJ?5?$DN?$DN?5COMMS_MOD@
  00025	e8 00 00 00 00	 call	 ?process_assert@@YGXPBD0H@Z ; process_assert
$LN2@play_mobil:

; 937  : 
; 938  : 	if (get_local_entity_int_value (en, INT_TYPE_IDENTIFY_AIRCRAFT))

  0002a	83 7d 08 00	 cmp	 DWORD PTR _en$[ebp], 0
  0002e	74 0a		 je	 SHORT $LN9@play_mobil
  00030	8b 45 08	 mov	 eax, DWORD PTR _en$[ebp]
  00033	8b 08		 mov	 ecx, DWORD PTR [eax]
  00035	89 4d ac	 mov	 DWORD PTR tv74[ebp], ecx
  00038	eb 1d		 jmp	 SHORT $LN10@play_mobil
$LN9@play_mobil:
  0003a	68 aa 03 00 00	 push	 938			; 000003aaH
  0003f	68 00 00 00 00	 push	 OFFSET ??_C@_0ED@JCPIACOE@c?3?2users?2nhv90?2projects?2eech?2ap@
  00044	8b 15 00 00 00
	00		 mov	 edx, DWORD PTR ?null_entity_pointer_message@@3PBDB ; null_entity_pointer_message
  0004a	52		 push	 edx
  0004b	e8 00 00 00 00	 call	 ?process_assert@@YGXPBD0H@Z ; process_assert
  00050	c7 45 ac 00 00
	00 00		 mov	 DWORD PTR tv74[ebp], 0
$LN10@play_mobil:
  00057	b8 01 00 00 00	 mov	 eax, 1
  0005c	85 c0		 test	 eax, eax
  0005e	74 09		 je	 SHORT $LN11@play_mobil
  00060	c7 45 a8 57 00
	00 00		 mov	 DWORD PTR tv81[ebp], 87	; 00000057H
  00067	eb 1d		 jmp	 SHORT $LN12@play_mobil
$LN11@play_mobil:
  00069	68 aa 03 00 00	 push	 938			; 000003aaH
  0006e	68 00 00 00 00	 push	 OFFSET ??_C@_0ED@JCPIACOE@c?3?2users?2nhv90?2projects?2eech?2ap@
  00073	8b 0d 00 00 00
	00		 mov	 ecx, DWORD PTR ?overload_invalid_int_type_message@@3PBDB ; overload_invalid_int_type_message
  00079	51		 push	 ecx
  0007a	e8 00 00 00 00	 call	 ?process_assert@@YGXPBD0H@Z ; process_assert
  0007f	c7 45 a8 00 00
	00 00		 mov	 DWORD PTR tv81[ebp], 0
$LN12@play_mobil:
  00086	6a 57		 push	 87			; 00000057H
  00088	8b 55 08	 mov	 edx, DWORD PTR _en$[ebp]
  0008b	52		 push	 edx
  0008c	69 45 ac 5c 04
	00 00		 imul	 eax, DWORD PTR tv74[ebp], 1116
  00093	8b 4d a8	 mov	 ecx, DWORD PTR tv81[ebp]
  00096	8b 94 88 00 00
	00 00		 mov	 edx, DWORD PTR ?fn_get_local_entity_int_value@@3PAY0BBH@P6GHPAUENTITY@@W4INT_TYPES@@@ZA[eax+ecx*4]
  0009d	ff d2		 call	 edx
  0009f	85 c0		 test	 eax, eax
  000a1	0f 84 86 04 00
	00		 je	 $LN4@play_mobil

; 939  : 	{
; 940  : 		if (get_local_entity_int_value (en, INT_TYPE_PLAYER) == ENTITY_PLAYER_AI)

  000a7	83 7d 08 00	 cmp	 DWORD PTR _en$[ebp], 0
  000ab	74 0a		 je	 SHORT $LN13@play_mobil
  000ad	8b 45 08	 mov	 eax, DWORD PTR _en$[ebp]
  000b0	8b 08		 mov	 ecx, DWORD PTR [eax]
  000b2	89 4d ac	 mov	 DWORD PTR tv93[ebp], ecx
  000b5	eb 1d		 jmp	 SHORT $LN14@play_mobil
$LN13@play_mobil:
  000b7	68 ac 03 00 00	 push	 940			; 000003acH
  000bc	68 00 00 00 00	 push	 OFFSET ??_C@_0ED@JCPIACOE@c?3?2users?2nhv90?2projects?2eech?2ap@
  000c1	8b 15 00 00 00
	00		 mov	 edx, DWORD PTR ?null_entity_pointer_message@@3PBDB ; null_entity_pointer_message
  000c7	52		 push	 edx
  000c8	e8 00 00 00 00	 call	 ?process_assert@@YGXPBD0H@Z ; process_assert
  000cd	c7 45 ac 00 00
	00 00		 mov	 DWORD PTR tv93[ebp], 0
$LN14@play_mobil:
  000d4	b8 01 00 00 00	 mov	 eax, 1
  000d9	85 c0		 test	 eax, eax
  000db	74 09		 je	 SHORT $LN15@play_mobil
  000dd	c7 45 a8 9c 00
	00 00		 mov	 DWORD PTR tv132[ebp], 156 ; 0000009cH
  000e4	eb 1d		 jmp	 SHORT $LN16@play_mobil
$LN15@play_mobil:
  000e6	68 ac 03 00 00	 push	 940			; 000003acH
  000eb	68 00 00 00 00	 push	 OFFSET ??_C@_0ED@JCPIACOE@c?3?2users?2nhv90?2projects?2eech?2ap@
  000f0	8b 0d 00 00 00
	00		 mov	 ecx, DWORD PTR ?overload_invalid_int_type_message@@3PBDB ; overload_invalid_int_type_message
  000f6	51		 push	 ecx
  000f7	e8 00 00 00 00	 call	 ?process_assert@@YGXPBD0H@Z ; process_assert
  000fc	c7 45 a8 00 00
	00 00		 mov	 DWORD PTR tv132[ebp], 0
$LN16@play_mobil:
  00103	68 9c 00 00 00	 push	 156			; 0000009cH
  00108	8b 55 08	 mov	 edx, DWORD PTR _en$[ebp]
  0010b	52		 push	 edx
  0010c	69 45 ac 5c 04
	00 00		 imul	 eax, DWORD PTR tv93[ebp], 1116
  00113	8b 4d a8	 mov	 ecx, DWORD PTR tv132[ebp]
  00116	8b 94 88 00 00
	00 00		 mov	 edx, DWORD PTR ?fn_get_local_entity_int_value@@3PAY0BBH@P6GHPAUENTITY@@W4INT_TYPES@@@ZA[eax+ecx*4]
  0011d	ff d2		 call	 edx
  0011f	85 c0		 test	 eax, eax
  00121	0f 85 06 04 00
	00		 jne	 $LN4@play_mobil

; 941  : 		{
; 942  : 			pos = get_local_entity_vec3d_ptr (en, VEC3D_TYPE_POSITION); 

  00127	83 7d 08 00	 cmp	 DWORD PTR _en$[ebp], 0
  0012b	74 0a		 je	 SHORT $LN17@play_mobil
  0012d	8b 45 08	 mov	 eax, DWORD PTR _en$[ebp]
  00130	8b 08		 mov	 ecx, DWORD PTR [eax]
  00132	89 4d ac	 mov	 DWORD PTR tv145[ebp], ecx
  00135	eb 21		 jmp	 SHORT $LN18@play_mobil
$LN17@play_mobil:
  00137	8b 15 00 00 00
	00		 mov	 edx, DWORD PTR ?__LINE__Var@?0??play_mobile_under_attack_speech@@YGXPAUENTITY@@0@Z@4JA
  0013d	83 c2 11	 add	 edx, 17			; 00000011H
  00140	52		 push	 edx
  00141	68 00 00 00 00	 push	 OFFSET ??_C@_0ED@JCPIACOE@c?3?2users?2nhv90?2projects?2eech?2ap@
  00146	a1 00 00 00 00	 mov	 eax, DWORD PTR ?null_entity_pointer_message@@3PBDB ; null_entity_pointer_message
  0014b	50		 push	 eax
  0014c	e8 00 00 00 00	 call	 ?process_assert@@YGXPBD0H@Z ; process_assert
  00151	c7 45 ac 00 00
	00 00		 mov	 DWORD PTR tv145[ebp], 0
$LN18@play_mobil:
  00158	b9 01 00 00 00	 mov	 ecx, 1
  0015d	85 c9		 test	 ecx, ecx
  0015f	74 09		 je	 SHORT $LN19@play_mobil
  00161	c7 45 a8 08 00
	00 00		 mov	 DWORD PTR tv153[ebp], 8
  00168	eb 21		 jmp	 SHORT $LN20@play_mobil
$LN19@play_mobil:
  0016a	8b 15 00 00 00
	00		 mov	 edx, DWORD PTR ?__LINE__Var@?0??play_mobile_under_attack_speech@@YGXPAUENTITY@@0@Z@4JA
  00170	83 c2 11	 add	 edx, 17			; 00000011H
  00173	52		 push	 edx
  00174	68 00 00 00 00	 push	 OFFSET ??_C@_0ED@JCPIACOE@c?3?2users?2nhv90?2projects?2eech?2ap@
  00179	a1 00 00 00 00	 mov	 eax, DWORD PTR ?overload_invalid_vec3d_type_message@@3PBDB ; overload_invalid_vec3d_type_message
  0017e	50		 push	 eax
  0017f	e8 00 00 00 00	 call	 ?process_assert@@YGXPBD0H@Z ; process_assert
  00184	c7 45 a8 00 00
	00 00		 mov	 DWORD PTR tv153[ebp], 0
$LN20@play_mobil:
  0018b	6a 08		 push	 8
  0018d	8b 4d 08	 mov	 ecx, DWORD PTR _en$[ebp]
  00190	51		 push	 ecx
  00191	6b 55 ac 60	 imul	 edx, DWORD PTR tv145[ebp], 96
  00195	8b 45 a8	 mov	 eax, DWORD PTR tv153[ebp]
  00198	8b 8c 82 00 00
	00 00		 mov	 ecx, DWORD PTR ?fn_get_local_entity_vec3d_ptr@@3PAY0BI@P6GPAUVEC3D@@PAUENTITY@@W4VEC3D_TYPES@@@ZA[edx+eax*4]
  0019f	ff d1		 call	 ecx
  001a1	89 45 fc	 mov	 DWORD PTR _pos$[ebp], eax

; 943  : 
; 944  : 			ASSERT (pos);

  001a4	83 7d fc 00	 cmp	 DWORD PTR _pos$[ebp], 0
  001a8	75 18		 jne	 SHORT $LN5@play_mobil
  001aa	a1 00 00 00 00	 mov	 eax, DWORD PTR ?__LINE__Var@?0??play_mobile_under_attack_speech@@YGXPAUENTITY@@0@Z@4JA
  001af	83 c0 13	 add	 eax, 19			; 00000013H
  001b2	50		 push	 eax
  001b3	68 00 00 00 00	 push	 OFFSET ??_C@_0ED@JCPIACOE@c?3?2users?2nhv90?2projects?2eech?2ap@
  001b8	68 00 00 00 00	 push	 OFFSET ??_C@_03PCBNCGFH@pos@
  001bd	e8 00 00 00 00	 call	 ?process_assert@@YGXPBD0H@Z ; process_assert
$LN5@play_mobil:

; 945  : 
; 946  : 			get_speech_sector_coordinates (pos);

  001c2	8b 45 fc	 mov	 eax, DWORD PTR _pos$[ebp]
  001c5	50		 push	 eax
  001c6	e8 00 00 00 00	 call	 ?get_speech_sector_coordinates@@YGPAHPAUVEC3D@@@Z ; get_speech_sector_coordinates

; 947  : 
; 948  : 			if (get_local_entity_int_value (aggressor, INT_TYPE_IDENTIFY_AIRCRAFT))

  001cb	83 7d 0c 00	 cmp	 DWORD PTR _aggressor$[ebp], 0
  001cf	74 0a		 je	 SHORT $LN21@play_mobil
  001d1	8b 45 0c	 mov	 eax, DWORD PTR _aggressor$[ebp]
  001d4	8b 08		 mov	 ecx, DWORD PTR [eax]
  001d6	89 4d ac	 mov	 DWORD PTR tv170[ebp], ecx
  001d9	eb 1d		 jmp	 SHORT $LN22@play_mobil
$LN21@play_mobil:
  001db	68 b4 03 00 00	 push	 948			; 000003b4H
  001e0	68 00 00 00 00	 push	 OFFSET ??_C@_0ED@JCPIACOE@c?3?2users?2nhv90?2projects?2eech?2ap@
  001e5	8b 15 00 00 00
	00		 mov	 edx, DWORD PTR ?null_entity_pointer_message@@3PBDB ; null_entity_pointer_message
  001eb	52		 push	 edx
  001ec	e8 00 00 00 00	 call	 ?process_assert@@YGXPBD0H@Z ; process_assert
  001f1	c7 45 ac 00 00
	00 00		 mov	 DWORD PTR tv170[ebp], 0
$LN22@play_mobil:
  001f8	b8 01 00 00 00	 mov	 eax, 1
  001fd	85 c0		 test	 eax, eax
  001ff	74 09		 je	 SHORT $LN23@play_mobil
  00201	c7 45 a8 57 00
	00 00		 mov	 DWORD PTR tv177[ebp], 87 ; 00000057H
  00208	eb 1d		 jmp	 SHORT $LN24@play_mobil
$LN23@play_mobil:
  0020a	68 b4 03 00 00	 push	 948			; 000003b4H
  0020f	68 00 00 00 00	 push	 OFFSET ??_C@_0ED@JCPIACOE@c?3?2users?2nhv90?2projects?2eech?2ap@
  00214	8b 0d 00 00 00
	00		 mov	 ecx, DWORD PTR ?overload_invalid_int_type_message@@3PBDB ; overload_invalid_int_type_message
  0021a	51		 push	 ecx
  0021b	e8 00 00 00 00	 call	 ?process_assert@@YGXPBD0H@Z ; process_assert
  00220	c7 45 a8 00 00
	00 00		 mov	 DWORD PTR tv177[ebp], 0
$LN24@play_mobil:
  00227	6a 57		 push	 87			; 00000057H
  00229	8b 55 0c	 mov	 edx, DWORD PTR _aggressor$[ebp]
  0022c	52		 push	 edx
  0022d	69 45 ac 5c 04
	00 00		 imul	 eax, DWORD PTR tv170[ebp], 1116
  00234	8b 4d a8	 mov	 ecx, DWORD PTR tv177[ebp]
  00237	8b 94 88 00 00
	00 00		 mov	 edx, DWORD PTR ?fn_get_local_entity_int_value@@3PAY0BBH@P6GHPAUENTITY@@W4INT_TYPES@@@ZA[eax+ecx*4]
  0023e	ff d2		 call	 edx
  00240	85 c0		 test	 eax, eax
  00242	74 09		 je	 SHORT $LN6@play_mobil

; 949  : 			{
; 950  : 				speech_index = SPEECH_WINGMAN_UNDER_ATTACK_AIRCRAFT;

  00244	c7 45 f4 37 00
	00 00		 mov	 DWORD PTR _speech_index$[ebp], 55 ; 00000037H

; 951  : 			}
; 952  : 			else

  0024b	eb 07		 jmp	 SHORT $LN7@play_mobil
$LN6@play_mobil:

; 953  : 			{
; 954  : 				speech_index = SPEECH_WINGMAN_UNDER_ATTACK_ARMOUR;

  0024d	c7 45 f4 38 00
	00 00		 mov	 DWORD PTR _speech_index$[ebp], 56 ; 00000038H
$LN7@play_mobil:

; 955  : 			}
; 956  : 
; 957  : 			group = get_local_entity_parent (en, LIST_TYPE_MEMBER);

  00254	83 7d 08 00	 cmp	 DWORD PTR _en$[ebp], 0
  00258	74 0a		 je	 SHORT $LN25@play_mobil
  0025a	8b 45 08	 mov	 eax, DWORD PTR _en$[ebp]
  0025d	8b 08		 mov	 ecx, DWORD PTR [eax]
  0025f	89 4d ac	 mov	 DWORD PTR tv190[ebp], ecx
  00262	eb 21		 jmp	 SHORT $LN26@play_mobil
$LN25@play_mobil:
  00264	8b 15 00 00 00
	00		 mov	 edx, DWORD PTR ?__LINE__Var@?0??play_mobile_under_attack_speech@@YGXPAUENTITY@@0@Z@4JA
  0026a	83 c2 20	 add	 edx, 32			; 00000020H
  0026d	52		 push	 edx
  0026e	68 00 00 00 00	 push	 OFFSET ??_C@_0ED@JCPIACOE@c?3?2users?2nhv90?2projects?2eech?2ap@
  00273	a1 00 00 00 00	 mov	 eax, DWORD PTR ?null_entity_pointer_message@@3PBDB ; null_entity_pointer_message
  00278	50		 push	 eax
  00279	e8 00 00 00 00	 call	 ?process_assert@@YGXPBD0H@Z ; process_assert
  0027e	c7 45 ac 00 00
	00 00		 mov	 DWORD PTR tv190[ebp], 0
$LN26@play_mobil:
  00285	b9 01 00 00 00	 mov	 ecx, 1
  0028a	85 c9		 test	 ecx, ecx
  0028c	74 09		 je	 SHORT $LN27@play_mobil
  0028e	c7 45 a8 19 00
	00 00		 mov	 DWORD PTR tv198[ebp], 25 ; 00000019H
  00295	eb 21		 jmp	 SHORT $LN28@play_mobil
$LN27@play_mobil:
  00297	8b 15 00 00 00
	00		 mov	 edx, DWORD PTR ?__LINE__Var@?0??play_mobile_under_attack_speech@@YGXPAUENTITY@@0@Z@4JA
  0029d	83 c2 20	 add	 edx, 32			; 00000020H
  002a0	52		 push	 edx
  002a1	68 00 00 00 00	 push	 OFFSET ??_C@_0ED@JCPIACOE@c?3?2users?2nhv90?2projects?2eech?2ap@
  002a6	a1 00 00 00 00	 mov	 eax, DWORD PTR ?overload_invalid_list_type_message@@3PBDB ; overload_invalid_list_type_message
  002ab	50		 push	 eax
  002ac	e8 00 00 00 00	 call	 ?process_assert@@YGXPBD0H@Z ; process_assert
  002b1	c7 45 a8 00 00
	00 00		 mov	 DWORD PTR tv198[ebp], 0
$LN28@play_mobil:
  002b8	6a 19		 push	 25			; 00000019H
  002ba	8b 4d 08	 mov	 ecx, DWORD PTR _en$[ebp]
  002bd	51		 push	 ecx
  002be	69 55 ac b4 00
	00 00		 imul	 edx, DWORD PTR tv190[ebp], 180
  002c5	8b 45 a8	 mov	 eax, DWORD PTR tv198[ebp]
  002c8	8b 8c 82 00 00
	00 00		 mov	 ecx, DWORD PTR ?fn_get_local_entity_parent@@3PAY0CN@P6GPAUENTITY@@PAU1@W4LIST_TYPES@@@ZA[edx+eax*4]
  002cf	ff d1		 call	 ecx
  002d1	89 45 f0	 mov	 DWORD PTR _group$[ebp], eax

; 958  : 
; 959  : 			member_number = get_local_entity_int_value (en, INT_TYPE_GROUP_MEMBER_NUMBER);

  002d4	83 7d 08 00	 cmp	 DWORD PTR _en$[ebp], 0
  002d8	74 0a		 je	 SHORT $LN29@play_mobil
  002da	8b 45 08	 mov	 eax, DWORD PTR _en$[ebp]
  002dd	8b 08		 mov	 ecx, DWORD PTR [eax]
  002df	89 4d ac	 mov	 DWORD PTR tv210[ebp], ecx
  002e2	eb 21		 jmp	 SHORT $LN30@play_mobil
$LN29@play_mobil:
  002e4	8b 15 00 00 00
	00		 mov	 edx, DWORD PTR ?__LINE__Var@?0??play_mobile_under_attack_speech@@YGXPAUENTITY@@0@Z@4JA
  002ea	83 c2 22	 add	 edx, 34			; 00000022H
  002ed	52		 push	 edx
  002ee	68 00 00 00 00	 push	 OFFSET ??_C@_0ED@JCPIACOE@c?3?2users?2nhv90?2projects?2eech?2ap@
  002f3	a1 00 00 00 00	 mov	 eax, DWORD PTR ?null_entity_pointer_message@@3PBDB ; null_entity_pointer_message
  002f8	50		 push	 eax
  002f9	e8 00 00 00 00	 call	 ?process_assert@@YGXPBD0H@Z ; process_assert
  002fe	c7 45 ac 00 00
	00 00		 mov	 DWORD PTR tv210[ebp], 0
$LN30@play_mobil:
  00305	b9 01 00 00 00	 mov	 ecx, 1
  0030a	85 c9		 test	 ecx, ecx
  0030c	74 09		 je	 SHORT $LN31@play_mobil
  0030e	c7 45 a8 4b 00
	00 00		 mov	 DWORD PTR tv218[ebp], 75 ; 0000004bH
  00315	eb 21		 jmp	 SHORT $LN32@play_mobil
$LN31@play_mobil:
  00317	8b 15 00 00 00
	00		 mov	 edx, DWORD PTR ?__LINE__Var@?0??play_mobile_under_attack_speech@@YGXPAUENTITY@@0@Z@4JA
  0031d	83 c2 22	 add	 edx, 34			; 00000022H
  00320	52		 push	 edx
  00321	68 00 00 00 00	 push	 OFFSET ??_C@_0ED@JCPIACOE@c?3?2users?2nhv90?2projects?2eech?2ap@
  00326	a1 00 00 00 00	 mov	 eax, DWORD PTR ?overload_invalid_int_type_message@@3PBDB ; overload_invalid_int_type_message
  0032b	50		 push	 eax
  0032c	e8 00 00 00 00	 call	 ?process_assert@@YGXPBD0H@Z ; process_assert
  00331	c7 45 a8 00 00
	00 00		 mov	 DWORD PTR tv218[ebp], 0
$LN32@play_mobil:
  00338	6a 4b		 push	 75			; 0000004bH
  0033a	8b 4d 08	 mov	 ecx, DWORD PTR _en$[ebp]
  0033d	51		 push	 ecx
  0033e	69 55 ac 5c 04
	00 00		 imul	 edx, DWORD PTR tv210[ebp], 1116
  00345	8b 45 a8	 mov	 eax, DWORD PTR tv218[ebp]
  00348	8b 8c 82 00 00
	00 00		 mov	 ecx, DWORD PTR ?fn_get_local_entity_int_value@@3PAY0BBH@P6GHPAUENTITY@@W4INT_TYPES@@@ZA[edx+eax*4]
  0034f	ff d1		 call	 ecx
  00351	89 45 f8	 mov	 DWORD PTR _member_number$[ebp], eax

; 960  : 
; 961  : 			play_client_server_speech

  00354	83 7d f0 00	 cmp	 DWORD PTR _group$[ebp], 0
  00358	74 0a		 je	 SHORT $LN33@play_mobil
  0035a	8b 45 f0	 mov	 eax, DWORD PTR _group$[ebp]
  0035d	8b 08		 mov	 ecx, DWORD PTR [eax]
  0035f	89 4d ac	 mov	 DWORD PTR tv264[ebp], ecx
  00362	eb 21		 jmp	 SHORT $LN34@play_mobil
$LN33@play_mobil:
  00364	8b 15 00 00 00
	00		 mov	 edx, DWORD PTR ?__LINE__Var@?0??play_mobile_under_attack_speech@@YGXPAUENTITY@@0@Z@4JA
  0036a	83 c2 32	 add	 edx, 50			; 00000032H
  0036d	52		 push	 edx
  0036e	68 00 00 00 00	 push	 OFFSET ??_C@_0ED@JCPIACOE@c?3?2users?2nhv90?2projects?2eech?2ap@
  00373	a1 00 00 00 00	 mov	 eax, DWORD PTR ?null_entity_pointer_message@@3PBDB ; null_entity_pointer_message
  00378	50		 push	 eax
  00379	e8 00 00 00 00	 call	 ?process_assert@@YGXPBD0H@Z ; process_assert
  0037e	c7 45 ac 00 00
	00 00		 mov	 DWORD PTR tv264[ebp], 0
$LN34@play_mobil:
  00385	b9 01 00 00 00	 mov	 ecx, 1
  0038a	85 c9		 test	 ecx, ecx
  0038c	74 09		 je	 SHORT $LN35@play_mobil
  0038e	c7 45 a8 44 00
	00 00		 mov	 DWORD PTR tv272[ebp], 68 ; 00000044H
  00395	eb 21		 jmp	 SHORT $LN36@play_mobil
$LN35@play_mobil:
  00397	8b 15 00 00 00
	00		 mov	 edx, DWORD PTR ?__LINE__Var@?0??play_mobile_under_attack_speech@@YGXPAUENTITY@@0@Z@4JA
  0039d	83 c2 32	 add	 edx, 50			; 00000032H
  003a0	52		 push	 edx
  003a1	68 00 00 00 00	 push	 OFFSET ??_C@_0ED@JCPIACOE@c?3?2users?2nhv90?2projects?2eech?2ap@
  003a6	a1 00 00 00 00	 mov	 eax, DWORD PTR ?overload_invalid_int_type_message@@3PBDB ; overload_invalid_int_type_message
  003ab	50		 push	 eax
  003ac	e8 00 00 00 00	 call	 ?process_assert@@YGXPBD0H@Z ; process_assert
  003b1	c7 45 a8 00 00
	00 00		 mov	 DWORD PTR tv272[ebp], 0
$LN36@play_mobil:
  003b8	83 7d 08 00	 cmp	 DWORD PTR _en$[ebp], 0
  003bc	74 0a		 je	 SHORT $LN37@play_mobil
  003be	8b 4d 08	 mov	 ecx, DWORD PTR _en$[ebp]
  003c1	8b 11		 mov	 edx, DWORD PTR [ecx]
  003c3	89 55 a4	 mov	 DWORD PTR tv298[ebp], edx
  003c6	eb 21		 jmp	 SHORT $LN38@play_mobil
$LN37@play_mobil:
  003c8	a1 00 00 00 00	 mov	 eax, DWORD PTR ?__LINE__Var@?0??play_mobile_under_attack_speech@@YGXPAUENTITY@@0@Z@4JA
  003cd	83 c0 28	 add	 eax, 40			; 00000028H
  003d0	50		 push	 eax
  003d1	68 00 00 00 00	 push	 OFFSET ??_C@_0ED@JCPIACOE@c?3?2users?2nhv90?2projects?2eech?2ap@
  003d6	8b 0d 00 00 00
	00		 mov	 ecx, DWORD PTR ?null_entity_pointer_message@@3PBDB ; null_entity_pointer_message
  003dc	51		 push	 ecx
  003dd	e8 00 00 00 00	 call	 ?process_assert@@YGXPBD0H@Z ; process_assert
  003e2	c7 45 a4 00 00
	00 00		 mov	 DWORD PTR tv298[ebp], 0
$LN38@play_mobil:
  003e9	ba 01 00 00 00	 mov	 edx, 1
  003ee	85 d2		 test	 edx, edx
  003f0	74 09		 je	 SHORT $LN39@play_mobil
  003f2	c7 45 a0 bb 00
	00 00		 mov	 DWORD PTR tv306[ebp], 187 ; 000000bbH
  003f9	eb 21		 jmp	 SHORT $LN40@play_mobil
$LN39@play_mobil:
  003fb	a1 00 00 00 00	 mov	 eax, DWORD PTR ?__LINE__Var@?0??play_mobile_under_attack_speech@@YGXPAUENTITY@@0@Z@4JA
  00400	83 c0 28	 add	 eax, 40			; 00000028H
  00403	50		 push	 eax
  00404	68 00 00 00 00	 push	 OFFSET ??_C@_0ED@JCPIACOE@c?3?2users?2nhv90?2projects?2eech?2ap@
  00409	8b 0d 00 00 00
	00		 mov	 ecx, DWORD PTR ?overload_invalid_int_type_message@@3PBDB ; overload_invalid_int_type_message
  0040f	51		 push	 ecx
  00410	e8 00 00 00 00	 call	 ?process_assert@@YGXPBD0H@Z ; process_assert
  00415	c7 45 a0 00 00
	00 00		 mov	 DWORD PTR tv306[ebp], 0
$LN40@play_mobil:
  0041c	6a ff		 push	 -1
  0041e	6a 39		 push	 57			; 00000039H
  00420	6a 07		 push	 7
  00422	ba 04 00 00 00	 mov	 edx, 4
  00427	6b c2 05	 imul	 eax, edx, 5
  0042a	8b 88 00 00 00
	00		 mov	 ecx, DWORD PTR ?speech_sector_coordinates@@3PAHA[eax]
  00430	51		 push	 ecx
  00431	6a 00		 push	 0
  00433	ba 04 00 00 00	 mov	 edx, 4
  00438	c1 e2 02	 shl	 edx, 2
  0043b	8b 82 00 00 00
	00		 mov	 eax, DWORD PTR ?speech_sector_coordinates@@3PAHA[edx]
  00441	50		 push	 eax
  00442	6a 00		 push	 0
  00444	b9 04 00 00 00	 mov	 ecx, 4
  00449	6b d1 03	 imul	 edx, ecx, 3
  0044c	8b 82 00 00 00
	00		 mov	 eax, DWORD PTR ?speech_sector_coordinates@@3PAHA[edx]
  00452	50		 push	 eax
  00453	6a 00		 push	 0
  00455	b9 04 00 00 00	 mov	 ecx, 4
  0045a	d1 e1		 shl	 ecx, 1
  0045c	8b 91 00 00 00
	00		 mov	 edx, DWORD PTR ?speech_sector_coordinates@@3PAHA[ecx]
  00462	52		 push	 edx
  00463	6a 00		 push	 0
  00465	b8 04 00 00 00	 mov	 eax, 4
  0046a	c1 e0 00	 shl	 eax, 0
  0046d	8b 88 00 00 00
	00		 mov	 ecx, DWORD PTR ?speech_sector_coordinates@@3PAHA[eax]
  00473	51		 push	 ecx
  00474	6a 00		 push	 0
  00476	ba 04 00 00 00	 mov	 edx, 4
  0047b	6b c2 00	 imul	 eax, edx, 0
  0047e	8b 88 00 00 00
	00		 mov	 ecx, DWORD PTR ?speech_sector_coordinates@@3PAHA[eax]
  00484	51		 push	 ecx
  00485	6a 00		 push	 0
  00487	8b 55 f4	 mov	 edx, DWORD PTR _speech_index$[ebp]
  0048a	52		 push	 edx
  0048b	6a 07		 push	 7
  0048d	8b 45 f8	 mov	 eax, DWORD PTR _member_number$[ebp]
  00490	50		 push	 eax
  00491	6a 00		 push	 0
  00493	6a 01		 push	 1
  00495	6a 00		 push	 0
  00497	6a 44		 push	 68			; 00000044H
  00499	8b 4d f0	 mov	 ecx, DWORD PTR _group$[ebp]
  0049c	51		 push	 ecx
  0049d	69 55 ac 5c 04
	00 00		 imul	 edx, DWORD PTR tv264[ebp], 1116
  004a4	8b 45 a8	 mov	 eax, DWORD PTR tv272[ebp]
  004a7	8b 8c 82 00 00
	00 00		 mov	 ecx, DWORD PTR ?fn_get_local_entity_int_value@@3PAY0BBH@P6GHPAUENTITY@@W4INT_TYPES@@@ZA[edx+eax*4]
  004ae	ff d1		 call	 ecx
  004b0	50		 push	 eax
  004b1	6a 03		 push	 3
  004b3	6a 00		 push	 0
  004b5	6a 07		 push	 7
  004b7	51		 push	 ecx
  004b8	f3 0f 10 05 00
	00 00 00	 movss	 xmm0, DWORD PTR __real@41700000
  004c0	f3 0f 11 04 24	 movss	 DWORD PTR [esp], xmm0
  004c5	6a 11		 push	 17			; 00000011H
  004c7	8b 55 08	 mov	 edx, DWORD PTR _en$[ebp]
  004ca	52		 push	 edx
  004cb	e8 00 00 00 00	 call	 ?get_wingman_speech_originator@@YG?AW4speech_originator_types@@PAUENTITY@@@Z ; get_wingman_speech_originator
  004d0	50		 push	 eax
  004d1	51		 push	 ecx
  004d2	f3 0f 10 05 00
	00 00 00	 movss	 xmm0, DWORD PTR __real@40c00000
  004da	f3 0f 11 04 24	 movss	 DWORD PTR [esp], xmm0
  004df	51		 push	 ecx
  004e0	f3 0f 10 05 00
	00 00 00	 movss	 xmm0, DWORD PTR __real@3f333333
  004e8	f3 0f 11 04 24	 movss	 DWORD PTR [esp], xmm0
  004ed	51		 push	 ecx
  004ee	0f 57 c0	 xorps	 xmm0, xmm0
  004f1	f3 0f 11 04 24	 movss	 DWORD PTR [esp], xmm0
  004f6	6a 00		 push	 0
  004f8	6a 1e		 push	 30			; 0000001eH
  004fa	68 bb 00 00 00	 push	 187			; 000000bbH
  004ff	8b 45 08	 mov	 eax, DWORD PTR _en$[ebp]
  00502	50		 push	 eax
  00503	69 4d a4 5c 04
	00 00		 imul	 ecx, DWORD PTR tv298[ebp], 1116
  0050a	8b 55 a0	 mov	 edx, DWORD PTR tv306[ebp]
  0050d	8b 84 91 00 00
	00 00		 mov	 eax, DWORD PTR ?fn_get_local_entity_int_value@@3PAY0BBH@P6GHPAUENTITY@@W4INT_TYPES@@@ZA[ecx+edx*4]
  00514	ff d0		 call	 eax
  00516	50		 push	 eax
  00517	8b 4d 08	 mov	 ecx, DWORD PTR _en$[ebp]
  0051a	51		 push	 ecx
  0051b	8b 15 00 00 00
	00		 mov	 edx, DWORD PTR ?session_entity@@3PAUENTITY@@A ; session_entity
  00521	52		 push	 edx
  00522	e8 00 00 00 00	 call	 ?play_client_server_speech@@YAHPAUENTITY@@0W4ENTITY_SIDES@@HW4SOUND_LOCALITY_TYPES@@MMMW4speech_originator_types@@W4speech_category_types@@MZZ ; play_client_server_speech
  00527	81 c4 90 00 00
	00		 add	 esp, 144		; 00000090H
$LN4@play_mobil:

; 962  : 			(
; 963  : 				get_session_entity (),
; 964  : 				en,
; 965  : 				(entity_sides) get_local_entity_int_value (en, INT_TYPE_SIDE),
; 966  : 				ENTITY_SUB_TYPE_EFFECT_SOUND_RADIO_MESSAGE,
; 967  : 				SOUND_LOCALITY_RADIO,
; 968  : 				0.0,
; 969  : 				0.7,
; 970  : 				6.0,
; 971  : 				get_wingman_speech_originator (en),
; 972  : 				SPEECH_CATEGORY_UNDER_ATTACK,
; 973  : 				15.0,
; 974  : 				SPEECH_ARRAY_WINGMAN_MESSAGES, SPEECH_WINGMAN_INTRODUCTION,
; 975  : 				SPEECH_ARRAY_CALLSIGNS, get_local_entity_int_value (group, INT_TYPE_GROUP_CALLSIGN),
; 976  : 				SPEECH_ARRAY_NUMBERS, 1,
; 977  : 				SPEECH_ARRAY_NUMBERS, member_number,
; 978  : 				SPEECH_ARRAY_WINGMAN_MESSAGES, speech_index,
; 979  : 				SPEECH_ARRAY_NUMBERS, speech_sector_coordinates [0],
; 980  : 				SPEECH_ARRAY_NUMBERS, speech_sector_coordinates [1],
; 981  : 				SPEECH_ARRAY_NUMBERS, speech_sector_coordinates [2],
; 982  : 				SPEECH_ARRAY_NUMBERS, speech_sector_coordinates [3],
; 983  : 				SPEECH_ARRAY_NUMBERS, speech_sector_coordinates [4],
; 984  : 				SPEECH_ARRAY_NUMBERS, speech_sector_coordinates [5],
; 985  : 				SPEECH_ARRAY_WINGMAN_MESSAGES, SPEECH_WINGMAN_REQUEST_ASSISTANCE,
; 986  : 				-1
; 987  : 			);
; 988  : 		}
; 989  : 	}
; 990  : }

  0052d	5f		 pop	 edi
  0052e	5e		 pop	 esi
  0052f	5b		 pop	 ebx
  00530	8b e5		 mov	 esp, ebp
  00532	5d		 pop	 ebp
  00533	c2 08 00	 ret	 8
?play_mobile_under_attack_speech@@YGXPAUENTITY@@0@Z ENDP ; play_mobile_under_attack_speech
_TEXT	ENDS
; Function compile flags: /Odtp /ZI
; File c:\users\nhv90\projects\eech\aphavoc\source\entity\mobile\mobile.c
;	COMDAT ?mobile_check_all_members_taken_off@@YGHPAUENTITY@@@Z
_TEXT	SEGMENT
tv331 = -128						; size = 4
tv323 = -124						; size = 4
tv205 = -124						; size = 4
tv643 = -120						; size = 4
tv598 = -120						; size = 4
tv578 = -120						; size = 4
tv556 = -120						; size = 4
tv517 = -120						; size = 4
tv491 = -120						; size = 4
tv470 = -120						; size = 4
tv442 = -120						; size = 4
tv415 = -120						; size = 4
tv394 = -120						; size = 4
tv371 = -120						; size = 4
tv348 = -120						; size = 4
tv306 = -120						; size = 4
tv285 = -120						; size = 4
tv259 = -120						; size = 4
tv237 = -120						; size = 4
tv218 = -120						; size = 4
tv199 = -120						; size = 4
tv180 = -120						; size = 4
tv159 = -120						; size = 4
tv137 = -120						; size = 4
tv85 = -120						; size = 4
tv635 = -116						; size = 4
tv615 = -116						; size = 4
tv590 = -116						; size = 4
tv570 = -116						; size = 4
tv548 = -116						; size = 4
tv534 = -116						; size = 4
tv509 = -116						; size = 4
tv483 = -116						; size = 4
tv462 = -116						; size = 4
tv434 = -116						; size = 4
tv407 = -116						; size = 4
tv387 = -116						; size = 4
tv363 = -116						; size = 4
tv340 = -116						; size = 4
tv298 = -116						; size = 4
tv278 = -116						; size = 4
tv251 = -116						; size = 4
tv230 = -116						; size = 4
tv211 = -116						; size = 4
tv192 = -116						; size = 4
tv172 = -116						; size = 4
tv151 = -116						; size = 4
tv129 = -116						; size = 4
tv77 = -116						; size = 4
_takeoff_flag$ = -48					; size = 4
_member_number$ = -44					; size = 4
_side$ = -40						; size = 4
_landing_en$ = -36					; size = 4
_current_guide$ = -32					; size = 4
_task$ = -28						; size = 4
_new_guide$ = -24					; size = 4
_mb_task$ = -20						; size = 4
_mb_guide$ = -16					; size = 4
_member$ = -12						; size = 4
_force$ = -8						; size = 4
_group$ = -4						; size = 4
_en$ = 8						; size = 4
?mobile_check_all_members_taken_off@@YGHPAUENTITY@@@Z PROC ; mobile_check_all_members_taken_off, COMDAT

; 702  : {

  00000	55		 push	 ebp
  00001	8b ec		 mov	 ebp, esp
  00003	81 ec 80 00 00
	00		 sub	 esp, 128		; 00000080H
  00009	53		 push	 ebx
  0000a	56		 push	 esi
  0000b	57		 push	 edi

; 703  : 	entity
; 704  : 		*group,
; 705  : 		*force,
; 706  : 		*member,
; 707  : 		*mb_guide,
; 708  : 		*mb_task,
; 709  : 		*new_guide,
; 710  : 		*task,
; 711  : 		*current_guide,
; 712  : 		*landing_en;
; 713  : 
; 714  : 	entity_sides
; 715  : 		side;
; 716  : 
; 717  : 	unsigned int
; 718  : 		member_number,
; 719  : 		takeoff_flag;
; 720  : 
; 721  : 	//
; 722  : 	// Called when "Taken Off" and "Loop" waypoints are reached
; 723  : 	//
; 724  : 	// Check to see if all other members have taken off - if so insert the whole group onto the primary task
; 725  : 	// Otherwise insert the member onto the holding pattern
; 726  : 	//
; 727  : 
; 728  : 	ASSERT (get_comms_model () == COMMS_MODEL_SERVER);

  0000c	83 3d 00 00 00
	00 00		 cmp	 DWORD PTR ?system_comms_model@@3W4COMMS_MODEL_TYPES@@A, 0 ; system_comms_model
  00013	74 18		 je	 SHORT $LN8@mobile_che
  00015	a1 00 00 00 00	 mov	 eax, DWORD PTR ?__LINE__Var@?0??mobile_check_all_members_taken_off@@YGHPAUENTITY@@@Z@4JA
  0001a	83 c0 1a	 add	 eax, 26			; 0000001aH
  0001d	50		 push	 eax
  0001e	68 00 00 00 00	 push	 OFFSET ??_C@_0ED@JCPIACOE@c?3?2users?2nhv90?2projects?2eech?2ap@
  00023	68 00 00 00 00	 push	 OFFSET ??_C@_0CJ@DMBLBJBK@get_comms_model?5?$CI?$CJ?5?$DN?$DN?5COMMS_MOD@
  00028	e8 00 00 00 00	 call	 ?process_assert@@YGXPBD0H@Z ; process_assert
$LN8@mobile_che:

; 729  : 
; 730  : 	landing_en = get_local_group_member_landing_entity_from_task (en);

  0002d	8b 45 08	 mov	 eax, DWORD PTR _en$[ebp]
  00030	50		 push	 eax
  00031	e8 00 00 00 00	 call	 ?get_local_group_member_landing_entity_from_task@@YGPAUENTITY@@PAU1@@Z ; get_local_group_member_landing_entity_from_task
  00036	89 45 dc	 mov	 DWORD PTR _landing_en$[ebp], eax

; 731  : 
; 732  : 	group = get_local_entity_parent (en, LIST_TYPE_MEMBER);

  00039	83 7d 08 00	 cmp	 DWORD PTR _en$[ebp], 0
  0003d	74 0a		 je	 SHORT $LN31@mobile_che
  0003f	8b 45 08	 mov	 eax, DWORD PTR _en$[ebp]
  00042	8b 08		 mov	 ecx, DWORD PTR [eax]
  00044	89 4d 8c	 mov	 DWORD PTR tv77[ebp], ecx
  00047	eb 21		 jmp	 SHORT $LN32@mobile_che
$LN31@mobile_che:
  00049	8b 15 00 00 00
	00		 mov	 edx, DWORD PTR ?__LINE__Var@?0??mobile_check_all_members_taken_off@@YGHPAUENTITY@@@Z@4JA
  0004f	83 c2 1e	 add	 edx, 30			; 0000001eH
  00052	52		 push	 edx
  00053	68 00 00 00 00	 push	 OFFSET ??_C@_0ED@JCPIACOE@c?3?2users?2nhv90?2projects?2eech?2ap@
  00058	a1 00 00 00 00	 mov	 eax, DWORD PTR ?null_entity_pointer_message@@3PBDB ; null_entity_pointer_message
  0005d	50		 push	 eax
  0005e	e8 00 00 00 00	 call	 ?process_assert@@YGXPBD0H@Z ; process_assert
  00063	c7 45 8c 00 00
	00 00		 mov	 DWORD PTR tv77[ebp], 0
$LN32@mobile_che:
  0006a	b9 01 00 00 00	 mov	 ecx, 1
  0006f	85 c9		 test	 ecx, ecx
  00071	74 09		 je	 SHORT $LN33@mobile_che
  00073	c7 45 88 19 00
	00 00		 mov	 DWORD PTR tv85[ebp], 25	; 00000019H
  0007a	eb 21		 jmp	 SHORT $LN34@mobile_che
$LN33@mobile_che:
  0007c	8b 15 00 00 00
	00		 mov	 edx, DWORD PTR ?__LINE__Var@?0??mobile_check_all_members_taken_off@@YGHPAUENTITY@@@Z@4JA
  00082	83 c2 1e	 add	 edx, 30			; 0000001eH
  00085	52		 push	 edx
  00086	68 00 00 00 00	 push	 OFFSET ??_C@_0ED@JCPIACOE@c?3?2users?2nhv90?2projects?2eech?2ap@
  0008b	a1 00 00 00 00	 mov	 eax, DWORD PTR ?overload_invalid_list_type_message@@3PBDB ; overload_invalid_list_type_message
  00090	50		 push	 eax
  00091	e8 00 00 00 00	 call	 ?process_assert@@YGXPBD0H@Z ; process_assert
  00096	c7 45 88 00 00
	00 00		 mov	 DWORD PTR tv85[ebp], 0
$LN34@mobile_che:
  0009d	6a 19		 push	 25			; 00000019H
  0009f	8b 4d 08	 mov	 ecx, DWORD PTR _en$[ebp]
  000a2	51		 push	 ecx
  000a3	69 55 8c b4 00
	00 00		 imul	 edx, DWORD PTR tv77[ebp], 180
  000aa	8b 45 88	 mov	 eax, DWORD PTR tv85[ebp]
  000ad	8b 8c 82 00 00
	00 00		 mov	 ecx, DWORD PTR ?fn_get_local_entity_parent@@3PAY0CN@P6GPAUENTITY@@PAU1@W4LIST_TYPES@@@ZA[edx+eax*4]
  000b4	ff d1		 call	 ecx
  000b6	89 45 fc	 mov	 DWORD PTR _group$[ebp], eax

; 733  : 
; 734  : 	takeoff_flag = TRUE;

  000b9	c7 45 d0 01 00
	00 00		 mov	 DWORD PTR _takeoff_flag$[ebp], 1

; 735  : 
; 736  : 	member = get_local_entity_first_child (group, LIST_TYPE_MEMBER);

  000c0	83 7d fc 00	 cmp	 DWORD PTR _group$[ebp], 0
  000c4	74 0a		 je	 SHORT $LN35@mobile_che
  000c6	8b 45 fc	 mov	 eax, DWORD PTR _group$[ebp]
  000c9	8b 08		 mov	 ecx, DWORD PTR [eax]
  000cb	89 4d 8c	 mov	 DWORD PTR tv129[ebp], ecx
  000ce	eb 21		 jmp	 SHORT $LN36@mobile_che
$LN35@mobile_che:
  000d0	8b 15 00 00 00
	00		 mov	 edx, DWORD PTR ?__LINE__Var@?0??mobile_check_all_members_taken_off@@YGHPAUENTITY@@@Z@4JA
  000d6	83 c2 22	 add	 edx, 34			; 00000022H
  000d9	52		 push	 edx
  000da	68 00 00 00 00	 push	 OFFSET ??_C@_0ED@JCPIACOE@c?3?2users?2nhv90?2projects?2eech?2ap@
  000df	a1 00 00 00 00	 mov	 eax, DWORD PTR ?null_entity_pointer_message@@3PBDB ; null_entity_pointer_message
  000e4	50		 push	 eax
  000e5	e8 00 00 00 00	 call	 ?process_assert@@YGXPBD0H@Z ; process_assert
  000ea	c7 45 8c 00 00
	00 00		 mov	 DWORD PTR tv129[ebp], 0
$LN36@mobile_che:
  000f1	b9 01 00 00 00	 mov	 ecx, 1
  000f6	85 c9		 test	 ecx, ecx
  000f8	74 09		 je	 SHORT $LN37@mobile_che
  000fa	c7 45 88 19 00
	00 00		 mov	 DWORD PTR tv137[ebp], 25 ; 00000019H
  00101	eb 21		 jmp	 SHORT $LN38@mobile_che
$LN37@mobile_che:
  00103	8b 15 00 00 00
	00		 mov	 edx, DWORD PTR ?__LINE__Var@?0??mobile_check_all_members_taken_off@@YGHPAUENTITY@@@Z@4JA
  00109	83 c2 22	 add	 edx, 34			; 00000022H
  0010c	52		 push	 edx
  0010d	68 00 00 00 00	 push	 OFFSET ??_C@_0ED@JCPIACOE@c?3?2users?2nhv90?2projects?2eech?2ap@
  00112	a1 00 00 00 00	 mov	 eax, DWORD PTR ?overload_invalid_list_type_message@@3PBDB ; overload_invalid_list_type_message
  00117	50		 push	 eax
  00118	e8 00 00 00 00	 call	 ?process_assert@@YGXPBD0H@Z ; process_assert
  0011d	c7 45 88 00 00
	00 00		 mov	 DWORD PTR tv137[ebp], 0
$LN38@mobile_che:
  00124	6a 19		 push	 25			; 00000019H
  00126	8b 4d fc	 mov	 ecx, DWORD PTR _group$[ebp]
  00129	51		 push	 ecx
  0012a	69 55 8c b4 00
	00 00		 imul	 edx, DWORD PTR tv129[ebp], 180
  00131	8b 45 88	 mov	 eax, DWORD PTR tv137[ebp]
  00134	8b 8c 82 00 00
	00 00		 mov	 ecx, DWORD PTR ?fn_get_local_entity_first_child@@3PAY0CN@P6GPAUENTITY@@PAU1@W4LIST_TYPES@@@ZA[edx+eax*4]
  0013b	ff d1		 call	 ecx
  0013d	89 45 f4	 mov	 DWORD PTR _member$[ebp], eax
$LN2@mobile_che:

; 737  : 
; 738  : 	while (member)

  00140	83 7d f4 00	 cmp	 DWORD PTR _member$[ebp], 0
  00144	0f 84 36 03 00
	00		 je	 $LN3@mobile_che

; 739  : 	{
; 740  : 		if (member != en)

  0014a	8b 45 f4	 mov	 eax, DWORD PTR _member$[ebp]
  0014d	3b 45 08	 cmp	 eax, DWORD PTR _en$[ebp]
  00150	0f 84 a5 02 00
	00		 je	 $LN9@mobile_che

; 741  : 		{
; 742  : 			mb_guide = get_local_entity_parent (member, LIST_TYPE_FOLLOWER);

  00156	83 7d f4 00	 cmp	 DWORD PTR _member$[ebp], 0
  0015a	74 0a		 je	 SHORT $LN39@mobile_che
  0015c	8b 45 f4	 mov	 eax, DWORD PTR _member$[ebp]
  0015f	8b 08		 mov	 ecx, DWORD PTR [eax]
  00161	89 4d 8c	 mov	 DWORD PTR tv151[ebp], ecx
  00164	eb 21		 jmp	 SHORT $LN40@mobile_che
$LN39@mobile_che:
  00166	8b 15 00 00 00
	00		 mov	 edx, DWORD PTR ?__LINE__Var@?0??mobile_check_all_members_taken_off@@YGHPAUENTITY@@@Z@4JA
  0016c	83 c2 28	 add	 edx, 40			; 00000028H
  0016f	52		 push	 edx
  00170	68 00 00 00 00	 push	 OFFSET ??_C@_0ED@JCPIACOE@c?3?2users?2nhv90?2projects?2eech?2ap@
  00175	a1 00 00 00 00	 mov	 eax, DWORD PTR ?null_entity_pointer_message@@3PBDB ; null_entity_pointer_message
  0017a	50		 push	 eax
  0017b	e8 00 00 00 00	 call	 ?process_assert@@YGXPBD0H@Z ; process_assert
  00180	c7 45 8c 00 00
	00 00		 mov	 DWORD PTR tv151[ebp], 0
$LN40@mobile_che:
  00187	b9 01 00 00 00	 mov	 ecx, 1
  0018c	85 c9		 test	 ecx, ecx
  0018e	74 09		 je	 SHORT $LN41@mobile_che
  00190	c7 45 88 0d 00
	00 00		 mov	 DWORD PTR tv159[ebp], 13 ; 0000000dH
  00197	eb 21		 jmp	 SHORT $LN42@mobile_che
$LN41@mobile_che:
  00199	8b 15 00 00 00
	00		 mov	 edx, DWORD PTR ?__LINE__Var@?0??mobile_check_all_members_taken_off@@YGHPAUENTITY@@@Z@4JA
  0019f	83 c2 28	 add	 edx, 40			; 00000028H
  001a2	52		 push	 edx
  001a3	68 00 00 00 00	 push	 OFFSET ??_C@_0ED@JCPIACOE@c?3?2users?2nhv90?2projects?2eech?2ap@
  001a8	a1 00 00 00 00	 mov	 eax, DWORD PTR ?overload_invalid_list_type_message@@3PBDB ; overload_invalid_list_type_message
  001ad	50		 push	 eax
  001ae	e8 00 00 00 00	 call	 ?process_assert@@YGXPBD0H@Z ; process_assert
  001b3	c7 45 88 00 00
	00 00		 mov	 DWORD PTR tv159[ebp], 0
$LN42@mobile_che:
  001ba	6a 0d		 push	 13			; 0000000dH
  001bc	8b 4d f4	 mov	 ecx, DWORD PTR _member$[ebp]
  001bf	51		 push	 ecx
  001c0	69 55 8c b4 00
	00 00		 imul	 edx, DWORD PTR tv151[ebp], 180
  001c7	8b 45 88	 mov	 eax, DWORD PTR tv159[ebp]
  001ca	8b 8c 82 00 00
	00 00		 mov	 ecx, DWORD PTR ?fn_get_local_entity_parent@@3PAY0CN@P6GPAUENTITY@@PAU1@W4LIST_TYPES@@@ZA[edx+eax*4]
  001d1	ff d1		 call	 ecx
  001d3	89 45 f0	 mov	 DWORD PTR _mb_guide$[ebp], eax

; 743  : 	
; 744  : 			if (mb_guide)

  001d6	83 7d f0 00	 cmp	 DWORD PTR _mb_guide$[ebp], 0
  001da	0f 84 1b 02 00
	00		 je	 $LN9@mobile_che

; 745  : 			{
; 746  : 				mb_task = get_local_entity_parent (mb_guide, LIST_TYPE_GUIDE);

  001e0	83 7d f0 00	 cmp	 DWORD PTR _mb_guide$[ebp], 0
  001e4	74 0a		 je	 SHORT $LN43@mobile_che
  001e6	8b 45 f0	 mov	 eax, DWORD PTR _mb_guide$[ebp]
  001e9	8b 08		 mov	 ecx, DWORD PTR [eax]
  001eb	89 4d 8c	 mov	 DWORD PTR tv172[ebp], ecx
  001ee	eb 21		 jmp	 SHORT $LN44@mobile_che
$LN43@mobile_che:
  001f0	8b 15 00 00 00
	00		 mov	 edx, DWORD PTR ?__LINE__Var@?0??mobile_check_all_members_taken_off@@YGHPAUENTITY@@@Z@4JA
  001f6	83 c2 2c	 add	 edx, 44			; 0000002cH
  001f9	52		 push	 edx
  001fa	68 00 00 00 00	 push	 OFFSET ??_C@_0ED@JCPIACOE@c?3?2users?2nhv90?2projects?2eech?2ap@
  001ff	a1 00 00 00 00	 mov	 eax, DWORD PTR ?null_entity_pointer_message@@3PBDB ; null_entity_pointer_message
  00204	50		 push	 eax
  00205	e8 00 00 00 00	 call	 ?process_assert@@YGXPBD0H@Z ; process_assert
  0020a	c7 45 8c 00 00
	00 00		 mov	 DWORD PTR tv172[ebp], 0
$LN44@mobile_che:
  00211	b9 01 00 00 00	 mov	 ecx, 1
  00216	85 c9		 test	 ecx, ecx
  00218	74 09		 je	 SHORT $LN45@mobile_che
  0021a	c7 45 88 10 00
	00 00		 mov	 DWORD PTR tv180[ebp], 16 ; 00000010H
  00221	eb 21		 jmp	 SHORT $LN46@mobile_che
$LN45@mobile_che:
  00223	8b 15 00 00 00
	00		 mov	 edx, DWORD PTR ?__LINE__Var@?0??mobile_check_all_members_taken_off@@YGHPAUENTITY@@@Z@4JA
  00229	83 c2 2c	 add	 edx, 44			; 0000002cH
  0022c	52		 push	 edx
  0022d	68 00 00 00 00	 push	 OFFSET ??_C@_0ED@JCPIACOE@c?3?2users?2nhv90?2projects?2eech?2ap@
  00232	a1 00 00 00 00	 mov	 eax, DWORD PTR ?overload_invalid_list_type_message@@3PBDB ; overload_invalid_list_type_message
  00237	50		 push	 eax
  00238	e8 00 00 00 00	 call	 ?process_assert@@YGXPBD0H@Z ; process_assert
  0023d	c7 45 88 00 00
	00 00		 mov	 DWORD PTR tv180[ebp], 0
$LN46@mobile_che:
  00244	6a 10		 push	 16			; 00000010H
  00246	8b 4d f0	 mov	 ecx, DWORD PTR _mb_guide$[ebp]
  00249	51		 push	 ecx
  0024a	69 55 8c b4 00
	00 00		 imul	 edx, DWORD PTR tv172[ebp], 180
  00251	8b 45 88	 mov	 eax, DWORD PTR tv180[ebp]
  00254	8b 8c 82 00 00
	00 00		 mov	 ecx, DWORD PTR ?fn_get_local_entity_parent@@3PAY0CN@P6GPAUENTITY@@PAU1@W4LIST_TYPES@@@ZA[edx+eax*4]
  0025b	ff d1		 call	 ecx
  0025d	89 45 ec	 mov	 DWORD PTR _mb_task$[ebp], eax

; 747  : 	
; 748  : 				if (mb_task)

  00260	83 7d ec 00	 cmp	 DWORD PTR _mb_task$[ebp], 0
  00264	0f 84 91 01 00
	00		 je	 $LN9@mobile_che

; 749  : 				{
; 750  : 					switch (get_local_entity_int_value (mb_task, INT_TYPE_ENTITY_SUB_TYPE))

  0026a	83 7d ec 00	 cmp	 DWORD PTR _mb_task$[ebp], 0
  0026e	74 0a		 je	 SHORT $LN47@mobile_che
  00270	8b 45 ec	 mov	 eax, DWORD PTR _mb_task$[ebp]
  00273	8b 08		 mov	 ecx, DWORD PTR [eax]
  00275	89 4d 8c	 mov	 DWORD PTR tv192[ebp], ecx
  00278	eb 1d		 jmp	 SHORT $LN48@mobile_che
$LN47@mobile_che:
  0027a	68 ee 02 00 00	 push	 750			; 000002eeH
  0027f	68 00 00 00 00	 push	 OFFSET ??_C@_0ED@JCPIACOE@c?3?2users?2nhv90?2projects?2eech?2ap@
  00284	8b 15 00 00 00
	00		 mov	 edx, DWORD PTR ?null_entity_pointer_message@@3PBDB ; null_entity_pointer_message
  0028a	52		 push	 edx
  0028b	e8 00 00 00 00	 call	 ?process_assert@@YGXPBD0H@Z ; process_assert
  00290	c7 45 8c 00 00
	00 00		 mov	 DWORD PTR tv192[ebp], 0
$LN48@mobile_che:
  00297	b8 01 00 00 00	 mov	 eax, 1
  0029c	85 c0		 test	 eax, eax
  0029e	74 09		 je	 SHORT $LN49@mobile_che
  002a0	c7 45 88 34 00
	00 00		 mov	 DWORD PTR tv199[ebp], 52 ; 00000034H
  002a7	eb 1d		 jmp	 SHORT $LN50@mobile_che
$LN49@mobile_che:
  002a9	68 ee 02 00 00	 push	 750			; 000002eeH
  002ae	68 00 00 00 00	 push	 OFFSET ??_C@_0ED@JCPIACOE@c?3?2users?2nhv90?2projects?2eech?2ap@
  002b3	8b 0d 00 00 00
	00		 mov	 ecx, DWORD PTR ?overload_invalid_int_type_message@@3PBDB ; overload_invalid_int_type_message
  002b9	51		 push	 ecx
  002ba	e8 00 00 00 00	 call	 ?process_assert@@YGXPBD0H@Z ; process_assert
  002bf	c7 45 88 00 00
	00 00		 mov	 DWORD PTR tv199[ebp], 0
$LN50@mobile_che:
  002c6	6a 34		 push	 52			; 00000034H
  002c8	8b 55 ec	 mov	 edx, DWORD PTR _mb_task$[ebp]
  002cb	52		 push	 edx
  002cc	69 45 8c 5c 04
	00 00		 imul	 eax, DWORD PTR tv192[ebp], 1116
  002d3	8b 4d 88	 mov	 ecx, DWORD PTR tv199[ebp]
  002d6	8b 94 88 00 00
	00 00		 mov	 edx, DWORD PTR ?fn_get_local_entity_int_value@@3PAY0BBH@P6GHPAUENTITY@@W4INT_TYPES@@@ZA[eax+ecx*4]
  002dd	ff d2		 call	 edx
  002df	89 45 84	 mov	 DWORD PTR tv205[ebp], eax
  002e2	83 7d 84 17	 cmp	 DWORD PTR tv205[ebp], 23 ; 00000017H
  002e6	74 02		 je	 SHORT $LN12@mobile_che
  002e8	eb 05		 jmp	 SHORT $LN13@mobile_che
$LN12@mobile_che:

; 751  : 					{
; 752  : 						case ENTITY_SUB_TYPE_TASK_TAKEOFF_HOLDING:
; 753  : 						{
; 754  : 							break;

  002ea	e9 0c 01 00 00	 jmp	 $LN9@mobile_che
$LN13@mobile_che:

; 755  : 						}
; 756  : 
; 757  : 						default:
; 758  : 						{
; 759  : 							if (get_local_entity_int_value (member, INT_TYPE_PLAYER) == ENTITY_PLAYER_AI)

  002ef	83 7d f4 00	 cmp	 DWORD PTR _member$[ebp], 0
  002f3	74 0a		 je	 SHORT $LN51@mobile_che
  002f5	8b 45 f4	 mov	 eax, DWORD PTR _member$[ebp]
  002f8	8b 08		 mov	 ecx, DWORD PTR [eax]
  002fa	89 4d 8c	 mov	 DWORD PTR tv211[ebp], ecx
  002fd	eb 1d		 jmp	 SHORT $LN52@mobile_che
$LN51@mobile_che:
  002ff	68 f7 02 00 00	 push	 759			; 000002f7H
  00304	68 00 00 00 00	 push	 OFFSET ??_C@_0ED@JCPIACOE@c?3?2users?2nhv90?2projects?2eech?2ap@
  00309	8b 15 00 00 00
	00		 mov	 edx, DWORD PTR ?null_entity_pointer_message@@3PBDB ; null_entity_pointer_message
  0030f	52		 push	 edx
  00310	e8 00 00 00 00	 call	 ?process_assert@@YGXPBD0H@Z ; process_assert
  00315	c7 45 8c 00 00
	00 00		 mov	 DWORD PTR tv211[ebp], 0
$LN52@mobile_che:
  0031c	b8 01 00 00 00	 mov	 eax, 1
  00321	85 c0		 test	 eax, eax
  00323	74 09		 je	 SHORT $LN53@mobile_che
  00325	c7 45 88 9c 00
	00 00		 mov	 DWORD PTR tv218[ebp], 156 ; 0000009cH
  0032c	eb 1d		 jmp	 SHORT $LN54@mobile_che
$LN53@mobile_che:
  0032e	68 f7 02 00 00	 push	 759			; 000002f7H
  00333	68 00 00 00 00	 push	 OFFSET ??_C@_0ED@JCPIACOE@c?3?2users?2nhv90?2projects?2eech?2ap@
  00338	8b 0d 00 00 00
	00		 mov	 ecx, DWORD PTR ?overload_invalid_int_type_message@@3PBDB ; overload_invalid_int_type_message
  0033e	51		 push	 ecx
  0033f	e8 00 00 00 00	 call	 ?process_assert@@YGXPBD0H@Z ; process_assert
  00344	c7 45 88 00 00
	00 00		 mov	 DWORD PTR tv218[ebp], 0
$LN54@mobile_che:
  0034b	68 9c 00 00 00	 push	 156			; 0000009cH
  00350	8b 55 f4	 mov	 edx, DWORD PTR _member$[ebp]
  00353	52		 push	 edx
  00354	69 45 8c 5c 04
	00 00		 imul	 eax, DWORD PTR tv211[ebp], 1116
  0035b	8b 4d 88	 mov	 ecx, DWORD PTR tv218[ebp]
  0035e	8b 94 88 00 00
	00 00		 mov	 edx, DWORD PTR ?fn_get_local_entity_int_value@@3PAY0BBH@P6GHPAUENTITY@@W4INT_TYPES@@@ZA[eax+ecx*4]
  00365	ff d2		 call	 edx
  00367	85 c0		 test	 eax, eax
  00369	75 0c		 jne	 SHORT $LN14@mobile_che

; 760  : 							{
; 761  : 								takeoff_flag = FALSE;

  0036b	c7 45 d0 00 00
	00 00		 mov	 DWORD PTR _takeoff_flag$[ebp], 0
  00372	e9 84 00 00 00	 jmp	 $LN9@mobile_che
$LN14@mobile_che:

; 762  : 							}
; 763  : 							else if (get_local_entity_int_value (member, INT_TYPE_OPERATIONAL_STATE) == OPERATIONAL_STATE_LANDED)

  00377	83 7d f4 00	 cmp	 DWORD PTR _member$[ebp], 0
  0037b	74 0a		 je	 SHORT $LN55@mobile_che
  0037d	8b 45 f4	 mov	 eax, DWORD PTR _member$[ebp]
  00380	8b 08		 mov	 ecx, DWORD PTR [eax]
  00382	89 4d 8c	 mov	 DWORD PTR tv230[ebp], ecx
  00385	eb 1d		 jmp	 SHORT $LN56@mobile_che
$LN55@mobile_che:
  00387	68 fb 02 00 00	 push	 763			; 000002fbH
  0038c	68 00 00 00 00	 push	 OFFSET ??_C@_0ED@JCPIACOE@c?3?2users?2nhv90?2projects?2eech?2ap@
  00391	8b 15 00 00 00
	00		 mov	 edx, DWORD PTR ?null_entity_pointer_message@@3PBDB ; null_entity_pointer_message
  00397	52		 push	 edx
  00398	e8 00 00 00 00	 call	 ?process_assert@@YGXPBD0H@Z ; process_assert
  0039d	c7 45 8c 00 00
	00 00		 mov	 DWORD PTR tv230[ebp], 0
$LN56@mobile_che:
  003a4	b8 01 00 00 00	 mov	 eax, 1
  003a9	85 c0		 test	 eax, eax
  003ab	74 09		 je	 SHORT $LN57@mobile_che
  003ad	c7 45 88 97 00
	00 00		 mov	 DWORD PTR tv237[ebp], 151 ; 00000097H
  003b4	eb 1d		 jmp	 SHORT $LN58@mobile_che
$LN57@mobile_che:
  003b6	68 fb 02 00 00	 push	 763			; 000002fbH
  003bb	68 00 00 00 00	 push	 OFFSET ??_C@_0ED@JCPIACOE@c?3?2users?2nhv90?2projects?2eech?2ap@
  003c0	8b 0d 00 00 00
	00		 mov	 ecx, DWORD PTR ?overload_invalid_int_type_message@@3PBDB ; overload_invalid_int_type_message
  003c6	51		 push	 ecx
  003c7	e8 00 00 00 00	 call	 ?process_assert@@YGXPBD0H@Z ; process_assert
  003cc	c7 45 88 00 00
	00 00		 mov	 DWORD PTR tv237[ebp], 0
$LN58@mobile_che:
  003d3	68 97 00 00 00	 push	 151			; 00000097H
  003d8	8b 55 f4	 mov	 edx, DWORD PTR _member$[ebp]
  003db	52		 push	 edx
  003dc	69 45 8c 5c 04
	00 00		 imul	 eax, DWORD PTR tv230[ebp], 1116
  003e3	8b 4d 88	 mov	 ecx, DWORD PTR tv237[ebp]
  003e6	8b 94 88 00 00
	00 00		 mov	 edx, DWORD PTR ?fn_get_local_entity_int_value@@3PAY0BBH@P6GHPAUENTITY@@W4INT_TYPES@@@ZA[eax+ecx*4]
  003ed	ff d2		 call	 edx
  003ef	83 f8 04	 cmp	 eax, 4
  003f2	75 07		 jne	 SHORT $LN9@mobile_che

; 764  : 							{
; 765  : 								takeoff_flag = FALSE;

  003f4	c7 45 d0 00 00
	00 00		 mov	 DWORD PTR _takeoff_flag$[ebp], 0
$LN9@mobile_che:

; 766  : 							}
; 767  : 			
; 768  : 							break;
; 769  : 						}
; 770  : 					}
; 771  : 				}
; 772  : 			}
; 773  : 		}
; 774  : 
; 775  : 		member = get_local_entity_child_succ (member, LIST_TYPE_MEMBER);

  003fb	83 7d f4 00	 cmp	 DWORD PTR _member$[ebp], 0
  003ff	74 0a		 je	 SHORT $LN59@mobile_che
  00401	8b 45 f4	 mov	 eax, DWORD PTR _member$[ebp]
  00404	8b 08		 mov	 ecx, DWORD PTR [eax]
  00406	89 4d 8c	 mov	 DWORD PTR tv251[ebp], ecx
  00409	eb 21		 jmp	 SHORT $LN60@mobile_che
$LN59@mobile_che:
  0040b	8b 15 00 00 00
	00		 mov	 edx, DWORD PTR ?__LINE__Var@?0??mobile_check_all_members_taken_off@@YGHPAUENTITY@@@Z@4JA
  00411	83 c2 49	 add	 edx, 73			; 00000049H
  00414	52		 push	 edx
  00415	68 00 00 00 00	 push	 OFFSET ??_C@_0ED@JCPIACOE@c?3?2users?2nhv90?2projects?2eech?2ap@
  0041a	a1 00 00 00 00	 mov	 eax, DWORD PTR ?null_entity_pointer_message@@3PBDB ; null_entity_pointer_message
  0041f	50		 push	 eax
  00420	e8 00 00 00 00	 call	 ?process_assert@@YGXPBD0H@Z ; process_assert
  00425	c7 45 8c 00 00
	00 00		 mov	 DWORD PTR tv251[ebp], 0
$LN60@mobile_che:
  0042c	b9 01 00 00 00	 mov	 ecx, 1
  00431	85 c9		 test	 ecx, ecx
  00433	74 09		 je	 SHORT $LN61@mobile_che
  00435	c7 45 88 19 00
	00 00		 mov	 DWORD PTR tv259[ebp], 25 ; 00000019H
  0043c	eb 21		 jmp	 SHORT $LN62@mobile_che
$LN61@mobile_che:
  0043e	8b 15 00 00 00
	00		 mov	 edx, DWORD PTR ?__LINE__Var@?0??mobile_check_all_members_taken_off@@YGHPAUENTITY@@@Z@4JA
  00444	83 c2 49	 add	 edx, 73			; 00000049H
  00447	52		 push	 edx
  00448	68 00 00 00 00	 push	 OFFSET ??_C@_0ED@JCPIACOE@c?3?2users?2nhv90?2projects?2eech?2ap@
  0044d	a1 00 00 00 00	 mov	 eax, DWORD PTR ?overload_invalid_list_type_message@@3PBDB ; overload_invalid_list_type_message
  00452	50		 push	 eax
  00453	e8 00 00 00 00	 call	 ?process_assert@@YGXPBD0H@Z ; process_assert
  00458	c7 45 88 00 00
	00 00		 mov	 DWORD PTR tv259[ebp], 0
$LN62@mobile_che:
  0045f	6a 19		 push	 25			; 00000019H
  00461	8b 4d f4	 mov	 ecx, DWORD PTR _member$[ebp]
  00464	51		 push	 ecx
  00465	69 55 8c b4 00
	00 00		 imul	 edx, DWORD PTR tv251[ebp], 180
  0046c	8b 45 88	 mov	 eax, DWORD PTR tv259[ebp]
  0046f	8b 8c 82 00 00
	00 00		 mov	 ecx, DWORD PTR ?fn_get_local_entity_child_succ@@3PAY0CN@P6GPAUENTITY@@PAU1@W4LIST_TYPES@@@ZA[edx+eax*4]
  00476	ff d1		 call	 ecx
  00478	89 45 f4	 mov	 DWORD PTR _member$[ebp], eax

; 776  : 	}

  0047b	e9 c0 fc ff ff	 jmp	 $LN2@mobile_che
$LN3@mobile_che:

; 777  : 
; 778  : 	//
; 779  : 	//
; 780  : 	//
; 781  : 
; 782  : 	if (takeoff_flag)

  00480	83 7d d0 00	 cmp	 DWORD PTR _takeoff_flag$[ebp], 0
  00484	0f 84 0e 08 00
	00		 je	 $LN17@mobile_che

; 783  : 	{
; 784  : 		//
; 785  : 		// move all members from takeoff route to group wp route
; 786  : 		//
; 787  : 
; 788  : 		//
; 789  : 		// find primary task
; 790  : 		//
; 791  : 
; 792  : 		new_guide = get_local_group_primary_guide (group);

  0048a	8b 45 fc	 mov	 eax, DWORD PTR _group$[ebp]
  0048d	50		 push	 eax
  0048e	e8 00 00 00 00	 call	 ?get_local_group_primary_guide@@YGPAUENTITY@@PAU1@@Z ; get_local_group_primary_guide
  00493	89 45 e8	 mov	 DWORD PTR _new_guide$[ebp], eax

; 793  : 
; 794  : 		ASSERT (new_guide);

  00496	83 7d e8 00	 cmp	 DWORD PTR _new_guide$[ebp], 0
  0049a	75 18		 jne	 SHORT $LN19@mobile_che
  0049c	a1 00 00 00 00	 mov	 eax, DWORD PTR ?__LINE__Var@?0??mobile_check_all_members_taken_off@@YGHPAUENTITY@@@Z@4JA
  004a1	83 c0 5c	 add	 eax, 92			; 0000005cH
  004a4	50		 push	 eax
  004a5	68 00 00 00 00	 push	 OFFSET ??_C@_0ED@JCPIACOE@c?3?2users?2nhv90?2projects?2eech?2ap@
  004aa	68 00 00 00 00	 push	 OFFSET ??_C@_09IDBOHCLM@new_guide@
  004af	e8 00 00 00 00	 call	 ?process_assert@@YGXPBD0H@Z ; process_assert
$LN19@mobile_che:

; 795  : 
; 796  : 		//
; 797  : 		// Allow group to engage
; 798  : 		//
; 799  : 
; 800  : 		#ifdef DEBUG
; 801  : 
; 802  : 		if (get_local_entity_int_value (group, INT_TYPE_AIRCRAFT_GROUP))

  004b4	83 7d fc 00	 cmp	 DWORD PTR _group$[ebp], 0
  004b8	74 0a		 je	 SHORT $LN63@mobile_che
  004ba	8b 45 fc	 mov	 eax, DWORD PTR _group$[ebp]
  004bd	8b 08		 mov	 ecx, DWORD PTR [eax]
  004bf	89 4d 8c	 mov	 DWORD PTR tv278[ebp], ecx
  004c2	eb 1d		 jmp	 SHORT $LN64@mobile_che
$LN63@mobile_che:
  004c4	68 22 03 00 00	 push	 802			; 00000322H
  004c9	68 00 00 00 00	 push	 OFFSET ??_C@_0ED@JCPIACOE@c?3?2users?2nhv90?2projects?2eech?2ap@
  004ce	8b 15 00 00 00
	00		 mov	 edx, DWORD PTR ?null_entity_pointer_message@@3PBDB ; null_entity_pointer_message
  004d4	52		 push	 edx
  004d5	e8 00 00 00 00	 call	 ?process_assert@@YGXPBD0H@Z ; process_assert
  004da	c7 45 8c 00 00
	00 00		 mov	 DWORD PTR tv278[ebp], 0
$LN64@mobile_che:
  004e1	b8 01 00 00 00	 mov	 eax, 1
  004e6	85 c0		 test	 eax, eax
  004e8	74 09		 je	 SHORT $LN65@mobile_che
  004ea	c7 45 88 05 00
	00 00		 mov	 DWORD PTR tv285[ebp], 5
  004f1	eb 1d		 jmp	 SHORT $LN66@mobile_che
$LN65@mobile_che:
  004f3	68 22 03 00 00	 push	 802			; 00000322H
  004f8	68 00 00 00 00	 push	 OFFSET ??_C@_0ED@JCPIACOE@c?3?2users?2nhv90?2projects?2eech?2ap@
  004fd	8b 0d 00 00 00
	00		 mov	 ecx, DWORD PTR ?overload_invalid_int_type_message@@3PBDB ; overload_invalid_int_type_message
  00503	51		 push	 ecx
  00504	e8 00 00 00 00	 call	 ?process_assert@@YGXPBD0H@Z ; process_assert
  00509	c7 45 88 00 00
	00 00		 mov	 DWORD PTR tv285[ebp], 0
$LN66@mobile_che:
  00510	6a 05		 push	 5
  00512	8b 55 fc	 mov	 edx, DWORD PTR _group$[ebp]
  00515	52		 push	 edx
  00516	69 45 8c 5c 04
	00 00		 imul	 eax, DWORD PTR tv278[ebp], 1116
  0051d	8b 4d 88	 mov	 ecx, DWORD PTR tv285[ebp]
  00520	8b 94 88 00 00
	00 00		 mov	 edx, DWORD PTR ?fn_get_local_entity_int_value@@3PAY0BBH@P6GHPAUENTITY@@W4INT_TYPES@@@ZA[eax+ecx*4]
  00527	ff d2		 call	 edx
  00529	85 c0		 test	 eax, eax
  0052b	0f 84 99 00 00
	00		 je	 $LN20@mobile_che

; 803  : 		{
; 804  : 			ASSERT (get_local_entity_int_value (group, INT_TYPE_ENGAGE_ENEMY) == FALSE);		// should be FALSE at this point

  00531	83 7d fc 00	 cmp	 DWORD PTR _group$[ebp], 0
  00535	74 0a		 je	 SHORT $LN67@mobile_che
  00537	8b 45 fc	 mov	 eax, DWORD PTR _group$[ebp]
  0053a	8b 08		 mov	 ecx, DWORD PTR [eax]
  0053c	89 4d 8c	 mov	 DWORD PTR tv298[ebp], ecx
  0053f	eb 21		 jmp	 SHORT $LN68@mobile_che
$LN67@mobile_che:
  00541	8b 15 00 00 00
	00		 mov	 edx, DWORD PTR ?__LINE__Var@?0??mobile_check_all_members_taken_off@@YGHPAUENTITY@@@Z@4JA
  00547	83 c2 66	 add	 edx, 102		; 00000066H
  0054a	52		 push	 edx
  0054b	68 00 00 00 00	 push	 OFFSET ??_C@_0ED@JCPIACOE@c?3?2users?2nhv90?2projects?2eech?2ap@
  00550	a1 00 00 00 00	 mov	 eax, DWORD PTR ?null_entity_pointer_message@@3PBDB ; null_entity_pointer_message
  00555	50		 push	 eax
  00556	e8 00 00 00 00	 call	 ?process_assert@@YGXPBD0H@Z ; process_assert
  0055b	c7 45 8c 00 00
	00 00		 mov	 DWORD PTR tv298[ebp], 0
$LN68@mobile_che:
  00562	b9 01 00 00 00	 mov	 ecx, 1
  00567	85 c9		 test	 ecx, ecx
  00569	74 09		 je	 SHORT $LN69@mobile_che
  0056b	c7 45 88 33 00
	00 00		 mov	 DWORD PTR tv306[ebp], 51 ; 00000033H
  00572	eb 21		 jmp	 SHORT $LN70@mobile_che
$LN69@mobile_che:
  00574	8b 15 00 00 00
	00		 mov	 edx, DWORD PTR ?__LINE__Var@?0??mobile_check_all_members_taken_off@@YGHPAUENTITY@@@Z@4JA
  0057a	83 c2 66	 add	 edx, 102		; 00000066H
  0057d	52		 push	 edx
  0057e	68 00 00 00 00	 push	 OFFSET ??_C@_0ED@JCPIACOE@c?3?2users?2nhv90?2projects?2eech?2ap@
  00583	a1 00 00 00 00	 mov	 eax, DWORD PTR ?overload_invalid_int_type_message@@3PBDB ; overload_invalid_int_type_message
  00588	50		 push	 eax
  00589	e8 00 00 00 00	 call	 ?process_assert@@YGXPBD0H@Z ; process_assert
  0058e	c7 45 88 00 00
	00 00		 mov	 DWORD PTR tv306[ebp], 0
$LN70@mobile_che:
  00595	6a 33		 push	 51			; 00000033H
  00597	8b 4d fc	 mov	 ecx, DWORD PTR _group$[ebp]
  0059a	51		 push	 ecx
  0059b	69 55 8c 5c 04
	00 00		 imul	 edx, DWORD PTR tv298[ebp], 1116
  005a2	8b 45 88	 mov	 eax, DWORD PTR tv306[ebp]
  005a5	8b 8c 82 00 00
	00 00		 mov	 ecx, DWORD PTR ?fn_get_local_entity_int_value@@3PAY0BBH@P6GHPAUENTITY@@W4INT_TYPES@@@ZA[edx+eax*4]
  005ac	ff d1		 call	 ecx
  005ae	85 c0		 test	 eax, eax
  005b0	74 18		 je	 SHORT $LN20@mobile_che
  005b2	a1 00 00 00 00	 mov	 eax, DWORD PTR ?__LINE__Var@?0??mobile_check_all_members_taken_off@@YGHPAUENTITY@@@Z@4JA
  005b7	83 c0 66	 add	 eax, 102		; 00000066H
  005ba	50		 push	 eax
  005bb	68 00 00 00 00	 push	 OFFSET ??_C@_0ED@JCPIACOE@c?3?2users?2nhv90?2projects?2eech?2ap@
  005c0	68 00 00 00 00	 push	 OFFSET ??_C@_0ED@PNFONGNP@get_local_entity_int_value?5?$CIgro@
  005c5	e8 00 00 00 00	 call	 ?process_assert@@YGXPBD0H@Z ; process_assert
$LN20@mobile_che:

; 805  : 		}
; 806  : 
; 807  : 		#endif
; 808  : 		
; 809  : 		set_local_entity_int_value (group, INT_TYPE_ENGAGE_ENEMY, get_local_entity_int_value (group, INT_TYPE_DEFAULT_ENGAGE_ENEMY));

  005ca	83 7d fc 00	 cmp	 DWORD PTR _group$[ebp], 0
  005ce	74 0a		 je	 SHORT $LN75@mobile_che
  005d0	8b 45 fc	 mov	 eax, DWORD PTR _group$[ebp]
  005d3	8b 08		 mov	 ecx, DWORD PTR [eax]
  005d5	89 4d 8c	 mov	 DWORD PTR tv340[ebp], ecx
  005d8	eb 21		 jmp	 SHORT $LN76@mobile_che
$LN75@mobile_che:
  005da	8b 15 00 00 00
	00		 mov	 edx, DWORD PTR ?__LINE__Var@?0??mobile_check_all_members_taken_off@@YGHPAUENTITY@@@Z@4JA
  005e0	83 c2 6b	 add	 edx, 107		; 0000006bH
  005e3	52		 push	 edx
  005e4	68 00 00 00 00	 push	 OFFSET ??_C@_0ED@JCPIACOE@c?3?2users?2nhv90?2projects?2eech?2ap@
  005e9	a1 00 00 00 00	 mov	 eax, DWORD PTR ?null_entity_pointer_message@@3PBDB ; null_entity_pointer_message
  005ee	50		 push	 eax
  005ef	e8 00 00 00 00	 call	 ?process_assert@@YGXPBD0H@Z ; process_assert
  005f4	c7 45 8c 00 00
	00 00		 mov	 DWORD PTR tv340[ebp], 0
$LN76@mobile_che:
  005fb	b9 01 00 00 00	 mov	 ecx, 1
  00600	85 c9		 test	 ecx, ecx
  00602	74 09		 je	 SHORT $LN77@mobile_che
  00604	c7 45 88 2a 00
	00 00		 mov	 DWORD PTR tv348[ebp], 42 ; 0000002aH
  0060b	eb 21		 jmp	 SHORT $LN78@mobile_che
$LN77@mobile_che:
  0060d	8b 15 00 00 00
	00		 mov	 edx, DWORD PTR ?__LINE__Var@?0??mobile_check_all_members_taken_off@@YGHPAUENTITY@@@Z@4JA
  00613	83 c2 6b	 add	 edx, 107		; 0000006bH
  00616	52		 push	 edx
  00617	68 00 00 00 00	 push	 OFFSET ??_C@_0ED@JCPIACOE@c?3?2users?2nhv90?2projects?2eech?2ap@
  0061c	a1 00 00 00 00	 mov	 eax, DWORD PTR ?overload_invalid_int_type_message@@3PBDB ; overload_invalid_int_type_message
  00621	50		 push	 eax
  00622	e8 00 00 00 00	 call	 ?process_assert@@YGXPBD0H@Z ; process_assert
  00627	c7 45 88 00 00
	00 00		 mov	 DWORD PTR tv348[ebp], 0
$LN78@mobile_che:
  0062e	83 7d fc 00	 cmp	 DWORD PTR _group$[ebp], 0
  00632	74 0a		 je	 SHORT $LN71@mobile_che
  00634	8b 4d fc	 mov	 ecx, DWORD PTR _group$[ebp]
  00637	8b 11		 mov	 edx, DWORD PTR [ecx]
  00639	89 55 84	 mov	 DWORD PTR tv323[ebp], edx
  0063c	eb 21		 jmp	 SHORT $LN72@mobile_che
$LN71@mobile_che:
  0063e	a1 00 00 00 00	 mov	 eax, DWORD PTR ?__LINE__Var@?0??mobile_check_all_members_taken_off@@YGHPAUENTITY@@@Z@4JA
  00643	83 c0 6b	 add	 eax, 107		; 0000006bH
  00646	50		 push	 eax
  00647	68 00 00 00 00	 push	 OFFSET ??_C@_0ED@JCPIACOE@c?3?2users?2nhv90?2projects?2eech?2ap@
  0064c	8b 0d 00 00 00
	00		 mov	 ecx, DWORD PTR ?null_entity_pointer_message@@3PBDB ; null_entity_pointer_message
  00652	51		 push	 ecx
  00653	e8 00 00 00 00	 call	 ?process_assert@@YGXPBD0H@Z ; process_assert
  00658	c7 45 84 00 00
	00 00		 mov	 DWORD PTR tv323[ebp], 0
$LN72@mobile_che:
  0065f	ba 01 00 00 00	 mov	 edx, 1
  00664	85 d2		 test	 edx, edx
  00666	74 09		 je	 SHORT $LN73@mobile_che
  00668	c7 45 80 33 00
	00 00		 mov	 DWORD PTR tv331[ebp], 51 ; 00000033H
  0066f	eb 21		 jmp	 SHORT $LN74@mobile_che
$LN73@mobile_che:
  00671	a1 00 00 00 00	 mov	 eax, DWORD PTR ?__LINE__Var@?0??mobile_check_all_members_taken_off@@YGHPAUENTITY@@@Z@4JA
  00676	83 c0 6b	 add	 eax, 107		; 0000006bH
  00679	50		 push	 eax
  0067a	68 00 00 00 00	 push	 OFFSET ??_C@_0ED@JCPIACOE@c?3?2users?2nhv90?2projects?2eech?2ap@
  0067f	8b 0d 00 00 00
	00		 mov	 ecx, DWORD PTR ?overload_invalid_int_type_message@@3PBDB ; overload_invalid_int_type_message
  00685	51		 push	 ecx
  00686	e8 00 00 00 00	 call	 ?process_assert@@YGXPBD0H@Z ; process_assert
  0068b	c7 45 80 00 00
	00 00		 mov	 DWORD PTR tv331[ebp], 0
$LN74@mobile_che:
  00692	6a 2a		 push	 42			; 0000002aH
  00694	8b 55 fc	 mov	 edx, DWORD PTR _group$[ebp]
  00697	52		 push	 edx
  00698	69 45 8c 5c 04
	00 00		 imul	 eax, DWORD PTR tv340[ebp], 1116
  0069f	8b 4d 88	 mov	 ecx, DWORD PTR tv348[ebp]
  006a2	8b 94 88 00 00
	00 00		 mov	 edx, DWORD PTR ?fn_get_local_entity_int_value@@3PAY0BBH@P6GHPAUENTITY@@W4INT_TYPES@@@ZA[eax+ecx*4]
  006a9	ff d2		 call	 edx
  006ab	50		 push	 eax
  006ac	6a 33		 push	 51			; 00000033H
  006ae	8b 45 fc	 mov	 eax, DWORD PTR _group$[ebp]
  006b1	50		 push	 eax
  006b2	69 4d 84 5c 04
	00 00		 imul	 ecx, DWORD PTR tv323[ebp], 1116
  006b9	8b 55 80	 mov	 edx, DWORD PTR tv331[ebp]
  006bc	8b 84 91 00 00
	00 00		 mov	 eax, DWORD PTR ?fn_set_local_entity_int_value@@3PAY0BBH@P6GXPAUENTITY@@W4INT_TYPES@@H@ZA[ecx+edx*4]
  006c3	ff d0		 call	 eax

; 810  : 
; 811  : 		//
; 812  : 		// Remove independent groups from keysite
; 813  : 		//
; 814  : 
; 815  : 		ASSERT (get_local_entity_int_value (group, INT_TYPE_GROUP_LIST_TYPE) == LIST_TYPE_KEYSITE_GROUP);

  006c5	83 7d fc 00	 cmp	 DWORD PTR _group$[ebp], 0
  006c9	74 0a		 je	 SHORT $LN79@mobile_che
  006cb	8b 45 fc	 mov	 eax, DWORD PTR _group$[ebp]
  006ce	8b 08		 mov	 ecx, DWORD PTR [eax]
  006d0	89 4d 8c	 mov	 DWORD PTR tv363[ebp], ecx
  006d3	eb 21		 jmp	 SHORT $LN80@mobile_che
$LN79@mobile_che:
  006d5	8b 15 00 00 00
	00		 mov	 edx, DWORD PTR ?__LINE__Var@?0??mobile_check_all_members_taken_off@@YGHPAUENTITY@@@Z@4JA
  006db	83 c2 71	 add	 edx, 113		; 00000071H
  006de	52		 push	 edx
  006df	68 00 00 00 00	 push	 OFFSET ??_C@_0ED@JCPIACOE@c?3?2users?2nhv90?2projects?2eech?2ap@
  006e4	a1 00 00 00 00	 mov	 eax, DWORD PTR ?null_entity_pointer_message@@3PBDB ; null_entity_pointer_message
  006e9	50		 push	 eax
  006ea	e8 00 00 00 00	 call	 ?process_assert@@YGXPBD0H@Z ; process_assert
  006ef	c7 45 8c 00 00
	00 00		 mov	 DWORD PTR tv363[ebp], 0
$LN80@mobile_che:
  006f6	b9 01 00 00 00	 mov	 ecx, 1
  006fb	85 c9		 test	 ecx, ecx
  006fd	74 09		 je	 SHORT $LN81@mobile_che
  006ff	c7 45 88 49 00
	00 00		 mov	 DWORD PTR tv371[ebp], 73 ; 00000049H
  00706	eb 21		 jmp	 SHORT $LN82@mobile_che
$LN81@mobile_che:
  00708	8b 15 00 00 00
	00		 mov	 edx, DWORD PTR ?__LINE__Var@?0??mobile_check_all_members_taken_off@@YGHPAUENTITY@@@Z@4JA
  0070e	83 c2 71	 add	 edx, 113		; 00000071H
  00711	52		 push	 edx
  00712	68 00 00 00 00	 push	 OFFSET ??_C@_0ED@JCPIACOE@c?3?2users?2nhv90?2projects?2eech?2ap@
  00717	a1 00 00 00 00	 mov	 eax, DWORD PTR ?overload_invalid_int_type_message@@3PBDB ; overload_invalid_int_type_message
  0071c	50		 push	 eax
  0071d	e8 00 00 00 00	 call	 ?process_assert@@YGXPBD0H@Z ; process_assert
  00722	c7 45 88 00 00
	00 00		 mov	 DWORD PTR tv371[ebp], 0
$LN82@mobile_che:
  00729	6a 49		 push	 73			; 00000049H
  0072b	8b 4d fc	 mov	 ecx, DWORD PTR _group$[ebp]
  0072e	51		 push	 ecx
  0072f	69 55 8c 5c 04
	00 00		 imul	 edx, DWORD PTR tv363[ebp], 1116
  00736	8b 45 88	 mov	 eax, DWORD PTR tv371[ebp]
  00739	8b 8c 82 00 00
	00 00		 mov	 ecx, DWORD PTR ?fn_get_local_entity_int_value@@3PAY0BBH@P6GHPAUENTITY@@W4INT_TYPES@@@ZA[edx+eax*4]
  00740	ff d1		 call	 ecx
  00742	83 f8 16	 cmp	 eax, 22			; 00000016H
  00745	74 18		 je	 SHORT $LN22@mobile_che
  00747	a1 00 00 00 00	 mov	 eax, DWORD PTR ?__LINE__Var@?0??mobile_check_all_members_taken_off@@YGHPAUENTITY@@@Z@4JA
  0074c	83 c0 71	 add	 eax, 113		; 00000071H
  0074f	50		 push	 eax
  00750	68 00 00 00 00	 push	 OFFSET ??_C@_0ED@JCPIACOE@c?3?2users?2nhv90?2projects?2eech?2ap@
  00755	68 00 00 00 00	 push	 OFFSET ??_C@_0FI@MBCGMO@get_local_entity_int_value?5?$CIgro@
  0075a	e8 00 00 00 00	 call	 ?process_assert@@YGXPBD0H@Z ; process_assert
$LN22@mobile_che:

; 816  : 
; 817  : 		if (get_local_entity_int_value (group, INT_TYPE_DEFAULT_GROUP_LIST_TYPE) == LIST_TYPE_INDEPENDENT_GROUP)

  0075f	83 7d fc 00	 cmp	 DWORD PTR _group$[ebp], 0
  00763	74 0a		 je	 SHORT $LN83@mobile_che
  00765	8b 45 fc	 mov	 eax, DWORD PTR _group$[ebp]
  00768	8b 08		 mov	 ecx, DWORD PTR [eax]
  0076a	89 4d 8c	 mov	 DWORD PTR tv387[ebp], ecx
  0076d	eb 1d		 jmp	 SHORT $LN84@mobile_che
$LN83@mobile_che:
  0076f	68 31 03 00 00	 push	 817			; 00000331H
  00774	68 00 00 00 00	 push	 OFFSET ??_C@_0ED@JCPIACOE@c?3?2users?2nhv90?2projects?2eech?2ap@
  00779	8b 15 00 00 00
	00		 mov	 edx, DWORD PTR ?null_entity_pointer_message@@3PBDB ; null_entity_pointer_message
  0077f	52		 push	 edx
  00780	e8 00 00 00 00	 call	 ?process_assert@@YGXPBD0H@Z ; process_assert
  00785	c7 45 8c 00 00
	00 00		 mov	 DWORD PTR tv387[ebp], 0
$LN84@mobile_che:
  0078c	b8 01 00 00 00	 mov	 eax, 1
  00791	85 c0		 test	 eax, eax
  00793	74 09		 je	 SHORT $LN85@mobile_che
  00795	c7 45 88 2b 00
	00 00		 mov	 DWORD PTR tv394[ebp], 43 ; 0000002bH
  0079c	eb 1d		 jmp	 SHORT $LN86@mobile_che
$LN85@mobile_che:
  0079e	68 31 03 00 00	 push	 817			; 00000331H
  007a3	68 00 00 00 00	 push	 OFFSET ??_C@_0ED@JCPIACOE@c?3?2users?2nhv90?2projects?2eech?2ap@
  007a8	8b 0d 00 00 00
	00		 mov	 ecx, DWORD PTR ?overload_invalid_int_type_message@@3PBDB ; overload_invalid_int_type_message
  007ae	51		 push	 ecx
  007af	e8 00 00 00 00	 call	 ?process_assert@@YGXPBD0H@Z ; process_assert
  007b4	c7 45 88 00 00
	00 00		 mov	 DWORD PTR tv394[ebp], 0
$LN86@mobile_che:
  007bb	6a 2b		 push	 43			; 0000002bH
  007bd	8b 55 fc	 mov	 edx, DWORD PTR _group$[ebp]
  007c0	52		 push	 edx
  007c1	69 45 8c 5c 04
	00 00		 imul	 eax, DWORD PTR tv387[ebp], 1116
  007c8	8b 4d 88	 mov	 ecx, DWORD PTR tv394[ebp]
  007cb	8b 94 88 00 00
	00 00		 mov	 edx, DWORD PTR ?fn_get_local_entity_int_value@@3PAY0BBH@P6GHPAUENTITY@@W4INT_TYPES@@@ZA[eax+ecx*4]
  007d2	ff d2		 call	 edx
  007d4	83 f8 14	 cmp	 eax, 20			; 00000014H
  007d7	0f 85 51 01 00
	00		 jne	 $LN23@mobile_che

; 818  : 		{
; 819  : 			side = (entity_sides) get_local_entity_int_value (group, INT_TYPE_SIDE);

  007dd	83 7d fc 00	 cmp	 DWORD PTR _group$[ebp], 0
  007e1	74 0a		 je	 SHORT $LN87@mobile_che
  007e3	8b 45 fc	 mov	 eax, DWORD PTR _group$[ebp]
  007e6	8b 08		 mov	 ecx, DWORD PTR [eax]
  007e8	89 4d 8c	 mov	 DWORD PTR tv407[ebp], ecx
  007eb	eb 21		 jmp	 SHORT $LN88@mobile_che
$LN87@mobile_che:
  007ed	8b 15 00 00 00
	00		 mov	 edx, DWORD PTR ?__LINE__Var@?0??mobile_check_all_members_taken_off@@YGHPAUENTITY@@@Z@4JA
  007f3	83 c2 75	 add	 edx, 117		; 00000075H
  007f6	52		 push	 edx
  007f7	68 00 00 00 00	 push	 OFFSET ??_C@_0ED@JCPIACOE@c?3?2users?2nhv90?2projects?2eech?2ap@
  007fc	a1 00 00 00 00	 mov	 eax, DWORD PTR ?null_entity_pointer_message@@3PBDB ; null_entity_pointer_message
  00801	50		 push	 eax
  00802	e8 00 00 00 00	 call	 ?process_assert@@YGXPBD0H@Z ; process_assert
  00807	c7 45 8c 00 00
	00 00		 mov	 DWORD PTR tv407[ebp], 0
$LN88@mobile_che:
  0080e	b9 01 00 00 00	 mov	 ecx, 1
  00813	85 c9		 test	 ecx, ecx
  00815	74 09		 je	 SHORT $LN89@mobile_che
  00817	c7 45 88 bb 00
	00 00		 mov	 DWORD PTR tv415[ebp], 187 ; 000000bbH
  0081e	eb 21		 jmp	 SHORT $LN90@mobile_che
$LN89@mobile_che:
  00820	8b 15 00 00 00
	00		 mov	 edx, DWORD PTR ?__LINE__Var@?0??mobile_check_all_members_taken_off@@YGHPAUENTITY@@@Z@4JA
  00826	83 c2 75	 add	 edx, 117		; 00000075H
  00829	52		 push	 edx
  0082a	68 00 00 00 00	 push	 OFFSET ??_C@_0ED@JCPIACOE@c?3?2users?2nhv90?2projects?2eech?2ap@
  0082f	a1 00 00 00 00	 mov	 eax, DWORD PTR ?overload_invalid_int_type_message@@3PBDB ; overload_invalid_int_type_message
  00834	50		 push	 eax
  00835	e8 00 00 00 00	 call	 ?process_assert@@YGXPBD0H@Z ; process_assert
  0083a	c7 45 88 00 00
	00 00		 mov	 DWORD PTR tv415[ebp], 0
$LN90@mobile_che:
  00841	68 bb 00 00 00	 push	 187			; 000000bbH
  00846	8b 4d fc	 mov	 ecx, DWORD PTR _group$[ebp]
  00849	51		 push	 ecx
  0084a	69 55 8c 5c 04
	00 00		 imul	 edx, DWORD PTR tv407[ebp], 1116
  00851	8b 45 88	 mov	 eax, DWORD PTR tv415[ebp]
  00854	8b 8c 82 00 00
	00 00		 mov	 ecx, DWORD PTR ?fn_get_local_entity_int_value@@3PAY0BBH@P6GHPAUENTITY@@W4INT_TYPES@@@ZA[edx+eax*4]
  0085b	ff d1		 call	 ecx
  0085d	89 45 d8	 mov	 DWORD PTR _side$[ebp], eax

; 820  : 
; 821  : 			force = get_local_force_entity (side);

  00860	8b 45 d8	 mov	 eax, DWORD PTR _side$[ebp]
  00863	50		 push	 eax
  00864	e8 00 00 00 00	 call	 ?get_local_force_entity@@YGPAUENTITY@@W4ENTITY_SIDES@@@Z ; get_local_force_entity
  00869	89 45 f8	 mov	 DWORD PTR _force$[ebp], eax

; 822  : 
; 823  : 			ASSERT (force);

  0086c	83 7d f8 00	 cmp	 DWORD PTR _force$[ebp], 0
  00870	75 18		 jne	 SHORT $LN24@mobile_che
  00872	a1 00 00 00 00	 mov	 eax, DWORD PTR ?__LINE__Var@?0??mobile_check_all_members_taken_off@@YGHPAUENTITY@@@Z@4JA
  00877	83 c0 79	 add	 eax, 121		; 00000079H
  0087a	50		 push	 eax
  0087b	68 00 00 00 00	 push	 OFFSET ??_C@_0ED@JCPIACOE@c?3?2users?2nhv90?2projects?2eech?2ap@
  00880	68 00 00 00 00	 push	 OFFSET ??_C@_05BINPNAAL@force@
  00885	e8 00 00 00 00	 call	 ?process_assert@@YGXPBD0H@Z ; process_assert
$LN24@mobile_che:

; 824  : 
; 825  : 			set_client_server_entity_int_value (group, INT_TYPE_GROUP_LIST_TYPE, LIST_TYPE_INDEPENDENT_GROUP);

  0088a	83 7d fc 00	 cmp	 DWORD PTR _group$[ebp], 0
  0088e	74 0a		 je	 SHORT $LN91@mobile_che
  00890	8b 45 fc	 mov	 eax, DWORD PTR _group$[ebp]
  00893	8b 08		 mov	 ecx, DWORD PTR [eax]
  00895	89 4d 8c	 mov	 DWORD PTR tv434[ebp], ecx
  00898	eb 21		 jmp	 SHORT $LN92@mobile_che
$LN91@mobile_che:
  0089a	8b 15 00 00 00
	00		 mov	 edx, DWORD PTR ?__LINE__Var@?0??mobile_check_all_members_taken_off@@YGHPAUENTITY@@@Z@4JA
  008a0	83 c2 7b	 add	 edx, 123		; 0000007bH
  008a3	52		 push	 edx
  008a4	68 00 00 00 00	 push	 OFFSET ??_C@_0ED@JCPIACOE@c?3?2users?2nhv90?2projects?2eech?2ap@
  008a9	a1 00 00 00 00	 mov	 eax, DWORD PTR ?null_entity_pointer_message@@3PBDB ; null_entity_pointer_message
  008ae	50		 push	 eax
  008af	e8 00 00 00 00	 call	 ?process_assert@@YGXPBD0H@Z ; process_assert
  008b4	c7 45 8c 00 00
	00 00		 mov	 DWORD PTR tv434[ebp], 0
$LN92@mobile_che:
  008bb	b9 01 00 00 00	 mov	 ecx, 1
  008c0	85 c9		 test	 ecx, ecx
  008c2	74 09		 je	 SHORT $LN93@mobile_che
  008c4	c7 45 88 49 00
	00 00		 mov	 DWORD PTR tv442[ebp], 73 ; 00000049H
  008cb	eb 21		 jmp	 SHORT $LN94@mobile_che
$LN93@mobile_che:
  008cd	8b 15 00 00 00
	00		 mov	 edx, DWORD PTR ?__LINE__Var@?0??mobile_check_all_members_taken_off@@YGHPAUENTITY@@@Z@4JA
  008d3	83 c2 7b	 add	 edx, 123		; 0000007bH
  008d6	52		 push	 edx
  008d7	68 00 00 00 00	 push	 OFFSET ??_C@_0ED@JCPIACOE@c?3?2users?2nhv90?2projects?2eech?2ap@
  008dc	a1 00 00 00 00	 mov	 eax, DWORD PTR ?overload_invalid_int_type_message@@3PBDB ; overload_invalid_int_type_message
  008e1	50		 push	 eax
  008e2	e8 00 00 00 00	 call	 ?process_assert@@YGXPBD0H@Z ; process_assert
  008e7	c7 45 88 00 00
	00 00		 mov	 DWORD PTR tv442[ebp], 0
$LN94@mobile_che:
  008ee	6a 14		 push	 20			; 00000014H
  008f0	6a 49		 push	 73			; 00000049H
  008f2	8b 4d fc	 mov	 ecx, DWORD PTR _group$[ebp]
  008f5	51		 push	 ecx
  008f6	69 55 8c b8 08
	00 00		 imul	 edx, DWORD PTR tv434[ebp], 2232
  008fd	8b 45 88	 mov	 eax, DWORD PTR tv442[ebp]
  00900	8d 8c c2 00 00
	00 00		 lea	 ecx, DWORD PTR ?fn_set_client_server_entity_int_value@@3PAY1BBH@1P6GXPAUENTITY@@W4INT_TYPES@@H@ZA[edx+eax*8]
  00907	8b 15 00 00 00
	00		 mov	 edx, DWORD PTR ?system_comms_model@@3W4COMMS_MODEL_TYPES@@A ; system_comms_model
  0090d	8b 04 91	 mov	 eax, DWORD PTR [ecx+edx*4]
  00910	ff d0		 call	 eax

; 826  : 
; 827  : 			set_client_server_entity_parent (group, LIST_TYPE_KEYSITE_GROUP, NULL);

  00912	6a 00		 push	 0
  00914	6a 16		 push	 22			; 00000016H
  00916	8b 45 fc	 mov	 eax, DWORD PTR _group$[ebp]
  00919	50		 push	 eax
  0091a	e8 00 00 00 00	 call	 ?set_client_server_entity_parent@@YGXPAUENTITY@@W4LIST_TYPES@@0@Z ; set_client_server_entity_parent

; 828  : 
; 829  : 			set_client_server_entity_parent (group, LIST_TYPE_INDEPENDENT_GROUP, force);

  0091f	8b 45 f8	 mov	 eax, DWORD PTR _force$[ebp]
  00922	50		 push	 eax
  00923	6a 14		 push	 20			; 00000014H
  00925	8b 4d fc	 mov	 ecx, DWORD PTR _group$[ebp]
  00928	51		 push	 ecx
  00929	e8 00 00 00 00	 call	 ?set_client_server_entity_parent@@YGXPAUENTITY@@W4LIST_TYPES@@0@Z ; set_client_server_entity_parent
$LN23@mobile_che:

; 830  : 		}
; 831  : 
; 832  : 		member = get_local_entity_first_child (group, LIST_TYPE_MEMBER);

  0092e	83 7d fc 00	 cmp	 DWORD PTR _group$[ebp], 0
  00932	74 0a		 je	 SHORT $LN95@mobile_che
  00934	8b 45 fc	 mov	 eax, DWORD PTR _group$[ebp]
  00937	8b 08		 mov	 ecx, DWORD PTR [eax]
  00939	89 4d 8c	 mov	 DWORD PTR tv462[ebp], ecx
  0093c	eb 24		 jmp	 SHORT $LN96@mobile_che
$LN95@mobile_che:
  0093e	8b 15 00 00 00
	00		 mov	 edx, DWORD PTR ?__LINE__Var@?0??mobile_check_all_members_taken_off@@YGHPAUENTITY@@@Z@4JA
  00944	81 c2 82 00 00
	00		 add	 edx, 130		; 00000082H
  0094a	52		 push	 edx
  0094b	68 00 00 00 00	 push	 OFFSET ??_C@_0ED@JCPIACOE@c?3?2users?2nhv90?2projects?2eech?2ap@
  00950	a1 00 00 00 00	 mov	 eax, DWORD PTR ?null_entity_pointer_message@@3PBDB ; null_entity_pointer_message
  00955	50		 push	 eax
  00956	e8 00 00 00 00	 call	 ?process_assert@@YGXPBD0H@Z ; process_assert
  0095b	c7 45 8c 00 00
	00 00		 mov	 DWORD PTR tv462[ebp], 0
$LN96@mobile_che:
  00962	b9 01 00 00 00	 mov	 ecx, 1
  00967	85 c9		 test	 ecx, ecx
  00969	74 09		 je	 SHORT $LN97@mobile_che
  0096b	c7 45 88 19 00
	00 00		 mov	 DWORD PTR tv470[ebp], 25 ; 00000019H
  00972	eb 24		 jmp	 SHORT $LN98@mobile_che
$LN97@mobile_che:
  00974	8b 15 00 00 00
	00		 mov	 edx, DWORD PTR ?__LINE__Var@?0??mobile_check_all_members_taken_off@@YGHPAUENTITY@@@Z@4JA
  0097a	81 c2 82 00 00
	00		 add	 edx, 130		; 00000082H
  00980	52		 push	 edx
  00981	68 00 00 00 00	 push	 OFFSET ??_C@_0ED@JCPIACOE@c?3?2users?2nhv90?2projects?2eech?2ap@
  00986	a1 00 00 00 00	 mov	 eax, DWORD PTR ?overload_invalid_list_type_message@@3PBDB ; overload_invalid_list_type_message
  0098b	50		 push	 eax
  0098c	e8 00 00 00 00	 call	 ?process_assert@@YGXPBD0H@Z ; process_assert
  00991	c7 45 88 00 00
	00 00		 mov	 DWORD PTR tv470[ebp], 0
$LN98@mobile_che:
  00998	6a 19		 push	 25			; 00000019H
  0099a	8b 4d fc	 mov	 ecx, DWORD PTR _group$[ebp]
  0099d	51		 push	 ecx
  0099e	69 55 8c b4 00
	00 00		 imul	 edx, DWORD PTR tv462[ebp], 180
  009a5	8b 45 88	 mov	 eax, DWORD PTR tv470[ebp]
  009a8	8b 8c 82 00 00
	00 00		 mov	 ecx, DWORD PTR ?fn_get_local_entity_first_child@@3PAY0CN@P6GPAUENTITY@@PAU1@W4LIST_TYPES@@@ZA[edx+eax*4]
  009af	ff d1		 call	 ecx
  009b1	89 45 f4	 mov	 DWORD PTR _member$[ebp], eax
$LN6@mobile_che:

; 833  : 
; 834  : 		while (member)

  009b4	83 7d f4 00	 cmp	 DWORD PTR _member$[ebp], 0
  009b8	0f 84 d5 02 00
	00		 je	 $LN7@mobile_che

; 835  : 		{
; 836  : 			//
; 837  : 			// remove from takeoff task (assumes mobile is the only guide follower) 
; 838  : 			//
; 839  : 
; 840  : 			current_guide = get_local_entity_parent (member, LIST_TYPE_FOLLOWER);

  009be	83 7d f4 00	 cmp	 DWORD PTR _member$[ebp], 0
  009c2	74 0a		 je	 SHORT $LN99@mobile_che
  009c4	8b 45 f4	 mov	 eax, DWORD PTR _member$[ebp]
  009c7	8b 08		 mov	 ecx, DWORD PTR [eax]
  009c9	89 4d 8c	 mov	 DWORD PTR tv483[ebp], ecx
  009cc	eb 24		 jmp	 SHORT $LN100@mobile_che
$LN99@mobile_che:
  009ce	8b 15 00 00 00
	00		 mov	 edx, DWORD PTR ?__LINE__Var@?0??mobile_check_all_members_taken_off@@YGHPAUENTITY@@@Z@4JA
  009d4	81 c2 8a 00 00
	00		 add	 edx, 138		; 0000008aH
  009da	52		 push	 edx
  009db	68 00 00 00 00	 push	 OFFSET ??_C@_0ED@JCPIACOE@c?3?2users?2nhv90?2projects?2eech?2ap@
  009e0	a1 00 00 00 00	 mov	 eax, DWORD PTR ?null_entity_pointer_message@@3PBDB ; null_entity_pointer_message
  009e5	50		 push	 eax
  009e6	e8 00 00 00 00	 call	 ?process_assert@@YGXPBD0H@Z ; process_assert
  009eb	c7 45 8c 00 00
	00 00		 mov	 DWORD PTR tv483[ebp], 0
$LN100@mobile_che:
  009f2	b9 01 00 00 00	 mov	 ecx, 1
  009f7	85 c9		 test	 ecx, ecx
  009f9	74 09		 je	 SHORT $LN101@mobile_che
  009fb	c7 45 88 0d 00
	00 00		 mov	 DWORD PTR tv491[ebp], 13 ; 0000000dH
  00a02	eb 24		 jmp	 SHORT $LN102@mobile_che
$LN101@mobile_che:
  00a04	8b 15 00 00 00
	00		 mov	 edx, DWORD PTR ?__LINE__Var@?0??mobile_check_all_members_taken_off@@YGHPAUENTITY@@@Z@4JA
  00a0a	81 c2 8a 00 00
	00		 add	 edx, 138		; 0000008aH
  00a10	52		 push	 edx
  00a11	68 00 00 00 00	 push	 OFFSET ??_C@_0ED@JCPIACOE@c?3?2users?2nhv90?2projects?2eech?2ap@
  00a16	a1 00 00 00 00	 mov	 eax, DWORD PTR ?overload_invalid_list_type_message@@3PBDB ; overload_invalid_list_type_message
  00a1b	50		 push	 eax
  00a1c	e8 00 00 00 00	 call	 ?process_assert@@YGXPBD0H@Z ; process_assert
  00a21	c7 45 88 00 00
	00 00		 mov	 DWORD PTR tv491[ebp], 0
$LN102@mobile_che:
  00a28	6a 0d		 push	 13			; 0000000dH
  00a2a	8b 4d f4	 mov	 ecx, DWORD PTR _member$[ebp]
  00a2d	51		 push	 ecx
  00a2e	69 55 8c b4 00
	00 00		 imul	 edx, DWORD PTR tv483[ebp], 180
  00a35	8b 45 88	 mov	 eax, DWORD PTR tv491[ebp]
  00a38	8b 8c 82 00 00
	00 00		 mov	 ecx, DWORD PTR ?fn_get_local_entity_parent@@3PAY0CN@P6GPAUENTITY@@PAU1@W4LIST_TYPES@@@ZA[edx+eax*4]
  00a3f	ff d1		 call	 ecx
  00a41	89 45 e0	 mov	 DWORD PTR _current_guide$[ebp], eax

; 841  : 
; 842  : 			ASSERT (current_guide);

  00a44	83 7d e0 00	 cmp	 DWORD PTR _current_guide$[ebp], 0
  00a48	75 1a		 jne	 SHORT $LN25@mobile_che
  00a4a	a1 00 00 00 00	 mov	 eax, DWORD PTR ?__LINE__Var@?0??mobile_check_all_members_taken_off@@YGHPAUENTITY@@@Z@4JA
  00a4f	05 8c 00 00 00	 add	 eax, 140		; 0000008cH
  00a54	50		 push	 eax
  00a55	68 00 00 00 00	 push	 OFFSET ??_C@_0ED@JCPIACOE@c?3?2users?2nhv90?2projects?2eech?2ap@
  00a5a	68 00 00 00 00	 push	 OFFSET ??_C@_0O@HMENJAPI@current_guide@
  00a5f	e8 00 00 00 00	 call	 ?process_assert@@YGXPBD0H@Z ; process_assert
$LN25@mobile_che:

; 843  : 
; 844  : 			if (current_guide == new_guide)

  00a64	8b 45 e0	 mov	 eax, DWORD PTR _current_guide$[ebp]
  00a67	3b 45 e8	 cmp	 eax, DWORD PTR _new_guide$[ebp]
  00a6a	0f 85 8b 00 00
	00		 jne	 $LN26@mobile_che

; 845  : 			{
; 846  : 				member = get_local_entity_child_succ (member, LIST_TYPE_MEMBER);

  00a70	83 7d f4 00	 cmp	 DWORD PTR _member$[ebp], 0
  00a74	74 0a		 je	 SHORT $LN103@mobile_che
  00a76	8b 45 f4	 mov	 eax, DWORD PTR _member$[ebp]
  00a79	8b 08		 mov	 ecx, DWORD PTR [eax]
  00a7b	89 4d 8c	 mov	 DWORD PTR tv509[ebp], ecx
  00a7e	eb 24		 jmp	 SHORT $LN104@mobile_che
$LN103@mobile_che:
  00a80	8b 15 00 00 00
	00		 mov	 edx, DWORD PTR ?__LINE__Var@?0??mobile_check_all_members_taken_off@@YGHPAUENTITY@@@Z@4JA
  00a86	81 c2 90 00 00
	00		 add	 edx, 144		; 00000090H
  00a8c	52		 push	 edx
  00a8d	68 00 00 00 00	 push	 OFFSET ??_C@_0ED@JCPIACOE@c?3?2users?2nhv90?2projects?2eech?2ap@
  00a92	a1 00 00 00 00	 mov	 eax, DWORD PTR ?null_entity_pointer_message@@3PBDB ; null_entity_pointer_message
  00a97	50		 push	 eax
  00a98	e8 00 00 00 00	 call	 ?process_assert@@YGXPBD0H@Z ; process_assert
  00a9d	c7 45 8c 00 00
	00 00		 mov	 DWORD PTR tv509[ebp], 0
$LN104@mobile_che:
  00aa4	b9 01 00 00 00	 mov	 ecx, 1
  00aa9	85 c9		 test	 ecx, ecx
  00aab	74 09		 je	 SHORT $LN105@mobile_che
  00aad	c7 45 88 19 00
	00 00		 mov	 DWORD PTR tv517[ebp], 25 ; 00000019H
  00ab4	eb 24		 jmp	 SHORT $LN106@mobile_che
$LN105@mobile_che:
  00ab6	8b 15 00 00 00
	00		 mov	 edx, DWORD PTR ?__LINE__Var@?0??mobile_check_all_members_taken_off@@YGHPAUENTITY@@@Z@4JA
  00abc	81 c2 90 00 00
	00		 add	 edx, 144		; 00000090H
  00ac2	52		 push	 edx
  00ac3	68 00 00 00 00	 push	 OFFSET ??_C@_0ED@JCPIACOE@c?3?2users?2nhv90?2projects?2eech?2ap@
  00ac8	a1 00 00 00 00	 mov	 eax, DWORD PTR ?overload_invalid_list_type_message@@3PBDB ; overload_invalid_list_type_message
  00acd	50		 push	 eax
  00ace	e8 00 00 00 00	 call	 ?process_assert@@YGXPBD0H@Z ; process_assert
  00ad3	c7 45 88 00 00
	00 00		 mov	 DWORD PTR tv517[ebp], 0
$LN106@mobile_che:
  00ada	6a 19		 push	 25			; 00000019H
  00adc	8b 4d f4	 mov	 ecx, DWORD PTR _member$[ebp]
  00adf	51		 push	 ecx
  00ae0	69 55 8c b4 00
	00 00		 imul	 edx, DWORD PTR tv509[ebp], 180
  00ae7	8b 45 88	 mov	 eax, DWORD PTR tv517[ebp]
  00aea	8b 8c 82 00 00
	00 00		 mov	 ecx, DWORD PTR ?fn_get_local_entity_child_succ@@3PAY0CN@P6GPAUENTITY@@PAU1@W4LIST_TYPES@@@ZA[edx+eax*4]
  00af1	ff d1		 call	 ecx
  00af3	89 45 f4	 mov	 DWORD PTR _member$[ebp], eax

; 847  : 				continue;

  00af6	e9 b9 fe ff ff	 jmp	 $LN6@mobile_che
$LN26@mobile_che:

; 848  : 			}
; 849  : 
; 850  : 			ASSERT (current_guide != new_guide);

  00afb	8b 45 e0	 mov	 eax, DWORD PTR _current_guide$[ebp]
  00afe	3b 45 e8	 cmp	 eax, DWORD PTR _new_guide$[ebp]
  00b01	75 1a		 jne	 SHORT $LN27@mobile_che
  00b03	a1 00 00 00 00	 mov	 eax, DWORD PTR ?__LINE__Var@?0??mobile_check_all_members_taken_off@@YGHPAUENTITY@@@Z@4JA
  00b08	05 94 00 00 00	 add	 eax, 148		; 00000094H
  00b0d	50		 push	 eax
  00b0e	68 00 00 00 00	 push	 OFFSET ??_C@_0ED@JCPIACOE@c?3?2users?2nhv90?2projects?2eech?2ap@
  00b13	68 00 00 00 00	 push	 OFFSET ??_C@_0BL@ONBGIOLM@current_guide?5?$CB?$DN?5new_guide@
  00b18	e8 00 00 00 00	 call	 ?process_assert@@YGXPBD0H@Z ; process_assert
$LN27@mobile_che:

; 851  : 
; 852  : 			destroy_client_server_entity (current_guide);

  00b1d	83 7d e0 00	 cmp	 DWORD PTR _current_guide$[ebp], 0
  00b21	74 0a		 je	 SHORT $LN107@mobile_che
  00b23	8b 45 e0	 mov	 eax, DWORD PTR _current_guide$[ebp]
  00b26	8b 08		 mov	 ecx, DWORD PTR [eax]
  00b28	89 4d 8c	 mov	 DWORD PTR tv534[ebp], ecx
  00b2b	eb 24		 jmp	 SHORT $LN108@mobile_che
$LN107@mobile_che:
  00b2d	8b 15 00 00 00
	00		 mov	 edx, DWORD PTR ?__LINE__Var@?0??mobile_check_all_members_taken_off@@YGHPAUENTITY@@@Z@4JA
  00b33	81 c2 96 00 00
	00		 add	 edx, 150		; 00000096H
  00b39	52		 push	 edx
  00b3a	68 00 00 00 00	 push	 OFFSET ??_C@_0ED@JCPIACOE@c?3?2users?2nhv90?2projects?2eech?2ap@
  00b3f	a1 00 00 00 00	 mov	 eax, DWORD PTR ?null_entity_pointer_message@@3PBDB ; null_entity_pointer_message
  00b44	50		 push	 eax
  00b45	e8 00 00 00 00	 call	 ?process_assert@@YGXPBD0H@Z ; process_assert
  00b4a	c7 45 8c 00 00
	00 00		 mov	 DWORD PTR tv534[ebp], 0
$LN108@mobile_che:
  00b51	8b 4d e0	 mov	 ecx, DWORD PTR _current_guide$[ebp]
  00b54	51		 push	 ecx
  00b55	8b 15 00 00 00
	00		 mov	 edx, DWORD PTR ?system_comms_model@@3W4COMMS_MODEL_TYPES@@A ; system_comms_model
  00b5b	c1 e2 02	 shl	 edx, 2
  00b5e	8b 45 8c	 mov	 eax, DWORD PTR tv534[ebp]
  00b61	8b 8c c2 00 00
	00 00		 mov	 ecx, DWORD PTR ?fn_destroy_client_server_entity@@3PAY01P6GXPAUENTITY@@@ZA[edx+eax*8]
  00b68	ff d1		 call	 ecx

; 853  : 
; 854  : 			#if DEBUG_MODULE
; 855  : 
; 856  : 			debug_log ("MOBILE: moving member %s (%d) onto task waypoint list", get_local_entity_string (member, STRING_TYPE_FULL_NAME), get_local_entity_index (member));
; 857  : 
; 858  : 			#endif
; 859  : 
; 860  : 			attach_group_member_to_guide_entity (member, new_guide);

  00b6a	8b 45 e8	 mov	 eax, DWORD PTR _new_guide$[ebp]
  00b6d	50		 push	 eax
  00b6e	8b 4d f4	 mov	 ecx, DWORD PTR _member$[ebp]
  00b71	51		 push	 ecx
  00b72	e8 00 00 00 00	 call	 ?attach_group_member_to_guide_entity@@YGXPAUENTITY@@0@Z ; attach_group_member_to_guide_entity

; 861  : 
; 862  : 			set_client_server_entity_int_value (member, INT_TYPE_OPERATIONAL_STATE, OPERATIONAL_STATE_NAVIGATING);

  00b77	83 7d f4 00	 cmp	 DWORD PTR _member$[ebp], 0
  00b7b	74 0a		 je	 SHORT $LN109@mobile_che
  00b7d	8b 45 f4	 mov	 eax, DWORD PTR _member$[ebp]
  00b80	8b 08		 mov	 ecx, DWORD PTR [eax]
  00b82	89 4d 8c	 mov	 DWORD PTR tv548[ebp], ecx
  00b85	eb 24		 jmp	 SHORT $LN110@mobile_che
$LN109@mobile_che:
  00b87	8b 15 00 00 00
	00		 mov	 edx, DWORD PTR ?__LINE__Var@?0??mobile_check_all_members_taken_off@@YGHPAUENTITY@@@Z@4JA
  00b8d	81 c2 a0 00 00
	00		 add	 edx, 160		; 000000a0H
  00b93	52		 push	 edx
  00b94	68 00 00 00 00	 push	 OFFSET ??_C@_0ED@JCPIACOE@c?3?2users?2nhv90?2projects?2eech?2ap@
  00b99	a1 00 00 00 00	 mov	 eax, DWORD PTR ?null_entity_pointer_message@@3PBDB ; null_entity_pointer_message
  00b9e	50		 push	 eax
  00b9f	e8 00 00 00 00	 call	 ?process_assert@@YGXPBD0H@Z ; process_assert
  00ba4	c7 45 8c 00 00
	00 00		 mov	 DWORD PTR tv548[ebp], 0
$LN110@mobile_che:
  00bab	b9 01 00 00 00	 mov	 ecx, 1
  00bb0	85 c9		 test	 ecx, ecx
  00bb2	74 09		 je	 SHORT $LN111@mobile_che
  00bb4	c7 45 88 97 00
	00 00		 mov	 DWORD PTR tv556[ebp], 151 ; 00000097H
  00bbb	eb 24		 jmp	 SHORT $LN112@mobile_che
$LN111@mobile_che:
  00bbd	8b 15 00 00 00
	00		 mov	 edx, DWORD PTR ?__LINE__Var@?0??mobile_check_all_members_taken_off@@YGHPAUENTITY@@@Z@4JA
  00bc3	81 c2 a0 00 00
	00		 add	 edx, 160		; 000000a0H
  00bc9	52		 push	 edx
  00bca	68 00 00 00 00	 push	 OFFSET ??_C@_0ED@JCPIACOE@c?3?2users?2nhv90?2projects?2eech?2ap@
  00bcf	a1 00 00 00 00	 mov	 eax, DWORD PTR ?overload_invalid_int_type_message@@3PBDB ; overload_invalid_int_type_message
  00bd4	50		 push	 eax
  00bd5	e8 00 00 00 00	 call	 ?process_assert@@YGXPBD0H@Z ; process_assert
  00bda	c7 45 88 00 00
	00 00		 mov	 DWORD PTR tv556[ebp], 0
$LN112@mobile_che:
  00be1	6a 07		 push	 7
  00be3	68 97 00 00 00	 push	 151			; 00000097H
  00be8	8b 4d f4	 mov	 ecx, DWORD PTR _member$[ebp]
  00beb	51		 push	 ecx
  00bec	69 55 8c b8 08
	00 00		 imul	 edx, DWORD PTR tv548[ebp], 2232
  00bf3	8b 45 88	 mov	 eax, DWORD PTR tv556[ebp]
  00bf6	8d 8c c2 00 00
	00 00		 lea	 ecx, DWORD PTR ?fn_set_client_server_entity_int_value@@3PAY1BBH@1P6GXPAUENTITY@@W4INT_TYPES@@H@ZA[edx+eax*8]
  00bfd	8b 15 00 00 00
	00		 mov	 edx, DWORD PTR ?system_comms_model@@3W4COMMS_MODEL_TYPES@@A ; system_comms_model
  00c03	8b 04 91	 mov	 eax, DWORD PTR [ecx+edx*4]
  00c06	ff d0		 call	 eax

; 863  : 
; 864  : 			/////////////////////////////////////////////////////////////////
; 865  : 			//
; 866  : 			// SPECIAL_EFFECT_HOOK FOR COMPLETED TAKEOFF AND ENTERING NAVIGATING MODE
; 867  : 			//
; 868  : 			/////////////////////////////////////////////////////////////////
; 869  : 
; 870  : 			/////////////////////////////////////////////////////////////////
; 871  : 			//
; 872  : 			//
; 873  : 			/////////////////////////////////////////////////////////////////
; 874  : 
; 875  : 			member = get_local_entity_child_succ (member, LIST_TYPE_MEMBER);

  00c08	83 7d f4 00	 cmp	 DWORD PTR _member$[ebp], 0
  00c0c	74 0a		 je	 SHORT $LN113@mobile_che
  00c0e	8b 45 f4	 mov	 eax, DWORD PTR _member$[ebp]
  00c11	8b 08		 mov	 ecx, DWORD PTR [eax]
  00c13	89 4d 8c	 mov	 DWORD PTR tv570[ebp], ecx
  00c16	eb 24		 jmp	 SHORT $LN114@mobile_che
$LN113@mobile_che:
  00c18	8b 15 00 00 00
	00		 mov	 edx, DWORD PTR ?__LINE__Var@?0??mobile_check_all_members_taken_off@@YGHPAUENTITY@@@Z@4JA
  00c1e	81 c2 ad 00 00
	00		 add	 edx, 173		; 000000adH
  00c24	52		 push	 edx
  00c25	68 00 00 00 00	 push	 OFFSET ??_C@_0ED@JCPIACOE@c?3?2users?2nhv90?2projects?2eech?2ap@
  00c2a	a1 00 00 00 00	 mov	 eax, DWORD PTR ?null_entity_pointer_message@@3PBDB ; null_entity_pointer_message
  00c2f	50		 push	 eax
  00c30	e8 00 00 00 00	 call	 ?process_assert@@YGXPBD0H@Z ; process_assert
  00c35	c7 45 8c 00 00
	00 00		 mov	 DWORD PTR tv570[ebp], 0
$LN114@mobile_che:
  00c3c	b9 01 00 00 00	 mov	 ecx, 1
  00c41	85 c9		 test	 ecx, ecx
  00c43	74 09		 je	 SHORT $LN115@mobile_che
  00c45	c7 45 88 19 00
	00 00		 mov	 DWORD PTR tv578[ebp], 25 ; 00000019H
  00c4c	eb 24		 jmp	 SHORT $LN116@mobile_che
$LN115@mobile_che:
  00c4e	8b 15 00 00 00
	00		 mov	 edx, DWORD PTR ?__LINE__Var@?0??mobile_check_all_members_taken_off@@YGHPAUENTITY@@@Z@4JA
  00c54	81 c2 ad 00 00
	00		 add	 edx, 173		; 000000adH
  00c5a	52		 push	 edx
  00c5b	68 00 00 00 00	 push	 OFFSET ??_C@_0ED@JCPIACOE@c?3?2users?2nhv90?2projects?2eech?2ap@
  00c60	a1 00 00 00 00	 mov	 eax, DWORD PTR ?overload_invalid_list_type_message@@3PBDB ; overload_invalid_list_type_message
  00c65	50		 push	 eax
  00c66	e8 00 00 00 00	 call	 ?process_assert@@YGXPBD0H@Z ; process_assert
  00c6b	c7 45 88 00 00
	00 00		 mov	 DWORD PTR tv578[ebp], 0
$LN116@mobile_che:
  00c72	6a 19		 push	 25			; 00000019H
  00c74	8b 4d f4	 mov	 ecx, DWORD PTR _member$[ebp]
  00c77	51		 push	 ecx
  00c78	69 55 8c b4 00
	00 00		 imul	 edx, DWORD PTR tv570[ebp], 180
  00c7f	8b 45 88	 mov	 eax, DWORD PTR tv578[ebp]
  00c82	8b 8c 82 00 00
	00 00		 mov	 ecx, DWORD PTR ?fn_get_local_entity_child_succ@@3PAY0CN@P6GPAUENTITY@@PAU1@W4LIST_TYPES@@@ZA[edx+eax*4]
  00c89	ff d1		 call	 ecx
  00c8b	89 45 f4	 mov	 DWORD PTR _member$[ebp], eax

; 876  : 		}

  00c8e	e9 21 fd ff ff	 jmp	 $LN6@mobile_che
$LN7@mobile_che:

; 877  : 	}
; 878  : 	else

  00c93	e9 da 01 00 00	 jmp	 $LN18@mobile_che
$LN17@mobile_che:

; 879  : 	{
; 880  : 		//
; 881  : 		// place member into holding route
; 882  : 		//
; 883  : 
; 884  : 		#if DEBUG_MODULE
; 885  : 
; 886  : 		debug_log ("MOBILE: placing member %s (%d) into holding route", get_local_entity_string (en, STRING_TYPE_FULL_NAME), get_local_entity_index (en));
; 887  : 
; 888  : 		#endif
; 889  : 
; 890  : 		//
; 891  : 		// remove from takeoff task (assumes mobile is the only guide follower) 
; 892  : 		//
; 893  : 
; 894  : 		current_guide = get_local_entity_parent (en, LIST_TYPE_FOLLOWER);

  00c98	83 7d 08 00	 cmp	 DWORD PTR _en$[ebp], 0
  00c9c	74 0a		 je	 SHORT $LN117@mobile_che
  00c9e	8b 45 08	 mov	 eax, DWORD PTR _en$[ebp]
  00ca1	8b 08		 mov	 ecx, DWORD PTR [eax]
  00ca3	89 4d 8c	 mov	 DWORD PTR tv590[ebp], ecx
  00ca6	eb 24		 jmp	 SHORT $LN118@mobile_che
$LN117@mobile_che:
  00ca8	8b 15 00 00 00
	00		 mov	 edx, DWORD PTR ?__LINE__Var@?0??mobile_check_all_members_taken_off@@YGHPAUENTITY@@@Z@4JA
  00cae	81 c2 c0 00 00
	00		 add	 edx, 192		; 000000c0H
  00cb4	52		 push	 edx
  00cb5	68 00 00 00 00	 push	 OFFSET ??_C@_0ED@JCPIACOE@c?3?2users?2nhv90?2projects?2eech?2ap@
  00cba	a1 00 00 00 00	 mov	 eax, DWORD PTR ?null_entity_pointer_message@@3PBDB ; null_entity_pointer_message
  00cbf	50		 push	 eax
  00cc0	e8 00 00 00 00	 call	 ?process_assert@@YGXPBD0H@Z ; process_assert
  00cc5	c7 45 8c 00 00
	00 00		 mov	 DWORD PTR tv590[ebp], 0
$LN118@mobile_che:
  00ccc	b9 01 00 00 00	 mov	 ecx, 1
  00cd1	85 c9		 test	 ecx, ecx
  00cd3	74 09		 je	 SHORT $LN119@mobile_che
  00cd5	c7 45 88 0d 00
	00 00		 mov	 DWORD PTR tv598[ebp], 13 ; 0000000dH
  00cdc	eb 24		 jmp	 SHORT $LN120@mobile_che
$LN119@mobile_che:
  00cde	8b 15 00 00 00
	00		 mov	 edx, DWORD PTR ?__LINE__Var@?0??mobile_check_all_members_taken_off@@YGHPAUENTITY@@@Z@4JA
  00ce4	81 c2 c0 00 00
	00		 add	 edx, 192		; 000000c0H
  00cea	52		 push	 edx
  00ceb	68 00 00 00 00	 push	 OFFSET ??_C@_0ED@JCPIACOE@c?3?2users?2nhv90?2projects?2eech?2ap@
  00cf0	a1 00 00 00 00	 mov	 eax, DWORD PTR ?overload_invalid_list_type_message@@3PBDB ; overload_invalid_list_type_message
  00cf5	50		 push	 eax
  00cf6	e8 00 00 00 00	 call	 ?process_assert@@YGXPBD0H@Z ; process_assert
  00cfb	c7 45 88 00 00
	00 00		 mov	 DWORD PTR tv598[ebp], 0
$LN120@mobile_che:
  00d02	6a 0d		 push	 13			; 0000000dH
  00d04	8b 4d 08	 mov	 ecx, DWORD PTR _en$[ebp]
  00d07	51		 push	 ecx
  00d08	69 55 8c b4 00
	00 00		 imul	 edx, DWORD PTR tv590[ebp], 180
  00d0f	8b 45 88	 mov	 eax, DWORD PTR tv598[ebp]
  00d12	8b 8c 82 00 00
	00 00		 mov	 ecx, DWORD PTR ?fn_get_local_entity_parent@@3PAY0CN@P6GPAUENTITY@@PAU1@W4LIST_TYPES@@@ZA[edx+eax*4]
  00d19	ff d1		 call	 ecx
  00d1b	89 45 e0	 mov	 DWORD PTR _current_guide$[ebp], eax

; 895  : 
; 896  : 		ASSERT (current_guide);

  00d1e	83 7d e0 00	 cmp	 DWORD PTR _current_guide$[ebp], 0
  00d22	75 1a		 jne	 SHORT $LN28@mobile_che
  00d24	a1 00 00 00 00	 mov	 eax, DWORD PTR ?__LINE__Var@?0??mobile_check_all_members_taken_off@@YGHPAUENTITY@@@Z@4JA
  00d29	05 c2 00 00 00	 add	 eax, 194		; 000000c2H
  00d2e	50		 push	 eax
  00d2f	68 00 00 00 00	 push	 OFFSET ??_C@_0ED@JCPIACOE@c?3?2users?2nhv90?2projects?2eech?2ap@
  00d34	68 00 00 00 00	 push	 OFFSET ??_C@_0O@HMENJAPI@current_guide@
  00d39	e8 00 00 00 00	 call	 ?process_assert@@YGXPBD0H@Z ; process_assert
$LN28@mobile_che:

; 897  : 
; 898  : 		destroy_client_server_entity (current_guide);

  00d3e	83 7d e0 00	 cmp	 DWORD PTR _current_guide$[ebp], 0
  00d42	74 0a		 je	 SHORT $LN121@mobile_che
  00d44	8b 45 e0	 mov	 eax, DWORD PTR _current_guide$[ebp]
  00d47	8b 08		 mov	 ecx, DWORD PTR [eax]
  00d49	89 4d 8c	 mov	 DWORD PTR tv615[ebp], ecx
  00d4c	eb 24		 jmp	 SHORT $LN122@mobile_che
$LN121@mobile_che:
  00d4e	8b 15 00 00 00
	00		 mov	 edx, DWORD PTR ?__LINE__Var@?0??mobile_check_all_members_taken_off@@YGHPAUENTITY@@@Z@4JA
  00d54	81 c2 c4 00 00
	00		 add	 edx, 196		; 000000c4H
  00d5a	52		 push	 edx
  00d5b	68 00 00 00 00	 push	 OFFSET ??_C@_0ED@JCPIACOE@c?3?2users?2nhv90?2projects?2eech?2ap@
  00d60	a1 00 00 00 00	 mov	 eax, DWORD PTR ?null_entity_pointer_message@@3PBDB ; null_entity_pointer_message
  00d65	50		 push	 eax
  00d66	e8 00 00 00 00	 call	 ?process_assert@@YGXPBD0H@Z ; process_assert
  00d6b	c7 45 8c 00 00
	00 00		 mov	 DWORD PTR tv615[ebp], 0
$LN122@mobile_che:
  00d72	8b 4d e0	 mov	 ecx, DWORD PTR _current_guide$[ebp]
  00d75	51		 push	 ecx
  00d76	8b 15 00 00 00
	00		 mov	 edx, DWORD PTR ?system_comms_model@@3W4COMMS_MODEL_TYPES@@A ; system_comms_model
  00d7c	c1 e2 02	 shl	 edx, 2
  00d7f	8b 45 8c	 mov	 eax, DWORD PTR tv615[ebp]
  00d82	8b 8c c2 00 00
	00 00		 mov	 ecx, DWORD PTR ?fn_destroy_client_server_entity@@3PAY01P6GXPAUENTITY@@@ZA[edx+eax*8]
  00d89	ff d1		 call	 ecx

; 899  : 
; 900  : 		//
; 901  : 		// find holding task
; 902  : 		//
; 903  : 
; 904  : 		task = get_local_landing_entity_task (landing_en, ENTITY_SUB_TYPE_TASK_TAKEOFF_HOLDING);

  00d8b	6a 17		 push	 23			; 00000017H
  00d8d	8b 45 dc	 mov	 eax, DWORD PTR _landing_en$[ebp]
  00d90	50		 push	 eax
  00d91	e8 00 00 00 00	 call	 ?get_local_landing_entity_task@@YGPAUENTITY@@PAU1@H@Z ; get_local_landing_entity_task
  00d96	89 45 e4	 mov	 DWORD PTR _task$[ebp], eax

; 905  : 
; 906  : 		ASSERT (task);

  00d99	83 7d e4 00	 cmp	 DWORD PTR _task$[ebp], 0
  00d9d	75 1a		 jne	 SHORT $LN29@mobile_che
  00d9f	a1 00 00 00 00	 mov	 eax, DWORD PTR ?__LINE__Var@?0??mobile_check_all_members_taken_off@@YGHPAUENTITY@@@Z@4JA
  00da4	05 cc 00 00 00	 add	 eax, 204		; 000000ccH
  00da9	50		 push	 eax
  00daa	68 00 00 00 00	 push	 OFFSET ??_C@_0ED@JCPIACOE@c?3?2users?2nhv90?2projects?2eech?2ap@
  00daf	68 00 00 00 00	 push	 OFFSET ??_C@_04GGKLLKOO@task@
  00db4	e8 00 00 00 00	 call	 ?process_assert@@YGXPBD0H@Z ; process_assert
$LN29@mobile_che:

; 907  : 
; 908  : 		member_number = get_local_entity_int_value (en, INT_TYPE_GROUP_MEMBER_NUMBER);

  00db9	83 7d 08 00	 cmp	 DWORD PTR _en$[ebp], 0
  00dbd	74 0a		 je	 SHORT $LN123@mobile_che
  00dbf	8b 45 08	 mov	 eax, DWORD PTR _en$[ebp]
  00dc2	8b 08		 mov	 ecx, DWORD PTR [eax]
  00dc4	89 4d 8c	 mov	 DWORD PTR tv635[ebp], ecx
  00dc7	eb 24		 jmp	 SHORT $LN124@mobile_che
$LN123@mobile_che:
  00dc9	8b 15 00 00 00
	00		 mov	 edx, DWORD PTR ?__LINE__Var@?0??mobile_check_all_members_taken_off@@YGHPAUENTITY@@@Z@4JA
  00dcf	81 c2 ce 00 00
	00		 add	 edx, 206		; 000000ceH
  00dd5	52		 push	 edx
  00dd6	68 00 00 00 00	 push	 OFFSET ??_C@_0ED@JCPIACOE@c?3?2users?2nhv90?2projects?2eech?2ap@
  00ddb	a1 00 00 00 00	 mov	 eax, DWORD PTR ?null_entity_pointer_message@@3PBDB ; null_entity_pointer_message
  00de0	50		 push	 eax
  00de1	e8 00 00 00 00	 call	 ?process_assert@@YGXPBD0H@Z ; process_assert
  00de6	c7 45 8c 00 00
	00 00		 mov	 DWORD PTR tv635[ebp], 0
$LN124@mobile_che:
  00ded	b9 01 00 00 00	 mov	 ecx, 1
  00df2	85 c9		 test	 ecx, ecx
  00df4	74 09		 je	 SHORT $LN125@mobile_che
  00df6	c7 45 88 4b 00
	00 00		 mov	 DWORD PTR tv643[ebp], 75 ; 0000004bH
  00dfd	eb 24		 jmp	 SHORT $LN126@mobile_che
$LN125@mobile_che:
  00dff	8b 15 00 00 00
	00		 mov	 edx, DWORD PTR ?__LINE__Var@?0??mobile_check_all_members_taken_off@@YGHPAUENTITY@@@Z@4JA
  00e05	81 c2 ce 00 00
	00		 add	 edx, 206		; 000000ceH
  00e0b	52		 push	 edx
  00e0c	68 00 00 00 00	 push	 OFFSET ??_C@_0ED@JCPIACOE@c?3?2users?2nhv90?2projects?2eech?2ap@
  00e11	a1 00 00 00 00	 mov	 eax, DWORD PTR ?overload_invalid_int_type_message@@3PBDB ; overload_invalid_int_type_message
  00e16	50		 push	 eax
  00e17	e8 00 00 00 00	 call	 ?process_assert@@YGXPBD0H@Z ; process_assert
  00e1c	c7 45 88 00 00
	00 00		 mov	 DWORD PTR tv643[ebp], 0
$LN126@mobile_che:
  00e23	6a 4b		 push	 75			; 0000004bH
  00e25	8b 4d 08	 mov	 ecx, DWORD PTR _en$[ebp]
  00e28	51		 push	 ecx
  00e29	69 55 8c 5c 04
	00 00		 imul	 edx, DWORD PTR tv635[ebp], 1116
  00e30	8b 45 88	 mov	 eax, DWORD PTR tv643[ebp]
  00e33	8b 8c 82 00 00
	00 00		 mov	 ecx, DWORD PTR ?fn_get_local_entity_int_value@@3PAY0BBH@P6GHPAUENTITY@@W4INT_TYPES@@@ZA[edx+eax*4]
  00e3a	ff d1		 call	 ecx
  00e3c	89 45 d4	 mov	 DWORD PTR _member_number$[ebp], eax

; 909  : 
; 910  : 		new_guide = create_client_server_guide_entity (task, NULL, (1 << member_number));

  00e3f	b8 01 00 00 00	 mov	 eax, 1
  00e44	8b 4d d4	 mov	 ecx, DWORD PTR _member_number$[ebp]
  00e47	d3 e0		 shl	 eax, cl
  00e49	50		 push	 eax
  00e4a	6a 00		 push	 0
  00e4c	8b 4d e4	 mov	 ecx, DWORD PTR _task$[ebp]
  00e4f	51		 push	 ecx
  00e50	e8 00 00 00 00	 call	 ?create_client_server_guide_entity@@YGPAUENTITY@@PAU1@0I@Z ; create_client_server_guide_entity
  00e55	89 45 e8	 mov	 DWORD PTR _new_guide$[ebp], eax

; 911  : 
; 912  : 		attach_group_to_guide_entity (group, new_guide);

  00e58	8b 45 e8	 mov	 eax, DWORD PTR _new_guide$[ebp]
  00e5b	50		 push	 eax
  00e5c	8b 4d fc	 mov	 ecx, DWORD PTR _group$[ebp]
  00e5f	51		 push	 ecx
  00e60	e8 00 00 00 00	 call	 ?attach_group_to_guide_entity@@YGXPAUENTITY@@0@Z ; attach_group_to_guide_entity

; 913  : 
; 914  : 		attach_group_member_to_guide_entity (en, new_guide);

  00e65	8b 45 e8	 mov	 eax, DWORD PTR _new_guide$[ebp]
  00e68	50		 push	 eax
  00e69	8b 4d 08	 mov	 ecx, DWORD PTR _en$[ebp]
  00e6c	51		 push	 ecx
  00e6d	e8 00 00 00 00	 call	 ?attach_group_member_to_guide_entity@@YGXPAUENTITY@@0@Z ; attach_group_member_to_guide_entity
$LN18@mobile_che:

; 915  : 	}
; 916  : 
; 917  : 	return takeoff_flag;

  00e72	8b 45 d0	 mov	 eax, DWORD PTR _takeoff_flag$[ebp]

; 918  : }

  00e75	5f		 pop	 edi
  00e76	5e		 pop	 esi
  00e77	5b		 pop	 ebx
  00e78	8b e5		 mov	 esp, ebp
  00e7a	5d		 pop	 ebp
  00e7b	c2 04 00	 ret	 4
?mobile_check_all_members_taken_off@@YGHPAUENTITY@@@Z ENDP ; mobile_check_all_members_taken_off
_TEXT	ENDS
; Function compile flags: /Odtp /ZI
; File c:\users\nhv90\projects\eech\aphavoc\source\entity\mobile\mobile.c
;	COMDAT ?insert_mobile_into_takeoff_route@@YGHPAUENTITY@@0@Z
_TEXT	SEGMENT
tv316 = -92						; size = 4
tv291 = -92						; size = 4
tv270 = -92						; size = 4
tv250 = -92						; size = 4
tv228 = -92						; size = 4
tv206 = -92						; size = 4
tv191 = -92						; size = 4
tv166 = -92						; size = 4
tv93 = -92						; size = 4
tv331 = -88						; size = 4
tv308 = -88						; size = 4
tv283 = -88						; size = 4
tv263 = -88						; size = 4
tv242 = -88						; size = 4
tv220 = -88						; size = 4
tv198 = -88						; size = 4
tv190 = -88						; size = 4
tv158 = -88						; size = 4
tv85 = -88						; size = 4
_member_number$ = -20					; size = 4
_route_wp$ = -16					; size = 4
_group$ = -12						; size = 4
_guide$ = -8						; size = 4
_task$ = -4						; size = 4
_member$ = 8						; size = 4
_landing_entity$ = 12					; size = 4
?insert_mobile_into_takeoff_route@@YGHPAUENTITY@@0@Z PROC ; insert_mobile_into_takeoff_route, COMDAT

; 574  : {

  00000	55		 push	 ebp
  00001	8b ec		 mov	 ebp, esp
  00003	83 ec 5c	 sub	 esp, 92			; 0000005cH
  00006	53		 push	 ebx
  00007	56		 push	 esi
  00008	57		 push	 edi

; 575  : 	entity
; 576  : 		*task,
; 577  : 		*guide,
; 578  : 		*group,
; 579  : 		*route_wp;
; 580  : 
; 581  : 	unsigned int
; 582  : 		member_number;
; 583  : 
; 584  : 	ASSERT (member);

  00009	83 7d 08 00	 cmp	 DWORD PTR _member$[ebp], 0
  0000d	75 18		 jne	 SHORT $LN4@insert_mob
  0000f	a1 00 00 00 00	 mov	 eax, DWORD PTR ?__LINE__Var@?0??insert_mobile_into_takeoff_route@@YGHPAUENTITY@@0@Z@4JA
  00014	83 c0 0a	 add	 eax, 10			; 0000000aH
  00017	50		 push	 eax
  00018	68 00 00 00 00	 push	 OFFSET ??_C@_0ED@JCPIACOE@c?3?2users?2nhv90?2projects?2eech?2ap@
  0001d	68 00 00 00 00	 push	 OFFSET ??_C@_06HDFDANIG@member@
  00022	e8 00 00 00 00	 call	 ?process_assert@@YGXPBD0H@Z ; process_assert
$LN4@insert_mob:

; 585  : 
; 586  : 	ASSERT (landing_entity);

  00027	83 7d 0c 00	 cmp	 DWORD PTR _landing_entity$[ebp], 0
  0002b	75 18		 jne	 SHORT $LN5@insert_mob
  0002d	a1 00 00 00 00	 mov	 eax, DWORD PTR ?__LINE__Var@?0??insert_mobile_into_takeoff_route@@YGHPAUENTITY@@0@Z@4JA
  00032	83 c0 0c	 add	 eax, 12			; 0000000cH
  00035	50		 push	 eax
  00036	68 00 00 00 00	 push	 OFFSET ??_C@_0ED@JCPIACOE@c?3?2users?2nhv90?2projects?2eech?2ap@
  0003b	68 00 00 00 00	 push	 OFFSET ??_C@_0P@LNMOJPHN@landing_entity@
  00040	e8 00 00 00 00	 call	 ?process_assert@@YGXPBD0H@Z ; process_assert
$LN5@insert_mob:

; 587  : 
; 588  : 	ASSERT (get_comms_model () == COMMS_MODEL_SERVER);

  00045	83 3d 00 00 00
	00 00		 cmp	 DWORD PTR ?system_comms_model@@3W4COMMS_MODEL_TYPES@@A, 0 ; system_comms_model
  0004c	74 18		 je	 SHORT $LN6@insert_mob
  0004e	a1 00 00 00 00	 mov	 eax, DWORD PTR ?__LINE__Var@?0??insert_mobile_into_takeoff_route@@YGHPAUENTITY@@0@Z@4JA
  00053	83 c0 0e	 add	 eax, 14			; 0000000eH
  00056	50		 push	 eax
  00057	68 00 00 00 00	 push	 OFFSET ??_C@_0ED@JCPIACOE@c?3?2users?2nhv90?2projects?2eech?2ap@
  0005c	68 00 00 00 00	 push	 OFFSET ??_C@_0CJ@DMBLBJBK@get_comms_model?5?$CI?$CJ?5?$DN?$DN?5COMMS_MOD@
  00061	e8 00 00 00 00	 call	 ?process_assert@@YGXPBD0H@Z ; process_assert
$LN6@insert_mob:

; 589  : 
; 590  : 	group = get_local_entity_parent (member, LIST_TYPE_MEMBER);

  00066	83 7d 08 00	 cmp	 DWORD PTR _member$[ebp], 0
  0006a	74 0a		 je	 SHORT $LN17@insert_mob
  0006c	8b 45 08	 mov	 eax, DWORD PTR _member$[ebp]
  0006f	8b 08		 mov	 ecx, DWORD PTR [eax]
  00071	89 4d a8	 mov	 DWORD PTR tv85[ebp], ecx
  00074	eb 21		 jmp	 SHORT $LN18@insert_mob
$LN17@insert_mob:
  00076	8b 15 00 00 00
	00		 mov	 edx, DWORD PTR ?__LINE__Var@?0??insert_mobile_into_takeoff_route@@YGHPAUENTITY@@0@Z@4JA
  0007c	83 c2 10	 add	 edx, 16			; 00000010H
  0007f	52		 push	 edx
  00080	68 00 00 00 00	 push	 OFFSET ??_C@_0ED@JCPIACOE@c?3?2users?2nhv90?2projects?2eech?2ap@
  00085	a1 00 00 00 00	 mov	 eax, DWORD PTR ?null_entity_pointer_message@@3PBDB ; null_entity_pointer_message
  0008a	50		 push	 eax
  0008b	e8 00 00 00 00	 call	 ?process_assert@@YGXPBD0H@Z ; process_assert
  00090	c7 45 a8 00 00
	00 00		 mov	 DWORD PTR tv85[ebp], 0
$LN18@insert_mob:
  00097	b9 01 00 00 00	 mov	 ecx, 1
  0009c	85 c9		 test	 ecx, ecx
  0009e	74 09		 je	 SHORT $LN19@insert_mob
  000a0	c7 45 a4 19 00
	00 00		 mov	 DWORD PTR tv93[ebp], 25	; 00000019H
  000a7	eb 21		 jmp	 SHORT $LN20@insert_mob
$LN19@insert_mob:
  000a9	8b 15 00 00 00
	00		 mov	 edx, DWORD PTR ?__LINE__Var@?0??insert_mobile_into_takeoff_route@@YGHPAUENTITY@@0@Z@4JA
  000af	83 c2 10	 add	 edx, 16			; 00000010H
  000b2	52		 push	 edx
  000b3	68 00 00 00 00	 push	 OFFSET ??_C@_0ED@JCPIACOE@c?3?2users?2nhv90?2projects?2eech?2ap@
  000b8	a1 00 00 00 00	 mov	 eax, DWORD PTR ?overload_invalid_list_type_message@@3PBDB ; overload_invalid_list_type_message
  000bd	50		 push	 eax
  000be	e8 00 00 00 00	 call	 ?process_assert@@YGXPBD0H@Z ; process_assert
  000c3	c7 45 a4 00 00
	00 00		 mov	 DWORD PTR tv93[ebp], 0
$LN20@insert_mob:
  000ca	6a 19		 push	 25			; 00000019H
  000cc	8b 4d 08	 mov	 ecx, DWORD PTR _member$[ebp]
  000cf	51		 push	 ecx
  000d0	69 55 a8 b4 00
	00 00		 imul	 edx, DWORD PTR tv85[ebp], 180
  000d7	8b 45 a4	 mov	 eax, DWORD PTR tv93[ebp]
  000da	8b 8c 82 00 00
	00 00		 mov	 ecx, DWORD PTR ?fn_get_local_entity_parent@@3PAY0CN@P6GPAUENTITY@@PAU1@W4LIST_TYPES@@@ZA[edx+eax*4]
  000e1	ff d1		 call	 ecx
  000e3	89 45 f4	 mov	 DWORD PTR _group$[ebp], eax

; 591  : 
; 592  : 	ASSERT (group);

  000e6	83 7d f4 00	 cmp	 DWORD PTR _group$[ebp], 0
  000ea	75 18		 jne	 SHORT $LN7@insert_mob
  000ec	a1 00 00 00 00	 mov	 eax, DWORD PTR ?__LINE__Var@?0??insert_mobile_into_takeoff_route@@YGHPAUENTITY@@0@Z@4JA
  000f1	83 c0 12	 add	 eax, 18			; 00000012H
  000f4	50		 push	 eax
  000f5	68 00 00 00 00	 push	 OFFSET ??_C@_0ED@JCPIACOE@c?3?2users?2nhv90?2projects?2eech?2ap@
  000fa	68 00 00 00 00	 push	 OFFSET ??_C@_05MGJOOGAJ@group@
  000ff	e8 00 00 00 00	 call	 ?process_assert@@YGXPBD0H@Z ; process_assert
$LN7@insert_mob:

; 593  : 
; 594  : 	task = get_local_landing_entity_task (landing_entity, ENTITY_SUB_TYPE_TASK_TAKEOFF);

  00104	6a 16		 push	 22			; 00000016H
  00106	8b 45 0c	 mov	 eax, DWORD PTR _landing_entity$[ebp]
  00109	50		 push	 eax
  0010a	e8 00 00 00 00	 call	 ?get_local_landing_entity_task@@YGPAUENTITY@@PAU1@H@Z ; get_local_landing_entity_task
  0010f	89 45 fc	 mov	 DWORD PTR _task$[ebp], eax

; 595  : 
; 596  : 	ASSERT (task);

  00112	83 7d fc 00	 cmp	 DWORD PTR _task$[ebp], 0
  00116	75 18		 jne	 SHORT $LN8@insert_mob
  00118	a1 00 00 00 00	 mov	 eax, DWORD PTR ?__LINE__Var@?0??insert_mobile_into_takeoff_route@@YGHPAUENTITY@@0@Z@4JA
  0011d	83 c0 16	 add	 eax, 22			; 00000016H
  00120	50		 push	 eax
  00121	68 00 00 00 00	 push	 OFFSET ??_C@_0ED@JCPIACOE@c?3?2users?2nhv90?2projects?2eech?2ap@
  00126	68 00 00 00 00	 push	 OFFSET ??_C@_04GGKLLKOO@task@
  0012b	e8 00 00 00 00	 call	 ?process_assert@@YGXPBD0H@Z ; process_assert
$LN8@insert_mob:

; 597  : 
; 598  : 	//
; 599  : 	// Link into new route
; 600  : 	//
; 601  : 
; 602  : 	route_wp = get_local_landing_entity_route (landing_entity, ENTITY_SUB_TYPE_TASK_TAKEOFF);

  00130	6a 16		 push	 22			; 00000016H
  00132	8b 45 0c	 mov	 eax, DWORD PTR _landing_entity$[ebp]
  00135	50		 push	 eax
  00136	e8 00 00 00 00	 call	 ?get_local_landing_entity_route@@YGPAUENTITY@@PAU1@H@Z ; get_local_landing_entity_route
  0013b	89 45 f0	 mov	 DWORD PTR _route_wp$[ebp], eax

; 603  : 
; 604  : 	ASSERT (route_wp);

  0013e	83 7d f0 00	 cmp	 DWORD PTR _route_wp$[ebp], 0
  00142	75 18		 jne	 SHORT $LN9@insert_mob
  00144	a1 00 00 00 00	 mov	 eax, DWORD PTR ?__LINE__Var@?0??insert_mobile_into_takeoff_route@@YGHPAUENTITY@@0@Z@4JA
  00149	83 c0 1e	 add	 eax, 30			; 0000001eH
  0014c	50		 push	 eax
  0014d	68 00 00 00 00	 push	 OFFSET ??_C@_0ED@JCPIACOE@c?3?2users?2nhv90?2projects?2eech?2ap@
  00152	68 00 00 00 00	 push	 OFFSET ??_C@_08FMLGOCKE@route_wp@
  00157	e8 00 00 00 00	 call	 ?process_assert@@YGXPBD0H@Z ; process_assert
$LN9@insert_mob:

; 605  : 
; 606  : 	member_number = get_local_entity_int_value (member, INT_TYPE_GROUP_MEMBER_NUMBER);

  0015c	83 7d 08 00	 cmp	 DWORD PTR _member$[ebp], 0
  00160	74 0a		 je	 SHORT $LN21@insert_mob
  00162	8b 45 08	 mov	 eax, DWORD PTR _member$[ebp]
  00165	8b 08		 mov	 ecx, DWORD PTR [eax]
  00167	89 4d a8	 mov	 DWORD PTR tv158[ebp], ecx
  0016a	eb 21		 jmp	 SHORT $LN22@insert_mob
$LN21@insert_mob:
  0016c	8b 15 00 00 00
	00		 mov	 edx, DWORD PTR ?__LINE__Var@?0??insert_mobile_into_takeoff_route@@YGHPAUENTITY@@0@Z@4JA
  00172	83 c2 20	 add	 edx, 32			; 00000020H
  00175	52		 push	 edx
  00176	68 00 00 00 00	 push	 OFFSET ??_C@_0ED@JCPIACOE@c?3?2users?2nhv90?2projects?2eech?2ap@
  0017b	a1 00 00 00 00	 mov	 eax, DWORD PTR ?null_entity_pointer_message@@3PBDB ; null_entity_pointer_message
  00180	50		 push	 eax
  00181	e8 00 00 00 00	 call	 ?process_assert@@YGXPBD0H@Z ; process_assert
  00186	c7 45 a8 00 00
	00 00		 mov	 DWORD PTR tv158[ebp], 0
$LN22@insert_mob:
  0018d	b9 01 00 00 00	 mov	 ecx, 1
  00192	85 c9		 test	 ecx, ecx
  00194	74 09		 je	 SHORT $LN23@insert_mob
  00196	c7 45 a4 4b 00
	00 00		 mov	 DWORD PTR tv166[ebp], 75 ; 0000004bH
  0019d	eb 21		 jmp	 SHORT $LN24@insert_mob
$LN23@insert_mob:
  0019f	8b 15 00 00 00
	00		 mov	 edx, DWORD PTR ?__LINE__Var@?0??insert_mobile_into_takeoff_route@@YGHPAUENTITY@@0@Z@4JA
  001a5	83 c2 20	 add	 edx, 32			; 00000020H
  001a8	52		 push	 edx
  001a9	68 00 00 00 00	 push	 OFFSET ??_C@_0ED@JCPIACOE@c?3?2users?2nhv90?2projects?2eech?2ap@
  001ae	a1 00 00 00 00	 mov	 eax, DWORD PTR ?overload_invalid_int_type_message@@3PBDB ; overload_invalid_int_type_message
  001b3	50		 push	 eax
  001b4	e8 00 00 00 00	 call	 ?process_assert@@YGXPBD0H@Z ; process_assert
  001b9	c7 45 a4 00 00
	00 00		 mov	 DWORD PTR tv166[ebp], 0
$LN24@insert_mob:
  001c0	6a 4b		 push	 75			; 0000004bH
  001c2	8b 4d 08	 mov	 ecx, DWORD PTR _member$[ebp]
  001c5	51		 push	 ecx
  001c6	69 55 a8 5c 04
	00 00		 imul	 edx, DWORD PTR tv158[ebp], 1116
  001cd	8b 45 a4	 mov	 eax, DWORD PTR tv166[ebp]
  001d0	8b 8c 82 00 00
	00 00		 mov	 ecx, DWORD PTR ?fn_get_local_entity_int_value@@3PAY0BBH@P6GHPAUENTITY@@W4INT_TYPES@@@ZA[edx+eax*4]
  001d7	ff d1		 call	 ecx
  001d9	89 45 ec	 mov	 DWORD PTR _member_number$[ebp], eax

; 607  : 
; 608  : 	guide = create_client_server_guide_entity (task, route_wp, (1 << member_number));

  001dc	b8 01 00 00 00	 mov	 eax, 1
  001e1	8b 4d ec	 mov	 ecx, DWORD PTR _member_number$[ebp]
  001e4	d3 e0		 shl	 eax, cl
  001e6	50		 push	 eax
  001e7	8b 4d f0	 mov	 ecx, DWORD PTR _route_wp$[ebp]
  001ea	51		 push	 ecx
  001eb	8b 55 fc	 mov	 edx, DWORD PTR _task$[ebp]
  001ee	52		 push	 edx
  001ef	e8 00 00 00 00	 call	 ?create_client_server_guide_entity@@YGPAUENTITY@@PAU1@0I@Z ; create_client_server_guide_entity
  001f4	89 45 f8	 mov	 DWORD PTR _guide$[ebp], eax

; 609  : 
; 610  : 	attach_group_to_guide_entity (group, guide);

  001f7	8b 45 f8	 mov	 eax, DWORD PTR _guide$[ebp]
  001fa	50		 push	 eax
  001fb	8b 4d f4	 mov	 ecx, DWORD PTR _group$[ebp]
  001fe	51		 push	 ecx
  001ff	e8 00 00 00 00	 call	 ?attach_group_to_guide_entity@@YGXPAUENTITY@@0@Z ; attach_group_to_guide_entity

; 611  : 
; 612  : 	attach_group_member_to_guide_entity (member, guide);

  00204	8b 45 f8	 mov	 eax, DWORD PTR _guide$[ebp]
  00207	50		 push	 eax
  00208	8b 4d 08	 mov	 ecx, DWORD PTR _member$[ebp]
  0020b	51		 push	 ecx
  0020c	e8 00 00 00 00	 call	 ?attach_group_member_to_guide_entity@@YGXPAUENTITY@@0@Z ; attach_group_member_to_guide_entity

; 613  : 
; 614  : 	play_landing_clear_for_takeoff_speech (member);

  00211	8b 45 08	 mov	 eax, DWORD PTR _member$[ebp]
  00214	50		 push	 eax
  00215	e8 00 00 00 00	 call	 ?play_landing_clear_for_takeoff_speech@@YGXPAUENTITY@@@Z ; play_landing_clear_for_takeoff_speech

; 615  : 
; 616  : 	//
; 617  : 	// Unlock landed site, do after locking takeoff route in case entity can't takeoff.
; 618  : 	//
; 619  : 
; 620  : 	notify_local_entity (ENTITY_MESSAGE_UNLOCK_LANDING_SITE, landing_entity, member);

  0021a	8b 45 08	 mov	 eax, DWORD PTR _member$[ebp]
  0021d	50		 push	 eax
  0021e	8b 4d 0c	 mov	 ecx, DWORD PTR _landing_entity$[ebp]
  00221	51		 push	 ecx
  00222	6a 3a		 push	 58			; 0000003aH
  00224	e8 00 00 00 00	 call	 ?notify_local_entity@@YAHW4ENTITY_MESSAGES@@PAUENTITY@@1ZZ ; notify_local_entity
  00229	83 c4 0c	 add	 esp, 12			; 0000000cH

; 621  : 
; 622  : 	//
; 623  : 	// set operational state
; 624  : 	//
; 625  : 
; 626  : 	switch (get_local_entity_type (member))

  0022c	83 7d 08 00	 cmp	 DWORD PTR _member$[ebp], 0
  00230	74 0a		 je	 SHORT $LN25@insert_mob
  00232	8b 45 08	 mov	 eax, DWORD PTR _member$[ebp]
  00235	8b 08		 mov	 ecx, DWORD PTR [eax]
  00237	89 4d a8	 mov	 DWORD PTR tv190[ebp], ecx
  0023a	eb 1d		 jmp	 SHORT $LN26@insert_mob
$LN25@insert_mob:
  0023c	68 72 02 00 00	 push	 626			; 00000272H
  00241	68 00 00 00 00	 push	 OFFSET ??_C@_0ED@JCPIACOE@c?3?2users?2nhv90?2projects?2eech?2ap@
  00246	8b 15 00 00 00
	00		 mov	 edx, DWORD PTR ?null_entity_pointer_message@@3PBDB ; null_entity_pointer_message
  0024c	52		 push	 edx
  0024d	e8 00 00 00 00	 call	 ?process_assert@@YGXPBD0H@Z ; process_assert
  00252	c7 45 a8 00 00
	00 00		 mov	 DWORD PTR tv190[ebp], 0
$LN26@insert_mob:
  00259	8b 45 a8	 mov	 eax, DWORD PTR tv190[ebp]
  0025c	89 45 a4	 mov	 DWORD PTR tv191[ebp], eax
  0025f	8b 4d a4	 mov	 ecx, DWORD PTR tv191[ebp]
  00262	83 e9 0a	 sub	 ecx, 10			; 0000000aH
  00265	89 4d a4	 mov	 DWORD PTR tv191[ebp], ecx
  00268	83 7d a4 12	 cmp	 DWORD PTR tv191[ebp], 18 ; 00000012H
  0026c	0f 87 d5 02 00
	00		 ja	 $LN14@insert_mob
  00272	8b 55 a4	 mov	 edx, DWORD PTR tv191[ebp]
  00275	0f b6 82 00 00
	00 00		 movzx	 eax, BYTE PTR $LN53@insert_mob[edx]
  0027c	ff 24 85 00 00
	00 00		 jmp	 DWORD PTR $LN54@insert_mob[eax*4]
$LN10@insert_mob:

; 627  : 	{
; 628  : 		case ENTITY_TYPE_FIXED_WING:
; 629  : 		case ENTITY_TYPE_PERSON:
; 630  : 		{
; 631  : 			set_client_server_entity_int_value (member, INT_TYPE_OPERATIONAL_STATE, OPERATIONAL_STATE_TAXIING);

  00283	83 7d 08 00	 cmp	 DWORD PTR _member$[ebp], 0
  00287	74 0a		 je	 SHORT $LN27@insert_mob
  00289	8b 45 08	 mov	 eax, DWORD PTR _member$[ebp]
  0028c	8b 08		 mov	 ecx, DWORD PTR [eax]
  0028e	89 4d a8	 mov	 DWORD PTR tv198[ebp], ecx
  00291	eb 21		 jmp	 SHORT $LN28@insert_mob
$LN27@insert_mob:
  00293	8b 15 00 00 00
	00		 mov	 edx, DWORD PTR ?__LINE__Var@?0??insert_mobile_into_takeoff_route@@YGHPAUENTITY@@0@Z@4JA
  00299	83 c2 39	 add	 edx, 57			; 00000039H
  0029c	52		 push	 edx
  0029d	68 00 00 00 00	 push	 OFFSET ??_C@_0ED@JCPIACOE@c?3?2users?2nhv90?2projects?2eech?2ap@
  002a2	a1 00 00 00 00	 mov	 eax, DWORD PTR ?null_entity_pointer_message@@3PBDB ; null_entity_pointer_message
  002a7	50		 push	 eax
  002a8	e8 00 00 00 00	 call	 ?process_assert@@YGXPBD0H@Z ; process_assert
  002ad	c7 45 a8 00 00
	00 00		 mov	 DWORD PTR tv198[ebp], 0
$LN28@insert_mob:
  002b4	b9 01 00 00 00	 mov	 ecx, 1
  002b9	85 c9		 test	 ecx, ecx
  002bb	74 09		 je	 SHORT $LN29@insert_mob
  002bd	c7 45 a4 97 00
	00 00		 mov	 DWORD PTR tv206[ebp], 151 ; 00000097H
  002c4	eb 21		 jmp	 SHORT $LN30@insert_mob
$LN29@insert_mob:
  002c6	8b 15 00 00 00
	00		 mov	 edx, DWORD PTR ?__LINE__Var@?0??insert_mobile_into_takeoff_route@@YGHPAUENTITY@@0@Z@4JA
  002cc	83 c2 39	 add	 edx, 57			; 00000039H
  002cf	52		 push	 edx
  002d0	68 00 00 00 00	 push	 OFFSET ??_C@_0ED@JCPIACOE@c?3?2users?2nhv90?2projects?2eech?2ap@
  002d5	a1 00 00 00 00	 mov	 eax, DWORD PTR ?overload_invalid_int_type_message@@3PBDB ; overload_invalid_int_type_message
  002da	50		 push	 eax
  002db	e8 00 00 00 00	 call	 ?process_assert@@YGXPBD0H@Z ; process_assert
  002e0	c7 45 a4 00 00
	00 00		 mov	 DWORD PTR tv206[ebp], 0
$LN30@insert_mob:
  002e7	6a 0b		 push	 11			; 0000000bH
  002e9	68 97 00 00 00	 push	 151			; 00000097H
  002ee	8b 4d 08	 mov	 ecx, DWORD PTR _member$[ebp]
  002f1	51		 push	 ecx
  002f2	69 55 a8 b8 08
	00 00		 imul	 edx, DWORD PTR tv198[ebp], 2232
  002f9	8b 45 a4	 mov	 eax, DWORD PTR tv206[ebp]
  002fc	8d 8c c2 00 00
	00 00		 lea	 ecx, DWORD PTR ?fn_set_client_server_entity_int_value@@3PAY1BBH@1P6GXPAUENTITY@@W4INT_TYPES@@H@ZA[edx+eax*8]
  00303	8b 15 00 00 00
	00		 mov	 edx, DWORD PTR ?system_comms_model@@3W4COMMS_MODEL_TYPES@@A ; system_comms_model
  00309	8b 04 91	 mov	 eax, DWORD PTR [ecx+edx*4]
  0030c	ff d0		 call	 eax

; 632  : 
; 633  : 			break;

  0030e	e9 c9 02 00 00	 jmp	 $LN2@insert_mob
$LN11@insert_mob:

; 634  : 		}
; 635  : 		case ENTITY_TYPE_ROUTED_VEHICLE:
; 636  : 		case ENTITY_TYPE_SHIP_VEHICLE:
; 637  : 		{
; 638  : 			set_client_server_entity_int_value (member, INT_TYPE_OPERATIONAL_STATE, OPERATIONAL_STATE_TAKEOFF);

  00313	83 7d 08 00	 cmp	 DWORD PTR _member$[ebp], 0
  00317	74 0a		 je	 SHORT $LN31@insert_mob
  00319	8b 45 08	 mov	 eax, DWORD PTR _member$[ebp]
  0031c	8b 08		 mov	 ecx, DWORD PTR [eax]
  0031e	89 4d a8	 mov	 DWORD PTR tv220[ebp], ecx
  00321	eb 21		 jmp	 SHORT $LN32@insert_mob
$LN31@insert_mob:
  00323	8b 15 00 00 00
	00		 mov	 edx, DWORD PTR ?__LINE__Var@?0??insert_mobile_into_takeoff_route@@YGHPAUENTITY@@0@Z@4JA
  00329	83 c2 40	 add	 edx, 64			; 00000040H
  0032c	52		 push	 edx
  0032d	68 00 00 00 00	 push	 OFFSET ??_C@_0ED@JCPIACOE@c?3?2users?2nhv90?2projects?2eech?2ap@
  00332	a1 00 00 00 00	 mov	 eax, DWORD PTR ?null_entity_pointer_message@@3PBDB ; null_entity_pointer_message
  00337	50		 push	 eax
  00338	e8 00 00 00 00	 call	 ?process_assert@@YGXPBD0H@Z ; process_assert
  0033d	c7 45 a8 00 00
	00 00		 mov	 DWORD PTR tv220[ebp], 0
$LN32@insert_mob:
  00344	b9 01 00 00 00	 mov	 ecx, 1
  00349	85 c9		 test	 ecx, ecx
  0034b	74 09		 je	 SHORT $LN33@insert_mob
  0034d	c7 45 a4 97 00
	00 00		 mov	 DWORD PTR tv228[ebp], 151 ; 00000097H
  00354	eb 21		 jmp	 SHORT $LN34@insert_mob
$LN33@insert_mob:
  00356	8b 15 00 00 00
	00		 mov	 edx, DWORD PTR ?__LINE__Var@?0??insert_mobile_into_takeoff_route@@YGHPAUENTITY@@0@Z@4JA
  0035c	83 c2 40	 add	 edx, 64			; 00000040H
  0035f	52		 push	 edx
  00360	68 00 00 00 00	 push	 OFFSET ??_C@_0ED@JCPIACOE@c?3?2users?2nhv90?2projects?2eech?2ap@
  00365	a1 00 00 00 00	 mov	 eax, DWORD PTR ?overload_invalid_int_type_message@@3PBDB ; overload_invalid_int_type_message
  0036a	50		 push	 eax
  0036b	e8 00 00 00 00	 call	 ?process_assert@@YGXPBD0H@Z ; process_assert
  00370	c7 45 a4 00 00
	00 00		 mov	 DWORD PTR tv228[ebp], 0
$LN34@insert_mob:
  00377	6a 09		 push	 9
  00379	68 97 00 00 00	 push	 151			; 00000097H
  0037e	8b 4d 08	 mov	 ecx, DWORD PTR _member$[ebp]
  00381	51		 push	 ecx
  00382	69 55 a8 b8 08
	00 00		 imul	 edx, DWORD PTR tv220[ebp], 2232
  00389	8b 45 a4	 mov	 eax, DWORD PTR tv228[ebp]
  0038c	8d 8c c2 00 00
	00 00		 lea	 ecx, DWORD PTR ?fn_set_client_server_entity_int_value@@3PAY1BBH@1P6GXPAUENTITY@@W4INT_TYPES@@H@ZA[edx+eax*8]
  00393	8b 15 00 00 00
	00		 mov	 edx, DWORD PTR ?system_comms_model@@3W4COMMS_MODEL_TYPES@@A ; system_comms_model
  00399	8b 04 91	 mov	 eax, DWORD PTR [ecx+edx*4]
  0039c	ff d0		 call	 eax

; 639  : 
; 640  : 			break;

  0039e	e9 39 02 00 00	 jmp	 $LN2@insert_mob
$LN12@insert_mob:

; 641  : 		}
; 642  : 		case ENTITY_TYPE_HELICOPTER:
; 643  : 		{
; 644  : 			//
; 645  : 			// Operational state remains landed until rotors spun up, and all human players in the group have taken off
; 646  : 			//
; 647  : 			
; 648  : 			set_client_server_entity_int_value (member, INT_TYPE_OPERATIONAL_STATE, OPERATIONAL_STATE_LANDED);

  003a3	83 7d 08 00	 cmp	 DWORD PTR _member$[ebp], 0
  003a7	74 0a		 je	 SHORT $LN35@insert_mob
  003a9	8b 45 08	 mov	 eax, DWORD PTR _member$[ebp]
  003ac	8b 08		 mov	 ecx, DWORD PTR [eax]
  003ae	89 4d a8	 mov	 DWORD PTR tv242[ebp], ecx
  003b1	eb 21		 jmp	 SHORT $LN36@insert_mob
$LN35@insert_mob:
  003b3	8b 15 00 00 00
	00		 mov	 edx, DWORD PTR ?__LINE__Var@?0??insert_mobile_into_takeoff_route@@YGHPAUENTITY@@0@Z@4JA
  003b9	83 c2 4a	 add	 edx, 74			; 0000004aH
  003bc	52		 push	 edx
  003bd	68 00 00 00 00	 push	 OFFSET ??_C@_0ED@JCPIACOE@c?3?2users?2nhv90?2projects?2eech?2ap@
  003c2	a1 00 00 00 00	 mov	 eax, DWORD PTR ?null_entity_pointer_message@@3PBDB ; null_entity_pointer_message
  003c7	50		 push	 eax
  003c8	e8 00 00 00 00	 call	 ?process_assert@@YGXPBD0H@Z ; process_assert
  003cd	c7 45 a8 00 00
	00 00		 mov	 DWORD PTR tv242[ebp], 0
$LN36@insert_mob:
  003d4	b9 01 00 00 00	 mov	 ecx, 1
  003d9	85 c9		 test	 ecx, ecx
  003db	74 09		 je	 SHORT $LN37@insert_mob
  003dd	c7 45 a4 97 00
	00 00		 mov	 DWORD PTR tv250[ebp], 151 ; 00000097H
  003e4	eb 21		 jmp	 SHORT $LN38@insert_mob
$LN37@insert_mob:
  003e6	8b 15 00 00 00
	00		 mov	 edx, DWORD PTR ?__LINE__Var@?0??insert_mobile_into_takeoff_route@@YGHPAUENTITY@@0@Z@4JA
  003ec	83 c2 4a	 add	 edx, 74			; 0000004aH
  003ef	52		 push	 edx
  003f0	68 00 00 00 00	 push	 OFFSET ??_C@_0ED@JCPIACOE@c?3?2users?2nhv90?2projects?2eech?2ap@
  003f5	a1 00 00 00 00	 mov	 eax, DWORD PTR ?overload_invalid_int_type_message@@3PBDB ; overload_invalid_int_type_message
  003fa	50		 push	 eax
  003fb	e8 00 00 00 00	 call	 ?process_assert@@YGXPBD0H@Z ; process_assert
  00400	c7 45 a4 00 00
	00 00		 mov	 DWORD PTR tv250[ebp], 0
$LN38@insert_mob:
  00407	6a 04		 push	 4
  00409	68 97 00 00 00	 push	 151			; 00000097H
  0040e	8b 4d 08	 mov	 ecx, DWORD PTR _member$[ebp]
  00411	51		 push	 ecx
  00412	69 55 a8 b8 08
	00 00		 imul	 edx, DWORD PTR tv242[ebp], 2232
  00419	8b 45 a4	 mov	 eax, DWORD PTR tv250[ebp]
  0041c	8d 8c c2 00 00
	00 00		 lea	 ecx, DWORD PTR ?fn_set_client_server_entity_int_value@@3PAY1BBH@1P6GXPAUENTITY@@W4INT_TYPES@@H@ZA[edx+eax*8]
  00423	8b 15 00 00 00
	00		 mov	 edx, DWORD PTR ?system_comms_model@@3W4COMMS_MODEL_TYPES@@A ; system_comms_model
  00429	8b 04 91	 mov	 eax, DWORD PTR [ecx+edx*4]
  0042c	ff d0		 call	 eax

; 649  : 
; 650  : 			if (get_local_entity_int_value (member, INT_TYPE_PLAYER) == ENTITY_PLAYER_AI)

  0042e	83 7d 08 00	 cmp	 DWORD PTR _member$[ebp], 0
  00432	74 0a		 je	 SHORT $LN39@insert_mob
  00434	8b 45 08	 mov	 eax, DWORD PTR _member$[ebp]
  00437	8b 08		 mov	 ecx, DWORD PTR [eax]
  00439	89 4d a8	 mov	 DWORD PTR tv263[ebp], ecx
  0043c	eb 1d		 jmp	 SHORT $LN40@insert_mob
$LN39@insert_mob:
  0043e	68 8a 02 00 00	 push	 650			; 0000028aH
  00443	68 00 00 00 00	 push	 OFFSET ??_C@_0ED@JCPIACOE@c?3?2users?2nhv90?2projects?2eech?2ap@
  00448	8b 15 00 00 00
	00		 mov	 edx, DWORD PTR ?null_entity_pointer_message@@3PBDB ; null_entity_pointer_message
  0044e	52		 push	 edx
  0044f	e8 00 00 00 00	 call	 ?process_assert@@YGXPBD0H@Z ; process_assert
  00454	c7 45 a8 00 00
	00 00		 mov	 DWORD PTR tv263[ebp], 0
$LN40@insert_mob:
  0045b	b8 01 00 00 00	 mov	 eax, 1
  00460	85 c0		 test	 eax, eax
  00462	74 09		 je	 SHORT $LN41@insert_mob
  00464	c7 45 a4 9c 00
	00 00		 mov	 DWORD PTR tv270[ebp], 156 ; 0000009cH
  0046b	eb 1d		 jmp	 SHORT $LN42@insert_mob
$LN41@insert_mob:
  0046d	68 8a 02 00 00	 push	 650			; 0000028aH
  00472	68 00 00 00 00	 push	 OFFSET ??_C@_0ED@JCPIACOE@c?3?2users?2nhv90?2projects?2eech?2ap@
  00477	8b 0d 00 00 00
	00		 mov	 ecx, DWORD PTR ?overload_invalid_int_type_message@@3PBDB ; overload_invalid_int_type_message
  0047d	51		 push	 ecx
  0047e	e8 00 00 00 00	 call	 ?process_assert@@YGXPBD0H@Z ; process_assert
  00483	c7 45 a4 00 00
	00 00		 mov	 DWORD PTR tv270[ebp], 0
$LN42@insert_mob:
  0048a	68 9c 00 00 00	 push	 156			; 0000009cH
  0048f	8b 55 08	 mov	 edx, DWORD PTR _member$[ebp]
  00492	52		 push	 edx
  00493	69 45 a8 5c 04
	00 00		 imul	 eax, DWORD PTR tv263[ebp], 1116
  0049a	8b 4d a4	 mov	 ecx, DWORD PTR tv270[ebp]
  0049d	8b 94 88 00 00
	00 00		 mov	 edx, DWORD PTR ?fn_get_local_entity_int_value@@3PAY0BBH@P6GHPAUENTITY@@W4INT_TYPES@@@ZA[eax+ecx*4]
  004a4	ff d2		 call	 edx
  004a6	85 c0		 test	 eax, eax
  004a8	0f 85 94 00 00
	00		 jne	 $LN13@insert_mob

; 651  : 			{
; 652  : 				set_client_server_entity_float_value (member, FLOAT_TYPE_MAIN_ROTOR_SPIN_UP_TIMER, MAIN_ROTOR_SPIN_UP_TIMER);

  004ae	83 7d 08 00	 cmp	 DWORD PTR _member$[ebp], 0
  004b2	74 0a		 je	 SHORT $LN43@insert_mob
  004b4	8b 45 08	 mov	 eax, DWORD PTR _member$[ebp]
  004b7	8b 08		 mov	 ecx, DWORD PTR [eax]
  004b9	89 4d a8	 mov	 DWORD PTR tv283[ebp], ecx
  004bc	eb 21		 jmp	 SHORT $LN44@insert_mob
$LN43@insert_mob:
  004be	8b 15 00 00 00
	00		 mov	 edx, DWORD PTR ?__LINE__Var@?0??insert_mobile_into_takeoff_route@@YGHPAUENTITY@@0@Z@4JA
  004c4	83 c2 4e	 add	 edx, 78			; 0000004eH
  004c7	52		 push	 edx
  004c8	68 00 00 00 00	 push	 OFFSET ??_C@_0ED@JCPIACOE@c?3?2users?2nhv90?2projects?2eech?2ap@
  004cd	a1 00 00 00 00	 mov	 eax, DWORD PTR ?null_entity_pointer_message@@3PBDB ; null_entity_pointer_message
  004d2	50		 push	 eax
  004d3	e8 00 00 00 00	 call	 ?process_assert@@YGXPBD0H@Z ; process_assert
  004d8	c7 45 a8 00 00
	00 00		 mov	 DWORD PTR tv283[ebp], 0
$LN44@insert_mob:
  004df	b9 01 00 00 00	 mov	 ecx, 1
  004e4	85 c9		 test	 ecx, ecx
  004e6	74 09		 je	 SHORT $LN45@insert_mob
  004e8	c7 45 a4 4a 00
	00 00		 mov	 DWORD PTR tv291[ebp], 74 ; 0000004aH
  004ef	eb 21		 jmp	 SHORT $LN46@insert_mob
$LN45@insert_mob:
  004f1	8b 15 00 00 00
	00		 mov	 edx, DWORD PTR ?__LINE__Var@?0??insert_mobile_into_takeoff_route@@YGHPAUENTITY@@0@Z@4JA
  004f7	83 c2 4e	 add	 edx, 78			; 0000004eH
  004fa	52		 push	 edx
  004fb	68 00 00 00 00	 push	 OFFSET ??_C@_0ED@JCPIACOE@c?3?2users?2nhv90?2projects?2eech?2ap@
  00500	a1 00 00 00 00	 mov	 eax, DWORD PTR ?overload_invalid_float_type_message@@3PBDB ; overload_invalid_float_type_message
  00505	50		 push	 eax
  00506	e8 00 00 00 00	 call	 ?process_assert@@YGXPBD0H@Z ; process_assert
  0050b	c7 45 a4 00 00
	00 00		 mov	 DWORD PTR tv291[ebp], 0
$LN46@insert_mob:
  00512	51		 push	 ecx
  00513	f3 0f 10 05 00
	00 00 00	 movss	 xmm0, DWORD PTR __real@41c80000
  0051b	f3 0f 11 04 24	 movss	 DWORD PTR [esp], xmm0
  00520	6a 4a		 push	 74			; 0000004aH
  00522	8b 4d 08	 mov	 ecx, DWORD PTR _member$[ebp]
  00525	51		 push	 ecx
  00526	69 55 a8 78 05
	00 00		 imul	 edx, DWORD PTR tv283[ebp], 1400
  0052d	8b 45 a4	 mov	 eax, DWORD PTR tv291[ebp]
  00530	8d 8c c2 00 00
	00 00		 lea	 ecx, DWORD PTR ?fn_set_client_server_entity_float_value@@3PAY1KP@1P6GXPAUENTITY@@W4FLOAT_TYPES@@M@ZA[edx+eax*8]
  00537	8b 15 00 00 00
	00		 mov	 edx, DWORD PTR ?system_comms_model@@3W4COMMS_MODEL_TYPES@@A ; system_comms_model
  0053d	8b 04 91	 mov	 eax, DWORD PTR [ecx+edx*4]
  00540	ff d0		 call	 eax
$LN13@insert_mob:

; 653  : 			}
; 654  : 
; 655  : 			break;

  00542	e9 95 00 00 00	 jmp	 $LN2@insert_mob
$LN14@insert_mob:

; 656  : 		}
; 657  : 
; 658  : 		default:
; 659  : 		{
; 660  : 
; 661  : 			debug_fatal ("MOBILE: can't set operational state for %s (%d)",

  00547	83 7d 08 00	 cmp	 DWORD PTR _member$[ebp], 0
  0054b	74 0a		 je	 SHORT $LN47@insert_mob
  0054d	8b 45 08	 mov	 eax, DWORD PTR _member$[ebp]
  00550	8b 08		 mov	 ecx, DWORD PTR [eax]
  00552	89 4d a8	 mov	 DWORD PTR tv308[ebp], ecx
  00555	eb 21		 jmp	 SHORT $LN48@insert_mob
$LN47@insert_mob:
  00557	8b 15 00 00 00
	00		 mov	 edx, DWORD PTR ?__LINE__Var@?0??insert_mobile_into_takeoff_route@@YGHPAUENTITY@@0@Z@4JA
  0055d	83 c2 58	 add	 edx, 88			; 00000058H
  00560	52		 push	 edx
  00561	68 00 00 00 00	 push	 OFFSET ??_C@_0ED@JCPIACOE@c?3?2users?2nhv90?2projects?2eech?2ap@
  00566	a1 00 00 00 00	 mov	 eax, DWORD PTR ?null_entity_pointer_message@@3PBDB ; null_entity_pointer_message
  0056b	50		 push	 eax
  0056c	e8 00 00 00 00	 call	 ?process_assert@@YGXPBD0H@Z ; process_assert
  00571	c7 45 a8 00 00
	00 00		 mov	 DWORD PTR tv308[ebp], 0
$LN48@insert_mob:
  00578	b9 01 00 00 00	 mov	 ecx, 1
  0057d	85 c9		 test	 ecx, ecx
  0057f	74 09		 je	 SHORT $LN49@insert_mob
  00581	c7 45 a4 03 00
	00 00		 mov	 DWORD PTR tv316[ebp], 3
  00588	eb 21		 jmp	 SHORT $LN50@insert_mob
$LN49@insert_mob:
  0058a	8b 15 00 00 00
	00		 mov	 edx, DWORD PTR ?__LINE__Var@?0??insert_mobile_into_takeoff_route@@YGHPAUENTITY@@0@Z@4JA
  00590	83 c2 58	 add	 edx, 88			; 00000058H
  00593	52		 push	 edx
  00594	68 00 00 00 00	 push	 OFFSET ??_C@_0ED@JCPIACOE@c?3?2users?2nhv90?2projects?2eech?2ap@
  00599	a1 00 00 00 00	 mov	 eax, DWORD PTR ?overload_invalid_string_type_message@@3PBDB ; overload_invalid_string_type_message
  0059e	50		 push	 eax
  0059f	e8 00 00 00 00	 call	 ?process_assert@@YGXPBD0H@Z ; process_assert
  005a4	c7 45 a4 00 00
	00 00		 mov	 DWORD PTR tv316[ebp], 0
$LN50@insert_mob:
  005ab	8b 4d 08	 mov	 ecx, DWORD PTR _member$[ebp]
  005ae	2b 0d 00 00 00
	00		 sub	 ecx, DWORD PTR ?entities@@3PAUENTITY@@A ; entities
  005b4	c1 f9 04	 sar	 ecx, 4
  005b7	51		 push	 ecx
  005b8	6a 03		 push	 3
  005ba	8b 55 08	 mov	 edx, DWORD PTR _member$[ebp]
  005bd	52		 push	 edx
  005be	6b 45 a8 34	 imul	 eax, DWORD PTR tv308[ebp], 52
  005c2	8b 4d a4	 mov	 ecx, DWORD PTR tv316[ebp]
  005c5	8b 94 88 00 00
	00 00		 mov	 edx, DWORD PTR ?fn_get_local_entity_string@@3PAY0N@P6GPBDPAUENTITY@@W4STRING_TYPES@@@ZA[eax+ecx*4]
  005cc	ff d2		 call	 edx
  005ce	50		 push	 eax
  005cf	68 00 00 00 00	 push	 OFFSET ??_C@_0DA@LCNDHBIA@MOBILE?3?5can?8t?5set?5operational?5s@
  005d4	e8 00 00 00 00	 call	 ?debug_fatal@@YAXPBDZZ	; debug_fatal
  005d9	83 c4 0c	 add	 esp, 12			; 0000000cH
$LN2@insert_mob:

; 662  : 							get_local_entity_string (member, STRING_TYPE_FULL_NAME),
; 663  : 							get_local_entity_index (member));
; 664  : 
; 665  : 			break;
; 666  : 		}
; 667  : 	}
; 668  : 
; 669  : 	//
; 670  : 	// Remove from MOVEMENT_DEPENDENT list (if on mobile_keysite)
; 671  : 	//
; 672  : 
; 673  : 	if (get_local_entity_type (member) != ENTITY_TYPE_FIXED_WING)

  005dc	83 7d 08 00	 cmp	 DWORD PTR _member$[ebp], 0
  005e0	74 0a		 je	 SHORT $LN51@insert_mob
  005e2	8b 45 08	 mov	 eax, DWORD PTR _member$[ebp]
  005e5	8b 08		 mov	 ecx, DWORD PTR [eax]
  005e7	89 4d a8	 mov	 DWORD PTR tv331[ebp], ecx
  005ea	eb 1d		 jmp	 SHORT $LN52@insert_mob
$LN51@insert_mob:
  005ec	68 a1 02 00 00	 push	 673			; 000002a1H
  005f1	68 00 00 00 00	 push	 OFFSET ??_C@_0ED@JCPIACOE@c?3?2users?2nhv90?2projects?2eech?2ap@
  005f6	8b 15 00 00 00
	00		 mov	 edx, DWORD PTR ?null_entity_pointer_message@@3PBDB ; null_entity_pointer_message
  005fc	52		 push	 edx
  005fd	e8 00 00 00 00	 call	 ?process_assert@@YGXPBD0H@Z ; process_assert
  00602	c7 45 a8 00 00
	00 00		 mov	 DWORD PTR tv331[ebp], 0
$LN52@insert_mob:
  00609	83 7d a8 0a	 cmp	 DWORD PTR tv331[ebp], 10 ; 0000000aH
  0060d	74 0b		 je	 SHORT $LN15@insert_mob

; 674  : 	{
; 675  : 
; 676  : 		delete_local_entity_from_parents_child_list (member, LIST_TYPE_MOVEMENT_DEPENDENT);

  0060f	6a 1a		 push	 26			; 0000001aH
  00611	8b 45 08	 mov	 eax, DWORD PTR _member$[ebp]
  00614	50		 push	 eax
  00615	e8 00 00 00 00	 call	 ?delete_local_entity_from_parents_child_list@@YGXPAUENTITY@@W4LIST_TYPES@@@Z ; delete_local_entity_from_parents_child_list
$LN15@insert_mob:

; 677  : 	}
; 678  : 
; 679  : 	/////////////////////////////////////////////////////////////////
; 680  : 	//
; 681  : 	// SPECIAL_EFFECT_HOOK FOR STARTING TO TAKEOFF
; 682  : 	//
; 683  : 	/////////////////////////////////////////////////////////////////
; 684  : 
; 685  : 	close_client_server_entity_loading_doors (member);

  0061a	8b 45 08	 mov	 eax, DWORD PTR _member$[ebp]
  0061d	50		 push	 eax
  0061e	e8 00 00 00 00	 call	 ?close_client_server_entity_loading_doors@@YGXPAUENTITY@@@Z ; close_client_server_entity_loading_doors

; 686  : 
; 687  : 	close_client_server_entity_cargo_doors (member);

  00623	8b 45 08	 mov	 eax, DWORD PTR _member$[ebp]
  00626	50		 push	 eax
  00627	e8 00 00 00 00	 call	 ?close_client_server_entity_cargo_doors@@YGXPAUENTITY@@@Z ; close_client_server_entity_cargo_doors

; 688  : 
; 689  : 	/////////////////////////////////////////////////////////////////
; 690  : 	//
; 691  : 	//
; 692  : 	/////////////////////////////////////////////////////////////////
; 693  : 
; 694  : 	return TRUE;

  0062c	b8 01 00 00 00	 mov	 eax, 1

; 695  : }

  00631	5f		 pop	 edi
  00632	5e		 pop	 esi
  00633	5b		 pop	 ebx
  00634	8b e5		 mov	 esp, ebp
  00636	5d		 pop	 ebp
  00637	c2 08 00	 ret	 8
  0063a	66 90		 npad	 2
$LN54@insert_mob:
  0063c	00 00 00 00	 DD	 $LN10@insert_mob
  00640	00 00 00 00	 DD	 $LN12@insert_mob
  00644	00 00 00 00	 DD	 $LN11@insert_mob
  00648	00 00 00 00	 DD	 $LN14@insert_mob
$LN53@insert_mob:
  0064c	00		 DB	 0
  0064d	03		 DB	 3
  0064e	03		 DB	 3
  0064f	03		 DB	 3
  00650	01		 DB	 1
  00651	03		 DB	 3
  00652	03		 DB	 3
  00653	03		 DB	 3
  00654	03		 DB	 3
  00655	00		 DB	 0
  00656	03		 DB	 3
  00657	03		 DB	 3
  00658	03		 DB	 3
  00659	02		 DB	 2
  0065a	03		 DB	 3
  0065b	03		 DB	 3
  0065c	03		 DB	 3
  0065d	03		 DB	 3
  0065e	02		 DB	 2
?insert_mobile_into_takeoff_route@@YGHPAUENTITY@@0@Z ENDP ; insert_mobile_into_takeoff_route
_TEXT	ENDS
; Function compile flags: /Odtp /ZI
; File c:\users\nhv90\projects\eech\aphavoc\source\entity\mobile\mobile.c
;	COMDAT ?calculate_mobile_death_timer_value@@YGMPAUENTITY@@@Z
_TEXT	SEGMENT
tv221 = -104						; size = 4
tv201 = -104						; size = 4
tv177 = -104						; size = 4
tv156 = -104						; size = 4
tv135 = -104						; size = 4
tv78 = -104						; size = 4
tv213 = -100						; size = 4
tv193 = -100						; size = 4
tv169 = -100						; size = 4
tv148 = -100						; size = 4
tv95 = -100						; size = 4
tv70 = -100						; size = 4
_temp$1 = -32						; size = 4
_keysite$ = -28						; size = 4
_force$ = -24						; size = 4
_closest$ = -20						; size = 4
_range$ = -16						; size = 4
_result$ = -12						; size = 4
_keysite_pos$ = -8					; size = 4
_pos$ = -4						; size = 4
_en$ = 8						; size = 4
?calculate_mobile_death_timer_value@@YGMPAUENTITY@@@Z PROC ; calculate_mobile_death_timer_value, COMDAT

; 499  : {

  00000	55		 push	 ebp
  00001	8b ec		 mov	 ebp, esp
  00003	83 ec 68	 sub	 esp, 104		; 00000068H
  00006	53		 push	 ebx
  00007	56		 push	 esi
  00008	57		 push	 edi

; 500  : 	vec3d
; 501  : 		*pos,
; 502  : 		*keysite_pos;
; 503  : 
; 504  : 	float
; 505  : 		result,
; 506  : 		range,
; 507  : 		closest;
; 508  : 
; 509  : 	entity
; 510  : 		*force,
; 511  : 		*keysite;
; 512  : 
; 513  : 	//
; 514  : 	// calculate timer based on proximity to nearest keysite
; 515  : 	//
; 516  : 
; 517  : 	pos = get_local_entity_vec3d_ptr (en, VEC3D_TYPE_POSITION);

  00009	83 7d 08 00	 cmp	 DWORD PTR _en$[ebp], 0
  0000d	74 0a		 je	 SHORT $LN13@calculate_
  0000f	8b 45 08	 mov	 eax, DWORD PTR _en$[ebp]
  00012	8b 08		 mov	 ecx, DWORD PTR [eax]
  00014	89 4d 9c	 mov	 DWORD PTR tv70[ebp], ecx
  00017	eb 21		 jmp	 SHORT $LN14@calculate_
$LN13@calculate_:
  00019	8b 15 00 00 00
	00		 mov	 edx, DWORD PTR ?__LINE__Var@?0??calculate_mobile_death_timer_value@@YGMPAUENTITY@@@Z@4JA
  0001f	83 c2 12	 add	 edx, 18			; 00000012H
  00022	52		 push	 edx
  00023	68 00 00 00 00	 push	 OFFSET ??_C@_0ED@JCPIACOE@c?3?2users?2nhv90?2projects?2eech?2ap@
  00028	a1 00 00 00 00	 mov	 eax, DWORD PTR ?null_entity_pointer_message@@3PBDB ; null_entity_pointer_message
  0002d	50		 push	 eax
  0002e	e8 00 00 00 00	 call	 ?process_assert@@YGXPBD0H@Z ; process_assert
  00033	c7 45 9c 00 00
	00 00		 mov	 DWORD PTR tv70[ebp], 0
$LN14@calculate_:
  0003a	b9 01 00 00 00	 mov	 ecx, 1
  0003f	85 c9		 test	 ecx, ecx
  00041	74 09		 je	 SHORT $LN15@calculate_
  00043	c7 45 98 08 00
	00 00		 mov	 DWORD PTR tv78[ebp], 8
  0004a	eb 21		 jmp	 SHORT $LN16@calculate_
$LN15@calculate_:
  0004c	8b 15 00 00 00
	00		 mov	 edx, DWORD PTR ?__LINE__Var@?0??calculate_mobile_death_timer_value@@YGMPAUENTITY@@@Z@4JA
  00052	83 c2 12	 add	 edx, 18			; 00000012H
  00055	52		 push	 edx
  00056	68 00 00 00 00	 push	 OFFSET ??_C@_0ED@JCPIACOE@c?3?2users?2nhv90?2projects?2eech?2ap@
  0005b	a1 00 00 00 00	 mov	 eax, DWORD PTR ?overload_invalid_vec3d_type_message@@3PBDB ; overload_invalid_vec3d_type_message
  00060	50		 push	 eax
  00061	e8 00 00 00 00	 call	 ?process_assert@@YGXPBD0H@Z ; process_assert
  00066	c7 45 98 00 00
	00 00		 mov	 DWORD PTR tv78[ebp], 0
$LN16@calculate_:
  0006d	6a 08		 push	 8
  0006f	8b 4d 08	 mov	 ecx, DWORD PTR _en$[ebp]
  00072	51		 push	 ecx
  00073	6b 55 9c 60	 imul	 edx, DWORD PTR tv70[ebp], 96
  00077	8b 45 98	 mov	 eax, DWORD PTR tv78[ebp]
  0007a	8b 8c 82 00 00
	00 00		 mov	 ecx, DWORD PTR ?fn_get_local_entity_vec3d_ptr@@3PAY0BI@P6GPAUVEC3D@@PAUENTITY@@W4VEC3D_TYPES@@@ZA[edx+eax*4]
  00081	ff d1		 call	 ecx
  00083	89 45 fc	 mov	 DWORD PTR _pos$[ebp], eax

; 518  : 
; 519  : 	closest = FLT_MAX;

  00086	f3 0f 10 05 00
	00 00 00	 movss	 xmm0, DWORD PTR __real@7f7fffff
  0008e	f3 0f 11 45 ec	 movss	 DWORD PTR _closest$[ebp], xmm0

; 520  : 
; 521  : 	ASSERT (get_session_entity ());

  00093	83 3d 00 00 00
	00 00		 cmp	 DWORD PTR ?session_entity@@3PAUENTITY@@A, 0 ; session_entity
  0009a	75 18		 jne	 SHORT $LN6@calculate_
  0009c	a1 00 00 00 00	 mov	 eax, DWORD PTR ?__LINE__Var@?0??calculate_mobile_death_timer_value@@YGMPAUENTITY@@@Z@4JA
  000a1	83 c0 16	 add	 eax, 22			; 00000016H
  000a4	50		 push	 eax
  000a5	68 00 00 00 00	 push	 OFFSET ??_C@_0ED@JCPIACOE@c?3?2users?2nhv90?2projects?2eech?2ap@
  000aa	68 00 00 00 00	 push	 OFFSET ??_C@_0BG@EFCJJKAA@get_session_entity?5?$CI?$CJ@
  000af	e8 00 00 00 00	 call	 ?process_assert@@YGXPBD0H@Z ; process_assert
$LN6@calculate_:

; 522  : 
; 523  : 	force = get_local_entity_first_child (get_session_entity (), LIST_TYPE_FORCE);

  000b4	83 3d 00 00 00
	00 00		 cmp	 DWORD PTR ?session_entity@@3PAUENTITY@@A, 0 ; session_entity
  000bb	74 0c		 je	 SHORT $LN17@calculate_
  000bd	a1 00 00 00 00	 mov	 eax, DWORD PTR ?session_entity@@3PAUENTITY@@A ; session_entity
  000c2	8b 08		 mov	 ecx, DWORD PTR [eax]
  000c4	89 4d 9c	 mov	 DWORD PTR tv95[ebp], ecx
  000c7	eb 21		 jmp	 SHORT $LN18@calculate_
$LN17@calculate_:
  000c9	8b 15 00 00 00
	00		 mov	 edx, DWORD PTR ?__LINE__Var@?0??calculate_mobile_death_timer_value@@YGMPAUENTITY@@@Z@4JA
  000cf	83 c2 18	 add	 edx, 24			; 00000018H
  000d2	52		 push	 edx
  000d3	68 00 00 00 00	 push	 OFFSET ??_C@_0ED@JCPIACOE@c?3?2users?2nhv90?2projects?2eech?2ap@
  000d8	a1 00 00 00 00	 mov	 eax, DWORD PTR ?null_entity_pointer_message@@3PBDB ; null_entity_pointer_message
  000dd	50		 push	 eax
  000de	e8 00 00 00 00	 call	 ?process_assert@@YGXPBD0H@Z ; process_assert
  000e3	c7 45 9c 00 00
	00 00		 mov	 DWORD PTR tv95[ebp], 0
$LN18@calculate_:
  000ea	b9 01 00 00 00	 mov	 ecx, 1
  000ef	85 c9		 test	 ecx, ecx
  000f1	74 09		 je	 SHORT $LN19@calculate_
  000f3	c7 45 98 0e 00
	00 00		 mov	 DWORD PTR tv135[ebp], 14 ; 0000000eH
  000fa	eb 21		 jmp	 SHORT $LN20@calculate_
$LN19@calculate_:
  000fc	8b 15 00 00 00
	00		 mov	 edx, DWORD PTR ?__LINE__Var@?0??calculate_mobile_death_timer_value@@YGMPAUENTITY@@@Z@4JA
  00102	83 c2 18	 add	 edx, 24			; 00000018H
  00105	52		 push	 edx
  00106	68 00 00 00 00	 push	 OFFSET ??_C@_0ED@JCPIACOE@c?3?2users?2nhv90?2projects?2eech?2ap@
  0010b	a1 00 00 00 00	 mov	 eax, DWORD PTR ?overload_invalid_list_type_message@@3PBDB ; overload_invalid_list_type_message
  00110	50		 push	 eax
  00111	e8 00 00 00 00	 call	 ?process_assert@@YGXPBD0H@Z ; process_assert
  00116	c7 45 98 00 00
	00 00		 mov	 DWORD PTR tv135[ebp], 0
$LN20@calculate_:
  0011d	6a 0e		 push	 14			; 0000000eH
  0011f	8b 0d 00 00 00
	00		 mov	 ecx, DWORD PTR ?session_entity@@3PAUENTITY@@A ; session_entity
  00125	51		 push	 ecx
  00126	69 55 9c b4 00
	00 00		 imul	 edx, DWORD PTR tv95[ebp], 180
  0012d	8b 45 98	 mov	 eax, DWORD PTR tv135[ebp]
  00130	8b 8c 82 00 00
	00 00		 mov	 ecx, DWORD PTR ?fn_get_local_entity_first_child@@3PAY0CN@P6GPAUENTITY@@PAU1@W4LIST_TYPES@@@ZA[edx+eax*4]
  00137	ff d1		 call	 ecx
  00139	89 45 e8	 mov	 DWORD PTR _force$[ebp], eax
$LN2@calculate_:

; 524  : 
; 525  : 	while (force)

  0013c	83 7d e8 00	 cmp	 DWORD PTR _force$[ebp], 0
  00140	0f 84 36 02 00
	00		 je	 $LN3@calculate_

; 526  : 	{
; 527  : 		keysite = get_local_entity_first_child (force, LIST_TYPE_KEYSITE_FORCE);

  00146	83 7d e8 00	 cmp	 DWORD PTR _force$[ebp], 0
  0014a	74 0a		 je	 SHORT $LN21@calculate_
  0014c	8b 45 e8	 mov	 eax, DWORD PTR _force$[ebp]
  0014f	8b 08		 mov	 ecx, DWORD PTR [eax]
  00151	89 4d 9c	 mov	 DWORD PTR tv148[ebp], ecx
  00154	eb 21		 jmp	 SHORT $LN22@calculate_
$LN21@calculate_:
  00156	8b 15 00 00 00
	00		 mov	 edx, DWORD PTR ?__LINE__Var@?0??calculate_mobile_death_timer_value@@YGMPAUENTITY@@@Z@4JA
  0015c	83 c2 1c	 add	 edx, 28			; 0000001cH
  0015f	52		 push	 edx
  00160	68 00 00 00 00	 push	 OFFSET ??_C@_0ED@JCPIACOE@c?3?2users?2nhv90?2projects?2eech?2ap@
  00165	a1 00 00 00 00	 mov	 eax, DWORD PTR ?null_entity_pointer_message@@3PBDB ; null_entity_pointer_message
  0016a	50		 push	 eax
  0016b	e8 00 00 00 00	 call	 ?process_assert@@YGXPBD0H@Z ; process_assert
  00170	c7 45 9c 00 00
	00 00		 mov	 DWORD PTR tv148[ebp], 0
$LN22@calculate_:
  00177	b9 01 00 00 00	 mov	 ecx, 1
  0017c	85 c9		 test	 ecx, ecx
  0017e	74 09		 je	 SHORT $LN23@calculate_
  00180	c7 45 98 15 00
	00 00		 mov	 DWORD PTR tv156[ebp], 21 ; 00000015H
  00187	eb 21		 jmp	 SHORT $LN24@calculate_
$LN23@calculate_:
  00189	8b 15 00 00 00
	00		 mov	 edx, DWORD PTR ?__LINE__Var@?0??calculate_mobile_death_timer_value@@YGMPAUENTITY@@@Z@4JA
  0018f	83 c2 1c	 add	 edx, 28			; 0000001cH
  00192	52		 push	 edx
  00193	68 00 00 00 00	 push	 OFFSET ??_C@_0ED@JCPIACOE@c?3?2users?2nhv90?2projects?2eech?2ap@
  00198	a1 00 00 00 00	 mov	 eax, DWORD PTR ?overload_invalid_list_type_message@@3PBDB ; overload_invalid_list_type_message
  0019d	50		 push	 eax
  0019e	e8 00 00 00 00	 call	 ?process_assert@@YGXPBD0H@Z ; process_assert
  001a3	c7 45 98 00 00
	00 00		 mov	 DWORD PTR tv156[ebp], 0
$LN24@calculate_:
  001aa	6a 15		 push	 21			; 00000015H
  001ac	8b 4d e8	 mov	 ecx, DWORD PTR _force$[ebp]
  001af	51		 push	 ecx
  001b0	69 55 9c b4 00
	00 00		 imul	 edx, DWORD PTR tv148[ebp], 180
  001b7	8b 45 98	 mov	 eax, DWORD PTR tv156[ebp]
  001ba	8b 8c 82 00 00
	00 00		 mov	 ecx, DWORD PTR ?fn_get_local_entity_first_child@@3PAY0CN@P6GPAUENTITY@@PAU1@W4LIST_TYPES@@@ZA[edx+eax*4]
  001c1	ff d1		 call	 ecx
  001c3	89 45 e4	 mov	 DWORD PTR _keysite$[ebp], eax
$LN4@calculate_:

; 528  : 
; 529  : 		while (keysite)

  001c6	83 7d e4 00	 cmp	 DWORD PTR _keysite$[ebp], 0
  001ca	0f 84 27 01 00
	00		 je	 $LN5@calculate_

; 530  : 		{
; 531  : 			keysite_pos = get_local_entity_vec3d_ptr (keysite, VEC3D_TYPE_POSITION);

  001d0	83 7d e4 00	 cmp	 DWORD PTR _keysite$[ebp], 0
  001d4	74 0a		 je	 SHORT $LN25@calculate_
  001d6	8b 45 e4	 mov	 eax, DWORD PTR _keysite$[ebp]
  001d9	8b 08		 mov	 ecx, DWORD PTR [eax]
  001db	89 4d 9c	 mov	 DWORD PTR tv169[ebp], ecx
  001de	eb 21		 jmp	 SHORT $LN26@calculate_
$LN25@calculate_:
  001e0	8b 15 00 00 00
	00		 mov	 edx, DWORD PTR ?__LINE__Var@?0??calculate_mobile_death_timer_value@@YGMPAUENTITY@@@Z@4JA
  001e6	83 c2 20	 add	 edx, 32			; 00000020H
  001e9	52		 push	 edx
  001ea	68 00 00 00 00	 push	 OFFSET ??_C@_0ED@JCPIACOE@c?3?2users?2nhv90?2projects?2eech?2ap@
  001ef	a1 00 00 00 00	 mov	 eax, DWORD PTR ?null_entity_pointer_message@@3PBDB ; null_entity_pointer_message
  001f4	50		 push	 eax
  001f5	e8 00 00 00 00	 call	 ?process_assert@@YGXPBD0H@Z ; process_assert
  001fa	c7 45 9c 00 00
	00 00		 mov	 DWORD PTR tv169[ebp], 0
$LN26@calculate_:
  00201	b9 01 00 00 00	 mov	 ecx, 1
  00206	85 c9		 test	 ecx, ecx
  00208	74 09		 je	 SHORT $LN27@calculate_
  0020a	c7 45 98 08 00
	00 00		 mov	 DWORD PTR tv177[ebp], 8
  00211	eb 21		 jmp	 SHORT $LN28@calculate_
$LN27@calculate_:
  00213	8b 15 00 00 00
	00		 mov	 edx, DWORD PTR ?__LINE__Var@?0??calculate_mobile_death_timer_value@@YGMPAUENTITY@@@Z@4JA
  00219	83 c2 20	 add	 edx, 32			; 00000020H
  0021c	52		 push	 edx
  0021d	68 00 00 00 00	 push	 OFFSET ??_C@_0ED@JCPIACOE@c?3?2users?2nhv90?2projects?2eech?2ap@
  00222	a1 00 00 00 00	 mov	 eax, DWORD PTR ?overload_invalid_vec3d_type_message@@3PBDB ; overload_invalid_vec3d_type_message
  00227	50		 push	 eax
  00228	e8 00 00 00 00	 call	 ?process_assert@@YGXPBD0H@Z ; process_assert
  0022d	c7 45 98 00 00
	00 00		 mov	 DWORD PTR tv177[ebp], 0
$LN28@calculate_:
  00234	6a 08		 push	 8
  00236	8b 4d e4	 mov	 ecx, DWORD PTR _keysite$[ebp]
  00239	51		 push	 ecx
  0023a	6b 55 9c 60	 imul	 edx, DWORD PTR tv169[ebp], 96
  0023e	8b 45 98	 mov	 eax, DWORD PTR tv177[ebp]
  00241	8b 8c 82 00 00
	00 00		 mov	 ecx, DWORD PTR ?fn_get_local_entity_vec3d_ptr@@3PAY0BI@P6GPAUVEC3D@@PAUENTITY@@W4VEC3D_TYPES@@@ZA[edx+eax*4]
  00248	ff d1		 call	 ecx
  0024a	89 45 f8	 mov	 DWORD PTR _keysite_pos$[ebp], eax

; 532  : 
; 533  : 			range = get_sqr_2d_range (pos, keysite_pos);

  0024d	8b 45 f8	 mov	 eax, DWORD PTR _keysite_pos$[ebp]
  00250	50		 push	 eax
  00251	8b 4d fc	 mov	 ecx, DWORD PTR _pos$[ebp]
  00254	51		 push	 ecx
  00255	e8 00 00 00 00	 call	 ?get_sqr_2d_range@@YGMPBUVEC3D@@0@Z ; get_sqr_2d_range
  0025a	d9 5d f0	 fstp	 DWORD PTR _range$[ebp]

; 534  : 
; 535  : 			if (range < closest)

  0025d	f3 0f 10 45 ec	 movss	 xmm0, DWORD PTR _closest$[ebp]
  00262	0f 2f 45 f0	 comiss	 xmm0, DWORD PTR _range$[ebp]
  00266	76 0a		 jbe	 SHORT $LN7@calculate_

; 536  : 			{
; 537  : 				closest = range;

  00268	f3 0f 10 45 f0	 movss	 xmm0, DWORD PTR _range$[ebp]
  0026d	f3 0f 11 45 ec	 movss	 DWORD PTR _closest$[ebp], xmm0
$LN7@calculate_:

; 538  : 			}
; 539  : 
; 540  : 			keysite = get_local_entity_child_succ (keysite, LIST_TYPE_KEYSITE_FORCE);

  00272	83 7d e4 00	 cmp	 DWORD PTR _keysite$[ebp], 0
  00276	74 0a		 je	 SHORT $LN29@calculate_
  00278	8b 45 e4	 mov	 eax, DWORD PTR _keysite$[ebp]
  0027b	8b 08		 mov	 ecx, DWORD PTR [eax]
  0027d	89 4d 9c	 mov	 DWORD PTR tv193[ebp], ecx
  00280	eb 21		 jmp	 SHORT $LN30@calculate_
$LN29@calculate_:
  00282	8b 15 00 00 00
	00		 mov	 edx, DWORD PTR ?__LINE__Var@?0??calculate_mobile_death_timer_value@@YGMPAUENTITY@@@Z@4JA
  00288	83 c2 29	 add	 edx, 41			; 00000029H
  0028b	52		 push	 edx
  0028c	68 00 00 00 00	 push	 OFFSET ??_C@_0ED@JCPIACOE@c?3?2users?2nhv90?2projects?2eech?2ap@
  00291	a1 00 00 00 00	 mov	 eax, DWORD PTR ?null_entity_pointer_message@@3PBDB ; null_entity_pointer_message
  00296	50		 push	 eax
  00297	e8 00 00 00 00	 call	 ?process_assert@@YGXPBD0H@Z ; process_assert
  0029c	c7 45 9c 00 00
	00 00		 mov	 DWORD PTR tv193[ebp], 0
$LN30@calculate_:
  002a3	b9 01 00 00 00	 mov	 ecx, 1
  002a8	85 c9		 test	 ecx, ecx
  002aa	74 09		 je	 SHORT $LN31@calculate_
  002ac	c7 45 98 15 00
	00 00		 mov	 DWORD PTR tv201[ebp], 21 ; 00000015H
  002b3	eb 21		 jmp	 SHORT $LN32@calculate_
$LN31@calculate_:
  002b5	8b 15 00 00 00
	00		 mov	 edx, DWORD PTR ?__LINE__Var@?0??calculate_mobile_death_timer_value@@YGMPAUENTITY@@@Z@4JA
  002bb	83 c2 29	 add	 edx, 41			; 00000029H
  002be	52		 push	 edx
  002bf	68 00 00 00 00	 push	 OFFSET ??_C@_0ED@JCPIACOE@c?3?2users?2nhv90?2projects?2eech?2ap@
  002c4	a1 00 00 00 00	 mov	 eax, DWORD PTR ?overload_invalid_list_type_message@@3PBDB ; overload_invalid_list_type_message
  002c9	50		 push	 eax
  002ca	e8 00 00 00 00	 call	 ?process_assert@@YGXPBD0H@Z ; process_assert
  002cf	c7 45 98 00 00
	00 00		 mov	 DWORD PTR tv201[ebp], 0
$LN32@calculate_:
  002d6	6a 15		 push	 21			; 00000015H
  002d8	8b 4d e4	 mov	 ecx, DWORD PTR _keysite$[ebp]
  002db	51		 push	 ecx
  002dc	69 55 9c b4 00
	00 00		 imul	 edx, DWORD PTR tv193[ebp], 180
  002e3	8b 45 98	 mov	 eax, DWORD PTR tv201[ebp]
  002e6	8b 8c 82 00 00
	00 00		 mov	 ecx, DWORD PTR ?fn_get_local_entity_child_succ@@3PAY0CN@P6GPAUENTITY@@PAU1@W4LIST_TYPES@@@ZA[edx+eax*4]
  002ed	ff d1		 call	 ecx
  002ef	89 45 e4	 mov	 DWORD PTR _keysite$[ebp], eax

; 541  : 		}

  002f2	e9 cf fe ff ff	 jmp	 $LN4@calculate_
$LN5@calculate_:

; 542  : 
; 543  : 		force = get_local_entity_child_succ (force, LIST_TYPE_FORCE);

  002f7	83 7d e8 00	 cmp	 DWORD PTR _force$[ebp], 0
  002fb	74 0a		 je	 SHORT $LN33@calculate_
  002fd	8b 45 e8	 mov	 eax, DWORD PTR _force$[ebp]
  00300	8b 08		 mov	 ecx, DWORD PTR [eax]
  00302	89 4d 9c	 mov	 DWORD PTR tv213[ebp], ecx
  00305	eb 21		 jmp	 SHORT $LN34@calculate_
$LN33@calculate_:
  00307	8b 15 00 00 00
	00		 mov	 edx, DWORD PTR ?__LINE__Var@?0??calculate_mobile_death_timer_value@@YGMPAUENTITY@@@Z@4JA
  0030d	83 c2 2c	 add	 edx, 44			; 0000002cH
  00310	52		 push	 edx
  00311	68 00 00 00 00	 push	 OFFSET ??_C@_0ED@JCPIACOE@c?3?2users?2nhv90?2projects?2eech?2ap@
  00316	a1 00 00 00 00	 mov	 eax, DWORD PTR ?null_entity_pointer_message@@3PBDB ; null_entity_pointer_message
  0031b	50		 push	 eax
  0031c	e8 00 00 00 00	 call	 ?process_assert@@YGXPBD0H@Z ; process_assert
  00321	c7 45 9c 00 00
	00 00		 mov	 DWORD PTR tv213[ebp], 0
$LN34@calculate_:
  00328	b9 01 00 00 00	 mov	 ecx, 1
  0032d	85 c9		 test	 ecx, ecx
  0032f	74 09		 je	 SHORT $LN35@calculate_
  00331	c7 45 98 0e 00
	00 00		 mov	 DWORD PTR tv221[ebp], 14 ; 0000000eH
  00338	eb 21		 jmp	 SHORT $LN36@calculate_
$LN35@calculate_:
  0033a	8b 15 00 00 00
	00		 mov	 edx, DWORD PTR ?__LINE__Var@?0??calculate_mobile_death_timer_value@@YGMPAUENTITY@@@Z@4JA
  00340	83 c2 2c	 add	 edx, 44			; 0000002cH
  00343	52		 push	 edx
  00344	68 00 00 00 00	 push	 OFFSET ??_C@_0ED@JCPIACOE@c?3?2users?2nhv90?2projects?2eech?2ap@
  00349	a1 00 00 00 00	 mov	 eax, DWORD PTR ?overload_invalid_list_type_message@@3PBDB ; overload_invalid_list_type_message
  0034e	50		 push	 eax
  0034f	e8 00 00 00 00	 call	 ?process_assert@@YGXPBD0H@Z ; process_assert
  00354	c7 45 98 00 00
	00 00		 mov	 DWORD PTR tv221[ebp], 0
$LN36@calculate_:
  0035b	6a 0e		 push	 14			; 0000000eH
  0035d	8b 4d e8	 mov	 ecx, DWORD PTR _force$[ebp]
  00360	51		 push	 ecx
  00361	69 55 9c b4 00
	00 00		 imul	 edx, DWORD PTR tv213[ebp], 180
  00368	8b 45 98	 mov	 eax, DWORD PTR tv221[ebp]
  0036b	8b 8c 82 00 00
	00 00		 mov	 ecx, DWORD PTR ?fn_get_local_entity_child_succ@@3PAY0CN@P6GPAUENTITY@@PAU1@W4LIST_TYPES@@@ZA[edx+eax*4]
  00372	ff d1		 call	 ecx
  00374	89 45 e8	 mov	 DWORD PTR _force$[ebp], eax

; 544  : 	}

  00377	e9 c0 fd ff ff	 jmp	 $LN2@calculate_
$LN3@calculate_:

; 545  : 
; 546  : 	range = closest;

  0037c	f3 0f 10 45 ec	 movss	 xmm0, DWORD PTR _closest$[ebp]
  00381	f3 0f 11 45 f0	 movss	 DWORD PTR _range$[ebp], xmm0

; 547  : 
; 548  : 	if (range <= MIN_DEATH_TIMER_RANGE)

  00386	f3 0f 10 05 00
	00 00 00	 movss	 xmm0, DWORD PTR __real@49742400
  0038e	0f 2f 45 f0	 comiss	 xmm0, DWORD PTR _range$[ebp]
  00392	72 0f		 jb	 SHORT $LN8@calculate_

; 549  : 	{
; 550  : 		result = MIN_DEATH_TIMER_VALUE;

  00394	f3 0f 10 05 00
	00 00 00	 movss	 xmm0, DWORD PTR __real@43960000
  0039c	f3 0f 11 45 f4	 movss	 DWORD PTR _result$[ebp], xmm0
  003a1	eb 55		 jmp	 SHORT $LN11@calculate_
$LN8@calculate_:

; 551  : 	}
; 552  : 	else if (range >= MAX_DEATH_TIMER_RANGE)

  003a3	f3 0f 10 45 f0	 movss	 xmm0, DWORD PTR _range$[ebp]
  003a8	0f 2f 05 00 00
	00 00		 comiss	 xmm0, DWORD PTR __real@4cbebc20
  003af	72 0f		 jb	 SHORT $LN10@calculate_

; 553  : 	{
; 554  : 		result = MAX_DEATH_TIMER_VALUE;

  003b1	f3 0f 10 05 00
	00 00 00	 movss	 xmm0, DWORD PTR __real@4628c000
  003b9	f3 0f 11 45 f4	 movss	 DWORD PTR _result$[ebp], xmm0

; 555  : 	}
; 556  : 	else

  003be	eb 38		 jmp	 SHORT $LN11@calculate_
$LN10@calculate_:

; 557  : 	{
; 558  : 		float
; 559  : 			temp;
; 560  : 
; 561  : 		temp = ((range - MIN_DEATH_TIMER_RANGE) / (MAX_DEATH_TIMER_RANGE / MIN_DEATH_TIMER_RANGE));

  003c0	f3 0f 10 45 f0	 movss	 xmm0, DWORD PTR _range$[ebp]
  003c5	f3 0f 5c 05 00
	00 00 00	 subss	 xmm0, DWORD PTR __real@49742400
  003cd	f3 0f 5e 05 00
	00 00 00	 divss	 xmm0, DWORD PTR __real@4cbebc20
  003d5	f3 0f 11 45 e0	 movss	 DWORD PTR _temp$1[ebp], xmm0

; 562  : 
; 563  : 		result = MIN_DEATH_TIMER_VALUE + ((MAX_DEATH_TIMER_VALUE - MIN_DEATH_TIMER_VALUE) * temp);

  003da	f3 0f 5a 45 e0	 cvtss2sd xmm0, DWORD PTR _temp$1[ebp]
  003df	f2 0f 59 05 00
	00 00 00	 mulsd	 xmm0, QWORD PTR __real@40c4820000000000
  003e7	f2 0f 58 05 00
	00 00 00	 addsd	 xmm0, QWORD PTR __real@4072c00000000000
  003ef	f2 0f 5a c0	 cvtsd2ss xmm0, xmm0
  003f3	f3 0f 11 45 f4	 movss	 DWORD PTR _result$[ebp], xmm0
$LN11@calculate_:

; 564  : 	}
; 565  : 
; 566  : 	return result;

  003f8	d9 45 f4	 fld	 DWORD PTR _result$[ebp]

; 567  : }

  003fb	5f		 pop	 edi
  003fc	5e		 pop	 esi
  003fd	5b		 pop	 ebx
  003fe	8b e5		 mov	 esp, ebp
  00400	5d		 pop	 ebp
  00401	c2 04 00	 ret	 4
?calculate_mobile_death_timer_value@@YGMPAUENTITY@@@Z ENDP ; calculate_mobile_death_timer_value
_TEXT	ENDS
; Function compile flags: /Odtp /ZI
; File c:\users\nhv90\projects\eech\aphavoc\source\entity\mobile\mobile.c
;	COMDAT ?credit_client_server_mobile_kill@@YGXPAUENTITY@@0@Z
_TEXT	SEGMENT
tv374 = -100						; size = 4
tv346 = -100						; size = 4
tv323 = -100						; size = 4
tv285 = -100						; size = 4
tv264 = -100						; size = 4
tv238 = -100						; size = 4
tv217 = -100						; size = 4
tv192 = -100						; size = 4
tv171 = -100						; size = 4
tv150 = -100						; size = 4
tv93 = -100						; size = 4
tv366 = -96						; size = 4
tv339 = -96						; size = 4
tv316 = -96						; size = 4
tv277 = -96						; size = 4
tv256 = -96						; size = 4
tv230 = -96						; size = 4
tv209 = -96						; size = 4
tv184 = -96						; size = 4
tv163 = -96						; size = 4
tv142 = -96						; size = 4
tv85 = -96						; size = 4
_total$ = -28						; size = 4
_points$ = -24						; size = 4
_kills$ = -20						; size = 4
_side$ = -16						; size = 4
_group$ = -12						; size = 4
_task$ = -8						; size = 4
_force$ = -4						; size = 4
_victim$ = 8						; size = 4
_aggressor$ = 12					; size = 4
?credit_client_server_mobile_kill@@YGXPAUENTITY@@0@Z PROC ; credit_client_server_mobile_kill, COMDAT

; 366  : {

  00000	55		 push	 ebp
  00001	8b ec		 mov	 ebp, esp
  00003	83 ec 64	 sub	 esp, 100		; 00000064H
  00006	53		 push	 ebx
  00007	56		 push	 esi
  00008	57		 push	 edi

; 367  : 	entity
; 368  : 		*force,
; 369  : 		*task,
; 370  : 		*group;
; 371  : 
; 372  : 	int
; 373  : 		side,
; 374  : 		kills,
; 375  : 		points,
; 376  : 		total;
; 377  : 
; 378  : 	ASSERT (victim);

  00009	83 7d 08 00	 cmp	 DWORD PTR _victim$[ebp], 0
  0000d	75 18		 jne	 SHORT $LN2@credit_cli
  0000f	a1 00 00 00 00	 mov	 eax, DWORD PTR ?__LINE__Var@?0??credit_client_server_mobile_kill@@YGXPAUENTITY@@0@Z@4JA
  00014	83 c0 0c	 add	 eax, 12			; 0000000cH
  00017	50		 push	 eax
  00018	68 00 00 00 00	 push	 OFFSET ??_C@_0ED@JCPIACOE@c?3?2users?2nhv90?2projects?2eech?2ap@
  0001d	68 00 00 00 00	 push	 OFFSET ??_C@_06GPEKEEBB@victim@
  00022	e8 00 00 00 00	 call	 ?process_assert@@YGXPBD0H@Z ; process_assert
$LN2@credit_cli:

; 379  : 
; 380  : 	ASSERT (aggressor);

  00027	83 7d 0c 00	 cmp	 DWORD PTR _aggressor$[ebp], 0
  0002b	75 18		 jne	 SHORT $LN3@credit_cli
  0002d	a1 00 00 00 00	 mov	 eax, DWORD PTR ?__LINE__Var@?0??credit_client_server_mobile_kill@@YGXPAUENTITY@@0@Z@4JA
  00032	83 c0 0e	 add	 eax, 14			; 0000000eH
  00035	50		 push	 eax
  00036	68 00 00 00 00	 push	 OFFSET ??_C@_0ED@JCPIACOE@c?3?2users?2nhv90?2projects?2eech?2ap@
  0003b	68 00 00 00 00	 push	 OFFSET ??_C@_09HKMIOAOH@aggressor@
  00040	e8 00 00 00 00	 call	 ?process_assert@@YGXPBD0H@Z ; process_assert
$LN3@credit_cli:

; 381  : 
; 382  : 	ASSERT (get_comms_model () == COMMS_MODEL_SERVER);

  00045	83 3d 00 00 00
	00 00		 cmp	 DWORD PTR ?system_comms_model@@3W4COMMS_MODEL_TYPES@@A, 0 ; system_comms_model
  0004c	74 18		 je	 SHORT $LN4@credit_cli
  0004e	a1 00 00 00 00	 mov	 eax, DWORD PTR ?__LINE__Var@?0??credit_client_server_mobile_kill@@YGXPAUENTITY@@0@Z@4JA
  00053	83 c0 10	 add	 eax, 16			; 00000010H
  00056	50		 push	 eax
  00057	68 00 00 00 00	 push	 OFFSET ??_C@_0ED@JCPIACOE@c?3?2users?2nhv90?2projects?2eech?2ap@
  0005c	68 00 00 00 00	 push	 OFFSET ??_C@_0CJ@DMBLBJBK@get_comms_model?5?$CI?$CJ?5?$DN?$DN?5COMMS_MOD@
  00061	e8 00 00 00 00	 call	 ?process_assert@@YGXPBD0H@Z ; process_assert
$LN4@credit_cli:

; 383  : 
; 384  : 	// Victim should still be "alive" at this point
; 385  : 	ASSERT (get_local_entity_int_value (victim, INT_TYPE_ALIVE));

  00066	83 7d 08 00	 cmp	 DWORD PTR _victim$[ebp], 0
  0006a	74 0a		 je	 SHORT $LN15@credit_cli
  0006c	8b 45 08	 mov	 eax, DWORD PTR _victim$[ebp]
  0006f	8b 08		 mov	 ecx, DWORD PTR [eax]
  00071	89 4d a0	 mov	 DWORD PTR tv85[ebp], ecx
  00074	eb 21		 jmp	 SHORT $LN16@credit_cli
$LN15@credit_cli:
  00076	8b 15 00 00 00
	00		 mov	 edx, DWORD PTR ?__LINE__Var@?0??credit_client_server_mobile_kill@@YGXPAUENTITY@@0@Z@4JA
  0007c	83 c2 13	 add	 edx, 19			; 00000013H
  0007f	52		 push	 edx
  00080	68 00 00 00 00	 push	 OFFSET ??_C@_0ED@JCPIACOE@c?3?2users?2nhv90?2projects?2eech?2ap@
  00085	a1 00 00 00 00	 mov	 eax, DWORD PTR ?null_entity_pointer_message@@3PBDB ; null_entity_pointer_message
  0008a	50		 push	 eax
  0008b	e8 00 00 00 00	 call	 ?process_assert@@YGXPBD0H@Z ; process_assert
  00090	c7 45 a0 00 00
	00 00		 mov	 DWORD PTR tv85[ebp], 0
$LN16@credit_cli:
  00097	b9 01 00 00 00	 mov	 ecx, 1
  0009c	85 c9		 test	 ecx, ecx
  0009e	74 09		 je	 SHORT $LN17@credit_cli
  000a0	c7 45 9c 07 00
	00 00		 mov	 DWORD PTR tv93[ebp], 7
  000a7	eb 21		 jmp	 SHORT $LN18@credit_cli
$LN17@credit_cli:
  000a9	8b 15 00 00 00
	00		 mov	 edx, DWORD PTR ?__LINE__Var@?0??credit_client_server_mobile_kill@@YGXPAUENTITY@@0@Z@4JA
  000af	83 c2 13	 add	 edx, 19			; 00000013H
  000b2	52		 push	 edx
  000b3	68 00 00 00 00	 push	 OFFSET ??_C@_0ED@JCPIACOE@c?3?2users?2nhv90?2projects?2eech?2ap@
  000b8	a1 00 00 00 00	 mov	 eax, DWORD PTR ?overload_invalid_int_type_message@@3PBDB ; overload_invalid_int_type_message
  000bd	50		 push	 eax
  000be	e8 00 00 00 00	 call	 ?process_assert@@YGXPBD0H@Z ; process_assert
  000c3	c7 45 9c 00 00
	00 00		 mov	 DWORD PTR tv93[ebp], 0
$LN18@credit_cli:
  000ca	6a 07		 push	 7
  000cc	8b 4d 08	 mov	 ecx, DWORD PTR _victim$[ebp]
  000cf	51		 push	 ecx
  000d0	69 55 a0 5c 04
	00 00		 imul	 edx, DWORD PTR tv85[ebp], 1116
  000d7	8b 45 9c	 mov	 eax, DWORD PTR tv93[ebp]
  000da	8b 8c 82 00 00
	00 00		 mov	 ecx, DWORD PTR ?fn_get_local_entity_int_value@@3PAY0BBH@P6GHPAUENTITY@@W4INT_TYPES@@@ZA[edx+eax*4]
  000e1	ff d1		 call	 ecx
  000e3	85 c0		 test	 eax, eax
  000e5	75 18		 jne	 SHORT $LN5@credit_cli
  000e7	a1 00 00 00 00	 mov	 eax, DWORD PTR ?__LINE__Var@?0??credit_client_server_mobile_kill@@YGXPAUENTITY@@0@Z@4JA
  000ec	83 c0 13	 add	 eax, 19			; 00000013H
  000ef	50		 push	 eax
  000f0	68 00 00 00 00	 push	 OFFSET ??_C@_0ED@JCPIACOE@c?3?2users?2nhv90?2projects?2eech?2ap@
  000f5	68 00 00 00 00	 push	 OFFSET ??_C@_0DE@NHDCOFFE@get_local_entity_int_value?5?$CIvic@
  000fa	e8 00 00 00 00	 call	 ?process_assert@@YGXPBD0H@Z ; process_assert
$LN5@credit_cli:

; 386  : 
; 387  : 	//
; 388  : 	// Group kills
; 389  : 	//
; 390  : 
; 391  : 	group = get_local_entity_parent (aggressor, LIST_TYPE_MEMBER);

  000ff	83 7d 0c 00	 cmp	 DWORD PTR _aggressor$[ebp], 0
  00103	74 0a		 je	 SHORT $LN19@credit_cli
  00105	8b 45 0c	 mov	 eax, DWORD PTR _aggressor$[ebp]
  00108	8b 08		 mov	 ecx, DWORD PTR [eax]
  0010a	89 4d a0	 mov	 DWORD PTR tv142[ebp], ecx
  0010d	eb 21		 jmp	 SHORT $LN20@credit_cli
$LN19@credit_cli:
  0010f	8b 15 00 00 00
	00		 mov	 edx, DWORD PTR ?__LINE__Var@?0??credit_client_server_mobile_kill@@YGXPAUENTITY@@0@Z@4JA
  00115	83 c2 19	 add	 edx, 25			; 00000019H
  00118	52		 push	 edx
  00119	68 00 00 00 00	 push	 OFFSET ??_C@_0ED@JCPIACOE@c?3?2users?2nhv90?2projects?2eech?2ap@
  0011e	a1 00 00 00 00	 mov	 eax, DWORD PTR ?null_entity_pointer_message@@3PBDB ; null_entity_pointer_message
  00123	50		 push	 eax
  00124	e8 00 00 00 00	 call	 ?process_assert@@YGXPBD0H@Z ; process_assert
  00129	c7 45 a0 00 00
	00 00		 mov	 DWORD PTR tv142[ebp], 0
$LN20@credit_cli:
  00130	b9 01 00 00 00	 mov	 ecx, 1
  00135	85 c9		 test	 ecx, ecx
  00137	74 09		 je	 SHORT $LN21@credit_cli
  00139	c7 45 9c 19 00
	00 00		 mov	 DWORD PTR tv150[ebp], 25 ; 00000019H
  00140	eb 21		 jmp	 SHORT $LN22@credit_cli
$LN21@credit_cli:
  00142	8b 15 00 00 00
	00		 mov	 edx, DWORD PTR ?__LINE__Var@?0??credit_client_server_mobile_kill@@YGXPAUENTITY@@0@Z@4JA
  00148	83 c2 19	 add	 edx, 25			; 00000019H
  0014b	52		 push	 edx
  0014c	68 00 00 00 00	 push	 OFFSET ??_C@_0ED@JCPIACOE@c?3?2users?2nhv90?2projects?2eech?2ap@
  00151	a1 00 00 00 00	 mov	 eax, DWORD PTR ?overload_invalid_list_type_message@@3PBDB ; overload_invalid_list_type_message
  00156	50		 push	 eax
  00157	e8 00 00 00 00	 call	 ?process_assert@@YGXPBD0H@Z ; process_assert
  0015c	c7 45 9c 00 00
	00 00		 mov	 DWORD PTR tv150[ebp], 0
$LN22@credit_cli:
  00163	6a 19		 push	 25			; 00000019H
  00165	8b 4d 0c	 mov	 ecx, DWORD PTR _aggressor$[ebp]
  00168	51		 push	 ecx
  00169	69 55 a0 b4 00
	00 00		 imul	 edx, DWORD PTR tv142[ebp], 180
  00170	8b 45 9c	 mov	 eax, DWORD PTR tv150[ebp]
  00173	8b 8c 82 00 00
	00 00		 mov	 ecx, DWORD PTR ?fn_get_local_entity_parent@@3PAY0CN@P6GPAUENTITY@@PAU1@W4LIST_TYPES@@@ZA[edx+eax*4]
  0017a	ff d1		 call	 ecx
  0017c	89 45 f4	 mov	 DWORD PTR _group$[ebp], eax

; 392  : 
; 393  : 	if (group)

  0017f	83 7d f4 00	 cmp	 DWORD PTR _group$[ebp], 0
  00183	0f 84 12 01 00
	00		 je	 $LN6@credit_cli

; 394  : 	{
; 395  : 		kills = get_local_entity_int_value (group, INT_TYPE_KILLS);

  00189	83 7d f4 00	 cmp	 DWORD PTR _group$[ebp], 0
  0018d	74 0a		 je	 SHORT $LN23@credit_cli
  0018f	8b 45 f4	 mov	 eax, DWORD PTR _group$[ebp]
  00192	8b 08		 mov	 ecx, DWORD PTR [eax]
  00194	89 4d a0	 mov	 DWORD PTR tv163[ebp], ecx
  00197	eb 21		 jmp	 SHORT $LN24@credit_cli
$LN23@credit_cli:
  00199	8b 15 00 00 00
	00		 mov	 edx, DWORD PTR ?__LINE__Var@?0??credit_client_server_mobile_kill@@YGXPAUENTITY@@0@Z@4JA
  0019f	83 c2 1d	 add	 edx, 29			; 0000001dH
  001a2	52		 push	 edx
  001a3	68 00 00 00 00	 push	 OFFSET ??_C@_0ED@JCPIACOE@c?3?2users?2nhv90?2projects?2eech?2ap@
  001a8	a1 00 00 00 00	 mov	 eax, DWORD PTR ?null_entity_pointer_message@@3PBDB ; null_entity_pointer_message
  001ad	50		 push	 eax
  001ae	e8 00 00 00 00	 call	 ?process_assert@@YGXPBD0H@Z ; process_assert
  001b3	c7 45 a0 00 00
	00 00		 mov	 DWORD PTR tv163[ebp], 0
$LN24@credit_cli:
  001ba	b9 01 00 00 00	 mov	 ecx, 1
  001bf	85 c9		 test	 ecx, ecx
  001c1	74 09		 je	 SHORT $LN25@credit_cli
  001c3	c7 45 9c 72 00
	00 00		 mov	 DWORD PTR tv171[ebp], 114 ; 00000072H
  001ca	eb 21		 jmp	 SHORT $LN26@credit_cli
$LN25@credit_cli:
  001cc	8b 15 00 00 00
	00		 mov	 edx, DWORD PTR ?__LINE__Var@?0??credit_client_server_mobile_kill@@YGXPAUENTITY@@0@Z@4JA
  001d2	83 c2 1d	 add	 edx, 29			; 0000001dH
  001d5	52		 push	 edx
  001d6	68 00 00 00 00	 push	 OFFSET ??_C@_0ED@JCPIACOE@c?3?2users?2nhv90?2projects?2eech?2ap@
  001db	a1 00 00 00 00	 mov	 eax, DWORD PTR ?overload_invalid_int_type_message@@3PBDB ; overload_invalid_int_type_message
  001e0	50		 push	 eax
  001e1	e8 00 00 00 00	 call	 ?process_assert@@YGXPBD0H@Z ; process_assert
  001e6	c7 45 9c 00 00
	00 00		 mov	 DWORD PTR tv171[ebp], 0
$LN26@credit_cli:
  001ed	6a 72		 push	 114			; 00000072H
  001ef	8b 4d f4	 mov	 ecx, DWORD PTR _group$[ebp]
  001f2	51		 push	 ecx
  001f3	69 55 a0 5c 04
	00 00		 imul	 edx, DWORD PTR tv163[ebp], 1116
  001fa	8b 45 9c	 mov	 eax, DWORD PTR tv171[ebp]
  001fd	8b 8c 82 00 00
	00 00		 mov	 ecx, DWORD PTR ?fn_get_local_entity_int_value@@3PAY0BBH@P6GHPAUENTITY@@W4INT_TYPES@@@ZA[edx+eax*4]
  00204	ff d1		 call	 ecx
  00206	89 45 ec	 mov	 DWORD PTR _kills$[ebp], eax

; 396  : 
; 397  : 		kills ++;

  00209	8b 45 ec	 mov	 eax, DWORD PTR _kills$[ebp]
  0020c	83 c0 01	 add	 eax, 1
  0020f	89 45 ec	 mov	 DWORD PTR _kills$[ebp], eax

; 398  : 
; 399  : 		set_client_server_entity_int_value (group, INT_TYPE_KILLS, kills);

  00212	83 7d f4 00	 cmp	 DWORD PTR _group$[ebp], 0
  00216	74 0a		 je	 SHORT $LN27@credit_cli
  00218	8b 45 f4	 mov	 eax, DWORD PTR _group$[ebp]
  0021b	8b 08		 mov	 ecx, DWORD PTR [eax]
  0021d	89 4d a0	 mov	 DWORD PTR tv184[ebp], ecx
  00220	eb 21		 jmp	 SHORT $LN28@credit_cli
$LN27@credit_cli:
  00222	8b 15 00 00 00
	00		 mov	 edx, DWORD PTR ?__LINE__Var@?0??credit_client_server_mobile_kill@@YGXPAUENTITY@@0@Z@4JA
  00228	83 c2 21	 add	 edx, 33			; 00000021H
  0022b	52		 push	 edx
  0022c	68 00 00 00 00	 push	 OFFSET ??_C@_0ED@JCPIACOE@c?3?2users?2nhv90?2projects?2eech?2ap@
  00231	a1 00 00 00 00	 mov	 eax, DWORD PTR ?null_entity_pointer_message@@3PBDB ; null_entity_pointer_message
  00236	50		 push	 eax
  00237	e8 00 00 00 00	 call	 ?process_assert@@YGXPBD0H@Z ; process_assert
  0023c	c7 45 a0 00 00
	00 00		 mov	 DWORD PTR tv184[ebp], 0
$LN28@credit_cli:
  00243	b9 01 00 00 00	 mov	 ecx, 1
  00248	85 c9		 test	 ecx, ecx
  0024a	74 09		 je	 SHORT $LN29@credit_cli
  0024c	c7 45 9c 72 00
	00 00		 mov	 DWORD PTR tv192[ebp], 114 ; 00000072H
  00253	eb 21		 jmp	 SHORT $LN30@credit_cli
$LN29@credit_cli:
  00255	8b 15 00 00 00
	00		 mov	 edx, DWORD PTR ?__LINE__Var@?0??credit_client_server_mobile_kill@@YGXPAUENTITY@@0@Z@4JA
  0025b	83 c2 21	 add	 edx, 33			; 00000021H
  0025e	52		 push	 edx
  0025f	68 00 00 00 00	 push	 OFFSET ??_C@_0ED@JCPIACOE@c?3?2users?2nhv90?2projects?2eech?2ap@
  00264	a1 00 00 00 00	 mov	 eax, DWORD PTR ?overload_invalid_int_type_message@@3PBDB ; overload_invalid_int_type_message
  00269	50		 push	 eax
  0026a	e8 00 00 00 00	 call	 ?process_assert@@YGXPBD0H@Z ; process_assert
  0026f	c7 45 9c 00 00
	00 00		 mov	 DWORD PTR tv192[ebp], 0
$LN30@credit_cli:
  00276	8b 4d ec	 mov	 ecx, DWORD PTR _kills$[ebp]
  00279	51		 push	 ecx
  0027a	6a 72		 push	 114			; 00000072H
  0027c	8b 55 f4	 mov	 edx, DWORD PTR _group$[ebp]
  0027f	52		 push	 edx
  00280	69 45 a0 b8 08
	00 00		 imul	 eax, DWORD PTR tv184[ebp], 2232
  00287	8b 4d 9c	 mov	 ecx, DWORD PTR tv192[ebp]
  0028a	8d 94 c8 00 00
	00 00		 lea	 edx, DWORD PTR ?fn_set_client_server_entity_int_value@@3PAY1BBH@1P6GXPAUENTITY@@W4INT_TYPES@@H@ZA[eax+ecx*8]
  00291	a1 00 00 00 00	 mov	 eax, DWORD PTR ?system_comms_model@@3W4COMMS_MODEL_TYPES@@A ; system_comms_model
  00296	8b 0c 82	 mov	 ecx, DWORD PTR [edx+eax*4]
  00299	ff d1		 call	 ecx
$LN6@credit_cli:

; 400  : 	}
; 401  : 
; 402  : 	//
; 403  : 	// Task kills
; 404  : 	//
; 405  : 
; 406  : 	task = get_local_entity_primary_task (aggressor);

  0029b	8b 45 0c	 mov	 eax, DWORD PTR _aggressor$[ebp]
  0029e	50		 push	 eax
  0029f	e8 00 00 00 00	 call	 ?get_local_entity_primary_task@@YGPAUENTITY@@PAU1@@Z ; get_local_entity_primary_task
  002a4	89 45 f8	 mov	 DWORD PTR _task$[ebp], eax

; 407  : 
; 408  : 	if (task)

  002a7	83 7d f8 00	 cmp	 DWORD PTR _task$[ebp], 0
  002ab	0f 84 6b 02 00
	00		 je	 $LN7@credit_cli

; 409  : 	{
; 410  : 		kills = get_local_entity_int_value (task, INT_TYPE_KILLS);

  002b1	83 7d f8 00	 cmp	 DWORD PTR _task$[ebp], 0
  002b5	74 0a		 je	 SHORT $LN31@credit_cli
  002b7	8b 45 f8	 mov	 eax, DWORD PTR _task$[ebp]
  002ba	8b 08		 mov	 ecx, DWORD PTR [eax]
  002bc	89 4d a0	 mov	 DWORD PTR tv209[ebp], ecx
  002bf	eb 21		 jmp	 SHORT $LN32@credit_cli
$LN31@credit_cli:
  002c1	8b 15 00 00 00
	00		 mov	 edx, DWORD PTR ?__LINE__Var@?0??credit_client_server_mobile_kill@@YGXPAUENTITY@@0@Z@4JA
  002c7	83 c2 2c	 add	 edx, 44			; 0000002cH
  002ca	52		 push	 edx
  002cb	68 00 00 00 00	 push	 OFFSET ??_C@_0ED@JCPIACOE@c?3?2users?2nhv90?2projects?2eech?2ap@
  002d0	a1 00 00 00 00	 mov	 eax, DWORD PTR ?null_entity_pointer_message@@3PBDB ; null_entity_pointer_message
  002d5	50		 push	 eax
  002d6	e8 00 00 00 00	 call	 ?process_assert@@YGXPBD0H@Z ; process_assert
  002db	c7 45 a0 00 00
	00 00		 mov	 DWORD PTR tv209[ebp], 0
$LN32@credit_cli:
  002e2	b9 01 00 00 00	 mov	 ecx, 1
  002e7	85 c9		 test	 ecx, ecx
  002e9	74 09		 je	 SHORT $LN33@credit_cli
  002eb	c7 45 9c 72 00
	00 00		 mov	 DWORD PTR tv217[ebp], 114 ; 00000072H
  002f2	eb 21		 jmp	 SHORT $LN34@credit_cli
$LN33@credit_cli:
  002f4	8b 15 00 00 00
	00		 mov	 edx, DWORD PTR ?__LINE__Var@?0??credit_client_server_mobile_kill@@YGXPAUENTITY@@0@Z@4JA
  002fa	83 c2 2c	 add	 edx, 44			; 0000002cH
  002fd	52		 push	 edx
  002fe	68 00 00 00 00	 push	 OFFSET ??_C@_0ED@JCPIACOE@c?3?2users?2nhv90?2projects?2eech?2ap@
  00303	a1 00 00 00 00	 mov	 eax, DWORD PTR ?overload_invalid_int_type_message@@3PBDB ; overload_invalid_int_type_message
  00308	50		 push	 eax
  00309	e8 00 00 00 00	 call	 ?process_assert@@YGXPBD0H@Z ; process_assert
  0030e	c7 45 9c 00 00
	00 00		 mov	 DWORD PTR tv217[ebp], 0
$LN34@credit_cli:
  00315	6a 72		 push	 114			; 00000072H
  00317	8b 4d f8	 mov	 ecx, DWORD PTR _task$[ebp]
  0031a	51		 push	 ecx
  0031b	69 55 a0 5c 04
	00 00		 imul	 edx, DWORD PTR tv209[ebp], 1116
  00322	8b 45 9c	 mov	 eax, DWORD PTR tv217[ebp]
  00325	8b 8c 82 00 00
	00 00		 mov	 ecx, DWORD PTR ?fn_get_local_entity_int_value@@3PAY0BBH@P6GHPAUENTITY@@W4INT_TYPES@@@ZA[edx+eax*4]
  0032c	ff d1		 call	 ecx
  0032e	89 45 ec	 mov	 DWORD PTR _kills$[ebp], eax

; 411  : 
; 412  : 		kills ++;

  00331	8b 45 ec	 mov	 eax, DWORD PTR _kills$[ebp]
  00334	83 c0 01	 add	 eax, 1
  00337	89 45 ec	 mov	 DWORD PTR _kills$[ebp], eax

; 413  : 
; 414  : 		set_client_server_entity_int_value (task, INT_TYPE_KILLS, kills);

  0033a	83 7d f8 00	 cmp	 DWORD PTR _task$[ebp], 0
  0033e	74 0a		 je	 SHORT $LN35@credit_cli
  00340	8b 45 f8	 mov	 eax, DWORD PTR _task$[ebp]
  00343	8b 08		 mov	 ecx, DWORD PTR [eax]
  00345	89 4d a0	 mov	 DWORD PTR tv230[ebp], ecx
  00348	eb 21		 jmp	 SHORT $LN36@credit_cli
$LN35@credit_cli:
  0034a	8b 15 00 00 00
	00		 mov	 edx, DWORD PTR ?__LINE__Var@?0??credit_client_server_mobile_kill@@YGXPAUENTITY@@0@Z@4JA
  00350	83 c2 30	 add	 edx, 48			; 00000030H
  00353	52		 push	 edx
  00354	68 00 00 00 00	 push	 OFFSET ??_C@_0ED@JCPIACOE@c?3?2users?2nhv90?2projects?2eech?2ap@
  00359	a1 00 00 00 00	 mov	 eax, DWORD PTR ?null_entity_pointer_message@@3PBDB ; null_entity_pointer_message
  0035e	50		 push	 eax
  0035f	e8 00 00 00 00	 call	 ?process_assert@@YGXPBD0H@Z ; process_assert
  00364	c7 45 a0 00 00
	00 00		 mov	 DWORD PTR tv230[ebp], 0
$LN36@credit_cli:
  0036b	b9 01 00 00 00	 mov	 ecx, 1
  00370	85 c9		 test	 ecx, ecx
  00372	74 09		 je	 SHORT $LN37@credit_cli
  00374	c7 45 9c 72 00
	00 00		 mov	 DWORD PTR tv238[ebp], 114 ; 00000072H
  0037b	eb 21		 jmp	 SHORT $LN38@credit_cli
$LN37@credit_cli:
  0037d	8b 15 00 00 00
	00		 mov	 edx, DWORD PTR ?__LINE__Var@?0??credit_client_server_mobile_kill@@YGXPAUENTITY@@0@Z@4JA
  00383	83 c2 30	 add	 edx, 48			; 00000030H
  00386	52		 push	 edx
  00387	68 00 00 00 00	 push	 OFFSET ??_C@_0ED@JCPIACOE@c?3?2users?2nhv90?2projects?2eech?2ap@
  0038c	a1 00 00 00 00	 mov	 eax, DWORD PTR ?overload_invalid_int_type_message@@3PBDB ; overload_invalid_int_type_message
  00391	50		 push	 eax
  00392	e8 00 00 00 00	 call	 ?process_assert@@YGXPBD0H@Z ; process_assert
  00397	c7 45 9c 00 00
	00 00		 mov	 DWORD PTR tv238[ebp], 0
$LN38@credit_cli:
  0039e	8b 4d ec	 mov	 ecx, DWORD PTR _kills$[ebp]
  003a1	51		 push	 ecx
  003a2	6a 72		 push	 114			; 00000072H
  003a4	8b 55 f8	 mov	 edx, DWORD PTR _task$[ebp]
  003a7	52		 push	 edx
  003a8	69 45 a0 b8 08
	00 00		 imul	 eax, DWORD PTR tv230[ebp], 2232
  003af	8b 4d 9c	 mov	 ecx, DWORD PTR tv238[ebp]
  003b2	8d 94 c8 00 00
	00 00		 lea	 edx, DWORD PTR ?fn_set_client_server_entity_int_value@@3PAY1BBH@1P6GXPAUENTITY@@W4INT_TYPES@@H@ZA[eax+ecx*8]
  003b9	a1 00 00 00 00	 mov	 eax, DWORD PTR ?system_comms_model@@3W4COMMS_MODEL_TYPES@@A ; system_comms_model
  003be	8b 0c 82	 mov	 ecx, DWORD PTR [edx+eax*4]
  003c1	ff d1		 call	 ecx

; 415  : 
; 416  : 		points = calculate_task_points_for_kill (victim, aggressor);

  003c3	8b 45 0c	 mov	 eax, DWORD PTR _aggressor$[ebp]
  003c6	50		 push	 eax
  003c7	8b 4d 08	 mov	 ecx, DWORD PTR _victim$[ebp]
  003ca	51		 push	 ecx
  003cb	e8 00 00 00 00	 call	 ?calculate_task_points_for_kill@@YGHPAUENTITY@@0@Z ; calculate_task_points_for_kill
  003d0	89 45 e8	 mov	 DWORD PTR _points$[ebp], eax

; 417  : 
; 418  : 		if (points > 0)

  003d3	83 7d e8 00	 cmp	 DWORD PTR _points$[ebp], 0
  003d7	0f 8e 18 01 00
	00		 jle	 $LN8@credit_cli

; 419  : 		{
; 420  : 			total = get_local_entity_int_value (task, INT_TYPE_TASK_SCORE);

  003dd	83 7d f8 00	 cmp	 DWORD PTR _task$[ebp], 0
  003e1	74 0a		 je	 SHORT $LN39@credit_cli
  003e3	8b 45 f8	 mov	 eax, DWORD PTR _task$[ebp]
  003e6	8b 08		 mov	 ecx, DWORD PTR [eax]
  003e8	89 4d a0	 mov	 DWORD PTR tv256[ebp], ecx
  003eb	eb 21		 jmp	 SHORT $LN40@credit_cli
$LN39@credit_cli:
  003ed	8b 15 00 00 00
	00		 mov	 edx, DWORD PTR ?__LINE__Var@?0??credit_client_server_mobile_kill@@YGXPAUENTITY@@0@Z@4JA
  003f3	83 c2 36	 add	 edx, 54			; 00000036H
  003f6	52		 push	 edx
  003f7	68 00 00 00 00	 push	 OFFSET ??_C@_0ED@JCPIACOE@c?3?2users?2nhv90?2projects?2eech?2ap@
  003fc	a1 00 00 00 00	 mov	 eax, DWORD PTR ?null_entity_pointer_message@@3PBDB ; null_entity_pointer_message
  00401	50		 push	 eax
  00402	e8 00 00 00 00	 call	 ?process_assert@@YGXPBD0H@Z ; process_assert
  00407	c7 45 a0 00 00
	00 00		 mov	 DWORD PTR tv256[ebp], 0
$LN40@credit_cli:
  0040e	b9 01 00 00 00	 mov	 ecx, 1
  00413	85 c9		 test	 ecx, ecx
  00415	74 09		 je	 SHORT $LN41@credit_cli
  00417	c7 45 9c e2 00
	00 00		 mov	 DWORD PTR tv264[ebp], 226 ; 000000e2H
  0041e	eb 21		 jmp	 SHORT $LN42@credit_cli
$LN41@credit_cli:
  00420	8b 15 00 00 00
	00		 mov	 edx, DWORD PTR ?__LINE__Var@?0??credit_client_server_mobile_kill@@YGXPAUENTITY@@0@Z@4JA
  00426	83 c2 36	 add	 edx, 54			; 00000036H
  00429	52		 push	 edx
  0042a	68 00 00 00 00	 push	 OFFSET ??_C@_0ED@JCPIACOE@c?3?2users?2nhv90?2projects?2eech?2ap@
  0042f	a1 00 00 00 00	 mov	 eax, DWORD PTR ?overload_invalid_int_type_message@@3PBDB ; overload_invalid_int_type_message
  00434	50		 push	 eax
  00435	e8 00 00 00 00	 call	 ?process_assert@@YGXPBD0H@Z ; process_assert
  0043a	c7 45 9c 00 00
	00 00		 mov	 DWORD PTR tv264[ebp], 0
$LN42@credit_cli:
  00441	68 e2 00 00 00	 push	 226			; 000000e2H
  00446	8b 4d f8	 mov	 ecx, DWORD PTR _task$[ebp]
  00449	51		 push	 ecx
  0044a	69 55 a0 5c 04
	00 00		 imul	 edx, DWORD PTR tv256[ebp], 1116
  00451	8b 45 9c	 mov	 eax, DWORD PTR tv264[ebp]
  00454	8b 8c 82 00 00
	00 00		 mov	 ecx, DWORD PTR ?fn_get_local_entity_int_value@@3PAY0BBH@P6GHPAUENTITY@@W4INT_TYPES@@@ZA[edx+eax*4]
  0045b	ff d1		 call	 ecx
  0045d	89 45 e4	 mov	 DWORD PTR _total$[ebp], eax

; 421  : 
; 422  : 			total += points;

  00460	8b 45 e4	 mov	 eax, DWORD PTR _total$[ebp]
  00463	03 45 e8	 add	 eax, DWORD PTR _points$[ebp]
  00466	89 45 e4	 mov	 DWORD PTR _total$[ebp], eax

; 423  : 
; 424  : 			set_client_server_entity_int_value (task, INT_TYPE_TASK_SCORE, total);

  00469	83 7d f8 00	 cmp	 DWORD PTR _task$[ebp], 0
  0046d	74 0a		 je	 SHORT $LN43@credit_cli
  0046f	8b 45 f8	 mov	 eax, DWORD PTR _task$[ebp]
  00472	8b 08		 mov	 ecx, DWORD PTR [eax]
  00474	89 4d a0	 mov	 DWORD PTR tv277[ebp], ecx
  00477	eb 21		 jmp	 SHORT $LN44@credit_cli
$LN43@credit_cli:
  00479	8b 15 00 00 00
	00		 mov	 edx, DWORD PTR ?__LINE__Var@?0??credit_client_server_mobile_kill@@YGXPAUENTITY@@0@Z@4JA
  0047f	83 c2 3a	 add	 edx, 58			; 0000003aH
  00482	52		 push	 edx
  00483	68 00 00 00 00	 push	 OFFSET ??_C@_0ED@JCPIACOE@c?3?2users?2nhv90?2projects?2eech?2ap@
  00488	a1 00 00 00 00	 mov	 eax, DWORD PTR ?null_entity_pointer_message@@3PBDB ; null_entity_pointer_message
  0048d	50		 push	 eax
  0048e	e8 00 00 00 00	 call	 ?process_assert@@YGXPBD0H@Z ; process_assert
  00493	c7 45 a0 00 00
	00 00		 mov	 DWORD PTR tv277[ebp], 0
$LN44@credit_cli:
  0049a	b9 01 00 00 00	 mov	 ecx, 1
  0049f	85 c9		 test	 ecx, ecx
  004a1	74 09		 je	 SHORT $LN45@credit_cli
  004a3	c7 45 9c e2 00
	00 00		 mov	 DWORD PTR tv285[ebp], 226 ; 000000e2H
  004aa	eb 21		 jmp	 SHORT $LN46@credit_cli
$LN45@credit_cli:
  004ac	8b 15 00 00 00
	00		 mov	 edx, DWORD PTR ?__LINE__Var@?0??credit_client_server_mobile_kill@@YGXPAUENTITY@@0@Z@4JA
  004b2	83 c2 3a	 add	 edx, 58			; 0000003aH
  004b5	52		 push	 edx
  004b6	68 00 00 00 00	 push	 OFFSET ??_C@_0ED@JCPIACOE@c?3?2users?2nhv90?2projects?2eech?2ap@
  004bb	a1 00 00 00 00	 mov	 eax, DWORD PTR ?overload_invalid_int_type_message@@3PBDB ; overload_invalid_int_type_message
  004c0	50		 push	 eax
  004c1	e8 00 00 00 00	 call	 ?process_assert@@YGXPBD0H@Z ; process_assert
  004c6	c7 45 9c 00 00
	00 00		 mov	 DWORD PTR tv285[ebp], 0
$LN46@credit_cli:
  004cd	8b 4d e4	 mov	 ecx, DWORD PTR _total$[ebp]
  004d0	51		 push	 ecx
  004d1	68 e2 00 00 00	 push	 226			; 000000e2H
  004d6	8b 55 f8	 mov	 edx, DWORD PTR _task$[ebp]
  004d9	52		 push	 edx
  004da	69 45 a0 b8 08
	00 00		 imul	 eax, DWORD PTR tv277[ebp], 2232
  004e1	8b 4d 9c	 mov	 ecx, DWORD PTR tv285[ebp]
  004e4	8d 94 c8 00 00
	00 00		 lea	 edx, DWORD PTR ?fn_set_client_server_entity_int_value@@3PAY1BBH@1P6GXPAUENTITY@@W4INT_TYPES@@H@ZA[eax+ecx*8]
  004eb	a1 00 00 00 00	 mov	 eax, DWORD PTR ?system_comms_model@@3W4COMMS_MODEL_TYPES@@A ; system_comms_model
  004f0	8b 0c 82	 mov	 ecx, DWORD PTR [edx+eax*4]
  004f3	ff d1		 call	 ecx
$LN8@credit_cli:

; 425  : 		}
; 426  : 
; 427  : 		add_kill_to_task (task, victim, aggressor);

  004f5	8b 45 0c	 mov	 eax, DWORD PTR _aggressor$[ebp]
  004f8	50		 push	 eax
  004f9	8b 4d 08	 mov	 ecx, DWORD PTR _victim$[ebp]
  004fc	51		 push	 ecx
  004fd	8b 55 f8	 mov	 edx, DWORD PTR _task$[ebp]
  00500	52		 push	 edx
  00501	e8 00 00 00 00	 call	 ?add_kill_to_task@@YGXPAUENTITY@@00@Z ; add_kill_to_task

; 428  : 	
; 429  : 		transmit_entity_comms_message (ENTITY_COMMS_TASK_KILL, task, victim, aggressor);

  00506	8b 45 0c	 mov	 eax, DWORD PTR _aggressor$[ebp]
  00509	50		 push	 eax
  0050a	8b 4d 08	 mov	 ecx, DWORD PTR _victim$[ebp]
  0050d	51		 push	 ecx
  0050e	8b 55 f8	 mov	 edx, DWORD PTR _task$[ebp]
  00511	52		 push	 edx
  00512	6a 3c		 push	 60			; 0000003cH
  00514	e8 00 00 00 00	 call	 ?transmit_entity_comms_message@@YAXW4ENTITY_COMMS_MESSAGES@@PAUENTITY@@ZZ ; transmit_entity_comms_message
  00519	83 c4 10	 add	 esp, 16			; 00000010H
$LN7@credit_cli:

; 430  : 	}
; 431  : 
; 432  : 	//
; 433  : 	// Task losses
; 434  : 	//
; 435  : 
; 436  : 	task = get_local_entity_primary_task (victim);

  0051c	8b 45 08	 mov	 eax, DWORD PTR _victim$[ebp]
  0051f	50		 push	 eax
  00520	e8 00 00 00 00	 call	 ?get_local_entity_primary_task@@YGPAUENTITY@@PAU1@@Z ; get_local_entity_primary_task
  00525	89 45 f8	 mov	 DWORD PTR _task$[ebp], eax

; 437  : 
; 438  : 	if (task)

  00528	83 7d f8 00	 cmp	 DWORD PTR _task$[ebp], 0
  0052c	74 27		 je	 SHORT $LN9@credit_cli

; 439  : 	{
; 440  : 		add_loss_to_task (task, victim, aggressor);

  0052e	8b 45 0c	 mov	 eax, DWORD PTR _aggressor$[ebp]
  00531	50		 push	 eax
  00532	8b 4d 08	 mov	 ecx, DWORD PTR _victim$[ebp]
  00535	51		 push	 ecx
  00536	8b 55 f8	 mov	 edx, DWORD PTR _task$[ebp]
  00539	52		 push	 edx
  0053a	e8 00 00 00 00	 call	 ?add_loss_to_task@@YGXPAUENTITY@@00@Z ; add_loss_to_task

; 441  : 	
; 442  : 		transmit_entity_comms_message (ENTITY_COMMS_TASK_LOSS, task, victim, aggressor);

  0053f	8b 45 0c	 mov	 eax, DWORD PTR _aggressor$[ebp]
  00542	50		 push	 eax
  00543	8b 4d 08	 mov	 ecx, DWORD PTR _victim$[ebp]
  00546	51		 push	 ecx
  00547	8b 55 f8	 mov	 edx, DWORD PTR _task$[ebp]
  0054a	52		 push	 edx
  0054b	6a 3d		 push	 61			; 0000003dH
  0054d	e8 00 00 00 00	 call	 ?transmit_entity_comms_message@@YAXW4ENTITY_COMMS_MESSAGES@@PAUENTITY@@ZZ ; transmit_entity_comms_message
  00552	83 c4 10	 add	 esp, 16			; 00000010H
$LN9@credit_cli:

; 443  : 	}
; 444  : 
; 445  : 	//
; 446  : 	// Player kills
; 447  : 	//
; 448  : 
; 449  : 	if (get_game_type () != GAME_TYPE_FREE_FLIGHT)

  00555	83 3d 00 00 00
	00 01		 cmp	 DWORD PTR ?game_type@@3W4GAME_TYPES@@A, 1 ; game_type
  0055c	0f 84 27 01 00
	00		 je	 $LN10@credit_cli

; 450  : 	{
; 451  : 		if (get_local_entity_int_value (aggressor, INT_TYPE_PLAYER) == ENTITY_PLAYER_LOCAL)

  00562	83 7d 0c 00	 cmp	 DWORD PTR _aggressor$[ebp], 0
  00566	74 0a		 je	 SHORT $LN47@credit_cli
  00568	8b 45 0c	 mov	 eax, DWORD PTR _aggressor$[ebp]
  0056b	8b 08		 mov	 ecx, DWORD PTR [eax]
  0056d	89 4d a0	 mov	 DWORD PTR tv316[ebp], ecx
  00570	eb 1d		 jmp	 SHORT $LN48@credit_cli
$LN47@credit_cli:
  00572	68 c3 01 00 00	 push	 451			; 000001c3H
  00577	68 00 00 00 00	 push	 OFFSET ??_C@_0ED@JCPIACOE@c?3?2users?2nhv90?2projects?2eech?2ap@
  0057c	8b 15 00 00 00
	00		 mov	 edx, DWORD PTR ?null_entity_pointer_message@@3PBDB ; null_entity_pointer_message
  00582	52		 push	 edx
  00583	e8 00 00 00 00	 call	 ?process_assert@@YGXPBD0H@Z ; process_assert
  00588	c7 45 a0 00 00
	00 00		 mov	 DWORD PTR tv316[ebp], 0
$LN48@credit_cli:
  0058f	b8 01 00 00 00	 mov	 eax, 1
  00594	85 c0		 test	 eax, eax
  00596	74 09		 je	 SHORT $LN49@credit_cli
  00598	c7 45 9c 9c 00
	00 00		 mov	 DWORD PTR tv323[ebp], 156 ; 0000009cH
  0059f	eb 1d		 jmp	 SHORT $LN50@credit_cli
$LN49@credit_cli:
  005a1	68 c3 01 00 00	 push	 451			; 000001c3H
  005a6	68 00 00 00 00	 push	 OFFSET ??_C@_0ED@JCPIACOE@c?3?2users?2nhv90?2projects?2eech?2ap@
  005ab	8b 0d 00 00 00
	00		 mov	 ecx, DWORD PTR ?overload_invalid_int_type_message@@3PBDB ; overload_invalid_int_type_message
  005b1	51		 push	 ecx
  005b2	e8 00 00 00 00	 call	 ?process_assert@@YGXPBD0H@Z ; process_assert
  005b7	c7 45 9c 00 00
	00 00		 mov	 DWORD PTR tv323[ebp], 0
$LN50@credit_cli:
  005be	68 9c 00 00 00	 push	 156			; 0000009cH
  005c3	8b 55 0c	 mov	 edx, DWORD PTR _aggressor$[ebp]
  005c6	52		 push	 edx
  005c7	69 45 a0 5c 04
	00 00		 imul	 eax, DWORD PTR tv316[ebp], 1116
  005ce	8b 4d 9c	 mov	 ecx, DWORD PTR tv323[ebp]
  005d1	8b 94 88 00 00
	00 00		 mov	 edx, DWORD PTR ?fn_get_local_entity_int_value@@3PAY0BBH@P6GHPAUENTITY@@W4INT_TYPES@@@ZA[eax+ecx*4]
  005d8	ff d2		 call	 edx
  005da	83 f8 01	 cmp	 eax, 1
  005dd	75 1b		 jne	 SHORT $LN11@credit_cli

; 452  : 		{
; 453  : 			inc_player_log_kills (get_global_gunship_side (), get_current_player_log (), victim);

  005df	8b 45 08	 mov	 eax, DWORD PTR _victim$[ebp]
  005e2	50		 push	 eax
  005e3	e8 00 00 00 00	 call	 ?get_current_player_log@@YGPAUPLAYER_LOG_TYPE@@XZ ; get_current_player_log
  005e8	50		 push	 eax
  005e9	8b 0d 08 00 00
	00		 mov	 ecx, DWORD PTR ?global_options@@3UGLOBAL_OPTIONS_DATA@@A+8
  005ef	51		 push	 ecx
  005f0	e8 00 00 00 00	 call	 ?inc_player_log_kills@@YGXHPAUPLAYER_LOG_TYPE@@PAUENTITY@@@Z ; inc_player_log_kills
  005f5	e9 8f 00 00 00	 jmp	 $LN10@credit_cli
$LN11@credit_cli:

; 454  : 		}
; 455  : 		else if (get_local_entity_int_value (aggressor, INT_TYPE_PLAYER) == ENTITY_PLAYER_REMOTE)

  005fa	83 7d 0c 00	 cmp	 DWORD PTR _aggressor$[ebp], 0
  005fe	74 0a		 je	 SHORT $LN51@credit_cli
  00600	8b 45 0c	 mov	 eax, DWORD PTR _aggressor$[ebp]
  00603	8b 08		 mov	 ecx, DWORD PTR [eax]
  00605	89 4d a0	 mov	 DWORD PTR tv339[ebp], ecx
  00608	eb 1d		 jmp	 SHORT $LN52@credit_cli
$LN51@credit_cli:
  0060a	68 c7 01 00 00	 push	 455			; 000001c7H
  0060f	68 00 00 00 00	 push	 OFFSET ??_C@_0ED@JCPIACOE@c?3?2users?2nhv90?2projects?2eech?2ap@
  00614	8b 15 00 00 00
	00		 mov	 edx, DWORD PTR ?null_entity_pointer_message@@3PBDB ; null_entity_pointer_message
  0061a	52		 push	 edx
  0061b	e8 00 00 00 00	 call	 ?process_assert@@YGXPBD0H@Z ; process_assert
  00620	c7 45 a0 00 00
	00 00		 mov	 DWORD PTR tv339[ebp], 0
$LN52@credit_cli:
  00627	b8 01 00 00 00	 mov	 eax, 1
  0062c	85 c0		 test	 eax, eax
  0062e	74 09		 je	 SHORT $LN53@credit_cli
  00630	c7 45 9c 9c 00
	00 00		 mov	 DWORD PTR tv346[ebp], 156 ; 0000009cH
  00637	eb 1d		 jmp	 SHORT $LN54@credit_cli
$LN53@credit_cli:
  00639	68 c7 01 00 00	 push	 455			; 000001c7H
  0063e	68 00 00 00 00	 push	 OFFSET ??_C@_0ED@JCPIACOE@c?3?2users?2nhv90?2projects?2eech?2ap@
  00643	8b 0d 00 00 00
	00		 mov	 ecx, DWORD PTR ?overload_invalid_int_type_message@@3PBDB ; overload_invalid_int_type_message
  00649	51		 push	 ecx
  0064a	e8 00 00 00 00	 call	 ?process_assert@@YGXPBD0H@Z ; process_assert
  0064f	c7 45 9c 00 00
	00 00		 mov	 DWORD PTR tv346[ebp], 0
$LN54@credit_cli:
  00656	68 9c 00 00 00	 push	 156			; 0000009cH
  0065b	8b 55 0c	 mov	 edx, DWORD PTR _aggressor$[ebp]
  0065e	52		 push	 edx
  0065f	69 45 a0 5c 04
	00 00		 imul	 eax, DWORD PTR tv339[ebp], 1116
  00666	8b 4d 9c	 mov	 ecx, DWORD PTR tv346[ebp]
  00669	8b 94 88 00 00
	00 00		 mov	 edx, DWORD PTR ?fn_get_local_entity_int_value@@3PAY0BBH@P6GHPAUENTITY@@W4INT_TYPES@@@ZA[eax+ecx*4]
  00670	ff d2		 call	 edx
  00672	83 f8 02	 cmp	 eax, 2
  00675	75 12		 jne	 SHORT $LN10@credit_cli

; 456  : 		{
; 457  : 			transmit_entity_comms_message (ENTITY_COMMS_PLAYER_KILL, aggressor, victim);

  00677	8b 45 08	 mov	 eax, DWORD PTR _victim$[ebp]
  0067a	50		 push	 eax
  0067b	8b 4d 0c	 mov	 ecx, DWORD PTR _aggressor$[ebp]
  0067e	51		 push	 ecx
  0067f	6a 25		 push	 37			; 00000025H
  00681	e8 00 00 00 00	 call	 ?transmit_entity_comms_message@@YAXW4ENTITY_COMMS_MESSAGES@@PAUENTITY@@ZZ ; transmit_entity_comms_message
  00686	83 c4 0c	 add	 esp, 12			; 0000000cH
$LN10@credit_cli:

; 458  : 		}
; 459  : 	}
; 460  : 	
; 461  : 	//
; 462  : 	// Send Text Message
; 463  : 	//
; 464  : 
; 465  : 	send_text_message (aggressor, victim, MESSAGE_TEXT_SYSTEM_ENTITY_KILLED, NULL);

  00689	6a 00		 push	 0
  0068b	6a 01		 push	 1
  0068d	8b 45 08	 mov	 eax, DWORD PTR _victim$[ebp]
  00690	50		 push	 eax
  00691	8b 4d 0c	 mov	 ecx, DWORD PTR _aggressor$[ebp]
  00694	51		 push	 ecx
  00695	e8 00 00 00 00	 call	 ?send_text_message@@YGXPAUENTITY@@0W4MESSAGE_TEXT_TYPES@@PBD@Z ; send_text_message

; 466  : 
; 467  : 	//
; 468  : 	// Add to force statistics
; 469  : 	//
; 470  : 
; 471  : 	side = get_local_entity_int_value (aggressor, INT_TYPE_SIDE);

  0069a	83 7d 0c 00	 cmp	 DWORD PTR _aggressor$[ebp], 0
  0069e	74 0a		 je	 SHORT $LN55@credit_cli
  006a0	8b 45 0c	 mov	 eax, DWORD PTR _aggressor$[ebp]
  006a3	8b 08		 mov	 ecx, DWORD PTR [eax]
  006a5	89 4d a0	 mov	 DWORD PTR tv366[ebp], ecx
  006a8	eb 21		 jmp	 SHORT $LN56@credit_cli
$LN55@credit_cli:
  006aa	8b 15 00 00 00
	00		 mov	 edx, DWORD PTR ?__LINE__Var@?0??credit_client_server_mobile_kill@@YGXPAUENTITY@@0@Z@4JA
  006b0	83 c2 69	 add	 edx, 105		; 00000069H
  006b3	52		 push	 edx
  006b4	68 00 00 00 00	 push	 OFFSET ??_C@_0ED@JCPIACOE@c?3?2users?2nhv90?2projects?2eech?2ap@
  006b9	a1 00 00 00 00	 mov	 eax, DWORD PTR ?null_entity_pointer_message@@3PBDB ; null_entity_pointer_message
  006be	50		 push	 eax
  006bf	e8 00 00 00 00	 call	 ?process_assert@@YGXPBD0H@Z ; process_assert
  006c4	c7 45 a0 00 00
	00 00		 mov	 DWORD PTR tv366[ebp], 0
$LN56@credit_cli:
  006cb	b9 01 00 00 00	 mov	 ecx, 1
  006d0	85 c9		 test	 ecx, ecx
  006d2	74 09		 je	 SHORT $LN57@credit_cli
  006d4	c7 45 9c bb 00
	00 00		 mov	 DWORD PTR tv374[ebp], 187 ; 000000bbH
  006db	eb 21		 jmp	 SHORT $LN58@credit_cli
$LN57@credit_cli:
  006dd	8b 15 00 00 00
	00		 mov	 edx, DWORD PTR ?__LINE__Var@?0??credit_client_server_mobile_kill@@YGXPAUENTITY@@0@Z@4JA
  006e3	83 c2 69	 add	 edx, 105		; 00000069H
  006e6	52		 push	 edx
  006e7	68 00 00 00 00	 push	 OFFSET ??_C@_0ED@JCPIACOE@c?3?2users?2nhv90?2projects?2eech?2ap@
  006ec	a1 00 00 00 00	 mov	 eax, DWORD PTR ?overload_invalid_int_type_message@@3PBDB ; overload_invalid_int_type_message
  006f1	50		 push	 eax
  006f2	e8 00 00 00 00	 call	 ?process_assert@@YGXPBD0H@Z ; process_assert
  006f7	c7 45 9c 00 00
	00 00		 mov	 DWORD PTR tv374[ebp], 0
$LN58@credit_cli:
  006fe	68 bb 00 00 00	 push	 187			; 000000bbH
  00703	8b 4d 0c	 mov	 ecx, DWORD PTR _aggressor$[ebp]
  00706	51		 push	 ecx
  00707	69 55 a0 5c 04
	00 00		 imul	 edx, DWORD PTR tv366[ebp], 1116
  0070e	8b 45 9c	 mov	 eax, DWORD PTR tv374[ebp]
  00711	8b 8c 82 00 00
	00 00		 mov	 ecx, DWORD PTR ?fn_get_local_entity_int_value@@3PAY0BBH@P6GHPAUENTITY@@W4INT_TYPES@@@ZA[edx+eax*4]
  00718	ff d1		 call	 ecx
  0071a	89 45 f0	 mov	 DWORD PTR _side$[ebp], eax

; 472  : 	
; 473  : 	force = get_local_force_entity ((entity_sides) side);

  0071d	8b 45 f0	 mov	 eax, DWORD PTR _side$[ebp]
  00720	50		 push	 eax
  00721	e8 00 00 00 00	 call	 ?get_local_force_entity@@YGPAUENTITY@@W4ENTITY_SIDES@@@Z ; get_local_force_entity
  00726	89 45 fc	 mov	 DWORD PTR _force$[ebp], eax

; 474  : 
; 475  : 	add_mobile_to_force_kills_stats (force, victim);

  00729	8b 45 08	 mov	 eax, DWORD PTR _victim$[ebp]
  0072c	50		 push	 eax
  0072d	8b 4d fc	 mov	 ecx, DWORD PTR _force$[ebp]
  00730	51		 push	 ecx
  00731	e8 00 00 00 00	 call	 ?add_mobile_to_force_kills_stats@@YGXPAUENTITY@@0@Z ; add_mobile_to_force_kills_stats

; 476  : 
; 477  : 	transmit_entity_comms_message (ENTITY_COMMS_MOBILE_KILL, force, victim);

  00736	8b 45 08	 mov	 eax, DWORD PTR _victim$[ebp]
  00739	50		 push	 eax
  0073a	8b 4d fc	 mov	 ecx, DWORD PTR _force$[ebp]
  0073d	51		 push	 ecx
  0073e	6a 19		 push	 25			; 00000019H
  00740	e8 00 00 00 00	 call	 ?transmit_entity_comms_message@@YAXW4ENTITY_COMMS_MESSAGES@@PAUENTITY@@ZZ ; transmit_entity_comms_message
  00745	83 c4 0c	 add	 esp, 12			; 0000000cH

; 478  : 
; 479  : 	#if DEBUG_KILL_INFO
; 480  : 
; 481  : 	display_debug_kill_info (victim, aggressor);

  00748	8b 45 0c	 mov	 eax, DWORD PTR _aggressor$[ebp]
  0074b	50		 push	 eax
  0074c	8b 4d 08	 mov	 ecx, DWORD PTR _victim$[ebp]
  0074f	51		 push	 ecx
  00750	e8 00 00 00 00	 call	 ?display_debug_kill_info@@YGXPAUENTITY@@0@Z ; display_debug_kill_info

; 482  : 
; 483  : 	#endif
; 484  : }

  00755	5f		 pop	 edi
  00756	5e		 pop	 esi
  00757	5b		 pop	 ebx
  00758	8b e5		 mov	 esp, ebp
  0075a	5d		 pop	 ebp
  0075b	c2 08 00	 ret	 8
?credit_client_server_mobile_kill@@YGXPAUENTITY@@0@Z ENDP ; credit_client_server_mobile_kill
_TEXT	ENDS
; Function compile flags: /Odtp /ZI
; File c:\users\nhv90\projects\eech\aphavoc\source\entity\mobile\mobile.c
;	COMDAT ?update_mobile_sprite_light_timers@@YGXXZ
_TEXT	SEGMENT
?update_mobile_sprite_light_timers@@YGXXZ PROC		; update_mobile_sprite_light_timers, COMDAT

; 271  : {

  00000	55		 push	 ebp
  00001	8b ec		 mov	 ebp, esp
  00003	83 ec 40	 sub	 esp, 64			; 00000040H
  00006	53		 push	 ebx
  00007	56		 push	 esi
  00008	57		 push	 edi

; 272  : 	update_fixed_wing_sprite_light_timers ();

  00009	e8 00 00 00 00	 call	 ?update_fixed_wing_sprite_light_timers@@YGXXZ ; update_fixed_wing_sprite_light_timers

; 273  : 
; 274  : 	update_helicopter_sprite_light_timers ();

  0000e	e8 00 00 00 00	 call	 ?update_helicopter_sprite_light_timers@@YGXXZ ; update_helicopter_sprite_light_timers

; 275  : }

  00013	5f		 pop	 edi
  00014	5e		 pop	 esi
  00015	5b		 pop	 ebx
  00016	8b e5		 mov	 esp, ebp
  00018	5d		 pop	 ebp
  00019	c3		 ret	 0
?update_mobile_sprite_light_timers@@YGXXZ ENDP		; update_mobile_sprite_light_timers
_TEXT	ENDS
; Function compile flags: /Odtp /ZI
; File c:\users\nhv90\projects\eech\aphavoc\source\entity\mobile\mobile.c
;	COMDAT ?draw_mobile_entity_debug_info@@YGXPAUENTITY@@@Z
_TEXT	SEGMENT
tv257 = -116						; size = 4
tv236 = -116						; size = 4
tv136 = -116						; size = 4
tv84 = -116						; size = 4
tv249 = -112						; size = 4
tv228 = -112						; size = 4
tv128 = -112						; size = 4
tv76 = -112						; size = 4
_raw$ = -44						; size = 4
_target$ = -40						; size = 4
_guide$ = -36						; size = 4
_line_pos$ = -32					; size = 12
_target_pos$ = -20					; size = 4
_velocity_vector$ = -16					; size = 12
_pos$ = -4						; size = 4
_en$ = 8						; size = 4
?draw_mobile_entity_debug_info@@YGXPAUENTITY@@@Z PROC	; draw_mobile_entity_debug_info, COMDAT

; 188  : {

  00000	55		 push	 ebp
  00001	8b ec		 mov	 ebp, esp
  00003	83 ec 74	 sub	 esp, 116		; 00000074H
  00006	53		 push	 ebx
  00007	56		 push	 esi
  00008	57		 push	 edi

; 189  : 	vec3d
; 190  : 		*pos,
; 191  : 		velocity_vector,
; 192  : 		*target_pos,
; 193  : 		line_pos;
; 194  : 
; 195  : 	entity
; 196  : 		*guide,
; 197  : 		*target;
; 198  : 
; 199  : 	mobile
; 200  : 		*raw;
; 201  : 
; 202  : 	ASSERT (en);

  00009	83 7d 08 00	 cmp	 DWORD PTR _en$[ebp], 0
  0000d	75 18		 jne	 SHORT $LN2@draw_mobil
  0000f	a1 00 00 00 00	 mov	 eax, DWORD PTR ?__LINE__Var@?0??draw_mobile_entity_debug_info@@YGXPAUENTITY@@@Z@4JA
  00014	83 c0 0e	 add	 eax, 14			; 0000000eH
  00017	50		 push	 eax
  00018	68 00 00 00 00	 push	 OFFSET ??_C@_0ED@JCPIACOE@c?3?2users?2nhv90?2projects?2eech?2ap@
  0001d	68 00 00 00 00	 push	 OFFSET ??_C@_02LFNMGJAP@en@
  00022	e8 00 00 00 00	 call	 ?process_assert@@YGXPBD0H@Z ; process_assert
$LN2@draw_mobil:

; 203  : 
; 204  : 	raw = (mobile *) get_local_entity_data (en);

  00027	8b 45 08	 mov	 eax, DWORD PTR _en$[ebp]
  0002a	8b 48 04	 mov	 ecx, DWORD PTR [eax+4]
  0002d	89 4d d4	 mov	 DWORD PTR _raw$[ebp], ecx

; 205  : 	
; 206  : 	pos = get_local_entity_vec3d_ptr (en, VEC3D_TYPE_POSITION);

  00030	83 7d 08 00	 cmp	 DWORD PTR _en$[ebp], 0
  00034	74 0a		 je	 SHORT $LN7@draw_mobil
  00036	8b 45 08	 mov	 eax, DWORD PTR _en$[ebp]
  00039	8b 08		 mov	 ecx, DWORD PTR [eax]
  0003b	89 4d 90	 mov	 DWORD PTR tv76[ebp], ecx
  0003e	eb 21		 jmp	 SHORT $LN8@draw_mobil
$LN7@draw_mobil:
  00040	8b 15 00 00 00
	00		 mov	 edx, DWORD PTR ?__LINE__Var@?0??draw_mobile_entity_debug_info@@YGXPAUENTITY@@@Z@4JA
  00046	83 c2 12	 add	 edx, 18			; 00000012H
  00049	52		 push	 edx
  0004a	68 00 00 00 00	 push	 OFFSET ??_C@_0ED@JCPIACOE@c?3?2users?2nhv90?2projects?2eech?2ap@
  0004f	a1 00 00 00 00	 mov	 eax, DWORD PTR ?null_entity_pointer_message@@3PBDB ; null_entity_pointer_message
  00054	50		 push	 eax
  00055	e8 00 00 00 00	 call	 ?process_assert@@YGXPBD0H@Z ; process_assert
  0005a	c7 45 90 00 00
	00 00		 mov	 DWORD PTR tv76[ebp], 0
$LN8@draw_mobil:
  00061	b9 01 00 00 00	 mov	 ecx, 1
  00066	85 c9		 test	 ecx, ecx
  00068	74 09		 je	 SHORT $LN9@draw_mobil
  0006a	c7 45 8c 08 00
	00 00		 mov	 DWORD PTR tv84[ebp], 8
  00071	eb 21		 jmp	 SHORT $LN10@draw_mobil
$LN9@draw_mobil:
  00073	8b 15 00 00 00
	00		 mov	 edx, DWORD PTR ?__LINE__Var@?0??draw_mobile_entity_debug_info@@YGXPAUENTITY@@@Z@4JA
  00079	83 c2 12	 add	 edx, 18			; 00000012H
  0007c	52		 push	 edx
  0007d	68 00 00 00 00	 push	 OFFSET ??_C@_0ED@JCPIACOE@c?3?2users?2nhv90?2projects?2eech?2ap@
  00082	a1 00 00 00 00	 mov	 eax, DWORD PTR ?overload_invalid_vec3d_type_message@@3PBDB ; overload_invalid_vec3d_type_message
  00087	50		 push	 eax
  00088	e8 00 00 00 00	 call	 ?process_assert@@YGXPBD0H@Z ; process_assert
  0008d	c7 45 8c 00 00
	00 00		 mov	 DWORD PTR tv84[ebp], 0
$LN10@draw_mobil:
  00094	6a 08		 push	 8
  00096	8b 4d 08	 mov	 ecx, DWORD PTR _en$[ebp]
  00099	51		 push	 ecx
  0009a	6b 55 90 60	 imul	 edx, DWORD PTR tv76[ebp], 96
  0009e	8b 45 8c	 mov	 eax, DWORD PTR tv84[ebp]
  000a1	8b 8c 82 00 00
	00 00		 mov	 ecx, DWORD PTR ?fn_get_local_entity_vec3d_ptr@@3PAY0BI@P6GPAUVEC3D@@PAUENTITY@@W4VEC3D_TYPES@@@ZA[edx+eax*4]
  000a8	ff d1		 call	 ecx
  000aa	89 45 fc	 mov	 DWORD PTR _pos$[ebp], eax

; 207  : 
; 208  : 	//
; 209  : 	// draw guide vector
; 210  : 	//
; 211  : 
; 212  : 	guide = get_local_entity_parent (en, LIST_TYPE_FOLLOWER);

  000ad	83 7d 08 00	 cmp	 DWORD PTR _en$[ebp], 0
  000b1	74 0a		 je	 SHORT $LN11@draw_mobil
  000b3	8b 45 08	 mov	 eax, DWORD PTR _en$[ebp]
  000b6	8b 08		 mov	 ecx, DWORD PTR [eax]
  000b8	89 4d 90	 mov	 DWORD PTR tv128[ebp], ecx
  000bb	eb 21		 jmp	 SHORT $LN12@draw_mobil
$LN11@draw_mobil:
  000bd	8b 15 00 00 00
	00		 mov	 edx, DWORD PTR ?__LINE__Var@?0??draw_mobile_entity_debug_info@@YGXPAUENTITY@@@Z@4JA
  000c3	83 c2 18	 add	 edx, 24			; 00000018H
  000c6	52		 push	 edx
  000c7	68 00 00 00 00	 push	 OFFSET ??_C@_0ED@JCPIACOE@c?3?2users?2nhv90?2projects?2eech?2ap@
  000cc	a1 00 00 00 00	 mov	 eax, DWORD PTR ?null_entity_pointer_message@@3PBDB ; null_entity_pointer_message
  000d1	50		 push	 eax
  000d2	e8 00 00 00 00	 call	 ?process_assert@@YGXPBD0H@Z ; process_assert
  000d7	c7 45 90 00 00
	00 00		 mov	 DWORD PTR tv128[ebp], 0
$LN12@draw_mobil:
  000de	b9 01 00 00 00	 mov	 ecx, 1
  000e3	85 c9		 test	 ecx, ecx
  000e5	74 09		 je	 SHORT $LN13@draw_mobil
  000e7	c7 45 8c 0d 00
	00 00		 mov	 DWORD PTR tv136[ebp], 13 ; 0000000dH
  000ee	eb 21		 jmp	 SHORT $LN14@draw_mobil
$LN13@draw_mobil:
  000f0	8b 15 00 00 00
	00		 mov	 edx, DWORD PTR ?__LINE__Var@?0??draw_mobile_entity_debug_info@@YGXPAUENTITY@@@Z@4JA
  000f6	83 c2 18	 add	 edx, 24			; 00000018H
  000f9	52		 push	 edx
  000fa	68 00 00 00 00	 push	 OFFSET ??_C@_0ED@JCPIACOE@c?3?2users?2nhv90?2projects?2eech?2ap@
  000ff	a1 00 00 00 00	 mov	 eax, DWORD PTR ?overload_invalid_list_type_message@@3PBDB ; overload_invalid_list_type_message
  00104	50		 push	 eax
  00105	e8 00 00 00 00	 call	 ?process_assert@@YGXPBD0H@Z ; process_assert
  0010a	c7 45 8c 00 00
	00 00		 mov	 DWORD PTR tv136[ebp], 0
$LN14@draw_mobil:
  00111	6a 0d		 push	 13			; 0000000dH
  00113	8b 4d 08	 mov	 ecx, DWORD PTR _en$[ebp]
  00116	51		 push	 ecx
  00117	69 55 90 b4 00
	00 00		 imul	 edx, DWORD PTR tv128[ebp], 180
  0011e	8b 45 8c	 mov	 eax, DWORD PTR tv136[ebp]
  00121	8b 8c 82 00 00
	00 00		 mov	 ecx, DWORD PTR ?fn_get_local_entity_parent@@3PAY0CN@P6GPAUENTITY@@PAU1@W4LIST_TYPES@@@ZA[edx+eax*4]
  00128	ff d1		 call	 ecx
  0012a	89 45 dc	 mov	 DWORD PTR _guide$[ebp], eax

; 213  : 
; 214  : 	if (guide)

  0012d	83 7d dc 00	 cmp	 DWORD PTR _guide$[ebp], 0
  00131	74 09		 je	 SHORT $LN3@draw_mobil

; 215  : 	{
; 216  : 		draw_debug_guide_entity (guide);

  00133	8b 45 dc	 mov	 eax, DWORD PTR _guide$[ebp]
  00136	50		 push	 eax
  00137	e8 00 00 00 00	 call	 ?draw_debug_guide_entity@@YGXPAUENTITY@@@Z ; draw_debug_guide_entity
$LN3@draw_mobil:

; 217  : 	}
; 218  : 
; 219  : 	//
; 220  : 	// draw xv vector
; 221  : 	//
; 222  : 
; 223  : 	line_pos.x = pos->x + (raw->xv.x * 20.0);

  0013c	8b 45 fc	 mov	 eax, DWORD PTR _pos$[ebp]
  0013f	f3 0f 5a 00	 cvtss2sd xmm0, DWORD PTR [eax]
  00143	8b 4d d4	 mov	 ecx, DWORD PTR _raw$[ebp]
  00146	f3 0f 5a 49 10	 cvtss2sd xmm1, DWORD PTR [ecx+16]
  0014b	f2 0f 59 0d 00
	00 00 00	 mulsd	 xmm1, QWORD PTR __real@4034000000000000
  00153	f2 0f 58 c1	 addsd	 xmm0, xmm1
  00157	f2 0f 5a c0	 cvtsd2ss xmm0, xmm0
  0015b	f3 0f 11 45 e0	 movss	 DWORD PTR _line_pos$[ebp], xmm0

; 224  : 	line_pos.y = pos->y + (raw->xv.y * 20.0);

  00160	8b 45 fc	 mov	 eax, DWORD PTR _pos$[ebp]
  00163	f3 0f 5a 40 04	 cvtss2sd xmm0, DWORD PTR [eax+4]
  00168	8b 4d d4	 mov	 ecx, DWORD PTR _raw$[ebp]
  0016b	f3 0f 5a 49 14	 cvtss2sd xmm1, DWORD PTR [ecx+20]
  00170	f2 0f 59 0d 00
	00 00 00	 mulsd	 xmm1, QWORD PTR __real@4034000000000000
  00178	f2 0f 58 c1	 addsd	 xmm0, xmm1
  0017c	f2 0f 5a c0	 cvtsd2ss xmm0, xmm0
  00180	f3 0f 11 45 e4	 movss	 DWORD PTR _line_pos$[ebp+4], xmm0

; 225  : 	line_pos.z = pos->z + (raw->xv.z * 20.0);

  00185	8b 45 fc	 mov	 eax, DWORD PTR _pos$[ebp]
  00188	f3 0f 5a 40 08	 cvtss2sd xmm0, DWORD PTR [eax+8]
  0018d	8b 4d d4	 mov	 ecx, DWORD PTR _raw$[ebp]
  00190	f3 0f 5a 49 18	 cvtss2sd xmm1, DWORD PTR [ecx+24]
  00195	f2 0f 59 0d 00
	00 00 00	 mulsd	 xmm1, QWORD PTR __real@4034000000000000
  0019d	f2 0f 58 c1	 addsd	 xmm0, xmm1
  001a1	f2 0f 5a c0	 cvtsd2ss xmm0, xmm0
  001a5	f3 0f 11 45 e8	 movss	 DWORD PTR _line_pos$[ebp+8], xmm0

; 226  : 
; 227  : 	create_debug_3d_line (pos, &line_pos, sys_col_yellow, 0.0);

  001aa	51		 push	 ecx
  001ab	0f 57 c0	 xorps	 xmm0, xmm0
  001ae	f3 0f 11 04 24	 movss	 DWORD PTR [esp], xmm0
  001b3	a1 00 00 00 00	 mov	 eax, DWORD PTR ?sys_col_yellow@@3UREAL_COLOUR@@A ; sys_col_yellow
  001b8	50		 push	 eax
  001b9	8d 4d e0	 lea	 ecx, DWORD PTR _line_pos$[ebp]
  001bc	51		 push	 ecx
  001bd	8b 55 fc	 mov	 edx, DWORD PTR _pos$[ebp]
  001c0	52		 push	 edx
  001c1	e8 00 00 00 00	 call	 ?create_debug_3d_line@@YGPAUDEBUG_3D_LINE@@PAUVEC3D@@0UREAL_COLOUR@@M@Z ; create_debug_3d_line

; 228  : 
; 229  : 	//
; 230  : 	// draw zv vector
; 231  : 	//
; 232  : 
; 233  : 	line_pos.x = pos->x + (raw->zv.x * 20.0);

  001c6	8b 45 fc	 mov	 eax, DWORD PTR _pos$[ebp]
  001c9	f3 0f 5a 00	 cvtss2sd xmm0, DWORD PTR [eax]
  001cd	8b 4d d4	 mov	 ecx, DWORD PTR _raw$[ebp]
  001d0	f3 0f 5a 49 28	 cvtss2sd xmm1, DWORD PTR [ecx+40]
  001d5	f2 0f 59 0d 00
	00 00 00	 mulsd	 xmm1, QWORD PTR __real@4034000000000000
  001dd	f2 0f 58 c1	 addsd	 xmm0, xmm1
  001e1	f2 0f 5a c0	 cvtsd2ss xmm0, xmm0
  001e5	f3 0f 11 45 e0	 movss	 DWORD PTR _line_pos$[ebp], xmm0

; 234  : 	line_pos.y = pos->y + (raw->zv.y * 20.0);

  001ea	8b 45 fc	 mov	 eax, DWORD PTR _pos$[ebp]
  001ed	f3 0f 5a 40 04	 cvtss2sd xmm0, DWORD PTR [eax+4]
  001f2	8b 4d d4	 mov	 ecx, DWORD PTR _raw$[ebp]
  001f5	f3 0f 5a 49 2c	 cvtss2sd xmm1, DWORD PTR [ecx+44]
  001fa	f2 0f 59 0d 00
	00 00 00	 mulsd	 xmm1, QWORD PTR __real@4034000000000000
  00202	f2 0f 58 c1	 addsd	 xmm0, xmm1
  00206	f2 0f 5a c0	 cvtsd2ss xmm0, xmm0
  0020a	f3 0f 11 45 e4	 movss	 DWORD PTR _line_pos$[ebp+4], xmm0

; 235  : 	line_pos.z = pos->z + (raw->zv.z * 20.0);

  0020f	8b 45 fc	 mov	 eax, DWORD PTR _pos$[ebp]
  00212	f3 0f 5a 40 08	 cvtss2sd xmm0, DWORD PTR [eax+8]
  00217	8b 4d d4	 mov	 ecx, DWORD PTR _raw$[ebp]
  0021a	f3 0f 5a 49 30	 cvtss2sd xmm1, DWORD PTR [ecx+48]
  0021f	f2 0f 59 0d 00
	00 00 00	 mulsd	 xmm1, QWORD PTR __real@4034000000000000
  00227	f2 0f 58 c1	 addsd	 xmm0, xmm1
  0022b	f2 0f 5a c0	 cvtsd2ss xmm0, xmm0
  0022f	f3 0f 11 45 e8	 movss	 DWORD PTR _line_pos$[ebp+8], xmm0

; 236  : 
; 237  : 	create_debug_3d_line (pos, &line_pos, sys_col_green, 0.0);

  00234	51		 push	 ecx
  00235	0f 57 c0	 xorps	 xmm0, xmm0
  00238	f3 0f 11 04 24	 movss	 DWORD PTR [esp], xmm0
  0023d	a1 00 00 00 00	 mov	 eax, DWORD PTR ?sys_col_green@@3UREAL_COLOUR@@A ; sys_col_green
  00242	50		 push	 eax
  00243	8d 4d e0	 lea	 ecx, DWORD PTR _line_pos$[ebp]
  00246	51		 push	 ecx
  00247	8b 55 fc	 mov	 edx, DWORD PTR _pos$[ebp]
  0024a	52		 push	 edx
  0024b	e8 00 00 00 00	 call	 ?create_debug_3d_line@@YGPAUDEBUG_3D_LINE@@PAUVEC3D@@0UREAL_COLOUR@@M@Z ; create_debug_3d_line

; 238  : 
; 239  : 	//
; 240  : 	// draw velocity vector
; 241  : 	//
; 242  : 
; 243  : 	velocity_vector.x = pos->x + (raw->motion_vector.x * raw->velocity);

  00250	8b 45 d4	 mov	 eax, DWORD PTR _raw$[ebp]
  00253	8b 4d d4	 mov	 ecx, DWORD PTR _raw$[ebp]
  00256	f3 0f 10 40 34	 movss	 xmm0, DWORD PTR [eax+52]
  0025b	f3 0f 59 41 40	 mulss	 xmm0, DWORD PTR [ecx+64]
  00260	8b 55 fc	 mov	 edx, DWORD PTR _pos$[ebp]
  00263	f3 0f 58 02	 addss	 xmm0, DWORD PTR [edx]
  00267	f3 0f 11 45 f0	 movss	 DWORD PTR _velocity_vector$[ebp], xmm0

; 244  : 	velocity_vector.y = pos->y + (raw->motion_vector.y * raw->velocity);

  0026c	8b 45 d4	 mov	 eax, DWORD PTR _raw$[ebp]
  0026f	8b 4d d4	 mov	 ecx, DWORD PTR _raw$[ebp]
  00272	f3 0f 10 40 38	 movss	 xmm0, DWORD PTR [eax+56]
  00277	f3 0f 59 41 40	 mulss	 xmm0, DWORD PTR [ecx+64]
  0027c	8b 55 fc	 mov	 edx, DWORD PTR _pos$[ebp]
  0027f	f3 0f 58 42 04	 addss	 xmm0, DWORD PTR [edx+4]
  00284	f3 0f 11 45 f4	 movss	 DWORD PTR _velocity_vector$[ebp+4], xmm0

; 245  : 	velocity_vector.z = pos->z + (raw->motion_vector.z * raw->velocity);

  00289	8b 45 d4	 mov	 eax, DWORD PTR _raw$[ebp]
  0028c	8b 4d d4	 mov	 ecx, DWORD PTR _raw$[ebp]
  0028f	f3 0f 10 40 3c	 movss	 xmm0, DWORD PTR [eax+60]
  00294	f3 0f 59 41 40	 mulss	 xmm0, DWORD PTR [ecx+64]
  00299	8b 55 fc	 mov	 edx, DWORD PTR _pos$[ebp]
  0029c	f3 0f 58 42 08	 addss	 xmm0, DWORD PTR [edx+8]
  002a1	f3 0f 11 45 f8	 movss	 DWORD PTR _velocity_vector$[ebp+8], xmm0

; 246  : 
; 247  : 	create_debug_3d_line (pos, &velocity_vector, sys_col_sky_blue, 0.0);

  002a6	51		 push	 ecx
  002a7	0f 57 c0	 xorps	 xmm0, xmm0
  002aa	f3 0f 11 04 24	 movss	 DWORD PTR [esp], xmm0
  002af	a1 00 00 00 00	 mov	 eax, DWORD PTR ?sys_col_sky_blue@@3UREAL_COLOUR@@A ; sys_col_sky_blue
  002b4	50		 push	 eax
  002b5	8d 4d f0	 lea	 ecx, DWORD PTR _velocity_vector$[ebp]
  002b8	51		 push	 ecx
  002b9	8b 55 fc	 mov	 edx, DWORD PTR _pos$[ebp]
  002bc	52		 push	 edx
  002bd	e8 00 00 00 00	 call	 ?create_debug_3d_line@@YGPAUDEBUG_3D_LINE@@PAUVEC3D@@0UREAL_COLOUR@@M@Z ; create_debug_3d_line

; 248  : 
; 249  : 	//
; 250  : 	// draw target vector
; 251  : 	//
; 252  : 
; 253  : 	target = get_local_entity_parent (en, LIST_TYPE_TARGET);

  002c2	83 7d 08 00	 cmp	 DWORD PTR _en$[ebp], 0
  002c6	74 0a		 je	 SHORT $LN15@draw_mobil
  002c8	8b 45 08	 mov	 eax, DWORD PTR _en$[ebp]
  002cb	8b 08		 mov	 ecx, DWORD PTR [eax]
  002cd	89 4d 90	 mov	 DWORD PTR tv228[ebp], ecx
  002d0	eb 21		 jmp	 SHORT $LN16@draw_mobil
$LN15@draw_mobil:
  002d2	8b 15 00 00 00
	00		 mov	 edx, DWORD PTR ?__LINE__Var@?0??draw_mobile_entity_debug_info@@YGXPAUENTITY@@@Z@4JA
  002d8	83 c2 41	 add	 edx, 65			; 00000041H
  002db	52		 push	 edx
  002dc	68 00 00 00 00	 push	 OFFSET ??_C@_0ED@JCPIACOE@c?3?2users?2nhv90?2projects?2eech?2ap@
  002e1	a1 00 00 00 00	 mov	 eax, DWORD PTR ?null_entity_pointer_message@@3PBDB ; null_entity_pointer_message
  002e6	50		 push	 eax
  002e7	e8 00 00 00 00	 call	 ?process_assert@@YGXPBD0H@Z ; process_assert
  002ec	c7 45 90 00 00
	00 00		 mov	 DWORD PTR tv228[ebp], 0
$LN16@draw_mobil:
  002f3	b9 01 00 00 00	 mov	 ecx, 1
  002f8	85 c9		 test	 ecx, ecx
  002fa	74 09		 je	 SHORT $LN17@draw_mobil
  002fc	c7 45 8c 26 00
	00 00		 mov	 DWORD PTR tv236[ebp], 38 ; 00000026H
  00303	eb 21		 jmp	 SHORT $LN18@draw_mobil
$LN17@draw_mobil:
  00305	8b 15 00 00 00
	00		 mov	 edx, DWORD PTR ?__LINE__Var@?0??draw_mobile_entity_debug_info@@YGXPAUENTITY@@@Z@4JA
  0030b	83 c2 41	 add	 edx, 65			; 00000041H
  0030e	52		 push	 edx
  0030f	68 00 00 00 00	 push	 OFFSET ??_C@_0ED@JCPIACOE@c?3?2users?2nhv90?2projects?2eech?2ap@
  00314	a1 00 00 00 00	 mov	 eax, DWORD PTR ?overload_invalid_list_type_message@@3PBDB ; overload_invalid_list_type_message
  00319	50		 push	 eax
  0031a	e8 00 00 00 00	 call	 ?process_assert@@YGXPBD0H@Z ; process_assert
  0031f	c7 45 8c 00 00
	00 00		 mov	 DWORD PTR tv236[ebp], 0
$LN18@draw_mobil:
  00326	6a 26		 push	 38			; 00000026H
  00328	8b 4d 08	 mov	 ecx, DWORD PTR _en$[ebp]
  0032b	51		 push	 ecx
  0032c	69 55 90 b4 00
	00 00		 imul	 edx, DWORD PTR tv228[ebp], 180
  00333	8b 45 8c	 mov	 eax, DWORD PTR tv236[ebp]
  00336	8b 8c 82 00 00
	00 00		 mov	 ecx, DWORD PTR ?fn_get_local_entity_parent@@3PAY0CN@P6GPAUENTITY@@PAU1@W4LIST_TYPES@@@ZA[edx+eax*4]
  0033d	ff d1		 call	 ecx
  0033f	89 45 d8	 mov	 DWORD PTR _target$[ebp], eax

; 254  : 
; 255  : 	if (target)

  00342	83 7d d8 00	 cmp	 DWORD PTR _target$[ebp], 0
  00346	0f 84 9f 00 00
	00		 je	 $LN5@draw_mobil

; 256  : 	{
; 257  : 		target_pos = get_local_entity_vec3d_ptr (target, VEC3D_TYPE_POSITION);

  0034c	83 7d d8 00	 cmp	 DWORD PTR _target$[ebp], 0
  00350	74 0a		 je	 SHORT $LN19@draw_mobil
  00352	8b 45 d8	 mov	 eax, DWORD PTR _target$[ebp]
  00355	8b 08		 mov	 ecx, DWORD PTR [eax]
  00357	89 4d 90	 mov	 DWORD PTR tv249[ebp], ecx
  0035a	eb 21		 jmp	 SHORT $LN20@draw_mobil
$LN19@draw_mobil:
  0035c	8b 15 00 00 00
	00		 mov	 edx, DWORD PTR ?__LINE__Var@?0??draw_mobile_entity_debug_info@@YGXPAUENTITY@@@Z@4JA
  00362	83 c2 45	 add	 edx, 69			; 00000045H
  00365	52		 push	 edx
  00366	68 00 00 00 00	 push	 OFFSET ??_C@_0ED@JCPIACOE@c?3?2users?2nhv90?2projects?2eech?2ap@
  0036b	a1 00 00 00 00	 mov	 eax, DWORD PTR ?null_entity_pointer_message@@3PBDB ; null_entity_pointer_message
  00370	50		 push	 eax
  00371	e8 00 00 00 00	 call	 ?process_assert@@YGXPBD0H@Z ; process_assert
  00376	c7 45 90 00 00
	00 00		 mov	 DWORD PTR tv249[ebp], 0
$LN20@draw_mobil:
  0037d	b9 01 00 00 00	 mov	 ecx, 1
  00382	85 c9		 test	 ecx, ecx
  00384	74 09		 je	 SHORT $LN21@draw_mobil
  00386	c7 45 8c 08 00
	00 00		 mov	 DWORD PTR tv257[ebp], 8
  0038d	eb 21		 jmp	 SHORT $LN22@draw_mobil
$LN21@draw_mobil:
  0038f	8b 15 00 00 00
	00		 mov	 edx, DWORD PTR ?__LINE__Var@?0??draw_mobile_entity_debug_info@@YGXPAUENTITY@@@Z@4JA
  00395	83 c2 45	 add	 edx, 69			; 00000045H
  00398	52		 push	 edx
  00399	68 00 00 00 00	 push	 OFFSET ??_C@_0ED@JCPIACOE@c?3?2users?2nhv90?2projects?2eech?2ap@
  0039e	a1 00 00 00 00	 mov	 eax, DWORD PTR ?overload_invalid_vec3d_type_message@@3PBDB ; overload_invalid_vec3d_type_message
  003a3	50		 push	 eax
  003a4	e8 00 00 00 00	 call	 ?process_assert@@YGXPBD0H@Z ; process_assert
  003a9	c7 45 8c 00 00
	00 00		 mov	 DWORD PTR tv257[ebp], 0
$LN22@draw_mobil:
  003b0	6a 08		 push	 8
  003b2	8b 4d d8	 mov	 ecx, DWORD PTR _target$[ebp]
  003b5	51		 push	 ecx
  003b6	6b 55 90 60	 imul	 edx, DWORD PTR tv249[ebp], 96
  003ba	8b 45 8c	 mov	 eax, DWORD PTR tv257[ebp]
  003bd	8b 8c 82 00 00
	00 00		 mov	 ecx, DWORD PTR ?fn_get_local_entity_vec3d_ptr@@3PAY0BI@P6GPAUVEC3D@@PAUENTITY@@W4VEC3D_TYPES@@@ZA[edx+eax*4]
  003c4	ff d1		 call	 ecx
  003c6	89 45 ec	 mov	 DWORD PTR _target_pos$[ebp], eax

; 258  : 
; 259  : 		if (target_pos)

  003c9	83 7d ec 00	 cmp	 DWORD PTR _target_pos$[ebp], 0
  003cd	74 1c		 je	 SHORT $LN5@draw_mobil

; 260  : 		{
; 261  : 			create_debug_3d_line (pos, target_pos, sys_col_dark_red, 0.0);

  003cf	51		 push	 ecx
  003d0	0f 57 c0	 xorps	 xmm0, xmm0
  003d3	f3 0f 11 04 24	 movss	 DWORD PTR [esp], xmm0
  003d8	a1 00 00 00 00	 mov	 eax, DWORD PTR ?sys_col_dark_red@@3UREAL_COLOUR@@A ; sys_col_dark_red
  003dd	50		 push	 eax
  003de	8b 4d ec	 mov	 ecx, DWORD PTR _target_pos$[ebp]
  003e1	51		 push	 ecx
  003e2	8b 55 fc	 mov	 edx, DWORD PTR _pos$[ebp]
  003e5	52		 push	 edx
  003e6	e8 00 00 00 00	 call	 ?create_debug_3d_line@@YGPAUDEBUG_3D_LINE@@PAUVEC3D@@0UREAL_COLOUR@@M@Z ; create_debug_3d_line
$LN5@draw_mobil:

; 262  : 		}
; 263  : 	}
; 264  : }

  003eb	5f		 pop	 edi
  003ec	5e		 pop	 esi
  003ed	5b		 pop	 ebx
  003ee	8b e5		 mov	 esp, ebp
  003f0	5d		 pop	 ebp
  003f1	c2 04 00	 ret	 4
?draw_mobile_entity_debug_info@@YGXPAUENTITY@@@Z ENDP	; draw_mobile_entity_debug_info
_TEXT	ENDS
; Function compile flags: /Odtp /ZI
; File c:\users\nhv90\projects\eech\aphavoc\source\entity\mobile\mobile.c
;	COMDAT ?mobile_terrain_adjust_waypoint_height@@YGMPAUENTITY@@PAUVEC3D@@M@Z
_TEXT	SEGMENT
tv264 = -128						; size = 8
tv278 = -124						; size = 4
tv178 = -124						; size = 4
_h$1 = -56						; size = 4
_d$2 = -52						; size = 4
_raw$ = -48						; size = 4
_vector$ = -44						; size = 12
_wp_vec$ = -32						; size = 12
_test_point$ = -20					; size = 12
_terrain_elevation$ = -8				; size = 4
_range$ = -4						; size = 4
_en$ = 8						; size = 4
_wp_pos$ = 12						; size = 4
_min_height$ = 16					; size = 4
?mobile_terrain_adjust_waypoint_height@@YGMPAUENTITY@@PAUVEC3D@@M@Z PROC ; mobile_terrain_adjust_waypoint_height, COMDAT

; 82   : {

  00000	55		 push	 ebp
  00001	8b ec		 mov	 ebp, esp
  00003	81 ec 80 00 00
	00		 sub	 esp, 128		; 00000080H
  00009	53		 push	 ebx
  0000a	56		 push	 esi
  0000b	57		 push	 edi

; 83   : 
; 84   : 	float
; 85   : 		range,
; 86   : 		terrain_elevation;
; 87   : 
; 88   : 	vec3d
; 89   : 		test_point,
; 90   : 		wp_vec,
; 91   : 		vector;
; 92   : 
; 93   : 	mobile
; 94   : 		*raw;
; 95   : 
; 96   : 	raw = (mobile *) get_local_entity_data (en);

  0000c	8b 45 08	 mov	 eax, DWORD PTR _en$[ebp]
  0000f	8b 48 04	 mov	 ecx, DWORD PTR [eax+4]
  00012	89 4d d0	 mov	 DWORD PTR _raw$[ebp], ecx

; 97   : 
; 98   : 	//
; 99   : 	// find point in front of mobile
; 100  : 	//
; 101  : 	
; 102  : 	test_point.x = raw->position.x + ((raw->velocity * 1.0 + 10.0) * raw->zv.x);

  00015	8b 45 d0	 mov	 eax, DWORD PTR _raw$[ebp]
  00018	f3 0f 5a 40 04	 cvtss2sd xmm0, DWORD PTR [eax+4]
  0001d	8b 4d d0	 mov	 ecx, DWORD PTR _raw$[ebp]
  00020	f3 0f 5a 49 40	 cvtss2sd xmm1, DWORD PTR [ecx+64]
  00025	f2 0f 59 0d 00
	00 00 00	 mulsd	 xmm1, QWORD PTR __real@3ff0000000000000
  0002d	f2 0f 58 0d 00
	00 00 00	 addsd	 xmm1, QWORD PTR __real@4024000000000000
  00035	8b 55 d0	 mov	 edx, DWORD PTR _raw$[ebp]
  00038	f3 0f 5a 52 28	 cvtss2sd xmm2, DWORD PTR [edx+40]
  0003d	f2 0f 59 ca	 mulsd	 xmm1, xmm2
  00041	f2 0f 58 c1	 addsd	 xmm0, xmm1
  00045	f2 0f 5a c0	 cvtsd2ss xmm0, xmm0
  00049	f3 0f 11 45 ec	 movss	 DWORD PTR _test_point$[ebp], xmm0

; 103  : 	test_point.z = raw->position.z + ((raw->velocity * 1.0 + 10.0) * raw->zv.z);

  0004e	8b 45 d0	 mov	 eax, DWORD PTR _raw$[ebp]
  00051	f3 0f 5a 40 0c	 cvtss2sd xmm0, DWORD PTR [eax+12]
  00056	8b 4d d0	 mov	 ecx, DWORD PTR _raw$[ebp]
  00059	f3 0f 5a 49 40	 cvtss2sd xmm1, DWORD PTR [ecx+64]
  0005e	f2 0f 59 0d 00
	00 00 00	 mulsd	 xmm1, QWORD PTR __real@3ff0000000000000
  00066	f2 0f 58 0d 00
	00 00 00	 addsd	 xmm1, QWORD PTR __real@4024000000000000
  0006e	8b 55 d0	 mov	 edx, DWORD PTR _raw$[ebp]
  00071	f3 0f 5a 52 30	 cvtss2sd xmm2, DWORD PTR [edx+48]
  00076	f2 0f 59 ca	 mulsd	 xmm1, xmm2
  0007a	f2 0f 58 c1	 addsd	 xmm0, xmm1
  0007e	f2 0f 5a c0	 cvtsd2ss xmm0, xmm0
  00082	f3 0f 11 45 f4	 movss	 DWORD PTR _test_point$[ebp+8], xmm0

; 104  : 
; 105  : 	terrain_elevation = get_3d_terrain_fast_elevation (test_point.x, test_point.z);

  00087	51		 push	 ecx
  00088	f3 0f 10 45 f4	 movss	 xmm0, DWORD PTR _test_point$[ebp+8]
  0008d	f3 0f 11 04 24	 movss	 DWORD PTR [esp], xmm0
  00092	51		 push	 ecx
  00093	f3 0f 10 45 ec	 movss	 xmm0, DWORD PTR _test_point$[ebp]
  00098	f3 0f 11 04 24	 movss	 DWORD PTR [esp], xmm0
  0009d	e8 00 00 00 00	 call	 ?get_3d_terrain_fast_elevation@@YGMMM@Z ; get_3d_terrain_fast_elevation
  000a2	d9 5d f8	 fstp	 DWORD PTR _terrain_elevation$[ebp]

; 106  : 
; 107  : 	//
; 108  : 	// check waypoint SHOULD be adjusted
; 109  : 	//
; 110  : 	
; 111  : 	if (min_height == -1.0)

  000a5	f3 0f 5a 45 10	 cvtss2sd xmm0, DWORD PTR _min_height$[ebp]
  000aa	66 0f 2e 05 00
	00 00 00	 ucomisd xmm0, QWORD PTR __real@bff0000000000000
  000b2	9f		 lahf
  000b3	f6 c4 44	 test	 ah, 68			; 00000044H
  000b6	7a 08		 jp	 SHORT $LN2@mobile_ter

; 112  : 	{
; 113  : 		return terrain_elevation;

  000b8	d9 45 f8	 fld	 DWORD PTR _terrain_elevation$[ebp]
  000bb	e9 bf 01 00 00	 jmp	 $LN1@mobile_ter
$LN2@mobile_ter:

; 114  : 	}
; 115  : 
; 116  : 	//
; 117  : 	// get vector to waypoint
; 118  : 	//
; 119  : 	
; 120  : 	wp_vec.x = wp_pos->x - raw->position.x;

  000c0	8b 45 0c	 mov	 eax, DWORD PTR _wp_pos$[ebp]
  000c3	8b 4d d0	 mov	 ecx, DWORD PTR _raw$[ebp]
  000c6	f3 0f 10 00	 movss	 xmm0, DWORD PTR [eax]
  000ca	f3 0f 5c 41 04	 subss	 xmm0, DWORD PTR [ecx+4]
  000cf	f3 0f 11 45 e0	 movss	 DWORD PTR _wp_vec$[ebp], xmm0

; 121  : 	wp_vec.y = 0.0;

  000d4	0f 57 c0	 xorps	 xmm0, xmm0
  000d7	f3 0f 11 45 e4	 movss	 DWORD PTR _wp_vec$[ebp+4], xmm0

; 122  : 	wp_vec.z = wp_pos->z - raw->position.z;

  000dc	8b 45 0c	 mov	 eax, DWORD PTR _wp_pos$[ebp]
  000df	8b 4d d0	 mov	 ecx, DWORD PTR _raw$[ebp]
  000e2	f3 0f 10 40 08	 movss	 xmm0, DWORD PTR [eax+8]
  000e7	f3 0f 5c 41 0c	 subss	 xmm0, DWORD PTR [ecx+12]
  000ec	f3 0f 11 45 e8	 movss	 DWORD PTR _wp_vec$[ebp+8], xmm0

; 123  : 
; 124  : 	range = sqrt ((wp_vec.x * wp_vec.x) + (wp_vec.z * wp_vec.z));

  000f1	f3 0f 10 45 e0	 movss	 xmm0, DWORD PTR _wp_vec$[ebp]
  000f6	f3 0f 59 45 e0	 mulss	 xmm0, DWORD PTR _wp_vec$[ebp]
  000fb	f3 0f 10 4d e8	 movss	 xmm1, DWORD PTR _wp_vec$[ebp+8]
  00100	f3 0f 59 4d e8	 mulss	 xmm1, DWORD PTR _wp_vec$[ebp+8]
  00105	f3 0f 58 c1	 addss	 xmm0, xmm1
  00109	51		 push	 ecx
  0010a	f3 0f 11 04 24	 movss	 DWORD PTR [esp], xmm0
  0010f	e8 00 00 00 00	 call	 ?sqrt@@YGMM@Z		; sqrt
  00114	d9 5d fc	 fstp	 DWORD PTR _range$[ebp]

; 125  : 
; 126  : //	if (range < (raw->velocity + 10.0))
; 127  : 	if (range <= 1.0)

  00117	f3 0f 5a 45 fc	 cvtss2sd xmm0, DWORD PTR _range$[ebp]
  0011c	f2 0f 10 0d 00
	00 00 00	 movsd	 xmm1, QWORD PTR __real@3ff0000000000000
  00124	66 0f 2f c8	 comisd	 xmm1, xmm0
  00128	72 1a		 jb	 SHORT $LN3@mobile_ter

; 128  : 	{
; 129  : 
; 130  : 		wp_pos->y = terrain_elevation + min_height;

  0012a	f3 0f 10 45 f8	 movss	 xmm0, DWORD PTR _terrain_elevation$[ebp]
  0012f	f3 0f 58 45 10	 addss	 xmm0, DWORD PTR _min_height$[ebp]
  00134	8b 45 0c	 mov	 eax, DWORD PTR _wp_pos$[ebp]
  00137	f3 0f 11 40 04	 movss	 DWORD PTR [eax+4], xmm0

; 131  : 
; 132  : 		return terrain_elevation;

  0013c	d9 45 f8	 fld	 DWORD PTR _terrain_elevation$[ebp]
  0013f	e9 3b 01 00 00	 jmp	 $LN1@mobile_ter
$LN3@mobile_ter:

; 133  : 	}
; 134  : 
; 135  : 	//
; 136  : 	// adjust waypoint height
; 137  : 	//
; 138  : 
; 139  : 	test_point.y = terrain_elevation + min_height;

  00144	f3 0f 10 45 f8	 movss	 xmm0, DWORD PTR _terrain_elevation$[ebp]
  00149	f3 0f 58 45 10	 addss	 xmm0, DWORD PTR _min_height$[ebp]
  0014e	f3 0f 11 45 f0	 movss	 DWORD PTR _test_point$[ebp+4], xmm0

; 140  : 
; 141  : 	vector.x = test_point.x - raw->position.x;

  00153	8b 45 d0	 mov	 eax, DWORD PTR _raw$[ebp]
  00156	f3 0f 10 45 ec	 movss	 xmm0, DWORD PTR _test_point$[ebp]
  0015b	f3 0f 5c 40 04	 subss	 xmm0, DWORD PTR [eax+4]
  00160	f3 0f 11 45 d4	 movss	 DWORD PTR _vector$[ebp], xmm0

; 142  : 	vector.y = test_point.y - raw->position.y;

  00165	8b 45 d0	 mov	 eax, DWORD PTR _raw$[ebp]
  00168	f3 0f 10 45 f0	 movss	 xmm0, DWORD PTR _test_point$[ebp+4]
  0016d	f3 0f 5c 40 08	 subss	 xmm0, DWORD PTR [eax+8]
  00172	f3 0f 11 45 d8	 movss	 DWORD PTR _vector$[ebp+4], xmm0

; 143  : 	vector.z = test_point.z - raw->position.z;

  00177	8b 45 d0	 mov	 eax, DWORD PTR _raw$[ebp]
  0017a	f3 0f 10 45 f4	 movss	 xmm0, DWORD PTR _test_point$[ebp+8]
  0017f	f3 0f 5c 40 0c	 subss	 xmm0, DWORD PTR [eax+12]
  00184	f3 0f 11 45 dc	 movss	 DWORD PTR _vector$[ebp+8], xmm0

; 144  : 
; 145  : 	if (normalise_any_3d_vector (&vector) != 0.0)

  00189	8d 45 d4	 lea	 eax, DWORD PTR _vector$[ebp]
  0018c	50		 push	 eax
  0018d	e8 00 00 00 00	 call	 ?normalise_any_3d_vector@@YGMPAUVEC3D@@@Z ; normalise_any_3d_vector
  00192	dd 5d 80	 fstp	 QWORD PTR tv264[ebp]
  00195	f2 0f 10 45 80	 movsd	 xmm0, QWORD PTR tv264[ebp]
  0019a	66 0f 2e 05 00
	00 00 00	 ucomisd xmm0, QWORD PTR __real@0000000000000000
  001a2	9f		 lahf
  001a3	f6 c4 44	 test	 ah, 68			; 00000044H
  001a6	0f 8b d0 00 00
	00		 jnp	 $LN8@mobile_ter

; 146  : 	{
; 147  : 		float
; 148  : 			d,
; 149  : 			h;
; 150  : 
; 151  : 		h = vector.y;

  001ac	f3 0f 10 45 d8	 movss	 xmm0, DWORD PTR _vector$[ebp+4]
  001b1	f3 0f 11 45 c8	 movss	 DWORD PTR _h$1[ebp], xmm0

; 152  : 
; 153  : 		d = sqrt ((vector.x * vector.x) + (vector.z * vector.z));

  001b6	f3 0f 10 45 d4	 movss	 xmm0, DWORD PTR _vector$[ebp]
  001bb	f3 0f 59 45 d4	 mulss	 xmm0, DWORD PTR _vector$[ebp]
  001c0	f3 0f 10 4d dc	 movss	 xmm1, DWORD PTR _vector$[ebp+8]
  001c5	f3 0f 59 4d dc	 mulss	 xmm1, DWORD PTR _vector$[ebp+8]
  001ca	f3 0f 58 c1	 addss	 xmm0, xmm1
  001ce	51		 push	 ecx
  001cf	f3 0f 11 04 24	 movss	 DWORD PTR [esp], xmm0
  001d4	e8 00 00 00 00	 call	 ?sqrt@@YGMM@Z		; sqrt
  001d9	d9 5d cc	 fstp	 DWORD PTR _d$2[ebp]

; 154  : 
; 155  : 		//
; 156  : 		// check condition for too little lateral velocity (caused jets to suspend themselves pointing down into the ground)
; 157  : 		//
; 158  : 
; 159  : 		if (d > fabs (h))

  001dc	51		 push	 ecx
  001dd	f3 0f 10 45 c8	 movss	 xmm0, DWORD PTR _h$1[ebp]
  001e2	f3 0f 11 04 24	 movss	 DWORD PTR [esp], xmm0
  001e7	e8 00 00 00 00	 call	 ?fabs@@YGMM@Z		; fabs
  001ec	d9 5d 84	 fstp	 DWORD PTR tv278[ebp]
  001ef	f3 0f 10 45 cc	 movss	 xmm0, DWORD PTR _d$2[ebp]
  001f4	0f 2f 45 84	 comiss	 xmm0, DWORD PTR tv278[ebp]
  001f8	76 21		 jbe	 SHORT $LN5@mobile_ter

; 160  : 		{	
; 161  : 
; 162  : 			wp_pos->y = raw->position.y + (range * h / d);

  001fa	f3 0f 10 45 fc	 movss	 xmm0, DWORD PTR _range$[ebp]
  001ff	f3 0f 59 45 c8	 mulss	 xmm0, DWORD PTR _h$1[ebp]
  00204	f3 0f 5e 45 cc	 divss	 xmm0, DWORD PTR _d$2[ebp]
  00209	8b 45 d0	 mov	 eax, DWORD PTR _raw$[ebp]
  0020c	f3 0f 58 40 08	 addss	 xmm0, DWORD PTR [eax+8]
  00211	8b 4d 0c	 mov	 ecx, DWORD PTR _wp_pos$[ebp]
  00214	f3 0f 11 41 04	 movss	 DWORD PTR [ecx+4], xmm0

; 163  : 		}
; 164  : 		else

  00219	eb 61		 jmp	 SHORT $LN8@mobile_ter
$LN5@mobile_ter:

; 165  : 		{
; 166  : 
; 167  : 			if (get_local_entity_type (en) == ENTITY_TYPE_HELICOPTER)

  0021b	83 7d 08 00	 cmp	 DWORD PTR _en$[ebp], 0
  0021f	74 0a		 je	 SHORT $LN10@mobile_ter
  00221	8b 45 08	 mov	 eax, DWORD PTR _en$[ebp]
  00224	8b 08		 mov	 ecx, DWORD PTR [eax]
  00226	89 4d 84	 mov	 DWORD PTR tv178[ebp], ecx
  00229	eb 1d		 jmp	 SHORT $LN11@mobile_ter
$LN10@mobile_ter:
  0022b	68 a7 00 00 00	 push	 167			; 000000a7H
  00230	68 00 00 00 00	 push	 OFFSET ??_C@_0ED@JCPIACOE@c?3?2users?2nhv90?2projects?2eech?2ap@
  00235	8b 15 00 00 00
	00		 mov	 edx, DWORD PTR ?null_entity_pointer_message@@3PBDB ; null_entity_pointer_message
  0023b	52		 push	 edx
  0023c	e8 00 00 00 00	 call	 ?process_assert@@YGXPBD0H@Z ; process_assert
  00241	c7 45 84 00 00
	00 00		 mov	 DWORD PTR tv178[ebp], 0
$LN11@mobile_ter:
  00248	83 7d 84 0e	 cmp	 DWORD PTR tv178[ebp], 14 ; 0000000eH
  0024c	75 1c		 jne	 SHORT $LN7@mobile_ter

; 168  : 			{
; 169  : 
; 170  : 				wp_pos->y += (vector.y * range);

  0024e	f3 0f 10 45 d8	 movss	 xmm0, DWORD PTR _vector$[ebp+4]
  00253	f3 0f 59 45 fc	 mulss	 xmm0, DWORD PTR _range$[ebp]
  00258	8b 45 0c	 mov	 eax, DWORD PTR _wp_pos$[ebp]
  0025b	f3 0f 58 40 04	 addss	 xmm0, DWORD PTR [eax+4]
  00260	8b 4d 0c	 mov	 ecx, DWORD PTR _wp_pos$[ebp]
  00263	f3 0f 11 41 04	 movss	 DWORD PTR [ecx+4], xmm0

; 171  : 			}
; 172  : 			else

  00268	eb 12		 jmp	 SHORT $LN8@mobile_ter
$LN7@mobile_ter:

; 173  : 			{
; 174  : 
; 175  : 				wp_pos->y = terrain_elevation + min_height;

  0026a	f3 0f 10 45 f8	 movss	 xmm0, DWORD PTR _terrain_elevation$[ebp]
  0026f	f3 0f 58 45 10	 addss	 xmm0, DWORD PTR _min_height$[ebp]
  00274	8b 45 0c	 mov	 eax, DWORD PTR _wp_pos$[ebp]
  00277	f3 0f 11 40 04	 movss	 DWORD PTR [eax+4], xmm0
$LN8@mobile_ter:

; 176  : 			}
; 177  : 		}
; 178  : 	}
; 179  : 
; 180  : 	return terrain_elevation;

  0027c	d9 45 f8	 fld	 DWORD PTR _terrain_elevation$[ebp]
$LN1@mobile_ter:

; 181  : }

  0027f	5f		 pop	 edi
  00280	5e		 pop	 esi
  00281	5b		 pop	 ebx
  00282	8b e5		 mov	 esp, ebp
  00284	5d		 pop	 ebp
  00285	c2 0c 00	 ret	 12			; 0000000cH
?mobile_terrain_adjust_waypoint_height@@YGMPAUENTITY@@PAUVEC3D@@M@Z ENDP ; mobile_terrain_adjust_waypoint_height
_TEXT	ENDS
; Function compile flags: /Odtp /ZI
; File c:\program files (x86)\microsoft visual studio\2017\community\vc\tools\msvc\14.16.27023\include\cmath
;	COMDAT ?sqrt@@YGMM@Z
_TEXT	SEGMENT
__Xx$ = 8						; size = 4
?sqrt@@YGMM@Z PROC					; sqrt, COMDAT

; 294  : 	{

  00000	55		 push	 ebp
  00001	8b ec		 mov	 ebp, esp
  00003	83 ec 40	 sub	 esp, 64			; 00000040H
  00006	53		 push	 ebx
  00007	56		 push	 esi
  00008	57		 push	 edi

; 295  : 	return (_CSTD sqrtf(_Xx));

  00009	51		 push	 ecx
  0000a	f3 0f 10 45 08	 movss	 xmm0, DWORD PTR __Xx$[ebp]
  0000f	f3 0f 11 04 24	 movss	 DWORD PTR [esp], xmm0
  00014	e8 00 00 00 00	 call	 _sqrtf
  00019	83 c4 04	 add	 esp, 4

; 296  : 	}

  0001c	5f		 pop	 edi
  0001d	5e		 pop	 esi
  0001e	5b		 pop	 ebx
  0001f	8b e5		 mov	 esp, ebp
  00021	5d		 pop	 ebp
  00022	c2 04 00	 ret	 4
?sqrt@@YGMM@Z ENDP					; sqrt
_TEXT	ENDS
; Function compile flags: /Odtp /ZI
; File c:\program files (x86)\microsoft visual studio\2017\community\vc\tools\msvc\14.16.27023\include\cmath
;	COMDAT ?fabs@@YGMM@Z
_TEXT	SEGMENT
__Xx$ = 8						; size = 4
?fabs@@YGMM@Z PROC					; fabs, COMDAT

; 112  : 	{

  00000	55		 push	 ebp
  00001	8b ec		 mov	 ebp, esp
  00003	83 ec 40	 sub	 esp, 64			; 00000040H
  00006	53		 push	 ebx
  00007	56		 push	 esi
  00008	57		 push	 edi

; 113  : 	return (_CSTD fabsf(_Xx));

  00009	51		 push	 ecx
  0000a	f3 0f 10 45 08	 movss	 xmm0, DWORD PTR __Xx$[ebp]
  0000f	f3 0f 11 04 24	 movss	 DWORD PTR [esp], xmm0
  00014	e8 00 00 00 00	 call	 _fabsf
  00019	83 c4 04	 add	 esp, 4

; 114  : 	}

  0001c	5f		 pop	 edi
  0001d	5e		 pop	 esi
  0001e	5b		 pop	 ebx
  0001f	8b e5		 mov	 esp, ebp
  00021	5d		 pop	 ebp
  00022	c2 04 00	 ret	 4
?fabs@@YGMM@Z ENDP					; fabs
_TEXT	ENDS
; Function compile flags: /Odtp /ZI
; File c:\program files (x86)\microsoft visual studio\2017\community\vc\tools\msvc\14.16.27023\include\cmath
;	COMDAT ?ceil@@YGMM@Z
_TEXT	SEGMENT
__Xx$ = 8						; size = 4
?ceil@@YGMM@Z PROC					; ceil, COMDAT

; 66   : 	{

  00000	55		 push	 ebp
  00001	8b ec		 mov	 ebp, esp
  00003	83 ec 40	 sub	 esp, 64			; 00000040H
  00006	53		 push	 ebx
  00007	56		 push	 esi
  00008	57		 push	 edi

; 67   : 	return (_CSTD ceilf(_Xx));

  00009	51		 push	 ecx
  0000a	f3 0f 10 45 08	 movss	 xmm0, DWORD PTR __Xx$[ebp]
  0000f	f3 0f 11 04 24	 movss	 DWORD PTR [esp], xmm0
  00014	e8 00 00 00 00	 call	 _ceilf
  00019	83 c4 04	 add	 esp, 4

; 68   : 	}

  0001c	5f		 pop	 edi
  0001d	5e		 pop	 esi
  0001e	5b		 pop	 ebx
  0001f	8b e5		 mov	 esp, ebp
  00021	5d		 pop	 ebp
  00022	c2 04 00	 ret	 4
?ceil@@YGMM@Z ENDP					; ceil
_TEXT	ENDS
; Function compile flags: /Odtp /ZI
; File c:\program files (x86)\windows kits\10\include\10.0.18362.0\ucrt\corecrt_math.h
;	COMDAT _sqrtf
_TEXT	SEGMENT
tv71 = -68						; size = 4
__X$ = 8						; size = 4
_sqrtf	PROC						; COMDAT

; 759  :         {

  00000	55		 push	 ebp
  00001	8b ec		 mov	 ebp, esp
  00003	83 ec 44	 sub	 esp, 68			; 00000044H
  00006	53		 push	 ebx
  00007	56		 push	 esi
  00008	57		 push	 edi

; 760  :             return (float)sqrt(_X);

  00009	f3 0f 5a 45 08	 cvtss2sd xmm0, DWORD PTR __X$[ebp]
  0000e	83 ec 08	 sub	 esp, 8
  00011	f2 0f 11 04 24	 movsd	 QWORD PTR [esp], xmm0
  00016	e8 00 00 00 00	 call	 _sqrt
  0001b	83 c4 08	 add	 esp, 8
  0001e	d9 5d bc	 fstp	 DWORD PTR tv71[ebp]
  00021	d9 45 bc	 fld	 DWORD PTR tv71[ebp]

; 761  :         }

  00024	5f		 pop	 edi
  00025	5e		 pop	 esi
  00026	5b		 pop	 ebx
  00027	8b e5		 mov	 esp, ebp
  00029	5d		 pop	 ebp
  0002a	c3		 ret	 0
_sqrtf	ENDP
_TEXT	ENDS
; Function compile flags: /Odtp /ZI
; File c:\program files (x86)\windows kits\10\include\10.0.18362.0\ucrt\corecrt_math.h
;	COMDAT _fabsf
_TEXT	SEGMENT
tv71 = -68						; size = 4
__X$ = 8						; size = 4
_fabsf	PROC						; COMDAT

; 671  :         {

  00000	55		 push	 ebp
  00001	8b ec		 mov	 ebp, esp
  00003	83 ec 44	 sub	 esp, 68			; 00000044H
  00006	53		 push	 ebx
  00007	56		 push	 esi
  00008	57		 push	 edi

; 672  :             return (float)fabs(_X);

  00009	f3 0f 5a 45 08	 cvtss2sd xmm0, DWORD PTR __X$[ebp]
  0000e	83 ec 08	 sub	 esp, 8
  00011	f2 0f 11 04 24	 movsd	 QWORD PTR [esp], xmm0
  00016	e8 00 00 00 00	 call	 _fabs
  0001b	83 c4 08	 add	 esp, 8
  0001e	d9 5d bc	 fstp	 DWORD PTR tv71[ebp]
  00021	d9 45 bc	 fld	 DWORD PTR tv71[ebp]

; 673  :         }

  00024	5f		 pop	 edi
  00025	5e		 pop	 esi
  00026	5b		 pop	 ebx
  00027	8b e5		 mov	 esp, ebp
  00029	5d		 pop	 ebp
  0002a	c3		 ret	 0
_fabsf	ENDP
_TEXT	ENDS
; Function compile flags: /Odtp /ZI
; File c:\program files (x86)\windows kits\10\include\10.0.18362.0\ucrt\corecrt_math.h
;	COMDAT _ceilf
_TEXT	SEGMENT
tv71 = -68						; size = 4
__X$ = 8						; size = 4
_ceilf	PROC						; COMDAT

; 643  :         {

  00000	55		 push	 ebp
  00001	8b ec		 mov	 ebp, esp
  00003	83 ec 44	 sub	 esp, 68			; 00000044H
  00006	53		 push	 ebx
  00007	56		 push	 esi
  00008	57		 push	 edi

; 644  :             return (float)ceil(_X);

  00009	f3 0f 5a 45 08	 cvtss2sd xmm0, DWORD PTR __X$[ebp]
  0000e	83 ec 08	 sub	 esp, 8
  00011	f2 0f 11 04 24	 movsd	 QWORD PTR [esp], xmm0
  00016	ff 15 00 00 00
	00		 call	 DWORD PTR __imp__ceil
  0001c	83 c4 08	 add	 esp, 8
  0001f	d9 5d bc	 fstp	 DWORD PTR tv71[ebp]
  00022	d9 45 bc	 fld	 DWORD PTR tv71[ebp]

; 645  :         }

  00025	5f		 pop	 edi
  00026	5e		 pop	 esi
  00027	5b		 pop	 ebx
  00028	8b e5		 mov	 esp, ebp
  0002a	5d		 pop	 ebp
  0002b	c3		 ret	 0
_ceilf	ENDP
_TEXT	ENDS
END
