; Listing generated by Microsoft (R) Optimizing Compiler Version 19.16.27045.0 

	TITLE	C:\Users\nhv90\Projects\eech\aphavoc\source\ui_menu\modcredits\modcredits.c
	.686P
	.XMM
	include listing.inc
	.model	flat

INCLUDELIB MSVCRTD
INCLUDELIB OLDNAMES

PUBLIC	?modcredits_screen@@3PAUUI_OBJECT@@A		; modcredits_screen
PUBLIC	?modcredits_screen_graphic@@3PAUTEXTURE_GRAPHIC@@A ; modcredits_screen_graphic
_BSS	SEGMENT
?modcredits_screen@@3PAUUI_OBJECT@@A DD 01H DUP (?)	; modcredits_screen
?modcredits_screen_graphic@@3PAUTEXTURE_GRAPHIC@@A DD 01H DUP (?) ; modcredits_screen_graphic
_BSS	ENDS
PUBLIC	?initialise_modcredits_screen@@YGXXZ		; initialise_modcredits_screen
PUBLIC	?notify_modcredits_screen@@YGXPAUUI_OBJECT@@PAX@Z ; notify_modcredits_screen
PUBLIC	??_C@_0CD@NJNCHLMG@graphics?2ui?2cohokum?2Modcredits?4@ ; `string'
PUBLIC	??_C@_07MLJKMGJK@UI_BACK@			; `string'
PUBLIC	__real@3f800000
PUBLIC	__real@3fa374bc60000000
PUBLIC	__real@3fa99999a0000000
PUBLIC	__real@3fc3333340000000
PUBLIC	__real@3fea872b00000000
EXTRN	?blit_front_buffer_to_render_buffer@@YGXXZ:PROC	; blit_front_buffer_to_render_buffer
EXTRN	?create_texture_graphic@@YGPAUTEXTURE_GRAPHIC@@PBD@Z:PROC ; create_texture_graphic
EXTRN	?destroy_texture_graphic@@YGXPAUTEXTURE_GRAPHIC@@@Z:PROC ; destroy_texture_graphic
EXTRN	?create_ui_object@@YAPAUUI_OBJECT@@HZZ:PROC	; create_ui_object
EXTRN	?reset_time_values@@YGXPAUUI_OBJECT@@@Z:PROC	; reset_time_values
EXTRN	?pop_ui_screen@@YGXW4SCREEN_POP_TYPES@@@Z:PROC	; pop_ui_screen
EXTRN	?get_trans@@YGPBDPBD@Z:PROC			; get_trans
EXTRN	?fn_get_ui_object_drawable@@3PAP6GHPAUUI_OBJECT@@@ZA:BYTE ; fn_get_ui_object_drawable
EXTRN	?fn_set_ui_object_redraw@@3PAP6GXPAUUI_OBJECT@@H@ZA:BYTE ; fn_set_ui_object_redraw
EXTRN	?fn_set_ui_object_texture_graphic@@3PAP6GXPAUUI_OBJECT@@PAUTEXTURE_GRAPHIC@@@ZA:BYTE ; fn_set_ui_object_texture_graphic
EXTRN	?fn_set_ui_object_graphic_type@@3PAP6GXPAUUI_OBJECT@@H@ZA:BYTE ; fn_set_ui_object_graphic_type
EXTRN	?ui_option_text_default_colour@@3UREAL_COLOUR@@A:DWORD ; ui_option_text_default_colour
EXTRN	?ui_option_text_hilite_colour@@3UREAL_COLOUR@@A:DWORD ; ui_option_text_hilite_colour
EXTRN	__fltused:DWORD
;	COMDAT __real@3fea872b00000000
CONST	SEGMENT
__real@3fea872b00000000 DQ 03fea872b00000000r	; 0.829
CONST	ENDS
;	COMDAT __real@3fc3333340000000
CONST	SEGMENT
__real@3fc3333340000000 DQ 03fc3333340000000r	; 0.15
CONST	ENDS
;	COMDAT __real@3fa99999a0000000
CONST	SEGMENT
__real@3fa99999a0000000 DQ 03fa99999a0000000r	; 0.05
CONST	ENDS
;	COMDAT __real@3fa374bc60000000
CONST	SEGMENT
__real@3fa374bc60000000 DQ 03fa374bc60000000r	; 0.038
CONST	ENDS
;	COMDAT __real@3f800000
CONST	SEGMENT
__real@3f800000 DD 03f800000r			; 1
CONST	ENDS
;	COMDAT ??_C@_07MLJKMGJK@UI_BACK@
CONST	SEGMENT
??_C@_07MLJKMGJK@UI_BACK@ DB 'UI_BACK', 00H		; `string'
CONST	ENDS
;	COMDAT ??_C@_0CD@NJNCHLMG@graphics?2ui?2cohokum?2Modcredits?4@
CONST	SEGMENT
??_C@_0CD@NJNCHLMG@graphics?2ui?2cohokum?2Modcredits?4@ DB 'graphics\ui\c'
	DB	'ohokum\Modcredits.psd', 00H			; `string'
CONST	ENDS
; Function compile flags: /Odtp /ZI
; File c:\users\nhv90\projects\eech\aphavoc\source\ui_menu\modcredits\modcredits.c
;	COMDAT ?notify_select_player_exit_button@@YGXPAUUI_OBJECT@@PAX@Z
_TEXT	SEGMENT
_obj$ = 8						; size = 4
_arg$ = 12						; size = 4
?notify_select_player_exit_button@@YGXPAUUI_OBJECT@@PAX@Z PROC ; notify_select_player_exit_button, COMDAT

; 193  : {

  00000	55		 push	 ebp
  00001	8b ec		 mov	 ebp, esp
  00003	83 ec 40	 sub	 esp, 64			; 00000040H
  00006	53		 push	 ebx
  00007	56		 push	 esi
  00008	57		 push	 edi

; 194  : 	if ((int) arg == BUTTON_STATE_UP)

  00009	83 7d 0c 01	 cmp	 DWORD PTR _arg$[ebp], 1
  0000d	75 22		 jne	 SHORT $LN2@notify_sel

; 195  : 	{
; 196  : 		set_ui_object_redraw (modcredits_screen, TRUE);

  0000f	6a 01		 push	 1
  00011	a1 00 00 00 00	 mov	 eax, DWORD PTR ?modcredits_screen@@3PAUUI_OBJECT@@A ; modcredits_screen
  00016	50		 push	 eax
  00017	8b 0d 00 00 00
	00		 mov	 ecx, DWORD PTR ?modcredits_screen@@3PAUUI_OBJECT@@A ; modcredits_screen
  0001d	8b 11		 mov	 edx, DWORD PTR [ecx]
  0001f	8b 04 95 00 00
	00 00		 mov	 eax, DWORD PTR ?fn_set_ui_object_redraw@@3PAP6GXPAUUI_OBJECT@@H@ZA[edx*4]
  00026	ff d0		 call	 eax

; 197  : 
; 198  : 		pop_ui_screen (SCREEN_POP_ACTUAL);

  00028	6a 00		 push	 0
  0002a	e8 00 00 00 00	 call	 ?pop_ui_screen@@YGXW4SCREEN_POP_TYPES@@@Z ; pop_ui_screen

; 199  : 	}
; 200  : 	else 

  0002f	eb 19		 jmp	 SHORT $LN3@notify_sel
$LN2@notify_sel:

; 201  : 	{
; 202  : 		set_ui_object_redraw (modcredits_screen, TRUE);

  00031	6a 01		 push	 1
  00033	a1 00 00 00 00	 mov	 eax, DWORD PTR ?modcredits_screen@@3PAUUI_OBJECT@@A ; modcredits_screen
  00038	50		 push	 eax
  00039	8b 0d 00 00 00
	00		 mov	 ecx, DWORD PTR ?modcredits_screen@@3PAUUI_OBJECT@@A ; modcredits_screen
  0003f	8b 11		 mov	 edx, DWORD PTR [ecx]
  00041	8b 04 95 00 00
	00 00		 mov	 eax, DWORD PTR ?fn_set_ui_object_redraw@@3PAP6GXPAUUI_OBJECT@@H@ZA[edx*4]
  00048	ff d0		 call	 eax
$LN3@notify_sel:

; 203  : 	}
; 204  : 
; 205  : 	set_ui_object_graphic_type (obj, UI_OBJECT_ALPHA_GRAPHIC);

  0004a	6a 03		 push	 3
  0004c	8b 45 08	 mov	 eax, DWORD PTR _obj$[ebp]
  0004f	50		 push	 eax
  00050	8b 4d 08	 mov	 ecx, DWORD PTR _obj$[ebp]
  00053	8b 11		 mov	 edx, DWORD PTR [ecx]
  00055	8b 04 95 00 00
	00 00		 mov	 eax, DWORD PTR ?fn_set_ui_object_graphic_type@@3PAP6GXPAUUI_OBJECT@@H@ZA[edx*4]
  0005c	ff d0		 call	 eax

; 206  : }

  0005e	5f		 pop	 edi
  0005f	5e		 pop	 esi
  00060	5b		 pop	 ebx
  00061	8b e5		 mov	 esp, ebp
  00063	5d		 pop	 ebp
  00064	c2 08 00	 ret	 8
?notify_select_player_exit_button@@YGXPAUUI_OBJECT@@PAX@Z ENDP ; notify_select_player_exit_button
_TEXT	ENDS
; Function compile flags: /Odtp /ZI
; File c:\users\nhv90\projects\eech\aphavoc\source\ui_menu\modcredits\modcredits.c
;	COMDAT ?notify_modcredits_screen@@YGXPAUUI_OBJECT@@PAX@Z
_TEXT	SEGMENT
_obj$ = 8						; size = 4
_arg$ = 12						; size = 4
?notify_modcredits_screen@@YGXPAUUI_OBJECT@@PAX@Z PROC	; notify_modcredits_screen, COMDAT

; 96   : {

  00000	55		 push	 ebp
  00001	8b ec		 mov	 ebp, esp
  00003	83 ec 40	 sub	 esp, 64			; 00000040H
  00006	53		 push	 ebx
  00007	56		 push	 esi
  00008	57		 push	 edi

; 97   : 
; 98   : 	if ( get_ui_object_drawable ( obj ) )

  00009	8b 45 08	 mov	 eax, DWORD PTR _obj$[ebp]
  0000c	50		 push	 eax
  0000d	8b 4d 08	 mov	 ecx, DWORD PTR _obj$[ebp]
  00010	8b 11		 mov	 edx, DWORD PTR [ecx]
  00012	8b 04 95 00 00
	00 00		 mov	 eax, DWORD PTR ?fn_get_ui_object_drawable@@3PAP6GHPAUUI_OBJECT@@@ZA[edx*4]
  00019	ff d0		 call	 eax
  0001b	85 c0		 test	 eax, eax
  0001d	74 5d		 je	 SHORT $LN2@notify_mod

; 99   : 	{
; 100  : 		
; 101  : 		//
; 102  : 		// Setup screen graphics
; 103  : 		//
; 104  : 	
; 105  : 		blit_front_buffer_to_render_buffer ();

  0001f	e8 00 00 00 00	 call	 ?blit_front_buffer_to_render_buffer@@YGXXZ ; blit_front_buffer_to_render_buffer

; 106  : 	
; 107  : 		if (modcredits_screen_graphic)

  00024	83 3d 00 00 00
	00 00		 cmp	 DWORD PTR ?modcredits_screen_graphic@@3PAUTEXTURE_GRAPHIC@@A, 0 ; modcredits_screen_graphic
  0002b	74 15		 je	 SHORT $LN4@notify_mod

; 108  : 		{
; 109  : 		
; 110  : 			destroy_texture_graphic (modcredits_screen_graphic);

  0002d	a1 00 00 00 00	 mov	 eax, DWORD PTR ?modcredits_screen_graphic@@3PAUTEXTURE_GRAPHIC@@A ; modcredits_screen_graphic
  00032	50		 push	 eax
  00033	e8 00 00 00 00	 call	 ?destroy_texture_graphic@@YGXPAUTEXTURE_GRAPHIC@@@Z ; destroy_texture_graphic

; 111  : 	
; 112  : 			modcredits_screen_graphic = NULL;

  00038	c7 05 00 00 00
	00 00 00 00 00	 mov	 DWORD PTR ?modcredits_screen_graphic@@3PAUTEXTURE_GRAPHIC@@A, 0 ; modcredits_screen_graphic
$LN4@notify_mod:

; 113  : 		}
; 114  : 		
; 115  : 		modcredits_screen_graphic = create_texture_graphic ("graphics\\ui\\cohokum\\Modcredits.psd");

  00042	68 00 00 00 00	 push	 OFFSET ??_C@_0CD@NJNCHLMG@graphics?2ui?2cohokum?2Modcredits?4@
  00047	e8 00 00 00 00	 call	 ?create_texture_graphic@@YGPAUTEXTURE_GRAPHIC@@PBD@Z ; create_texture_graphic
  0004c	a3 00 00 00 00	 mov	 DWORD PTR ?modcredits_screen_graphic@@3PAUTEXTURE_GRAPHIC@@A, eax ; modcredits_screen_graphic

; 116  : 		
; 117  : 		set_ui_object_texture_graphic (modcredits_screen, modcredits_screen_graphic);

  00051	a1 00 00 00 00	 mov	 eax, DWORD PTR ?modcredits_screen_graphic@@3PAUTEXTURE_GRAPHIC@@A ; modcredits_screen_graphic
  00056	50		 push	 eax
  00057	8b 0d 00 00 00
	00		 mov	 ecx, DWORD PTR ?modcredits_screen@@3PAUUI_OBJECT@@A ; modcredits_screen
  0005d	51		 push	 ecx
  0005e	8b 15 00 00 00
	00		 mov	 edx, DWORD PTR ?modcredits_screen@@3PAUUI_OBJECT@@A ; modcredits_screen
  00064	8b 02		 mov	 eax, DWORD PTR [edx]
  00066	8b 0c 85 00 00
	00 00		 mov	 ecx, DWORD PTR ?fn_set_ui_object_texture_graphic@@3PAP6GXPAUUI_OBJECT@@PAUTEXTURE_GRAPHIC@@@ZA[eax*4]
  0006d	ff d1		 call	 ecx

; 118  : 		
; 119  : 		reset_time_values (modcredits_screen);

  0006f	a1 00 00 00 00	 mov	 eax, DWORD PTR ?modcredits_screen@@3PAUUI_OBJECT@@A ; modcredits_screen
  00074	50		 push	 eax
  00075	e8 00 00 00 00	 call	 ?reset_time_values@@YGXPAUUI_OBJECT@@@Z ; reset_time_values

; 120  : 	}
; 121  : 	else

  0007a	eb 1e		 jmp	 SHORT $LN1@notify_mod
$LN2@notify_mod:

; 122  : 	{
; 123  : 
; 124  : 		if (modcredits_screen_graphic)

  0007c	83 3d 00 00 00
	00 00		 cmp	 DWORD PTR ?modcredits_screen_graphic@@3PAUTEXTURE_GRAPHIC@@A, 0 ; modcredits_screen_graphic
  00083	74 15		 je	 SHORT $LN1@notify_mod

; 125  : 		{
; 126  : 	
; 127  : 			destroy_texture_graphic (modcredits_screen_graphic);

  00085	a1 00 00 00 00	 mov	 eax, DWORD PTR ?modcredits_screen_graphic@@3PAUTEXTURE_GRAPHIC@@A ; modcredits_screen_graphic
  0008a	50		 push	 eax
  0008b	e8 00 00 00 00	 call	 ?destroy_texture_graphic@@YGXPAUTEXTURE_GRAPHIC@@@Z ; destroy_texture_graphic

; 128  : 
; 129  : 			modcredits_screen_graphic = NULL;

  00090	c7 05 00 00 00
	00 00 00 00 00	 mov	 DWORD PTR ?modcredits_screen_graphic@@3PAUTEXTURE_GRAPHIC@@A, 0 ; modcredits_screen_graphic
$LN1@notify_mod:

; 130  : 		}
; 131  : 	}
; 132  : }

  0009a	5f		 pop	 edi
  0009b	5e		 pop	 esi
  0009c	5b		 pop	 ebx
  0009d	8b e5		 mov	 esp, ebp
  0009f	5d		 pop	 ebp
  000a0	c2 08 00	 ret	 8
?notify_modcredits_screen@@YGXPAUUI_OBJECT@@PAX@Z ENDP	; notify_modcredits_screen
_TEXT	ENDS
; Function compile flags: /Odtp /ZI
; File c:\users\nhv90\projects\eech\aphavoc\source\ui_menu\modcredits\modcredits.c
;	COMDAT ?initialise_modcredits_screen@@YGXXZ
_TEXT	SEGMENT
_y$ = -8						; size = 4
_x$ = -4						; size = 4
?initialise_modcredits_screen@@YGXXZ PROC		; initialise_modcredits_screen, COMDAT

; 139  : {

  00000	55		 push	 ebp
  00001	8b ec		 mov	 ebp, esp
  00003	83 ec 48	 sub	 esp, 72			; 00000048H
  00006	53		 push	 ebx
  00007	56		 push	 esi
  00008	57		 push	 edi

; 140  : 	float
; 141  : 		x,
; 142  : 		y;
; 143  : 
; 144  : 	x = 1.0;

  00009	f3 0f 10 05 00
	00 00 00	 movss	 xmm0, DWORD PTR __real@3f800000
  00011	f3 0f 11 45 fc	 movss	 DWORD PTR _x$[ebp], xmm0

; 145  : 	y = 1.0;

  00016	f3 0f 10 05 00
	00 00 00	 movss	 xmm0, DWORD PTR __real@3f800000
  0001e	f3 0f 11 45 f8	 movss	 DWORD PTR _y$[ebp], xmm0

; 146  : 
; 147  : 	/////////////////////////////////////////////////////////////////
; 148  : 
; 149  : 	modcredits_screen = create_ui_object

  00023	6a 11		 push	 17			; 00000011H
  00025	68 00 00 00 00	 push	 OFFSET ?notify_modcredits_screen@@YGXPAUUI_OBJECT@@PAX@Z ; notify_modcredits_screen
  0002a	6a 16		 push	 22			; 00000016H
  0002c	6a 04		 push	 4
  0002e	6a 2f		 push	 47			; 0000002fH
  00030	6a 00		 push	 0
  00032	6a 30		 push	 48			; 00000030H
  00034	68 f4 01 00 00	 push	 500			; 000001f4H
  00039	6a 4d		 push	 77			; 0000004dH
  0003b	68 ff 00 00 00	 push	 255			; 000000ffH
  00040	68 ff 00 00 00	 push	 255			; 000000ffH
  00045	68 ff 00 00 00	 push	 255			; 000000ffH
  0004a	68 ff 00 00 00	 push	 255			; 000000ffH
  0004f	6a 0a		 push	 10			; 0000000aH
  00051	6a 00		 push	 0
  00053	68 ff 00 00 00	 push	 255			; 000000ffH
  00058	68 ff 00 00 00	 push	 255			; 000000ffH
  0005d	68 ff 00 00 00	 push	 255			; 000000ffH
  00062	6a 0b		 push	 11			; 0000000bH
  00064	f3 0f 5a 45 f8	 cvtss2sd xmm0, DWORD PTR _y$[ebp]
  00069	83 ec 08	 sub	 esp, 8
  0006c	f2 0f 11 04 24	 movsd	 QWORD PTR [esp], xmm0
  00071	f3 0f 5a 45 fc	 cvtss2sd xmm0, DWORD PTR _x$[ebp]
  00076	83 ec 08	 sub	 esp, 8
  00079	f2 0f 11 04 24	 movsd	 QWORD PTR [esp], xmm0
  0007e	6a 59		 push	 89			; 00000059H
  00080	83 ec 08	 sub	 esp, 8
  00083	0f 57 c0	 xorps	 xmm0, xmm0
  00086	f2 0f 11 04 24	 movsd	 QWORD PTR [esp], xmm0
  0008b	83 ec 08	 sub	 esp, 8
  0008e	0f 57 c0	 xorps	 xmm0, xmm0
  00091	f2 0f 11 04 24	 movsd	 QWORD PTR [esp], xmm0
  00096	6a 58		 push	 88			; 00000058H
  00098	6a 06		 push	 6
  0009a	e8 00 00 00 00	 call	 ?create_ui_object@@YAPAUUI_OBJECT@@HZZ ; create_ui_object
  0009f	83 c4 78	 add	 esp, 120		; 00000078H
  000a2	a3 00 00 00 00	 mov	 DWORD PTR ?modcredits_screen@@3PAUUI_OBJECT@@A, eax ; modcredits_screen

; 150  :             (
; 151  :                UI_TYPE_SCREEN,
; 152  : 					UI_ATTR_VIRTUAL_POSITION (0.0, 0.0),
; 153  : 					UI_ATTR_VIRTUAL_SIZE (x, y),
; 154  : 					UI_ATTR_COLOUR_START (255, 255, 255, 0),
; 155  : 					UI_ATTR_COLOUR_END (255, 255, 255, 255),
; 156  : 					UI_ATTR_TIME_LENGTH (500),
; 157  : 					UI_ATTR_OFFSET_TIME (0),
; 158  : 					UI_ATTR_NOTIFY_ON (NOTIFY_TYPE_DISPLAYED),
; 159  : 					UI_ATTR_FUNCTION (notify_modcredits_screen),
; 160  :                UI_ATTR_END
; 161  :             );
; 162  : 
; 163  : 	/////////////////////////////////////////////////////////////////
; 164  : 	// Back Button
; 165  : 
; 166  : 	create_ui_object

  000a7	6a 11		 push	 17			; 00000011H
  000a9	6a 01		 push	 1
  000ab	6a 07		 push	 7
  000ad	6a 01		 push	 1
  000af	6a 1b		 push	 27			; 0000001bH
  000b1	68 ff 00 00 00	 push	 255			; 000000ffH
  000b6	0f b6 05 00 00
	00 00		 movzx	 eax, BYTE PTR ?ui_option_text_hilite_colour@@3UREAL_COLOUR@@A
  000bd	50		 push	 eax
  000be	0f b6 0d 01 00
	00 00		 movzx	 ecx, BYTE PTR ?ui_option_text_hilite_colour@@3UREAL_COLOUR@@A+1
  000c5	51		 push	 ecx
  000c6	0f b6 15 02 00
	00 00		 movzx	 edx, BYTE PTR ?ui_option_text_hilite_colour@@3UREAL_COLOUR@@A+2
  000cd	52		 push	 edx
  000ce	6a 22		 push	 34			; 00000022H
  000d0	6a 00		 push	 0
  000d2	0f b6 05 00 00
	00 00		 movzx	 eax, BYTE PTR ?ui_option_text_hilite_colour@@3UREAL_COLOUR@@A
  000d9	50		 push	 eax
  000da	0f b6 0d 01 00
	00 00		 movzx	 ecx, BYTE PTR ?ui_option_text_hilite_colour@@3UREAL_COLOUR@@A+1
  000e1	51		 push	 ecx
  000e2	0f b6 15 02 00
	00 00		 movzx	 edx, BYTE PTR ?ui_option_text_hilite_colour@@3UREAL_COLOUR@@A+2
  000e9	52		 push	 edx
  000ea	6a 23		 push	 35			; 00000023H
  000ec	68 ff 00 00 00	 push	 255			; 000000ffH
  000f1	0f b6 05 00 00
	00 00		 movzx	 eax, BYTE PTR ?ui_option_text_default_colour@@3UREAL_COLOUR@@A
  000f8	50		 push	 eax
  000f9	0f b6 0d 01 00
	00 00		 movzx	 ecx, BYTE PTR ?ui_option_text_default_colour@@3UREAL_COLOUR@@A+1
  00100	51		 push	 ecx
  00101	0f b6 15 02 00
	00 00		 movzx	 edx, BYTE PTR ?ui_option_text_default_colour@@3UREAL_COLOUR@@A+2
  00108	52		 push	 edx
  00109	6a 14		 push	 20			; 00000014H
  0010b	6a 00		 push	 0
  0010d	0f b6 05 00 00
	00 00		 movzx	 eax, BYTE PTR ?ui_option_text_default_colour@@3UREAL_COLOUR@@A
  00114	50		 push	 eax
  00115	0f b6 0d 01 00
	00 00		 movzx	 ecx, BYTE PTR ?ui_option_text_default_colour@@3UREAL_COLOUR@@A+1
  0011c	51		 push	 ecx
  0011d	0f b6 15 02 00
	00 00		 movzx	 edx, BYTE PTR ?ui_option_text_default_colour@@3UREAL_COLOUR@@A+2
  00124	52		 push	 edx
  00125	6a 15		 push	 21			; 00000015H
  00127	6a 01		 push	 1
  00129	6a 4b		 push	 75			; 0000004bH
  0012b	6a 08		 push	 8
  0012d	6a 12		 push	 18			; 00000012H
  0012f	68 00 00 00 00	 push	 OFFSET ?notify_select_player_exit_button@@YGXPAUUI_OBJECT@@PAX@Z ; notify_select_player_exit_button
  00134	6a 16		 push	 22			; 00000016H
  00136	6a 01		 push	 1
  00138	6a 2f		 push	 47			; 0000002fH
  0013a	68 00 00 00 00	 push	 OFFSET ??_C@_07MLJKMGJK@UI_BACK@
  0013f	e8 00 00 00 00	 call	 ?get_trans@@YGPBDPBD@Z	; get_trans
  00144	50		 push	 eax
  00145	6a 4a		 push	 74			; 0000004aH
  00147	83 ec 08	 sub	 esp, 8
  0014a	f2 0f 10 05 00
	00 00 00	 movsd	 xmm0, QWORD PTR __real@3fa99999a0000000
  00152	f2 0f 11 04 24	 movsd	 QWORD PTR [esp], xmm0
  00157	83 ec 08	 sub	 esp, 8
  0015a	f2 0f 10 05 00
	00 00 00	 movsd	 xmm0, QWORD PTR __real@3fc3333340000000
  00162	f2 0f 11 04 24	 movsd	 QWORD PTR [esp], xmm0
  00167	6a 59		 push	 89			; 00000059H
  00169	83 ec 08	 sub	 esp, 8
  0016c	f2 0f 10 05 00
	00 00 00	 movsd	 xmm0, QWORD PTR __real@3fea872b00000000
  00174	f2 0f 11 04 24	 movsd	 QWORD PTR [esp], xmm0
  00179	83 ec 08	 sub	 esp, 8
  0017c	f2 0f 10 05 00
	00 00 00	 movsd	 xmm0, QWORD PTR __real@3fa374bc60000000
  00184	f2 0f 11 04 24	 movsd	 QWORD PTR [esp], xmm0
  00189	6a 58		 push	 88			; 00000058H
  0018b	a1 00 00 00 00	 mov	 eax, DWORD PTR ?modcredits_screen@@3PAUUI_OBJECT@@A ; modcredits_screen
  00190	50		 push	 eax
  00191	6a 32		 push	 50			; 00000032H
  00193	6a 02		 push	 2
  00195	e8 00 00 00 00	 call	 ?create_ui_object@@YAPAUUI_OBJECT@@HZZ ; create_ui_object
  0019a	81 c4 c0 00 00
	00		 add	 esp, 192		; 000000c0H

; 167  : 			(
; 168  : 				UI_TYPE_BUTTON,
; 169  : 				UI_ATTR_PARENT (modcredits_screen),
; 170  : 				UI_ATTR_VIRTUAL_POSITION (OPTIONS_OK_BUTTON_POS_X, OPTIONS_OK_BUTTON_POS_Y),
; 171  : 				UI_ATTR_VIRTUAL_SIZE (OPTIONS_OK_BUTTON_X, OPTIONS_OK_BUTTON_Y),
; 172  : 				UI_ATTR_TEXT (get_trans("UI_BACK")),
; 173  : 				UI_ATTR_NOTIFY_ON (NOTIFY_TYPE_BUTTON_UP),
; 174  : 				UI_ATTR_FUNCTION (notify_select_player_exit_button),
; 175  : 				UI_ATTR_FONT_TYPE (UI_FONT_THICK_ITALIC_ARIAL_18),
; 176  : 				UI_ATTR_TEXT_JUSTIFY (TEXT_JUSTIFY_LEFT_CENTRE),
; 177  :            	UI_ATTR_FONT_COLOUR_START (ui_option_text_default_colour.r, ui_option_text_default_colour.g, ui_option_text_default_colour.b, 0),
; 178  :            	UI_ATTR_FONT_COLOUR_END (ui_option_text_default_colour.r, ui_option_text_default_colour.g, ui_option_text_default_colour.b, 255),
; 179  :            	UI_ATTR_HIGHLIGHTED_FONT_COLOUR_START (ui_option_text_hilite_colour.r, ui_option_text_hilite_colour.g, ui_option_text_hilite_colour.b, 0),
; 180  :            	UI_ATTR_HIGHLIGHTED_FONT_COLOUR_END (ui_option_text_hilite_colour.r, ui_option_text_hilite_colour.g, ui_option_text_hilite_colour.b, 255),
; 181  : 				UI_ATTR_HIGHLIGHTABLE (TRUE),
; 182  : 				UI_ATTR_CLEAR (TRUE),
; 183  : 				UI_ATTR_END
; 184  : 			);
; 185  : 			
; 186  : }

  001a0	5f		 pop	 edi
  001a1	5e		 pop	 esi
  001a2	5b		 pop	 ebx
  001a3	8b e5		 mov	 esp, ebp
  001a5	5d		 pop	 ebp
  001a6	c3		 ret	 0
?initialise_modcredits_screen@@YGXXZ ENDP		; initialise_modcredits_screen
_TEXT	ENDS
END
