; Listing generated by Microsoft (R) Optimizing Compiler Version 19.16.27045.0 

	TITLE	C:\Users\nhv90\Projects\eech\modules\userint2\ui_obj\slider\ms_creat.c
	.686P
	.XMM
	include listing.inc
	.model	flat

INCLUDELIB MSVCRTD
INCLUDELIB OLDNAMES

PUBLIC	?overload_mslider_ui_object_create_functions@@YGXH@Z ; overload_mslider_ui_object_create_functions
PUBLIC	??_C@_0CG@KAAOIJLD@ERROR?3?5mslider_box?5MUST?5have?5a?5@ ; `string'
PUBLIC	__real@41200000
PUBLIC	__real@42c80000
EXTRN	_memset:PROC
EXTRN	?debug_fatal@@YAXPBDZZ:PROC			; debug_fatal
EXTRN	?safe_malloc_memory@@YGPAXI@Z:PROC		; safe_malloc_memory
EXTRN	?set_ui_object_attributes@@YGXPAUUI_OBJECT@@PAD@Z:PROC ; set_ui_object_attributes
EXTRN	?increase_ui_object_counter@@YGXXZ:PROC		; increase_ui_object_counter
EXTRN	?fn_create_ui_object@@3PAP6GXPAUUI_OBJECT@@HPAD@ZA:BYTE ; fn_create_ui_object
EXTRN	?fn_get_ui_object_parent@@3PAP6GPAUUI_OBJECT@@PAU1@@ZA:BYTE ; fn_get_ui_object_parent
EXTRN	__fltused:DWORD
;	COMDAT __real@42c80000
CONST	SEGMENT
__real@42c80000 DD 042c80000r			; 100
CONST	ENDS
;	COMDAT __real@41200000
CONST	SEGMENT
__real@41200000 DD 041200000r			; 10
CONST	ENDS
;	COMDAT ??_C@_0CG@KAAOIJLD@ERROR?3?5mslider_box?5MUST?5have?5a?5@
CONST	SEGMENT
??_C@_0CG@KAAOIJLD@ERROR?3?5mslider_box?5MUST?5have?5a?5@ DB 'ERROR: msli'
	DB	'der_box MUST have a parent', 00H		; `string'
CONST	ENDS
; Function compile flags: /Odtp /ZI
; File c:\users\nhv90\projects\eech\modules\userint2\ui_obj\slider\ms_creat.c
;	COMDAT ?create_mslider_ui_object@@YGXPAUUI_OBJECT@@HPAD@Z
_TEXT	SEGMENT
_new_mslider$ = -8					; size = 4
_parent$ = -4						; size = 4
_obj$ = 8						; size = 4
_type$ = 12						; size = 4
_pargs$ = 16						; size = 4
?create_mslider_ui_object@@YGXPAUUI_OBJECT@@HPAD@Z PROC	; create_mslider_ui_object, COMDAT

; 74   : {

  00000	55		 push	 ebp
  00001	8b ec		 mov	 ebp, esp
  00003	83 ec 48	 sub	 esp, 72			; 00000048H
  00006	53		 push	 ebx
  00007	56		 push	 esi
  00008	57		 push	 edi

; 75   : 
; 76   : 	ui_object
; 77   : 		*parent;
; 78   : 
; 79   :    slider_ui_object
; 80   :       *new_mslider;
; 81   : 
; 82   : 	increase_ui_object_counter ();

  00009	e8 00 00 00 00	 call	 ?increase_ui_object_counter@@YGXXZ ; increase_ui_object_counter

; 83   : 
; 84   :    ////////////////////////////////////////
; 85   :    //
; 86   :    // MALLOC ENTITY DATA
; 87   :    //
; 88   :    ////////////////////////////////////////
; 89   : 
; 90   :    obj->type   = type;

  0000e	8b 45 08	 mov	 eax, DWORD PTR _obj$[ebp]
  00011	8b 4d 0c	 mov	 ecx, DWORD PTR _type$[ebp]
  00014	89 08		 mov	 DWORD PTR [eax], ecx

; 91   : 
; 92   :    new_mslider	= (slider_ui_object *) safe_malloc (sizeof (slider_ui_object));

  00016	68 f0 00 00 00	 push	 240			; 000000f0H
  0001b	e8 00 00 00 00	 call	 ?safe_malloc_memory@@YGPAXI@Z ; safe_malloc_memory
  00020	89 45 f8	 mov	 DWORD PTR _new_mslider$[ebp], eax

; 93   : 
; 94   :    obj->data   = new_mslider;

  00023	8b 45 08	 mov	 eax, DWORD PTR _obj$[ebp]
  00026	8b 4d f8	 mov	 ecx, DWORD PTR _new_mslider$[ebp]
  00029	89 48 04	 mov	 DWORD PTR [eax+4], ecx

; 95   : 
; 96   :    ////////////////////////////////////////
; 97   :    //
; 98   :    // INITIALISE ALL ENTITY DATA TO 'WORKING' DEFAULT VALUES
; 99   :    //
; 100  :    // DO NOT USE ACCESS FUNCTIONS
; 101  :    //
; 102  :    // DO NOT USE RANDOM VALUES
; 103  :    //
; 104  :    ////////////////////////////////////////
; 105  : 
; 106  :    memset (new_mslider, 0, sizeof (slider_ui_object));

  0002c	68 f0 00 00 00	 push	 240			; 000000f0H
  00031	6a 00		 push	 0
  00033	8b 45 f8	 mov	 eax, DWORD PTR _new_mslider$[ebp]
  00036	50		 push	 eax
  00037	e8 00 00 00 00	 call	 _memset
  0003c	83 c4 0c	 add	 esp, 12			; 0000000cH

; 107  : 
; 108  :    //new_mslider->area.x = 0.0;
; 109  :    //new_mslider->area.y = 0.0;
; 110  :    //new_mslider->area.x_size = 20.0;
; 111  :    //new_mslider->area.y_size = 20.0;
; 112  : 	new_mslider->area.colour_start.r = 255;

  0003f	8b 45 f8	 mov	 eax, DWORD PTR _new_mslider$[ebp]
  00042	c6 80 82 00 00
	00 ff		 mov	 BYTE PTR [eax+130], 255	; 000000ffH

; 113  : 	new_mslider->area.colour_start.g = 255;

  00049	8b 45 f8	 mov	 eax, DWORD PTR _new_mslider$[ebp]
  0004c	c6 80 81 00 00
	00 ff		 mov	 BYTE PTR [eax+129], 255	; 000000ffH

; 114  : 	new_mslider->area.colour_start.b = 255;

  00053	8b 45 f8	 mov	 eax, DWORD PTR _new_mslider$[ebp]
  00056	c6 80 80 00 00
	00 ff		 mov	 BYTE PTR [eax+128], 255	; 000000ffH

; 115  : 	new_mslider->area.colour_start.a = 255;

  0005d	8b 45 f8	 mov	 eax, DWORD PTR _new_mslider$[ebp]
  00060	c6 80 83 00 00
	00 ff		 mov	 BYTE PTR [eax+131], 255	; 000000ffH

; 116  : 	new_mslider->area.colour_end.r = 255;

  00067	8b 45 f8	 mov	 eax, DWORD PTR _new_mslider$[ebp]
  0006a	c6 40 7e ff	 mov	 BYTE PTR [eax+126], 255	; 000000ffH

; 117  : 	new_mslider->area.colour_end.g = 255;

  0006e	8b 45 f8	 mov	 eax, DWORD PTR _new_mslider$[ebp]
  00071	c6 40 7d ff	 mov	 BYTE PTR [eax+125], 255	; 000000ffH

; 118  : 	new_mslider->area.colour_end.b = 255;

  00075	8b 45 f8	 mov	 eax, DWORD PTR _new_mslider$[ebp]
  00078	c6 40 7c ff	 mov	 BYTE PTR [eax+124], 255	; 000000ffH

; 119  : 	new_mslider->area.colour_end.a = 255;

  0007c	8b 45 f8	 mov	 eax, DWORD PTR _new_mslider$[ebp]
  0007f	c6 40 7f ff	 mov	 BYTE PTR [eax+127], 255	; 000000ffH

; 120  :    new_mslider->area.x_origin = 0.0;

  00083	8b 45 f8	 mov	 eax, DWORD PTR _new_mslider$[ebp]
  00086	0f 57 c0	 xorps	 xmm0, xmm0
  00089	f3 0f 11 40 30	 movss	 DWORD PTR [eax+48], xmm0

; 121  :    new_mslider->area.y_origin = 0.0;

  0008e	8b 45 f8	 mov	 eax, DWORD PTR _new_mslider$[ebp]
  00091	0f 57 c0	 xorps	 xmm0, xmm0
  00094	f3 0f 11 40 34	 movss	 DWORD PTR [eax+52], xmm0

; 122  :    new_mslider->area.drawable = 1;

  00099	8b 45 f8	 mov	 eax, DWORD PTR _new_mslider$[ebp]
  0009c	8b 48 4c	 mov	 ecx, DWORD PTR [eax+76]
  0009f	83 c9 20	 or	 ecx, 32			; 00000020H
  000a2	8b 55 f8	 mov	 edx, DWORD PTR _new_mslider$[ebp]
  000a5	89 4a 4c	 mov	 DWORD PTR [edx+76], ecx

; 123  :    new_mslider->area.item_number = -1;

  000a8	8b 45 f8	 mov	 eax, DWORD PTR _new_mslider$[ebp]
  000ab	c7 40 54 ff ff
	ff ff		 mov	 DWORD PTR [eax+84], -1

; 124  :    new_mslider->area.redraw = 1;

  000b2	8b 45 f8	 mov	 eax, DWORD PTR _new_mslider$[ebp]
  000b5	8b 48 4c	 mov	 ecx, DWORD PTR [eax+76]
  000b8	81 e1 7f 80 ff
	ff		 and	 ecx, -32641		; ffff807fH
  000be	81 c9 80 00 00
	00		 or	 ecx, 128		; 00000080H
  000c4	8b 55 f8	 mov	 edx, DWORD PTR _new_mslider$[ebp]
  000c7	89 4a 4c	 mov	 DWORD PTR [edx+76], ecx

; 125  :    new_mslider->area.moveable = 0;

  000ca	8b 45 f8	 mov	 eax, DWORD PTR _new_mslider$[ebp]
  000cd	8b 48 4c	 mov	 ecx, DWORD PTR [eax+76]
  000d0	81 e1 ff 7f ff
	ff		 and	 ecx, -32769		; ffff7fffH
  000d6	8b 55 f8	 mov	 edx, DWORD PTR _new_mslider$[ebp]
  000d9	89 4a 4c	 mov	 DWORD PTR [edx+76], ecx

; 126  :    new_mslider->area.resizeable = 0;

  000dc	8b 45 f8	 mov	 eax, DWORD PTR _new_mslider$[ebp]
  000df	8b 48 4c	 mov	 ecx, DWORD PTR [eax+76]
  000e2	81 e1 ff ff fe
	ff		 and	 ecx, -65537		; fffeffffH
  000e8	8b 55 f8	 mov	 edx, DWORD PTR _new_mslider$[ebp]
  000eb	89 4a 4c	 mov	 DWORD PTR [edx+76], ecx

; 127  :    new_mslider->area.notify_on = NOTIFY_TYPE_BUTTON_EITHER;

  000ee	8b 45 f8	 mov	 eax, DWORD PTR _new_mslider$[ebp]
  000f1	8b 48 4c	 mov	 ecx, DWORD PTR [eax+76]
  000f4	81 e1 ff ff ff
	87		 and	 ecx, -2013265921	; 87ffffffH
  000fa	81 c9 00 00 00
	18		 or	 ecx, 402653184		; 18000000H
  00100	8b 55 f8	 mov	 edx, DWORD PTR _new_mslider$[ebp]
  00103	89 4a 4c	 mov	 DWORD PTR [edx+76], ecx

; 128  :    new_mslider->area.parent = NULL;

  00106	8b 45 f8	 mov	 eax, DWORD PTR _new_mslider$[ebp]
  00109	c7 40 3c 00 00
	00 00		 mov	 DWORD PTR [eax+60], 0

; 129  :    new_mslider->area.child = NULL;

  00110	8b 45 f8	 mov	 eax, DWORD PTR _new_mslider$[ebp]
  00113	c7 40 40 00 00
	00 00		 mov	 DWORD PTR [eax+64], 0

; 130  :    new_mslider->area.next = NULL;

  0011a	8b 45 f8	 mov	 eax, DWORD PTR _new_mslider$[ebp]
  0011d	c7 40 44 00 00
	00 00		 mov	 DWORD PTR [eax+68], 0

; 131  :    new_mslider->area.prev = NULL;

  00124	8b 45 f8	 mov	 eax, DWORD PTR _new_mslider$[ebp]
  00127	c7 40 48 00 00
	00 00		 mov	 DWORD PTR [eax+72], 0

; 132  :    new_mslider->area.state = 0;

  0012e	8b 45 f8	 mov	 eax, DWORD PTR _new_mslider$[ebp]
  00131	8b 48 4c	 mov	 ecx, DWORD PTR [eax+76]
  00134	83 e1 e7	 and	 ecx, -25		; ffffffe7H
  00137	8b 55 f8	 mov	 edx, DWORD PTR _new_mslider$[ebp]
  0013a	89 4a 4c	 mov	 DWORD PTR [edx+76], ecx

; 133  : 
; 134  :    new_mslider->slider_min = 0;

  0013d	8b 45 f8	 mov	 eax, DWORD PTR _new_mslider$[ebp]
  00140	0f 57 c0	 xorps	 xmm0, xmm0
  00143	f3 0f 11 80 e4
	00 00 00	 movss	 DWORD PTR [eax+228], xmm0

; 135  :    new_mslider->slider_max = 100;

  0014b	8b 45 f8	 mov	 eax, DWORD PTR _new_mslider$[ebp]
  0014e	f3 0f 10 05 00
	00 00 00	 movss	 xmm0, DWORD PTR __real@42c80000
  00156	f3 0f 11 80 e8
	00 00 00	 movss	 DWORD PTR [eax+232], xmm0

; 136  :    new_mslider->slider_inc = 10;

  0015e	8b 45 f8	 mov	 eax, DWORD PTR _new_mslider$[ebp]
  00161	f3 0f 10 05 00
	00 00 00	 movss	 xmm0, DWORD PTR __real@41200000
  00169	f3 0f 11 80 ec
	00 00 00	 movss	 DWORD PTR [eax+236], xmm0

; 137  : 
; 138  :    ////////////////////////////////////////
; 139  :    //
; 140  :    // OVERWRITE DEFAULTS WITH GIVEN ATTRIBUTES
; 141  :    //
; 142  :    ////////////////////////////////////////
; 143  : 
; 144  :    set_ui_object_attributes (obj, pargs);

  00171	8b 45 10	 mov	 eax, DWORD PTR _pargs$[ebp]
  00174	50		 push	 eax
  00175	8b 4d 08	 mov	 ecx, DWORD PTR _obj$[ebp]
  00178	51		 push	 ecx
  00179	e8 00 00 00 00	 call	 ?set_ui_object_attributes@@YGXPAUUI_OBJECT@@PAD@Z ; set_ui_object_attributes

; 145  : 
; 146  : 	parent = get_ui_object_parent (obj);

  0017e	8b 45 08	 mov	 eax, DWORD PTR _obj$[ebp]
  00181	50		 push	 eax
  00182	8b 4d 08	 mov	 ecx, DWORD PTR _obj$[ebp]
  00185	8b 11		 mov	 edx, DWORD PTR [ecx]
  00187	8b 04 95 00 00
	00 00		 mov	 eax, DWORD PTR ?fn_get_ui_object_parent@@3PAP6GPAUUI_OBJECT@@PAU1@@ZA[edx*4]
  0018e	ff d0		 call	 eax
  00190	89 45 fc	 mov	 DWORD PTR _parent$[ebp], eax

; 147  : 
; 148  : 	if (!parent)

  00193	83 7d fc 00	 cmp	 DWORD PTR _parent$[ebp], 0
  00197	75 0d		 jne	 SHORT $LN2@create_msl

; 149  : 	{
; 150  : 
; 151  : 		debug_fatal ("ERROR: mslider_box MUST have a parent");

  00199	68 00 00 00 00	 push	 OFFSET ??_C@_0CG@KAAOIJLD@ERROR?3?5mslider_box?5MUST?5have?5a?5@
  0019e	e8 00 00 00 00	 call	 ?debug_fatal@@YAXPBDZZ	; debug_fatal
  001a3	83 c4 04	 add	 esp, 4
$LN2@create_msl:

; 152  : 	}
; 153  : 
; 154  :    ////////////////////////////////////////
; 155  :    //
; 156  :    // INTEGRATE INTO SYSTEM
; 157  :    //
; 158  :    ////////////////////////////////////////
; 159  : }

  001a6	5f		 pop	 edi
  001a7	5e		 pop	 esi
  001a8	5b		 pop	 ebx
  001a9	8b e5		 mov	 esp, ebp
  001ab	5d		 pop	 ebp
  001ac	c2 0c 00	 ret	 12			; 0000000cH
?create_mslider_ui_object@@YGXPAUUI_OBJECT@@HPAD@Z ENDP	; create_mslider_ui_object
_TEXT	ENDS
; Function compile flags: /Odtp /ZI
; File c:\users\nhv90\projects\eech\modules\userint2\ui_obj\slider\ms_creat.c
;	COMDAT ?overload_mslider_ui_object_create_functions@@YGXH@Z
_TEXT	SEGMENT
_type$ = 8						; size = 4
?overload_mslider_ui_object_create_functions@@YGXH@Z PROC ; overload_mslider_ui_object_create_functions, COMDAT

; 166  : {

  00000	55		 push	 ebp
  00001	8b ec		 mov	 ebp, esp
  00003	83 ec 40	 sub	 esp, 64			; 00000040H
  00006	53		 push	 ebx
  00007	56		 push	 esi
  00008	57		 push	 edi

; 167  : 
; 168  : 	fn_create_ui_object [type] = create_mslider_ui_object;

  00009	8b 45 08	 mov	 eax, DWORD PTR _type$[ebp]
  0000c	c7 04 85 00 00
	00 00 00 00 00
	00		 mov	 DWORD PTR ?fn_create_ui_object@@3PAP6GXPAUUI_OBJECT@@HPAD@ZA[eax*4], OFFSET ?create_mslider_ui_object@@YGXPAUUI_OBJECT@@HPAD@Z ; create_mslider_ui_object

; 169  : }

  00017	5f		 pop	 edi
  00018	5e		 pop	 esi
  00019	5b		 pop	 ebx
  0001a	8b e5		 mov	 esp, ebp
  0001c	5d		 pop	 ebp
  0001d	c2 04 00	 ret	 4
?overload_mslider_ui_object_create_functions@@YGXH@Z ENDP ; overload_mslider_ui_object_create_functions
_TEXT	ENDS
END
