; Listing generated by Microsoft (R) Optimizing Compiler Version 19.16.27045.0 

	TITLE	C:\Users\nhv90\Projects\eech\modules\userint2\ui_obj\slider\ms_flags.c
	.686P
	.XMM
	include listing.inc
	.model	flat

INCLUDELIB MSVCRTD
INCLUDELIB OLDNAMES

PUBLIC	?overload_mslider_ui_object_flag_functions@@YGXH@Z ; overload_mslider_ui_object_flag_functions
EXTRN	?ui_object_mslider_function@@YGXPAUUI_OBJECT@@PAX@Z:PROC ; ui_object_mslider_function
EXTRN	?fn_set_ui_object_moveable@@3PAP6GXPAUUI_OBJECT@@H@ZA:BYTE ; fn_set_ui_object_moveable
EXTRN	?fn_get_ui_object_next@@3PAP6GPAUUI_OBJECT@@PAU1@@ZA:BYTE ; fn_get_ui_object_next
EXTRN	?scroll@@3MA:DWORD				; scroll
EXTRN	__fltused:DWORD
; Function compile flags: /Odtp /ZI
; File c:\users\nhv90\projects\eech\modules\userint2\ui_obj\slider\ms_flags.c
;	COMDAT ?set_mslider_ui_object_moveable@@YGXPAUUI_OBJECT@@H@Z
_TEXT	SEGMENT
_slider$ = -4						; size = 4
_obj$ = 8						; size = 4
_flag$ = 12						; size = 4
?set_mslider_ui_object_moveable@@YGXPAUUI_OBJECT@@H@Z PROC ; set_mslider_ui_object_moveable, COMDAT

; 74   : {

  00000	55		 push	 ebp
  00001	8b ec		 mov	 ebp, esp
  00003	83 ec 44	 sub	 esp, 68			; 00000044H
  00006	53		 push	 ebx
  00007	56		 push	 esi
  00008	57		 push	 edi

; 75   : 
; 76   : 	slider_ui_object
; 77   : 		*slider;
; 78   : 
; 79   : 	slider = (slider_ui_object *) obj->data;

  00009	8b 45 08	 mov	 eax, DWORD PTR _obj$[ebp]
  0000c	8b 48 04	 mov	 ecx, DWORD PTR [eax+4]
  0000f	89 4d fc	 mov	 DWORD PTR _slider$[ebp], ecx

; 80   : 
; 81   : 	if (obj)

  00012	83 7d 08 00	 cmp	 DWORD PTR _obj$[ebp], 0
  00016	0f 84 b7 00 00
	00		 je	 $LN2@set_mslide

; 82   : 	{
; 83   : 	
; 84   : 		slider = (slider_ui_object *) obj->data;

  0001c	8b 45 08	 mov	 eax, DWORD PTR _obj$[ebp]
  0001f	8b 48 04	 mov	 ecx, DWORD PTR [eax+4]
  00022	89 4d fc	 mov	 DWORD PTR _slider$[ebp], ecx

; 85   : 	
; 86   : 		if (slider->area.child)

  00025	8b 45 fc	 mov	 eax, DWORD PTR _slider$[ebp]
  00028	83 78 40 00	 cmp	 DWORD PTR [eax+64], 0
  0002c	74 1c		 je	 SHORT $LN3@set_mslide

; 87   : 		{
; 88   : 	
; 89   : 			set_ui_object_moveable (slider->area.child, flag);

  0002e	8b 45 0c	 mov	 eax, DWORD PTR _flag$[ebp]
  00031	50		 push	 eax
  00032	8b 4d fc	 mov	 ecx, DWORD PTR _slider$[ebp]
  00035	8b 51 40	 mov	 edx, DWORD PTR [ecx+64]
  00038	52		 push	 edx
  00039	8b 45 fc	 mov	 eax, DWORD PTR _slider$[ebp]
  0003c	8b 48 40	 mov	 ecx, DWORD PTR [eax+64]
  0003f	8b 11		 mov	 edx, DWORD PTR [ecx]
  00041	8b 04 95 00 00
	00 00		 mov	 eax, DWORD PTR ?fn_set_ui_object_moveable@@3PAP6GXPAUUI_OBJECT@@H@ZA[edx*4]
  00048	ff d0		 call	 eax
$LN3@set_mslide:

; 90   : 		}
; 91   : 	
; 92   : 		if (slider->area.next)

  0004a	8b 45 fc	 mov	 eax, DWORD PTR _slider$[ebp]
  0004d	83 78 44 00	 cmp	 DWORD PTR [eax+68], 0
  00051	74 1c		 je	 SHORT $LN4@set_mslide

; 93   : 		{
; 94   : 	
; 95   : 			set_ui_object_moveable (slider->area.next, flag);

  00053	8b 45 0c	 mov	 eax, DWORD PTR _flag$[ebp]
  00056	50		 push	 eax
  00057	8b 4d fc	 mov	 ecx, DWORD PTR _slider$[ebp]
  0005a	8b 51 44	 mov	 edx, DWORD PTR [ecx+68]
  0005d	52		 push	 edx
  0005e	8b 45 fc	 mov	 eax, DWORD PTR _slider$[ebp]
  00061	8b 48 44	 mov	 ecx, DWORD PTR [eax+68]
  00064	8b 11		 mov	 edx, DWORD PTR [ecx]
  00066	8b 04 95 00 00
	00 00		 mov	 eax, DWORD PTR ?fn_set_ui_object_moveable@@3PAP6GXPAUUI_OBJECT@@H@ZA[edx*4]
  0006d	ff d0		 call	 eax
$LN4@set_mslide:

; 96   : 		}
; 97   : 	
; 98   : 		slider->area.moveable = flag;

  0006f	8b 45 0c	 mov	 eax, DWORD PTR _flag$[ebp]
  00072	83 e0 01	 and	 eax, 1
  00075	c1 e0 0f	 shl	 eax, 15			; 0000000fH
  00078	8b 4d fc	 mov	 ecx, DWORD PTR _slider$[ebp]
  0007b	8b 51 4c	 mov	 edx, DWORD PTR [ecx+76]
  0007e	81 e2 ff 7f ff
	ff		 and	 edx, -32769		; ffff7fffH
  00084	0b d0		 or	 edx, eax
  00086	8b 45 fc	 mov	 eax, DWORD PTR _slider$[ebp]
  00089	89 50 4c	 mov	 DWORD PTR [eax+76], edx

; 99   : 
; 100  : 		if (flag == UI_OBJECT_STATE_ON)

  0008c	83 7d 0c 01	 cmp	 DWORD PTR _flag$[ebp], 1
  00090	75 1c		 jne	 SHORT $LN5@set_mslide

; 101  : 		{
; 102  : 
; 103  : 			ui_object_mslider_function (get_ui_object_next (obj), (void *) BUTTON_STATE_DOWN);

  00092	6a 02		 push	 2
  00094	8b 45 08	 mov	 eax, DWORD PTR _obj$[ebp]
  00097	50		 push	 eax
  00098	8b 4d 08	 mov	 ecx, DWORD PTR _obj$[ebp]
  0009b	8b 11		 mov	 edx, DWORD PTR [ecx]
  0009d	8b 04 95 00 00
	00 00		 mov	 eax, DWORD PTR ?fn_get_ui_object_next@@3PAP6GPAUUI_OBJECT@@PAU1@@ZA[edx*4]
  000a4	ff d0		 call	 eax
  000a6	50		 push	 eax
  000a7	e8 00 00 00 00	 call	 ?ui_object_mslider_function@@YGXPAUUI_OBJECT@@PAX@Z ; ui_object_mslider_function

; 104  : 		}
; 105  : 		else

  000ac	eb 1a		 jmp	 SHORT $LN6@set_mslide
$LN5@set_mslide:

; 106  : 		{
; 107  : 
; 108  : 			ui_object_mslider_function (get_ui_object_next (obj), (void *) BUTTON_STATE_UP);

  000ae	6a 01		 push	 1
  000b0	8b 45 08	 mov	 eax, DWORD PTR _obj$[ebp]
  000b3	50		 push	 eax
  000b4	8b 4d 08	 mov	 ecx, DWORD PTR _obj$[ebp]
  000b7	8b 11		 mov	 edx, DWORD PTR [ecx]
  000b9	8b 04 95 00 00
	00 00		 mov	 eax, DWORD PTR ?fn_get_ui_object_next@@3PAP6GPAUUI_OBJECT@@PAU1@@ZA[edx*4]
  000c0	ff d0		 call	 eax
  000c2	50		 push	 eax
  000c3	e8 00 00 00 00	 call	 ?ui_object_mslider_function@@YGXPAUUI_OBJECT@@PAX@Z ; ui_object_mslider_function
$LN6@set_mslide:

; 109  : 		}
; 110  : 
; 111  : 		scroll = 0.0;

  000c8	0f 57 c0	 xorps	 xmm0, xmm0
  000cb	f3 0f 11 05 00
	00 00 00	 movss	 DWORD PTR ?scroll@@3MA, xmm0
$LN2@set_mslide:

; 112  : 	}
; 113  : }

  000d3	5f		 pop	 edi
  000d4	5e		 pop	 esi
  000d5	5b		 pop	 ebx
  000d6	8b e5		 mov	 esp, ebp
  000d8	5d		 pop	 ebp
  000d9	c2 08 00	 ret	 8
?set_mslider_ui_object_moveable@@YGXPAUUI_OBJECT@@H@Z ENDP ; set_mslider_ui_object_moveable
_TEXT	ENDS
; Function compile flags: /Odtp /ZI
; File c:\users\nhv90\projects\eech\modules\userint2\ui_obj\slider\ms_flags.c
;	COMDAT ?overload_mslider_ui_object_flag_functions@@YGXH@Z
_TEXT	SEGMENT
_type$ = 8						; size = 4
?overload_mslider_ui_object_flag_functions@@YGXH@Z PROC	; overload_mslider_ui_object_flag_functions, COMDAT

; 120  : {

  00000	55		 push	 ebp
  00001	8b ec		 mov	 ebp, esp
  00003	83 ec 40	 sub	 esp, 64			; 00000040H
  00006	53		 push	 ebx
  00007	56		 push	 esi
  00008	57		 push	 edi

; 121  : 
; 122  : 	fn_set_ui_object_moveable [type] = set_mslider_ui_object_moveable;

  00009	8b 45 08	 mov	 eax, DWORD PTR _type$[ebp]
  0000c	c7 04 85 00 00
	00 00 00 00 00
	00		 mov	 DWORD PTR ?fn_set_ui_object_moveable@@3PAP6GXPAUUI_OBJECT@@H@ZA[eax*4], OFFSET ?set_mslider_ui_object_moveable@@YGXPAUUI_OBJECT@@H@Z ; set_mslider_ui_object_moveable

; 123  : }

  00017	5f		 pop	 edi
  00018	5e		 pop	 esi
  00019	5b		 pop	 ebx
  0001a	8b e5		 mov	 esp, ebp
  0001c	5d		 pop	 ebp
  0001d	c2 04 00	 ret	 4
?overload_mslider_ui_object_flag_functions@@YGXH@Z ENDP	; overload_mslider_ui_object_flag_functions
_TEXT	ENDS
END
