; Listing generated by Microsoft (R) Optimizing Compiler Version 19.16.27045.0 

	TITLE	C:\Users\nhv90\Projects\eech\aphavoc\source\misc\msg_in.c
	.686P
	.XMM
	include listing.inc
	.model	flat

INCLUDELIB MSVCRTD
INCLUDELIB OLDNAMES

PUBLIC	___local_stdio_printf_options
PUBLIC	__vsnprintf_l
PUBLIC	__vsprintf_l
PUBLIC	__vsprintf_s_l
PUBLIC	_sprintf
PUBLIC	_sprintf_s
PUBLIC	?get_message_log@@YGPAUMESSAGE_LOG_TYPE@@H@Z	; get_message_log
PUBLIC	?get_message_log_number_of_messages@@YGHXZ	; get_message_log_number_of_messages
PUBLIC	?get_current_display_message@@YGPAUMESSAGE_LOG_TYPE@@XZ ; get_current_display_message
PUBLIC	?initialise_message_log@@YGXXZ			; initialise_message_log
PUBLIC	?deinitialise_message_log@@YGXXZ		; deinitialise_message_log
PUBLIC	?get_incoming_in_flight_message_flag@@YGHXZ	; get_incoming_in_flight_message_flag
PUBLIC	?display_in_flight_incoming_messages@@YGXXZ	; display_in_flight_incoming_messages
PUBLIC	?display_last_received_message@@YGXPAUEVENT@@@Z	; display_last_received_message
PUBLIC	?set_incoming_message@@YGXPAUENTITY@@0W4MESSAGE_TEXT_TYPES@@PAD@Z ; set_incoming_message
PUBLIC	?update_message_log@@YGXXZ			; update_message_log
PUBLIC	?process_radio_message@@YGXPAUENTITY@@W4MESSAGE_CATEGORIES@@H@Z ; process_radio_message
PUBLIC	?play_client_server_radio_message_response@@YGXPAUENTITY@@HMM@Z ; play_client_server_radio_message_response
PUBLIC	?pack_local_message_log@@YGXW4PACK_MODES@@@Z	; pack_local_message_log
PUBLIC	?unpack_local_message_log@@YGXW4PACK_MODES@@@Z	; unpack_local_message_log
PUBLIC	?process_message_attack_pfz@@YGXPAUENTITY@@0@Z	; process_message_attack_pfz
PUBLIC	??$min@H@std@@YGABHABH0@Z			; std::min<int>
PUBLIC	?_OptionsStorage@?1??__local_stdio_printf_options@@9@4_KA ; `__local_stdio_printf_options'::`2'::_OptionsStorage
PUBLIC	??_C@_02DKCKIIND@?$CFs@				; `string'
PUBLIC	?__LINE__Var@?0??get_message_log@@YGPAUMESSAGE_LOG_TYPE@@H@Z@4JA ; `get_message_log'::`1'::__LINE__Var
PUBLIC	??_C@_0DK@BLKECLAG@c?3?2users?2nhv90?2projects?2eech?2ap@ ; `string'
PUBLIC	??_C@_0CH@MIBEIFCH@?$CIindex?5?$DO?$DN?50?$CJ?5?$CG?$CG?5?$CIindex?5?$DM?5num_me@ ; `string'
PUBLIC	?__LINE__Var@?0??deinitialise_message_log@@YGXXZ@4JA ; `deinitialise_message_log'::`1'::__LINE__Var
PUBLIC	??_C@_03MGHMBJCF@log@				; `string'
PUBLIC	?__LINE__Var@?0??message_intended_for_recipient@@YGHPAUENTITY@@0W4MESSAGE_TEXT_TYPES@@@Z@4JA ; `message_intended_for_recipient'::`1'::__LINE__Var
PUBLIC	??_C@_06JJLAMBGK@target@			; `string'
PUBLIC	??_C@_06CGHJMPBJ@sender@			; `string'
PUBLIC	??_C@_0CB@FJHDHJFF@MESSAGE?3?5Unknown?5message?5type?5?$CF@ ; `string'
PUBLIC	?__LINE__Var@?0??format_incoming_message@@YGPAUENTITY@@PAUMESSAGE_LOG_TYPE@@PAU2@1PAD@Z@4JA ; `format_incoming_message'::`1'::__LINE__Var
PUBLIC	??_C@_07ONPBMBOP@message@			; `string'
PUBLIC	??_C@_0L@PECNBABE@raw_string@			; `string'
PUBLIC	??_C@_0BB@HMCGNGHF@?$CFs?5?$CI?$CFs?51?9?$CFd?$CJ?3?5?$CFs@ ; `string'
PUBLIC	??_C@_0M@IMLPLBM@?$CFs?51?9?$CFd?3?5?$CFs@	; `string'
PUBLIC	??_C@_07IAFACCAD@?$CFs?5?3?5?$CFs@		; `string'
PUBLIC	??_C@_0DI@GMPCFGGP@get_local_entity_type?$CIsender?$CJ?5?$DN@ ; `string'
PUBLIC	??_C@_09DBGCPOJB@?$CFs?51?9?$CFd?3?5@		; `string'
PUBLIC	??_C@_01IHBHIGKO@?0@				; `string'
PUBLIC	??_C@_00CNPNBAHC@@				; `string'
PUBLIC	??_C@_0M@GGBAKKFK@?$CFs?$CFs?5?$CFs?5?$CFd?5@	; `string'
PUBLIC	??_C@_09ONNBFJGN@No?5damage@			; `string'
PUBLIC	??_C@_0O@LAABLPCG@Slight?5damage@		; `string'
PUBLIC	??_C@_0BA@OGBLOPBA@Moderate?5damage@		; `string'
PUBLIC	??_C@_0N@GDPEJOII@Heavy?5damage@		; `string'
PUBLIC	??_C@_0BA@OIFMPHDI@Critical?5damage@		; `string'
PUBLIC	??_C@_06OMDHIKNA@?$CFs?0?5?$CFs@		; `string'
PUBLIC	??_C@_0BD@PFNECLNE@raw_string?5?$DN?$DN?5NULL@	; `string'
PUBLIC	??_C@_0N@JJCLPCKK@destroyed?5by@		; `string'
PUBLIC	??_C@_08EPEHIMMI@?$CFs?5?$CFs?5?$CFs@		; `string'
PUBLIC	??_C@_0HB@PIDPAHH@?$CIget_local_entity_type?5?$CItarget?$CJ@ ; `string'
PUBLIC	??_C@_08DHDHNDEI@division@			; `string'
PUBLIC	??_C@_0BA@DCNJBCDL@under?5attack?5by@		; `string'
PUBLIC	??_C@_0N@JIGEGLMG@?$CFs?0?5?$CFs?5?$CFs?5?$CFs@	; `string'
PUBLIC	??_C@_03PCBNCGFH@pos@				; `string'
PUBLIC	??_C@_0DL@LIMLOOGJ@get_local_entity_int_value?5?$CItar@ ; `string'
PUBLIC	??_C@_02LFBAPLBM@by@				; `string'
PUBLIC	??_C@_0M@HKJEMFMD@?$CFs?5?$CFs?5?$CFs?5?$CFs@	; `string'
PUBLIC	??_C@_0DL@CDIFAIJO@get_local_entity_int_value?5?$CIsen@ ; `string'
PUBLIC	??_C@_0M@KPOKLKIM@captured?5by@			; `string'
PUBLIC	??_C@_09OMEHJBAL@destroyed@			; `string'
PUBLIC	??_C@_05DNIIFBMG@?$CFs?5?$CFs@			; `string'
PUBLIC	??_C@_0BJ@OKIMKLOH@strlen?5?$CItemp_string?$CJ?5?$DO?50@ ; `string'
PUBLIC	?__LINE__Var@?0??set_message_objective_view_interest_level@@YGXPAUENTITY@@0W4MESSAGE_TEXT_TYPES@@@Z@4JA ; `set_message_objective_view_interest_level'::`1'::__LINE__Var
PUBLIC	?__LINE__Var@?0??set_incoming_message@@YGXPAUENTITY@@0W4MESSAGE_TEXT_TYPES@@PAD@Z@4JA ; `set_incoming_message'::`1'::__LINE__Var
PUBLIC	??_C@_0M@GPOJICPM@message_log@			; `string'
PUBLIC	??_C@_06DJHOIPC@?$CFs?3?5?$CFs@			; `string'
PUBLIC	??_C@_0BJ@BKOACNPH@request?5message?5from?5me?$CB@ ; `string'
PUBLIC	?__LINE__Var@?0??play_radio_message_affirmative_response@@YGXPAUENTITY@@HMM@Z@4JA ; `play_radio_message_affirmative_response'::`1'::__LINE__Var
PUBLIC	??_C@_0CJ@DMBLBJBK@get_comms_model?5?$CI?$CJ?5?$DN?$DN?5COMMS_MOD@ ; `string'
PUBLIC	?__LINE__Var@?0??play_client_server_radio_message_affirmative_response@@YGXPAUENTITY@@HMM@Z@4JA ; `play_client_server_radio_message_affirmative_response'::`1'::__LINE__Var
PUBLIC	??_C@_02LFNMGJAP@en@				; `string'
PUBLIC	?__LINE__Var@?0??play_radio_message_negative_response@@YGXPAUENTITY@@HMM@Z@4JA ; `play_radio_message_negative_response'::`1'::__LINE__Var
PUBLIC	?__LINE__Var@?0??play_client_server_radio_message_negative_response@@YGXPAUENTITY@@HMM@Z@4JA ; `play_client_server_radio_message_negative_response'::`1'::__LINE__Var
PUBLIC	?__LINE__Var@?0??process_message_attack_my_target@@YGXPAUENTITY@@0@Z@4JA ; `process_message_attack_my_target'::`1'::__LINE__Var
PUBLIC	??_C@_07EAKNLMLO@wingman@			; `string'
PUBLIC	?__LINE__Var@?0??process_message_attack_pfz@@YGXPAUENTITY@@0@Z@4JA ; `process_message_attack_pfz'::`1'::__LINE__Var
PUBLIC	??_C@_0DJ@PMAIBDHK@get_local_entity_type?$CIwingman?$CJ?5@ ; `string'
PUBLIC	??_C@_0GP@FGLKAFGN@get_local_entity_int_value?$CIwing@ ; `string'
PUBLIC	?__LINE__Var@?0??process_message_help_me@@YGXPAUENTITY@@0@Z@4JA ; `process_message_help_me'::`1'::__LINE__Var
PUBLIC	??_C@_0DC@FBAJPFKI@MESSAGE?3?5can?8t?5assign?5my?5persue@ ; `string'
PUBLIC	?__LINE__Var@?0??process_message_return_to_base@@YGXPAUENTITY@@@Z@4JA ; `process_message_return_to_base'::`1'::__LINE__Var
PUBLIC	??_C@_05MGJOOGAJ@group@				; `string'
PUBLIC	?__LINE__Var@?0??process_message_weapons_hold@@YGXPAUENTITY@@0HH@Z@4JA ; `process_message_weapons_hold'::`1'::__LINE__Var
PUBLIC	??_C@_04GGKLLKOO@task@				; `string'
PUBLIC	?__LINE__Var@?0??process_message_hold_position@@YGXPAUENTITY@@0@Z@4JA ; `process_message_hold_position'::`1'::__LINE__Var
PUBLIC	?__LINE__Var@?0??process_message_rejoin_formation@@YGXPAUENTITY@@0@Z@4JA ; `process_message_rejoin_formation'::`1'::__LINE__Var
PUBLIC	?__LINE__Var@?0??process_message_bob_up@@YGXPAUENTITY@@0@Z@4JA ; `process_message_bob_up'::`1'::__LINE__Var
PUBLIC	?__LINE__Var@?0??process_message_change_formation@@YGXPAUENTITY@@0H@Z@4JA ; `process_message_change_formation'::`1'::__LINE__Var
PUBLIC	??_C@_0DD@GDEINBAL@get_local_entity_type?5?$CIgroup?$CJ?5?$DN@ ; `string'
PUBLIC	?__LINE__Var@?0??process_message_request_airstrike@@YGXPAUENTITY@@@Z@4JA ; `process_message_request_airstrike'::`1'::__LINE__Var
PUBLIC	?__LINE__Var@?0??process_message_request_artillery@@YGXPAUENTITY@@@Z@4JA ; `process_message_request_artillery'::`1'::__LINE__Var
PUBLIC	??_C@_0BN@FCPEDCKB@MSG_IN?3?5Artillery?5Range?5?$DN?5?$CFf@ ; `string'
PUBLIC	??_C@_0CM@GOJEJNDA@MSG_IN?3?5Created?5Artillery?5Strik@ ; `string'
PUBLIC	?__LINE__Var@?0??process_message_request_assistance@@YGXPAUENTITY@@@Z@4JA ; `process_message_request_assistance'::`1'::__LINE__Var
PUBLIC	??_C@_05BINPNAAL@force@				; `string'
PUBLIC	?__LINE__Var@?0??display_in_flight_incoming_messages@@YGXXZ@4JA ; `display_in_flight_incoming_messages'::`1'::__LINE__Var
PUBLIC	??_C@_0BB@BOOBNMON@num_messages?5?$DO?50@	; `string'
PUBLIC	??_C@_0BM@INBLEPJA@current_message_timer?5?$DO?50?40@ ; `string'
PUBLIC	??_C@_0M@FKGGNEFI@log?9?$DOstring@		; `string'
PUBLIC	??_C@_0P@OKCGHNEC@?$FL?$CF02d?3?$CF02d?$FN?5?$CFs@ ; `string'
PUBLIC	?__LINE__Var@?0??update_message_log@@YGXXZ@4JA	; `update_message_log'::`1'::__LINE__Var
PUBLIC	?__LINE__Var@?0??set_new_display_message@@YGXH@Z@4JA ; `set_new_display_message'::`1'::__LINE__Var
PUBLIC	??_C@_0CD@OFODCPLH@log?9?$DOtype?5?$DM?5NUM_MESSAGE_TEXT_TY@ ; `string'
PUBLIC	?__LINE__Var@?0??pack_local_message_log@@YGXW4PACK_MODES@@@Z@4JA ; `pack_local_message_log'::`1'::__LINE__Var
PUBLIC	??_C@_0CH@MMFDPOBJ@?$CImode?5?$DO?$DN?50?$CJ?5?$CG?$CG?5?$CImode?5?$DM?5NUM_PACK@ ; `string'
PUBLIC	?__LINE__Var@?0??unpack_local_message_log@@YGXW4PACK_MODES@@@Z@4JA ; `unpack_local_message_log'::`1'::__LINE__Var
PUBLIC	??_C@_0BL@GKCGFGEH@?$CK?$CK?$CK?5allocating?5message_log@ ; `string'
PUBLIC	??_C@_0CF@FKPCMIAD@length?5?$DM?$DN?5STRING_TYPE_MESSAGE_L@ ; `string'
PUBLIC	??_C@_0BC@PIBGBPAI@num_messages?5?$DN?$DN?50@	; `string'
PUBLIC	??_C@_0BD@FEEMDEPI@invalid?5comparator@		; `string'
PUBLIC	??_C@_0GK@JMBMHIBC@c?3?2program?5files?5?$CIx86?$CJ?2microsof@ ; `string'
PUBLIC	??_C@_1NE@FKBPBJEB@?$AAc?$AA?3?$AA?2?$AAp?$AAr?$AAo?$AAg?$AAr?$AAa?$AAm?$AA?5?$AAf?$AAi?$AAl?$AAe@ ; `string'
PUBLIC	??_C@_1BC@BLAPCBGI@?$AAs?$AAt?$AAd?$AA?3?$AA?3?$AAm?$AAi?$AAn@ ; `string'
PUBLIC	??_C@_1CK@NDNHPKPI@?$AA?$CC?$AAi?$AAn?$AAv?$AAa?$AAl?$AAi?$AAd?$AA?5?$AAc?$AAo?$AAm?$AAp?$AAa?$AAr@ ; `string'
PUBLIC	__real@0000000000000000
PUBLIC	__real@3dcccccd
PUBLIC	__real@3e4ccccd
PUBLIC	__real@3f000000
PUBLIC	__real@3f19999a
PUBLIC	__real@3f800000
PUBLIC	__real@40000000
PUBLIC	__real@40800000
PUBLIC	__real@40a00000
PUBLIC	__real@40c00000
PUBLIC	__real@40e00000
PUBLIC	__real@41000000
PUBLIC	__real@41200000
PUBLIC	__real@41a00000
PUBLIC	__real@447a0000
PUBLIC	__real@7f7fffff
PUBLIC	__real@bf800000
EXTRN	__imp___invalid_parameter:PROC
EXTRN	__imp____stdio_common_vsprintf:PROC
EXTRN	__imp____stdio_common_vsprintf_s:PROC
EXTRN	_memcpy:PROC
EXTRN	_strcpy:PROC
EXTRN	_strlen:PROC
EXTRN	__imp___CrtDbgReport:PROC
EXTRN	?process_assert@@YGXPBD0H@Z:PROC		; process_assert
EXTRN	?debug_fatal@@YAXPBDZZ:PROC			; debug_fatal
EXTRN	?server_log@@YAXPBDZZ:PROC			; server_log
EXTRN	?debug_log@@YAXPBDZZ:PROC			; debug_log
EXTRN	?malloc_fast_memory@@YGPAXI@Z:PROC		; malloc_fast_memory
EXTRN	?malloc_heap_memory@@YGPAXI@Z:PROC		; malloc_heap_memory
EXTRN	?free_mem@@YGXPAX@Z:PROC			; free_mem
EXTRN	?get_2d_range@@YGMPBUVEC3D@@0@Z:PROC		; get_2d_range
EXTRN	?ui_display_text@@YGMPBDMM@Z:PROC		; ui_display_text
EXTRN	?set_ui_font_type@@YGXW4FONT_TYPES@@@Z:PROC	; set_ui_font_type
EXTRN	?set_ui_font_colour@@YGXUREAL_COLOUR@@@Z:PROC	; set_ui_font_colour
EXTRN	?notify_local_entity@@YAHW4ENTITY_MESSAGES@@PAUENTITY@@1ZZ:PROC ; notify_local_entity
EXTRN	?pack_float_value@@YGXPAUENTITY@@W4FLOAT_TYPES@@M@Z:PROC ; pack_float_value
EXTRN	?unpack_float_value@@YGMPAUENTITY@@W4FLOAT_TYPES@@@Z:PROC ; unpack_float_value
EXTRN	?pack_int_value@@YGXPAUENTITY@@W4INT_TYPES@@H@Z:PROC ; pack_int_value
EXTRN	?unpack_int_value@@YGHPAUENTITY@@W4INT_TYPES@@@Z:PROC ; unpack_int_value
EXTRN	?pack_string@@YGXPAUENTITY@@W4STRING_TYPES@@PBD@Z:PROC ; pack_string
EXTRN	?unpack_string@@YGXPAUENTITY@@W4STRING_TYPES@@PAD@Z:PROC ; unpack_string
EXTRN	?pack_vec3d@@YGXPAUENTITY@@W4VEC3D_TYPES@@PAUVEC3D@@@Z:PROC ; pack_vec3d
EXTRN	?unpack_vec3d@@YGXPAUENTITY@@W4VEC3D_TYPES@@PAUVEC3D@@@Z:PROC ; unpack_vec3d
EXTRN	?transmit_entity_comms_message@@YAXW4ENTITY_COMMS_MESSAGES@@PAUENTITY@@ZZ:PROC ; transmit_entity_comms_message
EXTRN	?get_local_entity_weapon_load@@YGXPAUENTITY@@QAUweapon_count@@I@Z:PROC ; get_local_entity_weapon_load
EXTRN	?get_local_entity_max_weapon_range@@YGMPAUENTITY@@@Z:PROC ; get_local_entity_max_weapon_range
EXTRN	?transmit_player_recon_data@@YGXPAUENTITY@@@Z:PROC ; transmit_player_recon_data
EXTRN	?play_client_server_speech@@YAHPAUENTITY@@0W4ENTITY_SIDES@@HW4SOUND_LOCALITY_TYPES@@MMMW4speech_originator_types@@W4speech_category_types@@MZZ:PROC ; play_client_server_speech
EXTRN	?play_client_server_wingman_message@@YGHPAUENTITY@@MMW4speech_category_types@@MW4speech_intro_types@@W4speech_array_types@@H@Z:PROC ; play_client_server_wingman_message
EXTRN	?get_local_force_entity@@YGPAUENTITY@@W4ENTITY_SIDES@@@Z:PROC ; get_local_force_entity
EXTRN	?group_return_to_base@@YGXPAUENTITY@@@Z:PROC	; group_return_to_base
EXTRN	?attack_guide_proceed_to_fire_positon@@YGXPAUENTITY@@@Z:PROC ; attack_guide_proceed_to_fire_positon
EXTRN	?get_local_group_primary_guide@@YGPAUENTITY@@PAU1@@Z:PROC ; get_local_group_primary_guide
EXTRN	?entity_is_object_of_task@@YGHPAUENTITY@@HW4ENTITY_SIDES@@@Z:PROC ; entity_is_object_of_task
EXTRN	?get_local_entity_primary_task@@YGPAUENTITY@@PAU1@@Z:PROC ; get_local_entity_primary_task
EXTRN	?get_status_message_displayed@@YGHXZ:PROC	; get_status_message_displayed
EXTRN	?get_time_acceleration@@YGHXZ:PROC		; get_time_acceleration
EXTRN	?get_digital_clock_int_values@@YGXMPAH00@Z:PROC	; get_digital_clock_int_values
EXTRN	?get_trans@@YGPBDPBD@Z:PROC			; get_trans
EXTRN	?add_map_event@@YGXHMMM@Z:PROC			; add_map_event
EXTRN	?notify_campaign_screen@@YGHW4CAMPAIGN_SCREEN_MESSAGES@@PAUENTITY@@@Z:PROC ; notify_campaign_screen
EXTRN	?get_suitable_registered_group@@YGPAUENTITY@@PAU1@PAH@Z:PROC ; get_suitable_registered_group
EXTRN	?assign_primary_task_to_group@@YGHPAUENTITY@@0@Z:PROC ; assign_primary_task_to_group
EXTRN	?assign_task_to_group@@YGHPAUENTITY@@0I@Z:PROC	; assign_task_to_group
EXTRN	?create_engage_task@@YGPAUENTITY@@PAU1@00H@Z:PROC ; create_engage_task
EXTRN	?engage_targets_in_area@@YGHPAUENTITY@@PAUVEC3D@@MIH@Z:PROC ; engage_targets_in_area
EXTRN	?engage_specific_target@@YGHPAUENTITY@@0IH@Z:PROC ; engage_specific_target
EXTRN	?assign_engage_tasks_to_group@@YGIPAUENTITY@@I@Z:PROC ; assign_engage_tasks_to_group
EXTRN	?terminate_entity_current_engage_task@@YGXPAUENTITY@@@Z:PROC ; terminate_entity_current_engage_task
EXTRN	?create_close_air_support_task@@YGPAUENTITY@@W4ENTITY_SIDES@@PAU1@1HM11@Z:PROC ; create_close_air_support_task
EXTRN	?create_ground_strike_task@@YGPAUENTITY@@W4ENTITY_SIDES@@PAU1@1HM11@Z:PROC ; create_ground_strike_task
EXTRN	?create_sead_task@@YGPAUENTITY@@W4ENTITY_SIDES@@PAU1@1HM11@Z:PROC ; create_sead_task
EXTRN	?create_reaction_to_map_click@@YGXPAUENTITY@@@Z:PROC ; create_reaction_to_map_click
EXTRN	?system_delta_time@@3MA:DWORD			; system_delta_time
EXTRN	?random_number_seed@@3HA:DWORD			; random_number_seed
EXTRN	?sys_col_white@@3UREAL_COLOUR@@A:DWORD		; sys_col_white
EXTRN	?command_line_disable_message_text@@3HA:DWORD	; command_line_disable_message_text
EXTRN	?null_entity_pointer_message@@3PBDB:DWORD	; null_entity_pointer_message
EXTRN	?entity_side_short_names@@3PAPBDA:BYTE		; entity_side_short_names
EXTRN	?task_debrief_result_names@@3PAPBDA:BYTE	; task_debrief_result_names
EXTRN	?global_options@@3UGLOBAL_OPTIONS_DATA@@A:BYTE	; global_options
EXTRN	?system_comms_model@@3W4COMMS_MODEL_TYPES@@A:DWORD ; system_comms_model
EXTRN	?world_map@@3UWORLD_MAP_DATA@@A:BYTE		; world_map
EXTRN	?overload_invalid_list_type_message@@3PBDB:DWORD ; overload_invalid_list_type_message
EXTRN	?fn_get_local_entity_first_child@@3PAY0CN@P6GPAUENTITY@@PAU1@W4LIST_TYPES@@@ZA:BYTE ; fn_get_local_entity_first_child
EXTRN	?fn_get_local_entity_parent@@3PAY0CN@P6GPAUENTITY@@PAU1@W4LIST_TYPES@@@ZA:BYTE ; fn_get_local_entity_parent
EXTRN	?fn_get_local_entity_child_succ@@3PAY0CN@P6GPAUENTITY@@PAU1@W4LIST_TYPES@@@ZA:BYTE ; fn_get_local_entity_child_succ
EXTRN	?fn_get_local_entity_child_pred@@3PAY0CN@P6GPAUENTITY@@PAU1@W4LIST_TYPES@@@ZA:BYTE ; fn_get_local_entity_child_pred
EXTRN	?overload_invalid_float_type_message@@3PBDB:DWORD ; overload_invalid_float_type_message
EXTRN	?fn_set_local_entity_float_value@@3PAY0KP@P6GXPAUENTITY@@W4FLOAT_TYPES@@M@ZA:BYTE ; fn_set_local_entity_float_value
EXTRN	?fn_get_local_entity_float_value@@3PAY0KP@P6GMPAUENTITY@@W4FLOAT_TYPES@@@ZA:BYTE ; fn_get_local_entity_float_value
EXTRN	?overload_invalid_int_type_message@@3PBDB:DWORD	; overload_invalid_int_type_message
EXTRN	?fn_set_client_server_entity_int_value@@3PAY1BBH@1P6GXPAUENTITY@@W4INT_TYPES@@H@ZA:BYTE ; fn_set_client_server_entity_int_value
EXTRN	?fn_get_local_entity_int_value@@3PAY0BBH@P6GHPAUENTITY@@W4INT_TYPES@@@ZA:BYTE ; fn_get_local_entity_int_value
EXTRN	?overload_invalid_ptr_type_message@@3PBDB:DWORD	; overload_invalid_ptr_type_message
EXTRN	?fn_get_local_entity_ptr_value@@3PAY0BE@P6GPAXPAUENTITY@@W4PTR_TYPES@@@ZA:BYTE ; fn_get_local_entity_ptr_value
EXTRN	?overload_invalid_string_type_message@@3PBDB:DWORD ; overload_invalid_string_type_message
EXTRN	?fn_get_local_entity_string@@3PAY0N@P6GPBDPAUENTITY@@W4STRING_TYPES@@@ZA:BYTE ; fn_get_local_entity_string
EXTRN	?overload_invalid_vec3d_type_message@@3PBDB:DWORD ; overload_invalid_vec3d_type_message
EXTRN	?fn_set_client_server_entity_vec3d@@3PAY1BI@1P6GXPAUENTITY@@W4VEC3D_TYPES@@PAUVEC3D@@@ZA:BYTE ; fn_set_client_server_entity_vec3d
EXTRN	?fn_get_local_entity_vec3d@@3PAY0BI@P6GXPAUENTITY@@W4VEC3D_TYPES@@PAUVEC3D@@@ZA:BYTE ; fn_get_local_entity_vec3d
EXTRN	?fn_get_local_entity_vec3d_ptr@@3PAY0BI@P6GPAUVEC3D@@PAUENTITY@@W4VEC3D_TYPES@@@ZA:BYTE ; fn_get_local_entity_vec3d_ptr
EXTRN	?entities@@3PAUENTITY@@A:DWORD			; entities
EXTRN	?weapon_database@@3PAUWEAPON_DATA@@A:BYTE	; weapon_database
EXTRN	?aircraft_database@@3PAUAIRCRAFT_DATA@@A:BYTE	; aircraft_database
EXTRN	?gunship_entity@@3PAUENTITY@@A:DWORD		; gunship_entity
EXTRN	?pilot_entity@@3PAUENTITY@@A:DWORD		; pilot_entity
EXTRN	?session_entity@@3PAUENTITY@@A:DWORD		; session_entity
EXTRN	?task_database@@3PAUTASK_DATA@@A:BYTE		; task_database
EXTRN	?message_text_info@@3QBUMESSAGE_TEXT_INFO_TYPE@@B:BYTE ; message_text_info
EXTRN	__fltused:DWORD
;	COMDAT ?_OptionsStorage@?1??__local_stdio_printf_options@@9@4_KA
_BSS	SEGMENT
?_OptionsStorage@?1??__local_stdio_printf_options@@9@4_KA DQ 01H DUP (?) ; `__local_stdio_printf_options'::`2'::_OptionsStorage
_BSS	ENDS
_BSS	SEGMENT
?current_message_timer@@3MA DD 01H DUP (?)		; current_message_timer
?message_log@@3PAUMESSAGE_LOG_TYPE@@A DD 01H DUP (?)	; message_log
?num_messages@@3HA DD 01H DUP (?)			; num_messages
?max_messages@@3HA DD 01H DUP (?)			; max_messages
?group_wingman_cycle_forwards@@3HA DD 01H DUP (?)	; group_wingman_cycle_forwards
?message_side_colour@@3PAUREAL_COLOUR@@A DD 03H DUP (?)	; message_side_colour
?val@?1??play_radio_message_affirmative_response@@YGXPAUENTITY@@HMM@Z@4HA DD 01H DUP (?) ; `play_radio_message_affirmative_response'::`2'::val
?flag@?1??play_radio_message_negative_response@@YGXPAUENTITY@@HMM@Z@4HA DD 01H DUP (?) ; `play_radio_message_negative_response'::`2'::flag
?s@?1??unpack_local_message_log@@YGXW4PACK_MODES@@@Z@4PADA DB 0a4H DUP (?) ; `unpack_local_message_log'::`2'::s
_BSS	ENDS
;	COMDAT __real@bf800000
CONST	SEGMENT
__real@bf800000 DD 0bf800000r			; -1
CONST	ENDS
;	COMDAT __real@7f7fffff
CONST	SEGMENT
__real@7f7fffff DD 07f7fffffr			; 3.40282e+38
CONST	ENDS
;	COMDAT __real@447a0000
CONST	SEGMENT
__real@447a0000 DD 0447a0000r			; 1000
CONST	ENDS
;	COMDAT __real@41a00000
CONST	SEGMENT
__real@41a00000 DD 041a00000r			; 20
CONST	ENDS
;	COMDAT __real@41200000
CONST	SEGMENT
__real@41200000 DD 041200000r			; 10
CONST	ENDS
;	COMDAT __real@41000000
CONST	SEGMENT
__real@41000000 DD 041000000r			; 8
CONST	ENDS
;	COMDAT __real@40e00000
CONST	SEGMENT
__real@40e00000 DD 040e00000r			; 7
CONST	ENDS
;	COMDAT __real@40c00000
CONST	SEGMENT
__real@40c00000 DD 040c00000r			; 6
CONST	ENDS
;	COMDAT __real@40a00000
CONST	SEGMENT
__real@40a00000 DD 040a00000r			; 5
CONST	ENDS
;	COMDAT __real@40800000
CONST	SEGMENT
__real@40800000 DD 040800000r			; 4
CONST	ENDS
;	COMDAT __real@40000000
CONST	SEGMENT
__real@40000000 DD 040000000r			; 2
CONST	ENDS
;	COMDAT __real@3f800000
CONST	SEGMENT
__real@3f800000 DD 03f800000r			; 1
CONST	ENDS
;	COMDAT __real@3f19999a
CONST	SEGMENT
__real@3f19999a DD 03f19999ar			; 0.6
CONST	ENDS
;	COMDAT __real@3f000000
CONST	SEGMENT
__real@3f000000 DD 03f000000r			; 0.5
CONST	ENDS
;	COMDAT __real@3e4ccccd
CONST	SEGMENT
__real@3e4ccccd DD 03e4ccccdr			; 0.2
CONST	ENDS
;	COMDAT __real@3dcccccd
CONST	SEGMENT
__real@3dcccccd DD 03dcccccdr			; 0.1
CONST	ENDS
;	COMDAT __real@0000000000000000
CONST	SEGMENT
__real@0000000000000000 DQ 00000000000000000r	; 0
CONST	ENDS
;	COMDAT ??_C@_1CK@NDNHPKPI@?$AA?$CC?$AAi?$AAn?$AAv?$AAa?$AAl?$AAi?$AAd?$AA?5?$AAc?$AAo?$AAm?$AAp?$AAa?$AAr@
CONST	SEGMENT
??_C@_1CK@NDNHPKPI@?$AA?$CC?$AAi?$AAn?$AAv?$AAa?$AAl?$AAi?$AAd?$AA?5?$AAc?$AAo?$AAm?$AAp?$AAa?$AAr@ DB '"'
	DB	00H, 'i', 00H, 'n', 00H, 'v', 00H, 'a', 00H, 'l', 00H, 'i', 00H
	DB	'd', 00H, ' ', 00H, 'c', 00H, 'o', 00H, 'm', 00H, 'p', 00H, 'a'
	DB	00H, 'r', 00H, 'a', 00H, 't', 00H, 'o', 00H, 'r', 00H, '"', 00H
	DB	00H, 00H					; `string'
CONST	ENDS
;	COMDAT ??_C@_1BC@BLAPCBGI@?$AAs?$AAt?$AAd?$AA?3?$AA?3?$AAm?$AAi?$AAn@
CONST	SEGMENT
??_C@_1BC@BLAPCBGI@?$AAs?$AAt?$AAd?$AA?3?$AA?3?$AAm?$AAi?$AAn@ DB 's', 00H
	DB	't', 00H, 'd', 00H, ':', 00H, ':', 00H, 'm', 00H, 'i', 00H, 'n'
	DB	00H, 00H, 00H				; `string'
CONST	ENDS
;	COMDAT ??_C@_1NE@FKBPBJEB@?$AAc?$AA?3?$AA?2?$AAp?$AAr?$AAo?$AAg?$AAr?$AAa?$AAm?$AA?5?$AAf?$AAi?$AAl?$AAe@
CONST	SEGMENT
??_C@_1NE@FKBPBJEB@?$AAc?$AA?3?$AA?2?$AAp?$AAr?$AAo?$AAg?$AAr?$AAa?$AAm?$AA?5?$AAf?$AAi?$AAl?$AAe@ DB 'c'
	DB	00H, ':', 00H, '\', 00H, 'p', 00H, 'r', 00H, 'o', 00H, 'g', 00H
	DB	'r', 00H, 'a', 00H, 'm', 00H, ' ', 00H, 'f', 00H, 'i', 00H, 'l'
	DB	00H, 'e', 00H, 's', 00H, ' ', 00H, '(', 00H, 'x', 00H, '8', 00H
	DB	'6', 00H, ')', 00H, '\', 00H, 'm', 00H, 'i', 00H, 'c', 00H, 'r'
	DB	00H, 'o', 00H, 's', 00H, 'o', 00H, 'f', 00H, 't', 00H, ' ', 00H
	DB	'v', 00H, 'i', 00H, 's', 00H, 'u', 00H, 'a', 00H, 'l', 00H, ' '
	DB	00H, 's', 00H, 't', 00H, 'u', 00H, 'd', 00H, 'i', 00H, 'o', 00H
	DB	'\', 00H, '2', 00H, '0', 00H, '1', 00H, '7', 00H, '\', 00H, 'c'
	DB	00H, 'o', 00H, 'm', 00H, 'm', 00H, 'u', 00H, 'n', 00H, 'i', 00H
	DB	't', 00H, 'y', 00H, '\', 00H, 'v', 00H, 'c', 00H, '\', 00H, 't'
	DB	00H, 'o', 00H, 'o', 00H, 'l', 00H, 's', 00H, '\', 00H, 'm', 00H
	DB	's', 00H, 'v', 00H, 'c', 00H, '\', 00H, '1', 00H, '4', 00H, '.'
	DB	00H, '1', 00H, '6', 00H, '.', 00H, '2', 00H, '7', 00H, '0', 00H
	DB	'2', 00H, '3', 00H, '\', 00H, 'i', 00H, 'n', 00H, 'c', 00H, 'l'
	DB	00H, 'u', 00H, 'd', 00H, 'e', 00H, '\', 00H, 'a', 00H, 'l', 00H
	DB	'g', 00H, 'o', 00H, 'r', 00H, 'i', 00H, 't', 00H, 'h', 00H, 'm'
	DB	00H, 00H, 00H				; `string'
CONST	ENDS
;	COMDAT ??_C@_0GK@JMBMHIBC@c?3?2program?5files?5?$CIx86?$CJ?2microsof@
CONST	SEGMENT
??_C@_0GK@JMBMHIBC@c?3?2program?5files?5?$CIx86?$CJ?2microsof@ DB 'c:\pro'
	DB	'gram files (x86)\microsoft visual studio\2017\community\vc\to'
	DB	'ols\msvc\14.16.27023\include\algorithm', 00H ; `string'
CONST	ENDS
;	COMDAT ??_C@_0BD@FEEMDEPI@invalid?5comparator@
CONST	SEGMENT
??_C@_0BD@FEEMDEPI@invalid?5comparator@ DB 'invalid comparator', 00H ; `string'
CONST	ENDS
;	COMDAT ??_C@_0BC@PIBGBPAI@num_messages?5?$DN?$DN?50@
CONST	SEGMENT
??_C@_0BC@PIBGBPAI@num_messages?5?$DN?$DN?50@ DB 'num_messages == 0', 00H ; `string'
CONST	ENDS
;	COMDAT ??_C@_0CF@FKPCMIAD@length?5?$DM?$DN?5STRING_TYPE_MESSAGE_L@
CONST	SEGMENT
??_C@_0CF@FKPCMIAD@length?5?$DM?$DN?5STRING_TYPE_MESSAGE_L@ DB 'length <='
	DB	' STRING_TYPE_MESSAGE_LENGTH', 00H		; `string'
CONST	ENDS
;	COMDAT ??_C@_0BL@GKCGFGEH@?$CK?$CK?$CK?5allocating?5message_log@
CONST	SEGMENT
??_C@_0BL@GKCGFGEH@?$CK?$CK?$CK?5allocating?5message_log@ DB '*** allocat'
	DB	'ing message_log', 00H			; `string'
CONST	ENDS
;	COMDAT ?__LINE__Var@?0??unpack_local_message_log@@YGXW4PACK_MODES@@@Z@4JA
_DATA	SEGMENT
?__LINE__Var@?0??unpack_local_message_log@@YGXW4PACK_MODES@@@Z@4JA DD 09f9H ; `unpack_local_message_log'::`1'::__LINE__Var
_DATA	ENDS
;	COMDAT ??_C@_0CH@MMFDPOBJ@?$CImode?5?$DO?$DN?50?$CJ?5?$CG?$CG?5?$CImode?5?$DM?5NUM_PACK@
CONST	SEGMENT
??_C@_0CH@MMFDPOBJ@?$CImode?5?$DO?$DN?50?$CJ?5?$CG?$CG?5?$CImode?5?$DM?5NUM_PACK@ DB '('
	DB	'mode >= 0) && (mode < NUM_PACK_MODES)', 00H	; `string'
CONST	ENDS
;	COMDAT ?__LINE__Var@?0??pack_local_message_log@@YGXW4PACK_MODES@@@Z@4JA
_DATA	SEGMENT
?__LINE__Var@?0??pack_local_message_log@@YGXW4PACK_MODES@@@Z@4JA DD 09b6H ; `pack_local_message_log'::`1'::__LINE__Var
_DATA	ENDS
;	COMDAT ??_C@_0CD@OFODCPLH@log?9?$DOtype?5?$DM?5NUM_MESSAGE_TEXT_TY@
CONST	SEGMENT
??_C@_0CD@OFODCPLH@log?9?$DOtype?5?$DM?5NUM_MESSAGE_TEXT_TY@ DB 'log->typ'
	DB	'e < NUM_MESSAGE_TEXT_TYPES', 00H		; `string'
CONST	ENDS
;	COMDAT ?__LINE__Var@?0??set_new_display_message@@YGXH@Z@4JA
_DATA	SEGMENT
?__LINE__Var@?0??set_new_display_message@@YGXH@Z@4JA DD 0993H ; `set_new_display_message'::`1'::__LINE__Var
_DATA	ENDS
;	COMDAT ?__LINE__Var@?0??update_message_log@@YGXXZ@4JA
_DATA	SEGMENT
?__LINE__Var@?0??update_message_log@@YGXXZ@4JA DD 0979H	; `update_message_log'::`1'::__LINE__Var
_DATA	ENDS
;	COMDAT ??_C@_0P@OKCGHNEC@?$FL?$CF02d?3?$CF02d?$FN?5?$CFs@
CONST	SEGMENT
??_C@_0P@OKCGHNEC@?$FL?$CF02d?3?$CF02d?$FN?5?$CFs@ DB '[%02d:%02d] %s', 00H ; `string'
CONST	ENDS
;	COMDAT ??_C@_0M@FKGGNEFI@log?9?$DOstring@
CONST	SEGMENT
??_C@_0M@FKGGNEFI@log?9?$DOstring@ DB 'log->string', 00H ; `string'
CONST	ENDS
;	COMDAT ??_C@_0BM@INBLEPJA@current_message_timer?5?$DO?50?40@
CONST	SEGMENT
??_C@_0BM@INBLEPJA@current_message_timer?5?$DO?50?40@ DB 'current_message'
	DB	'_timer > 0.0', 00H				; `string'
CONST	ENDS
;	COMDAT ??_C@_0BB@BOOBNMON@num_messages?5?$DO?50@
CONST	SEGMENT
??_C@_0BB@BOOBNMON@num_messages?5?$DO?50@ DB 'num_messages > 0', 00H ; `string'
CONST	ENDS
;	COMDAT ?__LINE__Var@?0??display_in_flight_incoming_messages@@YGXXZ@4JA
_DATA	SEGMENT
?__LINE__Var@?0??display_in_flight_incoming_messages@@YGXXZ@4JA DD 0930H ; `display_in_flight_incoming_messages'::`1'::__LINE__Var
_DATA	ENDS
;	COMDAT ??_C@_05BINPNAAL@force@
CONST	SEGMENT
??_C@_05BINPNAAL@force@ DB 'force', 00H			; `string'
CONST	ENDS
;	COMDAT ?__LINE__Var@?0??process_message_request_assistance@@YGXPAUENTITY@@@Z@4JA
_DATA	SEGMENT
?__LINE__Var@?0??process_message_request_assistance@@YGXPAUENTITY@@@Z@4JA DD 08fbH ; `process_message_request_assistance'::`1'::__LINE__Var
_DATA	ENDS
;	COMDAT ??_C@_0CM@GOJEJNDA@MSG_IN?3?5Created?5Artillery?5Strik@
CONST	SEGMENT
??_C@_0CM@GOJEJNDA@MSG_IN?3?5Created?5Artillery?5Strik@ DB 'MSG_IN: Creat'
	DB	'ed Artillery Strike - range %f', 00H	; `string'
CONST	ENDS
;	COMDAT ??_C@_0BN@FCPEDCKB@MSG_IN?3?5Artillery?5Range?5?$DN?5?$CFf@
CONST	SEGMENT
??_C@_0BN@FCPEDCKB@MSG_IN?3?5Artillery?5Range?5?$DN?5?$CFf@ DB 'MSG_IN: A'
	DB	'rtillery Range = %f', 00H			; `string'
CONST	ENDS
;	COMDAT ?__LINE__Var@?0??process_message_request_artillery@@YGXPAUENTITY@@@Z@4JA
_DATA	SEGMENT
?__LINE__Var@?0??process_message_request_artillery@@YGXPAUENTITY@@@Z@4JA DD 083aH ; `process_message_request_artillery'::`1'::__LINE__Var
_DATA	ENDS
;	COMDAT ?__LINE__Var@?0??process_message_request_airstrike@@YGXPAUENTITY@@@Z@4JA
_DATA	SEGMENT
?__LINE__Var@?0??process_message_request_airstrike@@YGXPAUENTITY@@@Z@4JA DD 0792H ; `process_message_request_airstrike'::`1'::__LINE__Var
_DATA	ENDS
;	COMDAT ??_C@_0DD@GDEINBAL@get_local_entity_type?5?$CIgroup?$CJ?5?$DN@
CONST	SEGMENT
??_C@_0DD@GDEINBAL@get_local_entity_type?5?$CIgroup?$CJ?5?$DN@ DB 'get_lo'
	DB	'cal_entity_type (group) == ENTITY_TYPE_GROUP', 00H ; `string'
CONST	ENDS
;	COMDAT ?__LINE__Var@?0??process_message_change_formation@@YGXPAUENTITY@@0H@Z@4JA
_DATA	SEGMENT
?__LINE__Var@?0??process_message_change_formation@@YGXPAUENTITY@@0H@Z@4JA DD 0781H ; `process_message_change_formation'::`1'::__LINE__Var
_DATA	ENDS
;	COMDAT ?__LINE__Var@?0??process_message_bob_up@@YGXPAUENTITY@@0@Z@4JA
_DATA	SEGMENT
?__LINE__Var@?0??process_message_bob_up@@YGXPAUENTITY@@0@Z@4JA DD 0750H ; `process_message_bob_up'::`1'::__LINE__Var
_DATA	ENDS
;	COMDAT ?__LINE__Var@?0??process_message_rejoin_formation@@YGXPAUENTITY@@0@Z@4JA
_DATA	SEGMENT
?__LINE__Var@?0??process_message_rejoin_formation@@YGXPAUENTITY@@0@Z@4JA DD 071eH ; `process_message_rejoin_formation'::`1'::__LINE__Var
_DATA	ENDS
;	COMDAT ?__LINE__Var@?0??process_message_hold_position@@YGXPAUENTITY@@0@Z@4JA
_DATA	SEGMENT
?__LINE__Var@?0??process_message_hold_position@@YGXPAUENTITY@@0@Z@4JA DD 06f1H ; `process_message_hold_position'::`1'::__LINE__Var
_DATA	ENDS
;	COMDAT ??_C@_04GGKLLKOO@task@
CONST	SEGMENT
??_C@_04GGKLLKOO@task@ DB 'task', 00H			; `string'
CONST	ENDS
;	COMDAT ?__LINE__Var@?0??process_message_weapons_hold@@YGXPAUENTITY@@0HH@Z@4JA
_DATA	SEGMENT
?__LINE__Var@?0??process_message_weapons_hold@@YGXPAUENTITY@@0HH@Z@4JA DD 065cH ; `process_message_weapons_hold'::`1'::__LINE__Var
_DATA	ENDS
;	COMDAT ??_C@_05MGJOOGAJ@group@
CONST	SEGMENT
??_C@_05MGJOOGAJ@group@ DB 'group', 00H			; `string'
CONST	ENDS
;	COMDAT ?__LINE__Var@?0??process_message_return_to_base@@YGXPAUENTITY@@@Z@4JA
_DATA	SEGMENT
?__LINE__Var@?0??process_message_return_to_base@@YGXPAUENTITY@@@Z@4JA DD 063fH ; `process_message_return_to_base'::`1'::__LINE__Var
_DATA	ENDS
;	COMDAT ??_C@_0DC@FBAJPFKI@MESSAGE?3?5can?8t?5assign?5my?5persue@
CONST	SEGMENT
??_C@_0DC@FBAJPFKI@MESSAGE?3?5can?8t?5assign?5my?5persue@ DB 'MESSAGE: ca'
	DB	'n''t assign my persuer %s to my wingmen', 00H ; `string'
CONST	ENDS
;	COMDAT ?__LINE__Var@?0??process_message_help_me@@YGXPAUENTITY@@0@Z@4JA
_DATA	SEGMENT
?__LINE__Var@?0??process_message_help_me@@YGXPAUENTITY@@0@Z@4JA DD 05e3H ; `process_message_help_me'::`1'::__LINE__Var
_DATA	ENDS
;	COMDAT ??_C@_0GP@FGLKAFGN@get_local_entity_int_value?$CIwing@
CONST	SEGMENT
??_C@_0GP@FGLKAFGN@get_local_entity_int_value?$CIwing@ DB 'get_local_enti'
	DB	'ty_int_value(wingman, INT_TYPE_ENTITY_SUB_TYPE) == ENTITY_SUB'
	DB	'_TYPE_AIRCRAFT_AH64D_APACHE_LONGBOW', 00H	; `string'
CONST	ENDS
;	COMDAT ??_C@_0DJ@PMAIBDHK@get_local_entity_type?$CIwingman?$CJ?5@
CONST	SEGMENT
??_C@_0DJ@PMAIBDHK@get_local_entity_type?$CIwingman?$CJ?5@ DB 'get_local_'
	DB	'entity_type(wingman) == ENTITY_TYPE_HELICOPTER', 00H ; `string'
CONST	ENDS
;	COMDAT ?__LINE__Var@?0??process_message_attack_pfz@@YGXPAUENTITY@@0@Z@4JA
_DATA	SEGMENT
?__LINE__Var@?0??process_message_attack_pfz@@YGXPAUENTITY@@0@Z@4JA DD 05c4H ; `process_message_attack_pfz'::`1'::__LINE__Var
_DATA	ENDS
;	COMDAT ??_C@_07EAKNLMLO@wingman@
CONST	SEGMENT
??_C@_07EAKNLMLO@wingman@ DB 'wingman', 00H		; `string'
CONST	ENDS
;	COMDAT ?__LINE__Var@?0??process_message_attack_my_target@@YGXPAUENTITY@@0@Z@4JA
_DATA	SEGMENT
?__LINE__Var@?0??process_message_attack_my_target@@YGXPAUENTITY@@0@Z@4JA DD 0582H ; `process_message_attack_my_target'::`1'::__LINE__Var
_DATA	ENDS
;	COMDAT ?__LINE__Var@?0??play_client_server_radio_message_negative_response@@YGXPAUENTITY@@HMM@Z@4JA
_DATA	SEGMENT
?__LINE__Var@?0??play_client_server_radio_message_negative_response@@YGXPAUENTITY@@HMM@Z@4JA DD 0531H ; `play_client_server_radio_message_negative_response'::`1'::__LINE__Var
_DATA	ENDS
;	COMDAT ?__LINE__Var@?0??play_radio_message_negative_response@@YGXPAUENTITY@@HMM@Z@4JA
_DATA	SEGMENT
?__LINE__Var@?0??play_radio_message_negative_response@@YGXPAUENTITY@@HMM@Z@4JA DD 0517H ; `play_radio_message_negative_response'::`1'::__LINE__Var
_DATA	ENDS
;	COMDAT ??_C@_02LFNMGJAP@en@
CONST	SEGMENT
??_C@_02LFNMGJAP@en@ DB 'en', 00H			; `string'
CONST	ENDS
;	COMDAT ?__LINE__Var@?0??play_client_server_radio_message_affirmative_response@@YGXPAUENTITY@@HMM@Z@4JA
_DATA	SEGMENT
?__LINE__Var@?0??play_client_server_radio_message_affirmative_response@@YGXPAUENTITY@@HMM@Z@4JA DD 04d2H ; `play_client_server_radio_message_affirmative_response'::`1'::__LINE__Var
_DATA	ENDS
;	COMDAT ??_C@_0CJ@DMBLBJBK@get_comms_model?5?$CI?$CJ?5?$DN?$DN?5COMMS_MOD@
CONST	SEGMENT
??_C@_0CJ@DMBLBJBK@get_comms_model?5?$CI?$CJ?5?$DN?$DN?5COMMS_MOD@ DB 'ge'
	DB	't_comms_model () == COMMS_MODEL_SERVER', 00H ; `string'
CONST	ENDS
;	COMDAT ?__LINE__Var@?0??play_radio_message_affirmative_response@@YGXPAUENTITY@@HMM@Z@4JA
_DATA	SEGMENT
?__LINE__Var@?0??play_radio_message_affirmative_response@@YGXPAUENTITY@@HMM@Z@4JA DD 04abH ; `play_radio_message_affirmative_response'::`1'::__LINE__Var
_DATA	ENDS
;	COMDAT ??_C@_0BJ@BKOACNPH@request?5message?5from?5me?$CB@
CONST	SEGMENT
??_C@_0BJ@BKOACNPH@request?5message?5from?5me?$CB@ DB 'request message fr'
	DB	'om me!', 00H				; `string'
CONST	ENDS
;	COMDAT ??_C@_06DJHOIPC@?$CFs?3?5?$CFs@
CONST	SEGMENT
??_C@_06DJHOIPC@?$CFs?3?5?$CFs@ DB '%s: %s', 00H	; `string'
CONST	ENDS
;	COMDAT ??_C@_0M@GPOJICPM@message_log@
CONST	SEGMENT
??_C@_0M@GPOJICPM@message_log@ DB 'message_log', 00H	; `string'
CONST	ENDS
;	COMDAT ?__LINE__Var@?0??set_incoming_message@@YGXPAUENTITY@@0W4MESSAGE_TEXT_TYPES@@PAD@Z@4JA
_DATA	SEGMENT
?__LINE__Var@?0??set_incoming_message@@YGXPAUENTITY@@0W4MESSAGE_TEXT_TYPES@@PAD@Z@4JA DD 0362H ; `set_incoming_message'::`1'::__LINE__Var
_DATA	ENDS
;	COMDAT ?__LINE__Var@?0??set_message_objective_view_interest_level@@YGXPAUENTITY@@0W4MESSAGE_TEXT_TYPES@@@Z@4JA
_DATA	SEGMENT
?__LINE__Var@?0??set_message_objective_view_interest_level@@YGXPAUENTITY@@0W4MESSAGE_TEXT_TYPES@@@Z@4JA DD 031fH ; `set_message_objective_view_interest_level'::`1'::__LINE__Var
_DATA	ENDS
;	COMDAT ??_C@_0BJ@OKIMKLOH@strlen?5?$CItemp_string?$CJ?5?$DO?50@
CONST	SEGMENT
??_C@_0BJ@OKIMKLOH@strlen?5?$CItemp_string?$CJ?5?$DO?50@ DB 'strlen (temp'
	DB	'_string) > 0', 00H				; `string'
CONST	ENDS
;	COMDAT ??_C@_05DNIIFBMG@?$CFs?5?$CFs@
CONST	SEGMENT
??_C@_05DNIIFBMG@?$CFs?5?$CFs@ DB '%s %s', 00H		; `string'
CONST	ENDS
;	COMDAT ??_C@_09OMEHJBAL@destroyed@
CONST	SEGMENT
??_C@_09OMEHJBAL@destroyed@ DB 'destroyed', 00H		; `string'
CONST	ENDS
;	COMDAT ??_C@_0M@KPOKLKIM@captured?5by@
CONST	SEGMENT
??_C@_0M@KPOKLKIM@captured?5by@ DB 'captured by', 00H	; `string'
CONST	ENDS
;	COMDAT ??_C@_0DL@CDIFAIJO@get_local_entity_int_value?5?$CIsen@
CONST	SEGMENT
??_C@_0DL@CDIFAIJO@get_local_entity_int_value?5?$CIsen@ DB 'get_local_ent'
	DB	'ity_int_value (sender, INT_TYPE_SIDE) == side', 00H ; `string'
CONST	ENDS
;	COMDAT ??_C@_0M@HKJEMFMD@?$CFs?5?$CFs?5?$CFs?5?$CFs@
CONST	SEGMENT
??_C@_0M@HKJEMFMD@?$CFs?5?$CFs?5?$CFs?5?$CFs@ DB '%s %s %s %s', 00H ; `string'
CONST	ENDS
;	COMDAT ??_C@_02LFBAPLBM@by@
CONST	SEGMENT
??_C@_02LFBAPLBM@by@ DB 'by', 00H			; `string'
CONST	ENDS
;	COMDAT ??_C@_0DL@LIMLOOGJ@get_local_entity_int_value?5?$CItar@
CONST	SEGMENT
??_C@_0DL@LIMLOOGJ@get_local_entity_int_value?5?$CItar@ DB 'get_local_ent'
	DB	'ity_int_value (target, INT_TYPE_SIDE) == side', 00H ; `string'
CONST	ENDS
;	COMDAT ??_C@_03PCBNCGFH@pos@
CONST	SEGMENT
??_C@_03PCBNCGFH@pos@ DB 'pos', 00H			; `string'
CONST	ENDS
;	COMDAT ??_C@_0N@JIGEGLMG@?$CFs?0?5?$CFs?5?$CFs?5?$CFs@
CONST	SEGMENT
??_C@_0N@JIGEGLMG@?$CFs?0?5?$CFs?5?$CFs?5?$CFs@ DB '%s, %s %s %s', 00H ; `string'
CONST	ENDS
;	COMDAT ??_C@_0BA@DCNJBCDL@under?5attack?5by@
CONST	SEGMENT
??_C@_0BA@DCNJBCDL@under?5attack?5by@ DB 'under attack by', 00H ; `string'
CONST	ENDS
;	COMDAT ??_C@_08DHDHNDEI@division@
CONST	SEGMENT
??_C@_08DHDHNDEI@division@ DB 'division', 00H		; `string'
CONST	ENDS
;	COMDAT ??_C@_0HB@PIDPAHH@?$CIget_local_entity_type?5?$CItarget?$CJ@
CONST	SEGMENT
??_C@_0HB@PIDPAHH@?$CIget_local_entity_type?5?$CItarget?$CJ@ DB '(get_loc'
	DB	'al_entity_type (target) == ENTITY_TYPE_GROUP) || (get_local_e'
	DB	'ntity_type (target) == ENTITY_TYPE_KEYSITE)', 00H ; `string'
CONST	ENDS
;	COMDAT ??_C@_08EPEHIMMI@?$CFs?5?$CFs?5?$CFs@
CONST	SEGMENT
??_C@_08EPEHIMMI@?$CFs?5?$CFs?5?$CFs@ DB '%s %s %s', 00H ; `string'
CONST	ENDS
;	COMDAT ??_C@_0N@JJCLPCKK@destroyed?5by@
CONST	SEGMENT
??_C@_0N@JJCLPCKK@destroyed?5by@ DB 'destroyed by', 00H	; `string'
CONST	ENDS
;	COMDAT ??_C@_0BD@PFNECLNE@raw_string?5?$DN?$DN?5NULL@
CONST	SEGMENT
??_C@_0BD@PFNECLNE@raw_string?5?$DN?$DN?5NULL@ DB 'raw_string == NULL', 00H ; `string'
CONST	ENDS
;	COMDAT ??_C@_06OMDHIKNA@?$CFs?0?5?$CFs@
CONST	SEGMENT
??_C@_06OMDHIKNA@?$CFs?0?5?$CFs@ DB '%s, %s', 00H	; `string'
CONST	ENDS
;	COMDAT ??_C@_0BA@OIFMPHDI@Critical?5damage@
CONST	SEGMENT
??_C@_0BA@OIFMPHDI@Critical?5damage@ DB 'Critical damage', 00H ; `string'
CONST	ENDS
;	COMDAT ??_C@_0N@GDPEJOII@Heavy?5damage@
CONST	SEGMENT
??_C@_0N@GDPEJOII@Heavy?5damage@ DB 'Heavy damage', 00H	; `string'
CONST	ENDS
;	COMDAT ??_C@_0BA@OGBLOPBA@Moderate?5damage@
CONST	SEGMENT
??_C@_0BA@OGBLOPBA@Moderate?5damage@ DB 'Moderate damage', 00H ; `string'
CONST	ENDS
;	COMDAT ??_C@_0O@LAABLPCG@Slight?5damage@
CONST	SEGMENT
??_C@_0O@LAABLPCG@Slight?5damage@ DB 'Slight damage', 00H ; `string'
CONST	ENDS
;	COMDAT ??_C@_09ONNBFJGN@No?5damage@
CONST	SEGMENT
??_C@_09ONNBFJGN@No?5damage@ DB 'No damage', 00H	; `string'
CONST	ENDS
;	COMDAT ??_C@_0M@GGBAKKFK@?$CFs?$CFs?5?$CFs?5?$CFd?5@
CONST	SEGMENT
??_C@_0M@GGBAKKFK@?$CFs?$CFs?5?$CFs?5?$CFd?5@ DB '%s%s %s %d ', 00H ; `string'
CONST	ENDS
;	COMDAT ??_C@_00CNPNBAHC@@
CONST	SEGMENT
??_C@_00CNPNBAHC@@ DB 00H				; `string'
CONST	ENDS
;	COMDAT ??_C@_01IHBHIGKO@?0@
CONST	SEGMENT
??_C@_01IHBHIGKO@?0@ DB ',', 00H			; `string'
CONST	ENDS
;	COMDAT ??_C@_09DBGCPOJB@?$CFs?51?9?$CFd?3?5@
CONST	SEGMENT
??_C@_09DBGCPOJB@?$CFs?51?9?$CFd?3?5@ DB '%s 1-%d: ', 00H ; `string'
CONST	ENDS
;	COMDAT ??_C@_0DI@GMPCFGGP@get_local_entity_type?$CIsender?$CJ?5?$DN@
CONST	SEGMENT
??_C@_0DI@GMPCFGGP@get_local_entity_type?$CIsender?$CJ?5?$DN@ DB 'get_loc'
	DB	'al_entity_type(sender) == ENTITY_TYPE_HELICOPTER', 00H ; `string'
CONST	ENDS
;	COMDAT ??_C@_07IAFACCAD@?$CFs?5?3?5?$CFs@
CONST	SEGMENT
??_C@_07IAFACCAD@?$CFs?5?3?5?$CFs@ DB '%s : %s', 00H	; `string'
CONST	ENDS
;	COMDAT ??_C@_0M@IMLPLBM@?$CFs?51?9?$CFd?3?5?$CFs@
CONST	SEGMENT
??_C@_0M@IMLPLBM@?$CFs?51?9?$CFd?3?5?$CFs@ DB '%s 1-%d: %s', 00H ; `string'
CONST	ENDS
;	COMDAT ??_C@_0BB@HMCGNGHF@?$CFs?5?$CI?$CFs?51?9?$CFd?$CJ?3?5?$CFs@
CONST	SEGMENT
??_C@_0BB@HMCGNGHF@?$CFs?5?$CI?$CFs?51?9?$CFd?$CJ?3?5?$CFs@ DB '%s (%s 1-'
	DB	'%d): %s', 00H				; `string'
CONST	ENDS
;	COMDAT ??_C@_0L@PECNBABE@raw_string@
CONST	SEGMENT
??_C@_0L@PECNBABE@raw_string@ DB 'raw_string', 00H	; `string'
CONST	ENDS
;	COMDAT ??_C@_07ONPBMBOP@message@
CONST	SEGMENT
??_C@_07ONPBMBOP@message@ DB 'message', 00H		; `string'
CONST	ENDS
;	COMDAT ?__LINE__Var@?0??format_incoming_message@@YGPAUENTITY@@PAUMESSAGE_LOG_TYPE@@PAU2@1PAD@Z@4JA
_DATA	SEGMENT
?__LINE__Var@?0??format_incoming_message@@YGPAUENTITY@@PAUMESSAGE_LOG_TYPE@@PAU2@1PAD@Z@4JA DD 0191H ; `format_incoming_message'::`1'::__LINE__Var
_DATA	ENDS
;	COMDAT ??_C@_0CB@FJHDHJFF@MESSAGE?3?5Unknown?5message?5type?5?$CF@
CONST	SEGMENT
??_C@_0CB@FJHDHJFF@MESSAGE?3?5Unknown?5message?5type?5?$CF@ DB 'MESSAGE: '
	DB	'Unknown message type %d', 00H		; `string'
CONST	ENDS
;	COMDAT ??_C@_06CGHJMPBJ@sender@
CONST	SEGMENT
??_C@_06CGHJMPBJ@sender@ DB 'sender', 00H		; `string'
CONST	ENDS
;	COMDAT ??_C@_06JJLAMBGK@target@
CONST	SEGMENT
??_C@_06JJLAMBGK@target@ DB 'target', 00H		; `string'
CONST	ENDS
;	COMDAT ?__LINE__Var@?0??message_intended_for_recipient@@YGHPAUENTITY@@0W4MESSAGE_TEXT_TYPES@@@Z@4JA
_DATA	SEGMENT
?__LINE__Var@?0??message_intended_for_recipient@@YGHPAUENTITY@@0W4MESSAGE_TEXT_TYPES@@@Z@4JA DD 0f5H ; `message_intended_for_recipient'::`1'::__LINE__Var
_DATA	ENDS
;	COMDAT ??_C@_03MGHMBJCF@log@
CONST	SEGMENT
??_C@_03MGHMBJCF@log@ DB 'log', 00H			; `string'
CONST	ENDS
;	COMDAT ?__LINE__Var@?0??deinitialise_message_log@@YGXXZ@4JA
_DATA	SEGMENT
?__LINE__Var@?0??deinitialise_message_log@@YGXXZ@4JA DD 0c8H ; `deinitialise_message_log'::`1'::__LINE__Var
_DATA	ENDS
;	COMDAT ??_C@_0CH@MIBEIFCH@?$CIindex?5?$DO?$DN?50?$CJ?5?$CG?$CG?5?$CIindex?5?$DM?5num_me@
CONST	SEGMENT
??_C@_0CH@MIBEIFCH@?$CIindex?5?$DO?$DN?50?$CJ?5?$CG?$CG?5?$CIindex?5?$DM?5num_me@ DB '('
	DB	'index >= 0) && (index < num_messages)', 00H	; `string'
CONST	ENDS
;	COMDAT ??_C@_0DK@BLKECLAG@c?3?2users?2nhv90?2projects?2eech?2ap@
CONST	SEGMENT
??_C@_0DK@BLKECLAG@c?3?2users?2nhv90?2projects?2eech?2ap@ DB 'c:\users\nh'
	DB	'v90\projects\eech\aphavoc\source\misc\msg_in.c', 00H ; `string'
CONST	ENDS
;	COMDAT ?__LINE__Var@?0??get_message_log@@YGPAUMESSAGE_LOG_TYPE@@H@Z@4JA
_DATA	SEGMENT
?__LINE__Var@?0??get_message_log@@YGPAUMESSAGE_LOG_TYPE@@H@Z@4JA DD 088H ; `get_message_log'::`1'::__LINE__Var
_DATA	ENDS
_DATA	SEGMENT
?current_message@@3HA DD 0ffffffffH			; current_message
_DATA	ENDS
;	COMDAT ??_C@_02DKCKIIND@?$CFs@
CONST	SEGMENT
??_C@_02DKCKIIND@?$CFs@ DB '%s', 00H			; `string'
CONST	ENDS
; Function compile flags: /Odtp /ZI
; File c:\program files (x86)\microsoft visual studio\2017\community\vc\tools\msvc\14.16.27023\include\algorithm
;	COMDAT ??$min@H@std@@YGABHABH0@Z
_TEXT	SEGMENT
__Left$ = 8						; size = 4
__Right$ = 12						; size = 4
??$min@H@std@@YGABHABH0@Z PROC				; std::min<int>, COMDAT

; 5427 : 	{	// return smaller of _Left and _Right

  00000	55		 push	 ebp
  00001	8b ec		 mov	 ebp, esp
  00003	83 ec 40	 sub	 esp, 64			; 00000040H
  00006	53		 push	 ebx
  00007	56		 push	 esi
  00008	57		 push	 edi

; 5428 : 	if (_Right < _Left)

  00009	8b 45 0c	 mov	 eax, DWORD PTR __Right$[ebp]
  0000c	8b 4d 08	 mov	 ecx, DWORD PTR __Left$[ebp]
  0000f	8b 10		 mov	 edx, DWORD PTR [eax]
  00011	3b 11		 cmp	 edx, DWORD PTR [ecx]
  00013	7d 61		 jge	 SHORT $LN8@min
$LN4@min:

; 5429 : 		{
; 5430 : 		_STL_ASSERT(!(_Left < _Right), "invalid comparator");

  00015	8b 45 08	 mov	 eax, DWORD PTR __Left$[ebp]
  00018	8b 4d 0c	 mov	 ecx, DWORD PTR __Right$[ebp]
  0001b	8b 10		 mov	 edx, DWORD PTR [eax]
  0001d	3b 11		 cmp	 edx, DWORD PTR [ecx]
  0001f	7c 02		 jl	 SHORT $LN7@min
  00021	eb 4a		 jmp	 SHORT $LN2@min
$LN7@min:
  00023	68 00 00 00 00	 push	 OFFSET ??_C@_0BD@FEEMDEPI@invalid?5comparator@
  00028	68 00 00 00 00	 push	 OFFSET ??_C@_02DKCKIIND@?$CFs@
  0002d	6a 00		 push	 0
  0002f	68 36 15 00 00	 push	 5430			; 00001536H
  00034	68 00 00 00 00	 push	 OFFSET ??_C@_0GK@JMBMHIBC@c?3?2program?5files?5?$CIx86?$CJ?2microsof@
  00039	6a 02		 push	 2
  0003b	ff 15 00 00 00
	00		 call	 DWORD PTR __imp___CrtDbgReport
  00041	83 c4 18	 add	 esp, 24			; 00000018H
  00044	83 f8 01	 cmp	 eax, 1
  00047	75 01		 jne	 SHORT $LN12@min
  00049	cc		 int	 3
$LN12@min:
  0004a	6a 00		 push	 0
  0004c	68 36 15 00 00	 push	 5430			; 00001536H
  00051	68 00 00 00 00	 push	 OFFSET ??_C@_1NE@FKBPBJEB@?$AAc?$AA?3?$AA?2?$AAp?$AAr?$AAo?$AAg?$AAr?$AAa?$AAm?$AA?5?$AAf?$AAi?$AAl?$AAe@
  00056	68 00 00 00 00	 push	 OFFSET ??_C@_1BC@BLAPCBGI@?$AAs?$AAt?$AAd?$AA?3?$AA?3?$AAm?$AAi?$AAn@
  0005b	68 00 00 00 00	 push	 OFFSET ??_C@_1CK@NDNHPKPI@?$AA?$CC?$AAi?$AAn?$AAv?$AAa?$AAl?$AAi?$AAd?$AA?5?$AAc?$AAo?$AAm?$AAp?$AAa?$AAr@
  00060	ff 15 00 00 00
	00		 call	 DWORD PTR __imp___invalid_parameter
  00066	83 c4 14	 add	 esp, 20			; 00000014H
  00069	33 c0		 xor	 eax, eax
  0006b	75 b6		 jne	 SHORT $LN7@min
$LN2@min:
  0006d	33 c0		 xor	 eax, eax
  0006f	75 a4		 jne	 SHORT $LN4@min

; 5431 : 		return (_Right);

  00071	8b 45 0c	 mov	 eax, DWORD PTR __Right$[ebp]
  00074	eb 03		 jmp	 SHORT $LN11@min
$LN8@min:

; 5432 : 		}
; 5433 : 
; 5434 : 	return (_Left);

  00076	8b 45 08	 mov	 eax, DWORD PTR __Left$[ebp]
$LN11@min:

; 5435 : 	}

  00079	5f		 pop	 edi
  0007a	5e		 pop	 esi
  0007b	5b		 pop	 ebx
  0007c	8b e5		 mov	 esp, ebp
  0007e	5d		 pop	 ebp
  0007f	c2 08 00	 ret	 8
??$min@H@std@@YGABHABH0@Z ENDP				; std::min<int>
_TEXT	ENDS
; Function compile flags: /Odtp /ZI
; File c:\users\nhv90\projects\eech\aphavoc\source\misc\msg_in.c
;	COMDAT ?play_client_server_radio_message_negative_response@@YGXPAUENTITY@@HMM@Z
_TEXT	SEGMENT
tv239 = -76						; size = 4
tv214 = -76						; size = 4
tv193 = -76						; size = 4
tv173 = -76						; size = 4
tv153 = -76						; size = 4
tv128 = -76						; size = 4
tv231 = -72						; size = 4
tv206 = -72						; size = 4
tv185 = -72						; size = 4
tv165 = -72						; size = 4
tv145 = -72						; size = 4
tv88 = -72						; size = 4
tv79 = -72						; size = 4
_sender$ = -4						; size = 4
_en$ = 8						; size = 4
_speech_index$ = 12					; size = 4
_priority$ = 16						; size = 4
_expire_time$ = 20					; size = 4
?play_client_server_radio_message_negative_response@@YGXPAUENTITY@@HMM@Z PROC ; play_client_server_radio_message_negative_response, COMDAT

; 1329 : {

  00000	55		 push	 ebp
  00001	8b ec		 mov	 ebp, esp
  00003	83 ec 4c	 sub	 esp, 76			; 0000004cH
  00006	53		 push	 ebx
  00007	56		 push	 esi
  00008	57		 push	 edi

; 1330 : 	entity
; 1331 : 		*sender;
; 1332 : 
; 1333 : 	ASSERT (en);

  00009	83 7d 08 00	 cmp	 DWORD PTR _en$[ebp], 0
  0000d	75 18		 jne	 SHORT $LN8@play_clien
  0000f	a1 00 00 00 00	 mov	 eax, DWORD PTR ?__LINE__Var@?0??play_client_server_radio_message_negative_response@@YGXPAUENTITY@@HMM@Z@4JA
  00014	83 c0 04	 add	 eax, 4
  00017	50		 push	 eax
  00018	68 00 00 00 00	 push	 OFFSET ??_C@_0DK@BLKECLAG@c?3?2users?2nhv90?2projects?2eech?2ap@
  0001d	68 00 00 00 00	 push	 OFFSET ??_C@_02LFNMGJAP@en@
  00022	e8 00 00 00 00	 call	 ?process_assert@@YGXPBD0H@Z ; process_assert
$LN8@play_clien:

; 1334 : 
; 1335 : 	ASSERT (get_comms_model () == COMMS_MODEL_SERVER);

  00027	83 3d 00 00 00
	00 00		 cmp	 DWORD PTR ?system_comms_model@@3W4COMMS_MODEL_TYPES@@A, 0 ; system_comms_model
  0002e	74 18		 je	 SHORT $LN9@play_clien
  00030	a1 00 00 00 00	 mov	 eax, DWORD PTR ?__LINE__Var@?0??play_client_server_radio_message_negative_response@@YGXPAUENTITY@@HMM@Z@4JA
  00035	83 c0 06	 add	 eax, 6
  00038	50		 push	 eax
  00039	68 00 00 00 00	 push	 OFFSET ??_C@_0DK@BLKECLAG@c?3?2users?2nhv90?2projects?2eech?2ap@
  0003e	68 00 00 00 00	 push	 OFFSET ??_C@_0CJ@DMBLBJBK@get_comms_model?5?$CI?$CJ?5?$DN?$DN?5COMMS_MOD@
  00043	e8 00 00 00 00	 call	 ?process_assert@@YGXPBD0H@Z ; process_assert
$LN9@play_clien:

; 1336 : 
; 1337 : 	if (get_local_entity_type (en) == ENTITY_TYPE_GROUP)

  00048	83 7d 08 00	 cmp	 DWORD PTR _en$[ebp], 0
  0004c	74 0a		 je	 SHORT $LN15@play_clien
  0004e	8b 45 08	 mov	 eax, DWORD PTR _en$[ebp]
  00051	8b 08		 mov	 ecx, DWORD PTR [eax]
  00053	89 4d b8	 mov	 DWORD PTR tv79[ebp], ecx
  00056	eb 1d		 jmp	 SHORT $LN16@play_clien
$LN15@play_clien:
  00058	68 39 05 00 00	 push	 1337			; 00000539H
  0005d	68 00 00 00 00	 push	 OFFSET ??_C@_0DK@BLKECLAG@c?3?2users?2nhv90?2projects?2eech?2ap@
  00062	8b 15 00 00 00
	00		 mov	 edx, DWORD PTR ?null_entity_pointer_message@@3PBDB ; null_entity_pointer_message
  00068	52		 push	 edx
  00069	e8 00 00 00 00	 call	 ?process_assert@@YGXPBD0H@Z ; process_assert
  0006e	c7 45 b8 00 00
	00 00		 mov	 DWORD PTR tv79[ebp], 0
$LN16@play_clien:
  00075	83 7d b8 0c	 cmp	 DWORD PTR tv79[ebp], 12	; 0000000cH
  00079	0f 85 96 03 00
	00		 jne	 $LN10@play_clien

; 1338 : 	{
; 1339 : 		//
; 1340 : 		// if the message was to the whole flight group, select a non-player member to make the response
; 1341 : 		//
; 1342 : 
; 1343 : 		if (group_wingman_cycle_forwards)

  0007f	83 3d 00 00 00
	00 00		 cmp	 DWORD PTR ?group_wingman_cycle_forwards@@3HA, 0
  00086	0f 84 41 01 00
	00		 je	 $LN12@play_clien

; 1344 : 		{
; 1345 : 			//
; 1346 : 			// forward through w/m list
; 1347 : 			//
; 1348 : 
; 1349 : 			sender = get_local_entity_first_child (en, LIST_TYPE_MEMBER);

  0008c	83 7d 08 00	 cmp	 DWORD PTR _en$[ebp], 0
  00090	74 0a		 je	 SHORT $LN17@play_clien
  00092	8b 45 08	 mov	 eax, DWORD PTR _en$[ebp]
  00095	8b 08		 mov	 ecx, DWORD PTR [eax]
  00097	89 4d b8	 mov	 DWORD PTR tv88[ebp], ecx
  0009a	eb 21		 jmp	 SHORT $LN18@play_clien
$LN17@play_clien:
  0009c	8b 15 00 00 00
	00		 mov	 edx, DWORD PTR ?__LINE__Var@?0??play_client_server_radio_message_negative_response@@YGXPAUENTITY@@HMM@Z@4JA
  000a2	83 c2 14	 add	 edx, 20			; 00000014H
  000a5	52		 push	 edx
  000a6	68 00 00 00 00	 push	 OFFSET ??_C@_0DK@BLKECLAG@c?3?2users?2nhv90?2projects?2eech?2ap@
  000ab	a1 00 00 00 00	 mov	 eax, DWORD PTR ?null_entity_pointer_message@@3PBDB ; null_entity_pointer_message
  000b0	50		 push	 eax
  000b1	e8 00 00 00 00	 call	 ?process_assert@@YGXPBD0H@Z ; process_assert
  000b6	c7 45 b8 00 00
	00 00		 mov	 DWORD PTR tv88[ebp], 0
$LN18@play_clien:
  000bd	b9 01 00 00 00	 mov	 ecx, 1
  000c2	85 c9		 test	 ecx, ecx
  000c4	74 09		 je	 SHORT $LN19@play_clien
  000c6	c7 45 b4 19 00
	00 00		 mov	 DWORD PTR tv128[ebp], 25 ; 00000019H
  000cd	eb 21		 jmp	 SHORT $LN20@play_clien
$LN19@play_clien:
  000cf	8b 15 00 00 00
	00		 mov	 edx, DWORD PTR ?__LINE__Var@?0??play_client_server_radio_message_negative_response@@YGXPAUENTITY@@HMM@Z@4JA
  000d5	83 c2 14	 add	 edx, 20			; 00000014H
  000d8	52		 push	 edx
  000d9	68 00 00 00 00	 push	 OFFSET ??_C@_0DK@BLKECLAG@c?3?2users?2nhv90?2projects?2eech?2ap@
  000de	a1 00 00 00 00	 mov	 eax, DWORD PTR ?overload_invalid_list_type_message@@3PBDB ; overload_invalid_list_type_message
  000e3	50		 push	 eax
  000e4	e8 00 00 00 00	 call	 ?process_assert@@YGXPBD0H@Z ; process_assert
  000e9	c7 45 b4 00 00
	00 00		 mov	 DWORD PTR tv128[ebp], 0
$LN20@play_clien:
  000f0	6a 19		 push	 25			; 00000019H
  000f2	8b 4d 08	 mov	 ecx, DWORD PTR _en$[ebp]
  000f5	51		 push	 ecx
  000f6	69 55 b8 b4 00
	00 00		 imul	 edx, DWORD PTR tv88[ebp], 180
  000fd	8b 45 b4	 mov	 eax, DWORD PTR tv128[ebp]
  00100	8b 8c 82 00 00
	00 00		 mov	 ecx, DWORD PTR ?fn_get_local_entity_first_child@@3PAY0CN@P6GPAUENTITY@@PAU1@W4LIST_TYPES@@@ZA[edx+eax*4]
  00107	ff d1		 call	 ecx
  00109	89 45 fc	 mov	 DWORD PTR _sender$[ebp], eax
$LN2@play_clien:

; 1350 : 
; 1351 : 			while (sender)

  0010c	83 7d fc 00	 cmp	 DWORD PTR _sender$[ebp], 0
  00110	0f 84 a8 00 00
	00		 je	 $LN3@play_clien

; 1352 : 			{
; 1353 : 				play_radio_message_negative_response (sender, speech_index, priority, expire_time);

  00116	51		 push	 ecx
  00117	f3 0f 10 45 14	 movss	 xmm0, DWORD PTR _expire_time$[ebp]
  0011c	f3 0f 11 04 24	 movss	 DWORD PTR [esp], xmm0
  00121	51		 push	 ecx
  00122	f3 0f 10 45 10	 movss	 xmm0, DWORD PTR _priority$[ebp]
  00127	f3 0f 11 04 24	 movss	 DWORD PTR [esp], xmm0
  0012c	8b 45 0c	 mov	 eax, DWORD PTR _speech_index$[ebp]
  0012f	50		 push	 eax
  00130	8b 4d fc	 mov	 ecx, DWORD PTR _sender$[ebp]
  00133	51		 push	 ecx
  00134	e8 00 00 00 00	 call	 ?play_radio_message_negative_response@@YGXPAUENTITY@@HMM@Z ; play_radio_message_negative_response

; 1354 : 
; 1355 : 				sender = get_local_entity_child_succ (sender, LIST_TYPE_MEMBER);

  00139	83 7d fc 00	 cmp	 DWORD PTR _sender$[ebp], 0
  0013d	74 0a		 je	 SHORT $LN21@play_clien
  0013f	8b 45 fc	 mov	 eax, DWORD PTR _sender$[ebp]
  00142	8b 08		 mov	 ecx, DWORD PTR [eax]
  00144	89 4d b8	 mov	 DWORD PTR tv145[ebp], ecx
  00147	eb 21		 jmp	 SHORT $LN22@play_clien
$LN21@play_clien:
  00149	8b 15 00 00 00
	00		 mov	 edx, DWORD PTR ?__LINE__Var@?0??play_client_server_radio_message_negative_response@@YGXPAUENTITY@@HMM@Z@4JA
  0014f	83 c2 1a	 add	 edx, 26			; 0000001aH
  00152	52		 push	 edx
  00153	68 00 00 00 00	 push	 OFFSET ??_C@_0DK@BLKECLAG@c?3?2users?2nhv90?2projects?2eech?2ap@
  00158	a1 00 00 00 00	 mov	 eax, DWORD PTR ?null_entity_pointer_message@@3PBDB ; null_entity_pointer_message
  0015d	50		 push	 eax
  0015e	e8 00 00 00 00	 call	 ?process_assert@@YGXPBD0H@Z ; process_assert
  00163	c7 45 b8 00 00
	00 00		 mov	 DWORD PTR tv145[ebp], 0
$LN22@play_clien:
  0016a	b9 01 00 00 00	 mov	 ecx, 1
  0016f	85 c9		 test	 ecx, ecx
  00171	74 09		 je	 SHORT $LN23@play_clien
  00173	c7 45 b4 19 00
	00 00		 mov	 DWORD PTR tv153[ebp], 25 ; 00000019H
  0017a	eb 21		 jmp	 SHORT $LN24@play_clien
$LN23@play_clien:
  0017c	8b 15 00 00 00
	00		 mov	 edx, DWORD PTR ?__LINE__Var@?0??play_client_server_radio_message_negative_response@@YGXPAUENTITY@@HMM@Z@4JA
  00182	83 c2 1a	 add	 edx, 26			; 0000001aH
  00185	52		 push	 edx
  00186	68 00 00 00 00	 push	 OFFSET ??_C@_0DK@BLKECLAG@c?3?2users?2nhv90?2projects?2eech?2ap@
  0018b	a1 00 00 00 00	 mov	 eax, DWORD PTR ?overload_invalid_list_type_message@@3PBDB ; overload_invalid_list_type_message
  00190	50		 push	 eax
  00191	e8 00 00 00 00	 call	 ?process_assert@@YGXPBD0H@Z ; process_assert
  00196	c7 45 b4 00 00
	00 00		 mov	 DWORD PTR tv153[ebp], 0
$LN24@play_clien:
  0019d	6a 19		 push	 25			; 00000019H
  0019f	8b 4d fc	 mov	 ecx, DWORD PTR _sender$[ebp]
  001a2	51		 push	 ecx
  001a3	69 55 b8 b4 00
	00 00		 imul	 edx, DWORD PTR tv145[ebp], 180
  001aa	8b 45 b4	 mov	 eax, DWORD PTR tv153[ebp]
  001ad	8b 8c 82 00 00
	00 00		 mov	 ecx, DWORD PTR ?fn_get_local_entity_child_succ@@3PAY0CN@P6GPAUENTITY@@PAU1@W4LIST_TYPES@@@ZA[edx+eax*4]
  001b4	ff d1		 call	 ecx
  001b6	89 45 fc	 mov	 DWORD PTR _sender$[ebp], eax

; 1356 : 			}

  001b9	e9 4e ff ff ff	 jmp	 $LN2@play_clien
$LN3@play_clien:

; 1357 : 
; 1358 : 			group_wingman_cycle_forwards = FALSE;

  001be	c7 05 00 00 00
	00 00 00 00 00	 mov	 DWORD PTR ?group_wingman_cycle_forwards@@3HA, 0

; 1359 : 		}
; 1360 : 		else

  001c8	e9 46 02 00 00	 jmp	 $LN13@play_clien
$LN12@play_clien:

; 1361 : 		{
; 1362 : 			//
; 1363 : 			// backward through w/m list
; 1364 : 			//
; 1365 : 
; 1366 : 			sender = get_local_entity_first_child (en, LIST_TYPE_MEMBER);

  001cd	83 7d 08 00	 cmp	 DWORD PTR _en$[ebp], 0
  001d1	74 0a		 je	 SHORT $LN25@play_clien
  001d3	8b 45 08	 mov	 eax, DWORD PTR _en$[ebp]
  001d6	8b 08		 mov	 ecx, DWORD PTR [eax]
  001d8	89 4d b8	 mov	 DWORD PTR tv165[ebp], ecx
  001db	eb 21		 jmp	 SHORT $LN26@play_clien
$LN25@play_clien:
  001dd	8b 15 00 00 00
	00		 mov	 edx, DWORD PTR ?__LINE__Var@?0??play_client_server_radio_message_negative_response@@YGXPAUENTITY@@HMM@Z@4JA
  001e3	83 c2 25	 add	 edx, 37			; 00000025H
  001e6	52		 push	 edx
  001e7	68 00 00 00 00	 push	 OFFSET ??_C@_0DK@BLKECLAG@c?3?2users?2nhv90?2projects?2eech?2ap@
  001ec	a1 00 00 00 00	 mov	 eax, DWORD PTR ?null_entity_pointer_message@@3PBDB ; null_entity_pointer_message
  001f1	50		 push	 eax
  001f2	e8 00 00 00 00	 call	 ?process_assert@@YGXPBD0H@Z ; process_assert
  001f7	c7 45 b8 00 00
	00 00		 mov	 DWORD PTR tv165[ebp], 0
$LN26@play_clien:
  001fe	b9 01 00 00 00	 mov	 ecx, 1
  00203	85 c9		 test	 ecx, ecx
  00205	74 09		 je	 SHORT $LN27@play_clien
  00207	c7 45 b4 19 00
	00 00		 mov	 DWORD PTR tv173[ebp], 25 ; 00000019H
  0020e	eb 21		 jmp	 SHORT $LN28@play_clien
$LN27@play_clien:
  00210	8b 15 00 00 00
	00		 mov	 edx, DWORD PTR ?__LINE__Var@?0??play_client_server_radio_message_negative_response@@YGXPAUENTITY@@HMM@Z@4JA
  00216	83 c2 25	 add	 edx, 37			; 00000025H
  00219	52		 push	 edx
  0021a	68 00 00 00 00	 push	 OFFSET ??_C@_0DK@BLKECLAG@c?3?2users?2nhv90?2projects?2eech?2ap@
  0021f	a1 00 00 00 00	 mov	 eax, DWORD PTR ?overload_invalid_list_type_message@@3PBDB ; overload_invalid_list_type_message
  00224	50		 push	 eax
  00225	e8 00 00 00 00	 call	 ?process_assert@@YGXPBD0H@Z ; process_assert
  0022a	c7 45 b4 00 00
	00 00		 mov	 DWORD PTR tv173[ebp], 0
$LN28@play_clien:
  00231	6a 19		 push	 25			; 00000019H
  00233	8b 4d 08	 mov	 ecx, DWORD PTR _en$[ebp]
  00236	51		 push	 ecx
  00237	69 55 b8 b4 00
	00 00		 imul	 edx, DWORD PTR tv165[ebp], 180
  0023e	8b 45 b4	 mov	 eax, DWORD PTR tv173[ebp]
  00241	8b 8c 82 00 00
	00 00		 mov	 ecx, DWORD PTR ?fn_get_local_entity_first_child@@3PAY0CN@P6GPAUENTITY@@PAU1@W4LIST_TYPES@@@ZA[edx+eax*4]
  00248	ff d1		 call	 ecx
  0024a	89 45 fc	 mov	 DWORD PTR _sender$[ebp], eax
$LN4@play_clien:

; 1367 : 
; 1368 : 			while (get_local_entity_child_succ (sender, LIST_TYPE_MEMBER))

  0024d	83 7d fc 00	 cmp	 DWORD PTR _sender$[ebp], 0
  00251	74 0a		 je	 SHORT $LN29@play_clien
  00253	8b 45 fc	 mov	 eax, DWORD PTR _sender$[ebp]
  00256	8b 08		 mov	 ecx, DWORD PTR [eax]
  00258	89 4d b8	 mov	 DWORD PTR tv185[ebp], ecx
  0025b	eb 21		 jmp	 SHORT $LN30@play_clien
$LN29@play_clien:
  0025d	8b 15 00 00 00
	00		 mov	 edx, DWORD PTR ?__LINE__Var@?0??play_client_server_radio_message_negative_response@@YGXPAUENTITY@@HMM@Z@4JA
  00263	83 c2 27	 add	 edx, 39			; 00000027H
  00266	52		 push	 edx
  00267	68 00 00 00 00	 push	 OFFSET ??_C@_0DK@BLKECLAG@c?3?2users?2nhv90?2projects?2eech?2ap@
  0026c	a1 00 00 00 00	 mov	 eax, DWORD PTR ?null_entity_pointer_message@@3PBDB ; null_entity_pointer_message
  00271	50		 push	 eax
  00272	e8 00 00 00 00	 call	 ?process_assert@@YGXPBD0H@Z ; process_assert
  00277	c7 45 b8 00 00
	00 00		 mov	 DWORD PTR tv185[ebp], 0
$LN30@play_clien:
  0027e	b9 01 00 00 00	 mov	 ecx, 1
  00283	85 c9		 test	 ecx, ecx
  00285	74 09		 je	 SHORT $LN31@play_clien
  00287	c7 45 b4 19 00
	00 00		 mov	 DWORD PTR tv193[ebp], 25 ; 00000019H
  0028e	eb 21		 jmp	 SHORT $LN32@play_clien
$LN31@play_clien:
  00290	8b 15 00 00 00
	00		 mov	 edx, DWORD PTR ?__LINE__Var@?0??play_client_server_radio_message_negative_response@@YGXPAUENTITY@@HMM@Z@4JA
  00296	83 c2 27	 add	 edx, 39			; 00000027H
  00299	52		 push	 edx
  0029a	68 00 00 00 00	 push	 OFFSET ??_C@_0DK@BLKECLAG@c?3?2users?2nhv90?2projects?2eech?2ap@
  0029f	a1 00 00 00 00	 mov	 eax, DWORD PTR ?overload_invalid_list_type_message@@3PBDB ; overload_invalid_list_type_message
  002a4	50		 push	 eax
  002a5	e8 00 00 00 00	 call	 ?process_assert@@YGXPBD0H@Z ; process_assert
  002aa	c7 45 b4 00 00
	00 00		 mov	 DWORD PTR tv193[ebp], 0
$LN32@play_clien:
  002b1	6a 19		 push	 25			; 00000019H
  002b3	8b 4d fc	 mov	 ecx, DWORD PTR _sender$[ebp]
  002b6	51		 push	 ecx
  002b7	69 55 b8 b4 00
	00 00		 imul	 edx, DWORD PTR tv185[ebp], 180
  002be	8b 45 b4	 mov	 eax, DWORD PTR tv193[ebp]
  002c1	8b 8c 82 00 00
	00 00		 mov	 ecx, DWORD PTR ?fn_get_local_entity_child_succ@@3PAY0CN@P6GPAUENTITY@@PAU1@W4LIST_TYPES@@@ZA[edx+eax*4]
  002c8	ff d1		 call	 ecx
  002ca	85 c0		 test	 eax, eax
  002cc	0f 84 85 00 00
	00		 je	 $LN5@play_clien

; 1369 : 			{
; 1370 : 				sender = get_local_entity_child_succ (sender, LIST_TYPE_MEMBER);

  002d2	83 7d fc 00	 cmp	 DWORD PTR _sender$[ebp], 0
  002d6	74 0a		 je	 SHORT $LN33@play_clien
  002d8	8b 45 fc	 mov	 eax, DWORD PTR _sender$[ebp]
  002db	8b 08		 mov	 ecx, DWORD PTR [eax]
  002dd	89 4d b8	 mov	 DWORD PTR tv206[ebp], ecx
  002e0	eb 21		 jmp	 SHORT $LN34@play_clien
$LN33@play_clien:
  002e2	8b 15 00 00 00
	00		 mov	 edx, DWORD PTR ?__LINE__Var@?0??play_client_server_radio_message_negative_response@@YGXPAUENTITY@@HMM@Z@4JA
  002e8	83 c2 29	 add	 edx, 41			; 00000029H
  002eb	52		 push	 edx
  002ec	68 00 00 00 00	 push	 OFFSET ??_C@_0DK@BLKECLAG@c?3?2users?2nhv90?2projects?2eech?2ap@
  002f1	a1 00 00 00 00	 mov	 eax, DWORD PTR ?null_entity_pointer_message@@3PBDB ; null_entity_pointer_message
  002f6	50		 push	 eax
  002f7	e8 00 00 00 00	 call	 ?process_assert@@YGXPBD0H@Z ; process_assert
  002fc	c7 45 b8 00 00
	00 00		 mov	 DWORD PTR tv206[ebp], 0
$LN34@play_clien:
  00303	b9 01 00 00 00	 mov	 ecx, 1
  00308	85 c9		 test	 ecx, ecx
  0030a	74 09		 je	 SHORT $LN35@play_clien
  0030c	c7 45 b4 19 00
	00 00		 mov	 DWORD PTR tv214[ebp], 25 ; 00000019H
  00313	eb 21		 jmp	 SHORT $LN36@play_clien
$LN35@play_clien:
  00315	8b 15 00 00 00
	00		 mov	 edx, DWORD PTR ?__LINE__Var@?0??play_client_server_radio_message_negative_response@@YGXPAUENTITY@@HMM@Z@4JA
  0031b	83 c2 29	 add	 edx, 41			; 00000029H
  0031e	52		 push	 edx
  0031f	68 00 00 00 00	 push	 OFFSET ??_C@_0DK@BLKECLAG@c?3?2users?2nhv90?2projects?2eech?2ap@
  00324	a1 00 00 00 00	 mov	 eax, DWORD PTR ?overload_invalid_list_type_message@@3PBDB ; overload_invalid_list_type_message
  00329	50		 push	 eax
  0032a	e8 00 00 00 00	 call	 ?process_assert@@YGXPBD0H@Z ; process_assert
  0032f	c7 45 b4 00 00
	00 00		 mov	 DWORD PTR tv214[ebp], 0
$LN36@play_clien:
  00336	6a 19		 push	 25			; 00000019H
  00338	8b 4d fc	 mov	 ecx, DWORD PTR _sender$[ebp]
  0033b	51		 push	 ecx
  0033c	69 55 b8 b4 00
	00 00		 imul	 edx, DWORD PTR tv206[ebp], 180
  00343	8b 45 b4	 mov	 eax, DWORD PTR tv214[ebp]
  00346	8b 8c 82 00 00
	00 00		 mov	 ecx, DWORD PTR ?fn_get_local_entity_child_succ@@3PAY0CN@P6GPAUENTITY@@PAU1@W4LIST_TYPES@@@ZA[edx+eax*4]
  0034d	ff d1		 call	 ecx
  0034f	89 45 fc	 mov	 DWORD PTR _sender$[ebp], eax

; 1371 : 			}

  00352	e9 f6 fe ff ff	 jmp	 $LN4@play_clien
$LN5@play_clien:

; 1372 : 
; 1373 : 			while (sender)

  00357	83 7d fc 00	 cmp	 DWORD PTR _sender$[ebp], 0
  0035b	0f 84 a8 00 00
	00		 je	 $LN7@play_clien

; 1374 : 			{
; 1375 : 				play_radio_message_negative_response (sender, speech_index, priority, expire_time);

  00361	51		 push	 ecx
  00362	f3 0f 10 45 14	 movss	 xmm0, DWORD PTR _expire_time$[ebp]
  00367	f3 0f 11 04 24	 movss	 DWORD PTR [esp], xmm0
  0036c	51		 push	 ecx
  0036d	f3 0f 10 45 10	 movss	 xmm0, DWORD PTR _priority$[ebp]
  00372	f3 0f 11 04 24	 movss	 DWORD PTR [esp], xmm0
  00377	8b 45 0c	 mov	 eax, DWORD PTR _speech_index$[ebp]
  0037a	50		 push	 eax
  0037b	8b 4d fc	 mov	 ecx, DWORD PTR _sender$[ebp]
  0037e	51		 push	 ecx
  0037f	e8 00 00 00 00	 call	 ?play_radio_message_negative_response@@YGXPAUENTITY@@HMM@Z ; play_radio_message_negative_response

; 1376 : 
; 1377 : 				sender = get_local_entity_child_pred (sender, LIST_TYPE_MEMBER);

  00384	83 7d fc 00	 cmp	 DWORD PTR _sender$[ebp], 0
  00388	74 0a		 je	 SHORT $LN37@play_clien
  0038a	8b 45 fc	 mov	 eax, DWORD PTR _sender$[ebp]
  0038d	8b 08		 mov	 ecx, DWORD PTR [eax]
  0038f	89 4d b8	 mov	 DWORD PTR tv231[ebp], ecx
  00392	eb 21		 jmp	 SHORT $LN38@play_clien
$LN37@play_clien:
  00394	8b 15 00 00 00
	00		 mov	 edx, DWORD PTR ?__LINE__Var@?0??play_client_server_radio_message_negative_response@@YGXPAUENTITY@@HMM@Z@4JA
  0039a	83 c2 30	 add	 edx, 48			; 00000030H
  0039d	52		 push	 edx
  0039e	68 00 00 00 00	 push	 OFFSET ??_C@_0DK@BLKECLAG@c?3?2users?2nhv90?2projects?2eech?2ap@
  003a3	a1 00 00 00 00	 mov	 eax, DWORD PTR ?null_entity_pointer_message@@3PBDB ; null_entity_pointer_message
  003a8	50		 push	 eax
  003a9	e8 00 00 00 00	 call	 ?process_assert@@YGXPBD0H@Z ; process_assert
  003ae	c7 45 b8 00 00
	00 00		 mov	 DWORD PTR tv231[ebp], 0
$LN38@play_clien:
  003b5	b9 01 00 00 00	 mov	 ecx, 1
  003ba	85 c9		 test	 ecx, ecx
  003bc	74 09		 je	 SHORT $LN39@play_clien
  003be	c7 45 b4 19 00
	00 00		 mov	 DWORD PTR tv239[ebp], 25 ; 00000019H
  003c5	eb 21		 jmp	 SHORT $LN40@play_clien
$LN39@play_clien:
  003c7	8b 15 00 00 00
	00		 mov	 edx, DWORD PTR ?__LINE__Var@?0??play_client_server_radio_message_negative_response@@YGXPAUENTITY@@HMM@Z@4JA
  003cd	83 c2 30	 add	 edx, 48			; 00000030H
  003d0	52		 push	 edx
  003d1	68 00 00 00 00	 push	 OFFSET ??_C@_0DK@BLKECLAG@c?3?2users?2nhv90?2projects?2eech?2ap@
  003d6	a1 00 00 00 00	 mov	 eax, DWORD PTR ?overload_invalid_list_type_message@@3PBDB ; overload_invalid_list_type_message
  003db	50		 push	 eax
  003dc	e8 00 00 00 00	 call	 ?process_assert@@YGXPBD0H@Z ; process_assert
  003e1	c7 45 b4 00 00
	00 00		 mov	 DWORD PTR tv239[ebp], 0
$LN40@play_clien:
  003e8	6a 19		 push	 25			; 00000019H
  003ea	8b 4d fc	 mov	 ecx, DWORD PTR _sender$[ebp]
  003ed	51		 push	 ecx
  003ee	69 55 b8 b4 00
	00 00		 imul	 edx, DWORD PTR tv231[ebp], 180
  003f5	8b 45 b4	 mov	 eax, DWORD PTR tv239[ebp]
  003f8	8b 8c 82 00 00
	00 00		 mov	 ecx, DWORD PTR ?fn_get_local_entity_child_pred@@3PAY0CN@P6GPAUENTITY@@PAU1@W4LIST_TYPES@@@ZA[edx+eax*4]
  003ff	ff d1		 call	 ecx
  00401	89 45 fc	 mov	 DWORD PTR _sender$[ebp], eax

; 1378 : 			}

  00404	e9 4e ff ff ff	 jmp	 $LN5@play_clien
$LN7@play_clien:

; 1379 : 
; 1380 : 			group_wingman_cycle_forwards = TRUE;

  00409	c7 05 00 00 00
	00 01 00 00 00	 mov	 DWORD PTR ?group_wingman_cycle_forwards@@3HA, 1
$LN13@play_clien:

; 1381 : 		}
; 1382 : 	}
; 1383 : 	else

  00413	eb 23		 jmp	 SHORT $LN11@play_clien
$LN10@play_clien:

; 1384 : 	{
; 1385 : 		//
; 1386 : 		// only play speech if the responder is AI controlled
; 1387 : 		//
; 1388 : 
; 1389 : 		play_radio_message_negative_response (en, speech_index, priority, expire_time);

  00415	51		 push	 ecx
  00416	f3 0f 10 45 14	 movss	 xmm0, DWORD PTR _expire_time$[ebp]
  0041b	f3 0f 11 04 24	 movss	 DWORD PTR [esp], xmm0
  00420	51		 push	 ecx
  00421	f3 0f 10 45 10	 movss	 xmm0, DWORD PTR _priority$[ebp]
  00426	f3 0f 11 04 24	 movss	 DWORD PTR [esp], xmm0
  0042b	8b 45 0c	 mov	 eax, DWORD PTR _speech_index$[ebp]
  0042e	50		 push	 eax
  0042f	8b 4d 08	 mov	 ecx, DWORD PTR _en$[ebp]
  00432	51		 push	 ecx
  00433	e8 00 00 00 00	 call	 ?play_radio_message_negative_response@@YGXPAUENTITY@@HMM@Z ; play_radio_message_negative_response
$LN11@play_clien:

; 1390 : 	}
; 1391 : }

  00438	5f		 pop	 edi
  00439	5e		 pop	 esi
  0043a	5b		 pop	 ebx
  0043b	8b e5		 mov	 esp, ebp
  0043d	5d		 pop	 ebp
  0043e	c2 10 00	 ret	 16			; 00000010H
?play_client_server_radio_message_negative_response@@YGXPAUENTITY@@HMM@Z ENDP ; play_client_server_radio_message_negative_response
_TEXT	ENDS
; Function compile flags: /Odtp /ZI
; File c:\users\nhv90\projects\eech\aphavoc\source\misc\msg_in.c
;	COMDAT ?play_radio_message_negative_response@@YGXPAUENTITY@@HMM@Z
_TEXT	SEGMENT
tv71 = -72						; size = 4
_index$ = -4						; size = 4
_en$ = 8						; size = 4
_speech_index$ = 12					; size = 4
_priority$ = 16						; size = 4
_expire_time$ = 20					; size = 4
?play_radio_message_negative_response@@YGXPAUENTITY@@HMM@Z PROC ; play_radio_message_negative_response, COMDAT

; 1303 : {

  00000	55		 push	 ebp
  00001	8b ec		 mov	 ebp, esp
  00003	83 ec 48	 sub	 esp, 72			; 00000048H
  00006	53		 push	 ebx
  00007	56		 push	 esi
  00008	57		 push	 edi

; 1304 : 	int
; 1305 : 		index;
; 1306 : 
; 1307 : 	static int
; 1308 : 		flag = FALSE;
; 1309 : 
; 1310 : 	ASSERT (get_comms_model () == COMMS_MODEL_SERVER);

  00009	83 3d 00 00 00
	00 00		 cmp	 DWORD PTR ?system_comms_model@@3W4COMMS_MODEL_TYPES@@A, 0 ; system_comms_model
  00010	74 18		 je	 SHORT $LN2@play_radio
  00012	a1 00 00 00 00	 mov	 eax, DWORD PTR ?__LINE__Var@?0??play_radio_message_negative_response@@YGXPAUENTITY@@HMM@Z@4JA
  00017	83 c0 07	 add	 eax, 7
  0001a	50		 push	 eax
  0001b	68 00 00 00 00	 push	 OFFSET ??_C@_0DK@BLKECLAG@c?3?2users?2nhv90?2projects?2eech?2ap@
  00020	68 00 00 00 00	 push	 OFFSET ??_C@_0CJ@DMBLBJBK@get_comms_model?5?$CI?$CJ?5?$DN?$DN?5COMMS_MOD@
  00025	e8 00 00 00 00	 call	 ?process_assert@@YGXPBD0H@Z ; process_assert
$LN2@play_radio:

; 1311 : 
; 1312 : 	index = speech_index;

  0002a	8b 45 0c	 mov	 eax, DWORD PTR _speech_index$[ebp]
  0002d	89 45 fc	 mov	 DWORD PTR _index$[ebp], eax

; 1313 : 
; 1314 : 	if (flag)

  00030	83 3d 00 00 00
	00 00		 cmp	 DWORD PTR ?flag@?1??play_radio_message_negative_response@@YGXPAUENTITY@@HMM@Z@4HA, 0
  00037	74 07		 je	 SHORT $LN3@play_radio

; 1315 : 	{
; 1316 : 		index = SPEECH_WINGMAN_NEGATIVE;

  00039	c7 45 fc 01 00
	00 00		 mov	 DWORD PTR _index$[ebp], 1
$LN3@play_radio:

; 1317 : 	}
; 1318 : 
; 1319 : 	flag = !flag;

  00040	83 3d 00 00 00
	00 00		 cmp	 DWORD PTR ?flag@?1??play_radio_message_negative_response@@YGXPAUENTITY@@HMM@Z@4HA, 0
  00047	75 09		 jne	 SHORT $LN5@play_radio
  00049	c7 45 b8 01 00
	00 00		 mov	 DWORD PTR tv71[ebp], 1
  00050	eb 07		 jmp	 SHORT $LN6@play_radio
$LN5@play_radio:
  00052	c7 45 b8 00 00
	00 00		 mov	 DWORD PTR tv71[ebp], 0
$LN6@play_radio:
  00059	8b 45 b8	 mov	 eax, DWORD PTR tv71[ebp]
  0005c	a3 00 00 00 00	 mov	 DWORD PTR ?flag@?1??play_radio_message_negative_response@@YGXPAUENTITY@@HMM@Z@4HA, eax

; 1320 : 
; 1321 : 	play_client_server_radio_message_response (en, index, priority, expire_time);

  00061	51		 push	 ecx
  00062	f3 0f 10 45 14	 movss	 xmm0, DWORD PTR _expire_time$[ebp]
  00067	f3 0f 11 04 24	 movss	 DWORD PTR [esp], xmm0
  0006c	51		 push	 ecx
  0006d	f3 0f 10 45 10	 movss	 xmm0, DWORD PTR _priority$[ebp]
  00072	f3 0f 11 04 24	 movss	 DWORD PTR [esp], xmm0
  00077	8b 45 fc	 mov	 eax, DWORD PTR _index$[ebp]
  0007a	50		 push	 eax
  0007b	8b 4d 08	 mov	 ecx, DWORD PTR _en$[ebp]
  0007e	51		 push	 ecx
  0007f	e8 00 00 00 00	 call	 ?play_client_server_radio_message_response@@YGXPAUENTITY@@HMM@Z ; play_client_server_radio_message_response

; 1322 : }

  00084	5f		 pop	 edi
  00085	5e		 pop	 esi
  00086	5b		 pop	 ebx
  00087	8b e5		 mov	 esp, ebp
  00089	5d		 pop	 ebp
  0008a	c2 10 00	 ret	 16			; 00000010H
?play_radio_message_negative_response@@YGXPAUENTITY@@HMM@Z ENDP ; play_radio_message_negative_response
_TEXT	ENDS
; Function compile flags: /Odtp /ZI
; File c:\users\nhv90\projects\eech\aphavoc\source\misc\msg_in.c
;	COMDAT ?play_client_server_radio_message_affirmative_response@@YGXPAUENTITY@@HMM@Z
_TEXT	SEGMENT
tv239 = -76						; size = 4
tv214 = -76						; size = 4
tv193 = -76						; size = 4
tv173 = -76						; size = 4
tv153 = -76						; size = 4
tv128 = -76						; size = 4
tv231 = -72						; size = 4
tv206 = -72						; size = 4
tv185 = -72						; size = 4
tv165 = -72						; size = 4
tv145 = -72						; size = 4
tv88 = -72						; size = 4
tv79 = -72						; size = 4
_sender$ = -4						; size = 4
_en$ = 8						; size = 4
_speech_index$ = 12					; size = 4
_priority$ = 16						; size = 4
_expire_time$ = 20					; size = 4
?play_client_server_radio_message_affirmative_response@@YGXPAUENTITY@@HMM@Z PROC ; play_client_server_radio_message_affirmative_response, COMDAT

; 1234 : {

  00000	55		 push	 ebp
  00001	8b ec		 mov	 ebp, esp
  00003	83 ec 4c	 sub	 esp, 76			; 0000004cH
  00006	53		 push	 ebx
  00007	56		 push	 esi
  00008	57		 push	 edi

; 1235 : 	entity
; 1236 : 		*sender;
; 1237 : 
; 1238 : 	ASSERT (en);

  00009	83 7d 08 00	 cmp	 DWORD PTR _en$[ebp], 0
  0000d	75 18		 jne	 SHORT $LN8@play_clien
  0000f	a1 00 00 00 00	 mov	 eax, DWORD PTR ?__LINE__Var@?0??play_client_server_radio_message_affirmative_response@@YGXPAUENTITY@@HMM@Z@4JA
  00014	83 c0 04	 add	 eax, 4
  00017	50		 push	 eax
  00018	68 00 00 00 00	 push	 OFFSET ??_C@_0DK@BLKECLAG@c?3?2users?2nhv90?2projects?2eech?2ap@
  0001d	68 00 00 00 00	 push	 OFFSET ??_C@_02LFNMGJAP@en@
  00022	e8 00 00 00 00	 call	 ?process_assert@@YGXPBD0H@Z ; process_assert
$LN8@play_clien:

; 1239 : 
; 1240 : 	ASSERT (get_comms_model () == COMMS_MODEL_SERVER);

  00027	83 3d 00 00 00
	00 00		 cmp	 DWORD PTR ?system_comms_model@@3W4COMMS_MODEL_TYPES@@A, 0 ; system_comms_model
  0002e	74 18		 je	 SHORT $LN9@play_clien
  00030	a1 00 00 00 00	 mov	 eax, DWORD PTR ?__LINE__Var@?0??play_client_server_radio_message_affirmative_response@@YGXPAUENTITY@@HMM@Z@4JA
  00035	83 c0 06	 add	 eax, 6
  00038	50		 push	 eax
  00039	68 00 00 00 00	 push	 OFFSET ??_C@_0DK@BLKECLAG@c?3?2users?2nhv90?2projects?2eech?2ap@
  0003e	68 00 00 00 00	 push	 OFFSET ??_C@_0CJ@DMBLBJBK@get_comms_model?5?$CI?$CJ?5?$DN?$DN?5COMMS_MOD@
  00043	e8 00 00 00 00	 call	 ?process_assert@@YGXPBD0H@Z ; process_assert
$LN9@play_clien:

; 1241 : 
; 1242 : 	if (get_local_entity_type (en) == ENTITY_TYPE_GROUP)

  00048	83 7d 08 00	 cmp	 DWORD PTR _en$[ebp], 0
  0004c	74 0a		 je	 SHORT $LN15@play_clien
  0004e	8b 45 08	 mov	 eax, DWORD PTR _en$[ebp]
  00051	8b 08		 mov	 ecx, DWORD PTR [eax]
  00053	89 4d b8	 mov	 DWORD PTR tv79[ebp], ecx
  00056	eb 1d		 jmp	 SHORT $LN16@play_clien
$LN15@play_clien:
  00058	68 da 04 00 00	 push	 1242			; 000004daH
  0005d	68 00 00 00 00	 push	 OFFSET ??_C@_0DK@BLKECLAG@c?3?2users?2nhv90?2projects?2eech?2ap@
  00062	8b 15 00 00 00
	00		 mov	 edx, DWORD PTR ?null_entity_pointer_message@@3PBDB ; null_entity_pointer_message
  00068	52		 push	 edx
  00069	e8 00 00 00 00	 call	 ?process_assert@@YGXPBD0H@Z ; process_assert
  0006e	c7 45 b8 00 00
	00 00		 mov	 DWORD PTR tv79[ebp], 0
$LN16@play_clien:
  00075	83 7d b8 0c	 cmp	 DWORD PTR tv79[ebp], 12	; 0000000cH
  00079	0f 85 96 03 00
	00		 jne	 $LN10@play_clien

; 1243 : 	{
; 1244 : 		//
; 1245 : 		// if the message was to the whole flight group, select a non-player member to make the response
; 1246 : 		//
; 1247 : 
; 1248 : 		if (group_wingman_cycle_forwards)

  0007f	83 3d 00 00 00
	00 00		 cmp	 DWORD PTR ?group_wingman_cycle_forwards@@3HA, 0
  00086	0f 84 41 01 00
	00		 je	 $LN12@play_clien

; 1249 : 		{
; 1250 : 			//
; 1251 : 			// forward through w/m list
; 1252 : 			//
; 1253 : 
; 1254 : 			sender = get_local_entity_first_child (en, LIST_TYPE_MEMBER);

  0008c	83 7d 08 00	 cmp	 DWORD PTR _en$[ebp], 0
  00090	74 0a		 je	 SHORT $LN17@play_clien
  00092	8b 45 08	 mov	 eax, DWORD PTR _en$[ebp]
  00095	8b 08		 mov	 ecx, DWORD PTR [eax]
  00097	89 4d b8	 mov	 DWORD PTR tv88[ebp], ecx
  0009a	eb 21		 jmp	 SHORT $LN18@play_clien
$LN17@play_clien:
  0009c	8b 15 00 00 00
	00		 mov	 edx, DWORD PTR ?__LINE__Var@?0??play_client_server_radio_message_affirmative_response@@YGXPAUENTITY@@HMM@Z@4JA
  000a2	83 c2 14	 add	 edx, 20			; 00000014H
  000a5	52		 push	 edx
  000a6	68 00 00 00 00	 push	 OFFSET ??_C@_0DK@BLKECLAG@c?3?2users?2nhv90?2projects?2eech?2ap@
  000ab	a1 00 00 00 00	 mov	 eax, DWORD PTR ?null_entity_pointer_message@@3PBDB ; null_entity_pointer_message
  000b0	50		 push	 eax
  000b1	e8 00 00 00 00	 call	 ?process_assert@@YGXPBD0H@Z ; process_assert
  000b6	c7 45 b8 00 00
	00 00		 mov	 DWORD PTR tv88[ebp], 0
$LN18@play_clien:
  000bd	b9 01 00 00 00	 mov	 ecx, 1
  000c2	85 c9		 test	 ecx, ecx
  000c4	74 09		 je	 SHORT $LN19@play_clien
  000c6	c7 45 b4 19 00
	00 00		 mov	 DWORD PTR tv128[ebp], 25 ; 00000019H
  000cd	eb 21		 jmp	 SHORT $LN20@play_clien
$LN19@play_clien:
  000cf	8b 15 00 00 00
	00		 mov	 edx, DWORD PTR ?__LINE__Var@?0??play_client_server_radio_message_affirmative_response@@YGXPAUENTITY@@HMM@Z@4JA
  000d5	83 c2 14	 add	 edx, 20			; 00000014H
  000d8	52		 push	 edx
  000d9	68 00 00 00 00	 push	 OFFSET ??_C@_0DK@BLKECLAG@c?3?2users?2nhv90?2projects?2eech?2ap@
  000de	a1 00 00 00 00	 mov	 eax, DWORD PTR ?overload_invalid_list_type_message@@3PBDB ; overload_invalid_list_type_message
  000e3	50		 push	 eax
  000e4	e8 00 00 00 00	 call	 ?process_assert@@YGXPBD0H@Z ; process_assert
  000e9	c7 45 b4 00 00
	00 00		 mov	 DWORD PTR tv128[ebp], 0
$LN20@play_clien:
  000f0	6a 19		 push	 25			; 00000019H
  000f2	8b 4d 08	 mov	 ecx, DWORD PTR _en$[ebp]
  000f5	51		 push	 ecx
  000f6	69 55 b8 b4 00
	00 00		 imul	 edx, DWORD PTR tv88[ebp], 180
  000fd	8b 45 b4	 mov	 eax, DWORD PTR tv128[ebp]
  00100	8b 8c 82 00 00
	00 00		 mov	 ecx, DWORD PTR ?fn_get_local_entity_first_child@@3PAY0CN@P6GPAUENTITY@@PAU1@W4LIST_TYPES@@@ZA[edx+eax*4]
  00107	ff d1		 call	 ecx
  00109	89 45 fc	 mov	 DWORD PTR _sender$[ebp], eax
$LN2@play_clien:

; 1255 : 
; 1256 : 			while (sender)

  0010c	83 7d fc 00	 cmp	 DWORD PTR _sender$[ebp], 0
  00110	0f 84 a8 00 00
	00		 je	 $LN3@play_clien

; 1257 : 			{
; 1258 : 				play_radio_message_affirmative_response (sender, speech_index, priority, expire_time);

  00116	51		 push	 ecx
  00117	f3 0f 10 45 14	 movss	 xmm0, DWORD PTR _expire_time$[ebp]
  0011c	f3 0f 11 04 24	 movss	 DWORD PTR [esp], xmm0
  00121	51		 push	 ecx
  00122	f3 0f 10 45 10	 movss	 xmm0, DWORD PTR _priority$[ebp]
  00127	f3 0f 11 04 24	 movss	 DWORD PTR [esp], xmm0
  0012c	8b 45 0c	 mov	 eax, DWORD PTR _speech_index$[ebp]
  0012f	50		 push	 eax
  00130	8b 4d fc	 mov	 ecx, DWORD PTR _sender$[ebp]
  00133	51		 push	 ecx
  00134	e8 00 00 00 00	 call	 ?play_radio_message_affirmative_response@@YGXPAUENTITY@@HMM@Z ; play_radio_message_affirmative_response

; 1259 : 
; 1260 : 				sender = get_local_entity_child_succ (sender, LIST_TYPE_MEMBER);

  00139	83 7d fc 00	 cmp	 DWORD PTR _sender$[ebp], 0
  0013d	74 0a		 je	 SHORT $LN21@play_clien
  0013f	8b 45 fc	 mov	 eax, DWORD PTR _sender$[ebp]
  00142	8b 08		 mov	 ecx, DWORD PTR [eax]
  00144	89 4d b8	 mov	 DWORD PTR tv145[ebp], ecx
  00147	eb 21		 jmp	 SHORT $LN22@play_clien
$LN21@play_clien:
  00149	8b 15 00 00 00
	00		 mov	 edx, DWORD PTR ?__LINE__Var@?0??play_client_server_radio_message_affirmative_response@@YGXPAUENTITY@@HMM@Z@4JA
  0014f	83 c2 1a	 add	 edx, 26			; 0000001aH
  00152	52		 push	 edx
  00153	68 00 00 00 00	 push	 OFFSET ??_C@_0DK@BLKECLAG@c?3?2users?2nhv90?2projects?2eech?2ap@
  00158	a1 00 00 00 00	 mov	 eax, DWORD PTR ?null_entity_pointer_message@@3PBDB ; null_entity_pointer_message
  0015d	50		 push	 eax
  0015e	e8 00 00 00 00	 call	 ?process_assert@@YGXPBD0H@Z ; process_assert
  00163	c7 45 b8 00 00
	00 00		 mov	 DWORD PTR tv145[ebp], 0
$LN22@play_clien:
  0016a	b9 01 00 00 00	 mov	 ecx, 1
  0016f	85 c9		 test	 ecx, ecx
  00171	74 09		 je	 SHORT $LN23@play_clien
  00173	c7 45 b4 19 00
	00 00		 mov	 DWORD PTR tv153[ebp], 25 ; 00000019H
  0017a	eb 21		 jmp	 SHORT $LN24@play_clien
$LN23@play_clien:
  0017c	8b 15 00 00 00
	00		 mov	 edx, DWORD PTR ?__LINE__Var@?0??play_client_server_radio_message_affirmative_response@@YGXPAUENTITY@@HMM@Z@4JA
  00182	83 c2 1a	 add	 edx, 26			; 0000001aH
  00185	52		 push	 edx
  00186	68 00 00 00 00	 push	 OFFSET ??_C@_0DK@BLKECLAG@c?3?2users?2nhv90?2projects?2eech?2ap@
  0018b	a1 00 00 00 00	 mov	 eax, DWORD PTR ?overload_invalid_list_type_message@@3PBDB ; overload_invalid_list_type_message
  00190	50		 push	 eax
  00191	e8 00 00 00 00	 call	 ?process_assert@@YGXPBD0H@Z ; process_assert
  00196	c7 45 b4 00 00
	00 00		 mov	 DWORD PTR tv153[ebp], 0
$LN24@play_clien:
  0019d	6a 19		 push	 25			; 00000019H
  0019f	8b 4d fc	 mov	 ecx, DWORD PTR _sender$[ebp]
  001a2	51		 push	 ecx
  001a3	69 55 b8 b4 00
	00 00		 imul	 edx, DWORD PTR tv145[ebp], 180
  001aa	8b 45 b4	 mov	 eax, DWORD PTR tv153[ebp]
  001ad	8b 8c 82 00 00
	00 00		 mov	 ecx, DWORD PTR ?fn_get_local_entity_child_succ@@3PAY0CN@P6GPAUENTITY@@PAU1@W4LIST_TYPES@@@ZA[edx+eax*4]
  001b4	ff d1		 call	 ecx
  001b6	89 45 fc	 mov	 DWORD PTR _sender$[ebp], eax

; 1261 : 			}

  001b9	e9 4e ff ff ff	 jmp	 $LN2@play_clien
$LN3@play_clien:

; 1262 : 
; 1263 : 			group_wingman_cycle_forwards = FALSE;

  001be	c7 05 00 00 00
	00 00 00 00 00	 mov	 DWORD PTR ?group_wingman_cycle_forwards@@3HA, 0

; 1264 : 		}
; 1265 : 		else

  001c8	e9 46 02 00 00	 jmp	 $LN13@play_clien
$LN12@play_clien:

; 1266 : 		{
; 1267 : 			//
; 1268 : 			// backward through w/m list
; 1269 : 			//
; 1270 : 
; 1271 : 			sender = get_local_entity_first_child (en, LIST_TYPE_MEMBER);

  001cd	83 7d 08 00	 cmp	 DWORD PTR _en$[ebp], 0
  001d1	74 0a		 je	 SHORT $LN25@play_clien
  001d3	8b 45 08	 mov	 eax, DWORD PTR _en$[ebp]
  001d6	8b 08		 mov	 ecx, DWORD PTR [eax]
  001d8	89 4d b8	 mov	 DWORD PTR tv165[ebp], ecx
  001db	eb 21		 jmp	 SHORT $LN26@play_clien
$LN25@play_clien:
  001dd	8b 15 00 00 00
	00		 mov	 edx, DWORD PTR ?__LINE__Var@?0??play_client_server_radio_message_affirmative_response@@YGXPAUENTITY@@HMM@Z@4JA
  001e3	83 c2 25	 add	 edx, 37			; 00000025H
  001e6	52		 push	 edx
  001e7	68 00 00 00 00	 push	 OFFSET ??_C@_0DK@BLKECLAG@c?3?2users?2nhv90?2projects?2eech?2ap@
  001ec	a1 00 00 00 00	 mov	 eax, DWORD PTR ?null_entity_pointer_message@@3PBDB ; null_entity_pointer_message
  001f1	50		 push	 eax
  001f2	e8 00 00 00 00	 call	 ?process_assert@@YGXPBD0H@Z ; process_assert
  001f7	c7 45 b8 00 00
	00 00		 mov	 DWORD PTR tv165[ebp], 0
$LN26@play_clien:
  001fe	b9 01 00 00 00	 mov	 ecx, 1
  00203	85 c9		 test	 ecx, ecx
  00205	74 09		 je	 SHORT $LN27@play_clien
  00207	c7 45 b4 19 00
	00 00		 mov	 DWORD PTR tv173[ebp], 25 ; 00000019H
  0020e	eb 21		 jmp	 SHORT $LN28@play_clien
$LN27@play_clien:
  00210	8b 15 00 00 00
	00		 mov	 edx, DWORD PTR ?__LINE__Var@?0??play_client_server_radio_message_affirmative_response@@YGXPAUENTITY@@HMM@Z@4JA
  00216	83 c2 25	 add	 edx, 37			; 00000025H
  00219	52		 push	 edx
  0021a	68 00 00 00 00	 push	 OFFSET ??_C@_0DK@BLKECLAG@c?3?2users?2nhv90?2projects?2eech?2ap@
  0021f	a1 00 00 00 00	 mov	 eax, DWORD PTR ?overload_invalid_list_type_message@@3PBDB ; overload_invalid_list_type_message
  00224	50		 push	 eax
  00225	e8 00 00 00 00	 call	 ?process_assert@@YGXPBD0H@Z ; process_assert
  0022a	c7 45 b4 00 00
	00 00		 mov	 DWORD PTR tv173[ebp], 0
$LN28@play_clien:
  00231	6a 19		 push	 25			; 00000019H
  00233	8b 4d 08	 mov	 ecx, DWORD PTR _en$[ebp]
  00236	51		 push	 ecx
  00237	69 55 b8 b4 00
	00 00		 imul	 edx, DWORD PTR tv165[ebp], 180
  0023e	8b 45 b4	 mov	 eax, DWORD PTR tv173[ebp]
  00241	8b 8c 82 00 00
	00 00		 mov	 ecx, DWORD PTR ?fn_get_local_entity_first_child@@3PAY0CN@P6GPAUENTITY@@PAU1@W4LIST_TYPES@@@ZA[edx+eax*4]
  00248	ff d1		 call	 ecx
  0024a	89 45 fc	 mov	 DWORD PTR _sender$[ebp], eax
$LN4@play_clien:

; 1272 : 
; 1273 : 			while (get_local_entity_child_succ (sender, LIST_TYPE_MEMBER))

  0024d	83 7d fc 00	 cmp	 DWORD PTR _sender$[ebp], 0
  00251	74 0a		 je	 SHORT $LN29@play_clien
  00253	8b 45 fc	 mov	 eax, DWORD PTR _sender$[ebp]
  00256	8b 08		 mov	 ecx, DWORD PTR [eax]
  00258	89 4d b8	 mov	 DWORD PTR tv185[ebp], ecx
  0025b	eb 21		 jmp	 SHORT $LN30@play_clien
$LN29@play_clien:
  0025d	8b 15 00 00 00
	00		 mov	 edx, DWORD PTR ?__LINE__Var@?0??play_client_server_radio_message_affirmative_response@@YGXPAUENTITY@@HMM@Z@4JA
  00263	83 c2 27	 add	 edx, 39			; 00000027H
  00266	52		 push	 edx
  00267	68 00 00 00 00	 push	 OFFSET ??_C@_0DK@BLKECLAG@c?3?2users?2nhv90?2projects?2eech?2ap@
  0026c	a1 00 00 00 00	 mov	 eax, DWORD PTR ?null_entity_pointer_message@@3PBDB ; null_entity_pointer_message
  00271	50		 push	 eax
  00272	e8 00 00 00 00	 call	 ?process_assert@@YGXPBD0H@Z ; process_assert
  00277	c7 45 b8 00 00
	00 00		 mov	 DWORD PTR tv185[ebp], 0
$LN30@play_clien:
  0027e	b9 01 00 00 00	 mov	 ecx, 1
  00283	85 c9		 test	 ecx, ecx
  00285	74 09		 je	 SHORT $LN31@play_clien
  00287	c7 45 b4 19 00
	00 00		 mov	 DWORD PTR tv193[ebp], 25 ; 00000019H
  0028e	eb 21		 jmp	 SHORT $LN32@play_clien
$LN31@play_clien:
  00290	8b 15 00 00 00
	00		 mov	 edx, DWORD PTR ?__LINE__Var@?0??play_client_server_radio_message_affirmative_response@@YGXPAUENTITY@@HMM@Z@4JA
  00296	83 c2 27	 add	 edx, 39			; 00000027H
  00299	52		 push	 edx
  0029a	68 00 00 00 00	 push	 OFFSET ??_C@_0DK@BLKECLAG@c?3?2users?2nhv90?2projects?2eech?2ap@
  0029f	a1 00 00 00 00	 mov	 eax, DWORD PTR ?overload_invalid_list_type_message@@3PBDB ; overload_invalid_list_type_message
  002a4	50		 push	 eax
  002a5	e8 00 00 00 00	 call	 ?process_assert@@YGXPBD0H@Z ; process_assert
  002aa	c7 45 b4 00 00
	00 00		 mov	 DWORD PTR tv193[ebp], 0
$LN32@play_clien:
  002b1	6a 19		 push	 25			; 00000019H
  002b3	8b 4d fc	 mov	 ecx, DWORD PTR _sender$[ebp]
  002b6	51		 push	 ecx
  002b7	69 55 b8 b4 00
	00 00		 imul	 edx, DWORD PTR tv185[ebp], 180
  002be	8b 45 b4	 mov	 eax, DWORD PTR tv193[ebp]
  002c1	8b 8c 82 00 00
	00 00		 mov	 ecx, DWORD PTR ?fn_get_local_entity_child_succ@@3PAY0CN@P6GPAUENTITY@@PAU1@W4LIST_TYPES@@@ZA[edx+eax*4]
  002c8	ff d1		 call	 ecx
  002ca	85 c0		 test	 eax, eax
  002cc	0f 84 85 00 00
	00		 je	 $LN5@play_clien

; 1274 : 			{
; 1275 : 				sender = get_local_entity_child_succ (sender, LIST_TYPE_MEMBER);

  002d2	83 7d fc 00	 cmp	 DWORD PTR _sender$[ebp], 0
  002d6	74 0a		 je	 SHORT $LN33@play_clien
  002d8	8b 45 fc	 mov	 eax, DWORD PTR _sender$[ebp]
  002db	8b 08		 mov	 ecx, DWORD PTR [eax]
  002dd	89 4d b8	 mov	 DWORD PTR tv206[ebp], ecx
  002e0	eb 21		 jmp	 SHORT $LN34@play_clien
$LN33@play_clien:
  002e2	8b 15 00 00 00
	00		 mov	 edx, DWORD PTR ?__LINE__Var@?0??play_client_server_radio_message_affirmative_response@@YGXPAUENTITY@@HMM@Z@4JA
  002e8	83 c2 29	 add	 edx, 41			; 00000029H
  002eb	52		 push	 edx
  002ec	68 00 00 00 00	 push	 OFFSET ??_C@_0DK@BLKECLAG@c?3?2users?2nhv90?2projects?2eech?2ap@
  002f1	a1 00 00 00 00	 mov	 eax, DWORD PTR ?null_entity_pointer_message@@3PBDB ; null_entity_pointer_message
  002f6	50		 push	 eax
  002f7	e8 00 00 00 00	 call	 ?process_assert@@YGXPBD0H@Z ; process_assert
  002fc	c7 45 b8 00 00
	00 00		 mov	 DWORD PTR tv206[ebp], 0
$LN34@play_clien:
  00303	b9 01 00 00 00	 mov	 ecx, 1
  00308	85 c9		 test	 ecx, ecx
  0030a	74 09		 je	 SHORT $LN35@play_clien
  0030c	c7 45 b4 19 00
	00 00		 mov	 DWORD PTR tv214[ebp], 25 ; 00000019H
  00313	eb 21		 jmp	 SHORT $LN36@play_clien
$LN35@play_clien:
  00315	8b 15 00 00 00
	00		 mov	 edx, DWORD PTR ?__LINE__Var@?0??play_client_server_radio_message_affirmative_response@@YGXPAUENTITY@@HMM@Z@4JA
  0031b	83 c2 29	 add	 edx, 41			; 00000029H
  0031e	52		 push	 edx
  0031f	68 00 00 00 00	 push	 OFFSET ??_C@_0DK@BLKECLAG@c?3?2users?2nhv90?2projects?2eech?2ap@
  00324	a1 00 00 00 00	 mov	 eax, DWORD PTR ?overload_invalid_list_type_message@@3PBDB ; overload_invalid_list_type_message
  00329	50		 push	 eax
  0032a	e8 00 00 00 00	 call	 ?process_assert@@YGXPBD0H@Z ; process_assert
  0032f	c7 45 b4 00 00
	00 00		 mov	 DWORD PTR tv214[ebp], 0
$LN36@play_clien:
  00336	6a 19		 push	 25			; 00000019H
  00338	8b 4d fc	 mov	 ecx, DWORD PTR _sender$[ebp]
  0033b	51		 push	 ecx
  0033c	69 55 b8 b4 00
	00 00		 imul	 edx, DWORD PTR tv206[ebp], 180
  00343	8b 45 b4	 mov	 eax, DWORD PTR tv214[ebp]
  00346	8b 8c 82 00 00
	00 00		 mov	 ecx, DWORD PTR ?fn_get_local_entity_child_succ@@3PAY0CN@P6GPAUENTITY@@PAU1@W4LIST_TYPES@@@ZA[edx+eax*4]
  0034d	ff d1		 call	 ecx
  0034f	89 45 fc	 mov	 DWORD PTR _sender$[ebp], eax

; 1276 : 			}

  00352	e9 f6 fe ff ff	 jmp	 $LN4@play_clien
$LN5@play_clien:

; 1277 : 
; 1278 : 			while (sender)

  00357	83 7d fc 00	 cmp	 DWORD PTR _sender$[ebp], 0
  0035b	0f 84 a8 00 00
	00		 je	 $LN7@play_clien

; 1279 : 			{
; 1280 : 				play_radio_message_affirmative_response (sender, speech_index, priority, expire_time);

  00361	51		 push	 ecx
  00362	f3 0f 10 45 14	 movss	 xmm0, DWORD PTR _expire_time$[ebp]
  00367	f3 0f 11 04 24	 movss	 DWORD PTR [esp], xmm0
  0036c	51		 push	 ecx
  0036d	f3 0f 10 45 10	 movss	 xmm0, DWORD PTR _priority$[ebp]
  00372	f3 0f 11 04 24	 movss	 DWORD PTR [esp], xmm0
  00377	8b 45 0c	 mov	 eax, DWORD PTR _speech_index$[ebp]
  0037a	50		 push	 eax
  0037b	8b 4d fc	 mov	 ecx, DWORD PTR _sender$[ebp]
  0037e	51		 push	 ecx
  0037f	e8 00 00 00 00	 call	 ?play_radio_message_affirmative_response@@YGXPAUENTITY@@HMM@Z ; play_radio_message_affirmative_response

; 1281 : 
; 1282 : 				sender = get_local_entity_child_pred (sender, LIST_TYPE_MEMBER);

  00384	83 7d fc 00	 cmp	 DWORD PTR _sender$[ebp], 0
  00388	74 0a		 je	 SHORT $LN37@play_clien
  0038a	8b 45 fc	 mov	 eax, DWORD PTR _sender$[ebp]
  0038d	8b 08		 mov	 ecx, DWORD PTR [eax]
  0038f	89 4d b8	 mov	 DWORD PTR tv231[ebp], ecx
  00392	eb 21		 jmp	 SHORT $LN38@play_clien
$LN37@play_clien:
  00394	8b 15 00 00 00
	00		 mov	 edx, DWORD PTR ?__LINE__Var@?0??play_client_server_radio_message_affirmative_response@@YGXPAUENTITY@@HMM@Z@4JA
  0039a	83 c2 30	 add	 edx, 48			; 00000030H
  0039d	52		 push	 edx
  0039e	68 00 00 00 00	 push	 OFFSET ??_C@_0DK@BLKECLAG@c?3?2users?2nhv90?2projects?2eech?2ap@
  003a3	a1 00 00 00 00	 mov	 eax, DWORD PTR ?null_entity_pointer_message@@3PBDB ; null_entity_pointer_message
  003a8	50		 push	 eax
  003a9	e8 00 00 00 00	 call	 ?process_assert@@YGXPBD0H@Z ; process_assert
  003ae	c7 45 b8 00 00
	00 00		 mov	 DWORD PTR tv231[ebp], 0
$LN38@play_clien:
  003b5	b9 01 00 00 00	 mov	 ecx, 1
  003ba	85 c9		 test	 ecx, ecx
  003bc	74 09		 je	 SHORT $LN39@play_clien
  003be	c7 45 b4 19 00
	00 00		 mov	 DWORD PTR tv239[ebp], 25 ; 00000019H
  003c5	eb 21		 jmp	 SHORT $LN40@play_clien
$LN39@play_clien:
  003c7	8b 15 00 00 00
	00		 mov	 edx, DWORD PTR ?__LINE__Var@?0??play_client_server_radio_message_affirmative_response@@YGXPAUENTITY@@HMM@Z@4JA
  003cd	83 c2 30	 add	 edx, 48			; 00000030H
  003d0	52		 push	 edx
  003d1	68 00 00 00 00	 push	 OFFSET ??_C@_0DK@BLKECLAG@c?3?2users?2nhv90?2projects?2eech?2ap@
  003d6	a1 00 00 00 00	 mov	 eax, DWORD PTR ?overload_invalid_list_type_message@@3PBDB ; overload_invalid_list_type_message
  003db	50		 push	 eax
  003dc	e8 00 00 00 00	 call	 ?process_assert@@YGXPBD0H@Z ; process_assert
  003e1	c7 45 b4 00 00
	00 00		 mov	 DWORD PTR tv239[ebp], 0
$LN40@play_clien:
  003e8	6a 19		 push	 25			; 00000019H
  003ea	8b 4d fc	 mov	 ecx, DWORD PTR _sender$[ebp]
  003ed	51		 push	 ecx
  003ee	69 55 b8 b4 00
	00 00		 imul	 edx, DWORD PTR tv231[ebp], 180
  003f5	8b 45 b4	 mov	 eax, DWORD PTR tv239[ebp]
  003f8	8b 8c 82 00 00
	00 00		 mov	 ecx, DWORD PTR ?fn_get_local_entity_child_pred@@3PAY0CN@P6GPAUENTITY@@PAU1@W4LIST_TYPES@@@ZA[edx+eax*4]
  003ff	ff d1		 call	 ecx
  00401	89 45 fc	 mov	 DWORD PTR _sender$[ebp], eax

; 1283 : 			}

  00404	e9 4e ff ff ff	 jmp	 $LN5@play_clien
$LN7@play_clien:

; 1284 : 
; 1285 : 			group_wingman_cycle_forwards = TRUE;

  00409	c7 05 00 00 00
	00 01 00 00 00	 mov	 DWORD PTR ?group_wingman_cycle_forwards@@3HA, 1
$LN13@play_clien:

; 1286 : 		}
; 1287 : 	}
; 1288 : 	else

  00413	eb 23		 jmp	 SHORT $LN11@play_clien
$LN10@play_clien:

; 1289 : 	{
; 1290 : 		//
; 1291 : 		// only play speech if the responder is AI controlled
; 1292 : 		//
; 1293 : 
; 1294 : 		play_radio_message_affirmative_response (en, speech_index, priority, expire_time);

  00415	51		 push	 ecx
  00416	f3 0f 10 45 14	 movss	 xmm0, DWORD PTR _expire_time$[ebp]
  0041b	f3 0f 11 04 24	 movss	 DWORD PTR [esp], xmm0
  00420	51		 push	 ecx
  00421	f3 0f 10 45 10	 movss	 xmm0, DWORD PTR _priority$[ebp]
  00426	f3 0f 11 04 24	 movss	 DWORD PTR [esp], xmm0
  0042b	8b 45 0c	 mov	 eax, DWORD PTR _speech_index$[ebp]
  0042e	50		 push	 eax
  0042f	8b 4d 08	 mov	 ecx, DWORD PTR _en$[ebp]
  00432	51		 push	 ecx
  00433	e8 00 00 00 00	 call	 ?play_radio_message_affirmative_response@@YGXPAUENTITY@@HMM@Z ; play_radio_message_affirmative_response
$LN11@play_clien:

; 1295 : 	}
; 1296 : }

  00438	5f		 pop	 edi
  00439	5e		 pop	 esi
  0043a	5b		 pop	 ebx
  0043b	8b e5		 mov	 esp, ebp
  0043d	5d		 pop	 ebp
  0043e	c2 10 00	 ret	 16			; 00000010H
?play_client_server_radio_message_affirmative_response@@YGXPAUENTITY@@HMM@Z ENDP ; play_client_server_radio_message_affirmative_response
_TEXT	ENDS
; Function compile flags: /Odtp /ZI
; File c:\users\nhv90\projects\eech\aphavoc\source\misc\msg_in.c
;	COMDAT ?play_radio_message_affirmative_response@@YGXPAUENTITY@@HMM@Z
_TEXT	SEGMENT
tv69 = -72						; size = 4
_index$ = -4						; size = 4
_en$ = 8						; size = 4
_speech_index$ = 12					; size = 4
_priority$ = 16						; size = 4
_expire_time$ = 20					; size = 4
?play_radio_message_affirmative_response@@YGXPAUENTITY@@HMM@Z PROC ; play_radio_message_affirmative_response, COMDAT

; 1195 : {

  00000	55		 push	 ebp
  00001	8b ec		 mov	 ebp, esp
  00003	83 ec 48	 sub	 esp, 72			; 00000048H
  00006	53		 push	 ebx
  00007	56		 push	 esi
  00008	57		 push	 edi

; 1196 : 	int
; 1197 : 		index;
; 1198 : 
; 1199 : 	static int
; 1200 : 		val = 0;
; 1201 : 
; 1202 : 	ASSERT (get_comms_model () == COMMS_MODEL_SERVER);

  00009	83 3d 00 00 00
	00 00		 cmp	 DWORD PTR ?system_comms_model@@3W4COMMS_MODEL_TYPES@@A, 0 ; system_comms_model
  00010	74 18		 je	 SHORT $LN4@play_radio
  00012	a1 00 00 00 00	 mov	 eax, DWORD PTR ?__LINE__Var@?0??play_radio_message_affirmative_response@@YGXPAUENTITY@@HMM@Z@4JA
  00017	83 c0 07	 add	 eax, 7
  0001a	50		 push	 eax
  0001b	68 00 00 00 00	 push	 OFFSET ??_C@_0DK@BLKECLAG@c?3?2users?2nhv90?2projects?2eech?2ap@
  00020	68 00 00 00 00	 push	 OFFSET ??_C@_0CJ@DMBLBJBK@get_comms_model?5?$CI?$CJ?5?$DN?$DN?5COMMS_MOD@
  00025	e8 00 00 00 00	 call	 ?process_assert@@YGXPBD0H@Z ; process_assert
$LN4@play_radio:

; 1203 : 
; 1204 : 	index = speech_index;

  0002a	8b 45 0c	 mov	 eax, DWORD PTR _speech_index$[ebp]
  0002d	89 45 fc	 mov	 DWORD PTR _index$[ebp], eax

; 1205 : 
; 1206 : 	switch (val)

  00030	a1 00 00 00 00	 mov	 eax, DWORD PTR ?val@?1??play_radio_message_affirmative_response@@YGXPAUENTITY@@HMM@Z@4HA
  00035	89 45 b8	 mov	 DWORD PTR tv69[ebp], eax
  00038	83 7d b8 01	 cmp	 DWORD PTR tv69[ebp], 1
  0003c	74 08		 je	 SHORT $LN5@play_radio
  0003e	83 7d b8 03	 cmp	 DWORD PTR tv69[ebp], 3
  00042	74 0b		 je	 SHORT $LN6@play_radio
  00044	eb 10		 jmp	 SHORT $LN2@play_radio
$LN5@play_radio:

; 1207 : 	{
; 1208 : 		case 1:
; 1209 : 		{
; 1210 : 			index = SPEECH_WINGMAN_AFFIRMATIVE;

  00046	c7 45 fc 02 00
	00 00		 mov	 DWORD PTR _index$[ebp], 2

; 1211 : 
; 1212 : 			break;

  0004d	eb 07		 jmp	 SHORT $LN2@play_radio
$LN6@play_radio:

; 1213 : 		}
; 1214 : 		case 3:
; 1215 : 		{
; 1216 : 			index = SPEECH_WINGMAN_ACKNOWLEDGE;

  0004f	c7 45 fc 2f 00
	00 00		 mov	 DWORD PTR _index$[ebp], 47 ; 0000002fH
$LN2@play_radio:

; 1217 : 
; 1218 : 			break;
; 1219 : 		}
; 1220 : 	}
; 1221 : 
; 1222 : 	val += (rand16 () & 0x03);

  00056	69 05 00 00 00
	00 6d 4e c6 41	 imul	 eax, DWORD PTR ?random_number_seed@@3HA, 1103515245 ; random_number_seed
  00060	05 39 30 00 00	 add	 eax, 12345		; 00003039H
  00065	a3 00 00 00 00	 mov	 DWORD PTR ?random_number_seed@@3HA, eax ; random_number_seed
  0006a	8b 0d 00 00 00
	00		 mov	 ecx, DWORD PTR ?random_number_seed@@3HA ; random_number_seed
  00070	c1 f9 10	 sar	 ecx, 16			; 00000010H
  00073	81 e1 ff 7f 00
	00		 and	 ecx, 32767		; 00007fffH
  00079	83 e1 03	 and	 ecx, 3
  0007c	03 0d 00 00 00
	00		 add	 ecx, DWORD PTR ?val@?1??play_radio_message_affirmative_response@@YGXPAUENTITY@@HMM@Z@4HA
  00082	89 0d 00 00 00
	00		 mov	 DWORD PTR ?val@?1??play_radio_message_affirmative_response@@YGXPAUENTITY@@HMM@Z@4HA, ecx

; 1223 : 
; 1224 : 	if (val > 3) val = 0;

  00088	83 3d 00 00 00
	00 03		 cmp	 DWORD PTR ?val@?1??play_radio_message_affirmative_response@@YGXPAUENTITY@@HMM@Z@4HA, 3
  0008f	7e 0a		 jle	 SHORT $LN7@play_radio
  00091	c7 05 00 00 00
	00 00 00 00 00	 mov	 DWORD PTR ?val@?1??play_radio_message_affirmative_response@@YGXPAUENTITY@@HMM@Z@4HA, 0
$LN7@play_radio:

; 1225 : 
; 1226 : 	play_client_server_radio_message_response (en, index, priority, expire_time);

  0009b	51		 push	 ecx
  0009c	f3 0f 10 45 14	 movss	 xmm0, DWORD PTR _expire_time$[ebp]
  000a1	f3 0f 11 04 24	 movss	 DWORD PTR [esp], xmm0
  000a6	51		 push	 ecx
  000a7	f3 0f 10 45 10	 movss	 xmm0, DWORD PTR _priority$[ebp]
  000ac	f3 0f 11 04 24	 movss	 DWORD PTR [esp], xmm0
  000b1	8b 45 fc	 mov	 eax, DWORD PTR _index$[ebp]
  000b4	50		 push	 eax
  000b5	8b 4d 08	 mov	 ecx, DWORD PTR _en$[ebp]
  000b8	51		 push	 ecx
  000b9	e8 00 00 00 00	 call	 ?play_client_server_radio_message_response@@YGXPAUENTITY@@HMM@Z ; play_client_server_radio_message_response

; 1227 : }

  000be	5f		 pop	 edi
  000bf	5e		 pop	 esi
  000c0	5b		 pop	 ebx
  000c1	8b e5		 mov	 esp, ebp
  000c3	5d		 pop	 ebp
  000c4	c2 10 00	 ret	 16			; 00000010H
?play_radio_message_affirmative_response@@YGXPAUENTITY@@HMM@Z ENDP ; play_radio_message_affirmative_response
_TEXT	ENDS
; Function compile flags: /Odtp /ZI
; File c:\users\nhv90\projects\eech\aphavoc\source\misc\msg_in.c
;	COMDAT ?set_message_objective_view_interest_level@@YGXPAUENTITY@@0W4MESSAGE_TEXT_TYPES@@@Z
_TEXT	SEGMENT
tv240 = -76						; size = 4
tv219 = -76						; size = 4
tv199 = -76						; size = 4
tv179 = -76						; size = 4
tv158 = -76						; size = 4
tv131 = -76						; size = 4
tv79 = -76						; size = 4
tv232 = -72						; size = 4
tv211 = -72						; size = 4
tv191 = -72						; size = 4
tv171 = -72						; size = 4
tv150 = -72						; size = 4
tv142 = -72						; size = 4
tv91 = -72						; size = 4
tv71 = -72						; size = 4
tv64 = -72						; size = 4
_en$ = -4						; size = 4
_sender$ = 8						; size = 4
_target$ = 12						; size = 4
_type$ = 16						; size = 4
?set_message_objective_view_interest_level@@YGXPAUENTITY@@0W4MESSAGE_TEXT_TYPES@@@Z PROC ; set_message_objective_view_interest_level, COMDAT

; 799  : {

  00000	55		 push	 ebp
  00001	8b ec		 mov	 ebp, esp
  00003	83 ec 4c	 sub	 esp, 76			; 0000004cH
  00006	53		 push	 ebx
  00007	56		 push	 esi
  00008	57		 push	 edi

; 800  : 	entity
; 801  : 		*en;
; 802  : 
; 803  : 	switch (type)

  00009	8b 45 10	 mov	 eax, DWORD PTR _type$[ebp]
  0000c	89 45 b8	 mov	 DWORD PTR tv64[ebp], eax
  0000f	83 7d b8 01	 cmp	 DWORD PTR tv64[ebp], 1
  00013	74 19		 je	 SHORT $LN4@set_messag
  00015	83 7d b8 02	 cmp	 DWORD PTR tv64[ebp], 2
  00019	0f 84 30 01 00
	00		 je	 $LN5@set_messag
  0001f	83 7d b8 04	 cmp	 DWORD PTR tv64[ebp], 4
  00023	0f 84 05 03 00
	00		 je	 $LN8@set_messag
  00029	e9 15 04 00 00	 jmp	 $LN2@set_messag
$LN4@set_messag:

; 804  : 	{
; 805  : 		case MESSAGE_TEXT_SYSTEM_ENTITY_KILLED:
; 806  : 		{
; 807  : 			//
; 808  : 			// Show victim + aggressor
; 809  : 			//
; 810  : 
; 811  : 			set_local_entity_float_value (sender, FLOAT_TYPE_VIEW_INTEREST_LEVEL, DEFAULT_VIEW_INTEREST_LEVEL);

  0002e	83 7d 08 00	 cmp	 DWORD PTR _sender$[ebp], 0
  00032	74 0a		 je	 SHORT $LN12@set_messag
  00034	8b 45 08	 mov	 eax, DWORD PTR _sender$[ebp]
  00037	8b 08		 mov	 ecx, DWORD PTR [eax]
  00039	89 4d b8	 mov	 DWORD PTR tv71[ebp], ecx
  0003c	eb 21		 jmp	 SHORT $LN13@set_messag
$LN12@set_messag:
  0003e	8b 15 00 00 00
	00		 mov	 edx, DWORD PTR ?__LINE__Var@?0??set_message_objective_view_interest_level@@YGXPAUENTITY@@0W4MESSAGE_TEXT_TYPES@@@Z@4JA
  00044	83 c2 0c	 add	 edx, 12			; 0000000cH
  00047	52		 push	 edx
  00048	68 00 00 00 00	 push	 OFFSET ??_C@_0DK@BLKECLAG@c?3?2users?2nhv90?2projects?2eech?2ap@
  0004d	a1 00 00 00 00	 mov	 eax, DWORD PTR ?null_entity_pointer_message@@3PBDB ; null_entity_pointer_message
  00052	50		 push	 eax
  00053	e8 00 00 00 00	 call	 ?process_assert@@YGXPBD0H@Z ; process_assert
  00058	c7 45 b8 00 00
	00 00		 mov	 DWORD PTR tv71[ebp], 0
$LN13@set_messag:
  0005f	b9 01 00 00 00	 mov	 ecx, 1
  00064	85 c9		 test	 ecx, ecx
  00066	74 09		 je	 SHORT $LN14@set_messag
  00068	c7 45 b4 95 00
	00 00		 mov	 DWORD PTR tv79[ebp], 149 ; 00000095H
  0006f	eb 21		 jmp	 SHORT $LN15@set_messag
$LN14@set_messag:
  00071	8b 15 00 00 00
	00		 mov	 edx, DWORD PTR ?__LINE__Var@?0??set_message_objective_view_interest_level@@YGXPAUENTITY@@0W4MESSAGE_TEXT_TYPES@@@Z@4JA
  00077	83 c2 0c	 add	 edx, 12			; 0000000cH
  0007a	52		 push	 edx
  0007b	68 00 00 00 00	 push	 OFFSET ??_C@_0DK@BLKECLAG@c?3?2users?2nhv90?2projects?2eech?2ap@
  00080	a1 00 00 00 00	 mov	 eax, DWORD PTR ?overload_invalid_float_type_message@@3PBDB ; overload_invalid_float_type_message
  00085	50		 push	 eax
  00086	e8 00 00 00 00	 call	 ?process_assert@@YGXPBD0H@Z ; process_assert
  0008b	c7 45 b4 00 00
	00 00		 mov	 DWORD PTR tv79[ebp], 0
$LN15@set_messag:
  00092	51		 push	 ecx
  00093	f3 0f 10 05 00
	00 00 00	 movss	 xmm0, DWORD PTR __real@40a00000
  0009b	f3 0f 11 04 24	 movss	 DWORD PTR [esp], xmm0
  000a0	68 95 00 00 00	 push	 149			; 00000095H
  000a5	8b 4d 08	 mov	 ecx, DWORD PTR _sender$[ebp]
  000a8	51		 push	 ecx
  000a9	69 55 b8 bc 02
	00 00		 imul	 edx, DWORD PTR tv71[ebp], 700
  000b0	8b 45 b4	 mov	 eax, DWORD PTR tv79[ebp]
  000b3	8b 8c 82 00 00
	00 00		 mov	 ecx, DWORD PTR ?fn_set_local_entity_float_value@@3PAY0KP@P6GXPAUENTITY@@W4FLOAT_TYPES@@M@ZA[edx+eax*4]
  000ba	ff d1		 call	 ecx

; 812  : 			set_local_entity_float_value (target, FLOAT_TYPE_VIEW_INTEREST_LEVEL, DEFAULT_VIEW_INTEREST_LEVEL);

  000bc	83 7d 0c 00	 cmp	 DWORD PTR _target$[ebp], 0
  000c0	74 0a		 je	 SHORT $LN16@set_messag
  000c2	8b 45 0c	 mov	 eax, DWORD PTR _target$[ebp]
  000c5	8b 08		 mov	 ecx, DWORD PTR [eax]
  000c7	89 4d b8	 mov	 DWORD PTR tv91[ebp], ecx
  000ca	eb 21		 jmp	 SHORT $LN17@set_messag
$LN16@set_messag:
  000cc	8b 15 00 00 00
	00		 mov	 edx, DWORD PTR ?__LINE__Var@?0??set_message_objective_view_interest_level@@YGXPAUENTITY@@0W4MESSAGE_TEXT_TYPES@@@Z@4JA
  000d2	83 c2 0d	 add	 edx, 13			; 0000000dH
  000d5	52		 push	 edx
  000d6	68 00 00 00 00	 push	 OFFSET ??_C@_0DK@BLKECLAG@c?3?2users?2nhv90?2projects?2eech?2ap@
  000db	a1 00 00 00 00	 mov	 eax, DWORD PTR ?null_entity_pointer_message@@3PBDB ; null_entity_pointer_message
  000e0	50		 push	 eax
  000e1	e8 00 00 00 00	 call	 ?process_assert@@YGXPBD0H@Z ; process_assert
  000e6	c7 45 b8 00 00
	00 00		 mov	 DWORD PTR tv91[ebp], 0
$LN17@set_messag:
  000ed	b9 01 00 00 00	 mov	 ecx, 1
  000f2	85 c9		 test	 ecx, ecx
  000f4	74 09		 je	 SHORT $LN18@set_messag
  000f6	c7 45 b4 95 00
	00 00		 mov	 DWORD PTR tv131[ebp], 149 ; 00000095H
  000fd	eb 21		 jmp	 SHORT $LN19@set_messag
$LN18@set_messag:
  000ff	8b 15 00 00 00
	00		 mov	 edx, DWORD PTR ?__LINE__Var@?0??set_message_objective_view_interest_level@@YGXPAUENTITY@@0W4MESSAGE_TEXT_TYPES@@@Z@4JA
  00105	83 c2 0d	 add	 edx, 13			; 0000000dH
  00108	52		 push	 edx
  00109	68 00 00 00 00	 push	 OFFSET ??_C@_0DK@BLKECLAG@c?3?2users?2nhv90?2projects?2eech?2ap@
  0010e	a1 00 00 00 00	 mov	 eax, DWORD PTR ?overload_invalid_float_type_message@@3PBDB ; overload_invalid_float_type_message
  00113	50		 push	 eax
  00114	e8 00 00 00 00	 call	 ?process_assert@@YGXPBD0H@Z ; process_assert
  00119	c7 45 b4 00 00
	00 00		 mov	 DWORD PTR tv131[ebp], 0
$LN19@set_messag:
  00120	51		 push	 ecx
  00121	f3 0f 10 05 00
	00 00 00	 movss	 xmm0, DWORD PTR __real@40a00000
  00129	f3 0f 11 04 24	 movss	 DWORD PTR [esp], xmm0
  0012e	68 95 00 00 00	 push	 149			; 00000095H
  00133	8b 4d 0c	 mov	 ecx, DWORD PTR _target$[ebp]
  00136	51		 push	 ecx
  00137	69 55 b8 bc 02
	00 00		 imul	 edx, DWORD PTR tv91[ebp], 700
  0013e	8b 45 b4	 mov	 eax, DWORD PTR tv131[ebp]
  00141	8b 8c 82 00 00
	00 00		 mov	 ecx, DWORD PTR ?fn_set_local_entity_float_value@@3PAY0KP@P6GXPAUENTITY@@W4FLOAT_TYPES@@M@ZA[edx+eax*4]
  00148	ff d1		 call	 ecx

; 813  : 
; 814  : 			break;

  0014a	e9 f4 02 00 00	 jmp	 $LN2@set_messag
$LN5@set_messag:

; 815  : 		}
; 816  : 		case MESSAGE_TEXT_SYSTEM_ENTITY_UNDER_ATTACK:
; 817  : 		{
; 818  : 			//
; 819  : 			// Show victim (target is a group) + aggressor
; 820  : 			//
; 821  : 
; 822  : 			if (get_local_entity_type (target) == ENTITY_TYPE_GROUP)

  0014f	83 7d 0c 00	 cmp	 DWORD PTR _target$[ebp], 0
  00153	74 0a		 je	 SHORT $LN20@set_messag
  00155	8b 45 0c	 mov	 eax, DWORD PTR _target$[ebp]
  00158	8b 08		 mov	 ecx, DWORD PTR [eax]
  0015a	89 4d b8	 mov	 DWORD PTR tv142[ebp], ecx
  0015d	eb 1d		 jmp	 SHORT $LN21@set_messag
$LN20@set_messag:
  0015f	68 36 03 00 00	 push	 822			; 00000336H
  00164	68 00 00 00 00	 push	 OFFSET ??_C@_0DK@BLKECLAG@c?3?2users?2nhv90?2projects?2eech?2ap@
  00169	8b 15 00 00 00
	00		 mov	 edx, DWORD PTR ?null_entity_pointer_message@@3PBDB ; null_entity_pointer_message
  0016f	52		 push	 edx
  00170	e8 00 00 00 00	 call	 ?process_assert@@YGXPBD0H@Z ; process_assert
  00175	c7 45 b8 00 00
	00 00		 mov	 DWORD PTR tv142[ebp], 0
$LN21@set_messag:
  0017c	83 7d b8 0c	 cmp	 DWORD PTR tv142[ebp], 12 ; 0000000cH
  00180	0f 85 15 01 00
	00		 jne	 $LN7@set_messag

; 823  : 			{
; 824  : 				en = (entity *) get_local_entity_ptr_value (target, PTR_TYPE_GROUP_LEADER);

  00186	83 7d 0c 00	 cmp	 DWORD PTR _target$[ebp], 0
  0018a	74 0a		 je	 SHORT $LN22@set_messag
  0018c	8b 45 0c	 mov	 eax, DWORD PTR _target$[ebp]
  0018f	8b 08		 mov	 ecx, DWORD PTR [eax]
  00191	89 4d b8	 mov	 DWORD PTR tv150[ebp], ecx
  00194	eb 21		 jmp	 SHORT $LN23@set_messag
$LN22@set_messag:
  00196	8b 15 00 00 00
	00		 mov	 edx, DWORD PTR ?__LINE__Var@?0??set_message_objective_view_interest_level@@YGXPAUENTITY@@0W4MESSAGE_TEXT_TYPES@@@Z@4JA
  0019c	83 c2 19	 add	 edx, 25			; 00000019H
  0019f	52		 push	 edx
  001a0	68 00 00 00 00	 push	 OFFSET ??_C@_0DK@BLKECLAG@c?3?2users?2nhv90?2projects?2eech?2ap@
  001a5	a1 00 00 00 00	 mov	 eax, DWORD PTR ?null_entity_pointer_message@@3PBDB ; null_entity_pointer_message
  001aa	50		 push	 eax
  001ab	e8 00 00 00 00	 call	 ?process_assert@@YGXPBD0H@Z ; process_assert
  001b0	c7 45 b8 00 00
	00 00		 mov	 DWORD PTR tv150[ebp], 0
$LN23@set_messag:
  001b7	b9 01 00 00 00	 mov	 ecx, 1
  001bc	85 c9		 test	 ecx, ecx
  001be	74 09		 je	 SHORT $LN24@set_messag
  001c0	c7 45 b4 01 00
	00 00		 mov	 DWORD PTR tv158[ebp], 1
  001c7	eb 21		 jmp	 SHORT $LN25@set_messag
$LN24@set_messag:
  001c9	8b 15 00 00 00
	00		 mov	 edx, DWORD PTR ?__LINE__Var@?0??set_message_objective_view_interest_level@@YGXPAUENTITY@@0W4MESSAGE_TEXT_TYPES@@@Z@4JA
  001cf	83 c2 19	 add	 edx, 25			; 00000019H
  001d2	52		 push	 edx
  001d3	68 00 00 00 00	 push	 OFFSET ??_C@_0DK@BLKECLAG@c?3?2users?2nhv90?2projects?2eech?2ap@
  001d8	a1 00 00 00 00	 mov	 eax, DWORD PTR ?overload_invalid_ptr_type_message@@3PBDB ; overload_invalid_ptr_type_message
  001dd	50		 push	 eax
  001de	e8 00 00 00 00	 call	 ?process_assert@@YGXPBD0H@Z ; process_assert
  001e3	c7 45 b4 00 00
	00 00		 mov	 DWORD PTR tv158[ebp], 0
$LN25@set_messag:
  001ea	6a 01		 push	 1
  001ec	8b 4d 0c	 mov	 ecx, DWORD PTR _target$[ebp]
  001ef	51		 push	 ecx
  001f0	6b 55 b8 50	 imul	 edx, DWORD PTR tv150[ebp], 80
  001f4	8b 45 b4	 mov	 eax, DWORD PTR tv158[ebp]
  001f7	8b 8c 82 00 00
	00 00		 mov	 ecx, DWORD PTR ?fn_get_local_entity_ptr_value@@3PAY0BE@P6GPAXPAUENTITY@@W4PTR_TYPES@@@ZA[edx+eax*4]
  001fe	ff d1		 call	 ecx
  00200	89 45 fc	 mov	 DWORD PTR _en$[ebp], eax

; 825  : 
; 826  : 				if (en)

  00203	83 7d fc 00	 cmp	 DWORD PTR _en$[ebp], 0
  00207	0f 84 8e 00 00
	00		 je	 $LN7@set_messag

; 827  : 				{
; 828  : 					set_local_entity_float_value (en, FLOAT_TYPE_VIEW_INTEREST_LEVEL, DEFAULT_VIEW_INTEREST_LEVEL);

  0020d	83 7d fc 00	 cmp	 DWORD PTR _en$[ebp], 0
  00211	74 0a		 je	 SHORT $LN26@set_messag
  00213	8b 45 fc	 mov	 eax, DWORD PTR _en$[ebp]
  00216	8b 08		 mov	 ecx, DWORD PTR [eax]
  00218	89 4d b8	 mov	 DWORD PTR tv171[ebp], ecx
  0021b	eb 21		 jmp	 SHORT $LN27@set_messag
$LN26@set_messag:
  0021d	8b 15 00 00 00
	00		 mov	 edx, DWORD PTR ?__LINE__Var@?0??set_message_objective_view_interest_level@@YGXPAUENTITY@@0W4MESSAGE_TEXT_TYPES@@@Z@4JA
  00223	83 c2 1d	 add	 edx, 29			; 0000001dH
  00226	52		 push	 edx
  00227	68 00 00 00 00	 push	 OFFSET ??_C@_0DK@BLKECLAG@c?3?2users?2nhv90?2projects?2eech?2ap@
  0022c	a1 00 00 00 00	 mov	 eax, DWORD PTR ?null_entity_pointer_message@@3PBDB ; null_entity_pointer_message
  00231	50		 push	 eax
  00232	e8 00 00 00 00	 call	 ?process_assert@@YGXPBD0H@Z ; process_assert
  00237	c7 45 b8 00 00
	00 00		 mov	 DWORD PTR tv171[ebp], 0
$LN27@set_messag:
  0023e	b9 01 00 00 00	 mov	 ecx, 1
  00243	85 c9		 test	 ecx, ecx
  00245	74 09		 je	 SHORT $LN28@set_messag
  00247	c7 45 b4 95 00
	00 00		 mov	 DWORD PTR tv179[ebp], 149 ; 00000095H
  0024e	eb 21		 jmp	 SHORT $LN29@set_messag
$LN28@set_messag:
  00250	8b 15 00 00 00
	00		 mov	 edx, DWORD PTR ?__LINE__Var@?0??set_message_objective_view_interest_level@@YGXPAUENTITY@@0W4MESSAGE_TEXT_TYPES@@@Z@4JA
  00256	83 c2 1d	 add	 edx, 29			; 0000001dH
  00259	52		 push	 edx
  0025a	68 00 00 00 00	 push	 OFFSET ??_C@_0DK@BLKECLAG@c?3?2users?2nhv90?2projects?2eech?2ap@
  0025f	a1 00 00 00 00	 mov	 eax, DWORD PTR ?overload_invalid_float_type_message@@3PBDB ; overload_invalid_float_type_message
  00264	50		 push	 eax
  00265	e8 00 00 00 00	 call	 ?process_assert@@YGXPBD0H@Z ; process_assert
  0026a	c7 45 b4 00 00
	00 00		 mov	 DWORD PTR tv179[ebp], 0
$LN29@set_messag:
  00271	51		 push	 ecx
  00272	f3 0f 10 05 00
	00 00 00	 movss	 xmm0, DWORD PTR __real@40a00000
  0027a	f3 0f 11 04 24	 movss	 DWORD PTR [esp], xmm0
  0027f	68 95 00 00 00	 push	 149			; 00000095H
  00284	8b 4d fc	 mov	 ecx, DWORD PTR _en$[ebp]
  00287	51		 push	 ecx
  00288	69 55 b8 bc 02
	00 00		 imul	 edx, DWORD PTR tv171[ebp], 700
  0028f	8b 45 b4	 mov	 eax, DWORD PTR tv179[ebp]
  00292	8b 8c 82 00 00
	00 00		 mov	 ecx, DWORD PTR ?fn_set_local_entity_float_value@@3PAY0KP@P6GXPAUENTITY@@W4FLOAT_TYPES@@M@ZA[edx+eax*4]
  00299	ff d1		 call	 ecx
$LN7@set_messag:

; 829  : 				}
; 830  : 			}
; 831  : 
; 832  : 			set_local_entity_float_value (sender, FLOAT_TYPE_VIEW_INTEREST_LEVEL, DEFAULT_VIEW_INTEREST_LEVEL);

  0029b	83 7d 08 00	 cmp	 DWORD PTR _sender$[ebp], 0
  0029f	74 0a		 je	 SHORT $LN30@set_messag
  002a1	8b 45 08	 mov	 eax, DWORD PTR _sender$[ebp]
  002a4	8b 08		 mov	 ecx, DWORD PTR [eax]
  002a6	89 4d b8	 mov	 DWORD PTR tv191[ebp], ecx
  002a9	eb 21		 jmp	 SHORT $LN31@set_messag
$LN30@set_messag:
  002ab	8b 15 00 00 00
	00		 mov	 edx, DWORD PTR ?__LINE__Var@?0??set_message_objective_view_interest_level@@YGXPAUENTITY@@0W4MESSAGE_TEXT_TYPES@@@Z@4JA
  002b1	83 c2 21	 add	 edx, 33			; 00000021H
  002b4	52		 push	 edx
  002b5	68 00 00 00 00	 push	 OFFSET ??_C@_0DK@BLKECLAG@c?3?2users?2nhv90?2projects?2eech?2ap@
  002ba	a1 00 00 00 00	 mov	 eax, DWORD PTR ?null_entity_pointer_message@@3PBDB ; null_entity_pointer_message
  002bf	50		 push	 eax
  002c0	e8 00 00 00 00	 call	 ?process_assert@@YGXPBD0H@Z ; process_assert
  002c5	c7 45 b8 00 00
	00 00		 mov	 DWORD PTR tv191[ebp], 0
$LN31@set_messag:
  002cc	b9 01 00 00 00	 mov	 ecx, 1
  002d1	85 c9		 test	 ecx, ecx
  002d3	74 09		 je	 SHORT $LN32@set_messag
  002d5	c7 45 b4 95 00
	00 00		 mov	 DWORD PTR tv199[ebp], 149 ; 00000095H
  002dc	eb 21		 jmp	 SHORT $LN33@set_messag
$LN32@set_messag:
  002de	8b 15 00 00 00
	00		 mov	 edx, DWORD PTR ?__LINE__Var@?0??set_message_objective_view_interest_level@@YGXPAUENTITY@@0W4MESSAGE_TEXT_TYPES@@@Z@4JA
  002e4	83 c2 21	 add	 edx, 33			; 00000021H
  002e7	52		 push	 edx
  002e8	68 00 00 00 00	 push	 OFFSET ??_C@_0DK@BLKECLAG@c?3?2users?2nhv90?2projects?2eech?2ap@
  002ed	a1 00 00 00 00	 mov	 eax, DWORD PTR ?overload_invalid_float_type_message@@3PBDB ; overload_invalid_float_type_message
  002f2	50		 push	 eax
  002f3	e8 00 00 00 00	 call	 ?process_assert@@YGXPBD0H@Z ; process_assert
  002f8	c7 45 b4 00 00
	00 00		 mov	 DWORD PTR tv199[ebp], 0
$LN33@set_messag:
  002ff	51		 push	 ecx
  00300	f3 0f 10 05 00
	00 00 00	 movss	 xmm0, DWORD PTR __real@40a00000
  00308	f3 0f 11 04 24	 movss	 DWORD PTR [esp], xmm0
  0030d	68 95 00 00 00	 push	 149			; 00000095H
  00312	8b 4d 08	 mov	 ecx, DWORD PTR _sender$[ebp]
  00315	51		 push	 ecx
  00316	69 55 b8 bc 02
	00 00		 imul	 edx, DWORD PTR tv191[ebp], 700
  0031d	8b 45 b4	 mov	 eax, DWORD PTR tv199[ebp]
  00320	8b 8c 82 00 00
	00 00		 mov	 ecx, DWORD PTR ?fn_set_local_entity_float_value@@3PAY0KP@P6GXPAUENTITY@@W4FLOAT_TYPES@@M@ZA[edx+eax*4]
  00327	ff d1		 call	 ecx

; 833  : 
; 834  : 			break;

  00329	e9 15 01 00 00	 jmp	 $LN2@set_messag
$LN8@set_messag:

; 835  : 		}
; 836  : 
; 837  : 		case MESSAGE_TEXT_SYSTEM_TASK_COMPLETED:
; 838  : 		{
; 839  : 			//
; 840  : 			// Show group leader (sender is a group)
; 841  : 			//
; 842  : 
; 843  : 			en = (entity *) get_local_entity_ptr_value (sender, PTR_TYPE_GROUP_LEADER);

  0032e	83 7d 08 00	 cmp	 DWORD PTR _sender$[ebp], 0
  00332	74 0a		 je	 SHORT $LN34@set_messag
  00334	8b 45 08	 mov	 eax, DWORD PTR _sender$[ebp]
  00337	8b 08		 mov	 ecx, DWORD PTR [eax]
  00339	89 4d b8	 mov	 DWORD PTR tv211[ebp], ecx
  0033c	eb 21		 jmp	 SHORT $LN35@set_messag
$LN34@set_messag:
  0033e	8b 15 00 00 00
	00		 mov	 edx, DWORD PTR ?__LINE__Var@?0??set_message_objective_view_interest_level@@YGXPAUENTITY@@0W4MESSAGE_TEXT_TYPES@@@Z@4JA
  00344	83 c2 2c	 add	 edx, 44			; 0000002cH
  00347	52		 push	 edx
  00348	68 00 00 00 00	 push	 OFFSET ??_C@_0DK@BLKECLAG@c?3?2users?2nhv90?2projects?2eech?2ap@
  0034d	a1 00 00 00 00	 mov	 eax, DWORD PTR ?null_entity_pointer_message@@3PBDB ; null_entity_pointer_message
  00352	50		 push	 eax
  00353	e8 00 00 00 00	 call	 ?process_assert@@YGXPBD0H@Z ; process_assert
  00358	c7 45 b8 00 00
	00 00		 mov	 DWORD PTR tv211[ebp], 0
$LN35@set_messag:
  0035f	b9 01 00 00 00	 mov	 ecx, 1
  00364	85 c9		 test	 ecx, ecx
  00366	74 09		 je	 SHORT $LN36@set_messag
  00368	c7 45 b4 01 00
	00 00		 mov	 DWORD PTR tv219[ebp], 1
  0036f	eb 21		 jmp	 SHORT $LN37@set_messag
$LN36@set_messag:
  00371	8b 15 00 00 00
	00		 mov	 edx, DWORD PTR ?__LINE__Var@?0??set_message_objective_view_interest_level@@YGXPAUENTITY@@0W4MESSAGE_TEXT_TYPES@@@Z@4JA
  00377	83 c2 2c	 add	 edx, 44			; 0000002cH
  0037a	52		 push	 edx
  0037b	68 00 00 00 00	 push	 OFFSET ??_C@_0DK@BLKECLAG@c?3?2users?2nhv90?2projects?2eech?2ap@
  00380	a1 00 00 00 00	 mov	 eax, DWORD PTR ?overload_invalid_ptr_type_message@@3PBDB ; overload_invalid_ptr_type_message
  00385	50		 push	 eax
  00386	e8 00 00 00 00	 call	 ?process_assert@@YGXPBD0H@Z ; process_assert
  0038b	c7 45 b4 00 00
	00 00		 mov	 DWORD PTR tv219[ebp], 0
$LN37@set_messag:
  00392	6a 01		 push	 1
  00394	8b 4d 08	 mov	 ecx, DWORD PTR _sender$[ebp]
  00397	51		 push	 ecx
  00398	6b 55 b8 50	 imul	 edx, DWORD PTR tv211[ebp], 80
  0039c	8b 45 b4	 mov	 eax, DWORD PTR tv219[ebp]
  0039f	8b 8c 82 00 00
	00 00		 mov	 ecx, DWORD PTR ?fn_get_local_entity_ptr_value@@3PAY0BE@P6GPAXPAUENTITY@@W4PTR_TYPES@@@ZA[edx+eax*4]
  003a6	ff d1		 call	 ecx
  003a8	89 45 fc	 mov	 DWORD PTR _en$[ebp], eax

; 844  : 
; 845  : 			if (en)

  003ab	83 7d fc 00	 cmp	 DWORD PTR _en$[ebp], 0
  003af	0f 84 8e 00 00
	00		 je	 $LN9@set_messag

; 846  : 			{
; 847  : 				set_local_entity_float_value (en, FLOAT_TYPE_VIEW_INTEREST_LEVEL, DEFAULT_VIEW_INTEREST_LEVEL);

  003b5	83 7d fc 00	 cmp	 DWORD PTR _en$[ebp], 0
  003b9	74 0a		 je	 SHORT $LN38@set_messag
  003bb	8b 45 fc	 mov	 eax, DWORD PTR _en$[ebp]
  003be	8b 08		 mov	 ecx, DWORD PTR [eax]
  003c0	89 4d b8	 mov	 DWORD PTR tv232[ebp], ecx
  003c3	eb 21		 jmp	 SHORT $LN39@set_messag
$LN38@set_messag:
  003c5	8b 15 00 00 00
	00		 mov	 edx, DWORD PTR ?__LINE__Var@?0??set_message_objective_view_interest_level@@YGXPAUENTITY@@0W4MESSAGE_TEXT_TYPES@@@Z@4JA
  003cb	83 c2 30	 add	 edx, 48			; 00000030H
  003ce	52		 push	 edx
  003cf	68 00 00 00 00	 push	 OFFSET ??_C@_0DK@BLKECLAG@c?3?2users?2nhv90?2projects?2eech?2ap@
  003d4	a1 00 00 00 00	 mov	 eax, DWORD PTR ?null_entity_pointer_message@@3PBDB ; null_entity_pointer_message
  003d9	50		 push	 eax
  003da	e8 00 00 00 00	 call	 ?process_assert@@YGXPBD0H@Z ; process_assert
  003df	c7 45 b8 00 00
	00 00		 mov	 DWORD PTR tv232[ebp], 0
$LN39@set_messag:
  003e6	b9 01 00 00 00	 mov	 ecx, 1
  003eb	85 c9		 test	 ecx, ecx
  003ed	74 09		 je	 SHORT $LN40@set_messag
  003ef	c7 45 b4 95 00
	00 00		 mov	 DWORD PTR tv240[ebp], 149 ; 00000095H
  003f6	eb 21		 jmp	 SHORT $LN41@set_messag
$LN40@set_messag:
  003f8	8b 15 00 00 00
	00		 mov	 edx, DWORD PTR ?__LINE__Var@?0??set_message_objective_view_interest_level@@YGXPAUENTITY@@0W4MESSAGE_TEXT_TYPES@@@Z@4JA
  003fe	83 c2 30	 add	 edx, 48			; 00000030H
  00401	52		 push	 edx
  00402	68 00 00 00 00	 push	 OFFSET ??_C@_0DK@BLKECLAG@c?3?2users?2nhv90?2projects?2eech?2ap@
  00407	a1 00 00 00 00	 mov	 eax, DWORD PTR ?overload_invalid_float_type_message@@3PBDB ; overload_invalid_float_type_message
  0040c	50		 push	 eax
  0040d	e8 00 00 00 00	 call	 ?process_assert@@YGXPBD0H@Z ; process_assert
  00412	c7 45 b4 00 00
	00 00		 mov	 DWORD PTR tv240[ebp], 0
$LN41@set_messag:
  00419	51		 push	 ecx
  0041a	f3 0f 10 05 00
	00 00 00	 movss	 xmm0, DWORD PTR __real@40a00000
  00422	f3 0f 11 04 24	 movss	 DWORD PTR [esp], xmm0
  00427	68 95 00 00 00	 push	 149			; 00000095H
  0042c	8b 4d fc	 mov	 ecx, DWORD PTR _en$[ebp]
  0042f	51		 push	 ecx
  00430	69 55 b8 bc 02
	00 00		 imul	 edx, DWORD PTR tv232[ebp], 700
  00437	8b 45 b4	 mov	 eax, DWORD PTR tv240[ebp]
  0043a	8b 8c 82 00 00
	00 00		 mov	 ecx, DWORD PTR ?fn_set_local_entity_float_value@@3PAY0KP@P6GXPAUENTITY@@W4FLOAT_TYPES@@M@ZA[edx+eax*4]
  00441	ff d1		 call	 ecx
$LN9@set_messag:
$LN2@set_messag:

; 848  : 			}
; 849  : 
; 850  : 			break;
; 851  : 		}
; 852  : 
; 853  : 		case MESSAGE_TEXT_SYSTEM_KEYSITE_CAPTURED:
; 854  : 		case MESSAGE_TEXT_SYSTEM_KEYSITE_DESTROYED:
; 855  : 		{
; 856  : 			break;
; 857  : 		}
; 858  : 	}
; 859  : }

  00443	5f		 pop	 edi
  00444	5e		 pop	 esi
  00445	5b		 pop	 ebx
  00446	8b e5		 mov	 esp, ebp
  00448	5d		 pop	 ebp
  00449	c2 0c 00	 ret	 12			; 0000000cH
?set_message_objective_view_interest_level@@YGXPAUENTITY@@0W4MESSAGE_TEXT_TYPES@@@Z ENDP ; set_message_objective_view_interest_level
_TEXT	ENDS
; Function compile flags: /Odtp /ZI
; File c:\users\nhv90\projects\eech\aphavoc\source\misc\msg_in.c
;	COMDAT ?format_incoming_message@@YGPAUENTITY@@PAUMESSAGE_LOG_TYPE@@PAU1@1PAD@Z
_TEXT	SEGMENT
tv1061 = -812						; size = 4
tv724 = -812						; size = 4
tv1053 = -808						; size = 4
tv716 = -808						; size = 4
tv1214 = -804						; size = 4
tv1036 = -804						; size = 4
tv825 = -804						; size = 4
tv778 = -804						; size = 4
tv703 = -804						; size = 4
tv539 = -804						; size = 4
tv1206 = -800						; size = 4
tv1028 = -800						; size = 4
tv817 = -800						; size = 4
tv770 = -800						; size = 4
tv695 = -800						; size = 4
tv531 = -800						; size = 4
tv1339 = -796						; size = 4
tv1320 = -796						; size = 4
tv1298 = -796						; size = 4
tv1255 = -796						; size = 4
tv1236 = -796						; size = 4
tv1188 = -796						; size = 4
tv1148 = -796						; size = 4
tv1125 = -796						; size = 4
tv1105 = -796						; size = 4
tv1084 = -796						; size = 4
tv1010 = -796						; size = 4
tv964 = -796						; size = 4
tv937 = -796						; size = 4
tv917 = -796						; size = 4
tv874 = -796						; size = 4
tv847 = -796						; size = 4
tv801 = -796						; size = 4
tv754 = -796						; size = 4
tv678 = -796						; size = 4
tv651 = -796						; size = 4
tv580 = -796						; size = 4
tv561 = -796						; size = 4
tv515 = -796						; size = 4
tv382 = -796						; size = 4
tv358 = -796						; size = 4
tv338 = -796						; size = 4
tv305 = -796						; size = 4
tv276 = -796						; size = 4
tv244 = -796						; size = 4
tv224 = -796						; size = 4
tv203 = -796						; size = 4
tv182 = -796						; size = 4
tv162 = -796						; size = 4
tv128 = -796						; size = 4
tv1332 = -792						; size = 4
tv1312 = -792						; size = 4
tv1290 = -792						; size = 4
tv1248 = -792						; size = 4
tv1228 = -792						; size = 4
tv1180 = -792						; size = 4
tv1140 = -792						; size = 4
tv1117 = -792						; size = 4
tv1097 = -792						; size = 4
tv1076 = -792						; size = 4
tv1002 = -792						; size = 4
tv956 = -792						; size = 4
tv929 = -792						; size = 4
tv909 = -792						; size = 4
tv866 = -792						; size = 4
tv839 = -792						; size = 4
tv793 = -792						; size = 4
tv746 = -792						; size = 4
tv737 = -792						; size = 4
tv670 = -792						; size = 4
tv643 = -792						; size = 4
tv635 = -792						; size = 4
tv624 = -792						; size = 4
tv616 = -792						; size = 4
tv573 = -792						; size = 4
tv553 = -792						; size = 4
tv475 = -792						; size = 4
tv424 = -792						; size = 4
tv374 = -792						; size = 4
tv350 = -792						; size = 4
tv330 = -792						; size = 4
tv317 = -792						; size = 4
tv297 = -792						; size = 4
tv268 = -792						; size = 4
tv236 = -792						; size = 4
tv216 = -792						; size = 4
tv195 = -792						; size = 4
tv174 = -792						; size = 4
tv154 = -792						; size = 4
tv136 = -792						; size = 4
tv135 = -792						; size = 4
tv88 = -792						; size = 4
_division$1 = -660					; size = 4
_damage$2 = -656					; size = 4
_percent_damaged$3 = -652				; size = 4
_raw$4 = -648						; size = 4
_not_first$5 = -644					; size = 4
_i$6 = -640						; size = 4
_weapon_load$7 = -636					; size = 80
_member_id$ = -556					; size = 4
_enemy_side$ = -552					; size = 4
_side$ = -548						; size = 4
_pos$ = -544						; size = 4
_objective$ = -540					; size = 4
_subject$ = -536					; size = 4
_gunship$ = -532					; size = 4
_group$ = -528						; size = 4
_temp_string$ = -524					; size = 512
_flight_name$ = -12					; size = 4
_pilot_name$ = -8					; size = 4
_type$ = -4						; size = 4
_message$ = 8						; size = 4
_sender$ = 12						; size = 4
_target$ = 16						; size = 4
_raw_string$ = 20					; size = 4
?format_incoming_message@@YGPAUENTITY@@PAUMESSAGE_LOG_TYPE@@PAU1@1PAD@Z PROC ; format_incoming_message, COMDAT

; 401  : {

  00000	55		 push	 ebp
  00001	8b ec		 mov	 ebp, esp
  00003	81 ec 2c 03 00
	00		 sub	 esp, 812		; 0000032cH
  00009	53		 push	 ebx
  0000a	56		 push	 esi
  0000b	57		 push	 edi

; 402  : 	message_text_types
; 403  : 		type;
; 404  : 
; 405  : 	const char
; 406  : 		*pilot_name,
; 407  : 		*flight_name;
; 408  : 	char
; 409  : 		temp_string [512];
; 410  : 
; 411  : 	entity
; 412  : 		*group,
; 413  : 		*gunship,
; 414  : 		*subject,
; 415  : 		*objective;
; 416  : 
; 417  : 	vec3d
; 418  : 		*pos;
; 419  : 
; 420  : 	int
; 421  : 		side,
; 422  : 		enemy_side,
; 423  : 		member_id;
; 424  : 
; 425  : 	ASSERT (message);

  0000c	83 7d 08 00	 cmp	 DWORD PTR _message$[ebp], 0
  00010	75 18		 jne	 SHORT $LN7@format_inc
  00012	a1 00 00 00 00	 mov	 eax, DWORD PTR ?__LINE__Var@?0??format_incoming_message@@YGPAUENTITY@@PAUMESSAGE_LOG_TYPE@@PAU2@1PAD@Z@4JA
  00017	83 c0 18	 add	 eax, 24			; 00000018H
  0001a	50		 push	 eax
  0001b	68 00 00 00 00	 push	 OFFSET ??_C@_0DK@BLKECLAG@c?3?2users?2nhv90?2projects?2eech?2ap@
  00020	68 00 00 00 00	 push	 OFFSET ??_C@_07ONPBMBOP@message@
  00025	e8 00 00 00 00	 call	 ?process_assert@@YGXPBD0H@Z ; process_assert
$LN7@format_inc:

; 426  : 
; 427  : 	temp_string [0] = 0;

  0002a	b8 01 00 00 00	 mov	 eax, 1
  0002f	6b c8 00	 imul	 ecx, eax, 0
  00032	c6 84 0d f4 fd
	ff ff 00	 mov	 BYTE PTR _temp_string$[ebp+ecx], 0

; 428  : 
; 429  : 	type = message->type;

  0003a	8b 45 08	 mov	 eax, DWORD PTR _message$[ebp]
  0003d	8b 08		 mov	 ecx, DWORD PTR [eax]
  0003f	89 4d fc	 mov	 DWORD PTR _type$[ebp], ecx

; 430  : 
; 431  : 	message->position.x = -1;

  00042	8b 45 08	 mov	 eax, DWORD PTR _message$[ebp]
  00045	f3 0f 10 05 00
	00 00 00	 movss	 xmm0, DWORD PTR __real@bf800000
  0004d	f3 0f 11 40 0c	 movss	 DWORD PTR [eax+12], xmm0

; 432  : 	message->position.y = -1;

  00052	8b 45 08	 mov	 eax, DWORD PTR _message$[ebp]
  00055	f3 0f 10 05 00
	00 00 00	 movss	 xmm0, DWORD PTR __real@bf800000
  0005d	f3 0f 11 40 10	 movss	 DWORD PTR [eax+16], xmm0

; 433  : 	message->position.z = -1;

  00062	8b 45 08	 mov	 eax, DWORD PTR _message$[ebp]
  00065	f3 0f 10 05 00
	00 00 00	 movss	 xmm0, DWORD PTR __real@bf800000
  0006d	f3 0f 11 40 14	 movss	 DWORD PTR [eax+20], xmm0

; 434  : 
; 435  : 	message->colour = message_side_colour [ENTITY_SIDE_NEUTRAL];

  00072	b8 04 00 00 00	 mov	 eax, 4
  00077	6b c8 00	 imul	 ecx, eax, 0
  0007a	8b 91 00 00 00
	00		 mov	 edx, DWORD PTR ?message_side_colour@@3PAUREAL_COLOUR@@A[ecx]
  00080	8b 45 08	 mov	 eax, DWORD PTR _message$[ebp]
  00083	89 50 18	 mov	 DWORD PTR [eax+24], edx

; 436  : 
; 437  : 	pos = NULL;

  00086	c7 85 e0 fd ff
	ff 00 00 00 00	 mov	 DWORD PTR _pos$[ebp], 0

; 438  : 
; 439  : 	subject = NULL;

  00090	c7 85 e8 fd ff
	ff 00 00 00 00	 mov	 DWORD PTR _subject$[ebp], 0

; 440  : 
; 441  : 	side = get_local_entity_int_value (get_pilot_entity (), INT_TYPE_SIDE);

  0009a	83 3d 00 00 00
	00 00		 cmp	 DWORD PTR ?pilot_entity@@3PAUENTITY@@A, 0 ; pilot_entity
  000a1	74 0f		 je	 SHORT $LN77@format_inc
  000a3	a1 00 00 00 00	 mov	 eax, DWORD PTR ?pilot_entity@@3PAUENTITY@@A ; pilot_entity
  000a8	8b 08		 mov	 ecx, DWORD PTR [eax]
  000aa	89 8d e8 fc ff
	ff		 mov	 DWORD PTR tv88[ebp], ecx
  000b0	eb 24		 jmp	 SHORT $LN78@format_inc
$LN77@format_inc:
  000b2	8b 15 00 00 00
	00		 mov	 edx, DWORD PTR ?__LINE__Var@?0??format_incoming_message@@YGPAUENTITY@@PAUMESSAGE_LOG_TYPE@@PAU2@1PAD@Z@4JA
  000b8	83 c2 28	 add	 edx, 40			; 00000028H
  000bb	52		 push	 edx
  000bc	68 00 00 00 00	 push	 OFFSET ??_C@_0DK@BLKECLAG@c?3?2users?2nhv90?2projects?2eech?2ap@
  000c1	a1 00 00 00 00	 mov	 eax, DWORD PTR ?null_entity_pointer_message@@3PBDB ; null_entity_pointer_message
  000c6	50		 push	 eax
  000c7	e8 00 00 00 00	 call	 ?process_assert@@YGXPBD0H@Z ; process_assert
  000cc	c7 85 e8 fc ff
	ff 00 00 00 00	 mov	 DWORD PTR tv88[ebp], 0
$LN78@format_inc:
  000d6	b9 01 00 00 00	 mov	 ecx, 1
  000db	85 c9		 test	 ecx, ecx
  000dd	74 0c		 je	 SHORT $LN79@format_inc
  000df	c7 85 e4 fc ff
	ff bb 00 00 00	 mov	 DWORD PTR tv128[ebp], 187 ; 000000bbH
  000e9	eb 24		 jmp	 SHORT $LN80@format_inc
$LN79@format_inc:
  000eb	8b 15 00 00 00
	00		 mov	 edx, DWORD PTR ?__LINE__Var@?0??format_incoming_message@@YGPAUENTITY@@PAUMESSAGE_LOG_TYPE@@PAU2@1PAD@Z@4JA
  000f1	83 c2 28	 add	 edx, 40			; 00000028H
  000f4	52		 push	 edx
  000f5	68 00 00 00 00	 push	 OFFSET ??_C@_0DK@BLKECLAG@c?3?2users?2nhv90?2projects?2eech?2ap@
  000fa	a1 00 00 00 00	 mov	 eax, DWORD PTR ?overload_invalid_int_type_message@@3PBDB ; overload_invalid_int_type_message
  000ff	50		 push	 eax
  00100	e8 00 00 00 00	 call	 ?process_assert@@YGXPBD0H@Z ; process_assert
  00105	c7 85 e4 fc ff
	ff 00 00 00 00	 mov	 DWORD PTR tv128[ebp], 0
$LN80@format_inc:
  0010f	68 bb 00 00 00	 push	 187			; 000000bbH
  00114	8b 0d 00 00 00
	00		 mov	 ecx, DWORD PTR ?pilot_entity@@3PAUENTITY@@A ; pilot_entity
  0011a	51		 push	 ecx
  0011b	69 95 e8 fc ff
	ff 5c 04 00 00	 imul	 edx, DWORD PTR tv88[ebp], 1116
  00125	8b 85 e4 fc ff
	ff		 mov	 eax, DWORD PTR tv128[ebp]
  0012b	8b 8c 82 00 00
	00 00		 mov	 ecx, DWORD PTR ?fn_get_local_entity_int_value@@3PAY0BBH@P6GHPAUENTITY@@W4INT_TYPES@@@ZA[edx+eax*4]
  00132	ff d1		 call	 ecx
  00134	89 85 dc fd ff
	ff		 mov	 DWORD PTR _side$[ebp], eax

; 442  : 
; 443  : 	enemy_side = get_enemy_side (side);

  0013a	83 bd dc fd ff
	ff 01		 cmp	 DWORD PTR _side$[ebp], 1
  00141	75 0c		 jne	 SHORT $LN81@format_inc
  00143	c7 85 e8 fc ff
	ff 02 00 00 00	 mov	 DWORD PTR tv135[ebp], 2
  0014d	eb 0a		 jmp	 SHORT $LN82@format_inc
$LN81@format_inc:
  0014f	c7 85 e8 fc ff
	ff 01 00 00 00	 mov	 DWORD PTR tv135[ebp], 1
$LN82@format_inc:
  00159	8b 85 e8 fc ff
	ff		 mov	 eax, DWORD PTR tv135[ebp]
  0015f	89 85 d8 fd ff
	ff		 mov	 DWORD PTR _enemy_side$[ebp], eax

; 444  : 
; 445  : 	//
; 446  : 	// format text
; 447  : 	//
; 448  : 
; 449  : 	switch (type)

  00165	8b 45 fc	 mov	 eax, DWORD PTR _type$[ebp]
  00168	89 85 e8 fc ff
	ff		 mov	 DWORD PTR tv136[ebp], eax
  0016e	8b 8d e8 fc ff
	ff		 mov	 ecx, DWORD PTR tv136[ebp]
  00174	83 e9 01	 sub	 ecx, 1
  00177	89 8d e8 fc ff
	ff		 mov	 DWORD PTR tv136[ebp], ecx
  0017d	83 bd e8 fc ff
	ff 0a		 cmp	 DWORD PTR tv136[ebp], 10 ; 0000000aH
  00184	0f 87 06 22 00
	00		 ja	 $LN73@format_inc
  0018a	8b 95 e8 fc ff
	ff		 mov	 edx, DWORD PTR tv136[ebp]
  00190	ff 24 95 00 00
	00 00		 jmp	 DWORD PTR $LN259@format_inc[edx*4]
$LN8@format_inc:

; 450  : 	{
; 451  : 		case MESSAGE_TEXT_PILOT_STRING:
; 452  : 		case MESSAGE_TEXT_WINGMAN_STRING:
; 453  : 		case MESSAGE_TEXT_SHORT_WINGMAN_STRING:
; 454  : 		case MESSAGE_TEXT_LOCAL_MESSAGE:
; 455  : 		{
; 456  : 			ASSERT (sender);

  00197	83 7d 0c 00	 cmp	 DWORD PTR _sender$[ebp], 0
  0019b	75 18		 jne	 SHORT $LN9@format_inc
  0019d	a1 00 00 00 00	 mov	 eax, DWORD PTR ?__LINE__Var@?0??format_incoming_message@@YGPAUENTITY@@PAUMESSAGE_LOG_TYPE@@PAU2@1PAD@Z@4JA
  001a2	83 c0 37	 add	 eax, 55			; 00000037H
  001a5	50		 push	 eax
  001a6	68 00 00 00 00	 push	 OFFSET ??_C@_0DK@BLKECLAG@c?3?2users?2nhv90?2projects?2eech?2ap@
  001ab	68 00 00 00 00	 push	 OFFSET ??_C@_06CGHJMPBJ@sender@
  001b0	e8 00 00 00 00	 call	 ?process_assert@@YGXPBD0H@Z ; process_assert
$LN9@format_inc:

; 457  : 
; 458  : 			ASSERT (raw_string);

  001b5	83 7d 14 00	 cmp	 DWORD PTR _raw_string$[ebp], 0
  001b9	75 18		 jne	 SHORT $LN10@format_inc
  001bb	a1 00 00 00 00	 mov	 eax, DWORD PTR ?__LINE__Var@?0??format_incoming_message@@YGPAUENTITY@@PAUMESSAGE_LOG_TYPE@@PAU2@1PAD@Z@4JA
  001c0	83 c0 39	 add	 eax, 57			; 00000039H
  001c3	50		 push	 eax
  001c4	68 00 00 00 00	 push	 OFFSET ??_C@_0DK@BLKECLAG@c?3?2users?2nhv90?2projects?2eech?2ap@
  001c9	68 00 00 00 00	 push	 OFFSET ??_C@_0L@PECNBABE@raw_string@
  001ce	e8 00 00 00 00	 call	 ?process_assert@@YGXPBD0H@Z ; process_assert
$LN10@format_inc:

; 459  : 
; 460  : 			if (type == MESSAGE_TEXT_LOCAL_MESSAGE)

  001d3	83 7d fc 0b	 cmp	 DWORD PTR _type$[ebp], 11 ; 0000000bH
  001d7	75 15		 jne	 SHORT $LN11@format_inc

; 461  : 			{
; 462  : 				pilot_name = NULL;

  001d9	c7 45 f8 00 00
	00 00		 mov	 DWORD PTR _pilot_name$[ebp], 0

; 463  : 				gunship = sender;

  001e0	8b 45 0c	 mov	 eax, DWORD PTR _sender$[ebp]
  001e3	89 85 ec fd ff
	ff		 mov	 DWORD PTR _gunship$[ebp], eax

; 464  : 			}
; 465  : 			else

  001e9	e9 24 01 00 00	 jmp	 $LN12@format_inc
$LN11@format_inc:

; 466  : 			{
; 467  : 				pilot_name = get_local_entity_string (sender, STRING_TYPE_PILOTS_NAME);

  001ee	83 7d 0c 00	 cmp	 DWORD PTR _sender$[ebp], 0
  001f2	74 0d		 je	 SHORT $LN83@format_inc
  001f4	8b 45 0c	 mov	 eax, DWORD PTR _sender$[ebp]
  001f7	8b 08		 mov	 ecx, DWORD PTR [eax]
  001f9	89 8d e8 fc ff
	ff		 mov	 DWORD PTR tv154[ebp], ecx
  001ff	eb 24		 jmp	 SHORT $LN84@format_inc
$LN83@format_inc:
  00201	8b 15 00 00 00
	00		 mov	 edx, DWORD PTR ?__LINE__Var@?0??format_incoming_message@@YGPAUENTITY@@PAUMESSAGE_LOG_TYPE@@PAU2@1PAD@Z@4JA
  00207	83 c2 42	 add	 edx, 66			; 00000042H
  0020a	52		 push	 edx
  0020b	68 00 00 00 00	 push	 OFFSET ??_C@_0DK@BLKECLAG@c?3?2users?2nhv90?2projects?2eech?2ap@
  00210	a1 00 00 00 00	 mov	 eax, DWORD PTR ?null_entity_pointer_message@@3PBDB ; null_entity_pointer_message
  00215	50		 push	 eax
  00216	e8 00 00 00 00	 call	 ?process_assert@@YGXPBD0H@Z ; process_assert
  0021b	c7 85 e8 fc ff
	ff 00 00 00 00	 mov	 DWORD PTR tv154[ebp], 0
$LN84@format_inc:
  00225	b9 01 00 00 00	 mov	 ecx, 1
  0022a	85 c9		 test	 ecx, ecx
  0022c	74 0c		 je	 SHORT $LN85@format_inc
  0022e	c7 85 e4 fc ff
	ff 0a 00 00 00	 mov	 DWORD PTR tv162[ebp], 10 ; 0000000aH
  00238	eb 24		 jmp	 SHORT $LN86@format_inc
$LN85@format_inc:
  0023a	8b 15 00 00 00
	00		 mov	 edx, DWORD PTR ?__LINE__Var@?0??format_incoming_message@@YGPAUENTITY@@PAUMESSAGE_LOG_TYPE@@PAU2@1PAD@Z@4JA
  00240	83 c2 42	 add	 edx, 66			; 00000042H
  00243	52		 push	 edx
  00244	68 00 00 00 00	 push	 OFFSET ??_C@_0DK@BLKECLAG@c?3?2users?2nhv90?2projects?2eech?2ap@
  00249	a1 00 00 00 00	 mov	 eax, DWORD PTR ?overload_invalid_string_type_message@@3PBDB ; overload_invalid_string_type_message
  0024e	50		 push	 eax
  0024f	e8 00 00 00 00	 call	 ?process_assert@@YGXPBD0H@Z ; process_assert
  00254	c7 85 e4 fc ff
	ff 00 00 00 00	 mov	 DWORD PTR tv162[ebp], 0
$LN86@format_inc:
  0025e	6a 0a		 push	 10			; 0000000aH
  00260	8b 4d 0c	 mov	 ecx, DWORD PTR _sender$[ebp]
  00263	51		 push	 ecx
  00264	6b 95 e8 fc ff
	ff 34		 imul	 edx, DWORD PTR tv154[ebp], 52
  0026b	8b 85 e4 fc ff
	ff		 mov	 eax, DWORD PTR tv162[ebp]
  00271	8b 8c 82 00 00
	00 00		 mov	 ecx, DWORD PTR ?fn_get_local_entity_string@@3PAY0N@P6GPBDPAUENTITY@@W4STRING_TYPES@@@ZA[edx+eax*4]
  00278	ff d1		 call	 ecx
  0027a	89 45 f8	 mov	 DWORD PTR _pilot_name$[ebp], eax

; 468  : 				gunship = get_local_entity_parent (sender, LIST_TYPE_AIRCREW);

  0027d	83 7d 0c 00	 cmp	 DWORD PTR _sender$[ebp], 0
  00281	74 0d		 je	 SHORT $LN87@format_inc
  00283	8b 45 0c	 mov	 eax, DWORD PTR _sender$[ebp]
  00286	8b 08		 mov	 ecx, DWORD PTR [eax]
  00288	89 8d e8 fc ff
	ff		 mov	 DWORD PTR tv174[ebp], ecx
  0028e	eb 24		 jmp	 SHORT $LN88@format_inc
$LN87@format_inc:
  00290	8b 15 00 00 00
	00		 mov	 edx, DWORD PTR ?__LINE__Var@?0??format_incoming_message@@YGPAUENTITY@@PAUMESSAGE_LOG_TYPE@@PAU2@1PAD@Z@4JA
  00296	83 c2 43	 add	 edx, 67			; 00000043H
  00299	52		 push	 edx
  0029a	68 00 00 00 00	 push	 OFFSET ??_C@_0DK@BLKECLAG@c?3?2users?2nhv90?2projects?2eech?2ap@
  0029f	a1 00 00 00 00	 mov	 eax, DWORD PTR ?null_entity_pointer_message@@3PBDB ; null_entity_pointer_message
  002a4	50		 push	 eax
  002a5	e8 00 00 00 00	 call	 ?process_assert@@YGXPBD0H@Z ; process_assert
  002aa	c7 85 e8 fc ff
	ff 00 00 00 00	 mov	 DWORD PTR tv174[ebp], 0
$LN88@format_inc:
  002b4	b9 01 00 00 00	 mov	 ecx, 1
  002b9	85 c9		 test	 ecx, ecx
  002bb	74 0c		 je	 SHORT $LN89@format_inc
  002bd	c7 85 e4 fc ff
	ff 01 00 00 00	 mov	 DWORD PTR tv182[ebp], 1
  002c7	eb 24		 jmp	 SHORT $LN90@format_inc
$LN89@format_inc:
  002c9	8b 15 00 00 00
	00		 mov	 edx, DWORD PTR ?__LINE__Var@?0??format_incoming_message@@YGPAUENTITY@@PAUMESSAGE_LOG_TYPE@@PAU2@1PAD@Z@4JA
  002cf	83 c2 43	 add	 edx, 67			; 00000043H
  002d2	52		 push	 edx
  002d3	68 00 00 00 00	 push	 OFFSET ??_C@_0DK@BLKECLAG@c?3?2users?2nhv90?2projects?2eech?2ap@
  002d8	a1 00 00 00 00	 mov	 eax, DWORD PTR ?overload_invalid_list_type_message@@3PBDB ; overload_invalid_list_type_message
  002dd	50		 push	 eax
  002de	e8 00 00 00 00	 call	 ?process_assert@@YGXPBD0H@Z ; process_assert
  002e3	c7 85 e4 fc ff
	ff 00 00 00 00	 mov	 DWORD PTR tv182[ebp], 0
$LN90@format_inc:
  002ed	6a 01		 push	 1
  002ef	8b 4d 0c	 mov	 ecx, DWORD PTR _sender$[ebp]
  002f2	51		 push	 ecx
  002f3	69 95 e8 fc ff
	ff b4 00 00 00	 imul	 edx, DWORD PTR tv174[ebp], 180
  002fd	8b 85 e4 fc ff
	ff		 mov	 eax, DWORD PTR tv182[ebp]
  00303	8b 8c 82 00 00
	00 00		 mov	 ecx, DWORD PTR ?fn_get_local_entity_parent@@3PAY0CN@P6GPAUENTITY@@PAU1@W4LIST_TYPES@@@ZA[edx+eax*4]
  0030a	ff d1		 call	 ecx
  0030c	89 85 ec fd ff
	ff		 mov	 DWORD PTR _gunship$[ebp], eax
$LN12@format_inc:

; 469  : 			}
; 470  : 
; 471  : 			if (gunship)

  00312	83 bd ec fd ff
	ff 00		 cmp	 DWORD PTR _gunship$[ebp], 0
  00319	0f 84 d4 02 00
	00		 je	 $LN14@format_inc

; 472  : 			{
; 473  : 				group = get_local_entity_parent (gunship, LIST_TYPE_MEMBER);

  0031f	83 bd ec fd ff
	ff 00		 cmp	 DWORD PTR _gunship$[ebp], 0
  00326	74 10		 je	 SHORT $LN91@format_inc
  00328	8b 85 ec fd ff
	ff		 mov	 eax, DWORD PTR _gunship$[ebp]
  0032e	8b 08		 mov	 ecx, DWORD PTR [eax]
  00330	89 8d e8 fc ff
	ff		 mov	 DWORD PTR tv195[ebp], ecx
  00336	eb 24		 jmp	 SHORT $LN92@format_inc
$LN91@format_inc:
  00338	8b 15 00 00 00
	00		 mov	 edx, DWORD PTR ?__LINE__Var@?0??format_incoming_message@@YGPAUENTITY@@PAUMESSAGE_LOG_TYPE@@PAU2@1PAD@Z@4JA
  0033e	83 c2 48	 add	 edx, 72			; 00000048H
  00341	52		 push	 edx
  00342	68 00 00 00 00	 push	 OFFSET ??_C@_0DK@BLKECLAG@c?3?2users?2nhv90?2projects?2eech?2ap@
  00347	a1 00 00 00 00	 mov	 eax, DWORD PTR ?null_entity_pointer_message@@3PBDB ; null_entity_pointer_message
  0034c	50		 push	 eax
  0034d	e8 00 00 00 00	 call	 ?process_assert@@YGXPBD0H@Z ; process_assert
  00352	c7 85 e8 fc ff
	ff 00 00 00 00	 mov	 DWORD PTR tv195[ebp], 0
$LN92@format_inc:
  0035c	b9 01 00 00 00	 mov	 ecx, 1
  00361	85 c9		 test	 ecx, ecx
  00363	74 0c		 je	 SHORT $LN93@format_inc
  00365	c7 85 e4 fc ff
	ff 19 00 00 00	 mov	 DWORD PTR tv203[ebp], 25 ; 00000019H
  0036f	eb 24		 jmp	 SHORT $LN94@format_inc
$LN93@format_inc:
  00371	8b 15 00 00 00
	00		 mov	 edx, DWORD PTR ?__LINE__Var@?0??format_incoming_message@@YGPAUENTITY@@PAUMESSAGE_LOG_TYPE@@PAU2@1PAD@Z@4JA
  00377	83 c2 48	 add	 edx, 72			; 00000048H
  0037a	52		 push	 edx
  0037b	68 00 00 00 00	 push	 OFFSET ??_C@_0DK@BLKECLAG@c?3?2users?2nhv90?2projects?2eech?2ap@
  00380	a1 00 00 00 00	 mov	 eax, DWORD PTR ?overload_invalid_list_type_message@@3PBDB ; overload_invalid_list_type_message
  00385	50		 push	 eax
  00386	e8 00 00 00 00	 call	 ?process_assert@@YGXPBD0H@Z ; process_assert
  0038b	c7 85 e4 fc ff
	ff 00 00 00 00	 mov	 DWORD PTR tv203[ebp], 0
$LN94@format_inc:
  00395	6a 19		 push	 25			; 00000019H
  00397	8b 8d ec fd ff
	ff		 mov	 ecx, DWORD PTR _gunship$[ebp]
  0039d	51		 push	 ecx
  0039e	69 95 e8 fc ff
	ff b4 00 00 00	 imul	 edx, DWORD PTR tv195[ebp], 180
  003a8	8b 85 e4 fc ff
	ff		 mov	 eax, DWORD PTR tv203[ebp]
  003ae	8b 8c 82 00 00
	00 00		 mov	 ecx, DWORD PTR ?fn_get_local_entity_parent@@3PAY0CN@P6GPAUENTITY@@PAU1@W4LIST_TYPES@@@ZA[edx+eax*4]
  003b5	ff d1		 call	 ecx
  003b7	89 85 f0 fd ff
	ff		 mov	 DWORD PTR _group$[ebp], eax

; 474  : 
; 475  : 				if (group)

  003bd	83 bd f0 fd ff
	ff 00		 cmp	 DWORD PTR _group$[ebp], 0
  003c4	0f 84 29 02 00
	00		 je	 $LN14@format_inc

; 476  : 				{
; 477  : 					flight_name = get_local_entity_string (group, STRING_TYPE_GROUP_CALLSIGN);

  003ca	83 bd f0 fd ff
	ff 00		 cmp	 DWORD PTR _group$[ebp], 0
  003d1	74 10		 je	 SHORT $LN95@format_inc
  003d3	8b 85 f0 fd ff
	ff		 mov	 eax, DWORD PTR _group$[ebp]
  003d9	8b 08		 mov	 ecx, DWORD PTR [eax]
  003db	89 8d e8 fc ff
	ff		 mov	 DWORD PTR tv216[ebp], ecx
  003e1	eb 24		 jmp	 SHORT $LN96@format_inc
$LN95@format_inc:
  003e3	8b 15 00 00 00
	00		 mov	 edx, DWORD PTR ?__LINE__Var@?0??format_incoming_message@@YGPAUENTITY@@PAUMESSAGE_LOG_TYPE@@PAU2@1PAD@Z@4JA
  003e9	83 c2 4c	 add	 edx, 76			; 0000004cH
  003ec	52		 push	 edx
  003ed	68 00 00 00 00	 push	 OFFSET ??_C@_0DK@BLKECLAG@c?3?2users?2nhv90?2projects?2eech?2ap@
  003f2	a1 00 00 00 00	 mov	 eax, DWORD PTR ?null_entity_pointer_message@@3PBDB ; null_entity_pointer_message
  003f7	50		 push	 eax
  003f8	e8 00 00 00 00	 call	 ?process_assert@@YGXPBD0H@Z ; process_assert
  003fd	c7 85 e8 fc ff
	ff 00 00 00 00	 mov	 DWORD PTR tv216[ebp], 0
$LN96@format_inc:
  00407	b9 01 00 00 00	 mov	 ecx, 1
  0040c	85 c9		 test	 ecx, ecx
  0040e	74 0c		 je	 SHORT $LN97@format_inc
  00410	c7 85 e4 fc ff
	ff 04 00 00 00	 mov	 DWORD PTR tv224[ebp], 4
  0041a	eb 24		 jmp	 SHORT $LN98@format_inc
$LN97@format_inc:
  0041c	8b 15 00 00 00
	00		 mov	 edx, DWORD PTR ?__LINE__Var@?0??format_incoming_message@@YGPAUENTITY@@PAUMESSAGE_LOG_TYPE@@PAU2@1PAD@Z@4JA
  00422	83 c2 4c	 add	 edx, 76			; 0000004cH
  00425	52		 push	 edx
  00426	68 00 00 00 00	 push	 OFFSET ??_C@_0DK@BLKECLAG@c?3?2users?2nhv90?2projects?2eech?2ap@
  0042b	a1 00 00 00 00	 mov	 eax, DWORD PTR ?overload_invalid_string_type_message@@3PBDB ; overload_invalid_string_type_message
  00430	50		 push	 eax
  00431	e8 00 00 00 00	 call	 ?process_assert@@YGXPBD0H@Z ; process_assert
  00436	c7 85 e4 fc ff
	ff 00 00 00 00	 mov	 DWORD PTR tv224[ebp], 0
$LN98@format_inc:
  00440	6a 04		 push	 4
  00442	8b 8d f0 fd ff
	ff		 mov	 ecx, DWORD PTR _group$[ebp]
  00448	51		 push	 ecx
  00449	6b 95 e8 fc ff
	ff 34		 imul	 edx, DWORD PTR tv216[ebp], 52
  00450	8b 85 e4 fc ff
	ff		 mov	 eax, DWORD PTR tv224[ebp]
  00456	8b 8c 82 00 00
	00 00		 mov	 ecx, DWORD PTR ?fn_get_local_entity_string@@3PAY0N@P6GPBDPAUENTITY@@W4STRING_TYPES@@@ZA[edx+eax*4]
  0045d	ff d1		 call	 ecx
  0045f	89 45 f4	 mov	 DWORD PTR _flight_name$[ebp], eax

; 478  : 					member_id = get_local_entity_int_value (gunship, INT_TYPE_GROUP_MEMBER_ID);

  00462	83 bd ec fd ff
	ff 00		 cmp	 DWORD PTR _gunship$[ebp], 0
  00469	74 10		 je	 SHORT $LN99@format_inc
  0046b	8b 85 ec fd ff
	ff		 mov	 eax, DWORD PTR _gunship$[ebp]
  00471	8b 08		 mov	 ecx, DWORD PTR [eax]
  00473	89 8d e8 fc ff
	ff		 mov	 DWORD PTR tv236[ebp], ecx
  00479	eb 24		 jmp	 SHORT $LN100@format_inc
$LN99@format_inc:
  0047b	8b 15 00 00 00
	00		 mov	 edx, DWORD PTR ?__LINE__Var@?0??format_incoming_message@@YGPAUENTITY@@PAUMESSAGE_LOG_TYPE@@PAU2@1PAD@Z@4JA
  00481	83 c2 4d	 add	 edx, 77			; 0000004dH
  00484	52		 push	 edx
  00485	68 00 00 00 00	 push	 OFFSET ??_C@_0DK@BLKECLAG@c?3?2users?2nhv90?2projects?2eech?2ap@
  0048a	a1 00 00 00 00	 mov	 eax, DWORD PTR ?null_entity_pointer_message@@3PBDB ; null_entity_pointer_message
  0048f	50		 push	 eax
  00490	e8 00 00 00 00	 call	 ?process_assert@@YGXPBD0H@Z ; process_assert
  00495	c7 85 e8 fc ff
	ff 00 00 00 00	 mov	 DWORD PTR tv236[ebp], 0
$LN100@format_inc:
  0049f	b9 01 00 00 00	 mov	 ecx, 1
  004a4	85 c9		 test	 ecx, ecx
  004a6	74 0c		 je	 SHORT $LN101@format_inc
  004a8	c7 85 e4 fc ff
	ff 4a 00 00 00	 mov	 DWORD PTR tv244[ebp], 74 ; 0000004aH
  004b2	eb 24		 jmp	 SHORT $LN102@format_inc
$LN101@format_inc:
  004b4	8b 15 00 00 00
	00		 mov	 edx, DWORD PTR ?__LINE__Var@?0??format_incoming_message@@YGPAUENTITY@@PAUMESSAGE_LOG_TYPE@@PAU2@1PAD@Z@4JA
  004ba	83 c2 4d	 add	 edx, 77			; 0000004dH
  004bd	52		 push	 edx
  004be	68 00 00 00 00	 push	 OFFSET ??_C@_0DK@BLKECLAG@c?3?2users?2nhv90?2projects?2eech?2ap@
  004c3	a1 00 00 00 00	 mov	 eax, DWORD PTR ?overload_invalid_int_type_message@@3PBDB ; overload_invalid_int_type_message
  004c8	50		 push	 eax
  004c9	e8 00 00 00 00	 call	 ?process_assert@@YGXPBD0H@Z ; process_assert
  004ce	c7 85 e4 fc ff
	ff 00 00 00 00	 mov	 DWORD PTR tv244[ebp], 0
$LN102@format_inc:
  004d8	6a 4a		 push	 74			; 0000004aH
  004da	8b 8d ec fd ff
	ff		 mov	 ecx, DWORD PTR _gunship$[ebp]
  004e0	51		 push	 ecx
  004e1	69 95 e8 fc ff
	ff 5c 04 00 00	 imul	 edx, DWORD PTR tv236[ebp], 1116
  004eb	8b 85 e4 fc ff
	ff		 mov	 eax, DWORD PTR tv244[ebp]
  004f1	8b 8c 82 00 00
	00 00		 mov	 ecx, DWORD PTR ?fn_get_local_entity_int_value@@3PAY0BBH@P6GHPAUENTITY@@W4INT_TYPES@@@ZA[edx+eax*4]
  004f8	ff d1		 call	 ecx
  004fa	89 85 d4 fd ff
	ff		 mov	 DWORD PTR _member_id$[ebp], eax

; 479  : 
; 480  : 					if (pilot_name)

  00500	83 7d f8 00	 cmp	 DWORD PTR _pilot_name$[ebp], 0
  00504	74 29		 je	 SHORT $LN15@format_inc

; 481  : 						sprintf (temp_string, "%s (%s 1-%d): %s", pilot_name, flight_name, member_id, raw_string);

  00506	8b 45 14	 mov	 eax, DWORD PTR _raw_string$[ebp]
  00509	50		 push	 eax
  0050a	8b 8d d4 fd ff
	ff		 mov	 ecx, DWORD PTR _member_id$[ebp]
  00510	51		 push	 ecx
  00511	8b 55 f4	 mov	 edx, DWORD PTR _flight_name$[ebp]
  00514	52		 push	 edx
  00515	8b 45 f8	 mov	 eax, DWORD PTR _pilot_name$[ebp]
  00518	50		 push	 eax
  00519	68 00 00 00 00	 push	 OFFSET ??_C@_0BB@HMCGNGHF@?$CFs?5?$CI?$CFs?51?9?$CFd?$CJ?3?5?$CFs@
  0051e	8d 8d f4 fd ff
	ff		 lea	 ecx, DWORD PTR _temp_string$[ebp]
  00524	51		 push	 ecx
  00525	e8 00 00 00 00	 call	 _sprintf
  0052a	83 c4 18	 add	 esp, 24			; 00000018H

; 482  : 					else

  0052d	eb 23		 jmp	 SHORT $LN16@format_inc
$LN15@format_inc:

; 483  : 						sprintf (temp_string, "%s 1-%d: %s", flight_name, member_id, raw_string);

  0052f	8b 45 14	 mov	 eax, DWORD PTR _raw_string$[ebp]
  00532	50		 push	 eax
  00533	8b 8d d4 fd ff
	ff		 mov	 ecx, DWORD PTR _member_id$[ebp]
  00539	51		 push	 ecx
  0053a	8b 55 f4	 mov	 edx, DWORD PTR _flight_name$[ebp]
  0053d	52		 push	 edx
  0053e	68 00 00 00 00	 push	 OFFSET ??_C@_0M@IMLPLBM@?$CFs?51?9?$CFd?3?5?$CFs@
  00543	8d 85 f4 fd ff
	ff		 lea	 eax, DWORD PTR _temp_string$[ebp]
  00549	50		 push	 eax
  0054a	e8 00 00 00 00	 call	 _sprintf
  0054f	83 c4 14	 add	 esp, 20			; 00000014H
$LN16@format_inc:

; 484  : 
; 485  : 					get_local_entity_vec3d (gunship, VEC3D_TYPE_POSITION, &(message->position));

  00552	83 bd ec fd ff
	ff 00		 cmp	 DWORD PTR _gunship$[ebp], 0
  00559	74 10		 je	 SHORT $LN103@format_inc
  0055b	8b 85 ec fd ff
	ff		 mov	 eax, DWORD PTR _gunship$[ebp]
  00561	8b 08		 mov	 ecx, DWORD PTR [eax]
  00563	89 8d e8 fc ff
	ff		 mov	 DWORD PTR tv268[ebp], ecx
  00569	eb 24		 jmp	 SHORT $LN104@format_inc
$LN103@format_inc:
  0056b	8b 15 00 00 00
	00		 mov	 edx, DWORD PTR ?__LINE__Var@?0??format_incoming_message@@YGPAUENTITY@@PAUMESSAGE_LOG_TYPE@@PAU2@1PAD@Z@4JA
  00571	83 c2 54	 add	 edx, 84			; 00000054H
  00574	52		 push	 edx
  00575	68 00 00 00 00	 push	 OFFSET ??_C@_0DK@BLKECLAG@c?3?2users?2nhv90?2projects?2eech?2ap@
  0057a	a1 00 00 00 00	 mov	 eax, DWORD PTR ?null_entity_pointer_message@@3PBDB ; null_entity_pointer_message
  0057f	50		 push	 eax
  00580	e8 00 00 00 00	 call	 ?process_assert@@YGXPBD0H@Z ; process_assert
  00585	c7 85 e8 fc ff
	ff 00 00 00 00	 mov	 DWORD PTR tv268[ebp], 0
$LN104@format_inc:
  0058f	b9 01 00 00 00	 mov	 ecx, 1
  00594	85 c9		 test	 ecx, ecx
  00596	74 0c		 je	 SHORT $LN105@format_inc
  00598	c7 85 e4 fc ff
	ff 08 00 00 00	 mov	 DWORD PTR tv276[ebp], 8
  005a2	eb 24		 jmp	 SHORT $LN106@format_inc
$LN105@format_inc:
  005a4	8b 15 00 00 00
	00		 mov	 edx, DWORD PTR ?__LINE__Var@?0??format_incoming_message@@YGPAUENTITY@@PAUMESSAGE_LOG_TYPE@@PAU2@1PAD@Z@4JA
  005aa	83 c2 54	 add	 edx, 84			; 00000054H
  005ad	52		 push	 edx
  005ae	68 00 00 00 00	 push	 OFFSET ??_C@_0DK@BLKECLAG@c?3?2users?2nhv90?2projects?2eech?2ap@
  005b3	a1 00 00 00 00	 mov	 eax, DWORD PTR ?overload_invalid_vec3d_type_message@@3PBDB ; overload_invalid_vec3d_type_message
  005b8	50		 push	 eax
  005b9	e8 00 00 00 00	 call	 ?process_assert@@YGXPBD0H@Z ; process_assert
  005be	c7 85 e4 fc ff
	ff 00 00 00 00	 mov	 DWORD PTR tv276[ebp], 0
$LN106@format_inc:
  005c8	8b 4d 08	 mov	 ecx, DWORD PTR _message$[ebp]
  005cb	83 c1 0c	 add	 ecx, 12			; 0000000cH
  005ce	51		 push	 ecx
  005cf	6a 08		 push	 8
  005d1	8b 95 ec fd ff
	ff		 mov	 edx, DWORD PTR _gunship$[ebp]
  005d7	52		 push	 edx
  005d8	6b 85 e8 fc ff
	ff 60		 imul	 eax, DWORD PTR tv268[ebp], 96
  005df	8b 8d e4 fc ff
	ff		 mov	 ecx, DWORD PTR tv276[ebp]
  005e5	8b 94 88 00 00
	00 00		 mov	 edx, DWORD PTR ?fn_get_local_entity_vec3d@@3PAY0BI@P6GXPAUENTITY@@W4VEC3D_TYPES@@PAUVEC3D@@@ZA[eax+ecx*4]
  005ec	ff d2		 call	 edx

; 486  : 
; 487  : 					break;

  005ee	e9 e4 1d 00 00	 jmp	 $LN2@format_inc
$LN14@format_inc:

; 488  : 				}
; 489  : 			}
; 490  : 
; 491  : 			sprintf (temp_string, "%s : %s", pilot_name, raw_string);

  005f3	8b 45 14	 mov	 eax, DWORD PTR _raw_string$[ebp]
  005f6	50		 push	 eax
  005f7	8b 4d f8	 mov	 ecx, DWORD PTR _pilot_name$[ebp]
  005fa	51		 push	 ecx
  005fb	68 00 00 00 00	 push	 OFFSET ??_C@_07IAFACCAD@?$CFs?5?3?5?$CFs@
  00600	8d 95 f4 fd ff
	ff		 lea	 edx, DWORD PTR _temp_string$[ebp]
  00606	52		 push	 edx
  00607	e8 00 00 00 00	 call	 _sprintf
  0060c	83 c4 10	 add	 esp, 16			; 00000010H

; 492  : 
; 493  : 			message->colour = message_side_colour [ENTITY_SIDE_NEUTRAL];

  0060f	b8 04 00 00 00	 mov	 eax, 4
  00614	6b c8 00	 imul	 ecx, eax, 0
  00617	8b 91 00 00 00
	00		 mov	 edx, DWORD PTR ?message_side_colour@@3PAUREAL_COLOUR@@A[ecx]
  0061d	8b 45 08	 mov	 eax, DWORD PTR _message$[ebp]
  00620	89 50 18	 mov	 DWORD PTR [eax+24], edx

; 494  : 
; 495  : 			break;

  00623	e9 af 1d 00 00	 jmp	 $LN2@format_inc
$LN17@format_inc:

; 496  : 		}
; 497  : 
; 498  : 		case MESSAGE_WINGMAN_STATUS_REPORT:
; 499  : 		{
; 500  : 			group = get_local_entity_parent (sender, LIST_TYPE_MEMBER);

  00628	83 7d 0c 00	 cmp	 DWORD PTR _sender$[ebp], 0
  0062c	74 0d		 je	 SHORT $LN107@format_inc
  0062e	8b 45 0c	 mov	 eax, DWORD PTR _sender$[ebp]
  00631	8b 08		 mov	 ecx, DWORD PTR [eax]
  00633	89 8d e8 fc ff
	ff		 mov	 DWORD PTR tv297[ebp], ecx
  00639	eb 24		 jmp	 SHORT $LN108@format_inc
$LN107@format_inc:
  0063b	8b 15 00 00 00
	00		 mov	 edx, DWORD PTR ?__LINE__Var@?0??format_incoming_message@@YGPAUENTITY@@PAUMESSAGE_LOG_TYPE@@PAU2@1PAD@Z@4JA
  00641	83 c2 63	 add	 edx, 99			; 00000063H
  00644	52		 push	 edx
  00645	68 00 00 00 00	 push	 OFFSET ??_C@_0DK@BLKECLAG@c?3?2users?2nhv90?2projects?2eech?2ap@
  0064a	a1 00 00 00 00	 mov	 eax, DWORD PTR ?null_entity_pointer_message@@3PBDB ; null_entity_pointer_message
  0064f	50		 push	 eax
  00650	e8 00 00 00 00	 call	 ?process_assert@@YGXPBD0H@Z ; process_assert
  00655	c7 85 e8 fc ff
	ff 00 00 00 00	 mov	 DWORD PTR tv297[ebp], 0
$LN108@format_inc:
  0065f	b9 01 00 00 00	 mov	 ecx, 1
  00664	85 c9		 test	 ecx, ecx
  00666	74 0c		 je	 SHORT $LN109@format_inc
  00668	c7 85 e4 fc ff
	ff 19 00 00 00	 mov	 DWORD PTR tv305[ebp], 25 ; 00000019H
  00672	eb 24		 jmp	 SHORT $LN110@format_inc
$LN109@format_inc:
  00674	8b 15 00 00 00
	00		 mov	 edx, DWORD PTR ?__LINE__Var@?0??format_incoming_message@@YGPAUENTITY@@PAUMESSAGE_LOG_TYPE@@PAU2@1PAD@Z@4JA
  0067a	83 c2 63	 add	 edx, 99			; 00000063H
  0067d	52		 push	 edx
  0067e	68 00 00 00 00	 push	 OFFSET ??_C@_0DK@BLKECLAG@c?3?2users?2nhv90?2projects?2eech?2ap@
  00683	a1 00 00 00 00	 mov	 eax, DWORD PTR ?overload_invalid_list_type_message@@3PBDB ; overload_invalid_list_type_message
  00688	50		 push	 eax
  00689	e8 00 00 00 00	 call	 ?process_assert@@YGXPBD0H@Z ; process_assert
  0068e	c7 85 e4 fc ff
	ff 00 00 00 00	 mov	 DWORD PTR tv305[ebp], 0
$LN110@format_inc:
  00698	6a 19		 push	 25			; 00000019H
  0069a	8b 4d 0c	 mov	 ecx, DWORD PTR _sender$[ebp]
  0069d	51		 push	 ecx
  0069e	69 95 e8 fc ff
	ff b4 00 00 00	 imul	 edx, DWORD PTR tv297[ebp], 180
  006a8	8b 85 e4 fc ff
	ff		 mov	 eax, DWORD PTR tv305[ebp]
  006ae	8b 8c 82 00 00
	00 00		 mov	 ecx, DWORD PTR ?fn_get_local_entity_parent@@3PAY0CN@P6GPAUENTITY@@PAU1@W4LIST_TYPES@@@ZA[edx+eax*4]
  006b5	ff d1		 call	 ecx
  006b7	89 85 f0 fd ff
	ff		 mov	 DWORD PTR _group$[ebp], eax

; 501  : 
; 502  : 			ASSERT(get_local_entity_type(sender) == ENTITY_TYPE_HELICOPTER);

  006bd	83 7d 0c 00	 cmp	 DWORD PTR _sender$[ebp], 0
  006c1	74 0d		 je	 SHORT $LN111@format_inc
  006c3	8b 45 0c	 mov	 eax, DWORD PTR _sender$[ebp]
  006c6	8b 08		 mov	 ecx, DWORD PTR [eax]
  006c8	89 8d e8 fc ff
	ff		 mov	 DWORD PTR tv317[ebp], ecx
  006ce	eb 24		 jmp	 SHORT $LN112@format_inc
$LN111@format_inc:
  006d0	8b 15 00 00 00
	00		 mov	 edx, DWORD PTR ?__LINE__Var@?0??format_incoming_message@@YGPAUENTITY@@PAUMESSAGE_LOG_TYPE@@PAU2@1PAD@Z@4JA
  006d6	83 c2 65	 add	 edx, 101		; 00000065H
  006d9	52		 push	 edx
  006da	68 00 00 00 00	 push	 OFFSET ??_C@_0DK@BLKECLAG@c?3?2users?2nhv90?2projects?2eech?2ap@
  006df	a1 00 00 00 00	 mov	 eax, DWORD PTR ?null_entity_pointer_message@@3PBDB ; null_entity_pointer_message
  006e4	50		 push	 eax
  006e5	e8 00 00 00 00	 call	 ?process_assert@@YGXPBD0H@Z ; process_assert
  006ea	c7 85 e8 fc ff
	ff 00 00 00 00	 mov	 DWORD PTR tv317[ebp], 0
$LN112@format_inc:
  006f4	83 bd e8 fc ff
	ff 0e		 cmp	 DWORD PTR tv317[ebp], 14 ; 0000000eH
  006fb	74 18		 je	 SHORT $LN18@format_inc
  006fd	a1 00 00 00 00	 mov	 eax, DWORD PTR ?__LINE__Var@?0??format_incoming_message@@YGPAUENTITY@@PAUMESSAGE_LOG_TYPE@@PAU2@1PAD@Z@4JA
  00702	83 c0 65	 add	 eax, 101		; 00000065H
  00705	50		 push	 eax
  00706	68 00 00 00 00	 push	 OFFSET ??_C@_0DK@BLKECLAG@c?3?2users?2nhv90?2projects?2eech?2ap@
  0070b	68 00 00 00 00	 push	 OFFSET ??_C@_0DI@GMPCFGGP@get_local_entity_type?$CIsender?$CJ?5?$DN@
  00710	e8 00 00 00 00	 call	 ?process_assert@@YGXPBD0H@Z ; process_assert
$LN18@format_inc:

; 503  : 
; 504  : 			// callsign
; 505  : 			if (group)

  00715	83 bd f0 fd ff
	ff 00		 cmp	 DWORD PTR _group$[ebp], 0
  0071c	0f 84 e1 01 00
	00		 je	 $LN19@format_inc

; 506  : 			{
; 507  : 				flight_name = get_local_entity_string (group, STRING_TYPE_GROUP_CALLSIGN);

  00722	83 bd f0 fd ff
	ff 00		 cmp	 DWORD PTR _group$[ebp], 0
  00729	74 10		 je	 SHORT $LN113@format_inc
  0072b	8b 85 f0 fd ff
	ff		 mov	 eax, DWORD PTR _group$[ebp]
  00731	8b 08		 mov	 ecx, DWORD PTR [eax]
  00733	89 8d e8 fc ff
	ff		 mov	 DWORD PTR tv330[ebp], ecx
  00739	eb 24		 jmp	 SHORT $LN114@format_inc
$LN113@format_inc:
  0073b	8b 15 00 00 00
	00		 mov	 edx, DWORD PTR ?__LINE__Var@?0??format_incoming_message@@YGPAUENTITY@@PAUMESSAGE_LOG_TYPE@@PAU2@1PAD@Z@4JA
  00741	83 c2 6a	 add	 edx, 106		; 0000006aH
  00744	52		 push	 edx
  00745	68 00 00 00 00	 push	 OFFSET ??_C@_0DK@BLKECLAG@c?3?2users?2nhv90?2projects?2eech?2ap@
  0074a	a1 00 00 00 00	 mov	 eax, DWORD PTR ?null_entity_pointer_message@@3PBDB ; null_entity_pointer_message
  0074f	50		 push	 eax
  00750	e8 00 00 00 00	 call	 ?process_assert@@YGXPBD0H@Z ; process_assert
  00755	c7 85 e8 fc ff
	ff 00 00 00 00	 mov	 DWORD PTR tv330[ebp], 0
$LN114@format_inc:
  0075f	b9 01 00 00 00	 mov	 ecx, 1
  00764	85 c9		 test	 ecx, ecx
  00766	74 0c		 je	 SHORT $LN115@format_inc
  00768	c7 85 e4 fc ff
	ff 04 00 00 00	 mov	 DWORD PTR tv338[ebp], 4
  00772	eb 24		 jmp	 SHORT $LN116@format_inc
$LN115@format_inc:
  00774	8b 15 00 00 00
	00		 mov	 edx, DWORD PTR ?__LINE__Var@?0??format_incoming_message@@YGPAUENTITY@@PAUMESSAGE_LOG_TYPE@@PAU2@1PAD@Z@4JA
  0077a	83 c2 6a	 add	 edx, 106		; 0000006aH
  0077d	52		 push	 edx
  0077e	68 00 00 00 00	 push	 OFFSET ??_C@_0DK@BLKECLAG@c?3?2users?2nhv90?2projects?2eech?2ap@
  00783	a1 00 00 00 00	 mov	 eax, DWORD PTR ?overload_invalid_string_type_message@@3PBDB ; overload_invalid_string_type_message
  00788	50		 push	 eax
  00789	e8 00 00 00 00	 call	 ?process_assert@@YGXPBD0H@Z ; process_assert
  0078e	c7 85 e4 fc ff
	ff 00 00 00 00	 mov	 DWORD PTR tv338[ebp], 0
$LN116@format_inc:
  00798	6a 04		 push	 4
  0079a	8b 8d f0 fd ff
	ff		 mov	 ecx, DWORD PTR _group$[ebp]
  007a0	51		 push	 ecx
  007a1	6b 95 e8 fc ff
	ff 34		 imul	 edx, DWORD PTR tv330[ebp], 52
  007a8	8b 85 e4 fc ff
	ff		 mov	 eax, DWORD PTR tv338[ebp]
  007ae	8b 8c 82 00 00
	00 00		 mov	 ecx, DWORD PTR ?fn_get_local_entity_string@@3PAY0N@P6GPBDPAUENTITY@@W4STRING_TYPES@@@ZA[edx+eax*4]
  007b5	ff d1		 call	 ecx
  007b7	89 45 f4	 mov	 DWORD PTR _flight_name$[ebp], eax

; 508  : 
; 509  : 				member_id = get_local_entity_int_value (sender, INT_TYPE_GROUP_MEMBER_ID);

  007ba	83 7d 0c 00	 cmp	 DWORD PTR _sender$[ebp], 0
  007be	74 0d		 je	 SHORT $LN117@format_inc
  007c0	8b 45 0c	 mov	 eax, DWORD PTR _sender$[ebp]
  007c3	8b 08		 mov	 ecx, DWORD PTR [eax]
  007c5	89 8d e8 fc ff
	ff		 mov	 DWORD PTR tv350[ebp], ecx
  007cb	eb 24		 jmp	 SHORT $LN118@format_inc
$LN117@format_inc:
  007cd	8b 15 00 00 00
	00		 mov	 edx, DWORD PTR ?__LINE__Var@?0??format_incoming_message@@YGPAUENTITY@@PAUMESSAGE_LOG_TYPE@@PAU2@1PAD@Z@4JA
  007d3	83 c2 6c	 add	 edx, 108		; 0000006cH
  007d6	52		 push	 edx
  007d7	68 00 00 00 00	 push	 OFFSET ??_C@_0DK@BLKECLAG@c?3?2users?2nhv90?2projects?2eech?2ap@
  007dc	a1 00 00 00 00	 mov	 eax, DWORD PTR ?null_entity_pointer_message@@3PBDB ; null_entity_pointer_message
  007e1	50		 push	 eax
  007e2	e8 00 00 00 00	 call	 ?process_assert@@YGXPBD0H@Z ; process_assert
  007e7	c7 85 e8 fc ff
	ff 00 00 00 00	 mov	 DWORD PTR tv350[ebp], 0
$LN118@format_inc:
  007f1	b9 01 00 00 00	 mov	 ecx, 1
  007f6	85 c9		 test	 ecx, ecx
  007f8	74 0c		 je	 SHORT $LN119@format_inc
  007fa	c7 85 e4 fc ff
	ff 4a 00 00 00	 mov	 DWORD PTR tv358[ebp], 74 ; 0000004aH
  00804	eb 24		 jmp	 SHORT $LN120@format_inc
$LN119@format_inc:
  00806	8b 15 00 00 00
	00		 mov	 edx, DWORD PTR ?__LINE__Var@?0??format_incoming_message@@YGPAUENTITY@@PAUMESSAGE_LOG_TYPE@@PAU2@1PAD@Z@4JA
  0080c	83 c2 6c	 add	 edx, 108		; 0000006cH
  0080f	52		 push	 edx
  00810	68 00 00 00 00	 push	 OFFSET ??_C@_0DK@BLKECLAG@c?3?2users?2nhv90?2projects?2eech?2ap@
  00815	a1 00 00 00 00	 mov	 eax, DWORD PTR ?overload_invalid_int_type_message@@3PBDB ; overload_invalid_int_type_message
  0081a	50		 push	 eax
  0081b	e8 00 00 00 00	 call	 ?process_assert@@YGXPBD0H@Z ; process_assert
  00820	c7 85 e4 fc ff
	ff 00 00 00 00	 mov	 DWORD PTR tv358[ebp], 0
$LN120@format_inc:
  0082a	6a 4a		 push	 74			; 0000004aH
  0082c	8b 4d 0c	 mov	 ecx, DWORD PTR _sender$[ebp]
  0082f	51		 push	 ecx
  00830	69 95 e8 fc ff
	ff 5c 04 00 00	 imul	 edx, DWORD PTR tv350[ebp], 1116
  0083a	8b 85 e4 fc ff
	ff		 mov	 eax, DWORD PTR tv358[ebp]
  00840	8b 8c 82 00 00
	00 00		 mov	 ecx, DWORD PTR ?fn_get_local_entity_int_value@@3PAY0BBH@P6GHPAUENTITY@@W4INT_TYPES@@@ZA[edx+eax*4]
  00847	ff d1		 call	 ecx
  00849	89 85 d4 fd ff
	ff		 mov	 DWORD PTR _member_id$[ebp], eax

; 510  : 
; 511  : 				sprintf (temp_string, "%s 1-%d: ", flight_name, member_id);

  0084f	8b 85 d4 fd ff
	ff		 mov	 eax, DWORD PTR _member_id$[ebp]
  00855	50		 push	 eax
  00856	8b 4d f4	 mov	 ecx, DWORD PTR _flight_name$[ebp]
  00859	51		 push	 ecx
  0085a	68 00 00 00 00	 push	 OFFSET ??_C@_09DBGCPOJB@?$CFs?51?9?$CFd?3?5@
  0085f	8d 95 f4 fd ff
	ff		 lea	 edx, DWORD PTR _temp_string$[ebp]
  00865	52		 push	 edx
  00866	e8 00 00 00 00	 call	 _sprintf
  0086b	83 c4 10	 add	 esp, 16			; 00000010H

; 512  : 
; 513  : 				get_local_entity_vec3d (sender, VEC3D_TYPE_POSITION, &(message->position));

  0086e	83 7d 0c 00	 cmp	 DWORD PTR _sender$[ebp], 0
  00872	74 0d		 je	 SHORT $LN121@format_inc
  00874	8b 45 0c	 mov	 eax, DWORD PTR _sender$[ebp]
  00877	8b 08		 mov	 ecx, DWORD PTR [eax]
  00879	89 8d e8 fc ff
	ff		 mov	 DWORD PTR tv374[ebp], ecx
  0087f	eb 24		 jmp	 SHORT $LN122@format_inc
$LN121@format_inc:
  00881	8b 15 00 00 00
	00		 mov	 edx, DWORD PTR ?__LINE__Var@?0??format_incoming_message@@YGPAUENTITY@@PAUMESSAGE_LOG_TYPE@@PAU2@1PAD@Z@4JA
  00887	83 c2 70	 add	 edx, 112		; 00000070H
  0088a	52		 push	 edx
  0088b	68 00 00 00 00	 push	 OFFSET ??_C@_0DK@BLKECLAG@c?3?2users?2nhv90?2projects?2eech?2ap@
  00890	a1 00 00 00 00	 mov	 eax, DWORD PTR ?null_entity_pointer_message@@3PBDB ; null_entity_pointer_message
  00895	50		 push	 eax
  00896	e8 00 00 00 00	 call	 ?process_assert@@YGXPBD0H@Z ; process_assert
  0089b	c7 85 e8 fc ff
	ff 00 00 00 00	 mov	 DWORD PTR tv374[ebp], 0
$LN122@format_inc:
  008a5	b9 01 00 00 00	 mov	 ecx, 1
  008aa	85 c9		 test	 ecx, ecx
  008ac	74 0c		 je	 SHORT $LN123@format_inc
  008ae	c7 85 e4 fc ff
	ff 08 00 00 00	 mov	 DWORD PTR tv382[ebp], 8
  008b8	eb 24		 jmp	 SHORT $LN124@format_inc
$LN123@format_inc:
  008ba	8b 15 00 00 00
	00		 mov	 edx, DWORD PTR ?__LINE__Var@?0??format_incoming_message@@YGPAUENTITY@@PAUMESSAGE_LOG_TYPE@@PAU2@1PAD@Z@4JA
  008c0	83 c2 70	 add	 edx, 112		; 00000070H
  008c3	52		 push	 edx
  008c4	68 00 00 00 00	 push	 OFFSET ??_C@_0DK@BLKECLAG@c?3?2users?2nhv90?2projects?2eech?2ap@
  008c9	a1 00 00 00 00	 mov	 eax, DWORD PTR ?overload_invalid_vec3d_type_message@@3PBDB ; overload_invalid_vec3d_type_message
  008ce	50		 push	 eax
  008cf	e8 00 00 00 00	 call	 ?process_assert@@YGXPBD0H@Z ; process_assert
  008d4	c7 85 e4 fc ff
	ff 00 00 00 00	 mov	 DWORD PTR tv382[ebp], 0
$LN124@format_inc:
  008de	8b 4d 08	 mov	 ecx, DWORD PTR _message$[ebp]
  008e1	83 c1 0c	 add	 ecx, 12			; 0000000cH
  008e4	51		 push	 ecx
  008e5	6a 08		 push	 8
  008e7	8b 55 0c	 mov	 edx, DWORD PTR _sender$[ebp]
  008ea	52		 push	 edx
  008eb	6b 85 e8 fc ff
	ff 60		 imul	 eax, DWORD PTR tv374[ebp], 96
  008f2	8b 8d e4 fc ff
	ff		 mov	 ecx, DWORD PTR tv382[ebp]
  008f8	8b 94 88 00 00
	00 00		 mov	 edx, DWORD PTR ?fn_get_local_entity_vec3d@@3PAY0BI@P6GXPAUENTITY@@W4VEC3D_TYPES@@PAUVEC3D@@@ZA[eax+ecx*4]
  008ff	ff d2		 call	 edx

; 514  : 			}
; 515  : 			else

  00901	eb 10		 jmp	 SHORT $LN20@format_inc
$LN19@format_inc:

; 516  : 				temp_string[0] = '\0';

  00903	b8 01 00 00 00	 mov	 eax, 1
  00908	6b c8 00	 imul	 ecx, eax, 0
  0090b	c6 84 0d f4 fd
	ff ff 00	 mov	 BYTE PTR _temp_string$[ebp+ecx], 0
$LN20@format_inc:

; 517  : 
; 518  : 			// weapons
; 519  : 			{
; 520  : 				weapon_count weapon_load[10];
; 521  : 				unsigned i, not_first = FALSE;

  00913	c7 85 7c fd ff
	ff 00 00 00 00	 mov	 DWORD PTR _not_first$5[ebp], 0

; 522  : 
; 523  : 				get_local_entity_weapon_load(sender, weapon_load, 10);

  0091d	6a 0a		 push	 10			; 0000000aH
  0091f	8d 85 84 fd ff
	ff		 lea	 eax, DWORD PTR _weapon_load$7[ebp]
  00925	50		 push	 eax
  00926	8b 4d 0c	 mov	 ecx, DWORD PTR _sender$[ebp]
  00929	51		 push	 ecx
  0092a	e8 00 00 00 00	 call	 ?get_local_entity_weapon_load@@YGXPAUENTITY@@QAUweapon_count@@I@Z ; get_local_entity_weapon_load

; 524  : 
; 525  : 				for (i=0; weapon_load[i].weapon_type != ENTITY_SUB_TYPE_WEAPON_NO_WEAPON; i++)

  0092f	c7 85 80 fd ff
	ff 00 00 00 00	 mov	 DWORD PTR _i$6[ebp], 0
  00939	eb 0f		 jmp	 SHORT $LN6@format_inc
$LN4@format_inc:
  0093b	8b 85 80 fd ff
	ff		 mov	 eax, DWORD PTR _i$6[ebp]
  00941	83 c0 01	 add	 eax, 1
  00944	89 85 80 fd ff
	ff		 mov	 DWORD PTR _i$6[ebp], eax
$LN6@format_inc:
  0094a	8b 85 80 fd ff
	ff		 mov	 eax, DWORD PTR _i$6[ebp]
  00950	83 bc c5 84 fd
	ff ff 00	 cmp	 DWORD PTR _weapon_load$7[ebp+eax*8], 0
  00958	0f 84 b3 00 00
	00		 je	 $LN5@format_inc

; 526  : 				{
; 527  : 					if (weapon_load[i].weapon_type != ENTITY_SUB_TYPE_WEAPON_CHAFF
; 528  : 						&& weapon_load[i].weapon_type != ENTITY_SUB_TYPE_WEAPON_FLARE
; 529  : 						&& weapon_load[i].count > 0)

  0095e	8b 85 80 fd ff
	ff		 mov	 eax, DWORD PTR _i$6[ebp]
  00964	83 bc c5 84 fd
	ff ff 43	 cmp	 DWORD PTR _weapon_load$7[ebp+eax*8], 67 ; 00000043H
  0096c	0f 84 9a 00 00
	00		 je	 $LN21@format_inc
  00972	8b 85 80 fd ff
	ff		 mov	 eax, DWORD PTR _i$6[ebp]
  00978	83 bc c5 84 fd
	ff ff 44	 cmp	 DWORD PTR _weapon_load$7[ebp+eax*8], 68 ; 00000044H
  00980	0f 84 86 00 00
	00		 je	 $LN21@format_inc
  00986	8b 85 80 fd ff
	ff		 mov	 eax, DWORD PTR _i$6[ebp]
  0098c	83 bc c5 88 fd
	ff ff 00	 cmp	 DWORD PTR _weapon_load$7[ebp+eax*8+4], 0
  00994	76 76		 jbe	 SHORT $LN21@format_inc

; 530  : 					{
; 531  : 						snprintf (temp_string, 511, "%s%s %s %d ",

  00996	83 bd 7c fd ff
	ff 00		 cmp	 DWORD PTR _not_first$5[ebp], 0
  0099d	74 0c		 je	 SHORT $LN125@format_inc
  0099f	c7 85 e8 fc ff
	ff 00 00 00 00	 mov	 DWORD PTR tv424[ebp], OFFSET ??_C@_01IHBHIGKO@?0@
  009a9	eb 0a		 jmp	 SHORT $LN126@format_inc
$LN125@format_inc:
  009ab	c7 85 e8 fc ff
	ff 00 00 00 00	 mov	 DWORD PTR tv424[ebp], OFFSET ??_C@_00CNPNBAHC@@
$LN126@format_inc:
  009b5	8b 85 80 fd ff
	ff		 mov	 eax, DWORD PTR _i$6[ebp]
  009bb	8b 8c c5 88 fd
	ff ff		 mov	 ecx, DWORD PTR _weapon_load$7[ebp+eax*8+4]
  009c2	51		 push	 ecx
  009c3	8b 95 80 fd ff
	ff		 mov	 edx, DWORD PTR _i$6[ebp]
  009c9	69 84 d5 84 fd
	ff ff e0 00 00
	00		 imul	 eax, DWORD PTR _weapon_load$7[ebp+edx*8], 224
  009d4	8b 88 04 00 00
	00		 mov	 ecx, DWORD PTR ?weapon_database@@3PAUWEAPON_DATA@@A[eax+4]
  009da	51		 push	 ecx
  009db	8b 95 e8 fc ff
	ff		 mov	 edx, DWORD PTR tv424[ebp]
  009e1	52		 push	 edx
  009e2	8d 85 f4 fd ff
	ff		 lea	 eax, DWORD PTR _temp_string$[ebp]
  009e8	50		 push	 eax
  009e9	68 00 00 00 00	 push	 OFFSET ??_C@_0M@GGBAKKFK@?$CFs?$CFs?5?$CFs?5?$CFd?5@
  009ee	68 ff 01 00 00	 push	 511			; 000001ffH
  009f3	8d 8d f4 fd ff
	ff		 lea	 ecx, DWORD PTR _temp_string$[ebp]
  009f9	51		 push	 ecx
  009fa	e8 00 00 00 00	 call	 _sprintf_s
  009ff	83 c4 1c	 add	 esp, 28			; 0000001cH

; 532  : 							temp_string, (not_first ? "," : ""),
; 533  : 							weapon_database[weapon_load[i].weapon_type].hud_name, weapon_load[i].count);
; 534  : 
; 535  : 						not_first = TRUE;

  00a02	c7 85 7c fd ff
	ff 01 00 00 00	 mov	 DWORD PTR _not_first$5[ebp], 1
$LN21@format_inc:

; 536  : 					}
; 537  : 				}

  00a0c	e9 2a ff ff ff	 jmp	 $LN4@format_inc
$LN5@format_inc:

; 538  : 
; 539  : 			}
; 540  : 
; 541  : 			// damage
; 542  : 			{
; 543  : 				helicopter
; 544  : 					*raw;
; 545  : 
; 546  : 				int
; 547  : 					percent_damaged;
; 548  : 
; 549  : 				char
; 550  : 					*damage;
; 551  : 
; 552  : 				raw = (helicopter *) get_local_entity_data (sender);

  00a11	8b 45 0c	 mov	 eax, DWORD PTR _sender$[ebp]
  00a14	8b 48 04	 mov	 ecx, DWORD PTR [eax+4]
  00a17	89 8d 78 fd ff
	ff		 mov	 DWORD PTR _raw$4[ebp], ecx

; 553  : 				percent_damaged = (100 * raw->ac.damage_level) / aircraft_database[raw->ac.mob.sub_type].initial_damage_level;

  00a1d	8b 85 78 fd ff
	ff		 mov	 eax, DWORD PTR _raw$4[ebp]
  00a23	6b 80 34 01 00
	00 64		 imul	 eax, DWORD PTR [eax+308], 100
  00a2a	8b 8d 78 fd ff
	ff		 mov	 ecx, DWORD PTR _raw$4[ebp]
  00a30	69 09 f4 00 00
	00		 imul	 ecx, DWORD PTR [ecx], 244
  00a36	99		 cdq
  00a37	f7 b9 e0 00 00
	00		 idiv	 DWORD PTR ?aircraft_database@@3PAUAIRCRAFT_DATA@@A[ecx+224]
  00a3d	89 85 74 fd ff
	ff		 mov	 DWORD PTR _percent_damaged$3[ebp], eax

; 554  : 
; 555  : 				if (percent_damaged == 100)

  00a43	83 bd 74 fd ff
	ff 64		 cmp	 DWORD PTR _percent_damaged$3[ebp], 100 ; 00000064H
  00a4a	75 0c		 jne	 SHORT $LN22@format_inc

; 556  : 					damage = "No damage";

  00a4c	c7 85 70 fd ff
	ff 00 00 00 00	 mov	 DWORD PTR _damage$2[ebp], OFFSET ??_C@_09ONNBFJGN@No?5damage@
  00a56	eb 49		 jmp	 SHORT $LN29@format_inc
$LN22@format_inc:

; 557  : 				else if (percent_damaged > 75)

  00a58	83 bd 74 fd ff
	ff 4b		 cmp	 DWORD PTR _percent_damaged$3[ebp], 75 ; 0000004bH
  00a5f	7e 0c		 jle	 SHORT $LN24@format_inc

; 558  : 					damage = "Slight damage";

  00a61	c7 85 70 fd ff
	ff 00 00 00 00	 mov	 DWORD PTR _damage$2[ebp], OFFSET ??_C@_0O@LAABLPCG@Slight?5damage@
  00a6b	eb 34		 jmp	 SHORT $LN29@format_inc
$LN24@format_inc:

; 559  : 				else if (percent_damaged > 50)

  00a6d	83 bd 74 fd ff
	ff 32		 cmp	 DWORD PTR _percent_damaged$3[ebp], 50 ; 00000032H
  00a74	7e 0c		 jle	 SHORT $LN26@format_inc

; 560  : 					damage = "Moderate damage";

  00a76	c7 85 70 fd ff
	ff 00 00 00 00	 mov	 DWORD PTR _damage$2[ebp], OFFSET ??_C@_0BA@OGBLOPBA@Moderate?5damage@
  00a80	eb 1f		 jmp	 SHORT $LN29@format_inc
$LN26@format_inc:

; 561  : 				else if (percent_damaged > 25)

  00a82	83 bd 74 fd ff
	ff 19		 cmp	 DWORD PTR _percent_damaged$3[ebp], 25 ; 00000019H
  00a89	7e 0c		 jle	 SHORT $LN28@format_inc

; 562  : 					damage = "Heavy damage";

  00a8b	c7 85 70 fd ff
	ff 00 00 00 00	 mov	 DWORD PTR _damage$2[ebp], OFFSET ??_C@_0N@GDPEJOII@Heavy?5damage@

; 563  : 				else

  00a95	eb 0a		 jmp	 SHORT $LN29@format_inc
$LN28@format_inc:

; 564  : 					damage = "Critical damage";

  00a97	c7 85 70 fd ff
	ff 00 00 00 00	 mov	 DWORD PTR _damage$2[ebp], OFFSET ??_C@_0BA@OIFMPHDI@Critical?5damage@
$LN29@format_inc:

; 565  : 
; 566  : 				snprintf (temp_string, 511, "%s, %s", temp_string, damage);

  00aa1	8b 85 70 fd ff
	ff		 mov	 eax, DWORD PTR _damage$2[ebp]
  00aa7	50		 push	 eax
  00aa8	8d 8d f4 fd ff
	ff		 lea	 ecx, DWORD PTR _temp_string$[ebp]
  00aae	51		 push	 ecx
  00aaf	68 00 00 00 00	 push	 OFFSET ??_C@_06OMDHIKNA@?$CFs?0?5?$CFs@
  00ab4	68 ff 01 00 00	 push	 511			; 000001ffH
  00ab9	8d 95 f4 fd ff
	ff		 lea	 edx, DWORD PTR _temp_string$[ebp]
  00abf	52		 push	 edx
  00ac0	e8 00 00 00 00	 call	 _sprintf_s
  00ac5	83 c4 14	 add	 esp, 20			; 00000014H

; 567  : 			}
; 568  : 
; 569  : 			message->colour = message_side_colour [ENTITY_SIDE_NEUTRAL];

  00ac8	b8 04 00 00 00	 mov	 eax, 4
  00acd	6b c8 00	 imul	 ecx, eax, 0
  00ad0	8b 91 00 00 00
	00		 mov	 edx, DWORD PTR ?message_side_colour@@3PAUREAL_COLOUR@@A[ecx]
  00ad6	8b 45 08	 mov	 eax, DWORD PTR _message$[ebp]
  00ad9	89 50 18	 mov	 DWORD PTR [eax+24], edx

; 570  : 
; 571  : 			break;

  00adc	e9 f6 18 00 00	 jmp	 $LN2@format_inc
$LN30@format_inc:

; 572  : 		}
; 573  : 
; 574  : 		case MESSAGE_TEXT_SYSTEM_ENTITY_KILLED:
; 575  : 		{
; 576  : 			ASSERT (sender);

  00ae1	83 7d 0c 00	 cmp	 DWORD PTR _sender$[ebp], 0
  00ae5	75 1a		 jne	 SHORT $LN31@format_inc
  00ae7	a1 00 00 00 00	 mov	 eax, DWORD PTR ?__LINE__Var@?0??format_incoming_message@@YGPAUENTITY@@PAUMESSAGE_LOG_TYPE@@PAU2@1PAD@Z@4JA
  00aec	05 af 00 00 00	 add	 eax, 175		; 000000afH
  00af1	50		 push	 eax
  00af2	68 00 00 00 00	 push	 OFFSET ??_C@_0DK@BLKECLAG@c?3?2users?2nhv90?2projects?2eech?2ap@
  00af7	68 00 00 00 00	 push	 OFFSET ??_C@_06CGHJMPBJ@sender@
  00afc	e8 00 00 00 00	 call	 ?process_assert@@YGXPBD0H@Z ; process_assert
$LN31@format_inc:

; 577  : 
; 578  : 			ASSERT (target);

  00b01	83 7d 10 00	 cmp	 DWORD PTR _target$[ebp], 0
  00b05	75 1a		 jne	 SHORT $LN32@format_inc
  00b07	a1 00 00 00 00	 mov	 eax, DWORD PTR ?__LINE__Var@?0??format_incoming_message@@YGPAUENTITY@@PAUMESSAGE_LOG_TYPE@@PAU2@1PAD@Z@4JA
  00b0c	05 b1 00 00 00	 add	 eax, 177		; 000000b1H
  00b11	50		 push	 eax
  00b12	68 00 00 00 00	 push	 OFFSET ??_C@_0DK@BLKECLAG@c?3?2users?2nhv90?2projects?2eech?2ap@
  00b17	68 00 00 00 00	 push	 OFFSET ??_C@_06JJLAMBGK@target@
  00b1c	e8 00 00 00 00	 call	 ?process_assert@@YGXPBD0H@Z ; process_assert
$LN32@format_inc:

; 579  : 
; 580  : 			ASSERT (raw_string == NULL);

  00b21	83 7d 14 00	 cmp	 DWORD PTR _raw_string$[ebp], 0
  00b25	74 1a		 je	 SHORT $LN33@format_inc
  00b27	a1 00 00 00 00	 mov	 eax, DWORD PTR ?__LINE__Var@?0??format_incoming_message@@YGPAUENTITY@@PAUMESSAGE_LOG_TYPE@@PAU2@1PAD@Z@4JA
  00b2c	05 b3 00 00 00	 add	 eax, 179		; 000000b3H
  00b31	50		 push	 eax
  00b32	68 00 00 00 00	 push	 OFFSET ??_C@_0DK@BLKECLAG@c?3?2users?2nhv90?2projects?2eech?2ap@
  00b37	68 00 00 00 00	 push	 OFFSET ??_C@_0BD@PFNECLNE@raw_string?5?$DN?$DN?5NULL@
  00b3c	e8 00 00 00 00	 call	 ?process_assert@@YGXPBD0H@Z ; process_assert
$LN33@format_inc:

; 581  : 
; 582  : 			sprintf (temp_string, "%s %s %s", get_local_entity_string (target, STRING_TYPE_FULL_NAME), get_trans ("destroyed by"), get_local_entity_string (sender, STRING_TYPE_FULL_NAME));

  00b41	83 7d 0c 00	 cmp	 DWORD PTR _sender$[ebp], 0
  00b45	74 0d		 je	 SHORT $LN127@format_inc
  00b47	8b 45 0c	 mov	 eax, DWORD PTR _sender$[ebp]
  00b4a	8b 08		 mov	 ecx, DWORD PTR [eax]
  00b4c	89 8d e8 fc ff
	ff		 mov	 DWORD PTR tv475[ebp], ecx
  00b52	eb 27		 jmp	 SHORT $LN128@format_inc
$LN127@format_inc:
  00b54	8b 15 00 00 00
	00		 mov	 edx, DWORD PTR ?__LINE__Var@?0??format_incoming_message@@YGPAUENTITY@@PAUMESSAGE_LOG_TYPE@@PAU2@1PAD@Z@4JA
  00b5a	81 c2 b5 00 00
	00		 add	 edx, 181		; 000000b5H
  00b60	52		 push	 edx
  00b61	68 00 00 00 00	 push	 OFFSET ??_C@_0DK@BLKECLAG@c?3?2users?2nhv90?2projects?2eech?2ap@
  00b66	a1 00 00 00 00	 mov	 eax, DWORD PTR ?null_entity_pointer_message@@3PBDB ; null_entity_pointer_message
  00b6b	50		 push	 eax
  00b6c	e8 00 00 00 00	 call	 ?process_assert@@YGXPBD0H@Z ; process_assert
  00b71	c7 85 e8 fc ff
	ff 00 00 00 00	 mov	 DWORD PTR tv475[ebp], 0
$LN128@format_inc:
  00b7b	b9 01 00 00 00	 mov	 ecx, 1
  00b80	85 c9		 test	 ecx, ecx
  00b82	74 0c		 je	 SHORT $LN129@format_inc
  00b84	c7 85 e4 fc ff
	ff 03 00 00 00	 mov	 DWORD PTR tv515[ebp], 3
  00b8e	eb 27		 jmp	 SHORT $LN130@format_inc
$LN129@format_inc:
  00b90	8b 15 00 00 00
	00		 mov	 edx, DWORD PTR ?__LINE__Var@?0??format_incoming_message@@YGPAUENTITY@@PAUMESSAGE_LOG_TYPE@@PAU2@1PAD@Z@4JA
  00b96	81 c2 b5 00 00
	00		 add	 edx, 181		; 000000b5H
  00b9c	52		 push	 edx
  00b9d	68 00 00 00 00	 push	 OFFSET ??_C@_0DK@BLKECLAG@c?3?2users?2nhv90?2projects?2eech?2ap@
  00ba2	a1 00 00 00 00	 mov	 eax, DWORD PTR ?overload_invalid_string_type_message@@3PBDB ; overload_invalid_string_type_message
  00ba7	50		 push	 eax
  00ba8	e8 00 00 00 00	 call	 ?process_assert@@YGXPBD0H@Z ; process_assert
  00bad	c7 85 e4 fc ff
	ff 00 00 00 00	 mov	 DWORD PTR tv515[ebp], 0
$LN130@format_inc:
  00bb7	83 7d 10 00	 cmp	 DWORD PTR _target$[ebp], 0
  00bbb	74 0d		 je	 SHORT $LN131@format_inc
  00bbd	8b 4d 10	 mov	 ecx, DWORD PTR _target$[ebp]
  00bc0	8b 11		 mov	 edx, DWORD PTR [ecx]
  00bc2	89 95 e0 fc ff
	ff		 mov	 DWORD PTR tv531[ebp], edx
  00bc8	eb 26		 jmp	 SHORT $LN132@format_inc
$LN131@format_inc:
  00bca	a1 00 00 00 00	 mov	 eax, DWORD PTR ?__LINE__Var@?0??format_incoming_message@@YGPAUENTITY@@PAUMESSAGE_LOG_TYPE@@PAU2@1PAD@Z@4JA
  00bcf	05 b5 00 00 00	 add	 eax, 181		; 000000b5H
  00bd4	50		 push	 eax
  00bd5	68 00 00 00 00	 push	 OFFSET ??_C@_0DK@BLKECLAG@c?3?2users?2nhv90?2projects?2eech?2ap@
  00bda	8b 0d 00 00 00
	00		 mov	 ecx, DWORD PTR ?null_entity_pointer_message@@3PBDB ; null_entity_pointer_message
  00be0	51		 push	 ecx
  00be1	e8 00 00 00 00	 call	 ?process_assert@@YGXPBD0H@Z ; process_assert
  00be6	c7 85 e0 fc ff
	ff 00 00 00 00	 mov	 DWORD PTR tv531[ebp], 0
$LN132@format_inc:
  00bf0	ba 01 00 00 00	 mov	 edx, 1
  00bf5	85 d2		 test	 edx, edx
  00bf7	74 0c		 je	 SHORT $LN133@format_inc
  00bf9	c7 85 dc fc ff
	ff 03 00 00 00	 mov	 DWORD PTR tv539[ebp], 3
  00c03	eb 26		 jmp	 SHORT $LN134@format_inc
$LN133@format_inc:
  00c05	a1 00 00 00 00	 mov	 eax, DWORD PTR ?__LINE__Var@?0??format_incoming_message@@YGPAUENTITY@@PAUMESSAGE_LOG_TYPE@@PAU2@1PAD@Z@4JA
  00c0a	05 b5 00 00 00	 add	 eax, 181		; 000000b5H
  00c0f	50		 push	 eax
  00c10	68 00 00 00 00	 push	 OFFSET ??_C@_0DK@BLKECLAG@c?3?2users?2nhv90?2projects?2eech?2ap@
  00c15	8b 0d 00 00 00
	00		 mov	 ecx, DWORD PTR ?overload_invalid_string_type_message@@3PBDB ; overload_invalid_string_type_message
  00c1b	51		 push	 ecx
  00c1c	e8 00 00 00 00	 call	 ?process_assert@@YGXPBD0H@Z ; process_assert
  00c21	c7 85 dc fc ff
	ff 00 00 00 00	 mov	 DWORD PTR tv539[ebp], 0
$LN134@format_inc:
  00c2b	6a 03		 push	 3
  00c2d	8b 55 0c	 mov	 edx, DWORD PTR _sender$[ebp]
  00c30	52		 push	 edx
  00c31	6b 85 e8 fc ff
	ff 34		 imul	 eax, DWORD PTR tv475[ebp], 52
  00c38	8b 8d e4 fc ff
	ff		 mov	 ecx, DWORD PTR tv515[ebp]
  00c3e	8b 94 88 00 00
	00 00		 mov	 edx, DWORD PTR ?fn_get_local_entity_string@@3PAY0N@P6GPBDPAUENTITY@@W4STRING_TYPES@@@ZA[eax+ecx*4]
  00c45	ff d2		 call	 edx
  00c47	50		 push	 eax
  00c48	68 00 00 00 00	 push	 OFFSET ??_C@_0N@JJCLPCKK@destroyed?5by@
  00c4d	e8 00 00 00 00	 call	 ?get_trans@@YGPBDPBD@Z	; get_trans
  00c52	50		 push	 eax
  00c53	6a 03		 push	 3
  00c55	8b 45 10	 mov	 eax, DWORD PTR _target$[ebp]
  00c58	50		 push	 eax
  00c59	6b 8d e0 fc ff
	ff 34		 imul	 ecx, DWORD PTR tv531[ebp], 52
  00c60	8b 95 dc fc ff
	ff		 mov	 edx, DWORD PTR tv539[ebp]
  00c66	8b 84 91 00 00
	00 00		 mov	 eax, DWORD PTR ?fn_get_local_entity_string@@3PAY0N@P6GPBDPAUENTITY@@W4STRING_TYPES@@@ZA[ecx+edx*4]
  00c6d	ff d0		 call	 eax
  00c6f	50		 push	 eax
  00c70	68 00 00 00 00	 push	 OFFSET ??_C@_08EPEHIMMI@?$CFs?5?$CFs?5?$CFs@
  00c75	8d 8d f4 fd ff
	ff		 lea	 ecx, DWORD PTR _temp_string$[ebp]
  00c7b	51		 push	 ecx
  00c7c	e8 00 00 00 00	 call	 _sprintf
  00c81	83 c4 14	 add	 esp, 20			; 00000014H

; 583  : 
; 584  : 			get_local_entity_vec3d (target, VEC3D_TYPE_POSITION, &(message->position));

  00c84	83 7d 10 00	 cmp	 DWORD PTR _target$[ebp], 0
  00c88	74 0d		 je	 SHORT $LN135@format_inc
  00c8a	8b 45 10	 mov	 eax, DWORD PTR _target$[ebp]
  00c8d	8b 08		 mov	 ecx, DWORD PTR [eax]
  00c8f	89 8d e8 fc ff
	ff		 mov	 DWORD PTR tv553[ebp], ecx
  00c95	eb 27		 jmp	 SHORT $LN136@format_inc
$LN135@format_inc:
  00c97	8b 15 00 00 00
	00		 mov	 edx, DWORD PTR ?__LINE__Var@?0??format_incoming_message@@YGPAUENTITY@@PAUMESSAGE_LOG_TYPE@@PAU2@1PAD@Z@4JA
  00c9d	81 c2 b7 00 00
	00		 add	 edx, 183		; 000000b7H
  00ca3	52		 push	 edx
  00ca4	68 00 00 00 00	 push	 OFFSET ??_C@_0DK@BLKECLAG@c?3?2users?2nhv90?2projects?2eech?2ap@
  00ca9	a1 00 00 00 00	 mov	 eax, DWORD PTR ?null_entity_pointer_message@@3PBDB ; null_entity_pointer_message
  00cae	50		 push	 eax
  00caf	e8 00 00 00 00	 call	 ?process_assert@@YGXPBD0H@Z ; process_assert
  00cb4	c7 85 e8 fc ff
	ff 00 00 00 00	 mov	 DWORD PTR tv553[ebp], 0
$LN136@format_inc:
  00cbe	b9 01 00 00 00	 mov	 ecx, 1
  00cc3	85 c9		 test	 ecx, ecx
  00cc5	74 0c		 je	 SHORT $LN137@format_inc
  00cc7	c7 85 e4 fc ff
	ff 08 00 00 00	 mov	 DWORD PTR tv561[ebp], 8
  00cd1	eb 27		 jmp	 SHORT $LN138@format_inc
$LN137@format_inc:
  00cd3	8b 15 00 00 00
	00		 mov	 edx, DWORD PTR ?__LINE__Var@?0??format_incoming_message@@YGPAUENTITY@@PAUMESSAGE_LOG_TYPE@@PAU2@1PAD@Z@4JA
  00cd9	81 c2 b7 00 00
	00		 add	 edx, 183		; 000000b7H
  00cdf	52		 push	 edx
  00ce0	68 00 00 00 00	 push	 OFFSET ??_C@_0DK@BLKECLAG@c?3?2users?2nhv90?2projects?2eech?2ap@
  00ce5	a1 00 00 00 00	 mov	 eax, DWORD PTR ?overload_invalid_vec3d_type_message@@3PBDB ; overload_invalid_vec3d_type_message
  00cea	50		 push	 eax
  00ceb	e8 00 00 00 00	 call	 ?process_assert@@YGXPBD0H@Z ; process_assert
  00cf0	c7 85 e4 fc ff
	ff 00 00 00 00	 mov	 DWORD PTR tv561[ebp], 0
$LN138@format_inc:
  00cfa	8b 4d 08	 mov	 ecx, DWORD PTR _message$[ebp]
  00cfd	83 c1 0c	 add	 ecx, 12			; 0000000cH
  00d00	51		 push	 ecx
  00d01	6a 08		 push	 8
  00d03	8b 55 10	 mov	 edx, DWORD PTR _target$[ebp]
  00d06	52		 push	 edx
  00d07	6b 85 e8 fc ff
	ff 60		 imul	 eax, DWORD PTR tv553[ebp], 96
  00d0e	8b 8d e4 fc ff
	ff		 mov	 ecx, DWORD PTR tv561[ebp]
  00d14	8b 94 88 00 00
	00 00		 mov	 edx, DWORD PTR ?fn_get_local_entity_vec3d@@3PAY0BI@P6GXPAUENTITY@@W4VEC3D_TYPES@@PAUVEC3D@@@ZA[eax+ecx*4]
  00d1b	ff d2		 call	 edx

; 585  : 
; 586  : 			if (get_local_entity_int_value (target, INT_TYPE_SIDE) == side)

  00d1d	83 7d 10 00	 cmp	 DWORD PTR _target$[ebp], 0
  00d21	74 0d		 je	 SHORT $LN139@format_inc
  00d23	8b 45 10	 mov	 eax, DWORD PTR _target$[ebp]
  00d26	8b 08		 mov	 ecx, DWORD PTR [eax]
  00d28	89 8d e8 fc ff
	ff		 mov	 DWORD PTR tv573[ebp], ecx
  00d2e	eb 20		 jmp	 SHORT $LN140@format_inc
$LN139@format_inc:
  00d30	68 4a 02 00 00	 push	 586			; 0000024aH
  00d35	68 00 00 00 00	 push	 OFFSET ??_C@_0DK@BLKECLAG@c?3?2users?2nhv90?2projects?2eech?2ap@
  00d3a	8b 15 00 00 00
	00		 mov	 edx, DWORD PTR ?null_entity_pointer_message@@3PBDB ; null_entity_pointer_message
  00d40	52		 push	 edx
  00d41	e8 00 00 00 00	 call	 ?process_assert@@YGXPBD0H@Z ; process_assert
  00d46	c7 85 e8 fc ff
	ff 00 00 00 00	 mov	 DWORD PTR tv573[ebp], 0
$LN140@format_inc:
  00d50	b8 01 00 00 00	 mov	 eax, 1
  00d55	85 c0		 test	 eax, eax
  00d57	74 0c		 je	 SHORT $LN141@format_inc
  00d59	c7 85 e4 fc ff
	ff bb 00 00 00	 mov	 DWORD PTR tv580[ebp], 187 ; 000000bbH
  00d63	eb 20		 jmp	 SHORT $LN142@format_inc
$LN141@format_inc:
  00d65	68 4a 02 00 00	 push	 586			; 0000024aH
  00d6a	68 00 00 00 00	 push	 OFFSET ??_C@_0DK@BLKECLAG@c?3?2users?2nhv90?2projects?2eech?2ap@
  00d6f	8b 0d 00 00 00
	00		 mov	 ecx, DWORD PTR ?overload_invalid_int_type_message@@3PBDB ; overload_invalid_int_type_message
  00d75	51		 push	 ecx
  00d76	e8 00 00 00 00	 call	 ?process_assert@@YGXPBD0H@Z ; process_assert
  00d7b	c7 85 e4 fc ff
	ff 00 00 00 00	 mov	 DWORD PTR tv580[ebp], 0
$LN142@format_inc:
  00d85	68 bb 00 00 00	 push	 187			; 000000bbH
  00d8a	8b 55 10	 mov	 edx, DWORD PTR _target$[ebp]
  00d8d	52		 push	 edx
  00d8e	69 85 e8 fc ff
	ff 5c 04 00 00	 imul	 eax, DWORD PTR tv573[ebp], 1116
  00d98	8b 8d e4 fc ff
	ff		 mov	 ecx, DWORD PTR tv580[ebp]
  00d9e	8b 94 88 00 00
	00 00		 mov	 edx, DWORD PTR ?fn_get_local_entity_int_value@@3PAY0BBH@P6GHPAUENTITY@@W4INT_TYPES@@@ZA[eax+ecx*4]
  00da5	ff d2		 call	 edx
  00da7	3b 85 dc fd ff
	ff		 cmp	 eax, DWORD PTR _side$[ebp]
  00dad	75 15		 jne	 SHORT $LN34@format_inc

; 587  : 			{
; 588  : 				message->colour = message_side_colour [enemy_side];

  00daf	8b 85 d8 fd ff
	ff		 mov	 eax, DWORD PTR _enemy_side$[ebp]
  00db5	8b 0c 85 00 00
	00 00		 mov	 ecx, DWORD PTR ?message_side_colour@@3PAUREAL_COLOUR@@A[eax*4]
  00dbc	8b 55 08	 mov	 edx, DWORD PTR _message$[ebp]
  00dbf	89 4a 18	 mov	 DWORD PTR [edx+24], ecx

; 589  : 			}
; 590  : 			else

  00dc2	eb 13		 jmp	 SHORT $LN35@format_inc
$LN34@format_inc:

; 591  : 			{
; 592  : 				message->colour = message_side_colour [side];

  00dc4	8b 85 dc fd ff
	ff		 mov	 eax, DWORD PTR _side$[ebp]
  00dca	8b 0c 85 00 00
	00 00		 mov	 ecx, DWORD PTR ?message_side_colour@@3PAUREAL_COLOUR@@A[eax*4]
  00dd1	8b 55 08	 mov	 edx, DWORD PTR _message$[ebp]
  00dd4	89 4a 18	 mov	 DWORD PTR [edx+24], ecx
$LN35@format_inc:

; 593  : 			}
; 594  : 
; 595  : 			subject = target;

  00dd7	8b 45 10	 mov	 eax, DWORD PTR _target$[ebp]
  00dda	89 85 e8 fd ff
	ff		 mov	 DWORD PTR _subject$[ebp], eax

; 596  : 
; 597  : 			break;

  00de0	e9 f2 15 00 00	 jmp	 $LN2@format_inc
$LN36@format_inc:

; 598  : 		}
; 599  : 
; 600  : 		case MESSAGE_TEXT_SYSTEM_ENTITY_UNDER_ATTACK:
; 601  : 		{
; 602  : 			ASSERT (sender);

  00de5	83 7d 0c 00	 cmp	 DWORD PTR _sender$[ebp], 0
  00de9	75 1a		 jne	 SHORT $LN37@format_inc
  00deb	a1 00 00 00 00	 mov	 eax, DWORD PTR ?__LINE__Var@?0??format_incoming_message@@YGPAUENTITY@@PAUMESSAGE_LOG_TYPE@@PAU2@1PAD@Z@4JA
  00df0	05 c9 00 00 00	 add	 eax, 201		; 000000c9H
  00df5	50		 push	 eax
  00df6	68 00 00 00 00	 push	 OFFSET ??_C@_0DK@BLKECLAG@c?3?2users?2nhv90?2projects?2eech?2ap@
  00dfb	68 00 00 00 00	 push	 OFFSET ??_C@_06CGHJMPBJ@sender@
  00e00	e8 00 00 00 00	 call	 ?process_assert@@YGXPBD0H@Z ; process_assert
$LN37@format_inc:

; 603  : 
; 604  : 			ASSERT (target);

  00e05	83 7d 10 00	 cmp	 DWORD PTR _target$[ebp], 0
  00e09	75 1a		 jne	 SHORT $LN38@format_inc
  00e0b	a1 00 00 00 00	 mov	 eax, DWORD PTR ?__LINE__Var@?0??format_incoming_message@@YGPAUENTITY@@PAUMESSAGE_LOG_TYPE@@PAU2@1PAD@Z@4JA
  00e10	05 cb 00 00 00	 add	 eax, 203		; 000000cbH
  00e15	50		 push	 eax
  00e16	68 00 00 00 00	 push	 OFFSET ??_C@_0DK@BLKECLAG@c?3?2users?2nhv90?2projects?2eech?2ap@
  00e1b	68 00 00 00 00	 push	 OFFSET ??_C@_06JJLAMBGK@target@
  00e20	e8 00 00 00 00	 call	 ?process_assert@@YGXPBD0H@Z ; process_assert
$LN38@format_inc:

; 605  : 
; 606  : 			ASSERT (raw_string == NULL);

  00e25	83 7d 14 00	 cmp	 DWORD PTR _raw_string$[ebp], 0
  00e29	74 1a		 je	 SHORT $LN39@format_inc
  00e2b	a1 00 00 00 00	 mov	 eax, DWORD PTR ?__LINE__Var@?0??format_incoming_message@@YGPAUENTITY@@PAUMESSAGE_LOG_TYPE@@PAU2@1PAD@Z@4JA
  00e30	05 cd 00 00 00	 add	 eax, 205		; 000000cdH
  00e35	50		 push	 eax
  00e36	68 00 00 00 00	 push	 OFFSET ??_C@_0DK@BLKECLAG@c?3?2users?2nhv90?2projects?2eech?2ap@
  00e3b	68 00 00 00 00	 push	 OFFSET ??_C@_0BD@PFNECLNE@raw_string?5?$DN?$DN?5NULL@
  00e40	e8 00 00 00 00	 call	 ?process_assert@@YGXPBD0H@Z ; process_assert
$LN39@format_inc:

; 607  : 
; 608  : 			ASSERT ((get_local_entity_type (target) == ENTITY_TYPE_GROUP) || (get_local_entity_type (target) == ENTITY_TYPE_KEYSITE));

  00e45	83 7d 10 00	 cmp	 DWORD PTR _target$[ebp], 0
  00e49	74 0d		 je	 SHORT $LN143@format_inc
  00e4b	8b 45 10	 mov	 eax, DWORD PTR _target$[ebp]
  00e4e	8b 08		 mov	 ecx, DWORD PTR [eax]
  00e50	89 8d e8 fc ff
	ff		 mov	 DWORD PTR tv616[ebp], ecx
  00e56	eb 27		 jmp	 SHORT $LN144@format_inc
$LN143@format_inc:
  00e58	8b 15 00 00 00
	00		 mov	 edx, DWORD PTR ?__LINE__Var@?0??format_incoming_message@@YGPAUENTITY@@PAUMESSAGE_LOG_TYPE@@PAU2@1PAD@Z@4JA
  00e5e	81 c2 cf 00 00
	00		 add	 edx, 207		; 000000cfH
  00e64	52		 push	 edx
  00e65	68 00 00 00 00	 push	 OFFSET ??_C@_0DK@BLKECLAG@c?3?2users?2nhv90?2projects?2eech?2ap@
  00e6a	a1 00 00 00 00	 mov	 eax, DWORD PTR ?null_entity_pointer_message@@3PBDB ; null_entity_pointer_message
  00e6f	50		 push	 eax
  00e70	e8 00 00 00 00	 call	 ?process_assert@@YGXPBD0H@Z ; process_assert
  00e75	c7 85 e8 fc ff
	ff 00 00 00 00	 mov	 DWORD PTR tv616[ebp], 0
$LN144@format_inc:
  00e7f	83 bd e8 fc ff
	ff 0c		 cmp	 DWORD PTR tv616[ebp], 12 ; 0000000cH
  00e86	74 5d		 je	 SHORT $LN40@format_inc
  00e88	83 7d 10 00	 cmp	 DWORD PTR _target$[ebp], 0
  00e8c	74 0d		 je	 SHORT $LN145@format_inc
  00e8e	8b 45 10	 mov	 eax, DWORD PTR _target$[ebp]
  00e91	8b 08		 mov	 ecx, DWORD PTR [eax]
  00e93	89 8d e8 fc ff
	ff		 mov	 DWORD PTR tv624[ebp], ecx
  00e99	eb 27		 jmp	 SHORT $LN146@format_inc
$LN145@format_inc:
  00e9b	8b 15 00 00 00
	00		 mov	 edx, DWORD PTR ?__LINE__Var@?0??format_incoming_message@@YGPAUENTITY@@PAUMESSAGE_LOG_TYPE@@PAU2@1PAD@Z@4JA
  00ea1	81 c2 cf 00 00
	00		 add	 edx, 207		; 000000cfH
  00ea7	52		 push	 edx
  00ea8	68 00 00 00 00	 push	 OFFSET ??_C@_0DK@BLKECLAG@c?3?2users?2nhv90?2projects?2eech?2ap@
  00ead	a1 00 00 00 00	 mov	 eax, DWORD PTR ?null_entity_pointer_message@@3PBDB ; null_entity_pointer_message
  00eb2	50		 push	 eax
  00eb3	e8 00 00 00 00	 call	 ?process_assert@@YGXPBD0H@Z ; process_assert
  00eb8	c7 85 e8 fc ff
	ff 00 00 00 00	 mov	 DWORD PTR tv624[ebp], 0
$LN146@format_inc:
  00ec2	83 bd e8 fc ff
	ff 0f		 cmp	 DWORD PTR tv624[ebp], 15 ; 0000000fH
  00ec9	74 1a		 je	 SHORT $LN40@format_inc
  00ecb	a1 00 00 00 00	 mov	 eax, DWORD PTR ?__LINE__Var@?0??format_incoming_message@@YGPAUENTITY@@PAUMESSAGE_LOG_TYPE@@PAU2@1PAD@Z@4JA
  00ed0	05 cf 00 00 00	 add	 eax, 207		; 000000cfH
  00ed5	50		 push	 eax
  00ed6	68 00 00 00 00	 push	 OFFSET ??_C@_0DK@BLKECLAG@c?3?2users?2nhv90?2projects?2eech?2ap@
  00edb	68 00 00 00 00	 push	 OFFSET ??_C@_0HB@PIDPAHH@?$CIget_local_entity_type?5?$CItarget?$CJ@
  00ee0	e8 00 00 00 00	 call	 ?process_assert@@YGXPBD0H@Z ; process_assert
$LN40@format_inc:

; 609  : 
; 610  : 			if (get_local_entity_type (target) == ENTITY_TYPE_GROUP)

  00ee5	83 7d 10 00	 cmp	 DWORD PTR _target$[ebp], 0
  00ee9	74 0d		 je	 SHORT $LN147@format_inc
  00eeb	8b 45 10	 mov	 eax, DWORD PTR _target$[ebp]
  00eee	8b 08		 mov	 ecx, DWORD PTR [eax]
  00ef0	89 8d e8 fc ff
	ff		 mov	 DWORD PTR tv635[ebp], ecx
  00ef6	eb 20		 jmp	 SHORT $LN148@format_inc
$LN147@format_inc:
  00ef8	68 62 02 00 00	 push	 610			; 00000262H
  00efd	68 00 00 00 00	 push	 OFFSET ??_C@_0DK@BLKECLAG@c?3?2users?2nhv90?2projects?2eech?2ap@
  00f02	8b 15 00 00 00
	00		 mov	 edx, DWORD PTR ?null_entity_pointer_message@@3PBDB ; null_entity_pointer_message
  00f08	52		 push	 edx
  00f09	e8 00 00 00 00	 call	 ?process_assert@@YGXPBD0H@Z ; process_assert
  00f0e	c7 85 e8 fc ff
	ff 00 00 00 00	 mov	 DWORD PTR tv635[ebp], 0
$LN148@format_inc:
  00f18	83 bd e8 fc ff
	ff 0c		 cmp	 DWORD PTR tv635[ebp], 12 ; 0000000cH
  00f1f	0f 85 aa 02 00
	00		 jne	 $LN41@format_inc

; 611  : 			{
; 612  : 				entity
; 613  : 					*division;
; 614  : 
; 615  : 				division = get_local_entity_parent (target, LIST_TYPE_DIVISION);

  00f25	83 7d 10 00	 cmp	 DWORD PTR _target$[ebp], 0
  00f29	74 0d		 je	 SHORT $LN149@format_inc
  00f2b	8b 45 10	 mov	 eax, DWORD PTR _target$[ebp]
  00f2e	8b 08		 mov	 ecx, DWORD PTR [eax]
  00f30	89 8d e8 fc ff
	ff		 mov	 DWORD PTR tv643[ebp], ecx
  00f36	eb 27		 jmp	 SHORT $LN150@format_inc
$LN149@format_inc:
  00f38	8b 15 00 00 00
	00		 mov	 edx, DWORD PTR ?__LINE__Var@?0??format_incoming_message@@YGPAUENTITY@@PAUMESSAGE_LOG_TYPE@@PAU2@1PAD@Z@4JA
  00f3e	81 c2 d6 00 00
	00		 add	 edx, 214		; 000000d6H
  00f44	52		 push	 edx
  00f45	68 00 00 00 00	 push	 OFFSET ??_C@_0DK@BLKECLAG@c?3?2users?2nhv90?2projects?2eech?2ap@
  00f4a	a1 00 00 00 00	 mov	 eax, DWORD PTR ?null_entity_pointer_message@@3PBDB ; null_entity_pointer_message
  00f4f	50		 push	 eax
  00f50	e8 00 00 00 00	 call	 ?process_assert@@YGXPBD0H@Z ; process_assert
  00f55	c7 85 e8 fc ff
	ff 00 00 00 00	 mov	 DWORD PTR tv643[ebp], 0
$LN150@format_inc:
  00f5f	b9 01 00 00 00	 mov	 ecx, 1
  00f64	85 c9		 test	 ecx, ecx
  00f66	74 0c		 je	 SHORT $LN151@format_inc
  00f68	c7 85 e4 fc ff
	ff 0b 00 00 00	 mov	 DWORD PTR tv651[ebp], 11 ; 0000000bH
  00f72	eb 27		 jmp	 SHORT $LN152@format_inc
$LN151@format_inc:
  00f74	8b 15 00 00 00
	00		 mov	 edx, DWORD PTR ?__LINE__Var@?0??format_incoming_message@@YGPAUENTITY@@PAUMESSAGE_LOG_TYPE@@PAU2@1PAD@Z@4JA
  00f7a	81 c2 d6 00 00
	00		 add	 edx, 214		; 000000d6H
  00f80	52		 push	 edx
  00f81	68 00 00 00 00	 push	 OFFSET ??_C@_0DK@BLKECLAG@c?3?2users?2nhv90?2projects?2eech?2ap@
  00f86	a1 00 00 00 00	 mov	 eax, DWORD PTR ?overload_invalid_list_type_message@@3PBDB ; overload_invalid_list_type_message
  00f8b	50		 push	 eax
  00f8c	e8 00 00 00 00	 call	 ?process_assert@@YGXPBD0H@Z ; process_assert
  00f91	c7 85 e4 fc ff
	ff 00 00 00 00	 mov	 DWORD PTR tv651[ebp], 0
$LN152@format_inc:
  00f9b	6a 0b		 push	 11			; 0000000bH
  00f9d	8b 4d 10	 mov	 ecx, DWORD PTR _target$[ebp]
  00fa0	51		 push	 ecx
  00fa1	69 95 e8 fc ff
	ff b4 00 00 00	 imul	 edx, DWORD PTR tv643[ebp], 180
  00fab	8b 85 e4 fc ff
	ff		 mov	 eax, DWORD PTR tv651[ebp]
  00fb1	8b 8c 82 00 00
	00 00		 mov	 ecx, DWORD PTR ?fn_get_local_entity_parent@@3PAY0CN@P6GPAUENTITY@@PAU1@W4LIST_TYPES@@@ZA[edx+eax*4]
  00fb8	ff d1		 call	 ecx
  00fba	89 85 6c fd ff
	ff		 mov	 DWORD PTR _division$1[ebp], eax

; 616  : 
; 617  : 				ASSERT (division);

  00fc0	83 bd 6c fd ff
	ff 00		 cmp	 DWORD PTR _division$1[ebp], 0
  00fc7	75 1a		 jne	 SHORT $LN43@format_inc
  00fc9	a1 00 00 00 00	 mov	 eax, DWORD PTR ?__LINE__Var@?0??format_incoming_message@@YGPAUENTITY@@PAUMESSAGE_LOG_TYPE@@PAU2@1PAD@Z@4JA
  00fce	05 d8 00 00 00	 add	 eax, 216		; 000000d8H
  00fd3	50		 push	 eax
  00fd4	68 00 00 00 00	 push	 OFFSET ??_C@_0DK@BLKECLAG@c?3?2users?2nhv90?2projects?2eech?2ap@
  00fd9	68 00 00 00 00	 push	 OFFSET ??_C@_08DHDHNDEI@division@
  00fde	e8 00 00 00 00	 call	 ?process_assert@@YGXPBD0H@Z ; process_assert
$LN43@format_inc:

; 618  : 
; 619  : 				sprintf (temp_string, "%s, %s %s %s",

  00fe3	83 7d 0c 00	 cmp	 DWORD PTR _sender$[ebp], 0
  00fe7	74 0d		 je	 SHORT $LN153@format_inc
  00fe9	8b 45 0c	 mov	 eax, DWORD PTR _sender$[ebp]
  00fec	8b 08		 mov	 ecx, DWORD PTR [eax]
  00fee	89 8d e8 fc ff
	ff		 mov	 DWORD PTR tv670[ebp], ecx
  00ff4	eb 27		 jmp	 SHORT $LN154@format_inc
$LN153@format_inc:
  00ff6	8b 15 00 00 00
	00		 mov	 edx, DWORD PTR ?__LINE__Var@?0??format_incoming_message@@YGPAUENTITY@@PAUMESSAGE_LOG_TYPE@@PAU2@1PAD@Z@4JA
  00ffc	81 c2 de 00 00
	00		 add	 edx, 222		; 000000deH
  01002	52		 push	 edx
  01003	68 00 00 00 00	 push	 OFFSET ??_C@_0DK@BLKECLAG@c?3?2users?2nhv90?2projects?2eech?2ap@
  01008	a1 00 00 00 00	 mov	 eax, DWORD PTR ?null_entity_pointer_message@@3PBDB ; null_entity_pointer_message
  0100d	50		 push	 eax
  0100e	e8 00 00 00 00	 call	 ?process_assert@@YGXPBD0H@Z ; process_assert
  01013	c7 85 e8 fc ff
	ff 00 00 00 00	 mov	 DWORD PTR tv670[ebp], 0
$LN154@format_inc:
  0101d	b9 01 00 00 00	 mov	 ecx, 1
  01022	85 c9		 test	 ecx, ecx
  01024	74 0c		 je	 SHORT $LN155@format_inc
  01026	c7 85 e4 fc ff
	ff 03 00 00 00	 mov	 DWORD PTR tv678[ebp], 3
  01030	eb 27		 jmp	 SHORT $LN156@format_inc
$LN155@format_inc:
  01032	8b 15 00 00 00
	00		 mov	 edx, DWORD PTR ?__LINE__Var@?0??format_incoming_message@@YGPAUENTITY@@PAUMESSAGE_LOG_TYPE@@PAU2@1PAD@Z@4JA
  01038	81 c2 de 00 00
	00		 add	 edx, 222		; 000000deH
  0103e	52		 push	 edx
  0103f	68 00 00 00 00	 push	 OFFSET ??_C@_0DK@BLKECLAG@c?3?2users?2nhv90?2projects?2eech?2ap@
  01044	a1 00 00 00 00	 mov	 eax, DWORD PTR ?overload_invalid_string_type_message@@3PBDB ; overload_invalid_string_type_message
  01049	50		 push	 eax
  0104a	e8 00 00 00 00	 call	 ?process_assert@@YGXPBD0H@Z ; process_assert
  0104f	c7 85 e4 fc ff
	ff 00 00 00 00	 mov	 DWORD PTR tv678[ebp], 0
$LN156@format_inc:
  01059	83 bd 6c fd ff
	ff 00		 cmp	 DWORD PTR _division$1[ebp], 0
  01060	74 10		 je	 SHORT $LN157@format_inc
  01062	8b 8d 6c fd ff
	ff		 mov	 ecx, DWORD PTR _division$1[ebp]
  01068	8b 11		 mov	 edx, DWORD PTR [ecx]
  0106a	89 95 e0 fc ff
	ff		 mov	 DWORD PTR tv695[ebp], edx
  01070	eb 26		 jmp	 SHORT $LN158@format_inc
$LN157@format_inc:
  01072	a1 00 00 00 00	 mov	 eax, DWORD PTR ?__LINE__Var@?0??format_incoming_message@@YGPAUENTITY@@PAUMESSAGE_LOG_TYPE@@PAU2@1PAD@Z@4JA
  01077	05 dc 00 00 00	 add	 eax, 220		; 000000dcH
  0107c	50		 push	 eax
  0107d	68 00 00 00 00	 push	 OFFSET ??_C@_0DK@BLKECLAG@c?3?2users?2nhv90?2projects?2eech?2ap@
  01082	8b 0d 00 00 00
	00		 mov	 ecx, DWORD PTR ?null_entity_pointer_message@@3PBDB ; null_entity_pointer_message
  01088	51		 push	 ecx
  01089	e8 00 00 00 00	 call	 ?process_assert@@YGXPBD0H@Z ; process_assert
  0108e	c7 85 e0 fc ff
	ff 00 00 00 00	 mov	 DWORD PTR tv695[ebp], 0
$LN158@format_inc:
  01098	ba 01 00 00 00	 mov	 edx, 1
  0109d	85 d2		 test	 edx, edx
  0109f	74 0c		 je	 SHORT $LN159@format_inc
  010a1	c7 85 dc fc ff
	ff 00 00 00 00	 mov	 DWORD PTR tv703[ebp], 0
  010ab	eb 26		 jmp	 SHORT $LN160@format_inc
$LN159@format_inc:
  010ad	a1 00 00 00 00	 mov	 eax, DWORD PTR ?__LINE__Var@?0??format_incoming_message@@YGPAUENTITY@@PAUMESSAGE_LOG_TYPE@@PAU2@1PAD@Z@4JA
  010b2	05 dc 00 00 00	 add	 eax, 220		; 000000dcH
  010b7	50		 push	 eax
  010b8	68 00 00 00 00	 push	 OFFSET ??_C@_0DK@BLKECLAG@c?3?2users?2nhv90?2projects?2eech?2ap@
  010bd	8b 0d 00 00 00
	00		 mov	 ecx, DWORD PTR ?overload_invalid_string_type_message@@3PBDB ; overload_invalid_string_type_message
  010c3	51		 push	 ecx
  010c4	e8 00 00 00 00	 call	 ?process_assert@@YGXPBD0H@Z ; process_assert
  010c9	c7 85 dc fc ff
	ff 00 00 00 00	 mov	 DWORD PTR tv703[ebp], 0
$LN160@format_inc:
  010d3	83 7d 10 00	 cmp	 DWORD PTR _target$[ebp], 0
  010d7	74 0d		 je	 SHORT $LN161@format_inc
  010d9	8b 55 10	 mov	 edx, DWORD PTR _target$[ebp]
  010dc	8b 02		 mov	 eax, DWORD PTR [edx]
  010de	89 85 d8 fc ff
	ff		 mov	 DWORD PTR tv716[ebp], eax
  010e4	eb 28		 jmp	 SHORT $LN162@format_inc
$LN161@format_inc:
  010e6	8b 0d 00 00 00
	00		 mov	 ecx, DWORD PTR ?__LINE__Var@?0??format_incoming_message@@YGPAUENTITY@@PAUMESSAGE_LOG_TYPE@@PAU2@1PAD@Z@4JA
  010ec	81 c1 db 00 00
	00		 add	 ecx, 219		; 000000dbH
  010f2	51		 push	 ecx
  010f3	68 00 00 00 00	 push	 OFFSET ??_C@_0DK@BLKECLAG@c?3?2users?2nhv90?2projects?2eech?2ap@
  010f8	8b 15 00 00 00
	00		 mov	 edx, DWORD PTR ?null_entity_pointer_message@@3PBDB ; null_entity_pointer_message
  010fe	52		 push	 edx
  010ff	e8 00 00 00 00	 call	 ?process_assert@@YGXPBD0H@Z ; process_assert
  01104	c7 85 d8 fc ff
	ff 00 00 00 00	 mov	 DWORD PTR tv716[ebp], 0
$LN162@format_inc:
  0110e	b8 01 00 00 00	 mov	 eax, 1
  01113	85 c0		 test	 eax, eax
  01115	74 0c		 je	 SHORT $LN163@format_inc
  01117	c7 85 d4 fc ff
	ff 00 00 00 00	 mov	 DWORD PTR tv724[ebp], 0
  01121	eb 28		 jmp	 SHORT $LN164@format_inc
$LN163@format_inc:
  01123	8b 0d 00 00 00
	00		 mov	 ecx, DWORD PTR ?__LINE__Var@?0??format_incoming_message@@YGPAUENTITY@@PAUMESSAGE_LOG_TYPE@@PAU2@1PAD@Z@4JA
  01129	81 c1 db 00 00
	00		 add	 ecx, 219		; 000000dbH
  0112f	51		 push	 ecx
  01130	68 00 00 00 00	 push	 OFFSET ??_C@_0DK@BLKECLAG@c?3?2users?2nhv90?2projects?2eech?2ap@
  01135	8b 15 00 00 00
	00		 mov	 edx, DWORD PTR ?overload_invalid_string_type_message@@3PBDB ; overload_invalid_string_type_message
  0113b	52		 push	 edx
  0113c	e8 00 00 00 00	 call	 ?process_assert@@YGXPBD0H@Z ; process_assert
  01141	c7 85 d4 fc ff
	ff 00 00 00 00	 mov	 DWORD PTR tv724[ebp], 0
$LN164@format_inc:
  0114b	6a 03		 push	 3
  0114d	8b 45 0c	 mov	 eax, DWORD PTR _sender$[ebp]
  01150	50		 push	 eax
  01151	6b 8d e8 fc ff
	ff 34		 imul	 ecx, DWORD PTR tv670[ebp], 52
  01158	8b 95 e4 fc ff
	ff		 mov	 edx, DWORD PTR tv678[ebp]
  0115e	8b 84 91 00 00
	00 00		 mov	 eax, DWORD PTR ?fn_get_local_entity_string@@3PAY0N@P6GPBDPAUENTITY@@W4STRING_TYPES@@@ZA[ecx+edx*4]
  01165	ff d0		 call	 eax
  01167	50		 push	 eax
  01168	e8 00 00 00 00	 call	 ?get_trans@@YGPBDPBD@Z	; get_trans
  0116d	50		 push	 eax
  0116e	68 00 00 00 00	 push	 OFFSET ??_C@_0BA@DCNJBCDL@under?5attack?5by@
  01173	e8 00 00 00 00	 call	 ?get_trans@@YGPBDPBD@Z	; get_trans
  01178	50		 push	 eax
  01179	6a 00		 push	 0
  0117b	8b 8d 6c fd ff
	ff		 mov	 ecx, DWORD PTR _division$1[ebp]
  01181	51		 push	 ecx
  01182	6b 95 e0 fc ff
	ff 34		 imul	 edx, DWORD PTR tv695[ebp], 52
  01189	8b 85 dc fc ff
	ff		 mov	 eax, DWORD PTR tv703[ebp]
  0118f	8b 8c 82 00 00
	00 00		 mov	 ecx, DWORD PTR ?fn_get_local_entity_string@@3PAY0N@P6GPBDPAUENTITY@@W4STRING_TYPES@@@ZA[edx+eax*4]
  01196	ff d1		 call	 ecx
  01198	50		 push	 eax
  01199	6a 00		 push	 0
  0119b	8b 55 10	 mov	 edx, DWORD PTR _target$[ebp]
  0119e	52		 push	 edx
  0119f	6b 85 d8 fc ff
	ff 34		 imul	 eax, DWORD PTR tv716[ebp], 52
  011a6	8b 8d d4 fc ff
	ff		 mov	 ecx, DWORD PTR tv724[ebp]
  011ac	8b 94 88 00 00
	00 00		 mov	 edx, DWORD PTR ?fn_get_local_entity_string@@3PAY0N@P6GPBDPAUENTITY@@W4STRING_TYPES@@@ZA[eax+ecx*4]
  011b3	ff d2		 call	 edx
  011b5	50		 push	 eax
  011b6	68 00 00 00 00	 push	 OFFSET ??_C@_0N@JIGEGLMG@?$CFs?0?5?$CFs?5?$CFs?5?$CFs@
  011bb	8d 85 f4 fd ff
	ff		 lea	 eax, DWORD PTR _temp_string$[ebp]
  011c1	50		 push	 eax
  011c2	e8 00 00 00 00	 call	 _sprintf
  011c7	83 c4 18	 add	 esp, 24			; 00000018H
  011ca	e9 cb 02 00 00	 jmp	 $LN45@format_inc
$LN41@format_inc:

; 620  : 							get_local_entity_string (target, STRING_TYPE_DIVISION_NAME),
; 621  : 							get_local_entity_string (division, STRING_TYPE_DIVISION_NAME),
; 622  : 							get_trans ("under attack by"),
; 623  : 							get_trans (get_local_entity_string (sender, STRING_TYPE_FULL_NAME)));
; 624  : 			}
; 625  : 			else if (get_local_entity_type (target) == ENTITY_TYPE_KEYSITE)

  011cf	83 7d 10 00	 cmp	 DWORD PTR _target$[ebp], 0
  011d3	74 0d		 je	 SHORT $LN165@format_inc
  011d5	8b 45 10	 mov	 eax, DWORD PTR _target$[ebp]
  011d8	8b 08		 mov	 ecx, DWORD PTR [eax]
  011da	89 8d e8 fc ff
	ff		 mov	 DWORD PTR tv737[ebp], ecx
  011e0	eb 20		 jmp	 SHORT $LN166@format_inc
$LN165@format_inc:
  011e2	68 71 02 00 00	 push	 625			; 00000271H
  011e7	68 00 00 00 00	 push	 OFFSET ??_C@_0DK@BLKECLAG@c?3?2users?2nhv90?2projects?2eech?2ap@
  011ec	8b 15 00 00 00
	00		 mov	 edx, DWORD PTR ?null_entity_pointer_message@@3PBDB ; null_entity_pointer_message
  011f2	52		 push	 edx
  011f3	e8 00 00 00 00	 call	 ?process_assert@@YGXPBD0H@Z ; process_assert
  011f8	c7 85 e8 fc ff
	ff 00 00 00 00	 mov	 DWORD PTR tv737[ebp], 0
$LN166@format_inc:
  01202	83 bd e8 fc ff
	ff 0f		 cmp	 DWORD PTR tv737[ebp], 15 ; 0000000fH
  01209	0f 85 48 01 00
	00		 jne	 $LN44@format_inc

; 626  : 			{
; 627  : 				sprintf (temp_string, "%s %s %s", get_local_entity_string (target, STRING_TYPE_KEYSITE_NAME), get_trans ("under attack by"), get_local_entity_string (sender, STRING_TYPE_FULL_NAME));

  0120f	83 7d 0c 00	 cmp	 DWORD PTR _sender$[ebp], 0
  01213	74 0d		 je	 SHORT $LN167@format_inc
  01215	8b 45 0c	 mov	 eax, DWORD PTR _sender$[ebp]
  01218	8b 08		 mov	 ecx, DWORD PTR [eax]
  0121a	89 8d e8 fc ff
	ff		 mov	 DWORD PTR tv746[ebp], ecx
  01220	eb 27		 jmp	 SHORT $LN168@format_inc
$LN167@format_inc:
  01222	8b 15 00 00 00
	00		 mov	 edx, DWORD PTR ?__LINE__Var@?0??format_incoming_message@@YGPAUENTITY@@PAUMESSAGE_LOG_TYPE@@PAU2@1PAD@Z@4JA
  01228	81 c2 e2 00 00
	00		 add	 edx, 226		; 000000e2H
  0122e	52		 push	 edx
  0122f	68 00 00 00 00	 push	 OFFSET ??_C@_0DK@BLKECLAG@c?3?2users?2nhv90?2projects?2eech?2ap@
  01234	a1 00 00 00 00	 mov	 eax, DWORD PTR ?null_entity_pointer_message@@3PBDB ; null_entity_pointer_message
  01239	50		 push	 eax
  0123a	e8 00 00 00 00	 call	 ?process_assert@@YGXPBD0H@Z ; process_assert
  0123f	c7 85 e8 fc ff
	ff 00 00 00 00	 mov	 DWORD PTR tv746[ebp], 0
$LN168@format_inc:
  01249	b9 01 00 00 00	 mov	 ecx, 1
  0124e	85 c9		 test	 ecx, ecx
  01250	74 0c		 je	 SHORT $LN169@format_inc
  01252	c7 85 e4 fc ff
	ff 03 00 00 00	 mov	 DWORD PTR tv754[ebp], 3
  0125c	eb 27		 jmp	 SHORT $LN170@format_inc
$LN169@format_inc:
  0125e	8b 15 00 00 00
	00		 mov	 edx, DWORD PTR ?__LINE__Var@?0??format_incoming_message@@YGPAUENTITY@@PAUMESSAGE_LOG_TYPE@@PAU2@1PAD@Z@4JA
  01264	81 c2 e2 00 00
	00		 add	 edx, 226		; 000000e2H
  0126a	52		 push	 edx
  0126b	68 00 00 00 00	 push	 OFFSET ??_C@_0DK@BLKECLAG@c?3?2users?2nhv90?2projects?2eech?2ap@
  01270	a1 00 00 00 00	 mov	 eax, DWORD PTR ?overload_invalid_string_type_message@@3PBDB ; overload_invalid_string_type_message
  01275	50		 push	 eax
  01276	e8 00 00 00 00	 call	 ?process_assert@@YGXPBD0H@Z ; process_assert
  0127b	c7 85 e4 fc ff
	ff 00 00 00 00	 mov	 DWORD PTR tv754[ebp], 0
$LN170@format_inc:
  01285	83 7d 10 00	 cmp	 DWORD PTR _target$[ebp], 0
  01289	74 0d		 je	 SHORT $LN171@format_inc
  0128b	8b 4d 10	 mov	 ecx, DWORD PTR _target$[ebp]
  0128e	8b 11		 mov	 edx, DWORD PTR [ecx]
  01290	89 95 e0 fc ff
	ff		 mov	 DWORD PTR tv770[ebp], edx
  01296	eb 26		 jmp	 SHORT $LN172@format_inc
$LN171@format_inc:
  01298	a1 00 00 00 00	 mov	 eax, DWORD PTR ?__LINE__Var@?0??format_incoming_message@@YGPAUENTITY@@PAUMESSAGE_LOG_TYPE@@PAU2@1PAD@Z@4JA
  0129d	05 e2 00 00 00	 add	 eax, 226		; 000000e2H
  012a2	50		 push	 eax
  012a3	68 00 00 00 00	 push	 OFFSET ??_C@_0DK@BLKECLAG@c?3?2users?2nhv90?2projects?2eech?2ap@
  012a8	8b 0d 00 00 00
	00		 mov	 ecx, DWORD PTR ?null_entity_pointer_message@@3PBDB ; null_entity_pointer_message
  012ae	51		 push	 ecx
  012af	e8 00 00 00 00	 call	 ?process_assert@@YGXPBD0H@Z ; process_assert
  012b4	c7 85 e0 fc ff
	ff 00 00 00 00	 mov	 DWORD PTR tv770[ebp], 0
$LN172@format_inc:
  012be	ba 01 00 00 00	 mov	 edx, 1
  012c3	85 d2		 test	 edx, edx
  012c5	74 0c		 je	 SHORT $LN173@format_inc
  012c7	c7 85 dc fc ff
	ff 07 00 00 00	 mov	 DWORD PTR tv778[ebp], 7
  012d1	eb 26		 jmp	 SHORT $LN174@format_inc
$LN173@format_inc:
  012d3	a1 00 00 00 00	 mov	 eax, DWORD PTR ?__LINE__Var@?0??format_incoming_message@@YGPAUENTITY@@PAUMESSAGE_LOG_TYPE@@PAU2@1PAD@Z@4JA
  012d8	05 e2 00 00 00	 add	 eax, 226		; 000000e2H
  012dd	50		 push	 eax
  012de	68 00 00 00 00	 push	 OFFSET ??_C@_0DK@BLKECLAG@c?3?2users?2nhv90?2projects?2eech?2ap@
  012e3	8b 0d 00 00 00
	00		 mov	 ecx, DWORD PTR ?overload_invalid_string_type_message@@3PBDB ; overload_invalid_string_type_message
  012e9	51		 push	 ecx
  012ea	e8 00 00 00 00	 call	 ?process_assert@@YGXPBD0H@Z ; process_assert
  012ef	c7 85 dc fc ff
	ff 00 00 00 00	 mov	 DWORD PTR tv778[ebp], 0
$LN174@format_inc:
  012f9	6a 03		 push	 3
  012fb	8b 55 0c	 mov	 edx, DWORD PTR _sender$[ebp]
  012fe	52		 push	 edx
  012ff	6b 85 e8 fc ff
	ff 34		 imul	 eax, DWORD PTR tv746[ebp], 52
  01306	8b 8d e4 fc ff
	ff		 mov	 ecx, DWORD PTR tv754[ebp]
  0130c	8b 94 88 00 00
	00 00		 mov	 edx, DWORD PTR ?fn_get_local_entity_string@@3PAY0N@P6GPBDPAUENTITY@@W4STRING_TYPES@@@ZA[eax+ecx*4]
  01313	ff d2		 call	 edx
  01315	50		 push	 eax
  01316	68 00 00 00 00	 push	 OFFSET ??_C@_0BA@DCNJBCDL@under?5attack?5by@
  0131b	e8 00 00 00 00	 call	 ?get_trans@@YGPBDPBD@Z	; get_trans
  01320	50		 push	 eax
  01321	6a 07		 push	 7
  01323	8b 45 10	 mov	 eax, DWORD PTR _target$[ebp]
  01326	50		 push	 eax
  01327	6b 8d e0 fc ff
	ff 34		 imul	 ecx, DWORD PTR tv770[ebp], 52
  0132e	8b 95 dc fc ff
	ff		 mov	 edx, DWORD PTR tv778[ebp]
  01334	8b 84 91 00 00
	00 00		 mov	 eax, DWORD PTR ?fn_get_local_entity_string@@3PAY0N@P6GPBDPAUENTITY@@W4STRING_TYPES@@@ZA[ecx+edx*4]
  0133b	ff d0		 call	 eax
  0133d	50		 push	 eax
  0133e	68 00 00 00 00	 push	 OFFSET ??_C@_08EPEHIMMI@?$CFs?5?$CFs?5?$CFs@
  01343	8d 8d f4 fd ff
	ff		 lea	 ecx, DWORD PTR _temp_string$[ebp]
  01349	51		 push	 ecx
  0134a	e8 00 00 00 00	 call	 _sprintf
  0134f	83 c4 14	 add	 esp, 20			; 00000014H

; 628  : 			}
; 629  : 			else

  01352	e9 43 01 00 00	 jmp	 $LN45@format_inc
$LN44@format_inc:

; 630  : 			{
; 631  : 				sprintf (temp_string, "%s %s %s", get_local_entity_string (target, STRING_TYPE_FULL_NAME), get_trans ("under attack by"), get_local_entity_string (sender, STRING_TYPE_FULL_NAME));

  01357	83 7d 0c 00	 cmp	 DWORD PTR _sender$[ebp], 0
  0135b	74 0d		 je	 SHORT $LN175@format_inc
  0135d	8b 45 0c	 mov	 eax, DWORD PTR _sender$[ebp]
  01360	8b 08		 mov	 ecx, DWORD PTR [eax]
  01362	89 8d e8 fc ff
	ff		 mov	 DWORD PTR tv793[ebp], ecx
  01368	eb 27		 jmp	 SHORT $LN176@format_inc
$LN175@format_inc:
  0136a	8b 15 00 00 00
	00		 mov	 edx, DWORD PTR ?__LINE__Var@?0??format_incoming_message@@YGPAUENTITY@@PAUMESSAGE_LOG_TYPE@@PAU2@1PAD@Z@4JA
  01370	81 c2 e6 00 00
	00		 add	 edx, 230		; 000000e6H
  01376	52		 push	 edx
  01377	68 00 00 00 00	 push	 OFFSET ??_C@_0DK@BLKECLAG@c?3?2users?2nhv90?2projects?2eech?2ap@
  0137c	a1 00 00 00 00	 mov	 eax, DWORD PTR ?null_entity_pointer_message@@3PBDB ; null_entity_pointer_message
  01381	50		 push	 eax
  01382	e8 00 00 00 00	 call	 ?process_assert@@YGXPBD0H@Z ; process_assert
  01387	c7 85 e8 fc ff
	ff 00 00 00 00	 mov	 DWORD PTR tv793[ebp], 0
$LN176@format_inc:
  01391	b9 01 00 00 00	 mov	 ecx, 1
  01396	85 c9		 test	 ecx, ecx
  01398	74 0c		 je	 SHORT $LN177@format_inc
  0139a	c7 85 e4 fc ff
	ff 03 00 00 00	 mov	 DWORD PTR tv801[ebp], 3
  013a4	eb 27		 jmp	 SHORT $LN178@format_inc
$LN177@format_inc:
  013a6	8b 15 00 00 00
	00		 mov	 edx, DWORD PTR ?__LINE__Var@?0??format_incoming_message@@YGPAUENTITY@@PAUMESSAGE_LOG_TYPE@@PAU2@1PAD@Z@4JA
  013ac	81 c2 e6 00 00
	00		 add	 edx, 230		; 000000e6H
  013b2	52		 push	 edx
  013b3	68 00 00 00 00	 push	 OFFSET ??_C@_0DK@BLKECLAG@c?3?2users?2nhv90?2projects?2eech?2ap@
  013b8	a1 00 00 00 00	 mov	 eax, DWORD PTR ?overload_invalid_string_type_message@@3PBDB ; overload_invalid_string_type_message
  013bd	50		 push	 eax
  013be	e8 00 00 00 00	 call	 ?process_assert@@YGXPBD0H@Z ; process_assert
  013c3	c7 85 e4 fc ff
	ff 00 00 00 00	 mov	 DWORD PTR tv801[ebp], 0
$LN178@format_inc:
  013cd	83 7d 10 00	 cmp	 DWORD PTR _target$[ebp], 0
  013d1	74 0d		 je	 SHORT $LN179@format_inc
  013d3	8b 4d 10	 mov	 ecx, DWORD PTR _target$[ebp]
  013d6	8b 11		 mov	 edx, DWORD PTR [ecx]
  013d8	89 95 e0 fc ff
	ff		 mov	 DWORD PTR tv817[ebp], edx
  013de	eb 26		 jmp	 SHORT $LN180@format_inc
$LN179@format_inc:
  013e0	a1 00 00 00 00	 mov	 eax, DWORD PTR ?__LINE__Var@?0??format_incoming_message@@YGPAUENTITY@@PAUMESSAGE_LOG_TYPE@@PAU2@1PAD@Z@4JA
  013e5	05 e6 00 00 00	 add	 eax, 230		; 000000e6H
  013ea	50		 push	 eax
  013eb	68 00 00 00 00	 push	 OFFSET ??_C@_0DK@BLKECLAG@c?3?2users?2nhv90?2projects?2eech?2ap@
  013f0	8b 0d 00 00 00
	00		 mov	 ecx, DWORD PTR ?null_entity_pointer_message@@3PBDB ; null_entity_pointer_message
  013f6	51		 push	 ecx
  013f7	e8 00 00 00 00	 call	 ?process_assert@@YGXPBD0H@Z ; process_assert
  013fc	c7 85 e0 fc ff
	ff 00 00 00 00	 mov	 DWORD PTR tv817[ebp], 0
$LN180@format_inc:
  01406	ba 01 00 00 00	 mov	 edx, 1
  0140b	85 d2		 test	 edx, edx
  0140d	74 0c		 je	 SHORT $LN181@format_inc
  0140f	c7 85 dc fc ff
	ff 03 00 00 00	 mov	 DWORD PTR tv825[ebp], 3
  01419	eb 26		 jmp	 SHORT $LN182@format_inc
$LN181@format_inc:
  0141b	a1 00 00 00 00	 mov	 eax, DWORD PTR ?__LINE__Var@?0??format_incoming_message@@YGPAUENTITY@@PAUMESSAGE_LOG_TYPE@@PAU2@1PAD@Z@4JA
  01420	05 e6 00 00 00	 add	 eax, 230		; 000000e6H
  01425	50		 push	 eax
  01426	68 00 00 00 00	 push	 OFFSET ??_C@_0DK@BLKECLAG@c?3?2users?2nhv90?2projects?2eech?2ap@
  0142b	8b 0d 00 00 00
	00		 mov	 ecx, DWORD PTR ?overload_invalid_string_type_message@@3PBDB ; overload_invalid_string_type_message
  01431	51		 push	 ecx
  01432	e8 00 00 00 00	 call	 ?process_assert@@YGXPBD0H@Z ; process_assert
  01437	c7 85 dc fc ff
	ff 00 00 00 00	 mov	 DWORD PTR tv825[ebp], 0
$LN182@format_inc:
  01441	6a 03		 push	 3
  01443	8b 55 0c	 mov	 edx, DWORD PTR _sender$[ebp]
  01446	52		 push	 edx
  01447	6b 85 e8 fc ff
	ff 34		 imul	 eax, DWORD PTR tv793[ebp], 52
  0144e	8b 8d e4 fc ff
	ff		 mov	 ecx, DWORD PTR tv801[ebp]
  01454	8b 94 88 00 00
	00 00		 mov	 edx, DWORD PTR ?fn_get_local_entity_string@@3PAY0N@P6GPBDPAUENTITY@@W4STRING_TYPES@@@ZA[eax+ecx*4]
  0145b	ff d2		 call	 edx
  0145d	50		 push	 eax
  0145e	68 00 00 00 00	 push	 OFFSET ??_C@_0BA@DCNJBCDL@under?5attack?5by@
  01463	e8 00 00 00 00	 call	 ?get_trans@@YGPBDPBD@Z	; get_trans
  01468	50		 push	 eax
  01469	6a 03		 push	 3
  0146b	8b 45 10	 mov	 eax, DWORD PTR _target$[ebp]
  0146e	50		 push	 eax
  0146f	6b 8d e0 fc ff
	ff 34		 imul	 ecx, DWORD PTR tv817[ebp], 52
  01476	8b 95 dc fc ff
	ff		 mov	 edx, DWORD PTR tv825[ebp]
  0147c	8b 84 91 00 00
	00 00		 mov	 eax, DWORD PTR ?fn_get_local_entity_string@@3PAY0N@P6GPBDPAUENTITY@@W4STRING_TYPES@@@ZA[ecx+edx*4]
  01483	ff d0		 call	 eax
  01485	50		 push	 eax
  01486	68 00 00 00 00	 push	 OFFSET ??_C@_08EPEHIMMI@?$CFs?5?$CFs?5?$CFs@
  0148b	8d 8d f4 fd ff
	ff		 lea	 ecx, DWORD PTR _temp_string$[ebp]
  01491	51		 push	 ecx
  01492	e8 00 00 00 00	 call	 _sprintf
  01497	83 c4 14	 add	 esp, 20			; 00000014H
$LN45@format_inc:

; 632  : 			}
; 633  : 
; 634  : 			pos = get_local_entity_vec3d_ptr (sender, VEC3D_TYPE_POSITION);

  0149a	83 7d 0c 00	 cmp	 DWORD PTR _sender$[ebp], 0
  0149e	74 0d		 je	 SHORT $LN183@format_inc
  014a0	8b 45 0c	 mov	 eax, DWORD PTR _sender$[ebp]
  014a3	8b 08		 mov	 ecx, DWORD PTR [eax]
  014a5	89 8d e8 fc ff
	ff		 mov	 DWORD PTR tv839[ebp], ecx
  014ab	eb 27		 jmp	 SHORT $LN184@format_inc
$LN183@format_inc:
  014ad	8b 15 00 00 00
	00		 mov	 edx, DWORD PTR ?__LINE__Var@?0??format_incoming_message@@YGPAUENTITY@@PAUMESSAGE_LOG_TYPE@@PAU2@1PAD@Z@4JA
  014b3	81 c2 e9 00 00
	00		 add	 edx, 233		; 000000e9H
  014b9	52		 push	 edx
  014ba	68 00 00 00 00	 push	 OFFSET ??_C@_0DK@BLKECLAG@c?3?2users?2nhv90?2projects?2eech?2ap@
  014bf	a1 00 00 00 00	 mov	 eax, DWORD PTR ?null_entity_pointer_message@@3PBDB ; null_entity_pointer_message
  014c4	50		 push	 eax
  014c5	e8 00 00 00 00	 call	 ?process_assert@@YGXPBD0H@Z ; process_assert
  014ca	c7 85 e8 fc ff
	ff 00 00 00 00	 mov	 DWORD PTR tv839[ebp], 0
$LN184@format_inc:
  014d4	b9 01 00 00 00	 mov	 ecx, 1
  014d9	85 c9		 test	 ecx, ecx
  014db	74 0c		 je	 SHORT $LN185@format_inc
  014dd	c7 85 e4 fc ff
	ff 08 00 00 00	 mov	 DWORD PTR tv847[ebp], 8
  014e7	eb 27		 jmp	 SHORT $LN186@format_inc
$LN185@format_inc:
  014e9	8b 15 00 00 00
	00		 mov	 edx, DWORD PTR ?__LINE__Var@?0??format_incoming_message@@YGPAUENTITY@@PAUMESSAGE_LOG_TYPE@@PAU2@1PAD@Z@4JA
  014ef	81 c2 e9 00 00
	00		 add	 edx, 233		; 000000e9H
  014f5	52		 push	 edx
  014f6	68 00 00 00 00	 push	 OFFSET ??_C@_0DK@BLKECLAG@c?3?2users?2nhv90?2projects?2eech?2ap@
  014fb	a1 00 00 00 00	 mov	 eax, DWORD PTR ?overload_invalid_vec3d_type_message@@3PBDB ; overload_invalid_vec3d_type_message
  01500	50		 push	 eax
  01501	e8 00 00 00 00	 call	 ?process_assert@@YGXPBD0H@Z ; process_assert
  01506	c7 85 e4 fc ff
	ff 00 00 00 00	 mov	 DWORD PTR tv847[ebp], 0
$LN186@format_inc:
  01510	6a 08		 push	 8
  01512	8b 4d 0c	 mov	 ecx, DWORD PTR _sender$[ebp]
  01515	51		 push	 ecx
  01516	6b 95 e8 fc ff
	ff 60		 imul	 edx, DWORD PTR tv839[ebp], 96
  0151d	8b 85 e4 fc ff
	ff		 mov	 eax, DWORD PTR tv847[ebp]
  01523	8b 8c 82 00 00
	00 00		 mov	 ecx, DWORD PTR ?fn_get_local_entity_vec3d_ptr@@3PAY0BI@P6GPAUVEC3D@@PAUENTITY@@W4VEC3D_TYPES@@@ZA[edx+eax*4]
  0152a	ff d1		 call	 ecx
  0152c	89 85 e0 fd ff
	ff		 mov	 DWORD PTR _pos$[ebp], eax

; 635  : 
; 636  : 			ASSERT (pos);

  01532	83 bd e0 fd ff
	ff 00		 cmp	 DWORD PTR _pos$[ebp], 0
  01539	75 1a		 jne	 SHORT $LN46@format_inc
  0153b	a1 00 00 00 00	 mov	 eax, DWORD PTR ?__LINE__Var@?0??format_incoming_message@@YGPAUENTITY@@PAUMESSAGE_LOG_TYPE@@PAU2@1PAD@Z@4JA
  01540	05 eb 00 00 00	 add	 eax, 235		; 000000ebH
  01545	50		 push	 eax
  01546	68 00 00 00 00	 push	 OFFSET ??_C@_0DK@BLKECLAG@c?3?2users?2nhv90?2projects?2eech?2ap@
  0154b	68 00 00 00 00	 push	 OFFSET ??_C@_03PCBNCGFH@pos@
  01550	e8 00 00 00 00	 call	 ?process_assert@@YGXPBD0H@Z ; process_assert
$LN46@format_inc:

; 637  : 
; 638  : 			message->position = *pos;

  01555	8b 45 08	 mov	 eax, DWORD PTR _message$[ebp]
  01558	83 c0 0c	 add	 eax, 12			; 0000000cH
  0155b	8b 8d e0 fd ff
	ff		 mov	 ecx, DWORD PTR _pos$[ebp]
  01561	8b 11		 mov	 edx, DWORD PTR [ecx]
  01563	89 10		 mov	 DWORD PTR [eax], edx
  01565	8b 51 04	 mov	 edx, DWORD PTR [ecx+4]
  01568	89 50 04	 mov	 DWORD PTR [eax+4], edx
  0156b	8b 49 08	 mov	 ecx, DWORD PTR [ecx+8]
  0156e	89 48 08	 mov	 DWORD PTR [eax+8], ecx

; 639  : 
; 640  : 			ASSERT (get_local_entity_int_value (target, INT_TYPE_SIDE) == side);

  01571	83 7d 10 00	 cmp	 DWORD PTR _target$[ebp], 0
  01575	74 0d		 je	 SHORT $LN187@format_inc
  01577	8b 45 10	 mov	 eax, DWORD PTR _target$[ebp]
  0157a	8b 08		 mov	 ecx, DWORD PTR [eax]
  0157c	89 8d e8 fc ff
	ff		 mov	 DWORD PTR tv866[ebp], ecx
  01582	eb 27		 jmp	 SHORT $LN188@format_inc
$LN187@format_inc:
  01584	8b 15 00 00 00
	00		 mov	 edx, DWORD PTR ?__LINE__Var@?0??format_incoming_message@@YGPAUENTITY@@PAUMESSAGE_LOG_TYPE@@PAU2@1PAD@Z@4JA
  0158a	81 c2 ef 00 00
	00		 add	 edx, 239		; 000000efH
  01590	52		 push	 edx
  01591	68 00 00 00 00	 push	 OFFSET ??_C@_0DK@BLKECLAG@c?3?2users?2nhv90?2projects?2eech?2ap@
  01596	a1 00 00 00 00	 mov	 eax, DWORD PTR ?null_entity_pointer_message@@3PBDB ; null_entity_pointer_message
  0159b	50		 push	 eax
  0159c	e8 00 00 00 00	 call	 ?process_assert@@YGXPBD0H@Z ; process_assert
  015a1	c7 85 e8 fc ff
	ff 00 00 00 00	 mov	 DWORD PTR tv866[ebp], 0
$LN188@format_inc:
  015ab	b9 01 00 00 00	 mov	 ecx, 1
  015b0	85 c9		 test	 ecx, ecx
  015b2	74 0c		 je	 SHORT $LN189@format_inc
  015b4	c7 85 e4 fc ff
	ff bb 00 00 00	 mov	 DWORD PTR tv874[ebp], 187 ; 000000bbH
  015be	eb 27		 jmp	 SHORT $LN190@format_inc
$LN189@format_inc:
  015c0	8b 15 00 00 00
	00		 mov	 edx, DWORD PTR ?__LINE__Var@?0??format_incoming_message@@YGPAUENTITY@@PAUMESSAGE_LOG_TYPE@@PAU2@1PAD@Z@4JA
  015c6	81 c2 ef 00 00
	00		 add	 edx, 239		; 000000efH
  015cc	52		 push	 edx
  015cd	68 00 00 00 00	 push	 OFFSET ??_C@_0DK@BLKECLAG@c?3?2users?2nhv90?2projects?2eech?2ap@
  015d2	a1 00 00 00 00	 mov	 eax, DWORD PTR ?overload_invalid_int_type_message@@3PBDB ; overload_invalid_int_type_message
  015d7	50		 push	 eax
  015d8	e8 00 00 00 00	 call	 ?process_assert@@YGXPBD0H@Z ; process_assert
  015dd	c7 85 e4 fc ff
	ff 00 00 00 00	 mov	 DWORD PTR tv874[ebp], 0
$LN190@format_inc:
  015e7	68 bb 00 00 00	 push	 187			; 000000bbH
  015ec	8b 4d 10	 mov	 ecx, DWORD PTR _target$[ebp]
  015ef	51		 push	 ecx
  015f0	69 95 e8 fc ff
	ff 5c 04 00 00	 imul	 edx, DWORD PTR tv866[ebp], 1116
  015fa	8b 85 e4 fc ff
	ff		 mov	 eax, DWORD PTR tv874[ebp]
  01600	8b 8c 82 00 00
	00 00		 mov	 ecx, DWORD PTR ?fn_get_local_entity_int_value@@3PAY0BBH@P6GHPAUENTITY@@W4INT_TYPES@@@ZA[edx+eax*4]
  01607	ff d1		 call	 ecx
  01609	3b 85 dc fd ff
	ff		 cmp	 eax, DWORD PTR _side$[ebp]
  0160f	74 1a		 je	 SHORT $LN47@format_inc
  01611	a1 00 00 00 00	 mov	 eax, DWORD PTR ?__LINE__Var@?0??format_incoming_message@@YGPAUENTITY@@PAUMESSAGE_LOG_TYPE@@PAU2@1PAD@Z@4JA
  01616	05 ef 00 00 00	 add	 eax, 239		; 000000efH
  0161b	50		 push	 eax
  0161c	68 00 00 00 00	 push	 OFFSET ??_C@_0DK@BLKECLAG@c?3?2users?2nhv90?2projects?2eech?2ap@
  01621	68 00 00 00 00	 push	 OFFSET ??_C@_0DL@LIMLOOGJ@get_local_entity_int_value?5?$CItar@
  01626	e8 00 00 00 00	 call	 ?process_assert@@YGXPBD0H@Z ; process_assert
$LN47@format_inc:

; 641  : 
; 642  : 			message->colour = message_side_colour [enemy_side];

  0162b	8b 85 d8 fd ff
	ff		 mov	 eax, DWORD PTR _enemy_side$[ebp]
  01631	8b 0c 85 00 00
	00 00		 mov	 ecx, DWORD PTR ?message_side_colour@@3PAUREAL_COLOUR@@A[eax*4]
  01638	8b 55 08	 mov	 edx, DWORD PTR _message$[ebp]
  0163b	89 4a 18	 mov	 DWORD PTR [edx+24], ecx

; 643  : 
; 644  : 			subject = sender;

  0163e	8b 45 0c	 mov	 eax, DWORD PTR _sender$[ebp]
  01641	89 85 e8 fd ff
	ff		 mov	 DWORD PTR _subject$[ebp], eax

; 645  : 
; 646  : 			break;

  01647	e9 8b 0d 00 00	 jmp	 $LN2@format_inc
$LN48@format_inc:

; 647  : 		}
; 648  : 
; 649  : 		case MESSAGE_TEXT_SYSTEM_RECON_DATA:
; 650  : 		{
; 651  : 			ASSERT (target);

  0164c	83 7d 10 00	 cmp	 DWORD PTR _target$[ebp], 0
  01650	75 1a		 jne	 SHORT $LN49@format_inc
  01652	a1 00 00 00 00	 mov	 eax, DWORD PTR ?__LINE__Var@?0??format_incoming_message@@YGPAUENTITY@@PAUMESSAGE_LOG_TYPE@@PAU2@1PAD@Z@4JA
  01657	05 fa 00 00 00	 add	 eax, 250		; 000000faH
  0165c	50		 push	 eax
  0165d	68 00 00 00 00	 push	 OFFSET ??_C@_0DK@BLKECLAG@c?3?2users?2nhv90?2projects?2eech?2ap@
  01662	68 00 00 00 00	 push	 OFFSET ??_C@_06JJLAMBGK@target@
  01667	e8 00 00 00 00	 call	 ?process_assert@@YGXPBD0H@Z ; process_assert
$LN49@format_inc:

; 652  : 
; 653  : 			ASSERT (raw_string);

  0166c	83 7d 14 00	 cmp	 DWORD PTR _raw_string$[ebp], 0
  01670	75 1a		 jne	 SHORT $LN50@format_inc
  01672	a1 00 00 00 00	 mov	 eax, DWORD PTR ?__LINE__Var@?0??format_incoming_message@@YGPAUENTITY@@PAUMESSAGE_LOG_TYPE@@PAU2@1PAD@Z@4JA
  01677	05 fc 00 00 00	 add	 eax, 252		; 000000fcH
  0167c	50		 push	 eax
  0167d	68 00 00 00 00	 push	 OFFSET ??_C@_0DK@BLKECLAG@c?3?2users?2nhv90?2projects?2eech?2ap@
  01682	68 00 00 00 00	 push	 OFFSET ??_C@_0L@PECNBABE@raw_string@
  01687	e8 00 00 00 00	 call	 ?process_assert@@YGXPBD0H@Z ; process_assert
$LN50@format_inc:

; 654  : 
; 655  : 			sprintf (temp_string, "%s", raw_string);

  0168c	8b 45 14	 mov	 eax, DWORD PTR _raw_string$[ebp]
  0168f	50		 push	 eax
  01690	68 00 00 00 00	 push	 OFFSET ??_C@_02DKCKIIND@?$CFs@
  01695	8d 8d f4 fd ff
	ff		 lea	 ecx, DWORD PTR _temp_string$[ebp]
  0169b	51		 push	 ecx
  0169c	e8 00 00 00 00	 call	 _sprintf
  016a1	83 c4 0c	 add	 esp, 12			; 0000000cH

; 656  : 
; 657  : 			if (sender)

  016a4	83 7d 0c 00	 cmp	 DWORD PTR _sender$[ebp], 0
  016a8	0f 84 a6 00 00
	00		 je	 $LN51@format_inc

; 658  : 			{
; 659  : 				pos = get_local_entity_vec3d_ptr (sender, VEC3D_TYPE_POSITION);

  016ae	83 7d 0c 00	 cmp	 DWORD PTR _sender$[ebp], 0
  016b2	74 0d		 je	 SHORT $LN191@format_inc
  016b4	8b 45 0c	 mov	 eax, DWORD PTR _sender$[ebp]
  016b7	8b 08		 mov	 ecx, DWORD PTR [eax]
  016b9	89 8d e8 fc ff
	ff		 mov	 DWORD PTR tv909[ebp], ecx
  016bf	eb 27		 jmp	 SHORT $LN192@format_inc
$LN191@format_inc:
  016c1	8b 15 00 00 00
	00		 mov	 edx, DWORD PTR ?__LINE__Var@?0??format_incoming_message@@YGPAUENTITY@@PAUMESSAGE_LOG_TYPE@@PAU2@1PAD@Z@4JA
  016c7	81 c2 02 01 00
	00		 add	 edx, 258		; 00000102H
  016cd	52		 push	 edx
  016ce	68 00 00 00 00	 push	 OFFSET ??_C@_0DK@BLKECLAG@c?3?2users?2nhv90?2projects?2eech?2ap@
  016d3	a1 00 00 00 00	 mov	 eax, DWORD PTR ?null_entity_pointer_message@@3PBDB ; null_entity_pointer_message
  016d8	50		 push	 eax
  016d9	e8 00 00 00 00	 call	 ?process_assert@@YGXPBD0H@Z ; process_assert
  016de	c7 85 e8 fc ff
	ff 00 00 00 00	 mov	 DWORD PTR tv909[ebp], 0
$LN192@format_inc:
  016e8	b9 01 00 00 00	 mov	 ecx, 1
  016ed	85 c9		 test	 ecx, ecx
  016ef	74 0c		 je	 SHORT $LN193@format_inc
  016f1	c7 85 e4 fc ff
	ff 08 00 00 00	 mov	 DWORD PTR tv917[ebp], 8
  016fb	eb 27		 jmp	 SHORT $LN194@format_inc
$LN193@format_inc:
  016fd	8b 15 00 00 00
	00		 mov	 edx, DWORD PTR ?__LINE__Var@?0??format_incoming_message@@YGPAUENTITY@@PAUMESSAGE_LOG_TYPE@@PAU2@1PAD@Z@4JA
  01703	81 c2 02 01 00
	00		 add	 edx, 258		; 00000102H
  01709	52		 push	 edx
  0170a	68 00 00 00 00	 push	 OFFSET ??_C@_0DK@BLKECLAG@c?3?2users?2nhv90?2projects?2eech?2ap@
  0170f	a1 00 00 00 00	 mov	 eax, DWORD PTR ?overload_invalid_vec3d_type_message@@3PBDB ; overload_invalid_vec3d_type_message
  01714	50		 push	 eax
  01715	e8 00 00 00 00	 call	 ?process_assert@@YGXPBD0H@Z ; process_assert
  0171a	c7 85 e4 fc ff
	ff 00 00 00 00	 mov	 DWORD PTR tv917[ebp], 0
$LN194@format_inc:
  01724	6a 08		 push	 8
  01726	8b 4d 0c	 mov	 ecx, DWORD PTR _sender$[ebp]
  01729	51		 push	 ecx
  0172a	6b 95 e8 fc ff
	ff 60		 imul	 edx, DWORD PTR tv909[ebp], 96
  01731	8b 85 e4 fc ff
	ff		 mov	 eax, DWORD PTR tv917[ebp]
  01737	8b 8c 82 00 00
	00 00		 mov	 ecx, DWORD PTR ?fn_get_local_entity_vec3d_ptr@@3PAY0BI@P6GPAUVEC3D@@PAUENTITY@@W4VEC3D_TYPES@@@ZA[edx+eax*4]
  0173e	ff d1		 call	 ecx
  01740	89 85 e0 fd ff
	ff		 mov	 DWORD PTR _pos$[ebp], eax

; 660  : 
; 661  : 				subject = sender;

  01746	8b 45 0c	 mov	 eax, DWORD PTR _sender$[ebp]
  01749	89 85 e8 fd ff
	ff		 mov	 DWORD PTR _subject$[ebp], eax

; 662  : 			}
; 663  : 			else

  0174f	e9 a1 00 00 00	 jmp	 $LN52@format_inc
$LN51@format_inc:

; 664  : 			{
; 665  : 				pos = get_local_entity_vec3d_ptr (target, VEC3D_TYPE_POSITION);

  01754	83 7d 10 00	 cmp	 DWORD PTR _target$[ebp], 0
  01758	74 0d		 je	 SHORT $LN195@format_inc
  0175a	8b 45 10	 mov	 eax, DWORD PTR _target$[ebp]
  0175d	8b 08		 mov	 ecx, DWORD PTR [eax]
  0175f	89 8d e8 fc ff
	ff		 mov	 DWORD PTR tv929[ebp], ecx
  01765	eb 27		 jmp	 SHORT $LN196@format_inc
$LN195@format_inc:
  01767	8b 15 00 00 00
	00		 mov	 edx, DWORD PTR ?__LINE__Var@?0??format_incoming_message@@YGPAUENTITY@@PAUMESSAGE_LOG_TYPE@@PAU2@1PAD@Z@4JA
  0176d	81 c2 08 01 00
	00		 add	 edx, 264		; 00000108H
  01773	52		 push	 edx
  01774	68 00 00 00 00	 push	 OFFSET ??_C@_0DK@BLKECLAG@c?3?2users?2nhv90?2projects?2eech?2ap@
  01779	a1 00 00 00 00	 mov	 eax, DWORD PTR ?null_entity_pointer_message@@3PBDB ; null_entity_pointer_message
  0177e	50		 push	 eax
  0177f	e8 00 00 00 00	 call	 ?process_assert@@YGXPBD0H@Z ; process_assert
  01784	c7 85 e8 fc ff
	ff 00 00 00 00	 mov	 DWORD PTR tv929[ebp], 0
$LN196@format_inc:
  0178e	b9 01 00 00 00	 mov	 ecx, 1
  01793	85 c9		 test	 ecx, ecx
  01795	74 0c		 je	 SHORT $LN197@format_inc
  01797	c7 85 e4 fc ff
	ff 08 00 00 00	 mov	 DWORD PTR tv937[ebp], 8
  017a1	eb 27		 jmp	 SHORT $LN198@format_inc
$LN197@format_inc:
  017a3	8b 15 00 00 00
	00		 mov	 edx, DWORD PTR ?__LINE__Var@?0??format_incoming_message@@YGPAUENTITY@@PAUMESSAGE_LOG_TYPE@@PAU2@1PAD@Z@4JA
  017a9	81 c2 08 01 00
	00		 add	 edx, 264		; 00000108H
  017af	52		 push	 edx
  017b0	68 00 00 00 00	 push	 OFFSET ??_C@_0DK@BLKECLAG@c?3?2users?2nhv90?2projects?2eech?2ap@
  017b5	a1 00 00 00 00	 mov	 eax, DWORD PTR ?overload_invalid_vec3d_type_message@@3PBDB ; overload_invalid_vec3d_type_message
  017ba	50		 push	 eax
  017bb	e8 00 00 00 00	 call	 ?process_assert@@YGXPBD0H@Z ; process_assert
  017c0	c7 85 e4 fc ff
	ff 00 00 00 00	 mov	 DWORD PTR tv937[ebp], 0
$LN198@format_inc:
  017ca	6a 08		 push	 8
  017cc	8b 4d 10	 mov	 ecx, DWORD PTR _target$[ebp]
  017cf	51		 push	 ecx
  017d0	6b 95 e8 fc ff
	ff 60		 imul	 edx, DWORD PTR tv929[ebp], 96
  017d7	8b 85 e4 fc ff
	ff		 mov	 eax, DWORD PTR tv937[ebp]
  017dd	8b 8c 82 00 00
	00 00		 mov	 ecx, DWORD PTR ?fn_get_local_entity_vec3d_ptr@@3PAY0BI@P6GPAUVEC3D@@PAUENTITY@@W4VEC3D_TYPES@@@ZA[edx+eax*4]
  017e4	ff d1		 call	 ecx
  017e6	89 85 e0 fd ff
	ff		 mov	 DWORD PTR _pos$[ebp], eax

; 666  : 
; 667  : 				subject = target;

  017ec	8b 45 10	 mov	 eax, DWORD PTR _target$[ebp]
  017ef	89 85 e8 fd ff
	ff		 mov	 DWORD PTR _subject$[ebp], eax
$LN52@format_inc:

; 668  : 			}
; 669  : 
; 670  : 			ASSERT (pos);

  017f5	83 bd e0 fd ff
	ff 00		 cmp	 DWORD PTR _pos$[ebp], 0
  017fc	75 1a		 jne	 SHORT $LN53@format_inc
  017fe	a1 00 00 00 00	 mov	 eax, DWORD PTR ?__LINE__Var@?0??format_incoming_message@@YGPAUENTITY@@PAUMESSAGE_LOG_TYPE@@PAU2@1PAD@Z@4JA
  01803	05 0d 01 00 00	 add	 eax, 269		; 0000010dH
  01808	50		 push	 eax
  01809	68 00 00 00 00	 push	 OFFSET ??_C@_0DK@BLKECLAG@c?3?2users?2nhv90?2projects?2eech?2ap@
  0180e	68 00 00 00 00	 push	 OFFSET ??_C@_03PCBNCGFH@pos@
  01813	e8 00 00 00 00	 call	 ?process_assert@@YGXPBD0H@Z ; process_assert
$LN53@format_inc:

; 671  : 
; 672  : 			message->position = *pos;

  01818	8b 45 08	 mov	 eax, DWORD PTR _message$[ebp]
  0181b	83 c0 0c	 add	 eax, 12			; 0000000cH
  0181e	8b 8d e0 fd ff
	ff		 mov	 ecx, DWORD PTR _pos$[ebp]
  01824	8b 11		 mov	 edx, DWORD PTR [ecx]
  01826	89 10		 mov	 DWORD PTR [eax], edx
  01828	8b 51 04	 mov	 edx, DWORD PTR [ecx+4]
  0182b	89 50 04	 mov	 DWORD PTR [eax+4], edx
  0182e	8b 49 08	 mov	 ecx, DWORD PTR [ecx+8]
  01831	89 48 08	 mov	 DWORD PTR [eax+8], ecx

; 673  : 
; 674  : 			ASSERT (get_local_entity_int_value (target, INT_TYPE_SIDE) == side);

  01834	83 7d 10 00	 cmp	 DWORD PTR _target$[ebp], 0
  01838	74 0d		 je	 SHORT $LN199@format_inc
  0183a	8b 45 10	 mov	 eax, DWORD PTR _target$[ebp]
  0183d	8b 08		 mov	 ecx, DWORD PTR [eax]
  0183f	89 8d e8 fc ff
	ff		 mov	 DWORD PTR tv956[ebp], ecx
  01845	eb 27		 jmp	 SHORT $LN200@format_inc
$LN199@format_inc:
  01847	8b 15 00 00 00
	00		 mov	 edx, DWORD PTR ?__LINE__Var@?0??format_incoming_message@@YGPAUENTITY@@PAUMESSAGE_LOG_TYPE@@PAU2@1PAD@Z@4JA
  0184d	81 c2 11 01 00
	00		 add	 edx, 273		; 00000111H
  01853	52		 push	 edx
  01854	68 00 00 00 00	 push	 OFFSET ??_C@_0DK@BLKECLAG@c?3?2users?2nhv90?2projects?2eech?2ap@
  01859	a1 00 00 00 00	 mov	 eax, DWORD PTR ?null_entity_pointer_message@@3PBDB ; null_entity_pointer_message
  0185e	50		 push	 eax
  0185f	e8 00 00 00 00	 call	 ?process_assert@@YGXPBD0H@Z ; process_assert
  01864	c7 85 e8 fc ff
	ff 00 00 00 00	 mov	 DWORD PTR tv956[ebp], 0
$LN200@format_inc:
  0186e	b9 01 00 00 00	 mov	 ecx, 1
  01873	85 c9		 test	 ecx, ecx
  01875	74 0c		 je	 SHORT $LN201@format_inc
  01877	c7 85 e4 fc ff
	ff bb 00 00 00	 mov	 DWORD PTR tv964[ebp], 187 ; 000000bbH
  01881	eb 27		 jmp	 SHORT $LN202@format_inc
$LN201@format_inc:
  01883	8b 15 00 00 00
	00		 mov	 edx, DWORD PTR ?__LINE__Var@?0??format_incoming_message@@YGPAUENTITY@@PAUMESSAGE_LOG_TYPE@@PAU2@1PAD@Z@4JA
  01889	81 c2 11 01 00
	00		 add	 edx, 273		; 00000111H
  0188f	52		 push	 edx
  01890	68 00 00 00 00	 push	 OFFSET ??_C@_0DK@BLKECLAG@c?3?2users?2nhv90?2projects?2eech?2ap@
  01895	a1 00 00 00 00	 mov	 eax, DWORD PTR ?overload_invalid_int_type_message@@3PBDB ; overload_invalid_int_type_message
  0189a	50		 push	 eax
  0189b	e8 00 00 00 00	 call	 ?process_assert@@YGXPBD0H@Z ; process_assert
  018a0	c7 85 e4 fc ff
	ff 00 00 00 00	 mov	 DWORD PTR tv964[ebp], 0
$LN202@format_inc:
  018aa	68 bb 00 00 00	 push	 187			; 000000bbH
  018af	8b 4d 10	 mov	 ecx, DWORD PTR _target$[ebp]
  018b2	51		 push	 ecx
  018b3	69 95 e8 fc ff
	ff 5c 04 00 00	 imul	 edx, DWORD PTR tv956[ebp], 1116
  018bd	8b 85 e4 fc ff
	ff		 mov	 eax, DWORD PTR tv964[ebp]
  018c3	8b 8c 82 00 00
	00 00		 mov	 ecx, DWORD PTR ?fn_get_local_entity_int_value@@3PAY0BBH@P6GHPAUENTITY@@W4INT_TYPES@@@ZA[edx+eax*4]
  018ca	ff d1		 call	 ecx
  018cc	3b 85 dc fd ff
	ff		 cmp	 eax, DWORD PTR _side$[ebp]
  018d2	74 1a		 je	 SHORT $LN54@format_inc
  018d4	a1 00 00 00 00	 mov	 eax, DWORD PTR ?__LINE__Var@?0??format_incoming_message@@YGPAUENTITY@@PAUMESSAGE_LOG_TYPE@@PAU2@1PAD@Z@4JA
  018d9	05 11 01 00 00	 add	 eax, 273		; 00000111H
  018de	50		 push	 eax
  018df	68 00 00 00 00	 push	 OFFSET ??_C@_0DK@BLKECLAG@c?3?2users?2nhv90?2projects?2eech?2ap@
  018e4	68 00 00 00 00	 push	 OFFSET ??_C@_0DL@LIMLOOGJ@get_local_entity_int_value?5?$CItar@
  018e9	e8 00 00 00 00	 call	 ?process_assert@@YGXPBD0H@Z ; process_assert
$LN54@format_inc:

; 675  : 
; 676  : 			message->colour = message_side_colour [side];

  018ee	8b 85 dc fd ff
	ff		 mov	 eax, DWORD PTR _side$[ebp]
  018f4	8b 0c 85 00 00
	00 00		 mov	 ecx, DWORD PTR ?message_side_colour@@3PAUREAL_COLOUR@@A[eax*4]
  018fb	8b 55 08	 mov	 edx, DWORD PTR _message$[ebp]
  018fe	89 4a 18	 mov	 DWORD PTR [edx+24], ecx

; 677  : 
; 678  : 			break;

  01901	e9 d1 0a 00 00	 jmp	 $LN2@format_inc
$LN55@format_inc:

; 679  : 		}
; 680  : 
; 681  : 		case MESSAGE_TEXT_SYSTEM_TASK_COMPLETED:
; 682  : 		{
; 683  : 			ASSERT (sender);		// sender is the group

  01906	83 7d 0c 00	 cmp	 DWORD PTR _sender$[ebp], 0
  0190a	75 1a		 jne	 SHORT $LN56@format_inc
  0190c	a1 00 00 00 00	 mov	 eax, DWORD PTR ?__LINE__Var@?0??format_incoming_message@@YGPAUENTITY@@PAUMESSAGE_LOG_TYPE@@PAU2@1PAD@Z@4JA
  01911	05 1a 01 00 00	 add	 eax, 282		; 0000011aH
  01916	50		 push	 eax
  01917	68 00 00 00 00	 push	 OFFSET ??_C@_0DK@BLKECLAG@c?3?2users?2nhv90?2projects?2eech?2ap@
  0191c	68 00 00 00 00	 push	 OFFSET ??_C@_06CGHJMPBJ@sender@
  01921	e8 00 00 00 00	 call	 ?process_assert@@YGXPBD0H@Z ; process_assert
$LN56@format_inc:

; 684  : 
; 685  : 			ASSERT (target);		// target is the task

  01926	83 7d 10 00	 cmp	 DWORD PTR _target$[ebp], 0
  0192a	75 1a		 jne	 SHORT $LN57@format_inc
  0192c	a1 00 00 00 00	 mov	 eax, DWORD PTR ?__LINE__Var@?0??format_incoming_message@@YGPAUENTITY@@PAUMESSAGE_LOG_TYPE@@PAU2@1PAD@Z@4JA
  01931	05 1c 01 00 00	 add	 eax, 284		; 0000011cH
  01936	50		 push	 eax
  01937	68 00 00 00 00	 push	 OFFSET ??_C@_0DK@BLKECLAG@c?3?2users?2nhv90?2projects?2eech?2ap@
  0193c	68 00 00 00 00	 push	 OFFSET ??_C@_06JJLAMBGK@target@
  01941	e8 00 00 00 00	 call	 ?process_assert@@YGXPBD0H@Z ; process_assert
$LN57@format_inc:

; 686  : 
; 687  : 			ASSERT (raw_string == NULL);

  01946	83 7d 14 00	 cmp	 DWORD PTR _raw_string$[ebp], 0
  0194a	74 1a		 je	 SHORT $LN58@format_inc
  0194c	a1 00 00 00 00	 mov	 eax, DWORD PTR ?__LINE__Var@?0??format_incoming_message@@YGPAUENTITY@@PAUMESSAGE_LOG_TYPE@@PAU2@1PAD@Z@4JA
  01951	05 1e 01 00 00	 add	 eax, 286		; 0000011eH
  01956	50		 push	 eax
  01957	68 00 00 00 00	 push	 OFFSET ??_C@_0DK@BLKECLAG@c?3?2users?2nhv90?2projects?2eech?2ap@
  0195c	68 00 00 00 00	 push	 OFFSET ??_C@_0BD@PFNECLNE@raw_string?5?$DN?$DN?5NULL@
  01961	e8 00 00 00 00	 call	 ?process_assert@@YGXPBD0H@Z ; process_assert
$LN58@format_inc:

; 688  : 
; 689  : 			sprintf (temp_string, "%s %s %s %s",

  01966	83 7d 0c 00	 cmp	 DWORD PTR _sender$[ebp], 0
  0196a	74 0d		 je	 SHORT $LN203@format_inc
  0196c	8b 45 0c	 mov	 eax, DWORD PTR _sender$[ebp]
  0196f	8b 08		 mov	 ecx, DWORD PTR [eax]
  01971	89 8d e8 fc ff
	ff		 mov	 DWORD PTR tv1002[ebp], ecx
  01977	eb 27		 jmp	 SHORT $LN204@format_inc
$LN203@format_inc:
  01979	8b 15 00 00 00
	00		 mov	 edx, DWORD PTR ?__LINE__Var@?0??format_incoming_message@@YGPAUENTITY@@PAUMESSAGE_LOG_TYPE@@PAU2@1PAD@Z@4JA
  0197f	81 c2 24 01 00
	00		 add	 edx, 292		; 00000124H
  01985	52		 push	 edx
  01986	68 00 00 00 00	 push	 OFFSET ??_C@_0DK@BLKECLAG@c?3?2users?2nhv90?2projects?2eech?2ap@
  0198b	a1 00 00 00 00	 mov	 eax, DWORD PTR ?null_entity_pointer_message@@3PBDB ; null_entity_pointer_message
  01990	50		 push	 eax
  01991	e8 00 00 00 00	 call	 ?process_assert@@YGXPBD0H@Z ; process_assert
  01996	c7 85 e8 fc ff
	ff 00 00 00 00	 mov	 DWORD PTR tv1002[ebp], 0
$LN204@format_inc:
  019a0	b9 01 00 00 00	 mov	 ecx, 1
  019a5	85 c9		 test	 ecx, ecx
  019a7	74 0c		 je	 SHORT $LN205@format_inc
  019a9	c7 85 e4 fc ff
	ff 03 00 00 00	 mov	 DWORD PTR tv1010[ebp], 3
  019b3	eb 27		 jmp	 SHORT $LN206@format_inc
$LN205@format_inc:
  019b5	8b 15 00 00 00
	00		 mov	 edx, DWORD PTR ?__LINE__Var@?0??format_incoming_message@@YGPAUENTITY@@PAUMESSAGE_LOG_TYPE@@PAU2@1PAD@Z@4JA
  019bb	81 c2 24 01 00
	00		 add	 edx, 292		; 00000124H
  019c1	52		 push	 edx
  019c2	68 00 00 00 00	 push	 OFFSET ??_C@_0DK@BLKECLAG@c?3?2users?2nhv90?2projects?2eech?2ap@
  019c7	a1 00 00 00 00	 mov	 eax, DWORD PTR ?overload_invalid_string_type_message@@3PBDB ; overload_invalid_string_type_message
  019cc	50		 push	 eax
  019cd	e8 00 00 00 00	 call	 ?process_assert@@YGXPBD0H@Z ; process_assert
  019d2	c7 85 e4 fc ff
	ff 00 00 00 00	 mov	 DWORD PTR tv1010[ebp], 0
$LN206@format_inc:
  019dc	83 7d 10 00	 cmp	 DWORD PTR _target$[ebp], 0
  019e0	74 0d		 je	 SHORT $LN207@format_inc
  019e2	8b 4d 10	 mov	 ecx, DWORD PTR _target$[ebp]
  019e5	8b 11		 mov	 edx, DWORD PTR [ecx]
  019e7	89 95 e0 fc ff
	ff		 mov	 DWORD PTR tv1028[ebp], edx
  019ed	eb 26		 jmp	 SHORT $LN208@format_inc
$LN207@format_inc:
  019ef	a1 00 00 00 00	 mov	 eax, DWORD PTR ?__LINE__Var@?0??format_incoming_message@@YGPAUENTITY@@PAUMESSAGE_LOG_TYPE@@PAU2@1PAD@Z@4JA
  019f4	05 22 01 00 00	 add	 eax, 290		; 00000122H
  019f9	50		 push	 eax
  019fa	68 00 00 00 00	 push	 OFFSET ??_C@_0DK@BLKECLAG@c?3?2users?2nhv90?2projects?2eech?2ap@
  019ff	8b 0d 00 00 00
	00		 mov	 ecx, DWORD PTR ?null_entity_pointer_message@@3PBDB ; null_entity_pointer_message
  01a05	51		 push	 ecx
  01a06	e8 00 00 00 00	 call	 ?process_assert@@YGXPBD0H@Z ; process_assert
  01a0b	c7 85 e0 fc ff
	ff 00 00 00 00	 mov	 DWORD PTR tv1028[ebp], 0
$LN208@format_inc:
  01a15	ba 01 00 00 00	 mov	 edx, 1
  01a1a	85 d2		 test	 edx, edx
  01a1c	74 0c		 je	 SHORT $LN209@format_inc
  01a1e	c7 85 dc fc ff
	ff d9 00 00 00	 mov	 DWORD PTR tv1036[ebp], 217 ; 000000d9H
  01a28	eb 26		 jmp	 SHORT $LN210@format_inc
$LN209@format_inc:
  01a2a	a1 00 00 00 00	 mov	 eax, DWORD PTR ?__LINE__Var@?0??format_incoming_message@@YGPAUENTITY@@PAUMESSAGE_LOG_TYPE@@PAU2@1PAD@Z@4JA
  01a2f	05 22 01 00 00	 add	 eax, 290		; 00000122H
  01a34	50		 push	 eax
  01a35	68 00 00 00 00	 push	 OFFSET ??_C@_0DK@BLKECLAG@c?3?2users?2nhv90?2projects?2eech?2ap@
  01a3a	8b 0d 00 00 00
	00		 mov	 ecx, DWORD PTR ?overload_invalid_int_type_message@@3PBDB ; overload_invalid_int_type_message
  01a40	51		 push	 ecx
  01a41	e8 00 00 00 00	 call	 ?process_assert@@YGXPBD0H@Z ; process_assert
  01a46	c7 85 dc fc ff
	ff 00 00 00 00	 mov	 DWORD PTR tv1036[ebp], 0
$LN210@format_inc:
  01a50	83 7d 10 00	 cmp	 DWORD PTR _target$[ebp], 0
  01a54	74 0d		 je	 SHORT $LN211@format_inc
  01a56	8b 55 10	 mov	 edx, DWORD PTR _target$[ebp]
  01a59	8b 02		 mov	 eax, DWORD PTR [edx]
  01a5b	89 85 d8 fc ff
	ff		 mov	 DWORD PTR tv1053[ebp], eax
  01a61	eb 28		 jmp	 SHORT $LN212@format_inc
$LN211@format_inc:
  01a63	8b 0d 00 00 00
	00		 mov	 ecx, DWORD PTR ?__LINE__Var@?0??format_incoming_message@@YGPAUENTITY@@PAUMESSAGE_LOG_TYPE@@PAU2@1PAD@Z@4JA
  01a69	81 c1 21 01 00
	00		 add	 ecx, 289		; 00000121H
  01a6f	51		 push	 ecx
  01a70	68 00 00 00 00	 push	 OFFSET ??_C@_0DK@BLKECLAG@c?3?2users?2nhv90?2projects?2eech?2ap@
  01a75	8b 15 00 00 00
	00		 mov	 edx, DWORD PTR ?null_entity_pointer_message@@3PBDB ; null_entity_pointer_message
  01a7b	52		 push	 edx
  01a7c	e8 00 00 00 00	 call	 ?process_assert@@YGXPBD0H@Z ; process_assert
  01a81	c7 85 d8 fc ff
	ff 00 00 00 00	 mov	 DWORD PTR tv1053[ebp], 0
$LN212@format_inc:
  01a8b	b8 01 00 00 00	 mov	 eax, 1
  01a90	85 c0		 test	 eax, eax
  01a92	74 0c		 je	 SHORT $LN213@format_inc
  01a94	c7 85 d4 fc ff
	ff 0c 00 00 00	 mov	 DWORD PTR tv1061[ebp], 12 ; 0000000cH
  01a9e	eb 28		 jmp	 SHORT $LN214@format_inc
$LN213@format_inc:
  01aa0	8b 0d 00 00 00
	00		 mov	 ecx, DWORD PTR ?__LINE__Var@?0??format_incoming_message@@YGPAUENTITY@@PAUMESSAGE_LOG_TYPE@@PAU2@1PAD@Z@4JA
  01aa6	81 c1 21 01 00
	00		 add	 ecx, 289		; 00000121H
  01aac	51		 push	 ecx
  01aad	68 00 00 00 00	 push	 OFFSET ??_C@_0DK@BLKECLAG@c?3?2users?2nhv90?2projects?2eech?2ap@
  01ab2	8b 15 00 00 00
	00		 mov	 edx, DWORD PTR ?overload_invalid_string_type_message@@3PBDB ; overload_invalid_string_type_message
  01ab8	52		 push	 edx
  01ab9	e8 00 00 00 00	 call	 ?process_assert@@YGXPBD0H@Z ; process_assert
  01abe	c7 85 d4 fc ff
	ff 00 00 00 00	 mov	 DWORD PTR tv1061[ebp], 0
$LN214@format_inc:
  01ac8	6a 03		 push	 3
  01aca	8b 45 0c	 mov	 eax, DWORD PTR _sender$[ebp]
  01acd	50		 push	 eax
  01ace	6b 8d e8 fc ff
	ff 34		 imul	 ecx, DWORD PTR tv1002[ebp], 52
  01ad5	8b 95 e4 fc ff
	ff		 mov	 edx, DWORD PTR tv1010[ebp]
  01adb	8b 84 91 00 00
	00 00		 mov	 eax, DWORD PTR ?fn_get_local_entity_string@@3PAY0N@P6GPBDPAUENTITY@@W4STRING_TYPES@@@ZA[ecx+edx*4]
  01ae2	ff d0		 call	 eax
  01ae4	50		 push	 eax
  01ae5	e8 00 00 00 00	 call	 ?get_trans@@YGPBDPBD@Z	; get_trans
  01aea	50		 push	 eax
  01aeb	68 00 00 00 00	 push	 OFFSET ??_C@_02LFBAPLBM@by@
  01af0	e8 00 00 00 00	 call	 ?get_trans@@YGPBDPBD@Z	; get_trans
  01af5	50		 push	 eax
  01af6	68 d9 00 00 00	 push	 217			; 000000d9H
  01afb	8b 4d 10	 mov	 ecx, DWORD PTR _target$[ebp]
  01afe	51		 push	 ecx
  01aff	69 95 e0 fc ff
	ff 5c 04 00 00	 imul	 edx, DWORD PTR tv1028[ebp], 1116
  01b09	8b 85 dc fc ff
	ff		 mov	 eax, DWORD PTR tv1036[ebp]
  01b0f	8b 8c 82 00 00
	00 00		 mov	 ecx, DWORD PTR ?fn_get_local_entity_int_value@@3PAY0BBH@P6GHPAUENTITY@@W4INT_TYPES@@@ZA[edx+eax*4]
  01b16	ff d1		 call	 ecx
  01b18	8b 14 85 00 00
	00 00		 mov	 edx, DWORD PTR ?task_debrief_result_names@@3PAPBDA[eax*4]
  01b1f	52		 push	 edx
  01b20	e8 00 00 00 00	 call	 ?get_trans@@YGPBDPBD@Z	; get_trans
  01b25	50		 push	 eax
  01b26	6a 0c		 push	 12			; 0000000cH
  01b28	8b 45 10	 mov	 eax, DWORD PTR _target$[ebp]
  01b2b	50		 push	 eax
  01b2c	6b 8d d8 fc ff
	ff 34		 imul	 ecx, DWORD PTR tv1053[ebp], 52
  01b33	8b 95 d4 fc ff
	ff		 mov	 edx, DWORD PTR tv1061[ebp]
  01b39	8b 84 91 00 00
	00 00		 mov	 eax, DWORD PTR ?fn_get_local_entity_string@@3PAY0N@P6GPBDPAUENTITY@@W4STRING_TYPES@@@ZA[ecx+edx*4]
  01b40	ff d0		 call	 eax
  01b42	50		 push	 eax
  01b43	e8 00 00 00 00	 call	 ?get_trans@@YGPBDPBD@Z	; get_trans
  01b48	50		 push	 eax
  01b49	68 00 00 00 00	 push	 OFFSET ??_C@_0M@HKJEMFMD@?$CFs?5?$CFs?5?$CFs?5?$CFs@
  01b4e	8d 8d f4 fd ff
	ff		 lea	 ecx, DWORD PTR _temp_string$[ebp]
  01b54	51		 push	 ecx
  01b55	e8 00 00 00 00	 call	 _sprintf
  01b5a	83 c4 18	 add	 esp, 24			; 00000018H

; 690  : 											get_trans (get_local_entity_string (target, STRING_TYPE_SHORT_DISPLAY_NAME)),
; 691  : 											get_trans (task_debrief_result_names [get_local_entity_int_value (target, INT_TYPE_TASK_COMPLETED)]),
; 692  : 											get_trans ("by"),
; 693  : 											get_trans (get_local_entity_string (sender, STRING_TYPE_FULL_NAME)));
; 694  : 
; 695  : 			objective = get_local_entity_parent (target, LIST_TYPE_TASK_DEPENDENT);

  01b5d	83 7d 10 00	 cmp	 DWORD PTR _target$[ebp], 0
  01b61	74 0d		 je	 SHORT $LN215@format_inc
  01b63	8b 45 10	 mov	 eax, DWORD PTR _target$[ebp]
  01b66	8b 08		 mov	 ecx, DWORD PTR [eax]
  01b68	89 8d e8 fc ff
	ff		 mov	 DWORD PTR tv1076[ebp], ecx
  01b6e	eb 27		 jmp	 SHORT $LN216@format_inc
$LN215@format_inc:
  01b70	8b 15 00 00 00
	00		 mov	 edx, DWORD PTR ?__LINE__Var@?0??format_incoming_message@@YGPAUENTITY@@PAUMESSAGE_LOG_TYPE@@PAU2@1PAD@Z@4JA
  01b76	81 c2 26 01 00
	00		 add	 edx, 294		; 00000126H
  01b7c	52		 push	 edx
  01b7d	68 00 00 00 00	 push	 OFFSET ??_C@_0DK@BLKECLAG@c?3?2users?2nhv90?2projects?2eech?2ap@
  01b82	a1 00 00 00 00	 mov	 eax, DWORD PTR ?null_entity_pointer_message@@3PBDB ; null_entity_pointer_message
  01b87	50		 push	 eax
  01b88	e8 00 00 00 00	 call	 ?process_assert@@YGXPBD0H@Z ; process_assert
  01b8d	c7 85 e8 fc ff
	ff 00 00 00 00	 mov	 DWORD PTR tv1076[ebp], 0
$LN216@format_inc:
  01b97	b9 01 00 00 00	 mov	 ecx, 1
  01b9c	85 c9		 test	 ecx, ecx
  01b9e	74 0c		 je	 SHORT $LN217@format_inc
  01ba0	c7 85 e4 fc ff
	ff 27 00 00 00	 mov	 DWORD PTR tv1084[ebp], 39 ; 00000027H
  01baa	eb 27		 jmp	 SHORT $LN218@format_inc
$LN217@format_inc:
  01bac	8b 15 00 00 00
	00		 mov	 edx, DWORD PTR ?__LINE__Var@?0??format_incoming_message@@YGPAUENTITY@@PAUMESSAGE_LOG_TYPE@@PAU2@1PAD@Z@4JA
  01bb2	81 c2 26 01 00
	00		 add	 edx, 294		; 00000126H
  01bb8	52		 push	 edx
  01bb9	68 00 00 00 00	 push	 OFFSET ??_C@_0DK@BLKECLAG@c?3?2users?2nhv90?2projects?2eech?2ap@
  01bbe	a1 00 00 00 00	 mov	 eax, DWORD PTR ?overload_invalid_list_type_message@@3PBDB ; overload_invalid_list_type_message
  01bc3	50		 push	 eax
  01bc4	e8 00 00 00 00	 call	 ?process_assert@@YGXPBD0H@Z ; process_assert
  01bc9	c7 85 e4 fc ff
	ff 00 00 00 00	 mov	 DWORD PTR tv1084[ebp], 0
$LN218@format_inc:
  01bd3	6a 27		 push	 39			; 00000027H
  01bd5	8b 4d 10	 mov	 ecx, DWORD PTR _target$[ebp]
  01bd8	51		 push	 ecx
  01bd9	69 95 e8 fc ff
	ff b4 00 00 00	 imul	 edx, DWORD PTR tv1076[ebp], 180
  01be3	8b 85 e4 fc ff
	ff		 mov	 eax, DWORD PTR tv1084[ebp]
  01be9	8b 8c 82 00 00
	00 00		 mov	 ecx, DWORD PTR ?fn_get_local_entity_parent@@3PAY0CN@P6GPAUENTITY@@PAU1@W4LIST_TYPES@@@ZA[edx+eax*4]
  01bf0	ff d1		 call	 ecx
  01bf2	89 85 e4 fd ff
	ff		 mov	 DWORD PTR _objective$[ebp], eax

; 696  : 
; 697  : 			if (objective)

  01bf8	83 bd e4 fd ff
	ff 00		 cmp	 DWORD PTR _objective$[ebp], 0
  01bff	0f 84 b2 00 00
	00		 je	 $LN59@format_inc

; 698  : 			{
; 699  : 				pos = get_local_entity_vec3d_ptr (objective, VEC3D_TYPE_POSITION);

  01c05	83 bd e4 fd ff
	ff 00		 cmp	 DWORD PTR _objective$[ebp], 0
  01c0c	74 10		 je	 SHORT $LN219@format_inc
  01c0e	8b 85 e4 fd ff
	ff		 mov	 eax, DWORD PTR _objective$[ebp]
  01c14	8b 08		 mov	 ecx, DWORD PTR [eax]
  01c16	89 8d e8 fc ff
	ff		 mov	 DWORD PTR tv1097[ebp], ecx
  01c1c	eb 27		 jmp	 SHORT $LN220@format_inc
$LN219@format_inc:
  01c1e	8b 15 00 00 00
	00		 mov	 edx, DWORD PTR ?__LINE__Var@?0??format_incoming_message@@YGPAUENTITY@@PAUMESSAGE_LOG_TYPE@@PAU2@1PAD@Z@4JA
  01c24	81 c2 2a 01 00
	00		 add	 edx, 298		; 0000012aH
  01c2a	52		 push	 edx
  01c2b	68 00 00 00 00	 push	 OFFSET ??_C@_0DK@BLKECLAG@c?3?2users?2nhv90?2projects?2eech?2ap@
  01c30	a1 00 00 00 00	 mov	 eax, DWORD PTR ?null_entity_pointer_message@@3PBDB ; null_entity_pointer_message
  01c35	50		 push	 eax
  01c36	e8 00 00 00 00	 call	 ?process_assert@@YGXPBD0H@Z ; process_assert
  01c3b	c7 85 e8 fc ff
	ff 00 00 00 00	 mov	 DWORD PTR tv1097[ebp], 0
$LN220@format_inc:
  01c45	b9 01 00 00 00	 mov	 ecx, 1
  01c4a	85 c9		 test	 ecx, ecx
  01c4c	74 0c		 je	 SHORT $LN221@format_inc
  01c4e	c7 85 e4 fc ff
	ff 08 00 00 00	 mov	 DWORD PTR tv1105[ebp], 8
  01c58	eb 27		 jmp	 SHORT $LN222@format_inc
$LN221@format_inc:
  01c5a	8b 15 00 00 00
	00		 mov	 edx, DWORD PTR ?__LINE__Var@?0??format_incoming_message@@YGPAUENTITY@@PAUMESSAGE_LOG_TYPE@@PAU2@1PAD@Z@4JA
  01c60	81 c2 2a 01 00
	00		 add	 edx, 298		; 0000012aH
  01c66	52		 push	 edx
  01c67	68 00 00 00 00	 push	 OFFSET ??_C@_0DK@BLKECLAG@c?3?2users?2nhv90?2projects?2eech?2ap@
  01c6c	a1 00 00 00 00	 mov	 eax, DWORD PTR ?overload_invalid_vec3d_type_message@@3PBDB ; overload_invalid_vec3d_type_message
  01c71	50		 push	 eax
  01c72	e8 00 00 00 00	 call	 ?process_assert@@YGXPBD0H@Z ; process_assert
  01c77	c7 85 e4 fc ff
	ff 00 00 00 00	 mov	 DWORD PTR tv1105[ebp], 0
$LN222@format_inc:
  01c81	6a 08		 push	 8
  01c83	8b 8d e4 fd ff
	ff		 mov	 ecx, DWORD PTR _objective$[ebp]
  01c89	51		 push	 ecx
  01c8a	6b 95 e8 fc ff
	ff 60		 imul	 edx, DWORD PTR tv1097[ebp], 96
  01c91	8b 85 e4 fc ff
	ff		 mov	 eax, DWORD PTR tv1105[ebp]
  01c97	8b 8c 82 00 00
	00 00		 mov	 ecx, DWORD PTR ?fn_get_local_entity_vec3d_ptr@@3PAY0BI@P6GPAUVEC3D@@PAUENTITY@@W4VEC3D_TYPES@@@ZA[edx+eax*4]
  01c9e	ff d1		 call	 ecx
  01ca0	89 85 e0 fd ff
	ff		 mov	 DWORD PTR _pos$[ebp], eax

; 700  : 
; 701  : 				subject = objective;

  01ca6	8b 85 e4 fd ff
	ff		 mov	 eax, DWORD PTR _objective$[ebp]
  01cac	89 85 e8 fd ff
	ff		 mov	 DWORD PTR _subject$[ebp], eax

; 702  : 			}
; 703  : 			else

  01cb2	e9 a1 00 00 00	 jmp	 $LN60@format_inc
$LN59@format_inc:

; 704  : 			{
; 705  : 				pos = get_local_entity_vec3d_ptr (sender, VEC3D_TYPE_POSITION);

  01cb7	83 7d 0c 00	 cmp	 DWORD PTR _sender$[ebp], 0
  01cbb	74 0d		 je	 SHORT $LN223@format_inc
  01cbd	8b 45 0c	 mov	 eax, DWORD PTR _sender$[ebp]
  01cc0	8b 08		 mov	 ecx, DWORD PTR [eax]
  01cc2	89 8d e8 fc ff
	ff		 mov	 DWORD PTR tv1117[ebp], ecx
  01cc8	eb 27		 jmp	 SHORT $LN224@format_inc
$LN223@format_inc:
  01cca	8b 15 00 00 00
	00		 mov	 edx, DWORD PTR ?__LINE__Var@?0??format_incoming_message@@YGPAUENTITY@@PAUMESSAGE_LOG_TYPE@@PAU2@1PAD@Z@4JA
  01cd0	81 c2 30 01 00
	00		 add	 edx, 304		; 00000130H
  01cd6	52		 push	 edx
  01cd7	68 00 00 00 00	 push	 OFFSET ??_C@_0DK@BLKECLAG@c?3?2users?2nhv90?2projects?2eech?2ap@
  01cdc	a1 00 00 00 00	 mov	 eax, DWORD PTR ?null_entity_pointer_message@@3PBDB ; null_entity_pointer_message
  01ce1	50		 push	 eax
  01ce2	e8 00 00 00 00	 call	 ?process_assert@@YGXPBD0H@Z ; process_assert
  01ce7	c7 85 e8 fc ff
	ff 00 00 00 00	 mov	 DWORD PTR tv1117[ebp], 0
$LN224@format_inc:
  01cf1	b9 01 00 00 00	 mov	 ecx, 1
  01cf6	85 c9		 test	 ecx, ecx
  01cf8	74 0c		 je	 SHORT $LN225@format_inc
  01cfa	c7 85 e4 fc ff
	ff 08 00 00 00	 mov	 DWORD PTR tv1125[ebp], 8
  01d04	eb 27		 jmp	 SHORT $LN226@format_inc
$LN225@format_inc:
  01d06	8b 15 00 00 00
	00		 mov	 edx, DWORD PTR ?__LINE__Var@?0??format_incoming_message@@YGPAUENTITY@@PAUMESSAGE_LOG_TYPE@@PAU2@1PAD@Z@4JA
  01d0c	81 c2 30 01 00
	00		 add	 edx, 304		; 00000130H
  01d12	52		 push	 edx
  01d13	68 00 00 00 00	 push	 OFFSET ??_C@_0DK@BLKECLAG@c?3?2users?2nhv90?2projects?2eech?2ap@
  01d18	a1 00 00 00 00	 mov	 eax, DWORD PTR ?overload_invalid_vec3d_type_message@@3PBDB ; overload_invalid_vec3d_type_message
  01d1d	50		 push	 eax
  01d1e	e8 00 00 00 00	 call	 ?process_assert@@YGXPBD0H@Z ; process_assert
  01d23	c7 85 e4 fc ff
	ff 00 00 00 00	 mov	 DWORD PTR tv1125[ebp], 0
$LN226@format_inc:
  01d2d	6a 08		 push	 8
  01d2f	8b 4d 0c	 mov	 ecx, DWORD PTR _sender$[ebp]
  01d32	51		 push	 ecx
  01d33	6b 95 e8 fc ff
	ff 60		 imul	 edx, DWORD PTR tv1117[ebp], 96
  01d3a	8b 85 e4 fc ff
	ff		 mov	 eax, DWORD PTR tv1125[ebp]
  01d40	8b 8c 82 00 00
	00 00		 mov	 ecx, DWORD PTR ?fn_get_local_entity_vec3d_ptr@@3PAY0BI@P6GPAUVEC3D@@PAUENTITY@@W4VEC3D_TYPES@@@ZA[edx+eax*4]
  01d47	ff d1		 call	 ecx
  01d49	89 85 e0 fd ff
	ff		 mov	 DWORD PTR _pos$[ebp], eax

; 706  : 
; 707  : 				subject = sender;

  01d4f	8b 45 0c	 mov	 eax, DWORD PTR _sender$[ebp]
  01d52	89 85 e8 fd ff
	ff		 mov	 DWORD PTR _subject$[ebp], eax
$LN60@format_inc:

; 708  : 			}
; 709  : 
; 710  : 			if (pos)

  01d58	83 bd e0 fd ff
	ff 00		 cmp	 DWORD PTR _pos$[ebp], 0
  01d5f	74 1c		 je	 SHORT $LN61@format_inc

; 711  : 			{
; 712  : 				message->position = *pos;

  01d61	8b 45 08	 mov	 eax, DWORD PTR _message$[ebp]
  01d64	83 c0 0c	 add	 eax, 12			; 0000000cH
  01d67	8b 8d e0 fd ff
	ff		 mov	 ecx, DWORD PTR _pos$[ebp]
  01d6d	8b 11		 mov	 edx, DWORD PTR [ecx]
  01d6f	89 10		 mov	 DWORD PTR [eax], edx
  01d71	8b 51 04	 mov	 edx, DWORD PTR [ecx+4]
  01d74	89 50 04	 mov	 DWORD PTR [eax+4], edx
  01d77	8b 49 08	 mov	 ecx, DWORD PTR [ecx+8]
  01d7a	89 48 08	 mov	 DWORD PTR [eax+8], ecx
$LN61@format_inc:

; 713  : 			}
; 714  : 
; 715  : 			ASSERT (get_local_entity_int_value (sender, INT_TYPE_SIDE) == side);

  01d7d	83 7d 0c 00	 cmp	 DWORD PTR _sender$[ebp], 0
  01d81	74 0d		 je	 SHORT $LN227@format_inc
  01d83	8b 45 0c	 mov	 eax, DWORD PTR _sender$[ebp]
  01d86	8b 08		 mov	 ecx, DWORD PTR [eax]
  01d88	89 8d e8 fc ff
	ff		 mov	 DWORD PTR tv1140[ebp], ecx
  01d8e	eb 27		 jmp	 SHORT $LN228@format_inc
$LN227@format_inc:
  01d90	8b 15 00 00 00
	00		 mov	 edx, DWORD PTR ?__LINE__Var@?0??format_incoming_message@@YGPAUENTITY@@PAUMESSAGE_LOG_TYPE@@PAU2@1PAD@Z@4JA
  01d96	81 c2 3a 01 00
	00		 add	 edx, 314		; 0000013aH
  01d9c	52		 push	 edx
  01d9d	68 00 00 00 00	 push	 OFFSET ??_C@_0DK@BLKECLAG@c?3?2users?2nhv90?2projects?2eech?2ap@
  01da2	a1 00 00 00 00	 mov	 eax, DWORD PTR ?null_entity_pointer_message@@3PBDB ; null_entity_pointer_message
  01da7	50		 push	 eax
  01da8	e8 00 00 00 00	 call	 ?process_assert@@YGXPBD0H@Z ; process_assert
  01dad	c7 85 e8 fc ff
	ff 00 00 00 00	 mov	 DWORD PTR tv1140[ebp], 0
$LN228@format_inc:
  01db7	b9 01 00 00 00	 mov	 ecx, 1
  01dbc	85 c9		 test	 ecx, ecx
  01dbe	74 0c		 je	 SHORT $LN229@format_inc
  01dc0	c7 85 e4 fc ff
	ff bb 00 00 00	 mov	 DWORD PTR tv1148[ebp], 187 ; 000000bbH
  01dca	eb 27		 jmp	 SHORT $LN230@format_inc
$LN229@format_inc:
  01dcc	8b 15 00 00 00
	00		 mov	 edx, DWORD PTR ?__LINE__Var@?0??format_incoming_message@@YGPAUENTITY@@PAUMESSAGE_LOG_TYPE@@PAU2@1PAD@Z@4JA
  01dd2	81 c2 3a 01 00
	00		 add	 edx, 314		; 0000013aH
  01dd8	52		 push	 edx
  01dd9	68 00 00 00 00	 push	 OFFSET ??_C@_0DK@BLKECLAG@c?3?2users?2nhv90?2projects?2eech?2ap@
  01dde	a1 00 00 00 00	 mov	 eax, DWORD PTR ?overload_invalid_int_type_message@@3PBDB ; overload_invalid_int_type_message
  01de3	50		 push	 eax
  01de4	e8 00 00 00 00	 call	 ?process_assert@@YGXPBD0H@Z ; process_assert
  01de9	c7 85 e4 fc ff
	ff 00 00 00 00	 mov	 DWORD PTR tv1148[ebp], 0
$LN230@format_inc:
  01df3	68 bb 00 00 00	 push	 187			; 000000bbH
  01df8	8b 4d 0c	 mov	 ecx, DWORD PTR _sender$[ebp]
  01dfb	51		 push	 ecx
  01dfc	69 95 e8 fc ff
	ff 5c 04 00 00	 imul	 edx, DWORD PTR tv1140[ebp], 1116
  01e06	8b 85 e4 fc ff
	ff		 mov	 eax, DWORD PTR tv1148[ebp]
  01e0c	8b 8c 82 00 00
	00 00		 mov	 ecx, DWORD PTR ?fn_get_local_entity_int_value@@3PAY0BBH@P6GHPAUENTITY@@W4INT_TYPES@@@ZA[edx+eax*4]
  01e13	ff d1		 call	 ecx
  01e15	3b 85 dc fd ff
	ff		 cmp	 eax, DWORD PTR _side$[ebp]
  01e1b	74 1a		 je	 SHORT $LN62@format_inc
  01e1d	a1 00 00 00 00	 mov	 eax, DWORD PTR ?__LINE__Var@?0??format_incoming_message@@YGPAUENTITY@@PAUMESSAGE_LOG_TYPE@@PAU2@1PAD@Z@4JA
  01e22	05 3a 01 00 00	 add	 eax, 314		; 0000013aH
  01e27	50		 push	 eax
  01e28	68 00 00 00 00	 push	 OFFSET ??_C@_0DK@BLKECLAG@c?3?2users?2nhv90?2projects?2eech?2ap@
  01e2d	68 00 00 00 00	 push	 OFFSET ??_C@_0DL@CDIFAIJO@get_local_entity_int_value?5?$CIsen@
  01e32	e8 00 00 00 00	 call	 ?process_assert@@YGXPBD0H@Z ; process_assert
$LN62@format_inc:

; 716  : 
; 717  : 			message->colour = message_side_colour [side];

  01e37	8b 85 dc fd ff
	ff		 mov	 eax, DWORD PTR _side$[ebp]
  01e3d	8b 0c 85 00 00
	00 00		 mov	 ecx, DWORD PTR ?message_side_colour@@3PAUREAL_COLOUR@@A[eax*4]
  01e44	8b 55 08	 mov	 edx, DWORD PTR _message$[ebp]
  01e47	89 4a 18	 mov	 DWORD PTR [edx+24], ecx

; 718  : 
; 719  : 			break;

  01e4a	e9 88 05 00 00	 jmp	 $LN2@format_inc
$LN63@format_inc:

; 720  : 		}
; 721  : 
; 722  : 		case MESSAGE_TEXT_SYSTEM_KEYSITE_CAPTURED:
; 723  : 		{
; 724  : 			ASSERT (sender);		// sender is the keysite

  01e4f	83 7d 0c 00	 cmp	 DWORD PTR _sender$[ebp], 0
  01e53	75 1a		 jne	 SHORT $LN64@format_inc
  01e55	a1 00 00 00 00	 mov	 eax, DWORD PTR ?__LINE__Var@?0??format_incoming_message@@YGPAUENTITY@@PAUMESSAGE_LOG_TYPE@@PAU2@1PAD@Z@4JA
  01e5a	05 43 01 00 00	 add	 eax, 323		; 00000143H
  01e5f	50		 push	 eax
  01e60	68 00 00 00 00	 push	 OFFSET ??_C@_0DK@BLKECLAG@c?3?2users?2nhv90?2projects?2eech?2ap@
  01e65	68 00 00 00 00	 push	 OFFSET ??_C@_06CGHJMPBJ@sender@
  01e6a	e8 00 00 00 00	 call	 ?process_assert@@YGXPBD0H@Z ; process_assert
$LN64@format_inc:

; 725  : 
; 726  : 			ASSERT (raw_string == NULL);

  01e6f	83 7d 14 00	 cmp	 DWORD PTR _raw_string$[ebp], 0
  01e73	74 1a		 je	 SHORT $LN65@format_inc
  01e75	a1 00 00 00 00	 mov	 eax, DWORD PTR ?__LINE__Var@?0??format_incoming_message@@YGPAUENTITY@@PAUMESSAGE_LOG_TYPE@@PAU2@1PAD@Z@4JA
  01e7a	05 45 01 00 00	 add	 eax, 325		; 00000145H
  01e7f	50		 push	 eax
  01e80	68 00 00 00 00	 push	 OFFSET ??_C@_0DK@BLKECLAG@c?3?2users?2nhv90?2projects?2eech?2ap@
  01e85	68 00 00 00 00	 push	 OFFSET ??_C@_0BD@PFNECLNE@raw_string?5?$DN?$DN?5NULL@
  01e8a	e8 00 00 00 00	 call	 ?process_assert@@YGXPBD0H@Z ; process_assert
$LN65@format_inc:

; 727  : 
; 728  : 			sprintf (temp_string, "%s %s %s",

  01e8f	83 7d 0c 00	 cmp	 DWORD PTR _sender$[ebp], 0
  01e93	74 0d		 je	 SHORT $LN231@format_inc
  01e95	8b 45 0c	 mov	 eax, DWORD PTR _sender$[ebp]
  01e98	8b 08		 mov	 ecx, DWORD PTR [eax]
  01e9a	89 8d e8 fc ff
	ff		 mov	 DWORD PTR tv1180[ebp], ecx
  01ea0	eb 27		 jmp	 SHORT $LN232@format_inc
$LN231@format_inc:
  01ea2	8b 15 00 00 00
	00		 mov	 edx, DWORD PTR ?__LINE__Var@?0??format_incoming_message@@YGPAUENTITY@@PAUMESSAGE_LOG_TYPE@@PAU2@1PAD@Z@4JA
  01ea8	81 c2 4a 01 00
	00		 add	 edx, 330		; 0000014aH
  01eae	52		 push	 edx
  01eaf	68 00 00 00 00	 push	 OFFSET ??_C@_0DK@BLKECLAG@c?3?2users?2nhv90?2projects?2eech?2ap@
  01eb4	a1 00 00 00 00	 mov	 eax, DWORD PTR ?null_entity_pointer_message@@3PBDB ; null_entity_pointer_message
  01eb9	50		 push	 eax
  01eba	e8 00 00 00 00	 call	 ?process_assert@@YGXPBD0H@Z ; process_assert
  01ebf	c7 85 e8 fc ff
	ff 00 00 00 00	 mov	 DWORD PTR tv1180[ebp], 0
$LN232@format_inc:
  01ec9	b9 01 00 00 00	 mov	 ecx, 1
  01ece	85 c9		 test	 ecx, ecx
  01ed0	74 0c		 je	 SHORT $LN233@format_inc
  01ed2	c7 85 e4 fc ff
	ff bb 00 00 00	 mov	 DWORD PTR tv1188[ebp], 187 ; 000000bbH
  01edc	eb 27		 jmp	 SHORT $LN234@format_inc
$LN233@format_inc:
  01ede	8b 15 00 00 00
	00		 mov	 edx, DWORD PTR ?__LINE__Var@?0??format_incoming_message@@YGPAUENTITY@@PAUMESSAGE_LOG_TYPE@@PAU2@1PAD@Z@4JA
  01ee4	81 c2 4a 01 00
	00		 add	 edx, 330		; 0000014aH
  01eea	52		 push	 edx
  01eeb	68 00 00 00 00	 push	 OFFSET ??_C@_0DK@BLKECLAG@c?3?2users?2nhv90?2projects?2eech?2ap@
  01ef0	a1 00 00 00 00	 mov	 eax, DWORD PTR ?overload_invalid_int_type_message@@3PBDB ; overload_invalid_int_type_message
  01ef5	50		 push	 eax
  01ef6	e8 00 00 00 00	 call	 ?process_assert@@YGXPBD0H@Z ; process_assert
  01efb	c7 85 e4 fc ff
	ff 00 00 00 00	 mov	 DWORD PTR tv1188[ebp], 0
$LN234@format_inc:
  01f05	83 7d 0c 00	 cmp	 DWORD PTR _sender$[ebp], 0
  01f09	74 0d		 je	 SHORT $LN235@format_inc
  01f0b	8b 4d 0c	 mov	 ecx, DWORD PTR _sender$[ebp]
  01f0e	8b 11		 mov	 edx, DWORD PTR [ecx]
  01f10	89 95 e0 fc ff
	ff		 mov	 DWORD PTR tv1206[ebp], edx
  01f16	eb 26		 jmp	 SHORT $LN236@format_inc
$LN235@format_inc:
  01f18	a1 00 00 00 00	 mov	 eax, DWORD PTR ?__LINE__Var@?0??format_incoming_message@@YGPAUENTITY@@PAUMESSAGE_LOG_TYPE@@PAU2@1PAD@Z@4JA
  01f1d	05 48 01 00 00	 add	 eax, 328		; 00000148H
  01f22	50		 push	 eax
  01f23	68 00 00 00 00	 push	 OFFSET ??_C@_0DK@BLKECLAG@c?3?2users?2nhv90?2projects?2eech?2ap@
  01f28	8b 0d 00 00 00
	00		 mov	 ecx, DWORD PTR ?null_entity_pointer_message@@3PBDB ; null_entity_pointer_message
  01f2e	51		 push	 ecx
  01f2f	e8 00 00 00 00	 call	 ?process_assert@@YGXPBD0H@Z ; process_assert
  01f34	c7 85 e0 fc ff
	ff 00 00 00 00	 mov	 DWORD PTR tv1206[ebp], 0
$LN236@format_inc:
  01f3e	ba 01 00 00 00	 mov	 edx, 1
  01f43	85 d2		 test	 edx, edx
  01f45	74 0c		 je	 SHORT $LN237@format_inc
  01f47	c7 85 dc fc ff
	ff 07 00 00 00	 mov	 DWORD PTR tv1214[ebp], 7
  01f51	eb 26		 jmp	 SHORT $LN238@format_inc
$LN237@format_inc:
  01f53	a1 00 00 00 00	 mov	 eax, DWORD PTR ?__LINE__Var@?0??format_incoming_message@@YGPAUENTITY@@PAUMESSAGE_LOG_TYPE@@PAU2@1PAD@Z@4JA
  01f58	05 48 01 00 00	 add	 eax, 328		; 00000148H
  01f5d	50		 push	 eax
  01f5e	68 00 00 00 00	 push	 OFFSET ??_C@_0DK@BLKECLAG@c?3?2users?2nhv90?2projects?2eech?2ap@
  01f63	8b 0d 00 00 00
	00		 mov	 ecx, DWORD PTR ?overload_invalid_string_type_message@@3PBDB ; overload_invalid_string_type_message
  01f69	51		 push	 ecx
  01f6a	e8 00 00 00 00	 call	 ?process_assert@@YGXPBD0H@Z ; process_assert
  01f6f	c7 85 dc fc ff
	ff 00 00 00 00	 mov	 DWORD PTR tv1214[ebp], 0
$LN238@format_inc:
  01f79	68 bb 00 00 00	 push	 187			; 000000bbH
  01f7e	8b 55 0c	 mov	 edx, DWORD PTR _sender$[ebp]
  01f81	52		 push	 edx
  01f82	69 85 e8 fc ff
	ff 5c 04 00 00	 imul	 eax, DWORD PTR tv1180[ebp], 1116
  01f8c	8b 8d e4 fc ff
	ff		 mov	 ecx, DWORD PTR tv1188[ebp]
  01f92	8b 94 88 00 00
	00 00		 mov	 edx, DWORD PTR ?fn_get_local_entity_int_value@@3PAY0BBH@P6GHPAUENTITY@@W4INT_TYPES@@@ZA[eax+ecx*4]
  01f99	ff d2		 call	 edx
  01f9b	8b 04 85 00 00
	00 00		 mov	 eax, DWORD PTR ?entity_side_short_names@@3PAPBDA[eax*4]
  01fa2	50		 push	 eax
  01fa3	68 00 00 00 00	 push	 OFFSET ??_C@_0M@KPOKLKIM@captured?5by@
  01fa8	e8 00 00 00 00	 call	 ?get_trans@@YGPBDPBD@Z	; get_trans
  01fad	50		 push	 eax
  01fae	6a 07		 push	 7
  01fb0	8b 4d 0c	 mov	 ecx, DWORD PTR _sender$[ebp]
  01fb3	51		 push	 ecx
  01fb4	6b 95 e0 fc ff
	ff 34		 imul	 edx, DWORD PTR tv1206[ebp], 52
  01fbb	8b 85 dc fc ff
	ff		 mov	 eax, DWORD PTR tv1214[ebp]
  01fc1	8b 8c 82 00 00
	00 00		 mov	 ecx, DWORD PTR ?fn_get_local_entity_string@@3PAY0N@P6GPBDPAUENTITY@@W4STRING_TYPES@@@ZA[edx+eax*4]
  01fc8	ff d1		 call	 ecx
  01fca	50		 push	 eax
  01fcb	68 00 00 00 00	 push	 OFFSET ??_C@_08EPEHIMMI@?$CFs?5?$CFs?5?$CFs@
  01fd0	8d 95 f4 fd ff
	ff		 lea	 edx, DWORD PTR _temp_string$[ebp]
  01fd6	52		 push	 edx
  01fd7	e8 00 00 00 00	 call	 _sprintf
  01fdc	83 c4 14	 add	 esp, 20			; 00000014H

; 729  : 							get_local_entity_string (sender, STRING_TYPE_KEYSITE_NAME),
; 730  : 							get_trans ("captured by"),
; 731  : 							entity_side_short_names [get_local_entity_int_value (sender, INT_TYPE_SIDE)]);
; 732  : 
; 733  : 			get_local_entity_vec3d (sender, VEC3D_TYPE_POSITION, &(message->position));

  01fdf	83 7d 0c 00	 cmp	 DWORD PTR _sender$[ebp], 0
  01fe3	74 0d		 je	 SHORT $LN239@format_inc
  01fe5	8b 45 0c	 mov	 eax, DWORD PTR _sender$[ebp]
  01fe8	8b 08		 mov	 ecx, DWORD PTR [eax]
  01fea	89 8d e8 fc ff
	ff		 mov	 DWORD PTR tv1228[ebp], ecx
  01ff0	eb 27		 jmp	 SHORT $LN240@format_inc
$LN239@format_inc:
  01ff2	8b 15 00 00 00
	00		 mov	 edx, DWORD PTR ?__LINE__Var@?0??format_incoming_message@@YGPAUENTITY@@PAUMESSAGE_LOG_TYPE@@PAU2@1PAD@Z@4JA
  01ff8	81 c2 4c 01 00
	00		 add	 edx, 332		; 0000014cH
  01ffe	52		 push	 edx
  01fff	68 00 00 00 00	 push	 OFFSET ??_C@_0DK@BLKECLAG@c?3?2users?2nhv90?2projects?2eech?2ap@
  02004	a1 00 00 00 00	 mov	 eax, DWORD PTR ?null_entity_pointer_message@@3PBDB ; null_entity_pointer_message
  02009	50		 push	 eax
  0200a	e8 00 00 00 00	 call	 ?process_assert@@YGXPBD0H@Z ; process_assert
  0200f	c7 85 e8 fc ff
	ff 00 00 00 00	 mov	 DWORD PTR tv1228[ebp], 0
$LN240@format_inc:
  02019	b9 01 00 00 00	 mov	 ecx, 1
  0201e	85 c9		 test	 ecx, ecx
  02020	74 0c		 je	 SHORT $LN241@format_inc
  02022	c7 85 e4 fc ff
	ff 08 00 00 00	 mov	 DWORD PTR tv1236[ebp], 8
  0202c	eb 27		 jmp	 SHORT $LN242@format_inc
$LN241@format_inc:
  0202e	8b 15 00 00 00
	00		 mov	 edx, DWORD PTR ?__LINE__Var@?0??format_incoming_message@@YGPAUENTITY@@PAUMESSAGE_LOG_TYPE@@PAU2@1PAD@Z@4JA
  02034	81 c2 4c 01 00
	00		 add	 edx, 332		; 0000014cH
  0203a	52		 push	 edx
  0203b	68 00 00 00 00	 push	 OFFSET ??_C@_0DK@BLKECLAG@c?3?2users?2nhv90?2projects?2eech?2ap@
  02040	a1 00 00 00 00	 mov	 eax, DWORD PTR ?overload_invalid_vec3d_type_message@@3PBDB ; overload_invalid_vec3d_type_message
  02045	50		 push	 eax
  02046	e8 00 00 00 00	 call	 ?process_assert@@YGXPBD0H@Z ; process_assert
  0204b	c7 85 e4 fc ff
	ff 00 00 00 00	 mov	 DWORD PTR tv1236[ebp], 0
$LN242@format_inc:
  02055	8b 4d 08	 mov	 ecx, DWORD PTR _message$[ebp]
  02058	83 c1 0c	 add	 ecx, 12			; 0000000cH
  0205b	51		 push	 ecx
  0205c	6a 08		 push	 8
  0205e	8b 55 0c	 mov	 edx, DWORD PTR _sender$[ebp]
  02061	52		 push	 edx
  02062	6b 85 e8 fc ff
	ff 60		 imul	 eax, DWORD PTR tv1228[ebp], 96
  02069	8b 8d e4 fc ff
	ff		 mov	 ecx, DWORD PTR tv1236[ebp]
  0206f	8b 94 88 00 00
	00 00		 mov	 edx, DWORD PTR ?fn_get_local_entity_vec3d@@3PAY0BI@P6GXPAUENTITY@@W4VEC3D_TYPES@@PAUVEC3D@@@ZA[eax+ecx*4]
  02076	ff d2		 call	 edx

; 734  : 
; 735  : 			if (get_local_entity_int_value (sender, INT_TYPE_SIDE) == side)

  02078	83 7d 0c 00	 cmp	 DWORD PTR _sender$[ebp], 0
  0207c	74 0d		 je	 SHORT $LN243@format_inc
  0207e	8b 45 0c	 mov	 eax, DWORD PTR _sender$[ebp]
  02081	8b 08		 mov	 ecx, DWORD PTR [eax]
  02083	89 8d e8 fc ff
	ff		 mov	 DWORD PTR tv1248[ebp], ecx
  02089	eb 20		 jmp	 SHORT $LN244@format_inc
$LN243@format_inc:
  0208b	68 df 02 00 00	 push	 735			; 000002dfH
  02090	68 00 00 00 00	 push	 OFFSET ??_C@_0DK@BLKECLAG@c?3?2users?2nhv90?2projects?2eech?2ap@
  02095	8b 15 00 00 00
	00		 mov	 edx, DWORD PTR ?null_entity_pointer_message@@3PBDB ; null_entity_pointer_message
  0209b	52		 push	 edx
  0209c	e8 00 00 00 00	 call	 ?process_assert@@YGXPBD0H@Z ; process_assert
  020a1	c7 85 e8 fc ff
	ff 00 00 00 00	 mov	 DWORD PTR tv1248[ebp], 0
$LN244@format_inc:
  020ab	b8 01 00 00 00	 mov	 eax, 1
  020b0	85 c0		 test	 eax, eax
  020b2	74 0c		 je	 SHORT $LN245@format_inc
  020b4	c7 85 e4 fc ff
	ff bb 00 00 00	 mov	 DWORD PTR tv1255[ebp], 187 ; 000000bbH
  020be	eb 20		 jmp	 SHORT $LN246@format_inc
$LN245@format_inc:
  020c0	68 df 02 00 00	 push	 735			; 000002dfH
  020c5	68 00 00 00 00	 push	 OFFSET ??_C@_0DK@BLKECLAG@c?3?2users?2nhv90?2projects?2eech?2ap@
  020ca	8b 0d 00 00 00
	00		 mov	 ecx, DWORD PTR ?overload_invalid_int_type_message@@3PBDB ; overload_invalid_int_type_message
  020d0	51		 push	 ecx
  020d1	e8 00 00 00 00	 call	 ?process_assert@@YGXPBD0H@Z ; process_assert
  020d6	c7 85 e4 fc ff
	ff 00 00 00 00	 mov	 DWORD PTR tv1255[ebp], 0
$LN246@format_inc:
  020e0	68 bb 00 00 00	 push	 187			; 000000bbH
  020e5	8b 55 0c	 mov	 edx, DWORD PTR _sender$[ebp]
  020e8	52		 push	 edx
  020e9	69 85 e8 fc ff
	ff 5c 04 00 00	 imul	 eax, DWORD PTR tv1248[ebp], 1116
  020f3	8b 8d e4 fc ff
	ff		 mov	 ecx, DWORD PTR tv1255[ebp]
  020f9	8b 94 88 00 00
	00 00		 mov	 edx, DWORD PTR ?fn_get_local_entity_int_value@@3PAY0BBH@P6GHPAUENTITY@@W4INT_TYPES@@@ZA[eax+ecx*4]
  02100	ff d2		 call	 edx
  02102	3b 85 dc fd ff
	ff		 cmp	 eax, DWORD PTR _side$[ebp]
  02108	75 15		 jne	 SHORT $LN66@format_inc

; 736  : 			{
; 737  : 				message->colour = message_side_colour [side];

  0210a	8b 85 dc fd ff
	ff		 mov	 eax, DWORD PTR _side$[ebp]
  02110	8b 0c 85 00 00
	00 00		 mov	 ecx, DWORD PTR ?message_side_colour@@3PAUREAL_COLOUR@@A[eax*4]
  02117	8b 55 08	 mov	 edx, DWORD PTR _message$[ebp]
  0211a	89 4a 18	 mov	 DWORD PTR [edx+24], ecx

; 738  : 			}
; 739  : 			else

  0211d	eb 13		 jmp	 SHORT $LN67@format_inc
$LN66@format_inc:

; 740  : 			{
; 741  : 				message->colour = message_side_colour [enemy_side];

  0211f	8b 85 d8 fd ff
	ff		 mov	 eax, DWORD PTR _enemy_side$[ebp]
  02125	8b 0c 85 00 00
	00 00		 mov	 ecx, DWORD PTR ?message_side_colour@@3PAUREAL_COLOUR@@A[eax*4]
  0212c	8b 55 08	 mov	 edx, DWORD PTR _message$[ebp]
  0212f	89 4a 18	 mov	 DWORD PTR [edx+24], ecx
$LN67@format_inc:

; 742  : 			}
; 743  : 
; 744  : 			subject = sender;

  02132	8b 45 0c	 mov	 eax, DWORD PTR _sender$[ebp]
  02135	89 85 e8 fd ff
	ff		 mov	 DWORD PTR _subject$[ebp], eax

; 745  : 
; 746  : 			break;

  0213b	e9 97 02 00 00	 jmp	 $LN2@format_inc
$LN68@format_inc:

; 747  : 		}
; 748  : 
; 749  : 		case MESSAGE_TEXT_SYSTEM_KEYSITE_DESTROYED:
; 750  : 		{
; 751  : 			ASSERT (sender);		// sender is the keysite

  02140	83 7d 0c 00	 cmp	 DWORD PTR _sender$[ebp], 0
  02144	75 1a		 jne	 SHORT $LN69@format_inc
  02146	a1 00 00 00 00	 mov	 eax, DWORD PTR ?__LINE__Var@?0??format_incoming_message@@YGPAUENTITY@@PAUMESSAGE_LOG_TYPE@@PAU2@1PAD@Z@4JA
  0214b	05 5e 01 00 00	 add	 eax, 350		; 0000015eH
  02150	50		 push	 eax
  02151	68 00 00 00 00	 push	 OFFSET ??_C@_0DK@BLKECLAG@c?3?2users?2nhv90?2projects?2eech?2ap@
  02156	68 00 00 00 00	 push	 OFFSET ??_C@_06CGHJMPBJ@sender@
  0215b	e8 00 00 00 00	 call	 ?process_assert@@YGXPBD0H@Z ; process_assert
$LN69@format_inc:

; 752  : 
; 753  : 			ASSERT (raw_string == NULL);

  02160	83 7d 14 00	 cmp	 DWORD PTR _raw_string$[ebp], 0
  02164	74 1a		 je	 SHORT $LN70@format_inc
  02166	a1 00 00 00 00	 mov	 eax, DWORD PTR ?__LINE__Var@?0??format_incoming_message@@YGPAUENTITY@@PAUMESSAGE_LOG_TYPE@@PAU2@1PAD@Z@4JA
  0216b	05 60 01 00 00	 add	 eax, 352		; 00000160H
  02170	50		 push	 eax
  02171	68 00 00 00 00	 push	 OFFSET ??_C@_0DK@BLKECLAG@c?3?2users?2nhv90?2projects?2eech?2ap@
  02176	68 00 00 00 00	 push	 OFFSET ??_C@_0BD@PFNECLNE@raw_string?5?$DN?$DN?5NULL@
  0217b	e8 00 00 00 00	 call	 ?process_assert@@YGXPBD0H@Z ; process_assert
$LN70@format_inc:

; 754  : 
; 755  : 			sprintf (temp_string, "%s %s", get_local_entity_string (sender, STRING_TYPE_KEYSITE_NAME), get_trans ("destroyed"));

  02180	83 7d 0c 00	 cmp	 DWORD PTR _sender$[ebp], 0
  02184	74 0d		 je	 SHORT $LN247@format_inc
  02186	8b 45 0c	 mov	 eax, DWORD PTR _sender$[ebp]
  02189	8b 08		 mov	 ecx, DWORD PTR [eax]
  0218b	89 8d e8 fc ff
	ff		 mov	 DWORD PTR tv1290[ebp], ecx
  02191	eb 27		 jmp	 SHORT $LN248@format_inc
$LN247@format_inc:
  02193	8b 15 00 00 00
	00		 mov	 edx, DWORD PTR ?__LINE__Var@?0??format_incoming_message@@YGPAUENTITY@@PAUMESSAGE_LOG_TYPE@@PAU2@1PAD@Z@4JA
  02199	81 c2 62 01 00
	00		 add	 edx, 354		; 00000162H
  0219f	52		 push	 edx
  021a0	68 00 00 00 00	 push	 OFFSET ??_C@_0DK@BLKECLAG@c?3?2users?2nhv90?2projects?2eech?2ap@
  021a5	a1 00 00 00 00	 mov	 eax, DWORD PTR ?null_entity_pointer_message@@3PBDB ; null_entity_pointer_message
  021aa	50		 push	 eax
  021ab	e8 00 00 00 00	 call	 ?process_assert@@YGXPBD0H@Z ; process_assert
  021b0	c7 85 e8 fc ff
	ff 00 00 00 00	 mov	 DWORD PTR tv1290[ebp], 0
$LN248@format_inc:
  021ba	b9 01 00 00 00	 mov	 ecx, 1
  021bf	85 c9		 test	 ecx, ecx
  021c1	74 0c		 je	 SHORT $LN249@format_inc
  021c3	c7 85 e4 fc ff
	ff 07 00 00 00	 mov	 DWORD PTR tv1298[ebp], 7
  021cd	eb 27		 jmp	 SHORT $LN250@format_inc
$LN249@format_inc:
  021cf	8b 15 00 00 00
	00		 mov	 edx, DWORD PTR ?__LINE__Var@?0??format_incoming_message@@YGPAUENTITY@@PAUMESSAGE_LOG_TYPE@@PAU2@1PAD@Z@4JA
  021d5	81 c2 62 01 00
	00		 add	 edx, 354		; 00000162H
  021db	52		 push	 edx
  021dc	68 00 00 00 00	 push	 OFFSET ??_C@_0DK@BLKECLAG@c?3?2users?2nhv90?2projects?2eech?2ap@
  021e1	a1 00 00 00 00	 mov	 eax, DWORD PTR ?overload_invalid_string_type_message@@3PBDB ; overload_invalid_string_type_message
  021e6	50		 push	 eax
  021e7	e8 00 00 00 00	 call	 ?process_assert@@YGXPBD0H@Z ; process_assert
  021ec	c7 85 e4 fc ff
	ff 00 00 00 00	 mov	 DWORD PTR tv1298[ebp], 0
$LN250@format_inc:
  021f6	68 00 00 00 00	 push	 OFFSET ??_C@_09OMEHJBAL@destroyed@
  021fb	e8 00 00 00 00	 call	 ?get_trans@@YGPBDPBD@Z	; get_trans
  02200	50		 push	 eax
  02201	6a 07		 push	 7
  02203	8b 4d 0c	 mov	 ecx, DWORD PTR _sender$[ebp]
  02206	51		 push	 ecx
  02207	6b 95 e8 fc ff
	ff 34		 imul	 edx, DWORD PTR tv1290[ebp], 52
  0220e	8b 85 e4 fc ff
	ff		 mov	 eax, DWORD PTR tv1298[ebp]
  02214	8b 8c 82 00 00
	00 00		 mov	 ecx, DWORD PTR ?fn_get_local_entity_string@@3PAY0N@P6GPBDPAUENTITY@@W4STRING_TYPES@@@ZA[edx+eax*4]
  0221b	ff d1		 call	 ecx
  0221d	50		 push	 eax
  0221e	68 00 00 00 00	 push	 OFFSET ??_C@_05DNIIFBMG@?$CFs?5?$CFs@
  02223	8d 95 f4 fd ff
	ff		 lea	 edx, DWORD PTR _temp_string$[ebp]
  02229	52		 push	 edx
  0222a	e8 00 00 00 00	 call	 _sprintf
  0222f	83 c4 10	 add	 esp, 16			; 00000010H

; 756  : 
; 757  : 			get_local_entity_vec3d (sender, VEC3D_TYPE_POSITION, &(message->position));

  02232	83 7d 0c 00	 cmp	 DWORD PTR _sender$[ebp], 0
  02236	74 0d		 je	 SHORT $LN251@format_inc
  02238	8b 45 0c	 mov	 eax, DWORD PTR _sender$[ebp]
  0223b	8b 08		 mov	 ecx, DWORD PTR [eax]
  0223d	89 8d e8 fc ff
	ff		 mov	 DWORD PTR tv1312[ebp], ecx
  02243	eb 27		 jmp	 SHORT $LN252@format_inc
$LN251@format_inc:
  02245	8b 15 00 00 00
	00		 mov	 edx, DWORD PTR ?__LINE__Var@?0??format_incoming_message@@YGPAUENTITY@@PAUMESSAGE_LOG_TYPE@@PAU2@1PAD@Z@4JA
  0224b	81 c2 64 01 00
	00		 add	 edx, 356		; 00000164H
  02251	52		 push	 edx
  02252	68 00 00 00 00	 push	 OFFSET ??_C@_0DK@BLKECLAG@c?3?2users?2nhv90?2projects?2eech?2ap@
  02257	a1 00 00 00 00	 mov	 eax, DWORD PTR ?null_entity_pointer_message@@3PBDB ; null_entity_pointer_message
  0225c	50		 push	 eax
  0225d	e8 00 00 00 00	 call	 ?process_assert@@YGXPBD0H@Z ; process_assert
  02262	c7 85 e8 fc ff
	ff 00 00 00 00	 mov	 DWORD PTR tv1312[ebp], 0
$LN252@format_inc:
  0226c	b9 01 00 00 00	 mov	 ecx, 1
  02271	85 c9		 test	 ecx, ecx
  02273	74 0c		 je	 SHORT $LN253@format_inc
  02275	c7 85 e4 fc ff
	ff 08 00 00 00	 mov	 DWORD PTR tv1320[ebp], 8
  0227f	eb 27		 jmp	 SHORT $LN254@format_inc
$LN253@format_inc:
  02281	8b 15 00 00 00
	00		 mov	 edx, DWORD PTR ?__LINE__Var@?0??format_incoming_message@@YGPAUENTITY@@PAUMESSAGE_LOG_TYPE@@PAU2@1PAD@Z@4JA
  02287	81 c2 64 01 00
	00		 add	 edx, 356		; 00000164H
  0228d	52		 push	 edx
  0228e	68 00 00 00 00	 push	 OFFSET ??_C@_0DK@BLKECLAG@c?3?2users?2nhv90?2projects?2eech?2ap@
  02293	a1 00 00 00 00	 mov	 eax, DWORD PTR ?overload_invalid_vec3d_type_message@@3PBDB ; overload_invalid_vec3d_type_message
  02298	50		 push	 eax
  02299	e8 00 00 00 00	 call	 ?process_assert@@YGXPBD0H@Z ; process_assert
  0229e	c7 85 e4 fc ff
	ff 00 00 00 00	 mov	 DWORD PTR tv1320[ebp], 0
$LN254@format_inc:
  022a8	8b 4d 08	 mov	 ecx, DWORD PTR _message$[ebp]
  022ab	83 c1 0c	 add	 ecx, 12			; 0000000cH
  022ae	51		 push	 ecx
  022af	6a 08		 push	 8
  022b1	8b 55 0c	 mov	 edx, DWORD PTR _sender$[ebp]
  022b4	52		 push	 edx
  022b5	6b 85 e8 fc ff
	ff 60		 imul	 eax, DWORD PTR tv1312[ebp], 96
  022bc	8b 8d e4 fc ff
	ff		 mov	 ecx, DWORD PTR tv1320[ebp]
  022c2	8b 94 88 00 00
	00 00		 mov	 edx, DWORD PTR ?fn_get_local_entity_vec3d@@3PAY0BI@P6GXPAUENTITY@@W4VEC3D_TYPES@@PAUVEC3D@@@ZA[eax+ecx*4]
  022c9	ff d2		 call	 edx

; 758  : 
; 759  : 			if (get_local_entity_int_value (sender, INT_TYPE_SIDE) == side)

  022cb	83 7d 0c 00	 cmp	 DWORD PTR _sender$[ebp], 0
  022cf	74 0d		 je	 SHORT $LN255@format_inc
  022d1	8b 45 0c	 mov	 eax, DWORD PTR _sender$[ebp]
  022d4	8b 08		 mov	 ecx, DWORD PTR [eax]
  022d6	89 8d e8 fc ff
	ff		 mov	 DWORD PTR tv1332[ebp], ecx
  022dc	eb 20		 jmp	 SHORT $LN256@format_inc
$LN255@format_inc:
  022de	68 f7 02 00 00	 push	 759			; 000002f7H
  022e3	68 00 00 00 00	 push	 OFFSET ??_C@_0DK@BLKECLAG@c?3?2users?2nhv90?2projects?2eech?2ap@
  022e8	8b 15 00 00 00
	00		 mov	 edx, DWORD PTR ?null_entity_pointer_message@@3PBDB ; null_entity_pointer_message
  022ee	52		 push	 edx
  022ef	e8 00 00 00 00	 call	 ?process_assert@@YGXPBD0H@Z ; process_assert
  022f4	c7 85 e8 fc ff
	ff 00 00 00 00	 mov	 DWORD PTR tv1332[ebp], 0
$LN256@format_inc:
  022fe	b8 01 00 00 00	 mov	 eax, 1
  02303	85 c0		 test	 eax, eax
  02305	74 0c		 je	 SHORT $LN257@format_inc
  02307	c7 85 e4 fc ff
	ff bb 00 00 00	 mov	 DWORD PTR tv1339[ebp], 187 ; 000000bbH
  02311	eb 20		 jmp	 SHORT $LN258@format_inc
$LN257@format_inc:
  02313	68 f7 02 00 00	 push	 759			; 000002f7H
  02318	68 00 00 00 00	 push	 OFFSET ??_C@_0DK@BLKECLAG@c?3?2users?2nhv90?2projects?2eech?2ap@
  0231d	8b 0d 00 00 00
	00		 mov	 ecx, DWORD PTR ?overload_invalid_int_type_message@@3PBDB ; overload_invalid_int_type_message
  02323	51		 push	 ecx
  02324	e8 00 00 00 00	 call	 ?process_assert@@YGXPBD0H@Z ; process_assert
  02329	c7 85 e4 fc ff
	ff 00 00 00 00	 mov	 DWORD PTR tv1339[ebp], 0
$LN258@format_inc:
  02333	68 bb 00 00 00	 push	 187			; 000000bbH
  02338	8b 55 0c	 mov	 edx, DWORD PTR _sender$[ebp]
  0233b	52		 push	 edx
  0233c	69 85 e8 fc ff
	ff 5c 04 00 00	 imul	 eax, DWORD PTR tv1332[ebp], 1116
  02346	8b 8d e4 fc ff
	ff		 mov	 ecx, DWORD PTR tv1339[ebp]
  0234c	8b 94 88 00 00
	00 00		 mov	 edx, DWORD PTR ?fn_get_local_entity_int_value@@3PAY0BBH@P6GHPAUENTITY@@W4INT_TYPES@@@ZA[eax+ecx*4]
  02353	ff d2		 call	 edx
  02355	3b 85 dc fd ff
	ff		 cmp	 eax, DWORD PTR _side$[ebp]
  0235b	75 15		 jne	 SHORT $LN71@format_inc

; 760  : 			{
; 761  : 				message->colour = message_side_colour [enemy_side];

  0235d	8b 85 d8 fd ff
	ff		 mov	 eax, DWORD PTR _enemy_side$[ebp]
  02363	8b 0c 85 00 00
	00 00		 mov	 ecx, DWORD PTR ?message_side_colour@@3PAUREAL_COLOUR@@A[eax*4]
  0236a	8b 55 08	 mov	 edx, DWORD PTR _message$[ebp]
  0236d	89 4a 18	 mov	 DWORD PTR [edx+24], ecx

; 762  : 			}
; 763  : 			else

  02370	eb 13		 jmp	 SHORT $LN72@format_inc
$LN71@format_inc:

; 764  : 			{
; 765  : 				message->colour = message_side_colour [side];

  02372	8b 85 dc fd ff
	ff		 mov	 eax, DWORD PTR _side$[ebp]
  02378	8b 0c 85 00 00
	00 00		 mov	 ecx, DWORD PTR ?message_side_colour@@3PAUREAL_COLOUR@@A[eax*4]
  0237f	8b 55 08	 mov	 edx, DWORD PTR _message$[ebp]
  02382	89 4a 18	 mov	 DWORD PTR [edx+24], ecx
$LN72@format_inc:

; 766  : 			}
; 767  : 
; 768  : 			subject = sender;

  02385	8b 45 0c	 mov	 eax, DWORD PTR _sender$[ebp]
  02388	89 85 e8 fd ff
	ff		 mov	 DWORD PTR _subject$[ebp], eax

; 769  : 
; 770  : 			break;

  0238e	eb 47		 jmp	 SHORT $LN2@format_inc
$LN73@format_inc:

; 771  : 		}
; 772  : 
; 773  : 		default:
; 774  : 		{
; 775  : 			ASSERT (raw_string);

  02390	83 7d 14 00	 cmp	 DWORD PTR _raw_string$[ebp], 0
  02394	75 1a		 jne	 SHORT $LN74@format_inc
  02396	a1 00 00 00 00	 mov	 eax, DWORD PTR ?__LINE__Var@?0??format_incoming_message@@YGPAUENTITY@@PAUMESSAGE_LOG_TYPE@@PAU2@1PAD@Z@4JA
  0239b	05 76 01 00 00	 add	 eax, 374		; 00000176H
  023a0	50		 push	 eax
  023a1	68 00 00 00 00	 push	 OFFSET ??_C@_0DK@BLKECLAG@c?3?2users?2nhv90?2projects?2eech?2ap@
  023a6	68 00 00 00 00	 push	 OFFSET ??_C@_0L@PECNBABE@raw_string@
  023ab	e8 00 00 00 00	 call	 ?process_assert@@YGXPBD0H@Z ; process_assert
$LN74@format_inc:

; 776  : 
; 777  : 			strcpy (temp_string, raw_string);

  023b0	8b 45 14	 mov	 eax, DWORD PTR _raw_string$[ebp]
  023b3	50		 push	 eax
  023b4	8d 8d f4 fd ff
	ff		 lea	 ecx, DWORD PTR _temp_string$[ebp]
  023ba	51		 push	 ecx
  023bb	e8 00 00 00 00	 call	 _strcpy
  023c0	83 c4 08	 add	 esp, 8

; 778  : 
; 779  : 			message->colour = message_side_colour [ENTITY_SIDE_NEUTRAL];

  023c3	b8 04 00 00 00	 mov	 eax, 4
  023c8	6b c8 00	 imul	 ecx, eax, 0
  023cb	8b 91 00 00 00
	00		 mov	 edx, DWORD PTR ?message_side_colour@@3PAUREAL_COLOUR@@A[ecx]
  023d1	8b 45 08	 mov	 eax, DWORD PTR _message$[ebp]
  023d4	89 50 18	 mov	 DWORD PTR [eax+24], edx
$LN2@format_inc:

; 780  : 
; 781  : 			break;
; 782  : 		}
; 783  : 	}
; 784  : 
; 785  : 	ASSERT (strlen (temp_string) > 0);

  023d7	8d 85 f4 fd ff
	ff		 lea	 eax, DWORD PTR _temp_string$[ebp]
  023dd	50		 push	 eax
  023de	e8 00 00 00 00	 call	 _strlen
  023e3	83 c4 04	 add	 esp, 4
  023e6	85 c0		 test	 eax, eax
  023e8	77 1a		 ja	 SHORT $LN75@format_inc
  023ea	a1 00 00 00 00	 mov	 eax, DWORD PTR ?__LINE__Var@?0??format_incoming_message@@YGPAUENTITY@@PAUMESSAGE_LOG_TYPE@@PAU2@1PAD@Z@4JA
  023ef	05 80 01 00 00	 add	 eax, 384		; 00000180H
  023f4	50		 push	 eax
  023f5	68 00 00 00 00	 push	 OFFSET ??_C@_0DK@BLKECLAG@c?3?2users?2nhv90?2projects?2eech?2ap@
  023fa	68 00 00 00 00	 push	 OFFSET ??_C@_0BJ@OKIMKLOH@strlen?5?$CItemp_string?$CJ?5?$DO?50@
  023ff	e8 00 00 00 00	 call	 ?process_assert@@YGXPBD0H@Z ; process_assert
$LN75@format_inc:

; 786  : 
; 787  : 	message->string = (char *) malloc_heap_mem (strlen (temp_string) + 4);

  02404	8d 85 f4 fd ff
	ff		 lea	 eax, DWORD PTR _temp_string$[ebp]
  0240a	50		 push	 eax
  0240b	e8 00 00 00 00	 call	 _strlen
  02410	83 c4 04	 add	 esp, 4
  02413	83 c0 04	 add	 eax, 4
  02416	50		 push	 eax
  02417	e8 00 00 00 00	 call	 ?malloc_heap_memory@@YGPAXI@Z ; malloc_heap_memory
  0241c	8b 4d 08	 mov	 ecx, DWORD PTR _message$[ebp]
  0241f	89 41 1c	 mov	 DWORD PTR [ecx+28], eax

; 788  : 
; 789  : 	strcpy (message->string, temp_string);

  02422	8d 85 f4 fd ff
	ff		 lea	 eax, DWORD PTR _temp_string$[ebp]
  02428	50		 push	 eax
  02429	8b 4d 08	 mov	 ecx, DWORD PTR _message$[ebp]
  0242c	8b 51 1c	 mov	 edx, DWORD PTR [ecx+28]
  0242f	52		 push	 edx
  02430	e8 00 00 00 00	 call	 _strcpy
  02435	83 c4 08	 add	 esp, 8

; 790  : 
; 791  : 	return subject;

  02438	8b 85 e8 fd ff
	ff		 mov	 eax, DWORD PTR _subject$[ebp]

; 792  : }

  0243e	5f		 pop	 edi
  0243f	5e		 pop	 esi
  02440	5b		 pop	 ebx
  02441	8b e5		 mov	 esp, ebp
  02443	5d		 pop	 ebp
  02444	c2 10 00	 ret	 16			; 00000010H
  02447	90		 npad	 1
$LN259@format_inc:
  02448	00 00 00 00	 DD	 $LN30@format_inc
  0244c	00 00 00 00	 DD	 $LN36@format_inc
  02450	00 00 00 00	 DD	 $LN48@format_inc
  02454	00 00 00 00	 DD	 $LN55@format_inc
  02458	00 00 00 00	 DD	 $LN63@format_inc
  0245c	00 00 00 00	 DD	 $LN68@format_inc
  02460	00 00 00 00	 DD	 $LN17@format_inc
  02464	00 00 00 00	 DD	 $LN8@format_inc
  02468	00 00 00 00	 DD	 $LN8@format_inc
  0246c	00 00 00 00	 DD	 $LN8@format_inc
  02470	00 00 00 00	 DD	 $LN8@format_inc
?format_incoming_message@@YGPAUENTITY@@PAUMESSAGE_LOG_TYPE@@PAU1@1PAD@Z ENDP ; format_incoming_message
_TEXT	ENDS
; Function compile flags: /Odtp /ZI
; File c:\users\nhv90\projects\eech\aphavoc\source\misc\msg_in.c
;	COMDAT ?message_intended_for_recipient@@YGHPAUENTITY@@0W4MESSAGE_TEXT_TYPES@@@Z
_TEXT	SEGMENT
tv262 = -84						; size = 4
tv199 = -84						; size = 4
tv133 = -84						; size = 4
tv255 = -80						; size = 4
tv192 = -80						; size = 4
tv94 = -80						; size = 4
tv293 = -76						; size = 4
tv244 = -76						; size = 4
tv181 = -76						; size = 4
tv157 = -76						; size = 4
tv83 = -76						; size = 4
tv285 = -72						; size = 4
tv237 = -72						; size = 4
tv229 = -72						; size = 4
tv174 = -72						; size = 4
tv150 = -72						; size = 4
tv76 = -72						; size = 4
tv65 = -72						; size = 4
_parent$1 = -4						; size = 4
_sender$ = 8						; size = 4
_target$ = 12						; size = 4
_type$ = 16						; size = 4
?message_intended_for_recipient@@YGHPAUENTITY@@0W4MESSAGE_TEXT_TYPES@@@Z PROC ; message_intended_for_recipient, COMDAT

; 245  : {

  00000	55		 push	 ebp
  00001	8b ec		 mov	 ebp, esp
  00003	83 ec 54	 sub	 esp, 84			; 00000054H
  00006	53		 push	 ebx
  00007	56		 push	 esi
  00008	57		 push	 edi

; 246  : 	if (!get_pilot_entity ())

  00009	83 3d 00 00 00
	00 00		 cmp	 DWORD PTR ?pilot_entity@@3PAUENTITY@@A, 0 ; pilot_entity
  00010	75 07		 jne	 SHORT $LN4@message_in

; 247  : 	{
; 248  : 		//
; 249  : 		// can't display messages until player is properly in the game
; 250  : 		//
; 251  : 
; 252  : 		return FALSE;

  00012	33 c0		 xor	 eax, eax
  00014	e9 ea 05 00 00	 jmp	 $LN1@message_in
$LN4@message_in:

; 253  : 	}
; 254  : 
; 255  : 	switch (type)

  00019	8b 45 10	 mov	 eax, DWORD PTR _type$[ebp]
  0001c	89 45 b8	 mov	 DWORD PTR tv65[ebp], eax
  0001f	83 7d b8 0b	 cmp	 DWORD PTR tv65[ebp], 11	; 0000000bH
  00023	0f 87 c7 05 00
	00		 ja	 $LN28@message_in
  00029	8b 4d b8	 mov	 ecx, DWORD PTR tv65[ebp]
  0002c	ff 24 8d 00 00
	00 00		 jmp	 DWORD PTR $LN64@message_in[ecx*4]
$LN5@message_in:

; 256  : 	{
; 257  : 		case MESSAGE_TEXT_SYSTEM_NEW_PILOT:
; 258  : 		case MESSAGE_TEXT_SYSTEM_ENTITY_KILLED:
; 259  : 		case MESSAGE_TEXT_SYSTEM_KEYSITE_CAPTURED:
; 260  : 		case MESSAGE_TEXT_SYSTEM_KEYSITE_DESTROYED:
; 261  : 		case MESSAGE_TEXT_LOCAL_MESSAGE:
; 262  : 		{
; 263  : 			//
; 264  : 			// all pilots display these messages
; 265  : 			//
; 266  : 
; 267  : 			return TRUE;

  00033	b8 01 00 00 00	 mov	 eax, 1
  00038	e9 c6 05 00 00	 jmp	 $LN1@message_in
$LN6@message_in:

; 268  : 		}
; 269  : 
; 270  : 		case MESSAGE_TEXT_SYSTEM_RECON_DATA:
; 271  : 		case MESSAGE_TEXT_SYSTEM_ENTITY_UNDER_ATTACK:
; 272  : 		{
; 273  : 			ASSERT (target);

  0003d	83 7d 0c 00	 cmp	 DWORD PTR _target$[ebp], 0
  00041	75 18		 jne	 SHORT $LN7@message_in
  00043	a1 00 00 00 00	 mov	 eax, DWORD PTR ?__LINE__Var@?0??message_intended_for_recipient@@YGHPAUENTITY@@0W4MESSAGE_TEXT_TYPES@@@Z@4JA
  00048	83 c0 1c	 add	 eax, 28			; 0000001cH
  0004b	50		 push	 eax
  0004c	68 00 00 00 00	 push	 OFFSET ??_C@_0DK@BLKECLAG@c?3?2users?2nhv90?2projects?2eech?2ap@
  00051	68 00 00 00 00	 push	 OFFSET ??_C@_06JJLAMBGK@target@
  00056	e8 00 00 00 00	 call	 ?process_assert@@YGXPBD0H@Z ; process_assert
$LN7@message_in:

; 274  : 
; 275  : 			if (get_local_entity_int_value (target, INT_TYPE_SIDE) == get_local_entity_int_value (get_pilot_entity (), INT_TYPE_SIDE))

  0005b	83 7d 0c 00	 cmp	 DWORD PTR _target$[ebp], 0
  0005f	74 0a		 je	 SHORT $LN30@message_in
  00061	8b 45 0c	 mov	 eax, DWORD PTR _target$[ebp]
  00064	8b 08		 mov	 ecx, DWORD PTR [eax]
  00066	89 4d b8	 mov	 DWORD PTR tv76[ebp], ecx
  00069	eb 1d		 jmp	 SHORT $LN31@message_in
$LN30@message_in:
  0006b	68 13 01 00 00	 push	 275			; 00000113H
  00070	68 00 00 00 00	 push	 OFFSET ??_C@_0DK@BLKECLAG@c?3?2users?2nhv90?2projects?2eech?2ap@
  00075	8b 15 00 00 00
	00		 mov	 edx, DWORD PTR ?null_entity_pointer_message@@3PBDB ; null_entity_pointer_message
  0007b	52		 push	 edx
  0007c	e8 00 00 00 00	 call	 ?process_assert@@YGXPBD0H@Z ; process_assert
  00081	c7 45 b8 00 00
	00 00		 mov	 DWORD PTR tv76[ebp], 0
$LN31@message_in:
  00088	b8 01 00 00 00	 mov	 eax, 1
  0008d	85 c0		 test	 eax, eax
  0008f	74 09		 je	 SHORT $LN32@message_in
  00091	c7 45 b4 bb 00
	00 00		 mov	 DWORD PTR tv83[ebp], 187 ; 000000bbH
  00098	eb 1d		 jmp	 SHORT $LN33@message_in
$LN32@message_in:
  0009a	68 13 01 00 00	 push	 275			; 00000113H
  0009f	68 00 00 00 00	 push	 OFFSET ??_C@_0DK@BLKECLAG@c?3?2users?2nhv90?2projects?2eech?2ap@
  000a4	8b 0d 00 00 00
	00		 mov	 ecx, DWORD PTR ?overload_invalid_int_type_message@@3PBDB ; overload_invalid_int_type_message
  000aa	51		 push	 ecx
  000ab	e8 00 00 00 00	 call	 ?process_assert@@YGXPBD0H@Z ; process_assert
  000b0	c7 45 b4 00 00
	00 00		 mov	 DWORD PTR tv83[ebp], 0
$LN33@message_in:
  000b7	83 3d 00 00 00
	00 00		 cmp	 DWORD PTR ?pilot_entity@@3PAUENTITY@@A, 0 ; pilot_entity
  000be	74 0d		 je	 SHORT $LN34@message_in
  000c0	8b 15 00 00 00
	00		 mov	 edx, DWORD PTR ?pilot_entity@@3PAUENTITY@@A ; pilot_entity
  000c6	8b 02		 mov	 eax, DWORD PTR [edx]
  000c8	89 45 b0	 mov	 DWORD PTR tv94[ebp], eax
  000cb	eb 1d		 jmp	 SHORT $LN35@message_in
$LN34@message_in:
  000cd	68 13 01 00 00	 push	 275			; 00000113H
  000d2	68 00 00 00 00	 push	 OFFSET ??_C@_0DK@BLKECLAG@c?3?2users?2nhv90?2projects?2eech?2ap@
  000d7	8b 0d 00 00 00
	00		 mov	 ecx, DWORD PTR ?null_entity_pointer_message@@3PBDB ; null_entity_pointer_message
  000dd	51		 push	 ecx
  000de	e8 00 00 00 00	 call	 ?process_assert@@YGXPBD0H@Z ; process_assert
  000e3	c7 45 b0 00 00
	00 00		 mov	 DWORD PTR tv94[ebp], 0
$LN35@message_in:
  000ea	ba 01 00 00 00	 mov	 edx, 1
  000ef	85 d2		 test	 edx, edx
  000f1	74 09		 je	 SHORT $LN36@message_in
  000f3	c7 45 ac bb 00
	00 00		 mov	 DWORD PTR tv133[ebp], 187 ; 000000bbH
  000fa	eb 1c		 jmp	 SHORT $LN37@message_in
$LN36@message_in:
  000fc	68 13 01 00 00	 push	 275			; 00000113H
  00101	68 00 00 00 00	 push	 OFFSET ??_C@_0DK@BLKECLAG@c?3?2users?2nhv90?2projects?2eech?2ap@
  00106	a1 00 00 00 00	 mov	 eax, DWORD PTR ?overload_invalid_int_type_message@@3PBDB ; overload_invalid_int_type_message
  0010b	50		 push	 eax
  0010c	e8 00 00 00 00	 call	 ?process_assert@@YGXPBD0H@Z ; process_assert
  00111	c7 45 ac 00 00
	00 00		 mov	 DWORD PTR tv133[ebp], 0
$LN37@message_in:
  00118	68 bb 00 00 00	 push	 187			; 000000bbH
  0011d	8b 4d 0c	 mov	 ecx, DWORD PTR _target$[ebp]
  00120	51		 push	 ecx
  00121	69 55 b8 5c 04
	00 00		 imul	 edx, DWORD PTR tv76[ebp], 1116
  00128	8b 45 b4	 mov	 eax, DWORD PTR tv83[ebp]
  0012b	8b 8c 82 00 00
	00 00		 mov	 ecx, DWORD PTR ?fn_get_local_entity_int_value@@3PAY0BBH@P6GHPAUENTITY@@W4INT_TYPES@@@ZA[edx+eax*4]
  00132	ff d1		 call	 ecx
  00134	8b f0		 mov	 esi, eax
  00136	68 bb 00 00 00	 push	 187			; 000000bbH
  0013b	8b 15 00 00 00
	00		 mov	 edx, DWORD PTR ?pilot_entity@@3PAUENTITY@@A ; pilot_entity
  00141	52		 push	 edx
  00142	69 45 b0 5c 04
	00 00		 imul	 eax, DWORD PTR tv94[ebp], 1116
  00149	8b 4d ac	 mov	 ecx, DWORD PTR tv133[ebp]
  0014c	8b 94 88 00 00
	00 00		 mov	 edx, DWORD PTR ?fn_get_local_entity_int_value@@3PAY0BBH@P6GHPAUENTITY@@W4INT_TYPES@@@ZA[eax+ecx*4]
  00153	ff d2		 call	 edx
  00155	3b f0		 cmp	 esi, eax
  00157	75 0a		 jne	 SHORT $LN8@message_in

; 276  : 			{
; 277  : 				//
; 278  : 				// message broadcast to all pilots on this side
; 279  : 				//
; 280  : 
; 281  : 				return TRUE;

  00159	b8 01 00 00 00	 mov	 eax, 1
  0015e	e9 a0 04 00 00	 jmp	 $LN1@message_in
$LN8@message_in:

; 282  : 			}
; 283  : 
; 284  : 			break;

  00163	e9 99 04 00 00	 jmp	 $LN2@message_in
$LN9@message_in:

; 285  : 		}
; 286  : 
; 287  : 		case MESSAGE_TEXT_SYSTEM_TASK_COMPLETED:
; 288  : 		{
; 289  : 			//
; 290  : 			// all pilots on this side display these messages - but only if the task was a primary task
; 291  : 			//
; 292  : 
; 293  : 			ASSERT (target);

  00168	83 7d 0c 00	 cmp	 DWORD PTR _target$[ebp], 0
  0016c	75 18		 jne	 SHORT $LN10@message_in
  0016e	a1 00 00 00 00	 mov	 eax, DWORD PTR ?__LINE__Var@?0??message_intended_for_recipient@@YGHPAUENTITY@@0W4MESSAGE_TEXT_TYPES@@@Z@4JA
  00173	83 c0 30	 add	 eax, 48			; 00000030H
  00176	50		 push	 eax
  00177	68 00 00 00 00	 push	 OFFSET ??_C@_0DK@BLKECLAG@c?3?2users?2nhv90?2projects?2eech?2ap@
  0017c	68 00 00 00 00	 push	 OFFSET ??_C@_06JJLAMBGK@target@
  00181	e8 00 00 00 00	 call	 ?process_assert@@YGXPBD0H@Z ; process_assert
$LN10@message_in:

; 294  : 
; 295  : 			if (task_database [get_local_entity_int_value (target, INT_TYPE_ENTITY_SUB_TYPE)].primary_task)

  00186	83 7d 0c 00	 cmp	 DWORD PTR _target$[ebp], 0
  0018a	74 0a		 je	 SHORT $LN38@message_in
  0018c	8b 45 0c	 mov	 eax, DWORD PTR _target$[ebp]
  0018f	8b 08		 mov	 ecx, DWORD PTR [eax]
  00191	89 4d b8	 mov	 DWORD PTR tv150[ebp], ecx
  00194	eb 1d		 jmp	 SHORT $LN39@message_in
$LN38@message_in:
  00196	68 27 01 00 00	 push	 295			; 00000127H
  0019b	68 00 00 00 00	 push	 OFFSET ??_C@_0DK@BLKECLAG@c?3?2users?2nhv90?2projects?2eech?2ap@
  001a0	8b 15 00 00 00
	00		 mov	 edx, DWORD PTR ?null_entity_pointer_message@@3PBDB ; null_entity_pointer_message
  001a6	52		 push	 edx
  001a7	e8 00 00 00 00	 call	 ?process_assert@@YGXPBD0H@Z ; process_assert
  001ac	c7 45 b8 00 00
	00 00		 mov	 DWORD PTR tv150[ebp], 0
$LN39@message_in:
  001b3	b8 01 00 00 00	 mov	 eax, 1
  001b8	85 c0		 test	 eax, eax
  001ba	74 09		 je	 SHORT $LN40@message_in
  001bc	c7 45 b4 34 00
	00 00		 mov	 DWORD PTR tv157[ebp], 52 ; 00000034H
  001c3	eb 1d		 jmp	 SHORT $LN41@message_in
$LN40@message_in:
  001c5	68 27 01 00 00	 push	 295			; 00000127H
  001ca	68 00 00 00 00	 push	 OFFSET ??_C@_0DK@BLKECLAG@c?3?2users?2nhv90?2projects?2eech?2ap@
  001cf	8b 0d 00 00 00
	00		 mov	 ecx, DWORD PTR ?overload_invalid_int_type_message@@3PBDB ; overload_invalid_int_type_message
  001d5	51		 push	 ecx
  001d6	e8 00 00 00 00	 call	 ?process_assert@@YGXPBD0H@Z ; process_assert
  001db	c7 45 b4 00 00
	00 00		 mov	 DWORD PTR tv157[ebp], 0
$LN41@message_in:
  001e2	6a 34		 push	 52			; 00000034H
  001e4	8b 55 0c	 mov	 edx, DWORD PTR _target$[ebp]
  001e7	52		 push	 edx
  001e8	69 45 b8 5c 04
	00 00		 imul	 eax, DWORD PTR tv150[ebp], 1116
  001ef	8b 4d b4	 mov	 ecx, DWORD PTR tv157[ebp]
  001f2	8b 94 88 00 00
	00 00		 mov	 edx, DWORD PTR ?fn_get_local_entity_int_value@@3PAY0BBH@P6GHPAUENTITY@@W4INT_TYPES@@@ZA[eax+ecx*4]
  001f9	ff d2		 call	 edx
  001fb	6b c0 50	 imul	 eax, eax, 80
  001fe	8b 88 28 00 00
	00		 mov	 ecx, DWORD PTR ?task_database@@3PAUTASK_DATA@@A[eax+40]
  00204	d1 e9		 shr	 ecx, 1
  00206	83 e1 01	 and	 ecx, 1
  00209	0f 84 08 01 00
	00		 je	 $LN11@message_in

; 296  : 			{
; 297  : 				if (get_local_entity_int_value (target, INT_TYPE_SIDE) == get_local_entity_int_value (get_pilot_entity (), INT_TYPE_SIDE))

  0020f	83 7d 0c 00	 cmp	 DWORD PTR _target$[ebp], 0
  00213	74 0a		 je	 SHORT $LN42@message_in
  00215	8b 45 0c	 mov	 eax, DWORD PTR _target$[ebp]
  00218	8b 08		 mov	 ecx, DWORD PTR [eax]
  0021a	89 4d b8	 mov	 DWORD PTR tv174[ebp], ecx
  0021d	eb 1d		 jmp	 SHORT $LN43@message_in
$LN42@message_in:
  0021f	68 29 01 00 00	 push	 297			; 00000129H
  00224	68 00 00 00 00	 push	 OFFSET ??_C@_0DK@BLKECLAG@c?3?2users?2nhv90?2projects?2eech?2ap@
  00229	8b 15 00 00 00
	00		 mov	 edx, DWORD PTR ?null_entity_pointer_message@@3PBDB ; null_entity_pointer_message
  0022f	52		 push	 edx
  00230	e8 00 00 00 00	 call	 ?process_assert@@YGXPBD0H@Z ; process_assert
  00235	c7 45 b8 00 00
	00 00		 mov	 DWORD PTR tv174[ebp], 0
$LN43@message_in:
  0023c	b8 01 00 00 00	 mov	 eax, 1
  00241	85 c0		 test	 eax, eax
  00243	74 09		 je	 SHORT $LN44@message_in
  00245	c7 45 b4 bb 00
	00 00		 mov	 DWORD PTR tv181[ebp], 187 ; 000000bbH
  0024c	eb 1d		 jmp	 SHORT $LN45@message_in
$LN44@message_in:
  0024e	68 29 01 00 00	 push	 297			; 00000129H
  00253	68 00 00 00 00	 push	 OFFSET ??_C@_0DK@BLKECLAG@c?3?2users?2nhv90?2projects?2eech?2ap@
  00258	8b 0d 00 00 00
	00		 mov	 ecx, DWORD PTR ?overload_invalid_int_type_message@@3PBDB ; overload_invalid_int_type_message
  0025e	51		 push	 ecx
  0025f	e8 00 00 00 00	 call	 ?process_assert@@YGXPBD0H@Z ; process_assert
  00264	c7 45 b4 00 00
	00 00		 mov	 DWORD PTR tv181[ebp], 0
$LN45@message_in:
  0026b	83 3d 00 00 00
	00 00		 cmp	 DWORD PTR ?pilot_entity@@3PAUENTITY@@A, 0 ; pilot_entity
  00272	74 0d		 je	 SHORT $LN46@message_in
  00274	8b 15 00 00 00
	00		 mov	 edx, DWORD PTR ?pilot_entity@@3PAUENTITY@@A ; pilot_entity
  0027a	8b 02		 mov	 eax, DWORD PTR [edx]
  0027c	89 45 b0	 mov	 DWORD PTR tv192[ebp], eax
  0027f	eb 1d		 jmp	 SHORT $LN47@message_in
$LN46@message_in:
  00281	68 29 01 00 00	 push	 297			; 00000129H
  00286	68 00 00 00 00	 push	 OFFSET ??_C@_0DK@BLKECLAG@c?3?2users?2nhv90?2projects?2eech?2ap@
  0028b	8b 0d 00 00 00
	00		 mov	 ecx, DWORD PTR ?null_entity_pointer_message@@3PBDB ; null_entity_pointer_message
  00291	51		 push	 ecx
  00292	e8 00 00 00 00	 call	 ?process_assert@@YGXPBD0H@Z ; process_assert
  00297	c7 45 b0 00 00
	00 00		 mov	 DWORD PTR tv192[ebp], 0
$LN47@message_in:
  0029e	ba 01 00 00 00	 mov	 edx, 1
  002a3	85 d2		 test	 edx, edx
  002a5	74 09		 je	 SHORT $LN48@message_in
  002a7	c7 45 ac bb 00
	00 00		 mov	 DWORD PTR tv199[ebp], 187 ; 000000bbH
  002ae	eb 1c		 jmp	 SHORT $LN49@message_in
$LN48@message_in:
  002b0	68 29 01 00 00	 push	 297			; 00000129H
  002b5	68 00 00 00 00	 push	 OFFSET ??_C@_0DK@BLKECLAG@c?3?2users?2nhv90?2projects?2eech?2ap@
  002ba	a1 00 00 00 00	 mov	 eax, DWORD PTR ?overload_invalid_int_type_message@@3PBDB ; overload_invalid_int_type_message
  002bf	50		 push	 eax
  002c0	e8 00 00 00 00	 call	 ?process_assert@@YGXPBD0H@Z ; process_assert
  002c5	c7 45 ac 00 00
	00 00		 mov	 DWORD PTR tv199[ebp], 0
$LN49@message_in:
  002cc	68 bb 00 00 00	 push	 187			; 000000bbH
  002d1	8b 4d 0c	 mov	 ecx, DWORD PTR _target$[ebp]
  002d4	51		 push	 ecx
  002d5	69 55 b8 5c 04
	00 00		 imul	 edx, DWORD PTR tv174[ebp], 1116
  002dc	8b 45 b4	 mov	 eax, DWORD PTR tv181[ebp]
  002df	8b 8c 82 00 00
	00 00		 mov	 ecx, DWORD PTR ?fn_get_local_entity_int_value@@3PAY0BBH@P6GHPAUENTITY@@W4INT_TYPES@@@ZA[edx+eax*4]
  002e6	ff d1		 call	 ecx
  002e8	8b f0		 mov	 esi, eax
  002ea	68 bb 00 00 00	 push	 187			; 000000bbH
  002ef	8b 15 00 00 00
	00		 mov	 edx, DWORD PTR ?pilot_entity@@3PAUENTITY@@A ; pilot_entity
  002f5	52		 push	 edx
  002f6	69 45 b0 5c 04
	00 00		 imul	 eax, DWORD PTR tv192[ebp], 1116
  002fd	8b 4d ac	 mov	 ecx, DWORD PTR tv199[ebp]
  00300	8b 94 88 00 00
	00 00		 mov	 edx, DWORD PTR ?fn_get_local_entity_int_value@@3PAY0BBH@P6GHPAUENTITY@@W4INT_TYPES@@@ZA[eax+ecx*4]
  00307	ff d2		 call	 edx
  00309	3b f0		 cmp	 esi, eax
  0030b	75 0a		 jne	 SHORT $LN11@message_in

; 298  : 				{
; 299  : 					return TRUE;

  0030d	b8 01 00 00 00	 mov	 eax, 1
  00312	e9 ec 02 00 00	 jmp	 $LN1@message_in
$LN11@message_in:

; 300  : 				}
; 301  : 			}
; 302  : 
; 303  : 			break;

  00317	e9 e5 02 00 00	 jmp	 $LN2@message_in
$LN13@message_in:

; 304  : 		}
; 305  : 
; 306  : 		case MESSAGE_TEXT_PILOT_STRING:
; 307  : 		{
; 308  : 			ASSERT (sender);

  0031c	83 7d 08 00	 cmp	 DWORD PTR _sender$[ebp], 0
  00320	75 18		 jne	 SHORT $LN14@message_in
  00322	a1 00 00 00 00	 mov	 eax, DWORD PTR ?__LINE__Var@?0??message_intended_for_recipient@@YGHPAUENTITY@@0W4MESSAGE_TEXT_TYPES@@@Z@4JA
  00327	83 c0 3f	 add	 eax, 63			; 0000003fH
  0032a	50		 push	 eax
  0032b	68 00 00 00 00	 push	 OFFSET ??_C@_0DK@BLKECLAG@c?3?2users?2nhv90?2projects?2eech?2ap@
  00330	68 00 00 00 00	 push	 OFFSET ??_C@_06CGHJMPBJ@sender@
  00335	e8 00 00 00 00	 call	 ?process_assert@@YGXPBD0H@Z ; process_assert
$LN14@message_in:

; 309  : 
; 310  : 			ASSERT (target);

  0033a	83 7d 0c 00	 cmp	 DWORD PTR _target$[ebp], 0
  0033e	75 18		 jne	 SHORT $LN15@message_in
  00340	a1 00 00 00 00	 mov	 eax, DWORD PTR ?__LINE__Var@?0??message_intended_for_recipient@@YGHPAUENTITY@@0W4MESSAGE_TEXT_TYPES@@@Z@4JA
  00345	83 c0 41	 add	 eax, 65			; 00000041H
  00348	50		 push	 eax
  00349	68 00 00 00 00	 push	 OFFSET ??_C@_0DK@BLKECLAG@c?3?2users?2nhv90?2projects?2eech?2ap@
  0034e	68 00 00 00 00	 push	 OFFSET ??_C@_06JJLAMBGK@target@
  00353	e8 00 00 00 00	 call	 ?process_assert@@YGXPBD0H@Z ; process_assert
$LN15@message_in:

; 311  : 
; 312  : 			if (target == get_pilot_entity ())

  00358	8b 45 0c	 mov	 eax, DWORD PTR _target$[ebp]
  0035b	3b 05 00 00 00
	00		 cmp	 eax, DWORD PTR ?pilot_entity@@3PAUENTITY@@A ; pilot_entity
  00361	75 0a		 jne	 SHORT $LN16@message_in

; 313  : 			{
; 314  : 				//
; 315  : 				// personal message for this pilot
; 316  : 				//
; 317  : 
; 318  : 				return TRUE;

  00363	b8 01 00 00 00	 mov	 eax, 1
  00368	e9 96 02 00 00	 jmp	 $LN1@message_in
$LN16@message_in:

; 319  : 			}
; 320  : 
; 321  : 			if (sender == get_pilot_entity ())

  0036d	8b 45 08	 mov	 eax, DWORD PTR _sender$[ebp]
  00370	3b 05 00 00 00
	00		 cmp	 eax, DWORD PTR ?pilot_entity@@3PAUENTITY@@A ; pilot_entity
  00376	75 0a		 jne	 SHORT $LN17@message_in

; 322  : 			{
; 323  : 				//
; 324  : 				// Echo Message sent by this pilot
; 325  : 				//
; 326  : 
; 327  : 				return TRUE;

  00378	b8 01 00 00 00	 mov	 eax, 1
  0037d	e9 81 02 00 00	 jmp	 $LN1@message_in
$LN17@message_in:

; 328  : 			}
; 329  : 
; 330  : 			if (target == get_session_entity ())

  00382	8b 45 0c	 mov	 eax, DWORD PTR _target$[ebp]
  00385	3b 05 00 00 00
	00		 cmp	 eax, DWORD PTR ?session_entity@@3PAUENTITY@@A ; session_entity
  0038b	75 0a		 jne	 SHORT $LN18@message_in

; 331  : 			{
; 332  : 				//
; 333  : 				// message broadcast to all pilots
; 334  : 				//
; 335  : 
; 336  : 				return TRUE;

  0038d	b8 01 00 00 00	 mov	 eax, 1
  00392	e9 6c 02 00 00	 jmp	 $LN1@message_in
$LN18@message_in:

; 337  : 			}
; 338  : 
; 339  : 			ASSERT (target);

  00397	83 7d 0c 00	 cmp	 DWORD PTR _target$[ebp], 0
  0039b	75 18		 jne	 SHORT $LN19@message_in
  0039d	a1 00 00 00 00	 mov	 eax, DWORD PTR ?__LINE__Var@?0??message_intended_for_recipient@@YGHPAUENTITY@@0W4MESSAGE_TEXT_TYPES@@@Z@4JA
  003a2	83 c0 5e	 add	 eax, 94			; 0000005eH
  003a5	50		 push	 eax
  003a6	68 00 00 00 00	 push	 OFFSET ??_C@_0DK@BLKECLAG@c?3?2users?2nhv90?2projects?2eech?2ap@
  003ab	68 00 00 00 00	 push	 OFFSET ??_C@_06JJLAMBGK@target@
  003b0	e8 00 00 00 00	 call	 ?process_assert@@YGXPBD0H@Z ; process_assert
$LN19@message_in:

; 340  : 
; 341  : 			if ((get_local_entity_type (target) == ENTITY_TYPE_FORCE) && (get_pilot_entity () != sender))

  003b5	83 7d 0c 00	 cmp	 DWORD PTR _target$[ebp], 0
  003b9	74 0a		 je	 SHORT $LN50@message_in
  003bb	8b 45 0c	 mov	 eax, DWORD PTR _target$[ebp]
  003be	8b 08		 mov	 ecx, DWORD PTR [eax]
  003c0	89 4d b8	 mov	 DWORD PTR tv229[ebp], ecx
  003c3	eb 1d		 jmp	 SHORT $LN51@message_in
$LN50@message_in:
  003c5	68 55 01 00 00	 push	 341			; 00000155H
  003ca	68 00 00 00 00	 push	 OFFSET ??_C@_0DK@BLKECLAG@c?3?2users?2nhv90?2projects?2eech?2ap@
  003cf	8b 15 00 00 00
	00		 mov	 edx, DWORD PTR ?null_entity_pointer_message@@3PBDB ; null_entity_pointer_message
  003d5	52		 push	 edx
  003d6	e8 00 00 00 00	 call	 ?process_assert@@YGXPBD0H@Z ; process_assert
  003db	c7 45 b8 00 00
	00 00		 mov	 DWORD PTR tv229[ebp], 0
$LN51@message_in:
  003e2	83 7d b8 0b	 cmp	 DWORD PTR tv229[ebp], 11 ; 0000000bH
  003e6	0f 85 16 01 00
	00		 jne	 $LN20@message_in
  003ec	a1 00 00 00 00	 mov	 eax, DWORD PTR ?pilot_entity@@3PAUENTITY@@A ; pilot_entity
  003f1	3b 45 08	 cmp	 eax, DWORD PTR _sender$[ebp]
  003f4	0f 84 08 01 00
	00		 je	 $LN20@message_in

; 342  : 			{
; 343  : 				//
; 344  : 				// message broadcast to all pilots on this side (but don't display it if you sent it!!)
; 345  : 				//
; 346  : 
; 347  : 				if (get_local_entity_int_value (target, INT_TYPE_SIDE) == get_local_entity_int_value (get_pilot_entity (), INT_TYPE_SIDE))

  003fa	83 7d 0c 00	 cmp	 DWORD PTR _target$[ebp], 0
  003fe	74 0a		 je	 SHORT $LN52@message_in
  00400	8b 45 0c	 mov	 eax, DWORD PTR _target$[ebp]
  00403	8b 08		 mov	 ecx, DWORD PTR [eax]
  00405	89 4d b8	 mov	 DWORD PTR tv237[ebp], ecx
  00408	eb 1d		 jmp	 SHORT $LN53@message_in
$LN52@message_in:
  0040a	68 5b 01 00 00	 push	 347			; 0000015bH
  0040f	68 00 00 00 00	 push	 OFFSET ??_C@_0DK@BLKECLAG@c?3?2users?2nhv90?2projects?2eech?2ap@
  00414	8b 15 00 00 00
	00		 mov	 edx, DWORD PTR ?null_entity_pointer_message@@3PBDB ; null_entity_pointer_message
  0041a	52		 push	 edx
  0041b	e8 00 00 00 00	 call	 ?process_assert@@YGXPBD0H@Z ; process_assert
  00420	c7 45 b8 00 00
	00 00		 mov	 DWORD PTR tv237[ebp], 0
$LN53@message_in:
  00427	b8 01 00 00 00	 mov	 eax, 1
  0042c	85 c0		 test	 eax, eax
  0042e	74 09		 je	 SHORT $LN54@message_in
  00430	c7 45 b4 bb 00
	00 00		 mov	 DWORD PTR tv244[ebp], 187 ; 000000bbH
  00437	eb 1d		 jmp	 SHORT $LN55@message_in
$LN54@message_in:
  00439	68 5b 01 00 00	 push	 347			; 0000015bH
  0043e	68 00 00 00 00	 push	 OFFSET ??_C@_0DK@BLKECLAG@c?3?2users?2nhv90?2projects?2eech?2ap@
  00443	8b 0d 00 00 00
	00		 mov	 ecx, DWORD PTR ?overload_invalid_int_type_message@@3PBDB ; overload_invalid_int_type_message
  00449	51		 push	 ecx
  0044a	e8 00 00 00 00	 call	 ?process_assert@@YGXPBD0H@Z ; process_assert
  0044f	c7 45 b4 00 00
	00 00		 mov	 DWORD PTR tv244[ebp], 0
$LN55@message_in:
  00456	83 3d 00 00 00
	00 00		 cmp	 DWORD PTR ?pilot_entity@@3PAUENTITY@@A, 0 ; pilot_entity
  0045d	74 0d		 je	 SHORT $LN56@message_in
  0045f	8b 15 00 00 00
	00		 mov	 edx, DWORD PTR ?pilot_entity@@3PAUENTITY@@A ; pilot_entity
  00465	8b 02		 mov	 eax, DWORD PTR [edx]
  00467	89 45 b0	 mov	 DWORD PTR tv255[ebp], eax
  0046a	eb 1d		 jmp	 SHORT $LN57@message_in
$LN56@message_in:
  0046c	68 5b 01 00 00	 push	 347			; 0000015bH
  00471	68 00 00 00 00	 push	 OFFSET ??_C@_0DK@BLKECLAG@c?3?2users?2nhv90?2projects?2eech?2ap@
  00476	8b 0d 00 00 00
	00		 mov	 ecx, DWORD PTR ?null_entity_pointer_message@@3PBDB ; null_entity_pointer_message
  0047c	51		 push	 ecx
  0047d	e8 00 00 00 00	 call	 ?process_assert@@YGXPBD0H@Z ; process_assert
  00482	c7 45 b0 00 00
	00 00		 mov	 DWORD PTR tv255[ebp], 0
$LN57@message_in:
  00489	ba 01 00 00 00	 mov	 edx, 1
  0048e	85 d2		 test	 edx, edx
  00490	74 09		 je	 SHORT $LN58@message_in
  00492	c7 45 ac bb 00
	00 00		 mov	 DWORD PTR tv262[ebp], 187 ; 000000bbH
  00499	eb 1c		 jmp	 SHORT $LN59@message_in
$LN58@message_in:
  0049b	68 5b 01 00 00	 push	 347			; 0000015bH
  004a0	68 00 00 00 00	 push	 OFFSET ??_C@_0DK@BLKECLAG@c?3?2users?2nhv90?2projects?2eech?2ap@
  004a5	a1 00 00 00 00	 mov	 eax, DWORD PTR ?overload_invalid_int_type_message@@3PBDB ; overload_invalid_int_type_message
  004aa	50		 push	 eax
  004ab	e8 00 00 00 00	 call	 ?process_assert@@YGXPBD0H@Z ; process_assert
  004b0	c7 45 ac 00 00
	00 00		 mov	 DWORD PTR tv262[ebp], 0
$LN59@message_in:
  004b7	68 bb 00 00 00	 push	 187			; 000000bbH
  004bc	8b 4d 0c	 mov	 ecx, DWORD PTR _target$[ebp]
  004bf	51		 push	 ecx
  004c0	69 55 b8 5c 04
	00 00		 imul	 edx, DWORD PTR tv237[ebp], 1116
  004c7	8b 45 b4	 mov	 eax, DWORD PTR tv244[ebp]
  004ca	8b 8c 82 00 00
	00 00		 mov	 ecx, DWORD PTR ?fn_get_local_entity_int_value@@3PAY0BBH@P6GHPAUENTITY@@W4INT_TYPES@@@ZA[edx+eax*4]
  004d1	ff d1		 call	 ecx
  004d3	8b f0		 mov	 esi, eax
  004d5	68 bb 00 00 00	 push	 187			; 000000bbH
  004da	8b 15 00 00 00
	00		 mov	 edx, DWORD PTR ?pilot_entity@@3PAUENTITY@@A ; pilot_entity
  004e0	52		 push	 edx
  004e1	69 45 b0 5c 04
	00 00		 imul	 eax, DWORD PTR tv255[ebp], 1116
  004e8	8b 4d ac	 mov	 ecx, DWORD PTR tv262[ebp]
  004eb	8b 94 88 00 00
	00 00		 mov	 edx, DWORD PTR ?fn_get_local_entity_int_value@@3PAY0BBH@P6GHPAUENTITY@@W4INT_TYPES@@@ZA[eax+ecx*4]
  004f2	ff d2		 call	 edx
  004f4	3b f0		 cmp	 esi, eax
  004f6	75 0a		 jne	 SHORT $LN20@message_in

; 348  : 				{
; 349  : 					return TRUE;

  004f8	b8 01 00 00 00	 mov	 eax, 1
  004fd	e9 01 01 00 00	 jmp	 $LN1@message_in
$LN20@message_in:

; 350  : 				}
; 351  : 			}
; 352  : 
; 353  : 			break;

  00502	e9 fa 00 00 00	 jmp	 $LN2@message_in
$LN22@message_in:

; 354  : 		}
; 355  : 
; 356  : 		case MESSAGE_TEXT_WINGMAN_STRING:
; 357  : 		case MESSAGE_TEXT_SHORT_WINGMAN_STRING:
; 358  : 		{
; 359  : 			entity
; 360  : 				*parent;
; 361  : 
; 362  : 			ASSERT (sender);

  00507	83 7d 08 00	 cmp	 DWORD PTR _sender$[ebp], 0
  0050b	75 18		 jne	 SHORT $LN23@message_in
  0050d	a1 00 00 00 00	 mov	 eax, DWORD PTR ?__LINE__Var@?0??message_intended_for_recipient@@YGHPAUENTITY@@0W4MESSAGE_TEXT_TYPES@@@Z@4JA
  00512	83 c0 75	 add	 eax, 117		; 00000075H
  00515	50		 push	 eax
  00516	68 00 00 00 00	 push	 OFFSET ??_C@_0DK@BLKECLAG@c?3?2users?2nhv90?2projects?2eech?2ap@
  0051b	68 00 00 00 00	 push	 OFFSET ??_C@_06CGHJMPBJ@sender@
  00520	e8 00 00 00 00	 call	 ?process_assert@@YGXPBD0H@Z ; process_assert
$LN23@message_in:

; 363  : 			ASSERT (target);

  00525	83 7d 0c 00	 cmp	 DWORD PTR _target$[ebp], 0
  00529	75 18		 jne	 SHORT $LN24@message_in
  0052b	a1 00 00 00 00	 mov	 eax, DWORD PTR ?__LINE__Var@?0??message_intended_for_recipient@@YGHPAUENTITY@@0W4MESSAGE_TEXT_TYPES@@@Z@4JA
  00530	83 c0 76	 add	 eax, 118		; 00000076H
  00533	50		 push	 eax
  00534	68 00 00 00 00	 push	 OFFSET ??_C@_0DK@BLKECLAG@c?3?2users?2nhv90?2projects?2eech?2ap@
  00539	68 00 00 00 00	 push	 OFFSET ??_C@_06JJLAMBGK@target@
  0053e	e8 00 00 00 00	 call	 ?process_assert@@YGXPBD0H@Z ; process_assert
$LN24@message_in:

; 364  : 
; 365  : 			parent = get_local_entity_parent (get_pilot_entity (), LIST_TYPE_AIRCREW);

  00543	83 3d 00 00 00
	00 00		 cmp	 DWORD PTR ?pilot_entity@@3PAUENTITY@@A, 0 ; pilot_entity
  0054a	74 0c		 je	 SHORT $LN60@message_in
  0054c	a1 00 00 00 00	 mov	 eax, DWORD PTR ?pilot_entity@@3PAUENTITY@@A ; pilot_entity
  00551	8b 08		 mov	 ecx, DWORD PTR [eax]
  00553	89 4d b8	 mov	 DWORD PTR tv285[ebp], ecx
  00556	eb 21		 jmp	 SHORT $LN61@message_in
$LN60@message_in:
  00558	8b 15 00 00 00
	00		 mov	 edx, DWORD PTR ?__LINE__Var@?0??message_intended_for_recipient@@YGHPAUENTITY@@0W4MESSAGE_TEXT_TYPES@@@Z@4JA
  0055e	83 c2 78	 add	 edx, 120		; 00000078H
  00561	52		 push	 edx
  00562	68 00 00 00 00	 push	 OFFSET ??_C@_0DK@BLKECLAG@c?3?2users?2nhv90?2projects?2eech?2ap@
  00567	a1 00 00 00 00	 mov	 eax, DWORD PTR ?null_entity_pointer_message@@3PBDB ; null_entity_pointer_message
  0056c	50		 push	 eax
  0056d	e8 00 00 00 00	 call	 ?process_assert@@YGXPBD0H@Z ; process_assert
  00572	c7 45 b8 00 00
	00 00		 mov	 DWORD PTR tv285[ebp], 0
$LN61@message_in:
  00579	b9 01 00 00 00	 mov	 ecx, 1
  0057e	85 c9		 test	 ecx, ecx
  00580	74 09		 je	 SHORT $LN62@message_in
  00582	c7 45 b4 01 00
	00 00		 mov	 DWORD PTR tv293[ebp], 1
  00589	eb 21		 jmp	 SHORT $LN63@message_in
$LN62@message_in:
  0058b	8b 15 00 00 00
	00		 mov	 edx, DWORD PTR ?__LINE__Var@?0??message_intended_for_recipient@@YGHPAUENTITY@@0W4MESSAGE_TEXT_TYPES@@@Z@4JA
  00591	83 c2 78	 add	 edx, 120		; 00000078H
  00594	52		 push	 edx
  00595	68 00 00 00 00	 push	 OFFSET ??_C@_0DK@BLKECLAG@c?3?2users?2nhv90?2projects?2eech?2ap@
  0059a	a1 00 00 00 00	 mov	 eax, DWORD PTR ?overload_invalid_list_type_message@@3PBDB ; overload_invalid_list_type_message
  0059f	50		 push	 eax
  005a0	e8 00 00 00 00	 call	 ?process_assert@@YGXPBD0H@Z ; process_assert
  005a5	c7 45 b4 00 00
	00 00		 mov	 DWORD PTR tv293[ebp], 0
$LN63@message_in:
  005ac	6a 01		 push	 1
  005ae	8b 0d 00 00 00
	00		 mov	 ecx, DWORD PTR ?pilot_entity@@3PAUENTITY@@A ; pilot_entity
  005b4	51		 push	 ecx
  005b5	69 55 b8 b4 00
	00 00		 imul	 edx, DWORD PTR tv285[ebp], 180
  005bc	8b 45 b4	 mov	 eax, DWORD PTR tv293[ebp]
  005bf	8b 8c 82 00 00
	00 00		 mov	 ecx, DWORD PTR ?fn_get_local_entity_parent@@3PAY0CN@P6GPAUENTITY@@PAU1@W4LIST_TYPES@@@ZA[edx+eax*4]
  005c6	ff d1		 call	 ecx
  005c8	89 45 fc	 mov	 DWORD PTR _parent$1[ebp], eax

; 366  : 
; 367  : 			if (target == parent)

  005cb	8b 45 0c	 mov	 eax, DWORD PTR _target$[ebp]
  005ce	3b 45 fc	 cmp	 eax, DWORD PTR _parent$1[ebp]
  005d1	75 07		 jne	 SHORT $LN25@message_in

; 368  : 			{
; 369  : 				//
; 370  : 				// personal message for this pilot
; 371  : 				//
; 372  : 
; 373  : 				return TRUE;

  005d3	b8 01 00 00 00	 mov	 eax, 1
  005d8	eb 29		 jmp	 SHORT $LN1@message_in
$LN25@message_in:

; 374  : 			}
; 375  : 
; 376  : 			break;

  005da	eb 25		 jmp	 SHORT $LN2@message_in
$LN26@message_in:

; 377  : 		}
; 378  : 
; 379  : 		case MESSAGE_WINGMAN_STATUS_REPORT:
; 380  : 		{
; 381  : 			if (target == get_pilot_entity())

  005dc	8b 45 0c	 mov	 eax, DWORD PTR _target$[ebp]
  005df	3b 05 00 00 00
	00		 cmp	 eax, DWORD PTR ?pilot_entity@@3PAUENTITY@@A ; pilot_entity
  005e5	75 07		 jne	 SHORT $LN27@message_in

; 382  : 				return TRUE;

  005e7	b8 01 00 00 00	 mov	 eax, 1
  005ec	eb 15		 jmp	 SHORT $LN1@message_in
$LN27@message_in:

; 383  : 
; 384  : 			break;

  005ee	eb 11		 jmp	 SHORT $LN2@message_in
$LN28@message_in:

; 385  : 		}
; 386  : 
; 387  : 		default:
; 388  : 		{
; 389  : 			debug_fatal ("MESSAGE: Unknown message type %d", type);

  005f0	8b 45 10	 mov	 eax, DWORD PTR _type$[ebp]
  005f3	50		 push	 eax
  005f4	68 00 00 00 00	 push	 OFFSET ??_C@_0CB@FJHDHJFF@MESSAGE?3?5Unknown?5message?5type?5?$CF@
  005f9	e8 00 00 00 00	 call	 ?debug_fatal@@YAXPBDZZ	; debug_fatal
  005fe	83 c4 08	 add	 esp, 8
$LN2@message_in:

; 390  : 		}
; 391  : 	}
; 392  : 
; 393  : 	return FALSE;

  00601	33 c0		 xor	 eax, eax
$LN1@message_in:

; 394  : }

  00603	5f		 pop	 edi
  00604	5e		 pop	 esi
  00605	5b		 pop	 ebx
  00606	8b e5		 mov	 esp, ebp
  00608	5d		 pop	 ebp
  00609	c2 0c 00	 ret	 12			; 0000000cH
$LN64@message_in:
  0060c	00 00 00 00	 DD	 $LN5@message_in
  00610	00 00 00 00	 DD	 $LN5@message_in
  00614	00 00 00 00	 DD	 $LN6@message_in
  00618	00 00 00 00	 DD	 $LN6@message_in
  0061c	00 00 00 00	 DD	 $LN9@message_in
  00620	00 00 00 00	 DD	 $LN5@message_in
  00624	00 00 00 00	 DD	 $LN5@message_in
  00628	00 00 00 00	 DD	 $LN26@message_in
  0062c	00 00 00 00	 DD	 $LN13@message_in
  00630	00 00 00 00	 DD	 $LN22@message_in
  00634	00 00 00 00	 DD	 $LN22@message_in
  00638	00 00 00 00	 DD	 $LN5@message_in
?message_intended_for_recipient@@YGHPAUENTITY@@0W4MESSAGE_TEXT_TYPES@@@Z ENDP ; message_intended_for_recipient
_TEXT	ENDS
; Function compile flags: /Odtp /ZI
; File c:\users\nhv90\projects\eech\aphavoc\source\misc\msg_in.c
;	COMDAT ?process_message_attack_pfz@@YGXPAUENTITY@@0@Z
_TEXT	SEGMENT
tv200 = -76						; size = 4
tv181 = -76						; size = 4
tv162 = -76						; size = 4
tv137 = -76						; size = 4
tv193 = -72						; size = 4
tv174 = -72						; size = 4
tv154 = -72						; size = 4
tv129 = -72						; size = 4
tv85 = -72						; size = 4
_group$ = -4						; size = 4
_en$ = 8						; size = 4
_wingman$ = 12						; size = 4
?process_message_attack_pfz@@YGXPAUENTITY@@0@Z PROC	; process_message_attack_pfz, COMDAT

; 1476 : {

  00000	55		 push	 ebp
  00001	8b ec		 mov	 ebp, esp
  00003	83 ec 4c	 sub	 esp, 76			; 0000004cH
  00006	53		 push	 ebx
  00007	56		 push	 esi
  00008	57		 push	 edi

; 1477 : 	entity
; 1478 : 		*group;
; 1479 : 
; 1480 : 	ASSERT (en);

  00009	83 7d 08 00	 cmp	 DWORD PTR _en$[ebp], 0
  0000d	75 18		 jne	 SHORT $LN2@process_me
  0000f	a1 00 00 00 00	 mov	 eax, DWORD PTR ?__LINE__Var@?0??process_message_attack_pfz@@YGXPAUENTITY@@0@Z@4JA
  00014	83 c0 04	 add	 eax, 4
  00017	50		 push	 eax
  00018	68 00 00 00 00	 push	 OFFSET ??_C@_0DK@BLKECLAG@c?3?2users?2nhv90?2projects?2eech?2ap@
  0001d	68 00 00 00 00	 push	 OFFSET ??_C@_02LFNMGJAP@en@
  00022	e8 00 00 00 00	 call	 ?process_assert@@YGXPBD0H@Z ; process_assert
$LN2@process_me:

; 1481 : 	ASSERT (wingman);

  00027	83 7d 0c 00	 cmp	 DWORD PTR _wingman$[ebp], 0
  0002b	75 18		 jne	 SHORT $LN3@process_me
  0002d	a1 00 00 00 00	 mov	 eax, DWORD PTR ?__LINE__Var@?0??process_message_attack_pfz@@YGXPAUENTITY@@0@Z@4JA
  00032	83 c0 05	 add	 eax, 5
  00035	50		 push	 eax
  00036	68 00 00 00 00	 push	 OFFSET ??_C@_0DK@BLKECLAG@c?3?2users?2nhv90?2projects?2eech?2ap@
  0003b	68 00 00 00 00	 push	 OFFSET ??_C@_07EAKNLMLO@wingman@
  00040	e8 00 00 00 00	 call	 ?process_assert@@YGXPBD0H@Z ; process_assert
$LN3@process_me:

; 1482 : 	ASSERT (get_comms_model () == COMMS_MODEL_SERVER);

  00045	83 3d 00 00 00
	00 00		 cmp	 DWORD PTR ?system_comms_model@@3W4COMMS_MODEL_TYPES@@A, 0 ; system_comms_model
  0004c	74 18		 je	 SHORT $LN4@process_me
  0004e	a1 00 00 00 00	 mov	 eax, DWORD PTR ?__LINE__Var@?0??process_message_attack_pfz@@YGXPAUENTITY@@0@Z@4JA
  00053	83 c0 06	 add	 eax, 6
  00056	50		 push	 eax
  00057	68 00 00 00 00	 push	 OFFSET ??_C@_0DK@BLKECLAG@c?3?2users?2nhv90?2projects?2eech?2ap@
  0005c	68 00 00 00 00	 push	 OFFSET ??_C@_0CJ@DMBLBJBK@get_comms_model?5?$CI?$CJ?5?$DN?$DN?5COMMS_MOD@
  00061	e8 00 00 00 00	 call	 ?process_assert@@YGXPBD0H@Z ; process_assert
$LN4@process_me:

; 1483 : 	ASSERT (get_local_entity_type(wingman) == ENTITY_TYPE_HELICOPTER);

  00066	83 7d 0c 00	 cmp	 DWORD PTR _wingman$[ebp], 0
  0006a	74 0a		 je	 SHORT $LN11@process_me
  0006c	8b 45 0c	 mov	 eax, DWORD PTR _wingman$[ebp]
  0006f	8b 08		 mov	 ecx, DWORD PTR [eax]
  00071	89 4d b8	 mov	 DWORD PTR tv85[ebp], ecx
  00074	eb 21		 jmp	 SHORT $LN12@process_me
$LN11@process_me:
  00076	8b 15 00 00 00
	00		 mov	 edx, DWORD PTR ?__LINE__Var@?0??process_message_attack_pfz@@YGXPAUENTITY@@0@Z@4JA
  0007c	83 c2 07	 add	 edx, 7
  0007f	52		 push	 edx
  00080	68 00 00 00 00	 push	 OFFSET ??_C@_0DK@BLKECLAG@c?3?2users?2nhv90?2projects?2eech?2ap@
  00085	a1 00 00 00 00	 mov	 eax, DWORD PTR ?null_entity_pointer_message@@3PBDB ; null_entity_pointer_message
  0008a	50		 push	 eax
  0008b	e8 00 00 00 00	 call	 ?process_assert@@YGXPBD0H@Z ; process_assert
  00090	c7 45 b8 00 00
	00 00		 mov	 DWORD PTR tv85[ebp], 0
$LN12@process_me:
  00097	83 7d b8 0e	 cmp	 DWORD PTR tv85[ebp], 14	; 0000000eH
  0009b	74 18		 je	 SHORT $LN5@process_me
  0009d	a1 00 00 00 00	 mov	 eax, DWORD PTR ?__LINE__Var@?0??process_message_attack_pfz@@YGXPAUENTITY@@0@Z@4JA
  000a2	83 c0 07	 add	 eax, 7
  000a5	50		 push	 eax
  000a6	68 00 00 00 00	 push	 OFFSET ??_C@_0DK@BLKECLAG@c?3?2users?2nhv90?2projects?2eech?2ap@
  000ab	68 00 00 00 00	 push	 OFFSET ??_C@_0DJ@PMAIBDHK@get_local_entity_type?$CIwingman?$CJ?5@
  000b0	e8 00 00 00 00	 call	 ?process_assert@@YGXPBD0H@Z ; process_assert
$LN5@process_me:

; 1484 : 	ASSERT (get_local_entity_int_value(wingman, INT_TYPE_ENTITY_SUB_TYPE) == ENTITY_SUB_TYPE_AIRCRAFT_AH64D_APACHE_LONGBOW);

  000b5	83 7d 0c 00	 cmp	 DWORD PTR _wingman$[ebp], 0
  000b9	74 0a		 je	 SHORT $LN13@process_me
  000bb	8b 45 0c	 mov	 eax, DWORD PTR _wingman$[ebp]
  000be	8b 08		 mov	 ecx, DWORD PTR [eax]
  000c0	89 4d b8	 mov	 DWORD PTR tv129[ebp], ecx
  000c3	eb 21		 jmp	 SHORT $LN14@process_me
$LN13@process_me:
  000c5	8b 15 00 00 00
	00		 mov	 edx, DWORD PTR ?__LINE__Var@?0??process_message_attack_pfz@@YGXPAUENTITY@@0@Z@4JA
  000cb	83 c2 08	 add	 edx, 8
  000ce	52		 push	 edx
  000cf	68 00 00 00 00	 push	 OFFSET ??_C@_0DK@BLKECLAG@c?3?2users?2nhv90?2projects?2eech?2ap@
  000d4	a1 00 00 00 00	 mov	 eax, DWORD PTR ?null_entity_pointer_message@@3PBDB ; null_entity_pointer_message
  000d9	50		 push	 eax
  000da	e8 00 00 00 00	 call	 ?process_assert@@YGXPBD0H@Z ; process_assert
  000df	c7 45 b8 00 00
	00 00		 mov	 DWORD PTR tv129[ebp], 0
$LN14@process_me:
  000e6	b9 01 00 00 00	 mov	 ecx, 1
  000eb	85 c9		 test	 ecx, ecx
  000ed	74 09		 je	 SHORT $LN15@process_me
  000ef	c7 45 b4 34 00
	00 00		 mov	 DWORD PTR tv137[ebp], 52 ; 00000034H
  000f6	eb 21		 jmp	 SHORT $LN16@process_me
$LN15@process_me:
  000f8	8b 15 00 00 00
	00		 mov	 edx, DWORD PTR ?__LINE__Var@?0??process_message_attack_pfz@@YGXPAUENTITY@@0@Z@4JA
  000fe	83 c2 08	 add	 edx, 8
  00101	52		 push	 edx
  00102	68 00 00 00 00	 push	 OFFSET ??_C@_0DK@BLKECLAG@c?3?2users?2nhv90?2projects?2eech?2ap@
  00107	a1 00 00 00 00	 mov	 eax, DWORD PTR ?overload_invalid_int_type_message@@3PBDB ; overload_invalid_int_type_message
  0010c	50		 push	 eax
  0010d	e8 00 00 00 00	 call	 ?process_assert@@YGXPBD0H@Z ; process_assert
  00112	c7 45 b4 00 00
	00 00		 mov	 DWORD PTR tv137[ebp], 0
$LN16@process_me:
  00119	6a 34		 push	 52			; 00000034H
  0011b	8b 4d 0c	 mov	 ecx, DWORD PTR _wingman$[ebp]
  0011e	51		 push	 ecx
  0011f	69 55 b8 5c 04
	00 00		 imul	 edx, DWORD PTR tv129[ebp], 1116
  00126	8b 45 b4	 mov	 eax, DWORD PTR tv137[ebp]
  00129	8b 8c 82 00 00
	00 00		 mov	 ecx, DWORD PTR ?fn_get_local_entity_int_value@@3PAY0BBH@P6GHPAUENTITY@@W4INT_TYPES@@@ZA[edx+eax*4]
  00130	ff d1		 call	 ecx
  00132	85 c0		 test	 eax, eax
  00134	74 18		 je	 SHORT $LN6@process_me
  00136	a1 00 00 00 00	 mov	 eax, DWORD PTR ?__LINE__Var@?0??process_message_attack_pfz@@YGXPAUENTITY@@0@Z@4JA
  0013b	83 c0 08	 add	 eax, 8
  0013e	50		 push	 eax
  0013f	68 00 00 00 00	 push	 OFFSET ??_C@_0DK@BLKECLAG@c?3?2users?2nhv90?2projects?2eech?2ap@
  00144	68 00 00 00 00	 push	 OFFSET ??_C@_0GP@FGLKAFGN@get_local_entity_int_value?$CIwing@
  00149	e8 00 00 00 00	 call	 ?process_assert@@YGXPBD0H@Z ; process_assert
$LN6@process_me:

; 1485 : 
; 1486 : 	group = get_local_entity_parent (en, LIST_TYPE_MEMBER);

  0014e	83 7d 08 00	 cmp	 DWORD PTR _en$[ebp], 0
  00152	74 0a		 je	 SHORT $LN17@process_me
  00154	8b 45 08	 mov	 eax, DWORD PTR _en$[ebp]
  00157	8b 08		 mov	 ecx, DWORD PTR [eax]
  00159	89 4d b8	 mov	 DWORD PTR tv154[ebp], ecx
  0015c	eb 21		 jmp	 SHORT $LN18@process_me
$LN17@process_me:
  0015e	8b 15 00 00 00
	00		 mov	 edx, DWORD PTR ?__LINE__Var@?0??process_message_attack_pfz@@YGXPAUENTITY@@0@Z@4JA
  00164	83 c2 0a	 add	 edx, 10			; 0000000aH
  00167	52		 push	 edx
  00168	68 00 00 00 00	 push	 OFFSET ??_C@_0DK@BLKECLAG@c?3?2users?2nhv90?2projects?2eech?2ap@
  0016d	a1 00 00 00 00	 mov	 eax, DWORD PTR ?null_entity_pointer_message@@3PBDB ; null_entity_pointer_message
  00172	50		 push	 eax
  00173	e8 00 00 00 00	 call	 ?process_assert@@YGXPBD0H@Z ; process_assert
  00178	c7 45 b8 00 00
	00 00		 mov	 DWORD PTR tv154[ebp], 0
$LN18@process_me:
  0017f	b9 01 00 00 00	 mov	 ecx, 1
  00184	85 c9		 test	 ecx, ecx
  00186	74 09		 je	 SHORT $LN19@process_me
  00188	c7 45 b4 19 00
	00 00		 mov	 DWORD PTR tv162[ebp], 25 ; 00000019H
  0018f	eb 21		 jmp	 SHORT $LN20@process_me
$LN19@process_me:
  00191	8b 15 00 00 00
	00		 mov	 edx, DWORD PTR ?__LINE__Var@?0??process_message_attack_pfz@@YGXPAUENTITY@@0@Z@4JA
  00197	83 c2 0a	 add	 edx, 10			; 0000000aH
  0019a	52		 push	 edx
  0019b	68 00 00 00 00	 push	 OFFSET ??_C@_0DK@BLKECLAG@c?3?2users?2nhv90?2projects?2eech?2ap@
  001a0	a1 00 00 00 00	 mov	 eax, DWORD PTR ?overload_invalid_list_type_message@@3PBDB ; overload_invalid_list_type_message
  001a5	50		 push	 eax
  001a6	e8 00 00 00 00	 call	 ?process_assert@@YGXPBD0H@Z ; process_assert
  001ab	c7 45 b4 00 00
	00 00		 mov	 DWORD PTR tv162[ebp], 0
$LN20@process_me:
  001b2	6a 19		 push	 25			; 00000019H
  001b4	8b 4d 08	 mov	 ecx, DWORD PTR _en$[ebp]
  001b7	51		 push	 ecx
  001b8	69 55 b8 b4 00
	00 00		 imul	 edx, DWORD PTR tv154[ebp], 180
  001bf	8b 45 b4	 mov	 eax, DWORD PTR tv162[ebp]
  001c2	8b 8c 82 00 00
	00 00		 mov	 ecx, DWORD PTR ?fn_get_local_entity_parent@@3PAY0CN@P6GPAUENTITY@@PAU1@W4LIST_TYPES@@@ZA[edx+eax*4]
  001c9	ff d1		 call	 ecx
  001cb	89 45 fc	 mov	 DWORD PTR _group$[ebp], eax

; 1487 : 	if (group && get_local_entity_int_value (group, INT_TYPE_ENGAGE_ENEMY))

  001ce	83 7d fc 00	 cmp	 DWORD PTR _group$[ebp], 0
  001d2	0f 84 4b 01 00
	00		 je	 $LN7@process_me
  001d8	83 7d fc 00	 cmp	 DWORD PTR _group$[ebp], 0
  001dc	74 0a		 je	 SHORT $LN21@process_me
  001de	8b 45 fc	 mov	 eax, DWORD PTR _group$[ebp]
  001e1	8b 08		 mov	 ecx, DWORD PTR [eax]
  001e3	89 4d b8	 mov	 DWORD PTR tv174[ebp], ecx
  001e6	eb 1d		 jmp	 SHORT $LN22@process_me
$LN21@process_me:
  001e8	68 cf 05 00 00	 push	 1487			; 000005cfH
  001ed	68 00 00 00 00	 push	 OFFSET ??_C@_0DK@BLKECLAG@c?3?2users?2nhv90?2projects?2eech?2ap@
  001f2	8b 15 00 00 00
	00		 mov	 edx, DWORD PTR ?null_entity_pointer_message@@3PBDB ; null_entity_pointer_message
  001f8	52		 push	 edx
  001f9	e8 00 00 00 00	 call	 ?process_assert@@YGXPBD0H@Z ; process_assert
  001fe	c7 45 b8 00 00
	00 00		 mov	 DWORD PTR tv174[ebp], 0
$LN22@process_me:
  00205	b8 01 00 00 00	 mov	 eax, 1
  0020a	85 c0		 test	 eax, eax
  0020c	74 09		 je	 SHORT $LN23@process_me
  0020e	c7 45 b4 33 00
	00 00		 mov	 DWORD PTR tv181[ebp], 51 ; 00000033H
  00215	eb 1d		 jmp	 SHORT $LN24@process_me
$LN23@process_me:
  00217	68 cf 05 00 00	 push	 1487			; 000005cfH
  0021c	68 00 00 00 00	 push	 OFFSET ??_C@_0DK@BLKECLAG@c?3?2users?2nhv90?2projects?2eech?2ap@
  00221	8b 0d 00 00 00
	00		 mov	 ecx, DWORD PTR ?overload_invalid_int_type_message@@3PBDB ; overload_invalid_int_type_message
  00227	51		 push	 ecx
  00228	e8 00 00 00 00	 call	 ?process_assert@@YGXPBD0H@Z ; process_assert
  0022d	c7 45 b4 00 00
	00 00		 mov	 DWORD PTR tv181[ebp], 0
$LN24@process_me:
  00234	6a 33		 push	 51			; 00000033H
  00236	8b 55 fc	 mov	 edx, DWORD PTR _group$[ebp]
  00239	52		 push	 edx
  0023a	69 45 b8 5c 04
	00 00		 imul	 eax, DWORD PTR tv174[ebp], 1116
  00241	8b 4d b4	 mov	 ecx, DWORD PTR tv181[ebp]
  00244	8b 94 88 00 00
	00 00		 mov	 edx, DWORD PTR ?fn_get_local_entity_int_value@@3PAY0BBH@P6GHPAUENTITY@@W4INT_TYPES@@@ZA[eax+ecx*4]
  0024b	ff d2		 call	 edx
  0024d	85 c0		 test	 eax, eax
  0024f	0f 84 ce 00 00
	00		 je	 $LN7@process_me

; 1488 : 	{
; 1489 : 		if (get_local_entity_int_value (wingman, INT_TYPE_WEAPONS_HOLD))

  00255	83 7d 0c 00	 cmp	 DWORD PTR _wingman$[ebp], 0
  00259	74 0a		 je	 SHORT $LN25@process_me
  0025b	8b 45 0c	 mov	 eax, DWORD PTR _wingman$[ebp]
  0025e	8b 08		 mov	 ecx, DWORD PTR [eax]
  00260	89 4d b8	 mov	 DWORD PTR tv193[ebp], ecx
  00263	eb 1d		 jmp	 SHORT $LN26@process_me
$LN25@process_me:
  00265	68 d1 05 00 00	 push	 1489			; 000005d1H
  0026a	68 00 00 00 00	 push	 OFFSET ??_C@_0DK@BLKECLAG@c?3?2users?2nhv90?2projects?2eech?2ap@
  0026f	8b 15 00 00 00
	00		 mov	 edx, DWORD PTR ?null_entity_pointer_message@@3PBDB ; null_entity_pointer_message
  00275	52		 push	 edx
  00276	e8 00 00 00 00	 call	 ?process_assert@@YGXPBD0H@Z ; process_assert
  0027b	c7 45 b8 00 00
	00 00		 mov	 DWORD PTR tv193[ebp], 0
$LN26@process_me:
  00282	b8 01 00 00 00	 mov	 eax, 1
  00287	85 c0		 test	 eax, eax
  00289	74 09		 je	 SHORT $LN27@process_me
  0028b	c7 45 b4 11 01
	00 00		 mov	 DWORD PTR tv200[ebp], 273 ; 00000111H
  00292	eb 1d		 jmp	 SHORT $LN28@process_me
$LN27@process_me:
  00294	68 d1 05 00 00	 push	 1489			; 000005d1H
  00299	68 00 00 00 00	 push	 OFFSET ??_C@_0DK@BLKECLAG@c?3?2users?2nhv90?2projects?2eech?2ap@
  0029e	8b 0d 00 00 00
	00		 mov	 ecx, DWORD PTR ?overload_invalid_int_type_message@@3PBDB ; overload_invalid_int_type_message
  002a4	51		 push	 ecx
  002a5	e8 00 00 00 00	 call	 ?process_assert@@YGXPBD0H@Z ; process_assert
  002aa	c7 45 b4 00 00
	00 00		 mov	 DWORD PTR tv200[ebp], 0
$LN28@process_me:
  002b1	68 11 01 00 00	 push	 273			; 00000111H
  002b6	8b 55 0c	 mov	 edx, DWORD PTR _wingman$[ebp]
  002b9	52		 push	 edx
  002ba	69 45 b8 5c 04
	00 00		 imul	 eax, DWORD PTR tv193[ebp], 1116
  002c1	8b 4d b4	 mov	 ecx, DWORD PTR tv200[ebp]
  002c4	8b 94 88 00 00
	00 00		 mov	 edx, DWORD PTR ?fn_get_local_entity_int_value@@3PAY0BBH@P6GHPAUENTITY@@W4INT_TYPES@@@ZA[eax+ecx*4]
  002cb	ff d2		 call	 edx
  002cd	85 c0		 test	 eax, eax
  002cf	74 29		 je	 SHORT $LN8@process_me

; 1490 : 			play_client_server_radio_message_affirmative_response (wingman, SPEECH_WINGMAN_ACKNOWLEDGE, 1.0, 10.0);

  002d1	51		 push	 ecx
  002d2	f3 0f 10 05 00
	00 00 00	 movss	 xmm0, DWORD PTR __real@41200000
  002da	f3 0f 11 04 24	 movss	 DWORD PTR [esp], xmm0
  002df	51		 push	 ecx
  002e0	f3 0f 10 05 00
	00 00 00	 movss	 xmm0, DWORD PTR __real@3f800000
  002e8	f3 0f 11 04 24	 movss	 DWORD PTR [esp], xmm0
  002ed	6a 2f		 push	 47			; 0000002fH
  002ef	8b 45 0c	 mov	 eax, DWORD PTR _wingman$[ebp]
  002f2	50		 push	 eax
  002f3	e8 00 00 00 00	 call	 ?play_client_server_radio_message_affirmative_response@@YGXPAUENTITY@@HMM@Z ; play_client_server_radio_message_affirmative_response

; 1491 : 		else

  002f8	eb 27		 jmp	 SHORT $LN9@process_me
$LN8@process_me:

; 1492 : 			play_client_server_radio_message_affirmative_response (wingman, SPEECH_WINGMAN_ROGER_ENGAGING_TARGET, 1.0, 10.0);

  002fa	51		 push	 ecx
  002fb	f3 0f 10 05 00
	00 00 00	 movss	 xmm0, DWORD PTR __real@41200000
  00303	f3 0f 11 04 24	 movss	 DWORD PTR [esp], xmm0
  00308	51		 push	 ecx
  00309	f3 0f 10 05 00
	00 00 00	 movss	 xmm0, DWORD PTR __real@3f800000
  00311	f3 0f 11 04 24	 movss	 DWORD PTR [esp], xmm0
  00316	6a 1c		 push	 28			; 0000001cH
  00318	8b 45 0c	 mov	 eax, DWORD PTR _wingman$[ebp]
  0031b	50		 push	 eax
  0031c	e8 00 00 00 00	 call	 ?play_client_server_radio_message_affirmative_response@@YGXPAUENTITY@@HMM@Z ; play_client_server_radio_message_affirmative_response
$LN9@process_me:

; 1493 : 
; 1494 : 		return;

  00321	eb 27		 jmp	 SHORT $LN1@process_me
$LN7@process_me:

; 1495 : 	}
; 1496 : 
; 1497 : 	play_client_server_radio_message_negative_response (wingman, SPEECH_WINGMAN_UNABLE_TO_COMPLY, 1.0, 10.0);

  00323	51		 push	 ecx
  00324	f3 0f 10 05 00
	00 00 00	 movss	 xmm0, DWORD PTR __real@41200000
  0032c	f3 0f 11 04 24	 movss	 DWORD PTR [esp], xmm0
  00331	51		 push	 ecx
  00332	f3 0f 10 05 00
	00 00 00	 movss	 xmm0, DWORD PTR __real@3f800000
  0033a	f3 0f 11 04 24	 movss	 DWORD PTR [esp], xmm0
  0033f	6a 30		 push	 48			; 00000030H
  00341	8b 45 0c	 mov	 eax, DWORD PTR _wingman$[ebp]
  00344	50		 push	 eax
  00345	e8 00 00 00 00	 call	 ?play_client_server_radio_message_negative_response@@YGXPAUENTITY@@HMM@Z ; play_client_server_radio_message_negative_response
$LN1@process_me:

; 1498 : }

  0034a	5f		 pop	 edi
  0034b	5e		 pop	 esi
  0034c	5b		 pop	 ebx
  0034d	8b e5		 mov	 esp, ebp
  0034f	5d		 pop	 ebp
  00350	c2 08 00	 ret	 8
?process_message_attack_pfz@@YGXPAUENTITY@@0@Z ENDP	; process_message_attack_pfz
_TEXT	ENDS
; Function compile flags: /Odtp /ZI
; File c:\users\nhv90\projects\eech\aphavoc\source\misc\msg_in.c
;	COMDAT ?set_new_display_message@@YGXH@Z
_TEXT	SEGMENT
_log$ = -4						; size = 4
_index$ = 8						; size = 4
?set_new_display_message@@YGXH@Z PROC			; set_new_display_message, COMDAT

; 2451 : {

  00000	55		 push	 ebp
  00001	8b ec		 mov	 ebp, esp
  00003	83 ec 44	 sub	 esp, 68			; 00000044H
  00006	53		 push	 ebx
  00007	56		 push	 esi
  00008	57		 push	 edi

; 2452 : 	message_log_type
; 2453 : 		*log;
; 2454 : 
; 2455 : 	if ((index >= num_messages) || (index < 0))

  00009	8b 45 08	 mov	 eax, DWORD PTR _index$[ebp]
  0000c	3b 05 00 00 00
	00		 cmp	 eax, DWORD PTR ?num_messages@@3HA
  00012	7d 06		 jge	 SHORT $LN4@set_new_di
  00014	83 7d 08 00	 cmp	 DWORD PTR _index$[ebp], 0
  00018	7d 1a		 jge	 SHORT $LN2@set_new_di
$LN4@set_new_di:

; 2456 : 	{
; 2457 : 		current_message = -1;

  0001a	c7 05 00 00 00
	00 ff ff ff ff	 mov	 DWORD PTR ?current_message@@3HA, -1

; 2458 : 
; 2459 : 		current_message_timer = 0.0;

  00024	0f 57 c0	 xorps	 xmm0, xmm0
  00027	f3 0f 11 05 00
	00 00 00	 movss	 DWORD PTR ?current_message_timer@@3MA, xmm0

; 2460 : 	}
; 2461 : 	else

  0002f	e9 08 01 00 00	 jmp	 $LN8@set_new_di
$LN2@set_new_di:

; 2462 : 	{
; 2463 : 		current_message = index;

  00034	8b 45 08	 mov	 eax, DWORD PTR _index$[ebp]
  00037	a3 00 00 00 00	 mov	 DWORD PTR ?current_message@@3HA, eax

; 2464 : 
; 2465 : 		log = &message_log [current_message];

  0003c	a1 00 00 00 00	 mov	 eax, DWORD PTR ?current_message@@3HA
  00041	c1 e0 05	 shl	 eax, 5
  00044	03 05 00 00 00
	00		 add	 eax, DWORD PTR ?message_log@@3PAUMESSAGE_LOG_TYPE@@A
  0004a	89 45 fc	 mov	 DWORD PTR _log$[ebp], eax

; 2466 : 
; 2467 : 		ASSERT (log);

  0004d	75 18		 jne	 SHORT $LN5@set_new_di
  0004f	a1 00 00 00 00	 mov	 eax, DWORD PTR ?__LINE__Var@?0??set_new_display_message@@YGXH@Z@4JA
  00054	83 c0 10	 add	 eax, 16			; 00000010H
  00057	50		 push	 eax
  00058	68 00 00 00 00	 push	 OFFSET ??_C@_0DK@BLKECLAG@c?3?2users?2nhv90?2projects?2eech?2ap@
  0005d	68 00 00 00 00	 push	 OFFSET ??_C@_03MGHMBJCF@log@
  00062	e8 00 00 00 00	 call	 ?process_assert@@YGXPBD0H@Z ; process_assert
$LN5@set_new_di:

; 2468 : 		ASSERT (log->type < NUM_MESSAGE_TEXT_TYPES);

  00067	8b 45 fc	 mov	 eax, DWORD PTR _log$[ebp]
  0006a	83 38 0c	 cmp	 DWORD PTR [eax], 12	; 0000000cH
  0006d	7c 18		 jl	 SHORT $LN6@set_new_di
  0006f	a1 00 00 00 00	 mov	 eax, DWORD PTR ?__LINE__Var@?0??set_new_display_message@@YGXH@Z@4JA
  00074	83 c0 11	 add	 eax, 17			; 00000011H
  00077	50		 push	 eax
  00078	68 00 00 00 00	 push	 OFFSET ??_C@_0DK@BLKECLAG@c?3?2users?2nhv90?2projects?2eech?2ap@
  0007d	68 00 00 00 00	 push	 OFFSET ??_C@_0CD@OFODCPLH@log?9?$DOtype?5?$DM?5NUM_MESSAGE_TEXT_TY@
  00082	e8 00 00 00 00	 call	 ?process_assert@@YGXPBD0H@Z ; process_assert
$LN6@set_new_di:

; 2469 : 
; 2470 : 		current_message_timer = message_text_info [log->type].display_time;

  00087	8b 45 fc	 mov	 eax, DWORD PTR _log$[ebp]
  0008a	8b 08		 mov	 ecx, DWORD PTR [eax]
  0008c	f3 0f 10 04 cd
	04 00 00 00	 movss	 xmm0, DWORD PTR ?message_text_info@@3QBUMESSAGE_TEXT_INFO_TYPE@@B[ecx*8+4]
  00095	f3 0f 11 05 00
	00 00 00	 movss	 DWORD PTR ?current_message_timer@@3MA, xmm0

; 2471 : 
; 2472 : 		ASSERT (current_message_timer > 0.0);

  0009d	f3 0f 5a 05 00
	00 00 00	 cvtss2sd xmm0, DWORD PTR ?current_message_timer@@3MA
  000a5	66 0f 2f 05 00
	00 00 00	 comisd	 xmm0, QWORD PTR __real@0000000000000000
  000ad	77 18		 ja	 SHORT $LN7@set_new_di
  000af	a1 00 00 00 00	 mov	 eax, DWORD PTR ?__LINE__Var@?0??set_new_display_message@@YGXH@Z@4JA
  000b4	83 c0 15	 add	 eax, 21			; 00000015H
  000b7	50		 push	 eax
  000b8	68 00 00 00 00	 push	 OFFSET ??_C@_0DK@BLKECLAG@c?3?2users?2nhv90?2projects?2eech?2ap@
  000bd	68 00 00 00 00	 push	 OFFSET ??_C@_0BM@INBLEPJA@current_message_timer?5?$DO?50?40@
  000c2	e8 00 00 00 00	 call	 ?process_assert@@YGXPBD0H@Z ; process_assert
$LN7@set_new_di:

; 2473 : 
; 2474 : 		if (point_inside_map_area (&(log->position)))

  000c7	8b 45 fc	 mov	 eax, DWORD PTR _log$[ebp]
  000ca	f3 0f 10 40 0c	 movss	 xmm0, DWORD PTR [eax+12]
  000cf	0f 2f 05 24 00
	00 00		 comiss	 xmm0, DWORD PTR ?world_map@@3UWORLD_MAP_DATA@@A+36
  000d6	72 64		 jb	 SHORT $LN8@set_new_di
  000d8	8b 45 fc	 mov	 eax, DWORD PTR _log$[ebp]
  000db	f3 0f 10 05 3c
	00 00 00	 movss	 xmm0, DWORD PTR ?world_map@@3UWORLD_MAP_DATA@@A+60
  000e3	0f 2f 40 0c	 comiss	 xmm0, DWORD PTR [eax+12]
  000e7	72 53		 jb	 SHORT $LN8@set_new_di
  000e9	8b 45 fc	 mov	 eax, DWORD PTR _log$[ebp]
  000ec	f3 0f 10 40 14	 movss	 xmm0, DWORD PTR [eax+20]
  000f1	0f 2f 05 2c 00
	00 00		 comiss	 xmm0, DWORD PTR ?world_map@@3UWORLD_MAP_DATA@@A+44
  000f8	72 42		 jb	 SHORT $LN8@set_new_di
  000fa	8b 45 fc	 mov	 eax, DWORD PTR _log$[ebp]
  000fd	f3 0f 10 05 44
	00 00 00	 movss	 xmm0, DWORD PTR ?world_map@@3UWORLD_MAP_DATA@@A+68
  00105	0f 2f 40 14	 comiss	 xmm0, DWORD PTR [eax+20]
  00109	72 31		 jb	 SHORT $LN8@set_new_di

; 2475 : 		{
; 2476 : 			add_map_event (MAP_EVENT_LOG_EVENT, log->position.x, log->position.z, current_message_timer);

  0010b	51		 push	 ecx
  0010c	f3 0f 10 05 00
	00 00 00	 movss	 xmm0, DWORD PTR ?current_message_timer@@3MA
  00114	f3 0f 11 04 24	 movss	 DWORD PTR [esp], xmm0
  00119	8b 45 fc	 mov	 eax, DWORD PTR _log$[ebp]
  0011c	51		 push	 ecx
  0011d	f3 0f 10 40 14	 movss	 xmm0, DWORD PTR [eax+20]
  00122	f3 0f 11 04 24	 movss	 DWORD PTR [esp], xmm0
  00127	8b 4d fc	 mov	 ecx, DWORD PTR _log$[ebp]
  0012a	51		 push	 ecx
  0012b	f3 0f 10 41 0c	 movss	 xmm0, DWORD PTR [ecx+12]
  00130	f3 0f 11 04 24	 movss	 DWORD PTR [esp], xmm0
  00135	6a 00		 push	 0
  00137	e8 00 00 00 00	 call	 ?add_map_event@@YGXHMMM@Z ; add_map_event
$LN8@set_new_di:

; 2477 : 		}
; 2478 : 	}
; 2479 : }

  0013c	5f		 pop	 edi
  0013d	5e		 pop	 esi
  0013e	5b		 pop	 ebx
  0013f	8b e5		 mov	 esp, ebp
  00141	5d		 pop	 ebp
  00142	c2 04 00	 ret	 4
?set_new_display_message@@YGXH@Z ENDP			; set_new_display_message
_TEXT	ENDS
; Function compile flags: /Odtp /ZI
; File c:\users\nhv90\projects\eech\aphavoc\source\misc\msg_in.c
;	COMDAT ?process_message_request_assistance@@YGXPAUENTITY@@@Z
_TEXT	SEGMENT
tv231 = -84						; size = 4
tv206 = -84						; size = 4
tv187 = -84						; size = 4
tv162 = -84						; size = 4
tv136 = -84						; size = 4
tv83 = -84						; size = 4
tv223 = -80						; size = 4
tv199 = -80						; size = 4
tv180 = -80						; size = 4
tv154 = -80						; size = 4
tv128 = -80						; size = 4
tv75 = -80						; size = 4
_aggressor$ = -12					; size = 4
_group$ = -8						; size = 4
_force$ = -4						; size = 4
_en$ = 8						; size = 4
?process_message_request_assistance@@YGXPAUENTITY@@@Z PROC ; process_message_request_assistance, COMDAT

; 2299 : {

  00000	55		 push	 ebp
  00001	8b ec		 mov	 ebp, esp
  00003	83 ec 54	 sub	 esp, 84			; 00000054H
  00006	53		 push	 ebx
  00007	56		 push	 esi
  00008	57		 push	 edi

; 2300 : 	entity
; 2301 : 		*force,
; 2302 : 		*group,
; 2303 : 		*aggressor;
; 2304 : 
; 2305 : 	ASSERT (en);

  00009	83 7d 08 00	 cmp	 DWORD PTR _en$[ebp], 0
  0000d	75 18		 jne	 SHORT $LN4@process_me
  0000f	a1 00 00 00 00	 mov	 eax, DWORD PTR ?__LINE__Var@?0??process_message_request_assistance@@YGXPAUENTITY@@@Z@4JA
  00014	83 c0 06	 add	 eax, 6
  00017	50		 push	 eax
  00018	68 00 00 00 00	 push	 OFFSET ??_C@_0DK@BLKECLAG@c?3?2users?2nhv90?2projects?2eech?2ap@
  0001d	68 00 00 00 00	 push	 OFFSET ??_C@_02LFNMGJAP@en@
  00022	e8 00 00 00 00	 call	 ?process_assert@@YGXPBD0H@Z ; process_assert
$LN4@process_me:

; 2306 : 
; 2307 : 	aggressor = get_local_entity_first_child (en, LIST_TYPE_TARGET);

  00027	83 7d 08 00	 cmp	 DWORD PTR _en$[ebp], 0
  0002b	74 0a		 je	 SHORT $LN11@process_me
  0002d	8b 45 08	 mov	 eax, DWORD PTR _en$[ebp]
  00030	8b 08		 mov	 ecx, DWORD PTR [eax]
  00032	89 4d b0	 mov	 DWORD PTR tv75[ebp], ecx
  00035	eb 21		 jmp	 SHORT $LN12@process_me
$LN11@process_me:
  00037	8b 15 00 00 00
	00		 mov	 edx, DWORD PTR ?__LINE__Var@?0??process_message_request_assistance@@YGXPAUENTITY@@@Z@4JA
  0003d	83 c2 08	 add	 edx, 8
  00040	52		 push	 edx
  00041	68 00 00 00 00	 push	 OFFSET ??_C@_0DK@BLKECLAG@c?3?2users?2nhv90?2projects?2eech?2ap@
  00046	a1 00 00 00 00	 mov	 eax, DWORD PTR ?null_entity_pointer_message@@3PBDB ; null_entity_pointer_message
  0004b	50		 push	 eax
  0004c	e8 00 00 00 00	 call	 ?process_assert@@YGXPBD0H@Z ; process_assert
  00051	c7 45 b0 00 00
	00 00		 mov	 DWORD PTR tv75[ebp], 0
$LN12@process_me:
  00058	b9 01 00 00 00	 mov	 ecx, 1
  0005d	85 c9		 test	 ecx, ecx
  0005f	74 09		 je	 SHORT $LN13@process_me
  00061	c7 45 ac 26 00
	00 00		 mov	 DWORD PTR tv83[ebp], 38	; 00000026H
  00068	eb 21		 jmp	 SHORT $LN14@process_me
$LN13@process_me:
  0006a	8b 15 00 00 00
	00		 mov	 edx, DWORD PTR ?__LINE__Var@?0??process_message_request_assistance@@YGXPAUENTITY@@@Z@4JA
  00070	83 c2 08	 add	 edx, 8
  00073	52		 push	 edx
  00074	68 00 00 00 00	 push	 OFFSET ??_C@_0DK@BLKECLAG@c?3?2users?2nhv90?2projects?2eech?2ap@
  00079	a1 00 00 00 00	 mov	 eax, DWORD PTR ?overload_invalid_list_type_message@@3PBDB ; overload_invalid_list_type_message
  0007e	50		 push	 eax
  0007f	e8 00 00 00 00	 call	 ?process_assert@@YGXPBD0H@Z ; process_assert
  00084	c7 45 ac 00 00
	00 00		 mov	 DWORD PTR tv83[ebp], 0
$LN14@process_me:
  0008b	6a 26		 push	 38			; 00000026H
  0008d	8b 4d 08	 mov	 ecx, DWORD PTR _en$[ebp]
  00090	51		 push	 ecx
  00091	69 55 b0 b4 00
	00 00		 imul	 edx, DWORD PTR tv75[ebp], 180
  00098	8b 45 ac	 mov	 eax, DWORD PTR tv83[ebp]
  0009b	8b 8c 82 00 00
	00 00		 mov	 ecx, DWORD PTR ?fn_get_local_entity_first_child@@3PAY0CN@P6GPAUENTITY@@PAU1@W4LIST_TYPES@@@ZA[edx+eax*4]
  000a2	ff d1		 call	 ecx
  000a4	89 45 f4	 mov	 DWORD PTR _aggressor$[ebp], eax

; 2308 : 
; 2309 : 	//
; 2310 : 	// check that we actually have at least one pursuer before spinning through the group lists...
; 2311 : 	//
; 2312 : 
; 2313 : 	if (aggressor)

  000a7	83 7d f4 00	 cmp	 DWORD PTR _aggressor$[ebp], 0
  000ab	0f 84 dc 02 00
	00		 je	 $LN1@process_me

; 2314 : 	{
; 2315 : 		group = get_local_entity_parent (en, LIST_TYPE_MEMBER);

  000b1	83 7d 08 00	 cmp	 DWORD PTR _en$[ebp], 0
  000b5	74 0a		 je	 SHORT $LN15@process_me
  000b7	8b 45 08	 mov	 eax, DWORD PTR _en$[ebp]
  000ba	8b 08		 mov	 ecx, DWORD PTR [eax]
  000bc	89 4d b0	 mov	 DWORD PTR tv128[ebp], ecx
  000bf	eb 21		 jmp	 SHORT $LN16@process_me
$LN15@process_me:
  000c1	8b 15 00 00 00
	00		 mov	 edx, DWORD PTR ?__LINE__Var@?0??process_message_request_assistance@@YGXPAUENTITY@@@Z@4JA
  000c7	83 c2 10	 add	 edx, 16			; 00000010H
  000ca	52		 push	 edx
  000cb	68 00 00 00 00	 push	 OFFSET ??_C@_0DK@BLKECLAG@c?3?2users?2nhv90?2projects?2eech?2ap@
  000d0	a1 00 00 00 00	 mov	 eax, DWORD PTR ?null_entity_pointer_message@@3PBDB ; null_entity_pointer_message
  000d5	50		 push	 eax
  000d6	e8 00 00 00 00	 call	 ?process_assert@@YGXPBD0H@Z ; process_assert
  000db	c7 45 b0 00 00
	00 00		 mov	 DWORD PTR tv128[ebp], 0
$LN16@process_me:
  000e2	b9 01 00 00 00	 mov	 ecx, 1
  000e7	85 c9		 test	 ecx, ecx
  000e9	74 09		 je	 SHORT $LN17@process_me
  000eb	c7 45 ac 19 00
	00 00		 mov	 DWORD PTR tv136[ebp], 25 ; 00000019H
  000f2	eb 21		 jmp	 SHORT $LN18@process_me
$LN17@process_me:
  000f4	8b 15 00 00 00
	00		 mov	 edx, DWORD PTR ?__LINE__Var@?0??process_message_request_assistance@@YGXPAUENTITY@@@Z@4JA
  000fa	83 c2 10	 add	 edx, 16			; 00000010H
  000fd	52		 push	 edx
  000fe	68 00 00 00 00	 push	 OFFSET ??_C@_0DK@BLKECLAG@c?3?2users?2nhv90?2projects?2eech?2ap@
  00103	a1 00 00 00 00	 mov	 eax, DWORD PTR ?overload_invalid_list_type_message@@3PBDB ; overload_invalid_list_type_message
  00108	50		 push	 eax
  00109	e8 00 00 00 00	 call	 ?process_assert@@YGXPBD0H@Z ; process_assert
  0010e	c7 45 ac 00 00
	00 00		 mov	 DWORD PTR tv136[ebp], 0
$LN18@process_me:
  00115	6a 19		 push	 25			; 00000019H
  00117	8b 4d 08	 mov	 ecx, DWORD PTR _en$[ebp]
  0011a	51		 push	 ecx
  0011b	69 55 b0 b4 00
	00 00		 imul	 edx, DWORD PTR tv128[ebp], 180
  00122	8b 45 ac	 mov	 eax, DWORD PTR tv136[ebp]
  00125	8b 8c 82 00 00
	00 00		 mov	 ecx, DWORD PTR ?fn_get_local_entity_parent@@3PAY0CN@P6GPAUENTITY@@PAU1@W4LIST_TYPES@@@ZA[edx+eax*4]
  0012c	ff d1		 call	 ecx
  0012e	89 45 f8	 mov	 DWORD PTR _group$[ebp], eax

; 2316 : 
; 2317 : 		ASSERT (group);

  00131	83 7d f8 00	 cmp	 DWORD PTR _group$[ebp], 0
  00135	75 18		 jne	 SHORT $LN6@process_me
  00137	a1 00 00 00 00	 mov	 eax, DWORD PTR ?__LINE__Var@?0??process_message_request_assistance@@YGXPAUENTITY@@@Z@4JA
  0013c	83 c0 12	 add	 eax, 18			; 00000012H
  0013f	50		 push	 eax
  00140	68 00 00 00 00	 push	 OFFSET ??_C@_0DK@BLKECLAG@c?3?2users?2nhv90?2projects?2eech?2ap@
  00145	68 00 00 00 00	 push	 OFFSET ??_C@_05MGJOOGAJ@group@
  0014a	e8 00 00 00 00	 call	 ?process_assert@@YGXPBD0H@Z ; process_assert
$LN6@process_me:

; 2318 : 
; 2319 : 		force = get_local_force_entity ((entity_sides) get_local_entity_int_value (en, INT_TYPE_SIDE));

  0014f	83 7d 08 00	 cmp	 DWORD PTR _en$[ebp], 0
  00153	74 0a		 je	 SHORT $LN19@process_me
  00155	8b 45 08	 mov	 eax, DWORD PTR _en$[ebp]
  00158	8b 08		 mov	 ecx, DWORD PTR [eax]
  0015a	89 4d b0	 mov	 DWORD PTR tv154[ebp], ecx
  0015d	eb 21		 jmp	 SHORT $LN20@process_me
$LN19@process_me:
  0015f	8b 15 00 00 00
	00		 mov	 edx, DWORD PTR ?__LINE__Var@?0??process_message_request_assistance@@YGXPAUENTITY@@@Z@4JA
  00165	83 c2 14	 add	 edx, 20			; 00000014H
  00168	52		 push	 edx
  00169	68 00 00 00 00	 push	 OFFSET ??_C@_0DK@BLKECLAG@c?3?2users?2nhv90?2projects?2eech?2ap@
  0016e	a1 00 00 00 00	 mov	 eax, DWORD PTR ?null_entity_pointer_message@@3PBDB ; null_entity_pointer_message
  00173	50		 push	 eax
  00174	e8 00 00 00 00	 call	 ?process_assert@@YGXPBD0H@Z ; process_assert
  00179	c7 45 b0 00 00
	00 00		 mov	 DWORD PTR tv154[ebp], 0
$LN20@process_me:
  00180	b9 01 00 00 00	 mov	 ecx, 1
  00185	85 c9		 test	 ecx, ecx
  00187	74 09		 je	 SHORT $LN21@process_me
  00189	c7 45 ac bb 00
	00 00		 mov	 DWORD PTR tv162[ebp], 187 ; 000000bbH
  00190	eb 21		 jmp	 SHORT $LN22@process_me
$LN21@process_me:
  00192	8b 15 00 00 00
	00		 mov	 edx, DWORD PTR ?__LINE__Var@?0??process_message_request_assistance@@YGXPAUENTITY@@@Z@4JA
  00198	83 c2 14	 add	 edx, 20			; 00000014H
  0019b	52		 push	 edx
  0019c	68 00 00 00 00	 push	 OFFSET ??_C@_0DK@BLKECLAG@c?3?2users?2nhv90?2projects?2eech?2ap@
  001a1	a1 00 00 00 00	 mov	 eax, DWORD PTR ?overload_invalid_int_type_message@@3PBDB ; overload_invalid_int_type_message
  001a6	50		 push	 eax
  001a7	e8 00 00 00 00	 call	 ?process_assert@@YGXPBD0H@Z ; process_assert
  001ac	c7 45 ac 00 00
	00 00		 mov	 DWORD PTR tv162[ebp], 0
$LN22@process_me:
  001b3	68 bb 00 00 00	 push	 187			; 000000bbH
  001b8	8b 4d 08	 mov	 ecx, DWORD PTR _en$[ebp]
  001bb	51		 push	 ecx
  001bc	69 55 b0 5c 04
	00 00		 imul	 edx, DWORD PTR tv154[ebp], 1116
  001c3	8b 45 ac	 mov	 eax, DWORD PTR tv162[ebp]
  001c6	8b 8c 82 00 00
	00 00		 mov	 ecx, DWORD PTR ?fn_get_local_entity_int_value@@3PAY0BBH@P6GHPAUENTITY@@W4INT_TYPES@@@ZA[edx+eax*4]
  001cd	ff d1		 call	 ecx
  001cf	50		 push	 eax
  001d0	e8 00 00 00 00	 call	 ?get_local_force_entity@@YGPAUENTITY@@W4ENTITY_SIDES@@@Z ; get_local_force_entity
  001d5	89 45 fc	 mov	 DWORD PTR _force$[ebp], eax

; 2320 : 
; 2321 : 		ASSERT (force);

  001d8	83 7d fc 00	 cmp	 DWORD PTR _force$[ebp], 0
  001dc	75 18		 jne	 SHORT $LN2@process_me
  001de	a1 00 00 00 00	 mov	 eax, DWORD PTR ?__LINE__Var@?0??process_message_request_assistance@@YGXPAUENTITY@@@Z@4JA
  001e3	83 c0 16	 add	 eax, 22			; 00000016H
  001e6	50		 push	 eax
  001e7	68 00 00 00 00	 push	 OFFSET ??_C@_0DK@BLKECLAG@c?3?2users?2nhv90?2projects?2eech?2ap@
  001ec	68 00 00 00 00	 push	 OFFSET ??_C@_05BINPNAAL@force@
  001f1	e8 00 00 00 00	 call	 ?process_assert@@YGXPBD0H@Z ; process_assert
$LN2@process_me:

; 2322 : 
; 2323 : 		while (aggressor)

  001f6	83 7d f4 00	 cmp	 DWORD PTR _aggressor$[ebp], 0
  001fa	0f 84 8d 01 00
	00		 je	 $LN1@process_me

; 2324 : 		{
; 2325 : 			if (
; 2326 : 					(get_local_entity_int_value (aggressor, INT_TYPE_IDENTIFY_AIRCRAFT)) ||

  00200	83 7d f4 00	 cmp	 DWORD PTR _aggressor$[ebp], 0
  00204	74 0a		 je	 SHORT $LN23@process_me
  00206	8b 45 f4	 mov	 eax, DWORD PTR _aggressor$[ebp]
  00209	8b 08		 mov	 ecx, DWORD PTR [eax]
  0020b	89 4d b0	 mov	 DWORD PTR tv180[ebp], ecx
  0020e	eb 1d		 jmp	 SHORT $LN24@process_me
$LN23@process_me:
  00210	68 16 09 00 00	 push	 2326			; 00000916H
  00215	68 00 00 00 00	 push	 OFFSET ??_C@_0DK@BLKECLAG@c?3?2users?2nhv90?2projects?2eech?2ap@
  0021a	8b 15 00 00 00
	00		 mov	 edx, DWORD PTR ?null_entity_pointer_message@@3PBDB ; null_entity_pointer_message
  00220	52		 push	 edx
  00221	e8 00 00 00 00	 call	 ?process_assert@@YGXPBD0H@Z ; process_assert
  00226	c7 45 b0 00 00
	00 00		 mov	 DWORD PTR tv180[ebp], 0
$LN24@process_me:
  0022d	b8 01 00 00 00	 mov	 eax, 1
  00232	85 c0		 test	 eax, eax
  00234	74 09		 je	 SHORT $LN25@process_me
  00236	c7 45 ac 57 00
	00 00		 mov	 DWORD PTR tv187[ebp], 87 ; 00000057H
  0023d	eb 1d		 jmp	 SHORT $LN26@process_me
$LN25@process_me:
  0023f	68 16 09 00 00	 push	 2326			; 00000916H
  00244	68 00 00 00 00	 push	 OFFSET ??_C@_0DK@BLKECLAG@c?3?2users?2nhv90?2projects?2eech?2ap@
  00249	8b 0d 00 00 00
	00		 mov	 ecx, DWORD PTR ?overload_invalid_int_type_message@@3PBDB ; overload_invalid_int_type_message
  0024f	51		 push	 ecx
  00250	e8 00 00 00 00	 call	 ?process_assert@@YGXPBD0H@Z ; process_assert
  00255	c7 45 ac 00 00
	00 00		 mov	 DWORD PTR tv187[ebp], 0
$LN26@process_me:
  0025c	6a 57		 push	 87			; 00000057H
  0025e	8b 55 f4	 mov	 edx, DWORD PTR _aggressor$[ebp]
  00261	52		 push	 edx
  00262	69 45 b0 5c 04
	00 00		 imul	 eax, DWORD PTR tv180[ebp], 1116
  00269	8b 4d ac	 mov	 ecx, DWORD PTR tv187[ebp]
  0026c	8b 94 88 00 00
	00 00		 mov	 edx, DWORD PTR ?fn_get_local_entity_int_value@@3PAY0BBH@P6GHPAUENTITY@@W4INT_TYPES@@@ZA[eax+ecx*4]
  00273	ff d2		 call	 edx
  00275	85 c0		 test	 eax, eax
  00277	75 79		 jne	 SHORT $LN9@process_me
  00279	83 7d f4 00	 cmp	 DWORD PTR _aggressor$[ebp], 0
  0027d	74 0a		 je	 SHORT $LN27@process_me
  0027f	8b 45 f4	 mov	 eax, DWORD PTR _aggressor$[ebp]
  00282	8b 08		 mov	 ecx, DWORD PTR [eax]
  00284	89 4d b0	 mov	 DWORD PTR tv199[ebp], ecx
  00287	eb 1d		 jmp	 SHORT $LN28@process_me
$LN27@process_me:
  00289	68 17 09 00 00	 push	 2327			; 00000917H
  0028e	68 00 00 00 00	 push	 OFFSET ??_C@_0DK@BLKECLAG@c?3?2users?2nhv90?2projects?2eech?2ap@
  00293	8b 15 00 00 00
	00		 mov	 edx, DWORD PTR ?null_entity_pointer_message@@3PBDB ; null_entity_pointer_message
  00299	52		 push	 edx
  0029a	e8 00 00 00 00	 call	 ?process_assert@@YGXPBD0H@Z ; process_assert
  0029f	c7 45 b0 00 00
	00 00		 mov	 DWORD PTR tv199[ebp], 0
$LN28@process_me:
  002a6	b8 01 00 00 00	 mov	 eax, 1
  002ab	85 c0		 test	 eax, eax
  002ad	74 09		 je	 SHORT $LN29@process_me
  002af	c7 45 ac 60 00
	00 00		 mov	 DWORD PTR tv206[ebp], 96 ; 00000060H
  002b6	eb 1d		 jmp	 SHORT $LN30@process_me
$LN29@process_me:
  002b8	68 17 09 00 00	 push	 2327			; 00000917H
  002bd	68 00 00 00 00	 push	 OFFSET ??_C@_0DK@BLKECLAG@c?3?2users?2nhv90?2projects?2eech?2ap@
  002c2	8b 0d 00 00 00
	00		 mov	 ecx, DWORD PTR ?overload_invalid_int_type_message@@3PBDB ; overload_invalid_int_type_message
  002c8	51		 push	 ecx
  002c9	e8 00 00 00 00	 call	 ?process_assert@@YGXPBD0H@Z ; process_assert
  002ce	c7 45 ac 00 00
	00 00		 mov	 DWORD PTR tv206[ebp], 0
$LN30@process_me:
  002d5	6a 60		 push	 96			; 00000060H
  002d7	8b 55 f4	 mov	 edx, DWORD PTR _aggressor$[ebp]
  002da	52		 push	 edx
  002db	69 45 b0 5c 04
	00 00		 imul	 eax, DWORD PTR tv199[ebp], 1116
  002e2	8b 4d ac	 mov	 ecx, DWORD PTR tv206[ebp]
  002e5	8b 94 88 00 00
	00 00		 mov	 edx, DWORD PTR ?fn_get_local_entity_int_value@@3PAY0BBH@P6GHPAUENTITY@@W4INT_TYPES@@@ZA[eax+ecx*4]
  002ec	ff d2		 call	 edx
  002ee	85 c0		 test	 eax, eax
  002f0	74 16		 je	 SHORT $LN8@process_me
$LN9@process_me:

; 2327 : 					(get_local_entity_int_value (aggressor, INT_TYPE_IDENTIFY_VEHICLE))
; 2328 : 				)
; 2329 : 			{
; 2330 : 				notify_local_entity (ENTITY_MESSAGE_REQUEST_ASSISTANCE, force, en, aggressor);

  002f2	8b 45 f4	 mov	 eax, DWORD PTR _aggressor$[ebp]
  002f5	50		 push	 eax
  002f6	8b 4d 08	 mov	 ecx, DWORD PTR _en$[ebp]
  002f9	51		 push	 ecx
  002fa	8b 55 fc	 mov	 edx, DWORD PTR _force$[ebp]
  002fd	52		 push	 edx
  002fe	6a 2d		 push	 45			; 0000002dH
  00300	e8 00 00 00 00	 call	 ?notify_local_entity@@YAHW4ENTITY_MESSAGES@@PAUENTITY@@1ZZ ; notify_local_entity
  00305	83 c4 10	 add	 esp, 16			; 00000010H
$LN8@process_me:

; 2331 : 			}
; 2332 : 
; 2333 : 			aggressor = get_local_entity_child_succ (aggressor, LIST_TYPE_TARGET);

  00308	83 7d f4 00	 cmp	 DWORD PTR _aggressor$[ebp], 0
  0030c	74 0a		 je	 SHORT $LN31@process_me
  0030e	8b 45 f4	 mov	 eax, DWORD PTR _aggressor$[ebp]
  00311	8b 08		 mov	 ecx, DWORD PTR [eax]
  00313	89 4d b0	 mov	 DWORD PTR tv223[ebp], ecx
  00316	eb 21		 jmp	 SHORT $LN32@process_me
$LN31@process_me:
  00318	8b 15 00 00 00
	00		 mov	 edx, DWORD PTR ?__LINE__Var@?0??process_message_request_assistance@@YGXPAUENTITY@@@Z@4JA
  0031e	83 c2 22	 add	 edx, 34			; 00000022H
  00321	52		 push	 edx
  00322	68 00 00 00 00	 push	 OFFSET ??_C@_0DK@BLKECLAG@c?3?2users?2nhv90?2projects?2eech?2ap@
  00327	a1 00 00 00 00	 mov	 eax, DWORD PTR ?null_entity_pointer_message@@3PBDB ; null_entity_pointer_message
  0032c	50		 push	 eax
  0032d	e8 00 00 00 00	 call	 ?process_assert@@YGXPBD0H@Z ; process_assert
  00332	c7 45 b0 00 00
	00 00		 mov	 DWORD PTR tv223[ebp], 0
$LN32@process_me:
  00339	b9 01 00 00 00	 mov	 ecx, 1
  0033e	85 c9		 test	 ecx, ecx
  00340	74 09		 je	 SHORT $LN33@process_me
  00342	c7 45 ac 26 00
	00 00		 mov	 DWORD PTR tv231[ebp], 38 ; 00000026H
  00349	eb 21		 jmp	 SHORT $LN34@process_me
$LN33@process_me:
  0034b	8b 15 00 00 00
	00		 mov	 edx, DWORD PTR ?__LINE__Var@?0??process_message_request_assistance@@YGXPAUENTITY@@@Z@4JA
  00351	83 c2 22	 add	 edx, 34			; 00000022H
  00354	52		 push	 edx
  00355	68 00 00 00 00	 push	 OFFSET ??_C@_0DK@BLKECLAG@c?3?2users?2nhv90?2projects?2eech?2ap@
  0035a	a1 00 00 00 00	 mov	 eax, DWORD PTR ?overload_invalid_list_type_message@@3PBDB ; overload_invalid_list_type_message
  0035f	50		 push	 eax
  00360	e8 00 00 00 00	 call	 ?process_assert@@YGXPBD0H@Z ; process_assert
  00365	c7 45 ac 00 00
	00 00		 mov	 DWORD PTR tv231[ebp], 0
$LN34@process_me:
  0036c	6a 26		 push	 38			; 00000026H
  0036e	8b 4d f4	 mov	 ecx, DWORD PTR _aggressor$[ebp]
  00371	51		 push	 ecx
  00372	69 55 b0 b4 00
	00 00		 imul	 edx, DWORD PTR tv223[ebp], 180
  00379	8b 45 ac	 mov	 eax, DWORD PTR tv231[ebp]
  0037c	8b 8c 82 00 00
	00 00		 mov	 ecx, DWORD PTR ?fn_get_local_entity_child_succ@@3PAY0CN@P6GPAUENTITY@@PAU1@W4LIST_TYPES@@@ZA[edx+eax*4]
  00383	ff d1		 call	 ecx
  00385	89 45 f4	 mov	 DWORD PTR _aggressor$[ebp], eax

; 2334 : 		}

  00388	e9 69 fe ff ff	 jmp	 $LN2@process_me
$LN1@process_me:

; 2335 : 	}
; 2336 : }

  0038d	5f		 pop	 edi
  0038e	5e		 pop	 esi
  0038f	5b		 pop	 ebx
  00390	8b e5		 mov	 esp, ebp
  00392	5d		 pop	 ebp
  00393	c2 04 00	 ret	 4
?process_message_request_assistance@@YGXPAUENTITY@@@Z ENDP ; process_message_request_assistance
_TEXT	ENDS
; Function compile flags: /Odtp /ZI
; File c:\users\nhv90\projects\eech\aphavoc\source\misc\msg_in.c
;	COMDAT ?process_message_request_artillery@@YGXPAUENTITY@@@Z
_TEXT	SEGMENT
tv483 = -120						; size = 4
tv447 = -120						; size = 4
tv411 = -120						; size = 4
tv369 = -120						; size = 4
tv348 = -120						; size = 4
tv328 = -120						; size = 4
tv302 = -120						; size = 4
tv275 = -120						; size = 4
tv254 = -120						; size = 4
tv235 = -120						; size = 4
tv216 = -120						; size = 4
tv197 = -120						; size = 4
tv175 = -120						; size = 4
tv154 = -120						; size = 4
tv136 = -120						; size = 4
tv83 = -120						; size = 4
tv475 = -116						; size = 4
tv439 = -116						; size = 4
tv403 = -116						; size = 4
tv362 = -116						; size = 4
tv340 = -116						; size = 4
tv320 = -116						; size = 4
tv294 = -116						; size = 4
tv267 = -116						; size = 4
tv247 = -116						; size = 4
tv228 = -116						; size = 4
tv209 = -116						; size = 4
tv189 = -116						; size = 4
tv167 = -116						; size = 4
tv147 = -116						; size = 4
tv128 = -116						; size = 4
tv75 = -116						; size = 4
_weapon_range$ = -48					; size = 4
_best_range$ = -44					; size = 4
_range$ = -40						; size = 4
_target_pos$ = -36					; size = 4
_group_pos$ = -32					; size = 4
_side$ = -28						; size = 4
_new_task$ = -24					; size = 4
_best_group$ = -20					; size = 4
_member$ = -16						; size = 4
_group$ = -12						; size = 4
_force$ = -8						; size = 4
_target$ = -4						; size = 4
_en$ = 8						; size = 4
?process_message_request_artillery@@YGXPAUENTITY@@@Z PROC ; process_message_request_artillery, COMDAT

; 2106 : {

  00000	55		 push	 ebp
  00001	8b ec		 mov	 ebp, esp
  00003	83 ec 78	 sub	 esp, 120		; 00000078H
  00006	53		 push	 ebx
  00007	56		 push	 esi
  00008	57		 push	 edi

; 2107 : 	entity
; 2108 : 		*target,
; 2109 : 		*force,
; 2110 : 		*group,
; 2111 : 		*member,
; 2112 : 		*best_group,
; 2113 : 		*new_task;
; 2114 : 
; 2115 : 	entity_sides
; 2116 : 		side;
; 2117 : 
; 2118 : 	vec3d
; 2119 : 		*group_pos,
; 2120 : 		*target_pos;
; 2121 : 
; 2122 : 	float
; 2123 : 		range,
; 2124 : 		best_range,
; 2125 : 		weapon_range;
; 2126 : 
; 2127 : 	ASSERT (en);

  00009	83 7d 08 00	 cmp	 DWORD PTR _en$[ebp], 0
  0000d	75 18		 jne	 SHORT $LN6@process_me
  0000f	a1 00 00 00 00	 mov	 eax, DWORD PTR ?__LINE__Var@?0??process_message_request_artillery@@YGXPAUENTITY@@@Z@4JA
  00014	83 c0 15	 add	 eax, 21			; 00000015H
  00017	50		 push	 eax
  00018	68 00 00 00 00	 push	 OFFSET ??_C@_0DK@BLKECLAG@c?3?2users?2nhv90?2projects?2eech?2ap@
  0001d	68 00 00 00 00	 push	 OFFSET ??_C@_02LFNMGJAP@en@
  00022	e8 00 00 00 00	 call	 ?process_assert@@YGXPBD0H@Z ; process_assert
$LN6@process_me:

; 2128 : 
; 2129 : 	new_task = NULL;

  00027	c7 45 e8 00 00
	00 00		 mov	 DWORD PTR _new_task$[ebp], 0

; 2130 : 
; 2131 : 	target = get_local_entity_parent (en, LIST_TYPE_TARGET);

  0002e	83 7d 08 00	 cmp	 DWORD PTR _en$[ebp], 0
  00032	74 0a		 je	 SHORT $LN18@process_me
  00034	8b 45 08	 mov	 eax, DWORD PTR _en$[ebp]
  00037	8b 08		 mov	 ecx, DWORD PTR [eax]
  00039	89 4d 8c	 mov	 DWORD PTR tv75[ebp], ecx
  0003c	eb 21		 jmp	 SHORT $LN19@process_me
$LN18@process_me:
  0003e	8b 15 00 00 00
	00		 mov	 edx, DWORD PTR ?__LINE__Var@?0??process_message_request_artillery@@YGXPAUENTITY@@@Z@4JA
  00044	83 c2 19	 add	 edx, 25			; 00000019H
  00047	52		 push	 edx
  00048	68 00 00 00 00	 push	 OFFSET ??_C@_0DK@BLKECLAG@c?3?2users?2nhv90?2projects?2eech?2ap@
  0004d	a1 00 00 00 00	 mov	 eax, DWORD PTR ?null_entity_pointer_message@@3PBDB ; null_entity_pointer_message
  00052	50		 push	 eax
  00053	e8 00 00 00 00	 call	 ?process_assert@@YGXPBD0H@Z ; process_assert
  00058	c7 45 8c 00 00
	00 00		 mov	 DWORD PTR tv75[ebp], 0
$LN19@process_me:
  0005f	b9 01 00 00 00	 mov	 ecx, 1
  00064	85 c9		 test	 ecx, ecx
  00066	74 09		 je	 SHORT $LN20@process_me
  00068	c7 45 88 26 00
	00 00		 mov	 DWORD PTR tv83[ebp], 38	; 00000026H
  0006f	eb 21		 jmp	 SHORT $LN21@process_me
$LN20@process_me:
  00071	8b 15 00 00 00
	00		 mov	 edx, DWORD PTR ?__LINE__Var@?0??process_message_request_artillery@@YGXPAUENTITY@@@Z@4JA
  00077	83 c2 19	 add	 edx, 25			; 00000019H
  0007a	52		 push	 edx
  0007b	68 00 00 00 00	 push	 OFFSET ??_C@_0DK@BLKECLAG@c?3?2users?2nhv90?2projects?2eech?2ap@
  00080	a1 00 00 00 00	 mov	 eax, DWORD PTR ?overload_invalid_list_type_message@@3PBDB ; overload_invalid_list_type_message
  00085	50		 push	 eax
  00086	e8 00 00 00 00	 call	 ?process_assert@@YGXPBD0H@Z ; process_assert
  0008b	c7 45 88 00 00
	00 00		 mov	 DWORD PTR tv83[ebp], 0
$LN21@process_me:
  00092	6a 26		 push	 38			; 00000026H
  00094	8b 4d 08	 mov	 ecx, DWORD PTR _en$[ebp]
  00097	51		 push	 ecx
  00098	69 55 8c b4 00
	00 00		 imul	 edx, DWORD PTR tv75[ebp], 180
  0009f	8b 45 88	 mov	 eax, DWORD PTR tv83[ebp]
  000a2	8b 8c 82 00 00
	00 00		 mov	 ecx, DWORD PTR ?fn_get_local_entity_parent@@3PAY0CN@P6GPAUENTITY@@PAU1@W4LIST_TYPES@@@ZA[edx+eax*4]
  000a9	ff d1		 call	 ecx
  000ab	89 45 fc	 mov	 DWORD PTR _target$[ebp], eax

; 2132 : 
; 2133 : 	if (target)

  000ae	83 7d fc 00	 cmp	 DWORD PTR _target$[ebp], 0
  000b2	0f 84 8b 09 00
	00		 je	 $LN8@process_me

; 2134 : 	{
; 2135 : 		side = (entity_sides) get_local_entity_int_value (en, INT_TYPE_SIDE);

  000b8	83 7d 08 00	 cmp	 DWORD PTR _en$[ebp], 0
  000bc	74 0a		 je	 SHORT $LN22@process_me
  000be	8b 45 08	 mov	 eax, DWORD PTR _en$[ebp]
  000c1	8b 08		 mov	 ecx, DWORD PTR [eax]
  000c3	89 4d 8c	 mov	 DWORD PTR tv128[ebp], ecx
  000c6	eb 21		 jmp	 SHORT $LN23@process_me
$LN22@process_me:
  000c8	8b 15 00 00 00
	00		 mov	 edx, DWORD PTR ?__LINE__Var@?0??process_message_request_artillery@@YGXPAUENTITY@@@Z@4JA
  000ce	83 c2 1d	 add	 edx, 29			; 0000001dH
  000d1	52		 push	 edx
  000d2	68 00 00 00 00	 push	 OFFSET ??_C@_0DK@BLKECLAG@c?3?2users?2nhv90?2projects?2eech?2ap@
  000d7	a1 00 00 00 00	 mov	 eax, DWORD PTR ?null_entity_pointer_message@@3PBDB ; null_entity_pointer_message
  000dc	50		 push	 eax
  000dd	e8 00 00 00 00	 call	 ?process_assert@@YGXPBD0H@Z ; process_assert
  000e2	c7 45 8c 00 00
	00 00		 mov	 DWORD PTR tv128[ebp], 0
$LN23@process_me:
  000e9	b9 01 00 00 00	 mov	 ecx, 1
  000ee	85 c9		 test	 ecx, ecx
  000f0	74 09		 je	 SHORT $LN24@process_me
  000f2	c7 45 88 bb 00
	00 00		 mov	 DWORD PTR tv136[ebp], 187 ; 000000bbH
  000f9	eb 21		 jmp	 SHORT $LN25@process_me
$LN24@process_me:
  000fb	8b 15 00 00 00
	00		 mov	 edx, DWORD PTR ?__LINE__Var@?0??process_message_request_artillery@@YGXPAUENTITY@@@Z@4JA
  00101	83 c2 1d	 add	 edx, 29			; 0000001dH
  00104	52		 push	 edx
  00105	68 00 00 00 00	 push	 OFFSET ??_C@_0DK@BLKECLAG@c?3?2users?2nhv90?2projects?2eech?2ap@
  0010a	a1 00 00 00 00	 mov	 eax, DWORD PTR ?overload_invalid_int_type_message@@3PBDB ; overload_invalid_int_type_message
  0010f	50		 push	 eax
  00110	e8 00 00 00 00	 call	 ?process_assert@@YGXPBD0H@Z ; process_assert
  00115	c7 45 88 00 00
	00 00		 mov	 DWORD PTR tv136[ebp], 0
$LN25@process_me:
  0011c	68 bb 00 00 00	 push	 187			; 000000bbH
  00121	8b 4d 08	 mov	 ecx, DWORD PTR _en$[ebp]
  00124	51		 push	 ecx
  00125	69 55 8c 5c 04
	00 00		 imul	 edx, DWORD PTR tv128[ebp], 1116
  0012c	8b 45 88	 mov	 eax, DWORD PTR tv136[ebp]
  0012f	8b 8c 82 00 00
	00 00		 mov	 ecx, DWORD PTR ?fn_get_local_entity_int_value@@3PAY0BBH@P6GHPAUENTITY@@W4INT_TYPES@@@ZA[edx+eax*4]
  00136	ff d1		 call	 ecx
  00138	89 45 e4	 mov	 DWORD PTR _side$[ebp], eax

; 2136 : 
; 2137 : 		if (get_local_entity_int_value (target, INT_TYPE_SIDE) != side)

  0013b	83 7d fc 00	 cmp	 DWORD PTR _target$[ebp], 0
  0013f	74 0a		 je	 SHORT $LN26@process_me
  00141	8b 45 fc	 mov	 eax, DWORD PTR _target$[ebp]
  00144	8b 08		 mov	 ecx, DWORD PTR [eax]
  00146	89 4d 8c	 mov	 DWORD PTR tv147[ebp], ecx
  00149	eb 1d		 jmp	 SHORT $LN27@process_me
$LN26@process_me:
  0014b	68 59 08 00 00	 push	 2137			; 00000859H
  00150	68 00 00 00 00	 push	 OFFSET ??_C@_0DK@BLKECLAG@c?3?2users?2nhv90?2projects?2eech?2ap@
  00155	8b 15 00 00 00
	00		 mov	 edx, DWORD PTR ?null_entity_pointer_message@@3PBDB ; null_entity_pointer_message
  0015b	52		 push	 edx
  0015c	e8 00 00 00 00	 call	 ?process_assert@@YGXPBD0H@Z ; process_assert
  00161	c7 45 8c 00 00
	00 00		 mov	 DWORD PTR tv147[ebp], 0
$LN27@process_me:
  00168	b8 01 00 00 00	 mov	 eax, 1
  0016d	85 c0		 test	 eax, eax
  0016f	74 09		 je	 SHORT $LN28@process_me
  00171	c7 45 88 bb 00
	00 00		 mov	 DWORD PTR tv154[ebp], 187 ; 000000bbH
  00178	eb 1d		 jmp	 SHORT $LN29@process_me
$LN28@process_me:
  0017a	68 59 08 00 00	 push	 2137			; 00000859H
  0017f	68 00 00 00 00	 push	 OFFSET ??_C@_0DK@BLKECLAG@c?3?2users?2nhv90?2projects?2eech?2ap@
  00184	8b 0d 00 00 00
	00		 mov	 ecx, DWORD PTR ?overload_invalid_int_type_message@@3PBDB ; overload_invalid_int_type_message
  0018a	51		 push	 ecx
  0018b	e8 00 00 00 00	 call	 ?process_assert@@YGXPBD0H@Z ; process_assert
  00190	c7 45 88 00 00
	00 00		 mov	 DWORD PTR tv154[ebp], 0
$LN29@process_me:
  00197	68 bb 00 00 00	 push	 187			; 000000bbH
  0019c	8b 55 fc	 mov	 edx, DWORD PTR _target$[ebp]
  0019f	52		 push	 edx
  001a0	69 45 8c 5c 04
	00 00		 imul	 eax, DWORD PTR tv147[ebp], 1116
  001a7	8b 4d 88	 mov	 ecx, DWORD PTR tv154[ebp]
  001aa	8b 94 88 00 00
	00 00		 mov	 edx, DWORD PTR ?fn_get_local_entity_int_value@@3PAY0BBH@P6GHPAUENTITY@@W4INT_TYPES@@@ZA[eax+ecx*4]
  001b1	ff d2		 call	 edx
  001b3	3b 45 e4	 cmp	 eax, DWORD PTR _side$[ebp]
  001b6	0f 84 87 08 00
	00		 je	 $LN8@process_me

; 2138 : 		{
; 2139 : 			//
; 2140 : 			// Find closest friendly artillery group
; 2141 : 			//
; 2142 : 
; 2143 : 			target_pos = get_local_entity_vec3d_ptr (target, VEC3D_TYPE_POSITION);

  001bc	83 7d fc 00	 cmp	 DWORD PTR _target$[ebp], 0
  001c0	74 0a		 je	 SHORT $LN30@process_me
  001c2	8b 45 fc	 mov	 eax, DWORD PTR _target$[ebp]
  001c5	8b 08		 mov	 ecx, DWORD PTR [eax]
  001c7	89 4d 8c	 mov	 DWORD PTR tv167[ebp], ecx
  001ca	eb 21		 jmp	 SHORT $LN31@process_me
$LN30@process_me:
  001cc	8b 15 00 00 00
	00		 mov	 edx, DWORD PTR ?__LINE__Var@?0??process_message_request_artillery@@YGXPAUENTITY@@@Z@4JA
  001d2	83 c2 25	 add	 edx, 37			; 00000025H
  001d5	52		 push	 edx
  001d6	68 00 00 00 00	 push	 OFFSET ??_C@_0DK@BLKECLAG@c?3?2users?2nhv90?2projects?2eech?2ap@
  001db	a1 00 00 00 00	 mov	 eax, DWORD PTR ?null_entity_pointer_message@@3PBDB ; null_entity_pointer_message
  001e0	50		 push	 eax
  001e1	e8 00 00 00 00	 call	 ?process_assert@@YGXPBD0H@Z ; process_assert
  001e6	c7 45 8c 00 00
	00 00		 mov	 DWORD PTR tv167[ebp], 0
$LN31@process_me:
  001ed	b9 01 00 00 00	 mov	 ecx, 1
  001f2	85 c9		 test	 ecx, ecx
  001f4	74 09		 je	 SHORT $LN32@process_me
  001f6	c7 45 88 08 00
	00 00		 mov	 DWORD PTR tv175[ebp], 8
  001fd	eb 21		 jmp	 SHORT $LN33@process_me
$LN32@process_me:
  001ff	8b 15 00 00 00
	00		 mov	 edx, DWORD PTR ?__LINE__Var@?0??process_message_request_artillery@@YGXPAUENTITY@@@Z@4JA
  00205	83 c2 25	 add	 edx, 37			; 00000025H
  00208	52		 push	 edx
  00209	68 00 00 00 00	 push	 OFFSET ??_C@_0DK@BLKECLAG@c?3?2users?2nhv90?2projects?2eech?2ap@
  0020e	a1 00 00 00 00	 mov	 eax, DWORD PTR ?overload_invalid_vec3d_type_message@@3PBDB ; overload_invalid_vec3d_type_message
  00213	50		 push	 eax
  00214	e8 00 00 00 00	 call	 ?process_assert@@YGXPBD0H@Z ; process_assert
  00219	c7 45 88 00 00
	00 00		 mov	 DWORD PTR tv175[ebp], 0
$LN33@process_me:
  00220	6a 08		 push	 8
  00222	8b 4d fc	 mov	 ecx, DWORD PTR _target$[ebp]
  00225	51		 push	 ecx
  00226	6b 55 8c 60	 imul	 edx, DWORD PTR tv167[ebp], 96
  0022a	8b 45 88	 mov	 eax, DWORD PTR tv175[ebp]
  0022d	8b 8c 82 00 00
	00 00		 mov	 ecx, DWORD PTR ?fn_get_local_entity_vec3d_ptr@@3PAY0BI@P6GPAUVEC3D@@PAUENTITY@@W4VEC3D_TYPES@@@ZA[edx+eax*4]
  00234	ff d1		 call	 ecx
  00236	89 45 dc	 mov	 DWORD PTR _target_pos$[ebp], eax

; 2144 : 
; 2145 : 			force = get_local_force_entity (side);

  00239	8b 45 e4	 mov	 eax, DWORD PTR _side$[ebp]
  0023c	50		 push	 eax
  0023d	e8 00 00 00 00	 call	 ?get_local_force_entity@@YGPAUENTITY@@W4ENTITY_SIDES@@@Z ; get_local_force_entity
  00242	89 45 f8	 mov	 DWORD PTR _force$[ebp], eax

; 2146 : 
; 2147 : 			best_group = NULL;

  00245	c7 45 ec 00 00
	00 00		 mov	 DWORD PTR _best_group$[ebp], 0

; 2148 : 
; 2149 : 			best_range = FLT_MAX;

  0024c	f3 0f 10 05 00
	00 00 00	 movss	 xmm0, DWORD PTR __real@7f7fffff
  00254	f3 0f 11 45 d4	 movss	 DWORD PTR _best_range$[ebp], xmm0

; 2150 : 
; 2151 : 			group = get_local_entity_first_child (force, LIST_TYPE_GROUND_REGISTRY);

  00259	83 7d f8 00	 cmp	 DWORD PTR _force$[ebp], 0
  0025d	74 0a		 je	 SHORT $LN34@process_me
  0025f	8b 45 f8	 mov	 eax, DWORD PTR _force$[ebp]
  00262	8b 08		 mov	 ecx, DWORD PTR [eax]
  00264	89 4d 8c	 mov	 DWORD PTR tv189[ebp], ecx
  00267	eb 21		 jmp	 SHORT $LN35@process_me
$LN34@process_me:
  00269	8b 15 00 00 00
	00		 mov	 edx, DWORD PTR ?__LINE__Var@?0??process_message_request_artillery@@YGXPAUENTITY@@@Z@4JA
  0026f	83 c2 2d	 add	 edx, 45			; 0000002dH
  00272	52		 push	 edx
  00273	68 00 00 00 00	 push	 OFFSET ??_C@_0DK@BLKECLAG@c?3?2users?2nhv90?2projects?2eech?2ap@
  00278	a1 00 00 00 00	 mov	 eax, DWORD PTR ?null_entity_pointer_message@@3PBDB ; null_entity_pointer_message
  0027d	50		 push	 eax
  0027e	e8 00 00 00 00	 call	 ?process_assert@@YGXPBD0H@Z ; process_assert
  00283	c7 45 8c 00 00
	00 00		 mov	 DWORD PTR tv189[ebp], 0
$LN35@process_me:
  0028a	b9 01 00 00 00	 mov	 ecx, 1
  0028f	85 c9		 test	 ecx, ecx
  00291	74 09		 je	 SHORT $LN36@process_me
  00293	c7 45 88 0f 00
	00 00		 mov	 DWORD PTR tv197[ebp], 15 ; 0000000fH
  0029a	eb 21		 jmp	 SHORT $LN37@process_me
$LN36@process_me:
  0029c	8b 15 00 00 00
	00		 mov	 edx, DWORD PTR ?__LINE__Var@?0??process_message_request_artillery@@YGXPAUENTITY@@@Z@4JA
  002a2	83 c2 2d	 add	 edx, 45			; 0000002dH
  002a5	52		 push	 edx
  002a6	68 00 00 00 00	 push	 OFFSET ??_C@_0DK@BLKECLAG@c?3?2users?2nhv90?2projects?2eech?2ap@
  002ab	a1 00 00 00 00	 mov	 eax, DWORD PTR ?overload_invalid_list_type_message@@3PBDB ; overload_invalid_list_type_message
  002b0	50		 push	 eax
  002b1	e8 00 00 00 00	 call	 ?process_assert@@YGXPBD0H@Z ; process_assert
  002b6	c7 45 88 00 00
	00 00		 mov	 DWORD PTR tv197[ebp], 0
$LN37@process_me:
  002bd	6a 0f		 push	 15			; 0000000fH
  002bf	8b 4d f8	 mov	 ecx, DWORD PTR _force$[ebp]
  002c2	51		 push	 ecx
  002c3	69 55 8c b4 00
	00 00		 imul	 edx, DWORD PTR tv189[ebp], 180
  002ca	8b 45 88	 mov	 eax, DWORD PTR tv197[ebp]
  002cd	8b 8c 82 00 00
	00 00		 mov	 ecx, DWORD PTR ?fn_get_local_entity_first_child@@3PAY0CN@P6GPAUENTITY@@PAU1@W4LIST_TYPES@@@ZA[edx+eax*4]
  002d4	ff d1		 call	 ecx
  002d6	89 45 f4	 mov	 DWORD PTR _group$[ebp], eax
$LN2@process_me:

; 2152 : 
; 2153 : 			while (group)

  002d9	83 7d f4 00	 cmp	 DWORD PTR _group$[ebp], 0
  002dd	0f 84 fa 03 00
	00		 je	 $LN3@process_me

; 2154 : 			{
; 2155 : 				if (
; 2156 : 						(get_local_entity_int_value (group, INT_TYPE_ENTITY_SUB_TYPE) == ENTITY_SUB_TYPE_GROUP_SELF_PROPELLED_ARTILLERY) ||

  002e3	83 7d f4 00	 cmp	 DWORD PTR _group$[ebp], 0
  002e7	74 0a		 je	 SHORT $LN38@process_me
  002e9	8b 45 f4	 mov	 eax, DWORD PTR _group$[ebp]
  002ec	8b 08		 mov	 ecx, DWORD PTR [eax]
  002ee	89 4d 8c	 mov	 DWORD PTR tv209[ebp], ecx
  002f1	eb 1d		 jmp	 SHORT $LN39@process_me
$LN38@process_me:
  002f3	68 6c 08 00 00	 push	 2156			; 0000086cH
  002f8	68 00 00 00 00	 push	 OFFSET ??_C@_0DK@BLKECLAG@c?3?2users?2nhv90?2projects?2eech?2ap@
  002fd	8b 15 00 00 00
	00		 mov	 edx, DWORD PTR ?null_entity_pointer_message@@3PBDB ; null_entity_pointer_message
  00303	52		 push	 edx
  00304	e8 00 00 00 00	 call	 ?process_assert@@YGXPBD0H@Z ; process_assert
  00309	c7 45 8c 00 00
	00 00		 mov	 DWORD PTR tv209[ebp], 0
$LN39@process_me:
  00310	b8 01 00 00 00	 mov	 eax, 1
  00315	85 c0		 test	 eax, eax
  00317	74 09		 je	 SHORT $LN40@process_me
  00319	c7 45 88 34 00
	00 00		 mov	 DWORD PTR tv216[ebp], 52 ; 00000034H
  00320	eb 1d		 jmp	 SHORT $LN41@process_me
$LN40@process_me:
  00322	68 6c 08 00 00	 push	 2156			; 0000086cH
  00327	68 00 00 00 00	 push	 OFFSET ??_C@_0DK@BLKECLAG@c?3?2users?2nhv90?2projects?2eech?2ap@
  0032c	8b 0d 00 00 00
	00		 mov	 ecx, DWORD PTR ?overload_invalid_int_type_message@@3PBDB ; overload_invalid_int_type_message
  00332	51		 push	 ecx
  00333	e8 00 00 00 00	 call	 ?process_assert@@YGXPBD0H@Z ; process_assert
  00338	c7 45 88 00 00
	00 00		 mov	 DWORD PTR tv216[ebp], 0
$LN41@process_me:
  0033f	6a 34		 push	 52			; 00000034H
  00341	8b 55 f4	 mov	 edx, DWORD PTR _group$[ebp]
  00344	52		 push	 edx
  00345	69 45 8c 5c 04
	00 00		 imul	 eax, DWORD PTR tv209[ebp], 1116
  0034c	8b 4d 88	 mov	 ecx, DWORD PTR tv216[ebp]
  0034f	8b 94 88 00 00
	00 00		 mov	 edx, DWORD PTR ?fn_get_local_entity_int_value@@3PAY0BBH@P6GHPAUENTITY@@W4INT_TYPES@@@ZA[eax+ecx*4]
  00356	ff d2		 call	 edx
  00358	83 f8 11	 cmp	 eax, 17			; 00000011H
  0035b	74 7e		 je	 SHORT $LN10@process_me
  0035d	83 7d f4 00	 cmp	 DWORD PTR _group$[ebp], 0
  00361	74 0a		 je	 SHORT $LN42@process_me
  00363	8b 45 f4	 mov	 eax, DWORD PTR _group$[ebp]
  00366	8b 08		 mov	 ecx, DWORD PTR [eax]
  00368	89 4d 8c	 mov	 DWORD PTR tv228[ebp], ecx
  0036b	eb 1d		 jmp	 SHORT $LN43@process_me
$LN42@process_me:
  0036d	68 6d 08 00 00	 push	 2157			; 0000086dH
  00372	68 00 00 00 00	 push	 OFFSET ??_C@_0DK@BLKECLAG@c?3?2users?2nhv90?2projects?2eech?2ap@
  00377	8b 15 00 00 00
	00		 mov	 edx, DWORD PTR ?null_entity_pointer_message@@3PBDB ; null_entity_pointer_message
  0037d	52		 push	 edx
  0037e	e8 00 00 00 00	 call	 ?process_assert@@YGXPBD0H@Z ; process_assert
  00383	c7 45 8c 00 00
	00 00		 mov	 DWORD PTR tv228[ebp], 0
$LN43@process_me:
  0038a	b8 01 00 00 00	 mov	 eax, 1
  0038f	85 c0		 test	 eax, eax
  00391	74 09		 je	 SHORT $LN44@process_me
  00393	c7 45 88 34 00
	00 00		 mov	 DWORD PTR tv235[ebp], 52 ; 00000034H
  0039a	eb 1d		 jmp	 SHORT $LN45@process_me
$LN44@process_me:
  0039c	68 6d 08 00 00	 push	 2157			; 0000086dH
  003a1	68 00 00 00 00	 push	 OFFSET ??_C@_0DK@BLKECLAG@c?3?2users?2nhv90?2projects?2eech?2ap@
  003a6	8b 0d 00 00 00
	00		 mov	 ecx, DWORD PTR ?overload_invalid_int_type_message@@3PBDB ; overload_invalid_int_type_message
  003ac	51		 push	 ecx
  003ad	e8 00 00 00 00	 call	 ?process_assert@@YGXPBD0H@Z ; process_assert
  003b2	c7 45 88 00 00
	00 00		 mov	 DWORD PTR tv235[ebp], 0
$LN45@process_me:
  003b9	6a 34		 push	 52			; 00000034H
  003bb	8b 55 f4	 mov	 edx, DWORD PTR _group$[ebp]
  003be	52		 push	 edx
  003bf	69 45 8c 5c 04
	00 00		 imul	 eax, DWORD PTR tv228[ebp], 1116
  003c6	8b 4d 88	 mov	 ecx, DWORD PTR tv235[ebp]
  003c9	8b 94 88 00 00
	00 00		 mov	 edx, DWORD PTR ?fn_get_local_entity_int_value@@3PAY0BBH@P6GHPAUENTITY@@W4INT_TYPES@@@ZA[eax+ecx*4]
  003d0	ff d2		 call	 edx
  003d2	83 f8 12	 cmp	 eax, 18			; 00000012H
  003d5	0f 85 7d 02 00
	00		 jne	 $LN5@process_me
$LN10@process_me:

; 2157 : 						(get_local_entity_int_value (group, INT_TYPE_ENTITY_SUB_TYPE) == ENTITY_SUB_TYPE_GROUP_SELF_PROPELLED_MLRS)
; 2158 : 					)
; 2159 : 				{
; 2160 : 					if (get_local_entity_int_value (group, INT_TYPE_GROUP_MODE) == GROUP_MODE_IDLE)

  003db	83 7d f4 00	 cmp	 DWORD PTR _group$[ebp], 0
  003df	74 0a		 je	 SHORT $LN46@process_me
  003e1	8b 45 f4	 mov	 eax, DWORD PTR _group$[ebp]
  003e4	8b 08		 mov	 ecx, DWORD PTR [eax]
  003e6	89 4d 8c	 mov	 DWORD PTR tv247[ebp], ecx
  003e9	eb 1d		 jmp	 SHORT $LN47@process_me
$LN46@process_me:
  003eb	68 70 08 00 00	 push	 2160			; 00000870H
  003f0	68 00 00 00 00	 push	 OFFSET ??_C@_0DK@BLKECLAG@c?3?2users?2nhv90?2projects?2eech?2ap@
  003f5	8b 15 00 00 00
	00		 mov	 edx, DWORD PTR ?null_entity_pointer_message@@3PBDB ; null_entity_pointer_message
  003fb	52		 push	 edx
  003fc	e8 00 00 00 00	 call	 ?process_assert@@YGXPBD0H@Z ; process_assert
  00401	c7 45 8c 00 00
	00 00		 mov	 DWORD PTR tv247[ebp], 0
$LN47@process_me:
  00408	b8 01 00 00 00	 mov	 eax, 1
  0040d	85 c0		 test	 eax, eax
  0040f	74 09		 je	 SHORT $LN48@process_me
  00411	c7 45 88 4d 00
	00 00		 mov	 DWORD PTR tv254[ebp], 77 ; 0000004dH
  00418	eb 1d		 jmp	 SHORT $LN49@process_me
$LN48@process_me:
  0041a	68 70 08 00 00	 push	 2160			; 00000870H
  0041f	68 00 00 00 00	 push	 OFFSET ??_C@_0DK@BLKECLAG@c?3?2users?2nhv90?2projects?2eech?2ap@
  00424	8b 0d 00 00 00
	00		 mov	 ecx, DWORD PTR ?overload_invalid_int_type_message@@3PBDB ; overload_invalid_int_type_message
  0042a	51		 push	 ecx
  0042b	e8 00 00 00 00	 call	 ?process_assert@@YGXPBD0H@Z ; process_assert
  00430	c7 45 88 00 00
	00 00		 mov	 DWORD PTR tv254[ebp], 0
$LN49@process_me:
  00437	6a 4d		 push	 77			; 0000004dH
  00439	8b 55 f4	 mov	 edx, DWORD PTR _group$[ebp]
  0043c	52		 push	 edx
  0043d	69 45 8c 5c 04
	00 00		 imul	 eax, DWORD PTR tv247[ebp], 1116
  00444	8b 4d 88	 mov	 ecx, DWORD PTR tv254[ebp]
  00447	8b 94 88 00 00
	00 00		 mov	 edx, DWORD PTR ?fn_get_local_entity_int_value@@3PAY0BBH@P6GHPAUENTITY@@W4INT_TYPES@@@ZA[eax+ecx*4]
  0044e	ff d2		 call	 edx
  00450	85 c0		 test	 eax, eax
  00452	0f 85 00 02 00
	00		 jne	 $LN5@process_me

; 2161 : 					{
; 2162 : 						group_pos = get_local_entity_vec3d_ptr (group, VEC3D_TYPE_POSITION);

  00458	83 7d f4 00	 cmp	 DWORD PTR _group$[ebp], 0
  0045c	74 0a		 je	 SHORT $LN50@process_me
  0045e	8b 45 f4	 mov	 eax, DWORD PTR _group$[ebp]
  00461	8b 08		 mov	 ecx, DWORD PTR [eax]
  00463	89 4d 8c	 mov	 DWORD PTR tv267[ebp], ecx
  00466	eb 21		 jmp	 SHORT $LN51@process_me
$LN50@process_me:
  00468	8b 15 00 00 00
	00		 mov	 edx, DWORD PTR ?__LINE__Var@?0??process_message_request_artillery@@YGXPAUENTITY@@@Z@4JA
  0046e	83 c2 38	 add	 edx, 56			; 00000038H
  00471	52		 push	 edx
  00472	68 00 00 00 00	 push	 OFFSET ??_C@_0DK@BLKECLAG@c?3?2users?2nhv90?2projects?2eech?2ap@
  00477	a1 00 00 00 00	 mov	 eax, DWORD PTR ?null_entity_pointer_message@@3PBDB ; null_entity_pointer_message
  0047c	50		 push	 eax
  0047d	e8 00 00 00 00	 call	 ?process_assert@@YGXPBD0H@Z ; process_assert
  00482	c7 45 8c 00 00
	00 00		 mov	 DWORD PTR tv267[ebp], 0
$LN51@process_me:
  00489	b9 01 00 00 00	 mov	 ecx, 1
  0048e	85 c9		 test	 ecx, ecx
  00490	74 09		 je	 SHORT $LN52@process_me
  00492	c7 45 88 08 00
	00 00		 mov	 DWORD PTR tv275[ebp], 8
  00499	eb 21		 jmp	 SHORT $LN53@process_me
$LN52@process_me:
  0049b	8b 15 00 00 00
	00		 mov	 edx, DWORD PTR ?__LINE__Var@?0??process_message_request_artillery@@YGXPAUENTITY@@@Z@4JA
  004a1	83 c2 38	 add	 edx, 56			; 00000038H
  004a4	52		 push	 edx
  004a5	68 00 00 00 00	 push	 OFFSET ??_C@_0DK@BLKECLAG@c?3?2users?2nhv90?2projects?2eech?2ap@
  004aa	a1 00 00 00 00	 mov	 eax, DWORD PTR ?overload_invalid_vec3d_type_message@@3PBDB ; overload_invalid_vec3d_type_message
  004af	50		 push	 eax
  004b0	e8 00 00 00 00	 call	 ?process_assert@@YGXPBD0H@Z ; process_assert
  004b5	c7 45 88 00 00
	00 00		 mov	 DWORD PTR tv275[ebp], 0
$LN53@process_me:
  004bc	6a 08		 push	 8
  004be	8b 4d f4	 mov	 ecx, DWORD PTR _group$[ebp]
  004c1	51		 push	 ecx
  004c2	6b 55 8c 60	 imul	 edx, DWORD PTR tv267[ebp], 96
  004c6	8b 45 88	 mov	 eax, DWORD PTR tv275[ebp]
  004c9	8b 8c 82 00 00
	00 00		 mov	 ecx, DWORD PTR ?fn_get_local_entity_vec3d_ptr@@3PAY0BI@P6GPAUVEC3D@@PAUENTITY@@W4VEC3D_TYPES@@@ZA[edx+eax*4]
  004d0	ff d1		 call	 ecx
  004d2	89 45 e0	 mov	 DWORD PTR _group_pos$[ebp], eax

; 2163 : 
; 2164 : 						range = get_2d_range (target_pos, group_pos);

  004d5	8b 45 e0	 mov	 eax, DWORD PTR _group_pos$[ebp]
  004d8	50		 push	 eax
  004d9	8b 4d dc	 mov	 ecx, DWORD PTR _target_pos$[ebp]
  004dc	51		 push	 ecx
  004dd	e8 00 00 00 00	 call	 ?get_2d_range@@YGMPBUVEC3D@@0@Z ; get_2d_range
  004e2	d9 5d d8	 fstp	 DWORD PTR _range$[ebp]

; 2165 : 
; 2166 : 						debug_log ("MSG_IN: Artillery Range = %f", range);

  004e5	f3 0f 5a 45 d8	 cvtss2sd xmm0, DWORD PTR _range$[ebp]
  004ea	83 ec 08	 sub	 esp, 8
  004ed	f2 0f 11 04 24	 movsd	 QWORD PTR [esp], xmm0
  004f2	68 00 00 00 00	 push	 OFFSET ??_C@_0BN@FCPEDCKB@MSG_IN?3?5Artillery?5Range?5?$DN?5?$CFf@
  004f7	e8 00 00 00 00	 call	 ?debug_log@@YAXPBDZZ	; debug_log
  004fc	83 c4 0c	 add	 esp, 12			; 0000000cH

; 2167 : 
; 2168 : 						if (range < best_range)

  004ff	f3 0f 10 45 d4	 movss	 xmm0, DWORD PTR _best_range$[ebp]
  00504	0f 2f 45 d8	 comiss	 xmm0, DWORD PTR _range$[ebp]
  00508	0f 86 4a 01 00
	00		 jbe	 $LN5@process_me

; 2169 : 						{
; 2170 : 							//
; 2171 : 							// Check range is within groups weapon range
; 2172 : 							//
; 2173 : 
; 2174 : 							member = get_local_entity_first_child (group, LIST_TYPE_MEMBER);

  0050e	83 7d f4 00	 cmp	 DWORD PTR _group$[ebp], 0
  00512	74 0a		 je	 SHORT $LN54@process_me
  00514	8b 45 f4	 mov	 eax, DWORD PTR _group$[ebp]
  00517	8b 08		 mov	 ecx, DWORD PTR [eax]
  00519	89 4d 8c	 mov	 DWORD PTR tv294[ebp], ecx
  0051c	eb 21		 jmp	 SHORT $LN55@process_me
$LN54@process_me:
  0051e	8b 15 00 00 00
	00		 mov	 edx, DWORD PTR ?__LINE__Var@?0??process_message_request_artillery@@YGXPAUENTITY@@@Z@4JA
  00524	83 c2 44	 add	 edx, 68			; 00000044H
  00527	52		 push	 edx
  00528	68 00 00 00 00	 push	 OFFSET ??_C@_0DK@BLKECLAG@c?3?2users?2nhv90?2projects?2eech?2ap@
  0052d	a1 00 00 00 00	 mov	 eax, DWORD PTR ?null_entity_pointer_message@@3PBDB ; null_entity_pointer_message
  00532	50		 push	 eax
  00533	e8 00 00 00 00	 call	 ?process_assert@@YGXPBD0H@Z ; process_assert
  00538	c7 45 8c 00 00
	00 00		 mov	 DWORD PTR tv294[ebp], 0
$LN55@process_me:
  0053f	b9 01 00 00 00	 mov	 ecx, 1
  00544	85 c9		 test	 ecx, ecx
  00546	74 09		 je	 SHORT $LN56@process_me
  00548	c7 45 88 19 00
	00 00		 mov	 DWORD PTR tv302[ebp], 25 ; 00000019H
  0054f	eb 21		 jmp	 SHORT $LN57@process_me
$LN56@process_me:
  00551	8b 15 00 00 00
	00		 mov	 edx, DWORD PTR ?__LINE__Var@?0??process_message_request_artillery@@YGXPAUENTITY@@@Z@4JA
  00557	83 c2 44	 add	 edx, 68			; 00000044H
  0055a	52		 push	 edx
  0055b	68 00 00 00 00	 push	 OFFSET ??_C@_0DK@BLKECLAG@c?3?2users?2nhv90?2projects?2eech?2ap@
  00560	a1 00 00 00 00	 mov	 eax, DWORD PTR ?overload_invalid_list_type_message@@3PBDB ; overload_invalid_list_type_message
  00565	50		 push	 eax
  00566	e8 00 00 00 00	 call	 ?process_assert@@YGXPBD0H@Z ; process_assert
  0056b	c7 45 88 00 00
	00 00		 mov	 DWORD PTR tv302[ebp], 0
$LN57@process_me:
  00572	6a 19		 push	 25			; 00000019H
  00574	8b 4d f4	 mov	 ecx, DWORD PTR _group$[ebp]
  00577	51		 push	 ecx
  00578	69 55 8c b4 00
	00 00		 imul	 edx, DWORD PTR tv294[ebp], 180
  0057f	8b 45 88	 mov	 eax, DWORD PTR tv302[ebp]
  00582	8b 8c 82 00 00
	00 00		 mov	 ecx, DWORD PTR ?fn_get_local_entity_first_child@@3PAY0CN@P6GPAUENTITY@@PAU1@W4LIST_TYPES@@@ZA[edx+eax*4]
  00589	ff d1		 call	 ecx
  0058b	89 45 f0	 mov	 DWORD PTR _member$[ebp], eax
$LN4@process_me:

; 2175 : 
; 2176 : 							while (member)

  0058e	83 7d f0 00	 cmp	 DWORD PTR _member$[ebp], 0
  00592	0f 84 c0 00 00
	00		 je	 $LN5@process_me

; 2177 : 							{
; 2178 : 								weapon_range = get_local_entity_max_weapon_range (member);

  00598	8b 45 f0	 mov	 eax, DWORD PTR _member$[ebp]
  0059b	50		 push	 eax
  0059c	e8 00 00 00 00	 call	 ?get_local_entity_max_weapon_range@@YGMPAUENTITY@@@Z ; get_local_entity_max_weapon_range
  005a1	d9 5d d0	 fstp	 DWORD PTR _weapon_range$[ebp]

; 2179 : 
; 2180 : 								if (weapon_range > 0.0)

  005a4	f3 0f 5a 45 d0	 cvtss2sd xmm0, DWORD PTR _weapon_range$[ebp]
  005a9	66 0f 2f 05 00
	00 00 00	 comisd	 xmm0, QWORD PTR __real@0000000000000000
  005b1	76 20		 jbe	 SHORT $LN13@process_me

; 2181 : 								{
; 2182 : 									if (weapon_range > range)

  005b3	f3 0f 10 45 d0	 movss	 xmm0, DWORD PTR _weapon_range$[ebp]
  005b8	0f 2f 45 d8	 comiss	 xmm0, DWORD PTR _range$[ebp]
  005bc	76 10		 jbe	 SHORT $LN14@process_me

; 2183 : 									{
; 2184 : 										best_range = range;

  005be	f3 0f 10 45 d8	 movss	 xmm0, DWORD PTR _range$[ebp]
  005c3	f3 0f 11 45 d4	 movss	 DWORD PTR _best_range$[ebp], xmm0

; 2185 : 
; 2186 : 										best_group = group;

  005c8	8b 45 f4	 mov	 eax, DWORD PTR _group$[ebp]
  005cb	89 45 ec	 mov	 DWORD PTR _best_group$[ebp], eax
$LN14@process_me:

; 2187 : 									}
; 2188 : 
; 2189 : 									break;

  005ce	e9 85 00 00 00	 jmp	 $LN5@process_me
$LN13@process_me:

; 2190 : 								}
; 2191 : 
; 2192 : 								member = get_local_entity_child_succ (member, LIST_TYPE_MEMBER);

  005d3	83 7d f0 00	 cmp	 DWORD PTR _member$[ebp], 0
  005d7	74 0a		 je	 SHORT $LN58@process_me
  005d9	8b 45 f0	 mov	 eax, DWORD PTR _member$[ebp]
  005dc	8b 08		 mov	 ecx, DWORD PTR [eax]
  005de	89 4d 8c	 mov	 DWORD PTR tv320[ebp], ecx
  005e1	eb 21		 jmp	 SHORT $LN59@process_me
$LN58@process_me:
  005e3	8b 15 00 00 00
	00		 mov	 edx, DWORD PTR ?__LINE__Var@?0??process_message_request_artillery@@YGXPAUENTITY@@@Z@4JA
  005e9	83 c2 56	 add	 edx, 86			; 00000056H
  005ec	52		 push	 edx
  005ed	68 00 00 00 00	 push	 OFFSET ??_C@_0DK@BLKECLAG@c?3?2users?2nhv90?2projects?2eech?2ap@
  005f2	a1 00 00 00 00	 mov	 eax, DWORD PTR ?null_entity_pointer_message@@3PBDB ; null_entity_pointer_message
  005f7	50		 push	 eax
  005f8	e8 00 00 00 00	 call	 ?process_assert@@YGXPBD0H@Z ; process_assert
  005fd	c7 45 8c 00 00
	00 00		 mov	 DWORD PTR tv320[ebp], 0
$LN59@process_me:
  00604	b9 01 00 00 00	 mov	 ecx, 1
  00609	85 c9		 test	 ecx, ecx
  0060b	74 09		 je	 SHORT $LN60@process_me
  0060d	c7 45 88 19 00
	00 00		 mov	 DWORD PTR tv328[ebp], 25 ; 00000019H
  00614	eb 21		 jmp	 SHORT $LN61@process_me
$LN60@process_me:
  00616	8b 15 00 00 00
	00		 mov	 edx, DWORD PTR ?__LINE__Var@?0??process_message_request_artillery@@YGXPAUENTITY@@@Z@4JA
  0061c	83 c2 56	 add	 edx, 86			; 00000056H
  0061f	52		 push	 edx
  00620	68 00 00 00 00	 push	 OFFSET ??_C@_0DK@BLKECLAG@c?3?2users?2nhv90?2projects?2eech?2ap@
  00625	a1 00 00 00 00	 mov	 eax, DWORD PTR ?overload_invalid_list_type_message@@3PBDB ; overload_invalid_list_type_message
  0062a	50		 push	 eax
  0062b	e8 00 00 00 00	 call	 ?process_assert@@YGXPBD0H@Z ; process_assert
  00630	c7 45 88 00 00
	00 00		 mov	 DWORD PTR tv328[ebp], 0
$LN61@process_me:
  00637	6a 19		 push	 25			; 00000019H
  00639	8b 4d f0	 mov	 ecx, DWORD PTR _member$[ebp]
  0063c	51		 push	 ecx
  0063d	69 55 8c b4 00
	00 00		 imul	 edx, DWORD PTR tv320[ebp], 180
  00644	8b 45 88	 mov	 eax, DWORD PTR tv328[ebp]
  00647	8b 8c 82 00 00
	00 00		 mov	 ecx, DWORD PTR ?fn_get_local_entity_child_succ@@3PAY0CN@P6GPAUENTITY@@PAU1@W4LIST_TYPES@@@ZA[edx+eax*4]
  0064e	ff d1		 call	 ecx
  00650	89 45 f0	 mov	 DWORD PTR _member$[ebp], eax

; 2193 : 							}

  00653	e9 36 ff ff ff	 jmp	 $LN4@process_me
$LN5@process_me:

; 2194 : 						}
; 2195 : 					}
; 2196 : 				}
; 2197 : 
; 2198 : 				group = get_local_entity_child_succ (group, LIST_TYPE_GROUND_REGISTRY);

  00658	83 7d f4 00	 cmp	 DWORD PTR _group$[ebp], 0
  0065c	74 0a		 je	 SHORT $LN62@process_me
  0065e	8b 45 f4	 mov	 eax, DWORD PTR _group$[ebp]
  00661	8b 08		 mov	 ecx, DWORD PTR [eax]
  00663	89 4d 8c	 mov	 DWORD PTR tv340[ebp], ecx
  00666	eb 21		 jmp	 SHORT $LN63@process_me
$LN62@process_me:
  00668	8b 15 00 00 00
	00		 mov	 edx, DWORD PTR ?__LINE__Var@?0??process_message_request_artillery@@YGXPAUENTITY@@@Z@4JA
  0066e	83 c2 5c	 add	 edx, 92			; 0000005cH
  00671	52		 push	 edx
  00672	68 00 00 00 00	 push	 OFFSET ??_C@_0DK@BLKECLAG@c?3?2users?2nhv90?2projects?2eech?2ap@
  00677	a1 00 00 00 00	 mov	 eax, DWORD PTR ?null_entity_pointer_message@@3PBDB ; null_entity_pointer_message
  0067c	50		 push	 eax
  0067d	e8 00 00 00 00	 call	 ?process_assert@@YGXPBD0H@Z ; process_assert
  00682	c7 45 8c 00 00
	00 00		 mov	 DWORD PTR tv340[ebp], 0
$LN63@process_me:
  00689	b9 01 00 00 00	 mov	 ecx, 1
  0068e	85 c9		 test	 ecx, ecx
  00690	74 09		 je	 SHORT $LN64@process_me
  00692	c7 45 88 0f 00
	00 00		 mov	 DWORD PTR tv348[ebp], 15 ; 0000000fH
  00699	eb 21		 jmp	 SHORT $LN65@process_me
$LN64@process_me:
  0069b	8b 15 00 00 00
	00		 mov	 edx, DWORD PTR ?__LINE__Var@?0??process_message_request_artillery@@YGXPAUENTITY@@@Z@4JA
  006a1	83 c2 5c	 add	 edx, 92			; 0000005cH
  006a4	52		 push	 edx
  006a5	68 00 00 00 00	 push	 OFFSET ??_C@_0DK@BLKECLAG@c?3?2users?2nhv90?2projects?2eech?2ap@
  006aa	a1 00 00 00 00	 mov	 eax, DWORD PTR ?overload_invalid_list_type_message@@3PBDB ; overload_invalid_list_type_message
  006af	50		 push	 eax
  006b0	e8 00 00 00 00	 call	 ?process_assert@@YGXPBD0H@Z ; process_assert
  006b5	c7 45 88 00 00
	00 00		 mov	 DWORD PTR tv348[ebp], 0
$LN65@process_me:
  006bc	6a 0f		 push	 15			; 0000000fH
  006be	8b 4d f4	 mov	 ecx, DWORD PTR _group$[ebp]
  006c1	51		 push	 ecx
  006c2	69 55 8c b4 00
	00 00		 imul	 edx, DWORD PTR tv340[ebp], 180
  006c9	8b 45 88	 mov	 eax, DWORD PTR tv348[ebp]
  006cc	8b 8c 82 00 00
	00 00		 mov	 ecx, DWORD PTR ?fn_get_local_entity_child_succ@@3PAY0CN@P6GPAUENTITY@@PAU1@W4LIST_TYPES@@@ZA[edx+eax*4]
  006d3	ff d1		 call	 ecx
  006d5	89 45 f4	 mov	 DWORD PTR _group$[ebp], eax

; 2199 : 			}

  006d8	e9 fc fb ff ff	 jmp	 $LN2@process_me
$LN3@process_me:

; 2200 : 
; 2201 : 			//
; 2202 : 			// found group ?
; 2203 : 			//
; 2204 : 
; 2205 : 			if (best_group)

  006dd	83 7d ec 00	 cmp	 DWORD PTR _best_group$[ebp], 0
  006e1	0f 84 7e 02 00
	00		 je	 $LN15@process_me

; 2206 : 			{
; 2207 : 				group = best_group;

  006e7	8b 45 ec	 mov	 eax, DWORD PTR _best_group$[ebp]
  006ea	89 45 f4	 mov	 DWORD PTR _group$[ebp], eax

; 2208 : 
; 2209 : 				if (engage_targets_in_area (group, target_pos, ARTILLERY_ATTACK_RADIUS, get_local_entity_int_value (target, INT_TYPE_TASK_TARGET_TYPE), TRUE))

  006ed	83 7d fc 00	 cmp	 DWORD PTR _target$[ebp], 0
  006f1	74 0a		 je	 SHORT $LN66@process_me
  006f3	8b 45 fc	 mov	 eax, DWORD PTR _target$[ebp]
  006f6	8b 08		 mov	 ecx, DWORD PTR [eax]
  006f8	89 4d 8c	 mov	 DWORD PTR tv362[ebp], ecx
  006fb	eb 1d		 jmp	 SHORT $LN67@process_me
$LN66@process_me:
  006fd	68 a1 08 00 00	 push	 2209			; 000008a1H
  00702	68 00 00 00 00	 push	 OFFSET ??_C@_0DK@BLKECLAG@c?3?2users?2nhv90?2projects?2eech?2ap@
  00707	8b 15 00 00 00
	00		 mov	 edx, DWORD PTR ?null_entity_pointer_message@@3PBDB ; null_entity_pointer_message
  0070d	52		 push	 edx
  0070e	e8 00 00 00 00	 call	 ?process_assert@@YGXPBD0H@Z ; process_assert
  00713	c7 45 8c 00 00
	00 00		 mov	 DWORD PTR tv362[ebp], 0
$LN67@process_me:
  0071a	b8 01 00 00 00	 mov	 eax, 1
  0071f	85 c0		 test	 eax, eax
  00721	74 09		 je	 SHORT $LN68@process_me
  00723	c7 45 88 e6 00
	00 00		 mov	 DWORD PTR tv369[ebp], 230 ; 000000e6H
  0072a	eb 1d		 jmp	 SHORT $LN69@process_me
$LN68@process_me:
  0072c	68 a1 08 00 00	 push	 2209			; 000008a1H
  00731	68 00 00 00 00	 push	 OFFSET ??_C@_0DK@BLKECLAG@c?3?2users?2nhv90?2projects?2eech?2ap@
  00736	8b 0d 00 00 00
	00		 mov	 ecx, DWORD PTR ?overload_invalid_int_type_message@@3PBDB ; overload_invalid_int_type_message
  0073c	51		 push	 ecx
  0073d	e8 00 00 00 00	 call	 ?process_assert@@YGXPBD0H@Z ; process_assert
  00742	c7 45 88 00 00
	00 00		 mov	 DWORD PTR tv369[ebp], 0
$LN69@process_me:
  00749	6a 01		 push	 1
  0074b	68 e6 00 00 00	 push	 230			; 000000e6H
  00750	8b 55 fc	 mov	 edx, DWORD PTR _target$[ebp]
  00753	52		 push	 edx
  00754	69 45 8c 5c 04
	00 00		 imul	 eax, DWORD PTR tv362[ebp], 1116
  0075b	8b 4d 88	 mov	 ecx, DWORD PTR tv369[ebp]
  0075e	8b 94 88 00 00
	00 00		 mov	 edx, DWORD PTR ?fn_get_local_entity_int_value@@3PAY0BBH@P6GHPAUENTITY@@W4INT_TYPES@@@ZA[eax+ecx*4]
  00765	ff d2		 call	 edx
  00767	50		 push	 eax
  00768	51		 push	 ecx
  00769	f3 0f 10 05 00
	00 00 00	 movss	 xmm0, DWORD PTR __real@447a0000
  00771	f3 0f 11 04 24	 movss	 DWORD PTR [esp], xmm0
  00776	8b 45 dc	 mov	 eax, DWORD PTR _target_pos$[ebp]
  00779	50		 push	 eax
  0077a	8b 4d f4	 mov	 ecx, DWORD PTR _group$[ebp]
  0077d	51		 push	 ecx
  0077e	e8 00 00 00 00	 call	 ?engage_targets_in_area@@YGHPAUENTITY@@PAUVEC3D@@MIH@Z ; engage_targets_in_area
  00783	85 c0		 test	 eax, eax
  00785	0f 84 f7 00 00
	00		 je	 $LN16@process_me

; 2210 : 				{
; 2211 : 					debug_log ("MSG_IN: Created Artillery Strike - range %f", best_range);

  0078b	f3 0f 5a 45 d4	 cvtss2sd xmm0, DWORD PTR _best_range$[ebp]
  00790	83 ec 08	 sub	 esp, 8
  00793	f2 0f 11 04 24	 movsd	 QWORD PTR [esp], xmm0
  00798	68 00 00 00 00	 push	 OFFSET ??_C@_0CM@GOJEJNDA@MSG_IN?3?5Created?5Artillery?5Strik@
  0079d	e8 00 00 00 00	 call	 ?debug_log@@YAXPBDZZ	; debug_log
  007a2	83 c4 0c	 add	 esp, 12			; 0000000cH

; 2212 : 
; 2213 : 					//
; 2214 : 					// Affirmative response speech...
; 2215 : 					//
; 2216 : 
; 2217 : 					play_client_server_speech

  007a5	83 7d 08 00	 cmp	 DWORD PTR _en$[ebp], 0
  007a9	74 0a		 je	 SHORT $LN70@process_me
  007ab	8b 45 08	 mov	 eax, DWORD PTR _en$[ebp]
  007ae	8b 08		 mov	 ecx, DWORD PTR [eax]
  007b0	89 4d 8c	 mov	 DWORD PTR tv403[ebp], ecx
  007b3	eb 21		 jmp	 SHORT $LN71@process_me
$LN70@process_me:
  007b5	8b 15 00 00 00
	00		 mov	 edx, DWORD PTR ?__LINE__Var@?0??process_message_request_artillery@@YGXPAUENTITY@@@Z@4JA
  007bb	83 c2 73	 add	 edx, 115		; 00000073H
  007be	52		 push	 edx
  007bf	68 00 00 00 00	 push	 OFFSET ??_C@_0DK@BLKECLAG@c?3?2users?2nhv90?2projects?2eech?2ap@
  007c4	a1 00 00 00 00	 mov	 eax, DWORD PTR ?null_entity_pointer_message@@3PBDB ; null_entity_pointer_message
  007c9	50		 push	 eax
  007ca	e8 00 00 00 00	 call	 ?process_assert@@YGXPBD0H@Z ; process_assert
  007cf	c7 45 8c 00 00
	00 00		 mov	 DWORD PTR tv403[ebp], 0
$LN71@process_me:
  007d6	b9 01 00 00 00	 mov	 ecx, 1
  007db	85 c9		 test	 ecx, ecx
  007dd	74 09		 je	 SHORT $LN72@process_me
  007df	c7 45 88 bb 00
	00 00		 mov	 DWORD PTR tv411[ebp], 187 ; 000000bbH
  007e6	eb 21		 jmp	 SHORT $LN73@process_me
$LN72@process_me:
  007e8	8b 15 00 00 00
	00		 mov	 edx, DWORD PTR ?__LINE__Var@?0??process_message_request_artillery@@YGXPAUENTITY@@@Z@4JA
  007ee	83 c2 73	 add	 edx, 115		; 00000073H
  007f1	52		 push	 edx
  007f2	68 00 00 00 00	 push	 OFFSET ??_C@_0DK@BLKECLAG@c?3?2users?2nhv90?2projects?2eech?2ap@
  007f7	a1 00 00 00 00	 mov	 eax, DWORD PTR ?overload_invalid_int_type_message@@3PBDB ; overload_invalid_int_type_message
  007fc	50		 push	 eax
  007fd	e8 00 00 00 00	 call	 ?process_assert@@YGXPBD0H@Z ; process_assert
  00802	c7 45 88 00 00
	00 00		 mov	 DWORD PTR tv411[ebp], 0
$LN73@process_me:
  00809	6a ff		 push	 -1
  0080b	6a 09		 push	 9
  0080d	6a 05		 push	 5
  0080f	6a 00		 push	 0
  00811	6a 05		 push	 5
  00813	51		 push	 ecx
  00814	f3 0f 10 05 00
	00 00 00	 movss	 xmm0, DWORD PTR __real@bf800000
  0081c	f3 0f 11 04 24	 movss	 DWORD PTR [esp], xmm0
  00821	6a 0c		 push	 12			; 0000000cH
  00823	6a 06		 push	 6
  00825	51		 push	 ecx
  00826	f3 0f 10 05 00
	00 00 00	 movss	 xmm0, DWORD PTR __real@41a00000
  0082e	f3 0f 11 04 24	 movss	 DWORD PTR [esp], xmm0
  00833	51		 push	 ecx
  00834	f3 0f 10 05 00
	00 00 00	 movss	 xmm0, DWORD PTR __real@3f800000
  0083c	f3 0f 11 04 24	 movss	 DWORD PTR [esp], xmm0
  00841	51		 push	 ecx
  00842	0f 57 c0	 xorps	 xmm0, xmm0
  00845	f3 0f 11 04 24	 movss	 DWORD PTR [esp], xmm0
  0084a	6a 00		 push	 0
  0084c	6a 1e		 push	 30			; 0000001eH
  0084e	68 bb 00 00 00	 push	 187			; 000000bbH
  00853	8b 4d 08	 mov	 ecx, DWORD PTR _en$[ebp]
  00856	51		 push	 ecx
  00857	69 55 8c 5c 04
	00 00		 imul	 edx, DWORD PTR tv403[ebp], 1116
  0085e	8b 45 88	 mov	 eax, DWORD PTR tv411[ebp]
  00861	8b 8c 82 00 00
	00 00		 mov	 ecx, DWORD PTR ?fn_get_local_entity_int_value@@3PAY0BBH@P6GHPAUENTITY@@W4INT_TYPES@@@ZA[edx+eax*4]
  00868	ff d1		 call	 ecx
  0086a	50		 push	 eax
  0086b	8b 55 08	 mov	 edx, DWORD PTR _en$[ebp]
  0086e	52		 push	 edx
  0086f	a1 00 00 00 00	 mov	 eax, DWORD PTR ?session_entity@@3PAUENTITY@@A ; session_entity
  00874	50		 push	 eax
  00875	e8 00 00 00 00	 call	 ?play_client_server_speech@@YAHPAUENTITY@@0W4ENTITY_SIDES@@HW4SOUND_LOCALITY_TYPES@@MMMW4speech_originator_types@@W4speech_category_types@@MZZ ; play_client_server_speech
  0087a	83 c4 40	 add	 esp, 64			; 00000040H

; 2218 : 					(
; 2219 : 						get_session_entity (),
; 2220 : 						en,
; 2221 : 						(entity_sides) get_local_entity_int_value (en, INT_TYPE_SIDE),
; 2222 : 						ENTITY_SUB_TYPE_EFFECT_SOUND_RADIO_MESSAGE,
; 2223 : 						SOUND_LOCALITY_RADIO,
; 2224 : 						0.0,
; 2225 : 						1.0,
; 2226 : 						20.0,
; 2227 : 						SPEECH_ORIGINATOR_GROUND_CONTROLLER,
; 2228 : 						SPEECH_CATEGORY_RADIO_RESPONSE,
; 2229 : 						-1.0,
; 2230 : 						SPEECH_ARRAY_GC_MESSAGES, SPEECH_GC_INTRODUCTION,
; 2231 : 						SPEECH_ARRAY_GC_MESSAGES, SPEECH_GC_FIRE_MISSION_RECEIVED,
; 2232 : 						-1
; 2233 : 					);
; 2234 : 
; 2235 : 					return;

  0087d	e9 c1 01 00 00	 jmp	 $LN1@process_me
$LN16@process_me:

; 2236 : 				}
; 2237 : 
; 2238 : 				//
; 2239 : 				// Negative response speech... (group available but can't engage)
; 2240 : 				//
; 2241 : 
; 2242 : 				play_client_server_speech

  00882	83 7d 08 00	 cmp	 DWORD PTR _en$[ebp], 0
  00886	74 0a		 je	 SHORT $LN74@process_me
  00888	8b 45 08	 mov	 eax, DWORD PTR _en$[ebp]
  0088b	8b 08		 mov	 ecx, DWORD PTR [eax]
  0088d	89 4d 8c	 mov	 DWORD PTR tv439[ebp], ecx
  00890	eb 24		 jmp	 SHORT $LN75@process_me
$LN74@process_me:
  00892	8b 15 00 00 00
	00		 mov	 edx, DWORD PTR ?__LINE__Var@?0??process_message_request_artillery@@YGXPAUENTITY@@@Z@4JA
  00898	81 c2 8c 00 00
	00		 add	 edx, 140		; 0000008cH
  0089e	52		 push	 edx
  0089f	68 00 00 00 00	 push	 OFFSET ??_C@_0DK@BLKECLAG@c?3?2users?2nhv90?2projects?2eech?2ap@
  008a4	a1 00 00 00 00	 mov	 eax, DWORD PTR ?null_entity_pointer_message@@3PBDB ; null_entity_pointer_message
  008a9	50		 push	 eax
  008aa	e8 00 00 00 00	 call	 ?process_assert@@YGXPBD0H@Z ; process_assert
  008af	c7 45 8c 00 00
	00 00		 mov	 DWORD PTR tv439[ebp], 0
$LN75@process_me:
  008b6	b9 01 00 00 00	 mov	 ecx, 1
  008bb	85 c9		 test	 ecx, ecx
  008bd	74 09		 je	 SHORT $LN76@process_me
  008bf	c7 45 88 bb 00
	00 00		 mov	 DWORD PTR tv447[ebp], 187 ; 000000bbH
  008c6	eb 24		 jmp	 SHORT $LN77@process_me
$LN76@process_me:
  008c8	8b 15 00 00 00
	00		 mov	 edx, DWORD PTR ?__LINE__Var@?0??process_message_request_artillery@@YGXPAUENTITY@@@Z@4JA
  008ce	81 c2 8c 00 00
	00		 add	 edx, 140		; 0000008cH
  008d4	52		 push	 edx
  008d5	68 00 00 00 00	 push	 OFFSET ??_C@_0DK@BLKECLAG@c?3?2users?2nhv90?2projects?2eech?2ap@
  008da	a1 00 00 00 00	 mov	 eax, DWORD PTR ?overload_invalid_int_type_message@@3PBDB ; overload_invalid_int_type_message
  008df	50		 push	 eax
  008e0	e8 00 00 00 00	 call	 ?process_assert@@YGXPBD0H@Z ; process_assert
  008e5	c7 45 88 00 00
	00 00		 mov	 DWORD PTR tv447[ebp], 0
$LN77@process_me:
  008ec	6a ff		 push	 -1
  008ee	6a 0a		 push	 10			; 0000000aH
  008f0	6a 05		 push	 5
  008f2	6a 00		 push	 0
  008f4	6a 05		 push	 5
  008f6	51		 push	 ecx
  008f7	f3 0f 10 05 00
	00 00 00	 movss	 xmm0, DWORD PTR __real@bf800000
  008ff	f3 0f 11 04 24	 movss	 DWORD PTR [esp], xmm0
  00904	6a 0c		 push	 12			; 0000000cH
  00906	6a 06		 push	 6
  00908	51		 push	 ecx
  00909	f3 0f 10 05 00
	00 00 00	 movss	 xmm0, DWORD PTR __real@41a00000
  00911	f3 0f 11 04 24	 movss	 DWORD PTR [esp], xmm0
  00916	51		 push	 ecx
  00917	f3 0f 10 05 00
	00 00 00	 movss	 xmm0, DWORD PTR __real@3f800000
  0091f	f3 0f 11 04 24	 movss	 DWORD PTR [esp], xmm0
  00924	51		 push	 ecx
  00925	0f 57 c0	 xorps	 xmm0, xmm0
  00928	f3 0f 11 04 24	 movss	 DWORD PTR [esp], xmm0
  0092d	6a 00		 push	 0
  0092f	6a 1e		 push	 30			; 0000001eH
  00931	68 bb 00 00 00	 push	 187			; 000000bbH
  00936	8b 4d 08	 mov	 ecx, DWORD PTR _en$[ebp]
  00939	51		 push	 ecx
  0093a	69 55 8c 5c 04
	00 00		 imul	 edx, DWORD PTR tv439[ebp], 1116
  00941	8b 45 88	 mov	 eax, DWORD PTR tv447[ebp]
  00944	8b 8c 82 00 00
	00 00		 mov	 ecx, DWORD PTR ?fn_get_local_entity_int_value@@3PAY0BBH@P6GHPAUENTITY@@W4INT_TYPES@@@ZA[edx+eax*4]
  0094b	ff d1		 call	 ecx
  0094d	50		 push	 eax
  0094e	8b 55 08	 mov	 edx, DWORD PTR _en$[ebp]
  00951	52		 push	 edx
  00952	a1 00 00 00 00	 mov	 eax, DWORD PTR ?session_entity@@3PAUENTITY@@A ; session_entity
  00957	50		 push	 eax
  00958	e8 00 00 00 00	 call	 ?play_client_server_speech@@YAHPAUENTITY@@0W4ENTITY_SIDES@@HW4SOUND_LOCALITY_TYPES@@MMMW4speech_originator_types@@W4speech_category_types@@MZZ ; play_client_server_speech
  0095d	83 c4 40	 add	 esp, 64			; 00000040H

; 2243 : 				(
; 2244 : 					get_session_entity (),
; 2245 : 					en,
; 2246 : 					(entity_sides) get_local_entity_int_value (en, INT_TYPE_SIDE),
; 2247 : 					ENTITY_SUB_TYPE_EFFECT_SOUND_RADIO_MESSAGE,
; 2248 : 					SOUND_LOCALITY_RADIO,
; 2249 : 					0.0,
; 2250 : 					1.0,
; 2251 : 					20.0,
; 2252 : 					SPEECH_ORIGINATOR_GROUND_CONTROLLER,
; 2253 : 					SPEECH_CATEGORY_RADIO_RESPONSE,
; 2254 : 					-1.0,
; 2255 : 					SPEECH_ARRAY_GC_MESSAGES, SPEECH_GC_INTRODUCTION,
; 2256 : 					SPEECH_ARRAY_GC_MESSAGES, SPEECH_GC_ARTILLERY_SHIFTING_POSITION,
; 2257 : 					-1
; 2258 : 				);
; 2259 : 
; 2260 : 				return;

  00960	e9 de 00 00 00	 jmp	 $LN1@process_me
$LN15@process_me:

; 2261 : 			}
; 2262 : 
; 2263 : 			//
; 2264 : 			// Negative response speech... (no group available)
; 2265 : 			//
; 2266 : 
; 2267 : 			play_client_server_speech

  00965	83 7d 08 00	 cmp	 DWORD PTR _en$[ebp], 0
  00969	74 0a		 je	 SHORT $LN78@process_me
  0096b	8b 45 08	 mov	 eax, DWORD PTR _en$[ebp]
  0096e	8b 08		 mov	 ecx, DWORD PTR [eax]
  00970	89 4d 8c	 mov	 DWORD PTR tv475[ebp], ecx
  00973	eb 24		 jmp	 SHORT $LN79@process_me
$LN78@process_me:
  00975	8b 15 00 00 00
	00		 mov	 edx, DWORD PTR ?__LINE__Var@?0??process_message_request_artillery@@YGXPAUENTITY@@@Z@4JA
  0097b	81 c2 a5 00 00
	00		 add	 edx, 165		; 000000a5H
  00981	52		 push	 edx
  00982	68 00 00 00 00	 push	 OFFSET ??_C@_0DK@BLKECLAG@c?3?2users?2nhv90?2projects?2eech?2ap@
  00987	a1 00 00 00 00	 mov	 eax, DWORD PTR ?null_entity_pointer_message@@3PBDB ; null_entity_pointer_message
  0098c	50		 push	 eax
  0098d	e8 00 00 00 00	 call	 ?process_assert@@YGXPBD0H@Z ; process_assert
  00992	c7 45 8c 00 00
	00 00		 mov	 DWORD PTR tv475[ebp], 0
$LN79@process_me:
  00999	b9 01 00 00 00	 mov	 ecx, 1
  0099e	85 c9		 test	 ecx, ecx
  009a0	74 09		 je	 SHORT $LN80@process_me
  009a2	c7 45 88 bb 00
	00 00		 mov	 DWORD PTR tv483[ebp], 187 ; 000000bbH
  009a9	eb 24		 jmp	 SHORT $LN81@process_me
$LN80@process_me:
  009ab	8b 15 00 00 00
	00		 mov	 edx, DWORD PTR ?__LINE__Var@?0??process_message_request_artillery@@YGXPAUENTITY@@@Z@4JA
  009b1	81 c2 a5 00 00
	00		 add	 edx, 165		; 000000a5H
  009b7	52		 push	 edx
  009b8	68 00 00 00 00	 push	 OFFSET ??_C@_0DK@BLKECLAG@c?3?2users?2nhv90?2projects?2eech?2ap@
  009bd	a1 00 00 00 00	 mov	 eax, DWORD PTR ?overload_invalid_int_type_message@@3PBDB ; overload_invalid_int_type_message
  009c2	50		 push	 eax
  009c3	e8 00 00 00 00	 call	 ?process_assert@@YGXPBD0H@Z ; process_assert
  009c8	c7 45 88 00 00
	00 00		 mov	 DWORD PTR tv483[ebp], 0
$LN81@process_me:
  009cf	6a ff		 push	 -1
  009d1	6a 0b		 push	 11			; 0000000bH
  009d3	6a 05		 push	 5
  009d5	6a 00		 push	 0
  009d7	6a 05		 push	 5
  009d9	51		 push	 ecx
  009da	f3 0f 10 05 00
	00 00 00	 movss	 xmm0, DWORD PTR __real@bf800000
  009e2	f3 0f 11 04 24	 movss	 DWORD PTR [esp], xmm0
  009e7	6a 0c		 push	 12			; 0000000cH
  009e9	6a 06		 push	 6
  009eb	51		 push	 ecx
  009ec	f3 0f 10 05 00
	00 00 00	 movss	 xmm0, DWORD PTR __real@41a00000
  009f4	f3 0f 11 04 24	 movss	 DWORD PTR [esp], xmm0
  009f9	51		 push	 ecx
  009fa	f3 0f 10 05 00
	00 00 00	 movss	 xmm0, DWORD PTR __real@3f800000
  00a02	f3 0f 11 04 24	 movss	 DWORD PTR [esp], xmm0
  00a07	51		 push	 ecx
  00a08	0f 57 c0	 xorps	 xmm0, xmm0
  00a0b	f3 0f 11 04 24	 movss	 DWORD PTR [esp], xmm0
  00a10	6a 00		 push	 0
  00a12	6a 1e		 push	 30			; 0000001eH
  00a14	68 bb 00 00 00	 push	 187			; 000000bbH
  00a19	8b 4d 08	 mov	 ecx, DWORD PTR _en$[ebp]
  00a1c	51		 push	 ecx
  00a1d	69 55 8c 5c 04
	00 00		 imul	 edx, DWORD PTR tv475[ebp], 1116
  00a24	8b 45 88	 mov	 eax, DWORD PTR tv483[ebp]
  00a27	8b 8c 82 00 00
	00 00		 mov	 ecx, DWORD PTR ?fn_get_local_entity_int_value@@3PAY0BBH@P6GHPAUENTITY@@W4INT_TYPES@@@ZA[edx+eax*4]
  00a2e	ff d1		 call	 ecx
  00a30	50		 push	 eax
  00a31	8b 55 08	 mov	 edx, DWORD PTR _en$[ebp]
  00a34	52		 push	 edx
  00a35	a1 00 00 00 00	 mov	 eax, DWORD PTR ?session_entity@@3PAUENTITY@@A ; session_entity
  00a3a	50		 push	 eax
  00a3b	e8 00 00 00 00	 call	 ?play_client_server_speech@@YAHPAUENTITY@@0W4ENTITY_SIDES@@HW4SOUND_LOCALITY_TYPES@@MMMW4speech_originator_types@@W4speech_category_types@@MZZ ; play_client_server_speech
  00a40	83 c4 40	 add	 esp, 64			; 00000040H
$LN8@process_me:
$LN1@process_me:

; 2268 : 			(
; 2269 : 				get_session_entity (),
; 2270 : 				en,
; 2271 : 				(entity_sides) get_local_entity_int_value (en, INT_TYPE_SIDE),
; 2272 : 				ENTITY_SUB_TYPE_EFFECT_SOUND_RADIO_MESSAGE,
; 2273 : 				SOUND_LOCALITY_RADIO,
; 2274 : 				0.0,
; 2275 : 				1.0,
; 2276 : 				20.0,
; 2277 : 				SPEECH_ORIGINATOR_GROUND_CONTROLLER,
; 2278 : 				SPEECH_CATEGORY_RADIO_RESPONSE,
; 2279 : 				-1.0,
; 2280 : 				SPEECH_ARRAY_GC_MESSAGES, SPEECH_GC_INTRODUCTION,
; 2281 : 				SPEECH_ARRAY_GC_MESSAGES, SPEECH_GC_ARTILLERY_BUSY,
; 2282 : 				-1
; 2283 : 			);
; 2284 : 		}
; 2285 : 	}
; 2286 : }

  00a43	5f		 pop	 edi
  00a44	5e		 pop	 esi
  00a45	5b		 pop	 ebx
  00a46	8b e5		 mov	 esp, ebp
  00a48	5d		 pop	 ebp
  00a49	c2 04 00	 ret	 4
?process_message_request_artillery@@YGXPAUENTITY@@@Z ENDP ; process_message_request_artillery
_TEXT	ENDS
; Function compile flags: /Odtp /ZI
; File c:\users\nhv90\projects\eech\aphavoc\source\misc\msg_in.c
;	COMDAT ?process_message_request_airstrike@@YGXPAUENTITY@@@Z
_TEXT	SEGMENT
tv556 = -120						; size = 4
tv657 = -116						; size = 4
tv549 = -112						; size = 4
tv274 = -108						; size = 4
tv267 = -104						; size = 4
tv446 = -100						; size = 4
tv410 = -100						; size = 4
tv348 = -100						; size = 4
tv311 = -100						; size = 4
tv256 = -100						; size = 4
tv230 = -100						; size = 4
tv202 = -100						; size = 4
tv187 = -100						; size = 4
tv174 = -100						; size = 4
tv156 = -100						; size = 4
tv135 = -100						; size = 4
tv83 = -100						; size = 4
tv438 = -96						; size = 4
tv402 = -96						; size = 4
tv340 = -96						; size = 4
tv303 = -96						; size = 4
tv249 = -96						; size = 4
tv242 = -96						; size = 4
tv222 = -96						; size = 4
tv214 = -96						; size = 4
tv194 = -96						; size = 4
tv186 = -96						; size = 4
tv167 = -96						; size = 4
tv148 = -96						; size = 4
tv95 = -96						; size = 4
tv75 = -96						; size = 4
_building_group$1 = -28					; size = 4
_side$ = -24						; size = 4
_new_task$ = -20					; size = 4
_assigned_group$ = -16					; size = 4
_group$ = -12						; size = 4
_task_objective$ = -8					; size = 4
_target$ = -4						; size = 4
_en$ = 8						; size = 4
?process_message_request_airstrike@@YGXPAUENTITY@@@Z PROC ; process_message_request_airstrike, COMDAT

; 1938 : {

  00000	55		 push	 ebp
  00001	8b ec		 mov	 ebp, esp
  00003	83 ec 78	 sub	 esp, 120		; 00000078H
  00006	53		 push	 ebx
  00007	56		 push	 esi
  00008	57		 push	 edi

; 1939 : 	entity
; 1940 : 		*target,
; 1941 : 		*task_objective,
; 1942 : 		*group,
; 1943 : 		*assigned_group,
; 1944 : 		*new_task;
; 1945 : 
; 1946 : 	entity_sides
; 1947 : 		side;
; 1948 : 
; 1949 : 	ASSERT (en);

  00009	83 7d 08 00	 cmp	 DWORD PTR _en$[ebp], 0
  0000d	75 18		 jne	 SHORT $LN4@process_me
  0000f	a1 00 00 00 00	 mov	 eax, DWORD PTR ?__LINE__Var@?0??process_message_request_airstrike@@YGXPAUENTITY@@@Z@4JA
  00014	83 c0 0b	 add	 eax, 11			; 0000000bH
  00017	50		 push	 eax
  00018	68 00 00 00 00	 push	 OFFSET ??_C@_0DK@BLKECLAG@c?3?2users?2nhv90?2projects?2eech?2ap@
  0001d	68 00 00 00 00	 push	 OFFSET ??_C@_02LFNMGJAP@en@
  00022	e8 00 00 00 00	 call	 ?process_assert@@YGXPBD0H@Z ; process_assert
$LN4@process_me:

; 1950 : 
; 1951 : 	new_task = NULL;

  00027	c7 45 ec 00 00
	00 00		 mov	 DWORD PTR _new_task$[ebp], 0

; 1952 : 
; 1953 : 	target = get_local_entity_parent (en, LIST_TYPE_TARGET);

  0002e	83 7d 08 00	 cmp	 DWORD PTR _en$[ebp], 0
  00032	74 0a		 je	 SHORT $LN22@process_me
  00034	8b 45 08	 mov	 eax, DWORD PTR _en$[ebp]
  00037	8b 08		 mov	 ecx, DWORD PTR [eax]
  00039	89 4d a0	 mov	 DWORD PTR tv75[ebp], ecx
  0003c	eb 21		 jmp	 SHORT $LN23@process_me
$LN22@process_me:
  0003e	8b 15 00 00 00
	00		 mov	 edx, DWORD PTR ?__LINE__Var@?0??process_message_request_airstrike@@YGXPAUENTITY@@@Z@4JA
  00044	83 c2 0f	 add	 edx, 15			; 0000000fH
  00047	52		 push	 edx
  00048	68 00 00 00 00	 push	 OFFSET ??_C@_0DK@BLKECLAG@c?3?2users?2nhv90?2projects?2eech?2ap@
  0004d	a1 00 00 00 00	 mov	 eax, DWORD PTR ?null_entity_pointer_message@@3PBDB ; null_entity_pointer_message
  00052	50		 push	 eax
  00053	e8 00 00 00 00	 call	 ?process_assert@@YGXPBD0H@Z ; process_assert
  00058	c7 45 a0 00 00
	00 00		 mov	 DWORD PTR tv75[ebp], 0
$LN23@process_me:
  0005f	b9 01 00 00 00	 mov	 ecx, 1
  00064	85 c9		 test	 ecx, ecx
  00066	74 09		 je	 SHORT $LN24@process_me
  00068	c7 45 9c 26 00
	00 00		 mov	 DWORD PTR tv83[ebp], 38	; 00000026H
  0006f	eb 21		 jmp	 SHORT $LN25@process_me
$LN24@process_me:
  00071	8b 15 00 00 00
	00		 mov	 edx, DWORD PTR ?__LINE__Var@?0??process_message_request_airstrike@@YGXPAUENTITY@@@Z@4JA
  00077	83 c2 0f	 add	 edx, 15			; 0000000fH
  0007a	52		 push	 edx
  0007b	68 00 00 00 00	 push	 OFFSET ??_C@_0DK@BLKECLAG@c?3?2users?2nhv90?2projects?2eech?2ap@
  00080	a1 00 00 00 00	 mov	 eax, DWORD PTR ?overload_invalid_list_type_message@@3PBDB ; overload_invalid_list_type_message
  00085	50		 push	 eax
  00086	e8 00 00 00 00	 call	 ?process_assert@@YGXPBD0H@Z ; process_assert
  0008b	c7 45 9c 00 00
	00 00		 mov	 DWORD PTR tv83[ebp], 0
$LN25@process_me:
  00092	6a 26		 push	 38			; 00000026H
  00094	8b 4d 08	 mov	 ecx, DWORD PTR _en$[ebp]
  00097	51		 push	 ecx
  00098	69 55 a0 b4 00
	00 00		 imul	 edx, DWORD PTR tv75[ebp], 180
  0009f	8b 45 9c	 mov	 eax, DWORD PTR tv83[ebp]
  000a2	8b 8c 82 00 00
	00 00		 mov	 ecx, DWORD PTR ?fn_get_local_entity_parent@@3PAY0CN@P6GPAUENTITY@@PAU1@W4LIST_TYPES@@@ZA[edx+eax*4]
  000a9	ff d1		 call	 ecx
  000ab	89 45 fc	 mov	 DWORD PTR _target$[ebp], eax

; 1954 : 
; 1955 : 	group = get_local_entity_parent (en, LIST_TYPE_MEMBER);

  000ae	83 7d 08 00	 cmp	 DWORD PTR _en$[ebp], 0
  000b2	74 0a		 je	 SHORT $LN26@process_me
  000b4	8b 45 08	 mov	 eax, DWORD PTR _en$[ebp]
  000b7	8b 08		 mov	 ecx, DWORD PTR [eax]
  000b9	89 4d a0	 mov	 DWORD PTR tv95[ebp], ecx
  000bc	eb 21		 jmp	 SHORT $LN27@process_me
$LN26@process_me:
  000be	8b 15 00 00 00
	00		 mov	 edx, DWORD PTR ?__LINE__Var@?0??process_message_request_airstrike@@YGXPAUENTITY@@@Z@4JA
  000c4	83 c2 11	 add	 edx, 17			; 00000011H
  000c7	52		 push	 edx
  000c8	68 00 00 00 00	 push	 OFFSET ??_C@_0DK@BLKECLAG@c?3?2users?2nhv90?2projects?2eech?2ap@
  000cd	a1 00 00 00 00	 mov	 eax, DWORD PTR ?null_entity_pointer_message@@3PBDB ; null_entity_pointer_message
  000d2	50		 push	 eax
  000d3	e8 00 00 00 00	 call	 ?process_assert@@YGXPBD0H@Z ; process_assert
  000d8	c7 45 a0 00 00
	00 00		 mov	 DWORD PTR tv95[ebp], 0
$LN27@process_me:
  000df	b9 01 00 00 00	 mov	 ecx, 1
  000e4	85 c9		 test	 ecx, ecx
  000e6	74 09		 je	 SHORT $LN28@process_me
  000e8	c7 45 9c 19 00
	00 00		 mov	 DWORD PTR tv135[ebp], 25 ; 00000019H
  000ef	eb 21		 jmp	 SHORT $LN29@process_me
$LN28@process_me:
  000f1	8b 15 00 00 00
	00		 mov	 edx, DWORD PTR ?__LINE__Var@?0??process_message_request_airstrike@@YGXPAUENTITY@@@Z@4JA
  000f7	83 c2 11	 add	 edx, 17			; 00000011H
  000fa	52		 push	 edx
  000fb	68 00 00 00 00	 push	 OFFSET ??_C@_0DK@BLKECLAG@c?3?2users?2nhv90?2projects?2eech?2ap@
  00100	a1 00 00 00 00	 mov	 eax, DWORD PTR ?overload_invalid_list_type_message@@3PBDB ; overload_invalid_list_type_message
  00105	50		 push	 eax
  00106	e8 00 00 00 00	 call	 ?process_assert@@YGXPBD0H@Z ; process_assert
  0010b	c7 45 9c 00 00
	00 00		 mov	 DWORD PTR tv135[ebp], 0
$LN29@process_me:
  00112	6a 19		 push	 25			; 00000019H
  00114	8b 4d 08	 mov	 ecx, DWORD PTR _en$[ebp]
  00117	51		 push	 ecx
  00118	69 55 a0 b4 00
	00 00		 imul	 edx, DWORD PTR tv95[ebp], 180
  0011f	8b 45 9c	 mov	 eax, DWORD PTR tv135[ebp]
  00122	8b 8c 82 00 00
	00 00		 mov	 ecx, DWORD PTR ?fn_get_local_entity_parent@@3PAY0CN@P6GPAUENTITY@@PAU1@W4LIST_TYPES@@@ZA[edx+eax*4]
  00129	ff d1		 call	 ecx
  0012b	89 45 f4	 mov	 DWORD PTR _group$[ebp], eax

; 1956 : 
; 1957 : 	if (target)

  0012e	83 7d fc 00	 cmp	 DWORD PTR _target$[ebp], 0
  00132	0f 84 b2 07 00
	00		 je	 $LN6@process_me

; 1958 : 	{
; 1959 : 		side = (entity_sides) get_local_entity_int_value (en, INT_TYPE_SIDE);

  00138	83 7d 08 00	 cmp	 DWORD PTR _en$[ebp], 0
  0013c	74 0a		 je	 SHORT $LN30@process_me
  0013e	8b 45 08	 mov	 eax, DWORD PTR _en$[ebp]
  00141	8b 08		 mov	 ecx, DWORD PTR [eax]
  00143	89 4d a0	 mov	 DWORD PTR tv148[ebp], ecx
  00146	eb 21		 jmp	 SHORT $LN31@process_me
$LN30@process_me:
  00148	8b 15 00 00 00
	00		 mov	 edx, DWORD PTR ?__LINE__Var@?0??process_message_request_airstrike@@YGXPAUENTITY@@@Z@4JA
  0014e	83 c2 15	 add	 edx, 21			; 00000015H
  00151	52		 push	 edx
  00152	68 00 00 00 00	 push	 OFFSET ??_C@_0DK@BLKECLAG@c?3?2users?2nhv90?2projects?2eech?2ap@
  00157	a1 00 00 00 00	 mov	 eax, DWORD PTR ?null_entity_pointer_message@@3PBDB ; null_entity_pointer_message
  0015c	50		 push	 eax
  0015d	e8 00 00 00 00	 call	 ?process_assert@@YGXPBD0H@Z ; process_assert
  00162	c7 45 a0 00 00
	00 00		 mov	 DWORD PTR tv148[ebp], 0
$LN31@process_me:
  00169	b9 01 00 00 00	 mov	 ecx, 1
  0016e	85 c9		 test	 ecx, ecx
  00170	74 09		 je	 SHORT $LN32@process_me
  00172	c7 45 9c bb 00
	00 00		 mov	 DWORD PTR tv156[ebp], 187 ; 000000bbH
  00179	eb 21		 jmp	 SHORT $LN33@process_me
$LN32@process_me:
  0017b	8b 15 00 00 00
	00		 mov	 edx, DWORD PTR ?__LINE__Var@?0??process_message_request_airstrike@@YGXPAUENTITY@@@Z@4JA
  00181	83 c2 15	 add	 edx, 21			; 00000015H
  00184	52		 push	 edx
  00185	68 00 00 00 00	 push	 OFFSET ??_C@_0DK@BLKECLAG@c?3?2users?2nhv90?2projects?2eech?2ap@
  0018a	a1 00 00 00 00	 mov	 eax, DWORD PTR ?overload_invalid_int_type_message@@3PBDB ; overload_invalid_int_type_message
  0018f	50		 push	 eax
  00190	e8 00 00 00 00	 call	 ?process_assert@@YGXPBD0H@Z ; process_assert
  00195	c7 45 9c 00 00
	00 00		 mov	 DWORD PTR tv156[ebp], 0
$LN33@process_me:
  0019c	68 bb 00 00 00	 push	 187			; 000000bbH
  001a1	8b 4d 08	 mov	 ecx, DWORD PTR _en$[ebp]
  001a4	51		 push	 ecx
  001a5	69 55 a0 5c 04
	00 00		 imul	 edx, DWORD PTR tv148[ebp], 1116
  001ac	8b 45 9c	 mov	 eax, DWORD PTR tv156[ebp]
  001af	8b 8c 82 00 00
	00 00		 mov	 ecx, DWORD PTR ?fn_get_local_entity_int_value@@3PAY0BBH@P6GHPAUENTITY@@W4INT_TYPES@@@ZA[edx+eax*4]
  001b6	ff d1		 call	 ecx
  001b8	89 45 e8	 mov	 DWORD PTR _side$[ebp], eax

; 1960 : 
; 1961 : 		if (get_local_entity_int_value (target, INT_TYPE_SIDE) != side)

  001bb	83 7d fc 00	 cmp	 DWORD PTR _target$[ebp], 0
  001bf	74 0a		 je	 SHORT $LN34@process_me
  001c1	8b 45 fc	 mov	 eax, DWORD PTR _target$[ebp]
  001c4	8b 08		 mov	 ecx, DWORD PTR [eax]
  001c6	89 4d a0	 mov	 DWORD PTR tv167[ebp], ecx
  001c9	eb 1d		 jmp	 SHORT $LN35@process_me
$LN34@process_me:
  001cb	68 a9 07 00 00	 push	 1961			; 000007a9H
  001d0	68 00 00 00 00	 push	 OFFSET ??_C@_0DK@BLKECLAG@c?3?2users?2nhv90?2projects?2eech?2ap@
  001d5	8b 15 00 00 00
	00		 mov	 edx, DWORD PTR ?null_entity_pointer_message@@3PBDB ; null_entity_pointer_message
  001db	52		 push	 edx
  001dc	e8 00 00 00 00	 call	 ?process_assert@@YGXPBD0H@Z ; process_assert
  001e1	c7 45 a0 00 00
	00 00		 mov	 DWORD PTR tv167[ebp], 0
$LN35@process_me:
  001e8	b8 01 00 00 00	 mov	 eax, 1
  001ed	85 c0		 test	 eax, eax
  001ef	74 09		 je	 SHORT $LN36@process_me
  001f1	c7 45 9c bb 00
	00 00		 mov	 DWORD PTR tv174[ebp], 187 ; 000000bbH
  001f8	eb 1d		 jmp	 SHORT $LN37@process_me
$LN36@process_me:
  001fa	68 a9 07 00 00	 push	 1961			; 000007a9H
  001ff	68 00 00 00 00	 push	 OFFSET ??_C@_0DK@BLKECLAG@c?3?2users?2nhv90?2projects?2eech?2ap@
  00204	8b 0d 00 00 00
	00		 mov	 ecx, DWORD PTR ?overload_invalid_int_type_message@@3PBDB ; overload_invalid_int_type_message
  0020a	51		 push	 ecx
  0020b	e8 00 00 00 00	 call	 ?process_assert@@YGXPBD0H@Z ; process_assert
  00210	c7 45 9c 00 00
	00 00		 mov	 DWORD PTR tv174[ebp], 0
$LN37@process_me:
  00217	68 bb 00 00 00	 push	 187			; 000000bbH
  0021c	8b 55 fc	 mov	 edx, DWORD PTR _target$[ebp]
  0021f	52		 push	 edx
  00220	69 45 a0 5c 04
	00 00		 imul	 eax, DWORD PTR tv167[ebp], 1116
  00227	8b 4d 9c	 mov	 ecx, DWORD PTR tv174[ebp]
  0022a	8b 94 88 00 00
	00 00		 mov	 edx, DWORD PTR ?fn_get_local_entity_int_value@@3PAY0BBH@P6GHPAUENTITY@@W4INT_TYPES@@@ZA[eax+ecx*4]
  00231	ff d2		 call	 edx
  00233	3b 45 e8	 cmp	 eax, DWORD PTR _side$[ebp]
  00236	0f 84 ae 06 00
	00		 je	 $LN6@process_me

; 1962 : 		{
; 1963 : 			switch (get_local_entity_type (target))

  0023c	83 7d fc 00	 cmp	 DWORD PTR _target$[ebp], 0
  00240	74 0a		 je	 SHORT $LN38@process_me
  00242	8b 45 fc	 mov	 eax, DWORD PTR _target$[ebp]
  00245	8b 08		 mov	 ecx, DWORD PTR [eax]
  00247	89 4d a0	 mov	 DWORD PTR tv186[ebp], ecx
  0024a	eb 1d		 jmp	 SHORT $LN39@process_me
$LN38@process_me:
  0024c	68 ab 07 00 00	 push	 1963			; 000007abH
  00251	68 00 00 00 00	 push	 OFFSET ??_C@_0DK@BLKECLAG@c?3?2users?2nhv90?2projects?2eech?2ap@
  00256	8b 15 00 00 00
	00		 mov	 edx, DWORD PTR ?null_entity_pointer_message@@3PBDB ; null_entity_pointer_message
  0025c	52		 push	 edx
  0025d	e8 00 00 00 00	 call	 ?process_assert@@YGXPBD0H@Z ; process_assert
  00262	c7 45 a0 00 00
	00 00		 mov	 DWORD PTR tv186[ebp], 0
$LN39@process_me:
  00269	8b 45 a0	 mov	 eax, DWORD PTR tv186[ebp]
  0026c	89 45 9c	 mov	 DWORD PTR tv187[ebp], eax
  0026f	8b 4d 9c	 mov	 ecx, DWORD PTR tv187[ebp]
  00272	83 e9 01	 sub	 ecx, 1
  00275	89 4d 9c	 mov	 DWORD PTR tv187[ebp], ecx
  00278	83 7d 9c 1d	 cmp	 DWORD PTR tv187[ebp], 29 ; 0000001dH
  0027c	0f 87 76 04 00
	00		 ja	 $LN2@process_me
  00282	8b 55 9c	 mov	 edx, DWORD PTR tv187[ebp]
  00285	0f b6 82 00 00
	00 00		 movzx	 eax, BYTE PTR $LN76@process_me[edx]
  0028c	ff 24 85 00 00
	00 00		 jmp	 DWORD PTR $LN77@process_me[eax*4]
$LN7@process_me:

; 1964 : 			{
; 1965 : 				case ENTITY_TYPE_SITE:
; 1966 : 				case ENTITY_TYPE_SITE_UPDATABLE:
; 1967 : 				{
; 1968 : 					entity
; 1969 : 						*building_group;
; 1970 : 
; 1971 : 					//
; 1972 : 					// create deep strike
; 1973 : 					//
; 1974 : 
; 1975 : 					building_group = get_local_entity_parent (target, LIST_TYPE_MEMBER);

  00293	83 7d fc 00	 cmp	 DWORD PTR _target$[ebp], 0
  00297	74 0a		 je	 SHORT $LN40@process_me
  00299	8b 45 fc	 mov	 eax, DWORD PTR _target$[ebp]
  0029c	8b 08		 mov	 ecx, DWORD PTR [eax]
  0029e	89 4d a0	 mov	 DWORD PTR tv194[ebp], ecx
  002a1	eb 21		 jmp	 SHORT $LN41@process_me
$LN40@process_me:
  002a3	8b 15 00 00 00
	00		 mov	 edx, DWORD PTR ?__LINE__Var@?0??process_message_request_airstrike@@YGXPAUENTITY@@@Z@4JA
  002a9	83 c2 25	 add	 edx, 37			; 00000025H
  002ac	52		 push	 edx
  002ad	68 00 00 00 00	 push	 OFFSET ??_C@_0DK@BLKECLAG@c?3?2users?2nhv90?2projects?2eech?2ap@
  002b2	a1 00 00 00 00	 mov	 eax, DWORD PTR ?null_entity_pointer_message@@3PBDB ; null_entity_pointer_message
  002b7	50		 push	 eax
  002b8	e8 00 00 00 00	 call	 ?process_assert@@YGXPBD0H@Z ; process_assert
  002bd	c7 45 a0 00 00
	00 00		 mov	 DWORD PTR tv194[ebp], 0
$LN41@process_me:
  002c4	b9 01 00 00 00	 mov	 ecx, 1
  002c9	85 c9		 test	 ecx, ecx
  002cb	74 09		 je	 SHORT $LN42@process_me
  002cd	c7 45 9c 19 00
	00 00		 mov	 DWORD PTR tv202[ebp], 25 ; 00000019H
  002d4	eb 21		 jmp	 SHORT $LN43@process_me
$LN42@process_me:
  002d6	8b 15 00 00 00
	00		 mov	 edx, DWORD PTR ?__LINE__Var@?0??process_message_request_airstrike@@YGXPAUENTITY@@@Z@4JA
  002dc	83 c2 25	 add	 edx, 37			; 00000025H
  002df	52		 push	 edx
  002e0	68 00 00 00 00	 push	 OFFSET ??_C@_0DK@BLKECLAG@c?3?2users?2nhv90?2projects?2eech?2ap@
  002e5	a1 00 00 00 00	 mov	 eax, DWORD PTR ?overload_invalid_list_type_message@@3PBDB ; overload_invalid_list_type_message
  002ea	50		 push	 eax
  002eb	e8 00 00 00 00	 call	 ?process_assert@@YGXPBD0H@Z ; process_assert
  002f0	c7 45 9c 00 00
	00 00		 mov	 DWORD PTR tv202[ebp], 0
$LN43@process_me:
  002f7	6a 19		 push	 25			; 00000019H
  002f9	8b 4d fc	 mov	 ecx, DWORD PTR _target$[ebp]
  002fc	51		 push	 ecx
  002fd	69 55 a0 b4 00
	00 00		 imul	 edx, DWORD PTR tv194[ebp], 180
  00304	8b 45 9c	 mov	 eax, DWORD PTR tv202[ebp]
  00307	8b 8c 82 00 00
	00 00		 mov	 ecx, DWORD PTR ?fn_get_local_entity_parent@@3PAY0CN@P6GPAUENTITY@@PAU1@W4LIST_TYPES@@@ZA[edx+eax*4]
  0030e	ff d1		 call	 ecx
  00310	89 45 e4	 mov	 DWORD PTR _building_group$1[ebp], eax

; 1976 : 
; 1977 : 					if ((building_group) && (get_local_entity_type (building_group) == ENTITY_TYPE_GROUP))

  00313	83 7d e4 00	 cmp	 DWORD PTR _building_group$1[ebp], 0
  00317	0f 84 3f 02 00
	00		 je	 $LN11@process_me
  0031d	83 7d e4 00	 cmp	 DWORD PTR _building_group$1[ebp], 0
  00321	74 0a		 je	 SHORT $LN44@process_me
  00323	8b 45 e4	 mov	 eax, DWORD PTR _building_group$1[ebp]
  00326	8b 08		 mov	 ecx, DWORD PTR [eax]
  00328	89 4d a0	 mov	 DWORD PTR tv214[ebp], ecx
  0032b	eb 1d		 jmp	 SHORT $LN45@process_me
$LN44@process_me:
  0032d	68 b9 07 00 00	 push	 1977			; 000007b9H
  00332	68 00 00 00 00	 push	 OFFSET ??_C@_0DK@BLKECLAG@c?3?2users?2nhv90?2projects?2eech?2ap@
  00337	8b 15 00 00 00
	00		 mov	 edx, DWORD PTR ?null_entity_pointer_message@@3PBDB ; null_entity_pointer_message
  0033d	52		 push	 edx
  0033e	e8 00 00 00 00	 call	 ?process_assert@@YGXPBD0H@Z ; process_assert
  00343	c7 45 a0 00 00
	00 00		 mov	 DWORD PTR tv214[ebp], 0
$LN45@process_me:
  0034a	83 7d a0 0c	 cmp	 DWORD PTR tv214[ebp], 12 ; 0000000cH
  0034e	0f 85 08 02 00
	00		 jne	 $LN11@process_me

; 1978 : 					{
; 1979 : 						task_objective = get_local_entity_parent (building_group, LIST_TYPE_BUILDING_GROUP);

  00354	83 7d e4 00	 cmp	 DWORD PTR _building_group$1[ebp], 0
  00358	74 0a		 je	 SHORT $LN46@process_me
  0035a	8b 45 e4	 mov	 eax, DWORD PTR _building_group$1[ebp]
  0035d	8b 08		 mov	 ecx, DWORD PTR [eax]
  0035f	89 4d a0	 mov	 DWORD PTR tv222[ebp], ecx
  00362	eb 21		 jmp	 SHORT $LN47@process_me
$LN46@process_me:
  00364	8b 15 00 00 00
	00		 mov	 edx, DWORD PTR ?__LINE__Var@?0??process_message_request_airstrike@@YGXPAUENTITY@@@Z@4JA
  0036a	83 c2 29	 add	 edx, 41			; 00000029H
  0036d	52		 push	 edx
  0036e	68 00 00 00 00	 push	 OFFSET ??_C@_0DK@BLKECLAG@c?3?2users?2nhv90?2projects?2eech?2ap@
  00373	a1 00 00 00 00	 mov	 eax, DWORD PTR ?null_entity_pointer_message@@3PBDB ; null_entity_pointer_message
  00378	50		 push	 eax
  00379	e8 00 00 00 00	 call	 ?process_assert@@YGXPBD0H@Z ; process_assert
  0037e	c7 45 a0 00 00
	00 00		 mov	 DWORD PTR tv222[ebp], 0
$LN47@process_me:
  00385	b9 01 00 00 00	 mov	 ecx, 1
  0038a	85 c9		 test	 ecx, ecx
  0038c	74 09		 je	 SHORT $LN48@process_me
  0038e	c7 45 9c 04 00
	00 00		 mov	 DWORD PTR tv230[ebp], 4
  00395	eb 21		 jmp	 SHORT $LN49@process_me
$LN48@process_me:
  00397	8b 15 00 00 00
	00		 mov	 edx, DWORD PTR ?__LINE__Var@?0??process_message_request_airstrike@@YGXPAUENTITY@@@Z@4JA
  0039d	83 c2 29	 add	 edx, 41			; 00000029H
  003a0	52		 push	 edx
  003a1	68 00 00 00 00	 push	 OFFSET ??_C@_0DK@BLKECLAG@c?3?2users?2nhv90?2projects?2eech?2ap@
  003a6	a1 00 00 00 00	 mov	 eax, DWORD PTR ?overload_invalid_list_type_message@@3PBDB ; overload_invalid_list_type_message
  003ab	50		 push	 eax
  003ac	e8 00 00 00 00	 call	 ?process_assert@@YGXPBD0H@Z ; process_assert
  003b1	c7 45 9c 00 00
	00 00		 mov	 DWORD PTR tv230[ebp], 0
$LN49@process_me:
  003b8	6a 04		 push	 4
  003ba	8b 4d e4	 mov	 ecx, DWORD PTR _building_group$1[ebp]
  003bd	51		 push	 ecx
  003be	69 55 a0 b4 00
	00 00		 imul	 edx, DWORD PTR tv222[ebp], 180
  003c5	8b 45 9c	 mov	 eax, DWORD PTR tv230[ebp]
  003c8	8b 8c 82 00 00
	00 00		 mov	 ecx, DWORD PTR ?fn_get_local_entity_parent@@3PAY0CN@P6GPAUENTITY@@PAU1@W4LIST_TYPES@@@ZA[edx+eax*4]
  003cf	ff d1		 call	 ecx
  003d1	89 45 f8	 mov	 DWORD PTR _task_objective$[ebp], eax

; 1980 : 
; 1981 : 						if ((task_objective) && (get_local_entity_type (task_objective) == ENTITY_TYPE_KEYSITE))

  003d4	83 7d f8 00	 cmp	 DWORD PTR _task_objective$[ebp], 0
  003d8	0f 84 7e 01 00
	00		 je	 $LN11@process_me
  003de	83 7d f8 00	 cmp	 DWORD PTR _task_objective$[ebp], 0
  003e2	74 0a		 je	 SHORT $LN50@process_me
  003e4	8b 45 f8	 mov	 eax, DWORD PTR _task_objective$[ebp]
  003e7	8b 08		 mov	 ecx, DWORD PTR [eax]
  003e9	89 4d a0	 mov	 DWORD PTR tv242[ebp], ecx
  003ec	eb 1d		 jmp	 SHORT $LN51@process_me
$LN50@process_me:
  003ee	68 bd 07 00 00	 push	 1981			; 000007bdH
  003f3	68 00 00 00 00	 push	 OFFSET ??_C@_0DK@BLKECLAG@c?3?2users?2nhv90?2projects?2eech?2ap@
  003f8	8b 15 00 00 00
	00		 mov	 edx, DWORD PTR ?null_entity_pointer_message@@3PBDB ; null_entity_pointer_message
  003fe	52		 push	 edx
  003ff	e8 00 00 00 00	 call	 ?process_assert@@YGXPBD0H@Z ; process_assert
  00404	c7 45 a0 00 00
	00 00		 mov	 DWORD PTR tv242[ebp], 0
$LN51@process_me:
  0040b	83 7d a0 0f	 cmp	 DWORD PTR tv242[ebp], 15 ; 0000000fH
  0040f	0f 85 47 01 00
	00		 jne	 $LN11@process_me

; 1982 : 						{
; 1983 : 							if (get_local_entity_float_value (task_objective, FLOAT_TYPE_EFFICIENCY) >= get_local_entity_float_value (task_objective, FLOAT_TYPE_MINIMUM_EFFICIENCY))

  00415	83 7d f8 00	 cmp	 DWORD PTR _task_objective$[ebp], 0
  00419	74 0a		 je	 SHORT $LN52@process_me
  0041b	8b 45 f8	 mov	 eax, DWORD PTR _task_objective$[ebp]
  0041e	8b 08		 mov	 ecx, DWORD PTR [eax]
  00420	89 4d a0	 mov	 DWORD PTR tv249[ebp], ecx
  00423	eb 1d		 jmp	 SHORT $LN53@process_me
$LN52@process_me:
  00425	68 bf 07 00 00	 push	 1983			; 000007bfH
  0042a	68 00 00 00 00	 push	 OFFSET ??_C@_0DK@BLKECLAG@c?3?2users?2nhv90?2projects?2eech?2ap@
  0042f	8b 15 00 00 00
	00		 mov	 edx, DWORD PTR ?null_entity_pointer_message@@3PBDB ; null_entity_pointer_message
  00435	52		 push	 edx
  00436	e8 00 00 00 00	 call	 ?process_assert@@YGXPBD0H@Z ; process_assert
  0043b	c7 45 a0 00 00
	00 00		 mov	 DWORD PTR tv249[ebp], 0
$LN53@process_me:
  00442	b8 01 00 00 00	 mov	 eax, 1
  00447	85 c0		 test	 eax, eax
  00449	74 09		 je	 SHORT $LN54@process_me
  0044b	c7 45 9c 21 00
	00 00		 mov	 DWORD PTR tv256[ebp], 33 ; 00000021H
  00452	eb 1d		 jmp	 SHORT $LN55@process_me
$LN54@process_me:
  00454	68 bf 07 00 00	 push	 1983			; 000007bfH
  00459	68 00 00 00 00	 push	 OFFSET ??_C@_0DK@BLKECLAG@c?3?2users?2nhv90?2projects?2eech?2ap@
  0045e	8b 0d 00 00 00
	00		 mov	 ecx, DWORD PTR ?overload_invalid_float_type_message@@3PBDB ; overload_invalid_float_type_message
  00464	51		 push	 ecx
  00465	e8 00 00 00 00	 call	 ?process_assert@@YGXPBD0H@Z ; process_assert
  0046a	c7 45 9c 00 00
	00 00		 mov	 DWORD PTR tv256[ebp], 0
$LN55@process_me:
  00471	83 7d f8 00	 cmp	 DWORD PTR _task_objective$[ebp], 0
  00475	74 0a		 je	 SHORT $LN56@process_me
  00477	8b 55 f8	 mov	 edx, DWORD PTR _task_objective$[ebp]
  0047a	8b 02		 mov	 eax, DWORD PTR [edx]
  0047c	89 45 98	 mov	 DWORD PTR tv267[ebp], eax
  0047f	eb 1d		 jmp	 SHORT $LN57@process_me
$LN56@process_me:
  00481	68 bf 07 00 00	 push	 1983			; 000007bfH
  00486	68 00 00 00 00	 push	 OFFSET ??_C@_0DK@BLKECLAG@c?3?2users?2nhv90?2projects?2eech?2ap@
  0048b	8b 0d 00 00 00
	00		 mov	 ecx, DWORD PTR ?null_entity_pointer_message@@3PBDB ; null_entity_pointer_message
  00491	51		 push	 ecx
  00492	e8 00 00 00 00	 call	 ?process_assert@@YGXPBD0H@Z ; process_assert
  00497	c7 45 98 00 00
	00 00		 mov	 DWORD PTR tv267[ebp], 0
$LN57@process_me:
  0049e	ba 01 00 00 00	 mov	 edx, 1
  004a3	85 d2		 test	 edx, edx
  004a5	74 09		 je	 SHORT $LN58@process_me
  004a7	c7 45 94 51 00
	00 00		 mov	 DWORD PTR tv274[ebp], 81 ; 00000051H
  004ae	eb 1c		 jmp	 SHORT $LN59@process_me
$LN58@process_me:
  004b0	68 bf 07 00 00	 push	 1983			; 000007bfH
  004b5	68 00 00 00 00	 push	 OFFSET ??_C@_0DK@BLKECLAG@c?3?2users?2nhv90?2projects?2eech?2ap@
  004ba	a1 00 00 00 00	 mov	 eax, DWORD PTR ?overload_invalid_float_type_message@@3PBDB ; overload_invalid_float_type_message
  004bf	50		 push	 eax
  004c0	e8 00 00 00 00	 call	 ?process_assert@@YGXPBD0H@Z ; process_assert
  004c5	c7 45 94 00 00
	00 00		 mov	 DWORD PTR tv274[ebp], 0
$LN59@process_me:
  004cc	6a 21		 push	 33			; 00000021H
  004ce	8b 4d f8	 mov	 ecx, DWORD PTR _task_objective$[ebp]
  004d1	51		 push	 ecx
  004d2	69 55 a0 bc 02
	00 00		 imul	 edx, DWORD PTR tv249[ebp], 700
  004d9	8b 45 9c	 mov	 eax, DWORD PTR tv256[ebp]
  004dc	8b 8c 82 00 00
	00 00		 mov	 ecx, DWORD PTR ?fn_get_local_entity_float_value@@3PAY0KP@P6GMPAUENTITY@@W4FLOAT_TYPES@@@ZA[edx+eax*4]
  004e3	ff d1		 call	 ecx
  004e5	d9 5d 90	 fstp	 DWORD PTR tv549[ebp]
  004e8	f3 0f 10 45 90	 movss	 xmm0, DWORD PTR tv549[ebp]
  004ed	6a 51		 push	 81			; 00000051H
  004ef	8b 55 f8	 mov	 edx, DWORD PTR _task_objective$[ebp]
  004f2	52		 push	 edx
  004f3	69 45 98 bc 02
	00 00		 imul	 eax, DWORD PTR tv267[ebp], 700
  004fa	8b 4d 94	 mov	 ecx, DWORD PTR tv274[ebp]
  004fd	8b 94 88 00 00
	00 00		 mov	 edx, DWORD PTR ?fn_get_local_entity_float_value@@3PAY0KP@P6GMPAUENTITY@@W4FLOAT_TYPES@@@ZA[eax+ecx*4]
  00504	f3 0f 11 45 8c	 movss	 DWORD PTR tv657[ebp], xmm0
  00509	ff d2		 call	 edx
  0050b	d9 5d 88	 fstp	 DWORD PTR tv556[ebp]
  0050e	f3 0f 10 45 8c	 movss	 xmm0, DWORD PTR tv657[ebp]
  00513	0f 2f 45 88	 comiss	 xmm0, DWORD PTR tv556[ebp]
  00517	72 43		 jb	 SHORT $LN11@process_me

; 1984 : 							{
; 1985 : 								if (!entity_is_object_of_task (task_objective, ENTITY_SUB_TYPE_TASK_GROUND_STRIKE, side))

  00519	8b 45 e8	 mov	 eax, DWORD PTR _side$[ebp]
  0051c	50		 push	 eax
  0051d	6a 0c		 push	 12			; 0000000cH
  0051f	8b 4d f8	 mov	 ecx, DWORD PTR _task_objective$[ebp]
  00522	51		 push	 ecx
  00523	e8 00 00 00 00	 call	 ?entity_is_object_of_task@@YGHPAUENTITY@@HW4ENTITY_SIDES@@@Z ; entity_is_object_of_task
  00528	85 c0		 test	 eax, eax
  0052a	75 30		 jne	 SHORT $LN11@process_me

; 1986 : 								{
; 1987 : 									new_task = create_ground_strike_task (side, task_objective, group, TRUE, task_database [ENTITY_SUB_TYPE_TASK_GROUND_STRIKE].task_priority, NULL, NULL);

  0052c	6a 00		 push	 0
  0052e	6a 00		 push	 0
  00530	b8 50 00 00 00	 mov	 eax, 80			; 00000050H
  00535	6b c8 0c	 imul	 ecx, eax, 12
  00538	51		 push	 ecx
  00539	f3 0f 10 81 10
	00 00 00	 movss	 xmm0, DWORD PTR ?task_database@@3PAUTASK_DATA@@A[ecx+16]
  00541	f3 0f 11 04 24	 movss	 DWORD PTR [esp], xmm0
  00546	6a 01		 push	 1
  00548	8b 55 f4	 mov	 edx, DWORD PTR _group$[ebp]
  0054b	52		 push	 edx
  0054c	8b 45 f8	 mov	 eax, DWORD PTR _task_objective$[ebp]
  0054f	50		 push	 eax
  00550	8b 4d e8	 mov	 ecx, DWORD PTR _side$[ebp]
  00553	51		 push	 ecx
  00554	e8 00 00 00 00	 call	 ?create_ground_strike_task@@YGPAUENTITY@@W4ENTITY_SIDES@@PAU1@1HM11@Z ; create_ground_strike_task
  00559	89 45 ec	 mov	 DWORD PTR _new_task$[ebp], eax
$LN11@process_me:

; 1988 : 								}
; 1989 : 							}
; 1990 : 						}
; 1991 : 					}
; 1992 : 
; 1993 : 					break;

  0055c	e9 97 01 00 00	 jmp	 $LN2@process_me
$LN12@process_me:

; 1994 : 				}
; 1995 : 				case ENTITY_TYPE_ANTI_AIRCRAFT:
; 1996 : 				{
; 1997 : 					//
; 1998 : 					// create SEAD
; 1999 : 					//
; 2000 : 
; 2001 : 					task_objective = get_local_entity_parent (target, LIST_TYPE_MEMBER);

  00561	83 7d fc 00	 cmp	 DWORD PTR _target$[ebp], 0
  00565	74 0a		 je	 SHORT $LN60@process_me
  00567	8b 45 fc	 mov	 eax, DWORD PTR _target$[ebp]
  0056a	8b 08		 mov	 ecx, DWORD PTR [eax]
  0056c	89 4d a0	 mov	 DWORD PTR tv303[ebp], ecx
  0056f	eb 21		 jmp	 SHORT $LN61@process_me
$LN60@process_me:
  00571	8b 15 00 00 00
	00		 mov	 edx, DWORD PTR ?__LINE__Var@?0??process_message_request_airstrike@@YGXPAUENTITY@@@Z@4JA
  00577	83 c2 3f	 add	 edx, 63			; 0000003fH
  0057a	52		 push	 edx
  0057b	68 00 00 00 00	 push	 OFFSET ??_C@_0DK@BLKECLAG@c?3?2users?2nhv90?2projects?2eech?2ap@
  00580	a1 00 00 00 00	 mov	 eax, DWORD PTR ?null_entity_pointer_message@@3PBDB ; null_entity_pointer_message
  00585	50		 push	 eax
  00586	e8 00 00 00 00	 call	 ?process_assert@@YGXPBD0H@Z ; process_assert
  0058b	c7 45 a0 00 00
	00 00		 mov	 DWORD PTR tv303[ebp], 0
$LN61@process_me:
  00592	b9 01 00 00 00	 mov	 ecx, 1
  00597	85 c9		 test	 ecx, ecx
  00599	74 09		 je	 SHORT $LN62@process_me
  0059b	c7 45 9c 19 00
	00 00		 mov	 DWORD PTR tv311[ebp], 25 ; 00000019H
  005a2	eb 21		 jmp	 SHORT $LN63@process_me
$LN62@process_me:
  005a4	8b 15 00 00 00
	00		 mov	 edx, DWORD PTR ?__LINE__Var@?0??process_message_request_airstrike@@YGXPAUENTITY@@@Z@4JA
  005aa	83 c2 3f	 add	 edx, 63			; 0000003fH
  005ad	52		 push	 edx
  005ae	68 00 00 00 00	 push	 OFFSET ??_C@_0DK@BLKECLAG@c?3?2users?2nhv90?2projects?2eech?2ap@
  005b3	a1 00 00 00 00	 mov	 eax, DWORD PTR ?overload_invalid_list_type_message@@3PBDB ; overload_invalid_list_type_message
  005b8	50		 push	 eax
  005b9	e8 00 00 00 00	 call	 ?process_assert@@YGXPBD0H@Z ; process_assert
  005be	c7 45 9c 00 00
	00 00		 mov	 DWORD PTR tv311[ebp], 0
$LN63@process_me:
  005c5	6a 19		 push	 25			; 00000019H
  005c7	8b 4d fc	 mov	 ecx, DWORD PTR _target$[ebp]
  005ca	51		 push	 ecx
  005cb	69 55 a0 b4 00
	00 00		 imul	 edx, DWORD PTR tv303[ebp], 180
  005d2	8b 45 9c	 mov	 eax, DWORD PTR tv311[ebp]
  005d5	8b 8c 82 00 00
	00 00		 mov	 ecx, DWORD PTR ?fn_get_local_entity_parent@@3PAY0CN@P6GPAUENTITY@@PAU1@W4LIST_TYPES@@@ZA[edx+eax*4]
  005dc	ff d1		 call	 ecx
  005de	89 45 f8	 mov	 DWORD PTR _task_objective$[ebp], eax

; 2002 : 
; 2003 : 					if (task_objective)

  005e1	83 7d f8 00	 cmp	 DWORD PTR _task_objective$[ebp], 0
  005e5	74 43		 je	 SHORT $LN14@process_me

; 2004 : 					{
; 2005 : 						if (!entity_is_object_of_task (task_objective, ENTITY_SUB_TYPE_TASK_SEAD, side))

  005e7	8b 45 e8	 mov	 eax, DWORD PTR _side$[ebp]
  005ea	50		 push	 eax
  005eb	6a 14		 push	 20			; 00000014H
  005ed	8b 4d f8	 mov	 ecx, DWORD PTR _task_objective$[ebp]
  005f0	51		 push	 ecx
  005f1	e8 00 00 00 00	 call	 ?entity_is_object_of_task@@YGHPAUENTITY@@HW4ENTITY_SIDES@@@Z ; entity_is_object_of_task
  005f6	85 c0		 test	 eax, eax
  005f8	75 30		 jne	 SHORT $LN14@process_me

; 2006 : 						{
; 2007 : 							new_task = create_sead_task (side, task_objective, group, TRUE, task_database [ENTITY_SUB_TYPE_TASK_SEAD].task_priority, NULL, NULL);

  005fa	6a 00		 push	 0
  005fc	6a 00		 push	 0
  005fe	b8 50 00 00 00	 mov	 eax, 80			; 00000050H
  00603	6b c8 14	 imul	 ecx, eax, 20
  00606	51		 push	 ecx
  00607	f3 0f 10 81 10
	00 00 00	 movss	 xmm0, DWORD PTR ?task_database@@3PAUTASK_DATA@@A[ecx+16]
  0060f	f3 0f 11 04 24	 movss	 DWORD PTR [esp], xmm0
  00614	6a 01		 push	 1
  00616	8b 55 f4	 mov	 edx, DWORD PTR _group$[ebp]
  00619	52		 push	 edx
  0061a	8b 45 f8	 mov	 eax, DWORD PTR _task_objective$[ebp]
  0061d	50		 push	 eax
  0061e	8b 4d e8	 mov	 ecx, DWORD PTR _side$[ebp]
  00621	51		 push	 ecx
  00622	e8 00 00 00 00	 call	 ?create_sead_task@@YGPAUENTITY@@W4ENTITY_SIDES@@PAU1@1HM11@Z ; create_sead_task
  00627	89 45 ec	 mov	 DWORD PTR _new_task$[ebp], eax
$LN14@process_me:

; 2008 : 						}
; 2009 : 					}
; 2010 : 
; 2011 : 					break;

  0062a	e9 c9 00 00 00	 jmp	 $LN2@process_me
$LN15@process_me:

; 2012 : 				}
; 2013 : 				case ENTITY_TYPE_ROUTED_VEHICLE:
; 2014 : 				{
; 2015 : 					//
; 2016 : 					// create CAS
; 2017 : 					//
; 2018 : 
; 2019 : 					task_objective = get_local_entity_parent (target, LIST_TYPE_MEMBER);

  0062f	83 7d fc 00	 cmp	 DWORD PTR _target$[ebp], 0
  00633	74 0a		 je	 SHORT $LN64@process_me
  00635	8b 45 fc	 mov	 eax, DWORD PTR _target$[ebp]
  00638	8b 08		 mov	 ecx, DWORD PTR [eax]
  0063a	89 4d a0	 mov	 DWORD PTR tv340[ebp], ecx
  0063d	eb 21		 jmp	 SHORT $LN65@process_me
$LN64@process_me:
  0063f	8b 15 00 00 00
	00		 mov	 edx, DWORD PTR ?__LINE__Var@?0??process_message_request_airstrike@@YGXPAUENTITY@@@Z@4JA
  00645	83 c2 51	 add	 edx, 81			; 00000051H
  00648	52		 push	 edx
  00649	68 00 00 00 00	 push	 OFFSET ??_C@_0DK@BLKECLAG@c?3?2users?2nhv90?2projects?2eech?2ap@
  0064e	a1 00 00 00 00	 mov	 eax, DWORD PTR ?null_entity_pointer_message@@3PBDB ; null_entity_pointer_message
  00653	50		 push	 eax
  00654	e8 00 00 00 00	 call	 ?process_assert@@YGXPBD0H@Z ; process_assert
  00659	c7 45 a0 00 00
	00 00		 mov	 DWORD PTR tv340[ebp], 0
$LN65@process_me:
  00660	b9 01 00 00 00	 mov	 ecx, 1
  00665	85 c9		 test	 ecx, ecx
  00667	74 09		 je	 SHORT $LN66@process_me
  00669	c7 45 9c 19 00
	00 00		 mov	 DWORD PTR tv348[ebp], 25 ; 00000019H
  00670	eb 21		 jmp	 SHORT $LN67@process_me
$LN66@process_me:
  00672	8b 15 00 00 00
	00		 mov	 edx, DWORD PTR ?__LINE__Var@?0??process_message_request_airstrike@@YGXPAUENTITY@@@Z@4JA
  00678	83 c2 51	 add	 edx, 81			; 00000051H
  0067b	52		 push	 edx
  0067c	68 00 00 00 00	 push	 OFFSET ??_C@_0DK@BLKECLAG@c?3?2users?2nhv90?2projects?2eech?2ap@
  00681	a1 00 00 00 00	 mov	 eax, DWORD PTR ?overload_invalid_list_type_message@@3PBDB ; overload_invalid_list_type_message
  00686	50		 push	 eax
  00687	e8 00 00 00 00	 call	 ?process_assert@@YGXPBD0H@Z ; process_assert
  0068c	c7 45 9c 00 00
	00 00		 mov	 DWORD PTR tv348[ebp], 0
$LN67@process_me:
  00693	6a 19		 push	 25			; 00000019H
  00695	8b 4d fc	 mov	 ecx, DWORD PTR _target$[ebp]
  00698	51		 push	 ecx
  00699	69 55 a0 b4 00
	00 00		 imul	 edx, DWORD PTR tv340[ebp], 180
  006a0	8b 45 9c	 mov	 eax, DWORD PTR tv348[ebp]
  006a3	8b 8c 82 00 00
	00 00		 mov	 ecx, DWORD PTR ?fn_get_local_entity_parent@@3PAY0CN@P6GPAUENTITY@@PAU1@W4LIST_TYPES@@@ZA[edx+eax*4]
  006aa	ff d1		 call	 ecx
  006ac	89 45 f8	 mov	 DWORD PTR _task_objective$[ebp], eax

; 2020 : 
; 2021 : 					if (task_objective)

  006af	83 7d f8 00	 cmp	 DWORD PTR _task_objective$[ebp], 0
  006b3	74 43		 je	 SHORT $LN17@process_me

; 2022 : 					{
; 2023 : 						if (!entity_is_object_of_task (task_objective, ENTITY_SUB_TYPE_TASK_CLOSE_AIR_SUPPORT, side))

  006b5	8b 45 e8	 mov	 eax, DWORD PTR _side$[ebp]
  006b8	50		 push	 eax
  006b9	6a 06		 push	 6
  006bb	8b 4d f8	 mov	 ecx, DWORD PTR _task_objective$[ebp]
  006be	51		 push	 ecx
  006bf	e8 00 00 00 00	 call	 ?entity_is_object_of_task@@YGHPAUENTITY@@HW4ENTITY_SIDES@@@Z ; entity_is_object_of_task
  006c4	85 c0		 test	 eax, eax
  006c6	75 30		 jne	 SHORT $LN17@process_me

; 2024 : 						{
; 2025 : 							new_task = create_close_air_support_task (side, task_objective, group, TRUE, task_database [ENTITY_SUB_TYPE_TASK_CLOSE_AIR_SUPPORT].task_priority, NULL, NULL);

  006c8	6a 00		 push	 0
  006ca	6a 00		 push	 0
  006cc	b8 50 00 00 00	 mov	 eax, 80			; 00000050H
  006d1	6b c8 06	 imul	 ecx, eax, 6
  006d4	51		 push	 ecx
  006d5	f3 0f 10 81 10
	00 00 00	 movss	 xmm0, DWORD PTR ?task_database@@3PAUTASK_DATA@@A[ecx+16]
  006dd	f3 0f 11 04 24	 movss	 DWORD PTR [esp], xmm0
  006e2	6a 01		 push	 1
  006e4	8b 55 f4	 mov	 edx, DWORD PTR _group$[ebp]
  006e7	52		 push	 edx
  006e8	8b 45 f8	 mov	 eax, DWORD PTR _task_objective$[ebp]
  006eb	50		 push	 eax
  006ec	8b 4d e8	 mov	 ecx, DWORD PTR _side$[ebp]
  006ef	51		 push	 ecx
  006f0	e8 00 00 00 00	 call	 ?create_close_air_support_task@@YGPAUENTITY@@W4ENTITY_SIDES@@PAU1@1HM11@Z ; create_close_air_support_task
  006f5	89 45 ec	 mov	 DWORD PTR _new_task$[ebp], eax
$LN17@process_me:
$LN2@process_me:

; 2026 : 						}
; 2027 : 					}
; 2028 : 
; 2029 : 					break;
; 2030 : 				}
; 2031 : 			}
; 2032 : 
; 2033 : 			if (new_task)

  006f8	83 7d ec 00	 cmp	 DWORD PTR _new_task$[ebp], 0
  006fc	0f 84 0a 01 00
	00		 je	 $LN20@process_me

; 2034 : 			{
; 2035 : 				assigned_group = get_suitable_registered_group (new_task, NULL);

  00702	6a 00		 push	 0
  00704	8b 45 ec	 mov	 eax, DWORD PTR _new_task$[ebp]
  00707	50		 push	 eax
  00708	e8 00 00 00 00	 call	 ?get_suitable_registered_group@@YGPAUENTITY@@PAU1@PAH@Z ; get_suitable_registered_group
  0070d	89 45 f0	 mov	 DWORD PTR _assigned_group$[ebp], eax

; 2036 : 
; 2037 : 				if (assigned_group)

  00710	83 7d f0 00	 cmp	 DWORD PTR _assigned_group$[ebp], 0
  00714	0f 84 f2 00 00
	00		 je	 $LN20@process_me

; 2038 : 				{
; 2039 : 					if (assign_primary_task_to_group (assigned_group, new_task))

  0071a	8b 45 ec	 mov	 eax, DWORD PTR _new_task$[ebp]
  0071d	50		 push	 eax
  0071e	8b 4d f0	 mov	 ecx, DWORD PTR _assigned_group$[ebp]
  00721	51		 push	 ecx
  00722	e8 00 00 00 00	 call	 ?assign_primary_task_to_group@@YGHPAUENTITY@@0@Z ; assign_primary_task_to_group
  00727	85 c0		 test	 eax, eax
  00729	0f 84 dd 00 00
	00		 je	 $LN20@process_me

; 2040 : 					{
; 2041 : 						//
; 2042 : 						// Affirmative response speech...
; 2043 : 						//
; 2044 : 
; 2045 : 						play_client_server_speech

  0072f	83 7d 08 00	 cmp	 DWORD PTR _en$[ebp], 0
  00733	74 0a		 je	 SHORT $LN68@process_me
  00735	8b 45 08	 mov	 eax, DWORD PTR _en$[ebp]
  00738	8b 08		 mov	 ecx, DWORD PTR [eax]
  0073a	89 4d a0	 mov	 DWORD PTR tv402[ebp], ecx
  0073d	eb 21		 jmp	 SHORT $LN69@process_me
$LN68@process_me:
  0073f	8b 15 00 00 00
	00		 mov	 edx, DWORD PTR ?__LINE__Var@?0??process_message_request_airstrike@@YGXPAUENTITY@@@Z@4JA
  00745	83 c2 6f	 add	 edx, 111		; 0000006fH
  00748	52		 push	 edx
  00749	68 00 00 00 00	 push	 OFFSET ??_C@_0DK@BLKECLAG@c?3?2users?2nhv90?2projects?2eech?2ap@
  0074e	a1 00 00 00 00	 mov	 eax, DWORD PTR ?null_entity_pointer_message@@3PBDB ; null_entity_pointer_message
  00753	50		 push	 eax
  00754	e8 00 00 00 00	 call	 ?process_assert@@YGXPBD0H@Z ; process_assert
  00759	c7 45 a0 00 00
	00 00		 mov	 DWORD PTR tv402[ebp], 0
$LN69@process_me:
  00760	b9 01 00 00 00	 mov	 ecx, 1
  00765	85 c9		 test	 ecx, ecx
  00767	74 09		 je	 SHORT $LN70@process_me
  00769	c7 45 9c bb 00
	00 00		 mov	 DWORD PTR tv410[ebp], 187 ; 000000bbH
  00770	eb 21		 jmp	 SHORT $LN71@process_me
$LN70@process_me:
  00772	8b 15 00 00 00
	00		 mov	 edx, DWORD PTR ?__LINE__Var@?0??process_message_request_airstrike@@YGXPAUENTITY@@@Z@4JA
  00778	83 c2 6f	 add	 edx, 111		; 0000006fH
  0077b	52		 push	 edx
  0077c	68 00 00 00 00	 push	 OFFSET ??_C@_0DK@BLKECLAG@c?3?2users?2nhv90?2projects?2eech?2ap@
  00781	a1 00 00 00 00	 mov	 eax, DWORD PTR ?overload_invalid_int_type_message@@3PBDB ; overload_invalid_int_type_message
  00786	50		 push	 eax
  00787	e8 00 00 00 00	 call	 ?process_assert@@YGXPBD0H@Z ; process_assert
  0078c	c7 45 9c 00 00
	00 00		 mov	 DWORD PTR tv410[ebp], 0
$LN71@process_me:
  00793	6a ff		 push	 -1
  00795	6a 02		 push	 2
  00797	6a 06		 push	 6
  00799	6a 00		 push	 0
  0079b	6a 06		 push	 6
  0079d	51		 push	 ecx
  0079e	f3 0f 10 05 00
	00 00 00	 movss	 xmm0, DWORD PTR __real@bf800000
  007a6	f3 0f 11 04 24	 movss	 DWORD PTR [esp], xmm0
  007ab	6a 0c		 push	 12			; 0000000cH
  007ad	6a 05		 push	 5
  007af	51		 push	 ecx
  007b0	f3 0f 10 05 00
	00 00 00	 movss	 xmm0, DWORD PTR __real@41a00000
  007b8	f3 0f 11 04 24	 movss	 DWORD PTR [esp], xmm0
  007bd	51		 push	 ecx
  007be	f3 0f 10 05 00
	00 00 00	 movss	 xmm0, DWORD PTR __real@3f800000
  007c6	f3 0f 11 04 24	 movss	 DWORD PTR [esp], xmm0
  007cb	51		 push	 ecx
  007cc	0f 57 c0	 xorps	 xmm0, xmm0
  007cf	f3 0f 11 04 24	 movss	 DWORD PTR [esp], xmm0
  007d4	6a 00		 push	 0
  007d6	6a 1e		 push	 30			; 0000001eH
  007d8	68 bb 00 00 00	 push	 187			; 000000bbH
  007dd	8b 4d 08	 mov	 ecx, DWORD PTR _en$[ebp]
  007e0	51		 push	 ecx
  007e1	69 55 a0 5c 04
	00 00		 imul	 edx, DWORD PTR tv402[ebp], 1116
  007e8	8b 45 9c	 mov	 eax, DWORD PTR tv410[ebp]
  007eb	8b 8c 82 00 00
	00 00		 mov	 ecx, DWORD PTR ?fn_get_local_entity_int_value@@3PAY0BBH@P6GHPAUENTITY@@W4INT_TYPES@@@ZA[edx+eax*4]
  007f2	ff d1		 call	 ecx
  007f4	50		 push	 eax
  007f5	8b 55 08	 mov	 edx, DWORD PTR _en$[ebp]
  007f8	52		 push	 edx
  007f9	a1 00 00 00 00	 mov	 eax, DWORD PTR ?session_entity@@3PAUENTITY@@A ; session_entity
  007fe	50		 push	 eax
  007ff	e8 00 00 00 00	 call	 ?play_client_server_speech@@YAHPAUENTITY@@0W4ENTITY_SIDES@@HW4SOUND_LOCALITY_TYPES@@MMMW4speech_originator_types@@W4speech_category_types@@MZZ ; play_client_server_speech
  00804	83 c4 40	 add	 esp, 64			; 00000040H

; 2046 : 						(
; 2047 : 							get_session_entity (),
; 2048 : 							en,
; 2049 : 							(entity_sides) get_local_entity_int_value (en, INT_TYPE_SIDE),
; 2050 : 							ENTITY_SUB_TYPE_EFFECT_SOUND_RADIO_MESSAGE,
; 2051 : 							SOUND_LOCALITY_RADIO,
; 2052 : 							0.0,
; 2053 : 							1.0,
; 2054 : 							20.0,
; 2055 : 							SPEECH_ORIGINATOR_FORWARD_AIR_CONTROLLER,
; 2056 : 							SPEECH_CATEGORY_RADIO_RESPONSE,
; 2057 : 							-1.0,
; 2058 : 							SPEECH_ARRAY_FAC_MESSAGES, SPEECH_FAC_INTRODUCTION,
; 2059 : 							SPEECH_ARRAY_FAC_MESSAGES, SPEECH_FAC_REQUEST_ACCEPTED,
; 2060 : 							-1
; 2061 : 						);
; 2062 : 
; 2063 : 						return;

  00807	e9 de 00 00 00	 jmp	 $LN1@process_me
$LN20@process_me:

; 2064 : 					}
; 2065 : 				}
; 2066 : 			}
; 2067 : 
; 2068 : 			//
; 2069 : 			// Negative response speech...
; 2070 : 			//
; 2071 : 
; 2072 : 			play_client_server_speech

  0080c	83 7d 08 00	 cmp	 DWORD PTR _en$[ebp], 0
  00810	74 0a		 je	 SHORT $LN72@process_me
  00812	8b 45 08	 mov	 eax, DWORD PTR _en$[ebp]
  00815	8b 08		 mov	 ecx, DWORD PTR [eax]
  00817	89 4d a0	 mov	 DWORD PTR tv438[ebp], ecx
  0081a	eb 24		 jmp	 SHORT $LN73@process_me
$LN72@process_me:
  0081c	8b 15 00 00 00
	00		 mov	 edx, DWORD PTR ?__LINE__Var@?0??process_message_request_airstrike@@YGXPAUENTITY@@@Z@4JA
  00822	81 c2 8a 00 00
	00		 add	 edx, 138		; 0000008aH
  00828	52		 push	 edx
  00829	68 00 00 00 00	 push	 OFFSET ??_C@_0DK@BLKECLAG@c?3?2users?2nhv90?2projects?2eech?2ap@
  0082e	a1 00 00 00 00	 mov	 eax, DWORD PTR ?null_entity_pointer_message@@3PBDB ; null_entity_pointer_message
  00833	50		 push	 eax
  00834	e8 00 00 00 00	 call	 ?process_assert@@YGXPBD0H@Z ; process_assert
  00839	c7 45 a0 00 00
	00 00		 mov	 DWORD PTR tv438[ebp], 0
$LN73@process_me:
  00840	b9 01 00 00 00	 mov	 ecx, 1
  00845	85 c9		 test	 ecx, ecx
  00847	74 09		 je	 SHORT $LN74@process_me
  00849	c7 45 9c bb 00
	00 00		 mov	 DWORD PTR tv446[ebp], 187 ; 000000bbH
  00850	eb 24		 jmp	 SHORT $LN75@process_me
$LN74@process_me:
  00852	8b 15 00 00 00
	00		 mov	 edx, DWORD PTR ?__LINE__Var@?0??process_message_request_airstrike@@YGXPAUENTITY@@@Z@4JA
  00858	81 c2 8a 00 00
	00		 add	 edx, 138		; 0000008aH
  0085e	52		 push	 edx
  0085f	68 00 00 00 00	 push	 OFFSET ??_C@_0DK@BLKECLAG@c?3?2users?2nhv90?2projects?2eech?2ap@
  00864	a1 00 00 00 00	 mov	 eax, DWORD PTR ?overload_invalid_int_type_message@@3PBDB ; overload_invalid_int_type_message
  00869	50		 push	 eax
  0086a	e8 00 00 00 00	 call	 ?process_assert@@YGXPBD0H@Z ; process_assert
  0086f	c7 45 9c 00 00
	00 00		 mov	 DWORD PTR tv446[ebp], 0
$LN75@process_me:
  00876	6a ff		 push	 -1
  00878	6a 03		 push	 3
  0087a	6a 06		 push	 6
  0087c	6a 00		 push	 0
  0087e	6a 06		 push	 6
  00880	51		 push	 ecx
  00881	f3 0f 10 05 00
	00 00 00	 movss	 xmm0, DWORD PTR __real@bf800000
  00889	f3 0f 11 04 24	 movss	 DWORD PTR [esp], xmm0
  0088e	6a 0c		 push	 12			; 0000000cH
  00890	6a 05		 push	 5
  00892	51		 push	 ecx
  00893	f3 0f 10 05 00
	00 00 00	 movss	 xmm0, DWORD PTR __real@41a00000
  0089b	f3 0f 11 04 24	 movss	 DWORD PTR [esp], xmm0
  008a0	51		 push	 ecx
  008a1	f3 0f 10 05 00
	00 00 00	 movss	 xmm0, DWORD PTR __real@3f800000
  008a9	f3 0f 11 04 24	 movss	 DWORD PTR [esp], xmm0
  008ae	51		 push	 ecx
  008af	0f 57 c0	 xorps	 xmm0, xmm0
  008b2	f3 0f 11 04 24	 movss	 DWORD PTR [esp], xmm0
  008b7	6a 00		 push	 0
  008b9	6a 1e		 push	 30			; 0000001eH
  008bb	68 bb 00 00 00	 push	 187			; 000000bbH
  008c0	8b 4d 08	 mov	 ecx, DWORD PTR _en$[ebp]
  008c3	51		 push	 ecx
  008c4	69 55 a0 5c 04
	00 00		 imul	 edx, DWORD PTR tv438[ebp], 1116
  008cb	8b 45 9c	 mov	 eax, DWORD PTR tv446[ebp]
  008ce	8b 8c 82 00 00
	00 00		 mov	 ecx, DWORD PTR ?fn_get_local_entity_int_value@@3PAY0BBH@P6GHPAUENTITY@@W4INT_TYPES@@@ZA[edx+eax*4]
  008d5	ff d1		 call	 ecx
  008d7	50		 push	 eax
  008d8	8b 55 08	 mov	 edx, DWORD PTR _en$[ebp]
  008db	52		 push	 edx
  008dc	a1 00 00 00 00	 mov	 eax, DWORD PTR ?session_entity@@3PAUENTITY@@A ; session_entity
  008e1	50		 push	 eax
  008e2	e8 00 00 00 00	 call	 ?play_client_server_speech@@YAHPAUENTITY@@0W4ENTITY_SIDES@@HW4SOUND_LOCALITY_TYPES@@MMMW4speech_originator_types@@W4speech_category_types@@MZZ ; play_client_server_speech
  008e7	83 c4 40	 add	 esp, 64			; 00000040H
$LN6@process_me:
$LN1@process_me:

; 2073 : 			(
; 2074 : 				get_session_entity (),
; 2075 : 				en,
; 2076 : 				(entity_sides) get_local_entity_int_value (en, INT_TYPE_SIDE),
; 2077 : 				ENTITY_SUB_TYPE_EFFECT_SOUND_RADIO_MESSAGE,
; 2078 : 				SOUND_LOCALITY_RADIO,
; 2079 : 				0.0,
; 2080 : 				1.0,
; 2081 : 				20.0,
; 2082 : 				SPEECH_ORIGINATOR_FORWARD_AIR_CONTROLLER,
; 2083 : 				SPEECH_CATEGORY_RADIO_RESPONSE,
; 2084 : 				-1.0,
; 2085 : 				SPEECH_ARRAY_FAC_MESSAGES, SPEECH_FAC_INTRODUCTION,
; 2086 : 				SPEECH_ARRAY_FAC_MESSAGES, SPEECH_FAC_REQUEST_DENIED,
; 2087 : 				-1
; 2088 : 			);
; 2089 : 		}
; 2090 : 	}
; 2091 : }

  008ea	5f		 pop	 edi
  008eb	5e		 pop	 esi
  008ec	5b		 pop	 ebx
  008ed	8b e5		 mov	 esp, ebp
  008ef	5d		 pop	 ebp
  008f0	c2 04 00	 ret	 4
  008f3	90		 npad	 1
$LN77@process_me:
  008f4	00 00 00 00	 DD	 $LN12@process_me
  008f8	00 00 00 00	 DD	 $LN15@process_me
  008fc	00 00 00 00	 DD	 $LN7@process_me
  00900	00 00 00 00	 DD	 $LN2@process_me
$LN76@process_me:
  00904	00		 DB	 0
  00905	03		 DB	 3
  00906	03		 DB	 3
  00907	03		 DB	 3
  00908	03		 DB	 3
  00909	03		 DB	 3
  0090a	03		 DB	 3
  0090b	03		 DB	 3
  0090c	03		 DB	 3
  0090d	03		 DB	 3
  0090e	03		 DB	 3
  0090f	03		 DB	 3
  00910	03		 DB	 3
  00911	03		 DB	 3
  00912	03		 DB	 3
  00913	03		 DB	 3
  00914	03		 DB	 3
  00915	03		 DB	 3
  00916	03		 DB	 3
  00917	03		 DB	 3
  00918	03		 DB	 3
  00919	03		 DB	 3
  0091a	01		 DB	 1
  0091b	03		 DB	 3
  0091c	03		 DB	 3
  0091d	03		 DB	 3
  0091e	03		 DB	 3
  0091f	03		 DB	 3
  00920	02		 DB	 2
  00921	02		 DB	 2
?process_message_request_airstrike@@YGXPAUENTITY@@@Z ENDP ; process_message_request_airstrike
_TEXT	ENDS
; Function compile flags: /Odtp /ZI
; File c:\users\nhv90\projects\eech\aphavoc\source\misc\msg_in.c
;	COMDAT ?process_message_change_formation@@YGXPAUENTITY@@0H@Z
_TEXT	SEGMENT
tv95 = -72						; size = 4
tv87 = -68						; size = 4
tv75 = -68						; size = 4
_en$ = 8						; size = 4
_group$ = 12						; size = 4
_new_formation$ = 16					; size = 4
?process_message_change_formation@@YGXPAUENTITY@@0H@Z PROC ; process_message_change_formation, COMDAT

; 1921 : {

  00000	55		 push	 ebp
  00001	8b ec		 mov	 ebp, esp
  00003	83 ec 48	 sub	 esp, 72			; 00000048H
  00006	53		 push	 ebx
  00007	56		 push	 esi
  00008	57		 push	 edi

; 1922 : 	ASSERT (group);

  00009	83 7d 0c 00	 cmp	 DWORD PTR _group$[ebp], 0
  0000d	75 18		 jne	 SHORT $LN2@process_me
  0000f	a1 00 00 00 00	 mov	 eax, DWORD PTR ?__LINE__Var@?0??process_message_change_formation@@YGXPAUENTITY@@0H@Z@4JA
  00014	83 c0 01	 add	 eax, 1
  00017	50		 push	 eax
  00018	68 00 00 00 00	 push	 OFFSET ??_C@_0DK@BLKECLAG@c?3?2users?2nhv90?2projects?2eech?2ap@
  0001d	68 00 00 00 00	 push	 OFFSET ??_C@_05MGJOOGAJ@group@
  00022	e8 00 00 00 00	 call	 ?process_assert@@YGXPBD0H@Z ; process_assert
$LN2@process_me:

; 1923 : 
; 1924 : 	ASSERT (get_local_entity_type (group) == ENTITY_TYPE_GROUP);

  00027	83 7d 0c 00	 cmp	 DWORD PTR _group$[ebp], 0
  0002b	74 0a		 je	 SHORT $LN5@process_me
  0002d	8b 45 0c	 mov	 eax, DWORD PTR _group$[ebp]
  00030	8b 08		 mov	 ecx, DWORD PTR [eax]
  00032	89 4d bc	 mov	 DWORD PTR tv75[ebp], ecx
  00035	eb 21		 jmp	 SHORT $LN6@process_me
$LN5@process_me:
  00037	8b 15 00 00 00
	00		 mov	 edx, DWORD PTR ?__LINE__Var@?0??process_message_change_formation@@YGXPAUENTITY@@0H@Z@4JA
  0003d	83 c2 03	 add	 edx, 3
  00040	52		 push	 edx
  00041	68 00 00 00 00	 push	 OFFSET ??_C@_0DK@BLKECLAG@c?3?2users?2nhv90?2projects?2eech?2ap@
  00046	a1 00 00 00 00	 mov	 eax, DWORD PTR ?null_entity_pointer_message@@3PBDB ; null_entity_pointer_message
  0004b	50		 push	 eax
  0004c	e8 00 00 00 00	 call	 ?process_assert@@YGXPBD0H@Z ; process_assert
  00051	c7 45 bc 00 00
	00 00		 mov	 DWORD PTR tv75[ebp], 0
$LN6@process_me:
  00058	83 7d bc 0c	 cmp	 DWORD PTR tv75[ebp], 12	; 0000000cH
  0005c	74 18		 je	 SHORT $LN3@process_me
  0005e	a1 00 00 00 00	 mov	 eax, DWORD PTR ?__LINE__Var@?0??process_message_change_formation@@YGXPAUENTITY@@0H@Z@4JA
  00063	83 c0 03	 add	 eax, 3
  00066	50		 push	 eax
  00067	68 00 00 00 00	 push	 OFFSET ??_C@_0DK@BLKECLAG@c?3?2users?2nhv90?2projects?2eech?2ap@
  0006c	68 00 00 00 00	 push	 OFFSET ??_C@_0DD@GDEINBAL@get_local_entity_type?5?$CIgroup?$CJ?5?$DN@
  00071	e8 00 00 00 00	 call	 ?process_assert@@YGXPBD0H@Z ; process_assert
$LN3@process_me:

; 1925 : 
; 1926 : 	set_client_server_entity_int_value (group, INT_TYPE_GROUP_FORMATION, new_formation);

  00076	83 7d 0c 00	 cmp	 DWORD PTR _group$[ebp], 0
  0007a	74 0a		 je	 SHORT $LN7@process_me
  0007c	8b 45 0c	 mov	 eax, DWORD PTR _group$[ebp]
  0007f	8b 08		 mov	 ecx, DWORD PTR [eax]
  00081	89 4d bc	 mov	 DWORD PTR tv87[ebp], ecx
  00084	eb 21		 jmp	 SHORT $LN8@process_me
$LN7@process_me:
  00086	8b 15 00 00 00
	00		 mov	 edx, DWORD PTR ?__LINE__Var@?0??process_message_change_formation@@YGXPAUENTITY@@0H@Z@4JA
  0008c	83 c2 05	 add	 edx, 5
  0008f	52		 push	 edx
  00090	68 00 00 00 00	 push	 OFFSET ??_C@_0DK@BLKECLAG@c?3?2users?2nhv90?2projects?2eech?2ap@
  00095	a1 00 00 00 00	 mov	 eax, DWORD PTR ?null_entity_pointer_message@@3PBDB ; null_entity_pointer_message
  0009a	50		 push	 eax
  0009b	e8 00 00 00 00	 call	 ?process_assert@@YGXPBD0H@Z ; process_assert
  000a0	c7 45 bc 00 00
	00 00		 mov	 DWORD PTR tv87[ebp], 0
$LN8@process_me:
  000a7	b9 01 00 00 00	 mov	 ecx, 1
  000ac	85 c9		 test	 ecx, ecx
  000ae	74 09		 je	 SHORT $LN9@process_me
  000b0	c7 45 b8 47 00
	00 00		 mov	 DWORD PTR tv95[ebp], 71	; 00000047H
  000b7	eb 21		 jmp	 SHORT $LN10@process_me
$LN9@process_me:
  000b9	8b 15 00 00 00
	00		 mov	 edx, DWORD PTR ?__LINE__Var@?0??process_message_change_formation@@YGXPAUENTITY@@0H@Z@4JA
  000bf	83 c2 05	 add	 edx, 5
  000c2	52		 push	 edx
  000c3	68 00 00 00 00	 push	 OFFSET ??_C@_0DK@BLKECLAG@c?3?2users?2nhv90?2projects?2eech?2ap@
  000c8	a1 00 00 00 00	 mov	 eax, DWORD PTR ?overload_invalid_int_type_message@@3PBDB ; overload_invalid_int_type_message
  000cd	50		 push	 eax
  000ce	e8 00 00 00 00	 call	 ?process_assert@@YGXPBD0H@Z ; process_assert
  000d3	c7 45 b8 00 00
	00 00		 mov	 DWORD PTR tv95[ebp], 0
$LN10@process_me:
  000da	8b 4d 10	 mov	 ecx, DWORD PTR _new_formation$[ebp]
  000dd	51		 push	 ecx
  000de	6a 47		 push	 71			; 00000047H
  000e0	8b 55 0c	 mov	 edx, DWORD PTR _group$[ebp]
  000e3	52		 push	 edx
  000e4	69 45 bc b8 08
	00 00		 imul	 eax, DWORD PTR tv87[ebp], 2232
  000eb	8b 4d b8	 mov	 ecx, DWORD PTR tv95[ebp]
  000ee	8d 94 c8 00 00
	00 00		 lea	 edx, DWORD PTR ?fn_set_client_server_entity_int_value@@3PAY1BBH@1P6GXPAUENTITY@@W4INT_TYPES@@H@ZA[eax+ecx*8]
  000f5	a1 00 00 00 00	 mov	 eax, DWORD PTR ?system_comms_model@@3W4COMMS_MODEL_TYPES@@A ; system_comms_model
  000fa	8b 0c 82	 mov	 ecx, DWORD PTR [edx+eax*4]
  000fd	ff d1		 call	 ecx

; 1927 : 
; 1928 : 	play_client_server_radio_message_affirmative_response (group, SPEECH_WINGMAN_ROGER_MOVING_INTO_ORDERED_POSITION, 0.1, 5.0);

  000ff	51		 push	 ecx
  00100	f3 0f 10 05 00
	00 00 00	 movss	 xmm0, DWORD PTR __real@40a00000
  00108	f3 0f 11 04 24	 movss	 DWORD PTR [esp], xmm0
  0010d	51		 push	 ecx
  0010e	f3 0f 10 05 00
	00 00 00	 movss	 xmm0, DWORD PTR __real@3dcccccd
  00116	f3 0f 11 04 24	 movss	 DWORD PTR [esp], xmm0
  0011b	6a 1e		 push	 30			; 0000001eH
  0011d	8b 45 0c	 mov	 eax, DWORD PTR _group$[ebp]
  00120	50		 push	 eax
  00121	e8 00 00 00 00	 call	 ?play_client_server_radio_message_affirmative_response@@YGXPAUENTITY@@HMM@Z ; play_client_server_radio_message_affirmative_response

; 1929 : }

  00126	5f		 pop	 edi
  00127	5e		 pop	 esi
  00128	5b		 pop	 ebx
  00129	8b e5		 mov	 esp, ebp
  0012b	5d		 pop	 ebp
  0012c	c2 0c 00	 ret	 12			; 0000000cH
?process_message_change_formation@@YGXPAUENTITY@@0H@Z ENDP ; process_message_change_formation
_TEXT	ENDS
; Function compile flags: /Odtp /ZI
; File c:\users\nhv90\projects\eech\aphavoc\source\misc\msg_in.c
;	COMDAT ?process_message_bob_up@@YGXPAUENTITY@@0@Z
_TEXT	SEGMENT
tv227 = -80						; size = 4
tv208 = -80						; size = 4
tv188 = -80						; size = 4
tv163 = -80						; size = 4
tv141 = -80						; size = 4
tv90 = -80						; size = 4
tv220 = -76						; size = 4
tv200 = -76						; size = 4
tv180 = -76						; size = 4
tv155 = -76						; size = 4
tv134 = -76						; size = 4
tv82 = -76						; size = 4
tv74 = -76						; size = 4
_follower$ = -8						; size = 4
_guide$ = -4						; size = 4
_en$ = 8						; size = 4
_wingman$ = 12						; size = 4
?process_message_bob_up@@YGXPAUENTITY@@0@Z PROC		; process_message_bob_up, COMDAT

; 1872 : {

  00000	55		 push	 ebp
  00001	8b ec		 mov	 ebp, esp
  00003	83 ec 50	 sub	 esp, 80			; 00000050H
  00006	53		 push	 ebx
  00007	56		 push	 esi
  00008	57		 push	 edi

; 1873 : 	entity
; 1874 : 		*guide,
; 1875 : 		*follower;
; 1876 : 
; 1877 : 	ASSERT (wingman);

  00009	83 7d 0c 00	 cmp	 DWORD PTR _wingman$[ebp], 0
  0000d	75 18		 jne	 SHORT $LN4@process_me
  0000f	a1 00 00 00 00	 mov	 eax, DWORD PTR ?__LINE__Var@?0??process_message_bob_up@@YGXPAUENTITY@@0@Z@4JA
  00014	83 c0 05	 add	 eax, 5
  00017	50		 push	 eax
  00018	68 00 00 00 00	 push	 OFFSET ??_C@_0DK@BLKECLAG@c?3?2users?2nhv90?2projects?2eech?2ap@
  0001d	68 00 00 00 00	 push	 OFFSET ??_C@_07EAKNLMLO@wingman@
  00022	e8 00 00 00 00	 call	 ?process_assert@@YGXPBD0H@Z ; process_assert
$LN4@process_me:

; 1878 : 
; 1879 : 	if (get_local_entity_type (wingman) == ENTITY_TYPE_GROUP)

  00027	83 7d 0c 00	 cmp	 DWORD PTR _wingman$[ebp], 0
  0002b	74 0a		 je	 SHORT $LN12@process_me
  0002d	8b 45 0c	 mov	 eax, DWORD PTR _wingman$[ebp]
  00030	8b 08		 mov	 ecx, DWORD PTR [eax]
  00032	89 4d b4	 mov	 DWORD PTR tv74[ebp], ecx
  00035	eb 1d		 jmp	 SHORT $LN13@process_me
$LN12@process_me:
  00037	68 57 07 00 00	 push	 1879			; 00000757H
  0003c	68 00 00 00 00	 push	 OFFSET ??_C@_0DK@BLKECLAG@c?3?2users?2nhv90?2projects?2eech?2ap@
  00041	8b 15 00 00 00
	00		 mov	 edx, DWORD PTR ?null_entity_pointer_message@@3PBDB ; null_entity_pointer_message
  00047	52		 push	 edx
  00048	e8 00 00 00 00	 call	 ?process_assert@@YGXPBD0H@Z ; process_assert
  0004d	c7 45 b4 00 00
	00 00		 mov	 DWORD PTR tv74[ebp], 0
$LN13@process_me:
  00054	83 7d b4 0c	 cmp	 DWORD PTR tv74[ebp], 12	; 0000000cH
  00058	0f 85 48 02 00
	00		 jne	 $LN5@process_me

; 1880 : 	{
; 1881 : 		guide = get_local_entity_first_child (wingman, LIST_TYPE_GUIDE_STACK);

  0005e	83 7d 0c 00	 cmp	 DWORD PTR _wingman$[ebp], 0
  00062	74 0a		 je	 SHORT $LN14@process_me
  00064	8b 45 0c	 mov	 eax, DWORD PTR _wingman$[ebp]
  00067	8b 08		 mov	 ecx, DWORD PTR [eax]
  00069	89 4d b4	 mov	 DWORD PTR tv82[ebp], ecx
  0006c	eb 21		 jmp	 SHORT $LN15@process_me
$LN14@process_me:
  0006e	8b 15 00 00 00
	00		 mov	 edx, DWORD PTR ?__LINE__Var@?0??process_message_bob_up@@YGXPAUENTITY@@0@Z@4JA
  00074	83 c2 09	 add	 edx, 9
  00077	52		 push	 edx
  00078	68 00 00 00 00	 push	 OFFSET ??_C@_0DK@BLKECLAG@c?3?2users?2nhv90?2projects?2eech?2ap@
  0007d	a1 00 00 00 00	 mov	 eax, DWORD PTR ?null_entity_pointer_message@@3PBDB ; null_entity_pointer_message
  00082	50		 push	 eax
  00083	e8 00 00 00 00	 call	 ?process_assert@@YGXPBD0H@Z ; process_assert
  00088	c7 45 b4 00 00
	00 00		 mov	 DWORD PTR tv82[ebp], 0
$LN15@process_me:
  0008f	b9 01 00 00 00	 mov	 ecx, 1
  00094	85 c9		 test	 ecx, ecx
  00096	74 09		 je	 SHORT $LN16@process_me
  00098	c7 45 b0 11 00
	00 00		 mov	 DWORD PTR tv90[ebp], 17	; 00000011H
  0009f	eb 21		 jmp	 SHORT $LN17@process_me
$LN16@process_me:
  000a1	8b 15 00 00 00
	00		 mov	 edx, DWORD PTR ?__LINE__Var@?0??process_message_bob_up@@YGXPAUENTITY@@0@Z@4JA
  000a7	83 c2 09	 add	 edx, 9
  000aa	52		 push	 edx
  000ab	68 00 00 00 00	 push	 OFFSET ??_C@_0DK@BLKECLAG@c?3?2users?2nhv90?2projects?2eech?2ap@
  000b0	a1 00 00 00 00	 mov	 eax, DWORD PTR ?overload_invalid_list_type_message@@3PBDB ; overload_invalid_list_type_message
  000b5	50		 push	 eax
  000b6	e8 00 00 00 00	 call	 ?process_assert@@YGXPBD0H@Z ; process_assert
  000bb	c7 45 b0 00 00
	00 00		 mov	 DWORD PTR tv90[ebp], 0
$LN17@process_me:
  000c2	6a 11		 push	 17			; 00000011H
  000c4	8b 4d 0c	 mov	 ecx, DWORD PTR _wingman$[ebp]
  000c7	51		 push	 ecx
  000c8	69 55 b4 b4 00
	00 00		 imul	 edx, DWORD PTR tv82[ebp], 180
  000cf	8b 45 b0	 mov	 eax, DWORD PTR tv90[ebp]
  000d2	8b 8c 82 00 00
	00 00		 mov	 ecx, DWORD PTR ?fn_get_local_entity_first_child@@3PAY0CN@P6GPAUENTITY@@PAU1@W4LIST_TYPES@@@ZA[edx+eax*4]
  000d9	ff d1		 call	 ecx
  000db	89 45 fc	 mov	 DWORD PTR _guide$[ebp], eax
$LN2@process_me:

; 1882 : 
; 1883 : 		while (guide)

  000de	83 7d fc 00	 cmp	 DWORD PTR _guide$[ebp], 0
  000e2	0f 84 b9 01 00
	00		 je	 $LN3@process_me

; 1884 : 		{
; 1885 : 			if (get_local_entity_int_value (guide, INT_TYPE_ENTITY_SUB_TYPE) == ENTITY_SUB_TYPE_GUIDE_ATTACK_AG_TAKE_COVER)

  000e8	83 7d fc 00	 cmp	 DWORD PTR _guide$[ebp], 0
  000ec	74 0a		 je	 SHORT $LN18@process_me
  000ee	8b 45 fc	 mov	 eax, DWORD PTR _guide$[ebp]
  000f1	8b 08		 mov	 ecx, DWORD PTR [eax]
  000f3	89 4d b4	 mov	 DWORD PTR tv134[ebp], ecx
  000f6	eb 1d		 jmp	 SHORT $LN19@process_me
$LN18@process_me:
  000f8	68 5d 07 00 00	 push	 1885			; 0000075dH
  000fd	68 00 00 00 00	 push	 OFFSET ??_C@_0DK@BLKECLAG@c?3?2users?2nhv90?2projects?2eech?2ap@
  00102	8b 15 00 00 00
	00		 mov	 edx, DWORD PTR ?null_entity_pointer_message@@3PBDB ; null_entity_pointer_message
  00108	52		 push	 edx
  00109	e8 00 00 00 00	 call	 ?process_assert@@YGXPBD0H@Z ; process_assert
  0010e	c7 45 b4 00 00
	00 00		 mov	 DWORD PTR tv134[ebp], 0
$LN19@process_me:
  00115	b8 01 00 00 00	 mov	 eax, 1
  0011a	85 c0		 test	 eax, eax
  0011c	74 09		 je	 SHORT $LN20@process_me
  0011e	c7 45 b0 34 00
	00 00		 mov	 DWORD PTR tv141[ebp], 52 ; 00000034H
  00125	eb 1d		 jmp	 SHORT $LN21@process_me
$LN20@process_me:
  00127	68 5d 07 00 00	 push	 1885			; 0000075dH
  0012c	68 00 00 00 00	 push	 OFFSET ??_C@_0DK@BLKECLAG@c?3?2users?2nhv90?2projects?2eech?2ap@
  00131	8b 0d 00 00 00
	00		 mov	 ecx, DWORD PTR ?overload_invalid_int_type_message@@3PBDB ; overload_invalid_int_type_message
  00137	51		 push	 ecx
  00138	e8 00 00 00 00	 call	 ?process_assert@@YGXPBD0H@Z ; process_assert
  0013d	c7 45 b0 00 00
	00 00		 mov	 DWORD PTR tv141[ebp], 0
$LN21@process_me:
  00144	6a 34		 push	 52			; 00000034H
  00146	8b 55 fc	 mov	 edx, DWORD PTR _guide$[ebp]
  00149	52		 push	 edx
  0014a	69 45 b4 5c 04
	00 00		 imul	 eax, DWORD PTR tv134[ebp], 1116
  00151	8b 4d b0	 mov	 ecx, DWORD PTR tv141[ebp]
  00154	8b 94 88 00 00
	00 00		 mov	 edx, DWORD PTR ?fn_get_local_entity_int_value@@3PAY0BBH@P6GHPAUENTITY@@W4INT_TYPES@@@ZA[eax+ecx*4]
  0015b	ff d2		 call	 edx
  0015d	83 f8 0c	 cmp	 eax, 12			; 0000000cH
  00160	0f 85 b6 00 00
	00		 jne	 $LN8@process_me

; 1886 : 			{
; 1887 : 				attack_guide_proceed_to_fire_positon (guide);

  00166	8b 45 fc	 mov	 eax, DWORD PTR _guide$[ebp]
  00169	50		 push	 eax
  0016a	e8 00 00 00 00	 call	 ?attack_guide_proceed_to_fire_positon@@YGXPAUENTITY@@@Z ; attack_guide_proceed_to_fire_positon

; 1888 : 
; 1889 : 				follower = get_local_entity_first_child (guide, LIST_TYPE_FOLLOWER);

  0016f	83 7d fc 00	 cmp	 DWORD PTR _guide$[ebp], 0
  00173	74 0a		 je	 SHORT $LN22@process_me
  00175	8b 45 fc	 mov	 eax, DWORD PTR _guide$[ebp]
  00178	8b 08		 mov	 ecx, DWORD PTR [eax]
  0017a	89 4d b4	 mov	 DWORD PTR tv155[ebp], ecx
  0017d	eb 21		 jmp	 SHORT $LN23@process_me
$LN22@process_me:
  0017f	8b 15 00 00 00
	00		 mov	 edx, DWORD PTR ?__LINE__Var@?0??process_message_bob_up@@YGXPAUENTITY@@0@Z@4JA
  00185	83 c2 11	 add	 edx, 17			; 00000011H
  00188	52		 push	 edx
  00189	68 00 00 00 00	 push	 OFFSET ??_C@_0DK@BLKECLAG@c?3?2users?2nhv90?2projects?2eech?2ap@
  0018e	a1 00 00 00 00	 mov	 eax, DWORD PTR ?null_entity_pointer_message@@3PBDB ; null_entity_pointer_message
  00193	50		 push	 eax
  00194	e8 00 00 00 00	 call	 ?process_assert@@YGXPBD0H@Z ; process_assert
  00199	c7 45 b4 00 00
	00 00		 mov	 DWORD PTR tv155[ebp], 0
$LN23@process_me:
  001a0	b9 01 00 00 00	 mov	 ecx, 1
  001a5	85 c9		 test	 ecx, ecx
  001a7	74 09		 je	 SHORT $LN24@process_me
  001a9	c7 45 b0 0d 00
	00 00		 mov	 DWORD PTR tv163[ebp], 13 ; 0000000dH
  001b0	eb 21		 jmp	 SHORT $LN25@process_me
$LN24@process_me:
  001b2	8b 15 00 00 00
	00		 mov	 edx, DWORD PTR ?__LINE__Var@?0??process_message_bob_up@@YGXPAUENTITY@@0@Z@4JA
  001b8	83 c2 11	 add	 edx, 17			; 00000011H
  001bb	52		 push	 edx
  001bc	68 00 00 00 00	 push	 OFFSET ??_C@_0DK@BLKECLAG@c?3?2users?2nhv90?2projects?2eech?2ap@
  001c1	a1 00 00 00 00	 mov	 eax, DWORD PTR ?overload_invalid_list_type_message@@3PBDB ; overload_invalid_list_type_message
  001c6	50		 push	 eax
  001c7	e8 00 00 00 00	 call	 ?process_assert@@YGXPBD0H@Z ; process_assert
  001cc	c7 45 b0 00 00
	00 00		 mov	 DWORD PTR tv163[ebp], 0
$LN25@process_me:
  001d3	6a 0d		 push	 13			; 0000000dH
  001d5	8b 4d fc	 mov	 ecx, DWORD PTR _guide$[ebp]
  001d8	51		 push	 ecx
  001d9	69 55 b4 b4 00
	00 00		 imul	 edx, DWORD PTR tv155[ebp], 180
  001e0	8b 45 b0	 mov	 eax, DWORD PTR tv163[ebp]
  001e3	8b 8c 82 00 00
	00 00		 mov	 ecx, DWORD PTR ?fn_get_local_entity_first_child@@3PAY0CN@P6GPAUENTITY@@PAU1@W4LIST_TYPES@@@ZA[edx+eax*4]
  001ea	ff d1		 call	 ecx
  001ec	89 45 f8	 mov	 DWORD PTR _follower$[ebp], eax

; 1890 : 
; 1891 : 				if (follower)

  001ef	83 7d f8 00	 cmp	 DWORD PTR _follower$[ebp], 0
  001f3	74 27		 je	 SHORT $LN8@process_me

; 1892 : 				{
; 1893 : 					play_client_server_radio_message_affirmative_response (follower, SPEECH_WINGMAN_ROGER_BOBBING_UP, 1.0, 4.0);

  001f5	51		 push	 ecx
  001f6	f3 0f 10 05 00
	00 00 00	 movss	 xmm0, DWORD PTR __real@40800000
  001fe	f3 0f 11 04 24	 movss	 DWORD PTR [esp], xmm0
  00203	51		 push	 ecx
  00204	f3 0f 10 05 00
	00 00 00	 movss	 xmm0, DWORD PTR __real@3f800000
  0020c	f3 0f 11 04 24	 movss	 DWORD PTR [esp], xmm0
  00211	6a 18		 push	 24			; 00000018H
  00213	8b 45 f8	 mov	 eax, DWORD PTR _follower$[ebp]
  00216	50		 push	 eax
  00217	e8 00 00 00 00	 call	 ?play_client_server_radio_message_affirmative_response@@YGXPAUENTITY@@HMM@Z ; play_client_server_radio_message_affirmative_response
$LN8@process_me:

; 1894 : 				}
; 1895 : 			}
; 1896 : 
; 1897 : 			guide = get_local_entity_child_succ (guide, LIST_TYPE_GUIDE_STACK);

  0021c	83 7d fc 00	 cmp	 DWORD PTR _guide$[ebp], 0
  00220	74 0a		 je	 SHORT $LN26@process_me
  00222	8b 45 fc	 mov	 eax, DWORD PTR _guide$[ebp]
  00225	8b 08		 mov	 ecx, DWORD PTR [eax]
  00227	89 4d b4	 mov	 DWORD PTR tv180[ebp], ecx
  0022a	eb 21		 jmp	 SHORT $LN27@process_me
$LN26@process_me:
  0022c	8b 15 00 00 00
	00		 mov	 edx, DWORD PTR ?__LINE__Var@?0??process_message_bob_up@@YGXPAUENTITY@@0@Z@4JA
  00232	83 c2 19	 add	 edx, 25			; 00000019H
  00235	52		 push	 edx
  00236	68 00 00 00 00	 push	 OFFSET ??_C@_0DK@BLKECLAG@c?3?2users?2nhv90?2projects?2eech?2ap@
  0023b	a1 00 00 00 00	 mov	 eax, DWORD PTR ?null_entity_pointer_message@@3PBDB ; null_entity_pointer_message
  00240	50		 push	 eax
  00241	e8 00 00 00 00	 call	 ?process_assert@@YGXPBD0H@Z ; process_assert
  00246	c7 45 b4 00 00
	00 00		 mov	 DWORD PTR tv180[ebp], 0
$LN27@process_me:
  0024d	b9 01 00 00 00	 mov	 ecx, 1
  00252	85 c9		 test	 ecx, ecx
  00254	74 09		 je	 SHORT $LN28@process_me
  00256	c7 45 b0 11 00
	00 00		 mov	 DWORD PTR tv188[ebp], 17 ; 00000011H
  0025d	eb 21		 jmp	 SHORT $LN29@process_me
$LN28@process_me:
  0025f	8b 15 00 00 00
	00		 mov	 edx, DWORD PTR ?__LINE__Var@?0??process_message_bob_up@@YGXPAUENTITY@@0@Z@4JA
  00265	83 c2 19	 add	 edx, 25			; 00000019H
  00268	52		 push	 edx
  00269	68 00 00 00 00	 push	 OFFSET ??_C@_0DK@BLKECLAG@c?3?2users?2nhv90?2projects?2eech?2ap@
  0026e	a1 00 00 00 00	 mov	 eax, DWORD PTR ?overload_invalid_list_type_message@@3PBDB ; overload_invalid_list_type_message
  00273	50		 push	 eax
  00274	e8 00 00 00 00	 call	 ?process_assert@@YGXPBD0H@Z ; process_assert
  00279	c7 45 b0 00 00
	00 00		 mov	 DWORD PTR tv188[ebp], 0
$LN29@process_me:
  00280	6a 11		 push	 17			; 00000011H
  00282	8b 4d fc	 mov	 ecx, DWORD PTR _guide$[ebp]
  00285	51		 push	 ecx
  00286	69 55 b4 b4 00
	00 00		 imul	 edx, DWORD PTR tv180[ebp], 180
  0028d	8b 45 b0	 mov	 eax, DWORD PTR tv188[ebp]
  00290	8b 8c 82 00 00
	00 00		 mov	 ecx, DWORD PTR ?fn_get_local_entity_child_succ@@3PAY0CN@P6GPAUENTITY@@PAU1@W4LIST_TYPES@@@ZA[edx+eax*4]
  00297	ff d1		 call	 ecx
  00299	89 45 fc	 mov	 DWORD PTR _guide$[ebp], eax

; 1898 : 		}

  0029c	e9 3d fe ff ff	 jmp	 $LN2@process_me
$LN3@process_me:

; 1899 : 	}
; 1900 : 	else

  002a1	e9 34 01 00 00	 jmp	 $LN10@process_me
$LN5@process_me:

; 1901 : 	{
; 1902 : 		guide = get_local_entity_parent (wingman, LIST_TYPE_FOLLOWER);

  002a6	83 7d 0c 00	 cmp	 DWORD PTR _wingman$[ebp], 0
  002aa	74 0a		 je	 SHORT $LN30@process_me
  002ac	8b 45 0c	 mov	 eax, DWORD PTR _wingman$[ebp]
  002af	8b 08		 mov	 ecx, DWORD PTR [eax]
  002b1	89 4d b4	 mov	 DWORD PTR tv200[ebp], ecx
  002b4	eb 21		 jmp	 SHORT $LN31@process_me
$LN30@process_me:
  002b6	8b 15 00 00 00
	00		 mov	 edx, DWORD PTR ?__LINE__Var@?0??process_message_bob_up@@YGXPAUENTITY@@0@Z@4JA
  002bc	83 c2 1e	 add	 edx, 30			; 0000001eH
  002bf	52		 push	 edx
  002c0	68 00 00 00 00	 push	 OFFSET ??_C@_0DK@BLKECLAG@c?3?2users?2nhv90?2projects?2eech?2ap@
  002c5	a1 00 00 00 00	 mov	 eax, DWORD PTR ?null_entity_pointer_message@@3PBDB ; null_entity_pointer_message
  002ca	50		 push	 eax
  002cb	e8 00 00 00 00	 call	 ?process_assert@@YGXPBD0H@Z ; process_assert
  002d0	c7 45 b4 00 00
	00 00		 mov	 DWORD PTR tv200[ebp], 0
$LN31@process_me:
  002d7	b9 01 00 00 00	 mov	 ecx, 1
  002dc	85 c9		 test	 ecx, ecx
  002de	74 09		 je	 SHORT $LN32@process_me
  002e0	c7 45 b0 0d 00
	00 00		 mov	 DWORD PTR tv208[ebp], 13 ; 0000000dH
  002e7	eb 21		 jmp	 SHORT $LN33@process_me
$LN32@process_me:
  002e9	8b 15 00 00 00
	00		 mov	 edx, DWORD PTR ?__LINE__Var@?0??process_message_bob_up@@YGXPAUENTITY@@0@Z@4JA
  002ef	83 c2 1e	 add	 edx, 30			; 0000001eH
  002f2	52		 push	 edx
  002f3	68 00 00 00 00	 push	 OFFSET ??_C@_0DK@BLKECLAG@c?3?2users?2nhv90?2projects?2eech?2ap@
  002f8	a1 00 00 00 00	 mov	 eax, DWORD PTR ?overload_invalid_list_type_message@@3PBDB ; overload_invalid_list_type_message
  002fd	50		 push	 eax
  002fe	e8 00 00 00 00	 call	 ?process_assert@@YGXPBD0H@Z ; process_assert
  00303	c7 45 b0 00 00
	00 00		 mov	 DWORD PTR tv208[ebp], 0
$LN33@process_me:
  0030a	6a 0d		 push	 13			; 0000000dH
  0030c	8b 4d 0c	 mov	 ecx, DWORD PTR _wingman$[ebp]
  0030f	51		 push	 ecx
  00310	69 55 b4 b4 00
	00 00		 imul	 edx, DWORD PTR tv200[ebp], 180
  00317	8b 45 b0	 mov	 eax, DWORD PTR tv208[ebp]
  0031a	8b 8c 82 00 00
	00 00		 mov	 ecx, DWORD PTR ?fn_get_local_entity_parent@@3PAY0CN@P6GPAUENTITY@@PAU1@W4LIST_TYPES@@@ZA[edx+eax*4]
  00321	ff d1		 call	 ecx
  00323	89 45 fc	 mov	 DWORD PTR _guide$[ebp], eax

; 1903 : 
; 1904 : 		if (guide)

  00326	83 7d fc 00	 cmp	 DWORD PTR _guide$[ebp], 0
  0032a	0f 84 aa 00 00
	00		 je	 $LN10@process_me

; 1905 : 		{
; 1906 : 			if (get_local_entity_int_value (guide, INT_TYPE_ENTITY_SUB_TYPE) == ENTITY_SUB_TYPE_GUIDE_ATTACK_AG_TAKE_COVER)

  00330	83 7d fc 00	 cmp	 DWORD PTR _guide$[ebp], 0
  00334	74 0a		 je	 SHORT $LN34@process_me
  00336	8b 45 fc	 mov	 eax, DWORD PTR _guide$[ebp]
  00339	8b 08		 mov	 ecx, DWORD PTR [eax]
  0033b	89 4d b4	 mov	 DWORD PTR tv220[ebp], ecx
  0033e	eb 1d		 jmp	 SHORT $LN35@process_me
$LN34@process_me:
  00340	68 72 07 00 00	 push	 1906			; 00000772H
  00345	68 00 00 00 00	 push	 OFFSET ??_C@_0DK@BLKECLAG@c?3?2users?2nhv90?2projects?2eech?2ap@
  0034a	8b 15 00 00 00
	00		 mov	 edx, DWORD PTR ?null_entity_pointer_message@@3PBDB ; null_entity_pointer_message
  00350	52		 push	 edx
  00351	e8 00 00 00 00	 call	 ?process_assert@@YGXPBD0H@Z ; process_assert
  00356	c7 45 b4 00 00
	00 00		 mov	 DWORD PTR tv220[ebp], 0
$LN35@process_me:
  0035d	b8 01 00 00 00	 mov	 eax, 1
  00362	85 c0		 test	 eax, eax
  00364	74 09		 je	 SHORT $LN36@process_me
  00366	c7 45 b0 34 00
	00 00		 mov	 DWORD PTR tv227[ebp], 52 ; 00000034H
  0036d	eb 1d		 jmp	 SHORT $LN37@process_me
$LN36@process_me:
  0036f	68 72 07 00 00	 push	 1906			; 00000772H
  00374	68 00 00 00 00	 push	 OFFSET ??_C@_0DK@BLKECLAG@c?3?2users?2nhv90?2projects?2eech?2ap@
  00379	8b 0d 00 00 00
	00		 mov	 ecx, DWORD PTR ?overload_invalid_int_type_message@@3PBDB ; overload_invalid_int_type_message
  0037f	51		 push	 ecx
  00380	e8 00 00 00 00	 call	 ?process_assert@@YGXPBD0H@Z ; process_assert
  00385	c7 45 b0 00 00
	00 00		 mov	 DWORD PTR tv227[ebp], 0
$LN37@process_me:
  0038c	6a 34		 push	 52			; 00000034H
  0038e	8b 55 fc	 mov	 edx, DWORD PTR _guide$[ebp]
  00391	52		 push	 edx
  00392	69 45 b4 5c 04
	00 00		 imul	 eax, DWORD PTR tv220[ebp], 1116
  00399	8b 4d b0	 mov	 ecx, DWORD PTR tv227[ebp]
  0039c	8b 94 88 00 00
	00 00		 mov	 edx, DWORD PTR ?fn_get_local_entity_int_value@@3PAY0BBH@P6GHPAUENTITY@@W4INT_TYPES@@@ZA[eax+ecx*4]
  003a3	ff d2		 call	 edx
  003a5	83 f8 0c	 cmp	 eax, 12			; 0000000cH
  003a8	75 30		 jne	 SHORT $LN10@process_me

; 1907 : 			{
; 1908 : 				attack_guide_proceed_to_fire_positon (guide);

  003aa	8b 45 fc	 mov	 eax, DWORD PTR _guide$[ebp]
  003ad	50		 push	 eax
  003ae	e8 00 00 00 00	 call	 ?attack_guide_proceed_to_fire_positon@@YGXPAUENTITY@@@Z ; attack_guide_proceed_to_fire_positon

; 1909 : 
; 1910 : 				play_client_server_radio_message_affirmative_response (wingman, SPEECH_WINGMAN_ROGER_BOBBING_UP, 1.0, 4.0);

  003b3	51		 push	 ecx
  003b4	f3 0f 10 05 00
	00 00 00	 movss	 xmm0, DWORD PTR __real@40800000
  003bc	f3 0f 11 04 24	 movss	 DWORD PTR [esp], xmm0
  003c1	51		 push	 ecx
  003c2	f3 0f 10 05 00
	00 00 00	 movss	 xmm0, DWORD PTR __real@3f800000
  003ca	f3 0f 11 04 24	 movss	 DWORD PTR [esp], xmm0
  003cf	6a 18		 push	 24			; 00000018H
  003d1	8b 45 0c	 mov	 eax, DWORD PTR _wingman$[ebp]
  003d4	50		 push	 eax
  003d5	e8 00 00 00 00	 call	 ?play_client_server_radio_message_affirmative_response@@YGXPAUENTITY@@HMM@Z ; play_client_server_radio_message_affirmative_response
$LN10@process_me:

; 1911 : 			}
; 1912 : 		}
; 1913 : 	}
; 1914 : }

  003da	5f		 pop	 edi
  003db	5e		 pop	 esi
  003dc	5b		 pop	 ebx
  003dd	8b e5		 mov	 esp, ebp
  003df	5d		 pop	 ebp
  003e0	c2 08 00	 ret	 8
?process_message_bob_up@@YGXPAUENTITY@@0@Z ENDP		; process_message_bob_up
_TEXT	ENDS
; Function compile flags: /Odtp /ZI
; File c:\users\nhv90\projects\eech\aphavoc\source\misc\msg_in.c
;	COMDAT ?process_message_rejoin_formation@@YGXPAUENTITY@@0@Z
_TEXT	SEGMENT
tv165 = -76						; size = 4
tv145 = -76						; size = 4
tv90 = -76						; size = 4
tv157 = -72						; size = 4
tv137 = -72						; size = 4
tv82 = -72						; size = 4
tv74 = -72						; size = 4
_member$ = -4						; size = 4
_en$ = 8						; size = 4
_wingman$ = 12						; size = 4
?process_message_rejoin_formation@@YGXPAUENTITY@@0@Z PROC ; process_message_rejoin_formation, COMDAT

; 1822 : {

  00000	55		 push	 ebp
  00001	8b ec		 mov	 ebp, esp
  00003	83 ec 4c	 sub	 esp, 76			; 0000004cH
  00006	53		 push	 ebx
  00007	56		 push	 esi
  00008	57		 push	 edi

; 1823 : 	entity
; 1824 : 		*member;
; 1825 : 
; 1826 : 	ASSERT (wingman);

  00009	83 7d 0c 00	 cmp	 DWORD PTR _wingman$[ebp], 0
  0000d	75 18		 jne	 SHORT $LN4@process_me
  0000f	a1 00 00 00 00	 mov	 eax, DWORD PTR ?__LINE__Var@?0??process_message_rejoin_formation@@YGXPAUENTITY@@0@Z@4JA
  00014	83 c0 04	 add	 eax, 4
  00017	50		 push	 eax
  00018	68 00 00 00 00	 push	 OFFSET ??_C@_0DK@BLKECLAG@c?3?2users?2nhv90?2projects?2eech?2ap@
  0001d	68 00 00 00 00	 push	 OFFSET ??_C@_07EAKNLMLO@wingman@
  00022	e8 00 00 00 00	 call	 ?process_assert@@YGXPBD0H@Z ; process_assert
$LN4@process_me:

; 1827 : 
; 1828 : 	if (get_local_entity_type (wingman) == ENTITY_TYPE_GROUP)

  00027	83 7d 0c 00	 cmp	 DWORD PTR _wingman$[ebp], 0
  0002b	74 0a		 je	 SHORT $LN8@process_me
  0002d	8b 45 0c	 mov	 eax, DWORD PTR _wingman$[ebp]
  00030	8b 08		 mov	 ecx, DWORD PTR [eax]
  00032	89 4d b8	 mov	 DWORD PTR tv74[ebp], ecx
  00035	eb 1d		 jmp	 SHORT $LN9@process_me
$LN8@process_me:
  00037	68 24 07 00 00	 push	 1828			; 00000724H
  0003c	68 00 00 00 00	 push	 OFFSET ??_C@_0DK@BLKECLAG@c?3?2users?2nhv90?2projects?2eech?2ap@
  00041	8b 15 00 00 00
	00		 mov	 edx, DWORD PTR ?null_entity_pointer_message@@3PBDB ; null_entity_pointer_message
  00047	52		 push	 edx
  00048	e8 00 00 00 00	 call	 ?process_assert@@YGXPBD0H@Z ; process_assert
  0004d	c7 45 b8 00 00
	00 00		 mov	 DWORD PTR tv74[ebp], 0
$LN9@process_me:
  00054	83 7d b8 0c	 cmp	 DWORD PTR tv74[ebp], 12	; 0000000cH
  00058	0f 85 21 01 00
	00		 jne	 $LN5@process_me

; 1829 : 	{
; 1830 : 		member = get_local_entity_first_child (wingman, LIST_TYPE_MEMBER);

  0005e	83 7d 0c 00	 cmp	 DWORD PTR _wingman$[ebp], 0
  00062	74 0a		 je	 SHORT $LN10@process_me
  00064	8b 45 0c	 mov	 eax, DWORD PTR _wingman$[ebp]
  00067	8b 08		 mov	 ecx, DWORD PTR [eax]
  00069	89 4d b8	 mov	 DWORD PTR tv82[ebp], ecx
  0006c	eb 21		 jmp	 SHORT $LN11@process_me
$LN10@process_me:
  0006e	8b 15 00 00 00
	00		 mov	 edx, DWORD PTR ?__LINE__Var@?0??process_message_rejoin_formation@@YGXPAUENTITY@@0@Z@4JA
  00074	83 c2 08	 add	 edx, 8
  00077	52		 push	 edx
  00078	68 00 00 00 00	 push	 OFFSET ??_C@_0DK@BLKECLAG@c?3?2users?2nhv90?2projects?2eech?2ap@
  0007d	a1 00 00 00 00	 mov	 eax, DWORD PTR ?null_entity_pointer_message@@3PBDB ; null_entity_pointer_message
  00082	50		 push	 eax
  00083	e8 00 00 00 00	 call	 ?process_assert@@YGXPBD0H@Z ; process_assert
  00088	c7 45 b8 00 00
	00 00		 mov	 DWORD PTR tv82[ebp], 0
$LN11@process_me:
  0008f	b9 01 00 00 00	 mov	 ecx, 1
  00094	85 c9		 test	 ecx, ecx
  00096	74 09		 je	 SHORT $LN12@process_me
  00098	c7 45 b4 19 00
	00 00		 mov	 DWORD PTR tv90[ebp], 25	; 00000019H
  0009f	eb 21		 jmp	 SHORT $LN13@process_me
$LN12@process_me:
  000a1	8b 15 00 00 00
	00		 mov	 edx, DWORD PTR ?__LINE__Var@?0??process_message_rejoin_formation@@YGXPAUENTITY@@0@Z@4JA
  000a7	83 c2 08	 add	 edx, 8
  000aa	52		 push	 edx
  000ab	68 00 00 00 00	 push	 OFFSET ??_C@_0DK@BLKECLAG@c?3?2users?2nhv90?2projects?2eech?2ap@
  000b0	a1 00 00 00 00	 mov	 eax, DWORD PTR ?overload_invalid_list_type_message@@3PBDB ; overload_invalid_list_type_message
  000b5	50		 push	 eax
  000b6	e8 00 00 00 00	 call	 ?process_assert@@YGXPBD0H@Z ; process_assert
  000bb	c7 45 b4 00 00
	00 00		 mov	 DWORD PTR tv90[ebp], 0
$LN13@process_me:
  000c2	6a 19		 push	 25			; 00000019H
  000c4	8b 4d 0c	 mov	 ecx, DWORD PTR _wingman$[ebp]
  000c7	51		 push	 ecx
  000c8	69 55 b8 b4 00
	00 00		 imul	 edx, DWORD PTR tv82[ebp], 180
  000cf	8b 45 b4	 mov	 eax, DWORD PTR tv90[ebp]
  000d2	8b 8c 82 00 00
	00 00		 mov	 ecx, DWORD PTR ?fn_get_local_entity_first_child@@3PAY0CN@P6GPAUENTITY@@PAU1@W4LIST_TYPES@@@ZA[edx+eax*4]
  000d9	ff d1		 call	 ecx
  000db	89 45 fc	 mov	 DWORD PTR _member$[ebp], eax
$LN2@process_me:

; 1831 : 
; 1832 : 		while (member)

  000de	83 7d fc 00	 cmp	 DWORD PTR _member$[ebp], 0
  000e2	0f 84 92 00 00
	00		 je	 $LN3@process_me

; 1833 : 		{
; 1834 : 			process_message_rejoin_formation (en, member);

  000e8	8b 45 fc	 mov	 eax, DWORD PTR _member$[ebp]
  000eb	50		 push	 eax
  000ec	8b 4d 08	 mov	 ecx, DWORD PTR _en$[ebp]
  000ef	51		 push	 ecx
  000f0	e8 00 00 00 00	 call	 ?process_message_rejoin_formation@@YGXPAUENTITY@@0@Z ; process_message_rejoin_formation

; 1835 : 
; 1836 : 			member = get_local_entity_child_succ (member, LIST_TYPE_MEMBER);

  000f5	83 7d fc 00	 cmp	 DWORD PTR _member$[ebp], 0
  000f9	74 0a		 je	 SHORT $LN14@process_me
  000fb	8b 45 fc	 mov	 eax, DWORD PTR _member$[ebp]
  000fe	8b 08		 mov	 ecx, DWORD PTR [eax]
  00100	89 4d b8	 mov	 DWORD PTR tv137[ebp], ecx
  00103	eb 21		 jmp	 SHORT $LN15@process_me
$LN14@process_me:
  00105	8b 15 00 00 00
	00		 mov	 edx, DWORD PTR ?__LINE__Var@?0??process_message_rejoin_formation@@YGXPAUENTITY@@0@Z@4JA
  0010b	83 c2 0e	 add	 edx, 14			; 0000000eH
  0010e	52		 push	 edx
  0010f	68 00 00 00 00	 push	 OFFSET ??_C@_0DK@BLKECLAG@c?3?2users?2nhv90?2projects?2eech?2ap@
  00114	a1 00 00 00 00	 mov	 eax, DWORD PTR ?null_entity_pointer_message@@3PBDB ; null_entity_pointer_message
  00119	50		 push	 eax
  0011a	e8 00 00 00 00	 call	 ?process_assert@@YGXPBD0H@Z ; process_assert
  0011f	c7 45 b8 00 00
	00 00		 mov	 DWORD PTR tv137[ebp], 0
$LN15@process_me:
  00126	b9 01 00 00 00	 mov	 ecx, 1
  0012b	85 c9		 test	 ecx, ecx
  0012d	74 09		 je	 SHORT $LN16@process_me
  0012f	c7 45 b4 19 00
	00 00		 mov	 DWORD PTR tv145[ebp], 25 ; 00000019H
  00136	eb 21		 jmp	 SHORT $LN17@process_me
$LN16@process_me:
  00138	8b 15 00 00 00
	00		 mov	 edx, DWORD PTR ?__LINE__Var@?0??process_message_rejoin_formation@@YGXPAUENTITY@@0@Z@4JA
  0013e	83 c2 0e	 add	 edx, 14			; 0000000eH
  00141	52		 push	 edx
  00142	68 00 00 00 00	 push	 OFFSET ??_C@_0DK@BLKECLAG@c?3?2users?2nhv90?2projects?2eech?2ap@
  00147	a1 00 00 00 00	 mov	 eax, DWORD PTR ?overload_invalid_list_type_message@@3PBDB ; overload_invalid_list_type_message
  0014c	50		 push	 eax
  0014d	e8 00 00 00 00	 call	 ?process_assert@@YGXPBD0H@Z ; process_assert
  00152	c7 45 b4 00 00
	00 00		 mov	 DWORD PTR tv145[ebp], 0
$LN17@process_me:
  00159	6a 19		 push	 25			; 00000019H
  0015b	8b 4d fc	 mov	 ecx, DWORD PTR _member$[ebp]
  0015e	51		 push	 ecx
  0015f	69 55 b8 b4 00
	00 00		 imul	 edx, DWORD PTR tv137[ebp], 180
  00166	8b 45 b4	 mov	 eax, DWORD PTR tv145[ebp]
  00169	8b 8c 82 00 00
	00 00		 mov	 ecx, DWORD PTR ?fn_get_local_entity_child_succ@@3PAY0CN@P6GPAUENTITY@@PAU1@W4LIST_TYPES@@@ZA[edx+eax*4]
  00170	ff d1		 call	 ecx
  00172	89 45 fc	 mov	 DWORD PTR _member$[ebp], eax

; 1837 : 		}

  00175	e9 64 ff ff ff	 jmp	 $LN2@process_me
$LN3@process_me:

; 1838 : 	}
; 1839 : 	else

  0017a	e9 bb 00 00 00	 jmp	 $LN6@process_me
$LN5@process_me:

; 1840 : 	{
; 1841 : 		//
; 1842 : 		// Cancel Position Hold
; 1843 : 		//
; 1844 : 
; 1845 : 		set_client_server_entity_int_value (wingman, INT_TYPE_POSITION_HOLD, FALSE);

  0017f	83 7d 0c 00	 cmp	 DWORD PTR _wingman$[ebp], 0
  00183	74 0a		 je	 SHORT $LN18@process_me
  00185	8b 45 0c	 mov	 eax, DWORD PTR _wingman$[ebp]
  00188	8b 08		 mov	 ecx, DWORD PTR [eax]
  0018a	89 4d b8	 mov	 DWORD PTR tv157[ebp], ecx
  0018d	eb 21		 jmp	 SHORT $LN19@process_me
$LN18@process_me:
  0018f	8b 15 00 00 00
	00		 mov	 edx, DWORD PTR ?__LINE__Var@?0??process_message_rejoin_formation@@YGXPAUENTITY@@0@Z@4JA
  00195	83 c2 17	 add	 edx, 23			; 00000017H
  00198	52		 push	 edx
  00199	68 00 00 00 00	 push	 OFFSET ??_C@_0DK@BLKECLAG@c?3?2users?2nhv90?2projects?2eech?2ap@
  0019e	a1 00 00 00 00	 mov	 eax, DWORD PTR ?null_entity_pointer_message@@3PBDB ; null_entity_pointer_message
  001a3	50		 push	 eax
  001a4	e8 00 00 00 00	 call	 ?process_assert@@YGXPBD0H@Z ; process_assert
  001a9	c7 45 b8 00 00
	00 00		 mov	 DWORD PTR tv157[ebp], 0
$LN19@process_me:
  001b0	b9 01 00 00 00	 mov	 ecx, 1
  001b5	85 c9		 test	 ecx, ecx
  001b7	74 09		 je	 SHORT $LN20@process_me
  001b9	c7 45 b4 a0 00
	00 00		 mov	 DWORD PTR tv165[ebp], 160 ; 000000a0H
  001c0	eb 21		 jmp	 SHORT $LN21@process_me
$LN20@process_me:
  001c2	8b 15 00 00 00
	00		 mov	 edx, DWORD PTR ?__LINE__Var@?0??process_message_rejoin_formation@@YGXPAUENTITY@@0@Z@4JA
  001c8	83 c2 17	 add	 edx, 23			; 00000017H
  001cb	52		 push	 edx
  001cc	68 00 00 00 00	 push	 OFFSET ??_C@_0DK@BLKECLAG@c?3?2users?2nhv90?2projects?2eech?2ap@
  001d1	a1 00 00 00 00	 mov	 eax, DWORD PTR ?overload_invalid_int_type_message@@3PBDB ; overload_invalid_int_type_message
  001d6	50		 push	 eax
  001d7	e8 00 00 00 00	 call	 ?process_assert@@YGXPBD0H@Z ; process_assert
  001dc	c7 45 b4 00 00
	00 00		 mov	 DWORD PTR tv165[ebp], 0
$LN21@process_me:
  001e3	6a 00		 push	 0
  001e5	68 a0 00 00 00	 push	 160			; 000000a0H
  001ea	8b 4d 0c	 mov	 ecx, DWORD PTR _wingman$[ebp]
  001ed	51		 push	 ecx
  001ee	69 55 b8 b8 08
	00 00		 imul	 edx, DWORD PTR tv157[ebp], 2232
  001f5	8b 45 b4	 mov	 eax, DWORD PTR tv165[ebp]
  001f8	8d 8c c2 00 00
	00 00		 lea	 ecx, DWORD PTR ?fn_set_client_server_entity_int_value@@3PAY1BBH@1P6GXPAUENTITY@@W4INT_TYPES@@H@ZA[edx+eax*8]
  001ff	8b 15 00 00 00
	00		 mov	 edx, DWORD PTR ?system_comms_model@@3W4COMMS_MODEL_TYPES@@A ; system_comms_model
  00205	8b 04 91	 mov	 eax, DWORD PTR [ecx+edx*4]
  00208	ff d0		 call	 eax

; 1846 : 
; 1847 : 		//
; 1848 : 		// Play Speech
; 1849 : 		//
; 1850 : 
; 1851 : 		play_client_server_radio_message_affirmative_response (wingman, SPEECH_WINGMAN_ROGER_REJOINING_FORMATION, 0.5, 7.0);

  0020a	51		 push	 ecx
  0020b	f3 0f 10 05 00
	00 00 00	 movss	 xmm0, DWORD PTR __real@40e00000
  00213	f3 0f 11 04 24	 movss	 DWORD PTR [esp], xmm0
  00218	51		 push	 ecx
  00219	f3 0f 10 05 00
	00 00 00	 movss	 xmm0, DWORD PTR __real@3f000000
  00221	f3 0f 11 04 24	 movss	 DWORD PTR [esp], xmm0
  00226	6a 17		 push	 23			; 00000017H
  00228	8b 45 0c	 mov	 eax, DWORD PTR _wingman$[ebp]
  0022b	50		 push	 eax
  0022c	e8 00 00 00 00	 call	 ?play_client_server_radio_message_affirmative_response@@YGXPAUENTITY@@HMM@Z ; play_client_server_radio_message_affirmative_response

; 1852 : 
; 1853 : 		//
; 1854 : 		// Abort any engage tasks
; 1855 : 		//
; 1856 : 
; 1857 : 		terminate_entity_current_engage_task (wingman);

  00231	8b 45 0c	 mov	 eax, DWORD PTR _wingman$[ebp]
  00234	50		 push	 eax
  00235	e8 00 00 00 00	 call	 ?terminate_entity_current_engage_task@@YGXPAUENTITY@@@Z ; terminate_entity_current_engage_task
$LN6@process_me:

; 1858 : 	}
; 1859 : }

  0023a	5f		 pop	 edi
  0023b	5e		 pop	 esi
  0023c	5b		 pop	 ebx
  0023d	8b e5		 mov	 esp, ebp
  0023f	5d		 pop	 ebp
  00240	c2 08 00	 ret	 8
?process_message_rejoin_formation@@YGXPAUENTITY@@0@Z ENDP ; process_message_rejoin_formation
_TEXT	ENDS
; Function compile flags: /Odtp /ZI
; File c:\users\nhv90\projects\eech\aphavoc\source\misc\msg_in.c
;	COMDAT ?process_message_hold_position@@YGXPAUENTITY@@0@Z
_TEXT	SEGMENT
tv209 = -84						; size = 4
tv201 = -80						; size = 4
tv228 = -76						; size = 4
tv187 = -76						; size = 4
tv163 = -76						; size = 4
tv145 = -76						; size = 4
tv90 = -76						; size = 4
tv220 = -72						; size = 4
tv179 = -72						; size = 4
tv156 = -72						; size = 4
tv137 = -72						; size = 4
tv82 = -72						; size = 4
tv74 = -72						; size = 4
_member$ = -4						; size = 4
_en$ = 8						; size = 4
_wingman$ = 12						; size = 4
?process_message_hold_position@@YGXPAUENTITY@@0@Z PROC	; process_message_hold_position, COMDAT

; 1777 : {

  00000	55		 push	 ebp
  00001	8b ec		 mov	 ebp, esp
  00003	83 ec 54	 sub	 esp, 84			; 00000054H
  00006	53		 push	 ebx
  00007	56		 push	 esi
  00008	57		 push	 edi

; 1778 : 	entity
; 1779 : 		*member;
; 1780 : 
; 1781 : 	ASSERT (wingman);

  00009	83 7d 0c 00	 cmp	 DWORD PTR _wingman$[ebp], 0
  0000d	75 18		 jne	 SHORT $LN4@process_me
  0000f	a1 00 00 00 00	 mov	 eax, DWORD PTR ?__LINE__Var@?0??process_message_hold_position@@YGXPAUENTITY@@0@Z@4JA
  00014	83 c0 04	 add	 eax, 4
  00017	50		 push	 eax
  00018	68 00 00 00 00	 push	 OFFSET ??_C@_0DK@BLKECLAG@c?3?2users?2nhv90?2projects?2eech?2ap@
  0001d	68 00 00 00 00	 push	 OFFSET ??_C@_07EAKNLMLO@wingman@
  00022	e8 00 00 00 00	 call	 ?process_assert@@YGXPBD0H@Z ; process_assert
$LN4@process_me:

; 1782 : 
; 1783 : 	if (get_local_entity_type (wingman) == ENTITY_TYPE_GROUP)

  00027	83 7d 0c 00	 cmp	 DWORD PTR _wingman$[ebp], 0
  0002b	74 0a		 je	 SHORT $LN10@process_me
  0002d	8b 45 0c	 mov	 eax, DWORD PTR _wingman$[ebp]
  00030	8b 08		 mov	 ecx, DWORD PTR [eax]
  00032	89 4d b8	 mov	 DWORD PTR tv74[ebp], ecx
  00035	eb 1d		 jmp	 SHORT $LN11@process_me
$LN10@process_me:
  00037	68 f7 06 00 00	 push	 1783			; 000006f7H
  0003c	68 00 00 00 00	 push	 OFFSET ??_C@_0DK@BLKECLAG@c?3?2users?2nhv90?2projects?2eech?2ap@
  00041	8b 15 00 00 00
	00		 mov	 edx, DWORD PTR ?null_entity_pointer_message@@3PBDB ; null_entity_pointer_message
  00047	52		 push	 edx
  00048	e8 00 00 00 00	 call	 ?process_assert@@YGXPBD0H@Z ; process_assert
  0004d	c7 45 b8 00 00
	00 00		 mov	 DWORD PTR tv74[ebp], 0
$LN11@process_me:
  00054	83 7d b8 0c	 cmp	 DWORD PTR tv74[ebp], 12	; 0000000cH
  00058	0f 85 21 01 00
	00		 jne	 $LN5@process_me

; 1784 : 	{
; 1785 : 		member = get_local_entity_first_child (wingman, LIST_TYPE_MEMBER);

  0005e	83 7d 0c 00	 cmp	 DWORD PTR _wingman$[ebp], 0
  00062	74 0a		 je	 SHORT $LN12@process_me
  00064	8b 45 0c	 mov	 eax, DWORD PTR _wingman$[ebp]
  00067	8b 08		 mov	 ecx, DWORD PTR [eax]
  00069	89 4d b8	 mov	 DWORD PTR tv82[ebp], ecx
  0006c	eb 21		 jmp	 SHORT $LN13@process_me
$LN12@process_me:
  0006e	8b 15 00 00 00
	00		 mov	 edx, DWORD PTR ?__LINE__Var@?0??process_message_hold_position@@YGXPAUENTITY@@0@Z@4JA
  00074	83 c2 08	 add	 edx, 8
  00077	52		 push	 edx
  00078	68 00 00 00 00	 push	 OFFSET ??_C@_0DK@BLKECLAG@c?3?2users?2nhv90?2projects?2eech?2ap@
  0007d	a1 00 00 00 00	 mov	 eax, DWORD PTR ?null_entity_pointer_message@@3PBDB ; null_entity_pointer_message
  00082	50		 push	 eax
  00083	e8 00 00 00 00	 call	 ?process_assert@@YGXPBD0H@Z ; process_assert
  00088	c7 45 b8 00 00
	00 00		 mov	 DWORD PTR tv82[ebp], 0
$LN13@process_me:
  0008f	b9 01 00 00 00	 mov	 ecx, 1
  00094	85 c9		 test	 ecx, ecx
  00096	74 09		 je	 SHORT $LN14@process_me
  00098	c7 45 b4 19 00
	00 00		 mov	 DWORD PTR tv90[ebp], 25	; 00000019H
  0009f	eb 21		 jmp	 SHORT $LN15@process_me
$LN14@process_me:
  000a1	8b 15 00 00 00
	00		 mov	 edx, DWORD PTR ?__LINE__Var@?0??process_message_hold_position@@YGXPAUENTITY@@0@Z@4JA
  000a7	83 c2 08	 add	 edx, 8
  000aa	52		 push	 edx
  000ab	68 00 00 00 00	 push	 OFFSET ??_C@_0DK@BLKECLAG@c?3?2users?2nhv90?2projects?2eech?2ap@
  000b0	a1 00 00 00 00	 mov	 eax, DWORD PTR ?overload_invalid_list_type_message@@3PBDB ; overload_invalid_list_type_message
  000b5	50		 push	 eax
  000b6	e8 00 00 00 00	 call	 ?process_assert@@YGXPBD0H@Z ; process_assert
  000bb	c7 45 b4 00 00
	00 00		 mov	 DWORD PTR tv90[ebp], 0
$LN15@process_me:
  000c2	6a 19		 push	 25			; 00000019H
  000c4	8b 4d 0c	 mov	 ecx, DWORD PTR _wingman$[ebp]
  000c7	51		 push	 ecx
  000c8	69 55 b8 b4 00
	00 00		 imul	 edx, DWORD PTR tv82[ebp], 180
  000cf	8b 45 b4	 mov	 eax, DWORD PTR tv90[ebp]
  000d2	8b 8c 82 00 00
	00 00		 mov	 ecx, DWORD PTR ?fn_get_local_entity_first_child@@3PAY0CN@P6GPAUENTITY@@PAU1@W4LIST_TYPES@@@ZA[edx+eax*4]
  000d9	ff d1		 call	 ecx
  000db	89 45 fc	 mov	 DWORD PTR _member$[ebp], eax
$LN2@process_me:

; 1786 : 
; 1787 : 		while (member)

  000de	83 7d fc 00	 cmp	 DWORD PTR _member$[ebp], 0
  000e2	0f 84 92 00 00
	00		 je	 $LN3@process_me

; 1788 : 		{
; 1789 : 			process_message_hold_position (en, member);

  000e8	8b 45 fc	 mov	 eax, DWORD PTR _member$[ebp]
  000eb	50		 push	 eax
  000ec	8b 4d 08	 mov	 ecx, DWORD PTR _en$[ebp]
  000ef	51		 push	 ecx
  000f0	e8 00 00 00 00	 call	 ?process_message_hold_position@@YGXPAUENTITY@@0@Z ; process_message_hold_position

; 1790 : 
; 1791 : 			member = get_local_entity_child_succ (member, LIST_TYPE_MEMBER);

  000f5	83 7d fc 00	 cmp	 DWORD PTR _member$[ebp], 0
  000f9	74 0a		 je	 SHORT $LN16@process_me
  000fb	8b 45 fc	 mov	 eax, DWORD PTR _member$[ebp]
  000fe	8b 08		 mov	 ecx, DWORD PTR [eax]
  00100	89 4d b8	 mov	 DWORD PTR tv137[ebp], ecx
  00103	eb 21		 jmp	 SHORT $LN17@process_me
$LN16@process_me:
  00105	8b 15 00 00 00
	00		 mov	 edx, DWORD PTR ?__LINE__Var@?0??process_message_hold_position@@YGXPAUENTITY@@0@Z@4JA
  0010b	83 c2 0e	 add	 edx, 14			; 0000000eH
  0010e	52		 push	 edx
  0010f	68 00 00 00 00	 push	 OFFSET ??_C@_0DK@BLKECLAG@c?3?2users?2nhv90?2projects?2eech?2ap@
  00114	a1 00 00 00 00	 mov	 eax, DWORD PTR ?null_entity_pointer_message@@3PBDB ; null_entity_pointer_message
  00119	50		 push	 eax
  0011a	e8 00 00 00 00	 call	 ?process_assert@@YGXPBD0H@Z ; process_assert
  0011f	c7 45 b8 00 00
	00 00		 mov	 DWORD PTR tv137[ebp], 0
$LN17@process_me:
  00126	b9 01 00 00 00	 mov	 ecx, 1
  0012b	85 c9		 test	 ecx, ecx
  0012d	74 09		 je	 SHORT $LN18@process_me
  0012f	c7 45 b4 19 00
	00 00		 mov	 DWORD PTR tv145[ebp], 25 ; 00000019H
  00136	eb 21		 jmp	 SHORT $LN19@process_me
$LN18@process_me:
  00138	8b 15 00 00 00
	00		 mov	 edx, DWORD PTR ?__LINE__Var@?0??process_message_hold_position@@YGXPAUENTITY@@0@Z@4JA
  0013e	83 c2 0e	 add	 edx, 14			; 0000000eH
  00141	52		 push	 edx
  00142	68 00 00 00 00	 push	 OFFSET ??_C@_0DK@BLKECLAG@c?3?2users?2nhv90?2projects?2eech?2ap@
  00147	a1 00 00 00 00	 mov	 eax, DWORD PTR ?overload_invalid_list_type_message@@3PBDB ; overload_invalid_list_type_message
  0014c	50		 push	 eax
  0014d	e8 00 00 00 00	 call	 ?process_assert@@YGXPBD0H@Z ; process_assert
  00152	c7 45 b4 00 00
	00 00		 mov	 DWORD PTR tv145[ebp], 0
$LN19@process_me:
  00159	6a 19		 push	 25			; 00000019H
  0015b	8b 4d fc	 mov	 ecx, DWORD PTR _member$[ebp]
  0015e	51		 push	 ecx
  0015f	69 55 b8 b4 00
	00 00		 imul	 edx, DWORD PTR tv137[ebp], 180
  00166	8b 45 b4	 mov	 eax, DWORD PTR tv145[ebp]
  00169	8b 8c 82 00 00
	00 00		 mov	 ecx, DWORD PTR ?fn_get_local_entity_child_succ@@3PAY0CN@P6GPAUENTITY@@PAU1@W4LIST_TYPES@@@ZA[edx+eax*4]
  00170	ff d1		 call	 ecx
  00172	89 45 fc	 mov	 DWORD PTR _member$[ebp], eax

; 1792 : 		}

  00175	e9 64 ff ff ff	 jmp	 $LN2@process_me
$LN3@process_me:

; 1793 : 	}
; 1794 : 	else

  0017a	e9 6a 02 00 00	 jmp	 $LN8@process_me
$LN5@process_me:

; 1795 : 	{
; 1796 : 		if ((!get_local_entity_int_value (wingman, INT_TYPE_GROUP_LEADER)) && (get_local_entity_primary_task (wingman)))

  0017f	83 7d 0c 00	 cmp	 DWORD PTR _wingman$[ebp], 0
  00183	74 0a		 je	 SHORT $LN20@process_me
  00185	8b 45 0c	 mov	 eax, DWORD PTR _wingman$[ebp]
  00188	8b 08		 mov	 ecx, DWORD PTR [eax]
  0018a	89 4d b8	 mov	 DWORD PTR tv156[ebp], ecx
  0018d	eb 1d		 jmp	 SHORT $LN21@process_me
$LN20@process_me:
  0018f	68 04 07 00 00	 push	 1796			; 00000704H
  00194	68 00 00 00 00	 push	 OFFSET ??_C@_0DK@BLKECLAG@c?3?2users?2nhv90?2projects?2eech?2ap@
  00199	8b 15 00 00 00
	00		 mov	 edx, DWORD PTR ?null_entity_pointer_message@@3PBDB ; null_entity_pointer_message
  0019f	52		 push	 edx
  001a0	e8 00 00 00 00	 call	 ?process_assert@@YGXPBD0H@Z ; process_assert
  001a5	c7 45 b8 00 00
	00 00		 mov	 DWORD PTR tv156[ebp], 0
$LN21@process_me:
  001ac	b8 01 00 00 00	 mov	 eax, 1
  001b1	85 c0		 test	 eax, eax
  001b3	74 09		 je	 SHORT $LN22@process_me
  001b5	c7 45 b4 48 00
	00 00		 mov	 DWORD PTR tv163[ebp], 72 ; 00000048H
  001bc	eb 1d		 jmp	 SHORT $LN23@process_me
$LN22@process_me:
  001be	68 04 07 00 00	 push	 1796			; 00000704H
  001c3	68 00 00 00 00	 push	 OFFSET ??_C@_0DK@BLKECLAG@c?3?2users?2nhv90?2projects?2eech?2ap@
  001c8	8b 0d 00 00 00
	00		 mov	 ecx, DWORD PTR ?overload_invalid_int_type_message@@3PBDB ; overload_invalid_int_type_message
  001ce	51		 push	 ecx
  001cf	e8 00 00 00 00	 call	 ?process_assert@@YGXPBD0H@Z ; process_assert
  001d4	c7 45 b4 00 00
	00 00		 mov	 DWORD PTR tv163[ebp], 0
$LN23@process_me:
  001db	6a 48		 push	 72			; 00000048H
  001dd	8b 55 0c	 mov	 edx, DWORD PTR _wingman$[ebp]
  001e0	52		 push	 edx
  001e1	69 45 b8 5c 04
	00 00		 imul	 eax, DWORD PTR tv156[ebp], 1116
  001e8	8b 4d b4	 mov	 ecx, DWORD PTR tv163[ebp]
  001eb	8b 94 88 00 00
	00 00		 mov	 edx, DWORD PTR ?fn_get_local_entity_int_value@@3PAY0BBH@P6GHPAUENTITY@@W4INT_TYPES@@@ZA[eax+ecx*4]
  001f2	ff d2		 call	 edx
  001f4	85 c0		 test	 eax, eax
  001f6	0f 85 c6 01 00
	00		 jne	 $LN7@process_me
  001fc	8b 45 0c	 mov	 eax, DWORD PTR _wingman$[ebp]
  001ff	50		 push	 eax
  00200	e8 00 00 00 00	 call	 ?get_local_entity_primary_task@@YGPAUENTITY@@PAU1@@Z ; get_local_entity_primary_task
  00205	85 c0		 test	 eax, eax
  00207	0f 84 b5 01 00
	00		 je	 $LN7@process_me

; 1797 : 		{
; 1798 : 			set_client_server_entity_int_value (wingman, INT_TYPE_POSITION_HOLD, TRUE);

  0020d	83 7d 0c 00	 cmp	 DWORD PTR _wingman$[ebp], 0
  00211	74 0a		 je	 SHORT $LN24@process_me
  00213	8b 45 0c	 mov	 eax, DWORD PTR _wingman$[ebp]
  00216	8b 08		 mov	 ecx, DWORD PTR [eax]
  00218	89 4d b8	 mov	 DWORD PTR tv179[ebp], ecx
  0021b	eb 21		 jmp	 SHORT $LN25@process_me
$LN24@process_me:
  0021d	8b 15 00 00 00
	00		 mov	 edx, DWORD PTR ?__LINE__Var@?0??process_message_hold_position@@YGXPAUENTITY@@0@Z@4JA
  00223	83 c2 15	 add	 edx, 21			; 00000015H
  00226	52		 push	 edx
  00227	68 00 00 00 00	 push	 OFFSET ??_C@_0DK@BLKECLAG@c?3?2users?2nhv90?2projects?2eech?2ap@
  0022c	a1 00 00 00 00	 mov	 eax, DWORD PTR ?null_entity_pointer_message@@3PBDB ; null_entity_pointer_message
  00231	50		 push	 eax
  00232	e8 00 00 00 00	 call	 ?process_assert@@YGXPBD0H@Z ; process_assert
  00237	c7 45 b8 00 00
	00 00		 mov	 DWORD PTR tv179[ebp], 0
$LN25@process_me:
  0023e	b9 01 00 00 00	 mov	 ecx, 1
  00243	85 c9		 test	 ecx, ecx
  00245	74 09		 je	 SHORT $LN26@process_me
  00247	c7 45 b4 a0 00
	00 00		 mov	 DWORD PTR tv187[ebp], 160 ; 000000a0H
  0024e	eb 21		 jmp	 SHORT $LN27@process_me
$LN26@process_me:
  00250	8b 15 00 00 00
	00		 mov	 edx, DWORD PTR ?__LINE__Var@?0??process_message_hold_position@@YGXPAUENTITY@@0@Z@4JA
  00256	83 c2 15	 add	 edx, 21			; 00000015H
  00259	52		 push	 edx
  0025a	68 00 00 00 00	 push	 OFFSET ??_C@_0DK@BLKECLAG@c?3?2users?2nhv90?2projects?2eech?2ap@
  0025f	a1 00 00 00 00	 mov	 eax, DWORD PTR ?overload_invalid_int_type_message@@3PBDB ; overload_invalid_int_type_message
  00264	50		 push	 eax
  00265	e8 00 00 00 00	 call	 ?process_assert@@YGXPBD0H@Z ; process_assert
  0026a	c7 45 b4 00 00
	00 00		 mov	 DWORD PTR tv187[ebp], 0
$LN27@process_me:
  00271	6a 01		 push	 1
  00273	68 a0 00 00 00	 push	 160			; 000000a0H
  00278	8b 4d 0c	 mov	 ecx, DWORD PTR _wingman$[ebp]
  0027b	51		 push	 ecx
  0027c	69 55 b8 b8 08
	00 00		 imul	 edx, DWORD PTR tv179[ebp], 2232
  00283	8b 45 b4	 mov	 eax, DWORD PTR tv187[ebp]
  00286	8d 8c c2 00 00
	00 00		 lea	 ecx, DWORD PTR ?fn_set_client_server_entity_int_value@@3PAY1BBH@1P6GXPAUENTITY@@W4INT_TYPES@@H@ZA[edx+eax*8]
  0028d	8b 15 00 00 00
	00		 mov	 edx, DWORD PTR ?system_comms_model@@3W4COMMS_MODEL_TYPES@@A ; system_comms_model
  00293	8b 04 91	 mov	 eax, DWORD PTR [ecx+edx*4]
  00296	ff d0		 call	 eax

; 1799 : 
; 1800 : 			set_client_server_entity_vec3d (wingman, VEC3D_TYPE_WAIT_POSITION, get_local_entity_vec3d_ptr (wingman, VEC3D_TYPE_POSITION));

  00298	83 7d 0c 00	 cmp	 DWORD PTR _wingman$[ebp], 0
  0029c	74 0a		 je	 SHORT $LN32@process_me
  0029e	8b 45 0c	 mov	 eax, DWORD PTR _wingman$[ebp]
  002a1	8b 08		 mov	 ecx, DWORD PTR [eax]
  002a3	89 4d b8	 mov	 DWORD PTR tv220[ebp], ecx
  002a6	eb 21		 jmp	 SHORT $LN33@process_me
$LN32@process_me:
  002a8	8b 15 00 00 00
	00		 mov	 edx, DWORD PTR ?__LINE__Var@?0??process_message_hold_position@@YGXPAUENTITY@@0@Z@4JA
  002ae	83 c2 17	 add	 edx, 23			; 00000017H
  002b1	52		 push	 edx
  002b2	68 00 00 00 00	 push	 OFFSET ??_C@_0DK@BLKECLAG@c?3?2users?2nhv90?2projects?2eech?2ap@
  002b7	a1 00 00 00 00	 mov	 eax, DWORD PTR ?null_entity_pointer_message@@3PBDB ; null_entity_pointer_message
  002bc	50		 push	 eax
  002bd	e8 00 00 00 00	 call	 ?process_assert@@YGXPBD0H@Z ; process_assert
  002c2	c7 45 b8 00 00
	00 00		 mov	 DWORD PTR tv220[ebp], 0
$LN33@process_me:
  002c9	b9 01 00 00 00	 mov	 ecx, 1
  002ce	85 c9		 test	 ecx, ecx
  002d0	74 09		 je	 SHORT $LN34@process_me
  002d2	c7 45 b4 08 00
	00 00		 mov	 DWORD PTR tv228[ebp], 8
  002d9	eb 21		 jmp	 SHORT $LN35@process_me
$LN34@process_me:
  002db	8b 15 00 00 00
	00		 mov	 edx, DWORD PTR ?__LINE__Var@?0??process_message_hold_position@@YGXPAUENTITY@@0@Z@4JA
  002e1	83 c2 17	 add	 edx, 23			; 00000017H
  002e4	52		 push	 edx
  002e5	68 00 00 00 00	 push	 OFFSET ??_C@_0DK@BLKECLAG@c?3?2users?2nhv90?2projects?2eech?2ap@
  002ea	a1 00 00 00 00	 mov	 eax, DWORD PTR ?overload_invalid_vec3d_type_message@@3PBDB ; overload_invalid_vec3d_type_message
  002ef	50		 push	 eax
  002f0	e8 00 00 00 00	 call	 ?process_assert@@YGXPBD0H@Z ; process_assert
  002f5	c7 45 b4 00 00
	00 00		 mov	 DWORD PTR tv228[ebp], 0
$LN35@process_me:
  002fc	83 7d 0c 00	 cmp	 DWORD PTR _wingman$[ebp], 0
  00300	74 0a		 je	 SHORT $LN28@process_me
  00302	8b 4d 0c	 mov	 ecx, DWORD PTR _wingman$[ebp]
  00305	8b 11		 mov	 edx, DWORD PTR [ecx]
  00307	89 55 b0	 mov	 DWORD PTR tv201[ebp], edx
  0030a	eb 21		 jmp	 SHORT $LN29@process_me
$LN28@process_me:
  0030c	a1 00 00 00 00	 mov	 eax, DWORD PTR ?__LINE__Var@?0??process_message_hold_position@@YGXPAUENTITY@@0@Z@4JA
  00311	83 c0 17	 add	 eax, 23			; 00000017H
  00314	50		 push	 eax
  00315	68 00 00 00 00	 push	 OFFSET ??_C@_0DK@BLKECLAG@c?3?2users?2nhv90?2projects?2eech?2ap@
  0031a	8b 0d 00 00 00
	00		 mov	 ecx, DWORD PTR ?null_entity_pointer_message@@3PBDB ; null_entity_pointer_message
  00320	51		 push	 ecx
  00321	e8 00 00 00 00	 call	 ?process_assert@@YGXPBD0H@Z ; process_assert
  00326	c7 45 b0 00 00
	00 00		 mov	 DWORD PTR tv201[ebp], 0
$LN29@process_me:
  0032d	ba 01 00 00 00	 mov	 edx, 1
  00332	85 d2		 test	 edx, edx
  00334	74 09		 je	 SHORT $LN30@process_me
  00336	c7 45 ac 0c 00
	00 00		 mov	 DWORD PTR tv209[ebp], 12 ; 0000000cH
  0033d	eb 21		 jmp	 SHORT $LN31@process_me
$LN30@process_me:
  0033f	a1 00 00 00 00	 mov	 eax, DWORD PTR ?__LINE__Var@?0??process_message_hold_position@@YGXPAUENTITY@@0@Z@4JA
  00344	83 c0 17	 add	 eax, 23			; 00000017H
  00347	50		 push	 eax
  00348	68 00 00 00 00	 push	 OFFSET ??_C@_0DK@BLKECLAG@c?3?2users?2nhv90?2projects?2eech?2ap@
  0034d	8b 0d 00 00 00
	00		 mov	 ecx, DWORD PTR ?overload_invalid_vec3d_type_message@@3PBDB ; overload_invalid_vec3d_type_message
  00353	51		 push	 ecx
  00354	e8 00 00 00 00	 call	 ?process_assert@@YGXPBD0H@Z ; process_assert
  00359	c7 45 ac 00 00
	00 00		 mov	 DWORD PTR tv209[ebp], 0
$LN31@process_me:
  00360	6a 08		 push	 8
  00362	8b 55 0c	 mov	 edx, DWORD PTR _wingman$[ebp]
  00365	52		 push	 edx
  00366	6b 45 b8 60	 imul	 eax, DWORD PTR tv220[ebp], 96
  0036a	8b 4d b4	 mov	 ecx, DWORD PTR tv228[ebp]
  0036d	8b 94 88 00 00
	00 00		 mov	 edx, DWORD PTR ?fn_get_local_entity_vec3d_ptr@@3PAY0BI@P6GPAUVEC3D@@PAUENTITY@@W4VEC3D_TYPES@@@ZA[eax+ecx*4]
  00374	ff d2		 call	 edx
  00376	50		 push	 eax
  00377	6a 0c		 push	 12			; 0000000cH
  00379	8b 45 0c	 mov	 eax, DWORD PTR _wingman$[ebp]
  0037c	50		 push	 eax
  0037d	69 4d b0 c0 00
	00 00		 imul	 ecx, DWORD PTR tv201[ebp], 192
  00384	8b 55 ac	 mov	 edx, DWORD PTR tv209[ebp]
  00387	8d 84 d1 00 00
	00 00		 lea	 eax, DWORD PTR ?fn_set_client_server_entity_vec3d@@3PAY1BI@1P6GXPAUENTITY@@W4VEC3D_TYPES@@PAUVEC3D@@@ZA[ecx+edx*8]
  0038e	8b 0d 00 00 00
	00		 mov	 ecx, DWORD PTR ?system_comms_model@@3W4COMMS_MODEL_TYPES@@A ; system_comms_model
  00394	8b 14 88	 mov	 edx, DWORD PTR [eax+ecx*4]
  00397	ff d2		 call	 edx

; 1801 : 
; 1802 : 			play_client_server_radio_message_affirmative_response (wingman, SPEECH_WINGMAN_ROGER_MAINTAINING_POSITION, 0.6, 10.0);

  00399	51		 push	 ecx
  0039a	f3 0f 10 05 00
	00 00 00	 movss	 xmm0, DWORD PTR __real@41200000
  003a2	f3 0f 11 04 24	 movss	 DWORD PTR [esp], xmm0
  003a7	51		 push	 ecx
  003a8	f3 0f 10 05 00
	00 00 00	 movss	 xmm0, DWORD PTR __real@3f19999a
  003b0	f3 0f 11 04 24	 movss	 DWORD PTR [esp], xmm0
  003b5	6a 16		 push	 22			; 00000016H
  003b7	8b 45 0c	 mov	 eax, DWORD PTR _wingman$[ebp]
  003ba	50		 push	 eax
  003bb	e8 00 00 00 00	 call	 ?play_client_server_radio_message_affirmative_response@@YGXPAUENTITY@@HMM@Z ; play_client_server_radio_message_affirmative_response

; 1803 : 		}
; 1804 : 		else

  003c0	eb 27		 jmp	 SHORT $LN8@process_me
$LN7@process_me:

; 1805 : 		{
; 1806 : 			play_client_server_radio_message_negative_response (wingman, SPEECH_WINGMAN_UNABLE_TO_COMPLY, 0.6, 8.0);

  003c2	51		 push	 ecx
  003c3	f3 0f 10 05 00
	00 00 00	 movss	 xmm0, DWORD PTR __real@41000000
  003cb	f3 0f 11 04 24	 movss	 DWORD PTR [esp], xmm0
  003d0	51		 push	 ecx
  003d1	f3 0f 10 05 00
	00 00 00	 movss	 xmm0, DWORD PTR __real@3f19999a
  003d9	f3 0f 11 04 24	 movss	 DWORD PTR [esp], xmm0
  003de	6a 30		 push	 48			; 00000030H
  003e0	8b 45 0c	 mov	 eax, DWORD PTR _wingman$[ebp]
  003e3	50		 push	 eax
  003e4	e8 00 00 00 00	 call	 ?play_client_server_radio_message_negative_response@@YGXPAUENTITY@@HMM@Z ; play_client_server_radio_message_negative_response
$LN8@process_me:

; 1807 : 		}
; 1808 : 	}
; 1809 : }

  003e9	5f		 pop	 edi
  003ea	5e		 pop	 esi
  003eb	5b		 pop	 ebx
  003ec	8b e5		 mov	 esp, ebp
  003ee	5d		 pop	 ebp
  003ef	c2 08 00	 ret	 8
?process_message_hold_position@@YGXPAUENTITY@@0@Z ENDP	; process_message_hold_position
_TEXT	ENDS
; Function compile flags: /Odtp /ZI
; File c:\users\nhv90\projects\eech\aphavoc\source\misc\msg_in.c
;	COMDAT ?process_message_weapons_hold@@YGXPAUENTITY@@0HH@Z
_TEXT	SEGMENT
tv533 = -104						; size = 4
tv510 = -104						; size = 4
tv489 = -104						; size = 4
tv464 = -104						; size = 4
tv444 = -104						; size = 4
tv423 = -104						; size = 4
tv404 = -104						; size = 4
tv381 = -104						; size = 4
tv361 = -104						; size = 4
tv341 = -104						; size = 4
tv319 = -104						; size = 4
tv296 = -104						; size = 4
tv275 = -104						; size = 4
tv250 = -104						; size = 4
tv230 = -104						; size = 4
tv209 = -104						; size = 4
tv188 = -104						; size = 4
tv167 = -104						; size = 4
tv146 = -104						; size = 4
tv95 = -104						; size = 4
tv526 = -100						; size = 4
tv502 = -100						; size = 4
tv481 = -100						; size = 4
tv456 = -100						; size = 4
tv436 = -100						; size = 4
tv416 = -100						; size = 4
tv396 = -100						; size = 4
tv373 = -100						; size = 4
tv353 = -100						; size = 4
tv333 = -100						; size = 4
tv312 = -100						; size = 4
tv288 = -100						; size = 4
tv267 = -100						; size = 4
tv242 = -100						; size = 4
tv222 = -100						; size = 4
tv201 = -100						; size = 4
tv181 = -100						; size = 4
tv159 = -100						; size = 4
tv139 = -100						; size = 4
tv87 = -100						; size = 4
tv79 = -100						; size = 4
_target$1 = -32						; size = 4
_target$2 = -28						; size = 4
_valid_members$ = -24					; size = 4
_member_number$ = -20					; size = 4
_member$ = -16						; size = 4
_task$ = -12						; size = 4
_guide$ = -8						; size = 4
_group$ = -4						; size = 4
_en$ = 8						; size = 4
_wingman$ = 12						; size = 4
_state$ = 16						; size = 4
_play_speech$ = 20					; size = 4
?process_message_weapons_hold@@YGXPAUENTITY@@0HH@Z PROC	; process_message_weapons_hold, COMDAT

; 1628 : {

  00000	55		 push	 ebp
  00001	8b ec		 mov	 ebp, esp
  00003	83 ec 68	 sub	 esp, 104		; 00000068H
  00006	53		 push	 ebx
  00007	56		 push	 esi
  00008	57		 push	 edi

; 1629 : 	entity
; 1630 : 		*group,
; 1631 : 		*guide,
; 1632 : 		*task,
; 1633 : 		*member;
; 1634 : 
; 1635 : 	unsigned int
; 1636 : 		member_number,
; 1637 : 		valid_members;
; 1638 : 
; 1639 : 	ASSERT (wingman);

  00009	83 7d 0c 00	 cmp	 DWORD PTR _wingman$[ebp], 0
  0000d	75 18		 jne	 SHORT $LN10@process_me
  0000f	a1 00 00 00 00	 mov	 eax, DWORD PTR ?__LINE__Var@?0??process_message_weapons_hold@@YGXPAUENTITY@@0HH@Z@4JA
  00014	83 c0 0b	 add	 eax, 11			; 0000000bH
  00017	50		 push	 eax
  00018	68 00 00 00 00	 push	 OFFSET ??_C@_0DK@BLKECLAG@c?3?2users?2nhv90?2projects?2eech?2ap@
  0001d	68 00 00 00 00	 push	 OFFSET ??_C@_07EAKNLMLO@wingman@
  00022	e8 00 00 00 00	 call	 ?process_assert@@YGXPBD0H@Z ; process_assert
$LN10@process_me:

; 1640 : 
; 1641 : 	ASSERT (get_comms_model () == COMMS_MODEL_SERVER);

  00027	83 3d 00 00 00
	00 00		 cmp	 DWORD PTR ?system_comms_model@@3W4COMMS_MODEL_TYPES@@A, 0 ; system_comms_model
  0002e	74 18		 je	 SHORT $LN11@process_me
  00030	a1 00 00 00 00	 mov	 eax, DWORD PTR ?__LINE__Var@?0??process_message_weapons_hold@@YGXPAUENTITY@@0HH@Z@4JA
  00035	83 c0 0d	 add	 eax, 13			; 0000000dH
  00038	50		 push	 eax
  00039	68 00 00 00 00	 push	 OFFSET ??_C@_0DK@BLKECLAG@c?3?2users?2nhv90?2projects?2eech?2ap@
  0003e	68 00 00 00 00	 push	 OFFSET ??_C@_0CJ@DMBLBJBK@get_comms_model?5?$CI?$CJ?5?$DN?$DN?5COMMS_MOD@
  00043	e8 00 00 00 00	 call	 ?process_assert@@YGXPBD0H@Z ; process_assert
$LN11@process_me:

; 1642 : 
; 1643 : 	valid_members = 0;

  00048	c7 45 e8 00 00
	00 00		 mov	 DWORD PTR _valid_members$[ebp], 0

; 1644 : 
; 1645 : 	group = NULL;

  0004f	c7 45 fc 00 00
	00 00		 mov	 DWORD PTR _group$[ebp], 0

; 1646 : 
; 1647 : 	if (get_local_entity_type (wingman) == ENTITY_TYPE_GROUP)

  00056	83 7d 0c 00	 cmp	 DWORD PTR _wingman$[ebp], 0
  0005a	74 0a		 je	 SHORT $LN31@process_me
  0005c	8b 45 0c	 mov	 eax, DWORD PTR _wingman$[ebp]
  0005f	8b 08		 mov	 ecx, DWORD PTR [eax]
  00061	89 4d 9c	 mov	 DWORD PTR tv79[ebp], ecx
  00064	eb 1d		 jmp	 SHORT $LN32@process_me
$LN31@process_me:
  00066	68 6f 06 00 00	 push	 1647			; 0000066fH
  0006b	68 00 00 00 00	 push	 OFFSET ??_C@_0DK@BLKECLAG@c?3?2users?2nhv90?2projects?2eech?2ap@
  00070	8b 15 00 00 00
	00		 mov	 edx, DWORD PTR ?null_entity_pointer_message@@3PBDB ; null_entity_pointer_message
  00076	52		 push	 edx
  00077	e8 00 00 00 00	 call	 ?process_assert@@YGXPBD0H@Z ; process_assert
  0007c	c7 45 9c 00 00
	00 00		 mov	 DWORD PTR tv79[ebp], 0
$LN32@process_me:
  00083	83 7d 9c 0c	 cmp	 DWORD PTR tv79[ebp], 12	; 0000000cH
  00087	0f 85 05 06 00
	00		 jne	 $LN12@process_me

; 1648 : 	{
; 1649 : 		group = wingman;

  0008d	8b 45 0c	 mov	 eax, DWORD PTR _wingman$[ebp]
  00090	89 45 fc	 mov	 DWORD PTR _group$[ebp], eax

; 1650 : 
; 1651 : 		member = get_local_entity_first_child (wingman, LIST_TYPE_MEMBER);

  00093	83 7d 0c 00	 cmp	 DWORD PTR _wingman$[ebp], 0
  00097	74 0a		 je	 SHORT $LN33@process_me
  00099	8b 45 0c	 mov	 eax, DWORD PTR _wingman$[ebp]
  0009c	8b 08		 mov	 ecx, DWORD PTR [eax]
  0009e	89 4d 9c	 mov	 DWORD PTR tv87[ebp], ecx
  000a1	eb 21		 jmp	 SHORT $LN34@process_me
$LN33@process_me:
  000a3	8b 15 00 00 00
	00		 mov	 edx, DWORD PTR ?__LINE__Var@?0??process_message_weapons_hold@@YGXPAUENTITY@@0HH@Z@4JA
  000a9	83 c2 17	 add	 edx, 23			; 00000017H
  000ac	52		 push	 edx
  000ad	68 00 00 00 00	 push	 OFFSET ??_C@_0DK@BLKECLAG@c?3?2users?2nhv90?2projects?2eech?2ap@
  000b2	a1 00 00 00 00	 mov	 eax, DWORD PTR ?null_entity_pointer_message@@3PBDB ; null_entity_pointer_message
  000b7	50		 push	 eax
  000b8	e8 00 00 00 00	 call	 ?process_assert@@YGXPBD0H@Z ; process_assert
  000bd	c7 45 9c 00 00
	00 00		 mov	 DWORD PTR tv87[ebp], 0
$LN34@process_me:
  000c4	b9 01 00 00 00	 mov	 ecx, 1
  000c9	85 c9		 test	 ecx, ecx
  000cb	74 09		 je	 SHORT $LN35@process_me
  000cd	c7 45 98 19 00
	00 00		 mov	 DWORD PTR tv95[ebp], 25	; 00000019H
  000d4	eb 21		 jmp	 SHORT $LN36@process_me
$LN35@process_me:
  000d6	8b 15 00 00 00
	00		 mov	 edx, DWORD PTR ?__LINE__Var@?0??process_message_weapons_hold@@YGXPAUENTITY@@0HH@Z@4JA
  000dc	83 c2 17	 add	 edx, 23			; 00000017H
  000df	52		 push	 edx
  000e0	68 00 00 00 00	 push	 OFFSET ??_C@_0DK@BLKECLAG@c?3?2users?2nhv90?2projects?2eech?2ap@
  000e5	a1 00 00 00 00	 mov	 eax, DWORD PTR ?overload_invalid_list_type_message@@3PBDB ; overload_invalid_list_type_message
  000ea	50		 push	 eax
  000eb	e8 00 00 00 00	 call	 ?process_assert@@YGXPBD0H@Z ; process_assert
  000f0	c7 45 98 00 00
	00 00		 mov	 DWORD PTR tv95[ebp], 0
$LN36@process_me:
  000f7	6a 19		 push	 25			; 00000019H
  000f9	8b 4d 0c	 mov	 ecx, DWORD PTR _wingman$[ebp]
  000fc	51		 push	 ecx
  000fd	69 55 9c b4 00
	00 00		 imul	 edx, DWORD PTR tv87[ebp], 180
  00104	8b 45 98	 mov	 eax, DWORD PTR tv95[ebp]
  00107	8b 8c 82 00 00
	00 00		 mov	 ecx, DWORD PTR ?fn_get_local_entity_first_child@@3PAY0CN@P6GPAUENTITY@@PAU1@W4LIST_TYPES@@@ZA[edx+eax*4]
  0010e	ff d1		 call	 ecx
  00110	89 45 f0	 mov	 DWORD PTR _member$[ebp], eax
$LN2@process_me:

; 1652 : 
; 1653 : 		while (member)

  00113	83 7d f0 00	 cmp	 DWORD PTR _member$[ebp], 0
  00117	0f 84 70 05 00
	00		 je	 $LN3@process_me

; 1654 : 		{
; 1655 : 			if (get_local_entity_int_value (member, INT_TYPE_WEAPONS_HOLD) != state)

  0011d	83 7d f0 00	 cmp	 DWORD PTR _member$[ebp], 0
  00121	74 0a		 je	 SHORT $LN37@process_me
  00123	8b 45 f0	 mov	 eax, DWORD PTR _member$[ebp]
  00126	8b 08		 mov	 ecx, DWORD PTR [eax]
  00128	89 4d 9c	 mov	 DWORD PTR tv139[ebp], ecx
  0012b	eb 1d		 jmp	 SHORT $LN38@process_me
$LN37@process_me:
  0012d	68 77 06 00 00	 push	 1655			; 00000677H
  00132	68 00 00 00 00	 push	 OFFSET ??_C@_0DK@BLKECLAG@c?3?2users?2nhv90?2projects?2eech?2ap@
  00137	8b 15 00 00 00
	00		 mov	 edx, DWORD PTR ?null_entity_pointer_message@@3PBDB ; null_entity_pointer_message
  0013d	52		 push	 edx
  0013e	e8 00 00 00 00	 call	 ?process_assert@@YGXPBD0H@Z ; process_assert
  00143	c7 45 9c 00 00
	00 00		 mov	 DWORD PTR tv139[ebp], 0
$LN38@process_me:
  0014a	b8 01 00 00 00	 mov	 eax, 1
  0014f	85 c0		 test	 eax, eax
  00151	74 09		 je	 SHORT $LN39@process_me
  00153	c7 45 98 11 01
	00 00		 mov	 DWORD PTR tv146[ebp], 273 ; 00000111H
  0015a	eb 1d		 jmp	 SHORT $LN40@process_me
$LN39@process_me:
  0015c	68 77 06 00 00	 push	 1655			; 00000677H
  00161	68 00 00 00 00	 push	 OFFSET ??_C@_0DK@BLKECLAG@c?3?2users?2nhv90?2projects?2eech?2ap@
  00166	8b 0d 00 00 00
	00		 mov	 ecx, DWORD PTR ?overload_invalid_int_type_message@@3PBDB ; overload_invalid_int_type_message
  0016c	51		 push	 ecx
  0016d	e8 00 00 00 00	 call	 ?process_assert@@YGXPBD0H@Z ; process_assert
  00172	c7 45 98 00 00
	00 00		 mov	 DWORD PTR tv146[ebp], 0
$LN40@process_me:
  00179	68 11 01 00 00	 push	 273			; 00000111H
  0017e	8b 55 f0	 mov	 edx, DWORD PTR _member$[ebp]
  00181	52		 push	 edx
  00182	69 45 9c 5c 04
	00 00		 imul	 eax, DWORD PTR tv139[ebp], 1116
  00189	8b 4d 98	 mov	 ecx, DWORD PTR tv146[ebp]
  0018c	8b 94 88 00 00
	00 00		 mov	 edx, DWORD PTR ?fn_get_local_entity_int_value@@3PAY0BBH@P6GHPAUENTITY@@W4INT_TYPES@@@ZA[eax+ecx*4]
  00193	ff d2		 call	 edx
  00195	3b 45 10	 cmp	 eax, DWORD PTR _state$[ebp]
  00198	0f 84 6a 04 00
	00		 je	 $LN19@process_me

; 1656 : 			{
; 1657 : 				set_client_server_entity_int_value (member, INT_TYPE_WEAPONS_HOLD, state);

  0019e	83 7d f0 00	 cmp	 DWORD PTR _member$[ebp], 0
  001a2	74 0a		 je	 SHORT $LN41@process_me
  001a4	8b 45 f0	 mov	 eax, DWORD PTR _member$[ebp]
  001a7	8b 08		 mov	 ecx, DWORD PTR [eax]
  001a9	89 4d 9c	 mov	 DWORD PTR tv159[ebp], ecx
  001ac	eb 21		 jmp	 SHORT $LN42@process_me
$LN41@process_me:
  001ae	8b 15 00 00 00
	00		 mov	 edx, DWORD PTR ?__LINE__Var@?0??process_message_weapons_hold@@YGXPAUENTITY@@0HH@Z@4JA
  001b4	83 c2 1d	 add	 edx, 29			; 0000001dH
  001b7	52		 push	 edx
  001b8	68 00 00 00 00	 push	 OFFSET ??_C@_0DK@BLKECLAG@c?3?2users?2nhv90?2projects?2eech?2ap@
  001bd	a1 00 00 00 00	 mov	 eax, DWORD PTR ?null_entity_pointer_message@@3PBDB ; null_entity_pointer_message
  001c2	50		 push	 eax
  001c3	e8 00 00 00 00	 call	 ?process_assert@@YGXPBD0H@Z ; process_assert
  001c8	c7 45 9c 00 00
	00 00		 mov	 DWORD PTR tv159[ebp], 0
$LN42@process_me:
  001cf	b9 01 00 00 00	 mov	 ecx, 1
  001d4	85 c9		 test	 ecx, ecx
  001d6	74 09		 je	 SHORT $LN43@process_me
  001d8	c7 45 98 11 01
	00 00		 mov	 DWORD PTR tv167[ebp], 273 ; 00000111H
  001df	eb 21		 jmp	 SHORT $LN44@process_me
$LN43@process_me:
  001e1	8b 15 00 00 00
	00		 mov	 edx, DWORD PTR ?__LINE__Var@?0??process_message_weapons_hold@@YGXPAUENTITY@@0HH@Z@4JA
  001e7	83 c2 1d	 add	 edx, 29			; 0000001dH
  001ea	52		 push	 edx
  001eb	68 00 00 00 00	 push	 OFFSET ??_C@_0DK@BLKECLAG@c?3?2users?2nhv90?2projects?2eech?2ap@
  001f0	a1 00 00 00 00	 mov	 eax, DWORD PTR ?overload_invalid_int_type_message@@3PBDB ; overload_invalid_int_type_message
  001f5	50		 push	 eax
  001f6	e8 00 00 00 00	 call	 ?process_assert@@YGXPBD0H@Z ; process_assert
  001fb	c7 45 98 00 00
	00 00		 mov	 DWORD PTR tv167[ebp], 0
$LN44@process_me:
  00202	8b 4d 10	 mov	 ecx, DWORD PTR _state$[ebp]
  00205	51		 push	 ecx
  00206	68 11 01 00 00	 push	 273			; 00000111H
  0020b	8b 55 f0	 mov	 edx, DWORD PTR _member$[ebp]
  0020e	52		 push	 edx
  0020f	69 45 9c b8 08
	00 00		 imul	 eax, DWORD PTR tv159[ebp], 2232
  00216	8b 4d 98	 mov	 ecx, DWORD PTR tv167[ebp]
  00219	8d 94 c8 00 00
	00 00		 lea	 edx, DWORD PTR ?fn_set_client_server_entity_int_value@@3PAY1BBH@1P6GXPAUENTITY@@W4INT_TYPES@@H@ZA[eax+ecx*8]
  00220	a1 00 00 00 00	 mov	 eax, DWORD PTR ?system_comms_model@@3W4COMMS_MODEL_TYPES@@A ; system_comms_model
  00225	8b 0c 82	 mov	 ecx, DWORD PTR [edx+eax*4]
  00228	ff d1		 call	 ecx

; 1658 : 
; 1659 : 				//
; 1660 : 				// If setting weapons free, see if member should be assigned to existing engage tasks
; 1661 : 				//
; 1662 : 
; 1663 : 				if (!state)

  0022a	83 7d 10 00	 cmp	 DWORD PTR _state$[ebp], 0
  0022e	0f 85 d4 03 00
	00		 jne	 $LN19@process_me

; 1664 : 				{
; 1665 : 					entity* target;
; 1666 : 
; 1667 : 					if (get_local_entity_int_value (group, INT_TYPE_ENGAGE_ENEMY))

  00234	83 7d fc 00	 cmp	 DWORD PTR _group$[ebp], 0
  00238	74 0a		 je	 SHORT $LN45@process_me
  0023a	8b 45 fc	 mov	 eax, DWORD PTR _group$[ebp]
  0023d	8b 08		 mov	 ecx, DWORD PTR [eax]
  0023f	89 4d 9c	 mov	 DWORD PTR tv181[ebp], ecx
  00242	eb 1d		 jmp	 SHORT $LN46@process_me
$LN45@process_me:
  00244	68 83 06 00 00	 push	 1667			; 00000683H
  00249	68 00 00 00 00	 push	 OFFSET ??_C@_0DK@BLKECLAG@c?3?2users?2nhv90?2projects?2eech?2ap@
  0024e	8b 15 00 00 00
	00		 mov	 edx, DWORD PTR ?null_entity_pointer_message@@3PBDB ; null_entity_pointer_message
  00254	52		 push	 edx
  00255	e8 00 00 00 00	 call	 ?process_assert@@YGXPBD0H@Z ; process_assert
  0025a	c7 45 9c 00 00
	00 00		 mov	 DWORD PTR tv181[ebp], 0
$LN46@process_me:
  00261	b8 01 00 00 00	 mov	 eax, 1
  00266	85 c0		 test	 eax, eax
  00268	74 09		 je	 SHORT $LN47@process_me
  0026a	c7 45 98 33 00
	00 00		 mov	 DWORD PTR tv188[ebp], 51 ; 00000033H
  00271	eb 1d		 jmp	 SHORT $LN48@process_me
$LN47@process_me:
  00273	68 83 06 00 00	 push	 1667			; 00000683H
  00278	68 00 00 00 00	 push	 OFFSET ??_C@_0DK@BLKECLAG@c?3?2users?2nhv90?2projects?2eech?2ap@
  0027d	8b 0d 00 00 00
	00		 mov	 ecx, DWORD PTR ?overload_invalid_int_type_message@@3PBDB ; overload_invalid_int_type_message
  00283	51		 push	 ecx
  00284	e8 00 00 00 00	 call	 ?process_assert@@YGXPBD0H@Z ; process_assert
  00289	c7 45 98 00 00
	00 00		 mov	 DWORD PTR tv188[ebp], 0
$LN48@process_me:
  00290	6a 33		 push	 51			; 00000033H
  00292	8b 55 fc	 mov	 edx, DWORD PTR _group$[ebp]
  00295	52		 push	 edx
  00296	69 45 9c 5c 04
	00 00		 imul	 eax, DWORD PTR tv181[ebp], 1116
  0029d	8b 4d 98	 mov	 ecx, DWORD PTR tv188[ebp]
  002a0	8b 94 88 00 00
	00 00		 mov	 edx, DWORD PTR ?fn_get_local_entity_int_value@@3PAY0BBH@P6GHPAUENTITY@@W4INT_TYPES@@@ZA[eax+ecx*4]
  002a7	ff d2		 call	 edx
  002a9	85 c0		 test	 eax, eax
  002ab	0f 84 ac 01 00
	00		 je	 $LN5@process_me

; 1668 : 					{
; 1669 : 						member_number = (1 << get_local_entity_int_value (member, INT_TYPE_GROUP_MEMBER_NUMBER));

  002b1	83 7d f0 00	 cmp	 DWORD PTR _member$[ebp], 0
  002b5	74 0a		 je	 SHORT $LN49@process_me
  002b7	8b 45 f0	 mov	 eax, DWORD PTR _member$[ebp]
  002ba	8b 08		 mov	 ecx, DWORD PTR [eax]
  002bc	89 4d 9c	 mov	 DWORD PTR tv201[ebp], ecx
  002bf	eb 21		 jmp	 SHORT $LN50@process_me
$LN49@process_me:
  002c1	8b 15 00 00 00
	00		 mov	 edx, DWORD PTR ?__LINE__Var@?0??process_message_weapons_hold@@YGXPAUENTITY@@0HH@Z@4JA
  002c7	83 c2 29	 add	 edx, 41			; 00000029H
  002ca	52		 push	 edx
  002cb	68 00 00 00 00	 push	 OFFSET ??_C@_0DK@BLKECLAG@c?3?2users?2nhv90?2projects?2eech?2ap@
  002d0	a1 00 00 00 00	 mov	 eax, DWORD PTR ?null_entity_pointer_message@@3PBDB ; null_entity_pointer_message
  002d5	50		 push	 eax
  002d6	e8 00 00 00 00	 call	 ?process_assert@@YGXPBD0H@Z ; process_assert
  002db	c7 45 9c 00 00
	00 00		 mov	 DWORD PTR tv201[ebp], 0
$LN50@process_me:
  002e2	b9 01 00 00 00	 mov	 ecx, 1
  002e7	85 c9		 test	 ecx, ecx
  002e9	74 09		 je	 SHORT $LN51@process_me
  002eb	c7 45 98 4b 00
	00 00		 mov	 DWORD PTR tv209[ebp], 75 ; 0000004bH
  002f2	eb 21		 jmp	 SHORT $LN52@process_me
$LN51@process_me:
  002f4	8b 15 00 00 00
	00		 mov	 edx, DWORD PTR ?__LINE__Var@?0??process_message_weapons_hold@@YGXPAUENTITY@@0HH@Z@4JA
  002fa	83 c2 29	 add	 edx, 41			; 00000029H
  002fd	52		 push	 edx
  002fe	68 00 00 00 00	 push	 OFFSET ??_C@_0DK@BLKECLAG@c?3?2users?2nhv90?2projects?2eech?2ap@
  00303	a1 00 00 00 00	 mov	 eax, DWORD PTR ?overload_invalid_int_type_message@@3PBDB ; overload_invalid_int_type_message
  00308	50		 push	 eax
  00309	e8 00 00 00 00	 call	 ?process_assert@@YGXPBD0H@Z ; process_assert
  0030e	c7 45 98 00 00
	00 00		 mov	 DWORD PTR tv209[ebp], 0
$LN52@process_me:
  00315	6a 4b		 push	 75			; 0000004bH
  00317	8b 4d f0	 mov	 ecx, DWORD PTR _member$[ebp]
  0031a	51		 push	 ecx
  0031b	69 55 9c 5c 04
	00 00		 imul	 edx, DWORD PTR tv201[ebp], 1116
  00322	8b 45 98	 mov	 eax, DWORD PTR tv209[ebp]
  00325	8b 8c 82 00 00
	00 00		 mov	 ecx, DWORD PTR ?fn_get_local_entity_int_value@@3PAY0BBH@P6GHPAUENTITY@@W4INT_TYPES@@@ZA[edx+eax*4]
  0032c	ff d1		 call	 ecx
  0032e	ba 01 00 00 00	 mov	 edx, 1
  00333	8b c8		 mov	 ecx, eax
  00335	d3 e2		 shl	 edx, cl
  00337	89 55 ec	 mov	 DWORD PTR _member_number$[ebp], edx

; 1670 : 
; 1671 : 						// add engage task for all PFZ targets
; 1672 : 						for (target = get_local_entity_first_child (member, LIST_TYPE_DESIGNATED_TARGET);

  0033a	83 7d f0 00	 cmp	 DWORD PTR _member$[ebp], 0
  0033e	74 0a		 je	 SHORT $LN53@process_me
  00340	8b 45 f0	 mov	 eax, DWORD PTR _member$[ebp]
  00343	8b 08		 mov	 ecx, DWORD PTR [eax]
  00345	89 4d 9c	 mov	 DWORD PTR tv222[ebp], ecx
  00348	eb 21		 jmp	 SHORT $LN54@process_me
$LN53@process_me:
  0034a	8b 15 00 00 00
	00		 mov	 edx, DWORD PTR ?__LINE__Var@?0??process_message_weapons_hold@@YGXPAUENTITY@@0HH@Z@4JA
  00350	83 c2 2c	 add	 edx, 44			; 0000002cH
  00353	52		 push	 edx
  00354	68 00 00 00 00	 push	 OFFSET ??_C@_0DK@BLKECLAG@c?3?2users?2nhv90?2projects?2eech?2ap@
  00359	a1 00 00 00 00	 mov	 eax, DWORD PTR ?null_entity_pointer_message@@3PBDB ; null_entity_pointer_message
  0035e	50		 push	 eax
  0035f	e8 00 00 00 00	 call	 ?process_assert@@YGXPBD0H@Z ; process_assert
  00364	c7 45 9c 00 00
	00 00		 mov	 DWORD PTR tv222[ebp], 0
$LN54@process_me:
  0036b	b9 01 00 00 00	 mov	 ecx, 1
  00370	85 c9		 test	 ecx, ecx
  00372	74 09		 je	 SHORT $LN55@process_me
  00374	c7 45 98 0a 00
	00 00		 mov	 DWORD PTR tv230[ebp], 10 ; 0000000aH
  0037b	eb 21		 jmp	 SHORT $LN56@process_me
$LN55@process_me:
  0037d	8b 15 00 00 00
	00		 mov	 edx, DWORD PTR ?__LINE__Var@?0??process_message_weapons_hold@@YGXPAUENTITY@@0HH@Z@4JA
  00383	83 c2 2c	 add	 edx, 44			; 0000002cH
  00386	52		 push	 edx
  00387	68 00 00 00 00	 push	 OFFSET ??_C@_0DK@BLKECLAG@c?3?2users?2nhv90?2projects?2eech?2ap@
  0038c	a1 00 00 00 00	 mov	 eax, DWORD PTR ?overload_invalid_list_type_message@@3PBDB ; overload_invalid_list_type_message
  00391	50		 push	 eax
  00392	e8 00 00 00 00	 call	 ?process_assert@@YGXPBD0H@Z ; process_assert
  00397	c7 45 98 00 00
	00 00		 mov	 DWORD PTR tv230[ebp], 0
$LN56@process_me:
  0039e	6a 0a		 push	 10			; 0000000aH
  003a0	8b 4d f0	 mov	 ecx, DWORD PTR _member$[ebp]
  003a3	51		 push	 ecx
  003a4	69 55 9c b4 00
	00 00		 imul	 edx, DWORD PTR tv222[ebp], 180
  003ab	8b 45 98	 mov	 eax, DWORD PTR tv230[ebp]
  003ae	8b 8c 82 00 00
	00 00		 mov	 ecx, DWORD PTR ?fn_get_local_entity_first_child@@3PAY0CN@P6GPAUENTITY@@PAU1@W4LIST_TYPES@@@ZA[edx+eax*4]
  003b5	ff d1		 call	 ecx
  003b7	89 45 e4	 mov	 DWORD PTR _target$2[ebp], eax
  003ba	e9 80 00 00 00	 jmp	 $LN6@process_me
$LN4@process_me:

; 1674 : 							 target = get_local_entity_child_succ (target, LIST_TYPE_DESIGNATED_TARGET))

  003bf	83 7d e4 00	 cmp	 DWORD PTR _target$2[ebp], 0
  003c3	74 0a		 je	 SHORT $LN57@process_me
  003c5	8b 45 e4	 mov	 eax, DWORD PTR _target$2[ebp]
  003c8	8b 08		 mov	 ecx, DWORD PTR [eax]
  003ca	89 4d 9c	 mov	 DWORD PTR tv242[ebp], ecx
  003cd	eb 21		 jmp	 SHORT $LN58@process_me
$LN57@process_me:
  003cf	8b 15 00 00 00
	00		 mov	 edx, DWORD PTR ?__LINE__Var@?0??process_message_weapons_hold@@YGXPAUENTITY@@0HH@Z@4JA
  003d5	83 c2 2e	 add	 edx, 46			; 0000002eH
  003d8	52		 push	 edx
  003d9	68 00 00 00 00	 push	 OFFSET ??_C@_0DK@BLKECLAG@c?3?2users?2nhv90?2projects?2eech?2ap@
  003de	a1 00 00 00 00	 mov	 eax, DWORD PTR ?null_entity_pointer_message@@3PBDB ; null_entity_pointer_message
  003e3	50		 push	 eax
  003e4	e8 00 00 00 00	 call	 ?process_assert@@YGXPBD0H@Z ; process_assert
  003e9	c7 45 9c 00 00
	00 00		 mov	 DWORD PTR tv242[ebp], 0
$LN58@process_me:
  003f0	b9 01 00 00 00	 mov	 ecx, 1
  003f5	85 c9		 test	 ecx, ecx
  003f7	74 09		 je	 SHORT $LN59@process_me
  003f9	c7 45 98 0a 00
	00 00		 mov	 DWORD PTR tv250[ebp], 10 ; 0000000aH
  00400	eb 21		 jmp	 SHORT $LN60@process_me
$LN59@process_me:
  00402	8b 15 00 00 00
	00		 mov	 edx, DWORD PTR ?__LINE__Var@?0??process_message_weapons_hold@@YGXPAUENTITY@@0HH@Z@4JA
  00408	83 c2 2e	 add	 edx, 46			; 0000002eH
  0040b	52		 push	 edx
  0040c	68 00 00 00 00	 push	 OFFSET ??_C@_0DK@BLKECLAG@c?3?2users?2nhv90?2projects?2eech?2ap@
  00411	a1 00 00 00 00	 mov	 eax, DWORD PTR ?overload_invalid_list_type_message@@3PBDB ; overload_invalid_list_type_message
  00416	50		 push	 eax
  00417	e8 00 00 00 00	 call	 ?process_assert@@YGXPBD0H@Z ; process_assert
  0041c	c7 45 98 00 00
	00 00		 mov	 DWORD PTR tv250[ebp], 0
$LN60@process_me:
  00423	6a 0a		 push	 10			; 0000000aH
  00425	8b 4d e4	 mov	 ecx, DWORD PTR _target$2[ebp]
  00428	51		 push	 ecx
  00429	69 55 9c b4 00
	00 00		 imul	 edx, DWORD PTR tv242[ebp], 180
  00430	8b 45 98	 mov	 eax, DWORD PTR tv250[ebp]
  00433	8b 8c 82 00 00
	00 00		 mov	 ecx, DWORD PTR ?fn_get_local_entity_child_succ@@3PAY0CN@P6GPAUENTITY@@PAU1@W4LIST_TYPES@@@ZA[edx+eax*4]
  0043a	ff d1		 call	 ecx
  0043c	89 45 e4	 mov	 DWORD PTR _target$2[ebp], eax
$LN6@process_me:

; 1673 : 							 target;

  0043f	83 7d e4 00	 cmp	 DWORD PTR _target$2[ebp], 0
  00443	74 18		 je	 SHORT $LN5@process_me

; 1675 : 						{
; 1676 : 							engage_specific_target(group, target, member_number, FALSE);

  00445	6a 00		 push	 0
  00447	8b 45 ec	 mov	 eax, DWORD PTR _member_number$[ebp]
  0044a	50		 push	 eax
  0044b	8b 4d e4	 mov	 ecx, DWORD PTR _target$2[ebp]
  0044e	51		 push	 ecx
  0044f	8b 55 fc	 mov	 edx, DWORD PTR _group$[ebp]
  00452	52		 push	 edx
  00453	e8 00 00 00 00	 call	 ?engage_specific_target@@YGHPAUENTITY@@0IH@Z ; engage_specific_target

; 1677 : 						}

  00458	e9 62 ff ff ff	 jmp	 $LN4@process_me
$LN5@process_me:

; 1678 : 					}
; 1679 : 
; 1680 : 					guide = get_local_entity_parent (member, LIST_TYPE_FOLLOWER);

  0045d	83 7d f0 00	 cmp	 DWORD PTR _member$[ebp], 0
  00461	74 0a		 je	 SHORT $LN61@process_me
  00463	8b 45 f0	 mov	 eax, DWORD PTR _member$[ebp]
  00466	8b 08		 mov	 ecx, DWORD PTR [eax]
  00468	89 4d 9c	 mov	 DWORD PTR tv267[ebp], ecx
  0046b	eb 21		 jmp	 SHORT $LN62@process_me
$LN61@process_me:
  0046d	8b 15 00 00 00
	00		 mov	 edx, DWORD PTR ?__LINE__Var@?0??process_message_weapons_hold@@YGXPAUENTITY@@0HH@Z@4JA
  00473	83 c2 34	 add	 edx, 52			; 00000034H
  00476	52		 push	 edx
  00477	68 00 00 00 00	 push	 OFFSET ??_C@_0DK@BLKECLAG@c?3?2users?2nhv90?2projects?2eech?2ap@
  0047c	a1 00 00 00 00	 mov	 eax, DWORD PTR ?null_entity_pointer_message@@3PBDB ; null_entity_pointer_message
  00481	50		 push	 eax
  00482	e8 00 00 00 00	 call	 ?process_assert@@YGXPBD0H@Z ; process_assert
  00487	c7 45 9c 00 00
	00 00		 mov	 DWORD PTR tv267[ebp], 0
$LN62@process_me:
  0048e	b9 01 00 00 00	 mov	 ecx, 1
  00493	85 c9		 test	 ecx, ecx
  00495	74 09		 je	 SHORT $LN63@process_me
  00497	c7 45 98 0d 00
	00 00		 mov	 DWORD PTR tv275[ebp], 13 ; 0000000dH
  0049e	eb 21		 jmp	 SHORT $LN64@process_me
$LN63@process_me:
  004a0	8b 15 00 00 00
	00		 mov	 edx, DWORD PTR ?__LINE__Var@?0??process_message_weapons_hold@@YGXPAUENTITY@@0HH@Z@4JA
  004a6	83 c2 34	 add	 edx, 52			; 00000034H
  004a9	52		 push	 edx
  004aa	68 00 00 00 00	 push	 OFFSET ??_C@_0DK@BLKECLAG@c?3?2users?2nhv90?2projects?2eech?2ap@
  004af	a1 00 00 00 00	 mov	 eax, DWORD PTR ?overload_invalid_list_type_message@@3PBDB ; overload_invalid_list_type_message
  004b4	50		 push	 eax
  004b5	e8 00 00 00 00	 call	 ?process_assert@@YGXPBD0H@Z ; process_assert
  004ba	c7 45 98 00 00
	00 00		 mov	 DWORD PTR tv275[ebp], 0
$LN64@process_me:
  004c1	6a 0d		 push	 13			; 0000000dH
  004c3	8b 4d f0	 mov	 ecx, DWORD PTR _member$[ebp]
  004c6	51		 push	 ecx
  004c7	69 55 9c b4 00
	00 00		 imul	 edx, DWORD PTR tv267[ebp], 180
  004ce	8b 45 98	 mov	 eax, DWORD PTR tv275[ebp]
  004d1	8b 8c 82 00 00
	00 00		 mov	 ecx, DWORD PTR ?fn_get_local_entity_parent@@3PAY0CN@P6GPAUENTITY@@PAU1@W4LIST_TYPES@@@ZA[edx+eax*4]
  004d8	ff d1		 call	 ecx
  004da	89 45 f8	 mov	 DWORD PTR _guide$[ebp], eax

; 1681 : 
; 1682 : 					if (guide)

  004dd	83 7d f8 00	 cmp	 DWORD PTR _guide$[ebp], 0
  004e1	0f 84 21 01 00
	00		 je	 $LN19@process_me

; 1683 : 					{
; 1684 : 						task = get_local_entity_parent (guide, LIST_TYPE_GUIDE);

  004e7	83 7d f8 00	 cmp	 DWORD PTR _guide$[ebp], 0
  004eb	74 0a		 je	 SHORT $LN65@process_me
  004ed	8b 45 f8	 mov	 eax, DWORD PTR _guide$[ebp]
  004f0	8b 08		 mov	 ecx, DWORD PTR [eax]
  004f2	89 4d 9c	 mov	 DWORD PTR tv288[ebp], ecx
  004f5	eb 21		 jmp	 SHORT $LN66@process_me
$LN65@process_me:
  004f7	8b 15 00 00 00
	00		 mov	 edx, DWORD PTR ?__LINE__Var@?0??process_message_weapons_hold@@YGXPAUENTITY@@0HH@Z@4JA
  004fd	83 c2 38	 add	 edx, 56			; 00000038H
  00500	52		 push	 edx
  00501	68 00 00 00 00	 push	 OFFSET ??_C@_0DK@BLKECLAG@c?3?2users?2nhv90?2projects?2eech?2ap@
  00506	a1 00 00 00 00	 mov	 eax, DWORD PTR ?null_entity_pointer_message@@3PBDB ; null_entity_pointer_message
  0050b	50		 push	 eax
  0050c	e8 00 00 00 00	 call	 ?process_assert@@YGXPBD0H@Z ; process_assert
  00511	c7 45 9c 00 00
	00 00		 mov	 DWORD PTR tv288[ebp], 0
$LN66@process_me:
  00518	b9 01 00 00 00	 mov	 ecx, 1
  0051d	85 c9		 test	 ecx, ecx
  0051f	74 09		 je	 SHORT $LN67@process_me
  00521	c7 45 98 10 00
	00 00		 mov	 DWORD PTR tv296[ebp], 16 ; 00000010H
  00528	eb 21		 jmp	 SHORT $LN68@process_me
$LN67@process_me:
  0052a	8b 15 00 00 00
	00		 mov	 edx, DWORD PTR ?__LINE__Var@?0??process_message_weapons_hold@@YGXPAUENTITY@@0HH@Z@4JA
  00530	83 c2 38	 add	 edx, 56			; 00000038H
  00533	52		 push	 edx
  00534	68 00 00 00 00	 push	 OFFSET ??_C@_0DK@BLKECLAG@c?3?2users?2nhv90?2projects?2eech?2ap@
  00539	a1 00 00 00 00	 mov	 eax, DWORD PTR ?overload_invalid_list_type_message@@3PBDB ; overload_invalid_list_type_message
  0053e	50		 push	 eax
  0053f	e8 00 00 00 00	 call	 ?process_assert@@YGXPBD0H@Z ; process_assert
  00544	c7 45 98 00 00
	00 00		 mov	 DWORD PTR tv296[ebp], 0
$LN68@process_me:
  0054b	6a 10		 push	 16			; 00000010H
  0054d	8b 4d f8	 mov	 ecx, DWORD PTR _guide$[ebp]
  00550	51		 push	 ecx
  00551	69 55 9c b4 00
	00 00		 imul	 edx, DWORD PTR tv288[ebp], 180
  00558	8b 45 98	 mov	 eax, DWORD PTR tv296[ebp]
  0055b	8b 8c 82 00 00
	00 00		 mov	 ecx, DWORD PTR ?fn_get_local_entity_parent@@3PAY0CN@P6GPAUENTITY@@PAU1@W4LIST_TYPES@@@ZA[edx+eax*4]
  00562	ff d1		 call	 ecx
  00564	89 45 f4	 mov	 DWORD PTR _task$[ebp], eax

; 1685 : 
; 1686 : 						ASSERT (task);

  00567	83 7d f4 00	 cmp	 DWORD PTR _task$[ebp], 0
  0056b	75 18		 jne	 SHORT $LN18@process_me
  0056d	a1 00 00 00 00	 mov	 eax, DWORD PTR ?__LINE__Var@?0??process_message_weapons_hold@@YGXPAUENTITY@@0HH@Z@4JA
  00572	83 c0 3a	 add	 eax, 58			; 0000003aH
  00575	50		 push	 eax
  00576	68 00 00 00 00	 push	 OFFSET ??_C@_0DK@BLKECLAG@c?3?2users?2nhv90?2projects?2eech?2ap@
  0057b	68 00 00 00 00	 push	 OFFSET ??_C@_04GGKLLKOO@task@
  00580	e8 00 00 00 00	 call	 ?process_assert@@YGXPBD0H@Z ; process_assert
$LN18@process_me:

; 1687 : 
; 1688 : 						if (get_local_entity_int_value (task, INT_TYPE_ENTITY_SUB_TYPE) != ENTITY_SUB_TYPE_TASK_ENGAGE)

  00585	83 7d f4 00	 cmp	 DWORD PTR _task$[ebp], 0
  00589	74 0a		 je	 SHORT $LN69@process_me
  0058b	8b 45 f4	 mov	 eax, DWORD PTR _task$[ebp]
  0058e	8b 08		 mov	 ecx, DWORD PTR [eax]
  00590	89 4d 9c	 mov	 DWORD PTR tv312[ebp], ecx
  00593	eb 1d		 jmp	 SHORT $LN70@process_me
$LN69@process_me:
  00595	68 98 06 00 00	 push	 1688			; 00000698H
  0059a	68 00 00 00 00	 push	 OFFSET ??_C@_0DK@BLKECLAG@c?3?2users?2nhv90?2projects?2eech?2ap@
  0059f	8b 15 00 00 00
	00		 mov	 edx, DWORD PTR ?null_entity_pointer_message@@3PBDB ; null_entity_pointer_message
  005a5	52		 push	 edx
  005a6	e8 00 00 00 00	 call	 ?process_assert@@YGXPBD0H@Z ; process_assert
  005ab	c7 45 9c 00 00
	00 00		 mov	 DWORD PTR tv312[ebp], 0
$LN70@process_me:
  005b2	b8 01 00 00 00	 mov	 eax, 1
  005b7	85 c0		 test	 eax, eax
  005b9	74 09		 je	 SHORT $LN71@process_me
  005bb	c7 45 98 34 00
	00 00		 mov	 DWORD PTR tv319[ebp], 52 ; 00000034H
  005c2	eb 1d		 jmp	 SHORT $LN72@process_me
$LN71@process_me:
  005c4	68 98 06 00 00	 push	 1688			; 00000698H
  005c9	68 00 00 00 00	 push	 OFFSET ??_C@_0DK@BLKECLAG@c?3?2users?2nhv90?2projects?2eech?2ap@
  005ce	8b 0d 00 00 00
	00		 mov	 ecx, DWORD PTR ?overload_invalid_int_type_message@@3PBDB ; overload_invalid_int_type_message
  005d4	51		 push	 ecx
  005d5	e8 00 00 00 00	 call	 ?process_assert@@YGXPBD0H@Z ; process_assert
  005da	c7 45 98 00 00
	00 00		 mov	 DWORD PTR tv319[ebp], 0
$LN72@process_me:
  005e1	6a 34		 push	 52			; 00000034H
  005e3	8b 55 f4	 mov	 edx, DWORD PTR _task$[ebp]
  005e6	52		 push	 edx
  005e7	69 45 9c 5c 04
	00 00		 imul	 eax, DWORD PTR tv312[ebp], 1116
  005ee	8b 4d 98	 mov	 ecx, DWORD PTR tv319[ebp]
  005f1	8b 94 88 00 00
	00 00		 mov	 edx, DWORD PTR ?fn_get_local_entity_int_value@@3PAY0BBH@P6GHPAUENTITY@@W4INT_TYPES@@@ZA[eax+ecx*4]
  005f8	ff d2		 call	 edx
  005fa	83 f8 09	 cmp	 eax, 9
  005fd	74 09		 je	 SHORT $LN19@process_me

; 1689 : 						{
; 1690 : 							valid_members |= member_number;

  005ff	8b 45 e8	 mov	 eax, DWORD PTR _valid_members$[ebp]
  00602	0b 45 ec	 or	 eax, DWORD PTR _member_number$[ebp]
  00605	89 45 e8	 mov	 DWORD PTR _valid_members$[ebp], eax
$LN19@process_me:

; 1691 : 						}
; 1692 : 					}
; 1693 : 				}
; 1694 : 			}
; 1695 : 
; 1696 : 			member = get_local_entity_child_succ (member, LIST_TYPE_MEMBER);

  00608	83 7d f0 00	 cmp	 DWORD PTR _member$[ebp], 0
  0060c	74 0a		 je	 SHORT $LN73@process_me
  0060e	8b 45 f0	 mov	 eax, DWORD PTR _member$[ebp]
  00611	8b 08		 mov	 ecx, DWORD PTR [eax]
  00613	89 4d 9c	 mov	 DWORD PTR tv333[ebp], ecx
  00616	eb 21		 jmp	 SHORT $LN74@process_me
$LN73@process_me:
  00618	8b 15 00 00 00
	00		 mov	 edx, DWORD PTR ?__LINE__Var@?0??process_message_weapons_hold@@YGXPAUENTITY@@0HH@Z@4JA
  0061e	83 c2 44	 add	 edx, 68			; 00000044H
  00621	52		 push	 edx
  00622	68 00 00 00 00	 push	 OFFSET ??_C@_0DK@BLKECLAG@c?3?2users?2nhv90?2projects?2eech?2ap@
  00627	a1 00 00 00 00	 mov	 eax, DWORD PTR ?null_entity_pointer_message@@3PBDB ; null_entity_pointer_message
  0062c	50		 push	 eax
  0062d	e8 00 00 00 00	 call	 ?process_assert@@YGXPBD0H@Z ; process_assert
  00632	c7 45 9c 00 00
	00 00		 mov	 DWORD PTR tv333[ebp], 0
$LN74@process_me:
  00639	b9 01 00 00 00	 mov	 ecx, 1
  0063e	85 c9		 test	 ecx, ecx
  00640	74 09		 je	 SHORT $LN75@process_me
  00642	c7 45 98 19 00
	00 00		 mov	 DWORD PTR tv341[ebp], 25 ; 00000019H
  00649	eb 21		 jmp	 SHORT $LN76@process_me
$LN75@process_me:
  0064b	8b 15 00 00 00
	00		 mov	 edx, DWORD PTR ?__LINE__Var@?0??process_message_weapons_hold@@YGXPAUENTITY@@0HH@Z@4JA
  00651	83 c2 44	 add	 edx, 68			; 00000044H
  00654	52		 push	 edx
  00655	68 00 00 00 00	 push	 OFFSET ??_C@_0DK@BLKECLAG@c?3?2users?2nhv90?2projects?2eech?2ap@
  0065a	a1 00 00 00 00	 mov	 eax, DWORD PTR ?overload_invalid_list_type_message@@3PBDB ; overload_invalid_list_type_message
  0065f	50		 push	 eax
  00660	e8 00 00 00 00	 call	 ?process_assert@@YGXPBD0H@Z ; process_assert
  00665	c7 45 98 00 00
	00 00		 mov	 DWORD PTR tv341[ebp], 0
$LN76@process_me:
  0066c	6a 19		 push	 25			; 00000019H
  0066e	8b 4d f0	 mov	 ecx, DWORD PTR _member$[ebp]
  00671	51		 push	 ecx
  00672	69 55 9c b4 00
	00 00		 imul	 edx, DWORD PTR tv333[ebp], 180
  00679	8b 45 98	 mov	 eax, DWORD PTR tv341[ebp]
  0067c	8b 8c 82 00 00
	00 00		 mov	 ecx, DWORD PTR ?fn_get_local_entity_child_succ@@3PAY0CN@P6GPAUENTITY@@PAU1@W4LIST_TYPES@@@ZA[edx+eax*4]
  00683	ff d1		 call	 ecx
  00685	89 45 f0	 mov	 DWORD PTR _member$[ebp], eax

; 1697 : 		}

  00688	e9 86 fa ff ff	 jmp	 $LN2@process_me
$LN3@process_me:

; 1698 : 	}
; 1699 : 	else

  0068d	e9 f0 04 00 00	 jmp	 $LN24@process_me
$LN12@process_me:

; 1700 : 	{
; 1701 : 		member = wingman;

  00692	8b 45 0c	 mov	 eax, DWORD PTR _wingman$[ebp]
  00695	89 45 f0	 mov	 DWORD PTR _member$[ebp], eax

; 1702 : 
; 1703 : 		group = get_local_entity_parent (member, LIST_TYPE_MEMBER);

  00698	83 7d f0 00	 cmp	 DWORD PTR _member$[ebp], 0
  0069c	74 0a		 je	 SHORT $LN77@process_me
  0069e	8b 45 f0	 mov	 eax, DWORD PTR _member$[ebp]
  006a1	8b 08		 mov	 ecx, DWORD PTR [eax]
  006a3	89 4d 9c	 mov	 DWORD PTR tv353[ebp], ecx
  006a6	eb 21		 jmp	 SHORT $LN78@process_me
$LN77@process_me:
  006a8	8b 15 00 00 00
	00		 mov	 edx, DWORD PTR ?__LINE__Var@?0??process_message_weapons_hold@@YGXPAUENTITY@@0HH@Z@4JA
  006ae	83 c2 4b	 add	 edx, 75			; 0000004bH
  006b1	52		 push	 edx
  006b2	68 00 00 00 00	 push	 OFFSET ??_C@_0DK@BLKECLAG@c?3?2users?2nhv90?2projects?2eech?2ap@
  006b7	a1 00 00 00 00	 mov	 eax, DWORD PTR ?null_entity_pointer_message@@3PBDB ; null_entity_pointer_message
  006bc	50		 push	 eax
  006bd	e8 00 00 00 00	 call	 ?process_assert@@YGXPBD0H@Z ; process_assert
  006c2	c7 45 9c 00 00
	00 00		 mov	 DWORD PTR tv353[ebp], 0
$LN78@process_me:
  006c9	b9 01 00 00 00	 mov	 ecx, 1
  006ce	85 c9		 test	 ecx, ecx
  006d0	74 09		 je	 SHORT $LN79@process_me
  006d2	c7 45 98 19 00
	00 00		 mov	 DWORD PTR tv361[ebp], 25 ; 00000019H
  006d9	eb 21		 jmp	 SHORT $LN80@process_me
$LN79@process_me:
  006db	8b 15 00 00 00
	00		 mov	 edx, DWORD PTR ?__LINE__Var@?0??process_message_weapons_hold@@YGXPAUENTITY@@0HH@Z@4JA
  006e1	83 c2 4b	 add	 edx, 75			; 0000004bH
  006e4	52		 push	 edx
  006e5	68 00 00 00 00	 push	 OFFSET ??_C@_0DK@BLKECLAG@c?3?2users?2nhv90?2projects?2eech?2ap@
  006ea	a1 00 00 00 00	 mov	 eax, DWORD PTR ?overload_invalid_list_type_message@@3PBDB ; overload_invalid_list_type_message
  006ef	50		 push	 eax
  006f0	e8 00 00 00 00	 call	 ?process_assert@@YGXPBD0H@Z ; process_assert
  006f5	c7 45 98 00 00
	00 00		 mov	 DWORD PTR tv361[ebp], 0
$LN80@process_me:
  006fc	6a 19		 push	 25			; 00000019H
  006fe	8b 4d f0	 mov	 ecx, DWORD PTR _member$[ebp]
  00701	51		 push	 ecx
  00702	69 55 9c b4 00
	00 00		 imul	 edx, DWORD PTR tv353[ebp], 180
  00709	8b 45 98	 mov	 eax, DWORD PTR tv361[ebp]
  0070c	8b 8c 82 00 00
	00 00		 mov	 ecx, DWORD PTR ?fn_get_local_entity_parent@@3PAY0CN@P6GPAUENTITY@@PAU1@W4LIST_TYPES@@@ZA[edx+eax*4]
  00713	ff d1		 call	 ecx
  00715	89 45 fc	 mov	 DWORD PTR _group$[ebp], eax

; 1704 : 
; 1705 : 		set_client_server_entity_int_value (member, INT_TYPE_WEAPONS_HOLD, state);

  00718	83 7d f0 00	 cmp	 DWORD PTR _member$[ebp], 0
  0071c	74 0a		 je	 SHORT $LN81@process_me
  0071e	8b 45 f0	 mov	 eax, DWORD PTR _member$[ebp]
  00721	8b 08		 mov	 ecx, DWORD PTR [eax]
  00723	89 4d 9c	 mov	 DWORD PTR tv373[ebp], ecx
  00726	eb 21		 jmp	 SHORT $LN82@process_me
$LN81@process_me:
  00728	8b 15 00 00 00
	00		 mov	 edx, DWORD PTR ?__LINE__Var@?0??process_message_weapons_hold@@YGXPAUENTITY@@0HH@Z@4JA
  0072e	83 c2 4d	 add	 edx, 77			; 0000004dH
  00731	52		 push	 edx
  00732	68 00 00 00 00	 push	 OFFSET ??_C@_0DK@BLKECLAG@c?3?2users?2nhv90?2projects?2eech?2ap@
  00737	a1 00 00 00 00	 mov	 eax, DWORD PTR ?null_entity_pointer_message@@3PBDB ; null_entity_pointer_message
  0073c	50		 push	 eax
  0073d	e8 00 00 00 00	 call	 ?process_assert@@YGXPBD0H@Z ; process_assert
  00742	c7 45 9c 00 00
	00 00		 mov	 DWORD PTR tv373[ebp], 0
$LN82@process_me:
  00749	b9 01 00 00 00	 mov	 ecx, 1
  0074e	85 c9		 test	 ecx, ecx
  00750	74 09		 je	 SHORT $LN83@process_me
  00752	c7 45 98 11 01
	00 00		 mov	 DWORD PTR tv381[ebp], 273 ; 00000111H
  00759	eb 21		 jmp	 SHORT $LN84@process_me
$LN83@process_me:
  0075b	8b 15 00 00 00
	00		 mov	 edx, DWORD PTR ?__LINE__Var@?0??process_message_weapons_hold@@YGXPAUENTITY@@0HH@Z@4JA
  00761	83 c2 4d	 add	 edx, 77			; 0000004dH
  00764	52		 push	 edx
  00765	68 00 00 00 00	 push	 OFFSET ??_C@_0DK@BLKECLAG@c?3?2users?2nhv90?2projects?2eech?2ap@
  0076a	a1 00 00 00 00	 mov	 eax, DWORD PTR ?overload_invalid_int_type_message@@3PBDB ; overload_invalid_int_type_message
  0076f	50		 push	 eax
  00770	e8 00 00 00 00	 call	 ?process_assert@@YGXPBD0H@Z ; process_assert
  00775	c7 45 98 00 00
	00 00		 mov	 DWORD PTR tv381[ebp], 0
$LN84@process_me:
  0077c	8b 4d 10	 mov	 ecx, DWORD PTR _state$[ebp]
  0077f	51		 push	 ecx
  00780	68 11 01 00 00	 push	 273			; 00000111H
  00785	8b 55 f0	 mov	 edx, DWORD PTR _member$[ebp]
  00788	52		 push	 edx
  00789	69 45 9c b8 08
	00 00		 imul	 eax, DWORD PTR tv373[ebp], 2232
  00790	8b 4d 98	 mov	 ecx, DWORD PTR tv381[ebp]
  00793	8d 94 c8 00 00
	00 00		 lea	 edx, DWORD PTR ?fn_set_client_server_entity_int_value@@3PAY1BBH@1P6GXPAUENTITY@@W4INT_TYPES@@H@ZA[eax+ecx*8]
  0079a	a1 00 00 00 00	 mov	 eax, DWORD PTR ?system_comms_model@@3W4COMMS_MODEL_TYPES@@A ; system_comms_model
  0079f	8b 0c 82	 mov	 ecx, DWORD PTR [edx+eax*4]
  007a2	ff d1		 call	 ecx

; 1706 : 
; 1707 : 		//
; 1708 : 		// If setting weapons free, see if member should be assigned to existing engage tasks
; 1709 : 		//
; 1710 : 
; 1711 : 		if (!state)

  007a4	83 7d 10 00	 cmp	 DWORD PTR _state$[ebp], 0
  007a8	0f 85 d4 03 00
	00		 jne	 $LN24@process_me

; 1712 : 		{
; 1713 : 			entity* target;
; 1714 : 
; 1715 : 			member_number = (1 << get_local_entity_int_value (member, INT_TYPE_GROUP_MEMBER_NUMBER));

  007ae	83 7d f0 00	 cmp	 DWORD PTR _member$[ebp], 0
  007b2	74 0a		 je	 SHORT $LN85@process_me
  007b4	8b 45 f0	 mov	 eax, DWORD PTR _member$[ebp]
  007b7	8b 08		 mov	 ecx, DWORD PTR [eax]
  007b9	89 4d 9c	 mov	 DWORD PTR tv396[ebp], ecx
  007bc	eb 21		 jmp	 SHORT $LN86@process_me
$LN85@process_me:
  007be	8b 15 00 00 00
	00		 mov	 edx, DWORD PTR ?__LINE__Var@?0??process_message_weapons_hold@@YGXPAUENTITY@@0HH@Z@4JA
  007c4	83 c2 57	 add	 edx, 87			; 00000057H
  007c7	52		 push	 edx
  007c8	68 00 00 00 00	 push	 OFFSET ??_C@_0DK@BLKECLAG@c?3?2users?2nhv90?2projects?2eech?2ap@
  007cd	a1 00 00 00 00	 mov	 eax, DWORD PTR ?null_entity_pointer_message@@3PBDB ; null_entity_pointer_message
  007d2	50		 push	 eax
  007d3	e8 00 00 00 00	 call	 ?process_assert@@YGXPBD0H@Z ; process_assert
  007d8	c7 45 9c 00 00
	00 00		 mov	 DWORD PTR tv396[ebp], 0
$LN86@process_me:
  007df	b9 01 00 00 00	 mov	 ecx, 1
  007e4	85 c9		 test	 ecx, ecx
  007e6	74 09		 je	 SHORT $LN87@process_me
  007e8	c7 45 98 4b 00
	00 00		 mov	 DWORD PTR tv404[ebp], 75 ; 0000004bH
  007ef	eb 21		 jmp	 SHORT $LN88@process_me
$LN87@process_me:
  007f1	8b 15 00 00 00
	00		 mov	 edx, DWORD PTR ?__LINE__Var@?0??process_message_weapons_hold@@YGXPAUENTITY@@0HH@Z@4JA
  007f7	83 c2 57	 add	 edx, 87			; 00000057H
  007fa	52		 push	 edx
  007fb	68 00 00 00 00	 push	 OFFSET ??_C@_0DK@BLKECLAG@c?3?2users?2nhv90?2projects?2eech?2ap@
  00800	a1 00 00 00 00	 mov	 eax, DWORD PTR ?overload_invalid_int_type_message@@3PBDB ; overload_invalid_int_type_message
  00805	50		 push	 eax
  00806	e8 00 00 00 00	 call	 ?process_assert@@YGXPBD0H@Z ; process_assert
  0080b	c7 45 98 00 00
	00 00		 mov	 DWORD PTR tv404[ebp], 0
$LN88@process_me:
  00812	6a 4b		 push	 75			; 0000004bH
  00814	8b 4d f0	 mov	 ecx, DWORD PTR _member$[ebp]
  00817	51		 push	 ecx
  00818	69 55 9c 5c 04
	00 00		 imul	 edx, DWORD PTR tv396[ebp], 1116
  0081f	8b 45 98	 mov	 eax, DWORD PTR tv404[ebp]
  00822	8b 8c 82 00 00
	00 00		 mov	 ecx, DWORD PTR ?fn_get_local_entity_int_value@@3PAY0BBH@P6GHPAUENTITY@@W4INT_TYPES@@@ZA[edx+eax*4]
  00829	ff d1		 call	 ecx
  0082b	ba 01 00 00 00	 mov	 edx, 1
  00830	8b c8		 mov	 ecx, eax
  00832	d3 e2		 shl	 edx, cl
  00834	89 55 ec	 mov	 DWORD PTR _member_number$[ebp], edx

; 1716 : 
; 1717 : 			if (get_local_entity_int_value (group, INT_TYPE_ENGAGE_ENEMY))

  00837	83 7d fc 00	 cmp	 DWORD PTR _group$[ebp], 0
  0083b	74 0a		 je	 SHORT $LN89@process_me
  0083d	8b 45 fc	 mov	 eax, DWORD PTR _group$[ebp]
  00840	8b 08		 mov	 ecx, DWORD PTR [eax]
  00842	89 4d 9c	 mov	 DWORD PTR tv416[ebp], ecx
  00845	eb 1d		 jmp	 SHORT $LN90@process_me
$LN89@process_me:
  00847	68 b5 06 00 00	 push	 1717			; 000006b5H
  0084c	68 00 00 00 00	 push	 OFFSET ??_C@_0DK@BLKECLAG@c?3?2users?2nhv90?2projects?2eech?2ap@
  00851	8b 15 00 00 00
	00		 mov	 edx, DWORD PTR ?null_entity_pointer_message@@3PBDB ; null_entity_pointer_message
  00857	52		 push	 edx
  00858	e8 00 00 00 00	 call	 ?process_assert@@YGXPBD0H@Z ; process_assert
  0085d	c7 45 9c 00 00
	00 00		 mov	 DWORD PTR tv416[ebp], 0
$LN90@process_me:
  00864	b8 01 00 00 00	 mov	 eax, 1
  00869	85 c0		 test	 eax, eax
  0086b	74 09		 je	 SHORT $LN91@process_me
  0086d	c7 45 98 33 00
	00 00		 mov	 DWORD PTR tv423[ebp], 51 ; 00000033H
  00874	eb 1d		 jmp	 SHORT $LN92@process_me
$LN91@process_me:
  00876	68 b5 06 00 00	 push	 1717			; 000006b5H
  0087b	68 00 00 00 00	 push	 OFFSET ??_C@_0DK@BLKECLAG@c?3?2users?2nhv90?2projects?2eech?2ap@
  00880	8b 0d 00 00 00
	00		 mov	 ecx, DWORD PTR ?overload_invalid_int_type_message@@3PBDB ; overload_invalid_int_type_message
  00886	51		 push	 ecx
  00887	e8 00 00 00 00	 call	 ?process_assert@@YGXPBD0H@Z ; process_assert
  0088c	c7 45 98 00 00
	00 00		 mov	 DWORD PTR tv423[ebp], 0
$LN92@process_me:
  00893	6a 33		 push	 51			; 00000033H
  00895	8b 55 fc	 mov	 edx, DWORD PTR _group$[ebp]
  00898	52		 push	 edx
  00899	69 45 9c 5c 04
	00 00		 imul	 eax, DWORD PTR tv416[ebp], 1116
  008a0	8b 4d 98	 mov	 ecx, DWORD PTR tv423[ebp]
  008a3	8b 94 88 00 00
	00 00		 mov	 edx, DWORD PTR ?fn_get_local_entity_int_value@@3PAY0BBH@P6GHPAUENTITY@@W4INT_TYPES@@@ZA[eax+ecx*4]
  008aa	ff d2		 call	 edx
  008ac	85 c0		 test	 eax, eax
  008ae	0f 84 23 01 00
	00		 je	 $LN8@process_me

; 1718 : 			{
; 1719 : 				// add engage task for all PFZ targets
; 1720 : 				for (target = get_local_entity_first_child (member, LIST_TYPE_DESIGNATED_TARGET);

  008b4	83 7d f0 00	 cmp	 DWORD PTR _member$[ebp], 0
  008b8	74 0a		 je	 SHORT $LN93@process_me
  008ba	8b 45 f0	 mov	 eax, DWORD PTR _member$[ebp]
  008bd	8b 08		 mov	 ecx, DWORD PTR [eax]
  008bf	89 4d 9c	 mov	 DWORD PTR tv436[ebp], ecx
  008c2	eb 21		 jmp	 SHORT $LN94@process_me
$LN93@process_me:
  008c4	8b 15 00 00 00
	00		 mov	 edx, DWORD PTR ?__LINE__Var@?0??process_message_weapons_hold@@YGXPAUENTITY@@0HH@Z@4JA
  008ca	83 c2 5c	 add	 edx, 92			; 0000005cH
  008cd	52		 push	 edx
  008ce	68 00 00 00 00	 push	 OFFSET ??_C@_0DK@BLKECLAG@c?3?2users?2nhv90?2projects?2eech?2ap@
  008d3	a1 00 00 00 00	 mov	 eax, DWORD PTR ?null_entity_pointer_message@@3PBDB ; null_entity_pointer_message
  008d8	50		 push	 eax
  008d9	e8 00 00 00 00	 call	 ?process_assert@@YGXPBD0H@Z ; process_assert
  008de	c7 45 9c 00 00
	00 00		 mov	 DWORD PTR tv436[ebp], 0
$LN94@process_me:
  008e5	b9 01 00 00 00	 mov	 ecx, 1
  008ea	85 c9		 test	 ecx, ecx
  008ec	74 09		 je	 SHORT $LN95@process_me
  008ee	c7 45 98 0a 00
	00 00		 mov	 DWORD PTR tv444[ebp], 10 ; 0000000aH
  008f5	eb 21		 jmp	 SHORT $LN96@process_me
$LN95@process_me:
  008f7	8b 15 00 00 00
	00		 mov	 edx, DWORD PTR ?__LINE__Var@?0??process_message_weapons_hold@@YGXPAUENTITY@@0HH@Z@4JA
  008fd	83 c2 5c	 add	 edx, 92			; 0000005cH
  00900	52		 push	 edx
  00901	68 00 00 00 00	 push	 OFFSET ??_C@_0DK@BLKECLAG@c?3?2users?2nhv90?2projects?2eech?2ap@
  00906	a1 00 00 00 00	 mov	 eax, DWORD PTR ?overload_invalid_list_type_message@@3PBDB ; overload_invalid_list_type_message
  0090b	50		 push	 eax
  0090c	e8 00 00 00 00	 call	 ?process_assert@@YGXPBD0H@Z ; process_assert
  00911	c7 45 98 00 00
	00 00		 mov	 DWORD PTR tv444[ebp], 0
$LN96@process_me:
  00918	6a 0a		 push	 10			; 0000000aH
  0091a	8b 4d f0	 mov	 ecx, DWORD PTR _member$[ebp]
  0091d	51		 push	 ecx
  0091e	69 55 9c b4 00
	00 00		 imul	 edx, DWORD PTR tv436[ebp], 180
  00925	8b 45 98	 mov	 eax, DWORD PTR tv444[ebp]
  00928	8b 8c 82 00 00
	00 00		 mov	 ecx, DWORD PTR ?fn_get_local_entity_first_child@@3PAY0CN@P6GPAUENTITY@@PAU1@W4LIST_TYPES@@@ZA[edx+eax*4]
  0092f	ff d1		 call	 ecx
  00931	89 45 e0	 mov	 DWORD PTR _target$1[ebp], eax
  00934	e9 80 00 00 00	 jmp	 $LN9@process_me
$LN7@process_me:

; 1722 : 					 target = get_local_entity_child_succ (target, LIST_TYPE_DESIGNATED_TARGET))

  00939	83 7d e0 00	 cmp	 DWORD PTR _target$1[ebp], 0
  0093d	74 0a		 je	 SHORT $LN97@process_me
  0093f	8b 45 e0	 mov	 eax, DWORD PTR _target$1[ebp]
  00942	8b 08		 mov	 ecx, DWORD PTR [eax]
  00944	89 4d 9c	 mov	 DWORD PTR tv456[ebp], ecx
  00947	eb 21		 jmp	 SHORT $LN98@process_me
$LN97@process_me:
  00949	8b 15 00 00 00
	00		 mov	 edx, DWORD PTR ?__LINE__Var@?0??process_message_weapons_hold@@YGXPAUENTITY@@0HH@Z@4JA
  0094f	83 c2 5e	 add	 edx, 94			; 0000005eH
  00952	52		 push	 edx
  00953	68 00 00 00 00	 push	 OFFSET ??_C@_0DK@BLKECLAG@c?3?2users?2nhv90?2projects?2eech?2ap@
  00958	a1 00 00 00 00	 mov	 eax, DWORD PTR ?null_entity_pointer_message@@3PBDB ; null_entity_pointer_message
  0095d	50		 push	 eax
  0095e	e8 00 00 00 00	 call	 ?process_assert@@YGXPBD0H@Z ; process_assert
  00963	c7 45 9c 00 00
	00 00		 mov	 DWORD PTR tv456[ebp], 0
$LN98@process_me:
  0096a	b9 01 00 00 00	 mov	 ecx, 1
  0096f	85 c9		 test	 ecx, ecx
  00971	74 09		 je	 SHORT $LN99@process_me
  00973	c7 45 98 0a 00
	00 00		 mov	 DWORD PTR tv464[ebp], 10 ; 0000000aH
  0097a	eb 21		 jmp	 SHORT $LN100@process_me
$LN99@process_me:
  0097c	8b 15 00 00 00
	00		 mov	 edx, DWORD PTR ?__LINE__Var@?0??process_message_weapons_hold@@YGXPAUENTITY@@0HH@Z@4JA
  00982	83 c2 5e	 add	 edx, 94			; 0000005eH
  00985	52		 push	 edx
  00986	68 00 00 00 00	 push	 OFFSET ??_C@_0DK@BLKECLAG@c?3?2users?2nhv90?2projects?2eech?2ap@
  0098b	a1 00 00 00 00	 mov	 eax, DWORD PTR ?overload_invalid_list_type_message@@3PBDB ; overload_invalid_list_type_message
  00990	50		 push	 eax
  00991	e8 00 00 00 00	 call	 ?process_assert@@YGXPBD0H@Z ; process_assert
  00996	c7 45 98 00 00
	00 00		 mov	 DWORD PTR tv464[ebp], 0
$LN100@process_me:
  0099d	6a 0a		 push	 10			; 0000000aH
  0099f	8b 4d e0	 mov	 ecx, DWORD PTR _target$1[ebp]
  009a2	51		 push	 ecx
  009a3	69 55 9c b4 00
	00 00		 imul	 edx, DWORD PTR tv456[ebp], 180
  009aa	8b 45 98	 mov	 eax, DWORD PTR tv464[ebp]
  009ad	8b 8c 82 00 00
	00 00		 mov	 ecx, DWORD PTR ?fn_get_local_entity_child_succ@@3PAY0CN@P6GPAUENTITY@@PAU1@W4LIST_TYPES@@@ZA[edx+eax*4]
  009b4	ff d1		 call	 ecx
  009b6	89 45 e0	 mov	 DWORD PTR _target$1[ebp], eax
$LN9@process_me:

; 1721 : 					 target;

  009b9	83 7d e0 00	 cmp	 DWORD PTR _target$1[ebp], 0
  009bd	74 18		 je	 SHORT $LN8@process_me

; 1723 : 				{
; 1724 : 					engage_specific_target(group, target, member_number, FALSE);

  009bf	6a 00		 push	 0
  009c1	8b 45 ec	 mov	 eax, DWORD PTR _member_number$[ebp]
  009c4	50		 push	 eax
  009c5	8b 4d e0	 mov	 ecx, DWORD PTR _target$1[ebp]
  009c8	51		 push	 ecx
  009c9	8b 55 fc	 mov	 edx, DWORD PTR _group$[ebp]
  009cc	52		 push	 edx
  009cd	e8 00 00 00 00	 call	 ?engage_specific_target@@YGHPAUENTITY@@0IH@Z ; engage_specific_target

; 1725 : 				}

  009d2	e9 62 ff ff ff	 jmp	 $LN7@process_me
$LN8@process_me:

; 1726 : 			}
; 1727 : 
; 1728 : 			guide = get_local_entity_parent (member, LIST_TYPE_FOLLOWER);

  009d7	83 7d f0 00	 cmp	 DWORD PTR _member$[ebp], 0
  009db	74 0a		 je	 SHORT $LN101@process_me
  009dd	8b 45 f0	 mov	 eax, DWORD PTR _member$[ebp]
  009e0	8b 08		 mov	 ecx, DWORD PTR [eax]
  009e2	89 4d 9c	 mov	 DWORD PTR tv481[ebp], ecx
  009e5	eb 21		 jmp	 SHORT $LN102@process_me
$LN101@process_me:
  009e7	8b 15 00 00 00
	00		 mov	 edx, DWORD PTR ?__LINE__Var@?0??process_message_weapons_hold@@YGXPAUENTITY@@0HH@Z@4JA
  009ed	83 c2 64	 add	 edx, 100		; 00000064H
  009f0	52		 push	 edx
  009f1	68 00 00 00 00	 push	 OFFSET ??_C@_0DK@BLKECLAG@c?3?2users?2nhv90?2projects?2eech?2ap@
  009f6	a1 00 00 00 00	 mov	 eax, DWORD PTR ?null_entity_pointer_message@@3PBDB ; null_entity_pointer_message
  009fb	50		 push	 eax
  009fc	e8 00 00 00 00	 call	 ?process_assert@@YGXPBD0H@Z ; process_assert
  00a01	c7 45 9c 00 00
	00 00		 mov	 DWORD PTR tv481[ebp], 0
$LN102@process_me:
  00a08	b9 01 00 00 00	 mov	 ecx, 1
  00a0d	85 c9		 test	 ecx, ecx
  00a0f	74 09		 je	 SHORT $LN103@process_me
  00a11	c7 45 98 0d 00
	00 00		 mov	 DWORD PTR tv489[ebp], 13 ; 0000000dH
  00a18	eb 21		 jmp	 SHORT $LN104@process_me
$LN103@process_me:
  00a1a	8b 15 00 00 00
	00		 mov	 edx, DWORD PTR ?__LINE__Var@?0??process_message_weapons_hold@@YGXPAUENTITY@@0HH@Z@4JA
  00a20	83 c2 64	 add	 edx, 100		; 00000064H
  00a23	52		 push	 edx
  00a24	68 00 00 00 00	 push	 OFFSET ??_C@_0DK@BLKECLAG@c?3?2users?2nhv90?2projects?2eech?2ap@
  00a29	a1 00 00 00 00	 mov	 eax, DWORD PTR ?overload_invalid_list_type_message@@3PBDB ; overload_invalid_list_type_message
  00a2e	50		 push	 eax
  00a2f	e8 00 00 00 00	 call	 ?process_assert@@YGXPBD0H@Z ; process_assert
  00a34	c7 45 98 00 00
	00 00		 mov	 DWORD PTR tv489[ebp], 0
$LN104@process_me:
  00a3b	6a 0d		 push	 13			; 0000000dH
  00a3d	8b 4d f0	 mov	 ecx, DWORD PTR _member$[ebp]
  00a40	51		 push	 ecx
  00a41	69 55 9c b4 00
	00 00		 imul	 edx, DWORD PTR tv481[ebp], 180
  00a48	8b 45 98	 mov	 eax, DWORD PTR tv489[ebp]
  00a4b	8b 8c 82 00 00
	00 00		 mov	 ecx, DWORD PTR ?fn_get_local_entity_parent@@3PAY0CN@P6GPAUENTITY@@PAU1@W4LIST_TYPES@@@ZA[edx+eax*4]
  00a52	ff d1		 call	 ecx
  00a54	89 45 f8	 mov	 DWORD PTR _guide$[ebp], eax

; 1729 : 
; 1730 : 			if (guide)

  00a57	83 7d f8 00	 cmp	 DWORD PTR _guide$[ebp], 0
  00a5b	0f 84 21 01 00
	00		 je	 $LN24@process_me

; 1731 : 			{
; 1732 : 				task = get_local_entity_parent (guide, LIST_TYPE_GUIDE);

  00a61	83 7d f8 00	 cmp	 DWORD PTR _guide$[ebp], 0
  00a65	74 0a		 je	 SHORT $LN105@process_me
  00a67	8b 45 f8	 mov	 eax, DWORD PTR _guide$[ebp]
  00a6a	8b 08		 mov	 ecx, DWORD PTR [eax]
  00a6c	89 4d 9c	 mov	 DWORD PTR tv502[ebp], ecx
  00a6f	eb 21		 jmp	 SHORT $LN106@process_me
$LN105@process_me:
  00a71	8b 15 00 00 00
	00		 mov	 edx, DWORD PTR ?__LINE__Var@?0??process_message_weapons_hold@@YGXPAUENTITY@@0HH@Z@4JA
  00a77	83 c2 68	 add	 edx, 104		; 00000068H
  00a7a	52		 push	 edx
  00a7b	68 00 00 00 00	 push	 OFFSET ??_C@_0DK@BLKECLAG@c?3?2users?2nhv90?2projects?2eech?2ap@
  00a80	a1 00 00 00 00	 mov	 eax, DWORD PTR ?null_entity_pointer_message@@3PBDB ; null_entity_pointer_message
  00a85	50		 push	 eax
  00a86	e8 00 00 00 00	 call	 ?process_assert@@YGXPBD0H@Z ; process_assert
  00a8b	c7 45 9c 00 00
	00 00		 mov	 DWORD PTR tv502[ebp], 0
$LN106@process_me:
  00a92	b9 01 00 00 00	 mov	 ecx, 1
  00a97	85 c9		 test	 ecx, ecx
  00a99	74 09		 je	 SHORT $LN107@process_me
  00a9b	c7 45 98 10 00
	00 00		 mov	 DWORD PTR tv510[ebp], 16 ; 00000010H
  00aa2	eb 21		 jmp	 SHORT $LN108@process_me
$LN107@process_me:
  00aa4	8b 15 00 00 00
	00		 mov	 edx, DWORD PTR ?__LINE__Var@?0??process_message_weapons_hold@@YGXPAUENTITY@@0HH@Z@4JA
  00aaa	83 c2 68	 add	 edx, 104		; 00000068H
  00aad	52		 push	 edx
  00aae	68 00 00 00 00	 push	 OFFSET ??_C@_0DK@BLKECLAG@c?3?2users?2nhv90?2projects?2eech?2ap@
  00ab3	a1 00 00 00 00	 mov	 eax, DWORD PTR ?overload_invalid_list_type_message@@3PBDB ; overload_invalid_list_type_message
  00ab8	50		 push	 eax
  00ab9	e8 00 00 00 00	 call	 ?process_assert@@YGXPBD0H@Z ; process_assert
  00abe	c7 45 98 00 00
	00 00		 mov	 DWORD PTR tv510[ebp], 0
$LN108@process_me:
  00ac5	6a 10		 push	 16			; 00000010H
  00ac7	8b 4d f8	 mov	 ecx, DWORD PTR _guide$[ebp]
  00aca	51		 push	 ecx
  00acb	69 55 9c b4 00
	00 00		 imul	 edx, DWORD PTR tv502[ebp], 180
  00ad2	8b 45 98	 mov	 eax, DWORD PTR tv510[ebp]
  00ad5	8b 8c 82 00 00
	00 00		 mov	 ecx, DWORD PTR ?fn_get_local_entity_parent@@3PAY0CN@P6GPAUENTITY@@PAU1@W4LIST_TYPES@@@ZA[edx+eax*4]
  00adc	ff d1		 call	 ecx
  00ade	89 45 f4	 mov	 DWORD PTR _task$[ebp], eax

; 1733 : 
; 1734 : 				ASSERT (task);

  00ae1	83 7d f4 00	 cmp	 DWORD PTR _task$[ebp], 0
  00ae5	75 18		 jne	 SHORT $LN23@process_me
  00ae7	a1 00 00 00 00	 mov	 eax, DWORD PTR ?__LINE__Var@?0??process_message_weapons_hold@@YGXPAUENTITY@@0HH@Z@4JA
  00aec	83 c0 6a	 add	 eax, 106		; 0000006aH
  00aef	50		 push	 eax
  00af0	68 00 00 00 00	 push	 OFFSET ??_C@_0DK@BLKECLAG@c?3?2users?2nhv90?2projects?2eech?2ap@
  00af5	68 00 00 00 00	 push	 OFFSET ??_C@_04GGKLLKOO@task@
  00afa	e8 00 00 00 00	 call	 ?process_assert@@YGXPBD0H@Z ; process_assert
$LN23@process_me:

; 1735 : 
; 1736 : 				if (get_local_entity_int_value (task, INT_TYPE_ENTITY_SUB_TYPE) != ENTITY_SUB_TYPE_TASK_ENGAGE)

  00aff	83 7d f4 00	 cmp	 DWORD PTR _task$[ebp], 0
  00b03	74 0a		 je	 SHORT $LN109@process_me
  00b05	8b 45 f4	 mov	 eax, DWORD PTR _task$[ebp]
  00b08	8b 08		 mov	 ecx, DWORD PTR [eax]
  00b0a	89 4d 9c	 mov	 DWORD PTR tv526[ebp], ecx
  00b0d	eb 1d		 jmp	 SHORT $LN110@process_me
$LN109@process_me:
  00b0f	68 c8 06 00 00	 push	 1736			; 000006c8H
  00b14	68 00 00 00 00	 push	 OFFSET ??_C@_0DK@BLKECLAG@c?3?2users?2nhv90?2projects?2eech?2ap@
  00b19	8b 15 00 00 00
	00		 mov	 edx, DWORD PTR ?null_entity_pointer_message@@3PBDB ; null_entity_pointer_message
  00b1f	52		 push	 edx
  00b20	e8 00 00 00 00	 call	 ?process_assert@@YGXPBD0H@Z ; process_assert
  00b25	c7 45 9c 00 00
	00 00		 mov	 DWORD PTR tv526[ebp], 0
$LN110@process_me:
  00b2c	b8 01 00 00 00	 mov	 eax, 1
  00b31	85 c0		 test	 eax, eax
  00b33	74 09		 je	 SHORT $LN111@process_me
  00b35	c7 45 98 34 00
	00 00		 mov	 DWORD PTR tv533[ebp], 52 ; 00000034H
  00b3c	eb 1d		 jmp	 SHORT $LN112@process_me
$LN111@process_me:
  00b3e	68 c8 06 00 00	 push	 1736			; 000006c8H
  00b43	68 00 00 00 00	 push	 OFFSET ??_C@_0DK@BLKECLAG@c?3?2users?2nhv90?2projects?2eech?2ap@
  00b48	8b 0d 00 00 00
	00		 mov	 ecx, DWORD PTR ?overload_invalid_int_type_message@@3PBDB ; overload_invalid_int_type_message
  00b4e	51		 push	 ecx
  00b4f	e8 00 00 00 00	 call	 ?process_assert@@YGXPBD0H@Z ; process_assert
  00b54	c7 45 98 00 00
	00 00		 mov	 DWORD PTR tv533[ebp], 0
$LN112@process_me:
  00b5b	6a 34		 push	 52			; 00000034H
  00b5d	8b 55 f4	 mov	 edx, DWORD PTR _task$[ebp]
  00b60	52		 push	 edx
  00b61	69 45 9c 5c 04
	00 00		 imul	 eax, DWORD PTR tv526[ebp], 1116
  00b68	8b 4d 98	 mov	 ecx, DWORD PTR tv533[ebp]
  00b6b	8b 94 88 00 00
	00 00		 mov	 edx, DWORD PTR ?fn_get_local_entity_int_value@@3PAY0BBH@P6GHPAUENTITY@@W4INT_TYPES@@@ZA[eax+ecx*4]
  00b72	ff d2		 call	 edx
  00b74	83 f8 09	 cmp	 eax, 9
  00b77	74 09		 je	 SHORT $LN24@process_me

; 1737 : 					valid_members |= member_number;

  00b79	8b 45 e8	 mov	 eax, DWORD PTR _valid_members$[ebp]
  00b7c	0b 45 ec	 or	 eax, DWORD PTR _member_number$[ebp]
  00b7f	89 45 e8	 mov	 DWORD PTR _valid_members$[ebp], eax
$LN24@process_me:

; 1738 : 			}
; 1739 : 		}
; 1740 : 	}
; 1741 : 
; 1742 : 	if (play_speech)

  00b82	83 7d 14 00	 cmp	 DWORD PTR _play_speech$[ebp], 0
  00b86	74 56		 je	 SHORT $LN27@process_me

; 1743 : 	{
; 1744 : 		if (state)

  00b88	83 7d 10 00	 cmp	 DWORD PTR _state$[ebp], 0
  00b8c	74 29		 je	 SHORT $LN26@process_me

; 1745 : 		{
; 1746 : 			play_client_server_radio_message_affirmative_response (wingman, SPEECH_WINGMAN_ROGER_WEAPONS_HOLD, 0.6, 6.0);

  00b8e	51		 push	 ecx
  00b8f	f3 0f 10 05 00
	00 00 00	 movss	 xmm0, DWORD PTR __real@40c00000
  00b97	f3 0f 11 04 24	 movss	 DWORD PTR [esp], xmm0
  00b9c	51		 push	 ecx
  00b9d	f3 0f 10 05 00
	00 00 00	 movss	 xmm0, DWORD PTR __real@3f19999a
  00ba5	f3 0f 11 04 24	 movss	 DWORD PTR [esp], xmm0
  00baa	6a 1a		 push	 26			; 0000001aH
  00bac	8b 45 0c	 mov	 eax, DWORD PTR _wingman$[ebp]
  00baf	50		 push	 eax
  00bb0	e8 00 00 00 00	 call	 ?play_client_server_radio_message_affirmative_response@@YGXPAUENTITY@@HMM@Z ; play_client_server_radio_message_affirmative_response

; 1747 : 		}
; 1748 : 		else

  00bb5	eb 27		 jmp	 SHORT $LN27@process_me
$LN26@process_me:

; 1749 : 		{
; 1750 : 			play_client_server_radio_message_affirmative_response (wingman, SPEECH_WINGMAN_ROGER_WEAPONS_FREE, 0.6, 6.0);

  00bb7	51		 push	 ecx
  00bb8	f3 0f 10 05 00
	00 00 00	 movss	 xmm0, DWORD PTR __real@40c00000
  00bc0	f3 0f 11 04 24	 movss	 DWORD PTR [esp], xmm0
  00bc5	51		 push	 ecx
  00bc6	f3 0f 10 05 00
	00 00 00	 movss	 xmm0, DWORD PTR __real@3f19999a
  00bce	f3 0f 11 04 24	 movss	 DWORD PTR [esp], xmm0
  00bd3	6a 1b		 push	 27			; 0000001bH
  00bd5	8b 45 0c	 mov	 eax, DWORD PTR _wingman$[ebp]
  00bd8	50		 push	 eax
  00bd9	e8 00 00 00 00	 call	 ?play_client_server_radio_message_affirmative_response@@YGXPAUENTITY@@HMM@Z ; play_client_server_radio_message_affirmative_response
$LN27@process_me:

; 1751 : 		}
; 1752 : 	}
; 1753 : 
; 1754 : 	//
; 1755 : 	// re-assign "forgotten" engage tasks
; 1756 : 	//
; 1757 : 
; 1758 : 	if (valid_members)

  00bde	83 7d e8 00	 cmp	 DWORD PTR _valid_members$[ebp], 0
  00be2	74 2d		 je	 SHORT $LN28@process_me

; 1759 : 	{
; 1760 : 		ASSERT (group);

  00be4	83 7d fc 00	 cmp	 DWORD PTR _group$[ebp], 0
  00be8	75 1a		 jne	 SHORT $LN29@process_me
  00bea	a1 00 00 00 00	 mov	 eax, DWORD PTR ?__LINE__Var@?0??process_message_weapons_hold@@YGXPAUENTITY@@0HH@Z@4JA
  00bef	05 84 00 00 00	 add	 eax, 132		; 00000084H
  00bf4	50		 push	 eax
  00bf5	68 00 00 00 00	 push	 OFFSET ??_C@_0DK@BLKECLAG@c?3?2users?2nhv90?2projects?2eech?2ap@
  00bfa	68 00 00 00 00	 push	 OFFSET ??_C@_05MGJOOGAJ@group@
  00bff	e8 00 00 00 00	 call	 ?process_assert@@YGXPBD0H@Z ; process_assert
$LN29@process_me:

; 1761 : 
; 1762 : 		assign_engage_tasks_to_group (group, valid_members);

  00c04	8b 45 e8	 mov	 eax, DWORD PTR _valid_members$[ebp]
  00c07	50		 push	 eax
  00c08	8b 4d fc	 mov	 ecx, DWORD PTR _group$[ebp]
  00c0b	51		 push	 ecx
  00c0c	e8 00 00 00 00	 call	 ?assign_engage_tasks_to_group@@YGIPAUENTITY@@I@Z ; assign_engage_tasks_to_group
$LN28@process_me:

; 1763 : 	}
; 1764 : }

  00c11	5f		 pop	 edi
  00c12	5e		 pop	 esi
  00c13	5b		 pop	 ebx
  00c14	8b e5		 mov	 esp, ebp
  00c16	5d		 pop	 ebp
  00c17	c2 10 00	 ret	 16			; 00000010H
?process_message_weapons_hold@@YGXPAUENTITY@@0HH@Z ENDP	; process_message_weapons_hold
_TEXT	ENDS
; Function compile flags: /Odtp /ZI
; File c:\users\nhv90\projects\eech\aphavoc\source\misc\msg_in.c
;	COMDAT ?process_message_return_to_base@@YGXPAUENTITY@@@Z
_TEXT	SEGMENT
tv83 = -76						; size = 4
tv75 = -72						; size = 4
_group$ = -4						; size = 4
_en$ = 8						; size = 4
?process_message_return_to_base@@YGXPAUENTITY@@@Z PROC	; process_message_return_to_base, COMDAT

; 1599 : {

  00000	55		 push	 ebp
  00001	8b ec		 mov	 ebp, esp
  00003	83 ec 4c	 sub	 esp, 76			; 0000004cH
  00006	53		 push	 ebx
  00007	56		 push	 esi
  00008	57		 push	 edi

; 1600 : 	entity
; 1601 : 		*group;
; 1602 : 
; 1603 : 	ASSERT (en);

  00009	83 7d 08 00	 cmp	 DWORD PTR _en$[ebp], 0
  0000d	75 18		 jne	 SHORT $LN2@process_me
  0000f	a1 00 00 00 00	 mov	 eax, DWORD PTR ?__LINE__Var@?0??process_message_return_to_base@@YGXPAUENTITY@@@Z@4JA
  00014	83 c0 04	 add	 eax, 4
  00017	50		 push	 eax
  00018	68 00 00 00 00	 push	 OFFSET ??_C@_0DK@BLKECLAG@c?3?2users?2nhv90?2projects?2eech?2ap@
  0001d	68 00 00 00 00	 push	 OFFSET ??_C@_02LFNMGJAP@en@
  00022	e8 00 00 00 00	 call	 ?process_assert@@YGXPBD0H@Z ; process_assert
$LN2@process_me:

; 1604 : 
; 1605 : 	group = get_local_entity_parent (en, LIST_TYPE_MEMBER);

  00027	83 7d 08 00	 cmp	 DWORD PTR _en$[ebp], 0
  0002b	74 0a		 je	 SHORT $LN6@process_me
  0002d	8b 45 08	 mov	 eax, DWORD PTR _en$[ebp]
  00030	8b 08		 mov	 ecx, DWORD PTR [eax]
  00032	89 4d b8	 mov	 DWORD PTR tv75[ebp], ecx
  00035	eb 21		 jmp	 SHORT $LN7@process_me
$LN6@process_me:
  00037	8b 15 00 00 00
	00		 mov	 edx, DWORD PTR ?__LINE__Var@?0??process_message_return_to_base@@YGXPAUENTITY@@@Z@4JA
  0003d	83 c2 06	 add	 edx, 6
  00040	52		 push	 edx
  00041	68 00 00 00 00	 push	 OFFSET ??_C@_0DK@BLKECLAG@c?3?2users?2nhv90?2projects?2eech?2ap@
  00046	a1 00 00 00 00	 mov	 eax, DWORD PTR ?null_entity_pointer_message@@3PBDB ; null_entity_pointer_message
  0004b	50		 push	 eax
  0004c	e8 00 00 00 00	 call	 ?process_assert@@YGXPBD0H@Z ; process_assert
  00051	c7 45 b8 00 00
	00 00		 mov	 DWORD PTR tv75[ebp], 0
$LN7@process_me:
  00058	b9 01 00 00 00	 mov	 ecx, 1
  0005d	85 c9		 test	 ecx, ecx
  0005f	74 09		 je	 SHORT $LN8@process_me
  00061	c7 45 b4 19 00
	00 00		 mov	 DWORD PTR tv83[ebp], 25	; 00000019H
  00068	eb 21		 jmp	 SHORT $LN9@process_me
$LN8@process_me:
  0006a	8b 15 00 00 00
	00		 mov	 edx, DWORD PTR ?__LINE__Var@?0??process_message_return_to_base@@YGXPAUENTITY@@@Z@4JA
  00070	83 c2 06	 add	 edx, 6
  00073	52		 push	 edx
  00074	68 00 00 00 00	 push	 OFFSET ??_C@_0DK@BLKECLAG@c?3?2users?2nhv90?2projects?2eech?2ap@
  00079	a1 00 00 00 00	 mov	 eax, DWORD PTR ?overload_invalid_list_type_message@@3PBDB ; overload_invalid_list_type_message
  0007e	50		 push	 eax
  0007f	e8 00 00 00 00	 call	 ?process_assert@@YGXPBD0H@Z ; process_assert
  00084	c7 45 b4 00 00
	00 00		 mov	 DWORD PTR tv83[ebp], 0
$LN9@process_me:
  0008b	6a 19		 push	 25			; 00000019H
  0008d	8b 4d 08	 mov	 ecx, DWORD PTR _en$[ebp]
  00090	51		 push	 ecx
  00091	69 55 b8 b4 00
	00 00		 imul	 edx, DWORD PTR tv75[ebp], 180
  00098	8b 45 b4	 mov	 eax, DWORD PTR tv83[ebp]
  0009b	8b 8c 82 00 00
	00 00		 mov	 ecx, DWORD PTR ?fn_get_local_entity_parent@@3PAY0CN@P6GPAUENTITY@@PAU1@W4LIST_TYPES@@@ZA[edx+eax*4]
  000a2	ff d1		 call	 ecx
  000a4	89 45 fc	 mov	 DWORD PTR _group$[ebp], eax

; 1606 : 
; 1607 : 	ASSERT (group);

  000a7	83 7d fc 00	 cmp	 DWORD PTR _group$[ebp], 0
  000ab	75 18		 jne	 SHORT $LN3@process_me
  000ad	a1 00 00 00 00	 mov	 eax, DWORD PTR ?__LINE__Var@?0??process_message_return_to_base@@YGXPAUENTITY@@@Z@4JA
  000b2	83 c0 08	 add	 eax, 8
  000b5	50		 push	 eax
  000b6	68 00 00 00 00	 push	 OFFSET ??_C@_0DK@BLKECLAG@c?3?2users?2nhv90?2projects?2eech?2ap@
  000bb	68 00 00 00 00	 push	 OFFSET ??_C@_05MGJOOGAJ@group@
  000c0	e8 00 00 00 00	 call	 ?process_assert@@YGXPBD0H@Z ; process_assert
$LN3@process_me:

; 1608 : 
; 1609 : 	if (get_local_group_primary_guide (group))

  000c5	8b 45 fc	 mov	 eax, DWORD PTR _group$[ebp]
  000c8	50		 push	 eax
  000c9	e8 00 00 00 00	 call	 ?get_local_group_primary_guide@@YGPAUENTITY@@PAU1@@Z ; get_local_group_primary_guide
  000ce	85 c0		 test	 eax, eax
  000d0	74 30		 je	 SHORT $LN4@process_me

; 1610 : 	{
; 1611 : 		group_return_to_base (group);

  000d2	8b 45 fc	 mov	 eax, DWORD PTR _group$[ebp]
  000d5	50		 push	 eax
  000d6	e8 00 00 00 00	 call	 ?group_return_to_base@@YGXPAUENTITY@@@Z ; group_return_to_base

; 1612 : 
; 1613 : 		play_client_server_radio_message_affirmative_response (group, SPEECH_WINGMAN_ROGER_RETURNING_TO_BASE, 0.2, 20.0);

  000db	51		 push	 ecx
  000dc	f3 0f 10 05 00
	00 00 00	 movss	 xmm0, DWORD PTR __real@41a00000
  000e4	f3 0f 11 04 24	 movss	 DWORD PTR [esp], xmm0
  000e9	51		 push	 ecx
  000ea	f3 0f 10 05 00
	00 00 00	 movss	 xmm0, DWORD PTR __real@3e4ccccd
  000f2	f3 0f 11 04 24	 movss	 DWORD PTR [esp], xmm0
  000f7	6a 19		 push	 25			; 00000019H
  000f9	8b 45 fc	 mov	 eax, DWORD PTR _group$[ebp]
  000fc	50		 push	 eax
  000fd	e8 00 00 00 00	 call	 ?play_client_server_radio_message_affirmative_response@@YGXPAUENTITY@@HMM@Z ; play_client_server_radio_message_affirmative_response
$LN4@process_me:

; 1614 : 	}
; 1615 : }

  00102	5f		 pop	 edi
  00103	5e		 pop	 esi
  00104	5b		 pop	 ebx
  00105	8b e5		 mov	 esp, ebp
  00107	5d		 pop	 ebp
  00108	c2 04 00	 ret	 4
?process_message_return_to_base@@YGXPAUENTITY@@@Z ENDP	; process_message_return_to_base
_TEXT	ENDS
; Function compile flags: /Odtp /ZI
; File c:\users\nhv90\projects\eech\aphavoc\source\misc\msg_in.c
;	COMDAT ?process_message_help_me@@YGXPAUENTITY@@0@Z
_TEXT	SEGMENT
tv280 = -96						; size = 4
tv258 = -96						; size = 4
tv232 = -96						; size = 4
tv198 = -96						; size = 4
tv179 = -96						; size = 4
tv160 = -96						; size = 4
tv139 = -96						; size = 4
tv88 = -96						; size = 4
tv272 = -92						; size = 4
tv250 = -92						; size = 4
tv224 = -92						; size = 4
tv216 = -92						; size = 4
tv191 = -92						; size = 4
tv172 = -92						; size = 4
tv152 = -92						; size = 4
tv132 = -92						; size = 4
tv80 = -92						; size = 4
_task_assigned$ = -24					; size = 4
_member_number$ = -20					; size = 4
_valid_members$ = -16					; size = 4
_new_task$ = -12					; size = 4
_target$ = -8						; size = 4
_group$ = -4						; size = 4
_en$ = 8						; size = 4
_wingman$ = 12						; size = 4
?process_message_help_me@@YGXPAUENTITY@@0@Z PROC	; process_message_help_me, COMDAT

; 1507 : {

  00000	55		 push	 ebp
  00001	8b ec		 mov	 ebp, esp
  00003	83 ec 60	 sub	 esp, 96			; 00000060H
  00006	53		 push	 ebx
  00007	56		 push	 esi
  00008	57		 push	 edi

; 1508 : 	entity
; 1509 : 		*group,
; 1510 : 		*target,
; 1511 : 		*new_task;
; 1512 : 
; 1513 : 	unsigned int
; 1514 : 		valid_members,
; 1515 : 		member_number;
; 1516 : 
; 1517 : 	int
; 1518 : 		task_assigned;
; 1519 : 
; 1520 : 	ASSERT (en);

  00009	83 7d 08 00	 cmp	 DWORD PTR _en$[ebp], 0
  0000d	75 18		 jne	 SHORT $LN4@process_me
  0000f	a1 00 00 00 00	 mov	 eax, DWORD PTR ?__LINE__Var@?0??process_message_help_me@@YGXPAUENTITY@@0@Z@4JA
  00014	83 c0 0d	 add	 eax, 13			; 0000000dH
  00017	50		 push	 eax
  00018	68 00 00 00 00	 push	 OFFSET ??_C@_0DK@BLKECLAG@c?3?2users?2nhv90?2projects?2eech?2ap@
  0001d	68 00 00 00 00	 push	 OFFSET ??_C@_02LFNMGJAP@en@
  00022	e8 00 00 00 00	 call	 ?process_assert@@YGXPBD0H@Z ; process_assert
$LN4@process_me:

; 1521 : 
; 1522 : 	ASSERT (wingman);

  00027	83 7d 0c 00	 cmp	 DWORD PTR _wingman$[ebp], 0
  0002b	75 18		 jne	 SHORT $LN5@process_me
  0002d	a1 00 00 00 00	 mov	 eax, DWORD PTR ?__LINE__Var@?0??process_message_help_me@@YGXPAUENTITY@@0@Z@4JA
  00032	83 c0 0f	 add	 eax, 15			; 0000000fH
  00035	50		 push	 eax
  00036	68 00 00 00 00	 push	 OFFSET ??_C@_0DK@BLKECLAG@c?3?2users?2nhv90?2projects?2eech?2ap@
  0003b	68 00 00 00 00	 push	 OFFSET ??_C@_07EAKNLMLO@wingman@
  00040	e8 00 00 00 00	 call	 ?process_assert@@YGXPBD0H@Z ; process_assert
$LN5@process_me:

; 1523 : 
; 1524 : 	new_task = NULL;

  00045	c7 45 f4 00 00
	00 00		 mov	 DWORD PTR _new_task$[ebp], 0

; 1525 : 
; 1526 : 	task_assigned = FALSE;

  0004c	c7 45 e8 00 00
	00 00		 mov	 DWORD PTR _task_assigned$[ebp], 0

; 1527 : 
; 1528 : 	group = get_local_entity_parent (en, LIST_TYPE_MEMBER);

  00053	83 7d 08 00	 cmp	 DWORD PTR _en$[ebp], 0
  00057	74 0a		 je	 SHORT $LN18@process_me
  00059	8b 45 08	 mov	 eax, DWORD PTR _en$[ebp]
  0005c	8b 08		 mov	 ecx, DWORD PTR [eax]
  0005e	89 4d a4	 mov	 DWORD PTR tv80[ebp], ecx
  00061	eb 21		 jmp	 SHORT $LN19@process_me
$LN18@process_me:
  00063	8b 15 00 00 00
	00		 mov	 edx, DWORD PTR ?__LINE__Var@?0??process_message_help_me@@YGXPAUENTITY@@0@Z@4JA
  00069	83 c2 15	 add	 edx, 21			; 00000015H
  0006c	52		 push	 edx
  0006d	68 00 00 00 00	 push	 OFFSET ??_C@_0DK@BLKECLAG@c?3?2users?2nhv90?2projects?2eech?2ap@
  00072	a1 00 00 00 00	 mov	 eax, DWORD PTR ?null_entity_pointer_message@@3PBDB ; null_entity_pointer_message
  00077	50		 push	 eax
  00078	e8 00 00 00 00	 call	 ?process_assert@@YGXPBD0H@Z ; process_assert
  0007d	c7 45 a4 00 00
	00 00		 mov	 DWORD PTR tv80[ebp], 0
$LN19@process_me:
  00084	b9 01 00 00 00	 mov	 ecx, 1
  00089	85 c9		 test	 ecx, ecx
  0008b	74 09		 je	 SHORT $LN20@process_me
  0008d	c7 45 a0 19 00
	00 00		 mov	 DWORD PTR tv88[ebp], 25	; 00000019H
  00094	eb 21		 jmp	 SHORT $LN21@process_me
$LN20@process_me:
  00096	8b 15 00 00 00
	00		 mov	 edx, DWORD PTR ?__LINE__Var@?0??process_message_help_me@@YGXPAUENTITY@@0@Z@4JA
  0009c	83 c2 15	 add	 edx, 21			; 00000015H
  0009f	52		 push	 edx
  000a0	68 00 00 00 00	 push	 OFFSET ??_C@_0DK@BLKECLAG@c?3?2users?2nhv90?2projects?2eech?2ap@
  000a5	a1 00 00 00 00	 mov	 eax, DWORD PTR ?overload_invalid_list_type_message@@3PBDB ; overload_invalid_list_type_message
  000aa	50		 push	 eax
  000ab	e8 00 00 00 00	 call	 ?process_assert@@YGXPBD0H@Z ; process_assert
  000b0	c7 45 a0 00 00
	00 00		 mov	 DWORD PTR tv88[ebp], 0
$LN21@process_me:
  000b7	6a 19		 push	 25			; 00000019H
  000b9	8b 4d 08	 mov	 ecx, DWORD PTR _en$[ebp]
  000bc	51		 push	 ecx
  000bd	69 55 a4 b4 00
	00 00		 imul	 edx, DWORD PTR tv80[ebp], 180
  000c4	8b 45 a0	 mov	 eax, DWORD PTR tv88[ebp]
  000c7	8b 8c 82 00 00
	00 00		 mov	 ecx, DWORD PTR ?fn_get_local_entity_parent@@3PAY0CN@P6GPAUENTITY@@PAU1@W4LIST_TYPES@@@ZA[edx+eax*4]
  000ce	ff d1		 call	 ecx
  000d0	89 45 fc	 mov	 DWORD PTR _group$[ebp], eax

; 1529 : 
; 1530 : 	if (group)

  000d3	83 7d fc 00	 cmp	 DWORD PTR _group$[ebp], 0
  000d7	0f 84 7c 04 00
	00		 je	 $LN16@process_me

; 1531 : 	{
; 1532 : 		if (get_local_entity_int_value (group, INT_TYPE_ENGAGE_ENEMY))

  000dd	83 7d fc 00	 cmp	 DWORD PTR _group$[ebp], 0
  000e1	74 0a		 je	 SHORT $LN22@process_me
  000e3	8b 45 fc	 mov	 eax, DWORD PTR _group$[ebp]
  000e6	8b 08		 mov	 ecx, DWORD PTR [eax]
  000e8	89 4d a4	 mov	 DWORD PTR tv132[ebp], ecx
  000eb	eb 1d		 jmp	 SHORT $LN23@process_me
$LN22@process_me:
  000ed	68 fc 05 00 00	 push	 1532			; 000005fcH
  000f2	68 00 00 00 00	 push	 OFFSET ??_C@_0DK@BLKECLAG@c?3?2users?2nhv90?2projects?2eech?2ap@
  000f7	8b 15 00 00 00
	00		 mov	 edx, DWORD PTR ?null_entity_pointer_message@@3PBDB ; null_entity_pointer_message
  000fd	52		 push	 edx
  000fe	e8 00 00 00 00	 call	 ?process_assert@@YGXPBD0H@Z ; process_assert
  00103	c7 45 a4 00 00
	00 00		 mov	 DWORD PTR tv132[ebp], 0
$LN23@process_me:
  0010a	b8 01 00 00 00	 mov	 eax, 1
  0010f	85 c0		 test	 eax, eax
  00111	74 09		 je	 SHORT $LN24@process_me
  00113	c7 45 a0 33 00
	00 00		 mov	 DWORD PTR tv139[ebp], 51 ; 00000033H
  0011a	eb 1d		 jmp	 SHORT $LN25@process_me
$LN24@process_me:
  0011c	68 fc 05 00 00	 push	 1532			; 000005fcH
  00121	68 00 00 00 00	 push	 OFFSET ??_C@_0DK@BLKECLAG@c?3?2users?2nhv90?2projects?2eech?2ap@
  00126	8b 0d 00 00 00
	00		 mov	 ecx, DWORD PTR ?overload_invalid_int_type_message@@3PBDB ; overload_invalid_int_type_message
  0012c	51		 push	 ecx
  0012d	e8 00 00 00 00	 call	 ?process_assert@@YGXPBD0H@Z ; process_assert
  00132	c7 45 a0 00 00
	00 00		 mov	 DWORD PTR tv139[ebp], 0
$LN25@process_me:
  00139	6a 33		 push	 51			; 00000033H
  0013b	8b 55 fc	 mov	 edx, DWORD PTR _group$[ebp]
  0013e	52		 push	 edx
  0013f	69 45 a4 5c 04
	00 00		 imul	 eax, DWORD PTR tv132[ebp], 1116
  00146	8b 4d a0	 mov	 ecx, DWORD PTR tv139[ebp]
  00149	8b 94 88 00 00
	00 00		 mov	 edx, DWORD PTR ?fn_get_local_entity_int_value@@3PAY0BBH@P6GHPAUENTITY@@W4INT_TYPES@@@ZA[eax+ecx*4]
  00150	ff d2		 call	 edx
  00152	85 c0		 test	 eax, eax
  00154	0f 84 98 03 00
	00		 je	 $LN3@process_me

; 1533 : 		{
; 1534 : 			target = get_local_entity_first_child (en, LIST_TYPE_TARGET);

  0015a	83 7d 08 00	 cmp	 DWORD PTR _en$[ebp], 0
  0015e	74 0a		 je	 SHORT $LN26@process_me
  00160	8b 45 08	 mov	 eax, DWORD PTR _en$[ebp]
  00163	8b 08		 mov	 ecx, DWORD PTR [eax]
  00165	89 4d a4	 mov	 DWORD PTR tv152[ebp], ecx
  00168	eb 21		 jmp	 SHORT $LN27@process_me
$LN26@process_me:
  0016a	8b 15 00 00 00
	00		 mov	 edx, DWORD PTR ?__LINE__Var@?0??process_message_help_me@@YGXPAUENTITY@@0@Z@4JA
  00170	83 c2 1b	 add	 edx, 27			; 0000001bH
  00173	52		 push	 edx
  00174	68 00 00 00 00	 push	 OFFSET ??_C@_0DK@BLKECLAG@c?3?2users?2nhv90?2projects?2eech?2ap@
  00179	a1 00 00 00 00	 mov	 eax, DWORD PTR ?null_entity_pointer_message@@3PBDB ; null_entity_pointer_message
  0017e	50		 push	 eax
  0017f	e8 00 00 00 00	 call	 ?process_assert@@YGXPBD0H@Z ; process_assert
  00184	c7 45 a4 00 00
	00 00		 mov	 DWORD PTR tv152[ebp], 0
$LN27@process_me:
  0018b	b9 01 00 00 00	 mov	 ecx, 1
  00190	85 c9		 test	 ecx, ecx
  00192	74 09		 je	 SHORT $LN28@process_me
  00194	c7 45 a0 26 00
	00 00		 mov	 DWORD PTR tv160[ebp], 38 ; 00000026H
  0019b	eb 21		 jmp	 SHORT $LN29@process_me
$LN28@process_me:
  0019d	8b 15 00 00 00
	00		 mov	 edx, DWORD PTR ?__LINE__Var@?0??process_message_help_me@@YGXPAUENTITY@@0@Z@4JA
  001a3	83 c2 1b	 add	 edx, 27			; 0000001bH
  001a6	52		 push	 edx
  001a7	68 00 00 00 00	 push	 OFFSET ??_C@_0DK@BLKECLAG@c?3?2users?2nhv90?2projects?2eech?2ap@
  001ac	a1 00 00 00 00	 mov	 eax, DWORD PTR ?overload_invalid_list_type_message@@3PBDB ; overload_invalid_list_type_message
  001b1	50		 push	 eax
  001b2	e8 00 00 00 00	 call	 ?process_assert@@YGXPBD0H@Z ; process_assert
  001b7	c7 45 a0 00 00
	00 00		 mov	 DWORD PTR tv160[ebp], 0
$LN29@process_me:
  001be	6a 26		 push	 38			; 00000026H
  001c0	8b 4d 08	 mov	 ecx, DWORD PTR _en$[ebp]
  001c3	51		 push	 ecx
  001c4	69 55 a4 b4 00
	00 00		 imul	 edx, DWORD PTR tv152[ebp], 180
  001cb	8b 45 a0	 mov	 eax, DWORD PTR tv160[ebp]
  001ce	8b 8c 82 00 00
	00 00		 mov	 ecx, DWORD PTR ?fn_get_local_entity_first_child@@3PAY0CN@P6GPAUENTITY@@PAU1@W4LIST_TYPES@@@ZA[edx+eax*4]
  001d5	ff d1		 call	 ecx
  001d7	89 45 f8	 mov	 DWORD PTR _target$[ebp], eax
$LN2@process_me:

; 1535 : 
; 1536 : 			while (target)

  001da	83 7d f8 00	 cmp	 DWORD PTR _target$[ebp], 0
  001de	0f 84 0e 03 00
	00		 je	 $LN3@process_me

; 1537 : 			{
; 1538 : 				if ((get_local_entity_int_value (target, INT_TYPE_IDENTIFY_AIRCRAFT)) ||

  001e4	83 7d f8 00	 cmp	 DWORD PTR _target$[ebp], 0
  001e8	74 0a		 je	 SHORT $LN30@process_me
  001ea	8b 45 f8	 mov	 eax, DWORD PTR _target$[ebp]
  001ed	8b 08		 mov	 ecx, DWORD PTR [eax]
  001ef	89 4d a4	 mov	 DWORD PTR tv172[ebp], ecx
  001f2	eb 1d		 jmp	 SHORT $LN31@process_me
$LN30@process_me:
  001f4	68 02 06 00 00	 push	 1538			; 00000602H
  001f9	68 00 00 00 00	 push	 OFFSET ??_C@_0DK@BLKECLAG@c?3?2users?2nhv90?2projects?2eech?2ap@
  001fe	8b 15 00 00 00
	00		 mov	 edx, DWORD PTR ?null_entity_pointer_message@@3PBDB ; null_entity_pointer_message
  00204	52		 push	 edx
  00205	e8 00 00 00 00	 call	 ?process_assert@@YGXPBD0H@Z ; process_assert
  0020a	c7 45 a4 00 00
	00 00		 mov	 DWORD PTR tv172[ebp], 0
$LN31@process_me:
  00211	b8 01 00 00 00	 mov	 eax, 1
  00216	85 c0		 test	 eax, eax
  00218	74 09		 je	 SHORT $LN32@process_me
  0021a	c7 45 a0 57 00
	00 00		 mov	 DWORD PTR tv179[ebp], 87 ; 00000057H
  00221	eb 1d		 jmp	 SHORT $LN33@process_me
$LN32@process_me:
  00223	68 02 06 00 00	 push	 1538			; 00000602H
  00228	68 00 00 00 00	 push	 OFFSET ??_C@_0DK@BLKECLAG@c?3?2users?2nhv90?2projects?2eech?2ap@
  0022d	8b 0d 00 00 00
	00		 mov	 ecx, DWORD PTR ?overload_invalid_int_type_message@@3PBDB ; overload_invalid_int_type_message
  00233	51		 push	 ecx
  00234	e8 00 00 00 00	 call	 ?process_assert@@YGXPBD0H@Z ; process_assert
  00239	c7 45 a0 00 00
	00 00		 mov	 DWORD PTR tv179[ebp], 0
$LN33@process_me:
  00240	6a 57		 push	 87			; 00000057H
  00242	8b 55 f8	 mov	 edx, DWORD PTR _target$[ebp]
  00245	52		 push	 edx
  00246	69 45 a4 5c 04
	00 00		 imul	 eax, DWORD PTR tv172[ebp], 1116
  0024d	8b 4d a0	 mov	 ecx, DWORD PTR tv179[ebp]
  00250	8b 94 88 00 00
	00 00		 mov	 edx, DWORD PTR ?fn_get_local_entity_int_value@@3PAY0BBH@P6GHPAUENTITY@@W4INT_TYPES@@@ZA[eax+ecx*4]
  00257	ff d2		 call	 edx
  00259	85 c0		 test	 eax, eax
  0025b	75 7d		 jne	 SHORT $LN9@process_me
  0025d	83 7d f8 00	 cmp	 DWORD PTR _target$[ebp], 0
  00261	74 0a		 je	 SHORT $LN34@process_me
  00263	8b 45 f8	 mov	 eax, DWORD PTR _target$[ebp]
  00266	8b 08		 mov	 ecx, DWORD PTR [eax]
  00268	89 4d a4	 mov	 DWORD PTR tv191[ebp], ecx
  0026b	eb 1d		 jmp	 SHORT $LN35@process_me
$LN34@process_me:
  0026d	68 03 06 00 00	 push	 1539			; 00000603H
  00272	68 00 00 00 00	 push	 OFFSET ??_C@_0DK@BLKECLAG@c?3?2users?2nhv90?2projects?2eech?2ap@
  00277	8b 15 00 00 00
	00		 mov	 edx, DWORD PTR ?null_entity_pointer_message@@3PBDB ; null_entity_pointer_message
  0027d	52		 push	 edx
  0027e	e8 00 00 00 00	 call	 ?process_assert@@YGXPBD0H@Z ; process_assert
  00283	c7 45 a4 00 00
	00 00		 mov	 DWORD PTR tv191[ebp], 0
$LN35@process_me:
  0028a	b8 01 00 00 00	 mov	 eax, 1
  0028f	85 c0		 test	 eax, eax
  00291	74 09		 je	 SHORT $LN36@process_me
  00293	c7 45 a0 60 00
	00 00		 mov	 DWORD PTR tv198[ebp], 96 ; 00000060H
  0029a	eb 1d		 jmp	 SHORT $LN37@process_me
$LN36@process_me:
  0029c	68 03 06 00 00	 push	 1539			; 00000603H
  002a1	68 00 00 00 00	 push	 OFFSET ??_C@_0DK@BLKECLAG@c?3?2users?2nhv90?2projects?2eech?2ap@
  002a6	8b 0d 00 00 00
	00		 mov	 ecx, DWORD PTR ?overload_invalid_int_type_message@@3PBDB ; overload_invalid_int_type_message
  002ac	51		 push	 ecx
  002ad	e8 00 00 00 00	 call	 ?process_assert@@YGXPBD0H@Z ; process_assert
  002b2	c7 45 a0 00 00
	00 00		 mov	 DWORD PTR tv198[ebp], 0
$LN37@process_me:
  002b9	6a 60		 push	 96			; 00000060H
  002bb	8b 55 f8	 mov	 edx, DWORD PTR _target$[ebp]
  002be	52		 push	 edx
  002bf	69 45 a4 5c 04
	00 00		 imul	 eax, DWORD PTR tv191[ebp], 1116
  002c6	8b 4d a0	 mov	 ecx, DWORD PTR tv198[ebp]
  002c9	8b 94 88 00 00
	00 00		 mov	 edx, DWORD PTR ?fn_get_local_entity_int_value@@3PAY0BBH@P6GHPAUENTITY@@W4INT_TYPES@@@ZA[eax+ecx*4]
  002d0	ff d2		 call	 edx
  002d2	85 c0		 test	 eax, eax
  002d4	0f 84 93 01 00
	00		 je	 $LN14@process_me
$LN9@process_me:

; 1539 : 						(get_local_entity_int_value (target, INT_TYPE_IDENTIFY_VEHICLE)))
; 1540 : 				{
; 1541 : 					new_task = create_engage_task (group, target, en, TRUE);

  002da	6a 01		 push	 1
  002dc	8b 45 08	 mov	 eax, DWORD PTR _en$[ebp]
  002df	50		 push	 eax
  002e0	8b 4d f8	 mov	 ecx, DWORD PTR _target$[ebp]
  002e3	51		 push	 ecx
  002e4	8b 55 fc	 mov	 edx, DWORD PTR _group$[ebp]
  002e7	52		 push	 edx
  002e8	e8 00 00 00 00	 call	 ?create_engage_task@@YGPAUENTITY@@PAU1@00H@Z ; create_engage_task
  002ed	89 45 f4	 mov	 DWORD PTR _new_task$[ebp], eax

; 1542 : 
; 1543 : 					if (new_task)

  002f0	83 7d f4 00	 cmp	 DWORD PTR _new_task$[ebp], 0
  002f4	0f 84 73 01 00
	00		 je	 $LN14@process_me

; 1544 : 					{
; 1545 : 						if (get_local_entity_type (wingman) == ENTITY_TYPE_GROUP)

  002fa	83 7d 0c 00	 cmp	 DWORD PTR _wingman$[ebp], 0
  002fe	74 0a		 je	 SHORT $LN38@process_me
  00300	8b 45 0c	 mov	 eax, DWORD PTR _wingman$[ebp]
  00303	8b 08		 mov	 ecx, DWORD PTR [eax]
  00305	89 4d a4	 mov	 DWORD PTR tv216[ebp], ecx
  00308	eb 1d		 jmp	 SHORT $LN39@process_me
$LN38@process_me:
  0030a	68 09 06 00 00	 push	 1545			; 00000609H
  0030f	68 00 00 00 00	 push	 OFFSET ??_C@_0DK@BLKECLAG@c?3?2users?2nhv90?2projects?2eech?2ap@
  00314	8b 15 00 00 00
	00		 mov	 edx, DWORD PTR ?null_entity_pointer_message@@3PBDB ; null_entity_pointer_message
  0031a	52		 push	 edx
  0031b	e8 00 00 00 00	 call	 ?process_assert@@YGXPBD0H@Z ; process_assert
  00320	c7 45 a4 00 00
	00 00		 mov	 DWORD PTR tv216[ebp], 0
$LN39@process_me:
  00327	83 7d a4 0c	 cmp	 DWORD PTR tv216[ebp], 12 ; 0000000cH
  0032b	75 0c		 jne	 SHORT $LN11@process_me

; 1546 : 						{
; 1547 : 							valid_members = TASK_ASSIGN_ALL_MEMBERS;

  0032d	c7 45 f0 ff ff
	ff ff		 mov	 DWORD PTR _valid_members$[ebp], -1

; 1548 : 						}
; 1549 : 						else

  00334	e9 8d 00 00 00	 jmp	 $LN12@process_me
$LN11@process_me:

; 1550 : 						{
; 1551 : 							member_number = get_local_entity_int_value (wingman, INT_TYPE_GROUP_MEMBER_NUMBER);

  00339	83 7d 0c 00	 cmp	 DWORD PTR _wingman$[ebp], 0
  0033d	74 0a		 je	 SHORT $LN40@process_me
  0033f	8b 45 0c	 mov	 eax, DWORD PTR _wingman$[ebp]
  00342	8b 08		 mov	 ecx, DWORD PTR [eax]
  00344	89 4d a4	 mov	 DWORD PTR tv224[ebp], ecx
  00347	eb 21		 jmp	 SHORT $LN41@process_me
$LN40@process_me:
  00349	8b 15 00 00 00
	00		 mov	 edx, DWORD PTR ?__LINE__Var@?0??process_message_help_me@@YGXPAUENTITY@@0@Z@4JA
  0034f	83 c2 2c	 add	 edx, 44			; 0000002cH
  00352	52		 push	 edx
  00353	68 00 00 00 00	 push	 OFFSET ??_C@_0DK@BLKECLAG@c?3?2users?2nhv90?2projects?2eech?2ap@
  00358	a1 00 00 00 00	 mov	 eax, DWORD PTR ?null_entity_pointer_message@@3PBDB ; null_entity_pointer_message
  0035d	50		 push	 eax
  0035e	e8 00 00 00 00	 call	 ?process_assert@@YGXPBD0H@Z ; process_assert
  00363	c7 45 a4 00 00
	00 00		 mov	 DWORD PTR tv224[ebp], 0
$LN41@process_me:
  0036a	b9 01 00 00 00	 mov	 ecx, 1
  0036f	85 c9		 test	 ecx, ecx
  00371	74 09		 je	 SHORT $LN42@process_me
  00373	c7 45 a0 4b 00
	00 00		 mov	 DWORD PTR tv232[ebp], 75 ; 0000004bH
  0037a	eb 21		 jmp	 SHORT $LN43@process_me
$LN42@process_me:
  0037c	8b 15 00 00 00
	00		 mov	 edx, DWORD PTR ?__LINE__Var@?0??process_message_help_me@@YGXPAUENTITY@@0@Z@4JA
  00382	83 c2 2c	 add	 edx, 44			; 0000002cH
  00385	52		 push	 edx
  00386	68 00 00 00 00	 push	 OFFSET ??_C@_0DK@BLKECLAG@c?3?2users?2nhv90?2projects?2eech?2ap@
  0038b	a1 00 00 00 00	 mov	 eax, DWORD PTR ?overload_invalid_int_type_message@@3PBDB ; overload_invalid_int_type_message
  00390	50		 push	 eax
  00391	e8 00 00 00 00	 call	 ?process_assert@@YGXPBD0H@Z ; process_assert
  00396	c7 45 a0 00 00
	00 00		 mov	 DWORD PTR tv232[ebp], 0
$LN43@process_me:
  0039d	6a 4b		 push	 75			; 0000004bH
  0039f	8b 4d 0c	 mov	 ecx, DWORD PTR _wingman$[ebp]
  003a2	51		 push	 ecx
  003a3	69 55 a4 5c 04
	00 00		 imul	 edx, DWORD PTR tv224[ebp], 1116
  003aa	8b 45 a0	 mov	 eax, DWORD PTR tv232[ebp]
  003ad	8b 8c 82 00 00
	00 00		 mov	 ecx, DWORD PTR ?fn_get_local_entity_int_value@@3PAY0BBH@P6GHPAUENTITY@@W4INT_TYPES@@@ZA[edx+eax*4]
  003b4	ff d1		 call	 ecx
  003b6	89 45 ec	 mov	 DWORD PTR _member_number$[ebp], eax

; 1552 : 
; 1553 : 							valid_members = (1 << member_number);

  003b9	b8 01 00 00 00	 mov	 eax, 1
  003be	8b 4d ec	 mov	 ecx, DWORD PTR _member_number$[ebp]
  003c1	d3 e0		 shl	 eax, cl
  003c3	89 45 f0	 mov	 DWORD PTR _valid_members$[ebp], eax
$LN12@process_me:

; 1554 : 						}
; 1555 : 
; 1556 : 						if (assign_task_to_group (group, new_task, TASK_ASSIGN_NO_MEMBERS))

  003c6	6a 00		 push	 0
  003c8	8b 45 f4	 mov	 eax, DWORD PTR _new_task$[ebp]
  003cb	50		 push	 eax
  003cc	8b 4d fc	 mov	 ecx, DWORD PTR _group$[ebp]
  003cf	51		 push	 ecx
  003d0	e8 00 00 00 00	 call	 ?assign_task_to_group@@YGHPAUENTITY@@0I@Z ; assign_task_to_group
  003d5	85 c0		 test	 eax, eax
  003d7	74 0c		 je	 SHORT $LN13@process_me

; 1557 : 						{
; 1558 : 							task_assigned = TRUE;

  003d9	c7 45 e8 01 00
	00 00		 mov	 DWORD PTR _task_assigned$[ebp], 1

; 1559 : 						}
; 1560 : 						else

  003e0	e9 88 00 00 00	 jmp	 $LN14@process_me
$LN13@process_me:

; 1561 : 						{
; 1562 : 							debug_log ("MESSAGE: can't assign my persuer %s to my wingmen", get_local_entity_string (target, STRING_TYPE_FULL_NAME));

  003e5	83 7d f8 00	 cmp	 DWORD PTR _target$[ebp], 0
  003e9	74 0a		 je	 SHORT $LN44@process_me
  003eb	8b 45 f8	 mov	 eax, DWORD PTR _target$[ebp]
  003ee	8b 08		 mov	 ecx, DWORD PTR [eax]
  003f0	89 4d a4	 mov	 DWORD PTR tv250[ebp], ecx
  003f3	eb 21		 jmp	 SHORT $LN45@process_me
$LN44@process_me:
  003f5	8b 15 00 00 00
	00		 mov	 edx, DWORD PTR ?__LINE__Var@?0??process_message_help_me@@YGXPAUENTITY@@0@Z@4JA
  003fb	83 c2 37	 add	 edx, 55			; 00000037H
  003fe	52		 push	 edx
  003ff	68 00 00 00 00	 push	 OFFSET ??_C@_0DK@BLKECLAG@c?3?2users?2nhv90?2projects?2eech?2ap@
  00404	a1 00 00 00 00	 mov	 eax, DWORD PTR ?null_entity_pointer_message@@3PBDB ; null_entity_pointer_message
  00409	50		 push	 eax
  0040a	e8 00 00 00 00	 call	 ?process_assert@@YGXPBD0H@Z ; process_assert
  0040f	c7 45 a4 00 00
	00 00		 mov	 DWORD PTR tv250[ebp], 0
$LN45@process_me:
  00416	b9 01 00 00 00	 mov	 ecx, 1
  0041b	85 c9		 test	 ecx, ecx
  0041d	74 09		 je	 SHORT $LN46@process_me
  0041f	c7 45 a0 03 00
	00 00		 mov	 DWORD PTR tv258[ebp], 3
  00426	eb 21		 jmp	 SHORT $LN47@process_me
$LN46@process_me:
  00428	8b 15 00 00 00
	00		 mov	 edx, DWORD PTR ?__LINE__Var@?0??process_message_help_me@@YGXPAUENTITY@@0@Z@4JA
  0042e	83 c2 37	 add	 edx, 55			; 00000037H
  00431	52		 push	 edx
  00432	68 00 00 00 00	 push	 OFFSET ??_C@_0DK@BLKECLAG@c?3?2users?2nhv90?2projects?2eech?2ap@
  00437	a1 00 00 00 00	 mov	 eax, DWORD PTR ?overload_invalid_string_type_message@@3PBDB ; overload_invalid_string_type_message
  0043c	50		 push	 eax
  0043d	e8 00 00 00 00	 call	 ?process_assert@@YGXPBD0H@Z ; process_assert
  00442	c7 45 a0 00 00
	00 00		 mov	 DWORD PTR tv258[ebp], 0
$LN47@process_me:
  00449	6a 03		 push	 3
  0044b	8b 4d f8	 mov	 ecx, DWORD PTR _target$[ebp]
  0044e	51		 push	 ecx
  0044f	6b 55 a4 34	 imul	 edx, DWORD PTR tv250[ebp], 52
  00453	8b 45 a0	 mov	 eax, DWORD PTR tv258[ebp]
  00456	8b 8c 82 00 00
	00 00		 mov	 ecx, DWORD PTR ?fn_get_local_entity_string@@3PAY0N@P6GPBDPAUENTITY@@W4STRING_TYPES@@@ZA[edx+eax*4]
  0045d	ff d1		 call	 ecx
  0045f	50		 push	 eax
  00460	68 00 00 00 00	 push	 OFFSET ??_C@_0DC@FBAJPFKI@MESSAGE?3?5can?8t?5assign?5my?5persue@
  00465	e8 00 00 00 00	 call	 ?debug_log@@YAXPBDZZ	; debug_log
  0046a	83 c4 08	 add	 esp, 8
$LN14@process_me:

; 1563 : 						}
; 1564 : 					}
; 1565 : 				}
; 1566 : 
; 1567 : 				target = get_local_entity_child_succ (target, LIST_TYPE_TARGET);

  0046d	83 7d f8 00	 cmp	 DWORD PTR _target$[ebp], 0
  00471	74 0a		 je	 SHORT $LN48@process_me
  00473	8b 45 f8	 mov	 eax, DWORD PTR _target$[ebp]
  00476	8b 08		 mov	 ecx, DWORD PTR [eax]
  00478	89 4d a4	 mov	 DWORD PTR tv272[ebp], ecx
  0047b	eb 21		 jmp	 SHORT $LN49@process_me
$LN48@process_me:
  0047d	8b 15 00 00 00
	00		 mov	 edx, DWORD PTR ?__LINE__Var@?0??process_message_help_me@@YGXPAUENTITY@@0@Z@4JA
  00483	83 c2 3c	 add	 edx, 60			; 0000003cH
  00486	52		 push	 edx
  00487	68 00 00 00 00	 push	 OFFSET ??_C@_0DK@BLKECLAG@c?3?2users?2nhv90?2projects?2eech?2ap@
  0048c	a1 00 00 00 00	 mov	 eax, DWORD PTR ?null_entity_pointer_message@@3PBDB ; null_entity_pointer_message
  00491	50		 push	 eax
  00492	e8 00 00 00 00	 call	 ?process_assert@@YGXPBD0H@Z ; process_assert
  00497	c7 45 a4 00 00
	00 00		 mov	 DWORD PTR tv272[ebp], 0
$LN49@process_me:
  0049e	b9 01 00 00 00	 mov	 ecx, 1
  004a3	85 c9		 test	 ecx, ecx
  004a5	74 09		 je	 SHORT $LN50@process_me
  004a7	c7 45 a0 26 00
	00 00		 mov	 DWORD PTR tv280[ebp], 38 ; 00000026H
  004ae	eb 21		 jmp	 SHORT $LN51@process_me
$LN50@process_me:
  004b0	8b 15 00 00 00
	00		 mov	 edx, DWORD PTR ?__LINE__Var@?0??process_message_help_me@@YGXPAUENTITY@@0@Z@4JA
  004b6	83 c2 3c	 add	 edx, 60			; 0000003cH
  004b9	52		 push	 edx
  004ba	68 00 00 00 00	 push	 OFFSET ??_C@_0DK@BLKECLAG@c?3?2users?2nhv90?2projects?2eech?2ap@
  004bf	a1 00 00 00 00	 mov	 eax, DWORD PTR ?overload_invalid_list_type_message@@3PBDB ; overload_invalid_list_type_message
  004c4	50		 push	 eax
  004c5	e8 00 00 00 00	 call	 ?process_assert@@YGXPBD0H@Z ; process_assert
  004ca	c7 45 a0 00 00
	00 00		 mov	 DWORD PTR tv280[ebp], 0
$LN51@process_me:
  004d1	6a 26		 push	 38			; 00000026H
  004d3	8b 4d f8	 mov	 ecx, DWORD PTR _target$[ebp]
  004d6	51		 push	 ecx
  004d7	69 55 a4 b4 00
	00 00		 imul	 edx, DWORD PTR tv272[ebp], 180
  004de	8b 45 a0	 mov	 eax, DWORD PTR tv280[ebp]
  004e1	8b 8c 82 00 00
	00 00		 mov	 ecx, DWORD PTR ?fn_get_local_entity_child_succ@@3PAY0CN@P6GPAUENTITY@@PAU1@W4LIST_TYPES@@@ZA[edx+eax*4]
  004e8	ff d1		 call	 ecx
  004ea	89 45 f8	 mov	 DWORD PTR _target$[ebp], eax

; 1568 : 			}

  004ed	e9 e8 fc ff ff	 jmp	 $LN2@process_me
$LN3@process_me:

; 1569 : 		}
; 1570 : 
; 1571 : 		if (task_assigned)

  004f2	83 7d e8 00	 cmp	 DWORD PTR _task_assigned$[ebp], 0
  004f6	74 3a		 je	 SHORT $LN15@process_me

; 1572 : 		{
; 1573 : 			play_client_server_radio_message_affirmative_response (wingman, SPEECH_WINGMAN_ROGER_COMING_TO_ASSIST, 1.0, 8.0);

  004f8	51		 push	 ecx
  004f9	f3 0f 10 05 00
	00 00 00	 movss	 xmm0, DWORD PTR __real@41000000
  00501	f3 0f 11 04 24	 movss	 DWORD PTR [esp], xmm0
  00506	51		 push	 ecx
  00507	f3 0f 10 05 00
	00 00 00	 movss	 xmm0, DWORD PTR __real@3f800000
  0050f	f3 0f 11 04 24	 movss	 DWORD PTR [esp], xmm0
  00514	6a 1d		 push	 29			; 0000001dH
  00516	8b 45 0c	 mov	 eax, DWORD PTR _wingman$[ebp]
  00519	50		 push	 eax
  0051a	e8 00 00 00 00	 call	 ?play_client_server_radio_message_affirmative_response@@YGXPAUENTITY@@HMM@Z ; play_client_server_radio_message_affirmative_response

; 1574 : 
; 1575 : 			//
; 1576 : 			// call to "help me" also cancels "weapons hold"
; 1577 : 			//
; 1578 : 
; 1579 : 			process_message_weapons_hold (en, wingman, FALSE, FALSE);

  0051f	6a 00		 push	 0
  00521	6a 00		 push	 0
  00523	8b 45 0c	 mov	 eax, DWORD PTR _wingman$[ebp]
  00526	50		 push	 eax
  00527	8b 4d 08	 mov	 ecx, DWORD PTR _en$[ebp]
  0052a	51		 push	 ecx
  0052b	e8 00 00 00 00	 call	 ?process_message_weapons_hold@@YGXPAUENTITY@@0HH@Z ; process_message_weapons_hold

; 1580 : 		}
; 1581 : 		else

  00530	eb 27		 jmp	 SHORT $LN16@process_me
$LN15@process_me:

; 1582 : 		{
; 1583 : 			play_client_server_radio_message_negative_response (wingman, SPEECH_WINGMAN_UNABLE_TO_COMPLY, 1.0, 8.0);

  00532	51		 push	 ecx
  00533	f3 0f 10 05 00
	00 00 00	 movss	 xmm0, DWORD PTR __real@41000000
  0053b	f3 0f 11 04 24	 movss	 DWORD PTR [esp], xmm0
  00540	51		 push	 ecx
  00541	f3 0f 10 05 00
	00 00 00	 movss	 xmm0, DWORD PTR __real@3f800000
  00549	f3 0f 11 04 24	 movss	 DWORD PTR [esp], xmm0
  0054e	6a 30		 push	 48			; 00000030H
  00550	8b 45 0c	 mov	 eax, DWORD PTR _wingman$[ebp]
  00553	50		 push	 eax
  00554	e8 00 00 00 00	 call	 ?play_client_server_radio_message_negative_response@@YGXPAUENTITY@@HMM@Z ; play_client_server_radio_message_negative_response
$LN16@process_me:

; 1584 : 		}
; 1585 : 	}
; 1586 : }

  00559	5f		 pop	 edi
  0055a	5e		 pop	 esi
  0055b	5b		 pop	 ebx
  0055c	8b e5		 mov	 esp, ebp
  0055e	5d		 pop	 ebp
  0055f	c2 08 00	 ret	 8
?process_message_help_me@@YGXPAUENTITY@@0@Z ENDP	; process_message_help_me
_TEXT	ENDS
; Function compile flags: /Odtp /ZI
; File c:\users\nhv90\projects\eech\aphavoc\source\misc\msg_in.c
;	COMDAT ?process_message_attack_my_target@@YGXPAUENTITY@@0@Z
_TEXT	SEGMENT
tv193 = -88						; size = 4
tv165 = -88						; size = 4
tv146 = -88						; size = 4
tv93 = -88						; size = 4
tv185 = -84						; size = 4
tv177 = -84						; size = 4
tv158 = -84						; size = 4
tv138 = -84						; size = 4
tv85 = -84						; size = 4
_member_number$ = -16					; size = 4
_valid_members$ = -12					; size = 4
_target$ = -8						; size = 4
_group$ = -4						; size = 4
_en$ = 8						; size = 4
_wingman$ = 12						; size = 4
?process_message_attack_my_target@@YGXPAUENTITY@@0@Z PROC ; process_message_attack_my_target, COMDAT

; 1410 : {

  00000	55		 push	 ebp
  00001	8b ec		 mov	 ebp, esp
  00003	83 ec 58	 sub	 esp, 88			; 00000058H
  00006	53		 push	 ebx
  00007	56		 push	 esi
  00008	57		 push	 edi

; 1411 : 	entity
; 1412 : 		*group,
; 1413 : 		*target;
; 1414 : 
; 1415 : 	unsigned int
; 1416 : 		valid_members,
; 1417 : 		member_number;
; 1418 : 
; 1419 : 	ASSERT (en);

  00009	83 7d 08 00	 cmp	 DWORD PTR _en$[ebp], 0
  0000d	75 18		 jne	 SHORT $LN2@process_me
  0000f	a1 00 00 00 00	 mov	 eax, DWORD PTR ?__LINE__Var@?0??process_message_attack_my_target@@YGXPAUENTITY@@0@Z@4JA
  00014	83 c0 09	 add	 eax, 9
  00017	50		 push	 eax
  00018	68 00 00 00 00	 push	 OFFSET ??_C@_0DK@BLKECLAG@c?3?2users?2nhv90?2projects?2eech?2ap@
  0001d	68 00 00 00 00	 push	 OFFSET ??_C@_02LFNMGJAP@en@
  00022	e8 00 00 00 00	 call	 ?process_assert@@YGXPBD0H@Z ; process_assert
$LN2@process_me:

; 1420 : 
; 1421 : 	ASSERT (wingman);

  00027	83 7d 0c 00	 cmp	 DWORD PTR _wingman$[ebp], 0
  0002b	75 18		 jne	 SHORT $LN3@process_me
  0002d	a1 00 00 00 00	 mov	 eax, DWORD PTR ?__LINE__Var@?0??process_message_attack_my_target@@YGXPAUENTITY@@0@Z@4JA
  00032	83 c0 0b	 add	 eax, 11			; 0000000bH
  00035	50		 push	 eax
  00036	68 00 00 00 00	 push	 OFFSET ??_C@_0DK@BLKECLAG@c?3?2users?2nhv90?2projects?2eech?2ap@
  0003b	68 00 00 00 00	 push	 OFFSET ??_C@_07EAKNLMLO@wingman@
  00040	e8 00 00 00 00	 call	 ?process_assert@@YGXPBD0H@Z ; process_assert
$LN3@process_me:

; 1422 : 
; 1423 : 	ASSERT (get_comms_model () == COMMS_MODEL_SERVER);

  00045	83 3d 00 00 00
	00 00		 cmp	 DWORD PTR ?system_comms_model@@3W4COMMS_MODEL_TYPES@@A, 0 ; system_comms_model
  0004c	74 18		 je	 SHORT $LN4@process_me
  0004e	a1 00 00 00 00	 mov	 eax, DWORD PTR ?__LINE__Var@?0??process_message_attack_my_target@@YGXPAUENTITY@@0@Z@4JA
  00053	83 c0 0d	 add	 eax, 13			; 0000000dH
  00056	50		 push	 eax
  00057	68 00 00 00 00	 push	 OFFSET ??_C@_0DK@BLKECLAG@c?3?2users?2nhv90?2projects?2eech?2ap@
  0005c	68 00 00 00 00	 push	 OFFSET ??_C@_0CJ@DMBLBJBK@get_comms_model?5?$CI?$CJ?5?$DN?$DN?5COMMS_MOD@
  00061	e8 00 00 00 00	 call	 ?process_assert@@YGXPBD0H@Z ; process_assert
$LN4@process_me:

; 1424 : 
; 1425 : 	target = get_local_entity_parent (en, LIST_TYPE_TARGET);

  00066	83 7d 08 00	 cmp	 DWORD PTR _en$[ebp], 0
  0006a	74 0a		 je	 SHORT $LN11@process_me
  0006c	8b 45 08	 mov	 eax, DWORD PTR _en$[ebp]
  0006f	8b 08		 mov	 ecx, DWORD PTR [eax]
  00071	89 4d ac	 mov	 DWORD PTR tv85[ebp], ecx
  00074	eb 21		 jmp	 SHORT $LN12@process_me
$LN11@process_me:
  00076	8b 15 00 00 00
	00		 mov	 edx, DWORD PTR ?__LINE__Var@?0??process_message_attack_my_target@@YGXPAUENTITY@@0@Z@4JA
  0007c	83 c2 0f	 add	 edx, 15			; 0000000fH
  0007f	52		 push	 edx
  00080	68 00 00 00 00	 push	 OFFSET ??_C@_0DK@BLKECLAG@c?3?2users?2nhv90?2projects?2eech?2ap@
  00085	a1 00 00 00 00	 mov	 eax, DWORD PTR ?null_entity_pointer_message@@3PBDB ; null_entity_pointer_message
  0008a	50		 push	 eax
  0008b	e8 00 00 00 00	 call	 ?process_assert@@YGXPBD0H@Z ; process_assert
  00090	c7 45 ac 00 00
	00 00		 mov	 DWORD PTR tv85[ebp], 0
$LN12@process_me:
  00097	b9 01 00 00 00	 mov	 ecx, 1
  0009c	85 c9		 test	 ecx, ecx
  0009e	74 09		 je	 SHORT $LN13@process_me
  000a0	c7 45 a8 26 00
	00 00		 mov	 DWORD PTR tv93[ebp], 38	; 00000026H
  000a7	eb 21		 jmp	 SHORT $LN14@process_me
$LN13@process_me:
  000a9	8b 15 00 00 00
	00		 mov	 edx, DWORD PTR ?__LINE__Var@?0??process_message_attack_my_target@@YGXPAUENTITY@@0@Z@4JA
  000af	83 c2 0f	 add	 edx, 15			; 0000000fH
  000b2	52		 push	 edx
  000b3	68 00 00 00 00	 push	 OFFSET ??_C@_0DK@BLKECLAG@c?3?2users?2nhv90?2projects?2eech?2ap@
  000b8	a1 00 00 00 00	 mov	 eax, DWORD PTR ?overload_invalid_list_type_message@@3PBDB ; overload_invalid_list_type_message
  000bd	50		 push	 eax
  000be	e8 00 00 00 00	 call	 ?process_assert@@YGXPBD0H@Z ; process_assert
  000c3	c7 45 a8 00 00
	00 00		 mov	 DWORD PTR tv93[ebp], 0
$LN14@process_me:
  000ca	6a 26		 push	 38			; 00000026H
  000cc	8b 4d 08	 mov	 ecx, DWORD PTR _en$[ebp]
  000cf	51		 push	 ecx
  000d0	69 55 ac b4 00
	00 00		 imul	 edx, DWORD PTR tv85[ebp], 180
  000d7	8b 45 a8	 mov	 eax, DWORD PTR tv93[ebp]
  000da	8b 8c 82 00 00
	00 00		 mov	 ecx, DWORD PTR ?fn_get_local_entity_parent@@3PAY0CN@P6GPAUENTITY@@PAU1@W4LIST_TYPES@@@ZA[edx+eax*4]
  000e1	ff d1		 call	 ecx
  000e3	89 45 f8	 mov	 DWORD PTR _target$[ebp], eax

; 1426 : 
; 1427 : 	if (target)

  000e6	83 7d f8 00	 cmp	 DWORD PTR _target$[ebp], 0
  000ea	0f 84 20 02 00
	00		 je	 $LN7@process_me

; 1428 : 	{
; 1429 : 		group = get_local_entity_parent (en, LIST_TYPE_MEMBER);

  000f0	83 7d 08 00	 cmp	 DWORD PTR _en$[ebp], 0
  000f4	74 0a		 je	 SHORT $LN15@process_me
  000f6	8b 45 08	 mov	 eax, DWORD PTR _en$[ebp]
  000f9	8b 08		 mov	 ecx, DWORD PTR [eax]
  000fb	89 4d ac	 mov	 DWORD PTR tv138[ebp], ecx
  000fe	eb 21		 jmp	 SHORT $LN16@process_me
$LN15@process_me:
  00100	8b 15 00 00 00
	00		 mov	 edx, DWORD PTR ?__LINE__Var@?0??process_message_attack_my_target@@YGXPAUENTITY@@0@Z@4JA
  00106	83 c2 13	 add	 edx, 19			; 00000013H
  00109	52		 push	 edx
  0010a	68 00 00 00 00	 push	 OFFSET ??_C@_0DK@BLKECLAG@c?3?2users?2nhv90?2projects?2eech?2ap@
  0010f	a1 00 00 00 00	 mov	 eax, DWORD PTR ?null_entity_pointer_message@@3PBDB ; null_entity_pointer_message
  00114	50		 push	 eax
  00115	e8 00 00 00 00	 call	 ?process_assert@@YGXPBD0H@Z ; process_assert
  0011a	c7 45 ac 00 00
	00 00		 mov	 DWORD PTR tv138[ebp], 0
$LN16@process_me:
  00121	b9 01 00 00 00	 mov	 ecx, 1
  00126	85 c9		 test	 ecx, ecx
  00128	74 09		 je	 SHORT $LN17@process_me
  0012a	c7 45 a8 19 00
	00 00		 mov	 DWORD PTR tv146[ebp], 25 ; 00000019H
  00131	eb 21		 jmp	 SHORT $LN18@process_me
$LN17@process_me:
  00133	8b 15 00 00 00
	00		 mov	 edx, DWORD PTR ?__LINE__Var@?0??process_message_attack_my_target@@YGXPAUENTITY@@0@Z@4JA
  00139	83 c2 13	 add	 edx, 19			; 00000013H
  0013c	52		 push	 edx
  0013d	68 00 00 00 00	 push	 OFFSET ??_C@_0DK@BLKECLAG@c?3?2users?2nhv90?2projects?2eech?2ap@
  00142	a1 00 00 00 00	 mov	 eax, DWORD PTR ?overload_invalid_list_type_message@@3PBDB ; overload_invalid_list_type_message
  00147	50		 push	 eax
  00148	e8 00 00 00 00	 call	 ?process_assert@@YGXPBD0H@Z ; process_assert
  0014d	c7 45 a8 00 00
	00 00		 mov	 DWORD PTR tv146[ebp], 0
$LN18@process_me:
  00154	6a 19		 push	 25			; 00000019H
  00156	8b 4d 08	 mov	 ecx, DWORD PTR _en$[ebp]
  00159	51		 push	 ecx
  0015a	69 55 ac b4 00
	00 00		 imul	 edx, DWORD PTR tv138[ebp], 180
  00161	8b 45 a8	 mov	 eax, DWORD PTR tv146[ebp]
  00164	8b 8c 82 00 00
	00 00		 mov	 ecx, DWORD PTR ?fn_get_local_entity_parent@@3PAY0CN@P6GPAUENTITY@@PAU1@W4LIST_TYPES@@@ZA[edx+eax*4]
  0016b	ff d1		 call	 ecx
  0016d	89 45 fc	 mov	 DWORD PTR _group$[ebp], eax

; 1430 : 
; 1431 : 		if (group)

  00170	83 7d fc 00	 cmp	 DWORD PTR _group$[ebp], 0
  00174	0f 84 96 01 00
	00		 je	 $LN7@process_me

; 1432 : 		{
; 1433 : 			if (get_local_entity_int_value (group, INT_TYPE_ENGAGE_ENEMY))

  0017a	83 7d fc 00	 cmp	 DWORD PTR _group$[ebp], 0
  0017e	74 0a		 je	 SHORT $LN19@process_me
  00180	8b 45 fc	 mov	 eax, DWORD PTR _group$[ebp]
  00183	8b 08		 mov	 ecx, DWORD PTR [eax]
  00185	89 4d ac	 mov	 DWORD PTR tv158[ebp], ecx
  00188	eb 1d		 jmp	 SHORT $LN20@process_me
$LN19@process_me:
  0018a	68 99 05 00 00	 push	 1433			; 00000599H
  0018f	68 00 00 00 00	 push	 OFFSET ??_C@_0DK@BLKECLAG@c?3?2users?2nhv90?2projects?2eech?2ap@
  00194	8b 15 00 00 00
	00		 mov	 edx, DWORD PTR ?null_entity_pointer_message@@3PBDB ; null_entity_pointer_message
  0019a	52		 push	 edx
  0019b	e8 00 00 00 00	 call	 ?process_assert@@YGXPBD0H@Z ; process_assert
  001a0	c7 45 ac 00 00
	00 00		 mov	 DWORD PTR tv158[ebp], 0
$LN20@process_me:
  001a7	b8 01 00 00 00	 mov	 eax, 1
  001ac	85 c0		 test	 eax, eax
  001ae	74 09		 je	 SHORT $LN21@process_me
  001b0	c7 45 a8 33 00
	00 00		 mov	 DWORD PTR tv165[ebp], 51 ; 00000033H
  001b7	eb 1d		 jmp	 SHORT $LN22@process_me
$LN21@process_me:
  001b9	68 99 05 00 00	 push	 1433			; 00000599H
  001be	68 00 00 00 00	 push	 OFFSET ??_C@_0DK@BLKECLAG@c?3?2users?2nhv90?2projects?2eech?2ap@
  001c3	8b 0d 00 00 00
	00		 mov	 ecx, DWORD PTR ?overload_invalid_int_type_message@@3PBDB ; overload_invalid_int_type_message
  001c9	51		 push	 ecx
  001ca	e8 00 00 00 00	 call	 ?process_assert@@YGXPBD0H@Z ; process_assert
  001cf	c7 45 a8 00 00
	00 00		 mov	 DWORD PTR tv165[ebp], 0
$LN22@process_me:
  001d6	6a 33		 push	 51			; 00000033H
  001d8	8b 55 fc	 mov	 edx, DWORD PTR _group$[ebp]
  001db	52		 push	 edx
  001dc	69 45 ac 5c 04
	00 00		 imul	 eax, DWORD PTR tv158[ebp], 1116
  001e3	8b 4d a8	 mov	 ecx, DWORD PTR tv165[ebp]
  001e6	8b 94 88 00 00
	00 00		 mov	 edx, DWORD PTR ?fn_get_local_entity_int_value@@3PAY0BBH@P6GHPAUENTITY@@W4INT_TYPES@@@ZA[eax+ecx*4]
  001ed	ff d2		 call	 edx
  001ef	85 c0		 test	 eax, eax
  001f1	0f 84 19 01 00
	00		 je	 $LN7@process_me

; 1434 : 			{
; 1435 : //				if (get_local_entity_int_value (target, INT_TYPE_SIDE) != get_local_entity_int_value (group, INT_TYPE_SIDE))
; 1436 : 				{
; 1437 : 					if (get_local_entity_type (wingman) == ENTITY_TYPE_GROUP)

  001f7	83 7d 0c 00	 cmp	 DWORD PTR _wingman$[ebp], 0
  001fb	74 0a		 je	 SHORT $LN23@process_me
  001fd	8b 45 0c	 mov	 eax, DWORD PTR _wingman$[ebp]
  00200	8b 08		 mov	 ecx, DWORD PTR [eax]
  00202	89 4d ac	 mov	 DWORD PTR tv177[ebp], ecx
  00205	eb 1d		 jmp	 SHORT $LN24@process_me
$LN23@process_me:
  00207	68 9d 05 00 00	 push	 1437			; 0000059dH
  0020c	68 00 00 00 00	 push	 OFFSET ??_C@_0DK@BLKECLAG@c?3?2users?2nhv90?2projects?2eech?2ap@
  00211	8b 15 00 00 00
	00		 mov	 edx, DWORD PTR ?null_entity_pointer_message@@3PBDB ; null_entity_pointer_message
  00217	52		 push	 edx
  00218	e8 00 00 00 00	 call	 ?process_assert@@YGXPBD0H@Z ; process_assert
  0021d	c7 45 ac 00 00
	00 00		 mov	 DWORD PTR tv177[ebp], 0
$LN24@process_me:
  00224	83 7d ac 0c	 cmp	 DWORD PTR tv177[ebp], 12 ; 0000000cH
  00228	75 0c		 jne	 SHORT $LN8@process_me

; 1438 : 					{
; 1439 : 						valid_members = TASK_ASSIGN_ALL_MEMBERS;

  0022a	c7 45 f4 ff ff
	ff ff		 mov	 DWORD PTR _valid_members$[ebp], -1

; 1440 : 					}
; 1441 : 					else

  00231	e9 8d 00 00 00	 jmp	 $LN9@process_me
$LN8@process_me:

; 1442 : 					{
; 1443 : 						member_number = get_local_entity_int_value (wingman, INT_TYPE_GROUP_MEMBER_NUMBER);

  00236	83 7d 0c 00	 cmp	 DWORD PTR _wingman$[ebp], 0
  0023a	74 0a		 je	 SHORT $LN25@process_me
  0023c	8b 45 0c	 mov	 eax, DWORD PTR _wingman$[ebp]
  0023f	8b 08		 mov	 ecx, DWORD PTR [eax]
  00241	89 4d ac	 mov	 DWORD PTR tv185[ebp], ecx
  00244	eb 21		 jmp	 SHORT $LN26@process_me
$LN25@process_me:
  00246	8b 15 00 00 00
	00		 mov	 edx, DWORD PTR ?__LINE__Var@?0??process_message_attack_my_target@@YGXPAUENTITY@@0@Z@4JA
  0024c	83 c2 21	 add	 edx, 33			; 00000021H
  0024f	52		 push	 edx
  00250	68 00 00 00 00	 push	 OFFSET ??_C@_0DK@BLKECLAG@c?3?2users?2nhv90?2projects?2eech?2ap@
  00255	a1 00 00 00 00	 mov	 eax, DWORD PTR ?null_entity_pointer_message@@3PBDB ; null_entity_pointer_message
  0025a	50		 push	 eax
  0025b	e8 00 00 00 00	 call	 ?process_assert@@YGXPBD0H@Z ; process_assert
  00260	c7 45 ac 00 00
	00 00		 mov	 DWORD PTR tv185[ebp], 0
$LN26@process_me:
  00267	b9 01 00 00 00	 mov	 ecx, 1
  0026c	85 c9		 test	 ecx, ecx
  0026e	74 09		 je	 SHORT $LN27@process_me
  00270	c7 45 a8 4b 00
	00 00		 mov	 DWORD PTR tv193[ebp], 75 ; 0000004bH
  00277	eb 21		 jmp	 SHORT $LN28@process_me
$LN27@process_me:
  00279	8b 15 00 00 00
	00		 mov	 edx, DWORD PTR ?__LINE__Var@?0??process_message_attack_my_target@@YGXPAUENTITY@@0@Z@4JA
  0027f	83 c2 21	 add	 edx, 33			; 00000021H
  00282	52		 push	 edx
  00283	68 00 00 00 00	 push	 OFFSET ??_C@_0DK@BLKECLAG@c?3?2users?2nhv90?2projects?2eech?2ap@
  00288	a1 00 00 00 00	 mov	 eax, DWORD PTR ?overload_invalid_int_type_message@@3PBDB ; overload_invalid_int_type_message
  0028d	50		 push	 eax
  0028e	e8 00 00 00 00	 call	 ?process_assert@@YGXPBD0H@Z ; process_assert
  00293	c7 45 a8 00 00
	00 00		 mov	 DWORD PTR tv193[ebp], 0
$LN28@process_me:
  0029a	6a 4b		 push	 75			; 0000004bH
  0029c	8b 4d 0c	 mov	 ecx, DWORD PTR _wingman$[ebp]
  0029f	51		 push	 ecx
  002a0	69 55 ac 5c 04
	00 00		 imul	 edx, DWORD PTR tv185[ebp], 1116
  002a7	8b 45 a8	 mov	 eax, DWORD PTR tv193[ebp]
  002aa	8b 8c 82 00 00
	00 00		 mov	 ecx, DWORD PTR ?fn_get_local_entity_int_value@@3PAY0BBH@P6GHPAUENTITY@@W4INT_TYPES@@@ZA[edx+eax*4]
  002b1	ff d1		 call	 ecx
  002b3	89 45 f0	 mov	 DWORD PTR _member_number$[ebp], eax

; 1444 : 
; 1445 : 						valid_members = (1 << member_number);

  002b6	b8 01 00 00 00	 mov	 eax, 1
  002bb	8b 4d f0	 mov	 ecx, DWORD PTR _member_number$[ebp]
  002be	d3 e0		 shl	 eax, cl
  002c0	89 45 f4	 mov	 DWORD PTR _valid_members$[ebp], eax
$LN9@process_me:

; 1446 : 					}
; 1447 : 
; 1448 : 					//
; 1449 : 					// call to "attack my target" also cancels "weapons hold"
; 1450 : 					//
; 1451 : 
; 1452 : 					process_message_weapons_hold (en, wingman, FALSE, FALSE);

  002c3	6a 00		 push	 0
  002c5	6a 00		 push	 0
  002c7	8b 45 0c	 mov	 eax, DWORD PTR _wingman$[ebp]
  002ca	50		 push	 eax
  002cb	8b 4d 08	 mov	 ecx, DWORD PTR _en$[ebp]
  002ce	51		 push	 ecx
  002cf	e8 00 00 00 00	 call	 ?process_message_weapons_hold@@YGXPAUENTITY@@0HH@Z ; process_message_weapons_hold

; 1453 : 
; 1454 : 					//
; 1455 : 					// Engage
; 1456 : 					//
; 1457 : 
; 1458 : 					engage_specific_target (group, target, valid_members, TRUE);

  002d4	6a 01		 push	 1
  002d6	8b 45 f4	 mov	 eax, DWORD PTR _valid_members$[ebp]
  002d9	50		 push	 eax
  002da	8b 4d f8	 mov	 ecx, DWORD PTR _target$[ebp]
  002dd	51		 push	 ecx
  002de	8b 55 fc	 mov	 edx, DWORD PTR _group$[ebp]
  002e1	52		 push	 edx
  002e2	e8 00 00 00 00	 call	 ?engage_specific_target@@YGHPAUENTITY@@0IH@Z ; engage_specific_target

; 1459 : 
; 1460 : 					play_client_server_radio_message_affirmative_response (wingman, SPEECH_WINGMAN_ROGER_ENGAGING_TARGET, 1.0, 10.0);

  002e7	51		 push	 ecx
  002e8	f3 0f 10 05 00
	00 00 00	 movss	 xmm0, DWORD PTR __real@41200000
  002f0	f3 0f 11 04 24	 movss	 DWORD PTR [esp], xmm0
  002f5	51		 push	 ecx
  002f6	f3 0f 10 05 00
	00 00 00	 movss	 xmm0, DWORD PTR __real@3f800000
  002fe	f3 0f 11 04 24	 movss	 DWORD PTR [esp], xmm0
  00303	6a 1c		 push	 28			; 0000001cH
  00305	8b 45 0c	 mov	 eax, DWORD PTR _wingman$[ebp]
  00308	50		 push	 eax
  00309	e8 00 00 00 00	 call	 ?play_client_server_radio_message_affirmative_response@@YGXPAUENTITY@@HMM@Z ; play_client_server_radio_message_affirmative_response

; 1461 : 
; 1462 : 					return;

  0030e	eb 27		 jmp	 SHORT $LN1@process_me
$LN7@process_me:

; 1463 : 				}
; 1464 : 			}
; 1465 : 		}
; 1466 : 	}
; 1467 : 
; 1468 : 	play_client_server_radio_message_negative_response (wingman, SPEECH_WINGMAN_UNABLE_TO_COMPLY, 1.0, 10.0);

  00310	51		 push	 ecx
  00311	f3 0f 10 05 00
	00 00 00	 movss	 xmm0, DWORD PTR __real@41200000
  00319	f3 0f 11 04 24	 movss	 DWORD PTR [esp], xmm0
  0031e	51		 push	 ecx
  0031f	f3 0f 10 05 00
	00 00 00	 movss	 xmm0, DWORD PTR __real@3f800000
  00327	f3 0f 11 04 24	 movss	 DWORD PTR [esp], xmm0
  0032c	6a 30		 push	 48			; 00000030H
  0032e	8b 45 0c	 mov	 eax, DWORD PTR _wingman$[ebp]
  00331	50		 push	 eax
  00332	e8 00 00 00 00	 call	 ?play_client_server_radio_message_negative_response@@YGXPAUENTITY@@HMM@Z ; play_client_server_radio_message_negative_response
$LN1@process_me:

; 1469 : }

  00337	5f		 pop	 edi
  00338	5e		 pop	 esi
  00339	5b		 pop	 ebx
  0033a	8b e5		 mov	 esp, ebp
  0033c	5d		 pop	 ebp
  0033d	c2 08 00	 ret	 8
?process_message_attack_my_target@@YGXPAUENTITY@@0@Z ENDP ; process_message_attack_my_target
_TEXT	ENDS
; Function compile flags: /Odtp /ZI
; File c:\users\nhv90\projects\eech\aphavoc\source\misc\msg_in.c
;	COMDAT ?clear_in_flight_received_message@@YGXXZ
_TEXT	SEGMENT
?clear_in_flight_received_message@@YGXXZ PROC		; clear_in_flight_received_message, COMDAT

; 234  : {

  00000	55		 push	 ebp
  00001	8b ec		 mov	 ebp, esp
  00003	83 ec 40	 sub	 esp, 64			; 00000040H
  00006	53		 push	 ebx
  00007	56		 push	 esi
  00008	57		 push	 edi

; 235  : 	current_message_timer = 0.0;

  00009	0f 57 c0	 xorps	 xmm0, xmm0
  0000c	f3 0f 11 05 00
	00 00 00	 movss	 DWORD PTR ?current_message_timer@@3MA, xmm0

; 236  : 
; 237  : 	current_message = -1;

  00014	c7 05 00 00 00
	00 ff ff ff ff	 mov	 DWORD PTR ?current_message@@3HA, -1

; 238  : }

  0001e	5f		 pop	 edi
  0001f	5e		 pop	 esi
  00020	5b		 pop	 ebx
  00021	8b e5		 mov	 esp, ebp
  00023	5d		 pop	 ebp
  00024	c3		 ret	 0
?clear_in_flight_received_message@@YGXXZ ENDP		; clear_in_flight_received_message
_TEXT	ENDS
; Function compile flags: /Odtp /ZI
; File c:\users\nhv90\projects\eech\aphavoc\source\misc\msg_in.c
;	COMDAT ?unpack_local_message_log@@YGXW4PACK_MODES@@@Z
_TEXT	SEGMENT
tv135 = -84						; size = 4
tv70 = -84						; size = 4
_log$ = -16						; size = 4
_length$ = -12						; size = 4
_index$ = -8						; size = 4
_loop$ = -4						; size = 4
_mode$ = 8						; size = 4
?unpack_local_message_log@@YGXW4PACK_MODES@@@Z PROC	; unpack_local_message_log, COMDAT

; 2553 : {

  00000	55		 push	 ebp
  00001	8b ec		 mov	 ebp, esp
  00003	83 ec 54	 sub	 esp, 84			; 00000054H
  00006	53		 push	 ebx
  00007	56		 push	 esi
  00008	57		 push	 edi

; 2554 : 	int
; 2555 : 		loop,
; 2556 : 		index,
; 2557 : 		length;
; 2558 : 
; 2559 : 	message_log_type
; 2560 : 		*log;
; 2561 : 
; 2562 : 	static char
; 2563 : 		s [STRING_TYPE_MESSAGE_LENGTH + 4];
; 2564 : 
; 2565 :    ASSERT ((mode >= 0) && (mode < NUM_PACK_MODES));

  00009	83 7d 08 00	 cmp	 DWORD PTR _mode$[ebp], 0
  0000d	7c 06		 jl	 SHORT $LN8@unpack_loc
  0000f	83 7d 08 04	 cmp	 DWORD PTR _mode$[ebp], 4
  00013	7c 18		 jl	 SHORT $LN7@unpack_loc
$LN8@unpack_loc:
  00015	a1 00 00 00 00	 mov	 eax, DWORD PTR ?__LINE__Var@?0??unpack_local_message_log@@YGXW4PACK_MODES@@@Z@4JA
  0001a	83 c0 0c	 add	 eax, 12			; 0000000cH
  0001d	50		 push	 eax
  0001e	68 00 00 00 00	 push	 OFFSET ??_C@_0DK@BLKECLAG@c?3?2users?2nhv90?2projects?2eech?2ap@
  00023	68 00 00 00 00	 push	 OFFSET ??_C@_0CH@MMFDPOBJ@?$CImode?5?$DO?$DN?50?$CJ?5?$CG?$CG?5?$CImode?5?$DM?5NUM_PACK@
  00028	e8 00 00 00 00	 call	 ?process_assert@@YGXPBD0H@Z ; process_assert
$LN7@unpack_loc:

; 2566 : 
; 2567 :    switch (mode)

  0002d	8b 45 08	 mov	 eax, DWORD PTR _mode$[ebp]
  00030	89 45 ac	 mov	 DWORD PTR tv70[ebp], eax
  00033	83 7d ac 00	 cmp	 DWORD PTR tv70[ebp], 0
  00037	0f 8c 40 02 00
	00		 jl	 $LN2@unpack_loc
  0003d	83 7d ac 01	 cmp	 DWORD PTR tv70[ebp], 1
  00041	7e 05		 jle	 SHORT $LN9@unpack_loc
  00043	e9 35 02 00 00	 jmp	 $LN2@unpack_loc
$LN9@unpack_loc:

; 2568 :    {
; 2569 :       ////////////////////////////////////////
; 2570 :       case PACK_MODE_SERVER_SESSION:
; 2571 :       case PACK_MODE_CLIENT_SESSION:
; 2572 :       ////////////////////////////////////////
; 2573 : 		{
; 2574 : 			deinitialise_message_log ();

  00048	e8 00 00 00 00	 call	 ?deinitialise_message_log@@YGXXZ ; deinitialise_message_log

; 2575 : 
; 2576 : 			num_messages = unpack_int_value (NULL, INT_TYPE_VALUE);

  0004d	68 f2 00 00 00	 push	 242			; 000000f2H
  00052	6a 00		 push	 0
  00054	e8 00 00 00 00	 call	 ?unpack_int_value@@YGHPAUENTITY@@W4INT_TYPES@@@Z ; unpack_int_value
  00059	a3 00 00 00 00	 mov	 DWORD PTR ?num_messages@@3HA, eax

; 2577 : 			current_message = unpack_int_value (NULL, INT_TYPE_VALUE);

  0005e	68 f2 00 00 00	 push	 242			; 000000f2H
  00063	6a 00		 push	 0
  00065	e8 00 00 00 00	 call	 ?unpack_int_value@@YGHPAUENTITY@@W4INT_TYPES@@@Z ; unpack_int_value
  0006a	a3 00 00 00 00	 mov	 DWORD PTR ?current_message@@3HA, eax

; 2578 : 
; 2579 : 			if (current_message >= 0)

  0006f	83 3d 00 00 00
	00 00		 cmp	 DWORD PTR ?current_message@@3HA, 0
  00076	7c 0d		 jl	 SHORT $LN10@unpack_loc

; 2580 : 			{
; 2581 : 				current_message = num_messages - 1;

  00078	a1 00 00 00 00	 mov	 eax, DWORD PTR ?num_messages@@3HA
  0007d	83 e8 01	 sub	 eax, 1
  00080	a3 00 00 00 00	 mov	 DWORD PTR ?current_message@@3HA, eax
$LN10@unpack_loc:

; 2582 : 			}
; 2583 : 
; 2584 : 			max_messages = num_messages;

  00085	a1 00 00 00 00	 mov	 eax, DWORD PTR ?num_messages@@3HA
  0008a	a3 00 00 00 00	 mov	 DWORD PTR ?max_messages@@3HA, eax

; 2585 : 
; 2586 : 			if (max_messages > 0)

  0008f	83 3d 00 00 00
	00 00		 cmp	 DWORD PTR ?max_messages@@3HA, 0
  00096	0f 8e b5 01 00
	00		 jle	 $LN11@unpack_loc

; 2587 : 			{
; 2588 : 				debug_log("*** allocating message_log");

  0009c	68 00 00 00 00	 push	 OFFSET ??_C@_0BL@GKCGFGEH@?$CK?$CK?$CK?5allocating?5message_log@
  000a1	e8 00 00 00 00	 call	 ?debug_log@@YAXPBDZZ	; debug_log
  000a6	83 c4 04	 add	 esp, 4

; 2589 : 				message_log = (message_log_type *) malloc_heap_mem (sizeof (message_log_type) * max_messages);

  000a9	a1 00 00 00 00	 mov	 eax, DWORD PTR ?max_messages@@3HA
  000ae	c1 e0 05	 shl	 eax, 5
  000b1	50		 push	 eax
  000b2	e8 00 00 00 00	 call	 ?malloc_heap_memory@@YGPAXI@Z ; malloc_heap_memory
  000b7	a3 00 00 00 00	 mov	 DWORD PTR ?message_log@@3PAUMESSAGE_LOG_TYPE@@A, eax

; 2590 : 
; 2591 : 				for (loop = 0; loop < num_messages; loop ++)

  000bc	c7 45 fc 00 00
	00 00		 mov	 DWORD PTR _loop$[ebp], 0
  000c3	eb 09		 jmp	 SHORT $LN6@unpack_loc
$LN4@unpack_loc:
  000c5	8b 45 fc	 mov	 eax, DWORD PTR _loop$[ebp]
  000c8	83 c0 01	 add	 eax, 1
  000cb	89 45 fc	 mov	 DWORD PTR _loop$[ebp], eax
$LN6@unpack_loc:
  000ce	8b 45 fc	 mov	 eax, DWORD PTR _loop$[ebp]
  000d1	3b 05 00 00 00
	00		 cmp	 eax, DWORD PTR ?num_messages@@3HA
  000d7	0f 8d 72 01 00
	00		 jge	 $LN5@unpack_loc

; 2592 : 				{
; 2593 : 					index = (num_messages - loop) - 1;

  000dd	a1 00 00 00 00	 mov	 eax, DWORD PTR ?num_messages@@3HA
  000e2	2b 45 fc	 sub	 eax, DWORD PTR _loop$[ebp]
  000e5	83 e8 01	 sub	 eax, 1
  000e8	89 45 f8	 mov	 DWORD PTR _index$[ebp], eax

; 2594 : 
; 2595 : 					log = &message_log [index];

  000eb	8b 45 f8	 mov	 eax, DWORD PTR _index$[ebp]
  000ee	c1 e0 05	 shl	 eax, 5
  000f1	03 05 00 00 00
	00		 add	 eax, DWORD PTR ?message_log@@3PAUMESSAGE_LOG_TYPE@@A
  000f7	89 45 f0	 mov	 DWORD PTR _log$[ebp], eax

; 2596 : 
; 2597 : 					ASSERT (log);

  000fa	75 18		 jne	 SHORT $LN13@unpack_loc
  000fc	a1 00 00 00 00	 mov	 eax, DWORD PTR ?__LINE__Var@?0??unpack_local_message_log@@YGXW4PACK_MODES@@@Z@4JA
  00101	83 c0 2c	 add	 eax, 44			; 0000002cH
  00104	50		 push	 eax
  00105	68 00 00 00 00	 push	 OFFSET ??_C@_0DK@BLKECLAG@c?3?2users?2nhv90?2projects?2eech?2ap@
  0010a	68 00 00 00 00	 push	 OFFSET ??_C@_03MGHMBJCF@log@
  0010f	e8 00 00 00 00	 call	 ?process_assert@@YGXPBD0H@Z ; process_assert
$LN13@unpack_loc:

; 2598 : 
; 2599 : 					log->type = (message_text_types) unpack_int_value (NULL, INT_TYPE_VALUE);

  00114	68 f2 00 00 00	 push	 242			; 000000f2H
  00119	6a 00		 push	 0
  0011b	e8 00 00 00 00	 call	 ?unpack_int_value@@YGHPAUENTITY@@W4INT_TYPES@@@Z ; unpack_int_value
  00120	8b 4d f0	 mov	 ecx, DWORD PTR _log$[ebp]
  00123	89 01		 mov	 DWORD PTR [ecx], eax

; 2600 : 
; 2601 : 					log->day = unpack_int_value (NULL, INT_TYPE_DAY);

  00125	6a 26		 push	 38			; 00000026H
  00127	6a 00		 push	 0
  00129	e8 00 00 00 00	 call	 ?unpack_int_value@@YGHPAUENTITY@@W4INT_TYPES@@@Z ; unpack_int_value
  0012e	89 45 ac	 mov	 DWORD PTR tv135[ebp], eax
  00131	8b 45 ac	 mov	 eax, DWORD PTR tv135[ebp]
  00134	25 ff ff 00 00	 and	 eax, 65535		; 0000ffffH
  00139	8b 4d f0	 mov	 ecx, DWORD PTR _log$[ebp]
  0013c	8b 51 04	 mov	 edx, DWORD PTR [ecx+4]
  0013f	81 e2 00 00 ff
	ff		 and	 edx, -65536		; ffff0000H
  00145	0b d0		 or	 edx, eax
  00147	8b 45 f0	 mov	 eax, DWORD PTR _log$[ebp]
  0014a	89 50 04	 mov	 DWORD PTR [eax+4], edx

; 2602 : 
; 2603 : 					log->time_of_day = unpack_float_value (NULL, FLOAT_TYPE_TIME_OF_DAY);

  0014d	68 8e 00 00 00	 push	 142			; 0000008eH
  00152	6a 00		 push	 0
  00154	e8 00 00 00 00	 call	 ?unpack_float_value@@YGMPAUENTITY@@W4FLOAT_TYPES@@@Z ; unpack_float_value
  00159	8b 45 f0	 mov	 eax, DWORD PTR _log$[ebp]
  0015c	d9 58 08	 fstp	 DWORD PTR [eax+8]

; 2604 : 
; 2605 : 					if (unpack_int_value (NULL, INT_TYPE_VALID))

  0015f	68 ef 00 00 00	 push	 239			; 000000efH
  00164	6a 00		 push	 0
  00166	e8 00 00 00 00	 call	 ?unpack_int_value@@YGHPAUENTITY@@W4INT_TYPES@@@Z ; unpack_int_value
  0016b	85 c0		 test	 eax, eax
  0016d	74 12		 je	 SHORT $LN14@unpack_loc

; 2606 : 					{
; 2607 : 						unpack_vec3d (NULL, VEC3D_TYPE_POSITION, &(log->position));

  0016f	8b 45 f0	 mov	 eax, DWORD PTR _log$[ebp]
  00172	83 c0 0c	 add	 eax, 12			; 0000000cH
  00175	50		 push	 eax
  00176	6a 08		 push	 8
  00178	6a 00		 push	 0
  0017a	e8 00 00 00 00	 call	 ?unpack_vec3d@@YGXPAUENTITY@@W4VEC3D_TYPES@@PAUVEC3D@@@Z ; unpack_vec3d

; 2608 : 					}
; 2609 : 					else

  0017f	eb 30		 jmp	 SHORT $LN15@unpack_loc
$LN14@unpack_loc:

; 2610 : 					{
; 2611 : 						log->position.x = -1;

  00181	8b 45 f0	 mov	 eax, DWORD PTR _log$[ebp]
  00184	f3 0f 10 05 00
	00 00 00	 movss	 xmm0, DWORD PTR __real@bf800000
  0018c	f3 0f 11 40 0c	 movss	 DWORD PTR [eax+12], xmm0

; 2612 : 						log->position.y = -1;

  00191	8b 45 f0	 mov	 eax, DWORD PTR _log$[ebp]
  00194	f3 0f 10 05 00
	00 00 00	 movss	 xmm0, DWORD PTR __real@bf800000
  0019c	f3 0f 11 40 10	 movss	 DWORD PTR [eax+16], xmm0

; 2613 : 						log->position.z = -1;

  001a1	8b 45 f0	 mov	 eax, DWORD PTR _log$[ebp]
  001a4	f3 0f 10 05 00
	00 00 00	 movss	 xmm0, DWORD PTR __real@bf800000
  001ac	f3 0f 11 40 14	 movss	 DWORD PTR [eax+20], xmm0
$LN15@unpack_loc:

; 2614 : 					}
; 2615 : 
; 2616 : 					log->colour.r = unpack_int_value (NULL, INT_TYPE_COLOUR_RED);

  001b1	6a 20		 push	 32			; 00000020H
  001b3	6a 00		 push	 0
  001b5	e8 00 00 00 00	 call	 ?unpack_int_value@@YGHPAUENTITY@@W4INT_TYPES@@@Z ; unpack_int_value
  001ba	8b 4d f0	 mov	 ecx, DWORD PTR _log$[ebp]
  001bd	88 41 1a	 mov	 BYTE PTR [ecx+26], al

; 2617 : 					log->colour.g = unpack_int_value (NULL, INT_TYPE_COLOUR_GREEN);

  001c0	6a 1f		 push	 31			; 0000001fH
  001c2	6a 00		 push	 0
  001c4	e8 00 00 00 00	 call	 ?unpack_int_value@@YGHPAUENTITY@@W4INT_TYPES@@@Z ; unpack_int_value
  001c9	8b 4d f0	 mov	 ecx, DWORD PTR _log$[ebp]
  001cc	88 41 19	 mov	 BYTE PTR [ecx+25], al

; 2618 : 					log->colour.b = unpack_int_value (NULL, INT_TYPE_COLOUR_BLUE);

  001cf	6a 1e		 push	 30			; 0000001eH
  001d1	6a 00		 push	 0
  001d3	e8 00 00 00 00	 call	 ?unpack_int_value@@YGHPAUENTITY@@W4INT_TYPES@@@Z ; unpack_int_value
  001d8	8b 4d f0	 mov	 ecx, DWORD PTR _log$[ebp]
  001db	88 41 18	 mov	 BYTE PTR [ecx+24], al

; 2619 : 					log->colour.a = 255;

  001de	8b 45 f0	 mov	 eax, DWORD PTR _log$[ebp]
  001e1	c6 40 1b ff	 mov	 BYTE PTR [eax+27], 255	; 000000ffH

; 2620 : 
; 2621 : 					unpack_string (NULL, STRING_TYPE_PILOT_MESSAGE, s);

  001e5	68 00 00 00 00	 push	 OFFSET ?s@?1??unpack_local_message_log@@YGXW4PACK_MODES@@@Z@4PADA
  001ea	6a 09		 push	 9
  001ec	6a 00		 push	 0
  001ee	e8 00 00 00 00	 call	 ?unpack_string@@YGXPAUENTITY@@W4STRING_TYPES@@PAD@Z ; unpack_string

; 2622 : 
; 2623 : 					length = strlen (s);

  001f3	68 00 00 00 00	 push	 OFFSET ?s@?1??unpack_local_message_log@@YGXW4PACK_MODES@@@Z@4PADA
  001f8	e8 00 00 00 00	 call	 _strlen
  001fd	83 c4 04	 add	 esp, 4
  00200	89 45 f4	 mov	 DWORD PTR _length$[ebp], eax

; 2624 : 
; 2625 : 					ASSERT (length <= STRING_TYPE_MESSAGE_LENGTH);

  00203	81 7d f4 a0 00
	00 00		 cmp	 DWORD PTR _length$[ebp], 160 ; 000000a0H
  0020a	7e 18		 jle	 SHORT $LN16@unpack_loc
  0020c	a1 00 00 00 00	 mov	 eax, DWORD PTR ?__LINE__Var@?0??unpack_local_message_log@@YGXW4PACK_MODES@@@Z@4JA
  00211	83 c0 48	 add	 eax, 72			; 00000048H
  00214	50		 push	 eax
  00215	68 00 00 00 00	 push	 OFFSET ??_C@_0DK@BLKECLAG@c?3?2users?2nhv90?2projects?2eech?2ap@
  0021a	68 00 00 00 00	 push	 OFFSET ??_C@_0CF@FKPCMIAD@length?5?$DM?$DN?5STRING_TYPE_MESSAGE_L@
  0021f	e8 00 00 00 00	 call	 ?process_assert@@YGXPBD0H@Z ; process_assert
$LN16@unpack_loc:

; 2626 : 
; 2627 : 					log->string = (char *) malloc_heap_mem (length + 4);

  00224	8b 45 f4	 mov	 eax, DWORD PTR _length$[ebp]
  00227	83 c0 04	 add	 eax, 4
  0022a	50		 push	 eax
  0022b	e8 00 00 00 00	 call	 ?malloc_heap_memory@@YGPAXI@Z ; malloc_heap_memory
  00230	8b 4d f0	 mov	 ecx, DWORD PTR _log$[ebp]
  00233	89 41 1c	 mov	 DWORD PTR [ecx+28], eax

; 2628 : 
; 2629 : 					strcpy (log->string, s);

  00236	68 00 00 00 00	 push	 OFFSET ?s@?1??unpack_local_message_log@@YGXW4PACK_MODES@@@Z@4PADA
  0023b	8b 45 f0	 mov	 eax, DWORD PTR _log$[ebp]
  0023e	8b 48 1c	 mov	 ecx, DWORD PTR [eax+28]
  00241	51		 push	 ecx
  00242	e8 00 00 00 00	 call	 _strcpy
  00247	83 c4 08	 add	 esp, 8

; 2630 : 				}

  0024a	e9 76 fe ff ff	 jmp	 $LN4@unpack_loc
$LN5@unpack_loc:

; 2631 : 			}
; 2632 : 			else

  0024f	eb 21		 jmp	 SHORT $LN17@unpack_loc
$LN11@unpack_loc:

; 2633 : 			{
; 2634 : 				ASSERT (num_messages == 0);

  00251	83 3d 00 00 00
	00 00		 cmp	 DWORD PTR ?num_messages@@3HA, 0
  00258	74 18		 je	 SHORT $LN17@unpack_loc
  0025a	a1 00 00 00 00	 mov	 eax, DWORD PTR ?__LINE__Var@?0??unpack_local_message_log@@YGXW4PACK_MODES@@@Z@4JA
  0025f	83 c0 51	 add	 eax, 81			; 00000051H
  00262	50		 push	 eax
  00263	68 00 00 00 00	 push	 OFFSET ??_C@_0DK@BLKECLAG@c?3?2users?2nhv90?2projects?2eech?2ap@
  00268	68 00 00 00 00	 push	 OFFSET ??_C@_0BC@PIBGBPAI@num_messages?5?$DN?$DN?50@
  0026d	e8 00 00 00 00	 call	 ?process_assert@@YGXPBD0H@Z ; process_assert
$LN17@unpack_loc:

; 2635 : 			}
; 2636 : 
; 2637 : 			set_new_display_message (current_message);

  00272	a1 00 00 00 00	 mov	 eax, DWORD PTR ?current_message@@3HA
  00277	50		 push	 eax
  00278	e8 00 00 00 00	 call	 ?set_new_display_message@@YGXH@Z ; set_new_display_message
$LN2@unpack_loc:

; 2638 : 
; 2639 : 			break;
; 2640 : 		}
; 2641 : 	}
; 2642 : }

  0027d	5f		 pop	 edi
  0027e	5e		 pop	 esi
  0027f	5b		 pop	 ebx
  00280	8b e5		 mov	 esp, ebp
  00282	5d		 pop	 ebp
  00283	c2 04 00	 ret	 4
?unpack_local_message_log@@YGXW4PACK_MODES@@@Z ENDP	; unpack_local_message_log
_TEXT	ENDS
; Function compile flags: /Odtp /ZI
; File c:\users\nhv90\projects\eech\aphavoc\source\misc\msg_in.c
;	COMDAT ?pack_local_message_log@@YGXW4PACK_MODES@@@Z
_TEXT	SEGMENT
tv70 = -88						; size = 4
$T1 = -84						; size = 4
_log$ = -16						; size = 4
_num_packed_messages$ = -12				; size = 4
_index$ = -8						; size = 4
_loop$ = -4						; size = 4
_mode$ = 8						; size = 4
?pack_local_message_log@@YGXW4PACK_MODES@@@Z PROC	; pack_local_message_log, COMDAT

; 2486 : {

  00000	55		 push	 ebp
  00001	8b ec		 mov	 ebp, esp
  00003	83 ec 58	 sub	 esp, 88			; 00000058H
  00006	53		 push	 ebx
  00007	56		 push	 esi
  00008	57		 push	 edi

; 2487 : 	int
; 2488 : 		loop,
; 2489 : 		index,
; 2490 : 		num_packed_messages;
; 2491 : 
; 2492 : 	message_log_type
; 2493 : 		*log;
; 2494 : 
; 2495 :    ASSERT ((mode >= 0) && (mode < NUM_PACK_MODES));

  00009	83 7d 08 00	 cmp	 DWORD PTR _mode$[ebp], 0
  0000d	7c 06		 jl	 SHORT $LN8@pack_local
  0000f	83 7d 08 04	 cmp	 DWORD PTR _mode$[ebp], 4
  00013	7c 18		 jl	 SHORT $LN7@pack_local
$LN8@pack_local:
  00015	a1 00 00 00 00	 mov	 eax, DWORD PTR ?__LINE__Var@?0??pack_local_message_log@@YGXW4PACK_MODES@@@Z@4JA
  0001a	83 c0 09	 add	 eax, 9
  0001d	50		 push	 eax
  0001e	68 00 00 00 00	 push	 OFFSET ??_C@_0DK@BLKECLAG@c?3?2users?2nhv90?2projects?2eech?2ap@
  00023	68 00 00 00 00	 push	 OFFSET ??_C@_0CH@MMFDPOBJ@?$CImode?5?$DO?$DN?50?$CJ?5?$CG?$CG?5?$CImode?5?$DM?5NUM_PACK@
  00028	e8 00 00 00 00	 call	 ?process_assert@@YGXPBD0H@Z ; process_assert
$LN7@pack_local:

; 2496 : 
; 2497 :    switch (mode)

  0002d	8b 45 08	 mov	 eax, DWORD PTR _mode$[ebp]
  00030	89 45 a8	 mov	 DWORD PTR tv70[ebp], eax
  00033	83 7d a8 00	 cmp	 DWORD PTR tv70[ebp], 0
  00037	0f 8c db 01 00
	00		 jl	 $LN2@pack_local
  0003d	83 7d a8 01	 cmp	 DWORD PTR tv70[ebp], 1
  00041	7e 05		 jle	 SHORT $LN9@pack_local
  00043	e9 d0 01 00 00	 jmp	 $LN2@pack_local
$LN9@pack_local:

; 2498 :    {
; 2499 :       ////////////////////////////////////////
; 2500 :       case PACK_MODE_SERVER_SESSION:
; 2501 :       case PACK_MODE_CLIENT_SESSION:
; 2502 :       ////////////////////////////////////////
; 2503 : 		{
; 2504 : 			num_packed_messages = min (num_messages, MAX_LOG_DISPLAY_MESSAGES);

  00048	c7 45 ac 19 00
	00 00		 mov	 DWORD PTR $T1[ebp], 25	; 00000019H
  0004f	8d 45 ac	 lea	 eax, DWORD PTR $T1[ebp]
  00052	50		 push	 eax
  00053	68 00 00 00 00	 push	 OFFSET ?num_messages@@3HA
  00058	e8 00 00 00 00	 call	 ??$min@H@std@@YGABHABH0@Z ; std::min<int>
  0005d	8b 08		 mov	 ecx, DWORD PTR [eax]
  0005f	89 4d f4	 mov	 DWORD PTR _num_packed_messages$[ebp], ecx

; 2505 : 
; 2506 : 			pack_int_value (NULL, INT_TYPE_VALUE, num_packed_messages);

  00062	8b 45 f4	 mov	 eax, DWORD PTR _num_packed_messages$[ebp]
  00065	50		 push	 eax
  00066	68 f2 00 00 00	 push	 242			; 000000f2H
  0006b	6a 00		 push	 0
  0006d	e8 00 00 00 00	 call	 ?pack_int_value@@YGXPAUENTITY@@W4INT_TYPES@@H@Z ; pack_int_value

; 2507 : 			pack_int_value (NULL, INT_TYPE_VALUE, current_message);

  00072	a1 00 00 00 00	 mov	 eax, DWORD PTR ?current_message@@3HA
  00077	50		 push	 eax
  00078	68 f2 00 00 00	 push	 242			; 000000f2H
  0007d	6a 00		 push	 0
  0007f	e8 00 00 00 00	 call	 ?pack_int_value@@YGXPAUENTITY@@W4INT_TYPES@@H@Z ; pack_int_value

; 2508 : 
; 2509 : 			for (loop = 0; loop < num_packed_messages; loop ++)

  00084	c7 45 fc 00 00
	00 00		 mov	 DWORD PTR _loop$[ebp], 0
  0008b	eb 09		 jmp	 SHORT $LN6@pack_local
$LN4@pack_local:
  0008d	8b 45 fc	 mov	 eax, DWORD PTR _loop$[ebp]
  00090	83 c0 01	 add	 eax, 1
  00093	89 45 fc	 mov	 DWORD PTR _loop$[ebp], eax
$LN6@pack_local:
  00096	8b 45 fc	 mov	 eax, DWORD PTR _loop$[ebp]
  00099	3b 45 f4	 cmp	 eax, DWORD PTR _num_packed_messages$[ebp]
  0009c	0f 8d 76 01 00
	00		 jge	 $LN5@pack_local

; 2510 : 			{
; 2511 : 				index = (num_messages - loop) - 1;

  000a2	a1 00 00 00 00	 mov	 eax, DWORD PTR ?num_messages@@3HA
  000a7	2b 45 fc	 sub	 eax, DWORD PTR _loop$[ebp]
  000aa	83 e8 01	 sub	 eax, 1
  000ad	89 45 f8	 mov	 DWORD PTR _index$[ebp], eax

; 2512 : 
; 2513 : 				log = &message_log [index];

  000b0	8b 45 f8	 mov	 eax, DWORD PTR _index$[ebp]
  000b3	c1 e0 05	 shl	 eax, 5
  000b6	03 05 00 00 00
	00		 add	 eax, DWORD PTR ?message_log@@3PAUMESSAGE_LOG_TYPE@@A
  000bc	89 45 f0	 mov	 DWORD PTR _log$[ebp], eax

; 2514 : 
; 2515 : 				ASSERT (log);

  000bf	75 18		 jne	 SHORT $LN10@pack_local
  000c1	a1 00 00 00 00	 mov	 eax, DWORD PTR ?__LINE__Var@?0??pack_local_message_log@@YGXW4PACK_MODES@@@Z@4JA
  000c6	83 c0 1d	 add	 eax, 29			; 0000001dH
  000c9	50		 push	 eax
  000ca	68 00 00 00 00	 push	 OFFSET ??_C@_0DK@BLKECLAG@c?3?2users?2nhv90?2projects?2eech?2ap@
  000cf	68 00 00 00 00	 push	 OFFSET ??_C@_03MGHMBJCF@log@
  000d4	e8 00 00 00 00	 call	 ?process_assert@@YGXPBD0H@Z ; process_assert
$LN10@pack_local:

; 2516 : 
; 2517 : 				pack_int_value (NULL, INT_TYPE_VALUE, log->type);

  000d9	8b 45 f0	 mov	 eax, DWORD PTR _log$[ebp]
  000dc	8b 08		 mov	 ecx, DWORD PTR [eax]
  000de	51		 push	 ecx
  000df	68 f2 00 00 00	 push	 242			; 000000f2H
  000e4	6a 00		 push	 0
  000e6	e8 00 00 00 00	 call	 ?pack_int_value@@YGXPAUENTITY@@W4INT_TYPES@@H@Z ; pack_int_value

; 2518 : 
; 2519 : 				pack_int_value (NULL, INT_TYPE_DAY, log->day);

  000eb	8b 45 f0	 mov	 eax, DWORD PTR _log$[ebp]
  000ee	8b 48 04	 mov	 ecx, DWORD PTR [eax+4]
  000f1	81 e1 ff ff 00
	00		 and	 ecx, 65535		; 0000ffffH
  000f7	51		 push	 ecx
  000f8	6a 26		 push	 38			; 00000026H
  000fa	6a 00		 push	 0
  000fc	e8 00 00 00 00	 call	 ?pack_int_value@@YGXPAUENTITY@@W4INT_TYPES@@H@Z ; pack_int_value

; 2520 : 
; 2521 : 				pack_float_value (NULL, FLOAT_TYPE_TIME_OF_DAY, log->time_of_day);

  00101	8b 45 f0	 mov	 eax, DWORD PTR _log$[ebp]
  00104	51		 push	 ecx
  00105	f3 0f 10 40 08	 movss	 xmm0, DWORD PTR [eax+8]
  0010a	f3 0f 11 04 24	 movss	 DWORD PTR [esp], xmm0
  0010f	68 8e 00 00 00	 push	 142			; 0000008eH
  00114	6a 00		 push	 0
  00116	e8 00 00 00 00	 call	 ?pack_float_value@@YGXPAUENTITY@@W4FLOAT_TYPES@@M@Z ; pack_float_value

; 2522 : 
; 2523 : 				if (point_inside_map_volume (&(log->position)))

  0011b	8b 45 f0	 mov	 eax, DWORD PTR _log$[ebp]
  0011e	f3 0f 10 40 0c	 movss	 xmm0, DWORD PTR [eax+12]
  00123	0f 2f 05 24 00
	00 00		 comiss	 xmm0, DWORD PTR ?world_map@@3UWORLD_MAP_DATA@@A+36
  0012a	72 75		 jb	 SHORT $LN11@pack_local
  0012c	8b 45 f0	 mov	 eax, DWORD PTR _log$[ebp]
  0012f	f3 0f 10 05 3c
	00 00 00	 movss	 xmm0, DWORD PTR ?world_map@@3UWORLD_MAP_DATA@@A+60
  00137	0f 2f 40 0c	 comiss	 xmm0, DWORD PTR [eax+12]
  0013b	72 64		 jb	 SHORT $LN11@pack_local
  0013d	8b 45 f0	 mov	 eax, DWORD PTR _log$[ebp]
  00140	f3 0f 10 40 10	 movss	 xmm0, DWORD PTR [eax+16]
  00145	0f 2f 05 28 00
	00 00		 comiss	 xmm0, DWORD PTR ?world_map@@3UWORLD_MAP_DATA@@A+40
  0014c	72 53		 jb	 SHORT $LN11@pack_local
  0014e	8b 45 f0	 mov	 eax, DWORD PTR _log$[ebp]
  00151	f3 0f 10 05 40
	00 00 00	 movss	 xmm0, DWORD PTR ?world_map@@3UWORLD_MAP_DATA@@A+64
  00159	0f 2f 40 10	 comiss	 xmm0, DWORD PTR [eax+16]
  0015d	72 42		 jb	 SHORT $LN11@pack_local
  0015f	8b 45 f0	 mov	 eax, DWORD PTR _log$[ebp]
  00162	f3 0f 10 40 14	 movss	 xmm0, DWORD PTR [eax+20]
  00167	0f 2f 05 2c 00
	00 00		 comiss	 xmm0, DWORD PTR ?world_map@@3UWORLD_MAP_DATA@@A+44
  0016e	72 31		 jb	 SHORT $LN11@pack_local
  00170	8b 45 f0	 mov	 eax, DWORD PTR _log$[ebp]
  00173	f3 0f 10 05 44
	00 00 00	 movss	 xmm0, DWORD PTR ?world_map@@3UWORLD_MAP_DATA@@A+68
  0017b	0f 2f 40 14	 comiss	 xmm0, DWORD PTR [eax+20]
  0017f	72 20		 jb	 SHORT $LN11@pack_local

; 2524 : 				{
; 2525 : 					pack_int_value (NULL, INT_TYPE_VALID, TRUE);

  00181	6a 01		 push	 1
  00183	68 ef 00 00 00	 push	 239			; 000000efH
  00188	6a 00		 push	 0
  0018a	e8 00 00 00 00	 call	 ?pack_int_value@@YGXPAUENTITY@@W4INT_TYPES@@H@Z ; pack_int_value

; 2526 : 
; 2527 : 					pack_vec3d (NULL, VEC3D_TYPE_POSITION, &(log->position));

  0018f	8b 45 f0	 mov	 eax, DWORD PTR _log$[ebp]
  00192	83 c0 0c	 add	 eax, 12			; 0000000cH
  00195	50		 push	 eax
  00196	6a 08		 push	 8
  00198	6a 00		 push	 0
  0019a	e8 00 00 00 00	 call	 ?pack_vec3d@@YGXPAUENTITY@@W4VEC3D_TYPES@@PAUVEC3D@@@Z ; pack_vec3d

; 2528 : 				}
; 2529 : 				else

  0019f	eb 0e		 jmp	 SHORT $LN12@pack_local
$LN11@pack_local:

; 2530 : 				{
; 2531 : 					pack_int_value (NULL, INT_TYPE_VALID, FALSE);

  001a1	6a 00		 push	 0
  001a3	68 ef 00 00 00	 push	 239			; 000000efH
  001a8	6a 00		 push	 0
  001aa	e8 00 00 00 00	 call	 ?pack_int_value@@YGXPAUENTITY@@W4INT_TYPES@@H@Z ; pack_int_value
$LN12@pack_local:

; 2532 : 				}
; 2533 : 
; 2534 : 				pack_int_value (NULL, INT_TYPE_COLOUR_RED, log->colour.r);

  001af	8b 45 f0	 mov	 eax, DWORD PTR _log$[ebp]
  001b2	0f b6 48 1a	 movzx	 ecx, BYTE PTR [eax+26]
  001b6	51		 push	 ecx
  001b7	6a 20		 push	 32			; 00000020H
  001b9	6a 00		 push	 0
  001bb	e8 00 00 00 00	 call	 ?pack_int_value@@YGXPAUENTITY@@W4INT_TYPES@@H@Z ; pack_int_value

; 2535 : 				pack_int_value (NULL, INT_TYPE_COLOUR_GREEN, log->colour.g);

  001c0	8b 45 f0	 mov	 eax, DWORD PTR _log$[ebp]
  001c3	0f b6 48 19	 movzx	 ecx, BYTE PTR [eax+25]
  001c7	51		 push	 ecx
  001c8	6a 1f		 push	 31			; 0000001fH
  001ca	6a 00		 push	 0
  001cc	e8 00 00 00 00	 call	 ?pack_int_value@@YGXPAUENTITY@@W4INT_TYPES@@H@Z ; pack_int_value

; 2536 : 				pack_int_value (NULL, INT_TYPE_COLOUR_BLUE, log->colour.b);

  001d1	8b 45 f0	 mov	 eax, DWORD PTR _log$[ebp]
  001d4	0f b6 48 18	 movzx	 ecx, BYTE PTR [eax+24]
  001d8	51		 push	 ecx
  001d9	6a 1e		 push	 30			; 0000001eH
  001db	6a 00		 push	 0
  001dd	e8 00 00 00 00	 call	 ?pack_int_value@@YGXPAUENTITY@@W4INT_TYPES@@H@Z ; pack_int_value

; 2537 : 
; 2538 : 				ASSERT (log->string);

  001e2	8b 45 f0	 mov	 eax, DWORD PTR _log$[ebp]
  001e5	83 78 1c 00	 cmp	 DWORD PTR [eax+28], 0
  001e9	75 18		 jne	 SHORT $LN13@pack_local
  001eb	a1 00 00 00 00	 mov	 eax, DWORD PTR ?__LINE__Var@?0??pack_local_message_log@@YGXW4PACK_MODES@@@Z@4JA
  001f0	83 c0 34	 add	 eax, 52			; 00000034H
  001f3	50		 push	 eax
  001f4	68 00 00 00 00	 push	 OFFSET ??_C@_0DK@BLKECLAG@c?3?2users?2nhv90?2projects?2eech?2ap@
  001f9	68 00 00 00 00	 push	 OFFSET ??_C@_0M@FKGGNEFI@log?9?$DOstring@
  001fe	e8 00 00 00 00	 call	 ?process_assert@@YGXPBD0H@Z ; process_assert
$LN13@pack_local:

; 2539 : 
; 2540 : 	         pack_string (NULL, STRING_TYPE_PILOT_MESSAGE, log->string);

  00203	8b 45 f0	 mov	 eax, DWORD PTR _log$[ebp]
  00206	8b 48 1c	 mov	 ecx, DWORD PTR [eax+28]
  00209	51		 push	 ecx
  0020a	6a 09		 push	 9
  0020c	6a 00		 push	 0
  0020e	e8 00 00 00 00	 call	 ?pack_string@@YGXPAUENTITY@@W4STRING_TYPES@@PBD@Z ; pack_string

; 2541 : 			}

  00213	e9 75 fe ff ff	 jmp	 $LN4@pack_local
$LN5@pack_local:
$LN2@pack_local:

; 2542 : 
; 2543 : 			break;
; 2544 : 		}
; 2545 : 	}
; 2546 : }

  00218	5f		 pop	 edi
  00219	5e		 pop	 esi
  0021a	5b		 pop	 ebx
  0021b	8b e5		 mov	 esp, ebp
  0021d	5d		 pop	 ebp
  0021e	c2 04 00	 ret	 4
?pack_local_message_log@@YGXW4PACK_MODES@@@Z ENDP	; pack_local_message_log
_TEXT	ENDS
; Function compile flags: /Odtp /ZI
; File c:\users\nhv90\projects\eech\aphavoc\source\misc\msg_in.c
;	COMDAT ?play_client_server_radio_message_response@@YGXPAUENTITY@@HMM@Z
_TEXT	SEGMENT
tv76 = -72						; size = 4
tv69 = -68						; size = 4
_en$ = 8						; size = 4
_speech_index$ = 12					; size = 4
_priority$ = 16						; size = 4
_expire_time$ = 20					; size = 4
?play_client_server_radio_message_response@@YGXPAUENTITY@@HMM@Z PROC ; play_client_server_radio_message_response, COMDAT

; 1175 : {

  00000	55		 push	 ebp
  00001	8b ec		 mov	 ebp, esp
  00003	83 ec 48	 sub	 esp, 72			; 00000048H
  00006	53		 push	 ebx
  00007	56		 push	 esi
  00008	57		 push	 edi

; 1176 : 	if (get_local_entity_int_value (en, INT_TYPE_PLAYER) == ENTITY_PLAYER_AI)

  00009	83 7d 08 00	 cmp	 DWORD PTR _en$[ebp], 0
  0000d	74 0a		 je	 SHORT $LN4@play_clien
  0000f	8b 45 08	 mov	 eax, DWORD PTR _en$[ebp]
  00012	8b 08		 mov	 ecx, DWORD PTR [eax]
  00014	89 4d bc	 mov	 DWORD PTR tv69[ebp], ecx
  00017	eb 1d		 jmp	 SHORT $LN5@play_clien
$LN4@play_clien:
  00019	68 98 04 00 00	 push	 1176			; 00000498H
  0001e	68 00 00 00 00	 push	 OFFSET ??_C@_0DK@BLKECLAG@c?3?2users?2nhv90?2projects?2eech?2ap@
  00023	8b 15 00 00 00
	00		 mov	 edx, DWORD PTR ?null_entity_pointer_message@@3PBDB ; null_entity_pointer_message
  00029	52		 push	 edx
  0002a	e8 00 00 00 00	 call	 ?process_assert@@YGXPBD0H@Z ; process_assert
  0002f	c7 45 bc 00 00
	00 00		 mov	 DWORD PTR tv69[ebp], 0
$LN5@play_clien:
  00036	b8 01 00 00 00	 mov	 eax, 1
  0003b	85 c0		 test	 eax, eax
  0003d	74 09		 je	 SHORT $LN6@play_clien
  0003f	c7 45 b8 9c 00
	00 00		 mov	 DWORD PTR tv76[ebp], 156 ; 0000009cH
  00046	eb 1d		 jmp	 SHORT $LN7@play_clien
$LN6@play_clien:
  00048	68 98 04 00 00	 push	 1176			; 00000498H
  0004d	68 00 00 00 00	 push	 OFFSET ??_C@_0DK@BLKECLAG@c?3?2users?2nhv90?2projects?2eech?2ap@
  00052	8b 0d 00 00 00
	00		 mov	 ecx, DWORD PTR ?overload_invalid_int_type_message@@3PBDB ; overload_invalid_int_type_message
  00058	51		 push	 ecx
  00059	e8 00 00 00 00	 call	 ?process_assert@@YGXPBD0H@Z ; process_assert
  0005e	c7 45 b8 00 00
	00 00		 mov	 DWORD PTR tv76[ebp], 0
$LN7@play_clien:
  00065	68 9c 00 00 00	 push	 156			; 0000009cH
  0006a	8b 55 08	 mov	 edx, DWORD PTR _en$[ebp]
  0006d	52		 push	 edx
  0006e	69 45 bc 5c 04
	00 00		 imul	 eax, DWORD PTR tv69[ebp], 1116
  00075	8b 4d b8	 mov	 ecx, DWORD PTR tv76[ebp]
  00078	8b 94 88 00 00
	00 00		 mov	 edx, DWORD PTR ?fn_get_local_entity_int_value@@3PAY0BBH@P6GHPAUENTITY@@W4INT_TYPES@@@ZA[eax+ecx*4]
  0007f	ff d2		 call	 edx
  00081	85 c0		 test	 eax, eax
  00083	75 37		 jne	 SHORT $LN2@play_clien

; 1177 : 	{
; 1178 : 		play_client_server_wingman_message

  00085	8b 45 0c	 mov	 eax, DWORD PTR _speech_index$[ebp]
  00088	50		 push	 eax
  00089	6a 07		 push	 7
  0008b	6a 02		 push	 2
  0008d	51		 push	 ecx
  0008e	f3 0f 10 05 00
	00 00 00	 movss	 xmm0, DWORD PTR __real@bf800000
  00096	f3 0f 11 04 24	 movss	 DWORD PTR [esp], xmm0
  0009b	6a 0c		 push	 12			; 0000000cH
  0009d	51		 push	 ecx
  0009e	f3 0f 10 45 14	 movss	 xmm0, DWORD PTR _expire_time$[ebp]
  000a3	f3 0f 11 04 24	 movss	 DWORD PTR [esp], xmm0
  000a8	51		 push	 ecx
  000a9	f3 0f 10 45 10	 movss	 xmm0, DWORD PTR _priority$[ebp]
  000ae	f3 0f 11 04 24	 movss	 DWORD PTR [esp], xmm0
  000b3	8b 4d 08	 mov	 ecx, DWORD PTR _en$[ebp]
  000b6	51		 push	 ecx
  000b7	e8 00 00 00 00	 call	 ?play_client_server_wingman_message@@YGHPAUENTITY@@MMW4speech_category_types@@MW4speech_intro_types@@W4speech_array_types@@H@Z ; play_client_server_wingman_message
$LN2@play_clien:

; 1179 : 		(
; 1180 : 			en,
; 1181 : 			priority,
; 1182 : 			expire_time,
; 1183 : 			SPEECH_CATEGORY_RADIO_RESPONSE, -1.0,
; 1184 : 			SPEECH_INTRODUCTION_ALWAYS,
; 1185 : 			SPEECH_ARRAY_WINGMAN_MESSAGES, speech_index
; 1186 : 		);
; 1187 : 	}
; 1188 : }

  000bc	5f		 pop	 edi
  000bd	5e		 pop	 esi
  000be	5b		 pop	 ebx
  000bf	8b e5		 mov	 esp, ebp
  000c1	5d		 pop	 ebp
  000c2	c2 10 00	 ret	 16			; 00000010H
?play_client_server_radio_message_response@@YGXPAUENTITY@@HMM@Z ENDP ; play_client_server_radio_message_response
_TEXT	ENDS
; Function compile flags: /Odtp /ZI
; File c:\users\nhv90\projects\eech\aphavoc\source\misc\msg_in.c
;	COMDAT ?process_radio_message@@YGXPAUENTITY@@W4MESSAGE_CATEGORIES@@H@Z
_TEXT	SEGMENT
tv222 = -76						; size = 4
tv215 = -76						; size = 4
tv208 = -76						; size = 4
tv201 = -76						; size = 4
tv194 = -76						; size = 4
tv187 = -76						; size = 4
tv180 = -76						; size = 4
tv173 = -76						; size = 4
tv166 = -76						; size = 4
tv159 = -76						; size = 4
tv153 = -76						; size = 4
tv147 = -76						; size = 4
tv141 = -76						; size = 4
tv133 = -76						; size = 4
tv93 = -76						; size = 4
tv87 = -76						; size = 4
tv81 = -76						; size = 4
tv74 = -76						; size = 4
tv68 = -76						; size = 4
tv64 = -76						; size = 4
_wingman$ = -8						; size = 4
_group$ = -4						; size = 4
_en$ = 8						; size = 4
_type$ = 12						; size = 4
_value$ = 16						; size = 4
?process_radio_message@@YGXPAUENTITY@@W4MESSAGE_CATEGORIES@@H@Z PROC ; process_radio_message, COMDAT

; 966  : {

  00000	55		 push	 ebp
  00001	8b ec		 mov	 ebp, esp
  00003	83 ec 4c	 sub	 esp, 76			; 0000004cH
  00006	53		 push	 ebx
  00007	56		 push	 esi
  00008	57		 push	 edi

; 967  : 	entity
; 968  : 		*group,
; 969  : 		*wingman;
; 970  : 
; 971  : 	switch (type)

  00009	8b 45 0c	 mov	 eax, DWORD PTR _type$[ebp]
  0000c	89 45 b4	 mov	 DWORD PTR tv64[ebp], eax
  0000f	8b 4d b4	 mov	 ecx, DWORD PTR tv64[ebp]
  00012	83 e9 07	 sub	 ecx, 7
  00015	89 4d b4	 mov	 DWORD PTR tv64[ebp], ecx
  00018	83 7d b4 1a	 cmp	 DWORD PTR tv64[ebp], 26	; 0000001aH
  0001c	0f 87 73 04 00
	00		 ja	 $LN1@process_ra
  00022	8b 55 b4	 mov	 edx, DWORD PTR tv64[ebp]
  00025	ff 24 95 00 00
	00 00		 jmp	 DWORD PTR $LN69@process_ra[edx*4]
$LN4@process_ra:

; 972  : 	{
; 973  : 		case MESSAGE_WINGMAN_ATTACK_MY_TARGET:
; 974  : 		{
; 975  : 			wingman = get_local_entity_safe_ptr (value);

  0002c	83 7d 10 ff	 cmp	 DWORD PTR _value$[ebp], -1
  00030	74 11		 je	 SHORT $LN31@process_ra
  00032	8b 45 10	 mov	 eax, DWORD PTR _value$[ebp]
  00035	c1 e0 04	 shl	 eax, 4
  00038	03 05 00 00 00
	00		 add	 eax, DWORD PTR ?entities@@3PAUENTITY@@A ; entities
  0003e	89 45 b4	 mov	 DWORD PTR tv68[ebp], eax
  00041	eb 07		 jmp	 SHORT $LN32@process_ra
$LN31@process_ra:
  00043	c7 45 b4 00 00
	00 00		 mov	 DWORD PTR tv68[ebp], 0
$LN32@process_ra:
  0004a	8b 4d b4	 mov	 ecx, DWORD PTR tv68[ebp]
  0004d	89 4d f8	 mov	 DWORD PTR _wingman$[ebp], ecx

; 976  : 
; 977  : 			process_message_attack_my_target (en, wingman);

  00050	8b 45 f8	 mov	 eax, DWORD PTR _wingman$[ebp]
  00053	50		 push	 eax
  00054	8b 4d 08	 mov	 ecx, DWORD PTR _en$[ebp]
  00057	51		 push	 ecx
  00058	e8 00 00 00 00	 call	 ?process_message_attack_my_target@@YGXPAUENTITY@@0@Z ; process_message_attack_my_target

; 978  : 
; 979  : 			break;

  0005d	e9 33 04 00 00	 jmp	 $LN1@process_ra
$LN5@process_ra:

; 980  : 		}
; 981  : 		case MESSAGE_WINGMAN_ATTACK_PFZ:
; 982  : 		{
; 983  : 			wingman = get_local_entity_safe_ptr (value);

  00062	83 7d 10 ff	 cmp	 DWORD PTR _value$[ebp], -1
  00066	74 11		 je	 SHORT $LN33@process_ra
  00068	8b 45 10	 mov	 eax, DWORD PTR _value$[ebp]
  0006b	c1 e0 04	 shl	 eax, 4
  0006e	03 05 00 00 00
	00		 add	 eax, DWORD PTR ?entities@@3PAUENTITY@@A ; entities
  00074	89 45 b4	 mov	 DWORD PTR tv74[ebp], eax
  00077	eb 07		 jmp	 SHORT $LN34@process_ra
$LN33@process_ra:
  00079	c7 45 b4 00 00
	00 00		 mov	 DWORD PTR tv74[ebp], 0
$LN34@process_ra:
  00080	8b 4d b4	 mov	 ecx, DWORD PTR tv74[ebp]
  00083	89 4d f8	 mov	 DWORD PTR _wingman$[ebp], ecx

; 984  : 			process_message_attack_pfz (en, wingman);

  00086	8b 45 f8	 mov	 eax, DWORD PTR _wingman$[ebp]
  00089	50		 push	 eax
  0008a	8b 4d 08	 mov	 ecx, DWORD PTR _en$[ebp]
  0008d	51		 push	 ecx
  0008e	e8 00 00 00 00	 call	 ?process_message_attack_pfz@@YGXPAUENTITY@@0@Z ; process_message_attack_pfz

; 985  : 
; 986  : 			break;

  00093	e9 fd 03 00 00	 jmp	 $LN1@process_ra
$LN6@process_ra:

; 987  : 		}
; 988  : 		case MESSAGE_WINGMAN_RETURN_TO_BASE:
; 989  : 		{
; 990  : 			process_message_return_to_base (en);

  00098	8b 45 08	 mov	 eax, DWORD PTR _en$[ebp]
  0009b	50		 push	 eax
  0009c	e8 00 00 00 00	 call	 ?process_message_return_to_base@@YGXPAUENTITY@@@Z ; process_message_return_to_base

; 991  : 
; 992  : 			break;

  000a1	e9 ef 03 00 00	 jmp	 $LN1@process_ra
$LN7@process_ra:

; 993  : 		}
; 994  : 		case MESSAGE_WINGMAN_REQUEST_STATUS:
; 995  : 		{
; 996  : 			wingman = get_local_entity_safe_ptr (value);

  000a6	83 7d 10 ff	 cmp	 DWORD PTR _value$[ebp], -1
  000aa	74 11		 je	 SHORT $LN35@process_ra
  000ac	8b 45 10	 mov	 eax, DWORD PTR _value$[ebp]
  000af	c1 e0 04	 shl	 eax, 4
  000b2	03 05 00 00 00
	00		 add	 eax, DWORD PTR ?entities@@3PAUENTITY@@A ; entities
  000b8	89 45 b4	 mov	 DWORD PTR tv81[ebp], eax
  000bb	eb 07		 jmp	 SHORT $LN36@process_ra
$LN35@process_ra:
  000bd	c7 45 b4 00 00
	00 00		 mov	 DWORD PTR tv81[ebp], 0
$LN36@process_ra:
  000c4	8b 4d b4	 mov	 ecx, DWORD PTR tv81[ebp]
  000c7	89 4d f8	 mov	 DWORD PTR _wingman$[ebp], ecx

; 997  : 			if (wingman == get_gunship_entity())

  000ca	8b 45 f8	 mov	 eax, DWORD PTR _wingman$[ebp]
  000cd	3b 05 00 00 00
	00		 cmp	 eax, DWORD PTR ?gunship_entity@@3PAUENTITY@@A ; gunship_entity
  000d3	75 0d		 jne	 SHORT $LN8@process_ra

; 998  : 			{
; 999  : 				debug_log("request message from me!");

  000d5	68 00 00 00 00	 push	 OFFSET ??_C@_0BJ@BKOACNPH@request?5message?5from?5me?$CB@
  000da	e8 00 00 00 00	 call	 ?debug_log@@YAXPBDZZ	; debug_log
  000df	83 c4 04	 add	 esp, 4
$LN8@process_ra:

; 1000 : 			}
; 1001 : 
; 1002 : 			break;

  000e2	e9 ae 03 00 00	 jmp	 $LN1@process_ra
$LN9@process_ra:

; 1003 : 		}
; 1004 : 		case MESSAGE_WINGMAN_HELP_ME:
; 1005 : 		{
; 1006 : 			wingman = get_local_entity_safe_ptr (value);

  000e7	83 7d 10 ff	 cmp	 DWORD PTR _value$[ebp], -1
  000eb	74 11		 je	 SHORT $LN37@process_ra
  000ed	8b 45 10	 mov	 eax, DWORD PTR _value$[ebp]
  000f0	c1 e0 04	 shl	 eax, 4
  000f3	03 05 00 00 00
	00		 add	 eax, DWORD PTR ?entities@@3PAUENTITY@@A ; entities
  000f9	89 45 b4	 mov	 DWORD PTR tv87[ebp], eax
  000fc	eb 07		 jmp	 SHORT $LN38@process_ra
$LN37@process_ra:
  000fe	c7 45 b4 00 00
	00 00		 mov	 DWORD PTR tv87[ebp], 0
$LN38@process_ra:
  00105	8b 4d b4	 mov	 ecx, DWORD PTR tv87[ebp]
  00108	89 4d f8	 mov	 DWORD PTR _wingman$[ebp], ecx

; 1007 : 
; 1008 : 			process_message_help_me (en, wingman);

  0010b	8b 45 f8	 mov	 eax, DWORD PTR _wingman$[ebp]
  0010e	50		 push	 eax
  0010f	8b 4d 08	 mov	 ecx, DWORD PTR _en$[ebp]
  00112	51		 push	 ecx
  00113	e8 00 00 00 00	 call	 ?process_message_help_me@@YGXPAUENTITY@@0@Z ; process_message_help_me

; 1009 : 
; 1010 : 			break;

  00118	e9 78 03 00 00	 jmp	 $LN1@process_ra
$LN10@process_ra:

; 1011 : 		}
; 1012 : 		case MESSAGE_WINGMAN_WEAPONS_HOLD:
; 1013 : 		{
; 1014 : 			wingman = get_local_entity_safe_ptr (value);

  0011d	83 7d 10 ff	 cmp	 DWORD PTR _value$[ebp], -1
  00121	74 11		 je	 SHORT $LN39@process_ra
  00123	8b 45 10	 mov	 eax, DWORD PTR _value$[ebp]
  00126	c1 e0 04	 shl	 eax, 4
  00129	03 05 00 00 00
	00		 add	 eax, DWORD PTR ?entities@@3PAUENTITY@@A ; entities
  0012f	89 45 b4	 mov	 DWORD PTR tv93[ebp], eax
  00132	eb 07		 jmp	 SHORT $LN40@process_ra
$LN39@process_ra:
  00134	c7 45 b4 00 00
	00 00		 mov	 DWORD PTR tv93[ebp], 0
$LN40@process_ra:
  0013b	8b 4d b4	 mov	 ecx, DWORD PTR tv93[ebp]
  0013e	89 4d f8	 mov	 DWORD PTR _wingman$[ebp], ecx

; 1015 : 
; 1016 : 			process_message_weapons_hold (en, wingman, TRUE, TRUE);

  00141	6a 01		 push	 1
  00143	6a 01		 push	 1
  00145	8b 45 f8	 mov	 eax, DWORD PTR _wingman$[ebp]
  00148	50		 push	 eax
  00149	8b 4d 08	 mov	 ecx, DWORD PTR _en$[ebp]
  0014c	51		 push	 ecx
  0014d	e8 00 00 00 00	 call	 ?process_message_weapons_hold@@YGXPAUENTITY@@0HH@Z ; process_message_weapons_hold

; 1017 : 
; 1018 : 			break;

  00152	e9 3e 03 00 00	 jmp	 $LN1@process_ra
$LN11@process_ra:

; 1019 : 		}
; 1020 : 		case MESSAGE_WINGMAN_WEAPONS_FREE:
; 1021 : 		{
; 1022 : 			wingman = get_local_entity_safe_ptr (value);

  00157	83 7d 10 ff	 cmp	 DWORD PTR _value$[ebp], -1
  0015b	74 11		 je	 SHORT $LN41@process_ra
  0015d	8b 45 10	 mov	 eax, DWORD PTR _value$[ebp]
  00160	c1 e0 04	 shl	 eax, 4
  00163	03 05 00 00 00
	00		 add	 eax, DWORD PTR ?entities@@3PAUENTITY@@A ; entities
  00169	89 45 b4	 mov	 DWORD PTR tv133[ebp], eax
  0016c	eb 07		 jmp	 SHORT $LN42@process_ra
$LN41@process_ra:
  0016e	c7 45 b4 00 00
	00 00		 mov	 DWORD PTR tv133[ebp], 0
$LN42@process_ra:
  00175	8b 4d b4	 mov	 ecx, DWORD PTR tv133[ebp]
  00178	89 4d f8	 mov	 DWORD PTR _wingman$[ebp], ecx

; 1023 : 
; 1024 : 			process_message_weapons_hold (en, wingman, FALSE, TRUE);

  0017b	6a 01		 push	 1
  0017d	6a 00		 push	 0
  0017f	8b 45 f8	 mov	 eax, DWORD PTR _wingman$[ebp]
  00182	50		 push	 eax
  00183	8b 4d 08	 mov	 ecx, DWORD PTR _en$[ebp]
  00186	51		 push	 ecx
  00187	e8 00 00 00 00	 call	 ?process_message_weapons_hold@@YGXPAUENTITY@@0HH@Z ; process_message_weapons_hold

; 1025 : 
; 1026 : 			break;

  0018c	e9 04 03 00 00	 jmp	 $LN1@process_ra
$LN12@process_ra:

; 1027 : 		}
; 1028 : 		case MESSAGE_WINGMAN_BOB_UP:
; 1029 : 		{
; 1030 : 			wingman = get_local_entity_safe_ptr (value);

  00191	83 7d 10 ff	 cmp	 DWORD PTR _value$[ebp], -1
  00195	74 11		 je	 SHORT $LN43@process_ra
  00197	8b 45 10	 mov	 eax, DWORD PTR _value$[ebp]
  0019a	c1 e0 04	 shl	 eax, 4
  0019d	03 05 00 00 00
	00		 add	 eax, DWORD PTR ?entities@@3PAUENTITY@@A ; entities
  001a3	89 45 b4	 mov	 DWORD PTR tv141[ebp], eax
  001a6	eb 07		 jmp	 SHORT $LN44@process_ra
$LN43@process_ra:
  001a8	c7 45 b4 00 00
	00 00		 mov	 DWORD PTR tv141[ebp], 0
$LN44@process_ra:
  001af	8b 4d b4	 mov	 ecx, DWORD PTR tv141[ebp]
  001b2	89 4d f8	 mov	 DWORD PTR _wingman$[ebp], ecx

; 1031 : 
; 1032 : 			process_message_bob_up (en, wingman);

  001b5	8b 45 f8	 mov	 eax, DWORD PTR _wingman$[ebp]
  001b8	50		 push	 eax
  001b9	8b 4d 08	 mov	 ecx, DWORD PTR _en$[ebp]
  001bc	51		 push	 ecx
  001bd	e8 00 00 00 00	 call	 ?process_message_bob_up@@YGXPAUENTITY@@0@Z ; process_message_bob_up

; 1033 : 
; 1034 : 			break;

  001c2	e9 ce 02 00 00	 jmp	 $LN1@process_ra
$LN13@process_ra:

; 1035 : 		}
; 1036 : 		case MESSAGE_WINGMAN_HOLD_POSITION:
; 1037 : 		{
; 1038 : 			wingman = get_local_entity_safe_ptr (value);

  001c7	83 7d 10 ff	 cmp	 DWORD PTR _value$[ebp], -1
  001cb	74 11		 je	 SHORT $LN45@process_ra
  001cd	8b 45 10	 mov	 eax, DWORD PTR _value$[ebp]
  001d0	c1 e0 04	 shl	 eax, 4
  001d3	03 05 00 00 00
	00		 add	 eax, DWORD PTR ?entities@@3PAUENTITY@@A ; entities
  001d9	89 45 b4	 mov	 DWORD PTR tv147[ebp], eax
  001dc	eb 07		 jmp	 SHORT $LN46@process_ra
$LN45@process_ra:
  001de	c7 45 b4 00 00
	00 00		 mov	 DWORD PTR tv147[ebp], 0
$LN46@process_ra:
  001e5	8b 4d b4	 mov	 ecx, DWORD PTR tv147[ebp]
  001e8	89 4d f8	 mov	 DWORD PTR _wingman$[ebp], ecx

; 1039 : 
; 1040 : 			process_message_hold_position (en, wingman);

  001eb	8b 45 f8	 mov	 eax, DWORD PTR _wingman$[ebp]
  001ee	50		 push	 eax
  001ef	8b 4d 08	 mov	 ecx, DWORD PTR _en$[ebp]
  001f2	51		 push	 ecx
  001f3	e8 00 00 00 00	 call	 ?process_message_hold_position@@YGXPAUENTITY@@0@Z ; process_message_hold_position

; 1041 : 
; 1042 : 			break;

  001f8	e9 98 02 00 00	 jmp	 $LN1@process_ra
$LN14@process_ra:

; 1043 : 		}
; 1044 : 		case MESSAGE_WINGMAN_REJOIN_FORMATION:
; 1045 : 		{
; 1046 : 			wingman = get_local_entity_safe_ptr (value);

  001fd	83 7d 10 ff	 cmp	 DWORD PTR _value$[ebp], -1
  00201	74 11		 je	 SHORT $LN47@process_ra
  00203	8b 45 10	 mov	 eax, DWORD PTR _value$[ebp]
  00206	c1 e0 04	 shl	 eax, 4
  00209	03 05 00 00 00
	00		 add	 eax, DWORD PTR ?entities@@3PAUENTITY@@A ; entities
  0020f	89 45 b4	 mov	 DWORD PTR tv153[ebp], eax
  00212	eb 07		 jmp	 SHORT $LN48@process_ra
$LN47@process_ra:
  00214	c7 45 b4 00 00
	00 00		 mov	 DWORD PTR tv153[ebp], 0
$LN48@process_ra:
  0021b	8b 4d b4	 mov	 ecx, DWORD PTR tv153[ebp]
  0021e	89 4d f8	 mov	 DWORD PTR _wingman$[ebp], ecx

; 1047 : 
; 1048 : 			process_message_rejoin_formation (en, wingman);

  00221	8b 45 f8	 mov	 eax, DWORD PTR _wingman$[ebp]
  00224	50		 push	 eax
  00225	8b 4d 08	 mov	 ecx, DWORD PTR _en$[ebp]
  00228	51		 push	 ecx
  00229	e8 00 00 00 00	 call	 ?process_message_rejoin_formation@@YGXPAUENTITY@@0@Z ; process_message_rejoin_formation

; 1049 : 
; 1050 : 			break;

  0022e	e9 62 02 00 00	 jmp	 $LN1@process_ra
$LN15@process_ra:

; 1051 : 		}
; 1052 : 		case MESSAGE_WINGMAN_REQUEST_TARGET_LIST:
; 1053 : 		{
; 1054 : 			wingman = get_local_entity_safe_ptr (value);

  00233	83 7d 10 ff	 cmp	 DWORD PTR _value$[ebp], -1
  00237	74 11		 je	 SHORT $LN49@process_ra
  00239	8b 45 10	 mov	 eax, DWORD PTR _value$[ebp]
  0023c	c1 e0 04	 shl	 eax, 4
  0023f	03 05 00 00 00
	00		 add	 eax, DWORD PTR ?entities@@3PAUENTITY@@A ; entities
  00245	89 45 b4	 mov	 DWORD PTR tv159[ebp], eax
  00248	eb 07		 jmp	 SHORT $LN50@process_ra
$LN49@process_ra:
  0024a	c7 45 b4 00 00
	00 00		 mov	 DWORD PTR tv159[ebp], 0
$LN50@process_ra:
  00251	8b 4d b4	 mov	 ecx, DWORD PTR tv159[ebp]
  00254	89 4d f8	 mov	 DWORD PTR _wingman$[ebp], ecx

; 1055 : 
; 1056 : 			transmit_entity_comms_message (ENTITY_COMMS_REQUEST_TARGET_LIST, en, wingman);

  00257	8b 45 f8	 mov	 eax, DWORD PTR _wingman$[ebp]
  0025a	50		 push	 eax
  0025b	8b 4d 08	 mov	 ecx, DWORD PTR _en$[ebp]
  0025e	51		 push	 ecx
  0025f	6a 2b		 push	 43			; 0000002bH
  00261	e8 00 00 00 00	 call	 ?transmit_entity_comms_message@@YAXW4ENTITY_COMMS_MESSAGES@@PAUENTITY@@ZZ ; transmit_entity_comms_message
  00266	83 c4 0c	 add	 esp, 12			; 0000000cH

; 1057 : 
; 1058 : 			break;

  00269	e9 27 02 00 00	 jmp	 $LN1@process_ra
$LN16@process_ra:

; 1059 : 		}
; 1060 : 		case MESSAGE_GROUP_ROW_LEFT:
; 1061 : 		{
; 1062 : 			group = get_local_entity_safe_ptr (value);

  0026e	83 7d 10 ff	 cmp	 DWORD PTR _value$[ebp], -1
  00272	74 11		 je	 SHORT $LN51@process_ra
  00274	8b 45 10	 mov	 eax, DWORD PTR _value$[ebp]
  00277	c1 e0 04	 shl	 eax, 4
  0027a	03 05 00 00 00
	00		 add	 eax, DWORD PTR ?entities@@3PAUENTITY@@A ; entities
  00280	89 45 b4	 mov	 DWORD PTR tv166[ebp], eax
  00283	eb 07		 jmp	 SHORT $LN52@process_ra
$LN51@process_ra:
  00285	c7 45 b4 00 00
	00 00		 mov	 DWORD PTR tv166[ebp], 0
$LN52@process_ra:
  0028c	8b 4d b4	 mov	 ecx, DWORD PTR tv166[ebp]
  0028f	89 4d fc	 mov	 DWORD PTR _group$[ebp], ecx

; 1063 : 
; 1064 : 			process_message_change_formation (en, group, FORMATION_ROW_LEFT);

  00292	6a 02		 push	 2
  00294	8b 45 fc	 mov	 eax, DWORD PTR _group$[ebp]
  00297	50		 push	 eax
  00298	8b 4d 08	 mov	 ecx, DWORD PTR _en$[ebp]
  0029b	51		 push	 ecx
  0029c	e8 00 00 00 00	 call	 ?process_message_change_formation@@YGXPAUENTITY@@0H@Z ; process_message_change_formation

; 1065 : 
; 1066 : 			break;

  002a1	e9 ef 01 00 00	 jmp	 $LN1@process_ra
$LN17@process_ra:

; 1067 : 		}
; 1068 : 		case MESSAGE_GROUP_ROW_RIGHT:
; 1069 : 		{
; 1070 : 			group = get_local_entity_safe_ptr (value);

  002a6	83 7d 10 ff	 cmp	 DWORD PTR _value$[ebp], -1
  002aa	74 11		 je	 SHORT $LN53@process_ra
  002ac	8b 45 10	 mov	 eax, DWORD PTR _value$[ebp]
  002af	c1 e0 04	 shl	 eax, 4
  002b2	03 05 00 00 00
	00		 add	 eax, DWORD PTR ?entities@@3PAUENTITY@@A ; entities
  002b8	89 45 b4	 mov	 DWORD PTR tv173[ebp], eax
  002bb	eb 07		 jmp	 SHORT $LN54@process_ra
$LN53@process_ra:
  002bd	c7 45 b4 00 00
	00 00		 mov	 DWORD PTR tv173[ebp], 0
$LN54@process_ra:
  002c4	8b 4d b4	 mov	 ecx, DWORD PTR tv173[ebp]
  002c7	89 4d fc	 mov	 DWORD PTR _group$[ebp], ecx

; 1071 : 
; 1072 : 			process_message_change_formation (en, group, FORMATION_ROW_RIGHT);

  002ca	6a 03		 push	 3
  002cc	8b 45 fc	 mov	 eax, DWORD PTR _group$[ebp]
  002cf	50		 push	 eax
  002d0	8b 4d 08	 mov	 ecx, DWORD PTR _en$[ebp]
  002d3	51		 push	 ecx
  002d4	e8 00 00 00 00	 call	 ?process_message_change_formation@@YGXPAUENTITY@@0H@Z ; process_message_change_formation

; 1073 : 
; 1074 : 			break;

  002d9	e9 b7 01 00 00	 jmp	 $LN1@process_ra
$LN18@process_ra:

; 1075 : 		}
; 1076 : 		case MESSAGE_GROUP_ECHELON_LEFT:
; 1077 : 		{
; 1078 : 			group = get_local_entity_safe_ptr (value);

  002de	83 7d 10 ff	 cmp	 DWORD PTR _value$[ebp], -1
  002e2	74 11		 je	 SHORT $LN55@process_ra
  002e4	8b 45 10	 mov	 eax, DWORD PTR _value$[ebp]
  002e7	c1 e0 04	 shl	 eax, 4
  002ea	03 05 00 00 00
	00		 add	 eax, DWORD PTR ?entities@@3PAUENTITY@@A ; entities
  002f0	89 45 b4	 mov	 DWORD PTR tv180[ebp], eax
  002f3	eb 07		 jmp	 SHORT $LN56@process_ra
$LN55@process_ra:
  002f5	c7 45 b4 00 00
	00 00		 mov	 DWORD PTR tv180[ebp], 0
$LN56@process_ra:
  002fc	8b 4d b4	 mov	 ecx, DWORD PTR tv180[ebp]
  002ff	89 4d fc	 mov	 DWORD PTR _group$[ebp], ecx

; 1079 : 
; 1080 : 			process_message_change_formation (en, group, FORMATION_ECHELON_LEFT);

  00302	6a 04		 push	 4
  00304	8b 45 fc	 mov	 eax, DWORD PTR _group$[ebp]
  00307	50		 push	 eax
  00308	8b 4d 08	 mov	 ecx, DWORD PTR _en$[ebp]
  0030b	51		 push	 ecx
  0030c	e8 00 00 00 00	 call	 ?process_message_change_formation@@YGXPAUENTITY@@0H@Z ; process_message_change_formation

; 1081 : 
; 1082 : 			break;

  00311	e9 7f 01 00 00	 jmp	 $LN1@process_ra
$LN19@process_ra:

; 1083 : 		}
; 1084 : 		case MESSAGE_GROUP_ECHELON_RIGHT:
; 1085 : 		{
; 1086 : 			group = get_local_entity_safe_ptr (value);

  00316	83 7d 10 ff	 cmp	 DWORD PTR _value$[ebp], -1
  0031a	74 11		 je	 SHORT $LN57@process_ra
  0031c	8b 45 10	 mov	 eax, DWORD PTR _value$[ebp]
  0031f	c1 e0 04	 shl	 eax, 4
  00322	03 05 00 00 00
	00		 add	 eax, DWORD PTR ?entities@@3PAUENTITY@@A ; entities
  00328	89 45 b4	 mov	 DWORD PTR tv187[ebp], eax
  0032b	eb 07		 jmp	 SHORT $LN58@process_ra
$LN57@process_ra:
  0032d	c7 45 b4 00 00
	00 00		 mov	 DWORD PTR tv187[ebp], 0
$LN58@process_ra:
  00334	8b 4d b4	 mov	 ecx, DWORD PTR tv187[ebp]
  00337	89 4d fc	 mov	 DWORD PTR _group$[ebp], ecx

; 1087 : 
; 1088 : 			process_message_change_formation (en, group, FORMATION_ECHELON_RIGHT);

  0033a	6a 05		 push	 5
  0033c	8b 45 fc	 mov	 eax, DWORD PTR _group$[ebp]
  0033f	50		 push	 eax
  00340	8b 4d 08	 mov	 ecx, DWORD PTR _en$[ebp]
  00343	51		 push	 ecx
  00344	e8 00 00 00 00	 call	 ?process_message_change_formation@@YGXPAUENTITY@@0H@Z ; process_message_change_formation

; 1089 : 
; 1090 : 			break;

  00349	e9 47 01 00 00	 jmp	 $LN1@process_ra
$LN20@process_ra:

; 1091 : 		}
; 1092 : 		case MESSAGE_GROUP_COLUMN:
; 1093 : 		{
; 1094 : 			group = get_local_entity_safe_ptr (value);

  0034e	83 7d 10 ff	 cmp	 DWORD PTR _value$[ebp], -1
  00352	74 11		 je	 SHORT $LN59@process_ra
  00354	8b 45 10	 mov	 eax, DWORD PTR _value$[ebp]
  00357	c1 e0 04	 shl	 eax, 4
  0035a	03 05 00 00 00
	00		 add	 eax, DWORD PTR ?entities@@3PAUENTITY@@A ; entities
  00360	89 45 b4	 mov	 DWORD PTR tv194[ebp], eax
  00363	eb 07		 jmp	 SHORT $LN60@process_ra
$LN59@process_ra:
  00365	c7 45 b4 00 00
	00 00		 mov	 DWORD PTR tv194[ebp], 0
$LN60@process_ra:
  0036c	8b 4d b4	 mov	 ecx, DWORD PTR tv194[ebp]
  0036f	89 4d fc	 mov	 DWORD PTR _group$[ebp], ecx

; 1095 : 
; 1096 : 			process_message_change_formation (en, group, FORMATION_COLUMN);

  00372	6a 06		 push	 6
  00374	8b 45 fc	 mov	 eax, DWORD PTR _group$[ebp]
  00377	50		 push	 eax
  00378	8b 4d 08	 mov	 ecx, DWORD PTR _en$[ebp]
  0037b	51		 push	 ecx
  0037c	e8 00 00 00 00	 call	 ?process_message_change_formation@@YGXPAUENTITY@@0H@Z ; process_message_change_formation

; 1097 : 
; 1098 : 			break;

  00381	e9 0f 01 00 00	 jmp	 $LN1@process_ra
$LN21@process_ra:

; 1099 : 		}
; 1100 : 		case MESSAGE_GROUP_WEDGE:
; 1101 : 		{
; 1102 : 			group = get_local_entity_safe_ptr (value);

  00386	83 7d 10 ff	 cmp	 DWORD PTR _value$[ebp], -1
  0038a	74 11		 je	 SHORT $LN61@process_ra
  0038c	8b 45 10	 mov	 eax, DWORD PTR _value$[ebp]
  0038f	c1 e0 04	 shl	 eax, 4
  00392	03 05 00 00 00
	00		 add	 eax, DWORD PTR ?entities@@3PAUENTITY@@A ; entities
  00398	89 45 b4	 mov	 DWORD PTR tv201[ebp], eax
  0039b	eb 07		 jmp	 SHORT $LN62@process_ra
$LN61@process_ra:
  0039d	c7 45 b4 00 00
	00 00		 mov	 DWORD PTR tv201[ebp], 0
$LN62@process_ra:
  003a4	8b 4d b4	 mov	 ecx, DWORD PTR tv201[ebp]
  003a7	89 4d fc	 mov	 DWORD PTR _group$[ebp], ecx

; 1103 : 
; 1104 : 			process_message_change_formation (en, group, FORMATION_WEDGE);

  003aa	6a 07		 push	 7
  003ac	8b 45 fc	 mov	 eax, DWORD PTR _group$[ebp]
  003af	50		 push	 eax
  003b0	8b 4d 08	 mov	 ecx, DWORD PTR _en$[ebp]
  003b3	51		 push	 ecx
  003b4	e8 00 00 00 00	 call	 ?process_message_change_formation@@YGXPAUENTITY@@0H@Z ; process_message_change_formation

; 1105 : 
; 1106 : 			break;

  003b9	e9 d7 00 00 00	 jmp	 $LN1@process_ra
$LN22@process_ra:

; 1107 : 	    }
; 1108 : //VJ 060305 three new formations for maverick ====>
; 1109 : 		case MESSAGE_GROUP_DIAMOND:
; 1110 : 		{
; 1111 : 			group = get_local_entity_safe_ptr (value);

  003be	83 7d 10 ff	 cmp	 DWORD PTR _value$[ebp], -1
  003c2	74 11		 je	 SHORT $LN63@process_ra
  003c4	8b 45 10	 mov	 eax, DWORD PTR _value$[ebp]
  003c7	c1 e0 04	 shl	 eax, 4
  003ca	03 05 00 00 00
	00		 add	 eax, DWORD PTR ?entities@@3PAUENTITY@@A ; entities
  003d0	89 45 b4	 mov	 DWORD PTR tv208[ebp], eax
  003d3	eb 07		 jmp	 SHORT $LN64@process_ra
$LN63@process_ra:
  003d5	c7 45 b4 00 00
	00 00		 mov	 DWORD PTR tv208[ebp], 0
$LN64@process_ra:
  003dc	8b 4d b4	 mov	 ecx, DWORD PTR tv208[ebp]
  003df	89 4d fc	 mov	 DWORD PTR _group$[ebp], ecx

; 1112 : 
; 1113 : 			process_message_change_formation (en, group, FORMATION_DIAMOND);

  003e2	6a 08		 push	 8
  003e4	8b 45 fc	 mov	 eax, DWORD PTR _group$[ebp]
  003e7	50		 push	 eax
  003e8	8b 4d 08	 mov	 ecx, DWORD PTR _en$[ebp]
  003eb	51		 push	 ecx
  003ec	e8 00 00 00 00	 call	 ?process_message_change_formation@@YGXPAUENTITY@@0H@Z ; process_message_change_formation

; 1114 : 
; 1115 : 			break;

  003f1	e9 9f 00 00 00	 jmp	 $LN1@process_ra
$LN23@process_ra:

; 1116 :         }
; 1117 : 		case MESSAGE_GROUP_STAGGERED_TRAIL_LEFT:
; 1118 : 		{
; 1119 : 			group = get_local_entity_safe_ptr (value);

  003f6	83 7d 10 ff	 cmp	 DWORD PTR _value$[ebp], -1
  003fa	74 11		 je	 SHORT $LN65@process_ra
  003fc	8b 45 10	 mov	 eax, DWORD PTR _value$[ebp]
  003ff	c1 e0 04	 shl	 eax, 4
  00402	03 05 00 00 00
	00		 add	 eax, DWORD PTR ?entities@@3PAUENTITY@@A ; entities
  00408	89 45 b4	 mov	 DWORD PTR tv215[ebp], eax
  0040b	eb 07		 jmp	 SHORT $LN66@process_ra
$LN65@process_ra:
  0040d	c7 45 b4 00 00
	00 00		 mov	 DWORD PTR tv215[ebp], 0
$LN66@process_ra:
  00414	8b 4d b4	 mov	 ecx, DWORD PTR tv215[ebp]
  00417	89 4d fc	 mov	 DWORD PTR _group$[ebp], ecx

; 1120 : 
; 1121 : 			process_message_change_formation (en, group, FORMATION_STAGGERED_TRAIL_LEFT);

  0041a	6a 09		 push	 9
  0041c	8b 45 fc	 mov	 eax, DWORD PTR _group$[ebp]
  0041f	50		 push	 eax
  00420	8b 4d 08	 mov	 ecx, DWORD PTR _en$[ebp]
  00423	51		 push	 ecx
  00424	e8 00 00 00 00	 call	 ?process_message_change_formation@@YGXPAUENTITY@@0H@Z ; process_message_change_formation

; 1122 : 
; 1123 : 			break;

  00429	eb 6a		 jmp	 SHORT $LN1@process_ra
$LN24@process_ra:

; 1124 :          }
; 1125 : 		case MESSAGE_GROUP_STAGGERED_TRAIL_RIGHT:
; 1126 : 		{
; 1127 : 			group = get_local_entity_safe_ptr (value);

  0042b	83 7d 10 ff	 cmp	 DWORD PTR _value$[ebp], -1
  0042f	74 11		 je	 SHORT $LN67@process_ra
  00431	8b 45 10	 mov	 eax, DWORD PTR _value$[ebp]
  00434	c1 e0 04	 shl	 eax, 4
  00437	03 05 00 00 00
	00		 add	 eax, DWORD PTR ?entities@@3PAUENTITY@@A ; entities
  0043d	89 45 b4	 mov	 DWORD PTR tv222[ebp], eax
  00440	eb 07		 jmp	 SHORT $LN68@process_ra
$LN67@process_ra:
  00442	c7 45 b4 00 00
	00 00		 mov	 DWORD PTR tv222[ebp], 0
$LN68@process_ra:
  00449	8b 4d b4	 mov	 ecx, DWORD PTR tv222[ebp]
  0044c	89 4d fc	 mov	 DWORD PTR _group$[ebp], ecx

; 1128 : 
; 1129 : 			process_message_change_formation (en, group, FORMATION_STAGGERED_TRAIL_RIGHT);

  0044f	6a 0a		 push	 10			; 0000000aH
  00451	8b 45 fc	 mov	 eax, DWORD PTR _group$[ebp]
  00454	50		 push	 eax
  00455	8b 4d 08	 mov	 ecx, DWORD PTR _en$[ebp]
  00458	51		 push	 ecx
  00459	e8 00 00 00 00	 call	 ?process_message_change_formation@@YGXPAUENTITY@@0H@Z ; process_message_change_formation

; 1130 : 
; 1131 : 			break;

  0045e	eb 35		 jmp	 SHORT $LN1@process_ra
$LN25@process_ra:

; 1132 : 
; 1133 : 		}
; 1134 : //VJ 060305 three new formations for maverick <====
; 1135 : 		case MESSAGE_LOCAL_BASE_REQUEST_AIRSTRIKE:
; 1136 : 		{
; 1137 : 			process_message_request_airstrike (en);

  00460	8b 45 08	 mov	 eax, DWORD PTR _en$[ebp]
  00463	50		 push	 eax
  00464	e8 00 00 00 00	 call	 ?process_message_request_airstrike@@YGXPAUENTITY@@@Z ; process_message_request_airstrike

; 1138 : 
; 1139 : 			break;

  00469	eb 2a		 jmp	 SHORT $LN1@process_ra
$LN26@process_ra:

; 1140 : 		}
; 1141 : 		case MESSAGE_LOCAL_BASE_REQUEST_ARTILLERY:
; 1142 : 		{
; 1143 : 			process_message_request_artillery (en);

  0046b	8b 45 08	 mov	 eax, DWORD PTR _en$[ebp]
  0046e	50		 push	 eax
  0046f	e8 00 00 00 00	 call	 ?process_message_request_artillery@@YGXPAUENTITY@@@Z ; process_message_request_artillery

; 1144 : 
; 1145 : 			break;

  00474	eb 1f		 jmp	 SHORT $LN1@process_ra
$LN27@process_ra:

; 1146 : 		}
; 1147 : 		case MESSAGE_LOCAL_BASE_REQUEST_ASSISTANCE:
; 1148 : 		{
; 1149 : 			process_message_request_assistance (en);

  00476	8b 45 08	 mov	 eax, DWORD PTR _en$[ebp]
  00479	50		 push	 eax
  0047a	e8 00 00 00 00	 call	 ?process_message_request_assistance@@YGXPAUENTITY@@@Z ; process_message_request_assistance

; 1150 : 
; 1151 : 			break;

  0047f	eb 14		 jmp	 SHORT $LN1@process_ra
$LN28@process_ra:

; 1152 : 		}
; 1153 : 		case MESSAGE_LOCAL_BASE_TRANSMIT_RECON:
; 1154 : 		{
; 1155 : 			transmit_player_recon_data (en);

  00481	8b 45 08	 mov	 eax, DWORD PTR _en$[ebp]
  00484	50		 push	 eax
  00485	e8 00 00 00 00	 call	 ?transmit_player_recon_data@@YGXPAUENTITY@@@Z ; transmit_player_recon_data

; 1156 : 
; 1157 : 			break;

  0048a	eb 09		 jmp	 SHORT $LN1@process_ra
$LN29@process_ra:

; 1158 : 		}
; 1159 : // Jabberwock 031119 CamCom MP compatible
; 1160 : 		case MESSAGE_LOCAL_BASE_CAMCOM_MESSAGE:
; 1161 : 		{
; 1162 : 			create_reaction_to_map_click (en);

  0048c	8b 45 08	 mov	 eax, DWORD PTR _en$[ebp]
  0048f	50		 push	 eax
  00490	e8 00 00 00 00	 call	 ?create_reaction_to_map_click@@YGXPAUENTITY@@@Z ; create_reaction_to_map_click
$LN1@process_ra:

; 1163 : 
; 1164 : 			break;
; 1165 : 		}
; 1166 : // Jabberwock 031119 ends
; 1167 : 	}
; 1168 : }

  00495	5f		 pop	 edi
  00496	5e		 pop	 esi
  00497	5b		 pop	 ebx
  00498	8b e5		 mov	 esp, ebp
  0049a	5d		 pop	 ebp
  0049b	c2 0c 00	 ret	 12			; 0000000cH
  0049e	66 90		 npad	 2
$LN69@process_ra:
  004a0	00 00 00 00	 DD	 $LN16@process_ra
  004a4	00 00 00 00	 DD	 $LN17@process_ra
  004a8	00 00 00 00	 DD	 $LN18@process_ra
  004ac	00 00 00 00	 DD	 $LN19@process_ra
  004b0	00 00 00 00	 DD	 $LN20@process_ra
  004b4	00 00 00 00	 DD	 $LN21@process_ra
  004b8	00 00 00 00	 DD	 $LN22@process_ra
  004bc	00 00 00 00	 DD	 $LN23@process_ra
  004c0	00 00 00 00	 DD	 $LN24@process_ra
  004c4	00 00 00 00	 DD	 $LN1@process_ra
  004c8	00 00 00 00	 DD	 $LN4@process_ra
  004cc	00 00 00 00	 DD	 $LN9@process_ra
  004d0	00 00 00 00	 DD	 $LN10@process_ra
  004d4	00 00 00 00	 DD	 $LN11@process_ra
  004d8	00 00 00 00	 DD	 $LN12@process_ra
  004dc	00 00 00 00	 DD	 $LN5@process_ra
  004e0	00 00 00 00	 DD	 $LN13@process_ra
  004e4	00 00 00 00	 DD	 $LN14@process_ra
  004e8	00 00 00 00	 DD	 $LN15@process_ra
  004ec	00 00 00 00	 DD	 $LN1@process_ra
  004f0	00 00 00 00	 DD	 $LN7@process_ra
  004f4	00 00 00 00	 DD	 $LN6@process_ra
  004f8	00 00 00 00	 DD	 $LN25@process_ra
  004fc	00 00 00 00	 DD	 $LN26@process_ra
  00500	00 00 00 00	 DD	 $LN27@process_ra
  00504	00 00 00 00	 DD	 $LN28@process_ra
  00508	00 00 00 00	 DD	 $LN29@process_ra
?process_radio_message@@YGXPAUENTITY@@W4MESSAGE_CATEGORIES@@H@Z ENDP ; process_radio_message
_TEXT	ENDS
; Function compile flags: /Odtp /ZI
; File c:\users\nhv90\projects\eech\aphavoc\source\misc\msg_in.c
;	COMDAT ?update_message_log@@YGXXZ
_TEXT	SEGMENT
?update_message_log@@YGXXZ PROC				; update_message_log, COMDAT

; 2425 : {

  00000	55		 push	 ebp
  00001	8b ec		 mov	 ebp, esp
  00003	83 ec 40	 sub	 esp, 64			; 00000040H
  00006	53		 push	 ebx
  00007	56		 push	 esi
  00008	57		 push	 edi

; 2426 : 	if (current_message != -1)

  00009	83 3d 00 00 00
	00 ff		 cmp	 DWORD PTR ?current_message@@3HA, -1
  00010	0f 84 ac 00 00
	00		 je	 $LN7@update_mes

; 2427 : 	{
; 2428 : 		ASSERT (message_log);

  00016	83 3d 00 00 00
	00 00		 cmp	 DWORD PTR ?message_log@@3PAUMESSAGE_LOG_TYPE@@A, 0
  0001d	75 18		 jne	 SHORT $LN3@update_mes
  0001f	a1 00 00 00 00	 mov	 eax, DWORD PTR ?__LINE__Var@?0??update_message_log@@YGXXZ@4JA
  00024	83 c0 03	 add	 eax, 3
  00027	50		 push	 eax
  00028	68 00 00 00 00	 push	 OFFSET ??_C@_0DK@BLKECLAG@c?3?2users?2nhv90?2projects?2eech?2ap@
  0002d	68 00 00 00 00	 push	 OFFSET ??_C@_0M@GPOJICPM@message_log@
  00032	e8 00 00 00 00	 call	 ?process_assert@@YGXPBD0H@Z ; process_assert
$LN3@update_mes:

; 2429 : 
; 2430 : 		ASSERT (num_messages > 0);

  00037	83 3d 00 00 00
	00 00		 cmp	 DWORD PTR ?num_messages@@3HA, 0
  0003e	7f 18		 jg	 SHORT $LN4@update_mes
  00040	a1 00 00 00 00	 mov	 eax, DWORD PTR ?__LINE__Var@?0??update_message_log@@YGXXZ@4JA
  00045	83 c0 05	 add	 eax, 5
  00048	50		 push	 eax
  00049	68 00 00 00 00	 push	 OFFSET ??_C@_0DK@BLKECLAG@c?3?2users?2nhv90?2projects?2eech?2ap@
  0004e	68 00 00 00 00	 push	 OFFSET ??_C@_0BB@BOOBNMON@num_messages?5?$DO?50@
  00053	e8 00 00 00 00	 call	 ?process_assert@@YGXPBD0H@Z ; process_assert
$LN4@update_mes:

; 2431 : 
; 2432 : 		ASSERT (current_message_timer > 0.0);

  00058	f3 0f 5a 05 00
	00 00 00	 cvtss2sd xmm0, DWORD PTR ?current_message_timer@@3MA
  00060	66 0f 2f 05 00
	00 00 00	 comisd	 xmm0, QWORD PTR __real@0000000000000000
  00068	77 18		 ja	 SHORT $LN5@update_mes
  0006a	a1 00 00 00 00	 mov	 eax, DWORD PTR ?__LINE__Var@?0??update_message_log@@YGXXZ@4JA
  0006f	83 c0 07	 add	 eax, 7
  00072	50		 push	 eax
  00073	68 00 00 00 00	 push	 OFFSET ??_C@_0DK@BLKECLAG@c?3?2users?2nhv90?2projects?2eech?2ap@
  00078	68 00 00 00 00	 push	 OFFSET ??_C@_0BM@INBLEPJA@current_message_timer?5?$DO?50?40@
  0007d	e8 00 00 00 00	 call	 ?process_assert@@YGXPBD0H@Z ; process_assert
$LN5@update_mes:

; 2433 : 
; 2434 : 		if (get_time_acceleration () != TIME_ACCELERATION_PAUSE)

  00082	e8 00 00 00 00	 call	 ?get_time_acceleration@@YGHXZ ; get_time_acceleration
  00087	85 c0		 test	 eax, eax
  00089	74 37		 je	 SHORT $LN7@update_mes

; 2435 : 		{
; 2436 : 			current_message_timer -= get_delta_time ();

  0008b	f3 0f 10 05 00
	00 00 00	 movss	 xmm0, DWORD PTR ?current_message_timer@@3MA
  00093	f3 0f 5c 05 00
	00 00 00	 subss	 xmm0, DWORD PTR ?system_delta_time@@3MA
  0009b	f3 0f 11 05 00
	00 00 00	 movss	 DWORD PTR ?current_message_timer@@3MA, xmm0

; 2437 : 
; 2438 : 			if (current_message_timer <= 0.0)

  000a3	f3 0f 5a 05 00
	00 00 00	 cvtss2sd xmm0, DWORD PTR ?current_message_timer@@3MA
  000ab	0f 57 c9	 xorps	 xmm1, xmm1
  000ae	66 0f 2f c8	 comisd	 xmm1, xmm0
  000b2	72 0e		 jb	 SHORT $LN7@update_mes

; 2439 : 			{
; 2440 : 				set_new_display_message (current_message + 1);

  000b4	a1 00 00 00 00	 mov	 eax, DWORD PTR ?current_message@@3HA
  000b9	83 c0 01	 add	 eax, 1
  000bc	50		 push	 eax
  000bd	e8 00 00 00 00	 call	 ?set_new_display_message@@YGXH@Z ; set_new_display_message
$LN7@update_mes:

; 2441 : 			}
; 2442 : 		}
; 2443 : 	}
; 2444 : }

  000c2	5f		 pop	 edi
  000c3	5e		 pop	 esi
  000c4	5b		 pop	 ebx
  000c5	8b e5		 mov	 esp, ebp
  000c7	5d		 pop	 ebp
  000c8	c3		 ret	 0
?update_message_log@@YGXXZ ENDP				; update_message_log
_TEXT	ENDS
; Function compile flags: /Odtp /ZI
; File c:\users\nhv90\projects\eech\aphavoc\source\misc\msg_in.c
;	COMDAT ?set_incoming_message@@YGXPAUENTITY@@0W4MESSAGE_TEXT_TYPES@@PAD@Z
_TEXT	SEGMENT
tv142 = -88						; size = 4
tv195 = -84						; size = 4
tv162 = -84						; size = 4
tv136 = -84						; size = 4
tv187 = -80						; size = 4
tv154 = -80						; size = 4
tv128 = -80						; size = 4
_subject$ = -12						; size = 4
_new_message$ = -8					; size = 4
_temp$ = -4						; size = 4
_sender$ = 8						; size = 4
_target$ = 12						; size = 4
_type$ = 16						; size = 4
_string$ = 20						; size = 4
?set_incoming_message@@YGXPAUENTITY@@0W4MESSAGE_TEXT_TYPES@@PAD@Z PROC ; set_incoming_message, COMDAT

; 866  : {

  00000	55		 push	 ebp
  00001	8b ec		 mov	 ebp, esp
  00003	83 ec 58	 sub	 esp, 88			; 00000058H
  00006	53		 push	 ebx
  00007	56		 push	 esi
  00008	57		 push	 edi

; 867  : 	message_log_type
; 868  : 		*temp,
; 869  : 		*new_message;
; 870  : 
; 871  : 	entity
; 872  : 		*subject;
; 873  : 
; 874  : 	//
; 875  : 	// check that this player SHOULD display the message
; 876  : 	//
; 877  : 
; 878  : 	if (!message_intended_for_recipient (sender, target, type))

  00009	8b 45 10	 mov	 eax, DWORD PTR _type$[ebp]
  0000c	50		 push	 eax
  0000d	8b 4d 0c	 mov	 ecx, DWORD PTR _target$[ebp]
  00010	51		 push	 ecx
  00011	8b 55 08	 mov	 edx, DWORD PTR _sender$[ebp]
  00014	52		 push	 edx
  00015	e8 00 00 00 00	 call	 ?message_intended_for_recipient@@YGHPAUENTITY@@0W4MESSAGE_TEXT_TYPES@@@Z ; message_intended_for_recipient
  0001a	85 c0		 test	 eax, eax
  0001c	75 05		 jne	 SHORT $LN2@set_incomi

; 879  : 	{
; 880  : 		return;

  0001e	e9 0e 03 00 00	 jmp	 $LN1@set_incomi
$LN2@set_incomi:

; 881  : 	}
; 882  : 
; 883  : 	//
; 884  : 	// Need more log space ?
; 885  : 	//
; 886  : 
; 887  : 	if (num_messages >= max_messages)

  00023	a1 00 00 00 00	 mov	 eax, DWORD PTR ?num_messages@@3HA
  00028	3b 05 00 00 00
	00		 cmp	 eax, DWORD PTR ?max_messages@@3HA
  0002e	7c 77		 jl	 SHORT $LN3@set_incomi

; 888  : 	{
; 889  : 		max_messages += MESSAGE_LIST_INC;

  00030	a1 00 00 00 00	 mov	 eax, DWORD PTR ?max_messages@@3HA
  00035	83 c0 64	 add	 eax, 100		; 00000064H
  00038	a3 00 00 00 00	 mov	 DWORD PTR ?max_messages@@3HA, eax

; 890  : 
; 891  : 		temp = (message_log_type *) malloc_heap_mem (sizeof (message_log_type) * max_messages);

  0003d	a1 00 00 00 00	 mov	 eax, DWORD PTR ?max_messages@@3HA
  00042	c1 e0 05	 shl	 eax, 5
  00045	50		 push	 eax
  00046	e8 00 00 00 00	 call	 ?malloc_heap_memory@@YGPAXI@Z ; malloc_heap_memory
  0004b	89 45 fc	 mov	 DWORD PTR _temp$[ebp], eax

; 892  : 
; 893  : 		if (num_messages > 0)

  0004e	83 3d 00 00 00
	00 00		 cmp	 DWORD PTR ?num_messages@@3HA, 0
  00055	7e 48		 jle	 SHORT $LN4@set_incomi

; 894  : 		{
; 895  : 			ASSERT (message_log);

  00057	83 3d 00 00 00
	00 00		 cmp	 DWORD PTR ?message_log@@3PAUMESSAGE_LOG_TYPE@@A, 0
  0005e	75 18		 jne	 SHORT $LN5@set_incomi
  00060	a1 00 00 00 00	 mov	 eax, DWORD PTR ?__LINE__Var@?0??set_incoming_message@@YGXPAUENTITY@@0W4MESSAGE_TEXT_TYPES@@PAD@Z@4JA
  00065	83 c0 1d	 add	 eax, 29			; 0000001dH
  00068	50		 push	 eax
  00069	68 00 00 00 00	 push	 OFFSET ??_C@_0DK@BLKECLAG@c?3?2users?2nhv90?2projects?2eech?2ap@
  0006e	68 00 00 00 00	 push	 OFFSET ??_C@_0M@GPOJICPM@message_log@
  00073	e8 00 00 00 00	 call	 ?process_assert@@YGXPBD0H@Z ; process_assert
$LN5@set_incomi:

; 896  : 
; 897  : 			memcpy (temp, message_log, sizeof (message_log_type) * num_messages);

  00078	a1 00 00 00 00	 mov	 eax, DWORD PTR ?num_messages@@3HA
  0007d	c1 e0 05	 shl	 eax, 5
  00080	50		 push	 eax
  00081	8b 0d 00 00 00
	00		 mov	 ecx, DWORD PTR ?message_log@@3PAUMESSAGE_LOG_TYPE@@A
  00087	51		 push	 ecx
  00088	8b 55 fc	 mov	 edx, DWORD PTR _temp$[ebp]
  0008b	52		 push	 edx
  0008c	e8 00 00 00 00	 call	 _memcpy
  00091	83 c4 0c	 add	 esp, 12			; 0000000cH

; 898  : 
; 899  : 			free_mem (message_log);

  00094	a1 00 00 00 00	 mov	 eax, DWORD PTR ?message_log@@3PAUMESSAGE_LOG_TYPE@@A
  00099	50		 push	 eax
  0009a	e8 00 00 00 00	 call	 ?free_mem@@YGXPAX@Z	; free_mem
$LN4@set_incomi:

; 900  : 		}
; 901  : 
; 902  : 		message_log = temp;

  0009f	8b 45 fc	 mov	 eax, DWORD PTR _temp$[ebp]
  000a2	a3 00 00 00 00	 mov	 DWORD PTR ?message_log@@3PAUMESSAGE_LOG_TYPE@@A, eax
$LN3@set_incomi:

; 903  : 	}
; 904  : 
; 905  : 	//
; 906  : 	// add to log
; 907  : 	//
; 908  : 
; 909  : 	new_message = &message_log [num_messages];

  000a7	a1 00 00 00 00	 mov	 eax, DWORD PTR ?num_messages@@3HA
  000ac	c1 e0 05	 shl	 eax, 5
  000af	03 05 00 00 00
	00		 add	 eax, DWORD PTR ?message_log@@3PAUMESSAGE_LOG_TYPE@@A
  000b5	89 45 f8	 mov	 DWORD PTR _new_message$[ebp], eax

; 910  : 
; 911  : 	new_message->type = type;

  000b8	8b 45 f8	 mov	 eax, DWORD PTR _new_message$[ebp]
  000bb	8b 4d 10	 mov	 ecx, DWORD PTR _type$[ebp]
  000be	89 08		 mov	 DWORD PTR [eax], ecx

; 912  : 
; 913  : 	if (get_session_entity ())

  000c0	83 3d 00 00 00
	00 00		 cmp	 DWORD PTR ?session_entity@@3PAUENTITY@@A, 0 ; session_entity
  000c7	0f 84 35 01 00
	00		 je	 $LN6@set_incomi

; 914  : 	{
; 915  : 		new_message->day = get_local_entity_int_value (get_session_entity (), INT_TYPE_DAY);

  000cd	83 3d 00 00 00
	00 00		 cmp	 DWORD PTR ?session_entity@@3PAUENTITY@@A, 0 ; session_entity
  000d4	74 0c		 je	 SHORT $LN12@set_incomi
  000d6	a1 00 00 00 00	 mov	 eax, DWORD PTR ?session_entity@@3PAUENTITY@@A ; session_entity
  000db	8b 08		 mov	 ecx, DWORD PTR [eax]
  000dd	89 4d b0	 mov	 DWORD PTR tv128[ebp], ecx
  000e0	eb 21		 jmp	 SHORT $LN13@set_incomi
$LN12@set_incomi:
  000e2	8b 15 00 00 00
	00		 mov	 edx, DWORD PTR ?__LINE__Var@?0??set_incoming_message@@YGXPAUENTITY@@0W4MESSAGE_TEXT_TYPES@@PAD@Z@4JA
  000e8	83 c2 31	 add	 edx, 49			; 00000031H
  000eb	52		 push	 edx
  000ec	68 00 00 00 00	 push	 OFFSET ??_C@_0DK@BLKECLAG@c?3?2users?2nhv90?2projects?2eech?2ap@
  000f1	a1 00 00 00 00	 mov	 eax, DWORD PTR ?null_entity_pointer_message@@3PBDB ; null_entity_pointer_message
  000f6	50		 push	 eax
  000f7	e8 00 00 00 00	 call	 ?process_assert@@YGXPBD0H@Z ; process_assert
  000fc	c7 45 b0 00 00
	00 00		 mov	 DWORD PTR tv128[ebp], 0
$LN13@set_incomi:
  00103	b9 01 00 00 00	 mov	 ecx, 1
  00108	85 c9		 test	 ecx, ecx
  0010a	74 09		 je	 SHORT $LN14@set_incomi
  0010c	c7 45 ac 26 00
	00 00		 mov	 DWORD PTR tv136[ebp], 38 ; 00000026H
  00113	eb 21		 jmp	 SHORT $LN15@set_incomi
$LN14@set_incomi:
  00115	8b 15 00 00 00
	00		 mov	 edx, DWORD PTR ?__LINE__Var@?0??set_incoming_message@@YGXPAUENTITY@@0W4MESSAGE_TEXT_TYPES@@PAD@Z@4JA
  0011b	83 c2 31	 add	 edx, 49			; 00000031H
  0011e	52		 push	 edx
  0011f	68 00 00 00 00	 push	 OFFSET ??_C@_0DK@BLKECLAG@c?3?2users?2nhv90?2projects?2eech?2ap@
  00124	a1 00 00 00 00	 mov	 eax, DWORD PTR ?overload_invalid_int_type_message@@3PBDB ; overload_invalid_int_type_message
  00129	50		 push	 eax
  0012a	e8 00 00 00 00	 call	 ?process_assert@@YGXPBD0H@Z ; process_assert
  0012f	c7 45 ac 00 00
	00 00		 mov	 DWORD PTR tv136[ebp], 0
$LN15@set_incomi:
  00136	6a 26		 push	 38			; 00000026H
  00138	8b 0d 00 00 00
	00		 mov	 ecx, DWORD PTR ?session_entity@@3PAUENTITY@@A ; session_entity
  0013e	51		 push	 ecx
  0013f	69 55 b0 5c 04
	00 00		 imul	 edx, DWORD PTR tv128[ebp], 1116
  00146	8b 45 ac	 mov	 eax, DWORD PTR tv136[ebp]
  00149	8b 8c 82 00 00
	00 00		 mov	 ecx, DWORD PTR ?fn_get_local_entity_int_value@@3PAY0BBH@P6GHPAUENTITY@@W4INT_TYPES@@@ZA[edx+eax*4]
  00150	ff d1		 call	 ecx
  00152	89 45 a8	 mov	 DWORD PTR tv142[ebp], eax
  00155	8b 55 a8	 mov	 edx, DWORD PTR tv142[ebp]
  00158	81 e2 ff ff 00
	00		 and	 edx, 65535		; 0000ffffH
  0015e	8b 45 f8	 mov	 eax, DWORD PTR _new_message$[ebp]
  00161	8b 48 04	 mov	 ecx, DWORD PTR [eax+4]
  00164	81 e1 00 00 ff
	ff		 and	 ecx, -65536		; ffff0000H
  0016a	0b ca		 or	 ecx, edx
  0016c	8b 55 f8	 mov	 edx, DWORD PTR _new_message$[ebp]
  0016f	89 4a 04	 mov	 DWORD PTR [edx+4], ecx

; 916  : 
; 917  : 		new_message->time_of_day = get_local_entity_float_value (get_session_entity (), FLOAT_TYPE_TIME_OF_DAY);

  00172	83 3d 00 00 00
	00 00		 cmp	 DWORD PTR ?session_entity@@3PAUENTITY@@A, 0 ; session_entity
  00179	74 0c		 je	 SHORT $LN16@set_incomi
  0017b	a1 00 00 00 00	 mov	 eax, DWORD PTR ?session_entity@@3PAUENTITY@@A ; session_entity
  00180	8b 08		 mov	 ecx, DWORD PTR [eax]
  00182	89 4d b0	 mov	 DWORD PTR tv154[ebp], ecx
  00185	eb 21		 jmp	 SHORT $LN17@set_incomi
$LN16@set_incomi:
  00187	8b 15 00 00 00
	00		 mov	 edx, DWORD PTR ?__LINE__Var@?0??set_incoming_message@@YGXPAUENTITY@@0W4MESSAGE_TEXT_TYPES@@PAD@Z@4JA
  0018d	83 c2 33	 add	 edx, 51			; 00000033H
  00190	52		 push	 edx
  00191	68 00 00 00 00	 push	 OFFSET ??_C@_0DK@BLKECLAG@c?3?2users?2nhv90?2projects?2eech?2ap@
  00196	a1 00 00 00 00	 mov	 eax, DWORD PTR ?null_entity_pointer_message@@3PBDB ; null_entity_pointer_message
  0019b	50		 push	 eax
  0019c	e8 00 00 00 00	 call	 ?process_assert@@YGXPBD0H@Z ; process_assert
  001a1	c7 45 b0 00 00
	00 00		 mov	 DWORD PTR tv154[ebp], 0
$LN17@set_incomi:
  001a8	b9 01 00 00 00	 mov	 ecx, 1
  001ad	85 c9		 test	 ecx, ecx
  001af	74 09		 je	 SHORT $LN18@set_incomi
  001b1	c7 45 ac 8e 00
	00 00		 mov	 DWORD PTR tv162[ebp], 142 ; 0000008eH
  001b8	eb 21		 jmp	 SHORT $LN19@set_incomi
$LN18@set_incomi:
  001ba	8b 15 00 00 00
	00		 mov	 edx, DWORD PTR ?__LINE__Var@?0??set_incoming_message@@YGXPAUENTITY@@0W4MESSAGE_TEXT_TYPES@@PAD@Z@4JA
  001c0	83 c2 33	 add	 edx, 51			; 00000033H
  001c3	52		 push	 edx
  001c4	68 00 00 00 00	 push	 OFFSET ??_C@_0DK@BLKECLAG@c?3?2users?2nhv90?2projects?2eech?2ap@
  001c9	a1 00 00 00 00	 mov	 eax, DWORD PTR ?overload_invalid_float_type_message@@3PBDB ; overload_invalid_float_type_message
  001ce	50		 push	 eax
  001cf	e8 00 00 00 00	 call	 ?process_assert@@YGXPBD0H@Z ; process_assert
  001d4	c7 45 ac 00 00
	00 00		 mov	 DWORD PTR tv162[ebp], 0
$LN19@set_incomi:
  001db	68 8e 00 00 00	 push	 142			; 0000008eH
  001e0	8b 0d 00 00 00
	00		 mov	 ecx, DWORD PTR ?session_entity@@3PAUENTITY@@A ; session_entity
  001e6	51		 push	 ecx
  001e7	69 55 b0 bc 02
	00 00		 imul	 edx, DWORD PTR tv154[ebp], 700
  001ee	8b 45 ac	 mov	 eax, DWORD PTR tv162[ebp]
  001f1	8b 8c 82 00 00
	00 00		 mov	 ecx, DWORD PTR ?fn_get_local_entity_float_value@@3PAY0KP@P6GMPAUENTITY@@W4FLOAT_TYPES@@@ZA[edx+eax*4]
  001f8	ff d1		 call	 ecx
  001fa	8b 55 f8	 mov	 edx, DWORD PTR _new_message$[ebp]
  001fd	d9 5a 08	 fstp	 DWORD PTR [edx+8]

; 918  : 	}
; 919  : 	else

  00200	eb 1d		 jmp	 SHORT $LN7@set_incomi
$LN6@set_incomi:

; 920  : 	{
; 921  : 		new_message->day = 0;

  00202	8b 45 f8	 mov	 eax, DWORD PTR _new_message$[ebp]
  00205	8b 48 04	 mov	 ecx, DWORD PTR [eax+4]
  00208	81 e1 00 00 ff
	ff		 and	 ecx, -65536		; ffff0000H
  0020e	8b 55 f8	 mov	 edx, DWORD PTR _new_message$[ebp]
  00211	89 4a 04	 mov	 DWORD PTR [edx+4], ecx

; 922  : 
; 923  : 		new_message->time_of_day = 0.0;

  00214	8b 45 f8	 mov	 eax, DWORD PTR _new_message$[ebp]
  00217	0f 57 c0	 xorps	 xmm0, xmm0
  0021a	f3 0f 11 40 08	 movss	 DWORD PTR [eax+8], xmm0
$LN7@set_incomi:

; 924  : 	}
; 925  : 
; 926  : 	subject = format_incoming_message (new_message, sender, target, string);

  0021f	8b 45 14	 mov	 eax, DWORD PTR _string$[ebp]
  00222	50		 push	 eax
  00223	8b 4d 0c	 mov	 ecx, DWORD PTR _target$[ebp]
  00226	51		 push	 ecx
  00227	8b 55 08	 mov	 edx, DWORD PTR _sender$[ebp]
  0022a	52		 push	 edx
  0022b	8b 45 f8	 mov	 eax, DWORD PTR _new_message$[ebp]
  0022e	50		 push	 eax
  0022f	e8 00 00 00 00	 call	 ?format_incoming_message@@YGPAUENTITY@@PAUMESSAGE_LOG_TYPE@@PAU1@1PAD@Z ; format_incoming_message
  00234	89 45 f4	 mov	 DWORD PTR _subject$[ebp], eax

; 927  : 
; 928  : 	num_messages ++;

  00237	a1 00 00 00 00	 mov	 eax, DWORD PTR ?num_messages@@3HA
  0023c	83 c0 01	 add	 eax, 1
  0023f	a3 00 00 00 00	 mov	 DWORD PTR ?num_messages@@3HA, eax

; 929  : 
; 930  : 	// Jabberwock 031129 Chat server log
; 931  : 	if ((type == MESSAGE_TEXT_PILOT_STRING) && (get_comms_model () == COMMS_MODEL_SERVER))

  00244	83 7d 10 08	 cmp	 DWORD PTR _type$[ebp], 8
  00248	0f 85 99 00 00
	00		 jne	 $LN8@set_incomi
  0024e	83 3d 00 00 00
	00 00		 cmp	 DWORD PTR ?system_comms_model@@3W4COMMS_MODEL_TYPES@@A, 0 ; system_comms_model
  00255	0f 85 8c 00 00
	00		 jne	 $LN8@set_incomi

; 932  : 	{
; 933  : 		server_log ("%s: %s", get_local_entity_string (sender, STRING_TYPE_PILOTS_NAME), string);

  0025b	83 7d 08 00	 cmp	 DWORD PTR _sender$[ebp], 0
  0025f	74 0a		 je	 SHORT $LN20@set_incomi
  00261	8b 45 08	 mov	 eax, DWORD PTR _sender$[ebp]
  00264	8b 08		 mov	 ecx, DWORD PTR [eax]
  00266	89 4d b0	 mov	 DWORD PTR tv187[ebp], ecx
  00269	eb 21		 jmp	 SHORT $LN21@set_incomi
$LN20@set_incomi:
  0026b	8b 15 00 00 00
	00		 mov	 edx, DWORD PTR ?__LINE__Var@?0??set_incoming_message@@YGXPAUENTITY@@0W4MESSAGE_TEXT_TYPES@@PAD@Z@4JA
  00271	83 c2 43	 add	 edx, 67			; 00000043H
  00274	52		 push	 edx
  00275	68 00 00 00 00	 push	 OFFSET ??_C@_0DK@BLKECLAG@c?3?2users?2nhv90?2projects?2eech?2ap@
  0027a	a1 00 00 00 00	 mov	 eax, DWORD PTR ?null_entity_pointer_message@@3PBDB ; null_entity_pointer_message
  0027f	50		 push	 eax
  00280	e8 00 00 00 00	 call	 ?process_assert@@YGXPBD0H@Z ; process_assert
  00285	c7 45 b0 00 00
	00 00		 mov	 DWORD PTR tv187[ebp], 0
$LN21@set_incomi:
  0028c	b9 01 00 00 00	 mov	 ecx, 1
  00291	85 c9		 test	 ecx, ecx
  00293	74 09		 je	 SHORT $LN22@set_incomi
  00295	c7 45 ac 0a 00
	00 00		 mov	 DWORD PTR tv195[ebp], 10 ; 0000000aH
  0029c	eb 21		 jmp	 SHORT $LN23@set_incomi
$LN22@set_incomi:
  0029e	8b 15 00 00 00
	00		 mov	 edx, DWORD PTR ?__LINE__Var@?0??set_incoming_message@@YGXPAUENTITY@@0W4MESSAGE_TEXT_TYPES@@PAD@Z@4JA
  002a4	83 c2 43	 add	 edx, 67			; 00000043H
  002a7	52		 push	 edx
  002a8	68 00 00 00 00	 push	 OFFSET ??_C@_0DK@BLKECLAG@c?3?2users?2nhv90?2projects?2eech?2ap@
  002ad	a1 00 00 00 00	 mov	 eax, DWORD PTR ?overload_invalid_string_type_message@@3PBDB ; overload_invalid_string_type_message
  002b2	50		 push	 eax
  002b3	e8 00 00 00 00	 call	 ?process_assert@@YGXPBD0H@Z ; process_assert
  002b8	c7 45 ac 00 00
	00 00		 mov	 DWORD PTR tv195[ebp], 0
$LN23@set_incomi:
  002bf	8b 4d 14	 mov	 ecx, DWORD PTR _string$[ebp]
  002c2	51		 push	 ecx
  002c3	6a 0a		 push	 10			; 0000000aH
  002c5	8b 55 08	 mov	 edx, DWORD PTR _sender$[ebp]
  002c8	52		 push	 edx
  002c9	6b 45 b0 34	 imul	 eax, DWORD PTR tv187[ebp], 52
  002cd	8b 4d ac	 mov	 ecx, DWORD PTR tv195[ebp]
  002d0	8b 94 88 00 00
	00 00		 mov	 edx, DWORD PTR ?fn_get_local_entity_string@@3PAY0N@P6GPBDPAUENTITY@@W4STRING_TYPES@@@ZA[eax+ecx*4]
  002d7	ff d2		 call	 edx
  002d9	50		 push	 eax
  002da	68 00 00 00 00	 push	 OFFSET ??_C@_06DJHOIPC@?$CFs?3?5?$CFs@
  002df	e8 00 00 00 00	 call	 ?server_log@@YAXPBDZZ	; server_log
  002e4	83 c4 0c	 add	 esp, 12			; 0000000cH
$LN8@set_incomi:

; 934  : 	}
; 935  : 
; 936  : 	if ((current_message == -1) || (message_text_info [type].skip_queue))

  002e7	83 3d 00 00 00
	00 ff		 cmp	 DWORD PTR ?current_message@@3HA, -1
  002ee	74 17		 je	 SHORT $LN10@set_incomi
  002f0	8b 45 10	 mov	 eax, DWORD PTR _type$[ebp]
  002f3	8a 0c c5 00 00
	00 00		 mov	 cl, BYTE PTR ?message_text_info@@3QBUMESSAGE_TEXT_INFO_TYPE@@B[eax*8]
  002fa	c0 e9 02	 shr	 cl, 2
  002fd	80 e1 01	 and	 cl, 1
  00300	0f b6 d1	 movzx	 edx, cl
  00303	85 d2		 test	 edx, edx
  00305	74 0e		 je	 SHORT $LN9@set_incomi
$LN10@set_incomi:

; 937  : 	{
; 938  : 		set_new_display_message (num_messages - 1);

  00307	a1 00 00 00 00	 mov	 eax, DWORD PTR ?num_messages@@3HA
  0030c	83 e8 01	 sub	 eax, 1
  0030f	50		 push	 eax
  00310	e8 00 00 00 00	 call	 ?set_new_display_message@@YGXH@Z ; set_new_display_message
$LN9@set_incomi:

; 939  : 	}
; 940  : 
; 941  : 	notify_campaign_screen (CAMPAIGN_SCREEN_NEW_MESSAGE, subject);

  00315	8b 45 f4	 mov	 eax, DWORD PTR _subject$[ebp]
  00318	50		 push	 eax
  00319	6a 0c		 push	 12			; 0000000cH
  0031b	e8 00 00 00 00	 call	 ?notify_campaign_screen@@YGHW4CAMPAIGN_SCREEN_MESSAGES@@PAUENTITY@@@Z ; notify_campaign_screen

; 942  : 
; 943  : 	set_message_objective_view_interest_level (sender, target, type);

  00320	8b 45 10	 mov	 eax, DWORD PTR _type$[ebp]
  00323	50		 push	 eax
  00324	8b 4d 0c	 mov	 ecx, DWORD PTR _target$[ebp]
  00327	51		 push	 ecx
  00328	8b 55 08	 mov	 edx, DWORD PTR _sender$[ebp]
  0032b	52		 push	 edx
  0032c	e8 00 00 00 00	 call	 ?set_message_objective_view_interest_level@@YGXPAUENTITY@@0W4MESSAGE_TEXT_TYPES@@@Z ; set_message_objective_view_interest_level
$LN1@set_incomi:

; 944  : }

  00331	5f		 pop	 edi
  00332	5e		 pop	 esi
  00333	5b		 pop	 ebx
  00334	8b e5		 mov	 esp, ebp
  00336	5d		 pop	 ebp
  00337	c2 10 00	 ret	 16			; 00000010H
?set_incoming_message@@YGXPAUENTITY@@0W4MESSAGE_TEXT_TYPES@@PAD@Z ENDP ; set_incoming_message
_TEXT	ENDS
; Function compile flags: /Odtp /ZI
; File c:\users\nhv90\projects\eech\aphavoc\source\misc\msg_in.c
;	COMDAT ?display_last_received_message@@YGXPAUEVENT@@@Z
_TEXT	SEGMENT
_arg$ = 8						; size = 4
?display_last_received_message@@YGXPAUEVENT@@@Z PROC	; display_last_received_message, COMDAT

; 951  : {

  00000	55		 push	 ebp
  00001	8b ec		 mov	 ebp, esp
  00003	83 ec 40	 sub	 esp, 64			; 00000040H
  00006	53		 push	 ebx
  00007	56		 push	 esi
  00008	57		 push	 edi

; 952  : 	if (message_log)

  00009	83 3d 00 00 00
	00 00		 cmp	 DWORD PTR ?message_log@@3PAUMESSAGE_LOG_TYPE@@A, 0
  00010	74 17		 je	 SHORT $LN1@display_la

; 953  : 	{
; 954  : 		if (current_message == -1)

  00012	83 3d 00 00 00
	00 ff		 cmp	 DWORD PTR ?current_message@@3HA, -1
  00019	75 0e		 jne	 SHORT $LN1@display_la

; 955  : 		{
; 956  : 			set_new_display_message (num_messages - 1);

  0001b	a1 00 00 00 00	 mov	 eax, DWORD PTR ?num_messages@@3HA
  00020	83 e8 01	 sub	 eax, 1
  00023	50		 push	 eax
  00024	e8 00 00 00 00	 call	 ?set_new_display_message@@YGXH@Z ; set_new_display_message
$LN1@display_la:

; 957  : 		}
; 958  : 	}
; 959  : }

  00029	5f		 pop	 edi
  0002a	5e		 pop	 esi
  0002b	5b		 pop	 ebx
  0002c	8b e5		 mov	 esp, ebp
  0002e	5d		 pop	 ebp
  0002f	c2 04 00	 ret	 4
?display_last_received_message@@YGXPAUEVENT@@@Z ENDP	; display_last_received_message
_TEXT	ENDS
; Function compile flags: /Odtp /ZI
; File c:\users\nhv90\projects\eech\aphavoc\source\misc\msg_in.c
;	COMDAT ?display_in_flight_incoming_messages@@YGXXZ
_TEXT	SEGMENT
_log$ = -20						; size = 4
_s$ = -16						; size = 4
_seconds$ = -12						; size = 4
_minutes$ = -8						; size = 4
_hours$ = -4						; size = 4
?display_in_flight_incoming_messages@@YGXXZ PROC	; display_in_flight_incoming_messages, COMDAT

; 2352 : {

  00000	55		 push	 ebp
  00001	8b ec		 mov	 ebp, esp
  00003	83 ec 54	 sub	 esp, 84			; 00000054H
  00006	53		 push	 ebx
  00007	56		 push	 esi
  00008	57		 push	 edi

; 2353 : 	int
; 2354 : 		hours,
; 2355 : 		minutes,
; 2356 : 		seconds;
; 2357 : 
; 2358 : 	char
; 2359 : 		*s;
; 2360 : 
; 2361 : 	message_log_type
; 2362 : 		*log;
; 2363 : 
; 2364 : 	if (command_line_disable_message_text)

  00009	83 3d 00 00 00
	00 00		 cmp	 DWORD PTR ?command_line_disable_message_text@@3HA, 0 ; command_line_disable_message_text
  00010	74 05		 je	 SHORT $LN2@display_in

; 2365 : 		return;

  00012	e9 68 01 00 00	 jmp	 $LN1@display_in
$LN2@display_in:

; 2366 : 
; 2367 : 	//
; 2368 : 	// Don't display message if status message active
; 2369 : 	//
; 2370 : 
; 2371 : 	if (get_status_message_displayed ())

  00017	e8 00 00 00 00	 call	 ?get_status_message_displayed@@YGHXZ ; get_status_message_displayed
  0001c	85 c0		 test	 eax, eax
  0001e	74 05		 je	 SHORT $LN3@display_in

; 2372 : 	{
; 2373 : 		return;

  00020	e9 5a 01 00 00	 jmp	 $LN1@display_in
$LN3@display_in:

; 2374 : 	}
; 2375 : 
; 2376 : 	//
; 2377 : 	// Display current message
; 2378 : 	//
; 2379 : 
; 2380 : 	log = get_current_display_message ();

  00025	e8 00 00 00 00	 call	 ?get_current_display_message@@YGPAUMESSAGE_LOG_TYPE@@XZ ; get_current_display_message
  0002a	89 45 ec	 mov	 DWORD PTR _log$[ebp], eax

; 2381 : 
; 2382 : 	if (log)

  0002d	83 7d ec 00	 cmp	 DWORD PTR _log$[ebp], 0
  00031	0f 84 48 01 00
	00		 je	 $LN4@display_in

; 2383 : 	{
; 2384 : 		ASSERT (message_log);

  00037	83 3d 00 00 00
	00 00		 cmp	 DWORD PTR ?message_log@@3PAUMESSAGE_LOG_TYPE@@A, 0
  0003e	75 18		 jne	 SHORT $LN5@display_in
  00040	a1 00 00 00 00	 mov	 eax, DWORD PTR ?__LINE__Var@?0??display_in_flight_incoming_messages@@YGXXZ@4JA
  00045	83 c0 20	 add	 eax, 32			; 00000020H
  00048	50		 push	 eax
  00049	68 00 00 00 00	 push	 OFFSET ??_C@_0DK@BLKECLAG@c?3?2users?2nhv90?2projects?2eech?2ap@
  0004e	68 00 00 00 00	 push	 OFFSET ??_C@_0M@GPOJICPM@message_log@
  00053	e8 00 00 00 00	 call	 ?process_assert@@YGXPBD0H@Z ; process_assert
$LN5@display_in:

; 2385 : 
; 2386 : 		ASSERT (num_messages > 0);

  00058	83 3d 00 00 00
	00 00		 cmp	 DWORD PTR ?num_messages@@3HA, 0
  0005f	7f 18		 jg	 SHORT $LN6@display_in
  00061	a1 00 00 00 00	 mov	 eax, DWORD PTR ?__LINE__Var@?0??display_in_flight_incoming_messages@@YGXXZ@4JA
  00066	83 c0 22	 add	 eax, 34			; 00000022H
  00069	50		 push	 eax
  0006a	68 00 00 00 00	 push	 OFFSET ??_C@_0DK@BLKECLAG@c?3?2users?2nhv90?2projects?2eech?2ap@
  0006f	68 00 00 00 00	 push	 OFFSET ??_C@_0BB@BOOBNMON@num_messages?5?$DO?50@
  00074	e8 00 00 00 00	 call	 ?process_assert@@YGXPBD0H@Z ; process_assert
$LN6@display_in:

; 2387 : 
; 2388 : 		ASSERT (current_message_timer > 0.0);

  00079	f3 0f 5a 05 00
	00 00 00	 cvtss2sd xmm0, DWORD PTR ?current_message_timer@@3MA
  00081	66 0f 2f 05 00
	00 00 00	 comisd	 xmm0, QWORD PTR __real@0000000000000000
  00089	77 18		 ja	 SHORT $LN7@display_in
  0008b	a1 00 00 00 00	 mov	 eax, DWORD PTR ?__LINE__Var@?0??display_in_flight_incoming_messages@@YGXXZ@4JA
  00090	83 c0 24	 add	 eax, 36			; 00000024H
  00093	50		 push	 eax
  00094	68 00 00 00 00	 push	 OFFSET ??_C@_0DK@BLKECLAG@c?3?2users?2nhv90?2projects?2eech?2ap@
  00099	68 00 00 00 00	 push	 OFFSET ??_C@_0BM@INBLEPJA@current_message_timer?5?$DO?50?40@
  0009e	e8 00 00 00 00	 call	 ?process_assert@@YGXPBD0H@Z ; process_assert
$LN7@display_in:

; 2389 : 
; 2390 : 		ASSERT (log->string);

  000a3	8b 45 ec	 mov	 eax, DWORD PTR _log$[ebp]
  000a6	83 78 1c 00	 cmp	 DWORD PTR [eax+28], 0
  000aa	75 18		 jne	 SHORT $LN8@display_in
  000ac	a1 00 00 00 00	 mov	 eax, DWORD PTR ?__LINE__Var@?0??display_in_flight_incoming_messages@@YGXXZ@4JA
  000b1	83 c0 26	 add	 eax, 38			; 00000026H
  000b4	50		 push	 eax
  000b5	68 00 00 00 00	 push	 OFFSET ??_C@_0DK@BLKECLAG@c?3?2users?2nhv90?2projects?2eech?2ap@
  000ba	68 00 00 00 00	 push	 OFFSET ??_C@_0M@FKGGNEFI@log?9?$DOstring@
  000bf	e8 00 00 00 00	 call	 ?process_assert@@YGXPBD0H@Z ; process_assert
$LN8@display_in:

; 2391 : 
; 2392 : 		//
; 2393 : 		// Don't display message if in-flight intelligence messages are disabled
; 2394 : 		//
; 2395 : 
; 2396 : 		if (!get_global_display_in_flight_intelligence_messages ())

  000c4	83 3d 70 03 00
	00 00		 cmp	 DWORD PTR ?global_options@@3UGLOBAL_OPTIONS_DATA@@A+880, 0
  000cb	75 15		 jne	 SHORT $LN10@display_in

; 2397 : 		{
; 2398 : 			if ((log->type != MESSAGE_TEXT_PILOT_STRING) && (log->type != MESSAGE_TEXT_WINGMAN_STRING))

  000cd	8b 45 ec	 mov	 eax, DWORD PTR _log$[ebp]
  000d0	83 38 08	 cmp	 DWORD PTR [eax], 8
  000d3	74 0d		 je	 SHORT $LN10@display_in
  000d5	8b 45 ec	 mov	 eax, DWORD PTR _log$[ebp]
  000d8	83 38 09	 cmp	 DWORD PTR [eax], 9
  000db	74 05		 je	 SHORT $LN10@display_in

; 2399 : 			{
; 2400 : 				return;

  000dd	e9 9d 00 00 00	 jmp	 $LN1@display_in
$LN10@display_in:

; 2401 : 			}
; 2402 : 		}
; 2403 : 
; 2404 : 		set_ui_font_type (UI_FONT_ARIAL_16);

  000e2	6a 03		 push	 3
  000e4	e8 00 00 00 00	 call	 ?set_ui_font_type@@YGXW4FONT_TYPES@@@Z ; set_ui_font_type

; 2405 : 
; 2406 : 		set_ui_font_colour (log->colour);

  000e9	8b 45 ec	 mov	 eax, DWORD PTR _log$[ebp]
  000ec	8b 48 18	 mov	 ecx, DWORD PTR [eax+24]
  000ef	51		 push	 ecx
  000f0	e8 00 00 00 00	 call	 ?set_ui_font_colour@@YGXUREAL_COLOUR@@@Z ; set_ui_font_colour

; 2407 : 
; 2408 : 		get_digital_clock_int_values (log->time_of_day, &hours, &minutes, &seconds);

  000f5	8d 45 f4	 lea	 eax, DWORD PTR _seconds$[ebp]
  000f8	50		 push	 eax
  000f9	8d 4d f8	 lea	 ecx, DWORD PTR _minutes$[ebp]
  000fc	51		 push	 ecx
  000fd	8d 55 fc	 lea	 edx, DWORD PTR _hours$[ebp]
  00100	52		 push	 edx
  00101	8b 45 ec	 mov	 eax, DWORD PTR _log$[ebp]
  00104	51		 push	 ecx
  00105	f3 0f 10 40 08	 movss	 xmm0, DWORD PTR [eax+8]
  0010a	f3 0f 11 04 24	 movss	 DWORD PTR [esp], xmm0
  0010f	e8 00 00 00 00	 call	 ?get_digital_clock_int_values@@YGXMPAH00@Z ; get_digital_clock_int_values

; 2409 : 
; 2410 : 		s = (char *) malloc_fast_mem (strlen (log->string) + 20);

  00114	8b 45 ec	 mov	 eax, DWORD PTR _log$[ebp]
  00117	8b 48 1c	 mov	 ecx, DWORD PTR [eax+28]
  0011a	51		 push	 ecx
  0011b	e8 00 00 00 00	 call	 _strlen
  00120	83 c4 04	 add	 esp, 4
  00123	83 c0 14	 add	 eax, 20			; 00000014H
  00126	50		 push	 eax
  00127	e8 00 00 00 00	 call	 ?malloc_fast_memory@@YGPAXI@Z ; malloc_fast_memory
  0012c	89 45 f0	 mov	 DWORD PTR _s$[ebp], eax

; 2411 : 
; 2412 : 		sprintf (s, "[%02d:%02d] %s", hours, minutes, log->string);

  0012f	8b 45 ec	 mov	 eax, DWORD PTR _log$[ebp]
  00132	8b 48 1c	 mov	 ecx, DWORD PTR [eax+28]
  00135	51		 push	 ecx
  00136	8b 55 f8	 mov	 edx, DWORD PTR _minutes$[ebp]
  00139	52		 push	 edx
  0013a	8b 45 fc	 mov	 eax, DWORD PTR _hours$[ebp]
  0013d	50		 push	 eax
  0013e	68 00 00 00 00	 push	 OFFSET ??_C@_0P@OKCGHNEC@?$FL?$CF02d?3?$CF02d?$FN?5?$CFs@
  00143	8b 4d f0	 mov	 ecx, DWORD PTR _s$[ebp]
  00146	51		 push	 ecx
  00147	e8 00 00 00 00	 call	 _sprintf
  0014c	83 c4 14	 add	 esp, 20			; 00000014H

; 2413 : 
; 2414 : 		ui_display_text (s, 2, 2);

  0014f	51		 push	 ecx
  00150	f3 0f 10 05 00
	00 00 00	 movss	 xmm0, DWORD PTR __real@40000000
  00158	f3 0f 11 04 24	 movss	 DWORD PTR [esp], xmm0
  0015d	51		 push	 ecx
  0015e	f3 0f 10 05 00
	00 00 00	 movss	 xmm0, DWORD PTR __real@40000000
  00166	f3 0f 11 04 24	 movss	 DWORD PTR [esp], xmm0
  0016b	8b 45 f0	 mov	 eax, DWORD PTR _s$[ebp]
  0016e	50		 push	 eax
  0016f	e8 00 00 00 00	 call	 ?ui_display_text@@YGMPBDMM@Z ; ui_display_text
  00174	dd d8		 fstp	 ST(0)

; 2415 : 
; 2416 : 		free_mem (s);

  00176	8b 45 f0	 mov	 eax, DWORD PTR _s$[ebp]
  00179	50		 push	 eax
  0017a	e8 00 00 00 00	 call	 ?free_mem@@YGXPAX@Z	; free_mem
$LN4@display_in:
$LN1@display_in:

; 2417 : 	}
; 2418 : }

  0017f	5f		 pop	 edi
  00180	5e		 pop	 esi
  00181	5b		 pop	 ebx
  00182	8b e5		 mov	 esp, ebp
  00184	5d		 pop	 ebp
  00185	c3		 ret	 0
?display_in_flight_incoming_messages@@YGXXZ ENDP	; display_in_flight_incoming_messages
_TEXT	ENDS
; Function compile flags: /Odtp /ZI
; File c:\users\nhv90\projects\eech\aphavoc\source\misc\msg_in.c
;	COMDAT ?get_incoming_in_flight_message_flag@@YGHXZ
_TEXT	SEGMENT
tv65 = -68						; size = 4
?get_incoming_in_flight_message_flag@@YGHXZ PROC	; get_incoming_in_flight_message_flag, COMDAT

; 2343 : {

  00000	55		 push	 ebp
  00001	8b ec		 mov	 ebp, esp
  00003	83 ec 44	 sub	 esp, 68			; 00000044H
  00006	53		 push	 ebx
  00007	56		 push	 esi
  00008	57		 push	 edi

; 2344 : 	return (current_message != -1);

  00009	83 3d 00 00 00
	00 ff		 cmp	 DWORD PTR ?current_message@@3HA, -1
  00010	74 09		 je	 SHORT $LN3@get_incomi
  00012	c7 45 bc 01 00
	00 00		 mov	 DWORD PTR tv65[ebp], 1
  00019	eb 07		 jmp	 SHORT $LN4@get_incomi
$LN3@get_incomi:
  0001b	c7 45 bc 00 00
	00 00		 mov	 DWORD PTR tv65[ebp], 0
$LN4@get_incomi:
  00022	8b 45 bc	 mov	 eax, DWORD PTR tv65[ebp]

; 2345 : }

  00025	5f		 pop	 edi
  00026	5e		 pop	 esi
  00027	5b		 pop	 ebx
  00028	8b e5		 mov	 esp, ebp
  0002a	5d		 pop	 ebp
  0002b	c3		 ret	 0
?get_incoming_in_flight_message_flag@@YGHXZ ENDP	; get_incoming_in_flight_message_flag
_TEXT	ENDS
; Function compile flags: /Odtp /ZI
; File c:\users\nhv90\projects\eech\aphavoc\source\misc\msg_in.c
;	COMDAT ?deinitialise_message_log@@YGXXZ
_TEXT	SEGMENT
_loop$ = -8						; size = 4
_log$ = -4						; size = 4
?deinitialise_message_log@@YGXXZ PROC			; deinitialise_message_log, COMDAT

; 200  : {

  00000	55		 push	 ebp
  00001	8b ec		 mov	 ebp, esp
  00003	83 ec 48	 sub	 esp, 72			; 00000048H
  00006	53		 push	 ebx
  00007	56		 push	 esi
  00008	57		 push	 edi

; 201  : 	message_log_type
; 202  : 		*log;
; 203  : 
; 204  : 	int
; 205  : 		loop;
; 206  : 
; 207  : 	if (message_log)

  00009	83 3d 00 00 00
	00 00		 cmp	 DWORD PTR ?message_log@@3PAUMESSAGE_LOG_TYPE@@A, 0
  00010	74 72		 je	 SHORT $LN5@deinitiali

; 208  : 	{
; 209  : 		for (loop = 0; loop < num_messages; loop ++)

  00012	c7 45 f8 00 00
	00 00		 mov	 DWORD PTR _loop$[ebp], 0
  00019	eb 09		 jmp	 SHORT $LN4@deinitiali
$LN2@deinitiali:
  0001b	8b 45 f8	 mov	 eax, DWORD PTR _loop$[ebp]
  0001e	83 c0 01	 add	 eax, 1
  00021	89 45 f8	 mov	 DWORD PTR _loop$[ebp], eax
$LN4@deinitiali:
  00024	8b 45 f8	 mov	 eax, DWORD PTR _loop$[ebp]
  00027	3b 05 00 00 00
	00		 cmp	 eax, DWORD PTR ?num_messages@@3HA
  0002d	7d 40		 jge	 SHORT $LN3@deinitiali

; 210  : 		{
; 211  : 			log = &message_log [loop];

  0002f	8b 45 f8	 mov	 eax, DWORD PTR _loop$[ebp]
  00032	c1 e0 05	 shl	 eax, 5
  00035	03 05 00 00 00
	00		 add	 eax, DWORD PTR ?message_log@@3PAUMESSAGE_LOG_TYPE@@A
  0003b	89 45 fc	 mov	 DWORD PTR _log$[ebp], eax

; 212  : 
; 213  : 			ASSERT (log);

  0003e	75 18		 jne	 SHORT $LN6@deinitiali
  00040	a1 00 00 00 00	 mov	 eax, DWORD PTR ?__LINE__Var@?0??deinitialise_message_log@@YGXXZ@4JA
  00045	83 c0 0d	 add	 eax, 13			; 0000000dH
  00048	50		 push	 eax
  00049	68 00 00 00 00	 push	 OFFSET ??_C@_0DK@BLKECLAG@c?3?2users?2nhv90?2projects?2eech?2ap@
  0004e	68 00 00 00 00	 push	 OFFSET ??_C@_03MGHMBJCF@log@
  00053	e8 00 00 00 00	 call	 ?process_assert@@YGXPBD0H@Z ; process_assert
$LN6@deinitiali:

; 214  : 
; 215  : 			if (log->string)

  00058	8b 45 fc	 mov	 eax, DWORD PTR _log$[ebp]
  0005b	83 78 1c 00	 cmp	 DWORD PTR [eax+28], 0
  0005f	74 0c		 je	 SHORT $LN7@deinitiali

; 216  : 			{
; 217  : 				free_mem (log->string);

  00061	8b 45 fc	 mov	 eax, DWORD PTR _log$[ebp]
  00064	8b 48 1c	 mov	 ecx, DWORD PTR [eax+28]
  00067	51		 push	 ecx
  00068	e8 00 00 00 00	 call	 ?free_mem@@YGXPAX@Z	; free_mem
$LN7@deinitiali:

; 218  : 			}
; 219  : 		}

  0006d	eb ac		 jmp	 SHORT $LN2@deinitiali
$LN3@deinitiali:

; 220  : 
; 221  : 		free_mem (message_log);

  0006f	a1 00 00 00 00	 mov	 eax, DWORD PTR ?message_log@@3PAUMESSAGE_LOG_TYPE@@A
  00074	50		 push	 eax
  00075	e8 00 00 00 00	 call	 ?free_mem@@YGXPAX@Z	; free_mem

; 222  : 
; 223  : 		message_log = NULL;

  0007a	c7 05 00 00 00
	00 00 00 00 00	 mov	 DWORD PTR ?message_log@@3PAUMESSAGE_LOG_TYPE@@A, 0
$LN5@deinitiali:

; 224  : 	}
; 225  : 
; 226  : 	clear_in_flight_received_message ();

  00084	e8 00 00 00 00	 call	 ?clear_in_flight_received_message@@YGXXZ ; clear_in_flight_received_message

; 227  : }

  00089	5f		 pop	 edi
  0008a	5e		 pop	 esi
  0008b	5b		 pop	 ebx
  0008c	8b e5		 mov	 esp, ebp
  0008e	5d		 pop	 ebp
  0008f	c3		 ret	 0
?deinitialise_message_log@@YGXXZ ENDP			; deinitialise_message_log
_TEXT	ENDS
; Function compile flags: /Odtp /ZI
; File c:\users\nhv90\projects\eech\aphavoc\source\misc\msg_in.c
;	COMDAT ?initialise_message_log@@YGXXZ
_TEXT	SEGMENT
?initialise_message_log@@YGXXZ PROC			; initialise_message_log, COMDAT

; 172  : {

  00000	55		 push	 ebp
  00001	8b ec		 mov	 ebp, esp
  00003	83 ec 40	 sub	 esp, 64			; 00000040H
  00006	53		 push	 ebx
  00007	56		 push	 esi
  00008	57		 push	 edi

; 173  : 	if (message_log)

  00009	83 3d 00 00 00
	00 00		 cmp	 DWORD PTR ?message_log@@3PAUMESSAGE_LOG_TYPE@@A, 0
  00010	74 05		 je	 SHORT $LN2@initialise

; 174  : 		deinitialise_message_log();

  00012	e8 00 00 00 00	 call	 ?deinitialise_message_log@@YGXXZ ; deinitialise_message_log
$LN2@initialise:

; 175  : 
; 176  : 	num_messages = 0;

  00017	c7 05 00 00 00
	00 00 00 00 00	 mov	 DWORD PTR ?num_messages@@3HA, 0

; 177  : 
; 178  : 	max_messages = 0;

  00021	c7 05 00 00 00
	00 00 00 00 00	 mov	 DWORD PTR ?max_messages@@3HA, 0

; 179  : 
; 180  : 	clear_in_flight_received_message ();

  0002b	e8 00 00 00 00	 call	 ?clear_in_flight_received_message@@YGXXZ ; clear_in_flight_received_message

; 181  : 
; 182  : 	message_side_colour [ENTITY_SIDE_NEUTRAL] = sys_col_white;

  00030	b8 04 00 00 00	 mov	 eax, 4
  00035	6b c8 00	 imul	 ecx, eax, 0
  00038	8b 15 00 00 00
	00		 mov	 edx, DWORD PTR ?sys_col_white@@3UREAL_COLOUR@@A ; sys_col_white
  0003e	89 91 00 00 00
	00		 mov	 DWORD PTR ?message_side_colour@@3PAUREAL_COLOUR@@A[ecx], edx

; 183  : 
; 184  : 	message_side_colour [ENTITY_SIDE_BLUE_FORCE].r = 60;

  00044	b8 04 00 00 00	 mov	 eax, 4
  00049	c1 e0 00	 shl	 eax, 0
  0004c	c6 80 02 00 00
	00 3c		 mov	 BYTE PTR ?message_side_colour@@3PAUREAL_COLOUR@@A[eax+2], 60 ; 0000003cH

; 185  : 	message_side_colour [ENTITY_SIDE_BLUE_FORCE].g = 78;

  00053	b8 04 00 00 00	 mov	 eax, 4
  00058	c1 e0 00	 shl	 eax, 0
  0005b	c6 80 01 00 00
	00 4e		 mov	 BYTE PTR ?message_side_colour@@3PAUREAL_COLOUR@@A[eax+1], 78 ; 0000004eH

; 186  : 	message_side_colour [ENTITY_SIDE_BLUE_FORCE].b = 255;

  00062	b8 04 00 00 00	 mov	 eax, 4
  00067	c1 e0 00	 shl	 eax, 0
  0006a	c6 80 00 00 00
	00 ff		 mov	 BYTE PTR ?message_side_colour@@3PAUREAL_COLOUR@@A[eax], 255 ; 000000ffH

; 187  : 	message_side_colour [ENTITY_SIDE_BLUE_FORCE].a = 255;

  00071	b8 04 00 00 00	 mov	 eax, 4
  00076	c1 e0 00	 shl	 eax, 0
  00079	c6 80 03 00 00
	00 ff		 mov	 BYTE PTR ?message_side_colour@@3PAUREAL_COLOUR@@A[eax+3], 255 ; 000000ffH

; 188  : 
; 189  : 	message_side_colour [ENTITY_SIDE_RED_FORCE].r = 255;

  00080	b8 04 00 00 00	 mov	 eax, 4
  00085	d1 e0		 shl	 eax, 1
  00087	c6 80 02 00 00
	00 ff		 mov	 BYTE PTR ?message_side_colour@@3PAUREAL_COLOUR@@A[eax+2], 255 ; 000000ffH

; 190  : 	message_side_colour [ENTITY_SIDE_RED_FORCE].g = 20;

  0008e	b8 04 00 00 00	 mov	 eax, 4
  00093	d1 e0		 shl	 eax, 1
  00095	c6 80 01 00 00
	00 14		 mov	 BYTE PTR ?message_side_colour@@3PAUREAL_COLOUR@@A[eax+1], 20 ; 00000014H

; 191  : 	message_side_colour [ENTITY_SIDE_RED_FORCE].b = 0;

  0009c	b8 04 00 00 00	 mov	 eax, 4
  000a1	d1 e0		 shl	 eax, 1
  000a3	c6 80 00 00 00
	00 00		 mov	 BYTE PTR ?message_side_colour@@3PAUREAL_COLOUR@@A[eax], 0

; 192  : 	message_side_colour [ENTITY_SIDE_RED_FORCE].a = 255;

  000aa	b8 04 00 00 00	 mov	 eax, 4
  000af	d1 e0		 shl	 eax, 1
  000b1	c6 80 03 00 00
	00 ff		 mov	 BYTE PTR ?message_side_colour@@3PAUREAL_COLOUR@@A[eax+3], 255 ; 000000ffH

; 193  : }

  000b8	5f		 pop	 edi
  000b9	5e		 pop	 esi
  000ba	5b		 pop	 ebx
  000bb	8b e5		 mov	 esp, ebp
  000bd	5d		 pop	 ebp
  000be	c3		 ret	 0
?initialise_message_log@@YGXXZ ENDP			; initialise_message_log
_TEXT	ENDS
; Function compile flags: /Odtp /ZI
; File c:\users\nhv90\projects\eech\aphavoc\source\misc\msg_in.c
;	COMDAT ?get_current_display_message@@YGPAUMESSAGE_LOG_TYPE@@XZ
_TEXT	SEGMENT
?get_current_display_message@@YGPAUMESSAGE_LOG_TYPE@@XZ PROC ; get_current_display_message, COMDAT

; 156  : {

  00000	55		 push	 ebp
  00001	8b ec		 mov	 ebp, esp
  00003	83 ec 40	 sub	 esp, 64			; 00000040H
  00006	53		 push	 ebx
  00007	56		 push	 esi
  00008	57		 push	 edi

; 157  : 	if (current_message == -1)

  00009	83 3d 00 00 00
	00 ff		 cmp	 DWORD PTR ?current_message@@3HA, -1
  00010	75 06		 jne	 SHORT $LN2@get_curren

; 158  : 	{
; 159  : 		return NULL;

  00012	33 c0		 xor	 eax, eax
  00014	eb 10		 jmp	 SHORT $LN1@get_curren

; 160  : 	}
; 161  : 	else

  00016	eb 0e		 jmp	 SHORT $LN1@get_curren
$LN2@get_curren:

; 162  : 	{
; 163  : 		return &message_log [current_message];

  00018	a1 00 00 00 00	 mov	 eax, DWORD PTR ?current_message@@3HA
  0001d	c1 e0 05	 shl	 eax, 5
  00020	03 05 00 00 00
	00		 add	 eax, DWORD PTR ?message_log@@3PAUMESSAGE_LOG_TYPE@@A
$LN1@get_curren:

; 164  : 	}
; 165  : }

  00026	5f		 pop	 edi
  00027	5e		 pop	 esi
  00028	5b		 pop	 ebx
  00029	8b e5		 mov	 esp, ebp
  0002b	5d		 pop	 ebp
  0002c	c3		 ret	 0
?get_current_display_message@@YGPAUMESSAGE_LOG_TYPE@@XZ ENDP ; get_current_display_message
_TEXT	ENDS
; Function compile flags: /Odtp /ZI
; File c:\users\nhv90\projects\eech\aphavoc\source\misc\msg_in.c
;	COMDAT ?get_message_log_number_of_messages@@YGHXZ
_TEXT	SEGMENT
?get_message_log_number_of_messages@@YGHXZ PROC		; get_message_log_number_of_messages, COMDAT

; 147  : {

  00000	55		 push	 ebp
  00001	8b ec		 mov	 ebp, esp
  00003	83 ec 40	 sub	 esp, 64			; 00000040H
  00006	53		 push	 ebx
  00007	56		 push	 esi
  00008	57		 push	 edi

; 148  : 	return num_messages;

  00009	a1 00 00 00 00	 mov	 eax, DWORD PTR ?num_messages@@3HA

; 149  : }

  0000e	5f		 pop	 edi
  0000f	5e		 pop	 esi
  00010	5b		 pop	 ebx
  00011	8b e5		 mov	 esp, ebp
  00013	5d		 pop	 ebp
  00014	c3		 ret	 0
?get_message_log_number_of_messages@@YGHXZ ENDP		; get_message_log_number_of_messages
_TEXT	ENDS
; Function compile flags: /Odtp /ZI
; File c:\users\nhv90\projects\eech\aphavoc\source\misc\msg_in.c
;	COMDAT ?get_message_log@@YGPAUMESSAGE_LOG_TYPE@@H@Z
_TEXT	SEGMENT
_index$ = 8						; size = 4
?get_message_log@@YGPAUMESSAGE_LOG_TYPE@@H@Z PROC	; get_message_log, COMDAT

; 136  : {

  00000	55		 push	 ebp
  00001	8b ec		 mov	 ebp, esp
  00003	83 ec 40	 sub	 esp, 64			; 00000040H
  00006	53		 push	 ebx
  00007	56		 push	 esi
  00008	57		 push	 edi

; 137  : 	ASSERT ((index >= 0) && (index < num_messages));

  00009	83 7d 08 00	 cmp	 DWORD PTR _index$[ebp], 0
  0000d	7c 0b		 jl	 SHORT $LN3@get_messag
  0000f	8b 45 08	 mov	 eax, DWORD PTR _index$[ebp]
  00012	3b 05 00 00 00
	00		 cmp	 eax, DWORD PTR ?num_messages@@3HA
  00018	7c 18		 jl	 SHORT $LN2@get_messag
$LN3@get_messag:
  0001a	a1 00 00 00 00	 mov	 eax, DWORD PTR ?__LINE__Var@?0??get_message_log@@YGPAUMESSAGE_LOG_TYPE@@H@Z@4JA
  0001f	83 c0 01	 add	 eax, 1
  00022	50		 push	 eax
  00023	68 00 00 00 00	 push	 OFFSET ??_C@_0DK@BLKECLAG@c?3?2users?2nhv90?2projects?2eech?2ap@
  00028	68 00 00 00 00	 push	 OFFSET ??_C@_0CH@MIBEIFCH@?$CIindex?5?$DO?$DN?50?$CJ?5?$CG?$CG?5?$CIindex?5?$DM?5num_me@
  0002d	e8 00 00 00 00	 call	 ?process_assert@@YGXPBD0H@Z ; process_assert
$LN2@get_messag:

; 138  : 
; 139  : 	return &message_log [index];

  00032	8b 45 08	 mov	 eax, DWORD PTR _index$[ebp]
  00035	c1 e0 05	 shl	 eax, 5
  00038	03 05 00 00 00
	00		 add	 eax, DWORD PTR ?message_log@@3PAUMESSAGE_LOG_TYPE@@A

; 140  : }

  0003e	5f		 pop	 edi
  0003f	5e		 pop	 esi
  00040	5b		 pop	 ebx
  00041	8b e5		 mov	 esp, ebp
  00043	5d		 pop	 ebp
  00044	c2 04 00	 ret	 4
?get_message_log@@YGPAUMESSAGE_LOG_TYPE@@H@Z ENDP	; get_message_log
_TEXT	ENDS
; Function compile flags: /Odtp /ZI
; File c:\program files (x86)\windows kits\10\include\10.0.18362.0\ucrt\stdio.h
;	COMDAT _sprintf_s
_TEXT	SEGMENT
__ArgList$ = -8						; size = 4
__Result$ = -4						; size = 4
__Buffer$ = 8						; size = 4
__BufferCount$ = 12					; size = 4
__Format$ = 16						; size = 4
_sprintf_s PROC						; COMDAT

; 1841 :         {

  00000	55		 push	 ebp
  00001	8b ec		 mov	 ebp, esp
  00003	83 ec 4c	 sub	 esp, 76			; 0000004cH
  00006	53		 push	 ebx
  00007	56		 push	 esi
  00008	57		 push	 edi

; 1842 :             int _Result;
; 1843 :             va_list _ArgList;
; 1844 :             __crt_va_start(_ArgList, _Format);

  00009	8d 45 14	 lea	 eax, DWORD PTR __Format$[ebp+4]
  0000c	89 45 f8	 mov	 DWORD PTR __ArgList$[ebp], eax

; 1845 :             _Result = _vsprintf_s_l(_Buffer, _BufferCount, _Format, NULL, _ArgList);

  0000f	8b 45 f8	 mov	 eax, DWORD PTR __ArgList$[ebp]
  00012	50		 push	 eax
  00013	6a 00		 push	 0
  00015	8b 4d 10	 mov	 ecx, DWORD PTR __Format$[ebp]
  00018	51		 push	 ecx
  00019	8b 55 0c	 mov	 edx, DWORD PTR __BufferCount$[ebp]
  0001c	52		 push	 edx
  0001d	8b 45 08	 mov	 eax, DWORD PTR __Buffer$[ebp]
  00020	50		 push	 eax
  00021	e8 00 00 00 00	 call	 __vsprintf_s_l
  00026	83 c4 14	 add	 esp, 20			; 00000014H
  00029	89 45 fc	 mov	 DWORD PTR __Result$[ebp], eax

; 1846 :             __crt_va_end(_ArgList);

  0002c	c7 45 f8 00 00
	00 00		 mov	 DWORD PTR __ArgList$[ebp], 0

; 1847 :             return _Result;

  00033	8b 45 fc	 mov	 eax, DWORD PTR __Result$[ebp]

; 1848 :         }

  00036	5f		 pop	 edi
  00037	5e		 pop	 esi
  00038	5b		 pop	 ebx
  00039	8b e5		 mov	 esp, ebp
  0003b	5d		 pop	 ebp
  0003c	c3		 ret	 0
_sprintf_s ENDP
_TEXT	ENDS
; Function compile flags: /Odtp /ZI
; File c:\program files (x86)\windows kits\10\include\10.0.18362.0\ucrt\stdio.h
;	COMDAT _sprintf
_TEXT	SEGMENT
__ArgList$ = -8						; size = 4
__Result$ = -4						; size = 4
__Buffer$ = 8						; size = 4
__Format$ = 12						; size = 4
_sprintf PROC						; COMDAT

; 1781 :     {

  00000	55		 push	 ebp
  00001	8b ec		 mov	 ebp, esp
  00003	83 ec 4c	 sub	 esp, 76			; 0000004cH
  00006	53		 push	 ebx
  00007	56		 push	 esi
  00008	57		 push	 edi

; 1782 :         int _Result;
; 1783 :         va_list _ArgList;
; 1784 :         __crt_va_start(_ArgList, _Format);

  00009	8d 45 10	 lea	 eax, DWORD PTR __Format$[ebp+4]
  0000c	89 45 f8	 mov	 DWORD PTR __ArgList$[ebp], eax

; 1785 : 
; 1786 :         #pragma warning(push)
; 1787 :         #pragma warning(disable: 4996) // Deprecation
; 1788 :         _Result = _vsprintf_l(_Buffer, _Format, NULL, _ArgList);

  0000f	8b 45 f8	 mov	 eax, DWORD PTR __ArgList$[ebp]
  00012	50		 push	 eax
  00013	6a 00		 push	 0
  00015	8b 4d 0c	 mov	 ecx, DWORD PTR __Format$[ebp]
  00018	51		 push	 ecx
  00019	8b 55 08	 mov	 edx, DWORD PTR __Buffer$[ebp]
  0001c	52		 push	 edx
  0001d	e8 00 00 00 00	 call	 __vsprintf_l
  00022	83 c4 10	 add	 esp, 16			; 00000010H
  00025	89 45 fc	 mov	 DWORD PTR __Result$[ebp], eax

; 1789 :         #pragma warning(pop)
; 1790 : 
; 1791 :         __crt_va_end(_ArgList);

  00028	c7 45 f8 00 00
	00 00		 mov	 DWORD PTR __ArgList$[ebp], 0

; 1792 :         return _Result;

  0002f	8b 45 fc	 mov	 eax, DWORD PTR __Result$[ebp]

; 1793 :     }

  00032	5f		 pop	 edi
  00033	5e		 pop	 esi
  00034	5b		 pop	 ebx
  00035	8b e5		 mov	 esp, ebp
  00037	5d		 pop	 ebp
  00038	c3		 ret	 0
_sprintf ENDP
_TEXT	ENDS
; Function compile flags: /Odtp /ZI
; File c:\program files (x86)\windows kits\10\include\10.0.18362.0\ucrt\stdio.h
;	COMDAT __vsprintf_s_l
_TEXT	SEGMENT
tv73 = -72						; size = 4
__Result$ = -4						; size = 4
__Buffer$ = 8						; size = 4
__BufferCount$ = 12					; size = 4
__Format$ = 16						; size = 4
__Locale$ = 20						; size = 4
__ArgList$ = 24						; size = 4
__vsprintf_s_l PROC					; COMDAT

; 1497 :     {

  00000	55		 push	 ebp
  00001	8b ec		 mov	 ebp, esp
  00003	83 ec 48	 sub	 esp, 72			; 00000048H
  00006	53		 push	 ebx
  00007	56		 push	 esi
  00008	57		 push	 edi

; 1498 :         int const _Result = __stdio_common_vsprintf_s(

  00009	8b 45 18	 mov	 eax, DWORD PTR __ArgList$[ebp]
  0000c	50		 push	 eax
  0000d	8b 4d 14	 mov	 ecx, DWORD PTR __Locale$[ebp]
  00010	51		 push	 ecx
  00011	8b 55 10	 mov	 edx, DWORD PTR __Format$[ebp]
  00014	52		 push	 edx
  00015	8b 45 0c	 mov	 eax, DWORD PTR __BufferCount$[ebp]
  00018	50		 push	 eax
  00019	8b 4d 08	 mov	 ecx, DWORD PTR __Buffer$[ebp]
  0001c	51		 push	 ecx
  0001d	e8 00 00 00 00	 call	 ___local_stdio_printf_options
  00022	8b 50 04	 mov	 edx, DWORD PTR [eax+4]
  00025	52		 push	 edx
  00026	8b 00		 mov	 eax, DWORD PTR [eax]
  00028	50		 push	 eax
  00029	ff 15 00 00 00
	00		 call	 DWORD PTR __imp____stdio_common_vsprintf_s
  0002f	83 c4 1c	 add	 esp, 28			; 0000001cH
  00032	89 45 fc	 mov	 DWORD PTR __Result$[ebp], eax

; 1499 :             _CRT_INTERNAL_LOCAL_PRINTF_OPTIONS,
; 1500 :             _Buffer, _BufferCount, _Format, _Locale, _ArgList);
; 1501 : 
; 1502 :         return _Result < 0 ? -1 : _Result;

  00035	83 7d fc 00	 cmp	 DWORD PTR __Result$[ebp], 0
  00039	7d 09		 jge	 SHORT $LN3@vsprintf_s
  0003b	c7 45 b8 ff ff
	ff ff		 mov	 DWORD PTR tv73[ebp], -1
  00042	eb 06		 jmp	 SHORT $LN4@vsprintf_s
$LN3@vsprintf_s:
  00044	8b 45 fc	 mov	 eax, DWORD PTR __Result$[ebp]
  00047	89 45 b8	 mov	 DWORD PTR tv73[ebp], eax
$LN4@vsprintf_s:
  0004a	8b 45 b8	 mov	 eax, DWORD PTR tv73[ebp]

; 1503 :     }

  0004d	5f		 pop	 edi
  0004e	5e		 pop	 esi
  0004f	5b		 pop	 ebx
  00050	8b e5		 mov	 esp, ebp
  00052	5d		 pop	 ebp
  00053	c3		 ret	 0
__vsprintf_s_l ENDP
_TEXT	ENDS
; Function compile flags: /Odtp /ZI
; File c:\program files (x86)\windows kits\10\include\10.0.18362.0\ucrt\stdio.h
;	COMDAT __vsprintf_l
_TEXT	SEGMENT
__Buffer$ = 8						; size = 4
__Format$ = 12						; size = 4
__Locale$ = 16						; size = 4
__ArgList$ = 20						; size = 4
__vsprintf_l PROC					; COMDAT

; 1459 :     {

  00000	55		 push	 ebp
  00001	8b ec		 mov	 ebp, esp
  00003	83 ec 40	 sub	 esp, 64			; 00000040H
  00006	53		 push	 ebx
  00007	56		 push	 esi
  00008	57		 push	 edi

; 1460 :         #pragma warning(push)
; 1461 :         #pragma warning(disable: 4996) // Deprecation
; 1462 :         return _vsnprintf_l(_Buffer, (size_t)-1, _Format, _Locale, _ArgList);

  00009	8b 45 14	 mov	 eax, DWORD PTR __ArgList$[ebp]
  0000c	50		 push	 eax
  0000d	8b 4d 10	 mov	 ecx, DWORD PTR __Locale$[ebp]
  00010	51		 push	 ecx
  00011	8b 55 0c	 mov	 edx, DWORD PTR __Format$[ebp]
  00014	52		 push	 edx
  00015	6a ff		 push	 -1
  00017	8b 45 08	 mov	 eax, DWORD PTR __Buffer$[ebp]
  0001a	50		 push	 eax
  0001b	e8 00 00 00 00	 call	 __vsnprintf_l
  00020	83 c4 14	 add	 esp, 20			; 00000014H

; 1463 :         #pragma warning(pop)
; 1464 :     }

  00023	5f		 pop	 edi
  00024	5e		 pop	 esi
  00025	5b		 pop	 ebx
  00026	8b e5		 mov	 esp, ebp
  00028	5d		 pop	 ebp
  00029	c3		 ret	 0
__vsprintf_l ENDP
_TEXT	ENDS
; Function compile flags: /Odtp /ZI
; File c:\program files (x86)\windows kits\10\include\10.0.18362.0\ucrt\stdio.h
;	COMDAT __vsnprintf_l
_TEXT	SEGMENT
tv74 = -72						; size = 4
__Result$ = -4						; size = 4
__Buffer$ = 8						; size = 4
__BufferCount$ = 12					; size = 4
__Format$ = 16						; size = 4
__Locale$ = 20						; size = 4
__ArgList$ = 24						; size = 4
__vsnprintf_l PROC					; COMDAT

; 1389 :     {

  00000	55		 push	 ebp
  00001	8b ec		 mov	 ebp, esp
  00003	83 ec 48	 sub	 esp, 72			; 00000048H
  00006	53		 push	 ebx
  00007	56		 push	 esi
  00008	57		 push	 edi

; 1390 :         int const _Result = __stdio_common_vsprintf(

  00009	8b 45 18	 mov	 eax, DWORD PTR __ArgList$[ebp]
  0000c	50		 push	 eax
  0000d	8b 4d 14	 mov	 ecx, DWORD PTR __Locale$[ebp]
  00010	51		 push	 ecx
  00011	8b 55 10	 mov	 edx, DWORD PTR __Format$[ebp]
  00014	52		 push	 edx
  00015	8b 45 0c	 mov	 eax, DWORD PTR __BufferCount$[ebp]
  00018	50		 push	 eax
  00019	8b 4d 08	 mov	 ecx, DWORD PTR __Buffer$[ebp]
  0001c	51		 push	 ecx
  0001d	e8 00 00 00 00	 call	 ___local_stdio_printf_options
  00022	8b 10		 mov	 edx, DWORD PTR [eax]
  00024	83 ca 01	 or	 edx, 1
  00027	8b 40 04	 mov	 eax, DWORD PTR [eax+4]
  0002a	50		 push	 eax
  0002b	52		 push	 edx
  0002c	ff 15 00 00 00
	00		 call	 DWORD PTR __imp____stdio_common_vsprintf
  00032	83 c4 1c	 add	 esp, 28			; 0000001cH
  00035	89 45 fc	 mov	 DWORD PTR __Result$[ebp], eax

; 1391 :             _CRT_INTERNAL_LOCAL_PRINTF_OPTIONS | _CRT_INTERNAL_PRINTF_LEGACY_VSPRINTF_NULL_TERMINATION,
; 1392 :             _Buffer, _BufferCount, _Format, _Locale, _ArgList);
; 1393 : 
; 1394 :         return _Result < 0 ? -1 : _Result;

  00038	83 7d fc 00	 cmp	 DWORD PTR __Result$[ebp], 0
  0003c	7d 09		 jge	 SHORT $LN3@vsnprintf_
  0003e	c7 45 b8 ff ff
	ff ff		 mov	 DWORD PTR tv74[ebp], -1
  00045	eb 06		 jmp	 SHORT $LN4@vsnprintf_
$LN3@vsnprintf_:
  00047	8b 45 fc	 mov	 eax, DWORD PTR __Result$[ebp]
  0004a	89 45 b8	 mov	 DWORD PTR tv74[ebp], eax
$LN4@vsnprintf_:
  0004d	8b 45 b8	 mov	 eax, DWORD PTR tv74[ebp]

; 1395 :     }

  00050	5f		 pop	 edi
  00051	5e		 pop	 esi
  00052	5b		 pop	 ebx
  00053	8b e5		 mov	 esp, ebp
  00055	5d		 pop	 ebp
  00056	c3		 ret	 0
__vsnprintf_l ENDP
_TEXT	ENDS
; Function compile flags: /Odtp /ZI
; File c:\program files (x86)\windows kits\10\include\10.0.18362.0\ucrt\corecrt_stdio_config.h
;	COMDAT ___local_stdio_printf_options
_TEXT	SEGMENT
___local_stdio_printf_options PROC			; COMDAT

; 86   :     {

  00000	55		 push	 ebp
  00001	8b ec		 mov	 ebp, esp
  00003	83 ec 40	 sub	 esp, 64			; 00000040H
  00006	53		 push	 ebx
  00007	56		 push	 esi
  00008	57		 push	 edi

; 87   :         static unsigned __int64 _OptionsStorage;
; 88   :         return &_OptionsStorage;

  00009	b8 00 00 00 00	 mov	 eax, OFFSET ?_OptionsStorage@?1??__local_stdio_printf_options@@9@4_KA ; `__local_stdio_printf_options'::`2'::_OptionsStorage

; 89   :     }

  0000e	5f		 pop	 edi
  0000f	5e		 pop	 esi
  00010	5b		 pop	 ebx
  00011	8b e5		 mov	 esp, ebp
  00013	5d		 pop	 ebp
  00014	c3		 ret	 0
___local_stdio_printf_options ENDP
_TEXT	ENDS
END
