; Listing generated by Microsoft (R) Optimizing Compiler Version 19.16.27045.0 

	TITLE	C:\Users\nhv90\Projects\eech\aphavoc\source\ui_menu\multiop\mult_sc.c
	.686P
	.XMM
	include listing.inc
	.model	flat

INCLUDELIB MSVCRTD
INCLUDELIB OLDNAMES

PUBLIC	?multi_player_setup_area@@3PAUUI_OBJECT@@A	; multi_player_setup_area
PUBLIC	?connection_type_bdrop@@3PAUUI_OBJECT@@A	; connection_type_bdrop
PUBLIC	?connection_type_button@@3PAUUI_OBJECT@@A	; connection_type_button
PUBLIC	?serial_parameters_area@@3PAUUI_OBJECT@@A	; serial_parameters_area
PUBLIC	?modem_parameters_area@@3PAUUI_OBJECT@@A	; modem_parameters_area
PUBLIC	?tcpip_parameters_area@@3PAUUI_OBJECT@@A	; tcpip_parameters_area
PUBLIC	?ip_address_text_obj@@3PAUUI_OBJECT@@A		; ip_address_text_obj
PUBLIC	?com_port_button@@3PAUUI_OBJECT@@A		; com_port_button
PUBLIC	?baud_rate_button@@3PAUUI_OBJECT@@A		; baud_rate_button
PUBLIC	?stop_bits_button@@3PAUUI_OBJECT@@A		; stop_bits_button
PUBLIC	?parity_button@@3PAUUI_OBJECT@@A		; parity_button
PUBLIC	?flow_button@@3PAUUI_OBJECT@@A			; flow_button
PUBLIC	?serial_status_text@@3PAUUI_OBJECT@@A		; serial_status_text
PUBLIC	?modem_type_button@@3PAUUI_OBJECT@@A		; modem_type_button
PUBLIC	?ghost_multiplayer_modem_area@@3PAUUI_OBJECT@@A	; ghost_multiplayer_modem_area
PUBLIC	?ghost_multiplayer_modem_area2@@3PAUUI_OBJECT@@A ; ghost_multiplayer_modem_area2
PUBLIC	?phone_number_text_obj@@3PAUUI_OBJECT@@A	; phone_number_text_obj
PUBLIC	?modem_call_buttons_area@@3PAUUI_OBJECT@@A	; modem_call_buttons_area
PUBLIC	?modem_answer_button@@3PAUUI_OBJECT@@A		; modem_answer_button
PUBLIC	?modem_dial_button@@3PAUUI_OBJECT@@A		; modem_dial_button
PUBLIC	?modem_cancel_button@@3PAUUI_OBJECT@@A		; modem_cancel_button
PUBLIC	?modem_status_text@@3PAUUI_OBJECT@@A		; modem_status_text
PUBLIC	?baud_rate_text@@3PAPBDA			; baud_rate_text
PUBLIC	?stop_bits_text@@3PAPBDA			; stop_bits_text
PUBLIC	?parity_text@@3PAPBDA				; parity_text
PUBLIC	?flow_text@@3PAPBDA				; flow_text
PUBLIC	?connection_type_area@@3PAUUI_OBJECT@@A		; connection_type_area
PUBLIC	?ip_address_title@@3PAUUI_OBJECT@@A		; ip_address_title
PUBLIC	?ip_address_text_area@@3PAUUI_OBJECT@@A		; ip_address_text_area
PUBLIC	?ip_address_text_input@@3PAUUI_OBJECT@@A	; ip_address_text_input
PUBLIC	?com_port_area@@3PAUUI_OBJECT@@A		; com_port_area
PUBLIC	?baud_rate_area@@3PAUUI_OBJECT@@A		; baud_rate_area
PUBLIC	?stop_bits_area@@3PAUUI_OBJECT@@A		; stop_bits_area
PUBLIC	?parity_area@@3PAUUI_OBJECT@@A			; parity_area
PUBLIC	?flow_area@@3PAUUI_OBJECT@@A			; flow_area
PUBLIC	?modem_type_area@@3PAUUI_OBJECT@@A		; modem_type_area
PUBLIC	?phone_number_area@@3PAUUI_OBJECT@@A		; phone_number_area
PUBLIC	?phone_number_text_area@@3PAUUI_OBJECT@@A	; phone_number_text_area
PUBLIC	?phone_number_text_input@@3PAUUI_OBJECT@@A	; phone_number_text_input
_BSS	SEGMENT
?multi_player_setup_area@@3PAUUI_OBJECT@@A DD 01H DUP (?) ; multi_player_setup_area
?connection_type_bdrop@@3PAUUI_OBJECT@@A DD 01H DUP (?)	; connection_type_bdrop
?connection_type_button@@3PAUUI_OBJECT@@A DD 01H DUP (?) ; connection_type_button
?serial_parameters_area@@3PAUUI_OBJECT@@A DD 01H DUP (?) ; serial_parameters_area
?modem_parameters_area@@3PAUUI_OBJECT@@A DD 01H DUP (?)	; modem_parameters_area
?tcpip_parameters_area@@3PAUUI_OBJECT@@A DD 01H DUP (?)	; tcpip_parameters_area
?ip_address_text_obj@@3PAUUI_OBJECT@@A DD 01H DUP (?)	; ip_address_text_obj
?com_port_button@@3PAUUI_OBJECT@@A DD 01H DUP (?)	; com_port_button
?baud_rate_button@@3PAUUI_OBJECT@@A DD 01H DUP (?)	; baud_rate_button
?stop_bits_button@@3PAUUI_OBJECT@@A DD 01H DUP (?)	; stop_bits_button
?parity_button@@3PAUUI_OBJECT@@A DD 01H DUP (?)		; parity_button
?flow_button@@3PAUUI_OBJECT@@A DD 01H DUP (?)		; flow_button
?serial_status_text@@3PAUUI_OBJECT@@A DD 01H DUP (?)	; serial_status_text
?modem_type_button@@3PAUUI_OBJECT@@A DD 01H DUP (?)	; modem_type_button
?ghost_multiplayer_modem_area@@3PAUUI_OBJECT@@A DD 01H DUP (?) ; ghost_multiplayer_modem_area
?ghost_multiplayer_modem_area2@@3PAUUI_OBJECT@@A DD 01H DUP (?) ; ghost_multiplayer_modem_area2
?phone_number_text_obj@@3PAUUI_OBJECT@@A DD 01H DUP (?)	; phone_number_text_obj
?modem_call_buttons_area@@3PAUUI_OBJECT@@A DD 01H DUP (?) ; modem_call_buttons_area
?modem_answer_button@@3PAUUI_OBJECT@@A DD 01H DUP (?)	; modem_answer_button
?modem_dial_button@@3PAUUI_OBJECT@@A DD 01H DUP (?)	; modem_dial_button
?modem_cancel_button@@3PAUUI_OBJECT@@A DD 01H DUP (?)	; modem_cancel_button
?modem_status_text@@3PAUUI_OBJECT@@A DD 01H DUP (?)	; modem_status_text
?baud_rate_text@@3PAPBDA DD 04H DUP (?)			; baud_rate_text
?stop_bits_text@@3PAPBDA DD 03H DUP (?)			; stop_bits_text
?parity_text@@3PAPBDA DD 04H DUP (?)			; parity_text
?flow_text@@3PAPBDA DD 05H DUP (?)			; flow_text
?connection_type_area@@3PAUUI_OBJECT@@A DD 01H DUP (?)	; connection_type_area
?ip_address_title@@3PAUUI_OBJECT@@A DD 01H DUP (?)	; ip_address_title
?ip_address_text_area@@3PAUUI_OBJECT@@A DD 01H DUP (?)	; ip_address_text_area
?ip_address_text_input@@3PAUUI_OBJECT@@A DD 01H DUP (?)	; ip_address_text_input
?com_port_area@@3PAUUI_OBJECT@@A DD 01H DUP (?)		; com_port_area
?baud_rate_area@@3PAUUI_OBJECT@@A DD 01H DUP (?)	; baud_rate_area
?stop_bits_area@@3PAUUI_OBJECT@@A DD 01H DUP (?)	; stop_bits_area
?parity_area@@3PAUUI_OBJECT@@A DD 01H DUP (?)		; parity_area
?flow_area@@3PAUUI_OBJECT@@A DD 01H DUP (?)		; flow_area
?modem_type_area@@3PAUUI_OBJECT@@A DD 01H DUP (?)	; modem_type_area
?phone_number_area@@3PAUUI_OBJECT@@A DD 01H DUP (?)	; phone_number_area
?phone_number_text_area@@3PAUUI_OBJECT@@A DD 01H DUP (?) ; phone_number_text_area
?phone_number_text_input@@3PAUUI_OBJECT@@A DD 01H DUP (?) ; phone_number_text_input
_BSS	ENDS
PUBLIC	___local_stdio_printf_options
PUBLIC	__vsnprintf_l
PUBLIC	__vsprintf_l
PUBLIC	_sprintf
PUBLIC	?define_multi_player_setup_objects@@YGXXZ	; define_multi_player_setup_objects
PUBLIC	?_OptionsStorage@?1??__local_stdio_printf_options@@9@4_KA ; `__local_stdio_printf_options'::`2'::_OptionsStorage
PUBLIC	??_C@_05IMCFLDOK@19200@				; `string'
PUBLIC	??_C@_05NJOGGEIN@38400@				; `string'
PUBLIC	??_C@_05CHOGNIMK@57600@				; `string'
PUBLIC	??_C@_06GLGPIONA@115200@			; `string'
PUBLIC	??_C@_01HIHLOKLC@1@				; `string'
PUBLIC	??_C@_03GMOBGHL@1?45@				; `string'
PUBLIC	??_C@_01FDFGLJHB@2@				; `string'
PUBLIC	??_C@_04OHJIHAFH@None@				; `string'
PUBLIC	??_C@_04FCPIGPHJ@Even@				; `string'
PUBLIC	??_C@_03FDIDKFNH@Odd@				; `string'
PUBLIC	??_C@_04MLFIAKCO@Mark@				; `string'
PUBLIC	??_C@_08OABPCCJP@Xon?1Xoff@			; `string'
PUBLIC	??_C@_03EFJMGPDB@RTS@				; `string'
PUBLIC	??_C@_03CJPFFGDD@DTR@				; `string'
PUBLIC	??_C@_07GEIBKNNF@RTS?1DTR@			; `string'
PUBLIC	??_C@_07JALDKKPP@MP_DIAL@			; `string'
PUBLIC	??_C@_09HMHNFDHB@MP_CANCEL@			; `string'
PUBLIC	??_C@_09IJPOFMKJ@MP_ANSWER@			; `string'
PUBLIC	??_C@_0M@JPGKCLFJ@MP_COM_PORT@			; `string'
PUBLIC	??_C@_0N@FJCLHDKK@MP_BAUD_RATE@			; `string'
PUBLIC	??_C@_0N@LADGABMG@MP_STOP_BITS@			; `string'
PUBLIC	??_C@_09MKLHGAJG@MP_PARITY@			; `string'
PUBLIC	??_C@_0N@CFDAGFAL@MP_HANDSHAKE@			; `string'
PUBLIC	??_C@_08PIAFACLK@MP_MODEM@			; `string'
PUBLIC	??_C@_0BA@OIGPLOE@MP_PHONE_NUMBER@		; `string'
PUBLIC	??_C@_0O@DEHCCMMB@MP_CONNECTION@		; `string'
PUBLIC	??_C@_0O@PGFHKNKC@MP_IP_ADDRESS@		; `string'
PUBLIC	??_C@_00CNPNBAHC@@				; `string'
PUBLIC	??_C@_0P@LBOGGNGK@MP_INITIALISED@		; `string'
PUBLIC	??_C@_09NGFKAJIO@MP_STATUS@			; `string'
PUBLIC	??_C@_06DJHOIPC@?$CFs?3?5?$CFs@			; `string'
PUBLIC	??_C@_0P@INKGIJFC@MP_UNCONNECTED@		; `string'
PUBLIC	??_C@_02DPKJAMEF@?$CFd@				; `string'
PUBLIC	__real@3b2a64c3
PUBLIC	__real@3c03126f
PUBLIC	__real@3d7df3b6
PUBLIC	__real@3def9db2
PUBLIC	__real@3e2d0e56
PUBLIC	__real@3e49ba5e
PUBLIC	__real@3e800000
PUBLIC	__real@3e851eb8
PUBLIC	__real@3f2b645a
PUBLIC	__real@3f800000
PUBLIC	__real@3fa3333333333333
PUBLIC	__real@3fadb22d00000000
PUBLIC	__real@3fb978d4f999999a
PUBLIC	__real@3fbba5e360000000
PUBLIC	__real@3fc24dd300000000
PUBLIC	__real@3fc5a1cac0000000
PUBLIC	__real@3fd3126ea0000000
PUBLIC	__real@3fdcccccc0000000
PUBLIC	__real@3fee666660000000
PUBLIC	__real@3ff0000000000000
EXTRN	__imp____stdio_common_vsprintf:PROC
EXTRN	_strlen:PROC
EXTRN	?ui_force_update@@YGXXZ:PROC			; ui_force_update
EXTRN	?create_ui_object@@YAPAUUI_OBJECT@@HZZ:PROC	; create_ui_object
EXTRN	?recursively_set_object_time@@YGXPAUUI_OBJECT@@HH@Z:PROC ; recursively_set_object_time
EXTRN	?set_toggle_button_off@@YGXPAUUI_OBJECT@@@Z:PROC ; set_toggle_button_off
EXTRN	?get_trans@@YGPBDPBD@Z:PROC			; get_trans
EXTRN	?set_serial_connection_status@@YGXXZ:PROC	; set_serial_connection_status
EXTRN	?notify_modem_cancel_function@@YGXPAUUI_OBJECT@@PAX@Z:PROC ; notify_modem_cancel_function
EXTRN	?notify_modem_dial_function@@YGXPAUUI_OBJECT@@PAX@Z:PROC ; notify_modem_dial_function
EXTRN	?notify_modem_answer_function@@YGXPAUUI_OBJECT@@PAX@Z:PROC ; notify_modem_answer_function
EXTRN	?notify_connection_type_button@@YGXPAUUI_OBJECT@@PAX@Z:PROC ; notify_connection_type_button
EXTRN	?install_global_options_service_provider@@YGXXZ:PROC ; install_global_options_service_provider
EXTRN	?preprocess_translation_object_size@@YGXPAUUI_OBJECT@@0PAPBDHW4RESIZE_UI_OBJECT_TYPES@@@Z:PROC ; preprocess_translation_object_size
EXTRN	?modem_name_list@@3PAUMODEM_NAMES@@A:DWORD	; modem_name_list
EXTRN	?fn_get_ui_object_x_end@@3PAP6GMPAUUI_OBJECT@@@ZA:BYTE ; fn_get_ui_object_x_end
EXTRN	?fn_get_ui_object_y_end@@3PAP6GMPAUUI_OBJECT@@@ZA:BYTE ; fn_get_ui_object_y_end
EXTRN	?fn_get_ui_object_x_size_end@@3PAP6GMPAUUI_OBJECT@@@ZA:BYTE ; fn_get_ui_object_x_size_end
EXTRN	?fn_set_ui_object_virtual_x_size@@3PAP6GXPAUUI_OBJECT@@M@ZA:BYTE ; fn_set_ui_object_virtual_x_size
EXTRN	?fn_get_ui_object_virtual_y_size@@3PAP6GMPAUUI_OBJECT@@@ZA:BYTE ; fn_get_ui_object_virtual_y_size
EXTRN	?fn_set_ui_object_state@@3PAP6GXPAUUI_OBJECT@@H@ZA:BYTE ; fn_set_ui_object_state
EXTRN	?fn_set_ui_object_drawable@@3PAP6GXPAUUI_OBJECT@@H@ZA:BYTE ; fn_set_ui_object_drawable
EXTRN	?fn_set_ui_object_item_number@@3PAP6GXPAUUI_OBJECT@@H@ZA:BYTE ; fn_set_ui_object_item_number
EXTRN	?fn_get_ui_object_item_number@@3PAP6GHPAUUI_OBJECT@@@ZA:BYTE ; fn_get_ui_object_item_number
EXTRN	?fn_set_ui_object_text@@3PAP6GXPAUUI_OBJECT@@PBD@ZA:BYTE ; fn_set_ui_object_text
EXTRN	?fn_get_ui_object_text@@3PAP6GPBDPAUUI_OBJECT@@@ZA:BYTE ; fn_get_ui_object_text
EXTRN	?fn_set_ui_object_texture_graphic@@3PAP6GXPAUUI_OBJECT@@PAUTEXTURE_GRAPHIC@@@ZA:BYTE ; fn_set_ui_object_texture_graphic
EXTRN	?ui_option_title_text_colour@@3UREAL_COLOUR@@A:DWORD ; ui_option_title_text_colour
EXTRN	?ui_option_text_default_colour@@3UREAL_COLOUR@@A:DWORD ; ui_option_text_default_colour
EXTRN	?ui_option_text_hilite_colour@@3UREAL_COLOUR@@A:DWORD ; ui_option_text_hilite_colour
EXTRN	?global_options@@3UGLOBAL_OPTIONS_DATA@@A:BYTE	; global_options
EXTRN	?options_box_small@@3PAUTEXTURE_GRAPHIC@@A:DWORD ; options_box_small
EXTRN	?options_box_medium@@3PAUTEXTURE_GRAPHIC@@A:DWORD ; options_box_medium
EXTRN	?options_box_large@@3PAUTEXTURE_GRAPHIC@@A:DWORD ; options_box_large
EXTRN	?options_box_extra_large@@3PAUTEXTURE_GRAPHIC@@A:DWORD ; options_box_extra_large
EXTRN	?current_modem@@3PAUMODEM_NAMES@@A:DWORD	; current_modem
EXTRN	?options_screen@@3PAUUI_OBJECT@@A:DWORD		; options_screen
EXTRN	__fltused:DWORD
;	COMDAT ?_OptionsStorage@?1??__local_stdio_printf_options@@9@4_KA
_BSS	SEGMENT
?_OptionsStorage@?1??__local_stdio_printf_options@@9@4_KA DQ 01H DUP (?) ; `__local_stdio_printf_options'::`2'::_OptionsStorage
_BSS	ENDS
;	COMDAT __real@3ff0000000000000
CONST	SEGMENT
__real@3ff0000000000000 DQ 03ff0000000000000r	; 1
CONST	ENDS
;	COMDAT __real@3fee666660000000
CONST	SEGMENT
__real@3fee666660000000 DQ 03fee666660000000r	; 0.95
CONST	ENDS
;	COMDAT __real@3fdcccccc0000000
CONST	SEGMENT
__real@3fdcccccc0000000 DQ 03fdcccccc0000000r	; 0.45
CONST	ENDS
;	COMDAT __real@3fd3126ea0000000
CONST	SEGMENT
__real@3fd3126ea0000000 DQ 03fd3126ea0000000r	; 0.298
CONST	ENDS
;	COMDAT __real@3fc5a1cac0000000
CONST	SEGMENT
__real@3fc5a1cac0000000 DQ 03fc5a1cac0000000r	; 0.169
CONST	ENDS
;	COMDAT __real@3fc24dd300000000
CONST	SEGMENT
__real@3fc24dd300000000 DQ 03fc24dd300000000r	; 0.143
CONST	ENDS
;	COMDAT __real@3fbba5e360000000
CONST	SEGMENT
__real@3fbba5e360000000 DQ 03fbba5e360000000r	; 0.108
CONST	ENDS
;	COMDAT __real@3fb978d4f999999a
CONST	SEGMENT
__real@3fb978d4f999999a DQ 03fb978d4f999999ar	; 0.0995
CONST	ENDS
;	COMDAT __real@3fadb22d00000000
CONST	SEGMENT
__real@3fadb22d00000000 DQ 03fadb22d00000000r	; 0.058
CONST	ENDS
;	COMDAT __real@3fa3333333333333
CONST	SEGMENT
__real@3fa3333333333333 DQ 03fa3333333333333r	; 0.0375
CONST	ENDS
;	COMDAT __real@3f800000
CONST	SEGMENT
__real@3f800000 DD 03f800000r			; 1
CONST	ENDS
;	COMDAT __real@3f2b645a
CONST	SEGMENT
__real@3f2b645a DD 03f2b645ar			; 0.6695
CONST	ENDS
;	COMDAT __real@3e851eb8
CONST	SEGMENT
__real@3e851eb8 DD 03e851eb8r			; 0.26
CONST	ENDS
;	COMDAT __real@3e800000
CONST	SEGMENT
__real@3e800000 DD 03e800000r			; 0.25
CONST	ENDS
;	COMDAT __real@3e49ba5e
CONST	SEGMENT
__real@3e49ba5e DD 03e49ba5er			; 0.197
CONST	ENDS
;	COMDAT __real@3e2d0e56
CONST	SEGMENT
__real@3e2d0e56 DD 03e2d0e56r			; 0.169
CONST	ENDS
;	COMDAT __real@3def9db2
CONST	SEGMENT
__real@3def9db2 DD 03def9db2r			; 0.117
CONST	ENDS
;	COMDAT __real@3d7df3b6
CONST	SEGMENT
__real@3d7df3b6 DD 03d7df3b6r			; 0.062
CONST	ENDS
;	COMDAT __real@3c03126f
CONST	SEGMENT
__real@3c03126f DD 03c03126fr			; 0.008
CONST	ENDS
;	COMDAT __real@3b2a64c3
CONST	SEGMENT
__real@3b2a64c3 DD 03b2a64c3r			; 0.0026
CONST	ENDS
;	COMDAT ??_C@_02DPKJAMEF@?$CFd@
CONST	SEGMENT
??_C@_02DPKJAMEF@?$CFd@ DB '%d', 00H			; `string'
CONST	ENDS
;	COMDAT ??_C@_0P@INKGIJFC@MP_UNCONNECTED@
CONST	SEGMENT
??_C@_0P@INKGIJFC@MP_UNCONNECTED@ DB 'MP_UNCONNECTED', 00H ; `string'
CONST	ENDS
;	COMDAT ??_C@_06DJHOIPC@?$CFs?3?5?$CFs@
CONST	SEGMENT
??_C@_06DJHOIPC@?$CFs?3?5?$CFs@ DB '%s: %s', 00H	; `string'
CONST	ENDS
;	COMDAT ??_C@_09NGFKAJIO@MP_STATUS@
CONST	SEGMENT
??_C@_09NGFKAJIO@MP_STATUS@ DB 'MP_STATUS', 00H		; `string'
CONST	ENDS
;	COMDAT ??_C@_0P@LBOGGNGK@MP_INITIALISED@
CONST	SEGMENT
??_C@_0P@LBOGGNGK@MP_INITIALISED@ DB 'MP_INITIALISED', 00H ; `string'
CONST	ENDS
;	COMDAT ??_C@_00CNPNBAHC@@
CONST	SEGMENT
??_C@_00CNPNBAHC@@ DB 00H				; `string'
CONST	ENDS
;	COMDAT ??_C@_0O@PGFHKNKC@MP_IP_ADDRESS@
CONST	SEGMENT
??_C@_0O@PGFHKNKC@MP_IP_ADDRESS@ DB 'MP_IP_ADDRESS', 00H ; `string'
CONST	ENDS
;	COMDAT ??_C@_0O@DEHCCMMB@MP_CONNECTION@
CONST	SEGMENT
??_C@_0O@DEHCCMMB@MP_CONNECTION@ DB 'MP_CONNECTION', 00H ; `string'
CONST	ENDS
;	COMDAT ??_C@_0BA@OIGPLOE@MP_PHONE_NUMBER@
CONST	SEGMENT
??_C@_0BA@OIGPLOE@MP_PHONE_NUMBER@ DB 'MP_PHONE_NUMBER', 00H ; `string'
CONST	ENDS
;	COMDAT ??_C@_08PIAFACLK@MP_MODEM@
CONST	SEGMENT
??_C@_08PIAFACLK@MP_MODEM@ DB 'MP_MODEM', 00H		; `string'
CONST	ENDS
;	COMDAT ??_C@_0N@CFDAGFAL@MP_HANDSHAKE@
CONST	SEGMENT
??_C@_0N@CFDAGFAL@MP_HANDSHAKE@ DB 'MP_HANDSHAKE', 00H	; `string'
CONST	ENDS
;	COMDAT ??_C@_09MKLHGAJG@MP_PARITY@
CONST	SEGMENT
??_C@_09MKLHGAJG@MP_PARITY@ DB 'MP_PARITY', 00H		; `string'
CONST	ENDS
;	COMDAT ??_C@_0N@LADGABMG@MP_STOP_BITS@
CONST	SEGMENT
??_C@_0N@LADGABMG@MP_STOP_BITS@ DB 'MP_STOP_BITS', 00H	; `string'
CONST	ENDS
;	COMDAT ??_C@_0N@FJCLHDKK@MP_BAUD_RATE@
CONST	SEGMENT
??_C@_0N@FJCLHDKK@MP_BAUD_RATE@ DB 'MP_BAUD_RATE', 00H	; `string'
CONST	ENDS
;	COMDAT ??_C@_0M@JPGKCLFJ@MP_COM_PORT@
CONST	SEGMENT
??_C@_0M@JPGKCLFJ@MP_COM_PORT@ DB 'MP_COM_PORT', 00H	; `string'
CONST	ENDS
;	COMDAT ??_C@_09IJPOFMKJ@MP_ANSWER@
CONST	SEGMENT
??_C@_09IJPOFMKJ@MP_ANSWER@ DB 'MP_ANSWER', 00H		; `string'
CONST	ENDS
;	COMDAT ??_C@_09HMHNFDHB@MP_CANCEL@
CONST	SEGMENT
??_C@_09HMHNFDHB@MP_CANCEL@ DB 'MP_CANCEL', 00H		; `string'
CONST	ENDS
;	COMDAT ??_C@_07JALDKKPP@MP_DIAL@
CONST	SEGMENT
??_C@_07JALDKKPP@MP_DIAL@ DB 'MP_DIAL', 00H		; `string'
CONST	ENDS
;	COMDAT ??_C@_07GEIBKNNF@RTS?1DTR@
CONST	SEGMENT
??_C@_07GEIBKNNF@RTS?1DTR@ DB 'RTS/DTR', 00H		; `string'
CONST	ENDS
;	COMDAT ??_C@_03CJPFFGDD@DTR@
CONST	SEGMENT
??_C@_03CJPFFGDD@DTR@ DB 'DTR', 00H			; `string'
CONST	ENDS
;	COMDAT ??_C@_03EFJMGPDB@RTS@
CONST	SEGMENT
??_C@_03EFJMGPDB@RTS@ DB 'RTS', 00H			; `string'
CONST	ENDS
;	COMDAT ??_C@_08OABPCCJP@Xon?1Xoff@
CONST	SEGMENT
??_C@_08OABPCCJP@Xon?1Xoff@ DB 'Xon/Xoff', 00H		; `string'
CONST	ENDS
;	COMDAT ??_C@_04MLFIAKCO@Mark@
CONST	SEGMENT
??_C@_04MLFIAKCO@Mark@ DB 'Mark', 00H			; `string'
CONST	ENDS
;	COMDAT ??_C@_03FDIDKFNH@Odd@
CONST	SEGMENT
??_C@_03FDIDKFNH@Odd@ DB 'Odd', 00H			; `string'
CONST	ENDS
;	COMDAT ??_C@_04FCPIGPHJ@Even@
CONST	SEGMENT
??_C@_04FCPIGPHJ@Even@ DB 'Even', 00H			; `string'
CONST	ENDS
;	COMDAT ??_C@_04OHJIHAFH@None@
CONST	SEGMENT
??_C@_04OHJIHAFH@None@ DB 'None', 00H			; `string'
CONST	ENDS
;	COMDAT ??_C@_01FDFGLJHB@2@
CONST	SEGMENT
??_C@_01FDFGLJHB@2@ DB '2', 00H				; `string'
CONST	ENDS
;	COMDAT ??_C@_03GMOBGHL@1?45@
CONST	SEGMENT
??_C@_03GMOBGHL@1?45@ DB '1.5', 00H			; `string'
CONST	ENDS
;	COMDAT ??_C@_01HIHLOKLC@1@
CONST	SEGMENT
??_C@_01HIHLOKLC@1@ DB '1', 00H				; `string'
CONST	ENDS
;	COMDAT ??_C@_06GLGPIONA@115200@
CONST	SEGMENT
??_C@_06GLGPIONA@115200@ DB '115200', 00H		; `string'
CONST	ENDS
;	COMDAT ??_C@_05CHOGNIMK@57600@
CONST	SEGMENT
??_C@_05CHOGNIMK@57600@ DB '57600', 00H			; `string'
CONST	ENDS
;	COMDAT ??_C@_05NJOGGEIN@38400@
CONST	SEGMENT
??_C@_05NJOGGEIN@38400@ DB '38400', 00H			; `string'
CONST	ENDS
;	COMDAT ??_C@_05IMCFLDOK@19200@
CONST	SEGMENT
??_C@_05IMCFLDOK@19200@ DB '19200', 00H			; `string'
CONST	ENDS
; Function compile flags: /Odtp /ZI
; File c:\users\nhv90\projects\eech\aphavoc\source\ui_menu\multiop\mult_sc.c
;	COMDAT ?notify_modem_type_function@@YGXPAUUI_OBJECT@@PAX@Z
_TEXT	SEGMENT
_obj$ = 8						; size = 4
_arg$ = 12						; size = 4
?notify_modem_type_function@@YGXPAUUI_OBJECT@@PAX@Z PROC ; notify_modem_type_function, COMDAT

; 1534 : {

  00000	55		 push	 ebp
  00001	8b ec		 mov	 ebp, esp
  00003	83 ec 40	 sub	 esp, 64			; 00000040H
  00006	53		 push	 ebx
  00007	56		 push	 esi
  00008	57		 push	 edi

; 1535 : 
; 1536 : 	current_modem = current_modem->succ;

  00009	a1 00 00 00 00	 mov	 eax, DWORD PTR ?current_modem@@3PAUMODEM_NAMES@@A ; current_modem
  0000e	8b 48 04	 mov	 ecx, DWORD PTR [eax+4]
  00011	89 0d 00 00 00
	00		 mov	 DWORD PTR ?current_modem@@3PAUMODEM_NAMES@@A, ecx ; current_modem

; 1537 : 
; 1538 : 	if (!current_modem)

  00017	83 3d 00 00 00
	00 00		 cmp	 DWORD PTR ?current_modem@@3PAUMODEM_NAMES@@A, 0 ; current_modem
  0001e	75 0a		 jne	 SHORT $LN2@notify_mod

; 1539 : 	{
; 1540 : 		current_modem = modem_name_list;

  00020	a1 00 00 00 00	 mov	 eax, DWORD PTR ?modem_name_list@@3PAUMODEM_NAMES@@A ; modem_name_list
  00025	a3 00 00 00 00	 mov	 DWORD PTR ?current_modem@@3PAUMODEM_NAMES@@A, eax ; current_modem
$LN2@notify_mod:

; 1541 : 	}
; 1542 : 
; 1543 : 	set_ui_object_text (obj, current_modem->name);

  0002a	a1 00 00 00 00	 mov	 eax, DWORD PTR ?current_modem@@3PAUMODEM_NAMES@@A ; current_modem
  0002f	8b 08		 mov	 ecx, DWORD PTR [eax]
  00031	51		 push	 ecx
  00032	8b 55 08	 mov	 edx, DWORD PTR _obj$[ebp]
  00035	52		 push	 edx
  00036	8b 45 08	 mov	 eax, DWORD PTR _obj$[ebp]
  00039	8b 08		 mov	 ecx, DWORD PTR [eax]
  0003b	8b 14 8d 00 00
	00 00		 mov	 edx, DWORD PTR ?fn_set_ui_object_text@@3PAP6GXPAUUI_OBJECT@@PBD@ZA[ecx*4]
  00042	ff d2		 call	 edx

; 1544 : 
; 1545 : 	set_toggle_button_off (obj);

  00044	8b 45 08	 mov	 eax, DWORD PTR _obj$[ebp]
  00047	50		 push	 eax
  00048	e8 00 00 00 00	 call	 ?set_toggle_button_off@@YGXPAUUI_OBJECT@@@Z ; set_toggle_button_off

; 1546 : }

  0004d	5f		 pop	 edi
  0004e	5e		 pop	 esi
  0004f	5b		 pop	 ebx
  00050	8b e5		 mov	 esp, ebp
  00052	5d		 pop	 ebp
  00053	c2 08 00	 ret	 8
?notify_modem_type_function@@YGXPAUUI_OBJECT@@PAX@Z ENDP ; notify_modem_type_function
_TEXT	ENDS
; Function compile flags: /Odtp /ZI
; File c:\users\nhv90\projects\eech\aphavoc\source\ui_menu\multiop\mult_sc.c
;	COMDAT ?get_text_input@@YGXPAUUI_OBJECT@@PAX@Z
_TEXT	SEGMENT
_obj$ = 8						; size = 4
_arg$ = 12						; size = 4
?get_text_input@@YGXPAUUI_OBJECT@@PAX@Z PROC		; get_text_input, COMDAT

; 1515 : {

  00000	55		 push	 ebp
  00001	8b ec		 mov	 ebp, esp
  00003	83 ec 40	 sub	 esp, 64			; 00000040H
  00006	53		 push	 ebx
  00007	56		 push	 esi
  00008	57		 push	 edi

; 1516 : 
; 1517 : 	set_ui_object_text (obj, "");

  00009	68 00 00 00 00	 push	 OFFSET ??_C@_00CNPNBAHC@@
  0000e	8b 45 08	 mov	 eax, DWORD PTR _obj$[ebp]
  00011	50		 push	 eax
  00012	8b 4d 08	 mov	 ecx, DWORD PTR _obj$[ebp]
  00015	8b 11		 mov	 edx, DWORD PTR [ecx]
  00017	8b 04 95 00 00
	00 00		 mov	 eax, DWORD PTR ?fn_set_ui_object_text@@3PAP6GXPAUUI_OBJECT@@PBD@ZA[edx*4]
  0001e	ff d0		 call	 eax

; 1518 : 
; 1519 : 	set_ui_object_drawable ((ui_object *) get_ui_object_item_number (obj), TRUE);

  00020	6a 01		 push	 1
  00022	8b 45 08	 mov	 eax, DWORD PTR _obj$[ebp]
  00025	50		 push	 eax
  00026	8b 4d 08	 mov	 ecx, DWORD PTR _obj$[ebp]
  00029	8b 11		 mov	 edx, DWORD PTR [ecx]
  0002b	8b 04 95 00 00
	00 00		 mov	 eax, DWORD PTR ?fn_get_ui_object_item_number@@3PAP6GHPAUUI_OBJECT@@@ZA[edx*4]
  00032	ff d0		 call	 eax
  00034	50		 push	 eax
  00035	8b 4d 08	 mov	 ecx, DWORD PTR _obj$[ebp]
  00038	51		 push	 ecx
  00039	8b 55 08	 mov	 edx, DWORD PTR _obj$[ebp]
  0003c	8b 02		 mov	 eax, DWORD PTR [edx]
  0003e	8b 0c 85 00 00
	00 00		 mov	 ecx, DWORD PTR ?fn_get_ui_object_item_number@@3PAP6GHPAUUI_OBJECT@@@ZA[eax*4]
  00045	ff d1		 call	 ecx
  00047	8b 10		 mov	 edx, DWORD PTR [eax]
  00049	8b 04 95 00 00
	00 00		 mov	 eax, DWORD PTR ?fn_set_ui_object_drawable@@3PAP6GXPAUUI_OBJECT@@H@ZA[edx*4]
  00050	ff d0		 call	 eax

; 1520 : 	
; 1521 : 	set_ui_object_state ((ui_object *) get_ui_object_item_number (obj), UI_OBJECT_STATE_ON);

  00052	6a 01		 push	 1
  00054	8b 45 08	 mov	 eax, DWORD PTR _obj$[ebp]
  00057	50		 push	 eax
  00058	8b 4d 08	 mov	 ecx, DWORD PTR _obj$[ebp]
  0005b	8b 11		 mov	 edx, DWORD PTR [ecx]
  0005d	8b 04 95 00 00
	00 00		 mov	 eax, DWORD PTR ?fn_get_ui_object_item_number@@3PAP6GHPAUUI_OBJECT@@@ZA[edx*4]
  00064	ff d0		 call	 eax
  00066	50		 push	 eax
  00067	8b 4d 08	 mov	 ecx, DWORD PTR _obj$[ebp]
  0006a	51		 push	 ecx
  0006b	8b 55 08	 mov	 edx, DWORD PTR _obj$[ebp]
  0006e	8b 02		 mov	 eax, DWORD PTR [edx]
  00070	8b 0c 85 00 00
	00 00		 mov	 ecx, DWORD PTR ?fn_get_ui_object_item_number@@3PAP6GHPAUUI_OBJECT@@@ZA[eax*4]
  00077	ff d1		 call	 ecx
  00079	8b 10		 mov	 edx, DWORD PTR [eax]
  0007b	8b 04 95 00 00
	00 00		 mov	 eax, DWORD PTR ?fn_set_ui_object_state@@3PAP6GXPAUUI_OBJECT@@H@ZA[edx*4]
  00082	ff d0		 call	 eax

; 1522 : 
; 1523 : 	// don't leave text selected
; 1524 : 
; 1525 : 	set_toggle_button_off (obj);

  00084	8b 45 08	 mov	 eax, DWORD PTR _obj$[ebp]
  00087	50		 push	 eax
  00088	e8 00 00 00 00	 call	 ?set_toggle_button_off@@YGXPAUUI_OBJECT@@@Z ; set_toggle_button_off

; 1526 : 
; 1527 : }

  0008d	5f		 pop	 edi
  0008e	5e		 pop	 esi
  0008f	5b		 pop	 ebx
  00090	8b e5		 mov	 esp, ebp
  00092	5d		 pop	 ebp
  00093	c2 08 00	 ret	 8
?get_text_input@@YGXPAUUI_OBJECT@@PAX@Z ENDP		; get_text_input
_TEXT	ENDS
; Function compile flags: /Odtp /ZI
; File c:\users\nhv90\projects\eech\aphavoc\source\ui_menu\multiop\mult_sc.c
;	COMDAT ?multi_text_input_function@@YGXPAUUI_OBJECT@@PAX@Z
_TEXT	SEGMENT
_text$ = -4						; size = 4
_obj$ = 8						; size = 4
_arg$ = 12						; size = 4
?multi_text_input_function@@YGXPAUUI_OBJECT@@PAX@Z PROC	; multi_text_input_function, COMDAT

; 1480 : {

  00000	55		 push	 ebp
  00001	8b ec		 mov	 ebp, esp
  00003	83 ec 44	 sub	 esp, 68			; 00000044H
  00006	53		 push	 ebx
  00007	56		 push	 esi
  00008	57		 push	 edi

; 1481 : 
; 1482 : 	const char
; 1483 : 		*text;
; 1484 : 		
; 1485 : 	obj;
; 1486 : 	arg;
; 1487 : 
; 1488 : 	text = get_ui_object_text ( obj );

  00009	8b 45 08	 mov	 eax, DWORD PTR _obj$[ebp]
  0000c	50		 push	 eax
  0000d	8b 4d 08	 mov	 ecx, DWORD PTR _obj$[ebp]
  00010	8b 11		 mov	 edx, DWORD PTR [ecx]
  00012	8b 04 95 00 00
	00 00		 mov	 eax, DWORD PTR ?fn_get_ui_object_text@@3PAP6GPBDPAUUI_OBJECT@@@ZA[edx*4]
  00019	ff d0		 call	 eax
  0001b	89 45 fc	 mov	 DWORD PTR _text$[ebp], eax

; 1489 : 
; 1490 : 	if ( ( text ) && ( strlen ( text ) > 0 ) )

  0001e	83 7d fc 00	 cmp	 DWORD PTR _text$[ebp], 0
  00022	74 46		 je	 SHORT $LN2@multi_text
  00024	8b 45 fc	 mov	 eax, DWORD PTR _text$[ebp]
  00027	50		 push	 eax
  00028	e8 00 00 00 00	 call	 _strlen
  0002d	83 c4 04	 add	 esp, 4
  00030	85 c0		 test	 eax, eax
  00032	76 36		 jbe	 SHORT $LN2@multi_text

; 1491 : 	{
; 1492 : 
; 1493 : 		set_ui_object_text ( ( ui_object * ) get_ui_object_item_number ( obj ), text );

  00034	8b 45 fc	 mov	 eax, DWORD PTR _text$[ebp]
  00037	50		 push	 eax
  00038	8b 4d 08	 mov	 ecx, DWORD PTR _obj$[ebp]
  0003b	51		 push	 ecx
  0003c	8b 55 08	 mov	 edx, DWORD PTR _obj$[ebp]
  0003f	8b 02		 mov	 eax, DWORD PTR [edx]
  00041	8b 0c 85 00 00
	00 00		 mov	 ecx, DWORD PTR ?fn_get_ui_object_item_number@@3PAP6GHPAUUI_OBJECT@@@ZA[eax*4]
  00048	ff d1		 call	 ecx
  0004a	50		 push	 eax
  0004b	8b 55 08	 mov	 edx, DWORD PTR _obj$[ebp]
  0004e	52		 push	 edx
  0004f	8b 45 08	 mov	 eax, DWORD PTR _obj$[ebp]
  00052	8b 08		 mov	 ecx, DWORD PTR [eax]
  00054	8b 14 8d 00 00
	00 00		 mov	 edx, DWORD PTR ?fn_get_ui_object_item_number@@3PAP6GHPAUUI_OBJECT@@@ZA[ecx*4]
  0005b	ff d2		 call	 edx
  0005d	8b 00		 mov	 eax, DWORD PTR [eax]
  0005f	8b 0c 85 00 00
	00 00		 mov	 ecx, DWORD PTR ?fn_set_ui_object_text@@3PAP6GXPAUUI_OBJECT@@PBD@ZA[eax*4]
  00066	ff d1		 call	 ecx

; 1494 : 	}
; 1495 : 	else

  00068	eb 35		 jmp	 SHORT $LN3@multi_text
$LN2@multi_text:

; 1496 : 	{
; 1497 : 
; 1498 : 		set_ui_object_text ( ( ui_object * ) get_ui_object_item_number ( obj ), "" );

  0006a	68 00 00 00 00	 push	 OFFSET ??_C@_00CNPNBAHC@@
  0006f	8b 45 08	 mov	 eax, DWORD PTR _obj$[ebp]
  00072	50		 push	 eax
  00073	8b 4d 08	 mov	 ecx, DWORD PTR _obj$[ebp]
  00076	8b 11		 mov	 edx, DWORD PTR [ecx]
  00078	8b 04 95 00 00
	00 00		 mov	 eax, DWORD PTR ?fn_get_ui_object_item_number@@3PAP6GHPAUUI_OBJECT@@@ZA[edx*4]
  0007f	ff d0		 call	 eax
  00081	50		 push	 eax
  00082	8b 4d 08	 mov	 ecx, DWORD PTR _obj$[ebp]
  00085	51		 push	 ecx
  00086	8b 55 08	 mov	 edx, DWORD PTR _obj$[ebp]
  00089	8b 02		 mov	 eax, DWORD PTR [edx]
  0008b	8b 0c 85 00 00
	00 00		 mov	 ecx, DWORD PTR ?fn_get_ui_object_item_number@@3PAP6GHPAUUI_OBJECT@@@ZA[eax*4]
  00092	ff d1		 call	 ecx
  00094	8b 10		 mov	 edx, DWORD PTR [eax]
  00096	8b 04 95 00 00
	00 00		 mov	 eax, DWORD PTR ?fn_set_ui_object_text@@3PAP6GXPAUUI_OBJECT@@PBD@ZA[edx*4]
  0009d	ff d0		 call	 eax
$LN3@multi_text:

; 1499 : 	}
; 1500 : 
; 1501 : 	set_ui_object_drawable ( ( ui_object * ) get_ui_object_item_number ( obj ), TRUE );

  0009f	6a 01		 push	 1
  000a1	8b 45 08	 mov	 eax, DWORD PTR _obj$[ebp]
  000a4	50		 push	 eax
  000a5	8b 4d 08	 mov	 ecx, DWORD PTR _obj$[ebp]
  000a8	8b 11		 mov	 edx, DWORD PTR [ecx]
  000aa	8b 04 95 00 00
	00 00		 mov	 eax, DWORD PTR ?fn_get_ui_object_item_number@@3PAP6GHPAUUI_OBJECT@@@ZA[edx*4]
  000b1	ff d0		 call	 eax
  000b3	50		 push	 eax
  000b4	8b 4d 08	 mov	 ecx, DWORD PTR _obj$[ebp]
  000b7	51		 push	 ecx
  000b8	8b 55 08	 mov	 edx, DWORD PTR _obj$[ebp]
  000bb	8b 02		 mov	 eax, DWORD PTR [edx]
  000bd	8b 0c 85 00 00
	00 00		 mov	 ecx, DWORD PTR ?fn_get_ui_object_item_number@@3PAP6GHPAUUI_OBJECT@@@ZA[eax*4]
  000c4	ff d1		 call	 ecx
  000c6	8b 10		 mov	 edx, DWORD PTR [eax]
  000c8	8b 04 95 00 00
	00 00		 mov	 eax, DWORD PTR ?fn_set_ui_object_drawable@@3PAP6GXPAUUI_OBJECT@@H@ZA[edx*4]
  000cf	ff d0		 call	 eax

; 1502 : 
; 1503 : 	ui_force_update ();

  000d1	e8 00 00 00 00	 call	 ?ui_force_update@@YGXXZ	; ui_force_update

; 1504 : 
; 1505 : 	// don't leave text selected
; 1506 : 
; 1507 : 	set_toggle_button_off ((ui_object *) get_ui_object_item_number (obj));

  000d6	8b 45 08	 mov	 eax, DWORD PTR _obj$[ebp]
  000d9	50		 push	 eax
  000da	8b 4d 08	 mov	 ecx, DWORD PTR _obj$[ebp]
  000dd	8b 11		 mov	 edx, DWORD PTR [ecx]
  000df	8b 04 95 00 00
	00 00		 mov	 eax, DWORD PTR ?fn_get_ui_object_item_number@@3PAP6GHPAUUI_OBJECT@@@ZA[edx*4]
  000e6	ff d0		 call	 eax
  000e8	50		 push	 eax
  000e9	e8 00 00 00 00	 call	 ?set_toggle_button_off@@YGXPAUUI_OBJECT@@@Z ; set_toggle_button_off

; 1508 : }

  000ee	5f		 pop	 edi
  000ef	5e		 pop	 esi
  000f0	5b		 pop	 ebx
  000f1	8b e5		 mov	 esp, ebp
  000f3	5d		 pop	 ebp
  000f4	c2 08 00	 ret	 8
?multi_text_input_function@@YGXPAUUI_OBJECT@@PAX@Z ENDP	; multi_text_input_function
_TEXT	ENDS
; Function compile flags: /Odtp /ZI
; File c:\users\nhv90\projects\eech\aphavoc\source\ui_menu\multiop\mult_sc.c
;	COMDAT ?notify_flow_function@@YGXPAUUI_OBJECT@@PAX@Z
_TEXT	SEGMENT
_selection$ = -4					; size = 4
_obj$ = 8						; size = 4
_arg$ = 12						; size = 4
?notify_flow_function@@YGXPAUUI_OBJECT@@PAX@Z PROC	; notify_flow_function, COMDAT

; 1452 : {

  00000	55		 push	 ebp
  00001	8b ec		 mov	 ebp, esp
  00003	83 ec 44	 sub	 esp, 68			; 00000044H
  00006	53		 push	 ebx
  00007	56		 push	 esi
  00008	57		 push	 edi

; 1453 : 
; 1454 :    int
; 1455 :       selection;
; 1456 : 
; 1457 : 	selection = get_global_flow ();

  00009	a1 88 00 00 00	 mov	 eax, DWORD PTR ?global_options@@3UGLOBAL_OPTIONS_DATA@@A+136
  0000e	89 45 fc	 mov	 DWORD PTR _selection$[ebp], eax

; 1458 : 
; 1459 : 	selection ++;

  00011	8b 45 fc	 mov	 eax, DWORD PTR _selection$[ebp]
  00014	83 c0 01	 add	 eax, 1
  00017	89 45 fc	 mov	 DWORD PTR _selection$[ebp], eax

; 1460 : 
; 1461 : 	if (selection > 5)

  0001a	83 7d fc 05	 cmp	 DWORD PTR _selection$[ebp], 5
  0001e	7e 07		 jle	 SHORT $LN2@notify_flo

; 1462 : 	{
; 1463 : 		selection = 1;

  00020	c7 45 fc 01 00
	00 00		 mov	 DWORD PTR _selection$[ebp], 1
$LN2@notify_flo:

; 1464 : 	}
; 1465 : 
; 1466 : 	set_ui_object_text (obj, flow_text [selection - 1]);

  00027	8b 45 fc	 mov	 eax, DWORD PTR _selection$[ebp]
  0002a	8b 0c 85 fc ff
	ff ff		 mov	 ecx, DWORD PTR ?flow_text@@3PAPBDA[eax*4-4]
  00031	51		 push	 ecx
  00032	8b 55 08	 mov	 edx, DWORD PTR _obj$[ebp]
  00035	52		 push	 edx
  00036	8b 45 08	 mov	 eax, DWORD PTR _obj$[ebp]
  00039	8b 08		 mov	 ecx, DWORD PTR [eax]
  0003b	8b 14 8d 00 00
	00 00		 mov	 edx, DWORD PTR ?fn_set_ui_object_text@@3PAP6GXPAUUI_OBJECT@@PBD@ZA[ecx*4]
  00042	ff d2		 call	 edx

; 1467 : 
; 1468 : 	set_toggle_button_off (obj);

  00044	8b 45 08	 mov	 eax, DWORD PTR _obj$[ebp]
  00047	50		 push	 eax
  00048	e8 00 00 00 00	 call	 ?set_toggle_button_off@@YGXPAUUI_OBJECT@@@Z ; set_toggle_button_off

; 1469 : 
; 1470 : 	set_global_flow (selection);

  0004d	8b 45 fc	 mov	 eax, DWORD PTR _selection$[ebp]
  00050	a3 88 00 00 00	 mov	 DWORD PTR ?global_options@@3UGLOBAL_OPTIONS_DATA@@A+136, eax

; 1471 : 
; 1472 : 	set_serial_connection_status ();

  00055	e8 00 00 00 00	 call	 ?set_serial_connection_status@@YGXXZ ; set_serial_connection_status

; 1473 : }

  0005a	5f		 pop	 edi
  0005b	5e		 pop	 esi
  0005c	5b		 pop	 ebx
  0005d	8b e5		 mov	 esp, ebp
  0005f	5d		 pop	 ebp
  00060	c2 08 00	 ret	 8
?notify_flow_function@@YGXPAUUI_OBJECT@@PAX@Z ENDP	; notify_flow_function
_TEXT	ENDS
; Function compile flags: /Odtp /ZI
; File c:\users\nhv90\projects\eech\aphavoc\source\ui_menu\multiop\mult_sc.c
;	COMDAT ?notify_parity_function@@YGXPAUUI_OBJECT@@PAX@Z
_TEXT	SEGMENT
_selection$ = -4					; size = 4
_obj$ = 8						; size = 4
_arg$ = 12						; size = 4
?notify_parity_function@@YGXPAUUI_OBJECT@@PAX@Z PROC	; notify_parity_function, COMDAT

; 1424 : {

  00000	55		 push	 ebp
  00001	8b ec		 mov	 ebp, esp
  00003	83 ec 44	 sub	 esp, 68			; 00000044H
  00006	53		 push	 ebx
  00007	56		 push	 esi
  00008	57		 push	 edi

; 1425 : 
; 1426 :    int
; 1427 :       selection;
; 1428 : 
; 1429 : 	selection = get_global_parity ();

  00009	a1 84 00 00 00	 mov	 eax, DWORD PTR ?global_options@@3UGLOBAL_OPTIONS_DATA@@A+132
  0000e	89 45 fc	 mov	 DWORD PTR _selection$[ebp], eax

; 1430 : 
; 1431 : 	selection ++;

  00011	8b 45 fc	 mov	 eax, DWORD PTR _selection$[ebp]
  00014	83 c0 01	 add	 eax, 1
  00017	89 45 fc	 mov	 DWORD PTR _selection$[ebp], eax

; 1432 : 
; 1433 : 	if (selection > 4)

  0001a	83 7d fc 04	 cmp	 DWORD PTR _selection$[ebp], 4
  0001e	7e 07		 jle	 SHORT $LN2@notify_par

; 1434 : 	{
; 1435 : 		selection = 1;

  00020	c7 45 fc 01 00
	00 00		 mov	 DWORD PTR _selection$[ebp], 1
$LN2@notify_par:

; 1436 : 	}
; 1437 : 
; 1438 : 	set_ui_object_text (obj, parity_text [selection - 1]);

  00027	8b 45 fc	 mov	 eax, DWORD PTR _selection$[ebp]
  0002a	8b 0c 85 fc ff
	ff ff		 mov	 ecx, DWORD PTR ?parity_text@@3PAPBDA[eax*4-4]
  00031	51		 push	 ecx
  00032	8b 55 08	 mov	 edx, DWORD PTR _obj$[ebp]
  00035	52		 push	 edx
  00036	8b 45 08	 mov	 eax, DWORD PTR _obj$[ebp]
  00039	8b 08		 mov	 ecx, DWORD PTR [eax]
  0003b	8b 14 8d 00 00
	00 00		 mov	 edx, DWORD PTR ?fn_set_ui_object_text@@3PAP6GXPAUUI_OBJECT@@PBD@ZA[ecx*4]
  00042	ff d2		 call	 edx

; 1439 : 
; 1440 : 	set_toggle_button_off (obj);

  00044	8b 45 08	 mov	 eax, DWORD PTR _obj$[ebp]
  00047	50		 push	 eax
  00048	e8 00 00 00 00	 call	 ?set_toggle_button_off@@YGXPAUUI_OBJECT@@@Z ; set_toggle_button_off

; 1441 : 	
; 1442 : 	set_global_parity (selection);

  0004d	8b 45 fc	 mov	 eax, DWORD PTR _selection$[ebp]
  00050	a3 84 00 00 00	 mov	 DWORD PTR ?global_options@@3UGLOBAL_OPTIONS_DATA@@A+132, eax

; 1443 : 
; 1444 : 	set_serial_connection_status ();

  00055	e8 00 00 00 00	 call	 ?set_serial_connection_status@@YGXXZ ; set_serial_connection_status

; 1445 : }

  0005a	5f		 pop	 edi
  0005b	5e		 pop	 esi
  0005c	5b		 pop	 ebx
  0005d	8b e5		 mov	 esp, ebp
  0005f	5d		 pop	 ebp
  00060	c2 08 00	 ret	 8
?notify_parity_function@@YGXPAUUI_OBJECT@@PAX@Z ENDP	; notify_parity_function
_TEXT	ENDS
; Function compile flags: /Odtp /ZI
; File c:\users\nhv90\projects\eech\aphavoc\source\ui_menu\multiop\mult_sc.c
;	COMDAT ?notify_stop_bits_function@@YGXPAUUI_OBJECT@@PAX@Z
_TEXT	SEGMENT
_selection$ = -4					; size = 4
_obj$ = 8						; size = 4
_arg$ = 12						; size = 4
?notify_stop_bits_function@@YGXPAUUI_OBJECT@@PAX@Z PROC	; notify_stop_bits_function, COMDAT

; 1396 : {

  00000	55		 push	 ebp
  00001	8b ec		 mov	 ebp, esp
  00003	83 ec 44	 sub	 esp, 68			; 00000044H
  00006	53		 push	 ebx
  00007	56		 push	 esi
  00008	57		 push	 edi

; 1397 : 
; 1398 :    int
; 1399 :       selection;
; 1400 : 
; 1401 : 	selection = get_global_stop_bits ();

  00009	a1 80 00 00 00	 mov	 eax, DWORD PTR ?global_options@@3UGLOBAL_OPTIONS_DATA@@A+128
  0000e	89 45 fc	 mov	 DWORD PTR _selection$[ebp], eax

; 1402 : 
; 1403 : 	selection ++;

  00011	8b 45 fc	 mov	 eax, DWORD PTR _selection$[ebp]
  00014	83 c0 01	 add	 eax, 1
  00017	89 45 fc	 mov	 DWORD PTR _selection$[ebp], eax

; 1404 : 
; 1405 : 	if (selection > 3)

  0001a	83 7d fc 03	 cmp	 DWORD PTR _selection$[ebp], 3
  0001e	7e 07		 jle	 SHORT $LN2@notify_sto

; 1406 : 	{
; 1407 : 		selection = 1;

  00020	c7 45 fc 01 00
	00 00		 mov	 DWORD PTR _selection$[ebp], 1
$LN2@notify_sto:

; 1408 : 	}
; 1409 : 
; 1410 : 	set_ui_object_text (obj, stop_bits_text [selection - 1]);

  00027	8b 45 fc	 mov	 eax, DWORD PTR _selection$[ebp]
  0002a	8b 0c 85 fc ff
	ff ff		 mov	 ecx, DWORD PTR ?stop_bits_text@@3PAPBDA[eax*4-4]
  00031	51		 push	 ecx
  00032	8b 55 08	 mov	 edx, DWORD PTR _obj$[ebp]
  00035	52		 push	 edx
  00036	8b 45 08	 mov	 eax, DWORD PTR _obj$[ebp]
  00039	8b 08		 mov	 ecx, DWORD PTR [eax]
  0003b	8b 14 8d 00 00
	00 00		 mov	 edx, DWORD PTR ?fn_set_ui_object_text@@3PAP6GXPAUUI_OBJECT@@PBD@ZA[ecx*4]
  00042	ff d2		 call	 edx

; 1411 : 
; 1412 : 	set_toggle_button_off (obj);

  00044	8b 45 08	 mov	 eax, DWORD PTR _obj$[ebp]
  00047	50		 push	 eax
  00048	e8 00 00 00 00	 call	 ?set_toggle_button_off@@YGXPAUUI_OBJECT@@@Z ; set_toggle_button_off

; 1413 : 	
; 1414 : 	set_global_stop_bits (selection);

  0004d	8b 45 fc	 mov	 eax, DWORD PTR _selection$[ebp]
  00050	a3 80 00 00 00	 mov	 DWORD PTR ?global_options@@3UGLOBAL_OPTIONS_DATA@@A+128, eax

; 1415 : 
; 1416 : 	set_serial_connection_status ();

  00055	e8 00 00 00 00	 call	 ?set_serial_connection_status@@YGXXZ ; set_serial_connection_status

; 1417 : }

  0005a	5f		 pop	 edi
  0005b	5e		 pop	 esi
  0005c	5b		 pop	 ebx
  0005d	8b e5		 mov	 esp, ebp
  0005f	5d		 pop	 ebp
  00060	c2 08 00	 ret	 8
?notify_stop_bits_function@@YGXPAUUI_OBJECT@@PAX@Z ENDP	; notify_stop_bits_function
_TEXT	ENDS
; Function compile flags: /Odtp /ZI
; File c:\users\nhv90\projects\eech\aphavoc\source\ui_menu\multiop\mult_sc.c
;	COMDAT ?notify_baud_rate_function@@YGXPAUUI_OBJECT@@PAX@Z
_TEXT	SEGMENT
_selection$ = -4					; size = 4
_obj$ = 8						; size = 4
_arg$ = 12						; size = 4
?notify_baud_rate_function@@YGXPAUUI_OBJECT@@PAX@Z PROC	; notify_baud_rate_function, COMDAT

; 1368 : {

  00000	55		 push	 ebp
  00001	8b ec		 mov	 ebp, esp
  00003	83 ec 44	 sub	 esp, 68			; 00000044H
  00006	53		 push	 ebx
  00007	56		 push	 esi
  00008	57		 push	 edi

; 1369 : 
; 1370 :    int
; 1371 :       selection;
; 1372 : 
; 1373 : 	selection = get_global_baud_rate ();

  00009	a1 7c 00 00 00	 mov	 eax, DWORD PTR ?global_options@@3UGLOBAL_OPTIONS_DATA@@A+124
  0000e	89 45 fc	 mov	 DWORD PTR _selection$[ebp], eax

; 1374 : 
; 1375 : 	selection ++;

  00011	8b 45 fc	 mov	 eax, DWORD PTR _selection$[ebp]
  00014	83 c0 01	 add	 eax, 1
  00017	89 45 fc	 mov	 DWORD PTR _selection$[ebp], eax

; 1376 : 
; 1377 : 	if (selection > 4)

  0001a	83 7d fc 04	 cmp	 DWORD PTR _selection$[ebp], 4
  0001e	7e 07		 jle	 SHORT $LN2@notify_bau

; 1378 : 	{
; 1379 : 		selection = 1;

  00020	c7 45 fc 01 00
	00 00		 mov	 DWORD PTR _selection$[ebp], 1
$LN2@notify_bau:

; 1380 : 	}
; 1381 : 
; 1382 : 	set_ui_object_text (obj, baud_rate_text [selection - 1]);

  00027	8b 45 fc	 mov	 eax, DWORD PTR _selection$[ebp]
  0002a	8b 0c 85 fc ff
	ff ff		 mov	 ecx, DWORD PTR ?baud_rate_text@@3PAPBDA[eax*4-4]
  00031	51		 push	 ecx
  00032	8b 55 08	 mov	 edx, DWORD PTR _obj$[ebp]
  00035	52		 push	 edx
  00036	8b 45 08	 mov	 eax, DWORD PTR _obj$[ebp]
  00039	8b 08		 mov	 ecx, DWORD PTR [eax]
  0003b	8b 14 8d 00 00
	00 00		 mov	 edx, DWORD PTR ?fn_set_ui_object_text@@3PAP6GXPAUUI_OBJECT@@PBD@ZA[ecx*4]
  00042	ff d2		 call	 edx

; 1383 : 
; 1384 : 	set_toggle_button_off (obj);

  00044	8b 45 08	 mov	 eax, DWORD PTR _obj$[ebp]
  00047	50		 push	 eax
  00048	e8 00 00 00 00	 call	 ?set_toggle_button_off@@YGXPAUUI_OBJECT@@@Z ; set_toggle_button_off

; 1385 : 
; 1386 : 	set_global_baud_rate ( selection );

  0004d	8b 45 fc	 mov	 eax, DWORD PTR _selection$[ebp]
  00050	a3 7c 00 00 00	 mov	 DWORD PTR ?global_options@@3UGLOBAL_OPTIONS_DATA@@A+124, eax

; 1387 : 
; 1388 : 	set_serial_connection_status ();

  00055	e8 00 00 00 00	 call	 ?set_serial_connection_status@@YGXXZ ; set_serial_connection_status

; 1389 : }

  0005a	5f		 pop	 edi
  0005b	5e		 pop	 esi
  0005c	5b		 pop	 ebx
  0005d	8b e5		 mov	 esp, ebp
  0005f	5d		 pop	 ebp
  00060	c2 08 00	 ret	 8
?notify_baud_rate_function@@YGXPAUUI_OBJECT@@PAX@Z ENDP	; notify_baud_rate_function
_TEXT	ENDS
; Function compile flags: /Odtp /ZI
; File c:\users\nhv90\projects\eech\aphavoc\source\ui_menu\multiop\mult_sc.c
;	COMDAT ?notify_com_port_function@@YGXPAUUI_OBJECT@@PAX@Z
_TEXT	SEGMENT
_selection$ = -8					; size = 4
_text$ = -4						; size = 2
_obj$ = 8						; size = 4
_arg$ = 12						; size = 4
?notify_com_port_function@@YGXPAUUI_OBJECT@@PAX@Z PROC	; notify_com_port_function, COMDAT

; 1336 : {

  00000	55		 push	 ebp
  00001	8b ec		 mov	 ebp, esp
  00003	83 ec 48	 sub	 esp, 72			; 00000048H
  00006	53		 push	 ebx
  00007	56		 push	 esi
  00008	57		 push	 edi

; 1337 : 	char
; 1338 : 		text [2];
; 1339 : 
; 1340 :    int
; 1341 :       selection;
; 1342 : 
; 1343 : 	selection = get_global_comms_port ();

  00009	a1 78 00 00 00	 mov	 eax, DWORD PTR ?global_options@@3UGLOBAL_OPTIONS_DATA@@A+120
  0000e	89 45 f8	 mov	 DWORD PTR _selection$[ebp], eax

; 1344 : 
; 1345 : 	selection ++;

  00011	8b 45 f8	 mov	 eax, DWORD PTR _selection$[ebp]
  00014	83 c0 01	 add	 eax, 1
  00017	89 45 f8	 mov	 DWORD PTR _selection$[ebp], eax

; 1346 : 
; 1347 : 	if (selection > 4)

  0001a	83 7d f8 04	 cmp	 DWORD PTR _selection$[ebp], 4
  0001e	7e 07		 jle	 SHORT $LN2@notify_com

; 1348 : 	{
; 1349 : 		selection = 1;

  00020	c7 45 f8 01 00
	00 00		 mov	 DWORD PTR _selection$[ebp], 1
$LN2@notify_com:

; 1350 : 	}
; 1351 : 
; 1352 : 	sprintf (text, "%d", selection);

  00027	8b 45 f8	 mov	 eax, DWORD PTR _selection$[ebp]
  0002a	50		 push	 eax
  0002b	68 00 00 00 00	 push	 OFFSET ??_C@_02DPKJAMEF@?$CFd@
  00030	8d 4d fc	 lea	 ecx, DWORD PTR _text$[ebp]
  00033	51		 push	 ecx
  00034	e8 00 00 00 00	 call	 _sprintf
  00039	83 c4 0c	 add	 esp, 12			; 0000000cH

; 1353 : 
; 1354 : 	set_ui_object_text (com_port_button, text);

  0003c	8d 45 fc	 lea	 eax, DWORD PTR _text$[ebp]
  0003f	50		 push	 eax
  00040	8b 0d 00 00 00
	00		 mov	 ecx, DWORD PTR ?com_port_button@@3PAUUI_OBJECT@@A ; com_port_button
  00046	51		 push	 ecx
  00047	8b 15 00 00 00
	00		 mov	 edx, DWORD PTR ?com_port_button@@3PAUUI_OBJECT@@A ; com_port_button
  0004d	8b 02		 mov	 eax, DWORD PTR [edx]
  0004f	8b 0c 85 00 00
	00 00		 mov	 ecx, DWORD PTR ?fn_set_ui_object_text@@3PAP6GXPAUUI_OBJECT@@PBD@ZA[eax*4]
  00056	ff d1		 call	 ecx

; 1355 : 
; 1356 : 	set_toggle_button_off (obj);

  00058	8b 45 08	 mov	 eax, DWORD PTR _obj$[ebp]
  0005b	50		 push	 eax
  0005c	e8 00 00 00 00	 call	 ?set_toggle_button_off@@YGXPAUUI_OBJECT@@@Z ; set_toggle_button_off

; 1357 : 	
; 1358 : 	set_global_comms_port (selection);

  00061	8b 45 f8	 mov	 eax, DWORD PTR _selection$[ebp]
  00064	a3 78 00 00 00	 mov	 DWORD PTR ?global_options@@3UGLOBAL_OPTIONS_DATA@@A+120, eax

; 1359 : 
; 1360 : 	set_serial_connection_status ();

  00069	e8 00 00 00 00	 call	 ?set_serial_connection_status@@YGXXZ ; set_serial_connection_status

; 1361 : }

  0006e	5f		 pop	 edi
  0006f	5e		 pop	 esi
  00070	5b		 pop	 ebx
  00071	8b e5		 mov	 esp, ebp
  00073	5d		 pop	 ebp
  00074	c2 08 00	 ret	 8
?notify_com_port_function@@YGXPAUUI_OBJECT@@PAX@Z ENDP	; notify_com_port_function
_TEXT	ENDS
; Function compile flags: /Odtp /ZI
; File c:\users\nhv90\projects\eech\aphavoc\source\ui_menu\multiop\mult_sc.c
;	COMDAT ?define_multi_player_setup_objects@@YGXXZ
_TEXT	SEGMENT
tv4026 = -392						; size = 4
tv3961 = -392						; size = 4
tv3815 = -392						; size = 4
tv3774 = -392						; size = 4
tv3718 = -392						; size = 4
tv3666 = -392						; size = 4
tv3625 = -392						; size = 4
tv3584 = -392						; size = 4
tv3543 = -392						; size = 4
tv4149 = -388						; size = 4
tv4147 = -388						; size = 4
tv4145 = -388						; size = 4
tv4143 = -388						; size = 4
tv4141 = -388						; size = 4
tv4139 = -388						; size = 4
tv4137 = -388						; size = 4
tv4135 = -388						; size = 4
tv4133 = -388						; size = 4
tv4110 = -384						; size = 4
tv4063 = -384						; size = 4
tv4046 = -384						; size = 4
tv4018 = -384						; size = 4
tv3981 = -384						; size = 4
tv3953 = -384						; size = 4
tv3917 = -384						; size = 4
tv3852 = -384						; size = 4
tv3835 = -384						; size = 4
tv3807 = -384						; size = 4
tv3793 = -384						; size = 4
tv3766 = -384						; size = 4
tv3737 = -384						; size = 4
tv3710 = -384						; size = 4
tv3685 = -384						; size = 4
tv3658 = -384						; size = 4
tv3644 = -384						; size = 4
tv3617 = -384						; size = 4
tv3603 = -384						; size = 4
tv3576 = -384						; size = 4
tv3562 = -384						; size = 4
tv3535 = -384						; size = 4
_change_array$ = -316					; size = 48
_check_array$ = -268					; size = 48
_title_change_array$ = -220				; size = 48
_translations$ = -172					; size = 12
_text$ = -160						; size = 128
_mb_width$ = -32					; size = 4
_y2$ = -28						; size = 4
_x2$ = -24						; size = 4
_y1$ = -20						; size = 4
_x1$ = -16						; size = 4
_last_modem_title_object_no$ = -12			; size = 4
_j$ = -8						; size = 4
_i$ = -4						; size = 4
?define_multi_player_setup_objects@@YGXXZ PROC		; define_multi_player_setup_objects, COMDAT

; 160  : {

  00000	55		 push	 ebp
  00001	8b ec		 mov	 ebp, esp
  00003	81 ec 88 01 00
	00		 sub	 esp, 392		; 00000188H
  00009	53		 push	 ebx
  0000a	56		 push	 esi
  0000b	57		 push	 edi

; 161  : 	int
; 162  : 		i,
; 163  : 		j,
; 164  : 		last_modem_title_object_no;
; 165  : 
; 166  : 	float
; 167  : 		x1,
; 168  : 		y1,
; 169  : 		x2,
; 170  : 		y2,
; 171  : 		mb_width;
; 172  : 
; 173  : 	char
; 174  : 		text[128];
; 175  : 	const char
; 176  : 		*translations [3];
; 177  : 
; 178  : 	ui_object
; 179  : 		*title_change_array [12],
; 180  : 		*check_array [12],
; 181  : 		*change_array [12];
; 182  : 
; 183  : 	/////////////////////////////////////////////////////////////////
; 184  : 	// Initialise Button Strings
; 185  : 
; 186  : 	baud_rate_text[0] = "19200";

  0000c	b8 04 00 00 00	 mov	 eax, 4
  00011	6b c8 00	 imul	 ecx, eax, 0
  00014	c7 81 00 00 00
	00 00 00 00 00	 mov	 DWORD PTR ?baud_rate_text@@3PAPBDA[ecx], OFFSET ??_C@_05IMCFLDOK@19200@

; 187  : 	baud_rate_text[1] = "38400";

  0001e	b8 04 00 00 00	 mov	 eax, 4
  00023	c1 e0 00	 shl	 eax, 0
  00026	c7 80 00 00 00
	00 00 00 00 00	 mov	 DWORD PTR ?baud_rate_text@@3PAPBDA[eax], OFFSET ??_C@_05NJOGGEIN@38400@

; 188  : 	baud_rate_text[2] = "57600";

  00030	b8 04 00 00 00	 mov	 eax, 4
  00035	d1 e0		 shl	 eax, 1
  00037	c7 80 00 00 00
	00 00 00 00 00	 mov	 DWORD PTR ?baud_rate_text@@3PAPBDA[eax], OFFSET ??_C@_05CHOGNIMK@57600@

; 189  : 	baud_rate_text[3] = "115200";

  00041	b8 04 00 00 00	 mov	 eax, 4
  00046	6b c8 03	 imul	 ecx, eax, 3
  00049	c7 81 00 00 00
	00 00 00 00 00	 mov	 DWORD PTR ?baud_rate_text@@3PAPBDA[ecx], OFFSET ??_C@_06GLGPIONA@115200@

; 190  : 	
; 191  : 	stop_bits_text[0] = "1";

  00053	b8 04 00 00 00	 mov	 eax, 4
  00058	6b c8 00	 imul	 ecx, eax, 0
  0005b	c7 81 00 00 00
	00 00 00 00 00	 mov	 DWORD PTR ?stop_bits_text@@3PAPBDA[ecx], OFFSET ??_C@_01HIHLOKLC@1@

; 192  : 	stop_bits_text[1] = "1.5";

  00065	b8 04 00 00 00	 mov	 eax, 4
  0006a	c1 e0 00	 shl	 eax, 0
  0006d	c7 80 00 00 00
	00 00 00 00 00	 mov	 DWORD PTR ?stop_bits_text@@3PAPBDA[eax], OFFSET ??_C@_03GMOBGHL@1?45@

; 193  : 	stop_bits_text[2] = "2";

  00077	b8 04 00 00 00	 mov	 eax, 4
  0007c	d1 e0		 shl	 eax, 1
  0007e	c7 80 00 00 00
	00 00 00 00 00	 mov	 DWORD PTR ?stop_bits_text@@3PAPBDA[eax], OFFSET ??_C@_01FDFGLJHB@2@

; 194  : 	
; 195  : 	parity_text[0] = get_trans ("None");

  00088	68 00 00 00 00	 push	 OFFSET ??_C@_04OHJIHAFH@None@
  0008d	e8 00 00 00 00	 call	 ?get_trans@@YGPBDPBD@Z	; get_trans
  00092	b9 04 00 00 00	 mov	 ecx, 4
  00097	6b d1 00	 imul	 edx, ecx, 0
  0009a	89 82 00 00 00
	00		 mov	 DWORD PTR ?parity_text@@3PAPBDA[edx], eax

; 196  : 	parity_text[1] = "Even";

  000a0	b8 04 00 00 00	 mov	 eax, 4
  000a5	c1 e0 00	 shl	 eax, 0
  000a8	c7 80 00 00 00
	00 00 00 00 00	 mov	 DWORD PTR ?parity_text@@3PAPBDA[eax], OFFSET ??_C@_04FCPIGPHJ@Even@

; 197  : 	parity_text[2] = "Odd";

  000b2	b8 04 00 00 00	 mov	 eax, 4
  000b7	d1 e0		 shl	 eax, 1
  000b9	c7 80 00 00 00
	00 00 00 00 00	 mov	 DWORD PTR ?parity_text@@3PAPBDA[eax], OFFSET ??_C@_03FDIDKFNH@Odd@

; 198  : 	parity_text[3] = "Mark";

  000c3	b8 04 00 00 00	 mov	 eax, 4
  000c8	6b c8 03	 imul	 ecx, eax, 3
  000cb	c7 81 00 00 00
	00 00 00 00 00	 mov	 DWORD PTR ?parity_text@@3PAPBDA[ecx], OFFSET ??_C@_04MLFIAKCO@Mark@

; 199  : 	
; 200  : 	flow_text[0] = get_trans ("None");

  000d5	68 00 00 00 00	 push	 OFFSET ??_C@_04OHJIHAFH@None@
  000da	e8 00 00 00 00	 call	 ?get_trans@@YGPBDPBD@Z	; get_trans
  000df	b9 04 00 00 00	 mov	 ecx, 4
  000e4	6b d1 00	 imul	 edx, ecx, 0
  000e7	89 82 00 00 00
	00		 mov	 DWORD PTR ?flow_text@@3PAPBDA[edx], eax

; 201  : 	flow_text[1] = "Xon/Xoff";

  000ed	b8 04 00 00 00	 mov	 eax, 4
  000f2	c1 e0 00	 shl	 eax, 0
  000f5	c7 80 00 00 00
	00 00 00 00 00	 mov	 DWORD PTR ?flow_text@@3PAPBDA[eax], OFFSET ??_C@_08OABPCCJP@Xon?1Xoff@

; 202  : 	flow_text[2] = "RTS";

  000ff	b8 04 00 00 00	 mov	 eax, 4
  00104	d1 e0		 shl	 eax, 1
  00106	c7 80 00 00 00
	00 00 00 00 00	 mov	 DWORD PTR ?flow_text@@3PAPBDA[eax], OFFSET ??_C@_03EFJMGPDB@RTS@

; 203  : 	flow_text[3] = "DTR";

  00110	b8 04 00 00 00	 mov	 eax, 4
  00115	6b c8 03	 imul	 ecx, eax, 3
  00118	c7 81 00 00 00
	00 00 00 00 00	 mov	 DWORD PTR ?flow_text@@3PAPBDA[ecx], OFFSET ??_C@_03CJPFFGDD@DTR@

; 204  : 	flow_text[4] = "RTS/DTR";

  00122	b8 04 00 00 00	 mov	 eax, 4
  00127	c1 e0 02	 shl	 eax, 2
  0012a	c7 80 00 00 00
	00 00 00 00 00	 mov	 DWORD PTR ?flow_text@@3PAPBDA[eax], OFFSET ??_C@_07GEIBKNNF@RTS?1DTR@

; 205  : 
; 206  : 	translations [0] = get_trans ("MP_DIAL");

  00134	68 00 00 00 00	 push	 OFFSET ??_C@_07JALDKKPP@MP_DIAL@
  00139	e8 00 00 00 00	 call	 ?get_trans@@YGPBDPBD@Z	; get_trans
  0013e	b9 04 00 00 00	 mov	 ecx, 4
  00143	6b d1 00	 imul	 edx, ecx, 0
  00146	89 84 15 54 ff
	ff ff		 mov	 DWORD PTR _translations$[ebp+edx], eax

; 207  : 	translations [1] = get_trans ("MP_CANCEL");

  0014d	68 00 00 00 00	 push	 OFFSET ??_C@_09HMHNFDHB@MP_CANCEL@
  00152	e8 00 00 00 00	 call	 ?get_trans@@YGPBDPBD@Z	; get_trans
  00157	b9 04 00 00 00	 mov	 ecx, 4
  0015c	c1 e1 00	 shl	 ecx, 0
  0015f	89 84 0d 54 ff
	ff ff		 mov	 DWORD PTR _translations$[ebp+ecx], eax

; 208  : 	translations [2] = get_trans ("MP_ANSWER");

  00166	68 00 00 00 00	 push	 OFFSET ??_C@_09IJPOFMKJ@MP_ANSWER@
  0016b	e8 00 00 00 00	 call	 ?get_trans@@YGPBDPBD@Z	; get_trans
  00170	b9 04 00 00 00	 mov	 ecx, 4
  00175	d1 e1		 shl	 ecx, 1
  00177	89 84 0d 54 ff
	ff ff		 mov	 DWORD PTR _translations$[ebp+ecx], eax

; 209  : 
; 210  : 	j = 0;

  0017e	c7 45 f8 00 00
	00 00		 mov	 DWORD PTR _j$[ebp], 0

; 211  : 	i = 1;

  00185	c7 45 fc 01 00
	00 00		 mov	 DWORD PTR _i$[ebp], 1

; 212  : 
; 213  : 	x2 = y2 = 1.0;

  0018c	f3 0f 10 05 00
	00 00 00	 movss	 xmm0, DWORD PTR __real@3f800000
  00194	f3 0f 11 45 e4	 movss	 DWORD PTR _y2$[ebp], xmm0
  00199	f3 0f 10 45 e4	 movss	 xmm0, DWORD PTR _y2$[ebp]
  0019e	f3 0f 11 45 e8	 movss	 DWORD PTR _x2$[ebp], xmm0

; 214  : 
; 215  : 	/////////////////////////////////////////////////////////////////
; 216  : 
; 217  : 	multi_player_setup_area = create_ui_object

  001a3	6a 11		 push	 17			; 00000011H
  001a5	6a 01		 push	 1
  001a7	6a 07		 push	 7
  001a9	6a 03		 push	 3
  001ab	6a 2f		 push	 47			; 0000002fH
  001ad	6a 00		 push	 0
  001af	6a 4d		 push	 77			; 0000004dH
  001b1	6a 00		 push	 0
  001b3	6a 30		 push	 48			; 00000030H
  001b5	83 ec 08	 sub	 esp, 8
  001b8	f2 0f 10 05 00
	00 00 00	 movsd	 xmm0, QWORD PTR __real@3ff0000000000000
  001c0	f2 0f 11 04 24	 movsd	 QWORD PTR [esp], xmm0
  001c5	83 ec 08	 sub	 esp, 8
  001c8	f2 0f 10 05 00
	00 00 00	 movsd	 xmm0, QWORD PTR __real@3ff0000000000000
  001d0	f2 0f 11 04 24	 movsd	 QWORD PTR [esp], xmm0
  001d5	6a 59		 push	 89			; 00000059H
  001d7	83 ec 08	 sub	 esp, 8
  001da	0f 57 c0	 xorps	 xmm0, xmm0
  001dd	f2 0f 11 04 24	 movsd	 QWORD PTR [esp], xmm0
  001e2	83 ec 08	 sub	 esp, 8
  001e5	0f 57 c0	 xorps	 xmm0, xmm0
  001e8	f2 0f 11 04 24	 movsd	 QWORD PTR [esp], xmm0
  001ed	6a 58		 push	 88			; 00000058H
  001ef	a1 00 00 00 00	 mov	 eax, DWORD PTR ?options_screen@@3PAUUI_OBJECT@@A ; options_screen
  001f4	50		 push	 eax
  001f5	6a 32		 push	 50			; 00000032H
  001f7	6a 01		 push	 1
  001f9	e8 00 00 00 00	 call	 ?create_ui_object@@YAPAUUI_OBJECT@@HZZ ; create_ui_object
  001fe	83 c4 58	 add	 esp, 88			; 00000058H
  00201	a3 00 00 00 00	 mov	 DWORD PTR ?multi_player_setup_area@@3PAUUI_OBJECT@@A, eax ; multi_player_setup_area

; 218  : 											(
; 219  : 												UI_TYPE_AREA,
; 220  : 							               UI_ATTR_PARENT (options_screen),
; 221  : 												UI_ATTR_VIRTUAL_POSITION (0.0, 0.0),
; 222  : 												UI_ATTR_VIRTUAL_SIZE (1.0, 1.0),
; 223  : 												UI_ATTR_OFFSET_TIME (0),
; 224  : 												UI_ATTR_TIME_LENGTH (0),
; 225  : 												UI_ATTR_NOTIFY_ON (NOTIFY_TYPE_BUTTON_EITHER),
; 226  : 												UI_ATTR_CLEAR (TRUE),
; 227  : 												UI_ATTR_END
; 228  : 											);
; 229  : 
; 230  : 	/////////////////////////////////////////////////////////////////
; 231  : 	// Serial SP stuff
; 232  : 	//
; 233  : 
; 234  : 	serial_parameters_area = create_ui_object

  00206	6a 11		 push	 17			; 00000011H
  00208	6a 01		 push	 1
  0020a	6a 07		 push	 7
  0020c	83 ec 08	 sub	 esp, 8
  0020f	f2 0f 10 05 00
	00 00 00	 movsd	 xmm0, QWORD PTR __real@3ff0000000000000
  00217	f2 0f 11 04 24	 movsd	 QWORD PTR [esp], xmm0
  0021c	83 ec 08	 sub	 esp, 8
  0021f	f2 0f 10 05 00
	00 00 00	 movsd	 xmm0, QWORD PTR __real@3ff0000000000000
  00227	f2 0f 11 04 24	 movsd	 QWORD PTR [esp], xmm0
  0022c	6a 59		 push	 89			; 00000059H
  0022e	83 ec 08	 sub	 esp, 8
  00231	0f 57 c0	 xorps	 xmm0, xmm0
  00234	f2 0f 11 04 24	 movsd	 QWORD PTR [esp], xmm0
  00239	83 ec 08	 sub	 esp, 8
  0023c	0f 57 c0	 xorps	 xmm0, xmm0
  0023f	f2 0f 11 04 24	 movsd	 QWORD PTR [esp], xmm0
  00244	6a 58		 push	 88			; 00000058H
  00246	a1 00 00 00 00	 mov	 eax, DWORD PTR ?multi_player_setup_area@@3PAUUI_OBJECT@@A ; multi_player_setup_area
  0024b	50		 push	 eax
  0024c	6a 32		 push	 50			; 00000032H
  0024e	6a 01		 push	 1
  00250	e8 00 00 00 00	 call	 ?create_ui_object@@YAPAUUI_OBJECT@@HZZ ; create_ui_object
  00255	83 c4 40	 add	 esp, 64			; 00000040H
  00258	a3 00 00 00 00	 mov	 DWORD PTR ?serial_parameters_area@@3PAUUI_OBJECT@@A, eax ; serial_parameters_area

; 235  : 										(
; 236  : 											UI_TYPE_AREA,
; 237  : 											UI_ATTR_PARENT (multi_player_setup_area),
; 238  : 											UI_ATTR_VIRTUAL_POSITION (0.0, 0.0),
; 239  : 											UI_ATTR_VIRTUAL_SIZE (1.0, 1.0),
; 240  : 											UI_ATTR_CLEAR ( TRUE ),
; 241  : 											UI_ATTR_END
; 242  : 										);
; 243  : 
; 244  : 	// com_port objects
; 245  : 
; 246  : //	y1 += OPTION_AREA_OFFSET_Y + 0.0375;
; 247  : 
; 248  : 	x1 = 0.0; 

  0025d	0f 57 c0	 xorps	 xmm0, xmm0
  00260	f3 0f 11 45 f0	 movss	 DWORD PTR _x1$[ebp], xmm0

; 249  : 	y1 = OPTION_TITLE_OFFSET_Y + (OPTION_AREA_OFFSET_Y * i) + 0.0375;

  00265	f3 0f 2a 45 fc	 cvtsi2ss xmm0, DWORD PTR _i$[ebp]
  0026a	f3 0f 59 05 00
	00 00 00	 mulss	 xmm0, DWORD PTR __real@3d7df3b6
  00272	f3 0f 58 05 00
	00 00 00	 addss	 xmm0, DWORD PTR __real@3e851eb8
  0027a	f3 0f 5a c0	 cvtss2sd xmm0, xmm0
  0027e	f2 0f 58 05 00
	00 00 00	 addsd	 xmm0, QWORD PTR __real@3fa3333333333333
  00286	f2 0f 5a c0	 cvtsd2ss xmm0, xmm0
  0028a	f3 0f 11 45 ec	 movss	 DWORD PTR _y1$[ebp], xmm0

; 250  : 
; 251  :    com_port_area = create_ui_object

  0028f	6a 11		 push	 17			; 00000011H
  00291	68 ff 00 00 00	 push	 255			; 000000ffH
  00296	68 ff 00 00 00	 push	 255			; 000000ffH
  0029b	68 ff 00 00 00	 push	 255			; 000000ffH
  002a0	68 ff 00 00 00	 push	 255			; 000000ffH
  002a5	6a 0a		 push	 10			; 0000000aH
  002a7	6a 00		 push	 0
  002a9	6a 00		 push	 0
  002ab	6a 00		 push	 0
  002ad	6a 00		 push	 0
  002af	6a 0b		 push	 11			; 0000000bH
  002b1	6a 01		 push	 1
  002b3	6a 07		 push	 7
  002b5	83 ec 08	 sub	 esp, 8
  002b8	f2 0f 10 05 00
	00 00 00	 movsd	 xmm0, QWORD PTR __real@3fadb22d00000000
  002c0	f2 0f 11 04 24	 movsd	 QWORD PTR [esp], xmm0
  002c5	83 ec 08	 sub	 esp, 8
  002c8	f2 0f 10 05 00
	00 00 00	 movsd	 xmm0, QWORD PTR __real@3ff0000000000000
  002d0	f2 0f 11 04 24	 movsd	 QWORD PTR [esp], xmm0
  002d5	6a 59		 push	 89			; 00000059H
  002d7	f3 0f 5a 45 ec	 cvtss2sd xmm0, DWORD PTR _y1$[ebp]
  002dc	83 ec 08	 sub	 esp, 8
  002df	f2 0f 11 04 24	 movsd	 QWORD PTR [esp], xmm0
  002e4	f3 0f 5a 45 f0	 cvtss2sd xmm0, DWORD PTR _x1$[ebp]
  002e9	83 ec 08	 sub	 esp, 8
  002ec	f2 0f 11 04 24	 movsd	 QWORD PTR [esp], xmm0
  002f1	6a 58		 push	 88			; 00000058H
  002f3	a1 00 00 00 00	 mov	 eax, DWORD PTR ?serial_parameters_area@@3PAUUI_OBJECT@@A ; serial_parameters_area
  002f8	50		 push	 eax
  002f9	6a 32		 push	 50			; 00000032H
  002fb	6a 01		 push	 1
  002fd	e8 00 00 00 00	 call	 ?create_ui_object@@YAPAUUI_OBJECT@@HZZ ; create_ui_object
  00302	83 c4 68	 add	 esp, 104		; 00000068H
  00305	a3 00 00 00 00	 mov	 DWORD PTR ?com_port_area@@3PAUUI_OBJECT@@A, eax ; com_port_area

; 252  : 									(
; 253  : 										UI_TYPE_AREA,
; 254  : 										UI_ATTR_PARENT (serial_parameters_area),
; 255  : 										UI_ATTR_VIRTUAL_POSITION (x1, y1),
; 256  : 										UI_ATTR_VIRTUAL_SIZE (OPTION_AREA_WIDTH, OPTION_AREA_HEIGHT),
; 257  : 										UI_ATTR_CLEAR (TRUE),
; 258  : 					               UI_ATTR_COLOUR_START (0,0,0,0),
; 259  :             					   UI_ATTR_COLOUR_END (255,255,255,255),
; 260  : 										UI_ATTR_END
; 261  : 									);
; 262  : 
; 263  : 	x1 = OPTION_TITLE_OFFSET_X;

  0030a	f3 0f 10 05 00
	00 00 00	 movss	 xmm0, DWORD PTR __real@3def9db2
  00312	f3 0f 11 45 f0	 movss	 DWORD PTR _x1$[ebp], xmm0

; 264  : 	y1 = 0.0; 

  00317	0f 57 c0	 xorps	 xmm0, xmm0
  0031a	f3 0f 11 45 ec	 movss	 DWORD PTR _y1$[ebp], xmm0

; 265  : 
; 266  : 	title_change_array[j] = create_ui_object

  0031f	6a 11		 push	 17			; 00000011H
  00321	a1 00 00 00 00	 mov	 eax, DWORD PTR ?options_box_large@@3PAUTEXTURE_GRAPHIC@@A ; options_box_large
  00326	50		 push	 eax
  00327	6a 4c		 push	 76			; 0000004cH
  00329	68 ff 00 00 00	 push	 255			; 000000ffH
  0032e	68 ff 00 00 00	 push	 255			; 000000ffH
  00333	68 ff 00 00 00	 push	 255			; 000000ffH
  00338	68 ff 00 00 00	 push	 255			; 000000ffH
  0033d	6a 0a		 push	 10			; 0000000aH
  0033f	6a 00		 push	 0
  00341	68 ff 00 00 00	 push	 255			; 000000ffH
  00346	68 ff 00 00 00	 push	 255			; 000000ffH
  0034b	68 ff 00 00 00	 push	 255			; 000000ffH
  00350	6a 0b		 push	 11			; 0000000bH
  00352	83 ec 08	 sub	 esp, 8
  00355	f2 0f 10 05 00
	00 00 00	 movsd	 xmm0, QWORD PTR __real@3ff0000000000000
  0035d	f2 0f 11 04 24	 movsd	 QWORD PTR [esp], xmm0
  00362	83 ec 08	 sub	 esp, 8
  00365	f2 0f 10 05 00
	00 00 00	 movsd	 xmm0, QWORD PTR __real@3fd3126ea0000000
  0036d	f2 0f 11 04 24	 movsd	 QWORD PTR [esp], xmm0
  00372	6a 59		 push	 89			; 00000059H
  00374	f3 0f 5a 45 ec	 cvtss2sd xmm0, DWORD PTR _y1$[ebp]
  00379	83 ec 08	 sub	 esp, 8
  0037c	f2 0f 11 04 24	 movsd	 QWORD PTR [esp], xmm0
  00381	f3 0f 5a 45 f0	 cvtss2sd xmm0, DWORD PTR _x1$[ebp]
  00386	83 ec 08	 sub	 esp, 8
  00389	f2 0f 11 04 24	 movsd	 QWORD PTR [esp], xmm0
  0038e	6a 58		 push	 88			; 00000058H
  00390	8b 0d 00 00 00
	00		 mov	 ecx, DWORD PTR ?com_port_area@@3PAUUI_OBJECT@@A ; com_port_area
  00396	51		 push	 ecx
  00397	6a 32		 push	 50			; 00000032H
  00399	6a 01		 push	 1
  0039b	e8 00 00 00 00	 call	 ?create_ui_object@@YAPAUUI_OBJECT@@HZZ ; create_ui_object
  003a0	83 c4 68	 add	 esp, 104		; 00000068H
  003a3	8b 55 f8	 mov	 edx, DWORD PTR _j$[ebp]
  003a6	89 84 95 24 ff
	ff ff		 mov	 DWORD PTR _title_change_array$[ebp+edx*4], eax

; 267  : 	(
; 268  : 		UI_TYPE_AREA,
; 269  : 		UI_ATTR_PARENT (com_port_area),
; 270  : 		UI_ATTR_VIRTUAL_POSITION (x1, y1),
; 271  : 		UI_ATTR_VIRTUAL_SIZE (OPTION_BOX_WIDTH, OPTION_BOX_HEIGHT),
; 272  : 		UI_ATTR_COLOUR_START (255,255,255,0),
; 273  :       UI_ATTR_COLOUR_END (255,255,255,255),
; 274  : 		UI_ATTR_TEXTURE_GRAPHIC (options_box_large),
; 275  : 		UI_ATTR_END
; 276  : 	);
; 277  : 
; 278  :    check_array[j] = create_ui_object

  003ad	6a 11		 push	 17			; 00000011H
  003af	68 00 00 00 00	 push	 OFFSET ??_C@_0M@JPGKCLFJ@MP_COM_PORT@
  003b4	e8 00 00 00 00	 call	 ?get_trans@@YGPBDPBD@Z	; get_trans
  003b9	50		 push	 eax
  003ba	6a 4a		 push	 74			; 0000004aH
  003bc	6a 02		 push	 2
  003be	6a 4b		 push	 75			; 0000004bH
  003c0	83 ec 08	 sub	 esp, 8
  003c3	f2 0f 10 05 00
	00 00 00	 movsd	 xmm0, QWORD PTR __real@3fc24dd300000000
  003cb	f2 0f 11 04 24	 movsd	 QWORD PTR [esp], xmm0
  003d0	83 ec 08	 sub	 esp, 8
  003d3	f2 0f 10 05 00
	00 00 00	 movsd	 xmm0, QWORD PTR __real@3fee666660000000
  003db	f2 0f 11 04 24	 movsd	 QWORD PTR [esp], xmm0
  003e0	6a 58		 push	 88			; 00000058H
  003e2	68 ff 00 00 00	 push	 255			; 000000ffH
  003e7	0f b6 05 00 00
	00 00		 movzx	 eax, BYTE PTR ?ui_option_title_text_colour@@3UREAL_COLOUR@@A
  003ee	50		 push	 eax
  003ef	0f b6 0d 01 00
	00 00		 movzx	 ecx, BYTE PTR ?ui_option_title_text_colour@@3UREAL_COLOUR@@A+1
  003f6	51		 push	 ecx
  003f7	0f b6 15 02 00
	00 00		 movzx	 edx, BYTE PTR ?ui_option_title_text_colour@@3UREAL_COLOUR@@A+2
  003fe	52		 push	 edx
  003ff	6a 14		 push	 20			; 00000014H
  00401	6a 00		 push	 0
  00403	0f b6 05 00 00
	00 00		 movzx	 eax, BYTE PTR ?ui_option_title_text_colour@@3UREAL_COLOUR@@A
  0040a	50		 push	 eax
  0040b	0f b6 0d 01 00
	00 00		 movzx	 ecx, BYTE PTR ?ui_option_title_text_colour@@3UREAL_COLOUR@@A+1
  00412	51		 push	 ecx
  00413	0f b6 15 02 00
	00 00		 movzx	 edx, BYTE PTR ?ui_option_title_text_colour@@3UREAL_COLOUR@@A+2
  0041a	52		 push	 edx
  0041b	6a 15		 push	 21			; 00000015H
  0041d	6a 06		 push	 6
  0041f	6a 12		 push	 18			; 00000012H
  00421	8b 45 f8	 mov	 eax, DWORD PTR _j$[ebp]
  00424	8b 8c 85 24 ff
	ff ff		 mov	 ecx, DWORD PTR _title_change_array$[ebp+eax*4]
  0042b	51		 push	 ecx
  0042c	6a 32		 push	 50			; 00000032H
  0042e	6a 05		 push	 5
  00430	e8 00 00 00 00	 call	 ?create_ui_object@@YAPAUUI_OBJECT@@HZZ ; create_ui_object
  00435	83 c4 64	 add	 esp, 100		; 00000064H
  00438	8b 55 f8	 mov	 edx, DWORD PTR _j$[ebp]
  0043b	89 84 95 f4 fe
	ff ff		 mov	 DWORD PTR _check_array$[ebp+edx*4], eax

; 279  : 	(
; 280  : 		UI_TYPE_TEXT,
; 281  : 		UI_ATTR_PARENT (title_change_array [j]),
; 282  : 		UI_ATTR_FONT_TYPE (UI_FONT_THICK_ARIAL_18),
; 283  :       UI_ATTR_FONT_COLOUR_START (ui_option_title_text_colour.r, ui_option_title_text_colour.g, ui_option_title_text_colour.b, 0),
; 284  :       UI_ATTR_FONT_COLOUR_END (ui_option_title_text_colour.r, ui_option_title_text_colour.g, ui_option_title_text_colour.b, 255),
; 285  : 		UI_ATTR_VIRTUAL_POSITION (OPTION_BOX_TEXT_OFFSET_X, OPTION_BOX_TEXT_OFFSET_Y),
; 286  : 		UI_ATTR_TEXT_JUSTIFY (TEXT_JUSTIFY_RIGHT_CENTRE),
; 287  : 		UI_ATTR_TEXT (get_trans ("MP_COM_PORT") ),
; 288  : 		UI_ATTR_END
; 289  : 	);
; 290  : 
; 291  : 	preprocess_translation_object_size (title_change_array [j], check_array [j], NULL, 0, RESIZE_OPTION_BOX_TITLE);

  00442	6a 00		 push	 0
  00444	6a 00		 push	 0
  00446	6a 00		 push	 0
  00448	8b 45 f8	 mov	 eax, DWORD PTR _j$[ebp]
  0044b	8b 8c 85 f4 fe
	ff ff		 mov	 ecx, DWORD PTR _check_array$[ebp+eax*4]
  00452	51		 push	 ecx
  00453	8b 55 f8	 mov	 edx, DWORD PTR _j$[ebp]
  00456	8b 84 95 24 ff
	ff ff		 mov	 eax, DWORD PTR _title_change_array$[ebp+edx*4]
  0045d	50		 push	 eax
  0045e	e8 00 00 00 00	 call	 ?preprocess_translation_object_size@@YGXPAUUI_OBJECT@@0PAPBDHW4RESIZE_UI_OBJECT_TYPES@@@Z ; preprocess_translation_object_size

; 292  : 
; 293  : 	// baud_rate objects
; 294  : 
; 295  : 	i++;

  00463	8b 45 fc	 mov	 eax, DWORD PTR _i$[ebp]
  00466	83 c0 01	 add	 eax, 1
  00469	89 45 fc	 mov	 DWORD PTR _i$[ebp], eax

; 296  : 	j++;

  0046c	8b 45 f8	 mov	 eax, DWORD PTR _j$[ebp]
  0046f	83 c0 01	 add	 eax, 1
  00472	89 45 f8	 mov	 DWORD PTR _j$[ebp], eax

; 297  : 
; 298  : 	x1 = 0.0; 

  00475	0f 57 c0	 xorps	 xmm0, xmm0
  00478	f3 0f 11 45 f0	 movss	 DWORD PTR _x1$[ebp], xmm0

; 299  : 	y1 = OPTION_TITLE_OFFSET_Y + (OPTION_AREA_OFFSET_Y * i) + 0.0375;

  0047d	f3 0f 2a 45 fc	 cvtsi2ss xmm0, DWORD PTR _i$[ebp]
  00482	f3 0f 59 05 00
	00 00 00	 mulss	 xmm0, DWORD PTR __real@3d7df3b6
  0048a	f3 0f 58 05 00
	00 00 00	 addss	 xmm0, DWORD PTR __real@3e851eb8
  00492	f3 0f 5a c0	 cvtss2sd xmm0, xmm0
  00496	f2 0f 58 05 00
	00 00 00	 addsd	 xmm0, QWORD PTR __real@3fa3333333333333
  0049e	f2 0f 5a c0	 cvtsd2ss xmm0, xmm0
  004a2	f3 0f 11 45 ec	 movss	 DWORD PTR _y1$[ebp], xmm0

; 300  : 
; 301  :    baud_rate_area = create_ui_object

  004a7	6a 11		 push	 17			; 00000011H
  004a9	68 ff 00 00 00	 push	 255			; 000000ffH
  004ae	68 ff 00 00 00	 push	 255			; 000000ffH
  004b3	68 ff 00 00 00	 push	 255			; 000000ffH
  004b8	68 ff 00 00 00	 push	 255			; 000000ffH
  004bd	6a 0a		 push	 10			; 0000000aH
  004bf	6a 00		 push	 0
  004c1	6a 00		 push	 0
  004c3	6a 00		 push	 0
  004c5	6a 00		 push	 0
  004c7	6a 0b		 push	 11			; 0000000bH
  004c9	6a 01		 push	 1
  004cb	6a 07		 push	 7
  004cd	83 ec 08	 sub	 esp, 8
  004d0	f2 0f 10 05 00
	00 00 00	 movsd	 xmm0, QWORD PTR __real@3fadb22d00000000
  004d8	f2 0f 11 04 24	 movsd	 QWORD PTR [esp], xmm0
  004dd	83 ec 08	 sub	 esp, 8
  004e0	f2 0f 10 05 00
	00 00 00	 movsd	 xmm0, QWORD PTR __real@3ff0000000000000
  004e8	f2 0f 11 04 24	 movsd	 QWORD PTR [esp], xmm0
  004ed	6a 59		 push	 89			; 00000059H
  004ef	f3 0f 5a 45 ec	 cvtss2sd xmm0, DWORD PTR _y1$[ebp]
  004f4	83 ec 08	 sub	 esp, 8
  004f7	f2 0f 11 04 24	 movsd	 QWORD PTR [esp], xmm0
  004fc	f3 0f 5a 45 f0	 cvtss2sd xmm0, DWORD PTR _x1$[ebp]
  00501	83 ec 08	 sub	 esp, 8
  00504	f2 0f 11 04 24	 movsd	 QWORD PTR [esp], xmm0
  00509	6a 58		 push	 88			; 00000058H
  0050b	a1 00 00 00 00	 mov	 eax, DWORD PTR ?serial_parameters_area@@3PAUUI_OBJECT@@A ; serial_parameters_area
  00510	50		 push	 eax
  00511	6a 32		 push	 50			; 00000032H
  00513	6a 01		 push	 1
  00515	e8 00 00 00 00	 call	 ?create_ui_object@@YAPAUUI_OBJECT@@HZZ ; create_ui_object
  0051a	83 c4 68	 add	 esp, 104		; 00000068H
  0051d	a3 00 00 00 00	 mov	 DWORD PTR ?baud_rate_area@@3PAUUI_OBJECT@@A, eax ; baud_rate_area

; 302  : 									(
; 303  : 										UI_TYPE_AREA,
; 304  : 										UI_ATTR_PARENT (serial_parameters_area),
; 305  : 										UI_ATTR_VIRTUAL_POSITION (x1, y1),
; 306  : 										UI_ATTR_VIRTUAL_SIZE (OPTION_AREA_WIDTH, OPTION_AREA_HEIGHT),
; 307  : 										UI_ATTR_CLEAR (TRUE),
; 308  : 					               UI_ATTR_COLOUR_START (0,0,0,0),
; 309  :             					   UI_ATTR_COLOUR_END (255,255,255,255),
; 310  : 										UI_ATTR_END
; 311  : 									);
; 312  : 
; 313  : 	x1 = OPTION_TITLE_OFFSET_X;

  00522	f3 0f 10 05 00
	00 00 00	 movss	 xmm0, DWORD PTR __real@3def9db2
  0052a	f3 0f 11 45 f0	 movss	 DWORD PTR _x1$[ebp], xmm0

; 314  : 	y1 = 0.0; 

  0052f	0f 57 c0	 xorps	 xmm0, xmm0
  00532	f3 0f 11 45 ec	 movss	 DWORD PTR _y1$[ebp], xmm0

; 315  : 
; 316  : 	title_change_array[j] = create_ui_object

  00537	6a 11		 push	 17			; 00000011H
  00539	a1 00 00 00 00	 mov	 eax, DWORD PTR ?options_box_large@@3PAUTEXTURE_GRAPHIC@@A ; options_box_large
  0053e	50		 push	 eax
  0053f	6a 4c		 push	 76			; 0000004cH
  00541	68 ff 00 00 00	 push	 255			; 000000ffH
  00546	68 ff 00 00 00	 push	 255			; 000000ffH
  0054b	68 ff 00 00 00	 push	 255			; 000000ffH
  00550	68 ff 00 00 00	 push	 255			; 000000ffH
  00555	6a 0a		 push	 10			; 0000000aH
  00557	6a 00		 push	 0
  00559	68 ff 00 00 00	 push	 255			; 000000ffH
  0055e	68 ff 00 00 00	 push	 255			; 000000ffH
  00563	68 ff 00 00 00	 push	 255			; 000000ffH
  00568	6a 0b		 push	 11			; 0000000bH
  0056a	83 ec 08	 sub	 esp, 8
  0056d	f2 0f 10 05 00
	00 00 00	 movsd	 xmm0, QWORD PTR __real@3ff0000000000000
  00575	f2 0f 11 04 24	 movsd	 QWORD PTR [esp], xmm0
  0057a	83 ec 08	 sub	 esp, 8
  0057d	f2 0f 10 05 00
	00 00 00	 movsd	 xmm0, QWORD PTR __real@3fd3126ea0000000
  00585	f2 0f 11 04 24	 movsd	 QWORD PTR [esp], xmm0
  0058a	6a 59		 push	 89			; 00000059H
  0058c	f3 0f 5a 45 ec	 cvtss2sd xmm0, DWORD PTR _y1$[ebp]
  00591	83 ec 08	 sub	 esp, 8
  00594	f2 0f 11 04 24	 movsd	 QWORD PTR [esp], xmm0
  00599	f3 0f 5a 45 f0	 cvtss2sd xmm0, DWORD PTR _x1$[ebp]
  0059e	83 ec 08	 sub	 esp, 8
  005a1	f2 0f 11 04 24	 movsd	 QWORD PTR [esp], xmm0
  005a6	6a 58		 push	 88			; 00000058H
  005a8	8b 0d 00 00 00
	00		 mov	 ecx, DWORD PTR ?baud_rate_area@@3PAUUI_OBJECT@@A ; baud_rate_area
  005ae	51		 push	 ecx
  005af	6a 32		 push	 50			; 00000032H
  005b1	6a 01		 push	 1
  005b3	e8 00 00 00 00	 call	 ?create_ui_object@@YAPAUUI_OBJECT@@HZZ ; create_ui_object
  005b8	83 c4 68	 add	 esp, 104		; 00000068H
  005bb	8b 55 f8	 mov	 edx, DWORD PTR _j$[ebp]
  005be	89 84 95 24 ff
	ff ff		 mov	 DWORD PTR _title_change_array$[ebp+edx*4], eax

; 317  : 	(
; 318  : 		UI_TYPE_AREA,
; 319  : 		UI_ATTR_PARENT (baud_rate_area),
; 320  : 		UI_ATTR_VIRTUAL_POSITION (x1, y1),
; 321  : 		UI_ATTR_VIRTUAL_SIZE (OPTION_BOX_WIDTH, OPTION_BOX_HEIGHT),
; 322  : 		UI_ATTR_COLOUR_START (255,255,255,0),
; 323  :       UI_ATTR_COLOUR_END (255,255,255,255),
; 324  : 		UI_ATTR_TEXTURE_GRAPHIC (options_box_large),
; 325  : 		UI_ATTR_END
; 326  : 	);
; 327  : 
; 328  :    check_array[j] = create_ui_object

  005c5	6a 11		 push	 17			; 00000011H
  005c7	68 00 00 00 00	 push	 OFFSET ??_C@_0N@FJCLHDKK@MP_BAUD_RATE@
  005cc	e8 00 00 00 00	 call	 ?get_trans@@YGPBDPBD@Z	; get_trans
  005d1	50		 push	 eax
  005d2	6a 4a		 push	 74			; 0000004aH
  005d4	6a 02		 push	 2
  005d6	6a 4b		 push	 75			; 0000004bH
  005d8	83 ec 08	 sub	 esp, 8
  005db	f2 0f 10 05 00
	00 00 00	 movsd	 xmm0, QWORD PTR __real@3fc24dd300000000
  005e3	f2 0f 11 04 24	 movsd	 QWORD PTR [esp], xmm0
  005e8	83 ec 08	 sub	 esp, 8
  005eb	f2 0f 10 05 00
	00 00 00	 movsd	 xmm0, QWORD PTR __real@3fee666660000000
  005f3	f2 0f 11 04 24	 movsd	 QWORD PTR [esp], xmm0
  005f8	6a 58		 push	 88			; 00000058H
  005fa	68 ff 00 00 00	 push	 255			; 000000ffH
  005ff	0f b6 05 00 00
	00 00		 movzx	 eax, BYTE PTR ?ui_option_title_text_colour@@3UREAL_COLOUR@@A
  00606	50		 push	 eax
  00607	0f b6 0d 01 00
	00 00		 movzx	 ecx, BYTE PTR ?ui_option_title_text_colour@@3UREAL_COLOUR@@A+1
  0060e	51		 push	 ecx
  0060f	0f b6 15 02 00
	00 00		 movzx	 edx, BYTE PTR ?ui_option_title_text_colour@@3UREAL_COLOUR@@A+2
  00616	52		 push	 edx
  00617	6a 14		 push	 20			; 00000014H
  00619	6a 00		 push	 0
  0061b	0f b6 05 00 00
	00 00		 movzx	 eax, BYTE PTR ?ui_option_title_text_colour@@3UREAL_COLOUR@@A
  00622	50		 push	 eax
  00623	0f b6 0d 01 00
	00 00		 movzx	 ecx, BYTE PTR ?ui_option_title_text_colour@@3UREAL_COLOUR@@A+1
  0062a	51		 push	 ecx
  0062b	0f b6 15 02 00
	00 00		 movzx	 edx, BYTE PTR ?ui_option_title_text_colour@@3UREAL_COLOUR@@A+2
  00632	52		 push	 edx
  00633	6a 15		 push	 21			; 00000015H
  00635	6a 06		 push	 6
  00637	6a 12		 push	 18			; 00000012H
  00639	8b 45 f8	 mov	 eax, DWORD PTR _j$[ebp]
  0063c	8b 8c 85 24 ff
	ff ff		 mov	 ecx, DWORD PTR _title_change_array$[ebp+eax*4]
  00643	51		 push	 ecx
  00644	6a 32		 push	 50			; 00000032H
  00646	6a 05		 push	 5
  00648	e8 00 00 00 00	 call	 ?create_ui_object@@YAPAUUI_OBJECT@@HZZ ; create_ui_object
  0064d	83 c4 64	 add	 esp, 100		; 00000064H
  00650	8b 55 f8	 mov	 edx, DWORD PTR _j$[ebp]
  00653	89 84 95 f4 fe
	ff ff		 mov	 DWORD PTR _check_array$[ebp+edx*4], eax

; 329  : 	(
; 330  : 		UI_TYPE_TEXT,
; 331  : 		UI_ATTR_PARENT (title_change_array [j]),
; 332  : 		UI_ATTR_FONT_TYPE (UI_FONT_THICK_ARIAL_18),
; 333  :       UI_ATTR_FONT_COLOUR_START (ui_option_title_text_colour.r, ui_option_title_text_colour.g, ui_option_title_text_colour.b, 0),
; 334  :       UI_ATTR_FONT_COLOUR_END (ui_option_title_text_colour.r, ui_option_title_text_colour.g, ui_option_title_text_colour.b, 255),
; 335  : 		UI_ATTR_VIRTUAL_POSITION (OPTION_BOX_TEXT_OFFSET_X, OPTION_BOX_TEXT_OFFSET_Y),
; 336  : 		UI_ATTR_TEXT_JUSTIFY (TEXT_JUSTIFY_RIGHT_CENTRE),
; 337  : 		UI_ATTR_TEXT (get_trans ("MP_BAUD_RATE") ),
; 338  : 		UI_ATTR_END
; 339  : 	);
; 340  : 
; 341  : 	preprocess_translation_object_size (title_change_array [j], check_array [j], NULL, 0, RESIZE_OPTION_BOX_TITLE);

  0065a	6a 00		 push	 0
  0065c	6a 00		 push	 0
  0065e	6a 00		 push	 0
  00660	8b 45 f8	 mov	 eax, DWORD PTR _j$[ebp]
  00663	8b 8c 85 f4 fe
	ff ff		 mov	 ecx, DWORD PTR _check_array$[ebp+eax*4]
  0066a	51		 push	 ecx
  0066b	8b 55 f8	 mov	 edx, DWORD PTR _j$[ebp]
  0066e	8b 84 95 24 ff
	ff ff		 mov	 eax, DWORD PTR _title_change_array$[ebp+edx*4]
  00675	50		 push	 eax
  00676	e8 00 00 00 00	 call	 ?preprocess_translation_object_size@@YGXPAUUI_OBJECT@@0PAPBDHW4RESIZE_UI_OBJECT_TYPES@@@Z ; preprocess_translation_object_size

; 342  : 
; 343  : 	// stop_bit objects
; 344  : 
; 345  : 	i++;

  0067b	8b 45 fc	 mov	 eax, DWORD PTR _i$[ebp]
  0067e	83 c0 01	 add	 eax, 1
  00681	89 45 fc	 mov	 DWORD PTR _i$[ebp], eax

; 346  : 	j++;

  00684	8b 45 f8	 mov	 eax, DWORD PTR _j$[ebp]
  00687	83 c0 01	 add	 eax, 1
  0068a	89 45 f8	 mov	 DWORD PTR _j$[ebp], eax

; 347  : 
; 348  : 	x1 = 0.0; 

  0068d	0f 57 c0	 xorps	 xmm0, xmm0
  00690	f3 0f 11 45 f0	 movss	 DWORD PTR _x1$[ebp], xmm0

; 349  : 	y1 = OPTION_TITLE_OFFSET_Y + (OPTION_AREA_OFFSET_Y * i) + 0.0375;

  00695	f3 0f 2a 45 fc	 cvtsi2ss xmm0, DWORD PTR _i$[ebp]
  0069a	f3 0f 59 05 00
	00 00 00	 mulss	 xmm0, DWORD PTR __real@3d7df3b6
  006a2	f3 0f 58 05 00
	00 00 00	 addss	 xmm0, DWORD PTR __real@3e851eb8
  006aa	f3 0f 5a c0	 cvtss2sd xmm0, xmm0
  006ae	f2 0f 58 05 00
	00 00 00	 addsd	 xmm0, QWORD PTR __real@3fa3333333333333
  006b6	f2 0f 5a c0	 cvtsd2ss xmm0, xmm0
  006ba	f3 0f 11 45 ec	 movss	 DWORD PTR _y1$[ebp], xmm0

; 350  : 
; 351  :    stop_bits_area = create_ui_object

  006bf	6a 11		 push	 17			; 00000011H
  006c1	68 ff 00 00 00	 push	 255			; 000000ffH
  006c6	68 ff 00 00 00	 push	 255			; 000000ffH
  006cb	68 ff 00 00 00	 push	 255			; 000000ffH
  006d0	68 ff 00 00 00	 push	 255			; 000000ffH
  006d5	6a 0a		 push	 10			; 0000000aH
  006d7	6a 00		 push	 0
  006d9	6a 00		 push	 0
  006db	6a 00		 push	 0
  006dd	6a 00		 push	 0
  006df	6a 0b		 push	 11			; 0000000bH
  006e1	6a 01		 push	 1
  006e3	6a 07		 push	 7
  006e5	83 ec 08	 sub	 esp, 8
  006e8	f2 0f 10 05 00
	00 00 00	 movsd	 xmm0, QWORD PTR __real@3fadb22d00000000
  006f0	f2 0f 11 04 24	 movsd	 QWORD PTR [esp], xmm0
  006f5	83 ec 08	 sub	 esp, 8
  006f8	f2 0f 10 05 00
	00 00 00	 movsd	 xmm0, QWORD PTR __real@3ff0000000000000
  00700	f2 0f 11 04 24	 movsd	 QWORD PTR [esp], xmm0
  00705	6a 59		 push	 89			; 00000059H
  00707	f3 0f 5a 45 ec	 cvtss2sd xmm0, DWORD PTR _y1$[ebp]
  0070c	83 ec 08	 sub	 esp, 8
  0070f	f2 0f 11 04 24	 movsd	 QWORD PTR [esp], xmm0
  00714	f3 0f 5a 45 f0	 cvtss2sd xmm0, DWORD PTR _x1$[ebp]
  00719	83 ec 08	 sub	 esp, 8
  0071c	f2 0f 11 04 24	 movsd	 QWORD PTR [esp], xmm0
  00721	6a 58		 push	 88			; 00000058H
  00723	a1 00 00 00 00	 mov	 eax, DWORD PTR ?serial_parameters_area@@3PAUUI_OBJECT@@A ; serial_parameters_area
  00728	50		 push	 eax
  00729	6a 32		 push	 50			; 00000032H
  0072b	6a 01		 push	 1
  0072d	e8 00 00 00 00	 call	 ?create_ui_object@@YAPAUUI_OBJECT@@HZZ ; create_ui_object
  00732	83 c4 68	 add	 esp, 104		; 00000068H
  00735	a3 00 00 00 00	 mov	 DWORD PTR ?stop_bits_area@@3PAUUI_OBJECT@@A, eax ; stop_bits_area

; 352  : 									(
; 353  : 										UI_TYPE_AREA,
; 354  : 										UI_ATTR_PARENT (serial_parameters_area),
; 355  : 										UI_ATTR_VIRTUAL_POSITION (x1, y1),
; 356  : 										UI_ATTR_VIRTUAL_SIZE (OPTION_AREA_WIDTH, OPTION_AREA_HEIGHT),
; 357  : 										UI_ATTR_CLEAR (TRUE),
; 358  : 					               UI_ATTR_COLOUR_START (0,0,0,0),
; 359  :             					   UI_ATTR_COLOUR_END (255,255,255,255),
; 360  : 										UI_ATTR_END
; 361  : 									);
; 362  : 
; 363  : 	x1 = OPTION_TITLE_OFFSET_X;

  0073a	f3 0f 10 05 00
	00 00 00	 movss	 xmm0, DWORD PTR __real@3def9db2
  00742	f3 0f 11 45 f0	 movss	 DWORD PTR _x1$[ebp], xmm0

; 364  : 	y1 = 0.0; 

  00747	0f 57 c0	 xorps	 xmm0, xmm0
  0074a	f3 0f 11 45 ec	 movss	 DWORD PTR _y1$[ebp], xmm0

; 365  : 
; 366  : 	title_change_array[j] = create_ui_object

  0074f	6a 11		 push	 17			; 00000011H
  00751	a1 00 00 00 00	 mov	 eax, DWORD PTR ?options_box_large@@3PAUTEXTURE_GRAPHIC@@A ; options_box_large
  00756	50		 push	 eax
  00757	6a 4c		 push	 76			; 0000004cH
  00759	68 ff 00 00 00	 push	 255			; 000000ffH
  0075e	68 ff 00 00 00	 push	 255			; 000000ffH
  00763	68 ff 00 00 00	 push	 255			; 000000ffH
  00768	68 ff 00 00 00	 push	 255			; 000000ffH
  0076d	6a 0a		 push	 10			; 0000000aH
  0076f	6a 00		 push	 0
  00771	68 ff 00 00 00	 push	 255			; 000000ffH
  00776	68 ff 00 00 00	 push	 255			; 000000ffH
  0077b	68 ff 00 00 00	 push	 255			; 000000ffH
  00780	6a 0b		 push	 11			; 0000000bH
  00782	83 ec 08	 sub	 esp, 8
  00785	f2 0f 10 05 00
	00 00 00	 movsd	 xmm0, QWORD PTR __real@3ff0000000000000
  0078d	f2 0f 11 04 24	 movsd	 QWORD PTR [esp], xmm0
  00792	83 ec 08	 sub	 esp, 8
  00795	f2 0f 10 05 00
	00 00 00	 movsd	 xmm0, QWORD PTR __real@3fd3126ea0000000
  0079d	f2 0f 11 04 24	 movsd	 QWORD PTR [esp], xmm0
  007a2	6a 59		 push	 89			; 00000059H
  007a4	f3 0f 5a 45 ec	 cvtss2sd xmm0, DWORD PTR _y1$[ebp]
  007a9	83 ec 08	 sub	 esp, 8
  007ac	f2 0f 11 04 24	 movsd	 QWORD PTR [esp], xmm0
  007b1	f3 0f 5a 45 f0	 cvtss2sd xmm0, DWORD PTR _x1$[ebp]
  007b6	83 ec 08	 sub	 esp, 8
  007b9	f2 0f 11 04 24	 movsd	 QWORD PTR [esp], xmm0
  007be	6a 58		 push	 88			; 00000058H
  007c0	8b 0d 00 00 00
	00		 mov	 ecx, DWORD PTR ?stop_bits_area@@3PAUUI_OBJECT@@A ; stop_bits_area
  007c6	51		 push	 ecx
  007c7	6a 32		 push	 50			; 00000032H
  007c9	6a 01		 push	 1
  007cb	e8 00 00 00 00	 call	 ?create_ui_object@@YAPAUUI_OBJECT@@HZZ ; create_ui_object
  007d0	83 c4 68	 add	 esp, 104		; 00000068H
  007d3	8b 55 f8	 mov	 edx, DWORD PTR _j$[ebp]
  007d6	89 84 95 24 ff
	ff ff		 mov	 DWORD PTR _title_change_array$[ebp+edx*4], eax

; 367  : 	(
; 368  : 		UI_TYPE_AREA,
; 369  : 		UI_ATTR_PARENT (stop_bits_area),
; 370  : 		UI_ATTR_VIRTUAL_POSITION (x1, y1),
; 371  : 		UI_ATTR_VIRTUAL_SIZE (OPTION_BOX_WIDTH, OPTION_BOX_HEIGHT),
; 372  : 		UI_ATTR_COLOUR_START (255,255,255,0),
; 373  :       UI_ATTR_COLOUR_END (255,255,255,255),
; 374  : 		UI_ATTR_TEXTURE_GRAPHIC (options_box_large),
; 375  : 		UI_ATTR_END
; 376  : 	);
; 377  : 
; 378  :    check_array[j] = create_ui_object

  007dd	6a 11		 push	 17			; 00000011H
  007df	68 00 00 00 00	 push	 OFFSET ??_C@_0N@LADGABMG@MP_STOP_BITS@
  007e4	e8 00 00 00 00	 call	 ?get_trans@@YGPBDPBD@Z	; get_trans
  007e9	50		 push	 eax
  007ea	6a 4a		 push	 74			; 0000004aH
  007ec	6a 02		 push	 2
  007ee	6a 4b		 push	 75			; 0000004bH
  007f0	83 ec 08	 sub	 esp, 8
  007f3	f2 0f 10 05 00
	00 00 00	 movsd	 xmm0, QWORD PTR __real@3fc24dd300000000
  007fb	f2 0f 11 04 24	 movsd	 QWORD PTR [esp], xmm0
  00800	83 ec 08	 sub	 esp, 8
  00803	f2 0f 10 05 00
	00 00 00	 movsd	 xmm0, QWORD PTR __real@3fee666660000000
  0080b	f2 0f 11 04 24	 movsd	 QWORD PTR [esp], xmm0
  00810	6a 58		 push	 88			; 00000058H
  00812	68 ff 00 00 00	 push	 255			; 000000ffH
  00817	0f b6 05 00 00
	00 00		 movzx	 eax, BYTE PTR ?ui_option_title_text_colour@@3UREAL_COLOUR@@A
  0081e	50		 push	 eax
  0081f	0f b6 0d 01 00
	00 00		 movzx	 ecx, BYTE PTR ?ui_option_title_text_colour@@3UREAL_COLOUR@@A+1
  00826	51		 push	 ecx
  00827	0f b6 15 02 00
	00 00		 movzx	 edx, BYTE PTR ?ui_option_title_text_colour@@3UREAL_COLOUR@@A+2
  0082e	52		 push	 edx
  0082f	6a 14		 push	 20			; 00000014H
  00831	6a 00		 push	 0
  00833	0f b6 05 00 00
	00 00		 movzx	 eax, BYTE PTR ?ui_option_title_text_colour@@3UREAL_COLOUR@@A
  0083a	50		 push	 eax
  0083b	0f b6 0d 01 00
	00 00		 movzx	 ecx, BYTE PTR ?ui_option_title_text_colour@@3UREAL_COLOUR@@A+1
  00842	51		 push	 ecx
  00843	0f b6 15 02 00
	00 00		 movzx	 edx, BYTE PTR ?ui_option_title_text_colour@@3UREAL_COLOUR@@A+2
  0084a	52		 push	 edx
  0084b	6a 15		 push	 21			; 00000015H
  0084d	6a 06		 push	 6
  0084f	6a 12		 push	 18			; 00000012H
  00851	8b 45 f8	 mov	 eax, DWORD PTR _j$[ebp]
  00854	8b 8c 85 24 ff
	ff ff		 mov	 ecx, DWORD PTR _title_change_array$[ebp+eax*4]
  0085b	51		 push	 ecx
  0085c	6a 32		 push	 50			; 00000032H
  0085e	6a 05		 push	 5
  00860	e8 00 00 00 00	 call	 ?create_ui_object@@YAPAUUI_OBJECT@@HZZ ; create_ui_object
  00865	83 c4 64	 add	 esp, 100		; 00000064H
  00868	8b 55 f8	 mov	 edx, DWORD PTR _j$[ebp]
  0086b	89 84 95 f4 fe
	ff ff		 mov	 DWORD PTR _check_array$[ebp+edx*4], eax

; 379  : 	(
; 380  : 		UI_TYPE_TEXT,
; 381  : 		UI_ATTR_PARENT (title_change_array [j]),
; 382  : 		UI_ATTR_FONT_TYPE (UI_FONT_THICK_ARIAL_18),
; 383  :       UI_ATTR_FONT_COLOUR_START (ui_option_title_text_colour.r, ui_option_title_text_colour.g, ui_option_title_text_colour.b, 0),
; 384  :       UI_ATTR_FONT_COLOUR_END (ui_option_title_text_colour.r, ui_option_title_text_colour.g, ui_option_title_text_colour.b, 255),
; 385  : 		UI_ATTR_VIRTUAL_POSITION (OPTION_BOX_TEXT_OFFSET_X, OPTION_BOX_TEXT_OFFSET_Y),
; 386  : 		UI_ATTR_TEXT_JUSTIFY (TEXT_JUSTIFY_RIGHT_CENTRE),
; 387  : 		UI_ATTR_TEXT (get_trans ("MP_STOP_BITS") ),
; 388  : 		UI_ATTR_END
; 389  : 	);
; 390  : 
; 391  : 	preprocess_translation_object_size (title_change_array [j], check_array [j], NULL, 0, RESIZE_OPTION_BOX_TITLE);

  00872	6a 00		 push	 0
  00874	6a 00		 push	 0
  00876	6a 00		 push	 0
  00878	8b 45 f8	 mov	 eax, DWORD PTR _j$[ebp]
  0087b	8b 8c 85 f4 fe
	ff ff		 mov	 ecx, DWORD PTR _check_array$[ebp+eax*4]
  00882	51		 push	 ecx
  00883	8b 55 f8	 mov	 edx, DWORD PTR _j$[ebp]
  00886	8b 84 95 24 ff
	ff ff		 mov	 eax, DWORD PTR _title_change_array$[ebp+edx*4]
  0088d	50		 push	 eax
  0088e	e8 00 00 00 00	 call	 ?preprocess_translation_object_size@@YGXPAUUI_OBJECT@@0PAPBDHW4RESIZE_UI_OBJECT_TYPES@@@Z ; preprocess_translation_object_size

; 392  : 
; 393  : 	// parity objects
; 394  : 
; 395  : 	i++;

  00893	8b 45 fc	 mov	 eax, DWORD PTR _i$[ebp]
  00896	83 c0 01	 add	 eax, 1
  00899	89 45 fc	 mov	 DWORD PTR _i$[ebp], eax

; 396  : 	j++;

  0089c	8b 45 f8	 mov	 eax, DWORD PTR _j$[ebp]
  0089f	83 c0 01	 add	 eax, 1
  008a2	89 45 f8	 mov	 DWORD PTR _j$[ebp], eax

; 397  : 
; 398  : 	x1 = 0.0;

  008a5	0f 57 c0	 xorps	 xmm0, xmm0
  008a8	f3 0f 11 45 f0	 movss	 DWORD PTR _x1$[ebp], xmm0

; 399  : 	y1 = OPTION_TITLE_OFFSET_Y + (OPTION_AREA_OFFSET_Y * i) + 0.0375;

  008ad	f3 0f 2a 45 fc	 cvtsi2ss xmm0, DWORD PTR _i$[ebp]
  008b2	f3 0f 59 05 00
	00 00 00	 mulss	 xmm0, DWORD PTR __real@3d7df3b6
  008ba	f3 0f 58 05 00
	00 00 00	 addss	 xmm0, DWORD PTR __real@3e851eb8
  008c2	f3 0f 5a c0	 cvtss2sd xmm0, xmm0
  008c6	f2 0f 58 05 00
	00 00 00	 addsd	 xmm0, QWORD PTR __real@3fa3333333333333
  008ce	f2 0f 5a c0	 cvtsd2ss xmm0, xmm0
  008d2	f3 0f 11 45 ec	 movss	 DWORD PTR _y1$[ebp], xmm0

; 400  : 
; 401  :    parity_area = create_ui_object

  008d7	6a 11		 push	 17			; 00000011H
  008d9	68 ff 00 00 00	 push	 255			; 000000ffH
  008de	68 ff 00 00 00	 push	 255			; 000000ffH
  008e3	68 ff 00 00 00	 push	 255			; 000000ffH
  008e8	68 ff 00 00 00	 push	 255			; 000000ffH
  008ed	6a 0a		 push	 10			; 0000000aH
  008ef	6a 00		 push	 0
  008f1	6a 00		 push	 0
  008f3	6a 00		 push	 0
  008f5	6a 00		 push	 0
  008f7	6a 0b		 push	 11			; 0000000bH
  008f9	6a 01		 push	 1
  008fb	6a 07		 push	 7
  008fd	83 ec 08	 sub	 esp, 8
  00900	f2 0f 10 05 00
	00 00 00	 movsd	 xmm0, QWORD PTR __real@3fadb22d00000000
  00908	f2 0f 11 04 24	 movsd	 QWORD PTR [esp], xmm0
  0090d	83 ec 08	 sub	 esp, 8
  00910	f2 0f 10 05 00
	00 00 00	 movsd	 xmm0, QWORD PTR __real@3ff0000000000000
  00918	f2 0f 11 04 24	 movsd	 QWORD PTR [esp], xmm0
  0091d	6a 59		 push	 89			; 00000059H
  0091f	f3 0f 5a 45 ec	 cvtss2sd xmm0, DWORD PTR _y1$[ebp]
  00924	83 ec 08	 sub	 esp, 8
  00927	f2 0f 11 04 24	 movsd	 QWORD PTR [esp], xmm0
  0092c	f3 0f 5a 45 f0	 cvtss2sd xmm0, DWORD PTR _x1$[ebp]
  00931	83 ec 08	 sub	 esp, 8
  00934	f2 0f 11 04 24	 movsd	 QWORD PTR [esp], xmm0
  00939	6a 58		 push	 88			; 00000058H
  0093b	a1 00 00 00 00	 mov	 eax, DWORD PTR ?serial_parameters_area@@3PAUUI_OBJECT@@A ; serial_parameters_area
  00940	50		 push	 eax
  00941	6a 32		 push	 50			; 00000032H
  00943	6a 01		 push	 1
  00945	e8 00 00 00 00	 call	 ?create_ui_object@@YAPAUUI_OBJECT@@HZZ ; create_ui_object
  0094a	83 c4 68	 add	 esp, 104		; 00000068H
  0094d	a3 00 00 00 00	 mov	 DWORD PTR ?parity_area@@3PAUUI_OBJECT@@A, eax ; parity_area

; 402  : 									(
; 403  : 										UI_TYPE_AREA,
; 404  : 										UI_ATTR_PARENT (serial_parameters_area),
; 405  : 										UI_ATTR_VIRTUAL_POSITION (x1, y1),
; 406  : 										UI_ATTR_VIRTUAL_SIZE (OPTION_AREA_WIDTH, OPTION_AREA_HEIGHT),
; 407  : 										UI_ATTR_CLEAR (TRUE),
; 408  : 					               UI_ATTR_COLOUR_START (0,0,0,0),
; 409  :             					   UI_ATTR_COLOUR_END (255,255,255,255),
; 410  : 										UI_ATTR_END
; 411  : 									);
; 412  : 
; 413  : 	x1 = OPTION_TITLE_OFFSET_X;

  00952	f3 0f 10 05 00
	00 00 00	 movss	 xmm0, DWORD PTR __real@3def9db2
  0095a	f3 0f 11 45 f0	 movss	 DWORD PTR _x1$[ebp], xmm0

; 414  : 	y1 = 0.0; 

  0095f	0f 57 c0	 xorps	 xmm0, xmm0
  00962	f3 0f 11 45 ec	 movss	 DWORD PTR _y1$[ebp], xmm0

; 415  : 
; 416  : 	title_change_array[j] = create_ui_object

  00967	6a 11		 push	 17			; 00000011H
  00969	a1 00 00 00 00	 mov	 eax, DWORD PTR ?options_box_large@@3PAUTEXTURE_GRAPHIC@@A ; options_box_large
  0096e	50		 push	 eax
  0096f	6a 4c		 push	 76			; 0000004cH
  00971	68 ff 00 00 00	 push	 255			; 000000ffH
  00976	68 ff 00 00 00	 push	 255			; 000000ffH
  0097b	68 ff 00 00 00	 push	 255			; 000000ffH
  00980	68 ff 00 00 00	 push	 255			; 000000ffH
  00985	6a 0a		 push	 10			; 0000000aH
  00987	6a 00		 push	 0
  00989	68 ff 00 00 00	 push	 255			; 000000ffH
  0098e	68 ff 00 00 00	 push	 255			; 000000ffH
  00993	68 ff 00 00 00	 push	 255			; 000000ffH
  00998	6a 0b		 push	 11			; 0000000bH
  0099a	83 ec 08	 sub	 esp, 8
  0099d	f2 0f 10 05 00
	00 00 00	 movsd	 xmm0, QWORD PTR __real@3ff0000000000000
  009a5	f2 0f 11 04 24	 movsd	 QWORD PTR [esp], xmm0
  009aa	83 ec 08	 sub	 esp, 8
  009ad	f2 0f 10 05 00
	00 00 00	 movsd	 xmm0, QWORD PTR __real@3fd3126ea0000000
  009b5	f2 0f 11 04 24	 movsd	 QWORD PTR [esp], xmm0
  009ba	6a 59		 push	 89			; 00000059H
  009bc	f3 0f 5a 45 ec	 cvtss2sd xmm0, DWORD PTR _y1$[ebp]
  009c1	83 ec 08	 sub	 esp, 8
  009c4	f2 0f 11 04 24	 movsd	 QWORD PTR [esp], xmm0
  009c9	f3 0f 5a 45 f0	 cvtss2sd xmm0, DWORD PTR _x1$[ebp]
  009ce	83 ec 08	 sub	 esp, 8
  009d1	f2 0f 11 04 24	 movsd	 QWORD PTR [esp], xmm0
  009d6	6a 58		 push	 88			; 00000058H
  009d8	8b 0d 00 00 00
	00		 mov	 ecx, DWORD PTR ?parity_area@@3PAUUI_OBJECT@@A ; parity_area
  009de	51		 push	 ecx
  009df	6a 32		 push	 50			; 00000032H
  009e1	6a 01		 push	 1
  009e3	e8 00 00 00 00	 call	 ?create_ui_object@@YAPAUUI_OBJECT@@HZZ ; create_ui_object
  009e8	83 c4 68	 add	 esp, 104		; 00000068H
  009eb	8b 55 f8	 mov	 edx, DWORD PTR _j$[ebp]
  009ee	89 84 95 24 ff
	ff ff		 mov	 DWORD PTR _title_change_array$[ebp+edx*4], eax

; 417  : 	(
; 418  : 		UI_TYPE_AREA,
; 419  : 		UI_ATTR_PARENT (parity_area),
; 420  : 		UI_ATTR_VIRTUAL_POSITION (x1, y1),
; 421  : 		UI_ATTR_VIRTUAL_SIZE (OPTION_BOX_WIDTH, OPTION_BOX_HEIGHT),
; 422  : 		UI_ATTR_COLOUR_START (255,255,255,0),
; 423  :       UI_ATTR_COLOUR_END (255,255,255,255),
; 424  : 		UI_ATTR_TEXTURE_GRAPHIC (options_box_large),
; 425  : 		UI_ATTR_END
; 426  : 	);
; 427  : 
; 428  :    check_array[j] = create_ui_object

  009f5	6a 11		 push	 17			; 00000011H
  009f7	68 00 00 00 00	 push	 OFFSET ??_C@_09MKLHGAJG@MP_PARITY@
  009fc	e8 00 00 00 00	 call	 ?get_trans@@YGPBDPBD@Z	; get_trans
  00a01	50		 push	 eax
  00a02	6a 4a		 push	 74			; 0000004aH
  00a04	6a 02		 push	 2
  00a06	6a 4b		 push	 75			; 0000004bH
  00a08	83 ec 08	 sub	 esp, 8
  00a0b	f2 0f 10 05 00
	00 00 00	 movsd	 xmm0, QWORD PTR __real@3fc24dd300000000
  00a13	f2 0f 11 04 24	 movsd	 QWORD PTR [esp], xmm0
  00a18	83 ec 08	 sub	 esp, 8
  00a1b	f2 0f 10 05 00
	00 00 00	 movsd	 xmm0, QWORD PTR __real@3fee666660000000
  00a23	f2 0f 11 04 24	 movsd	 QWORD PTR [esp], xmm0
  00a28	6a 58		 push	 88			; 00000058H
  00a2a	68 ff 00 00 00	 push	 255			; 000000ffH
  00a2f	0f b6 05 00 00
	00 00		 movzx	 eax, BYTE PTR ?ui_option_title_text_colour@@3UREAL_COLOUR@@A
  00a36	50		 push	 eax
  00a37	0f b6 0d 01 00
	00 00		 movzx	 ecx, BYTE PTR ?ui_option_title_text_colour@@3UREAL_COLOUR@@A+1
  00a3e	51		 push	 ecx
  00a3f	0f b6 15 02 00
	00 00		 movzx	 edx, BYTE PTR ?ui_option_title_text_colour@@3UREAL_COLOUR@@A+2
  00a46	52		 push	 edx
  00a47	6a 14		 push	 20			; 00000014H
  00a49	6a 00		 push	 0
  00a4b	0f b6 05 00 00
	00 00		 movzx	 eax, BYTE PTR ?ui_option_title_text_colour@@3UREAL_COLOUR@@A
  00a52	50		 push	 eax
  00a53	0f b6 0d 01 00
	00 00		 movzx	 ecx, BYTE PTR ?ui_option_title_text_colour@@3UREAL_COLOUR@@A+1
  00a5a	51		 push	 ecx
  00a5b	0f b6 15 02 00
	00 00		 movzx	 edx, BYTE PTR ?ui_option_title_text_colour@@3UREAL_COLOUR@@A+2
  00a62	52		 push	 edx
  00a63	6a 15		 push	 21			; 00000015H
  00a65	6a 06		 push	 6
  00a67	6a 12		 push	 18			; 00000012H
  00a69	8b 45 f8	 mov	 eax, DWORD PTR _j$[ebp]
  00a6c	8b 8c 85 24 ff
	ff ff		 mov	 ecx, DWORD PTR _title_change_array$[ebp+eax*4]
  00a73	51		 push	 ecx
  00a74	6a 32		 push	 50			; 00000032H
  00a76	6a 05		 push	 5
  00a78	e8 00 00 00 00	 call	 ?create_ui_object@@YAPAUUI_OBJECT@@HZZ ; create_ui_object
  00a7d	83 c4 64	 add	 esp, 100		; 00000064H
  00a80	8b 55 f8	 mov	 edx, DWORD PTR _j$[ebp]
  00a83	89 84 95 f4 fe
	ff ff		 mov	 DWORD PTR _check_array$[ebp+edx*4], eax

; 429  : 	(
; 430  : 		UI_TYPE_TEXT,
; 431  : 		UI_ATTR_PARENT (title_change_array [j]),
; 432  : 		UI_ATTR_FONT_TYPE (UI_FONT_THICK_ARIAL_18),
; 433  :       UI_ATTR_FONT_COLOUR_START (ui_option_title_text_colour.r, ui_option_title_text_colour.g, ui_option_title_text_colour.b, 0),
; 434  :       UI_ATTR_FONT_COLOUR_END (ui_option_title_text_colour.r, ui_option_title_text_colour.g, ui_option_title_text_colour.b, 255),
; 435  : 		UI_ATTR_VIRTUAL_POSITION (OPTION_BOX_TEXT_OFFSET_X, OPTION_BOX_TEXT_OFFSET_Y),
; 436  : 		UI_ATTR_TEXT_JUSTIFY (TEXT_JUSTIFY_RIGHT_CENTRE),
; 437  : 		UI_ATTR_TEXT (get_trans ("MP_PARITY") ),
; 438  : 		UI_ATTR_END
; 439  : 	);
; 440  : 
; 441  : 	preprocess_translation_object_size (title_change_array [j], check_array [j], NULL, 0, RESIZE_OPTION_BOX_TITLE);

  00a8a	6a 00		 push	 0
  00a8c	6a 00		 push	 0
  00a8e	6a 00		 push	 0
  00a90	8b 45 f8	 mov	 eax, DWORD PTR _j$[ebp]
  00a93	8b 8c 85 f4 fe
	ff ff		 mov	 ecx, DWORD PTR _check_array$[ebp+eax*4]
  00a9a	51		 push	 ecx
  00a9b	8b 55 f8	 mov	 edx, DWORD PTR _j$[ebp]
  00a9e	8b 84 95 24 ff
	ff ff		 mov	 eax, DWORD PTR _title_change_array$[ebp+edx*4]
  00aa5	50		 push	 eax
  00aa6	e8 00 00 00 00	 call	 ?preprocess_translation_object_size@@YGXPAUUI_OBJECT@@0PAPBDHW4RESIZE_UI_OBJECT_TYPES@@@Z ; preprocess_translation_object_size

; 442  : 
; 443  : 	// flow objects
; 444  : 
; 445  : 	i++;

  00aab	8b 45 fc	 mov	 eax, DWORD PTR _i$[ebp]
  00aae	83 c0 01	 add	 eax, 1
  00ab1	89 45 fc	 mov	 DWORD PTR _i$[ebp], eax

; 446  : 	j++;

  00ab4	8b 45 f8	 mov	 eax, DWORD PTR _j$[ebp]
  00ab7	83 c0 01	 add	 eax, 1
  00aba	89 45 f8	 mov	 DWORD PTR _j$[ebp], eax

; 447  : 
; 448  : 	x1 = 0.0; 

  00abd	0f 57 c0	 xorps	 xmm0, xmm0
  00ac0	f3 0f 11 45 f0	 movss	 DWORD PTR _x1$[ebp], xmm0

; 449  : 	y1 = OPTION_TITLE_OFFSET_Y + (OPTION_AREA_OFFSET_Y * i) + 0.0375;

  00ac5	f3 0f 2a 45 fc	 cvtsi2ss xmm0, DWORD PTR _i$[ebp]
  00aca	f3 0f 59 05 00
	00 00 00	 mulss	 xmm0, DWORD PTR __real@3d7df3b6
  00ad2	f3 0f 58 05 00
	00 00 00	 addss	 xmm0, DWORD PTR __real@3e851eb8
  00ada	f3 0f 5a c0	 cvtss2sd xmm0, xmm0
  00ade	f2 0f 58 05 00
	00 00 00	 addsd	 xmm0, QWORD PTR __real@3fa3333333333333
  00ae6	f2 0f 5a c0	 cvtsd2ss xmm0, xmm0
  00aea	f3 0f 11 45 ec	 movss	 DWORD PTR _y1$[ebp], xmm0

; 450  : 
; 451  :    flow_area = create_ui_object

  00aef	6a 11		 push	 17			; 00000011H
  00af1	68 ff 00 00 00	 push	 255			; 000000ffH
  00af6	68 ff 00 00 00	 push	 255			; 000000ffH
  00afb	68 ff 00 00 00	 push	 255			; 000000ffH
  00b00	68 ff 00 00 00	 push	 255			; 000000ffH
  00b05	6a 0a		 push	 10			; 0000000aH
  00b07	6a 00		 push	 0
  00b09	6a 00		 push	 0
  00b0b	6a 00		 push	 0
  00b0d	6a 00		 push	 0
  00b0f	6a 0b		 push	 11			; 0000000bH
  00b11	6a 01		 push	 1
  00b13	6a 07		 push	 7
  00b15	83 ec 08	 sub	 esp, 8
  00b18	f2 0f 10 05 00
	00 00 00	 movsd	 xmm0, QWORD PTR __real@3fadb22d00000000
  00b20	f2 0f 11 04 24	 movsd	 QWORD PTR [esp], xmm0
  00b25	83 ec 08	 sub	 esp, 8
  00b28	f2 0f 10 05 00
	00 00 00	 movsd	 xmm0, QWORD PTR __real@3ff0000000000000
  00b30	f2 0f 11 04 24	 movsd	 QWORD PTR [esp], xmm0
  00b35	6a 59		 push	 89			; 00000059H
  00b37	f3 0f 5a 45 ec	 cvtss2sd xmm0, DWORD PTR _y1$[ebp]
  00b3c	83 ec 08	 sub	 esp, 8
  00b3f	f2 0f 11 04 24	 movsd	 QWORD PTR [esp], xmm0
  00b44	f3 0f 5a 45 f0	 cvtss2sd xmm0, DWORD PTR _x1$[ebp]
  00b49	83 ec 08	 sub	 esp, 8
  00b4c	f2 0f 11 04 24	 movsd	 QWORD PTR [esp], xmm0
  00b51	6a 58		 push	 88			; 00000058H
  00b53	a1 00 00 00 00	 mov	 eax, DWORD PTR ?serial_parameters_area@@3PAUUI_OBJECT@@A ; serial_parameters_area
  00b58	50		 push	 eax
  00b59	6a 32		 push	 50			; 00000032H
  00b5b	6a 01		 push	 1
  00b5d	e8 00 00 00 00	 call	 ?create_ui_object@@YAPAUUI_OBJECT@@HZZ ; create_ui_object
  00b62	83 c4 68	 add	 esp, 104		; 00000068H
  00b65	a3 00 00 00 00	 mov	 DWORD PTR ?flow_area@@3PAUUI_OBJECT@@A, eax ; flow_area

; 452  : 									(
; 453  : 										UI_TYPE_AREA,
; 454  : 										UI_ATTR_PARENT (serial_parameters_area),
; 455  : 										UI_ATTR_VIRTUAL_POSITION (x1, y1),
; 456  : 										UI_ATTR_VIRTUAL_SIZE (OPTION_AREA_WIDTH, OPTION_AREA_HEIGHT),
; 457  : 										UI_ATTR_CLEAR (TRUE),
; 458  : 					               UI_ATTR_COLOUR_START (0,0,0,0),
; 459  :             					   UI_ATTR_COLOUR_END (255,255,255,255),
; 460  : 										UI_ATTR_END
; 461  : 									);
; 462  : 
; 463  : 	x1 = OPTION_TITLE_OFFSET_X;

  00b6a	f3 0f 10 05 00
	00 00 00	 movss	 xmm0, DWORD PTR __real@3def9db2
  00b72	f3 0f 11 45 f0	 movss	 DWORD PTR _x1$[ebp], xmm0

; 464  : 	y1 = 0.0; 

  00b77	0f 57 c0	 xorps	 xmm0, xmm0
  00b7a	f3 0f 11 45 ec	 movss	 DWORD PTR _y1$[ebp], xmm0

; 465  : 
; 466  : 	title_change_array[j] = create_ui_object

  00b7f	6a 11		 push	 17			; 00000011H
  00b81	a1 00 00 00 00	 mov	 eax, DWORD PTR ?options_box_large@@3PAUTEXTURE_GRAPHIC@@A ; options_box_large
  00b86	50		 push	 eax
  00b87	6a 4c		 push	 76			; 0000004cH
  00b89	68 ff 00 00 00	 push	 255			; 000000ffH
  00b8e	68 ff 00 00 00	 push	 255			; 000000ffH
  00b93	68 ff 00 00 00	 push	 255			; 000000ffH
  00b98	68 ff 00 00 00	 push	 255			; 000000ffH
  00b9d	6a 0a		 push	 10			; 0000000aH
  00b9f	6a 00		 push	 0
  00ba1	68 ff 00 00 00	 push	 255			; 000000ffH
  00ba6	68 ff 00 00 00	 push	 255			; 000000ffH
  00bab	68 ff 00 00 00	 push	 255			; 000000ffH
  00bb0	6a 0b		 push	 11			; 0000000bH
  00bb2	83 ec 08	 sub	 esp, 8
  00bb5	f2 0f 10 05 00
	00 00 00	 movsd	 xmm0, QWORD PTR __real@3ff0000000000000
  00bbd	f2 0f 11 04 24	 movsd	 QWORD PTR [esp], xmm0
  00bc2	83 ec 08	 sub	 esp, 8
  00bc5	f2 0f 10 05 00
	00 00 00	 movsd	 xmm0, QWORD PTR __real@3fd3126ea0000000
  00bcd	f2 0f 11 04 24	 movsd	 QWORD PTR [esp], xmm0
  00bd2	6a 59		 push	 89			; 00000059H
  00bd4	f3 0f 5a 45 ec	 cvtss2sd xmm0, DWORD PTR _y1$[ebp]
  00bd9	83 ec 08	 sub	 esp, 8
  00bdc	f2 0f 11 04 24	 movsd	 QWORD PTR [esp], xmm0
  00be1	f3 0f 5a 45 f0	 cvtss2sd xmm0, DWORD PTR _x1$[ebp]
  00be6	83 ec 08	 sub	 esp, 8
  00be9	f2 0f 11 04 24	 movsd	 QWORD PTR [esp], xmm0
  00bee	6a 58		 push	 88			; 00000058H
  00bf0	8b 0d 00 00 00
	00		 mov	 ecx, DWORD PTR ?flow_area@@3PAUUI_OBJECT@@A ; flow_area
  00bf6	51		 push	 ecx
  00bf7	6a 32		 push	 50			; 00000032H
  00bf9	6a 01		 push	 1
  00bfb	e8 00 00 00 00	 call	 ?create_ui_object@@YAPAUUI_OBJECT@@HZZ ; create_ui_object
  00c00	83 c4 68	 add	 esp, 104		; 00000068H
  00c03	8b 55 f8	 mov	 edx, DWORD PTR _j$[ebp]
  00c06	89 84 95 24 ff
	ff ff		 mov	 DWORD PTR _title_change_array$[ebp+edx*4], eax

; 467  : 	(
; 468  : 		UI_TYPE_AREA,
; 469  : 		UI_ATTR_PARENT (flow_area),
; 470  : 		UI_ATTR_VIRTUAL_POSITION (x1, y1),
; 471  : 		UI_ATTR_VIRTUAL_SIZE (OPTION_BOX_WIDTH, OPTION_BOX_HEIGHT),
; 472  : 		UI_ATTR_COLOUR_START (255,255,255,0),
; 473  :       UI_ATTR_COLOUR_END (255,255,255,255),
; 474  : 		UI_ATTR_TEXTURE_GRAPHIC (options_box_large),
; 475  : 		UI_ATTR_END
; 476  : 	);
; 477  : 
; 478  :    check_array[j] = create_ui_object

  00c0d	6a 11		 push	 17			; 00000011H
  00c0f	68 00 00 00 00	 push	 OFFSET ??_C@_0N@CFDAGFAL@MP_HANDSHAKE@
  00c14	e8 00 00 00 00	 call	 ?get_trans@@YGPBDPBD@Z	; get_trans
  00c19	50		 push	 eax
  00c1a	6a 4a		 push	 74			; 0000004aH
  00c1c	6a 02		 push	 2
  00c1e	6a 4b		 push	 75			; 0000004bH
  00c20	83 ec 08	 sub	 esp, 8
  00c23	f2 0f 10 05 00
	00 00 00	 movsd	 xmm0, QWORD PTR __real@3fc24dd300000000
  00c2b	f2 0f 11 04 24	 movsd	 QWORD PTR [esp], xmm0
  00c30	83 ec 08	 sub	 esp, 8
  00c33	f2 0f 10 05 00
	00 00 00	 movsd	 xmm0, QWORD PTR __real@3fee666660000000
  00c3b	f2 0f 11 04 24	 movsd	 QWORD PTR [esp], xmm0
  00c40	6a 58		 push	 88			; 00000058H
  00c42	68 ff 00 00 00	 push	 255			; 000000ffH
  00c47	0f b6 05 00 00
	00 00		 movzx	 eax, BYTE PTR ?ui_option_title_text_colour@@3UREAL_COLOUR@@A
  00c4e	50		 push	 eax
  00c4f	0f b6 0d 01 00
	00 00		 movzx	 ecx, BYTE PTR ?ui_option_title_text_colour@@3UREAL_COLOUR@@A+1
  00c56	51		 push	 ecx
  00c57	0f b6 15 02 00
	00 00		 movzx	 edx, BYTE PTR ?ui_option_title_text_colour@@3UREAL_COLOUR@@A+2
  00c5e	52		 push	 edx
  00c5f	6a 14		 push	 20			; 00000014H
  00c61	6a 00		 push	 0
  00c63	0f b6 05 00 00
	00 00		 movzx	 eax, BYTE PTR ?ui_option_title_text_colour@@3UREAL_COLOUR@@A
  00c6a	50		 push	 eax
  00c6b	0f b6 0d 01 00
	00 00		 movzx	 ecx, BYTE PTR ?ui_option_title_text_colour@@3UREAL_COLOUR@@A+1
  00c72	51		 push	 ecx
  00c73	0f b6 15 02 00
	00 00		 movzx	 edx, BYTE PTR ?ui_option_title_text_colour@@3UREAL_COLOUR@@A+2
  00c7a	52		 push	 edx
  00c7b	6a 15		 push	 21			; 00000015H
  00c7d	6a 06		 push	 6
  00c7f	6a 12		 push	 18			; 00000012H
  00c81	8b 45 f8	 mov	 eax, DWORD PTR _j$[ebp]
  00c84	8b 8c 85 24 ff
	ff ff		 mov	 ecx, DWORD PTR _title_change_array$[ebp+eax*4]
  00c8b	51		 push	 ecx
  00c8c	6a 32		 push	 50			; 00000032H
  00c8e	6a 05		 push	 5
  00c90	e8 00 00 00 00	 call	 ?create_ui_object@@YAPAUUI_OBJECT@@HZZ ; create_ui_object
  00c95	83 c4 64	 add	 esp, 100		; 00000064H
  00c98	8b 55 f8	 mov	 edx, DWORD PTR _j$[ebp]
  00c9b	89 84 95 f4 fe
	ff ff		 mov	 DWORD PTR _check_array$[ebp+edx*4], eax

; 479  : 	(
; 480  : 		UI_TYPE_TEXT,
; 481  : 		UI_ATTR_PARENT (title_change_array [j]),
; 482  : 		UI_ATTR_FONT_TYPE (UI_FONT_THICK_ARIAL_18),
; 483  :       UI_ATTR_FONT_COLOUR_START (ui_option_title_text_colour.r, ui_option_title_text_colour.g, ui_option_title_text_colour.b, 0),
; 484  :       UI_ATTR_FONT_COLOUR_END (ui_option_title_text_colour.r, ui_option_title_text_colour.g, ui_option_title_text_colour.b, 255),
; 485  : 		UI_ATTR_VIRTUAL_POSITION (OPTION_BOX_TEXT_OFFSET_X, OPTION_BOX_TEXT_OFFSET_Y),
; 486  : 		UI_ATTR_TEXT_JUSTIFY (TEXT_JUSTIFY_RIGHT_CENTRE),
; 487  : 		UI_ATTR_TEXT (get_trans ("MP_HANDSHAKE") ),
; 488  : 		UI_ATTR_END
; 489  : 	);
; 490  : 
; 491  : 	preprocess_translation_object_size (title_change_array [j], check_array [j], NULL, 0, RESIZE_OPTION_BOX_TITLE);

  00ca2	6a 00		 push	 0
  00ca4	6a 00		 push	 0
  00ca6	6a 00		 push	 0
  00ca8	8b 45 f8	 mov	 eax, DWORD PTR _j$[ebp]
  00cab	8b 8c 85 f4 fe
	ff ff		 mov	 ecx, DWORD PTR _check_array$[ebp+eax*4]
  00cb2	51		 push	 ecx
  00cb3	8b 55 f8	 mov	 edx, DWORD PTR _j$[ebp]
  00cb6	8b 84 95 24 ff
	ff ff		 mov	 eax, DWORD PTR _title_change_array$[ebp+edx*4]
  00cbd	50		 push	 eax
  00cbe	e8 00 00 00 00	 call	 ?preprocess_translation_object_size@@YGXPAUUI_OBJECT@@0PAPBDHW4RESIZE_UI_OBJECT_TYPES@@@Z ; preprocess_translation_object_size

; 492  : 
; 493  : 	/////////////////////////////////////////////////////////////////
; 494  : 	// Modem SP stuff
; 495  : 	//
; 496  : 
; 497  : 	i = 1;

  00cc3	c7 45 fc 01 00
	00 00		 mov	 DWORD PTR _i$[ebp], 1

; 498  : 	j++;

  00cca	8b 45 f8	 mov	 eax, DWORD PTR _j$[ebp]
  00ccd	83 c0 01	 add	 eax, 1
  00cd0	89 45 f8	 mov	 DWORD PTR _j$[ebp], eax

; 499  : 	
; 500  : 	x1 = 0.0; 

  00cd3	0f 57 c0	 xorps	 xmm0, xmm0
  00cd6	f3 0f 11 45 f0	 movss	 DWORD PTR _x1$[ebp], xmm0

; 501  : 	y1 = OPTION_TITLE_OFFSET_Y + (OPTION_AREA_OFFSET_Y * i) + 0.0375;

  00cdb	f3 0f 2a 45 fc	 cvtsi2ss xmm0, DWORD PTR _i$[ebp]
  00ce0	f3 0f 59 05 00
	00 00 00	 mulss	 xmm0, DWORD PTR __real@3d7df3b6
  00ce8	f3 0f 58 05 00
	00 00 00	 addss	 xmm0, DWORD PTR __real@3e851eb8
  00cf0	f3 0f 5a c0	 cvtss2sd xmm0, xmm0
  00cf4	f2 0f 58 05 00
	00 00 00	 addsd	 xmm0, QWORD PTR __real@3fa3333333333333
  00cfc	f2 0f 5a c0	 cvtsd2ss xmm0, xmm0
  00d00	f3 0f 11 45 ec	 movss	 DWORD PTR _y1$[ebp], xmm0

; 502  : 
; 503  : 	modem_parameters_area = create_ui_object

  00d05	6a 11		 push	 17			; 00000011H
  00d07	6a 01		 push	 1
  00d09	6a 07		 push	 7
  00d0b	f3 0f 5a 45 e4	 cvtss2sd xmm0, DWORD PTR _y2$[ebp]
  00d10	83 ec 08	 sub	 esp, 8
  00d13	f2 0f 11 04 24	 movsd	 QWORD PTR [esp], xmm0
  00d18	f3 0f 5a 45 e8	 cvtss2sd xmm0, DWORD PTR _x2$[ebp]
  00d1d	83 ec 08	 sub	 esp, 8
  00d20	f2 0f 11 04 24	 movsd	 QWORD PTR [esp], xmm0
  00d25	6a 59		 push	 89			; 00000059H
  00d27	83 ec 08	 sub	 esp, 8
  00d2a	0f 57 c0	 xorps	 xmm0, xmm0
  00d2d	f2 0f 11 04 24	 movsd	 QWORD PTR [esp], xmm0
  00d32	83 ec 08	 sub	 esp, 8
  00d35	0f 57 c0	 xorps	 xmm0, xmm0
  00d38	f2 0f 11 04 24	 movsd	 QWORD PTR [esp], xmm0
  00d3d	6a 58		 push	 88			; 00000058H
  00d3f	a1 00 00 00 00	 mov	 eax, DWORD PTR ?multi_player_setup_area@@3PAUUI_OBJECT@@A ; multi_player_setup_area
  00d44	50		 push	 eax
  00d45	6a 32		 push	 50			; 00000032H
  00d47	6a 01		 push	 1
  00d49	e8 00 00 00 00	 call	 ?create_ui_object@@YAPAUUI_OBJECT@@HZZ ; create_ui_object
  00d4e	83 c4 40	 add	 esp, 64			; 00000040H
  00d51	a3 00 00 00 00	 mov	 DWORD PTR ?modem_parameters_area@@3PAUUI_OBJECT@@A, eax ; modem_parameters_area

; 504  : 									(
; 505  : 										UI_TYPE_AREA,
; 506  : 										UI_ATTR_PARENT (multi_player_setup_area),
; 507  : 										UI_ATTR_VIRTUAL_POSITION (0.0, 0.0),
; 508  : 										UI_ATTR_VIRTUAL_SIZE (x2, y2),
; 509  : 										UI_ATTR_CLEAR ( TRUE ),
; 510  : 										UI_ATTR_END
; 511  : 									);
; 512  : 
; 513  : 
; 514  : 	// modem type objects
; 515  : 	
; 516  : 	x1 = 0.0; 

  00d56	0f 57 c0	 xorps	 xmm0, xmm0
  00d59	f3 0f 11 45 f0	 movss	 DWORD PTR _x1$[ebp], xmm0

; 517  : 	y1 = OPTION_TITLE_OFFSET_Y + (OPTION_AREA_OFFSET_Y * i) + 0.0375;

  00d5e	f3 0f 2a 45 fc	 cvtsi2ss xmm0, DWORD PTR _i$[ebp]
  00d63	f3 0f 59 05 00
	00 00 00	 mulss	 xmm0, DWORD PTR __real@3d7df3b6
  00d6b	f3 0f 58 05 00
	00 00 00	 addss	 xmm0, DWORD PTR __real@3e851eb8
  00d73	f3 0f 5a c0	 cvtss2sd xmm0, xmm0
  00d77	f2 0f 58 05 00
	00 00 00	 addsd	 xmm0, QWORD PTR __real@3fa3333333333333
  00d7f	f2 0f 5a c0	 cvtsd2ss xmm0, xmm0
  00d83	f3 0f 11 45 ec	 movss	 DWORD PTR _y1$[ebp], xmm0

; 518  : 
; 519  :    modem_type_area = create_ui_object

  00d88	6a 11		 push	 17			; 00000011H
  00d8a	68 ff 00 00 00	 push	 255			; 000000ffH
  00d8f	68 ff 00 00 00	 push	 255			; 000000ffH
  00d94	68 ff 00 00 00	 push	 255			; 000000ffH
  00d99	68 ff 00 00 00	 push	 255			; 000000ffH
  00d9e	6a 0a		 push	 10			; 0000000aH
  00da0	6a 00		 push	 0
  00da2	6a 00		 push	 0
  00da4	6a 00		 push	 0
  00da6	6a 00		 push	 0
  00da8	6a 0b		 push	 11			; 0000000bH
  00daa	6a 01		 push	 1
  00dac	6a 07		 push	 7
  00dae	83 ec 08	 sub	 esp, 8
  00db1	f2 0f 10 05 00
	00 00 00	 movsd	 xmm0, QWORD PTR __real@3fadb22d00000000
  00db9	f2 0f 11 04 24	 movsd	 QWORD PTR [esp], xmm0
  00dbe	83 ec 08	 sub	 esp, 8
  00dc1	f2 0f 10 05 00
	00 00 00	 movsd	 xmm0, QWORD PTR __real@3ff0000000000000
  00dc9	f2 0f 11 04 24	 movsd	 QWORD PTR [esp], xmm0
  00dce	6a 59		 push	 89			; 00000059H
  00dd0	f3 0f 5a 45 ec	 cvtss2sd xmm0, DWORD PTR _y1$[ebp]
  00dd5	83 ec 08	 sub	 esp, 8
  00dd8	f2 0f 11 04 24	 movsd	 QWORD PTR [esp], xmm0
  00ddd	f3 0f 5a 45 f0	 cvtss2sd xmm0, DWORD PTR _x1$[ebp]
  00de2	83 ec 08	 sub	 esp, 8
  00de5	f2 0f 11 04 24	 movsd	 QWORD PTR [esp], xmm0
  00dea	6a 58		 push	 88			; 00000058H
  00dec	a1 00 00 00 00	 mov	 eax, DWORD PTR ?modem_parameters_area@@3PAUUI_OBJECT@@A ; modem_parameters_area
  00df1	50		 push	 eax
  00df2	6a 32		 push	 50			; 00000032H
  00df4	6a 01		 push	 1
  00df6	e8 00 00 00 00	 call	 ?create_ui_object@@YAPAUUI_OBJECT@@HZZ ; create_ui_object
  00dfb	83 c4 68	 add	 esp, 104		; 00000068H
  00dfe	a3 00 00 00 00	 mov	 DWORD PTR ?modem_type_area@@3PAUUI_OBJECT@@A, eax ; modem_type_area

; 520  : 									(
; 521  : 										UI_TYPE_AREA,
; 522  : 										UI_ATTR_PARENT (modem_parameters_area),
; 523  : 										UI_ATTR_VIRTUAL_POSITION (x1, y1),
; 524  : 										UI_ATTR_VIRTUAL_SIZE (OPTION_AREA_WIDTH, OPTION_AREA_HEIGHT),
; 525  : 										UI_ATTR_CLEAR (TRUE),
; 526  : 					               UI_ATTR_COLOUR_START (0,0,0,0),
; 527  :             					   UI_ATTR_COLOUR_END (255,255,255,255),
; 528  : 										UI_ATTR_END
; 529  : 									);
; 530  : 
; 531  : 	x1 = OPTION_TITLE_OFFSET_X;

  00e03	f3 0f 10 05 00
	00 00 00	 movss	 xmm0, DWORD PTR __real@3def9db2
  00e0b	f3 0f 11 45 f0	 movss	 DWORD PTR _x1$[ebp], xmm0

; 532  : 	y1 = 0.0; 

  00e10	0f 57 c0	 xorps	 xmm0, xmm0
  00e13	f3 0f 11 45 ec	 movss	 DWORD PTR _y1$[ebp], xmm0

; 533  : 
; 534  : 	title_change_array[j] = create_ui_object

  00e18	6a 11		 push	 17			; 00000011H
  00e1a	a1 00 00 00 00	 mov	 eax, DWORD PTR ?options_box_large@@3PAUTEXTURE_GRAPHIC@@A ; options_box_large
  00e1f	50		 push	 eax
  00e20	6a 4c		 push	 76			; 0000004cH
  00e22	68 ff 00 00 00	 push	 255			; 000000ffH
  00e27	68 ff 00 00 00	 push	 255			; 000000ffH
  00e2c	68 ff 00 00 00	 push	 255			; 000000ffH
  00e31	68 ff 00 00 00	 push	 255			; 000000ffH
  00e36	6a 0a		 push	 10			; 0000000aH
  00e38	6a 00		 push	 0
  00e3a	68 ff 00 00 00	 push	 255			; 000000ffH
  00e3f	68 ff 00 00 00	 push	 255			; 000000ffH
  00e44	68 ff 00 00 00	 push	 255			; 000000ffH
  00e49	6a 0b		 push	 11			; 0000000bH
  00e4b	83 ec 08	 sub	 esp, 8
  00e4e	f2 0f 10 05 00
	00 00 00	 movsd	 xmm0, QWORD PTR __real@3ff0000000000000
  00e56	f2 0f 11 04 24	 movsd	 QWORD PTR [esp], xmm0
  00e5b	83 ec 08	 sub	 esp, 8
  00e5e	f2 0f 10 05 00
	00 00 00	 movsd	 xmm0, QWORD PTR __real@3fd3126ea0000000
  00e66	f2 0f 11 04 24	 movsd	 QWORD PTR [esp], xmm0
  00e6b	6a 59		 push	 89			; 00000059H
  00e6d	f3 0f 5a 45 ec	 cvtss2sd xmm0, DWORD PTR _y1$[ebp]
  00e72	83 ec 08	 sub	 esp, 8
  00e75	f2 0f 11 04 24	 movsd	 QWORD PTR [esp], xmm0
  00e7a	f3 0f 5a 45 f0	 cvtss2sd xmm0, DWORD PTR _x1$[ebp]
  00e7f	83 ec 08	 sub	 esp, 8
  00e82	f2 0f 11 04 24	 movsd	 QWORD PTR [esp], xmm0
  00e87	6a 58		 push	 88			; 00000058H
  00e89	8b 0d 00 00 00
	00		 mov	 ecx, DWORD PTR ?modem_type_area@@3PAUUI_OBJECT@@A ; modem_type_area
  00e8f	51		 push	 ecx
  00e90	6a 32		 push	 50			; 00000032H
  00e92	6a 01		 push	 1
  00e94	e8 00 00 00 00	 call	 ?create_ui_object@@YAPAUUI_OBJECT@@HZZ ; create_ui_object
  00e99	83 c4 68	 add	 esp, 104		; 00000068H
  00e9c	8b 55 f8	 mov	 edx, DWORD PTR _j$[ebp]
  00e9f	89 84 95 24 ff
	ff ff		 mov	 DWORD PTR _title_change_array$[ebp+edx*4], eax

; 535  : 	(
; 536  : 		UI_TYPE_AREA,
; 537  : 		UI_ATTR_PARENT (modem_type_area),
; 538  : 		UI_ATTR_VIRTUAL_POSITION (x1, y1),
; 539  : 		UI_ATTR_VIRTUAL_SIZE (OPTION_BOX_WIDTH, OPTION_BOX_HEIGHT),
; 540  : 		UI_ATTR_COLOUR_START (255,255,255,0),
; 541  :       UI_ATTR_COLOUR_END (255,255,255,255),
; 542  : 		UI_ATTR_TEXTURE_GRAPHIC (options_box_large),
; 543  : 		UI_ATTR_END
; 544  : 	);
; 545  : 
; 546  :    check_array[j] = create_ui_object

  00ea6	6a 11		 push	 17			; 00000011H
  00ea8	68 00 00 00 00	 push	 OFFSET ??_C@_08PIAFACLK@MP_MODEM@
  00ead	e8 00 00 00 00	 call	 ?get_trans@@YGPBDPBD@Z	; get_trans
  00eb2	50		 push	 eax
  00eb3	6a 4a		 push	 74			; 0000004aH
  00eb5	6a 02		 push	 2
  00eb7	6a 4b		 push	 75			; 0000004bH
  00eb9	83 ec 08	 sub	 esp, 8
  00ebc	f2 0f 10 05 00
	00 00 00	 movsd	 xmm0, QWORD PTR __real@3fc24dd300000000
  00ec4	f2 0f 11 04 24	 movsd	 QWORD PTR [esp], xmm0
  00ec9	83 ec 08	 sub	 esp, 8
  00ecc	f2 0f 10 05 00
	00 00 00	 movsd	 xmm0, QWORD PTR __real@3fee666660000000
  00ed4	f2 0f 11 04 24	 movsd	 QWORD PTR [esp], xmm0
  00ed9	6a 58		 push	 88			; 00000058H
  00edb	68 ff 00 00 00	 push	 255			; 000000ffH
  00ee0	0f b6 05 00 00
	00 00		 movzx	 eax, BYTE PTR ?ui_option_title_text_colour@@3UREAL_COLOUR@@A
  00ee7	50		 push	 eax
  00ee8	0f b6 0d 01 00
	00 00		 movzx	 ecx, BYTE PTR ?ui_option_title_text_colour@@3UREAL_COLOUR@@A+1
  00eef	51		 push	 ecx
  00ef0	0f b6 15 02 00
	00 00		 movzx	 edx, BYTE PTR ?ui_option_title_text_colour@@3UREAL_COLOUR@@A+2
  00ef7	52		 push	 edx
  00ef8	6a 14		 push	 20			; 00000014H
  00efa	6a 00		 push	 0
  00efc	0f b6 05 00 00
	00 00		 movzx	 eax, BYTE PTR ?ui_option_title_text_colour@@3UREAL_COLOUR@@A
  00f03	50		 push	 eax
  00f04	0f b6 0d 01 00
	00 00		 movzx	 ecx, BYTE PTR ?ui_option_title_text_colour@@3UREAL_COLOUR@@A+1
  00f0b	51		 push	 ecx
  00f0c	0f b6 15 02 00
	00 00		 movzx	 edx, BYTE PTR ?ui_option_title_text_colour@@3UREAL_COLOUR@@A+2
  00f13	52		 push	 edx
  00f14	6a 15		 push	 21			; 00000015H
  00f16	6a 06		 push	 6
  00f18	6a 12		 push	 18			; 00000012H
  00f1a	8b 45 f8	 mov	 eax, DWORD PTR _j$[ebp]
  00f1d	8b 8c 85 24 ff
	ff ff		 mov	 ecx, DWORD PTR _title_change_array$[ebp+eax*4]
  00f24	51		 push	 ecx
  00f25	6a 32		 push	 50			; 00000032H
  00f27	6a 05		 push	 5
  00f29	e8 00 00 00 00	 call	 ?create_ui_object@@YAPAUUI_OBJECT@@HZZ ; create_ui_object
  00f2e	83 c4 64	 add	 esp, 100		; 00000064H
  00f31	8b 55 f8	 mov	 edx, DWORD PTR _j$[ebp]
  00f34	89 84 95 f4 fe
	ff ff		 mov	 DWORD PTR _check_array$[ebp+edx*4], eax

; 547  : 	(
; 548  : 		UI_TYPE_TEXT,
; 549  : 		UI_ATTR_PARENT (title_change_array [j]),
; 550  : 		UI_ATTR_FONT_TYPE (UI_FONT_THICK_ARIAL_18),
; 551  :       UI_ATTR_FONT_COLOUR_START (ui_option_title_text_colour.r, ui_option_title_text_colour.g, ui_option_title_text_colour.b, 0),
; 552  :       UI_ATTR_FONT_COLOUR_END (ui_option_title_text_colour.r, ui_option_title_text_colour.g, ui_option_title_text_colour.b, 255),
; 553  : 		UI_ATTR_VIRTUAL_POSITION (OPTION_BOX_TEXT_OFFSET_X, OPTION_BOX_TEXT_OFFSET_Y),
; 554  : 		UI_ATTR_TEXT_JUSTIFY (TEXT_JUSTIFY_RIGHT_CENTRE),
; 555  : 		UI_ATTR_TEXT (get_trans ("MP_MODEM") ),
; 556  : 		UI_ATTR_END
; 557  : 	);
; 558  : 
; 559  : 	preprocess_translation_object_size (title_change_array [j], check_array [j], NULL, 0, RESIZE_OPTION_BOX_TITLE);

  00f3b	6a 00		 push	 0
  00f3d	6a 00		 push	 0
  00f3f	6a 00		 push	 0
  00f41	8b 45 f8	 mov	 eax, DWORD PTR _j$[ebp]
  00f44	8b 8c 85 f4 fe
	ff ff		 mov	 ecx, DWORD PTR _check_array$[ebp+eax*4]
  00f4b	51		 push	 ecx
  00f4c	8b 55 f8	 mov	 edx, DWORD PTR _j$[ebp]
  00f4f	8b 84 95 24 ff
	ff ff		 mov	 eax, DWORD PTR _title_change_array$[ebp+edx*4]
  00f56	50		 push	 eax
  00f57	e8 00 00 00 00	 call	 ?preprocess_translation_object_size@@YGXPAUUI_OBJECT@@0PAPBDHW4RESIZE_UI_OBJECT_TYPES@@@Z ; preprocess_translation_object_size

; 560  : 
; 561  : 	// phone number
; 562  : 	
; 563  : 	i++;

  00f5c	8b 45 fc	 mov	 eax, DWORD PTR _i$[ebp]
  00f5f	83 c0 01	 add	 eax, 1
  00f62	89 45 fc	 mov	 DWORD PTR _i$[ebp], eax

; 564  : 	j++;

  00f65	8b 45 f8	 mov	 eax, DWORD PTR _j$[ebp]
  00f68	83 c0 01	 add	 eax, 1
  00f6b	89 45 f8	 mov	 DWORD PTR _j$[ebp], eax

; 565  : 
; 566  : 	x1 = 0.0; 

  00f6e	0f 57 c0	 xorps	 xmm0, xmm0
  00f71	f3 0f 11 45 f0	 movss	 DWORD PTR _x1$[ebp], xmm0

; 567  : 	y1 = OPTION_TITLE_OFFSET_Y + (OPTION_AREA_OFFSET_Y * i) + 0.0375;

  00f76	f3 0f 2a 45 fc	 cvtsi2ss xmm0, DWORD PTR _i$[ebp]
  00f7b	f3 0f 59 05 00
	00 00 00	 mulss	 xmm0, DWORD PTR __real@3d7df3b6
  00f83	f3 0f 58 05 00
	00 00 00	 addss	 xmm0, DWORD PTR __real@3e851eb8
  00f8b	f3 0f 5a c0	 cvtss2sd xmm0, xmm0
  00f8f	f2 0f 58 05 00
	00 00 00	 addsd	 xmm0, QWORD PTR __real@3fa3333333333333
  00f97	f2 0f 5a c0	 cvtsd2ss xmm0, xmm0
  00f9b	f3 0f 11 45 ec	 movss	 DWORD PTR _y1$[ebp], xmm0

; 568  : 
; 569  :   	phone_number_area = create_ui_object

  00fa0	6a 11		 push	 17			; 00000011H
  00fa2	68 ff 00 00 00	 push	 255			; 000000ffH
  00fa7	68 ff 00 00 00	 push	 255			; 000000ffH
  00fac	68 ff 00 00 00	 push	 255			; 000000ffH
  00fb1	68 ff 00 00 00	 push	 255			; 000000ffH
  00fb6	6a 0a		 push	 10			; 0000000aH
  00fb8	6a 00		 push	 0
  00fba	6a 00		 push	 0
  00fbc	6a 00		 push	 0
  00fbe	6a 00		 push	 0
  00fc0	6a 0b		 push	 11			; 0000000bH
  00fc2	6a 01		 push	 1
  00fc4	6a 07		 push	 7
  00fc6	83 ec 08	 sub	 esp, 8
  00fc9	f2 0f 10 05 00
	00 00 00	 movsd	 xmm0, QWORD PTR __real@3fadb22d00000000
  00fd1	f2 0f 11 04 24	 movsd	 QWORD PTR [esp], xmm0
  00fd6	83 ec 08	 sub	 esp, 8
  00fd9	f2 0f 10 05 00
	00 00 00	 movsd	 xmm0, QWORD PTR __real@3ff0000000000000
  00fe1	f2 0f 11 04 24	 movsd	 QWORD PTR [esp], xmm0
  00fe6	6a 59		 push	 89			; 00000059H
  00fe8	f3 0f 5a 45 ec	 cvtss2sd xmm0, DWORD PTR _y1$[ebp]
  00fed	83 ec 08	 sub	 esp, 8
  00ff0	f2 0f 11 04 24	 movsd	 QWORD PTR [esp], xmm0
  00ff5	f3 0f 5a 45 f0	 cvtss2sd xmm0, DWORD PTR _x1$[ebp]
  00ffa	83 ec 08	 sub	 esp, 8
  00ffd	f2 0f 11 04 24	 movsd	 QWORD PTR [esp], xmm0
  01002	6a 58		 push	 88			; 00000058H
  01004	a1 00 00 00 00	 mov	 eax, DWORD PTR ?modem_parameters_area@@3PAUUI_OBJECT@@A ; modem_parameters_area
  01009	50		 push	 eax
  0100a	6a 32		 push	 50			; 00000032H
  0100c	6a 01		 push	 1
  0100e	e8 00 00 00 00	 call	 ?create_ui_object@@YAPAUUI_OBJECT@@HZZ ; create_ui_object
  01013	83 c4 68	 add	 esp, 104		; 00000068H
  01016	a3 00 00 00 00	 mov	 DWORD PTR ?phone_number_area@@3PAUUI_OBJECT@@A, eax ; phone_number_area

; 570  : 									(
; 571  : 										UI_TYPE_AREA,
; 572  : 										UI_ATTR_PARENT (modem_parameters_area),
; 573  : 										UI_ATTR_VIRTUAL_POSITION (x1, y1),
; 574  : 										UI_ATTR_VIRTUAL_SIZE (OPTION_AREA_WIDTH, OPTION_AREA_HEIGHT),
; 575  : 										UI_ATTR_CLEAR (TRUE),
; 576  : 					               UI_ATTR_COLOUR_START (0,0,0,0),
; 577  :             					   UI_ATTR_COLOUR_END (255,255,255,255),
; 578  : 										UI_ATTR_END
; 579  : 									);
; 580  : 
; 581  : 	x1 = OPTION_TITLE_OFFSET_X;

  0101b	f3 0f 10 05 00
	00 00 00	 movss	 xmm0, DWORD PTR __real@3def9db2
  01023	f3 0f 11 45 f0	 movss	 DWORD PTR _x1$[ebp], xmm0

; 582  : 	y1 = 0.0; 

  01028	0f 57 c0	 xorps	 xmm0, xmm0
  0102b	f3 0f 11 45 ec	 movss	 DWORD PTR _y1$[ebp], xmm0

; 583  : 
; 584  : 	title_change_array[j] = create_ui_object

  01030	6a 11		 push	 17			; 00000011H
  01032	a1 00 00 00 00	 mov	 eax, DWORD PTR ?options_box_large@@3PAUTEXTURE_GRAPHIC@@A ; options_box_large
  01037	50		 push	 eax
  01038	6a 4c		 push	 76			; 0000004cH
  0103a	68 ff 00 00 00	 push	 255			; 000000ffH
  0103f	68 ff 00 00 00	 push	 255			; 000000ffH
  01044	68 ff 00 00 00	 push	 255			; 000000ffH
  01049	68 ff 00 00 00	 push	 255			; 000000ffH
  0104e	6a 0a		 push	 10			; 0000000aH
  01050	6a 00		 push	 0
  01052	68 ff 00 00 00	 push	 255			; 000000ffH
  01057	68 ff 00 00 00	 push	 255			; 000000ffH
  0105c	68 ff 00 00 00	 push	 255			; 000000ffH
  01061	6a 0b		 push	 11			; 0000000bH
  01063	83 ec 08	 sub	 esp, 8
  01066	f2 0f 10 05 00
	00 00 00	 movsd	 xmm0, QWORD PTR __real@3ff0000000000000
  0106e	f2 0f 11 04 24	 movsd	 QWORD PTR [esp], xmm0
  01073	83 ec 08	 sub	 esp, 8
  01076	f2 0f 10 05 00
	00 00 00	 movsd	 xmm0, QWORD PTR __real@3fd3126ea0000000
  0107e	f2 0f 11 04 24	 movsd	 QWORD PTR [esp], xmm0
  01083	6a 59		 push	 89			; 00000059H
  01085	f3 0f 5a 45 ec	 cvtss2sd xmm0, DWORD PTR _y1$[ebp]
  0108a	83 ec 08	 sub	 esp, 8
  0108d	f2 0f 11 04 24	 movsd	 QWORD PTR [esp], xmm0
  01092	f3 0f 5a 45 f0	 cvtss2sd xmm0, DWORD PTR _x1$[ebp]
  01097	83 ec 08	 sub	 esp, 8
  0109a	f2 0f 11 04 24	 movsd	 QWORD PTR [esp], xmm0
  0109f	6a 58		 push	 88			; 00000058H
  010a1	8b 0d 00 00 00
	00		 mov	 ecx, DWORD PTR ?phone_number_area@@3PAUUI_OBJECT@@A ; phone_number_area
  010a7	51		 push	 ecx
  010a8	6a 32		 push	 50			; 00000032H
  010aa	6a 01		 push	 1
  010ac	e8 00 00 00 00	 call	 ?create_ui_object@@YAPAUUI_OBJECT@@HZZ ; create_ui_object
  010b1	83 c4 68	 add	 esp, 104		; 00000068H
  010b4	8b 55 f8	 mov	 edx, DWORD PTR _j$[ebp]
  010b7	89 84 95 24 ff
	ff ff		 mov	 DWORD PTR _title_change_array$[ebp+edx*4], eax

; 585  : 	(
; 586  : 		UI_TYPE_AREA,
; 587  : 		UI_ATTR_PARENT (phone_number_area),
; 588  : 		UI_ATTR_VIRTUAL_POSITION (x1, y1),
; 589  : 		UI_ATTR_VIRTUAL_SIZE (OPTION_BOX_WIDTH, OPTION_BOX_HEIGHT),
; 590  : 		UI_ATTR_COLOUR_START (255,255,255,0),
; 591  :       UI_ATTR_COLOUR_END (255,255,255,255),
; 592  : 		UI_ATTR_TEXTURE_GRAPHIC (options_box_large),
; 593  : 		UI_ATTR_END
; 594  : 	);
; 595  : 
; 596  :    check_array[j] = create_ui_object

  010be	6a 11		 push	 17			; 00000011H
  010c0	68 00 00 00 00	 push	 OFFSET ??_C@_0BA@OIGPLOE@MP_PHONE_NUMBER@
  010c5	e8 00 00 00 00	 call	 ?get_trans@@YGPBDPBD@Z	; get_trans
  010ca	50		 push	 eax
  010cb	6a 4a		 push	 74			; 0000004aH
  010cd	6a 02		 push	 2
  010cf	6a 4b		 push	 75			; 0000004bH
  010d1	83 ec 08	 sub	 esp, 8
  010d4	f2 0f 10 05 00
	00 00 00	 movsd	 xmm0, QWORD PTR __real@3fc24dd300000000
  010dc	f2 0f 11 04 24	 movsd	 QWORD PTR [esp], xmm0
  010e1	83 ec 08	 sub	 esp, 8
  010e4	f2 0f 10 05 00
	00 00 00	 movsd	 xmm0, QWORD PTR __real@3fee666660000000
  010ec	f2 0f 11 04 24	 movsd	 QWORD PTR [esp], xmm0
  010f1	6a 58		 push	 88			; 00000058H
  010f3	68 ff 00 00 00	 push	 255			; 000000ffH
  010f8	0f b6 05 00 00
	00 00		 movzx	 eax, BYTE PTR ?ui_option_title_text_colour@@3UREAL_COLOUR@@A
  010ff	50		 push	 eax
  01100	0f b6 0d 01 00
	00 00		 movzx	 ecx, BYTE PTR ?ui_option_title_text_colour@@3UREAL_COLOUR@@A+1
  01107	51		 push	 ecx
  01108	0f b6 15 02 00
	00 00		 movzx	 edx, BYTE PTR ?ui_option_title_text_colour@@3UREAL_COLOUR@@A+2
  0110f	52		 push	 edx
  01110	6a 14		 push	 20			; 00000014H
  01112	6a 00		 push	 0
  01114	0f b6 05 00 00
	00 00		 movzx	 eax, BYTE PTR ?ui_option_title_text_colour@@3UREAL_COLOUR@@A
  0111b	50		 push	 eax
  0111c	0f b6 0d 01 00
	00 00		 movzx	 ecx, BYTE PTR ?ui_option_title_text_colour@@3UREAL_COLOUR@@A+1
  01123	51		 push	 ecx
  01124	0f b6 15 02 00
	00 00		 movzx	 edx, BYTE PTR ?ui_option_title_text_colour@@3UREAL_COLOUR@@A+2
  0112b	52		 push	 edx
  0112c	6a 15		 push	 21			; 00000015H
  0112e	6a 06		 push	 6
  01130	6a 12		 push	 18			; 00000012H
  01132	8b 45 f8	 mov	 eax, DWORD PTR _j$[ebp]
  01135	8b 8c 85 24 ff
	ff ff		 mov	 ecx, DWORD PTR _title_change_array$[ebp+eax*4]
  0113c	51		 push	 ecx
  0113d	6a 32		 push	 50			; 00000032H
  0113f	6a 05		 push	 5
  01141	e8 00 00 00 00	 call	 ?create_ui_object@@YAPAUUI_OBJECT@@HZZ ; create_ui_object
  01146	83 c4 64	 add	 esp, 100		; 00000064H
  01149	8b 55 f8	 mov	 edx, DWORD PTR _j$[ebp]
  0114c	89 84 95 f4 fe
	ff ff		 mov	 DWORD PTR _check_array$[ebp+edx*4], eax

; 597  : 	(
; 598  : 		UI_TYPE_TEXT,
; 599  : 		UI_ATTR_PARENT (title_change_array [j]),
; 600  : 		UI_ATTR_FONT_TYPE (UI_FONT_THICK_ARIAL_18),
; 601  :       UI_ATTR_FONT_COLOUR_START (ui_option_title_text_colour.r, ui_option_title_text_colour.g, ui_option_title_text_colour.b, 0),
; 602  :       UI_ATTR_FONT_COLOUR_END (ui_option_title_text_colour.r, ui_option_title_text_colour.g, ui_option_title_text_colour.b, 255),
; 603  : 		UI_ATTR_VIRTUAL_POSITION (OPTION_BOX_TEXT_OFFSET_X, OPTION_BOX_TEXT_OFFSET_Y),
; 604  : 		UI_ATTR_TEXT_JUSTIFY (TEXT_JUSTIFY_RIGHT_CENTRE),
; 605  : 		UI_ATTR_TEXT (get_trans ("MP_PHONE_NUMBER") ),
; 606  : 		UI_ATTR_END
; 607  : 	);
; 608  : 
; 609  : 	preprocess_translation_object_size (title_change_array [j], check_array [j], NULL, 0, RESIZE_OPTION_BOX_TITLE);

  01153	6a 00		 push	 0
  01155	6a 00		 push	 0
  01157	6a 00		 push	 0
  01159	8b 45 f8	 mov	 eax, DWORD PTR _j$[ebp]
  0115c	8b 8c 85 f4 fe
	ff ff		 mov	 ecx, DWORD PTR _check_array$[ebp+eax*4]
  01163	51		 push	 ecx
  01164	8b 55 f8	 mov	 edx, DWORD PTR _j$[ebp]
  01167	8b 84 95 24 ff
	ff ff		 mov	 eax, DWORD PTR _title_change_array$[ebp+edx*4]
  0116e	50		 push	 eax
  0116f	e8 00 00 00 00	 call	 ?preprocess_translation_object_size@@YGXPAUUI_OBJECT@@0PAPBDHW4RESIZE_UI_OBJECT_TYPES@@@Z ; preprocess_translation_object_size

; 610  : 
; 611  : 	// modem connection objects
; 612  : 
; 613  : 	// connection type area - keep at bottom of function so it is on top of other areas
; 614  : 
; 615  : 	i = 0;

  01174	c7 45 fc 00 00
	00 00		 mov	 DWORD PTR _i$[ebp], 0

; 616  : 	j++;

  0117b	8b 45 f8	 mov	 eax, DWORD PTR _j$[ebp]
  0117e	83 c0 01	 add	 eax, 1
  01181	89 45 f8	 mov	 DWORD PTR _j$[ebp], eax

; 617  : 
; 618  : 	x1 = 0.0; 

  01184	0f 57 c0	 xorps	 xmm0, xmm0
  01187	f3 0f 11 45 f0	 movss	 DWORD PTR _x1$[ebp], xmm0

; 619  : 	y1 = OPTION_TITLE_OFFSET_Y + (OPTION_AREA_OFFSET_Y * i);

  0118c	f3 0f 2a 45 fc	 cvtsi2ss xmm0, DWORD PTR _i$[ebp]
  01191	f3 0f 59 05 00
	00 00 00	 mulss	 xmm0, DWORD PTR __real@3d7df3b6
  01199	f3 0f 58 05 00
	00 00 00	 addss	 xmm0, DWORD PTR __real@3e851eb8
  011a1	f3 0f 11 45 ec	 movss	 DWORD PTR _y1$[ebp], xmm0

; 620  : 
; 621  :    connection_type_area = create_ui_object

  011a6	6a 11		 push	 17			; 00000011H
  011a8	68 ff 00 00 00	 push	 255			; 000000ffH
  011ad	68 ff 00 00 00	 push	 255			; 000000ffH
  011b2	68 ff 00 00 00	 push	 255			; 000000ffH
  011b7	68 ff 00 00 00	 push	 255			; 000000ffH
  011bc	6a 0a		 push	 10			; 0000000aH
  011be	6a 00		 push	 0
  011c0	6a 00		 push	 0
  011c2	6a 00		 push	 0
  011c4	6a 00		 push	 0
  011c6	6a 0b		 push	 11			; 0000000bH
  011c8	6a 01		 push	 1
  011ca	6a 07		 push	 7
  011cc	83 ec 08	 sub	 esp, 8
  011cf	f2 0f 10 05 00
	00 00 00	 movsd	 xmm0, QWORD PTR __real@3fadb22d00000000
  011d7	f2 0f 11 04 24	 movsd	 QWORD PTR [esp], xmm0
  011dc	83 ec 08	 sub	 esp, 8
  011df	f2 0f 10 05 00
	00 00 00	 movsd	 xmm0, QWORD PTR __real@3ff0000000000000
  011e7	f2 0f 11 04 24	 movsd	 QWORD PTR [esp], xmm0
  011ec	6a 59		 push	 89			; 00000059H
  011ee	f3 0f 5a 45 ec	 cvtss2sd xmm0, DWORD PTR _y1$[ebp]
  011f3	83 ec 08	 sub	 esp, 8
  011f6	f2 0f 11 04 24	 movsd	 QWORD PTR [esp], xmm0
  011fb	f3 0f 5a 45 f0	 cvtss2sd xmm0, DWORD PTR _x1$[ebp]
  01200	83 ec 08	 sub	 esp, 8
  01203	f2 0f 11 04 24	 movsd	 QWORD PTR [esp], xmm0
  01208	6a 58		 push	 88			; 00000058H
  0120a	a1 00 00 00 00	 mov	 eax, DWORD PTR ?multi_player_setup_area@@3PAUUI_OBJECT@@A ; multi_player_setup_area
  0120f	50		 push	 eax
  01210	6a 32		 push	 50			; 00000032H
  01212	6a 01		 push	 1
  01214	e8 00 00 00 00	 call	 ?create_ui_object@@YAPAUUI_OBJECT@@HZZ ; create_ui_object
  01219	83 c4 68	 add	 esp, 104		; 00000068H
  0121c	a3 00 00 00 00	 mov	 DWORD PTR ?connection_type_area@@3PAUUI_OBJECT@@A, eax ; connection_type_area

; 622  : 									(
; 623  : 										UI_TYPE_AREA,
; 624  : 										UI_ATTR_PARENT (multi_player_setup_area),
; 625  : 										UI_ATTR_VIRTUAL_POSITION (x1, y1),
; 626  : 										UI_ATTR_VIRTUAL_SIZE (OPTION_AREA_WIDTH, OPTION_AREA_HEIGHT),
; 627  : 										UI_ATTR_CLEAR (TRUE),
; 628  : 					               UI_ATTR_COLOUR_START (0,0,0,0),
; 629  :             					   UI_ATTR_COLOUR_END (255,255,255,255),
; 630  : 										UI_ATTR_END
; 631  : 									);
; 632  : 
; 633  : 	x1 = OPTION_TITLE_OFFSET_X;

  01221	f3 0f 10 05 00
	00 00 00	 movss	 xmm0, DWORD PTR __real@3def9db2
  01229	f3 0f 11 45 f0	 movss	 DWORD PTR _x1$[ebp], xmm0

; 634  : 	y1 = 0.0; 

  0122e	0f 57 c0	 xorps	 xmm0, xmm0
  01231	f3 0f 11 45 ec	 movss	 DWORD PTR _y1$[ebp], xmm0

; 635  : 
; 636  : 	title_change_array[j] = create_ui_object

  01236	6a 11		 push	 17			; 00000011H
  01238	a1 00 00 00 00	 mov	 eax, DWORD PTR ?options_box_large@@3PAUTEXTURE_GRAPHIC@@A ; options_box_large
  0123d	50		 push	 eax
  0123e	6a 4c		 push	 76			; 0000004cH
  01240	68 ff 00 00 00	 push	 255			; 000000ffH
  01245	68 ff 00 00 00	 push	 255			; 000000ffH
  0124a	68 ff 00 00 00	 push	 255			; 000000ffH
  0124f	68 ff 00 00 00	 push	 255			; 000000ffH
  01254	6a 0a		 push	 10			; 0000000aH
  01256	6a 00		 push	 0
  01258	68 ff 00 00 00	 push	 255			; 000000ffH
  0125d	68 ff 00 00 00	 push	 255			; 000000ffH
  01262	68 ff 00 00 00	 push	 255			; 000000ffH
  01267	6a 0b		 push	 11			; 0000000bH
  01269	83 ec 08	 sub	 esp, 8
  0126c	f2 0f 10 05 00
	00 00 00	 movsd	 xmm0, QWORD PTR __real@3ff0000000000000
  01274	f2 0f 11 04 24	 movsd	 QWORD PTR [esp], xmm0
  01279	83 ec 08	 sub	 esp, 8
  0127c	f2 0f 10 05 00
	00 00 00	 movsd	 xmm0, QWORD PTR __real@3fd3126ea0000000
  01284	f2 0f 11 04 24	 movsd	 QWORD PTR [esp], xmm0
  01289	6a 59		 push	 89			; 00000059H
  0128b	f3 0f 5a 45 ec	 cvtss2sd xmm0, DWORD PTR _y1$[ebp]
  01290	83 ec 08	 sub	 esp, 8
  01293	f2 0f 11 04 24	 movsd	 QWORD PTR [esp], xmm0
  01298	f3 0f 5a 45 f0	 cvtss2sd xmm0, DWORD PTR _x1$[ebp]
  0129d	83 ec 08	 sub	 esp, 8
  012a0	f2 0f 11 04 24	 movsd	 QWORD PTR [esp], xmm0
  012a5	6a 58		 push	 88			; 00000058H
  012a7	8b 0d 00 00 00
	00		 mov	 ecx, DWORD PTR ?connection_type_area@@3PAUUI_OBJECT@@A ; connection_type_area
  012ad	51		 push	 ecx
  012ae	6a 32		 push	 50			; 00000032H
  012b0	6a 01		 push	 1
  012b2	e8 00 00 00 00	 call	 ?create_ui_object@@YAPAUUI_OBJECT@@HZZ ; create_ui_object
  012b7	83 c4 68	 add	 esp, 104		; 00000068H
  012ba	8b 55 f8	 mov	 edx, DWORD PTR _j$[ebp]
  012bd	89 84 95 24 ff
	ff ff		 mov	 DWORD PTR _title_change_array$[ebp+edx*4], eax

; 637  : 	(
; 638  : 		UI_TYPE_AREA,
; 639  : 		UI_ATTR_PARENT (connection_type_area),
; 640  : 		UI_ATTR_VIRTUAL_POSITION (x1, y1),
; 641  : 		UI_ATTR_VIRTUAL_SIZE (OPTION_BOX_WIDTH, OPTION_BOX_HEIGHT),
; 642  : 		UI_ATTR_COLOUR_START (255,255,255,0),
; 643  :       UI_ATTR_COLOUR_END (255,255,255,255),
; 644  : 		UI_ATTR_TEXTURE_GRAPHIC (options_box_large),
; 645  : 		UI_ATTR_END
; 646  : 	);
; 647  : 
; 648  :    check_array[j] = create_ui_object

  012c4	6a 11		 push	 17			; 00000011H
  012c6	68 00 00 00 00	 push	 OFFSET ??_C@_0O@DEHCCMMB@MP_CONNECTION@
  012cb	e8 00 00 00 00	 call	 ?get_trans@@YGPBDPBD@Z	; get_trans
  012d0	50		 push	 eax
  012d1	6a 4a		 push	 74			; 0000004aH
  012d3	6a 02		 push	 2
  012d5	6a 4b		 push	 75			; 0000004bH
  012d7	83 ec 08	 sub	 esp, 8
  012da	f2 0f 10 05 00
	00 00 00	 movsd	 xmm0, QWORD PTR __real@3fc24dd300000000
  012e2	f2 0f 11 04 24	 movsd	 QWORD PTR [esp], xmm0
  012e7	83 ec 08	 sub	 esp, 8
  012ea	f2 0f 10 05 00
	00 00 00	 movsd	 xmm0, QWORD PTR __real@3fee666660000000
  012f2	f2 0f 11 04 24	 movsd	 QWORD PTR [esp], xmm0
  012f7	6a 58		 push	 88			; 00000058H
  012f9	68 ff 00 00 00	 push	 255			; 000000ffH
  012fe	0f b6 05 00 00
	00 00		 movzx	 eax, BYTE PTR ?ui_option_title_text_colour@@3UREAL_COLOUR@@A
  01305	50		 push	 eax
  01306	0f b6 0d 01 00
	00 00		 movzx	 ecx, BYTE PTR ?ui_option_title_text_colour@@3UREAL_COLOUR@@A+1
  0130d	51		 push	 ecx
  0130e	0f b6 15 02 00
	00 00		 movzx	 edx, BYTE PTR ?ui_option_title_text_colour@@3UREAL_COLOUR@@A+2
  01315	52		 push	 edx
  01316	6a 14		 push	 20			; 00000014H
  01318	6a 00		 push	 0
  0131a	0f b6 05 00 00
	00 00		 movzx	 eax, BYTE PTR ?ui_option_title_text_colour@@3UREAL_COLOUR@@A
  01321	50		 push	 eax
  01322	0f b6 0d 01 00
	00 00		 movzx	 ecx, BYTE PTR ?ui_option_title_text_colour@@3UREAL_COLOUR@@A+1
  01329	51		 push	 ecx
  0132a	0f b6 15 02 00
	00 00		 movzx	 edx, BYTE PTR ?ui_option_title_text_colour@@3UREAL_COLOUR@@A+2
  01331	52		 push	 edx
  01332	6a 15		 push	 21			; 00000015H
  01334	6a 06		 push	 6
  01336	6a 12		 push	 18			; 00000012H
  01338	8b 45 f8	 mov	 eax, DWORD PTR _j$[ebp]
  0133b	8b 8c 85 24 ff
	ff ff		 mov	 ecx, DWORD PTR _title_change_array$[ebp+eax*4]
  01342	51		 push	 ecx
  01343	6a 32		 push	 50			; 00000032H
  01345	6a 05		 push	 5
  01347	e8 00 00 00 00	 call	 ?create_ui_object@@YAPAUUI_OBJECT@@HZZ ; create_ui_object
  0134c	83 c4 64	 add	 esp, 100		; 00000064H
  0134f	8b 55 f8	 mov	 edx, DWORD PTR _j$[ebp]
  01352	89 84 95 f4 fe
	ff ff		 mov	 DWORD PTR _check_array$[ebp+edx*4], eax

; 649  : 	(
; 650  : 		UI_TYPE_TEXT,
; 651  : 		UI_ATTR_PARENT (title_change_array [j]),
; 652  : 		UI_ATTR_FONT_TYPE (UI_FONT_THICK_ARIAL_18),
; 653  :       UI_ATTR_FONT_COLOUR_START (ui_option_title_text_colour.r, ui_option_title_text_colour.g, ui_option_title_text_colour.b, 0),
; 654  :       UI_ATTR_FONT_COLOUR_END (ui_option_title_text_colour.r, ui_option_title_text_colour.g, ui_option_title_text_colour.b, 255),
; 655  : 		UI_ATTR_VIRTUAL_POSITION (OPTION_BOX_TEXT_OFFSET_X, OPTION_BOX_TEXT_OFFSET_Y),
; 656  : 		UI_ATTR_TEXT_JUSTIFY (TEXT_JUSTIFY_RIGHT_CENTRE),
; 657  : 		UI_ATTR_TEXT (get_trans ("MP_CONNECTION") ),
; 658  : 		UI_ATTR_END
; 659  : 	);
; 660  : 
; 661  : 	preprocess_translation_object_size (title_change_array [j], check_array [j], NULL, 0, RESIZE_OPTION_BOX_TITLE);

  01359	6a 00		 push	 0
  0135b	6a 00		 push	 0
  0135d	6a 00		 push	 0
  0135f	8b 45 f8	 mov	 eax, DWORD PTR _j$[ebp]
  01362	8b 8c 85 f4 fe
	ff ff		 mov	 ecx, DWORD PTR _check_array$[ebp+eax*4]
  01369	51		 push	 ecx
  0136a	8b 55 f8	 mov	 edx, DWORD PTR _j$[ebp]
  0136d	8b 84 95 24 ff
	ff ff		 mov	 eax, DWORD PTR _title_change_array$[ebp+edx*4]
  01374	50		 push	 eax
  01375	e8 00 00 00 00	 call	 ?preprocess_translation_object_size@@YGXPAUUI_OBJECT@@0PAPBDHW4RESIZE_UI_OBJECT_TYPES@@@Z ; preprocess_translation_object_size

; 662  : 
; 663  : 	// store index for button creation later
; 664  : 	last_modem_title_object_no = j;

  0137a	8b 45 f8	 mov	 eax, DWORD PTR _j$[ebp]
  0137d	89 45 f4	 mov	 DWORD PTR _last_modem_title_object_no$[ebp], eax

; 665  : 
; 666  : 	/////////////////////////////////////////////////////////////////
; 667  : 	// Objects for input of IP address
; 668  : 	//
; 669  : 
; 670  : 	i = 1;

  01380	c7 45 fc 01 00
	00 00		 mov	 DWORD PTR _i$[ebp], 1

; 671  : 	j++;

  01387	8b 45 f8	 mov	 eax, DWORD PTR _j$[ebp]
  0138a	83 c0 01	 add	 eax, 1
  0138d	89 45 f8	 mov	 DWORD PTR _j$[ebp], eax

; 672  : 
; 673  : 	x1 = 0.0;

  01390	0f 57 c0	 xorps	 xmm0, xmm0
  01393	f3 0f 11 45 f0	 movss	 DWORD PTR _x1$[ebp], xmm0

; 674  : 	y1 = OPTION_TITLE_OFFSET_Y + (OPTION_AREA_OFFSET_Y * i) + 0.0375;

  01398	f3 0f 2a 45 fc	 cvtsi2ss xmm0, DWORD PTR _i$[ebp]
  0139d	f3 0f 59 05 00
	00 00 00	 mulss	 xmm0, DWORD PTR __real@3d7df3b6
  013a5	f3 0f 58 05 00
	00 00 00	 addss	 xmm0, DWORD PTR __real@3e851eb8
  013ad	f3 0f 5a c0	 cvtss2sd xmm0, xmm0
  013b1	f2 0f 58 05 00
	00 00 00	 addsd	 xmm0, QWORD PTR __real@3fa3333333333333
  013b9	f2 0f 5a c0	 cvtsd2ss xmm0, xmm0
  013bd	f3 0f 11 45 ec	 movss	 DWORD PTR _y1$[ebp], xmm0

; 675  : 
; 676  :    tcpip_parameters_area = create_ui_object

  013c2	6a 11		 push	 17			; 00000011H
  013c4	68 ff 00 00 00	 push	 255			; 000000ffH
  013c9	68 ff 00 00 00	 push	 255			; 000000ffH
  013ce	68 ff 00 00 00	 push	 255			; 000000ffH
  013d3	68 ff 00 00 00	 push	 255			; 000000ffH
  013d8	6a 0a		 push	 10			; 0000000aH
  013da	6a 00		 push	 0
  013dc	6a 00		 push	 0
  013de	6a 00		 push	 0
  013e0	6a 00		 push	 0
  013e2	6a 0b		 push	 11			; 0000000bH
  013e4	6a 01		 push	 1
  013e6	6a 07		 push	 7
  013e8	83 ec 08	 sub	 esp, 8
  013eb	f2 0f 10 05 00
	00 00 00	 movsd	 xmm0, QWORD PTR __real@3fadb22d00000000
  013f3	f2 0f 11 04 24	 movsd	 QWORD PTR [esp], xmm0
  013f8	83 ec 08	 sub	 esp, 8
  013fb	f2 0f 10 05 00
	00 00 00	 movsd	 xmm0, QWORD PTR __real@3ff0000000000000
  01403	f2 0f 11 04 24	 movsd	 QWORD PTR [esp], xmm0
  01408	6a 59		 push	 89			; 00000059H
  0140a	f3 0f 5a 45 ec	 cvtss2sd xmm0, DWORD PTR _y1$[ebp]
  0140f	83 ec 08	 sub	 esp, 8
  01412	f2 0f 11 04 24	 movsd	 QWORD PTR [esp], xmm0
  01417	f3 0f 5a 45 f0	 cvtss2sd xmm0, DWORD PTR _x1$[ebp]
  0141c	83 ec 08	 sub	 esp, 8
  0141f	f2 0f 11 04 24	 movsd	 QWORD PTR [esp], xmm0
  01424	6a 58		 push	 88			; 00000058H
  01426	a1 00 00 00 00	 mov	 eax, DWORD PTR ?multi_player_setup_area@@3PAUUI_OBJECT@@A ; multi_player_setup_area
  0142b	50		 push	 eax
  0142c	6a 32		 push	 50			; 00000032H
  0142e	6a 01		 push	 1
  01430	e8 00 00 00 00	 call	 ?create_ui_object@@YAPAUUI_OBJECT@@HZZ ; create_ui_object
  01435	83 c4 68	 add	 esp, 104		; 00000068H
  01438	a3 00 00 00 00	 mov	 DWORD PTR ?tcpip_parameters_area@@3PAUUI_OBJECT@@A, eax ; tcpip_parameters_area

; 677  : 									(
; 678  : 										UI_TYPE_AREA,
; 679  : 										UI_ATTR_PARENT (multi_player_setup_area),
; 680  : 										UI_ATTR_VIRTUAL_POSITION (x1, y1),
; 681  : 										UI_ATTR_VIRTUAL_SIZE (OPTION_AREA_WIDTH, OPTION_AREA_HEIGHT),
; 682  : 										UI_ATTR_CLEAR (TRUE),
; 683  : 					               UI_ATTR_COLOUR_START (0,0,0,0),
; 684  :             					   UI_ATTR_COLOUR_END (255,255,255,255),
; 685  : 										UI_ATTR_END
; 686  : 									);
; 687  : 
; 688  : 	x1 = OPTION_TITLE_OFFSET_X;

  0143d	f3 0f 10 05 00
	00 00 00	 movss	 xmm0, DWORD PTR __real@3def9db2
  01445	f3 0f 11 45 f0	 movss	 DWORD PTR _x1$[ebp], xmm0

; 689  : 	y1 = 0.0; 

  0144a	0f 57 c0	 xorps	 xmm0, xmm0
  0144d	f3 0f 11 45 ec	 movss	 DWORD PTR _y1$[ebp], xmm0

; 690  : 
; 691  : 	title_change_array[j] = create_ui_object

  01452	6a 11		 push	 17			; 00000011H
  01454	a1 00 00 00 00	 mov	 eax, DWORD PTR ?options_box_large@@3PAUTEXTURE_GRAPHIC@@A ; options_box_large
  01459	50		 push	 eax
  0145a	6a 4c		 push	 76			; 0000004cH
  0145c	68 ff 00 00 00	 push	 255			; 000000ffH
  01461	68 ff 00 00 00	 push	 255			; 000000ffH
  01466	68 ff 00 00 00	 push	 255			; 000000ffH
  0146b	68 ff 00 00 00	 push	 255			; 000000ffH
  01470	6a 0a		 push	 10			; 0000000aH
  01472	6a 00		 push	 0
  01474	68 ff 00 00 00	 push	 255			; 000000ffH
  01479	68 ff 00 00 00	 push	 255			; 000000ffH
  0147e	68 ff 00 00 00	 push	 255			; 000000ffH
  01483	6a 0b		 push	 11			; 0000000bH
  01485	83 ec 08	 sub	 esp, 8
  01488	f2 0f 10 05 00
	00 00 00	 movsd	 xmm0, QWORD PTR __real@3ff0000000000000
  01490	f2 0f 11 04 24	 movsd	 QWORD PTR [esp], xmm0
  01495	83 ec 08	 sub	 esp, 8
  01498	f2 0f 10 05 00
	00 00 00	 movsd	 xmm0, QWORD PTR __real@3fd3126ea0000000
  014a0	f2 0f 11 04 24	 movsd	 QWORD PTR [esp], xmm0
  014a5	6a 59		 push	 89			; 00000059H
  014a7	f3 0f 5a 45 ec	 cvtss2sd xmm0, DWORD PTR _y1$[ebp]
  014ac	83 ec 08	 sub	 esp, 8
  014af	f2 0f 11 04 24	 movsd	 QWORD PTR [esp], xmm0
  014b4	f3 0f 5a 45 f0	 cvtss2sd xmm0, DWORD PTR _x1$[ebp]
  014b9	83 ec 08	 sub	 esp, 8
  014bc	f2 0f 11 04 24	 movsd	 QWORD PTR [esp], xmm0
  014c1	6a 58		 push	 88			; 00000058H
  014c3	8b 0d 00 00 00
	00		 mov	 ecx, DWORD PTR ?tcpip_parameters_area@@3PAUUI_OBJECT@@A ; tcpip_parameters_area
  014c9	51		 push	 ecx
  014ca	6a 32		 push	 50			; 00000032H
  014cc	6a 01		 push	 1
  014ce	e8 00 00 00 00	 call	 ?create_ui_object@@YAPAUUI_OBJECT@@HZZ ; create_ui_object
  014d3	83 c4 68	 add	 esp, 104		; 00000068H
  014d6	8b 55 f8	 mov	 edx, DWORD PTR _j$[ebp]
  014d9	89 84 95 24 ff
	ff ff		 mov	 DWORD PTR _title_change_array$[ebp+edx*4], eax

; 692  : 	(
; 693  : 		UI_TYPE_AREA,
; 694  : 		UI_ATTR_PARENT (tcpip_parameters_area),
; 695  : 		UI_ATTR_VIRTUAL_POSITION (x1, y1),
; 696  : 		UI_ATTR_VIRTUAL_SIZE (OPTION_BOX_WIDTH, OPTION_BOX_HEIGHT),
; 697  : 		UI_ATTR_COLOUR_START (255,255,255,0),
; 698  :       UI_ATTR_COLOUR_END (255,255,255,255),
; 699  : 		UI_ATTR_TEXTURE_GRAPHIC (options_box_large),
; 700  : 		UI_ATTR_END
; 701  : 	);
; 702  : 
; 703  :    check_array[j] = create_ui_object

  014e0	6a 11		 push	 17			; 00000011H
  014e2	68 00 00 00 00	 push	 OFFSET ??_C@_0O@PGFHKNKC@MP_IP_ADDRESS@
  014e7	e8 00 00 00 00	 call	 ?get_trans@@YGPBDPBD@Z	; get_trans
  014ec	50		 push	 eax
  014ed	6a 4a		 push	 74			; 0000004aH
  014ef	6a 02		 push	 2
  014f1	6a 4b		 push	 75			; 0000004bH
  014f3	83 ec 08	 sub	 esp, 8
  014f6	f2 0f 10 05 00
	00 00 00	 movsd	 xmm0, QWORD PTR __real@3fc24dd300000000
  014fe	f2 0f 11 04 24	 movsd	 QWORD PTR [esp], xmm0
  01503	83 ec 08	 sub	 esp, 8
  01506	f2 0f 10 05 00
	00 00 00	 movsd	 xmm0, QWORD PTR __real@3fee666660000000
  0150e	f2 0f 11 04 24	 movsd	 QWORD PTR [esp], xmm0
  01513	6a 58		 push	 88			; 00000058H
  01515	68 ff 00 00 00	 push	 255			; 000000ffH
  0151a	0f b6 05 00 00
	00 00		 movzx	 eax, BYTE PTR ?ui_option_title_text_colour@@3UREAL_COLOUR@@A
  01521	50		 push	 eax
  01522	0f b6 0d 01 00
	00 00		 movzx	 ecx, BYTE PTR ?ui_option_title_text_colour@@3UREAL_COLOUR@@A+1
  01529	51		 push	 ecx
  0152a	0f b6 15 02 00
	00 00		 movzx	 edx, BYTE PTR ?ui_option_title_text_colour@@3UREAL_COLOUR@@A+2
  01531	52		 push	 edx
  01532	6a 14		 push	 20			; 00000014H
  01534	6a 00		 push	 0
  01536	0f b6 05 00 00
	00 00		 movzx	 eax, BYTE PTR ?ui_option_title_text_colour@@3UREAL_COLOUR@@A
  0153d	50		 push	 eax
  0153e	0f b6 0d 01 00
	00 00		 movzx	 ecx, BYTE PTR ?ui_option_title_text_colour@@3UREAL_COLOUR@@A+1
  01545	51		 push	 ecx
  01546	0f b6 15 02 00
	00 00		 movzx	 edx, BYTE PTR ?ui_option_title_text_colour@@3UREAL_COLOUR@@A+2
  0154d	52		 push	 edx
  0154e	6a 15		 push	 21			; 00000015H
  01550	6a 06		 push	 6
  01552	6a 12		 push	 18			; 00000012H
  01554	8b 45 f8	 mov	 eax, DWORD PTR _j$[ebp]
  01557	8b 8c 85 24 ff
	ff ff		 mov	 ecx, DWORD PTR _title_change_array$[ebp+eax*4]
  0155e	51		 push	 ecx
  0155f	6a 32		 push	 50			; 00000032H
  01561	6a 05		 push	 5
  01563	e8 00 00 00 00	 call	 ?create_ui_object@@YAPAUUI_OBJECT@@HZZ ; create_ui_object
  01568	83 c4 64	 add	 esp, 100		; 00000064H
  0156b	8b 55 f8	 mov	 edx, DWORD PTR _j$[ebp]
  0156e	89 84 95 f4 fe
	ff ff		 mov	 DWORD PTR _check_array$[ebp+edx*4], eax

; 704  : 	(
; 705  : 		UI_TYPE_TEXT,
; 706  : 		UI_ATTR_PARENT (title_change_array [j]),
; 707  : 		UI_ATTR_FONT_TYPE (UI_FONT_THICK_ARIAL_18),
; 708  :       UI_ATTR_FONT_COLOUR_START (ui_option_title_text_colour.r, ui_option_title_text_colour.g, ui_option_title_text_colour.b, 0),
; 709  :       UI_ATTR_FONT_COLOUR_END (ui_option_title_text_colour.r, ui_option_title_text_colour.g, ui_option_title_text_colour.b, 255),
; 710  : 		UI_ATTR_VIRTUAL_POSITION (OPTION_BOX_TEXT_OFFSET_X, OPTION_BOX_TEXT_OFFSET_Y),
; 711  : 		UI_ATTR_TEXT_JUSTIFY (TEXT_JUSTIFY_RIGHT_CENTRE),
; 712  : 		UI_ATTR_TEXT (get_trans ("MP_IP_ADDRESS") ),
; 713  : 		UI_ATTR_END
; 714  : 	);
; 715  : 
; 716  : 	preprocess_translation_object_size (title_change_array [j], check_array [j], NULL, 0, RESIZE_OPTION_BOX_TITLE);

  01575	6a 00		 push	 0
  01577	6a 00		 push	 0
  01579	6a 00		 push	 0
  0157b	8b 45 f8	 mov	 eax, DWORD PTR _j$[ebp]
  0157e	8b 8c 85 f4 fe
	ff ff		 mov	 ecx, DWORD PTR _check_array$[ebp+eax*4]
  01585	51		 push	 ecx
  01586	8b 55 f8	 mov	 edx, DWORD PTR _j$[ebp]
  01589	8b 84 95 24 ff
	ff ff		 mov	 eax, DWORD PTR _title_change_array$[ebp+edx*4]
  01590	50		 push	 eax
  01591	e8 00 00 00 00	 call	 ?preprocess_translation_object_size@@YGXPAUUI_OBJECT@@0PAPBDHW4RESIZE_UI_OBJECT_TYPES@@@Z ; preprocess_translation_object_size

; 717  : 
; 718  : 
; 719  : 
; 720  : 	/////////////////////////////////////////////////////////////////
; 721  : 	// Buttons
; 722  : 	/////////////////////////////////////////////////////////////////
; 723  : 
; 724  : 	i = 1;

  01596	c7 45 fc 01 00
	00 00		 mov	 DWORD PTR _i$[ebp], 1

; 725  : 	j = 0;

  0159d	c7 45 f8 00 00
	00 00		 mov	 DWORD PTR _j$[ebp], 0

; 726  : 
; 727  : 
; 728  : 	/////////////////////////////////////////////////////////////////
; 729  : 	// com_port objects
; 730  : 
; 731  : 	change_array[j] = create_ui_object

  015a4	6a 11		 push	 17			; 00000011H
  015a6	a1 00 00 00 00	 mov	 eax, DWORD PTR ?options_box_small@@3PAUTEXTURE_GRAPHIC@@A ; options_box_small
  015ab	50		 push	 eax
  015ac	6a 4c		 push	 76			; 0000004cH
  015ae	68 ff 00 00 00	 push	 255			; 000000ffH
  015b3	68 ff 00 00 00	 push	 255			; 000000ffH
  015b8	68 ff 00 00 00	 push	 255			; 000000ffH
  015bd	68 ff 00 00 00	 push	 255			; 000000ffH
  015c2	6a 0a		 push	 10			; 0000000aH
  015c4	6a 00		 push	 0
  015c6	68 ff 00 00 00	 push	 255			; 000000ffH
  015cb	68 ff 00 00 00	 push	 255			; 000000ffH
  015d0	68 ff 00 00 00	 push	 255			; 000000ffH
  015d5	6a 0b		 push	 11			; 0000000bH
  015d7	83 ec 08	 sub	 esp, 8
  015da	f2 0f 10 05 00
	00 00 00	 movsd	 xmm0, QWORD PTR __real@3ff0000000000000
  015e2	f2 0f 11 04 24	 movsd	 QWORD PTR [esp], xmm0
  015e7	83 ec 08	 sub	 esp, 8
  015ea	f2 0f 10 05 00
	00 00 00	 movsd	 xmm0, QWORD PTR __real@3fbba5e360000000
  015f2	f2 0f 11 04 24	 movsd	 QWORD PTR [esp], xmm0
  015f7	6a 59		 push	 89			; 00000059H
  015f9	83 ec 08	 sub	 esp, 8
  015fc	0f 57 c0	 xorps	 xmm0, xmm0
  015ff	f2 0f 11 04 24	 movsd	 QWORD PTR [esp], xmm0
  01604	b9 04 00 00 00	 mov	 ecx, 4
  01609	6b d1 00	 imul	 edx, ecx, 0
  0160c	8b 84 15 24 ff
	ff ff		 mov	 eax, DWORD PTR _title_change_array$[ebp+edx]
  01613	50		 push	 eax
  01614	b9 04 00 00 00	 mov	 ecx, 4
  01619	6b d1 00	 imul	 edx, ecx, 0
  0161c	8b 84 15 24 ff
	ff ff		 mov	 eax, DWORD PTR _title_change_array$[ebp+edx]
  01623	8b 08		 mov	 ecx, DWORD PTR [eax]
  01625	8b 14 8d 00 00
	00 00		 mov	 edx, DWORD PTR ?fn_get_ui_object_x_end@@3PAP6GMPAUUI_OBJECT@@@ZA[ecx*4]
  0162c	ff d2		 call	 edx
  0162e	d9 9d 80 fe ff
	ff		 fstp	 DWORD PTR tv3535[ebp]
  01634	f3 0f 10 85 80
	fe ff ff	 movss	 xmm0, DWORD PTR tv3535[ebp]
  0163c	b8 04 00 00 00	 mov	 eax, 4
  01641	6b c8 00	 imul	 ecx, eax, 0
  01644	8b 94 0d 24 ff
	ff ff		 mov	 edx, DWORD PTR _title_change_array$[ebp+ecx]
  0164b	52		 push	 edx
  0164c	b8 04 00 00 00	 mov	 eax, 4
  01651	6b c8 00	 imul	 ecx, eax, 0
  01654	8b 94 0d 24 ff
	ff ff		 mov	 edx, DWORD PTR _title_change_array$[ebp+ecx]
  0165b	8b 02		 mov	 eax, DWORD PTR [edx]
  0165d	8b 0c 85 00 00
	00 00		 mov	 ecx, DWORD PTR ?fn_get_ui_object_x_size_end@@3PAP6GMPAUUI_OBJECT@@@ZA[eax*4]
  01664	f3 0f 11 85 7c
	fe ff ff	 movss	 DWORD PTR tv4133[ebp], xmm0
  0166c	ff d1		 call	 ecx
  0166e	d9 9d 78 fe ff
	ff		 fstp	 DWORD PTR tv3543[ebp]
  01674	f3 0f 10 85 7c
	fe ff ff	 movss	 xmm0, DWORD PTR tv4133[ebp]
  0167c	f3 0f 58 85 78
	fe ff ff	 addss	 xmm0, DWORD PTR tv3543[ebp]
  01684	f3 0f 58 05 00
	00 00 00	 addss	 xmm0, DWORD PTR __real@3b2a64c3
  0168c	f3 0f 5a c0	 cvtss2sd xmm0, xmm0
  01690	83 ec 08	 sub	 esp, 8
  01693	f2 0f 11 04 24	 movsd	 QWORD PTR [esp], xmm0
  01698	6a 58		 push	 88			; 00000058H
  0169a	8b 15 00 00 00
	00		 mov	 edx, DWORD PTR ?com_port_area@@3PAUUI_OBJECT@@A ; com_port_area
  016a0	52		 push	 edx
  016a1	6a 32		 push	 50			; 00000032H
  016a3	6a 01		 push	 1
  016a5	e8 00 00 00 00	 call	 ?create_ui_object@@YAPAUUI_OBJECT@@HZZ ; create_ui_object
  016aa	83 c4 68	 add	 esp, 104		; 00000068H
  016ad	8b 4d f8	 mov	 ecx, DWORD PTR _j$[ebp]
  016b0	89 84 8d c4 fe
	ff ff		 mov	 DWORD PTR _change_array$[ebp+ecx*4], eax

; 732  : 	(
; 733  : 		UI_TYPE_AREA,
; 734  : 		UI_ATTR_PARENT (com_port_area),
; 735  : 		UI_ATTR_VIRTUAL_POSITION ((get_ui_object_x_end (title_change_array [0]) + get_ui_object_x_size_end (title_change_array [0]) + OPTION_BOX_GAP_WIDTH), 0.0),
; 736  : 		UI_ATTR_VIRTUAL_SIZE (OPTION_BOX_SMALL_WIDTH, OPTION_BOX_HEIGHT),
; 737  : 		UI_ATTR_COLOUR_START (255,255,255,0),
; 738  : 		UI_ATTR_COLOUR_END ( 255, 255, 255, 255 ),
; 739  : 		UI_ATTR_TEXTURE_GRAPHIC (options_box_small),
; 740  : 		UI_ATTR_END
; 741  : 	);
; 742  : 
; 743  :    com_port_button = create_ui_object

  016b7	6a 11		 push	 17			; 00000011H
  016b9	68 00 00 00 00	 push	 OFFSET ?notify_com_port_function@@YGXPAUUI_OBJECT@@PAX@Z ; notify_com_port_function
  016be	6a 16		 push	 22			; 00000016H
  016c0	6a 01		 push	 1
  016c2	6a 2f		 push	 47			; 0000002fH
  016c4	6a 01		 push	 1
  016c6	6a 07		 push	 7
  016c8	6a 01		 push	 1
  016ca	6a 1b		 push	 27			; 0000001bH
  016cc	68 ff 00 00 00	 push	 255			; 000000ffH
  016d1	0f b6 05 00 00
	00 00		 movzx	 eax, BYTE PTR ?ui_option_text_hilite_colour@@3UREAL_COLOUR@@A
  016d8	50		 push	 eax
  016d9	0f b6 0d 01 00
	00 00		 movzx	 ecx, BYTE PTR ?ui_option_text_hilite_colour@@3UREAL_COLOUR@@A+1
  016e0	51		 push	 ecx
  016e1	0f b6 15 02 00
	00 00		 movzx	 edx, BYTE PTR ?ui_option_text_hilite_colour@@3UREAL_COLOUR@@A+2
  016e8	52		 push	 edx
  016e9	6a 22		 push	 34			; 00000022H
  016eb	6a 00		 push	 0
  016ed	0f b6 05 00 00
	00 00		 movzx	 eax, BYTE PTR ?ui_option_text_hilite_colour@@3UREAL_COLOUR@@A
  016f4	50		 push	 eax
  016f5	0f b6 0d 01 00
	00 00		 movzx	 ecx, BYTE PTR ?ui_option_text_hilite_colour@@3UREAL_COLOUR@@A+1
  016fc	51		 push	 ecx
  016fd	0f b6 15 02 00
	00 00		 movzx	 edx, BYTE PTR ?ui_option_text_hilite_colour@@3UREAL_COLOUR@@A+2
  01704	52		 push	 edx
  01705	6a 23		 push	 35			; 00000023H
  01707	68 ff 00 00 00	 push	 255			; 000000ffH
  0170c	0f b6 05 00 00
	00 00		 movzx	 eax, BYTE PTR ?ui_option_text_default_colour@@3UREAL_COLOUR@@A
  01713	50		 push	 eax
  01714	0f b6 0d 01 00
	00 00		 movzx	 ecx, BYTE PTR ?ui_option_text_default_colour@@3UREAL_COLOUR@@A+1
  0171b	51		 push	 ecx
  0171c	0f b6 15 02 00
	00 00		 movzx	 edx, BYTE PTR ?ui_option_text_default_colour@@3UREAL_COLOUR@@A+2
  01723	52		 push	 edx
  01724	6a 14		 push	 20			; 00000014H
  01726	6a 00		 push	 0
  01728	0f b6 05 00 00
	00 00		 movzx	 eax, BYTE PTR ?ui_option_text_default_colour@@3UREAL_COLOUR@@A
  0172f	50		 push	 eax
  01730	0f b6 0d 01 00
	00 00		 movzx	 ecx, BYTE PTR ?ui_option_text_default_colour@@3UREAL_COLOUR@@A+1
  01737	51		 push	 ecx
  01738	0f b6 15 02 00
	00 00		 movzx	 edx, BYTE PTR ?ui_option_text_default_colour@@3UREAL_COLOUR@@A+2
  0173f	52		 push	 edx
  01740	6a 15		 push	 21			; 00000015H
  01742	68 00 00 00 00	 push	 OFFSET ??_C@_00CNPNBAHC@@
  01747	6a 4a		 push	 74			; 0000004aH
  01749	6a 01		 push	 1
  0174b	6a 4b		 push	 75			; 0000004bH
  0174d	83 ec 08	 sub	 esp, 8
  01750	f2 0f 10 05 00
	00 00 00	 movsd	 xmm0, QWORD PTR __real@3fc24dd300000000
  01758	f2 0f 11 04 24	 movsd	 QWORD PTR [esp], xmm0
  0175d	8b 45 f8	 mov	 eax, DWORD PTR _j$[ebp]
  01760	8b 8c 85 c4 fe
	ff ff		 mov	 ecx, DWORD PTR _change_array$[ebp+eax*4]
  01767	51		 push	 ecx
  01768	8b 55 f8	 mov	 edx, DWORD PTR _j$[ebp]
  0176b	8b 84 95 c4 fe
	ff ff		 mov	 eax, DWORD PTR _change_array$[ebp+edx*4]
  01772	8b 08		 mov	 ecx, DWORD PTR [eax]
  01774	8b 14 8d 00 00
	00 00		 mov	 edx, DWORD PTR ?fn_get_ui_object_x_end@@3PAP6GMPAUUI_OBJECT@@@ZA[ecx*4]
  0177b	ff d2		 call	 edx
  0177d	d9 9d 80 fe ff
	ff		 fstp	 DWORD PTR tv3562[ebp]
  01783	f3 0f 10 85 80
	fe ff ff	 movss	 xmm0, DWORD PTR tv3562[ebp]
  0178b	f3 0f 58 05 00
	00 00 00	 addss	 xmm0, DWORD PTR __real@3c03126f
  01793	f3 0f 5a c0	 cvtss2sd xmm0, xmm0
  01797	83 ec 08	 sub	 esp, 8
  0179a	f2 0f 11 04 24	 movsd	 QWORD PTR [esp], xmm0
  0179f	6a 58		 push	 88			; 00000058H
  017a1	68 ff 00 00 00	 push	 255			; 000000ffH
  017a6	6a 2f		 push	 47			; 0000002fH
  017a8	6a 7c		 push	 124			; 0000007cH
  017aa	68 fe 00 00 00	 push	 254			; 000000feH
  017af	6a 13		 push	 19			; 00000013H
  017b1	6a 08		 push	 8
  017b3	6a 12		 push	 18			; 00000012H
  017b5	a1 00 00 00 00	 mov	 eax, DWORD PTR ?com_port_area@@3PAUUI_OBJECT@@A ; com_port_area
  017ba	50		 push	 eax
  017bb	6a 32		 push	 50			; 00000032H
  017bd	6a 05		 push	 5
  017bf	e8 00 00 00 00	 call	 ?create_ui_object@@YAPAUUI_OBJECT@@HZZ ; create_ui_object
  017c4	81 c4 c0 00 00
	00		 add	 esp, 192		; 000000c0H
  017ca	a3 00 00 00 00	 mov	 DWORD PTR ?com_port_button@@3PAUUI_OBJECT@@A, eax ; com_port_button

; 744  : 	(
; 745  : 		UI_TYPE_TEXT,
; 746  : 		UI_ATTR_PARENT (com_port_area),
; 747  : 		UI_ATTR_FONT_TYPE (UI_FONT_THICK_ITALIC_ARIAL_18),
; 748  : 		UI_ATTR_FONT_COLOUR (254, 124, 47, 255),
; 749  : 		UI_ATTR_VIRTUAL_POSITION (get_ui_object_x_end (change_array [j]) + OPTION_BUTTON_TEXT_OFFSET_X, OPTION_BOX_TEXT_OFFSET_Y),
; 750  : 		UI_ATTR_TEXT_JUSTIFY (TEXT_JUSTIFY_LEFT_CENTRE),
; 751  : 		UI_ATTR_TEXT (""),
; 752  :       UI_ATTR_FONT_COLOUR_START (ui_option_text_default_colour.r, ui_option_text_default_colour.g, ui_option_text_default_colour.b, 0),
; 753  :       UI_ATTR_FONT_COLOUR_END (ui_option_text_default_colour.r, ui_option_text_default_colour.g, ui_option_text_default_colour.b, 255),
; 754  :       UI_ATTR_HIGHLIGHTED_FONT_COLOUR_START (ui_option_text_hilite_colour.r, ui_option_text_hilite_colour.g, ui_option_text_hilite_colour.b, 0),
; 755  :       UI_ATTR_HIGHLIGHTED_FONT_COLOUR_END (ui_option_text_hilite_colour.r, ui_option_text_hilite_colour.g, ui_option_text_hilite_colour.b, 255),
; 756  : 		UI_ATTR_HIGHLIGHTABLE (TRUE),
; 757  : 		UI_ATTR_CLEAR (TRUE),
; 758  : 		UI_ATTR_NOTIFY_ON (NOTIFY_TYPE_BUTTON_UP),
; 759  : 		UI_ATTR_FUNCTION (notify_com_port_function),
; 760  : 		UI_ATTR_END
; 761  : 	);
; 762  : 
; 763  : 	// baud_rate objects
; 764  : 
; 765  : 	j++;

  017cf	8b 45 f8	 mov	 eax, DWORD PTR _j$[ebp]
  017d2	83 c0 01	 add	 eax, 1
  017d5	89 45 f8	 mov	 DWORD PTR _j$[ebp], eax

; 766  : 
; 767  : 	change_array[j] = create_ui_object

  017d8	6a 11		 push	 17			; 00000011H
  017da	a1 00 00 00 00	 mov	 eax, DWORD PTR ?options_box_medium@@3PAUTEXTURE_GRAPHIC@@A ; options_box_medium
  017df	50		 push	 eax
  017e0	6a 4c		 push	 76			; 0000004cH
  017e2	68 ff 00 00 00	 push	 255			; 000000ffH
  017e7	68 ff 00 00 00	 push	 255			; 000000ffH
  017ec	68 ff 00 00 00	 push	 255			; 000000ffH
  017f1	68 ff 00 00 00	 push	 255			; 000000ffH
  017f6	6a 0a		 push	 10			; 0000000aH
  017f8	6a 00		 push	 0
  017fa	68 ff 00 00 00	 push	 255			; 000000ffH
  017ff	68 ff 00 00 00	 push	 255			; 000000ffH
  01804	68 ff 00 00 00	 push	 255			; 000000ffH
  01809	6a 0b		 push	 11			; 0000000bH
  0180b	83 ec 08	 sub	 esp, 8
  0180e	f2 0f 10 05 00
	00 00 00	 movsd	 xmm0, QWORD PTR __real@3ff0000000000000
  01816	f2 0f 11 04 24	 movsd	 QWORD PTR [esp], xmm0
  0181b	83 ec 08	 sub	 esp, 8
  0181e	f2 0f 10 05 00
	00 00 00	 movsd	 xmm0, QWORD PTR __real@3fc5a1cac0000000
  01826	f2 0f 11 04 24	 movsd	 QWORD PTR [esp], xmm0
  0182b	6a 59		 push	 89			; 00000059H
  0182d	83 ec 08	 sub	 esp, 8
  01830	0f 57 c0	 xorps	 xmm0, xmm0
  01833	f2 0f 11 04 24	 movsd	 QWORD PTR [esp], xmm0
  01838	b9 04 00 00 00	 mov	 ecx, 4
  0183d	6b d1 00	 imul	 edx, ecx, 0
  01840	8b 84 15 24 ff
	ff ff		 mov	 eax, DWORD PTR _title_change_array$[ebp+edx]
  01847	50		 push	 eax
  01848	b9 04 00 00 00	 mov	 ecx, 4
  0184d	6b d1 00	 imul	 edx, ecx, 0
  01850	8b 84 15 24 ff
	ff ff		 mov	 eax, DWORD PTR _title_change_array$[ebp+edx]
  01857	8b 08		 mov	 ecx, DWORD PTR [eax]
  01859	8b 14 8d 00 00
	00 00		 mov	 edx, DWORD PTR ?fn_get_ui_object_x_end@@3PAP6GMPAUUI_OBJECT@@@ZA[ecx*4]
  01860	ff d2		 call	 edx
  01862	d9 9d 80 fe ff
	ff		 fstp	 DWORD PTR tv3576[ebp]
  01868	f3 0f 10 85 80
	fe ff ff	 movss	 xmm0, DWORD PTR tv3576[ebp]
  01870	b8 04 00 00 00	 mov	 eax, 4
  01875	6b c8 00	 imul	 ecx, eax, 0
  01878	8b 94 0d 24 ff
	ff ff		 mov	 edx, DWORD PTR _title_change_array$[ebp+ecx]
  0187f	52		 push	 edx
  01880	b8 04 00 00 00	 mov	 eax, 4
  01885	6b c8 00	 imul	 ecx, eax, 0
  01888	8b 94 0d 24 ff
	ff ff		 mov	 edx, DWORD PTR _title_change_array$[ebp+ecx]
  0188f	8b 02		 mov	 eax, DWORD PTR [edx]
  01891	8b 0c 85 00 00
	00 00		 mov	 ecx, DWORD PTR ?fn_get_ui_object_x_size_end@@3PAP6GMPAUUI_OBJECT@@@ZA[eax*4]
  01898	f3 0f 11 85 7c
	fe ff ff	 movss	 DWORD PTR tv4135[ebp], xmm0
  018a0	ff d1		 call	 ecx
  018a2	d9 9d 78 fe ff
	ff		 fstp	 DWORD PTR tv3584[ebp]
  018a8	f3 0f 10 85 7c
	fe ff ff	 movss	 xmm0, DWORD PTR tv4135[ebp]
  018b0	f3 0f 58 85 78
	fe ff ff	 addss	 xmm0, DWORD PTR tv3584[ebp]
  018b8	f3 0f 58 05 00
	00 00 00	 addss	 xmm0, DWORD PTR __real@3b2a64c3
  018c0	f3 0f 5a c0	 cvtss2sd xmm0, xmm0
  018c4	83 ec 08	 sub	 esp, 8
  018c7	f2 0f 11 04 24	 movsd	 QWORD PTR [esp], xmm0
  018cc	6a 58		 push	 88			; 00000058H
  018ce	8b 15 00 00 00
	00		 mov	 edx, DWORD PTR ?baud_rate_area@@3PAUUI_OBJECT@@A ; baud_rate_area
  018d4	52		 push	 edx
  018d5	6a 32		 push	 50			; 00000032H
  018d7	6a 01		 push	 1
  018d9	e8 00 00 00 00	 call	 ?create_ui_object@@YAPAUUI_OBJECT@@HZZ ; create_ui_object
  018de	83 c4 68	 add	 esp, 104		; 00000068H
  018e1	8b 4d f8	 mov	 ecx, DWORD PTR _j$[ebp]
  018e4	89 84 8d c4 fe
	ff ff		 mov	 DWORD PTR _change_array$[ebp+ecx*4], eax

; 768  : 	(
; 769  : 		UI_TYPE_AREA,
; 770  : 		UI_ATTR_PARENT (baud_rate_area),
; 771  : 		UI_ATTR_VIRTUAL_POSITION ((get_ui_object_x_end (title_change_array [0]) + get_ui_object_x_size_end (title_change_array [0]) + OPTION_BOX_GAP_WIDTH), 0.0),
; 772  : 		UI_ATTR_VIRTUAL_SIZE (OPTION_BOX_MEDIUM_WIDTH, OPTION_BOX_HEIGHT),
; 773  : 		UI_ATTR_COLOUR_START (255,255,255,0),
; 774  : 		UI_ATTR_COLOUR_END ( 255, 255, 255, 255 ),
; 775  : 		UI_ATTR_TEXTURE_GRAPHIC (options_box_medium),
; 776  : 		UI_ATTR_END
; 777  : 	);
; 778  : 
; 779  :    baud_rate_button = create_ui_object

  018eb	6a 11		 push	 17			; 00000011H
  018ed	68 00 00 00 00	 push	 OFFSET ?notify_baud_rate_function@@YGXPAUUI_OBJECT@@PAX@Z ; notify_baud_rate_function
  018f2	6a 16		 push	 22			; 00000016H
  018f4	6a 01		 push	 1
  018f6	6a 2f		 push	 47			; 0000002fH
  018f8	6a 01		 push	 1
  018fa	6a 07		 push	 7
  018fc	6a 01		 push	 1
  018fe	6a 1b		 push	 27			; 0000001bH
  01900	68 ff 00 00 00	 push	 255			; 000000ffH
  01905	0f b6 05 00 00
	00 00		 movzx	 eax, BYTE PTR ?ui_option_text_hilite_colour@@3UREAL_COLOUR@@A
  0190c	50		 push	 eax
  0190d	0f b6 0d 01 00
	00 00		 movzx	 ecx, BYTE PTR ?ui_option_text_hilite_colour@@3UREAL_COLOUR@@A+1
  01914	51		 push	 ecx
  01915	0f b6 15 02 00
	00 00		 movzx	 edx, BYTE PTR ?ui_option_text_hilite_colour@@3UREAL_COLOUR@@A+2
  0191c	52		 push	 edx
  0191d	6a 22		 push	 34			; 00000022H
  0191f	6a 00		 push	 0
  01921	0f b6 05 00 00
	00 00		 movzx	 eax, BYTE PTR ?ui_option_text_hilite_colour@@3UREAL_COLOUR@@A
  01928	50		 push	 eax
  01929	0f b6 0d 01 00
	00 00		 movzx	 ecx, BYTE PTR ?ui_option_text_hilite_colour@@3UREAL_COLOUR@@A+1
  01930	51		 push	 ecx
  01931	0f b6 15 02 00
	00 00		 movzx	 edx, BYTE PTR ?ui_option_text_hilite_colour@@3UREAL_COLOUR@@A+2
  01938	52		 push	 edx
  01939	6a 23		 push	 35			; 00000023H
  0193b	68 ff 00 00 00	 push	 255			; 000000ffH
  01940	0f b6 05 00 00
	00 00		 movzx	 eax, BYTE PTR ?ui_option_text_default_colour@@3UREAL_COLOUR@@A
  01947	50		 push	 eax
  01948	0f b6 0d 01 00
	00 00		 movzx	 ecx, BYTE PTR ?ui_option_text_default_colour@@3UREAL_COLOUR@@A+1
  0194f	51		 push	 ecx
  01950	0f b6 15 02 00
	00 00		 movzx	 edx, BYTE PTR ?ui_option_text_default_colour@@3UREAL_COLOUR@@A+2
  01957	52		 push	 edx
  01958	6a 14		 push	 20			; 00000014H
  0195a	6a 00		 push	 0
  0195c	0f b6 05 00 00
	00 00		 movzx	 eax, BYTE PTR ?ui_option_text_default_colour@@3UREAL_COLOUR@@A
  01963	50		 push	 eax
  01964	0f b6 0d 01 00
	00 00		 movzx	 ecx, BYTE PTR ?ui_option_text_default_colour@@3UREAL_COLOUR@@A+1
  0196b	51		 push	 ecx
  0196c	0f b6 15 02 00
	00 00		 movzx	 edx, BYTE PTR ?ui_option_text_default_colour@@3UREAL_COLOUR@@A+2
  01973	52		 push	 edx
  01974	6a 15		 push	 21			; 00000015H
  01976	68 00 00 00 00	 push	 OFFSET ??_C@_00CNPNBAHC@@
  0197b	6a 4a		 push	 74			; 0000004aH
  0197d	6a 01		 push	 1
  0197f	6a 4b		 push	 75			; 0000004bH
  01981	83 ec 08	 sub	 esp, 8
  01984	f2 0f 10 05 00
	00 00 00	 movsd	 xmm0, QWORD PTR __real@3fc24dd300000000
  0198c	f2 0f 11 04 24	 movsd	 QWORD PTR [esp], xmm0
  01991	8b 45 f8	 mov	 eax, DWORD PTR _j$[ebp]
  01994	8b 8c 85 c4 fe
	ff ff		 mov	 ecx, DWORD PTR _change_array$[ebp+eax*4]
  0199b	51		 push	 ecx
  0199c	8b 55 f8	 mov	 edx, DWORD PTR _j$[ebp]
  0199f	8b 84 95 c4 fe
	ff ff		 mov	 eax, DWORD PTR _change_array$[ebp+edx*4]
  019a6	8b 08		 mov	 ecx, DWORD PTR [eax]
  019a8	8b 14 8d 00 00
	00 00		 mov	 edx, DWORD PTR ?fn_get_ui_object_x_end@@3PAP6GMPAUUI_OBJECT@@@ZA[ecx*4]
  019af	ff d2		 call	 edx
  019b1	d9 9d 80 fe ff
	ff		 fstp	 DWORD PTR tv3603[ebp]
  019b7	f3 0f 10 85 80
	fe ff ff	 movss	 xmm0, DWORD PTR tv3603[ebp]
  019bf	f3 0f 58 05 00
	00 00 00	 addss	 xmm0, DWORD PTR __real@3c03126f
  019c7	f3 0f 5a c0	 cvtss2sd xmm0, xmm0
  019cb	83 ec 08	 sub	 esp, 8
  019ce	f2 0f 11 04 24	 movsd	 QWORD PTR [esp], xmm0
  019d3	6a 58		 push	 88			; 00000058H
  019d5	68 ff 00 00 00	 push	 255			; 000000ffH
  019da	6a 2f		 push	 47			; 0000002fH
  019dc	6a 7c		 push	 124			; 0000007cH
  019de	68 fe 00 00 00	 push	 254			; 000000feH
  019e3	6a 13		 push	 19			; 00000013H
  019e5	6a 08		 push	 8
  019e7	6a 12		 push	 18			; 00000012H
  019e9	a1 00 00 00 00	 mov	 eax, DWORD PTR ?baud_rate_area@@3PAUUI_OBJECT@@A ; baud_rate_area
  019ee	50		 push	 eax
  019ef	6a 32		 push	 50			; 00000032H
  019f1	6a 05		 push	 5
  019f3	e8 00 00 00 00	 call	 ?create_ui_object@@YAPAUUI_OBJECT@@HZZ ; create_ui_object
  019f8	81 c4 c0 00 00
	00		 add	 esp, 192		; 000000c0H
  019fe	a3 00 00 00 00	 mov	 DWORD PTR ?baud_rate_button@@3PAUUI_OBJECT@@A, eax ; baud_rate_button

; 780  : 	(
; 781  : 		UI_TYPE_TEXT,
; 782  : 		UI_ATTR_PARENT (baud_rate_area),
; 783  : 		UI_ATTR_FONT_TYPE (UI_FONT_THICK_ITALIC_ARIAL_18),
; 784  : 		UI_ATTR_FONT_COLOUR (254, 124, 47, 255),
; 785  : 		UI_ATTR_VIRTUAL_POSITION (get_ui_object_x_end (change_array [j]) + OPTION_BUTTON_TEXT_OFFSET_X, OPTION_BOX_TEXT_OFFSET_Y),
; 786  : 		UI_ATTR_TEXT_JUSTIFY (TEXT_JUSTIFY_LEFT_CENTRE),
; 787  : 		UI_ATTR_TEXT (""),
; 788  :       UI_ATTR_FONT_COLOUR_START (ui_option_text_default_colour.r, ui_option_text_default_colour.g, ui_option_text_default_colour.b, 0),
; 789  :       UI_ATTR_FONT_COLOUR_END (ui_option_text_default_colour.r, ui_option_text_default_colour.g, ui_option_text_default_colour.b, 255),
; 790  :       UI_ATTR_HIGHLIGHTED_FONT_COLOUR_START (ui_option_text_hilite_colour.r, ui_option_text_hilite_colour.g, ui_option_text_hilite_colour.b, 0),
; 791  :       UI_ATTR_HIGHLIGHTED_FONT_COLOUR_END (ui_option_text_hilite_colour.r, ui_option_text_hilite_colour.g, ui_option_text_hilite_colour.b, 255),
; 792  : 		UI_ATTR_HIGHLIGHTABLE (TRUE),
; 793  : 		UI_ATTR_CLEAR (TRUE),
; 794  : 		UI_ATTR_NOTIFY_ON (NOTIFY_TYPE_BUTTON_UP),
; 795  : 		UI_ATTR_FUNCTION (notify_baud_rate_function),
; 796  : 		UI_ATTR_END
; 797  : 	);
; 798  : 
; 799  : 	// stop_bit objects
; 800  : 
; 801  : 	j++;

  01a03	8b 45 f8	 mov	 eax, DWORD PTR _j$[ebp]
  01a06	83 c0 01	 add	 eax, 1
  01a09	89 45 f8	 mov	 DWORD PTR _j$[ebp], eax

; 802  : 
; 803  : 	change_array[j] = create_ui_object

  01a0c	6a 11		 push	 17			; 00000011H
  01a0e	a1 00 00 00 00	 mov	 eax, DWORD PTR ?options_box_small@@3PAUTEXTURE_GRAPHIC@@A ; options_box_small
  01a13	50		 push	 eax
  01a14	6a 4c		 push	 76			; 0000004cH
  01a16	68 ff 00 00 00	 push	 255			; 000000ffH
  01a1b	68 ff 00 00 00	 push	 255			; 000000ffH
  01a20	68 ff 00 00 00	 push	 255			; 000000ffH
  01a25	68 ff 00 00 00	 push	 255			; 000000ffH
  01a2a	6a 0a		 push	 10			; 0000000aH
  01a2c	6a 00		 push	 0
  01a2e	68 ff 00 00 00	 push	 255			; 000000ffH
  01a33	68 ff 00 00 00	 push	 255			; 000000ffH
  01a38	68 ff 00 00 00	 push	 255			; 000000ffH
  01a3d	6a 0b		 push	 11			; 0000000bH
  01a3f	83 ec 08	 sub	 esp, 8
  01a42	f2 0f 10 05 00
	00 00 00	 movsd	 xmm0, QWORD PTR __real@3ff0000000000000
  01a4a	f2 0f 11 04 24	 movsd	 QWORD PTR [esp], xmm0
  01a4f	83 ec 08	 sub	 esp, 8
  01a52	f2 0f 10 05 00
	00 00 00	 movsd	 xmm0, QWORD PTR __real@3fbba5e360000000
  01a5a	f2 0f 11 04 24	 movsd	 QWORD PTR [esp], xmm0
  01a5f	6a 59		 push	 89			; 00000059H
  01a61	83 ec 08	 sub	 esp, 8
  01a64	0f 57 c0	 xorps	 xmm0, xmm0
  01a67	f2 0f 11 04 24	 movsd	 QWORD PTR [esp], xmm0
  01a6c	b9 04 00 00 00	 mov	 ecx, 4
  01a71	6b d1 00	 imul	 edx, ecx, 0
  01a74	8b 84 15 24 ff
	ff ff		 mov	 eax, DWORD PTR _title_change_array$[ebp+edx]
  01a7b	50		 push	 eax
  01a7c	b9 04 00 00 00	 mov	 ecx, 4
  01a81	6b d1 00	 imul	 edx, ecx, 0
  01a84	8b 84 15 24 ff
	ff ff		 mov	 eax, DWORD PTR _title_change_array$[ebp+edx]
  01a8b	8b 08		 mov	 ecx, DWORD PTR [eax]
  01a8d	8b 14 8d 00 00
	00 00		 mov	 edx, DWORD PTR ?fn_get_ui_object_x_end@@3PAP6GMPAUUI_OBJECT@@@ZA[ecx*4]
  01a94	ff d2		 call	 edx
  01a96	d9 9d 80 fe ff
	ff		 fstp	 DWORD PTR tv3617[ebp]
  01a9c	f3 0f 10 85 80
	fe ff ff	 movss	 xmm0, DWORD PTR tv3617[ebp]
  01aa4	b8 04 00 00 00	 mov	 eax, 4
  01aa9	6b c8 00	 imul	 ecx, eax, 0
  01aac	8b 94 0d 24 ff
	ff ff		 mov	 edx, DWORD PTR _title_change_array$[ebp+ecx]
  01ab3	52		 push	 edx
  01ab4	b8 04 00 00 00	 mov	 eax, 4
  01ab9	6b c8 00	 imul	 ecx, eax, 0
  01abc	8b 94 0d 24 ff
	ff ff		 mov	 edx, DWORD PTR _title_change_array$[ebp+ecx]
  01ac3	8b 02		 mov	 eax, DWORD PTR [edx]
  01ac5	8b 0c 85 00 00
	00 00		 mov	 ecx, DWORD PTR ?fn_get_ui_object_x_size_end@@3PAP6GMPAUUI_OBJECT@@@ZA[eax*4]
  01acc	f3 0f 11 85 7c
	fe ff ff	 movss	 DWORD PTR tv4137[ebp], xmm0
  01ad4	ff d1		 call	 ecx
  01ad6	d9 9d 78 fe ff
	ff		 fstp	 DWORD PTR tv3625[ebp]
  01adc	f3 0f 10 85 7c
	fe ff ff	 movss	 xmm0, DWORD PTR tv4137[ebp]
  01ae4	f3 0f 58 85 78
	fe ff ff	 addss	 xmm0, DWORD PTR tv3625[ebp]
  01aec	f3 0f 58 05 00
	00 00 00	 addss	 xmm0, DWORD PTR __real@3b2a64c3
  01af4	f3 0f 5a c0	 cvtss2sd xmm0, xmm0
  01af8	83 ec 08	 sub	 esp, 8
  01afb	f2 0f 11 04 24	 movsd	 QWORD PTR [esp], xmm0
  01b00	6a 58		 push	 88			; 00000058H
  01b02	8b 15 00 00 00
	00		 mov	 edx, DWORD PTR ?stop_bits_area@@3PAUUI_OBJECT@@A ; stop_bits_area
  01b08	52		 push	 edx
  01b09	6a 32		 push	 50			; 00000032H
  01b0b	6a 01		 push	 1
  01b0d	e8 00 00 00 00	 call	 ?create_ui_object@@YAPAUUI_OBJECT@@HZZ ; create_ui_object
  01b12	83 c4 68	 add	 esp, 104		; 00000068H
  01b15	8b 4d f8	 mov	 ecx, DWORD PTR _j$[ebp]
  01b18	89 84 8d c4 fe
	ff ff		 mov	 DWORD PTR _change_array$[ebp+ecx*4], eax

; 804  : 	(
; 805  : 		UI_TYPE_AREA,
; 806  : 		UI_ATTR_PARENT (stop_bits_area),
; 807  : 		UI_ATTR_VIRTUAL_POSITION ((get_ui_object_x_end (title_change_array [0]) + get_ui_object_x_size_end (title_change_array [0]) + OPTION_BOX_GAP_WIDTH), 0.0),
; 808  : 		UI_ATTR_VIRTUAL_SIZE (OPTION_BOX_SMALL_WIDTH, OPTION_BOX_HEIGHT),
; 809  : 		UI_ATTR_COLOUR_START (255,255,255,0),
; 810  : 		UI_ATTR_COLOUR_END ( 255, 255, 255, 255 ),
; 811  : 		UI_ATTR_TEXTURE_GRAPHIC (options_box_small),
; 812  : 		UI_ATTR_END
; 813  : 	);
; 814  : 
; 815  :    stop_bits_button = create_ui_object

  01b1f	6a 11		 push	 17			; 00000011H
  01b21	68 00 00 00 00	 push	 OFFSET ?notify_stop_bits_function@@YGXPAUUI_OBJECT@@PAX@Z ; notify_stop_bits_function
  01b26	6a 16		 push	 22			; 00000016H
  01b28	6a 01		 push	 1
  01b2a	6a 2f		 push	 47			; 0000002fH
  01b2c	6a 01		 push	 1
  01b2e	6a 07		 push	 7
  01b30	6a 01		 push	 1
  01b32	6a 1b		 push	 27			; 0000001bH
  01b34	68 ff 00 00 00	 push	 255			; 000000ffH
  01b39	0f b6 05 00 00
	00 00		 movzx	 eax, BYTE PTR ?ui_option_text_hilite_colour@@3UREAL_COLOUR@@A
  01b40	50		 push	 eax
  01b41	0f b6 0d 01 00
	00 00		 movzx	 ecx, BYTE PTR ?ui_option_text_hilite_colour@@3UREAL_COLOUR@@A+1
  01b48	51		 push	 ecx
  01b49	0f b6 15 02 00
	00 00		 movzx	 edx, BYTE PTR ?ui_option_text_hilite_colour@@3UREAL_COLOUR@@A+2
  01b50	52		 push	 edx
  01b51	6a 22		 push	 34			; 00000022H
  01b53	6a 00		 push	 0
  01b55	0f b6 05 00 00
	00 00		 movzx	 eax, BYTE PTR ?ui_option_text_hilite_colour@@3UREAL_COLOUR@@A
  01b5c	50		 push	 eax
  01b5d	0f b6 0d 01 00
	00 00		 movzx	 ecx, BYTE PTR ?ui_option_text_hilite_colour@@3UREAL_COLOUR@@A+1
  01b64	51		 push	 ecx
  01b65	0f b6 15 02 00
	00 00		 movzx	 edx, BYTE PTR ?ui_option_text_hilite_colour@@3UREAL_COLOUR@@A+2
  01b6c	52		 push	 edx
  01b6d	6a 23		 push	 35			; 00000023H
  01b6f	68 ff 00 00 00	 push	 255			; 000000ffH
  01b74	0f b6 05 00 00
	00 00		 movzx	 eax, BYTE PTR ?ui_option_text_default_colour@@3UREAL_COLOUR@@A
  01b7b	50		 push	 eax
  01b7c	0f b6 0d 01 00
	00 00		 movzx	 ecx, BYTE PTR ?ui_option_text_default_colour@@3UREAL_COLOUR@@A+1
  01b83	51		 push	 ecx
  01b84	0f b6 15 02 00
	00 00		 movzx	 edx, BYTE PTR ?ui_option_text_default_colour@@3UREAL_COLOUR@@A+2
  01b8b	52		 push	 edx
  01b8c	6a 14		 push	 20			; 00000014H
  01b8e	6a 00		 push	 0
  01b90	0f b6 05 00 00
	00 00		 movzx	 eax, BYTE PTR ?ui_option_text_default_colour@@3UREAL_COLOUR@@A
  01b97	50		 push	 eax
  01b98	0f b6 0d 01 00
	00 00		 movzx	 ecx, BYTE PTR ?ui_option_text_default_colour@@3UREAL_COLOUR@@A+1
  01b9f	51		 push	 ecx
  01ba0	0f b6 15 02 00
	00 00		 movzx	 edx, BYTE PTR ?ui_option_text_default_colour@@3UREAL_COLOUR@@A+2
  01ba7	52		 push	 edx
  01ba8	6a 15		 push	 21			; 00000015H
  01baa	68 00 00 00 00	 push	 OFFSET ??_C@_00CNPNBAHC@@
  01baf	6a 4a		 push	 74			; 0000004aH
  01bb1	6a 01		 push	 1
  01bb3	6a 4b		 push	 75			; 0000004bH
  01bb5	83 ec 08	 sub	 esp, 8
  01bb8	f2 0f 10 05 00
	00 00 00	 movsd	 xmm0, QWORD PTR __real@3fc24dd300000000
  01bc0	f2 0f 11 04 24	 movsd	 QWORD PTR [esp], xmm0
  01bc5	8b 45 f8	 mov	 eax, DWORD PTR _j$[ebp]
  01bc8	8b 8c 85 c4 fe
	ff ff		 mov	 ecx, DWORD PTR _change_array$[ebp+eax*4]
  01bcf	51		 push	 ecx
  01bd0	8b 55 f8	 mov	 edx, DWORD PTR _j$[ebp]
  01bd3	8b 84 95 c4 fe
	ff ff		 mov	 eax, DWORD PTR _change_array$[ebp+edx*4]
  01bda	8b 08		 mov	 ecx, DWORD PTR [eax]
  01bdc	8b 14 8d 00 00
	00 00		 mov	 edx, DWORD PTR ?fn_get_ui_object_x_end@@3PAP6GMPAUUI_OBJECT@@@ZA[ecx*4]
  01be3	ff d2		 call	 edx
  01be5	d9 9d 80 fe ff
	ff		 fstp	 DWORD PTR tv3644[ebp]
  01beb	f3 0f 10 85 80
	fe ff ff	 movss	 xmm0, DWORD PTR tv3644[ebp]
  01bf3	f3 0f 58 05 00
	00 00 00	 addss	 xmm0, DWORD PTR __real@3c03126f
  01bfb	f3 0f 5a c0	 cvtss2sd xmm0, xmm0
  01bff	83 ec 08	 sub	 esp, 8
  01c02	f2 0f 11 04 24	 movsd	 QWORD PTR [esp], xmm0
  01c07	6a 58		 push	 88			; 00000058H
  01c09	68 ff 00 00 00	 push	 255			; 000000ffH
  01c0e	6a 2f		 push	 47			; 0000002fH
  01c10	6a 7c		 push	 124			; 0000007cH
  01c12	68 fe 00 00 00	 push	 254			; 000000feH
  01c17	6a 13		 push	 19			; 00000013H
  01c19	6a 08		 push	 8
  01c1b	6a 12		 push	 18			; 00000012H
  01c1d	a1 00 00 00 00	 mov	 eax, DWORD PTR ?stop_bits_area@@3PAUUI_OBJECT@@A ; stop_bits_area
  01c22	50		 push	 eax
  01c23	6a 32		 push	 50			; 00000032H
  01c25	6a 05		 push	 5
  01c27	e8 00 00 00 00	 call	 ?create_ui_object@@YAPAUUI_OBJECT@@HZZ ; create_ui_object
  01c2c	81 c4 c0 00 00
	00		 add	 esp, 192		; 000000c0H
  01c32	a3 00 00 00 00	 mov	 DWORD PTR ?stop_bits_button@@3PAUUI_OBJECT@@A, eax ; stop_bits_button

; 816  : 	(
; 817  : 		UI_TYPE_TEXT,
; 818  : 		UI_ATTR_PARENT (stop_bits_area),
; 819  : 		UI_ATTR_FONT_TYPE (UI_FONT_THICK_ITALIC_ARIAL_18),
; 820  : 		UI_ATTR_FONT_COLOUR (254, 124, 47, 255),
; 821  : 		UI_ATTR_VIRTUAL_POSITION (get_ui_object_x_end (change_array [j]) + OPTION_BUTTON_TEXT_OFFSET_X, OPTION_BOX_TEXT_OFFSET_Y),
; 822  : 		UI_ATTR_TEXT_JUSTIFY (TEXT_JUSTIFY_LEFT_CENTRE),
; 823  : 		UI_ATTR_TEXT (""),
; 824  :       UI_ATTR_FONT_COLOUR_START (ui_option_text_default_colour.r, ui_option_text_default_colour.g, ui_option_text_default_colour.b, 0),
; 825  :       UI_ATTR_FONT_COLOUR_END (ui_option_text_default_colour.r, ui_option_text_default_colour.g, ui_option_text_default_colour.b, 255),
; 826  :       UI_ATTR_HIGHLIGHTED_FONT_COLOUR_START (ui_option_text_hilite_colour.r, ui_option_text_hilite_colour.g, ui_option_text_hilite_colour.b, 0),
; 827  :       UI_ATTR_HIGHLIGHTED_FONT_COLOUR_END (ui_option_text_hilite_colour.r, ui_option_text_hilite_colour.g, ui_option_text_hilite_colour.b, 255),
; 828  : 		UI_ATTR_HIGHLIGHTABLE (TRUE),
; 829  : 		UI_ATTR_CLEAR (TRUE),
; 830  : 		UI_ATTR_NOTIFY_ON (NOTIFY_TYPE_BUTTON_UP),
; 831  : 		UI_ATTR_FUNCTION (notify_stop_bits_function),
; 832  : 		UI_ATTR_END
; 833  : 	);
; 834  : 
; 835  : 	// parity objects
; 836  : 
; 837  : 	j++;

  01c37	8b 45 f8	 mov	 eax, DWORD PTR _j$[ebp]
  01c3a	83 c0 01	 add	 eax, 1
  01c3d	89 45 f8	 mov	 DWORD PTR _j$[ebp], eax

; 838  : 
; 839  : 	change_array[j] = create_ui_object

  01c40	6a 11		 push	 17			; 00000011H
  01c42	a1 00 00 00 00	 mov	 eax, DWORD PTR ?options_box_small@@3PAUTEXTURE_GRAPHIC@@A ; options_box_small
  01c47	50		 push	 eax
  01c48	6a 4c		 push	 76			; 0000004cH
  01c4a	68 ff 00 00 00	 push	 255			; 000000ffH
  01c4f	68 ff 00 00 00	 push	 255			; 000000ffH
  01c54	68 ff 00 00 00	 push	 255			; 000000ffH
  01c59	68 ff 00 00 00	 push	 255			; 000000ffH
  01c5e	6a 0a		 push	 10			; 0000000aH
  01c60	6a 00		 push	 0
  01c62	68 ff 00 00 00	 push	 255			; 000000ffH
  01c67	68 ff 00 00 00	 push	 255			; 000000ffH
  01c6c	68 ff 00 00 00	 push	 255			; 000000ffH
  01c71	6a 0b		 push	 11			; 0000000bH
  01c73	83 ec 08	 sub	 esp, 8
  01c76	f2 0f 10 05 00
	00 00 00	 movsd	 xmm0, QWORD PTR __real@3ff0000000000000
  01c7e	f2 0f 11 04 24	 movsd	 QWORD PTR [esp], xmm0
  01c83	83 ec 08	 sub	 esp, 8
  01c86	f2 0f 10 05 00
	00 00 00	 movsd	 xmm0, QWORD PTR __real@3fbba5e360000000
  01c8e	f2 0f 11 04 24	 movsd	 QWORD PTR [esp], xmm0
  01c93	6a 59		 push	 89			; 00000059H
  01c95	83 ec 08	 sub	 esp, 8
  01c98	0f 57 c0	 xorps	 xmm0, xmm0
  01c9b	f2 0f 11 04 24	 movsd	 QWORD PTR [esp], xmm0
  01ca0	b9 04 00 00 00	 mov	 ecx, 4
  01ca5	6b d1 00	 imul	 edx, ecx, 0
  01ca8	8b 84 15 24 ff
	ff ff		 mov	 eax, DWORD PTR _title_change_array$[ebp+edx]
  01caf	50		 push	 eax
  01cb0	b9 04 00 00 00	 mov	 ecx, 4
  01cb5	6b d1 00	 imul	 edx, ecx, 0
  01cb8	8b 84 15 24 ff
	ff ff		 mov	 eax, DWORD PTR _title_change_array$[ebp+edx]
  01cbf	8b 08		 mov	 ecx, DWORD PTR [eax]
  01cc1	8b 14 8d 00 00
	00 00		 mov	 edx, DWORD PTR ?fn_get_ui_object_x_end@@3PAP6GMPAUUI_OBJECT@@@ZA[ecx*4]
  01cc8	ff d2		 call	 edx
  01cca	d9 9d 80 fe ff
	ff		 fstp	 DWORD PTR tv3658[ebp]
  01cd0	f3 0f 10 85 80
	fe ff ff	 movss	 xmm0, DWORD PTR tv3658[ebp]
  01cd8	b8 04 00 00 00	 mov	 eax, 4
  01cdd	6b c8 00	 imul	 ecx, eax, 0
  01ce0	8b 94 0d 24 ff
	ff ff		 mov	 edx, DWORD PTR _title_change_array$[ebp+ecx]
  01ce7	52		 push	 edx
  01ce8	b8 04 00 00 00	 mov	 eax, 4
  01ced	6b c8 00	 imul	 ecx, eax, 0
  01cf0	8b 94 0d 24 ff
	ff ff		 mov	 edx, DWORD PTR _title_change_array$[ebp+ecx]
  01cf7	8b 02		 mov	 eax, DWORD PTR [edx]
  01cf9	8b 0c 85 00 00
	00 00		 mov	 ecx, DWORD PTR ?fn_get_ui_object_x_size_end@@3PAP6GMPAUUI_OBJECT@@@ZA[eax*4]
  01d00	f3 0f 11 85 7c
	fe ff ff	 movss	 DWORD PTR tv4139[ebp], xmm0
  01d08	ff d1		 call	 ecx
  01d0a	d9 9d 78 fe ff
	ff		 fstp	 DWORD PTR tv3666[ebp]
  01d10	f3 0f 10 85 7c
	fe ff ff	 movss	 xmm0, DWORD PTR tv4139[ebp]
  01d18	f3 0f 58 85 78
	fe ff ff	 addss	 xmm0, DWORD PTR tv3666[ebp]
  01d20	f3 0f 58 05 00
	00 00 00	 addss	 xmm0, DWORD PTR __real@3b2a64c3
  01d28	f3 0f 5a c0	 cvtss2sd xmm0, xmm0
  01d2c	83 ec 08	 sub	 esp, 8
  01d2f	f2 0f 11 04 24	 movsd	 QWORD PTR [esp], xmm0
  01d34	6a 58		 push	 88			; 00000058H
  01d36	8b 15 00 00 00
	00		 mov	 edx, DWORD PTR ?parity_area@@3PAUUI_OBJECT@@A ; parity_area
  01d3c	52		 push	 edx
  01d3d	6a 32		 push	 50			; 00000032H
  01d3f	6a 01		 push	 1
  01d41	e8 00 00 00 00	 call	 ?create_ui_object@@YAPAUUI_OBJECT@@HZZ ; create_ui_object
  01d46	83 c4 68	 add	 esp, 104		; 00000068H
  01d49	8b 4d f8	 mov	 ecx, DWORD PTR _j$[ebp]
  01d4c	89 84 8d c4 fe
	ff ff		 mov	 DWORD PTR _change_array$[ebp+ecx*4], eax

; 840  : 	(
; 841  : 		UI_TYPE_AREA,
; 842  : 		UI_ATTR_PARENT (parity_area),
; 843  : 		UI_ATTR_VIRTUAL_POSITION ((get_ui_object_x_end (title_change_array [0]) + get_ui_object_x_size_end (title_change_array [0]) + OPTION_BOX_GAP_WIDTH), 0.0),
; 844  : 		UI_ATTR_VIRTUAL_SIZE (OPTION_BOX_SMALL_WIDTH, OPTION_BOX_HEIGHT),
; 845  : 		UI_ATTR_COLOUR_START (255,255,255,0),
; 846  : 		UI_ATTR_COLOUR_END ( 255, 255, 255, 255 ),
; 847  : 		UI_ATTR_TEXTURE_GRAPHIC (options_box_small),
; 848  : 		UI_ATTR_END
; 849  : 	);
; 850  : 
; 851  :    parity_button = create_ui_object

  01d53	6a 11		 push	 17			; 00000011H
  01d55	68 00 00 00 00	 push	 OFFSET ?notify_parity_function@@YGXPAUUI_OBJECT@@PAX@Z ; notify_parity_function
  01d5a	6a 16		 push	 22			; 00000016H
  01d5c	6a 01		 push	 1
  01d5e	6a 2f		 push	 47			; 0000002fH
  01d60	6a 01		 push	 1
  01d62	6a 07		 push	 7
  01d64	6a 01		 push	 1
  01d66	6a 1b		 push	 27			; 0000001bH
  01d68	68 ff 00 00 00	 push	 255			; 000000ffH
  01d6d	0f b6 05 00 00
	00 00		 movzx	 eax, BYTE PTR ?ui_option_text_hilite_colour@@3UREAL_COLOUR@@A
  01d74	50		 push	 eax
  01d75	0f b6 0d 01 00
	00 00		 movzx	 ecx, BYTE PTR ?ui_option_text_hilite_colour@@3UREAL_COLOUR@@A+1
  01d7c	51		 push	 ecx
  01d7d	0f b6 15 02 00
	00 00		 movzx	 edx, BYTE PTR ?ui_option_text_hilite_colour@@3UREAL_COLOUR@@A+2
  01d84	52		 push	 edx
  01d85	6a 22		 push	 34			; 00000022H
  01d87	6a 00		 push	 0
  01d89	0f b6 05 00 00
	00 00		 movzx	 eax, BYTE PTR ?ui_option_text_hilite_colour@@3UREAL_COLOUR@@A
  01d90	50		 push	 eax
  01d91	0f b6 0d 01 00
	00 00		 movzx	 ecx, BYTE PTR ?ui_option_text_hilite_colour@@3UREAL_COLOUR@@A+1
  01d98	51		 push	 ecx
  01d99	0f b6 15 02 00
	00 00		 movzx	 edx, BYTE PTR ?ui_option_text_hilite_colour@@3UREAL_COLOUR@@A+2
  01da0	52		 push	 edx
  01da1	6a 23		 push	 35			; 00000023H
  01da3	68 ff 00 00 00	 push	 255			; 000000ffH
  01da8	0f b6 05 00 00
	00 00		 movzx	 eax, BYTE PTR ?ui_option_text_default_colour@@3UREAL_COLOUR@@A
  01daf	50		 push	 eax
  01db0	0f b6 0d 01 00
	00 00		 movzx	 ecx, BYTE PTR ?ui_option_text_default_colour@@3UREAL_COLOUR@@A+1
  01db7	51		 push	 ecx
  01db8	0f b6 15 02 00
	00 00		 movzx	 edx, BYTE PTR ?ui_option_text_default_colour@@3UREAL_COLOUR@@A+2
  01dbf	52		 push	 edx
  01dc0	6a 14		 push	 20			; 00000014H
  01dc2	6a 00		 push	 0
  01dc4	0f b6 05 00 00
	00 00		 movzx	 eax, BYTE PTR ?ui_option_text_default_colour@@3UREAL_COLOUR@@A
  01dcb	50		 push	 eax
  01dcc	0f b6 0d 01 00
	00 00		 movzx	 ecx, BYTE PTR ?ui_option_text_default_colour@@3UREAL_COLOUR@@A+1
  01dd3	51		 push	 ecx
  01dd4	0f b6 15 02 00
	00 00		 movzx	 edx, BYTE PTR ?ui_option_text_default_colour@@3UREAL_COLOUR@@A+2
  01ddb	52		 push	 edx
  01ddc	6a 15		 push	 21			; 00000015H
  01dde	68 00 00 00 00	 push	 OFFSET ??_C@_00CNPNBAHC@@
  01de3	6a 4a		 push	 74			; 0000004aH
  01de5	6a 01		 push	 1
  01de7	6a 4b		 push	 75			; 0000004bH
  01de9	83 ec 08	 sub	 esp, 8
  01dec	f2 0f 10 05 00
	00 00 00	 movsd	 xmm0, QWORD PTR __real@3fc24dd300000000
  01df4	f2 0f 11 04 24	 movsd	 QWORD PTR [esp], xmm0
  01df9	8b 45 f8	 mov	 eax, DWORD PTR _j$[ebp]
  01dfc	8b 8c 85 c4 fe
	ff ff		 mov	 ecx, DWORD PTR _change_array$[ebp+eax*4]
  01e03	51		 push	 ecx
  01e04	8b 55 f8	 mov	 edx, DWORD PTR _j$[ebp]
  01e07	8b 84 95 c4 fe
	ff ff		 mov	 eax, DWORD PTR _change_array$[ebp+edx*4]
  01e0e	8b 08		 mov	 ecx, DWORD PTR [eax]
  01e10	8b 14 8d 00 00
	00 00		 mov	 edx, DWORD PTR ?fn_get_ui_object_x_end@@3PAP6GMPAUUI_OBJECT@@@ZA[ecx*4]
  01e17	ff d2		 call	 edx
  01e19	d9 9d 80 fe ff
	ff		 fstp	 DWORD PTR tv3685[ebp]
  01e1f	f3 0f 10 85 80
	fe ff ff	 movss	 xmm0, DWORD PTR tv3685[ebp]
  01e27	f3 0f 58 05 00
	00 00 00	 addss	 xmm0, DWORD PTR __real@3c03126f
  01e2f	f3 0f 5a c0	 cvtss2sd xmm0, xmm0
  01e33	83 ec 08	 sub	 esp, 8
  01e36	f2 0f 11 04 24	 movsd	 QWORD PTR [esp], xmm0
  01e3b	6a 58		 push	 88			; 00000058H
  01e3d	68 ff 00 00 00	 push	 255			; 000000ffH
  01e42	6a 2f		 push	 47			; 0000002fH
  01e44	6a 7c		 push	 124			; 0000007cH
  01e46	68 fe 00 00 00	 push	 254			; 000000feH
  01e4b	6a 13		 push	 19			; 00000013H
  01e4d	6a 08		 push	 8
  01e4f	6a 12		 push	 18			; 00000012H
  01e51	a1 00 00 00 00	 mov	 eax, DWORD PTR ?parity_area@@3PAUUI_OBJECT@@A ; parity_area
  01e56	50		 push	 eax
  01e57	6a 32		 push	 50			; 00000032H
  01e59	6a 05		 push	 5
  01e5b	e8 00 00 00 00	 call	 ?create_ui_object@@YAPAUUI_OBJECT@@HZZ ; create_ui_object
  01e60	81 c4 c0 00 00
	00		 add	 esp, 192		; 000000c0H
  01e66	a3 00 00 00 00	 mov	 DWORD PTR ?parity_button@@3PAUUI_OBJECT@@A, eax ; parity_button

; 852  : 	(
; 853  : 		UI_TYPE_TEXT,
; 854  : 		UI_ATTR_PARENT (parity_area),
; 855  : 		UI_ATTR_FONT_TYPE (UI_FONT_THICK_ITALIC_ARIAL_18),
; 856  : 		UI_ATTR_FONT_COLOUR (254, 124, 47, 255),
; 857  : 		UI_ATTR_VIRTUAL_POSITION (get_ui_object_x_end (change_array [j]) + OPTION_BUTTON_TEXT_OFFSET_X, OPTION_BOX_TEXT_OFFSET_Y),
; 858  : 		UI_ATTR_TEXT_JUSTIFY (TEXT_JUSTIFY_LEFT_CENTRE),
; 859  : 		UI_ATTR_TEXT (""),
; 860  :       UI_ATTR_FONT_COLOUR_START (ui_option_text_default_colour.r, ui_option_text_default_colour.g, ui_option_text_default_colour.b, 0),
; 861  :       UI_ATTR_FONT_COLOUR_END (ui_option_text_default_colour.r, ui_option_text_default_colour.g, ui_option_text_default_colour.b, 255),
; 862  :       UI_ATTR_HIGHLIGHTED_FONT_COLOUR_START (ui_option_text_hilite_colour.r, ui_option_text_hilite_colour.g, ui_option_text_hilite_colour.b, 0),
; 863  :       UI_ATTR_HIGHLIGHTED_FONT_COLOUR_END (ui_option_text_hilite_colour.r, ui_option_text_hilite_colour.g, ui_option_text_hilite_colour.b, 255),
; 864  : 		UI_ATTR_HIGHLIGHTABLE (TRUE),
; 865  : 		UI_ATTR_CLEAR (TRUE),
; 866  : 		UI_ATTR_NOTIFY_ON (NOTIFY_TYPE_BUTTON_UP),
; 867  : 		UI_ATTR_FUNCTION (notify_parity_function),
; 868  : 		UI_ATTR_END
; 869  : 	);
; 870  : 
; 871  : 	// total hack for the spanish
; 872  : 
; 873  : 	if (get_global_current_language () == LANGUAGE_SPANISH)

  01e6b	83 3d 04 00 00
	00 04		 cmp	 DWORD PTR ?global_options@@3UGLOBAL_OPTIONS_DATA@@A+4, 4
  01e72	75 54		 jne	 SHORT $LN2@define_mul

; 874  : 	{
; 875  : 		set_ui_object_virtual_x_size (change_array [j], OPTION_BOX_MEDIUM_WIDTH);

  01e74	51		 push	 ecx
  01e75	f3 0f 10 05 00
	00 00 00	 movss	 xmm0, DWORD PTR __real@3e2d0e56
  01e7d	f3 0f 11 04 24	 movss	 DWORD PTR [esp], xmm0
  01e82	8b 45 f8	 mov	 eax, DWORD PTR _j$[ebp]
  01e85	8b 8c 85 c4 fe
	ff ff		 mov	 ecx, DWORD PTR _change_array$[ebp+eax*4]
  01e8c	51		 push	 ecx
  01e8d	8b 55 f8	 mov	 edx, DWORD PTR _j$[ebp]
  01e90	8b 84 95 c4 fe
	ff ff		 mov	 eax, DWORD PTR _change_array$[ebp+edx*4]
  01e97	8b 08		 mov	 ecx, DWORD PTR [eax]
  01e99	8b 14 8d 00 00
	00 00		 mov	 edx, DWORD PTR ?fn_set_ui_object_virtual_x_size@@3PAP6GXPAUUI_OBJECT@@M@ZA[ecx*4]
  01ea0	ff d2		 call	 edx

; 876  : 
; 877  : 		set_ui_object_texture_graphic (change_array [j], options_box_medium);

  01ea2	a1 00 00 00 00	 mov	 eax, DWORD PTR ?options_box_medium@@3PAUTEXTURE_GRAPHIC@@A ; options_box_medium
  01ea7	50		 push	 eax
  01ea8	8b 4d f8	 mov	 ecx, DWORD PTR _j$[ebp]
  01eab	8b 94 8d c4 fe
	ff ff		 mov	 edx, DWORD PTR _change_array$[ebp+ecx*4]
  01eb2	52		 push	 edx
  01eb3	8b 45 f8	 mov	 eax, DWORD PTR _j$[ebp]
  01eb6	8b 8c 85 c4 fe
	ff ff		 mov	 ecx, DWORD PTR _change_array$[ebp+eax*4]
  01ebd	8b 11		 mov	 edx, DWORD PTR [ecx]
  01ebf	8b 04 95 00 00
	00 00		 mov	 eax, DWORD PTR ?fn_set_ui_object_texture_graphic@@3PAP6GXPAUUI_OBJECT@@PAUTEXTURE_GRAPHIC@@@ZA[edx*4]
  01ec6	ff d0		 call	 eax
$LN2@define_mul:

; 878  : 	}
; 879  : 
; 880  : 
; 881  : 	// flow objects
; 882  : 
; 883  : 	j++;

  01ec8	8b 45 f8	 mov	 eax, DWORD PTR _j$[ebp]
  01ecb	83 c0 01	 add	 eax, 1
  01ece	89 45 f8	 mov	 DWORD PTR _j$[ebp], eax

; 884  : 
; 885  : 	change_array[j] = create_ui_object

  01ed1	6a 11		 push	 17			; 00000011H
  01ed3	a1 00 00 00 00	 mov	 eax, DWORD PTR ?options_box_medium@@3PAUTEXTURE_GRAPHIC@@A ; options_box_medium
  01ed8	50		 push	 eax
  01ed9	6a 4c		 push	 76			; 0000004cH
  01edb	68 ff 00 00 00	 push	 255			; 000000ffH
  01ee0	68 ff 00 00 00	 push	 255			; 000000ffH
  01ee5	68 ff 00 00 00	 push	 255			; 000000ffH
  01eea	68 ff 00 00 00	 push	 255			; 000000ffH
  01eef	6a 0a		 push	 10			; 0000000aH
  01ef1	6a 00		 push	 0
  01ef3	68 ff 00 00 00	 push	 255			; 000000ffH
  01ef8	68 ff 00 00 00	 push	 255			; 000000ffH
  01efd	68 ff 00 00 00	 push	 255			; 000000ffH
  01f02	6a 0b		 push	 11			; 0000000bH
  01f04	83 ec 08	 sub	 esp, 8
  01f07	f2 0f 10 05 00
	00 00 00	 movsd	 xmm0, QWORD PTR __real@3ff0000000000000
  01f0f	f2 0f 11 04 24	 movsd	 QWORD PTR [esp], xmm0
  01f14	83 ec 08	 sub	 esp, 8
  01f17	f2 0f 10 05 00
	00 00 00	 movsd	 xmm0, QWORD PTR __real@3fc5a1cac0000000
  01f1f	f2 0f 11 04 24	 movsd	 QWORD PTR [esp], xmm0
  01f24	6a 59		 push	 89			; 00000059H
  01f26	83 ec 08	 sub	 esp, 8
  01f29	0f 57 c0	 xorps	 xmm0, xmm0
  01f2c	f2 0f 11 04 24	 movsd	 QWORD PTR [esp], xmm0
  01f31	b9 04 00 00 00	 mov	 ecx, 4
  01f36	6b d1 00	 imul	 edx, ecx, 0
  01f39	8b 84 15 24 ff
	ff ff		 mov	 eax, DWORD PTR _title_change_array$[ebp+edx]
  01f40	50		 push	 eax
  01f41	b9 04 00 00 00	 mov	 ecx, 4
  01f46	6b d1 00	 imul	 edx, ecx, 0
  01f49	8b 84 15 24 ff
	ff ff		 mov	 eax, DWORD PTR _title_change_array$[ebp+edx]
  01f50	8b 08		 mov	 ecx, DWORD PTR [eax]
  01f52	8b 14 8d 00 00
	00 00		 mov	 edx, DWORD PTR ?fn_get_ui_object_x_end@@3PAP6GMPAUUI_OBJECT@@@ZA[ecx*4]
  01f59	ff d2		 call	 edx
  01f5b	d9 9d 80 fe ff
	ff		 fstp	 DWORD PTR tv3710[ebp]
  01f61	f3 0f 10 85 80
	fe ff ff	 movss	 xmm0, DWORD PTR tv3710[ebp]
  01f69	b8 04 00 00 00	 mov	 eax, 4
  01f6e	6b c8 00	 imul	 ecx, eax, 0
  01f71	8b 94 0d 24 ff
	ff ff		 mov	 edx, DWORD PTR _title_change_array$[ebp+ecx]
  01f78	52		 push	 edx
  01f79	b8 04 00 00 00	 mov	 eax, 4
  01f7e	6b c8 00	 imul	 ecx, eax, 0
  01f81	8b 94 0d 24 ff
	ff ff		 mov	 edx, DWORD PTR _title_change_array$[ebp+ecx]
  01f88	8b 02		 mov	 eax, DWORD PTR [edx]
  01f8a	8b 0c 85 00 00
	00 00		 mov	 ecx, DWORD PTR ?fn_get_ui_object_x_size_end@@3PAP6GMPAUUI_OBJECT@@@ZA[eax*4]
  01f91	f3 0f 11 85 7c
	fe ff ff	 movss	 DWORD PTR tv4141[ebp], xmm0
  01f99	ff d1		 call	 ecx
  01f9b	d9 9d 78 fe ff
	ff		 fstp	 DWORD PTR tv3718[ebp]
  01fa1	f3 0f 10 85 7c
	fe ff ff	 movss	 xmm0, DWORD PTR tv4141[ebp]
  01fa9	f3 0f 58 85 78
	fe ff ff	 addss	 xmm0, DWORD PTR tv3718[ebp]
  01fb1	f3 0f 58 05 00
	00 00 00	 addss	 xmm0, DWORD PTR __real@3b2a64c3
  01fb9	f3 0f 5a c0	 cvtss2sd xmm0, xmm0
  01fbd	83 ec 08	 sub	 esp, 8
  01fc0	f2 0f 11 04 24	 movsd	 QWORD PTR [esp], xmm0
  01fc5	6a 58		 push	 88			; 00000058H
  01fc7	8b 15 00 00 00
	00		 mov	 edx, DWORD PTR ?flow_area@@3PAUUI_OBJECT@@A ; flow_area
  01fcd	52		 push	 edx
  01fce	6a 32		 push	 50			; 00000032H
  01fd0	6a 01		 push	 1
  01fd2	e8 00 00 00 00	 call	 ?create_ui_object@@YAPAUUI_OBJECT@@HZZ ; create_ui_object
  01fd7	83 c4 68	 add	 esp, 104		; 00000068H
  01fda	8b 4d f8	 mov	 ecx, DWORD PTR _j$[ebp]
  01fdd	89 84 8d c4 fe
	ff ff		 mov	 DWORD PTR _change_array$[ebp+ecx*4], eax

; 886  : 	(
; 887  : 		UI_TYPE_AREA,
; 888  : 		UI_ATTR_PARENT (flow_area),
; 889  : 		UI_ATTR_VIRTUAL_POSITION ((get_ui_object_x_end (title_change_array [0]) + get_ui_object_x_size_end (title_change_array [0]) + OPTION_BOX_GAP_WIDTH), 0.0),
; 890  : 		UI_ATTR_VIRTUAL_SIZE (OPTION_BOX_MEDIUM_WIDTH, OPTION_BOX_HEIGHT),
; 891  : 		UI_ATTR_COLOUR_START (255,255,255,0),
; 892  : 		UI_ATTR_COLOUR_END ( 255, 255, 255, 255 ),
; 893  : 		UI_ATTR_TEXTURE_GRAPHIC (options_box_medium),
; 894  : 		UI_ATTR_END
; 895  : 	);
; 896  : 
; 897  :    flow_button = create_ui_object

  01fe4	6a 11		 push	 17			; 00000011H
  01fe6	68 00 00 00 00	 push	 OFFSET ?notify_flow_function@@YGXPAUUI_OBJECT@@PAX@Z ; notify_flow_function
  01feb	6a 16		 push	 22			; 00000016H
  01fed	6a 01		 push	 1
  01fef	6a 2f		 push	 47			; 0000002fH
  01ff1	6a 01		 push	 1
  01ff3	6a 07		 push	 7
  01ff5	6a 01		 push	 1
  01ff7	6a 1b		 push	 27			; 0000001bH
  01ff9	68 ff 00 00 00	 push	 255			; 000000ffH
  01ffe	0f b6 05 00 00
	00 00		 movzx	 eax, BYTE PTR ?ui_option_text_hilite_colour@@3UREAL_COLOUR@@A
  02005	50		 push	 eax
  02006	0f b6 0d 01 00
	00 00		 movzx	 ecx, BYTE PTR ?ui_option_text_hilite_colour@@3UREAL_COLOUR@@A+1
  0200d	51		 push	 ecx
  0200e	0f b6 15 02 00
	00 00		 movzx	 edx, BYTE PTR ?ui_option_text_hilite_colour@@3UREAL_COLOUR@@A+2
  02015	52		 push	 edx
  02016	6a 22		 push	 34			; 00000022H
  02018	6a 00		 push	 0
  0201a	0f b6 05 00 00
	00 00		 movzx	 eax, BYTE PTR ?ui_option_text_hilite_colour@@3UREAL_COLOUR@@A
  02021	50		 push	 eax
  02022	0f b6 0d 01 00
	00 00		 movzx	 ecx, BYTE PTR ?ui_option_text_hilite_colour@@3UREAL_COLOUR@@A+1
  02029	51		 push	 ecx
  0202a	0f b6 15 02 00
	00 00		 movzx	 edx, BYTE PTR ?ui_option_text_hilite_colour@@3UREAL_COLOUR@@A+2
  02031	52		 push	 edx
  02032	6a 23		 push	 35			; 00000023H
  02034	68 ff 00 00 00	 push	 255			; 000000ffH
  02039	0f b6 05 00 00
	00 00		 movzx	 eax, BYTE PTR ?ui_option_text_default_colour@@3UREAL_COLOUR@@A
  02040	50		 push	 eax
  02041	0f b6 0d 01 00
	00 00		 movzx	 ecx, BYTE PTR ?ui_option_text_default_colour@@3UREAL_COLOUR@@A+1
  02048	51		 push	 ecx
  02049	0f b6 15 02 00
	00 00		 movzx	 edx, BYTE PTR ?ui_option_text_default_colour@@3UREAL_COLOUR@@A+2
  02050	52		 push	 edx
  02051	6a 14		 push	 20			; 00000014H
  02053	6a 00		 push	 0
  02055	0f b6 05 00 00
	00 00		 movzx	 eax, BYTE PTR ?ui_option_text_default_colour@@3UREAL_COLOUR@@A
  0205c	50		 push	 eax
  0205d	0f b6 0d 01 00
	00 00		 movzx	 ecx, BYTE PTR ?ui_option_text_default_colour@@3UREAL_COLOUR@@A+1
  02064	51		 push	 ecx
  02065	0f b6 15 02 00
	00 00		 movzx	 edx, BYTE PTR ?ui_option_text_default_colour@@3UREAL_COLOUR@@A+2
  0206c	52		 push	 edx
  0206d	6a 15		 push	 21			; 00000015H
  0206f	68 00 00 00 00	 push	 OFFSET ??_C@_00CNPNBAHC@@
  02074	6a 4a		 push	 74			; 0000004aH
  02076	6a 01		 push	 1
  02078	6a 4b		 push	 75			; 0000004bH
  0207a	83 ec 08	 sub	 esp, 8
  0207d	f2 0f 10 05 00
	00 00 00	 movsd	 xmm0, QWORD PTR __real@3fc24dd300000000
  02085	f2 0f 11 04 24	 movsd	 QWORD PTR [esp], xmm0
  0208a	8b 45 f8	 mov	 eax, DWORD PTR _j$[ebp]
  0208d	8b 8c 85 c4 fe
	ff ff		 mov	 ecx, DWORD PTR _change_array$[ebp+eax*4]
  02094	51		 push	 ecx
  02095	8b 55 f8	 mov	 edx, DWORD PTR _j$[ebp]
  02098	8b 84 95 c4 fe
	ff ff		 mov	 eax, DWORD PTR _change_array$[ebp+edx*4]
  0209f	8b 08		 mov	 ecx, DWORD PTR [eax]
  020a1	8b 14 8d 00 00
	00 00		 mov	 edx, DWORD PTR ?fn_get_ui_object_x_end@@3PAP6GMPAUUI_OBJECT@@@ZA[ecx*4]
  020a8	ff d2		 call	 edx
  020aa	d9 9d 80 fe ff
	ff		 fstp	 DWORD PTR tv3737[ebp]
  020b0	f3 0f 10 85 80
	fe ff ff	 movss	 xmm0, DWORD PTR tv3737[ebp]
  020b8	f3 0f 58 05 00
	00 00 00	 addss	 xmm0, DWORD PTR __real@3c03126f
  020c0	f3 0f 5a c0	 cvtss2sd xmm0, xmm0
  020c4	83 ec 08	 sub	 esp, 8
  020c7	f2 0f 11 04 24	 movsd	 QWORD PTR [esp], xmm0
  020cc	6a 58		 push	 88			; 00000058H
  020ce	68 ff 00 00 00	 push	 255			; 000000ffH
  020d3	6a 2f		 push	 47			; 0000002fH
  020d5	6a 7c		 push	 124			; 0000007cH
  020d7	68 fe 00 00 00	 push	 254			; 000000feH
  020dc	6a 13		 push	 19			; 00000013H
  020de	6a 08		 push	 8
  020e0	6a 12		 push	 18			; 00000012H
  020e2	a1 00 00 00 00	 mov	 eax, DWORD PTR ?flow_area@@3PAUUI_OBJECT@@A ; flow_area
  020e7	50		 push	 eax
  020e8	6a 32		 push	 50			; 00000032H
  020ea	6a 05		 push	 5
  020ec	e8 00 00 00 00	 call	 ?create_ui_object@@YAPAUUI_OBJECT@@HZZ ; create_ui_object
  020f1	81 c4 c0 00 00
	00		 add	 esp, 192		; 000000c0H
  020f7	a3 00 00 00 00	 mov	 DWORD PTR ?flow_button@@3PAUUI_OBJECT@@A, eax ; flow_button

; 898  : 	(
; 899  : 		UI_TYPE_TEXT,
; 900  : 		UI_ATTR_PARENT (flow_area),
; 901  : 		UI_ATTR_FONT_TYPE (UI_FONT_THICK_ITALIC_ARIAL_18),
; 902  : 		UI_ATTR_FONT_COLOUR (254, 124, 47, 255),
; 903  : 		UI_ATTR_VIRTUAL_POSITION (get_ui_object_x_end (change_array [j]) + OPTION_BUTTON_TEXT_OFFSET_X, OPTION_BOX_TEXT_OFFSET_Y),
; 904  : 		UI_ATTR_TEXT_JUSTIFY (TEXT_JUSTIFY_LEFT_CENTRE),
; 905  : 		UI_ATTR_TEXT (""),
; 906  :       UI_ATTR_FONT_COLOUR_START (ui_option_text_default_colour.r, ui_option_text_default_colour.g, ui_option_text_default_colour.b, 0),
; 907  :       UI_ATTR_FONT_COLOUR_END (ui_option_text_default_colour.r, ui_option_text_default_colour.g, ui_option_text_default_colour.b, 255),
; 908  :       UI_ATTR_HIGHLIGHTED_FONT_COLOUR_START (ui_option_text_hilite_colour.r, ui_option_text_hilite_colour.g, ui_option_text_hilite_colour.b, 0),
; 909  :       UI_ATTR_HIGHLIGHTED_FONT_COLOUR_END (ui_option_text_hilite_colour.r, ui_option_text_hilite_colour.g, ui_option_text_hilite_colour.b, 255),
; 910  : 		UI_ATTR_HIGHLIGHTABLE (TRUE),
; 911  : 		UI_ATTR_CLEAR (TRUE),
; 912  : 		UI_ATTR_NOTIFY_ON (NOTIFY_TYPE_BUTTON_UP),
; 913  : 		UI_ATTR_FUNCTION (notify_flow_function),
; 914  : 		UI_ATTR_END
; 915  : 	);
; 916  : 
; 917  : 	x1 = get_ui_object_x_end (title_change_array[0]);

  020fc	b8 04 00 00 00	 mov	 eax, 4
  02101	6b c8 00	 imul	 ecx, eax, 0
  02104	8b 94 0d 24 ff
	ff ff		 mov	 edx, DWORD PTR _title_change_array$[ebp+ecx]
  0210b	52		 push	 edx
  0210c	b8 04 00 00 00	 mov	 eax, 4
  02111	6b c8 00	 imul	 ecx, eax, 0
  02114	8b 94 0d 24 ff
	ff ff		 mov	 edx, DWORD PTR _title_change_array$[ebp+ecx]
  0211b	8b 02		 mov	 eax, DWORD PTR [edx]
  0211d	8b 0c 85 00 00
	00 00		 mov	 ecx, DWORD PTR ?fn_get_ui_object_x_end@@3PAP6GMPAUUI_OBJECT@@@ZA[eax*4]
  02124	ff d1		 call	 ecx
  02126	d9 5d f0	 fstp	 DWORD PTR _x1$[ebp]

; 918  : 	y1 = OPTION_TITLE_OFFSET_Y + (OPTION_AREA_OFFSET_Y * 6) + 0.0375;

  02129	f3 0f 10 05 00
	00 00 00	 movss	 xmm0, DWORD PTR __real@3f2b645a
  02131	f3 0f 11 45 ec	 movss	 DWORD PTR _y1$[ebp], xmm0

; 919  : 
; 920  : 	serial_status_text = create_ui_object

  02136	6a 11		 push	 17			; 00000011H
  02138	6a 00		 push	 0
  0213a	6a 2f		 push	 47			; 0000002fH
  0213c	68 ff 00 00 00	 push	 255			; 000000ffH
  02141	0f b6 05 00 00
	00 00		 movzx	 eax, BYTE PTR ?ui_option_title_text_colour@@3UREAL_COLOUR@@A
  02148	50		 push	 eax
  02149	0f b6 0d 01 00
	00 00		 movzx	 ecx, BYTE PTR ?ui_option_title_text_colour@@3UREAL_COLOUR@@A+1
  02150	51		 push	 ecx
  02151	0f b6 15 02 00
	00 00		 movzx	 edx, BYTE PTR ?ui_option_title_text_colour@@3UREAL_COLOUR@@A+2
  02158	52		 push	 edx
  02159	6a 14		 push	 20			; 00000014H
  0215b	6a 00		 push	 0
  0215d	0f b6 05 00 00
	00 00		 movzx	 eax, BYTE PTR ?ui_option_title_text_colour@@3UREAL_COLOUR@@A
  02164	50		 push	 eax
  02165	0f b6 0d 01 00
	00 00		 movzx	 ecx, BYTE PTR ?ui_option_title_text_colour@@3UREAL_COLOUR@@A+1
  0216c	51		 push	 ecx
  0216d	0f b6 15 02 00
	00 00		 movzx	 edx, BYTE PTR ?ui_option_title_text_colour@@3UREAL_COLOUR@@A+2
  02174	52		 push	 edx
  02175	6a 15		 push	 21			; 00000015H
  02177	6a 06		 push	 6
  02179	6a 12		 push	 18			; 00000012H
  0217b	68 00 00 00 00	 push	 OFFSET ??_C@_00CNPNBAHC@@
  02180	6a 4a		 push	 74			; 0000004aH
  02182	83 ec 08	 sub	 esp, 8
  02185	f2 0f 10 05 00
	00 00 00	 movsd	 xmm0, QWORD PTR __real@3ff0000000000000
  0218d	f2 0f 11 04 24	 movsd	 QWORD PTR [esp], xmm0
  02192	83 ec 08	 sub	 esp, 8
  02195	f2 0f 10 05 00
	00 00 00	 movsd	 xmm0, QWORD PTR __real@3fd3126ea0000000
  0219d	f2 0f 11 04 24	 movsd	 QWORD PTR [esp], xmm0
  021a2	6a 59		 push	 89			; 00000059H
  021a4	f3 0f 5a 45 ec	 cvtss2sd xmm0, DWORD PTR _y1$[ebp]
  021a9	83 ec 08	 sub	 esp, 8
  021ac	f2 0f 11 04 24	 movsd	 QWORD PTR [esp], xmm0
  021b1	f3 0f 5a 45 f0	 cvtss2sd xmm0, DWORD PTR _x1$[ebp]
  021b6	83 ec 08	 sub	 esp, 8
  021b9	f2 0f 11 04 24	 movsd	 QWORD PTR [esp], xmm0
  021be	6a 58		 push	 88			; 00000058H
  021c0	a1 00 00 00 00	 mov	 eax, DWORD PTR ?serial_parameters_area@@3PAUUI_OBJECT@@A ; serial_parameters_area
  021c5	50		 push	 eax
  021c6	6a 32		 push	 50			; 00000032H
  021c8	6a 05		 push	 5
  021ca	e8 00 00 00 00	 call	 ?create_ui_object@@YAPAUUI_OBJECT@@HZZ ; create_ui_object
  021cf	83 c4 78	 add	 esp, 120		; 00000078H
  021d2	a3 00 00 00 00	 mov	 DWORD PTR ?serial_status_text@@3PAUUI_OBJECT@@A, eax ; serial_status_text

; 921  : 								(
; 922  : 									UI_TYPE_TEXT,
; 923  : 									UI_ATTR_PARENT (serial_parameters_area),
; 924  : 									UI_ATTR_VIRTUAL_POSITION (x1, y1),
; 925  : 									UI_ATTR_VIRTUAL_SIZE (OPTION_BOX_WIDTH, OPTION_BOX_HEIGHT),
; 926  : 									UI_ATTR_TEXT (""),
; 927  : 									UI_ATTR_FONT_TYPE (UI_FONT_THICK_ARIAL_18),
; 928  :   							    	UI_ATTR_FONT_COLOUR_START (ui_option_title_text_colour.r, ui_option_title_text_colour.g, ui_option_title_text_colour.b, 0),
; 929  : 							      UI_ATTR_FONT_COLOUR_END (ui_option_title_text_colour.r, ui_option_title_text_colour.g, ui_option_title_text_colour.b, 255),
; 930  : 									UI_ATTR_NOTIFY_ON (NOTIFY_TYPE_NONE),
; 931  : 									UI_ATTR_END
; 932  : 								);
; 933  : 
; 934  : 	/////////////////////////////////////////////////////////////////
; 935  : 	// Modem SP stuff
; 936  : 	//
; 937  : 
; 938  : 	j++;

  021d7	8b 45 f8	 mov	 eax, DWORD PTR _j$[ebp]
  021da	83 c0 01	 add	 eax, 1
  021dd	89 45 f8	 mov	 DWORD PTR _j$[ebp], eax

; 939  : 
; 940  : 	change_array[j] = create_ui_object

  021e0	6a 11		 push	 17			; 00000011H
  021e2	a1 00 00 00 00	 mov	 eax, DWORD PTR ?options_box_extra_large@@3PAUTEXTURE_GRAPHIC@@A ; options_box_extra_large
  021e7	50		 push	 eax
  021e8	6a 4c		 push	 76			; 0000004cH
  021ea	68 ff 00 00 00	 push	 255			; 000000ffH
  021ef	68 ff 00 00 00	 push	 255			; 000000ffH
  021f4	68 ff 00 00 00	 push	 255			; 000000ffH
  021f9	68 ff 00 00 00	 push	 255			; 000000ffH
  021fe	6a 0a		 push	 10			; 0000000aH
  02200	6a 00		 push	 0
  02202	68 ff 00 00 00	 push	 255			; 000000ffH
  02207	68 ff 00 00 00	 push	 255			; 000000ffH
  0220c	68 ff 00 00 00	 push	 255			; 000000ffH
  02211	6a 0b		 push	 11			; 0000000bH
  02213	83 ec 08	 sub	 esp, 8
  02216	f2 0f 10 05 00
	00 00 00	 movsd	 xmm0, QWORD PTR __real@3ff0000000000000
  0221e	f2 0f 11 04 24	 movsd	 QWORD PTR [esp], xmm0
  02223	83 ec 08	 sub	 esp, 8
  02226	f2 0f 10 05 00
	00 00 00	 movsd	 xmm0, QWORD PTR __real@3fdcccccc0000000
  0222e	f2 0f 11 04 24	 movsd	 QWORD PTR [esp], xmm0
  02233	6a 59		 push	 89			; 00000059H
  02235	83 ec 08	 sub	 esp, 8
  02238	0f 57 c0	 xorps	 xmm0, xmm0
  0223b	f2 0f 11 04 24	 movsd	 QWORD PTR [esp], xmm0
  02240	b9 04 00 00 00	 mov	 ecx, 4
  02245	6b d1 00	 imul	 edx, ecx, 0
  02248	8b 84 15 24 ff
	ff ff		 mov	 eax, DWORD PTR _title_change_array$[ebp+edx]
  0224f	50		 push	 eax
  02250	b9 04 00 00 00	 mov	 ecx, 4
  02255	6b d1 00	 imul	 edx, ecx, 0
  02258	8b 84 15 24 ff
	ff ff		 mov	 eax, DWORD PTR _title_change_array$[ebp+edx]
  0225f	8b 08		 mov	 ecx, DWORD PTR [eax]
  02261	8b 14 8d 00 00
	00 00		 mov	 edx, DWORD PTR ?fn_get_ui_object_x_end@@3PAP6GMPAUUI_OBJECT@@@ZA[ecx*4]
  02268	ff d2		 call	 edx
  0226a	d9 9d 80 fe ff
	ff		 fstp	 DWORD PTR tv3766[ebp]
  02270	f3 0f 10 85 80
	fe ff ff	 movss	 xmm0, DWORD PTR tv3766[ebp]
  02278	b8 04 00 00 00	 mov	 eax, 4
  0227d	6b c8 00	 imul	 ecx, eax, 0
  02280	8b 94 0d 24 ff
	ff ff		 mov	 edx, DWORD PTR _title_change_array$[ebp+ecx]
  02287	52		 push	 edx
  02288	b8 04 00 00 00	 mov	 eax, 4
  0228d	6b c8 00	 imul	 ecx, eax, 0
  02290	8b 94 0d 24 ff
	ff ff		 mov	 edx, DWORD PTR _title_change_array$[ebp+ecx]
  02297	8b 02		 mov	 eax, DWORD PTR [edx]
  02299	8b 0c 85 00 00
	00 00		 mov	 ecx, DWORD PTR ?fn_get_ui_object_x_size_end@@3PAP6GMPAUUI_OBJECT@@@ZA[eax*4]
  022a0	f3 0f 11 85 7c
	fe ff ff	 movss	 DWORD PTR tv4143[ebp], xmm0
  022a8	ff d1		 call	 ecx
  022aa	d9 9d 78 fe ff
	ff		 fstp	 DWORD PTR tv3774[ebp]
  022b0	f3 0f 10 85 7c
	fe ff ff	 movss	 xmm0, DWORD PTR tv4143[ebp]
  022b8	f3 0f 58 85 78
	fe ff ff	 addss	 xmm0, DWORD PTR tv3774[ebp]
  022c0	f3 0f 58 05 00
	00 00 00	 addss	 xmm0, DWORD PTR __real@3b2a64c3
  022c8	f3 0f 5a c0	 cvtss2sd xmm0, xmm0
  022cc	83 ec 08	 sub	 esp, 8
  022cf	f2 0f 11 04 24	 movsd	 QWORD PTR [esp], xmm0
  022d4	6a 58		 push	 88			; 00000058H
  022d6	8b 15 00 00 00
	00		 mov	 edx, DWORD PTR ?modem_type_area@@3PAUUI_OBJECT@@A ; modem_type_area
  022dc	52		 push	 edx
  022dd	6a 32		 push	 50			; 00000032H
  022df	6a 01		 push	 1
  022e1	e8 00 00 00 00	 call	 ?create_ui_object@@YAPAUUI_OBJECT@@HZZ ; create_ui_object
  022e6	83 c4 68	 add	 esp, 104		; 00000068H
  022e9	8b 4d f8	 mov	 ecx, DWORD PTR _j$[ebp]
  022ec	89 84 8d c4 fe
	ff ff		 mov	 DWORD PTR _change_array$[ebp+ecx*4], eax

; 941  : 	(
; 942  : 		UI_TYPE_AREA,
; 943  : 		UI_ATTR_PARENT (modem_type_area),
; 944  : 		UI_ATTR_VIRTUAL_POSITION ((get_ui_object_x_end (title_change_array [0]) + get_ui_object_x_size_end (title_change_array [0]) + OPTION_BOX_GAP_WIDTH), 0.0),
; 945  : 		UI_ATTR_VIRTUAL_SIZE (OPTION_BOX_EXTRA_LARGE_WIDTH, OPTION_BOX_HEIGHT),
; 946  : 		UI_ATTR_COLOUR_START (255,255,255,0),
; 947  : 		UI_ATTR_COLOUR_END ( 255, 255, 255, 255 ),
; 948  : 		UI_ATTR_TEXTURE_GRAPHIC (options_box_extra_large),
; 949  : 		UI_ATTR_END
; 950  : 	);
; 951  : 
; 952  :    modem_type_button = create_ui_object

  022f3	6a 11		 push	 17			; 00000011H
  022f5	68 00 00 00 00	 push	 OFFSET ?notify_modem_type_function@@YGXPAUUI_OBJECT@@PAX@Z ; notify_modem_type_function
  022fa	6a 16		 push	 22			; 00000016H
  022fc	6a 01		 push	 1
  022fe	6a 2f		 push	 47			; 0000002fH
  02300	6a 01		 push	 1
  02302	6a 07		 push	 7
  02304	6a 01		 push	 1
  02306	6a 1b		 push	 27			; 0000001bH
  02308	68 ff 00 00 00	 push	 255			; 000000ffH
  0230d	0f b6 05 00 00
	00 00		 movzx	 eax, BYTE PTR ?ui_option_text_hilite_colour@@3UREAL_COLOUR@@A
  02314	50		 push	 eax
  02315	0f b6 0d 01 00
	00 00		 movzx	 ecx, BYTE PTR ?ui_option_text_hilite_colour@@3UREAL_COLOUR@@A+1
  0231c	51		 push	 ecx
  0231d	0f b6 15 02 00
	00 00		 movzx	 edx, BYTE PTR ?ui_option_text_hilite_colour@@3UREAL_COLOUR@@A+2
  02324	52		 push	 edx
  02325	6a 22		 push	 34			; 00000022H
  02327	6a 00		 push	 0
  02329	0f b6 05 00 00
	00 00		 movzx	 eax, BYTE PTR ?ui_option_text_hilite_colour@@3UREAL_COLOUR@@A
  02330	50		 push	 eax
  02331	0f b6 0d 01 00
	00 00		 movzx	 ecx, BYTE PTR ?ui_option_text_hilite_colour@@3UREAL_COLOUR@@A+1
  02338	51		 push	 ecx
  02339	0f b6 15 02 00
	00 00		 movzx	 edx, BYTE PTR ?ui_option_text_hilite_colour@@3UREAL_COLOUR@@A+2
  02340	52		 push	 edx
  02341	6a 23		 push	 35			; 00000023H
  02343	68 ff 00 00 00	 push	 255			; 000000ffH
  02348	0f b6 05 00 00
	00 00		 movzx	 eax, BYTE PTR ?ui_option_text_default_colour@@3UREAL_COLOUR@@A
  0234f	50		 push	 eax
  02350	0f b6 0d 01 00
	00 00		 movzx	 ecx, BYTE PTR ?ui_option_text_default_colour@@3UREAL_COLOUR@@A+1
  02357	51		 push	 ecx
  02358	0f b6 15 02 00
	00 00		 movzx	 edx, BYTE PTR ?ui_option_text_default_colour@@3UREAL_COLOUR@@A+2
  0235f	52		 push	 edx
  02360	6a 14		 push	 20			; 00000014H
  02362	6a 00		 push	 0
  02364	0f b6 05 00 00
	00 00		 movzx	 eax, BYTE PTR ?ui_option_text_default_colour@@3UREAL_COLOUR@@A
  0236b	50		 push	 eax
  0236c	0f b6 0d 01 00
	00 00		 movzx	 ecx, BYTE PTR ?ui_option_text_default_colour@@3UREAL_COLOUR@@A+1
  02373	51		 push	 ecx
  02374	0f b6 15 02 00
	00 00		 movzx	 edx, BYTE PTR ?ui_option_text_default_colour@@3UREAL_COLOUR@@A+2
  0237b	52		 push	 edx
  0237c	6a 15		 push	 21			; 00000015H
  0237e	68 00 00 00 00	 push	 OFFSET ??_C@_00CNPNBAHC@@
  02383	6a 4a		 push	 74			; 0000004aH
  02385	6a 01		 push	 1
  02387	6a 4b		 push	 75			; 0000004bH
  02389	83 ec 08	 sub	 esp, 8
  0238c	f2 0f 10 05 00
	00 00 00	 movsd	 xmm0, QWORD PTR __real@3fc24dd300000000
  02394	f2 0f 11 04 24	 movsd	 QWORD PTR [esp], xmm0
  02399	8b 45 f8	 mov	 eax, DWORD PTR _j$[ebp]
  0239c	8b 8c 85 c4 fe
	ff ff		 mov	 ecx, DWORD PTR _change_array$[ebp+eax*4]
  023a3	51		 push	 ecx
  023a4	8b 55 f8	 mov	 edx, DWORD PTR _j$[ebp]
  023a7	8b 84 95 c4 fe
	ff ff		 mov	 eax, DWORD PTR _change_array$[ebp+edx*4]
  023ae	8b 08		 mov	 ecx, DWORD PTR [eax]
  023b0	8b 14 8d 00 00
	00 00		 mov	 edx, DWORD PTR ?fn_get_ui_object_x_end@@3PAP6GMPAUUI_OBJECT@@@ZA[ecx*4]
  023b7	ff d2		 call	 edx
  023b9	d9 9d 80 fe ff
	ff		 fstp	 DWORD PTR tv3793[ebp]
  023bf	f3 0f 10 85 80
	fe ff ff	 movss	 xmm0, DWORD PTR tv3793[ebp]
  023c7	f3 0f 58 05 00
	00 00 00	 addss	 xmm0, DWORD PTR __real@3c03126f
  023cf	f3 0f 5a c0	 cvtss2sd xmm0, xmm0
  023d3	83 ec 08	 sub	 esp, 8
  023d6	f2 0f 11 04 24	 movsd	 QWORD PTR [esp], xmm0
  023db	6a 58		 push	 88			; 00000058H
  023dd	68 ff 00 00 00	 push	 255			; 000000ffH
  023e2	6a 2f		 push	 47			; 0000002fH
  023e4	6a 7c		 push	 124			; 0000007cH
  023e6	68 fe 00 00 00	 push	 254			; 000000feH
  023eb	6a 13		 push	 19			; 00000013H
  023ed	6a 08		 push	 8
  023ef	6a 12		 push	 18			; 00000012H
  023f1	a1 00 00 00 00	 mov	 eax, DWORD PTR ?modem_type_area@@3PAUUI_OBJECT@@A ; modem_type_area
  023f6	50		 push	 eax
  023f7	6a 32		 push	 50			; 00000032H
  023f9	6a 05		 push	 5
  023fb	e8 00 00 00 00	 call	 ?create_ui_object@@YAPAUUI_OBJECT@@HZZ ; create_ui_object
  02400	81 c4 c0 00 00
	00		 add	 esp, 192		; 000000c0H
  02406	a3 00 00 00 00	 mov	 DWORD PTR ?modem_type_button@@3PAUUI_OBJECT@@A, eax ; modem_type_button

; 953  : 	(
; 954  : 		UI_TYPE_TEXT,
; 955  : 		UI_ATTR_PARENT (modem_type_area),
; 956  : 		UI_ATTR_FONT_TYPE (UI_FONT_THICK_ITALIC_ARIAL_18),
; 957  : 		UI_ATTR_FONT_COLOUR (254, 124, 47, 255),
; 958  : 		UI_ATTR_VIRTUAL_POSITION (get_ui_object_x_end (change_array [j]) + OPTION_BUTTON_TEXT_OFFSET_X, OPTION_BOX_TEXT_OFFSET_Y),
; 959  : 		UI_ATTR_TEXT_JUSTIFY (TEXT_JUSTIFY_LEFT_CENTRE),
; 960  : 		UI_ATTR_TEXT (""),
; 961  :       UI_ATTR_FONT_COLOUR_START (ui_option_text_default_colour.r, ui_option_text_default_colour.g, ui_option_text_default_colour.b, 0),
; 962  :       UI_ATTR_FONT_COLOUR_END (ui_option_text_default_colour.r, ui_option_text_default_colour.g, ui_option_text_default_colour.b, 255),
; 963  :       UI_ATTR_HIGHLIGHTED_FONT_COLOUR_START (ui_option_text_hilite_colour.r, ui_option_text_hilite_colour.g, ui_option_text_hilite_colour.b, 0),
; 964  :       UI_ATTR_HIGHLIGHTED_FONT_COLOUR_END (ui_option_text_hilite_colour.r, ui_option_text_hilite_colour.g, ui_option_text_hilite_colour.b, 255),
; 965  : 		UI_ATTR_HIGHLIGHTABLE (TRUE),
; 966  : 		UI_ATTR_CLEAR (TRUE),
; 967  : 		UI_ATTR_NOTIFY_ON (NOTIFY_TYPE_BUTTON_UP),
; 968  : 		UI_ATTR_FUNCTION (notify_modem_type_function),
; 969  : 		UI_ATTR_END
; 970  : 	);
; 971  : 
; 972  : 
; 973  : 	// phone number
; 974  : 	
; 975  : 	j++;

  0240b	8b 45 f8	 mov	 eax, DWORD PTR _j$[ebp]
  0240e	83 c0 01	 add	 eax, 1
  02411	89 45 f8	 mov	 DWORD PTR _j$[ebp], eax

; 976  : 
; 977  : 	change_array[j] = phone_number_text_area = create_ui_object

  02414	6a 11		 push	 17			; 00000011H
  02416	a1 00 00 00 00	 mov	 eax, DWORD PTR ?options_box_large@@3PAUTEXTURE_GRAPHIC@@A ; options_box_large
  0241b	50		 push	 eax
  0241c	6a 4c		 push	 76			; 0000004cH
  0241e	68 ff 00 00 00	 push	 255			; 000000ffH
  02423	68 ff 00 00 00	 push	 255			; 000000ffH
  02428	68 ff 00 00 00	 push	 255			; 000000ffH
  0242d	68 ff 00 00 00	 push	 255			; 000000ffH
  02432	6a 0a		 push	 10			; 0000000aH
  02434	6a 00		 push	 0
  02436	68 ff 00 00 00	 push	 255			; 000000ffH
  0243b	68 ff 00 00 00	 push	 255			; 000000ffH
  02440	68 ff 00 00 00	 push	 255			; 000000ffH
  02445	6a 0b		 push	 11			; 0000000bH
  02447	83 ec 08	 sub	 esp, 8
  0244a	f2 0f 10 05 00
	00 00 00	 movsd	 xmm0, QWORD PTR __real@3ff0000000000000
  02452	f2 0f 11 04 24	 movsd	 QWORD PTR [esp], xmm0
  02457	83 ec 08	 sub	 esp, 8
  0245a	f2 0f 10 05 00
	00 00 00	 movsd	 xmm0, QWORD PTR __real@3fd3126ea0000000
  02462	f2 0f 11 04 24	 movsd	 QWORD PTR [esp], xmm0
  02467	6a 59		 push	 89			; 00000059H
  02469	83 ec 08	 sub	 esp, 8
  0246c	0f 57 c0	 xorps	 xmm0, xmm0
  0246f	f2 0f 11 04 24	 movsd	 QWORD PTR [esp], xmm0
  02474	b9 04 00 00 00	 mov	 ecx, 4
  02479	6b d1 00	 imul	 edx, ecx, 0
  0247c	8b 84 15 24 ff
	ff ff		 mov	 eax, DWORD PTR _title_change_array$[ebp+edx]
  02483	50		 push	 eax
  02484	b9 04 00 00 00	 mov	 ecx, 4
  02489	6b d1 00	 imul	 edx, ecx, 0
  0248c	8b 84 15 24 ff
	ff ff		 mov	 eax, DWORD PTR _title_change_array$[ebp+edx]
  02493	8b 08		 mov	 ecx, DWORD PTR [eax]
  02495	8b 14 8d 00 00
	00 00		 mov	 edx, DWORD PTR ?fn_get_ui_object_x_end@@3PAP6GMPAUUI_OBJECT@@@ZA[ecx*4]
  0249c	ff d2		 call	 edx
  0249e	d9 9d 80 fe ff
	ff		 fstp	 DWORD PTR tv3807[ebp]
  024a4	f3 0f 10 85 80
	fe ff ff	 movss	 xmm0, DWORD PTR tv3807[ebp]
  024ac	b8 04 00 00 00	 mov	 eax, 4
  024b1	6b c8 00	 imul	 ecx, eax, 0
  024b4	8b 94 0d 24 ff
	ff ff		 mov	 edx, DWORD PTR _title_change_array$[ebp+ecx]
  024bb	52		 push	 edx
  024bc	b8 04 00 00 00	 mov	 eax, 4
  024c1	6b c8 00	 imul	 ecx, eax, 0
  024c4	8b 94 0d 24 ff
	ff ff		 mov	 edx, DWORD PTR _title_change_array$[ebp+ecx]
  024cb	8b 02		 mov	 eax, DWORD PTR [edx]
  024cd	8b 0c 85 00 00
	00 00		 mov	 ecx, DWORD PTR ?fn_get_ui_object_x_size_end@@3PAP6GMPAUUI_OBJECT@@@ZA[eax*4]
  024d4	f3 0f 11 85 7c
	fe ff ff	 movss	 DWORD PTR tv4145[ebp], xmm0
  024dc	ff d1		 call	 ecx
  024de	d9 9d 78 fe ff
	ff		 fstp	 DWORD PTR tv3815[ebp]
  024e4	f3 0f 10 85 7c
	fe ff ff	 movss	 xmm0, DWORD PTR tv4145[ebp]
  024ec	f3 0f 58 85 78
	fe ff ff	 addss	 xmm0, DWORD PTR tv3815[ebp]
  024f4	f3 0f 58 05 00
	00 00 00	 addss	 xmm0, DWORD PTR __real@3b2a64c3
  024fc	f3 0f 5a c0	 cvtss2sd xmm0, xmm0
  02500	83 ec 08	 sub	 esp, 8
  02503	f2 0f 11 04 24	 movsd	 QWORD PTR [esp], xmm0
  02508	6a 58		 push	 88			; 00000058H
  0250a	8b 15 00 00 00
	00		 mov	 edx, DWORD PTR ?phone_number_area@@3PAUUI_OBJECT@@A ; phone_number_area
  02510	52		 push	 edx
  02511	6a 32		 push	 50			; 00000032H
  02513	6a 01		 push	 1
  02515	e8 00 00 00 00	 call	 ?create_ui_object@@YAPAUUI_OBJECT@@HZZ ; create_ui_object
  0251a	83 c4 68	 add	 esp, 104		; 00000068H
  0251d	a3 00 00 00 00	 mov	 DWORD PTR ?phone_number_text_area@@3PAUUI_OBJECT@@A, eax ; phone_number_text_area
  02522	8b 45 f8	 mov	 eax, DWORD PTR _j$[ebp]
  02525	8b 0d 00 00 00
	00		 mov	 ecx, DWORD PTR ?phone_number_text_area@@3PAUUI_OBJECT@@A ; phone_number_text_area
  0252b	89 8c 85 c4 fe
	ff ff		 mov	 DWORD PTR _change_array$[ebp+eax*4], ecx

; 978  : 	(
; 979  : 		UI_TYPE_AREA,
; 980  : 		UI_ATTR_PARENT (phone_number_area),
; 981  : 		UI_ATTR_VIRTUAL_POSITION ((get_ui_object_x_end (title_change_array [0]) + get_ui_object_x_size_end (title_change_array [0]) + OPTION_BOX_GAP_WIDTH), 0.0),
; 982  : 		UI_ATTR_VIRTUAL_SIZE (OPTION_BOX_LARGE_WIDTH, OPTION_BOX_HEIGHT),
; 983  : 		UI_ATTR_COLOUR_START (255,255,255, 0),
; 984  : 		UI_ATTR_COLOUR_END (255, 255, 255, 255),
; 985  : 		UI_ATTR_TEXTURE_GRAPHIC (options_box_large),
; 986  : 		UI_ATTR_END
; 987  : 	);
; 988  : 
; 989  : 	// Actual text
; 990  : 
; 991  :    phone_number_text_obj = create_ui_object

  02532	6a 11		 push	 17			; 00000011H
  02534	68 00 00 00 00	 push	 OFFSET ?get_text_input@@YGXPAUUI_OBJECT@@PAX@Z ; get_text_input
  02539	6a 16		 push	 22			; 00000016H
  0253b	6a 01		 push	 1
  0253d	6a 2f		 push	 47			; 0000002fH
  0253f	6a 01		 push	 1
  02541	6a 07		 push	 7
  02543	6a 01		 push	 1
  02545	6a 1b		 push	 27			; 0000001bH
  02547	68 14 01 00 00	 push	 OFFSET ?global_options@@3UGLOBAL_OPTIONS_DATA@@A+276
  0254c	6a 4a		 push	 74			; 0000004aH
  0254e	6a 08		 push	 8
  02550	6a 12		 push	 18			; 00000012H
  02552	68 ff 00 00 00	 push	 255			; 000000ffH
  02557	0f b6 05 00 00
	00 00		 movzx	 eax, BYTE PTR ?ui_option_text_hilite_colour@@3UREAL_COLOUR@@A
  0255e	50		 push	 eax
  0255f	0f b6 0d 01 00
	00 00		 movzx	 ecx, BYTE PTR ?ui_option_text_hilite_colour@@3UREAL_COLOUR@@A+1
  02566	51		 push	 ecx
  02567	0f b6 15 02 00
	00 00		 movzx	 edx, BYTE PTR ?ui_option_text_hilite_colour@@3UREAL_COLOUR@@A+2
  0256e	52		 push	 edx
  0256f	6a 22		 push	 34			; 00000022H
  02571	6a 00		 push	 0
  02573	0f b6 05 00 00
	00 00		 movzx	 eax, BYTE PTR ?ui_option_text_hilite_colour@@3UREAL_COLOUR@@A
  0257a	50		 push	 eax
  0257b	0f b6 0d 01 00
	00 00		 movzx	 ecx, BYTE PTR ?ui_option_text_hilite_colour@@3UREAL_COLOUR@@A+1
  02582	51		 push	 ecx
  02583	0f b6 15 02 00
	00 00		 movzx	 edx, BYTE PTR ?ui_option_text_hilite_colour@@3UREAL_COLOUR@@A+2
  0258a	52		 push	 edx
  0258b	6a 23		 push	 35			; 00000023H
  0258d	68 ff 00 00 00	 push	 255			; 000000ffH
  02592	0f b6 05 00 00
	00 00		 movzx	 eax, BYTE PTR ?ui_option_text_default_colour@@3UREAL_COLOUR@@A
  02599	50		 push	 eax
  0259a	0f b6 0d 01 00
	00 00		 movzx	 ecx, BYTE PTR ?ui_option_text_default_colour@@3UREAL_COLOUR@@A+1
  025a1	51		 push	 ecx
  025a2	0f b6 15 02 00
	00 00		 movzx	 edx, BYTE PTR ?ui_option_text_default_colour@@3UREAL_COLOUR@@A+2
  025a9	52		 push	 edx
  025aa	6a 14		 push	 20			; 00000014H
  025ac	6a 00		 push	 0
  025ae	0f b6 05 00 00
	00 00		 movzx	 eax, BYTE PTR ?ui_option_text_default_colour@@3UREAL_COLOUR@@A
  025b5	50		 push	 eax
  025b6	0f b6 0d 01 00
	00 00		 movzx	 ecx, BYTE PTR ?ui_option_text_default_colour@@3UREAL_COLOUR@@A+1
  025bd	51		 push	 ecx
  025be	0f b6 15 02 00
	00 00		 movzx	 edx, BYTE PTR ?ui_option_text_default_colour@@3UREAL_COLOUR@@A+2
  025c5	52		 push	 edx
  025c6	6a 15		 push	 21			; 00000015H
  025c8	6a 01		 push	 1
  025ca	6a 4b		 push	 75			; 0000004bH
  025cc	83 ec 08	 sub	 esp, 8
  025cf	f2 0f 10 05 00
	00 00 00	 movsd	 xmm0, QWORD PTR __real@3ff0000000000000
  025d7	f2 0f 11 04 24	 movsd	 QWORD PTR [esp], xmm0
  025dc	83 ec 08	 sub	 esp, 8
  025df	f2 0f 10 05 00
	00 00 00	 movsd	 xmm0, QWORD PTR __real@3ff0000000000000
  025e7	f2 0f 11 04 24	 movsd	 QWORD PTR [esp], xmm0
  025ec	6a 59		 push	 89			; 00000059H
  025ee	83 ec 08	 sub	 esp, 8
  025f1	0f 57 c0	 xorps	 xmm0, xmm0
  025f4	f2 0f 11 04 24	 movsd	 QWORD PTR [esp], xmm0
  025f9	8b 45 f8	 mov	 eax, DWORD PTR _j$[ebp]
  025fc	8b 8c 85 c4 fe
	ff ff		 mov	 ecx, DWORD PTR _change_array$[ebp+eax*4]
  02603	51		 push	 ecx
  02604	8b 55 f8	 mov	 edx, DWORD PTR _j$[ebp]
  02607	8b 84 95 c4 fe
	ff ff		 mov	 eax, DWORD PTR _change_array$[ebp+edx*4]
  0260e	8b 08		 mov	 ecx, DWORD PTR [eax]
  02610	8b 14 8d 00 00
	00 00		 mov	 edx, DWORD PTR ?fn_get_ui_object_x_end@@3PAP6GMPAUUI_OBJECT@@@ZA[ecx*4]
  02617	ff d2		 call	 edx
  02619	d9 9d 80 fe ff
	ff		 fstp	 DWORD PTR tv3835[ebp]
  0261f	f3 0f 10 85 80
	fe ff ff	 movss	 xmm0, DWORD PTR tv3835[ebp]
  02627	f3 0f 58 05 00
	00 00 00	 addss	 xmm0, DWORD PTR __real@3c03126f
  0262f	f3 0f 5a c0	 cvtss2sd xmm0, xmm0
  02633	83 ec 08	 sub	 esp, 8
  02636	f2 0f 11 04 24	 movsd	 QWORD PTR [esp], xmm0
  0263b	6a 58		 push	 88			; 00000058H
  0263d	a1 00 00 00 00	 mov	 eax, DWORD PTR ?phone_number_area@@3PAUUI_OBJECT@@A ; phone_number_area
  02642	50		 push	 eax
  02643	6a 32		 push	 50			; 00000032H
  02645	6a 01		 push	 1
  02647	e8 00 00 00 00	 call	 ?create_ui_object@@YAPAUUI_OBJECT@@HZZ ; create_ui_object
  0264c	81 c4 c0 00 00
	00		 add	 esp, 192		; 000000c0H
  02652	a3 00 00 00 00	 mov	 DWORD PTR ?phone_number_text_obj@@3PAUUI_OBJECT@@A, eax ; phone_number_text_obj

; 992  : 									(
; 993  : 										UI_TYPE_AREA,
; 994  : 										UI_ATTR_PARENT (phone_number_area),
; 995  : 										UI_ATTR_VIRTUAL_POSITION ((get_ui_object_x_end (change_array [j]) + OPTION_BUTTON_TEXT_OFFSET_X), 0.0),
; 996  : 										UI_ATTR_VIRTUAL_SIZE (1.0, 1.0),
; 997  : 										UI_ATTR_TEXT_JUSTIFY (TEXT_JUSTIFY_LEFT_CENTRE),
; 998  :       								UI_ATTR_FONT_COLOUR_START (ui_option_text_default_colour.r, ui_option_text_default_colour.g, ui_option_text_default_colour.b, 0),
; 999  :       								UI_ATTR_FONT_COLOUR_END (ui_option_text_default_colour.r, ui_option_text_default_colour.g, ui_option_text_default_colour.b, 255),
; 1000 :       								UI_ATTR_HIGHLIGHTED_FONT_COLOUR_START (ui_option_text_hilite_colour.r, ui_option_text_hilite_colour.g, ui_option_text_hilite_colour.b, 0),
; 1001 :       								UI_ATTR_HIGHLIGHTED_FONT_COLOUR_END (ui_option_text_hilite_colour.r, ui_option_text_hilite_colour.g, ui_option_text_hilite_colour.b, 255),
; 1002 : 										UI_ATTR_FONT_TYPE (UI_FONT_THICK_ITALIC_ARIAL_18),
; 1003 : 										UI_ATTR_TEXT (global_options.phone_number),
; 1004 : 										UI_ATTR_HIGHLIGHTABLE (TRUE),
; 1005 : 										UI_ATTR_CLEAR (TRUE),
; 1006 : 										UI_ATTR_NOTIFY_ON (NOTIFY_TYPE_BUTTON_UP),
; 1007 : 										UI_ATTR_FUNCTION (get_text_input),
; 1008 : 										UI_ATTR_END
; 1009 : 									);
; 1010 : 
; 1011 : 	// Text input
; 1012 : 
; 1013 : 	phone_number_text_input = create_ui_object

  02657	6a 11		 push	 17			; 00000011H
  02659	68 00 00 00 00	 push	 OFFSET ?multi_text_input_function@@YGXPAUUI_OBJECT@@PAX@Z ; multi_text_input_function
  0265e	6a 16		 push	 22			; 00000016H
  02660	6a 00		 push	 0
  02662	6a 49		 push	 73			; 00000049H
  02664	68 ff 00 00 00	 push	 255			; 000000ffH
  02669	0f b6 05 00 00
	00 00		 movzx	 eax, BYTE PTR ?ui_option_title_text_colour@@3UREAL_COLOUR@@A
  02670	50		 push	 eax
  02671	0f b6 0d 01 00
	00 00		 movzx	 ecx, BYTE PTR ?ui_option_title_text_colour@@3UREAL_COLOUR@@A+1
  02678	51		 push	 ecx
  02679	0f b6 15 02 00
	00 00		 movzx	 edx, BYTE PTR ?ui_option_title_text_colour@@3UREAL_COLOUR@@A+2
  02680	52		 push	 edx
  02681	6a 14		 push	 20			; 00000014H
  02683	6a 00		 push	 0
  02685	0f b6 05 00 00
	00 00		 movzx	 eax, BYTE PTR ?ui_option_title_text_colour@@3UREAL_COLOUR@@A
  0268c	50		 push	 eax
  0268d	0f b6 0d 01 00
	00 00		 movzx	 ecx, BYTE PTR ?ui_option_title_text_colour@@3UREAL_COLOUR@@A+1
  02694	51		 push	 ecx
  02695	0f b6 15 02 00
	00 00		 movzx	 edx, BYTE PTR ?ui_option_title_text_colour@@3UREAL_COLOUR@@A+2
  0269c	52		 push	 edx
  0269d	6a 15		 push	 21			; 00000015H
  0269f	6a 01		 push	 1
  026a1	6a 4b		 push	 75			; 0000004bH
  026a3	6a 08		 push	 8
  026a5	6a 12		 push	 18			; 00000012H
  026a7	83 ec 08	 sub	 esp, 8
  026aa	f2 0f 10 05 00
	00 00 00	 movsd	 xmm0, QWORD PTR __real@3ff0000000000000
  026b2	f2 0f 11 04 24	 movsd	 QWORD PTR [esp], xmm0
  026b7	83 ec 08	 sub	 esp, 8
  026ba	f2 0f 10 05 00
	00 00 00	 movsd	 xmm0, QWORD PTR __real@3ff0000000000000
  026c2	f2 0f 11 04 24	 movsd	 QWORD PTR [esp], xmm0
  026c7	6a 59		 push	 89			; 00000059H
  026c9	83 ec 08	 sub	 esp, 8
  026cc	f2 0f 10 05 00
	00 00 00	 movsd	 xmm0, QWORD PTR __real@3fc24dd300000000
  026d4	f2 0f 11 04 24	 movsd	 QWORD PTR [esp], xmm0
  026d9	8b 45 f8	 mov	 eax, DWORD PTR _j$[ebp]
  026dc	8b 8c 85 c4 fe
	ff ff		 mov	 ecx, DWORD PTR _change_array$[ebp+eax*4]
  026e3	51		 push	 ecx
  026e4	8b 55 f8	 mov	 edx, DWORD PTR _j$[ebp]
  026e7	8b 84 95 c4 fe
	ff ff		 mov	 eax, DWORD PTR _change_array$[ebp+edx*4]
  026ee	8b 08		 mov	 ecx, DWORD PTR [eax]
  026f0	8b 14 8d 00 00
	00 00		 mov	 edx, DWORD PTR ?fn_get_ui_object_x_end@@3PAP6GMPAUUI_OBJECT@@@ZA[ecx*4]
  026f7	ff d2		 call	 edx
  026f9	d9 9d 80 fe ff
	ff		 fstp	 DWORD PTR tv3852[ebp]
  026ff	f3 0f 10 85 80
	fe ff ff	 movss	 xmm0, DWORD PTR tv3852[ebp]
  02707	f3 0f 58 05 00
	00 00 00	 addss	 xmm0, DWORD PTR __real@3c03126f
  0270f	f3 0f 5a c0	 cvtss2sd xmm0, xmm0
  02713	83 ec 08	 sub	 esp, 8
  02716	f2 0f 11 04 24	 movsd	 QWORD PTR [esp], xmm0
  0271b	6a 58		 push	 88			; 00000058H
  0271d	a1 00 00 00 00	 mov	 eax, DWORD PTR ?phone_number_area@@3PAUUI_OBJECT@@A ; phone_number_area
  02722	50		 push	 eax
  02723	6a 32		 push	 50			; 00000032H
  02725	6a 10		 push	 16			; 00000010H
  02727	e8 00 00 00 00	 call	 ?create_ui_object@@YAPAUUI_OBJECT@@HZZ ; create_ui_object
  0272c	81 c4 80 00 00
	00		 add	 esp, 128		; 00000080H
  02732	a3 00 00 00 00	 mov	 DWORD PTR ?phone_number_text_input@@3PAUUI_OBJECT@@A, eax ; phone_number_text_input

; 1014 : 									(
; 1015 : 										UI_TYPE_INPUT,
; 1016 : 										UI_ATTR_PARENT (phone_number_area),
; 1017 : 										UI_ATTR_VIRTUAL_POSITION ((get_ui_object_x_end (change_array [j]) + OPTION_BUTTON_TEXT_OFFSET_X), OPTION_BOX_TEXT_OFFSET_Y),
; 1018 : 										UI_ATTR_VIRTUAL_SIZE (1.0, 1.0),
; 1019 : 										UI_ATTR_FONT_TYPE (UI_FONT_THICK_ITALIC_ARIAL_18),
; 1020 : 										UI_ATTR_TEXT_JUSTIFY (TEXT_JUSTIFY_LEFT_CENTRE),
; 1021 :       								UI_ATTR_FONT_COLOUR_START (ui_option_title_text_colour.r, ui_option_title_text_colour.g, ui_option_title_text_colour.b, 0),
; 1022 :       								UI_ATTR_FONT_COLOUR_END (ui_option_title_text_colour.r, ui_option_title_text_colour.g, ui_option_title_text_colour.b, 255),
; 1023 : 										UI_ATTR_STATE (UI_OBJECT_STATE_OFF),
; 1024 : 										UI_ATTR_FUNCTION (multi_text_input_function),
; 1025 : 										UI_ATTR_END
; 1026 : 									);
; 1027 : 
; 1028 : 
; 1029 : 	set_limit_input_length (phone_number_text_input, FALSE);

  02737	a1 00 00 00 00	 mov	 eax, DWORD PTR ?phone_number_text_input@@3PAUUI_OBJECT@@A ; phone_number_text_input
  0273c	8b 48 04	 mov	 ecx, DWORD PTR [eax+4]
  0273f	c7 81 e4 00 00
	00 00 00 00 00	 mov	 DWORD PTR [ecx+228], 0

; 1030 : 
; 1031 : 	set_ui_object_item_number (phone_number_text_input, (int) phone_number_text_obj);

  02749	a1 00 00 00 00	 mov	 eax, DWORD PTR ?phone_number_text_obj@@3PAUUI_OBJECT@@A ; phone_number_text_obj
  0274e	50		 push	 eax
  0274f	8b 0d 00 00 00
	00		 mov	 ecx, DWORD PTR ?phone_number_text_input@@3PAUUI_OBJECT@@A ; phone_number_text_input
  02755	51		 push	 ecx
  02756	8b 15 00 00 00
	00		 mov	 edx, DWORD PTR ?phone_number_text_input@@3PAUUI_OBJECT@@A ; phone_number_text_input
  0275c	8b 02		 mov	 eax, DWORD PTR [edx]
  0275e	8b 0c 85 00 00
	00 00		 mov	 ecx, DWORD PTR ?fn_set_ui_object_item_number@@3PAP6GXPAUUI_OBJECT@@H@ZA[eax*4]
  02765	ff d1		 call	 ecx

; 1032 : 	
; 1033 : 	set_ui_object_item_number (phone_number_text_obj, (int) phone_number_text_input);

  02767	a1 00 00 00 00	 mov	 eax, DWORD PTR ?phone_number_text_input@@3PAUUI_OBJECT@@A ; phone_number_text_input
  0276c	50		 push	 eax
  0276d	8b 0d 00 00 00
	00		 mov	 ecx, DWORD PTR ?phone_number_text_obj@@3PAUUI_OBJECT@@A ; phone_number_text_obj
  02773	51		 push	 ecx
  02774	8b 15 00 00 00
	00		 mov	 edx, DWORD PTR ?phone_number_text_obj@@3PAUUI_OBJECT@@A ; phone_number_text_obj
  0277a	8b 02		 mov	 eax, DWORD PTR [edx]
  0277c	8b 0c 85 00 00
	00 00		 mov	 ecx, DWORD PTR ?fn_set_ui_object_item_number@@3PAP6GXPAUUI_OBJECT@@H@ZA[eax*4]
  02783	ff d1		 call	 ecx

; 1034 : 
; 1035 : 	//modem
; 1036 : 
; 1037 : 	j++;

  02785	8b 45 f8	 mov	 eax, DWORD PTR _j$[ebp]
  02788	83 c0 01	 add	 eax, 1
  0278b	89 45 f8	 mov	 DWORD PTR _j$[ebp], eax

; 1038 : 
; 1039 : 
; 1040 : 	x1 = 0.0;

  0278e	0f 57 c0	 xorps	 xmm0, xmm0
  02791	f3 0f 11 45 f0	 movss	 DWORD PTR _x1$[ebp], xmm0

; 1041 : 	y1 = get_ui_object_y_end (phone_number_area);

  02796	a1 00 00 00 00	 mov	 eax, DWORD PTR ?phone_number_area@@3PAUUI_OBJECT@@A ; phone_number_area
  0279b	50		 push	 eax
  0279c	8b 0d 00 00 00
	00		 mov	 ecx, DWORD PTR ?phone_number_area@@3PAUUI_OBJECT@@A ; phone_number_area
  027a2	8b 11		 mov	 edx, DWORD PTR [ecx]
  027a4	8b 04 95 00 00
	00 00		 mov	 eax, DWORD PTR ?fn_get_ui_object_y_end@@3PAP6GMPAUUI_OBJECT@@@ZA[edx*4]
  027ab	ff d0		 call	 eax
  027ad	d9 5d ec	 fstp	 DWORD PTR _y1$[ebp]

; 1042 : 	y1 += OPTION_AREA_OFFSET_Y + 0.0375;

  027b0	f3 0f 5a 45 ec	 cvtss2sd xmm0, DWORD PTR _y1$[ebp]
  027b5	f2 0f 58 05 00
	00 00 00	 addsd	 xmm0, QWORD PTR __real@3fb978d4f999999a
  027bd	f2 0f 5a c0	 cvtsd2ss xmm0, xmm0
  027c1	f3 0f 11 45 ec	 movss	 DWORD PTR _y1$[ebp], xmm0

; 1043 : 
; 1044 : 
; 1045 : 	change_array[j] = modem_call_buttons_area = create_ui_object

  027c6	6a 11		 push	 17			; 00000011H
  027c8	68 ff 00 00 00	 push	 255			; 000000ffH
  027cd	68 ff 00 00 00	 push	 255			; 000000ffH
  027d2	68 ff 00 00 00	 push	 255			; 000000ffH
  027d7	68 ff 00 00 00	 push	 255			; 000000ffH
  027dc	6a 0a		 push	 10			; 0000000aH
  027de	6a 00		 push	 0
  027e0	6a 00		 push	 0
  027e2	6a 00		 push	 0
  027e4	6a 00		 push	 0
  027e6	6a 0b		 push	 11			; 0000000bH
  027e8	6a 01		 push	 1
  027ea	6a 07		 push	 7
  027ec	83 ec 08	 sub	 esp, 8
  027ef	f2 0f 10 05 00
	00 00 00	 movsd	 xmm0, QWORD PTR __real@3fadb22d00000000
  027f7	f2 0f 11 04 24	 movsd	 QWORD PTR [esp], xmm0
  027fc	83 ec 08	 sub	 esp, 8
  027ff	f2 0f 10 05 00
	00 00 00	 movsd	 xmm0, QWORD PTR __real@3ff0000000000000
  02807	f2 0f 11 04 24	 movsd	 QWORD PTR [esp], xmm0
  0280c	6a 59		 push	 89			; 00000059H
  0280e	f3 0f 5a 45 ec	 cvtss2sd xmm0, DWORD PTR _y1$[ebp]
  02813	83 ec 08	 sub	 esp, 8
  02816	f2 0f 11 04 24	 movsd	 QWORD PTR [esp], xmm0
  0281b	f3 0f 5a 45 f0	 cvtss2sd xmm0, DWORD PTR _x1$[ebp]
  02820	83 ec 08	 sub	 esp, 8
  02823	f2 0f 11 04 24	 movsd	 QWORD PTR [esp], xmm0
  02828	6a 58		 push	 88			; 00000058H
  0282a	a1 00 00 00 00	 mov	 eax, DWORD PTR ?modem_parameters_area@@3PAUUI_OBJECT@@A ; modem_parameters_area
  0282f	50		 push	 eax
  02830	6a 32		 push	 50			; 00000032H
  02832	6a 01		 push	 1
  02834	e8 00 00 00 00	 call	 ?create_ui_object@@YAPAUUI_OBJECT@@HZZ ; create_ui_object
  02839	83 c4 68	 add	 esp, 104		; 00000068H
  0283c	a3 00 00 00 00	 mov	 DWORD PTR ?modem_call_buttons_area@@3PAUUI_OBJECT@@A, eax ; modem_call_buttons_area
  02841	8b 4d f8	 mov	 ecx, DWORD PTR _j$[ebp]
  02844	8b 15 00 00 00
	00		 mov	 edx, DWORD PTR ?modem_call_buttons_area@@3PAUUI_OBJECT@@A ; modem_call_buttons_area
  0284a	89 94 8d c4 fe
	ff ff		 mov	 DWORD PTR _change_array$[ebp+ecx*4], edx

; 1046 : 									(
; 1047 : 										UI_TYPE_AREA,
; 1048 : 										UI_ATTR_PARENT (modem_parameters_area),
; 1049 : 										UI_ATTR_VIRTUAL_POSITION (x1, y1),
; 1050 : 										UI_ATTR_VIRTUAL_SIZE (OPTION_AREA_WIDTH, OPTION_AREA_HEIGHT),
; 1051 : 										UI_ATTR_CLEAR (TRUE),
; 1052 : 					               UI_ATTR_COLOUR_START (0,0,0,0),
; 1053 :             					   UI_ATTR_COLOUR_END (255,255,255,255),
; 1054 : 										UI_ATTR_END
; 1055 : 									);
; 1056 : 
; 1057 : 	x1 = get_ui_object_x_end (title_change_array[0]);

  02851	b8 04 00 00 00	 mov	 eax, 4
  02856	6b c8 00	 imul	 ecx, eax, 0
  02859	8b 94 0d 24 ff
	ff ff		 mov	 edx, DWORD PTR _title_change_array$[ebp+ecx]
  02860	52		 push	 edx
  02861	b8 04 00 00 00	 mov	 eax, 4
  02866	6b c8 00	 imul	 ecx, eax, 0
  02869	8b 94 0d 24 ff
	ff ff		 mov	 edx, DWORD PTR _title_change_array$[ebp+ecx]
  02870	8b 02		 mov	 eax, DWORD PTR [edx]
  02872	8b 0c 85 00 00
	00 00		 mov	 ecx, DWORD PTR ?fn_get_ui_object_x_end@@3PAP6GMPAUUI_OBJECT@@@ZA[eax*4]
  02879	ff d1		 call	 ecx
  0287b	d9 5d f0	 fstp	 DWORD PTR _x1$[ebp]

; 1058 : 	y1 = 0.0;

  0287e	0f 57 c0	 xorps	 xmm0, xmm0
  02881	f3 0f 11 45 ec	 movss	 DWORD PTR _y1$[ebp], xmm0

; 1059 : 
; 1060 : 	mb_width = 0.197;

  02886	f3 0f 10 05 00
	00 00 00	 movss	 xmm0, DWORD PTR __real@3e49ba5e
  0288e	f3 0f 11 45 e0	 movss	 DWORD PTR _mb_width$[ebp], xmm0

; 1061 : 
; 1062 : 	// dial button
; 1063 : 
; 1064 :    modem_dial_button = create_ui_object

  02893	6a 11		 push	 17			; 00000011H
  02895	68 00 00 00 00	 push	 OFFSET ?notify_modem_dial_function@@YGXPAUUI_OBJECT@@PAX@Z ; notify_modem_dial_function
  0289a	6a 16		 push	 22			; 00000016H
  0289c	6a 01		 push	 1
  0289e	6a 2f		 push	 47			; 0000002fH
  028a0	6a 01		 push	 1
  028a2	6a 1b		 push	 27			; 0000001bH
  028a4	68 ff 00 00 00	 push	 255			; 000000ffH
  028a9	0f b6 05 00 00
	00 00		 movzx	 eax, BYTE PTR ?ui_option_text_hilite_colour@@3UREAL_COLOUR@@A
  028b0	50		 push	 eax
  028b1	0f b6 0d 01 00
	00 00		 movzx	 ecx, BYTE PTR ?ui_option_text_hilite_colour@@3UREAL_COLOUR@@A+1
  028b8	51		 push	 ecx
  028b9	0f b6 15 02 00
	00 00		 movzx	 edx, BYTE PTR ?ui_option_text_hilite_colour@@3UREAL_COLOUR@@A+2
  028c0	52		 push	 edx
  028c1	6a 22		 push	 34			; 00000022H
  028c3	6a 00		 push	 0
  028c5	0f b6 05 00 00
	00 00		 movzx	 eax, BYTE PTR ?ui_option_text_hilite_colour@@3UREAL_COLOUR@@A
  028cc	50		 push	 eax
  028cd	0f b6 0d 01 00
	00 00		 movzx	 ecx, BYTE PTR ?ui_option_text_hilite_colour@@3UREAL_COLOUR@@A+1
  028d4	51		 push	 ecx
  028d5	0f b6 15 02 00
	00 00		 movzx	 edx, BYTE PTR ?ui_option_text_hilite_colour@@3UREAL_COLOUR@@A+2
  028dc	52		 push	 edx
  028dd	6a 23		 push	 35			; 00000023H
  028df	68 ff 00 00 00	 push	 255			; 000000ffH
  028e4	0f b6 05 00 00
	00 00		 movzx	 eax, BYTE PTR ?ui_option_text_default_colour@@3UREAL_COLOUR@@A
  028eb	50		 push	 eax
  028ec	0f b6 0d 01 00
	00 00		 movzx	 ecx, BYTE PTR ?ui_option_text_default_colour@@3UREAL_COLOUR@@A+1
  028f3	51		 push	 ecx
  028f4	0f b6 15 02 00
	00 00		 movzx	 edx, BYTE PTR ?ui_option_text_default_colour@@3UREAL_COLOUR@@A+2
  028fb	52		 push	 edx
  028fc	6a 14		 push	 20			; 00000014H
  028fe	6a 00		 push	 0
  02900	0f b6 05 00 00
	00 00		 movzx	 eax, BYTE PTR ?ui_option_text_default_colour@@3UREAL_COLOUR@@A
  02907	50		 push	 eax
  02908	0f b6 0d 01 00
	00 00		 movzx	 ecx, BYTE PTR ?ui_option_text_default_colour@@3UREAL_COLOUR@@A+1
  0290f	51		 push	 ecx
  02910	0f b6 15 02 00
	00 00		 movzx	 edx, BYTE PTR ?ui_option_text_default_colour@@3UREAL_COLOUR@@A+2
  02917	52		 push	 edx
  02918	6a 15		 push	 21			; 00000015H
  0291a	68 00 00 00 00	 push	 OFFSET ??_C@_07JALDKKPP@MP_DIAL@
  0291f	e8 00 00 00 00	 call	 ?get_trans@@YGPBDPBD@Z	; get_trans
  02924	50		 push	 eax
  02925	6a 4a		 push	 74			; 0000004aH
  02927	6a 00		 push	 0
  02929	6a 4b		 push	 75			; 0000004bH
  0292b	6a 08		 push	 8
  0292d	6a 12		 push	 18			; 00000012H
  0292f	a1 00 00 00 00	 mov	 eax, DWORD PTR ?options_box_medium@@3PAUTEXTURE_GRAPHIC@@A ; options_box_medium
  02934	50		 push	 eax
  02935	6a 4c		 push	 76			; 0000004cH
  02937	68 ff 00 00 00	 push	 255			; 000000ffH
  0293c	68 ff 00 00 00	 push	 255			; 000000ffH
  02941	68 ff 00 00 00	 push	 255			; 000000ffH
  02946	68 ff 00 00 00	 push	 255			; 000000ffH
  0294b	6a 0a		 push	 10			; 0000000aH
  0294d	6a 00		 push	 0
  0294f	68 ff 00 00 00	 push	 255			; 000000ffH
  02954	68 ff 00 00 00	 push	 255			; 000000ffH
  02959	68 ff 00 00 00	 push	 255			; 000000ffH
  0295e	6a 0b		 push	 11			; 0000000bH
  02960	83 ec 08	 sub	 esp, 8
  02963	f2 0f 10 05 00
	00 00 00	 movsd	 xmm0, QWORD PTR __real@3ff0000000000000
  0296b	f2 0f 11 04 24	 movsd	 QWORD PTR [esp], xmm0
  02970	f3 0f 5a 45 e0	 cvtss2sd xmm0, DWORD PTR _mb_width$[ebp]
  02975	83 ec 08	 sub	 esp, 8
  02978	f2 0f 11 04 24	 movsd	 QWORD PTR [esp], xmm0
  0297d	6a 59		 push	 89			; 00000059H
  0297f	f3 0f 5a 45 ec	 cvtss2sd xmm0, DWORD PTR _y1$[ebp]
  02984	83 ec 08	 sub	 esp, 8
  02987	f2 0f 11 04 24	 movsd	 QWORD PTR [esp], xmm0
  0298c	f3 0f 5a 45 f0	 cvtss2sd xmm0, DWORD PTR _x1$[ebp]
  02991	83 ec 08	 sub	 esp, 8
  02994	f2 0f 11 04 24	 movsd	 QWORD PTR [esp], xmm0
  02999	6a 58		 push	 88			; 00000058H
  0299b	8b 0d 00 00 00
	00		 mov	 ecx, DWORD PTR ?modem_call_buttons_area@@3PAUUI_OBJECT@@A ; modem_call_buttons_area
  029a1	51		 push	 ecx
  029a2	6a 32		 push	 50			; 00000032H
  029a4	6a 01		 push	 1
  029a6	e8 00 00 00 00	 call	 ?create_ui_object@@YAPAUUI_OBJECT@@HZZ ; create_ui_object
  029ab	81 c4 e8 00 00
	00		 add	 esp, 232		; 000000e8H
  029b1	a3 00 00 00 00	 mov	 DWORD PTR ?modem_dial_button@@3PAUUI_OBJECT@@A, eax ; modem_dial_button

; 1065 : 	(
; 1066 : 		UI_TYPE_AREA,
; 1067 : 		UI_ATTR_PARENT (modem_call_buttons_area),
; 1068 : 		UI_ATTR_VIRTUAL_POSITION (x1, y1),
; 1069 : 		UI_ATTR_VIRTUAL_SIZE (mb_width, OPTION_BOX_HEIGHT),
; 1070 : 		UI_ATTR_COLOUR_START (255,255,255,0),
; 1071 : 		UI_ATTR_COLOUR_END ( 255, 255, 255, 255 ),
; 1072 : 		UI_ATTR_TEXTURE_GRAPHIC (options_box_medium),
; 1073 : 		UI_ATTR_FONT_TYPE (UI_FONT_THICK_ITALIC_ARIAL_18),
; 1074 : 		UI_ATTR_TEXT_JUSTIFY (TEXT_JUSTIFY_CENTRE),
; 1075 : 		UI_ATTR_TEXT (get_trans ("MP_DIAL")),
; 1076 :       UI_ATTR_FONT_COLOUR_START (ui_option_text_default_colour.r, ui_option_text_default_colour.g, ui_option_text_default_colour.b, 0),
; 1077 :       UI_ATTR_FONT_COLOUR_END (ui_option_text_default_colour.r, ui_option_text_default_colour.g, ui_option_text_default_colour.b, 255),
; 1078 :       UI_ATTR_HIGHLIGHTED_FONT_COLOUR_START (ui_option_text_hilite_colour.r, ui_option_text_hilite_colour.g, ui_option_text_hilite_colour.b, 0),
; 1079 :       UI_ATTR_HIGHLIGHTED_FONT_COLOUR_END (ui_option_text_hilite_colour.r, ui_option_text_hilite_colour.g, ui_option_text_hilite_colour.b, 255),
; 1080 : 		UI_ATTR_HIGHLIGHTABLE (TRUE),
; 1081 : 		UI_ATTR_NOTIFY_ON (NOTIFY_TYPE_BUTTON_UP),
; 1082 : 		UI_ATTR_FUNCTION (notify_modem_dial_function),
; 1083 : 		UI_ATTR_END
; 1084 : 	);
; 1085 : 
; 1086 : 	// get size for buttons
; 1087 : 
; 1088 : 	preprocess_translation_object_size (modem_dial_button, NULL, NULL, 0, RESIZE_OPTION_FIXED_BUTTON);

  029b6	6a 02		 push	 2
  029b8	6a 00		 push	 0
  029ba	6a 00		 push	 0
  029bc	6a 00		 push	 0
  029be	a1 00 00 00 00	 mov	 eax, DWORD PTR ?modem_dial_button@@3PAUUI_OBJECT@@A ; modem_dial_button
  029c3	50		 push	 eax
  029c4	e8 00 00 00 00	 call	 ?preprocess_translation_object_size@@YGXPAUUI_OBJECT@@0PAPBDHW4RESIZE_UI_OBJECT_TYPES@@@Z ; preprocess_translation_object_size

; 1089 : 
; 1090 : //	if (global_options.current_language != LANGUAGE_ENGLISH)
; 1091 : //	{
; 1092 : //		preprocess_ui_option_button_size_free (modem_dial_button, NULL, translations, 3);
; 1093 : //	}
; 1094 : 
; 1095 : 	mb_width = get_ui_object_x_size_end (modem_dial_button);

  029c9	a1 00 00 00 00	 mov	 eax, DWORD PTR ?modem_dial_button@@3PAUUI_OBJECT@@A ; modem_dial_button
  029ce	50		 push	 eax
  029cf	8b 0d 00 00 00
	00		 mov	 ecx, DWORD PTR ?modem_dial_button@@3PAUUI_OBJECT@@A ; modem_dial_button
  029d5	8b 11		 mov	 edx, DWORD PTR [ecx]
  029d7	8b 04 95 00 00
	00 00		 mov	 eax, DWORD PTR ?fn_get_ui_object_x_size_end@@3PAP6GMPAUUI_OBJECT@@@ZA[edx*4]
  029de	ff d0		 call	 eax
  029e0	d9 5d e0	 fstp	 DWORD PTR _mb_width$[ebp]

; 1096 : 
; 1097 : 	x1 = get_ui_object_x_end (modem_dial_button) + OPTION_BOX_GAP_WIDTH + mb_width;

  029e3	a1 00 00 00 00	 mov	 eax, DWORD PTR ?modem_dial_button@@3PAUUI_OBJECT@@A ; modem_dial_button
  029e8	50		 push	 eax
  029e9	8b 0d 00 00 00
	00		 mov	 ecx, DWORD PTR ?modem_dial_button@@3PAUUI_OBJECT@@A ; modem_dial_button
  029ef	8b 11		 mov	 edx, DWORD PTR [ecx]
  029f1	8b 04 95 00 00
	00 00		 mov	 eax, DWORD PTR ?fn_get_ui_object_x_end@@3PAP6GMPAUUI_OBJECT@@@ZA[edx*4]
  029f8	ff d0		 call	 eax
  029fa	d9 9d 80 fe ff
	ff		 fstp	 DWORD PTR tv3917[ebp]
  02a00	f3 0f 10 85 80
	fe ff ff	 movss	 xmm0, DWORD PTR tv3917[ebp]
  02a08	f3 0f 58 05 00
	00 00 00	 addss	 xmm0, DWORD PTR __real@3b2a64c3
  02a10	f3 0f 58 45 e0	 addss	 xmm0, DWORD PTR _mb_width$[ebp]
  02a15	f3 0f 11 45 f0	 movss	 DWORD PTR _x1$[ebp], xmm0

; 1098 : 
; 1099 : 	// answer button
; 1100 : 	
; 1101 :    modem_answer_button = create_ui_object

  02a1a	6a 11		 push	 17			; 00000011H
  02a1c	68 00 00 00 00	 push	 OFFSET ?notify_modem_answer_function@@YGXPAUUI_OBJECT@@PAX@Z ; notify_modem_answer_function
  02a21	6a 16		 push	 22			; 00000016H
  02a23	6a 01		 push	 1
  02a25	6a 2f		 push	 47			; 0000002fH
  02a27	6a 01		 push	 1
  02a29	6a 1b		 push	 27			; 0000001bH
  02a2b	68 ff 00 00 00	 push	 255			; 000000ffH
  02a30	0f b6 05 00 00
	00 00		 movzx	 eax, BYTE PTR ?ui_option_text_hilite_colour@@3UREAL_COLOUR@@A
  02a37	50		 push	 eax
  02a38	0f b6 0d 01 00
	00 00		 movzx	 ecx, BYTE PTR ?ui_option_text_hilite_colour@@3UREAL_COLOUR@@A+1
  02a3f	51		 push	 ecx
  02a40	0f b6 15 02 00
	00 00		 movzx	 edx, BYTE PTR ?ui_option_text_hilite_colour@@3UREAL_COLOUR@@A+2
  02a47	52		 push	 edx
  02a48	6a 22		 push	 34			; 00000022H
  02a4a	6a 00		 push	 0
  02a4c	0f b6 05 00 00
	00 00		 movzx	 eax, BYTE PTR ?ui_option_text_hilite_colour@@3UREAL_COLOUR@@A
  02a53	50		 push	 eax
  02a54	0f b6 0d 01 00
	00 00		 movzx	 ecx, BYTE PTR ?ui_option_text_hilite_colour@@3UREAL_COLOUR@@A+1
  02a5b	51		 push	 ecx
  02a5c	0f b6 15 02 00
	00 00		 movzx	 edx, BYTE PTR ?ui_option_text_hilite_colour@@3UREAL_COLOUR@@A+2
  02a63	52		 push	 edx
  02a64	6a 23		 push	 35			; 00000023H
  02a66	68 ff 00 00 00	 push	 255			; 000000ffH
  02a6b	0f b6 05 00 00
	00 00		 movzx	 eax, BYTE PTR ?ui_option_text_default_colour@@3UREAL_COLOUR@@A
  02a72	50		 push	 eax
  02a73	0f b6 0d 01 00
	00 00		 movzx	 ecx, BYTE PTR ?ui_option_text_default_colour@@3UREAL_COLOUR@@A+1
  02a7a	51		 push	 ecx
  02a7b	0f b6 15 02 00
	00 00		 movzx	 edx, BYTE PTR ?ui_option_text_default_colour@@3UREAL_COLOUR@@A+2
  02a82	52		 push	 edx
  02a83	6a 14		 push	 20			; 00000014H
  02a85	6a 00		 push	 0
  02a87	0f b6 05 00 00
	00 00		 movzx	 eax, BYTE PTR ?ui_option_text_default_colour@@3UREAL_COLOUR@@A
  02a8e	50		 push	 eax
  02a8f	0f b6 0d 01 00
	00 00		 movzx	 ecx, BYTE PTR ?ui_option_text_default_colour@@3UREAL_COLOUR@@A+1
  02a96	51		 push	 ecx
  02a97	0f b6 15 02 00
	00 00		 movzx	 edx, BYTE PTR ?ui_option_text_default_colour@@3UREAL_COLOUR@@A+2
  02a9e	52		 push	 edx
  02a9f	6a 15		 push	 21			; 00000015H
  02aa1	68 00 00 00 00	 push	 OFFSET ??_C@_09IJPOFMKJ@MP_ANSWER@
  02aa6	e8 00 00 00 00	 call	 ?get_trans@@YGPBDPBD@Z	; get_trans
  02aab	50		 push	 eax
  02aac	6a 4a		 push	 74			; 0000004aH
  02aae	6a 00		 push	 0
  02ab0	6a 4b		 push	 75			; 0000004bH
  02ab2	6a 08		 push	 8
  02ab4	6a 12		 push	 18			; 00000012H
  02ab6	a1 00 00 00 00	 mov	 eax, DWORD PTR ?options_box_medium@@3PAUTEXTURE_GRAPHIC@@A ; options_box_medium
  02abb	50		 push	 eax
  02abc	6a 4c		 push	 76			; 0000004cH
  02abe	68 ff 00 00 00	 push	 255			; 000000ffH
  02ac3	68 ff 00 00 00	 push	 255			; 000000ffH
  02ac8	68 ff 00 00 00	 push	 255			; 000000ffH
  02acd	68 ff 00 00 00	 push	 255			; 000000ffH
  02ad2	6a 0a		 push	 10			; 0000000aH
  02ad4	6a 00		 push	 0
  02ad6	68 ff 00 00 00	 push	 255			; 000000ffH
  02adb	68 ff 00 00 00	 push	 255			; 000000ffH
  02ae0	68 ff 00 00 00	 push	 255			; 000000ffH
  02ae5	6a 0b		 push	 11			; 0000000bH
  02ae7	83 ec 08	 sub	 esp, 8
  02aea	f2 0f 10 05 00
	00 00 00	 movsd	 xmm0, QWORD PTR __real@3ff0000000000000
  02af2	f2 0f 11 04 24	 movsd	 QWORD PTR [esp], xmm0
  02af7	f3 0f 5a 45 e0	 cvtss2sd xmm0, DWORD PTR _mb_width$[ebp]
  02afc	83 ec 08	 sub	 esp, 8
  02aff	f2 0f 11 04 24	 movsd	 QWORD PTR [esp], xmm0
  02b04	6a 59		 push	 89			; 00000059H
  02b06	f3 0f 5a 45 ec	 cvtss2sd xmm0, DWORD PTR _y1$[ebp]
  02b0b	83 ec 08	 sub	 esp, 8
  02b0e	f2 0f 11 04 24	 movsd	 QWORD PTR [esp], xmm0
  02b13	f3 0f 5a 45 f0	 cvtss2sd xmm0, DWORD PTR _x1$[ebp]
  02b18	83 ec 08	 sub	 esp, 8
  02b1b	f2 0f 11 04 24	 movsd	 QWORD PTR [esp], xmm0
  02b20	6a 58		 push	 88			; 00000058H
  02b22	8b 0d 00 00 00
	00		 mov	 ecx, DWORD PTR ?modem_call_buttons_area@@3PAUUI_OBJECT@@A ; modem_call_buttons_area
  02b28	51		 push	 ecx
  02b29	6a 32		 push	 50			; 00000032H
  02b2b	6a 01		 push	 1
  02b2d	e8 00 00 00 00	 call	 ?create_ui_object@@YAPAUUI_OBJECT@@HZZ ; create_ui_object
  02b32	81 c4 e8 00 00
	00		 add	 esp, 232		; 000000e8H
  02b38	a3 00 00 00 00	 mov	 DWORD PTR ?modem_answer_button@@3PAUUI_OBJECT@@A, eax ; modem_answer_button

; 1102 : 	(
; 1103 : 		UI_TYPE_AREA,
; 1104 : 		UI_ATTR_PARENT (modem_call_buttons_area),
; 1105 : 		UI_ATTR_VIRTUAL_POSITION (x1, y1),
; 1106 : 		UI_ATTR_VIRTUAL_SIZE (mb_width, OPTION_BOX_HEIGHT),
; 1107 : 		UI_ATTR_COLOUR_START (255,255,255,0),
; 1108 : 		UI_ATTR_COLOUR_END ( 255, 255, 255, 255 ),
; 1109 : 		UI_ATTR_TEXTURE_GRAPHIC (options_box_medium),
; 1110 : 		UI_ATTR_FONT_TYPE (UI_FONT_THICK_ITALIC_ARIAL_18),
; 1111 : 		UI_ATTR_TEXT_JUSTIFY (TEXT_JUSTIFY_CENTRE),
; 1112 : 		UI_ATTR_TEXT (get_trans ("MP_ANSWER")),
; 1113 :       UI_ATTR_FONT_COLOUR_START (ui_option_text_default_colour.r, ui_option_text_default_colour.g, ui_option_text_default_colour.b, 0),
; 1114 :       UI_ATTR_FONT_COLOUR_END (ui_option_text_default_colour.r, ui_option_text_default_colour.g, ui_option_text_default_colour.b, 255),
; 1115 :       UI_ATTR_HIGHLIGHTED_FONT_COLOUR_START (ui_option_text_hilite_colour.r, ui_option_text_hilite_colour.g, ui_option_text_hilite_colour.b, 0),
; 1116 :       UI_ATTR_HIGHLIGHTED_FONT_COLOUR_END (ui_option_text_hilite_colour.r, ui_option_text_hilite_colour.g, ui_option_text_hilite_colour.b, 255),
; 1117 : 		UI_ATTR_HIGHLIGHTABLE (TRUE),
; 1118 : 		UI_ATTR_NOTIFY_ON (NOTIFY_TYPE_BUTTON_UP),
; 1119 : 		UI_ATTR_FUNCTION (notify_modem_answer_function),
; 1120 : 		UI_ATTR_END
; 1121 : 	);
; 1122 : 
; 1123 : 	preprocess_translation_object_size (modem_answer_button, NULL, NULL, 0, RESIZE_OPTION_FIXED_BUTTON);

  02b3d	6a 02		 push	 2
  02b3f	6a 00		 push	 0
  02b41	6a 00		 push	 0
  02b43	6a 00		 push	 0
  02b45	a1 00 00 00 00	 mov	 eax, DWORD PTR ?modem_answer_button@@3PAUUI_OBJECT@@A ; modem_answer_button
  02b4a	50		 push	 eax
  02b4b	e8 00 00 00 00	 call	 ?preprocess_translation_object_size@@YGXPAUUI_OBJECT@@0PAPBDHW4RESIZE_UI_OBJECT_TYPES@@@Z ; preprocess_translation_object_size

; 1124 : 
; 1125 : 	// cancel button
; 1126 : 
; 1127 : 	mb_width = get_ui_object_x_size_end (modem_answer_button);

  02b50	a1 00 00 00 00	 mov	 eax, DWORD PTR ?modem_answer_button@@3PAUUI_OBJECT@@A ; modem_answer_button
  02b55	50		 push	 eax
  02b56	8b 0d 00 00 00
	00		 mov	 ecx, DWORD PTR ?modem_answer_button@@3PAUUI_OBJECT@@A ; modem_answer_button
  02b5c	8b 11		 mov	 edx, DWORD PTR [ecx]
  02b5e	8b 04 95 00 00
	00 00		 mov	 eax, DWORD PTR ?fn_get_ui_object_x_size_end@@3PAP6GMPAUUI_OBJECT@@@ZA[edx*4]
  02b65	ff d0		 call	 eax
  02b67	d9 5d e0	 fstp	 DWORD PTR _mb_width$[ebp]

; 1128 : 
; 1129 : 	x1 += mb_width + OPTION_BOX_GAP_WIDTH;

  02b6a	f3 0f 10 45 e0	 movss	 xmm0, DWORD PTR _mb_width$[ebp]
  02b6f	f3 0f 58 05 00
	00 00 00	 addss	 xmm0, DWORD PTR __real@3b2a64c3
  02b77	f3 0f 58 45 f0	 addss	 xmm0, DWORD PTR _x1$[ebp]
  02b7c	f3 0f 11 45 f0	 movss	 DWORD PTR _x1$[ebp], xmm0

; 1130 : 
; 1131 :    modem_cancel_button = create_ui_object

  02b81	6a 11		 push	 17			; 00000011H
  02b83	68 00 00 00 00	 push	 OFFSET ?notify_modem_cancel_function@@YGXPAUUI_OBJECT@@PAX@Z ; notify_modem_cancel_function
  02b88	6a 16		 push	 22			; 00000016H
  02b8a	6a 01		 push	 1
  02b8c	6a 2f		 push	 47			; 0000002fH
  02b8e	6a 01		 push	 1
  02b90	6a 1b		 push	 27			; 0000001bH
  02b92	68 ff 00 00 00	 push	 255			; 000000ffH
  02b97	0f b6 05 00 00
	00 00		 movzx	 eax, BYTE PTR ?ui_option_text_hilite_colour@@3UREAL_COLOUR@@A
  02b9e	50		 push	 eax
  02b9f	0f b6 0d 01 00
	00 00		 movzx	 ecx, BYTE PTR ?ui_option_text_hilite_colour@@3UREAL_COLOUR@@A+1
  02ba6	51		 push	 ecx
  02ba7	0f b6 15 02 00
	00 00		 movzx	 edx, BYTE PTR ?ui_option_text_hilite_colour@@3UREAL_COLOUR@@A+2
  02bae	52		 push	 edx
  02baf	6a 22		 push	 34			; 00000022H
  02bb1	6a 00		 push	 0
  02bb3	0f b6 05 00 00
	00 00		 movzx	 eax, BYTE PTR ?ui_option_text_hilite_colour@@3UREAL_COLOUR@@A
  02bba	50		 push	 eax
  02bbb	0f b6 0d 01 00
	00 00		 movzx	 ecx, BYTE PTR ?ui_option_text_hilite_colour@@3UREAL_COLOUR@@A+1
  02bc2	51		 push	 ecx
  02bc3	0f b6 15 02 00
	00 00		 movzx	 edx, BYTE PTR ?ui_option_text_hilite_colour@@3UREAL_COLOUR@@A+2
  02bca	52		 push	 edx
  02bcb	6a 23		 push	 35			; 00000023H
  02bcd	68 ff 00 00 00	 push	 255			; 000000ffH
  02bd2	0f b6 05 00 00
	00 00		 movzx	 eax, BYTE PTR ?ui_option_text_default_colour@@3UREAL_COLOUR@@A
  02bd9	50		 push	 eax
  02bda	0f b6 0d 01 00
	00 00		 movzx	 ecx, BYTE PTR ?ui_option_text_default_colour@@3UREAL_COLOUR@@A+1
  02be1	51		 push	 ecx
  02be2	0f b6 15 02 00
	00 00		 movzx	 edx, BYTE PTR ?ui_option_text_default_colour@@3UREAL_COLOUR@@A+2
  02be9	52		 push	 edx
  02bea	6a 14		 push	 20			; 00000014H
  02bec	6a 00		 push	 0
  02bee	0f b6 05 00 00
	00 00		 movzx	 eax, BYTE PTR ?ui_option_text_default_colour@@3UREAL_COLOUR@@A
  02bf5	50		 push	 eax
  02bf6	0f b6 0d 01 00
	00 00		 movzx	 ecx, BYTE PTR ?ui_option_text_default_colour@@3UREAL_COLOUR@@A+1
  02bfd	51		 push	 ecx
  02bfe	0f b6 15 02 00
	00 00		 movzx	 edx, BYTE PTR ?ui_option_text_default_colour@@3UREAL_COLOUR@@A+2
  02c05	52		 push	 edx
  02c06	6a 15		 push	 21			; 00000015H
  02c08	68 00 00 00 00	 push	 OFFSET ??_C@_09HMHNFDHB@MP_CANCEL@
  02c0d	e8 00 00 00 00	 call	 ?get_trans@@YGPBDPBD@Z	; get_trans
  02c12	50		 push	 eax
  02c13	6a 4a		 push	 74			; 0000004aH
  02c15	6a 00		 push	 0
  02c17	6a 4b		 push	 75			; 0000004bH
  02c19	6a 08		 push	 8
  02c1b	6a 12		 push	 18			; 00000012H
  02c1d	a1 00 00 00 00	 mov	 eax, DWORD PTR ?options_box_medium@@3PAUTEXTURE_GRAPHIC@@A ; options_box_medium
  02c22	50		 push	 eax
  02c23	6a 4c		 push	 76			; 0000004cH
  02c25	68 ff 00 00 00	 push	 255			; 000000ffH
  02c2a	68 ff 00 00 00	 push	 255			; 000000ffH
  02c2f	68 ff 00 00 00	 push	 255			; 000000ffH
  02c34	68 ff 00 00 00	 push	 255			; 000000ffH
  02c39	6a 0a		 push	 10			; 0000000aH
  02c3b	6a 00		 push	 0
  02c3d	68 ff 00 00 00	 push	 255			; 000000ffH
  02c42	68 ff 00 00 00	 push	 255			; 000000ffH
  02c47	68 ff 00 00 00	 push	 255			; 000000ffH
  02c4c	6a 0b		 push	 11			; 0000000bH
  02c4e	83 ec 08	 sub	 esp, 8
  02c51	f2 0f 10 05 00
	00 00 00	 movsd	 xmm0, QWORD PTR __real@3ff0000000000000
  02c59	f2 0f 11 04 24	 movsd	 QWORD PTR [esp], xmm0
  02c5e	f3 0f 5a 45 e0	 cvtss2sd xmm0, DWORD PTR _mb_width$[ebp]
  02c63	83 ec 08	 sub	 esp, 8
  02c66	f2 0f 11 04 24	 movsd	 QWORD PTR [esp], xmm0
  02c6b	6a 59		 push	 89			; 00000059H
  02c6d	f3 0f 5a 45 ec	 cvtss2sd xmm0, DWORD PTR _y1$[ebp]
  02c72	83 ec 08	 sub	 esp, 8
  02c75	f2 0f 11 04 24	 movsd	 QWORD PTR [esp], xmm0
  02c7a	f3 0f 5a 45 f0	 cvtss2sd xmm0, DWORD PTR _x1$[ebp]
  02c7f	83 ec 08	 sub	 esp, 8
  02c82	f2 0f 11 04 24	 movsd	 QWORD PTR [esp], xmm0
  02c87	6a 58		 push	 88			; 00000058H
  02c89	8b 0d 00 00 00
	00		 mov	 ecx, DWORD PTR ?modem_call_buttons_area@@3PAUUI_OBJECT@@A ; modem_call_buttons_area
  02c8f	51		 push	 ecx
  02c90	6a 32		 push	 50			; 00000032H
  02c92	6a 01		 push	 1
  02c94	e8 00 00 00 00	 call	 ?create_ui_object@@YAPAUUI_OBJECT@@HZZ ; create_ui_object
  02c99	81 c4 e8 00 00
	00		 add	 esp, 232		; 000000e8H
  02c9f	a3 00 00 00 00	 mov	 DWORD PTR ?modem_cancel_button@@3PAUUI_OBJECT@@A, eax ; modem_cancel_button

; 1132 : 	(
; 1133 : 		UI_TYPE_AREA,
; 1134 : 		UI_ATTR_PARENT (modem_call_buttons_area),
; 1135 : 		UI_ATTR_VIRTUAL_POSITION (x1, y1),
; 1136 : 		UI_ATTR_VIRTUAL_SIZE (mb_width, OPTION_BOX_HEIGHT),
; 1137 : 		UI_ATTR_COLOUR_START (255,255,255,0),
; 1138 : 		UI_ATTR_COLOUR_END ( 255, 255, 255, 255 ),
; 1139 : 		UI_ATTR_TEXTURE_GRAPHIC (options_box_medium),
; 1140 : 		UI_ATTR_FONT_TYPE (UI_FONT_THICK_ITALIC_ARIAL_18),
; 1141 : 		UI_ATTR_TEXT_JUSTIFY (TEXT_JUSTIFY_CENTRE),
; 1142 : 		UI_ATTR_TEXT (get_trans ("MP_CANCEL")),
; 1143 :       UI_ATTR_FONT_COLOUR_START (ui_option_text_default_colour.r, ui_option_text_default_colour.g, ui_option_text_default_colour.b, 0),
; 1144 :       UI_ATTR_FONT_COLOUR_END (ui_option_text_default_colour.r, ui_option_text_default_colour.g, ui_option_text_default_colour.b, 255),
; 1145 :       UI_ATTR_HIGHLIGHTED_FONT_COLOUR_START (ui_option_text_hilite_colour.r, ui_option_text_hilite_colour.g, ui_option_text_hilite_colour.b, 0),
; 1146 :       UI_ATTR_HIGHLIGHTED_FONT_COLOUR_END (ui_option_text_hilite_colour.r, ui_option_text_hilite_colour.g, ui_option_text_hilite_colour.b, 255),
; 1147 : 		UI_ATTR_HIGHLIGHTABLE (TRUE),
; 1148 : 		UI_ATTR_NOTIFY_ON (NOTIFY_TYPE_BUTTON_UP),
; 1149 : 		UI_ATTR_FUNCTION (notify_modem_cancel_function),
; 1150 : 		UI_ATTR_END
; 1151 : 	);
; 1152 : 
; 1153 : 	preprocess_translation_object_size (modem_cancel_button, NULL, NULL, 0, RESIZE_OPTION_FIXED_BUTTON);

  02ca4	6a 02		 push	 2
  02ca6	6a 00		 push	 0
  02ca8	6a 00		 push	 0
  02caa	6a 00		 push	 0
  02cac	a1 00 00 00 00	 mov	 eax, DWORD PTR ?modem_cancel_button@@3PAUUI_OBJECT@@A ; modem_cancel_button
  02cb1	50		 push	 eax
  02cb2	e8 00 00 00 00	 call	 ?preprocess_translation_object_size@@YGXPAUUI_OBJECT@@0PAPBDHW4RESIZE_UI_OBJECT_TYPES@@@Z ; preprocess_translation_object_size

; 1154 : 
; 1155 : 	// connection type area - keep at bottom of function so it is on top of other areas
; 1156 : 
; 1157 : 	j++;

  02cb7	8b 45 f8	 mov	 eax, DWORD PTR _j$[ebp]
  02cba	83 c0 01	 add	 eax, 1
  02cbd	89 45 f8	 mov	 DWORD PTR _j$[ebp], eax

; 1158 : 
; 1159 : 	change_array[j] = connection_type_bdrop = create_ui_object

  02cc0	6a 11		 push	 17			; 00000011H
  02cc2	a1 00 00 00 00	 mov	 eax, DWORD PTR ?options_box_extra_large@@3PAUTEXTURE_GRAPHIC@@A ; options_box_extra_large
  02cc7	50		 push	 eax
  02cc8	6a 4c		 push	 76			; 0000004cH
  02cca	68 ff 00 00 00	 push	 255			; 000000ffH
  02ccf	68 ff 00 00 00	 push	 255			; 000000ffH
  02cd4	68 ff 00 00 00	 push	 255			; 000000ffH
  02cd9	68 ff 00 00 00	 push	 255			; 000000ffH
  02cde	6a 0a		 push	 10			; 0000000aH
  02ce0	6a 00		 push	 0
  02ce2	68 ff 00 00 00	 push	 255			; 000000ffH
  02ce7	68 ff 00 00 00	 push	 255			; 000000ffH
  02cec	68 ff 00 00 00	 push	 255			; 000000ffH
  02cf1	6a 0b		 push	 11			; 0000000bH
  02cf3	83 ec 08	 sub	 esp, 8
  02cf6	f2 0f 10 05 00
	00 00 00	 movsd	 xmm0, QWORD PTR __real@3ff0000000000000
  02cfe	f2 0f 11 04 24	 movsd	 QWORD PTR [esp], xmm0
  02d03	83 ec 08	 sub	 esp, 8
  02d06	f2 0f 10 05 00
	00 00 00	 movsd	 xmm0, QWORD PTR __real@3fdcccccc0000000
  02d0e	f2 0f 11 04 24	 movsd	 QWORD PTR [esp], xmm0
  02d13	6a 59		 push	 89			; 00000059H
  02d15	83 ec 08	 sub	 esp, 8
  02d18	0f 57 c0	 xorps	 xmm0, xmm0
  02d1b	f2 0f 11 04 24	 movsd	 QWORD PTR [esp], xmm0
  02d20	8b 4d f8	 mov	 ecx, DWORD PTR _j$[ebp]
  02d23	8b 94 8d 24 ff
	ff ff		 mov	 edx, DWORD PTR _title_change_array$[ebp+ecx*4]
  02d2a	52		 push	 edx
  02d2b	8b 45 f8	 mov	 eax, DWORD PTR _j$[ebp]
  02d2e	8b 8c 85 24 ff
	ff ff		 mov	 ecx, DWORD PTR _title_change_array$[ebp+eax*4]
  02d35	8b 11		 mov	 edx, DWORD PTR [ecx]
  02d37	8b 04 95 00 00
	00 00		 mov	 eax, DWORD PTR ?fn_get_ui_object_x_end@@3PAP6GMPAUUI_OBJECT@@@ZA[edx*4]
  02d3e	ff d0		 call	 eax
  02d40	d9 9d 80 fe ff
	ff		 fstp	 DWORD PTR tv3953[ebp]
  02d46	f3 0f 10 85 80
	fe ff ff	 movss	 xmm0, DWORD PTR tv3953[ebp]
  02d4e	8b 4d f8	 mov	 ecx, DWORD PTR _j$[ebp]
  02d51	8b 94 8d 24 ff
	ff ff		 mov	 edx, DWORD PTR _title_change_array$[ebp+ecx*4]
  02d58	52		 push	 edx
  02d59	8b 45 f8	 mov	 eax, DWORD PTR _j$[ebp]
  02d5c	8b 8c 85 24 ff
	ff ff		 mov	 ecx, DWORD PTR _title_change_array$[ebp+eax*4]
  02d63	8b 11		 mov	 edx, DWORD PTR [ecx]
  02d65	8b 04 95 00 00
	00 00		 mov	 eax, DWORD PTR ?fn_get_ui_object_x_size_end@@3PAP6GMPAUUI_OBJECT@@@ZA[edx*4]
  02d6c	f3 0f 11 85 7c
	fe ff ff	 movss	 DWORD PTR tv4147[ebp], xmm0
  02d74	ff d0		 call	 eax
  02d76	d9 9d 78 fe ff
	ff		 fstp	 DWORD PTR tv3961[ebp]
  02d7c	f3 0f 10 85 7c
	fe ff ff	 movss	 xmm0, DWORD PTR tv4147[ebp]
  02d84	f3 0f 58 85 78
	fe ff ff	 addss	 xmm0, DWORD PTR tv3961[ebp]
  02d8c	f3 0f 58 05 00
	00 00 00	 addss	 xmm0, DWORD PTR __real@3b2a64c3
  02d94	f3 0f 5a c0	 cvtss2sd xmm0, xmm0
  02d98	83 ec 08	 sub	 esp, 8
  02d9b	f2 0f 11 04 24	 movsd	 QWORD PTR [esp], xmm0
  02da0	6a 58		 push	 88			; 00000058H
  02da2	8b 0d 00 00 00
	00		 mov	 ecx, DWORD PTR ?connection_type_area@@3PAUUI_OBJECT@@A ; connection_type_area
  02da8	51		 push	 ecx
  02da9	6a 32		 push	 50			; 00000032H
  02dab	6a 01		 push	 1
  02dad	e8 00 00 00 00	 call	 ?create_ui_object@@YAPAUUI_OBJECT@@HZZ ; create_ui_object
  02db2	83 c4 68	 add	 esp, 104		; 00000068H
  02db5	a3 00 00 00 00	 mov	 DWORD PTR ?connection_type_bdrop@@3PAUUI_OBJECT@@A, eax ; connection_type_bdrop
  02dba	8b 55 f8	 mov	 edx, DWORD PTR _j$[ebp]
  02dbd	a1 00 00 00 00	 mov	 eax, DWORD PTR ?connection_type_bdrop@@3PAUUI_OBJECT@@A ; connection_type_bdrop
  02dc2	89 84 95 c4 fe
	ff ff		 mov	 DWORD PTR _change_array$[ebp+edx*4], eax

; 1160 : 	(
; 1161 : 		UI_TYPE_AREA,
; 1162 : 		UI_ATTR_PARENT (connection_type_area),
; 1163 : 		UI_ATTR_VIRTUAL_POSITION ((get_ui_object_x_end (title_change_array [j]) + get_ui_object_x_size_end (title_change_array [j]) + OPTION_BOX_GAP_WIDTH), 0.0),
; 1164 : 		UI_ATTR_VIRTUAL_SIZE (OPTION_BOX_EXTRA_LARGE_WIDTH, OPTION_BOX_HEIGHT),
; 1165 : 		UI_ATTR_COLOUR_START (255,255,255,0),
; 1166 : 		UI_ATTR_COLOUR_END ( 255, 255, 255, 255 ),
; 1167 : 		UI_ATTR_TEXTURE_GRAPHIC (options_box_extra_large),
; 1168 : 		UI_ATTR_END
; 1169 : 	);
; 1170 : 
; 1171 :    connection_type_button = create_ui_object

  02dc9	6a 11		 push	 17			; 00000011H
  02dcb	68 00 00 00 00	 push	 OFFSET ?notify_connection_type_button@@YGXPAUUI_OBJECT@@PAX@Z ; notify_connection_type_button
  02dd0	6a 16		 push	 22			; 00000016H
  02dd2	6a 01		 push	 1
  02dd4	6a 2f		 push	 47			; 0000002fH
  02dd6	6a 01		 push	 1
  02dd8	6a 07		 push	 7
  02dda	6a 01		 push	 1
  02ddc	6a 1b		 push	 27			; 0000001bH
  02dde	68 ff 00 00 00	 push	 255			; 000000ffH
  02de3	0f b6 05 00 00
	00 00		 movzx	 eax, BYTE PTR ?ui_option_text_hilite_colour@@3UREAL_COLOUR@@A
  02dea	50		 push	 eax
  02deb	0f b6 0d 01 00
	00 00		 movzx	 ecx, BYTE PTR ?ui_option_text_hilite_colour@@3UREAL_COLOUR@@A+1
  02df2	51		 push	 ecx
  02df3	0f b6 15 02 00
	00 00		 movzx	 edx, BYTE PTR ?ui_option_text_hilite_colour@@3UREAL_COLOUR@@A+2
  02dfa	52		 push	 edx
  02dfb	6a 22		 push	 34			; 00000022H
  02dfd	6a 00		 push	 0
  02dff	0f b6 05 00 00
	00 00		 movzx	 eax, BYTE PTR ?ui_option_text_hilite_colour@@3UREAL_COLOUR@@A
  02e06	50		 push	 eax
  02e07	0f b6 0d 01 00
	00 00		 movzx	 ecx, BYTE PTR ?ui_option_text_hilite_colour@@3UREAL_COLOUR@@A+1
  02e0e	51		 push	 ecx
  02e0f	0f b6 15 02 00
	00 00		 movzx	 edx, BYTE PTR ?ui_option_text_hilite_colour@@3UREAL_COLOUR@@A+2
  02e16	52		 push	 edx
  02e17	6a 23		 push	 35			; 00000023H
  02e19	68 ff 00 00 00	 push	 255			; 000000ffH
  02e1e	0f b6 05 00 00
	00 00		 movzx	 eax, BYTE PTR ?ui_option_text_default_colour@@3UREAL_COLOUR@@A
  02e25	50		 push	 eax
  02e26	0f b6 0d 01 00
	00 00		 movzx	 ecx, BYTE PTR ?ui_option_text_default_colour@@3UREAL_COLOUR@@A+1
  02e2d	51		 push	 ecx
  02e2e	0f b6 15 02 00
	00 00		 movzx	 edx, BYTE PTR ?ui_option_text_default_colour@@3UREAL_COLOUR@@A+2
  02e35	52		 push	 edx
  02e36	6a 14		 push	 20			; 00000014H
  02e38	6a 00		 push	 0
  02e3a	0f b6 05 00 00
	00 00		 movzx	 eax, BYTE PTR ?ui_option_text_default_colour@@3UREAL_COLOUR@@A
  02e41	50		 push	 eax
  02e42	0f b6 0d 01 00
	00 00		 movzx	 ecx, BYTE PTR ?ui_option_text_default_colour@@3UREAL_COLOUR@@A+1
  02e49	51		 push	 ecx
  02e4a	0f b6 15 02 00
	00 00		 movzx	 edx, BYTE PTR ?ui_option_text_default_colour@@3UREAL_COLOUR@@A+2
  02e51	52		 push	 edx
  02e52	6a 15		 push	 21			; 00000015H
  02e54	68 00 00 00 00	 push	 OFFSET ??_C@_00CNPNBAHC@@
  02e59	6a 4a		 push	 74			; 0000004aH
  02e5b	6a 01		 push	 1
  02e5d	6a 4b		 push	 75			; 0000004bH
  02e5f	83 ec 08	 sub	 esp, 8
  02e62	f2 0f 10 05 00
	00 00 00	 movsd	 xmm0, QWORD PTR __real@3fc24dd300000000
  02e6a	f2 0f 11 04 24	 movsd	 QWORD PTR [esp], xmm0
  02e6f	8b 45 f8	 mov	 eax, DWORD PTR _j$[ebp]
  02e72	8b 8c 85 c4 fe
	ff ff		 mov	 ecx, DWORD PTR _change_array$[ebp+eax*4]
  02e79	51		 push	 ecx
  02e7a	8b 55 f8	 mov	 edx, DWORD PTR _j$[ebp]
  02e7d	8b 84 95 c4 fe
	ff ff		 mov	 eax, DWORD PTR _change_array$[ebp+edx*4]
  02e84	8b 08		 mov	 ecx, DWORD PTR [eax]
  02e86	8b 14 8d 00 00
	00 00		 mov	 edx, DWORD PTR ?fn_get_ui_object_x_end@@3PAP6GMPAUUI_OBJECT@@@ZA[ecx*4]
  02e8d	ff d2		 call	 edx
  02e8f	d9 9d 80 fe ff
	ff		 fstp	 DWORD PTR tv3981[ebp]
  02e95	f3 0f 10 85 80
	fe ff ff	 movss	 xmm0, DWORD PTR tv3981[ebp]
  02e9d	f3 0f 58 05 00
	00 00 00	 addss	 xmm0, DWORD PTR __real@3c03126f
  02ea5	f3 0f 5a c0	 cvtss2sd xmm0, xmm0
  02ea9	83 ec 08	 sub	 esp, 8
  02eac	f2 0f 11 04 24	 movsd	 QWORD PTR [esp], xmm0
  02eb1	6a 58		 push	 88			; 00000058H
  02eb3	6a 08		 push	 8
  02eb5	6a 12		 push	 18			; 00000012H
  02eb7	a1 00 00 00 00	 mov	 eax, DWORD PTR ?connection_type_area@@3PAUUI_OBJECT@@A ; connection_type_area
  02ebc	50		 push	 eax
  02ebd	6a 32		 push	 50			; 00000032H
  02ebf	6a 05		 push	 5
  02ec1	e8 00 00 00 00	 call	 ?create_ui_object@@YAPAUUI_OBJECT@@HZZ ; create_ui_object
  02ec6	81 c4 ac 00 00
	00		 add	 esp, 172		; 000000acH
  02ecc	a3 00 00 00 00	 mov	 DWORD PTR ?connection_type_button@@3PAUUI_OBJECT@@A, eax ; connection_type_button

; 1172 : 	(
; 1173 : 		UI_TYPE_TEXT,
; 1174 : 		UI_ATTR_PARENT (connection_type_area),
; 1175 : 		UI_ATTR_FONT_TYPE (UI_FONT_THICK_ITALIC_ARIAL_18),
; 1176 : 		UI_ATTR_VIRTUAL_POSITION (get_ui_object_x_end (change_array [j]) + OPTION_BUTTON_TEXT_OFFSET_X, OPTION_BOX_TEXT_OFFSET_Y),
; 1177 : 		UI_ATTR_TEXT_JUSTIFY (TEXT_JUSTIFY_LEFT_CENTRE),
; 1178 : 		UI_ATTR_TEXT (""),
; 1179 :       UI_ATTR_FONT_COLOUR_START (ui_option_text_default_colour.r, ui_option_text_default_colour.g, ui_option_text_default_colour.b, 0),
; 1180 :       UI_ATTR_FONT_COLOUR_END (ui_option_text_default_colour.r, ui_option_text_default_colour.g, ui_option_text_default_colour.b, 255),
; 1181 :       UI_ATTR_HIGHLIGHTED_FONT_COLOUR_START (ui_option_text_hilite_colour.r, ui_option_text_hilite_colour.g, ui_option_text_hilite_colour.b, 0),
; 1182 :       UI_ATTR_HIGHLIGHTED_FONT_COLOUR_END (ui_option_text_hilite_colour.r, ui_option_text_hilite_colour.g, ui_option_text_hilite_colour.b, 255),
; 1183 : 		UI_ATTR_HIGHLIGHTABLE (TRUE),
; 1184 : 		UI_ATTR_CLEAR (TRUE),
; 1185 : 		UI_ATTR_NOTIFY_ON (NOTIFY_TYPE_BUTTON_UP),
; 1186 : 		UI_ATTR_FUNCTION (notify_connection_type_button),
; 1187 : 		UI_ATTR_END
; 1188 : 	);
; 1189 : 
; 1190 : 	// Modem status text
; 1191 : 
; 1192 : 	x1 = get_ui_object_x_end (title_change_array[0]);

  02ed1	b8 04 00 00 00	 mov	 eax, 4
  02ed6	6b c8 00	 imul	 ecx, eax, 0
  02ed9	8b 94 0d 24 ff
	ff ff		 mov	 edx, DWORD PTR _title_change_array$[ebp+ecx]
  02ee0	52		 push	 edx
  02ee1	b8 04 00 00 00	 mov	 eax, 4
  02ee6	6b c8 00	 imul	 ecx, eax, 0
  02ee9	8b 94 0d 24 ff
	ff ff		 mov	 edx, DWORD PTR _title_change_array$[ebp+ecx]
  02ef0	8b 02		 mov	 eax, DWORD PTR [edx]
  02ef2	8b 0c 85 00 00
	00 00		 mov	 ecx, DWORD PTR ?fn_get_ui_object_x_end@@3PAP6GMPAUUI_OBJECT@@@ZA[eax*4]
  02ef9	ff d1		 call	 ecx
  02efb	d9 5d f0	 fstp	 DWORD PTR _x1$[ebp]

; 1193 : 	y1 = get_ui_object_y_end (modem_call_buttons_area);

  02efe	a1 00 00 00 00	 mov	 eax, DWORD PTR ?modem_call_buttons_area@@3PAUUI_OBJECT@@A ; modem_call_buttons_area
  02f03	50		 push	 eax
  02f04	8b 0d 00 00 00
	00		 mov	 ecx, DWORD PTR ?modem_call_buttons_area@@3PAUUI_OBJECT@@A ; modem_call_buttons_area
  02f0a	8b 11		 mov	 edx, DWORD PTR [ecx]
  02f0c	8b 04 95 00 00
	00 00		 mov	 eax, DWORD PTR ?fn_get_ui_object_y_end@@3PAP6GMPAUUI_OBJECT@@@ZA[edx*4]
  02f13	ff d0		 call	 eax
  02f15	d9 5d ec	 fstp	 DWORD PTR _y1$[ebp]

; 1194 : 	y1 += OPTION_AREA_OFFSET_Y;

  02f18	f3 0f 10 45 ec	 movss	 xmm0, DWORD PTR _y1$[ebp]
  02f1d	f3 0f 58 05 00
	00 00 00	 addss	 xmm0, DWORD PTR __real@3d7df3b6
  02f25	f3 0f 11 45 ec	 movss	 DWORD PTR _y1$[ebp], xmm0

; 1195 : 
; 1196 : 	j++;

  02f2a	8b 45 f8	 mov	 eax, DWORD PTR _j$[ebp]
  02f2d	83 c0 01	 add	 eax, 1
  02f30	89 45 f8	 mov	 DWORD PTR _j$[ebp], eax

; 1197 : 
; 1198 : 	change_array[j] = modem_status_text = create_ui_object

  02f33	6a 11		 push	 17			; 00000011H
  02f35	6a 01		 push	 1
  02f37	6a 07		 push	 7
  02f39	6a 00		 push	 0
  02f3b	6a 2f		 push	 47			; 0000002fH
  02f3d	68 ff 00 00 00	 push	 255			; 000000ffH
  02f42	0f b6 05 00 00
	00 00		 movzx	 eax, BYTE PTR ?ui_option_title_text_colour@@3UREAL_COLOUR@@A
  02f49	50		 push	 eax
  02f4a	0f b6 0d 01 00
	00 00		 movzx	 ecx, BYTE PTR ?ui_option_title_text_colour@@3UREAL_COLOUR@@A+1
  02f51	51		 push	 ecx
  02f52	0f b6 15 02 00
	00 00		 movzx	 edx, BYTE PTR ?ui_option_title_text_colour@@3UREAL_COLOUR@@A+2
  02f59	52		 push	 edx
  02f5a	6a 14		 push	 20			; 00000014H
  02f5c	6a 00		 push	 0
  02f5e	0f b6 05 00 00
	00 00		 movzx	 eax, BYTE PTR ?ui_option_title_text_colour@@3UREAL_COLOUR@@A
  02f65	50		 push	 eax
  02f66	0f b6 0d 01 00
	00 00		 movzx	 ecx, BYTE PTR ?ui_option_title_text_colour@@3UREAL_COLOUR@@A+1
  02f6d	51		 push	 ecx
  02f6e	0f b6 15 02 00
	00 00		 movzx	 edx, BYTE PTR ?ui_option_title_text_colour@@3UREAL_COLOUR@@A+2
  02f75	52		 push	 edx
  02f76	6a 15		 push	 21			; 00000015H
  02f78	6a 06		 push	 6
  02f7a	6a 12		 push	 18			; 00000012H
  02f7c	68 00 00 00 00	 push	 OFFSET ??_C@_00CNPNBAHC@@
  02f81	6a 4a		 push	 74			; 0000004aH
  02f83	83 ec 08	 sub	 esp, 8
  02f86	f2 0f 10 05 00
	00 00 00	 movsd	 xmm0, QWORD PTR __real@3ff0000000000000
  02f8e	f2 0f 11 04 24	 movsd	 QWORD PTR [esp], xmm0
  02f93	83 ec 08	 sub	 esp, 8
  02f96	f2 0f 10 05 00
	00 00 00	 movsd	 xmm0, QWORD PTR __real@3fd3126ea0000000
  02f9e	f2 0f 11 04 24	 movsd	 QWORD PTR [esp], xmm0
  02fa3	6a 59		 push	 89			; 00000059H
  02fa5	f3 0f 5a 45 ec	 cvtss2sd xmm0, DWORD PTR _y1$[ebp]
  02faa	83 ec 08	 sub	 esp, 8
  02fad	f2 0f 11 04 24	 movsd	 QWORD PTR [esp], xmm0
  02fb2	f3 0f 5a 45 f0	 cvtss2sd xmm0, DWORD PTR _x1$[ebp]
  02fb7	83 ec 08	 sub	 esp, 8
  02fba	f2 0f 11 04 24	 movsd	 QWORD PTR [esp], xmm0
  02fbf	6a 58		 push	 88			; 00000058H
  02fc1	a1 00 00 00 00	 mov	 eax, DWORD PTR ?modem_parameters_area@@3PAUUI_OBJECT@@A ; modem_parameters_area
  02fc6	50		 push	 eax
  02fc7	6a 32		 push	 50			; 00000032H
  02fc9	6a 05		 push	 5
  02fcb	e8 00 00 00 00	 call	 ?create_ui_object@@YAPAUUI_OBJECT@@HZZ ; create_ui_object
  02fd0	81 c4 80 00 00
	00		 add	 esp, 128		; 00000080H
  02fd6	a3 00 00 00 00	 mov	 DWORD PTR ?modem_status_text@@3PAUUI_OBJECT@@A, eax ; modem_status_text
  02fdb	8b 4d f8	 mov	 ecx, DWORD PTR _j$[ebp]
  02fde	8b 15 00 00 00
	00		 mov	 edx, DWORD PTR ?modem_status_text@@3PAUUI_OBJECT@@A ; modem_status_text
  02fe4	89 94 8d c4 fe
	ff ff		 mov	 DWORD PTR _change_array$[ebp+ecx*4], edx

; 1199 : 								(
; 1200 : 									UI_TYPE_TEXT,
; 1201 : 									UI_ATTR_PARENT (modem_parameters_area),
; 1202 : 									UI_ATTR_VIRTUAL_POSITION (x1, y1),
; 1203 : 									UI_ATTR_VIRTUAL_SIZE (OPTION_BOX_WIDTH, OPTION_BOX_HEIGHT),
; 1204 : 									UI_ATTR_TEXT (""),
; 1205 : 									UI_ATTR_FONT_TYPE (UI_FONT_THICK_ARIAL_18),
; 1206 :       							UI_ATTR_FONT_COLOUR_START (ui_option_title_text_colour.r, ui_option_title_text_colour.g, ui_option_title_text_colour.b, 0),
; 1207 :       							UI_ATTR_FONT_COLOUR_END (ui_option_title_text_colour.r, ui_option_title_text_colour.g, ui_option_title_text_colour.b, 255),
; 1208 : 									UI_ATTR_NOTIFY_ON (NOTIFY_TYPE_NONE),
; 1209 : 									UI_ATTR_CLEAR (TRUE),
; 1210 : 									UI_ATTR_END
; 1211 : 								);
; 1212 : 
; 1213 : 	/////////////////////////////////////////////////////////////////
; 1214 : 	// Objects for input of IP address
; 1215 : 	//
; 1216 : 
; 1217 : 	j++;

  02feb	8b 45 f8	 mov	 eax, DWORD PTR _j$[ebp]
  02fee	83 c0 01	 add	 eax, 1
  02ff1	89 45 f8	 mov	 DWORD PTR _j$[ebp], eax

; 1218 : 
; 1219 : 	change_array[j] = ip_address_text_area = create_ui_object

  02ff4	6a 11		 push	 17			; 00000011H
  02ff6	a1 00 00 00 00	 mov	 eax, DWORD PTR ?options_box_large@@3PAUTEXTURE_GRAPHIC@@A ; options_box_large
  02ffb	50		 push	 eax
  02ffc	6a 4c		 push	 76			; 0000004cH
  02ffe	68 ff 00 00 00	 push	 255			; 000000ffH
  03003	68 ff 00 00 00	 push	 255			; 000000ffH
  03008	68 ff 00 00 00	 push	 255			; 000000ffH
  0300d	68 ff 00 00 00	 push	 255			; 000000ffH
  03012	6a 0a		 push	 10			; 0000000aH
  03014	6a 00		 push	 0
  03016	68 ff 00 00 00	 push	 255			; 000000ffH
  0301b	68 ff 00 00 00	 push	 255			; 000000ffH
  03020	68 ff 00 00 00	 push	 255			; 000000ffH
  03025	6a 0b		 push	 11			; 0000000bH
  03027	83 ec 08	 sub	 esp, 8
  0302a	f2 0f 10 05 00
	00 00 00	 movsd	 xmm0, QWORD PTR __real@3ff0000000000000
  03032	f2 0f 11 04 24	 movsd	 QWORD PTR [esp], xmm0
  03037	83 ec 08	 sub	 esp, 8
  0303a	f2 0f 10 05 00
	00 00 00	 movsd	 xmm0, QWORD PTR __real@3fd3126ea0000000
  03042	f2 0f 11 04 24	 movsd	 QWORD PTR [esp], xmm0
  03047	6a 59		 push	 89			; 00000059H
  03049	83 ec 08	 sub	 esp, 8
  0304c	0f 57 c0	 xorps	 xmm0, xmm0
  0304f	f2 0f 11 04 24	 movsd	 QWORD PTR [esp], xmm0
  03054	8b 4d f8	 mov	 ecx, DWORD PTR _j$[ebp]
  03057	8b 94 8d 1c ff
	ff ff		 mov	 edx, DWORD PTR _title_change_array$[ebp+ecx*4-8]
  0305e	52		 push	 edx
  0305f	8b 45 f8	 mov	 eax, DWORD PTR _j$[ebp]
  03062	8b 8c 85 1c ff
	ff ff		 mov	 ecx, DWORD PTR _title_change_array$[ebp+eax*4-8]
  03069	8b 11		 mov	 edx, DWORD PTR [ecx]
  0306b	8b 04 95 00 00
	00 00		 mov	 eax, DWORD PTR ?fn_get_ui_object_x_end@@3PAP6GMPAUUI_OBJECT@@@ZA[edx*4]
  03072	ff d0		 call	 eax
  03074	d9 9d 80 fe ff
	ff		 fstp	 DWORD PTR tv4018[ebp]
  0307a	f3 0f 10 85 80
	fe ff ff	 movss	 xmm0, DWORD PTR tv4018[ebp]
  03082	8b 4d f8	 mov	 ecx, DWORD PTR _j$[ebp]
  03085	8b 94 8d 1c ff
	ff ff		 mov	 edx, DWORD PTR _title_change_array$[ebp+ecx*4-8]
  0308c	52		 push	 edx
  0308d	8b 45 f8	 mov	 eax, DWORD PTR _j$[ebp]
  03090	8b 8c 85 1c ff
	ff ff		 mov	 ecx, DWORD PTR _title_change_array$[ebp+eax*4-8]
  03097	8b 11		 mov	 edx, DWORD PTR [ecx]
  03099	8b 04 95 00 00
	00 00		 mov	 eax, DWORD PTR ?fn_get_ui_object_x_size_end@@3PAP6GMPAUUI_OBJECT@@@ZA[edx*4]
  030a0	f3 0f 11 85 7c
	fe ff ff	 movss	 DWORD PTR tv4149[ebp], xmm0
  030a8	ff d0		 call	 eax
  030aa	d9 9d 78 fe ff
	ff		 fstp	 DWORD PTR tv4026[ebp]
  030b0	f3 0f 10 85 7c
	fe ff ff	 movss	 xmm0, DWORD PTR tv4149[ebp]
  030b8	f3 0f 58 85 78
	fe ff ff	 addss	 xmm0, DWORD PTR tv4026[ebp]
  030c0	f3 0f 58 05 00
	00 00 00	 addss	 xmm0, DWORD PTR __real@3b2a64c3
  030c8	f3 0f 5a c0	 cvtss2sd xmm0, xmm0
  030cc	83 ec 08	 sub	 esp, 8
  030cf	f2 0f 11 04 24	 movsd	 QWORD PTR [esp], xmm0
  030d4	6a 58		 push	 88			; 00000058H
  030d6	8b 0d 00 00 00
	00		 mov	 ecx, DWORD PTR ?tcpip_parameters_area@@3PAUUI_OBJECT@@A ; tcpip_parameters_area
  030dc	51		 push	 ecx
  030dd	6a 32		 push	 50			; 00000032H
  030df	6a 01		 push	 1
  030e1	e8 00 00 00 00	 call	 ?create_ui_object@@YAPAUUI_OBJECT@@HZZ ; create_ui_object
  030e6	83 c4 68	 add	 esp, 104		; 00000068H
  030e9	a3 00 00 00 00	 mov	 DWORD PTR ?ip_address_text_area@@3PAUUI_OBJECT@@A, eax ; ip_address_text_area
  030ee	8b 55 f8	 mov	 edx, DWORD PTR _j$[ebp]
  030f1	a1 00 00 00 00	 mov	 eax, DWORD PTR ?ip_address_text_area@@3PAUUI_OBJECT@@A ; ip_address_text_area
  030f6	89 84 95 c4 fe
	ff ff		 mov	 DWORD PTR _change_array$[ebp+edx*4], eax

; 1220 : 	(
; 1221 : 		UI_TYPE_AREA,
; 1222 : 		UI_ATTR_PARENT (tcpip_parameters_area),
; 1223 : 		UI_ATTR_VIRTUAL_POSITION ((get_ui_object_x_end (title_change_array [j-2]) + get_ui_object_x_size_end (title_change_array [j-2]) + OPTION_BOX_GAP_WIDTH), 0.0),
; 1224 : 		UI_ATTR_VIRTUAL_SIZE (OPTION_BOX_LARGE_WIDTH, OPTION_BOX_HEIGHT),
; 1225 : 		UI_ATTR_COLOUR_START (255,255,255, 0),
; 1226 : 		UI_ATTR_COLOUR_END (255, 255, 255, 255),
; 1227 : 		UI_ATTR_TEXTURE_GRAPHIC (options_box_large),
; 1228 : 		UI_ATTR_END
; 1229 : 	);
; 1230 : 
; 1231 : 	// Actual text
; 1232 : 
; 1233 :    ip_address_text_obj = create_ui_object

  030fd	6a 11		 push	 17			; 00000011H
  030ff	68 00 00 00 00	 push	 OFFSET ?get_text_input@@YGXPAUUI_OBJECT@@PAX@Z ; get_text_input
  03104	6a 16		 push	 22			; 00000016H
  03106	6a 01		 push	 1
  03108	6a 2f		 push	 47			; 0000002fH
  0310a	6a 01		 push	 1
  0310c	6a 07		 push	 7
  0310e	6a 01		 push	 1
  03110	6a 1b		 push	 27			; 0000001bH
  03112	68 94 00 00 00	 push	 OFFSET ?global_options@@3UGLOBAL_OPTIONS_DATA@@A+148
  03117	6a 4a		 push	 74			; 0000004aH
  03119	6a 08		 push	 8
  0311b	6a 12		 push	 18			; 00000012H
  0311d	68 ff 00 00 00	 push	 255			; 000000ffH
  03122	0f b6 05 00 00
	00 00		 movzx	 eax, BYTE PTR ?ui_option_text_hilite_colour@@3UREAL_COLOUR@@A
  03129	50		 push	 eax
  0312a	0f b6 0d 01 00
	00 00		 movzx	 ecx, BYTE PTR ?ui_option_text_hilite_colour@@3UREAL_COLOUR@@A+1
  03131	51		 push	 ecx
  03132	0f b6 15 02 00
	00 00		 movzx	 edx, BYTE PTR ?ui_option_text_hilite_colour@@3UREAL_COLOUR@@A+2
  03139	52		 push	 edx
  0313a	6a 22		 push	 34			; 00000022H
  0313c	6a 00		 push	 0
  0313e	0f b6 05 00 00
	00 00		 movzx	 eax, BYTE PTR ?ui_option_text_hilite_colour@@3UREAL_COLOUR@@A
  03145	50		 push	 eax
  03146	0f b6 0d 01 00
	00 00		 movzx	 ecx, BYTE PTR ?ui_option_text_hilite_colour@@3UREAL_COLOUR@@A+1
  0314d	51		 push	 ecx
  0314e	0f b6 15 02 00
	00 00		 movzx	 edx, BYTE PTR ?ui_option_text_hilite_colour@@3UREAL_COLOUR@@A+2
  03155	52		 push	 edx
  03156	6a 23		 push	 35			; 00000023H
  03158	68 ff 00 00 00	 push	 255			; 000000ffH
  0315d	0f b6 05 00 00
	00 00		 movzx	 eax, BYTE PTR ?ui_option_text_default_colour@@3UREAL_COLOUR@@A
  03164	50		 push	 eax
  03165	0f b6 0d 01 00
	00 00		 movzx	 ecx, BYTE PTR ?ui_option_text_default_colour@@3UREAL_COLOUR@@A+1
  0316c	51		 push	 ecx
  0316d	0f b6 15 02 00
	00 00		 movzx	 edx, BYTE PTR ?ui_option_text_default_colour@@3UREAL_COLOUR@@A+2
  03174	52		 push	 edx
  03175	6a 14		 push	 20			; 00000014H
  03177	6a 00		 push	 0
  03179	0f b6 05 00 00
	00 00		 movzx	 eax, BYTE PTR ?ui_option_text_default_colour@@3UREAL_COLOUR@@A
  03180	50		 push	 eax
  03181	0f b6 0d 01 00
	00 00		 movzx	 ecx, BYTE PTR ?ui_option_text_default_colour@@3UREAL_COLOUR@@A+1
  03188	51		 push	 ecx
  03189	0f b6 15 02 00
	00 00		 movzx	 edx, BYTE PTR ?ui_option_text_default_colour@@3UREAL_COLOUR@@A+2
  03190	52		 push	 edx
  03191	6a 15		 push	 21			; 00000015H
  03193	6a 01		 push	 1
  03195	6a 4b		 push	 75			; 0000004bH
  03197	83 ec 08	 sub	 esp, 8
  0319a	f2 0f 10 05 00
	00 00 00	 movsd	 xmm0, QWORD PTR __real@3ff0000000000000
  031a2	f2 0f 11 04 24	 movsd	 QWORD PTR [esp], xmm0
  031a7	83 ec 08	 sub	 esp, 8
  031aa	f2 0f 10 05 00
	00 00 00	 movsd	 xmm0, QWORD PTR __real@3ff0000000000000
  031b2	f2 0f 11 04 24	 movsd	 QWORD PTR [esp], xmm0
  031b7	6a 59		 push	 89			; 00000059H
  031b9	83 ec 08	 sub	 esp, 8
  031bc	0f 57 c0	 xorps	 xmm0, xmm0
  031bf	f2 0f 11 04 24	 movsd	 QWORD PTR [esp], xmm0
  031c4	8b 45 f8	 mov	 eax, DWORD PTR _j$[ebp]
  031c7	8b 8c 85 c4 fe
	ff ff		 mov	 ecx, DWORD PTR _change_array$[ebp+eax*4]
  031ce	51		 push	 ecx
  031cf	8b 55 f8	 mov	 edx, DWORD PTR _j$[ebp]
  031d2	8b 84 95 c4 fe
	ff ff		 mov	 eax, DWORD PTR _change_array$[ebp+edx*4]
  031d9	8b 08		 mov	 ecx, DWORD PTR [eax]
  031db	8b 14 8d 00 00
	00 00		 mov	 edx, DWORD PTR ?fn_get_ui_object_x_end@@3PAP6GMPAUUI_OBJECT@@@ZA[ecx*4]
  031e2	ff d2		 call	 edx
  031e4	d9 9d 80 fe ff
	ff		 fstp	 DWORD PTR tv4046[ebp]
  031ea	f3 0f 10 85 80
	fe ff ff	 movss	 xmm0, DWORD PTR tv4046[ebp]
  031f2	f3 0f 58 05 00
	00 00 00	 addss	 xmm0, DWORD PTR __real@3c03126f
  031fa	f3 0f 5a c0	 cvtss2sd xmm0, xmm0
  031fe	83 ec 08	 sub	 esp, 8
  03201	f2 0f 11 04 24	 movsd	 QWORD PTR [esp], xmm0
  03206	6a 58		 push	 88			; 00000058H
  03208	a1 00 00 00 00	 mov	 eax, DWORD PTR ?tcpip_parameters_area@@3PAUUI_OBJECT@@A ; tcpip_parameters_area
  0320d	50		 push	 eax
  0320e	6a 32		 push	 50			; 00000032H
  03210	6a 01		 push	 1
  03212	e8 00 00 00 00	 call	 ?create_ui_object@@YAPAUUI_OBJECT@@HZZ ; create_ui_object
  03217	81 c4 c0 00 00
	00		 add	 esp, 192		; 000000c0H
  0321d	a3 00 00 00 00	 mov	 DWORD PTR ?ip_address_text_obj@@3PAUUI_OBJECT@@A, eax ; ip_address_text_obj

; 1234 : 									(
; 1235 : 										UI_TYPE_AREA,
; 1236 : 										UI_ATTR_PARENT (tcpip_parameters_area),
; 1237 : 										UI_ATTR_VIRTUAL_POSITION ((get_ui_object_x_end (change_array [j]) + OPTION_BUTTON_TEXT_OFFSET_X), 0.0),
; 1238 : 										UI_ATTR_VIRTUAL_SIZE (1.0, 1.0),
; 1239 : 										UI_ATTR_TEXT_JUSTIFY (TEXT_JUSTIFY_LEFT_CENTRE),
; 1240 :       								UI_ATTR_FONT_COLOUR_START (ui_option_text_default_colour.r, ui_option_text_default_colour.g, ui_option_text_default_colour.b, 0),
; 1241 :       								UI_ATTR_FONT_COLOUR_END (ui_option_text_default_colour.r, ui_option_text_default_colour.g, ui_option_text_default_colour.b, 255),
; 1242 :       								UI_ATTR_HIGHLIGHTED_FONT_COLOUR_START (ui_option_text_hilite_colour.r, ui_option_text_hilite_colour.g, ui_option_text_hilite_colour.b, 0),
; 1243 :       								UI_ATTR_HIGHLIGHTED_FONT_COLOUR_END (ui_option_text_hilite_colour.r, ui_option_text_hilite_colour.g, ui_option_text_hilite_colour.b, 255),
; 1244 : 										UI_ATTR_FONT_TYPE (UI_FONT_THICK_ITALIC_ARIAL_18),
; 1245 : 										UI_ATTR_TEXT (global_options.ip_address),
; 1246 : 										UI_ATTR_HIGHLIGHTABLE (TRUE),
; 1247 : 										UI_ATTR_CLEAR (TRUE),
; 1248 : 										UI_ATTR_NOTIFY_ON (NOTIFY_TYPE_BUTTON_UP),
; 1249 : 										UI_ATTR_FUNCTION (get_text_input),
; 1250 : 										UI_ATTR_END
; 1251 : 									);
; 1252 : 
; 1253 : 	// Text input
; 1254 : 
; 1255 : 	ip_address_text_input = create_ui_object

  03222	6a 11		 push	 17			; 00000011H
  03224	68 00 00 00 00	 push	 OFFSET ?multi_text_input_function@@YGXPAUUI_OBJECT@@PAX@Z ; multi_text_input_function
  03229	6a 16		 push	 22			; 00000016H
  0322b	6a 00		 push	 0
  0322d	6a 49		 push	 73			; 00000049H
  0322f	68 ff 00 00 00	 push	 255			; 000000ffH
  03234	0f b6 05 00 00
	00 00		 movzx	 eax, BYTE PTR ?ui_option_text_hilite_colour@@3UREAL_COLOUR@@A
  0323b	50		 push	 eax
  0323c	0f b6 0d 01 00
	00 00		 movzx	 ecx, BYTE PTR ?ui_option_text_hilite_colour@@3UREAL_COLOUR@@A+1
  03243	51		 push	 ecx
  03244	0f b6 15 02 00
	00 00		 movzx	 edx, BYTE PTR ?ui_option_text_hilite_colour@@3UREAL_COLOUR@@A+2
  0324b	52		 push	 edx
  0324c	6a 22		 push	 34			; 00000022H
  0324e	6a 00		 push	 0
  03250	0f b6 05 00 00
	00 00		 movzx	 eax, BYTE PTR ?ui_option_text_hilite_colour@@3UREAL_COLOUR@@A
  03257	50		 push	 eax
  03258	0f b6 0d 01 00
	00 00		 movzx	 ecx, BYTE PTR ?ui_option_text_hilite_colour@@3UREAL_COLOUR@@A+1
  0325f	51		 push	 ecx
  03260	0f b6 15 02 00
	00 00		 movzx	 edx, BYTE PTR ?ui_option_text_hilite_colour@@3UREAL_COLOUR@@A+2
  03267	52		 push	 edx
  03268	6a 23		 push	 35			; 00000023H
  0326a	68 ff 00 00 00	 push	 255			; 000000ffH
  0326f	0f b6 05 00 00
	00 00		 movzx	 eax, BYTE PTR ?ui_option_text_default_colour@@3UREAL_COLOUR@@A
  03276	50		 push	 eax
  03277	0f b6 0d 01 00
	00 00		 movzx	 ecx, BYTE PTR ?ui_option_text_default_colour@@3UREAL_COLOUR@@A+1
  0327e	51		 push	 ecx
  0327f	0f b6 15 02 00
	00 00		 movzx	 edx, BYTE PTR ?ui_option_text_default_colour@@3UREAL_COLOUR@@A+2
  03286	52		 push	 edx
  03287	6a 14		 push	 20			; 00000014H
  03289	6a 00		 push	 0
  0328b	0f b6 05 00 00
	00 00		 movzx	 eax, BYTE PTR ?ui_option_text_default_colour@@3UREAL_COLOUR@@A
  03292	50		 push	 eax
  03293	0f b6 0d 01 00
	00 00		 movzx	 ecx, BYTE PTR ?ui_option_text_default_colour@@3UREAL_COLOUR@@A+1
  0329a	51		 push	 ecx
  0329b	0f b6 15 02 00
	00 00		 movzx	 edx, BYTE PTR ?ui_option_text_default_colour@@3UREAL_COLOUR@@A+2
  032a2	52		 push	 edx
  032a3	6a 15		 push	 21			; 00000015H
  032a5	6a 01		 push	 1
  032a7	6a 4b		 push	 75			; 0000004bH
  032a9	6a 08		 push	 8
  032ab	6a 12		 push	 18			; 00000012H
  032ad	83 ec 08	 sub	 esp, 8
  032b0	f2 0f 10 05 00
	00 00 00	 movsd	 xmm0, QWORD PTR __real@3ff0000000000000
  032b8	f2 0f 11 04 24	 movsd	 QWORD PTR [esp], xmm0
  032bd	83 ec 08	 sub	 esp, 8
  032c0	f2 0f 10 05 00
	00 00 00	 movsd	 xmm0, QWORD PTR __real@3ff0000000000000
  032c8	f2 0f 11 04 24	 movsd	 QWORD PTR [esp], xmm0
  032cd	6a 59		 push	 89			; 00000059H
  032cf	83 ec 08	 sub	 esp, 8
  032d2	f2 0f 10 05 00
	00 00 00	 movsd	 xmm0, QWORD PTR __real@3fc24dd300000000
  032da	f2 0f 11 04 24	 movsd	 QWORD PTR [esp], xmm0
  032df	8b 45 f8	 mov	 eax, DWORD PTR _j$[ebp]
  032e2	8b 8c 85 c4 fe
	ff ff		 mov	 ecx, DWORD PTR _change_array$[ebp+eax*4]
  032e9	51		 push	 ecx
  032ea	8b 55 f8	 mov	 edx, DWORD PTR _j$[ebp]
  032ed	8b 84 95 c4 fe
	ff ff		 mov	 eax, DWORD PTR _change_array$[ebp+edx*4]
  032f4	8b 08		 mov	 ecx, DWORD PTR [eax]
  032f6	8b 14 8d 00 00
	00 00		 mov	 edx, DWORD PTR ?fn_get_ui_object_x_end@@3PAP6GMPAUUI_OBJECT@@@ZA[ecx*4]
  032fd	ff d2		 call	 edx
  032ff	d9 9d 80 fe ff
	ff		 fstp	 DWORD PTR tv4063[ebp]
  03305	f3 0f 10 85 80
	fe ff ff	 movss	 xmm0, DWORD PTR tv4063[ebp]
  0330d	f3 0f 58 05 00
	00 00 00	 addss	 xmm0, DWORD PTR __real@3c03126f
  03315	f3 0f 5a c0	 cvtss2sd xmm0, xmm0
  03319	83 ec 08	 sub	 esp, 8
  0331c	f2 0f 11 04 24	 movsd	 QWORD PTR [esp], xmm0
  03321	6a 58		 push	 88			; 00000058H
  03323	a1 00 00 00 00	 mov	 eax, DWORD PTR ?tcpip_parameters_area@@3PAUUI_OBJECT@@A ; tcpip_parameters_area
  03328	50		 push	 eax
  03329	6a 32		 push	 50			; 00000032H
  0332b	6a 10		 push	 16			; 00000010H
  0332d	e8 00 00 00 00	 call	 ?create_ui_object@@YAPAUUI_OBJECT@@HZZ ; create_ui_object
  03332	81 c4 a8 00 00
	00		 add	 esp, 168		; 000000a8H
  03338	a3 00 00 00 00	 mov	 DWORD PTR ?ip_address_text_input@@3PAUUI_OBJECT@@A, eax ; ip_address_text_input

; 1256 : 									(
; 1257 : 										UI_TYPE_INPUT,
; 1258 : 										UI_ATTR_PARENT (tcpip_parameters_area),
; 1259 : 										UI_ATTR_VIRTUAL_POSITION ((get_ui_object_x_end (change_array [j]) + OPTION_BUTTON_TEXT_OFFSET_X), OPTION_BOX_TEXT_OFFSET_Y),
; 1260 : 										UI_ATTR_VIRTUAL_SIZE (1.0, 1.0),
; 1261 : 										UI_ATTR_FONT_TYPE (UI_FONT_THICK_ITALIC_ARIAL_18),
; 1262 : 										UI_ATTR_TEXT_JUSTIFY (TEXT_JUSTIFY_LEFT_CENTRE),
; 1263 :       								UI_ATTR_FONT_COLOUR_START (ui_option_text_default_colour.r, ui_option_text_default_colour.g, ui_option_text_default_colour.b, 0),
; 1264 : 	    								UI_ATTR_FONT_COLOUR_END (ui_option_text_default_colour.r, ui_option_text_default_colour.g, ui_option_text_default_colour.b, 255),
; 1265 : 										UI_ATTR_HIGHLIGHTED_FONT_COLOUR_START (ui_option_text_hilite_colour.r, ui_option_text_hilite_colour.g, ui_option_text_hilite_colour.b, 0),
; 1266 : 		  								UI_ATTR_HIGHLIGHTED_FONT_COLOUR_END (ui_option_text_hilite_colour.r, ui_option_text_hilite_colour.g, ui_option_text_hilite_colour.b, 255),
; 1267 : 										UI_ATTR_STATE (UI_OBJECT_STATE_OFF),
; 1268 : 										UI_ATTR_FUNCTION (multi_text_input_function),
; 1269 : 										UI_ATTR_END
; 1270 : 									);
; 1271 : 
; 1272 : 	set_limit_input_length (ip_address_text_input, FALSE);

  0333d	a1 00 00 00 00	 mov	 eax, DWORD PTR ?ip_address_text_input@@3PAUUI_OBJECT@@A ; ip_address_text_input
  03342	8b 48 04	 mov	 ecx, DWORD PTR [eax+4]
  03345	c7 81 e4 00 00
	00 00 00 00 00	 mov	 DWORD PTR [ecx+228], 0

; 1273 : 
; 1274 : 	set_ui_object_item_number ( ip_address_text_input, ( int ) ip_address_text_obj );

  0334f	a1 00 00 00 00	 mov	 eax, DWORD PTR ?ip_address_text_obj@@3PAUUI_OBJECT@@A ; ip_address_text_obj
  03354	50		 push	 eax
  03355	8b 0d 00 00 00
	00		 mov	 ecx, DWORD PTR ?ip_address_text_input@@3PAUUI_OBJECT@@A ; ip_address_text_input
  0335b	51		 push	 ecx
  0335c	8b 15 00 00 00
	00		 mov	 edx, DWORD PTR ?ip_address_text_input@@3PAUUI_OBJECT@@A ; ip_address_text_input
  03362	8b 02		 mov	 eax, DWORD PTR [edx]
  03364	8b 0c 85 00 00
	00 00		 mov	 ecx, DWORD PTR ?fn_set_ui_object_item_number@@3PAP6GXPAUUI_OBJECT@@H@ZA[eax*4]
  0336b	ff d1		 call	 ecx

; 1275 : 
; 1276 : 	set_ui_object_item_number ( ip_address_text_obj, ( int ) ip_address_text_input );

  0336d	a1 00 00 00 00	 mov	 eax, DWORD PTR ?ip_address_text_input@@3PAUUI_OBJECT@@A ; ip_address_text_input
  03372	50		 push	 eax
  03373	8b 0d 00 00 00
	00		 mov	 ecx, DWORD PTR ?ip_address_text_obj@@3PAUUI_OBJECT@@A ; ip_address_text_obj
  03379	51		 push	 ecx
  0337a	8b 15 00 00 00
	00		 mov	 edx, DWORD PTR ?ip_address_text_obj@@3PAUUI_OBJECT@@A ; ip_address_text_obj
  03380	8b 02		 mov	 eax, DWORD PTR [edx]
  03382	8b 0c 85 00 00
	00 00		 mov	 ecx, DWORD PTR ?fn_set_ui_object_item_number@@3PAP6GXPAUUI_OBJECT@@H@ZA[eax*4]
  03389	ff d1		 call	 ecx

; 1277 : 
; 1278 : 	// set object times
; 1279 : 
; 1280 : 	recursively_set_object_time (multi_player_setup_area, OPTIONS_BUTTON_AREA_FADE_TIME, OPTIONS_BUTTON_AREA_OFFSET_TIME);

  0338b	6a 00		 push	 0
  0338d	68 90 01 00 00	 push	 400			; 00000190H
  03392	a1 00 00 00 00	 mov	 eax, DWORD PTR ?multi_player_setup_area@@3PAUUI_OBJECT@@A ; multi_player_setup_area
  03397	50		 push	 eax
  03398	e8 00 00 00 00	 call	 ?recursively_set_object_time@@YGXPAUUI_OBJECT@@HH@Z ; recursively_set_object_time

; 1281 : 
; 1282 : 	// ghost multiplayer modem areas
; 1283 : 
; 1284 : 	x1 = 0.000;

  0339d	0f 57 c0	 xorps	 xmm0, xmm0
  033a0	f3 0f 11 45 f0	 movss	 DWORD PTR _x1$[ebp], xmm0

; 1285 : 	y1 = 0.250;

  033a5	f3 0f 10 05 00
	00 00 00	 movss	 xmm0, DWORD PTR __real@3e800000
  033ad	f3 0f 11 45 ec	 movss	 DWORD PTR _y1$[ebp], xmm0

; 1286 : 	x2 = 1.000;

  033b2	f3 0f 10 05 00
	00 00 00	 movss	 xmm0, DWORD PTR __real@3f800000
  033ba	f3 0f 11 45 e8	 movss	 DWORD PTR _x2$[ebp], xmm0

; 1287 : 	y2 = 0.250;

  033bf	f3 0f 10 05 00
	00 00 00	 movss	 xmm0, DWORD PTR __real@3e800000
  033c7	f3 0f 11 45 e4	 movss	 DWORD PTR _y2$[ebp], xmm0

; 1288 : 
; 1289 : 	ghost_multiplayer_modem_area = create_ui_object

  033cc	6a 11		 push	 17			; 00000011H
  033ce	6a 00		 push	 0
  033d0	6a 10		 push	 16			; 00000010H
  033d2	6a 01		 push	 1
  033d4	6a 07		 push	 7
  033d6	f3 0f 5a 45 e4	 cvtss2sd xmm0, DWORD PTR _y2$[ebp]
  033db	83 ec 08	 sub	 esp, 8
  033de	f2 0f 11 04 24	 movsd	 QWORD PTR [esp], xmm0
  033e3	f3 0f 5a 45 e8	 cvtss2sd xmm0, DWORD PTR _x2$[ebp]
  033e8	83 ec 08	 sub	 esp, 8
  033eb	f2 0f 11 04 24	 movsd	 QWORD PTR [esp], xmm0
  033f0	6a 59		 push	 89			; 00000059H
  033f2	f3 0f 5a 45 ec	 cvtss2sd xmm0, DWORD PTR _y1$[ebp]
  033f7	83 ec 08	 sub	 esp, 8
  033fa	f2 0f 11 04 24	 movsd	 QWORD PTR [esp], xmm0
  033ff	f3 0f 5a 45 f0	 cvtss2sd xmm0, DWORD PTR _x1$[ebp]
  03404	83 ec 08	 sub	 esp, 8
  03407	f2 0f 11 04 24	 movsd	 QWORD PTR [esp], xmm0
  0340c	6a 58		 push	 88			; 00000058H
  0340e	a1 00 00 00 00	 mov	 eax, DWORD PTR ?options_screen@@3PAUUI_OBJECT@@A ; options_screen
  03413	50		 push	 eax
  03414	6a 32		 push	 50			; 00000032H
  03416	6a 01		 push	 1
  03418	e8 00 00 00 00	 call	 ?create_ui_object@@YAPAUUI_OBJECT@@HZZ ; create_ui_object
  0341d	83 c4 48	 add	 esp, 72			; 00000048H
  03420	a3 00 00 00 00	 mov	 DWORD PTR ?ghost_multiplayer_modem_area@@3PAUUI_OBJECT@@A, eax ; ghost_multiplayer_modem_area

; 1290 : 									(
; 1291 : 										UI_TYPE_AREA,
; 1292 : 										UI_ATTR_PARENT (options_screen),
; 1293 : 										UI_ATTR_VIRTUAL_POSITION (x1, y1),
; 1294 : 										UI_ATTR_VIRTUAL_SIZE (x2, y2),
; 1295 : 										UI_ATTR_CLEAR (TRUE),
; 1296 : 										UI_ATTR_DRAWABLE (FALSE),
; 1297 : 										UI_ATTR_END
; 1298 : 									);
; 1299 : 
; 1300 : 	x1 = 0.000;

  03425	0f 57 c0	 xorps	 xmm0, xmm0
  03428	f3 0f 11 45 f0	 movss	 DWORD PTR _x1$[ebp], xmm0

; 1301 : 	y1 = get_ui_object_y_end (modem_dial_button);

  0342d	a1 00 00 00 00	 mov	 eax, DWORD PTR ?modem_dial_button@@3PAUUI_OBJECT@@A ; modem_dial_button
  03432	50		 push	 eax
  03433	8b 0d 00 00 00
	00		 mov	 ecx, DWORD PTR ?modem_dial_button@@3PAUUI_OBJECT@@A ; modem_dial_button
  03439	8b 11		 mov	 edx, DWORD PTR [ecx]
  0343b	8b 04 95 00 00
	00 00		 mov	 eax, DWORD PTR ?fn_get_ui_object_y_end@@3PAP6GMPAUUI_OBJECT@@@ZA[edx*4]
  03442	ff d0		 call	 eax
  03444	d9 5d ec	 fstp	 DWORD PTR _y1$[ebp]

; 1302 : 	x2 = get_ui_object_x_end (modem_cancel_button);

  03447	a1 00 00 00 00	 mov	 eax, DWORD PTR ?modem_cancel_button@@3PAUUI_OBJECT@@A ; modem_cancel_button
  0344c	50		 push	 eax
  0344d	8b 0d 00 00 00
	00		 mov	 ecx, DWORD PTR ?modem_cancel_button@@3PAUUI_OBJECT@@A ; modem_cancel_button
  03453	8b 11		 mov	 edx, DWORD PTR [ecx]
  03455	8b 04 95 00 00
	00 00		 mov	 eax, DWORD PTR ?fn_get_ui_object_x_end@@3PAP6GMPAUUI_OBJECT@@@ZA[edx*4]
  0345c	ff d0		 call	 eax
  0345e	d9 5d e8	 fstp	 DWORD PTR _x2$[ebp]

; 1303 : 	y2 = y1 + get_ui_object_virtual_y_size (modem_dial_button);

  03461	a1 00 00 00 00	 mov	 eax, DWORD PTR ?modem_dial_button@@3PAUUI_OBJECT@@A ; modem_dial_button
  03466	50		 push	 eax
  03467	8b 0d 00 00 00
	00		 mov	 ecx, DWORD PTR ?modem_dial_button@@3PAUUI_OBJECT@@A ; modem_dial_button
  0346d	8b 11		 mov	 edx, DWORD PTR [ecx]
  0346f	8b 04 95 00 00
	00 00		 mov	 eax, DWORD PTR ?fn_get_ui_object_virtual_y_size@@3PAP6GMPAUUI_OBJECT@@@ZA[edx*4]
  03476	ff d0		 call	 eax
  03478	d9 9d 80 fe ff
	ff		 fstp	 DWORD PTR tv4110[ebp]
  0347e	f3 0f 10 85 80
	fe ff ff	 movss	 xmm0, DWORD PTR tv4110[ebp]
  03486	f3 0f 58 45 ec	 addss	 xmm0, DWORD PTR _y1$[ebp]
  0348b	f3 0f 11 45 e4	 movss	 DWORD PTR _y2$[ebp], xmm0

; 1304 : 
; 1305 : 	ghost_multiplayer_modem_area2 = create_ui_object

  03490	6a 11		 push	 17			; 00000011H
  03492	6a 00		 push	 0
  03494	6a 10		 push	 16			; 00000010H
  03496	6a 01		 push	 1
  03498	6a 07		 push	 7
  0349a	f3 0f 5a 45 e4	 cvtss2sd xmm0, DWORD PTR _y2$[ebp]
  0349f	83 ec 08	 sub	 esp, 8
  034a2	f2 0f 11 04 24	 movsd	 QWORD PTR [esp], xmm0
  034a7	f3 0f 5a 45 e8	 cvtss2sd xmm0, DWORD PTR _x2$[ebp]
  034ac	83 ec 08	 sub	 esp, 8
  034af	f2 0f 11 04 24	 movsd	 QWORD PTR [esp], xmm0
  034b4	6a 59		 push	 89			; 00000059H
  034b6	f3 0f 5a 45 ec	 cvtss2sd xmm0, DWORD PTR _y1$[ebp]
  034bb	83 ec 08	 sub	 esp, 8
  034be	f2 0f 11 04 24	 movsd	 QWORD PTR [esp], xmm0
  034c3	f3 0f 5a 45 f0	 cvtss2sd xmm0, DWORD PTR _x1$[ebp]
  034c8	83 ec 08	 sub	 esp, 8
  034cb	f2 0f 11 04 24	 movsd	 QWORD PTR [esp], xmm0
  034d0	6a 58		 push	 88			; 00000058H
  034d2	a1 00 00 00 00	 mov	 eax, DWORD PTR ?options_screen@@3PAUUI_OBJECT@@A ; options_screen
  034d7	50		 push	 eax
  034d8	6a 32		 push	 50			; 00000032H
  034da	6a 01		 push	 1
  034dc	e8 00 00 00 00	 call	 ?create_ui_object@@YAPAUUI_OBJECT@@HZZ ; create_ui_object
  034e1	83 c4 48	 add	 esp, 72			; 00000048H
  034e4	a3 00 00 00 00	 mov	 DWORD PTR ?ghost_multiplayer_modem_area2@@3PAUUI_OBJECT@@A, eax ; ghost_multiplayer_modem_area2

; 1306 : 									(
; 1307 : 										UI_TYPE_AREA,
; 1308 : 										UI_ATTR_PARENT (options_screen),
; 1309 : 										UI_ATTR_VIRTUAL_POSITION (x1, y1),
; 1310 : 										UI_ATTR_VIRTUAL_SIZE (x2, y2),
; 1311 : 										UI_ATTR_CLEAR (TRUE),
; 1312 : 										UI_ATTR_DRAWABLE (FALSE),
; 1313 : 										UI_ATTR_END
; 1314 : 									);
; 1315 : 
; 1316 : 	// initialise strings
; 1317 : 
; 1318 : 	sprintf (text, "%s: %s", get_trans ("MP_STATUS"), get_trans ("MP_INITIALISED"));

  034e9	68 00 00 00 00	 push	 OFFSET ??_C@_0P@LBOGGNGK@MP_INITIALISED@
  034ee	e8 00 00 00 00	 call	 ?get_trans@@YGPBDPBD@Z	; get_trans
  034f3	50		 push	 eax
  034f4	68 00 00 00 00	 push	 OFFSET ??_C@_09NGFKAJIO@MP_STATUS@
  034f9	e8 00 00 00 00	 call	 ?get_trans@@YGPBDPBD@Z	; get_trans
  034fe	50		 push	 eax
  034ff	68 00 00 00 00	 push	 OFFSET ??_C@_06DJHOIPC@?$CFs?3?5?$CFs@
  03504	8d 85 60 ff ff
	ff		 lea	 eax, DWORD PTR _text$[ebp]
  0350a	50		 push	 eax
  0350b	e8 00 00 00 00	 call	 _sprintf
  03510	83 c4 10	 add	 esp, 16			; 00000010H

; 1319 : 
; 1320 : 	set_ui_object_text (serial_status_text, text);

  03513	8d 85 60 ff ff
	ff		 lea	 eax, DWORD PTR _text$[ebp]
  03519	50		 push	 eax
  0351a	8b 0d 00 00 00
	00		 mov	 ecx, DWORD PTR ?serial_status_text@@3PAUUI_OBJECT@@A ; serial_status_text
  03520	51		 push	 ecx
  03521	8b 15 00 00 00
	00		 mov	 edx, DWORD PTR ?serial_status_text@@3PAUUI_OBJECT@@A ; serial_status_text
  03527	8b 02		 mov	 eax, DWORD PTR [edx]
  03529	8b 0c 85 00 00
	00 00		 mov	 ecx, DWORD PTR ?fn_set_ui_object_text@@3PAP6GXPAUUI_OBJECT@@PBD@ZA[eax*4]
  03530	ff d1		 call	 ecx

; 1321 : 
; 1322 : 	sprintf (text, "%s: %s", get_trans ("MP_STATUS"), get_trans ("MP_UNCONNECTED"));

  03532	68 00 00 00 00	 push	 OFFSET ??_C@_0P@INKGIJFC@MP_UNCONNECTED@
  03537	e8 00 00 00 00	 call	 ?get_trans@@YGPBDPBD@Z	; get_trans
  0353c	50		 push	 eax
  0353d	68 00 00 00 00	 push	 OFFSET ??_C@_09NGFKAJIO@MP_STATUS@
  03542	e8 00 00 00 00	 call	 ?get_trans@@YGPBDPBD@Z	; get_trans
  03547	50		 push	 eax
  03548	68 00 00 00 00	 push	 OFFSET ??_C@_06DJHOIPC@?$CFs?3?5?$CFs@
  0354d	8d 85 60 ff ff
	ff		 lea	 eax, DWORD PTR _text$[ebp]
  03553	50		 push	 eax
  03554	e8 00 00 00 00	 call	 _sprintf
  03559	83 c4 10	 add	 esp, 16			; 00000010H

; 1323 : 
; 1324 : 	set_ui_object_text (modem_status_text, text);

  0355c	8d 85 60 ff ff
	ff		 lea	 eax, DWORD PTR _text$[ebp]
  03562	50		 push	 eax
  03563	8b 0d 00 00 00
	00		 mov	 ecx, DWORD PTR ?modem_status_text@@3PAUUI_OBJECT@@A ; modem_status_text
  03569	51		 push	 ecx
  0356a	8b 15 00 00 00
	00		 mov	 edx, DWORD PTR ?modem_status_text@@3PAUUI_OBJECT@@A ; modem_status_text
  03570	8b 02		 mov	 eax, DWORD PTR [edx]
  03572	8b 0c 85 00 00
	00 00		 mov	 ecx, DWORD PTR ?fn_set_ui_object_text@@3PAP6GXPAUUI_OBJECT@@PBD@ZA[eax*4]
  03579	ff d1		 call	 ecx

; 1325 : 
; 1326 : 	// Now install the selected service provider
; 1327 : 
; 1328 : 	install_global_options_service_provider ();

  0357b	e8 00 00 00 00	 call	 ?install_global_options_service_provider@@YGXXZ ; install_global_options_service_provider

; 1329 : }

  03580	5f		 pop	 edi
  03581	5e		 pop	 esi
  03582	5b		 pop	 ebx
  03583	8b e5		 mov	 esp, ebp
  03585	5d		 pop	 ebp
  03586	c3		 ret	 0
?define_multi_player_setup_objects@@YGXXZ ENDP		; define_multi_player_setup_objects
_TEXT	ENDS
; Function compile flags: /Odtp /ZI
; File c:\program files (x86)\windows kits\10\include\10.0.18362.0\ucrt\stdio.h
;	COMDAT _sprintf
_TEXT	SEGMENT
__ArgList$ = -8						; size = 4
__Result$ = -4						; size = 4
__Buffer$ = 8						; size = 4
__Format$ = 12						; size = 4
_sprintf PROC						; COMDAT

; 1781 :     {

  00000	55		 push	 ebp
  00001	8b ec		 mov	 ebp, esp
  00003	83 ec 4c	 sub	 esp, 76			; 0000004cH
  00006	53		 push	 ebx
  00007	56		 push	 esi
  00008	57		 push	 edi

; 1782 :         int _Result;
; 1783 :         va_list _ArgList;
; 1784 :         __crt_va_start(_ArgList, _Format);

  00009	8d 45 10	 lea	 eax, DWORD PTR __Format$[ebp+4]
  0000c	89 45 f8	 mov	 DWORD PTR __ArgList$[ebp], eax

; 1785 : 
; 1786 :         #pragma warning(push)
; 1787 :         #pragma warning(disable: 4996) // Deprecation
; 1788 :         _Result = _vsprintf_l(_Buffer, _Format, NULL, _ArgList);

  0000f	8b 45 f8	 mov	 eax, DWORD PTR __ArgList$[ebp]
  00012	50		 push	 eax
  00013	6a 00		 push	 0
  00015	8b 4d 0c	 mov	 ecx, DWORD PTR __Format$[ebp]
  00018	51		 push	 ecx
  00019	8b 55 08	 mov	 edx, DWORD PTR __Buffer$[ebp]
  0001c	52		 push	 edx
  0001d	e8 00 00 00 00	 call	 __vsprintf_l
  00022	83 c4 10	 add	 esp, 16			; 00000010H
  00025	89 45 fc	 mov	 DWORD PTR __Result$[ebp], eax

; 1789 :         #pragma warning(pop)
; 1790 : 
; 1791 :         __crt_va_end(_ArgList);

  00028	c7 45 f8 00 00
	00 00		 mov	 DWORD PTR __ArgList$[ebp], 0

; 1792 :         return _Result;

  0002f	8b 45 fc	 mov	 eax, DWORD PTR __Result$[ebp]

; 1793 :     }

  00032	5f		 pop	 edi
  00033	5e		 pop	 esi
  00034	5b		 pop	 ebx
  00035	8b e5		 mov	 esp, ebp
  00037	5d		 pop	 ebp
  00038	c3		 ret	 0
_sprintf ENDP
_TEXT	ENDS
; Function compile flags: /Odtp /ZI
; File c:\program files (x86)\windows kits\10\include\10.0.18362.0\ucrt\stdio.h
;	COMDAT __vsprintf_l
_TEXT	SEGMENT
__Buffer$ = 8						; size = 4
__Format$ = 12						; size = 4
__Locale$ = 16						; size = 4
__ArgList$ = 20						; size = 4
__vsprintf_l PROC					; COMDAT

; 1459 :     {

  00000	55		 push	 ebp
  00001	8b ec		 mov	 ebp, esp
  00003	83 ec 40	 sub	 esp, 64			; 00000040H
  00006	53		 push	 ebx
  00007	56		 push	 esi
  00008	57		 push	 edi

; 1460 :         #pragma warning(push)
; 1461 :         #pragma warning(disable: 4996) // Deprecation
; 1462 :         return _vsnprintf_l(_Buffer, (size_t)-1, _Format, _Locale, _ArgList);

  00009	8b 45 14	 mov	 eax, DWORD PTR __ArgList$[ebp]
  0000c	50		 push	 eax
  0000d	8b 4d 10	 mov	 ecx, DWORD PTR __Locale$[ebp]
  00010	51		 push	 ecx
  00011	8b 55 0c	 mov	 edx, DWORD PTR __Format$[ebp]
  00014	52		 push	 edx
  00015	6a ff		 push	 -1
  00017	8b 45 08	 mov	 eax, DWORD PTR __Buffer$[ebp]
  0001a	50		 push	 eax
  0001b	e8 00 00 00 00	 call	 __vsnprintf_l
  00020	83 c4 14	 add	 esp, 20			; 00000014H

; 1463 :         #pragma warning(pop)
; 1464 :     }

  00023	5f		 pop	 edi
  00024	5e		 pop	 esi
  00025	5b		 pop	 ebx
  00026	8b e5		 mov	 esp, ebp
  00028	5d		 pop	 ebp
  00029	c3		 ret	 0
__vsprintf_l ENDP
_TEXT	ENDS
; Function compile flags: /Odtp /ZI
; File c:\program files (x86)\windows kits\10\include\10.0.18362.0\ucrt\stdio.h
;	COMDAT __vsnprintf_l
_TEXT	SEGMENT
tv74 = -72						; size = 4
__Result$ = -4						; size = 4
__Buffer$ = 8						; size = 4
__BufferCount$ = 12					; size = 4
__Format$ = 16						; size = 4
__Locale$ = 20						; size = 4
__ArgList$ = 24						; size = 4
__vsnprintf_l PROC					; COMDAT

; 1389 :     {

  00000	55		 push	 ebp
  00001	8b ec		 mov	 ebp, esp
  00003	83 ec 48	 sub	 esp, 72			; 00000048H
  00006	53		 push	 ebx
  00007	56		 push	 esi
  00008	57		 push	 edi

; 1390 :         int const _Result = __stdio_common_vsprintf(

  00009	8b 45 18	 mov	 eax, DWORD PTR __ArgList$[ebp]
  0000c	50		 push	 eax
  0000d	8b 4d 14	 mov	 ecx, DWORD PTR __Locale$[ebp]
  00010	51		 push	 ecx
  00011	8b 55 10	 mov	 edx, DWORD PTR __Format$[ebp]
  00014	52		 push	 edx
  00015	8b 45 0c	 mov	 eax, DWORD PTR __BufferCount$[ebp]
  00018	50		 push	 eax
  00019	8b 4d 08	 mov	 ecx, DWORD PTR __Buffer$[ebp]
  0001c	51		 push	 ecx
  0001d	e8 00 00 00 00	 call	 ___local_stdio_printf_options
  00022	8b 10		 mov	 edx, DWORD PTR [eax]
  00024	83 ca 01	 or	 edx, 1
  00027	8b 40 04	 mov	 eax, DWORD PTR [eax+4]
  0002a	50		 push	 eax
  0002b	52		 push	 edx
  0002c	ff 15 00 00 00
	00		 call	 DWORD PTR __imp____stdio_common_vsprintf
  00032	83 c4 1c	 add	 esp, 28			; 0000001cH
  00035	89 45 fc	 mov	 DWORD PTR __Result$[ebp], eax

; 1391 :             _CRT_INTERNAL_LOCAL_PRINTF_OPTIONS | _CRT_INTERNAL_PRINTF_LEGACY_VSPRINTF_NULL_TERMINATION,
; 1392 :             _Buffer, _BufferCount, _Format, _Locale, _ArgList);
; 1393 : 
; 1394 :         return _Result < 0 ? -1 : _Result;

  00038	83 7d fc 00	 cmp	 DWORD PTR __Result$[ebp], 0
  0003c	7d 09		 jge	 SHORT $LN3@vsnprintf_
  0003e	c7 45 b8 ff ff
	ff ff		 mov	 DWORD PTR tv74[ebp], -1
  00045	eb 06		 jmp	 SHORT $LN4@vsnprintf_
$LN3@vsnprintf_:
  00047	8b 45 fc	 mov	 eax, DWORD PTR __Result$[ebp]
  0004a	89 45 b8	 mov	 DWORD PTR tv74[ebp], eax
$LN4@vsnprintf_:
  0004d	8b 45 b8	 mov	 eax, DWORD PTR tv74[ebp]

; 1395 :     }

  00050	5f		 pop	 edi
  00051	5e		 pop	 esi
  00052	5b		 pop	 ebx
  00053	8b e5		 mov	 esp, ebp
  00055	5d		 pop	 ebp
  00056	c3		 ret	 0
__vsnprintf_l ENDP
_TEXT	ENDS
; Function compile flags: /Odtp /ZI
; File c:\program files (x86)\windows kits\10\include\10.0.18362.0\ucrt\corecrt_stdio_config.h
;	COMDAT ___local_stdio_printf_options
_TEXT	SEGMENT
___local_stdio_printf_options PROC			; COMDAT

; 86   :     {

  00000	55		 push	 ebp
  00001	8b ec		 mov	 ebp, esp
  00003	83 ec 40	 sub	 esp, 64			; 00000040H
  00006	53		 push	 ebx
  00007	56		 push	 esi
  00008	57		 push	 edi

; 87   :         static unsigned __int64 _OptionsStorage;
; 88   :         return &_OptionsStorage;

  00009	b8 00 00 00 00	 mov	 eax, OFFSET ?_OptionsStorage@?1??__local_stdio_printf_options@@9@4_KA ; `__local_stdio_printf_options'::`2'::_OptionsStorage

; 89   :     }

  0000e	5f		 pop	 edi
  0000f	5e		 pop	 esi
  00010	5b		 pop	 ebx
  00011	8b e5		 mov	 esp, ebp
  00013	5d		 pop	 ebp
  00014	c3		 ret	 0
___local_stdio_printf_options ENDP
_TEXT	ENDS
END
