; Listing generated by Microsoft (R) Optimizing Compiler Version 19.16.27045.0 

	TITLE	C:\Users\nhv90\Projects\eech\modules\userint2\ui_obj\number\nu_creat.c
	.686P
	.XMM
	include listing.inc
	.model	flat

INCLUDELIB MSVCRTD
INCLUDELIB OLDNAMES

PUBLIC	?overload_number_ui_object_create_functions@@YGXH@Z ; overload_number_ui_object_create_functions
EXTRN	_memset:PROC
EXTRN	?safe_malloc_memory@@YGPAXI@Z:PROC		; safe_malloc_memory
EXTRN	?get_ui_font_type@@YG?AW4FONT_TYPES@@XZ:PROC	; get_ui_font_type
EXTRN	?set_ui_object_attributes@@YGXPAUUI_OBJECT@@PAD@Z:PROC ; set_ui_object_attributes
EXTRN	?ui_object_number_function@@YGXPAUUI_OBJECT@@PAX@Z:PROC ; ui_object_number_function
EXTRN	?increase_ui_object_counter@@YGXXZ:PROC		; increase_ui_object_counter
EXTRN	?fn_create_ui_object@@3PAP6GXPAUUI_OBJECT@@HPAD@ZA:BYTE ; fn_create_ui_object
EXTRN	?fn_set_ui_object_function@@3PAP6GXPAUUI_OBJECT@@P6GX0PAX@Z@ZA:BYTE ; fn_set_ui_object_function
EXTRN	?default_unselected_text_colour@@3UREAL_COLOUR@@A:DWORD ; default_unselected_text_colour
EXTRN	?default_selected_text_colour@@3UREAL_COLOUR@@A:DWORD ; default_selected_text_colour
EXTRN	__fltused:DWORD
; Function compile flags: /Odtp /ZI
; File c:\users\nhv90\projects\eech\modules\userint2\ui_obj\number\nu_creat.c
;	COMDAT ?create_number_ui_object@@YGXPAUUI_OBJECT@@HPAD@Z
_TEXT	SEGMENT
_new_object$ = -4					; size = 4
_obj$ = 8						; size = 4
_type$ = 12						; size = 4
_pargs$ = 16						; size = 4
?create_number_ui_object@@YGXPAUUI_OBJECT@@HPAD@Z PROC	; create_number_ui_object, COMDAT

; 74   : {

  00000	55		 push	 ebp
  00001	8b ec		 mov	 ebp, esp
  00003	83 ec 44	 sub	 esp, 68			; 00000044H
  00006	53		 push	 ebx
  00007	56		 push	 esi
  00008	57		 push	 edi

; 75   : 
; 76   :    number_ui_object
; 77   :       *new_object;
; 78   : 
; 79   : 	increase_ui_object_counter ();

  00009	e8 00 00 00 00	 call	 ?increase_ui_object_counter@@YGXXZ ; increase_ui_object_counter

; 80   : 
; 81   :    ////////////////////////////////////////
; 82   :    //
; 83   :    // MALLOC ENTITY DATA
; 84   :    //
; 85   :    ////////////////////////////////////////
; 86   : 
; 87   :    obj->type = type;

  0000e	8b 45 08	 mov	 eax, DWORD PTR _obj$[ebp]
  00011	8b 4d 0c	 mov	 ecx, DWORD PTR _type$[ebp]
  00014	89 08		 mov	 DWORD PTR [eax], ecx

; 88   : 
; 89   :    new_object = (number_ui_object *) safe_malloc (sizeof (number_ui_object));

  00016	68 e4 00 00 00	 push	 228			; 000000e4H
  0001b	e8 00 00 00 00	 call	 ?safe_malloc_memory@@YGPAXI@Z ; safe_malloc_memory
  00020	89 45 fc	 mov	 DWORD PTR _new_object$[ebp], eax

; 90   : 
; 91   :    obj->data = new_object;

  00023	8b 45 08	 mov	 eax, DWORD PTR _obj$[ebp]
  00026	8b 4d fc	 mov	 ecx, DWORD PTR _new_object$[ebp]
  00029	89 48 04	 mov	 DWORD PTR [eax+4], ecx

; 92   : 
; 93   :    ////////////////////////////////////////
; 94   :    //
; 95   :    // INITIALISE ALL ENTITY DATA TO 'WORKING' DEFAULT VALUES
; 96   :    //
; 97   :    // DO NOT USE ACCESS FUNCTIONS
; 98   :    //
; 99   :    // DO NOT USE RANDOM VALUES
; 100  :    //
; 101  :    ////////////////////////////////////////
; 102  : 
; 103  :    memset (new_object, 0, sizeof (number_ui_object));

  0002c	68 e4 00 00 00	 push	 228			; 000000e4H
  00031	6a 00		 push	 0
  00033	8b 45 fc	 mov	 eax, DWORD PTR _new_object$[ebp]
  00036	50		 push	 eax
  00037	e8 00 00 00 00	 call	 _memset
  0003c	83 c4 0c	 add	 esp, 12			; 0000000cH

; 104  : 
; 105  :    //new_object->area.x = 0.0;
; 106  :    //new_object->area.y = 0.0;
; 107  :    //new_object->area.x_size = 0.0;
; 108  :    //new_object->area.y_size = ui_get_font_height ();
; 109  :    new_object->area.x_origin = 0.0;

  0003f	8b 45 fc	 mov	 eax, DWORD PTR _new_object$[ebp]
  00042	0f 57 c0	 xorps	 xmm0, xmm0
  00045	f3 0f 11 40 30	 movss	 DWORD PTR [eax+48], xmm0

; 110  :    new_object->area.y_origin = 0.0;

  0004a	8b 45 fc	 mov	 eax, DWORD PTR _new_object$[ebp]
  0004d	0f 57 c0	 xorps	 xmm0, xmm0
  00050	f3 0f 11 40 34	 movss	 DWORD PTR [eax+52], xmm0

; 111  :    new_object->area.drawable = 1;

  00055	8b 45 fc	 mov	 eax, DWORD PTR _new_object$[ebp]
  00058	8b 48 4c	 mov	 ecx, DWORD PTR [eax+76]
  0005b	83 c9 20	 or	 ecx, 32			; 00000020H
  0005e	8b 55 fc	 mov	 edx, DWORD PTR _new_object$[ebp]
  00061	89 4a 4c	 mov	 DWORD PTR [edx+76], ecx

; 112  :    new_object->area.item_number = -1;

  00064	8b 45 fc	 mov	 eax, DWORD PTR _new_object$[ebp]
  00067	c7 40 54 ff ff
	ff ff		 mov	 DWORD PTR [eax+84], -1

; 113  :    new_object->area.redraw = 1;

  0006e	8b 45 fc	 mov	 eax, DWORD PTR _new_object$[ebp]
  00071	8b 48 4c	 mov	 ecx, DWORD PTR [eax+76]
  00074	81 e1 7f 80 ff
	ff		 and	 ecx, -32641		; ffff807fH
  0007a	81 c9 80 00 00
	00		 or	 ecx, 128		; 00000080H
  00080	8b 55 fc	 mov	 edx, DWORD PTR _new_object$[ebp]
  00083	89 4a 4c	 mov	 DWORD PTR [edx+76], ecx

; 114  :    new_object->area.moveable = 0;

  00086	8b 45 fc	 mov	 eax, DWORD PTR _new_object$[ebp]
  00089	8b 48 4c	 mov	 ecx, DWORD PTR [eax+76]
  0008c	81 e1 ff 7f ff
	ff		 and	 ecx, -32769		; ffff7fffH
  00092	8b 55 fc	 mov	 edx, DWORD PTR _new_object$[ebp]
  00095	89 4a 4c	 mov	 DWORD PTR [edx+76], ecx

; 115  :    new_object->area.resizeable = 0;

  00098	8b 45 fc	 mov	 eax, DWORD PTR _new_object$[ebp]
  0009b	8b 48 4c	 mov	 ecx, DWORD PTR [eax+76]
  0009e	81 e1 ff ff fe
	ff		 and	 ecx, -65537		; fffeffffH
  000a4	8b 55 fc	 mov	 edx, DWORD PTR _new_object$[ebp]
  000a7	89 4a 4c	 mov	 DWORD PTR [edx+76], ecx

; 116  :    new_object->area.notify_on = NOTIFY_TYPE_BUTTON_EITHER;

  000aa	8b 45 fc	 mov	 eax, DWORD PTR _new_object$[ebp]
  000ad	8b 48 4c	 mov	 ecx, DWORD PTR [eax+76]
  000b0	81 e1 ff ff ff
	87		 and	 ecx, -2013265921	; 87ffffffH
  000b6	81 c9 00 00 00
	18		 or	 ecx, 402653184		; 18000000H
  000bc	8b 55 fc	 mov	 edx, DWORD PTR _new_object$[ebp]
  000bf	89 4a 4c	 mov	 DWORD PTR [edx+76], ecx

; 117  :    new_object->area.parent = NULL;

  000c2	8b 45 fc	 mov	 eax, DWORD PTR _new_object$[ebp]
  000c5	c7 40 3c 00 00
	00 00		 mov	 DWORD PTR [eax+60], 0

; 118  :    new_object->area.child = NULL;

  000cc	8b 45 fc	 mov	 eax, DWORD PTR _new_object$[ebp]
  000cf	c7 40 40 00 00
	00 00		 mov	 DWORD PTR [eax+64], 0

; 119  :    new_object->area.next = NULL;

  000d6	8b 45 fc	 mov	 eax, DWORD PTR _new_object$[ebp]
  000d9	c7 40 44 00 00
	00 00		 mov	 DWORD PTR [eax+68], 0

; 120  :    new_object->area.prev = NULL;

  000e0	8b 45 fc	 mov	 eax, DWORD PTR _new_object$[ebp]
  000e3	c7 40 48 00 00
	00 00		 mov	 DWORD PTR [eax+72], 0

; 121  :    new_object->area.font_type = UI_FONT_ARIAL_10;

  000ea	8b 45 fc	 mov	 eax, DWORD PTR _new_object$[ebp]
  000ed	c7 40 64 00 00
	00 00		 mov	 DWORD PTR [eax+100], 0

; 122  :    new_object->area.font_colour_end = default_unselected_text_colour;

  000f4	8b 45 fc	 mov	 eax, DWORD PTR _new_object$[ebp]
  000f7	8b 0d 00 00 00
	00		 mov	 ecx, DWORD PTR ?default_unselected_text_colour@@3UREAL_COLOUR@@A ; default_unselected_text_colour
  000fd	89 88 94 00 00
	00		 mov	 DWORD PTR [eax+148], ecx

; 123  :    new_object->area.font_colour_start = default_unselected_text_colour;

  00103	8b 45 fc	 mov	 eax, DWORD PTR _new_object$[ebp]
  00106	8b 0d 00 00 00
	00		 mov	 ecx, DWORD PTR ?default_unselected_text_colour@@3UREAL_COLOUR@@A ; default_unselected_text_colour
  0010c	89 88 98 00 00
	00		 mov	 DWORD PTR [eax+152], ecx

; 124  :    new_object->area.highlighted_font_type = -1;

  00112	8b 45 fc	 mov	 eax, DWORD PTR _new_object$[ebp]
  00115	c7 40 60 ff ff
	ff ff		 mov	 DWORD PTR [eax+96], -1

; 125  :    new_object->area.highlighted_font_colour_end = default_selected_text_colour;

  0011c	8b 45 fc	 mov	 eax, DWORD PTR _new_object$[ebp]
  0011f	8b 0d 00 00 00
	00		 mov	 ecx, DWORD PTR ?default_selected_text_colour@@3UREAL_COLOUR@@A ; default_selected_text_colour
  00125	89 88 9c 00 00
	00		 mov	 DWORD PTR [eax+156], ecx

; 126  :    new_object->area.highlighted_font_colour_start = default_selected_text_colour;

  0012b	8b 45 fc	 mov	 eax, DWORD PTR _new_object$[ebp]
  0012e	8b 0d 00 00 00
	00		 mov	 ecx, DWORD PTR ?default_selected_text_colour@@3UREAL_COLOUR@@A ; default_selected_text_colour
  00134	89 88 a0 00 00
	00		 mov	 DWORD PTR [eax+160], ecx

; 127  :    new_object->area.selected_font_type = -1;

  0013a	8b 45 fc	 mov	 eax, DWORD PTR _new_object$[ebp]
  0013d	c7 40 5c ff ff
	ff ff		 mov	 DWORD PTR [eax+92], -1

; 128  :    new_object->area.selected_font_colour_end = default_selected_text_colour;

  00144	8b 45 fc	 mov	 eax, DWORD PTR _new_object$[ebp]
  00147	8b 0d 00 00 00
	00		 mov	 ecx, DWORD PTR ?default_selected_text_colour@@3UREAL_COLOUR@@A ; default_selected_text_colour
  0014d	89 88 a4 00 00
	00		 mov	 DWORD PTR [eax+164], ecx

; 129  :    new_object->area.selected_font_colour_start = default_selected_text_colour;

  00153	8b 45 fc	 mov	 eax, DWORD PTR _new_object$[ebp]
  00156	8b 0d 00 00 00
	00		 mov	 ecx, DWORD PTR ?default_selected_text_colour@@3UREAL_COLOUR@@A ; default_selected_text_colour
  0015c	89 88 a8 00 00
	00		 mov	 DWORD PTR [eax+168], ecx

; 130  : 
; 131  :    new_object->area.text = NULL;

  00162	8b 45 fc	 mov	 eax, DWORD PTR _new_object$[ebp]
  00165	c7 40 68 00 00
	00 00		 mov	 DWORD PTR [eax+104], 0

; 132  : 
; 133  :    ////////////////////////////////////////
; 134  :    //
; 135  :    // OVERWRITE DEFAULTS WITH GIVEN ATTRIBUTES
; 136  :    //
; 137  :    ////////////////////////////////////////
; 138  : 
; 139  :    set_ui_object_attributes (obj, pargs);

  0016c	8b 45 10	 mov	 eax, DWORD PTR _pargs$[ebp]
  0016f	50		 push	 eax
  00170	8b 4d 08	 mov	 ecx, DWORD PTR _obj$[ebp]
  00173	51		 push	 ecx
  00174	e8 00 00 00 00	 call	 ?set_ui_object_attributes@@YGXPAUUI_OBJECT@@PAD@Z ; set_ui_object_attributes

; 140  : 
; 141  : 	set_ui_object_function (obj, ui_object_number_function);

  00179	68 00 00 00 00	 push	 OFFSET ?ui_object_number_function@@YGXPAUUI_OBJECT@@PAX@Z ; ui_object_number_function
  0017e	8b 45 08	 mov	 eax, DWORD PTR _obj$[ebp]
  00181	50		 push	 eax
  00182	8b 4d 08	 mov	 ecx, DWORD PTR _obj$[ebp]
  00185	8b 11		 mov	 edx, DWORD PTR [ecx]
  00187	8b 04 95 00 00
	00 00		 mov	 eax, DWORD PTR ?fn_set_ui_object_function@@3PAP6GXPAUUI_OBJECT@@P6GX0PAX@Z@ZA[edx*4]
  0018e	ff d0		 call	 eax

; 142  : 
; 143  :    ////////////////////////////////////////
; 144  : 	//
; 145  : 	// Check the font default values & override them if not set
; 146  : 	//
; 147  :    ////////////////////////////////////////
; 148  : 
; 149  : 	if ( new_object->area.font_type == -1 )

  00190	8b 45 fc	 mov	 eax, DWORD PTR _new_object$[ebp]
  00193	83 78 64 ff	 cmp	 DWORD PTR [eax+100], -1
  00197	75 0b		 jne	 SHORT $LN2@create_num

; 150  : 	{
; 151  : 
; 152  : 		new_object->area.font_type = get_ui_font_type ();

  00199	e8 00 00 00 00	 call	 ?get_ui_font_type@@YG?AW4FONT_TYPES@@XZ ; get_ui_font_type
  0019e	8b 4d fc	 mov	 ecx, DWORD PTR _new_object$[ebp]
  001a1	89 41 64	 mov	 DWORD PTR [ecx+100], eax
$LN2@create_num:

; 153  : 	}
; 154  : 
; 155  : 	if ( new_object->area.highlighted_font_type == -1 )

  001a4	8b 45 fc	 mov	 eax, DWORD PTR _new_object$[ebp]
  001a7	83 78 60 ff	 cmp	 DWORD PTR [eax+96], -1
  001ab	75 0c		 jne	 SHORT $LN3@create_num

; 156  : 	{
; 157  : 
; 158  : 		new_object->area.highlighted_font_type = new_object->area.font_type;

  001ad	8b 45 fc	 mov	 eax, DWORD PTR _new_object$[ebp]
  001b0	8b 4d fc	 mov	 ecx, DWORD PTR _new_object$[ebp]
  001b3	8b 51 64	 mov	 edx, DWORD PTR [ecx+100]
  001b6	89 50 60	 mov	 DWORD PTR [eax+96], edx
$LN3@create_num:

; 159  : 	}
; 160  : 
; 161  : 	if ( new_object->area.selected_font_type == -1 )

  001b9	8b 45 fc	 mov	 eax, DWORD PTR _new_object$[ebp]
  001bc	83 78 5c ff	 cmp	 DWORD PTR [eax+92], -1
  001c0	75 0c		 jne	 SHORT $LN4@create_num

; 162  : 	{
; 163  : 
; 164  : 		new_object->area.selected_font_type = new_object->area.font_type;

  001c2	8b 45 fc	 mov	 eax, DWORD PTR _new_object$[ebp]
  001c5	8b 4d fc	 mov	 ecx, DWORD PTR _new_object$[ebp]
  001c8	8b 51 64	 mov	 edx, DWORD PTR [ecx+100]
  001cb	89 50 5c	 mov	 DWORD PTR [eax+92], edx
$LN4@create_num:

; 165  : 	}
; 166  : 
; 167  :    ////////////////////////////////////////
; 168  :    //
; 169  :    // INTEGRATE INTO SYSTEM
; 170  :    //
; 171  :    ////////////////////////////////////////
; 172  : }

  001ce	5f		 pop	 edi
  001cf	5e		 pop	 esi
  001d0	5b		 pop	 ebx
  001d1	8b e5		 mov	 esp, ebp
  001d3	5d		 pop	 ebp
  001d4	c2 0c 00	 ret	 12			; 0000000cH
?create_number_ui_object@@YGXPAUUI_OBJECT@@HPAD@Z ENDP	; create_number_ui_object
_TEXT	ENDS
; Function compile flags: /Odtp /ZI
; File c:\users\nhv90\projects\eech\modules\userint2\ui_obj\number\nu_creat.c
;	COMDAT ?overload_number_ui_object_create_functions@@YGXH@Z
_TEXT	SEGMENT
_type$ = 8						; size = 4
?overload_number_ui_object_create_functions@@YGXH@Z PROC ; overload_number_ui_object_create_functions, COMDAT

; 179  : {

  00000	55		 push	 ebp
  00001	8b ec		 mov	 ebp, esp
  00003	83 ec 40	 sub	 esp, 64			; 00000040H
  00006	53		 push	 ebx
  00007	56		 push	 esi
  00008	57		 push	 edi

; 180  : 
; 181  : 	fn_create_ui_object [type] = create_number_ui_object;

  00009	8b 45 08	 mov	 eax, DWORD PTR _type$[ebp]
  0000c	c7 04 85 00 00
	00 00 00 00 00
	00		 mov	 DWORD PTR ?fn_create_ui_object@@3PAP6GXPAUUI_OBJECT@@HPAD@ZA[eax*4], OFFSET ?create_number_ui_object@@YGXPAUUI_OBJECT@@HPAD@Z ; create_number_ui_object

; 182  : }

  00017	5f		 pop	 edi
  00018	5e		 pop	 esi
  00019	5b		 pop	 ebx
  0001a	8b e5		 mov	 esp, ebp
  0001c	5d		 pop	 ebp
  0001d	c2 04 00	 ret	 4
?overload_number_ui_object_create_functions@@YGXH@Z ENDP ; overload_number_ui_object_create_functions
_TEXT	ENDS
END
