; Listing generated by Microsoft (R) Optimizing Compiler Version 19.16.27045.0 

	TITLE	C:\Users\nhv90\Projects\eech\modules\userint2\ui_obj\number\nu_fns.c
	.686P
	.XMM
	include listing.inc
	.model	flat

INCLUDELIB MSVCRTD
INCLUDELIB OLDNAMES

PUBLIC	?overload_number_ui_object_function_functions@@YGXH@Z ; overload_number_ui_object_function_functions
EXTRN	?fn_set_ui_object_state@@3PAP6GXPAUUI_OBJECT@@H@ZA:BYTE ; fn_set_ui_object_state
EXTRN	?fn_set_ui_object_redraw@@3PAP6GXPAUUI_OBJECT@@H@ZA:BYTE ; fn_set_ui_object_redraw
EXTRN	?fn_call_ui_object_function@@3PAP6GXPAUUI_OBJECT@@PAX@ZA:BYTE ; fn_call_ui_object_function
EXTRN	?fn_call_ui_object_right_function@@3PAP6GXPAUUI_OBJECT@@PAX@ZA:BYTE ; fn_call_ui_object_right_function
EXTRN	?fn_get_ui_object_notify_on@@3PAP6G?AW4NOTIFY_TYPES@@PAUUI_OBJECT@@@ZA:BYTE ; fn_get_ui_object_notify_on
; Function compile flags: /Odtp /ZI
; File c:\users\nhv90\projects\eech\modules\userint2\ui_obj\number\nu_fns.c
;	COMDAT ?call_number_ui_object_right_function@@YGXPAUUI_OBJECT@@PAX@Z
_TEXT	SEGMENT
_number$ = -8						; size = 4
_function$ = -4						; size = 4
_obj$ = 8						; size = 4
_arg$ = 12						; size = 4
?call_number_ui_object_right_function@@YGXPAUUI_OBJECT@@PAX@Z PROC ; call_number_ui_object_right_function, COMDAT

; 122  : {

  00000	55		 push	 ebp
  00001	8b ec		 mov	 ebp, esp
  00003	83 ec 48	 sub	 esp, 72			; 00000048H
  00006	53		 push	 ebx
  00007	56		 push	 esi
  00008	57		 push	 edi

; 123  : 
; 124  : 	void
; 125  : 		((*function) (ui_object *object, void *arg));
; 126  : 	
; 127  : 	number_ui_object
; 128  : 		*number;
; 129  : 
; 130  : 	number = (number_ui_object *) obj->data;

  00009	8b 45 08	 mov	 eax, DWORD PTR _obj$[ebp]
  0000c	8b 48 04	 mov	 ecx, DWORD PTR [eax+4]
  0000f	89 4d f8	 mov	 DWORD PTR _number$[ebp], ecx

; 131  : 
; 132  : 	function = number->area.right_function;

  00012	8b 45 f8	 mov	 eax, DWORD PTR _number$[ebp]
  00015	8b 88 d4 00 00
	00		 mov	 ecx, DWORD PTR [eax+212]
  0001b	89 4d fc	 mov	 DWORD PTR _function$[ebp], ecx

; 133  : 
; 134  : 	if (function)

  0001e	83 7d fc 00	 cmp	 DWORD PTR _function$[ebp], 0
  00022	74 7d		 je	 SHORT $LN1@call_numbe

; 135  : 	{
; 136  : 
; 137  : 		set_ui_object_redraw (obj, TRUE);

  00024	6a 01		 push	 1
  00026	8b 45 08	 mov	 eax, DWORD PTR _obj$[ebp]
  00029	50		 push	 eax
  0002a	8b 4d 08	 mov	 ecx, DWORD PTR _obj$[ebp]
  0002d	8b 11		 mov	 edx, DWORD PTR [ecx]
  0002f	8b 04 95 00 00
	00 00		 mov	 eax, DWORD PTR ?fn_set_ui_object_redraw@@3PAP6GXPAUUI_OBJECT@@H@ZA[edx*4]
  00036	ff d0		 call	 eax

; 138  : 
; 139  : 		if ((int) arg == BUTTON_STATE_DOWN)

  00038	83 7d 0c 02	 cmp	 DWORD PTR _arg$[ebp], 2
  0003c	75 16		 jne	 SHORT $LN3@call_numbe

; 140  : 		{
; 141  : 
; 142  : 			set_ui_object_state (obj, UI_OBJECT_STATE_ON);

  0003e	6a 01		 push	 1
  00040	8b 45 08	 mov	 eax, DWORD PTR _obj$[ebp]
  00043	50		 push	 eax
  00044	8b 4d 08	 mov	 ecx, DWORD PTR _obj$[ebp]
  00047	8b 11		 mov	 edx, DWORD PTR [ecx]
  00049	8b 04 95 00 00
	00 00		 mov	 eax, DWORD PTR ?fn_set_ui_object_state@@3PAP6GXPAUUI_OBJECT@@H@ZA[edx*4]
  00050	ff d0		 call	 eax

; 143  : 		}
; 144  : 		else 

  00052	eb 14		 jmp	 SHORT $LN4@call_numbe
$LN3@call_numbe:

; 145  : 		{
; 146  : 			
; 147  : 			set_ui_object_state (obj, UI_OBJECT_STATE_OFF);

  00054	6a 00		 push	 0
  00056	8b 45 08	 mov	 eax, DWORD PTR _obj$[ebp]
  00059	50		 push	 eax
  0005a	8b 4d 08	 mov	 ecx, DWORD PTR _obj$[ebp]
  0005d	8b 11		 mov	 edx, DWORD PTR [ecx]
  0005f	8b 04 95 00 00
	00 00		 mov	 eax, DWORD PTR ?fn_set_ui_object_state@@3PAP6GXPAUUI_OBJECT@@H@ZA[edx*4]
  00066	ff d0		 call	 eax
$LN4@call_numbe:

; 148  : 		}
; 149  : 
; 150  : 		if (
; 151  : 				(get_ui_object_notify_on (obj) == (int) arg) ||

  00068	8b 45 08	 mov	 eax, DWORD PTR _obj$[ebp]
  0006b	50		 push	 eax
  0006c	8b 4d 08	 mov	 ecx, DWORD PTR _obj$[ebp]
  0006f	8b 11		 mov	 edx, DWORD PTR [ecx]
  00071	8b 04 95 00 00
	00 00		 mov	 eax, DWORD PTR ?fn_get_ui_object_notify_on@@3PAP6G?AW4NOTIFY_TYPES@@PAUUI_OBJECT@@@ZA[edx*4]
  00078	ff d0		 call	 eax
  0007a	3b 45 0c	 cmp	 eax, DWORD PTR _arg$[ebp]
  0007d	74 17		 je	 SHORT $LN6@call_numbe
  0007f	8b 45 08	 mov	 eax, DWORD PTR _obj$[ebp]
  00082	50		 push	 eax
  00083	8b 4d 08	 mov	 ecx, DWORD PTR _obj$[ebp]
  00086	8b 11		 mov	 edx, DWORD PTR [ecx]
  00088	8b 04 95 00 00
	00 00		 mov	 eax, DWORD PTR ?fn_get_ui_object_notify_on@@3PAP6G?AW4NOTIFY_TYPES@@PAUUI_OBJECT@@@ZA[edx*4]
  0008f	ff d0		 call	 eax
  00091	83 f8 03	 cmp	 eax, 3
  00094	75 0b		 jne	 SHORT $LN1@call_numbe
$LN6@call_numbe:

; 152  : 				(get_ui_object_notify_on (obj) == NOTIFY_TYPE_BUTTON_EITHER)
; 153  : 			)
; 154  : 		{
; 155  : 
; 156  : 			function (obj, (void *) arg);

  00096	8b 45 0c	 mov	 eax, DWORD PTR _arg$[ebp]
  00099	50		 push	 eax
  0009a	8b 4d 08	 mov	 ecx, DWORD PTR _obj$[ebp]
  0009d	51		 push	 ecx
  0009e	ff 55 fc	 call	 DWORD PTR _function$[ebp]
$LN1@call_numbe:

; 157  : 		}
; 158  : 	}
; 159  : }

  000a1	5f		 pop	 edi
  000a2	5e		 pop	 esi
  000a3	5b		 pop	 ebx
  000a4	8b e5		 mov	 esp, ebp
  000a6	5d		 pop	 ebp
  000a7	c2 08 00	 ret	 8
?call_number_ui_object_right_function@@YGXPAUUI_OBJECT@@PAX@Z ENDP ; call_number_ui_object_right_function
_TEXT	ENDS
; Function compile flags: /Odtp /ZI
; File c:\users\nhv90\projects\eech\modules\userint2\ui_obj\number\nu_fns.c
;	COMDAT ?call_number_ui_object_function@@YGXPAUUI_OBJECT@@PAX@Z
_TEXT	SEGMENT
_number$ = -8						; size = 4
_function$ = -4						; size = 4
_obj$ = 8						; size = 4
_arg$ = 12						; size = 4
?call_number_ui_object_function@@YGXPAUUI_OBJECT@@PAX@Z PROC ; call_number_ui_object_function, COMDAT

; 74   : {

  00000	55		 push	 ebp
  00001	8b ec		 mov	 ebp, esp
  00003	83 ec 48	 sub	 esp, 72			; 00000048H
  00006	53		 push	 ebx
  00007	56		 push	 esi
  00008	57		 push	 edi

; 75   : 
; 76   : 	void
; 77   : 		((*function) (ui_object *object, void *arg));
; 78   : 	
; 79   : 	number_ui_object
; 80   : 		*number;
; 81   : 
; 82   : 	number = (number_ui_object *) obj->data;

  00009	8b 45 08	 mov	 eax, DWORD PTR _obj$[ebp]
  0000c	8b 48 04	 mov	 ecx, DWORD PTR [eax+4]
  0000f	89 4d f8	 mov	 DWORD PTR _number$[ebp], ecx

; 83   : 
; 84   : 	function = number->area.function;

  00012	8b 45 f8	 mov	 eax, DWORD PTR _number$[ebp]
  00015	8b 88 d0 00 00
	00		 mov	 ecx, DWORD PTR [eax+208]
  0001b	89 4d fc	 mov	 DWORD PTR _function$[ebp], ecx

; 85   : 
; 86   : 	if (function)

  0001e	83 7d fc 00	 cmp	 DWORD PTR _function$[ebp], 0
  00022	74 7d		 je	 SHORT $LN1@call_numbe

; 87   : 	{
; 88   : 
; 89   : 		set_ui_object_redraw (obj, TRUE);

  00024	6a 01		 push	 1
  00026	8b 45 08	 mov	 eax, DWORD PTR _obj$[ebp]
  00029	50		 push	 eax
  0002a	8b 4d 08	 mov	 ecx, DWORD PTR _obj$[ebp]
  0002d	8b 11		 mov	 edx, DWORD PTR [ecx]
  0002f	8b 04 95 00 00
	00 00		 mov	 eax, DWORD PTR ?fn_set_ui_object_redraw@@3PAP6GXPAUUI_OBJECT@@H@ZA[edx*4]
  00036	ff d0		 call	 eax

; 90   : 
; 91   : 		if ((int) arg == BUTTON_STATE_DOWN)

  00038	83 7d 0c 02	 cmp	 DWORD PTR _arg$[ebp], 2
  0003c	75 16		 jne	 SHORT $LN3@call_numbe

; 92   : 		{
; 93   : 
; 94   : 			set_ui_object_state (obj, UI_OBJECT_STATE_ON);

  0003e	6a 01		 push	 1
  00040	8b 45 08	 mov	 eax, DWORD PTR _obj$[ebp]
  00043	50		 push	 eax
  00044	8b 4d 08	 mov	 ecx, DWORD PTR _obj$[ebp]
  00047	8b 11		 mov	 edx, DWORD PTR [ecx]
  00049	8b 04 95 00 00
	00 00		 mov	 eax, DWORD PTR ?fn_set_ui_object_state@@3PAP6GXPAUUI_OBJECT@@H@ZA[edx*4]
  00050	ff d0		 call	 eax

; 95   : 		}
; 96   : 		else 

  00052	eb 14		 jmp	 SHORT $LN4@call_numbe
$LN3@call_numbe:

; 97   : 		{
; 98   : 			
; 99   : 			set_ui_object_state (obj, UI_OBJECT_STATE_OFF);

  00054	6a 00		 push	 0
  00056	8b 45 08	 mov	 eax, DWORD PTR _obj$[ebp]
  00059	50		 push	 eax
  0005a	8b 4d 08	 mov	 ecx, DWORD PTR _obj$[ebp]
  0005d	8b 11		 mov	 edx, DWORD PTR [ecx]
  0005f	8b 04 95 00 00
	00 00		 mov	 eax, DWORD PTR ?fn_set_ui_object_state@@3PAP6GXPAUUI_OBJECT@@H@ZA[edx*4]
  00066	ff d0		 call	 eax
$LN4@call_numbe:

; 100  : 		}
; 101  : 
; 102  : 		if (
; 103  : 				(get_ui_object_notify_on (obj) == (int) arg) ||

  00068	8b 45 08	 mov	 eax, DWORD PTR _obj$[ebp]
  0006b	50		 push	 eax
  0006c	8b 4d 08	 mov	 ecx, DWORD PTR _obj$[ebp]
  0006f	8b 11		 mov	 edx, DWORD PTR [ecx]
  00071	8b 04 95 00 00
	00 00		 mov	 eax, DWORD PTR ?fn_get_ui_object_notify_on@@3PAP6G?AW4NOTIFY_TYPES@@PAUUI_OBJECT@@@ZA[edx*4]
  00078	ff d0		 call	 eax
  0007a	3b 45 0c	 cmp	 eax, DWORD PTR _arg$[ebp]
  0007d	74 17		 je	 SHORT $LN6@call_numbe
  0007f	8b 45 08	 mov	 eax, DWORD PTR _obj$[ebp]
  00082	50		 push	 eax
  00083	8b 4d 08	 mov	 ecx, DWORD PTR _obj$[ebp]
  00086	8b 11		 mov	 edx, DWORD PTR [ecx]
  00088	8b 04 95 00 00
	00 00		 mov	 eax, DWORD PTR ?fn_get_ui_object_notify_on@@3PAP6G?AW4NOTIFY_TYPES@@PAUUI_OBJECT@@@ZA[edx*4]
  0008f	ff d0		 call	 eax
  00091	83 f8 03	 cmp	 eax, 3
  00094	75 0b		 jne	 SHORT $LN1@call_numbe
$LN6@call_numbe:

; 104  : 				(get_ui_object_notify_on (obj) == NOTIFY_TYPE_BUTTON_EITHER)
; 105  : 			)
; 106  : 		{
; 107  : 
; 108  : //			set_mouse_off ();
; 109  : 	
; 110  : 			function (obj, (void *) arg);

  00096	8b 45 0c	 mov	 eax, DWORD PTR _arg$[ebp]
  00099	50		 push	 eax
  0009a	8b 4d 08	 mov	 ecx, DWORD PTR _obj$[ebp]
  0009d	51		 push	 ecx
  0009e	ff 55 fc	 call	 DWORD PTR _function$[ebp]
$LN1@call_numbe:

; 111  : 
; 112  : //			set_mouse_on ();
; 113  : 		}
; 114  : 	}
; 115  : }

  000a1	5f		 pop	 edi
  000a2	5e		 pop	 esi
  000a3	5b		 pop	 ebx
  000a4	8b e5		 mov	 esp, ebp
  000a6	5d		 pop	 ebp
  000a7	c2 08 00	 ret	 8
?call_number_ui_object_function@@YGXPAUUI_OBJECT@@PAX@Z ENDP ; call_number_ui_object_function
_TEXT	ENDS
; Function compile flags: /Odtp /ZI
; File c:\users\nhv90\projects\eech\modules\userint2\ui_obj\number\nu_fns.c
;	COMDAT ?overload_number_ui_object_function_functions@@YGXH@Z
_TEXT	SEGMENT
_type$ = 8						; size = 4
?overload_number_ui_object_function_functions@@YGXH@Z PROC ; overload_number_ui_object_function_functions, COMDAT

; 166  : {

  00000	55		 push	 ebp
  00001	8b ec		 mov	 ebp, esp
  00003	83 ec 40	 sub	 esp, 64			; 00000040H
  00006	53		 push	 ebx
  00007	56		 push	 esi
  00008	57		 push	 edi

; 167  : 
; 168  : 	fn_call_ui_object_function [type] 			= call_number_ui_object_function;

  00009	8b 45 08	 mov	 eax, DWORD PTR _type$[ebp]
  0000c	c7 04 85 00 00
	00 00 00 00 00
	00		 mov	 DWORD PTR ?fn_call_ui_object_function@@3PAP6GXPAUUI_OBJECT@@PAX@ZA[eax*4], OFFSET ?call_number_ui_object_function@@YGXPAUUI_OBJECT@@PAX@Z ; call_number_ui_object_function

; 169  : 
; 170  : 	fn_call_ui_object_right_function [type] 	= call_number_ui_object_right_function;

  00017	8b 45 08	 mov	 eax, DWORD PTR _type$[ebp]
  0001a	c7 04 85 00 00
	00 00 00 00 00
	00		 mov	 DWORD PTR ?fn_call_ui_object_right_function@@3PAP6GXPAUUI_OBJECT@@PAX@ZA[eax*4], OFFSET ?call_number_ui_object_right_function@@YGXPAUUI_OBJECT@@PAX@Z ; call_number_ui_object_right_function

; 171  : }

  00025	5f		 pop	 edi
  00026	5e		 pop	 esi
  00027	5b		 pop	 ebx
  00028	8b e5		 mov	 esp, ebp
  0002a	5d		 pop	 ebp
  0002b	c2 04 00	 ret	 4
?overload_number_ui_object_function_functions@@YGXH@Z ENDP ; overload_number_ui_object_function_functions
_TEXT	ENDS
END
