; Listing generated by Microsoft (R) Optimizing Compiler Version 19.16.27045.0 

	TITLE	C:\Users\nhv90\Projects\eech\aphavoc\source\entity\fixed\object\ob_creat.c
	.686P
	.XMM
	include listing.inc
	.model	flat

INCLUDELIB MSVCRTD
INCLUDELIB OLDNAMES

PUBLIC	?overload_object_create_functions@@YGXXZ	; overload_object_create_functions
PUBLIC	?__LINE__Var@?0??create_local@@YGPAUENTITY@@W4ENTITY_TYPES@@HPAD@Z@4JA ; `create_local'::`1'::__LINE__Var
PUBLIC	??_C@_0EL@MFCJAGLA@c?3?2users?2nhv90?2projects?2eech?2ap@ ; `string'
PUBLIC	??_C@_0CL@OOPHFNJI@assert_local_create_entity_inde@ ; `string'
PUBLIC	?__LINE__Var@?0??create_remote@@YGPAUENTITY@@W4ENTITY_TYPES@@HPAD@Z@4JA ; `create_remote'::`1'::__LINE__Var
PUBLIC	??_C@_0CM@DHBIKIGD@assert_remote_create_entity_ind@ ; `string'
PUBLIC	?__LINE__Var@?0??create_server@@YGPAUENTITY@@W4ENTITY_TYPES@@HPAD@Z@4JA ; `create_server'::`1'::__LINE__Var
PUBLIC	??_C@_0CB@CFOCLFOK@assert_client_server_local_fn?5?$CI@ ; `string'
PUBLIC	??_C@_0CC@BNNNEGEG@assert_client_server_remote_fn?5@ ; `string'
PUBLIC	?__LINE__Var@?0??create_client@@YGPAUENTITY@@W4ENTITY_TYPES@@HPAD@Z@4JA ; `create_client'::`1'::__LINE__Var
PUBLIC	__real@3f800000
EXTRN	_memset:PROC
EXTRN	?process_assert@@YGXPBD0H@Z:PROC		; process_assert
EXTRN	?malloc_fast_memory@@YGPAXI@Z:PROC		; malloc_fast_memory
EXTRN	?set_local_entity_attributes@@YGXPAUENTITY@@PAD@Z:PROC ; set_local_entity_attributes
EXTRN	?insert_local_entity_into_parents_child_list@@YGXPAUENTITY@@W4LIST_TYPES@@00@Z:PROC ; insert_local_entity_into_parents_child_list
EXTRN	?transmit_entity_comms_message@@YAXW4ENTITY_COMMS_MESSAGES@@PAUENTITY@@ZZ:PROC ; transmit_entity_comms_message
EXTRN	?assert_client_server_local_fn@@YGHXZ:PROC	; assert_client_server_local_fn
EXTRN	?assert_client_server_remote_fn@@YGHXZ:PROC	; assert_client_server_remote_fn
EXTRN	?assert_local_create_entity_index@@YGHH@Z:PROC	; assert_local_create_entity_index
EXTRN	?assert_remote_create_entity_index@@YGHH@Z:PROC	; assert_remote_create_entity_index
EXTRN	?get_free_entity@@YGPAUENTITY@@H@Z:PROC		; get_free_entity
EXTRN	?get_local_sector_entity@@YGPAUENTITY@@PAUVEC3D@@@Z:PROC ; get_local_sector_entity
EXTRN	?system_comms_data_flow@@3W4COMMS_DATA_FLOW_TYPES@@A:DWORD ; system_comms_data_flow
EXTRN	?world_map@@3UWORLD_MAP_DATA@@A:BYTE		; world_map
EXTRN	?fn_create_local_entity@@3PAP6GPAUENTITY@@W4ENTITY_TYPES@@HPAD@ZA:BYTE ; fn_create_local_entity
EXTRN	?fn_create_client_server_entity@@3PAY01P6GPAUENTITY@@W4ENTITY_TYPES@@HPAD@ZA:BYTE ; fn_create_client_server_entity
EXTRN	?entities@@3PAUENTITY@@A:DWORD			; entities
EXTRN	?fixed_database@@3QBUFIXED_DATA@@B:BYTE		; fixed_database
EXTRN	__fltused:DWORD
;	COMDAT __real@3f800000
CONST	SEGMENT
__real@3f800000 DD 03f800000r			; 1
CONST	ENDS
;	COMDAT ?__LINE__Var@?0??create_client@@YGPAUENTITY@@W4ENTITY_TYPES@@HPAD@Z@4JA
_DATA	SEGMENT
?__LINE__Var@?0??create_client@@YGPAUENTITY@@W4ENTITY_TYPES@@HPAD@Z@4JA DD 0f3H ; `create_client'::`1'::__LINE__Var
_DATA	ENDS
;	COMDAT ??_C@_0CC@BNNNEGEG@assert_client_server_remote_fn?5@
CONST	SEGMENT
??_C@_0CC@BNNNEGEG@assert_client_server_remote_fn?5@ DB 'assert_client_se'
	DB	'rver_remote_fn ()', 00H			; `string'
CONST	ENDS
;	COMDAT ??_C@_0CB@CFOCLFOK@assert_client_server_local_fn?5?$CI@
CONST	SEGMENT
??_C@_0CB@CFOCLFOK@assert_client_server_local_fn?5?$CI@ DB 'assert_client'
	DB	'_server_local_fn ()', 00H			; `string'
CONST	ENDS
;	COMDAT ?__LINE__Var@?0??create_server@@YGPAUENTITY@@W4ENTITY_TYPES@@HPAD@Z@4JA
_DATA	SEGMENT
?__LINE__Var@?0??create_server@@YGPAUENTITY@@W4ENTITY_TYPES@@HPAD@Z@4JA DD 0dcH ; `create_server'::`1'::__LINE__Var
_DATA	ENDS
;	COMDAT ??_C@_0CM@DHBIKIGD@assert_remote_create_entity_ind@
CONST	SEGMENT
??_C@_0CM@DHBIKIGD@assert_remote_create_entity_ind@ DB 'assert_remote_cre'
	DB	'ate_entity_index ((index))', 00H		; `string'
CONST	ENDS
;	COMDAT ?__LINE__Var@?0??create_remote@@YGPAUENTITY@@W4ENTITY_TYPES@@HPAD@Z@4JA
_DATA	SEGMENT
?__LINE__Var@?0??create_remote@@YGPAUENTITY@@W4ENTITY_TYPES@@HPAD@Z@4JA DD 0c9H ; `create_remote'::`1'::__LINE__Var
_DATA	ENDS
;	COMDAT ??_C@_0CL@OOPHFNJI@assert_local_create_entity_inde@
CONST	SEGMENT
??_C@_0CL@OOPHFNJI@assert_local_create_entity_inde@ DB 'assert_local_crea'
	DB	'te_entity_index ((index))', 00H		; `string'
CONST	ENDS
;	COMDAT ??_C@_0EL@MFCJAGLA@c?3?2users?2nhv90?2projects?2eech?2ap@
CONST	SEGMENT
??_C@_0EL@MFCJAGLA@c?3?2users?2nhv90?2projects?2eech?2ap@ DB 'c:\users\nh'
	DB	'v90\projects\eech\aphavoc\source\entity\fixed\object\ob_creat'
	DB	'.c', 00H					; `string'
CONST	ENDS
;	COMDAT ?__LINE__Var@?0??create_local@@YGPAUENTITY@@W4ENTITY_TYPES@@HPAD@Z@4JA
_DATA	SEGMENT
?__LINE__Var@?0??create_local@@YGPAUENTITY@@W4ENTITY_TYPES@@HPAD@Z@4JA DD 050H ; `create_local'::`1'::__LINE__Var
_DATA	ENDS
; Function compile flags: /Odtp /ZI
; File c:\users\nhv90\projects\eech\aphavoc\source\entity\fixed\object\ob_creat.c
;	COMDAT ?create_client@@YGPAUENTITY@@W4ENTITY_TYPES@@HPAD@Z
_TEXT	SEGMENT
_en$ = -4						; size = 4
_type$ = 8						; size = 4
_index$ = 12						; size = 4
_pargs$ = 16						; size = 4
?create_client@@YGPAUENTITY@@W4ENTITY_TYPES@@HPAD@Z PROC ; create_client, COMDAT

; 243  : {

  00000	55		 push	 ebp
  00001	8b ec		 mov	 ebp, esp
  00003	83 ec 44	 sub	 esp, 68			; 00000044H
  00006	53		 push	 ebx
  00007	56		 push	 esi
  00008	57		 push	 edi

; 244  : 	entity
; 245  : 		*en;
; 246  : 
; 247  : 	if (get_comms_data_flow () == COMMS_DATA_FLOW_TX)

  00009	83 3d 00 00 00
	00 00		 cmp	 DWORD PTR ?system_comms_data_flow@@3W4COMMS_DATA_FLOW_TYPES@@A, 0 ; system_comms_data_flow
  00010	75 37		 jne	 SHORT $LN2@create_cli

; 248  : 	{
; 249  : 		validate_client_server_remote_fn ();

  00012	e8 00 00 00 00	 call	 ?assert_client_server_remote_fn@@YGHXZ ; assert_client_server_remote_fn
  00017	85 c0		 test	 eax, eax
  00019	75 18		 jne	 SHORT $LN4@create_cli
  0001b	a1 00 00 00 00	 mov	 eax, DWORD PTR ?__LINE__Var@?0??create_client@@YGPAUENTITY@@W4ENTITY_TYPES@@HPAD@Z@4JA
  00020	83 c0 06	 add	 eax, 6
  00023	50		 push	 eax
  00024	68 00 00 00 00	 push	 OFFSET ??_C@_0EL@MFCJAGLA@c?3?2users?2nhv90?2projects?2eech?2ap@
  00029	68 00 00 00 00	 push	 OFFSET ??_C@_0CC@BNNNEGEG@assert_client_server_remote_fn?5@
  0002e	e8 00 00 00 00	 call	 ?process_assert@@YGXPBD0H@Z ; process_assert
$LN4@create_cli:

; 250  : 
; 251  : 		en = create_remote (type, index, pargs);

  00033	8b 45 10	 mov	 eax, DWORD PTR _pargs$[ebp]
  00036	50		 push	 eax
  00037	8b 4d 0c	 mov	 ecx, DWORD PTR _index$[ebp]
  0003a	51		 push	 ecx
  0003b	8b 55 08	 mov	 edx, DWORD PTR _type$[ebp]
  0003e	52		 push	 edx
  0003f	e8 00 00 00 00	 call	 ?create_remote@@YGPAUENTITY@@W4ENTITY_TYPES@@HPAD@Z ; create_remote
  00044	89 45 fc	 mov	 DWORD PTR _en$[ebp], eax

; 252  : 	}
; 253  : 	else

  00047	eb 35		 jmp	 SHORT $LN3@create_cli
$LN2@create_cli:

; 254  : 	{
; 255  : 		validate_client_server_local_fn ();

  00049	e8 00 00 00 00	 call	 ?assert_client_server_local_fn@@YGHXZ ; assert_client_server_local_fn
  0004e	85 c0		 test	 eax, eax
  00050	75 18		 jne	 SHORT $LN5@create_cli
  00052	a1 00 00 00 00	 mov	 eax, DWORD PTR ?__LINE__Var@?0??create_client@@YGPAUENTITY@@W4ENTITY_TYPES@@HPAD@Z@4JA
  00057	83 c0 0c	 add	 eax, 12			; 0000000cH
  0005a	50		 push	 eax
  0005b	68 00 00 00 00	 push	 OFFSET ??_C@_0EL@MFCJAGLA@c?3?2users?2nhv90?2projects?2eech?2ap@
  00060	68 00 00 00 00	 push	 OFFSET ??_C@_0CB@CFOCLFOK@assert_client_server_local_fn?5?$CI@
  00065	e8 00 00 00 00	 call	 ?process_assert@@YGXPBD0H@Z ; process_assert
$LN5@create_cli:

; 256  : 
; 257  : 		en = create_local (type, index, pargs);

  0006a	8b 45 10	 mov	 eax, DWORD PTR _pargs$[ebp]
  0006d	50		 push	 eax
  0006e	8b 4d 0c	 mov	 ecx, DWORD PTR _index$[ebp]
  00071	51		 push	 ecx
  00072	8b 55 08	 mov	 edx, DWORD PTR _type$[ebp]
  00075	52		 push	 edx
  00076	e8 00 00 00 00	 call	 ?create_local@@YGPAUENTITY@@W4ENTITY_TYPES@@HPAD@Z ; create_local
  0007b	89 45 fc	 mov	 DWORD PTR _en$[ebp], eax
$LN3@create_cli:

; 258  : 	}
; 259  : 
; 260  : 	return (en);

  0007e	8b 45 fc	 mov	 eax, DWORD PTR _en$[ebp]

; 261  : }

  00081	5f		 pop	 edi
  00082	5e		 pop	 esi
  00083	5b		 pop	 ebx
  00084	8b e5		 mov	 esp, ebp
  00086	5d		 pop	 ebp
  00087	c2 0c 00	 ret	 12			; 0000000cH
?create_client@@YGPAUENTITY@@W4ENTITY_TYPES@@HPAD@Z ENDP ; create_client
_TEXT	ENDS
; Function compile flags: /Odtp /ZI
; File c:\users\nhv90\projects\eech\aphavoc\source\entity\fixed\object\ob_creat.c
;	COMDAT ?create_server@@YGPAUENTITY@@W4ENTITY_TYPES@@HPAD@Z
_TEXT	SEGMENT
_en$ = -4						; size = 4
_type$ = 8						; size = 4
_index$ = 12						; size = 4
_pargs$ = 16						; size = 4
?create_server@@YGPAUENTITY@@W4ENTITY_TYPES@@HPAD@Z PROC ; create_server, COMDAT

; 220  : {

  00000	55		 push	 ebp
  00001	8b ec		 mov	 ebp, esp
  00003	83 ec 44	 sub	 esp, 68			; 00000044H
  00006	53		 push	 ebx
  00007	56		 push	 esi
  00008	57		 push	 edi

; 221  : 	entity
; 222  : 		*en;
; 223  : 
; 224  : 	validate_client_server_local_fn ();

  00009	e8 00 00 00 00	 call	 ?assert_client_server_local_fn@@YGHXZ ; assert_client_server_local_fn
  0000e	85 c0		 test	 eax, eax
  00010	75 18		 jne	 SHORT $LN2@create_ser
  00012	a1 00 00 00 00	 mov	 eax, DWORD PTR ?__LINE__Var@?0??create_server@@YGPAUENTITY@@W4ENTITY_TYPES@@HPAD@Z@4JA
  00017	83 c0 04	 add	 eax, 4
  0001a	50		 push	 eax
  0001b	68 00 00 00 00	 push	 OFFSET ??_C@_0EL@MFCJAGLA@c?3?2users?2nhv90?2projects?2eech?2ap@
  00020	68 00 00 00 00	 push	 OFFSET ??_C@_0CB@CFOCLFOK@assert_client_server_local_fn?5?$CI@
  00025	e8 00 00 00 00	 call	 ?process_assert@@YGXPBD0H@Z ; process_assert
$LN2@create_ser:

; 225  : 
; 226  : 	en = create_local (type, index, pargs);

  0002a	8b 45 10	 mov	 eax, DWORD PTR _pargs$[ebp]
  0002d	50		 push	 eax
  0002e	8b 4d 0c	 mov	 ecx, DWORD PTR _index$[ebp]
  00031	51		 push	 ecx
  00032	8b 55 08	 mov	 edx, DWORD PTR _type$[ebp]
  00035	52		 push	 edx
  00036	e8 00 00 00 00	 call	 ?create_local@@YGPAUENTITY@@W4ENTITY_TYPES@@HPAD@Z ; create_local
  0003b	89 45 fc	 mov	 DWORD PTR _en$[ebp], eax

; 227  : 
; 228  : 	if (en)

  0003e	83 7d fc 00	 cmp	 DWORD PTR _en$[ebp], 0
  00042	74 3b		 je	 SHORT $LN3@create_ser

; 229  : 	{
; 230  : 		validate_client_server_remote_fn ();

  00044	e8 00 00 00 00	 call	 ?assert_client_server_remote_fn@@YGHXZ ; assert_client_server_remote_fn
  00049	85 c0		 test	 eax, eax
  0004b	75 18		 jne	 SHORT $LN4@create_ser
  0004d	a1 00 00 00 00	 mov	 eax, DWORD PTR ?__LINE__Var@?0??create_server@@YGPAUENTITY@@W4ENTITY_TYPES@@HPAD@Z@4JA
  00052	83 c0 0a	 add	 eax, 10			; 0000000aH
  00055	50		 push	 eax
  00056	68 00 00 00 00	 push	 OFFSET ??_C@_0EL@MFCJAGLA@c?3?2users?2nhv90?2projects?2eech?2ap@
  0005b	68 00 00 00 00	 push	 OFFSET ??_C@_0CC@BNNNEGEG@assert_client_server_remote_fn?5@
  00060	e8 00 00 00 00	 call	 ?process_assert@@YGXPBD0H@Z ; process_assert
$LN4@create_ser:

; 231  : 
; 232  : 		create_remote (type, get_local_entity_index (en), pargs);

  00065	8b 45 10	 mov	 eax, DWORD PTR _pargs$[ebp]
  00068	50		 push	 eax
  00069	8b 4d fc	 mov	 ecx, DWORD PTR _en$[ebp]
  0006c	2b 0d 00 00 00
	00		 sub	 ecx, DWORD PTR ?entities@@3PAUENTITY@@A ; entities
  00072	c1 f9 04	 sar	 ecx, 4
  00075	51		 push	 ecx
  00076	8b 55 08	 mov	 edx, DWORD PTR _type$[ebp]
  00079	52		 push	 edx
  0007a	e8 00 00 00 00	 call	 ?create_remote@@YGPAUENTITY@@W4ENTITY_TYPES@@HPAD@Z ; create_remote
$LN3@create_ser:

; 233  : 	}
; 234  : 
; 235  : 	return (en);

  0007f	8b 45 fc	 mov	 eax, DWORD PTR _en$[ebp]

; 236  : }

  00082	5f		 pop	 edi
  00083	5e		 pop	 esi
  00084	5b		 pop	 ebx
  00085	8b e5		 mov	 esp, ebp
  00087	5d		 pop	 ebp
  00088	c2 0c 00	 ret	 12			; 0000000cH
?create_server@@YGPAUENTITY@@W4ENTITY_TYPES@@HPAD@Z ENDP ; create_server
_TEXT	ENDS
; Function compile flags: /Odtp /ZI
; File c:\users\nhv90\projects\eech\aphavoc\source\entity\fixed\object\ob_creat.c
;	COMDAT ?create_remote@@YGPAUENTITY@@W4ENTITY_TYPES@@HPAD@Z
_TEXT	SEGMENT
_type$ = 8						; size = 4
_index$ = 12						; size = 4
_pargs$ = 16						; size = 4
?create_remote@@YGPAUENTITY@@W4ENTITY_TYPES@@HPAD@Z PROC ; create_remote, COMDAT

; 201  : {

  00000	55		 push	 ebp
  00001	8b ec		 mov	 ebp, esp
  00003	83 ec 40	 sub	 esp, 64			; 00000040H
  00006	53		 push	 ebx
  00007	56		 push	 esi
  00008	57		 push	 edi

; 202  : 	validate_remote_create_entity_index (index);

  00009	8b 45 0c	 mov	 eax, DWORD PTR _index$[ebp]
  0000c	50		 push	 eax
  0000d	e8 00 00 00 00	 call	 ?assert_remote_create_entity_index@@YGHH@Z ; assert_remote_create_entity_index
  00012	85 c0		 test	 eax, eax
  00014	75 18		 jne	 SHORT $LN2@create_rem
  00016	a1 00 00 00 00	 mov	 eax, DWORD PTR ?__LINE__Var@?0??create_remote@@YGPAUENTITY@@W4ENTITY_TYPES@@HPAD@Z@4JA
  0001b	83 c0 01	 add	 eax, 1
  0001e	50		 push	 eax
  0001f	68 00 00 00 00	 push	 OFFSET ??_C@_0EL@MFCJAGLA@c?3?2users?2nhv90?2projects?2eech?2ap@
  00024	68 00 00 00 00	 push	 OFFSET ??_C@_0CM@DHBIKIGD@assert_remote_create_entity_ind@
  00029	e8 00 00 00 00	 call	 ?process_assert@@YGXPBD0H@Z ; process_assert
$LN2@create_rem:

; 203  : 
; 204  : 	#if DEBUG_MODULE
; 205  : 
; 206  : 	debug_log_entity_args (ENTITY_DEBUG_REMOTE, ENTITY_DEBUG_CREATE, NULL, type, index);
; 207  : 
; 208  : 	#endif
; 209  : 
; 210  : 	transmit_entity_comms_message (ENTITY_COMMS_CREATE, NULL, type, index, pargs);

  0002e	8b 45 10	 mov	 eax, DWORD PTR _pargs$[ebp]
  00031	50		 push	 eax
  00032	8b 4d 0c	 mov	 ecx, DWORD PTR _index$[ebp]
  00035	51		 push	 ecx
  00036	8b 55 08	 mov	 edx, DWORD PTR _type$[ebp]
  00039	52		 push	 edx
  0003a	6a 00		 push	 0
  0003c	6a 08		 push	 8
  0003e	e8 00 00 00 00	 call	 ?transmit_entity_comms_message@@YAXW4ENTITY_COMMS_MESSAGES@@PAUENTITY@@ZZ ; transmit_entity_comms_message
  00043	83 c4 14	 add	 esp, 20			; 00000014H

; 211  : 
; 212  : 	return (NULL);

  00046	33 c0		 xor	 eax, eax

; 213  : }

  00048	5f		 pop	 edi
  00049	5e		 pop	 esi
  0004a	5b		 pop	 ebx
  0004b	8b e5		 mov	 esp, ebp
  0004d	5d		 pop	 ebp
  0004e	c2 0c 00	 ret	 12			; 0000000cH
?create_remote@@YGPAUENTITY@@W4ENTITY_TYPES@@HPAD@Z ENDP ; create_remote
_TEXT	ENDS
; Function compile flags: /Odtp /ZI
; File c:\users\nhv90\projects\eech\aphavoc\source\entity\fixed\object\ob_creat.c
;	COMDAT ?create_local@@YGPAUENTITY@@W4ENTITY_TYPES@@HPAD@Z
_TEXT	SEGMENT
_raw$ = -8						; size = 4
_en$ = -4						; size = 4
_type$ = 8						; size = 4
_index$ = 12						; size = 4
_pargs$ = 16						; size = 4
?create_local@@YGPAUENTITY@@W4ENTITY_TYPES@@HPAD@Z PROC	; create_local, COMDAT

; 80   : {

  00000	55		 push	 ebp
  00001	8b ec		 mov	 ebp, esp
  00003	83 ec 48	 sub	 esp, 72			; 00000048H
  00006	53		 push	 ebx
  00007	56		 push	 esi
  00008	57		 push	 edi

; 81   : 	entity
; 82   : 		*en;
; 83   : 
; 84   : 	object
; 85   : 		*raw;
; 86   : 
; 87   : 	////////////////////////////////////////
; 88   :   	//
; 89   :   	// VALIDATE
; 90   :   	//
; 91   : 	////////////////////////////////////////
; 92   : 
; 93   : 	validate_local_create_entity_index (index);

  00009	8b 45 0c	 mov	 eax, DWORD PTR _index$[ebp]
  0000c	50		 push	 eax
  0000d	e8 00 00 00 00	 call	 ?assert_local_create_entity_index@@YGHH@Z ; assert_local_create_entity_index
  00012	85 c0		 test	 eax, eax
  00014	75 18		 jne	 SHORT $LN2@create_loc
  00016	a1 00 00 00 00	 mov	 eax, DWORD PTR ?__LINE__Var@?0??create_local@@YGPAUENTITY@@W4ENTITY_TYPES@@HPAD@Z@4JA
  0001b	83 c0 0d	 add	 eax, 13			; 0000000dH
  0001e	50		 push	 eax
  0001f	68 00 00 00 00	 push	 OFFSET ??_C@_0EL@MFCJAGLA@c?3?2users?2nhv90?2projects?2eech?2ap@
  00024	68 00 00 00 00	 push	 OFFSET ??_C@_0CL@OOPHFNJI@assert_local_create_entity_inde@
  00029	e8 00 00 00 00	 call	 ?process_assert@@YGXPBD0H@Z ; process_assert
$LN2@create_loc:

; 94   : 
; 95   : 	#if DEBUG_MODULE
; 96   : 
; 97   : 	debug_log_entity_args (ENTITY_DEBUG_LOCAL, ENTITY_DEBUG_CREATE, NULL, type, index);
; 98   : 
; 99   : 	#endif
; 100  : 
; 101  : 	en = get_free_entity (index);

  0002e	8b 45 0c	 mov	 eax, DWORD PTR _index$[ebp]
  00031	50		 push	 eax
  00032	e8 00 00 00 00	 call	 ?get_free_entity@@YGPAUENTITY@@H@Z ; get_free_entity
  00037	89 45 fc	 mov	 DWORD PTR _en$[ebp], eax

; 102  : 
; 103  : 	if (en)

  0003a	83 7d fc 00	 cmp	 DWORD PTR _en$[ebp], 0
  0003e	0f 84 39 01 00
	00		 je	 $LN3@create_loc

; 104  : 	{
; 105  : 		////////////////////////////////////////
; 106  :    	//
; 107  :    	// MALLOC ENTITY DATA
; 108  :    	//
; 109  : 		////////////////////////////////////////
; 110  : 
; 111  : 		set_local_entity_type (en, type);

  00044	8b 45 fc	 mov	 eax, DWORD PTR _en$[ebp]
  00047	8b 4d 08	 mov	 ecx, DWORD PTR _type$[ebp]
  0004a	89 08		 mov	 DWORD PTR [eax], ecx

; 112  : 
; 113  : 		raw = (object *) malloc_fast_mem (sizeof (object));

  0004c	6a 4c		 push	 76			; 0000004cH
  0004e	e8 00 00 00 00	 call	 ?malloc_fast_memory@@YGPAXI@Z ; malloc_fast_memory
  00053	89 45 f8	 mov	 DWORD PTR _raw$[ebp], eax

; 114  : 
; 115  : 		set_local_entity_data (en, raw);

  00056	8b 45 fc	 mov	 eax, DWORD PTR _en$[ebp]
  00059	8b 4d f8	 mov	 ecx, DWORD PTR _raw$[ebp]
  0005c	89 48 04	 mov	 DWORD PTR [eax+4], ecx

; 116  : 
; 117  : 		////////////////////////////////////////
; 118  :    	//
; 119  :    	// INITIALISE ALL ENTITY DATA TO 'WORKING' DEFAULT VALUES
; 120  : 		//
; 121  : 		// DO NOT USE ACCESS FUNCTIONS
; 122  : 		//
; 123  : 		// DO NOT USE RANDOM VALUES
; 124  : 		//
; 125  : 		////////////////////////////////////////
; 126  : 
; 127  : 		memset (raw, 0, sizeof (object));

  0005f	6a 4c		 push	 76			; 0000004cH
  00061	6a 00		 push	 0
  00063	8b 45 f8	 mov	 eax, DWORD PTR _raw$[ebp]
  00066	50		 push	 eax
  00067	e8 00 00 00 00	 call	 _memset
  0006c	83 c4 0c	 add	 esp, 12			; 0000000cH

; 128  : 
; 129  : 		//
; 130  : 		// fixed
; 131  : 		//
; 132  : 
; 133  : 		raw->fix.position.x = MID_MAP_X;

  0006f	8b 45 f8	 mov	 eax, DWORD PTR _raw$[ebp]
  00072	f3 0f 10 05 30
	00 00 00	 movss	 xmm0, DWORD PTR ?world_map@@3UWORLD_MAP_DATA@@A+48
  0007a	f3 0f 11 00	 movss	 DWORD PTR [eax], xmm0

; 134  : 		raw->fix.position.y = MID_MAP_Y;

  0007e	8b 45 f8	 mov	 eax, DWORD PTR _raw$[ebp]
  00081	f3 0f 10 05 34
	00 00 00	 movss	 xmm0, DWORD PTR ?world_map@@3UWORLD_MAP_DATA@@A+52
  00089	f3 0f 11 40 04	 movss	 DWORD PTR [eax+4], xmm0

; 135  : 		raw->fix.position.z = MID_MAP_Z;

  0008e	8b 45 f8	 mov	 eax, DWORD PTR _raw$[ebp]
  00091	f3 0f 10 05 38
	00 00 00	 movss	 xmm0, DWORD PTR ?world_map@@3UWORLD_MAP_DATA@@A+56
  00099	f3 0f 11 40 08	 movss	 DWORD PTR [eax+8], xmm0

; 136  : 
; 137  : 		raw->fix.sub_type = ENTITY_SUB_TYPE_FIXED_UNKNOWN;

  0009e	8b 45 f8	 mov	 eax, DWORD PTR _raw$[ebp]
  000a1	8b 48 38	 mov	 ecx, DWORD PTR [eax+56]
  000a4	81 e1 00 ff ff
	ff		 and	 ecx, -256		; ffffff00H
  000aa	8b 55 f8	 mov	 edx, DWORD PTR _raw$[ebp]
  000ad	89 4a 38	 mov	 DWORD PTR [edx+56], ecx

; 138  : 
; 139  : 		raw->fix.object_3d_shape = OBJECT_3D_INVALID_OBJECT_INDEX;

  000b0	8b 45 f8	 mov	 eax, DWORD PTR _raw$[ebp]
  000b3	8b 48 38	 mov	 ecx, DWORD PTR [eax+56]
  000b6	81 e1 ff 00 f0
	ff		 and	 ecx, -1048321		; fff000ffH
  000bc	8b 55 f8	 mov	 edx, DWORD PTR _raw$[ebp]
  000bf	89 4a 38	 mov	 DWORD PTR [edx+56], ecx

; 140  : 
; 141  : 		raw->fix.alive = TRUE;

  000c2	8b 45 f8	 mov	 eax, DWORD PTR _raw$[ebp]
  000c5	8b 48 38	 mov	 ecx, DWORD PTR [eax+56]
  000c8	81 c9 00 00 10
	00		 or	 ecx, 1048576		; 00100000H
  000ce	8b 55 f8	 mov	 edx, DWORD PTR _raw$[ebp]
  000d1	89 4a 38	 mov	 DWORD PTR [edx+56], ecx

; 142  : 
; 143  : 		raw->fix.side = ENTITY_SIDE_NEUTRAL;

  000d4	8b 45 f8	 mov	 eax, DWORD PTR _raw$[ebp]
  000d7	8b 48 38	 mov	 ecx, DWORD PTR [eax+56]
  000da	81 e1 ff ff 9f
	ff		 and	 ecx, -6291457		; ff9fffffH
  000e0	8b 55 f8	 mov	 edx, DWORD PTR _raw$[ebp]
  000e3	89 4a 38	 mov	 DWORD PTR [edx+56], ecx

; 144  : 
; 145  : 		//
; 146  : 		// object
; 147  : 		//
; 148  : 
; 149  : 		raw->object_scaling.x = 1.0;

  000e6	8b 45 f8	 mov	 eax, DWORD PTR _raw$[ebp]
  000e9	f3 0f 10 05 00
	00 00 00	 movss	 xmm0, DWORD PTR __real@3f800000
  000f1	f3 0f 11 40 40	 movss	 DWORD PTR [eax+64], xmm0

; 150  : 		raw->object_scaling.y = 1.0;

  000f6	8b 45 f8	 mov	 eax, DWORD PTR _raw$[ebp]
  000f9	f3 0f 10 05 00
	00 00 00	 movss	 xmm0, DWORD PTR __real@3f800000
  00101	f3 0f 11 40 44	 movss	 DWORD PTR [eax+68], xmm0

; 151  : 		raw->object_scaling.z = 1.0;

  00106	8b 45 f8	 mov	 eax, DWORD PTR _raw$[ebp]
  00109	f3 0f 10 05 00
	00 00 00	 movss	 xmm0, DWORD PTR __real@3f800000
  00111	f3 0f 11 40 48	 movss	 DWORD PTR [eax+72], xmm0

; 152  : 
; 153  : 		////////////////////////////////////////
; 154  : 		//
; 155  : 		// OVERWRITE DEFAULT VALUES WITH GIVEN ATTRIBUTES
; 156  : 		//
; 157  : 		////////////////////////////////////////
; 158  : 
; 159  : 		set_local_entity_attributes (en, pargs);

  00116	8b 45 10	 mov	 eax, DWORD PTR _pargs$[ebp]
  00119	50		 push	 eax
  0011a	8b 4d fc	 mov	 ecx, DWORD PTR _en$[ebp]
  0011d	51		 push	 ecx
  0011e	e8 00 00 00 00	 call	 ?set_local_entity_attributes@@YGXPAUENTITY@@PAD@Z ; set_local_entity_attributes

; 160  : 
; 161  : 		////////////////////////////////////////
; 162  : 		//
; 163  : 		// CHECK MANDATORY ATTRIBUTES HAVE BEEN GIVEN
; 164  : 		//
; 165  : 		////////////////////////////////////////
; 166  : 
; 167  : 		////////////////////////////////////////
; 168  : 		//
; 169  : 		// RESOLVE DEFAULT VALUES
; 170  : 		//
; 171  : 		////////////////////////////////////////
; 172  : 
; 173  : 		if (raw->fix.object_3d_shape == OBJECT_3D_INVALID_OBJECT_INDEX)

  00123	8b 45 f8	 mov	 eax, DWORD PTR _raw$[ebp]
  00126	8b 48 38	 mov	 ecx, DWORD PTR [eax+56]
  00129	c1 e9 08	 shr	 ecx, 8
  0012c	81 e1 ff 0f 00
	00		 and	 ecx, 4095		; 00000fffH
  00132	75 32		 jne	 SHORT $LN4@create_loc

; 174  : 		{
; 175  : 			raw->fix.object_3d_shape = fixed_database[raw->fix.sub_type].default_3d_shape;

  00134	8b 45 f8	 mov	 eax, DWORD PTR _raw$[ebp]
  00137	8b 48 38	 mov	 ecx, DWORD PTR [eax+56]
  0013a	81 e1 ff 00 00
	00		 and	 ecx, 255		; 000000ffH
  00140	c1 e1 04	 shl	 ecx, 4
  00143	8b 91 00 00 00
	00		 mov	 edx, DWORD PTR ?fixed_database@@3QBUFIXED_DATA@@B[ecx]
  00149	81 e2 ff 0f 00
	00		 and	 edx, 4095		; 00000fffH
  0014f	c1 e2 08	 shl	 edx, 8
  00152	8b 45 f8	 mov	 eax, DWORD PTR _raw$[ebp]
  00155	8b 48 38	 mov	 ecx, DWORD PTR [eax+56]
  00158	81 e1 ff 00 f0
	ff		 and	 ecx, -1048321		; fff000ffH
  0015e	0b ca		 or	 ecx, edx
  00160	8b 55 f8	 mov	 edx, DWORD PTR _raw$[ebp]
  00163	89 4a 38	 mov	 DWORD PTR [edx+56], ecx
$LN4@create_loc:

; 176  : 		}
; 177  : 
; 178  : 		////////////////////////////////////////
; 179  : 		//
; 180  : 		// BUILD COMPONENTS
; 181  : 		//
; 182  : 		////////////////////////////////////////
; 183  : 
; 184  : 		////////////////////////////////////////
; 185  : 		//
; 186  : 		// LINK INTO SYSTEM
; 187  : 		//
; 188  : 		////////////////////////////////////////
; 189  : 
; 190  : 		insert_local_entity_into_parents_child_list (en, LIST_TYPE_SECTOR, get_local_sector_entity (&raw->fix.position), NULL);

  00166	6a 00		 push	 0
  00168	8b 45 f8	 mov	 eax, DWORD PTR _raw$[ebp]
  0016b	50		 push	 eax
  0016c	e8 00 00 00 00	 call	 ?get_local_sector_entity@@YGPAUENTITY@@PAUVEC3D@@@Z ; get_local_sector_entity
  00171	50		 push	 eax
  00172	6a 21		 push	 33			; 00000021H
  00174	8b 4d fc	 mov	 ecx, DWORD PTR _en$[ebp]
  00177	51		 push	 ecx
  00178	e8 00 00 00 00	 call	 ?insert_local_entity_into_parents_child_list@@YGXPAUENTITY@@W4LIST_TYPES@@00@Z ; insert_local_entity_into_parents_child_list
$LN3@create_loc:

; 191  : 	}
; 192  : 
; 193  : 	return (en);

  0017d	8b 45 fc	 mov	 eax, DWORD PTR _en$[ebp]

; 194  : }

  00180	5f		 pop	 edi
  00181	5e		 pop	 esi
  00182	5b		 pop	 ebx
  00183	8b e5		 mov	 esp, ebp
  00185	5d		 pop	 ebp
  00186	c2 0c 00	 ret	 12			; 0000000cH
?create_local@@YGPAUENTITY@@W4ENTITY_TYPES@@HPAD@Z ENDP	; create_local
_TEXT	ENDS
; Function compile flags: /Odtp /ZI
; File c:\users\nhv90\projects\eech\aphavoc\source\entity\fixed\object\ob_creat.c
;	COMDAT ?overload_object_create_functions@@YGXXZ
_TEXT	SEGMENT
?overload_object_create_functions@@YGXXZ PROC		; overload_object_create_functions, COMDAT

; 268  : {

  00000	55		 push	 ebp
  00001	8b ec		 mov	 ebp, esp
  00003	83 ec 40	 sub	 esp, 64			; 00000040H
  00006	53		 push	 ebx
  00007	56		 push	 esi
  00008	57		 push	 edi

; 269  : 	fn_create_local_entity[ENTITY_TYPE_OBJECT]		  								= create_local;

  00009	b8 04 00 00 00	 mov	 eax, 4
  0000e	6b c8 11	 imul	 ecx, eax, 17
  00011	c7 81 00 00 00
	00 00 00 00 00	 mov	 DWORD PTR ?fn_create_local_entity@@3PAP6GPAUENTITY@@W4ENTITY_TYPES@@HPAD@ZA[ecx], OFFSET ?create_local@@YGPAUENTITY@@W4ENTITY_TYPES@@HPAD@Z ; create_local

; 270  : 
; 271  : 	fn_create_client_server_entity[ENTITY_TYPE_OBJECT][COMMS_MODEL_SERVER]	= create_server;

  0001b	b8 08 00 00 00	 mov	 eax, 8
  00020	6b c8 11	 imul	 ecx, eax, 17
  00023	ba 04 00 00 00	 mov	 edx, 4
  00028	6b c2 00	 imul	 eax, edx, 0
  0002b	c7 84 01 00 00
	00 00 00 00 00
	00		 mov	 DWORD PTR ?fn_create_client_server_entity@@3PAY01P6GPAUENTITY@@W4ENTITY_TYPES@@HPAD@ZA[ecx+eax], OFFSET ?create_server@@YGPAUENTITY@@W4ENTITY_TYPES@@HPAD@Z ; create_server

; 272  : 
; 273  : 	fn_create_client_server_entity[ENTITY_TYPE_OBJECT][COMMS_MODEL_CLIENT]	= create_client;

  00036	b8 08 00 00 00	 mov	 eax, 8
  0003b	6b c8 11	 imul	 ecx, eax, 17
  0003e	ba 04 00 00 00	 mov	 edx, 4
  00043	c1 e2 00	 shl	 edx, 0
  00046	c7 84 11 00 00
	00 00 00 00 00
	00		 mov	 DWORD PTR ?fn_create_client_server_entity@@3PAY01P6GPAUENTITY@@W4ENTITY_TYPES@@HPAD@ZA[ecx+edx], OFFSET ?create_client@@YGPAUENTITY@@W4ENTITY_TYPES@@HPAD@Z ; create_client

; 274  : }

  00051	5f		 pop	 edi
  00052	5e		 pop	 esi
  00053	5b		 pop	 ebx
  00054	8b e5		 mov	 esp, ebp
  00056	5d		 pop	 ebp
  00057	c3		 ret	 0
?overload_object_create_functions@@YGXXZ ENDP		; overload_object_create_functions
_TEXT	ENDS
END
