; Listing generated by Microsoft (R) Optimizing Compiler Version 19.16.27045.0 

	TITLE	C:\Users\nhv90\Projects\eech\aphavoc\source\entity\fixed\object\ob_pack.c
	.686P
	.XMM
	include listing.inc
	.model	flat

INCLUDELIB MSVCRTD
INCLUDELIB OLDNAMES

PUBLIC	?overload_object_pack_functions@@YGXXZ		; overload_object_pack_functions
PUBLIC	?__LINE__Var@?0??pack_local_data@@YGXPAUENTITY@@W4PACK_MODES@@@Z@4JA ; `pack_local_data'::`1'::__LINE__Var
PUBLIC	??_C@_0EK@FAPDEHNG@c?3?2users?2nhv90?2projects?2eech?2ap@ ; `string'
PUBLIC	??_C@_0CH@MMFDPOBJ@?$CImode?5?$DO?$DN?50?$CJ?5?$CG?$CG?5?$CImode?5?$DM?5NUM_PACK@ ; `string'
PUBLIC	?__LINE__Var@?0??unpack_local_data@@YGXPAUENTITY@@W4ENTITY_TYPES@@W4PACK_MODES@@@Z@4JA ; `unpack_local_data'::`1'::__LINE__Var
EXTRN	?process_assert@@YGXPBD0H@Z:PROC		; process_assert
EXTRN	?fn_pack_local_entity_data@@3PAP6GXPAUENTITY@@W4PACK_MODES@@@ZA:BYTE ; fn_pack_local_entity_data
EXTRN	?fn_unpack_local_entity_data@@3PAP6GXPAUENTITY@@W4ENTITY_TYPES@@W4PACK_MODES@@@ZA:BYTE ; fn_unpack_local_entity_data
;	COMDAT ?__LINE__Var@?0??unpack_local_data@@YGXPAUENTITY@@W4ENTITY_TYPES@@W4PACK_MODES@@@Z@4JA
_DATA	SEGMENT
?__LINE__Var@?0??unpack_local_data@@YGXPAUENTITY@@W4ENTITY_TYPES@@W4PACK_MODES@@@Z@4JA DD 07fH ; `unpack_local_data'::`1'::__LINE__Var
_DATA	ENDS
;	COMDAT ??_C@_0CH@MMFDPOBJ@?$CImode?5?$DO?$DN?50?$CJ?5?$CG?$CG?5?$CImode?5?$DM?5NUM_PACK@
CONST	SEGMENT
??_C@_0CH@MMFDPOBJ@?$CImode?5?$DO?$DN?50?$CJ?5?$CG?$CG?5?$CImode?5?$DM?5NUM_PACK@ DB '('
	DB	'mode >= 0) && (mode < NUM_PACK_MODES)', 00H	; `string'
CONST	ENDS
;	COMDAT ??_C@_0EK@FAPDEHNG@c?3?2users?2nhv90?2projects?2eech?2ap@
CONST	SEGMENT
??_C@_0EK@FAPDEHNG@c?3?2users?2nhv90?2projects?2eech?2ap@ DB 'c:\users\nh'
	DB	'v90\projects\eech\aphavoc\source\entity\fixed\object\ob_pack.'
	DB	'c', 00H					; `string'
CONST	ENDS
;	COMDAT ?__LINE__Var@?0??pack_local_data@@YGXPAUENTITY@@W4PACK_MODES@@@Z@4JA
_DATA	SEGMENT
?__LINE__Var@?0??pack_local_data@@YGXPAUENTITY@@W4PACK_MODES@@@Z@4JA DD 050H ; `pack_local_data'::`1'::__LINE__Var
_DATA	ENDS
; Function compile flags: /Odtp /ZI
; File c:\users\nhv90\projects\eech\aphavoc\source\entity\fixed\object\ob_pack.c
;	COMDAT ?unpack_local_data@@YGXPAUENTITY@@W4ENTITY_TYPES@@W4PACK_MODES@@@Z
_TEXT	SEGMENT
tv70 = -68						; size = 4
_en$ = 8						; size = 4
_type$ = 12						; size = 4
_mode$ = 16						; size = 4
?unpack_local_data@@YGXPAUENTITY@@W4ENTITY_TYPES@@W4PACK_MODES@@@Z PROC ; unpack_local_data, COMDAT

; 127  : {

  00000	55		 push	 ebp
  00001	8b ec		 mov	 ebp, esp
  00003	83 ec 44	 sub	 esp, 68			; 00000044H
  00006	53		 push	 ebx
  00007	56		 push	 esi
  00008	57		 push	 edi

; 128  : 	ASSERT ((mode >= 0) && (mode < NUM_PACK_MODES));

  00009	83 7d 10 00	 cmp	 DWORD PTR _mode$[ebp], 0
  0000d	7c 06		 jl	 SHORT $LN5@unpack_loc
  0000f	83 7d 10 04	 cmp	 DWORD PTR _mode$[ebp], 4
  00013	7c 18		 jl	 SHORT $LN4@unpack_loc
$LN5@unpack_loc:
  00015	a1 00 00 00 00	 mov	 eax, DWORD PTR ?__LINE__Var@?0??unpack_local_data@@YGXPAUENTITY@@W4ENTITY_TYPES@@W4PACK_MODES@@@Z@4JA
  0001a	83 c0 01	 add	 eax, 1
  0001d	50		 push	 eax
  0001e	68 00 00 00 00	 push	 OFFSET ??_C@_0EK@FAPDEHNG@c?3?2users?2nhv90?2projects?2eech?2ap@
  00023	68 00 00 00 00	 push	 OFFSET ??_C@_0CH@MMFDPOBJ@?$CImode?5?$DO?$DN?50?$CJ?5?$CG?$CG?5?$CImode?5?$DM?5NUM_PACK@
  00028	e8 00 00 00 00	 call	 ?process_assert@@YGXPBD0H@Z ; process_assert
$LN4@unpack_loc:

; 129  : 
; 130  : 	switch (mode)

  0002d	8b 45 10	 mov	 eax, DWORD PTR _mode$[ebp]
  00030	89 45 bc	 mov	 DWORD PTR tv70[ebp], eax

; 131  : 	{
; 132  : 		////////////////////////////////////////
; 133  : 		case PACK_MODE_SERVER_SESSION:
; 134  : 		////////////////////////////////////////
; 135  : 		/*
; 136  : 		{
; 137  : 			int
; 138  : 				index;
; 139  : 
; 140  : 			object
; 141  : 				*raw;
; 142  : 
; 143  : 			//
; 144  : 			// create entity
; 145  : 			//
; 146  : 
; 147  : 			index = unpack_entity_safe_index ();
; 148  : 
; 149  : 			en = get_free_entity (index);
; 150  : 
; 151  : 			set_local_entity_type (en, type);
; 152  : 
; 153  : 			raw = malloc_fast_mem (sizeof (object));
; 154  : 
; 155  : 			set_local_entity_data (en, raw);
; 156  : 
; 157  : 			memset (raw, 0, sizeof (object));
; 158  : 
; 159  : 			//
; 160  : 			// unpack data (in exactly the same order as the data was packed)
; 161  : 			//
; 162  : 
; 163  : 			//
; 164  : 			// fixed
; 165  : 			//
; 166  : 
; 167  : 			unpack_fixed_data (en, &raw->fix, mode);
; 168  : 
; 169  : 			//
; 170  : 			// object
; 171  : 			//
; 172  : 
; 173  : 			unpack_vec3d (en, VEC3D_TYPE_OBJECT_SCALING, &raw->object_scaling);
; 174  : 
; 175  : 			//
; 176  : 			// link into system
; 177  : 			//
; 178  : 
; 179  : 			insert_local_entity_into_parents_child_list (en, LIST_TYPE_SECTOR, get_local_sector_entity (&raw->fix.position), NULL);
; 180  : 
; 181  : 			break;
; 182  : 		}
; 183  : 		*/
; 184  : 		////////////////////////////////////////
; 185  : 		case PACK_MODE_CLIENT_SESSION:
; 186  : 		case PACK_MODE_BROWSE_SESSION:
; 187  : 		////////////////////////////////////////
; 188  : 		{
; 189  : 			break;
; 190  : 		}
; 191  : 		////////////////////////////////////////
; 192  : 		case PACK_MODE_UPDATE_ENTITY:
; 193  : 		////////////////////////////////////////
; 194  : 		{
; 195  : 			//
; 196  : 			// always use access functions to set the data
; 197  : 			//
; 198  : 
; 199  : 			break;
; 200  : 		}
; 201  : 	}
; 202  : }

  00033	5f		 pop	 edi
  00034	5e		 pop	 esi
  00035	5b		 pop	 ebx
  00036	8b e5		 mov	 esp, ebp
  00038	5d		 pop	 ebp
  00039	c2 0c 00	 ret	 12			; 0000000cH
?unpack_local_data@@YGXPAUENTITY@@W4ENTITY_TYPES@@W4PACK_MODES@@@Z ENDP ; unpack_local_data
_TEXT	ENDS
; Function compile flags: /Odtp /ZI
; File c:\users\nhv90\projects\eech\aphavoc\source\entity\fixed\object\ob_pack.c
;	COMDAT ?pack_local_data@@YGXPAUENTITY@@W4PACK_MODES@@@Z
_TEXT	SEGMENT
tv70 = -68						; size = 4
_en$ = 8						; size = 4
_mode$ = 12						; size = 4
?pack_local_data@@YGXPAUENTITY@@W4PACK_MODES@@@Z PROC	; pack_local_data, COMDAT

; 80   : {

  00000	55		 push	 ebp
  00001	8b ec		 mov	 ebp, esp
  00003	83 ec 44	 sub	 esp, 68			; 00000044H
  00006	53		 push	 ebx
  00007	56		 push	 esi
  00008	57		 push	 edi

; 81   : 	ASSERT ((mode >= 0) && (mode < NUM_PACK_MODES));

  00009	83 7d 0c 00	 cmp	 DWORD PTR _mode$[ebp], 0
  0000d	7c 06		 jl	 SHORT $LN5@pack_local
  0000f	83 7d 0c 04	 cmp	 DWORD PTR _mode$[ebp], 4
  00013	7c 18		 jl	 SHORT $LN4@pack_local
$LN5@pack_local:
  00015	a1 00 00 00 00	 mov	 eax, DWORD PTR ?__LINE__Var@?0??pack_local_data@@YGXPAUENTITY@@W4PACK_MODES@@@Z@4JA
  0001a	83 c0 01	 add	 eax, 1
  0001d	50		 push	 eax
  0001e	68 00 00 00 00	 push	 OFFSET ??_C@_0EK@FAPDEHNG@c?3?2users?2nhv90?2projects?2eech?2ap@
  00023	68 00 00 00 00	 push	 OFFSET ??_C@_0CH@MMFDPOBJ@?$CImode?5?$DO?$DN?50?$CJ?5?$CG?$CG?5?$CImode?5?$DM?5NUM_PACK@
  00028	e8 00 00 00 00	 call	 ?process_assert@@YGXPBD0H@Z ; process_assert
$LN4@pack_local:

; 82   : 
; 83   : 	switch (mode)

  0002d	8b 45 0c	 mov	 eax, DWORD PTR _mode$[ebp]
  00030	89 45 bc	 mov	 DWORD PTR tv70[ebp], eax

; 84   : 	{
; 85   : 		////////////////////////////////////////
; 86   : 		case PACK_MODE_SERVER_SESSION:
; 87   : 		////////////////////////////////////////
; 88   : /*
; 89   : 		{
; 90   : 			object
; 91   : 				*raw;
; 92   : 
; 93   : 			raw = get_local_entity_data (en);
; 94   : 
; 95   : 			pack_entity_type (get_local_entity_type (en));
; 96   : 
; 97   : 			pack_entity_safe_ptr (en);
; 98   : 
; 99   : 			pack_fixed_data (en, &raw->fix, mode);
; 100  : 
; 101  : 			pack_vec3d (en, VEC3D_TYPE_OBJECT_SCALING, &raw->object_scaling);
; 102  : 
; 103  : 			break;
; 104  : 		}
; 105  : 		*/
; 106  : 		////////////////////////////////////////
; 107  : 		case PACK_MODE_CLIENT_SESSION:
; 108  : 		case PACK_MODE_BROWSE_SESSION:
; 109  : 		////////////////////////////////////////
; 110  : 		{
; 111  : 			break;
; 112  : 		}
; 113  : 		////////////////////////////////////////
; 114  : 		case PACK_MODE_UPDATE_ENTITY:
; 115  : 		////////////////////////////////////////
; 116  : 		{
; 117  : 			break;
; 118  : 		}
; 119  : 	}
; 120  : }

  00033	5f		 pop	 edi
  00034	5e		 pop	 esi
  00035	5b		 pop	 ebx
  00036	8b e5		 mov	 esp, ebp
  00038	5d		 pop	 ebp
  00039	c2 08 00	 ret	 8
?pack_local_data@@YGXPAUENTITY@@W4PACK_MODES@@@Z ENDP	; pack_local_data
_TEXT	ENDS
; Function compile flags: /Odtp /ZI
; File c:\users\nhv90\projects\eech\aphavoc\source\entity\fixed\object\ob_pack.c
;	COMDAT ?overload_object_pack_functions@@YGXXZ
_TEXT	SEGMENT
?overload_object_pack_functions@@YGXXZ PROC		; overload_object_pack_functions, COMDAT

; 209  : {

  00000	55		 push	 ebp
  00001	8b ec		 mov	 ebp, esp
  00003	83 ec 40	 sub	 esp, 64			; 00000040H
  00006	53		 push	 ebx
  00007	56		 push	 esi
  00008	57		 push	 edi

; 210  : 	fn_pack_local_entity_data[ENTITY_TYPE_OBJECT]	= pack_local_data;

  00009	b8 04 00 00 00	 mov	 eax, 4
  0000e	6b c8 11	 imul	 ecx, eax, 17
  00011	c7 81 00 00 00
	00 00 00 00 00	 mov	 DWORD PTR ?fn_pack_local_entity_data@@3PAP6GXPAUENTITY@@W4PACK_MODES@@@ZA[ecx], OFFSET ?pack_local_data@@YGXPAUENTITY@@W4PACK_MODES@@@Z ; pack_local_data

; 211  : 
; 212  : 	fn_unpack_local_entity_data[ENTITY_TYPE_OBJECT]	= unpack_local_data;

  0001b	b8 04 00 00 00	 mov	 eax, 4
  00020	6b c8 11	 imul	 ecx, eax, 17
  00023	c7 81 00 00 00
	00 00 00 00 00	 mov	 DWORD PTR ?fn_unpack_local_entity_data@@3PAP6GXPAUENTITY@@W4ENTITY_TYPES@@W4PACK_MODES@@@ZA[ecx], OFFSET ?unpack_local_data@@YGXPAUENTITY@@W4ENTITY_TYPES@@W4PACK_MODES@@@Z ; unpack_local_data

; 213  : }

  0002d	5f		 pop	 edi
  0002e	5e		 pop	 esi
  0002f	5b		 pop	 ebx
  00030	8b e5		 mov	 esp, ebp
  00032	5d		 pop	 ebp
  00033	c3		 ret	 0
?overload_object_pack_functions@@YGXXZ ENDP		; overload_object_pack_functions
_TEXT	ENDS
END
