; Listing generated by Microsoft (R) Optimizing Compiler Version 19.16.27045.0 

	TITLE	C:\Users\nhv90\Projects\eech\aphavoc\source\ui_menu\options\op_commn.c
	.686P
	.XMM
	include listing.inc
	.model	flat

INCLUDELIB MSVCRTD
INCLUDELIB OLDNAMES

PUBLIC	?option_page_ok_button@@3PAUUI_OBJECT@@A	; option_page_ok_button
PUBLIC	?ghost_sound_option_button@@3PAUUI_OBJECT@@A	; ghost_sound_option_button
PUBLIC	?ghost_multiplayer_option_button@@3PAUUI_OBJECT@@A ; ghost_multiplayer_option_button
PUBLIC	?option_page_ok_button_reasons@@3HA		; option_page_ok_button_reasons
_BSS	SEGMENT
?option_page_ok_button@@3PAUUI_OBJECT@@A DD 01H DUP (?)	; option_page_ok_button
?ghost_sound_option_button@@3PAUUI_OBJECT@@A DD 01H DUP (?) ; ghost_sound_option_button
?ghost_multiplayer_option_button@@3PAUUI_OBJECT@@A DD 01H DUP (?) ; ghost_multiplayer_option_button
?option_page_ok_button_reasons@@3HA DD 01H DUP (?)	; option_page_ok_button_reasons
_BSS	ENDS
PUBLIC	?define_options_screen_common_objects@@YGXXZ	; define_options_screen_common_objects
PUBLIC	?set_option_page_ok_button_reason@@YGXW4OPTION_PAGE_OK_BUTTON_REASON@@H@Z ; set_option_page_ok_button_reason
PUBLIC	??_C@_0O@MMGMFNDB@Realism?5Title@		; `string'
PUBLIC	??_C@_0L@BIMOBEIN@SOUND?5MENU@			; `string'
PUBLIC	??_C@_0O@CMENFGPI@DYNAMICS?5MENU@		; `string'
PUBLIC	??_C@_08MKHMICKL@Graphics@			; `string'
PUBLIC	??_C@_0BA@IDLKIDFO@CONTROLLER?5MENU@		; `string'
PUBLIC	??_C@_0P@BIONMHDC@UI_MULTIPLAYER@		; `string'
PUBLIC	??_C@_05LMLILOOH@UI_OK@				; `string'
PUBLIC	??_C@_07EKAIBOKF@Restart@			; `string'
PUBLIC	__real@3d54fdf4
PUBLIC	__real@3d9374bc
PUBLIC	__real@3e0e5604
PUBLIC	__real@3e27ef9e
PUBLIC	__real@3e3e76c9
PUBLIC	__real@3e46a7f0
PUBLIC	__real@3e581062
PUBLIC	__real@3e75c28f
PUBLIC	__real@3e9f3b64
PUBLIC	__real@3ed81062
PUBLIC	__real@3f0ccccd
PUBLIC	__real@3f14fdf4
PUBLIC	__real@3f25e354
PUBLIC	__real@3f266666
PUBLIC	__real@3f3e353f
PUBLIC	__real@3f4b4396
PUBLIC	__real@3f4b851f
PUBLIC	__real@3f595810
PUBLIC	__real@3f66e979
PUBLIC	__real@3fa374bc60000000
PUBLIC	__real@3fa99999a0000000
PUBLIC	__real@3fad2f1aa0000000
PUBLIC	__real@3fc3333340000000
PUBLIC	__real@3fdee978e0000000
PUBLIC	__real@3fea872b00000000
EXTRN	?create_ui_object@@YAPAUUI_OBJECT@@HZZ:PROC	; create_ui_object
EXTRN	?get_trans@@YGPBDPBD@Z:PROC			; get_trans
EXTRN	?notify_options_page@@YGXW4OPTIONS_PAGES@@@Z:PROC ; notify_options_page
EXTRN	?notify_clear_options_screen@@YGXXZ:PROC	; notify_clear_options_screen
EXTRN	?preprocess_translation_object_size@@YGXPAUUI_OBJECT@@0PAPBDHW4RESIZE_UI_OBJECT_TYPES@@@Z:PROC ; preprocess_translation_object_size
EXTRN	?set_text_option_backdrop_object@@YGXPAUUI_OBJECT@@0@Z:PROC ; set_text_option_backdrop_object
EXTRN	?fn_get_ui_object_virtual_x@@3PAP6GMPAUUI_OBJECT@@@ZA:BYTE ; fn_get_ui_object_virtual_x
EXTRN	?fn_get_ui_object_virtual_x_size@@3PAP6GMPAUUI_OBJECT@@@ZA:BYTE ; fn_get_ui_object_virtual_x_size
EXTRN	?fn_get_ui_object_item_number@@3PAP6GHPAUUI_OBJECT@@@ZA:BYTE ; fn_get_ui_object_item_number
EXTRN	?fn_set_ui_object_text@@3PAP6GXPAUUI_OBJECT@@PBD@ZA:BYTE ; fn_set_ui_object_text
EXTRN	?ui_option_text_default_colour@@3UREAL_COLOUR@@A:DWORD ; ui_option_text_default_colour
EXTRN	?ui_option_text_hilite_colour@@3UREAL_COLOUR@@A:DWORD ; ui_option_text_hilite_colour
EXTRN	?text_option_bdrop@@3PAUTEXTURE_GRAPHIC@@A:DWORD ; text_option_bdrop
EXTRN	?options_screen@@3PAUUI_OBJECT@@A:DWORD		; options_screen
EXTRN	?options_page_buttons@@3PAPAUUI_OBJECT@@A:BYTE	; options_page_buttons
EXTRN	__fltused:DWORD
;	COMDAT __real@3fea872b00000000
CONST	SEGMENT
__real@3fea872b00000000 DQ 03fea872b00000000r	; 0.829
CONST	ENDS
;	COMDAT __real@3fdee978e0000000
CONST	SEGMENT
__real@3fdee978e0000000 DQ 03fdee978e0000000r	; 0.483
CONST	ENDS
;	COMDAT __real@3fc3333340000000
CONST	SEGMENT
__real@3fc3333340000000 DQ 03fc3333340000000r	; 0.15
CONST	ENDS
;	COMDAT __real@3fad2f1aa0000000
CONST	SEGMENT
__real@3fad2f1aa0000000 DQ 03fad2f1aa0000000r	; 0.057
CONST	ENDS
;	COMDAT __real@3fa99999a0000000
CONST	SEGMENT
__real@3fa99999a0000000 DQ 03fa99999a0000000r	; 0.05
CONST	ENDS
;	COMDAT __real@3fa374bc60000000
CONST	SEGMENT
__real@3fa374bc60000000 DQ 03fa374bc60000000r	; 0.038
CONST	ENDS
;	COMDAT __real@3f66e979
CONST	SEGMENT
__real@3f66e979 DD 03f66e979r			; 0.902
CONST	ENDS
;	COMDAT __real@3f595810
CONST	SEGMENT
__real@3f595810 DD 03f595810r			; 0.849
CONST	ENDS
;	COMDAT __real@3f4b851f
CONST	SEGMENT
__real@3f4b851f DD 03f4b851fr			; 0.795
CONST	ENDS
;	COMDAT __real@3f4b4396
CONST	SEGMENT
__real@3f4b4396 DD 03f4b4396r			; 0.794
CONST	ENDS
;	COMDAT __real@3f3e353f
CONST	SEGMENT
__real@3f3e353f DD 03f3e353fr			; 0.743
CONST	ENDS
;	COMDAT __real@3f266666
CONST	SEGMENT
__real@3f266666 DD 03f266666r			; 0.65
CONST	ENDS
;	COMDAT __real@3f25e354
CONST	SEGMENT
__real@3f25e354 DD 03f25e354r			; 0.648
CONST	ENDS
;	COMDAT __real@3f14fdf4
CONST	SEGMENT
__real@3f14fdf4 DD 03f14fdf4r			; 0.582
CONST	ENDS
;	COMDAT __real@3f0ccccd
CONST	SEGMENT
__real@3f0ccccd DD 03f0ccccdr			; 0.55
CONST	ENDS
;	COMDAT __real@3ed81062
CONST	SEGMENT
__real@3ed81062 DD 03ed81062r			; 0.422
CONST	ENDS
;	COMDAT __real@3e9f3b64
CONST	SEGMENT
__real@3e9f3b64 DD 03e9f3b64r			; 0.311
CONST	ENDS
;	COMDAT __real@3e75c28f
CONST	SEGMENT
__real@3e75c28f DD 03e75c28fr			; 0.24
CONST	ENDS
;	COMDAT __real@3e581062
CONST	SEGMENT
__real@3e581062 DD 03e581062r			; 0.211
CONST	ENDS
;	COMDAT __real@3e46a7f0
CONST	SEGMENT
__real@3e46a7f0 DD 03e46a7f0r			; 0.194
CONST	ENDS
;	COMDAT __real@3e3e76c9
CONST	SEGMENT
__real@3e3e76c9 DD 03e3e76c9r			; 0.186
CONST	ENDS
;	COMDAT __real@3e27ef9e
CONST	SEGMENT
__real@3e27ef9e DD 03e27ef9er			; 0.164
CONST	ENDS
;	COMDAT __real@3e0e5604
CONST	SEGMENT
__real@3e0e5604 DD 03e0e5604r			; 0.139
CONST	ENDS
;	COMDAT __real@3d9374bc
CONST	SEGMENT
__real@3d9374bc DD 03d9374bcr			; 0.072
CONST	ENDS
;	COMDAT __real@3d54fdf4
CONST	SEGMENT
__real@3d54fdf4 DD 03d54fdf4r			; 0.052
CONST	ENDS
;	COMDAT ??_C@_07EKAIBOKF@Restart@
CONST	SEGMENT
??_C@_07EKAIBOKF@Restart@ DB 'Restart', 00H		; `string'
CONST	ENDS
;	COMDAT ??_C@_05LMLILOOH@UI_OK@
CONST	SEGMENT
??_C@_05LMLILOOH@UI_OK@ DB 'UI_OK', 00H			; `string'
CONST	ENDS
;	COMDAT ??_C@_0P@BIONMHDC@UI_MULTIPLAYER@
CONST	SEGMENT
??_C@_0P@BIONMHDC@UI_MULTIPLAYER@ DB 'UI_MULTIPLAYER', 00H ; `string'
CONST	ENDS
;	COMDAT ??_C@_0BA@IDLKIDFO@CONTROLLER?5MENU@
CONST	SEGMENT
??_C@_0BA@IDLKIDFO@CONTROLLER?5MENU@ DB 'CONTROLLER MENU', 00H ; `string'
CONST	ENDS
;	COMDAT ??_C@_08MKHMICKL@Graphics@
CONST	SEGMENT
??_C@_08MKHMICKL@Graphics@ DB 'Graphics', 00H		; `string'
CONST	ENDS
;	COMDAT ??_C@_0O@CMENFGPI@DYNAMICS?5MENU@
CONST	SEGMENT
??_C@_0O@CMENFGPI@DYNAMICS?5MENU@ DB 'DYNAMICS MENU', 00H ; `string'
CONST	ENDS
;	COMDAT ??_C@_0L@BIMOBEIN@SOUND?5MENU@
CONST	SEGMENT
??_C@_0L@BIMOBEIN@SOUND?5MENU@ DB 'SOUND MENU', 00H	; `string'
CONST	ENDS
;	COMDAT ??_C@_0O@MMGMFNDB@Realism?5Title@
CONST	SEGMENT
??_C@_0O@MMGMFNDB@Realism?5Title@ DB 'Realism Title', 00H ; `string'
CONST	ENDS
; Function compile flags: /Odtp /ZI
; File c:\users\nhv90\projects\eech\aphavoc\source\ui_menu\options\op_commn.c
;	COMDAT ?notify_options_page_button@@YGXPAUUI_OBJECT@@PAX@Z
_TEXT	SEGMENT
_page$ = -4						; size = 4
_obj$ = 8						; size = 4
_arg$ = 12						; size = 4
?notify_options_page_button@@YGXPAUUI_OBJECT@@PAX@Z PROC ; notify_options_page_button, COMDAT

; 86   : {

  00000	55		 push	 ebp
  00001	8b ec		 mov	 ebp, esp
  00003	83 ec 44	 sub	 esp, 68			; 00000044H
  00006	53		 push	 ebx
  00007	56		 push	 esi
  00008	57		 push	 edi

; 87   : 	options_pages
; 88   : 		page;
; 89   : 
; 90   : 	page = (options_pages) get_ui_object_item_number (obj);

  00009	8b 45 08	 mov	 eax, DWORD PTR _obj$[ebp]
  0000c	50		 push	 eax
  0000d	8b 4d 08	 mov	 ecx, DWORD PTR _obj$[ebp]
  00010	8b 11		 mov	 edx, DWORD PTR [ecx]
  00012	8b 04 95 00 00
	00 00		 mov	 eax, DWORD PTR ?fn_get_ui_object_item_number@@3PAP6GHPAUUI_OBJECT@@@ZA[edx*4]
  00019	ff d0		 call	 eax
  0001b	89 45 fc	 mov	 DWORD PTR _page$[ebp], eax

; 91   : 
; 92   : 	notify_options_page (page);

  0001e	8b 45 fc	 mov	 eax, DWORD PTR _page$[ebp]
  00021	50		 push	 eax
  00022	e8 00 00 00 00	 call	 ?notify_options_page@@YGXW4OPTIONS_PAGES@@@Z ; notify_options_page

; 93   : }

  00027	5f		 pop	 edi
  00028	5e		 pop	 esi
  00029	5b		 pop	 ebx
  0002a	8b e5		 mov	 esp, ebp
  0002c	5d		 pop	 ebp
  0002d	c2 08 00	 ret	 8
?notify_options_page_button@@YGXPAUUI_OBJECT@@PAX@Z ENDP ; notify_options_page_button
_TEXT	ENDS
; Function compile flags: /Odtp /ZI
; File c:\users\nhv90\projects\eech\aphavoc\source\ui_menu\options\op_commn.c
;	COMDAT ?set_option_page_ok_button_reason@@YGXW4OPTION_PAGE_OK_BUTTON_REASON@@H@Z
_TEXT	SEGMENT
_reason$ = 8						; size = 4
_set$ = 12						; size = 4
?set_option_page_ok_button_reason@@YGXW4OPTION_PAGE_OK_BUTTON_REASON@@H@Z PROC ; set_option_page_ok_button_reason, COMDAT

; 513  : {

  00000	55		 push	 ebp
  00001	8b ec		 mov	 ebp, esp
  00003	83 ec 40	 sub	 esp, 64			; 00000040H
  00006	53		 push	 ebx
  00007	56		 push	 esi
  00008	57		 push	 edi

; 514  : 	if (set)

  00009	83 7d 0c 00	 cmp	 DWORD PTR _set$[ebp], 0
  0000d	74 42		 je	 SHORT $LN2@set_option

; 515  : 	{
; 516  : 		if (!option_page_ok_button_reasons)

  0000f	83 3d 00 00 00
	00 00		 cmp	 DWORD PTR ?option_page_ok_button_reasons@@3HA, 0 ; option_page_ok_button_reasons
  00016	75 22		 jne	 SHORT $LN4@set_option

; 517  : 		{
; 518  : 			set_ui_object_text (option_page_ok_button, get_trans ("Restart"));

  00018	68 00 00 00 00	 push	 OFFSET ??_C@_07EKAIBOKF@Restart@
  0001d	e8 00 00 00 00	 call	 ?get_trans@@YGPBDPBD@Z	; get_trans
  00022	50		 push	 eax
  00023	a1 00 00 00 00	 mov	 eax, DWORD PTR ?option_page_ok_button@@3PAUUI_OBJECT@@A ; option_page_ok_button
  00028	50		 push	 eax
  00029	8b 0d 00 00 00
	00		 mov	 ecx, DWORD PTR ?option_page_ok_button@@3PAUUI_OBJECT@@A ; option_page_ok_button
  0002f	8b 11		 mov	 edx, DWORD PTR [ecx]
  00031	8b 04 95 00 00
	00 00		 mov	 eax, DWORD PTR ?fn_set_ui_object_text@@3PAP6GXPAUUI_OBJECT@@PBD@ZA[edx*4]
  00038	ff d0		 call	 eax
$LN4@set_option:

; 519  : 		}
; 520  : 		option_page_ok_button_reasons |= 1 << reason;

  0003a	b8 01 00 00 00	 mov	 eax, 1
  0003f	8b 4d 08	 mov	 ecx, DWORD PTR _reason$[ebp]
  00042	d3 e0		 shl	 eax, cl
  00044	0b 05 00 00 00
	00		 or	 eax, DWORD PTR ?option_page_ok_button_reasons@@3HA ; option_page_ok_button_reasons
  0004a	a3 00 00 00 00	 mov	 DWORD PTR ?option_page_ok_button_reasons@@3HA, eax ; option_page_ok_button_reasons

; 521  : 	}
; 522  : 	else

  0004f	eb 3b		 jmp	 SHORT $LN1@set_option
$LN2@set_option:

; 523  : 	{
; 524  : 		option_page_ok_button_reasons &= ~(1 << reason);

  00051	b8 01 00 00 00	 mov	 eax, 1
  00056	8b 4d 08	 mov	 ecx, DWORD PTR _reason$[ebp]
  00059	d3 e0		 shl	 eax, cl
  0005b	f7 d0		 not	 eax
  0005d	23 05 00 00 00
	00		 and	 eax, DWORD PTR ?option_page_ok_button_reasons@@3HA ; option_page_ok_button_reasons
  00063	a3 00 00 00 00	 mov	 DWORD PTR ?option_page_ok_button_reasons@@3HA, eax ; option_page_ok_button_reasons

; 525  : 		if (!option_page_ok_button_reasons)

  00068	75 22		 jne	 SHORT $LN1@set_option

; 526  : 		{
; 527  : 			set_ui_object_text (option_page_ok_button, get_trans ("UI_OK"));

  0006a	68 00 00 00 00	 push	 OFFSET ??_C@_05LMLILOOH@UI_OK@
  0006f	e8 00 00 00 00	 call	 ?get_trans@@YGPBDPBD@Z	; get_trans
  00074	50		 push	 eax
  00075	a1 00 00 00 00	 mov	 eax, DWORD PTR ?option_page_ok_button@@3PAUUI_OBJECT@@A ; option_page_ok_button
  0007a	50		 push	 eax
  0007b	8b 0d 00 00 00
	00		 mov	 ecx, DWORD PTR ?option_page_ok_button@@3PAUUI_OBJECT@@A ; option_page_ok_button
  00081	8b 11		 mov	 edx, DWORD PTR [ecx]
  00083	8b 04 95 00 00
	00 00		 mov	 eax, DWORD PTR ?fn_set_ui_object_text@@3PAP6GXPAUUI_OBJECT@@PBD@ZA[edx*4]
  0008a	ff d0		 call	 eax
$LN1@set_option:

; 528  : 		}
; 529  : 	}
; 530  : }

  0008c	5f		 pop	 edi
  0008d	5e		 pop	 esi
  0008e	5b		 pop	 ebx
  0008f	8b e5		 mov	 esp, ebp
  00091	5d		 pop	 ebp
  00092	c2 08 00	 ret	 8
?set_option_page_ok_button_reason@@YGXW4OPTION_PAGE_OK_BUTTON_REASON@@H@Z ENDP ; set_option_page_ok_button_reason
_TEXT	ENDS
; Function compile flags: /Odtp /ZI
; File c:\users\nhv90\projects\eech\aphavoc\source\ui_menu\options\op_commn.c
;	COMDAT ?define_options_screen_common_objects@@YGXXZ
_TEXT	SEGMENT
_y2$ = -20						; size = 4
_x2$ = -16						; size = 4
_y1$ = -12						; size = 4
_x1$ = -8						; size = 4
_option_bdrop$ = -4					; size = 4
?define_options_screen_common_objects@@YGXXZ PROC	; define_options_screen_common_objects, COMDAT

; 100  : {

  00000	55		 push	 ebp
  00001	8b ec		 mov	 ebp, esp
  00003	83 ec 54	 sub	 esp, 84			; 00000054H
  00006	53		 push	 ebx
  00007	56		 push	 esi
  00008	57		 push	 edi

; 101  : 	ui_object
; 102  : 		*option_bdrop;
; 103  : 
; 104  : 	float
; 105  : 		x1,
; 106  : 		y1,
; 107  : 		x2,
; 108  : 		y2;
; 109  : 
; 110  : 	/////////////////////////////////////////////////////////////////
; 111  : 	// Graphics, Realism, Sound etc. 
; 112  : 	/////////////////////////////////////////////////////////////////
; 113  : 
; 114  : 	/////////////////////////////////////////////////////////////////
; 115  : 	// Realism Button
; 116  : 
; 117  : 	x1 = 0.795;

  00009	f3 0f 10 05 00
	00 00 00	 movss	 xmm0, DWORD PTR __real@3f4b851f
  00011	f3 0f 11 45 f8	 movss	 DWORD PTR _x1$[ebp], xmm0

; 118  : 	x2 = 0.194;

  00016	f3 0f 10 05 00
	00 00 00	 movss	 xmm0, DWORD PTR __real@3e46a7f0
  0001e	f3 0f 11 45 f0	 movss	 DWORD PTR _x2$[ebp], xmm0

; 119  : 	y1 = 0.794;

  00023	f3 0f 10 05 00
	00 00 00	 movss	 xmm0, DWORD PTR __real@3f4b4396
  0002b	f3 0f 11 45 f4	 movss	 DWORD PTR _y1$[ebp], xmm0

; 120  : 	y2 = 0.052;

  00030	f3 0f 10 05 00
	00 00 00	 movss	 xmm0, DWORD PTR __real@3d54fdf4
  00038	f3 0f 11 45 ec	 movss	 DWORD PTR _y2$[ebp], xmm0

; 121  : 
; 122  : 	option_bdrop = create_ui_object

  0003d	6a 11		 push	 17			; 00000011H
  0003f	a1 00 00 00 00	 mov	 eax, DWORD PTR ?text_option_bdrop@@3PAUTEXTURE_GRAPHIC@@A ; text_option_bdrop
  00044	50		 push	 eax
  00045	6a 4c		 push	 76			; 0000004cH
  00047	68 f4 01 00 00	 push	 500			; 000001f4H
  0004c	6a 4d		 push	 77			; 0000004dH
  0004e	6a 00		 push	 0
  00050	6a 30		 push	 48			; 00000030H
  00052	68 ff 00 00 00	 push	 255			; 000000ffH
  00057	68 ff 00 00 00	 push	 255			; 000000ffH
  0005c	68 ff 00 00 00	 push	 255			; 000000ffH
  00061	68 ff 00 00 00	 push	 255			; 000000ffH
  00066	6a 0a		 push	 10			; 0000000aH
  00068	6a 00		 push	 0
  0006a	68 ff 00 00 00	 push	 255			; 000000ffH
  0006f	68 ff 00 00 00	 push	 255			; 000000ffH
  00074	68 ff 00 00 00	 push	 255			; 000000ffH
  00079	6a 0b		 push	 11			; 0000000bH
  0007b	83 ec 08	 sub	 esp, 8
  0007e	f2 0f 10 05 00
	00 00 00	 movsd	 xmm0, QWORD PTR __real@3fad2f1aa0000000
  00086	f2 0f 11 04 24	 movsd	 QWORD PTR [esp], xmm0
  0008b	83 ec 08	 sub	 esp, 8
  0008e	f2 0f 10 05 00
	00 00 00	 movsd	 xmm0, QWORD PTR __real@3fdee978e0000000
  00096	f2 0f 11 04 24	 movsd	 QWORD PTR [esp], xmm0
  0009b	6a 59		 push	 89			; 00000059H
  0009d	83 ec 08	 sub	 esp, 8
  000a0	0f 57 c0	 xorps	 xmm0, xmm0
  000a3	f2 0f 11 04 24	 movsd	 QWORD PTR [esp], xmm0
  000a8	83 ec 08	 sub	 esp, 8
  000ab	0f 57 c0	 xorps	 xmm0, xmm0
  000ae	f2 0f 11 04 24	 movsd	 QWORD PTR [esp], xmm0
  000b3	6a 58		 push	 88			; 00000058H
  000b5	8b 0d 00 00 00
	00		 mov	 ecx, DWORD PTR ?options_screen@@3PAUUI_OBJECT@@A ; options_screen
  000bb	51		 push	 ecx
  000bc	6a 32		 push	 50			; 00000032H
  000be	6a 01		 push	 1
  000c0	e8 00 00 00 00	 call	 ?create_ui_object@@YAPAUUI_OBJECT@@HZZ ; create_ui_object
  000c5	83 c4 78	 add	 esp, 120		; 00000078H
  000c8	89 45 fc	 mov	 DWORD PTR _option_bdrop$[ebp], eax

; 123  : 	(
; 124  : 		UI_TYPE_AREA,
; 125  : 		UI_ATTR_PARENT (options_screen),
; 126  : 		UI_ATTR_VIRTUAL_POSITION (0.0, 0.0),
; 127  : 		UI_ATTR_VIRTUAL_SIZE (TEXT_OPTION_BDROP_WIDTH, TEXT_OPTION_BDROP_HEIGHT),
; 128  : 		UI_ATTR_COLOUR_START (255, 255, 255, 0),
; 129  : 		UI_ATTR_COLOUR_END (255, 255, 255, 255),
; 130  : 		UI_ATTR_OFFSET_TIME (0),
; 131  : 		UI_ATTR_TIME_LENGTH (500),
; 132  : 		UI_ATTR_TEXTURE_GRAPHIC (text_option_bdrop),
; 133  : 		UI_ATTR_END
; 134  : 	);
; 135  : 
; 136  : 	options_page_buttons [OPTIONS_PAGE_REALISM] = create_ui_object

  000cb	6a 11		 push	 17			; 00000011H
  000cd	68 f4 01 00 00	 push	 500			; 000001f4H
  000d2	6a 4d		 push	 77			; 0000004dH
  000d4	6a 00		 push	 0
  000d6	6a 30		 push	 48			; 00000030H
  000d8	6a 01		 push	 1
  000da	6a 07		 push	 7
  000dc	6a 01		 push	 1
  000de	6a 1b		 push	 27			; 0000001bH
  000e0	68 ff 00 00 00	 push	 255			; 000000ffH
  000e5	0f b6 05 00 00
	00 00		 movzx	 eax, BYTE PTR ?ui_option_text_hilite_colour@@3UREAL_COLOUR@@A
  000ec	50		 push	 eax
  000ed	0f b6 0d 01 00
	00 00		 movzx	 ecx, BYTE PTR ?ui_option_text_hilite_colour@@3UREAL_COLOUR@@A+1
  000f4	51		 push	 ecx
  000f5	0f b6 15 02 00
	00 00		 movzx	 edx, BYTE PTR ?ui_option_text_hilite_colour@@3UREAL_COLOUR@@A+2
  000fc	52		 push	 edx
  000fd	6a 22		 push	 34			; 00000022H
  000ff	6a 00		 push	 0
  00101	0f b6 05 00 00
	00 00		 movzx	 eax, BYTE PTR ?ui_option_text_hilite_colour@@3UREAL_COLOUR@@A
  00108	50		 push	 eax
  00109	0f b6 0d 01 00
	00 00		 movzx	 ecx, BYTE PTR ?ui_option_text_hilite_colour@@3UREAL_COLOUR@@A+1
  00110	51		 push	 ecx
  00111	0f b6 15 02 00
	00 00		 movzx	 edx, BYTE PTR ?ui_option_text_hilite_colour@@3UREAL_COLOUR@@A+2
  00118	52		 push	 edx
  00119	6a 23		 push	 35			; 00000023H
  0011b	68 ff 00 00 00	 push	 255			; 000000ffH
  00120	0f b6 05 00 00
	00 00		 movzx	 eax, BYTE PTR ?ui_option_text_default_colour@@3UREAL_COLOUR@@A
  00127	50		 push	 eax
  00128	0f b6 0d 01 00
	00 00		 movzx	 ecx, BYTE PTR ?ui_option_text_default_colour@@3UREAL_COLOUR@@A+1
  0012f	51		 push	 ecx
  00130	0f b6 15 02 00
	00 00		 movzx	 edx, BYTE PTR ?ui_option_text_default_colour@@3UREAL_COLOUR@@A+2
  00137	52		 push	 edx
  00138	6a 14		 push	 20			; 00000014H
  0013a	6a 00		 push	 0
  0013c	0f b6 05 00 00
	00 00		 movzx	 eax, BYTE PTR ?ui_option_text_default_colour@@3UREAL_COLOUR@@A
  00143	50		 push	 eax
  00144	0f b6 0d 01 00
	00 00		 movzx	 ecx, BYTE PTR ?ui_option_text_default_colour@@3UREAL_COLOUR@@A+1
  0014b	51		 push	 ecx
  0014c	0f b6 15 02 00
	00 00		 movzx	 edx, BYTE PTR ?ui_option_text_default_colour@@3UREAL_COLOUR@@A+2
  00153	52		 push	 edx
  00154	6a 15		 push	 21			; 00000015H
  00156	6a 09		 push	 9
  00158	6a 12		 push	 18			; 00000012H
  0015a	6a 02		 push	 2
  0015c	6a 4b		 push	 75			; 0000004bH
  0015e	68 00 00 00 00	 push	 OFFSET ??_C@_0O@MMGMFNDB@Realism?5Title@
  00163	e8 00 00 00 00	 call	 ?get_trans@@YGPBDPBD@Z	; get_trans
  00168	50		 push	 eax
  00169	6a 4a		 push	 74			; 0000004aH
  0016b	6a 03		 push	 3
  0016d	6a 29		 push	 41			; 00000029H
  0016f	68 00 00 00 00	 push	 OFFSET ?notify_options_page_button@@YGXPAUUI_OBJECT@@PAX@Z ; notify_options_page_button
  00174	6a 16		 push	 22			; 00000016H
  00176	6a 01		 push	 1
  00178	6a 2f		 push	 47			; 0000002fH
  0017a	f3 0f 5a 45 ec	 cvtss2sd xmm0, DWORD PTR _y2$[ebp]
  0017f	83 ec 08	 sub	 esp, 8
  00182	f2 0f 11 04 24	 movsd	 QWORD PTR [esp], xmm0
  00187	f3 0f 5a 45 f0	 cvtss2sd xmm0, DWORD PTR _x2$[ebp]
  0018c	83 ec 08	 sub	 esp, 8
  0018f	f2 0f 11 04 24	 movsd	 QWORD PTR [esp], xmm0
  00194	6a 59		 push	 89			; 00000059H
  00196	f3 0f 5a 45 f4	 cvtss2sd xmm0, DWORD PTR _y1$[ebp]
  0019b	83 ec 08	 sub	 esp, 8
  0019e	f2 0f 11 04 24	 movsd	 QWORD PTR [esp], xmm0
  001a3	f3 0f 5a 45 f8	 cvtss2sd xmm0, DWORD PTR _x1$[ebp]
  001a8	83 ec 08	 sub	 esp, 8
  001ab	f2 0f 11 04 24	 movsd	 QWORD PTR [esp], xmm0
  001b0	6a 58		 push	 88			; 00000058H
  001b2	a1 00 00 00 00	 mov	 eax, DWORD PTR ?options_screen@@3PAUUI_OBJECT@@A ; options_screen
  001b7	50		 push	 eax
  001b8	6a 32		 push	 50			; 00000032H
  001ba	6a 02		 push	 2
  001bc	e8 00 00 00 00	 call	 ?create_ui_object@@YAPAUUI_OBJECT@@HZZ ; create_ui_object
  001c1	81 c4 d8 00 00
	00		 add	 esp, 216		; 000000d8H
  001c7	b9 04 00 00 00	 mov	 ecx, 4
  001cc	6b d1 03	 imul	 edx, ecx, 3
  001cf	89 82 00 00 00
	00		 mov	 DWORD PTR ?options_page_buttons@@3PAPAUUI_OBJECT@@A[edx], eax

; 137  : 	(
; 138  : 		UI_TYPE_BUTTON,
; 139  : 		UI_ATTR_PARENT (options_screen),
; 140  : 		UI_ATTR_VIRTUAL_POSITION (x1, y1),
; 141  : 		UI_ATTR_VIRTUAL_SIZE (x2, y2),
; 142  : 		UI_ATTR_NOTIFY_ON (NOTIFY_TYPE_BUTTON_UP),
; 143  : 		UI_ATTR_FUNCTION (notify_options_page_button),
; 144  : 		UI_ATTR_ITEM_NUMBER (OPTIONS_PAGE_REALISM),
; 145  : 		UI_ATTR_TEXT (get_trans ("Realism Title")),
; 146  : 		UI_ATTR_TEXT_JUSTIFY (TEXT_JUSTIFY_RIGHT_CENTRE),
; 147  : 		UI_ATTR_FONT_TYPE (UI_FONT_STRETCH_ITALIC_ARIAL_18),
; 148  :       UI_ATTR_FONT_COLOUR_START (ui_option_text_default_colour.r, ui_option_text_default_colour.g, ui_option_text_default_colour.b, 0),
; 149  :       UI_ATTR_FONT_COLOUR_END (ui_option_text_default_colour.r, ui_option_text_default_colour.g, ui_option_text_default_colour.b, 255),
; 150  :       UI_ATTR_HIGHLIGHTED_FONT_COLOUR_START (ui_option_text_hilite_colour.r, ui_option_text_hilite_colour.g, ui_option_text_hilite_colour.b, 0),
; 151  :       UI_ATTR_HIGHLIGHTED_FONT_COLOUR_END (ui_option_text_hilite_colour.r, ui_option_text_hilite_colour.g, ui_option_text_hilite_colour.b, 255),
; 152  : 		UI_ATTR_HIGHLIGHTABLE (TRUE),
; 153  : 		UI_ATTR_CLEAR (TRUE),
; 154  : 		UI_ATTR_OFFSET_TIME (0),
; 155  : 		UI_ATTR_TIME_LENGTH (500),
; 156  : 		UI_ATTR_END
; 157  : 	);
; 158  : 
; 159  : 	preprocess_translation_object_size (options_page_buttons [OPTIONS_PAGE_REALISM], NULL, NULL, 0, RESIZE_OPTION_FIXED_BUTTON);

  001d5	6a 02		 push	 2
  001d7	6a 00		 push	 0
  001d9	6a 00		 push	 0
  001db	6a 00		 push	 0
  001dd	b8 04 00 00 00	 mov	 eax, 4
  001e2	6b c8 03	 imul	 ecx, eax, 3
  001e5	8b 91 00 00 00
	00		 mov	 edx, DWORD PTR ?options_page_buttons@@3PAPAUUI_OBJECT@@A[ecx]
  001eb	52		 push	 edx
  001ec	e8 00 00 00 00	 call	 ?preprocess_translation_object_size@@YGXPAUUI_OBJECT@@0PAPBDHW4RESIZE_UI_OBJECT_TYPES@@@Z ; preprocess_translation_object_size

; 160  : 
; 161  : 	set_text_option_backdrop_object (option_bdrop, options_page_buttons [OPTIONS_PAGE_REALISM]);

  001f1	b8 04 00 00 00	 mov	 eax, 4
  001f6	6b c8 03	 imul	 ecx, eax, 3
  001f9	8b 91 00 00 00
	00		 mov	 edx, DWORD PTR ?options_page_buttons@@3PAPAUUI_OBJECT@@A[ecx]
  001ff	52		 push	 edx
  00200	8b 45 fc	 mov	 eax, DWORD PTR _option_bdrop$[ebp]
  00203	50		 push	 eax
  00204	e8 00 00 00 00	 call	 ?set_text_option_backdrop_object@@YGXPAUUI_OBJECT@@0@Z ; set_text_option_backdrop_object

; 162  : 
; 163  : 	/////////////////////////////////////////////////////////////////
; 164  : 	// Sound Button
; 165  : 
; 166  : 	x1 = 0.550;

  00209	f3 0f 10 05 00
	00 00 00	 movss	 xmm0, DWORD PTR __real@3f0ccccd
  00211	f3 0f 11 45 f8	 movss	 DWORD PTR _x1$[ebp], xmm0

; 167  : 	x2 = 0.164;

  00216	f3 0f 10 05 00
	00 00 00	 movss	 xmm0, DWORD PTR __real@3e27ef9e
  0021e	f3 0f 11 45 f0	 movss	 DWORD PTR _x2$[ebp], xmm0

; 168  : 	y1 = 0.902;

  00223	f3 0f 10 05 00
	00 00 00	 movss	 xmm0, DWORD PTR __real@3f66e979
  0022b	f3 0f 11 45 f4	 movss	 DWORD PTR _y1$[ebp], xmm0

; 169  : 	y2 = 0.052;

  00230	f3 0f 10 05 00
	00 00 00	 movss	 xmm0, DWORD PTR __real@3d54fdf4
  00238	f3 0f 11 45 ec	 movss	 DWORD PTR _y2$[ebp], xmm0

; 170  : 
; 171  : 	option_bdrop = create_ui_object

  0023d	6a 11		 push	 17			; 00000011H
  0023f	a1 00 00 00 00	 mov	 eax, DWORD PTR ?text_option_bdrop@@3PAUTEXTURE_GRAPHIC@@A ; text_option_bdrop
  00244	50		 push	 eax
  00245	6a 4c		 push	 76			; 0000004cH
  00247	68 f4 01 00 00	 push	 500			; 000001f4H
  0024c	6a 4d		 push	 77			; 0000004dH
  0024e	6a 00		 push	 0
  00250	6a 30		 push	 48			; 00000030H
  00252	68 ff 00 00 00	 push	 255			; 000000ffH
  00257	68 ff 00 00 00	 push	 255			; 000000ffH
  0025c	68 ff 00 00 00	 push	 255			; 000000ffH
  00261	68 ff 00 00 00	 push	 255			; 000000ffH
  00266	6a 0a		 push	 10			; 0000000aH
  00268	6a 00		 push	 0
  0026a	68 ff 00 00 00	 push	 255			; 000000ffH
  0026f	68 ff 00 00 00	 push	 255			; 000000ffH
  00274	68 ff 00 00 00	 push	 255			; 000000ffH
  00279	6a 0b		 push	 11			; 0000000bH
  0027b	83 ec 08	 sub	 esp, 8
  0027e	f2 0f 10 05 00
	00 00 00	 movsd	 xmm0, QWORD PTR __real@3fad2f1aa0000000
  00286	f2 0f 11 04 24	 movsd	 QWORD PTR [esp], xmm0
  0028b	83 ec 08	 sub	 esp, 8
  0028e	f2 0f 10 05 00
	00 00 00	 movsd	 xmm0, QWORD PTR __real@3fdee978e0000000
  00296	f2 0f 11 04 24	 movsd	 QWORD PTR [esp], xmm0
  0029b	6a 59		 push	 89			; 00000059H
  0029d	83 ec 08	 sub	 esp, 8
  002a0	0f 57 c0	 xorps	 xmm0, xmm0
  002a3	f2 0f 11 04 24	 movsd	 QWORD PTR [esp], xmm0
  002a8	83 ec 08	 sub	 esp, 8
  002ab	0f 57 c0	 xorps	 xmm0, xmm0
  002ae	f2 0f 11 04 24	 movsd	 QWORD PTR [esp], xmm0
  002b3	6a 58		 push	 88			; 00000058H
  002b5	8b 0d 00 00 00
	00		 mov	 ecx, DWORD PTR ?options_screen@@3PAUUI_OBJECT@@A ; options_screen
  002bb	51		 push	 ecx
  002bc	6a 32		 push	 50			; 00000032H
  002be	6a 01		 push	 1
  002c0	e8 00 00 00 00	 call	 ?create_ui_object@@YAPAUUI_OBJECT@@HZZ ; create_ui_object
  002c5	83 c4 78	 add	 esp, 120		; 00000078H
  002c8	89 45 fc	 mov	 DWORD PTR _option_bdrop$[ebp], eax

; 172  : 	(
; 173  : 		UI_TYPE_AREA,
; 174  : 		UI_ATTR_PARENT (options_screen),
; 175  : 		UI_ATTR_VIRTUAL_POSITION (0.0, 0.0),
; 176  : 		UI_ATTR_VIRTUAL_SIZE (TEXT_OPTION_BDROP_WIDTH, TEXT_OPTION_BDROP_HEIGHT),
; 177  : 		UI_ATTR_COLOUR_START (255, 255, 255, 0),
; 178  : 		UI_ATTR_COLOUR_END (255, 255, 255, 255),
; 179  : 		UI_ATTR_OFFSET_TIME (0),
; 180  : 		UI_ATTR_TIME_LENGTH (500),
; 181  : 		UI_ATTR_TEXTURE_GRAPHIC (text_option_bdrop),
; 182  : 		UI_ATTR_END
; 183  : 	);
; 184  : 
; 185  : 	options_page_buttons [OPTIONS_PAGE_SOUND] = create_ui_object

  002cb	6a 11		 push	 17			; 00000011H
  002cd	68 f4 01 00 00	 push	 500			; 000001f4H
  002d2	6a 4d		 push	 77			; 0000004dH
  002d4	6a 00		 push	 0
  002d6	6a 30		 push	 48			; 00000030H
  002d8	6a 01		 push	 1
  002da	6a 07		 push	 7
  002dc	6a 01		 push	 1
  002de	6a 1b		 push	 27			; 0000001bH
  002e0	68 ff 00 00 00	 push	 255			; 000000ffH
  002e5	0f b6 05 00 00
	00 00		 movzx	 eax, BYTE PTR ?ui_option_text_hilite_colour@@3UREAL_COLOUR@@A
  002ec	50		 push	 eax
  002ed	0f b6 0d 01 00
	00 00		 movzx	 ecx, BYTE PTR ?ui_option_text_hilite_colour@@3UREAL_COLOUR@@A+1
  002f4	51		 push	 ecx
  002f5	0f b6 15 02 00
	00 00		 movzx	 edx, BYTE PTR ?ui_option_text_hilite_colour@@3UREAL_COLOUR@@A+2
  002fc	52		 push	 edx
  002fd	6a 22		 push	 34			; 00000022H
  002ff	6a 00		 push	 0
  00301	0f b6 05 00 00
	00 00		 movzx	 eax, BYTE PTR ?ui_option_text_hilite_colour@@3UREAL_COLOUR@@A
  00308	50		 push	 eax
  00309	0f b6 0d 01 00
	00 00		 movzx	 ecx, BYTE PTR ?ui_option_text_hilite_colour@@3UREAL_COLOUR@@A+1
  00310	51		 push	 ecx
  00311	0f b6 15 02 00
	00 00		 movzx	 edx, BYTE PTR ?ui_option_text_hilite_colour@@3UREAL_COLOUR@@A+2
  00318	52		 push	 edx
  00319	6a 23		 push	 35			; 00000023H
  0031b	68 ff 00 00 00	 push	 255			; 000000ffH
  00320	0f b6 05 00 00
	00 00		 movzx	 eax, BYTE PTR ?ui_option_text_default_colour@@3UREAL_COLOUR@@A
  00327	50		 push	 eax
  00328	0f b6 0d 01 00
	00 00		 movzx	 ecx, BYTE PTR ?ui_option_text_default_colour@@3UREAL_COLOUR@@A+1
  0032f	51		 push	 ecx
  00330	0f b6 15 02 00
	00 00		 movzx	 edx, BYTE PTR ?ui_option_text_default_colour@@3UREAL_COLOUR@@A+2
  00337	52		 push	 edx
  00338	6a 14		 push	 20			; 00000014H
  0033a	6a 00		 push	 0
  0033c	0f b6 05 00 00
	00 00		 movzx	 eax, BYTE PTR ?ui_option_text_default_colour@@3UREAL_COLOUR@@A
  00343	50		 push	 eax
  00344	0f b6 0d 01 00
	00 00		 movzx	 ecx, BYTE PTR ?ui_option_text_default_colour@@3UREAL_COLOUR@@A+1
  0034b	51		 push	 ecx
  0034c	0f b6 15 02 00
	00 00		 movzx	 edx, BYTE PTR ?ui_option_text_default_colour@@3UREAL_COLOUR@@A+2
  00353	52		 push	 edx
  00354	6a 15		 push	 21			; 00000015H
  00356	6a 09		 push	 9
  00358	6a 12		 push	 18			; 00000012H
  0035a	6a 02		 push	 2
  0035c	6a 4b		 push	 75			; 0000004bH
  0035e	68 00 00 00 00	 push	 OFFSET ??_C@_0L@BIMOBEIN@SOUND?5MENU@
  00363	e8 00 00 00 00	 call	 ?get_trans@@YGPBDPBD@Z	; get_trans
  00368	50		 push	 eax
  00369	6a 4a		 push	 74			; 0000004aH
  0036b	6a 04		 push	 4
  0036d	6a 29		 push	 41			; 00000029H
  0036f	68 00 00 00 00	 push	 OFFSET ?notify_options_page_button@@YGXPAUUI_OBJECT@@PAX@Z ; notify_options_page_button
  00374	6a 16		 push	 22			; 00000016H
  00376	6a 01		 push	 1
  00378	6a 2f		 push	 47			; 0000002fH
  0037a	f3 0f 5a 45 ec	 cvtss2sd xmm0, DWORD PTR _y2$[ebp]
  0037f	83 ec 08	 sub	 esp, 8
  00382	f2 0f 11 04 24	 movsd	 QWORD PTR [esp], xmm0
  00387	f3 0f 5a 45 f0	 cvtss2sd xmm0, DWORD PTR _x2$[ebp]
  0038c	83 ec 08	 sub	 esp, 8
  0038f	f2 0f 11 04 24	 movsd	 QWORD PTR [esp], xmm0
  00394	6a 59		 push	 89			; 00000059H
  00396	f3 0f 5a 45 f4	 cvtss2sd xmm0, DWORD PTR _y1$[ebp]
  0039b	83 ec 08	 sub	 esp, 8
  0039e	f2 0f 11 04 24	 movsd	 QWORD PTR [esp], xmm0
  003a3	f3 0f 5a 45 f8	 cvtss2sd xmm0, DWORD PTR _x1$[ebp]
  003a8	83 ec 08	 sub	 esp, 8
  003ab	f2 0f 11 04 24	 movsd	 QWORD PTR [esp], xmm0
  003b0	6a 58		 push	 88			; 00000058H
  003b2	a1 00 00 00 00	 mov	 eax, DWORD PTR ?options_screen@@3PAUUI_OBJECT@@A ; options_screen
  003b7	50		 push	 eax
  003b8	6a 32		 push	 50			; 00000032H
  003ba	6a 02		 push	 2
  003bc	e8 00 00 00 00	 call	 ?create_ui_object@@YAPAUUI_OBJECT@@HZZ ; create_ui_object
  003c1	81 c4 d8 00 00
	00		 add	 esp, 216		; 000000d8H
  003c7	b9 04 00 00 00	 mov	 ecx, 4
  003cc	c1 e1 02	 shl	 ecx, 2
  003cf	89 81 00 00 00
	00		 mov	 DWORD PTR ?options_page_buttons@@3PAPAUUI_OBJECT@@A[ecx], eax

; 186  : 	(
; 187  : 		UI_TYPE_BUTTON,
; 188  : 		UI_ATTR_PARENT (options_screen),
; 189  : 		UI_ATTR_VIRTUAL_POSITION (x1, y1),
; 190  : 		UI_ATTR_VIRTUAL_SIZE (x2, y2),
; 191  : 		UI_ATTR_NOTIFY_ON (NOTIFY_TYPE_BUTTON_UP),
; 192  : 		UI_ATTR_FUNCTION (notify_options_page_button),
; 193  : 		UI_ATTR_ITEM_NUMBER (OPTIONS_PAGE_SOUND),
; 194  : 		UI_ATTR_TEXT (get_trans ("SOUND MENU")),
; 195  : 		UI_ATTR_TEXT_JUSTIFY (TEXT_JUSTIFY_RIGHT_CENTRE),
; 196  : 		UI_ATTR_FONT_TYPE (UI_FONT_STRETCH_ITALIC_ARIAL_18),
; 197  :       UI_ATTR_FONT_COLOUR_START (ui_option_text_default_colour.r, ui_option_text_default_colour.g, ui_option_text_default_colour.b, 0),
; 198  :       UI_ATTR_FONT_COLOUR_END (ui_option_text_default_colour.r, ui_option_text_default_colour.g, ui_option_text_default_colour.b, 255),
; 199  :       UI_ATTR_HIGHLIGHTED_FONT_COLOUR_START (ui_option_text_hilite_colour.r, ui_option_text_hilite_colour.g, ui_option_text_hilite_colour.b, 0),
; 200  :       UI_ATTR_HIGHLIGHTED_FONT_COLOUR_END (ui_option_text_hilite_colour.r, ui_option_text_hilite_colour.g, ui_option_text_hilite_colour.b, 255),
; 201  : 		UI_ATTR_HIGHLIGHTABLE (TRUE),
; 202  : 		UI_ATTR_CLEAR (TRUE),
; 203  : 		UI_ATTR_OFFSET_TIME (0),
; 204  : 		UI_ATTR_TIME_LENGTH (500),
; 205  : 		UI_ATTR_END
; 206  : 	);
; 207  : 
; 208  : 	preprocess_translation_object_size (options_page_buttons [OPTIONS_PAGE_SOUND], NULL, NULL, 0, RESIZE_OPTION_FIXED_BUTTON);

  003d5	6a 02		 push	 2
  003d7	6a 00		 push	 0
  003d9	6a 00		 push	 0
  003db	6a 00		 push	 0
  003dd	b8 04 00 00 00	 mov	 eax, 4
  003e2	c1 e0 02	 shl	 eax, 2
  003e5	8b 88 00 00 00
	00		 mov	 ecx, DWORD PTR ?options_page_buttons@@3PAPAUUI_OBJECT@@A[eax]
  003eb	51		 push	 ecx
  003ec	e8 00 00 00 00	 call	 ?preprocess_translation_object_size@@YGXPAUUI_OBJECT@@0PAPBDHW4RESIZE_UI_OBJECT_TYPES@@@Z ; preprocess_translation_object_size

; 209  : 
; 210  : 	set_text_option_backdrop_object (option_bdrop, options_page_buttons [OPTIONS_PAGE_SOUND]);

  003f1	b8 04 00 00 00	 mov	 eax, 4
  003f6	c1 e0 02	 shl	 eax, 2
  003f9	8b 88 00 00 00
	00		 mov	 ecx, DWORD PTR ?options_page_buttons@@3PAPAUUI_OBJECT@@A[eax]
  003ff	51		 push	 ecx
  00400	8b 55 fc	 mov	 edx, DWORD PTR _option_bdrop$[ebp]
  00403	52		 push	 edx
  00404	e8 00 00 00 00	 call	 ?set_text_option_backdrop_object@@YGXPAUUI_OBJECT@@0@Z ; set_text_option_backdrop_object

; 211  : 
; 212  : 	options_page_buttons [OPTIONS_PAGE_INGAME_SOUND] = create_ui_object

  00409	6a 11		 push	 17			; 00000011H
  0040b	68 f4 01 00 00	 push	 500			; 000001f4H
  00410	6a 4d		 push	 77			; 0000004dH
  00412	6a 00		 push	 0
  00414	6a 30		 push	 48			; 00000030H
  00416	6a 01		 push	 1
  00418	6a 07		 push	 7
  0041a	6a 01		 push	 1
  0041c	6a 1b		 push	 27			; 0000001bH
  0041e	68 ff 00 00 00	 push	 255			; 000000ffH
  00423	0f b6 05 00 00
	00 00		 movzx	 eax, BYTE PTR ?ui_option_text_hilite_colour@@3UREAL_COLOUR@@A
  0042a	50		 push	 eax
  0042b	0f b6 0d 01 00
	00 00		 movzx	 ecx, BYTE PTR ?ui_option_text_hilite_colour@@3UREAL_COLOUR@@A+1
  00432	51		 push	 ecx
  00433	0f b6 15 02 00
	00 00		 movzx	 edx, BYTE PTR ?ui_option_text_hilite_colour@@3UREAL_COLOUR@@A+2
  0043a	52		 push	 edx
  0043b	6a 22		 push	 34			; 00000022H
  0043d	6a 00		 push	 0
  0043f	0f b6 05 00 00
	00 00		 movzx	 eax, BYTE PTR ?ui_option_text_hilite_colour@@3UREAL_COLOUR@@A
  00446	50		 push	 eax
  00447	0f b6 0d 01 00
	00 00		 movzx	 ecx, BYTE PTR ?ui_option_text_hilite_colour@@3UREAL_COLOUR@@A+1
  0044e	51		 push	 ecx
  0044f	0f b6 15 02 00
	00 00		 movzx	 edx, BYTE PTR ?ui_option_text_hilite_colour@@3UREAL_COLOUR@@A+2
  00456	52		 push	 edx
  00457	6a 23		 push	 35			; 00000023H
  00459	68 ff 00 00 00	 push	 255			; 000000ffH
  0045e	0f b6 05 00 00
	00 00		 movzx	 eax, BYTE PTR ?ui_option_text_default_colour@@3UREAL_COLOUR@@A
  00465	50		 push	 eax
  00466	0f b6 0d 01 00
	00 00		 movzx	 ecx, BYTE PTR ?ui_option_text_default_colour@@3UREAL_COLOUR@@A+1
  0046d	51		 push	 ecx
  0046e	0f b6 15 02 00
	00 00		 movzx	 edx, BYTE PTR ?ui_option_text_default_colour@@3UREAL_COLOUR@@A+2
  00475	52		 push	 edx
  00476	6a 14		 push	 20			; 00000014H
  00478	6a 00		 push	 0
  0047a	0f b6 05 00 00
	00 00		 movzx	 eax, BYTE PTR ?ui_option_text_default_colour@@3UREAL_COLOUR@@A
  00481	50		 push	 eax
  00482	0f b6 0d 01 00
	00 00		 movzx	 ecx, BYTE PTR ?ui_option_text_default_colour@@3UREAL_COLOUR@@A+1
  00489	51		 push	 ecx
  0048a	0f b6 15 02 00
	00 00		 movzx	 edx, BYTE PTR ?ui_option_text_default_colour@@3UREAL_COLOUR@@A+2
  00491	52		 push	 edx
  00492	6a 15		 push	 21			; 00000015H
  00494	6a 09		 push	 9
  00496	6a 12		 push	 18			; 00000012H
  00498	6a 02		 push	 2
  0049a	6a 4b		 push	 75			; 0000004bH
  0049c	68 00 00 00 00	 push	 OFFSET ??_C@_0L@BIMOBEIN@SOUND?5MENU@
  004a1	e8 00 00 00 00	 call	 ?get_trans@@YGPBDPBD@Z	; get_trans
  004a6	50		 push	 eax
  004a7	6a 4a		 push	 74			; 0000004aH
  004a9	6a 05		 push	 5
  004ab	6a 29		 push	 41			; 00000029H
  004ad	68 00 00 00 00	 push	 OFFSET ?notify_options_page_button@@YGXPAUUI_OBJECT@@PAX@Z ; notify_options_page_button
  004b2	6a 16		 push	 22			; 00000016H
  004b4	6a 01		 push	 1
  004b6	6a 2f		 push	 47			; 0000002fH
  004b8	f3 0f 5a 45 ec	 cvtss2sd xmm0, DWORD PTR _y2$[ebp]
  004bd	83 ec 08	 sub	 esp, 8
  004c0	f2 0f 11 04 24	 movsd	 QWORD PTR [esp], xmm0
  004c5	f3 0f 5a 45 f0	 cvtss2sd xmm0, DWORD PTR _x2$[ebp]
  004ca	83 ec 08	 sub	 esp, 8
  004cd	f2 0f 11 04 24	 movsd	 QWORD PTR [esp], xmm0
  004d2	6a 59		 push	 89			; 00000059H
  004d4	f3 0f 5a 45 f4	 cvtss2sd xmm0, DWORD PTR _y1$[ebp]
  004d9	83 ec 08	 sub	 esp, 8
  004dc	f2 0f 11 04 24	 movsd	 QWORD PTR [esp], xmm0
  004e1	f3 0f 5a 45 f8	 cvtss2sd xmm0, DWORD PTR _x1$[ebp]
  004e6	83 ec 08	 sub	 esp, 8
  004e9	f2 0f 11 04 24	 movsd	 QWORD PTR [esp], xmm0
  004ee	6a 58		 push	 88			; 00000058H
  004f0	a1 00 00 00 00	 mov	 eax, DWORD PTR ?options_screen@@3PAUUI_OBJECT@@A ; options_screen
  004f5	50		 push	 eax
  004f6	6a 32		 push	 50			; 00000032H
  004f8	6a 02		 push	 2
  004fa	e8 00 00 00 00	 call	 ?create_ui_object@@YAPAUUI_OBJECT@@HZZ ; create_ui_object
  004ff	81 c4 d8 00 00
	00		 add	 esp, 216		; 000000d8H
  00505	b9 04 00 00 00	 mov	 ecx, 4
  0050a	6b d1 05	 imul	 edx, ecx, 5
  0050d	89 82 00 00 00
	00		 mov	 DWORD PTR ?options_page_buttons@@3PAPAUUI_OBJECT@@A[edx], eax

; 213  : 	(
; 214  : 		UI_TYPE_BUTTON,
; 215  : 		UI_ATTR_PARENT (options_screen),
; 216  : 		UI_ATTR_VIRTUAL_POSITION (x1, y1),
; 217  : 		UI_ATTR_VIRTUAL_SIZE (x2, y2),
; 218  : 		UI_ATTR_NOTIFY_ON (NOTIFY_TYPE_BUTTON_UP),
; 219  : 		UI_ATTR_FUNCTION (notify_options_page_button),
; 220  : 		UI_ATTR_ITEM_NUMBER (OPTIONS_PAGE_INGAME_SOUND),
; 221  : 		UI_ATTR_TEXT (get_trans ("SOUND MENU")),
; 222  : 		UI_ATTR_TEXT_JUSTIFY (TEXT_JUSTIFY_RIGHT_CENTRE),
; 223  : 		UI_ATTR_FONT_TYPE (UI_FONT_STRETCH_ITALIC_ARIAL_18),
; 224  :       UI_ATTR_FONT_COLOUR_START (ui_option_text_default_colour.r, ui_option_text_default_colour.g, ui_option_text_default_colour.b, 0),
; 225  :       UI_ATTR_FONT_COLOUR_END (ui_option_text_default_colour.r, ui_option_text_default_colour.g, ui_option_text_default_colour.b, 255),
; 226  :       UI_ATTR_HIGHLIGHTED_FONT_COLOUR_START (ui_option_text_hilite_colour.r, ui_option_text_hilite_colour.g, ui_option_text_hilite_colour.b, 0),
; 227  :       UI_ATTR_HIGHLIGHTED_FONT_COLOUR_END (ui_option_text_hilite_colour.r, ui_option_text_hilite_colour.g, ui_option_text_hilite_colour.b, 255),
; 228  : 		UI_ATTR_HIGHLIGHTABLE (TRUE),
; 229  : 		UI_ATTR_CLEAR (TRUE),
; 230  : 		UI_ATTR_OFFSET_TIME (0),
; 231  : 		UI_ATTR_TIME_LENGTH (500),
; 232  : 		UI_ATTR_END
; 233  : 	);
; 234  : 
; 235  : 	preprocess_translation_object_size (options_page_buttons [OPTIONS_PAGE_INGAME_SOUND], NULL, NULL, 0, RESIZE_OPTION_FIXED_BUTTON);

  00513	6a 02		 push	 2
  00515	6a 00		 push	 0
  00517	6a 00		 push	 0
  00519	6a 00		 push	 0
  0051b	b8 04 00 00 00	 mov	 eax, 4
  00520	6b c8 05	 imul	 ecx, eax, 5
  00523	8b 91 00 00 00
	00		 mov	 edx, DWORD PTR ?options_page_buttons@@3PAPAUUI_OBJECT@@A[ecx]
  00529	52		 push	 edx
  0052a	e8 00 00 00 00	 call	 ?preprocess_translation_object_size@@YGXPAUUI_OBJECT@@0PAPBDHW4RESIZE_UI_OBJECT_TYPES@@@Z ; preprocess_translation_object_size

; 236  : 
; 237  : 	set_text_option_backdrop_object (option_bdrop, options_page_buttons [OPTIONS_PAGE_INGAME_SOUND]);

  0052f	b8 04 00 00 00	 mov	 eax, 4
  00534	6b c8 05	 imul	 ecx, eax, 5
  00537	8b 91 00 00 00
	00		 mov	 edx, DWORD PTR ?options_page_buttons@@3PAPAUUI_OBJECT@@A[ecx]
  0053d	52		 push	 edx
  0053e	8b 45 fc	 mov	 eax, DWORD PTR _option_bdrop$[ebp]
  00541	50		 push	 eax
  00542	e8 00 00 00 00	 call	 ?set_text_option_backdrop_object@@YGXPAUUI_OBJECT@@0@Z ; set_text_option_backdrop_object

; 238  : 
; 239  : 	x1 = get_ui_object_virtual_x (options_page_buttons [OPTIONS_PAGE_SOUND]);

  00547	b8 04 00 00 00	 mov	 eax, 4
  0054c	c1 e0 02	 shl	 eax, 2
  0054f	8b 88 00 00 00
	00		 mov	 ecx, DWORD PTR ?options_page_buttons@@3PAPAUUI_OBJECT@@A[eax]
  00555	51		 push	 ecx
  00556	ba 04 00 00 00	 mov	 edx, 4
  0055b	c1 e2 02	 shl	 edx, 2
  0055e	8b 82 00 00 00
	00		 mov	 eax, DWORD PTR ?options_page_buttons@@3PAPAUUI_OBJECT@@A[edx]
  00564	8b 08		 mov	 ecx, DWORD PTR [eax]
  00566	8b 14 8d 00 00
	00 00		 mov	 edx, DWORD PTR ?fn_get_ui_object_virtual_x@@3PAP6GMPAUUI_OBJECT@@@ZA[ecx*4]
  0056d	ff d2		 call	 edx
  0056f	d9 5d f8	 fstp	 DWORD PTR _x1$[ebp]

; 240  : 	x2 = get_ui_object_virtual_x_size (options_page_buttons [OPTIONS_PAGE_SOUND]);

  00572	b8 04 00 00 00	 mov	 eax, 4
  00577	c1 e0 02	 shl	 eax, 2
  0057a	8b 88 00 00 00
	00		 mov	 ecx, DWORD PTR ?options_page_buttons@@3PAPAUUI_OBJECT@@A[eax]
  00580	51		 push	 ecx
  00581	ba 04 00 00 00	 mov	 edx, 4
  00586	c1 e2 02	 shl	 edx, 2
  00589	8b 82 00 00 00
	00		 mov	 eax, DWORD PTR ?options_page_buttons@@3PAPAUUI_OBJECT@@A[edx]
  0058f	8b 08		 mov	 ecx, DWORD PTR [eax]
  00591	8b 14 8d 00 00
	00 00		 mov	 edx, DWORD PTR ?fn_get_ui_object_virtual_x_size@@3PAP6GMPAUUI_OBJECT@@@ZA[ecx*4]
  00598	ff d2		 call	 edx
  0059a	d9 5d f0	 fstp	 DWORD PTR _x2$[ebp]

; 241  : 
; 242  : 	ghost_sound_option_button = create_ui_object

  0059d	6a 11		 push	 17			; 00000011H
  0059f	6a 00		 push	 0
  005a1	6a 10		 push	 16			; 00000010H
  005a3	6a 01		 push	 1
  005a5	6a 07		 push	 7
  005a7	f3 0f 5a 45 ec	 cvtss2sd xmm0, DWORD PTR _y2$[ebp]
  005ac	83 ec 08	 sub	 esp, 8
  005af	f2 0f 11 04 24	 movsd	 QWORD PTR [esp], xmm0
  005b4	f3 0f 5a 45 f0	 cvtss2sd xmm0, DWORD PTR _x2$[ebp]
  005b9	83 ec 08	 sub	 esp, 8
  005bc	f2 0f 11 04 24	 movsd	 QWORD PTR [esp], xmm0
  005c1	6a 59		 push	 89			; 00000059H
  005c3	f3 0f 5a 45 f4	 cvtss2sd xmm0, DWORD PTR _y1$[ebp]
  005c8	83 ec 08	 sub	 esp, 8
  005cb	f2 0f 11 04 24	 movsd	 QWORD PTR [esp], xmm0
  005d0	f3 0f 5a 45 f8	 cvtss2sd xmm0, DWORD PTR _x1$[ebp]
  005d5	83 ec 08	 sub	 esp, 8
  005d8	f2 0f 11 04 24	 movsd	 QWORD PTR [esp], xmm0
  005dd	6a 58		 push	 88			; 00000058H
  005df	a1 00 00 00 00	 mov	 eax, DWORD PTR ?options_screen@@3PAUUI_OBJECT@@A ; options_screen
  005e4	50		 push	 eax
  005e5	6a 32		 push	 50			; 00000032H
  005e7	6a 01		 push	 1
  005e9	e8 00 00 00 00	 call	 ?create_ui_object@@YAPAUUI_OBJECT@@HZZ ; create_ui_object
  005ee	83 c4 48	 add	 esp, 72			; 00000048H
  005f1	a3 00 00 00 00	 mov	 DWORD PTR ?ghost_sound_option_button@@3PAUUI_OBJECT@@A, eax ; ghost_sound_option_button

; 243  : 									(
; 244  : 										UI_TYPE_AREA,
; 245  : 										UI_ATTR_PARENT (options_screen),
; 246  : 										UI_ATTR_VIRTUAL_POSITION (x1, y1),
; 247  : 										UI_ATTR_VIRTUAL_SIZE (x2, y2),
; 248  : 										UI_ATTR_CLEAR (TRUE),
; 249  : 										UI_ATTR_DRAWABLE (FALSE),
; 250  : 										UI_ATTR_END
; 251  : 									);
; 252  : 
; 253  : 	/////////////////////////////////////////////////////////////////
; 254  : 	// Dynamics Button
; 255  : 	
; 256  : 	x1 = 0.648;

  005f6	f3 0f 10 05 00
	00 00 00	 movss	 xmm0, DWORD PTR __real@3f25e354
  005fe	f3 0f 11 45 f8	 movss	 DWORD PTR _x1$[ebp], xmm0

; 257  : 	x2 = 0.240;

  00603	f3 0f 10 05 00
	00 00 00	 movss	 xmm0, DWORD PTR __real@3e75c28f
  0060b	f3 0f 11 45 f0	 movss	 DWORD PTR _x2$[ebp], xmm0

; 258  : 	y1 = 0.743;

  00610	f3 0f 10 05 00
	00 00 00	 movss	 xmm0, DWORD PTR __real@3f3e353f
  00618	f3 0f 11 45 f4	 movss	 DWORD PTR _y1$[ebp], xmm0

; 259  : 	y2 = 0.072;

  0061d	f3 0f 10 05 00
	00 00 00	 movss	 xmm0, DWORD PTR __real@3d9374bc
  00625	f3 0f 11 45 ec	 movss	 DWORD PTR _y2$[ebp], xmm0

; 260  : 
; 261  : 	option_bdrop = create_ui_object

  0062a	6a 11		 push	 17			; 00000011H
  0062c	a1 00 00 00 00	 mov	 eax, DWORD PTR ?text_option_bdrop@@3PAUTEXTURE_GRAPHIC@@A ; text_option_bdrop
  00631	50		 push	 eax
  00632	6a 4c		 push	 76			; 0000004cH
  00634	68 f4 01 00 00	 push	 500			; 000001f4H
  00639	6a 4d		 push	 77			; 0000004dH
  0063b	6a 00		 push	 0
  0063d	6a 30		 push	 48			; 00000030H
  0063f	68 ff 00 00 00	 push	 255			; 000000ffH
  00644	68 ff 00 00 00	 push	 255			; 000000ffH
  00649	68 ff 00 00 00	 push	 255			; 000000ffH
  0064e	68 ff 00 00 00	 push	 255			; 000000ffH
  00653	6a 0a		 push	 10			; 0000000aH
  00655	6a 00		 push	 0
  00657	68 ff 00 00 00	 push	 255			; 000000ffH
  0065c	68 ff 00 00 00	 push	 255			; 000000ffH
  00661	68 ff 00 00 00	 push	 255			; 000000ffH
  00666	6a 0b		 push	 11			; 0000000bH
  00668	83 ec 08	 sub	 esp, 8
  0066b	f2 0f 10 05 00
	00 00 00	 movsd	 xmm0, QWORD PTR __real@3fad2f1aa0000000
  00673	f2 0f 11 04 24	 movsd	 QWORD PTR [esp], xmm0
  00678	83 ec 08	 sub	 esp, 8
  0067b	f2 0f 10 05 00
	00 00 00	 movsd	 xmm0, QWORD PTR __real@3fdee978e0000000
  00683	f2 0f 11 04 24	 movsd	 QWORD PTR [esp], xmm0
  00688	6a 59		 push	 89			; 00000059H
  0068a	83 ec 08	 sub	 esp, 8
  0068d	0f 57 c0	 xorps	 xmm0, xmm0
  00690	f2 0f 11 04 24	 movsd	 QWORD PTR [esp], xmm0
  00695	83 ec 08	 sub	 esp, 8
  00698	0f 57 c0	 xorps	 xmm0, xmm0
  0069b	f2 0f 11 04 24	 movsd	 QWORD PTR [esp], xmm0
  006a0	6a 58		 push	 88			; 00000058H
  006a2	8b 0d 00 00 00
	00		 mov	 ecx, DWORD PTR ?options_screen@@3PAUUI_OBJECT@@A ; options_screen
  006a8	51		 push	 ecx
  006a9	6a 32		 push	 50			; 00000032H
  006ab	6a 01		 push	 1
  006ad	e8 00 00 00 00	 call	 ?create_ui_object@@YAPAUUI_OBJECT@@HZZ ; create_ui_object
  006b2	83 c4 78	 add	 esp, 120		; 00000078H
  006b5	89 45 fc	 mov	 DWORD PTR _option_bdrop$[ebp], eax

; 262  : 	(
; 263  : 		UI_TYPE_AREA,
; 264  : 		UI_ATTR_PARENT (options_screen),
; 265  : 		UI_ATTR_VIRTUAL_POSITION (0.0, 0.0),
; 266  : 		UI_ATTR_VIRTUAL_SIZE (TEXT_OPTION_BDROP_WIDTH, TEXT_OPTION_BDROP_HEIGHT),
; 267  : 		UI_ATTR_COLOUR_START (255, 255, 255, 0),
; 268  : 		UI_ATTR_COLOUR_END (255, 255, 255, 255),
; 269  : 		UI_ATTR_OFFSET_TIME (0),
; 270  : 		UI_ATTR_TIME_LENGTH (500),
; 271  : 		UI_ATTR_TEXTURE_GRAPHIC (text_option_bdrop),
; 272  : 		UI_ATTR_END
; 273  : 	);
; 274  : 
; 275  : 	options_page_buttons [OPTIONS_PAGE_DYNAMICS] = create_ui_object

  006b8	6a 11		 push	 17			; 00000011H
  006ba	68 f4 01 00 00	 push	 500			; 000001f4H
  006bf	6a 4d		 push	 77			; 0000004dH
  006c1	6a 00		 push	 0
  006c3	6a 30		 push	 48			; 00000030H
  006c5	6a 01		 push	 1
  006c7	6a 07		 push	 7
  006c9	6a 01		 push	 1
  006cb	6a 1b		 push	 27			; 0000001bH
  006cd	68 ff 00 00 00	 push	 255			; 000000ffH
  006d2	0f b6 05 00 00
	00 00		 movzx	 eax, BYTE PTR ?ui_option_text_hilite_colour@@3UREAL_COLOUR@@A
  006d9	50		 push	 eax
  006da	0f b6 0d 01 00
	00 00		 movzx	 ecx, BYTE PTR ?ui_option_text_hilite_colour@@3UREAL_COLOUR@@A+1
  006e1	51		 push	 ecx
  006e2	0f b6 15 02 00
	00 00		 movzx	 edx, BYTE PTR ?ui_option_text_hilite_colour@@3UREAL_COLOUR@@A+2
  006e9	52		 push	 edx
  006ea	6a 22		 push	 34			; 00000022H
  006ec	6a 00		 push	 0
  006ee	0f b6 05 00 00
	00 00		 movzx	 eax, BYTE PTR ?ui_option_text_hilite_colour@@3UREAL_COLOUR@@A
  006f5	50		 push	 eax
  006f6	0f b6 0d 01 00
	00 00		 movzx	 ecx, BYTE PTR ?ui_option_text_hilite_colour@@3UREAL_COLOUR@@A+1
  006fd	51		 push	 ecx
  006fe	0f b6 15 02 00
	00 00		 movzx	 edx, BYTE PTR ?ui_option_text_hilite_colour@@3UREAL_COLOUR@@A+2
  00705	52		 push	 edx
  00706	6a 23		 push	 35			; 00000023H
  00708	68 ff 00 00 00	 push	 255			; 000000ffH
  0070d	0f b6 05 00 00
	00 00		 movzx	 eax, BYTE PTR ?ui_option_text_default_colour@@3UREAL_COLOUR@@A
  00714	50		 push	 eax
  00715	0f b6 0d 01 00
	00 00		 movzx	 ecx, BYTE PTR ?ui_option_text_default_colour@@3UREAL_COLOUR@@A+1
  0071c	51		 push	 ecx
  0071d	0f b6 15 02 00
	00 00		 movzx	 edx, BYTE PTR ?ui_option_text_default_colour@@3UREAL_COLOUR@@A+2
  00724	52		 push	 edx
  00725	6a 14		 push	 20			; 00000014H
  00727	6a 00		 push	 0
  00729	0f b6 05 00 00
	00 00		 movzx	 eax, BYTE PTR ?ui_option_text_default_colour@@3UREAL_COLOUR@@A
  00730	50		 push	 eax
  00731	0f b6 0d 01 00
	00 00		 movzx	 ecx, BYTE PTR ?ui_option_text_default_colour@@3UREAL_COLOUR@@A+1
  00738	51		 push	 ecx
  00739	0f b6 15 02 00
	00 00		 movzx	 edx, BYTE PTR ?ui_option_text_default_colour@@3UREAL_COLOUR@@A+2
  00740	52		 push	 edx
  00741	6a 15		 push	 21			; 00000015H
  00743	6a 09		 push	 9
  00745	6a 12		 push	 18			; 00000012H
  00747	6a 02		 push	 2
  00749	6a 4b		 push	 75			; 0000004bH
  0074b	68 00 00 00 00	 push	 OFFSET ??_C@_0O@CMENFGPI@DYNAMICS?5MENU@
  00750	e8 00 00 00 00	 call	 ?get_trans@@YGPBDPBD@Z	; get_trans
  00755	50		 push	 eax
  00756	6a 4a		 push	 74			; 0000004aH
  00758	6a 01		 push	 1
  0075a	6a 29		 push	 41			; 00000029H
  0075c	68 00 00 00 00	 push	 OFFSET ?notify_options_page_button@@YGXPAUUI_OBJECT@@PAX@Z ; notify_options_page_button
  00761	6a 16		 push	 22			; 00000016H
  00763	6a 01		 push	 1
  00765	6a 2f		 push	 47			; 0000002fH
  00767	f3 0f 5a 45 ec	 cvtss2sd xmm0, DWORD PTR _y2$[ebp]
  0076c	83 ec 08	 sub	 esp, 8
  0076f	f2 0f 11 04 24	 movsd	 QWORD PTR [esp], xmm0
  00774	f3 0f 5a 45 f0	 cvtss2sd xmm0, DWORD PTR _x2$[ebp]
  00779	83 ec 08	 sub	 esp, 8
  0077c	f2 0f 11 04 24	 movsd	 QWORD PTR [esp], xmm0
  00781	6a 59		 push	 89			; 00000059H
  00783	f3 0f 5a 45 f4	 cvtss2sd xmm0, DWORD PTR _y1$[ebp]
  00788	83 ec 08	 sub	 esp, 8
  0078b	f2 0f 11 04 24	 movsd	 QWORD PTR [esp], xmm0
  00790	f3 0f 5a 45 f8	 cvtss2sd xmm0, DWORD PTR _x1$[ebp]
  00795	83 ec 08	 sub	 esp, 8
  00798	f2 0f 11 04 24	 movsd	 QWORD PTR [esp], xmm0
  0079d	6a 58		 push	 88			; 00000058H
  0079f	a1 00 00 00 00	 mov	 eax, DWORD PTR ?options_screen@@3PAUUI_OBJECT@@A ; options_screen
  007a4	50		 push	 eax
  007a5	6a 32		 push	 50			; 00000032H
  007a7	6a 02		 push	 2
  007a9	e8 00 00 00 00	 call	 ?create_ui_object@@YAPAUUI_OBJECT@@HZZ ; create_ui_object
  007ae	81 c4 d8 00 00
	00		 add	 esp, 216		; 000000d8H
  007b4	b9 04 00 00 00	 mov	 ecx, 4
  007b9	c1 e1 00	 shl	 ecx, 0
  007bc	89 81 00 00 00
	00		 mov	 DWORD PTR ?options_page_buttons@@3PAPAUUI_OBJECT@@A[ecx], eax

; 276  : 	(
; 277  : 		UI_TYPE_BUTTON,
; 278  : 		UI_ATTR_PARENT (options_screen),
; 279  : 		UI_ATTR_VIRTUAL_POSITION (x1, y1),
; 280  : 		UI_ATTR_VIRTUAL_SIZE (x2, y2),
; 281  : 		UI_ATTR_NOTIFY_ON (NOTIFY_TYPE_BUTTON_UP),
; 282  : 		UI_ATTR_FUNCTION (notify_options_page_button),
; 283  : 		UI_ATTR_ITEM_NUMBER (OPTIONS_PAGE_DYNAMICS),
; 284  : 		UI_ATTR_TEXT (get_trans("DYNAMICS MENU")),
; 285  : 		UI_ATTR_TEXT_JUSTIFY (TEXT_JUSTIFY_RIGHT_CENTRE),
; 286  : 		UI_ATTR_FONT_TYPE (UI_FONT_STRETCH_ITALIC_ARIAL_18),
; 287  :       UI_ATTR_FONT_COLOUR_START (ui_option_text_default_colour.r, ui_option_text_default_colour.g, ui_option_text_default_colour.b, 0),
; 288  :       UI_ATTR_FONT_COLOUR_END (ui_option_text_default_colour.r, ui_option_text_default_colour.g, ui_option_text_default_colour.b, 255),
; 289  :       UI_ATTR_HIGHLIGHTED_FONT_COLOUR_START (ui_option_text_hilite_colour.r, ui_option_text_hilite_colour.g, ui_option_text_hilite_colour.b, 0),
; 290  :       UI_ATTR_HIGHLIGHTED_FONT_COLOUR_END (ui_option_text_hilite_colour.r, ui_option_text_hilite_colour.g, ui_option_text_hilite_colour.b, 255),
; 291  : 		UI_ATTR_HIGHLIGHTABLE (TRUE),
; 292  : 		UI_ATTR_CLEAR (TRUE),
; 293  : 		UI_ATTR_OFFSET_TIME (0),
; 294  : 		UI_ATTR_TIME_LENGTH (500),
; 295  : 		UI_ATTR_END
; 296  : 	);
; 297  : 
; 298  : 	preprocess_translation_object_size (options_page_buttons [OPTIONS_PAGE_DYNAMICS], NULL, NULL, 0, RESIZE_OPTION_FIXED_BUTTON);

  007c2	6a 02		 push	 2
  007c4	6a 00		 push	 0
  007c6	6a 00		 push	 0
  007c8	6a 00		 push	 0
  007ca	b8 04 00 00 00	 mov	 eax, 4
  007cf	c1 e0 00	 shl	 eax, 0
  007d2	8b 88 00 00 00
	00		 mov	 ecx, DWORD PTR ?options_page_buttons@@3PAPAUUI_OBJECT@@A[eax]
  007d8	51		 push	 ecx
  007d9	e8 00 00 00 00	 call	 ?preprocess_translation_object_size@@YGXPAUUI_OBJECT@@0PAPBDHW4RESIZE_UI_OBJECT_TYPES@@@Z ; preprocess_translation_object_size

; 299  : 
; 300  : 	set_text_option_backdrop_object (option_bdrop, options_page_buttons [OPTIONS_PAGE_DYNAMICS]);

  007de	b8 04 00 00 00	 mov	 eax, 4
  007e3	c1 e0 00	 shl	 eax, 0
  007e6	8b 88 00 00 00
	00		 mov	 ecx, DWORD PTR ?options_page_buttons@@3PAPAUUI_OBJECT@@A[eax]
  007ec	51		 push	 ecx
  007ed	8b 55 fc	 mov	 edx, DWORD PTR _option_bdrop$[ebp]
  007f0	52		 push	 edx
  007f1	e8 00 00 00 00	 call	 ?set_text_option_backdrop_object@@YGXPAUUI_OBJECT@@0@Z ; set_text_option_backdrop_object

; 301  : 
; 302  : 	/////////////////////////////////////////////////////////////////
; 303  : 	// Graphics Button
; 304  : 
; 305  : 	x1 = 0.422;

  007f6	f3 0f 10 05 00
	00 00 00	 movss	 xmm0, DWORD PTR __real@3ed81062
  007fe	f3 0f 11 45 f8	 movss	 DWORD PTR _x1$[ebp], xmm0

; 306  : 	x2 = 0.240;

  00803	f3 0f 10 05 00
	00 00 00	 movss	 xmm0, DWORD PTR __real@3e75c28f
  0080b	f3 0f 11 45 f0	 movss	 DWORD PTR _x2$[ebp], xmm0

; 307  : 	y1 = 0.849;

  00810	f3 0f 10 05 00
	00 00 00	 movss	 xmm0, DWORD PTR __real@3f595810
  00818	f3 0f 11 45 f4	 movss	 DWORD PTR _y1$[ebp], xmm0

; 308  : 	y2 = 0.072;

  0081d	f3 0f 10 05 00
	00 00 00	 movss	 xmm0, DWORD PTR __real@3d9374bc
  00825	f3 0f 11 45 ec	 movss	 DWORD PTR _y2$[ebp], xmm0

; 309  : 
; 310  : 	option_bdrop = create_ui_object

  0082a	6a 11		 push	 17			; 00000011H
  0082c	a1 00 00 00 00	 mov	 eax, DWORD PTR ?text_option_bdrop@@3PAUTEXTURE_GRAPHIC@@A ; text_option_bdrop
  00831	50		 push	 eax
  00832	6a 4c		 push	 76			; 0000004cH
  00834	68 f4 01 00 00	 push	 500			; 000001f4H
  00839	6a 4d		 push	 77			; 0000004dH
  0083b	6a 00		 push	 0
  0083d	6a 30		 push	 48			; 00000030H
  0083f	68 ff 00 00 00	 push	 255			; 000000ffH
  00844	68 ff 00 00 00	 push	 255			; 000000ffH
  00849	68 ff 00 00 00	 push	 255			; 000000ffH
  0084e	68 ff 00 00 00	 push	 255			; 000000ffH
  00853	6a 0a		 push	 10			; 0000000aH
  00855	6a 00		 push	 0
  00857	68 ff 00 00 00	 push	 255			; 000000ffH
  0085c	68 ff 00 00 00	 push	 255			; 000000ffH
  00861	68 ff 00 00 00	 push	 255			; 000000ffH
  00866	6a 0b		 push	 11			; 0000000bH
  00868	83 ec 08	 sub	 esp, 8
  0086b	f2 0f 10 05 00
	00 00 00	 movsd	 xmm0, QWORD PTR __real@3fad2f1aa0000000
  00873	f2 0f 11 04 24	 movsd	 QWORD PTR [esp], xmm0
  00878	83 ec 08	 sub	 esp, 8
  0087b	f2 0f 10 05 00
	00 00 00	 movsd	 xmm0, QWORD PTR __real@3fdee978e0000000
  00883	f2 0f 11 04 24	 movsd	 QWORD PTR [esp], xmm0
  00888	6a 59		 push	 89			; 00000059H
  0088a	83 ec 08	 sub	 esp, 8
  0088d	0f 57 c0	 xorps	 xmm0, xmm0
  00890	f2 0f 11 04 24	 movsd	 QWORD PTR [esp], xmm0
  00895	83 ec 08	 sub	 esp, 8
  00898	0f 57 c0	 xorps	 xmm0, xmm0
  0089b	f2 0f 11 04 24	 movsd	 QWORD PTR [esp], xmm0
  008a0	6a 58		 push	 88			; 00000058H
  008a2	8b 0d 00 00 00
	00		 mov	 ecx, DWORD PTR ?options_screen@@3PAUUI_OBJECT@@A ; options_screen
  008a8	51		 push	 ecx
  008a9	6a 32		 push	 50			; 00000032H
  008ab	6a 01		 push	 1
  008ad	e8 00 00 00 00	 call	 ?create_ui_object@@YAPAUUI_OBJECT@@HZZ ; create_ui_object
  008b2	83 c4 78	 add	 esp, 120		; 00000078H
  008b5	89 45 fc	 mov	 DWORD PTR _option_bdrop$[ebp], eax

; 311  : 	(
; 312  : 		UI_TYPE_AREA,
; 313  : 		UI_ATTR_PARENT (options_screen),
; 314  : 		UI_ATTR_VIRTUAL_POSITION (0.0, 0.0),
; 315  : 		UI_ATTR_VIRTUAL_SIZE (TEXT_OPTION_BDROP_WIDTH, TEXT_OPTION_BDROP_HEIGHT),
; 316  : 		UI_ATTR_COLOUR_START (255, 255, 255, 0),
; 317  : 		UI_ATTR_COLOUR_END (255, 255, 255, 255),
; 318  : 		UI_ATTR_OFFSET_TIME (0),
; 319  : 		UI_ATTR_TIME_LENGTH (500),
; 320  : 		UI_ATTR_TEXTURE_GRAPHIC (text_option_bdrop),
; 321  : 		UI_ATTR_END
; 322  : 	);
; 323  : 
; 324  : 	options_page_buttons [OPTIONS_PAGE_GRAPHICS] = create_ui_object

  008b8	6a 11		 push	 17			; 00000011H
  008ba	68 f4 01 00 00	 push	 500			; 000001f4H
  008bf	6a 4d		 push	 77			; 0000004dH
  008c1	6a 00		 push	 0
  008c3	6a 30		 push	 48			; 00000030H
  008c5	6a 01		 push	 1
  008c7	6a 07		 push	 7
  008c9	6a 01		 push	 1
  008cb	6a 1b		 push	 27			; 0000001bH
  008cd	68 ff 00 00 00	 push	 255			; 000000ffH
  008d2	0f b6 05 00 00
	00 00		 movzx	 eax, BYTE PTR ?ui_option_text_hilite_colour@@3UREAL_COLOUR@@A
  008d9	50		 push	 eax
  008da	0f b6 0d 01 00
	00 00		 movzx	 ecx, BYTE PTR ?ui_option_text_hilite_colour@@3UREAL_COLOUR@@A+1
  008e1	51		 push	 ecx
  008e2	0f b6 15 02 00
	00 00		 movzx	 edx, BYTE PTR ?ui_option_text_hilite_colour@@3UREAL_COLOUR@@A+2
  008e9	52		 push	 edx
  008ea	6a 22		 push	 34			; 00000022H
  008ec	6a 00		 push	 0
  008ee	0f b6 05 00 00
	00 00		 movzx	 eax, BYTE PTR ?ui_option_text_hilite_colour@@3UREAL_COLOUR@@A
  008f5	50		 push	 eax
  008f6	0f b6 0d 01 00
	00 00		 movzx	 ecx, BYTE PTR ?ui_option_text_hilite_colour@@3UREAL_COLOUR@@A+1
  008fd	51		 push	 ecx
  008fe	0f b6 15 02 00
	00 00		 movzx	 edx, BYTE PTR ?ui_option_text_hilite_colour@@3UREAL_COLOUR@@A+2
  00905	52		 push	 edx
  00906	6a 23		 push	 35			; 00000023H
  00908	68 ff 00 00 00	 push	 255			; 000000ffH
  0090d	0f b6 05 00 00
	00 00		 movzx	 eax, BYTE PTR ?ui_option_text_default_colour@@3UREAL_COLOUR@@A
  00914	50		 push	 eax
  00915	0f b6 0d 01 00
	00 00		 movzx	 ecx, BYTE PTR ?ui_option_text_default_colour@@3UREAL_COLOUR@@A+1
  0091c	51		 push	 ecx
  0091d	0f b6 15 02 00
	00 00		 movzx	 edx, BYTE PTR ?ui_option_text_default_colour@@3UREAL_COLOUR@@A+2
  00924	52		 push	 edx
  00925	6a 14		 push	 20			; 00000014H
  00927	6a 00		 push	 0
  00929	0f b6 05 00 00
	00 00		 movzx	 eax, BYTE PTR ?ui_option_text_default_colour@@3UREAL_COLOUR@@A
  00930	50		 push	 eax
  00931	0f b6 0d 01 00
	00 00		 movzx	 ecx, BYTE PTR ?ui_option_text_default_colour@@3UREAL_COLOUR@@A+1
  00938	51		 push	 ecx
  00939	0f b6 15 02 00
	00 00		 movzx	 edx, BYTE PTR ?ui_option_text_default_colour@@3UREAL_COLOUR@@A+2
  00940	52		 push	 edx
  00941	6a 15		 push	 21			; 00000015H
  00943	6a 09		 push	 9
  00945	6a 12		 push	 18			; 00000012H
  00947	6a 02		 push	 2
  00949	6a 4b		 push	 75			; 0000004bH
  0094b	68 00 00 00 00	 push	 OFFSET ??_C@_08MKHMICKL@Graphics@
  00950	e8 00 00 00 00	 call	 ?get_trans@@YGPBDPBD@Z	; get_trans
  00955	50		 push	 eax
  00956	6a 4a		 push	 74			; 0000004aH
  00958	6a 02		 push	 2
  0095a	6a 29		 push	 41			; 00000029H
  0095c	68 00 00 00 00	 push	 OFFSET ?notify_options_page_button@@YGXPAUUI_OBJECT@@PAX@Z ; notify_options_page_button
  00961	6a 16		 push	 22			; 00000016H
  00963	6a 01		 push	 1
  00965	6a 2f		 push	 47			; 0000002fH
  00967	f3 0f 5a 45 ec	 cvtss2sd xmm0, DWORD PTR _y2$[ebp]
  0096c	83 ec 08	 sub	 esp, 8
  0096f	f2 0f 11 04 24	 movsd	 QWORD PTR [esp], xmm0
  00974	f3 0f 5a 45 f0	 cvtss2sd xmm0, DWORD PTR _x2$[ebp]
  00979	83 ec 08	 sub	 esp, 8
  0097c	f2 0f 11 04 24	 movsd	 QWORD PTR [esp], xmm0
  00981	6a 59		 push	 89			; 00000059H
  00983	f3 0f 5a 45 f4	 cvtss2sd xmm0, DWORD PTR _y1$[ebp]
  00988	83 ec 08	 sub	 esp, 8
  0098b	f2 0f 11 04 24	 movsd	 QWORD PTR [esp], xmm0
  00990	f3 0f 5a 45 f8	 cvtss2sd xmm0, DWORD PTR _x1$[ebp]
  00995	83 ec 08	 sub	 esp, 8
  00998	f2 0f 11 04 24	 movsd	 QWORD PTR [esp], xmm0
  0099d	6a 58		 push	 88			; 00000058H
  0099f	a1 00 00 00 00	 mov	 eax, DWORD PTR ?options_screen@@3PAUUI_OBJECT@@A ; options_screen
  009a4	50		 push	 eax
  009a5	6a 32		 push	 50			; 00000032H
  009a7	6a 02		 push	 2
  009a9	e8 00 00 00 00	 call	 ?create_ui_object@@YAPAUUI_OBJECT@@HZZ ; create_ui_object
  009ae	81 c4 d8 00 00
	00		 add	 esp, 216		; 000000d8H
  009b4	b9 04 00 00 00	 mov	 ecx, 4
  009b9	d1 e1		 shl	 ecx, 1
  009bb	89 81 00 00 00
	00		 mov	 DWORD PTR ?options_page_buttons@@3PAPAUUI_OBJECT@@A[ecx], eax

; 325  : 	(
; 326  : 		UI_TYPE_BUTTON,
; 327  : 		UI_ATTR_PARENT (options_screen),
; 328  : 		UI_ATTR_VIRTUAL_POSITION (x1, y1),
; 329  : 		UI_ATTR_VIRTUAL_SIZE (x2, y2),
; 330  : 		UI_ATTR_NOTIFY_ON (NOTIFY_TYPE_BUTTON_UP),
; 331  : 		UI_ATTR_FUNCTION (notify_options_page_button),
; 332  : 		UI_ATTR_ITEM_NUMBER (OPTIONS_PAGE_GRAPHICS),
; 333  : 		UI_ATTR_TEXT (get_trans("Graphics")),
; 334  : 		UI_ATTR_TEXT_JUSTIFY (TEXT_JUSTIFY_RIGHT_CENTRE),
; 335  : 		UI_ATTR_FONT_TYPE (UI_FONT_STRETCH_ITALIC_ARIAL_18),
; 336  :       UI_ATTR_FONT_COLOUR_START (ui_option_text_default_colour.r, ui_option_text_default_colour.g, ui_option_text_default_colour.b, 0),
; 337  :       UI_ATTR_FONT_COLOUR_END (ui_option_text_default_colour.r, ui_option_text_default_colour.g, ui_option_text_default_colour.b, 255),
; 338  :       UI_ATTR_HIGHLIGHTED_FONT_COLOUR_START (ui_option_text_hilite_colour.r, ui_option_text_hilite_colour.g, ui_option_text_hilite_colour.b, 0),
; 339  :       UI_ATTR_HIGHLIGHTED_FONT_COLOUR_END (ui_option_text_hilite_colour.r, ui_option_text_hilite_colour.g, ui_option_text_hilite_colour.b, 255),
; 340  : 		UI_ATTR_HIGHLIGHTABLE (TRUE),
; 341  : 		UI_ATTR_CLEAR (TRUE),
; 342  : 		UI_ATTR_OFFSET_TIME (0),
; 343  : 		UI_ATTR_TIME_LENGTH (500),
; 344  : 		UI_ATTR_END
; 345  : 	);
; 346  : 
; 347  : 	preprocess_translation_object_size (options_page_buttons [OPTIONS_PAGE_GRAPHICS], NULL, NULL, 0, RESIZE_OPTION_FIXED_BUTTON);

  009c1	6a 02		 push	 2
  009c3	6a 00		 push	 0
  009c5	6a 00		 push	 0
  009c7	6a 00		 push	 0
  009c9	b8 04 00 00 00	 mov	 eax, 4
  009ce	d1 e0		 shl	 eax, 1
  009d0	8b 88 00 00 00
	00		 mov	 ecx, DWORD PTR ?options_page_buttons@@3PAPAUUI_OBJECT@@A[eax]
  009d6	51		 push	 ecx
  009d7	e8 00 00 00 00	 call	 ?preprocess_translation_object_size@@YGXPAUUI_OBJECT@@0PAPBDHW4RESIZE_UI_OBJECT_TYPES@@@Z ; preprocess_translation_object_size

; 348  : 
; 349  : 	set_text_option_backdrop_object (option_bdrop, options_page_buttons [OPTIONS_PAGE_GRAPHICS]);

  009dc	b8 04 00 00 00	 mov	 eax, 4
  009e1	d1 e0		 shl	 eax, 1
  009e3	8b 88 00 00 00
	00		 mov	 ecx, DWORD PTR ?options_page_buttons@@3PAPAUUI_OBJECT@@A[eax]
  009e9	51		 push	 ecx
  009ea	8b 55 fc	 mov	 edx, DWORD PTR _option_bdrop$[ebp]
  009ed	52		 push	 edx
  009ee	e8 00 00 00 00	 call	 ?set_text_option_backdrop_object@@YGXPAUUI_OBJECT@@0@Z ; set_text_option_backdrop_object

; 350  : 
; 351  : 	/////////////////////////////////////////////////////////////////
; 352  : 	// Controller Button
; 353  : 
; 354  : 	x1 = 0.582;

  009f3	f3 0f 10 05 00
	00 00 00	 movss	 xmm0, DWORD PTR __real@3f14fdf4
  009fb	f3 0f 11 45 f8	 movss	 DWORD PTR _x1$[ebp], xmm0

; 355  : 	x2 = 0.211;

  00a00	f3 0f 10 05 00
	00 00 00	 movss	 xmm0, DWORD PTR __real@3e581062
  00a08	f3 0f 11 45 f0	 movss	 DWORD PTR _x2$[ebp], xmm0

; 356  : 	y1 = 0.139;

  00a0d	f3 0f 10 05 00
	00 00 00	 movss	 xmm0, DWORD PTR __real@3e0e5604
  00a15	f3 0f 11 45 f4	 movss	 DWORD PTR _y1$[ebp], xmm0

; 357  : 	y2 = 0.052;

  00a1a	f3 0f 10 05 00
	00 00 00	 movss	 xmm0, DWORD PTR __real@3d54fdf4
  00a22	f3 0f 11 45 ec	 movss	 DWORD PTR _y2$[ebp], xmm0

; 358  : 
; 359  : 	option_bdrop = create_ui_object

  00a27	6a 11		 push	 17			; 00000011H
  00a29	a1 00 00 00 00	 mov	 eax, DWORD PTR ?text_option_bdrop@@3PAUTEXTURE_GRAPHIC@@A ; text_option_bdrop
  00a2e	50		 push	 eax
  00a2f	6a 4c		 push	 76			; 0000004cH
  00a31	68 f4 01 00 00	 push	 500			; 000001f4H
  00a36	6a 4d		 push	 77			; 0000004dH
  00a38	6a 00		 push	 0
  00a3a	6a 30		 push	 48			; 00000030H
  00a3c	68 ff 00 00 00	 push	 255			; 000000ffH
  00a41	68 ff 00 00 00	 push	 255			; 000000ffH
  00a46	68 ff 00 00 00	 push	 255			; 000000ffH
  00a4b	68 ff 00 00 00	 push	 255			; 000000ffH
  00a50	6a 0a		 push	 10			; 0000000aH
  00a52	6a 00		 push	 0
  00a54	68 ff 00 00 00	 push	 255			; 000000ffH
  00a59	68 ff 00 00 00	 push	 255			; 000000ffH
  00a5e	68 ff 00 00 00	 push	 255			; 000000ffH
  00a63	6a 0b		 push	 11			; 0000000bH
  00a65	83 ec 08	 sub	 esp, 8
  00a68	f2 0f 10 05 00
	00 00 00	 movsd	 xmm0, QWORD PTR __real@3fad2f1aa0000000
  00a70	f2 0f 11 04 24	 movsd	 QWORD PTR [esp], xmm0
  00a75	83 ec 08	 sub	 esp, 8
  00a78	f2 0f 10 05 00
	00 00 00	 movsd	 xmm0, QWORD PTR __real@3fdee978e0000000
  00a80	f2 0f 11 04 24	 movsd	 QWORD PTR [esp], xmm0
  00a85	6a 59		 push	 89			; 00000059H
  00a87	83 ec 08	 sub	 esp, 8
  00a8a	0f 57 c0	 xorps	 xmm0, xmm0
  00a8d	f2 0f 11 04 24	 movsd	 QWORD PTR [esp], xmm0
  00a92	83 ec 08	 sub	 esp, 8
  00a95	0f 57 c0	 xorps	 xmm0, xmm0
  00a98	f2 0f 11 04 24	 movsd	 QWORD PTR [esp], xmm0
  00a9d	6a 58		 push	 88			; 00000058H
  00a9f	8b 0d 00 00 00
	00		 mov	 ecx, DWORD PTR ?options_screen@@3PAUUI_OBJECT@@A ; options_screen
  00aa5	51		 push	 ecx
  00aa6	6a 32		 push	 50			; 00000032H
  00aa8	6a 01		 push	 1
  00aaa	e8 00 00 00 00	 call	 ?create_ui_object@@YAPAUUI_OBJECT@@HZZ ; create_ui_object
  00aaf	83 c4 78	 add	 esp, 120		; 00000078H
  00ab2	89 45 fc	 mov	 DWORD PTR _option_bdrop$[ebp], eax

; 360  : 	(
; 361  : 		UI_TYPE_AREA,
; 362  : 		UI_ATTR_PARENT (options_screen),
; 363  : 		UI_ATTR_VIRTUAL_POSITION (0.0, 0.0),
; 364  : 		UI_ATTR_VIRTUAL_SIZE (TEXT_OPTION_BDROP_WIDTH, TEXT_OPTION_BDROP_HEIGHT),
; 365  : 		UI_ATTR_COLOUR_START (255, 255, 255, 0),
; 366  : 		UI_ATTR_COLOUR_END (255, 255, 255, 255),
; 367  : 		UI_ATTR_OFFSET_TIME (0),
; 368  : 		UI_ATTR_TIME_LENGTH (500),
; 369  : 		UI_ATTR_TEXTURE_GRAPHIC (text_option_bdrop),
; 370  : 		UI_ATTR_END
; 371  : 	);
; 372  : 
; 373  : 	options_page_buttons [OPTIONS_PAGE_CONTROLLER] = create_ui_object

  00ab5	6a 11		 push	 17			; 00000011H
  00ab7	68 f4 01 00 00	 push	 500			; 000001f4H
  00abc	6a 4d		 push	 77			; 0000004dH
  00abe	6a 00		 push	 0
  00ac0	6a 30		 push	 48			; 00000030H
  00ac2	6a 01		 push	 1
  00ac4	6a 07		 push	 7
  00ac6	6a 01		 push	 1
  00ac8	6a 1b		 push	 27			; 0000001bH
  00aca	68 ff 00 00 00	 push	 255			; 000000ffH
  00acf	0f b6 05 00 00
	00 00		 movzx	 eax, BYTE PTR ?ui_option_text_hilite_colour@@3UREAL_COLOUR@@A
  00ad6	50		 push	 eax
  00ad7	0f b6 0d 01 00
	00 00		 movzx	 ecx, BYTE PTR ?ui_option_text_hilite_colour@@3UREAL_COLOUR@@A+1
  00ade	51		 push	 ecx
  00adf	0f b6 15 02 00
	00 00		 movzx	 edx, BYTE PTR ?ui_option_text_hilite_colour@@3UREAL_COLOUR@@A+2
  00ae6	52		 push	 edx
  00ae7	6a 22		 push	 34			; 00000022H
  00ae9	6a 00		 push	 0
  00aeb	0f b6 05 00 00
	00 00		 movzx	 eax, BYTE PTR ?ui_option_text_hilite_colour@@3UREAL_COLOUR@@A
  00af2	50		 push	 eax
  00af3	0f b6 0d 01 00
	00 00		 movzx	 ecx, BYTE PTR ?ui_option_text_hilite_colour@@3UREAL_COLOUR@@A+1
  00afa	51		 push	 ecx
  00afb	0f b6 15 02 00
	00 00		 movzx	 edx, BYTE PTR ?ui_option_text_hilite_colour@@3UREAL_COLOUR@@A+2
  00b02	52		 push	 edx
  00b03	6a 23		 push	 35			; 00000023H
  00b05	68 ff 00 00 00	 push	 255			; 000000ffH
  00b0a	0f b6 05 00 00
	00 00		 movzx	 eax, BYTE PTR ?ui_option_text_default_colour@@3UREAL_COLOUR@@A
  00b11	50		 push	 eax
  00b12	0f b6 0d 01 00
	00 00		 movzx	 ecx, BYTE PTR ?ui_option_text_default_colour@@3UREAL_COLOUR@@A+1
  00b19	51		 push	 ecx
  00b1a	0f b6 15 02 00
	00 00		 movzx	 edx, BYTE PTR ?ui_option_text_default_colour@@3UREAL_COLOUR@@A+2
  00b21	52		 push	 edx
  00b22	6a 14		 push	 20			; 00000014H
  00b24	6a 00		 push	 0
  00b26	0f b6 05 00 00
	00 00		 movzx	 eax, BYTE PTR ?ui_option_text_default_colour@@3UREAL_COLOUR@@A
  00b2d	50		 push	 eax
  00b2e	0f b6 0d 01 00
	00 00		 movzx	 ecx, BYTE PTR ?ui_option_text_default_colour@@3UREAL_COLOUR@@A+1
  00b35	51		 push	 ecx
  00b36	0f b6 15 02 00
	00 00		 movzx	 edx, BYTE PTR ?ui_option_text_default_colour@@3UREAL_COLOUR@@A+2
  00b3d	52		 push	 edx
  00b3e	6a 15		 push	 21			; 00000015H
  00b40	6a 09		 push	 9
  00b42	6a 12		 push	 18			; 00000012H
  00b44	6a 02		 push	 2
  00b46	6a 4b		 push	 75			; 0000004bH
  00b48	68 00 00 00 00	 push	 OFFSET ??_C@_0BA@IDLKIDFO@CONTROLLER?5MENU@
  00b4d	e8 00 00 00 00	 call	 ?get_trans@@YGPBDPBD@Z	; get_trans
  00b52	50		 push	 eax
  00b53	6a 4a		 push	 74			; 0000004aH
  00b55	6a 00		 push	 0
  00b57	6a 29		 push	 41			; 00000029H
  00b59	68 00 00 00 00	 push	 OFFSET ?notify_options_page_button@@YGXPAUUI_OBJECT@@PAX@Z ; notify_options_page_button
  00b5e	6a 16		 push	 22			; 00000016H
  00b60	6a 01		 push	 1
  00b62	6a 2f		 push	 47			; 0000002fH
  00b64	f3 0f 5a 45 ec	 cvtss2sd xmm0, DWORD PTR _y2$[ebp]
  00b69	83 ec 08	 sub	 esp, 8
  00b6c	f2 0f 11 04 24	 movsd	 QWORD PTR [esp], xmm0
  00b71	f3 0f 5a 45 f0	 cvtss2sd xmm0, DWORD PTR _x2$[ebp]
  00b76	83 ec 08	 sub	 esp, 8
  00b79	f2 0f 11 04 24	 movsd	 QWORD PTR [esp], xmm0
  00b7e	6a 59		 push	 89			; 00000059H
  00b80	f3 0f 5a 45 f4	 cvtss2sd xmm0, DWORD PTR _y1$[ebp]
  00b85	83 ec 08	 sub	 esp, 8
  00b88	f2 0f 11 04 24	 movsd	 QWORD PTR [esp], xmm0
  00b8d	f3 0f 5a 45 f8	 cvtss2sd xmm0, DWORD PTR _x1$[ebp]
  00b92	83 ec 08	 sub	 esp, 8
  00b95	f2 0f 11 04 24	 movsd	 QWORD PTR [esp], xmm0
  00b9a	6a 58		 push	 88			; 00000058H
  00b9c	a1 00 00 00 00	 mov	 eax, DWORD PTR ?options_screen@@3PAUUI_OBJECT@@A ; options_screen
  00ba1	50		 push	 eax
  00ba2	6a 32		 push	 50			; 00000032H
  00ba4	6a 02		 push	 2
  00ba6	e8 00 00 00 00	 call	 ?create_ui_object@@YAPAUUI_OBJECT@@HZZ ; create_ui_object
  00bab	81 c4 d8 00 00
	00		 add	 esp, 216		; 000000d8H
  00bb1	b9 04 00 00 00	 mov	 ecx, 4
  00bb6	6b d1 00	 imul	 edx, ecx, 0
  00bb9	89 82 00 00 00
	00		 mov	 DWORD PTR ?options_page_buttons@@3PAPAUUI_OBJECT@@A[edx], eax

; 374  : 	(
; 375  : 		UI_TYPE_BUTTON,
; 376  : 		UI_ATTR_PARENT (options_screen),
; 377  : 		UI_ATTR_VIRTUAL_POSITION (x1, y1),
; 378  : 		UI_ATTR_VIRTUAL_SIZE (x2, y2),
; 379  : 		UI_ATTR_NOTIFY_ON (NOTIFY_TYPE_BUTTON_UP),
; 380  : 		UI_ATTR_FUNCTION (notify_options_page_button),
; 381  : 		UI_ATTR_ITEM_NUMBER (OPTIONS_PAGE_CONTROLLER),
; 382  : 		UI_ATTR_TEXT (get_trans("CONTROLLER MENU")),
; 383  : 		UI_ATTR_TEXT_JUSTIFY (TEXT_JUSTIFY_RIGHT_CENTRE),
; 384  : 		UI_ATTR_FONT_TYPE (UI_FONT_STRETCH_ITALIC_ARIAL_18),
; 385  :       UI_ATTR_FONT_COLOUR_START (ui_option_text_default_colour.r, ui_option_text_default_colour.g, ui_option_text_default_colour.b, 0),
; 386  :       UI_ATTR_FONT_COLOUR_END (ui_option_text_default_colour.r, ui_option_text_default_colour.g, ui_option_text_default_colour.b, 255),
; 387  :       UI_ATTR_HIGHLIGHTED_FONT_COLOUR_START (ui_option_text_hilite_colour.r, ui_option_text_hilite_colour.g, ui_option_text_hilite_colour.b, 0),
; 388  :       UI_ATTR_HIGHLIGHTED_FONT_COLOUR_END (ui_option_text_hilite_colour.r, ui_option_text_hilite_colour.g, ui_option_text_hilite_colour.b, 255),
; 389  : 		UI_ATTR_HIGHLIGHTABLE (TRUE),
; 390  : 		UI_ATTR_CLEAR (TRUE),
; 391  : 		UI_ATTR_OFFSET_TIME (0),
; 392  : 		UI_ATTR_TIME_LENGTH (500),
; 393  : 		UI_ATTR_END
; 394  : 	);
; 395  : 
; 396  : 	preprocess_translation_object_size (options_page_buttons [OPTIONS_PAGE_CONTROLLER], NULL, NULL, 0, RESIZE_OPTION_FIXED_BUTTON);

  00bbf	6a 02		 push	 2
  00bc1	6a 00		 push	 0
  00bc3	6a 00		 push	 0
  00bc5	6a 00		 push	 0
  00bc7	b8 04 00 00 00	 mov	 eax, 4
  00bcc	6b c8 00	 imul	 ecx, eax, 0
  00bcf	8b 91 00 00 00
	00		 mov	 edx, DWORD PTR ?options_page_buttons@@3PAPAUUI_OBJECT@@A[ecx]
  00bd5	52		 push	 edx
  00bd6	e8 00 00 00 00	 call	 ?preprocess_translation_object_size@@YGXPAUUI_OBJECT@@0PAPBDHW4RESIZE_UI_OBJECT_TYPES@@@Z ; preprocess_translation_object_size

; 397  : 
; 398  : 	set_text_option_backdrop_object (option_bdrop, options_page_buttons [OPTIONS_PAGE_CONTROLLER]);

  00bdb	b8 04 00 00 00	 mov	 eax, 4
  00be0	6b c8 00	 imul	 ecx, eax, 0
  00be3	8b 91 00 00 00
	00		 mov	 edx, DWORD PTR ?options_page_buttons@@3PAPAUUI_OBJECT@@A[ecx]
  00be9	52		 push	 edx
  00bea	8b 45 fc	 mov	 eax, DWORD PTR _option_bdrop$[ebp]
  00bed	50		 push	 eax
  00bee	e8 00 00 00 00	 call	 ?set_text_option_backdrop_object@@YGXPAUUI_OBJECT@@0@Z ; set_text_option_backdrop_object

; 399  : 
; 400  : 	/////////////////////////////////////////////////////////////////
; 401  : 	// Multiplayer Button
; 402  : 
; 403  : 	x1 = 0.650;

  00bf3	f3 0f 10 05 00
	00 00 00	 movss	 xmm0, DWORD PTR __real@3f266666
  00bfb	f3 0f 11 45 f8	 movss	 DWORD PTR _x1$[ebp], xmm0

; 404  : 	x2 = 0.311;

  00c00	f3 0f 10 05 00
	00 00 00	 movss	 xmm0, DWORD PTR __real@3e9f3b64
  00c08	f3 0f 11 45 f0	 movss	 DWORD PTR _x2$[ebp], xmm0

; 405  : 	y1 = 0.186;

  00c0d	f3 0f 10 05 00
	00 00 00	 movss	 xmm0, DWORD PTR __real@3e3e76c9
  00c15	f3 0f 11 45 f4	 movss	 DWORD PTR _y1$[ebp], xmm0

; 406  : 	y2 = 0.052;

  00c1a	f3 0f 10 05 00
	00 00 00	 movss	 xmm0, DWORD PTR __real@3d54fdf4
  00c22	f3 0f 11 45 ec	 movss	 DWORD PTR _y2$[ebp], xmm0

; 407  : 
; 408  : 	option_bdrop = create_ui_object

  00c27	6a 11		 push	 17			; 00000011H
  00c29	a1 00 00 00 00	 mov	 eax, DWORD PTR ?text_option_bdrop@@3PAUTEXTURE_GRAPHIC@@A ; text_option_bdrop
  00c2e	50		 push	 eax
  00c2f	6a 4c		 push	 76			; 0000004cH
  00c31	68 f4 01 00 00	 push	 500			; 000001f4H
  00c36	6a 4d		 push	 77			; 0000004dH
  00c38	6a 00		 push	 0
  00c3a	6a 30		 push	 48			; 00000030H
  00c3c	68 ff 00 00 00	 push	 255			; 000000ffH
  00c41	68 ff 00 00 00	 push	 255			; 000000ffH
  00c46	68 ff 00 00 00	 push	 255			; 000000ffH
  00c4b	68 ff 00 00 00	 push	 255			; 000000ffH
  00c50	6a 0a		 push	 10			; 0000000aH
  00c52	6a 00		 push	 0
  00c54	68 ff 00 00 00	 push	 255			; 000000ffH
  00c59	68 ff 00 00 00	 push	 255			; 000000ffH
  00c5e	68 ff 00 00 00	 push	 255			; 000000ffH
  00c63	6a 0b		 push	 11			; 0000000bH
  00c65	83 ec 08	 sub	 esp, 8
  00c68	f2 0f 10 05 00
	00 00 00	 movsd	 xmm0, QWORD PTR __real@3fad2f1aa0000000
  00c70	f2 0f 11 04 24	 movsd	 QWORD PTR [esp], xmm0
  00c75	83 ec 08	 sub	 esp, 8
  00c78	f2 0f 10 05 00
	00 00 00	 movsd	 xmm0, QWORD PTR __real@3fdee978e0000000
  00c80	f2 0f 11 04 24	 movsd	 QWORD PTR [esp], xmm0
  00c85	6a 59		 push	 89			; 00000059H
  00c87	83 ec 08	 sub	 esp, 8
  00c8a	0f 57 c0	 xorps	 xmm0, xmm0
  00c8d	f2 0f 11 04 24	 movsd	 QWORD PTR [esp], xmm0
  00c92	83 ec 08	 sub	 esp, 8
  00c95	0f 57 c0	 xorps	 xmm0, xmm0
  00c98	f2 0f 11 04 24	 movsd	 QWORD PTR [esp], xmm0
  00c9d	6a 58		 push	 88			; 00000058H
  00c9f	8b 0d 00 00 00
	00		 mov	 ecx, DWORD PTR ?options_screen@@3PAUUI_OBJECT@@A ; options_screen
  00ca5	51		 push	 ecx
  00ca6	6a 32		 push	 50			; 00000032H
  00ca8	6a 01		 push	 1
  00caa	e8 00 00 00 00	 call	 ?create_ui_object@@YAPAUUI_OBJECT@@HZZ ; create_ui_object
  00caf	83 c4 78	 add	 esp, 120		; 00000078H
  00cb2	89 45 fc	 mov	 DWORD PTR _option_bdrop$[ebp], eax

; 409  : 	(
; 410  : 		UI_TYPE_AREA,
; 411  : 		UI_ATTR_PARENT (options_screen),
; 412  : 		UI_ATTR_VIRTUAL_POSITION (0.0, 0.0),
; 413  : 		UI_ATTR_VIRTUAL_SIZE (TEXT_OPTION_BDROP_WIDTH, TEXT_OPTION_BDROP_HEIGHT),
; 414  : 		UI_ATTR_COLOUR_START (255, 255, 255, 0),
; 415  : 		UI_ATTR_COLOUR_END (255, 255, 255, 255),
; 416  : 		UI_ATTR_OFFSET_TIME (0),
; 417  : 		UI_ATTR_TIME_LENGTH (500),
; 418  : 		UI_ATTR_TEXTURE_GRAPHIC (text_option_bdrop),
; 419  : 		UI_ATTR_END
; 420  : 	);
; 421  : 
; 422  : 	options_page_buttons [OPTIONS_PAGE_MULTIPLAYER] = create_ui_object

  00cb5	6a 11		 push	 17			; 00000011H
  00cb7	68 f4 01 00 00	 push	 500			; 000001f4H
  00cbc	6a 4d		 push	 77			; 0000004dH
  00cbe	6a 00		 push	 0
  00cc0	6a 30		 push	 48			; 00000030H
  00cc2	6a 01		 push	 1
  00cc4	6a 07		 push	 7
  00cc6	6a 01		 push	 1
  00cc8	6a 1b		 push	 27			; 0000001bH
  00cca	68 ff 00 00 00	 push	 255			; 000000ffH
  00ccf	0f b6 05 00 00
	00 00		 movzx	 eax, BYTE PTR ?ui_option_text_hilite_colour@@3UREAL_COLOUR@@A
  00cd6	50		 push	 eax
  00cd7	0f b6 0d 01 00
	00 00		 movzx	 ecx, BYTE PTR ?ui_option_text_hilite_colour@@3UREAL_COLOUR@@A+1
  00cde	51		 push	 ecx
  00cdf	0f b6 15 02 00
	00 00		 movzx	 edx, BYTE PTR ?ui_option_text_hilite_colour@@3UREAL_COLOUR@@A+2
  00ce6	52		 push	 edx
  00ce7	6a 22		 push	 34			; 00000022H
  00ce9	6a 00		 push	 0
  00ceb	0f b6 05 00 00
	00 00		 movzx	 eax, BYTE PTR ?ui_option_text_hilite_colour@@3UREAL_COLOUR@@A
  00cf2	50		 push	 eax
  00cf3	0f b6 0d 01 00
	00 00		 movzx	 ecx, BYTE PTR ?ui_option_text_hilite_colour@@3UREAL_COLOUR@@A+1
  00cfa	51		 push	 ecx
  00cfb	0f b6 15 02 00
	00 00		 movzx	 edx, BYTE PTR ?ui_option_text_hilite_colour@@3UREAL_COLOUR@@A+2
  00d02	52		 push	 edx
  00d03	6a 23		 push	 35			; 00000023H
  00d05	68 ff 00 00 00	 push	 255			; 000000ffH
  00d0a	0f b6 05 00 00
	00 00		 movzx	 eax, BYTE PTR ?ui_option_text_default_colour@@3UREAL_COLOUR@@A
  00d11	50		 push	 eax
  00d12	0f b6 0d 01 00
	00 00		 movzx	 ecx, BYTE PTR ?ui_option_text_default_colour@@3UREAL_COLOUR@@A+1
  00d19	51		 push	 ecx
  00d1a	0f b6 15 02 00
	00 00		 movzx	 edx, BYTE PTR ?ui_option_text_default_colour@@3UREAL_COLOUR@@A+2
  00d21	52		 push	 edx
  00d22	6a 14		 push	 20			; 00000014H
  00d24	6a 00		 push	 0
  00d26	0f b6 05 00 00
	00 00		 movzx	 eax, BYTE PTR ?ui_option_text_default_colour@@3UREAL_COLOUR@@A
  00d2d	50		 push	 eax
  00d2e	0f b6 0d 01 00
	00 00		 movzx	 ecx, BYTE PTR ?ui_option_text_default_colour@@3UREAL_COLOUR@@A+1
  00d35	51		 push	 ecx
  00d36	0f b6 15 02 00
	00 00		 movzx	 edx, BYTE PTR ?ui_option_text_default_colour@@3UREAL_COLOUR@@A+2
  00d3d	52		 push	 edx
  00d3e	6a 15		 push	 21			; 00000015H
  00d40	6a 09		 push	 9
  00d42	6a 12		 push	 18			; 00000012H
  00d44	6a 02		 push	 2
  00d46	6a 4b		 push	 75			; 0000004bH
  00d48	68 00 00 00 00	 push	 OFFSET ??_C@_0P@BIONMHDC@UI_MULTIPLAYER@
  00d4d	e8 00 00 00 00	 call	 ?get_trans@@YGPBDPBD@Z	; get_trans
  00d52	50		 push	 eax
  00d53	6a 4a		 push	 74			; 0000004aH
  00d55	6a 06		 push	 6
  00d57	6a 29		 push	 41			; 00000029H
  00d59	68 00 00 00 00	 push	 OFFSET ?notify_options_page_button@@YGXPAUUI_OBJECT@@PAX@Z ; notify_options_page_button
  00d5e	6a 16		 push	 22			; 00000016H
  00d60	f3 0f 5a 45 ec	 cvtss2sd xmm0, DWORD PTR _y2$[ebp]
  00d65	83 ec 08	 sub	 esp, 8
  00d68	f2 0f 11 04 24	 movsd	 QWORD PTR [esp], xmm0
  00d6d	f3 0f 5a 45 f0	 cvtss2sd xmm0, DWORD PTR _x2$[ebp]
  00d72	83 ec 08	 sub	 esp, 8
  00d75	f2 0f 11 04 24	 movsd	 QWORD PTR [esp], xmm0
  00d7a	6a 59		 push	 89			; 00000059H
  00d7c	f3 0f 5a 45 f4	 cvtss2sd xmm0, DWORD PTR _y1$[ebp]
  00d81	83 ec 08	 sub	 esp, 8
  00d84	f2 0f 11 04 24	 movsd	 QWORD PTR [esp], xmm0
  00d89	f3 0f 5a 45 f8	 cvtss2sd xmm0, DWORD PTR _x1$[ebp]
  00d8e	83 ec 08	 sub	 esp, 8
  00d91	f2 0f 11 04 24	 movsd	 QWORD PTR [esp], xmm0
  00d96	6a 58		 push	 88			; 00000058H
  00d98	a1 00 00 00 00	 mov	 eax, DWORD PTR ?options_screen@@3PAUUI_OBJECT@@A ; options_screen
  00d9d	50		 push	 eax
  00d9e	6a 32		 push	 50			; 00000032H
  00da0	6a 02		 push	 2
  00da2	e8 00 00 00 00	 call	 ?create_ui_object@@YAPAUUI_OBJECT@@HZZ ; create_ui_object
  00da7	81 c4 d0 00 00
	00		 add	 esp, 208		; 000000d0H
  00dad	b9 04 00 00 00	 mov	 ecx, 4
  00db2	6b d1 06	 imul	 edx, ecx, 6
  00db5	89 82 00 00 00
	00		 mov	 DWORD PTR ?options_page_buttons@@3PAPAUUI_OBJECT@@A[edx], eax

; 423  :             (
; 424  :                UI_TYPE_BUTTON,
; 425  :                UI_ATTR_PARENT (options_screen),
; 426  : 					UI_ATTR_VIRTUAL_POSITION (x1, y1),
; 427  : 					UI_ATTR_VIRTUAL_SIZE (x2, y2),
; 428  : 					UI_ATTR_FUNCTION (notify_options_page_button),
; 429  : 					UI_ATTR_ITEM_NUMBER (OPTIONS_PAGE_MULTIPLAYER),
; 430  : 					UI_ATTR_TEXT (get_trans ("UI_MULTIPLAYER")),
; 431  : 					UI_ATTR_TEXT_JUSTIFY (TEXT_JUSTIFY_RIGHT_CENTRE),
; 432  : 					UI_ATTR_FONT_TYPE (UI_FONT_STRETCH_ITALIC_ARIAL_18),
; 433  : 			      UI_ATTR_FONT_COLOUR_START (ui_option_text_default_colour.r, ui_option_text_default_colour.g, ui_option_text_default_colour.b, 0),
; 434  : 			      UI_ATTR_FONT_COLOUR_END (ui_option_text_default_colour.r, ui_option_text_default_colour.g, ui_option_text_default_colour.b, 255),
; 435  : 			      UI_ATTR_HIGHLIGHTED_FONT_COLOUR_START (ui_option_text_hilite_colour.r, ui_option_text_hilite_colour.g, ui_option_text_hilite_colour.b, 0),
; 436  : 				   UI_ATTR_HIGHLIGHTED_FONT_COLOUR_END (ui_option_text_hilite_colour.r, ui_option_text_hilite_colour.g, ui_option_text_hilite_colour.b, 255),
; 437  : 					UI_ATTR_HIGHLIGHTABLE (TRUE),
; 438  : 					UI_ATTR_CLEAR (TRUE),
; 439  : 					UI_ATTR_OFFSET_TIME (0),
; 440  : 					UI_ATTR_TIME_LENGTH (500),
; 441  :                UI_ATTR_END
; 442  :             );
; 443  : 
; 444  : 	preprocess_translation_object_size (options_page_buttons [OPTIONS_PAGE_MULTIPLAYER], NULL, NULL, 0, RESIZE_OPTION_FIXED_BUTTON);

  00dbb	6a 02		 push	 2
  00dbd	6a 00		 push	 0
  00dbf	6a 00		 push	 0
  00dc1	6a 00		 push	 0
  00dc3	b8 04 00 00 00	 mov	 eax, 4
  00dc8	6b c8 06	 imul	 ecx, eax, 6
  00dcb	8b 91 00 00 00
	00		 mov	 edx, DWORD PTR ?options_page_buttons@@3PAPAUUI_OBJECT@@A[ecx]
  00dd1	52		 push	 edx
  00dd2	e8 00 00 00 00	 call	 ?preprocess_translation_object_size@@YGXPAUUI_OBJECT@@0PAPBDHW4RESIZE_UI_OBJECT_TYPES@@@Z ; preprocess_translation_object_size

; 445  : 
; 446  : 	set_text_option_backdrop_object (option_bdrop, options_page_buttons [OPTIONS_PAGE_MULTIPLAYER]);

  00dd7	b8 04 00 00 00	 mov	 eax, 4
  00ddc	6b c8 06	 imul	 ecx, eax, 6
  00ddf	8b 91 00 00 00
	00		 mov	 edx, DWORD PTR ?options_page_buttons@@3PAPAUUI_OBJECT@@A[ecx]
  00de5	52		 push	 edx
  00de6	8b 45 fc	 mov	 eax, DWORD PTR _option_bdrop$[ebp]
  00de9	50		 push	 eax
  00dea	e8 00 00 00 00	 call	 ?set_text_option_backdrop_object@@YGXPAUUI_OBJECT@@0@Z ; set_text_option_backdrop_object

; 447  : 
; 448  : 	x1 = get_ui_object_virtual_x (options_page_buttons [OPTIONS_PAGE_MULTIPLAYER]);

  00def	b8 04 00 00 00	 mov	 eax, 4
  00df4	6b c8 06	 imul	 ecx, eax, 6
  00df7	8b 91 00 00 00
	00		 mov	 edx, DWORD PTR ?options_page_buttons@@3PAPAUUI_OBJECT@@A[ecx]
  00dfd	52		 push	 edx
  00dfe	b8 04 00 00 00	 mov	 eax, 4
  00e03	6b c8 06	 imul	 ecx, eax, 6
  00e06	8b 91 00 00 00
	00		 mov	 edx, DWORD PTR ?options_page_buttons@@3PAPAUUI_OBJECT@@A[ecx]
  00e0c	8b 02		 mov	 eax, DWORD PTR [edx]
  00e0e	8b 0c 85 00 00
	00 00		 mov	 ecx, DWORD PTR ?fn_get_ui_object_virtual_x@@3PAP6GMPAUUI_OBJECT@@@ZA[eax*4]
  00e15	ff d1		 call	 ecx
  00e17	d9 5d f8	 fstp	 DWORD PTR _x1$[ebp]

; 449  : 	x2 = get_ui_object_virtual_x_size (options_page_buttons [OPTIONS_PAGE_MULTIPLAYER]);

  00e1a	b8 04 00 00 00	 mov	 eax, 4
  00e1f	6b c8 06	 imul	 ecx, eax, 6
  00e22	8b 91 00 00 00
	00		 mov	 edx, DWORD PTR ?options_page_buttons@@3PAPAUUI_OBJECT@@A[ecx]
  00e28	52		 push	 edx
  00e29	b8 04 00 00 00	 mov	 eax, 4
  00e2e	6b c8 06	 imul	 ecx, eax, 6
  00e31	8b 91 00 00 00
	00		 mov	 edx, DWORD PTR ?options_page_buttons@@3PAPAUUI_OBJECT@@A[ecx]
  00e37	8b 02		 mov	 eax, DWORD PTR [edx]
  00e39	8b 0c 85 00 00
	00 00		 mov	 ecx, DWORD PTR ?fn_get_ui_object_virtual_x_size@@3PAP6GMPAUUI_OBJECT@@@ZA[eax*4]
  00e40	ff d1		 call	 ecx
  00e42	d9 5d f0	 fstp	 DWORD PTR _x2$[ebp]

; 450  : 
; 451  : 	ghost_multiplayer_option_button = create_ui_object

  00e45	6a 11		 push	 17			; 00000011H
  00e47	6a 00		 push	 0
  00e49	6a 10		 push	 16			; 00000010H
  00e4b	6a 01		 push	 1
  00e4d	6a 07		 push	 7
  00e4f	f3 0f 5a 45 ec	 cvtss2sd xmm0, DWORD PTR _y2$[ebp]
  00e54	83 ec 08	 sub	 esp, 8
  00e57	f2 0f 11 04 24	 movsd	 QWORD PTR [esp], xmm0
  00e5c	f3 0f 5a 45 f0	 cvtss2sd xmm0, DWORD PTR _x2$[ebp]
  00e61	83 ec 08	 sub	 esp, 8
  00e64	f2 0f 11 04 24	 movsd	 QWORD PTR [esp], xmm0
  00e69	6a 59		 push	 89			; 00000059H
  00e6b	f3 0f 5a 45 f4	 cvtss2sd xmm0, DWORD PTR _y1$[ebp]
  00e70	83 ec 08	 sub	 esp, 8
  00e73	f2 0f 11 04 24	 movsd	 QWORD PTR [esp], xmm0
  00e78	f3 0f 5a 45 f8	 cvtss2sd xmm0, DWORD PTR _x1$[ebp]
  00e7d	83 ec 08	 sub	 esp, 8
  00e80	f2 0f 11 04 24	 movsd	 QWORD PTR [esp], xmm0
  00e85	6a 58		 push	 88			; 00000058H
  00e87	a1 00 00 00 00	 mov	 eax, DWORD PTR ?options_screen@@3PAUUI_OBJECT@@A ; options_screen
  00e8c	50		 push	 eax
  00e8d	6a 32		 push	 50			; 00000032H
  00e8f	6a 01		 push	 1
  00e91	e8 00 00 00 00	 call	 ?create_ui_object@@YAPAUUI_OBJECT@@HZZ ; create_ui_object
  00e96	83 c4 48	 add	 esp, 72			; 00000048H
  00e99	a3 00 00 00 00	 mov	 DWORD PTR ?ghost_multiplayer_option_button@@3PAUUI_OBJECT@@A, eax ; ghost_multiplayer_option_button

; 452  : 									(
; 453  : 										UI_TYPE_AREA,
; 454  : 										UI_ATTR_PARENT (options_screen),
; 455  : 										UI_ATTR_VIRTUAL_POSITION (x1, y1),
; 456  : 										UI_ATTR_VIRTUAL_SIZE (x2, y2),
; 457  : 										UI_ATTR_CLEAR (TRUE),
; 458  : 										UI_ATTR_DRAWABLE (FALSE),
; 459  : 										UI_ATTR_END
; 460  : 									);
; 461  : 
; 462  : 	/////////////////////////////////////////////////////////////////
; 463  : 	// Ok Button
; 464  : 
; 465  : 	option_bdrop = create_ui_object

  00e9e	6a 11		 push	 17			; 00000011H
  00ea0	a1 00 00 00 00	 mov	 eax, DWORD PTR ?text_option_bdrop@@3PAUTEXTURE_GRAPHIC@@A ; text_option_bdrop
  00ea5	50		 push	 eax
  00ea6	6a 4c		 push	 76			; 0000004cH
  00ea8	68 f4 01 00 00	 push	 500			; 000001f4H
  00ead	6a 4d		 push	 77			; 0000004dH
  00eaf	6a 00		 push	 0
  00eb1	6a 30		 push	 48			; 00000030H
  00eb3	68 ff 00 00 00	 push	 255			; 000000ffH
  00eb8	68 ff 00 00 00	 push	 255			; 000000ffH
  00ebd	68 ff 00 00 00	 push	 255			; 000000ffH
  00ec2	68 ff 00 00 00	 push	 255			; 000000ffH
  00ec7	6a 0a		 push	 10			; 0000000aH
  00ec9	6a 00		 push	 0
  00ecb	68 ff 00 00 00	 push	 255			; 000000ffH
  00ed0	68 ff 00 00 00	 push	 255			; 000000ffH
  00ed5	68 ff 00 00 00	 push	 255			; 000000ffH
  00eda	6a 0b		 push	 11			; 0000000bH
  00edc	83 ec 08	 sub	 esp, 8
  00edf	f2 0f 10 05 00
	00 00 00	 movsd	 xmm0, QWORD PTR __real@3fad2f1aa0000000
  00ee7	f2 0f 11 04 24	 movsd	 QWORD PTR [esp], xmm0
  00eec	83 ec 08	 sub	 esp, 8
  00eef	f2 0f 10 05 00
	00 00 00	 movsd	 xmm0, QWORD PTR __real@3fdee978e0000000
  00ef7	f2 0f 11 04 24	 movsd	 QWORD PTR [esp], xmm0
  00efc	6a 59		 push	 89			; 00000059H
  00efe	83 ec 08	 sub	 esp, 8
  00f01	0f 57 c0	 xorps	 xmm0, xmm0
  00f04	f2 0f 11 04 24	 movsd	 QWORD PTR [esp], xmm0
  00f09	83 ec 08	 sub	 esp, 8
  00f0c	0f 57 c0	 xorps	 xmm0, xmm0
  00f0f	f2 0f 11 04 24	 movsd	 QWORD PTR [esp], xmm0
  00f14	6a 58		 push	 88			; 00000058H
  00f16	8b 0d 00 00 00
	00		 mov	 ecx, DWORD PTR ?options_screen@@3PAUUI_OBJECT@@A ; options_screen
  00f1c	51		 push	 ecx
  00f1d	6a 32		 push	 50			; 00000032H
  00f1f	6a 01		 push	 1
  00f21	e8 00 00 00 00	 call	 ?create_ui_object@@YAPAUUI_OBJECT@@HZZ ; create_ui_object
  00f26	83 c4 78	 add	 esp, 120		; 00000078H
  00f29	89 45 fc	 mov	 DWORD PTR _option_bdrop$[ebp], eax

; 466  : 	(
; 467  : 		UI_TYPE_AREA,
; 468  : 		UI_ATTR_PARENT (options_screen),
; 469  : 		UI_ATTR_VIRTUAL_POSITION (0.0, 0.0),
; 470  : 		UI_ATTR_VIRTUAL_SIZE (TEXT_OPTION_BDROP_WIDTH, TEXT_OPTION_BDROP_HEIGHT),
; 471  : 		UI_ATTR_COLOUR_START (255, 255, 255, 0),
; 472  : 		UI_ATTR_COLOUR_END (255, 255, 255, 255),
; 473  : 		UI_ATTR_OFFSET_TIME (0),
; 474  : 		UI_ATTR_TIME_LENGTH (500),
; 475  : 		UI_ATTR_TEXTURE_GRAPHIC (text_option_bdrop),
; 476  : 		UI_ATTR_END
; 477  : 	);
; 478  : 
; 479  : 	option_page_ok_button = create_ui_object

  00f2c	6a 11		 push	 17			; 00000011H
  00f2e	68 f4 01 00 00	 push	 500			; 000001f4H
  00f33	6a 4d		 push	 77			; 0000004dH
  00f35	6a 00		 push	 0
  00f37	6a 30		 push	 48			; 00000030H
  00f39	68 ff 00 00 00	 push	 255			; 000000ffH
  00f3e	68 ff 00 00 00	 push	 255			; 000000ffH
  00f43	68 ff 00 00 00	 push	 255			; 000000ffH
  00f48	68 ff 00 00 00	 push	 255			; 000000ffH
  00f4d	6a 0a		 push	 10			; 0000000aH
  00f4f	6a 00		 push	 0
  00f51	68 ff 00 00 00	 push	 255			; 000000ffH
  00f56	68 ff 00 00 00	 push	 255			; 000000ffH
  00f5b	68 ff 00 00 00	 push	 255			; 000000ffH
  00f60	6a 0b		 push	 11			; 0000000bH
  00f62	6a 01		 push	 1
  00f64	6a 07		 push	 7
  00f66	6a 01		 push	 1
  00f68	6a 1b		 push	 27			; 0000001bH
  00f6a	68 ff 00 00 00	 push	 255			; 000000ffH
  00f6f	0f b6 05 00 00
	00 00		 movzx	 eax, BYTE PTR ?ui_option_text_hilite_colour@@3UREAL_COLOUR@@A
  00f76	50		 push	 eax
  00f77	0f b6 0d 01 00
	00 00		 movzx	 ecx, BYTE PTR ?ui_option_text_hilite_colour@@3UREAL_COLOUR@@A+1
  00f7e	51		 push	 ecx
  00f7f	0f b6 15 02 00
	00 00		 movzx	 edx, BYTE PTR ?ui_option_text_hilite_colour@@3UREAL_COLOUR@@A+2
  00f86	52		 push	 edx
  00f87	6a 22		 push	 34			; 00000022H
  00f89	6a 00		 push	 0
  00f8b	0f b6 05 00 00
	00 00		 movzx	 eax, BYTE PTR ?ui_option_text_hilite_colour@@3UREAL_COLOUR@@A
  00f92	50		 push	 eax
  00f93	0f b6 0d 01 00
	00 00		 movzx	 ecx, BYTE PTR ?ui_option_text_hilite_colour@@3UREAL_COLOUR@@A+1
  00f9a	51		 push	 ecx
  00f9b	0f b6 15 02 00
	00 00		 movzx	 edx, BYTE PTR ?ui_option_text_hilite_colour@@3UREAL_COLOUR@@A+2
  00fa2	52		 push	 edx
  00fa3	6a 23		 push	 35			; 00000023H
  00fa5	68 ff 00 00 00	 push	 255			; 000000ffH
  00faa	0f b6 05 00 00
	00 00		 movzx	 eax, BYTE PTR ?ui_option_text_default_colour@@3UREAL_COLOUR@@A
  00fb1	50		 push	 eax
  00fb2	0f b6 0d 01 00
	00 00		 movzx	 ecx, BYTE PTR ?ui_option_text_default_colour@@3UREAL_COLOUR@@A+1
  00fb9	51		 push	 ecx
  00fba	0f b6 15 02 00
	00 00		 movzx	 edx, BYTE PTR ?ui_option_text_default_colour@@3UREAL_COLOUR@@A+2
  00fc1	52		 push	 edx
  00fc2	6a 14		 push	 20			; 00000014H
  00fc4	6a 00		 push	 0
  00fc6	0f b6 05 00 00
	00 00		 movzx	 eax, BYTE PTR ?ui_option_text_default_colour@@3UREAL_COLOUR@@A
  00fcd	50		 push	 eax
  00fce	0f b6 0d 01 00
	00 00		 movzx	 ecx, BYTE PTR ?ui_option_text_default_colour@@3UREAL_COLOUR@@A+1
  00fd5	51		 push	 ecx
  00fd6	0f b6 15 02 00
	00 00		 movzx	 edx, BYTE PTR ?ui_option_text_default_colour@@3UREAL_COLOUR@@A+2
  00fdd	52		 push	 edx
  00fde	6a 15		 push	 21			; 00000015H
  00fe0	6a 01		 push	 1
  00fe2	6a 4b		 push	 75			; 0000004bH
  00fe4	68 ff 00 00 00	 push	 255			; 000000ffH
  00fe9	6a 2f		 push	 47			; 0000002fH
  00feb	6a 7c		 push	 124			; 0000007cH
  00fed	68 fe 00 00 00	 push	 254			; 000000feH
  00ff2	6a 13		 push	 19			; 00000013H
  00ff4	6a 08		 push	 8
  00ff6	6a 12		 push	 18			; 00000012H
  00ff8	68 00 00 00 00	 push	 OFFSET ?notify_clear_options_screen@@YGXXZ ; notify_clear_options_screen
  00ffd	6a 16		 push	 22			; 00000016H
  00fff	6a 01		 push	 1
  01001	6a 2f		 push	 47			; 0000002fH
  01003	68 00 00 00 00	 push	 OFFSET ??_C@_05LMLILOOH@UI_OK@
  01008	e8 00 00 00 00	 call	 ?get_trans@@YGPBDPBD@Z	; get_trans
  0100d	50		 push	 eax
  0100e	6a 4a		 push	 74			; 0000004aH
  01010	83 ec 08	 sub	 esp, 8
  01013	f2 0f 10 05 00
	00 00 00	 movsd	 xmm0, QWORD PTR __real@3fa99999a0000000
  0101b	f2 0f 11 04 24	 movsd	 QWORD PTR [esp], xmm0
  01020	83 ec 08	 sub	 esp, 8
  01023	f2 0f 10 05 00
	00 00 00	 movsd	 xmm0, QWORD PTR __real@3fc3333340000000
  0102b	f2 0f 11 04 24	 movsd	 QWORD PTR [esp], xmm0
  01030	6a 59		 push	 89			; 00000059H
  01032	83 ec 08	 sub	 esp, 8
  01035	f2 0f 10 05 00
	00 00 00	 movsd	 xmm0, QWORD PTR __real@3fea872b00000000
  0103d	f2 0f 11 04 24	 movsd	 QWORD PTR [esp], xmm0
  01042	83 ec 08	 sub	 esp, 8
  01045	f2 0f 10 05 00
	00 00 00	 movsd	 xmm0, QWORD PTR __real@3fa374bc60000000
  0104d	f2 0f 11 04 24	 movsd	 QWORD PTR [esp], xmm0
  01052	6a 58		 push	 88			; 00000058H
  01054	a1 00 00 00 00	 mov	 eax, DWORD PTR ?options_screen@@3PAUUI_OBJECT@@A ; options_screen
  01059	50		 push	 eax
  0105a	6a 32		 push	 50			; 00000032H
  0105c	6a 02		 push	 2
  0105e	e8 00 00 00 00	 call	 ?create_ui_object@@YAPAUUI_OBJECT@@HZZ ; create_ui_object
  01063	81 c4 0c 01 00
	00		 add	 esp, 268		; 0000010cH
  01069	a3 00 00 00 00	 mov	 DWORD PTR ?option_page_ok_button@@3PAUUI_OBJECT@@A, eax ; option_page_ok_button

; 480  : 			(
; 481  : 				UI_TYPE_BUTTON,
; 482  : 				UI_ATTR_PARENT (options_screen),
; 483  : 				UI_ATTR_VIRTUAL_POSITION (OPTIONS_OK_BUTTON_POS_X, OPTIONS_OK_BUTTON_POS_Y),
; 484  : 				UI_ATTR_VIRTUAL_SIZE (OPTIONS_OK_BUTTON_X, OPTIONS_OK_BUTTON_Y),
; 485  : 				UI_ATTR_TEXT (get_trans("UI_OK")),
; 486  : 				UI_ATTR_NOTIFY_ON (NOTIFY_TYPE_BUTTON_UP),
; 487  : 				UI_ATTR_FUNCTION (notify_clear_options_screen),
; 488  : 				UI_ATTR_FONT_TYPE (UI_FONT_THICK_ITALIC_ARIAL_18),
; 489  : 				UI_ATTR_FONT_COLOUR (254, 124, 47, 255),
; 490  : 				UI_ATTR_TEXT_JUSTIFY (TEXT_JUSTIFY_LEFT_CENTRE),
; 491  :       		UI_ATTR_FONT_COLOUR_START (ui_option_text_default_colour.r, ui_option_text_default_colour.g, ui_option_text_default_colour.b, 0),
; 492  :       		UI_ATTR_FONT_COLOUR_END (ui_option_text_default_colour.r, ui_option_text_default_colour.g, ui_option_text_default_colour.b, 255),
; 493  :       		UI_ATTR_HIGHLIGHTED_FONT_COLOUR_START (ui_option_text_hilite_colour.r, ui_option_text_hilite_colour.g, ui_option_text_hilite_colour.b, 0),
; 494  :       		UI_ATTR_HIGHLIGHTED_FONT_COLOUR_END (ui_option_text_hilite_colour.r, ui_option_text_hilite_colour.g, ui_option_text_hilite_colour.b, 255),
; 495  : 				UI_ATTR_HIGHLIGHTABLE (TRUE),
; 496  : 				UI_ATTR_CLEAR (TRUE),
; 497  : 				UI_ATTR_COLOUR_START (255, 255, 255, 0),
; 498  : 				UI_ATTR_COLOUR_END (255, 255, 255, 255),
; 499  : 				UI_ATTR_OFFSET_TIME (0),
; 500  : 				UI_ATTR_TIME_LENGTH (500),
; 501  : 				UI_ATTR_END
; 502  : 			);
; 503  : 			
; 504  : 	set_text_option_backdrop_object (option_bdrop, option_page_ok_button);

  0106e	a1 00 00 00 00	 mov	 eax, DWORD PTR ?option_page_ok_button@@3PAUUI_OBJECT@@A ; option_page_ok_button
  01073	50		 push	 eax
  01074	8b 4d fc	 mov	 ecx, DWORD PTR _option_bdrop$[ebp]
  01077	51		 push	 ecx
  01078	e8 00 00 00 00	 call	 ?set_text_option_backdrop_object@@YGXPAUUI_OBJECT@@0@Z ; set_text_option_backdrop_object

; 505  : 
; 506  : }

  0107d	5f		 pop	 edi
  0107e	5e		 pop	 esi
  0107f	5b		 pop	 ebx
  01080	8b e5		 mov	 esp, ebp
  01082	5d		 pop	 ebp
  01083	c3		 ret	 0
?define_options_screen_common_objects@@YGXXZ ENDP	; define_options_screen_common_objects
_TEXT	ENDS
END
