; Listing generated by Microsoft (R) Optimizing Compiler Version 19.16.27045.0 

	TITLE	C:\Users\nhv90\Projects\eech\aphavoc\source\ui_menu\options\op_ctrlr.c
	.686P
	.XMM
	include listing.inc
	.model	flat

INCLUDELIB MSVCRTD
INCLUDELIB OLDNAMES

PUBLIC	?controller_area@@3PAUUI_OBJECT@@A		; controller_area
PUBLIC	?controller_text_area@@3PAUUI_OBJECT@@A		; controller_text_area
PUBLIC	?cyclic_area@@3PAUUI_OBJECT@@A			; cyclic_area
PUBLIC	?cyclic_y_area@@3PAUUI_OBJECT@@A		; cyclic_y_area
PUBLIC	?collective_area@@3PAUUI_OBJECT@@A		; collective_area
PUBLIC	?pedal_area@@3PAUUI_OBJECT@@A			; pedal_area
PUBLIC	?reverse_throttle_area@@3PAUUI_OBJECT@@A	; reverse_throttle_area
PUBLIC	?keyboard_assist_area@@3PAUUI_OBJECT@@A		; keyboard_assist_area
PUBLIC	?eo_pan_x_area@@3PAUUI_OBJECT@@A		; eo_pan_x_area
PUBLIC	?eo_pan_y_area@@3PAUUI_OBJECT@@A		; eo_pan_y_area
PUBLIC	?eo_zoom_area@@3PAUUI_OBJECT@@A			; eo_zoom_area
PUBLIC	?joylook_x_area@@3PAUUI_OBJECT@@A		; joylook_x_area
PUBLIC	?joylook_y_area@@3PAUUI_OBJECT@@A		; joylook_y_area
PUBLIC	?mouselook_area@@3PAUUI_OBJECT@@A		; mouselook_area
PUBLIC	?trackir_area@@3PAUUI_OBJECT@@A			; trackir_area
PUBLIC	?reverse_pedal_area@@3PAUUI_OBJECT@@A		; reverse_pedal_area
PUBLIC	?mouselook_sensitivity_area@@3PAUUI_OBJECT@@A	; mouselook_sensitivity_area
PUBLIC	?joylook_sensitivity_area@@3PAUUI_OBJECT@@A	; joylook_sensitivity_area
PUBLIC	?cyclic_option_button@@3PAUUI_OBJECT@@A		; cyclic_option_button
PUBLIC	?cyclic_y_option_button@@3PAUUI_OBJECT@@A	; cyclic_y_option_button
PUBLIC	?collective_option_button@@3PAUUI_OBJECT@@A	; collective_option_button
PUBLIC	?pedal_option_button@@3PAUUI_OBJECT@@A		; pedal_option_button
PUBLIC	?reverse_throttle_button@@3PAUUI_OBJECT@@A	; reverse_throttle_button
PUBLIC	?keyboard_assist_option_button@@3PAUUI_OBJECT@@A ; keyboard_assist_option_button
PUBLIC	?eo_pan_x_option_button@@3PAUUI_OBJECT@@A	; eo_pan_x_option_button
PUBLIC	?eo_pan_y_option_button@@3PAUUI_OBJECT@@A	; eo_pan_y_option_button
PUBLIC	?eo_zoom_option_button@@3PAUUI_OBJECT@@A	; eo_zoom_option_button
PUBLIC	?joylook_x_option_button@@3PAUUI_OBJECT@@A	; joylook_x_option_button
PUBLIC	?joylook_y_option_button@@3PAUUI_OBJECT@@A	; joylook_y_option_button
PUBLIC	?mouselook_option_button@@3PAUUI_OBJECT@@A	; mouselook_option_button
PUBLIC	?trackir_option_button@@3PAUUI_OBJECT@@A	; trackir_option_button
PUBLIC	?reverse_pedal_option_button@@3PAUUI_OBJECT@@A	; reverse_pedal_option_button
PUBLIC	?mouselook_sensitivity_up_button@@3PAUUI_OBJECT@@A ; mouselook_sensitivity_up_button
PUBLIC	?mouselook_sensitivity_down_button@@3PAUUI_OBJECT@@A ; mouselook_sensitivity_down_button
PUBLIC	?joylook_sensitivity_up_button@@3PAUUI_OBJECT@@A ; joylook_sensitivity_up_button
PUBLIC	?joylook_sensitivity_down_button@@3PAUUI_OBJECT@@A ; joylook_sensitivity_down_button
PUBLIC	?autoconfigure_area@@3PAUUI_OBJECT@@A		; autoconfigure_area
PUBLIC	?autoconfigure_button@@3PAUUI_OBJECT@@A		; autoconfigure_button
_BSS	SEGMENT
?controller_area@@3PAUUI_OBJECT@@A DD 01H DUP (?)	; controller_area
?controller_text_area@@3PAUUI_OBJECT@@A DD 01H DUP (?)	; controller_text_area
?cyclic_area@@3PAUUI_OBJECT@@A DD 01H DUP (?)		; cyclic_area
?cyclic_y_area@@3PAUUI_OBJECT@@A DD 01H DUP (?)		; cyclic_y_area
?collective_area@@3PAUUI_OBJECT@@A DD 01H DUP (?)	; collective_area
?pedal_area@@3PAUUI_OBJECT@@A DD 01H DUP (?)		; pedal_area
?reverse_throttle_area@@3PAUUI_OBJECT@@A DD 01H DUP (?)	; reverse_throttle_area
?keyboard_assist_area@@3PAUUI_OBJECT@@A DD 01H DUP (?)	; keyboard_assist_area
?eo_pan_x_area@@3PAUUI_OBJECT@@A DD 01H DUP (?)		; eo_pan_x_area
?eo_pan_y_area@@3PAUUI_OBJECT@@A DD 01H DUP (?)		; eo_pan_y_area
?eo_zoom_area@@3PAUUI_OBJECT@@A DD 01H DUP (?)		; eo_zoom_area
?joylook_x_area@@3PAUUI_OBJECT@@A DD 01H DUP (?)	; joylook_x_area
?joylook_y_area@@3PAUUI_OBJECT@@A DD 01H DUP (?)	; joylook_y_area
?mouselook_area@@3PAUUI_OBJECT@@A DD 01H DUP (?)	; mouselook_area
?trackir_area@@3PAUUI_OBJECT@@A DD 01H DUP (?)		; trackir_area
?reverse_pedal_area@@3PAUUI_OBJECT@@A DD 01H DUP (?)	; reverse_pedal_area
?mouselook_sensitivity_area@@3PAUUI_OBJECT@@A DD 01H DUP (?) ; mouselook_sensitivity_area
?joylook_sensitivity_area@@3PAUUI_OBJECT@@A DD 01H DUP (?) ; joylook_sensitivity_area
?cyclic_option_button@@3PAUUI_OBJECT@@A DD 01H DUP (?)	; cyclic_option_button
?cyclic_y_option_button@@3PAUUI_OBJECT@@A DD 01H DUP (?) ; cyclic_y_option_button
?collective_option_button@@3PAUUI_OBJECT@@A DD 01H DUP (?) ; collective_option_button
?pedal_option_button@@3PAUUI_OBJECT@@A DD 01H DUP (?)	; pedal_option_button
?reverse_throttle_button@@3PAUUI_OBJECT@@A DD 01H DUP (?) ; reverse_throttle_button
?keyboard_assist_option_button@@3PAUUI_OBJECT@@A DD 01H DUP (?) ; keyboard_assist_option_button
?eo_pan_x_option_button@@3PAUUI_OBJECT@@A DD 01H DUP (?) ; eo_pan_x_option_button
?eo_pan_y_option_button@@3PAUUI_OBJECT@@A DD 01H DUP (?) ; eo_pan_y_option_button
?eo_zoom_option_button@@3PAUUI_OBJECT@@A DD 01H DUP (?)	; eo_zoom_option_button
?joylook_x_option_button@@3PAUUI_OBJECT@@A DD 01H DUP (?) ; joylook_x_option_button
?joylook_y_option_button@@3PAUUI_OBJECT@@A DD 01H DUP (?) ; joylook_y_option_button
?mouselook_option_button@@3PAUUI_OBJECT@@A DD 01H DUP (?) ; mouselook_option_button
?trackir_option_button@@3PAUUI_OBJECT@@A DD 01H DUP (?)	; trackir_option_button
?reverse_pedal_option_button@@3PAUUI_OBJECT@@A DD 01H DUP (?) ; reverse_pedal_option_button
?mouselook_sensitivity_up_button@@3PAUUI_OBJECT@@A DD 01H DUP (?) ; mouselook_sensitivity_up_button
?mouselook_sensitivity_down_button@@3PAUUI_OBJECT@@A DD 01H DUP (?) ; mouselook_sensitivity_down_button
?joylook_sensitivity_up_button@@3PAUUI_OBJECT@@A DD 01H DUP (?) ; joylook_sensitivity_up_button
?joylook_sensitivity_down_button@@3PAUUI_OBJECT@@A DD 01H DUP (?) ; joylook_sensitivity_down_button
?autoconfigure_area@@3PAUUI_OBJECT@@A DD 01H DUP (?)	; autoconfigure_area
?autoconfigure_button@@3PAUUI_OBJECT@@A DD 01H DUP (?)	; autoconfigure_button
_BSS	ENDS
PUBLIC	___local_stdio_printf_options
PUBLIC	__vsnprintf_l
PUBLIC	__vsprintf_l
PUBLIC	_sprintf
PUBLIC	?initialise_joystick_selection@@YGXXZ		; initialise_joystick_selection
PUBLIC	?notify_show_controller_page@@YGXXZ		; notify_show_controller_page
PUBLIC	?define_options_screen_controller_page_objects@@YGXXZ ; define_options_screen_controller_page_objects
PUBLIC	?notify_cyclic_option_button@@YGXPAUUI_OBJECT@@PAX@Z ; notify_cyclic_option_button
PUBLIC	?notify_cyclic_option_button_right@@YGXPAUUI_OBJECT@@PAX@Z ; notify_cyclic_option_button_right
PUBLIC	?notify_collective_option_button@@YGXPAUUI_OBJECT@@PAX@Z ; notify_collective_option_button
PUBLIC	?notify_collective_option_button_right@@YGXPAUUI_OBJECT@@PAX@Z ; notify_collective_option_button_right
PUBLIC	?notify_pedal_option_button@@YGXPAUUI_OBJECT@@PAX@Z ; notify_pedal_option_button
PUBLIC	?notify_pedal_option_button_right@@YGXPAUUI_OBJECT@@PAX@Z ; notify_pedal_option_button_right
PUBLIC	?notify_reverse_throttle_option_button@@YGXPAUUI_OBJECT@@PAX@Z ; notify_reverse_throttle_option_button
PUBLIC	?notify_keyboard_assist_option_button@@YGXPAUUI_OBJECT@@PAX@Z ; notify_keyboard_assist_option_button
PUBLIC	?notify_cyclic_y_option_button@@YGXPAUUI_OBJECT@@PAX@Z ; notify_cyclic_y_option_button
PUBLIC	?notify_cyclic_y_option_button_right@@YGXPAUUI_OBJECT@@PAX@Z ; notify_cyclic_y_option_button_right
PUBLIC	?notify_eo_pan_x_option_button@@YGXPAUUI_OBJECT@@PAX@Z ; notify_eo_pan_x_option_button
PUBLIC	?notify_eo_pan_x_option_button_right@@YGXPAUUI_OBJECT@@PAX@Z ; notify_eo_pan_x_option_button_right
PUBLIC	?notify_eo_pan_y_option_button@@YGXPAUUI_OBJECT@@PAX@Z ; notify_eo_pan_y_option_button
PUBLIC	?notify_eo_pan_y_option_button_right@@YGXPAUUI_OBJECT@@PAX@Z ; notify_eo_pan_y_option_button_right
PUBLIC	?notify_eo_zoom_option_button@@YGXPAUUI_OBJECT@@PAX@Z ; notify_eo_zoom_option_button
PUBLIC	?notify_eo_zoom_option_button_right@@YGXPAUUI_OBJECT@@PAX@Z ; notify_eo_zoom_option_button_right
PUBLIC	?notify_joylook_x_option_button@@YGXPAUUI_OBJECT@@PAX@Z ; notify_joylook_x_option_button
PUBLIC	?notify_joylook_x_option_button_right@@YGXPAUUI_OBJECT@@PAX@Z ; notify_joylook_x_option_button_right
PUBLIC	?notify_joylook_y_option_button@@YGXPAUUI_OBJECT@@PAX@Z ; notify_joylook_y_option_button
PUBLIC	?notify_joylook_y_option_button_right@@YGXPAUUI_OBJECT@@PAX@Z ; notify_joylook_y_option_button_right
PUBLIC	?notify_mouselook_option_button@@YGXPAUUI_OBJECT@@PAX@Z ; notify_mouselook_option_button
PUBLIC	?notify_trackir_option_button@@YGXPAUUI_OBJECT@@PAX@Z ; notify_trackir_option_button
PUBLIC	?notify_reverse_pedal_option_button@@YGXPAUUI_OBJECT@@PAX@Z ; notify_reverse_pedal_option_button
PUBLIC	?notify_mouselook_sensitivity_up_button@@YGXPAUUI_OBJECT@@PAX@Z ; notify_mouselook_sensitivity_up_button
PUBLIC	?notify_mouselook_sensitivity_down_button@@YGXPAUUI_OBJECT@@PAX@Z ; notify_mouselook_sensitivity_down_button
PUBLIC	?notify_joylook_sensitivity_up_button@@YGXPAUUI_OBJECT@@PAX@Z ; notify_joylook_sensitivity_up_button
PUBLIC	?notify_joylook_sensitivity_down_button@@YGXPAUUI_OBJECT@@PAX@Z ; notify_joylook_sensitivity_down_button
PUBLIC	?draw_joylook_sensitivity@@YGXPAUUI_OBJECT@@PAX@Z ; draw_joylook_sensitivity
PUBLIC	?draw_mouselook_sensitivity@@YGXPAUUI_OBJECT@@PAX@Z ; draw_mouselook_sensitivity
PUBLIC	?notify_autoconfigure_button@@YGXPAUUI_OBJECT@@PAX@Z ; notify_autoconfigure_button
PUBLIC	?setTrackIRButton@@YGXH@Z			; setTrackIRButton
PUBLIC	?resetJoystickMapping@@YGXXZ			; resetJoystickMapping
PUBLIC	?findAxisInArray@@YGHHH@Z			; findAxisInArray
PUBLIC	?setAxisUnused@@YGXHH@Z				; setAxisUnused
PUBLIC	?checkIfAllAxisUsed@@YGHXZ			; checkIfAllAxisUsed
PUBLIC	?findNextUnusedAxis@@YGHHH@Z			; findNextUnusedAxis
PUBLIC	?findPreviousUnusedAxis@@YGHHH@Z		; findPreviousUnusedAxis
PUBLIC	?findNextUnusedDeviceAxis@@YGHHH@Z		; findNextUnusedDeviceAxis
PUBLIC	?findPreviousUnusedDeviceAxis@@YGHHH@Z		; findPreviousUnusedDeviceAxis
PUBLIC	?_OptionsStorage@?1??__local_stdio_printf_options@@9@4_KA ; `__local_stdio_printf_options'::`2'::_OptionsStorage
PUBLIC	??_C@_07JKJCPGE@Running@			; `string'
PUBLIC	??_C@_0BB@MBPLJEFF@Enable?5Mouselook@		; `string'
PUBLIC	??_C@_0M@OKJDIGM@UI_KEYBOARD@			; `string'
PUBLIC	??_C@_0M@IGALKCN@UI_JOYSTICK@			; `string'
PUBLIC	??_C@_08GFLOAMK@Throttle@			; `string'
PUBLIC	??_C@_0O@EFFFJMKH@Rudder?5Pedals@		; `string'
PUBLIC	??_C@_0BC@DKDFCFEL@UI_NONE_AVAILABLE@		; `string'
PUBLIC	??_C@_03GCDBBDDL@Off@				; `string'
PUBLIC	??_C@_02IAAGKKDJ@On@				; `string'
PUBLIC	??_C@_08DGAODAHG@Internal@			; `string'
PUBLIC	??_C@_08GKOOPLMO@External@			; `string'
PUBLIC	??_C@_0M@BNHKHIOK@Cyclic?5Roll@			; `string'
PUBLIC	??_C@_0N@LBJPPMFH@Cyclic?5Pitch@		; `string'
PUBLIC	??_C@_0O@MONLMMGG@UI_COLLECTIVE@		; `string'
PUBLIC	??_C@_08GHADFIKK@UI_PEDAL@			; `string'
PUBLIC	??_C@_08ILPJADEC@EO?5Pan?5X@			; `string'
PUBLIC	??_C@_08JCOCDCAD@EO?5Pan?5Y@			; `string'
PUBLIC	??_C@_07MMHBEFHB@EO?5Zoom@			; `string'
PUBLIC	??_C@_0BA@EKBOFBIH@Joystick?5Look?5X@		; `string'
PUBLIC	??_C@_0BA@FDAFGAMG@Joystick?5Look?5Y@		; `string'
PUBLIC	??_C@_0BB@DPPEHFHN@Reverse?5Throttle@		; `string'
PUBLIC	??_C@_0O@BEGINGPP@Reverse?5Pedal@		; `string'
PUBLIC	??_C@_09GPOHNNCP@Mouselook@			; `string'
PUBLIC	??_C@_07DGJNDEFB@TrackIR@			; `string'
PUBLIC	??_C@_0BA@HHGFKFIA@Keyboard?5Assist@		; `string'
PUBLIC	??_C@_00CNPNBAHC@@				; `string'
PUBLIC	??_C@_01JOAMLHOP@?9@				; `string'
PUBLIC	??_C@_01MIFGBAGJ@?$CL@				; `string'
PUBLIC	??_C@_0O@DCLDDLLA@Autoconfigure@		; `string'
PUBLIC	??_C@_0O@IOCFNIA@mouselook?3?5?$CFd@		; `string'
PUBLIC	??_C@_0BF@FNNLJAOC@reverse?5throttle?3?5?$CFd@	; `string'
PUBLIC	?__LINE__Var@?0??draw_joylook_sensitivity@@YGXPAUUI_OBJECT@@PAX@Z@4JA ; `draw_joylook_sensitivity'::`1'::__LINE__Var
PUBLIC	??_C@_0EH@BBCHONN@c?3?2users?2nhv90?2projects?2eech?2ap@ ; `string'
PUBLIC	??_C@_0EG@CIBADIJA@?$CIcommand_line_joylook_step?5?$DO?50?$CJ@ ; `string'
PUBLIC	??_C@_02IKAHHCAI@?$CFi@				; `string'
PUBLIC	?__LINE__Var@?0??draw_mouselook_sensitivity@@YGXPAUUI_OBJECT@@PAX@Z@4JA ; `draw_mouselook_sensitivity'::`1'::__LINE__Var
PUBLIC	??_C@_0EN@PMAEFEHM@?$CIcommand_line_mouse_look_speed?5@ ; `string'
PUBLIC	??_C@_0CH@JNOGJAB@?$HL053F06A3?90000?90000?90000?9504944@ ; `string'
PUBLIC	??_C@_0CH@OAILIJFK@?$HLC283046D?90000?90000?90000?9504944@ ; `string'
PUBLIC	??_C@_0CH@HFONIEK@?$HL0027045E?90000?90000?90000?9504944@ ; `string'
PUBLIC	??_C@_0CH@CGIFAPJA@?$HLB101044F?90000?90000?90000?9504944@ ; `string'
PUBLIC	??_C@_0CH@EONKCNGL@?$HL053C06A3?90000?90000?90000?9504944@ ; `string'
PUBLIC	??_C@_0CH@FENFAAHN@?$HL046406A3?90000?90000?90000?9504944@ ; `string'
PUBLIC	__real@3b2a64c3
PUBLIC	__real@3c03126f
PUBLIC	__real@3c23d70a
PUBLIC	__real@3d343958
PUBLIC	__real@3e851eb8
PUBLIC	__real@3f0ccccd
PUBLIC	__real@3f800000
PUBLIC	__real@3f847ae140000000
PUBLIC	__real@3fa47ae140000000
PUBLIC	__real@3fbba5e360000000
PUBLIC	__real@3fc24dd300000000
PUBLIC	__real@3fcba5e340000000
PUBLIC	__real@3fd3126ea0000000
PUBLIC	__real@3fd51eb851eb851f
PUBLIC	__real@3fd5c28f5c28f5c3
PUBLIC	__real@3fdae147ae147ae1
PUBLIC	__real@3fdcccccc0000000
PUBLIC	__real@3fe570a3d70a3d71
PUBLIC	__real@3fe999999999999a
PUBLIC	__real@3fee666660000000
PUBLIC	__real@3ff0000000000000
EXTRN	__imp____stdio_common_vsprintf:PROC
EXTRN	_strcmp:PROC
EXTRN	?process_assert@@YGXPBD0H@Z:PROC		; process_assert
EXTRN	?debug_filtered_log@@YAXPBDZZ:PROC		; debug_filtered_log
EXTRN	?GetGUIDString@@YGXHPAD@Z:PROC			; GetGUIDString
EXTRN	?query_TIR_active@@YAHXZ:PROC			; query_TIR_active
EXTRN	?TIR_Poll@@YGXXZ:PROC				; TIR_Poll
EXTRN	?create_ui_object@@YAPAUUI_OBJECT@@HZZ:PROC	; create_ui_object
EXTRN	?recursively_set_object_time@@YGXPAUUI_OBJECT@@HH@Z:PROC ; recursively_set_object_time
EXTRN	?set_toggle_button_off@@YGXPAUUI_OBJECT@@@Z:PROC ; set_toggle_button_off
EXTRN	?set_current_dynamics_options@@YGXW4DYNAMICS_OPTIONS_TYPES@@H@Z:PROC ; set_current_dynamics_options
EXTRN	?get_trans@@YGPBDPBD@Z:PROC			; get_trans
EXTRN	?display_options_page@@YGXW4OPTIONS_PAGES@@@Z:PROC ; display_options_page
EXTRN	?preprocess_translation_object_size@@YGXPAUUI_OBJECT@@0PAPBDHW4RESIZE_UI_OBJECT_TYPES@@@Z:PROC ; preprocess_translation_object_size
EXTRN	?number_of_joystick_devices@@3HA:DWORD		; number_of_joystick_devices
EXTRN	?AxisInfo@@3PAUAxisInfo_t@@A:BYTE		; AxisInfo
EXTRN	?AxisCount@@3HA:DWORD				; AxisCount
EXTRN	?fn_get_ui_object_x_end@@3PAP6GMPAUUI_OBJECT@@@ZA:BYTE ; fn_get_ui_object_x_end
EXTRN	?fn_get_ui_object_x_size_end@@3PAP6GMPAUUI_OBJECT@@@ZA:BYTE ; fn_get_ui_object_x_size_end
EXTRN	?fn_set_ui_object_text@@3PAP6GXPAUUI_OBJECT@@PBD@ZA:BYTE ; fn_set_ui_object_text
EXTRN	?fn_set_ui_object_font_colour@@3PAP6GXPAUUI_OBJECT@@DDDD@ZA:BYTE ; fn_set_ui_object_font_colour
EXTRN	?ui_option_title_text_colour@@3UREAL_COLOUR@@A:DWORD ; ui_option_title_text_colour
EXTRN	?ui_option_text_default_colour@@3UREAL_COLOUR@@A:DWORD ; ui_option_text_default_colour
EXTRN	?ui_option_text_hilite_colour@@3UREAL_COLOUR@@A:DWORD ; ui_option_text_hilite_colour
EXTRN	?command_line_mouse_look@@3HA:DWORD		; command_line_mouse_look
EXTRN	?command_line_mouse_look_speed@@3HA:DWORD	; command_line_mouse_look_speed
EXTRN	?command_line_eo_pan_joystick_index@@3HA:DWORD	; command_line_eo_pan_joystick_index
EXTRN	?command_line_eo_pan_vertical_joystick_axis@@3HA:DWORD ; command_line_eo_pan_vertical_joystick_axis
EXTRN	?command_line_eo_pan_horizontal_joystick_axis@@3HA:DWORD ; command_line_eo_pan_horizontal_joystick_axis
EXTRN	?command_line_eo_zoom_joystick_index@@3HA:DWORD	; command_line_eo_zoom_joystick_index
EXTRN	?command_line_eo_zoom_joystick_axis@@3HA:DWORD	; command_line_eo_zoom_joystick_axis
EXTRN	?command_line_cyclic_joystick_index@@3HA:DWORD	; command_line_cyclic_joystick_index
EXTRN	?command_line_cyclic_joystick_x_axis@@3HA:DWORD	; command_line_cyclic_joystick_x_axis
EXTRN	?command_line_cyclic_joystick_y_axis@@3HA:DWORD	; command_line_cyclic_joystick_y_axis
EXTRN	?command_line_collective_joystick_index@@3HA:DWORD ; command_line_collective_joystick_index
EXTRN	?command_line_collective_joystick_axis@@3HA:DWORD ; command_line_collective_joystick_axis
EXTRN	?command_line_rudder_joystick_index@@3HA:DWORD	; command_line_rudder_joystick_index
EXTRN	?command_line_rudder_joystick_axis@@3HA:DWORD	; command_line_rudder_joystick_axis
EXTRN	?command_line_joylook_joystick_index@@3HA:DWORD	; command_line_joylook_joystick_index
EXTRN	?command_line_joylookh_joystick_axis@@3HA:DWORD	; command_line_joylookh_joystick_axis
EXTRN	?command_line_joylookv_joystick_axis@@3HA:DWORD	; command_line_joylookv_joystick_axis
EXTRN	?command_line_joylook_step@@3HA:DWORD		; command_line_joylook_step
EXTRN	?command_line_reverse_pedal@@3HA:DWORD		; command_line_reverse_pedal
EXTRN	?global_options@@3UGLOBAL_OPTIONS_DATA@@A:BYTE	; global_options
EXTRN	?options_box_small@@3PAUTEXTURE_GRAPHIC@@A:DWORD ; options_box_small
EXTRN	?options_box_medium@@3PAUTEXTURE_GRAPHIC@@A:DWORD ; options_box_medium
EXTRN	?options_box_large@@3PAUTEXTURE_GRAPHIC@@A:DWORD ; options_box_large
EXTRN	?options_screen@@3PAUUI_OBJECT@@A:DWORD		; options_screen
EXTRN	?options_page@@3PAPAUUI_OBJECT@@A:BYTE		; options_page
EXTRN	__fltused:DWORD
;	COMDAT ?_OptionsStorage@?1??__local_stdio_printf_options@@9@4_KA
_BSS	SEGMENT
?_OptionsStorage@?1??__local_stdio_printf_options@@9@4_KA DQ 01H DUP (?) ; `__local_stdio_printf_options'::`2'::_OptionsStorage
_BSS	ENDS
_BSS	SEGMENT
?option_joystick_text@@3PAPBDA DD 02H DUP (?)		; option_joystick_text
?option_throttle_text@@3PAPBDA DD 02H DUP (?)		; option_throttle_text
?option_pedal_text@@3PAPBDA DD 02H DUP (?)		; option_pedal_text
?option_boolean_text@@3PAPBDA DD 02H DUP (?)		; option_boolean_text
?option_mouselook_text@@3PAPBDA DD 04H DUP (?)		; option_mouselook_text
?no_joystick_text@@3PBDB DD 01H DUP (?)			; no_joystick_text
?iDevice@?1??notify_autoconfigure_button@@YGXPAUUI_OBJECT@@PAX@Z@4HA DD 01H DUP (?) ; `notify_autoconfigure_button'::`2'::iDevice
_BSS	ENDS
;	COMDAT __real@3ff0000000000000
CONST	SEGMENT
__real@3ff0000000000000 DQ 03ff0000000000000r	; 1
CONST	ENDS
;	COMDAT __real@3fee666660000000
CONST	SEGMENT
__real@3fee666660000000 DQ 03fee666660000000r	; 0.95
CONST	ENDS
;	COMDAT __real@3fe999999999999a
CONST	SEGMENT
__real@3fe999999999999a DQ 03fe999999999999ar	; 0.8
CONST	ENDS
;	COMDAT __real@3fe570a3d70a3d71
CONST	SEGMENT
__real@3fe570a3d70a3d71 DQ 03fe570a3d70a3d71r	; 0.67
CONST	ENDS
;	COMDAT __real@3fdcccccc0000000
CONST	SEGMENT
__real@3fdcccccc0000000 DQ 03fdcccccc0000000r	; 0.45
CONST	ENDS
;	COMDAT __real@3fdae147ae147ae1
CONST	SEGMENT
__real@3fdae147ae147ae1 DQ 03fdae147ae147ae1r	; 0.42
CONST	ENDS
;	COMDAT __real@3fd5c28f5c28f5c3
CONST	SEGMENT
__real@3fd5c28f5c28f5c3 DQ 03fd5c28f5c28f5c3r	; 0.34
CONST	ENDS
;	COMDAT __real@3fd51eb851eb851f
CONST	SEGMENT
__real@3fd51eb851eb851f DQ 03fd51eb851eb851fr	; 0.33
CONST	ENDS
;	COMDAT __real@3fd3126ea0000000
CONST	SEGMENT
__real@3fd3126ea0000000 DQ 03fd3126ea0000000r	; 0.298
CONST	ENDS
;	COMDAT __real@3fcba5e340000000
CONST	SEGMENT
__real@3fcba5e340000000 DQ 03fcba5e340000000r	; 0.216
CONST	ENDS
;	COMDAT __real@3fc24dd300000000
CONST	SEGMENT
__real@3fc24dd300000000 DQ 03fc24dd300000000r	; 0.143
CONST	ENDS
;	COMDAT __real@3fbba5e360000000
CONST	SEGMENT
__real@3fbba5e360000000 DQ 03fbba5e360000000r	; 0.108
CONST	ENDS
;	COMDAT __real@3fa47ae140000000
CONST	SEGMENT
__real@3fa47ae140000000 DQ 03fa47ae140000000r	; 0.04
CONST	ENDS
;	COMDAT __real@3f847ae140000000
CONST	SEGMENT
__real@3f847ae140000000 DQ 03f847ae140000000r	; 0.01
CONST	ENDS
;	COMDAT __real@3f800000
CONST	SEGMENT
__real@3f800000 DD 03f800000r			; 1
CONST	ENDS
;	COMDAT __real@3f0ccccd
CONST	SEGMENT
__real@3f0ccccd DD 03f0ccccdr			; 0.55
CONST	ENDS
;	COMDAT __real@3e851eb8
CONST	SEGMENT
__real@3e851eb8 DD 03e851eb8r			; 0.26
CONST	ENDS
;	COMDAT __real@3d343958
CONST	SEGMENT
__real@3d343958 DD 03d343958r			; 0.044
CONST	ENDS
;	COMDAT __real@3c23d70a
CONST	SEGMENT
__real@3c23d70a DD 03c23d70ar			; 0.01
CONST	ENDS
;	COMDAT __real@3c03126f
CONST	SEGMENT
__real@3c03126f DD 03c03126fr			; 0.008
CONST	ENDS
;	COMDAT __real@3b2a64c3
CONST	SEGMENT
__real@3b2a64c3 DD 03b2a64c3r			; 0.0026
CONST	ENDS
;	COMDAT ??_C@_0CH@FENFAAHN@?$HL046406A3?90000?90000?90000?9504944@
CONST	SEGMENT
??_C@_0CH@FENFAAHN@?$HL046406A3?90000?90000?90000?9504944@ DB '{046406A3-'
	DB	'0000-0000-0000-504944564944}', 00H		; `string'
CONST	ENDS
;	COMDAT ??_C@_0CH@EONKCNGL@?$HL053C06A3?90000?90000?90000?9504944@
CONST	SEGMENT
??_C@_0CH@EONKCNGL@?$HL053C06A3?90000?90000?90000?9504944@ DB '{053C06A3-'
	DB	'0000-0000-0000-504944564944}', 00H		; `string'
CONST	ENDS
;	COMDAT ??_C@_0CH@CGIFAPJA@?$HLB101044F?90000?90000?90000?9504944@
CONST	SEGMENT
??_C@_0CH@CGIFAPJA@?$HLB101044F?90000?90000?90000?9504944@ DB '{B101044F-'
	DB	'0000-0000-0000-504944564944}', 00H		; `string'
CONST	ENDS
;	COMDAT ??_C@_0CH@HFONIEK@?$HL0027045E?90000?90000?90000?9504944@
CONST	SEGMENT
??_C@_0CH@HFONIEK@?$HL0027045E?90000?90000?90000?9504944@ DB '{0027045E-0'
	DB	'000-0000-0000-504944564944}', 00H		; `string'
CONST	ENDS
;	COMDAT ??_C@_0CH@OAILIJFK@?$HLC283046D?90000?90000?90000?9504944@
CONST	SEGMENT
??_C@_0CH@OAILIJFK@?$HLC283046D?90000?90000?90000?9504944@ DB '{C283046D-'
	DB	'0000-0000-0000-504944564944}', 00H		; `string'
CONST	ENDS
;	COMDAT ??_C@_0CH@JNOGJAB@?$HL053F06A3?90000?90000?90000?9504944@
CONST	SEGMENT
??_C@_0CH@JNOGJAB@?$HL053F06A3?90000?90000?90000?9504944@ DB '{053F06A3-0'
	DB	'000-0000-0000-504944564944}', 00H		; `string'
CONST	ENDS
;	COMDAT ??_C@_0EN@PMAEFEHM@?$CIcommand_line_mouse_look_speed?5@
CONST	SEGMENT
??_C@_0EN@PMAEFEHM@?$CIcommand_line_mouse_look_speed?5@ DB '(command_line'
	DB	'_mouse_look_speed > 0) && (command_line_mouse_look_speed <= 2'
	DB	'0)', 00H					; `string'
CONST	ENDS
;	COMDAT ?__LINE__Var@?0??draw_mouselook_sensitivity@@YGXPAUUI_OBJECT@@PAX@Z@4JA
_DATA	SEGMENT
?__LINE__Var@?0??draw_mouselook_sensitivity@@YGXPAUUI_OBJECT@@PAX@Z@4JA DD 0cb7H ; `draw_mouselook_sensitivity'::`1'::__LINE__Var
_DATA	ENDS
;	COMDAT ??_C@_02IKAHHCAI@?$CFi@
CONST	SEGMENT
??_C@_02IKAHHCAI@?$CFi@ DB '%i', 00H			; `string'
CONST	ENDS
;	COMDAT ??_C@_0EG@CIBADIJA@?$CIcommand_line_joylook_step?5?$DO?50?$CJ@
CONST	SEGMENT
??_C@_0EG@CIBADIJA@?$CIcommand_line_joylook_step?5?$DO?50?$CJ@ DB '(comma'
	DB	'nd_line_joylook_step > 0) && (command_line_joylook_step <= 10'
	DB	'0)', 00H					; `string'
CONST	ENDS
;	COMDAT ??_C@_0EH@BBCHONN@c?3?2users?2nhv90?2projects?2eech?2ap@
CONST	SEGMENT
??_C@_0EH@BBCHONN@c?3?2users?2nhv90?2projects?2eech?2ap@ DB 'c:\users\nhv'
	DB	'90\projects\eech\aphavoc\source\ui_menu\options\op_ctrlr.c', 00H ; `string'
CONST	ENDS
;	COMDAT ?__LINE__Var@?0??draw_joylook_sensitivity@@YGXPAUUI_OBJECT@@PAX@Z@4JA
_DATA	SEGMENT
?__LINE__Var@?0??draw_joylook_sensitivity@@YGXPAUUI_OBJECT@@PAX@Z@4JA DD 0c92H ; `draw_joylook_sensitivity'::`1'::__LINE__Var
_DATA	ENDS
;	COMDAT ??_C@_0BF@FNNLJAOC@reverse?5throttle?3?5?$CFd@
CONST	SEGMENT
??_C@_0BF@FNNLJAOC@reverse?5throttle?3?5?$CFd@ DB 'reverse throttle: %d', 00H ; `string'
CONST	ENDS
;	COMDAT ??_C@_0O@IOCFNIA@mouselook?3?5?$CFd@
CONST	SEGMENT
??_C@_0O@IOCFNIA@mouselook?3?5?$CFd@ DB 'mouselook: %d', 00H ; `string'
CONST	ENDS
;	COMDAT ??_C@_0O@DCLDDLLA@Autoconfigure@
CONST	SEGMENT
??_C@_0O@DCLDDLLA@Autoconfigure@ DB 'Autoconfigure', 00H ; `string'
CONST	ENDS
;	COMDAT ??_C@_01MIFGBAGJ@?$CL@
CONST	SEGMENT
??_C@_01MIFGBAGJ@?$CL@ DB '+', 00H			; `string'
CONST	ENDS
;	COMDAT ??_C@_01JOAMLHOP@?9@
CONST	SEGMENT
??_C@_01JOAMLHOP@?9@ DB '-', 00H			; `string'
CONST	ENDS
;	COMDAT ??_C@_00CNPNBAHC@@
CONST	SEGMENT
??_C@_00CNPNBAHC@@ DB 00H				; `string'
CONST	ENDS
;	COMDAT ??_C@_0BA@HHGFKFIA@Keyboard?5Assist@
CONST	SEGMENT
??_C@_0BA@HHGFKFIA@Keyboard?5Assist@ DB 'Keyboard Assist', 00H ; `string'
CONST	ENDS
;	COMDAT ??_C@_07DGJNDEFB@TrackIR@
CONST	SEGMENT
??_C@_07DGJNDEFB@TrackIR@ DB 'TrackIR', 00H		; `string'
CONST	ENDS
;	COMDAT ??_C@_09GPOHNNCP@Mouselook@
CONST	SEGMENT
??_C@_09GPOHNNCP@Mouselook@ DB 'Mouselook', 00H		; `string'
CONST	ENDS
;	COMDAT ??_C@_0O@BEGINGPP@Reverse?5Pedal@
CONST	SEGMENT
??_C@_0O@BEGINGPP@Reverse?5Pedal@ DB 'Reverse Pedal', 00H ; `string'
CONST	ENDS
;	COMDAT ??_C@_0BB@DPPEHFHN@Reverse?5Throttle@
CONST	SEGMENT
??_C@_0BB@DPPEHFHN@Reverse?5Throttle@ DB 'Reverse Throttle', 00H ; `string'
CONST	ENDS
;	COMDAT ??_C@_0BA@FDAFGAMG@Joystick?5Look?5Y@
CONST	SEGMENT
??_C@_0BA@FDAFGAMG@Joystick?5Look?5Y@ DB 'Joystick Look Y', 00H ; `string'
CONST	ENDS
;	COMDAT ??_C@_0BA@EKBOFBIH@Joystick?5Look?5X@
CONST	SEGMENT
??_C@_0BA@EKBOFBIH@Joystick?5Look?5X@ DB 'Joystick Look X', 00H ; `string'
CONST	ENDS
;	COMDAT ??_C@_07MMHBEFHB@EO?5Zoom@
CONST	SEGMENT
??_C@_07MMHBEFHB@EO?5Zoom@ DB 'EO Zoom', 00H		; `string'
CONST	ENDS
;	COMDAT ??_C@_08JCOCDCAD@EO?5Pan?5Y@
CONST	SEGMENT
??_C@_08JCOCDCAD@EO?5Pan?5Y@ DB 'EO Pan Y', 00H		; `string'
CONST	ENDS
;	COMDAT ??_C@_08ILPJADEC@EO?5Pan?5X@
CONST	SEGMENT
??_C@_08ILPJADEC@EO?5Pan?5X@ DB 'EO Pan X', 00H		; `string'
CONST	ENDS
;	COMDAT ??_C@_08GHADFIKK@UI_PEDAL@
CONST	SEGMENT
??_C@_08GHADFIKK@UI_PEDAL@ DB 'UI_PEDAL', 00H		; `string'
CONST	ENDS
;	COMDAT ??_C@_0O@MONLMMGG@UI_COLLECTIVE@
CONST	SEGMENT
??_C@_0O@MONLMMGG@UI_COLLECTIVE@ DB 'UI_COLLECTIVE', 00H ; `string'
CONST	ENDS
;	COMDAT ??_C@_0N@LBJPPMFH@Cyclic?5Pitch@
CONST	SEGMENT
??_C@_0N@LBJPPMFH@Cyclic?5Pitch@ DB 'Cyclic Pitch', 00H	; `string'
CONST	ENDS
;	COMDAT ??_C@_0M@BNHKHIOK@Cyclic?5Roll@
CONST	SEGMENT
??_C@_0M@BNHKHIOK@Cyclic?5Roll@ DB 'Cyclic Roll', 00H	; `string'
CONST	ENDS
;	COMDAT ??_C@_08GKOOPLMO@External@
CONST	SEGMENT
??_C@_08GKOOPLMO@External@ DB 'External', 00H		; `string'
CONST	ENDS
;	COMDAT ??_C@_08DGAODAHG@Internal@
CONST	SEGMENT
??_C@_08DGAODAHG@Internal@ DB 'Internal', 00H		; `string'
CONST	ENDS
;	COMDAT ??_C@_02IAAGKKDJ@On@
CONST	SEGMENT
??_C@_02IAAGKKDJ@On@ DB 'On', 00H			; `string'
CONST	ENDS
;	COMDAT ??_C@_03GCDBBDDL@Off@
CONST	SEGMENT
??_C@_03GCDBBDDL@Off@ DB 'Off', 00H			; `string'
CONST	ENDS
;	COMDAT ??_C@_0BC@DKDFCFEL@UI_NONE_AVAILABLE@
CONST	SEGMENT
??_C@_0BC@DKDFCFEL@UI_NONE_AVAILABLE@ DB 'UI_NONE_AVAILABLE', 00H ; `string'
CONST	ENDS
;	COMDAT ??_C@_0O@EFFFJMKH@Rudder?5Pedals@
CONST	SEGMENT
??_C@_0O@EFFFJMKH@Rudder?5Pedals@ DB 'Rudder Pedals', 00H ; `string'
CONST	ENDS
;	COMDAT ??_C@_08GFLOAMK@Throttle@
CONST	SEGMENT
??_C@_08GFLOAMK@Throttle@ DB 'Throttle', 00H		; `string'
CONST	ENDS
;	COMDAT ??_C@_0M@IGALKCN@UI_JOYSTICK@
CONST	SEGMENT
??_C@_0M@IGALKCN@UI_JOYSTICK@ DB 'UI_JOYSTICK', 00H	; `string'
CONST	ENDS
;	COMDAT ??_C@_0M@OKJDIGM@UI_KEYBOARD@
CONST	SEGMENT
??_C@_0M@OKJDIGM@UI_KEYBOARD@ DB 'UI_KEYBOARD', 00H	; `string'
CONST	ENDS
;	COMDAT ??_C@_0BB@MBPLJEFF@Enable?5Mouselook@
CONST	SEGMENT
??_C@_0BB@MBPLJEFF@Enable?5Mouselook@ DB 'Enable Mouselook', 00H ; `string'
CONST	ENDS
;	COMDAT ??_C@_07JKJCPGE@Running@
CONST	SEGMENT
??_C@_07JKJCPGE@Running@ DB 'Running', 00H		; `string'
CONST	ENDS
; Function compile flags: /Odtp /ZI
; File c:\users\nhv90\projects\eech\aphavoc\source\ui_menu\options\op_ctrlr.c
;	COMDAT ?findPreviousUnusedDeviceAxis@@YGHHH@Z
_TEXT	SEGMENT
_i$ = -8						; size = 4
_retAxisIndex$ = -4					; size = 4
_device$ = 8						; size = 4
_axis$ = 12						; size = 4
?findPreviousUnusedDeviceAxis@@YGHHH@Z PROC		; findPreviousUnusedDeviceAxis, COMDAT

; 526  : {

  00000	55		 push	 ebp
  00001	8b ec		 mov	 ebp, esp
  00003	83 ec 48	 sub	 esp, 72			; 00000048H
  00006	53		 push	 ebx
  00007	56		 push	 esi
  00008	57		 push	 edi

; 527  : 	int
; 528  : 		retAxisIndex,
; 529  : 		i;
; 530  : 
; 531  : 	// user has to assign 'x' axis first
; 532  : 	if (device == -1)

  00009	83 7d 08 ff	 cmp	 DWORD PTR _device$[ebp], -1
  0000d	75 07		 jne	 SHORT $LN5@findPrevio

; 533  : 		return 0;

  0000f	33 c0		 xor	 eax, eax
  00011	e9 ba 00 00 00	 jmp	 $LN1@findPrevio
$LN5@findPrevio:

; 534  : 
; 535  : 	retAxisIndex = findAxisInArray(device,axis);

  00016	8b 45 0c	 mov	 eax, DWORD PTR _axis$[ebp]
  00019	50		 push	 eax
  0001a	8b 4d 08	 mov	 ecx, DWORD PTR _device$[ebp]
  0001d	51		 push	 ecx
  0001e	e8 00 00 00 00	 call	 ?findAxisInArray@@YGHHH@Z ; findAxisInArray
  00023	89 45 fc	 mov	 DWORD PTR _retAxisIndex$[ebp], eax

; 536  : 
; 537  : 	// set old deviceaxis to 'unused'
; 538  : 	// '-1' indicated 'device+axis combination not found'
; 539  : 	// either it was not mapped or an old configuration
; 540  : 	// file was loaded (new device added or such)
; 541  : 	if (retAxisIndex != -1)

  00026	83 7d fc ff	 cmp	 DWORD PTR _retAxisIndex$[ebp], -1
  0002a	74 12		 je	 SHORT $LN6@findPrevio

; 542  : 		AxisInfo[retAxisIndex].inUse = FALSE;

  0002c	8b 45 fc	 mov	 eax, DWORD PTR _retAxisIndex$[ebp]
  0002f	c1 e0 04	 shl	 eax, 4
  00032	c7 80 0c 00 00
	00 00 00 00 00	 mov	 DWORD PTR ?AxisInfo@@3PAUAxisInfo_t@@A[eax+12], 0

; 543  : 	else

  0003c	eb 07		 jmp	 SHORT $LN7@findPrevio
$LN6@findPrevio:

; 544  : 		retAxisIndex = 0;

  0003e	c7 45 fc 00 00
	00 00		 mov	 DWORD PTR _retAxisIndex$[ebp], 0
$LN7@findPrevio:

; 545  : 
; 546  : 	// Retro 20Aug2004 - if no axis is available, set back to keyboard
; 547  : 	if (checkIfAllAxisUsed() == TRUE)

  00045	e8 00 00 00 00	 call	 ?checkIfAllAxisUsed@@YGHXZ ; checkIfAllAxisUsed
  0004a	83 f8 01	 cmp	 eax, 1
  0004d	75 04		 jne	 SHORT $LN8@findPrevio

; 548  : 		return 0;

  0004f	33 c0		 xor	 eax, eax
  00051	eb 7d		 jmp	 SHORT $LN1@findPrevio
$LN8@findPrevio:

; 549  : 
; 550  : 	// Retro 28Aug2004 - a safer variant, to avoid loops..
; 551  : 	for (i = (retAxisIndex + AxisCount-1); i > retAxisIndex-1; i--)

  00053	a1 00 00 00 00	 mov	 eax, DWORD PTR ?AxisCount@@3HA ; AxisCount
  00058	8b 4d fc	 mov	 ecx, DWORD PTR _retAxisIndex$[ebp]
  0005b	8d 54 01 ff	 lea	 edx, DWORD PTR [ecx+eax-1]
  0005f	89 55 f8	 mov	 DWORD PTR _i$[ebp], edx
  00062	eb 09		 jmp	 SHORT $LN4@findPrevio
$LN2@findPrevio:
  00064	8b 45 f8	 mov	 eax, DWORD PTR _i$[ebp]
  00067	83 e8 01	 sub	 eax, 1
  0006a	89 45 f8	 mov	 DWORD PTR _i$[ebp], eax
$LN4@findPrevio:
  0006d	8b 45 fc	 mov	 eax, DWORD PTR _retAxisIndex$[ebp]
  00070	83 e8 01	 sub	 eax, 1
  00073	39 45 f8	 cmp	 DWORD PTR _i$[ebp], eax
  00076	7e 3f		 jle	 SHORT $LN3@findPrevio

; 552  : 	{
; 553  : 		if ((AxisInfo[(i%AxisCount)].device == device)&&(AxisInfo[(i%AxisCount)].inUse == FALSE))

  00078	8b 45 f8	 mov	 eax, DWORD PTR _i$[ebp]
  0007b	99		 cdq
  0007c	f7 3d 00 00 00
	00		 idiv	 DWORD PTR ?AxisCount@@3HA ; AxisCount
  00082	c1 e2 04	 shl	 edx, 4
  00085	8b 82 04 00 00
	00		 mov	 eax, DWORD PTR ?AxisInfo@@3PAUAxisInfo_t@@A[edx+4]
  0008b	3b 45 08	 cmp	 eax, DWORD PTR _device$[ebp]
  0008e	75 25		 jne	 SHORT $LN9@findPrevio
  00090	8b 45 f8	 mov	 eax, DWORD PTR _i$[ebp]
  00093	99		 cdq
  00094	f7 3d 00 00 00
	00		 idiv	 DWORD PTR ?AxisCount@@3HA ; AxisCount
  0009a	c1 e2 04	 shl	 edx, 4
  0009d	83 ba 0c 00 00
	00 00		 cmp	 DWORD PTR ?AxisInfo@@3PAUAxisInfo_t@@A[edx+12], 0
  000a4	75 0f		 jne	 SHORT $LN9@findPrevio

; 554  : 		{
; 555  : 			retAxisIndex = (i%AxisCount);

  000a6	8b 45 f8	 mov	 eax, DWORD PTR _i$[ebp]
  000a9	99		 cdq
  000aa	f7 3d 00 00 00
	00		 idiv	 DWORD PTR ?AxisCount@@3HA ; AxisCount
  000b0	89 55 fc	 mov	 DWORD PTR _retAxisIndex$[ebp], edx

; 556  : 			break;

  000b3	eb 02		 jmp	 SHORT $LN3@findPrevio
$LN9@findPrevio:

; 557  : 		}
; 558  : 	}

  000b5	eb ad		 jmp	 SHORT $LN2@findPrevio
$LN3@findPrevio:

; 559  : 
; 560  : 	if (retAxisIndex != 0)

  000b7	83 7d fc 00	 cmp	 DWORD PTR _retAxisIndex$[ebp], 0
  000bb	74 10		 je	 SHORT $LN10@findPrevio

; 561  : 		AxisInfo[retAxisIndex].inUse = TRUE; // set new deviceaxis to 'used'

  000bd	8b 45 fc	 mov	 eax, DWORD PTR _retAxisIndex$[ebp]
  000c0	c1 e0 04	 shl	 eax, 4
  000c3	c7 80 0c 00 00
	00 01 00 00 00	 mov	 DWORD PTR ?AxisInfo@@3PAUAxisInfo_t@@A[eax+12], 1
$LN10@findPrevio:

; 562  : 
; 563  : 	return retAxisIndex;

  000cd	8b 45 fc	 mov	 eax, DWORD PTR _retAxisIndex$[ebp]
$LN1@findPrevio:

; 564  : }

  000d0	5f		 pop	 edi
  000d1	5e		 pop	 esi
  000d2	5b		 pop	 ebx
  000d3	8b e5		 mov	 esp, ebp
  000d5	5d		 pop	 ebp
  000d6	c2 08 00	 ret	 8
?findPreviousUnusedDeviceAxis@@YGHHH@Z ENDP		; findPreviousUnusedDeviceAxis
_TEXT	ENDS
; Function compile flags: /Odtp /ZI
; File c:\users\nhv90\projects\eech\aphavoc\source\ui_menu\options\op_ctrlr.c
;	COMDAT ?findNextUnusedDeviceAxis@@YGHHH@Z
_TEXT	SEGMENT
_i$ = -8						; size = 4
_retAxisIndex$ = -4					; size = 4
_device$ = 8						; size = 4
_axis$ = 12						; size = 4
?findNextUnusedDeviceAxis@@YGHHH@Z PROC			; findNextUnusedDeviceAxis, COMDAT

; 475  : {

  00000	55		 push	 ebp
  00001	8b ec		 mov	 ebp, esp
  00003	83 ec 48	 sub	 esp, 72			; 00000048H
  00006	53		 push	 ebx
  00007	56		 push	 esi
  00008	57		 push	 edi

; 476  : 	int
; 477  : 		retAxisIndex,
; 478  : 		i;
; 479  : 
; 480  : 	// user has to assign 'x' axis first
; 481  : 	if (device == -1)

  00009	83 7d 08 ff	 cmp	 DWORD PTR _device$[ebp], -1
  0000d	75 07		 jne	 SHORT $LN5@findNextUn

; 482  : 		return 0;

  0000f	33 c0		 xor	 eax, eax
  00011	e9 ba 00 00 00	 jmp	 $LN1@findNextUn
$LN5@findNextUn:

; 483  : 
; 484  : 	retAxisIndex = findAxisInArray(device,axis);

  00016	8b 45 0c	 mov	 eax, DWORD PTR _axis$[ebp]
  00019	50		 push	 eax
  0001a	8b 4d 08	 mov	 ecx, DWORD PTR _device$[ebp]
  0001d	51		 push	 ecx
  0001e	e8 00 00 00 00	 call	 ?findAxisInArray@@YGHHH@Z ; findAxisInArray
  00023	89 45 fc	 mov	 DWORD PTR _retAxisIndex$[ebp], eax

; 485  : 
; 486  : 	// set old deviceaxis to 'unused'
; 487  : 	// '-1' indicated 'device+axis combination not found'
; 488  : 	// either it was not mapped or an old configuration
; 489  : 	// file was loaded (new device added or such)
; 490  : 	if (retAxisIndex != -1)

  00026	83 7d fc ff	 cmp	 DWORD PTR _retAxisIndex$[ebp], -1
  0002a	74 12		 je	 SHORT $LN6@findNextUn

; 491  : 		AxisInfo[retAxisIndex].inUse = FALSE;

  0002c	8b 45 fc	 mov	 eax, DWORD PTR _retAxisIndex$[ebp]
  0002f	c1 e0 04	 shl	 eax, 4
  00032	c7 80 0c 00 00
	00 00 00 00 00	 mov	 DWORD PTR ?AxisInfo@@3PAUAxisInfo_t@@A[eax+12], 0

; 492  : 	else

  0003c	eb 07		 jmp	 SHORT $LN7@findNextUn
$LN6@findNextUn:

; 493  : 		retAxisIndex = 0;

  0003e	c7 45 fc 00 00
	00 00		 mov	 DWORD PTR _retAxisIndex$[ebp], 0
$LN7@findNextUn:

; 494  : 
; 495  : 	// Retro 20Aug2004 - if no axis is available, set back to keyboard
; 496  : 	if (checkIfAllAxisUsed() == TRUE)

  00045	e8 00 00 00 00	 call	 ?checkIfAllAxisUsed@@YGHXZ ; checkIfAllAxisUsed
  0004a	83 f8 01	 cmp	 eax, 1
  0004d	75 04		 jne	 SHORT $LN8@findNextUn

; 497  : 		return 0;

  0004f	33 c0		 xor	 eax, eax
  00051	eb 7d		 jmp	 SHORT $LN1@findNextUn
$LN8@findNextUn:

; 498  : 
; 499  : #if 0
; 500  : 	do {
; 501  : 		if ((retAxisIndex != -1)&&(retAxisIndex < AxisCount-1))
; 502  : 			retAxisIndex ++;
; 503  : 		else
; 504  : 			retAxisIndex = 1;	// no keyboard in this selection, thanks
; 505  : 
; 506  : 	} while ((AxisInfo[retAxisIndex].device != device)||(AxisInfo[retAxisIndex].inUse == TRUE));
; 507  : #else
; 508  : 	// Retro 28Aug2004 - a safer variant, to avoid loops..
; 509  : 	for (i = retAxisIndex+1; i < (retAxisIndex + AxisCount + 1); i++)

  00053	8b 45 fc	 mov	 eax, DWORD PTR _retAxisIndex$[ebp]
  00056	83 c0 01	 add	 eax, 1
  00059	89 45 f8	 mov	 DWORD PTR _i$[ebp], eax
  0005c	eb 09		 jmp	 SHORT $LN4@findNextUn
$LN2@findNextUn:
  0005e	8b 45 f8	 mov	 eax, DWORD PTR _i$[ebp]
  00061	83 c0 01	 add	 eax, 1
  00064	89 45 f8	 mov	 DWORD PTR _i$[ebp], eax
$LN4@findNextUn:
  00067	a1 00 00 00 00	 mov	 eax, DWORD PTR ?AxisCount@@3HA ; AxisCount
  0006c	8b 4d fc	 mov	 ecx, DWORD PTR _retAxisIndex$[ebp]
  0006f	8d 54 01 01	 lea	 edx, DWORD PTR [ecx+eax+1]
  00073	39 55 f8	 cmp	 DWORD PTR _i$[ebp], edx
  00076	7d 3f		 jge	 SHORT $LN3@findNextUn

; 510  : 	{
; 511  : 		if ((AxisInfo[(i%AxisCount)].device == device)&&(AxisInfo[(i%AxisCount)].inUse == FALSE))

  00078	8b 45 f8	 mov	 eax, DWORD PTR _i$[ebp]
  0007b	99		 cdq
  0007c	f7 3d 00 00 00
	00		 idiv	 DWORD PTR ?AxisCount@@3HA ; AxisCount
  00082	c1 e2 04	 shl	 edx, 4
  00085	8b 82 04 00 00
	00		 mov	 eax, DWORD PTR ?AxisInfo@@3PAUAxisInfo_t@@A[edx+4]
  0008b	3b 45 08	 cmp	 eax, DWORD PTR _device$[ebp]
  0008e	75 25		 jne	 SHORT $LN9@findNextUn
  00090	8b 45 f8	 mov	 eax, DWORD PTR _i$[ebp]
  00093	99		 cdq
  00094	f7 3d 00 00 00
	00		 idiv	 DWORD PTR ?AxisCount@@3HA ; AxisCount
  0009a	c1 e2 04	 shl	 edx, 4
  0009d	83 ba 0c 00 00
	00 00		 cmp	 DWORD PTR ?AxisInfo@@3PAUAxisInfo_t@@A[edx+12], 0
  000a4	75 0f		 jne	 SHORT $LN9@findNextUn

; 512  : 		{
; 513  : 			retAxisIndex = (i%AxisCount);

  000a6	8b 45 f8	 mov	 eax, DWORD PTR _i$[ebp]
  000a9	99		 cdq
  000aa	f7 3d 00 00 00
	00		 idiv	 DWORD PTR ?AxisCount@@3HA ; AxisCount
  000b0	89 55 fc	 mov	 DWORD PTR _retAxisIndex$[ebp], edx

; 514  : 			break;

  000b3	eb 02		 jmp	 SHORT $LN3@findNextUn
$LN9@findNextUn:

; 515  : 		}
; 516  : 	}

  000b5	eb a7		 jmp	 SHORT $LN2@findNextUn
$LN3@findNextUn:

; 517  : #endif
; 518  : 
; 519  : 	if (retAxisIndex != 0)

  000b7	83 7d fc 00	 cmp	 DWORD PTR _retAxisIndex$[ebp], 0
  000bb	74 10		 je	 SHORT $LN10@findNextUn

; 520  : 		AxisInfo[retAxisIndex].inUse = TRUE; // set new deviceaxis to 'used'

  000bd	8b 45 fc	 mov	 eax, DWORD PTR _retAxisIndex$[ebp]
  000c0	c1 e0 04	 shl	 eax, 4
  000c3	c7 80 0c 00 00
	00 01 00 00 00	 mov	 DWORD PTR ?AxisInfo@@3PAUAxisInfo_t@@A[eax+12], 1
$LN10@findNextUn:

; 521  : 
; 522  : 	return retAxisIndex;

  000cd	8b 45 fc	 mov	 eax, DWORD PTR _retAxisIndex$[ebp]
$LN1@findNextUn:

; 523  : }

  000d0	5f		 pop	 edi
  000d1	5e		 pop	 esi
  000d2	5b		 pop	 ebx
  000d3	8b e5		 mov	 esp, ebp
  000d5	5d		 pop	 ebp
  000d6	c2 08 00	 ret	 8
?findNextUnusedDeviceAxis@@YGHHH@Z ENDP			; findNextUnusedDeviceAxis
_TEXT	ENDS
; Function compile flags: /Odtp /ZI
; File c:\users\nhv90\projects\eech\aphavoc\source\ui_menu\options\op_ctrlr.c
;	COMDAT ?findPreviousUnusedAxis@@YGHHH@Z
_TEXT	SEGMENT
_i$ = -8						; size = 4
_retAxisIndex$ = -4					; size = 4
_device$ = 8						; size = 4
_axis$ = 12						; size = 4
?findPreviousUnusedAxis@@YGHHH@Z PROC			; findPreviousUnusedAxis, COMDAT

; 428  : {

  00000	55		 push	 ebp
  00001	8b ec		 mov	 ebp, esp
  00003	83 ec 48	 sub	 esp, 72			; 00000048H
  00006	53		 push	 ebx
  00007	56		 push	 esi
  00008	57		 push	 edi

; 429  : 	int
; 430  : 		retAxisIndex,
; 431  : 		i;
; 432  : 
; 433  : 	retAxisIndex = findAxisInArray(device,axis);

  00009	8b 45 0c	 mov	 eax, DWORD PTR _axis$[ebp]
  0000c	50		 push	 eax
  0000d	8b 4d 08	 mov	 ecx, DWORD PTR _device$[ebp]
  00010	51		 push	 ecx
  00011	e8 00 00 00 00	 call	 ?findAxisInArray@@YGHHH@Z ; findAxisInArray
  00016	89 45 fc	 mov	 DWORD PTR _retAxisIndex$[ebp], eax

; 434  : 
; 435  : 	// set old deviceaxis to 'unused'
; 436  : 	// '-1' indicated 'device+axis combination not found'
; 437  : 	// either it was not mapped or an old configuration
; 438  : 	// file was loaded (new device added or such)
; 439  : 	if (retAxisIndex != -1)

  00019	83 7d fc ff	 cmp	 DWORD PTR _retAxisIndex$[ebp], -1
  0001d	74 12		 je	 SHORT $LN5@findPrevio

; 440  : 		AxisInfo[retAxisIndex].inUse = FALSE;

  0001f	8b 45 fc	 mov	 eax, DWORD PTR _retAxisIndex$[ebp]
  00022	c1 e0 04	 shl	 eax, 4
  00025	c7 80 0c 00 00
	00 00 00 00 00	 mov	 DWORD PTR ?AxisInfo@@3PAUAxisInfo_t@@A[eax+12], 0

; 441  : 	else

  0002f	eb 07		 jmp	 SHORT $LN6@findPrevio
$LN5@findPrevio:

; 442  : 		retAxisIndex = 0;

  00031	c7 45 fc 00 00
	00 00		 mov	 DWORD PTR _retAxisIndex$[ebp], 0
$LN6@findPrevio:

; 443  : 
; 444  : 	// Retro 20Aug2004 - if no axis is available, set mapping back to keyboard
; 445  : 	if (checkIfAllAxisUsed() == TRUE)

  00038	e8 00 00 00 00	 call	 ?checkIfAllAxisUsed@@YGHXZ ; checkIfAllAxisUsed
  0003d	83 f8 01	 cmp	 eax, 1
  00040	75 04		 jne	 SHORT $LN7@findPrevio

; 446  : 		return 0;

  00042	33 c0		 xor	 eax, eax
  00044	eb 65		 jmp	 SHORT $LN1@findPrevio
$LN7@findPrevio:

; 447  : 
; 448  : 	// Retro 28Aug2004 - a safer variant, to avoid loops..
; 449  : 	for (i = (retAxisIndex + AxisCount-1); i > retAxisIndex-1; i--)

  00046	a1 00 00 00 00	 mov	 eax, DWORD PTR ?AxisCount@@3HA ; AxisCount
  0004b	8b 4d fc	 mov	 ecx, DWORD PTR _retAxisIndex$[ebp]
  0004e	8d 54 01 ff	 lea	 edx, DWORD PTR [ecx+eax-1]
  00052	89 55 f8	 mov	 DWORD PTR _i$[ebp], edx
  00055	eb 09		 jmp	 SHORT $LN4@findPrevio
$LN2@findPrevio:
  00057	8b 45 f8	 mov	 eax, DWORD PTR _i$[ebp]
  0005a	83 e8 01	 sub	 eax, 1
  0005d	89 45 f8	 mov	 DWORD PTR _i$[ebp], eax
$LN4@findPrevio:
  00060	8b 45 fc	 mov	 eax, DWORD PTR _retAxisIndex$[ebp]
  00063	83 e8 01	 sub	 eax, 1
  00066	39 45 f8	 cmp	 DWORD PTR _i$[ebp], eax
  00069	7e 27		 jle	 SHORT $LN3@findPrevio

; 450  : 	{
; 451  : 		if (AxisInfo[(i%AxisCount)].inUse == FALSE)

  0006b	8b 45 f8	 mov	 eax, DWORD PTR _i$[ebp]
  0006e	99		 cdq
  0006f	f7 3d 00 00 00
	00		 idiv	 DWORD PTR ?AxisCount@@3HA ; AxisCount
  00075	c1 e2 04	 shl	 edx, 4
  00078	83 ba 0c 00 00
	00 00		 cmp	 DWORD PTR ?AxisInfo@@3PAUAxisInfo_t@@A[edx+12], 0
  0007f	75 0f		 jne	 SHORT $LN8@findPrevio

; 452  : 		{
; 453  : 			retAxisIndex = (i%AxisCount);

  00081	8b 45 f8	 mov	 eax, DWORD PTR _i$[ebp]
  00084	99		 cdq
  00085	f7 3d 00 00 00
	00		 idiv	 DWORD PTR ?AxisCount@@3HA ; AxisCount
  0008b	89 55 fc	 mov	 DWORD PTR _retAxisIndex$[ebp], edx

; 454  : 			break;

  0008e	eb 02		 jmp	 SHORT $LN3@findPrevio
$LN8@findPrevio:

; 455  : 		}
; 456  : 	}

  00090	eb c5		 jmp	 SHORT $LN2@findPrevio
$LN3@findPrevio:

; 457  : 	
; 458  : 	// set new deviceaxis to 'used'
; 459  : 	// ..but keyboard is always 'not in use' for our purposes
; 460  : 	if (retAxisIndex != 0)

  00092	83 7d fc 00	 cmp	 DWORD PTR _retAxisIndex$[ebp], 0
  00096	74 10		 je	 SHORT $LN9@findPrevio

; 461  : 		AxisInfo[retAxisIndex].inUse = TRUE;

  00098	8b 45 fc	 mov	 eax, DWORD PTR _retAxisIndex$[ebp]
  0009b	c1 e0 04	 shl	 eax, 4
  0009e	c7 80 0c 00 00
	00 01 00 00 00	 mov	 DWORD PTR ?AxisInfo@@3PAUAxisInfo_t@@A[eax+12], 1
$LN9@findPrevio:

; 462  : 
; 463  : 	return retAxisIndex;

  000a8	8b 45 fc	 mov	 eax, DWORD PTR _retAxisIndex$[ebp]
$LN1@findPrevio:

; 464  : }

  000ab	5f		 pop	 edi
  000ac	5e		 pop	 esi
  000ad	5b		 pop	 ebx
  000ae	8b e5		 mov	 esp, ebp
  000b0	5d		 pop	 ebp
  000b1	c2 08 00	 ret	 8
?findPreviousUnusedAxis@@YGHHH@Z ENDP			; findPreviousUnusedAxis
_TEXT	ENDS
; Function compile flags: /Odtp /ZI
; File c:\users\nhv90\projects\eech\aphavoc\source\ui_menu\options\op_ctrlr.c
;	COMDAT ?findNextUnusedAxis@@YGHHH@Z
_TEXT	SEGMENT
_i$ = -8						; size = 4
_retAxisIndex$ = -4					; size = 4
_device$ = 8						; size = 4
_axis$ = 12						; size = 4
?findNextUnusedAxis@@YGHHH@Z PROC			; findNextUnusedAxis, COMDAT

; 389  : {

  00000	55		 push	 ebp
  00001	8b ec		 mov	 ebp, esp
  00003	83 ec 48	 sub	 esp, 72			; 00000048H
  00006	53		 push	 ebx
  00007	56		 push	 esi
  00008	57		 push	 edi

; 390  : 	int
; 391  : 		retAxisIndex,
; 392  : 		i;
; 393  : 
; 394  : 	retAxisIndex = findAxisInArray(device,axis);

  00009	8b 45 0c	 mov	 eax, DWORD PTR _axis$[ebp]
  0000c	50		 push	 eax
  0000d	8b 4d 08	 mov	 ecx, DWORD PTR _device$[ebp]
  00010	51		 push	 ecx
  00011	e8 00 00 00 00	 call	 ?findAxisInArray@@YGHHH@Z ; findAxisInArray
  00016	89 45 fc	 mov	 DWORD PTR _retAxisIndex$[ebp], eax

; 395  : 
; 396  : 	// set old deviceaxis to 'unused'
; 397  : 	// '-1' indicated 'device+axis combination not found'
; 398  : 	// either it was not mapped or an old configuration
; 399  : 	// file was loaded (new device added or such)
; 400  : 	if (retAxisIndex != -1)

  00019	83 7d fc ff	 cmp	 DWORD PTR _retAxisIndex$[ebp], -1
  0001d	74 12		 je	 SHORT $LN5@findNextUn

; 401  : 		AxisInfo[retAxisIndex].inUse = FALSE;

  0001f	8b 45 fc	 mov	 eax, DWORD PTR _retAxisIndex$[ebp]
  00022	c1 e0 04	 shl	 eax, 4
  00025	c7 80 0c 00 00
	00 00 00 00 00	 mov	 DWORD PTR ?AxisInfo@@3PAUAxisInfo_t@@A[eax+12], 0

; 402  : 	else

  0002f	eb 07		 jmp	 SHORT $LN6@findNextUn
$LN5@findNextUn:

; 403  : 		retAxisIndex = 0;

  00031	c7 45 fc 00 00
	00 00		 mov	 DWORD PTR _retAxisIndex$[ebp], 0
$LN6@findNextUn:

; 404  : 
; 405  : 	// Retro 20Aug2004 - if no axis is available, set mapping back to keyboard
; 406  : 	if (checkIfAllAxisUsed() == TRUE)

  00038	e8 00 00 00 00	 call	 ?checkIfAllAxisUsed@@YGHXZ ; checkIfAllAxisUsed
  0003d	83 f8 01	 cmp	 eax, 1
  00040	75 04		 jne	 SHORT $LN7@findNextUn

; 407  : 		return 0;

  00042	33 c0		 xor	 eax, eax
  00044	eb 65		 jmp	 SHORT $LN1@findNextUn
$LN7@findNextUn:

; 408  : 
; 409  : 	// Retro 28Aug2004 - a safer variant, to avoid loops..
; 410  : 	for (i = retAxisIndex+1; i < (retAxisIndex + AxisCount + 1); i++)

  00046	8b 45 fc	 mov	 eax, DWORD PTR _retAxisIndex$[ebp]
  00049	83 c0 01	 add	 eax, 1
  0004c	89 45 f8	 mov	 DWORD PTR _i$[ebp], eax
  0004f	eb 09		 jmp	 SHORT $LN4@findNextUn
$LN2@findNextUn:
  00051	8b 45 f8	 mov	 eax, DWORD PTR _i$[ebp]
  00054	83 c0 01	 add	 eax, 1
  00057	89 45 f8	 mov	 DWORD PTR _i$[ebp], eax
$LN4@findNextUn:
  0005a	a1 00 00 00 00	 mov	 eax, DWORD PTR ?AxisCount@@3HA ; AxisCount
  0005f	8b 4d fc	 mov	 ecx, DWORD PTR _retAxisIndex$[ebp]
  00062	8d 54 01 01	 lea	 edx, DWORD PTR [ecx+eax+1]
  00066	39 55 f8	 cmp	 DWORD PTR _i$[ebp], edx
  00069	7d 27		 jge	 SHORT $LN3@findNextUn

; 411  : 	{
; 412  : 		if (AxisInfo[(i%AxisCount)].inUse == FALSE)

  0006b	8b 45 f8	 mov	 eax, DWORD PTR _i$[ebp]
  0006e	99		 cdq
  0006f	f7 3d 00 00 00
	00		 idiv	 DWORD PTR ?AxisCount@@3HA ; AxisCount
  00075	c1 e2 04	 shl	 edx, 4
  00078	83 ba 0c 00 00
	00 00		 cmp	 DWORD PTR ?AxisInfo@@3PAUAxisInfo_t@@A[edx+12], 0
  0007f	75 0f		 jne	 SHORT $LN8@findNextUn

; 413  : 		{
; 414  : 			retAxisIndex = (i%AxisCount);

  00081	8b 45 f8	 mov	 eax, DWORD PTR _i$[ebp]
  00084	99		 cdq
  00085	f7 3d 00 00 00
	00		 idiv	 DWORD PTR ?AxisCount@@3HA ; AxisCount
  0008b	89 55 fc	 mov	 DWORD PTR _retAxisIndex$[ebp], edx

; 415  : 			break;

  0008e	eb 02		 jmp	 SHORT $LN3@findNextUn
$LN8@findNextUn:

; 416  : 		}
; 417  : 	}

  00090	eb bf		 jmp	 SHORT $LN2@findNextUn
$LN3@findNextUn:

; 418  : 
; 419  : 	// set new deviceaxis to 'used'
; 420  : 	// ..but keyboard is always 'not in use' for our purposes
; 421  : 	if (retAxisIndex != 0)

  00092	83 7d fc 00	 cmp	 DWORD PTR _retAxisIndex$[ebp], 0
  00096	74 10		 je	 SHORT $LN9@findNextUn

; 422  : 		AxisInfo[retAxisIndex].inUse = TRUE;

  00098	8b 45 fc	 mov	 eax, DWORD PTR _retAxisIndex$[ebp]
  0009b	c1 e0 04	 shl	 eax, 4
  0009e	c7 80 0c 00 00
	00 01 00 00 00	 mov	 DWORD PTR ?AxisInfo@@3PAUAxisInfo_t@@A[eax+12], 1
$LN9@findNextUn:

; 423  : 
; 424  : 	return retAxisIndex;

  000a8	8b 45 fc	 mov	 eax, DWORD PTR _retAxisIndex$[ebp]
$LN1@findNextUn:

; 425  : }

  000ab	5f		 pop	 edi
  000ac	5e		 pop	 esi
  000ad	5b		 pop	 ebx
  000ae	8b e5		 mov	 esp, ebp
  000b0	5d		 pop	 ebp
  000b1	c2 08 00	 ret	 8
?findNextUnusedAxis@@YGHHH@Z ENDP			; findNextUnusedAxis
_TEXT	ENDS
; Function compile flags: /Odtp /ZI
; File c:\users\nhv90\projects\eech\aphavoc\source\ui_menu\options\op_ctrlr.c
;	COMDAT ?checkIfAllAxisUsed@@YGHXZ
_TEXT	SEGMENT
_i$ = -4						; size = 4
?checkIfAllAxisUsed@@YGHXZ PROC				; checkIfAllAxisUsed, COMDAT

; 368  : {

  00000	55		 push	 ebp
  00001	8b ec		 mov	 ebp, esp
  00003	83 ec 44	 sub	 esp, 68			; 00000044H
  00006	53		 push	 ebx
  00007	56		 push	 esi
  00008	57		 push	 edi

; 369  : 	int
; 370  : 		i;
; 371  : 
; 372  : 	// we start with 1 as 0 is the Keyboard, and, for our purposes, _never_ in use
; 373  : 	for (i = 1; i < AxisCount; i++)

  00009	c7 45 fc 01 00
	00 00		 mov	 DWORD PTR _i$[ebp], 1
  00010	eb 09		 jmp	 SHORT $LN4@checkIfAll
$LN2@checkIfAll:
  00012	8b 45 fc	 mov	 eax, DWORD PTR _i$[ebp]
  00015	83 c0 01	 add	 eax, 1
  00018	89 45 fc	 mov	 DWORD PTR _i$[ebp], eax
$LN4@checkIfAll:
  0001b	8b 45 fc	 mov	 eax, DWORD PTR _i$[ebp]
  0001e	3b 05 00 00 00
	00		 cmp	 eax, DWORD PTR ?AxisCount@@3HA ; AxisCount
  00024	7d 15		 jge	 SHORT $LN3@checkIfAll

; 374  : 	{
; 375  : 		if (AxisInfo[i].inUse == FALSE)

  00026	8b 45 fc	 mov	 eax, DWORD PTR _i$[ebp]
  00029	c1 e0 04	 shl	 eax, 4
  0002c	83 b8 0c 00 00
	00 00		 cmp	 DWORD PTR ?AxisInfo@@3PAUAxisInfo_t@@A[eax+12], 0
  00033	75 04		 jne	 SHORT $LN5@checkIfAll

; 376  : 			return FALSE;

  00035	33 c0		 xor	 eax, eax
  00037	eb 07		 jmp	 SHORT $LN1@checkIfAll
$LN5@checkIfAll:

; 377  : 	}

  00039	eb d7		 jmp	 SHORT $LN2@checkIfAll
$LN3@checkIfAll:

; 378  : 
; 379  : 	return TRUE;

  0003b	b8 01 00 00 00	 mov	 eax, 1
$LN1@checkIfAll:

; 380  : }

  00040	5f		 pop	 edi
  00041	5e		 pop	 esi
  00042	5b		 pop	 ebx
  00043	8b e5		 mov	 esp, ebp
  00045	5d		 pop	 ebp
  00046	c3		 ret	 0
?checkIfAllAxisUsed@@YGHXZ ENDP				; checkIfAllAxisUsed
_TEXT	ENDS
; Function compile flags: /Odtp /ZI
; File c:\users\nhv90\projects\eech\aphavoc\source\ui_menu\options\op_ctrlr.c
;	COMDAT ?setAxisUnused@@YGXHH@Z
_TEXT	SEGMENT
_retAxisIndex$ = -4					; size = 4
_device$ = 8						; size = 4
_axis$ = 12						; size = 4
?setAxisUnused@@YGXHH@Z PROC				; setAxisUnused, COMDAT

; 353  : {

  00000	55		 push	 ebp
  00001	8b ec		 mov	 ebp, esp
  00003	83 ec 44	 sub	 esp, 68			; 00000044H
  00006	53		 push	 ebx
  00007	56		 push	 esi
  00008	57		 push	 edi

; 354  : 	int
; 355  : 		retAxisIndex;
; 356  : 
; 357  : 	retAxisIndex = findAxisInArray(device,axis);

  00009	8b 45 0c	 mov	 eax, DWORD PTR _axis$[ebp]
  0000c	50		 push	 eax
  0000d	8b 4d 08	 mov	 ecx, DWORD PTR _device$[ebp]
  00010	51		 push	 ecx
  00011	e8 00 00 00 00	 call	 ?findAxisInArray@@YGHHH@Z ; findAxisInArray
  00016	89 45 fc	 mov	 DWORD PTR _retAxisIndex$[ebp], eax

; 358  : 	if (retAxisIndex > 0)	// '0' is keyboard, '-1' is 'not found'

  00019	83 7d fc 00	 cmp	 DWORD PTR _retAxisIndex$[ebp], 0
  0001d	7e 10		 jle	 SHORT $LN1@setAxisUnu

; 359  : 		AxisInfo[retAxisIndex].inUse = FALSE;

  0001f	8b 45 fc	 mov	 eax, DWORD PTR _retAxisIndex$[ebp]
  00022	c1 e0 04	 shl	 eax, 4
  00025	c7 80 0c 00 00
	00 00 00 00 00	 mov	 DWORD PTR ?AxisInfo@@3PAUAxisInfo_t@@A[eax+12], 0
$LN1@setAxisUnu:

; 360  : }

  0002f	5f		 pop	 edi
  00030	5e		 pop	 esi
  00031	5b		 pop	 ebx
  00032	8b e5		 mov	 esp, ebp
  00034	5d		 pop	 ebp
  00035	c2 08 00	 ret	 8
?setAxisUnused@@YGXHH@Z ENDP				; setAxisUnused
_TEXT	ENDS
; Function compile flags: /Odtp /ZI
; File c:\users\nhv90\projects\eech\aphavoc\source\ui_menu\options\op_ctrlr.c
;	COMDAT ?findAxisInArray@@YGHHH@Z
_TEXT	SEGMENT
_i$ = -4						; size = 4
_device$ = 8						; size = 4
_axis$ = 12						; size = 4
?findAxisInArray@@YGHHH@Z PROC				; findAxisInArray, COMDAT

; 333  : {

  00000	55		 push	 ebp
  00001	8b ec		 mov	 ebp, esp
  00003	83 ec 44	 sub	 esp, 68			; 00000044H
  00006	53		 push	 ebx
  00007	56		 push	 esi
  00008	57		 push	 edi

; 334  : 	int
; 335  : 		i;
; 336  : 
; 337  : 	for (i = 0; i < AxisCount; i++)

  00009	c7 45 fc 00 00
	00 00		 mov	 DWORD PTR _i$[ebp], 0
  00010	eb 09		 jmp	 SHORT $LN4@findAxisIn
$LN2@findAxisIn:
  00012	8b 45 fc	 mov	 eax, DWORD PTR _i$[ebp]
  00015	83 c0 01	 add	 eax, 1
  00018	89 45 fc	 mov	 DWORD PTR _i$[ebp], eax
$LN4@findAxisIn:
  0001b	8b 45 fc	 mov	 eax, DWORD PTR _i$[ebp]
  0001e	3b 05 00 00 00
	00		 cmp	 eax, DWORD PTR ?AxisCount@@3HA ; AxisCount
  00024	7d 29		 jge	 SHORT $LN3@findAxisIn

; 338  : 	{
; 339  : 		if ((AxisInfo[i].device == device)&&(AxisInfo[i].axis == axis))

  00026	8b 45 fc	 mov	 eax, DWORD PTR _i$[ebp]
  00029	c1 e0 04	 shl	 eax, 4
  0002c	8b 88 04 00 00
	00		 mov	 ecx, DWORD PTR ?AxisInfo@@3PAUAxisInfo_t@@A[eax+4]
  00032	3b 4d 08	 cmp	 ecx, DWORD PTR _device$[ebp]
  00035	75 16		 jne	 SHORT $LN5@findAxisIn
  00037	8b 45 fc	 mov	 eax, DWORD PTR _i$[ebp]
  0003a	c1 e0 04	 shl	 eax, 4
  0003d	8b 88 08 00 00
	00		 mov	 ecx, DWORD PTR ?AxisInfo@@3PAUAxisInfo_t@@A[eax+8]
  00043	3b 4d 0c	 cmp	 ecx, DWORD PTR _axis$[ebp]
  00046	75 05		 jne	 SHORT $LN5@findAxisIn

; 340  : 		{
; 341  : 			return i;

  00048	8b 45 fc	 mov	 eax, DWORD PTR _i$[ebp]
  0004b	eb 05		 jmp	 SHORT $LN1@findAxisIn
$LN5@findAxisIn:

; 342  : 		}
; 343  : 	}

  0004d	eb c3		 jmp	 SHORT $LN2@findAxisIn
$LN3@findAxisIn:

; 344  : 	return -1;

  0004f	83 c8 ff	 or	 eax, -1
$LN1@findAxisIn:

; 345  : }

  00052	5f		 pop	 edi
  00053	5e		 pop	 esi
  00054	5b		 pop	 ebx
  00055	8b e5		 mov	 esp, ebp
  00057	5d		 pop	 ebp
  00058	c2 08 00	 ret	 8
?findAxisInArray@@YGHHH@Z ENDP				; findAxisInArray
_TEXT	ENDS
; Function compile flags: /Odtp /ZI
; File c:\users\nhv90\projects\eech\aphavoc\source\ui_menu\options\op_ctrlr.c
;	COMDAT ?resetJoystickMapping@@YGXXZ
_TEXT	SEGMENT
_i$ = -4						; size = 4
?resetJoystickMapping@@YGXXZ PROC			; resetJoystickMapping, COMDAT

; 191  : {

  00000	55		 push	 ebp
  00001	8b ec		 mov	 ebp, esp
  00003	83 ec 44	 sub	 esp, 68			; 00000044H
  00006	53		 push	 ebx
  00007	56		 push	 esi
  00008	57		 push	 edi

; 192  : 	int
; 193  : 		i;
; 194  : 
; 195  : 	set_global_collective_input ( KEYBOARD_INPUT );

  00009	c7 05 2c 00 00
	00 01 00 00 00	 mov	 DWORD PTR ?global_options@@3UGLOBAL_OPTIONS_DATA@@A+44, 1

; 196  : 
; 197  : 	set_global_cyclic_input ( KEYBOARD_INPUT );

  00013	c7 05 28 00 00
	00 01 00 00 00	 mov	 DWORD PTR ?global_options@@3UGLOBAL_OPTIONS_DATA@@A+40, 1

; 198  : 
; 199  : 	set_global_pedal_input ( KEYBOARD_INPUT );

  0001d	c7 05 30 00 00
	00 01 00 00 00	 mov	 DWORD PTR ?global_options@@3UGLOBAL_OPTIONS_DATA@@A+48, 1

; 200  : 
; 201  : 	command_line_cyclic_joystick_index = -1;

  00027	c7 05 00 00 00
	00 ff ff ff ff	 mov	 DWORD PTR ?command_line_cyclic_joystick_index@@3HA, -1 ; command_line_cyclic_joystick_index

; 202  : 	command_line_cyclic_joystick_x_axis = -1;

  00031	c7 05 00 00 00
	00 ff ff ff ff	 mov	 DWORD PTR ?command_line_cyclic_joystick_x_axis@@3HA, -1 ; command_line_cyclic_joystick_x_axis

; 203  : 	command_line_cyclic_joystick_y_axis =- 1;

  0003b	c7 05 00 00 00
	00 ff ff ff ff	 mov	 DWORD PTR ?command_line_cyclic_joystick_y_axis@@3HA, -1 ; command_line_cyclic_joystick_y_axis

; 204  : 
; 205  : 	command_line_collective_joystick_index = -1;

  00045	c7 05 00 00 00
	00 ff ff ff ff	 mov	 DWORD PTR ?command_line_collective_joystick_index@@3HA, -1 ; command_line_collective_joystick_index

; 206  : 	command_line_collective_joystick_axis = -1;

  0004f	c7 05 00 00 00
	00 ff ff ff ff	 mov	 DWORD PTR ?command_line_collective_joystick_axis@@3HA, -1 ; command_line_collective_joystick_axis

; 207  : 
; 208  : 	command_line_rudder_joystick_index = -1;

  00059	c7 05 00 00 00
	00 ff ff ff ff	 mov	 DWORD PTR ?command_line_rudder_joystick_index@@3HA, -1 ; command_line_rudder_joystick_index

; 209  : 	command_line_rudder_joystick_axis = -1;

  00063	c7 05 00 00 00
	00 ff ff ff ff	 mov	 DWORD PTR ?command_line_rudder_joystick_axis@@3HA, -1 ; command_line_rudder_joystick_axis

; 210  : 
; 211  : 	command_line_eo_pan_joystick_index = -1;

  0006d	c7 05 00 00 00
	00 ff ff ff ff	 mov	 DWORD PTR ?command_line_eo_pan_joystick_index@@3HA, -1 ; command_line_eo_pan_joystick_index

; 212  : 	command_line_eo_pan_vertical_joystick_axis = -1;

  00077	c7 05 00 00 00
	00 ff ff ff ff	 mov	 DWORD PTR ?command_line_eo_pan_vertical_joystick_axis@@3HA, -1 ; command_line_eo_pan_vertical_joystick_axis

; 213  : 	command_line_eo_pan_horizontal_joystick_axis = -1;

  00081	c7 05 00 00 00
	00 ff ff ff ff	 mov	 DWORD PTR ?command_line_eo_pan_horizontal_joystick_axis@@3HA, -1 ; command_line_eo_pan_horizontal_joystick_axis

; 214  : 
; 215  : 	command_line_eo_zoom_joystick_index = -1;

  0008b	c7 05 00 00 00
	00 ff ff ff ff	 mov	 DWORD PTR ?command_line_eo_zoom_joystick_index@@3HA, -1 ; command_line_eo_zoom_joystick_index

; 216  : 	command_line_eo_zoom_joystick_axis = -1;

  00095	c7 05 00 00 00
	00 ff ff ff ff	 mov	 DWORD PTR ?command_line_eo_zoom_joystick_axis@@3HA, -1 ; command_line_eo_zoom_joystick_axis

; 217  : 
; 218  : 	command_line_joylook_joystick_index = -1;

  0009f	c7 05 00 00 00
	00 ff ff ff ff	 mov	 DWORD PTR ?command_line_joylook_joystick_index@@3HA, -1 ; command_line_joylook_joystick_index

; 219  : 	command_line_joylookh_joystick_axis = -1;

  000a9	c7 05 00 00 00
	00 ff ff ff ff	 mov	 DWORD PTR ?command_line_joylookh_joystick_axis@@3HA, -1 ; command_line_joylookh_joystick_axis

; 220  : 	command_line_joylookv_joystick_axis = -1;

  000b3	c7 05 00 00 00
	00 ff ff ff ff	 mov	 DWORD PTR ?command_line_joylookv_joystick_axis@@3HA, -1 ; command_line_joylookv_joystick_axis

; 221  : 
; 222  : 	for (i = 0; i < AxisCount; i++)

  000bd	c7 45 fc 00 00
	00 00		 mov	 DWORD PTR _i$[ebp], 0
  000c4	eb 09		 jmp	 SHORT $LN4@resetJoyst
$LN2@resetJoyst:
  000c6	8b 45 fc	 mov	 eax, DWORD PTR _i$[ebp]
  000c9	83 c0 01	 add	 eax, 1
  000cc	89 45 fc	 mov	 DWORD PTR _i$[ebp], eax
$LN4@resetJoyst:
  000cf	8b 45 fc	 mov	 eax, DWORD PTR _i$[ebp]
  000d2	3b 05 00 00 00
	00		 cmp	 eax, DWORD PTR ?AxisCount@@3HA ; AxisCount
  000d8	7d 12		 jge	 SHORT $LN1@resetJoyst

; 223  : 	{
; 224  : 		AxisInfo[i].inUse = FALSE;

  000da	8b 45 fc	 mov	 eax, DWORD PTR _i$[ebp]
  000dd	c1 e0 04	 shl	 eax, 4
  000e0	c7 80 0c 00 00
	00 00 00 00 00	 mov	 DWORD PTR ?AxisInfo@@3PAUAxisInfo_t@@A[eax+12], 0

; 225  : 	}

  000ea	eb da		 jmp	 SHORT $LN2@resetJoyst
$LN1@resetJoyst:

; 226  : }

  000ec	5f		 pop	 edi
  000ed	5e		 pop	 esi
  000ee	5b		 pop	 ebx
  000ef	8b e5		 mov	 esp, ebp
  000f1	5d		 pop	 ebp
  000f2	c3		 ret	 0
?resetJoystickMapping@@YGXXZ ENDP			; resetJoystickMapping
_TEXT	ENDS
; Function compile flags: /Odtp /ZI
; File c:\users\nhv90\projects\eech\aphavoc\source\ui_menu\options\op_ctrlr.c
;	COMDAT ?setTrackIRButton@@YGXH@Z
_TEXT	SEGMENT
_selection$ = 8						; size = 4
?setTrackIRButton@@YGXH@Z PROC				; setTrackIRButton, COMDAT

; 2993 : {

  00000	55		 push	 ebp
  00001	8b ec		 mov	 ebp, esp
  00003	83 ec 40	 sub	 esp, 64			; 00000040H
  00006	53		 push	 ebx
  00007	56		 push	 esi
  00008	57		 push	 edi

; 2994 : #if 0
; 2995 : 	if (selection == TRUE)	// set to ON
; 2996 : 	{
; 2997 : 		if (query_TIR_active () == TRUE)
; 2998 : 		{
; 2999 : 			set_ui_object_text (trackir_option_button, get_trans ("Running") ) ;
; 3000 : 		}
; 3001 : 		else
; 3002 : 			set_ui_object_text (trackir_option_button, option_boolean_text [0]);
; 3003 : 	}
; 3004 : 	else
; 3005 : 	{
; 3006 : 		if (query_TIR_active () == TRUE)
; 3007 : 		{
; 3008 : 			set_ui_object_text (trackir_option_button, get_trans ("Enable Mouselook") );
; 3009 : 		}
; 3010 : 		else
; 3011 : 			set_ui_object_text (trackir_option_button, option_boolean_text [0]);
; 3012 : 	}
; 3013 : #else
; 3014 : 	TIR_Poll();	// Retro 6Feb2005

  00009	e8 00 00 00 00	 call	 ?TIR_Poll@@YGXXZ	; TIR_Poll

; 3015 : 
; 3016 : 	if (query_TIR_active() == TRUE)

  0000e	e8 00 00 00 00	 call	 ?query_TIR_active@@YAHXZ ; query_TIR_active
  00013	83 f8 01	 cmp	 eax, 1
  00016	75 4e		 jne	 SHORT $LN2@setTrackIR

; 3017 : 	{
; 3018 : 		if (selection == TRUE)

  00018	83 7d 08 01	 cmp	 DWORD PTR _selection$[ebp], 1
  0001c	75 24		 jne	 SHORT $LN4@setTrackIR

; 3019 : 			set_ui_object_text (trackir_option_button, get_trans ("Running") );

  0001e	68 00 00 00 00	 push	 OFFSET ??_C@_07JKJCPGE@Running@
  00023	e8 00 00 00 00	 call	 ?get_trans@@YGPBDPBD@Z	; get_trans
  00028	50		 push	 eax
  00029	a1 00 00 00 00	 mov	 eax, DWORD PTR ?trackir_option_button@@3PAUUI_OBJECT@@A ; trackir_option_button
  0002e	50		 push	 eax
  0002f	8b 0d 00 00 00
	00		 mov	 ecx, DWORD PTR ?trackir_option_button@@3PAUUI_OBJECT@@A ; trackir_option_button
  00035	8b 11		 mov	 edx, DWORD PTR [ecx]
  00037	8b 04 95 00 00
	00 00		 mov	 eax, DWORD PTR ?fn_set_ui_object_text@@3PAP6GXPAUUI_OBJECT@@PBD@ZA[edx*4]
  0003e	ff d0		 call	 eax

; 3020 : 		else

  00040	eb 22		 jmp	 SHORT $LN5@setTrackIR
$LN4@setTrackIR:

; 3021 : 			set_ui_object_text (trackir_option_button, get_trans ("Enable Mouselook") );

  00042	68 00 00 00 00	 push	 OFFSET ??_C@_0BB@MBPLJEFF@Enable?5Mouselook@
  00047	e8 00 00 00 00	 call	 ?get_trans@@YGPBDPBD@Z	; get_trans
  0004c	50		 push	 eax
  0004d	a1 00 00 00 00	 mov	 eax, DWORD PTR ?trackir_option_button@@3PAUUI_OBJECT@@A ; trackir_option_button
  00052	50		 push	 eax
  00053	8b 0d 00 00 00
	00		 mov	 ecx, DWORD PTR ?trackir_option_button@@3PAUUI_OBJECT@@A ; trackir_option_button
  00059	8b 11		 mov	 edx, DWORD PTR [ecx]
  0005b	8b 04 95 00 00
	00 00		 mov	 eax, DWORD PTR ?fn_set_ui_object_text@@3PAP6GXPAUUI_OBJECT@@PBD@ZA[edx*4]
  00062	ff d0		 call	 eax
$LN5@setTrackIR:

; 3022 : 	}
; 3023 : 	else

  00064	eb 26		 jmp	 SHORT $LN1@setTrackIR
$LN2@setTrackIR:

; 3024 : 		set_ui_object_text (trackir_option_button, option_boolean_text [0]);

  00066	b8 04 00 00 00	 mov	 eax, 4
  0006b	6b c8 00	 imul	 ecx, eax, 0
  0006e	8b 91 00 00 00
	00		 mov	 edx, DWORD PTR ?option_boolean_text@@3PAPBDA[ecx]
  00074	52		 push	 edx
  00075	a1 00 00 00 00	 mov	 eax, DWORD PTR ?trackir_option_button@@3PAUUI_OBJECT@@A ; trackir_option_button
  0007a	50		 push	 eax
  0007b	8b 0d 00 00 00
	00		 mov	 ecx, DWORD PTR ?trackir_option_button@@3PAUUI_OBJECT@@A ; trackir_option_button
  00081	8b 11		 mov	 edx, DWORD PTR [ecx]
  00083	8b 04 95 00 00
	00 00		 mov	 eax, DWORD PTR ?fn_set_ui_object_text@@3PAP6GXPAUUI_OBJECT@@PBD@ZA[edx*4]
  0008a	ff d0		 call	 eax
$LN1@setTrackIR:

; 3025 : #endif
; 3026 : }

  0008c	5f		 pop	 edi
  0008d	5e		 pop	 esi
  0008e	5b		 pop	 ebx
  0008f	8b e5		 mov	 esp, ebp
  00091	5d		 pop	 ebp
  00092	c2 04 00	 ret	 4
?setTrackIRButton@@YGXH@Z ENDP				; setTrackIRButton
_TEXT	ENDS
; Function compile flags: /Odtp /ZI
; File c:\users\nhv90\projects\eech\aphavoc\source\ui_menu\options\op_ctrlr.c
;	COMDAT ?notify_autoconfigure_button@@YGXPAUUI_OBJECT@@PAX@Z
_TEXT	SEGMENT
_strGuid$ = -260					; size = 260
_obj$ = 8						; size = 4
_arg$ = 12						; size = 4
?notify_autoconfigure_button@@YGXPAUUI_OBJECT@@PAX@Z PROC ; notify_autoconfigure_button, COMDAT

; 3296 : {

  00000	55		 push	 ebp
  00001	8b ec		 mov	 ebp, esp
  00003	81 ec 44 01 00
	00		 sub	 esp, 324		; 00000144H
  00009	53		 push	 ebx
  0000a	56		 push	 esi
  0000b	57		 push	 edi

; 3297 : 	char strGuid[MAX_PATH];
; 3298 : 
; 3299 : 	// this variable lets the user cycle through all enumerated sticks.. at the end of the routine
; 3300 : 	// it gets increased by one.
; 3301 : static int iDevice = 0;
; 3302 : 
; 3303 : 	// does nothing #ifndef WIN32
; 3304 : 	GetGUIDString(iDevice,strGuid);

  0000c	8d 85 fc fe ff
	ff		 lea	 eax, DWORD PTR _strGuid$[ebp]
  00012	50		 push	 eax
  00013	8b 0d 00 00 00
	00		 mov	 ecx, DWORD PTR ?iDevice@?1??notify_autoconfigure_button@@YGXPAUUI_OBJECT@@PAX@Z@4HA
  00019	51		 push	 ecx
  0001a	e8 00 00 00 00	 call	 ?GetGUIDString@@YGXHPAD@Z ; GetGUIDString

; 3305 : 	
; 3306 : 	if (!strGuid)

  0001f	8d 85 fc fe ff
	ff		 lea	 eax, DWORD PTR _strGuid$[ebp]
  00025	85 c0		 test	 eax, eax
  00027	75 05		 jne	 SHORT $LN2@notify_aut

; 3307 : 		return;

  00029	e9 0b 03 00 00	 jmp	 $LN1@notify_aut
$LN2@notify_aut:

; 3308 : 
; 3309 : 	//## Saitek X36 Flight Controller USB
; 3310 : 	if (strcmp("{053F06A3-0000-0000-0000-504944564944}",strGuid) == 0)

  0002e	8d 85 fc fe ff
	ff		 lea	 eax, DWORD PTR _strGuid$[ebp]
  00034	50		 push	 eax
  00035	68 00 00 00 00	 push	 OFFSET ??_C@_0CH@JNOGJAB@?$HL053F06A3?90000?90000?90000?9504944@
  0003a	e8 00 00 00 00	 call	 _strcmp
  0003f	83 c4 08	 add	 esp, 8
  00042	85 c0		 test	 eax, eax
  00044	75 6e		 jne	 SHORT $LN3@notify_aut

; 3311 : 	{
; 3312 : 		resetJoystickMapping();

  00046	e8 00 00 00 00	 call	 ?resetJoystickMapping@@YGXXZ ; resetJoystickMapping

; 3313 : 
; 3314 : 		set_global_collective_input ( THROTTLE_INPUT );

  0004b	c7 05 2c 00 00
	00 05 00 00 00	 mov	 DWORD PTR ?global_options@@3UGLOBAL_OPTIONS_DATA@@A+44, 5

; 3315 : 		set_global_cyclic_input ( JOYSTICK_INPUT );

  00055	c7 05 28 00 00
	00 02 00 00 00	 mov	 DWORD PTR ?global_options@@3UGLOBAL_OPTIONS_DATA@@A+40, 2

; 3316 : 		set_global_pedal_input ( RUDDER_INPUT );

  0005f	c7 05 30 00 00
	00 04 00 00 00	 mov	 DWORD PTR ?global_options@@3UGLOBAL_OPTIONS_DATA@@A+48, 4

; 3317 : 		command_line_cyclic_joystick_index = iDevice;

  00069	a1 00 00 00 00	 mov	 eax, DWORD PTR ?iDevice@?1??notify_autoconfigure_button@@YGXPAUUI_OBJECT@@PAX@Z@4HA
  0006e	a3 00 00 00 00	 mov	 DWORD PTR ?command_line_cyclic_joystick_index@@3HA, eax ; command_line_cyclic_joystick_index

; 3318 : 		command_line_cyclic_joystick_x_axis = 0;

  00073	c7 05 00 00 00
	00 00 00 00 00	 mov	 DWORD PTR ?command_line_cyclic_joystick_x_axis@@3HA, 0 ; command_line_cyclic_joystick_x_axis

; 3319 : 		command_line_cyclic_joystick_y_axis = 1;

  0007d	c7 05 00 00 00
	00 01 00 00 00	 mov	 DWORD PTR ?command_line_cyclic_joystick_y_axis@@3HA, 1 ; command_line_cyclic_joystick_y_axis

; 3320 : 		command_line_collective_joystick_index = iDevice;

  00087	a1 00 00 00 00	 mov	 eax, DWORD PTR ?iDevice@?1??notify_autoconfigure_button@@YGXPAUUI_OBJECT@@PAX@Z@4HA
  0008c	a3 00 00 00 00	 mov	 DWORD PTR ?command_line_collective_joystick_index@@3HA, eax ; command_line_collective_joystick_index

; 3321 : 		command_line_collective_joystick_axis = 6;

  00091	c7 05 00 00 00
	00 06 00 00 00	 mov	 DWORD PTR ?command_line_collective_joystick_axis@@3HA, 6 ; command_line_collective_joystick_axis

; 3322 : 		command_line_rudder_joystick_index = iDevice;

  0009b	a1 00 00 00 00	 mov	 eax, DWORD PTR ?iDevice@?1??notify_autoconfigure_button@@YGXPAUUI_OBJECT@@PAX@Z@4HA
  000a0	a3 00 00 00 00	 mov	 DWORD PTR ?command_line_rudder_joystick_index@@3HA, eax ; command_line_rudder_joystick_index

; 3323 : 		command_line_rudder_joystick_axis = 5;

  000a5	c7 05 00 00 00
	00 05 00 00 00	 mov	 DWORD PTR ?command_line_rudder_joystick_axis@@3HA, 5 ; command_line_rudder_joystick_axis
  000af	e9 61 02 00 00	 jmp	 $LN4@notify_aut
$LN3@notify_aut:

; 3324 : 	}
; 3325 : 	// Logitech WingMan Force 3D USB
; 3326 : 	else if (strcmp("{C283046D-0000-0000-0000-504944564944}",strGuid) == 0)

  000b4	8d 85 fc fe ff
	ff		 lea	 eax, DWORD PTR _strGuid$[ebp]
  000ba	50		 push	 eax
  000bb	68 00 00 00 00	 push	 OFFSET ??_C@_0CH@OAILIJFK@?$HLC283046D?90000?90000?90000?9504944@
  000c0	e8 00 00 00 00	 call	 _strcmp
  000c5	83 c4 08	 add	 esp, 8
  000c8	85 c0		 test	 eax, eax
  000ca	75 6e		 jne	 SHORT $LN5@notify_aut

; 3327 : 	{
; 3328 : 		resetJoystickMapping();

  000cc	e8 00 00 00 00	 call	 ?resetJoystickMapping@@YGXXZ ; resetJoystickMapping

; 3329 : 
; 3330 : 		set_global_collective_input ( THROTTLE_INPUT );

  000d1	c7 05 2c 00 00
	00 05 00 00 00	 mov	 DWORD PTR ?global_options@@3UGLOBAL_OPTIONS_DATA@@A+44, 5

; 3331 : 		set_global_cyclic_input ( JOYSTICK_INPUT );

  000db	c7 05 28 00 00
	00 02 00 00 00	 mov	 DWORD PTR ?global_options@@3UGLOBAL_OPTIONS_DATA@@A+40, 2

; 3332 : 		set_global_pedal_input ( RUDDER_INPUT );

  000e5	c7 05 30 00 00
	00 04 00 00 00	 mov	 DWORD PTR ?global_options@@3UGLOBAL_OPTIONS_DATA@@A+48, 4

; 3333 : 		command_line_cyclic_joystick_index = iDevice;

  000ef	a1 00 00 00 00	 mov	 eax, DWORD PTR ?iDevice@?1??notify_autoconfigure_button@@YGXPAUUI_OBJECT@@PAX@Z@4HA
  000f4	a3 00 00 00 00	 mov	 DWORD PTR ?command_line_cyclic_joystick_index@@3HA, eax ; command_line_cyclic_joystick_index

; 3334 : 		command_line_cyclic_joystick_x_axis = 0;

  000f9	c7 05 00 00 00
	00 00 00 00 00	 mov	 DWORD PTR ?command_line_cyclic_joystick_x_axis@@3HA, 0 ; command_line_cyclic_joystick_x_axis

; 3335 : 		command_line_cyclic_joystick_y_axis = 1;

  00103	c7 05 00 00 00
	00 01 00 00 00	 mov	 DWORD PTR ?command_line_cyclic_joystick_y_axis@@3HA, 1 ; command_line_cyclic_joystick_y_axis

; 3336 : 		command_line_collective_joystick_index = iDevice;

  0010d	a1 00 00 00 00	 mov	 eax, DWORD PTR ?iDevice@?1??notify_autoconfigure_button@@YGXPAUUI_OBJECT@@PAX@Z@4HA
  00112	a3 00 00 00 00	 mov	 DWORD PTR ?command_line_collective_joystick_index@@3HA, eax ; command_line_collective_joystick_index

; 3337 : 		command_line_collective_joystick_axis = 6;

  00117	c7 05 00 00 00
	00 06 00 00 00	 mov	 DWORD PTR ?command_line_collective_joystick_axis@@3HA, 6 ; command_line_collective_joystick_axis

; 3338 : 		command_line_rudder_joystick_index = iDevice;

  00121	a1 00 00 00 00	 mov	 eax, DWORD PTR ?iDevice@?1??notify_autoconfigure_button@@YGXPAUUI_OBJECT@@PAX@Z@4HA
  00126	a3 00 00 00 00	 mov	 DWORD PTR ?command_line_rudder_joystick_index@@3HA, eax ; command_line_rudder_joystick_index

; 3339 : 		command_line_rudder_joystick_axis = 5;

  0012b	c7 05 00 00 00
	00 05 00 00 00	 mov	 DWORD PTR ?command_line_rudder_joystick_axis@@3HA, 5 ; command_line_rudder_joystick_axis
  00135	e9 db 01 00 00	 jmp	 $LN4@notify_aut
$LN5@notify_aut:

; 3340 : 	}
; 3341 : 	// Microsoft SideWinder Plug & Play Game Pad - although the sim is unflyable with this - imo
; 3342 : 	else if (strcmp("{0027045E-0000-0000-0000-504944564944}",strGuid) == 0)

  0013a	8d 85 fc fe ff
	ff		 lea	 eax, DWORD PTR _strGuid$[ebp]
  00140	50		 push	 eax
  00141	68 00 00 00 00	 push	 OFFSET ??_C@_0CH@HFONIEK@?$HL0027045E?90000?90000?90000?9504944@
  00146	e8 00 00 00 00	 call	 _strcmp
  0014b	83 c4 08	 add	 esp, 8
  0014e	85 c0		 test	 eax, eax
  00150	75 32		 jne	 SHORT $LN7@notify_aut

; 3343 : 	{
; 3344 : 		resetJoystickMapping();

  00152	e8 00 00 00 00	 call	 ?resetJoystickMapping@@YGXXZ ; resetJoystickMapping

; 3345 : 
; 3346 : 		set_global_cyclic_input ( JOYSTICK_INPUT );

  00157	c7 05 28 00 00
	00 02 00 00 00	 mov	 DWORD PTR ?global_options@@3UGLOBAL_OPTIONS_DATA@@A+40, 2

; 3347 : 		command_line_cyclic_joystick_index = iDevice;

  00161	a1 00 00 00 00	 mov	 eax, DWORD PTR ?iDevice@?1??notify_autoconfigure_button@@YGXPAUUI_OBJECT@@PAX@Z@4HA
  00166	a3 00 00 00 00	 mov	 DWORD PTR ?command_line_cyclic_joystick_index@@3HA, eax ; command_line_cyclic_joystick_index

; 3348 : 		command_line_cyclic_joystick_x_axis = 0;

  0016b	c7 05 00 00 00
	00 00 00 00 00	 mov	 DWORD PTR ?command_line_cyclic_joystick_x_axis@@3HA, 0 ; command_line_cyclic_joystick_x_axis

; 3349 : 		command_line_cyclic_joystick_y_axis = 1;

  00175	c7 05 00 00 00
	00 01 00 00 00	 mov	 DWORD PTR ?command_line_cyclic_joystick_y_axis@@3HA, 1 ; command_line_cyclic_joystick_y_axis
  0017f	e9 91 01 00 00	 jmp	 $LN4@notify_aut
$LN7@notify_aut:

; 3350 : 	}
; 3351 : 	// Thrustmaster Top Gun AfterBurner (USB)
; 3352 : 	else if (strcmp("{B101044F-0000-0000-0000-504944564944}",strGuid) == 0)

  00184	8d 85 fc fe ff
	ff		 lea	 eax, DWORD PTR _strGuid$[ebp]
  0018a	50		 push	 eax
  0018b	68 00 00 00 00	 push	 OFFSET ??_C@_0CH@CGIFAPJA@?$HLB101044F?90000?90000?90000?9504944@
  00190	e8 00 00 00 00	 call	 _strcmp
  00195	83 c4 08	 add	 esp, 8
  00198	85 c0		 test	 eax, eax
  0019a	75 6e		 jne	 SHORT $LN9@notify_aut

; 3353 : 	{
; 3354 : 		resetJoystickMapping();

  0019c	e8 00 00 00 00	 call	 ?resetJoystickMapping@@YGXXZ ; resetJoystickMapping

; 3355 : 
; 3356 : 		set_global_collective_input ( THROTTLE_INPUT );

  001a1	c7 05 2c 00 00
	00 05 00 00 00	 mov	 DWORD PTR ?global_options@@3UGLOBAL_OPTIONS_DATA@@A+44, 5

; 3357 : 		set_global_cyclic_input ( JOYSTICK_INPUT );

  001ab	c7 05 28 00 00
	00 02 00 00 00	 mov	 DWORD PTR ?global_options@@3UGLOBAL_OPTIONS_DATA@@A+40, 2

; 3358 : 		set_global_pedal_input ( RUDDER_INPUT );

  001b5	c7 05 30 00 00
	00 04 00 00 00	 mov	 DWORD PTR ?global_options@@3UGLOBAL_OPTIONS_DATA@@A+48, 4

; 3359 : 		command_line_cyclic_joystick_index = iDevice;

  001bf	a1 00 00 00 00	 mov	 eax, DWORD PTR ?iDevice@?1??notify_autoconfigure_button@@YGXPAUUI_OBJECT@@PAX@Z@4HA
  001c4	a3 00 00 00 00	 mov	 DWORD PTR ?command_line_cyclic_joystick_index@@3HA, eax ; command_line_cyclic_joystick_index

; 3360 : 		command_line_cyclic_joystick_x_axis = 0;

  001c9	c7 05 00 00 00
	00 00 00 00 00	 mov	 DWORD PTR ?command_line_cyclic_joystick_x_axis@@3HA, 0 ; command_line_cyclic_joystick_x_axis

; 3361 : 		command_line_cyclic_joystick_y_axis = 1;

  001d3	c7 05 00 00 00
	00 01 00 00 00	 mov	 DWORD PTR ?command_line_cyclic_joystick_y_axis@@3HA, 1 ; command_line_cyclic_joystick_y_axis

; 3362 : 		command_line_collective_joystick_index = iDevice;

  001dd	a1 00 00 00 00	 mov	 eax, DWORD PTR ?iDevice@?1??notify_autoconfigure_button@@YGXPAUUI_OBJECT@@PAX@Z@4HA
  001e2	a3 00 00 00 00	 mov	 DWORD PTR ?command_line_collective_joystick_index@@3HA, eax ; command_line_collective_joystick_index

; 3363 : 		command_line_collective_joystick_axis = 6;

  001e7	c7 05 00 00 00
	00 06 00 00 00	 mov	 DWORD PTR ?command_line_collective_joystick_axis@@3HA, 6 ; command_line_collective_joystick_axis

; 3364 : 		command_line_rudder_joystick_index = iDevice;

  001f1	a1 00 00 00 00	 mov	 eax, DWORD PTR ?iDevice@?1??notify_autoconfigure_button@@YGXPAUUI_OBJECT@@PAX@Z@4HA
  001f6	a3 00 00 00 00	 mov	 DWORD PTR ?command_line_rudder_joystick_index@@3HA, eax ; command_line_rudder_joystick_index

; 3365 : 		command_line_rudder_joystick_axis = 5;

  001fb	c7 05 00 00 00
	00 05 00 00 00	 mov	 DWORD PTR ?command_line_rudder_joystick_axis@@3HA, 5 ; command_line_rudder_joystick_axis
  00205	e9 0b 01 00 00	 jmp	 $LN4@notify_aut
$LN9@notify_aut:

; 3366 : 	}
; 3367 : #if 0
; 3368 : 	// Microsoft SideWinder Precision Racing Wheel
; 3369 : 	else if (strcmp("{{001A045E-0000-0000-0000-504944564944}",strGuid) == 0)
; 3370 : 	{
; 3371 : 	}
; 3372 : #endif
; 3373 : 	// Saitek X45 Flight Controller USB
; 3374 : 	else if (strcmp("{053C06A3-0000-0000-0000-504944564944}",strGuid) == 0)

  0020a	8d 85 fc fe ff
	ff		 lea	 eax, DWORD PTR _strGuid$[ebp]
  00210	50		 push	 eax
  00211	68 00 00 00 00	 push	 OFFSET ??_C@_0CH@EONKCNGL@?$HL053C06A3?90000?90000?90000?9504944@
  00216	e8 00 00 00 00	 call	 _strcmp
  0021b	83 c4 08	 add	 esp, 8
  0021e	85 c0		 test	 eax, eax
  00220	75 6e		 jne	 SHORT $LN11@notify_aut

; 3375 : 	{
; 3376 : 		resetJoystickMapping();

  00222	e8 00 00 00 00	 call	 ?resetJoystickMapping@@YGXXZ ; resetJoystickMapping

; 3377 : 
; 3378 : 		set_global_collective_input ( THROTTLE_INPUT );

  00227	c7 05 2c 00 00
	00 05 00 00 00	 mov	 DWORD PTR ?global_options@@3UGLOBAL_OPTIONS_DATA@@A+44, 5

; 3379 : 		set_global_cyclic_input ( JOYSTICK_INPUT );

  00231	c7 05 28 00 00
	00 02 00 00 00	 mov	 DWORD PTR ?global_options@@3UGLOBAL_OPTIONS_DATA@@A+40, 2

; 3380 : 		set_global_pedal_input ( RUDDER_INPUT );

  0023b	c7 05 30 00 00
	00 04 00 00 00	 mov	 DWORD PTR ?global_options@@3UGLOBAL_OPTIONS_DATA@@A+48, 4

; 3381 : 		command_line_cyclic_joystick_index = iDevice;

  00245	a1 00 00 00 00	 mov	 eax, DWORD PTR ?iDevice@?1??notify_autoconfigure_button@@YGXPAUUI_OBJECT@@PAX@Z@4HA
  0024a	a3 00 00 00 00	 mov	 DWORD PTR ?command_line_cyclic_joystick_index@@3HA, eax ; command_line_cyclic_joystick_index

; 3382 : 		command_line_cyclic_joystick_x_axis = 0;

  0024f	c7 05 00 00 00
	00 00 00 00 00	 mov	 DWORD PTR ?command_line_cyclic_joystick_x_axis@@3HA, 0 ; command_line_cyclic_joystick_x_axis

; 3383 : 		command_line_cyclic_joystick_y_axis = 1;

  00259	c7 05 00 00 00
	00 01 00 00 00	 mov	 DWORD PTR ?command_line_cyclic_joystick_y_axis@@3HA, 1 ; command_line_cyclic_joystick_y_axis

; 3384 : 		command_line_collective_joystick_index = iDevice;

  00263	a1 00 00 00 00	 mov	 eax, DWORD PTR ?iDevice@?1??notify_autoconfigure_button@@YGXPAUUI_OBJECT@@PAX@Z@4HA
  00268	a3 00 00 00 00	 mov	 DWORD PTR ?command_line_collective_joystick_index@@3HA, eax ; command_line_collective_joystick_index

; 3385 : 		command_line_collective_joystick_axis = 6;

  0026d	c7 05 00 00 00
	00 06 00 00 00	 mov	 DWORD PTR ?command_line_collective_joystick_axis@@3HA, 6 ; command_line_collective_joystick_axis

; 3386 : 		command_line_rudder_joystick_index = iDevice;

  00277	a1 00 00 00 00	 mov	 eax, DWORD PTR ?iDevice@?1??notify_autoconfigure_button@@YGXPAUUI_OBJECT@@PAX@Z@4HA
  0027c	a3 00 00 00 00	 mov	 DWORD PTR ?command_line_rudder_joystick_index@@3HA, eax ; command_line_rudder_joystick_index

; 3387 : 		command_line_rudder_joystick_axis = 5;

  00281	c7 05 00 00 00
	00 05 00 00 00	 mov	 DWORD PTR ?command_line_rudder_joystick_axis@@3HA, 5 ; command_line_rudder_joystick_axis
  0028b	e9 85 00 00 00	 jmp	 $LN4@notify_aut
$LN11@notify_aut:

; 3388 : 	}
; 3389 : 	// Saitek Cyborg Evo
; 3390 : 	else if (strcmp("{046406A3-0000-0000-0000-504944564944}",strGuid) == 0)

  00290	8d 85 fc fe ff
	ff		 lea	 eax, DWORD PTR _strGuid$[ebp]
  00296	50		 push	 eax
  00297	68 00 00 00 00	 push	 OFFSET ??_C@_0CH@FENFAAHN@?$HL046406A3?90000?90000?90000?9504944@
  0029c	e8 00 00 00 00	 call	 _strcmp
  002a1	83 c4 08	 add	 esp, 8
  002a4	85 c0		 test	 eax, eax
  002a6	75 6b		 jne	 SHORT $LN13@notify_aut

; 3391 : 	{
; 3392 : 		resetJoystickMapping();

  002a8	e8 00 00 00 00	 call	 ?resetJoystickMapping@@YGXXZ ; resetJoystickMapping

; 3393 : 
; 3394 : 		set_global_collective_input ( THROTTLE_INPUT );

  002ad	c7 05 2c 00 00
	00 05 00 00 00	 mov	 DWORD PTR ?global_options@@3UGLOBAL_OPTIONS_DATA@@A+44, 5

; 3395 : 		set_global_cyclic_input ( JOYSTICK_INPUT );

  002b7	c7 05 28 00 00
	00 02 00 00 00	 mov	 DWORD PTR ?global_options@@3UGLOBAL_OPTIONS_DATA@@A+40, 2

; 3396 : 		set_global_pedal_input ( RUDDER_INPUT );

  002c1	c7 05 30 00 00
	00 04 00 00 00	 mov	 DWORD PTR ?global_options@@3UGLOBAL_OPTIONS_DATA@@A+48, 4

; 3397 : 		command_line_cyclic_joystick_index = iDevice;

  002cb	a1 00 00 00 00	 mov	 eax, DWORD PTR ?iDevice@?1??notify_autoconfigure_button@@YGXPAUUI_OBJECT@@PAX@Z@4HA
  002d0	a3 00 00 00 00	 mov	 DWORD PTR ?command_line_cyclic_joystick_index@@3HA, eax ; command_line_cyclic_joystick_index

; 3398 : 		command_line_cyclic_joystick_x_axis = 0;

  002d5	c7 05 00 00 00
	00 00 00 00 00	 mov	 DWORD PTR ?command_line_cyclic_joystick_x_axis@@3HA, 0 ; command_line_cyclic_joystick_x_axis

; 3399 : 		command_line_cyclic_joystick_y_axis = 1;

  002df	c7 05 00 00 00
	00 01 00 00 00	 mov	 DWORD PTR ?command_line_cyclic_joystick_y_axis@@3HA, 1 ; command_line_cyclic_joystick_y_axis

; 3400 : 		command_line_collective_joystick_index = iDevice;

  002e9	a1 00 00 00 00	 mov	 eax, DWORD PTR ?iDevice@?1??notify_autoconfigure_button@@YGXPAUUI_OBJECT@@PAX@Z@4HA
  002ee	a3 00 00 00 00	 mov	 DWORD PTR ?command_line_collective_joystick_index@@3HA, eax ; command_line_collective_joystick_index

; 3401 : 		command_line_collective_joystick_axis = 2;

  002f3	c7 05 00 00 00
	00 02 00 00 00	 mov	 DWORD PTR ?command_line_collective_joystick_axis@@3HA, 2 ; command_line_collective_joystick_axis

; 3402 : 		command_line_rudder_joystick_index = iDevice;

  002fd	a1 00 00 00 00	 mov	 eax, DWORD PTR ?iDevice@?1??notify_autoconfigure_button@@YGXPAUUI_OBJECT@@PAX@Z@4HA
  00302	a3 00 00 00 00	 mov	 DWORD PTR ?command_line_rudder_joystick_index@@3HA, eax ; command_line_rudder_joystick_index

; 3403 : 		command_line_rudder_joystick_axis = 5;

  00307	c7 05 00 00 00
	00 05 00 00 00	 mov	 DWORD PTR ?command_line_rudder_joystick_axis@@3HA, 5 ; command_line_rudder_joystick_axis

; 3404 : 	}
; 3405 : 	else	// no match, we do nothing and return

  00311	eb 02		 jmp	 SHORT $LN4@notify_aut
$LN13@notify_aut:

; 3406 : 	{
; 3407 : 		return;

  00313	eb 24		 jmp	 SHORT $LN1@notify_aut
$LN4@notify_aut:

; 3408 : 	}
; 3409 : 
; 3410 : 	// select next device next time this sub is executed
; 3411 : 	// make sure we dont get an out-of-bounds error
; 3412 : 	iDevice++;

  00315	a1 00 00 00 00	 mov	 eax, DWORD PTR ?iDevice@?1??notify_autoconfigure_button@@YGXPAUUI_OBJECT@@PAX@Z@4HA
  0031a	83 c0 01	 add	 eax, 1
  0031d	a3 00 00 00 00	 mov	 DWORD PTR ?iDevice@?1??notify_autoconfigure_button@@YGXPAUUI_OBJECT@@PAX@Z@4HA, eax

; 3413 : 	iDevice = iDevice % number_of_joystick_devices;

  00322	a1 00 00 00 00	 mov	 eax, DWORD PTR ?iDevice@?1??notify_autoconfigure_button@@YGXPAUUI_OBJECT@@PAX@Z@4HA
  00327	99		 cdq
  00328	f7 3d 00 00 00
	00		 idiv	 DWORD PTR ?number_of_joystick_devices@@3HA ; number_of_joystick_devices
  0032e	89 15 00 00 00
	00		 mov	 DWORD PTR ?iDevice@?1??notify_autoconfigure_button@@YGXPAUUI_OBJECT@@PAX@Z@4HA, edx

; 3414 : 
; 3415 : 	// redraw the whole screen with the new settings
; 3416 : 	notify_show_controller_page ();

  00334	e8 00 00 00 00	 call	 ?notify_show_controller_page@@YGXXZ ; notify_show_controller_page
$LN1@notify_aut:

; 3417 : }

  00339	5f		 pop	 edi
  0033a	5e		 pop	 esi
  0033b	5b		 pop	 ebx
  0033c	8b e5		 mov	 esp, ebp
  0033e	5d		 pop	 ebp
  0033f	c2 08 00	 ret	 8
?notify_autoconfigure_button@@YGXPAUUI_OBJECT@@PAX@Z ENDP ; notify_autoconfigure_button
_TEXT	ENDS
; Function compile flags: /Odtp /ZI
; File c:\users\nhv90\projects\eech\aphavoc\source\ui_menu\options\op_ctrlr.c
;	COMDAT ?draw_mouselook_sensitivity@@YGXPAUUI_OBJECT@@PAX@Z
_TEXT	SEGMENT
_s$ = -8						; size = 8
_obj$ = 8						; size = 4
_arg$ = 12						; size = 4
?draw_mouselook_sensitivity@@YGXPAUUI_OBJECT@@PAX@Z PROC ; draw_mouselook_sensitivity, COMDAT

; 3255 : {

  00000	55		 push	 ebp
  00001	8b ec		 mov	 ebp, esp
  00003	83 ec 48	 sub	 esp, 72			; 00000048H
  00006	53		 push	 ebx
  00007	56		 push	 esi
  00008	57		 push	 edi

; 3256 : 	char
; 3257 : 		s [8];
; 3258 : 
; 3259 : 	ASSERT ((command_line_mouse_look_speed > 0) && (command_line_mouse_look_speed <= 20));

  00009	83 3d 00 00 00
	00 00		 cmp	 DWORD PTR ?command_line_mouse_look_speed@@3HA, 0 ; command_line_mouse_look_speed
  00010	7e 09		 jle	 SHORT $LN3@draw_mouse
  00012	83 3d 00 00 00
	00 14		 cmp	 DWORD PTR ?command_line_mouse_look_speed@@3HA, 20 ; command_line_mouse_look_speed, 00000014H
  00019	7e 18		 jle	 SHORT $LN2@draw_mouse
$LN3@draw_mouse:
  0001b	a1 00 00 00 00	 mov	 eax, DWORD PTR ?__LINE__Var@?0??draw_mouselook_sensitivity@@YGXPAUUI_OBJECT@@PAX@Z@4JA
  00020	83 c0 04	 add	 eax, 4
  00023	50		 push	 eax
  00024	68 00 00 00 00	 push	 OFFSET ??_C@_0EH@BBCHONN@c?3?2users?2nhv90?2projects?2eech?2ap@
  00029	68 00 00 00 00	 push	 OFFSET ??_C@_0EN@PMAEFEHM@?$CIcommand_line_mouse_look_speed?5@
  0002e	e8 00 00 00 00	 call	 ?process_assert@@YGXPBD0H@Z ; process_assert
$LN2@draw_mouse:

; 3260 : 
; 3261 : 	sprintf (s, "%i", command_line_mouse_look_speed);

  00033	a1 00 00 00 00	 mov	 eax, DWORD PTR ?command_line_mouse_look_speed@@3HA ; command_line_mouse_look_speed
  00038	50		 push	 eax
  00039	68 00 00 00 00	 push	 OFFSET ??_C@_02IKAHHCAI@?$CFi@
  0003e	8d 4d f8	 lea	 ecx, DWORD PTR _s$[ebp]
  00041	51		 push	 ecx
  00042	e8 00 00 00 00	 call	 _sprintf
  00047	83 c4 0c	 add	 esp, 12			; 0000000cH

; 3262 : 
; 3263 : 	set_ui_object_text (obj, s);

  0004a	8d 45 f8	 lea	 eax, DWORD PTR _s$[ebp]
  0004d	50		 push	 eax
  0004e	8b 4d 08	 mov	 ecx, DWORD PTR _obj$[ebp]
  00051	51		 push	 ecx
  00052	8b 55 08	 mov	 edx, DWORD PTR _obj$[ebp]
  00055	8b 02		 mov	 eax, DWORD PTR [edx]
  00057	8b 0c 85 00 00
	00 00		 mov	 ecx, DWORD PTR ?fn_set_ui_object_text@@3PAP6GXPAUUI_OBJECT@@PBD@ZA[eax*4]
  0005e	ff d1		 call	 ecx

; 3264 : }

  00060	5f		 pop	 edi
  00061	5e		 pop	 esi
  00062	5b		 pop	 ebx
  00063	8b e5		 mov	 esp, ebp
  00065	5d		 pop	 ebp
  00066	c2 08 00	 ret	 8
?draw_mouselook_sensitivity@@YGXPAUUI_OBJECT@@PAX@Z ENDP ; draw_mouselook_sensitivity
_TEXT	ENDS
; Function compile flags: /Odtp /ZI
; File c:\users\nhv90\projects\eech\aphavoc\source\ui_menu\options\op_ctrlr.c
;	COMDAT ?draw_joylook_sensitivity@@YGXPAUUI_OBJECT@@PAX@Z
_TEXT	SEGMENT
_s$ = -8						; size = 8
_obj$ = 8						; size = 4
_arg$ = 12						; size = 4
?draw_joylook_sensitivity@@YGXPAUUI_OBJECT@@PAX@Z PROC	; draw_joylook_sensitivity, COMDAT

; 3218 : {

  00000	55		 push	 ebp
  00001	8b ec		 mov	 ebp, esp
  00003	83 ec 48	 sub	 esp, 72			; 00000048H
  00006	53		 push	 ebx
  00007	56		 push	 esi
  00008	57		 push	 edi

; 3219 : 	char
; 3220 : 		s [8];
; 3221 : 
; 3222 : 	ASSERT ((command_line_joylook_step > 0) && (command_line_joylook_step <= 100));

  00009	83 3d 00 00 00
	00 00		 cmp	 DWORD PTR ?command_line_joylook_step@@3HA, 0 ; command_line_joylook_step
  00010	7e 09		 jle	 SHORT $LN3@draw_joylo
  00012	83 3d 00 00 00
	00 64		 cmp	 DWORD PTR ?command_line_joylook_step@@3HA, 100 ; command_line_joylook_step, 00000064H
  00019	7e 18		 jle	 SHORT $LN2@draw_joylo
$LN3@draw_joylo:
  0001b	a1 00 00 00 00	 mov	 eax, DWORD PTR ?__LINE__Var@?0??draw_joylook_sensitivity@@YGXPAUUI_OBJECT@@PAX@Z@4JA
  00020	83 c0 04	 add	 eax, 4
  00023	50		 push	 eax
  00024	68 00 00 00 00	 push	 OFFSET ??_C@_0EH@BBCHONN@c?3?2users?2nhv90?2projects?2eech?2ap@
  00029	68 00 00 00 00	 push	 OFFSET ??_C@_0EG@CIBADIJA@?$CIcommand_line_joylook_step?5?$DO?50?$CJ@
  0002e	e8 00 00 00 00	 call	 ?process_assert@@YGXPBD0H@Z ; process_assert
$LN2@draw_joylo:

; 3223 : 
; 3224 : 	sprintf (s, "%i", command_line_joylook_step);

  00033	a1 00 00 00 00	 mov	 eax, DWORD PTR ?command_line_joylook_step@@3HA ; command_line_joylook_step
  00038	50		 push	 eax
  00039	68 00 00 00 00	 push	 OFFSET ??_C@_02IKAHHCAI@?$CFi@
  0003e	8d 4d f8	 lea	 ecx, DWORD PTR _s$[ebp]
  00041	51		 push	 ecx
  00042	e8 00 00 00 00	 call	 _sprintf
  00047	83 c4 0c	 add	 esp, 12			; 0000000cH

; 3225 : 
; 3226 : 	set_ui_object_text (obj, s);

  0004a	8d 45 f8	 lea	 eax, DWORD PTR _s$[ebp]
  0004d	50		 push	 eax
  0004e	8b 4d 08	 mov	 ecx, DWORD PTR _obj$[ebp]
  00051	51		 push	 ecx
  00052	8b 55 08	 mov	 edx, DWORD PTR _obj$[ebp]
  00055	8b 02		 mov	 eax, DWORD PTR [edx]
  00057	8b 0c 85 00 00
	00 00		 mov	 ecx, DWORD PTR ?fn_set_ui_object_text@@3PAP6GXPAUUI_OBJECT@@PBD@ZA[eax*4]
  0005e	ff d1		 call	 ecx

; 3227 : 
; 3228 : 	if (command_line_joylook_joystick_index == -1)

  00060	83 3d 00 00 00
	00 ff		 cmp	 DWORD PTR ?command_line_joylook_joystick_index@@3HA, -1 ; command_line_joylook_joystick_index
  00067	75 34		 jne	 SHORT $LN4@draw_joylo

; 3229 : 	{
; 3230 : 		set_ui_object_font_colour (obj, ui_option_text_default_colour.r, ui_option_text_default_colour.g, ui_option_text_default_colour.b, ui_option_text_default_colour.a);

  00069	0f b6 05 03 00
	00 00		 movzx	 eax, BYTE PTR ?ui_option_text_default_colour@@3UREAL_COLOUR@@A+3
  00070	50		 push	 eax
  00071	0f b6 0d 00 00
	00 00		 movzx	 ecx, BYTE PTR ?ui_option_text_default_colour@@3UREAL_COLOUR@@A
  00078	51		 push	 ecx
  00079	0f b6 15 01 00
	00 00		 movzx	 edx, BYTE PTR ?ui_option_text_default_colour@@3UREAL_COLOUR@@A+1
  00080	52		 push	 edx
  00081	0f b6 05 02 00
	00 00		 movzx	 eax, BYTE PTR ?ui_option_text_default_colour@@3UREAL_COLOUR@@A+2
  00088	50		 push	 eax
  00089	8b 4d 08	 mov	 ecx, DWORD PTR _obj$[ebp]
  0008c	51		 push	 ecx
  0008d	8b 55 08	 mov	 edx, DWORD PTR _obj$[ebp]
  00090	8b 02		 mov	 eax, DWORD PTR [edx]
  00092	8b 0c 85 00 00
	00 00		 mov	 ecx, DWORD PTR ?fn_set_ui_object_font_colour@@3PAP6GXPAUUI_OBJECT@@DDDD@ZA[eax*4]
  00099	ff d1		 call	 ecx

; 3231 : 	}
; 3232 : 	else

  0009b	eb 32		 jmp	 SHORT $LN1@draw_joylo
$LN4@draw_joylo:

; 3233 : 	{
; 3234 : 		set_ui_object_font_colour (obj, ui_option_title_text_colour.r, ui_option_title_text_colour.g, ui_option_title_text_colour.b, ui_option_title_text_colour.a);

  0009d	0f b6 05 03 00
	00 00		 movzx	 eax, BYTE PTR ?ui_option_title_text_colour@@3UREAL_COLOUR@@A+3
  000a4	50		 push	 eax
  000a5	0f b6 0d 00 00
	00 00		 movzx	 ecx, BYTE PTR ?ui_option_title_text_colour@@3UREAL_COLOUR@@A
  000ac	51		 push	 ecx
  000ad	0f b6 15 01 00
	00 00		 movzx	 edx, BYTE PTR ?ui_option_title_text_colour@@3UREAL_COLOUR@@A+1
  000b4	52		 push	 edx
  000b5	0f b6 05 02 00
	00 00		 movzx	 eax, BYTE PTR ?ui_option_title_text_colour@@3UREAL_COLOUR@@A+2
  000bc	50		 push	 eax
  000bd	8b 4d 08	 mov	 ecx, DWORD PTR _obj$[ebp]
  000c0	51		 push	 ecx
  000c1	8b 55 08	 mov	 edx, DWORD PTR _obj$[ebp]
  000c4	8b 02		 mov	 eax, DWORD PTR [edx]
  000c6	8b 0c 85 00 00
	00 00		 mov	 ecx, DWORD PTR ?fn_set_ui_object_font_colour@@3PAP6GXPAUUI_OBJECT@@DDDD@ZA[eax*4]
  000cd	ff d1		 call	 ecx
$LN1@draw_joylo:

; 3235 : 	}
; 3236 : }

  000cf	5f		 pop	 edi
  000d0	5e		 pop	 esi
  000d1	5b		 pop	 ebx
  000d2	8b e5		 mov	 esp, ebp
  000d4	5d		 pop	 ebp
  000d5	c2 08 00	 ret	 8
?draw_joylook_sensitivity@@YGXPAUUI_OBJECT@@PAX@Z ENDP	; draw_joylook_sensitivity
_TEXT	ENDS
; Function compile flags: /Odtp /ZI
; File c:\users\nhv90\projects\eech\aphavoc\source\ui_menu\options\op_ctrlr.c
;	COMDAT ?notify_joylook_sensitivity_down_button@@YGXPAUUI_OBJECT@@PAX@Z
_TEXT	SEGMENT
_obj$ = 8						; size = 4
_arg$ = 12						; size = 4
?notify_joylook_sensitivity_down_button@@YGXPAUUI_OBJECT@@PAX@Z PROC ; notify_joylook_sensitivity_down_button, COMDAT

; 3209 : {

  00000	55		 push	 ebp
  00001	8b ec		 mov	 ebp, esp
  00003	83 ec 40	 sub	 esp, 64			; 00000040H
  00006	53		 push	 ebx
  00007	56		 push	 esi
  00008	57		 push	 edi

; 3210 : 	if (command_line_joylook_joystick_index == -1)

  00009	83 3d 00 00 00
	00 ff		 cmp	 DWORD PTR ?command_line_joylook_joystick_index@@3HA, -1 ; command_line_joylook_joystick_index
  00010	75 02		 jne	 SHORT $LN2@notify_joy

; 3211 : 		return;

  00012	eb 16		 jmp	 SHORT $LN1@notify_joy
$LN2@notify_joy:

; 3212 : 
; 3213 : 	if (command_line_joylook_step > 1)

  00014	83 3d 00 00 00
	00 01		 cmp	 DWORD PTR ?command_line_joylook_step@@3HA, 1 ; command_line_joylook_step
  0001b	7e 0d		 jle	 SHORT $LN1@notify_joy

; 3214 : 		command_line_joylook_step--;

  0001d	a1 00 00 00 00	 mov	 eax, DWORD PTR ?command_line_joylook_step@@3HA ; command_line_joylook_step
  00022	83 e8 01	 sub	 eax, 1
  00025	a3 00 00 00 00	 mov	 DWORD PTR ?command_line_joylook_step@@3HA, eax ; command_line_joylook_step
$LN1@notify_joy:

; 3215 : }

  0002a	5f		 pop	 edi
  0002b	5e		 pop	 esi
  0002c	5b		 pop	 ebx
  0002d	8b e5		 mov	 esp, ebp
  0002f	5d		 pop	 ebp
  00030	c2 08 00	 ret	 8
?notify_joylook_sensitivity_down_button@@YGXPAUUI_OBJECT@@PAX@Z ENDP ; notify_joylook_sensitivity_down_button
_TEXT	ENDS
; Function compile flags: /Odtp /ZI
; File c:\users\nhv90\projects\eech\aphavoc\source\ui_menu\options\op_ctrlr.c
;	COMDAT ?notify_joylook_sensitivity_up_button@@YGXPAUUI_OBJECT@@PAX@Z
_TEXT	SEGMENT
_obj$ = 8						; size = 4
_arg$ = 12						; size = 4
?notify_joylook_sensitivity_up_button@@YGXPAUUI_OBJECT@@PAX@Z PROC ; notify_joylook_sensitivity_up_button, COMDAT

; 3201 : {

  00000	55		 push	 ebp
  00001	8b ec		 mov	 ebp, esp
  00003	83 ec 40	 sub	 esp, 64			; 00000040H
  00006	53		 push	 ebx
  00007	56		 push	 esi
  00008	57		 push	 edi

; 3202 : 	if (command_line_joylook_joystick_index == -1)

  00009	83 3d 00 00 00
	00 ff		 cmp	 DWORD PTR ?command_line_joylook_joystick_index@@3HA, -1 ; command_line_joylook_joystick_index
  00010	75 02		 jne	 SHORT $LN2@notify_joy

; 3203 : 		return;

  00012	eb 16		 jmp	 SHORT $LN1@notify_joy
$LN2@notify_joy:

; 3204 : 
; 3205 : 	if (command_line_joylook_step < 100)

  00014	83 3d 00 00 00
	00 64		 cmp	 DWORD PTR ?command_line_joylook_step@@3HA, 100 ; command_line_joylook_step, 00000064H
  0001b	7d 0d		 jge	 SHORT $LN1@notify_joy

; 3206 : 		command_line_joylook_step++;

  0001d	a1 00 00 00 00	 mov	 eax, DWORD PTR ?command_line_joylook_step@@3HA ; command_line_joylook_step
  00022	83 c0 01	 add	 eax, 1
  00025	a3 00 00 00 00	 mov	 DWORD PTR ?command_line_joylook_step@@3HA, eax ; command_line_joylook_step
$LN1@notify_joy:

; 3207 : }

  0002a	5f		 pop	 edi
  0002b	5e		 pop	 esi
  0002c	5b		 pop	 ebx
  0002d	8b e5		 mov	 esp, ebp
  0002f	5d		 pop	 ebp
  00030	c2 08 00	 ret	 8
?notify_joylook_sensitivity_up_button@@YGXPAUUI_OBJECT@@PAX@Z ENDP ; notify_joylook_sensitivity_up_button
_TEXT	ENDS
; Function compile flags: /Odtp /ZI
; File c:\users\nhv90\projects\eech\aphavoc\source\ui_menu\options\op_ctrlr.c
;	COMDAT ?notify_mouselook_sensitivity_down_button@@YGXPAUUI_OBJECT@@PAX@Z
_TEXT	SEGMENT
_obj$ = 8						; size = 4
_arg$ = 12						; size = 4
?notify_mouselook_sensitivity_down_button@@YGXPAUUI_OBJECT@@PAX@Z PROC ; notify_mouselook_sensitivity_down_button, COMDAT

; 3249 : {

  00000	55		 push	 ebp
  00001	8b ec		 mov	 ebp, esp
  00003	83 ec 40	 sub	 esp, 64			; 00000040H
  00006	53		 push	 ebx
  00007	56		 push	 esi
  00008	57		 push	 edi

; 3250 : 	if (command_line_mouse_look_speed > 1)

  00009	83 3d 00 00 00
	00 01		 cmp	 DWORD PTR ?command_line_mouse_look_speed@@3HA, 1 ; command_line_mouse_look_speed
  00010	7e 0d		 jle	 SHORT $LN1@notify_mou

; 3251 : 		command_line_mouse_look_speed--;

  00012	a1 00 00 00 00	 mov	 eax, DWORD PTR ?command_line_mouse_look_speed@@3HA ; command_line_mouse_look_speed
  00017	83 e8 01	 sub	 eax, 1
  0001a	a3 00 00 00 00	 mov	 DWORD PTR ?command_line_mouse_look_speed@@3HA, eax ; command_line_mouse_look_speed
$LN1@notify_mou:

; 3252 : }

  0001f	5f		 pop	 edi
  00020	5e		 pop	 esi
  00021	5b		 pop	 ebx
  00022	8b e5		 mov	 esp, ebp
  00024	5d		 pop	 ebp
  00025	c2 08 00	 ret	 8
?notify_mouselook_sensitivity_down_button@@YGXPAUUI_OBJECT@@PAX@Z ENDP ; notify_mouselook_sensitivity_down_button
_TEXT	ENDS
; Function compile flags: /Odtp /ZI
; File c:\users\nhv90\projects\eech\aphavoc\source\ui_menu\options\op_ctrlr.c
;	COMDAT ?notify_mouselook_sensitivity_up_button@@YGXPAUUI_OBJECT@@PAX@Z
_TEXT	SEGMENT
_obj$ = 8						; size = 4
_arg$ = 12						; size = 4
?notify_mouselook_sensitivity_up_button@@YGXPAUUI_OBJECT@@PAX@Z PROC ; notify_mouselook_sensitivity_up_button, COMDAT

; 3244 : {

  00000	55		 push	 ebp
  00001	8b ec		 mov	 ebp, esp
  00003	83 ec 40	 sub	 esp, 64			; 00000040H
  00006	53		 push	 ebx
  00007	56		 push	 esi
  00008	57		 push	 edi

; 3245 : 	if (command_line_mouse_look_speed < 20)

  00009	83 3d 00 00 00
	00 14		 cmp	 DWORD PTR ?command_line_mouse_look_speed@@3HA, 20 ; command_line_mouse_look_speed, 00000014H
  00010	7d 0d		 jge	 SHORT $LN1@notify_mou

; 3246 : 		command_line_mouse_look_speed++;

  00012	a1 00 00 00 00	 mov	 eax, DWORD PTR ?command_line_mouse_look_speed@@3HA ; command_line_mouse_look_speed
  00017	83 c0 01	 add	 eax, 1
  0001a	a3 00 00 00 00	 mov	 DWORD PTR ?command_line_mouse_look_speed@@3HA, eax ; command_line_mouse_look_speed
$LN1@notify_mou:

; 3247 : }

  0001f	5f		 pop	 edi
  00020	5e		 pop	 esi
  00021	5b		 pop	 ebx
  00022	8b e5		 mov	 esp, ebp
  00024	5d		 pop	 ebp
  00025	c2 08 00	 ret	 8
?notify_mouselook_sensitivity_up_button@@YGXPAUUI_OBJECT@@PAX@Z ENDP ; notify_mouselook_sensitivity_up_button
_TEXT	ENDS
; Function compile flags: /Odtp /ZI
; File c:\users\nhv90\projects\eech\aphavoc\source\ui_menu\options\op_ctrlr.c
;	COMDAT ?notify_reverse_pedal_option_button@@YGXPAUUI_OBJECT@@PAX@Z
_TEXT	SEGMENT
tv66 = -68						; size = 4
_obj$ = 8						; size = 4
_arg$ = 12						; size = 4
?notify_reverse_pedal_option_button@@YGXPAUUI_OBJECT@@PAX@Z PROC ; notify_reverse_pedal_option_button, COMDAT

; 3271 : {

  00000	55		 push	 ebp
  00001	8b ec		 mov	 ebp, esp
  00003	83 ec 44	 sub	 esp, 68			; 00000044H
  00006	53		 push	 ebx
  00007	56		 push	 esi
  00008	57		 push	 edi

; 3272 : 	if (command_line_rudder_joystick_index != -1)

  00009	83 3d 00 00 00
	00 ff		 cmp	 DWORD PTR ?command_line_rudder_joystick_index@@3HA, -1 ; command_line_rudder_joystick_index
  00010	74 45		 je	 SHORT $LN2@notify_rev

; 3273 : 	{
; 3274 : 		command_line_reverse_pedal = !command_line_reverse_pedal;

  00012	83 3d 00 00 00
	00 00		 cmp	 DWORD PTR ?command_line_reverse_pedal@@3HA, 0 ; command_line_reverse_pedal
  00019	75 09		 jne	 SHORT $LN4@notify_rev
  0001b	c7 45 bc 01 00
	00 00		 mov	 DWORD PTR tv66[ebp], 1
  00022	eb 07		 jmp	 SHORT $LN5@notify_rev
$LN4@notify_rev:
  00024	c7 45 bc 00 00
	00 00		 mov	 DWORD PTR tv66[ebp], 0
$LN5@notify_rev:
  0002b	8b 45 bc	 mov	 eax, DWORD PTR tv66[ebp]
  0002e	a3 00 00 00 00	 mov	 DWORD PTR ?command_line_reverse_pedal@@3HA, eax ; command_line_reverse_pedal

; 3275 : 
; 3276 : 		set_ui_object_text (reverse_pedal_option_button, option_boolean_text [command_line_reverse_pedal]);

  00033	a1 00 00 00 00	 mov	 eax, DWORD PTR ?command_line_reverse_pedal@@3HA ; command_line_reverse_pedal
  00038	8b 0c 85 00 00
	00 00		 mov	 ecx, DWORD PTR ?option_boolean_text@@3PAPBDA[eax*4]
  0003f	51		 push	 ecx
  00040	8b 15 00 00 00
	00		 mov	 edx, DWORD PTR ?reverse_pedal_option_button@@3PAUUI_OBJECT@@A ; reverse_pedal_option_button
  00046	52		 push	 edx
  00047	a1 00 00 00 00	 mov	 eax, DWORD PTR ?reverse_pedal_option_button@@3PAUUI_OBJECT@@A ; reverse_pedal_option_button
  0004c	8b 08		 mov	 ecx, DWORD PTR [eax]
  0004e	8b 14 8d 00 00
	00 00		 mov	 edx, DWORD PTR ?fn_set_ui_object_text@@3PAP6GXPAUUI_OBJECT@@PBD@ZA[ecx*4]
  00055	ff d2		 call	 edx
$LN2@notify_rev:

; 3277 : 	}
; 3278 : 
; 3279 : 	// don't leave text selected
; 3280 : 
; 3281 : 	set_toggle_button_off (obj);

  00057	8b 45 08	 mov	 eax, DWORD PTR _obj$[ebp]
  0005a	50		 push	 eax
  0005b	e8 00 00 00 00	 call	 ?set_toggle_button_off@@YGXPAUUI_OBJECT@@@Z ; set_toggle_button_off

; 3282 : }

  00060	5f		 pop	 edi
  00061	5e		 pop	 esi
  00062	5b		 pop	 ebx
  00063	8b e5		 mov	 esp, ebp
  00065	5d		 pop	 ebp
  00066	c2 08 00	 ret	 8
?notify_reverse_pedal_option_button@@YGXPAUUI_OBJECT@@PAX@Z ENDP ; notify_reverse_pedal_option_button
_TEXT	ENDS
; Function compile flags: /Odtp /ZI
; File c:\users\nhv90\projects\eech\aphavoc\source\ui_menu\options\op_ctrlr.c
;	COMDAT ?notify_trackir_option_button@@YGXPAUUI_OBJECT@@PAX@Z
_TEXT	SEGMENT
_obj$ = 8						; size = 4
_arg$ = 12						; size = 4
?notify_trackir_option_button@@YGXPAUUI_OBJECT@@PAX@Z PROC ; notify_trackir_option_button, COMDAT

; 3098 : {

  00000	55		 push	 ebp
  00001	8b ec		 mov	 ebp, esp
  00003	83 ec 40	 sub	 esp, 64			; 00000040H
  00006	53		 push	 ebx
  00007	56		 push	 esi
  00008	57		 push	 edi

; 3099 : #if 0	// Retro 11Jul2004 - debug stuff
; 3100 : 	int i = 0;
; 3101 : 	FILE* fp = fopen("stick.txt","wt");
; 3102 : 
; 3103 : 	for (i = 0; i < AxisCount; i++)
; 3104 : 	{
; 3105 : 		fprintf(fp,"%i %i %i %s\n",AxisInfo[i].device, AxisInfo[i].axis, AxisInfo[i].inUse, AxisInfo[i].AxisName);
; 3106 : 	}
; 3107 : 	fprintf(fp,"\n");
; 3108 : 	fprintf(fp,"%i\n",command_line_cyclic_joystick_index);
; 3109 : 	fprintf(fp,"%i\n",command_line_cyclic_joystick_x_axis);
; 3110 : 	fprintf(fp,"%i\n",command_line_cyclic_joystick_y_axis);
; 3111 : 	fprintf(fp,"%i\n",command_line_collective_joystick_index);
; 3112 : 	fprintf(fp,"%i\n",command_line_collective_joystick_axis);
; 3113 : 	fprintf(fp,"%i\n",command_line_rudder_joystick_index);
; 3114 : 	fprintf(fp,"%i\n",command_line_rudder_joystick_axis);
; 3115 : 	fprintf(fp,"%i\n",command_line_joylook_joystick_index);
; 3116 : 	fprintf(fp,"%i\n",command_line_joylookh_joystick_axis);
; 3117 : 	fprintf(fp,"%i\n",command_line_joylookv_joystick_axis);
; 3118 : 	fprintf(fp,"%i\n",command_line_eo_pan_joystick_index);
; 3119 : 	fprintf(fp,"%i\n",command_line_eo_pan_vertical_joystick_axis);
; 3120 : 	fprintf(fp,"%i\n",command_line_eo_pan_horizontal_joystick_axis);
; 3121 : 	fprintf(fp,"%i\n",command_line_eo_zoom_joystick_index);
; 3122 : 	fprintf(fp,"%i\n",command_line_eo_zoom_joystick_axis);
; 3123 : 	fprintf(fp,"\n");
; 3124 : 	fprintf(fp,"%i\n",get_global_joystick_device_index ());	// should be same as number_of_joystick_devices
; 3125 : 	fprintf(fp,"%i\n",number_of_joystick_devices);
; 3126 : 	fprintf(fp,"%i\n",global_options.cyclic_input);
; 3127 : 	fprintf(fp,"%i\n",global_options.collective_input);
; 3128 : 	fprintf(fp,"%i\n",global_options.pedal_input);
; 3129 : 	fprintf(fp,"\n");
; 3130 : 
; 3131 : 	for (i = 0; i < number_of_joystick_devices; i++)
; 3132 : 	{
; 3133 : 		fprintf(fp,"%i\n",joystick_devices[i].joystick_xaxis_valid);
; 3134 : 		fprintf(fp,"%i\n",joystick_devices[i].joystick_yaxis_valid);
; 3135 : 		fprintf(fp,"%i\n",joystick_devices[i].joystick_zaxis_valid);
; 3136 : 		fprintf(fp,"%i\n",joystick_devices[i].joystick_rxaxis_valid);
; 3137 : 		fprintf(fp,"%i\n",joystick_devices[i].joystick_ryaxis_valid);
; 3138 : 		fprintf(fp,"%i\n",joystick_devices[i].joystick_rzaxis_valid);
; 3139 : 		fprintf(fp,"%i\n",joystick_devices[i].joystick_slider0axis_valid);
; 3140 : 		fprintf(fp,"%i\n",joystick_devices[i].joystick_slider1axis_valid);
; 3141 : 		fprintf(fp,"--\n");
; 3142 : 	}
; 3143 : 
; 3144 : 	fclose(fp);
; 3145 : #endif	// Retro 11Jul2004
; 3146 : 
; 3147 : 	// don't leave text selected
; 3148 : 
; 3149 : 	set_toggle_button_off (obj);

  00009	8b 45 08	 mov	 eax, DWORD PTR _obj$[ebp]
  0000c	50		 push	 eax
  0000d	e8 00 00 00 00	 call	 ?set_toggle_button_off@@YGXPAUUI_OBJECT@@@Z ; set_toggle_button_off

; 3150 : }

  00012	5f		 pop	 edi
  00013	5e		 pop	 esi
  00014	5b		 pop	 ebx
  00015	8b e5		 mov	 esp, ebp
  00017	5d		 pop	 ebp
  00018	c2 08 00	 ret	 8
?notify_trackir_option_button@@YGXPAUUI_OBJECT@@PAX@Z ENDP ; notify_trackir_option_button
_TEXT	ENDS
; Function compile flags: /Odtp /ZI
; File c:\users\nhv90\projects\eech\aphavoc\source\ui_menu\options\op_ctrlr.c
;	COMDAT ?notify_mouselook_option_button@@YGXPAUUI_OBJECT@@PAX@Z
_TEXT	SEGMENT
_obj$ = 8						; size = 4
_arg$ = 12						; size = 4
?notify_mouselook_option_button@@YGXPAUUI_OBJECT@@PAX@Z PROC ; notify_mouselook_option_button, COMDAT

; 3033 : {

  00000	55		 push	 ebp
  00001	8b ec		 mov	 ebp, esp
  00003	83 ec 40	 sub	 esp, 64			; 00000040H
  00006	53		 push	 ebx
  00007	56		 push	 esi
  00008	57		 push	 edi

; 3034 : #if 0
; 3035 : 	int
; 3036 : 		selection;
; 3037 : 
; 3038 : 	selection = !command_line_mouse_look;
; 3039 : 
; 3040 : 	command_line_mouse_look = !command_line_mouse_look;
; 3041 : 
; 3042 : 	// mouselook overrides joystick look, so deactivate this
; 3043 : 	if (command_line_mouse_look == TRUE)
; 3044 : 	{
; 3045 : 		set_ui_object_text (joylook_x_option_button, option_joystick_text[0]);
; 3046 : 		set_ui_object_text (joylook_y_option_button, option_joystick_text[0]);
; 3047 : 
; 3048 : 		setAxisUnused(command_line_joylook_joystick_index,command_line_joylookh_joystick_axis);
; 3049 : 		setAxisUnused(command_line_joylook_joystick_index,command_line_joylookv_joystick_axis);
; 3050 : 
; 3051 : 		command_line_joylook_joystick_index = -1;
; 3052 : 		command_line_joylookv_joystick_axis = -1;
; 3053 : 		command_line_joylookh_joystick_axis = -1;
; 3054 : 
; 3055 : 		setTrackIRButton (TRUE);
; 3056 : 	}
; 3057 : 	else
; 3058 : 		setTrackIRButton (FALSE);
; 3059 : 
; 3060 : 	set_ui_object_text (mouselook_option_button, option_boolean_text [selection]);
; 3061 : #else
; 3062 : 	command_line_mouse_look++;

  00009	a1 00 00 00 00	 mov	 eax, DWORD PTR ?command_line_mouse_look@@3HA ; command_line_mouse_look
  0000e	83 c0 01	 add	 eax, 1
  00011	a3 00 00 00 00	 mov	 DWORD PTR ?command_line_mouse_look@@3HA, eax ; command_line_mouse_look

; 3063 : 	command_line_mouse_look %= MOUSELOOK_MAX;

  00016	a1 00 00 00 00	 mov	 eax, DWORD PTR ?command_line_mouse_look@@3HA ; command_line_mouse_look
  0001b	25 03 00 00 80	 and	 eax, -2147483645	; 80000003H
  00020	79 05		 jns	 SHORT $LN5@notify_mou
  00022	48		 dec	 eax
  00023	83 c8 fc	 or	 eax, -4			; fffffffcH
  00026	40		 inc	 eax
$LN5@notify_mou:
  00027	a3 00 00 00 00	 mov	 DWORD PTR ?command_line_mouse_look@@3HA, eax ; command_line_mouse_look

; 3064 : 
; 3065 : 	if (command_line_mouse_look != MOUSELOOK_OFF)

  0002c	83 3d 00 00 00
	00 00		 cmp	 DWORD PTR ?command_line_mouse_look@@3HA, 0 ; command_line_mouse_look
  00033	0f 84 97 00 00
	00		 je	 $LN2@notify_mou

; 3066 : 	{
; 3067 : 		set_ui_object_text (joylook_x_option_button, option_joystick_text[0]);

  00039	b8 04 00 00 00	 mov	 eax, 4
  0003e	6b c8 00	 imul	 ecx, eax, 0
  00041	8b 91 00 00 00
	00		 mov	 edx, DWORD PTR ?option_joystick_text@@3PAPBDA[ecx]
  00047	52		 push	 edx
  00048	a1 00 00 00 00	 mov	 eax, DWORD PTR ?joylook_x_option_button@@3PAUUI_OBJECT@@A ; joylook_x_option_button
  0004d	50		 push	 eax
  0004e	8b 0d 00 00 00
	00		 mov	 ecx, DWORD PTR ?joylook_x_option_button@@3PAUUI_OBJECT@@A ; joylook_x_option_button
  00054	8b 11		 mov	 edx, DWORD PTR [ecx]
  00056	8b 04 95 00 00
	00 00		 mov	 eax, DWORD PTR ?fn_set_ui_object_text@@3PAP6GXPAUUI_OBJECT@@PBD@ZA[edx*4]
  0005d	ff d0		 call	 eax

; 3068 : 		set_ui_object_text (joylook_y_option_button, option_joystick_text[0]);

  0005f	b8 04 00 00 00	 mov	 eax, 4
  00064	6b c8 00	 imul	 ecx, eax, 0
  00067	8b 91 00 00 00
	00		 mov	 edx, DWORD PTR ?option_joystick_text@@3PAPBDA[ecx]
  0006d	52		 push	 edx
  0006e	a1 00 00 00 00	 mov	 eax, DWORD PTR ?joylook_y_option_button@@3PAUUI_OBJECT@@A ; joylook_y_option_button
  00073	50		 push	 eax
  00074	8b 0d 00 00 00
	00		 mov	 ecx, DWORD PTR ?joylook_y_option_button@@3PAUUI_OBJECT@@A ; joylook_y_option_button
  0007a	8b 11		 mov	 edx, DWORD PTR [ecx]
  0007c	8b 04 95 00 00
	00 00		 mov	 eax, DWORD PTR ?fn_set_ui_object_text@@3PAP6GXPAUUI_OBJECT@@PBD@ZA[edx*4]
  00083	ff d0		 call	 eax

; 3069 : 
; 3070 : 		setAxisUnused(command_line_joylook_joystick_index,command_line_joylookh_joystick_axis);

  00085	a1 00 00 00 00	 mov	 eax, DWORD PTR ?command_line_joylookh_joystick_axis@@3HA ; command_line_joylookh_joystick_axis
  0008a	50		 push	 eax
  0008b	8b 0d 00 00 00
	00		 mov	 ecx, DWORD PTR ?command_line_joylook_joystick_index@@3HA ; command_line_joylook_joystick_index
  00091	51		 push	 ecx
  00092	e8 00 00 00 00	 call	 ?setAxisUnused@@YGXHH@Z	; setAxisUnused

; 3071 : 		setAxisUnused(command_line_joylook_joystick_index,command_line_joylookv_joystick_axis);

  00097	a1 00 00 00 00	 mov	 eax, DWORD PTR ?command_line_joylookv_joystick_axis@@3HA ; command_line_joylookv_joystick_axis
  0009c	50		 push	 eax
  0009d	8b 0d 00 00 00
	00		 mov	 ecx, DWORD PTR ?command_line_joylook_joystick_index@@3HA ; command_line_joylook_joystick_index
  000a3	51		 push	 ecx
  000a4	e8 00 00 00 00	 call	 ?setAxisUnused@@YGXHH@Z	; setAxisUnused

; 3072 : 
; 3073 : 		command_line_joylook_joystick_index = -1;

  000a9	c7 05 00 00 00
	00 ff ff ff ff	 mov	 DWORD PTR ?command_line_joylook_joystick_index@@3HA, -1 ; command_line_joylook_joystick_index

; 3074 : 		command_line_joylookv_joystick_axis = -1;

  000b3	c7 05 00 00 00
	00 ff ff ff ff	 mov	 DWORD PTR ?command_line_joylookv_joystick_axis@@3HA, -1 ; command_line_joylookv_joystick_axis

; 3075 : 		command_line_joylookh_joystick_axis = -1;

  000bd	c7 05 00 00 00
	00 ff ff ff ff	 mov	 DWORD PTR ?command_line_joylookh_joystick_axis@@3HA, -1 ; command_line_joylookh_joystick_axis

; 3076 : 
; 3077 : 		setTrackIRButton (TRUE);

  000c7	6a 01		 push	 1
  000c9	e8 00 00 00 00	 call	 ?setTrackIRButton@@YGXH@Z ; setTrackIRButton

; 3078 : 	}
; 3079 : 	else

  000ce	eb 07		 jmp	 SHORT $LN3@notify_mou
$LN2@notify_mou:

; 3080 : 		setTrackIRButton (FALSE);

  000d0	6a 00		 push	 0
  000d2	e8 00 00 00 00	 call	 ?setTrackIRButton@@YGXH@Z ; setTrackIRButton
$LN3@notify_mou:

; 3081 : 
; 3082 : 	set_ui_object_text (mouselook_option_button, option_mouselook_text [command_line_mouse_look]);

  000d7	a1 00 00 00 00	 mov	 eax, DWORD PTR ?command_line_mouse_look@@3HA ; command_line_mouse_look
  000dc	8b 0c 85 00 00
	00 00		 mov	 ecx, DWORD PTR ?option_mouselook_text@@3PAPBDA[eax*4]
  000e3	51		 push	 ecx
  000e4	8b 15 00 00 00
	00		 mov	 edx, DWORD PTR ?mouselook_option_button@@3PAUUI_OBJECT@@A ; mouselook_option_button
  000ea	52		 push	 edx
  000eb	a1 00 00 00 00	 mov	 eax, DWORD PTR ?mouselook_option_button@@3PAUUI_OBJECT@@A ; mouselook_option_button
  000f0	8b 08		 mov	 ecx, DWORD PTR [eax]
  000f2	8b 14 8d 00 00
	00 00		 mov	 edx, DWORD PTR ?fn_set_ui_object_text@@3PAP6GXPAUUI_OBJECT@@PBD@ZA[ecx*4]
  000f9	ff d2		 call	 edx

; 3083 : #endif
; 3084 : 	// don't leave text selected
; 3085 : 
; 3086 : 	set_toggle_button_off (obj);

  000fb	8b 45 08	 mov	 eax, DWORD PTR _obj$[ebp]
  000fe	50		 push	 eax
  000ff	e8 00 00 00 00	 call	 ?set_toggle_button_off@@YGXPAUUI_OBJECT@@@Z ; set_toggle_button_off

; 3087 : 
; 3088 : 	#ifdef DEBUG_MODULE
; 3089 : 		debug_filtered_log ("mouselook: %d", command_line_mouse_look);

  00104	a1 00 00 00 00	 mov	 eax, DWORD PTR ?command_line_mouse_look@@3HA ; command_line_mouse_look
  00109	50		 push	 eax
  0010a	68 00 00 00 00	 push	 OFFSET ??_C@_0O@IOCFNIA@mouselook?3?5?$CFd@
  0010f	e8 00 00 00 00	 call	 ?debug_filtered_log@@YAXPBDZZ ; debug_filtered_log
  00114	83 c4 08	 add	 esp, 8

; 3090 : 	#endif
; 3091 : }

  00117	5f		 pop	 edi
  00118	5e		 pop	 esi
  00119	5b		 pop	 ebx
  0011a	8b e5		 mov	 esp, ebp
  0011c	5d		 pop	 ebp
  0011d	c2 08 00	 ret	 8
?notify_mouselook_option_button@@YGXPAUUI_OBJECT@@PAX@Z ENDP ; notify_mouselook_option_button
_TEXT	ENDS
; Function compile flags: /Odtp /ZI
; File c:\users\nhv90\projects\eech\aphavoc\source\ui_menu\options\op_ctrlr.c
;	COMDAT ?notify_joylook_y_option_button_right@@YGXPAUUI_OBJECT@@PAX@Z
_TEXT	SEGMENT
_AxisInfoIndex$ = -4					; size = 4
_obj$ = 8						; size = 4
_arg$ = 12						; size = 4
?notify_joylook_y_option_button_right@@YGXPAUUI_OBJECT@@PAX@Z PROC ; notify_joylook_y_option_button_right, COMDAT

; 2971 : {

  00000	55		 push	 ebp
  00001	8b ec		 mov	 ebp, esp
  00003	83 ec 44	 sub	 esp, 68			; 00000044H
  00006	53		 push	 ebx
  00007	56		 push	 esi
  00008	57		 push	 edi

; 2972 : 	int
; 2973 : 		AxisInfoIndex;
; 2974 : 
; 2975 : 	AxisInfoIndex = findPreviousUnusedDeviceAxis(command_line_joylook_joystick_index,command_line_joylookv_joystick_axis);

  00009	a1 00 00 00 00	 mov	 eax, DWORD PTR ?command_line_joylookv_joystick_axis@@3HA ; command_line_joylookv_joystick_axis
  0000e	50		 push	 eax
  0000f	8b 0d 00 00 00
	00		 mov	 ecx, DWORD PTR ?command_line_joylook_joystick_index@@3HA ; command_line_joylook_joystick_index
  00015	51		 push	 ecx
  00016	e8 00 00 00 00	 call	 ?findPreviousUnusedDeviceAxis@@YGHHH@Z ; findPreviousUnusedDeviceAxis
  0001b	89 45 fc	 mov	 DWORD PTR _AxisInfoIndex$[ebp], eax

; 2976 : 
; 2977 : 	command_line_joylookv_joystick_axis = AxisInfo[AxisInfoIndex].axis;

  0001e	8b 45 fc	 mov	 eax, DWORD PTR _AxisInfoIndex$[ebp]
  00021	c1 e0 04	 shl	 eax, 4
  00024	8b 88 08 00 00
	00		 mov	 ecx, DWORD PTR ?AxisInfo@@3PAUAxisInfo_t@@A[eax+8]
  0002a	89 0d 00 00 00
	00		 mov	 DWORD PTR ?command_line_joylookv_joystick_axis@@3HA, ecx ; command_line_joylookv_joystick_axis

; 2978 : 
; 2979 : 	set_ui_object_text (joylook_y_option_button, AxisInfo[AxisInfoIndex].AxisName);

  00030	8b 45 fc	 mov	 eax, DWORD PTR _AxisInfoIndex$[ebp]
  00033	c1 e0 04	 shl	 eax, 4
  00036	8b 88 00 00 00
	00		 mov	 ecx, DWORD PTR ?AxisInfo@@3PAUAxisInfo_t@@A[eax]
  0003c	51		 push	 ecx
  0003d	8b 15 00 00 00
	00		 mov	 edx, DWORD PTR ?joylook_y_option_button@@3PAUUI_OBJECT@@A ; joylook_y_option_button
  00043	52		 push	 edx
  00044	a1 00 00 00 00	 mov	 eax, DWORD PTR ?joylook_y_option_button@@3PAUUI_OBJECT@@A ; joylook_y_option_button
  00049	8b 08		 mov	 ecx, DWORD PTR [eax]
  0004b	8b 14 8d 00 00
	00 00		 mov	 edx, DWORD PTR ?fn_set_ui_object_text@@3PAP6GXPAUUI_OBJECT@@PBD@ZA[ecx*4]
  00052	ff d2		 call	 edx

; 2980 : 
; 2981 : 	// ugh
; 2982 : 	notify_show_controller_page ();

  00054	e8 00 00 00 00	 call	 ?notify_show_controller_page@@YGXXZ ; notify_show_controller_page

; 2983 : 
; 2984 : 	// don't leave text selected
; 2985 : 	set_toggle_button_off (obj);

  00059	8b 45 08	 mov	 eax, DWORD PTR _obj$[ebp]
  0005c	50		 push	 eax
  0005d	e8 00 00 00 00	 call	 ?set_toggle_button_off@@YGXPAUUI_OBJECT@@@Z ; set_toggle_button_off

; 2986 : }

  00062	5f		 pop	 edi
  00063	5e		 pop	 esi
  00064	5b		 pop	 ebx
  00065	8b e5		 mov	 esp, ebp
  00067	5d		 pop	 ebp
  00068	c2 08 00	 ret	 8
?notify_joylook_y_option_button_right@@YGXPAUUI_OBJECT@@PAX@Z ENDP ; notify_joylook_y_option_button_right
_TEXT	ENDS
; Function compile flags: /Odtp /ZI
; File c:\users\nhv90\projects\eech\aphavoc\source\ui_menu\options\op_ctrlr.c
;	COMDAT ?notify_joylook_y_option_button@@YGXPAUUI_OBJECT@@PAX@Z
_TEXT	SEGMENT
_AxisInfoIndex$ = -4					; size = 4
_obj$ = 8						; size = 4
_arg$ = 12						; size = 4
?notify_joylook_y_option_button@@YGXPAUUI_OBJECT@@PAX@Z PROC ; notify_joylook_y_option_button, COMDAT

; 2955 : {

  00000	55		 push	 ebp
  00001	8b ec		 mov	 ebp, esp
  00003	83 ec 44	 sub	 esp, 68			; 00000044H
  00006	53		 push	 ebx
  00007	56		 push	 esi
  00008	57		 push	 edi

; 2956 : 	int
; 2957 : 		AxisInfoIndex;
; 2958 : 
; 2959 : 	AxisInfoIndex = findNextUnusedDeviceAxis(command_line_joylook_joystick_index,command_line_joylookv_joystick_axis);

  00009	a1 00 00 00 00	 mov	 eax, DWORD PTR ?command_line_joylookv_joystick_axis@@3HA ; command_line_joylookv_joystick_axis
  0000e	50		 push	 eax
  0000f	8b 0d 00 00 00
	00		 mov	 ecx, DWORD PTR ?command_line_joylook_joystick_index@@3HA ; command_line_joylook_joystick_index
  00015	51		 push	 ecx
  00016	e8 00 00 00 00	 call	 ?findNextUnusedDeviceAxis@@YGHHH@Z ; findNextUnusedDeviceAxis
  0001b	89 45 fc	 mov	 DWORD PTR _AxisInfoIndex$[ebp], eax

; 2960 : 
; 2961 : 	command_line_joylookv_joystick_axis = AxisInfo[AxisInfoIndex].axis;

  0001e	8b 45 fc	 mov	 eax, DWORD PTR _AxisInfoIndex$[ebp]
  00021	c1 e0 04	 shl	 eax, 4
  00024	8b 88 08 00 00
	00		 mov	 ecx, DWORD PTR ?AxisInfo@@3PAUAxisInfo_t@@A[eax+8]
  0002a	89 0d 00 00 00
	00		 mov	 DWORD PTR ?command_line_joylookv_joystick_axis@@3HA, ecx ; command_line_joylookv_joystick_axis

; 2962 : 
; 2963 : 	set_ui_object_text (joylook_y_option_button, AxisInfo[AxisInfoIndex].AxisName);

  00030	8b 45 fc	 mov	 eax, DWORD PTR _AxisInfoIndex$[ebp]
  00033	c1 e0 04	 shl	 eax, 4
  00036	8b 88 00 00 00
	00		 mov	 ecx, DWORD PTR ?AxisInfo@@3PAUAxisInfo_t@@A[eax]
  0003c	51		 push	 ecx
  0003d	8b 15 00 00 00
	00		 mov	 edx, DWORD PTR ?joylook_y_option_button@@3PAUUI_OBJECT@@A ; joylook_y_option_button
  00043	52		 push	 edx
  00044	a1 00 00 00 00	 mov	 eax, DWORD PTR ?joylook_y_option_button@@3PAUUI_OBJECT@@A ; joylook_y_option_button
  00049	8b 08		 mov	 ecx, DWORD PTR [eax]
  0004b	8b 14 8d 00 00
	00 00		 mov	 edx, DWORD PTR ?fn_set_ui_object_text@@3PAP6GXPAUUI_OBJECT@@PBD@ZA[ecx*4]
  00052	ff d2		 call	 edx

; 2964 : 
; 2965 : 	// don't leave text selected
; 2966 : 
; 2967 : 	set_toggle_button_off (obj);

  00054	8b 45 08	 mov	 eax, DWORD PTR _obj$[ebp]
  00057	50		 push	 eax
  00058	e8 00 00 00 00	 call	 ?set_toggle_button_off@@YGXPAUUI_OBJECT@@@Z ; set_toggle_button_off

; 2968 : }

  0005d	5f		 pop	 edi
  0005e	5e		 pop	 esi
  0005f	5b		 pop	 ebx
  00060	8b e5		 mov	 esp, ebp
  00062	5d		 pop	 ebp
  00063	c2 08 00	 ret	 8
?notify_joylook_y_option_button@@YGXPAUUI_OBJECT@@PAX@Z ENDP ; notify_joylook_y_option_button
_TEXT	ENDS
; Function compile flags: /Odtp /ZI
; File c:\users\nhv90\projects\eech\aphavoc\source\ui_menu\options\op_ctrlr.c
;	COMDAT ?notify_joylook_x_option_button_right@@YGXPAUUI_OBJECT@@PAX@Z
_TEXT	SEGMENT
_oldJoyLookDevice$ = -8					; size = 4
_AxisInfoIndex$ = -4					; size = 4
_obj$ = 8						; size = 4
_arg$ = 12						; size = 4
?notify_joylook_x_option_button_right@@YGXPAUUI_OBJECT@@PAX@Z PROC ; notify_joylook_x_option_button_right, COMDAT

; 2913 : {

  00000	55		 push	 ebp
  00001	8b ec		 mov	 ebp, esp
  00003	83 ec 48	 sub	 esp, 72			; 00000048H
  00006	53		 push	 ebx
  00007	56		 push	 esi
  00008	57		 push	 edi

; 2914 : 	int
; 2915 : 		AxisInfoIndex,
; 2916 : 		oldJoyLookDevice;
; 2917 : 	
; 2918 : 	oldJoyLookDevice = command_line_joylook_joystick_index;

  00009	a1 00 00 00 00	 mov	 eax, DWORD PTR ?command_line_joylook_joystick_index@@3HA ; command_line_joylook_joystick_index
  0000e	89 45 f8	 mov	 DWORD PTR _oldJoyLookDevice$[ebp], eax

; 2919 : 
; 2920 : 	AxisInfoIndex = findPreviousUnusedAxis(command_line_joylook_joystick_index,command_line_joylookh_joystick_axis);

  00011	a1 00 00 00 00	 mov	 eax, DWORD PTR ?command_line_joylookh_joystick_axis@@3HA ; command_line_joylookh_joystick_axis
  00016	50		 push	 eax
  00017	8b 0d 00 00 00
	00		 mov	 ecx, DWORD PTR ?command_line_joylook_joystick_index@@3HA ; command_line_joylook_joystick_index
  0001d	51		 push	 ecx
  0001e	e8 00 00 00 00	 call	 ?findPreviousUnusedAxis@@YGHHH@Z ; findPreviousUnusedAxis
  00023	89 45 fc	 mov	 DWORD PTR _AxisInfoIndex$[ebp], eax

; 2921 : 
; 2922 : 	command_line_joylook_joystick_index = AxisInfo[AxisInfoIndex].device;

  00026	8b 45 fc	 mov	 eax, DWORD PTR _AxisInfoIndex$[ebp]
  00029	c1 e0 04	 shl	 eax, 4
  0002c	8b 88 04 00 00
	00		 mov	 ecx, DWORD PTR ?AxisInfo@@3PAUAxisInfo_t@@A[eax+4]
  00032	89 0d 00 00 00
	00		 mov	 DWORD PTR ?command_line_joylook_joystick_index@@3HA, ecx ; command_line_joylook_joystick_index

; 2923 : 	command_line_joylookh_joystick_axis = AxisInfo[AxisInfoIndex].axis;

  00038	8b 45 fc	 mov	 eax, DWORD PTR _AxisInfoIndex$[ebp]
  0003b	c1 e0 04	 shl	 eax, 4
  0003e	8b 88 08 00 00
	00		 mov	 ecx, DWORD PTR ?AxisInfo@@3PAUAxisInfo_t@@A[eax+8]
  00044	89 0d 00 00 00
	00		 mov	 DWORD PTR ?command_line_joylookh_joystick_axis@@3HA, ecx ; command_line_joylookh_joystick_axis

; 2924 : 
; 2925 : 	set_ui_object_text (joylook_x_option_button, AxisInfo[AxisInfoIndex].AxisName);

  0004a	8b 45 fc	 mov	 eax, DWORD PTR _AxisInfoIndex$[ebp]
  0004d	c1 e0 04	 shl	 eax, 4
  00050	8b 88 00 00 00
	00		 mov	 ecx, DWORD PTR ?AxisInfo@@3PAUAxisInfo_t@@A[eax]
  00056	51		 push	 ecx
  00057	8b 15 00 00 00
	00		 mov	 edx, DWORD PTR ?joylook_x_option_button@@3PAUUI_OBJECT@@A ; joylook_x_option_button
  0005d	52		 push	 edx
  0005e	a1 00 00 00 00	 mov	 eax, DWORD PTR ?joylook_x_option_button@@3PAUUI_OBJECT@@A ; joylook_x_option_button
  00063	8b 08		 mov	 ecx, DWORD PTR [eax]
  00065	8b 14 8d 00 00
	00 00		 mov	 edx, DWORD PTR ?fn_set_ui_object_text@@3PAP6GXPAUUI_OBJECT@@PBD@ZA[ecx*4]
  0006c	ff d2		 call	 edx

; 2926 : 
; 2927 : 	if (command_line_joylook_joystick_index != oldJoyLookDevice)

  0006e	a1 00 00 00 00	 mov	 eax, DWORD PTR ?command_line_joylook_joystick_index@@3HA ; command_line_joylook_joystick_index
  00073	3b 45 f8	 cmp	 eax, DWORD PTR _oldJoyLookDevice$[ebp]
  00076	74 3f		 je	 SHORT $LN2@notify_joy

; 2928 : 	{
; 2929 : 		set_ui_object_text (joylook_y_option_button, option_joystick_text[0]);

  00078	b8 04 00 00 00	 mov	 eax, 4
  0007d	6b c8 00	 imul	 ecx, eax, 0
  00080	8b 91 00 00 00
	00		 mov	 edx, DWORD PTR ?option_joystick_text@@3PAPBDA[ecx]
  00086	52		 push	 edx
  00087	a1 00 00 00 00	 mov	 eax, DWORD PTR ?joylook_y_option_button@@3PAUUI_OBJECT@@A ; joylook_y_option_button
  0008c	50		 push	 eax
  0008d	8b 0d 00 00 00
	00		 mov	 ecx, DWORD PTR ?joylook_y_option_button@@3PAUUI_OBJECT@@A ; joylook_y_option_button
  00093	8b 11		 mov	 edx, DWORD PTR [ecx]
  00095	8b 04 95 00 00
	00 00		 mov	 eax, DWORD PTR ?fn_set_ui_object_text@@3PAP6GXPAUUI_OBJECT@@PBD@ZA[edx*4]
  0009c	ff d0		 call	 eax

; 2930 : 		setAxisUnused(oldJoyLookDevice,command_line_joylookv_joystick_axis);

  0009e	a1 00 00 00 00	 mov	 eax, DWORD PTR ?command_line_joylookv_joystick_axis@@3HA ; command_line_joylookv_joystick_axis
  000a3	50		 push	 eax
  000a4	8b 4d f8	 mov	 ecx, DWORD PTR _oldJoyLookDevice$[ebp]
  000a7	51		 push	 ecx
  000a8	e8 00 00 00 00	 call	 ?setAxisUnused@@YGXHH@Z	; setAxisUnused

; 2931 : 		command_line_joylookv_joystick_axis = -1;

  000ad	c7 05 00 00 00
	00 ff ff ff ff	 mov	 DWORD PTR ?command_line_joylookv_joystick_axis@@3HA, -1 ; command_line_joylookv_joystick_axis
$LN2@notify_joy:

; 2932 : 	}
; 2933 : 
; 2934 : 	// mouselook would override joystick look, so deactivate that
; 2935 : 	if ((command_line_mouse_look != MOUSELOOK_OFF)&&(command_line_joylook_joystick_index != -1))

  000b7	83 3d 00 00 00
	00 00		 cmp	 DWORD PTR ?command_line_mouse_look@@3HA, 0 ; command_line_mouse_look
  000be	74 3e		 je	 SHORT $LN3@notify_joy
  000c0	83 3d 00 00 00
	00 ff		 cmp	 DWORD PTR ?command_line_joylook_joystick_index@@3HA, -1 ; command_line_joylook_joystick_index
  000c7	74 35		 je	 SHORT $LN3@notify_joy

; 2936 : 	{
; 2937 : 		command_line_mouse_look = MOUSELOOK_OFF;

  000c9	c7 05 00 00 00
	00 00 00 00 00	 mov	 DWORD PTR ?command_line_mouse_look@@3HA, 0 ; command_line_mouse_look

; 2938 : //		set_ui_object_text (mouselook_option_button, option_boolean_text [0]);
; 2939 : 		set_ui_object_text (mouselook_option_button, option_mouselook_text [command_line_mouse_look]);

  000d3	a1 00 00 00 00	 mov	 eax, DWORD PTR ?command_line_mouse_look@@3HA ; command_line_mouse_look
  000d8	8b 0c 85 00 00
	00 00		 mov	 ecx, DWORD PTR ?option_mouselook_text@@3PAPBDA[eax*4]
  000df	51		 push	 ecx
  000e0	8b 15 00 00 00
	00		 mov	 edx, DWORD PTR ?mouselook_option_button@@3PAUUI_OBJECT@@A ; mouselook_option_button
  000e6	52		 push	 edx
  000e7	a1 00 00 00 00	 mov	 eax, DWORD PTR ?mouselook_option_button@@3PAUUI_OBJECT@@A ; mouselook_option_button
  000ec	8b 08		 mov	 ecx, DWORD PTR [eax]
  000ee	8b 14 8d 00 00
	00 00		 mov	 edx, DWORD PTR ?fn_set_ui_object_text@@3PAP6GXPAUUI_OBJECT@@PBD@ZA[ecx*4]
  000f5	ff d2		 call	 edx

; 2940 : 		setTrackIRButton (FALSE);

  000f7	6a 00		 push	 0
  000f9	e8 00 00 00 00	 call	 ?setTrackIRButton@@YGXH@Z ; setTrackIRButton
$LN3@notify_joy:

; 2941 : 	}
; 2942 : 
; 2943 : 	// ugh
; 2944 : 	notify_show_controller_page ();

  000fe	e8 00 00 00 00	 call	 ?notify_show_controller_page@@YGXXZ ; notify_show_controller_page

; 2945 : 
; 2946 : 	// don't leave text selected
; 2947 : 	set_toggle_button_off (obj);

  00103	8b 45 08	 mov	 eax, DWORD PTR _obj$[ebp]
  00106	50		 push	 eax
  00107	e8 00 00 00 00	 call	 ?set_toggle_button_off@@YGXPAUUI_OBJECT@@@Z ; set_toggle_button_off

; 2948 : }

  0010c	5f		 pop	 edi
  0010d	5e		 pop	 esi
  0010e	5b		 pop	 ebx
  0010f	8b e5		 mov	 esp, ebp
  00111	5d		 pop	 ebp
  00112	c2 08 00	 ret	 8
?notify_joylook_x_option_button_right@@YGXPAUUI_OBJECT@@PAX@Z ENDP ; notify_joylook_x_option_button_right
_TEXT	ENDS
; Function compile flags: /Odtp /ZI
; File c:\users\nhv90\projects\eech\aphavoc\source\ui_menu\options\op_ctrlr.c
;	COMDAT ?notify_joylook_x_option_button@@YGXPAUUI_OBJECT@@PAX@Z
_TEXT	SEGMENT
_oldJoyLookDevice$ = -8					; size = 4
_AxisInfoIndex$ = -4					; size = 4
_obj$ = 8						; size = 4
_arg$ = 12						; size = 4
?notify_joylook_x_option_button@@YGXPAUUI_OBJECT@@PAX@Z PROC ; notify_joylook_x_option_button, COMDAT

; 2877 : {

  00000	55		 push	 ebp
  00001	8b ec		 mov	 ebp, esp
  00003	83 ec 48	 sub	 esp, 72			; 00000048H
  00006	53		 push	 ebx
  00007	56		 push	 esi
  00008	57		 push	 edi

; 2878 : 	int
; 2879 : 		AxisInfoIndex,
; 2880 : 		oldJoyLookDevice;
; 2881 : 	
; 2882 : 	oldJoyLookDevice = command_line_joylook_joystick_index;

  00009	a1 00 00 00 00	 mov	 eax, DWORD PTR ?command_line_joylook_joystick_index@@3HA ; command_line_joylook_joystick_index
  0000e	89 45 f8	 mov	 DWORD PTR _oldJoyLookDevice$[ebp], eax

; 2883 : 
; 2884 : 	AxisInfoIndex = findNextUnusedAxis(command_line_joylook_joystick_index,command_line_joylookh_joystick_axis);

  00011	a1 00 00 00 00	 mov	 eax, DWORD PTR ?command_line_joylookh_joystick_axis@@3HA ; command_line_joylookh_joystick_axis
  00016	50		 push	 eax
  00017	8b 0d 00 00 00
	00		 mov	 ecx, DWORD PTR ?command_line_joylook_joystick_index@@3HA ; command_line_joylook_joystick_index
  0001d	51		 push	 ecx
  0001e	e8 00 00 00 00	 call	 ?findNextUnusedAxis@@YGHHH@Z ; findNextUnusedAxis
  00023	89 45 fc	 mov	 DWORD PTR _AxisInfoIndex$[ebp], eax

; 2885 : 
; 2886 : 	command_line_joylook_joystick_index = AxisInfo[AxisInfoIndex].device;

  00026	8b 45 fc	 mov	 eax, DWORD PTR _AxisInfoIndex$[ebp]
  00029	c1 e0 04	 shl	 eax, 4
  0002c	8b 88 04 00 00
	00		 mov	 ecx, DWORD PTR ?AxisInfo@@3PAUAxisInfo_t@@A[eax+4]
  00032	89 0d 00 00 00
	00		 mov	 DWORD PTR ?command_line_joylook_joystick_index@@3HA, ecx ; command_line_joylook_joystick_index

; 2887 : 	command_line_joylookh_joystick_axis = AxisInfo[AxisInfoIndex].axis;

  00038	8b 45 fc	 mov	 eax, DWORD PTR _AxisInfoIndex$[ebp]
  0003b	c1 e0 04	 shl	 eax, 4
  0003e	8b 88 08 00 00
	00		 mov	 ecx, DWORD PTR ?AxisInfo@@3PAUAxisInfo_t@@A[eax+8]
  00044	89 0d 00 00 00
	00		 mov	 DWORD PTR ?command_line_joylookh_joystick_axis@@3HA, ecx ; command_line_joylookh_joystick_axis

; 2888 : 
; 2889 : 	set_ui_object_text (joylook_x_option_button, AxisInfo[AxisInfoIndex].AxisName);

  0004a	8b 45 fc	 mov	 eax, DWORD PTR _AxisInfoIndex$[ebp]
  0004d	c1 e0 04	 shl	 eax, 4
  00050	8b 88 00 00 00
	00		 mov	 ecx, DWORD PTR ?AxisInfo@@3PAUAxisInfo_t@@A[eax]
  00056	51		 push	 ecx
  00057	8b 15 00 00 00
	00		 mov	 edx, DWORD PTR ?joylook_x_option_button@@3PAUUI_OBJECT@@A ; joylook_x_option_button
  0005d	52		 push	 edx
  0005e	a1 00 00 00 00	 mov	 eax, DWORD PTR ?joylook_x_option_button@@3PAUUI_OBJECT@@A ; joylook_x_option_button
  00063	8b 08		 mov	 ecx, DWORD PTR [eax]
  00065	8b 14 8d 00 00
	00 00		 mov	 edx, DWORD PTR ?fn_set_ui_object_text@@3PAP6GXPAUUI_OBJECT@@PBD@ZA[ecx*4]
  0006c	ff d2		 call	 edx

; 2890 : 
; 2891 : 	if (command_line_joylook_joystick_index != oldJoyLookDevice)

  0006e	a1 00 00 00 00	 mov	 eax, DWORD PTR ?command_line_joylook_joystick_index@@3HA ; command_line_joylook_joystick_index
  00073	3b 45 f8	 cmp	 eax, DWORD PTR _oldJoyLookDevice$[ebp]
  00076	74 3f		 je	 SHORT $LN2@notify_joy

; 2892 : 	{
; 2893 : 		set_ui_object_text (joylook_y_option_button, option_joystick_text[0]);

  00078	b8 04 00 00 00	 mov	 eax, 4
  0007d	6b c8 00	 imul	 ecx, eax, 0
  00080	8b 91 00 00 00
	00		 mov	 edx, DWORD PTR ?option_joystick_text@@3PAPBDA[ecx]
  00086	52		 push	 edx
  00087	a1 00 00 00 00	 mov	 eax, DWORD PTR ?joylook_y_option_button@@3PAUUI_OBJECT@@A ; joylook_y_option_button
  0008c	50		 push	 eax
  0008d	8b 0d 00 00 00
	00		 mov	 ecx, DWORD PTR ?joylook_y_option_button@@3PAUUI_OBJECT@@A ; joylook_y_option_button
  00093	8b 11		 mov	 edx, DWORD PTR [ecx]
  00095	8b 04 95 00 00
	00 00		 mov	 eax, DWORD PTR ?fn_set_ui_object_text@@3PAP6GXPAUUI_OBJECT@@PBD@ZA[edx*4]
  0009c	ff d0		 call	 eax

; 2894 : 		setAxisUnused(oldJoyLookDevice,command_line_joylookv_joystick_axis);

  0009e	a1 00 00 00 00	 mov	 eax, DWORD PTR ?command_line_joylookv_joystick_axis@@3HA ; command_line_joylookv_joystick_axis
  000a3	50		 push	 eax
  000a4	8b 4d f8	 mov	 ecx, DWORD PTR _oldJoyLookDevice$[ebp]
  000a7	51		 push	 ecx
  000a8	e8 00 00 00 00	 call	 ?setAxisUnused@@YGXHH@Z	; setAxisUnused

; 2895 : 		command_line_joylookv_joystick_axis = -1;

  000ad	c7 05 00 00 00
	00 ff ff ff ff	 mov	 DWORD PTR ?command_line_joylookv_joystick_axis@@3HA, -1 ; command_line_joylookv_joystick_axis
$LN2@notify_joy:

; 2896 : 	}
; 2897 : 
; 2898 : 	// mouselook would override joystick look, so deactivate that
; 2899 : 	if ((command_line_mouse_look != MOUSELOOK_OFF)&&(command_line_joylook_joystick_index != -1))

  000b7	83 3d 00 00 00
	00 00		 cmp	 DWORD PTR ?command_line_mouse_look@@3HA, 0 ; command_line_mouse_look
  000be	74 3e		 je	 SHORT $LN3@notify_joy
  000c0	83 3d 00 00 00
	00 ff		 cmp	 DWORD PTR ?command_line_joylook_joystick_index@@3HA, -1 ; command_line_joylook_joystick_index
  000c7	74 35		 je	 SHORT $LN3@notify_joy

; 2900 : 	{
; 2901 : 		command_line_mouse_look = MOUSELOOK_OFF;

  000c9	c7 05 00 00 00
	00 00 00 00 00	 mov	 DWORD PTR ?command_line_mouse_look@@3HA, 0 ; command_line_mouse_look

; 2902 : //		set_ui_object_text (mouselook_option_button, option_boolean_text [0]);
; 2903 : 		set_ui_object_text (mouselook_option_button, option_mouselook_text [command_line_mouse_look]);

  000d3	a1 00 00 00 00	 mov	 eax, DWORD PTR ?command_line_mouse_look@@3HA ; command_line_mouse_look
  000d8	8b 0c 85 00 00
	00 00		 mov	 ecx, DWORD PTR ?option_mouselook_text@@3PAPBDA[eax*4]
  000df	51		 push	 ecx
  000e0	8b 15 00 00 00
	00		 mov	 edx, DWORD PTR ?mouselook_option_button@@3PAUUI_OBJECT@@A ; mouselook_option_button
  000e6	52		 push	 edx
  000e7	a1 00 00 00 00	 mov	 eax, DWORD PTR ?mouselook_option_button@@3PAUUI_OBJECT@@A ; mouselook_option_button
  000ec	8b 08		 mov	 ecx, DWORD PTR [eax]
  000ee	8b 14 8d 00 00
	00 00		 mov	 edx, DWORD PTR ?fn_set_ui_object_text@@3PAP6GXPAUUI_OBJECT@@PBD@ZA[ecx*4]
  000f5	ff d2		 call	 edx

; 2904 : 		setTrackIRButton (FALSE);

  000f7	6a 00		 push	 0
  000f9	e8 00 00 00 00	 call	 ?setTrackIRButton@@YGXH@Z ; setTrackIRButton
$LN3@notify_joy:

; 2905 : 	}
; 2906 : 
; 2907 : 	// don't leave text selected
; 2908 : 
; 2909 : 	set_toggle_button_off (obj);

  000fe	8b 45 08	 mov	 eax, DWORD PTR _obj$[ebp]
  00101	50		 push	 eax
  00102	e8 00 00 00 00	 call	 ?set_toggle_button_off@@YGXPAUUI_OBJECT@@@Z ; set_toggle_button_off

; 2910 : }

  00107	5f		 pop	 edi
  00108	5e		 pop	 esi
  00109	5b		 pop	 ebx
  0010a	8b e5		 mov	 esp, ebp
  0010c	5d		 pop	 ebp
  0010d	c2 08 00	 ret	 8
?notify_joylook_x_option_button@@YGXPAUUI_OBJECT@@PAX@Z ENDP ; notify_joylook_x_option_button
_TEXT	ENDS
; Function compile flags: /Odtp /ZI
; File c:\users\nhv90\projects\eech\aphavoc\source\ui_menu\options\op_ctrlr.c
;	COMDAT ?notify_eo_zoom_option_button_right@@YGXPAUUI_OBJECT@@PAX@Z
_TEXT	SEGMENT
_AxisInfoIndex$ = -4					; size = 4
_obj$ = 8						; size = 4
_arg$ = 12						; size = 4
?notify_eo_zoom_option_button_right@@YGXPAUUI_OBJECT@@PAX@Z PROC ; notify_eo_zoom_option_button_right, COMDAT

; 2854 : {

  00000	55		 push	 ebp
  00001	8b ec		 mov	 ebp, esp
  00003	83 ec 44	 sub	 esp, 68			; 00000044H
  00006	53		 push	 ebx
  00007	56		 push	 esi
  00008	57		 push	 edi

; 2855 : 	int
; 2856 : 		AxisInfoIndex;
; 2857 : 
; 2858 : 	AxisInfoIndex = findPreviousUnusedAxis(command_line_eo_zoom_joystick_index,command_line_eo_zoom_joystick_axis);

  00009	a1 00 00 00 00	 mov	 eax, DWORD PTR ?command_line_eo_zoom_joystick_axis@@3HA ; command_line_eo_zoom_joystick_axis
  0000e	50		 push	 eax
  0000f	8b 0d 00 00 00
	00		 mov	 ecx, DWORD PTR ?command_line_eo_zoom_joystick_index@@3HA ; command_line_eo_zoom_joystick_index
  00015	51		 push	 ecx
  00016	e8 00 00 00 00	 call	 ?findPreviousUnusedAxis@@YGHHH@Z ; findPreviousUnusedAxis
  0001b	89 45 fc	 mov	 DWORD PTR _AxisInfoIndex$[ebp], eax

; 2859 : 
; 2860 : 	command_line_eo_zoom_joystick_index = AxisInfo[AxisInfoIndex].device;

  0001e	8b 45 fc	 mov	 eax, DWORD PTR _AxisInfoIndex$[ebp]
  00021	c1 e0 04	 shl	 eax, 4
  00024	8b 88 04 00 00
	00		 mov	 ecx, DWORD PTR ?AxisInfo@@3PAUAxisInfo_t@@A[eax+4]
  0002a	89 0d 00 00 00
	00		 mov	 DWORD PTR ?command_line_eo_zoom_joystick_index@@3HA, ecx ; command_line_eo_zoom_joystick_index

; 2861 : 	command_line_eo_zoom_joystick_axis = AxisInfo[AxisInfoIndex].axis;

  00030	8b 45 fc	 mov	 eax, DWORD PTR _AxisInfoIndex$[ebp]
  00033	c1 e0 04	 shl	 eax, 4
  00036	8b 88 08 00 00
	00		 mov	 ecx, DWORD PTR ?AxisInfo@@3PAUAxisInfo_t@@A[eax+8]
  0003c	89 0d 00 00 00
	00		 mov	 DWORD PTR ?command_line_eo_zoom_joystick_axis@@3HA, ecx ; command_line_eo_zoom_joystick_axis

; 2862 : 
; 2863 : 	set_ui_object_text (eo_zoom_option_button, AxisInfo[AxisInfoIndex].AxisName);

  00042	8b 45 fc	 mov	 eax, DWORD PTR _AxisInfoIndex$[ebp]
  00045	c1 e0 04	 shl	 eax, 4
  00048	8b 88 00 00 00
	00		 mov	 ecx, DWORD PTR ?AxisInfo@@3PAUAxisInfo_t@@A[eax]
  0004e	51		 push	 ecx
  0004f	8b 15 00 00 00
	00		 mov	 edx, DWORD PTR ?eo_zoom_option_button@@3PAUUI_OBJECT@@A ; eo_zoom_option_button
  00055	52		 push	 edx
  00056	a1 00 00 00 00	 mov	 eax, DWORD PTR ?eo_zoom_option_button@@3PAUUI_OBJECT@@A ; eo_zoom_option_button
  0005b	8b 08		 mov	 ecx, DWORD PTR [eax]
  0005d	8b 14 8d 00 00
	00 00		 mov	 edx, DWORD PTR ?fn_set_ui_object_text@@3PAP6GXPAUUI_OBJECT@@PBD@ZA[ecx*4]
  00064	ff d2		 call	 edx

; 2864 : 
; 2865 : 	// ugh
; 2866 : 	notify_show_controller_page ();

  00066	e8 00 00 00 00	 call	 ?notify_show_controller_page@@YGXXZ ; notify_show_controller_page

; 2867 : 
; 2868 : 	// don't leave text selected
; 2869 : 	set_toggle_button_off (obj);

  0006b	8b 45 08	 mov	 eax, DWORD PTR _obj$[ebp]
  0006e	50		 push	 eax
  0006f	e8 00 00 00 00	 call	 ?set_toggle_button_off@@YGXPAUUI_OBJECT@@@Z ; set_toggle_button_off

; 2870 : }

  00074	5f		 pop	 edi
  00075	5e		 pop	 esi
  00076	5b		 pop	 ebx
  00077	8b e5		 mov	 esp, ebp
  00079	5d		 pop	 ebp
  0007a	c2 08 00	 ret	 8
?notify_eo_zoom_option_button_right@@YGXPAUUI_OBJECT@@PAX@Z ENDP ; notify_eo_zoom_option_button_right
_TEXT	ENDS
; Function compile flags: /Odtp /ZI
; File c:\users\nhv90\projects\eech\aphavoc\source\ui_menu\options\op_ctrlr.c
;	COMDAT ?notify_eo_zoom_option_button@@YGXPAUUI_OBJECT@@PAX@Z
_TEXT	SEGMENT
_AxisInfoIndex$ = -4					; size = 4
_obj$ = 8						; size = 4
_arg$ = 12						; size = 4
?notify_eo_zoom_option_button@@YGXPAUUI_OBJECT@@PAX@Z PROC ; notify_eo_zoom_option_button, COMDAT

; 2837 : {

  00000	55		 push	 ebp
  00001	8b ec		 mov	 ebp, esp
  00003	83 ec 44	 sub	 esp, 68			; 00000044H
  00006	53		 push	 ebx
  00007	56		 push	 esi
  00008	57		 push	 edi

; 2838 : 	int
; 2839 : 		AxisInfoIndex;
; 2840 : 
; 2841 : 	AxisInfoIndex = findNextUnusedAxis(command_line_eo_zoom_joystick_index,command_line_eo_zoom_joystick_axis);

  00009	a1 00 00 00 00	 mov	 eax, DWORD PTR ?command_line_eo_zoom_joystick_axis@@3HA ; command_line_eo_zoom_joystick_axis
  0000e	50		 push	 eax
  0000f	8b 0d 00 00 00
	00		 mov	 ecx, DWORD PTR ?command_line_eo_zoom_joystick_index@@3HA ; command_line_eo_zoom_joystick_index
  00015	51		 push	 ecx
  00016	e8 00 00 00 00	 call	 ?findNextUnusedAxis@@YGHHH@Z ; findNextUnusedAxis
  0001b	89 45 fc	 mov	 DWORD PTR _AxisInfoIndex$[ebp], eax

; 2842 : 
; 2843 : 	command_line_eo_zoom_joystick_index = AxisInfo[AxisInfoIndex].device;

  0001e	8b 45 fc	 mov	 eax, DWORD PTR _AxisInfoIndex$[ebp]
  00021	c1 e0 04	 shl	 eax, 4
  00024	8b 88 04 00 00
	00		 mov	 ecx, DWORD PTR ?AxisInfo@@3PAUAxisInfo_t@@A[eax+4]
  0002a	89 0d 00 00 00
	00		 mov	 DWORD PTR ?command_line_eo_zoom_joystick_index@@3HA, ecx ; command_line_eo_zoom_joystick_index

; 2844 : 	command_line_eo_zoom_joystick_axis = AxisInfo[AxisInfoIndex].axis;

  00030	8b 45 fc	 mov	 eax, DWORD PTR _AxisInfoIndex$[ebp]
  00033	c1 e0 04	 shl	 eax, 4
  00036	8b 88 08 00 00
	00		 mov	 ecx, DWORD PTR ?AxisInfo@@3PAUAxisInfo_t@@A[eax+8]
  0003c	89 0d 00 00 00
	00		 mov	 DWORD PTR ?command_line_eo_zoom_joystick_axis@@3HA, ecx ; command_line_eo_zoom_joystick_axis

; 2845 : 
; 2846 : 	set_ui_object_text (eo_zoom_option_button, AxisInfo[AxisInfoIndex].AxisName);

  00042	8b 45 fc	 mov	 eax, DWORD PTR _AxisInfoIndex$[ebp]
  00045	c1 e0 04	 shl	 eax, 4
  00048	8b 88 00 00 00
	00		 mov	 ecx, DWORD PTR ?AxisInfo@@3PAUAxisInfo_t@@A[eax]
  0004e	51		 push	 ecx
  0004f	8b 15 00 00 00
	00		 mov	 edx, DWORD PTR ?eo_zoom_option_button@@3PAUUI_OBJECT@@A ; eo_zoom_option_button
  00055	52		 push	 edx
  00056	a1 00 00 00 00	 mov	 eax, DWORD PTR ?eo_zoom_option_button@@3PAUUI_OBJECT@@A ; eo_zoom_option_button
  0005b	8b 08		 mov	 ecx, DWORD PTR [eax]
  0005d	8b 14 8d 00 00
	00 00		 mov	 edx, DWORD PTR ?fn_set_ui_object_text@@3PAP6GXPAUUI_OBJECT@@PBD@ZA[ecx*4]
  00064	ff d2		 call	 edx

; 2847 : 
; 2848 : 	// don't leave text selected
; 2849 : 
; 2850 : 	set_toggle_button_off (obj);

  00066	8b 45 08	 mov	 eax, DWORD PTR _obj$[ebp]
  00069	50		 push	 eax
  0006a	e8 00 00 00 00	 call	 ?set_toggle_button_off@@YGXPAUUI_OBJECT@@@Z ; set_toggle_button_off

; 2851 : }

  0006f	5f		 pop	 edi
  00070	5e		 pop	 esi
  00071	5b		 pop	 ebx
  00072	8b e5		 mov	 esp, ebp
  00074	5d		 pop	 ebp
  00075	c2 08 00	 ret	 8
?notify_eo_zoom_option_button@@YGXPAUUI_OBJECT@@PAX@Z ENDP ; notify_eo_zoom_option_button
_TEXT	ENDS
; Function compile flags: /Odtp /ZI
; File c:\users\nhv90\projects\eech\aphavoc\source\ui_menu\options\op_ctrlr.c
;	COMDAT ?notify_eo_pan_y_option_button_right@@YGXPAUUI_OBJECT@@PAX@Z
_TEXT	SEGMENT
_AxisInfoIndex$ = -4					; size = 4
_obj$ = 8						; size = 4
_arg$ = 12						; size = 4
?notify_eo_pan_y_option_button_right@@YGXPAUUI_OBJECT@@PAX@Z PROC ; notify_eo_pan_y_option_button_right, COMDAT

; 2815 : {

  00000	55		 push	 ebp
  00001	8b ec		 mov	 ebp, esp
  00003	83 ec 44	 sub	 esp, 68			; 00000044H
  00006	53		 push	 ebx
  00007	56		 push	 esi
  00008	57		 push	 edi

; 2816 : 	int
; 2817 : 		AxisInfoIndex;
; 2818 : 
; 2819 : 	AxisInfoIndex = findPreviousUnusedDeviceAxis(command_line_eo_pan_joystick_index,command_line_eo_pan_vertical_joystick_axis);

  00009	a1 00 00 00 00	 mov	 eax, DWORD PTR ?command_line_eo_pan_vertical_joystick_axis@@3HA ; command_line_eo_pan_vertical_joystick_axis
  0000e	50		 push	 eax
  0000f	8b 0d 00 00 00
	00		 mov	 ecx, DWORD PTR ?command_line_eo_pan_joystick_index@@3HA ; command_line_eo_pan_joystick_index
  00015	51		 push	 ecx
  00016	e8 00 00 00 00	 call	 ?findPreviousUnusedDeviceAxis@@YGHHH@Z ; findPreviousUnusedDeviceAxis
  0001b	89 45 fc	 mov	 DWORD PTR _AxisInfoIndex$[ebp], eax

; 2820 : 
; 2821 : 	command_line_eo_pan_vertical_joystick_axis = AxisInfo[AxisInfoIndex].axis;

  0001e	8b 45 fc	 mov	 eax, DWORD PTR _AxisInfoIndex$[ebp]
  00021	c1 e0 04	 shl	 eax, 4
  00024	8b 88 08 00 00
	00		 mov	 ecx, DWORD PTR ?AxisInfo@@3PAUAxisInfo_t@@A[eax+8]
  0002a	89 0d 00 00 00
	00		 mov	 DWORD PTR ?command_line_eo_pan_vertical_joystick_axis@@3HA, ecx ; command_line_eo_pan_vertical_joystick_axis

; 2822 : 
; 2823 : 	set_ui_object_text (eo_pan_y_option_button, AxisInfo[AxisInfoIndex].AxisName);

  00030	8b 45 fc	 mov	 eax, DWORD PTR _AxisInfoIndex$[ebp]
  00033	c1 e0 04	 shl	 eax, 4
  00036	8b 88 00 00 00
	00		 mov	 ecx, DWORD PTR ?AxisInfo@@3PAUAxisInfo_t@@A[eax]
  0003c	51		 push	 ecx
  0003d	8b 15 00 00 00
	00		 mov	 edx, DWORD PTR ?eo_pan_y_option_button@@3PAUUI_OBJECT@@A ; eo_pan_y_option_button
  00043	52		 push	 edx
  00044	a1 00 00 00 00	 mov	 eax, DWORD PTR ?eo_pan_y_option_button@@3PAUUI_OBJECT@@A ; eo_pan_y_option_button
  00049	8b 08		 mov	 ecx, DWORD PTR [eax]
  0004b	8b 14 8d 00 00
	00 00		 mov	 edx, DWORD PTR ?fn_set_ui_object_text@@3PAP6GXPAUUI_OBJECT@@PBD@ZA[ecx*4]
  00052	ff d2		 call	 edx

; 2824 : 
; 2825 : 	// ugh
; 2826 : 	notify_show_controller_page ();

  00054	e8 00 00 00 00	 call	 ?notify_show_controller_page@@YGXXZ ; notify_show_controller_page

; 2827 : 
; 2828 : 	// don't leave text selected
; 2829 : 	set_toggle_button_off (obj);

  00059	8b 45 08	 mov	 eax, DWORD PTR _obj$[ebp]
  0005c	50		 push	 eax
  0005d	e8 00 00 00 00	 call	 ?set_toggle_button_off@@YGXPAUUI_OBJECT@@@Z ; set_toggle_button_off

; 2830 : }

  00062	5f		 pop	 edi
  00063	5e		 pop	 esi
  00064	5b		 pop	 ebx
  00065	8b e5		 mov	 esp, ebp
  00067	5d		 pop	 ebp
  00068	c2 08 00	 ret	 8
?notify_eo_pan_y_option_button_right@@YGXPAUUI_OBJECT@@PAX@Z ENDP ; notify_eo_pan_y_option_button_right
_TEXT	ENDS
; Function compile flags: /Odtp /ZI
; File c:\users\nhv90\projects\eech\aphavoc\source\ui_menu\options\op_ctrlr.c
;	COMDAT ?notify_eo_pan_y_option_button@@YGXPAUUI_OBJECT@@PAX@Z
_TEXT	SEGMENT
_AxisInfoIndex$ = -4					; size = 4
_obj$ = 8						; size = 4
_arg$ = 12						; size = 4
?notify_eo_pan_y_option_button@@YGXPAUUI_OBJECT@@PAX@Z PROC ; notify_eo_pan_y_option_button, COMDAT

; 2799 : {

  00000	55		 push	 ebp
  00001	8b ec		 mov	 ebp, esp
  00003	83 ec 44	 sub	 esp, 68			; 00000044H
  00006	53		 push	 ebx
  00007	56		 push	 esi
  00008	57		 push	 edi

; 2800 : 	int
; 2801 : 		AxisInfoIndex;
; 2802 : 
; 2803 : 	AxisInfoIndex = findNextUnusedDeviceAxis(command_line_eo_pan_joystick_index,command_line_eo_pan_vertical_joystick_axis);

  00009	a1 00 00 00 00	 mov	 eax, DWORD PTR ?command_line_eo_pan_vertical_joystick_axis@@3HA ; command_line_eo_pan_vertical_joystick_axis
  0000e	50		 push	 eax
  0000f	8b 0d 00 00 00
	00		 mov	 ecx, DWORD PTR ?command_line_eo_pan_joystick_index@@3HA ; command_line_eo_pan_joystick_index
  00015	51		 push	 ecx
  00016	e8 00 00 00 00	 call	 ?findNextUnusedDeviceAxis@@YGHHH@Z ; findNextUnusedDeviceAxis
  0001b	89 45 fc	 mov	 DWORD PTR _AxisInfoIndex$[ebp], eax

; 2804 : 
; 2805 : 	command_line_eo_pan_vertical_joystick_axis = AxisInfo[AxisInfoIndex].axis;

  0001e	8b 45 fc	 mov	 eax, DWORD PTR _AxisInfoIndex$[ebp]
  00021	c1 e0 04	 shl	 eax, 4
  00024	8b 88 08 00 00
	00		 mov	 ecx, DWORD PTR ?AxisInfo@@3PAUAxisInfo_t@@A[eax+8]
  0002a	89 0d 00 00 00
	00		 mov	 DWORD PTR ?command_line_eo_pan_vertical_joystick_axis@@3HA, ecx ; command_line_eo_pan_vertical_joystick_axis

; 2806 : 
; 2807 : 	set_ui_object_text (eo_pan_y_option_button, AxisInfo[AxisInfoIndex].AxisName);

  00030	8b 45 fc	 mov	 eax, DWORD PTR _AxisInfoIndex$[ebp]
  00033	c1 e0 04	 shl	 eax, 4
  00036	8b 88 00 00 00
	00		 mov	 ecx, DWORD PTR ?AxisInfo@@3PAUAxisInfo_t@@A[eax]
  0003c	51		 push	 ecx
  0003d	8b 15 00 00 00
	00		 mov	 edx, DWORD PTR ?eo_pan_y_option_button@@3PAUUI_OBJECT@@A ; eo_pan_y_option_button
  00043	52		 push	 edx
  00044	a1 00 00 00 00	 mov	 eax, DWORD PTR ?eo_pan_y_option_button@@3PAUUI_OBJECT@@A ; eo_pan_y_option_button
  00049	8b 08		 mov	 ecx, DWORD PTR [eax]
  0004b	8b 14 8d 00 00
	00 00		 mov	 edx, DWORD PTR ?fn_set_ui_object_text@@3PAP6GXPAUUI_OBJECT@@PBD@ZA[ecx*4]
  00052	ff d2		 call	 edx

; 2808 : 
; 2809 : 	// don't leave text selected
; 2810 : 
; 2811 : 	set_toggle_button_off (obj);

  00054	8b 45 08	 mov	 eax, DWORD PTR _obj$[ebp]
  00057	50		 push	 eax
  00058	e8 00 00 00 00	 call	 ?set_toggle_button_off@@YGXPAUUI_OBJECT@@@Z ; set_toggle_button_off

; 2812 : }

  0005d	5f		 pop	 edi
  0005e	5e		 pop	 esi
  0005f	5b		 pop	 ebx
  00060	8b e5		 mov	 esp, ebp
  00062	5d		 pop	 ebp
  00063	c2 08 00	 ret	 8
?notify_eo_pan_y_option_button@@YGXPAUUI_OBJECT@@PAX@Z ENDP ; notify_eo_pan_y_option_button
_TEXT	ENDS
; Function compile flags: /Odtp /ZI
; File c:\users\nhv90\projects\eech\aphavoc\source\ui_menu\options\op_ctrlr.c
;	COMDAT ?notify_eo_pan_x_option_button_right@@YGXPAUUI_OBJECT@@PAX@Z
_TEXT	SEGMENT
_oldEOPanDevice$ = -8					; size = 4
_AxisInfoIndex$ = -4					; size = 4
_obj$ = 8						; size = 4
_arg$ = 12						; size = 4
?notify_eo_pan_x_option_button_right@@YGXPAUUI_OBJECT@@PAX@Z PROC ; notify_eo_pan_x_option_button_right, COMDAT

; 2766 : {

  00000	55		 push	 ebp
  00001	8b ec		 mov	 ebp, esp
  00003	83 ec 48	 sub	 esp, 72			; 00000048H
  00006	53		 push	 ebx
  00007	56		 push	 esi
  00008	57		 push	 edi

; 2767 : 	int
; 2768 : 		AxisInfoIndex,
; 2769 : 		oldEOPanDevice;
; 2770 : 
; 2771 : 	oldEOPanDevice = command_line_eo_pan_joystick_index;

  00009	a1 00 00 00 00	 mov	 eax, DWORD PTR ?command_line_eo_pan_joystick_index@@3HA ; command_line_eo_pan_joystick_index
  0000e	89 45 f8	 mov	 DWORD PTR _oldEOPanDevice$[ebp], eax

; 2772 : 
; 2773 : 	AxisInfoIndex = findPreviousUnusedAxis(command_line_eo_pan_joystick_index,command_line_eo_pan_horizontal_joystick_axis);

  00011	a1 00 00 00 00	 mov	 eax, DWORD PTR ?command_line_eo_pan_horizontal_joystick_axis@@3HA ; command_line_eo_pan_horizontal_joystick_axis
  00016	50		 push	 eax
  00017	8b 0d 00 00 00
	00		 mov	 ecx, DWORD PTR ?command_line_eo_pan_joystick_index@@3HA ; command_line_eo_pan_joystick_index
  0001d	51		 push	 ecx
  0001e	e8 00 00 00 00	 call	 ?findPreviousUnusedAxis@@YGHHH@Z ; findPreviousUnusedAxis
  00023	89 45 fc	 mov	 DWORD PTR _AxisInfoIndex$[ebp], eax

; 2774 : 
; 2775 : 	command_line_eo_pan_joystick_index = AxisInfo[AxisInfoIndex].device;

  00026	8b 45 fc	 mov	 eax, DWORD PTR _AxisInfoIndex$[ebp]
  00029	c1 e0 04	 shl	 eax, 4
  0002c	8b 88 04 00 00
	00		 mov	 ecx, DWORD PTR ?AxisInfo@@3PAUAxisInfo_t@@A[eax+4]
  00032	89 0d 00 00 00
	00		 mov	 DWORD PTR ?command_line_eo_pan_joystick_index@@3HA, ecx ; command_line_eo_pan_joystick_index

; 2776 : 	command_line_eo_pan_horizontal_joystick_axis = AxisInfo[AxisInfoIndex].axis;

  00038	8b 45 fc	 mov	 eax, DWORD PTR _AxisInfoIndex$[ebp]
  0003b	c1 e0 04	 shl	 eax, 4
  0003e	8b 88 08 00 00
	00		 mov	 ecx, DWORD PTR ?AxisInfo@@3PAUAxisInfo_t@@A[eax+8]
  00044	89 0d 00 00 00
	00		 mov	 DWORD PTR ?command_line_eo_pan_horizontal_joystick_axis@@3HA, ecx ; command_line_eo_pan_horizontal_joystick_axis

; 2777 : 
; 2778 : 	set_ui_object_text (eo_pan_x_option_button, AxisInfo[AxisInfoIndex].AxisName);

  0004a	8b 45 fc	 mov	 eax, DWORD PTR _AxisInfoIndex$[ebp]
  0004d	c1 e0 04	 shl	 eax, 4
  00050	8b 88 00 00 00
	00		 mov	 ecx, DWORD PTR ?AxisInfo@@3PAUAxisInfo_t@@A[eax]
  00056	51		 push	 ecx
  00057	8b 15 00 00 00
	00		 mov	 edx, DWORD PTR ?eo_pan_x_option_button@@3PAUUI_OBJECT@@A ; eo_pan_x_option_button
  0005d	52		 push	 edx
  0005e	a1 00 00 00 00	 mov	 eax, DWORD PTR ?eo_pan_x_option_button@@3PAUUI_OBJECT@@A ; eo_pan_x_option_button
  00063	8b 08		 mov	 ecx, DWORD PTR [eax]
  00065	8b 14 8d 00 00
	00 00		 mov	 edx, DWORD PTR ?fn_set_ui_object_text@@3PAP6GXPAUUI_OBJECT@@PBD@ZA[ecx*4]
  0006c	ff d2		 call	 edx

; 2779 : 
; 2780 : 	if (command_line_eo_pan_joystick_index != oldEOPanDevice)

  0006e	a1 00 00 00 00	 mov	 eax, DWORD PTR ?command_line_eo_pan_joystick_index@@3HA ; command_line_eo_pan_joystick_index
  00073	3b 45 f8	 cmp	 eax, DWORD PTR _oldEOPanDevice$[ebp]
  00076	74 3f		 je	 SHORT $LN2@notify_eo_

; 2781 : 	{
; 2782 : 		set_ui_object_text (eo_pan_y_option_button, option_joystick_text[0]);

  00078	b8 04 00 00 00	 mov	 eax, 4
  0007d	6b c8 00	 imul	 ecx, eax, 0
  00080	8b 91 00 00 00
	00		 mov	 edx, DWORD PTR ?option_joystick_text@@3PAPBDA[ecx]
  00086	52		 push	 edx
  00087	a1 00 00 00 00	 mov	 eax, DWORD PTR ?eo_pan_y_option_button@@3PAUUI_OBJECT@@A ; eo_pan_y_option_button
  0008c	50		 push	 eax
  0008d	8b 0d 00 00 00
	00		 mov	 ecx, DWORD PTR ?eo_pan_y_option_button@@3PAUUI_OBJECT@@A ; eo_pan_y_option_button
  00093	8b 11		 mov	 edx, DWORD PTR [ecx]
  00095	8b 04 95 00 00
	00 00		 mov	 eax, DWORD PTR ?fn_set_ui_object_text@@3PAP6GXPAUUI_OBJECT@@PBD@ZA[edx*4]
  0009c	ff d0		 call	 eax

; 2783 : 		setAxisUnused(oldEOPanDevice,command_line_eo_pan_vertical_joystick_axis);

  0009e	a1 00 00 00 00	 mov	 eax, DWORD PTR ?command_line_eo_pan_vertical_joystick_axis@@3HA ; command_line_eo_pan_vertical_joystick_axis
  000a3	50		 push	 eax
  000a4	8b 4d f8	 mov	 ecx, DWORD PTR _oldEOPanDevice$[ebp]
  000a7	51		 push	 ecx
  000a8	e8 00 00 00 00	 call	 ?setAxisUnused@@YGXHH@Z	; setAxisUnused

; 2784 : 		command_line_eo_pan_vertical_joystick_axis = -1;

  000ad	c7 05 00 00 00
	00 ff ff ff ff	 mov	 DWORD PTR ?command_line_eo_pan_vertical_joystick_axis@@3HA, -1 ; command_line_eo_pan_vertical_joystick_axis
$LN2@notify_eo_:

; 2785 : 	}
; 2786 : 
; 2787 : 	// ugh
; 2788 : 	notify_show_controller_page ();

  000b7	e8 00 00 00 00	 call	 ?notify_show_controller_page@@YGXXZ ; notify_show_controller_page

; 2789 : 
; 2790 : 	// don't leave text selected
; 2791 : 	set_toggle_button_off (obj);

  000bc	8b 45 08	 mov	 eax, DWORD PTR _obj$[ebp]
  000bf	50		 push	 eax
  000c0	e8 00 00 00 00	 call	 ?set_toggle_button_off@@YGXPAUUI_OBJECT@@@Z ; set_toggle_button_off

; 2792 : }

  000c5	5f		 pop	 edi
  000c6	5e		 pop	 esi
  000c7	5b		 pop	 ebx
  000c8	8b e5		 mov	 esp, ebp
  000ca	5d		 pop	 ebp
  000cb	c2 08 00	 ret	 8
?notify_eo_pan_x_option_button_right@@YGXPAUUI_OBJECT@@PAX@Z ENDP ; notify_eo_pan_x_option_button_right
_TEXT	ENDS
; Function compile flags: /Odtp /ZI
; File c:\users\nhv90\projects\eech\aphavoc\source\ui_menu\options\op_ctrlr.c
;	COMDAT ?notify_eo_pan_x_option_button@@YGXPAUUI_OBJECT@@PAX@Z
_TEXT	SEGMENT
_oldEOPanDevice$ = -8					; size = 4
_AxisInfoIndex$ = -4					; size = 4
_obj$ = 8						; size = 4
_arg$ = 12						; size = 4
?notify_eo_pan_x_option_button@@YGXPAUUI_OBJECT@@PAX@Z PROC ; notify_eo_pan_x_option_button, COMDAT

; 2739 : {

  00000	55		 push	 ebp
  00001	8b ec		 mov	 ebp, esp
  00003	83 ec 48	 sub	 esp, 72			; 00000048H
  00006	53		 push	 ebx
  00007	56		 push	 esi
  00008	57		 push	 edi

; 2740 : 	int
; 2741 : 		AxisInfoIndex,
; 2742 : 		oldEOPanDevice;
; 2743 : 
; 2744 : 	oldEOPanDevice = command_line_eo_pan_joystick_index;

  00009	a1 00 00 00 00	 mov	 eax, DWORD PTR ?command_line_eo_pan_joystick_index@@3HA ; command_line_eo_pan_joystick_index
  0000e	89 45 f8	 mov	 DWORD PTR _oldEOPanDevice$[ebp], eax

; 2745 : 
; 2746 : 	AxisInfoIndex = findNextUnusedAxis(command_line_eo_pan_joystick_index,command_line_eo_pan_horizontal_joystick_axis);

  00011	a1 00 00 00 00	 mov	 eax, DWORD PTR ?command_line_eo_pan_horizontal_joystick_axis@@3HA ; command_line_eo_pan_horizontal_joystick_axis
  00016	50		 push	 eax
  00017	8b 0d 00 00 00
	00		 mov	 ecx, DWORD PTR ?command_line_eo_pan_joystick_index@@3HA ; command_line_eo_pan_joystick_index
  0001d	51		 push	 ecx
  0001e	e8 00 00 00 00	 call	 ?findNextUnusedAxis@@YGHHH@Z ; findNextUnusedAxis
  00023	89 45 fc	 mov	 DWORD PTR _AxisInfoIndex$[ebp], eax

; 2747 : 
; 2748 : 	command_line_eo_pan_joystick_index = AxisInfo[AxisInfoIndex].device;

  00026	8b 45 fc	 mov	 eax, DWORD PTR _AxisInfoIndex$[ebp]
  00029	c1 e0 04	 shl	 eax, 4
  0002c	8b 88 04 00 00
	00		 mov	 ecx, DWORD PTR ?AxisInfo@@3PAUAxisInfo_t@@A[eax+4]
  00032	89 0d 00 00 00
	00		 mov	 DWORD PTR ?command_line_eo_pan_joystick_index@@3HA, ecx ; command_line_eo_pan_joystick_index

; 2749 : 	command_line_eo_pan_horizontal_joystick_axis = AxisInfo[AxisInfoIndex].axis;

  00038	8b 45 fc	 mov	 eax, DWORD PTR _AxisInfoIndex$[ebp]
  0003b	c1 e0 04	 shl	 eax, 4
  0003e	8b 88 08 00 00
	00		 mov	 ecx, DWORD PTR ?AxisInfo@@3PAUAxisInfo_t@@A[eax+8]
  00044	89 0d 00 00 00
	00		 mov	 DWORD PTR ?command_line_eo_pan_horizontal_joystick_axis@@3HA, ecx ; command_line_eo_pan_horizontal_joystick_axis

; 2750 : 
; 2751 : 	set_ui_object_text (eo_pan_x_option_button, AxisInfo[AxisInfoIndex].AxisName);

  0004a	8b 45 fc	 mov	 eax, DWORD PTR _AxisInfoIndex$[ebp]
  0004d	c1 e0 04	 shl	 eax, 4
  00050	8b 88 00 00 00
	00		 mov	 ecx, DWORD PTR ?AxisInfo@@3PAUAxisInfo_t@@A[eax]
  00056	51		 push	 ecx
  00057	8b 15 00 00 00
	00		 mov	 edx, DWORD PTR ?eo_pan_x_option_button@@3PAUUI_OBJECT@@A ; eo_pan_x_option_button
  0005d	52		 push	 edx
  0005e	a1 00 00 00 00	 mov	 eax, DWORD PTR ?eo_pan_x_option_button@@3PAUUI_OBJECT@@A ; eo_pan_x_option_button
  00063	8b 08		 mov	 ecx, DWORD PTR [eax]
  00065	8b 14 8d 00 00
	00 00		 mov	 edx, DWORD PTR ?fn_set_ui_object_text@@3PAP6GXPAUUI_OBJECT@@PBD@ZA[ecx*4]
  0006c	ff d2		 call	 edx

; 2752 : 
; 2753 : 	if (command_line_eo_pan_joystick_index != oldEOPanDevice)

  0006e	a1 00 00 00 00	 mov	 eax, DWORD PTR ?command_line_eo_pan_joystick_index@@3HA ; command_line_eo_pan_joystick_index
  00073	3b 45 f8	 cmp	 eax, DWORD PTR _oldEOPanDevice$[ebp]
  00076	74 3f		 je	 SHORT $LN2@notify_eo_

; 2754 : 	{
; 2755 : 		set_ui_object_text (eo_pan_y_option_button, option_joystick_text[0]);

  00078	b8 04 00 00 00	 mov	 eax, 4
  0007d	6b c8 00	 imul	 ecx, eax, 0
  00080	8b 91 00 00 00
	00		 mov	 edx, DWORD PTR ?option_joystick_text@@3PAPBDA[ecx]
  00086	52		 push	 edx
  00087	a1 00 00 00 00	 mov	 eax, DWORD PTR ?eo_pan_y_option_button@@3PAUUI_OBJECT@@A ; eo_pan_y_option_button
  0008c	50		 push	 eax
  0008d	8b 0d 00 00 00
	00		 mov	 ecx, DWORD PTR ?eo_pan_y_option_button@@3PAUUI_OBJECT@@A ; eo_pan_y_option_button
  00093	8b 11		 mov	 edx, DWORD PTR [ecx]
  00095	8b 04 95 00 00
	00 00		 mov	 eax, DWORD PTR ?fn_set_ui_object_text@@3PAP6GXPAUUI_OBJECT@@PBD@ZA[edx*4]
  0009c	ff d0		 call	 eax

; 2756 : 		setAxisUnused(oldEOPanDevice,command_line_eo_pan_vertical_joystick_axis);

  0009e	a1 00 00 00 00	 mov	 eax, DWORD PTR ?command_line_eo_pan_vertical_joystick_axis@@3HA ; command_line_eo_pan_vertical_joystick_axis
  000a3	50		 push	 eax
  000a4	8b 4d f8	 mov	 ecx, DWORD PTR _oldEOPanDevice$[ebp]
  000a7	51		 push	 ecx
  000a8	e8 00 00 00 00	 call	 ?setAxisUnused@@YGXHH@Z	; setAxisUnused

; 2757 : 		command_line_eo_pan_vertical_joystick_axis = -1;

  000ad	c7 05 00 00 00
	00 ff ff ff ff	 mov	 DWORD PTR ?command_line_eo_pan_vertical_joystick_axis@@3HA, -1 ; command_line_eo_pan_vertical_joystick_axis
$LN2@notify_eo_:

; 2758 : 	}
; 2759 : 
; 2760 : 	// don't leave text selected
; 2761 : 
; 2762 : 	set_toggle_button_off (obj);

  000b7	8b 45 08	 mov	 eax, DWORD PTR _obj$[ebp]
  000ba	50		 push	 eax
  000bb	e8 00 00 00 00	 call	 ?set_toggle_button_off@@YGXPAUUI_OBJECT@@@Z ; set_toggle_button_off

; 2763 : }

  000c0	5f		 pop	 edi
  000c1	5e		 pop	 esi
  000c2	5b		 pop	 ebx
  000c3	8b e5		 mov	 esp, ebp
  000c5	5d		 pop	 ebp
  000c6	c2 08 00	 ret	 8
?notify_eo_pan_x_option_button@@YGXPAUUI_OBJECT@@PAX@Z ENDP ; notify_eo_pan_x_option_button
_TEXT	ENDS
; Function compile flags: /Odtp /ZI
; File c:\users\nhv90\projects\eech\aphavoc\source\ui_menu\options\op_ctrlr.c
;	COMDAT ?notify_cyclic_y_option_button_right@@YGXPAUUI_OBJECT@@PAX@Z
_TEXT	SEGMENT
_AxisInfoIndex$ = -4					; size = 4
_obj$ = 8						; size = 4
_arg$ = 12						; size = 4
?notify_cyclic_y_option_button_right@@YGXPAUUI_OBJECT@@PAX@Z PROC ; notify_cyclic_y_option_button_right, COMDAT

; 2536 : {

  00000	55		 push	 ebp
  00001	8b ec		 mov	 ebp, esp
  00003	83 ec 44	 sub	 esp, 68			; 00000044H
  00006	53		 push	 ebx
  00007	56		 push	 esi
  00008	57		 push	 edi

; 2537 : 	int AxisInfoIndex;
; 2538 : 
; 2539 : 	AxisInfoIndex = findPreviousUnusedDeviceAxis(command_line_cyclic_joystick_index,command_line_cyclic_joystick_y_axis);

  00009	a1 00 00 00 00	 mov	 eax, DWORD PTR ?command_line_cyclic_joystick_y_axis@@3HA ; command_line_cyclic_joystick_y_axis
  0000e	50		 push	 eax
  0000f	8b 0d 00 00 00
	00		 mov	 ecx, DWORD PTR ?command_line_cyclic_joystick_index@@3HA ; command_line_cyclic_joystick_index
  00015	51		 push	 ecx
  00016	e8 00 00 00 00	 call	 ?findPreviousUnusedDeviceAxis@@YGHHH@Z ; findPreviousUnusedDeviceAxis
  0001b	89 45 fc	 mov	 DWORD PTR _AxisInfoIndex$[ebp], eax

; 2540 : 
; 2541 : 	command_line_cyclic_joystick_y_axis = AxisInfo[AxisInfoIndex].axis;

  0001e	8b 45 fc	 mov	 eax, DWORD PTR _AxisInfoIndex$[ebp]
  00021	c1 e0 04	 shl	 eax, 4
  00024	8b 88 08 00 00
	00		 mov	 ecx, DWORD PTR ?AxisInfo@@3PAUAxisInfo_t@@A[eax+8]
  0002a	89 0d 00 00 00
	00		 mov	 DWORD PTR ?command_line_cyclic_joystick_y_axis@@3HA, ecx ; command_line_cyclic_joystick_y_axis

; 2542 : 
; 2543 : 	set_ui_object_text (cyclic_y_option_button, AxisInfo[AxisInfoIndex].AxisName);

  00030	8b 45 fc	 mov	 eax, DWORD PTR _AxisInfoIndex$[ebp]
  00033	c1 e0 04	 shl	 eax, 4
  00036	8b 88 00 00 00
	00		 mov	 ecx, DWORD PTR ?AxisInfo@@3PAUAxisInfo_t@@A[eax]
  0003c	51		 push	 ecx
  0003d	8b 15 00 00 00
	00		 mov	 edx, DWORD PTR ?cyclic_y_option_button@@3PAUUI_OBJECT@@A ; cyclic_y_option_button
  00043	52		 push	 edx
  00044	a1 00 00 00 00	 mov	 eax, DWORD PTR ?cyclic_y_option_button@@3PAUUI_OBJECT@@A ; cyclic_y_option_button
  00049	8b 08		 mov	 ecx, DWORD PTR [eax]
  0004b	8b 14 8d 00 00
	00 00		 mov	 edx, DWORD PTR ?fn_set_ui_object_text@@3PAP6GXPAUUI_OBJECT@@PBD@ZA[ecx*4]
  00052	ff d2		 call	 edx

; 2544 : 
; 2545 : 	// ugh
; 2546 : 	notify_show_controller_page ();

  00054	e8 00 00 00 00	 call	 ?notify_show_controller_page@@YGXXZ ; notify_show_controller_page

; 2547 : 
; 2548 : 	// don't leave text selected
; 2549 : 	set_toggle_button_off (obj);

  00059	8b 45 08	 mov	 eax, DWORD PTR _obj$[ebp]
  0005c	50		 push	 eax
  0005d	e8 00 00 00 00	 call	 ?set_toggle_button_off@@YGXPAUUI_OBJECT@@@Z ; set_toggle_button_off

; 2550 : }

  00062	5f		 pop	 edi
  00063	5e		 pop	 esi
  00064	5b		 pop	 ebx
  00065	8b e5		 mov	 esp, ebp
  00067	5d		 pop	 ebp
  00068	c2 08 00	 ret	 8
?notify_cyclic_y_option_button_right@@YGXPAUUI_OBJECT@@PAX@Z ENDP ; notify_cyclic_y_option_button_right
_TEXT	ENDS
; Function compile flags: /Odtp /ZI
; File c:\users\nhv90\projects\eech\aphavoc\source\ui_menu\options\op_ctrlr.c
;	COMDAT ?notify_cyclic_y_option_button@@YGXPAUUI_OBJECT@@PAX@Z
_TEXT	SEGMENT
_AxisInfoIndex$ = -4					; size = 4
_obj$ = 8						; size = 4
_arg$ = 12						; size = 4
?notify_cyclic_y_option_button@@YGXPAUUI_OBJECT@@PAX@Z PROC ; notify_cyclic_y_option_button, COMDAT

; 2516 : {

  00000	55		 push	 ebp
  00001	8b ec		 mov	 ebp, esp
  00003	83 ec 44	 sub	 esp, 68			; 00000044H
  00006	53		 push	 ebx
  00007	56		 push	 esi
  00008	57		 push	 edi

; 2517 : 	int AxisInfoIndex;
; 2518 : 
; 2519 : 	AxisInfoIndex = findNextUnusedDeviceAxis(command_line_cyclic_joystick_index,command_line_cyclic_joystick_y_axis);

  00009	a1 00 00 00 00	 mov	 eax, DWORD PTR ?command_line_cyclic_joystick_y_axis@@3HA ; command_line_cyclic_joystick_y_axis
  0000e	50		 push	 eax
  0000f	8b 0d 00 00 00
	00		 mov	 ecx, DWORD PTR ?command_line_cyclic_joystick_index@@3HA ; command_line_cyclic_joystick_index
  00015	51		 push	 ecx
  00016	e8 00 00 00 00	 call	 ?findNextUnusedDeviceAxis@@YGHHH@Z ; findNextUnusedDeviceAxis
  0001b	89 45 fc	 mov	 DWORD PTR _AxisInfoIndex$[ebp], eax

; 2520 : 
; 2521 : 	command_line_cyclic_joystick_y_axis = AxisInfo[AxisInfoIndex].axis;

  0001e	8b 45 fc	 mov	 eax, DWORD PTR _AxisInfoIndex$[ebp]
  00021	c1 e0 04	 shl	 eax, 4
  00024	8b 88 08 00 00
	00		 mov	 ecx, DWORD PTR ?AxisInfo@@3PAUAxisInfo_t@@A[eax+8]
  0002a	89 0d 00 00 00
	00		 mov	 DWORD PTR ?command_line_cyclic_joystick_y_axis@@3HA, ecx ; command_line_cyclic_joystick_y_axis

; 2522 : 
; 2523 : /*	if (command_line_cyclic_joystick_index == -1)
; 2524 : 		set_global_cyclic_input (KEYBOARD_INPUT);
; 2525 : 	else
; 2526 : 		set_global_cyclic_input (JOYSTICK_INPUT);*/
; 2527 : 
; 2528 : 	set_ui_object_text (cyclic_y_option_button, AxisInfo[AxisInfoIndex].AxisName);

  00030	8b 45 fc	 mov	 eax, DWORD PTR _AxisInfoIndex$[ebp]
  00033	c1 e0 04	 shl	 eax, 4
  00036	8b 88 00 00 00
	00		 mov	 ecx, DWORD PTR ?AxisInfo@@3PAUAxisInfo_t@@A[eax]
  0003c	51		 push	 ecx
  0003d	8b 15 00 00 00
	00		 mov	 edx, DWORD PTR ?cyclic_y_option_button@@3PAUUI_OBJECT@@A ; cyclic_y_option_button
  00043	52		 push	 edx
  00044	a1 00 00 00 00	 mov	 eax, DWORD PTR ?cyclic_y_option_button@@3PAUUI_OBJECT@@A ; cyclic_y_option_button
  00049	8b 08		 mov	 ecx, DWORD PTR [eax]
  0004b	8b 14 8d 00 00
	00 00		 mov	 edx, DWORD PTR ?fn_set_ui_object_text@@3PAP6GXPAUUI_OBJECT@@PBD@ZA[ecx*4]
  00052	ff d2		 call	 edx

; 2529 : 
; 2530 : 	// don't leave text selected
; 2531 : 
; 2532 : 	set_toggle_button_off (obj);

  00054	8b 45 08	 mov	 eax, DWORD PTR _obj$[ebp]
  00057	50		 push	 eax
  00058	e8 00 00 00 00	 call	 ?set_toggle_button_off@@YGXPAUUI_OBJECT@@@Z ; set_toggle_button_off

; 2533 : }

  0005d	5f		 pop	 edi
  0005e	5e		 pop	 esi
  0005f	5b		 pop	 ebx
  00060	8b e5		 mov	 esp, ebp
  00062	5d		 pop	 ebp
  00063	c2 08 00	 ret	 8
?notify_cyclic_y_option_button@@YGXPAUUI_OBJECT@@PAX@Z ENDP ; notify_cyclic_y_option_button
_TEXT	ENDS
; Function compile flags: /Odtp /ZI
; File c:\users\nhv90\projects\eech\aphavoc\source\ui_menu\options\op_ctrlr.c
;	COMDAT ?notify_keyboard_assist_option_button@@YGXPAUUI_OBJECT@@PAX@Z
_TEXT	SEGMENT
tv67 = -68						; size = 4
_obj$ = 8						; size = 4
_arg$ = 12						; size = 4
?notify_keyboard_assist_option_button@@YGXPAUUI_OBJECT@@PAX@Z PROC ; notify_keyboard_assist_option_button, COMDAT

; 3184 : {

  00000	55		 push	 ebp
  00001	8b ec		 mov	 ebp, esp
  00003	83 ec 44	 sub	 esp, 68			; 00000044H
  00006	53		 push	 ebx
  00007	56		 push	 esi
  00008	57		 push	 edi

; 3185 : 	set_global_dynamics_options_keyboard_assistance (!get_global_dynamics_options_keyboard_assistance ());

  00009	a1 50 00 00 00	 mov	 eax, DWORD PTR ?global_options@@3UGLOBAL_OPTIONS_DATA@@A+80
  0000e	c1 e8 08	 shr	 eax, 8
  00011	83 e0 01	 and	 eax, 1
  00014	75 09		 jne	 SHORT $LN3@notify_key
  00016	c7 45 bc 01 00
	00 00		 mov	 DWORD PTR tv67[ebp], 1
  0001d	eb 07		 jmp	 SHORT $LN4@notify_key
$LN3@notify_key:
  0001f	c7 45 bc 00 00
	00 00		 mov	 DWORD PTR tv67[ebp], 0
$LN4@notify_key:
  00026	8b 4d bc	 mov	 ecx, DWORD PTR tv67[ebp]
  00029	83 e1 01	 and	 ecx, 1
  0002c	c1 e1 08	 shl	 ecx, 8
  0002f	8b 15 50 00 00
	00		 mov	 edx, DWORD PTR ?global_options@@3UGLOBAL_OPTIONS_DATA@@A+80
  00035	81 e2 ff fe ff
	ff		 and	 edx, -257		; fffffeffH
  0003b	0b d1		 or	 edx, ecx
  0003d	89 15 50 00 00
	00		 mov	 DWORD PTR ?global_options@@3UGLOBAL_OPTIONS_DATA@@A+80, edx

; 3186 : 
; 3187 : 	set_ui_object_text (keyboard_assist_option_button, option_boolean_text [get_global_dynamics_options_keyboard_assistance ()]);

  00043	a1 50 00 00 00	 mov	 eax, DWORD PTR ?global_options@@3UGLOBAL_OPTIONS_DATA@@A+80
  00048	c1 e8 08	 shr	 eax, 8
  0004b	83 e0 01	 and	 eax, 1
  0004e	8b 0c 85 00 00
	00 00		 mov	 ecx, DWORD PTR ?option_boolean_text@@3PAPBDA[eax*4]
  00055	51		 push	 ecx
  00056	8b 15 00 00 00
	00		 mov	 edx, DWORD PTR ?keyboard_assist_option_button@@3PAUUI_OBJECT@@A ; keyboard_assist_option_button
  0005c	52		 push	 edx
  0005d	a1 00 00 00 00	 mov	 eax, DWORD PTR ?keyboard_assist_option_button@@3PAUUI_OBJECT@@A ; keyboard_assist_option_button
  00062	8b 08		 mov	 ecx, DWORD PTR [eax]
  00064	8b 14 8d 00 00
	00 00		 mov	 edx, DWORD PTR ?fn_set_ui_object_text@@3PAP6GXPAUUI_OBJECT@@PBD@ZA[ecx*4]
  0006b	ff d2		 call	 edx

; 3188 : 
; 3189 : 	set_current_dynamics_options (DYNAMICS_OPTIONS_KEYBOARD_ASSISTANCE, get_global_dynamics_options_keyboard_assistance());

  0006d	a1 50 00 00 00	 mov	 eax, DWORD PTR ?global_options@@3UGLOBAL_OPTIONS_DATA@@A+80
  00072	c1 e8 08	 shr	 eax, 8
  00075	83 e0 01	 and	 eax, 1
  00078	50		 push	 eax
  00079	6a 05		 push	 5
  0007b	e8 00 00 00 00	 call	 ?set_current_dynamics_options@@YGXW4DYNAMICS_OPTIONS_TYPES@@H@Z ; set_current_dynamics_options

; 3190 : 
; 3191 : 	// don't leave text selected
; 3192 : 
; 3193 : 	set_toggle_button_off (obj);

  00080	8b 45 08	 mov	 eax, DWORD PTR _obj$[ebp]
  00083	50		 push	 eax
  00084	e8 00 00 00 00	 call	 ?set_toggle_button_off@@YGXPAUUI_OBJECT@@@Z ; set_toggle_button_off

; 3194 : }

  00089	5f		 pop	 edi
  0008a	5e		 pop	 esi
  0008b	5b		 pop	 ebx
  0008c	8b e5		 mov	 esp, ebp
  0008e	5d		 pop	 ebp
  0008f	c2 08 00	 ret	 8
?notify_keyboard_assist_option_button@@YGXPAUUI_OBJECT@@PAX@Z ENDP ; notify_keyboard_assist_option_button
_TEXT	ENDS
; Function compile flags: /Odtp /ZI
; File c:\users\nhv90\projects\eech\aphavoc\source\ui_menu\options\op_ctrlr.c
;	COMDAT ?notify_reverse_throttle_option_button@@YGXPAUUI_OBJECT@@PAX@Z
_TEXT	SEGMENT
tv67 = -72						; size = 4
_selection$ = -4					; size = 4
_obj$ = 8						; size = 4
_arg$ = 12						; size = 4
?notify_reverse_throttle_option_button@@YGXPAUUI_OBJECT@@PAX@Z PROC ; notify_reverse_throttle_option_button, COMDAT

; 3157 : {

  00000	55		 push	 ebp
  00001	8b ec		 mov	 ebp, esp
  00003	83 ec 48	 sub	 esp, 72			; 00000048H
  00006	53		 push	 ebx
  00007	56		 push	 esi
  00008	57		 push	 edi

; 3158 : 
; 3159 : 	int
; 3160 : 		selection;
; 3161 : 
; 3162 : 	selection = !get_global_dynamics_options_reverse_throttle_input ();

  00009	a1 50 00 00 00	 mov	 eax, DWORD PTR ?global_options@@3UGLOBAL_OPTIONS_DATA@@A+80
  0000e	c1 e8 07	 shr	 eax, 7
  00011	83 e0 01	 and	 eax, 1
  00014	75 09		 jne	 SHORT $LN3@notify_rev
  00016	c7 45 b8 01 00
	00 00		 mov	 DWORD PTR tv67[ebp], 1
  0001d	eb 07		 jmp	 SHORT $LN4@notify_rev
$LN3@notify_rev:
  0001f	c7 45 b8 00 00
	00 00		 mov	 DWORD PTR tv67[ebp], 0
$LN4@notify_rev:
  00026	8b 4d b8	 mov	 ecx, DWORD PTR tv67[ebp]
  00029	89 4d fc	 mov	 DWORD PTR _selection$[ebp], ecx

; 3163 : 	
; 3164 : 	set_global_dynamics_options_reverse_throttle_input (selection);

  0002c	8b 45 fc	 mov	 eax, DWORD PTR _selection$[ebp]
  0002f	83 e0 01	 and	 eax, 1
  00032	c1 e0 07	 shl	 eax, 7
  00035	8b 0d 50 00 00
	00		 mov	 ecx, DWORD PTR ?global_options@@3UGLOBAL_OPTIONS_DATA@@A+80
  0003b	81 e1 7f ff ff
	ff		 and	 ecx, -129		; ffffff7fH
  00041	0b c8		 or	 ecx, eax
  00043	89 0d 50 00 00
	00		 mov	 DWORD PTR ?global_options@@3UGLOBAL_OPTIONS_DATA@@A+80, ecx

; 3165 : 
; 3166 : 	set_ui_object_text (reverse_throttle_button, option_boolean_text [selection]);

  00049	8b 45 fc	 mov	 eax, DWORD PTR _selection$[ebp]
  0004c	8b 0c 85 00 00
	00 00		 mov	 ecx, DWORD PTR ?option_boolean_text@@3PAPBDA[eax*4]
  00053	51		 push	 ecx
  00054	8b 15 00 00 00
	00		 mov	 edx, DWORD PTR ?reverse_throttle_button@@3PAUUI_OBJECT@@A ; reverse_throttle_button
  0005a	52		 push	 edx
  0005b	a1 00 00 00 00	 mov	 eax, DWORD PTR ?reverse_throttle_button@@3PAUUI_OBJECT@@A ; reverse_throttle_button
  00060	8b 08		 mov	 ecx, DWORD PTR [eax]
  00062	8b 14 8d 00 00
	00 00		 mov	 edx, DWORD PTR ?fn_set_ui_object_text@@3PAP6GXPAUUI_OBJECT@@PBD@ZA[ecx*4]
  00069	ff d2		 call	 edx

; 3167 : 
; 3168 : 	set_current_dynamics_options (DYNAMICS_OPTIONS_REVERSE_THROTTLE_INPUT, get_global_dynamics_options_reverse_throttle_input());

  0006b	a1 50 00 00 00	 mov	 eax, DWORD PTR ?global_options@@3UGLOBAL_OPTIONS_DATA@@A+80
  00070	c1 e8 07	 shr	 eax, 7
  00073	83 e0 01	 and	 eax, 1
  00076	50		 push	 eax
  00077	6a 09		 push	 9
  00079	e8 00 00 00 00	 call	 ?set_current_dynamics_options@@YGXW4DYNAMICS_OPTIONS_TYPES@@H@Z ; set_current_dynamics_options

; 3169 : 
; 3170 : 	// don't leave text selected
; 3171 : 
; 3172 : 	set_toggle_button_off (obj);

  0007e	8b 45 08	 mov	 eax, DWORD PTR _obj$[ebp]
  00081	50		 push	 eax
  00082	e8 00 00 00 00	 call	 ?set_toggle_button_off@@YGXPAUUI_OBJECT@@@Z ; set_toggle_button_off

; 3173 : 
; 3174 : 	#ifdef DEBUG_MODULE
; 3175 : 		debug_filtered_log ("reverse throttle: %d", get_global_dynamics_options_reverse_throttle_input ());

  00087	a1 50 00 00 00	 mov	 eax, DWORD PTR ?global_options@@3UGLOBAL_OPTIONS_DATA@@A+80
  0008c	c1 e8 07	 shr	 eax, 7
  0008f	83 e0 01	 and	 eax, 1
  00092	50		 push	 eax
  00093	68 00 00 00 00	 push	 OFFSET ??_C@_0BF@FNNLJAOC@reverse?5throttle?3?5?$CFd@
  00098	e8 00 00 00 00	 call	 ?debug_filtered_log@@YAXPBDZZ ; debug_filtered_log
  0009d	83 c4 08	 add	 esp, 8

; 3176 : 	#endif
; 3177 : }

  000a0	5f		 pop	 edi
  000a1	5e		 pop	 esi
  000a2	5b		 pop	 ebx
  000a3	8b e5		 mov	 esp, ebp
  000a5	5d		 pop	 ebp
  000a6	c2 08 00	 ret	 8
?notify_reverse_throttle_option_button@@YGXPAUUI_OBJECT@@PAX@Z ENDP ; notify_reverse_throttle_option_button
_TEXT	ENDS
; Function compile flags: /Odtp /ZI
; File c:\users\nhv90\projects\eech\aphavoc\source\ui_menu\options\op_ctrlr.c
;	COMDAT ?notify_pedal_option_button_right@@YGXPAUUI_OBJECT@@PAX@Z
_TEXT	SEGMENT
_AxisInfoIndex$ = -4					; size = 4
_obj$ = 8						; size = 4
_arg$ = 12						; size = 4
?notify_pedal_option_button_right@@YGXPAUUI_OBJECT@@PAX@Z PROC ; notify_pedal_option_button_right, COMDAT

; 2666 : {

  00000	55		 push	 ebp
  00001	8b ec		 mov	 ebp, esp
  00003	83 ec 44	 sub	 esp, 68			; 00000044H
  00006	53		 push	 ebx
  00007	56		 push	 esi
  00008	57		 push	 edi

; 2667 : 	int
; 2668 : 		AxisInfoIndex;
; 2669 : 
; 2670 : 	AxisInfoIndex = findPreviousUnusedAxis(command_line_rudder_joystick_index,command_line_rudder_joystick_axis);

  00009	a1 00 00 00 00	 mov	 eax, DWORD PTR ?command_line_rudder_joystick_axis@@3HA ; command_line_rudder_joystick_axis
  0000e	50		 push	 eax
  0000f	8b 0d 00 00 00
	00		 mov	 ecx, DWORD PTR ?command_line_rudder_joystick_index@@3HA ; command_line_rudder_joystick_index
  00015	51		 push	 ecx
  00016	e8 00 00 00 00	 call	 ?findPreviousUnusedAxis@@YGHHH@Z ; findPreviousUnusedAxis
  0001b	89 45 fc	 mov	 DWORD PTR _AxisInfoIndex$[ebp], eax

; 2671 : 
; 2672 : 	command_line_rudder_joystick_index = AxisInfo[AxisInfoIndex].device;

  0001e	8b 45 fc	 mov	 eax, DWORD PTR _AxisInfoIndex$[ebp]
  00021	c1 e0 04	 shl	 eax, 4
  00024	8b 88 04 00 00
	00		 mov	 ecx, DWORD PTR ?AxisInfo@@3PAUAxisInfo_t@@A[eax+4]
  0002a	89 0d 00 00 00
	00		 mov	 DWORD PTR ?command_line_rudder_joystick_index@@3HA, ecx ; command_line_rudder_joystick_index

; 2673 : 	command_line_rudder_joystick_axis = AxisInfo[AxisInfoIndex].axis;

  00030	8b 45 fc	 mov	 eax, DWORD PTR _AxisInfoIndex$[ebp]
  00033	c1 e0 04	 shl	 eax, 4
  00036	8b 88 08 00 00
	00		 mov	 ecx, DWORD PTR ?AxisInfo@@3PAUAxisInfo_t@@A[eax+8]
  0003c	89 0d 00 00 00
	00		 mov	 DWORD PTR ?command_line_rudder_joystick_axis@@3HA, ecx ; command_line_rudder_joystick_axis

; 2674 : 
; 2675 : 	if (command_line_rudder_joystick_index == -1)

  00042	83 3d 00 00 00
	00 ff		 cmp	 DWORD PTR ?command_line_rudder_joystick_index@@3HA, -1 ; command_line_rudder_joystick_index
  00049	75 32		 jne	 SHORT $LN2@notify_ped

; 2676 : 	{
; 2677 : 		set_global_pedal_input (KEYBOARD_INPUT);

  0004b	c7 05 30 00 00
	00 01 00 00 00	 mov	 DWORD PTR ?global_options@@3UGLOBAL_OPTIONS_DATA@@A+48, 1

; 2678 : 		set_ui_object_text (reverse_pedal_option_button, option_boolean_text [FALSE]);

  00055	b8 04 00 00 00	 mov	 eax, 4
  0005a	6b c8 00	 imul	 ecx, eax, 0
  0005d	8b 91 00 00 00
	00		 mov	 edx, DWORD PTR ?option_boolean_text@@3PAPBDA[ecx]
  00063	52		 push	 edx
  00064	a1 00 00 00 00	 mov	 eax, DWORD PTR ?reverse_pedal_option_button@@3PAUUI_OBJECT@@A ; reverse_pedal_option_button
  00069	50		 push	 eax
  0006a	8b 0d 00 00 00
	00		 mov	 ecx, DWORD PTR ?reverse_pedal_option_button@@3PAUUI_OBJECT@@A ; reverse_pedal_option_button
  00070	8b 11		 mov	 edx, DWORD PTR [ecx]
  00072	8b 04 95 00 00
	00 00		 mov	 eax, DWORD PTR ?fn_set_ui_object_text@@3PAP6GXPAUUI_OBJECT@@PBD@ZA[edx*4]
  00079	ff d0		 call	 eax

; 2679 : 	}
; 2680 : 	else

  0007b	eb 2e		 jmp	 SHORT $LN3@notify_ped
$LN2@notify_ped:

; 2681 : 	{
; 2682 : 		set_global_pedal_input (RUDDER_INPUT);

  0007d	c7 05 30 00 00
	00 04 00 00 00	 mov	 DWORD PTR ?global_options@@3UGLOBAL_OPTIONS_DATA@@A+48, 4

; 2683 : 		set_ui_object_text (reverse_pedal_option_button, option_boolean_text [command_line_reverse_pedal]);

  00087	a1 00 00 00 00	 mov	 eax, DWORD PTR ?command_line_reverse_pedal@@3HA ; command_line_reverse_pedal
  0008c	8b 0c 85 00 00
	00 00		 mov	 ecx, DWORD PTR ?option_boolean_text@@3PAPBDA[eax*4]
  00093	51		 push	 ecx
  00094	8b 15 00 00 00
	00		 mov	 edx, DWORD PTR ?reverse_pedal_option_button@@3PAUUI_OBJECT@@A ; reverse_pedal_option_button
  0009a	52		 push	 edx
  0009b	a1 00 00 00 00	 mov	 eax, DWORD PTR ?reverse_pedal_option_button@@3PAUUI_OBJECT@@A ; reverse_pedal_option_button
  000a0	8b 08		 mov	 ecx, DWORD PTR [eax]
  000a2	8b 14 8d 00 00
	00 00		 mov	 edx, DWORD PTR ?fn_set_ui_object_text@@3PAP6GXPAUUI_OBJECT@@PBD@ZA[ecx*4]
  000a9	ff d2		 call	 edx
$LN3@notify_ped:

; 2684 : 	}
; 2685 : 
; 2686 : 	set_ui_object_text (pedal_option_button, AxisInfo[AxisInfoIndex].AxisName);

  000ab	8b 45 fc	 mov	 eax, DWORD PTR _AxisInfoIndex$[ebp]
  000ae	c1 e0 04	 shl	 eax, 4
  000b1	8b 88 00 00 00
	00		 mov	 ecx, DWORD PTR ?AxisInfo@@3PAUAxisInfo_t@@A[eax]
  000b7	51		 push	 ecx
  000b8	8b 15 00 00 00
	00		 mov	 edx, DWORD PTR ?pedal_option_button@@3PAUUI_OBJECT@@A ; pedal_option_button
  000be	52		 push	 edx
  000bf	a1 00 00 00 00	 mov	 eax, DWORD PTR ?pedal_option_button@@3PAUUI_OBJECT@@A ; pedal_option_button
  000c4	8b 08		 mov	 ecx, DWORD PTR [eax]
  000c6	8b 14 8d 00 00
	00 00		 mov	 edx, DWORD PTR ?fn_set_ui_object_text@@3PAP6GXPAUUI_OBJECT@@PBD@ZA[ecx*4]
  000cd	ff d2		 call	 edx

; 2687 : 
; 2688 : 	// ugh
; 2689 : 	notify_show_controller_page ();

  000cf	e8 00 00 00 00	 call	 ?notify_show_controller_page@@YGXXZ ; notify_show_controller_page

; 2690 : 
; 2691 : 	// don't leave text selected
; 2692 : 	set_toggle_button_off (obj);

  000d4	8b 45 08	 mov	 eax, DWORD PTR _obj$[ebp]
  000d7	50		 push	 eax
  000d8	e8 00 00 00 00	 call	 ?set_toggle_button_off@@YGXPAUUI_OBJECT@@@Z ; set_toggle_button_off

; 2693 : }

  000dd	5f		 pop	 edi
  000de	5e		 pop	 esi
  000df	5b		 pop	 ebx
  000e0	8b e5		 mov	 esp, ebp
  000e2	5d		 pop	 ebp
  000e3	c2 08 00	 ret	 8
?notify_pedal_option_button_right@@YGXPAUUI_OBJECT@@PAX@Z ENDP ; notify_pedal_option_button_right
_TEXT	ENDS
; Function compile flags: /Odtp /ZI
; File c:\users\nhv90\projects\eech\aphavoc\source\ui_menu\options\op_ctrlr.c
;	COMDAT ?notify_pedal_option_button@@YGXPAUUI_OBJECT@@PAX@Z
_TEXT	SEGMENT
_AxisInfoIndex$ = -4					; size = 4
_obj$ = 8						; size = 4
_arg$ = 12						; size = 4
?notify_pedal_option_button@@YGXPAUUI_OBJECT@@PAX@Z PROC ; notify_pedal_option_button, COMDAT

; 2623 : {

  00000	55		 push	 ebp
  00001	8b ec		 mov	 ebp, esp
  00003	83 ec 44	 sub	 esp, 68			; 00000044H
  00006	53		 push	 ebx
  00007	56		 push	 esi
  00008	57		 push	 edi

; 2624 : #if 0 // Retro 10Jul2004
; 2625 : 	if ( (number_of_joystick_devices) && (get_global_pedal_input () == KEYBOARD_INPUT) )
; 2626 : 	{
; 2627 : 			set_global_pedal_input (RUDDER_INPUT);
; 2628 : 			
; 2629 : 			set_ui_object_text (pedal_option_button, option_pedal_text[1]);
; 2630 : 	}
; 2631 : 	else
; 2632 : 	{
; 2633 : 		set_global_pedal_input (KEYBOARD_INPUT);
; 2634 : 		
; 2635 : 		set_ui_object_text (pedal_option_button, option_pedal_text[0]);
; 2636 : 	}
; 2637 : #else // Retro 10Jul2004
; 2638 : 	int
; 2639 : 		AxisInfoIndex;
; 2640 : 
; 2641 : 	AxisInfoIndex = findNextUnusedAxis(command_line_rudder_joystick_index,command_line_rudder_joystick_axis);

  00009	a1 00 00 00 00	 mov	 eax, DWORD PTR ?command_line_rudder_joystick_axis@@3HA ; command_line_rudder_joystick_axis
  0000e	50		 push	 eax
  0000f	8b 0d 00 00 00
	00		 mov	 ecx, DWORD PTR ?command_line_rudder_joystick_index@@3HA ; command_line_rudder_joystick_index
  00015	51		 push	 ecx
  00016	e8 00 00 00 00	 call	 ?findNextUnusedAxis@@YGHHH@Z ; findNextUnusedAxis
  0001b	89 45 fc	 mov	 DWORD PTR _AxisInfoIndex$[ebp], eax

; 2642 : 
; 2643 : 	command_line_rudder_joystick_index = AxisInfo[AxisInfoIndex].device;

  0001e	8b 45 fc	 mov	 eax, DWORD PTR _AxisInfoIndex$[ebp]
  00021	c1 e0 04	 shl	 eax, 4
  00024	8b 88 04 00 00
	00		 mov	 ecx, DWORD PTR ?AxisInfo@@3PAUAxisInfo_t@@A[eax+4]
  0002a	89 0d 00 00 00
	00		 mov	 DWORD PTR ?command_line_rudder_joystick_index@@3HA, ecx ; command_line_rudder_joystick_index

; 2644 : 	command_line_rudder_joystick_axis = AxisInfo[AxisInfoIndex].axis;

  00030	8b 45 fc	 mov	 eax, DWORD PTR _AxisInfoIndex$[ebp]
  00033	c1 e0 04	 shl	 eax, 4
  00036	8b 88 08 00 00
	00		 mov	 ecx, DWORD PTR ?AxisInfo@@3PAUAxisInfo_t@@A[eax+8]
  0003c	89 0d 00 00 00
	00		 mov	 DWORD PTR ?command_line_rudder_joystick_axis@@3HA, ecx ; command_line_rudder_joystick_axis

; 2645 : 
; 2646 : 	if (command_line_rudder_joystick_index == -1)

  00042	83 3d 00 00 00
	00 ff		 cmp	 DWORD PTR ?command_line_rudder_joystick_index@@3HA, -1 ; command_line_rudder_joystick_index
  00049	75 32		 jne	 SHORT $LN2@notify_ped

; 2647 : 	{
; 2648 : 		set_global_pedal_input (KEYBOARD_INPUT);

  0004b	c7 05 30 00 00
	00 01 00 00 00	 mov	 DWORD PTR ?global_options@@3UGLOBAL_OPTIONS_DATA@@A+48, 1

; 2649 : 		set_ui_object_text (reverse_pedal_option_button, option_boolean_text [FALSE]);

  00055	b8 04 00 00 00	 mov	 eax, 4
  0005a	6b c8 00	 imul	 ecx, eax, 0
  0005d	8b 91 00 00 00
	00		 mov	 edx, DWORD PTR ?option_boolean_text@@3PAPBDA[ecx]
  00063	52		 push	 edx
  00064	a1 00 00 00 00	 mov	 eax, DWORD PTR ?reverse_pedal_option_button@@3PAUUI_OBJECT@@A ; reverse_pedal_option_button
  00069	50		 push	 eax
  0006a	8b 0d 00 00 00
	00		 mov	 ecx, DWORD PTR ?reverse_pedal_option_button@@3PAUUI_OBJECT@@A ; reverse_pedal_option_button
  00070	8b 11		 mov	 edx, DWORD PTR [ecx]
  00072	8b 04 95 00 00
	00 00		 mov	 eax, DWORD PTR ?fn_set_ui_object_text@@3PAP6GXPAUUI_OBJECT@@PBD@ZA[edx*4]
  00079	ff d0		 call	 eax

; 2650 : 	}
; 2651 : 	else

  0007b	eb 2e		 jmp	 SHORT $LN3@notify_ped
$LN2@notify_ped:

; 2652 : 	{
; 2653 : 		set_global_pedal_input (RUDDER_INPUT);

  0007d	c7 05 30 00 00
	00 04 00 00 00	 mov	 DWORD PTR ?global_options@@3UGLOBAL_OPTIONS_DATA@@A+48, 4

; 2654 : 		set_ui_object_text (reverse_pedal_option_button, option_boolean_text [command_line_reverse_pedal]);

  00087	a1 00 00 00 00	 mov	 eax, DWORD PTR ?command_line_reverse_pedal@@3HA ; command_line_reverse_pedal
  0008c	8b 0c 85 00 00
	00 00		 mov	 ecx, DWORD PTR ?option_boolean_text@@3PAPBDA[eax*4]
  00093	51		 push	 ecx
  00094	8b 15 00 00 00
	00		 mov	 edx, DWORD PTR ?reverse_pedal_option_button@@3PAUUI_OBJECT@@A ; reverse_pedal_option_button
  0009a	52		 push	 edx
  0009b	a1 00 00 00 00	 mov	 eax, DWORD PTR ?reverse_pedal_option_button@@3PAUUI_OBJECT@@A ; reverse_pedal_option_button
  000a0	8b 08		 mov	 ecx, DWORD PTR [eax]
  000a2	8b 14 8d 00 00
	00 00		 mov	 edx, DWORD PTR ?fn_set_ui_object_text@@3PAP6GXPAUUI_OBJECT@@PBD@ZA[ecx*4]
  000a9	ff d2		 call	 edx
$LN3@notify_ped:

; 2655 : 	}
; 2656 : 
; 2657 : 	set_ui_object_text (pedal_option_button, AxisInfo[AxisInfoIndex].AxisName);

  000ab	8b 45 fc	 mov	 eax, DWORD PTR _AxisInfoIndex$[ebp]
  000ae	c1 e0 04	 shl	 eax, 4
  000b1	8b 88 00 00 00
	00		 mov	 ecx, DWORD PTR ?AxisInfo@@3PAUAxisInfo_t@@A[eax]
  000b7	51		 push	 ecx
  000b8	8b 15 00 00 00
	00		 mov	 edx, DWORD PTR ?pedal_option_button@@3PAUUI_OBJECT@@A ; pedal_option_button
  000be	52		 push	 edx
  000bf	a1 00 00 00 00	 mov	 eax, DWORD PTR ?pedal_option_button@@3PAUUI_OBJECT@@A ; pedal_option_button
  000c4	8b 08		 mov	 ecx, DWORD PTR [eax]
  000c6	8b 14 8d 00 00
	00 00		 mov	 edx, DWORD PTR ?fn_set_ui_object_text@@3PAP6GXPAUUI_OBJECT@@PBD@ZA[ecx*4]
  000cd	ff d2		 call	 edx

; 2658 : #endif // Retro 10Jul2004
; 2659 : 
; 2660 : 	// don't leave text selected
; 2661 : 
; 2662 : 	set_toggle_button_off (obj);

  000cf	8b 45 08	 mov	 eax, DWORD PTR _obj$[ebp]
  000d2	50		 push	 eax
  000d3	e8 00 00 00 00	 call	 ?set_toggle_button_off@@YGXPAUUI_OBJECT@@@Z ; set_toggle_button_off

; 2663 : }

  000d8	5f		 pop	 edi
  000d9	5e		 pop	 esi
  000da	5b		 pop	 ebx
  000db	8b e5		 mov	 esp, ebp
  000dd	5d		 pop	 ebp
  000de	c2 08 00	 ret	 8
?notify_pedal_option_button@@YGXPAUUI_OBJECT@@PAX@Z ENDP ; notify_pedal_option_button
_TEXT	ENDS
; Function compile flags: /Odtp /ZI
; File c:\users\nhv90\projects\eech\aphavoc\source\ui_menu\options\op_ctrlr.c
;	COMDAT ?notify_collective_option_button_right@@YGXPAUUI_OBJECT@@PAX@Z
_TEXT	SEGMENT
_AxisInfoIndex$ = -4					; size = 4
_obj$ = 8						; size = 4
_arg$ = 12						; size = 4
?notify_collective_option_button_right@@YGXPAUUI_OBJECT@@PAX@Z PROC ; notify_collective_option_button_right, COMDAT

; 2595 : {

  00000	55		 push	 ebp
  00001	8b ec		 mov	 ebp, esp
  00003	83 ec 44	 sub	 esp, 68			; 00000044H
  00006	53		 push	 ebx
  00007	56		 push	 esi
  00008	57		 push	 edi

; 2596 : 	int
; 2597 : 		AxisInfoIndex;
; 2598 : 
; 2599 : 	AxisInfoIndex = findPreviousUnusedAxis(command_line_collective_joystick_index,command_line_collective_joystick_axis);

  00009	a1 00 00 00 00	 mov	 eax, DWORD PTR ?command_line_collective_joystick_axis@@3HA ; command_line_collective_joystick_axis
  0000e	50		 push	 eax
  0000f	8b 0d 00 00 00
	00		 mov	 ecx, DWORD PTR ?command_line_collective_joystick_index@@3HA ; command_line_collective_joystick_index
  00015	51		 push	 ecx
  00016	e8 00 00 00 00	 call	 ?findPreviousUnusedAxis@@YGHHH@Z ; findPreviousUnusedAxis
  0001b	89 45 fc	 mov	 DWORD PTR _AxisInfoIndex$[ebp], eax

; 2600 : 
; 2601 : 	command_line_collective_joystick_index = AxisInfo[AxisInfoIndex].device;

  0001e	8b 45 fc	 mov	 eax, DWORD PTR _AxisInfoIndex$[ebp]
  00021	c1 e0 04	 shl	 eax, 4
  00024	8b 88 04 00 00
	00		 mov	 ecx, DWORD PTR ?AxisInfo@@3PAUAxisInfo_t@@A[eax+4]
  0002a	89 0d 00 00 00
	00		 mov	 DWORD PTR ?command_line_collective_joystick_index@@3HA, ecx ; command_line_collective_joystick_index

; 2602 : 	command_line_collective_joystick_axis = AxisInfo[AxisInfoIndex].axis;

  00030	8b 45 fc	 mov	 eax, DWORD PTR _AxisInfoIndex$[ebp]
  00033	c1 e0 04	 shl	 eax, 4
  00036	8b 88 08 00 00
	00		 mov	 ecx, DWORD PTR ?AxisInfo@@3PAUAxisInfo_t@@A[eax+8]
  0003c	89 0d 00 00 00
	00		 mov	 DWORD PTR ?command_line_collective_joystick_axis@@3HA, ecx ; command_line_collective_joystick_axis

; 2603 : 
; 2604 : 	if (command_line_collective_joystick_index == -1)

  00042	83 3d 00 00 00
	00 ff		 cmp	 DWORD PTR ?command_line_collective_joystick_index@@3HA, -1 ; command_line_collective_joystick_index
  00049	75 0c		 jne	 SHORT $LN2@notify_col

; 2605 : 		set_global_collective_input (KEYBOARD_INPUT);

  0004b	c7 05 2c 00 00
	00 01 00 00 00	 mov	 DWORD PTR ?global_options@@3UGLOBAL_OPTIONS_DATA@@A+44, 1

; 2606 : 	else

  00055	eb 0a		 jmp	 SHORT $LN3@notify_col
$LN2@notify_col:

; 2607 : 		set_global_collective_input (THROTTLE_INPUT);

  00057	c7 05 2c 00 00
	00 05 00 00 00	 mov	 DWORD PTR ?global_options@@3UGLOBAL_OPTIONS_DATA@@A+44, 5
$LN3@notify_col:

; 2608 : 
; 2609 : 	set_ui_object_text (collective_option_button, AxisInfo[AxisInfoIndex].AxisName);

  00061	8b 45 fc	 mov	 eax, DWORD PTR _AxisInfoIndex$[ebp]
  00064	c1 e0 04	 shl	 eax, 4
  00067	8b 88 00 00 00
	00		 mov	 ecx, DWORD PTR ?AxisInfo@@3PAUAxisInfo_t@@A[eax]
  0006d	51		 push	 ecx
  0006e	8b 15 00 00 00
	00		 mov	 edx, DWORD PTR ?collective_option_button@@3PAUUI_OBJECT@@A ; collective_option_button
  00074	52		 push	 edx
  00075	a1 00 00 00 00	 mov	 eax, DWORD PTR ?collective_option_button@@3PAUUI_OBJECT@@A ; collective_option_button
  0007a	8b 08		 mov	 ecx, DWORD PTR [eax]
  0007c	8b 14 8d 00 00
	00 00		 mov	 edx, DWORD PTR ?fn_set_ui_object_text@@3PAP6GXPAUUI_OBJECT@@PBD@ZA[ecx*4]
  00083	ff d2		 call	 edx

; 2610 : 
; 2611 : 	// ugh
; 2612 : 	notify_show_controller_page ();

  00085	e8 00 00 00 00	 call	 ?notify_show_controller_page@@YGXXZ ; notify_show_controller_page

; 2613 : 
; 2614 : 	// don't leave text selected
; 2615 : 	set_toggle_button_off (obj);

  0008a	8b 45 08	 mov	 eax, DWORD PTR _obj$[ebp]
  0008d	50		 push	 eax
  0008e	e8 00 00 00 00	 call	 ?set_toggle_button_off@@YGXPAUUI_OBJECT@@@Z ; set_toggle_button_off

; 2616 : }

  00093	5f		 pop	 edi
  00094	5e		 pop	 esi
  00095	5b		 pop	 ebx
  00096	8b e5		 mov	 esp, ebp
  00098	5d		 pop	 ebp
  00099	c2 08 00	 ret	 8
?notify_collective_option_button_right@@YGXPAUUI_OBJECT@@PAX@Z ENDP ; notify_collective_option_button_right
_TEXT	ENDS
; Function compile flags: /Odtp /ZI
; File c:\users\nhv90\projects\eech\aphavoc\source\ui_menu\options\op_ctrlr.c
;	COMDAT ?notify_collective_option_button@@YGXPAUUI_OBJECT@@PAX@Z
_TEXT	SEGMENT
_AxisInfoIndex$ = -4					; size = 4
_obj$ = 8						; size = 4
_arg$ = 12						; size = 4
?notify_collective_option_button@@YGXPAUUI_OBJECT@@PAX@Z PROC ; notify_collective_option_button, COMDAT

; 2557 : {

  00000	55		 push	 ebp
  00001	8b ec		 mov	 ebp, esp
  00003	83 ec 44	 sub	 esp, 68			; 00000044H
  00006	53		 push	 ebx
  00007	56		 push	 esi
  00008	57		 push	 edi

; 2558 : #if 0 // Retro 10Jul2004
; 2559 : 	if ( (number_of_joystick_devices) && (get_global_collective_input () == KEYBOARD_INPUT) )
; 2560 : 	{
; 2561 : 			set_global_collective_input (THROTTLE_INPUT);
; 2562 : 			
; 2563 : 			set_ui_object_text (collective_option_button, option_throttle_text[1]);
; 2564 : 	}
; 2565 : 	else
; 2566 : 	{
; 2567 : 		set_global_collective_input (KEYBOARD_INPUT);
; 2568 : 		
; 2569 : 		set_ui_object_text (collective_option_button, option_throttle_text[0]);
; 2570 : 	}
; 2571 : #else // Retro 10Jul2004
; 2572 : 	int
; 2573 : 		AxisInfoIndex;
; 2574 : 
; 2575 : 	AxisInfoIndex = findNextUnusedAxis(command_line_collective_joystick_index,command_line_collective_joystick_axis);

  00009	a1 00 00 00 00	 mov	 eax, DWORD PTR ?command_line_collective_joystick_axis@@3HA ; command_line_collective_joystick_axis
  0000e	50		 push	 eax
  0000f	8b 0d 00 00 00
	00		 mov	 ecx, DWORD PTR ?command_line_collective_joystick_index@@3HA ; command_line_collective_joystick_index
  00015	51		 push	 ecx
  00016	e8 00 00 00 00	 call	 ?findNextUnusedAxis@@YGHHH@Z ; findNextUnusedAxis
  0001b	89 45 fc	 mov	 DWORD PTR _AxisInfoIndex$[ebp], eax

; 2576 : 
; 2577 : 	command_line_collective_joystick_index = AxisInfo[AxisInfoIndex].device;

  0001e	8b 45 fc	 mov	 eax, DWORD PTR _AxisInfoIndex$[ebp]
  00021	c1 e0 04	 shl	 eax, 4
  00024	8b 88 04 00 00
	00		 mov	 ecx, DWORD PTR ?AxisInfo@@3PAUAxisInfo_t@@A[eax+4]
  0002a	89 0d 00 00 00
	00		 mov	 DWORD PTR ?command_line_collective_joystick_index@@3HA, ecx ; command_line_collective_joystick_index

; 2578 : 	command_line_collective_joystick_axis = AxisInfo[AxisInfoIndex].axis;

  00030	8b 45 fc	 mov	 eax, DWORD PTR _AxisInfoIndex$[ebp]
  00033	c1 e0 04	 shl	 eax, 4
  00036	8b 88 08 00 00
	00		 mov	 ecx, DWORD PTR ?AxisInfo@@3PAUAxisInfo_t@@A[eax+8]
  0003c	89 0d 00 00 00
	00		 mov	 DWORD PTR ?command_line_collective_joystick_axis@@3HA, ecx ; command_line_collective_joystick_axis

; 2579 : 
; 2580 : 	if (command_line_collective_joystick_index == -1)

  00042	83 3d 00 00 00
	00 ff		 cmp	 DWORD PTR ?command_line_collective_joystick_index@@3HA, -1 ; command_line_collective_joystick_index
  00049	75 0c		 jne	 SHORT $LN2@notify_col

; 2581 : 		set_global_collective_input (KEYBOARD_INPUT);

  0004b	c7 05 2c 00 00
	00 01 00 00 00	 mov	 DWORD PTR ?global_options@@3UGLOBAL_OPTIONS_DATA@@A+44, 1

; 2582 : 	else

  00055	eb 0a		 jmp	 SHORT $LN3@notify_col
$LN2@notify_col:

; 2583 : 		set_global_collective_input (THROTTLE_INPUT);

  00057	c7 05 2c 00 00
	00 05 00 00 00	 mov	 DWORD PTR ?global_options@@3UGLOBAL_OPTIONS_DATA@@A+44, 5
$LN3@notify_col:

; 2584 : 
; 2585 : 	set_ui_object_text (collective_option_button, AxisInfo[AxisInfoIndex].AxisName);

  00061	8b 45 fc	 mov	 eax, DWORD PTR _AxisInfoIndex$[ebp]
  00064	c1 e0 04	 shl	 eax, 4
  00067	8b 88 00 00 00
	00		 mov	 ecx, DWORD PTR ?AxisInfo@@3PAUAxisInfo_t@@A[eax]
  0006d	51		 push	 ecx
  0006e	8b 15 00 00 00
	00		 mov	 edx, DWORD PTR ?collective_option_button@@3PAUUI_OBJECT@@A ; collective_option_button
  00074	52		 push	 edx
  00075	a1 00 00 00 00	 mov	 eax, DWORD PTR ?collective_option_button@@3PAUUI_OBJECT@@A ; collective_option_button
  0007a	8b 08		 mov	 ecx, DWORD PTR [eax]
  0007c	8b 14 8d 00 00
	00 00		 mov	 edx, DWORD PTR ?fn_set_ui_object_text@@3PAP6GXPAUUI_OBJECT@@PBD@ZA[ecx*4]
  00083	ff d2		 call	 edx

; 2586 : 	
; 2587 : #endif // Retro 10Jul2004
; 2588 : 
; 2589 : 	// don't leave text selected
; 2590 : 
; 2591 : 	set_toggle_button_off (obj);

  00085	8b 45 08	 mov	 eax, DWORD PTR _obj$[ebp]
  00088	50		 push	 eax
  00089	e8 00 00 00 00	 call	 ?set_toggle_button_off@@YGXPAUUI_OBJECT@@@Z ; set_toggle_button_off

; 2592 : }

  0008e	5f		 pop	 edi
  0008f	5e		 pop	 esi
  00090	5b		 pop	 ebx
  00091	8b e5		 mov	 esp, ebp
  00093	5d		 pop	 ebp
  00094	c2 08 00	 ret	 8
?notify_collective_option_button@@YGXPAUUI_OBJECT@@PAX@Z ENDP ; notify_collective_option_button
_TEXT	ENDS
; Function compile flags: /Odtp /ZI
; File c:\users\nhv90\projects\eech\aphavoc\source\ui_menu\options\op_ctrlr.c
;	COMDAT ?notify_cyclic_option_button_right@@YGXPAUUI_OBJECT@@PAX@Z
_TEXT	SEGMENT
_oldCyclicDevice$ = -8					; size = 4
_AxisInfoIndex$ = -4					; size = 4
_obj$ = 8						; size = 4
_arg$ = 12						; size = 4
?notify_cyclic_option_button_right@@YGXPAUUI_OBJECT@@PAX@Z PROC ; notify_cyclic_option_button_right, COMDAT

; 2480 : {

  00000	55		 push	 ebp
  00001	8b ec		 mov	 ebp, esp
  00003	83 ec 48	 sub	 esp, 72			; 00000048H
  00006	53		 push	 ebx
  00007	56		 push	 esi
  00008	57		 push	 edi

; 2481 : 	int AxisInfoIndex;
; 2482 : 	int oldCyclicDevice = command_line_cyclic_joystick_index;

  00009	a1 00 00 00 00	 mov	 eax, DWORD PTR ?command_line_cyclic_joystick_index@@3HA ; command_line_cyclic_joystick_index
  0000e	89 45 f8	 mov	 DWORD PTR _oldCyclicDevice$[ebp], eax

; 2483 : 
; 2484 : 	AxisInfoIndex = findPreviousUnusedAxis(command_line_cyclic_joystick_index,command_line_cyclic_joystick_x_axis);

  00011	a1 00 00 00 00	 mov	 eax, DWORD PTR ?command_line_cyclic_joystick_x_axis@@3HA ; command_line_cyclic_joystick_x_axis
  00016	50		 push	 eax
  00017	8b 0d 00 00 00
	00		 mov	 ecx, DWORD PTR ?command_line_cyclic_joystick_index@@3HA ; command_line_cyclic_joystick_index
  0001d	51		 push	 ecx
  0001e	e8 00 00 00 00	 call	 ?findPreviousUnusedAxis@@YGHHH@Z ; findPreviousUnusedAxis
  00023	89 45 fc	 mov	 DWORD PTR _AxisInfoIndex$[ebp], eax

; 2485 : 
; 2486 : 	command_line_cyclic_joystick_index = AxisInfo[AxisInfoIndex].device;

  00026	8b 45 fc	 mov	 eax, DWORD PTR _AxisInfoIndex$[ebp]
  00029	c1 e0 04	 shl	 eax, 4
  0002c	8b 88 04 00 00
	00		 mov	 ecx, DWORD PTR ?AxisInfo@@3PAUAxisInfo_t@@A[eax+4]
  00032	89 0d 00 00 00
	00		 mov	 DWORD PTR ?command_line_cyclic_joystick_index@@3HA, ecx ; command_line_cyclic_joystick_index

; 2487 : 	command_line_cyclic_joystick_x_axis = AxisInfo[AxisInfoIndex].axis;

  00038	8b 45 fc	 mov	 eax, DWORD PTR _AxisInfoIndex$[ebp]
  0003b	c1 e0 04	 shl	 eax, 4
  0003e	8b 88 08 00 00
	00		 mov	 ecx, DWORD PTR ?AxisInfo@@3PAUAxisInfo_t@@A[eax+8]
  00044	89 0d 00 00 00
	00		 mov	 DWORD PTR ?command_line_cyclic_joystick_x_axis@@3HA, ecx ; command_line_cyclic_joystick_x_axis

; 2488 : 
; 2489 : 	if (command_line_cyclic_joystick_index == -1)

  0004a	83 3d 00 00 00
	00 ff		 cmp	 DWORD PTR ?command_line_cyclic_joystick_index@@3HA, -1 ; command_line_cyclic_joystick_index
  00051	75 0c		 jne	 SHORT $LN2@notify_cyc

; 2490 : 	{
; 2491 : 		set_global_cyclic_input (KEYBOARD_INPUT);

  00053	c7 05 28 00 00
	00 01 00 00 00	 mov	 DWORD PTR ?global_options@@3UGLOBAL_OPTIONS_DATA@@A+40, 1

; 2492 : 	}
; 2493 : 	else

  0005d	eb 0a		 jmp	 SHORT $LN3@notify_cyc
$LN2@notify_cyc:

; 2494 : 	{
; 2495 : 		set_global_cyclic_input (JOYSTICK_INPUT);

  0005f	c7 05 28 00 00
	00 02 00 00 00	 mov	 DWORD PTR ?global_options@@3UGLOBAL_OPTIONS_DATA@@A+40, 2
$LN3@notify_cyc:

; 2496 : 	}
; 2497 : 	if (command_line_cyclic_joystick_index != oldCyclicDevice)

  00069	a1 00 00 00 00	 mov	 eax, DWORD PTR ?command_line_cyclic_joystick_index@@3HA ; command_line_cyclic_joystick_index
  0006e	3b 45 f8	 cmp	 eax, DWORD PTR _oldCyclicDevice$[ebp]
  00071	74 3f		 je	 SHORT $LN4@notify_cyc

; 2498 : 	{
; 2499 : 		set_ui_object_text (cyclic_y_option_button, option_joystick_text[0]);

  00073	b8 04 00 00 00	 mov	 eax, 4
  00078	6b c8 00	 imul	 ecx, eax, 0
  0007b	8b 91 00 00 00
	00		 mov	 edx, DWORD PTR ?option_joystick_text@@3PAPBDA[ecx]
  00081	52		 push	 edx
  00082	a1 00 00 00 00	 mov	 eax, DWORD PTR ?cyclic_y_option_button@@3PAUUI_OBJECT@@A ; cyclic_y_option_button
  00087	50		 push	 eax
  00088	8b 0d 00 00 00
	00		 mov	 ecx, DWORD PTR ?cyclic_y_option_button@@3PAUUI_OBJECT@@A ; cyclic_y_option_button
  0008e	8b 11		 mov	 edx, DWORD PTR [ecx]
  00090	8b 04 95 00 00
	00 00		 mov	 eax, DWORD PTR ?fn_set_ui_object_text@@3PAP6GXPAUUI_OBJECT@@PBD@ZA[edx*4]
  00097	ff d0		 call	 eax

; 2500 : 		setAxisUnused(oldCyclicDevice,command_line_cyclic_joystick_y_axis);

  00099	a1 00 00 00 00	 mov	 eax, DWORD PTR ?command_line_cyclic_joystick_y_axis@@3HA ; command_line_cyclic_joystick_y_axis
  0009e	50		 push	 eax
  0009f	8b 4d f8	 mov	 ecx, DWORD PTR _oldCyclicDevice$[ebp]
  000a2	51		 push	 ecx
  000a3	e8 00 00 00 00	 call	 ?setAxisUnused@@YGXHH@Z	; setAxisUnused

; 2501 : 		command_line_cyclic_joystick_y_axis = -1;

  000a8	c7 05 00 00 00
	00 ff ff ff ff	 mov	 DWORD PTR ?command_line_cyclic_joystick_y_axis@@3HA, -1 ; command_line_cyclic_joystick_y_axis
$LN4@notify_cyc:

; 2502 : 	}
; 2503 : 
; 2504 : 	// ugh
; 2505 : 	notify_show_controller_page ();

  000b2	e8 00 00 00 00	 call	 ?notify_show_controller_page@@YGXXZ ; notify_show_controller_page

; 2506 : 
; 2507 : 	// don't leave text selected
; 2508 : 	set_toggle_button_off (obj);

  000b7	8b 45 08	 mov	 eax, DWORD PTR _obj$[ebp]
  000ba	50		 push	 eax
  000bb	e8 00 00 00 00	 call	 ?set_toggle_button_off@@YGXPAUUI_OBJECT@@@Z ; set_toggle_button_off

; 2509 : }

  000c0	5f		 pop	 edi
  000c1	5e		 pop	 esi
  000c2	5b		 pop	 ebx
  000c3	8b e5		 mov	 esp, ebp
  000c5	5d		 pop	 ebp
  000c6	c2 08 00	 ret	 8
?notify_cyclic_option_button_right@@YGXPAUUI_OBJECT@@PAX@Z ENDP ; notify_cyclic_option_button_right
_TEXT	ENDS
; Function compile flags: /Odtp /ZI
; File c:\users\nhv90\projects\eech\aphavoc\source\ui_menu\options\op_ctrlr.c
;	COMDAT ?notify_cyclic_option_button@@YGXPAUUI_OBJECT@@PAX@Z
_TEXT	SEGMENT
_oldCyclicDevice$ = -8					; size = 4
_AxisInfoIndex$ = -4					; size = 4
_obj$ = 8						; size = 4
_arg$ = 12						; size = 4
?notify_cyclic_option_button@@YGXPAUUI_OBJECT@@PAX@Z PROC ; notify_cyclic_option_button, COMDAT

; 2430 : {

  00000	55		 push	 ebp
  00001	8b ec		 mov	 ebp, esp
  00003	83 ec 48	 sub	 esp, 72			; 00000048H
  00006	53		 push	 ebx
  00007	56		 push	 esi
  00008	57		 push	 edi

; 2431 : #if 0 // Retro 10Jul2004
; 2432 : 	if ( (number_of_joystick_devices) && (get_global_cyclic_input () == KEYBOARD_INPUT) )
; 2433 : 	{
; 2434 : 			set_global_cyclic_input (JOYSTICK_INPUT);
; 2435 : 			
; 2436 : 			set_ui_object_text (cyclic_option_button, option_joystick_text[1]);
; 2437 : 	}
; 2438 : 	else
; 2439 : 	{
; 2440 : 		set_global_cyclic_input (KEYBOARD_INPUT);
; 2441 : 
; 2442 : 		set_ui_object_text (cyclic_option_button, option_joystick_text[0]);
; 2443 : 	}
; 2444 : #else
; 2445 : 	int AxisInfoIndex;
; 2446 : 	int oldCyclicDevice = command_line_cyclic_joystick_index;

  00009	a1 00 00 00 00	 mov	 eax, DWORD PTR ?command_line_cyclic_joystick_index@@3HA ; command_line_cyclic_joystick_index
  0000e	89 45 f8	 mov	 DWORD PTR _oldCyclicDevice$[ebp], eax

; 2447 : 
; 2448 : 	AxisInfoIndex = findNextUnusedAxis(command_line_cyclic_joystick_index,command_line_cyclic_joystick_x_axis);

  00011	a1 00 00 00 00	 mov	 eax, DWORD PTR ?command_line_cyclic_joystick_x_axis@@3HA ; command_line_cyclic_joystick_x_axis
  00016	50		 push	 eax
  00017	8b 0d 00 00 00
	00		 mov	 ecx, DWORD PTR ?command_line_cyclic_joystick_index@@3HA ; command_line_cyclic_joystick_index
  0001d	51		 push	 ecx
  0001e	e8 00 00 00 00	 call	 ?findNextUnusedAxis@@YGHHH@Z ; findNextUnusedAxis
  00023	89 45 fc	 mov	 DWORD PTR _AxisInfoIndex$[ebp], eax

; 2449 : 
; 2450 : 	command_line_cyclic_joystick_index = AxisInfo[AxisInfoIndex].device;

  00026	8b 45 fc	 mov	 eax, DWORD PTR _AxisInfoIndex$[ebp]
  00029	c1 e0 04	 shl	 eax, 4
  0002c	8b 88 04 00 00
	00		 mov	 ecx, DWORD PTR ?AxisInfo@@3PAUAxisInfo_t@@A[eax+4]
  00032	89 0d 00 00 00
	00		 mov	 DWORD PTR ?command_line_cyclic_joystick_index@@3HA, ecx ; command_line_cyclic_joystick_index

; 2451 : 	command_line_cyclic_joystick_x_axis = AxisInfo[AxisInfoIndex].axis;

  00038	8b 45 fc	 mov	 eax, DWORD PTR _AxisInfoIndex$[ebp]
  0003b	c1 e0 04	 shl	 eax, 4
  0003e	8b 88 08 00 00
	00		 mov	 ecx, DWORD PTR ?AxisInfo@@3PAUAxisInfo_t@@A[eax+8]
  00044	89 0d 00 00 00
	00		 mov	 DWORD PTR ?command_line_cyclic_joystick_x_axis@@3HA, ecx ; command_line_cyclic_joystick_x_axis

; 2452 : 
; 2453 : 	if (command_line_cyclic_joystick_index == -1)

  0004a	83 3d 00 00 00
	00 ff		 cmp	 DWORD PTR ?command_line_cyclic_joystick_index@@3HA, -1 ; command_line_cyclic_joystick_index
  00051	75 0c		 jne	 SHORT $LN2@notify_cyc

; 2454 : 	{
; 2455 : 		set_global_cyclic_input (KEYBOARD_INPUT);

  00053	c7 05 28 00 00
	00 01 00 00 00	 mov	 DWORD PTR ?global_options@@3UGLOBAL_OPTIONS_DATA@@A+40, 1

; 2456 : //R		set_global_joystick_device_index(-1);
; 2457 : 	}
; 2458 : 	else

  0005d	eb 0a		 jmp	 SHORT $LN3@notify_cyc
$LN2@notify_cyc:

; 2459 : 	{
; 2460 : 		set_global_cyclic_input (JOYSTICK_INPUT);

  0005f	c7 05 28 00 00
	00 02 00 00 00	 mov	 DWORD PTR ?global_options@@3UGLOBAL_OPTIONS_DATA@@A+40, 2
$LN3@notify_cyc:

; 2461 : //R		set_global_joystick_device_index(command_line_cyclic_joystick_index);
; 2462 : 	}
; 2463 : 
; 2464 : 	set_ui_object_text (cyclic_option_button, AxisInfo[AxisInfoIndex].AxisName);

  00069	8b 45 fc	 mov	 eax, DWORD PTR _AxisInfoIndex$[ebp]
  0006c	c1 e0 04	 shl	 eax, 4
  0006f	8b 88 00 00 00
	00		 mov	 ecx, DWORD PTR ?AxisInfo@@3PAUAxisInfo_t@@A[eax]
  00075	51		 push	 ecx
  00076	8b 15 00 00 00
	00		 mov	 edx, DWORD PTR ?cyclic_option_button@@3PAUUI_OBJECT@@A ; cyclic_option_button
  0007c	52		 push	 edx
  0007d	a1 00 00 00 00	 mov	 eax, DWORD PTR ?cyclic_option_button@@3PAUUI_OBJECT@@A ; cyclic_option_button
  00082	8b 08		 mov	 ecx, DWORD PTR [eax]
  00084	8b 14 8d 00 00
	00 00		 mov	 edx, DWORD PTR ?fn_set_ui_object_text@@3PAP6GXPAUUI_OBJECT@@PBD@ZA[ecx*4]
  0008b	ff d2		 call	 edx

; 2465 : 
; 2466 : 	if (command_line_cyclic_joystick_index != oldCyclicDevice)

  0008d	a1 00 00 00 00	 mov	 eax, DWORD PTR ?command_line_cyclic_joystick_index@@3HA ; command_line_cyclic_joystick_index
  00092	3b 45 f8	 cmp	 eax, DWORD PTR _oldCyclicDevice$[ebp]
  00095	74 3f		 je	 SHORT $LN4@notify_cyc

; 2467 : 	{
; 2468 : 		set_ui_object_text (cyclic_y_option_button, option_joystick_text[0]);

  00097	b8 04 00 00 00	 mov	 eax, 4
  0009c	6b c8 00	 imul	 ecx, eax, 0
  0009f	8b 91 00 00 00
	00		 mov	 edx, DWORD PTR ?option_joystick_text@@3PAPBDA[ecx]
  000a5	52		 push	 edx
  000a6	a1 00 00 00 00	 mov	 eax, DWORD PTR ?cyclic_y_option_button@@3PAUUI_OBJECT@@A ; cyclic_y_option_button
  000ab	50		 push	 eax
  000ac	8b 0d 00 00 00
	00		 mov	 ecx, DWORD PTR ?cyclic_y_option_button@@3PAUUI_OBJECT@@A ; cyclic_y_option_button
  000b2	8b 11		 mov	 edx, DWORD PTR [ecx]
  000b4	8b 04 95 00 00
	00 00		 mov	 eax, DWORD PTR ?fn_set_ui_object_text@@3PAP6GXPAUUI_OBJECT@@PBD@ZA[edx*4]
  000bb	ff d0		 call	 eax

; 2469 : 		setAxisUnused(oldCyclicDevice,command_line_cyclic_joystick_y_axis);

  000bd	a1 00 00 00 00	 mov	 eax, DWORD PTR ?command_line_cyclic_joystick_y_axis@@3HA ; command_line_cyclic_joystick_y_axis
  000c2	50		 push	 eax
  000c3	8b 4d f8	 mov	 ecx, DWORD PTR _oldCyclicDevice$[ebp]
  000c6	51		 push	 ecx
  000c7	e8 00 00 00 00	 call	 ?setAxisUnused@@YGXHH@Z	; setAxisUnused

; 2470 : 		command_line_cyclic_joystick_y_axis = -1;

  000cc	c7 05 00 00 00
	00 ff ff ff ff	 mov	 DWORD PTR ?command_line_cyclic_joystick_y_axis@@3HA, -1 ; command_line_cyclic_joystick_y_axis
$LN4@notify_cyc:

; 2471 : 	}
; 2472 : #endif  // Retro 10Jul2004
; 2473 : 
; 2474 : 	// don't leave text selected
; 2475 : 
; 2476 : 	set_toggle_button_off (obj);

  000d6	8b 45 08	 mov	 eax, DWORD PTR _obj$[ebp]
  000d9	50		 push	 eax
  000da	e8 00 00 00 00	 call	 ?set_toggle_button_off@@YGXPAUUI_OBJECT@@@Z ; set_toggle_button_off

; 2477 : }

  000df	5f		 pop	 edi
  000e0	5e		 pop	 esi
  000e1	5b		 pop	 ebx
  000e2	8b e5		 mov	 esp, ebp
  000e4	5d		 pop	 ebp
  000e5	c2 08 00	 ret	 8
?notify_cyclic_option_button@@YGXPAUUI_OBJECT@@PAX@Z ENDP ; notify_cyclic_option_button
_TEXT	ENDS
; Function compile flags: /Odtp /ZI
; File c:\users\nhv90\projects\eech\aphavoc\source\ui_menu\options\op_ctrlr.c
;	COMDAT ?define_options_screen_controller_page_objects@@YGXXZ
_TEXT	SEGMENT
tv5169 = -276						; size = 4
tv5061 = -276						; size = 4
tv5017 = -276						; size = 4
tv4973 = -276						; size = 4
tv4929 = -276						; size = 4
tv4885 = -276						; size = 4
tv4841 = -276						; size = 4
tv4797 = -276						; size = 4
tv4753 = -276						; size = 4
tv4709 = -276						; size = 4
tv4665 = -276						; size = 4
tv4621 = -276						; size = 4
tv4577 = -276						; size = 4
tv4533 = -276						; size = 4
tv5289 = -272						; size = 4
tv5287 = -272						; size = 4
tv5285 = -272						; size = 4
tv5283 = -272						; size = 4
tv5281 = -272						; size = 4
tv5215 = -272						; size = 4
tv5213 = -272						; size = 4
tv5211 = -272						; size = 4
tv5209 = -272						; size = 4
tv5207 = -272						; size = 4
tv5205 = -272						; size = 4
tv5203 = -272						; size = 4
tv5201 = -272						; size = 4
tv5199 = -272						; size = 4
tv5188 = -268						; size = 4
tv5161 = -268						; size = 4
tv5080 = -268						; size = 4
tv5053 = -268						; size = 4
tv5036 = -268						; size = 4
tv5009 = -268						; size = 4
tv4992 = -268						; size = 4
tv4965 = -268						; size = 4
tv4948 = -268						; size = 4
tv4921 = -268						; size = 4
tv4904 = -268						; size = 4
tv4877 = -268						; size = 4
tv4860 = -268						; size = 4
tv4833 = -268						; size = 4
tv4816 = -268						; size = 4
tv4789 = -268						; size = 4
tv4772 = -268						; size = 4
tv4745 = -268						; size = 4
tv4728 = -268						; size = 4
tv4701 = -268						; size = 4
tv4684 = -268						; size = 4
tv4657 = -268						; size = 4
tv4640 = -268						; size = 4
tv4613 = -268						; size = 4
tv4596 = -268						; size = 4
tv4569 = -268						; size = 4
tv4552 = -268						; size = 4
tv4525 = -268						; size = 4
_change_array$ = -200					; size = 56
_check_array$ = -144					; size = 60
_title_change_array$ = -84				; size = 60
_page$ = -24						; size = 4
_y2$ = -20						; size = 4
_x2$ = -16						; size = 4
_y1$ = -12						; size = 4
_x1$ = -8						; size = 4
_i$ = -4						; size = 4
?define_options_screen_controller_page_objects@@YGXXZ PROC ; define_options_screen_controller_page_objects, COMDAT

; 846  : {

  00000	55		 push	 ebp
  00001	8b ec		 mov	 ebp, esp
  00003	81 ec 14 01 00
	00		 sub	 esp, 276		; 00000114H
  00009	53		 push	 ebx
  0000a	56		 push	 esi
  0000b	57		 push	 edi

; 847  : 	int
; 848  : 		i = 0;

  0000c	c7 45 fc 00 00
	00 00		 mov	 DWORD PTR _i$[ebp], 0

; 849  : 		
; 850  : 	float
; 851  : 		x1,
; 852  : 		y1,
; 853  : 		x2,
; 854  : 		y2;
; 855  : 
; 856  : 	ui_object
; 857  : 		*page;
; 858  : 
; 859  : 	ui_object
; 860  : #if 0
; 861  : 		*title_change_array [14],
; 862  : 		*check_array [14],
; 863  : 		*change_array [14];
; 864  : #else
; 865  : 		*title_change_array[15],
; 866  : 		*check_array[15],
; 867  : 		*change_array[14];
; 868  : #endif
; 869  : 
; 870  : 	/////////////////////////////////////////////////////////////////
; 871  : 	// Initialise Button Strings
; 872  : 	
; 873  : 	option_joystick_text [0] = get_trans ("UI_KEYBOARD");

  00013	68 00 00 00 00	 push	 OFFSET ??_C@_0M@OKJDIGM@UI_KEYBOARD@
  00018	e8 00 00 00 00	 call	 ?get_trans@@YGPBDPBD@Z	; get_trans
  0001d	b9 04 00 00 00	 mov	 ecx, 4
  00022	6b d1 00	 imul	 edx, ecx, 0
  00025	89 82 00 00 00
	00		 mov	 DWORD PTR ?option_joystick_text@@3PAPBDA[edx], eax

; 874  : 	option_joystick_text [1] = get_trans ("UI_JOYSTICK");

  0002b	68 00 00 00 00	 push	 OFFSET ??_C@_0M@IGALKCN@UI_JOYSTICK@
  00030	e8 00 00 00 00	 call	 ?get_trans@@YGPBDPBD@Z	; get_trans
  00035	b9 04 00 00 00	 mov	 ecx, 4
  0003a	c1 e1 00	 shl	 ecx, 0
  0003d	89 81 00 00 00
	00		 mov	 DWORD PTR ?option_joystick_text@@3PAPBDA[ecx], eax

; 875  : 
; 876  : 	option_throttle_text [0] = get_trans ("UI_KEYBOARD");

  00043	68 00 00 00 00	 push	 OFFSET ??_C@_0M@OKJDIGM@UI_KEYBOARD@
  00048	e8 00 00 00 00	 call	 ?get_trans@@YGPBDPBD@Z	; get_trans
  0004d	b9 04 00 00 00	 mov	 ecx, 4
  00052	6b d1 00	 imul	 edx, ecx, 0
  00055	89 82 00 00 00
	00		 mov	 DWORD PTR ?option_throttle_text@@3PAPBDA[edx], eax

; 877  : 	option_throttle_text [1] = get_trans ("Throttle");

  0005b	68 00 00 00 00	 push	 OFFSET ??_C@_08GFLOAMK@Throttle@
  00060	e8 00 00 00 00	 call	 ?get_trans@@YGPBDPBD@Z	; get_trans
  00065	b9 04 00 00 00	 mov	 ecx, 4
  0006a	c1 e1 00	 shl	 ecx, 0
  0006d	89 81 00 00 00
	00		 mov	 DWORD PTR ?option_throttle_text@@3PAPBDA[ecx], eax

; 878  : 
; 879  : 	option_pedal_text [0] = get_trans ("UI_KEYBOARD");

  00073	68 00 00 00 00	 push	 OFFSET ??_C@_0M@OKJDIGM@UI_KEYBOARD@
  00078	e8 00 00 00 00	 call	 ?get_trans@@YGPBDPBD@Z	; get_trans
  0007d	b9 04 00 00 00	 mov	 ecx, 4
  00082	6b d1 00	 imul	 edx, ecx, 0
  00085	89 82 00 00 00
	00		 mov	 DWORD PTR ?option_pedal_text@@3PAPBDA[edx], eax

; 880  : 	option_pedal_text [1] = get_trans ("Rudder Pedals");

  0008b	68 00 00 00 00	 push	 OFFSET ??_C@_0O@EFFFJMKH@Rudder?5Pedals@
  00090	e8 00 00 00 00	 call	 ?get_trans@@YGPBDPBD@Z	; get_trans
  00095	b9 04 00 00 00	 mov	 ecx, 4
  0009a	c1 e1 00	 shl	 ecx, 0
  0009d	89 81 00 00 00
	00		 mov	 DWORD PTR ?option_pedal_text@@3PAPBDA[ecx], eax

; 881  : 
; 882  : 	no_joystick_text = get_trans ("UI_NONE_AVAILABLE");

  000a3	68 00 00 00 00	 push	 OFFSET ??_C@_0BC@DKDFCFEL@UI_NONE_AVAILABLE@
  000a8	e8 00 00 00 00	 call	 ?get_trans@@YGPBDPBD@Z	; get_trans
  000ad	a3 00 00 00 00	 mov	 DWORD PTR ?no_joystick_text@@3PBDB, eax

; 883  : 	
; 884  : 	option_boolean_text [0] = get_trans ("Off");

  000b2	68 00 00 00 00	 push	 OFFSET ??_C@_03GCDBBDDL@Off@
  000b7	e8 00 00 00 00	 call	 ?get_trans@@YGPBDPBD@Z	; get_trans
  000bc	b9 04 00 00 00	 mov	 ecx, 4
  000c1	6b d1 00	 imul	 edx, ecx, 0
  000c4	89 82 00 00 00
	00		 mov	 DWORD PTR ?option_boolean_text@@3PAPBDA[edx], eax

; 885  : 	option_boolean_text [1] = get_trans ("On");

  000ca	68 00 00 00 00	 push	 OFFSET ??_C@_02IAAGKKDJ@On@
  000cf	e8 00 00 00 00	 call	 ?get_trans@@YGPBDPBD@Z	; get_trans
  000d4	b9 04 00 00 00	 mov	 ecx, 4
  000d9	c1 e1 00	 shl	 ecx, 0
  000dc	89 81 00 00 00
	00		 mov	 DWORD PTR ?option_boolean_text@@3PAPBDA[ecx], eax

; 886  : 
; 887  : 	// Retro 27Nov2004
; 888  : 	option_mouselook_text[MOUSELOOK_OFF] = get_trans("Off");

  000e2	68 00 00 00 00	 push	 OFFSET ??_C@_03GCDBBDDL@Off@
  000e7	e8 00 00 00 00	 call	 ?get_trans@@YGPBDPBD@Z	; get_trans
  000ec	b9 04 00 00 00	 mov	 ecx, 4
  000f1	6b d1 00	 imul	 edx, ecx, 0
  000f4	89 82 00 00 00
	00		 mov	 DWORD PTR ?option_mouselook_text@@3PAPBDA[edx], eax

; 889  : 	option_mouselook_text[MOUSELOOK_INTERNAL] = get_trans("Internal");

  000fa	68 00 00 00 00	 push	 OFFSET ??_C@_08DGAODAHG@Internal@
  000ff	e8 00 00 00 00	 call	 ?get_trans@@YGPBDPBD@Z	; get_trans
  00104	b9 04 00 00 00	 mov	 ecx, 4
  00109	c1 e1 00	 shl	 ecx, 0
  0010c	89 81 00 00 00
	00		 mov	 DWORD PTR ?option_mouselook_text@@3PAPBDA[ecx], eax

; 890  : 	option_mouselook_text[MOUSELOOK_EXTERNAL] = get_trans("External");

  00112	68 00 00 00 00	 push	 OFFSET ??_C@_08GKOOPLMO@External@
  00117	e8 00 00 00 00	 call	 ?get_trans@@YGPBDPBD@Z	; get_trans
  0011c	b9 04 00 00 00	 mov	 ecx, 4
  00121	d1 e1		 shl	 ecx, 1
  00123	89 81 00 00 00
	00		 mov	 DWORD PTR ?option_mouselook_text@@3PAPBDA[ecx], eax

; 891  : 	option_mouselook_text[MOUSELOOK_ON] = get_trans("On");

  00129	68 00 00 00 00	 push	 OFFSET ??_C@_02IAAGKKDJ@On@
  0012e	e8 00 00 00 00	 call	 ?get_trans@@YGPBDPBD@Z	; get_trans
  00133	b9 04 00 00 00	 mov	 ecx, 4
  00138	6b d1 03	 imul	 edx, ecx, 3
  0013b	89 82 00 00 00
	00		 mov	 DWORD PTR ?option_mouselook_text@@3PAPBDA[edx], eax

; 892  : 	// Retro 27Nov2004 end
; 893  : 
; 894  : 	/////////////////////////////////////////////////////////////////
; 895  : 	// Controller Area
; 896  : 
; 897  : 	x1 = 0.0;

  00141	0f 57 c0	 xorps	 xmm0, xmm0
  00144	f3 0f 11 45 f8	 movss	 DWORD PTR _x1$[ebp], xmm0

; 898  : 	y1 = 0.0;

  00149	0f 57 c0	 xorps	 xmm0, xmm0
  0014c	f3 0f 11 45 f4	 movss	 DWORD PTR _y1$[ebp], xmm0

; 899  : 	x2 = 1.0;

  00151	f3 0f 10 05 00
	00 00 00	 movss	 xmm0, DWORD PTR __real@3f800000
  00159	f3 0f 11 45 f0	 movss	 DWORD PTR _x2$[ebp], xmm0

; 900  : 	y2 = 1.0;

  0015e	f3 0f 10 05 00
	00 00 00	 movss	 xmm0, DWORD PTR __real@3f800000
  00166	f3 0f 11 45 ec	 movss	 DWORD PTR _y2$[ebp], xmm0

; 901  : 
; 902  : 	options_page [OPTIONS_PAGE_CONTROLLER] = create_ui_object

  0016b	6a 11		 push	 17			; 00000011H
  0016d	6a 00		 push	 0
  0016f	6a 16		 push	 22			; 00000016H
  00171	6a 00		 push	 0
  00173	6a 10		 push	 16			; 00000010H
  00175	6a 01		 push	 1
  00177	6a 07		 push	 7
  00179	f3 0f 5a 45 ec	 cvtss2sd xmm0, DWORD PTR _y2$[ebp]
  0017e	83 ec 08	 sub	 esp, 8
  00181	f2 0f 11 04 24	 movsd	 QWORD PTR [esp], xmm0
  00186	f3 0f 5a 45 f0	 cvtss2sd xmm0, DWORD PTR _x2$[ebp]
  0018b	83 ec 08	 sub	 esp, 8
  0018e	f2 0f 11 04 24	 movsd	 QWORD PTR [esp], xmm0
  00193	6a 59		 push	 89			; 00000059H
  00195	f3 0f 5a 45 f4	 cvtss2sd xmm0, DWORD PTR _y1$[ebp]
  0019a	83 ec 08	 sub	 esp, 8
  0019d	f2 0f 11 04 24	 movsd	 QWORD PTR [esp], xmm0
  001a2	f3 0f 5a 45 f8	 cvtss2sd xmm0, DWORD PTR _x1$[ebp]
  001a7	83 ec 08	 sub	 esp, 8
  001aa	f2 0f 11 04 24	 movsd	 QWORD PTR [esp], xmm0
  001af	6a 58		 push	 88			; 00000058H
  001b1	a1 00 00 00 00	 mov	 eax, DWORD PTR ?options_screen@@3PAUUI_OBJECT@@A ; options_screen
  001b6	50		 push	 eax
  001b7	6a 32		 push	 50			; 00000032H
  001b9	6a 01		 push	 1
  001bb	e8 00 00 00 00	 call	 ?create_ui_object@@YAPAUUI_OBJECT@@HZZ ; create_ui_object
  001c0	83 c4 50	 add	 esp, 80			; 00000050H
  001c3	b9 04 00 00 00	 mov	 ecx, 4
  001c8	6b d1 00	 imul	 edx, ecx, 0
  001cb	89 82 00 00 00
	00		 mov	 DWORD PTR ?options_page@@3PAPAUUI_OBJECT@@A[edx], eax

; 903  : 			(
; 904  : 				UI_TYPE_AREA,
; 905  : 				UI_ATTR_PARENT (options_screen),
; 906  : 				UI_ATTR_VIRTUAL_POSITION (x1, y1),
; 907  : 				UI_ATTR_VIRTUAL_SIZE (x2, y2),
; 908  : 				UI_ATTR_CLEAR (TRUE),
; 909  : 				UI_ATTR_DRAWABLE (FALSE),
; 910  : 				UI_ATTR_FUNCTION (NOTIFY_TYPE_NONE),
; 911  : 				UI_ATTR_END
; 912  : 			);
; 913  : 
; 914  : 	page = options_page [OPTIONS_PAGE_CONTROLLER];

  001d1	b8 04 00 00 00	 mov	 eax, 4
  001d6	6b c8 00	 imul	 ecx, eax, 0
  001d9	8b 91 00 00 00
	00		 mov	 edx, DWORD PTR ?options_page@@3PAPAUUI_OBJECT@@A[ecx]
  001df	89 55 e8	 mov	 DWORD PTR _page$[ebp], edx

; 915  : 
; 916  : 	// areas and titles
; 917  : 
; 918  : 	// cyclic
; 919  : 
; 920  : 	x1 = 0.0; 

  001e2	0f 57 c0	 xorps	 xmm0, xmm0
  001e5	f3 0f 11 45 f8	 movss	 DWORD PTR _x1$[ebp], xmm0

; 921  : 	y1 = OPTION_TITLE_OFFSET_Y + (/*OPTION_AREA_OFFSET_Y*/OPTION_SMALL_AREA_OFFSET_Y * i);

  001ea	f3 0f 2a 45 fc	 cvtsi2ss xmm0, DWORD PTR _i$[ebp]
  001ef	f3 0f 59 05 00
	00 00 00	 mulss	 xmm0, DWORD PTR __real@3d343958
  001f7	f3 0f 58 05 00
	00 00 00	 addss	 xmm0, DWORD PTR __real@3e851eb8
  001ff	f3 0f 11 45 f4	 movss	 DWORD PTR _y1$[ebp], xmm0

; 922  : 
; 923  :    cyclic_area = create_ui_object

  00204	6a 11		 push	 17			; 00000011H
  00206	6a 01		 push	 1
  00208	6a 07		 push	 7
  0020a	83 ec 08	 sub	 esp, 8
  0020d	f2 0f 10 05 00
	00 00 00	 movsd	 xmm0, QWORD PTR __real@3fa47ae140000000
  00215	f2 0f 11 04 24	 movsd	 QWORD PTR [esp], xmm0
  0021a	83 ec 08	 sub	 esp, 8
  0021d	f2 0f 10 05 00
	00 00 00	 movsd	 xmm0, QWORD PTR __real@3ff0000000000000
  00225	f2 0f 11 04 24	 movsd	 QWORD PTR [esp], xmm0
  0022a	6a 59		 push	 89			; 00000059H
  0022c	f3 0f 5a 45 f4	 cvtss2sd xmm0, DWORD PTR _y1$[ebp]
  00231	83 ec 08	 sub	 esp, 8
  00234	f2 0f 11 04 24	 movsd	 QWORD PTR [esp], xmm0
  00239	f3 0f 5a 45 f8	 cvtss2sd xmm0, DWORD PTR _x1$[ebp]
  0023e	83 ec 08	 sub	 esp, 8
  00241	f2 0f 11 04 24	 movsd	 QWORD PTR [esp], xmm0
  00246	6a 58		 push	 88			; 00000058H
  00248	8b 45 e8	 mov	 eax, DWORD PTR _page$[ebp]
  0024b	50		 push	 eax
  0024c	6a 32		 push	 50			; 00000032H
  0024e	6a 01		 push	 1
  00250	e8 00 00 00 00	 call	 ?create_ui_object@@YAPAUUI_OBJECT@@HZZ ; create_ui_object
  00255	83 c4 40	 add	 esp, 64			; 00000040H
  00258	a3 00 00 00 00	 mov	 DWORD PTR ?cyclic_area@@3PAUUI_OBJECT@@A, eax ; cyclic_area

; 924  : 									(
; 925  : 										UI_TYPE_AREA,
; 926  : 										UI_ATTR_PARENT (page),
; 927  : 										UI_ATTR_VIRTUAL_POSITION (x1, y1),
; 928  : 										UI_ATTR_VIRTUAL_SIZE (OPTION_AREA_WIDTH, /*OPTION_AREA_HEIGHT*/OPTION_SMALL_AREA_HEIGHT),
; 929  : 										UI_ATTR_CLEAR (TRUE),
; 930  : 										UI_ATTR_END
; 931  : 									);
; 932  : 
; 933  : 	x1 = CONTROLLER_OPTION_TITLE_OFFSET_X;	// Retro 10Jul2004

  0025d	f3 0f 10 05 00
	00 00 00	 movss	 xmm0, DWORD PTR __real@3c23d70a
  00265	f3 0f 11 45 f8	 movss	 DWORD PTR _x1$[ebp], xmm0

; 934  : 	y1 = 0.0; 

  0026a	0f 57 c0	 xorps	 xmm0, xmm0
  0026d	f3 0f 11 45 f4	 movss	 DWORD PTR _y1$[ebp], xmm0

; 935  : 
; 936  : 	title_change_array[i] = create_ui_object

  00272	6a 11		 push	 17			; 00000011H
  00274	68 ff 00 00 00	 push	 255			; 000000ffH
  00279	68 ff 00 00 00	 push	 255			; 000000ffH
  0027e	68 ff 00 00 00	 push	 255			; 000000ffH
  00283	68 ff 00 00 00	 push	 255			; 000000ffH
  00288	6a 0a		 push	 10			; 0000000aH
  0028a	6a 00		 push	 0
  0028c	68 ff 00 00 00	 push	 255			; 000000ffH
  00291	68 ff 00 00 00	 push	 255			; 000000ffH
  00296	68 ff 00 00 00	 push	 255			; 000000ffH
  0029b	6a 0b		 push	 11			; 0000000bH
  0029d	a1 00 00 00 00	 mov	 eax, DWORD PTR ?options_box_large@@3PAUTEXTURE_GRAPHIC@@A ; options_box_large
  002a2	50		 push	 eax
  002a3	6a 4c		 push	 76			; 0000004cH
  002a5	83 ec 08	 sub	 esp, 8
  002a8	f2 0f 10 05 00
	00 00 00	 movsd	 xmm0, QWORD PTR __real@3ff0000000000000
  002b0	f2 0f 11 04 24	 movsd	 QWORD PTR [esp], xmm0
  002b5	83 ec 08	 sub	 esp, 8
  002b8	f2 0f 10 05 00
	00 00 00	 movsd	 xmm0, QWORD PTR __real@3fd3126ea0000000
  002c0	f2 0f 11 04 24	 movsd	 QWORD PTR [esp], xmm0
  002c5	6a 59		 push	 89			; 00000059H
  002c7	f3 0f 5a 45 f4	 cvtss2sd xmm0, DWORD PTR _y1$[ebp]
  002cc	83 ec 08	 sub	 esp, 8
  002cf	f2 0f 11 04 24	 movsd	 QWORD PTR [esp], xmm0
  002d4	f3 0f 5a 45 f8	 cvtss2sd xmm0, DWORD PTR _x1$[ebp]
  002d9	83 ec 08	 sub	 esp, 8
  002dc	f2 0f 11 04 24	 movsd	 QWORD PTR [esp], xmm0
  002e1	6a 58		 push	 88			; 00000058H
  002e3	8b 0d 00 00 00
	00		 mov	 ecx, DWORD PTR ?cyclic_area@@3PAUUI_OBJECT@@A ; cyclic_area
  002e9	51		 push	 ecx
  002ea	6a 32		 push	 50			; 00000032H
  002ec	6a 01		 push	 1
  002ee	e8 00 00 00 00	 call	 ?create_ui_object@@YAPAUUI_OBJECT@@HZZ ; create_ui_object
  002f3	83 c4 68	 add	 esp, 104		; 00000068H
  002f6	8b 55 fc	 mov	 edx, DWORD PTR _i$[ebp]
  002f9	89 44 95 ac	 mov	 DWORD PTR _title_change_array$[ebp+edx*4], eax

; 937  : 	(
; 938  : 		UI_TYPE_AREA,
; 939  : 		UI_ATTR_PARENT (cyclic_area),
; 940  : 		UI_ATTR_VIRTUAL_POSITION (x1, y1),
; 941  : 		UI_ATTR_VIRTUAL_SIZE (OPTION_BOX_WIDTH, OPTION_BOX_HEIGHT),
; 942  : 		UI_ATTR_TEXTURE_GRAPHIC (options_box_large),
; 943  : 		UI_ATTR_COLOUR_START (255, 255, 255, 0),
; 944  : 		UI_ATTR_COLOUR_END (255, 255, 255, 255),
; 945  : 		UI_ATTR_END
; 946  : 	);
; 947  : 
; 948  :    check_array[i] = create_ui_object

  002fd	6a 11		 push	 17			; 00000011H
  002ff	68 00 00 00 00	 push	 OFFSET ??_C@_0M@BNHKHIOK@Cyclic?5Roll@
  00304	e8 00 00 00 00	 call	 ?get_trans@@YGPBDPBD@Z	; get_trans
  00309	50		 push	 eax
  0030a	6a 4a		 push	 74			; 0000004aH
  0030c	6a 02		 push	 2
  0030e	6a 4b		 push	 75			; 0000004bH
  00310	83 ec 08	 sub	 esp, 8
  00313	f2 0f 10 05 00
	00 00 00	 movsd	 xmm0, QWORD PTR __real@3fc24dd300000000
  0031b	f2 0f 11 04 24	 movsd	 QWORD PTR [esp], xmm0
  00320	83 ec 08	 sub	 esp, 8
  00323	f2 0f 10 05 00
	00 00 00	 movsd	 xmm0, QWORD PTR __real@3fee666660000000
  0032b	f2 0f 11 04 24	 movsd	 QWORD PTR [esp], xmm0
  00330	6a 58		 push	 88			; 00000058H
  00332	68 ff 00 00 00	 push	 255			; 000000ffH
  00337	0f b6 05 00 00
	00 00		 movzx	 eax, BYTE PTR ?ui_option_title_text_colour@@3UREAL_COLOUR@@A
  0033e	50		 push	 eax
  0033f	0f b6 0d 01 00
	00 00		 movzx	 ecx, BYTE PTR ?ui_option_title_text_colour@@3UREAL_COLOUR@@A+1
  00346	51		 push	 ecx
  00347	0f b6 15 02 00
	00 00		 movzx	 edx, BYTE PTR ?ui_option_title_text_colour@@3UREAL_COLOUR@@A+2
  0034e	52		 push	 edx
  0034f	6a 14		 push	 20			; 00000014H
  00351	6a 00		 push	 0
  00353	0f b6 05 00 00
	00 00		 movzx	 eax, BYTE PTR ?ui_option_title_text_colour@@3UREAL_COLOUR@@A
  0035a	50		 push	 eax
  0035b	0f b6 0d 01 00
	00 00		 movzx	 ecx, BYTE PTR ?ui_option_title_text_colour@@3UREAL_COLOUR@@A+1
  00362	51		 push	 ecx
  00363	0f b6 15 02 00
	00 00		 movzx	 edx, BYTE PTR ?ui_option_title_text_colour@@3UREAL_COLOUR@@A+2
  0036a	52		 push	 edx
  0036b	6a 15		 push	 21			; 00000015H
  0036d	6a 01		 push	 1
  0036f	6a 12		 push	 18			; 00000012H
  00371	8b 45 fc	 mov	 eax, DWORD PTR _i$[ebp]
  00374	8b 4c 85 ac	 mov	 ecx, DWORD PTR _title_change_array$[ebp+eax*4]
  00378	51		 push	 ecx
  00379	6a 32		 push	 50			; 00000032H
  0037b	6a 05		 push	 5
  0037d	e8 00 00 00 00	 call	 ?create_ui_object@@YAPAUUI_OBJECT@@HZZ ; create_ui_object
  00382	83 c4 64	 add	 esp, 100		; 00000064H
  00385	8b 55 fc	 mov	 edx, DWORD PTR _i$[ebp]
  00388	89 84 95 70 ff
	ff ff		 mov	 DWORD PTR _check_array$[ebp+edx*4], eax

; 949  : 	(
; 950  : 		UI_TYPE_TEXT,
; 951  : 		UI_ATTR_PARENT (title_change_array [i]),
; 952  : 		UI_ATTR_FONT_TYPE (/*UI_FONT_THICK_ARIAL_18*/UI_FONT_ARIAL_14),
; 953  :       UI_ATTR_FONT_COLOUR_START (ui_option_title_text_colour.r, ui_option_title_text_colour.g, ui_option_title_text_colour.b, 0),
; 954  :       UI_ATTR_FONT_COLOUR_END (ui_option_title_text_colour.r, ui_option_title_text_colour.g, ui_option_title_text_colour.b, 255),
; 955  : 		UI_ATTR_VIRTUAL_POSITION (OPTION_BOX_TEXT_OFFSET_X, OPTION_BOX_TEXT_OFFSET_Y),
; 956  : 		UI_ATTR_TEXT_JUSTIFY (TEXT_JUSTIFY_RIGHT_CENTRE),
; 957  : //		UI_ATTR_TEXT (get_trans ("UI_CYCLIC")),
; 958  : 		UI_ATTR_TEXT (get_trans ("Cyclic Roll")),
; 959  : 		UI_ATTR_END
; 960  : 	);
; 961  : 
; 962  : 	preprocess_translation_object_size (title_change_array [i], check_array [i], NULL, 0, RESIZE_OPTION_BOX_TITLE);

  0038f	6a 00		 push	 0
  00391	6a 00		 push	 0
  00393	6a 00		 push	 0
  00395	8b 45 fc	 mov	 eax, DWORD PTR _i$[ebp]
  00398	8b 8c 85 70 ff
	ff ff		 mov	 ecx, DWORD PTR _check_array$[ebp+eax*4]
  0039f	51		 push	 ecx
  003a0	8b 55 fc	 mov	 edx, DWORD PTR _i$[ebp]
  003a3	8b 44 95 ac	 mov	 eax, DWORD PTR _title_change_array$[ebp+edx*4]
  003a7	50		 push	 eax
  003a8	e8 00 00 00 00	 call	 ?preprocess_translation_object_size@@YGXPAUUI_OBJECT@@0PAPBDHW4RESIZE_UI_OBJECT_TYPES@@@Z ; preprocess_translation_object_size

; 963  : 
; 964  : 	// Retro 10Jul2004
; 965  : 	// cyclic y axis
; 966  : 
; 967  : 	i++;

  003ad	8b 45 fc	 mov	 eax, DWORD PTR _i$[ebp]
  003b0	83 c0 01	 add	 eax, 1
  003b3	89 45 fc	 mov	 DWORD PTR _i$[ebp], eax

; 968  : 	x1 = 0.0; 

  003b6	0f 57 c0	 xorps	 xmm0, xmm0
  003b9	f3 0f 11 45 f8	 movss	 DWORD PTR _x1$[ebp], xmm0

; 969  : 	y1 = OPTION_TITLE_OFFSET_Y + (/*OPTION_AREA_OFFSET_Y*/OPTION_SMALL_AREA_OFFSET_Y * i);

  003be	f3 0f 2a 45 fc	 cvtsi2ss xmm0, DWORD PTR _i$[ebp]
  003c3	f3 0f 59 05 00
	00 00 00	 mulss	 xmm0, DWORD PTR __real@3d343958
  003cb	f3 0f 58 05 00
	00 00 00	 addss	 xmm0, DWORD PTR __real@3e851eb8
  003d3	f3 0f 11 45 f4	 movss	 DWORD PTR _y1$[ebp], xmm0

; 970  : 
; 971  :    cyclic_y_area = create_ui_object

  003d8	6a 11		 push	 17			; 00000011H
  003da	6a 01		 push	 1
  003dc	6a 07		 push	 7
  003de	83 ec 08	 sub	 esp, 8
  003e1	f2 0f 10 05 00
	00 00 00	 movsd	 xmm0, QWORD PTR __real@3fa47ae140000000
  003e9	f2 0f 11 04 24	 movsd	 QWORD PTR [esp], xmm0
  003ee	83 ec 08	 sub	 esp, 8
  003f1	f2 0f 10 05 00
	00 00 00	 movsd	 xmm0, QWORD PTR __real@3ff0000000000000
  003f9	f2 0f 11 04 24	 movsd	 QWORD PTR [esp], xmm0
  003fe	6a 59		 push	 89			; 00000059H
  00400	f3 0f 5a 45 f4	 cvtss2sd xmm0, DWORD PTR _y1$[ebp]
  00405	83 ec 08	 sub	 esp, 8
  00408	f2 0f 11 04 24	 movsd	 QWORD PTR [esp], xmm0
  0040d	f3 0f 5a 45 f8	 cvtss2sd xmm0, DWORD PTR _x1$[ebp]
  00412	83 ec 08	 sub	 esp, 8
  00415	f2 0f 11 04 24	 movsd	 QWORD PTR [esp], xmm0
  0041a	6a 58		 push	 88			; 00000058H
  0041c	8b 45 e8	 mov	 eax, DWORD PTR _page$[ebp]
  0041f	50		 push	 eax
  00420	6a 32		 push	 50			; 00000032H
  00422	6a 01		 push	 1
  00424	e8 00 00 00 00	 call	 ?create_ui_object@@YAPAUUI_OBJECT@@HZZ ; create_ui_object
  00429	83 c4 40	 add	 esp, 64			; 00000040H
  0042c	a3 00 00 00 00	 mov	 DWORD PTR ?cyclic_y_area@@3PAUUI_OBJECT@@A, eax ; cyclic_y_area

; 972  : 									(
; 973  : 										UI_TYPE_AREA,
; 974  : 										UI_ATTR_PARENT (page),
; 975  : 										UI_ATTR_VIRTUAL_POSITION (x1, y1),
; 976  : 										UI_ATTR_VIRTUAL_SIZE (OPTION_AREA_WIDTH, /*OPTION_AREA_HEIGHT*/OPTION_SMALL_AREA_HEIGHT),
; 977  : 										UI_ATTR_CLEAR (TRUE),
; 978  : 										UI_ATTR_END
; 979  : 									);
; 980  : 
; 981  : 	x1 = CONTROLLER_OPTION_TITLE_OFFSET_X;	// Retro 10Jul2004

  00431	f3 0f 10 05 00
	00 00 00	 movss	 xmm0, DWORD PTR __real@3c23d70a
  00439	f3 0f 11 45 f8	 movss	 DWORD PTR _x1$[ebp], xmm0

; 982  : 	y1 = 0.0; 

  0043e	0f 57 c0	 xorps	 xmm0, xmm0
  00441	f3 0f 11 45 f4	 movss	 DWORD PTR _y1$[ebp], xmm0

; 983  : 
; 984  : 	title_change_array[i] = create_ui_object

  00446	6a 11		 push	 17			; 00000011H
  00448	68 ff 00 00 00	 push	 255			; 000000ffH
  0044d	68 ff 00 00 00	 push	 255			; 000000ffH
  00452	68 ff 00 00 00	 push	 255			; 000000ffH
  00457	68 ff 00 00 00	 push	 255			; 000000ffH
  0045c	6a 0a		 push	 10			; 0000000aH
  0045e	6a 00		 push	 0
  00460	68 ff 00 00 00	 push	 255			; 000000ffH
  00465	68 ff 00 00 00	 push	 255			; 000000ffH
  0046a	68 ff 00 00 00	 push	 255			; 000000ffH
  0046f	6a 0b		 push	 11			; 0000000bH
  00471	a1 00 00 00 00	 mov	 eax, DWORD PTR ?options_box_large@@3PAUTEXTURE_GRAPHIC@@A ; options_box_large
  00476	50		 push	 eax
  00477	6a 4c		 push	 76			; 0000004cH
  00479	83 ec 08	 sub	 esp, 8
  0047c	f2 0f 10 05 00
	00 00 00	 movsd	 xmm0, QWORD PTR __real@3ff0000000000000
  00484	f2 0f 11 04 24	 movsd	 QWORD PTR [esp], xmm0
  00489	83 ec 08	 sub	 esp, 8
  0048c	f2 0f 10 05 00
	00 00 00	 movsd	 xmm0, QWORD PTR __real@3fd3126ea0000000
  00494	f2 0f 11 04 24	 movsd	 QWORD PTR [esp], xmm0
  00499	6a 59		 push	 89			; 00000059H
  0049b	f3 0f 5a 45 f4	 cvtss2sd xmm0, DWORD PTR _y1$[ebp]
  004a0	83 ec 08	 sub	 esp, 8
  004a3	f2 0f 11 04 24	 movsd	 QWORD PTR [esp], xmm0
  004a8	f3 0f 5a 45 f8	 cvtss2sd xmm0, DWORD PTR _x1$[ebp]
  004ad	83 ec 08	 sub	 esp, 8
  004b0	f2 0f 11 04 24	 movsd	 QWORD PTR [esp], xmm0
  004b5	6a 58		 push	 88			; 00000058H
  004b7	8b 0d 00 00 00
	00		 mov	 ecx, DWORD PTR ?cyclic_y_area@@3PAUUI_OBJECT@@A ; cyclic_y_area
  004bd	51		 push	 ecx
  004be	6a 32		 push	 50			; 00000032H
  004c0	6a 01		 push	 1
  004c2	e8 00 00 00 00	 call	 ?create_ui_object@@YAPAUUI_OBJECT@@HZZ ; create_ui_object
  004c7	83 c4 68	 add	 esp, 104		; 00000068H
  004ca	8b 55 fc	 mov	 edx, DWORD PTR _i$[ebp]
  004cd	89 44 95 ac	 mov	 DWORD PTR _title_change_array$[ebp+edx*4], eax

; 985  : 	(
; 986  : 		UI_TYPE_AREA,
; 987  : 		UI_ATTR_PARENT (cyclic_y_area),
; 988  : 		UI_ATTR_VIRTUAL_POSITION (x1, y1),
; 989  : 		UI_ATTR_VIRTUAL_SIZE (OPTION_BOX_WIDTH, OPTION_BOX_HEIGHT),
; 990  : 		UI_ATTR_TEXTURE_GRAPHIC (options_box_large),
; 991  : 		UI_ATTR_COLOUR_START (255, 255, 255, 0),
; 992  : 		UI_ATTR_COLOUR_END (255, 255, 255, 255),
; 993  : 		UI_ATTR_END
; 994  : 	);
; 995  : 
; 996  :    check_array[i] = create_ui_object

  004d1	6a 11		 push	 17			; 00000011H
  004d3	68 00 00 00 00	 push	 OFFSET ??_C@_0N@LBJPPMFH@Cyclic?5Pitch@
  004d8	e8 00 00 00 00	 call	 ?get_trans@@YGPBDPBD@Z	; get_trans
  004dd	50		 push	 eax
  004de	6a 4a		 push	 74			; 0000004aH
  004e0	6a 02		 push	 2
  004e2	6a 4b		 push	 75			; 0000004bH
  004e4	83 ec 08	 sub	 esp, 8
  004e7	f2 0f 10 05 00
	00 00 00	 movsd	 xmm0, QWORD PTR __real@3fc24dd300000000
  004ef	f2 0f 11 04 24	 movsd	 QWORD PTR [esp], xmm0
  004f4	83 ec 08	 sub	 esp, 8
  004f7	f2 0f 10 05 00
	00 00 00	 movsd	 xmm0, QWORD PTR __real@3fee666660000000
  004ff	f2 0f 11 04 24	 movsd	 QWORD PTR [esp], xmm0
  00504	6a 58		 push	 88			; 00000058H
  00506	68 ff 00 00 00	 push	 255			; 000000ffH
  0050b	0f b6 05 00 00
	00 00		 movzx	 eax, BYTE PTR ?ui_option_title_text_colour@@3UREAL_COLOUR@@A
  00512	50		 push	 eax
  00513	0f b6 0d 01 00
	00 00		 movzx	 ecx, BYTE PTR ?ui_option_title_text_colour@@3UREAL_COLOUR@@A+1
  0051a	51		 push	 ecx
  0051b	0f b6 15 02 00
	00 00		 movzx	 edx, BYTE PTR ?ui_option_title_text_colour@@3UREAL_COLOUR@@A+2
  00522	52		 push	 edx
  00523	6a 14		 push	 20			; 00000014H
  00525	6a 00		 push	 0
  00527	0f b6 05 00 00
	00 00		 movzx	 eax, BYTE PTR ?ui_option_title_text_colour@@3UREAL_COLOUR@@A
  0052e	50		 push	 eax
  0052f	0f b6 0d 01 00
	00 00		 movzx	 ecx, BYTE PTR ?ui_option_title_text_colour@@3UREAL_COLOUR@@A+1
  00536	51		 push	 ecx
  00537	0f b6 15 02 00
	00 00		 movzx	 edx, BYTE PTR ?ui_option_title_text_colour@@3UREAL_COLOUR@@A+2
  0053e	52		 push	 edx
  0053f	6a 15		 push	 21			; 00000015H
  00541	6a 01		 push	 1
  00543	6a 12		 push	 18			; 00000012H
  00545	8b 45 fc	 mov	 eax, DWORD PTR _i$[ebp]
  00548	8b 4c 85 ac	 mov	 ecx, DWORD PTR _title_change_array$[ebp+eax*4]
  0054c	51		 push	 ecx
  0054d	6a 32		 push	 50			; 00000032H
  0054f	6a 05		 push	 5
  00551	e8 00 00 00 00	 call	 ?create_ui_object@@YAPAUUI_OBJECT@@HZZ ; create_ui_object
  00556	83 c4 64	 add	 esp, 100		; 00000064H
  00559	8b 55 fc	 mov	 edx, DWORD PTR _i$[ebp]
  0055c	89 84 95 70 ff
	ff ff		 mov	 DWORD PTR _check_array$[ebp+edx*4], eax

; 997  : 	(
; 998  : 		UI_TYPE_TEXT,
; 999  : 		UI_ATTR_PARENT (title_change_array [i]),
; 1000 : 		UI_ATTR_FONT_TYPE (/*UI_FONT_THICK_ARIAL_18*/UI_FONT_ARIAL_14),
; 1001 :       UI_ATTR_FONT_COLOUR_START (ui_option_title_text_colour.r, ui_option_title_text_colour.g, ui_option_title_text_colour.b, 0),
; 1002 :       UI_ATTR_FONT_COLOUR_END (ui_option_title_text_colour.r, ui_option_title_text_colour.g, ui_option_title_text_colour.b, 255),
; 1003 : 		UI_ATTR_VIRTUAL_POSITION (OPTION_BOX_TEXT_OFFSET_X, OPTION_BOX_TEXT_OFFSET_Y),
; 1004 : 		UI_ATTR_TEXT_JUSTIFY (TEXT_JUSTIFY_RIGHT_CENTRE),
; 1005 : 		UI_ATTR_TEXT (get_trans ("Cyclic Pitch")),
; 1006 : 		UI_ATTR_END
; 1007 : 	);
; 1008 : 
; 1009 : 	preprocess_translation_object_size (title_change_array [i], check_array [i], NULL, 0, RESIZE_OPTION_BOX_TITLE);

  00563	6a 00		 push	 0
  00565	6a 00		 push	 0
  00567	6a 00		 push	 0
  00569	8b 45 fc	 mov	 eax, DWORD PTR _i$[ebp]
  0056c	8b 8c 85 70 ff
	ff ff		 mov	 ecx, DWORD PTR _check_array$[ebp+eax*4]
  00573	51		 push	 ecx
  00574	8b 55 fc	 mov	 edx, DWORD PTR _i$[ebp]
  00577	8b 44 95 ac	 mov	 eax, DWORD PTR _title_change_array$[ebp+edx*4]
  0057b	50		 push	 eax
  0057c	e8 00 00 00 00	 call	 ?preprocess_translation_object_size@@YGXPAUUI_OBJECT@@0PAPBDHW4RESIZE_UI_OBJECT_TYPES@@@Z ; preprocess_translation_object_size

; 1010 : 	// Retro 10Jul2004 end
; 1011 : 
; 1012 : 	// collective
; 1013 : 
; 1014 : 	i++;

  00581	8b 45 fc	 mov	 eax, DWORD PTR _i$[ebp]
  00584	83 c0 01	 add	 eax, 1
  00587	89 45 fc	 mov	 DWORD PTR _i$[ebp], eax

; 1015 : 	x1 = 0.0; 

  0058a	0f 57 c0	 xorps	 xmm0, xmm0
  0058d	f3 0f 11 45 f8	 movss	 DWORD PTR _x1$[ebp], xmm0

; 1016 : 	y1 = OPTION_TITLE_OFFSET_Y + (/*OPTION_AREA_OFFSET_Y*/OPTION_SMALL_AREA_OFFSET_Y * i);

  00592	f3 0f 2a 45 fc	 cvtsi2ss xmm0, DWORD PTR _i$[ebp]
  00597	f3 0f 59 05 00
	00 00 00	 mulss	 xmm0, DWORD PTR __real@3d343958
  0059f	f3 0f 58 05 00
	00 00 00	 addss	 xmm0, DWORD PTR __real@3e851eb8
  005a7	f3 0f 11 45 f4	 movss	 DWORD PTR _y1$[ebp], xmm0

; 1017 : 
; 1018 :    collective_area = create_ui_object

  005ac	6a 11		 push	 17			; 00000011H
  005ae	6a 01		 push	 1
  005b0	6a 07		 push	 7
  005b2	83 ec 08	 sub	 esp, 8
  005b5	f2 0f 10 05 00
	00 00 00	 movsd	 xmm0, QWORD PTR __real@3fa47ae140000000
  005bd	f2 0f 11 04 24	 movsd	 QWORD PTR [esp], xmm0
  005c2	83 ec 08	 sub	 esp, 8
  005c5	f2 0f 10 05 00
	00 00 00	 movsd	 xmm0, QWORD PTR __real@3ff0000000000000
  005cd	f2 0f 11 04 24	 movsd	 QWORD PTR [esp], xmm0
  005d2	6a 59		 push	 89			; 00000059H
  005d4	f3 0f 5a 45 f4	 cvtss2sd xmm0, DWORD PTR _y1$[ebp]
  005d9	83 ec 08	 sub	 esp, 8
  005dc	f2 0f 11 04 24	 movsd	 QWORD PTR [esp], xmm0
  005e1	f3 0f 5a 45 f8	 cvtss2sd xmm0, DWORD PTR _x1$[ebp]
  005e6	83 ec 08	 sub	 esp, 8
  005e9	f2 0f 11 04 24	 movsd	 QWORD PTR [esp], xmm0
  005ee	6a 58		 push	 88			; 00000058H
  005f0	8b 45 e8	 mov	 eax, DWORD PTR _page$[ebp]
  005f3	50		 push	 eax
  005f4	6a 32		 push	 50			; 00000032H
  005f6	6a 01		 push	 1
  005f8	e8 00 00 00 00	 call	 ?create_ui_object@@YAPAUUI_OBJECT@@HZZ ; create_ui_object
  005fd	83 c4 40	 add	 esp, 64			; 00000040H
  00600	a3 00 00 00 00	 mov	 DWORD PTR ?collective_area@@3PAUUI_OBJECT@@A, eax ; collective_area

; 1019 : 								(
; 1020 : 									UI_TYPE_AREA,
; 1021 : 									UI_ATTR_PARENT ( page ),
; 1022 : 									UI_ATTR_VIRTUAL_POSITION (x1, y1),
; 1023 : 									UI_ATTR_VIRTUAL_SIZE (OPTION_AREA_WIDTH, /*OPTION_AREA_HEIGHT*/OPTION_SMALL_AREA_HEIGHT),
; 1024 : 									UI_ATTR_CLEAR (TRUE),
; 1025 : 									UI_ATTR_END
; 1026 : 								);
; 1027 : 
; 1028 : 	x1 = CONTROLLER_OPTION_TITLE_OFFSET_X;	// Retro 10Jul2004

  00605	f3 0f 10 05 00
	00 00 00	 movss	 xmm0, DWORD PTR __real@3c23d70a
  0060d	f3 0f 11 45 f8	 movss	 DWORD PTR _x1$[ebp], xmm0

; 1029 : 	y1 = 0.0; 

  00612	0f 57 c0	 xorps	 xmm0, xmm0
  00615	f3 0f 11 45 f4	 movss	 DWORD PTR _y1$[ebp], xmm0

; 1030 : 
; 1031 : 	title_change_array[i] = create_ui_object

  0061a	6a 11		 push	 17			; 00000011H
  0061c	68 ff 00 00 00	 push	 255			; 000000ffH
  00621	68 ff 00 00 00	 push	 255			; 000000ffH
  00626	68 ff 00 00 00	 push	 255			; 000000ffH
  0062b	68 ff 00 00 00	 push	 255			; 000000ffH
  00630	6a 0a		 push	 10			; 0000000aH
  00632	6a 00		 push	 0
  00634	68 ff 00 00 00	 push	 255			; 000000ffH
  00639	68 ff 00 00 00	 push	 255			; 000000ffH
  0063e	68 ff 00 00 00	 push	 255			; 000000ffH
  00643	6a 0b		 push	 11			; 0000000bH
  00645	a1 00 00 00 00	 mov	 eax, DWORD PTR ?options_box_large@@3PAUTEXTURE_GRAPHIC@@A ; options_box_large
  0064a	50		 push	 eax
  0064b	6a 4c		 push	 76			; 0000004cH
  0064d	83 ec 08	 sub	 esp, 8
  00650	f2 0f 10 05 00
	00 00 00	 movsd	 xmm0, QWORD PTR __real@3ff0000000000000
  00658	f2 0f 11 04 24	 movsd	 QWORD PTR [esp], xmm0
  0065d	83 ec 08	 sub	 esp, 8
  00660	f2 0f 10 05 00
	00 00 00	 movsd	 xmm0, QWORD PTR __real@3fd3126ea0000000
  00668	f2 0f 11 04 24	 movsd	 QWORD PTR [esp], xmm0
  0066d	6a 59		 push	 89			; 00000059H
  0066f	f3 0f 5a 45 f4	 cvtss2sd xmm0, DWORD PTR _y1$[ebp]
  00674	83 ec 08	 sub	 esp, 8
  00677	f2 0f 11 04 24	 movsd	 QWORD PTR [esp], xmm0
  0067c	f3 0f 5a 45 f8	 cvtss2sd xmm0, DWORD PTR _x1$[ebp]
  00681	83 ec 08	 sub	 esp, 8
  00684	f2 0f 11 04 24	 movsd	 QWORD PTR [esp], xmm0
  00689	6a 58		 push	 88			; 00000058H
  0068b	8b 0d 00 00 00
	00		 mov	 ecx, DWORD PTR ?collective_area@@3PAUUI_OBJECT@@A ; collective_area
  00691	51		 push	 ecx
  00692	6a 32		 push	 50			; 00000032H
  00694	6a 01		 push	 1
  00696	e8 00 00 00 00	 call	 ?create_ui_object@@YAPAUUI_OBJECT@@HZZ ; create_ui_object
  0069b	83 c4 68	 add	 esp, 104		; 00000068H
  0069e	8b 55 fc	 mov	 edx, DWORD PTR _i$[ebp]
  006a1	89 44 95 ac	 mov	 DWORD PTR _title_change_array$[ebp+edx*4], eax

; 1032 : 	(
; 1033 : 		UI_TYPE_AREA,
; 1034 : 		UI_ATTR_PARENT (collective_area),
; 1035 : 		UI_ATTR_VIRTUAL_POSITION (x1, y1),
; 1036 : 		UI_ATTR_VIRTUAL_SIZE (OPTION_BOX_WIDTH, OPTION_BOX_HEIGHT),
; 1037 : 		UI_ATTR_TEXTURE_GRAPHIC (options_box_large),
; 1038 : 		UI_ATTR_COLOUR_START (255, 255, 255, 0),
; 1039 : 		UI_ATTR_COLOUR_END (255, 255, 255, 255),
; 1040 : 		UI_ATTR_END
; 1041 : 	);
; 1042 : 
; 1043 :    check_array[i] = create_ui_object

  006a5	6a 11		 push	 17			; 00000011H
  006a7	68 00 00 00 00	 push	 OFFSET ??_C@_0O@MONLMMGG@UI_COLLECTIVE@
  006ac	e8 00 00 00 00	 call	 ?get_trans@@YGPBDPBD@Z	; get_trans
  006b1	50		 push	 eax
  006b2	6a 4a		 push	 74			; 0000004aH
  006b4	6a 02		 push	 2
  006b6	6a 4b		 push	 75			; 0000004bH
  006b8	83 ec 08	 sub	 esp, 8
  006bb	f2 0f 10 05 00
	00 00 00	 movsd	 xmm0, QWORD PTR __real@3fc24dd300000000
  006c3	f2 0f 11 04 24	 movsd	 QWORD PTR [esp], xmm0
  006c8	83 ec 08	 sub	 esp, 8
  006cb	f2 0f 10 05 00
	00 00 00	 movsd	 xmm0, QWORD PTR __real@3fee666660000000
  006d3	f2 0f 11 04 24	 movsd	 QWORD PTR [esp], xmm0
  006d8	6a 58		 push	 88			; 00000058H
  006da	68 ff 00 00 00	 push	 255			; 000000ffH
  006df	0f b6 05 00 00
	00 00		 movzx	 eax, BYTE PTR ?ui_option_title_text_colour@@3UREAL_COLOUR@@A
  006e6	50		 push	 eax
  006e7	0f b6 0d 01 00
	00 00		 movzx	 ecx, BYTE PTR ?ui_option_title_text_colour@@3UREAL_COLOUR@@A+1
  006ee	51		 push	 ecx
  006ef	0f b6 15 02 00
	00 00		 movzx	 edx, BYTE PTR ?ui_option_title_text_colour@@3UREAL_COLOUR@@A+2
  006f6	52		 push	 edx
  006f7	6a 14		 push	 20			; 00000014H
  006f9	6a 00		 push	 0
  006fb	0f b6 05 00 00
	00 00		 movzx	 eax, BYTE PTR ?ui_option_title_text_colour@@3UREAL_COLOUR@@A
  00702	50		 push	 eax
  00703	0f b6 0d 01 00
	00 00		 movzx	 ecx, BYTE PTR ?ui_option_title_text_colour@@3UREAL_COLOUR@@A+1
  0070a	51		 push	 ecx
  0070b	0f b6 15 02 00
	00 00		 movzx	 edx, BYTE PTR ?ui_option_title_text_colour@@3UREAL_COLOUR@@A+2
  00712	52		 push	 edx
  00713	6a 15		 push	 21			; 00000015H
  00715	6a 01		 push	 1
  00717	6a 12		 push	 18			; 00000012H
  00719	8b 45 fc	 mov	 eax, DWORD PTR _i$[ebp]
  0071c	8b 4c 85 ac	 mov	 ecx, DWORD PTR _title_change_array$[ebp+eax*4]
  00720	51		 push	 ecx
  00721	6a 32		 push	 50			; 00000032H
  00723	6a 05		 push	 5
  00725	e8 00 00 00 00	 call	 ?create_ui_object@@YAPAUUI_OBJECT@@HZZ ; create_ui_object
  0072a	83 c4 64	 add	 esp, 100		; 00000064H
  0072d	8b 55 fc	 mov	 edx, DWORD PTR _i$[ebp]
  00730	89 84 95 70 ff
	ff ff		 mov	 DWORD PTR _check_array$[ebp+edx*4], eax

; 1044 : 	(
; 1045 : 		UI_TYPE_TEXT,
; 1046 : 		UI_ATTR_PARENT (title_change_array [i]),
; 1047 : 		UI_ATTR_FONT_TYPE (/*UI_FONT_THICK_ARIAL_18*/UI_FONT_ARIAL_14),
; 1048 :       UI_ATTR_FONT_COLOUR_START (ui_option_title_text_colour.r, ui_option_title_text_colour.g, ui_option_title_text_colour.b, 0),
; 1049 :       UI_ATTR_FONT_COLOUR_END (ui_option_title_text_colour.r, ui_option_title_text_colour.g, ui_option_title_text_colour.b, 255),
; 1050 : 		UI_ATTR_VIRTUAL_POSITION (OPTION_BOX_TEXT_OFFSET_X, OPTION_BOX_TEXT_OFFSET_Y),
; 1051 : 		UI_ATTR_TEXT_JUSTIFY (TEXT_JUSTIFY_RIGHT_CENTRE),
; 1052 : 		UI_ATTR_TEXT (get_trans ("UI_COLLECTIVE")),
; 1053 : 		UI_ATTR_END
; 1054 : 	);
; 1055 : 
; 1056 : 	preprocess_translation_object_size (title_change_array [i], check_array [i], NULL, 0, RESIZE_OPTION_BOX_TITLE);

  00737	6a 00		 push	 0
  00739	6a 00		 push	 0
  0073b	6a 00		 push	 0
  0073d	8b 45 fc	 mov	 eax, DWORD PTR _i$[ebp]
  00740	8b 8c 85 70 ff
	ff ff		 mov	 ecx, DWORD PTR _check_array$[ebp+eax*4]
  00747	51		 push	 ecx
  00748	8b 55 fc	 mov	 edx, DWORD PTR _i$[ebp]
  0074b	8b 44 95 ac	 mov	 eax, DWORD PTR _title_change_array$[ebp+edx*4]
  0074f	50		 push	 eax
  00750	e8 00 00 00 00	 call	 ?preprocess_translation_object_size@@YGXPAUUI_OBJECT@@0PAPBDHW4RESIZE_UI_OBJECT_TYPES@@@Z ; preprocess_translation_object_size

; 1057 : 
; 1058 : 	// pedal area
; 1059 : 	
; 1060 : 	i++;

  00755	8b 45 fc	 mov	 eax, DWORD PTR _i$[ebp]
  00758	83 c0 01	 add	 eax, 1
  0075b	89 45 fc	 mov	 DWORD PTR _i$[ebp], eax

; 1061 : 	x1 = 0.0; 

  0075e	0f 57 c0	 xorps	 xmm0, xmm0
  00761	f3 0f 11 45 f8	 movss	 DWORD PTR _x1$[ebp], xmm0

; 1062 : 	y1 = OPTION_TITLE_OFFSET_Y + (/*OPTION_AREA_OFFSET_Y*/OPTION_SMALL_AREA_OFFSET_Y * i);

  00766	f3 0f 2a 45 fc	 cvtsi2ss xmm0, DWORD PTR _i$[ebp]
  0076b	f3 0f 59 05 00
	00 00 00	 mulss	 xmm0, DWORD PTR __real@3d343958
  00773	f3 0f 58 05 00
	00 00 00	 addss	 xmm0, DWORD PTR __real@3e851eb8
  0077b	f3 0f 11 45 f4	 movss	 DWORD PTR _y1$[ebp], xmm0

; 1063 : 
; 1064 :    pedal_area = create_ui_object

  00780	6a 11		 push	 17			; 00000011H
  00782	6a 01		 push	 1
  00784	6a 07		 push	 7
  00786	83 ec 08	 sub	 esp, 8
  00789	f2 0f 10 05 00
	00 00 00	 movsd	 xmm0, QWORD PTR __real@3fa47ae140000000
  00791	f2 0f 11 04 24	 movsd	 QWORD PTR [esp], xmm0
  00796	83 ec 08	 sub	 esp, 8
  00799	f2 0f 10 05 00
	00 00 00	 movsd	 xmm0, QWORD PTR __real@3ff0000000000000
  007a1	f2 0f 11 04 24	 movsd	 QWORD PTR [esp], xmm0
  007a6	6a 59		 push	 89			; 00000059H
  007a8	f3 0f 5a 45 f4	 cvtss2sd xmm0, DWORD PTR _y1$[ebp]
  007ad	83 ec 08	 sub	 esp, 8
  007b0	f2 0f 11 04 24	 movsd	 QWORD PTR [esp], xmm0
  007b5	f3 0f 5a 45 f8	 cvtss2sd xmm0, DWORD PTR _x1$[ebp]
  007ba	83 ec 08	 sub	 esp, 8
  007bd	f2 0f 11 04 24	 movsd	 QWORD PTR [esp], xmm0
  007c2	6a 58		 push	 88			; 00000058H
  007c4	8b 45 e8	 mov	 eax, DWORD PTR _page$[ebp]
  007c7	50		 push	 eax
  007c8	6a 32		 push	 50			; 00000032H
  007ca	6a 01		 push	 1
  007cc	e8 00 00 00 00	 call	 ?create_ui_object@@YAPAUUI_OBJECT@@HZZ ; create_ui_object
  007d1	83 c4 40	 add	 esp, 64			; 00000040H
  007d4	a3 00 00 00 00	 mov	 DWORD PTR ?pedal_area@@3PAUUI_OBJECT@@A, eax ; pedal_area

; 1065 : 								(
; 1066 : 									UI_TYPE_AREA,
; 1067 : 									UI_ATTR_PARENT ( page ),
; 1068 : 									UI_ATTR_VIRTUAL_POSITION (x1, y1),
; 1069 : 									UI_ATTR_VIRTUAL_SIZE (OPTION_AREA_WIDTH, /*OPTION_AREA_HEIGHT*/OPTION_SMALL_AREA_HEIGHT),
; 1070 : 									UI_ATTR_CLEAR (TRUE),
; 1071 : 									UI_ATTR_END
; 1072 : 								);
; 1073 : 
; 1074 : 	x1 = CONTROLLER_OPTION_TITLE_OFFSET_X;	// Retro 10Jul2004

  007d9	f3 0f 10 05 00
	00 00 00	 movss	 xmm0, DWORD PTR __real@3c23d70a
  007e1	f3 0f 11 45 f8	 movss	 DWORD PTR _x1$[ebp], xmm0

; 1075 : 	y1 = 0.0; 

  007e6	0f 57 c0	 xorps	 xmm0, xmm0
  007e9	f3 0f 11 45 f4	 movss	 DWORD PTR _y1$[ebp], xmm0

; 1076 : 
; 1077 : 	title_change_array[i] = create_ui_object

  007ee	6a 11		 push	 17			; 00000011H
  007f0	68 ff 00 00 00	 push	 255			; 000000ffH
  007f5	68 ff 00 00 00	 push	 255			; 000000ffH
  007fa	68 ff 00 00 00	 push	 255			; 000000ffH
  007ff	68 ff 00 00 00	 push	 255			; 000000ffH
  00804	6a 0a		 push	 10			; 0000000aH
  00806	6a 00		 push	 0
  00808	68 ff 00 00 00	 push	 255			; 000000ffH
  0080d	68 ff 00 00 00	 push	 255			; 000000ffH
  00812	68 ff 00 00 00	 push	 255			; 000000ffH
  00817	6a 0b		 push	 11			; 0000000bH
  00819	a1 00 00 00 00	 mov	 eax, DWORD PTR ?options_box_large@@3PAUTEXTURE_GRAPHIC@@A ; options_box_large
  0081e	50		 push	 eax
  0081f	6a 4c		 push	 76			; 0000004cH
  00821	83 ec 08	 sub	 esp, 8
  00824	f2 0f 10 05 00
	00 00 00	 movsd	 xmm0, QWORD PTR __real@3ff0000000000000
  0082c	f2 0f 11 04 24	 movsd	 QWORD PTR [esp], xmm0
  00831	83 ec 08	 sub	 esp, 8
  00834	f2 0f 10 05 00
	00 00 00	 movsd	 xmm0, QWORD PTR __real@3fd3126ea0000000
  0083c	f2 0f 11 04 24	 movsd	 QWORD PTR [esp], xmm0
  00841	6a 59		 push	 89			; 00000059H
  00843	f3 0f 5a 45 f4	 cvtss2sd xmm0, DWORD PTR _y1$[ebp]
  00848	83 ec 08	 sub	 esp, 8
  0084b	f2 0f 11 04 24	 movsd	 QWORD PTR [esp], xmm0
  00850	f3 0f 5a 45 f8	 cvtss2sd xmm0, DWORD PTR _x1$[ebp]
  00855	83 ec 08	 sub	 esp, 8
  00858	f2 0f 11 04 24	 movsd	 QWORD PTR [esp], xmm0
  0085d	6a 58		 push	 88			; 00000058H
  0085f	8b 0d 00 00 00
	00		 mov	 ecx, DWORD PTR ?pedal_area@@3PAUUI_OBJECT@@A ; pedal_area
  00865	51		 push	 ecx
  00866	6a 32		 push	 50			; 00000032H
  00868	6a 01		 push	 1
  0086a	e8 00 00 00 00	 call	 ?create_ui_object@@YAPAUUI_OBJECT@@HZZ ; create_ui_object
  0086f	83 c4 68	 add	 esp, 104		; 00000068H
  00872	8b 55 fc	 mov	 edx, DWORD PTR _i$[ebp]
  00875	89 44 95 ac	 mov	 DWORD PTR _title_change_array$[ebp+edx*4], eax

; 1078 : 	(
; 1079 : 		UI_TYPE_AREA,
; 1080 : 		UI_ATTR_PARENT (pedal_area),
; 1081 : 		UI_ATTR_VIRTUAL_POSITION (x1, y1),
; 1082 : 		UI_ATTR_VIRTUAL_SIZE (OPTION_BOX_WIDTH, OPTION_BOX_HEIGHT),
; 1083 : 		UI_ATTR_TEXTURE_GRAPHIC (options_box_large),
; 1084 : 		UI_ATTR_COLOUR_START (255, 255, 255, 0),
; 1085 : 		UI_ATTR_COLOUR_END (255, 255, 255, 255),
; 1086 : 		UI_ATTR_END
; 1087 : 	);
; 1088 : 
; 1089 :    check_array[i] = create_ui_object

  00879	6a 11		 push	 17			; 00000011H
  0087b	68 00 00 00 00	 push	 OFFSET ??_C@_08GHADFIKK@UI_PEDAL@
  00880	e8 00 00 00 00	 call	 ?get_trans@@YGPBDPBD@Z	; get_trans
  00885	50		 push	 eax
  00886	6a 4a		 push	 74			; 0000004aH
  00888	6a 02		 push	 2
  0088a	6a 4b		 push	 75			; 0000004bH
  0088c	83 ec 08	 sub	 esp, 8
  0088f	f2 0f 10 05 00
	00 00 00	 movsd	 xmm0, QWORD PTR __real@3fc24dd300000000
  00897	f2 0f 11 04 24	 movsd	 QWORD PTR [esp], xmm0
  0089c	83 ec 08	 sub	 esp, 8
  0089f	f2 0f 10 05 00
	00 00 00	 movsd	 xmm0, QWORD PTR __real@3fee666660000000
  008a7	f2 0f 11 04 24	 movsd	 QWORD PTR [esp], xmm0
  008ac	6a 58		 push	 88			; 00000058H
  008ae	68 ff 00 00 00	 push	 255			; 000000ffH
  008b3	0f b6 05 00 00
	00 00		 movzx	 eax, BYTE PTR ?ui_option_title_text_colour@@3UREAL_COLOUR@@A
  008ba	50		 push	 eax
  008bb	0f b6 0d 01 00
	00 00		 movzx	 ecx, BYTE PTR ?ui_option_title_text_colour@@3UREAL_COLOUR@@A+1
  008c2	51		 push	 ecx
  008c3	0f b6 15 02 00
	00 00		 movzx	 edx, BYTE PTR ?ui_option_title_text_colour@@3UREAL_COLOUR@@A+2
  008ca	52		 push	 edx
  008cb	6a 14		 push	 20			; 00000014H
  008cd	6a 00		 push	 0
  008cf	0f b6 05 00 00
	00 00		 movzx	 eax, BYTE PTR ?ui_option_title_text_colour@@3UREAL_COLOUR@@A
  008d6	50		 push	 eax
  008d7	0f b6 0d 01 00
	00 00		 movzx	 ecx, BYTE PTR ?ui_option_title_text_colour@@3UREAL_COLOUR@@A+1
  008de	51		 push	 ecx
  008df	0f b6 15 02 00
	00 00		 movzx	 edx, BYTE PTR ?ui_option_title_text_colour@@3UREAL_COLOUR@@A+2
  008e6	52		 push	 edx
  008e7	6a 15		 push	 21			; 00000015H
  008e9	6a 01		 push	 1
  008eb	6a 12		 push	 18			; 00000012H
  008ed	8b 45 fc	 mov	 eax, DWORD PTR _i$[ebp]
  008f0	8b 4c 85 ac	 mov	 ecx, DWORD PTR _title_change_array$[ebp+eax*4]
  008f4	51		 push	 ecx
  008f5	6a 32		 push	 50			; 00000032H
  008f7	6a 05		 push	 5
  008f9	e8 00 00 00 00	 call	 ?create_ui_object@@YAPAUUI_OBJECT@@HZZ ; create_ui_object
  008fe	83 c4 64	 add	 esp, 100		; 00000064H
  00901	8b 55 fc	 mov	 edx, DWORD PTR _i$[ebp]
  00904	89 84 95 70 ff
	ff ff		 mov	 DWORD PTR _check_array$[ebp+edx*4], eax

; 1090 : 	(
; 1091 : 		UI_TYPE_TEXT,
; 1092 : 		UI_ATTR_PARENT (title_change_array [i]),
; 1093 : 		UI_ATTR_FONT_TYPE (/*UI_FONT_THICK_ARIAL_18*/UI_FONT_ARIAL_14),
; 1094 :       UI_ATTR_FONT_COLOUR_START (ui_option_title_text_colour.r, ui_option_title_text_colour.g, ui_option_title_text_colour.b, 0),
; 1095 :       UI_ATTR_FONT_COLOUR_END (ui_option_title_text_colour.r, ui_option_title_text_colour.g, ui_option_title_text_colour.b, 255),
; 1096 : 		UI_ATTR_VIRTUAL_POSITION (OPTION_BOX_TEXT_OFFSET_X, OPTION_BOX_TEXT_OFFSET_Y),
; 1097 : 		UI_ATTR_TEXT_JUSTIFY (TEXT_JUSTIFY_RIGHT_CENTRE),
; 1098 : 		UI_ATTR_TEXT (get_trans ("UI_PEDAL")),
; 1099 : 		UI_ATTR_END
; 1100 : 	);
; 1101 : 
; 1102 : 	preprocess_translation_object_size (title_change_array [i], check_array [i], NULL, 0, RESIZE_OPTION_BOX_TITLE);

  0090b	6a 00		 push	 0
  0090d	6a 00		 push	 0
  0090f	6a 00		 push	 0
  00911	8b 45 fc	 mov	 eax, DWORD PTR _i$[ebp]
  00914	8b 8c 85 70 ff
	ff ff		 mov	 ecx, DWORD PTR _check_array$[ebp+eax*4]
  0091b	51		 push	 ecx
  0091c	8b 55 fc	 mov	 edx, DWORD PTR _i$[ebp]
  0091f	8b 44 95 ac	 mov	 eax, DWORD PTR _title_change_array$[ebp+edx*4]
  00923	50		 push	 eax
  00924	e8 00 00 00 00	 call	 ?preprocess_translation_object_size@@YGXPAUUI_OBJECT@@0PAPBDHW4RESIZE_UI_OBJECT_TYPES@@@Z ; preprocess_translation_object_size

; 1103 : 
; 1104 : #if 0 //Retro10Jul2004_dead
; 1105 : 	//device area
; 1106 : 
; 1107 : 	i++;
; 1108 : 	x1 = 0.0; 
; 1109 : 	y1 = OPTION_TITLE_OFFSET_Y + (/*OPTION_AREA_OFFSET_Y*/OPTION_SMALL_AREA_OFFSET_Y * i);
; 1110 : 
; 1111 :    device_area = create_ui_object
; 1112 : 										(
; 1113 : 											UI_TYPE_AREA,
; 1114 : 											UI_ATTR_PARENT (page),
; 1115 : 											UI_ATTR_VIRTUAL_POSITION (x1, y1),
; 1116 : 											UI_ATTR_VIRTUAL_SIZE (OPTION_AREA_WIDTH, /*OPTION_AREA_HEIGHT*/OPTION_SMALL_AREA_HEIGHT),
; 1117 : 											UI_ATTR_CLEAR (TRUE),
; 1118 : 											UI_ATTR_END
; 1119 : 										);
; 1120 : 
; 1121 : 	x1 = CONTROLLER_OPTION_TITLE_OFFSET_X;	// Retro 10Jul2004
; 1122 : 	y1 = 0.0; 
; 1123 : 
; 1124 : 	title_change_array[i] = create_ui_object
; 1125 : 	(
; 1126 : 		UI_TYPE_AREA,
; 1127 : 		UI_ATTR_PARENT (device_area),
; 1128 : 		UI_ATTR_VIRTUAL_POSITION (x1, y1),
; 1129 : 		UI_ATTR_VIRTUAL_SIZE (OPTION_BOX_WIDTH, OPTION_BOX_HEIGHT),
; 1130 : 		UI_ATTR_TEXTURE_GRAPHIC (options_box_large),
; 1131 : 		UI_ATTR_COLOUR_START (255, 255, 255, 0),
; 1132 : 		UI_ATTR_COLOUR_END (255, 255, 255, 255),
; 1133 : 		UI_ATTR_END
; 1134 : 	);
; 1135 : 
; 1136 :    check_array[i] = create_ui_object
; 1137 : 	(
; 1138 : 		UI_TYPE_TEXT,
; 1139 : 		UI_ATTR_PARENT (title_change_array [i]),
; 1140 : 		UI_ATTR_FONT_TYPE (/*UI_FONT_THICK_ARIAL_18*/UI_FONT_ARIAL_14),
; 1141 :       UI_ATTR_FONT_COLOUR_START (ui_option_title_text_colour.r, ui_option_title_text_colour.g, ui_option_title_text_colour.b, 0),
; 1142 :       UI_ATTR_FONT_COLOUR_END (ui_option_title_text_colour.r, ui_option_title_text_colour.g, ui_option_title_text_colour.b, 255),
; 1143 : 		UI_ATTR_VIRTUAL_POSITION (OPTION_BOX_TEXT_OFFSET_X, OPTION_BOX_TEXT_OFFSET_Y),
; 1144 : 		UI_ATTR_TEXT_JUSTIFY (TEXT_JUSTIFY_RIGHT_CENTRE),
; 1145 : 		UI_ATTR_TEXT (get_trans ("UI_DEVICE")),
; 1146 : 		UI_ATTR_END
; 1147 : 	);
; 1148 : 
; 1149 : 	preprocess_translation_object_size (title_change_array [i], check_array [i], NULL, 0, RESIZE_OPTION_BOX_TITLE);
; 1150 : #endif //Retro10Jul2004_dead
; 1151 : 
; 1152 : 	// Retro 10Jul2004
; 1153 : 	// eo pan x area
; 1154 : 	
; 1155 : 	i++;

  00929	8b 45 fc	 mov	 eax, DWORD PTR _i$[ebp]
  0092c	83 c0 01	 add	 eax, 1
  0092f	89 45 fc	 mov	 DWORD PTR _i$[ebp], eax

; 1156 : 	x1 = 0.0; 

  00932	0f 57 c0	 xorps	 xmm0, xmm0
  00935	f3 0f 11 45 f8	 movss	 DWORD PTR _x1$[ebp], xmm0

; 1157 : 	y1 = OPTION_TITLE_OFFSET_Y + (/*OPTION_AREA_OFFSET_Y*/OPTION_SMALL_AREA_OFFSET_Y * i);

  0093a	f3 0f 2a 45 fc	 cvtsi2ss xmm0, DWORD PTR _i$[ebp]
  0093f	f3 0f 59 05 00
	00 00 00	 mulss	 xmm0, DWORD PTR __real@3d343958
  00947	f3 0f 58 05 00
	00 00 00	 addss	 xmm0, DWORD PTR __real@3e851eb8
  0094f	f3 0f 11 45 f4	 movss	 DWORD PTR _y1$[ebp], xmm0

; 1158 : 
; 1159 :    eo_pan_x_area = create_ui_object

  00954	6a 11		 push	 17			; 00000011H
  00956	6a 01		 push	 1
  00958	6a 07		 push	 7
  0095a	83 ec 08	 sub	 esp, 8
  0095d	f2 0f 10 05 00
	00 00 00	 movsd	 xmm0, QWORD PTR __real@3fa47ae140000000
  00965	f2 0f 11 04 24	 movsd	 QWORD PTR [esp], xmm0
  0096a	83 ec 08	 sub	 esp, 8
  0096d	f2 0f 10 05 00
	00 00 00	 movsd	 xmm0, QWORD PTR __real@3ff0000000000000
  00975	f2 0f 11 04 24	 movsd	 QWORD PTR [esp], xmm0
  0097a	6a 59		 push	 89			; 00000059H
  0097c	f3 0f 5a 45 f4	 cvtss2sd xmm0, DWORD PTR _y1$[ebp]
  00981	83 ec 08	 sub	 esp, 8
  00984	f2 0f 11 04 24	 movsd	 QWORD PTR [esp], xmm0
  00989	f3 0f 5a 45 f8	 cvtss2sd xmm0, DWORD PTR _x1$[ebp]
  0098e	83 ec 08	 sub	 esp, 8
  00991	f2 0f 11 04 24	 movsd	 QWORD PTR [esp], xmm0
  00996	6a 58		 push	 88			; 00000058H
  00998	8b 45 e8	 mov	 eax, DWORD PTR _page$[ebp]
  0099b	50		 push	 eax
  0099c	6a 32		 push	 50			; 00000032H
  0099e	6a 01		 push	 1
  009a0	e8 00 00 00 00	 call	 ?create_ui_object@@YAPAUUI_OBJECT@@HZZ ; create_ui_object
  009a5	83 c4 40	 add	 esp, 64			; 00000040H
  009a8	a3 00 00 00 00	 mov	 DWORD PTR ?eo_pan_x_area@@3PAUUI_OBJECT@@A, eax ; eo_pan_x_area

; 1160 : 								(
; 1161 : 									UI_TYPE_AREA,
; 1162 : 									UI_ATTR_PARENT ( page ),
; 1163 : 									UI_ATTR_VIRTUAL_POSITION (x1, y1),
; 1164 : 									UI_ATTR_VIRTUAL_SIZE (OPTION_AREA_WIDTH, /*OPTION_AREA_HEIGHT*/OPTION_SMALL_AREA_HEIGHT),
; 1165 : 									UI_ATTR_CLEAR (TRUE),
; 1166 : 									UI_ATTR_END
; 1167 : 								);
; 1168 : 
; 1169 : 	x1 = CONTROLLER_OPTION_TITLE_OFFSET_X;	// Retro 10Jul2004

  009ad	f3 0f 10 05 00
	00 00 00	 movss	 xmm0, DWORD PTR __real@3c23d70a
  009b5	f3 0f 11 45 f8	 movss	 DWORD PTR _x1$[ebp], xmm0

; 1170 : 	y1 = 0.0; 

  009ba	0f 57 c0	 xorps	 xmm0, xmm0
  009bd	f3 0f 11 45 f4	 movss	 DWORD PTR _y1$[ebp], xmm0

; 1171 : 
; 1172 : 	title_change_array[i] = create_ui_object

  009c2	6a 11		 push	 17			; 00000011H
  009c4	68 ff 00 00 00	 push	 255			; 000000ffH
  009c9	68 ff 00 00 00	 push	 255			; 000000ffH
  009ce	68 ff 00 00 00	 push	 255			; 000000ffH
  009d3	68 ff 00 00 00	 push	 255			; 000000ffH
  009d8	6a 0a		 push	 10			; 0000000aH
  009da	6a 00		 push	 0
  009dc	68 ff 00 00 00	 push	 255			; 000000ffH
  009e1	68 ff 00 00 00	 push	 255			; 000000ffH
  009e6	68 ff 00 00 00	 push	 255			; 000000ffH
  009eb	6a 0b		 push	 11			; 0000000bH
  009ed	a1 00 00 00 00	 mov	 eax, DWORD PTR ?options_box_large@@3PAUTEXTURE_GRAPHIC@@A ; options_box_large
  009f2	50		 push	 eax
  009f3	6a 4c		 push	 76			; 0000004cH
  009f5	83 ec 08	 sub	 esp, 8
  009f8	f2 0f 10 05 00
	00 00 00	 movsd	 xmm0, QWORD PTR __real@3ff0000000000000
  00a00	f2 0f 11 04 24	 movsd	 QWORD PTR [esp], xmm0
  00a05	83 ec 08	 sub	 esp, 8
  00a08	f2 0f 10 05 00
	00 00 00	 movsd	 xmm0, QWORD PTR __real@3fd3126ea0000000
  00a10	f2 0f 11 04 24	 movsd	 QWORD PTR [esp], xmm0
  00a15	6a 59		 push	 89			; 00000059H
  00a17	f3 0f 5a 45 f4	 cvtss2sd xmm0, DWORD PTR _y1$[ebp]
  00a1c	83 ec 08	 sub	 esp, 8
  00a1f	f2 0f 11 04 24	 movsd	 QWORD PTR [esp], xmm0
  00a24	f3 0f 5a 45 f8	 cvtss2sd xmm0, DWORD PTR _x1$[ebp]
  00a29	83 ec 08	 sub	 esp, 8
  00a2c	f2 0f 11 04 24	 movsd	 QWORD PTR [esp], xmm0
  00a31	6a 58		 push	 88			; 00000058H
  00a33	8b 0d 00 00 00
	00		 mov	 ecx, DWORD PTR ?eo_pan_x_area@@3PAUUI_OBJECT@@A ; eo_pan_x_area
  00a39	51		 push	 ecx
  00a3a	6a 32		 push	 50			; 00000032H
  00a3c	6a 01		 push	 1
  00a3e	e8 00 00 00 00	 call	 ?create_ui_object@@YAPAUUI_OBJECT@@HZZ ; create_ui_object
  00a43	83 c4 68	 add	 esp, 104		; 00000068H
  00a46	8b 55 fc	 mov	 edx, DWORD PTR _i$[ebp]
  00a49	89 44 95 ac	 mov	 DWORD PTR _title_change_array$[ebp+edx*4], eax

; 1173 : 	(
; 1174 : 		UI_TYPE_AREA,
; 1175 : 		UI_ATTR_PARENT (eo_pan_x_area),
; 1176 : 		UI_ATTR_VIRTUAL_POSITION (x1, y1),
; 1177 : 		UI_ATTR_VIRTUAL_SIZE (OPTION_BOX_WIDTH, OPTION_BOX_HEIGHT),
; 1178 : 		UI_ATTR_TEXTURE_GRAPHIC (options_box_large),
; 1179 : 		UI_ATTR_COLOUR_START (255, 255, 255, 0),
; 1180 : 		UI_ATTR_COLOUR_END (255, 255, 255, 255),
; 1181 : 		UI_ATTR_END
; 1182 : 	);
; 1183 : 
; 1184 :    check_array[i] = create_ui_object

  00a4d	6a 11		 push	 17			; 00000011H
  00a4f	68 00 00 00 00	 push	 OFFSET ??_C@_08ILPJADEC@EO?5Pan?5X@
  00a54	e8 00 00 00 00	 call	 ?get_trans@@YGPBDPBD@Z	; get_trans
  00a59	50		 push	 eax
  00a5a	6a 4a		 push	 74			; 0000004aH
  00a5c	6a 02		 push	 2
  00a5e	6a 4b		 push	 75			; 0000004bH
  00a60	83 ec 08	 sub	 esp, 8
  00a63	f2 0f 10 05 00
	00 00 00	 movsd	 xmm0, QWORD PTR __real@3fc24dd300000000
  00a6b	f2 0f 11 04 24	 movsd	 QWORD PTR [esp], xmm0
  00a70	83 ec 08	 sub	 esp, 8
  00a73	f2 0f 10 05 00
	00 00 00	 movsd	 xmm0, QWORD PTR __real@3fee666660000000
  00a7b	f2 0f 11 04 24	 movsd	 QWORD PTR [esp], xmm0
  00a80	6a 58		 push	 88			; 00000058H
  00a82	68 ff 00 00 00	 push	 255			; 000000ffH
  00a87	0f b6 05 00 00
	00 00		 movzx	 eax, BYTE PTR ?ui_option_title_text_colour@@3UREAL_COLOUR@@A
  00a8e	50		 push	 eax
  00a8f	0f b6 0d 01 00
	00 00		 movzx	 ecx, BYTE PTR ?ui_option_title_text_colour@@3UREAL_COLOUR@@A+1
  00a96	51		 push	 ecx
  00a97	0f b6 15 02 00
	00 00		 movzx	 edx, BYTE PTR ?ui_option_title_text_colour@@3UREAL_COLOUR@@A+2
  00a9e	52		 push	 edx
  00a9f	6a 14		 push	 20			; 00000014H
  00aa1	6a 00		 push	 0
  00aa3	0f b6 05 00 00
	00 00		 movzx	 eax, BYTE PTR ?ui_option_title_text_colour@@3UREAL_COLOUR@@A
  00aaa	50		 push	 eax
  00aab	0f b6 0d 01 00
	00 00		 movzx	 ecx, BYTE PTR ?ui_option_title_text_colour@@3UREAL_COLOUR@@A+1
  00ab2	51		 push	 ecx
  00ab3	0f b6 15 02 00
	00 00		 movzx	 edx, BYTE PTR ?ui_option_title_text_colour@@3UREAL_COLOUR@@A+2
  00aba	52		 push	 edx
  00abb	6a 15		 push	 21			; 00000015H
  00abd	6a 01		 push	 1
  00abf	6a 12		 push	 18			; 00000012H
  00ac1	8b 45 fc	 mov	 eax, DWORD PTR _i$[ebp]
  00ac4	8b 4c 85 ac	 mov	 ecx, DWORD PTR _title_change_array$[ebp+eax*4]
  00ac8	51		 push	 ecx
  00ac9	6a 32		 push	 50			; 00000032H
  00acb	6a 05		 push	 5
  00acd	e8 00 00 00 00	 call	 ?create_ui_object@@YAPAUUI_OBJECT@@HZZ ; create_ui_object
  00ad2	83 c4 64	 add	 esp, 100		; 00000064H
  00ad5	8b 55 fc	 mov	 edx, DWORD PTR _i$[ebp]
  00ad8	89 84 95 70 ff
	ff ff		 mov	 DWORD PTR _check_array$[ebp+edx*4], eax

; 1185 : 	(
; 1186 : 		UI_TYPE_TEXT,
; 1187 : 		UI_ATTR_PARENT (title_change_array [i]),
; 1188 : 		UI_ATTR_FONT_TYPE (/*UI_FONT_THICK_ARIAL_18*/UI_FONT_ARIAL_14),
; 1189 :       UI_ATTR_FONT_COLOUR_START (ui_option_title_text_colour.r, ui_option_title_text_colour.g, ui_option_title_text_colour.b, 0),
; 1190 :       UI_ATTR_FONT_COLOUR_END (ui_option_title_text_colour.r, ui_option_title_text_colour.g, ui_option_title_text_colour.b, 255),
; 1191 : 		UI_ATTR_VIRTUAL_POSITION (OPTION_BOX_TEXT_OFFSET_X, OPTION_BOX_TEXT_OFFSET_Y),
; 1192 : 		UI_ATTR_TEXT_JUSTIFY (TEXT_JUSTIFY_RIGHT_CENTRE),
; 1193 : 		UI_ATTR_TEXT (get_trans ("EO Pan X")),
; 1194 : 		UI_ATTR_END
; 1195 : 	);
; 1196 : 
; 1197 : 	preprocess_translation_object_size (title_change_array [i], check_array [i], NULL, 0, RESIZE_OPTION_BOX_TITLE);

  00adf	6a 00		 push	 0
  00ae1	6a 00		 push	 0
  00ae3	6a 00		 push	 0
  00ae5	8b 45 fc	 mov	 eax, DWORD PTR _i$[ebp]
  00ae8	8b 8c 85 70 ff
	ff ff		 mov	 ecx, DWORD PTR _check_array$[ebp+eax*4]
  00aef	51		 push	 ecx
  00af0	8b 55 fc	 mov	 edx, DWORD PTR _i$[ebp]
  00af3	8b 44 95 ac	 mov	 eax, DWORD PTR _title_change_array$[ebp+edx*4]
  00af7	50		 push	 eax
  00af8	e8 00 00 00 00	 call	 ?preprocess_translation_object_size@@YGXPAUUI_OBJECT@@0PAPBDHW4RESIZE_UI_OBJECT_TYPES@@@Z ; preprocess_translation_object_size

; 1198 : 	// Retro 10Jul2004 end
; 1199 : 
; 1200 : 	// Retro 10Jul2004
; 1201 : 	// eo panning y area
; 1202 : 	
; 1203 : 	i++;

  00afd	8b 45 fc	 mov	 eax, DWORD PTR _i$[ebp]
  00b00	83 c0 01	 add	 eax, 1
  00b03	89 45 fc	 mov	 DWORD PTR _i$[ebp], eax

; 1204 : 	x1 = 0.0; 

  00b06	0f 57 c0	 xorps	 xmm0, xmm0
  00b09	f3 0f 11 45 f8	 movss	 DWORD PTR _x1$[ebp], xmm0

; 1205 : 	y1 = OPTION_TITLE_OFFSET_Y + (/*OPTION_AREA_OFFSET_Y*/OPTION_SMALL_AREA_OFFSET_Y * i);

  00b0e	f3 0f 2a 45 fc	 cvtsi2ss xmm0, DWORD PTR _i$[ebp]
  00b13	f3 0f 59 05 00
	00 00 00	 mulss	 xmm0, DWORD PTR __real@3d343958
  00b1b	f3 0f 58 05 00
	00 00 00	 addss	 xmm0, DWORD PTR __real@3e851eb8
  00b23	f3 0f 11 45 f4	 movss	 DWORD PTR _y1$[ebp], xmm0

; 1206 : 
; 1207 :    eo_pan_y_area = create_ui_object

  00b28	6a 11		 push	 17			; 00000011H
  00b2a	6a 01		 push	 1
  00b2c	6a 07		 push	 7
  00b2e	83 ec 08	 sub	 esp, 8
  00b31	f2 0f 10 05 00
	00 00 00	 movsd	 xmm0, QWORD PTR __real@3fa47ae140000000
  00b39	f2 0f 11 04 24	 movsd	 QWORD PTR [esp], xmm0
  00b3e	83 ec 08	 sub	 esp, 8
  00b41	f2 0f 10 05 00
	00 00 00	 movsd	 xmm0, QWORD PTR __real@3ff0000000000000
  00b49	f2 0f 11 04 24	 movsd	 QWORD PTR [esp], xmm0
  00b4e	6a 59		 push	 89			; 00000059H
  00b50	f3 0f 5a 45 f4	 cvtss2sd xmm0, DWORD PTR _y1$[ebp]
  00b55	83 ec 08	 sub	 esp, 8
  00b58	f2 0f 11 04 24	 movsd	 QWORD PTR [esp], xmm0
  00b5d	f3 0f 5a 45 f8	 cvtss2sd xmm0, DWORD PTR _x1$[ebp]
  00b62	83 ec 08	 sub	 esp, 8
  00b65	f2 0f 11 04 24	 movsd	 QWORD PTR [esp], xmm0
  00b6a	6a 58		 push	 88			; 00000058H
  00b6c	8b 45 e8	 mov	 eax, DWORD PTR _page$[ebp]
  00b6f	50		 push	 eax
  00b70	6a 32		 push	 50			; 00000032H
  00b72	6a 01		 push	 1
  00b74	e8 00 00 00 00	 call	 ?create_ui_object@@YAPAUUI_OBJECT@@HZZ ; create_ui_object
  00b79	83 c4 40	 add	 esp, 64			; 00000040H
  00b7c	a3 00 00 00 00	 mov	 DWORD PTR ?eo_pan_y_area@@3PAUUI_OBJECT@@A, eax ; eo_pan_y_area

; 1208 : 								(
; 1209 : 									UI_TYPE_AREA,
; 1210 : 									UI_ATTR_PARENT ( page ),
; 1211 : 									UI_ATTR_VIRTUAL_POSITION (x1, y1),
; 1212 : 									UI_ATTR_VIRTUAL_SIZE (OPTION_AREA_WIDTH, /*OPTION_AREA_HEIGHT*/OPTION_SMALL_AREA_HEIGHT),
; 1213 : 									UI_ATTR_CLEAR (TRUE),
; 1214 : 									UI_ATTR_END
; 1215 : 								);
; 1216 : 
; 1217 : 	x1 = CONTROLLER_OPTION_TITLE_OFFSET_X;	// Retro 10Jul2004

  00b81	f3 0f 10 05 00
	00 00 00	 movss	 xmm0, DWORD PTR __real@3c23d70a
  00b89	f3 0f 11 45 f8	 movss	 DWORD PTR _x1$[ebp], xmm0

; 1218 : 	y1 = 0.0; 

  00b8e	0f 57 c0	 xorps	 xmm0, xmm0
  00b91	f3 0f 11 45 f4	 movss	 DWORD PTR _y1$[ebp], xmm0

; 1219 : 
; 1220 : 	title_change_array[i] = create_ui_object

  00b96	6a 11		 push	 17			; 00000011H
  00b98	68 ff 00 00 00	 push	 255			; 000000ffH
  00b9d	68 ff 00 00 00	 push	 255			; 000000ffH
  00ba2	68 ff 00 00 00	 push	 255			; 000000ffH
  00ba7	68 ff 00 00 00	 push	 255			; 000000ffH
  00bac	6a 0a		 push	 10			; 0000000aH
  00bae	6a 00		 push	 0
  00bb0	68 ff 00 00 00	 push	 255			; 000000ffH
  00bb5	68 ff 00 00 00	 push	 255			; 000000ffH
  00bba	68 ff 00 00 00	 push	 255			; 000000ffH
  00bbf	6a 0b		 push	 11			; 0000000bH
  00bc1	a1 00 00 00 00	 mov	 eax, DWORD PTR ?options_box_large@@3PAUTEXTURE_GRAPHIC@@A ; options_box_large
  00bc6	50		 push	 eax
  00bc7	6a 4c		 push	 76			; 0000004cH
  00bc9	83 ec 08	 sub	 esp, 8
  00bcc	f2 0f 10 05 00
	00 00 00	 movsd	 xmm0, QWORD PTR __real@3ff0000000000000
  00bd4	f2 0f 11 04 24	 movsd	 QWORD PTR [esp], xmm0
  00bd9	83 ec 08	 sub	 esp, 8
  00bdc	f2 0f 10 05 00
	00 00 00	 movsd	 xmm0, QWORD PTR __real@3fd3126ea0000000
  00be4	f2 0f 11 04 24	 movsd	 QWORD PTR [esp], xmm0
  00be9	6a 59		 push	 89			; 00000059H
  00beb	f3 0f 5a 45 f4	 cvtss2sd xmm0, DWORD PTR _y1$[ebp]
  00bf0	83 ec 08	 sub	 esp, 8
  00bf3	f2 0f 11 04 24	 movsd	 QWORD PTR [esp], xmm0
  00bf8	f3 0f 5a 45 f8	 cvtss2sd xmm0, DWORD PTR _x1$[ebp]
  00bfd	83 ec 08	 sub	 esp, 8
  00c00	f2 0f 11 04 24	 movsd	 QWORD PTR [esp], xmm0
  00c05	6a 58		 push	 88			; 00000058H
  00c07	8b 0d 00 00 00
	00		 mov	 ecx, DWORD PTR ?eo_pan_y_area@@3PAUUI_OBJECT@@A ; eo_pan_y_area
  00c0d	51		 push	 ecx
  00c0e	6a 32		 push	 50			; 00000032H
  00c10	6a 01		 push	 1
  00c12	e8 00 00 00 00	 call	 ?create_ui_object@@YAPAUUI_OBJECT@@HZZ ; create_ui_object
  00c17	83 c4 68	 add	 esp, 104		; 00000068H
  00c1a	8b 55 fc	 mov	 edx, DWORD PTR _i$[ebp]
  00c1d	89 44 95 ac	 mov	 DWORD PTR _title_change_array$[ebp+edx*4], eax

; 1221 : 	(
; 1222 : 		UI_TYPE_AREA,
; 1223 : 		UI_ATTR_PARENT (eo_pan_y_area),
; 1224 : 		UI_ATTR_VIRTUAL_POSITION (x1, y1),
; 1225 : 		UI_ATTR_VIRTUAL_SIZE (OPTION_BOX_WIDTH, OPTION_BOX_HEIGHT),
; 1226 : 		UI_ATTR_TEXTURE_GRAPHIC (options_box_large),
; 1227 : 		UI_ATTR_COLOUR_START (255, 255, 255, 0),
; 1228 : 		UI_ATTR_COLOUR_END (255, 255, 255, 255),
; 1229 : 		UI_ATTR_END
; 1230 : 	);
; 1231 : 
; 1232 :    check_array[i] = create_ui_object

  00c21	6a 11		 push	 17			; 00000011H
  00c23	68 00 00 00 00	 push	 OFFSET ??_C@_08JCOCDCAD@EO?5Pan?5Y@
  00c28	e8 00 00 00 00	 call	 ?get_trans@@YGPBDPBD@Z	; get_trans
  00c2d	50		 push	 eax
  00c2e	6a 4a		 push	 74			; 0000004aH
  00c30	6a 02		 push	 2
  00c32	6a 4b		 push	 75			; 0000004bH
  00c34	83 ec 08	 sub	 esp, 8
  00c37	f2 0f 10 05 00
	00 00 00	 movsd	 xmm0, QWORD PTR __real@3fc24dd300000000
  00c3f	f2 0f 11 04 24	 movsd	 QWORD PTR [esp], xmm0
  00c44	83 ec 08	 sub	 esp, 8
  00c47	f2 0f 10 05 00
	00 00 00	 movsd	 xmm0, QWORD PTR __real@3fee666660000000
  00c4f	f2 0f 11 04 24	 movsd	 QWORD PTR [esp], xmm0
  00c54	6a 58		 push	 88			; 00000058H
  00c56	68 ff 00 00 00	 push	 255			; 000000ffH
  00c5b	0f b6 05 00 00
	00 00		 movzx	 eax, BYTE PTR ?ui_option_title_text_colour@@3UREAL_COLOUR@@A
  00c62	50		 push	 eax
  00c63	0f b6 0d 01 00
	00 00		 movzx	 ecx, BYTE PTR ?ui_option_title_text_colour@@3UREAL_COLOUR@@A+1
  00c6a	51		 push	 ecx
  00c6b	0f b6 15 02 00
	00 00		 movzx	 edx, BYTE PTR ?ui_option_title_text_colour@@3UREAL_COLOUR@@A+2
  00c72	52		 push	 edx
  00c73	6a 14		 push	 20			; 00000014H
  00c75	6a 00		 push	 0
  00c77	0f b6 05 00 00
	00 00		 movzx	 eax, BYTE PTR ?ui_option_title_text_colour@@3UREAL_COLOUR@@A
  00c7e	50		 push	 eax
  00c7f	0f b6 0d 01 00
	00 00		 movzx	 ecx, BYTE PTR ?ui_option_title_text_colour@@3UREAL_COLOUR@@A+1
  00c86	51		 push	 ecx
  00c87	0f b6 15 02 00
	00 00		 movzx	 edx, BYTE PTR ?ui_option_title_text_colour@@3UREAL_COLOUR@@A+2
  00c8e	52		 push	 edx
  00c8f	6a 15		 push	 21			; 00000015H
  00c91	6a 01		 push	 1
  00c93	6a 12		 push	 18			; 00000012H
  00c95	8b 45 fc	 mov	 eax, DWORD PTR _i$[ebp]
  00c98	8b 4c 85 ac	 mov	 ecx, DWORD PTR _title_change_array$[ebp+eax*4]
  00c9c	51		 push	 ecx
  00c9d	6a 32		 push	 50			; 00000032H
  00c9f	6a 05		 push	 5
  00ca1	e8 00 00 00 00	 call	 ?create_ui_object@@YAPAUUI_OBJECT@@HZZ ; create_ui_object
  00ca6	83 c4 64	 add	 esp, 100		; 00000064H
  00ca9	8b 55 fc	 mov	 edx, DWORD PTR _i$[ebp]
  00cac	89 84 95 70 ff
	ff ff		 mov	 DWORD PTR _check_array$[ebp+edx*4], eax

; 1233 : 	(
; 1234 : 		UI_TYPE_TEXT,
; 1235 : 		UI_ATTR_PARENT (title_change_array [i]),
; 1236 : 		UI_ATTR_FONT_TYPE (/*UI_FONT_THICK_ARIAL_18*/UI_FONT_ARIAL_14),
; 1237 :       UI_ATTR_FONT_COLOUR_START (ui_option_title_text_colour.r, ui_option_title_text_colour.g, ui_option_title_text_colour.b, 0),
; 1238 :       UI_ATTR_FONT_COLOUR_END (ui_option_title_text_colour.r, ui_option_title_text_colour.g, ui_option_title_text_colour.b, 255),
; 1239 : 		UI_ATTR_VIRTUAL_POSITION (OPTION_BOX_TEXT_OFFSET_X, OPTION_BOX_TEXT_OFFSET_Y),
; 1240 : 		UI_ATTR_TEXT_JUSTIFY (TEXT_JUSTIFY_RIGHT_CENTRE),
; 1241 : 		UI_ATTR_TEXT (get_trans ("EO Pan Y")),
; 1242 : 		UI_ATTR_END
; 1243 : 	);
; 1244 : 
; 1245 : 	preprocess_translation_object_size (title_change_array [i], check_array [i], NULL, 0, RESIZE_OPTION_BOX_TITLE);

  00cb3	6a 00		 push	 0
  00cb5	6a 00		 push	 0
  00cb7	6a 00		 push	 0
  00cb9	8b 45 fc	 mov	 eax, DWORD PTR _i$[ebp]
  00cbc	8b 8c 85 70 ff
	ff ff		 mov	 ecx, DWORD PTR _check_array$[ebp+eax*4]
  00cc3	51		 push	 ecx
  00cc4	8b 55 fc	 mov	 edx, DWORD PTR _i$[ebp]
  00cc7	8b 44 95 ac	 mov	 eax, DWORD PTR _title_change_array$[ebp+edx*4]
  00ccb	50		 push	 eax
  00ccc	e8 00 00 00 00	 call	 ?preprocess_translation_object_size@@YGXPAUUI_OBJECT@@0PAPBDHW4RESIZE_UI_OBJECT_TYPES@@@Z ; preprocess_translation_object_size

; 1246 : 	// Retro 10Jul2004 end
; 1247 : 
; 1248 : 	// Retro 10Jul2004
; 1249 : 	// eo zoom area
; 1250 : 	
; 1251 : 	i++;

  00cd1	8b 45 fc	 mov	 eax, DWORD PTR _i$[ebp]
  00cd4	83 c0 01	 add	 eax, 1
  00cd7	89 45 fc	 mov	 DWORD PTR _i$[ebp], eax

; 1252 : 	x1 = 0.0; 

  00cda	0f 57 c0	 xorps	 xmm0, xmm0
  00cdd	f3 0f 11 45 f8	 movss	 DWORD PTR _x1$[ebp], xmm0

; 1253 : 	y1 = OPTION_TITLE_OFFSET_Y + (/*OPTION_AREA_OFFSET_Y*/OPTION_SMALL_AREA_OFFSET_Y * i);

  00ce2	f3 0f 2a 45 fc	 cvtsi2ss xmm0, DWORD PTR _i$[ebp]
  00ce7	f3 0f 59 05 00
	00 00 00	 mulss	 xmm0, DWORD PTR __real@3d343958
  00cef	f3 0f 58 05 00
	00 00 00	 addss	 xmm0, DWORD PTR __real@3e851eb8
  00cf7	f3 0f 11 45 f4	 movss	 DWORD PTR _y1$[ebp], xmm0

; 1254 : 
; 1255 :    eo_zoom_area = create_ui_object

  00cfc	6a 11		 push	 17			; 00000011H
  00cfe	6a 01		 push	 1
  00d00	6a 07		 push	 7
  00d02	83 ec 08	 sub	 esp, 8
  00d05	f2 0f 10 05 00
	00 00 00	 movsd	 xmm0, QWORD PTR __real@3fa47ae140000000
  00d0d	f2 0f 11 04 24	 movsd	 QWORD PTR [esp], xmm0
  00d12	83 ec 08	 sub	 esp, 8
  00d15	f2 0f 10 05 00
	00 00 00	 movsd	 xmm0, QWORD PTR __real@3ff0000000000000
  00d1d	f2 0f 11 04 24	 movsd	 QWORD PTR [esp], xmm0
  00d22	6a 59		 push	 89			; 00000059H
  00d24	f3 0f 5a 45 f4	 cvtss2sd xmm0, DWORD PTR _y1$[ebp]
  00d29	83 ec 08	 sub	 esp, 8
  00d2c	f2 0f 11 04 24	 movsd	 QWORD PTR [esp], xmm0
  00d31	f3 0f 5a 45 f8	 cvtss2sd xmm0, DWORD PTR _x1$[ebp]
  00d36	83 ec 08	 sub	 esp, 8
  00d39	f2 0f 11 04 24	 movsd	 QWORD PTR [esp], xmm0
  00d3e	6a 58		 push	 88			; 00000058H
  00d40	8b 45 e8	 mov	 eax, DWORD PTR _page$[ebp]
  00d43	50		 push	 eax
  00d44	6a 32		 push	 50			; 00000032H
  00d46	6a 01		 push	 1
  00d48	e8 00 00 00 00	 call	 ?create_ui_object@@YAPAUUI_OBJECT@@HZZ ; create_ui_object
  00d4d	83 c4 40	 add	 esp, 64			; 00000040H
  00d50	a3 00 00 00 00	 mov	 DWORD PTR ?eo_zoom_area@@3PAUUI_OBJECT@@A, eax ; eo_zoom_area

; 1256 : 								(
; 1257 : 									UI_TYPE_AREA,
; 1258 : 									UI_ATTR_PARENT ( page ),
; 1259 : 									UI_ATTR_VIRTUAL_POSITION (x1, y1),
; 1260 : 									UI_ATTR_VIRTUAL_SIZE (OPTION_AREA_WIDTH, /*OPTION_AREA_HEIGHT*/OPTION_SMALL_AREA_HEIGHT),
; 1261 : 									UI_ATTR_CLEAR (TRUE),
; 1262 : 									UI_ATTR_END
; 1263 : 								);
; 1264 : 
; 1265 : 	x1 = CONTROLLER_OPTION_TITLE_OFFSET_X;	// Retro 10Jul2004

  00d55	f3 0f 10 05 00
	00 00 00	 movss	 xmm0, DWORD PTR __real@3c23d70a
  00d5d	f3 0f 11 45 f8	 movss	 DWORD PTR _x1$[ebp], xmm0

; 1266 : 	y1 = 0.0; 

  00d62	0f 57 c0	 xorps	 xmm0, xmm0
  00d65	f3 0f 11 45 f4	 movss	 DWORD PTR _y1$[ebp], xmm0

; 1267 : 
; 1268 : 	title_change_array[i] = create_ui_object

  00d6a	6a 11		 push	 17			; 00000011H
  00d6c	68 ff 00 00 00	 push	 255			; 000000ffH
  00d71	68 ff 00 00 00	 push	 255			; 000000ffH
  00d76	68 ff 00 00 00	 push	 255			; 000000ffH
  00d7b	68 ff 00 00 00	 push	 255			; 000000ffH
  00d80	6a 0a		 push	 10			; 0000000aH
  00d82	6a 00		 push	 0
  00d84	68 ff 00 00 00	 push	 255			; 000000ffH
  00d89	68 ff 00 00 00	 push	 255			; 000000ffH
  00d8e	68 ff 00 00 00	 push	 255			; 000000ffH
  00d93	6a 0b		 push	 11			; 0000000bH
  00d95	a1 00 00 00 00	 mov	 eax, DWORD PTR ?options_box_large@@3PAUTEXTURE_GRAPHIC@@A ; options_box_large
  00d9a	50		 push	 eax
  00d9b	6a 4c		 push	 76			; 0000004cH
  00d9d	83 ec 08	 sub	 esp, 8
  00da0	f2 0f 10 05 00
	00 00 00	 movsd	 xmm0, QWORD PTR __real@3ff0000000000000
  00da8	f2 0f 11 04 24	 movsd	 QWORD PTR [esp], xmm0
  00dad	83 ec 08	 sub	 esp, 8
  00db0	f2 0f 10 05 00
	00 00 00	 movsd	 xmm0, QWORD PTR __real@3fd3126ea0000000
  00db8	f2 0f 11 04 24	 movsd	 QWORD PTR [esp], xmm0
  00dbd	6a 59		 push	 89			; 00000059H
  00dbf	f3 0f 5a 45 f4	 cvtss2sd xmm0, DWORD PTR _y1$[ebp]
  00dc4	83 ec 08	 sub	 esp, 8
  00dc7	f2 0f 11 04 24	 movsd	 QWORD PTR [esp], xmm0
  00dcc	f3 0f 5a 45 f8	 cvtss2sd xmm0, DWORD PTR _x1$[ebp]
  00dd1	83 ec 08	 sub	 esp, 8
  00dd4	f2 0f 11 04 24	 movsd	 QWORD PTR [esp], xmm0
  00dd9	6a 58		 push	 88			; 00000058H
  00ddb	8b 0d 00 00 00
	00		 mov	 ecx, DWORD PTR ?eo_zoom_area@@3PAUUI_OBJECT@@A ; eo_zoom_area
  00de1	51		 push	 ecx
  00de2	6a 32		 push	 50			; 00000032H
  00de4	6a 01		 push	 1
  00de6	e8 00 00 00 00	 call	 ?create_ui_object@@YAPAUUI_OBJECT@@HZZ ; create_ui_object
  00deb	83 c4 68	 add	 esp, 104		; 00000068H
  00dee	8b 55 fc	 mov	 edx, DWORD PTR _i$[ebp]
  00df1	89 44 95 ac	 mov	 DWORD PTR _title_change_array$[ebp+edx*4], eax

; 1269 : 	(
; 1270 : 		UI_TYPE_AREA,
; 1271 : 		UI_ATTR_PARENT (eo_zoom_area),
; 1272 : 		UI_ATTR_VIRTUAL_POSITION (x1, y1),
; 1273 : 		UI_ATTR_VIRTUAL_SIZE (OPTION_BOX_WIDTH, OPTION_BOX_HEIGHT),
; 1274 : 		UI_ATTR_TEXTURE_GRAPHIC (options_box_large),
; 1275 : 		UI_ATTR_COLOUR_START (255, 255, 255, 0),
; 1276 : 		UI_ATTR_COLOUR_END (255, 255, 255, 255),
; 1277 : 		UI_ATTR_END
; 1278 : 	);
; 1279 : 
; 1280 :    check_array[i] = create_ui_object

  00df5	6a 11		 push	 17			; 00000011H
  00df7	68 00 00 00 00	 push	 OFFSET ??_C@_07MMHBEFHB@EO?5Zoom@
  00dfc	e8 00 00 00 00	 call	 ?get_trans@@YGPBDPBD@Z	; get_trans
  00e01	50		 push	 eax
  00e02	6a 4a		 push	 74			; 0000004aH
  00e04	6a 02		 push	 2
  00e06	6a 4b		 push	 75			; 0000004bH
  00e08	83 ec 08	 sub	 esp, 8
  00e0b	f2 0f 10 05 00
	00 00 00	 movsd	 xmm0, QWORD PTR __real@3fc24dd300000000
  00e13	f2 0f 11 04 24	 movsd	 QWORD PTR [esp], xmm0
  00e18	83 ec 08	 sub	 esp, 8
  00e1b	f2 0f 10 05 00
	00 00 00	 movsd	 xmm0, QWORD PTR __real@3fee666660000000
  00e23	f2 0f 11 04 24	 movsd	 QWORD PTR [esp], xmm0
  00e28	6a 58		 push	 88			; 00000058H
  00e2a	68 ff 00 00 00	 push	 255			; 000000ffH
  00e2f	0f b6 05 00 00
	00 00		 movzx	 eax, BYTE PTR ?ui_option_title_text_colour@@3UREAL_COLOUR@@A
  00e36	50		 push	 eax
  00e37	0f b6 0d 01 00
	00 00		 movzx	 ecx, BYTE PTR ?ui_option_title_text_colour@@3UREAL_COLOUR@@A+1
  00e3e	51		 push	 ecx
  00e3f	0f b6 15 02 00
	00 00		 movzx	 edx, BYTE PTR ?ui_option_title_text_colour@@3UREAL_COLOUR@@A+2
  00e46	52		 push	 edx
  00e47	6a 14		 push	 20			; 00000014H
  00e49	6a 00		 push	 0
  00e4b	0f b6 05 00 00
	00 00		 movzx	 eax, BYTE PTR ?ui_option_title_text_colour@@3UREAL_COLOUR@@A
  00e52	50		 push	 eax
  00e53	0f b6 0d 01 00
	00 00		 movzx	 ecx, BYTE PTR ?ui_option_title_text_colour@@3UREAL_COLOUR@@A+1
  00e5a	51		 push	 ecx
  00e5b	0f b6 15 02 00
	00 00		 movzx	 edx, BYTE PTR ?ui_option_title_text_colour@@3UREAL_COLOUR@@A+2
  00e62	52		 push	 edx
  00e63	6a 15		 push	 21			; 00000015H
  00e65	6a 01		 push	 1
  00e67	6a 12		 push	 18			; 00000012H
  00e69	8b 45 fc	 mov	 eax, DWORD PTR _i$[ebp]
  00e6c	8b 4c 85 ac	 mov	 ecx, DWORD PTR _title_change_array$[ebp+eax*4]
  00e70	51		 push	 ecx
  00e71	6a 32		 push	 50			; 00000032H
  00e73	6a 05		 push	 5
  00e75	e8 00 00 00 00	 call	 ?create_ui_object@@YAPAUUI_OBJECT@@HZZ ; create_ui_object
  00e7a	83 c4 64	 add	 esp, 100		; 00000064H
  00e7d	8b 55 fc	 mov	 edx, DWORD PTR _i$[ebp]
  00e80	89 84 95 70 ff
	ff ff		 mov	 DWORD PTR _check_array$[ebp+edx*4], eax

; 1281 : 	(
; 1282 : 		UI_TYPE_TEXT,
; 1283 : 		UI_ATTR_PARENT (title_change_array [i]),
; 1284 : 		UI_ATTR_FONT_TYPE (/*UI_FONT_THICK_ARIAL_18*/UI_FONT_ARIAL_14),
; 1285 :       UI_ATTR_FONT_COLOUR_START (ui_option_title_text_colour.r, ui_option_title_text_colour.g, ui_option_title_text_colour.b, 0),
; 1286 :       UI_ATTR_FONT_COLOUR_END (ui_option_title_text_colour.r, ui_option_title_text_colour.g, ui_option_title_text_colour.b, 255),
; 1287 : 		UI_ATTR_VIRTUAL_POSITION (OPTION_BOX_TEXT_OFFSET_X, OPTION_BOX_TEXT_OFFSET_Y),
; 1288 : 		UI_ATTR_TEXT_JUSTIFY (TEXT_JUSTIFY_RIGHT_CENTRE),
; 1289 : 		UI_ATTR_TEXT (get_trans ("EO Zoom")),
; 1290 : 		UI_ATTR_END
; 1291 : 	);
; 1292 : 
; 1293 : 	preprocess_translation_object_size (title_change_array [i], check_array [i], NULL, 0, RESIZE_OPTION_BOX_TITLE);

  00e87	6a 00		 push	 0
  00e89	6a 00		 push	 0
  00e8b	6a 00		 push	 0
  00e8d	8b 45 fc	 mov	 eax, DWORD PTR _i$[ebp]
  00e90	8b 8c 85 70 ff
	ff ff		 mov	 ecx, DWORD PTR _check_array$[ebp+eax*4]
  00e97	51		 push	 ecx
  00e98	8b 55 fc	 mov	 edx, DWORD PTR _i$[ebp]
  00e9b	8b 44 95 ac	 mov	 eax, DWORD PTR _title_change_array$[ebp+edx*4]
  00e9f	50		 push	 eax
  00ea0	e8 00 00 00 00	 call	 ?preprocess_translation_object_size@@YGXPAUUI_OBJECT@@0PAPBDHW4RESIZE_UI_OBJECT_TYPES@@@Z ; preprocess_translation_object_size

; 1294 : 	// Retro 10Jul2004 end
; 1295 : 
; 1296 : 	// Retro 10Jul2004
; 1297 : 	// joylook x area
; 1298 : 	
; 1299 : 	i++;

  00ea5	8b 45 fc	 mov	 eax, DWORD PTR _i$[ebp]
  00ea8	83 c0 01	 add	 eax, 1
  00eab	89 45 fc	 mov	 DWORD PTR _i$[ebp], eax

; 1300 : 	x1 = 0.0; 

  00eae	0f 57 c0	 xorps	 xmm0, xmm0
  00eb1	f3 0f 11 45 f8	 movss	 DWORD PTR _x1$[ebp], xmm0

; 1301 : 	y1 = OPTION_TITLE_OFFSET_Y + (/*OPTION_AREA_OFFSET_Y*/OPTION_SMALL_AREA_OFFSET_Y * i);

  00eb6	f3 0f 2a 45 fc	 cvtsi2ss xmm0, DWORD PTR _i$[ebp]
  00ebb	f3 0f 59 05 00
	00 00 00	 mulss	 xmm0, DWORD PTR __real@3d343958
  00ec3	f3 0f 58 05 00
	00 00 00	 addss	 xmm0, DWORD PTR __real@3e851eb8
  00ecb	f3 0f 11 45 f4	 movss	 DWORD PTR _y1$[ebp], xmm0

; 1302 : 
; 1303 :    joylook_x_area = create_ui_object

  00ed0	6a 11		 push	 17			; 00000011H
  00ed2	6a 01		 push	 1
  00ed4	6a 07		 push	 7
  00ed6	83 ec 08	 sub	 esp, 8
  00ed9	f2 0f 10 05 00
	00 00 00	 movsd	 xmm0, QWORD PTR __real@3fa47ae140000000
  00ee1	f2 0f 11 04 24	 movsd	 QWORD PTR [esp], xmm0
  00ee6	83 ec 08	 sub	 esp, 8
  00ee9	f2 0f 10 05 00
	00 00 00	 movsd	 xmm0, QWORD PTR __real@3ff0000000000000
  00ef1	f2 0f 11 04 24	 movsd	 QWORD PTR [esp], xmm0
  00ef6	6a 59		 push	 89			; 00000059H
  00ef8	f3 0f 5a 45 f4	 cvtss2sd xmm0, DWORD PTR _y1$[ebp]
  00efd	83 ec 08	 sub	 esp, 8
  00f00	f2 0f 11 04 24	 movsd	 QWORD PTR [esp], xmm0
  00f05	f3 0f 5a 45 f8	 cvtss2sd xmm0, DWORD PTR _x1$[ebp]
  00f0a	83 ec 08	 sub	 esp, 8
  00f0d	f2 0f 11 04 24	 movsd	 QWORD PTR [esp], xmm0
  00f12	6a 58		 push	 88			; 00000058H
  00f14	8b 45 e8	 mov	 eax, DWORD PTR _page$[ebp]
  00f17	50		 push	 eax
  00f18	6a 32		 push	 50			; 00000032H
  00f1a	6a 01		 push	 1
  00f1c	e8 00 00 00 00	 call	 ?create_ui_object@@YAPAUUI_OBJECT@@HZZ ; create_ui_object
  00f21	83 c4 40	 add	 esp, 64			; 00000040H
  00f24	a3 00 00 00 00	 mov	 DWORD PTR ?joylook_x_area@@3PAUUI_OBJECT@@A, eax ; joylook_x_area

; 1304 : 								(
; 1305 : 									UI_TYPE_AREA,
; 1306 : 									UI_ATTR_PARENT ( page ),
; 1307 : 									UI_ATTR_VIRTUAL_POSITION (x1, y1),
; 1308 : 									UI_ATTR_VIRTUAL_SIZE (OPTION_AREA_WIDTH, /*OPTION_AREA_HEIGHT*/OPTION_SMALL_AREA_HEIGHT),
; 1309 : 									UI_ATTR_CLEAR (TRUE),
; 1310 : 									UI_ATTR_END
; 1311 : 								);
; 1312 : 
; 1313 : 	x1 = CONTROLLER_OPTION_TITLE_OFFSET_X;	// Retro 10Jul2004

  00f29	f3 0f 10 05 00
	00 00 00	 movss	 xmm0, DWORD PTR __real@3c23d70a
  00f31	f3 0f 11 45 f8	 movss	 DWORD PTR _x1$[ebp], xmm0

; 1314 : 	y1 = 0.0; 

  00f36	0f 57 c0	 xorps	 xmm0, xmm0
  00f39	f3 0f 11 45 f4	 movss	 DWORD PTR _y1$[ebp], xmm0

; 1315 : 
; 1316 : 	title_change_array[i] = create_ui_object

  00f3e	6a 11		 push	 17			; 00000011H
  00f40	68 ff 00 00 00	 push	 255			; 000000ffH
  00f45	68 ff 00 00 00	 push	 255			; 000000ffH
  00f4a	68 ff 00 00 00	 push	 255			; 000000ffH
  00f4f	68 ff 00 00 00	 push	 255			; 000000ffH
  00f54	6a 0a		 push	 10			; 0000000aH
  00f56	6a 00		 push	 0
  00f58	68 ff 00 00 00	 push	 255			; 000000ffH
  00f5d	68 ff 00 00 00	 push	 255			; 000000ffH
  00f62	68 ff 00 00 00	 push	 255			; 000000ffH
  00f67	6a 0b		 push	 11			; 0000000bH
  00f69	a1 00 00 00 00	 mov	 eax, DWORD PTR ?options_box_large@@3PAUTEXTURE_GRAPHIC@@A ; options_box_large
  00f6e	50		 push	 eax
  00f6f	6a 4c		 push	 76			; 0000004cH
  00f71	83 ec 08	 sub	 esp, 8
  00f74	f2 0f 10 05 00
	00 00 00	 movsd	 xmm0, QWORD PTR __real@3ff0000000000000
  00f7c	f2 0f 11 04 24	 movsd	 QWORD PTR [esp], xmm0
  00f81	83 ec 08	 sub	 esp, 8
  00f84	f2 0f 10 05 00
	00 00 00	 movsd	 xmm0, QWORD PTR __real@3fd3126ea0000000
  00f8c	f2 0f 11 04 24	 movsd	 QWORD PTR [esp], xmm0
  00f91	6a 59		 push	 89			; 00000059H
  00f93	f3 0f 5a 45 f4	 cvtss2sd xmm0, DWORD PTR _y1$[ebp]
  00f98	83 ec 08	 sub	 esp, 8
  00f9b	f2 0f 11 04 24	 movsd	 QWORD PTR [esp], xmm0
  00fa0	f3 0f 5a 45 f8	 cvtss2sd xmm0, DWORD PTR _x1$[ebp]
  00fa5	83 ec 08	 sub	 esp, 8
  00fa8	f2 0f 11 04 24	 movsd	 QWORD PTR [esp], xmm0
  00fad	6a 58		 push	 88			; 00000058H
  00faf	8b 0d 00 00 00
	00		 mov	 ecx, DWORD PTR ?joylook_x_area@@3PAUUI_OBJECT@@A ; joylook_x_area
  00fb5	51		 push	 ecx
  00fb6	6a 32		 push	 50			; 00000032H
  00fb8	6a 01		 push	 1
  00fba	e8 00 00 00 00	 call	 ?create_ui_object@@YAPAUUI_OBJECT@@HZZ ; create_ui_object
  00fbf	83 c4 68	 add	 esp, 104		; 00000068H
  00fc2	8b 55 fc	 mov	 edx, DWORD PTR _i$[ebp]
  00fc5	89 44 95 ac	 mov	 DWORD PTR _title_change_array$[ebp+edx*4], eax

; 1317 : 	(
; 1318 : 		UI_TYPE_AREA,
; 1319 : 		UI_ATTR_PARENT (joylook_x_area),
; 1320 : 		UI_ATTR_VIRTUAL_POSITION (x1, y1),
; 1321 : 		UI_ATTR_VIRTUAL_SIZE (OPTION_BOX_WIDTH, OPTION_BOX_HEIGHT),
; 1322 : 		UI_ATTR_TEXTURE_GRAPHIC (options_box_large),
; 1323 : 		UI_ATTR_COLOUR_START (255, 255, 255, 0),
; 1324 : 		UI_ATTR_COLOUR_END (255, 255, 255, 255),
; 1325 : 		UI_ATTR_END
; 1326 : 	);
; 1327 : 
; 1328 :    check_array[i] = create_ui_object

  00fc9	6a 11		 push	 17			; 00000011H
  00fcb	68 00 00 00 00	 push	 OFFSET ??_C@_0BA@EKBOFBIH@Joystick?5Look?5X@
  00fd0	e8 00 00 00 00	 call	 ?get_trans@@YGPBDPBD@Z	; get_trans
  00fd5	50		 push	 eax
  00fd6	6a 4a		 push	 74			; 0000004aH
  00fd8	6a 02		 push	 2
  00fda	6a 4b		 push	 75			; 0000004bH
  00fdc	83 ec 08	 sub	 esp, 8
  00fdf	f2 0f 10 05 00
	00 00 00	 movsd	 xmm0, QWORD PTR __real@3fc24dd300000000
  00fe7	f2 0f 11 04 24	 movsd	 QWORD PTR [esp], xmm0
  00fec	83 ec 08	 sub	 esp, 8
  00fef	f2 0f 10 05 00
	00 00 00	 movsd	 xmm0, QWORD PTR __real@3fee666660000000
  00ff7	f2 0f 11 04 24	 movsd	 QWORD PTR [esp], xmm0
  00ffc	6a 58		 push	 88			; 00000058H
  00ffe	68 ff 00 00 00	 push	 255			; 000000ffH
  01003	0f b6 05 00 00
	00 00		 movzx	 eax, BYTE PTR ?ui_option_title_text_colour@@3UREAL_COLOUR@@A
  0100a	50		 push	 eax
  0100b	0f b6 0d 01 00
	00 00		 movzx	 ecx, BYTE PTR ?ui_option_title_text_colour@@3UREAL_COLOUR@@A+1
  01012	51		 push	 ecx
  01013	0f b6 15 02 00
	00 00		 movzx	 edx, BYTE PTR ?ui_option_title_text_colour@@3UREAL_COLOUR@@A+2
  0101a	52		 push	 edx
  0101b	6a 14		 push	 20			; 00000014H
  0101d	6a 00		 push	 0
  0101f	0f b6 05 00 00
	00 00		 movzx	 eax, BYTE PTR ?ui_option_title_text_colour@@3UREAL_COLOUR@@A
  01026	50		 push	 eax
  01027	0f b6 0d 01 00
	00 00		 movzx	 ecx, BYTE PTR ?ui_option_title_text_colour@@3UREAL_COLOUR@@A+1
  0102e	51		 push	 ecx
  0102f	0f b6 15 02 00
	00 00		 movzx	 edx, BYTE PTR ?ui_option_title_text_colour@@3UREAL_COLOUR@@A+2
  01036	52		 push	 edx
  01037	6a 15		 push	 21			; 00000015H
  01039	6a 01		 push	 1
  0103b	6a 12		 push	 18			; 00000012H
  0103d	8b 45 fc	 mov	 eax, DWORD PTR _i$[ebp]
  01040	8b 4c 85 ac	 mov	 ecx, DWORD PTR _title_change_array$[ebp+eax*4]
  01044	51		 push	 ecx
  01045	6a 32		 push	 50			; 00000032H
  01047	6a 05		 push	 5
  01049	e8 00 00 00 00	 call	 ?create_ui_object@@YAPAUUI_OBJECT@@HZZ ; create_ui_object
  0104e	83 c4 64	 add	 esp, 100		; 00000064H
  01051	8b 55 fc	 mov	 edx, DWORD PTR _i$[ebp]
  01054	89 84 95 70 ff
	ff ff		 mov	 DWORD PTR _check_array$[ebp+edx*4], eax

; 1329 : 	(
; 1330 : 		UI_TYPE_TEXT,
; 1331 : 		UI_ATTR_PARENT (title_change_array [i]),
; 1332 : 		UI_ATTR_FONT_TYPE (/*UI_FONT_THICK_ARIAL_18*/UI_FONT_ARIAL_14),
; 1333 :       UI_ATTR_FONT_COLOUR_START (ui_option_title_text_colour.r, ui_option_title_text_colour.g, ui_option_title_text_colour.b, 0),
; 1334 :       UI_ATTR_FONT_COLOUR_END (ui_option_title_text_colour.r, ui_option_title_text_colour.g, ui_option_title_text_colour.b, 255),
; 1335 : 		UI_ATTR_VIRTUAL_POSITION (OPTION_BOX_TEXT_OFFSET_X, OPTION_BOX_TEXT_OFFSET_Y),
; 1336 : 		UI_ATTR_TEXT_JUSTIFY (TEXT_JUSTIFY_RIGHT_CENTRE),
; 1337 : 		UI_ATTR_TEXT (get_trans ("Joystick Look X")),
; 1338 : 		UI_ATTR_END
; 1339 : 	);
; 1340 : 
; 1341 : 	preprocess_translation_object_size (title_change_array [i], check_array [i], NULL, 0, RESIZE_OPTION_BOX_TITLE);

  0105b	6a 00		 push	 0
  0105d	6a 00		 push	 0
  0105f	6a 00		 push	 0
  01061	8b 45 fc	 mov	 eax, DWORD PTR _i$[ebp]
  01064	8b 8c 85 70 ff
	ff ff		 mov	 ecx, DWORD PTR _check_array$[ebp+eax*4]
  0106b	51		 push	 ecx
  0106c	8b 55 fc	 mov	 edx, DWORD PTR _i$[ebp]
  0106f	8b 44 95 ac	 mov	 eax, DWORD PTR _title_change_array$[ebp+edx*4]
  01073	50		 push	 eax
  01074	e8 00 00 00 00	 call	 ?preprocess_translation_object_size@@YGXPAUUI_OBJECT@@0PAPBDHW4RESIZE_UI_OBJECT_TYPES@@@Z ; preprocess_translation_object_size

; 1342 : 	// Retro 10Jul2004 end
; 1343 : 
; 1344 : 	// Retro 10Jul2004
; 1345 : 	// joylook y area
; 1346 : 	
; 1347 : 	i++;

  01079	8b 45 fc	 mov	 eax, DWORD PTR _i$[ebp]
  0107c	83 c0 01	 add	 eax, 1
  0107f	89 45 fc	 mov	 DWORD PTR _i$[ebp], eax

; 1348 : 	x1 = 0.0; 

  01082	0f 57 c0	 xorps	 xmm0, xmm0
  01085	f3 0f 11 45 f8	 movss	 DWORD PTR _x1$[ebp], xmm0

; 1349 : 	y1 = OPTION_TITLE_OFFSET_Y + (/*OPTION_AREA_OFFSET_Y*/OPTION_SMALL_AREA_OFFSET_Y * i);

  0108a	f3 0f 2a 45 fc	 cvtsi2ss xmm0, DWORD PTR _i$[ebp]
  0108f	f3 0f 59 05 00
	00 00 00	 mulss	 xmm0, DWORD PTR __real@3d343958
  01097	f3 0f 58 05 00
	00 00 00	 addss	 xmm0, DWORD PTR __real@3e851eb8
  0109f	f3 0f 11 45 f4	 movss	 DWORD PTR _y1$[ebp], xmm0

; 1350 : 
; 1351 :    joylook_y_area = create_ui_object

  010a4	6a 11		 push	 17			; 00000011H
  010a6	6a 01		 push	 1
  010a8	6a 07		 push	 7
  010aa	83 ec 08	 sub	 esp, 8
  010ad	f2 0f 10 05 00
	00 00 00	 movsd	 xmm0, QWORD PTR __real@3fa47ae140000000
  010b5	f2 0f 11 04 24	 movsd	 QWORD PTR [esp], xmm0
  010ba	83 ec 08	 sub	 esp, 8
  010bd	f2 0f 10 05 00
	00 00 00	 movsd	 xmm0, QWORD PTR __real@3ff0000000000000
  010c5	f2 0f 11 04 24	 movsd	 QWORD PTR [esp], xmm0
  010ca	6a 59		 push	 89			; 00000059H
  010cc	f3 0f 5a 45 f4	 cvtss2sd xmm0, DWORD PTR _y1$[ebp]
  010d1	83 ec 08	 sub	 esp, 8
  010d4	f2 0f 11 04 24	 movsd	 QWORD PTR [esp], xmm0
  010d9	f3 0f 5a 45 f8	 cvtss2sd xmm0, DWORD PTR _x1$[ebp]
  010de	83 ec 08	 sub	 esp, 8
  010e1	f2 0f 11 04 24	 movsd	 QWORD PTR [esp], xmm0
  010e6	6a 58		 push	 88			; 00000058H
  010e8	8b 45 e8	 mov	 eax, DWORD PTR _page$[ebp]
  010eb	50		 push	 eax
  010ec	6a 32		 push	 50			; 00000032H
  010ee	6a 01		 push	 1
  010f0	e8 00 00 00 00	 call	 ?create_ui_object@@YAPAUUI_OBJECT@@HZZ ; create_ui_object
  010f5	83 c4 40	 add	 esp, 64			; 00000040H
  010f8	a3 00 00 00 00	 mov	 DWORD PTR ?joylook_y_area@@3PAUUI_OBJECT@@A, eax ; joylook_y_area

; 1352 : 								(
; 1353 : 									UI_TYPE_AREA,
; 1354 : 									UI_ATTR_PARENT ( page ),
; 1355 : 									UI_ATTR_VIRTUAL_POSITION (x1, y1),
; 1356 : 									UI_ATTR_VIRTUAL_SIZE (OPTION_AREA_WIDTH, /*OPTION_AREA_HEIGHT*/OPTION_SMALL_AREA_HEIGHT),
; 1357 : 									UI_ATTR_CLEAR (TRUE),
; 1358 : 									UI_ATTR_END
; 1359 : 								);
; 1360 : 
; 1361 : 	x1 = CONTROLLER_OPTION_TITLE_OFFSET_X;	// Retro 10Jul2004

  010fd	f3 0f 10 05 00
	00 00 00	 movss	 xmm0, DWORD PTR __real@3c23d70a
  01105	f3 0f 11 45 f8	 movss	 DWORD PTR _x1$[ebp], xmm0

; 1362 : 	y1 = 0.0; 

  0110a	0f 57 c0	 xorps	 xmm0, xmm0
  0110d	f3 0f 11 45 f4	 movss	 DWORD PTR _y1$[ebp], xmm0

; 1363 : 
; 1364 : 	title_change_array[i] = create_ui_object

  01112	6a 11		 push	 17			; 00000011H
  01114	68 ff 00 00 00	 push	 255			; 000000ffH
  01119	68 ff 00 00 00	 push	 255			; 000000ffH
  0111e	68 ff 00 00 00	 push	 255			; 000000ffH
  01123	68 ff 00 00 00	 push	 255			; 000000ffH
  01128	6a 0a		 push	 10			; 0000000aH
  0112a	6a 00		 push	 0
  0112c	68 ff 00 00 00	 push	 255			; 000000ffH
  01131	68 ff 00 00 00	 push	 255			; 000000ffH
  01136	68 ff 00 00 00	 push	 255			; 000000ffH
  0113b	6a 0b		 push	 11			; 0000000bH
  0113d	a1 00 00 00 00	 mov	 eax, DWORD PTR ?options_box_large@@3PAUTEXTURE_GRAPHIC@@A ; options_box_large
  01142	50		 push	 eax
  01143	6a 4c		 push	 76			; 0000004cH
  01145	83 ec 08	 sub	 esp, 8
  01148	f2 0f 10 05 00
	00 00 00	 movsd	 xmm0, QWORD PTR __real@3ff0000000000000
  01150	f2 0f 11 04 24	 movsd	 QWORD PTR [esp], xmm0
  01155	83 ec 08	 sub	 esp, 8
  01158	f2 0f 10 05 00
	00 00 00	 movsd	 xmm0, QWORD PTR __real@3fd3126ea0000000
  01160	f2 0f 11 04 24	 movsd	 QWORD PTR [esp], xmm0
  01165	6a 59		 push	 89			; 00000059H
  01167	f3 0f 5a 45 f4	 cvtss2sd xmm0, DWORD PTR _y1$[ebp]
  0116c	83 ec 08	 sub	 esp, 8
  0116f	f2 0f 11 04 24	 movsd	 QWORD PTR [esp], xmm0
  01174	f3 0f 5a 45 f8	 cvtss2sd xmm0, DWORD PTR _x1$[ebp]
  01179	83 ec 08	 sub	 esp, 8
  0117c	f2 0f 11 04 24	 movsd	 QWORD PTR [esp], xmm0
  01181	6a 58		 push	 88			; 00000058H
  01183	8b 0d 00 00 00
	00		 mov	 ecx, DWORD PTR ?joylook_y_area@@3PAUUI_OBJECT@@A ; joylook_y_area
  01189	51		 push	 ecx
  0118a	6a 32		 push	 50			; 00000032H
  0118c	6a 01		 push	 1
  0118e	e8 00 00 00 00	 call	 ?create_ui_object@@YAPAUUI_OBJECT@@HZZ ; create_ui_object
  01193	83 c4 68	 add	 esp, 104		; 00000068H
  01196	8b 55 fc	 mov	 edx, DWORD PTR _i$[ebp]
  01199	89 44 95 ac	 mov	 DWORD PTR _title_change_array$[ebp+edx*4], eax

; 1365 : 	(
; 1366 : 		UI_TYPE_AREA,
; 1367 : 		UI_ATTR_PARENT (joylook_y_area),
; 1368 : 		UI_ATTR_VIRTUAL_POSITION (x1, y1),
; 1369 : 		UI_ATTR_VIRTUAL_SIZE (OPTION_BOX_WIDTH, OPTION_BOX_HEIGHT),
; 1370 : 		UI_ATTR_TEXTURE_GRAPHIC (options_box_large),
; 1371 : 		UI_ATTR_COLOUR_START (255, 255, 255, 0),
; 1372 : 		UI_ATTR_COLOUR_END (255, 255, 255, 255),
; 1373 : 		UI_ATTR_END
; 1374 : 	);
; 1375 : 
; 1376 :    check_array[i] = create_ui_object

  0119d	6a 11		 push	 17			; 00000011H
  0119f	68 00 00 00 00	 push	 OFFSET ??_C@_0BA@FDAFGAMG@Joystick?5Look?5Y@
  011a4	e8 00 00 00 00	 call	 ?get_trans@@YGPBDPBD@Z	; get_trans
  011a9	50		 push	 eax
  011aa	6a 4a		 push	 74			; 0000004aH
  011ac	6a 02		 push	 2
  011ae	6a 4b		 push	 75			; 0000004bH
  011b0	83 ec 08	 sub	 esp, 8
  011b3	f2 0f 10 05 00
	00 00 00	 movsd	 xmm0, QWORD PTR __real@3fc24dd300000000
  011bb	f2 0f 11 04 24	 movsd	 QWORD PTR [esp], xmm0
  011c0	83 ec 08	 sub	 esp, 8
  011c3	f2 0f 10 05 00
	00 00 00	 movsd	 xmm0, QWORD PTR __real@3fee666660000000
  011cb	f2 0f 11 04 24	 movsd	 QWORD PTR [esp], xmm0
  011d0	6a 58		 push	 88			; 00000058H
  011d2	68 ff 00 00 00	 push	 255			; 000000ffH
  011d7	0f b6 05 00 00
	00 00		 movzx	 eax, BYTE PTR ?ui_option_title_text_colour@@3UREAL_COLOUR@@A
  011de	50		 push	 eax
  011df	0f b6 0d 01 00
	00 00		 movzx	 ecx, BYTE PTR ?ui_option_title_text_colour@@3UREAL_COLOUR@@A+1
  011e6	51		 push	 ecx
  011e7	0f b6 15 02 00
	00 00		 movzx	 edx, BYTE PTR ?ui_option_title_text_colour@@3UREAL_COLOUR@@A+2
  011ee	52		 push	 edx
  011ef	6a 14		 push	 20			; 00000014H
  011f1	6a 00		 push	 0
  011f3	0f b6 05 00 00
	00 00		 movzx	 eax, BYTE PTR ?ui_option_title_text_colour@@3UREAL_COLOUR@@A
  011fa	50		 push	 eax
  011fb	0f b6 0d 01 00
	00 00		 movzx	 ecx, BYTE PTR ?ui_option_title_text_colour@@3UREAL_COLOUR@@A+1
  01202	51		 push	 ecx
  01203	0f b6 15 02 00
	00 00		 movzx	 edx, BYTE PTR ?ui_option_title_text_colour@@3UREAL_COLOUR@@A+2
  0120a	52		 push	 edx
  0120b	6a 15		 push	 21			; 00000015H
  0120d	6a 01		 push	 1
  0120f	6a 12		 push	 18			; 00000012H
  01211	8b 45 fc	 mov	 eax, DWORD PTR _i$[ebp]
  01214	8b 4c 85 ac	 mov	 ecx, DWORD PTR _title_change_array$[ebp+eax*4]
  01218	51		 push	 ecx
  01219	6a 32		 push	 50			; 00000032H
  0121b	6a 05		 push	 5
  0121d	e8 00 00 00 00	 call	 ?create_ui_object@@YAPAUUI_OBJECT@@HZZ ; create_ui_object
  01222	83 c4 64	 add	 esp, 100		; 00000064H
  01225	8b 55 fc	 mov	 edx, DWORD PTR _i$[ebp]
  01228	89 84 95 70 ff
	ff ff		 mov	 DWORD PTR _check_array$[ebp+edx*4], eax

; 1377 : 	(
; 1378 : 		UI_TYPE_TEXT,
; 1379 : 		UI_ATTR_PARENT (title_change_array [i]),
; 1380 : 		UI_ATTR_FONT_TYPE (/*UI_FONT_THICK_ARIAL_18*/UI_FONT_ARIAL_14),
; 1381 :       UI_ATTR_FONT_COLOUR_START (ui_option_title_text_colour.r, ui_option_title_text_colour.g, ui_option_title_text_colour.b, 0),
; 1382 :       UI_ATTR_FONT_COLOUR_END (ui_option_title_text_colour.r, ui_option_title_text_colour.g, ui_option_title_text_colour.b, 255),
; 1383 : 		UI_ATTR_VIRTUAL_POSITION (OPTION_BOX_TEXT_OFFSET_X, OPTION_BOX_TEXT_OFFSET_Y),
; 1384 : 		UI_ATTR_TEXT_JUSTIFY (TEXT_JUSTIFY_RIGHT_CENTRE),
; 1385 : 		UI_ATTR_TEXT (get_trans ("Joystick Look Y")),
; 1386 : 		UI_ATTR_END
; 1387 : 	);
; 1388 : 
; 1389 : 	preprocess_translation_object_size (title_change_array [i], check_array [i], NULL, 0, RESIZE_OPTION_BOX_TITLE);

  0122f	6a 00		 push	 0
  01231	6a 00		 push	 0
  01233	6a 00		 push	 0
  01235	8b 45 fc	 mov	 eax, DWORD PTR _i$[ebp]
  01238	8b 8c 85 70 ff
	ff ff		 mov	 ecx, DWORD PTR _check_array$[ebp+eax*4]
  0123f	51		 push	 ecx
  01240	8b 55 fc	 mov	 edx, DWORD PTR _i$[ebp]
  01243	8b 44 95 ac	 mov	 eax, DWORD PTR _title_change_array$[ebp+edx*4]
  01247	50		 push	 eax
  01248	e8 00 00 00 00	 call	 ?preprocess_translation_object_size@@YGXPAUUI_OBJECT@@0PAPBDHW4RESIZE_UI_OBJECT_TYPES@@@Z ; preprocess_translation_object_size

; 1390 : 	// Retro 10Jul2004 end
; 1391 : 
; 1392 : 	//reverse throttle area
; 1393 : 
; 1394 : 	i++;

  0124d	8b 45 fc	 mov	 eax, DWORD PTR _i$[ebp]
  01250	83 c0 01	 add	 eax, 1
  01253	89 45 fc	 mov	 DWORD PTR _i$[ebp], eax

; 1395 : 	x1 = 0.0; 

  01256	0f 57 c0	 xorps	 xmm0, xmm0
  01259	f3 0f 11 45 f8	 movss	 DWORD PTR _x1$[ebp], xmm0

; 1396 : 	y1 = OPTION_TITLE_OFFSET_Y + (/*OPTION_AREA_OFFSET_Y*/OPTION_SMALL_AREA_OFFSET_Y * i);

  0125e	f3 0f 2a 45 fc	 cvtsi2ss xmm0, DWORD PTR _i$[ebp]
  01263	f3 0f 59 05 00
	00 00 00	 mulss	 xmm0, DWORD PTR __real@3d343958
  0126b	f3 0f 58 05 00
	00 00 00	 addss	 xmm0, DWORD PTR __real@3e851eb8
  01273	f3 0f 11 45 f4	 movss	 DWORD PTR _y1$[ebp], xmm0

; 1397 : 
; 1398 :    reverse_throttle_area = create_ui_object

  01278	6a 11		 push	 17			; 00000011H
  0127a	6a 01		 push	 1
  0127c	6a 07		 push	 7
  0127e	83 ec 08	 sub	 esp, 8
  01281	f2 0f 10 05 00
	00 00 00	 movsd	 xmm0, QWORD PTR __real@3fa47ae140000000
  01289	f2 0f 11 04 24	 movsd	 QWORD PTR [esp], xmm0
  0128e	83 ec 08	 sub	 esp, 8
  01291	f2 0f 10 05 00
	00 00 00	 movsd	 xmm0, QWORD PTR __real@3ff0000000000000
  01299	f2 0f 11 04 24	 movsd	 QWORD PTR [esp], xmm0
  0129e	6a 59		 push	 89			; 00000059H
  012a0	f3 0f 5a 45 f4	 cvtss2sd xmm0, DWORD PTR _y1$[ebp]
  012a5	83 ec 08	 sub	 esp, 8
  012a8	f2 0f 11 04 24	 movsd	 QWORD PTR [esp], xmm0
  012ad	f3 0f 5a 45 f8	 cvtss2sd xmm0, DWORD PTR _x1$[ebp]
  012b2	83 ec 08	 sub	 esp, 8
  012b5	f2 0f 11 04 24	 movsd	 QWORD PTR [esp], xmm0
  012ba	6a 58		 push	 88			; 00000058H
  012bc	8b 45 e8	 mov	 eax, DWORD PTR _page$[ebp]
  012bf	50		 push	 eax
  012c0	6a 32		 push	 50			; 00000032H
  012c2	6a 01		 push	 1
  012c4	e8 00 00 00 00	 call	 ?create_ui_object@@YAPAUUI_OBJECT@@HZZ ; create_ui_object
  012c9	83 c4 40	 add	 esp, 64			; 00000040H
  012cc	a3 00 00 00 00	 mov	 DWORD PTR ?reverse_throttle_area@@3PAUUI_OBJECT@@A, eax ; reverse_throttle_area

; 1399 : 										(
; 1400 : 											UI_TYPE_AREA,
; 1401 : 											UI_ATTR_PARENT (page),
; 1402 : 											UI_ATTR_VIRTUAL_POSITION (x1, y1),
; 1403 : 											UI_ATTR_VIRTUAL_SIZE (OPTION_AREA_WIDTH, /*OPTION_AREA_HEIGHT*/OPTION_SMALL_AREA_HEIGHT),
; 1404 : 											UI_ATTR_CLEAR (TRUE),
; 1405 : 											UI_ATTR_END
; 1406 : 										);
; 1407 : 
; 1408 : 	x1 = CONTROLLER_OPTION_TITLE_OFFSET_X;	// Retro 10Jul2004

  012d1	f3 0f 10 05 00
	00 00 00	 movss	 xmm0, DWORD PTR __real@3c23d70a
  012d9	f3 0f 11 45 f8	 movss	 DWORD PTR _x1$[ebp], xmm0

; 1409 : 	y1 = 0.0; 

  012de	0f 57 c0	 xorps	 xmm0, xmm0
  012e1	f3 0f 11 45 f4	 movss	 DWORD PTR _y1$[ebp], xmm0

; 1410 : 
; 1411 : 	title_change_array[i] = create_ui_object

  012e6	6a 11		 push	 17			; 00000011H
  012e8	68 ff 00 00 00	 push	 255			; 000000ffH
  012ed	68 ff 00 00 00	 push	 255			; 000000ffH
  012f2	68 ff 00 00 00	 push	 255			; 000000ffH
  012f7	68 ff 00 00 00	 push	 255			; 000000ffH
  012fc	6a 0a		 push	 10			; 0000000aH
  012fe	6a 00		 push	 0
  01300	68 ff 00 00 00	 push	 255			; 000000ffH
  01305	68 ff 00 00 00	 push	 255			; 000000ffH
  0130a	68 ff 00 00 00	 push	 255			; 000000ffH
  0130f	6a 0b		 push	 11			; 0000000bH
  01311	a1 00 00 00 00	 mov	 eax, DWORD PTR ?options_box_large@@3PAUTEXTURE_GRAPHIC@@A ; options_box_large
  01316	50		 push	 eax
  01317	6a 4c		 push	 76			; 0000004cH
  01319	83 ec 08	 sub	 esp, 8
  0131c	f2 0f 10 05 00
	00 00 00	 movsd	 xmm0, QWORD PTR __real@3ff0000000000000
  01324	f2 0f 11 04 24	 movsd	 QWORD PTR [esp], xmm0
  01329	83 ec 08	 sub	 esp, 8
  0132c	f2 0f 10 05 00
	00 00 00	 movsd	 xmm0, QWORD PTR __real@3fd3126ea0000000
  01334	f2 0f 11 04 24	 movsd	 QWORD PTR [esp], xmm0
  01339	6a 59		 push	 89			; 00000059H
  0133b	f3 0f 5a 45 f4	 cvtss2sd xmm0, DWORD PTR _y1$[ebp]
  01340	83 ec 08	 sub	 esp, 8
  01343	f2 0f 11 04 24	 movsd	 QWORD PTR [esp], xmm0
  01348	f3 0f 5a 45 f8	 cvtss2sd xmm0, DWORD PTR _x1$[ebp]
  0134d	83 ec 08	 sub	 esp, 8
  01350	f2 0f 11 04 24	 movsd	 QWORD PTR [esp], xmm0
  01355	6a 58		 push	 88			; 00000058H
  01357	8b 0d 00 00 00
	00		 mov	 ecx, DWORD PTR ?reverse_throttle_area@@3PAUUI_OBJECT@@A ; reverse_throttle_area
  0135d	51		 push	 ecx
  0135e	6a 32		 push	 50			; 00000032H
  01360	6a 01		 push	 1
  01362	e8 00 00 00 00	 call	 ?create_ui_object@@YAPAUUI_OBJECT@@HZZ ; create_ui_object
  01367	83 c4 68	 add	 esp, 104		; 00000068H
  0136a	8b 55 fc	 mov	 edx, DWORD PTR _i$[ebp]
  0136d	89 44 95 ac	 mov	 DWORD PTR _title_change_array$[ebp+edx*4], eax

; 1412 : 	(
; 1413 : 		UI_TYPE_AREA,
; 1414 : 		UI_ATTR_PARENT (reverse_throttle_area),
; 1415 : 		UI_ATTR_VIRTUAL_POSITION (x1, y1),
; 1416 : 		UI_ATTR_VIRTUAL_SIZE (OPTION_BOX_WIDTH, OPTION_BOX_HEIGHT),
; 1417 : 		UI_ATTR_TEXTURE_GRAPHIC (options_box_large),
; 1418 : 		UI_ATTR_COLOUR_START (255, 255, 255, 0),
; 1419 : 		UI_ATTR_COLOUR_END (255, 255, 255, 255),
; 1420 : 		UI_ATTR_END
; 1421 : 	);
; 1422 : 
; 1423 :    check_array[i] = create_ui_object

  01371	6a 11		 push	 17			; 00000011H
  01373	68 00 00 00 00	 push	 OFFSET ??_C@_0BB@DPPEHFHN@Reverse?5Throttle@
  01378	e8 00 00 00 00	 call	 ?get_trans@@YGPBDPBD@Z	; get_trans
  0137d	50		 push	 eax
  0137e	6a 4a		 push	 74			; 0000004aH
  01380	6a 02		 push	 2
  01382	6a 4b		 push	 75			; 0000004bH
  01384	83 ec 08	 sub	 esp, 8
  01387	f2 0f 10 05 00
	00 00 00	 movsd	 xmm0, QWORD PTR __real@3fc24dd300000000
  0138f	f2 0f 11 04 24	 movsd	 QWORD PTR [esp], xmm0
  01394	83 ec 08	 sub	 esp, 8
  01397	f2 0f 10 05 00
	00 00 00	 movsd	 xmm0, QWORD PTR __real@3fee666660000000
  0139f	f2 0f 11 04 24	 movsd	 QWORD PTR [esp], xmm0
  013a4	6a 58		 push	 88			; 00000058H
  013a6	68 ff 00 00 00	 push	 255			; 000000ffH
  013ab	0f b6 05 00 00
	00 00		 movzx	 eax, BYTE PTR ?ui_option_title_text_colour@@3UREAL_COLOUR@@A
  013b2	50		 push	 eax
  013b3	0f b6 0d 01 00
	00 00		 movzx	 ecx, BYTE PTR ?ui_option_title_text_colour@@3UREAL_COLOUR@@A+1
  013ba	51		 push	 ecx
  013bb	0f b6 15 02 00
	00 00		 movzx	 edx, BYTE PTR ?ui_option_title_text_colour@@3UREAL_COLOUR@@A+2
  013c2	52		 push	 edx
  013c3	6a 14		 push	 20			; 00000014H
  013c5	6a 00		 push	 0
  013c7	0f b6 05 00 00
	00 00		 movzx	 eax, BYTE PTR ?ui_option_title_text_colour@@3UREAL_COLOUR@@A
  013ce	50		 push	 eax
  013cf	0f b6 0d 01 00
	00 00		 movzx	 ecx, BYTE PTR ?ui_option_title_text_colour@@3UREAL_COLOUR@@A+1
  013d6	51		 push	 ecx
  013d7	0f b6 15 02 00
	00 00		 movzx	 edx, BYTE PTR ?ui_option_title_text_colour@@3UREAL_COLOUR@@A+2
  013de	52		 push	 edx
  013df	6a 15		 push	 21			; 00000015H
  013e1	6a 01		 push	 1
  013e3	6a 12		 push	 18			; 00000012H
  013e5	8b 45 fc	 mov	 eax, DWORD PTR _i$[ebp]
  013e8	8b 4c 85 ac	 mov	 ecx, DWORD PTR _title_change_array$[ebp+eax*4]
  013ec	51		 push	 ecx
  013ed	6a 32		 push	 50			; 00000032H
  013ef	6a 05		 push	 5
  013f1	e8 00 00 00 00	 call	 ?create_ui_object@@YAPAUUI_OBJECT@@HZZ ; create_ui_object
  013f6	83 c4 64	 add	 esp, 100		; 00000064H
  013f9	8b 55 fc	 mov	 edx, DWORD PTR _i$[ebp]
  013fc	89 84 95 70 ff
	ff ff		 mov	 DWORD PTR _check_array$[ebp+edx*4], eax

; 1424 : 	(
; 1425 : 		UI_TYPE_TEXT,
; 1426 : 		UI_ATTR_PARENT (title_change_array [i]),
; 1427 : 		UI_ATTR_FONT_TYPE (/*UI_FONT_THICK_ARIAL_18*/UI_FONT_ARIAL_14),
; 1428 :       UI_ATTR_FONT_COLOUR_START (ui_option_title_text_colour.r, ui_option_title_text_colour.g, ui_option_title_text_colour.b, 0),
; 1429 :       UI_ATTR_FONT_COLOUR_END (ui_option_title_text_colour.r, ui_option_title_text_colour.g, ui_option_title_text_colour.b, 255),
; 1430 : 		UI_ATTR_VIRTUAL_POSITION (OPTION_BOX_TEXT_OFFSET_X, OPTION_BOX_TEXT_OFFSET_Y),
; 1431 : 		UI_ATTR_TEXT_JUSTIFY (TEXT_JUSTIFY_RIGHT_CENTRE),
; 1432 : 		UI_ATTR_TEXT (get_trans ("Reverse Throttle")),
; 1433 : 		UI_ATTR_END
; 1434 : 	);
; 1435 : 
; 1436 : 	preprocess_translation_object_size (title_change_array [i], check_array [i], NULL, 0, RESIZE_OPTION_BOX_TITLE);

  01403	6a 00		 push	 0
  01405	6a 00		 push	 0
  01407	6a 00		 push	 0
  01409	8b 45 fc	 mov	 eax, DWORD PTR _i$[ebp]
  0140c	8b 8c 85 70 ff
	ff ff		 mov	 ecx, DWORD PTR _check_array$[ebp+eax*4]
  01413	51		 push	 ecx
  01414	8b 55 fc	 mov	 edx, DWORD PTR _i$[ebp]
  01417	8b 44 95 ac	 mov	 eax, DWORD PTR _title_change_array$[ebp+edx*4]
  0141b	50		 push	 eax
  0141c	e8 00 00 00 00	 call	 ?preprocess_translation_object_size@@YGXPAUUI_OBJECT@@0PAPBDHW4RESIZE_UI_OBJECT_TYPES@@@Z ; preprocess_translation_object_size

; 1437 : 
; 1438 : 	// Retro 17Jul2004
; 1439 : 	// Reverse Pedal Option area
; 1440 : 
; 1441 : 	i++;

  01421	8b 45 fc	 mov	 eax, DWORD PTR _i$[ebp]
  01424	83 c0 01	 add	 eax, 1
  01427	89 45 fc	 mov	 DWORD PTR _i$[ebp], eax

; 1442 : //	x1 = 0.0; 
; 1443 : //	x1 = 0.5; 
; 1444 : 	x1 = SECOND_OPTION_START;

  0142a	f3 0f 10 05 00
	00 00 00	 movss	 xmm0, DWORD PTR __real@3f0ccccd
  01432	f3 0f 11 45 f8	 movss	 DWORD PTR _x1$[ebp], xmm0

; 1445 : //	y1 = OPTION_TITLE_OFFSET_Y + /*OPTION_AREA_OFFSET_Y*/OPTION_SMALL_AREA_OFFSET_Y * i;
; 1446 : 	y1 = OPTION_TITLE_OFFSET_Y + /*OPTION_AREA_OFFSET_Y*/OPTION_SMALL_AREA_OFFSET_Y * (i-1);

  01437	8b 45 fc	 mov	 eax, DWORD PTR _i$[ebp]
  0143a	83 e8 01	 sub	 eax, 1
  0143d	f3 0f 2a c0	 cvtsi2ss xmm0, eax
  01441	f3 0f 59 05 00
	00 00 00	 mulss	 xmm0, DWORD PTR __real@3d343958
  01449	f3 0f 58 05 00
	00 00 00	 addss	 xmm0, DWORD PTR __real@3e851eb8
  01451	f3 0f 11 45 f4	 movss	 DWORD PTR _y1$[ebp], xmm0

; 1447 : 
; 1448 :    reverse_pedal_area = create_ui_object

  01456	6a 11		 push	 17			; 00000011H
  01458	6a 01		 push	 1
  0145a	6a 07		 push	 7
  0145c	83 ec 08	 sub	 esp, 8
  0145f	f2 0f 10 05 00
	00 00 00	 movsd	 xmm0, QWORD PTR __real@3fa47ae140000000
  01467	f2 0f 11 04 24	 movsd	 QWORD PTR [esp], xmm0
  0146c	83 ec 08	 sub	 esp, 8
  0146f	f2 0f 10 05 00
	00 00 00	 movsd	 xmm0, QWORD PTR __real@3ff0000000000000
  01477	f2 0f 11 04 24	 movsd	 QWORD PTR [esp], xmm0
  0147c	6a 59		 push	 89			; 00000059H
  0147e	f3 0f 5a 45 f4	 cvtss2sd xmm0, DWORD PTR _y1$[ebp]
  01483	83 ec 08	 sub	 esp, 8
  01486	f2 0f 11 04 24	 movsd	 QWORD PTR [esp], xmm0
  0148b	f3 0f 5a 45 f8	 cvtss2sd xmm0, DWORD PTR _x1$[ebp]
  01490	83 ec 08	 sub	 esp, 8
  01493	f2 0f 11 04 24	 movsd	 QWORD PTR [esp], xmm0
  01498	6a 58		 push	 88			; 00000058H
  0149a	8b 45 e8	 mov	 eax, DWORD PTR _page$[ebp]
  0149d	50		 push	 eax
  0149e	6a 32		 push	 50			; 00000032H
  014a0	6a 01		 push	 1
  014a2	e8 00 00 00 00	 call	 ?create_ui_object@@YAPAUUI_OBJECT@@HZZ ; create_ui_object
  014a7	83 c4 40	 add	 esp, 64			; 00000040H
  014aa	a3 00 00 00 00	 mov	 DWORD PTR ?reverse_pedal_area@@3PAUUI_OBJECT@@A, eax ; reverse_pedal_area

; 1449 : 								(
; 1450 : 									UI_TYPE_AREA,
; 1451 : 									UI_ATTR_PARENT ( page ),
; 1452 : 									UI_ATTR_VIRTUAL_POSITION (x1, y1),
; 1453 : 									UI_ATTR_VIRTUAL_SIZE (OPTION_AREA_WIDTH, /*OPTION_AREA_HEIGHT*/OPTION_SMALL_AREA_HEIGHT),
; 1454 : 									UI_ATTR_CLEAR (TRUE),
; 1455 : 									UI_ATTR_END
; 1456 : 								);
; 1457 : 
; 1458 : 	x1 = CONTROLLER_OPTION_TITLE_OFFSET_X;	// Retro 10Jul2004

  014af	f3 0f 10 05 00
	00 00 00	 movss	 xmm0, DWORD PTR __real@3c23d70a
  014b7	f3 0f 11 45 f8	 movss	 DWORD PTR _x1$[ebp], xmm0

; 1459 : 	y1 = 0.0; 

  014bc	0f 57 c0	 xorps	 xmm0, xmm0
  014bf	f3 0f 11 45 f4	 movss	 DWORD PTR _y1$[ebp], xmm0

; 1460 : 
; 1461 : 	title_change_array[i] = create_ui_object

  014c4	6a 11		 push	 17			; 00000011H
  014c6	a1 00 00 00 00	 mov	 eax, DWORD PTR ?options_box_large@@3PAUTEXTURE_GRAPHIC@@A ; options_box_large
  014cb	50		 push	 eax
  014cc	6a 4c		 push	 76			; 0000004cH
  014ce	68 ff 00 00 00	 push	 255			; 000000ffH
  014d3	68 ff 00 00 00	 push	 255			; 000000ffH
  014d8	68 ff 00 00 00	 push	 255			; 000000ffH
  014dd	68 ff 00 00 00	 push	 255			; 000000ffH
  014e2	6a 0a		 push	 10			; 0000000aH
  014e4	6a 00		 push	 0
  014e6	68 ff 00 00 00	 push	 255			; 000000ffH
  014eb	68 ff 00 00 00	 push	 255			; 000000ffH
  014f0	68 ff 00 00 00	 push	 255			; 000000ffH
  014f5	6a 0b		 push	 11			; 0000000bH
  014f7	83 ec 08	 sub	 esp, 8
  014fa	f2 0f 10 05 00
	00 00 00	 movsd	 xmm0, QWORD PTR __real@3ff0000000000000
  01502	f2 0f 11 04 24	 movsd	 QWORD PTR [esp], xmm0
  01507	83 ec 08	 sub	 esp, 8
  0150a	f2 0f 10 05 00
	00 00 00	 movsd	 xmm0, QWORD PTR __real@3fd3126ea0000000
  01512	f2 0f 11 04 24	 movsd	 QWORD PTR [esp], xmm0
  01517	6a 59		 push	 89			; 00000059H
  01519	f3 0f 5a 45 f4	 cvtss2sd xmm0, DWORD PTR _y1$[ebp]
  0151e	83 ec 08	 sub	 esp, 8
  01521	f2 0f 11 04 24	 movsd	 QWORD PTR [esp], xmm0
  01526	f3 0f 5a 45 f8	 cvtss2sd xmm0, DWORD PTR _x1$[ebp]
  0152b	83 ec 08	 sub	 esp, 8
  0152e	f2 0f 11 04 24	 movsd	 QWORD PTR [esp], xmm0
  01533	6a 58		 push	 88			; 00000058H
  01535	8b 0d 00 00 00
	00		 mov	 ecx, DWORD PTR ?reverse_pedal_area@@3PAUUI_OBJECT@@A ; reverse_pedal_area
  0153b	51		 push	 ecx
  0153c	6a 32		 push	 50			; 00000032H
  0153e	6a 01		 push	 1
  01540	e8 00 00 00 00	 call	 ?create_ui_object@@YAPAUUI_OBJECT@@HZZ ; create_ui_object
  01545	83 c4 68	 add	 esp, 104		; 00000068H
  01548	8b 55 fc	 mov	 edx, DWORD PTR _i$[ebp]
  0154b	89 44 95 ac	 mov	 DWORD PTR _title_change_array$[ebp+edx*4], eax

; 1462 : 	(
; 1463 : 		UI_TYPE_AREA,
; 1464 : 		UI_ATTR_PARENT (reverse_pedal_area),
; 1465 : 		UI_ATTR_VIRTUAL_POSITION (x1, y1),
; 1466 : 		UI_ATTR_VIRTUAL_SIZE (OPTION_BOX_WIDTH, OPTION_BOX_HEIGHT),
; 1467 : 		UI_ATTR_COLOUR_START ( 255, 255, 255, 0 ),
; 1468 : 		UI_ATTR_COLOUR_END ( 255, 255, 255, 255 ),
; 1469 : 		UI_ATTR_TEXTURE_GRAPHIC (options_box_large),
; 1470 : 		UI_ATTR_END
; 1471 : 	);
; 1472 : 
; 1473 :    check_array[i] = create_ui_object

  0154f	6a 11		 push	 17			; 00000011H
  01551	68 00 00 00 00	 push	 OFFSET ??_C@_0O@BEGINGPP@Reverse?5Pedal@
  01556	e8 00 00 00 00	 call	 ?get_trans@@YGPBDPBD@Z	; get_trans
  0155b	50		 push	 eax
  0155c	6a 4a		 push	 74			; 0000004aH
  0155e	6a 02		 push	 2
  01560	6a 4b		 push	 75			; 0000004bH
  01562	68 ff 00 00 00	 push	 255			; 000000ffH
  01567	0f b6 05 00 00
	00 00		 movzx	 eax, BYTE PTR ?ui_option_title_text_colour@@3UREAL_COLOUR@@A
  0156e	50		 push	 eax
  0156f	0f b6 0d 01 00
	00 00		 movzx	 ecx, BYTE PTR ?ui_option_title_text_colour@@3UREAL_COLOUR@@A+1
  01576	51		 push	 ecx
  01577	0f b6 15 02 00
	00 00		 movzx	 edx, BYTE PTR ?ui_option_title_text_colour@@3UREAL_COLOUR@@A+2
  0157e	52		 push	 edx
  0157f	6a 14		 push	 20			; 00000014H
  01581	6a 00		 push	 0
  01583	0f b6 05 00 00
	00 00		 movzx	 eax, BYTE PTR ?ui_option_title_text_colour@@3UREAL_COLOUR@@A
  0158a	50		 push	 eax
  0158b	0f b6 0d 01 00
	00 00		 movzx	 ecx, BYTE PTR ?ui_option_title_text_colour@@3UREAL_COLOUR@@A+1
  01592	51		 push	 ecx
  01593	0f b6 15 02 00
	00 00		 movzx	 edx, BYTE PTR ?ui_option_title_text_colour@@3UREAL_COLOUR@@A+2
  0159a	52		 push	 edx
  0159b	6a 15		 push	 21			; 00000015H
  0159d	6a 01		 push	 1
  0159f	6a 12		 push	 18			; 00000012H
  015a1	83 ec 08	 sub	 esp, 8
  015a4	f2 0f 10 05 00
	00 00 00	 movsd	 xmm0, QWORD PTR __real@3fc24dd300000000
  015ac	f2 0f 11 04 24	 movsd	 QWORD PTR [esp], xmm0
  015b1	83 ec 08	 sub	 esp, 8
  015b4	f2 0f 10 05 00
	00 00 00	 movsd	 xmm0, QWORD PTR __real@3fee666660000000
  015bc	f2 0f 11 04 24	 movsd	 QWORD PTR [esp], xmm0
  015c1	6a 58		 push	 88			; 00000058H
  015c3	8b 45 fc	 mov	 eax, DWORD PTR _i$[ebp]
  015c6	8b 4c 85 ac	 mov	 ecx, DWORD PTR _title_change_array$[ebp+eax*4]
  015ca	51		 push	 ecx
  015cb	6a 32		 push	 50			; 00000032H
  015cd	6a 05		 push	 5
  015cf	e8 00 00 00 00	 call	 ?create_ui_object@@YAPAUUI_OBJECT@@HZZ ; create_ui_object
  015d4	83 c4 64	 add	 esp, 100		; 00000064H
  015d7	8b 55 fc	 mov	 edx, DWORD PTR _i$[ebp]
  015da	89 84 95 70 ff
	ff ff		 mov	 DWORD PTR _check_array$[ebp+edx*4], eax

; 1474 : 	(
; 1475 : 		UI_TYPE_TEXT,
; 1476 : 		UI_ATTR_PARENT (title_change_array[i]),
; 1477 : 		UI_ATTR_VIRTUAL_POSITION (OPTION_BOX_TEXT_OFFSET_X, OPTION_BOX_TEXT_OFFSET_Y),
; 1478 : 		UI_ATTR_FONT_TYPE (/*UI_FONT_THICK_ARIAL_18*/UI_FONT_ARIAL_14),
; 1479 :       UI_ATTR_FONT_COLOUR_START (ui_option_title_text_colour.r, ui_option_title_text_colour.g, ui_option_title_text_colour.b, 0),
; 1480 :       UI_ATTR_FONT_COLOUR_END (ui_option_title_text_colour.r, ui_option_title_text_colour.g, ui_option_title_text_colour.b, 255),
; 1481 : 		UI_ATTR_TEXT_JUSTIFY (TEXT_JUSTIFY_RIGHT_CENTRE),
; 1482 : 		UI_ATTR_TEXT (get_trans ("Reverse Pedal")),
; 1483 : 		UI_ATTR_END
; 1484 : 	);
; 1485 : 
; 1486 : 	preprocess_translation_object_size (title_change_array [i], check_array [i], NULL, 0, RESIZE_OPTION_BOX_TITLE);

  015e1	6a 00		 push	 0
  015e3	6a 00		 push	 0
  015e5	6a 00		 push	 0
  015e7	8b 45 fc	 mov	 eax, DWORD PTR _i$[ebp]
  015ea	8b 8c 85 70 ff
	ff ff		 mov	 ecx, DWORD PTR _check_array$[ebp+eax*4]
  015f1	51		 push	 ecx
  015f2	8b 55 fc	 mov	 edx, DWORD PTR _i$[ebp]
  015f5	8b 44 95 ac	 mov	 eax, DWORD PTR _title_change_array$[ebp+edx*4]
  015f9	50		 push	 eax
  015fa	e8 00 00 00 00	 call	 ?preprocess_translation_object_size@@YGXPAUUI_OBJECT@@0PAPBDHW4RESIZE_UI_OBJECT_TYPES@@@Z ; preprocess_translation_object_size

; 1487 : 	// Retro 17Jul2004 end
; 1488 : 
; 1489 : 	// Retro 10Jul2004
; 1490 : 	//mouselook area
; 1491 : 
; 1492 : 	i++;

  015ff	8b 45 fc	 mov	 eax, DWORD PTR _i$[ebp]
  01602	83 c0 01	 add	 eax, 1
  01605	89 45 fc	 mov	 DWORD PTR _i$[ebp], eax

; 1493 : 	x1 = 0.0; 

  01608	0f 57 c0	 xorps	 xmm0, xmm0
  0160b	f3 0f 11 45 f8	 movss	 DWORD PTR _x1$[ebp], xmm0

; 1494 : 	y1 = OPTION_TITLE_OFFSET_Y + (/*OPTION_AREA_OFFSET_Y*/OPTION_SMALL_AREA_OFFSET_Y * (i-1));

  01610	8b 45 fc	 mov	 eax, DWORD PTR _i$[ebp]
  01613	83 e8 01	 sub	 eax, 1
  01616	f3 0f 2a c0	 cvtsi2ss xmm0, eax
  0161a	f3 0f 59 05 00
	00 00 00	 mulss	 xmm0, DWORD PTR __real@3d343958
  01622	f3 0f 58 05 00
	00 00 00	 addss	 xmm0, DWORD PTR __real@3e851eb8
  0162a	f3 0f 11 45 f4	 movss	 DWORD PTR _y1$[ebp], xmm0

; 1495 : 
; 1496 :    mouselook_area = create_ui_object

  0162f	6a 11		 push	 17			; 00000011H
  01631	6a 01		 push	 1
  01633	6a 07		 push	 7
  01635	83 ec 08	 sub	 esp, 8
  01638	f2 0f 10 05 00
	00 00 00	 movsd	 xmm0, QWORD PTR __real@3fa47ae140000000
  01640	f2 0f 11 04 24	 movsd	 QWORD PTR [esp], xmm0
  01645	83 ec 08	 sub	 esp, 8
  01648	f2 0f 10 05 00
	00 00 00	 movsd	 xmm0, QWORD PTR __real@3ff0000000000000
  01650	f2 0f 11 04 24	 movsd	 QWORD PTR [esp], xmm0
  01655	6a 59		 push	 89			; 00000059H
  01657	f3 0f 5a 45 f4	 cvtss2sd xmm0, DWORD PTR _y1$[ebp]
  0165c	83 ec 08	 sub	 esp, 8
  0165f	f2 0f 11 04 24	 movsd	 QWORD PTR [esp], xmm0
  01664	f3 0f 5a 45 f8	 cvtss2sd xmm0, DWORD PTR _x1$[ebp]
  01669	83 ec 08	 sub	 esp, 8
  0166c	f2 0f 11 04 24	 movsd	 QWORD PTR [esp], xmm0
  01671	6a 58		 push	 88			; 00000058H
  01673	8b 45 e8	 mov	 eax, DWORD PTR _page$[ebp]
  01676	50		 push	 eax
  01677	6a 32		 push	 50			; 00000032H
  01679	6a 01		 push	 1
  0167b	e8 00 00 00 00	 call	 ?create_ui_object@@YAPAUUI_OBJECT@@HZZ ; create_ui_object
  01680	83 c4 40	 add	 esp, 64			; 00000040H
  01683	a3 00 00 00 00	 mov	 DWORD PTR ?mouselook_area@@3PAUUI_OBJECT@@A, eax ; mouselook_area

; 1497 : 										(
; 1498 : 											UI_TYPE_AREA,
; 1499 : 											UI_ATTR_PARENT (page),
; 1500 : 											UI_ATTR_VIRTUAL_POSITION (x1, y1),
; 1501 : 											UI_ATTR_VIRTUAL_SIZE (OPTION_AREA_WIDTH, /*OPTION_AREA_HEIGHT*/OPTION_SMALL_AREA_HEIGHT),
; 1502 : 											UI_ATTR_CLEAR (TRUE),
; 1503 : 											UI_ATTR_END
; 1504 : 										);
; 1505 : 
; 1506 : 	x1 = CONTROLLER_OPTION_TITLE_OFFSET_X;	// Retro 10Jul2004

  01688	f3 0f 10 05 00
	00 00 00	 movss	 xmm0, DWORD PTR __real@3c23d70a
  01690	f3 0f 11 45 f8	 movss	 DWORD PTR _x1$[ebp], xmm0

; 1507 : 	y1 = 0.0; 

  01695	0f 57 c0	 xorps	 xmm0, xmm0
  01698	f3 0f 11 45 f4	 movss	 DWORD PTR _y1$[ebp], xmm0

; 1508 : 
; 1509 : 	title_change_array[i] = create_ui_object

  0169d	6a 11		 push	 17			; 00000011H
  0169f	68 ff 00 00 00	 push	 255			; 000000ffH
  016a4	68 ff 00 00 00	 push	 255			; 000000ffH
  016a9	68 ff 00 00 00	 push	 255			; 000000ffH
  016ae	68 ff 00 00 00	 push	 255			; 000000ffH
  016b3	6a 0a		 push	 10			; 0000000aH
  016b5	6a 00		 push	 0
  016b7	68 ff 00 00 00	 push	 255			; 000000ffH
  016bc	68 ff 00 00 00	 push	 255			; 000000ffH
  016c1	68 ff 00 00 00	 push	 255			; 000000ffH
  016c6	6a 0b		 push	 11			; 0000000bH
  016c8	a1 00 00 00 00	 mov	 eax, DWORD PTR ?options_box_large@@3PAUTEXTURE_GRAPHIC@@A ; options_box_large
  016cd	50		 push	 eax
  016ce	6a 4c		 push	 76			; 0000004cH
  016d0	83 ec 08	 sub	 esp, 8
  016d3	f2 0f 10 05 00
	00 00 00	 movsd	 xmm0, QWORD PTR __real@3ff0000000000000
  016db	f2 0f 11 04 24	 movsd	 QWORD PTR [esp], xmm0
  016e0	83 ec 08	 sub	 esp, 8
  016e3	f2 0f 10 05 00
	00 00 00	 movsd	 xmm0, QWORD PTR __real@3fd3126ea0000000
  016eb	f2 0f 11 04 24	 movsd	 QWORD PTR [esp], xmm0
  016f0	6a 59		 push	 89			; 00000059H
  016f2	f3 0f 5a 45 f4	 cvtss2sd xmm0, DWORD PTR _y1$[ebp]
  016f7	83 ec 08	 sub	 esp, 8
  016fa	f2 0f 11 04 24	 movsd	 QWORD PTR [esp], xmm0
  016ff	f3 0f 5a 45 f8	 cvtss2sd xmm0, DWORD PTR _x1$[ebp]
  01704	83 ec 08	 sub	 esp, 8
  01707	f2 0f 11 04 24	 movsd	 QWORD PTR [esp], xmm0
  0170c	6a 58		 push	 88			; 00000058H
  0170e	8b 0d 00 00 00
	00		 mov	 ecx, DWORD PTR ?mouselook_area@@3PAUUI_OBJECT@@A ; mouselook_area
  01714	51		 push	 ecx
  01715	6a 32		 push	 50			; 00000032H
  01717	6a 01		 push	 1
  01719	e8 00 00 00 00	 call	 ?create_ui_object@@YAPAUUI_OBJECT@@HZZ ; create_ui_object
  0171e	83 c4 68	 add	 esp, 104		; 00000068H
  01721	8b 55 fc	 mov	 edx, DWORD PTR _i$[ebp]
  01724	89 44 95 ac	 mov	 DWORD PTR _title_change_array$[ebp+edx*4], eax

; 1510 : 	(
; 1511 : 		UI_TYPE_AREA,
; 1512 : 		UI_ATTR_PARENT (mouselook_area),
; 1513 : 		UI_ATTR_VIRTUAL_POSITION (x1, y1),
; 1514 : 		UI_ATTR_VIRTUAL_SIZE (OPTION_BOX_WIDTH, OPTION_BOX_HEIGHT),
; 1515 : 		UI_ATTR_TEXTURE_GRAPHIC (options_box_large),
; 1516 : 		UI_ATTR_COLOUR_START (255, 255, 255, 0),
; 1517 : 		UI_ATTR_COLOUR_END (255, 255, 255, 255),
; 1518 : 		UI_ATTR_END
; 1519 : 	);
; 1520 : 
; 1521 :    check_array[i] = create_ui_object

  01728	6a 11		 push	 17			; 00000011H
  0172a	68 00 00 00 00	 push	 OFFSET ??_C@_09GPOHNNCP@Mouselook@
  0172f	e8 00 00 00 00	 call	 ?get_trans@@YGPBDPBD@Z	; get_trans
  01734	50		 push	 eax
  01735	6a 4a		 push	 74			; 0000004aH
  01737	6a 02		 push	 2
  01739	6a 4b		 push	 75			; 0000004bH
  0173b	83 ec 08	 sub	 esp, 8
  0173e	f2 0f 10 05 00
	00 00 00	 movsd	 xmm0, QWORD PTR __real@3fc24dd300000000
  01746	f2 0f 11 04 24	 movsd	 QWORD PTR [esp], xmm0
  0174b	83 ec 08	 sub	 esp, 8
  0174e	f2 0f 10 05 00
	00 00 00	 movsd	 xmm0, QWORD PTR __real@3fee666660000000
  01756	f2 0f 11 04 24	 movsd	 QWORD PTR [esp], xmm0
  0175b	6a 58		 push	 88			; 00000058H
  0175d	68 ff 00 00 00	 push	 255			; 000000ffH
  01762	0f b6 05 00 00
	00 00		 movzx	 eax, BYTE PTR ?ui_option_title_text_colour@@3UREAL_COLOUR@@A
  01769	50		 push	 eax
  0176a	0f b6 0d 01 00
	00 00		 movzx	 ecx, BYTE PTR ?ui_option_title_text_colour@@3UREAL_COLOUR@@A+1
  01771	51		 push	 ecx
  01772	0f b6 15 02 00
	00 00		 movzx	 edx, BYTE PTR ?ui_option_title_text_colour@@3UREAL_COLOUR@@A+2
  01779	52		 push	 edx
  0177a	6a 14		 push	 20			; 00000014H
  0177c	6a 00		 push	 0
  0177e	0f b6 05 00 00
	00 00		 movzx	 eax, BYTE PTR ?ui_option_title_text_colour@@3UREAL_COLOUR@@A
  01785	50		 push	 eax
  01786	0f b6 0d 01 00
	00 00		 movzx	 ecx, BYTE PTR ?ui_option_title_text_colour@@3UREAL_COLOUR@@A+1
  0178d	51		 push	 ecx
  0178e	0f b6 15 02 00
	00 00		 movzx	 edx, BYTE PTR ?ui_option_title_text_colour@@3UREAL_COLOUR@@A+2
  01795	52		 push	 edx
  01796	6a 15		 push	 21			; 00000015H
  01798	6a 01		 push	 1
  0179a	6a 12		 push	 18			; 00000012H
  0179c	8b 45 fc	 mov	 eax, DWORD PTR _i$[ebp]
  0179f	8b 4c 85 ac	 mov	 ecx, DWORD PTR _title_change_array$[ebp+eax*4]
  017a3	51		 push	 ecx
  017a4	6a 32		 push	 50			; 00000032H
  017a6	6a 05		 push	 5
  017a8	e8 00 00 00 00	 call	 ?create_ui_object@@YAPAUUI_OBJECT@@HZZ ; create_ui_object
  017ad	83 c4 64	 add	 esp, 100		; 00000064H
  017b0	8b 55 fc	 mov	 edx, DWORD PTR _i$[ebp]
  017b3	89 84 95 70 ff
	ff ff		 mov	 DWORD PTR _check_array$[ebp+edx*4], eax

; 1522 : 	(
; 1523 : 		UI_TYPE_TEXT,
; 1524 : 		UI_ATTR_PARENT (title_change_array [i]),
; 1525 : 		UI_ATTR_FONT_TYPE (/*UI_FONT_THICK_ARIAL_18*/UI_FONT_ARIAL_14),
; 1526 :       UI_ATTR_FONT_COLOUR_START (ui_option_title_text_colour.r, ui_option_title_text_colour.g, ui_option_title_text_colour.b, 0),
; 1527 :       UI_ATTR_FONT_COLOUR_END (ui_option_title_text_colour.r, ui_option_title_text_colour.g, ui_option_title_text_colour.b, 255),
; 1528 : 		UI_ATTR_VIRTUAL_POSITION (OPTION_BOX_TEXT_OFFSET_X, OPTION_BOX_TEXT_OFFSET_Y),
; 1529 : 		UI_ATTR_TEXT_JUSTIFY (TEXT_JUSTIFY_RIGHT_CENTRE),
; 1530 : 		UI_ATTR_TEXT (get_trans ("Mouselook")),
; 1531 : 		UI_ATTR_END
; 1532 : 	);
; 1533 : 
; 1534 : 	preprocess_translation_object_size (title_change_array [i], check_array [i], NULL, 0, RESIZE_OPTION_BOX_TITLE);

  017ba	6a 00		 push	 0
  017bc	6a 00		 push	 0
  017be	6a 00		 push	 0
  017c0	8b 45 fc	 mov	 eax, DWORD PTR _i$[ebp]
  017c3	8b 8c 85 70 ff
	ff ff		 mov	 ecx, DWORD PTR _check_array$[ebp+eax*4]
  017ca	51		 push	 ecx
  017cb	8b 55 fc	 mov	 edx, DWORD PTR _i$[ebp]
  017ce	8b 44 95 ac	 mov	 eax, DWORD PTR _title_change_array$[ebp+edx*4]
  017d2	50		 push	 eax
  017d3	e8 00 00 00 00	 call	 ?preprocess_translation_object_size@@YGXPAUUI_OBJECT@@0PAPBDHW4RESIZE_UI_OBJECT_TYPES@@@Z ; preprocess_translation_object_size

; 1535 : 	// Retro 10Jul2004 end
; 1536 : 
; 1537 : 	// Retro 10Jul2004
; 1538 : 	//trackir area
; 1539 : 
; 1540 : 	i++;

  017d8	8b 45 fc	 mov	 eax, DWORD PTR _i$[ebp]
  017db	83 c0 01	 add	 eax, 1
  017de	89 45 fc	 mov	 DWORD PTR _i$[ebp], eax

; 1541 : //	x1 = 0.0; 
; 1542 : //	x1 = 0.5; 
; 1543 : 	x1 = SECOND_OPTION_START;

  017e1	f3 0f 10 05 00
	00 00 00	 movss	 xmm0, DWORD PTR __real@3f0ccccd
  017e9	f3 0f 11 45 f8	 movss	 DWORD PTR _x1$[ebp], xmm0

; 1544 : //	y1 = OPTION_TITLE_OFFSET_Y + /*OPTION_AREA_OFFSET_Y*/OPTION_SMALL_AREA_OFFSET_Y * i;
; 1545 : 	y1 = OPTION_TITLE_OFFSET_Y + /*OPTION_AREA_OFFSET_Y*/OPTION_SMALL_AREA_OFFSET_Y * (i-2);

  017ee	8b 45 fc	 mov	 eax, DWORD PTR _i$[ebp]
  017f1	83 e8 02	 sub	 eax, 2
  017f4	f3 0f 2a c0	 cvtsi2ss xmm0, eax
  017f8	f3 0f 59 05 00
	00 00 00	 mulss	 xmm0, DWORD PTR __real@3d343958
  01800	f3 0f 58 05 00
	00 00 00	 addss	 xmm0, DWORD PTR __real@3e851eb8
  01808	f3 0f 11 45 f4	 movss	 DWORD PTR _y1$[ebp], xmm0

; 1546 : 
; 1547 :    trackir_area = create_ui_object

  0180d	6a 11		 push	 17			; 00000011H
  0180f	6a 01		 push	 1
  01811	6a 07		 push	 7
  01813	83 ec 08	 sub	 esp, 8
  01816	f2 0f 10 05 00
	00 00 00	 movsd	 xmm0, QWORD PTR __real@3fa47ae140000000
  0181e	f2 0f 11 04 24	 movsd	 QWORD PTR [esp], xmm0
  01823	83 ec 08	 sub	 esp, 8
  01826	f2 0f 10 05 00
	00 00 00	 movsd	 xmm0, QWORD PTR __real@3ff0000000000000
  0182e	f2 0f 11 04 24	 movsd	 QWORD PTR [esp], xmm0
  01833	6a 59		 push	 89			; 00000059H
  01835	f3 0f 5a 45 f4	 cvtss2sd xmm0, DWORD PTR _y1$[ebp]
  0183a	83 ec 08	 sub	 esp, 8
  0183d	f2 0f 11 04 24	 movsd	 QWORD PTR [esp], xmm0
  01842	f3 0f 5a 45 f8	 cvtss2sd xmm0, DWORD PTR _x1$[ebp]
  01847	83 ec 08	 sub	 esp, 8
  0184a	f2 0f 11 04 24	 movsd	 QWORD PTR [esp], xmm0
  0184f	6a 58		 push	 88			; 00000058H
  01851	8b 45 e8	 mov	 eax, DWORD PTR _page$[ebp]
  01854	50		 push	 eax
  01855	6a 32		 push	 50			; 00000032H
  01857	6a 01		 push	 1
  01859	e8 00 00 00 00	 call	 ?create_ui_object@@YAPAUUI_OBJECT@@HZZ ; create_ui_object
  0185e	83 c4 40	 add	 esp, 64			; 00000040H
  01861	a3 00 00 00 00	 mov	 DWORD PTR ?trackir_area@@3PAUUI_OBJECT@@A, eax ; trackir_area

; 1548 : 								(
; 1549 : 									UI_TYPE_AREA,
; 1550 : 									UI_ATTR_PARENT ( page ),
; 1551 : 									UI_ATTR_VIRTUAL_POSITION (x1, y1),
; 1552 : 									UI_ATTR_VIRTUAL_SIZE (OPTION_AREA_WIDTH, /*OPTION_AREA_HEIGHT*/OPTION_SMALL_AREA_HEIGHT),
; 1553 : 									UI_ATTR_CLEAR (TRUE),
; 1554 : 									UI_ATTR_END
; 1555 : 								);
; 1556 : 
; 1557 : 	x1 = CONTROLLER_OPTION_TITLE_OFFSET_X;	// Retro 10Jul2004

  01866	f3 0f 10 05 00
	00 00 00	 movss	 xmm0, DWORD PTR __real@3c23d70a
  0186e	f3 0f 11 45 f8	 movss	 DWORD PTR _x1$[ebp], xmm0

; 1558 : 	y1 = 0.0; 

  01873	0f 57 c0	 xorps	 xmm0, xmm0
  01876	f3 0f 11 45 f4	 movss	 DWORD PTR _y1$[ebp], xmm0

; 1559 : 
; 1560 : 	title_change_array[i] = create_ui_object

  0187b	6a 11		 push	 17			; 00000011H
  0187d	a1 00 00 00 00	 mov	 eax, DWORD PTR ?options_box_large@@3PAUTEXTURE_GRAPHIC@@A ; options_box_large
  01882	50		 push	 eax
  01883	6a 4c		 push	 76			; 0000004cH
  01885	68 ff 00 00 00	 push	 255			; 000000ffH
  0188a	68 ff 00 00 00	 push	 255			; 000000ffH
  0188f	68 ff 00 00 00	 push	 255			; 000000ffH
  01894	68 ff 00 00 00	 push	 255			; 000000ffH
  01899	6a 0a		 push	 10			; 0000000aH
  0189b	6a 00		 push	 0
  0189d	68 ff 00 00 00	 push	 255			; 000000ffH
  018a2	68 ff 00 00 00	 push	 255			; 000000ffH
  018a7	68 ff 00 00 00	 push	 255			; 000000ffH
  018ac	6a 0b		 push	 11			; 0000000bH
  018ae	83 ec 08	 sub	 esp, 8
  018b1	f2 0f 10 05 00
	00 00 00	 movsd	 xmm0, QWORD PTR __real@3ff0000000000000
  018b9	f2 0f 11 04 24	 movsd	 QWORD PTR [esp], xmm0
  018be	83 ec 08	 sub	 esp, 8
  018c1	f2 0f 10 05 00
	00 00 00	 movsd	 xmm0, QWORD PTR __real@3fd3126ea0000000
  018c9	f2 0f 11 04 24	 movsd	 QWORD PTR [esp], xmm0
  018ce	6a 59		 push	 89			; 00000059H
  018d0	f3 0f 5a 45 f4	 cvtss2sd xmm0, DWORD PTR _y1$[ebp]
  018d5	83 ec 08	 sub	 esp, 8
  018d8	f2 0f 11 04 24	 movsd	 QWORD PTR [esp], xmm0
  018dd	f3 0f 5a 45 f8	 cvtss2sd xmm0, DWORD PTR _x1$[ebp]
  018e2	83 ec 08	 sub	 esp, 8
  018e5	f2 0f 11 04 24	 movsd	 QWORD PTR [esp], xmm0
  018ea	6a 58		 push	 88			; 00000058H
  018ec	8b 0d 00 00 00
	00		 mov	 ecx, DWORD PTR ?trackir_area@@3PAUUI_OBJECT@@A ; trackir_area
  018f2	51		 push	 ecx
  018f3	6a 32		 push	 50			; 00000032H
  018f5	6a 01		 push	 1
  018f7	e8 00 00 00 00	 call	 ?create_ui_object@@YAPAUUI_OBJECT@@HZZ ; create_ui_object
  018fc	83 c4 68	 add	 esp, 104		; 00000068H
  018ff	8b 55 fc	 mov	 edx, DWORD PTR _i$[ebp]
  01902	89 44 95 ac	 mov	 DWORD PTR _title_change_array$[ebp+edx*4], eax

; 1561 : 	(
; 1562 : 		UI_TYPE_AREA,
; 1563 : 		UI_ATTR_PARENT (trackir_area),
; 1564 : 		UI_ATTR_VIRTUAL_POSITION (x1, y1),
; 1565 : 		UI_ATTR_VIRTUAL_SIZE (OPTION_BOX_WIDTH, OPTION_BOX_HEIGHT),
; 1566 : 		UI_ATTR_COLOUR_START ( 255, 255, 255, 0 ),
; 1567 : 		UI_ATTR_COLOUR_END ( 255, 255, 255, 255 ),
; 1568 : 		UI_ATTR_TEXTURE_GRAPHIC (options_box_large),
; 1569 : 		UI_ATTR_END
; 1570 : 	);
; 1571 : 
; 1572 :    check_array[i] = create_ui_object

  01906	6a 11		 push	 17			; 00000011H
  01908	68 00 00 00 00	 push	 OFFSET ??_C@_07DGJNDEFB@TrackIR@
  0190d	e8 00 00 00 00	 call	 ?get_trans@@YGPBDPBD@Z	; get_trans
  01912	50		 push	 eax
  01913	6a 4a		 push	 74			; 0000004aH
  01915	6a 02		 push	 2
  01917	6a 4b		 push	 75			; 0000004bH
  01919	68 ff 00 00 00	 push	 255			; 000000ffH
  0191e	0f b6 05 00 00
	00 00		 movzx	 eax, BYTE PTR ?ui_option_title_text_colour@@3UREAL_COLOUR@@A
  01925	50		 push	 eax
  01926	0f b6 0d 01 00
	00 00		 movzx	 ecx, BYTE PTR ?ui_option_title_text_colour@@3UREAL_COLOUR@@A+1
  0192d	51		 push	 ecx
  0192e	0f b6 15 02 00
	00 00		 movzx	 edx, BYTE PTR ?ui_option_title_text_colour@@3UREAL_COLOUR@@A+2
  01935	52		 push	 edx
  01936	6a 14		 push	 20			; 00000014H
  01938	6a 00		 push	 0
  0193a	0f b6 05 00 00
	00 00		 movzx	 eax, BYTE PTR ?ui_option_title_text_colour@@3UREAL_COLOUR@@A
  01941	50		 push	 eax
  01942	0f b6 0d 01 00
	00 00		 movzx	 ecx, BYTE PTR ?ui_option_title_text_colour@@3UREAL_COLOUR@@A+1
  01949	51		 push	 ecx
  0194a	0f b6 15 02 00
	00 00		 movzx	 edx, BYTE PTR ?ui_option_title_text_colour@@3UREAL_COLOUR@@A+2
  01951	52		 push	 edx
  01952	6a 15		 push	 21			; 00000015H
  01954	6a 01		 push	 1
  01956	6a 12		 push	 18			; 00000012H
  01958	83 ec 08	 sub	 esp, 8
  0195b	f2 0f 10 05 00
	00 00 00	 movsd	 xmm0, QWORD PTR __real@3fc24dd300000000
  01963	f2 0f 11 04 24	 movsd	 QWORD PTR [esp], xmm0
  01968	83 ec 08	 sub	 esp, 8
  0196b	f2 0f 10 05 00
	00 00 00	 movsd	 xmm0, QWORD PTR __real@3fee666660000000
  01973	f2 0f 11 04 24	 movsd	 QWORD PTR [esp], xmm0
  01978	6a 58		 push	 88			; 00000058H
  0197a	8b 45 fc	 mov	 eax, DWORD PTR _i$[ebp]
  0197d	8b 4c 85 ac	 mov	 ecx, DWORD PTR _title_change_array$[ebp+eax*4]
  01981	51		 push	 ecx
  01982	6a 32		 push	 50			; 00000032H
  01984	6a 05		 push	 5
  01986	e8 00 00 00 00	 call	 ?create_ui_object@@YAPAUUI_OBJECT@@HZZ ; create_ui_object
  0198b	83 c4 64	 add	 esp, 100		; 00000064H
  0198e	8b 55 fc	 mov	 edx, DWORD PTR _i$[ebp]
  01991	89 84 95 70 ff
	ff ff		 mov	 DWORD PTR _check_array$[ebp+edx*4], eax

; 1573 : 	(
; 1574 : 		UI_TYPE_TEXT,
; 1575 : 		UI_ATTR_PARENT (title_change_array[i]),
; 1576 : 		UI_ATTR_VIRTUAL_POSITION (OPTION_BOX_TEXT_OFFSET_X, OPTION_BOX_TEXT_OFFSET_Y),
; 1577 : 		UI_ATTR_FONT_TYPE (/*UI_FONT_THICK_ARIAL_18*/UI_FONT_ARIAL_14),
; 1578 :       UI_ATTR_FONT_COLOUR_START (ui_option_title_text_colour.r, ui_option_title_text_colour.g, ui_option_title_text_colour.b, 0),
; 1579 :       UI_ATTR_FONT_COLOUR_END (ui_option_title_text_colour.r, ui_option_title_text_colour.g, ui_option_title_text_colour.b, 255),
; 1580 : 		UI_ATTR_TEXT_JUSTIFY (TEXT_JUSTIFY_RIGHT_CENTRE),
; 1581 : 		UI_ATTR_TEXT (get_trans ("TrackIR")),
; 1582 : 		UI_ATTR_END
; 1583 : 	);
; 1584 : 
; 1585 : 	preprocess_translation_object_size (title_change_array [i], check_array [i], NULL, 0, RESIZE_OPTION_BOX_TITLE);

  01998	6a 00		 push	 0
  0199a	6a 00		 push	 0
  0199c	6a 00		 push	 0
  0199e	8b 45 fc	 mov	 eax, DWORD PTR _i$[ebp]
  019a1	8b 8c 85 70 ff
	ff ff		 mov	 ecx, DWORD PTR _check_array$[ebp+eax*4]
  019a8	51		 push	 ecx
  019a9	8b 55 fc	 mov	 edx, DWORD PTR _i$[ebp]
  019ac	8b 44 95 ac	 mov	 eax, DWORD PTR _title_change_array$[ebp+edx*4]
  019b0	50		 push	 eax
  019b1	e8 00 00 00 00	 call	 ?preprocess_translation_object_size@@YGXPAUUI_OBJECT@@0PAPBDHW4RESIZE_UI_OBJECT_TYPES@@@Z ; preprocess_translation_object_size

; 1586 : 	// Retro 10Jul2004 end
; 1587 : 
; 1588 : 	// Retro 17Jul2004 - joylook sensitivity area
; 1589 : 
; 1590 : 	joylook_sensitivity_area = create_ui_object

  019b6	6a 11		 push	 17			; 00000011H
  019b8	a1 00 00 00 00	 mov	 eax, DWORD PTR ?options_box_large@@3PAUTEXTURE_GRAPHIC@@A ; options_box_large
  019bd	50		 push	 eax
  019be	6a 4c		 push	 76			; 0000004cH
  019c0	68 ff 00 00 00	 push	 255			; 000000ffH
  019c5	68 ff 00 00 00	 push	 255			; 000000ffH
  019ca	68 ff 00 00 00	 push	 255			; 000000ffH
  019cf	68 ff 00 00 00	 push	 255			; 000000ffH
  019d4	6a 0a		 push	 10			; 0000000aH
  019d6	6a 00		 push	 0
  019d8	68 ff 00 00 00	 push	 255			; 000000ffH
  019dd	68 ff 00 00 00	 push	 255			; 000000ffH
  019e2	68 ff 00 00 00	 push	 255			; 000000ffH
  019e7	6a 0b		 push	 11			; 0000000bH
  019e9	83 ec 08	 sub	 esp, 8
  019ec	f2 0f 10 05 00
	00 00 00	 movsd	 xmm0, QWORD PTR __real@3ff0000000000000
  019f4	f2 0f 11 04 24	 movsd	 QWORD PTR [esp], xmm0
  019f9	83 ec 08	 sub	 esp, 8
  019fc	f2 0f 10 05 00
	00 00 00	 movsd	 xmm0, QWORD PTR __real@3fbba5e360000000
  01a04	f2 0f 11 04 24	 movsd	 QWORD PTR [esp], xmm0
  01a09	6a 59		 push	 89			; 00000059H
  01a0b	83 ec 08	 sub	 esp, 8
  01a0e	0f 57 c0	 xorps	 xmm0, xmm0
  01a11	f2 0f 11 04 24	 movsd	 QWORD PTR [esp], xmm0
  01a16	83 ec 08	 sub	 esp, 8
  01a19	f2 0f 10 05 00
	00 00 00	 movsd	 xmm0, QWORD PTR __real@3fe999999999999a
  01a21	f2 0f 11 04 24	 movsd	 QWORD PTR [esp], xmm0
  01a26	6a 58		 push	 88			; 00000058H
  01a28	8b 0d 00 00 00
	00		 mov	 ecx, DWORD PTR ?joylook_x_area@@3PAUUI_OBJECT@@A ; joylook_x_area
  01a2e	51		 push	 ecx
  01a2f	6a 32		 push	 50			; 00000032H
  01a31	6a 01		 push	 1
  01a33	e8 00 00 00 00	 call	 ?create_ui_object@@YAPAUUI_OBJECT@@HZZ ; create_ui_object
  01a38	83 c4 68	 add	 esp, 104		; 00000068H
  01a3b	a3 00 00 00 00	 mov	 DWORD PTR ?joylook_sensitivity_area@@3PAUUI_OBJECT@@A, eax ; joylook_sensitivity_area

; 1591 : 	(
; 1592 : 		UI_TYPE_AREA,
; 1593 : 		UI_ATTR_PARENT (joylook_x_area),
; 1594 : 		UI_ATTR_VIRTUAL_POSITION (0.8, 0),	// FIXME - no absolute coding !
; 1595 : 		UI_ATTR_VIRTUAL_SIZE (OPTION_BOX_SMALL_WIDTH, OPTION_BOX_HEIGHT),
; 1596 : 		UI_ATTR_COLOUR_START ( 255, 255, 255, 0 ),
; 1597 : 		UI_ATTR_COLOUR_END ( 255, 255, 255, 255 ),
; 1598 : 		UI_ATTR_TEXTURE_GRAPHIC (options_box_large),
; 1599 : 		UI_ATTR_END
; 1600 : 	);
; 1601 : 
; 1602 : 	// Retro 17Jul2004 end
; 1603 : 
; 1604 : 	// Retro 28Aug2004 - autoconfigure area
; 1605 : 
; 1606 : 	autoconfigure_area = create_ui_object

  01a40	6a 11		 push	 17			; 00000011H
  01a42	a1 00 00 00 00	 mov	 eax, DWORD PTR ?options_box_large@@3PAUTEXTURE_GRAPHIC@@A ; options_box_large
  01a47	50		 push	 eax
  01a48	6a 4c		 push	 76			; 0000004cH
  01a4a	68 ff 00 00 00	 push	 255			; 000000ffH
  01a4f	68 ff 00 00 00	 push	 255			; 000000ffH
  01a54	68 ff 00 00 00	 push	 255			; 000000ffH
  01a59	68 ff 00 00 00	 push	 255			; 000000ffH
  01a5e	6a 0a		 push	 10			; 0000000aH
  01a60	6a 00		 push	 0
  01a62	68 ff 00 00 00	 push	 255			; 000000ffH
  01a67	68 ff 00 00 00	 push	 255			; 000000ffH
  01a6c	68 ff 00 00 00	 push	 255			; 000000ffH
  01a71	6a 0b		 push	 11			; 0000000bH
  01a73	83 ec 08	 sub	 esp, 8
  01a76	f2 0f 10 05 00
	00 00 00	 movsd	 xmm0, QWORD PTR __real@3fa47ae140000000
  01a7e	f2 0f 11 04 24	 movsd	 QWORD PTR [esp], xmm0
  01a83	83 ec 08	 sub	 esp, 8
  01a86	f2 0f 10 05 00
	00 00 00	 movsd	 xmm0, QWORD PTR __real@3fd3126ea0000000
  01a8e	f2 0f 11 04 24	 movsd	 QWORD PTR [esp], xmm0
  01a93	6a 59		 push	 89			; 00000059H
  01a95	83 ec 08	 sub	 esp, 8
  01a98	f2 0f 10 05 00
	00 00 00	 movsd	 xmm0, QWORD PTR __real@3fcba5e340000000
  01aa0	f2 0f 11 04 24	 movsd	 QWORD PTR [esp], xmm0
  01aa5	83 ec 08	 sub	 esp, 8
  01aa8	f2 0f 10 05 00
	00 00 00	 movsd	 xmm0, QWORD PTR __real@3f847ae140000000
  01ab0	f2 0f 11 04 24	 movsd	 QWORD PTR [esp], xmm0
  01ab5	6a 58		 push	 88			; 00000058H
  01ab7	8b 4d e8	 mov	 ecx, DWORD PTR _page$[ebp]
  01aba	51		 push	 ecx
  01abb	6a 32		 push	 50			; 00000032H
  01abd	6a 01		 push	 1
  01abf	e8 00 00 00 00	 call	 ?create_ui_object@@YAPAUUI_OBJECT@@HZZ ; create_ui_object
  01ac4	83 c4 68	 add	 esp, 104		; 00000068H
  01ac7	a3 00 00 00 00	 mov	 DWORD PTR ?autoconfigure_area@@3PAUUI_OBJECT@@A, eax ; autoconfigure_area

; 1607 : 	(
; 1608 : 		UI_TYPE_AREA,
; 1609 : 		UI_ATTR_PARENT (page),
; 1610 : 		UI_ATTR_VIRTUAL_POSITION (CONTROLLER_OPTION_TITLE_OFFSET_X, OPTION_TITLE_OFFSET_Y-OPTION_SMALL_AREA_OFFSET_Y),
; 1611 : 		UI_ATTR_VIRTUAL_SIZE (OPTION_BOX_LARGE_WIDTH, OPTION_SMALL_AREA_HEIGHT),
; 1612 : 		UI_ATTR_COLOUR_START ( 255, 255, 255, 0 ),
; 1613 : 		UI_ATTR_COLOUR_END ( 255, 255, 255, 255 ),
; 1614 : 		UI_ATTR_TEXTURE_GRAPHIC (options_box_large),
; 1615 : 		UI_ATTR_END
; 1616 : 	);
; 1617 : 
; 1618 : 	// Retro 28Aug2004 end
; 1619 : 
; 1620 : 	// Retro 17Jul2004 - mouselook sensitivity area
; 1621 : 	
; 1622 : 	mouselook_sensitivity_area = create_ui_object

  01acc	6a 11		 push	 17			; 00000011H
  01ace	a1 00 00 00 00	 mov	 eax, DWORD PTR ?options_box_large@@3PAUTEXTURE_GRAPHIC@@A ; options_box_large
  01ad3	50		 push	 eax
  01ad4	6a 4c		 push	 76			; 0000004cH
  01ad6	68 ff 00 00 00	 push	 255			; 000000ffH
  01adb	68 ff 00 00 00	 push	 255			; 000000ffH
  01ae0	68 ff 00 00 00	 push	 255			; 000000ffH
  01ae5	68 ff 00 00 00	 push	 255			; 000000ffH
  01aea	6a 0a		 push	 10			; 0000000aH
  01aec	6a 00		 push	 0
  01aee	68 ff 00 00 00	 push	 255			; 000000ffH
  01af3	68 ff 00 00 00	 push	 255			; 000000ffH
  01af8	68 ff 00 00 00	 push	 255			; 000000ffH
  01afd	6a 0b		 push	 11			; 0000000bH
  01aff	83 ec 08	 sub	 esp, 8
  01b02	f2 0f 10 05 00
	00 00 00	 movsd	 xmm0, QWORD PTR __real@3ff0000000000000
  01b0a	f2 0f 11 04 24	 movsd	 QWORD PTR [esp], xmm0
  01b0f	83 ec 08	 sub	 esp, 8
  01b12	f2 0f 10 05 00
	00 00 00	 movsd	 xmm0, QWORD PTR __real@3fbba5e360000000
  01b1a	f2 0f 11 04 24	 movsd	 QWORD PTR [esp], xmm0
  01b1f	6a 59		 push	 89			; 00000059H
  01b21	83 ec 08	 sub	 esp, 8
  01b24	0f 57 c0	 xorps	 xmm0, xmm0
  01b27	f2 0f 11 04 24	 movsd	 QWORD PTR [esp], xmm0
  01b2c	83 ec 08	 sub	 esp, 8
  01b2f	f2 0f 10 05 00
	00 00 00	 movsd	 xmm0, QWORD PTR __real@3fdae147ae147ae1
  01b37	f2 0f 11 04 24	 movsd	 QWORD PTR [esp], xmm0
  01b3c	6a 58		 push	 88			; 00000058H
  01b3e	8b 0d 00 00 00
	00		 mov	 ecx, DWORD PTR ?mouselook_area@@3PAUUI_OBJECT@@A ; mouselook_area
  01b44	51		 push	 ecx
  01b45	6a 32		 push	 50			; 00000032H
  01b47	6a 01		 push	 1
  01b49	e8 00 00 00 00	 call	 ?create_ui_object@@YAPAUUI_OBJECT@@HZZ ; create_ui_object
  01b4e	83 c4 68	 add	 esp, 104		; 00000068H
  01b51	a3 00 00 00 00	 mov	 DWORD PTR ?mouselook_sensitivity_area@@3PAUUI_OBJECT@@A, eax ; mouselook_sensitivity_area

; 1623 : 	(
; 1624 : 		UI_TYPE_AREA,
; 1625 : 		UI_ATTR_PARENT (mouselook_area),
; 1626 : 		UI_ATTR_VIRTUAL_POSITION (0.42, 0),	// FIXME - no absolute coding!
; 1627 : 		UI_ATTR_VIRTUAL_SIZE (OPTION_BOX_SMALL_WIDTH, OPTION_BOX_HEIGHT),
; 1628 : 		UI_ATTR_COLOUR_START ( 255, 255, 255, 0 ),
; 1629 : 		UI_ATTR_COLOUR_END ( 255, 255, 255, 255 ),
; 1630 : 		UI_ATTR_TEXTURE_GRAPHIC (options_box_large),
; 1631 : 		UI_ATTR_END
; 1632 : 	);
; 1633 : 
; 1634 : 	// Retro 17Jul2004 end
; 1635 : 
; 1636 : 	//keyboard_assist area
; 1637 : 
; 1638 : 	i++;

  01b56	8b 45 fc	 mov	 eax, DWORD PTR _i$[ebp]
  01b59	83 c0 01	 add	 eax, 1
  01b5c	89 45 fc	 mov	 DWORD PTR _i$[ebp], eax

; 1639 : 	x1 = 0.0; 

  01b5f	0f 57 c0	 xorps	 xmm0, xmm0
  01b62	f3 0f 11 45 f8	 movss	 DWORD PTR _x1$[ebp], xmm0

; 1640 : //	y1 = OPTION_TITLE_OFFSET_Y + /*OPTION_AREA_OFFSET_Y*/OPTION_SMALL_AREA_OFFSET_Y * i;
; 1641 : 	y1 = OPTION_TITLE_OFFSET_Y + /*OPTION_AREA_OFFSET_Y*/OPTION_SMALL_AREA_OFFSET_Y * (i-2);

  01b67	8b 45 fc	 mov	 eax, DWORD PTR _i$[ebp]
  01b6a	83 e8 02	 sub	 eax, 2
  01b6d	f3 0f 2a c0	 cvtsi2ss xmm0, eax
  01b71	f3 0f 59 05 00
	00 00 00	 mulss	 xmm0, DWORD PTR __real@3d343958
  01b79	f3 0f 58 05 00
	00 00 00	 addss	 xmm0, DWORD PTR __real@3e851eb8
  01b81	f3 0f 11 45 f4	 movss	 DWORD PTR _y1$[ebp], xmm0

; 1642 : 
; 1643 :    keyboard_assist_area = create_ui_object

  01b86	6a 11		 push	 17			; 00000011H
  01b88	6a 01		 push	 1
  01b8a	6a 07		 push	 7
  01b8c	83 ec 08	 sub	 esp, 8
  01b8f	f2 0f 10 05 00
	00 00 00	 movsd	 xmm0, QWORD PTR __real@3fa47ae140000000
  01b97	f2 0f 11 04 24	 movsd	 QWORD PTR [esp], xmm0
  01b9c	83 ec 08	 sub	 esp, 8
  01b9f	f2 0f 10 05 00
	00 00 00	 movsd	 xmm0, QWORD PTR __real@3ff0000000000000
  01ba7	f2 0f 11 04 24	 movsd	 QWORD PTR [esp], xmm0
  01bac	6a 59		 push	 89			; 00000059H
  01bae	f3 0f 5a 45 f4	 cvtss2sd xmm0, DWORD PTR _y1$[ebp]
  01bb3	83 ec 08	 sub	 esp, 8
  01bb6	f2 0f 11 04 24	 movsd	 QWORD PTR [esp], xmm0
  01bbb	f3 0f 5a 45 f8	 cvtss2sd xmm0, DWORD PTR _x1$[ebp]
  01bc0	83 ec 08	 sub	 esp, 8
  01bc3	f2 0f 11 04 24	 movsd	 QWORD PTR [esp], xmm0
  01bc8	6a 58		 push	 88			; 00000058H
  01bca	8b 45 e8	 mov	 eax, DWORD PTR _page$[ebp]
  01bcd	50		 push	 eax
  01bce	6a 32		 push	 50			; 00000032H
  01bd0	6a 01		 push	 1
  01bd2	e8 00 00 00 00	 call	 ?create_ui_object@@YAPAUUI_OBJECT@@HZZ ; create_ui_object
  01bd7	83 c4 40	 add	 esp, 64			; 00000040H
  01bda	a3 00 00 00 00	 mov	 DWORD PTR ?keyboard_assist_area@@3PAUUI_OBJECT@@A, eax ; keyboard_assist_area

; 1644 : 								(
; 1645 : 									UI_TYPE_AREA,
; 1646 : 									UI_ATTR_PARENT ( page ),
; 1647 : 									UI_ATTR_VIRTUAL_POSITION (x1, y1),
; 1648 : 									UI_ATTR_VIRTUAL_SIZE (OPTION_AREA_WIDTH, /*OPTION_AREA_HEIGHT*/OPTION_SMALL_AREA_HEIGHT),
; 1649 : 									UI_ATTR_CLEAR (TRUE),
; 1650 : 									UI_ATTR_END
; 1651 : 								);
; 1652 : 
; 1653 : 	x1 = CONTROLLER_OPTION_TITLE_OFFSET_X;	// Retro 10Jul2004

  01bdf	f3 0f 10 05 00
	00 00 00	 movss	 xmm0, DWORD PTR __real@3c23d70a
  01be7	f3 0f 11 45 f8	 movss	 DWORD PTR _x1$[ebp], xmm0

; 1654 : 	y1 = 0.0; 

  01bec	0f 57 c0	 xorps	 xmm0, xmm0
  01bef	f3 0f 11 45 f4	 movss	 DWORD PTR _y1$[ebp], xmm0

; 1655 : 
; 1656 : 	title_change_array[i] = create_ui_object

  01bf4	6a 11		 push	 17			; 00000011H
  01bf6	a1 00 00 00 00	 mov	 eax, DWORD PTR ?options_box_large@@3PAUTEXTURE_GRAPHIC@@A ; options_box_large
  01bfb	50		 push	 eax
  01bfc	6a 4c		 push	 76			; 0000004cH
  01bfe	68 ff 00 00 00	 push	 255			; 000000ffH
  01c03	68 ff 00 00 00	 push	 255			; 000000ffH
  01c08	68 ff 00 00 00	 push	 255			; 000000ffH
  01c0d	68 ff 00 00 00	 push	 255			; 000000ffH
  01c12	6a 0a		 push	 10			; 0000000aH
  01c14	6a 00		 push	 0
  01c16	68 ff 00 00 00	 push	 255			; 000000ffH
  01c1b	68 ff 00 00 00	 push	 255			; 000000ffH
  01c20	68 ff 00 00 00	 push	 255			; 000000ffH
  01c25	6a 0b		 push	 11			; 0000000bH
  01c27	83 ec 08	 sub	 esp, 8
  01c2a	f2 0f 10 05 00
	00 00 00	 movsd	 xmm0, QWORD PTR __real@3ff0000000000000
  01c32	f2 0f 11 04 24	 movsd	 QWORD PTR [esp], xmm0
  01c37	83 ec 08	 sub	 esp, 8
  01c3a	f2 0f 10 05 00
	00 00 00	 movsd	 xmm0, QWORD PTR __real@3fd3126ea0000000
  01c42	f2 0f 11 04 24	 movsd	 QWORD PTR [esp], xmm0
  01c47	6a 59		 push	 89			; 00000059H
  01c49	f3 0f 5a 45 f4	 cvtss2sd xmm0, DWORD PTR _y1$[ebp]
  01c4e	83 ec 08	 sub	 esp, 8
  01c51	f2 0f 11 04 24	 movsd	 QWORD PTR [esp], xmm0
  01c56	f3 0f 5a 45 f8	 cvtss2sd xmm0, DWORD PTR _x1$[ebp]
  01c5b	83 ec 08	 sub	 esp, 8
  01c5e	f2 0f 11 04 24	 movsd	 QWORD PTR [esp], xmm0
  01c63	6a 58		 push	 88			; 00000058H
  01c65	8b 0d 00 00 00
	00		 mov	 ecx, DWORD PTR ?keyboard_assist_area@@3PAUUI_OBJECT@@A ; keyboard_assist_area
  01c6b	51		 push	 ecx
  01c6c	6a 32		 push	 50			; 00000032H
  01c6e	6a 01		 push	 1
  01c70	e8 00 00 00 00	 call	 ?create_ui_object@@YAPAUUI_OBJECT@@HZZ ; create_ui_object
  01c75	83 c4 68	 add	 esp, 104		; 00000068H
  01c78	8b 55 fc	 mov	 edx, DWORD PTR _i$[ebp]
  01c7b	89 44 95 ac	 mov	 DWORD PTR _title_change_array$[ebp+edx*4], eax

; 1657 : 	(
; 1658 : 		UI_TYPE_AREA,
; 1659 : 		UI_ATTR_PARENT (keyboard_assist_area),
; 1660 : 		UI_ATTR_VIRTUAL_POSITION (x1, y1),
; 1661 : 		UI_ATTR_VIRTUAL_SIZE (OPTION_BOX_WIDTH, OPTION_BOX_HEIGHT),
; 1662 : 		UI_ATTR_COLOUR_START ( 255, 255, 255, 0 ),
; 1663 : 		UI_ATTR_COLOUR_END ( 255, 255, 255, 255 ),
; 1664 : 		UI_ATTR_TEXTURE_GRAPHIC (options_box_large),
; 1665 : 		UI_ATTR_END
; 1666 : 	);
; 1667 : 
; 1668 :    check_array[i] = create_ui_object

  01c7f	6a 11		 push	 17			; 00000011H
  01c81	68 00 00 00 00	 push	 OFFSET ??_C@_0BA@HHGFKFIA@Keyboard?5Assist@
  01c86	e8 00 00 00 00	 call	 ?get_trans@@YGPBDPBD@Z	; get_trans
  01c8b	50		 push	 eax
  01c8c	6a 4a		 push	 74			; 0000004aH
  01c8e	6a 02		 push	 2
  01c90	6a 4b		 push	 75			; 0000004bH
  01c92	68 ff 00 00 00	 push	 255			; 000000ffH
  01c97	0f b6 05 00 00
	00 00		 movzx	 eax, BYTE PTR ?ui_option_title_text_colour@@3UREAL_COLOUR@@A
  01c9e	50		 push	 eax
  01c9f	0f b6 0d 01 00
	00 00		 movzx	 ecx, BYTE PTR ?ui_option_title_text_colour@@3UREAL_COLOUR@@A+1
  01ca6	51		 push	 ecx
  01ca7	0f b6 15 02 00
	00 00		 movzx	 edx, BYTE PTR ?ui_option_title_text_colour@@3UREAL_COLOUR@@A+2
  01cae	52		 push	 edx
  01caf	6a 14		 push	 20			; 00000014H
  01cb1	6a 00		 push	 0
  01cb3	0f b6 05 00 00
	00 00		 movzx	 eax, BYTE PTR ?ui_option_title_text_colour@@3UREAL_COLOUR@@A
  01cba	50		 push	 eax
  01cbb	0f b6 0d 01 00
	00 00		 movzx	 ecx, BYTE PTR ?ui_option_title_text_colour@@3UREAL_COLOUR@@A+1
  01cc2	51		 push	 ecx
  01cc3	0f b6 15 02 00
	00 00		 movzx	 edx, BYTE PTR ?ui_option_title_text_colour@@3UREAL_COLOUR@@A+2
  01cca	52		 push	 edx
  01ccb	6a 15		 push	 21			; 00000015H
  01ccd	6a 01		 push	 1
  01ccf	6a 12		 push	 18			; 00000012H
  01cd1	83 ec 08	 sub	 esp, 8
  01cd4	f2 0f 10 05 00
	00 00 00	 movsd	 xmm0, QWORD PTR __real@3fc24dd300000000
  01cdc	f2 0f 11 04 24	 movsd	 QWORD PTR [esp], xmm0
  01ce1	83 ec 08	 sub	 esp, 8
  01ce4	f2 0f 10 05 00
	00 00 00	 movsd	 xmm0, QWORD PTR __real@3fee666660000000
  01cec	f2 0f 11 04 24	 movsd	 QWORD PTR [esp], xmm0
  01cf1	6a 58		 push	 88			; 00000058H
  01cf3	8b 45 fc	 mov	 eax, DWORD PTR _i$[ebp]
  01cf6	8b 4c 85 ac	 mov	 ecx, DWORD PTR _title_change_array$[ebp+eax*4]
  01cfa	51		 push	 ecx
  01cfb	6a 32		 push	 50			; 00000032H
  01cfd	6a 05		 push	 5
  01cff	e8 00 00 00 00	 call	 ?create_ui_object@@YAPAUUI_OBJECT@@HZZ ; create_ui_object
  01d04	83 c4 64	 add	 esp, 100		; 00000064H
  01d07	8b 55 fc	 mov	 edx, DWORD PTR _i$[ebp]
  01d0a	89 84 95 70 ff
	ff ff		 mov	 DWORD PTR _check_array$[ebp+edx*4], eax

; 1669 : 	(
; 1670 : 		UI_TYPE_TEXT,
; 1671 : 		UI_ATTR_PARENT (title_change_array[i]),
; 1672 : 		UI_ATTR_VIRTUAL_POSITION (OPTION_BOX_TEXT_OFFSET_X, OPTION_BOX_TEXT_OFFSET_Y),
; 1673 : 		UI_ATTR_FONT_TYPE (/*UI_FONT_THICK_ARIAL_18*/UI_FONT_ARIAL_14),
; 1674 :       UI_ATTR_FONT_COLOUR_START (ui_option_title_text_colour.r, ui_option_title_text_colour.g, ui_option_title_text_colour.b, 0),
; 1675 :       UI_ATTR_FONT_COLOUR_END (ui_option_title_text_colour.r, ui_option_title_text_colour.g, ui_option_title_text_colour.b, 255),
; 1676 : 		UI_ATTR_TEXT_JUSTIFY (TEXT_JUSTIFY_RIGHT_CENTRE),
; 1677 : 		UI_ATTR_TEXT (get_trans ("Keyboard Assist")),
; 1678 : 		UI_ATTR_END
; 1679 : 	);
; 1680 : 
; 1681 : 	preprocess_translation_object_size (title_change_array [i], check_array [i], NULL, 0, RESIZE_OPTION_BOX_TITLE);

  01d11	6a 00		 push	 0
  01d13	6a 00		 push	 0
  01d15	6a 00		 push	 0
  01d17	8b 45 fc	 mov	 eax, DWORD PTR _i$[ebp]
  01d1a	8b 8c 85 70 ff
	ff ff		 mov	 ecx, DWORD PTR _check_array$[ebp+eax*4]
  01d21	51		 push	 ecx
  01d22	8b 55 fc	 mov	 edx, DWORD PTR _i$[ebp]
  01d25	8b 44 95 ac	 mov	 eax, DWORD PTR _title_change_array$[ebp+edx*4]
  01d29	50		 push	 eax
  01d2a	e8 00 00 00 00	 call	 ?preprocess_translation_object_size@@YGXPAUUI_OBJECT@@0PAPBDHW4RESIZE_UI_OBJECT_TYPES@@@Z ; preprocess_translation_object_size

; 1682 : 
; 1683 : 	/////////////////////////////////////////////////////////////////
; 1684 : 	// buttons
; 1685 : 
; 1686 : 	i = 0;

  01d2f	c7 45 fc 00 00
	00 00		 mov	 DWORD PTR _i$[ebp], 0

; 1687 : 
; 1688 : 	// cyclic
; 1689 : 
; 1690 : 	change_array[i] = create_ui_object

  01d36	6a 11		 push	 17			; 00000011H
  01d38	a1 00 00 00 00	 mov	 eax, DWORD PTR ?options_box_medium@@3PAUTEXTURE_GRAPHIC@@A ; options_box_medium
  01d3d	50		 push	 eax
  01d3e	6a 4c		 push	 76			; 0000004cH
  01d40	68 ff 00 00 00	 push	 255			; 000000ffH
  01d45	68 ff 00 00 00	 push	 255			; 000000ffH
  01d4a	68 ff 00 00 00	 push	 255			; 000000ffH
  01d4f	68 ff 00 00 00	 push	 255			; 000000ffH
  01d54	6a 0a		 push	 10			; 0000000aH
  01d56	6a 00		 push	 0
  01d58	68 ff 00 00 00	 push	 255			; 000000ffH
  01d5d	68 ff 00 00 00	 push	 255			; 000000ffH
  01d62	68 ff 00 00 00	 push	 255			; 000000ffH
  01d67	6a 0b		 push	 11			; 0000000bH
  01d69	83 ec 08	 sub	 esp, 8
  01d6c	f2 0f 10 05 00
	00 00 00	 movsd	 xmm0, QWORD PTR __real@3ff0000000000000
  01d74	f2 0f 11 04 24	 movsd	 QWORD PTR [esp], xmm0
  01d79	83 ec 08	 sub	 esp, 8
  01d7c	f2 0f 10 05 00
	00 00 00	 movsd	 xmm0, QWORD PTR __real@3fdcccccc0000000
  01d84	f2 0f 11 04 24	 movsd	 QWORD PTR [esp], xmm0
  01d89	6a 59		 push	 89			; 00000059H
  01d8b	83 ec 08	 sub	 esp, 8
  01d8e	0f 57 c0	 xorps	 xmm0, xmm0
  01d91	f2 0f 11 04 24	 movsd	 QWORD PTR [esp], xmm0
  01d96	8b 4d fc	 mov	 ecx, DWORD PTR _i$[ebp]
  01d99	8b 54 8d ac	 mov	 edx, DWORD PTR _title_change_array$[ebp+ecx*4]
  01d9d	52		 push	 edx
  01d9e	8b 45 fc	 mov	 eax, DWORD PTR _i$[ebp]
  01da1	8b 4c 85 ac	 mov	 ecx, DWORD PTR _title_change_array$[ebp+eax*4]
  01da5	8b 11		 mov	 edx, DWORD PTR [ecx]
  01da7	8b 04 95 00 00
	00 00		 mov	 eax, DWORD PTR ?fn_get_ui_object_x_end@@3PAP6GMPAUUI_OBJECT@@@ZA[edx*4]
  01dae	ff d0		 call	 eax
  01db0	d9 9d f4 fe ff
	ff		 fstp	 DWORD PTR tv4525[ebp]
  01db6	f3 0f 10 85 f4
	fe ff ff	 movss	 xmm0, DWORD PTR tv4525[ebp]
  01dbe	8b 4d fc	 mov	 ecx, DWORD PTR _i$[ebp]
  01dc1	8b 54 8d ac	 mov	 edx, DWORD PTR _title_change_array$[ebp+ecx*4]
  01dc5	52		 push	 edx
  01dc6	8b 45 fc	 mov	 eax, DWORD PTR _i$[ebp]
  01dc9	8b 4c 85 ac	 mov	 ecx, DWORD PTR _title_change_array$[ebp+eax*4]
  01dcd	8b 11		 mov	 edx, DWORD PTR [ecx]
  01dcf	8b 04 95 00 00
	00 00		 mov	 eax, DWORD PTR ?fn_get_ui_object_x_size_end@@3PAP6GMPAUUI_OBJECT@@@ZA[edx*4]
  01dd6	f3 0f 11 85 f0
	fe ff ff	 movss	 DWORD PTR tv5199[ebp], xmm0
  01dde	ff d0		 call	 eax
  01de0	d9 9d ec fe ff
	ff		 fstp	 DWORD PTR tv4533[ebp]
  01de6	f3 0f 10 85 f0
	fe ff ff	 movss	 xmm0, DWORD PTR tv5199[ebp]
  01dee	f3 0f 58 85 ec
	fe ff ff	 addss	 xmm0, DWORD PTR tv4533[ebp]
  01df6	f3 0f 58 05 00
	00 00 00	 addss	 xmm0, DWORD PTR __real@3b2a64c3
  01dfe	f3 0f 5a c0	 cvtss2sd xmm0, xmm0
  01e02	83 ec 08	 sub	 esp, 8
  01e05	f2 0f 11 04 24	 movsd	 QWORD PTR [esp], xmm0
  01e0a	6a 58		 push	 88			; 00000058H
  01e0c	8b 0d 00 00 00
	00		 mov	 ecx, DWORD PTR ?cyclic_area@@3PAUUI_OBJECT@@A ; cyclic_area
  01e12	51		 push	 ecx
  01e13	6a 32		 push	 50			; 00000032H
  01e15	6a 01		 push	 1
  01e17	e8 00 00 00 00	 call	 ?create_ui_object@@YAPAUUI_OBJECT@@HZZ ; create_ui_object
  01e1c	83 c4 68	 add	 esp, 104		; 00000068H
  01e1f	8b 55 fc	 mov	 edx, DWORD PTR _i$[ebp]
  01e22	89 84 95 38 ff
	ff ff		 mov	 DWORD PTR _change_array$[ebp+edx*4], eax

; 1691 : 	(
; 1692 : 		UI_TYPE_AREA,
; 1693 : 		UI_ATTR_PARENT (cyclic_area),
; 1694 : 		UI_ATTR_VIRTUAL_POSITION ((get_ui_object_x_end (title_change_array [i]) + get_ui_object_x_size_end (title_change_array [i]) + OPTION_BOX_GAP_WIDTH), 0.0),
; 1695 : 		UI_ATTR_VIRTUAL_SIZE (OPTION_BOX_EXTRA_LARGE_WIDTH, OPTION_BOX_HEIGHT),
; 1696 : 		UI_ATTR_COLOUR_START (255, 255, 255, 0),
; 1697 : 		UI_ATTR_COLOUR_END (255, 255, 255, 255),
; 1698 : 		UI_ATTR_TEXTURE_GRAPHIC (options_box_medium),
; 1699 : 		UI_ATTR_END
; 1700 : 	);
; 1701 : 
; 1702 : 	cyclic_option_button = create_ui_object

  01e29	6a 11		 push	 17			; 00000011H
  01e2b	68 00 00 00 00	 push	 OFFSET ?notify_cyclic_option_button_right@@YGXPAUUI_OBJECT@@PAX@Z ; notify_cyclic_option_button_right
  01e30	6a 39		 push	 57			; 00000039H
  01e32	68 00 00 00 00	 push	 OFFSET ?notify_cyclic_option_button@@YGXPAUUI_OBJECT@@PAX@Z ; notify_cyclic_option_button
  01e37	6a 16		 push	 22			; 00000016H
  01e39	6a 01		 push	 1
  01e3b	6a 2f		 push	 47			; 0000002fH
  01e3d	6a 00		 push	 0
  01e3f	6a 49		 push	 73			; 00000049H
  01e41	6a 01		 push	 1
  01e43	6a 07		 push	 7
  01e45	6a 01		 push	 1
  01e47	6a 1b		 push	 27			; 0000001bH
  01e49	68 ff 00 00 00	 push	 255			; 000000ffH
  01e4e	0f b6 05 00 00
	00 00		 movzx	 eax, BYTE PTR ?ui_option_text_hilite_colour@@3UREAL_COLOUR@@A
  01e55	50		 push	 eax
  01e56	0f b6 0d 01 00
	00 00		 movzx	 ecx, BYTE PTR ?ui_option_text_hilite_colour@@3UREAL_COLOUR@@A+1
  01e5d	51		 push	 ecx
  01e5e	0f b6 15 02 00
	00 00		 movzx	 edx, BYTE PTR ?ui_option_text_hilite_colour@@3UREAL_COLOUR@@A+2
  01e65	52		 push	 edx
  01e66	6a 22		 push	 34			; 00000022H
  01e68	6a 00		 push	 0
  01e6a	0f b6 05 00 00
	00 00		 movzx	 eax, BYTE PTR ?ui_option_text_hilite_colour@@3UREAL_COLOUR@@A
  01e71	50		 push	 eax
  01e72	0f b6 0d 01 00
	00 00		 movzx	 ecx, BYTE PTR ?ui_option_text_hilite_colour@@3UREAL_COLOUR@@A+1
  01e79	51		 push	 ecx
  01e7a	0f b6 15 02 00
	00 00		 movzx	 edx, BYTE PTR ?ui_option_text_hilite_colour@@3UREAL_COLOUR@@A+2
  01e81	52		 push	 edx
  01e82	6a 23		 push	 35			; 00000023H
  01e84	68 ff 00 00 00	 push	 255			; 000000ffH
  01e89	0f b6 05 00 00
	00 00		 movzx	 eax, BYTE PTR ?ui_option_text_default_colour@@3UREAL_COLOUR@@A
  01e90	50		 push	 eax
  01e91	0f b6 0d 01 00
	00 00		 movzx	 ecx, BYTE PTR ?ui_option_text_default_colour@@3UREAL_COLOUR@@A+1
  01e98	51		 push	 ecx
  01e99	0f b6 15 02 00
	00 00		 movzx	 edx, BYTE PTR ?ui_option_text_default_colour@@3UREAL_COLOUR@@A+2
  01ea0	52		 push	 edx
  01ea1	6a 14		 push	 20			; 00000014H
  01ea3	6a 00		 push	 0
  01ea5	0f b6 05 00 00
	00 00		 movzx	 eax, BYTE PTR ?ui_option_text_default_colour@@3UREAL_COLOUR@@A
  01eac	50		 push	 eax
  01ead	0f b6 0d 01 00
	00 00		 movzx	 ecx, BYTE PTR ?ui_option_text_default_colour@@3UREAL_COLOUR@@A+1
  01eb4	51		 push	 ecx
  01eb5	0f b6 15 02 00
	00 00		 movzx	 edx, BYTE PTR ?ui_option_text_default_colour@@3UREAL_COLOUR@@A+2
  01ebc	52		 push	 edx
  01ebd	6a 15		 push	 21			; 00000015H
  01ebf	68 00 00 00 00	 push	 OFFSET ??_C@_00CNPNBAHC@@
  01ec4	6a 4a		 push	 74			; 0000004aH
  01ec6	6a 01		 push	 1
  01ec8	6a 4b		 push	 75			; 0000004bH
  01eca	83 ec 08	 sub	 esp, 8
  01ecd	f2 0f 10 05 00
	00 00 00	 movsd	 xmm0, QWORD PTR __real@3fc24dd300000000
  01ed5	f2 0f 11 04 24	 movsd	 QWORD PTR [esp], xmm0
  01eda	8b 45 fc	 mov	 eax, DWORD PTR _i$[ebp]
  01edd	8b 8c 85 38 ff
	ff ff		 mov	 ecx, DWORD PTR _change_array$[ebp+eax*4]
  01ee4	51		 push	 ecx
  01ee5	8b 55 fc	 mov	 edx, DWORD PTR _i$[ebp]
  01ee8	8b 84 95 38 ff
	ff ff		 mov	 eax, DWORD PTR _change_array$[ebp+edx*4]
  01eef	8b 08		 mov	 ecx, DWORD PTR [eax]
  01ef1	8b 14 8d 00 00
	00 00		 mov	 edx, DWORD PTR ?fn_get_ui_object_x_end@@3PAP6GMPAUUI_OBJECT@@@ZA[ecx*4]
  01ef8	ff d2		 call	 edx
  01efa	d9 9d f4 fe ff
	ff		 fstp	 DWORD PTR tv4552[ebp]
  01f00	f3 0f 10 85 f4
	fe ff ff	 movss	 xmm0, DWORD PTR tv4552[ebp]
  01f08	f3 0f 58 05 00
	00 00 00	 addss	 xmm0, DWORD PTR __real@3c03126f
  01f10	f3 0f 5a c0	 cvtss2sd xmm0, xmm0
  01f14	83 ec 08	 sub	 esp, 8
  01f17	f2 0f 11 04 24	 movsd	 QWORD PTR [esp], xmm0
  01f1c	6a 58		 push	 88			; 00000058H
  01f1e	68 ff 00 00 00	 push	 255			; 000000ffH
  01f23	6a 2f		 push	 47			; 0000002fH
  01f25	6a 7c		 push	 124			; 0000007cH
  01f27	68 fe 00 00 00	 push	 254			; 000000feH
  01f2c	6a 13		 push	 19			; 00000013H
  01f2e	6a 02		 push	 2
  01f30	6a 12		 push	 18			; 00000012H
  01f32	a1 00 00 00 00	 mov	 eax, DWORD PTR ?cyclic_area@@3PAUUI_OBJECT@@A ; cyclic_area
  01f37	50		 push	 eax
  01f38	6a 32		 push	 50			; 00000032H
  01f3a	6a 05		 push	 5
  01f3c	e8 00 00 00 00	 call	 ?create_ui_object@@YAPAUUI_OBJECT@@HZZ ; create_ui_object
  01f41	81 c4 d0 00 00
	00		 add	 esp, 208		; 000000d0H
  01f47	a3 00 00 00 00	 mov	 DWORD PTR ?cyclic_option_button@@3PAUUI_OBJECT@@A, eax ; cyclic_option_button

; 1703 : 	(
; 1704 : 		UI_TYPE_TEXT,
; 1705 : 		UI_ATTR_PARENT (cyclic_area),
; 1706 : 		UI_ATTR_FONT_TYPE (/*UI_FONT_THICK_ITALIC_ARIAL_18*/UI_FONT_ITALIC_ARIAL_14),
; 1707 : 		UI_ATTR_FONT_COLOUR (254, 124, 47, 255),
; 1708 : 		UI_ATTR_VIRTUAL_POSITION (get_ui_object_x_end (change_array [i]) + OPTION_BUTTON_TEXT_OFFSET_X, OPTION_BOX_TEXT_OFFSET_Y),
; 1709 : 		UI_ATTR_TEXT_JUSTIFY (TEXT_JUSTIFY_LEFT_CENTRE),
; 1710 : 		UI_ATTR_TEXT (""),
; 1711 :       UI_ATTR_FONT_COLOUR_START (ui_option_text_default_colour.r, ui_option_text_default_colour.g, ui_option_text_default_colour.b, 0),
; 1712 :       UI_ATTR_FONT_COLOUR_END (ui_option_text_default_colour.r, ui_option_text_default_colour.g, ui_option_text_default_colour.b, 255),
; 1713 :       UI_ATTR_HIGHLIGHTED_FONT_COLOUR_START (ui_option_text_hilite_colour.r, ui_option_text_hilite_colour.g, ui_option_text_hilite_colour.b, 0),
; 1714 :       UI_ATTR_HIGHLIGHTED_FONT_COLOUR_END (ui_option_text_hilite_colour.r, ui_option_text_hilite_colour.g, ui_option_text_hilite_colour.b, 255),
; 1715 : 		UI_ATTR_HIGHLIGHTABLE (TRUE),
; 1716 : 		UI_ATTR_CLEAR (TRUE),
; 1717 : 		UI_ATTR_STATE (UI_OBJECT_STATE_OFF),
; 1718 : 		UI_ATTR_NOTIFY_ON (NOTIFY_TYPE_BUTTON_UP),
; 1719 : 		UI_ATTR_FUNCTION (notify_cyclic_option_button),
; 1720 : 		UI_ATTR_RIGHT_FUNCTION (notify_cyclic_option_button_right),	// Retro 28Aug2004
; 1721 : 		UI_ATTR_END
; 1722 : 	);
; 1723 : 
; 1724 : 	preprocess_translation_object_size (change_array [i], cyclic_option_button, option_joystick_text, 2, RESIZE_OPTION_CYCLE_BUTTON);

  01f4c	6a 01		 push	 1
  01f4e	6a 02		 push	 2
  01f50	68 00 00 00 00	 push	 OFFSET ?option_joystick_text@@3PAPBDA
  01f55	a1 00 00 00 00	 mov	 eax, DWORD PTR ?cyclic_option_button@@3PAUUI_OBJECT@@A ; cyclic_option_button
  01f5a	50		 push	 eax
  01f5b	8b 4d fc	 mov	 ecx, DWORD PTR _i$[ebp]
  01f5e	8b 94 8d 38 ff
	ff ff		 mov	 edx, DWORD PTR _change_array$[ebp+ecx*4]
  01f65	52		 push	 edx
  01f66	e8 00 00 00 00	 call	 ?preprocess_translation_object_size@@YGXPAUUI_OBJECT@@0PAPBDHW4RESIZE_UI_OBJECT_TYPES@@@Z ; preprocess_translation_object_size

; 1725 : 
; 1726 : 	// Retro 10Jul2004
; 1727 : 	// cyclic y axis
; 1728 : 
; 1729 : 	i++;

  01f6b	8b 45 fc	 mov	 eax, DWORD PTR _i$[ebp]
  01f6e	83 c0 01	 add	 eax, 1
  01f71	89 45 fc	 mov	 DWORD PTR _i$[ebp], eax

; 1730 : 
; 1731 : 	change_array[i] = create_ui_object

  01f74	6a 11		 push	 17			; 00000011H
  01f76	a1 00 00 00 00	 mov	 eax, DWORD PTR ?options_box_medium@@3PAUTEXTURE_GRAPHIC@@A ; options_box_medium
  01f7b	50		 push	 eax
  01f7c	6a 4c		 push	 76			; 0000004cH
  01f7e	68 ff 00 00 00	 push	 255			; 000000ffH
  01f83	68 ff 00 00 00	 push	 255			; 000000ffH
  01f88	68 ff 00 00 00	 push	 255			; 000000ffH
  01f8d	68 ff 00 00 00	 push	 255			; 000000ffH
  01f92	6a 0a		 push	 10			; 0000000aH
  01f94	6a 00		 push	 0
  01f96	68 ff 00 00 00	 push	 255			; 000000ffH
  01f9b	68 ff 00 00 00	 push	 255			; 000000ffH
  01fa0	68 ff 00 00 00	 push	 255			; 000000ffH
  01fa5	6a 0b		 push	 11			; 0000000bH
  01fa7	83 ec 08	 sub	 esp, 8
  01faa	f2 0f 10 05 00
	00 00 00	 movsd	 xmm0, QWORD PTR __real@3ff0000000000000
  01fb2	f2 0f 11 04 24	 movsd	 QWORD PTR [esp], xmm0
  01fb7	83 ec 08	 sub	 esp, 8
  01fba	f2 0f 10 05 00
	00 00 00	 movsd	 xmm0, QWORD PTR __real@3fdcccccc0000000
  01fc2	f2 0f 11 04 24	 movsd	 QWORD PTR [esp], xmm0
  01fc7	6a 59		 push	 89			; 00000059H
  01fc9	83 ec 08	 sub	 esp, 8
  01fcc	0f 57 c0	 xorps	 xmm0, xmm0
  01fcf	f2 0f 11 04 24	 movsd	 QWORD PTR [esp], xmm0
  01fd4	8b 4d fc	 mov	 ecx, DWORD PTR _i$[ebp]
  01fd7	8b 54 8d ac	 mov	 edx, DWORD PTR _title_change_array$[ebp+ecx*4]
  01fdb	52		 push	 edx
  01fdc	8b 45 fc	 mov	 eax, DWORD PTR _i$[ebp]
  01fdf	8b 4c 85 ac	 mov	 ecx, DWORD PTR _title_change_array$[ebp+eax*4]
  01fe3	8b 11		 mov	 edx, DWORD PTR [ecx]
  01fe5	8b 04 95 00 00
	00 00		 mov	 eax, DWORD PTR ?fn_get_ui_object_x_end@@3PAP6GMPAUUI_OBJECT@@@ZA[edx*4]
  01fec	ff d0		 call	 eax
  01fee	d9 9d f4 fe ff
	ff		 fstp	 DWORD PTR tv4569[ebp]
  01ff4	f3 0f 10 85 f4
	fe ff ff	 movss	 xmm0, DWORD PTR tv4569[ebp]
  01ffc	8b 4d fc	 mov	 ecx, DWORD PTR _i$[ebp]
  01fff	8b 54 8d ac	 mov	 edx, DWORD PTR _title_change_array$[ebp+ecx*4]
  02003	52		 push	 edx
  02004	8b 45 fc	 mov	 eax, DWORD PTR _i$[ebp]
  02007	8b 4c 85 ac	 mov	 ecx, DWORD PTR _title_change_array$[ebp+eax*4]
  0200b	8b 11		 mov	 edx, DWORD PTR [ecx]
  0200d	8b 04 95 00 00
	00 00		 mov	 eax, DWORD PTR ?fn_get_ui_object_x_size_end@@3PAP6GMPAUUI_OBJECT@@@ZA[edx*4]
  02014	f3 0f 11 85 f0
	fe ff ff	 movss	 DWORD PTR tv5201[ebp], xmm0
  0201c	ff d0		 call	 eax
  0201e	d9 9d ec fe ff
	ff		 fstp	 DWORD PTR tv4577[ebp]
  02024	f3 0f 10 85 f0
	fe ff ff	 movss	 xmm0, DWORD PTR tv5201[ebp]
  0202c	f3 0f 58 85 ec
	fe ff ff	 addss	 xmm0, DWORD PTR tv4577[ebp]
  02034	f3 0f 58 05 00
	00 00 00	 addss	 xmm0, DWORD PTR __real@3b2a64c3
  0203c	f3 0f 5a c0	 cvtss2sd xmm0, xmm0
  02040	83 ec 08	 sub	 esp, 8
  02043	f2 0f 11 04 24	 movsd	 QWORD PTR [esp], xmm0
  02048	6a 58		 push	 88			; 00000058H
  0204a	8b 0d 00 00 00
	00		 mov	 ecx, DWORD PTR ?cyclic_y_area@@3PAUUI_OBJECT@@A ; cyclic_y_area
  02050	51		 push	 ecx
  02051	6a 32		 push	 50			; 00000032H
  02053	6a 01		 push	 1
  02055	e8 00 00 00 00	 call	 ?create_ui_object@@YAPAUUI_OBJECT@@HZZ ; create_ui_object
  0205a	83 c4 68	 add	 esp, 104		; 00000068H
  0205d	8b 55 fc	 mov	 edx, DWORD PTR _i$[ebp]
  02060	89 84 95 38 ff
	ff ff		 mov	 DWORD PTR _change_array$[ebp+edx*4], eax

; 1732 : 	(
; 1733 : 		UI_TYPE_AREA,
; 1734 : 		UI_ATTR_PARENT (cyclic_y_area),
; 1735 : 		UI_ATTR_VIRTUAL_POSITION ((get_ui_object_x_end (title_change_array [i]) + get_ui_object_x_size_end (title_change_array [i]) + OPTION_BOX_GAP_WIDTH), 0.0),
; 1736 : 		UI_ATTR_VIRTUAL_SIZE (OPTION_BOX_EXTRA_LARGE_WIDTH, OPTION_BOX_HEIGHT),
; 1737 : 		UI_ATTR_COLOUR_START (255, 255, 255, 0),
; 1738 : 		UI_ATTR_COLOUR_END (255, 255, 255, 255),
; 1739 : 		UI_ATTR_TEXTURE_GRAPHIC (options_box_medium),
; 1740 : 		UI_ATTR_END
; 1741 : 	);
; 1742 : 
; 1743 : 	cyclic_y_option_button = create_ui_object

  02067	6a 11		 push	 17			; 00000011H
  02069	68 00 00 00 00	 push	 OFFSET ?notify_cyclic_y_option_button_right@@YGXPAUUI_OBJECT@@PAX@Z ; notify_cyclic_y_option_button_right
  0206e	6a 39		 push	 57			; 00000039H
  02070	68 00 00 00 00	 push	 OFFSET ?notify_cyclic_y_option_button@@YGXPAUUI_OBJECT@@PAX@Z ; notify_cyclic_y_option_button
  02075	6a 16		 push	 22			; 00000016H
  02077	6a 01		 push	 1
  02079	6a 2f		 push	 47			; 0000002fH
  0207b	6a 00		 push	 0
  0207d	6a 49		 push	 73			; 00000049H
  0207f	6a 01		 push	 1
  02081	6a 07		 push	 7
  02083	6a 01		 push	 1
  02085	6a 1b		 push	 27			; 0000001bH
  02087	68 ff 00 00 00	 push	 255			; 000000ffH
  0208c	0f b6 05 00 00
	00 00		 movzx	 eax, BYTE PTR ?ui_option_text_hilite_colour@@3UREAL_COLOUR@@A
  02093	50		 push	 eax
  02094	0f b6 0d 01 00
	00 00		 movzx	 ecx, BYTE PTR ?ui_option_text_hilite_colour@@3UREAL_COLOUR@@A+1
  0209b	51		 push	 ecx
  0209c	0f b6 15 02 00
	00 00		 movzx	 edx, BYTE PTR ?ui_option_text_hilite_colour@@3UREAL_COLOUR@@A+2
  020a3	52		 push	 edx
  020a4	6a 22		 push	 34			; 00000022H
  020a6	6a 00		 push	 0
  020a8	0f b6 05 00 00
	00 00		 movzx	 eax, BYTE PTR ?ui_option_text_hilite_colour@@3UREAL_COLOUR@@A
  020af	50		 push	 eax
  020b0	0f b6 0d 01 00
	00 00		 movzx	 ecx, BYTE PTR ?ui_option_text_hilite_colour@@3UREAL_COLOUR@@A+1
  020b7	51		 push	 ecx
  020b8	0f b6 15 02 00
	00 00		 movzx	 edx, BYTE PTR ?ui_option_text_hilite_colour@@3UREAL_COLOUR@@A+2
  020bf	52		 push	 edx
  020c0	6a 23		 push	 35			; 00000023H
  020c2	68 ff 00 00 00	 push	 255			; 000000ffH
  020c7	0f b6 05 00 00
	00 00		 movzx	 eax, BYTE PTR ?ui_option_text_default_colour@@3UREAL_COLOUR@@A
  020ce	50		 push	 eax
  020cf	0f b6 0d 01 00
	00 00		 movzx	 ecx, BYTE PTR ?ui_option_text_default_colour@@3UREAL_COLOUR@@A+1
  020d6	51		 push	 ecx
  020d7	0f b6 15 02 00
	00 00		 movzx	 edx, BYTE PTR ?ui_option_text_default_colour@@3UREAL_COLOUR@@A+2
  020de	52		 push	 edx
  020df	6a 14		 push	 20			; 00000014H
  020e1	6a 00		 push	 0
  020e3	0f b6 05 00 00
	00 00		 movzx	 eax, BYTE PTR ?ui_option_text_default_colour@@3UREAL_COLOUR@@A
  020ea	50		 push	 eax
  020eb	0f b6 0d 01 00
	00 00		 movzx	 ecx, BYTE PTR ?ui_option_text_default_colour@@3UREAL_COLOUR@@A+1
  020f2	51		 push	 ecx
  020f3	0f b6 15 02 00
	00 00		 movzx	 edx, BYTE PTR ?ui_option_text_default_colour@@3UREAL_COLOUR@@A+2
  020fa	52		 push	 edx
  020fb	6a 15		 push	 21			; 00000015H
  020fd	68 00 00 00 00	 push	 OFFSET ??_C@_00CNPNBAHC@@
  02102	6a 4a		 push	 74			; 0000004aH
  02104	6a 01		 push	 1
  02106	6a 4b		 push	 75			; 0000004bH
  02108	83 ec 08	 sub	 esp, 8
  0210b	f2 0f 10 05 00
	00 00 00	 movsd	 xmm0, QWORD PTR __real@3fc24dd300000000
  02113	f2 0f 11 04 24	 movsd	 QWORD PTR [esp], xmm0
  02118	8b 45 fc	 mov	 eax, DWORD PTR _i$[ebp]
  0211b	8b 8c 85 38 ff
	ff ff		 mov	 ecx, DWORD PTR _change_array$[ebp+eax*4]
  02122	51		 push	 ecx
  02123	8b 55 fc	 mov	 edx, DWORD PTR _i$[ebp]
  02126	8b 84 95 38 ff
	ff ff		 mov	 eax, DWORD PTR _change_array$[ebp+edx*4]
  0212d	8b 08		 mov	 ecx, DWORD PTR [eax]
  0212f	8b 14 8d 00 00
	00 00		 mov	 edx, DWORD PTR ?fn_get_ui_object_x_end@@3PAP6GMPAUUI_OBJECT@@@ZA[ecx*4]
  02136	ff d2		 call	 edx
  02138	d9 9d f4 fe ff
	ff		 fstp	 DWORD PTR tv4596[ebp]
  0213e	f3 0f 10 85 f4
	fe ff ff	 movss	 xmm0, DWORD PTR tv4596[ebp]
  02146	f3 0f 58 05 00
	00 00 00	 addss	 xmm0, DWORD PTR __real@3c03126f
  0214e	f3 0f 5a c0	 cvtss2sd xmm0, xmm0
  02152	83 ec 08	 sub	 esp, 8
  02155	f2 0f 11 04 24	 movsd	 QWORD PTR [esp], xmm0
  0215a	6a 58		 push	 88			; 00000058H
  0215c	68 ff 00 00 00	 push	 255			; 000000ffH
  02161	6a 2f		 push	 47			; 0000002fH
  02163	6a 7c		 push	 124			; 0000007cH
  02165	68 fe 00 00 00	 push	 254			; 000000feH
  0216a	6a 13		 push	 19			; 00000013H
  0216c	6a 02		 push	 2
  0216e	6a 12		 push	 18			; 00000012H
  02170	a1 00 00 00 00	 mov	 eax, DWORD PTR ?cyclic_y_area@@3PAUUI_OBJECT@@A ; cyclic_y_area
  02175	50		 push	 eax
  02176	6a 32		 push	 50			; 00000032H
  02178	6a 05		 push	 5
  0217a	e8 00 00 00 00	 call	 ?create_ui_object@@YAPAUUI_OBJECT@@HZZ ; create_ui_object
  0217f	81 c4 d0 00 00
	00		 add	 esp, 208		; 000000d0H
  02185	a3 00 00 00 00	 mov	 DWORD PTR ?cyclic_y_option_button@@3PAUUI_OBJECT@@A, eax ; cyclic_y_option_button

; 1744 : 	(
; 1745 : 		UI_TYPE_TEXT,
; 1746 : 		UI_ATTR_PARENT (cyclic_y_area),
; 1747 : 		UI_ATTR_FONT_TYPE (/*UI_FONT_THICK_ITALIC_ARIAL_18*/UI_FONT_ITALIC_ARIAL_14),
; 1748 : 		UI_ATTR_FONT_COLOUR (254, 124, 47, 255),
; 1749 : 		UI_ATTR_VIRTUAL_POSITION (get_ui_object_x_end (change_array [i]) + OPTION_BUTTON_TEXT_OFFSET_X, OPTION_BOX_TEXT_OFFSET_Y),
; 1750 : 		UI_ATTR_TEXT_JUSTIFY (TEXT_JUSTIFY_LEFT_CENTRE),
; 1751 : 		UI_ATTR_TEXT (""),
; 1752 :       UI_ATTR_FONT_COLOUR_START (ui_option_text_default_colour.r, ui_option_text_default_colour.g, ui_option_text_default_colour.b, 0),
; 1753 :       UI_ATTR_FONT_COLOUR_END (ui_option_text_default_colour.r, ui_option_text_default_colour.g, ui_option_text_default_colour.b, 255),
; 1754 :       UI_ATTR_HIGHLIGHTED_FONT_COLOUR_START (ui_option_text_hilite_colour.r, ui_option_text_hilite_colour.g, ui_option_text_hilite_colour.b, 0),
; 1755 :       UI_ATTR_HIGHLIGHTED_FONT_COLOUR_END (ui_option_text_hilite_colour.r, ui_option_text_hilite_colour.g, ui_option_text_hilite_colour.b, 255),
; 1756 : 		UI_ATTR_HIGHLIGHTABLE (TRUE),
; 1757 : 		UI_ATTR_CLEAR (TRUE),
; 1758 : 		UI_ATTR_STATE (UI_OBJECT_STATE_OFF),
; 1759 : 		UI_ATTR_NOTIFY_ON (NOTIFY_TYPE_BUTTON_UP),
; 1760 : 		UI_ATTR_FUNCTION (notify_cyclic_y_option_button),
; 1761 : 		UI_ATTR_RIGHT_FUNCTION (notify_cyclic_y_option_button_right),	// Retro 28Aug2004
; 1762 : 		UI_ATTR_END
; 1763 : 	);
; 1764 : 
; 1765 : 	preprocess_translation_object_size (change_array [i], cyclic_y_option_button, option_joystick_text, 2, RESIZE_OPTION_CYCLE_BUTTON);

  0218a	6a 01		 push	 1
  0218c	6a 02		 push	 2
  0218e	68 00 00 00 00	 push	 OFFSET ?option_joystick_text@@3PAPBDA
  02193	a1 00 00 00 00	 mov	 eax, DWORD PTR ?cyclic_y_option_button@@3PAUUI_OBJECT@@A ; cyclic_y_option_button
  02198	50		 push	 eax
  02199	8b 4d fc	 mov	 ecx, DWORD PTR _i$[ebp]
  0219c	8b 94 8d 38 ff
	ff ff		 mov	 edx, DWORD PTR _change_array$[ebp+ecx*4]
  021a3	52		 push	 edx
  021a4	e8 00 00 00 00	 call	 ?preprocess_translation_object_size@@YGXPAUUI_OBJECT@@0PAPBDHW4RESIZE_UI_OBJECT_TYPES@@@Z ; preprocess_translation_object_size

; 1766 : 	// Retro 10Jul2004 end
; 1767 : 
; 1768 : 	// collective
; 1769 : 	
; 1770 : 	i++;

  021a9	8b 45 fc	 mov	 eax, DWORD PTR _i$[ebp]
  021ac	83 c0 01	 add	 eax, 1
  021af	89 45 fc	 mov	 DWORD PTR _i$[ebp], eax

; 1771 : 
; 1772 : 	change_array[i] = create_ui_object

  021b2	6a 11		 push	 17			; 00000011H
  021b4	a1 00 00 00 00	 mov	 eax, DWORD PTR ?options_box_medium@@3PAUTEXTURE_GRAPHIC@@A ; options_box_medium
  021b9	50		 push	 eax
  021ba	6a 4c		 push	 76			; 0000004cH
  021bc	68 ff 00 00 00	 push	 255			; 000000ffH
  021c1	68 ff 00 00 00	 push	 255			; 000000ffH
  021c6	68 ff 00 00 00	 push	 255			; 000000ffH
  021cb	68 ff 00 00 00	 push	 255			; 000000ffH
  021d0	6a 0a		 push	 10			; 0000000aH
  021d2	6a 00		 push	 0
  021d4	68 ff 00 00 00	 push	 255			; 000000ffH
  021d9	68 ff 00 00 00	 push	 255			; 000000ffH
  021de	68 ff 00 00 00	 push	 255			; 000000ffH
  021e3	6a 0b		 push	 11			; 0000000bH
  021e5	83 ec 08	 sub	 esp, 8
  021e8	f2 0f 10 05 00
	00 00 00	 movsd	 xmm0, QWORD PTR __real@3ff0000000000000
  021f0	f2 0f 11 04 24	 movsd	 QWORD PTR [esp], xmm0
  021f5	83 ec 08	 sub	 esp, 8
  021f8	f2 0f 10 05 00
	00 00 00	 movsd	 xmm0, QWORD PTR __real@3fdcccccc0000000
  02200	f2 0f 11 04 24	 movsd	 QWORD PTR [esp], xmm0
  02205	6a 59		 push	 89			; 00000059H
  02207	83 ec 08	 sub	 esp, 8
  0220a	0f 57 c0	 xorps	 xmm0, xmm0
  0220d	f2 0f 11 04 24	 movsd	 QWORD PTR [esp], xmm0
  02212	8b 4d fc	 mov	 ecx, DWORD PTR _i$[ebp]
  02215	8b 54 8d ac	 mov	 edx, DWORD PTR _title_change_array$[ebp+ecx*4]
  02219	52		 push	 edx
  0221a	8b 45 fc	 mov	 eax, DWORD PTR _i$[ebp]
  0221d	8b 4c 85 ac	 mov	 ecx, DWORD PTR _title_change_array$[ebp+eax*4]
  02221	8b 11		 mov	 edx, DWORD PTR [ecx]
  02223	8b 04 95 00 00
	00 00		 mov	 eax, DWORD PTR ?fn_get_ui_object_x_end@@3PAP6GMPAUUI_OBJECT@@@ZA[edx*4]
  0222a	ff d0		 call	 eax
  0222c	d9 9d f4 fe ff
	ff		 fstp	 DWORD PTR tv4613[ebp]
  02232	f3 0f 10 85 f4
	fe ff ff	 movss	 xmm0, DWORD PTR tv4613[ebp]
  0223a	8b 4d fc	 mov	 ecx, DWORD PTR _i$[ebp]
  0223d	8b 54 8d ac	 mov	 edx, DWORD PTR _title_change_array$[ebp+ecx*4]
  02241	52		 push	 edx
  02242	8b 45 fc	 mov	 eax, DWORD PTR _i$[ebp]
  02245	8b 4c 85 ac	 mov	 ecx, DWORD PTR _title_change_array$[ebp+eax*4]
  02249	8b 11		 mov	 edx, DWORD PTR [ecx]
  0224b	8b 04 95 00 00
	00 00		 mov	 eax, DWORD PTR ?fn_get_ui_object_x_size_end@@3PAP6GMPAUUI_OBJECT@@@ZA[edx*4]
  02252	f3 0f 11 85 f0
	fe ff ff	 movss	 DWORD PTR tv5203[ebp], xmm0
  0225a	ff d0		 call	 eax
  0225c	d9 9d ec fe ff
	ff		 fstp	 DWORD PTR tv4621[ebp]
  02262	f3 0f 10 85 f0
	fe ff ff	 movss	 xmm0, DWORD PTR tv5203[ebp]
  0226a	f3 0f 58 85 ec
	fe ff ff	 addss	 xmm0, DWORD PTR tv4621[ebp]
  02272	f3 0f 58 05 00
	00 00 00	 addss	 xmm0, DWORD PTR __real@3b2a64c3
  0227a	f3 0f 5a c0	 cvtss2sd xmm0, xmm0
  0227e	83 ec 08	 sub	 esp, 8
  02281	f2 0f 11 04 24	 movsd	 QWORD PTR [esp], xmm0
  02286	6a 58		 push	 88			; 00000058H
  02288	8b 0d 00 00 00
	00		 mov	 ecx, DWORD PTR ?collective_area@@3PAUUI_OBJECT@@A ; collective_area
  0228e	51		 push	 ecx
  0228f	6a 32		 push	 50			; 00000032H
  02291	6a 01		 push	 1
  02293	e8 00 00 00 00	 call	 ?create_ui_object@@YAPAUUI_OBJECT@@HZZ ; create_ui_object
  02298	83 c4 68	 add	 esp, 104		; 00000068H
  0229b	8b 55 fc	 mov	 edx, DWORD PTR _i$[ebp]
  0229e	89 84 95 38 ff
	ff ff		 mov	 DWORD PTR _change_array$[ebp+edx*4], eax

; 1773 : 	(
; 1774 : 		UI_TYPE_AREA,
; 1775 : 		UI_ATTR_PARENT (collective_area),
; 1776 : 		UI_ATTR_VIRTUAL_POSITION ((get_ui_object_x_end (title_change_array [i]) + get_ui_object_x_size_end (title_change_array [i]) + OPTION_BOX_GAP_WIDTH), 0.0),
; 1777 : 		UI_ATTR_VIRTUAL_SIZE (OPTION_BOX_EXTRA_LARGE_WIDTH, OPTION_BOX_HEIGHT),
; 1778 : 		UI_ATTR_COLOUR_START (255, 255, 255, 0),
; 1779 : 		UI_ATTR_COLOUR_END (255, 255, 255, 255),
; 1780 : 		UI_ATTR_TEXTURE_GRAPHIC (options_box_medium),
; 1781 : 		UI_ATTR_END
; 1782 : 	);
; 1783 : 
; 1784 :    collective_option_button = create_ui_object

  022a5	6a 11		 push	 17			; 00000011H
  022a7	68 00 00 00 00	 push	 OFFSET ?notify_collective_option_button_right@@YGXPAUUI_OBJECT@@PAX@Z ; notify_collective_option_button_right
  022ac	6a 39		 push	 57			; 00000039H
  022ae	68 00 00 00 00	 push	 OFFSET ?notify_collective_option_button@@YGXPAUUI_OBJECT@@PAX@Z ; notify_collective_option_button
  022b3	6a 16		 push	 22			; 00000016H
  022b5	6a 01		 push	 1
  022b7	6a 2f		 push	 47			; 0000002fH
  022b9	6a 01		 push	 1
  022bb	6a 07		 push	 7
  022bd	6a 01		 push	 1
  022bf	6a 1b		 push	 27			; 0000001bH
  022c1	68 ff 00 00 00	 push	 255			; 000000ffH
  022c6	0f b6 05 00 00
	00 00		 movzx	 eax, BYTE PTR ?ui_option_text_hilite_colour@@3UREAL_COLOUR@@A
  022cd	50		 push	 eax
  022ce	0f b6 0d 01 00
	00 00		 movzx	 ecx, BYTE PTR ?ui_option_text_hilite_colour@@3UREAL_COLOUR@@A+1
  022d5	51		 push	 ecx
  022d6	0f b6 15 02 00
	00 00		 movzx	 edx, BYTE PTR ?ui_option_text_hilite_colour@@3UREAL_COLOUR@@A+2
  022dd	52		 push	 edx
  022de	6a 22		 push	 34			; 00000022H
  022e0	6a 00		 push	 0
  022e2	0f b6 05 00 00
	00 00		 movzx	 eax, BYTE PTR ?ui_option_text_hilite_colour@@3UREAL_COLOUR@@A
  022e9	50		 push	 eax
  022ea	0f b6 0d 01 00
	00 00		 movzx	 ecx, BYTE PTR ?ui_option_text_hilite_colour@@3UREAL_COLOUR@@A+1
  022f1	51		 push	 ecx
  022f2	0f b6 15 02 00
	00 00		 movzx	 edx, BYTE PTR ?ui_option_text_hilite_colour@@3UREAL_COLOUR@@A+2
  022f9	52		 push	 edx
  022fa	6a 23		 push	 35			; 00000023H
  022fc	68 ff 00 00 00	 push	 255			; 000000ffH
  02301	0f b6 05 00 00
	00 00		 movzx	 eax, BYTE PTR ?ui_option_text_default_colour@@3UREAL_COLOUR@@A
  02308	50		 push	 eax
  02309	0f b6 0d 01 00
	00 00		 movzx	 ecx, BYTE PTR ?ui_option_text_default_colour@@3UREAL_COLOUR@@A+1
  02310	51		 push	 ecx
  02311	0f b6 15 02 00
	00 00		 movzx	 edx, BYTE PTR ?ui_option_text_default_colour@@3UREAL_COLOUR@@A+2
  02318	52		 push	 edx
  02319	6a 14		 push	 20			; 00000014H
  0231b	6a 00		 push	 0
  0231d	0f b6 05 00 00
	00 00		 movzx	 eax, BYTE PTR ?ui_option_text_default_colour@@3UREAL_COLOUR@@A
  02324	50		 push	 eax
  02325	0f b6 0d 01 00
	00 00		 movzx	 ecx, BYTE PTR ?ui_option_text_default_colour@@3UREAL_COLOUR@@A+1
  0232c	51		 push	 ecx
  0232d	0f b6 15 02 00
	00 00		 movzx	 edx, BYTE PTR ?ui_option_text_default_colour@@3UREAL_COLOUR@@A+2
  02334	52		 push	 edx
  02335	6a 15		 push	 21			; 00000015H
  02337	68 00 00 00 00	 push	 OFFSET ??_C@_00CNPNBAHC@@
  0233c	6a 4a		 push	 74			; 0000004aH
  0233e	6a 01		 push	 1
  02340	6a 4b		 push	 75			; 0000004bH
  02342	83 ec 08	 sub	 esp, 8
  02345	f2 0f 10 05 00
	00 00 00	 movsd	 xmm0, QWORD PTR __real@3fc24dd300000000
  0234d	f2 0f 11 04 24	 movsd	 QWORD PTR [esp], xmm0
  02352	8b 45 fc	 mov	 eax, DWORD PTR _i$[ebp]
  02355	8b 8c 85 38 ff
	ff ff		 mov	 ecx, DWORD PTR _change_array$[ebp+eax*4]
  0235c	51		 push	 ecx
  0235d	8b 55 fc	 mov	 edx, DWORD PTR _i$[ebp]
  02360	8b 84 95 38 ff
	ff ff		 mov	 eax, DWORD PTR _change_array$[ebp+edx*4]
  02367	8b 08		 mov	 ecx, DWORD PTR [eax]
  02369	8b 14 8d 00 00
	00 00		 mov	 edx, DWORD PTR ?fn_get_ui_object_x_end@@3PAP6GMPAUUI_OBJECT@@@ZA[ecx*4]
  02370	ff d2		 call	 edx
  02372	d9 9d f4 fe ff
	ff		 fstp	 DWORD PTR tv4640[ebp]
  02378	f3 0f 10 85 f4
	fe ff ff	 movss	 xmm0, DWORD PTR tv4640[ebp]
  02380	f3 0f 58 05 00
	00 00 00	 addss	 xmm0, DWORD PTR __real@3c03126f
  02388	f3 0f 5a c0	 cvtss2sd xmm0, xmm0
  0238c	83 ec 08	 sub	 esp, 8
  0238f	f2 0f 11 04 24	 movsd	 QWORD PTR [esp], xmm0
  02394	6a 58		 push	 88			; 00000058H
  02396	68 ff 00 00 00	 push	 255			; 000000ffH
  0239b	6a 2f		 push	 47			; 0000002fH
  0239d	6a 7c		 push	 124			; 0000007cH
  0239f	68 fe 00 00 00	 push	 254			; 000000feH
  023a4	6a 13		 push	 19			; 00000013H
  023a6	6a 02		 push	 2
  023a8	6a 12		 push	 18			; 00000012H
  023aa	a1 00 00 00 00	 mov	 eax, DWORD PTR ?collective_area@@3PAUUI_OBJECT@@A ; collective_area
  023af	50		 push	 eax
  023b0	6a 32		 push	 50			; 00000032H
  023b2	6a 05		 push	 5
  023b4	e8 00 00 00 00	 call	 ?create_ui_object@@YAPAUUI_OBJECT@@HZZ ; create_ui_object
  023b9	81 c4 c8 00 00
	00		 add	 esp, 200		; 000000c8H
  023bf	a3 00 00 00 00	 mov	 DWORD PTR ?collective_option_button@@3PAUUI_OBJECT@@A, eax ; collective_option_button

; 1785 : 	(
; 1786 : 		UI_TYPE_TEXT,
; 1787 : 		UI_ATTR_PARENT (collective_area),
; 1788 : 		UI_ATTR_FONT_TYPE (/*UI_FONT_THICK_ITALIC_ARIAL_18*/UI_FONT_ITALIC_ARIAL_14),
; 1789 : 		UI_ATTR_FONT_COLOUR (254, 124, 47, 255),
; 1790 : 		UI_ATTR_VIRTUAL_POSITION (get_ui_object_x_end (change_array [i]) + OPTION_BUTTON_TEXT_OFFSET_X, OPTION_BOX_TEXT_OFFSET_Y),
; 1791 : 		UI_ATTR_TEXT_JUSTIFY (TEXT_JUSTIFY_LEFT_CENTRE),
; 1792 : 		UI_ATTR_TEXT (""),
; 1793 :       UI_ATTR_FONT_COLOUR_START (ui_option_text_default_colour.r, ui_option_text_default_colour.g, ui_option_text_default_colour.b, 0),
; 1794 :       UI_ATTR_FONT_COLOUR_END (ui_option_text_default_colour.r, ui_option_text_default_colour.g, ui_option_text_default_colour.b, 255),
; 1795 :       UI_ATTR_HIGHLIGHTED_FONT_COLOUR_START (ui_option_text_hilite_colour.r, ui_option_text_hilite_colour.g, ui_option_text_hilite_colour.b, 0),
; 1796 :       UI_ATTR_HIGHLIGHTED_FONT_COLOUR_END (ui_option_text_hilite_colour.r, ui_option_text_hilite_colour.g, ui_option_text_hilite_colour.b, 255),
; 1797 : 		UI_ATTR_HIGHLIGHTABLE (TRUE),
; 1798 : 		UI_ATTR_CLEAR (TRUE),
; 1799 : 		UI_ATTR_NOTIFY_ON (NOTIFY_TYPE_BUTTON_UP),
; 1800 : 		UI_ATTR_FUNCTION (notify_collective_option_button),
; 1801 : 		UI_ATTR_RIGHT_FUNCTION (notify_collective_option_button_right),	// Retro 28Aug2004
; 1802 : 		UI_ATTR_END
; 1803 : 	);
; 1804 : 
; 1805 : 	preprocess_translation_object_size (change_array [i], collective_option_button, option_throttle_text, 2, RESIZE_OPTION_CYCLE_BUTTON);

  023c4	6a 01		 push	 1
  023c6	6a 02		 push	 2
  023c8	68 00 00 00 00	 push	 OFFSET ?option_throttle_text@@3PAPBDA
  023cd	a1 00 00 00 00	 mov	 eax, DWORD PTR ?collective_option_button@@3PAUUI_OBJECT@@A ; collective_option_button
  023d2	50		 push	 eax
  023d3	8b 4d fc	 mov	 ecx, DWORD PTR _i$[ebp]
  023d6	8b 94 8d 38 ff
	ff ff		 mov	 edx, DWORD PTR _change_array$[ebp+ecx*4]
  023dd	52		 push	 edx
  023de	e8 00 00 00 00	 call	 ?preprocess_translation_object_size@@YGXPAUUI_OBJECT@@0PAPBDHW4RESIZE_UI_OBJECT_TYPES@@@Z ; preprocess_translation_object_size

; 1806 : 
; 1807 : 	// pedal button
; 1808 : 	
; 1809 : 	i++;

  023e3	8b 45 fc	 mov	 eax, DWORD PTR _i$[ebp]
  023e6	83 c0 01	 add	 eax, 1
  023e9	89 45 fc	 mov	 DWORD PTR _i$[ebp], eax

; 1810 : 
; 1811 : 	change_array[i] = create_ui_object

  023ec	6a 11		 push	 17			; 00000011H
  023ee	a1 00 00 00 00	 mov	 eax, DWORD PTR ?options_box_large@@3PAUTEXTURE_GRAPHIC@@A ; options_box_large
  023f3	50		 push	 eax
  023f4	6a 4c		 push	 76			; 0000004cH
  023f6	68 ff 00 00 00	 push	 255			; 000000ffH
  023fb	68 ff 00 00 00	 push	 255			; 000000ffH
  02400	68 ff 00 00 00	 push	 255			; 000000ffH
  02405	68 ff 00 00 00	 push	 255			; 000000ffH
  0240a	6a 0a		 push	 10			; 0000000aH
  0240c	6a 00		 push	 0
  0240e	68 ff 00 00 00	 push	 255			; 000000ffH
  02413	68 ff 00 00 00	 push	 255			; 000000ffH
  02418	68 ff 00 00 00	 push	 255			; 000000ffH
  0241d	6a 0b		 push	 11			; 0000000bH
  0241f	83 ec 08	 sub	 esp, 8
  02422	f2 0f 10 05 00
	00 00 00	 movsd	 xmm0, QWORD PTR __real@3ff0000000000000
  0242a	f2 0f 11 04 24	 movsd	 QWORD PTR [esp], xmm0
  0242f	83 ec 08	 sub	 esp, 8
  02432	f2 0f 10 05 00
	00 00 00	 movsd	 xmm0, QWORD PTR __real@3fdcccccc0000000
  0243a	f2 0f 11 04 24	 movsd	 QWORD PTR [esp], xmm0
  0243f	6a 59		 push	 89			; 00000059H
  02441	83 ec 08	 sub	 esp, 8
  02444	0f 57 c0	 xorps	 xmm0, xmm0
  02447	f2 0f 11 04 24	 movsd	 QWORD PTR [esp], xmm0
  0244c	8b 4d fc	 mov	 ecx, DWORD PTR _i$[ebp]
  0244f	8b 54 8d ac	 mov	 edx, DWORD PTR _title_change_array$[ebp+ecx*4]
  02453	52		 push	 edx
  02454	8b 45 fc	 mov	 eax, DWORD PTR _i$[ebp]
  02457	8b 4c 85 ac	 mov	 ecx, DWORD PTR _title_change_array$[ebp+eax*4]
  0245b	8b 11		 mov	 edx, DWORD PTR [ecx]
  0245d	8b 04 95 00 00
	00 00		 mov	 eax, DWORD PTR ?fn_get_ui_object_x_end@@3PAP6GMPAUUI_OBJECT@@@ZA[edx*4]
  02464	ff d0		 call	 eax
  02466	d9 9d f4 fe ff
	ff		 fstp	 DWORD PTR tv4657[ebp]
  0246c	f3 0f 10 85 f4
	fe ff ff	 movss	 xmm0, DWORD PTR tv4657[ebp]
  02474	8b 4d fc	 mov	 ecx, DWORD PTR _i$[ebp]
  02477	8b 54 8d ac	 mov	 edx, DWORD PTR _title_change_array$[ebp+ecx*4]
  0247b	52		 push	 edx
  0247c	8b 45 fc	 mov	 eax, DWORD PTR _i$[ebp]
  0247f	8b 4c 85 ac	 mov	 ecx, DWORD PTR _title_change_array$[ebp+eax*4]
  02483	8b 11		 mov	 edx, DWORD PTR [ecx]
  02485	8b 04 95 00 00
	00 00		 mov	 eax, DWORD PTR ?fn_get_ui_object_x_size_end@@3PAP6GMPAUUI_OBJECT@@@ZA[edx*4]
  0248c	f3 0f 11 85 f0
	fe ff ff	 movss	 DWORD PTR tv5205[ebp], xmm0
  02494	ff d0		 call	 eax
  02496	d9 9d ec fe ff
	ff		 fstp	 DWORD PTR tv4665[ebp]
  0249c	f3 0f 10 85 f0
	fe ff ff	 movss	 xmm0, DWORD PTR tv5205[ebp]
  024a4	f3 0f 58 85 ec
	fe ff ff	 addss	 xmm0, DWORD PTR tv4665[ebp]
  024ac	f3 0f 58 05 00
	00 00 00	 addss	 xmm0, DWORD PTR __real@3b2a64c3
  024b4	f3 0f 5a c0	 cvtss2sd xmm0, xmm0
  024b8	83 ec 08	 sub	 esp, 8
  024bb	f2 0f 11 04 24	 movsd	 QWORD PTR [esp], xmm0
  024c0	6a 58		 push	 88			; 00000058H
  024c2	8b 0d 00 00 00
	00		 mov	 ecx, DWORD PTR ?pedal_area@@3PAUUI_OBJECT@@A ; pedal_area
  024c8	51		 push	 ecx
  024c9	6a 32		 push	 50			; 00000032H
  024cb	6a 01		 push	 1
  024cd	e8 00 00 00 00	 call	 ?create_ui_object@@YAPAUUI_OBJECT@@HZZ ; create_ui_object
  024d2	83 c4 68	 add	 esp, 104		; 00000068H
  024d5	8b 55 fc	 mov	 edx, DWORD PTR _i$[ebp]
  024d8	89 84 95 38 ff
	ff ff		 mov	 DWORD PTR _change_array$[ebp+edx*4], eax

; 1812 : 	(
; 1813 : 		UI_TYPE_AREA,
; 1814 : 		UI_ATTR_PARENT (pedal_area),
; 1815 : 		UI_ATTR_VIRTUAL_POSITION ((get_ui_object_x_end (title_change_array [i]) + get_ui_object_x_size_end (title_change_array [i]) + OPTION_BOX_GAP_WIDTH), 0.0),
; 1816 : 		UI_ATTR_VIRTUAL_SIZE (OPTION_BOX_EXTRA_LARGE_WIDTH, OPTION_BOX_HEIGHT),
; 1817 : 		UI_ATTR_COLOUR_START (255, 255, 255, 0),
; 1818 : 		UI_ATTR_COLOUR_END (255, 255, 255, 255),
; 1819 : 		UI_ATTR_TEXTURE_GRAPHIC (options_box_large),
; 1820 : 		UI_ATTR_END
; 1821 : 	);
; 1822 : 
; 1823 :    pedal_option_button = create_ui_object

  024df	6a 11		 push	 17			; 00000011H
  024e1	68 00 00 00 00	 push	 OFFSET ?notify_pedal_option_button_right@@YGXPAUUI_OBJECT@@PAX@Z ; notify_pedal_option_button_right
  024e6	6a 39		 push	 57			; 00000039H
  024e8	68 00 00 00 00	 push	 OFFSET ?notify_pedal_option_button@@YGXPAUUI_OBJECT@@PAX@Z ; notify_pedal_option_button
  024ed	6a 16		 push	 22			; 00000016H
  024ef	6a 01		 push	 1
  024f1	6a 2f		 push	 47			; 0000002fH
  024f3	6a 01		 push	 1
  024f5	6a 07		 push	 7
  024f7	6a 01		 push	 1
  024f9	6a 1b		 push	 27			; 0000001bH
  024fb	68 ff 00 00 00	 push	 255			; 000000ffH
  02500	0f b6 05 00 00
	00 00		 movzx	 eax, BYTE PTR ?ui_option_text_hilite_colour@@3UREAL_COLOUR@@A
  02507	50		 push	 eax
  02508	0f b6 0d 01 00
	00 00		 movzx	 ecx, BYTE PTR ?ui_option_text_hilite_colour@@3UREAL_COLOUR@@A+1
  0250f	51		 push	 ecx
  02510	0f b6 15 02 00
	00 00		 movzx	 edx, BYTE PTR ?ui_option_text_hilite_colour@@3UREAL_COLOUR@@A+2
  02517	52		 push	 edx
  02518	6a 22		 push	 34			; 00000022H
  0251a	6a 00		 push	 0
  0251c	0f b6 05 00 00
	00 00		 movzx	 eax, BYTE PTR ?ui_option_text_hilite_colour@@3UREAL_COLOUR@@A
  02523	50		 push	 eax
  02524	0f b6 0d 01 00
	00 00		 movzx	 ecx, BYTE PTR ?ui_option_text_hilite_colour@@3UREAL_COLOUR@@A+1
  0252b	51		 push	 ecx
  0252c	0f b6 15 02 00
	00 00		 movzx	 edx, BYTE PTR ?ui_option_text_hilite_colour@@3UREAL_COLOUR@@A+2
  02533	52		 push	 edx
  02534	6a 23		 push	 35			; 00000023H
  02536	68 ff 00 00 00	 push	 255			; 000000ffH
  0253b	0f b6 05 00 00
	00 00		 movzx	 eax, BYTE PTR ?ui_option_text_default_colour@@3UREAL_COLOUR@@A
  02542	50		 push	 eax
  02543	0f b6 0d 01 00
	00 00		 movzx	 ecx, BYTE PTR ?ui_option_text_default_colour@@3UREAL_COLOUR@@A+1
  0254a	51		 push	 ecx
  0254b	0f b6 15 02 00
	00 00		 movzx	 edx, BYTE PTR ?ui_option_text_default_colour@@3UREAL_COLOUR@@A+2
  02552	52		 push	 edx
  02553	6a 14		 push	 20			; 00000014H
  02555	6a 00		 push	 0
  02557	0f b6 05 00 00
	00 00		 movzx	 eax, BYTE PTR ?ui_option_text_default_colour@@3UREAL_COLOUR@@A
  0255e	50		 push	 eax
  0255f	0f b6 0d 01 00
	00 00		 movzx	 ecx, BYTE PTR ?ui_option_text_default_colour@@3UREAL_COLOUR@@A+1
  02566	51		 push	 ecx
  02567	0f b6 15 02 00
	00 00		 movzx	 edx, BYTE PTR ?ui_option_text_default_colour@@3UREAL_COLOUR@@A+2
  0256e	52		 push	 edx
  0256f	6a 15		 push	 21			; 00000015H
  02571	68 00 00 00 00	 push	 OFFSET ??_C@_00CNPNBAHC@@
  02576	6a 4a		 push	 74			; 0000004aH
  02578	6a 01		 push	 1
  0257a	6a 4b		 push	 75			; 0000004bH
  0257c	83 ec 08	 sub	 esp, 8
  0257f	f2 0f 10 05 00
	00 00 00	 movsd	 xmm0, QWORD PTR __real@3fc24dd300000000
  02587	f2 0f 11 04 24	 movsd	 QWORD PTR [esp], xmm0
  0258c	8b 45 fc	 mov	 eax, DWORD PTR _i$[ebp]
  0258f	8b 8c 85 38 ff
	ff ff		 mov	 ecx, DWORD PTR _change_array$[ebp+eax*4]
  02596	51		 push	 ecx
  02597	8b 55 fc	 mov	 edx, DWORD PTR _i$[ebp]
  0259a	8b 84 95 38 ff
	ff ff		 mov	 eax, DWORD PTR _change_array$[ebp+edx*4]
  025a1	8b 08		 mov	 ecx, DWORD PTR [eax]
  025a3	8b 14 8d 00 00
	00 00		 mov	 edx, DWORD PTR ?fn_get_ui_object_x_end@@3PAP6GMPAUUI_OBJECT@@@ZA[ecx*4]
  025aa	ff d2		 call	 edx
  025ac	d9 9d f4 fe ff
	ff		 fstp	 DWORD PTR tv4684[ebp]
  025b2	f3 0f 10 85 f4
	fe ff ff	 movss	 xmm0, DWORD PTR tv4684[ebp]
  025ba	f3 0f 58 05 00
	00 00 00	 addss	 xmm0, DWORD PTR __real@3c03126f
  025c2	f3 0f 5a c0	 cvtss2sd xmm0, xmm0
  025c6	83 ec 08	 sub	 esp, 8
  025c9	f2 0f 11 04 24	 movsd	 QWORD PTR [esp], xmm0
  025ce	6a 58		 push	 88			; 00000058H
  025d0	68 ff 00 00 00	 push	 255			; 000000ffH
  025d5	6a 2f		 push	 47			; 0000002fH
  025d7	6a 7c		 push	 124			; 0000007cH
  025d9	68 fe 00 00 00	 push	 254			; 000000feH
  025de	6a 13		 push	 19			; 00000013H
  025e0	6a 02		 push	 2
  025e2	6a 12		 push	 18			; 00000012H
  025e4	a1 00 00 00 00	 mov	 eax, DWORD PTR ?pedal_area@@3PAUUI_OBJECT@@A ; pedal_area
  025e9	50		 push	 eax
  025ea	6a 32		 push	 50			; 00000032H
  025ec	6a 05		 push	 5
  025ee	e8 00 00 00 00	 call	 ?create_ui_object@@YAPAUUI_OBJECT@@HZZ ; create_ui_object
  025f3	81 c4 c8 00 00
	00		 add	 esp, 200		; 000000c8H
  025f9	a3 00 00 00 00	 mov	 DWORD PTR ?pedal_option_button@@3PAUUI_OBJECT@@A, eax ; pedal_option_button

; 1824 : 	(
; 1825 : 		UI_TYPE_TEXT,
; 1826 : 		UI_ATTR_PARENT (pedal_area),
; 1827 : 		UI_ATTR_FONT_TYPE (/*UI_FONT_THICK_ITALIC_ARIAL_18*/UI_FONT_ITALIC_ARIAL_14),
; 1828 : 		UI_ATTR_FONT_COLOUR (254, 124, 47, 255),
; 1829 : 		UI_ATTR_VIRTUAL_POSITION (get_ui_object_x_end (change_array [i]) + OPTION_BUTTON_TEXT_OFFSET_X, OPTION_BOX_TEXT_OFFSET_Y),
; 1830 : 		UI_ATTR_TEXT_JUSTIFY (TEXT_JUSTIFY_LEFT_CENTRE),
; 1831 : 		UI_ATTR_TEXT (""),
; 1832 :       UI_ATTR_FONT_COLOUR_START (ui_option_text_default_colour.r, ui_option_text_default_colour.g, ui_option_text_default_colour.b, 0),
; 1833 :       UI_ATTR_FONT_COLOUR_END (ui_option_text_default_colour.r, ui_option_text_default_colour.g, ui_option_text_default_colour.b, 255),
; 1834 :       UI_ATTR_HIGHLIGHTED_FONT_COLOUR_START (ui_option_text_hilite_colour.r, ui_option_text_hilite_colour.g, ui_option_text_hilite_colour.b, 0),
; 1835 :       UI_ATTR_HIGHLIGHTED_FONT_COLOUR_END (ui_option_text_hilite_colour.r, ui_option_text_hilite_colour.g, ui_option_text_hilite_colour.b, 255),
; 1836 : 		UI_ATTR_HIGHLIGHTABLE (TRUE),
; 1837 : 		UI_ATTR_CLEAR (TRUE),
; 1838 : 		UI_ATTR_NOTIFY_ON (NOTIFY_TYPE_BUTTON_UP),
; 1839 : 		UI_ATTR_FUNCTION (notify_pedal_option_button),
; 1840 : 		UI_ATTR_RIGHT_FUNCTION (notify_pedal_option_button_right),	// Retro 28Aug2004
; 1841 : 		UI_ATTR_END
; 1842 : 	);
; 1843 : 
; 1844 : 	preprocess_translation_object_size (change_array [i], pedal_option_button, option_pedal_text, 2, RESIZE_OPTION_CYCLE_BUTTON);

  025fe	6a 01		 push	 1
  02600	6a 02		 push	 2
  02602	68 00 00 00 00	 push	 OFFSET ?option_pedal_text@@3PAPBDA
  02607	a1 00 00 00 00	 mov	 eax, DWORD PTR ?pedal_option_button@@3PAUUI_OBJECT@@A ; pedal_option_button
  0260c	50		 push	 eax
  0260d	8b 4d fc	 mov	 ecx, DWORD PTR _i$[ebp]
  02610	8b 94 8d 38 ff
	ff ff		 mov	 edx, DWORD PTR _change_array$[ebp+ecx*4]
  02617	52		 push	 edx
  02618	e8 00 00 00 00	 call	 ?preprocess_translation_object_size@@YGXPAUUI_OBJECT@@0PAPBDHW4RESIZE_UI_OBJECT_TYPES@@@Z ; preprocess_translation_object_size

; 1845 : 
; 1846 : #if 0  //Retro10Jul2004_dead
; 1847 : 	//device button
; 1848 : 	
; 1849 : 	i++;
; 1850 : 
; 1851 : 	change_array[i] = device_graphic_area = create_ui_object
; 1852 : 	(
; 1853 : 		UI_TYPE_AREA,
; 1854 : 		UI_ATTR_PARENT (device_area),
; 1855 : 		UI_ATTR_VIRTUAL_POSITION ((get_ui_object_x_end (title_change_array [i]) + get_ui_object_x_size_end (title_change_array [i]) + OPTION_BOX_GAP_WIDTH), 0.0),
; 1856 : 		UI_ATTR_VIRTUAL_SIZE (OPTION_BOX_LARGE_WIDTH, OPTION_BOX_HEIGHT),
; 1857 : 		UI_ATTR_COLOUR_START (255, 255, 255, 0),
; 1858 : 		UI_ATTR_COLOUR_END (255, 255, 255, 255),
; 1859 : 		UI_ATTR_TEXTURE_GRAPHIC (options_box_large),
; 1860 : 		UI_ATTR_END
; 1861 : 	);
; 1862 : 
; 1863 :    device_option_button = create_ui_object
; 1864 : 	(
; 1865 : 		UI_TYPE_TEXT,
; 1866 : 		UI_ATTR_PARENT (device_area),
; 1867 : 		UI_ATTR_FONT_TYPE (/*UI_FONT_THICK_ITALIC_ARIAL_18*/UI_FONT_ITALIC_ARIAL_14),
; 1868 : 		UI_ATTR_FONT_COLOUR (254, 124, 47, 255),
; 1869 : 		UI_ATTR_VIRTUAL_POSITION (get_ui_object_x_end (change_array [i]) + OPTION_BUTTON_TEXT_OFFSET_X, OPTION_BOX_TEXT_OFFSET_Y),
; 1870 : 		UI_ATTR_TEXT_JUSTIFY (TEXT_JUSTIFY_LEFT_CENTRE),
; 1871 : 		UI_ATTR_TEXT (""),
; 1872 :       UI_ATTR_FONT_COLOUR_START (ui_option_text_default_colour.r, ui_option_text_default_colour.g, ui_option_text_default_colour.b, 0),
; 1873 :       UI_ATTR_FONT_COLOUR_END (ui_option_text_default_colour.r, ui_option_text_default_colour.g, ui_option_text_default_colour.b, 255),
; 1874 :       UI_ATTR_HIGHLIGHTED_FONT_COLOUR_START (ui_option_text_hilite_colour.r, ui_option_text_hilite_colour.g, ui_option_text_hilite_colour.b, 0),
; 1875 :       UI_ATTR_HIGHLIGHTED_FONT_COLOUR_END (ui_option_text_hilite_colour.r, ui_option_text_hilite_colour.g, ui_option_text_hilite_colour.b, 255),
; 1876 : 		UI_ATTR_HIGHLIGHTABLE (TRUE),
; 1877 : 		UI_ATTR_CLEAR (TRUE),
; 1878 : 		UI_ATTR_NOTIFY_ON (NOTIFY_TYPE_BUTTON_UP),
; 1879 : 		UI_ATTR_FUNCTION (notify_device_option_button),
; 1880 : 		UI_ATTR_END
; 1881 : 	);
; 1882 : #endif  //Retro10Jul2004_dead
; 1883 : 
; 1884 :    // Retro 10Jul2004
; 1885 :    // eo pan x button
; 1886 : 	
; 1887 : 	i++;

  0261d	8b 45 fc	 mov	 eax, DWORD PTR _i$[ebp]
  02620	83 c0 01	 add	 eax, 1
  02623	89 45 fc	 mov	 DWORD PTR _i$[ebp], eax

; 1888 : 
; 1889 : 	change_array[i] = create_ui_object

  02626	6a 11		 push	 17			; 00000011H
  02628	a1 00 00 00 00	 mov	 eax, DWORD PTR ?options_box_large@@3PAUTEXTURE_GRAPHIC@@A ; options_box_large
  0262d	50		 push	 eax
  0262e	6a 4c		 push	 76			; 0000004cH
  02630	68 ff 00 00 00	 push	 255			; 000000ffH
  02635	68 ff 00 00 00	 push	 255			; 000000ffH
  0263a	68 ff 00 00 00	 push	 255			; 000000ffH
  0263f	68 ff 00 00 00	 push	 255			; 000000ffH
  02644	6a 0a		 push	 10			; 0000000aH
  02646	6a 00		 push	 0
  02648	68 ff 00 00 00	 push	 255			; 000000ffH
  0264d	68 ff 00 00 00	 push	 255			; 000000ffH
  02652	68 ff 00 00 00	 push	 255			; 000000ffH
  02657	6a 0b		 push	 11			; 0000000bH
  02659	83 ec 08	 sub	 esp, 8
  0265c	f2 0f 10 05 00
	00 00 00	 movsd	 xmm0, QWORD PTR __real@3ff0000000000000
  02664	f2 0f 11 04 24	 movsd	 QWORD PTR [esp], xmm0
  02669	83 ec 08	 sub	 esp, 8
  0266c	f2 0f 10 05 00
	00 00 00	 movsd	 xmm0, QWORD PTR __real@3fdcccccc0000000
  02674	f2 0f 11 04 24	 movsd	 QWORD PTR [esp], xmm0
  02679	6a 59		 push	 89			; 00000059H
  0267b	83 ec 08	 sub	 esp, 8
  0267e	0f 57 c0	 xorps	 xmm0, xmm0
  02681	f2 0f 11 04 24	 movsd	 QWORD PTR [esp], xmm0
  02686	8b 4d fc	 mov	 ecx, DWORD PTR _i$[ebp]
  02689	8b 54 8d ac	 mov	 edx, DWORD PTR _title_change_array$[ebp+ecx*4]
  0268d	52		 push	 edx
  0268e	8b 45 fc	 mov	 eax, DWORD PTR _i$[ebp]
  02691	8b 4c 85 ac	 mov	 ecx, DWORD PTR _title_change_array$[ebp+eax*4]
  02695	8b 11		 mov	 edx, DWORD PTR [ecx]
  02697	8b 04 95 00 00
	00 00		 mov	 eax, DWORD PTR ?fn_get_ui_object_x_end@@3PAP6GMPAUUI_OBJECT@@@ZA[edx*4]
  0269e	ff d0		 call	 eax
  026a0	d9 9d f4 fe ff
	ff		 fstp	 DWORD PTR tv4701[ebp]
  026a6	f3 0f 10 85 f4
	fe ff ff	 movss	 xmm0, DWORD PTR tv4701[ebp]
  026ae	8b 4d fc	 mov	 ecx, DWORD PTR _i$[ebp]
  026b1	8b 54 8d ac	 mov	 edx, DWORD PTR _title_change_array$[ebp+ecx*4]
  026b5	52		 push	 edx
  026b6	8b 45 fc	 mov	 eax, DWORD PTR _i$[ebp]
  026b9	8b 4c 85 ac	 mov	 ecx, DWORD PTR _title_change_array$[ebp+eax*4]
  026bd	8b 11		 mov	 edx, DWORD PTR [ecx]
  026bf	8b 04 95 00 00
	00 00		 mov	 eax, DWORD PTR ?fn_get_ui_object_x_size_end@@3PAP6GMPAUUI_OBJECT@@@ZA[edx*4]
  026c6	f3 0f 11 85 f0
	fe ff ff	 movss	 DWORD PTR tv5207[ebp], xmm0
  026ce	ff d0		 call	 eax
  026d0	d9 9d ec fe ff
	ff		 fstp	 DWORD PTR tv4709[ebp]
  026d6	f3 0f 10 85 f0
	fe ff ff	 movss	 xmm0, DWORD PTR tv5207[ebp]
  026de	f3 0f 58 85 ec
	fe ff ff	 addss	 xmm0, DWORD PTR tv4709[ebp]
  026e6	f3 0f 58 05 00
	00 00 00	 addss	 xmm0, DWORD PTR __real@3b2a64c3
  026ee	f3 0f 5a c0	 cvtss2sd xmm0, xmm0
  026f2	83 ec 08	 sub	 esp, 8
  026f5	f2 0f 11 04 24	 movsd	 QWORD PTR [esp], xmm0
  026fa	6a 58		 push	 88			; 00000058H
  026fc	8b 0d 00 00 00
	00		 mov	 ecx, DWORD PTR ?eo_pan_x_area@@3PAUUI_OBJECT@@A ; eo_pan_x_area
  02702	51		 push	 ecx
  02703	6a 32		 push	 50			; 00000032H
  02705	6a 01		 push	 1
  02707	e8 00 00 00 00	 call	 ?create_ui_object@@YAPAUUI_OBJECT@@HZZ ; create_ui_object
  0270c	83 c4 68	 add	 esp, 104		; 00000068H
  0270f	8b 55 fc	 mov	 edx, DWORD PTR _i$[ebp]
  02712	89 84 95 38 ff
	ff ff		 mov	 DWORD PTR _change_array$[ebp+edx*4], eax

; 1890 : 	(
; 1891 : 		UI_TYPE_AREA,
; 1892 : 		UI_ATTR_PARENT (eo_pan_x_area),
; 1893 : 		UI_ATTR_VIRTUAL_POSITION ((get_ui_object_x_end (title_change_array [i]) + get_ui_object_x_size_end (title_change_array [i]) + OPTION_BOX_GAP_WIDTH), 0.0),
; 1894 : 		UI_ATTR_VIRTUAL_SIZE (OPTION_BOX_EXTRA_LARGE_WIDTH, OPTION_BOX_HEIGHT),
; 1895 : 		UI_ATTR_COLOUR_START (255, 255, 255, 0),
; 1896 : 		UI_ATTR_COLOUR_END (255, 255, 255, 255),
; 1897 : 		UI_ATTR_TEXTURE_GRAPHIC (options_box_large),
; 1898 : 		UI_ATTR_END
; 1899 : 	);
; 1900 : 
; 1901 :    eo_pan_x_option_button = create_ui_object

  02719	6a 11		 push	 17			; 00000011H
  0271b	68 00 00 00 00	 push	 OFFSET ?notify_eo_pan_x_option_button_right@@YGXPAUUI_OBJECT@@PAX@Z ; notify_eo_pan_x_option_button_right
  02720	6a 39		 push	 57			; 00000039H
  02722	68 00 00 00 00	 push	 OFFSET ?notify_eo_pan_x_option_button@@YGXPAUUI_OBJECT@@PAX@Z ; notify_eo_pan_x_option_button
  02727	6a 16		 push	 22			; 00000016H
  02729	6a 01		 push	 1
  0272b	6a 2f		 push	 47			; 0000002fH
  0272d	6a 01		 push	 1
  0272f	6a 07		 push	 7
  02731	6a 01		 push	 1
  02733	6a 1b		 push	 27			; 0000001bH
  02735	68 ff 00 00 00	 push	 255			; 000000ffH
  0273a	0f b6 05 00 00
	00 00		 movzx	 eax, BYTE PTR ?ui_option_text_hilite_colour@@3UREAL_COLOUR@@A
  02741	50		 push	 eax
  02742	0f b6 0d 01 00
	00 00		 movzx	 ecx, BYTE PTR ?ui_option_text_hilite_colour@@3UREAL_COLOUR@@A+1
  02749	51		 push	 ecx
  0274a	0f b6 15 02 00
	00 00		 movzx	 edx, BYTE PTR ?ui_option_text_hilite_colour@@3UREAL_COLOUR@@A+2
  02751	52		 push	 edx
  02752	6a 22		 push	 34			; 00000022H
  02754	6a 00		 push	 0
  02756	0f b6 05 00 00
	00 00		 movzx	 eax, BYTE PTR ?ui_option_text_hilite_colour@@3UREAL_COLOUR@@A
  0275d	50		 push	 eax
  0275e	0f b6 0d 01 00
	00 00		 movzx	 ecx, BYTE PTR ?ui_option_text_hilite_colour@@3UREAL_COLOUR@@A+1
  02765	51		 push	 ecx
  02766	0f b6 15 02 00
	00 00		 movzx	 edx, BYTE PTR ?ui_option_text_hilite_colour@@3UREAL_COLOUR@@A+2
  0276d	52		 push	 edx
  0276e	6a 23		 push	 35			; 00000023H
  02770	68 ff 00 00 00	 push	 255			; 000000ffH
  02775	0f b6 05 00 00
	00 00		 movzx	 eax, BYTE PTR ?ui_option_text_default_colour@@3UREAL_COLOUR@@A
  0277c	50		 push	 eax
  0277d	0f b6 0d 01 00
	00 00		 movzx	 ecx, BYTE PTR ?ui_option_text_default_colour@@3UREAL_COLOUR@@A+1
  02784	51		 push	 ecx
  02785	0f b6 15 02 00
	00 00		 movzx	 edx, BYTE PTR ?ui_option_text_default_colour@@3UREAL_COLOUR@@A+2
  0278c	52		 push	 edx
  0278d	6a 14		 push	 20			; 00000014H
  0278f	6a 00		 push	 0
  02791	0f b6 05 00 00
	00 00		 movzx	 eax, BYTE PTR ?ui_option_text_default_colour@@3UREAL_COLOUR@@A
  02798	50		 push	 eax
  02799	0f b6 0d 01 00
	00 00		 movzx	 ecx, BYTE PTR ?ui_option_text_default_colour@@3UREAL_COLOUR@@A+1
  027a0	51		 push	 ecx
  027a1	0f b6 15 02 00
	00 00		 movzx	 edx, BYTE PTR ?ui_option_text_default_colour@@3UREAL_COLOUR@@A+2
  027a8	52		 push	 edx
  027a9	6a 15		 push	 21			; 00000015H
  027ab	68 00 00 00 00	 push	 OFFSET ??_C@_00CNPNBAHC@@
  027b0	6a 4a		 push	 74			; 0000004aH
  027b2	6a 01		 push	 1
  027b4	6a 4b		 push	 75			; 0000004bH
  027b6	83 ec 08	 sub	 esp, 8
  027b9	f2 0f 10 05 00
	00 00 00	 movsd	 xmm0, QWORD PTR __real@3fc24dd300000000
  027c1	f2 0f 11 04 24	 movsd	 QWORD PTR [esp], xmm0
  027c6	8b 45 fc	 mov	 eax, DWORD PTR _i$[ebp]
  027c9	8b 8c 85 38 ff
	ff ff		 mov	 ecx, DWORD PTR _change_array$[ebp+eax*4]
  027d0	51		 push	 ecx
  027d1	8b 55 fc	 mov	 edx, DWORD PTR _i$[ebp]
  027d4	8b 84 95 38 ff
	ff ff		 mov	 eax, DWORD PTR _change_array$[ebp+edx*4]
  027db	8b 08		 mov	 ecx, DWORD PTR [eax]
  027dd	8b 14 8d 00 00
	00 00		 mov	 edx, DWORD PTR ?fn_get_ui_object_x_end@@3PAP6GMPAUUI_OBJECT@@@ZA[ecx*4]
  027e4	ff d2		 call	 edx
  027e6	d9 9d f4 fe ff
	ff		 fstp	 DWORD PTR tv4728[ebp]
  027ec	f3 0f 10 85 f4
	fe ff ff	 movss	 xmm0, DWORD PTR tv4728[ebp]
  027f4	f3 0f 58 05 00
	00 00 00	 addss	 xmm0, DWORD PTR __real@3c03126f
  027fc	f3 0f 5a c0	 cvtss2sd xmm0, xmm0
  02800	83 ec 08	 sub	 esp, 8
  02803	f2 0f 11 04 24	 movsd	 QWORD PTR [esp], xmm0
  02808	6a 58		 push	 88			; 00000058H
  0280a	68 ff 00 00 00	 push	 255			; 000000ffH
  0280f	6a 2f		 push	 47			; 0000002fH
  02811	6a 7c		 push	 124			; 0000007cH
  02813	68 fe 00 00 00	 push	 254			; 000000feH
  02818	6a 13		 push	 19			; 00000013H
  0281a	6a 02		 push	 2
  0281c	6a 12		 push	 18			; 00000012H
  0281e	a1 00 00 00 00	 mov	 eax, DWORD PTR ?eo_pan_x_area@@3PAUUI_OBJECT@@A ; eo_pan_x_area
  02823	50		 push	 eax
  02824	6a 32		 push	 50			; 00000032H
  02826	6a 05		 push	 5
  02828	e8 00 00 00 00	 call	 ?create_ui_object@@YAPAUUI_OBJECT@@HZZ ; create_ui_object
  0282d	81 c4 c8 00 00
	00		 add	 esp, 200		; 000000c8H
  02833	a3 00 00 00 00	 mov	 DWORD PTR ?eo_pan_x_option_button@@3PAUUI_OBJECT@@A, eax ; eo_pan_x_option_button

; 1902 : 	(
; 1903 : 		UI_TYPE_TEXT,
; 1904 : 		UI_ATTR_PARENT (eo_pan_x_area),
; 1905 : 		UI_ATTR_FONT_TYPE (/*UI_FONT_THICK_ITALIC_ARIAL_18*/UI_FONT_ITALIC_ARIAL_14),
; 1906 : 		UI_ATTR_FONT_COLOUR (254, 124, 47, 255),
; 1907 : 		UI_ATTR_VIRTUAL_POSITION (get_ui_object_x_end (change_array [i]) + OPTION_BUTTON_TEXT_OFFSET_X, OPTION_BOX_TEXT_OFFSET_Y),
; 1908 : 		UI_ATTR_TEXT_JUSTIFY (TEXT_JUSTIFY_LEFT_CENTRE),
; 1909 : 		UI_ATTR_TEXT (""),
; 1910 :       UI_ATTR_FONT_COLOUR_START (ui_option_text_default_colour.r, ui_option_text_default_colour.g, ui_option_text_default_colour.b, 0),
; 1911 :       UI_ATTR_FONT_COLOUR_END (ui_option_text_default_colour.r, ui_option_text_default_colour.g, ui_option_text_default_colour.b, 255),
; 1912 :       UI_ATTR_HIGHLIGHTED_FONT_COLOUR_START (ui_option_text_hilite_colour.r, ui_option_text_hilite_colour.g, ui_option_text_hilite_colour.b, 0),
; 1913 :       UI_ATTR_HIGHLIGHTED_FONT_COLOUR_END (ui_option_text_hilite_colour.r, ui_option_text_hilite_colour.g, ui_option_text_hilite_colour.b, 255),
; 1914 : 		UI_ATTR_HIGHLIGHTABLE (TRUE),
; 1915 : 		UI_ATTR_CLEAR (TRUE),
; 1916 : 		UI_ATTR_NOTIFY_ON (NOTIFY_TYPE_BUTTON_UP),
; 1917 : 		UI_ATTR_FUNCTION (notify_eo_pan_x_option_button),
; 1918 : 		UI_ATTR_RIGHT_FUNCTION (notify_eo_pan_x_option_button_right),	// Retro 28Aug2004
; 1919 : 		UI_ATTR_END
; 1920 : 	);
; 1921 : 
; 1922 : 	preprocess_translation_object_size (change_array [i], eo_pan_x_option_button, option_pedal_text, 2, RESIZE_OPTION_CYCLE_BUTTON);

  02838	6a 01		 push	 1
  0283a	6a 02		 push	 2
  0283c	68 00 00 00 00	 push	 OFFSET ?option_pedal_text@@3PAPBDA
  02841	a1 00 00 00 00	 mov	 eax, DWORD PTR ?eo_pan_x_option_button@@3PAUUI_OBJECT@@A ; eo_pan_x_option_button
  02846	50		 push	 eax
  02847	8b 4d fc	 mov	 ecx, DWORD PTR _i$[ebp]
  0284a	8b 94 8d 38 ff
	ff ff		 mov	 edx, DWORD PTR _change_array$[ebp+ecx*4]
  02851	52		 push	 edx
  02852	e8 00 00 00 00	 call	 ?preprocess_translation_object_size@@YGXPAUUI_OBJECT@@0PAPBDHW4RESIZE_UI_OBJECT_TYPES@@@Z ; preprocess_translation_object_size

; 1923 : 	// Retro 10Jul2004 end
; 1924 : 
; 1925 : 	// Retro 10Jul2004
; 1926 : 	// eo pan y button
; 1927 : 	
; 1928 : 	i++;

  02857	8b 45 fc	 mov	 eax, DWORD PTR _i$[ebp]
  0285a	83 c0 01	 add	 eax, 1
  0285d	89 45 fc	 mov	 DWORD PTR _i$[ebp], eax

; 1929 : 
; 1930 : 	change_array[i] = create_ui_object

  02860	6a 11		 push	 17			; 00000011H
  02862	a1 00 00 00 00	 mov	 eax, DWORD PTR ?options_box_large@@3PAUTEXTURE_GRAPHIC@@A ; options_box_large
  02867	50		 push	 eax
  02868	6a 4c		 push	 76			; 0000004cH
  0286a	68 ff 00 00 00	 push	 255			; 000000ffH
  0286f	68 ff 00 00 00	 push	 255			; 000000ffH
  02874	68 ff 00 00 00	 push	 255			; 000000ffH
  02879	68 ff 00 00 00	 push	 255			; 000000ffH
  0287e	6a 0a		 push	 10			; 0000000aH
  02880	6a 00		 push	 0
  02882	68 ff 00 00 00	 push	 255			; 000000ffH
  02887	68 ff 00 00 00	 push	 255			; 000000ffH
  0288c	68 ff 00 00 00	 push	 255			; 000000ffH
  02891	6a 0b		 push	 11			; 0000000bH
  02893	83 ec 08	 sub	 esp, 8
  02896	f2 0f 10 05 00
	00 00 00	 movsd	 xmm0, QWORD PTR __real@3ff0000000000000
  0289e	f2 0f 11 04 24	 movsd	 QWORD PTR [esp], xmm0
  028a3	83 ec 08	 sub	 esp, 8
  028a6	f2 0f 10 05 00
	00 00 00	 movsd	 xmm0, QWORD PTR __real@3fdcccccc0000000
  028ae	f2 0f 11 04 24	 movsd	 QWORD PTR [esp], xmm0
  028b3	6a 59		 push	 89			; 00000059H
  028b5	83 ec 08	 sub	 esp, 8
  028b8	0f 57 c0	 xorps	 xmm0, xmm0
  028bb	f2 0f 11 04 24	 movsd	 QWORD PTR [esp], xmm0
  028c0	8b 4d fc	 mov	 ecx, DWORD PTR _i$[ebp]
  028c3	8b 54 8d ac	 mov	 edx, DWORD PTR _title_change_array$[ebp+ecx*4]
  028c7	52		 push	 edx
  028c8	8b 45 fc	 mov	 eax, DWORD PTR _i$[ebp]
  028cb	8b 4c 85 ac	 mov	 ecx, DWORD PTR _title_change_array$[ebp+eax*4]
  028cf	8b 11		 mov	 edx, DWORD PTR [ecx]
  028d1	8b 04 95 00 00
	00 00		 mov	 eax, DWORD PTR ?fn_get_ui_object_x_end@@3PAP6GMPAUUI_OBJECT@@@ZA[edx*4]
  028d8	ff d0		 call	 eax
  028da	d9 9d f4 fe ff
	ff		 fstp	 DWORD PTR tv4745[ebp]
  028e0	f3 0f 10 85 f4
	fe ff ff	 movss	 xmm0, DWORD PTR tv4745[ebp]
  028e8	8b 4d fc	 mov	 ecx, DWORD PTR _i$[ebp]
  028eb	8b 54 8d ac	 mov	 edx, DWORD PTR _title_change_array$[ebp+ecx*4]
  028ef	52		 push	 edx
  028f0	8b 45 fc	 mov	 eax, DWORD PTR _i$[ebp]
  028f3	8b 4c 85 ac	 mov	 ecx, DWORD PTR _title_change_array$[ebp+eax*4]
  028f7	8b 11		 mov	 edx, DWORD PTR [ecx]
  028f9	8b 04 95 00 00
	00 00		 mov	 eax, DWORD PTR ?fn_get_ui_object_x_size_end@@3PAP6GMPAUUI_OBJECT@@@ZA[edx*4]
  02900	f3 0f 11 85 f0
	fe ff ff	 movss	 DWORD PTR tv5209[ebp], xmm0
  02908	ff d0		 call	 eax
  0290a	d9 9d ec fe ff
	ff		 fstp	 DWORD PTR tv4753[ebp]
  02910	f3 0f 10 85 f0
	fe ff ff	 movss	 xmm0, DWORD PTR tv5209[ebp]
  02918	f3 0f 58 85 ec
	fe ff ff	 addss	 xmm0, DWORD PTR tv4753[ebp]
  02920	f3 0f 58 05 00
	00 00 00	 addss	 xmm0, DWORD PTR __real@3b2a64c3
  02928	f3 0f 5a c0	 cvtss2sd xmm0, xmm0
  0292c	83 ec 08	 sub	 esp, 8
  0292f	f2 0f 11 04 24	 movsd	 QWORD PTR [esp], xmm0
  02934	6a 58		 push	 88			; 00000058H
  02936	8b 0d 00 00 00
	00		 mov	 ecx, DWORD PTR ?eo_pan_y_area@@3PAUUI_OBJECT@@A ; eo_pan_y_area
  0293c	51		 push	 ecx
  0293d	6a 32		 push	 50			; 00000032H
  0293f	6a 01		 push	 1
  02941	e8 00 00 00 00	 call	 ?create_ui_object@@YAPAUUI_OBJECT@@HZZ ; create_ui_object
  02946	83 c4 68	 add	 esp, 104		; 00000068H
  02949	8b 55 fc	 mov	 edx, DWORD PTR _i$[ebp]
  0294c	89 84 95 38 ff
	ff ff		 mov	 DWORD PTR _change_array$[ebp+edx*4], eax

; 1931 : 	(
; 1932 : 		UI_TYPE_AREA,
; 1933 : 		UI_ATTR_PARENT (eo_pan_y_area),
; 1934 : 		UI_ATTR_VIRTUAL_POSITION ((get_ui_object_x_end (title_change_array [i]) + get_ui_object_x_size_end (title_change_array [i]) + OPTION_BOX_GAP_WIDTH), 0.0),
; 1935 : 		UI_ATTR_VIRTUAL_SIZE (OPTION_BOX_EXTRA_LARGE_WIDTH, OPTION_BOX_HEIGHT),
; 1936 : 		UI_ATTR_COLOUR_START (255, 255, 255, 0),
; 1937 : 		UI_ATTR_COLOUR_END (255, 255, 255, 255),
; 1938 : 		UI_ATTR_TEXTURE_GRAPHIC (options_box_large),
; 1939 : 		UI_ATTR_END
; 1940 : 	);
; 1941 : 
; 1942 :    eo_pan_y_option_button = create_ui_object

  02953	6a 11		 push	 17			; 00000011H
  02955	68 00 00 00 00	 push	 OFFSET ?notify_eo_pan_y_option_button_right@@YGXPAUUI_OBJECT@@PAX@Z ; notify_eo_pan_y_option_button_right
  0295a	6a 39		 push	 57			; 00000039H
  0295c	68 00 00 00 00	 push	 OFFSET ?notify_eo_pan_y_option_button@@YGXPAUUI_OBJECT@@PAX@Z ; notify_eo_pan_y_option_button
  02961	6a 16		 push	 22			; 00000016H
  02963	6a 01		 push	 1
  02965	6a 2f		 push	 47			; 0000002fH
  02967	6a 01		 push	 1
  02969	6a 07		 push	 7
  0296b	6a 01		 push	 1
  0296d	6a 1b		 push	 27			; 0000001bH
  0296f	68 ff 00 00 00	 push	 255			; 000000ffH
  02974	0f b6 05 00 00
	00 00		 movzx	 eax, BYTE PTR ?ui_option_text_hilite_colour@@3UREAL_COLOUR@@A
  0297b	50		 push	 eax
  0297c	0f b6 0d 01 00
	00 00		 movzx	 ecx, BYTE PTR ?ui_option_text_hilite_colour@@3UREAL_COLOUR@@A+1
  02983	51		 push	 ecx
  02984	0f b6 15 02 00
	00 00		 movzx	 edx, BYTE PTR ?ui_option_text_hilite_colour@@3UREAL_COLOUR@@A+2
  0298b	52		 push	 edx
  0298c	6a 22		 push	 34			; 00000022H
  0298e	6a 00		 push	 0
  02990	0f b6 05 00 00
	00 00		 movzx	 eax, BYTE PTR ?ui_option_text_hilite_colour@@3UREAL_COLOUR@@A
  02997	50		 push	 eax
  02998	0f b6 0d 01 00
	00 00		 movzx	 ecx, BYTE PTR ?ui_option_text_hilite_colour@@3UREAL_COLOUR@@A+1
  0299f	51		 push	 ecx
  029a0	0f b6 15 02 00
	00 00		 movzx	 edx, BYTE PTR ?ui_option_text_hilite_colour@@3UREAL_COLOUR@@A+2
  029a7	52		 push	 edx
  029a8	6a 23		 push	 35			; 00000023H
  029aa	68 ff 00 00 00	 push	 255			; 000000ffH
  029af	0f b6 05 00 00
	00 00		 movzx	 eax, BYTE PTR ?ui_option_text_default_colour@@3UREAL_COLOUR@@A
  029b6	50		 push	 eax
  029b7	0f b6 0d 01 00
	00 00		 movzx	 ecx, BYTE PTR ?ui_option_text_default_colour@@3UREAL_COLOUR@@A+1
  029be	51		 push	 ecx
  029bf	0f b6 15 02 00
	00 00		 movzx	 edx, BYTE PTR ?ui_option_text_default_colour@@3UREAL_COLOUR@@A+2
  029c6	52		 push	 edx
  029c7	6a 14		 push	 20			; 00000014H
  029c9	6a 00		 push	 0
  029cb	0f b6 05 00 00
	00 00		 movzx	 eax, BYTE PTR ?ui_option_text_default_colour@@3UREAL_COLOUR@@A
  029d2	50		 push	 eax
  029d3	0f b6 0d 01 00
	00 00		 movzx	 ecx, BYTE PTR ?ui_option_text_default_colour@@3UREAL_COLOUR@@A+1
  029da	51		 push	 ecx
  029db	0f b6 15 02 00
	00 00		 movzx	 edx, BYTE PTR ?ui_option_text_default_colour@@3UREAL_COLOUR@@A+2
  029e2	52		 push	 edx
  029e3	6a 15		 push	 21			; 00000015H
  029e5	68 00 00 00 00	 push	 OFFSET ??_C@_00CNPNBAHC@@
  029ea	6a 4a		 push	 74			; 0000004aH
  029ec	6a 01		 push	 1
  029ee	6a 4b		 push	 75			; 0000004bH
  029f0	83 ec 08	 sub	 esp, 8
  029f3	f2 0f 10 05 00
	00 00 00	 movsd	 xmm0, QWORD PTR __real@3fc24dd300000000
  029fb	f2 0f 11 04 24	 movsd	 QWORD PTR [esp], xmm0
  02a00	8b 45 fc	 mov	 eax, DWORD PTR _i$[ebp]
  02a03	8b 8c 85 38 ff
	ff ff		 mov	 ecx, DWORD PTR _change_array$[ebp+eax*4]
  02a0a	51		 push	 ecx
  02a0b	8b 55 fc	 mov	 edx, DWORD PTR _i$[ebp]
  02a0e	8b 84 95 38 ff
	ff ff		 mov	 eax, DWORD PTR _change_array$[ebp+edx*4]
  02a15	8b 08		 mov	 ecx, DWORD PTR [eax]
  02a17	8b 14 8d 00 00
	00 00		 mov	 edx, DWORD PTR ?fn_get_ui_object_x_end@@3PAP6GMPAUUI_OBJECT@@@ZA[ecx*4]
  02a1e	ff d2		 call	 edx
  02a20	d9 9d f4 fe ff
	ff		 fstp	 DWORD PTR tv4772[ebp]
  02a26	f3 0f 10 85 f4
	fe ff ff	 movss	 xmm0, DWORD PTR tv4772[ebp]
  02a2e	f3 0f 58 05 00
	00 00 00	 addss	 xmm0, DWORD PTR __real@3c03126f
  02a36	f3 0f 5a c0	 cvtss2sd xmm0, xmm0
  02a3a	83 ec 08	 sub	 esp, 8
  02a3d	f2 0f 11 04 24	 movsd	 QWORD PTR [esp], xmm0
  02a42	6a 58		 push	 88			; 00000058H
  02a44	68 ff 00 00 00	 push	 255			; 000000ffH
  02a49	6a 2f		 push	 47			; 0000002fH
  02a4b	6a 7c		 push	 124			; 0000007cH
  02a4d	68 fe 00 00 00	 push	 254			; 000000feH
  02a52	6a 13		 push	 19			; 00000013H
  02a54	6a 02		 push	 2
  02a56	6a 12		 push	 18			; 00000012H
  02a58	a1 00 00 00 00	 mov	 eax, DWORD PTR ?eo_pan_y_area@@3PAUUI_OBJECT@@A ; eo_pan_y_area
  02a5d	50		 push	 eax
  02a5e	6a 32		 push	 50			; 00000032H
  02a60	6a 05		 push	 5
  02a62	e8 00 00 00 00	 call	 ?create_ui_object@@YAPAUUI_OBJECT@@HZZ ; create_ui_object
  02a67	81 c4 c8 00 00
	00		 add	 esp, 200		; 000000c8H
  02a6d	a3 00 00 00 00	 mov	 DWORD PTR ?eo_pan_y_option_button@@3PAUUI_OBJECT@@A, eax ; eo_pan_y_option_button

; 1943 : 	(
; 1944 : 		UI_TYPE_TEXT,
; 1945 : 		UI_ATTR_PARENT (eo_pan_y_area),
; 1946 : 		UI_ATTR_FONT_TYPE (/*UI_FONT_THICK_ITALIC_ARIAL_18*/UI_FONT_ITALIC_ARIAL_14),
; 1947 : 		UI_ATTR_FONT_COLOUR (254, 124, 47, 255),
; 1948 : 		UI_ATTR_VIRTUAL_POSITION (get_ui_object_x_end (change_array [i]) + OPTION_BUTTON_TEXT_OFFSET_X, OPTION_BOX_TEXT_OFFSET_Y),
; 1949 : 		UI_ATTR_TEXT_JUSTIFY (TEXT_JUSTIFY_LEFT_CENTRE),
; 1950 : 		UI_ATTR_TEXT (""),
; 1951 :       UI_ATTR_FONT_COLOUR_START (ui_option_text_default_colour.r, ui_option_text_default_colour.g, ui_option_text_default_colour.b, 0),
; 1952 :       UI_ATTR_FONT_COLOUR_END (ui_option_text_default_colour.r, ui_option_text_default_colour.g, ui_option_text_default_colour.b, 255),
; 1953 :       UI_ATTR_HIGHLIGHTED_FONT_COLOUR_START (ui_option_text_hilite_colour.r, ui_option_text_hilite_colour.g, ui_option_text_hilite_colour.b, 0),
; 1954 :       UI_ATTR_HIGHLIGHTED_FONT_COLOUR_END (ui_option_text_hilite_colour.r, ui_option_text_hilite_colour.g, ui_option_text_hilite_colour.b, 255),
; 1955 : 		UI_ATTR_HIGHLIGHTABLE (TRUE),
; 1956 : 		UI_ATTR_CLEAR (TRUE),
; 1957 : 		UI_ATTR_NOTIFY_ON (NOTIFY_TYPE_BUTTON_UP),
; 1958 : 		UI_ATTR_FUNCTION (notify_eo_pan_y_option_button),
; 1959 : 		UI_ATTR_RIGHT_FUNCTION (notify_eo_pan_y_option_button_right),	// Retro 28Aug2004
; 1960 : 		UI_ATTR_END
; 1961 : 	);
; 1962 : 
; 1963 : 	preprocess_translation_object_size (change_array [i], eo_pan_y_option_button, option_pedal_text, 2, RESIZE_OPTION_CYCLE_BUTTON);

  02a72	6a 01		 push	 1
  02a74	6a 02		 push	 2
  02a76	68 00 00 00 00	 push	 OFFSET ?option_pedal_text@@3PAPBDA
  02a7b	a1 00 00 00 00	 mov	 eax, DWORD PTR ?eo_pan_y_option_button@@3PAUUI_OBJECT@@A ; eo_pan_y_option_button
  02a80	50		 push	 eax
  02a81	8b 4d fc	 mov	 ecx, DWORD PTR _i$[ebp]
  02a84	8b 94 8d 38 ff
	ff ff		 mov	 edx, DWORD PTR _change_array$[ebp+ecx*4]
  02a8b	52		 push	 edx
  02a8c	e8 00 00 00 00	 call	 ?preprocess_translation_object_size@@YGXPAUUI_OBJECT@@0PAPBDHW4RESIZE_UI_OBJECT_TYPES@@@Z ; preprocess_translation_object_size

; 1964 : 	// Retro 10Jul2004 end
; 1965 : 
; 1966 : 	// Retro 10Jul2004
; 1967 : 	// eo zoom button
; 1968 : 	
; 1969 : 	i++;

  02a91	8b 45 fc	 mov	 eax, DWORD PTR _i$[ebp]
  02a94	83 c0 01	 add	 eax, 1
  02a97	89 45 fc	 mov	 DWORD PTR _i$[ebp], eax

; 1970 : 
; 1971 : 	change_array[i] = create_ui_object

  02a9a	6a 11		 push	 17			; 00000011H
  02a9c	a1 00 00 00 00	 mov	 eax, DWORD PTR ?options_box_large@@3PAUTEXTURE_GRAPHIC@@A ; options_box_large
  02aa1	50		 push	 eax
  02aa2	6a 4c		 push	 76			; 0000004cH
  02aa4	68 ff 00 00 00	 push	 255			; 000000ffH
  02aa9	68 ff 00 00 00	 push	 255			; 000000ffH
  02aae	68 ff 00 00 00	 push	 255			; 000000ffH
  02ab3	68 ff 00 00 00	 push	 255			; 000000ffH
  02ab8	6a 0a		 push	 10			; 0000000aH
  02aba	6a 00		 push	 0
  02abc	68 ff 00 00 00	 push	 255			; 000000ffH
  02ac1	68 ff 00 00 00	 push	 255			; 000000ffH
  02ac6	68 ff 00 00 00	 push	 255			; 000000ffH
  02acb	6a 0b		 push	 11			; 0000000bH
  02acd	83 ec 08	 sub	 esp, 8
  02ad0	f2 0f 10 05 00
	00 00 00	 movsd	 xmm0, QWORD PTR __real@3ff0000000000000
  02ad8	f2 0f 11 04 24	 movsd	 QWORD PTR [esp], xmm0
  02add	83 ec 08	 sub	 esp, 8
  02ae0	f2 0f 10 05 00
	00 00 00	 movsd	 xmm0, QWORD PTR __real@3fdcccccc0000000
  02ae8	f2 0f 11 04 24	 movsd	 QWORD PTR [esp], xmm0
  02aed	6a 59		 push	 89			; 00000059H
  02aef	83 ec 08	 sub	 esp, 8
  02af2	0f 57 c0	 xorps	 xmm0, xmm0
  02af5	f2 0f 11 04 24	 movsd	 QWORD PTR [esp], xmm0
  02afa	8b 4d fc	 mov	 ecx, DWORD PTR _i$[ebp]
  02afd	8b 54 8d ac	 mov	 edx, DWORD PTR _title_change_array$[ebp+ecx*4]
  02b01	52		 push	 edx
  02b02	8b 45 fc	 mov	 eax, DWORD PTR _i$[ebp]
  02b05	8b 4c 85 ac	 mov	 ecx, DWORD PTR _title_change_array$[ebp+eax*4]
  02b09	8b 11		 mov	 edx, DWORD PTR [ecx]
  02b0b	8b 04 95 00 00
	00 00		 mov	 eax, DWORD PTR ?fn_get_ui_object_x_end@@3PAP6GMPAUUI_OBJECT@@@ZA[edx*4]
  02b12	ff d0		 call	 eax
  02b14	d9 9d f4 fe ff
	ff		 fstp	 DWORD PTR tv4789[ebp]
  02b1a	f3 0f 10 85 f4
	fe ff ff	 movss	 xmm0, DWORD PTR tv4789[ebp]
  02b22	8b 4d fc	 mov	 ecx, DWORD PTR _i$[ebp]
  02b25	8b 54 8d ac	 mov	 edx, DWORD PTR _title_change_array$[ebp+ecx*4]
  02b29	52		 push	 edx
  02b2a	8b 45 fc	 mov	 eax, DWORD PTR _i$[ebp]
  02b2d	8b 4c 85 ac	 mov	 ecx, DWORD PTR _title_change_array$[ebp+eax*4]
  02b31	8b 11		 mov	 edx, DWORD PTR [ecx]
  02b33	8b 04 95 00 00
	00 00		 mov	 eax, DWORD PTR ?fn_get_ui_object_x_size_end@@3PAP6GMPAUUI_OBJECT@@@ZA[edx*4]
  02b3a	f3 0f 11 85 f0
	fe ff ff	 movss	 DWORD PTR tv5211[ebp], xmm0
  02b42	ff d0		 call	 eax
  02b44	d9 9d ec fe ff
	ff		 fstp	 DWORD PTR tv4797[ebp]
  02b4a	f3 0f 10 85 f0
	fe ff ff	 movss	 xmm0, DWORD PTR tv5211[ebp]
  02b52	f3 0f 58 85 ec
	fe ff ff	 addss	 xmm0, DWORD PTR tv4797[ebp]
  02b5a	f3 0f 58 05 00
	00 00 00	 addss	 xmm0, DWORD PTR __real@3b2a64c3
  02b62	f3 0f 5a c0	 cvtss2sd xmm0, xmm0
  02b66	83 ec 08	 sub	 esp, 8
  02b69	f2 0f 11 04 24	 movsd	 QWORD PTR [esp], xmm0
  02b6e	6a 58		 push	 88			; 00000058H
  02b70	8b 0d 00 00 00
	00		 mov	 ecx, DWORD PTR ?eo_zoom_area@@3PAUUI_OBJECT@@A ; eo_zoom_area
  02b76	51		 push	 ecx
  02b77	6a 32		 push	 50			; 00000032H
  02b79	6a 01		 push	 1
  02b7b	e8 00 00 00 00	 call	 ?create_ui_object@@YAPAUUI_OBJECT@@HZZ ; create_ui_object
  02b80	83 c4 68	 add	 esp, 104		; 00000068H
  02b83	8b 55 fc	 mov	 edx, DWORD PTR _i$[ebp]
  02b86	89 84 95 38 ff
	ff ff		 mov	 DWORD PTR _change_array$[ebp+edx*4], eax

; 1972 : 	(
; 1973 : 		UI_TYPE_AREA,
; 1974 : 		UI_ATTR_PARENT (eo_zoom_area),
; 1975 : 		UI_ATTR_VIRTUAL_POSITION ((get_ui_object_x_end (title_change_array [i]) + get_ui_object_x_size_end (title_change_array [i]) + OPTION_BOX_GAP_WIDTH), 0.0),
; 1976 : 		UI_ATTR_VIRTUAL_SIZE (OPTION_BOX_EXTRA_LARGE_WIDTH, OPTION_BOX_HEIGHT),
; 1977 : 		UI_ATTR_COLOUR_START (255, 255, 255, 0),
; 1978 : 		UI_ATTR_COLOUR_END (255, 255, 255, 255),
; 1979 : 		UI_ATTR_TEXTURE_GRAPHIC (options_box_large),
; 1980 : 		UI_ATTR_END
; 1981 : 	);
; 1982 : 
; 1983 :    eo_zoom_option_button = create_ui_object

  02b8d	6a 11		 push	 17			; 00000011H
  02b8f	68 00 00 00 00	 push	 OFFSET ?notify_eo_zoom_option_button_right@@YGXPAUUI_OBJECT@@PAX@Z ; notify_eo_zoom_option_button_right
  02b94	6a 39		 push	 57			; 00000039H
  02b96	68 00 00 00 00	 push	 OFFSET ?notify_eo_zoom_option_button@@YGXPAUUI_OBJECT@@PAX@Z ; notify_eo_zoom_option_button
  02b9b	6a 16		 push	 22			; 00000016H
  02b9d	6a 01		 push	 1
  02b9f	6a 2f		 push	 47			; 0000002fH
  02ba1	6a 01		 push	 1
  02ba3	6a 07		 push	 7
  02ba5	6a 01		 push	 1
  02ba7	6a 1b		 push	 27			; 0000001bH
  02ba9	68 ff 00 00 00	 push	 255			; 000000ffH
  02bae	0f b6 05 00 00
	00 00		 movzx	 eax, BYTE PTR ?ui_option_text_hilite_colour@@3UREAL_COLOUR@@A
  02bb5	50		 push	 eax
  02bb6	0f b6 0d 01 00
	00 00		 movzx	 ecx, BYTE PTR ?ui_option_text_hilite_colour@@3UREAL_COLOUR@@A+1
  02bbd	51		 push	 ecx
  02bbe	0f b6 15 02 00
	00 00		 movzx	 edx, BYTE PTR ?ui_option_text_hilite_colour@@3UREAL_COLOUR@@A+2
  02bc5	52		 push	 edx
  02bc6	6a 22		 push	 34			; 00000022H
  02bc8	6a 00		 push	 0
  02bca	0f b6 05 00 00
	00 00		 movzx	 eax, BYTE PTR ?ui_option_text_hilite_colour@@3UREAL_COLOUR@@A
  02bd1	50		 push	 eax
  02bd2	0f b6 0d 01 00
	00 00		 movzx	 ecx, BYTE PTR ?ui_option_text_hilite_colour@@3UREAL_COLOUR@@A+1
  02bd9	51		 push	 ecx
  02bda	0f b6 15 02 00
	00 00		 movzx	 edx, BYTE PTR ?ui_option_text_hilite_colour@@3UREAL_COLOUR@@A+2
  02be1	52		 push	 edx
  02be2	6a 23		 push	 35			; 00000023H
  02be4	68 ff 00 00 00	 push	 255			; 000000ffH
  02be9	0f b6 05 00 00
	00 00		 movzx	 eax, BYTE PTR ?ui_option_text_default_colour@@3UREAL_COLOUR@@A
  02bf0	50		 push	 eax
  02bf1	0f b6 0d 01 00
	00 00		 movzx	 ecx, BYTE PTR ?ui_option_text_default_colour@@3UREAL_COLOUR@@A+1
  02bf8	51		 push	 ecx
  02bf9	0f b6 15 02 00
	00 00		 movzx	 edx, BYTE PTR ?ui_option_text_default_colour@@3UREAL_COLOUR@@A+2
  02c00	52		 push	 edx
  02c01	6a 14		 push	 20			; 00000014H
  02c03	6a 00		 push	 0
  02c05	0f b6 05 00 00
	00 00		 movzx	 eax, BYTE PTR ?ui_option_text_default_colour@@3UREAL_COLOUR@@A
  02c0c	50		 push	 eax
  02c0d	0f b6 0d 01 00
	00 00		 movzx	 ecx, BYTE PTR ?ui_option_text_default_colour@@3UREAL_COLOUR@@A+1
  02c14	51		 push	 ecx
  02c15	0f b6 15 02 00
	00 00		 movzx	 edx, BYTE PTR ?ui_option_text_default_colour@@3UREAL_COLOUR@@A+2
  02c1c	52		 push	 edx
  02c1d	6a 15		 push	 21			; 00000015H
  02c1f	68 00 00 00 00	 push	 OFFSET ??_C@_00CNPNBAHC@@
  02c24	6a 4a		 push	 74			; 0000004aH
  02c26	6a 01		 push	 1
  02c28	6a 4b		 push	 75			; 0000004bH
  02c2a	83 ec 08	 sub	 esp, 8
  02c2d	f2 0f 10 05 00
	00 00 00	 movsd	 xmm0, QWORD PTR __real@3fc24dd300000000
  02c35	f2 0f 11 04 24	 movsd	 QWORD PTR [esp], xmm0
  02c3a	8b 45 fc	 mov	 eax, DWORD PTR _i$[ebp]
  02c3d	8b 8c 85 38 ff
	ff ff		 mov	 ecx, DWORD PTR _change_array$[ebp+eax*4]
  02c44	51		 push	 ecx
  02c45	8b 55 fc	 mov	 edx, DWORD PTR _i$[ebp]
  02c48	8b 84 95 38 ff
	ff ff		 mov	 eax, DWORD PTR _change_array$[ebp+edx*4]
  02c4f	8b 08		 mov	 ecx, DWORD PTR [eax]
  02c51	8b 14 8d 00 00
	00 00		 mov	 edx, DWORD PTR ?fn_get_ui_object_x_end@@3PAP6GMPAUUI_OBJECT@@@ZA[ecx*4]
  02c58	ff d2		 call	 edx
  02c5a	d9 9d f4 fe ff
	ff		 fstp	 DWORD PTR tv4816[ebp]
  02c60	f3 0f 10 85 f4
	fe ff ff	 movss	 xmm0, DWORD PTR tv4816[ebp]
  02c68	f3 0f 58 05 00
	00 00 00	 addss	 xmm0, DWORD PTR __real@3c03126f
  02c70	f3 0f 5a c0	 cvtss2sd xmm0, xmm0
  02c74	83 ec 08	 sub	 esp, 8
  02c77	f2 0f 11 04 24	 movsd	 QWORD PTR [esp], xmm0
  02c7c	6a 58		 push	 88			; 00000058H
  02c7e	68 ff 00 00 00	 push	 255			; 000000ffH
  02c83	6a 2f		 push	 47			; 0000002fH
  02c85	6a 7c		 push	 124			; 0000007cH
  02c87	68 fe 00 00 00	 push	 254			; 000000feH
  02c8c	6a 13		 push	 19			; 00000013H
  02c8e	6a 02		 push	 2
  02c90	6a 12		 push	 18			; 00000012H
  02c92	a1 00 00 00 00	 mov	 eax, DWORD PTR ?eo_zoom_area@@3PAUUI_OBJECT@@A ; eo_zoom_area
  02c97	50		 push	 eax
  02c98	6a 32		 push	 50			; 00000032H
  02c9a	6a 05		 push	 5
  02c9c	e8 00 00 00 00	 call	 ?create_ui_object@@YAPAUUI_OBJECT@@HZZ ; create_ui_object
  02ca1	81 c4 c8 00 00
	00		 add	 esp, 200		; 000000c8H
  02ca7	a3 00 00 00 00	 mov	 DWORD PTR ?eo_zoom_option_button@@3PAUUI_OBJECT@@A, eax ; eo_zoom_option_button

; 1984 : 	(
; 1985 : 		UI_TYPE_TEXT,
; 1986 : 		UI_ATTR_PARENT (eo_zoom_area),
; 1987 : 		UI_ATTR_FONT_TYPE (/*UI_FONT_THICK_ITALIC_ARIAL_18*/UI_FONT_ITALIC_ARIAL_14),
; 1988 : 		UI_ATTR_FONT_COLOUR (254, 124, 47, 255),
; 1989 : 		UI_ATTR_VIRTUAL_POSITION (get_ui_object_x_end (change_array [i]) + OPTION_BUTTON_TEXT_OFFSET_X, OPTION_BOX_TEXT_OFFSET_Y),
; 1990 : 		UI_ATTR_TEXT_JUSTIFY (TEXT_JUSTIFY_LEFT_CENTRE),
; 1991 : 		UI_ATTR_TEXT (""),
; 1992 :       UI_ATTR_FONT_COLOUR_START (ui_option_text_default_colour.r, ui_option_text_default_colour.g, ui_option_text_default_colour.b, 0),
; 1993 :       UI_ATTR_FONT_COLOUR_END (ui_option_text_default_colour.r, ui_option_text_default_colour.g, ui_option_text_default_colour.b, 255),
; 1994 :       UI_ATTR_HIGHLIGHTED_FONT_COLOUR_START (ui_option_text_hilite_colour.r, ui_option_text_hilite_colour.g, ui_option_text_hilite_colour.b, 0),
; 1995 :       UI_ATTR_HIGHLIGHTED_FONT_COLOUR_END (ui_option_text_hilite_colour.r, ui_option_text_hilite_colour.g, ui_option_text_hilite_colour.b, 255),
; 1996 : 		UI_ATTR_HIGHLIGHTABLE (TRUE),
; 1997 : 		UI_ATTR_CLEAR (TRUE),
; 1998 : 		UI_ATTR_NOTIFY_ON (NOTIFY_TYPE_BUTTON_UP),
; 1999 : 		UI_ATTR_FUNCTION (notify_eo_zoom_option_button),
; 2000 : 		UI_ATTR_RIGHT_FUNCTION (notify_eo_zoom_option_button_right),	// Retro 28Aug2004
; 2001 : 		UI_ATTR_END
; 2002 : 	);
; 2003 : 
; 2004 : 	preprocess_translation_object_size (change_array [i], eo_zoom_option_button, option_pedal_text, 2, RESIZE_OPTION_CYCLE_BUTTON);

  02cac	6a 01		 push	 1
  02cae	6a 02		 push	 2
  02cb0	68 00 00 00 00	 push	 OFFSET ?option_pedal_text@@3PAPBDA
  02cb5	a1 00 00 00 00	 mov	 eax, DWORD PTR ?eo_zoom_option_button@@3PAUUI_OBJECT@@A ; eo_zoom_option_button
  02cba	50		 push	 eax
  02cbb	8b 4d fc	 mov	 ecx, DWORD PTR _i$[ebp]
  02cbe	8b 94 8d 38 ff
	ff ff		 mov	 edx, DWORD PTR _change_array$[ebp+ecx*4]
  02cc5	52		 push	 edx
  02cc6	e8 00 00 00 00	 call	 ?preprocess_translation_object_size@@YGXPAUUI_OBJECT@@0PAPBDHW4RESIZE_UI_OBJECT_TYPES@@@Z ; preprocess_translation_object_size

; 2005 : 	// Retro 10Jul2004 end
; 2006 : 
; 2007 : 	// Retro 10Jul2004
; 2008 : 	// joylook x button
; 2009 : 	
; 2010 : 	i++;

  02ccb	8b 45 fc	 mov	 eax, DWORD PTR _i$[ebp]
  02cce	83 c0 01	 add	 eax, 1
  02cd1	89 45 fc	 mov	 DWORD PTR _i$[ebp], eax

; 2011 : 
; 2012 : 	change_array[i] = create_ui_object

  02cd4	6a 11		 push	 17			; 00000011H
  02cd6	a1 00 00 00 00	 mov	 eax, DWORD PTR ?options_box_large@@3PAUTEXTURE_GRAPHIC@@A ; options_box_large
  02cdb	50		 push	 eax
  02cdc	6a 4c		 push	 76			; 0000004cH
  02cde	68 ff 00 00 00	 push	 255			; 000000ffH
  02ce3	68 ff 00 00 00	 push	 255			; 000000ffH
  02ce8	68 ff 00 00 00	 push	 255			; 000000ffH
  02ced	68 ff 00 00 00	 push	 255			; 000000ffH
  02cf2	6a 0a		 push	 10			; 0000000aH
  02cf4	6a 00		 push	 0
  02cf6	68 ff 00 00 00	 push	 255			; 000000ffH
  02cfb	68 ff 00 00 00	 push	 255			; 000000ffH
  02d00	68 ff 00 00 00	 push	 255			; 000000ffH
  02d05	6a 0b		 push	 11			; 0000000bH
  02d07	83 ec 08	 sub	 esp, 8
  02d0a	f2 0f 10 05 00
	00 00 00	 movsd	 xmm0, QWORD PTR __real@3ff0000000000000
  02d12	f2 0f 11 04 24	 movsd	 QWORD PTR [esp], xmm0
  02d17	83 ec 08	 sub	 esp, 8
  02d1a	f2 0f 10 05 00
	00 00 00	 movsd	 xmm0, QWORD PTR __real@3fdcccccc0000000
  02d22	f2 0f 11 04 24	 movsd	 QWORD PTR [esp], xmm0
  02d27	6a 59		 push	 89			; 00000059H
  02d29	83 ec 08	 sub	 esp, 8
  02d2c	0f 57 c0	 xorps	 xmm0, xmm0
  02d2f	f2 0f 11 04 24	 movsd	 QWORD PTR [esp], xmm0
  02d34	8b 4d fc	 mov	 ecx, DWORD PTR _i$[ebp]
  02d37	8b 54 8d ac	 mov	 edx, DWORD PTR _title_change_array$[ebp+ecx*4]
  02d3b	52		 push	 edx
  02d3c	8b 45 fc	 mov	 eax, DWORD PTR _i$[ebp]
  02d3f	8b 4c 85 ac	 mov	 ecx, DWORD PTR _title_change_array$[ebp+eax*4]
  02d43	8b 11		 mov	 edx, DWORD PTR [ecx]
  02d45	8b 04 95 00 00
	00 00		 mov	 eax, DWORD PTR ?fn_get_ui_object_x_end@@3PAP6GMPAUUI_OBJECT@@@ZA[edx*4]
  02d4c	ff d0		 call	 eax
  02d4e	d9 9d f4 fe ff
	ff		 fstp	 DWORD PTR tv4833[ebp]
  02d54	f3 0f 10 85 f4
	fe ff ff	 movss	 xmm0, DWORD PTR tv4833[ebp]
  02d5c	8b 4d fc	 mov	 ecx, DWORD PTR _i$[ebp]
  02d5f	8b 54 8d ac	 mov	 edx, DWORD PTR _title_change_array$[ebp+ecx*4]
  02d63	52		 push	 edx
  02d64	8b 45 fc	 mov	 eax, DWORD PTR _i$[ebp]
  02d67	8b 4c 85 ac	 mov	 ecx, DWORD PTR _title_change_array$[ebp+eax*4]
  02d6b	8b 11		 mov	 edx, DWORD PTR [ecx]
  02d6d	8b 04 95 00 00
	00 00		 mov	 eax, DWORD PTR ?fn_get_ui_object_x_size_end@@3PAP6GMPAUUI_OBJECT@@@ZA[edx*4]
  02d74	f3 0f 11 85 f0
	fe ff ff	 movss	 DWORD PTR tv5213[ebp], xmm0
  02d7c	ff d0		 call	 eax
  02d7e	d9 9d ec fe ff
	ff		 fstp	 DWORD PTR tv4841[ebp]
  02d84	f3 0f 10 85 f0
	fe ff ff	 movss	 xmm0, DWORD PTR tv5213[ebp]
  02d8c	f3 0f 58 85 ec
	fe ff ff	 addss	 xmm0, DWORD PTR tv4841[ebp]
  02d94	f3 0f 58 05 00
	00 00 00	 addss	 xmm0, DWORD PTR __real@3b2a64c3
  02d9c	f3 0f 5a c0	 cvtss2sd xmm0, xmm0
  02da0	83 ec 08	 sub	 esp, 8
  02da3	f2 0f 11 04 24	 movsd	 QWORD PTR [esp], xmm0
  02da8	6a 58		 push	 88			; 00000058H
  02daa	8b 0d 00 00 00
	00		 mov	 ecx, DWORD PTR ?joylook_x_area@@3PAUUI_OBJECT@@A ; joylook_x_area
  02db0	51		 push	 ecx
  02db1	6a 32		 push	 50			; 00000032H
  02db3	6a 01		 push	 1
  02db5	e8 00 00 00 00	 call	 ?create_ui_object@@YAPAUUI_OBJECT@@HZZ ; create_ui_object
  02dba	83 c4 68	 add	 esp, 104		; 00000068H
  02dbd	8b 55 fc	 mov	 edx, DWORD PTR _i$[ebp]
  02dc0	89 84 95 38 ff
	ff ff		 mov	 DWORD PTR _change_array$[ebp+edx*4], eax

; 2013 : 	(
; 2014 : 		UI_TYPE_AREA,
; 2015 : 		UI_ATTR_PARENT (joylook_x_area),
; 2016 : 		UI_ATTR_VIRTUAL_POSITION ((get_ui_object_x_end (title_change_array [i]) + get_ui_object_x_size_end (title_change_array [i]) + OPTION_BOX_GAP_WIDTH), 0.0),
; 2017 : 		UI_ATTR_VIRTUAL_SIZE (OPTION_BOX_EXTRA_LARGE_WIDTH, OPTION_BOX_HEIGHT),
; 2018 : 		UI_ATTR_COLOUR_START (255, 255, 255, 0),
; 2019 : 		UI_ATTR_COLOUR_END (255, 255, 255, 255),
; 2020 : 		UI_ATTR_TEXTURE_GRAPHIC (options_box_large),
; 2021 : 		UI_ATTR_END
; 2022 : 	);
; 2023 : 
; 2024 :    joylook_x_option_button = create_ui_object

  02dc7	6a 11		 push	 17			; 00000011H
  02dc9	68 00 00 00 00	 push	 OFFSET ?notify_joylook_x_option_button_right@@YGXPAUUI_OBJECT@@PAX@Z ; notify_joylook_x_option_button_right
  02dce	6a 39		 push	 57			; 00000039H
  02dd0	68 00 00 00 00	 push	 OFFSET ?notify_joylook_x_option_button@@YGXPAUUI_OBJECT@@PAX@Z ; notify_joylook_x_option_button
  02dd5	6a 16		 push	 22			; 00000016H
  02dd7	6a 01		 push	 1
  02dd9	6a 2f		 push	 47			; 0000002fH
  02ddb	6a 01		 push	 1
  02ddd	6a 07		 push	 7
  02ddf	6a 01		 push	 1
  02de1	6a 1b		 push	 27			; 0000001bH
  02de3	68 ff 00 00 00	 push	 255			; 000000ffH
  02de8	0f b6 05 00 00
	00 00		 movzx	 eax, BYTE PTR ?ui_option_text_hilite_colour@@3UREAL_COLOUR@@A
  02def	50		 push	 eax
  02df0	0f b6 0d 01 00
	00 00		 movzx	 ecx, BYTE PTR ?ui_option_text_hilite_colour@@3UREAL_COLOUR@@A+1
  02df7	51		 push	 ecx
  02df8	0f b6 15 02 00
	00 00		 movzx	 edx, BYTE PTR ?ui_option_text_hilite_colour@@3UREAL_COLOUR@@A+2
  02dff	52		 push	 edx
  02e00	6a 22		 push	 34			; 00000022H
  02e02	6a 00		 push	 0
  02e04	0f b6 05 00 00
	00 00		 movzx	 eax, BYTE PTR ?ui_option_text_hilite_colour@@3UREAL_COLOUR@@A
  02e0b	50		 push	 eax
  02e0c	0f b6 0d 01 00
	00 00		 movzx	 ecx, BYTE PTR ?ui_option_text_hilite_colour@@3UREAL_COLOUR@@A+1
  02e13	51		 push	 ecx
  02e14	0f b6 15 02 00
	00 00		 movzx	 edx, BYTE PTR ?ui_option_text_hilite_colour@@3UREAL_COLOUR@@A+2
  02e1b	52		 push	 edx
  02e1c	6a 23		 push	 35			; 00000023H
  02e1e	68 ff 00 00 00	 push	 255			; 000000ffH
  02e23	0f b6 05 00 00
	00 00		 movzx	 eax, BYTE PTR ?ui_option_text_default_colour@@3UREAL_COLOUR@@A
  02e2a	50		 push	 eax
  02e2b	0f b6 0d 01 00
	00 00		 movzx	 ecx, BYTE PTR ?ui_option_text_default_colour@@3UREAL_COLOUR@@A+1
  02e32	51		 push	 ecx
  02e33	0f b6 15 02 00
	00 00		 movzx	 edx, BYTE PTR ?ui_option_text_default_colour@@3UREAL_COLOUR@@A+2
  02e3a	52		 push	 edx
  02e3b	6a 14		 push	 20			; 00000014H
  02e3d	6a 00		 push	 0
  02e3f	0f b6 05 00 00
	00 00		 movzx	 eax, BYTE PTR ?ui_option_text_default_colour@@3UREAL_COLOUR@@A
  02e46	50		 push	 eax
  02e47	0f b6 0d 01 00
	00 00		 movzx	 ecx, BYTE PTR ?ui_option_text_default_colour@@3UREAL_COLOUR@@A+1
  02e4e	51		 push	 ecx
  02e4f	0f b6 15 02 00
	00 00		 movzx	 edx, BYTE PTR ?ui_option_text_default_colour@@3UREAL_COLOUR@@A+2
  02e56	52		 push	 edx
  02e57	6a 15		 push	 21			; 00000015H
  02e59	68 00 00 00 00	 push	 OFFSET ??_C@_00CNPNBAHC@@
  02e5e	6a 4a		 push	 74			; 0000004aH
  02e60	6a 01		 push	 1
  02e62	6a 4b		 push	 75			; 0000004bH
  02e64	83 ec 08	 sub	 esp, 8
  02e67	f2 0f 10 05 00
	00 00 00	 movsd	 xmm0, QWORD PTR __real@3fc24dd300000000
  02e6f	f2 0f 11 04 24	 movsd	 QWORD PTR [esp], xmm0
  02e74	8b 45 fc	 mov	 eax, DWORD PTR _i$[ebp]
  02e77	8b 8c 85 38 ff
	ff ff		 mov	 ecx, DWORD PTR _change_array$[ebp+eax*4]
  02e7e	51		 push	 ecx
  02e7f	8b 55 fc	 mov	 edx, DWORD PTR _i$[ebp]
  02e82	8b 84 95 38 ff
	ff ff		 mov	 eax, DWORD PTR _change_array$[ebp+edx*4]
  02e89	8b 08		 mov	 ecx, DWORD PTR [eax]
  02e8b	8b 14 8d 00 00
	00 00		 mov	 edx, DWORD PTR ?fn_get_ui_object_x_end@@3PAP6GMPAUUI_OBJECT@@@ZA[ecx*4]
  02e92	ff d2		 call	 edx
  02e94	d9 9d f4 fe ff
	ff		 fstp	 DWORD PTR tv4860[ebp]
  02e9a	f3 0f 10 85 f4
	fe ff ff	 movss	 xmm0, DWORD PTR tv4860[ebp]
  02ea2	f3 0f 58 05 00
	00 00 00	 addss	 xmm0, DWORD PTR __real@3c03126f
  02eaa	f3 0f 5a c0	 cvtss2sd xmm0, xmm0
  02eae	83 ec 08	 sub	 esp, 8
  02eb1	f2 0f 11 04 24	 movsd	 QWORD PTR [esp], xmm0
  02eb6	6a 58		 push	 88			; 00000058H
  02eb8	68 ff 00 00 00	 push	 255			; 000000ffH
  02ebd	6a 2f		 push	 47			; 0000002fH
  02ebf	6a 7c		 push	 124			; 0000007cH
  02ec1	68 fe 00 00 00	 push	 254			; 000000feH
  02ec6	6a 13		 push	 19			; 00000013H
  02ec8	6a 02		 push	 2
  02eca	6a 12		 push	 18			; 00000012H
  02ecc	a1 00 00 00 00	 mov	 eax, DWORD PTR ?joylook_x_area@@3PAUUI_OBJECT@@A ; joylook_x_area
  02ed1	50		 push	 eax
  02ed2	6a 32		 push	 50			; 00000032H
  02ed4	6a 05		 push	 5
  02ed6	e8 00 00 00 00	 call	 ?create_ui_object@@YAPAUUI_OBJECT@@HZZ ; create_ui_object
  02edb	81 c4 c8 00 00
	00		 add	 esp, 200		; 000000c8H
  02ee1	a3 00 00 00 00	 mov	 DWORD PTR ?joylook_x_option_button@@3PAUUI_OBJECT@@A, eax ; joylook_x_option_button

; 2025 : 	(
; 2026 : 		UI_TYPE_TEXT,
; 2027 : 		UI_ATTR_PARENT (joylook_x_area),
; 2028 : 		UI_ATTR_FONT_TYPE (/*UI_FONT_THICK_ITALIC_ARIAL_18*/UI_FONT_ITALIC_ARIAL_14),
; 2029 : 		UI_ATTR_FONT_COLOUR (254, 124, 47, 255),
; 2030 : 		UI_ATTR_VIRTUAL_POSITION (get_ui_object_x_end (change_array [i]) + OPTION_BUTTON_TEXT_OFFSET_X, OPTION_BOX_TEXT_OFFSET_Y),
; 2031 : 		UI_ATTR_TEXT_JUSTIFY (TEXT_JUSTIFY_LEFT_CENTRE),
; 2032 : 		UI_ATTR_TEXT (""),
; 2033 :       UI_ATTR_FONT_COLOUR_START (ui_option_text_default_colour.r, ui_option_text_default_colour.g, ui_option_text_default_colour.b, 0),
; 2034 :       UI_ATTR_FONT_COLOUR_END (ui_option_text_default_colour.r, ui_option_text_default_colour.g, ui_option_text_default_colour.b, 255),
; 2035 :       UI_ATTR_HIGHLIGHTED_FONT_COLOUR_START (ui_option_text_hilite_colour.r, ui_option_text_hilite_colour.g, ui_option_text_hilite_colour.b, 0),
; 2036 :       UI_ATTR_HIGHLIGHTED_FONT_COLOUR_END (ui_option_text_hilite_colour.r, ui_option_text_hilite_colour.g, ui_option_text_hilite_colour.b, 255),
; 2037 : 		UI_ATTR_HIGHLIGHTABLE (TRUE),
; 2038 : 		UI_ATTR_CLEAR (TRUE),
; 2039 : 		UI_ATTR_NOTIFY_ON (NOTIFY_TYPE_BUTTON_UP),
; 2040 : 		UI_ATTR_FUNCTION (notify_joylook_x_option_button),
; 2041 : 		UI_ATTR_RIGHT_FUNCTION (notify_joylook_x_option_button_right),	// Retro 28Aug2004
; 2042 : 		UI_ATTR_END
; 2043 : 	);
; 2044 : 
; 2045 : 	preprocess_translation_object_size (change_array [i], joylook_x_option_button, option_pedal_text, 2, RESIZE_OPTION_CYCLE_BUTTON);

  02ee6	6a 01		 push	 1
  02ee8	6a 02		 push	 2
  02eea	68 00 00 00 00	 push	 OFFSET ?option_pedal_text@@3PAPBDA
  02eef	a1 00 00 00 00	 mov	 eax, DWORD PTR ?joylook_x_option_button@@3PAUUI_OBJECT@@A ; joylook_x_option_button
  02ef4	50		 push	 eax
  02ef5	8b 4d fc	 mov	 ecx, DWORD PTR _i$[ebp]
  02ef8	8b 94 8d 38 ff
	ff ff		 mov	 edx, DWORD PTR _change_array$[ebp+ecx*4]
  02eff	52		 push	 edx
  02f00	e8 00 00 00 00	 call	 ?preprocess_translation_object_size@@YGXPAUUI_OBJECT@@0PAPBDHW4RESIZE_UI_OBJECT_TYPES@@@Z ; preprocess_translation_object_size

; 2046 : 	// Retro 10Jul2004 end
; 2047 : 
; 2048 : 	// Retro 10Jul2004
; 2049 : 	// joylook y button
; 2050 : 	
; 2051 : 	i++;

  02f05	8b 45 fc	 mov	 eax, DWORD PTR _i$[ebp]
  02f08	83 c0 01	 add	 eax, 1
  02f0b	89 45 fc	 mov	 DWORD PTR _i$[ebp], eax

; 2052 : 
; 2053 : 	change_array[i] = create_ui_object

  02f0e	6a 11		 push	 17			; 00000011H
  02f10	a1 00 00 00 00	 mov	 eax, DWORD PTR ?options_box_large@@3PAUTEXTURE_GRAPHIC@@A ; options_box_large
  02f15	50		 push	 eax
  02f16	6a 4c		 push	 76			; 0000004cH
  02f18	68 ff 00 00 00	 push	 255			; 000000ffH
  02f1d	68 ff 00 00 00	 push	 255			; 000000ffH
  02f22	68 ff 00 00 00	 push	 255			; 000000ffH
  02f27	68 ff 00 00 00	 push	 255			; 000000ffH
  02f2c	6a 0a		 push	 10			; 0000000aH
  02f2e	6a 00		 push	 0
  02f30	68 ff 00 00 00	 push	 255			; 000000ffH
  02f35	68 ff 00 00 00	 push	 255			; 000000ffH
  02f3a	68 ff 00 00 00	 push	 255			; 000000ffH
  02f3f	6a 0b		 push	 11			; 0000000bH
  02f41	83 ec 08	 sub	 esp, 8
  02f44	f2 0f 10 05 00
	00 00 00	 movsd	 xmm0, QWORD PTR __real@3ff0000000000000
  02f4c	f2 0f 11 04 24	 movsd	 QWORD PTR [esp], xmm0
  02f51	83 ec 08	 sub	 esp, 8
  02f54	f2 0f 10 05 00
	00 00 00	 movsd	 xmm0, QWORD PTR __real@3fdcccccc0000000
  02f5c	f2 0f 11 04 24	 movsd	 QWORD PTR [esp], xmm0
  02f61	6a 59		 push	 89			; 00000059H
  02f63	83 ec 08	 sub	 esp, 8
  02f66	0f 57 c0	 xorps	 xmm0, xmm0
  02f69	f2 0f 11 04 24	 movsd	 QWORD PTR [esp], xmm0
  02f6e	8b 4d fc	 mov	 ecx, DWORD PTR _i$[ebp]
  02f71	8b 54 8d ac	 mov	 edx, DWORD PTR _title_change_array$[ebp+ecx*4]
  02f75	52		 push	 edx
  02f76	8b 45 fc	 mov	 eax, DWORD PTR _i$[ebp]
  02f79	8b 4c 85 ac	 mov	 ecx, DWORD PTR _title_change_array$[ebp+eax*4]
  02f7d	8b 11		 mov	 edx, DWORD PTR [ecx]
  02f7f	8b 04 95 00 00
	00 00		 mov	 eax, DWORD PTR ?fn_get_ui_object_x_end@@3PAP6GMPAUUI_OBJECT@@@ZA[edx*4]
  02f86	ff d0		 call	 eax
  02f88	d9 9d f4 fe ff
	ff		 fstp	 DWORD PTR tv4877[ebp]
  02f8e	f3 0f 10 85 f4
	fe ff ff	 movss	 xmm0, DWORD PTR tv4877[ebp]
  02f96	8b 4d fc	 mov	 ecx, DWORD PTR _i$[ebp]
  02f99	8b 54 8d ac	 mov	 edx, DWORD PTR _title_change_array$[ebp+ecx*4]
  02f9d	52		 push	 edx
  02f9e	8b 45 fc	 mov	 eax, DWORD PTR _i$[ebp]
  02fa1	8b 4c 85 ac	 mov	 ecx, DWORD PTR _title_change_array$[ebp+eax*4]
  02fa5	8b 11		 mov	 edx, DWORD PTR [ecx]
  02fa7	8b 04 95 00 00
	00 00		 mov	 eax, DWORD PTR ?fn_get_ui_object_x_size_end@@3PAP6GMPAUUI_OBJECT@@@ZA[edx*4]
  02fae	f3 0f 11 85 f0
	fe ff ff	 movss	 DWORD PTR tv5215[ebp], xmm0
  02fb6	ff d0		 call	 eax
  02fb8	d9 9d ec fe ff
	ff		 fstp	 DWORD PTR tv4885[ebp]
  02fbe	f3 0f 10 85 f0
	fe ff ff	 movss	 xmm0, DWORD PTR tv5215[ebp]
  02fc6	f3 0f 58 85 ec
	fe ff ff	 addss	 xmm0, DWORD PTR tv4885[ebp]
  02fce	f3 0f 58 05 00
	00 00 00	 addss	 xmm0, DWORD PTR __real@3b2a64c3
  02fd6	f3 0f 5a c0	 cvtss2sd xmm0, xmm0
  02fda	83 ec 08	 sub	 esp, 8
  02fdd	f2 0f 11 04 24	 movsd	 QWORD PTR [esp], xmm0
  02fe2	6a 58		 push	 88			; 00000058H
  02fe4	8b 0d 00 00 00
	00		 mov	 ecx, DWORD PTR ?joylook_y_area@@3PAUUI_OBJECT@@A ; joylook_y_area
  02fea	51		 push	 ecx
  02feb	6a 32		 push	 50			; 00000032H
  02fed	6a 01		 push	 1
  02fef	e8 00 00 00 00	 call	 ?create_ui_object@@YAPAUUI_OBJECT@@HZZ ; create_ui_object
  02ff4	83 c4 68	 add	 esp, 104		; 00000068H
  02ff7	8b 55 fc	 mov	 edx, DWORD PTR _i$[ebp]
  02ffa	89 84 95 38 ff
	ff ff		 mov	 DWORD PTR _change_array$[ebp+edx*4], eax

; 2054 : 	(
; 2055 : 		UI_TYPE_AREA,
; 2056 : 		UI_ATTR_PARENT (joylook_y_area),
; 2057 : 		UI_ATTR_VIRTUAL_POSITION ((get_ui_object_x_end (title_change_array [i]) + get_ui_object_x_size_end (title_change_array [i]) + OPTION_BOX_GAP_WIDTH), 0.0),
; 2058 : 		UI_ATTR_VIRTUAL_SIZE (OPTION_BOX_EXTRA_LARGE_WIDTH, OPTION_BOX_HEIGHT),
; 2059 : 		UI_ATTR_COLOUR_START (255, 255, 255, 0),
; 2060 : 		UI_ATTR_COLOUR_END (255, 255, 255, 255),
; 2061 : 		UI_ATTR_TEXTURE_GRAPHIC (options_box_large),
; 2062 : 		UI_ATTR_END
; 2063 : 	);
; 2064 : 
; 2065 :    joylook_y_option_button = create_ui_object

  03001	6a 11		 push	 17			; 00000011H
  03003	68 00 00 00 00	 push	 OFFSET ?notify_joylook_y_option_button_right@@YGXPAUUI_OBJECT@@PAX@Z ; notify_joylook_y_option_button_right
  03008	6a 39		 push	 57			; 00000039H
  0300a	68 00 00 00 00	 push	 OFFSET ?notify_joylook_y_option_button@@YGXPAUUI_OBJECT@@PAX@Z ; notify_joylook_y_option_button
  0300f	6a 16		 push	 22			; 00000016H
  03011	6a 01		 push	 1
  03013	6a 2f		 push	 47			; 0000002fH
  03015	6a 01		 push	 1
  03017	6a 07		 push	 7
  03019	6a 01		 push	 1
  0301b	6a 1b		 push	 27			; 0000001bH
  0301d	68 ff 00 00 00	 push	 255			; 000000ffH
  03022	0f b6 05 00 00
	00 00		 movzx	 eax, BYTE PTR ?ui_option_text_hilite_colour@@3UREAL_COLOUR@@A
  03029	50		 push	 eax
  0302a	0f b6 0d 01 00
	00 00		 movzx	 ecx, BYTE PTR ?ui_option_text_hilite_colour@@3UREAL_COLOUR@@A+1
  03031	51		 push	 ecx
  03032	0f b6 15 02 00
	00 00		 movzx	 edx, BYTE PTR ?ui_option_text_hilite_colour@@3UREAL_COLOUR@@A+2
  03039	52		 push	 edx
  0303a	6a 22		 push	 34			; 00000022H
  0303c	6a 00		 push	 0
  0303e	0f b6 05 00 00
	00 00		 movzx	 eax, BYTE PTR ?ui_option_text_hilite_colour@@3UREAL_COLOUR@@A
  03045	50		 push	 eax
  03046	0f b6 0d 01 00
	00 00		 movzx	 ecx, BYTE PTR ?ui_option_text_hilite_colour@@3UREAL_COLOUR@@A+1
  0304d	51		 push	 ecx
  0304e	0f b6 15 02 00
	00 00		 movzx	 edx, BYTE PTR ?ui_option_text_hilite_colour@@3UREAL_COLOUR@@A+2
  03055	52		 push	 edx
  03056	6a 23		 push	 35			; 00000023H
  03058	68 ff 00 00 00	 push	 255			; 000000ffH
  0305d	0f b6 05 00 00
	00 00		 movzx	 eax, BYTE PTR ?ui_option_text_default_colour@@3UREAL_COLOUR@@A
  03064	50		 push	 eax
  03065	0f b6 0d 01 00
	00 00		 movzx	 ecx, BYTE PTR ?ui_option_text_default_colour@@3UREAL_COLOUR@@A+1
  0306c	51		 push	 ecx
  0306d	0f b6 15 02 00
	00 00		 movzx	 edx, BYTE PTR ?ui_option_text_default_colour@@3UREAL_COLOUR@@A+2
  03074	52		 push	 edx
  03075	6a 14		 push	 20			; 00000014H
  03077	6a 00		 push	 0
  03079	0f b6 05 00 00
	00 00		 movzx	 eax, BYTE PTR ?ui_option_text_default_colour@@3UREAL_COLOUR@@A
  03080	50		 push	 eax
  03081	0f b6 0d 01 00
	00 00		 movzx	 ecx, BYTE PTR ?ui_option_text_default_colour@@3UREAL_COLOUR@@A+1
  03088	51		 push	 ecx
  03089	0f b6 15 02 00
	00 00		 movzx	 edx, BYTE PTR ?ui_option_text_default_colour@@3UREAL_COLOUR@@A+2
  03090	52		 push	 edx
  03091	6a 15		 push	 21			; 00000015H
  03093	68 00 00 00 00	 push	 OFFSET ??_C@_00CNPNBAHC@@
  03098	6a 4a		 push	 74			; 0000004aH
  0309a	6a 01		 push	 1
  0309c	6a 4b		 push	 75			; 0000004bH
  0309e	83 ec 08	 sub	 esp, 8
  030a1	f2 0f 10 05 00
	00 00 00	 movsd	 xmm0, QWORD PTR __real@3fc24dd300000000
  030a9	f2 0f 11 04 24	 movsd	 QWORD PTR [esp], xmm0
  030ae	8b 45 fc	 mov	 eax, DWORD PTR _i$[ebp]
  030b1	8b 8c 85 38 ff
	ff ff		 mov	 ecx, DWORD PTR _change_array$[ebp+eax*4]
  030b8	51		 push	 ecx
  030b9	8b 55 fc	 mov	 edx, DWORD PTR _i$[ebp]
  030bc	8b 84 95 38 ff
	ff ff		 mov	 eax, DWORD PTR _change_array$[ebp+edx*4]
  030c3	8b 08		 mov	 ecx, DWORD PTR [eax]
  030c5	8b 14 8d 00 00
	00 00		 mov	 edx, DWORD PTR ?fn_get_ui_object_x_end@@3PAP6GMPAUUI_OBJECT@@@ZA[ecx*4]
  030cc	ff d2		 call	 edx
  030ce	d9 9d f4 fe ff
	ff		 fstp	 DWORD PTR tv4904[ebp]
  030d4	f3 0f 10 85 f4
	fe ff ff	 movss	 xmm0, DWORD PTR tv4904[ebp]
  030dc	f3 0f 58 05 00
	00 00 00	 addss	 xmm0, DWORD PTR __real@3c03126f
  030e4	f3 0f 5a c0	 cvtss2sd xmm0, xmm0
  030e8	83 ec 08	 sub	 esp, 8
  030eb	f2 0f 11 04 24	 movsd	 QWORD PTR [esp], xmm0
  030f0	6a 58		 push	 88			; 00000058H
  030f2	68 ff 00 00 00	 push	 255			; 000000ffH
  030f7	6a 2f		 push	 47			; 0000002fH
  030f9	6a 7c		 push	 124			; 0000007cH
  030fb	68 fe 00 00 00	 push	 254			; 000000feH
  03100	6a 13		 push	 19			; 00000013H
  03102	6a 02		 push	 2
  03104	6a 12		 push	 18			; 00000012H
  03106	a1 00 00 00 00	 mov	 eax, DWORD PTR ?joylook_y_area@@3PAUUI_OBJECT@@A ; joylook_y_area
  0310b	50		 push	 eax
  0310c	6a 32		 push	 50			; 00000032H
  0310e	6a 05		 push	 5
  03110	e8 00 00 00 00	 call	 ?create_ui_object@@YAPAUUI_OBJECT@@HZZ ; create_ui_object
  03115	81 c4 c8 00 00
	00		 add	 esp, 200		; 000000c8H
  0311b	a3 00 00 00 00	 mov	 DWORD PTR ?joylook_y_option_button@@3PAUUI_OBJECT@@A, eax ; joylook_y_option_button

; 2066 : 	(
; 2067 : 		UI_TYPE_TEXT,
; 2068 : 		UI_ATTR_PARENT (joylook_y_area),
; 2069 : 		UI_ATTR_FONT_TYPE (/*UI_FONT_THICK_ITALIC_ARIAL_18*/UI_FONT_ITALIC_ARIAL_14),
; 2070 : 		UI_ATTR_FONT_COLOUR (254, 124, 47, 255),
; 2071 : 		UI_ATTR_VIRTUAL_POSITION (get_ui_object_x_end (change_array [i]) + OPTION_BUTTON_TEXT_OFFSET_X, OPTION_BOX_TEXT_OFFSET_Y),
; 2072 : 		UI_ATTR_TEXT_JUSTIFY (TEXT_JUSTIFY_LEFT_CENTRE),
; 2073 : 		UI_ATTR_TEXT (""),
; 2074 :       UI_ATTR_FONT_COLOUR_START (ui_option_text_default_colour.r, ui_option_text_default_colour.g, ui_option_text_default_colour.b, 0),
; 2075 :       UI_ATTR_FONT_COLOUR_END (ui_option_text_default_colour.r, ui_option_text_default_colour.g, ui_option_text_default_colour.b, 255),
; 2076 :       UI_ATTR_HIGHLIGHTED_FONT_COLOUR_START (ui_option_text_hilite_colour.r, ui_option_text_hilite_colour.g, ui_option_text_hilite_colour.b, 0),
; 2077 :       UI_ATTR_HIGHLIGHTED_FONT_COLOUR_END (ui_option_text_hilite_colour.r, ui_option_text_hilite_colour.g, ui_option_text_hilite_colour.b, 255),
; 2078 : 		UI_ATTR_HIGHLIGHTABLE (TRUE),
; 2079 : 		UI_ATTR_CLEAR (TRUE),
; 2080 : 		UI_ATTR_NOTIFY_ON (NOTIFY_TYPE_BUTTON_UP),
; 2081 : 		UI_ATTR_FUNCTION (notify_joylook_y_option_button),
; 2082 : 		UI_ATTR_RIGHT_FUNCTION (notify_joylook_y_option_button_right),	// Retro 28Aug2004
; 2083 : 		UI_ATTR_END
; 2084 : 	);
; 2085 : 
; 2086 : 	preprocess_translation_object_size (change_array [i], joylook_y_option_button, option_pedal_text, 2, RESIZE_OPTION_CYCLE_BUTTON);

  03120	6a 01		 push	 1
  03122	6a 02		 push	 2
  03124	68 00 00 00 00	 push	 OFFSET ?option_pedal_text@@3PAPBDA
  03129	a1 00 00 00 00	 mov	 eax, DWORD PTR ?joylook_y_option_button@@3PAUUI_OBJECT@@A ; joylook_y_option_button
  0312e	50		 push	 eax
  0312f	8b 4d fc	 mov	 ecx, DWORD PTR _i$[ebp]
  03132	8b 94 8d 38 ff
	ff ff		 mov	 edx, DWORD PTR _change_array$[ebp+ecx*4]
  03139	52		 push	 edx
  0313a	e8 00 00 00 00	 call	 ?preprocess_translation_object_size@@YGXPAUUI_OBJECT@@0PAPBDHW4RESIZE_UI_OBJECT_TYPES@@@Z ; preprocess_translation_object_size

; 2087 : 	// Retro 10Jul2004 end
; 2088 : 
; 2089 : 	//reverse throttle button
; 2090 : 	
; 2091 : 	i++;

  0313f	8b 45 fc	 mov	 eax, DWORD PTR _i$[ebp]
  03142	83 c0 01	 add	 eax, 1
  03145	89 45 fc	 mov	 DWORD PTR _i$[ebp], eax

; 2092 : 
; 2093 : 	change_array[i] = create_ui_object

  03148	6a 11		 push	 17			; 00000011H
  0314a	a1 00 00 00 00	 mov	 eax, DWORD PTR ?options_box_small@@3PAUTEXTURE_GRAPHIC@@A ; options_box_small
  0314f	50		 push	 eax
  03150	6a 4c		 push	 76			; 0000004cH
  03152	68 ff 00 00 00	 push	 255			; 000000ffH
  03157	68 ff 00 00 00	 push	 255			; 000000ffH
  0315c	68 ff 00 00 00	 push	 255			; 000000ffH
  03161	68 ff 00 00 00	 push	 255			; 000000ffH
  03166	6a 0a		 push	 10			; 0000000aH
  03168	6a 00		 push	 0
  0316a	68 ff 00 00 00	 push	 255			; 000000ffH
  0316f	68 ff 00 00 00	 push	 255			; 000000ffH
  03174	68 ff 00 00 00	 push	 255			; 000000ffH
  03179	6a 0b		 push	 11			; 0000000bH
  0317b	83 ec 08	 sub	 esp, 8
  0317e	f2 0f 10 05 00
	00 00 00	 movsd	 xmm0, QWORD PTR __real@3ff0000000000000
  03186	f2 0f 11 04 24	 movsd	 QWORD PTR [esp], xmm0
  0318b	83 ec 08	 sub	 esp, 8
  0318e	f2 0f 10 05 00
	00 00 00	 movsd	 xmm0, QWORD PTR __real@3fbba5e360000000
  03196	f2 0f 11 04 24	 movsd	 QWORD PTR [esp], xmm0
  0319b	6a 59		 push	 89			; 00000059H
  0319d	83 ec 08	 sub	 esp, 8
  031a0	0f 57 c0	 xorps	 xmm0, xmm0
  031a3	f2 0f 11 04 24	 movsd	 QWORD PTR [esp], xmm0
  031a8	8b 4d fc	 mov	 ecx, DWORD PTR _i$[ebp]
  031ab	8b 54 8d ac	 mov	 edx, DWORD PTR _title_change_array$[ebp+ecx*4]
  031af	52		 push	 edx
  031b0	8b 45 fc	 mov	 eax, DWORD PTR _i$[ebp]
  031b3	8b 4c 85 ac	 mov	 ecx, DWORD PTR _title_change_array$[ebp+eax*4]
  031b7	8b 11		 mov	 edx, DWORD PTR [ecx]
  031b9	8b 04 95 00 00
	00 00		 mov	 eax, DWORD PTR ?fn_get_ui_object_x_end@@3PAP6GMPAUUI_OBJECT@@@ZA[edx*4]
  031c0	ff d0		 call	 eax
  031c2	d9 9d f4 fe ff
	ff		 fstp	 DWORD PTR tv4921[ebp]
  031c8	f3 0f 10 85 f4
	fe ff ff	 movss	 xmm0, DWORD PTR tv4921[ebp]
  031d0	8b 4d fc	 mov	 ecx, DWORD PTR _i$[ebp]
  031d3	8b 54 8d ac	 mov	 edx, DWORD PTR _title_change_array$[ebp+ecx*4]
  031d7	52		 push	 edx
  031d8	8b 45 fc	 mov	 eax, DWORD PTR _i$[ebp]
  031db	8b 4c 85 ac	 mov	 ecx, DWORD PTR _title_change_array$[ebp+eax*4]
  031df	8b 11		 mov	 edx, DWORD PTR [ecx]
  031e1	8b 04 95 00 00
	00 00		 mov	 eax, DWORD PTR ?fn_get_ui_object_x_size_end@@3PAP6GMPAUUI_OBJECT@@@ZA[edx*4]
  031e8	f3 0f 11 85 f0
	fe ff ff	 movss	 DWORD PTR tv5281[ebp], xmm0
  031f0	ff d0		 call	 eax
  031f2	d9 9d ec fe ff
	ff		 fstp	 DWORD PTR tv4929[ebp]
  031f8	f3 0f 10 85 f0
	fe ff ff	 movss	 xmm0, DWORD PTR tv5281[ebp]
  03200	f3 0f 58 85 ec
	fe ff ff	 addss	 xmm0, DWORD PTR tv4929[ebp]
  03208	f3 0f 58 05 00
	00 00 00	 addss	 xmm0, DWORD PTR __real@3b2a64c3
  03210	f3 0f 5a c0	 cvtss2sd xmm0, xmm0
  03214	83 ec 08	 sub	 esp, 8
  03217	f2 0f 11 04 24	 movsd	 QWORD PTR [esp], xmm0
  0321c	6a 58		 push	 88			; 00000058H
  0321e	8b 0d 00 00 00
	00		 mov	 ecx, DWORD PTR ?reverse_throttle_area@@3PAUUI_OBJECT@@A ; reverse_throttle_area
  03224	51		 push	 ecx
  03225	6a 32		 push	 50			; 00000032H
  03227	6a 01		 push	 1
  03229	e8 00 00 00 00	 call	 ?create_ui_object@@YAPAUUI_OBJECT@@HZZ ; create_ui_object
  0322e	83 c4 68	 add	 esp, 104		; 00000068H
  03231	8b 55 fc	 mov	 edx, DWORD PTR _i$[ebp]
  03234	89 84 95 38 ff
	ff ff		 mov	 DWORD PTR _change_array$[ebp+edx*4], eax

; 2094 : 	(
; 2095 : 		UI_TYPE_AREA,
; 2096 : 		UI_ATTR_PARENT (reverse_throttle_area),
; 2097 : 		UI_ATTR_VIRTUAL_POSITION ((get_ui_object_x_end (title_change_array [i]) + get_ui_object_x_size_end (title_change_array [i]) + OPTION_BOX_GAP_WIDTH), 0.0),
; 2098 : 		UI_ATTR_VIRTUAL_SIZE (OPTION_BOX_SMALL_WIDTH, OPTION_BOX_HEIGHT),
; 2099 : 		UI_ATTR_COLOUR_START (255, 255, 255, 0),
; 2100 : 		UI_ATTR_COLOUR_END (255, 255, 255, 255),
; 2101 : 		UI_ATTR_TEXTURE_GRAPHIC (options_box_small),
; 2102 : 		UI_ATTR_END
; 2103 : 	);
; 2104 : 
; 2105 :    reverse_throttle_button = create_ui_object

  0323b	6a 11		 push	 17			; 00000011H
  0323d	68 00 00 00 00	 push	 OFFSET ?notify_reverse_throttle_option_button@@YGXPAUUI_OBJECT@@PAX@Z ; notify_reverse_throttle_option_button
  03242	6a 16		 push	 22			; 00000016H
  03244	6a 01		 push	 1
  03246	6a 2f		 push	 47			; 0000002fH
  03248	6a 01		 push	 1
  0324a	6a 07		 push	 7
  0324c	6a 01		 push	 1
  0324e	6a 1b		 push	 27			; 0000001bH
  03250	68 ff 00 00 00	 push	 255			; 000000ffH
  03255	0f b6 05 00 00
	00 00		 movzx	 eax, BYTE PTR ?ui_option_text_hilite_colour@@3UREAL_COLOUR@@A
  0325c	50		 push	 eax
  0325d	0f b6 0d 01 00
	00 00		 movzx	 ecx, BYTE PTR ?ui_option_text_hilite_colour@@3UREAL_COLOUR@@A+1
  03264	51		 push	 ecx
  03265	0f b6 15 02 00
	00 00		 movzx	 edx, BYTE PTR ?ui_option_text_hilite_colour@@3UREAL_COLOUR@@A+2
  0326c	52		 push	 edx
  0326d	6a 22		 push	 34			; 00000022H
  0326f	6a 00		 push	 0
  03271	0f b6 05 00 00
	00 00		 movzx	 eax, BYTE PTR ?ui_option_text_hilite_colour@@3UREAL_COLOUR@@A
  03278	50		 push	 eax
  03279	0f b6 0d 01 00
	00 00		 movzx	 ecx, BYTE PTR ?ui_option_text_hilite_colour@@3UREAL_COLOUR@@A+1
  03280	51		 push	 ecx
  03281	0f b6 15 02 00
	00 00		 movzx	 edx, BYTE PTR ?ui_option_text_hilite_colour@@3UREAL_COLOUR@@A+2
  03288	52		 push	 edx
  03289	6a 23		 push	 35			; 00000023H
  0328b	68 ff 00 00 00	 push	 255			; 000000ffH
  03290	0f b6 05 00 00
	00 00		 movzx	 eax, BYTE PTR ?ui_option_text_default_colour@@3UREAL_COLOUR@@A
  03297	50		 push	 eax
  03298	0f b6 0d 01 00
	00 00		 movzx	 ecx, BYTE PTR ?ui_option_text_default_colour@@3UREAL_COLOUR@@A+1
  0329f	51		 push	 ecx
  032a0	0f b6 15 02 00
	00 00		 movzx	 edx, BYTE PTR ?ui_option_text_default_colour@@3UREAL_COLOUR@@A+2
  032a7	52		 push	 edx
  032a8	6a 14		 push	 20			; 00000014H
  032aa	6a 00		 push	 0
  032ac	0f b6 05 00 00
	00 00		 movzx	 eax, BYTE PTR ?ui_option_text_default_colour@@3UREAL_COLOUR@@A
  032b3	50		 push	 eax
  032b4	0f b6 0d 01 00
	00 00		 movzx	 ecx, BYTE PTR ?ui_option_text_default_colour@@3UREAL_COLOUR@@A+1
  032bb	51		 push	 ecx
  032bc	0f b6 15 02 00
	00 00		 movzx	 edx, BYTE PTR ?ui_option_text_default_colour@@3UREAL_COLOUR@@A+2
  032c3	52		 push	 edx
  032c4	6a 15		 push	 21			; 00000015H
  032c6	68 00 00 00 00	 push	 OFFSET ??_C@_00CNPNBAHC@@
  032cb	6a 4a		 push	 74			; 0000004aH
  032cd	6a 01		 push	 1
  032cf	6a 4b		 push	 75			; 0000004bH
  032d1	83 ec 08	 sub	 esp, 8
  032d4	f2 0f 10 05 00
	00 00 00	 movsd	 xmm0, QWORD PTR __real@3fc24dd300000000
  032dc	f2 0f 11 04 24	 movsd	 QWORD PTR [esp], xmm0
  032e1	8b 45 fc	 mov	 eax, DWORD PTR _i$[ebp]
  032e4	8b 8c 85 38 ff
	ff ff		 mov	 ecx, DWORD PTR _change_array$[ebp+eax*4]
  032eb	51		 push	 ecx
  032ec	8b 55 fc	 mov	 edx, DWORD PTR _i$[ebp]
  032ef	8b 84 95 38 ff
	ff ff		 mov	 eax, DWORD PTR _change_array$[ebp+edx*4]
  032f6	8b 08		 mov	 ecx, DWORD PTR [eax]
  032f8	8b 14 8d 00 00
	00 00		 mov	 edx, DWORD PTR ?fn_get_ui_object_x_end@@3PAP6GMPAUUI_OBJECT@@@ZA[ecx*4]
  032ff	ff d2		 call	 edx
  03301	d9 9d f4 fe ff
	ff		 fstp	 DWORD PTR tv4948[ebp]
  03307	f3 0f 10 85 f4
	fe ff ff	 movss	 xmm0, DWORD PTR tv4948[ebp]
  0330f	f3 0f 58 05 00
	00 00 00	 addss	 xmm0, DWORD PTR __real@3c03126f
  03317	f3 0f 5a c0	 cvtss2sd xmm0, xmm0
  0331b	83 ec 08	 sub	 esp, 8
  0331e	f2 0f 11 04 24	 movsd	 QWORD PTR [esp], xmm0
  03323	6a 58		 push	 88			; 00000058H
  03325	68 ff 00 00 00	 push	 255			; 000000ffH
  0332a	6a 2f		 push	 47			; 0000002fH
  0332c	6a 7c		 push	 124			; 0000007cH
  0332e	68 fe 00 00 00	 push	 254			; 000000feH
  03333	6a 13		 push	 19			; 00000013H
  03335	6a 02		 push	 2
  03337	6a 12		 push	 18			; 00000012H
  03339	a1 00 00 00 00	 mov	 eax, DWORD PTR ?reverse_throttle_area@@3PAUUI_OBJECT@@A ; reverse_throttle_area
  0333e	50		 push	 eax
  0333f	6a 32		 push	 50			; 00000032H
  03341	6a 05		 push	 5
  03343	e8 00 00 00 00	 call	 ?create_ui_object@@YAPAUUI_OBJECT@@HZZ ; create_ui_object
  03348	81 c4 c0 00 00
	00		 add	 esp, 192		; 000000c0H
  0334e	a3 00 00 00 00	 mov	 DWORD PTR ?reverse_throttle_button@@3PAUUI_OBJECT@@A, eax ; reverse_throttle_button

; 2106 : 	(
; 2107 : 		UI_TYPE_TEXT,
; 2108 : 		UI_ATTR_PARENT (reverse_throttle_area),
; 2109 : 		UI_ATTR_FONT_TYPE (/*UI_FONT_THICK_ITALIC_ARIAL_18*/UI_FONT_ITALIC_ARIAL_14),
; 2110 : 		UI_ATTR_FONT_COLOUR (254, 124, 47, 255),
; 2111 : 		UI_ATTR_VIRTUAL_POSITION (get_ui_object_x_end (change_array [i]) + OPTION_BUTTON_TEXT_OFFSET_X, OPTION_BOX_TEXT_OFFSET_Y),
; 2112 : 		UI_ATTR_TEXT_JUSTIFY (TEXT_JUSTIFY_LEFT_CENTRE),
; 2113 : 		UI_ATTR_TEXT (""),
; 2114 :       UI_ATTR_FONT_COLOUR_START (ui_option_text_default_colour.r, ui_option_text_default_colour.g, ui_option_text_default_colour.b, 0),
; 2115 :       UI_ATTR_FONT_COLOUR_END (ui_option_text_default_colour.r, ui_option_text_default_colour.g, ui_option_text_default_colour.b, 255),
; 2116 :       UI_ATTR_HIGHLIGHTED_FONT_COLOUR_START (ui_option_text_hilite_colour.r, ui_option_text_hilite_colour.g, ui_option_text_hilite_colour.b, 0),
; 2117 :       UI_ATTR_HIGHLIGHTED_FONT_COLOUR_END (ui_option_text_hilite_colour.r, ui_option_text_hilite_colour.g, ui_option_text_hilite_colour.b, 255),
; 2118 : 		UI_ATTR_HIGHLIGHTABLE (TRUE),
; 2119 : 		UI_ATTR_CLEAR (TRUE),
; 2120 : 		UI_ATTR_NOTIFY_ON (NOTIFY_TYPE_BUTTON_UP),
; 2121 : 		UI_ATTR_FUNCTION (notify_reverse_throttle_option_button),
; 2122 : 		UI_ATTR_END
; 2123 : 	);
; 2124 : 
; 2125 : 	preprocess_translation_object_size (change_array [i], reverse_throttle_button, option_boolean_text, 2, RESIZE_OPTION_CYCLE_BUTTON);

  03353	6a 01		 push	 1
  03355	6a 02		 push	 2
  03357	68 00 00 00 00	 push	 OFFSET ?option_boolean_text@@3PAPBDA
  0335c	a1 00 00 00 00	 mov	 eax, DWORD PTR ?reverse_throttle_button@@3PAUUI_OBJECT@@A ; reverse_throttle_button
  03361	50		 push	 eax
  03362	8b 4d fc	 mov	 ecx, DWORD PTR _i$[ebp]
  03365	8b 94 8d 38 ff
	ff ff		 mov	 edx, DWORD PTR _change_array$[ebp+ecx*4]
  0336c	52		 push	 edx
  0336d	e8 00 00 00 00	 call	 ?preprocess_translation_object_size@@YGXPAUUI_OBJECT@@0PAPBDHW4RESIZE_UI_OBJECT_TYPES@@@Z ; preprocess_translation_object_size

; 2126 : 
; 2127 : 	// Retro 17Jul2004
; 2128 : 	// reverse pedal button
; 2129 : 	
; 2130 : 	i++;

  03372	8b 45 fc	 mov	 eax, DWORD PTR _i$[ebp]
  03375	83 c0 01	 add	 eax, 1
  03378	89 45 fc	 mov	 DWORD PTR _i$[ebp], eax

; 2131 : 
; 2132 : 	change_array[i] = create_ui_object

  0337b	6a 11		 push	 17			; 00000011H
  0337d	a1 00 00 00 00	 mov	 eax, DWORD PTR ?options_box_small@@3PAUTEXTURE_GRAPHIC@@A ; options_box_small
  03382	50		 push	 eax
  03383	6a 4c		 push	 76			; 0000004cH
  03385	68 ff 00 00 00	 push	 255			; 000000ffH
  0338a	68 ff 00 00 00	 push	 255			; 000000ffH
  0338f	68 ff 00 00 00	 push	 255			; 000000ffH
  03394	68 ff 00 00 00	 push	 255			; 000000ffH
  03399	6a 0a		 push	 10			; 0000000aH
  0339b	6a 00		 push	 0
  0339d	68 ff 00 00 00	 push	 255			; 000000ffH
  033a2	68 ff 00 00 00	 push	 255			; 000000ffH
  033a7	68 ff 00 00 00	 push	 255			; 000000ffH
  033ac	6a 0b		 push	 11			; 0000000bH
  033ae	83 ec 08	 sub	 esp, 8
  033b1	f2 0f 10 05 00
	00 00 00	 movsd	 xmm0, QWORD PTR __real@3ff0000000000000
  033b9	f2 0f 11 04 24	 movsd	 QWORD PTR [esp], xmm0
  033be	83 ec 08	 sub	 esp, 8
  033c1	f2 0f 10 05 00
	00 00 00	 movsd	 xmm0, QWORD PTR __real@3fbba5e360000000
  033c9	f2 0f 11 04 24	 movsd	 QWORD PTR [esp], xmm0
  033ce	6a 59		 push	 89			; 00000059H
  033d0	83 ec 08	 sub	 esp, 8
  033d3	0f 57 c0	 xorps	 xmm0, xmm0
  033d6	f2 0f 11 04 24	 movsd	 QWORD PTR [esp], xmm0
  033db	8b 4d fc	 mov	 ecx, DWORD PTR _i$[ebp]
  033de	8b 54 8d ac	 mov	 edx, DWORD PTR _title_change_array$[ebp+ecx*4]
  033e2	52		 push	 edx
  033e3	8b 45 fc	 mov	 eax, DWORD PTR _i$[ebp]
  033e6	8b 4c 85 ac	 mov	 ecx, DWORD PTR _title_change_array$[ebp+eax*4]
  033ea	8b 11		 mov	 edx, DWORD PTR [ecx]
  033ec	8b 04 95 00 00
	00 00		 mov	 eax, DWORD PTR ?fn_get_ui_object_x_end@@3PAP6GMPAUUI_OBJECT@@@ZA[edx*4]
  033f3	ff d0		 call	 eax
  033f5	d9 9d f4 fe ff
	ff		 fstp	 DWORD PTR tv4965[ebp]
  033fb	f3 0f 10 85 f4
	fe ff ff	 movss	 xmm0, DWORD PTR tv4965[ebp]
  03403	8b 4d fc	 mov	 ecx, DWORD PTR _i$[ebp]
  03406	8b 54 8d ac	 mov	 edx, DWORD PTR _title_change_array$[ebp+ecx*4]
  0340a	52		 push	 edx
  0340b	8b 45 fc	 mov	 eax, DWORD PTR _i$[ebp]
  0340e	8b 4c 85 ac	 mov	 ecx, DWORD PTR _title_change_array$[ebp+eax*4]
  03412	8b 11		 mov	 edx, DWORD PTR [ecx]
  03414	8b 04 95 00 00
	00 00		 mov	 eax, DWORD PTR ?fn_get_ui_object_x_size_end@@3PAP6GMPAUUI_OBJECT@@@ZA[edx*4]
  0341b	f3 0f 11 85 f0
	fe ff ff	 movss	 DWORD PTR tv5283[ebp], xmm0
  03423	ff d0		 call	 eax
  03425	d9 9d ec fe ff
	ff		 fstp	 DWORD PTR tv4973[ebp]
  0342b	f3 0f 10 85 f0
	fe ff ff	 movss	 xmm0, DWORD PTR tv5283[ebp]
  03433	f3 0f 58 85 ec
	fe ff ff	 addss	 xmm0, DWORD PTR tv4973[ebp]
  0343b	f3 0f 58 05 00
	00 00 00	 addss	 xmm0, DWORD PTR __real@3b2a64c3
  03443	f3 0f 5a c0	 cvtss2sd xmm0, xmm0
  03447	83 ec 08	 sub	 esp, 8
  0344a	f2 0f 11 04 24	 movsd	 QWORD PTR [esp], xmm0
  0344f	6a 58		 push	 88			; 00000058H
  03451	8b 0d 00 00 00
	00		 mov	 ecx, DWORD PTR ?reverse_pedal_area@@3PAUUI_OBJECT@@A ; reverse_pedal_area
  03457	51		 push	 ecx
  03458	6a 32		 push	 50			; 00000032H
  0345a	6a 01		 push	 1
  0345c	e8 00 00 00 00	 call	 ?create_ui_object@@YAPAUUI_OBJECT@@HZZ ; create_ui_object
  03461	83 c4 68	 add	 esp, 104		; 00000068H
  03464	8b 55 fc	 mov	 edx, DWORD PTR _i$[ebp]
  03467	89 84 95 38 ff
	ff ff		 mov	 DWORD PTR _change_array$[ebp+edx*4], eax

; 2133 : 	(
; 2134 : 		UI_TYPE_AREA,
; 2135 : 		UI_ATTR_PARENT (reverse_pedal_area),
; 2136 : 		UI_ATTR_VIRTUAL_POSITION ((get_ui_object_x_end (title_change_array [i]) + get_ui_object_x_size_end (title_change_array [i]) + OPTION_BOX_GAP_WIDTH), 0.0),
; 2137 : 		UI_ATTR_VIRTUAL_SIZE (OPTION_BOX_SMALL_WIDTH, OPTION_BOX_HEIGHT),
; 2138 : 		UI_ATTR_COLOUR_START ( 255, 255, 255, 0 ),
; 2139 : 		UI_ATTR_COLOUR_END ( 255, 255, 255, 255 ),
; 2140 : 		UI_ATTR_TEXTURE_GRAPHIC (options_box_small),
; 2141 : 		UI_ATTR_END
; 2142 : 	);
; 2143 : 
; 2144 :    reverse_pedal_option_button = create_ui_object

  0346e	6a 11		 push	 17			; 00000011H
  03470	68 00 00 00 00	 push	 OFFSET ?notify_reverse_pedal_option_button@@YGXPAUUI_OBJECT@@PAX@Z ; notify_reverse_pedal_option_button
  03475	6a 16		 push	 22			; 00000016H
  03477	6a 01		 push	 1
  03479	6a 2f		 push	 47			; 0000002fH
  0347b	6a 01		 push	 1
  0347d	6a 07		 push	 7
  0347f	6a 01		 push	 1
  03481	6a 1b		 push	 27			; 0000001bH
  03483	68 ff 00 00 00	 push	 255			; 000000ffH
  03488	0f b6 05 00 00
	00 00		 movzx	 eax, BYTE PTR ?ui_option_text_hilite_colour@@3UREAL_COLOUR@@A
  0348f	50		 push	 eax
  03490	0f b6 0d 01 00
	00 00		 movzx	 ecx, BYTE PTR ?ui_option_text_hilite_colour@@3UREAL_COLOUR@@A+1
  03497	51		 push	 ecx
  03498	0f b6 15 02 00
	00 00		 movzx	 edx, BYTE PTR ?ui_option_text_hilite_colour@@3UREAL_COLOUR@@A+2
  0349f	52		 push	 edx
  034a0	6a 22		 push	 34			; 00000022H
  034a2	6a 00		 push	 0
  034a4	0f b6 05 00 00
	00 00		 movzx	 eax, BYTE PTR ?ui_option_text_hilite_colour@@3UREAL_COLOUR@@A
  034ab	50		 push	 eax
  034ac	0f b6 0d 01 00
	00 00		 movzx	 ecx, BYTE PTR ?ui_option_text_hilite_colour@@3UREAL_COLOUR@@A+1
  034b3	51		 push	 ecx
  034b4	0f b6 15 02 00
	00 00		 movzx	 edx, BYTE PTR ?ui_option_text_hilite_colour@@3UREAL_COLOUR@@A+2
  034bb	52		 push	 edx
  034bc	6a 23		 push	 35			; 00000023H
  034be	68 ff 00 00 00	 push	 255			; 000000ffH
  034c3	0f b6 05 00 00
	00 00		 movzx	 eax, BYTE PTR ?ui_option_text_default_colour@@3UREAL_COLOUR@@A
  034ca	50		 push	 eax
  034cb	0f b6 0d 01 00
	00 00		 movzx	 ecx, BYTE PTR ?ui_option_text_default_colour@@3UREAL_COLOUR@@A+1
  034d2	51		 push	 ecx
  034d3	0f b6 15 02 00
	00 00		 movzx	 edx, BYTE PTR ?ui_option_text_default_colour@@3UREAL_COLOUR@@A+2
  034da	52		 push	 edx
  034db	6a 14		 push	 20			; 00000014H
  034dd	6a 00		 push	 0
  034df	0f b6 05 00 00
	00 00		 movzx	 eax, BYTE PTR ?ui_option_text_default_colour@@3UREAL_COLOUR@@A
  034e6	50		 push	 eax
  034e7	0f b6 0d 01 00
	00 00		 movzx	 ecx, BYTE PTR ?ui_option_text_default_colour@@3UREAL_COLOUR@@A+1
  034ee	51		 push	 ecx
  034ef	0f b6 15 02 00
	00 00		 movzx	 edx, BYTE PTR ?ui_option_text_default_colour@@3UREAL_COLOUR@@A+2
  034f6	52		 push	 edx
  034f7	6a 15		 push	 21			; 00000015H
  034f9	68 00 00 00 00	 push	 OFFSET ??_C@_00CNPNBAHC@@
  034fe	6a 4a		 push	 74			; 0000004aH
  03500	6a 01		 push	 1
  03502	6a 4b		 push	 75			; 0000004bH
  03504	83 ec 08	 sub	 esp, 8
  03507	f2 0f 10 05 00
	00 00 00	 movsd	 xmm0, QWORD PTR __real@3fc24dd300000000
  0350f	f2 0f 11 04 24	 movsd	 QWORD PTR [esp], xmm0
  03514	8b 45 fc	 mov	 eax, DWORD PTR _i$[ebp]
  03517	8b 8c 85 38 ff
	ff ff		 mov	 ecx, DWORD PTR _change_array$[ebp+eax*4]
  0351e	51		 push	 ecx
  0351f	8b 55 fc	 mov	 edx, DWORD PTR _i$[ebp]
  03522	8b 84 95 38 ff
	ff ff		 mov	 eax, DWORD PTR _change_array$[ebp+edx*4]
  03529	8b 08		 mov	 ecx, DWORD PTR [eax]
  0352b	8b 14 8d 00 00
	00 00		 mov	 edx, DWORD PTR ?fn_get_ui_object_x_end@@3PAP6GMPAUUI_OBJECT@@@ZA[ecx*4]
  03532	ff d2		 call	 edx
  03534	d9 9d f4 fe ff
	ff		 fstp	 DWORD PTR tv4992[ebp]
  0353a	f3 0f 10 85 f4
	fe ff ff	 movss	 xmm0, DWORD PTR tv4992[ebp]
  03542	f3 0f 58 05 00
	00 00 00	 addss	 xmm0, DWORD PTR __real@3c03126f
  0354a	f3 0f 5a c0	 cvtss2sd xmm0, xmm0
  0354e	83 ec 08	 sub	 esp, 8
  03551	f2 0f 11 04 24	 movsd	 QWORD PTR [esp], xmm0
  03556	6a 58		 push	 88			; 00000058H
  03558	68 ff 00 00 00	 push	 255			; 000000ffH
  0355d	6a 2f		 push	 47			; 0000002fH
  0355f	6a 7c		 push	 124			; 0000007cH
  03561	68 fe 00 00 00	 push	 254			; 000000feH
  03566	6a 13		 push	 19			; 00000013H
  03568	6a 02		 push	 2
  0356a	6a 12		 push	 18			; 00000012H
  0356c	a1 00 00 00 00	 mov	 eax, DWORD PTR ?reverse_pedal_area@@3PAUUI_OBJECT@@A ; reverse_pedal_area
  03571	50		 push	 eax
  03572	6a 32		 push	 50			; 00000032H
  03574	6a 05		 push	 5
  03576	e8 00 00 00 00	 call	 ?create_ui_object@@YAPAUUI_OBJECT@@HZZ ; create_ui_object
  0357b	81 c4 c0 00 00
	00		 add	 esp, 192		; 000000c0H
  03581	a3 00 00 00 00	 mov	 DWORD PTR ?reverse_pedal_option_button@@3PAUUI_OBJECT@@A, eax ; reverse_pedal_option_button

; 2145 : 	(
; 2146 : 		UI_TYPE_TEXT,
; 2147 : 		UI_ATTR_PARENT (reverse_pedal_area),
; 2148 : 		UI_ATTR_FONT_TYPE (/*UI_FONT_THICK_ITALIC_ARIAL_18*/UI_FONT_ITALIC_ARIAL_14),
; 2149 : 		UI_ATTR_FONT_COLOUR (254, 124, 47, 255),
; 2150 : 		UI_ATTR_VIRTUAL_POSITION (get_ui_object_x_end (change_array [i]) + OPTION_BUTTON_TEXT_OFFSET_X, OPTION_BOX_TEXT_OFFSET_Y),
; 2151 : 		UI_ATTR_TEXT_JUSTIFY (TEXT_JUSTIFY_LEFT_CENTRE),
; 2152 : 		UI_ATTR_TEXT (""),
; 2153 :       UI_ATTR_FONT_COLOUR_START (ui_option_text_default_colour.r, ui_option_text_default_colour.g, ui_option_text_default_colour.b, 0),
; 2154 :       UI_ATTR_FONT_COLOUR_END (ui_option_text_default_colour.r, ui_option_text_default_colour.g, ui_option_text_default_colour.b, 255),
; 2155 :       UI_ATTR_HIGHLIGHTED_FONT_COLOUR_START (ui_option_text_hilite_colour.r, ui_option_text_hilite_colour.g, ui_option_text_hilite_colour.b, 0),
; 2156 :       UI_ATTR_HIGHLIGHTED_FONT_COLOUR_END (ui_option_text_hilite_colour.r, ui_option_text_hilite_colour.g, ui_option_text_hilite_colour.b, 255),
; 2157 : 		UI_ATTR_HIGHLIGHTABLE (TRUE),
; 2158 : 		UI_ATTR_CLEAR (TRUE),
; 2159 : 		UI_ATTR_NOTIFY_ON (NOTIFY_TYPE_BUTTON_UP),
; 2160 : 		UI_ATTR_FUNCTION (notify_reverse_pedal_option_button),
; 2161 : 		UI_ATTR_END
; 2162 : 	);
; 2163 : 
; 2164 : 	preprocess_translation_object_size (change_array [i], keyboard_assist_option_button, option_boolean_text, 2, RESIZE_OPTION_CYCLE_BUTTON);

  03586	6a 01		 push	 1
  03588	6a 02		 push	 2
  0358a	68 00 00 00 00	 push	 OFFSET ?option_boolean_text@@3PAPBDA
  0358f	a1 00 00 00 00	 mov	 eax, DWORD PTR ?keyboard_assist_option_button@@3PAUUI_OBJECT@@A ; keyboard_assist_option_button
  03594	50		 push	 eax
  03595	8b 4d fc	 mov	 ecx, DWORD PTR _i$[ebp]
  03598	8b 94 8d 38 ff
	ff ff		 mov	 edx, DWORD PTR _change_array$[ebp+ecx*4]
  0359f	52		 push	 edx
  035a0	e8 00 00 00 00	 call	 ?preprocess_translation_object_size@@YGXPAUUI_OBJECT@@0PAPBDHW4RESIZE_UI_OBJECT_TYPES@@@Z ; preprocess_translation_object_size

; 2165 : 	// Retro 17Jul2004 end
; 2166 : 
; 2167 : 	// Retro 10Jul2004
; 2168 : 	//mouselook button
; 2169 : 	
; 2170 : 	i++;

  035a5	8b 45 fc	 mov	 eax, DWORD PTR _i$[ebp]
  035a8	83 c0 01	 add	 eax, 1
  035ab	89 45 fc	 mov	 DWORD PTR _i$[ebp], eax

; 2171 : 
; 2172 : 	change_array[i] = create_ui_object

  035ae	6a 11		 push	 17			; 00000011H
  035b0	a1 00 00 00 00	 mov	 eax, DWORD PTR ?options_box_small@@3PAUTEXTURE_GRAPHIC@@A ; options_box_small
  035b5	50		 push	 eax
  035b6	6a 4c		 push	 76			; 0000004cH
  035b8	68 ff 00 00 00	 push	 255			; 000000ffH
  035bd	68 ff 00 00 00	 push	 255			; 000000ffH
  035c2	68 ff 00 00 00	 push	 255			; 000000ffH
  035c7	68 ff 00 00 00	 push	 255			; 000000ffH
  035cc	6a 0a		 push	 10			; 0000000aH
  035ce	6a 00		 push	 0
  035d0	68 ff 00 00 00	 push	 255			; 000000ffH
  035d5	68 ff 00 00 00	 push	 255			; 000000ffH
  035da	68 ff 00 00 00	 push	 255			; 000000ffH
  035df	6a 0b		 push	 11			; 0000000bH
  035e1	83 ec 08	 sub	 esp, 8
  035e4	f2 0f 10 05 00
	00 00 00	 movsd	 xmm0, QWORD PTR __real@3ff0000000000000
  035ec	f2 0f 11 04 24	 movsd	 QWORD PTR [esp], xmm0
  035f1	83 ec 08	 sub	 esp, 8
  035f4	f2 0f 10 05 00
	00 00 00	 movsd	 xmm0, QWORD PTR __real@3fbba5e360000000
  035fc	f2 0f 11 04 24	 movsd	 QWORD PTR [esp], xmm0
  03601	6a 59		 push	 89			; 00000059H
  03603	83 ec 08	 sub	 esp, 8
  03606	0f 57 c0	 xorps	 xmm0, xmm0
  03609	f2 0f 11 04 24	 movsd	 QWORD PTR [esp], xmm0
  0360e	8b 4d fc	 mov	 ecx, DWORD PTR _i$[ebp]
  03611	8b 54 8d ac	 mov	 edx, DWORD PTR _title_change_array$[ebp+ecx*4]
  03615	52		 push	 edx
  03616	8b 45 fc	 mov	 eax, DWORD PTR _i$[ebp]
  03619	8b 4c 85 ac	 mov	 ecx, DWORD PTR _title_change_array$[ebp+eax*4]
  0361d	8b 11		 mov	 edx, DWORD PTR [ecx]
  0361f	8b 04 95 00 00
	00 00		 mov	 eax, DWORD PTR ?fn_get_ui_object_x_end@@3PAP6GMPAUUI_OBJECT@@@ZA[edx*4]
  03626	ff d0		 call	 eax
  03628	d9 9d f4 fe ff
	ff		 fstp	 DWORD PTR tv5009[ebp]
  0362e	f3 0f 10 85 f4
	fe ff ff	 movss	 xmm0, DWORD PTR tv5009[ebp]
  03636	8b 4d fc	 mov	 ecx, DWORD PTR _i$[ebp]
  03639	8b 54 8d ac	 mov	 edx, DWORD PTR _title_change_array$[ebp+ecx*4]
  0363d	52		 push	 edx
  0363e	8b 45 fc	 mov	 eax, DWORD PTR _i$[ebp]
  03641	8b 4c 85 ac	 mov	 ecx, DWORD PTR _title_change_array$[ebp+eax*4]
  03645	8b 11		 mov	 edx, DWORD PTR [ecx]
  03647	8b 04 95 00 00
	00 00		 mov	 eax, DWORD PTR ?fn_get_ui_object_x_size_end@@3PAP6GMPAUUI_OBJECT@@@ZA[edx*4]
  0364e	f3 0f 11 85 f0
	fe ff ff	 movss	 DWORD PTR tv5285[ebp], xmm0
  03656	ff d0		 call	 eax
  03658	d9 9d ec fe ff
	ff		 fstp	 DWORD PTR tv5017[ebp]
  0365e	f3 0f 10 85 f0
	fe ff ff	 movss	 xmm0, DWORD PTR tv5285[ebp]
  03666	f3 0f 58 85 ec
	fe ff ff	 addss	 xmm0, DWORD PTR tv5017[ebp]
  0366e	f3 0f 58 05 00
	00 00 00	 addss	 xmm0, DWORD PTR __real@3b2a64c3
  03676	f3 0f 5a c0	 cvtss2sd xmm0, xmm0
  0367a	83 ec 08	 sub	 esp, 8
  0367d	f2 0f 11 04 24	 movsd	 QWORD PTR [esp], xmm0
  03682	6a 58		 push	 88			; 00000058H
  03684	8b 0d 00 00 00
	00		 mov	 ecx, DWORD PTR ?mouselook_area@@3PAUUI_OBJECT@@A ; mouselook_area
  0368a	51		 push	 ecx
  0368b	6a 32		 push	 50			; 00000032H
  0368d	6a 01		 push	 1
  0368f	e8 00 00 00 00	 call	 ?create_ui_object@@YAPAUUI_OBJECT@@HZZ ; create_ui_object
  03694	83 c4 68	 add	 esp, 104		; 00000068H
  03697	8b 55 fc	 mov	 edx, DWORD PTR _i$[ebp]
  0369a	89 84 95 38 ff
	ff ff		 mov	 DWORD PTR _change_array$[ebp+edx*4], eax

; 2173 : 	(
; 2174 : 		UI_TYPE_AREA,
; 2175 : 		UI_ATTR_PARENT (mouselook_area),
; 2176 : 		UI_ATTR_VIRTUAL_POSITION ((get_ui_object_x_end (title_change_array [i]) + get_ui_object_x_size_end (title_change_array [i]) + OPTION_BOX_GAP_WIDTH), 0.0),
; 2177 : 		UI_ATTR_VIRTUAL_SIZE (OPTION_BOX_SMALL_WIDTH, OPTION_BOX_HEIGHT),
; 2178 : 		UI_ATTR_COLOUR_START (255, 255, 255, 0),
; 2179 : 		UI_ATTR_COLOUR_END (255, 255, 255, 255),
; 2180 : 		UI_ATTR_TEXTURE_GRAPHIC (options_box_small),
; 2181 : 		UI_ATTR_END
; 2182 : 	);
; 2183 : 
; 2184 :    mouselook_option_button = create_ui_object

  036a1	6a 11		 push	 17			; 00000011H
  036a3	68 00 00 00 00	 push	 OFFSET ?notify_mouselook_option_button@@YGXPAUUI_OBJECT@@PAX@Z ; notify_mouselook_option_button
  036a8	6a 16		 push	 22			; 00000016H
  036aa	6a 01		 push	 1
  036ac	6a 2f		 push	 47			; 0000002fH
  036ae	6a 01		 push	 1
  036b0	6a 07		 push	 7
  036b2	6a 01		 push	 1
  036b4	6a 1b		 push	 27			; 0000001bH
  036b6	68 ff 00 00 00	 push	 255			; 000000ffH
  036bb	0f b6 05 00 00
	00 00		 movzx	 eax, BYTE PTR ?ui_option_text_hilite_colour@@3UREAL_COLOUR@@A
  036c2	50		 push	 eax
  036c3	0f b6 0d 01 00
	00 00		 movzx	 ecx, BYTE PTR ?ui_option_text_hilite_colour@@3UREAL_COLOUR@@A+1
  036ca	51		 push	 ecx
  036cb	0f b6 15 02 00
	00 00		 movzx	 edx, BYTE PTR ?ui_option_text_hilite_colour@@3UREAL_COLOUR@@A+2
  036d2	52		 push	 edx
  036d3	6a 22		 push	 34			; 00000022H
  036d5	6a 00		 push	 0
  036d7	0f b6 05 00 00
	00 00		 movzx	 eax, BYTE PTR ?ui_option_text_hilite_colour@@3UREAL_COLOUR@@A
  036de	50		 push	 eax
  036df	0f b6 0d 01 00
	00 00		 movzx	 ecx, BYTE PTR ?ui_option_text_hilite_colour@@3UREAL_COLOUR@@A+1
  036e6	51		 push	 ecx
  036e7	0f b6 15 02 00
	00 00		 movzx	 edx, BYTE PTR ?ui_option_text_hilite_colour@@3UREAL_COLOUR@@A+2
  036ee	52		 push	 edx
  036ef	6a 23		 push	 35			; 00000023H
  036f1	68 ff 00 00 00	 push	 255			; 000000ffH
  036f6	0f b6 05 00 00
	00 00		 movzx	 eax, BYTE PTR ?ui_option_text_default_colour@@3UREAL_COLOUR@@A
  036fd	50		 push	 eax
  036fe	0f b6 0d 01 00
	00 00		 movzx	 ecx, BYTE PTR ?ui_option_text_default_colour@@3UREAL_COLOUR@@A+1
  03705	51		 push	 ecx
  03706	0f b6 15 02 00
	00 00		 movzx	 edx, BYTE PTR ?ui_option_text_default_colour@@3UREAL_COLOUR@@A+2
  0370d	52		 push	 edx
  0370e	6a 14		 push	 20			; 00000014H
  03710	6a 00		 push	 0
  03712	0f b6 05 00 00
	00 00		 movzx	 eax, BYTE PTR ?ui_option_text_default_colour@@3UREAL_COLOUR@@A
  03719	50		 push	 eax
  0371a	0f b6 0d 01 00
	00 00		 movzx	 ecx, BYTE PTR ?ui_option_text_default_colour@@3UREAL_COLOUR@@A+1
  03721	51		 push	 ecx
  03722	0f b6 15 02 00
	00 00		 movzx	 edx, BYTE PTR ?ui_option_text_default_colour@@3UREAL_COLOUR@@A+2
  03729	52		 push	 edx
  0372a	6a 15		 push	 21			; 00000015H
  0372c	68 00 00 00 00	 push	 OFFSET ??_C@_00CNPNBAHC@@
  03731	6a 4a		 push	 74			; 0000004aH
  03733	6a 01		 push	 1
  03735	6a 4b		 push	 75			; 0000004bH
  03737	83 ec 08	 sub	 esp, 8
  0373a	f2 0f 10 05 00
	00 00 00	 movsd	 xmm0, QWORD PTR __real@3fc24dd300000000
  03742	f2 0f 11 04 24	 movsd	 QWORD PTR [esp], xmm0
  03747	8b 45 fc	 mov	 eax, DWORD PTR _i$[ebp]
  0374a	8b 8c 85 38 ff
	ff ff		 mov	 ecx, DWORD PTR _change_array$[ebp+eax*4]
  03751	51		 push	 ecx
  03752	8b 55 fc	 mov	 edx, DWORD PTR _i$[ebp]
  03755	8b 84 95 38 ff
	ff ff		 mov	 eax, DWORD PTR _change_array$[ebp+edx*4]
  0375c	8b 08		 mov	 ecx, DWORD PTR [eax]
  0375e	8b 14 8d 00 00
	00 00		 mov	 edx, DWORD PTR ?fn_get_ui_object_x_end@@3PAP6GMPAUUI_OBJECT@@@ZA[ecx*4]
  03765	ff d2		 call	 edx
  03767	d9 9d f4 fe ff
	ff		 fstp	 DWORD PTR tv5036[ebp]
  0376d	f3 0f 10 85 f4
	fe ff ff	 movss	 xmm0, DWORD PTR tv5036[ebp]
  03775	f3 0f 58 05 00
	00 00 00	 addss	 xmm0, DWORD PTR __real@3c03126f
  0377d	f3 0f 5a c0	 cvtss2sd xmm0, xmm0
  03781	83 ec 08	 sub	 esp, 8
  03784	f2 0f 11 04 24	 movsd	 QWORD PTR [esp], xmm0
  03789	6a 58		 push	 88			; 00000058H
  0378b	68 ff 00 00 00	 push	 255			; 000000ffH
  03790	6a 2f		 push	 47			; 0000002fH
  03792	6a 7c		 push	 124			; 0000007cH
  03794	68 fe 00 00 00	 push	 254			; 000000feH
  03799	6a 13		 push	 19			; 00000013H
  0379b	6a 02		 push	 2
  0379d	6a 12		 push	 18			; 00000012H
  0379f	a1 00 00 00 00	 mov	 eax, DWORD PTR ?mouselook_area@@3PAUUI_OBJECT@@A ; mouselook_area
  037a4	50		 push	 eax
  037a5	6a 32		 push	 50			; 00000032H
  037a7	6a 05		 push	 5
  037a9	e8 00 00 00 00	 call	 ?create_ui_object@@YAPAUUI_OBJECT@@HZZ ; create_ui_object
  037ae	81 c4 c0 00 00
	00		 add	 esp, 192		; 000000c0H
  037b4	a3 00 00 00 00	 mov	 DWORD PTR ?mouselook_option_button@@3PAUUI_OBJECT@@A, eax ; mouselook_option_button

; 2185 : 	(
; 2186 : 		UI_TYPE_TEXT,
; 2187 : 		UI_ATTR_PARENT (mouselook_area),
; 2188 : 		UI_ATTR_FONT_TYPE (/*UI_FONT_THICK_ITALIC_ARIAL_18*/UI_FONT_ITALIC_ARIAL_14),
; 2189 : 		UI_ATTR_FONT_COLOUR (254, 124, 47, 255),
; 2190 : 		UI_ATTR_VIRTUAL_POSITION (get_ui_object_x_end (change_array [i]) + OPTION_BUTTON_TEXT_OFFSET_X, OPTION_BOX_TEXT_OFFSET_Y),
; 2191 : 		UI_ATTR_TEXT_JUSTIFY (TEXT_JUSTIFY_LEFT_CENTRE),
; 2192 : 		UI_ATTR_TEXT (""),
; 2193 :       UI_ATTR_FONT_COLOUR_START (ui_option_text_default_colour.r, ui_option_text_default_colour.g, ui_option_text_default_colour.b, 0),
; 2194 :       UI_ATTR_FONT_COLOUR_END (ui_option_text_default_colour.r, ui_option_text_default_colour.g, ui_option_text_default_colour.b, 255),
; 2195 :       UI_ATTR_HIGHLIGHTED_FONT_COLOUR_START (ui_option_text_hilite_colour.r, ui_option_text_hilite_colour.g, ui_option_text_hilite_colour.b, 0),
; 2196 :       UI_ATTR_HIGHLIGHTED_FONT_COLOUR_END (ui_option_text_hilite_colour.r, ui_option_text_hilite_colour.g, ui_option_text_hilite_colour.b, 255),
; 2197 : 		UI_ATTR_HIGHLIGHTABLE (TRUE),
; 2198 : 		UI_ATTR_CLEAR (TRUE),
; 2199 : 		UI_ATTR_NOTIFY_ON (NOTIFY_TYPE_BUTTON_UP),
; 2200 : 		UI_ATTR_FUNCTION (notify_mouselook_option_button),
; 2201 : 		UI_ATTR_END
; 2202 : 	);
; 2203 : 
; 2204 : 	preprocess_translation_object_size (change_array [i], mouselook_option_button, option_boolean_text, 2, RESIZE_OPTION_CYCLE_BUTTON);

  037b9	6a 01		 push	 1
  037bb	6a 02		 push	 2
  037bd	68 00 00 00 00	 push	 OFFSET ?option_boolean_text@@3PAPBDA
  037c2	a1 00 00 00 00	 mov	 eax, DWORD PTR ?mouselook_option_button@@3PAUUI_OBJECT@@A ; mouselook_option_button
  037c7	50		 push	 eax
  037c8	8b 4d fc	 mov	 ecx, DWORD PTR _i$[ebp]
  037cb	8b 94 8d 38 ff
	ff ff		 mov	 edx, DWORD PTR _change_array$[ebp+ecx*4]
  037d2	52		 push	 edx
  037d3	e8 00 00 00 00	 call	 ?preprocess_translation_object_size@@YGXPAUUI_OBJECT@@0PAPBDHW4RESIZE_UI_OBJECT_TYPES@@@Z ; preprocess_translation_object_size

; 2205 : 	// Retro 10Jul2004 end
; 2206 : 
; 2207 : 	// Retro 10Jul2004
; 2208 : 	//trackir button
; 2209 : 	
; 2210 : 	i++;

  037d8	8b 45 fc	 mov	 eax, DWORD PTR _i$[ebp]
  037db	83 c0 01	 add	 eax, 1
  037de	89 45 fc	 mov	 DWORD PTR _i$[ebp], eax

; 2211 : 
; 2212 : 	change_array[i] = create_ui_object

  037e1	6a 11		 push	 17			; 00000011H
  037e3	a1 00 00 00 00	 mov	 eax, DWORD PTR ?options_box_small@@3PAUTEXTURE_GRAPHIC@@A ; options_box_small
  037e8	50		 push	 eax
  037e9	6a 4c		 push	 76			; 0000004cH
  037eb	68 ff 00 00 00	 push	 255			; 000000ffH
  037f0	68 ff 00 00 00	 push	 255			; 000000ffH
  037f5	68 ff 00 00 00	 push	 255			; 000000ffH
  037fa	68 ff 00 00 00	 push	 255			; 000000ffH
  037ff	6a 0a		 push	 10			; 0000000aH
  03801	6a 00		 push	 0
  03803	68 ff 00 00 00	 push	 255			; 000000ffH
  03808	68 ff 00 00 00	 push	 255			; 000000ffH
  0380d	68 ff 00 00 00	 push	 255			; 000000ffH
  03812	6a 0b		 push	 11			; 0000000bH
  03814	83 ec 08	 sub	 esp, 8
  03817	f2 0f 10 05 00
	00 00 00	 movsd	 xmm0, QWORD PTR __real@3ff0000000000000
  0381f	f2 0f 11 04 24	 movsd	 QWORD PTR [esp], xmm0
  03824	83 ec 08	 sub	 esp, 8
  03827	f2 0f 10 05 00
	00 00 00	 movsd	 xmm0, QWORD PTR __real@3fbba5e360000000
  0382f	f2 0f 11 04 24	 movsd	 QWORD PTR [esp], xmm0
  03834	6a 59		 push	 89			; 00000059H
  03836	83 ec 08	 sub	 esp, 8
  03839	0f 57 c0	 xorps	 xmm0, xmm0
  0383c	f2 0f 11 04 24	 movsd	 QWORD PTR [esp], xmm0
  03841	8b 4d fc	 mov	 ecx, DWORD PTR _i$[ebp]
  03844	8b 54 8d ac	 mov	 edx, DWORD PTR _title_change_array$[ebp+ecx*4]
  03848	52		 push	 edx
  03849	8b 45 fc	 mov	 eax, DWORD PTR _i$[ebp]
  0384c	8b 4c 85 ac	 mov	 ecx, DWORD PTR _title_change_array$[ebp+eax*4]
  03850	8b 11		 mov	 edx, DWORD PTR [ecx]
  03852	8b 04 95 00 00
	00 00		 mov	 eax, DWORD PTR ?fn_get_ui_object_x_end@@3PAP6GMPAUUI_OBJECT@@@ZA[edx*4]
  03859	ff d0		 call	 eax
  0385b	d9 9d f4 fe ff
	ff		 fstp	 DWORD PTR tv5053[ebp]
  03861	f3 0f 10 85 f4
	fe ff ff	 movss	 xmm0, DWORD PTR tv5053[ebp]
  03869	8b 4d fc	 mov	 ecx, DWORD PTR _i$[ebp]
  0386c	8b 54 8d ac	 mov	 edx, DWORD PTR _title_change_array$[ebp+ecx*4]
  03870	52		 push	 edx
  03871	8b 45 fc	 mov	 eax, DWORD PTR _i$[ebp]
  03874	8b 4c 85 ac	 mov	 ecx, DWORD PTR _title_change_array$[ebp+eax*4]
  03878	8b 11		 mov	 edx, DWORD PTR [ecx]
  0387a	8b 04 95 00 00
	00 00		 mov	 eax, DWORD PTR ?fn_get_ui_object_x_size_end@@3PAP6GMPAUUI_OBJECT@@@ZA[edx*4]
  03881	f3 0f 11 85 f0
	fe ff ff	 movss	 DWORD PTR tv5287[ebp], xmm0
  03889	ff d0		 call	 eax
  0388b	d9 9d ec fe ff
	ff		 fstp	 DWORD PTR tv5061[ebp]
  03891	f3 0f 10 85 f0
	fe ff ff	 movss	 xmm0, DWORD PTR tv5287[ebp]
  03899	f3 0f 58 85 ec
	fe ff ff	 addss	 xmm0, DWORD PTR tv5061[ebp]
  038a1	f3 0f 58 05 00
	00 00 00	 addss	 xmm0, DWORD PTR __real@3b2a64c3
  038a9	f3 0f 5a c0	 cvtss2sd xmm0, xmm0
  038ad	83 ec 08	 sub	 esp, 8
  038b0	f2 0f 11 04 24	 movsd	 QWORD PTR [esp], xmm0
  038b5	6a 58		 push	 88			; 00000058H
  038b7	8b 0d 00 00 00
	00		 mov	 ecx, DWORD PTR ?trackir_area@@3PAUUI_OBJECT@@A ; trackir_area
  038bd	51		 push	 ecx
  038be	6a 32		 push	 50			; 00000032H
  038c0	6a 01		 push	 1
  038c2	e8 00 00 00 00	 call	 ?create_ui_object@@YAPAUUI_OBJECT@@HZZ ; create_ui_object
  038c7	83 c4 68	 add	 esp, 104		; 00000068H
  038ca	8b 55 fc	 mov	 edx, DWORD PTR _i$[ebp]
  038cd	89 84 95 38 ff
	ff ff		 mov	 DWORD PTR _change_array$[ebp+edx*4], eax

; 2213 : 	(
; 2214 : 		UI_TYPE_AREA,
; 2215 : 		UI_ATTR_PARENT (trackir_area),
; 2216 : 		UI_ATTR_VIRTUAL_POSITION ((get_ui_object_x_end (title_change_array [i]) + get_ui_object_x_size_end (title_change_array [i]) + OPTION_BOX_GAP_WIDTH), 0.0),
; 2217 : 		UI_ATTR_VIRTUAL_SIZE (OPTION_BOX_SMALL_WIDTH, OPTION_BOX_HEIGHT),
; 2218 : 		UI_ATTR_COLOUR_START (255, 255, 255, 0),
; 2219 : 		UI_ATTR_COLOUR_END (255, 255, 255, 255),
; 2220 : 		UI_ATTR_TEXTURE_GRAPHIC (options_box_small),
; 2221 : 		UI_ATTR_END
; 2222 : 	);
; 2223 : 
; 2224 :    trackir_option_button = create_ui_object

  038d4	6a 11		 push	 17			; 00000011H
  038d6	68 00 00 00 00	 push	 OFFSET ?notify_trackir_option_button@@YGXPAUUI_OBJECT@@PAX@Z ; notify_trackir_option_button
  038db	6a 16		 push	 22			; 00000016H
  038dd	6a 01		 push	 1
  038df	6a 2f		 push	 47			; 0000002fH
  038e1	6a 01		 push	 1
  038e3	6a 07		 push	 7
  038e5	6a 01		 push	 1
  038e7	6a 1b		 push	 27			; 0000001bH
  038e9	68 ff 00 00 00	 push	 255			; 000000ffH
  038ee	0f b6 05 00 00
	00 00		 movzx	 eax, BYTE PTR ?ui_option_text_hilite_colour@@3UREAL_COLOUR@@A
  038f5	50		 push	 eax
  038f6	0f b6 0d 01 00
	00 00		 movzx	 ecx, BYTE PTR ?ui_option_text_hilite_colour@@3UREAL_COLOUR@@A+1
  038fd	51		 push	 ecx
  038fe	0f b6 15 02 00
	00 00		 movzx	 edx, BYTE PTR ?ui_option_text_hilite_colour@@3UREAL_COLOUR@@A+2
  03905	52		 push	 edx
  03906	6a 22		 push	 34			; 00000022H
  03908	6a 00		 push	 0
  0390a	0f b6 05 00 00
	00 00		 movzx	 eax, BYTE PTR ?ui_option_text_hilite_colour@@3UREAL_COLOUR@@A
  03911	50		 push	 eax
  03912	0f b6 0d 01 00
	00 00		 movzx	 ecx, BYTE PTR ?ui_option_text_hilite_colour@@3UREAL_COLOUR@@A+1
  03919	51		 push	 ecx
  0391a	0f b6 15 02 00
	00 00		 movzx	 edx, BYTE PTR ?ui_option_text_hilite_colour@@3UREAL_COLOUR@@A+2
  03921	52		 push	 edx
  03922	6a 23		 push	 35			; 00000023H
  03924	68 ff 00 00 00	 push	 255			; 000000ffH
  03929	0f b6 05 00 00
	00 00		 movzx	 eax, BYTE PTR ?ui_option_text_default_colour@@3UREAL_COLOUR@@A
  03930	50		 push	 eax
  03931	0f b6 0d 01 00
	00 00		 movzx	 ecx, BYTE PTR ?ui_option_text_default_colour@@3UREAL_COLOUR@@A+1
  03938	51		 push	 ecx
  03939	0f b6 15 02 00
	00 00		 movzx	 edx, BYTE PTR ?ui_option_text_default_colour@@3UREAL_COLOUR@@A+2
  03940	52		 push	 edx
  03941	6a 14		 push	 20			; 00000014H
  03943	6a 00		 push	 0
  03945	0f b6 05 00 00
	00 00		 movzx	 eax, BYTE PTR ?ui_option_text_default_colour@@3UREAL_COLOUR@@A
  0394c	50		 push	 eax
  0394d	0f b6 0d 01 00
	00 00		 movzx	 ecx, BYTE PTR ?ui_option_text_default_colour@@3UREAL_COLOUR@@A+1
  03954	51		 push	 ecx
  03955	0f b6 15 02 00
	00 00		 movzx	 edx, BYTE PTR ?ui_option_text_default_colour@@3UREAL_COLOUR@@A+2
  0395c	52		 push	 edx
  0395d	6a 15		 push	 21			; 00000015H
  0395f	68 00 00 00 00	 push	 OFFSET ??_C@_00CNPNBAHC@@
  03964	6a 4a		 push	 74			; 0000004aH
  03966	6a 01		 push	 1
  03968	6a 4b		 push	 75			; 0000004bH
  0396a	83 ec 08	 sub	 esp, 8
  0396d	f2 0f 10 05 00
	00 00 00	 movsd	 xmm0, QWORD PTR __real@3fc24dd300000000
  03975	f2 0f 11 04 24	 movsd	 QWORD PTR [esp], xmm0
  0397a	8b 45 fc	 mov	 eax, DWORD PTR _i$[ebp]
  0397d	8b 8c 85 38 ff
	ff ff		 mov	 ecx, DWORD PTR _change_array$[ebp+eax*4]
  03984	51		 push	 ecx
  03985	8b 55 fc	 mov	 edx, DWORD PTR _i$[ebp]
  03988	8b 84 95 38 ff
	ff ff		 mov	 eax, DWORD PTR _change_array$[ebp+edx*4]
  0398f	8b 08		 mov	 ecx, DWORD PTR [eax]
  03991	8b 14 8d 00 00
	00 00		 mov	 edx, DWORD PTR ?fn_get_ui_object_x_end@@3PAP6GMPAUUI_OBJECT@@@ZA[ecx*4]
  03998	ff d2		 call	 edx
  0399a	d9 9d f4 fe ff
	ff		 fstp	 DWORD PTR tv5080[ebp]
  039a0	f3 0f 10 85 f4
	fe ff ff	 movss	 xmm0, DWORD PTR tv5080[ebp]
  039a8	f3 0f 58 05 00
	00 00 00	 addss	 xmm0, DWORD PTR __real@3c03126f
  039b0	f3 0f 5a c0	 cvtss2sd xmm0, xmm0
  039b4	83 ec 08	 sub	 esp, 8
  039b7	f2 0f 11 04 24	 movsd	 QWORD PTR [esp], xmm0
  039bc	6a 58		 push	 88			; 00000058H
  039be	68 ff 00 00 00	 push	 255			; 000000ffH
  039c3	6a 2f		 push	 47			; 0000002fH
  039c5	6a 7c		 push	 124			; 0000007cH
  039c7	68 fe 00 00 00	 push	 254			; 000000feH
  039cc	6a 13		 push	 19			; 00000013H
  039ce	6a 02		 push	 2
  039d0	6a 12		 push	 18			; 00000012H
  039d2	a1 00 00 00 00	 mov	 eax, DWORD PTR ?trackir_area@@3PAUUI_OBJECT@@A ; trackir_area
  039d7	50		 push	 eax
  039d8	6a 32		 push	 50			; 00000032H
  039da	6a 05		 push	 5
  039dc	e8 00 00 00 00	 call	 ?create_ui_object@@YAPAUUI_OBJECT@@HZZ ; create_ui_object
  039e1	81 c4 c0 00 00
	00		 add	 esp, 192		; 000000c0H
  039e7	a3 00 00 00 00	 mov	 DWORD PTR ?trackir_option_button@@3PAUUI_OBJECT@@A, eax ; trackir_option_button

; 2225 : 	(
; 2226 : 		UI_TYPE_TEXT,
; 2227 : 		UI_ATTR_PARENT (trackir_area),
; 2228 : 		UI_ATTR_FONT_TYPE (/*UI_FONT_THICK_ITALIC_ARIAL_18*/UI_FONT_ITALIC_ARIAL_14),
; 2229 : 		UI_ATTR_FONT_COLOUR (254, 124, 47, 255),
; 2230 : 		UI_ATTR_VIRTUAL_POSITION (get_ui_object_x_end (change_array [i]) + OPTION_BUTTON_TEXT_OFFSET_X, OPTION_BOX_TEXT_OFFSET_Y),
; 2231 : 		UI_ATTR_TEXT_JUSTIFY (TEXT_JUSTIFY_LEFT_CENTRE),
; 2232 : 		UI_ATTR_TEXT (""),
; 2233 :       UI_ATTR_FONT_COLOUR_START (ui_option_text_default_colour.r, ui_option_text_default_colour.g, ui_option_text_default_colour.b, 0),
; 2234 :       UI_ATTR_FONT_COLOUR_END (ui_option_text_default_colour.r, ui_option_text_default_colour.g, ui_option_text_default_colour.b, 255),
; 2235 :       UI_ATTR_HIGHLIGHTED_FONT_COLOUR_START (ui_option_text_hilite_colour.r, ui_option_text_hilite_colour.g, ui_option_text_hilite_colour.b, 0),
; 2236 :       UI_ATTR_HIGHLIGHTED_FONT_COLOUR_END (ui_option_text_hilite_colour.r, ui_option_text_hilite_colour.g, ui_option_text_hilite_colour.b, 255),
; 2237 : 		UI_ATTR_HIGHLIGHTABLE (TRUE),
; 2238 : 		UI_ATTR_CLEAR (TRUE),
; 2239 : 		UI_ATTR_NOTIFY_ON (NOTIFY_TYPE_BUTTON_UP),
; 2240 : 		UI_ATTR_FUNCTION (notify_trackir_option_button),
; 2241 : 		UI_ATTR_END
; 2242 : 	);
; 2243 : 
; 2244 : 	preprocess_translation_object_size (change_array [i], trackir_option_button, option_boolean_text, 2, RESIZE_OPTION_CYCLE_BUTTON);

  039ec	6a 01		 push	 1
  039ee	6a 02		 push	 2
  039f0	68 00 00 00 00	 push	 OFFSET ?option_boolean_text@@3PAPBDA
  039f5	a1 00 00 00 00	 mov	 eax, DWORD PTR ?trackir_option_button@@3PAUUI_OBJECT@@A ; trackir_option_button
  039fa	50		 push	 eax
  039fb	8b 4d fc	 mov	 ecx, DWORD PTR _i$[ebp]
  039fe	8b 94 8d 38 ff
	ff ff		 mov	 edx, DWORD PTR _change_array$[ebp+ecx*4]
  03a05	52		 push	 edx
  03a06	e8 00 00 00 00	 call	 ?preprocess_translation_object_size@@YGXPAUUI_OBJECT@@0PAPBDHW4RESIZE_UI_OBJECT_TYPES@@@Z ; preprocess_translation_object_size

; 2245 : 	// Retro 10Jul2004 end
; 2246 : 
; 2247 : 	// Retro 17 Jul2004
; 2248 : 	// Shamelessly copied from OP_INSND.C
; 2249 : 	// Joystick Look Sensitivity Controls ( "+ 30 -" or such)
; 2250 : 	//
; 2251 : 	
; 2252 : 	create_ui_object

  03a0b	6a 11		 push	 17			; 00000011H
  03a0d	6a 01		 push	 1
  03a0f	6a 07		 push	 7
  03a11	6a 01		 push	 1
  03a13	6a 1b		 push	 27			; 0000001bH
  03a15	68 ff 00 00 00	 push	 255			; 000000ffH
  03a1a	0f b6 05 00 00
	00 00		 movzx	 eax, BYTE PTR ?ui_option_text_hilite_colour@@3UREAL_COLOUR@@A
  03a21	50		 push	 eax
  03a22	0f b6 0d 01 00
	00 00		 movzx	 ecx, BYTE PTR ?ui_option_text_hilite_colour@@3UREAL_COLOUR@@A+1
  03a29	51		 push	 ecx
  03a2a	0f b6 15 02 00
	00 00		 movzx	 edx, BYTE PTR ?ui_option_text_hilite_colour@@3UREAL_COLOUR@@A+2
  03a31	52		 push	 edx
  03a32	6a 22		 push	 34			; 00000022H
  03a34	6a 00		 push	 0
  03a36	0f b6 05 00 00
	00 00		 movzx	 eax, BYTE PTR ?ui_option_text_hilite_colour@@3UREAL_COLOUR@@A
  03a3d	50		 push	 eax
  03a3e	0f b6 0d 01 00
	00 00		 movzx	 ecx, BYTE PTR ?ui_option_text_hilite_colour@@3UREAL_COLOUR@@A+1
  03a45	51		 push	 ecx
  03a46	0f b6 15 02 00
	00 00		 movzx	 edx, BYTE PTR ?ui_option_text_hilite_colour@@3UREAL_COLOUR@@A+2
  03a4d	52		 push	 edx
  03a4e	6a 23		 push	 35			; 00000023H
  03a50	68 ff 00 00 00	 push	 255			; 000000ffH
  03a55	0f b6 05 00 00
	00 00		 movzx	 eax, BYTE PTR ?ui_option_text_default_colour@@3UREAL_COLOUR@@A
  03a5c	50		 push	 eax
  03a5d	0f b6 0d 01 00
	00 00		 movzx	 ecx, BYTE PTR ?ui_option_text_default_colour@@3UREAL_COLOUR@@A+1
  03a64	51		 push	 ecx
  03a65	0f b6 15 02 00
	00 00		 movzx	 edx, BYTE PTR ?ui_option_text_default_colour@@3UREAL_COLOUR@@A+2
  03a6c	52		 push	 edx
  03a6d	6a 14		 push	 20			; 00000014H
  03a6f	6a 00		 push	 0
  03a71	0f b6 05 00 00
	00 00		 movzx	 eax, BYTE PTR ?ui_option_text_default_colour@@3UREAL_COLOUR@@A
  03a78	50		 push	 eax
  03a79	0f b6 0d 01 00
	00 00		 movzx	 ecx, BYTE PTR ?ui_option_text_default_colour@@3UREAL_COLOUR@@A+1
  03a80	51		 push	 ecx
  03a81	0f b6 15 02 00
	00 00		 movzx	 edx, BYTE PTR ?ui_option_text_default_colour@@3UREAL_COLOUR@@A+2
  03a88	52		 push	 edx
  03a89	6a 15		 push	 21			; 00000015H
  03a8b	6a 01		 push	 1
  03a8d	6a 12		 push	 18			; 00000012H
  03a8f	68 00 00 00 00	 push	 OFFSET ?notify_joylook_sensitivity_down_button@@YGXPAUUI_OBJECT@@PAX@Z ; notify_joylook_sensitivity_down_button
  03a94	6a 16		 push	 22			; 00000016H
  03a96	68 00 00 00 00	 push	 OFFSET ??_C@_01JOAMLHOP@?9@
  03a9b	6a 4a		 push	 74			; 0000004aH
  03a9d	83 ec 08	 sub	 esp, 8
  03aa0	f2 0f 10 05 00
	00 00 00	 movsd	 xmm0, QWORD PTR __real@3ff0000000000000
  03aa8	f2 0f 11 04 24	 movsd	 QWORD PTR [esp], xmm0
  03aad	83 ec 08	 sub	 esp, 8
  03ab0	f2 0f 10 05 00
	00 00 00	 movsd	 xmm0, QWORD PTR __real@3fd51eb851eb851f
  03ab8	f2 0f 11 04 24	 movsd	 QWORD PTR [esp], xmm0
  03abd	6a 59		 push	 89			; 00000059H
  03abf	83 ec 08	 sub	 esp, 8
  03ac2	0f 57 c0	 xorps	 xmm0, xmm0
  03ac5	f2 0f 11 04 24	 movsd	 QWORD PTR [esp], xmm0
  03aca	83 ec 08	 sub	 esp, 8
  03acd	0f 57 c0	 xorps	 xmm0, xmm0
  03ad0	f2 0f 11 04 24	 movsd	 QWORD PTR [esp], xmm0
  03ad5	6a 58		 push	 88			; 00000058H
  03ad7	a1 00 00 00 00	 mov	 eax, DWORD PTR ?joylook_sensitivity_area@@3PAUUI_OBJECT@@A ; joylook_sensitivity_area
  03adc	50		 push	 eax
  03add	6a 32		 push	 50			; 00000032H
  03adf	6a 01		 push	 1
  03ae1	e8 00 00 00 00	 call	 ?create_ui_object@@YAPAUUI_OBJECT@@HZZ ; create_ui_object
  03ae6	81 c4 b0 00 00
	00		 add	 esp, 176		; 000000b0H

; 2253 : 	(
; 2254 : 		UI_TYPE_AREA,
; 2255 : 		UI_ATTR_PARENT (joylook_sensitivity_area),
; 2256 : 		UI_ATTR_VIRTUAL_POSITION (0.0, 0.0),
; 2257 : 		UI_ATTR_VIRTUAL_SIZE (0.33, 1.0),
; 2258 : 		UI_ATTR_TEXT ("-"),
; 2259 : 		UI_ATTR_FUNCTION (notify_joylook_sensitivity_down_button),
; 2260 : 		UI_ATTR_FONT_TYPE (/*UI_FONT_THICK_ARIAL_18*/UI_FONT_ARIAL_14),
; 2261 : 	    UI_ATTR_FONT_COLOUR_START (ui_option_text_default_colour.r, ui_option_text_default_colour.g, ui_option_text_default_colour.b, 0),
; 2262 :    	UI_ATTR_FONT_COLOUR_END (ui_option_text_default_colour.r, ui_option_text_default_colour.g, ui_option_text_default_colour.b, 255),
; 2263 : 	    UI_ATTR_HIGHLIGHTED_FONT_COLOUR_START (ui_option_text_hilite_colour.r, ui_option_text_hilite_colour.g, ui_option_text_hilite_colour.b, 0),
; 2264 :    	UI_ATTR_HIGHLIGHTED_FONT_COLOUR_END (ui_option_text_hilite_colour.r, ui_option_text_hilite_colour.g, ui_option_text_hilite_colour.b, 255),
; 2265 : 		UI_ATTR_HIGHLIGHTABLE (TRUE),
; 2266 : 		UI_ATTR_CLEAR (TRUE),
; 2267 : 		UI_ATTR_END
; 2268 : 	);
; 2269 : 
; 2270 : 	create_ui_object

  03aec	6a 11		 push	 17			; 00000011H
  03aee	6a 01		 push	 1
  03af0	6a 07		 push	 7
  03af2	68 00 00 00 00	 push	 OFFSET ?notify_joylook_sensitivity_up_button@@YGXPAUUI_OBJECT@@PAX@Z ; notify_joylook_sensitivity_up_button
  03af7	6a 16		 push	 22			; 00000016H
  03af9	6a 01		 push	 1
  03afb	6a 1b		 push	 27			; 0000001bH
  03afd	68 ff 00 00 00	 push	 255			; 000000ffH
  03b02	0f b6 05 00 00
	00 00		 movzx	 eax, BYTE PTR ?ui_option_text_hilite_colour@@3UREAL_COLOUR@@A
  03b09	50		 push	 eax
  03b0a	0f b6 0d 01 00
	00 00		 movzx	 ecx, BYTE PTR ?ui_option_text_hilite_colour@@3UREAL_COLOUR@@A+1
  03b11	51		 push	 ecx
  03b12	0f b6 15 02 00
	00 00		 movzx	 edx, BYTE PTR ?ui_option_text_hilite_colour@@3UREAL_COLOUR@@A+2
  03b19	52		 push	 edx
  03b1a	6a 22		 push	 34			; 00000022H
  03b1c	6a 00		 push	 0
  03b1e	0f b6 05 00 00
	00 00		 movzx	 eax, BYTE PTR ?ui_option_text_hilite_colour@@3UREAL_COLOUR@@A
  03b25	50		 push	 eax
  03b26	0f b6 0d 01 00
	00 00		 movzx	 ecx, BYTE PTR ?ui_option_text_hilite_colour@@3UREAL_COLOUR@@A+1
  03b2d	51		 push	 ecx
  03b2e	0f b6 15 02 00
	00 00		 movzx	 edx, BYTE PTR ?ui_option_text_hilite_colour@@3UREAL_COLOUR@@A+2
  03b35	52		 push	 edx
  03b36	6a 23		 push	 35			; 00000023H
  03b38	68 ff 00 00 00	 push	 255			; 000000ffH
  03b3d	0f b6 05 00 00
	00 00		 movzx	 eax, BYTE PTR ?ui_option_text_default_colour@@3UREAL_COLOUR@@A
  03b44	50		 push	 eax
  03b45	0f b6 0d 01 00
	00 00		 movzx	 ecx, BYTE PTR ?ui_option_text_default_colour@@3UREAL_COLOUR@@A+1
  03b4c	51		 push	 ecx
  03b4d	0f b6 15 02 00
	00 00		 movzx	 edx, BYTE PTR ?ui_option_text_default_colour@@3UREAL_COLOUR@@A+2
  03b54	52		 push	 edx
  03b55	6a 14		 push	 20			; 00000014H
  03b57	6a 00		 push	 0
  03b59	0f b6 05 00 00
	00 00		 movzx	 eax, BYTE PTR ?ui_option_text_default_colour@@3UREAL_COLOUR@@A
  03b60	50		 push	 eax
  03b61	0f b6 0d 01 00
	00 00		 movzx	 ecx, BYTE PTR ?ui_option_text_default_colour@@3UREAL_COLOUR@@A+1
  03b68	51		 push	 ecx
  03b69	0f b6 15 02 00
	00 00		 movzx	 edx, BYTE PTR ?ui_option_text_default_colour@@3UREAL_COLOUR@@A+2
  03b70	52		 push	 edx
  03b71	6a 15		 push	 21			; 00000015H
  03b73	6a 01		 push	 1
  03b75	6a 12		 push	 18			; 00000012H
  03b77	68 00 00 00 00	 push	 OFFSET ??_C@_01MIFGBAGJ@?$CL@
  03b7c	6a 4a		 push	 74			; 0000004aH
  03b7e	83 ec 08	 sub	 esp, 8
  03b81	f2 0f 10 05 00
	00 00 00	 movsd	 xmm0, QWORD PTR __real@3ff0000000000000
  03b89	f2 0f 11 04 24	 movsd	 QWORD PTR [esp], xmm0
  03b8e	83 ec 08	 sub	 esp, 8
  03b91	f2 0f 10 05 00
	00 00 00	 movsd	 xmm0, QWORD PTR __real@3fd51eb851eb851f
  03b99	f2 0f 11 04 24	 movsd	 QWORD PTR [esp], xmm0
  03b9e	6a 59		 push	 89			; 00000059H
  03ba0	83 ec 08	 sub	 esp, 8
  03ba3	0f 57 c0	 xorps	 xmm0, xmm0
  03ba6	f2 0f 11 04 24	 movsd	 QWORD PTR [esp], xmm0
  03bab	83 ec 08	 sub	 esp, 8
  03bae	f2 0f 10 05 00
	00 00 00	 movsd	 xmm0, QWORD PTR __real@3fe570a3d70a3d71
  03bb6	f2 0f 11 04 24	 movsd	 QWORD PTR [esp], xmm0
  03bbb	6a 58		 push	 88			; 00000058H
  03bbd	a1 00 00 00 00	 mov	 eax, DWORD PTR ?joylook_sensitivity_area@@3PAUUI_OBJECT@@A ; joylook_sensitivity_area
  03bc2	50		 push	 eax
  03bc3	6a 32		 push	 50			; 00000032H
  03bc5	6a 01		 push	 1
  03bc7	e8 00 00 00 00	 call	 ?create_ui_object@@YAPAUUI_OBJECT@@HZZ ; create_ui_object
  03bcc	81 c4 b0 00 00
	00		 add	 esp, 176		; 000000b0H

; 2271 : 	(
; 2272 : 		UI_TYPE_AREA,
; 2273 : 		UI_ATTR_PARENT (joylook_sensitivity_area),
; 2274 : 		UI_ATTR_VIRTUAL_POSITION (0.67, 0.0),
; 2275 : 		UI_ATTR_VIRTUAL_SIZE (0.33, 1.0),
; 2276 : 		UI_ATTR_TEXT ("+"),
; 2277 : 		UI_ATTR_FONT_TYPE (/*UI_FONT_THICK_ARIAL_18*/UI_FONT_ARIAL_14),
; 2278 : 	    UI_ATTR_FONT_COLOUR_START (ui_option_text_default_colour.r, ui_option_text_default_colour.g, ui_option_text_default_colour.b, 0),
; 2279 :    	UI_ATTR_FONT_COLOUR_END (ui_option_text_default_colour.r, ui_option_text_default_colour.g, ui_option_text_default_colour.b, 255),
; 2280 : 	    UI_ATTR_HIGHLIGHTED_FONT_COLOUR_START (ui_option_text_hilite_colour.r, ui_option_text_hilite_colour.g, ui_option_text_hilite_colour.b, 0),
; 2281 :    	UI_ATTR_HIGHLIGHTED_FONT_COLOUR_END (ui_option_text_hilite_colour.r, ui_option_text_hilite_colour.g, ui_option_text_hilite_colour.b, 255),
; 2282 : 		UI_ATTR_HIGHLIGHTABLE (TRUE),
; 2283 : 		UI_ATTR_FUNCTION (notify_joylook_sensitivity_up_button),
; 2284 : 		UI_ATTR_CLEAR (TRUE),
; 2285 : 		UI_ATTR_END
; 2286 : 	);
; 2287 : 
; 2288 : 	create_ui_object

  03bd2	6a 11		 push	 17			; 00000011H
  03bd4	6a 01		 push	 1
  03bd6	6a 07		 push	 7
  03bd8	68 00 00 00 00	 push	 OFFSET ?draw_joylook_sensitivity@@YGXPAUUI_OBJECT@@PAX@Z ; draw_joylook_sensitivity
  03bdd	6a 0f		 push	 15			; 0000000fH
  03bdf	68 ff 00 00 00	 push	 255			; 000000ffH
  03be4	0f b6 05 00 00
	00 00		 movzx	 eax, BYTE PTR ?ui_option_title_text_colour@@3UREAL_COLOUR@@A
  03beb	50		 push	 eax
  03bec	0f b6 0d 01 00
	00 00		 movzx	 ecx, BYTE PTR ?ui_option_title_text_colour@@3UREAL_COLOUR@@A+1
  03bf3	51		 push	 ecx
  03bf4	0f b6 15 02 00
	00 00		 movzx	 edx, BYTE PTR ?ui_option_title_text_colour@@3UREAL_COLOUR@@A+2
  03bfb	52		 push	 edx
  03bfc	6a 14		 push	 20			; 00000014H
  03bfe	6a 00		 push	 0
  03c00	0f b6 05 00 00
	00 00		 movzx	 eax, BYTE PTR ?ui_option_title_text_colour@@3UREAL_COLOUR@@A
  03c07	50		 push	 eax
  03c08	0f b6 0d 01 00
	00 00		 movzx	 ecx, BYTE PTR ?ui_option_title_text_colour@@3UREAL_COLOUR@@A+1
  03c0f	51		 push	 ecx
  03c10	0f b6 15 02 00
	00 00		 movzx	 edx, BYTE PTR ?ui_option_title_text_colour@@3UREAL_COLOUR@@A+2
  03c17	52		 push	 edx
  03c18	6a 15		 push	 21			; 00000015H
  03c1a	6a 01		 push	 1
  03c1c	6a 12		 push	 18			; 00000012H
  03c1e	68 00 00 00 00	 push	 OFFSET ??_C@_00CNPNBAHC@@
  03c23	6a 4a		 push	 74			; 0000004aH
  03c25	83 ec 08	 sub	 esp, 8
  03c28	f2 0f 10 05 00
	00 00 00	 movsd	 xmm0, QWORD PTR __real@3ff0000000000000
  03c30	f2 0f 11 04 24	 movsd	 QWORD PTR [esp], xmm0
  03c35	83 ec 08	 sub	 esp, 8
  03c38	f2 0f 10 05 00
	00 00 00	 movsd	 xmm0, QWORD PTR __real@3fd5c28f5c28f5c3
  03c40	f2 0f 11 04 24	 movsd	 QWORD PTR [esp], xmm0
  03c45	6a 59		 push	 89			; 00000059H
  03c47	83 ec 08	 sub	 esp, 8
  03c4a	0f 57 c0	 xorps	 xmm0, xmm0
  03c4d	f2 0f 11 04 24	 movsd	 QWORD PTR [esp], xmm0
  03c52	83 ec 08	 sub	 esp, 8
  03c55	f2 0f 10 05 00
	00 00 00	 movsd	 xmm0, QWORD PTR __real@3fd51eb851eb851f
  03c5d	f2 0f 11 04 24	 movsd	 QWORD PTR [esp], xmm0
  03c62	6a 58		 push	 88			; 00000058H
  03c64	a1 00 00 00 00	 mov	 eax, DWORD PTR ?joylook_sensitivity_area@@3PAUUI_OBJECT@@A ; joylook_sensitivity_area
  03c69	50		 push	 eax
  03c6a	6a 32		 push	 50			; 00000032H
  03c6c	6a 01		 push	 1
  03c6e	e8 00 00 00 00	 call	 ?create_ui_object@@YAPAUUI_OBJECT@@HZZ ; create_ui_object
  03c73	81 c4 80 00 00
	00		 add	 esp, 128		; 00000080H

; 2289 : 	(
; 2290 : 		UI_TYPE_AREA,
; 2291 : 		UI_ATTR_PARENT (joylook_sensitivity_area),
; 2292 : 		UI_ATTR_VIRTUAL_POSITION (0.33, 0.0),
; 2293 : 		UI_ATTR_VIRTUAL_SIZE (0.34, 1.0),
; 2294 : 		UI_ATTR_TEXT (""),
; 2295 : 		UI_ATTR_FONT_TYPE (/*UI_FONT_THICK_ARIAL_18*/UI_FONT_ARIAL_14),
; 2296 : 		UI_ATTR_FONT_COLOUR_START (ui_option_title_text_colour.r, ui_option_title_text_colour.g, ui_option_title_text_colour.b, 0),
; 2297 : 		UI_ATTR_FONT_COLOUR_END (ui_option_title_text_colour.r, ui_option_title_text_colour.g, ui_option_title_text_colour.b, 255),
; 2298 : 		UI_ATTR_DRAW_FUNCTION (draw_joylook_sensitivity),
; 2299 : 		UI_ATTR_CLEAR (TRUE),
; 2300 : 		UI_ATTR_END
; 2301 : 	);
; 2302 : 
; 2303 : 	// Retro 17Jul2004 end
; 2304 : 
; 2305 : 	// Retro 28Aug2004
; 2306 : 	create_ui_object

  03c79	6a 11		 push	 17			; 00000011H
  03c7b	6a 01		 push	 1
  03c7d	6a 07		 push	 7
  03c7f	6a 01		 push	 1
  03c81	6a 1b		 push	 27			; 0000001bH
  03c83	68 ff 00 00 00	 push	 255			; 000000ffH
  03c88	0f b6 05 00 00
	00 00		 movzx	 eax, BYTE PTR ?ui_option_text_hilite_colour@@3UREAL_COLOUR@@A
  03c8f	50		 push	 eax
  03c90	0f b6 0d 01 00
	00 00		 movzx	 ecx, BYTE PTR ?ui_option_text_hilite_colour@@3UREAL_COLOUR@@A+1
  03c97	51		 push	 ecx
  03c98	0f b6 15 02 00
	00 00		 movzx	 edx, BYTE PTR ?ui_option_text_hilite_colour@@3UREAL_COLOUR@@A+2
  03c9f	52		 push	 edx
  03ca0	6a 22		 push	 34			; 00000022H
  03ca2	6a 00		 push	 0
  03ca4	0f b6 05 00 00
	00 00		 movzx	 eax, BYTE PTR ?ui_option_text_hilite_colour@@3UREAL_COLOUR@@A
  03cab	50		 push	 eax
  03cac	0f b6 0d 01 00
	00 00		 movzx	 ecx, BYTE PTR ?ui_option_text_hilite_colour@@3UREAL_COLOUR@@A+1
  03cb3	51		 push	 ecx
  03cb4	0f b6 15 02 00
	00 00		 movzx	 edx, BYTE PTR ?ui_option_text_hilite_colour@@3UREAL_COLOUR@@A+2
  03cbb	52		 push	 edx
  03cbc	6a 23		 push	 35			; 00000023H
  03cbe	68 ff 00 00 00	 push	 255			; 000000ffH
  03cc3	0f b6 05 00 00
	00 00		 movzx	 eax, BYTE PTR ?ui_option_text_default_colour@@3UREAL_COLOUR@@A
  03cca	50		 push	 eax
  03ccb	0f b6 0d 01 00
	00 00		 movzx	 ecx, BYTE PTR ?ui_option_text_default_colour@@3UREAL_COLOUR@@A+1
  03cd2	51		 push	 ecx
  03cd3	0f b6 15 02 00
	00 00		 movzx	 edx, BYTE PTR ?ui_option_text_default_colour@@3UREAL_COLOUR@@A+2
  03cda	52		 push	 edx
  03cdb	6a 14		 push	 20			; 00000014H
  03cdd	6a 00		 push	 0
  03cdf	0f b6 05 00 00
	00 00		 movzx	 eax, BYTE PTR ?ui_option_text_default_colour@@3UREAL_COLOUR@@A
  03ce6	50		 push	 eax
  03ce7	0f b6 0d 01 00
	00 00		 movzx	 ecx, BYTE PTR ?ui_option_text_default_colour@@3UREAL_COLOUR@@A+1
  03cee	51		 push	 ecx
  03cef	0f b6 15 02 00
	00 00		 movzx	 edx, BYTE PTR ?ui_option_text_default_colour@@3UREAL_COLOUR@@A+2
  03cf6	52		 push	 edx
  03cf7	6a 15		 push	 21			; 00000015H
  03cf9	6a 01		 push	 1
  03cfb	6a 12		 push	 18			; 00000012H
  03cfd	68 00 00 00 00	 push	 OFFSET ?notify_autoconfigure_button@@YGXPAUUI_OBJECT@@PAX@Z ; notify_autoconfigure_button
  03d02	6a 16		 push	 22			; 00000016H
  03d04	68 00 00 00 00	 push	 OFFSET ??_C@_0O@DCLDDLLA@Autoconfigure@
  03d09	e8 00 00 00 00	 call	 ?get_trans@@YGPBDPBD@Z	; get_trans
  03d0e	50		 push	 eax
  03d0f	6a 4a		 push	 74			; 0000004aH
  03d11	83 ec 08	 sub	 esp, 8
  03d14	f2 0f 10 05 00
	00 00 00	 movsd	 xmm0, QWORD PTR __real@3ff0000000000000
  03d1c	f2 0f 11 04 24	 movsd	 QWORD PTR [esp], xmm0
  03d21	83 ec 08	 sub	 esp, 8
  03d24	f2 0f 10 05 00
	00 00 00	 movsd	 xmm0, QWORD PTR __real@3ff0000000000000
  03d2c	f2 0f 11 04 24	 movsd	 QWORD PTR [esp], xmm0
  03d31	6a 59		 push	 89			; 00000059H
  03d33	83 ec 08	 sub	 esp, 8
  03d36	0f 57 c0	 xorps	 xmm0, xmm0
  03d39	f2 0f 11 04 24	 movsd	 QWORD PTR [esp], xmm0
  03d3e	83 ec 08	 sub	 esp, 8
  03d41	0f 57 c0	 xorps	 xmm0, xmm0
  03d44	f2 0f 11 04 24	 movsd	 QWORD PTR [esp], xmm0
  03d49	6a 58		 push	 88			; 00000058H
  03d4b	a1 00 00 00 00	 mov	 eax, DWORD PTR ?autoconfigure_area@@3PAUUI_OBJECT@@A ; autoconfigure_area
  03d50	50		 push	 eax
  03d51	6a 32		 push	 50			; 00000032H
  03d53	6a 01		 push	 1
  03d55	e8 00 00 00 00	 call	 ?create_ui_object@@YAPAUUI_OBJECT@@HZZ ; create_ui_object
  03d5a	81 c4 b0 00 00
	00		 add	 esp, 176		; 000000b0H

; 2307 : 	(
; 2308 : 		UI_TYPE_AREA,
; 2309 : 		UI_ATTR_PARENT (autoconfigure_area),
; 2310 : 		UI_ATTR_VIRTUAL_POSITION (0.0, 0.0),
; 2311 : 		UI_ATTR_VIRTUAL_SIZE (1.0, 1.0),
; 2312 : 		UI_ATTR_TEXT (get_trans ("Autoconfigure")),
; 2313 : 		UI_ATTR_FUNCTION (notify_autoconfigure_button),
; 2314 : 		UI_ATTR_FONT_TYPE (/*UI_FONT_THICK_ARIAL_18*/UI_FONT_ARIAL_14),
; 2315 : 	    UI_ATTR_FONT_COLOUR_START (ui_option_text_default_colour.r, ui_option_text_default_colour.g, ui_option_text_default_colour.b, 0),
; 2316 :    	UI_ATTR_FONT_COLOUR_END (ui_option_text_default_colour.r, ui_option_text_default_colour.g, ui_option_text_default_colour.b, 255),
; 2317 : 	    UI_ATTR_HIGHLIGHTED_FONT_COLOUR_START (ui_option_text_hilite_colour.r, ui_option_text_hilite_colour.g, ui_option_text_hilite_colour.b, 0),
; 2318 :    	UI_ATTR_HIGHLIGHTED_FONT_COLOUR_END (ui_option_text_hilite_colour.r, ui_option_text_hilite_colour.g, ui_option_text_hilite_colour.b, 255),
; 2319 : 		UI_ATTR_HIGHLIGHTABLE (TRUE),
; 2320 : 		UI_ATTR_CLEAR (TRUE),
; 2321 : 		UI_ATTR_END
; 2322 : 	);
; 2323 : 	// Retro 28Aug2004 end
; 2324 : 
; 2325 : 	// Retro 17 Jul2004
; 2326 : 	// Shamelessly copied from OP_INSND.C
; 2327 : 	// Mouselook Sensitivity Controls ( "+ 30 -" or such)
; 2328 : 	//
; 2329 : 	
; 2330 : 	create_ui_object

  03d60	6a 11		 push	 17			; 00000011H
  03d62	6a 01		 push	 1
  03d64	6a 07		 push	 7
  03d66	6a 01		 push	 1
  03d68	6a 1b		 push	 27			; 0000001bH
  03d6a	68 ff 00 00 00	 push	 255			; 000000ffH
  03d6f	0f b6 05 00 00
	00 00		 movzx	 eax, BYTE PTR ?ui_option_text_hilite_colour@@3UREAL_COLOUR@@A
  03d76	50		 push	 eax
  03d77	0f b6 0d 01 00
	00 00		 movzx	 ecx, BYTE PTR ?ui_option_text_hilite_colour@@3UREAL_COLOUR@@A+1
  03d7e	51		 push	 ecx
  03d7f	0f b6 15 02 00
	00 00		 movzx	 edx, BYTE PTR ?ui_option_text_hilite_colour@@3UREAL_COLOUR@@A+2
  03d86	52		 push	 edx
  03d87	6a 22		 push	 34			; 00000022H
  03d89	6a 00		 push	 0
  03d8b	0f b6 05 00 00
	00 00		 movzx	 eax, BYTE PTR ?ui_option_text_hilite_colour@@3UREAL_COLOUR@@A
  03d92	50		 push	 eax
  03d93	0f b6 0d 01 00
	00 00		 movzx	 ecx, BYTE PTR ?ui_option_text_hilite_colour@@3UREAL_COLOUR@@A+1
  03d9a	51		 push	 ecx
  03d9b	0f b6 15 02 00
	00 00		 movzx	 edx, BYTE PTR ?ui_option_text_hilite_colour@@3UREAL_COLOUR@@A+2
  03da2	52		 push	 edx
  03da3	6a 23		 push	 35			; 00000023H
  03da5	68 ff 00 00 00	 push	 255			; 000000ffH
  03daa	0f b6 05 00 00
	00 00		 movzx	 eax, BYTE PTR ?ui_option_text_default_colour@@3UREAL_COLOUR@@A
  03db1	50		 push	 eax
  03db2	0f b6 0d 01 00
	00 00		 movzx	 ecx, BYTE PTR ?ui_option_text_default_colour@@3UREAL_COLOUR@@A+1
  03db9	51		 push	 ecx
  03dba	0f b6 15 02 00
	00 00		 movzx	 edx, BYTE PTR ?ui_option_text_default_colour@@3UREAL_COLOUR@@A+2
  03dc1	52		 push	 edx
  03dc2	6a 14		 push	 20			; 00000014H
  03dc4	6a 00		 push	 0
  03dc6	0f b6 05 00 00
	00 00		 movzx	 eax, BYTE PTR ?ui_option_text_default_colour@@3UREAL_COLOUR@@A
  03dcd	50		 push	 eax
  03dce	0f b6 0d 01 00
	00 00		 movzx	 ecx, BYTE PTR ?ui_option_text_default_colour@@3UREAL_COLOUR@@A+1
  03dd5	51		 push	 ecx
  03dd6	0f b6 15 02 00
	00 00		 movzx	 edx, BYTE PTR ?ui_option_text_default_colour@@3UREAL_COLOUR@@A+2
  03ddd	52		 push	 edx
  03dde	6a 15		 push	 21			; 00000015H
  03de0	6a 01		 push	 1
  03de2	6a 12		 push	 18			; 00000012H
  03de4	68 00 00 00 00	 push	 OFFSET ?notify_mouselook_sensitivity_down_button@@YGXPAUUI_OBJECT@@PAX@Z ; notify_mouselook_sensitivity_down_button
  03de9	6a 16		 push	 22			; 00000016H
  03deb	68 00 00 00 00	 push	 OFFSET ??_C@_01JOAMLHOP@?9@
  03df0	6a 4a		 push	 74			; 0000004aH
  03df2	83 ec 08	 sub	 esp, 8
  03df5	f2 0f 10 05 00
	00 00 00	 movsd	 xmm0, QWORD PTR __real@3ff0000000000000
  03dfd	f2 0f 11 04 24	 movsd	 QWORD PTR [esp], xmm0
  03e02	83 ec 08	 sub	 esp, 8
  03e05	f2 0f 10 05 00
	00 00 00	 movsd	 xmm0, QWORD PTR __real@3fd51eb851eb851f
  03e0d	f2 0f 11 04 24	 movsd	 QWORD PTR [esp], xmm0
  03e12	6a 59		 push	 89			; 00000059H
  03e14	83 ec 08	 sub	 esp, 8
  03e17	0f 57 c0	 xorps	 xmm0, xmm0
  03e1a	f2 0f 11 04 24	 movsd	 QWORD PTR [esp], xmm0
  03e1f	83 ec 08	 sub	 esp, 8
  03e22	0f 57 c0	 xorps	 xmm0, xmm0
  03e25	f2 0f 11 04 24	 movsd	 QWORD PTR [esp], xmm0
  03e2a	6a 58		 push	 88			; 00000058H
  03e2c	a1 00 00 00 00	 mov	 eax, DWORD PTR ?mouselook_sensitivity_area@@3PAUUI_OBJECT@@A ; mouselook_sensitivity_area
  03e31	50		 push	 eax
  03e32	6a 32		 push	 50			; 00000032H
  03e34	6a 01		 push	 1
  03e36	e8 00 00 00 00	 call	 ?create_ui_object@@YAPAUUI_OBJECT@@HZZ ; create_ui_object
  03e3b	81 c4 b0 00 00
	00		 add	 esp, 176		; 000000b0H

; 2331 : 	(
; 2332 : 		UI_TYPE_AREA,
; 2333 : 		UI_ATTR_PARENT (mouselook_sensitivity_area),
; 2334 : 		UI_ATTR_VIRTUAL_POSITION (0.0, 0.0),
; 2335 : 		UI_ATTR_VIRTUAL_SIZE (0.33, 1.0),
; 2336 : 		UI_ATTR_TEXT ("-"),
; 2337 : 		UI_ATTR_FUNCTION (notify_mouselook_sensitivity_down_button),
; 2338 : 		UI_ATTR_FONT_TYPE (/*UI_FONT_THICK_ARIAL_18*/UI_FONT_ARIAL_14),
; 2339 : 	    UI_ATTR_FONT_COLOUR_START (ui_option_text_default_colour.r, ui_option_text_default_colour.g, ui_option_text_default_colour.b, 0),
; 2340 :    	UI_ATTR_FONT_COLOUR_END (ui_option_text_default_colour.r, ui_option_text_default_colour.g, ui_option_text_default_colour.b, 255),
; 2341 : 	    UI_ATTR_HIGHLIGHTED_FONT_COLOUR_START (ui_option_text_hilite_colour.r, ui_option_text_hilite_colour.g, ui_option_text_hilite_colour.b, 0),
; 2342 :    	UI_ATTR_HIGHLIGHTED_FONT_COLOUR_END (ui_option_text_hilite_colour.r, ui_option_text_hilite_colour.g, ui_option_text_hilite_colour.b, 255),
; 2343 : 		UI_ATTR_HIGHLIGHTABLE (TRUE),
; 2344 : 		UI_ATTR_CLEAR (TRUE),
; 2345 : 		UI_ATTR_END
; 2346 : 	);
; 2347 : 
; 2348 : 	create_ui_object

  03e41	6a 11		 push	 17			; 00000011H
  03e43	6a 01		 push	 1
  03e45	6a 07		 push	 7
  03e47	68 00 00 00 00	 push	 OFFSET ?notify_mouselook_sensitivity_up_button@@YGXPAUUI_OBJECT@@PAX@Z ; notify_mouselook_sensitivity_up_button
  03e4c	6a 16		 push	 22			; 00000016H
  03e4e	6a 01		 push	 1
  03e50	6a 1b		 push	 27			; 0000001bH
  03e52	68 ff 00 00 00	 push	 255			; 000000ffH
  03e57	0f b6 05 00 00
	00 00		 movzx	 eax, BYTE PTR ?ui_option_text_hilite_colour@@3UREAL_COLOUR@@A
  03e5e	50		 push	 eax
  03e5f	0f b6 0d 01 00
	00 00		 movzx	 ecx, BYTE PTR ?ui_option_text_hilite_colour@@3UREAL_COLOUR@@A+1
  03e66	51		 push	 ecx
  03e67	0f b6 15 02 00
	00 00		 movzx	 edx, BYTE PTR ?ui_option_text_hilite_colour@@3UREAL_COLOUR@@A+2
  03e6e	52		 push	 edx
  03e6f	6a 22		 push	 34			; 00000022H
  03e71	6a 00		 push	 0
  03e73	0f b6 05 00 00
	00 00		 movzx	 eax, BYTE PTR ?ui_option_text_hilite_colour@@3UREAL_COLOUR@@A
  03e7a	50		 push	 eax
  03e7b	0f b6 0d 01 00
	00 00		 movzx	 ecx, BYTE PTR ?ui_option_text_hilite_colour@@3UREAL_COLOUR@@A+1
  03e82	51		 push	 ecx
  03e83	0f b6 15 02 00
	00 00		 movzx	 edx, BYTE PTR ?ui_option_text_hilite_colour@@3UREAL_COLOUR@@A+2
  03e8a	52		 push	 edx
  03e8b	6a 23		 push	 35			; 00000023H
  03e8d	68 ff 00 00 00	 push	 255			; 000000ffH
  03e92	0f b6 05 00 00
	00 00		 movzx	 eax, BYTE PTR ?ui_option_text_default_colour@@3UREAL_COLOUR@@A
  03e99	50		 push	 eax
  03e9a	0f b6 0d 01 00
	00 00		 movzx	 ecx, BYTE PTR ?ui_option_text_default_colour@@3UREAL_COLOUR@@A+1
  03ea1	51		 push	 ecx
  03ea2	0f b6 15 02 00
	00 00		 movzx	 edx, BYTE PTR ?ui_option_text_default_colour@@3UREAL_COLOUR@@A+2
  03ea9	52		 push	 edx
  03eaa	6a 14		 push	 20			; 00000014H
  03eac	6a 00		 push	 0
  03eae	0f b6 05 00 00
	00 00		 movzx	 eax, BYTE PTR ?ui_option_text_default_colour@@3UREAL_COLOUR@@A
  03eb5	50		 push	 eax
  03eb6	0f b6 0d 01 00
	00 00		 movzx	 ecx, BYTE PTR ?ui_option_text_default_colour@@3UREAL_COLOUR@@A+1
  03ebd	51		 push	 ecx
  03ebe	0f b6 15 02 00
	00 00		 movzx	 edx, BYTE PTR ?ui_option_text_default_colour@@3UREAL_COLOUR@@A+2
  03ec5	52		 push	 edx
  03ec6	6a 15		 push	 21			; 00000015H
  03ec8	6a 01		 push	 1
  03eca	6a 12		 push	 18			; 00000012H
  03ecc	68 00 00 00 00	 push	 OFFSET ??_C@_01MIFGBAGJ@?$CL@
  03ed1	6a 4a		 push	 74			; 0000004aH
  03ed3	83 ec 08	 sub	 esp, 8
  03ed6	f2 0f 10 05 00
	00 00 00	 movsd	 xmm0, QWORD PTR __real@3ff0000000000000
  03ede	f2 0f 11 04 24	 movsd	 QWORD PTR [esp], xmm0
  03ee3	83 ec 08	 sub	 esp, 8
  03ee6	f2 0f 10 05 00
	00 00 00	 movsd	 xmm0, QWORD PTR __real@3fd51eb851eb851f
  03eee	f2 0f 11 04 24	 movsd	 QWORD PTR [esp], xmm0
  03ef3	6a 59		 push	 89			; 00000059H
  03ef5	83 ec 08	 sub	 esp, 8
  03ef8	0f 57 c0	 xorps	 xmm0, xmm0
  03efb	f2 0f 11 04 24	 movsd	 QWORD PTR [esp], xmm0
  03f00	83 ec 08	 sub	 esp, 8
  03f03	f2 0f 10 05 00
	00 00 00	 movsd	 xmm0, QWORD PTR __real@3fe570a3d70a3d71
  03f0b	f2 0f 11 04 24	 movsd	 QWORD PTR [esp], xmm0
  03f10	6a 58		 push	 88			; 00000058H
  03f12	a1 00 00 00 00	 mov	 eax, DWORD PTR ?mouselook_sensitivity_area@@3PAUUI_OBJECT@@A ; mouselook_sensitivity_area
  03f17	50		 push	 eax
  03f18	6a 32		 push	 50			; 00000032H
  03f1a	6a 01		 push	 1
  03f1c	e8 00 00 00 00	 call	 ?create_ui_object@@YAPAUUI_OBJECT@@HZZ ; create_ui_object
  03f21	81 c4 b0 00 00
	00		 add	 esp, 176		; 000000b0H

; 2349 : 	(
; 2350 : 		UI_TYPE_AREA,
; 2351 : 		UI_ATTR_PARENT (mouselook_sensitivity_area),
; 2352 : 		UI_ATTR_VIRTUAL_POSITION (0.67, 0.0),
; 2353 : 		UI_ATTR_VIRTUAL_SIZE (0.33, 1.0),
; 2354 : 		UI_ATTR_TEXT ("+"),
; 2355 : 		UI_ATTR_FONT_TYPE (/*UI_FONT_THICK_ARIAL_18*/UI_FONT_ARIAL_14),
; 2356 : 	    UI_ATTR_FONT_COLOUR_START (ui_option_text_default_colour.r, ui_option_text_default_colour.g, ui_option_text_default_colour.b, 0),
; 2357 :    	UI_ATTR_FONT_COLOUR_END (ui_option_text_default_colour.r, ui_option_text_default_colour.g, ui_option_text_default_colour.b, 255),
; 2358 : 	    UI_ATTR_HIGHLIGHTED_FONT_COLOUR_START (ui_option_text_hilite_colour.r, ui_option_text_hilite_colour.g, ui_option_text_hilite_colour.b, 0),
; 2359 :    	UI_ATTR_HIGHLIGHTED_FONT_COLOUR_END (ui_option_text_hilite_colour.r, ui_option_text_hilite_colour.g, ui_option_text_hilite_colour.b, 255),
; 2360 : 		UI_ATTR_HIGHLIGHTABLE (TRUE),
; 2361 : 		UI_ATTR_FUNCTION (notify_mouselook_sensitivity_up_button),
; 2362 : 		UI_ATTR_CLEAR (TRUE),
; 2363 : 		UI_ATTR_END
; 2364 : 	);
; 2365 : 
; 2366 : 	create_ui_object

  03f27	6a 11		 push	 17			; 00000011H
  03f29	6a 01		 push	 1
  03f2b	6a 07		 push	 7
  03f2d	68 00 00 00 00	 push	 OFFSET ?draw_mouselook_sensitivity@@YGXPAUUI_OBJECT@@PAX@Z ; draw_mouselook_sensitivity
  03f32	6a 0f		 push	 15			; 0000000fH
  03f34	68 ff 00 00 00	 push	 255			; 000000ffH
  03f39	0f b6 05 00 00
	00 00		 movzx	 eax, BYTE PTR ?ui_option_title_text_colour@@3UREAL_COLOUR@@A
  03f40	50		 push	 eax
  03f41	0f b6 0d 01 00
	00 00		 movzx	 ecx, BYTE PTR ?ui_option_title_text_colour@@3UREAL_COLOUR@@A+1
  03f48	51		 push	 ecx
  03f49	0f b6 15 02 00
	00 00		 movzx	 edx, BYTE PTR ?ui_option_title_text_colour@@3UREAL_COLOUR@@A+2
  03f50	52		 push	 edx
  03f51	6a 14		 push	 20			; 00000014H
  03f53	6a 00		 push	 0
  03f55	0f b6 05 00 00
	00 00		 movzx	 eax, BYTE PTR ?ui_option_title_text_colour@@3UREAL_COLOUR@@A
  03f5c	50		 push	 eax
  03f5d	0f b6 0d 01 00
	00 00		 movzx	 ecx, BYTE PTR ?ui_option_title_text_colour@@3UREAL_COLOUR@@A+1
  03f64	51		 push	 ecx
  03f65	0f b6 15 02 00
	00 00		 movzx	 edx, BYTE PTR ?ui_option_title_text_colour@@3UREAL_COLOUR@@A+2
  03f6c	52		 push	 edx
  03f6d	6a 15		 push	 21			; 00000015H
  03f6f	6a 01		 push	 1
  03f71	6a 12		 push	 18			; 00000012H
  03f73	68 00 00 00 00	 push	 OFFSET ??_C@_00CNPNBAHC@@
  03f78	6a 4a		 push	 74			; 0000004aH
  03f7a	83 ec 08	 sub	 esp, 8
  03f7d	f2 0f 10 05 00
	00 00 00	 movsd	 xmm0, QWORD PTR __real@3ff0000000000000
  03f85	f2 0f 11 04 24	 movsd	 QWORD PTR [esp], xmm0
  03f8a	83 ec 08	 sub	 esp, 8
  03f8d	f2 0f 10 05 00
	00 00 00	 movsd	 xmm0, QWORD PTR __real@3fd5c28f5c28f5c3
  03f95	f2 0f 11 04 24	 movsd	 QWORD PTR [esp], xmm0
  03f9a	6a 59		 push	 89			; 00000059H
  03f9c	83 ec 08	 sub	 esp, 8
  03f9f	0f 57 c0	 xorps	 xmm0, xmm0
  03fa2	f2 0f 11 04 24	 movsd	 QWORD PTR [esp], xmm0
  03fa7	83 ec 08	 sub	 esp, 8
  03faa	f2 0f 10 05 00
	00 00 00	 movsd	 xmm0, QWORD PTR __real@3fd51eb851eb851f
  03fb2	f2 0f 11 04 24	 movsd	 QWORD PTR [esp], xmm0
  03fb7	6a 58		 push	 88			; 00000058H
  03fb9	a1 00 00 00 00	 mov	 eax, DWORD PTR ?mouselook_sensitivity_area@@3PAUUI_OBJECT@@A ; mouselook_sensitivity_area
  03fbe	50		 push	 eax
  03fbf	6a 32		 push	 50			; 00000032H
  03fc1	6a 01		 push	 1
  03fc3	e8 00 00 00 00	 call	 ?create_ui_object@@YAPAUUI_OBJECT@@HZZ ; create_ui_object
  03fc8	81 c4 80 00 00
	00		 add	 esp, 128		; 00000080H

; 2367 : 	(
; 2368 : 		UI_TYPE_AREA,
; 2369 : 		UI_ATTR_PARENT (mouselook_sensitivity_area),
; 2370 : 		UI_ATTR_VIRTUAL_POSITION (0.33, 0.0),
; 2371 : 		UI_ATTR_VIRTUAL_SIZE (0.34, 1.0),
; 2372 : 		UI_ATTR_TEXT (""),
; 2373 : 		UI_ATTR_FONT_TYPE (/*UI_FONT_THICK_ARIAL_18*/UI_FONT_ARIAL_14),
; 2374 : 		UI_ATTR_FONT_COLOUR_START (ui_option_title_text_colour.r, ui_option_title_text_colour.g, ui_option_title_text_colour.b, 0),
; 2375 : 		UI_ATTR_FONT_COLOUR_END (ui_option_title_text_colour.r, ui_option_title_text_colour.g, ui_option_title_text_colour.b, 255),
; 2376 : 		UI_ATTR_DRAW_FUNCTION (draw_mouselook_sensitivity),
; 2377 : 		UI_ATTR_CLEAR (TRUE),
; 2378 : 		UI_ATTR_END
; 2379 : 	);
; 2380 : 
; 2381 : 	// Retro 17Jul2004 end
; 2382 : 
; 2383 : 	// keyboard_assist button
; 2384 : 	
; 2385 : 	i++;

  03fce	8b 45 fc	 mov	 eax, DWORD PTR _i$[ebp]
  03fd1	83 c0 01	 add	 eax, 1
  03fd4	89 45 fc	 mov	 DWORD PTR _i$[ebp], eax

; 2386 : 
; 2387 : 	change_array[i] = create_ui_object

  03fd7	6a 11		 push	 17			; 00000011H
  03fd9	a1 00 00 00 00	 mov	 eax, DWORD PTR ?options_box_small@@3PAUTEXTURE_GRAPHIC@@A ; options_box_small
  03fde	50		 push	 eax
  03fdf	6a 4c		 push	 76			; 0000004cH
  03fe1	68 ff 00 00 00	 push	 255			; 000000ffH
  03fe6	68 ff 00 00 00	 push	 255			; 000000ffH
  03feb	68 ff 00 00 00	 push	 255			; 000000ffH
  03ff0	68 ff 00 00 00	 push	 255			; 000000ffH
  03ff5	6a 0a		 push	 10			; 0000000aH
  03ff7	6a 00		 push	 0
  03ff9	68 ff 00 00 00	 push	 255			; 000000ffH
  03ffe	68 ff 00 00 00	 push	 255			; 000000ffH
  04003	68 ff 00 00 00	 push	 255			; 000000ffH
  04008	6a 0b		 push	 11			; 0000000bH
  0400a	83 ec 08	 sub	 esp, 8
  0400d	f2 0f 10 05 00
	00 00 00	 movsd	 xmm0, QWORD PTR __real@3ff0000000000000
  04015	f2 0f 11 04 24	 movsd	 QWORD PTR [esp], xmm0
  0401a	83 ec 08	 sub	 esp, 8
  0401d	f2 0f 10 05 00
	00 00 00	 movsd	 xmm0, QWORD PTR __real@3fbba5e360000000
  04025	f2 0f 11 04 24	 movsd	 QWORD PTR [esp], xmm0
  0402a	6a 59		 push	 89			; 00000059H
  0402c	83 ec 08	 sub	 esp, 8
  0402f	0f 57 c0	 xorps	 xmm0, xmm0
  04032	f2 0f 11 04 24	 movsd	 QWORD PTR [esp], xmm0
  04037	8b 4d fc	 mov	 ecx, DWORD PTR _i$[ebp]
  0403a	8b 54 8d ac	 mov	 edx, DWORD PTR _title_change_array$[ebp+ecx*4]
  0403e	52		 push	 edx
  0403f	8b 45 fc	 mov	 eax, DWORD PTR _i$[ebp]
  04042	8b 4c 85 ac	 mov	 ecx, DWORD PTR _title_change_array$[ebp+eax*4]
  04046	8b 11		 mov	 edx, DWORD PTR [ecx]
  04048	8b 04 95 00 00
	00 00		 mov	 eax, DWORD PTR ?fn_get_ui_object_x_end@@3PAP6GMPAUUI_OBJECT@@@ZA[edx*4]
  0404f	ff d0		 call	 eax
  04051	d9 9d f4 fe ff
	ff		 fstp	 DWORD PTR tv5161[ebp]
  04057	f3 0f 10 85 f4
	fe ff ff	 movss	 xmm0, DWORD PTR tv5161[ebp]
  0405f	8b 4d fc	 mov	 ecx, DWORD PTR _i$[ebp]
  04062	8b 54 8d ac	 mov	 edx, DWORD PTR _title_change_array$[ebp+ecx*4]
  04066	52		 push	 edx
  04067	8b 45 fc	 mov	 eax, DWORD PTR _i$[ebp]
  0406a	8b 4c 85 ac	 mov	 ecx, DWORD PTR _title_change_array$[ebp+eax*4]
  0406e	8b 11		 mov	 edx, DWORD PTR [ecx]
  04070	8b 04 95 00 00
	00 00		 mov	 eax, DWORD PTR ?fn_get_ui_object_x_size_end@@3PAP6GMPAUUI_OBJECT@@@ZA[edx*4]
  04077	f3 0f 11 85 f0
	fe ff ff	 movss	 DWORD PTR tv5289[ebp], xmm0
  0407f	ff d0		 call	 eax
  04081	d9 9d ec fe ff
	ff		 fstp	 DWORD PTR tv5169[ebp]
  04087	f3 0f 10 85 f0
	fe ff ff	 movss	 xmm0, DWORD PTR tv5289[ebp]
  0408f	f3 0f 58 85 ec
	fe ff ff	 addss	 xmm0, DWORD PTR tv5169[ebp]
  04097	f3 0f 58 05 00
	00 00 00	 addss	 xmm0, DWORD PTR __real@3b2a64c3
  0409f	f3 0f 5a c0	 cvtss2sd xmm0, xmm0
  040a3	83 ec 08	 sub	 esp, 8
  040a6	f2 0f 11 04 24	 movsd	 QWORD PTR [esp], xmm0
  040ab	6a 58		 push	 88			; 00000058H
  040ad	8b 0d 00 00 00
	00		 mov	 ecx, DWORD PTR ?keyboard_assist_area@@3PAUUI_OBJECT@@A ; keyboard_assist_area
  040b3	51		 push	 ecx
  040b4	6a 32		 push	 50			; 00000032H
  040b6	6a 01		 push	 1
  040b8	e8 00 00 00 00	 call	 ?create_ui_object@@YAPAUUI_OBJECT@@HZZ ; create_ui_object
  040bd	83 c4 68	 add	 esp, 104		; 00000068H
  040c0	8b 55 fc	 mov	 edx, DWORD PTR _i$[ebp]
  040c3	89 84 95 38 ff
	ff ff		 mov	 DWORD PTR _change_array$[ebp+edx*4], eax

; 2388 : 	(
; 2389 : 		UI_TYPE_AREA,
; 2390 : 		UI_ATTR_PARENT (keyboard_assist_area),
; 2391 : 		UI_ATTR_VIRTUAL_POSITION ((get_ui_object_x_end (title_change_array [i]) + get_ui_object_x_size_end (title_change_array [i]) + OPTION_BOX_GAP_WIDTH), 0.0),
; 2392 : 		UI_ATTR_VIRTUAL_SIZE (OPTION_BOX_SMALL_WIDTH, OPTION_BOX_HEIGHT),
; 2393 : 		UI_ATTR_COLOUR_START ( 255, 255, 255, 0 ),
; 2394 : 		UI_ATTR_COLOUR_END ( 255, 255, 255, 255 ),
; 2395 : 		UI_ATTR_TEXTURE_GRAPHIC (options_box_small),
; 2396 : 		UI_ATTR_END
; 2397 : 	);
; 2398 : 
; 2399 :    keyboard_assist_option_button = create_ui_object

  040ca	6a 11		 push	 17			; 00000011H
  040cc	68 00 00 00 00	 push	 OFFSET ?notify_keyboard_assist_option_button@@YGXPAUUI_OBJECT@@PAX@Z ; notify_keyboard_assist_option_button
  040d1	6a 16		 push	 22			; 00000016H
  040d3	6a 01		 push	 1
  040d5	6a 2f		 push	 47			; 0000002fH
  040d7	6a 01		 push	 1
  040d9	6a 07		 push	 7
  040db	6a 01		 push	 1
  040dd	6a 1b		 push	 27			; 0000001bH
  040df	68 ff 00 00 00	 push	 255			; 000000ffH
  040e4	0f b6 05 00 00
	00 00		 movzx	 eax, BYTE PTR ?ui_option_text_hilite_colour@@3UREAL_COLOUR@@A
  040eb	50		 push	 eax
  040ec	0f b6 0d 01 00
	00 00		 movzx	 ecx, BYTE PTR ?ui_option_text_hilite_colour@@3UREAL_COLOUR@@A+1
  040f3	51		 push	 ecx
  040f4	0f b6 15 02 00
	00 00		 movzx	 edx, BYTE PTR ?ui_option_text_hilite_colour@@3UREAL_COLOUR@@A+2
  040fb	52		 push	 edx
  040fc	6a 22		 push	 34			; 00000022H
  040fe	6a 00		 push	 0
  04100	0f b6 05 00 00
	00 00		 movzx	 eax, BYTE PTR ?ui_option_text_hilite_colour@@3UREAL_COLOUR@@A
  04107	50		 push	 eax
  04108	0f b6 0d 01 00
	00 00		 movzx	 ecx, BYTE PTR ?ui_option_text_hilite_colour@@3UREAL_COLOUR@@A+1
  0410f	51		 push	 ecx
  04110	0f b6 15 02 00
	00 00		 movzx	 edx, BYTE PTR ?ui_option_text_hilite_colour@@3UREAL_COLOUR@@A+2
  04117	52		 push	 edx
  04118	6a 23		 push	 35			; 00000023H
  0411a	68 ff 00 00 00	 push	 255			; 000000ffH
  0411f	0f b6 05 00 00
	00 00		 movzx	 eax, BYTE PTR ?ui_option_text_default_colour@@3UREAL_COLOUR@@A
  04126	50		 push	 eax
  04127	0f b6 0d 01 00
	00 00		 movzx	 ecx, BYTE PTR ?ui_option_text_default_colour@@3UREAL_COLOUR@@A+1
  0412e	51		 push	 ecx
  0412f	0f b6 15 02 00
	00 00		 movzx	 edx, BYTE PTR ?ui_option_text_default_colour@@3UREAL_COLOUR@@A+2
  04136	52		 push	 edx
  04137	6a 14		 push	 20			; 00000014H
  04139	6a 00		 push	 0
  0413b	0f b6 05 00 00
	00 00		 movzx	 eax, BYTE PTR ?ui_option_text_default_colour@@3UREAL_COLOUR@@A
  04142	50		 push	 eax
  04143	0f b6 0d 01 00
	00 00		 movzx	 ecx, BYTE PTR ?ui_option_text_default_colour@@3UREAL_COLOUR@@A+1
  0414a	51		 push	 ecx
  0414b	0f b6 15 02 00
	00 00		 movzx	 edx, BYTE PTR ?ui_option_text_default_colour@@3UREAL_COLOUR@@A+2
  04152	52		 push	 edx
  04153	6a 15		 push	 21			; 00000015H
  04155	68 00 00 00 00	 push	 OFFSET ??_C@_00CNPNBAHC@@
  0415a	6a 4a		 push	 74			; 0000004aH
  0415c	6a 01		 push	 1
  0415e	6a 4b		 push	 75			; 0000004bH
  04160	83 ec 08	 sub	 esp, 8
  04163	f2 0f 10 05 00
	00 00 00	 movsd	 xmm0, QWORD PTR __real@3fc24dd300000000
  0416b	f2 0f 11 04 24	 movsd	 QWORD PTR [esp], xmm0
  04170	8b 45 fc	 mov	 eax, DWORD PTR _i$[ebp]
  04173	8b 8c 85 38 ff
	ff ff		 mov	 ecx, DWORD PTR _change_array$[ebp+eax*4]
  0417a	51		 push	 ecx
  0417b	8b 55 fc	 mov	 edx, DWORD PTR _i$[ebp]
  0417e	8b 84 95 38 ff
	ff ff		 mov	 eax, DWORD PTR _change_array$[ebp+edx*4]
  04185	8b 08		 mov	 ecx, DWORD PTR [eax]
  04187	8b 14 8d 00 00
	00 00		 mov	 edx, DWORD PTR ?fn_get_ui_object_x_end@@3PAP6GMPAUUI_OBJECT@@@ZA[ecx*4]
  0418e	ff d2		 call	 edx
  04190	d9 9d f4 fe ff
	ff		 fstp	 DWORD PTR tv5188[ebp]
  04196	f3 0f 10 85 f4
	fe ff ff	 movss	 xmm0, DWORD PTR tv5188[ebp]
  0419e	f3 0f 58 05 00
	00 00 00	 addss	 xmm0, DWORD PTR __real@3c03126f
  041a6	f3 0f 5a c0	 cvtss2sd xmm0, xmm0
  041aa	83 ec 08	 sub	 esp, 8
  041ad	f2 0f 11 04 24	 movsd	 QWORD PTR [esp], xmm0
  041b2	6a 58		 push	 88			; 00000058H
  041b4	68 ff 00 00 00	 push	 255			; 000000ffH
  041b9	6a 2f		 push	 47			; 0000002fH
  041bb	6a 7c		 push	 124			; 0000007cH
  041bd	68 fe 00 00 00	 push	 254			; 000000feH
  041c2	6a 13		 push	 19			; 00000013H
  041c4	6a 02		 push	 2
  041c6	6a 12		 push	 18			; 00000012H
  041c8	a1 00 00 00 00	 mov	 eax, DWORD PTR ?keyboard_assist_area@@3PAUUI_OBJECT@@A ; keyboard_assist_area
  041cd	50		 push	 eax
  041ce	6a 32		 push	 50			; 00000032H
  041d0	6a 05		 push	 5
  041d2	e8 00 00 00 00	 call	 ?create_ui_object@@YAPAUUI_OBJECT@@HZZ ; create_ui_object
  041d7	81 c4 c0 00 00
	00		 add	 esp, 192		; 000000c0H
  041dd	a3 00 00 00 00	 mov	 DWORD PTR ?keyboard_assist_option_button@@3PAUUI_OBJECT@@A, eax ; keyboard_assist_option_button

; 2400 : 	(
; 2401 : 		UI_TYPE_TEXT,
; 2402 : 		UI_ATTR_PARENT (keyboard_assist_area),
; 2403 : 		UI_ATTR_FONT_TYPE (/*UI_FONT_THICK_ITALIC_ARIAL_18*/UI_FONT_ITALIC_ARIAL_14),
; 2404 : 		UI_ATTR_FONT_COLOUR (254, 124, 47, 255),
; 2405 : 		UI_ATTR_VIRTUAL_POSITION (get_ui_object_x_end (change_array [i]) + OPTION_BUTTON_TEXT_OFFSET_X, OPTION_BOX_TEXT_OFFSET_Y),
; 2406 : 		UI_ATTR_TEXT_JUSTIFY (TEXT_JUSTIFY_LEFT_CENTRE),
; 2407 : 		UI_ATTR_TEXT (""),
; 2408 :       UI_ATTR_FONT_COLOUR_START (ui_option_text_default_colour.r, ui_option_text_default_colour.g, ui_option_text_default_colour.b, 0),
; 2409 :       UI_ATTR_FONT_COLOUR_END (ui_option_text_default_colour.r, ui_option_text_default_colour.g, ui_option_text_default_colour.b, 255),
; 2410 :       UI_ATTR_HIGHLIGHTED_FONT_COLOUR_START (ui_option_text_hilite_colour.r, ui_option_text_hilite_colour.g, ui_option_text_hilite_colour.b, 0),
; 2411 :       UI_ATTR_HIGHLIGHTED_FONT_COLOUR_END (ui_option_text_hilite_colour.r, ui_option_text_hilite_colour.g, ui_option_text_hilite_colour.b, 255),
; 2412 : 		UI_ATTR_HIGHLIGHTABLE (TRUE),
; 2413 : 		UI_ATTR_CLEAR (TRUE),
; 2414 : 		UI_ATTR_NOTIFY_ON (NOTIFY_TYPE_BUTTON_UP),
; 2415 : 		UI_ATTR_FUNCTION (notify_keyboard_assist_option_button),
; 2416 : 		UI_ATTR_END
; 2417 : 	);
; 2418 : 
; 2419 : 	preprocess_translation_object_size (change_array [i], keyboard_assist_option_button, option_boolean_text, 2, RESIZE_OPTION_CYCLE_BUTTON);

  041e2	6a 01		 push	 1
  041e4	6a 02		 push	 2
  041e6	68 00 00 00 00	 push	 OFFSET ?option_boolean_text@@3PAPBDA
  041eb	a1 00 00 00 00	 mov	 eax, DWORD PTR ?keyboard_assist_option_button@@3PAUUI_OBJECT@@A ; keyboard_assist_option_button
  041f0	50		 push	 eax
  041f1	8b 4d fc	 mov	 ecx, DWORD PTR _i$[ebp]
  041f4	8b 94 8d 38 ff
	ff ff		 mov	 edx, DWORD PTR _change_array$[ebp+ecx*4]
  041fb	52		 push	 edx
  041fc	e8 00 00 00 00	 call	 ?preprocess_translation_object_size@@YGXPAUUI_OBJECT@@0PAPBDHW4RESIZE_UI_OBJECT_TYPES@@@Z ; preprocess_translation_object_size

; 2420 : 
; 2421 : 	recursively_set_object_time (page, OPTIONS_BUTTON_AREA_FADE_TIME, OPTIONS_BUTTON_AREA_OFFSET_TIME);

  04201	6a 00		 push	 0
  04203	68 90 01 00 00	 push	 400			; 00000190H
  04208	8b 45 e8	 mov	 eax, DWORD PTR _page$[ebp]
  0420b	50		 push	 eax
  0420c	e8 00 00 00 00	 call	 ?recursively_set_object_time@@YGXPAUUI_OBJECT@@HH@Z ; recursively_set_object_time

; 2422 : 
; 2423 : }

  04211	5f		 pop	 edi
  04212	5e		 pop	 esi
  04213	5b		 pop	 ebx
  04214	8b e5		 mov	 esp, ebp
  04216	5d		 pop	 ebp
  04217	c3		 ret	 0
?define_options_screen_controller_page_objects@@YGXXZ ENDP ; define_options_screen_controller_page_objects
_TEXT	ENDS
; Function compile flags: /Odtp /ZI
; File c:\users\nhv90\projects\eech\aphavoc\source\ui_menu\options\op_ctrlr.c
;	COMDAT ?notify_show_controller_page@@YGXXZ
_TEXT	SEGMENT
_AxisInfoIndex$1 = -24					; size = 4
_AxisIndex$2 = -20					; size = 4
_AxisInfoIndex$3 = -16					; size = 4
_AxisIndex$4 = -12					; size = 4
_AxisIndex$5 = -8					; size = 4
_AxisInfoIndex$6 = -4					; size = 4
?notify_show_controller_page@@YGXXZ PROC		; notify_show_controller_page, COMDAT

; 571  : {

  00000	55		 push	 ebp
  00001	8b ec		 mov	 ebp, esp
  00003	83 ec 58	 sub	 esp, 88			; 00000058H
  00006	53		 push	 ebx
  00007	56		 push	 esi
  00008	57		 push	 edi

; 572  : #if 0	// Retro 10Jul2004
; 573  : 	// initialise button text
; 574  : 
; 575  : 	if ( (get_global_cyclic_input () == JOYSTICK_INPUT) && (number_of_joystick_devices) )
; 576  : 	{
; 577  : 		set_ui_object_text (cyclic_option_button, option_joystick_text[1]);
; 578  : 	}
; 579  : 	else
; 580  : 	{
; 581  : 		set_ui_object_text (cyclic_option_button, option_joystick_text[0]);
; 582  : 	}
; 583  : 
; 584  : 	if ( (get_global_collective_input () == THROTTLE_INPUT) && (number_of_joystick_devices) )
; 585  : 	{
; 586  : 		set_ui_object_text (collective_option_button, option_throttle_text[1]);
; 587  : 	}
; 588  : 	else
; 589  : 	{
; 590  : 		set_ui_object_text (collective_option_button, option_throttle_text[0]);
; 591  : 	}
; 592  : 
; 593  : 	if ( (get_global_pedal_input () == RUDDER_INPUT) && (number_of_joystick_devices) )
; 594  : 	{
; 595  : 		set_ui_object_text (pedal_option_button, option_pedal_text[1]);
; 596  : 	}
; 597  : 	else
; 598  : 	{
; 599  : 		set_ui_object_text (pedal_option_button, option_pedal_text[0]);
; 600  : 	}
; 601  : 
; 602  : 	if (get_global_joystick_device_index () == -1)
; 603  : 	{
; 604  : 		set_ui_object_font_type (device_option_button, UI_FONT_THICK_ITALIC_ARIAL_18);
; 605  : 
; 606  : 		set_ui_object_text (device_option_button, no_joystick_text);
; 607  : 
; 608  : 		preprocess_translation_object_size (device_graphic_area, device_option_button, &no_joystick_text, 1, RESIZE_OPTION_CYCLE_BUTTON);
; 609  : 	}
; 610  : 	else
; 611  : 	{
; 612  : 		const char
; 613  : 			*name[1];
; 614  : 
; 615  : 		set_ui_object_text (device_option_button, joystick_devices[get_global_joystick_device_index ()].device_name);
; 616  : 	
; 617  : 		name[0] = &joystick_devices[get_global_joystick_device_index ()].device_name;
; 618  : 		
; 619  : 		preprocess_translation_object_size (device_graphic_area, device_option_button, name, 1, RESIZE_OPTION_CYCLE_BUTTON);
; 620  : 	}
; 621  : 
; 622  : #else	// Retro 10Jul2004
; 623  : 
; 624  : 	// cyclic x/y
; 625  : 
; 626  : 	if (command_line_cyclic_joystick_index != -1)

  00009	83 3d 00 00 00
	00 ff		 cmp	 DWORD PTR ?command_line_cyclic_joystick_index@@3HA, -1 ; command_line_cyclic_joystick_index
  00010	0f 84 18 01 00
	00		 je	 $LN2@notify_sho

; 627  : 	{
; 628  : 		int AxisInfoIndex;
; 629  : 		
; 630  : 		AxisInfoIndex = findAxisInArray(command_line_cyclic_joystick_index,command_line_cyclic_joystick_x_axis);

  00016	a1 00 00 00 00	 mov	 eax, DWORD PTR ?command_line_cyclic_joystick_x_axis@@3HA ; command_line_cyclic_joystick_x_axis
  0001b	50		 push	 eax
  0001c	8b 0d 00 00 00
	00		 mov	 ecx, DWORD PTR ?command_line_cyclic_joystick_index@@3HA ; command_line_cyclic_joystick_index
  00022	51		 push	 ecx
  00023	e8 00 00 00 00	 call	 ?findAxisInArray@@YGHHH@Z ; findAxisInArray
  00028	89 45 fc	 mov	 DWORD PTR _AxisInfoIndex$6[ebp], eax

; 631  : 		if (AxisInfoIndex != -1)

  0002b	83 7d fc ff	 cmp	 DWORD PTR _AxisInfoIndex$6[ebp], -1
  0002f	74 40		 je	 SHORT $LN4@notify_sho

; 632  : 		{
; 633  : 			AxisInfo[AxisInfoIndex].inUse = TRUE;

  00031	8b 45 fc	 mov	 eax, DWORD PTR _AxisInfoIndex$6[ebp]
  00034	c1 e0 04	 shl	 eax, 4
  00037	c7 80 0c 00 00
	00 01 00 00 00	 mov	 DWORD PTR ?AxisInfo@@3PAUAxisInfo_t@@A[eax+12], 1

; 634  : 			set_ui_object_text (cyclic_option_button, AxisInfo[AxisInfoIndex].AxisName);

  00041	8b 45 fc	 mov	 eax, DWORD PTR _AxisInfoIndex$6[ebp]
  00044	c1 e0 04	 shl	 eax, 4
  00047	8b 88 00 00 00
	00		 mov	 ecx, DWORD PTR ?AxisInfo@@3PAUAxisInfo_t@@A[eax]
  0004d	51		 push	 ecx
  0004e	8b 15 00 00 00
	00		 mov	 edx, DWORD PTR ?cyclic_option_button@@3PAUUI_OBJECT@@A ; cyclic_option_button
  00054	52		 push	 edx
  00055	a1 00 00 00 00	 mov	 eax, DWORD PTR ?cyclic_option_button@@3PAUUI_OBJECT@@A ; cyclic_option_button
  0005a	8b 08		 mov	 ecx, DWORD PTR [eax]
  0005c	8b 14 8d 00 00
	00 00		 mov	 edx, DWORD PTR ?fn_set_ui_object_text@@3PAP6GXPAUUI_OBJECT@@PBD@ZA[ecx*4]
  00063	ff d2		 call	 edx

; 635  : 			set_global_cyclic_input ( JOYSTICK_INPUT );

  00065	c7 05 28 00 00
	00 02 00 00 00	 mov	 DWORD PTR ?global_options@@3UGLOBAL_OPTIONS_DATA@@A+40, 2

; 636  : 		}
; 637  : 		else

  0006f	eb 30		 jmp	 SHORT $LN5@notify_sho
$LN4@notify_sho:

; 638  : 		{
; 639  : 			set_ui_object_text (cyclic_option_button, option_joystick_text[0]);

  00071	b8 04 00 00 00	 mov	 eax, 4
  00076	6b c8 00	 imul	 ecx, eax, 0
  00079	8b 91 00 00 00
	00		 mov	 edx, DWORD PTR ?option_joystick_text@@3PAPBDA[ecx]
  0007f	52		 push	 edx
  00080	a1 00 00 00 00	 mov	 eax, DWORD PTR ?cyclic_option_button@@3PAUUI_OBJECT@@A ; cyclic_option_button
  00085	50		 push	 eax
  00086	8b 0d 00 00 00
	00		 mov	 ecx, DWORD PTR ?cyclic_option_button@@3PAUUI_OBJECT@@A ; cyclic_option_button
  0008c	8b 11		 mov	 edx, DWORD PTR [ecx]
  0008e	8b 04 95 00 00
	00 00		 mov	 eax, DWORD PTR ?fn_set_ui_object_text@@3PAP6GXPAUUI_OBJECT@@PBD@ZA[edx*4]
  00095	ff d0		 call	 eax

; 640  : 			set_global_cyclic_input ( KEYBOARD_INPUT );

  00097	c7 05 28 00 00
	00 01 00 00 00	 mov	 DWORD PTR ?global_options@@3UGLOBAL_OPTIONS_DATA@@A+40, 1
$LN5@notify_sho:

; 641  : 		}
; 642  : 
; 643  : 		AxisInfoIndex = findAxisInArray(command_line_cyclic_joystick_index,command_line_cyclic_joystick_y_axis);

  000a1	a1 00 00 00 00	 mov	 eax, DWORD PTR ?command_line_cyclic_joystick_y_axis@@3HA ; command_line_cyclic_joystick_y_axis
  000a6	50		 push	 eax
  000a7	8b 0d 00 00 00
	00		 mov	 ecx, DWORD PTR ?command_line_cyclic_joystick_index@@3HA ; command_line_cyclic_joystick_index
  000ad	51		 push	 ecx
  000ae	e8 00 00 00 00	 call	 ?findAxisInArray@@YGHHH@Z ; findAxisInArray
  000b3	89 45 fc	 mov	 DWORD PTR _AxisInfoIndex$6[ebp], eax

; 644  : 		if (AxisInfoIndex != -1)

  000b6	83 7d fc ff	 cmp	 DWORD PTR _AxisInfoIndex$6[ebp], -1
  000ba	74 40		 je	 SHORT $LN6@notify_sho

; 645  : 		{
; 646  : 			AxisInfo[AxisInfoIndex].inUse = TRUE;

  000bc	8b 45 fc	 mov	 eax, DWORD PTR _AxisInfoIndex$6[ebp]
  000bf	c1 e0 04	 shl	 eax, 4
  000c2	c7 80 0c 00 00
	00 01 00 00 00	 mov	 DWORD PTR ?AxisInfo@@3PAUAxisInfo_t@@A[eax+12], 1

; 647  : 			set_ui_object_text (cyclic_y_option_button, AxisInfo[AxisInfoIndex].AxisName);

  000cc	8b 45 fc	 mov	 eax, DWORD PTR _AxisInfoIndex$6[ebp]
  000cf	c1 e0 04	 shl	 eax, 4
  000d2	8b 88 00 00 00
	00		 mov	 ecx, DWORD PTR ?AxisInfo@@3PAUAxisInfo_t@@A[eax]
  000d8	51		 push	 ecx
  000d9	8b 15 00 00 00
	00		 mov	 edx, DWORD PTR ?cyclic_y_option_button@@3PAUUI_OBJECT@@A ; cyclic_y_option_button
  000df	52		 push	 edx
  000e0	a1 00 00 00 00	 mov	 eax, DWORD PTR ?cyclic_y_option_button@@3PAUUI_OBJECT@@A ; cyclic_y_option_button
  000e5	8b 08		 mov	 ecx, DWORD PTR [eax]
  000e7	8b 14 8d 00 00
	00 00		 mov	 edx, DWORD PTR ?fn_set_ui_object_text@@3PAP6GXPAUUI_OBJECT@@PBD@ZA[ecx*4]
  000ee	ff d2		 call	 edx

; 648  : 			set_global_cyclic_input ( JOYSTICK_INPUT );

  000f0	c7 05 28 00 00
	00 02 00 00 00	 mov	 DWORD PTR ?global_options@@3UGLOBAL_OPTIONS_DATA@@A+40, 2

; 649  : 		}
; 650  : 		else

  000fa	eb 30		 jmp	 SHORT $LN7@notify_sho
$LN6@notify_sho:

; 651  : 		{
; 652  : 			set_ui_object_text (cyclic_y_option_button, option_joystick_text[0]);

  000fc	b8 04 00 00 00	 mov	 eax, 4
  00101	6b c8 00	 imul	 ecx, eax, 0
  00104	8b 91 00 00 00
	00		 mov	 edx, DWORD PTR ?option_joystick_text@@3PAPBDA[ecx]
  0010a	52		 push	 edx
  0010b	a1 00 00 00 00	 mov	 eax, DWORD PTR ?cyclic_y_option_button@@3PAUUI_OBJECT@@A ; cyclic_y_option_button
  00110	50		 push	 eax
  00111	8b 0d 00 00 00
	00		 mov	 ecx, DWORD PTR ?cyclic_y_option_button@@3PAUUI_OBJECT@@A ; cyclic_y_option_button
  00117	8b 11		 mov	 edx, DWORD PTR [ecx]
  00119	8b 04 95 00 00
	00 00		 mov	 eax, DWORD PTR ?fn_set_ui_object_text@@3PAP6GXPAUUI_OBJECT@@PBD@ZA[edx*4]
  00120	ff d0		 call	 eax

; 653  : 			set_global_cyclic_input ( KEYBOARD_INPUT );

  00122	c7 05 28 00 00
	00 01 00 00 00	 mov	 DWORD PTR ?global_options@@3UGLOBAL_OPTIONS_DATA@@A+40, 1
$LN7@notify_sho:

; 654  : 		}
; 655  : 	}
; 656  : 	else

  0012c	eb 56		 jmp	 SHORT $LN3@notify_sho
$LN2@notify_sho:

; 657  : 	{
; 658  : 		set_ui_object_text (cyclic_option_button, option_joystick_text[0]);

  0012e	b8 04 00 00 00	 mov	 eax, 4
  00133	6b c8 00	 imul	 ecx, eax, 0
  00136	8b 91 00 00 00
	00		 mov	 edx, DWORD PTR ?option_joystick_text@@3PAPBDA[ecx]
  0013c	52		 push	 edx
  0013d	a1 00 00 00 00	 mov	 eax, DWORD PTR ?cyclic_option_button@@3PAUUI_OBJECT@@A ; cyclic_option_button
  00142	50		 push	 eax
  00143	8b 0d 00 00 00
	00		 mov	 ecx, DWORD PTR ?cyclic_option_button@@3PAUUI_OBJECT@@A ; cyclic_option_button
  00149	8b 11		 mov	 edx, DWORD PTR [ecx]
  0014b	8b 04 95 00 00
	00 00		 mov	 eax, DWORD PTR ?fn_set_ui_object_text@@3PAP6GXPAUUI_OBJECT@@PBD@ZA[edx*4]
  00152	ff d0		 call	 eax

; 659  : 		set_ui_object_text (cyclic_y_option_button, option_joystick_text[0]);

  00154	b8 04 00 00 00	 mov	 eax, 4
  00159	6b c8 00	 imul	 ecx, eax, 0
  0015c	8b 91 00 00 00
	00		 mov	 edx, DWORD PTR ?option_joystick_text@@3PAPBDA[ecx]
  00162	52		 push	 edx
  00163	a1 00 00 00 00	 mov	 eax, DWORD PTR ?cyclic_y_option_button@@3PAUUI_OBJECT@@A ; cyclic_y_option_button
  00168	50		 push	 eax
  00169	8b 0d 00 00 00
	00		 mov	 ecx, DWORD PTR ?cyclic_y_option_button@@3PAUUI_OBJECT@@A ; cyclic_y_option_button
  0016f	8b 11		 mov	 edx, DWORD PTR [ecx]
  00171	8b 04 95 00 00
	00 00		 mov	 eax, DWORD PTR ?fn_set_ui_object_text@@3PAP6GXPAUUI_OBJECT@@PBD@ZA[edx*4]
  00178	ff d0		 call	 eax

; 660  : 		set_global_cyclic_input ( KEYBOARD_INPUT );

  0017a	c7 05 28 00 00
	00 01 00 00 00	 mov	 DWORD PTR ?global_options@@3UGLOBAL_OPTIONS_DATA@@A+40, 1
$LN3@notify_sho:

; 661  : 	}
; 662  : 
; 663  : 	// collective
; 664  : 
; 665  : 	if (command_line_collective_joystick_index != -1)

  00184	83 3d 00 00 00
	00 ff		 cmp	 DWORD PTR ?command_line_collective_joystick_index@@3HA, -1 ; command_line_collective_joystick_index
  0018b	0f 84 8d 00 00
	00		 je	 $LN8@notify_sho

; 666  : 	{
; 667  : 		int AxisIndex;
; 668  : 		
; 669  : 		AxisIndex = findAxisInArray(command_line_collective_joystick_index,command_line_collective_joystick_axis);

  00191	a1 00 00 00 00	 mov	 eax, DWORD PTR ?command_line_collective_joystick_axis@@3HA ; command_line_collective_joystick_axis
  00196	50		 push	 eax
  00197	8b 0d 00 00 00
	00		 mov	 ecx, DWORD PTR ?command_line_collective_joystick_index@@3HA ; command_line_collective_joystick_index
  0019d	51		 push	 ecx
  0019e	e8 00 00 00 00	 call	 ?findAxisInArray@@YGHHH@Z ; findAxisInArray
  001a3	89 45 f8	 mov	 DWORD PTR _AxisIndex$5[ebp], eax

; 670  : 		if (AxisIndex != -1)

  001a6	83 7d f8 ff	 cmp	 DWORD PTR _AxisIndex$5[ebp], -1
  001aa	74 40		 je	 SHORT $LN10@notify_sho

; 671  : 		{
; 672  : 			AxisInfo[AxisIndex].inUse = TRUE;

  001ac	8b 45 f8	 mov	 eax, DWORD PTR _AxisIndex$5[ebp]
  001af	c1 e0 04	 shl	 eax, 4
  001b2	c7 80 0c 00 00
	00 01 00 00 00	 mov	 DWORD PTR ?AxisInfo@@3PAUAxisInfo_t@@A[eax+12], 1

; 673  : 			set_ui_object_text (collective_option_button, AxisInfo[AxisIndex].AxisName);

  001bc	8b 45 f8	 mov	 eax, DWORD PTR _AxisIndex$5[ebp]
  001bf	c1 e0 04	 shl	 eax, 4
  001c2	8b 88 00 00 00
	00		 mov	 ecx, DWORD PTR ?AxisInfo@@3PAUAxisInfo_t@@A[eax]
  001c8	51		 push	 ecx
  001c9	8b 15 00 00 00
	00		 mov	 edx, DWORD PTR ?collective_option_button@@3PAUUI_OBJECT@@A ; collective_option_button
  001cf	52		 push	 edx
  001d0	a1 00 00 00 00	 mov	 eax, DWORD PTR ?collective_option_button@@3PAUUI_OBJECT@@A ; collective_option_button
  001d5	8b 08		 mov	 ecx, DWORD PTR [eax]
  001d7	8b 14 8d 00 00
	00 00		 mov	 edx, DWORD PTR ?fn_set_ui_object_text@@3PAP6GXPAUUI_OBJECT@@PBD@ZA[ecx*4]
  001de	ff d2		 call	 edx

; 674  : 			set_global_collective_input ( THROTTLE_INPUT );

  001e0	c7 05 2c 00 00
	00 05 00 00 00	 mov	 DWORD PTR ?global_options@@3UGLOBAL_OPTIONS_DATA@@A+44, 5

; 675  : 		}
; 676  : 		else

  001ea	eb 30		 jmp	 SHORT $LN11@notify_sho
$LN10@notify_sho:

; 677  : 		{
; 678  : 			set_ui_object_text (collective_option_button, option_throttle_text[0]);

  001ec	b8 04 00 00 00	 mov	 eax, 4
  001f1	6b c8 00	 imul	 ecx, eax, 0
  001f4	8b 91 00 00 00
	00		 mov	 edx, DWORD PTR ?option_throttle_text@@3PAPBDA[ecx]
  001fa	52		 push	 edx
  001fb	a1 00 00 00 00	 mov	 eax, DWORD PTR ?collective_option_button@@3PAUUI_OBJECT@@A ; collective_option_button
  00200	50		 push	 eax
  00201	8b 0d 00 00 00
	00		 mov	 ecx, DWORD PTR ?collective_option_button@@3PAUUI_OBJECT@@A ; collective_option_button
  00207	8b 11		 mov	 edx, DWORD PTR [ecx]
  00209	8b 04 95 00 00
	00 00		 mov	 eax, DWORD PTR ?fn_set_ui_object_text@@3PAP6GXPAUUI_OBJECT@@PBD@ZA[edx*4]
  00210	ff d0		 call	 eax

; 679  : 			set_global_collective_input ( KEYBOARD_INPUT );

  00212	c7 05 2c 00 00
	00 01 00 00 00	 mov	 DWORD PTR ?global_options@@3UGLOBAL_OPTIONS_DATA@@A+44, 1
$LN11@notify_sho:

; 680  : 		}
; 681  : 	}
; 682  : 	else

  0021c	eb 30		 jmp	 SHORT $LN9@notify_sho
$LN8@notify_sho:

; 683  : 	{
; 684  : 		set_ui_object_text (collective_option_button, option_throttle_text[0]);

  0021e	b8 04 00 00 00	 mov	 eax, 4
  00223	6b c8 00	 imul	 ecx, eax, 0
  00226	8b 91 00 00 00
	00		 mov	 edx, DWORD PTR ?option_throttle_text@@3PAPBDA[ecx]
  0022c	52		 push	 edx
  0022d	a1 00 00 00 00	 mov	 eax, DWORD PTR ?collective_option_button@@3PAUUI_OBJECT@@A ; collective_option_button
  00232	50		 push	 eax
  00233	8b 0d 00 00 00
	00		 mov	 ecx, DWORD PTR ?collective_option_button@@3PAUUI_OBJECT@@A ; collective_option_button
  00239	8b 11		 mov	 edx, DWORD PTR [ecx]
  0023b	8b 04 95 00 00
	00 00		 mov	 eax, DWORD PTR ?fn_set_ui_object_text@@3PAP6GXPAUUI_OBJECT@@PBD@ZA[edx*4]
  00242	ff d0		 call	 eax

; 685  : 		set_global_collective_input ( KEYBOARD_INPUT );

  00244	c7 05 2c 00 00
	00 01 00 00 00	 mov	 DWORD PTR ?global_options@@3UGLOBAL_OPTIONS_DATA@@A+44, 1
$LN9@notify_sho:

; 686  : 	}
; 687  : 
; 688  : 	// pedal (+ reverse button)
; 689  : 
; 690  : 	if (command_line_rudder_joystick_index != -1)

  0024e	83 3d 00 00 00
	00 ff		 cmp	 DWORD PTR ?command_line_rudder_joystick_index@@3HA, -1 ; command_line_rudder_joystick_index
  00255	0f 84 d7 00 00
	00		 je	 $LN12@notify_sho

; 691  : 	{
; 692  : 		int AxisIndex;
; 693  : 		
; 694  : 		AxisIndex = findAxisInArray(command_line_rudder_joystick_index,command_line_rudder_joystick_axis);

  0025b	a1 00 00 00 00	 mov	 eax, DWORD PTR ?command_line_rudder_joystick_axis@@3HA ; command_line_rudder_joystick_axis
  00260	50		 push	 eax
  00261	8b 0d 00 00 00
	00		 mov	 ecx, DWORD PTR ?command_line_rudder_joystick_index@@3HA ; command_line_rudder_joystick_index
  00267	51		 push	 ecx
  00268	e8 00 00 00 00	 call	 ?findAxisInArray@@YGHHH@Z ; findAxisInArray
  0026d	89 45 f4	 mov	 DWORD PTR _AxisIndex$4[ebp], eax

; 695  : 		if (AxisIndex != -1)

  00270	83 7d f4 ff	 cmp	 DWORD PTR _AxisIndex$4[ebp], -1
  00274	74 64		 je	 SHORT $LN14@notify_sho

; 696  : 		{
; 697  : 			AxisInfo[AxisIndex].inUse = TRUE;

  00276	8b 45 f4	 mov	 eax, DWORD PTR _AxisIndex$4[ebp]
  00279	c1 e0 04	 shl	 eax, 4
  0027c	c7 80 0c 00 00
	00 01 00 00 00	 mov	 DWORD PTR ?AxisInfo@@3PAUAxisInfo_t@@A[eax+12], 1

; 698  : 			set_ui_object_text (pedal_option_button, AxisInfo[AxisIndex].AxisName);

  00286	8b 45 f4	 mov	 eax, DWORD PTR _AxisIndex$4[ebp]
  00289	c1 e0 04	 shl	 eax, 4
  0028c	8b 88 00 00 00
	00		 mov	 ecx, DWORD PTR ?AxisInfo@@3PAUAxisInfo_t@@A[eax]
  00292	51		 push	 ecx
  00293	8b 15 00 00 00
	00		 mov	 edx, DWORD PTR ?pedal_option_button@@3PAUUI_OBJECT@@A ; pedal_option_button
  00299	52		 push	 edx
  0029a	a1 00 00 00 00	 mov	 eax, DWORD PTR ?pedal_option_button@@3PAUUI_OBJECT@@A ; pedal_option_button
  0029f	8b 08		 mov	 ecx, DWORD PTR [eax]
  002a1	8b 14 8d 00 00
	00 00		 mov	 edx, DWORD PTR ?fn_set_ui_object_text@@3PAP6GXPAUUI_OBJECT@@PBD@ZA[ecx*4]
  002a8	ff d2		 call	 edx

; 699  : 			set_global_pedal_input (RUDDER_INPUT);

  002aa	c7 05 30 00 00
	00 04 00 00 00	 mov	 DWORD PTR ?global_options@@3UGLOBAL_OPTIONS_DATA@@A+48, 4

; 700  : 			set_ui_object_text (reverse_pedal_option_button, option_boolean_text [command_line_reverse_pedal]);	// Retro 17Jul2004

  002b4	a1 00 00 00 00	 mov	 eax, DWORD PTR ?command_line_reverse_pedal@@3HA ; command_line_reverse_pedal
  002b9	8b 0c 85 00 00
	00 00		 mov	 ecx, DWORD PTR ?option_boolean_text@@3PAPBDA[eax*4]
  002c0	51		 push	 ecx
  002c1	8b 15 00 00 00
	00		 mov	 edx, DWORD PTR ?reverse_pedal_option_button@@3PAUUI_OBJECT@@A ; reverse_pedal_option_button
  002c7	52		 push	 edx
  002c8	a1 00 00 00 00	 mov	 eax, DWORD PTR ?reverse_pedal_option_button@@3PAUUI_OBJECT@@A ; reverse_pedal_option_button
  002cd	8b 08		 mov	 ecx, DWORD PTR [eax]
  002cf	8b 14 8d 00 00
	00 00		 mov	 edx, DWORD PTR ?fn_set_ui_object_text@@3PAP6GXPAUUI_OBJECT@@PBD@ZA[ecx*4]
  002d6	ff d2		 call	 edx

; 701  : 		}
; 702  : 		else

  002d8	eb 56		 jmp	 SHORT $LN15@notify_sho
$LN14@notify_sho:

; 703  : 		{
; 704  : 			set_ui_object_text (pedal_option_button, option_throttle_text[0]);

  002da	b8 04 00 00 00	 mov	 eax, 4
  002df	6b c8 00	 imul	 ecx, eax, 0
  002e2	8b 91 00 00 00
	00		 mov	 edx, DWORD PTR ?option_throttle_text@@3PAPBDA[ecx]
  002e8	52		 push	 edx
  002e9	a1 00 00 00 00	 mov	 eax, DWORD PTR ?pedal_option_button@@3PAUUI_OBJECT@@A ; pedal_option_button
  002ee	50		 push	 eax
  002ef	8b 0d 00 00 00
	00		 mov	 ecx, DWORD PTR ?pedal_option_button@@3PAUUI_OBJECT@@A ; pedal_option_button
  002f5	8b 11		 mov	 edx, DWORD PTR [ecx]
  002f7	8b 04 95 00 00
	00 00		 mov	 eax, DWORD PTR ?fn_set_ui_object_text@@3PAP6GXPAUUI_OBJECT@@PBD@ZA[edx*4]
  002fe	ff d0		 call	 eax

; 705  : 			set_global_pedal_input (KEYBOARD_INPUT);

  00300	c7 05 30 00 00
	00 01 00 00 00	 mov	 DWORD PTR ?global_options@@3UGLOBAL_OPTIONS_DATA@@A+48, 1

; 706  : 			set_ui_object_text (reverse_pedal_option_button, option_boolean_text [FALSE]);	// Retro 17Jul2004

  0030a	b8 04 00 00 00	 mov	 eax, 4
  0030f	6b c8 00	 imul	 ecx, eax, 0
  00312	8b 91 00 00 00
	00		 mov	 edx, DWORD PTR ?option_boolean_text@@3PAPBDA[ecx]
  00318	52		 push	 edx
  00319	a1 00 00 00 00	 mov	 eax, DWORD PTR ?reverse_pedal_option_button@@3PAUUI_OBJECT@@A ; reverse_pedal_option_button
  0031e	50		 push	 eax
  0031f	8b 0d 00 00 00
	00		 mov	 ecx, DWORD PTR ?reverse_pedal_option_button@@3PAUUI_OBJECT@@A ; reverse_pedal_option_button
  00325	8b 11		 mov	 edx, DWORD PTR [ecx]
  00327	8b 04 95 00 00
	00 00		 mov	 eax, DWORD PTR ?fn_set_ui_object_text@@3PAP6GXPAUUI_OBJECT@@PBD@ZA[edx*4]
  0032e	ff d0		 call	 eax
$LN15@notify_sho:

; 707  : 		}
; 708  : 	}
; 709  : 	else

  00330	eb 56		 jmp	 SHORT $LN13@notify_sho
$LN12@notify_sho:

; 710  : 	{
; 711  : 		set_ui_object_text (pedal_option_button, option_throttle_text[0]);

  00332	b8 04 00 00 00	 mov	 eax, 4
  00337	6b c8 00	 imul	 ecx, eax, 0
  0033a	8b 91 00 00 00
	00		 mov	 edx, DWORD PTR ?option_throttle_text@@3PAPBDA[ecx]
  00340	52		 push	 edx
  00341	a1 00 00 00 00	 mov	 eax, DWORD PTR ?pedal_option_button@@3PAUUI_OBJECT@@A ; pedal_option_button
  00346	50		 push	 eax
  00347	8b 0d 00 00 00
	00		 mov	 ecx, DWORD PTR ?pedal_option_button@@3PAUUI_OBJECT@@A ; pedal_option_button
  0034d	8b 11		 mov	 edx, DWORD PTR [ecx]
  0034f	8b 04 95 00 00
	00 00		 mov	 eax, DWORD PTR ?fn_set_ui_object_text@@3PAP6GXPAUUI_OBJECT@@PBD@ZA[edx*4]
  00356	ff d0		 call	 eax

; 712  : 		set_global_pedal_input (KEYBOARD_INPUT);

  00358	c7 05 30 00 00
	00 01 00 00 00	 mov	 DWORD PTR ?global_options@@3UGLOBAL_OPTIONS_DATA@@A+48, 1

; 713  : 		set_ui_object_text (reverse_pedal_option_button, option_boolean_text [FALSE]);	// Retro 17Jul2004

  00362	b8 04 00 00 00	 mov	 eax, 4
  00367	6b c8 00	 imul	 ecx, eax, 0
  0036a	8b 91 00 00 00
	00		 mov	 edx, DWORD PTR ?option_boolean_text@@3PAPBDA[ecx]
  00370	52		 push	 edx
  00371	a1 00 00 00 00	 mov	 eax, DWORD PTR ?reverse_pedal_option_button@@3PAUUI_OBJECT@@A ; reverse_pedal_option_button
  00376	50		 push	 eax
  00377	8b 0d 00 00 00
	00		 mov	 ecx, DWORD PTR ?reverse_pedal_option_button@@3PAUUI_OBJECT@@A ; reverse_pedal_option_button
  0037d	8b 11		 mov	 edx, DWORD PTR [ecx]
  0037f	8b 04 95 00 00
	00 00		 mov	 eax, DWORD PTR ?fn_set_ui_object_text@@3PAP6GXPAUUI_OBJECT@@PBD@ZA[edx*4]
  00386	ff d0		 call	 eax
$LN13@notify_sho:

; 714  : 	}
; 715  : 
; 716  : 	// EO x/y
; 717  : 
; 718  : 	if (command_line_eo_pan_joystick_index != -1)

  00388	83 3d 00 00 00
	00 ff		 cmp	 DWORD PTR ?command_line_eo_pan_joystick_index@@3HA, -1 ; command_line_eo_pan_joystick_index
  0038f	0f 84 f0 00 00
	00		 je	 $LN16@notify_sho

; 719  : 	{
; 720  : 		int AxisInfoIndex;
; 721  : 		
; 722  : 		AxisInfoIndex = findAxisInArray(command_line_eo_pan_joystick_index,command_line_eo_pan_horizontal_joystick_axis);

  00395	a1 00 00 00 00	 mov	 eax, DWORD PTR ?command_line_eo_pan_horizontal_joystick_axis@@3HA ; command_line_eo_pan_horizontal_joystick_axis
  0039a	50		 push	 eax
  0039b	8b 0d 00 00 00
	00		 mov	 ecx, DWORD PTR ?command_line_eo_pan_joystick_index@@3HA ; command_line_eo_pan_joystick_index
  003a1	51		 push	 ecx
  003a2	e8 00 00 00 00	 call	 ?findAxisInArray@@YGHHH@Z ; findAxisInArray
  003a7	89 45 f0	 mov	 DWORD PTR _AxisInfoIndex$3[ebp], eax

; 723  : 		if (AxisInfoIndex != -1)

  003aa	83 7d f0 ff	 cmp	 DWORD PTR _AxisInfoIndex$3[ebp], -1
  003ae	74 36		 je	 SHORT $LN18@notify_sho

; 724  : 		{
; 725  : 			AxisInfo[AxisInfoIndex].inUse = TRUE;

  003b0	8b 45 f0	 mov	 eax, DWORD PTR _AxisInfoIndex$3[ebp]
  003b3	c1 e0 04	 shl	 eax, 4
  003b6	c7 80 0c 00 00
	00 01 00 00 00	 mov	 DWORD PTR ?AxisInfo@@3PAUAxisInfo_t@@A[eax+12], 1

; 726  : 			set_ui_object_text (eo_pan_x_option_button, AxisInfo[AxisInfoIndex].AxisName);

  003c0	8b 45 f0	 mov	 eax, DWORD PTR _AxisInfoIndex$3[ebp]
  003c3	c1 e0 04	 shl	 eax, 4
  003c6	8b 88 00 00 00
	00		 mov	 ecx, DWORD PTR ?AxisInfo@@3PAUAxisInfo_t@@A[eax]
  003cc	51		 push	 ecx
  003cd	8b 15 00 00 00
	00		 mov	 edx, DWORD PTR ?eo_pan_x_option_button@@3PAUUI_OBJECT@@A ; eo_pan_x_option_button
  003d3	52		 push	 edx
  003d4	a1 00 00 00 00	 mov	 eax, DWORD PTR ?eo_pan_x_option_button@@3PAUUI_OBJECT@@A ; eo_pan_x_option_button
  003d9	8b 08		 mov	 ecx, DWORD PTR [eax]
  003db	8b 14 8d 00 00
	00 00		 mov	 edx, DWORD PTR ?fn_set_ui_object_text@@3PAP6GXPAUUI_OBJECT@@PBD@ZA[ecx*4]
  003e2	ff d2		 call	 edx

; 727  : 		}
; 728  : 		else

  003e4	eb 26		 jmp	 SHORT $LN19@notify_sho
$LN18@notify_sho:

; 729  : 		{
; 730  : 			set_ui_object_text (eo_pan_x_option_button, option_joystick_text[0]);

  003e6	b8 04 00 00 00	 mov	 eax, 4
  003eb	6b c8 00	 imul	 ecx, eax, 0
  003ee	8b 91 00 00 00
	00		 mov	 edx, DWORD PTR ?option_joystick_text@@3PAPBDA[ecx]
  003f4	52		 push	 edx
  003f5	a1 00 00 00 00	 mov	 eax, DWORD PTR ?eo_pan_x_option_button@@3PAUUI_OBJECT@@A ; eo_pan_x_option_button
  003fa	50		 push	 eax
  003fb	8b 0d 00 00 00
	00		 mov	 ecx, DWORD PTR ?eo_pan_x_option_button@@3PAUUI_OBJECT@@A ; eo_pan_x_option_button
  00401	8b 11		 mov	 edx, DWORD PTR [ecx]
  00403	8b 04 95 00 00
	00 00		 mov	 eax, DWORD PTR ?fn_set_ui_object_text@@3PAP6GXPAUUI_OBJECT@@PBD@ZA[edx*4]
  0040a	ff d0		 call	 eax
$LN19@notify_sho:

; 731  : 		}
; 732  : 
; 733  : 		AxisInfoIndex = findAxisInArray(command_line_eo_pan_joystick_index,command_line_eo_pan_vertical_joystick_axis);

  0040c	a1 00 00 00 00	 mov	 eax, DWORD PTR ?command_line_eo_pan_vertical_joystick_axis@@3HA ; command_line_eo_pan_vertical_joystick_axis
  00411	50		 push	 eax
  00412	8b 0d 00 00 00
	00		 mov	 ecx, DWORD PTR ?command_line_eo_pan_joystick_index@@3HA ; command_line_eo_pan_joystick_index
  00418	51		 push	 ecx
  00419	e8 00 00 00 00	 call	 ?findAxisInArray@@YGHHH@Z ; findAxisInArray
  0041e	89 45 f0	 mov	 DWORD PTR _AxisInfoIndex$3[ebp], eax

; 734  : 		if (AxisInfoIndex != -1)

  00421	83 7d f0 ff	 cmp	 DWORD PTR _AxisInfoIndex$3[ebp], -1
  00425	74 36		 je	 SHORT $LN20@notify_sho

; 735  : 		{
; 736  : 			AxisInfo[AxisInfoIndex].inUse = TRUE;

  00427	8b 45 f0	 mov	 eax, DWORD PTR _AxisInfoIndex$3[ebp]
  0042a	c1 e0 04	 shl	 eax, 4
  0042d	c7 80 0c 00 00
	00 01 00 00 00	 mov	 DWORD PTR ?AxisInfo@@3PAUAxisInfo_t@@A[eax+12], 1

; 737  : 			set_ui_object_text (eo_pan_y_option_button, AxisInfo[AxisInfoIndex].AxisName);

  00437	8b 45 f0	 mov	 eax, DWORD PTR _AxisInfoIndex$3[ebp]
  0043a	c1 e0 04	 shl	 eax, 4
  0043d	8b 88 00 00 00
	00		 mov	 ecx, DWORD PTR ?AxisInfo@@3PAUAxisInfo_t@@A[eax]
  00443	51		 push	 ecx
  00444	8b 15 00 00 00
	00		 mov	 edx, DWORD PTR ?eo_pan_y_option_button@@3PAUUI_OBJECT@@A ; eo_pan_y_option_button
  0044a	52		 push	 edx
  0044b	a1 00 00 00 00	 mov	 eax, DWORD PTR ?eo_pan_y_option_button@@3PAUUI_OBJECT@@A ; eo_pan_y_option_button
  00450	8b 08		 mov	 ecx, DWORD PTR [eax]
  00452	8b 14 8d 00 00
	00 00		 mov	 edx, DWORD PTR ?fn_set_ui_object_text@@3PAP6GXPAUUI_OBJECT@@PBD@ZA[ecx*4]
  00459	ff d2		 call	 edx

; 738  : 		}
; 739  : 		else

  0045b	eb 26		 jmp	 SHORT $LN21@notify_sho
$LN20@notify_sho:

; 740  : 		{
; 741  : 			set_ui_object_text (eo_pan_y_option_button, option_joystick_text[0]);

  0045d	b8 04 00 00 00	 mov	 eax, 4
  00462	6b c8 00	 imul	 ecx, eax, 0
  00465	8b 91 00 00 00
	00		 mov	 edx, DWORD PTR ?option_joystick_text@@3PAPBDA[ecx]
  0046b	52		 push	 edx
  0046c	a1 00 00 00 00	 mov	 eax, DWORD PTR ?eo_pan_y_option_button@@3PAUUI_OBJECT@@A ; eo_pan_y_option_button
  00471	50		 push	 eax
  00472	8b 0d 00 00 00
	00		 mov	 ecx, DWORD PTR ?eo_pan_y_option_button@@3PAUUI_OBJECT@@A ; eo_pan_y_option_button
  00478	8b 11		 mov	 edx, DWORD PTR [ecx]
  0047a	8b 04 95 00 00
	00 00		 mov	 eax, DWORD PTR ?fn_set_ui_object_text@@3PAP6GXPAUUI_OBJECT@@PBD@ZA[edx*4]
  00481	ff d0		 call	 eax
$LN21@notify_sho:

; 742  : 		}
; 743  : 	}
; 744  : 	else

  00483	eb 4c		 jmp	 SHORT $LN17@notify_sho
$LN16@notify_sho:

; 745  : 	{
; 746  : 		set_ui_object_text (eo_pan_x_option_button, option_joystick_text[0]);

  00485	b8 04 00 00 00	 mov	 eax, 4
  0048a	6b c8 00	 imul	 ecx, eax, 0
  0048d	8b 91 00 00 00
	00		 mov	 edx, DWORD PTR ?option_joystick_text@@3PAPBDA[ecx]
  00493	52		 push	 edx
  00494	a1 00 00 00 00	 mov	 eax, DWORD PTR ?eo_pan_x_option_button@@3PAUUI_OBJECT@@A ; eo_pan_x_option_button
  00499	50		 push	 eax
  0049a	8b 0d 00 00 00
	00		 mov	 ecx, DWORD PTR ?eo_pan_x_option_button@@3PAUUI_OBJECT@@A ; eo_pan_x_option_button
  004a0	8b 11		 mov	 edx, DWORD PTR [ecx]
  004a2	8b 04 95 00 00
	00 00		 mov	 eax, DWORD PTR ?fn_set_ui_object_text@@3PAP6GXPAUUI_OBJECT@@PBD@ZA[edx*4]
  004a9	ff d0		 call	 eax

; 747  : 		set_ui_object_text (eo_pan_y_option_button, option_joystick_text[0]);

  004ab	b8 04 00 00 00	 mov	 eax, 4
  004b0	6b c8 00	 imul	 ecx, eax, 0
  004b3	8b 91 00 00 00
	00		 mov	 edx, DWORD PTR ?option_joystick_text@@3PAPBDA[ecx]
  004b9	52		 push	 edx
  004ba	a1 00 00 00 00	 mov	 eax, DWORD PTR ?eo_pan_y_option_button@@3PAUUI_OBJECT@@A ; eo_pan_y_option_button
  004bf	50		 push	 eax
  004c0	8b 0d 00 00 00
	00		 mov	 ecx, DWORD PTR ?eo_pan_y_option_button@@3PAUUI_OBJECT@@A ; eo_pan_y_option_button
  004c6	8b 11		 mov	 edx, DWORD PTR [ecx]
  004c8	8b 04 95 00 00
	00 00		 mov	 eax, DWORD PTR ?fn_set_ui_object_text@@3PAP6GXPAUUI_OBJECT@@PBD@ZA[edx*4]
  004cf	ff d0		 call	 eax
$LN17@notify_sho:

; 748  : 	}
; 749  : 
; 750  : 	// EO Zoom
; 751  : 
; 752  : 	if (command_line_eo_zoom_joystick_index != -1)

  004d1	83 3d 00 00 00
	00 ff		 cmp	 DWORD PTR ?command_line_eo_zoom_joystick_index@@3HA, -1 ; command_line_eo_zoom_joystick_index
  004d8	74 79		 je	 SHORT $LN22@notify_sho

; 753  : 	{
; 754  : 		int AxisIndex;
; 755  : 		
; 756  : 		AxisIndex = findAxisInArray(command_line_eo_zoom_joystick_index,command_line_eo_zoom_joystick_axis);

  004da	a1 00 00 00 00	 mov	 eax, DWORD PTR ?command_line_eo_zoom_joystick_axis@@3HA ; command_line_eo_zoom_joystick_axis
  004df	50		 push	 eax
  004e0	8b 0d 00 00 00
	00		 mov	 ecx, DWORD PTR ?command_line_eo_zoom_joystick_index@@3HA ; command_line_eo_zoom_joystick_index
  004e6	51		 push	 ecx
  004e7	e8 00 00 00 00	 call	 ?findAxisInArray@@YGHHH@Z ; findAxisInArray
  004ec	89 45 ec	 mov	 DWORD PTR _AxisIndex$2[ebp], eax

; 757  : 		if (AxisIndex != -1)

  004ef	83 7d ec ff	 cmp	 DWORD PTR _AxisIndex$2[ebp], -1
  004f3	74 36		 je	 SHORT $LN24@notify_sho

; 758  : 		{
; 759  : 			AxisInfo[AxisIndex].inUse = TRUE;

  004f5	8b 45 ec	 mov	 eax, DWORD PTR _AxisIndex$2[ebp]
  004f8	c1 e0 04	 shl	 eax, 4
  004fb	c7 80 0c 00 00
	00 01 00 00 00	 mov	 DWORD PTR ?AxisInfo@@3PAUAxisInfo_t@@A[eax+12], 1

; 760  : 			set_ui_object_text (eo_zoom_option_button, AxisInfo[AxisIndex].AxisName);

  00505	8b 45 ec	 mov	 eax, DWORD PTR _AxisIndex$2[ebp]
  00508	c1 e0 04	 shl	 eax, 4
  0050b	8b 88 00 00 00
	00		 mov	 ecx, DWORD PTR ?AxisInfo@@3PAUAxisInfo_t@@A[eax]
  00511	51		 push	 ecx
  00512	8b 15 00 00 00
	00		 mov	 edx, DWORD PTR ?eo_zoom_option_button@@3PAUUI_OBJECT@@A ; eo_zoom_option_button
  00518	52		 push	 edx
  00519	a1 00 00 00 00	 mov	 eax, DWORD PTR ?eo_zoom_option_button@@3PAUUI_OBJECT@@A ; eo_zoom_option_button
  0051e	8b 08		 mov	 ecx, DWORD PTR [eax]
  00520	8b 14 8d 00 00
	00 00		 mov	 edx, DWORD PTR ?fn_set_ui_object_text@@3PAP6GXPAUUI_OBJECT@@PBD@ZA[ecx*4]
  00527	ff d2		 call	 edx

; 761  : 		}
; 762  : 		else

  00529	eb 26		 jmp	 SHORT $LN25@notify_sho
$LN24@notify_sho:

; 763  : 		{
; 764  : 			set_ui_object_text (eo_zoom_option_button, option_throttle_text[0]);

  0052b	b8 04 00 00 00	 mov	 eax, 4
  00530	6b c8 00	 imul	 ecx, eax, 0
  00533	8b 91 00 00 00
	00		 mov	 edx, DWORD PTR ?option_throttle_text@@3PAPBDA[ecx]
  00539	52		 push	 edx
  0053a	a1 00 00 00 00	 mov	 eax, DWORD PTR ?eo_zoom_option_button@@3PAUUI_OBJECT@@A ; eo_zoom_option_button
  0053f	50		 push	 eax
  00540	8b 0d 00 00 00
	00		 mov	 ecx, DWORD PTR ?eo_zoom_option_button@@3PAUUI_OBJECT@@A ; eo_zoom_option_button
  00546	8b 11		 mov	 edx, DWORD PTR [ecx]
  00548	8b 04 95 00 00
	00 00		 mov	 eax, DWORD PTR ?fn_set_ui_object_text@@3PAP6GXPAUUI_OBJECT@@PBD@ZA[edx*4]
  0054f	ff d0		 call	 eax
$LN25@notify_sho:

; 765  : 		}
; 766  : 	}
; 767  : 	else

  00551	eb 26		 jmp	 SHORT $LN23@notify_sho
$LN22@notify_sho:

; 768  : 	{
; 769  : 		set_ui_object_text (eo_zoom_option_button, option_throttle_text[0]);

  00553	b8 04 00 00 00	 mov	 eax, 4
  00558	6b c8 00	 imul	 ecx, eax, 0
  0055b	8b 91 00 00 00
	00		 mov	 edx, DWORD PTR ?option_throttle_text@@3PAPBDA[ecx]
  00561	52		 push	 edx
  00562	a1 00 00 00 00	 mov	 eax, DWORD PTR ?eo_zoom_option_button@@3PAUUI_OBJECT@@A ; eo_zoom_option_button
  00567	50		 push	 eax
  00568	8b 0d 00 00 00
	00		 mov	 ecx, DWORD PTR ?eo_zoom_option_button@@3PAUUI_OBJECT@@A ; eo_zoom_option_button
  0056e	8b 11		 mov	 edx, DWORD PTR [ecx]
  00570	8b 04 95 00 00
	00 00		 mov	 eax, DWORD PTR ?fn_set_ui_object_text@@3PAP6GXPAUUI_OBJECT@@PBD@ZA[edx*4]
  00577	ff d0		 call	 eax
$LN23@notify_sho:

; 770  : 	}
; 771  : 
; 772  : 	// joystick look x/y
; 773  : 
; 774  : 	if (command_line_joylook_joystick_index != -1)

  00579	83 3d 00 00 00
	00 ff		 cmp	 DWORD PTR ?command_line_joylook_joystick_index@@3HA, -1 ; command_line_joylook_joystick_index
  00580	0f 84 f0 00 00
	00		 je	 $LN26@notify_sho

; 775  : 	{
; 776  : 		int AxisInfoIndex;
; 777  : 		
; 778  : 		AxisInfoIndex = findAxisInArray(command_line_joylook_joystick_index,command_line_joylookh_joystick_axis);

  00586	a1 00 00 00 00	 mov	 eax, DWORD PTR ?command_line_joylookh_joystick_axis@@3HA ; command_line_joylookh_joystick_axis
  0058b	50		 push	 eax
  0058c	8b 0d 00 00 00
	00		 mov	 ecx, DWORD PTR ?command_line_joylook_joystick_index@@3HA ; command_line_joylook_joystick_index
  00592	51		 push	 ecx
  00593	e8 00 00 00 00	 call	 ?findAxisInArray@@YGHHH@Z ; findAxisInArray
  00598	89 45 e8	 mov	 DWORD PTR _AxisInfoIndex$1[ebp], eax

; 779  : 		if (AxisInfoIndex != -1)

  0059b	83 7d e8 ff	 cmp	 DWORD PTR _AxisInfoIndex$1[ebp], -1
  0059f	74 36		 je	 SHORT $LN28@notify_sho

; 780  : 		{
; 781  : 			AxisInfo[AxisInfoIndex].inUse = TRUE;

  005a1	8b 45 e8	 mov	 eax, DWORD PTR _AxisInfoIndex$1[ebp]
  005a4	c1 e0 04	 shl	 eax, 4
  005a7	c7 80 0c 00 00
	00 01 00 00 00	 mov	 DWORD PTR ?AxisInfo@@3PAUAxisInfo_t@@A[eax+12], 1

; 782  : 			set_ui_object_text (joylook_x_option_button, AxisInfo[AxisInfoIndex].AxisName);

  005b1	8b 45 e8	 mov	 eax, DWORD PTR _AxisInfoIndex$1[ebp]
  005b4	c1 e0 04	 shl	 eax, 4
  005b7	8b 88 00 00 00
	00		 mov	 ecx, DWORD PTR ?AxisInfo@@3PAUAxisInfo_t@@A[eax]
  005bd	51		 push	 ecx
  005be	8b 15 00 00 00
	00		 mov	 edx, DWORD PTR ?joylook_x_option_button@@3PAUUI_OBJECT@@A ; joylook_x_option_button
  005c4	52		 push	 edx
  005c5	a1 00 00 00 00	 mov	 eax, DWORD PTR ?joylook_x_option_button@@3PAUUI_OBJECT@@A ; joylook_x_option_button
  005ca	8b 08		 mov	 ecx, DWORD PTR [eax]
  005cc	8b 14 8d 00 00
	00 00		 mov	 edx, DWORD PTR ?fn_set_ui_object_text@@3PAP6GXPAUUI_OBJECT@@PBD@ZA[ecx*4]
  005d3	ff d2		 call	 edx

; 783  : 		}
; 784  : 		else

  005d5	eb 26		 jmp	 SHORT $LN29@notify_sho
$LN28@notify_sho:

; 785  : 		{
; 786  : 			set_ui_object_text (joylook_x_option_button, option_joystick_text[0]);

  005d7	b8 04 00 00 00	 mov	 eax, 4
  005dc	6b c8 00	 imul	 ecx, eax, 0
  005df	8b 91 00 00 00
	00		 mov	 edx, DWORD PTR ?option_joystick_text@@3PAPBDA[ecx]
  005e5	52		 push	 edx
  005e6	a1 00 00 00 00	 mov	 eax, DWORD PTR ?joylook_x_option_button@@3PAUUI_OBJECT@@A ; joylook_x_option_button
  005eb	50		 push	 eax
  005ec	8b 0d 00 00 00
	00		 mov	 ecx, DWORD PTR ?joylook_x_option_button@@3PAUUI_OBJECT@@A ; joylook_x_option_button
  005f2	8b 11		 mov	 edx, DWORD PTR [ecx]
  005f4	8b 04 95 00 00
	00 00		 mov	 eax, DWORD PTR ?fn_set_ui_object_text@@3PAP6GXPAUUI_OBJECT@@PBD@ZA[edx*4]
  005fb	ff d0		 call	 eax
$LN29@notify_sho:

; 787  : 		}
; 788  : 
; 789  : 		AxisInfoIndex = findAxisInArray(command_line_joylook_joystick_index,command_line_joylookv_joystick_axis);

  005fd	a1 00 00 00 00	 mov	 eax, DWORD PTR ?command_line_joylookv_joystick_axis@@3HA ; command_line_joylookv_joystick_axis
  00602	50		 push	 eax
  00603	8b 0d 00 00 00
	00		 mov	 ecx, DWORD PTR ?command_line_joylook_joystick_index@@3HA ; command_line_joylook_joystick_index
  00609	51		 push	 ecx
  0060a	e8 00 00 00 00	 call	 ?findAxisInArray@@YGHHH@Z ; findAxisInArray
  0060f	89 45 e8	 mov	 DWORD PTR _AxisInfoIndex$1[ebp], eax

; 790  : 		if (AxisInfoIndex != -1)

  00612	83 7d e8 ff	 cmp	 DWORD PTR _AxisInfoIndex$1[ebp], -1
  00616	74 36		 je	 SHORT $LN30@notify_sho

; 791  : 		{
; 792  : 			AxisInfo[AxisInfoIndex].inUse = TRUE;

  00618	8b 45 e8	 mov	 eax, DWORD PTR _AxisInfoIndex$1[ebp]
  0061b	c1 e0 04	 shl	 eax, 4
  0061e	c7 80 0c 00 00
	00 01 00 00 00	 mov	 DWORD PTR ?AxisInfo@@3PAUAxisInfo_t@@A[eax+12], 1

; 793  : 			set_ui_object_text (joylook_y_option_button, AxisInfo[AxisInfoIndex].AxisName);

  00628	8b 45 e8	 mov	 eax, DWORD PTR _AxisInfoIndex$1[ebp]
  0062b	c1 e0 04	 shl	 eax, 4
  0062e	8b 88 00 00 00
	00		 mov	 ecx, DWORD PTR ?AxisInfo@@3PAUAxisInfo_t@@A[eax]
  00634	51		 push	 ecx
  00635	8b 15 00 00 00
	00		 mov	 edx, DWORD PTR ?joylook_y_option_button@@3PAUUI_OBJECT@@A ; joylook_y_option_button
  0063b	52		 push	 edx
  0063c	a1 00 00 00 00	 mov	 eax, DWORD PTR ?joylook_y_option_button@@3PAUUI_OBJECT@@A ; joylook_y_option_button
  00641	8b 08		 mov	 ecx, DWORD PTR [eax]
  00643	8b 14 8d 00 00
	00 00		 mov	 edx, DWORD PTR ?fn_set_ui_object_text@@3PAP6GXPAUUI_OBJECT@@PBD@ZA[ecx*4]
  0064a	ff d2		 call	 edx

; 794  : 		}
; 795  : 		else

  0064c	eb 26		 jmp	 SHORT $LN31@notify_sho
$LN30@notify_sho:

; 796  : 		{
; 797  : 			set_ui_object_text (joylook_y_option_button, option_joystick_text[0]);

  0064e	b8 04 00 00 00	 mov	 eax, 4
  00653	6b c8 00	 imul	 ecx, eax, 0
  00656	8b 91 00 00 00
	00		 mov	 edx, DWORD PTR ?option_joystick_text@@3PAPBDA[ecx]
  0065c	52		 push	 edx
  0065d	a1 00 00 00 00	 mov	 eax, DWORD PTR ?joylook_y_option_button@@3PAUUI_OBJECT@@A ; joylook_y_option_button
  00662	50		 push	 eax
  00663	8b 0d 00 00 00
	00		 mov	 ecx, DWORD PTR ?joylook_y_option_button@@3PAUUI_OBJECT@@A ; joylook_y_option_button
  00669	8b 11		 mov	 edx, DWORD PTR [ecx]
  0066b	8b 04 95 00 00
	00 00		 mov	 eax, DWORD PTR ?fn_set_ui_object_text@@3PAP6GXPAUUI_OBJECT@@PBD@ZA[edx*4]
  00672	ff d0		 call	 eax
$LN31@notify_sho:

; 798  : 		}
; 799  : 	}
; 800  : 	else

  00674	eb 4c		 jmp	 SHORT $LN27@notify_sho
$LN26@notify_sho:

; 801  : 	{
; 802  : 		set_ui_object_text (joylook_x_option_button, option_joystick_text[0]);

  00676	b8 04 00 00 00	 mov	 eax, 4
  0067b	6b c8 00	 imul	 ecx, eax, 0
  0067e	8b 91 00 00 00
	00		 mov	 edx, DWORD PTR ?option_joystick_text@@3PAPBDA[ecx]
  00684	52		 push	 edx
  00685	a1 00 00 00 00	 mov	 eax, DWORD PTR ?joylook_x_option_button@@3PAUUI_OBJECT@@A ; joylook_x_option_button
  0068a	50		 push	 eax
  0068b	8b 0d 00 00 00
	00		 mov	 ecx, DWORD PTR ?joylook_x_option_button@@3PAUUI_OBJECT@@A ; joylook_x_option_button
  00691	8b 11		 mov	 edx, DWORD PTR [ecx]
  00693	8b 04 95 00 00
	00 00		 mov	 eax, DWORD PTR ?fn_set_ui_object_text@@3PAP6GXPAUUI_OBJECT@@PBD@ZA[edx*4]
  0069a	ff d0		 call	 eax

; 803  : 		set_ui_object_text (joylook_y_option_button, option_joystick_text[0]);

  0069c	b8 04 00 00 00	 mov	 eax, 4
  006a1	6b c8 00	 imul	 ecx, eax, 0
  006a4	8b 91 00 00 00
	00		 mov	 edx, DWORD PTR ?option_joystick_text@@3PAPBDA[ecx]
  006aa	52		 push	 edx
  006ab	a1 00 00 00 00	 mov	 eax, DWORD PTR ?joylook_y_option_button@@3PAUUI_OBJECT@@A ; joylook_y_option_button
  006b0	50		 push	 eax
  006b1	8b 0d 00 00 00
	00		 mov	 ecx, DWORD PTR ?joylook_y_option_button@@3PAUUI_OBJECT@@A ; joylook_y_option_button
  006b7	8b 11		 mov	 edx, DWORD PTR [ecx]
  006b9	8b 04 95 00 00
	00 00		 mov	 eax, DWORD PTR ?fn_set_ui_object_text@@3PAP6GXPAUUI_OBJECT@@PBD@ZA[edx*4]
  006c0	ff d0		 call	 eax
$LN27@notify_sho:

; 804  : 	}
; 805  : 
; 806  : 	// mouselook
; 807  : 	// Retro 27Nov2004 - may be either OFF-INTERNAL-EXTERNAL-ON (both)
; 808  : 	set_ui_object_text (mouselook_option_button, option_mouselook_text [command_line_mouse_look]);

  006c2	a1 00 00 00 00	 mov	 eax, DWORD PTR ?command_line_mouse_look@@3HA ; command_line_mouse_look
  006c7	8b 0c 85 00 00
	00 00		 mov	 ecx, DWORD PTR ?option_mouselook_text@@3PAPBDA[eax*4]
  006ce	51		 push	 ecx
  006cf	8b 15 00 00 00
	00		 mov	 edx, DWORD PTR ?mouselook_option_button@@3PAUUI_OBJECT@@A ; mouselook_option_button
  006d5	52		 push	 edx
  006d6	a1 00 00 00 00	 mov	 eax, DWORD PTR ?mouselook_option_button@@3PAUUI_OBJECT@@A ; mouselook_option_button
  006db	8b 08		 mov	 ecx, DWORD PTR [eax]
  006dd	8b 14 8d 00 00
	00 00		 mov	 edx, DWORD PTR ?fn_set_ui_object_text@@3PAP6GXPAUUI_OBJECT@@PBD@ZA[ecx*4]
  006e4	ff d2		 call	 edx

; 809  : 
; 810  : 	// trackIR (depending on mouselook)
; 811  : 
; 812  : 	TIR_Poll();	// Retro 6Feb2005

  006e6	e8 00 00 00 00	 call	 ?TIR_Poll@@YGXXZ	; TIR_Poll

; 813  : 
; 814  : 	if (query_TIR_active() == TRUE)

  006eb	e8 00 00 00 00	 call	 ?query_TIR_active@@YAHXZ ; query_TIR_active
  006f0	83 f8 01	 cmp	 eax, 1
  006f3	75 51		 jne	 SHORT $LN32@notify_sho

; 815  : 	{
; 816  : 		if (command_line_mouse_look != MOUSELOOK_OFF)

  006f5	83 3d 00 00 00
	00 00		 cmp	 DWORD PTR ?command_line_mouse_look@@3HA, 0 ; command_line_mouse_look
  006fc	74 24		 je	 SHORT $LN34@notify_sho

; 817  : 			set_ui_object_text (trackir_option_button, get_trans ("Running") );

  006fe	68 00 00 00 00	 push	 OFFSET ??_C@_07JKJCPGE@Running@
  00703	e8 00 00 00 00	 call	 ?get_trans@@YGPBDPBD@Z	; get_trans
  00708	50		 push	 eax
  00709	a1 00 00 00 00	 mov	 eax, DWORD PTR ?trackir_option_button@@3PAUUI_OBJECT@@A ; trackir_option_button
  0070e	50		 push	 eax
  0070f	8b 0d 00 00 00
	00		 mov	 ecx, DWORD PTR ?trackir_option_button@@3PAUUI_OBJECT@@A ; trackir_option_button
  00715	8b 11		 mov	 edx, DWORD PTR [ecx]
  00717	8b 04 95 00 00
	00 00		 mov	 eax, DWORD PTR ?fn_set_ui_object_text@@3PAP6GXPAUUI_OBJECT@@PBD@ZA[edx*4]
  0071e	ff d0		 call	 eax

; 818  : 		else

  00720	eb 22		 jmp	 SHORT $LN35@notify_sho
$LN34@notify_sho:

; 819  : 			set_ui_object_text (trackir_option_button, get_trans ("Enable Mouselook") );

  00722	68 00 00 00 00	 push	 OFFSET ??_C@_0BB@MBPLJEFF@Enable?5Mouselook@
  00727	e8 00 00 00 00	 call	 ?get_trans@@YGPBDPBD@Z	; get_trans
  0072c	50		 push	 eax
  0072d	a1 00 00 00 00	 mov	 eax, DWORD PTR ?trackir_option_button@@3PAUUI_OBJECT@@A ; trackir_option_button
  00732	50		 push	 eax
  00733	8b 0d 00 00 00
	00		 mov	 ecx, DWORD PTR ?trackir_option_button@@3PAUUI_OBJECT@@A ; trackir_option_button
  00739	8b 11		 mov	 edx, DWORD PTR [ecx]
  0073b	8b 04 95 00 00
	00 00		 mov	 eax, DWORD PTR ?fn_set_ui_object_text@@3PAP6GXPAUUI_OBJECT@@PBD@ZA[edx*4]
  00742	ff d0		 call	 eax
$LN35@notify_sho:

; 820  : 	}
; 821  : 	else

  00744	eb 26		 jmp	 SHORT $LN33@notify_sho
$LN32@notify_sho:

; 822  : 		set_ui_object_text (trackir_option_button, option_boolean_text [0]);	// nailed to FALSE for now

  00746	b8 04 00 00 00	 mov	 eax, 4
  0074b	6b c8 00	 imul	 ecx, eax, 0
  0074e	8b 91 00 00 00
	00		 mov	 edx, DWORD PTR ?option_boolean_text@@3PAPBDA[ecx]
  00754	52		 push	 edx
  00755	a1 00 00 00 00	 mov	 eax, DWORD PTR ?trackir_option_button@@3PAUUI_OBJECT@@A ; trackir_option_button
  0075a	50		 push	 eax
  0075b	8b 0d 00 00 00
	00		 mov	 ecx, DWORD PTR ?trackir_option_button@@3PAUUI_OBJECT@@A ; trackir_option_button
  00761	8b 11		 mov	 edx, DWORD PTR [ecx]
  00763	8b 04 95 00 00
	00 00		 mov	 eax, DWORD PTR ?fn_set_ui_object_text@@3PAP6GXPAUUI_OBJECT@@PBD@ZA[edx*4]
  0076a	ff d0		 call	 eax
$LN33@notify_sho:

; 823  : #endif	// Retro 10Jul2004
; 824  : 
; 825  : 	// reverse throttle
; 826  : 
; 827  : 	set_ui_object_text (reverse_throttle_button, option_boolean_text [get_global_dynamics_options_reverse_throttle_input ()]);

  0076c	a1 50 00 00 00	 mov	 eax, DWORD PTR ?global_options@@3UGLOBAL_OPTIONS_DATA@@A+80
  00771	c1 e8 07	 shr	 eax, 7
  00774	83 e0 01	 and	 eax, 1
  00777	8b 0c 85 00 00
	00 00		 mov	 ecx, DWORD PTR ?option_boolean_text@@3PAPBDA[eax*4]
  0077e	51		 push	 ecx
  0077f	8b 15 00 00 00
	00		 mov	 edx, DWORD PTR ?reverse_throttle_button@@3PAUUI_OBJECT@@A ; reverse_throttle_button
  00785	52		 push	 edx
  00786	a1 00 00 00 00	 mov	 eax, DWORD PTR ?reverse_throttle_button@@3PAUUI_OBJECT@@A ; reverse_throttle_button
  0078b	8b 08		 mov	 ecx, DWORD PTR [eax]
  0078d	8b 14 8d 00 00
	00 00		 mov	 edx, DWORD PTR ?fn_set_ui_object_text@@3PAP6GXPAUUI_OBJECT@@PBD@ZA[ecx*4]
  00794	ff d2		 call	 edx

; 828  : 
; 829  : 	// keyboard assistant
; 830  : 
; 831  : 	set_ui_object_text (keyboard_assist_option_button, option_boolean_text [get_global_dynamics_options_keyboard_assistance ()]);

  00796	a1 50 00 00 00	 mov	 eax, DWORD PTR ?global_options@@3UGLOBAL_OPTIONS_DATA@@A+80
  0079b	c1 e8 08	 shr	 eax, 8
  0079e	83 e0 01	 and	 eax, 1
  007a1	8b 0c 85 00 00
	00 00		 mov	 ecx, DWORD PTR ?option_boolean_text@@3PAPBDA[eax*4]
  007a8	51		 push	 ecx
  007a9	8b 15 00 00 00
	00		 mov	 edx, DWORD PTR ?keyboard_assist_option_button@@3PAUUI_OBJECT@@A ; keyboard_assist_option_button
  007af	52		 push	 edx
  007b0	a1 00 00 00 00	 mov	 eax, DWORD PTR ?keyboard_assist_option_button@@3PAUUI_OBJECT@@A ; keyboard_assist_option_button
  007b5	8b 08		 mov	 ecx, DWORD PTR [eax]
  007b7	8b 14 8d 00 00
	00 00		 mov	 edx, DWORD PTR ?fn_set_ui_object_text@@3PAP6GXPAUUI_OBJECT@@PBD@ZA[ecx*4]
  007be	ff d2		 call	 edx

; 832  : 
; 833  : 	display_options_page(OPTIONS_PAGE_CONTROLLER);

  007c0	6a 00		 push	 0
  007c2	e8 00 00 00 00	 call	 ?display_options_page@@YGXW4OPTIONS_PAGES@@@Z ; display_options_page

; 834  : 
; 835  : 	#if DEBUG_MODULE
; 836  : 		debug_filtered_log("Inside show_controller_page");
; 837  : 	#endif
; 838  : 
; 839  : }

  007c7	5f		 pop	 edi
  007c8	5e		 pop	 esi
  007c9	5b		 pop	 ebx
  007ca	8b e5		 mov	 esp, ebp
  007cc	5d		 pop	 ebp
  007cd	c3		 ret	 0
?notify_show_controller_page@@YGXXZ ENDP		; notify_show_controller_page
_TEXT	ENDS
; Function compile flags: /Odtp /ZI
; File c:\users\nhv90\projects\eech\aphavoc\source\ui_menu\options\op_ctrlr.c
;	COMDAT ?initialise_joystick_selection@@YGXXZ
_TEXT	SEGMENT
?initialise_joystick_selection@@YGXXZ PROC		; initialise_joystick_selection, COMDAT

; 229  : {

  00000	55		 push	 ebp
  00001	8b ec		 mov	 ebp, esp
  00003	83 ec 40	 sub	 esp, 64			; 00000040H
  00006	53		 push	 ebx
  00007	56		 push	 esi
  00008	57		 push	 edi

; 230  : #if 0	// Retro 10Jul2004
; 231  : 	// adjust selected joystick
; 232  : 	if ( get_global_joystick_device_index () == -1 ) 
; 233  : 	{
; 234  : 
; 235  : 		// We had no joysticks installed last time - adjust now if we do have
; 236  : 
; 237  : 		if ( number_of_joystick_devices )
; 238  : 		{
; 239  : 
; 240  : 			set_global_joystick_device_index ( 0 );
; 241  : 		} 
; 242  : 		else
; 243  : 		{
; 244  : 
; 245  : 			set_global_collective_input ( KEYBOARD_INPUT );
; 246  : 
; 247  : 			set_global_cyclic_input (KEYBOARD_INPUT);
; 248  : 
; 249  : 			set_global_pedal_input (KEYBOARD_INPUT);
; 250  : 		}
; 251  : 	}
; 252  : 	else if ( get_global_joystick_device_index() >= number_of_joystick_devices )
; 253  : 	{
; 254  : 
; 255  : 		// Last joystick selection is now not available
; 256  : 
; 257  : 		if ( number_of_joystick_devices == 0 )
; 258  : 		{
; 259  : 
; 260  : 			set_global_joystick_device_index ( -1 );
; 261  : 
; 262  : 			set_global_collective_input ( KEYBOARD_INPUT );
; 263  : 
; 264  : 			set_global_cyclic_input ( KEYBOARD_INPUT );
; 265  : 
; 266  : 			set_global_pedal_input ( KEYBOARD_INPUT );
; 267  : 		}
; 268  : 		else
; 269  : 		{
; 270  : 	
; 271  : 			set_global_joystick_device_index ( 0 );
; 272  : 		}
; 273  : 	}
; 274  : #else	// Retro 17Jul2004
; 275  : 	// Check if the number of enumerated joysticks changed compared to last time
; 276  : 	// If it does, nuke everything
; 277  : 	if (( get_global_joystick_device_index () == -1 )||

  00009	83 3d 34 00 00
	00 ff		 cmp	 DWORD PTR ?global_options@@3UGLOBAL_OPTIONS_DATA@@A+52, -1
  00010	74 0d		 je	 SHORT $LN3@initialise
  00012	a1 00 00 00 00	 mov	 eax, DWORD PTR ?number_of_joystick_devices@@3HA ; number_of_joystick_devices
  00017	3b 05 34 00 00
	00		 cmp	 eax, DWORD PTR ?global_options@@3UGLOBAL_OPTIONS_DATA@@A+52
  0001d	74 19		 je	 SHORT $LN1@initialise
$LN3@initialise:

; 278  : 		( number_of_joystick_devices != get_global_joystick_device_index ()))
; 279  : 	{
; 280  : #if 0
; 281  : 		set_global_collective_input ( KEYBOARD_INPUT );
; 282  : 
; 283  : 		set_global_cyclic_input ( KEYBOARD_INPUT );
; 284  : 
; 285  : 		set_global_pedal_input ( KEYBOARD_INPUT );
; 286  : 
; 287  : 		set_global_joystick_device_index (-1);
; 288  : 
; 289  : 		command_line_cyclic_joystick_index = -1;
; 290  : 		command_line_cyclic_joystick_x_axis = -1;
; 291  : 		command_line_cyclic_joystick_y_axis =- 1;
; 292  : 
; 293  : 		command_line_collective_joystick_index = -1;
; 294  : 		command_line_collective_joystick_axis = -1;
; 295  : 
; 296  : 		command_line_rudder_joystick_index = -1;
; 297  : 		command_line_rudder_joystick_axis = -1;
; 298  : 
; 299  : 		command_line_eo_pan_joystick_index = -1;
; 300  : 		command_line_eo_pan_vertical_joystick_axis = -1;
; 301  : 		command_line_eo_pan_horizontal_joystick_axis = -1;
; 302  : 
; 303  : 		command_line_eo_zoom_joystick_index = -1;
; 304  : 		command_line_eo_zoom_joystick_axis = -1;
; 305  : 
; 306  : 		command_line_joylook_joystick_index = -1;
; 307  : 		command_line_joylookh_joystick_axis = -1;
; 308  : 		command_line_joylookv_joystick_axis = -1;
; 309  : #else
; 310  : 		set_global_joystick_device_index (-1);

  0001f	c7 05 34 00 00
	00 ff ff ff ff	 mov	 DWORD PTR ?global_options@@3UGLOBAL_OPTIONS_DATA@@A+52, -1

; 311  : 
; 312  : 		resetJoystickMapping();

  00029	e8 00 00 00 00	 call	 ?resetJoystickMapping@@YGXXZ ; resetJoystickMapping

; 313  : #endif
; 314  : 
; 315  : #if DEBUG_MODULE
; 316  : 		debug_log ("Number of joysticks changed from %i to %i - resetting everything\n",get_global_joystick_device_index(),number_of_joystick_devices);
; 317  : #endif
; 318  : 
; 319  : 		// Now save the new number
; 320  : 		// For this I recycled an old function, in order to not touch the options-file layout - hence the strange name
; 321  : 		set_global_joystick_device_index ( number_of_joystick_devices );

  0002e	a1 00 00 00 00	 mov	 eax, DWORD PTR ?number_of_joystick_devices@@3HA ; number_of_joystick_devices
  00033	a3 34 00 00 00	 mov	 DWORD PTR ?global_options@@3UGLOBAL_OPTIONS_DATA@@A+52, eax
$LN1@initialise:

; 322  : 	}
; 323  : #endif	// Retro 10Jul2004
; 324  : }

  00038	5f		 pop	 edi
  00039	5e		 pop	 esi
  0003a	5b		 pop	 ebx
  0003b	8b e5		 mov	 esp, ebp
  0003d	5d		 pop	 ebp
  0003e	c3		 ret	 0
?initialise_joystick_selection@@YGXXZ ENDP		; initialise_joystick_selection
_TEXT	ENDS
; Function compile flags: /Odtp /ZI
; File c:\program files (x86)\windows kits\10\include\10.0.18362.0\ucrt\stdio.h
;	COMDAT _sprintf
_TEXT	SEGMENT
__ArgList$ = -8						; size = 4
__Result$ = -4						; size = 4
__Buffer$ = 8						; size = 4
__Format$ = 12						; size = 4
_sprintf PROC						; COMDAT

; 1781 :     {

  00000	55		 push	 ebp
  00001	8b ec		 mov	 ebp, esp
  00003	83 ec 4c	 sub	 esp, 76			; 0000004cH
  00006	53		 push	 ebx
  00007	56		 push	 esi
  00008	57		 push	 edi

; 1782 :         int _Result;
; 1783 :         va_list _ArgList;
; 1784 :         __crt_va_start(_ArgList, _Format);

  00009	8d 45 10	 lea	 eax, DWORD PTR __Format$[ebp+4]
  0000c	89 45 f8	 mov	 DWORD PTR __ArgList$[ebp], eax

; 1785 : 
; 1786 :         #pragma warning(push)
; 1787 :         #pragma warning(disable: 4996) // Deprecation
; 1788 :         _Result = _vsprintf_l(_Buffer, _Format, NULL, _ArgList);

  0000f	8b 45 f8	 mov	 eax, DWORD PTR __ArgList$[ebp]
  00012	50		 push	 eax
  00013	6a 00		 push	 0
  00015	8b 4d 0c	 mov	 ecx, DWORD PTR __Format$[ebp]
  00018	51		 push	 ecx
  00019	8b 55 08	 mov	 edx, DWORD PTR __Buffer$[ebp]
  0001c	52		 push	 edx
  0001d	e8 00 00 00 00	 call	 __vsprintf_l
  00022	83 c4 10	 add	 esp, 16			; 00000010H
  00025	89 45 fc	 mov	 DWORD PTR __Result$[ebp], eax

; 1789 :         #pragma warning(pop)
; 1790 : 
; 1791 :         __crt_va_end(_ArgList);

  00028	c7 45 f8 00 00
	00 00		 mov	 DWORD PTR __ArgList$[ebp], 0

; 1792 :         return _Result;

  0002f	8b 45 fc	 mov	 eax, DWORD PTR __Result$[ebp]

; 1793 :     }

  00032	5f		 pop	 edi
  00033	5e		 pop	 esi
  00034	5b		 pop	 ebx
  00035	8b e5		 mov	 esp, ebp
  00037	5d		 pop	 ebp
  00038	c3		 ret	 0
_sprintf ENDP
_TEXT	ENDS
; Function compile flags: /Odtp /ZI
; File c:\program files (x86)\windows kits\10\include\10.0.18362.0\ucrt\stdio.h
;	COMDAT __vsprintf_l
_TEXT	SEGMENT
__Buffer$ = 8						; size = 4
__Format$ = 12						; size = 4
__Locale$ = 16						; size = 4
__ArgList$ = 20						; size = 4
__vsprintf_l PROC					; COMDAT

; 1459 :     {

  00000	55		 push	 ebp
  00001	8b ec		 mov	 ebp, esp
  00003	83 ec 40	 sub	 esp, 64			; 00000040H
  00006	53		 push	 ebx
  00007	56		 push	 esi
  00008	57		 push	 edi

; 1460 :         #pragma warning(push)
; 1461 :         #pragma warning(disable: 4996) // Deprecation
; 1462 :         return _vsnprintf_l(_Buffer, (size_t)-1, _Format, _Locale, _ArgList);

  00009	8b 45 14	 mov	 eax, DWORD PTR __ArgList$[ebp]
  0000c	50		 push	 eax
  0000d	8b 4d 10	 mov	 ecx, DWORD PTR __Locale$[ebp]
  00010	51		 push	 ecx
  00011	8b 55 0c	 mov	 edx, DWORD PTR __Format$[ebp]
  00014	52		 push	 edx
  00015	6a ff		 push	 -1
  00017	8b 45 08	 mov	 eax, DWORD PTR __Buffer$[ebp]
  0001a	50		 push	 eax
  0001b	e8 00 00 00 00	 call	 __vsnprintf_l
  00020	83 c4 14	 add	 esp, 20			; 00000014H

; 1463 :         #pragma warning(pop)
; 1464 :     }

  00023	5f		 pop	 edi
  00024	5e		 pop	 esi
  00025	5b		 pop	 ebx
  00026	8b e5		 mov	 esp, ebp
  00028	5d		 pop	 ebp
  00029	c3		 ret	 0
__vsprintf_l ENDP
_TEXT	ENDS
; Function compile flags: /Odtp /ZI
; File c:\program files (x86)\windows kits\10\include\10.0.18362.0\ucrt\stdio.h
;	COMDAT __vsnprintf_l
_TEXT	SEGMENT
tv74 = -72						; size = 4
__Result$ = -4						; size = 4
__Buffer$ = 8						; size = 4
__BufferCount$ = 12					; size = 4
__Format$ = 16						; size = 4
__Locale$ = 20						; size = 4
__ArgList$ = 24						; size = 4
__vsnprintf_l PROC					; COMDAT

; 1389 :     {

  00000	55		 push	 ebp
  00001	8b ec		 mov	 ebp, esp
  00003	83 ec 48	 sub	 esp, 72			; 00000048H
  00006	53		 push	 ebx
  00007	56		 push	 esi
  00008	57		 push	 edi

; 1390 :         int const _Result = __stdio_common_vsprintf(

  00009	8b 45 18	 mov	 eax, DWORD PTR __ArgList$[ebp]
  0000c	50		 push	 eax
  0000d	8b 4d 14	 mov	 ecx, DWORD PTR __Locale$[ebp]
  00010	51		 push	 ecx
  00011	8b 55 10	 mov	 edx, DWORD PTR __Format$[ebp]
  00014	52		 push	 edx
  00015	8b 45 0c	 mov	 eax, DWORD PTR __BufferCount$[ebp]
  00018	50		 push	 eax
  00019	8b 4d 08	 mov	 ecx, DWORD PTR __Buffer$[ebp]
  0001c	51		 push	 ecx
  0001d	e8 00 00 00 00	 call	 ___local_stdio_printf_options
  00022	8b 10		 mov	 edx, DWORD PTR [eax]
  00024	83 ca 01	 or	 edx, 1
  00027	8b 40 04	 mov	 eax, DWORD PTR [eax+4]
  0002a	50		 push	 eax
  0002b	52		 push	 edx
  0002c	ff 15 00 00 00
	00		 call	 DWORD PTR __imp____stdio_common_vsprintf
  00032	83 c4 1c	 add	 esp, 28			; 0000001cH
  00035	89 45 fc	 mov	 DWORD PTR __Result$[ebp], eax

; 1391 :             _CRT_INTERNAL_LOCAL_PRINTF_OPTIONS | _CRT_INTERNAL_PRINTF_LEGACY_VSPRINTF_NULL_TERMINATION,
; 1392 :             _Buffer, _BufferCount, _Format, _Locale, _ArgList);
; 1393 : 
; 1394 :         return _Result < 0 ? -1 : _Result;

  00038	83 7d fc 00	 cmp	 DWORD PTR __Result$[ebp], 0
  0003c	7d 09		 jge	 SHORT $LN3@vsnprintf_
  0003e	c7 45 b8 ff ff
	ff ff		 mov	 DWORD PTR tv74[ebp], -1
  00045	eb 06		 jmp	 SHORT $LN4@vsnprintf_
$LN3@vsnprintf_:
  00047	8b 45 fc	 mov	 eax, DWORD PTR __Result$[ebp]
  0004a	89 45 b8	 mov	 DWORD PTR tv74[ebp], eax
$LN4@vsnprintf_:
  0004d	8b 45 b8	 mov	 eax, DWORD PTR tv74[ebp]

; 1395 :     }

  00050	5f		 pop	 edi
  00051	5e		 pop	 esi
  00052	5b		 pop	 ebx
  00053	8b e5		 mov	 esp, ebp
  00055	5d		 pop	 ebp
  00056	c3		 ret	 0
__vsnprintf_l ENDP
_TEXT	ENDS
; Function compile flags: /Odtp /ZI
; File c:\program files (x86)\windows kits\10\include\10.0.18362.0\ucrt\corecrt_stdio_config.h
;	COMDAT ___local_stdio_printf_options
_TEXT	SEGMENT
___local_stdio_printf_options PROC			; COMDAT

; 86   :     {

  00000	55		 push	 ebp
  00001	8b ec		 mov	 ebp, esp
  00003	83 ec 40	 sub	 esp, 64			; 00000040H
  00006	53		 push	 ebx
  00007	56		 push	 esi
  00008	57		 push	 edi

; 87   :         static unsigned __int64 _OptionsStorage;
; 88   :         return &_OptionsStorage;

  00009	b8 00 00 00 00	 mov	 eax, OFFSET ?_OptionsStorage@?1??__local_stdio_printf_options@@9@4_KA ; `__local_stdio_printf_options'::`2'::_OptionsStorage

; 89   :     }

  0000e	5f		 pop	 edi
  0000f	5e		 pop	 esi
  00010	5b		 pop	 ebx
  00011	8b e5		 mov	 esp, ebp
  00013	5d		 pop	 ebp
  00014	c3		 ret	 0
___local_stdio_printf_options ENDP
_TEXT	ENDS
END
