; Listing generated by Microsoft (R) Optimizing Compiler Version 19.16.27045.0 

	TITLE	C:\Users\nhv90\Projects\eech\aphavoc\source\ui_menu\options\op_dynam.c
	.686P
	.XMM
	include listing.inc
	.model	flat

INCLUDELIB MSVCRTD
INCLUDELIB OLDNAMES

PUBLIC	?blade_stall_area@@3PAUUI_OBJECT@@A		; blade_stall_area
PUBLIC	?cross_couple_area@@3PAUUI_OBJECT@@A		; cross_couple_area
PUBLIC	?ground_effect_area@@3PAUUI_OBJECT@@A		; ground_effect_area
PUBLIC	?over_torque_area@@3PAUUI_OBJECT@@A		; over_torque_area
PUBLIC	?vortex_ring_area@@3PAUUI_OBJECT@@A		; vortex_ring_area
PUBLIC	?wind_area@@3PAUUI_OBJECT@@A			; wind_area
PUBLIC	?transitional_lift_area@@3PAUUI_OBJECT@@A	; transitional_lift_area
PUBLIC	?blade_stall_option_button@@3PAUUI_OBJECT@@A	; blade_stall_option_button
PUBLIC	?cross_couple_option_button@@3PAUUI_OBJECT@@A	; cross_couple_option_button
PUBLIC	?ground_effect_option_button@@3PAUUI_OBJECT@@A	; ground_effect_option_button
PUBLIC	?over_torque_option_button@@3PAUUI_OBJECT@@A	; over_torque_option_button
PUBLIC	?vortex_ring_option_button@@3PAUUI_OBJECT@@A	; vortex_ring_option_button
PUBLIC	?wind_option_button@@3PAUUI_OBJECT@@A		; wind_option_button
PUBLIC	?transitional_lift_option_button@@3PAUUI_OBJECT@@A ; transitional_lift_option_button
_BSS	SEGMENT
?blade_stall_area@@3PAUUI_OBJECT@@A DD 01H DUP (?)	; blade_stall_area
?cross_couple_area@@3PAUUI_OBJECT@@A DD 01H DUP (?)	; cross_couple_area
?ground_effect_area@@3PAUUI_OBJECT@@A DD 01H DUP (?)	; ground_effect_area
?over_torque_area@@3PAUUI_OBJECT@@A DD 01H DUP (?)	; over_torque_area
?vortex_ring_area@@3PAUUI_OBJECT@@A DD 01H DUP (?)	; vortex_ring_area
?wind_area@@3PAUUI_OBJECT@@A DD 01H DUP (?)		; wind_area
?transitional_lift_area@@3PAUUI_OBJECT@@A DD 01H DUP (?) ; transitional_lift_area
?blade_stall_option_button@@3PAUUI_OBJECT@@A DD 01H DUP (?) ; blade_stall_option_button
?cross_couple_option_button@@3PAUUI_OBJECT@@A DD 01H DUP (?) ; cross_couple_option_button
?ground_effect_option_button@@3PAUUI_OBJECT@@A DD 01H DUP (?) ; ground_effect_option_button
?over_torque_option_button@@3PAUUI_OBJECT@@A DD 01H DUP (?) ; over_torque_option_button
?vortex_ring_option_button@@3PAUUI_OBJECT@@A DD 01H DUP (?) ; vortex_ring_option_button
?wind_option_button@@3PAUUI_OBJECT@@A DD 01H DUP (?)	; wind_option_button
?transitional_lift_option_button@@3PAUUI_OBJECT@@A DD 01H DUP (?) ; transitional_lift_option_button
_BSS	ENDS
PUBLIC	?notify_show_dynamics_page@@YGXXZ		; notify_show_dynamics_page
PUBLIC	?define_options_screen_dynamics_page_objects@@YGXXZ ; define_options_screen_dynamics_page_objects
PUBLIC	?notify_blade_stall_option_button@@YGXPAUUI_OBJECT@@PAX@Z ; notify_blade_stall_option_button
PUBLIC	?notify_cross_couple_option_button@@YGXPAUUI_OBJECT@@PAX@Z ; notify_cross_couple_option_button
PUBLIC	?notify_ground_effect_option_button@@YGXPAUUI_OBJECT@@PAX@Z ; notify_ground_effect_option_button
PUBLIC	?notify_over_torque_option_button@@YGXPAUUI_OBJECT@@PAX@Z ; notify_over_torque_option_button
PUBLIC	?notify_vortex_ring_option_button@@YGXPAUUI_OBJECT@@PAX@Z ; notify_vortex_ring_option_button
PUBLIC	?notify_wind_option_button@@YGXPAUUI_OBJECT@@PAX@Z ; notify_wind_option_button
PUBLIC	?notify_transitional_lift_option_button@@YGXPAUUI_OBJECT@@PAX@Z ; notify_transitional_lift_option_button
PUBLIC	??_C@_03GCDBBDDL@Off@				; `string'
PUBLIC	??_C@_02IAAGKKDJ@On@				; `string'
PUBLIC	??_C@_0M@OHPHIGHK@Blade?5Stall@			; `string'
PUBLIC	??_C@_0N@FJLMCKLO@Cross?5Couple@		; `string'
PUBLIC	??_C@_0O@OBCKGDPN@Ground?5Effect@		; `string'
PUBLIC	??_C@_0M@PELOPOLE@Over?5Torque@			; `string'
PUBLIC	??_C@_0M@OHJLGJDD@Vortex?5Ring@			; `string'
PUBLIC	??_C@_04LGBIOLDJ@Wind@				; `string'
PUBLIC	??_C@_0BC@KDKBAAAO@Transitional?5Lift@		; `string'
PUBLIC	??_C@_00CNPNBAHC@@				; `string'
PUBLIC	__real@3b2a64c3
PUBLIC	__real@3c03126f
PUBLIC	__real@3d7df3b6
PUBLIC	__real@3def9db2
PUBLIC	__real@3e851eb8
PUBLIC	__real@3ea4dd2f
PUBLIC	__real@3f800000
PUBLIC	__real@3fadb22d00000000
PUBLIC	__real@3fbba5e360000000
PUBLIC	__real@3fc24dd300000000
PUBLIC	__real@3fd3126ea0000000
PUBLIC	__real@3fee666660000000
PUBLIC	__real@3ff0000000000000
EXTRN	?create_ui_object@@YAPAUUI_OBJECT@@HZZ:PROC	; create_ui_object
EXTRN	?recursively_set_object_time@@YGXPAUUI_OBJECT@@HH@Z:PROC ; recursively_set_object_time
EXTRN	?set_toggle_button_off@@YGXPAUUI_OBJECT@@@Z:PROC ; set_toggle_button_off
EXTRN	?set_current_dynamics_options@@YGXW4DYNAMICS_OPTIONS_TYPES@@H@Z:PROC ; set_current_dynamics_options
EXTRN	?get_trans@@YGPBDPBD@Z:PROC			; get_trans
EXTRN	?display_options_page@@YGXW4OPTIONS_PAGES@@@Z:PROC ; display_options_page
EXTRN	?preprocess_translation_object_size@@YGXPAUUI_OBJECT@@0PAPBDHW4RESIZE_UI_OBJECT_TYPES@@@Z:PROC ; preprocess_translation_object_size
EXTRN	?fn_get_ui_object_x_end@@3PAP6GMPAUUI_OBJECT@@@ZA:BYTE ; fn_get_ui_object_x_end
EXTRN	?fn_get_ui_object_x_size_end@@3PAP6GMPAUUI_OBJECT@@@ZA:BYTE ; fn_get_ui_object_x_size_end
EXTRN	?fn_set_ui_object_text@@3PAP6GXPAUUI_OBJECT@@PBD@ZA:BYTE ; fn_set_ui_object_text
EXTRN	?ui_option_title_text_colour@@3UREAL_COLOUR@@A:DWORD ; ui_option_title_text_colour
EXTRN	?ui_option_text_default_colour@@3UREAL_COLOUR@@A:DWORD ; ui_option_text_default_colour
EXTRN	?ui_option_text_hilite_colour@@3UREAL_COLOUR@@A:DWORD ; ui_option_text_hilite_colour
EXTRN	?global_options@@3UGLOBAL_OPTIONS_DATA@@A:BYTE	; global_options
EXTRN	?options_box_small@@3PAUTEXTURE_GRAPHIC@@A:DWORD ; options_box_small
EXTRN	?options_box_large@@3PAUTEXTURE_GRAPHIC@@A:DWORD ; options_box_large
EXTRN	?options_screen@@3PAUUI_OBJECT@@A:DWORD		; options_screen
EXTRN	?options_page@@3PAPAUUI_OBJECT@@A:BYTE		; options_page
EXTRN	__fltused:DWORD
_BSS	SEGMENT
?option_boolean_text@@3PAPBDA DD 02H DUP (?)		; option_boolean_text
_BSS	ENDS
;	COMDAT __real@3ff0000000000000
CONST	SEGMENT
__real@3ff0000000000000 DQ 03ff0000000000000r	; 1
CONST	ENDS
;	COMDAT __real@3fee666660000000
CONST	SEGMENT
__real@3fee666660000000 DQ 03fee666660000000r	; 0.95
CONST	ENDS
;	COMDAT __real@3fd3126ea0000000
CONST	SEGMENT
__real@3fd3126ea0000000 DQ 03fd3126ea0000000r	; 0.298
CONST	ENDS
;	COMDAT __real@3fc24dd300000000
CONST	SEGMENT
__real@3fc24dd300000000 DQ 03fc24dd300000000r	; 0.143
CONST	ENDS
;	COMDAT __real@3fbba5e360000000
CONST	SEGMENT
__real@3fbba5e360000000 DQ 03fbba5e360000000r	; 0.108
CONST	ENDS
;	COMDAT __real@3fadb22d00000000
CONST	SEGMENT
__real@3fadb22d00000000 DQ 03fadb22d00000000r	; 0.058
CONST	ENDS
;	COMDAT __real@3f800000
CONST	SEGMENT
__real@3f800000 DD 03f800000r			; 1
CONST	ENDS
;	COMDAT __real@3ea4dd2f
CONST	SEGMENT
__real@3ea4dd2f DD 03ea4dd2fr			; 0.322
CONST	ENDS
;	COMDAT __real@3e851eb8
CONST	SEGMENT
__real@3e851eb8 DD 03e851eb8r			; 0.26
CONST	ENDS
;	COMDAT __real@3def9db2
CONST	SEGMENT
__real@3def9db2 DD 03def9db2r			; 0.117
CONST	ENDS
;	COMDAT __real@3d7df3b6
CONST	SEGMENT
__real@3d7df3b6 DD 03d7df3b6r			; 0.062
CONST	ENDS
;	COMDAT __real@3c03126f
CONST	SEGMENT
__real@3c03126f DD 03c03126fr			; 0.008
CONST	ENDS
;	COMDAT __real@3b2a64c3
CONST	SEGMENT
__real@3b2a64c3 DD 03b2a64c3r			; 0.0026
CONST	ENDS
;	COMDAT ??_C@_00CNPNBAHC@@
CONST	SEGMENT
??_C@_00CNPNBAHC@@ DB 00H				; `string'
CONST	ENDS
;	COMDAT ??_C@_0BC@KDKBAAAO@Transitional?5Lift@
CONST	SEGMENT
??_C@_0BC@KDKBAAAO@Transitional?5Lift@ DB 'Transitional Lift', 00H ; `string'
CONST	ENDS
;	COMDAT ??_C@_04LGBIOLDJ@Wind@
CONST	SEGMENT
??_C@_04LGBIOLDJ@Wind@ DB 'Wind', 00H			; `string'
CONST	ENDS
;	COMDAT ??_C@_0M@OHJLGJDD@Vortex?5Ring@
CONST	SEGMENT
??_C@_0M@OHJLGJDD@Vortex?5Ring@ DB 'Vortex Ring', 00H	; `string'
CONST	ENDS
;	COMDAT ??_C@_0M@PELOPOLE@Over?5Torque@
CONST	SEGMENT
??_C@_0M@PELOPOLE@Over?5Torque@ DB 'Over Torque', 00H	; `string'
CONST	ENDS
;	COMDAT ??_C@_0O@OBCKGDPN@Ground?5Effect@
CONST	SEGMENT
??_C@_0O@OBCKGDPN@Ground?5Effect@ DB 'Ground Effect', 00H ; `string'
CONST	ENDS
;	COMDAT ??_C@_0N@FJLMCKLO@Cross?5Couple@
CONST	SEGMENT
??_C@_0N@FJLMCKLO@Cross?5Couple@ DB 'Cross Couple', 00H	; `string'
CONST	ENDS
;	COMDAT ??_C@_0M@OHPHIGHK@Blade?5Stall@
CONST	SEGMENT
??_C@_0M@OHPHIGHK@Blade?5Stall@ DB 'Blade Stall', 00H	; `string'
CONST	ENDS
;	COMDAT ??_C@_02IAAGKKDJ@On@
CONST	SEGMENT
??_C@_02IAAGKKDJ@On@ DB 'On', 00H			; `string'
CONST	ENDS
;	COMDAT ??_C@_03GCDBBDDL@Off@
CONST	SEGMENT
??_C@_03GCDBBDDL@Off@ DB 'Off', 00H			; `string'
CONST	ENDS
; Function compile flags: /Odtp /ZI
; File c:\users\nhv90\projects\eech\aphavoc\source\ui_menu\options\op_dynam.c
;	COMDAT ?notify_transitional_lift_option_button@@YGXPAUUI_OBJECT@@PAX@Z
_TEXT	SEGMENT
tv67 = -68						; size = 4
_obj$ = 8						; size = 4
_arg$ = 12						; size = 4
?notify_transitional_lift_option_button@@YGXPAUUI_OBJECT@@PAX@Z PROC ; notify_transitional_lift_option_button, COMDAT

; 905  : {

  00000	55		 push	 ebp
  00001	8b ec		 mov	 ebp, esp
  00003	83 ec 44	 sub	 esp, 68			; 00000044H
  00006	53		 push	 ebx
  00007	56		 push	 esi
  00008	57		 push	 edi

; 906  : 	set_global_dynamics_options_transitional_lift (!get_global_dynamics_options_transitional_lift ());

  00009	a1 50 00 00 00	 mov	 eax, DWORD PTR ?global_options@@3UGLOBAL_OPTIONS_DATA@@A+80
  0000e	c1 e8 04	 shr	 eax, 4
  00011	83 e0 01	 and	 eax, 1
  00014	75 09		 jne	 SHORT $LN3@notify_tra
  00016	c7 45 bc 01 00
	00 00		 mov	 DWORD PTR tv67[ebp], 1
  0001d	eb 07		 jmp	 SHORT $LN4@notify_tra
$LN3@notify_tra:
  0001f	c7 45 bc 00 00
	00 00		 mov	 DWORD PTR tv67[ebp], 0
$LN4@notify_tra:
  00026	8b 4d bc	 mov	 ecx, DWORD PTR tv67[ebp]
  00029	83 e1 01	 and	 ecx, 1
  0002c	c1 e1 04	 shl	 ecx, 4
  0002f	8b 15 50 00 00
	00		 mov	 edx, DWORD PTR ?global_options@@3UGLOBAL_OPTIONS_DATA@@A+80
  00035	83 e2 ef	 and	 edx, -17		; ffffffefH
  00038	0b d1		 or	 edx, ecx
  0003a	89 15 50 00 00
	00		 mov	 DWORD PTR ?global_options@@3UGLOBAL_OPTIONS_DATA@@A+80, edx

; 907  : 
; 908  : 	set_ui_object_text (transitional_lift_option_button, option_boolean_text [get_global_dynamics_options_transitional_lift ()]);

  00040	a1 50 00 00 00	 mov	 eax, DWORD PTR ?global_options@@3UGLOBAL_OPTIONS_DATA@@A+80
  00045	c1 e8 04	 shr	 eax, 4
  00048	83 e0 01	 and	 eax, 1
  0004b	8b 0c 85 00 00
	00 00		 mov	 ecx, DWORD PTR ?option_boolean_text@@3PAPBDA[eax*4]
  00052	51		 push	 ecx
  00053	8b 15 00 00 00
	00		 mov	 edx, DWORD PTR ?transitional_lift_option_button@@3PAUUI_OBJECT@@A ; transitional_lift_option_button
  00059	52		 push	 edx
  0005a	a1 00 00 00 00	 mov	 eax, DWORD PTR ?transitional_lift_option_button@@3PAUUI_OBJECT@@A ; transitional_lift_option_button
  0005f	8b 08		 mov	 ecx, DWORD PTR [eax]
  00061	8b 14 8d 00 00
	00 00		 mov	 edx, DWORD PTR ?fn_set_ui_object_text@@3PAP6GXPAUUI_OBJECT@@PBD@ZA[ecx*4]
  00068	ff d2		 call	 edx

; 909  : 
; 910  : 	set_current_dynamics_options (DYNAMICS_OPTIONS_TRANSITIONAL_LIFT, get_global_dynamics_options_transitional_lift());

  0006a	a1 50 00 00 00	 mov	 eax, DWORD PTR ?global_options@@3UGLOBAL_OPTIONS_DATA@@A+80
  0006f	c1 e8 04	 shr	 eax, 4
  00072	83 e0 01	 and	 eax, 1
  00075	50		 push	 eax
  00076	6a 0a		 push	 10			; 0000000aH
  00078	e8 00 00 00 00	 call	 ?set_current_dynamics_options@@YGXW4DYNAMICS_OPTIONS_TYPES@@H@Z ; set_current_dynamics_options

; 911  : 
; 912  : 	// don't leave text selected
; 913  : 
; 914  : 	set_toggle_button_off (obj);

  0007d	8b 45 08	 mov	 eax, DWORD PTR _obj$[ebp]
  00080	50		 push	 eax
  00081	e8 00 00 00 00	 call	 ?set_toggle_button_off@@YGXPAUUI_OBJECT@@@Z ; set_toggle_button_off

; 915  : }

  00086	5f		 pop	 edi
  00087	5e		 pop	 esi
  00088	5b		 pop	 ebx
  00089	8b e5		 mov	 esp, ebp
  0008b	5d		 pop	 ebp
  0008c	c2 08 00	 ret	 8
?notify_transitional_lift_option_button@@YGXPAUUI_OBJECT@@PAX@Z ENDP ; notify_transitional_lift_option_button
_TEXT	ENDS
; Function compile flags: /Odtp /ZI
; File c:\users\nhv90\projects\eech\aphavoc\source\ui_menu\options\op_dynam.c
;	COMDAT ?notify_wind_option_button@@YGXPAUUI_OBJECT@@PAX@Z
_TEXT	SEGMENT
tv67 = -68						; size = 4
_obj$ = 8						; size = 4
_arg$ = 12						; size = 4
?notify_wind_option_button@@YGXPAUUI_OBJECT@@PAX@Z PROC	; notify_wind_option_button, COMDAT

; 888  : {

  00000	55		 push	 ebp
  00001	8b ec		 mov	 ebp, esp
  00003	83 ec 44	 sub	 esp, 68			; 00000044H
  00006	53		 push	 ebx
  00007	56		 push	 esi
  00008	57		 push	 edi

; 889  : 	set_global_dynamics_options_wind (!get_global_dynamics_options_wind ());

  00009	a1 50 00 00 00	 mov	 eax, DWORD PTR ?global_options@@3UGLOBAL_OPTIONS_DATA@@A+80
  0000e	c1 e8 03	 shr	 eax, 3
  00011	83 e0 01	 and	 eax, 1
  00014	75 09		 jne	 SHORT $LN3@notify_win
  00016	c7 45 bc 01 00
	00 00		 mov	 DWORD PTR tv67[ebp], 1
  0001d	eb 07		 jmp	 SHORT $LN4@notify_win
$LN3@notify_win:
  0001f	c7 45 bc 00 00
	00 00		 mov	 DWORD PTR tv67[ebp], 0
$LN4@notify_win:
  00026	8b 4d bc	 mov	 ecx, DWORD PTR tv67[ebp]
  00029	83 e1 01	 and	 ecx, 1
  0002c	c1 e1 03	 shl	 ecx, 3
  0002f	8b 15 50 00 00
	00		 mov	 edx, DWORD PTR ?global_options@@3UGLOBAL_OPTIONS_DATA@@A+80
  00035	83 e2 f7	 and	 edx, -9			; fffffff7H
  00038	0b d1		 or	 edx, ecx
  0003a	89 15 50 00 00
	00		 mov	 DWORD PTR ?global_options@@3UGLOBAL_OPTIONS_DATA@@A+80, edx

; 890  : 
; 891  : 	set_ui_object_text (wind_option_button, option_boolean_text [get_global_dynamics_options_wind ()]);

  00040	a1 50 00 00 00	 mov	 eax, DWORD PTR ?global_options@@3UGLOBAL_OPTIONS_DATA@@A+80
  00045	c1 e8 03	 shr	 eax, 3
  00048	83 e0 01	 and	 eax, 1
  0004b	8b 0c 85 00 00
	00 00		 mov	 ecx, DWORD PTR ?option_boolean_text@@3PAPBDA[eax*4]
  00052	51		 push	 ecx
  00053	8b 15 00 00 00
	00		 mov	 edx, DWORD PTR ?wind_option_button@@3PAUUI_OBJECT@@A ; wind_option_button
  00059	52		 push	 edx
  0005a	a1 00 00 00 00	 mov	 eax, DWORD PTR ?wind_option_button@@3PAUUI_OBJECT@@A ; wind_option_button
  0005f	8b 08		 mov	 ecx, DWORD PTR [eax]
  00061	8b 14 8d 00 00
	00 00		 mov	 edx, DWORD PTR ?fn_set_ui_object_text@@3PAP6GXPAUUI_OBJECT@@PBD@ZA[ecx*4]
  00068	ff d2		 call	 edx

; 892  : 
; 893  : 	set_current_dynamics_options (DYNAMICS_OPTIONS_WIND, get_global_dynamics_options_wind());

  0006a	a1 50 00 00 00	 mov	 eax, DWORD PTR ?global_options@@3UGLOBAL_OPTIONS_DATA@@A+80
  0006f	c1 e8 03	 shr	 eax, 3
  00072	83 e0 01	 and	 eax, 1
  00075	50		 push	 eax
  00076	6a 0c		 push	 12			; 0000000cH
  00078	e8 00 00 00 00	 call	 ?set_current_dynamics_options@@YGXW4DYNAMICS_OPTIONS_TYPES@@H@Z ; set_current_dynamics_options

; 894  : 
; 895  : 	// don't leave text selected
; 896  : 
; 897  : 	set_toggle_button_off (obj);

  0007d	8b 45 08	 mov	 eax, DWORD PTR _obj$[ebp]
  00080	50		 push	 eax
  00081	e8 00 00 00 00	 call	 ?set_toggle_button_off@@YGXPAUUI_OBJECT@@@Z ; set_toggle_button_off

; 898  : }

  00086	5f		 pop	 edi
  00087	5e		 pop	 esi
  00088	5b		 pop	 ebx
  00089	8b e5		 mov	 esp, ebp
  0008b	5d		 pop	 ebp
  0008c	c2 08 00	 ret	 8
?notify_wind_option_button@@YGXPAUUI_OBJECT@@PAX@Z ENDP	; notify_wind_option_button
_TEXT	ENDS
; Function compile flags: /Odtp /ZI
; File c:\users\nhv90\projects\eech\aphavoc\source\ui_menu\options\op_dynam.c
;	COMDAT ?notify_vortex_ring_option_button@@YGXPAUUI_OBJECT@@PAX@Z
_TEXT	SEGMENT
tv67 = -68						; size = 4
_obj$ = 8						; size = 4
_arg$ = 12						; size = 4
?notify_vortex_ring_option_button@@YGXPAUUI_OBJECT@@PAX@Z PROC ; notify_vortex_ring_option_button, COMDAT

; 871  : {

  00000	55		 push	 ebp
  00001	8b ec		 mov	 ebp, esp
  00003	83 ec 44	 sub	 esp, 68			; 00000044H
  00006	53		 push	 ebx
  00007	56		 push	 esi
  00008	57		 push	 edi

; 872  : 	set_global_dynamics_options_vortex_ring (!get_global_dynamics_options_vortex_ring ());

  00009	a1 50 00 00 00	 mov	 eax, DWORD PTR ?global_options@@3UGLOBAL_OPTIONS_DATA@@A+80
  0000e	c1 e8 05	 shr	 eax, 5
  00011	83 e0 01	 and	 eax, 1
  00014	75 09		 jne	 SHORT $LN3@notify_vor
  00016	c7 45 bc 01 00
	00 00		 mov	 DWORD PTR tv67[ebp], 1
  0001d	eb 07		 jmp	 SHORT $LN4@notify_vor
$LN3@notify_vor:
  0001f	c7 45 bc 00 00
	00 00		 mov	 DWORD PTR tv67[ebp], 0
$LN4@notify_vor:
  00026	8b 4d bc	 mov	 ecx, DWORD PTR tv67[ebp]
  00029	83 e1 01	 and	 ecx, 1
  0002c	c1 e1 05	 shl	 ecx, 5
  0002f	8b 15 50 00 00
	00		 mov	 edx, DWORD PTR ?global_options@@3UGLOBAL_OPTIONS_DATA@@A+80
  00035	83 e2 df	 and	 edx, -33		; ffffffdfH
  00038	0b d1		 or	 edx, ecx
  0003a	89 15 50 00 00
	00		 mov	 DWORD PTR ?global_options@@3UGLOBAL_OPTIONS_DATA@@A+80, edx

; 873  : 
; 874  : 	set_ui_object_text (vortex_ring_option_button, option_boolean_text [get_global_dynamics_options_vortex_ring ()]);

  00040	a1 50 00 00 00	 mov	 eax, DWORD PTR ?global_options@@3UGLOBAL_OPTIONS_DATA@@A+80
  00045	c1 e8 05	 shr	 eax, 5
  00048	83 e0 01	 and	 eax, 1
  0004b	8b 0c 85 00 00
	00 00		 mov	 ecx, DWORD PTR ?option_boolean_text@@3PAPBDA[eax*4]
  00052	51		 push	 ecx
  00053	8b 15 00 00 00
	00		 mov	 edx, DWORD PTR ?vortex_ring_option_button@@3PAUUI_OBJECT@@A ; vortex_ring_option_button
  00059	52		 push	 edx
  0005a	a1 00 00 00 00	 mov	 eax, DWORD PTR ?vortex_ring_option_button@@3PAUUI_OBJECT@@A ; vortex_ring_option_button
  0005f	8b 08		 mov	 ecx, DWORD PTR [eax]
  00061	8b 14 8d 00 00
	00 00		 mov	 edx, DWORD PTR ?fn_set_ui_object_text@@3PAP6GXPAUUI_OBJECT@@PBD@ZA[ecx*4]
  00068	ff d2		 call	 edx

; 875  : 
; 876  : 	set_current_dynamics_options (DYNAMICS_OPTIONS_VORTEX_RING, get_global_dynamics_options_vortex_ring());

  0006a	a1 50 00 00 00	 mov	 eax, DWORD PTR ?global_options@@3UGLOBAL_OPTIONS_DATA@@A+80
  0006f	c1 e8 05	 shr	 eax, 5
  00072	83 e0 01	 and	 eax, 1
  00075	50		 push	 eax
  00076	6a 0b		 push	 11			; 0000000bH
  00078	e8 00 00 00 00	 call	 ?set_current_dynamics_options@@YGXW4DYNAMICS_OPTIONS_TYPES@@H@Z ; set_current_dynamics_options

; 877  : 
; 878  : 	// don't leave text selected
; 879  : 
; 880  : 	set_toggle_button_off (obj);

  0007d	8b 45 08	 mov	 eax, DWORD PTR _obj$[ebp]
  00080	50		 push	 eax
  00081	e8 00 00 00 00	 call	 ?set_toggle_button_off@@YGXPAUUI_OBJECT@@@Z ; set_toggle_button_off

; 881  : }

  00086	5f		 pop	 edi
  00087	5e		 pop	 esi
  00088	5b		 pop	 ebx
  00089	8b e5		 mov	 esp, ebp
  0008b	5d		 pop	 ebp
  0008c	c2 08 00	 ret	 8
?notify_vortex_ring_option_button@@YGXPAUUI_OBJECT@@PAX@Z ENDP ; notify_vortex_ring_option_button
_TEXT	ENDS
; Function compile flags: /Odtp /ZI
; File c:\users\nhv90\projects\eech\aphavoc\source\ui_menu\options\op_dynam.c
;	COMDAT ?notify_over_torque_option_button@@YGXPAUUI_OBJECT@@PAX@Z
_TEXT	SEGMENT
tv67 = -68						; size = 4
_obj$ = 8						; size = 4
_arg$ = 12						; size = 4
?notify_over_torque_option_button@@YGXPAUUI_OBJECT@@PAX@Z PROC ; notify_over_torque_option_button, COMDAT

; 854  : {

  00000	55		 push	 ebp
  00001	8b ec		 mov	 ebp, esp
  00003	83 ec 44	 sub	 esp, 68			; 00000044H
  00006	53		 push	 ebx
  00007	56		 push	 esi
  00008	57		 push	 edi

; 855  : 	set_global_dynamics_options_over_torque (!get_global_dynamics_options_over_torque ());

  00009	a1 50 00 00 00	 mov	 eax, DWORD PTR ?global_options@@3UGLOBAL_OPTIONS_DATA@@A+80
  0000e	c1 e8 0e	 shr	 eax, 14			; 0000000eH
  00011	83 e0 01	 and	 eax, 1
  00014	75 09		 jne	 SHORT $LN3@notify_ove
  00016	c7 45 bc 01 00
	00 00		 mov	 DWORD PTR tv67[ebp], 1
  0001d	eb 07		 jmp	 SHORT $LN4@notify_ove
$LN3@notify_ove:
  0001f	c7 45 bc 00 00
	00 00		 mov	 DWORD PTR tv67[ebp], 0
$LN4@notify_ove:
  00026	8b 4d bc	 mov	 ecx, DWORD PTR tv67[ebp]
  00029	83 e1 01	 and	 ecx, 1
  0002c	c1 e1 0e	 shl	 ecx, 14			; 0000000eH
  0002f	8b 15 50 00 00
	00		 mov	 edx, DWORD PTR ?global_options@@3UGLOBAL_OPTIONS_DATA@@A+80
  00035	81 e2 ff bf ff
	ff		 and	 edx, -16385		; ffffbfffH
  0003b	0b d1		 or	 edx, ecx
  0003d	89 15 50 00 00
	00		 mov	 DWORD PTR ?global_options@@3UGLOBAL_OPTIONS_DATA@@A+80, edx

; 856  : 
; 857  : 	set_ui_object_text (obj, option_boolean_text [get_global_dynamics_options_over_torque ()]);

  00043	a1 50 00 00 00	 mov	 eax, DWORD PTR ?global_options@@3UGLOBAL_OPTIONS_DATA@@A+80
  00048	c1 e8 0e	 shr	 eax, 14			; 0000000eH
  0004b	83 e0 01	 and	 eax, 1
  0004e	8b 0c 85 00 00
	00 00		 mov	 ecx, DWORD PTR ?option_boolean_text@@3PAPBDA[eax*4]
  00055	51		 push	 ecx
  00056	8b 55 08	 mov	 edx, DWORD PTR _obj$[ebp]
  00059	52		 push	 edx
  0005a	8b 45 08	 mov	 eax, DWORD PTR _obj$[ebp]
  0005d	8b 08		 mov	 ecx, DWORD PTR [eax]
  0005f	8b 14 8d 00 00
	00 00		 mov	 edx, DWORD PTR ?fn_set_ui_object_text@@3PAP6GXPAUUI_OBJECT@@PBD@ZA[ecx*4]
  00066	ff d2		 call	 edx

; 858  : 	
; 859  : 	set_current_dynamics_options (DYNAMICS_OPTIONS_OVER_TORQUE, get_global_dynamics_options_over_torque());

  00068	a1 50 00 00 00	 mov	 eax, DWORD PTR ?global_options@@3UGLOBAL_OPTIONS_DATA@@A+80
  0006d	c1 e8 0e	 shr	 eax, 14			; 0000000eH
  00070	83 e0 01	 and	 eax, 1
  00073	50		 push	 eax
  00074	6a 07		 push	 7
  00076	e8 00 00 00 00	 call	 ?set_current_dynamics_options@@YGXW4DYNAMICS_OPTIONS_TYPES@@H@Z ; set_current_dynamics_options

; 860  : 
; 861  : 	// don't leave text selected
; 862  : 
; 863  : 	set_toggle_button_off (obj);

  0007b	8b 45 08	 mov	 eax, DWORD PTR _obj$[ebp]
  0007e	50		 push	 eax
  0007f	e8 00 00 00 00	 call	 ?set_toggle_button_off@@YGXPAUUI_OBJECT@@@Z ; set_toggle_button_off

; 864  : }

  00084	5f		 pop	 edi
  00085	5e		 pop	 esi
  00086	5b		 pop	 ebx
  00087	8b e5		 mov	 esp, ebp
  00089	5d		 pop	 ebp
  0008a	c2 08 00	 ret	 8
?notify_over_torque_option_button@@YGXPAUUI_OBJECT@@PAX@Z ENDP ; notify_over_torque_option_button
_TEXT	ENDS
; Function compile flags: /Odtp /ZI
; File c:\users\nhv90\projects\eech\aphavoc\source\ui_menu\options\op_dynam.c
;	COMDAT ?notify_ground_effect_option_button@@YGXPAUUI_OBJECT@@PAX@Z
_TEXT	SEGMENT
tv67 = -68						; size = 4
_obj$ = 8						; size = 4
_arg$ = 12						; size = 4
?notify_ground_effect_option_button@@YGXPAUUI_OBJECT@@PAX@Z PROC ; notify_ground_effect_option_button, COMDAT

; 837  : {

  00000	55		 push	 ebp
  00001	8b ec		 mov	 ebp, esp
  00003	83 ec 44	 sub	 esp, 68			; 00000044H
  00006	53		 push	 ebx
  00007	56		 push	 esi
  00008	57		 push	 edi

; 838  : 	set_global_dynamics_options_ground_effect (!get_global_dynamics_options_ground_effect ());

  00009	a1 50 00 00 00	 mov	 eax, DWORD PTR ?global_options@@3UGLOBAL_OPTIONS_DATA@@A+80
  0000e	c1 e8 0a	 shr	 eax, 10			; 0000000aH
  00011	83 e0 01	 and	 eax, 1
  00014	75 09		 jne	 SHORT $LN3@notify_gro
  00016	c7 45 bc 01 00
	00 00		 mov	 DWORD PTR tv67[ebp], 1
  0001d	eb 07		 jmp	 SHORT $LN4@notify_gro
$LN3@notify_gro:
  0001f	c7 45 bc 00 00
	00 00		 mov	 DWORD PTR tv67[ebp], 0
$LN4@notify_gro:
  00026	8b 4d bc	 mov	 ecx, DWORD PTR tv67[ebp]
  00029	83 e1 01	 and	 ecx, 1
  0002c	c1 e1 0a	 shl	 ecx, 10			; 0000000aH
  0002f	8b 15 50 00 00
	00		 mov	 edx, DWORD PTR ?global_options@@3UGLOBAL_OPTIONS_DATA@@A+80
  00035	81 e2 ff fb ff
	ff		 and	 edx, -1025		; fffffbffH
  0003b	0b d1		 or	 edx, ecx
  0003d	89 15 50 00 00
	00		 mov	 DWORD PTR ?global_options@@3UGLOBAL_OPTIONS_DATA@@A+80, edx

; 839  : 
; 840  : 	set_ui_object_text (ground_effect_option_button, option_boolean_text [get_global_dynamics_options_ground_effect ()]);

  00043	a1 50 00 00 00	 mov	 eax, DWORD PTR ?global_options@@3UGLOBAL_OPTIONS_DATA@@A+80
  00048	c1 e8 0a	 shr	 eax, 10			; 0000000aH
  0004b	83 e0 01	 and	 eax, 1
  0004e	8b 0c 85 00 00
	00 00		 mov	 ecx, DWORD PTR ?option_boolean_text@@3PAPBDA[eax*4]
  00055	51		 push	 ecx
  00056	8b 15 00 00 00
	00		 mov	 edx, DWORD PTR ?ground_effect_option_button@@3PAUUI_OBJECT@@A ; ground_effect_option_button
  0005c	52		 push	 edx
  0005d	a1 00 00 00 00	 mov	 eax, DWORD PTR ?ground_effect_option_button@@3PAUUI_OBJECT@@A ; ground_effect_option_button
  00062	8b 08		 mov	 ecx, DWORD PTR [eax]
  00064	8b 14 8d 00 00
	00 00		 mov	 edx, DWORD PTR ?fn_set_ui_object_text@@3PAP6GXPAUUI_OBJECT@@PBD@ZA[ecx*4]
  0006b	ff d2		 call	 edx

; 841  : 
; 842  : 	set_current_dynamics_options (DYNAMICS_OPTIONS_GROUND_EFFECT, get_global_dynamics_options_ground_effect());

  0006d	a1 50 00 00 00	 mov	 eax, DWORD PTR ?global_options@@3UGLOBAL_OPTIONS_DATA@@A+80
  00072	c1 e8 0a	 shr	 eax, 10			; 0000000aH
  00075	83 e0 01	 and	 eax, 1
  00078	50		 push	 eax
  00079	6a 04		 push	 4
  0007b	e8 00 00 00 00	 call	 ?set_current_dynamics_options@@YGXW4DYNAMICS_OPTIONS_TYPES@@H@Z ; set_current_dynamics_options

; 843  : 
; 844  : 	// don't leave text selected
; 845  : 
; 846  : 	set_toggle_button_off (obj);

  00080	8b 45 08	 mov	 eax, DWORD PTR _obj$[ebp]
  00083	50		 push	 eax
  00084	e8 00 00 00 00	 call	 ?set_toggle_button_off@@YGXPAUUI_OBJECT@@@Z ; set_toggle_button_off

; 847  : }

  00089	5f		 pop	 edi
  0008a	5e		 pop	 esi
  0008b	5b		 pop	 ebx
  0008c	8b e5		 mov	 esp, ebp
  0008e	5d		 pop	 ebp
  0008f	c2 08 00	 ret	 8
?notify_ground_effect_option_button@@YGXPAUUI_OBJECT@@PAX@Z ENDP ; notify_ground_effect_option_button
_TEXT	ENDS
; Function compile flags: /Odtp /ZI
; File c:\users\nhv90\projects\eech\aphavoc\source\ui_menu\options\op_dynam.c
;	COMDAT ?notify_cross_couple_option_button@@YGXPAUUI_OBJECT@@PAX@Z
_TEXT	SEGMENT
tv67 = -68						; size = 4
_obj$ = 8						; size = 4
_arg$ = 12						; size = 4
?notify_cross_couple_option_button@@YGXPAUUI_OBJECT@@PAX@Z PROC ; notify_cross_couple_option_button, COMDAT

; 820  : {

  00000	55		 push	 ebp
  00001	8b ec		 mov	 ebp, esp
  00003	83 ec 44	 sub	 esp, 68			; 00000044H
  00006	53		 push	 ebx
  00007	56		 push	 esi
  00008	57		 push	 edi

; 821  : 	set_global_dynamics_options_cross_coupling (!get_global_dynamics_options_cross_coupling ());

  00009	a1 50 00 00 00	 mov	 eax, DWORD PTR ?global_options@@3UGLOBAL_OPTIONS_DATA@@A+80
  0000e	c1 e8 09	 shr	 eax, 9
  00011	83 e0 01	 and	 eax, 1
  00014	75 09		 jne	 SHORT $LN3@notify_cro
  00016	c7 45 bc 01 00
	00 00		 mov	 DWORD PTR tv67[ebp], 1
  0001d	eb 07		 jmp	 SHORT $LN4@notify_cro
$LN3@notify_cro:
  0001f	c7 45 bc 00 00
	00 00		 mov	 DWORD PTR tv67[ebp], 0
$LN4@notify_cro:
  00026	8b 4d bc	 mov	 ecx, DWORD PTR tv67[ebp]
  00029	83 e1 01	 and	 ecx, 1
  0002c	c1 e1 09	 shl	 ecx, 9
  0002f	8b 15 50 00 00
	00		 mov	 edx, DWORD PTR ?global_options@@3UGLOBAL_OPTIONS_DATA@@A+80
  00035	81 e2 ff fd ff
	ff		 and	 edx, -513		; fffffdffH
  0003b	0b d1		 or	 edx, ecx
  0003d	89 15 50 00 00
	00		 mov	 DWORD PTR ?global_options@@3UGLOBAL_OPTIONS_DATA@@A+80, edx

; 822  : 
; 823  : 	set_ui_object_text (cross_couple_option_button, option_boolean_text [get_global_dynamics_options_cross_coupling ()]);

  00043	a1 50 00 00 00	 mov	 eax, DWORD PTR ?global_options@@3UGLOBAL_OPTIONS_DATA@@A+80
  00048	c1 e8 09	 shr	 eax, 9
  0004b	83 e0 01	 and	 eax, 1
  0004e	8b 0c 85 00 00
	00 00		 mov	 ecx, DWORD PTR ?option_boolean_text@@3PAPBDA[eax*4]
  00055	51		 push	 ecx
  00056	8b 15 00 00 00
	00		 mov	 edx, DWORD PTR ?cross_couple_option_button@@3PAUUI_OBJECT@@A ; cross_couple_option_button
  0005c	52		 push	 edx
  0005d	a1 00 00 00 00	 mov	 eax, DWORD PTR ?cross_couple_option_button@@3PAUUI_OBJECT@@A ; cross_couple_option_button
  00062	8b 08		 mov	 ecx, DWORD PTR [eax]
  00064	8b 14 8d 00 00
	00 00		 mov	 edx, DWORD PTR ?fn_set_ui_object_text@@3PAP6GXPAUUI_OBJECT@@PBD@ZA[ecx*4]
  0006b	ff d2		 call	 edx

; 824  : 
; 825  : 	set_current_dynamics_options (DYNAMICS_OPTIONS_CROSS_COUPLING, get_global_dynamics_options_cross_coupling());

  0006d	a1 50 00 00 00	 mov	 eax, DWORD PTR ?global_options@@3UGLOBAL_OPTIONS_DATA@@A+80
  00072	c1 e8 09	 shr	 eax, 9
  00075	83 e0 01	 and	 eax, 1
  00078	50		 push	 eax
  00079	6a 00		 push	 0
  0007b	e8 00 00 00 00	 call	 ?set_current_dynamics_options@@YGXW4DYNAMICS_OPTIONS_TYPES@@H@Z ; set_current_dynamics_options

; 826  : 
; 827  : 	// don't leave text selected
; 828  : 
; 829  : 	set_toggle_button_off (obj);

  00080	8b 45 08	 mov	 eax, DWORD PTR _obj$[ebp]
  00083	50		 push	 eax
  00084	e8 00 00 00 00	 call	 ?set_toggle_button_off@@YGXPAUUI_OBJECT@@@Z ; set_toggle_button_off

; 830  : }

  00089	5f		 pop	 edi
  0008a	5e		 pop	 esi
  0008b	5b		 pop	 ebx
  0008c	8b e5		 mov	 esp, ebp
  0008e	5d		 pop	 ebp
  0008f	c2 08 00	 ret	 8
?notify_cross_couple_option_button@@YGXPAUUI_OBJECT@@PAX@Z ENDP ; notify_cross_couple_option_button
_TEXT	ENDS
; Function compile flags: /Odtp /ZI
; File c:\users\nhv90\projects\eech\aphavoc\source\ui_menu\options\op_dynam.c
;	COMDAT ?notify_blade_stall_option_button@@YGXPAUUI_OBJECT@@PAX@Z
_TEXT	SEGMENT
tv67 = -68						; size = 4
_obj$ = 8						; size = 4
_arg$ = 12						; size = 4
?notify_blade_stall_option_button@@YGXPAUUI_OBJECT@@PAX@Z PROC ; notify_blade_stall_option_button, COMDAT

; 803  : {

  00000	55		 push	 ebp
  00001	8b ec		 mov	 ebp, esp
  00003	83 ec 44	 sub	 esp, 68			; 00000044H
  00006	53		 push	 ebx
  00007	56		 push	 esi
  00008	57		 push	 edi

; 804  : 	set_global_dynamics_options_retreating_blade_stall (!get_global_dynamics_options_retreating_blade_stall ());

  00009	a1 50 00 00 00	 mov	 eax, DWORD PTR ?global_options@@3UGLOBAL_OPTIONS_DATA@@A+80
  0000e	c1 e8 06	 shr	 eax, 6
  00011	83 e0 01	 and	 eax, 1
  00014	75 09		 jne	 SHORT $LN3@notify_bla
  00016	c7 45 bc 01 00
	00 00		 mov	 DWORD PTR tv67[ebp], 1
  0001d	eb 07		 jmp	 SHORT $LN4@notify_bla
$LN3@notify_bla:
  0001f	c7 45 bc 00 00
	00 00		 mov	 DWORD PTR tv67[ebp], 0
$LN4@notify_bla:
  00026	8b 4d bc	 mov	 ecx, DWORD PTR tv67[ebp]
  00029	83 e1 01	 and	 ecx, 1
  0002c	c1 e1 06	 shl	 ecx, 6
  0002f	8b 15 50 00 00
	00		 mov	 edx, DWORD PTR ?global_options@@3UGLOBAL_OPTIONS_DATA@@A+80
  00035	83 e2 bf	 and	 edx, -65		; ffffffbfH
  00038	0b d1		 or	 edx, ecx
  0003a	89 15 50 00 00
	00		 mov	 DWORD PTR ?global_options@@3UGLOBAL_OPTIONS_DATA@@A+80, edx

; 805  : 
; 806  : 	set_ui_object_text (blade_stall_option_button, option_boolean_text [get_global_dynamics_options_retreating_blade_stall ()]);

  00040	a1 50 00 00 00	 mov	 eax, DWORD PTR ?global_options@@3UGLOBAL_OPTIONS_DATA@@A+80
  00045	c1 e8 06	 shr	 eax, 6
  00048	83 e0 01	 and	 eax, 1
  0004b	8b 0c 85 00 00
	00 00		 mov	 ecx, DWORD PTR ?option_boolean_text@@3PAPBDA[eax*4]
  00052	51		 push	 ecx
  00053	8b 15 00 00 00
	00		 mov	 edx, DWORD PTR ?blade_stall_option_button@@3PAUUI_OBJECT@@A ; blade_stall_option_button
  00059	52		 push	 edx
  0005a	a1 00 00 00 00	 mov	 eax, DWORD PTR ?blade_stall_option_button@@3PAUUI_OBJECT@@A ; blade_stall_option_button
  0005f	8b 08		 mov	 ecx, DWORD PTR [eax]
  00061	8b 14 8d 00 00
	00 00		 mov	 edx, DWORD PTR ?fn_set_ui_object_text@@3PAP6GXPAUUI_OBJECT@@PBD@ZA[ecx*4]
  00068	ff d2		 call	 edx

; 807  : 
; 808  : 	set_current_dynamics_options (DYNAMICS_OPTIONS_RETREATING_BLADE_STALL, get_global_dynamics_options_retreating_blade_stall());

  0006a	a1 50 00 00 00	 mov	 eax, DWORD PTR ?global_options@@3UGLOBAL_OPTIONS_DATA@@A+80
  0006f	c1 e8 06	 shr	 eax, 6
  00072	83 e0 01	 and	 eax, 1
  00075	50		 push	 eax
  00076	6a 08		 push	 8
  00078	e8 00 00 00 00	 call	 ?set_current_dynamics_options@@YGXW4DYNAMICS_OPTIONS_TYPES@@H@Z ; set_current_dynamics_options

; 809  : 
; 810  : 	// don't leave text selected
; 811  : 
; 812  : 	set_toggle_button_off (obj);

  0007d	8b 45 08	 mov	 eax, DWORD PTR _obj$[ebp]
  00080	50		 push	 eax
  00081	e8 00 00 00 00	 call	 ?set_toggle_button_off@@YGXPAUUI_OBJECT@@@Z ; set_toggle_button_off

; 813  : }

  00086	5f		 pop	 edi
  00087	5e		 pop	 esi
  00088	5b		 pop	 ebx
  00089	8b e5		 mov	 esp, ebp
  0008b	5d		 pop	 ebp
  0008c	c2 08 00	 ret	 8
?notify_blade_stall_option_button@@YGXPAUUI_OBJECT@@PAX@Z ENDP ; notify_blade_stall_option_button
_TEXT	ENDS
; Function compile flags: /Odtp /ZI
; File c:\users\nhv90\projects\eech\aphavoc\source\ui_menu\options\op_dynam.c
;	COMDAT ?define_options_screen_dynamics_page_objects@@YGXXZ
_TEXT	SEGMENT
tv2362 = -184						; size = 4
tv2318 = -184						; size = 4
tv2274 = -184						; size = 4
tv2230 = -184						; size = 4
tv2186 = -184						; size = 4
tv2142 = -184						; size = 4
tv2098 = -184						; size = 4
tv2436 = -180						; size = 4
tv2434 = -180						; size = 4
tv2432 = -180						; size = 4
tv2398 = -180						; size = 4
tv2396 = -180						; size = 4
tv2394 = -180						; size = 4
tv2392 = -180						; size = 4
tv2381 = -176						; size = 4
tv2354 = -176						; size = 4
tv2337 = -176						; size = 4
tv2310 = -176						; size = 4
tv2293 = -176						; size = 4
tv2266 = -176						; size = 4
tv2249 = -176						; size = 4
tv2222 = -176						; size = 4
tv2205 = -176						; size = 4
tv2178 = -176						; size = 4
tv2161 = -176						; size = 4
tv2134 = -176						; size = 4
tv2117 = -176						; size = 4
tv2090 = -176						; size = 4
_change_array$ = -108					; size = 28
_check_array$ = -80					; size = 28
_title_change_array$ = -52				; size = 28
_page$ = -24						; size = 4
_y2$ = -20						; size = 4
_x2$ = -16						; size = 4
_y1$ = -12						; size = 4
_x1$ = -8						; size = 4
_i$ = -4						; size = 4
?define_options_screen_dynamics_page_objects@@YGXXZ PROC ; define_options_screen_dynamics_page_objects, COMDAT

; 148  : {

  00000	55		 push	 ebp
  00001	8b ec		 mov	 ebp, esp
  00003	81 ec b8 00 00
	00		 sub	 esp, 184		; 000000b8H
  00009	53		 push	 ebx
  0000a	56		 push	 esi
  0000b	57		 push	 edi

; 149  : 	int
; 150  : 		i;
; 151  : 		
; 152  : 	float
; 153  : 		x1,
; 154  : 		y1,
; 155  : 		x2,
; 156  : 		y2;
; 157  : 
; 158  : 	ui_object
; 159  : 		*page;
; 160  : 
; 161  : 	ui_object
; 162  : 		*title_change_array [7],
; 163  : 		*check_array [7],
; 164  : 		*change_array [7];
; 165  : 
; 166  : 	/////////////////////////////////////////////////////////////////
; 167  : 	// Initialise Text
; 168  : 
; 169  : 	option_boolean_text [0] = get_trans ("Off");

  0000c	68 00 00 00 00	 push	 OFFSET ??_C@_03GCDBBDDL@Off@
  00011	e8 00 00 00 00	 call	 ?get_trans@@YGPBDPBD@Z	; get_trans
  00016	b9 04 00 00 00	 mov	 ecx, 4
  0001b	6b d1 00	 imul	 edx, ecx, 0
  0001e	89 82 00 00 00
	00		 mov	 DWORD PTR ?option_boolean_text@@3PAPBDA[edx], eax

; 170  : 	option_boolean_text [1] = get_trans ("On");

  00024	68 00 00 00 00	 push	 OFFSET ??_C@_02IAAGKKDJ@On@
  00029	e8 00 00 00 00	 call	 ?get_trans@@YGPBDPBD@Z	; get_trans
  0002e	b9 04 00 00 00	 mov	 ecx, 4
  00033	c1 e1 00	 shl	 ecx, 0
  00036	89 81 00 00 00
	00		 mov	 DWORD PTR ?option_boolean_text@@3PAPBDA[ecx], eax

; 171  : 
; 172  : 	/////////////////////////////////////////////////////////////////
; 173  : 	// Realism Area
; 174  : 
; 175  : 	i = 0;

  0003c	c7 45 fc 00 00
	00 00		 mov	 DWORD PTR _i$[ebp], 0

; 176  : 
; 177  : 	x1 = 0.0;

  00043	0f 57 c0	 xorps	 xmm0, xmm0
  00046	f3 0f 11 45 f8	 movss	 DWORD PTR _x1$[ebp], xmm0

; 178  : 	y1 = 0.0;

  0004b	0f 57 c0	 xorps	 xmm0, xmm0
  0004e	f3 0f 11 45 f4	 movss	 DWORD PTR _y1$[ebp], xmm0

; 179  : 	x2 = 1.0;

  00053	f3 0f 10 05 00
	00 00 00	 movss	 xmm0, DWORD PTR __real@3f800000
  0005b	f3 0f 11 45 f0	 movss	 DWORD PTR _x2$[ebp], xmm0

; 180  : 	y2 = 1.0;

  00060	f3 0f 10 05 00
	00 00 00	 movss	 xmm0, DWORD PTR __real@3f800000
  00068	f3 0f 11 45 ec	 movss	 DWORD PTR _y2$[ebp], xmm0

; 181  : 
; 182  : 	options_page [OPTIONS_PAGE_DYNAMICS] = create_ui_object

  0006d	6a 11		 push	 17			; 00000011H
  0006f	6a 00		 push	 0
  00071	6a 16		 push	 22			; 00000016H
  00073	6a 00		 push	 0
  00075	6a 10		 push	 16			; 00000010H
  00077	6a 01		 push	 1
  00079	6a 07		 push	 7
  0007b	f3 0f 10 45 ec	 movss	 xmm0, DWORD PTR _y2$[ebp]
  00080	f3 0f 5c 45 f4	 subss	 xmm0, DWORD PTR _y1$[ebp]
  00085	f3 0f 5a c0	 cvtss2sd xmm0, xmm0
  00089	83 ec 08	 sub	 esp, 8
  0008c	f2 0f 11 04 24	 movsd	 QWORD PTR [esp], xmm0
  00091	f3 0f 10 45 f0	 movss	 xmm0, DWORD PTR _x2$[ebp]
  00096	f3 0f 5c 45 f8	 subss	 xmm0, DWORD PTR _x1$[ebp]
  0009b	f3 0f 5a c0	 cvtss2sd xmm0, xmm0
  0009f	83 ec 08	 sub	 esp, 8
  000a2	f2 0f 11 04 24	 movsd	 QWORD PTR [esp], xmm0
  000a7	6a 59		 push	 89			; 00000059H
  000a9	f3 0f 5a 45 f4	 cvtss2sd xmm0, DWORD PTR _y1$[ebp]
  000ae	83 ec 08	 sub	 esp, 8
  000b1	f2 0f 11 04 24	 movsd	 QWORD PTR [esp], xmm0
  000b6	f3 0f 5a 45 f8	 cvtss2sd xmm0, DWORD PTR _x1$[ebp]
  000bb	83 ec 08	 sub	 esp, 8
  000be	f2 0f 11 04 24	 movsd	 QWORD PTR [esp], xmm0
  000c3	6a 58		 push	 88			; 00000058H
  000c5	a1 00 00 00 00	 mov	 eax, DWORD PTR ?options_screen@@3PAUUI_OBJECT@@A ; options_screen
  000ca	50		 push	 eax
  000cb	6a 32		 push	 50			; 00000032H
  000cd	6a 01		 push	 1
  000cf	e8 00 00 00 00	 call	 ?create_ui_object@@YAPAUUI_OBJECT@@HZZ ; create_ui_object
  000d4	83 c4 50	 add	 esp, 80			; 00000050H
  000d7	b9 04 00 00 00	 mov	 ecx, 4
  000dc	c1 e1 00	 shl	 ecx, 0
  000df	89 81 00 00 00
	00		 mov	 DWORD PTR ?options_page@@3PAPAUUI_OBJECT@@A[ecx], eax

; 183  : 			(
; 184  : 				UI_TYPE_AREA,
; 185  : 				UI_ATTR_PARENT (options_screen),
; 186  : 				UI_ATTR_VIRTUAL_POSITION (x1, y1),
; 187  : 				UI_ATTR_VIRTUAL_SIZE (x2 - x1, y2 - y1),
; 188  : 				UI_ATTR_CLEAR (TRUE),
; 189  : 				UI_ATTR_DRAWABLE (FALSE),
; 190  : 				UI_ATTR_FUNCTION (NOTIFY_TYPE_NONE),
; 191  : 				UI_ATTR_END
; 192  : 			);
; 193  : 
; 194  : 	page = options_page [OPTIONS_PAGE_DYNAMICS];

  000e5	b8 04 00 00 00	 mov	 eax, 4
  000ea	c1 e0 00	 shl	 eax, 0
  000ed	8b 88 00 00 00
	00		 mov	 ecx, DWORD PTR ?options_page@@3PAPAUUI_OBJECT@@A[eax]
  000f3	89 4d e8	 mov	 DWORD PTR _page$[ebp], ecx

; 195  : 
; 196  : 	// areas and titles
; 197  : 
; 198  : 	x1 = 0.0; 

  000f6	0f 57 c0	 xorps	 xmm0, xmm0
  000f9	f3 0f 11 45 f8	 movss	 DWORD PTR _x1$[ebp], xmm0

; 199  : 	y1 = OPTION_TITLE_OFFSET_Y;

  000fe	f3 0f 10 05 00
	00 00 00	 movss	 xmm0, DWORD PTR __real@3e851eb8
  00106	f3 0f 11 45 f4	 movss	 DWORD PTR _y1$[ebp], xmm0

; 200  : 
; 201  : 	//blade_stall area
; 202  : 	
; 203  :    blade_stall_area = create_ui_object

  0010b	6a 11		 push	 17			; 00000011H
  0010d	6a 01		 push	 1
  0010f	6a 07		 push	 7
  00111	83 ec 08	 sub	 esp, 8
  00114	f2 0f 10 05 00
	00 00 00	 movsd	 xmm0, QWORD PTR __real@3fadb22d00000000
  0011c	f2 0f 11 04 24	 movsd	 QWORD PTR [esp], xmm0
  00121	83 ec 08	 sub	 esp, 8
  00124	f2 0f 10 05 00
	00 00 00	 movsd	 xmm0, QWORD PTR __real@3ff0000000000000
  0012c	f2 0f 11 04 24	 movsd	 QWORD PTR [esp], xmm0
  00131	6a 59		 push	 89			; 00000059H
  00133	f3 0f 5a 45 f4	 cvtss2sd xmm0, DWORD PTR _y1$[ebp]
  00138	83 ec 08	 sub	 esp, 8
  0013b	f2 0f 11 04 24	 movsd	 QWORD PTR [esp], xmm0
  00140	f3 0f 5a 45 f8	 cvtss2sd xmm0, DWORD PTR _x1$[ebp]
  00145	83 ec 08	 sub	 esp, 8
  00148	f2 0f 11 04 24	 movsd	 QWORD PTR [esp], xmm0
  0014d	6a 58		 push	 88			; 00000058H
  0014f	8b 45 e8	 mov	 eax, DWORD PTR _page$[ebp]
  00152	50		 push	 eax
  00153	6a 32		 push	 50			; 00000032H
  00155	6a 01		 push	 1
  00157	e8 00 00 00 00	 call	 ?create_ui_object@@YAPAUUI_OBJECT@@HZZ ; create_ui_object
  0015c	83 c4 40	 add	 esp, 64			; 00000040H
  0015f	a3 00 00 00 00	 mov	 DWORD PTR ?blade_stall_area@@3PAUUI_OBJECT@@A, eax ; blade_stall_area

; 204  : 								(
; 205  : 									UI_TYPE_AREA,
; 206  : 									UI_ATTR_PARENT ( page ),
; 207  : 									UI_ATTR_VIRTUAL_POSITION (x1, y1),
; 208  : 									UI_ATTR_VIRTUAL_SIZE (OPTION_AREA_WIDTH, OPTION_AREA_HEIGHT),
; 209  : 									UI_ATTR_CLEAR (TRUE),
; 210  : 									UI_ATTR_END
; 211  : 								);
; 212  : 
; 213  : 	x1 = OPTION_TITLE_OFFSET_X;

  00164	f3 0f 10 05 00
	00 00 00	 movss	 xmm0, DWORD PTR __real@3def9db2
  0016c	f3 0f 11 45 f8	 movss	 DWORD PTR _x1$[ebp], xmm0

; 214  : 	y1 = 0.0; 

  00171	0f 57 c0	 xorps	 xmm0, xmm0
  00174	f3 0f 11 45 f4	 movss	 DWORD PTR _y1$[ebp], xmm0

; 215  : 
; 216  : 	title_change_array[i] = create_ui_object

  00179	6a 11		 push	 17			; 00000011H
  0017b	a1 00 00 00 00	 mov	 eax, DWORD PTR ?options_box_large@@3PAUTEXTURE_GRAPHIC@@A ; options_box_large
  00180	50		 push	 eax
  00181	6a 4c		 push	 76			; 0000004cH
  00183	68 ff 00 00 00	 push	 255			; 000000ffH
  00188	68 ff 00 00 00	 push	 255			; 000000ffH
  0018d	68 ff 00 00 00	 push	 255			; 000000ffH
  00192	68 ff 00 00 00	 push	 255			; 000000ffH
  00197	6a 0a		 push	 10			; 0000000aH
  00199	6a 00		 push	 0
  0019b	68 ff 00 00 00	 push	 255			; 000000ffH
  001a0	68 ff 00 00 00	 push	 255			; 000000ffH
  001a5	68 ff 00 00 00	 push	 255			; 000000ffH
  001aa	6a 0b		 push	 11			; 0000000bH
  001ac	83 ec 08	 sub	 esp, 8
  001af	f2 0f 10 05 00
	00 00 00	 movsd	 xmm0, QWORD PTR __real@3ff0000000000000
  001b7	f2 0f 11 04 24	 movsd	 QWORD PTR [esp], xmm0
  001bc	83 ec 08	 sub	 esp, 8
  001bf	f2 0f 10 05 00
	00 00 00	 movsd	 xmm0, QWORD PTR __real@3fd3126ea0000000
  001c7	f2 0f 11 04 24	 movsd	 QWORD PTR [esp], xmm0
  001cc	6a 59		 push	 89			; 00000059H
  001ce	f3 0f 5a 45 f4	 cvtss2sd xmm0, DWORD PTR _y1$[ebp]
  001d3	83 ec 08	 sub	 esp, 8
  001d6	f2 0f 11 04 24	 movsd	 QWORD PTR [esp], xmm0
  001db	f3 0f 5a 45 f8	 cvtss2sd xmm0, DWORD PTR _x1$[ebp]
  001e0	83 ec 08	 sub	 esp, 8
  001e3	f2 0f 11 04 24	 movsd	 QWORD PTR [esp], xmm0
  001e8	6a 58		 push	 88			; 00000058H
  001ea	8b 0d 00 00 00
	00		 mov	 ecx, DWORD PTR ?blade_stall_area@@3PAUUI_OBJECT@@A ; blade_stall_area
  001f0	51		 push	 ecx
  001f1	6a 32		 push	 50			; 00000032H
  001f3	6a 01		 push	 1
  001f5	e8 00 00 00 00	 call	 ?create_ui_object@@YAPAUUI_OBJECT@@HZZ ; create_ui_object
  001fa	83 c4 68	 add	 esp, 104		; 00000068H
  001fd	8b 55 fc	 mov	 edx, DWORD PTR _i$[ebp]
  00200	89 44 95 cc	 mov	 DWORD PTR _title_change_array$[ebp+edx*4], eax

; 217  : 	(
; 218  : 		UI_TYPE_AREA,
; 219  : 		UI_ATTR_PARENT (blade_stall_area),
; 220  : 		UI_ATTR_VIRTUAL_POSITION (x1, y1),
; 221  : 		UI_ATTR_VIRTUAL_SIZE (OPTION_BOX_WIDTH, OPTION_BOX_HEIGHT),
; 222  : 		UI_ATTR_COLOUR_START ( 255, 255, 255, 0 ),
; 223  : 		UI_ATTR_COLOUR_END ( 255, 255, 255, 255 ),
; 224  : 		UI_ATTR_TEXTURE_GRAPHIC (options_box_large),
; 225  : 		UI_ATTR_END
; 226  : 	);
; 227  : 
; 228  :    check_array[i] = create_ui_object

  00204	6a 11		 push	 17			; 00000011H
  00206	68 00 00 00 00	 push	 OFFSET ??_C@_0M@OHPHIGHK@Blade?5Stall@
  0020b	e8 00 00 00 00	 call	 ?get_trans@@YGPBDPBD@Z	; get_trans
  00210	50		 push	 eax
  00211	6a 4a		 push	 74			; 0000004aH
  00213	6a 02		 push	 2
  00215	6a 4b		 push	 75			; 0000004bH
  00217	68 ff 00 00 00	 push	 255			; 000000ffH
  0021c	0f b6 05 00 00
	00 00		 movzx	 eax, BYTE PTR ?ui_option_title_text_colour@@3UREAL_COLOUR@@A
  00223	50		 push	 eax
  00224	0f b6 0d 01 00
	00 00		 movzx	 ecx, BYTE PTR ?ui_option_title_text_colour@@3UREAL_COLOUR@@A+1
  0022b	51		 push	 ecx
  0022c	0f b6 15 02 00
	00 00		 movzx	 edx, BYTE PTR ?ui_option_title_text_colour@@3UREAL_COLOUR@@A+2
  00233	52		 push	 edx
  00234	6a 14		 push	 20			; 00000014H
  00236	6a 00		 push	 0
  00238	0f b6 05 00 00
	00 00		 movzx	 eax, BYTE PTR ?ui_option_title_text_colour@@3UREAL_COLOUR@@A
  0023f	50		 push	 eax
  00240	0f b6 0d 01 00
	00 00		 movzx	 ecx, BYTE PTR ?ui_option_title_text_colour@@3UREAL_COLOUR@@A+1
  00247	51		 push	 ecx
  00248	0f b6 15 02 00
	00 00		 movzx	 edx, BYTE PTR ?ui_option_title_text_colour@@3UREAL_COLOUR@@A+2
  0024f	52		 push	 edx
  00250	6a 15		 push	 21			; 00000015H
  00252	6a 06		 push	 6
  00254	6a 12		 push	 18			; 00000012H
  00256	83 ec 08	 sub	 esp, 8
  00259	f2 0f 10 05 00
	00 00 00	 movsd	 xmm0, QWORD PTR __real@3ff0000000000000
  00261	f2 0f 11 04 24	 movsd	 QWORD PTR [esp], xmm0
  00266	83 ec 08	 sub	 esp, 8
  00269	f2 0f 10 05 00
	00 00 00	 movsd	 xmm0, QWORD PTR __real@3ff0000000000000
  00271	f2 0f 11 04 24	 movsd	 QWORD PTR [esp], xmm0
  00276	6a 59		 push	 89			; 00000059H
  00278	83 ec 08	 sub	 esp, 8
  0027b	f2 0f 10 05 00
	00 00 00	 movsd	 xmm0, QWORD PTR __real@3fc24dd300000000
  00283	f2 0f 11 04 24	 movsd	 QWORD PTR [esp], xmm0
  00288	83 ec 08	 sub	 esp, 8
  0028b	f2 0f 10 05 00
	00 00 00	 movsd	 xmm0, QWORD PTR __real@3fee666660000000
  00293	f2 0f 11 04 24	 movsd	 QWORD PTR [esp], xmm0
  00298	6a 58		 push	 88			; 00000058H
  0029a	8b 45 fc	 mov	 eax, DWORD PTR _i$[ebp]
  0029d	8b 4c 85 cc	 mov	 ecx, DWORD PTR _title_change_array$[ebp+eax*4]
  002a1	51		 push	 ecx
  002a2	6a 32		 push	 50			; 00000032H
  002a4	6a 05		 push	 5
  002a6	e8 00 00 00 00	 call	 ?create_ui_object@@YAPAUUI_OBJECT@@HZZ ; create_ui_object
  002ab	83 c4 78	 add	 esp, 120		; 00000078H
  002ae	8b 55 fc	 mov	 edx, DWORD PTR _i$[ebp]
  002b1	89 44 95 b0	 mov	 DWORD PTR _check_array$[ebp+edx*4], eax

; 229  : 	(
; 230  : 		UI_TYPE_TEXT,
; 231  : 		UI_ATTR_PARENT (title_change_array [i]),
; 232  : 		UI_ATTR_VIRTUAL_POSITION (OPTION_BOX_TEXT_OFFSET_X, OPTION_BOX_TEXT_OFFSET_Y),
; 233  : 		UI_ATTR_VIRTUAL_SIZE (1.0, 1.0),
; 234  : 		UI_ATTR_FONT_TYPE (UI_FONT_THICK_ARIAL_18),
; 235  :       UI_ATTR_FONT_COLOUR_START (ui_option_title_text_colour.r, ui_option_title_text_colour.g, ui_option_title_text_colour.b, 0),
; 236  :       UI_ATTR_FONT_COLOUR_END (ui_option_title_text_colour.r, ui_option_title_text_colour.g, ui_option_title_text_colour.b, 255),
; 237  : 		UI_ATTR_TEXT_JUSTIFY (TEXT_JUSTIFY_RIGHT_CENTRE),
; 238  : 		UI_ATTR_TEXT (get_trans ("Blade Stall")),
; 239  : 		UI_ATTR_END
; 240  : 	);
; 241  : 
; 242  : 	preprocess_translation_object_size (title_change_array [i], check_array [i], NULL, 0, RESIZE_OPTION_BOX_TITLE);

  002b5	6a 00		 push	 0
  002b7	6a 00		 push	 0
  002b9	6a 00		 push	 0
  002bb	8b 45 fc	 mov	 eax, DWORD PTR _i$[ebp]
  002be	8b 4c 85 b0	 mov	 ecx, DWORD PTR _check_array$[ebp+eax*4]
  002c2	51		 push	 ecx
  002c3	8b 55 fc	 mov	 edx, DWORD PTR _i$[ebp]
  002c6	8b 44 95 cc	 mov	 eax, DWORD PTR _title_change_array$[ebp+edx*4]
  002ca	50		 push	 eax
  002cb	e8 00 00 00 00	 call	 ?preprocess_translation_object_size@@YGXPAUUI_OBJECT@@0PAPBDHW4RESIZE_UI_OBJECT_TYPES@@@Z ; preprocess_translation_object_size

; 243  : 
; 244  : 	//cross_couple
; 245  : 
; 246  : 	i++;

  002d0	8b 45 fc	 mov	 eax, DWORD PTR _i$[ebp]
  002d3	83 c0 01	 add	 eax, 1
  002d6	89 45 fc	 mov	 DWORD PTR _i$[ebp], eax

; 247  : 	x1 = 0.0; 

  002d9	0f 57 c0	 xorps	 xmm0, xmm0
  002dc	f3 0f 11 45 f8	 movss	 DWORD PTR _x1$[ebp], xmm0

; 248  : 	y1 = OPTION_TITLE_OFFSET_Y + OPTION_AREA_OFFSET_Y;

  002e1	f3 0f 10 05 00
	00 00 00	 movss	 xmm0, DWORD PTR __real@3ea4dd2f
  002e9	f3 0f 11 45 f4	 movss	 DWORD PTR _y1$[ebp], xmm0

; 249  : 
; 250  :    cross_couple_area = create_ui_object

  002ee	6a 11		 push	 17			; 00000011H
  002f0	6a 01		 push	 1
  002f2	6a 07		 push	 7
  002f4	83 ec 08	 sub	 esp, 8
  002f7	f2 0f 10 05 00
	00 00 00	 movsd	 xmm0, QWORD PTR __real@3fadb22d00000000
  002ff	f2 0f 11 04 24	 movsd	 QWORD PTR [esp], xmm0
  00304	83 ec 08	 sub	 esp, 8
  00307	f2 0f 10 05 00
	00 00 00	 movsd	 xmm0, QWORD PTR __real@3ff0000000000000
  0030f	f2 0f 11 04 24	 movsd	 QWORD PTR [esp], xmm0
  00314	6a 59		 push	 89			; 00000059H
  00316	f3 0f 5a 45 f4	 cvtss2sd xmm0, DWORD PTR _y1$[ebp]
  0031b	83 ec 08	 sub	 esp, 8
  0031e	f2 0f 11 04 24	 movsd	 QWORD PTR [esp], xmm0
  00323	f3 0f 5a 45 f8	 cvtss2sd xmm0, DWORD PTR _x1$[ebp]
  00328	83 ec 08	 sub	 esp, 8
  0032b	f2 0f 11 04 24	 movsd	 QWORD PTR [esp], xmm0
  00330	6a 58		 push	 88			; 00000058H
  00332	8b 45 e8	 mov	 eax, DWORD PTR _page$[ebp]
  00335	50		 push	 eax
  00336	6a 32		 push	 50			; 00000032H
  00338	6a 01		 push	 1
  0033a	e8 00 00 00 00	 call	 ?create_ui_object@@YAPAUUI_OBJECT@@HZZ ; create_ui_object
  0033f	83 c4 40	 add	 esp, 64			; 00000040H
  00342	a3 00 00 00 00	 mov	 DWORD PTR ?cross_couple_area@@3PAUUI_OBJECT@@A, eax ; cross_couple_area

; 251  : 										(
; 252  : 											UI_TYPE_AREA,
; 253  : 											UI_ATTR_PARENT (page),
; 254  : 											UI_ATTR_VIRTUAL_POSITION (x1, y1),
; 255  : 											UI_ATTR_VIRTUAL_SIZE (OPTION_AREA_WIDTH, OPTION_AREA_HEIGHT),
; 256  : 											UI_ATTR_CLEAR (TRUE),
; 257  : 											UI_ATTR_END
; 258  : 										);
; 259  : 
; 260  : 	x1 = OPTION_TITLE_OFFSET_X;

  00347	f3 0f 10 05 00
	00 00 00	 movss	 xmm0, DWORD PTR __real@3def9db2
  0034f	f3 0f 11 45 f8	 movss	 DWORD PTR _x1$[ebp], xmm0

; 261  : 	y1 = 0.0; 

  00354	0f 57 c0	 xorps	 xmm0, xmm0
  00357	f3 0f 11 45 f4	 movss	 DWORD PTR _y1$[ebp], xmm0

; 262  : 
; 263  : 	title_change_array[i] = create_ui_object

  0035c	6a 11		 push	 17			; 00000011H
  0035e	a1 00 00 00 00	 mov	 eax, DWORD PTR ?options_box_large@@3PAUTEXTURE_GRAPHIC@@A ; options_box_large
  00363	50		 push	 eax
  00364	6a 4c		 push	 76			; 0000004cH
  00366	68 ff 00 00 00	 push	 255			; 000000ffH
  0036b	68 ff 00 00 00	 push	 255			; 000000ffH
  00370	68 ff 00 00 00	 push	 255			; 000000ffH
  00375	68 ff 00 00 00	 push	 255			; 000000ffH
  0037a	6a 0a		 push	 10			; 0000000aH
  0037c	6a 00		 push	 0
  0037e	68 ff 00 00 00	 push	 255			; 000000ffH
  00383	68 ff 00 00 00	 push	 255			; 000000ffH
  00388	68 ff 00 00 00	 push	 255			; 000000ffH
  0038d	6a 0b		 push	 11			; 0000000bH
  0038f	83 ec 08	 sub	 esp, 8
  00392	f2 0f 10 05 00
	00 00 00	 movsd	 xmm0, QWORD PTR __real@3ff0000000000000
  0039a	f2 0f 11 04 24	 movsd	 QWORD PTR [esp], xmm0
  0039f	83 ec 08	 sub	 esp, 8
  003a2	f2 0f 10 05 00
	00 00 00	 movsd	 xmm0, QWORD PTR __real@3fd3126ea0000000
  003aa	f2 0f 11 04 24	 movsd	 QWORD PTR [esp], xmm0
  003af	6a 59		 push	 89			; 00000059H
  003b1	f3 0f 5a 45 f4	 cvtss2sd xmm0, DWORD PTR _y1$[ebp]
  003b6	83 ec 08	 sub	 esp, 8
  003b9	f2 0f 11 04 24	 movsd	 QWORD PTR [esp], xmm0
  003be	f3 0f 5a 45 f8	 cvtss2sd xmm0, DWORD PTR _x1$[ebp]
  003c3	83 ec 08	 sub	 esp, 8
  003c6	f2 0f 11 04 24	 movsd	 QWORD PTR [esp], xmm0
  003cb	6a 58		 push	 88			; 00000058H
  003cd	8b 0d 00 00 00
	00		 mov	 ecx, DWORD PTR ?cross_couple_area@@3PAUUI_OBJECT@@A ; cross_couple_area
  003d3	51		 push	 ecx
  003d4	6a 32		 push	 50			; 00000032H
  003d6	6a 01		 push	 1
  003d8	e8 00 00 00 00	 call	 ?create_ui_object@@YAPAUUI_OBJECT@@HZZ ; create_ui_object
  003dd	83 c4 68	 add	 esp, 104		; 00000068H
  003e0	8b 55 fc	 mov	 edx, DWORD PTR _i$[ebp]
  003e3	89 44 95 cc	 mov	 DWORD PTR _title_change_array$[ebp+edx*4], eax

; 264  : 	(
; 265  : 		UI_TYPE_AREA,
; 266  : 		UI_ATTR_PARENT (cross_couple_area),
; 267  : 		UI_ATTR_VIRTUAL_POSITION (x1, y1),
; 268  : 		UI_ATTR_VIRTUAL_SIZE (OPTION_BOX_WIDTH, OPTION_BOX_HEIGHT),
; 269  : 		UI_ATTR_COLOUR_START ( 255, 255, 255, 0 ),
; 270  : 		UI_ATTR_COLOUR_END ( 255, 255, 255, 255 ),
; 271  : 		UI_ATTR_TEXTURE_GRAPHIC (options_box_large),
; 272  : 		UI_ATTR_END
; 273  : 	);
; 274  : 
; 275  :    check_array[i] = create_ui_object

  003e7	6a 11		 push	 17			; 00000011H
  003e9	68 00 00 00 00	 push	 OFFSET ??_C@_0N@FJLMCKLO@Cross?5Couple@
  003ee	e8 00 00 00 00	 call	 ?get_trans@@YGPBDPBD@Z	; get_trans
  003f3	50		 push	 eax
  003f4	6a 4a		 push	 74			; 0000004aH
  003f6	6a 02		 push	 2
  003f8	6a 4b		 push	 75			; 0000004bH
  003fa	68 ff 00 00 00	 push	 255			; 000000ffH
  003ff	0f b6 05 00 00
	00 00		 movzx	 eax, BYTE PTR ?ui_option_title_text_colour@@3UREAL_COLOUR@@A
  00406	50		 push	 eax
  00407	0f b6 0d 01 00
	00 00		 movzx	 ecx, BYTE PTR ?ui_option_title_text_colour@@3UREAL_COLOUR@@A+1
  0040e	51		 push	 ecx
  0040f	0f b6 15 02 00
	00 00		 movzx	 edx, BYTE PTR ?ui_option_title_text_colour@@3UREAL_COLOUR@@A+2
  00416	52		 push	 edx
  00417	6a 14		 push	 20			; 00000014H
  00419	6a 00		 push	 0
  0041b	0f b6 05 00 00
	00 00		 movzx	 eax, BYTE PTR ?ui_option_title_text_colour@@3UREAL_COLOUR@@A
  00422	50		 push	 eax
  00423	0f b6 0d 01 00
	00 00		 movzx	 ecx, BYTE PTR ?ui_option_title_text_colour@@3UREAL_COLOUR@@A+1
  0042a	51		 push	 ecx
  0042b	0f b6 15 02 00
	00 00		 movzx	 edx, BYTE PTR ?ui_option_title_text_colour@@3UREAL_COLOUR@@A+2
  00432	52		 push	 edx
  00433	6a 15		 push	 21			; 00000015H
  00435	6a 06		 push	 6
  00437	6a 12		 push	 18			; 00000012H
  00439	83 ec 08	 sub	 esp, 8
  0043c	f2 0f 10 05 00
	00 00 00	 movsd	 xmm0, QWORD PTR __real@3fc24dd300000000
  00444	f2 0f 11 04 24	 movsd	 QWORD PTR [esp], xmm0
  00449	83 ec 08	 sub	 esp, 8
  0044c	f2 0f 10 05 00
	00 00 00	 movsd	 xmm0, QWORD PTR __real@3fee666660000000
  00454	f2 0f 11 04 24	 movsd	 QWORD PTR [esp], xmm0
  00459	6a 58		 push	 88			; 00000058H
  0045b	8b 45 fc	 mov	 eax, DWORD PTR _i$[ebp]
  0045e	8b 4c 85 cc	 mov	 ecx, DWORD PTR _title_change_array$[ebp+eax*4]
  00462	51		 push	 ecx
  00463	6a 32		 push	 50			; 00000032H
  00465	6a 05		 push	 5
  00467	e8 00 00 00 00	 call	 ?create_ui_object@@YAPAUUI_OBJECT@@HZZ ; create_ui_object
  0046c	83 c4 64	 add	 esp, 100		; 00000064H
  0046f	8b 55 fc	 mov	 edx, DWORD PTR _i$[ebp]
  00472	89 44 95 b0	 mov	 DWORD PTR _check_array$[ebp+edx*4], eax

; 276  : 	(
; 277  : 		UI_TYPE_TEXT,
; 278  : 		UI_ATTR_PARENT (title_change_array[i]),
; 279  : 		UI_ATTR_VIRTUAL_POSITION (OPTION_BOX_TEXT_OFFSET_X, OPTION_BOX_TEXT_OFFSET_Y),
; 280  : 		UI_ATTR_FONT_TYPE (UI_FONT_THICK_ARIAL_18),
; 281  :       UI_ATTR_FONT_COLOUR_START (ui_option_title_text_colour.r, ui_option_title_text_colour.g, ui_option_title_text_colour.b, 0),
; 282  :       UI_ATTR_FONT_COLOUR_END (ui_option_title_text_colour.r, ui_option_title_text_colour.g, ui_option_title_text_colour.b, 255),
; 283  : 		UI_ATTR_TEXT_JUSTIFY (TEXT_JUSTIFY_RIGHT_CENTRE),
; 284  : 		UI_ATTR_TEXT (get_trans ("Cross Couple")),
; 285  : 		UI_ATTR_END
; 286  : 	);
; 287  : 
; 288  : 	preprocess_translation_object_size (title_change_array [i], check_array [i], NULL, 0, RESIZE_OPTION_BOX_TITLE);

  00476	6a 00		 push	 0
  00478	6a 00		 push	 0
  0047a	6a 00		 push	 0
  0047c	8b 45 fc	 mov	 eax, DWORD PTR _i$[ebp]
  0047f	8b 4c 85 b0	 mov	 ecx, DWORD PTR _check_array$[ebp+eax*4]
  00483	51		 push	 ecx
  00484	8b 55 fc	 mov	 edx, DWORD PTR _i$[ebp]
  00487	8b 44 95 cc	 mov	 eax, DWORD PTR _title_change_array$[ebp+edx*4]
  0048b	50		 push	 eax
  0048c	e8 00 00 00 00	 call	 ?preprocess_translation_object_size@@YGXPAUUI_OBJECT@@0PAPBDHW4RESIZE_UI_OBJECT_TYPES@@@Z ; preprocess_translation_object_size

; 289  : 
; 290  : 	// ground effect
; 291  : 
; 292  : 	i++;

  00491	8b 45 fc	 mov	 eax, DWORD PTR _i$[ebp]
  00494	83 c0 01	 add	 eax, 1
  00497	89 45 fc	 mov	 DWORD PTR _i$[ebp], eax

; 293  : 	x1 = 0.0; 

  0049a	0f 57 c0	 xorps	 xmm0, xmm0
  0049d	f3 0f 11 45 f8	 movss	 DWORD PTR _x1$[ebp], xmm0

; 294  : 	y1 = OPTION_TITLE_OFFSET_Y + OPTION_AREA_OFFSET_Y * i;

  004a2	f3 0f 2a 45 fc	 cvtsi2ss xmm0, DWORD PTR _i$[ebp]
  004a7	f3 0f 59 05 00
	00 00 00	 mulss	 xmm0, DWORD PTR __real@3d7df3b6
  004af	f3 0f 58 05 00
	00 00 00	 addss	 xmm0, DWORD PTR __real@3e851eb8
  004b7	f3 0f 11 45 f4	 movss	 DWORD PTR _y1$[ebp], xmm0

; 295  : 
; 296  :    ground_effect_area = create_ui_object

  004bc	6a 11		 push	 17			; 00000011H
  004be	6a 01		 push	 1
  004c0	6a 07		 push	 7
  004c2	83 ec 08	 sub	 esp, 8
  004c5	f2 0f 10 05 00
	00 00 00	 movsd	 xmm0, QWORD PTR __real@3fadb22d00000000
  004cd	f2 0f 11 04 24	 movsd	 QWORD PTR [esp], xmm0
  004d2	83 ec 08	 sub	 esp, 8
  004d5	f2 0f 10 05 00
	00 00 00	 movsd	 xmm0, QWORD PTR __real@3ff0000000000000
  004dd	f2 0f 11 04 24	 movsd	 QWORD PTR [esp], xmm0
  004e2	6a 59		 push	 89			; 00000059H
  004e4	f3 0f 5a 45 f4	 cvtss2sd xmm0, DWORD PTR _y1$[ebp]
  004e9	83 ec 08	 sub	 esp, 8
  004ec	f2 0f 11 04 24	 movsd	 QWORD PTR [esp], xmm0
  004f1	f3 0f 5a 45 f8	 cvtss2sd xmm0, DWORD PTR _x1$[ebp]
  004f6	83 ec 08	 sub	 esp, 8
  004f9	f2 0f 11 04 24	 movsd	 QWORD PTR [esp], xmm0
  004fe	6a 58		 push	 88			; 00000058H
  00500	8b 45 e8	 mov	 eax, DWORD PTR _page$[ebp]
  00503	50		 push	 eax
  00504	6a 32		 push	 50			; 00000032H
  00506	6a 01		 push	 1
  00508	e8 00 00 00 00	 call	 ?create_ui_object@@YAPAUUI_OBJECT@@HZZ ; create_ui_object
  0050d	83 c4 40	 add	 esp, 64			; 00000040H
  00510	a3 00 00 00 00	 mov	 DWORD PTR ?ground_effect_area@@3PAUUI_OBJECT@@A, eax ; ground_effect_area

; 297  : 									(
; 298  : 										UI_TYPE_AREA,
; 299  : 										UI_ATTR_PARENT (page),
; 300  : 										UI_ATTR_VIRTUAL_POSITION (x1, y1),
; 301  : 										UI_ATTR_VIRTUAL_SIZE (OPTION_AREA_WIDTH, OPTION_AREA_HEIGHT),
; 302  : 										UI_ATTR_CLEAR (TRUE),
; 303  : 										UI_ATTR_END
; 304  : 									);
; 305  : 
; 306  : 	x1 = OPTION_TITLE_OFFSET_X;

  00515	f3 0f 10 05 00
	00 00 00	 movss	 xmm0, DWORD PTR __real@3def9db2
  0051d	f3 0f 11 45 f8	 movss	 DWORD PTR _x1$[ebp], xmm0

; 307  : 	y1 = 0.0; 

  00522	0f 57 c0	 xorps	 xmm0, xmm0
  00525	f3 0f 11 45 f4	 movss	 DWORD PTR _y1$[ebp], xmm0

; 308  : 
; 309  : 	title_change_array[i] = create_ui_object

  0052a	6a 11		 push	 17			; 00000011H
  0052c	a1 00 00 00 00	 mov	 eax, DWORD PTR ?options_box_large@@3PAUTEXTURE_GRAPHIC@@A ; options_box_large
  00531	50		 push	 eax
  00532	6a 4c		 push	 76			; 0000004cH
  00534	68 ff 00 00 00	 push	 255			; 000000ffH
  00539	68 ff 00 00 00	 push	 255			; 000000ffH
  0053e	68 ff 00 00 00	 push	 255			; 000000ffH
  00543	68 ff 00 00 00	 push	 255			; 000000ffH
  00548	6a 0a		 push	 10			; 0000000aH
  0054a	6a 00		 push	 0
  0054c	68 ff 00 00 00	 push	 255			; 000000ffH
  00551	68 ff 00 00 00	 push	 255			; 000000ffH
  00556	68 ff 00 00 00	 push	 255			; 000000ffH
  0055b	6a 0b		 push	 11			; 0000000bH
  0055d	83 ec 08	 sub	 esp, 8
  00560	f2 0f 10 05 00
	00 00 00	 movsd	 xmm0, QWORD PTR __real@3ff0000000000000
  00568	f2 0f 11 04 24	 movsd	 QWORD PTR [esp], xmm0
  0056d	83 ec 08	 sub	 esp, 8
  00570	f2 0f 10 05 00
	00 00 00	 movsd	 xmm0, QWORD PTR __real@3fd3126ea0000000
  00578	f2 0f 11 04 24	 movsd	 QWORD PTR [esp], xmm0
  0057d	6a 59		 push	 89			; 00000059H
  0057f	f3 0f 5a 45 f4	 cvtss2sd xmm0, DWORD PTR _y1$[ebp]
  00584	83 ec 08	 sub	 esp, 8
  00587	f2 0f 11 04 24	 movsd	 QWORD PTR [esp], xmm0
  0058c	f3 0f 5a 45 f8	 cvtss2sd xmm0, DWORD PTR _x1$[ebp]
  00591	83 ec 08	 sub	 esp, 8
  00594	f2 0f 11 04 24	 movsd	 QWORD PTR [esp], xmm0
  00599	6a 58		 push	 88			; 00000058H
  0059b	8b 0d 00 00 00
	00		 mov	 ecx, DWORD PTR ?ground_effect_area@@3PAUUI_OBJECT@@A ; ground_effect_area
  005a1	51		 push	 ecx
  005a2	6a 32		 push	 50			; 00000032H
  005a4	6a 01		 push	 1
  005a6	e8 00 00 00 00	 call	 ?create_ui_object@@YAPAUUI_OBJECT@@HZZ ; create_ui_object
  005ab	83 c4 68	 add	 esp, 104		; 00000068H
  005ae	8b 55 fc	 mov	 edx, DWORD PTR _i$[ebp]
  005b1	89 44 95 cc	 mov	 DWORD PTR _title_change_array$[ebp+edx*4], eax

; 310  : 	(
; 311  : 		UI_TYPE_AREA,
; 312  : 		UI_ATTR_PARENT (ground_effect_area),
; 313  : 		UI_ATTR_VIRTUAL_POSITION (x1, y1),
; 314  : 		UI_ATTR_VIRTUAL_SIZE (OPTION_BOX_WIDTH, OPTION_BOX_HEIGHT),
; 315  : 		UI_ATTR_COLOUR_START ( 255, 255, 255, 0 ),
; 316  : 		UI_ATTR_COLOUR_END ( 255, 255, 255, 255 ),
; 317  : 		UI_ATTR_TEXTURE_GRAPHIC (options_box_large),
; 318  : 		UI_ATTR_END
; 319  : 	);
; 320  : 
; 321  :    check_array[i] = create_ui_object

  005b5	6a 11		 push	 17			; 00000011H
  005b7	68 00 00 00 00	 push	 OFFSET ??_C@_0O@OBCKGDPN@Ground?5Effect@
  005bc	e8 00 00 00 00	 call	 ?get_trans@@YGPBDPBD@Z	; get_trans
  005c1	50		 push	 eax
  005c2	6a 4a		 push	 74			; 0000004aH
  005c4	6a 02		 push	 2
  005c6	6a 4b		 push	 75			; 0000004bH
  005c8	68 ff 00 00 00	 push	 255			; 000000ffH
  005cd	0f b6 05 00 00
	00 00		 movzx	 eax, BYTE PTR ?ui_option_title_text_colour@@3UREAL_COLOUR@@A
  005d4	50		 push	 eax
  005d5	0f b6 0d 01 00
	00 00		 movzx	 ecx, BYTE PTR ?ui_option_title_text_colour@@3UREAL_COLOUR@@A+1
  005dc	51		 push	 ecx
  005dd	0f b6 15 02 00
	00 00		 movzx	 edx, BYTE PTR ?ui_option_title_text_colour@@3UREAL_COLOUR@@A+2
  005e4	52		 push	 edx
  005e5	6a 14		 push	 20			; 00000014H
  005e7	6a 00		 push	 0
  005e9	0f b6 05 00 00
	00 00		 movzx	 eax, BYTE PTR ?ui_option_title_text_colour@@3UREAL_COLOUR@@A
  005f0	50		 push	 eax
  005f1	0f b6 0d 01 00
	00 00		 movzx	 ecx, BYTE PTR ?ui_option_title_text_colour@@3UREAL_COLOUR@@A+1
  005f8	51		 push	 ecx
  005f9	0f b6 15 02 00
	00 00		 movzx	 edx, BYTE PTR ?ui_option_title_text_colour@@3UREAL_COLOUR@@A+2
  00600	52		 push	 edx
  00601	6a 15		 push	 21			; 00000015H
  00603	6a 06		 push	 6
  00605	6a 12		 push	 18			; 00000012H
  00607	83 ec 08	 sub	 esp, 8
  0060a	f2 0f 10 05 00
	00 00 00	 movsd	 xmm0, QWORD PTR __real@3fc24dd300000000
  00612	f2 0f 11 04 24	 movsd	 QWORD PTR [esp], xmm0
  00617	83 ec 08	 sub	 esp, 8
  0061a	f2 0f 10 05 00
	00 00 00	 movsd	 xmm0, QWORD PTR __real@3fee666660000000
  00622	f2 0f 11 04 24	 movsd	 QWORD PTR [esp], xmm0
  00627	6a 58		 push	 88			; 00000058H
  00629	8b 45 fc	 mov	 eax, DWORD PTR _i$[ebp]
  0062c	8b 4c 85 cc	 mov	 ecx, DWORD PTR _title_change_array$[ebp+eax*4]
  00630	51		 push	 ecx
  00631	6a 32		 push	 50			; 00000032H
  00633	6a 05		 push	 5
  00635	e8 00 00 00 00	 call	 ?create_ui_object@@YAPAUUI_OBJECT@@HZZ ; create_ui_object
  0063a	83 c4 64	 add	 esp, 100		; 00000064H
  0063d	8b 55 fc	 mov	 edx, DWORD PTR _i$[ebp]
  00640	89 44 95 b0	 mov	 DWORD PTR _check_array$[ebp+edx*4], eax

; 322  : 	(
; 323  : 		UI_TYPE_TEXT,
; 324  : 		UI_ATTR_PARENT (title_change_array[i]),
; 325  : 		UI_ATTR_VIRTUAL_POSITION (OPTION_BOX_TEXT_OFFSET_X, OPTION_BOX_TEXT_OFFSET_Y),
; 326  : 		UI_ATTR_FONT_TYPE (UI_FONT_THICK_ARIAL_18),
; 327  :       UI_ATTR_FONT_COLOUR_START (ui_option_title_text_colour.r, ui_option_title_text_colour.g, ui_option_title_text_colour.b, 0),
; 328  :       UI_ATTR_FONT_COLOUR_END (ui_option_title_text_colour.r, ui_option_title_text_colour.g, ui_option_title_text_colour.b, 255),
; 329  : 		UI_ATTR_TEXT_JUSTIFY (TEXT_JUSTIFY_RIGHT_CENTRE),
; 330  : 		UI_ATTR_TEXT (get_trans ("Ground Effect")),
; 331  : 		UI_ATTR_END
; 332  : 	);
; 333  : 
; 334  : 	preprocess_translation_object_size (title_change_array [i], check_array [i], NULL, 0, RESIZE_OPTION_BOX_TITLE);

  00644	6a 00		 push	 0
  00646	6a 00		 push	 0
  00648	6a 00		 push	 0
  0064a	8b 45 fc	 mov	 eax, DWORD PTR _i$[ebp]
  0064d	8b 4c 85 b0	 mov	 ecx, DWORD PTR _check_array$[ebp+eax*4]
  00651	51		 push	 ecx
  00652	8b 55 fc	 mov	 edx, DWORD PTR _i$[ebp]
  00655	8b 44 95 cc	 mov	 eax, DWORD PTR _title_change_array$[ebp+edx*4]
  00659	50		 push	 eax
  0065a	e8 00 00 00 00	 call	 ?preprocess_translation_object_size@@YGXPAUUI_OBJECT@@0PAPBDHW4RESIZE_UI_OBJECT_TYPES@@@Z ; preprocess_translation_object_size

; 335  : 
; 336  : 	//over-torque area
; 337  : 
; 338  : 	i++;

  0065f	8b 45 fc	 mov	 eax, DWORD PTR _i$[ebp]
  00662	83 c0 01	 add	 eax, 1
  00665	89 45 fc	 mov	 DWORD PTR _i$[ebp], eax

; 339  : 	x1 = 0.0; 

  00668	0f 57 c0	 xorps	 xmm0, xmm0
  0066b	f3 0f 11 45 f8	 movss	 DWORD PTR _x1$[ebp], xmm0

; 340  : 	y1 = OPTION_TITLE_OFFSET_Y + OPTION_AREA_OFFSET_Y * i;

  00670	f3 0f 2a 45 fc	 cvtsi2ss xmm0, DWORD PTR _i$[ebp]
  00675	f3 0f 59 05 00
	00 00 00	 mulss	 xmm0, DWORD PTR __real@3d7df3b6
  0067d	f3 0f 58 05 00
	00 00 00	 addss	 xmm0, DWORD PTR __real@3e851eb8
  00685	f3 0f 11 45 f4	 movss	 DWORD PTR _y1$[ebp], xmm0

; 341  : 
; 342  :    over_torque_area = create_ui_object

  0068a	6a 11		 push	 17			; 00000011H
  0068c	6a 01		 push	 1
  0068e	6a 07		 push	 7
  00690	83 ec 08	 sub	 esp, 8
  00693	f2 0f 10 05 00
	00 00 00	 movsd	 xmm0, QWORD PTR __real@3fadb22d00000000
  0069b	f2 0f 11 04 24	 movsd	 QWORD PTR [esp], xmm0
  006a0	83 ec 08	 sub	 esp, 8
  006a3	f2 0f 10 05 00
	00 00 00	 movsd	 xmm0, QWORD PTR __real@3ff0000000000000
  006ab	f2 0f 11 04 24	 movsd	 QWORD PTR [esp], xmm0
  006b0	6a 59		 push	 89			; 00000059H
  006b2	f3 0f 5a 45 f4	 cvtss2sd xmm0, DWORD PTR _y1$[ebp]
  006b7	83 ec 08	 sub	 esp, 8
  006ba	f2 0f 11 04 24	 movsd	 QWORD PTR [esp], xmm0
  006bf	f3 0f 5a 45 f8	 cvtss2sd xmm0, DWORD PTR _x1$[ebp]
  006c4	83 ec 08	 sub	 esp, 8
  006c7	f2 0f 11 04 24	 movsd	 QWORD PTR [esp], xmm0
  006cc	6a 58		 push	 88			; 00000058H
  006ce	8b 45 e8	 mov	 eax, DWORD PTR _page$[ebp]
  006d1	50		 push	 eax
  006d2	6a 32		 push	 50			; 00000032H
  006d4	6a 01		 push	 1
  006d6	e8 00 00 00 00	 call	 ?create_ui_object@@YAPAUUI_OBJECT@@HZZ ; create_ui_object
  006db	83 c4 40	 add	 esp, 64			; 00000040H
  006de	a3 00 00 00 00	 mov	 DWORD PTR ?over_torque_area@@3PAUUI_OBJECT@@A, eax ; over_torque_area

; 343  : 								(
; 344  : 									UI_TYPE_AREA,
; 345  : 									UI_ATTR_PARENT (page),
; 346  : 									UI_ATTR_VIRTUAL_POSITION (x1, y1),
; 347  : 									UI_ATTR_VIRTUAL_SIZE (OPTION_AREA_WIDTH, OPTION_AREA_HEIGHT),
; 348  : 									UI_ATTR_CLEAR (TRUE),
; 349  : 									UI_ATTR_END
; 350  : 								);
; 351  : 
; 352  : 	x1 = OPTION_TITLE_OFFSET_X;

  006e3	f3 0f 10 05 00
	00 00 00	 movss	 xmm0, DWORD PTR __real@3def9db2
  006eb	f3 0f 11 45 f8	 movss	 DWORD PTR _x1$[ebp], xmm0

; 353  : 	y1 = 0.0; 

  006f0	0f 57 c0	 xorps	 xmm0, xmm0
  006f3	f3 0f 11 45 f4	 movss	 DWORD PTR _y1$[ebp], xmm0

; 354  : 
; 355  : 	title_change_array[i] = create_ui_object

  006f8	6a 11		 push	 17			; 00000011H
  006fa	a1 00 00 00 00	 mov	 eax, DWORD PTR ?options_box_large@@3PAUTEXTURE_GRAPHIC@@A ; options_box_large
  006ff	50		 push	 eax
  00700	6a 4c		 push	 76			; 0000004cH
  00702	68 ff 00 00 00	 push	 255			; 000000ffH
  00707	68 ff 00 00 00	 push	 255			; 000000ffH
  0070c	68 ff 00 00 00	 push	 255			; 000000ffH
  00711	68 ff 00 00 00	 push	 255			; 000000ffH
  00716	6a 0a		 push	 10			; 0000000aH
  00718	6a 00		 push	 0
  0071a	68 ff 00 00 00	 push	 255			; 000000ffH
  0071f	68 ff 00 00 00	 push	 255			; 000000ffH
  00724	68 ff 00 00 00	 push	 255			; 000000ffH
  00729	6a 0b		 push	 11			; 0000000bH
  0072b	83 ec 08	 sub	 esp, 8
  0072e	f2 0f 10 05 00
	00 00 00	 movsd	 xmm0, QWORD PTR __real@3ff0000000000000
  00736	f2 0f 11 04 24	 movsd	 QWORD PTR [esp], xmm0
  0073b	83 ec 08	 sub	 esp, 8
  0073e	f2 0f 10 05 00
	00 00 00	 movsd	 xmm0, QWORD PTR __real@3fd3126ea0000000
  00746	f2 0f 11 04 24	 movsd	 QWORD PTR [esp], xmm0
  0074b	6a 59		 push	 89			; 00000059H
  0074d	f3 0f 5a 45 f4	 cvtss2sd xmm0, DWORD PTR _y1$[ebp]
  00752	83 ec 08	 sub	 esp, 8
  00755	f2 0f 11 04 24	 movsd	 QWORD PTR [esp], xmm0
  0075a	f3 0f 5a 45 f8	 cvtss2sd xmm0, DWORD PTR _x1$[ebp]
  0075f	83 ec 08	 sub	 esp, 8
  00762	f2 0f 11 04 24	 movsd	 QWORD PTR [esp], xmm0
  00767	6a 58		 push	 88			; 00000058H
  00769	8b 0d 00 00 00
	00		 mov	 ecx, DWORD PTR ?over_torque_area@@3PAUUI_OBJECT@@A ; over_torque_area
  0076f	51		 push	 ecx
  00770	6a 32		 push	 50			; 00000032H
  00772	6a 01		 push	 1
  00774	e8 00 00 00 00	 call	 ?create_ui_object@@YAPAUUI_OBJECT@@HZZ ; create_ui_object
  00779	83 c4 68	 add	 esp, 104		; 00000068H
  0077c	8b 55 fc	 mov	 edx, DWORD PTR _i$[ebp]
  0077f	89 44 95 cc	 mov	 DWORD PTR _title_change_array$[ebp+edx*4], eax

; 356  : 	(
; 357  : 		UI_TYPE_AREA,
; 358  : 		UI_ATTR_PARENT (over_torque_area),
; 359  : 		UI_ATTR_VIRTUAL_POSITION (x1, y1),
; 360  : 		UI_ATTR_VIRTUAL_SIZE (OPTION_BOX_WIDTH, OPTION_BOX_HEIGHT),
; 361  : 		UI_ATTR_COLOUR_START ( 255, 255, 255, 0 ),
; 362  : 		UI_ATTR_COLOUR_END ( 255, 255, 255, 255 ),
; 363  : 		UI_ATTR_TEXTURE_GRAPHIC (options_box_large),
; 364  : 		UI_ATTR_END
; 365  : 	);
; 366  : 
; 367  :    check_array[i] = create_ui_object

  00783	6a 11		 push	 17			; 00000011H
  00785	68 00 00 00 00	 push	 OFFSET ??_C@_0M@PELOPOLE@Over?5Torque@
  0078a	e8 00 00 00 00	 call	 ?get_trans@@YGPBDPBD@Z	; get_trans
  0078f	50		 push	 eax
  00790	6a 4a		 push	 74			; 0000004aH
  00792	6a 02		 push	 2
  00794	6a 4b		 push	 75			; 0000004bH
  00796	68 ff 00 00 00	 push	 255			; 000000ffH
  0079b	0f b6 05 00 00
	00 00		 movzx	 eax, BYTE PTR ?ui_option_title_text_colour@@3UREAL_COLOUR@@A
  007a2	50		 push	 eax
  007a3	0f b6 0d 01 00
	00 00		 movzx	 ecx, BYTE PTR ?ui_option_title_text_colour@@3UREAL_COLOUR@@A+1
  007aa	51		 push	 ecx
  007ab	0f b6 15 02 00
	00 00		 movzx	 edx, BYTE PTR ?ui_option_title_text_colour@@3UREAL_COLOUR@@A+2
  007b2	52		 push	 edx
  007b3	6a 14		 push	 20			; 00000014H
  007b5	6a 00		 push	 0
  007b7	0f b6 05 00 00
	00 00		 movzx	 eax, BYTE PTR ?ui_option_title_text_colour@@3UREAL_COLOUR@@A
  007be	50		 push	 eax
  007bf	0f b6 0d 01 00
	00 00		 movzx	 ecx, BYTE PTR ?ui_option_title_text_colour@@3UREAL_COLOUR@@A+1
  007c6	51		 push	 ecx
  007c7	0f b6 15 02 00
	00 00		 movzx	 edx, BYTE PTR ?ui_option_title_text_colour@@3UREAL_COLOUR@@A+2
  007ce	52		 push	 edx
  007cf	6a 15		 push	 21			; 00000015H
  007d1	6a 06		 push	 6
  007d3	6a 12		 push	 18			; 00000012H
  007d5	83 ec 08	 sub	 esp, 8
  007d8	f2 0f 10 05 00
	00 00 00	 movsd	 xmm0, QWORD PTR __real@3fc24dd300000000
  007e0	f2 0f 11 04 24	 movsd	 QWORD PTR [esp], xmm0
  007e5	83 ec 08	 sub	 esp, 8
  007e8	f2 0f 10 05 00
	00 00 00	 movsd	 xmm0, QWORD PTR __real@3fee666660000000
  007f0	f2 0f 11 04 24	 movsd	 QWORD PTR [esp], xmm0
  007f5	6a 58		 push	 88			; 00000058H
  007f7	8b 45 fc	 mov	 eax, DWORD PTR _i$[ebp]
  007fa	8b 4c 85 cc	 mov	 ecx, DWORD PTR _title_change_array$[ebp+eax*4]
  007fe	51		 push	 ecx
  007ff	6a 32		 push	 50			; 00000032H
  00801	6a 05		 push	 5
  00803	e8 00 00 00 00	 call	 ?create_ui_object@@YAPAUUI_OBJECT@@HZZ ; create_ui_object
  00808	83 c4 64	 add	 esp, 100		; 00000064H
  0080b	8b 55 fc	 mov	 edx, DWORD PTR _i$[ebp]
  0080e	89 44 95 b0	 mov	 DWORD PTR _check_array$[ebp+edx*4], eax

; 368  : 	(
; 369  : 		UI_TYPE_TEXT,
; 370  : 		UI_ATTR_PARENT (title_change_array[i]),
; 371  : 		UI_ATTR_VIRTUAL_POSITION (OPTION_BOX_TEXT_OFFSET_X, OPTION_BOX_TEXT_OFFSET_Y),
; 372  : 		UI_ATTR_FONT_TYPE (UI_FONT_THICK_ARIAL_18),
; 373  :       UI_ATTR_FONT_COLOUR_START (ui_option_title_text_colour.r, ui_option_title_text_colour.g, ui_option_title_text_colour.b, 0),
; 374  :       UI_ATTR_FONT_COLOUR_END (ui_option_title_text_colour.r, ui_option_title_text_colour.g, ui_option_title_text_colour.b, 255),
; 375  : 		UI_ATTR_TEXT_JUSTIFY (TEXT_JUSTIFY_RIGHT_CENTRE),
; 376  : 		UI_ATTR_TEXT (get_trans ("Over Torque")),
; 377  : 		UI_ATTR_END
; 378  : 	);
; 379  : 
; 380  : 	preprocess_translation_object_size (title_change_array [i], check_array [i], NULL, 0, RESIZE_OPTION_BOX_TITLE);

  00812	6a 00		 push	 0
  00814	6a 00		 push	 0
  00816	6a 00		 push	 0
  00818	8b 45 fc	 mov	 eax, DWORD PTR _i$[ebp]
  0081b	8b 4c 85 b0	 mov	 ecx, DWORD PTR _check_array$[ebp+eax*4]
  0081f	51		 push	 ecx
  00820	8b 55 fc	 mov	 edx, DWORD PTR _i$[ebp]
  00823	8b 44 95 cc	 mov	 eax, DWORD PTR _title_change_array$[ebp+edx*4]
  00827	50		 push	 eax
  00828	e8 00 00 00 00	 call	 ?preprocess_translation_object_size@@YGXPAUUI_OBJECT@@0PAPBDHW4RESIZE_UI_OBJECT_TYPES@@@Z ; preprocess_translation_object_size

; 381  : 
; 382  : 	//vortex_ring area
; 383  : 	
; 384  : 	i++;

  0082d	8b 45 fc	 mov	 eax, DWORD PTR _i$[ebp]
  00830	83 c0 01	 add	 eax, 1
  00833	89 45 fc	 mov	 DWORD PTR _i$[ebp], eax

; 385  : 	x1 = 0.0; 

  00836	0f 57 c0	 xorps	 xmm0, xmm0
  00839	f3 0f 11 45 f8	 movss	 DWORD PTR _x1$[ebp], xmm0

; 386  : 	y1 = OPTION_TITLE_OFFSET_Y + OPTION_AREA_OFFSET_Y * i;

  0083e	f3 0f 2a 45 fc	 cvtsi2ss xmm0, DWORD PTR _i$[ebp]
  00843	f3 0f 59 05 00
	00 00 00	 mulss	 xmm0, DWORD PTR __real@3d7df3b6
  0084b	f3 0f 58 05 00
	00 00 00	 addss	 xmm0, DWORD PTR __real@3e851eb8
  00853	f3 0f 11 45 f4	 movss	 DWORD PTR _y1$[ebp], xmm0

; 387  : 
; 388  :    vortex_ring_area = create_ui_object

  00858	6a 11		 push	 17			; 00000011H
  0085a	6a 01		 push	 1
  0085c	6a 07		 push	 7
  0085e	83 ec 08	 sub	 esp, 8
  00861	f2 0f 10 05 00
	00 00 00	 movsd	 xmm0, QWORD PTR __real@3fadb22d00000000
  00869	f2 0f 11 04 24	 movsd	 QWORD PTR [esp], xmm0
  0086e	83 ec 08	 sub	 esp, 8
  00871	f2 0f 10 05 00
	00 00 00	 movsd	 xmm0, QWORD PTR __real@3ff0000000000000
  00879	f2 0f 11 04 24	 movsd	 QWORD PTR [esp], xmm0
  0087e	6a 59		 push	 89			; 00000059H
  00880	f3 0f 5a 45 f4	 cvtss2sd xmm0, DWORD PTR _y1$[ebp]
  00885	83 ec 08	 sub	 esp, 8
  00888	f2 0f 11 04 24	 movsd	 QWORD PTR [esp], xmm0
  0088d	f3 0f 5a 45 f8	 cvtss2sd xmm0, DWORD PTR _x1$[ebp]
  00892	83 ec 08	 sub	 esp, 8
  00895	f2 0f 11 04 24	 movsd	 QWORD PTR [esp], xmm0
  0089a	6a 58		 push	 88			; 00000058H
  0089c	8b 45 e8	 mov	 eax, DWORD PTR _page$[ebp]
  0089f	50		 push	 eax
  008a0	6a 32		 push	 50			; 00000032H
  008a2	6a 01		 push	 1
  008a4	e8 00 00 00 00	 call	 ?create_ui_object@@YAPAUUI_OBJECT@@HZZ ; create_ui_object
  008a9	83 c4 40	 add	 esp, 64			; 00000040H
  008ac	a3 00 00 00 00	 mov	 DWORD PTR ?vortex_ring_area@@3PAUUI_OBJECT@@A, eax ; vortex_ring_area

; 389  : 								(
; 390  : 									UI_TYPE_AREA,
; 391  : 									UI_ATTR_PARENT ( page ),
; 392  : 									UI_ATTR_VIRTUAL_POSITION (x1, y1),
; 393  : 									UI_ATTR_VIRTUAL_SIZE (OPTION_AREA_WIDTH, OPTION_AREA_HEIGHT),
; 394  : 									UI_ATTR_CLEAR (TRUE),
; 395  : 									UI_ATTR_END
; 396  : 								);
; 397  : 
; 398  : 	x1 = OPTION_TITLE_OFFSET_X;

  008b1	f3 0f 10 05 00
	00 00 00	 movss	 xmm0, DWORD PTR __real@3def9db2
  008b9	f3 0f 11 45 f8	 movss	 DWORD PTR _x1$[ebp], xmm0

; 399  : 	y1 = 0.0; 

  008be	0f 57 c0	 xorps	 xmm0, xmm0
  008c1	f3 0f 11 45 f4	 movss	 DWORD PTR _y1$[ebp], xmm0

; 400  : 
; 401  : 	title_change_array[i] = create_ui_object

  008c6	6a 11		 push	 17			; 00000011H
  008c8	a1 00 00 00 00	 mov	 eax, DWORD PTR ?options_box_large@@3PAUTEXTURE_GRAPHIC@@A ; options_box_large
  008cd	50		 push	 eax
  008ce	6a 4c		 push	 76			; 0000004cH
  008d0	68 ff 00 00 00	 push	 255			; 000000ffH
  008d5	68 ff 00 00 00	 push	 255			; 000000ffH
  008da	68 ff 00 00 00	 push	 255			; 000000ffH
  008df	68 ff 00 00 00	 push	 255			; 000000ffH
  008e4	6a 0a		 push	 10			; 0000000aH
  008e6	6a 00		 push	 0
  008e8	68 ff 00 00 00	 push	 255			; 000000ffH
  008ed	68 ff 00 00 00	 push	 255			; 000000ffH
  008f2	68 ff 00 00 00	 push	 255			; 000000ffH
  008f7	6a 0b		 push	 11			; 0000000bH
  008f9	83 ec 08	 sub	 esp, 8
  008fc	f2 0f 10 05 00
	00 00 00	 movsd	 xmm0, QWORD PTR __real@3ff0000000000000
  00904	f2 0f 11 04 24	 movsd	 QWORD PTR [esp], xmm0
  00909	83 ec 08	 sub	 esp, 8
  0090c	f2 0f 10 05 00
	00 00 00	 movsd	 xmm0, QWORD PTR __real@3fd3126ea0000000
  00914	f2 0f 11 04 24	 movsd	 QWORD PTR [esp], xmm0
  00919	6a 59		 push	 89			; 00000059H
  0091b	f3 0f 5a 45 f4	 cvtss2sd xmm0, DWORD PTR _y1$[ebp]
  00920	83 ec 08	 sub	 esp, 8
  00923	f2 0f 11 04 24	 movsd	 QWORD PTR [esp], xmm0
  00928	f3 0f 5a 45 f8	 cvtss2sd xmm0, DWORD PTR _x1$[ebp]
  0092d	83 ec 08	 sub	 esp, 8
  00930	f2 0f 11 04 24	 movsd	 QWORD PTR [esp], xmm0
  00935	6a 58		 push	 88			; 00000058H
  00937	8b 0d 00 00 00
	00		 mov	 ecx, DWORD PTR ?vortex_ring_area@@3PAUUI_OBJECT@@A ; vortex_ring_area
  0093d	51		 push	 ecx
  0093e	6a 32		 push	 50			; 00000032H
  00940	6a 01		 push	 1
  00942	e8 00 00 00 00	 call	 ?create_ui_object@@YAPAUUI_OBJECT@@HZZ ; create_ui_object
  00947	83 c4 68	 add	 esp, 104		; 00000068H
  0094a	8b 55 fc	 mov	 edx, DWORD PTR _i$[ebp]
  0094d	89 44 95 cc	 mov	 DWORD PTR _title_change_array$[ebp+edx*4], eax

; 402  : 	(
; 403  : 		UI_TYPE_AREA,
; 404  : 		UI_ATTR_PARENT (vortex_ring_area),
; 405  : 		UI_ATTR_VIRTUAL_POSITION (x1, y1),
; 406  : 		UI_ATTR_VIRTUAL_SIZE (OPTION_BOX_WIDTH, OPTION_BOX_HEIGHT),
; 407  : 		UI_ATTR_COLOUR_START ( 255, 255, 255, 0 ),
; 408  : 		UI_ATTR_COLOUR_END ( 255, 255, 255, 255 ),
; 409  : 		UI_ATTR_TEXTURE_GRAPHIC (options_box_large),
; 410  : 		UI_ATTR_END
; 411  : 	);
; 412  : 
; 413  :    check_array[i] = create_ui_object

  00951	6a 11		 push	 17			; 00000011H
  00953	68 00 00 00 00	 push	 OFFSET ??_C@_0M@OHJLGJDD@Vortex?5Ring@
  00958	e8 00 00 00 00	 call	 ?get_trans@@YGPBDPBD@Z	; get_trans
  0095d	50		 push	 eax
  0095e	6a 4a		 push	 74			; 0000004aH
  00960	6a 02		 push	 2
  00962	6a 4b		 push	 75			; 0000004bH
  00964	68 ff 00 00 00	 push	 255			; 000000ffH
  00969	0f b6 05 00 00
	00 00		 movzx	 eax, BYTE PTR ?ui_option_title_text_colour@@3UREAL_COLOUR@@A
  00970	50		 push	 eax
  00971	0f b6 0d 01 00
	00 00		 movzx	 ecx, BYTE PTR ?ui_option_title_text_colour@@3UREAL_COLOUR@@A+1
  00978	51		 push	 ecx
  00979	0f b6 15 02 00
	00 00		 movzx	 edx, BYTE PTR ?ui_option_title_text_colour@@3UREAL_COLOUR@@A+2
  00980	52		 push	 edx
  00981	6a 14		 push	 20			; 00000014H
  00983	6a 00		 push	 0
  00985	0f b6 05 00 00
	00 00		 movzx	 eax, BYTE PTR ?ui_option_title_text_colour@@3UREAL_COLOUR@@A
  0098c	50		 push	 eax
  0098d	0f b6 0d 01 00
	00 00		 movzx	 ecx, BYTE PTR ?ui_option_title_text_colour@@3UREAL_COLOUR@@A+1
  00994	51		 push	 ecx
  00995	0f b6 15 02 00
	00 00		 movzx	 edx, BYTE PTR ?ui_option_title_text_colour@@3UREAL_COLOUR@@A+2
  0099c	52		 push	 edx
  0099d	6a 15		 push	 21			; 00000015H
  0099f	6a 06		 push	 6
  009a1	6a 12		 push	 18			; 00000012H
  009a3	83 ec 08	 sub	 esp, 8
  009a6	f2 0f 10 05 00
	00 00 00	 movsd	 xmm0, QWORD PTR __real@3ff0000000000000
  009ae	f2 0f 11 04 24	 movsd	 QWORD PTR [esp], xmm0
  009b3	83 ec 08	 sub	 esp, 8
  009b6	f2 0f 10 05 00
	00 00 00	 movsd	 xmm0, QWORD PTR __real@3ff0000000000000
  009be	f2 0f 11 04 24	 movsd	 QWORD PTR [esp], xmm0
  009c3	6a 59		 push	 89			; 00000059H
  009c5	83 ec 08	 sub	 esp, 8
  009c8	f2 0f 10 05 00
	00 00 00	 movsd	 xmm0, QWORD PTR __real@3fc24dd300000000
  009d0	f2 0f 11 04 24	 movsd	 QWORD PTR [esp], xmm0
  009d5	83 ec 08	 sub	 esp, 8
  009d8	f2 0f 10 05 00
	00 00 00	 movsd	 xmm0, QWORD PTR __real@3fee666660000000
  009e0	f2 0f 11 04 24	 movsd	 QWORD PTR [esp], xmm0
  009e5	6a 58		 push	 88			; 00000058H
  009e7	8b 45 fc	 mov	 eax, DWORD PTR _i$[ebp]
  009ea	8b 4c 85 cc	 mov	 ecx, DWORD PTR _title_change_array$[ebp+eax*4]
  009ee	51		 push	 ecx
  009ef	6a 32		 push	 50			; 00000032H
  009f1	6a 05		 push	 5
  009f3	e8 00 00 00 00	 call	 ?create_ui_object@@YAPAUUI_OBJECT@@HZZ ; create_ui_object
  009f8	83 c4 78	 add	 esp, 120		; 00000078H
  009fb	8b 55 fc	 mov	 edx, DWORD PTR _i$[ebp]
  009fe	89 44 95 b0	 mov	 DWORD PTR _check_array$[ebp+edx*4], eax

; 414  : 	(
; 415  : 		UI_TYPE_TEXT,
; 416  : 		UI_ATTR_PARENT (title_change_array[i]),
; 417  : 		UI_ATTR_VIRTUAL_POSITION (OPTION_BOX_TEXT_OFFSET_X, OPTION_BOX_TEXT_OFFSET_Y),
; 418  : 		UI_ATTR_VIRTUAL_SIZE (1.0, 1.0),
; 419  : 		UI_ATTR_FONT_TYPE (UI_FONT_THICK_ARIAL_18),
; 420  :       UI_ATTR_FONT_COLOUR_START (ui_option_title_text_colour.r, ui_option_title_text_colour.g, ui_option_title_text_colour.b, 0),
; 421  :       UI_ATTR_FONT_COLOUR_END (ui_option_title_text_colour.r, ui_option_title_text_colour.g, ui_option_title_text_colour.b, 255),
; 422  : 		UI_ATTR_TEXT_JUSTIFY (TEXT_JUSTIFY_RIGHT_CENTRE),
; 423  : 		UI_ATTR_TEXT (get_trans ("Vortex Ring")),
; 424  : 		UI_ATTR_END
; 425  : 	);
; 426  : 
; 427  : 	preprocess_translation_object_size (title_change_array [i], check_array [i], NULL, 0, RESIZE_OPTION_BOX_TITLE);

  00a02	6a 00		 push	 0
  00a04	6a 00		 push	 0
  00a06	6a 00		 push	 0
  00a08	8b 45 fc	 mov	 eax, DWORD PTR _i$[ebp]
  00a0b	8b 4c 85 b0	 mov	 ecx, DWORD PTR _check_array$[ebp+eax*4]
  00a0f	51		 push	 ecx
  00a10	8b 55 fc	 mov	 edx, DWORD PTR _i$[ebp]
  00a13	8b 44 95 cc	 mov	 eax, DWORD PTR _title_change_array$[ebp+edx*4]
  00a17	50		 push	 eax
  00a18	e8 00 00 00 00	 call	 ?preprocess_translation_object_size@@YGXPAUUI_OBJECT@@0PAPBDHW4RESIZE_UI_OBJECT_TYPES@@@Z ; preprocess_translation_object_size

; 428  : 
; 429  : 	// Wind
; 430  : 
; 431  : 	i++;

  00a1d	8b 45 fc	 mov	 eax, DWORD PTR _i$[ebp]
  00a20	83 c0 01	 add	 eax, 1
  00a23	89 45 fc	 mov	 DWORD PTR _i$[ebp], eax

; 432  : 	x1 = 0.0; 

  00a26	0f 57 c0	 xorps	 xmm0, xmm0
  00a29	f3 0f 11 45 f8	 movss	 DWORD PTR _x1$[ebp], xmm0

; 433  : 	y1 = OPTION_TITLE_OFFSET_Y + OPTION_AREA_OFFSET_Y * i;

  00a2e	f3 0f 2a 45 fc	 cvtsi2ss xmm0, DWORD PTR _i$[ebp]
  00a33	f3 0f 59 05 00
	00 00 00	 mulss	 xmm0, DWORD PTR __real@3d7df3b6
  00a3b	f3 0f 58 05 00
	00 00 00	 addss	 xmm0, DWORD PTR __real@3e851eb8
  00a43	f3 0f 11 45 f4	 movss	 DWORD PTR _y1$[ebp], xmm0

; 434  : 
; 435  :    wind_area = create_ui_object

  00a48	6a 11		 push	 17			; 00000011H
  00a4a	6a 01		 push	 1
  00a4c	6a 07		 push	 7
  00a4e	83 ec 08	 sub	 esp, 8
  00a51	f2 0f 10 05 00
	00 00 00	 movsd	 xmm0, QWORD PTR __real@3fadb22d00000000
  00a59	f2 0f 11 04 24	 movsd	 QWORD PTR [esp], xmm0
  00a5e	83 ec 08	 sub	 esp, 8
  00a61	f2 0f 10 05 00
	00 00 00	 movsd	 xmm0, QWORD PTR __real@3ff0000000000000
  00a69	f2 0f 11 04 24	 movsd	 QWORD PTR [esp], xmm0
  00a6e	6a 59		 push	 89			; 00000059H
  00a70	f3 0f 5a 45 f4	 cvtss2sd xmm0, DWORD PTR _y1$[ebp]
  00a75	83 ec 08	 sub	 esp, 8
  00a78	f2 0f 11 04 24	 movsd	 QWORD PTR [esp], xmm0
  00a7d	f3 0f 5a 45 f8	 cvtss2sd xmm0, DWORD PTR _x1$[ebp]
  00a82	83 ec 08	 sub	 esp, 8
  00a85	f2 0f 11 04 24	 movsd	 QWORD PTR [esp], xmm0
  00a8a	6a 58		 push	 88			; 00000058H
  00a8c	8b 45 e8	 mov	 eax, DWORD PTR _page$[ebp]
  00a8f	50		 push	 eax
  00a90	6a 32		 push	 50			; 00000032H
  00a92	6a 01		 push	 1
  00a94	e8 00 00 00 00	 call	 ?create_ui_object@@YAPAUUI_OBJECT@@HZZ ; create_ui_object
  00a99	83 c4 40	 add	 esp, 64			; 00000040H
  00a9c	a3 00 00 00 00	 mov	 DWORD PTR ?wind_area@@3PAUUI_OBJECT@@A, eax ; wind_area

; 436  : 										(
; 437  : 											UI_TYPE_AREA,
; 438  : 											UI_ATTR_PARENT ( page ),
; 439  : 											UI_ATTR_VIRTUAL_POSITION (x1, y1),
; 440  : 											UI_ATTR_VIRTUAL_SIZE (OPTION_AREA_WIDTH, OPTION_AREA_HEIGHT),
; 441  : 											UI_ATTR_CLEAR (TRUE),
; 442  : 											UI_ATTR_END
; 443  : 										);
; 444  : 
; 445  : 	x1 = OPTION_TITLE_OFFSET_X;

  00aa1	f3 0f 10 05 00
	00 00 00	 movss	 xmm0, DWORD PTR __real@3def9db2
  00aa9	f3 0f 11 45 f8	 movss	 DWORD PTR _x1$[ebp], xmm0

; 446  : 	y1 = 0.0; 

  00aae	0f 57 c0	 xorps	 xmm0, xmm0
  00ab1	f3 0f 11 45 f4	 movss	 DWORD PTR _y1$[ebp], xmm0

; 447  : 
; 448  : 	title_change_array[i] = create_ui_object

  00ab6	6a 11		 push	 17			; 00000011H
  00ab8	a1 00 00 00 00	 mov	 eax, DWORD PTR ?options_box_large@@3PAUTEXTURE_GRAPHIC@@A ; options_box_large
  00abd	50		 push	 eax
  00abe	6a 4c		 push	 76			; 0000004cH
  00ac0	68 ff 00 00 00	 push	 255			; 000000ffH
  00ac5	68 ff 00 00 00	 push	 255			; 000000ffH
  00aca	68 ff 00 00 00	 push	 255			; 000000ffH
  00acf	68 ff 00 00 00	 push	 255			; 000000ffH
  00ad4	6a 0a		 push	 10			; 0000000aH
  00ad6	6a 00		 push	 0
  00ad8	68 ff 00 00 00	 push	 255			; 000000ffH
  00add	68 ff 00 00 00	 push	 255			; 000000ffH
  00ae2	68 ff 00 00 00	 push	 255			; 000000ffH
  00ae7	6a 0b		 push	 11			; 0000000bH
  00ae9	83 ec 08	 sub	 esp, 8
  00aec	f2 0f 10 05 00
	00 00 00	 movsd	 xmm0, QWORD PTR __real@3ff0000000000000
  00af4	f2 0f 11 04 24	 movsd	 QWORD PTR [esp], xmm0
  00af9	83 ec 08	 sub	 esp, 8
  00afc	f2 0f 10 05 00
	00 00 00	 movsd	 xmm0, QWORD PTR __real@3fd3126ea0000000
  00b04	f2 0f 11 04 24	 movsd	 QWORD PTR [esp], xmm0
  00b09	6a 59		 push	 89			; 00000059H
  00b0b	f3 0f 5a 45 f4	 cvtss2sd xmm0, DWORD PTR _y1$[ebp]
  00b10	83 ec 08	 sub	 esp, 8
  00b13	f2 0f 11 04 24	 movsd	 QWORD PTR [esp], xmm0
  00b18	f3 0f 5a 45 f8	 cvtss2sd xmm0, DWORD PTR _x1$[ebp]
  00b1d	83 ec 08	 sub	 esp, 8
  00b20	f2 0f 11 04 24	 movsd	 QWORD PTR [esp], xmm0
  00b25	6a 58		 push	 88			; 00000058H
  00b27	8b 0d 00 00 00
	00		 mov	 ecx, DWORD PTR ?wind_area@@3PAUUI_OBJECT@@A ; wind_area
  00b2d	51		 push	 ecx
  00b2e	6a 32		 push	 50			; 00000032H
  00b30	6a 01		 push	 1
  00b32	e8 00 00 00 00	 call	 ?create_ui_object@@YAPAUUI_OBJECT@@HZZ ; create_ui_object
  00b37	83 c4 68	 add	 esp, 104		; 00000068H
  00b3a	8b 55 fc	 mov	 edx, DWORD PTR _i$[ebp]
  00b3d	89 44 95 cc	 mov	 DWORD PTR _title_change_array$[ebp+edx*4], eax

; 449  : 	(
; 450  : 		UI_TYPE_AREA,
; 451  : 		UI_ATTR_PARENT (wind_area),
; 452  : 		UI_ATTR_VIRTUAL_POSITION (x1, y1),
; 453  : 		UI_ATTR_VIRTUAL_SIZE (OPTION_BOX_WIDTH, OPTION_BOX_HEIGHT),
; 454  : 		UI_ATTR_COLOUR_START ( 255, 255, 255, 0 ),
; 455  : 		UI_ATTR_COLOUR_END ( 255, 255, 255, 255 ),
; 456  : 		UI_ATTR_TEXTURE_GRAPHIC (options_box_large),
; 457  : 		UI_ATTR_END
; 458  : 	);
; 459  : 
; 460  :    check_array[i] = create_ui_object

  00b41	6a 11		 push	 17			; 00000011H
  00b43	68 00 00 00 00	 push	 OFFSET ??_C@_04LGBIOLDJ@Wind@
  00b48	e8 00 00 00 00	 call	 ?get_trans@@YGPBDPBD@Z	; get_trans
  00b4d	50		 push	 eax
  00b4e	6a 4a		 push	 74			; 0000004aH
  00b50	6a 02		 push	 2
  00b52	6a 4b		 push	 75			; 0000004bH
  00b54	68 ff 00 00 00	 push	 255			; 000000ffH
  00b59	0f b6 05 00 00
	00 00		 movzx	 eax, BYTE PTR ?ui_option_title_text_colour@@3UREAL_COLOUR@@A
  00b60	50		 push	 eax
  00b61	0f b6 0d 01 00
	00 00		 movzx	 ecx, BYTE PTR ?ui_option_title_text_colour@@3UREAL_COLOUR@@A+1
  00b68	51		 push	 ecx
  00b69	0f b6 15 02 00
	00 00		 movzx	 edx, BYTE PTR ?ui_option_title_text_colour@@3UREAL_COLOUR@@A+2
  00b70	52		 push	 edx
  00b71	6a 14		 push	 20			; 00000014H
  00b73	6a 00		 push	 0
  00b75	0f b6 05 00 00
	00 00		 movzx	 eax, BYTE PTR ?ui_option_title_text_colour@@3UREAL_COLOUR@@A
  00b7c	50		 push	 eax
  00b7d	0f b6 0d 01 00
	00 00		 movzx	 ecx, BYTE PTR ?ui_option_title_text_colour@@3UREAL_COLOUR@@A+1
  00b84	51		 push	 ecx
  00b85	0f b6 15 02 00
	00 00		 movzx	 edx, BYTE PTR ?ui_option_title_text_colour@@3UREAL_COLOUR@@A+2
  00b8c	52		 push	 edx
  00b8d	6a 15		 push	 21			; 00000015H
  00b8f	6a 06		 push	 6
  00b91	6a 12		 push	 18			; 00000012H
  00b93	83 ec 08	 sub	 esp, 8
  00b96	f2 0f 10 05 00
	00 00 00	 movsd	 xmm0, QWORD PTR __real@3fc24dd300000000
  00b9e	f2 0f 11 04 24	 movsd	 QWORD PTR [esp], xmm0
  00ba3	83 ec 08	 sub	 esp, 8
  00ba6	f2 0f 10 05 00
	00 00 00	 movsd	 xmm0, QWORD PTR __real@3fee666660000000
  00bae	f2 0f 11 04 24	 movsd	 QWORD PTR [esp], xmm0
  00bb3	6a 58		 push	 88			; 00000058H
  00bb5	8b 45 fc	 mov	 eax, DWORD PTR _i$[ebp]
  00bb8	8b 4c 85 cc	 mov	 ecx, DWORD PTR _title_change_array$[ebp+eax*4]
  00bbc	51		 push	 ecx
  00bbd	6a 32		 push	 50			; 00000032H
  00bbf	6a 05		 push	 5
  00bc1	e8 00 00 00 00	 call	 ?create_ui_object@@YAPAUUI_OBJECT@@HZZ ; create_ui_object
  00bc6	83 c4 64	 add	 esp, 100		; 00000064H
  00bc9	8b 55 fc	 mov	 edx, DWORD PTR _i$[ebp]
  00bcc	89 44 95 b0	 mov	 DWORD PTR _check_array$[ebp+edx*4], eax

; 461  : 	(
; 462  : 		UI_TYPE_TEXT,
; 463  : 		UI_ATTR_PARENT (title_change_array[i]),
; 464  : 		UI_ATTR_VIRTUAL_POSITION (OPTION_BOX_TEXT_OFFSET_X, OPTION_BOX_TEXT_OFFSET_Y),
; 465  : 		UI_ATTR_FONT_TYPE (UI_FONT_THICK_ARIAL_18),
; 466  :       UI_ATTR_FONT_COLOUR_START (ui_option_title_text_colour.r, ui_option_title_text_colour.g, ui_option_title_text_colour.b, 0),
; 467  :       UI_ATTR_FONT_COLOUR_END (ui_option_title_text_colour.r, ui_option_title_text_colour.g, ui_option_title_text_colour.b, 255),
; 468  : 		UI_ATTR_TEXT_JUSTIFY (TEXT_JUSTIFY_RIGHT_CENTRE),
; 469  : 		UI_ATTR_TEXT (get_trans ("Wind")),
; 470  : 		UI_ATTR_END
; 471  : 	);
; 472  : 
; 473  : 	preprocess_translation_object_size (title_change_array [i], check_array [i], NULL, 0, RESIZE_OPTION_BOX_TITLE);

  00bd0	6a 00		 push	 0
  00bd2	6a 00		 push	 0
  00bd4	6a 00		 push	 0
  00bd6	8b 45 fc	 mov	 eax, DWORD PTR _i$[ebp]
  00bd9	8b 4c 85 b0	 mov	 ecx, DWORD PTR _check_array$[ebp+eax*4]
  00bdd	51		 push	 ecx
  00bde	8b 55 fc	 mov	 edx, DWORD PTR _i$[ebp]
  00be1	8b 44 95 cc	 mov	 eax, DWORD PTR _title_change_array$[ebp+edx*4]
  00be5	50		 push	 eax
  00be6	e8 00 00 00 00	 call	 ?preprocess_translation_object_size@@YGXPAUUI_OBJECT@@0PAPBDHW4RESIZE_UI_OBJECT_TYPES@@@Z ; preprocess_translation_object_size

; 474  : 
; 475  : 	// transitional_lift
; 476  : 
; 477  : 	i++;

  00beb	8b 45 fc	 mov	 eax, DWORD PTR _i$[ebp]
  00bee	83 c0 01	 add	 eax, 1
  00bf1	89 45 fc	 mov	 DWORD PTR _i$[ebp], eax

; 478  : 	x1 = 0.0; 

  00bf4	0f 57 c0	 xorps	 xmm0, xmm0
  00bf7	f3 0f 11 45 f8	 movss	 DWORD PTR _x1$[ebp], xmm0

; 479  : 	y1 = OPTION_TITLE_OFFSET_Y + OPTION_AREA_OFFSET_Y * i;

  00bfc	f3 0f 2a 45 fc	 cvtsi2ss xmm0, DWORD PTR _i$[ebp]
  00c01	f3 0f 59 05 00
	00 00 00	 mulss	 xmm0, DWORD PTR __real@3d7df3b6
  00c09	f3 0f 58 05 00
	00 00 00	 addss	 xmm0, DWORD PTR __real@3e851eb8
  00c11	f3 0f 11 45 f4	 movss	 DWORD PTR _y1$[ebp], xmm0

; 480  : 
; 481  :    transitional_lift_area = create_ui_object

  00c16	6a 11		 push	 17			; 00000011H
  00c18	6a 01		 push	 1
  00c1a	6a 07		 push	 7
  00c1c	83 ec 08	 sub	 esp, 8
  00c1f	f2 0f 10 05 00
	00 00 00	 movsd	 xmm0, QWORD PTR __real@3fadb22d00000000
  00c27	f2 0f 11 04 24	 movsd	 QWORD PTR [esp], xmm0
  00c2c	83 ec 08	 sub	 esp, 8
  00c2f	f2 0f 10 05 00
	00 00 00	 movsd	 xmm0, QWORD PTR __real@3ff0000000000000
  00c37	f2 0f 11 04 24	 movsd	 QWORD PTR [esp], xmm0
  00c3c	6a 59		 push	 89			; 00000059H
  00c3e	f3 0f 5a 45 f4	 cvtss2sd xmm0, DWORD PTR _y1$[ebp]
  00c43	83 ec 08	 sub	 esp, 8
  00c46	f2 0f 11 04 24	 movsd	 QWORD PTR [esp], xmm0
  00c4b	f3 0f 5a 45 f8	 cvtss2sd xmm0, DWORD PTR _x1$[ebp]
  00c50	83 ec 08	 sub	 esp, 8
  00c53	f2 0f 11 04 24	 movsd	 QWORD PTR [esp], xmm0
  00c58	6a 58		 push	 88			; 00000058H
  00c5a	8b 45 e8	 mov	 eax, DWORD PTR _page$[ebp]
  00c5d	50		 push	 eax
  00c5e	6a 32		 push	 50			; 00000032H
  00c60	6a 01		 push	 1
  00c62	e8 00 00 00 00	 call	 ?create_ui_object@@YAPAUUI_OBJECT@@HZZ ; create_ui_object
  00c67	83 c4 40	 add	 esp, 64			; 00000040H
  00c6a	a3 00 00 00 00	 mov	 DWORD PTR ?transitional_lift_area@@3PAUUI_OBJECT@@A, eax ; transitional_lift_area

; 482  : 										(
; 483  : 											UI_TYPE_AREA,
; 484  : 											UI_ATTR_PARENT ( page ),
; 485  : 											UI_ATTR_VIRTUAL_POSITION (x1, y1),
; 486  : 											UI_ATTR_VIRTUAL_SIZE (OPTION_AREA_WIDTH, OPTION_AREA_HEIGHT),
; 487  : 											UI_ATTR_CLEAR (TRUE),
; 488  : 											UI_ATTR_END
; 489  : 										);
; 490  : 
; 491  : 	x1 = OPTION_TITLE_OFFSET_X;

  00c6f	f3 0f 10 05 00
	00 00 00	 movss	 xmm0, DWORD PTR __real@3def9db2
  00c77	f3 0f 11 45 f8	 movss	 DWORD PTR _x1$[ebp], xmm0

; 492  : 	y1 = 0.0; 

  00c7c	0f 57 c0	 xorps	 xmm0, xmm0
  00c7f	f3 0f 11 45 f4	 movss	 DWORD PTR _y1$[ebp], xmm0

; 493  : 
; 494  : 	title_change_array[i] = create_ui_object

  00c84	6a 11		 push	 17			; 00000011H
  00c86	a1 00 00 00 00	 mov	 eax, DWORD PTR ?options_box_large@@3PAUTEXTURE_GRAPHIC@@A ; options_box_large
  00c8b	50		 push	 eax
  00c8c	6a 4c		 push	 76			; 0000004cH
  00c8e	68 ff 00 00 00	 push	 255			; 000000ffH
  00c93	68 ff 00 00 00	 push	 255			; 000000ffH
  00c98	68 ff 00 00 00	 push	 255			; 000000ffH
  00c9d	68 ff 00 00 00	 push	 255			; 000000ffH
  00ca2	6a 0a		 push	 10			; 0000000aH
  00ca4	6a 00		 push	 0
  00ca6	68 ff 00 00 00	 push	 255			; 000000ffH
  00cab	68 ff 00 00 00	 push	 255			; 000000ffH
  00cb0	68 ff 00 00 00	 push	 255			; 000000ffH
  00cb5	6a 0b		 push	 11			; 0000000bH
  00cb7	83 ec 08	 sub	 esp, 8
  00cba	f2 0f 10 05 00
	00 00 00	 movsd	 xmm0, QWORD PTR __real@3ff0000000000000
  00cc2	f2 0f 11 04 24	 movsd	 QWORD PTR [esp], xmm0
  00cc7	83 ec 08	 sub	 esp, 8
  00cca	f2 0f 10 05 00
	00 00 00	 movsd	 xmm0, QWORD PTR __real@3fd3126ea0000000
  00cd2	f2 0f 11 04 24	 movsd	 QWORD PTR [esp], xmm0
  00cd7	6a 59		 push	 89			; 00000059H
  00cd9	f3 0f 5a 45 f4	 cvtss2sd xmm0, DWORD PTR _y1$[ebp]
  00cde	83 ec 08	 sub	 esp, 8
  00ce1	f2 0f 11 04 24	 movsd	 QWORD PTR [esp], xmm0
  00ce6	f3 0f 5a 45 f8	 cvtss2sd xmm0, DWORD PTR _x1$[ebp]
  00ceb	83 ec 08	 sub	 esp, 8
  00cee	f2 0f 11 04 24	 movsd	 QWORD PTR [esp], xmm0
  00cf3	6a 58		 push	 88			; 00000058H
  00cf5	8b 0d 00 00 00
	00		 mov	 ecx, DWORD PTR ?transitional_lift_area@@3PAUUI_OBJECT@@A ; transitional_lift_area
  00cfb	51		 push	 ecx
  00cfc	6a 32		 push	 50			; 00000032H
  00cfe	6a 01		 push	 1
  00d00	e8 00 00 00 00	 call	 ?create_ui_object@@YAPAUUI_OBJECT@@HZZ ; create_ui_object
  00d05	83 c4 68	 add	 esp, 104		; 00000068H
  00d08	8b 55 fc	 mov	 edx, DWORD PTR _i$[ebp]
  00d0b	89 44 95 cc	 mov	 DWORD PTR _title_change_array$[ebp+edx*4], eax

; 495  : 	(
; 496  : 		UI_TYPE_AREA,
; 497  : 		UI_ATTR_PARENT (transitional_lift_area),
; 498  : 		UI_ATTR_VIRTUAL_POSITION (x1, y1),
; 499  : 		UI_ATTR_VIRTUAL_SIZE (OPTION_BOX_WIDTH, OPTION_BOX_HEIGHT),
; 500  : 		UI_ATTR_COLOUR_START ( 255, 255, 255, 0 ),
; 501  : 		UI_ATTR_COLOUR_END ( 255, 255, 255, 255 ),
; 502  : 		UI_ATTR_TEXTURE_GRAPHIC (options_box_large),
; 503  : 		UI_ATTR_END
; 504  : 	);
; 505  : 
; 506  :    check_array[i] = create_ui_object

  00d0f	6a 11		 push	 17			; 00000011H
  00d11	68 00 00 00 00	 push	 OFFSET ??_C@_0BC@KDKBAAAO@Transitional?5Lift@
  00d16	e8 00 00 00 00	 call	 ?get_trans@@YGPBDPBD@Z	; get_trans
  00d1b	50		 push	 eax
  00d1c	6a 4a		 push	 74			; 0000004aH
  00d1e	6a 02		 push	 2
  00d20	6a 4b		 push	 75			; 0000004bH
  00d22	68 ff 00 00 00	 push	 255			; 000000ffH
  00d27	0f b6 05 00 00
	00 00		 movzx	 eax, BYTE PTR ?ui_option_title_text_colour@@3UREAL_COLOUR@@A
  00d2e	50		 push	 eax
  00d2f	0f b6 0d 01 00
	00 00		 movzx	 ecx, BYTE PTR ?ui_option_title_text_colour@@3UREAL_COLOUR@@A+1
  00d36	51		 push	 ecx
  00d37	0f b6 15 02 00
	00 00		 movzx	 edx, BYTE PTR ?ui_option_title_text_colour@@3UREAL_COLOUR@@A+2
  00d3e	52		 push	 edx
  00d3f	6a 14		 push	 20			; 00000014H
  00d41	6a 00		 push	 0
  00d43	0f b6 05 00 00
	00 00		 movzx	 eax, BYTE PTR ?ui_option_title_text_colour@@3UREAL_COLOUR@@A
  00d4a	50		 push	 eax
  00d4b	0f b6 0d 01 00
	00 00		 movzx	 ecx, BYTE PTR ?ui_option_title_text_colour@@3UREAL_COLOUR@@A+1
  00d52	51		 push	 ecx
  00d53	0f b6 15 02 00
	00 00		 movzx	 edx, BYTE PTR ?ui_option_title_text_colour@@3UREAL_COLOUR@@A+2
  00d5a	52		 push	 edx
  00d5b	6a 15		 push	 21			; 00000015H
  00d5d	6a 06		 push	 6
  00d5f	6a 12		 push	 18			; 00000012H
  00d61	83 ec 08	 sub	 esp, 8
  00d64	f2 0f 10 05 00
	00 00 00	 movsd	 xmm0, QWORD PTR __real@3fc24dd300000000
  00d6c	f2 0f 11 04 24	 movsd	 QWORD PTR [esp], xmm0
  00d71	83 ec 08	 sub	 esp, 8
  00d74	f2 0f 10 05 00
	00 00 00	 movsd	 xmm0, QWORD PTR __real@3fee666660000000
  00d7c	f2 0f 11 04 24	 movsd	 QWORD PTR [esp], xmm0
  00d81	6a 58		 push	 88			; 00000058H
  00d83	8b 45 fc	 mov	 eax, DWORD PTR _i$[ebp]
  00d86	8b 4c 85 cc	 mov	 ecx, DWORD PTR _title_change_array$[ebp+eax*4]
  00d8a	51		 push	 ecx
  00d8b	6a 32		 push	 50			; 00000032H
  00d8d	6a 05		 push	 5
  00d8f	e8 00 00 00 00	 call	 ?create_ui_object@@YAPAUUI_OBJECT@@HZZ ; create_ui_object
  00d94	83 c4 64	 add	 esp, 100		; 00000064H
  00d97	8b 55 fc	 mov	 edx, DWORD PTR _i$[ebp]
  00d9a	89 44 95 b0	 mov	 DWORD PTR _check_array$[ebp+edx*4], eax

; 507  : 	(
; 508  : 		UI_TYPE_TEXT,
; 509  : 		UI_ATTR_PARENT (title_change_array[i]),
; 510  : 		UI_ATTR_VIRTUAL_POSITION (OPTION_BOX_TEXT_OFFSET_X, OPTION_BOX_TEXT_OFFSET_Y),
; 511  : 		UI_ATTR_FONT_TYPE (UI_FONT_THICK_ARIAL_18),
; 512  :       UI_ATTR_FONT_COLOUR_START (ui_option_title_text_colour.r, ui_option_title_text_colour.g, ui_option_title_text_colour.b, 0),
; 513  :       UI_ATTR_FONT_COLOUR_END (ui_option_title_text_colour.r, ui_option_title_text_colour.g, ui_option_title_text_colour.b, 255),
; 514  : 		UI_ATTR_TEXT_JUSTIFY (TEXT_JUSTIFY_RIGHT_CENTRE),
; 515  : 		UI_ATTR_TEXT (get_trans ("Transitional Lift")),
; 516  : 		UI_ATTR_END
; 517  : 	);
; 518  : 
; 519  : 	preprocess_translation_object_size (title_change_array [i], check_array [i], NULL, 0, RESIZE_OPTION_BOX_TITLE);

  00d9e	6a 00		 push	 0
  00da0	6a 00		 push	 0
  00da2	6a 00		 push	 0
  00da4	8b 45 fc	 mov	 eax, DWORD PTR _i$[ebp]
  00da7	8b 4c 85 b0	 mov	 ecx, DWORD PTR _check_array$[ebp+eax*4]
  00dab	51		 push	 ecx
  00dac	8b 55 fc	 mov	 edx, DWORD PTR _i$[ebp]
  00daf	8b 44 95 cc	 mov	 eax, DWORD PTR _title_change_array$[ebp+edx*4]
  00db3	50		 push	 eax
  00db4	e8 00 00 00 00	 call	 ?preprocess_translation_object_size@@YGXPAUUI_OBJECT@@0PAPBDHW4RESIZE_UI_OBJECT_TYPES@@@Z ; preprocess_translation_object_size

; 520  : 
; 521  : 
; 522  : 	/////////////////////////////////////////////////////////////////
; 523  : 	// Buttons
; 524  : 
; 525  : 	i = 0;

  00db9	c7 45 fc 00 00
	00 00		 mov	 DWORD PTR _i$[ebp], 0

; 526  : 	
; 527  : 	//blade_stall
; 528  : 	
; 529  : 	change_array[i] = create_ui_object

  00dc0	6a 11		 push	 17			; 00000011H
  00dc2	a1 00 00 00 00	 mov	 eax, DWORD PTR ?options_box_small@@3PAUTEXTURE_GRAPHIC@@A ; options_box_small
  00dc7	50		 push	 eax
  00dc8	6a 4c		 push	 76			; 0000004cH
  00dca	68 ff 00 00 00	 push	 255			; 000000ffH
  00dcf	68 ff 00 00 00	 push	 255			; 000000ffH
  00dd4	68 ff 00 00 00	 push	 255			; 000000ffH
  00dd9	68 ff 00 00 00	 push	 255			; 000000ffH
  00dde	6a 0a		 push	 10			; 0000000aH
  00de0	6a 00		 push	 0
  00de2	68 ff 00 00 00	 push	 255			; 000000ffH
  00de7	68 ff 00 00 00	 push	 255			; 000000ffH
  00dec	68 ff 00 00 00	 push	 255			; 000000ffH
  00df1	6a 0b		 push	 11			; 0000000bH
  00df3	83 ec 08	 sub	 esp, 8
  00df6	f2 0f 10 05 00
	00 00 00	 movsd	 xmm0, QWORD PTR __real@3ff0000000000000
  00dfe	f2 0f 11 04 24	 movsd	 QWORD PTR [esp], xmm0
  00e03	83 ec 08	 sub	 esp, 8
  00e06	f2 0f 10 05 00
	00 00 00	 movsd	 xmm0, QWORD PTR __real@3fbba5e360000000
  00e0e	f2 0f 11 04 24	 movsd	 QWORD PTR [esp], xmm0
  00e13	6a 59		 push	 89			; 00000059H
  00e15	83 ec 08	 sub	 esp, 8
  00e18	0f 57 c0	 xorps	 xmm0, xmm0
  00e1b	f2 0f 11 04 24	 movsd	 QWORD PTR [esp], xmm0
  00e20	8b 4d fc	 mov	 ecx, DWORD PTR _i$[ebp]
  00e23	8b 54 8d cc	 mov	 edx, DWORD PTR _title_change_array$[ebp+ecx*4]
  00e27	52		 push	 edx
  00e28	8b 45 fc	 mov	 eax, DWORD PTR _i$[ebp]
  00e2b	8b 4c 85 cc	 mov	 ecx, DWORD PTR _title_change_array$[ebp+eax*4]
  00e2f	8b 11		 mov	 edx, DWORD PTR [ecx]
  00e31	8b 04 95 00 00
	00 00		 mov	 eax, DWORD PTR ?fn_get_ui_object_x_end@@3PAP6GMPAUUI_OBJECT@@@ZA[edx*4]
  00e38	ff d0		 call	 eax
  00e3a	d9 9d 50 ff ff
	ff		 fstp	 DWORD PTR tv2090[ebp]
  00e40	f3 0f 10 85 50
	ff ff ff	 movss	 xmm0, DWORD PTR tv2090[ebp]
  00e48	8b 4d fc	 mov	 ecx, DWORD PTR _i$[ebp]
  00e4b	8b 54 8d cc	 mov	 edx, DWORD PTR _title_change_array$[ebp+ecx*4]
  00e4f	52		 push	 edx
  00e50	8b 45 fc	 mov	 eax, DWORD PTR _i$[ebp]
  00e53	8b 4c 85 cc	 mov	 ecx, DWORD PTR _title_change_array$[ebp+eax*4]
  00e57	8b 11		 mov	 edx, DWORD PTR [ecx]
  00e59	8b 04 95 00 00
	00 00		 mov	 eax, DWORD PTR ?fn_get_ui_object_x_size_end@@3PAP6GMPAUUI_OBJECT@@@ZA[edx*4]
  00e60	f3 0f 11 85 4c
	ff ff ff	 movss	 DWORD PTR tv2392[ebp], xmm0
  00e68	ff d0		 call	 eax
  00e6a	d9 9d 48 ff ff
	ff		 fstp	 DWORD PTR tv2098[ebp]
  00e70	f3 0f 10 85 4c
	ff ff ff	 movss	 xmm0, DWORD PTR tv2392[ebp]
  00e78	f3 0f 58 85 48
	ff ff ff	 addss	 xmm0, DWORD PTR tv2098[ebp]
  00e80	f3 0f 58 05 00
	00 00 00	 addss	 xmm0, DWORD PTR __real@3b2a64c3
  00e88	f3 0f 5a c0	 cvtss2sd xmm0, xmm0
  00e8c	83 ec 08	 sub	 esp, 8
  00e8f	f2 0f 11 04 24	 movsd	 QWORD PTR [esp], xmm0
  00e94	6a 58		 push	 88			; 00000058H
  00e96	8b 0d 00 00 00
	00		 mov	 ecx, DWORD PTR ?blade_stall_area@@3PAUUI_OBJECT@@A ; blade_stall_area
  00e9c	51		 push	 ecx
  00e9d	6a 32		 push	 50			; 00000032H
  00e9f	6a 01		 push	 1
  00ea1	e8 00 00 00 00	 call	 ?create_ui_object@@YAPAUUI_OBJECT@@HZZ ; create_ui_object
  00ea6	83 c4 68	 add	 esp, 104		; 00000068H
  00ea9	8b 55 fc	 mov	 edx, DWORD PTR _i$[ebp]
  00eac	89 44 95 94	 mov	 DWORD PTR _change_array$[ebp+edx*4], eax

; 530  : 	(
; 531  : 		UI_TYPE_AREA,
; 532  : 		UI_ATTR_PARENT (blade_stall_area),
; 533  : 		UI_ATTR_VIRTUAL_POSITION ((get_ui_object_x_end (title_change_array [i]) + get_ui_object_x_size_end (title_change_array [i]) + OPTION_BOX_GAP_WIDTH), 0.0),
; 534  : 		UI_ATTR_VIRTUAL_SIZE (OPTION_BOX_SMALL_WIDTH, OPTION_BOX_HEIGHT),
; 535  : 		UI_ATTR_COLOUR_START ( 255, 255, 255, 0 ),
; 536  : 		UI_ATTR_COLOUR_END ( 255, 255, 255, 255 ),
; 537  : 		UI_ATTR_TEXTURE_GRAPHIC (options_box_small),
; 538  : 		UI_ATTR_END
; 539  : 	);
; 540  : 
; 541  :    blade_stall_option_button = create_ui_object

  00eb0	6a 11		 push	 17			; 00000011H
  00eb2	68 00 00 00 00	 push	 OFFSET ?notify_blade_stall_option_button@@YGXPAUUI_OBJECT@@PAX@Z ; notify_blade_stall_option_button
  00eb7	6a 16		 push	 22			; 00000016H
  00eb9	6a 01		 push	 1
  00ebb	6a 2f		 push	 47			; 0000002fH
  00ebd	6a 01		 push	 1
  00ebf	6a 07		 push	 7
  00ec1	6a 01		 push	 1
  00ec3	6a 1b		 push	 27			; 0000001bH
  00ec5	68 ff 00 00 00	 push	 255			; 000000ffH
  00eca	0f b6 05 00 00
	00 00		 movzx	 eax, BYTE PTR ?ui_option_text_hilite_colour@@3UREAL_COLOUR@@A
  00ed1	50		 push	 eax
  00ed2	0f b6 0d 01 00
	00 00		 movzx	 ecx, BYTE PTR ?ui_option_text_hilite_colour@@3UREAL_COLOUR@@A+1
  00ed9	51		 push	 ecx
  00eda	0f b6 15 02 00
	00 00		 movzx	 edx, BYTE PTR ?ui_option_text_hilite_colour@@3UREAL_COLOUR@@A+2
  00ee1	52		 push	 edx
  00ee2	6a 22		 push	 34			; 00000022H
  00ee4	6a 00		 push	 0
  00ee6	0f b6 05 00 00
	00 00		 movzx	 eax, BYTE PTR ?ui_option_text_hilite_colour@@3UREAL_COLOUR@@A
  00eed	50		 push	 eax
  00eee	0f b6 0d 01 00
	00 00		 movzx	 ecx, BYTE PTR ?ui_option_text_hilite_colour@@3UREAL_COLOUR@@A+1
  00ef5	51		 push	 ecx
  00ef6	0f b6 15 02 00
	00 00		 movzx	 edx, BYTE PTR ?ui_option_text_hilite_colour@@3UREAL_COLOUR@@A+2
  00efd	52		 push	 edx
  00efe	6a 23		 push	 35			; 00000023H
  00f00	68 ff 00 00 00	 push	 255			; 000000ffH
  00f05	0f b6 05 00 00
	00 00		 movzx	 eax, BYTE PTR ?ui_option_text_default_colour@@3UREAL_COLOUR@@A
  00f0c	50		 push	 eax
  00f0d	0f b6 0d 01 00
	00 00		 movzx	 ecx, BYTE PTR ?ui_option_text_default_colour@@3UREAL_COLOUR@@A+1
  00f14	51		 push	 ecx
  00f15	0f b6 15 02 00
	00 00		 movzx	 edx, BYTE PTR ?ui_option_text_default_colour@@3UREAL_COLOUR@@A+2
  00f1c	52		 push	 edx
  00f1d	6a 14		 push	 20			; 00000014H
  00f1f	6a 00		 push	 0
  00f21	0f b6 05 00 00
	00 00		 movzx	 eax, BYTE PTR ?ui_option_text_default_colour@@3UREAL_COLOUR@@A
  00f28	50		 push	 eax
  00f29	0f b6 0d 01 00
	00 00		 movzx	 ecx, BYTE PTR ?ui_option_text_default_colour@@3UREAL_COLOUR@@A+1
  00f30	51		 push	 ecx
  00f31	0f b6 15 02 00
	00 00		 movzx	 edx, BYTE PTR ?ui_option_text_default_colour@@3UREAL_COLOUR@@A+2
  00f38	52		 push	 edx
  00f39	6a 15		 push	 21			; 00000015H
  00f3b	68 00 00 00 00	 push	 OFFSET ??_C@_00CNPNBAHC@@
  00f40	6a 4a		 push	 74			; 0000004aH
  00f42	6a 01		 push	 1
  00f44	6a 4b		 push	 75			; 0000004bH
  00f46	83 ec 08	 sub	 esp, 8
  00f49	f2 0f 10 05 00
	00 00 00	 movsd	 xmm0, QWORD PTR __real@3fc24dd300000000
  00f51	f2 0f 11 04 24	 movsd	 QWORD PTR [esp], xmm0
  00f56	8b 45 fc	 mov	 eax, DWORD PTR _i$[ebp]
  00f59	8b 4c 85 94	 mov	 ecx, DWORD PTR _change_array$[ebp+eax*4]
  00f5d	51		 push	 ecx
  00f5e	8b 55 fc	 mov	 edx, DWORD PTR _i$[ebp]
  00f61	8b 44 95 94	 mov	 eax, DWORD PTR _change_array$[ebp+edx*4]
  00f65	8b 08		 mov	 ecx, DWORD PTR [eax]
  00f67	8b 14 8d 00 00
	00 00		 mov	 edx, DWORD PTR ?fn_get_ui_object_x_end@@3PAP6GMPAUUI_OBJECT@@@ZA[ecx*4]
  00f6e	ff d2		 call	 edx
  00f70	d9 9d 50 ff ff
	ff		 fstp	 DWORD PTR tv2117[ebp]
  00f76	f3 0f 10 85 50
	ff ff ff	 movss	 xmm0, DWORD PTR tv2117[ebp]
  00f7e	f3 0f 58 05 00
	00 00 00	 addss	 xmm0, DWORD PTR __real@3c03126f
  00f86	f3 0f 5a c0	 cvtss2sd xmm0, xmm0
  00f8a	83 ec 08	 sub	 esp, 8
  00f8d	f2 0f 11 04 24	 movsd	 QWORD PTR [esp], xmm0
  00f92	6a 58		 push	 88			; 00000058H
  00f94	68 ff 00 00 00	 push	 255			; 000000ffH
  00f99	6a 2f		 push	 47			; 0000002fH
  00f9b	6a 7c		 push	 124			; 0000007cH
  00f9d	68 fe 00 00 00	 push	 254			; 000000feH
  00fa2	6a 13		 push	 19			; 00000013H
  00fa4	6a 08		 push	 8
  00fa6	6a 12		 push	 18			; 00000012H
  00fa8	a1 00 00 00 00	 mov	 eax, DWORD PTR ?blade_stall_area@@3PAUUI_OBJECT@@A ; blade_stall_area
  00fad	50		 push	 eax
  00fae	6a 32		 push	 50			; 00000032H
  00fb0	6a 05		 push	 5
  00fb2	e8 00 00 00 00	 call	 ?create_ui_object@@YAPAUUI_OBJECT@@HZZ ; create_ui_object
  00fb7	81 c4 c0 00 00
	00		 add	 esp, 192		; 000000c0H
  00fbd	a3 00 00 00 00	 mov	 DWORD PTR ?blade_stall_option_button@@3PAUUI_OBJECT@@A, eax ; blade_stall_option_button

; 542  : 	(
; 543  : 		UI_TYPE_TEXT,
; 544  : 		UI_ATTR_PARENT (blade_stall_area),
; 545  : 		UI_ATTR_FONT_TYPE (UI_FONT_THICK_ITALIC_ARIAL_18),
; 546  : 		UI_ATTR_FONT_COLOUR (254, 124, 47, 255),
; 547  : 		UI_ATTR_VIRTUAL_POSITION (get_ui_object_x_end (change_array [i]) + OPTION_BUTTON_TEXT_OFFSET_X, OPTION_BOX_TEXT_OFFSET_Y),
; 548  : 		UI_ATTR_TEXT_JUSTIFY (TEXT_JUSTIFY_LEFT_CENTRE),
; 549  : 		UI_ATTR_TEXT (""),
; 550  :       UI_ATTR_FONT_COLOUR_START (ui_option_text_default_colour.r, ui_option_text_default_colour.g, ui_option_text_default_colour.b, 0),
; 551  :       UI_ATTR_FONT_COLOUR_END (ui_option_text_default_colour.r, ui_option_text_default_colour.g, ui_option_text_default_colour.b, 255),
; 552  :       UI_ATTR_HIGHLIGHTED_FONT_COLOUR_START (ui_option_text_hilite_colour.r, ui_option_text_hilite_colour.g, ui_option_text_hilite_colour.b, 0),
; 553  :       UI_ATTR_HIGHLIGHTED_FONT_COLOUR_END (ui_option_text_hilite_colour.r, ui_option_text_hilite_colour.g, ui_option_text_hilite_colour.b, 255),
; 554  : 		UI_ATTR_HIGHLIGHTABLE (TRUE),
; 555  : 		UI_ATTR_CLEAR (TRUE),
; 556  : 		UI_ATTR_NOTIFY_ON (NOTIFY_TYPE_BUTTON_UP),
; 557  : 		UI_ATTR_FUNCTION (notify_blade_stall_option_button),
; 558  : 		UI_ATTR_END
; 559  : 	);
; 560  : 
; 561  : 	preprocess_translation_object_size (change_array [i], blade_stall_option_button, option_boolean_text, 2, RESIZE_OPTION_CYCLE_BUTTON);

  00fc2	6a 01		 push	 1
  00fc4	6a 02		 push	 2
  00fc6	68 00 00 00 00	 push	 OFFSET ?option_boolean_text@@3PAPBDA
  00fcb	a1 00 00 00 00	 mov	 eax, DWORD PTR ?blade_stall_option_button@@3PAUUI_OBJECT@@A ; blade_stall_option_button
  00fd0	50		 push	 eax
  00fd1	8b 4d fc	 mov	 ecx, DWORD PTR _i$[ebp]
  00fd4	8b 54 8d 94	 mov	 edx, DWORD PTR _change_array$[ebp+ecx*4]
  00fd8	52		 push	 edx
  00fd9	e8 00 00 00 00	 call	 ?preprocess_translation_object_size@@YGXPAUUI_OBJECT@@0PAPBDHW4RESIZE_UI_OBJECT_TYPES@@@Z ; preprocess_translation_object_size

; 562  : 
; 563  : 	#if DEBUG_MODULE
; 564  : 		debug_filtered_log ("x_pos_end: %f  x_size_end: %f text_offset: %f", get_ui_object_x_end (change_array [i]), get_ui_object_x_size_end (change_array [i]), OPTION_BUTTON_TEXT_OFFSET_X);
; 565  : 	#endif
; 566  : 	
; 567  : 	//cross_couple_option_button
; 568  : 	
; 569  : 	i++;

  00fde	8b 45 fc	 mov	 eax, DWORD PTR _i$[ebp]
  00fe1	83 c0 01	 add	 eax, 1
  00fe4	89 45 fc	 mov	 DWORD PTR _i$[ebp], eax

; 570  : 
; 571  : 	change_array[i] = create_ui_object

  00fe7	6a 11		 push	 17			; 00000011H
  00fe9	a1 00 00 00 00	 mov	 eax, DWORD PTR ?options_box_small@@3PAUTEXTURE_GRAPHIC@@A ; options_box_small
  00fee	50		 push	 eax
  00fef	6a 4c		 push	 76			; 0000004cH
  00ff1	68 ff 00 00 00	 push	 255			; 000000ffH
  00ff6	68 ff 00 00 00	 push	 255			; 000000ffH
  00ffb	68 ff 00 00 00	 push	 255			; 000000ffH
  01000	68 ff 00 00 00	 push	 255			; 000000ffH
  01005	6a 0a		 push	 10			; 0000000aH
  01007	6a 00		 push	 0
  01009	68 ff 00 00 00	 push	 255			; 000000ffH
  0100e	68 ff 00 00 00	 push	 255			; 000000ffH
  01013	68 ff 00 00 00	 push	 255			; 000000ffH
  01018	6a 0b		 push	 11			; 0000000bH
  0101a	83 ec 08	 sub	 esp, 8
  0101d	f2 0f 10 05 00
	00 00 00	 movsd	 xmm0, QWORD PTR __real@3ff0000000000000
  01025	f2 0f 11 04 24	 movsd	 QWORD PTR [esp], xmm0
  0102a	83 ec 08	 sub	 esp, 8
  0102d	f2 0f 10 05 00
	00 00 00	 movsd	 xmm0, QWORD PTR __real@3fbba5e360000000
  01035	f2 0f 11 04 24	 movsd	 QWORD PTR [esp], xmm0
  0103a	6a 59		 push	 89			; 00000059H
  0103c	83 ec 08	 sub	 esp, 8
  0103f	0f 57 c0	 xorps	 xmm0, xmm0
  01042	f2 0f 11 04 24	 movsd	 QWORD PTR [esp], xmm0
  01047	8b 4d fc	 mov	 ecx, DWORD PTR _i$[ebp]
  0104a	8b 54 8d cc	 mov	 edx, DWORD PTR _title_change_array$[ebp+ecx*4]
  0104e	52		 push	 edx
  0104f	8b 45 fc	 mov	 eax, DWORD PTR _i$[ebp]
  01052	8b 4c 85 cc	 mov	 ecx, DWORD PTR _title_change_array$[ebp+eax*4]
  01056	8b 11		 mov	 edx, DWORD PTR [ecx]
  01058	8b 04 95 00 00
	00 00		 mov	 eax, DWORD PTR ?fn_get_ui_object_x_end@@3PAP6GMPAUUI_OBJECT@@@ZA[edx*4]
  0105f	ff d0		 call	 eax
  01061	d9 9d 50 ff ff
	ff		 fstp	 DWORD PTR tv2134[ebp]
  01067	f3 0f 10 85 50
	ff ff ff	 movss	 xmm0, DWORD PTR tv2134[ebp]
  0106f	8b 4d fc	 mov	 ecx, DWORD PTR _i$[ebp]
  01072	8b 54 8d cc	 mov	 edx, DWORD PTR _title_change_array$[ebp+ecx*4]
  01076	52		 push	 edx
  01077	8b 45 fc	 mov	 eax, DWORD PTR _i$[ebp]
  0107a	8b 4c 85 cc	 mov	 ecx, DWORD PTR _title_change_array$[ebp+eax*4]
  0107e	8b 11		 mov	 edx, DWORD PTR [ecx]
  01080	8b 04 95 00 00
	00 00		 mov	 eax, DWORD PTR ?fn_get_ui_object_x_size_end@@3PAP6GMPAUUI_OBJECT@@@ZA[edx*4]
  01087	f3 0f 11 85 4c
	ff ff ff	 movss	 DWORD PTR tv2394[ebp], xmm0
  0108f	ff d0		 call	 eax
  01091	d9 9d 48 ff ff
	ff		 fstp	 DWORD PTR tv2142[ebp]
  01097	f3 0f 10 85 4c
	ff ff ff	 movss	 xmm0, DWORD PTR tv2394[ebp]
  0109f	f3 0f 58 85 48
	ff ff ff	 addss	 xmm0, DWORD PTR tv2142[ebp]
  010a7	f3 0f 58 05 00
	00 00 00	 addss	 xmm0, DWORD PTR __real@3b2a64c3
  010af	f3 0f 5a c0	 cvtss2sd xmm0, xmm0
  010b3	83 ec 08	 sub	 esp, 8
  010b6	f2 0f 11 04 24	 movsd	 QWORD PTR [esp], xmm0
  010bb	6a 58		 push	 88			; 00000058H
  010bd	8b 0d 00 00 00
	00		 mov	 ecx, DWORD PTR ?cross_couple_area@@3PAUUI_OBJECT@@A ; cross_couple_area
  010c3	51		 push	 ecx
  010c4	6a 32		 push	 50			; 00000032H
  010c6	6a 01		 push	 1
  010c8	e8 00 00 00 00	 call	 ?create_ui_object@@YAPAUUI_OBJECT@@HZZ ; create_ui_object
  010cd	83 c4 68	 add	 esp, 104		; 00000068H
  010d0	8b 55 fc	 mov	 edx, DWORD PTR _i$[ebp]
  010d3	89 44 95 94	 mov	 DWORD PTR _change_array$[ebp+edx*4], eax

; 572  : 	(
; 573  : 		UI_TYPE_AREA,
; 574  : 		UI_ATTR_PARENT (cross_couple_area),
; 575  : 		UI_ATTR_VIRTUAL_POSITION ((get_ui_object_x_end (title_change_array [i]) + get_ui_object_x_size_end (title_change_array [i]) + OPTION_BOX_GAP_WIDTH), 0.0),
; 576  : 		UI_ATTR_VIRTUAL_SIZE (OPTION_BOX_SMALL_WIDTH, OPTION_BOX_HEIGHT),
; 577  : 		UI_ATTR_COLOUR_START ( 255, 255, 255, 0 ),
; 578  : 		UI_ATTR_COLOUR_END ( 255, 255, 255, 255 ),
; 579  : 		UI_ATTR_TEXTURE_GRAPHIC (options_box_small),
; 580  : 		UI_ATTR_END
; 581  : 	);
; 582  : 
; 583  :    cross_couple_option_button = create_ui_object

  010d7	6a 11		 push	 17			; 00000011H
  010d9	68 00 00 00 00	 push	 OFFSET ?notify_cross_couple_option_button@@YGXPAUUI_OBJECT@@PAX@Z ; notify_cross_couple_option_button
  010de	6a 16		 push	 22			; 00000016H
  010e0	6a 01		 push	 1
  010e2	6a 2f		 push	 47			; 0000002fH
  010e4	6a 01		 push	 1
  010e6	6a 07		 push	 7
  010e8	6a 01		 push	 1
  010ea	6a 1b		 push	 27			; 0000001bH
  010ec	68 ff 00 00 00	 push	 255			; 000000ffH
  010f1	0f b6 05 00 00
	00 00		 movzx	 eax, BYTE PTR ?ui_option_text_hilite_colour@@3UREAL_COLOUR@@A
  010f8	50		 push	 eax
  010f9	0f b6 0d 01 00
	00 00		 movzx	 ecx, BYTE PTR ?ui_option_text_hilite_colour@@3UREAL_COLOUR@@A+1
  01100	51		 push	 ecx
  01101	0f b6 15 02 00
	00 00		 movzx	 edx, BYTE PTR ?ui_option_text_hilite_colour@@3UREAL_COLOUR@@A+2
  01108	52		 push	 edx
  01109	6a 22		 push	 34			; 00000022H
  0110b	6a 00		 push	 0
  0110d	0f b6 05 00 00
	00 00		 movzx	 eax, BYTE PTR ?ui_option_text_hilite_colour@@3UREAL_COLOUR@@A
  01114	50		 push	 eax
  01115	0f b6 0d 01 00
	00 00		 movzx	 ecx, BYTE PTR ?ui_option_text_hilite_colour@@3UREAL_COLOUR@@A+1
  0111c	51		 push	 ecx
  0111d	0f b6 15 02 00
	00 00		 movzx	 edx, BYTE PTR ?ui_option_text_hilite_colour@@3UREAL_COLOUR@@A+2
  01124	52		 push	 edx
  01125	6a 23		 push	 35			; 00000023H
  01127	68 ff 00 00 00	 push	 255			; 000000ffH
  0112c	0f b6 05 00 00
	00 00		 movzx	 eax, BYTE PTR ?ui_option_text_default_colour@@3UREAL_COLOUR@@A
  01133	50		 push	 eax
  01134	0f b6 0d 01 00
	00 00		 movzx	 ecx, BYTE PTR ?ui_option_text_default_colour@@3UREAL_COLOUR@@A+1
  0113b	51		 push	 ecx
  0113c	0f b6 15 02 00
	00 00		 movzx	 edx, BYTE PTR ?ui_option_text_default_colour@@3UREAL_COLOUR@@A+2
  01143	52		 push	 edx
  01144	6a 14		 push	 20			; 00000014H
  01146	6a 00		 push	 0
  01148	0f b6 05 00 00
	00 00		 movzx	 eax, BYTE PTR ?ui_option_text_default_colour@@3UREAL_COLOUR@@A
  0114f	50		 push	 eax
  01150	0f b6 0d 01 00
	00 00		 movzx	 ecx, BYTE PTR ?ui_option_text_default_colour@@3UREAL_COLOUR@@A+1
  01157	51		 push	 ecx
  01158	0f b6 15 02 00
	00 00		 movzx	 edx, BYTE PTR ?ui_option_text_default_colour@@3UREAL_COLOUR@@A+2
  0115f	52		 push	 edx
  01160	6a 15		 push	 21			; 00000015H
  01162	68 00 00 00 00	 push	 OFFSET ??_C@_00CNPNBAHC@@
  01167	6a 4a		 push	 74			; 0000004aH
  01169	6a 01		 push	 1
  0116b	6a 4b		 push	 75			; 0000004bH
  0116d	83 ec 08	 sub	 esp, 8
  01170	f2 0f 10 05 00
	00 00 00	 movsd	 xmm0, QWORD PTR __real@3fc24dd300000000
  01178	f2 0f 11 04 24	 movsd	 QWORD PTR [esp], xmm0
  0117d	8b 45 fc	 mov	 eax, DWORD PTR _i$[ebp]
  01180	8b 4c 85 94	 mov	 ecx, DWORD PTR _change_array$[ebp+eax*4]
  01184	51		 push	 ecx
  01185	8b 55 fc	 mov	 edx, DWORD PTR _i$[ebp]
  01188	8b 44 95 94	 mov	 eax, DWORD PTR _change_array$[ebp+edx*4]
  0118c	8b 08		 mov	 ecx, DWORD PTR [eax]
  0118e	8b 14 8d 00 00
	00 00		 mov	 edx, DWORD PTR ?fn_get_ui_object_x_end@@3PAP6GMPAUUI_OBJECT@@@ZA[ecx*4]
  01195	ff d2		 call	 edx
  01197	d9 9d 50 ff ff
	ff		 fstp	 DWORD PTR tv2161[ebp]
  0119d	f3 0f 10 85 50
	ff ff ff	 movss	 xmm0, DWORD PTR tv2161[ebp]
  011a5	f3 0f 58 05 00
	00 00 00	 addss	 xmm0, DWORD PTR __real@3c03126f
  011ad	f3 0f 5a c0	 cvtss2sd xmm0, xmm0
  011b1	83 ec 08	 sub	 esp, 8
  011b4	f2 0f 11 04 24	 movsd	 QWORD PTR [esp], xmm0
  011b9	6a 58		 push	 88			; 00000058H
  011bb	68 ff 00 00 00	 push	 255			; 000000ffH
  011c0	6a 2f		 push	 47			; 0000002fH
  011c2	6a 7c		 push	 124			; 0000007cH
  011c4	68 fe 00 00 00	 push	 254			; 000000feH
  011c9	6a 13		 push	 19			; 00000013H
  011cb	6a 08		 push	 8
  011cd	6a 12		 push	 18			; 00000012H
  011cf	a1 00 00 00 00	 mov	 eax, DWORD PTR ?cross_couple_area@@3PAUUI_OBJECT@@A ; cross_couple_area
  011d4	50		 push	 eax
  011d5	6a 32		 push	 50			; 00000032H
  011d7	6a 05		 push	 5
  011d9	e8 00 00 00 00	 call	 ?create_ui_object@@YAPAUUI_OBJECT@@HZZ ; create_ui_object
  011de	81 c4 c0 00 00
	00		 add	 esp, 192		; 000000c0H
  011e4	a3 00 00 00 00	 mov	 DWORD PTR ?cross_couple_option_button@@3PAUUI_OBJECT@@A, eax ; cross_couple_option_button

; 584  : 	(
; 585  : 		UI_TYPE_TEXT,
; 586  : 		UI_ATTR_PARENT (cross_couple_area),
; 587  : 		UI_ATTR_FONT_TYPE (UI_FONT_THICK_ITALIC_ARIAL_18),
; 588  : 		UI_ATTR_FONT_COLOUR (254, 124, 47, 255),
; 589  : 		UI_ATTR_VIRTUAL_POSITION (get_ui_object_x_end (change_array [i]) + OPTION_BUTTON_TEXT_OFFSET_X, OPTION_BOX_TEXT_OFFSET_Y),
; 590  : 		UI_ATTR_TEXT_JUSTIFY (TEXT_JUSTIFY_LEFT_CENTRE),
; 591  : 		UI_ATTR_TEXT (""),
; 592  :       UI_ATTR_FONT_COLOUR_START (ui_option_text_default_colour.r, ui_option_text_default_colour.g, ui_option_text_default_colour.b, 0),
; 593  :       UI_ATTR_FONT_COLOUR_END (ui_option_text_default_colour.r, ui_option_text_default_colour.g, ui_option_text_default_colour.b, 255),
; 594  :       UI_ATTR_HIGHLIGHTED_FONT_COLOUR_START (ui_option_text_hilite_colour.r, ui_option_text_hilite_colour.g, ui_option_text_hilite_colour.b, 0),
; 595  :       UI_ATTR_HIGHLIGHTED_FONT_COLOUR_END (ui_option_text_hilite_colour.r, ui_option_text_hilite_colour.g, ui_option_text_hilite_colour.b, 255),
; 596  : 		UI_ATTR_HIGHLIGHTABLE (TRUE),
; 597  : 		UI_ATTR_CLEAR (TRUE),
; 598  : 		UI_ATTR_NOTIFY_ON (NOTIFY_TYPE_BUTTON_UP),
; 599  : 		UI_ATTR_FUNCTION (notify_cross_couple_option_button),
; 600  : 		UI_ATTR_END
; 601  : 	);
; 602  : 
; 603  : 	preprocess_translation_object_size (change_array [i], cross_couple_option_button, option_boolean_text, 2, RESIZE_OPTION_CYCLE_BUTTON);

  011e9	6a 01		 push	 1
  011eb	6a 02		 push	 2
  011ed	68 00 00 00 00	 push	 OFFSET ?option_boolean_text@@3PAPBDA
  011f2	a1 00 00 00 00	 mov	 eax, DWORD PTR ?cross_couple_option_button@@3PAUUI_OBJECT@@A ; cross_couple_option_button
  011f7	50		 push	 eax
  011f8	8b 4d fc	 mov	 ecx, DWORD PTR _i$[ebp]
  011fb	8b 54 8d 94	 mov	 edx, DWORD PTR _change_array$[ebp+ecx*4]
  011ff	52		 push	 edx
  01200	e8 00 00 00 00	 call	 ?preprocess_translation_object_size@@YGXPAUUI_OBJECT@@0PAPBDHW4RESIZE_UI_OBJECT_TYPES@@@Z ; preprocess_translation_object_size

; 604  : 
; 605  : 	//ground effect
; 606  : 	
; 607  : 	i++;

  01205	8b 45 fc	 mov	 eax, DWORD PTR _i$[ebp]
  01208	83 c0 01	 add	 eax, 1
  0120b	89 45 fc	 mov	 DWORD PTR _i$[ebp], eax

; 608  : 
; 609  : 	change_array[i] = create_ui_object

  0120e	6a 11		 push	 17			; 00000011H
  01210	a1 00 00 00 00	 mov	 eax, DWORD PTR ?options_box_small@@3PAUTEXTURE_GRAPHIC@@A ; options_box_small
  01215	50		 push	 eax
  01216	6a 4c		 push	 76			; 0000004cH
  01218	68 ff 00 00 00	 push	 255			; 000000ffH
  0121d	68 ff 00 00 00	 push	 255			; 000000ffH
  01222	68 ff 00 00 00	 push	 255			; 000000ffH
  01227	68 ff 00 00 00	 push	 255			; 000000ffH
  0122c	6a 0a		 push	 10			; 0000000aH
  0122e	6a 00		 push	 0
  01230	68 ff 00 00 00	 push	 255			; 000000ffH
  01235	68 ff 00 00 00	 push	 255			; 000000ffH
  0123a	68 ff 00 00 00	 push	 255			; 000000ffH
  0123f	6a 0b		 push	 11			; 0000000bH
  01241	83 ec 08	 sub	 esp, 8
  01244	f2 0f 10 05 00
	00 00 00	 movsd	 xmm0, QWORD PTR __real@3ff0000000000000
  0124c	f2 0f 11 04 24	 movsd	 QWORD PTR [esp], xmm0
  01251	83 ec 08	 sub	 esp, 8
  01254	f2 0f 10 05 00
	00 00 00	 movsd	 xmm0, QWORD PTR __real@3fbba5e360000000
  0125c	f2 0f 11 04 24	 movsd	 QWORD PTR [esp], xmm0
  01261	6a 59		 push	 89			; 00000059H
  01263	83 ec 08	 sub	 esp, 8
  01266	0f 57 c0	 xorps	 xmm0, xmm0
  01269	f2 0f 11 04 24	 movsd	 QWORD PTR [esp], xmm0
  0126e	8b 4d fc	 mov	 ecx, DWORD PTR _i$[ebp]
  01271	8b 54 8d cc	 mov	 edx, DWORD PTR _title_change_array$[ebp+ecx*4]
  01275	52		 push	 edx
  01276	8b 45 fc	 mov	 eax, DWORD PTR _i$[ebp]
  01279	8b 4c 85 cc	 mov	 ecx, DWORD PTR _title_change_array$[ebp+eax*4]
  0127d	8b 11		 mov	 edx, DWORD PTR [ecx]
  0127f	8b 04 95 00 00
	00 00		 mov	 eax, DWORD PTR ?fn_get_ui_object_x_end@@3PAP6GMPAUUI_OBJECT@@@ZA[edx*4]
  01286	ff d0		 call	 eax
  01288	d9 9d 50 ff ff
	ff		 fstp	 DWORD PTR tv2178[ebp]
  0128e	f3 0f 10 85 50
	ff ff ff	 movss	 xmm0, DWORD PTR tv2178[ebp]
  01296	8b 4d fc	 mov	 ecx, DWORD PTR _i$[ebp]
  01299	8b 54 8d cc	 mov	 edx, DWORD PTR _title_change_array$[ebp+ecx*4]
  0129d	52		 push	 edx
  0129e	8b 45 fc	 mov	 eax, DWORD PTR _i$[ebp]
  012a1	8b 4c 85 cc	 mov	 ecx, DWORD PTR _title_change_array$[ebp+eax*4]
  012a5	8b 11		 mov	 edx, DWORD PTR [ecx]
  012a7	8b 04 95 00 00
	00 00		 mov	 eax, DWORD PTR ?fn_get_ui_object_x_size_end@@3PAP6GMPAUUI_OBJECT@@@ZA[edx*4]
  012ae	f3 0f 11 85 4c
	ff ff ff	 movss	 DWORD PTR tv2396[ebp], xmm0
  012b6	ff d0		 call	 eax
  012b8	d9 9d 48 ff ff
	ff		 fstp	 DWORD PTR tv2186[ebp]
  012be	f3 0f 10 85 4c
	ff ff ff	 movss	 xmm0, DWORD PTR tv2396[ebp]
  012c6	f3 0f 58 85 48
	ff ff ff	 addss	 xmm0, DWORD PTR tv2186[ebp]
  012ce	f3 0f 58 05 00
	00 00 00	 addss	 xmm0, DWORD PTR __real@3b2a64c3
  012d6	f3 0f 5a c0	 cvtss2sd xmm0, xmm0
  012da	83 ec 08	 sub	 esp, 8
  012dd	f2 0f 11 04 24	 movsd	 QWORD PTR [esp], xmm0
  012e2	6a 58		 push	 88			; 00000058H
  012e4	8b 0d 00 00 00
	00		 mov	 ecx, DWORD PTR ?ground_effect_area@@3PAUUI_OBJECT@@A ; ground_effect_area
  012ea	51		 push	 ecx
  012eb	6a 32		 push	 50			; 00000032H
  012ed	6a 01		 push	 1
  012ef	e8 00 00 00 00	 call	 ?create_ui_object@@YAPAUUI_OBJECT@@HZZ ; create_ui_object
  012f4	83 c4 68	 add	 esp, 104		; 00000068H
  012f7	8b 55 fc	 mov	 edx, DWORD PTR _i$[ebp]
  012fa	89 44 95 94	 mov	 DWORD PTR _change_array$[ebp+edx*4], eax

; 610  : 	(
; 611  : 		UI_TYPE_AREA,
; 612  : 		UI_ATTR_PARENT (ground_effect_area),
; 613  : 		UI_ATTR_VIRTUAL_POSITION ((get_ui_object_x_end (title_change_array [i]) + get_ui_object_x_size_end (title_change_array [i]) + OPTION_BOX_GAP_WIDTH), 0.0),
; 614  : 		UI_ATTR_VIRTUAL_SIZE (OPTION_BOX_SMALL_WIDTH, OPTION_BOX_HEIGHT),
; 615  : 		UI_ATTR_COLOUR_START ( 255, 255, 255, 0 ),
; 616  : 		UI_ATTR_COLOUR_END ( 255, 255, 255, 255 ),
; 617  : 		UI_ATTR_TEXTURE_GRAPHIC (options_box_small),
; 618  : 		UI_ATTR_END
; 619  : 	);
; 620  : 
; 621  :    ground_effect_option_button = create_ui_object

  012fe	6a 11		 push	 17			; 00000011H
  01300	68 00 00 00 00	 push	 OFFSET ?notify_ground_effect_option_button@@YGXPAUUI_OBJECT@@PAX@Z ; notify_ground_effect_option_button
  01305	6a 16		 push	 22			; 00000016H
  01307	6a 01		 push	 1
  01309	6a 2f		 push	 47			; 0000002fH
  0130b	6a 01		 push	 1
  0130d	6a 07		 push	 7
  0130f	6a 01		 push	 1
  01311	6a 1b		 push	 27			; 0000001bH
  01313	68 ff 00 00 00	 push	 255			; 000000ffH
  01318	0f b6 05 00 00
	00 00		 movzx	 eax, BYTE PTR ?ui_option_text_hilite_colour@@3UREAL_COLOUR@@A
  0131f	50		 push	 eax
  01320	0f b6 0d 01 00
	00 00		 movzx	 ecx, BYTE PTR ?ui_option_text_hilite_colour@@3UREAL_COLOUR@@A+1
  01327	51		 push	 ecx
  01328	0f b6 15 02 00
	00 00		 movzx	 edx, BYTE PTR ?ui_option_text_hilite_colour@@3UREAL_COLOUR@@A+2
  0132f	52		 push	 edx
  01330	6a 22		 push	 34			; 00000022H
  01332	6a 00		 push	 0
  01334	0f b6 05 00 00
	00 00		 movzx	 eax, BYTE PTR ?ui_option_text_hilite_colour@@3UREAL_COLOUR@@A
  0133b	50		 push	 eax
  0133c	0f b6 0d 01 00
	00 00		 movzx	 ecx, BYTE PTR ?ui_option_text_hilite_colour@@3UREAL_COLOUR@@A+1
  01343	51		 push	 ecx
  01344	0f b6 15 02 00
	00 00		 movzx	 edx, BYTE PTR ?ui_option_text_hilite_colour@@3UREAL_COLOUR@@A+2
  0134b	52		 push	 edx
  0134c	6a 23		 push	 35			; 00000023H
  0134e	68 ff 00 00 00	 push	 255			; 000000ffH
  01353	0f b6 05 00 00
	00 00		 movzx	 eax, BYTE PTR ?ui_option_text_default_colour@@3UREAL_COLOUR@@A
  0135a	50		 push	 eax
  0135b	0f b6 0d 01 00
	00 00		 movzx	 ecx, BYTE PTR ?ui_option_text_default_colour@@3UREAL_COLOUR@@A+1
  01362	51		 push	 ecx
  01363	0f b6 15 02 00
	00 00		 movzx	 edx, BYTE PTR ?ui_option_text_default_colour@@3UREAL_COLOUR@@A+2
  0136a	52		 push	 edx
  0136b	6a 14		 push	 20			; 00000014H
  0136d	6a 00		 push	 0
  0136f	0f b6 05 00 00
	00 00		 movzx	 eax, BYTE PTR ?ui_option_text_default_colour@@3UREAL_COLOUR@@A
  01376	50		 push	 eax
  01377	0f b6 0d 01 00
	00 00		 movzx	 ecx, BYTE PTR ?ui_option_text_default_colour@@3UREAL_COLOUR@@A+1
  0137e	51		 push	 ecx
  0137f	0f b6 15 02 00
	00 00		 movzx	 edx, BYTE PTR ?ui_option_text_default_colour@@3UREAL_COLOUR@@A+2
  01386	52		 push	 edx
  01387	6a 15		 push	 21			; 00000015H
  01389	68 00 00 00 00	 push	 OFFSET ??_C@_00CNPNBAHC@@
  0138e	6a 4a		 push	 74			; 0000004aH
  01390	6a 01		 push	 1
  01392	6a 4b		 push	 75			; 0000004bH
  01394	83 ec 08	 sub	 esp, 8
  01397	f2 0f 10 05 00
	00 00 00	 movsd	 xmm0, QWORD PTR __real@3fc24dd300000000
  0139f	f2 0f 11 04 24	 movsd	 QWORD PTR [esp], xmm0
  013a4	8b 45 fc	 mov	 eax, DWORD PTR _i$[ebp]
  013a7	8b 4c 85 94	 mov	 ecx, DWORD PTR _change_array$[ebp+eax*4]
  013ab	51		 push	 ecx
  013ac	8b 55 fc	 mov	 edx, DWORD PTR _i$[ebp]
  013af	8b 44 95 94	 mov	 eax, DWORD PTR _change_array$[ebp+edx*4]
  013b3	8b 08		 mov	 ecx, DWORD PTR [eax]
  013b5	8b 14 8d 00 00
	00 00		 mov	 edx, DWORD PTR ?fn_get_ui_object_x_end@@3PAP6GMPAUUI_OBJECT@@@ZA[ecx*4]
  013bc	ff d2		 call	 edx
  013be	d9 9d 50 ff ff
	ff		 fstp	 DWORD PTR tv2205[ebp]
  013c4	f3 0f 10 85 50
	ff ff ff	 movss	 xmm0, DWORD PTR tv2205[ebp]
  013cc	f3 0f 58 05 00
	00 00 00	 addss	 xmm0, DWORD PTR __real@3c03126f
  013d4	f3 0f 5a c0	 cvtss2sd xmm0, xmm0
  013d8	83 ec 08	 sub	 esp, 8
  013db	f2 0f 11 04 24	 movsd	 QWORD PTR [esp], xmm0
  013e0	6a 58		 push	 88			; 00000058H
  013e2	68 ff 00 00 00	 push	 255			; 000000ffH
  013e7	6a 2f		 push	 47			; 0000002fH
  013e9	6a 7c		 push	 124			; 0000007cH
  013eb	68 fe 00 00 00	 push	 254			; 000000feH
  013f0	6a 13		 push	 19			; 00000013H
  013f2	6a 08		 push	 8
  013f4	6a 12		 push	 18			; 00000012H
  013f6	a1 00 00 00 00	 mov	 eax, DWORD PTR ?ground_effect_area@@3PAUUI_OBJECT@@A ; ground_effect_area
  013fb	50		 push	 eax
  013fc	6a 32		 push	 50			; 00000032H
  013fe	6a 05		 push	 5
  01400	e8 00 00 00 00	 call	 ?create_ui_object@@YAPAUUI_OBJECT@@HZZ ; create_ui_object
  01405	81 c4 c0 00 00
	00		 add	 esp, 192		; 000000c0H
  0140b	a3 00 00 00 00	 mov	 DWORD PTR ?ground_effect_option_button@@3PAUUI_OBJECT@@A, eax ; ground_effect_option_button

; 622  : 	(
; 623  : 		UI_TYPE_TEXT,
; 624  : 		UI_ATTR_PARENT (ground_effect_area),
; 625  : 		UI_ATTR_FONT_TYPE (UI_FONT_THICK_ITALIC_ARIAL_18),
; 626  : 		UI_ATTR_FONT_COLOUR (254, 124, 47, 255),
; 627  : 		UI_ATTR_VIRTUAL_POSITION (get_ui_object_x_end (change_array [i]) + OPTION_BUTTON_TEXT_OFFSET_X, OPTION_BOX_TEXT_OFFSET_Y),
; 628  : 		UI_ATTR_TEXT_JUSTIFY (TEXT_JUSTIFY_LEFT_CENTRE),
; 629  : 		UI_ATTR_TEXT (""),
; 630  :       UI_ATTR_FONT_COLOUR_START (ui_option_text_default_colour.r, ui_option_text_default_colour.g, ui_option_text_default_colour.b, 0),
; 631  :       UI_ATTR_FONT_COLOUR_END (ui_option_text_default_colour.r, ui_option_text_default_colour.g, ui_option_text_default_colour.b, 255),
; 632  :       UI_ATTR_HIGHLIGHTED_FONT_COLOUR_START (ui_option_text_hilite_colour.r, ui_option_text_hilite_colour.g, ui_option_text_hilite_colour.b, 0),
; 633  :       UI_ATTR_HIGHLIGHTED_FONT_COLOUR_END (ui_option_text_hilite_colour.r, ui_option_text_hilite_colour.g, ui_option_text_hilite_colour.b, 255),
; 634  : 		UI_ATTR_HIGHLIGHTABLE (TRUE),
; 635  : 		UI_ATTR_CLEAR (TRUE),
; 636  : 		UI_ATTR_NOTIFY_ON (NOTIFY_TYPE_BUTTON_UP),
; 637  : 		UI_ATTR_FUNCTION (notify_ground_effect_option_button),
; 638  : 		UI_ATTR_END
; 639  : 	);
; 640  : 
; 641  : 	preprocess_translation_object_size (change_array [i], ground_effect_option_button, option_boolean_text, 2, RESIZE_OPTION_CYCLE_BUTTON);

  01410	6a 01		 push	 1
  01412	6a 02		 push	 2
  01414	68 00 00 00 00	 push	 OFFSET ?option_boolean_text@@3PAPBDA
  01419	a1 00 00 00 00	 mov	 eax, DWORD PTR ?ground_effect_option_button@@3PAUUI_OBJECT@@A ; ground_effect_option_button
  0141e	50		 push	 eax
  0141f	8b 4d fc	 mov	 ecx, DWORD PTR _i$[ebp]
  01422	8b 54 8d 94	 mov	 edx, DWORD PTR _change_array$[ebp+ecx*4]
  01426	52		 push	 edx
  01427	e8 00 00 00 00	 call	 ?preprocess_translation_object_size@@YGXPAUUI_OBJECT@@0PAPBDHW4RESIZE_UI_OBJECT_TYPES@@@Z ; preprocess_translation_object_size

; 642  : 
; 643  : 	// over_torque
; 644  : 	
; 645  : 	i++;

  0142c	8b 45 fc	 mov	 eax, DWORD PTR _i$[ebp]
  0142f	83 c0 01	 add	 eax, 1
  01432	89 45 fc	 mov	 DWORD PTR _i$[ebp], eax

; 646  : 
; 647  : 	change_array[i] = create_ui_object

  01435	6a 11		 push	 17			; 00000011H
  01437	a1 00 00 00 00	 mov	 eax, DWORD PTR ?options_box_small@@3PAUTEXTURE_GRAPHIC@@A ; options_box_small
  0143c	50		 push	 eax
  0143d	6a 4c		 push	 76			; 0000004cH
  0143f	68 ff 00 00 00	 push	 255			; 000000ffH
  01444	68 ff 00 00 00	 push	 255			; 000000ffH
  01449	68 ff 00 00 00	 push	 255			; 000000ffH
  0144e	68 ff 00 00 00	 push	 255			; 000000ffH
  01453	6a 0a		 push	 10			; 0000000aH
  01455	6a 00		 push	 0
  01457	68 ff 00 00 00	 push	 255			; 000000ffH
  0145c	68 ff 00 00 00	 push	 255			; 000000ffH
  01461	68 ff 00 00 00	 push	 255			; 000000ffH
  01466	6a 0b		 push	 11			; 0000000bH
  01468	83 ec 08	 sub	 esp, 8
  0146b	f2 0f 10 05 00
	00 00 00	 movsd	 xmm0, QWORD PTR __real@3ff0000000000000
  01473	f2 0f 11 04 24	 movsd	 QWORD PTR [esp], xmm0
  01478	83 ec 08	 sub	 esp, 8
  0147b	f2 0f 10 05 00
	00 00 00	 movsd	 xmm0, QWORD PTR __real@3fbba5e360000000
  01483	f2 0f 11 04 24	 movsd	 QWORD PTR [esp], xmm0
  01488	6a 59		 push	 89			; 00000059H
  0148a	83 ec 08	 sub	 esp, 8
  0148d	0f 57 c0	 xorps	 xmm0, xmm0
  01490	f2 0f 11 04 24	 movsd	 QWORD PTR [esp], xmm0
  01495	8b 4d fc	 mov	 ecx, DWORD PTR _i$[ebp]
  01498	8b 54 8d cc	 mov	 edx, DWORD PTR _title_change_array$[ebp+ecx*4]
  0149c	52		 push	 edx
  0149d	8b 45 fc	 mov	 eax, DWORD PTR _i$[ebp]
  014a0	8b 4c 85 cc	 mov	 ecx, DWORD PTR _title_change_array$[ebp+eax*4]
  014a4	8b 11		 mov	 edx, DWORD PTR [ecx]
  014a6	8b 04 95 00 00
	00 00		 mov	 eax, DWORD PTR ?fn_get_ui_object_x_end@@3PAP6GMPAUUI_OBJECT@@@ZA[edx*4]
  014ad	ff d0		 call	 eax
  014af	d9 9d 50 ff ff
	ff		 fstp	 DWORD PTR tv2222[ebp]
  014b5	f3 0f 10 85 50
	ff ff ff	 movss	 xmm0, DWORD PTR tv2222[ebp]
  014bd	8b 4d fc	 mov	 ecx, DWORD PTR _i$[ebp]
  014c0	8b 54 8d cc	 mov	 edx, DWORD PTR _title_change_array$[ebp+ecx*4]
  014c4	52		 push	 edx
  014c5	8b 45 fc	 mov	 eax, DWORD PTR _i$[ebp]
  014c8	8b 4c 85 cc	 mov	 ecx, DWORD PTR _title_change_array$[ebp+eax*4]
  014cc	8b 11		 mov	 edx, DWORD PTR [ecx]
  014ce	8b 04 95 00 00
	00 00		 mov	 eax, DWORD PTR ?fn_get_ui_object_x_size_end@@3PAP6GMPAUUI_OBJECT@@@ZA[edx*4]
  014d5	f3 0f 11 85 4c
	ff ff ff	 movss	 DWORD PTR tv2398[ebp], xmm0
  014dd	ff d0		 call	 eax
  014df	d9 9d 48 ff ff
	ff		 fstp	 DWORD PTR tv2230[ebp]
  014e5	f3 0f 10 85 4c
	ff ff ff	 movss	 xmm0, DWORD PTR tv2398[ebp]
  014ed	f3 0f 58 85 48
	ff ff ff	 addss	 xmm0, DWORD PTR tv2230[ebp]
  014f5	f3 0f 58 05 00
	00 00 00	 addss	 xmm0, DWORD PTR __real@3b2a64c3
  014fd	f3 0f 5a c0	 cvtss2sd xmm0, xmm0
  01501	83 ec 08	 sub	 esp, 8
  01504	f2 0f 11 04 24	 movsd	 QWORD PTR [esp], xmm0
  01509	6a 58		 push	 88			; 00000058H
  0150b	8b 0d 00 00 00
	00		 mov	 ecx, DWORD PTR ?over_torque_area@@3PAUUI_OBJECT@@A ; over_torque_area
  01511	51		 push	 ecx
  01512	6a 32		 push	 50			; 00000032H
  01514	6a 01		 push	 1
  01516	e8 00 00 00 00	 call	 ?create_ui_object@@YAPAUUI_OBJECT@@HZZ ; create_ui_object
  0151b	83 c4 68	 add	 esp, 104		; 00000068H
  0151e	8b 55 fc	 mov	 edx, DWORD PTR _i$[ebp]
  01521	89 44 95 94	 mov	 DWORD PTR _change_array$[ebp+edx*4], eax

; 648  : 	(
; 649  : 		UI_TYPE_AREA,
; 650  : 		UI_ATTR_PARENT (over_torque_area),
; 651  : 		UI_ATTR_VIRTUAL_POSITION ((get_ui_object_x_end (title_change_array [i]) + get_ui_object_x_size_end (title_change_array [i]) + OPTION_BOX_GAP_WIDTH), 0.0),
; 652  : 		UI_ATTR_VIRTUAL_SIZE (OPTION_BOX_SMALL_WIDTH, OPTION_BOX_HEIGHT),
; 653  : 		UI_ATTR_COLOUR_START ( 255, 255, 255, 0 ),
; 654  : 		UI_ATTR_COLOUR_END ( 255, 255, 255, 255 ),
; 655  : 		UI_ATTR_TEXTURE_GRAPHIC (options_box_small),
; 656  : 		UI_ATTR_END
; 657  : 	);
; 658  : 
; 659  :    over_torque_option_button = create_ui_object

  01525	6a 11		 push	 17			; 00000011H
  01527	68 00 00 00 00	 push	 OFFSET ?notify_over_torque_option_button@@YGXPAUUI_OBJECT@@PAX@Z ; notify_over_torque_option_button
  0152c	6a 16		 push	 22			; 00000016H
  0152e	6a 01		 push	 1
  01530	6a 2f		 push	 47			; 0000002fH
  01532	6a 01		 push	 1
  01534	6a 07		 push	 7
  01536	6a 01		 push	 1
  01538	6a 1b		 push	 27			; 0000001bH
  0153a	68 ff 00 00 00	 push	 255			; 000000ffH
  0153f	0f b6 05 00 00
	00 00		 movzx	 eax, BYTE PTR ?ui_option_text_hilite_colour@@3UREAL_COLOUR@@A
  01546	50		 push	 eax
  01547	0f b6 0d 01 00
	00 00		 movzx	 ecx, BYTE PTR ?ui_option_text_hilite_colour@@3UREAL_COLOUR@@A+1
  0154e	51		 push	 ecx
  0154f	0f b6 15 02 00
	00 00		 movzx	 edx, BYTE PTR ?ui_option_text_hilite_colour@@3UREAL_COLOUR@@A+2
  01556	52		 push	 edx
  01557	6a 22		 push	 34			; 00000022H
  01559	6a 00		 push	 0
  0155b	0f b6 05 00 00
	00 00		 movzx	 eax, BYTE PTR ?ui_option_text_hilite_colour@@3UREAL_COLOUR@@A
  01562	50		 push	 eax
  01563	0f b6 0d 01 00
	00 00		 movzx	 ecx, BYTE PTR ?ui_option_text_hilite_colour@@3UREAL_COLOUR@@A+1
  0156a	51		 push	 ecx
  0156b	0f b6 15 02 00
	00 00		 movzx	 edx, BYTE PTR ?ui_option_text_hilite_colour@@3UREAL_COLOUR@@A+2
  01572	52		 push	 edx
  01573	6a 23		 push	 35			; 00000023H
  01575	68 ff 00 00 00	 push	 255			; 000000ffH
  0157a	0f b6 05 00 00
	00 00		 movzx	 eax, BYTE PTR ?ui_option_text_default_colour@@3UREAL_COLOUR@@A
  01581	50		 push	 eax
  01582	0f b6 0d 01 00
	00 00		 movzx	 ecx, BYTE PTR ?ui_option_text_default_colour@@3UREAL_COLOUR@@A+1
  01589	51		 push	 ecx
  0158a	0f b6 15 02 00
	00 00		 movzx	 edx, BYTE PTR ?ui_option_text_default_colour@@3UREAL_COLOUR@@A+2
  01591	52		 push	 edx
  01592	6a 14		 push	 20			; 00000014H
  01594	6a 00		 push	 0
  01596	0f b6 05 00 00
	00 00		 movzx	 eax, BYTE PTR ?ui_option_text_default_colour@@3UREAL_COLOUR@@A
  0159d	50		 push	 eax
  0159e	0f b6 0d 01 00
	00 00		 movzx	 ecx, BYTE PTR ?ui_option_text_default_colour@@3UREAL_COLOUR@@A+1
  015a5	51		 push	 ecx
  015a6	0f b6 15 02 00
	00 00		 movzx	 edx, BYTE PTR ?ui_option_text_default_colour@@3UREAL_COLOUR@@A+2
  015ad	52		 push	 edx
  015ae	6a 15		 push	 21			; 00000015H
  015b0	68 00 00 00 00	 push	 OFFSET ??_C@_00CNPNBAHC@@
  015b5	6a 4a		 push	 74			; 0000004aH
  015b7	6a 01		 push	 1
  015b9	6a 4b		 push	 75			; 0000004bH
  015bb	83 ec 08	 sub	 esp, 8
  015be	f2 0f 10 05 00
	00 00 00	 movsd	 xmm0, QWORD PTR __real@3fc24dd300000000
  015c6	f2 0f 11 04 24	 movsd	 QWORD PTR [esp], xmm0
  015cb	8b 45 fc	 mov	 eax, DWORD PTR _i$[ebp]
  015ce	8b 4c 85 94	 mov	 ecx, DWORD PTR _change_array$[ebp+eax*4]
  015d2	51		 push	 ecx
  015d3	8b 55 fc	 mov	 edx, DWORD PTR _i$[ebp]
  015d6	8b 44 95 94	 mov	 eax, DWORD PTR _change_array$[ebp+edx*4]
  015da	8b 08		 mov	 ecx, DWORD PTR [eax]
  015dc	8b 14 8d 00 00
	00 00		 mov	 edx, DWORD PTR ?fn_get_ui_object_x_end@@3PAP6GMPAUUI_OBJECT@@@ZA[ecx*4]
  015e3	ff d2		 call	 edx
  015e5	d9 9d 50 ff ff
	ff		 fstp	 DWORD PTR tv2249[ebp]
  015eb	f3 0f 10 85 50
	ff ff ff	 movss	 xmm0, DWORD PTR tv2249[ebp]
  015f3	f3 0f 58 05 00
	00 00 00	 addss	 xmm0, DWORD PTR __real@3c03126f
  015fb	f3 0f 5a c0	 cvtss2sd xmm0, xmm0
  015ff	83 ec 08	 sub	 esp, 8
  01602	f2 0f 11 04 24	 movsd	 QWORD PTR [esp], xmm0
  01607	6a 58		 push	 88			; 00000058H
  01609	68 ff 00 00 00	 push	 255			; 000000ffH
  0160e	6a 2f		 push	 47			; 0000002fH
  01610	6a 7c		 push	 124			; 0000007cH
  01612	68 fe 00 00 00	 push	 254			; 000000feH
  01617	6a 13		 push	 19			; 00000013H
  01619	6a 08		 push	 8
  0161b	6a 12		 push	 18			; 00000012H
  0161d	a1 00 00 00 00	 mov	 eax, DWORD PTR ?over_torque_area@@3PAUUI_OBJECT@@A ; over_torque_area
  01622	50		 push	 eax
  01623	6a 32		 push	 50			; 00000032H
  01625	6a 05		 push	 5
  01627	e8 00 00 00 00	 call	 ?create_ui_object@@YAPAUUI_OBJECT@@HZZ ; create_ui_object
  0162c	81 c4 c0 00 00
	00		 add	 esp, 192		; 000000c0H
  01632	a3 00 00 00 00	 mov	 DWORD PTR ?over_torque_option_button@@3PAUUI_OBJECT@@A, eax ; over_torque_option_button

; 660  : 	(
; 661  : 		UI_TYPE_TEXT,
; 662  : 		UI_ATTR_PARENT (over_torque_area),
; 663  : 		UI_ATTR_FONT_TYPE (UI_FONT_THICK_ITALIC_ARIAL_18),
; 664  : 		UI_ATTR_FONT_COLOUR (254, 124, 47, 255),
; 665  : 		UI_ATTR_VIRTUAL_POSITION (get_ui_object_x_end (change_array [i]) + OPTION_BUTTON_TEXT_OFFSET_X, OPTION_BOX_TEXT_OFFSET_Y),
; 666  : 		UI_ATTR_TEXT_JUSTIFY (TEXT_JUSTIFY_LEFT_CENTRE),
; 667  : 		UI_ATTR_TEXT (""),
; 668  :       UI_ATTR_FONT_COLOUR_START (ui_option_text_default_colour.r, ui_option_text_default_colour.g, ui_option_text_default_colour.b, 0),
; 669  :       UI_ATTR_FONT_COLOUR_END (ui_option_text_default_colour.r, ui_option_text_default_colour.g, ui_option_text_default_colour.b, 255),
; 670  :       UI_ATTR_HIGHLIGHTED_FONT_COLOUR_START (ui_option_text_hilite_colour.r, ui_option_text_hilite_colour.g, ui_option_text_hilite_colour.b, 0),
; 671  :       UI_ATTR_HIGHLIGHTED_FONT_COLOUR_END (ui_option_text_hilite_colour.r, ui_option_text_hilite_colour.g, ui_option_text_hilite_colour.b, 255),
; 672  : 		UI_ATTR_HIGHLIGHTABLE (TRUE),
; 673  : 		UI_ATTR_CLEAR (TRUE),
; 674  : 		UI_ATTR_NOTIFY_ON (NOTIFY_TYPE_BUTTON_UP),
; 675  : 		UI_ATTR_FUNCTION (notify_over_torque_option_button),
; 676  : 		UI_ATTR_END
; 677  : 	);
; 678  : 
; 679  : 	preprocess_translation_object_size (change_array [i], over_torque_option_button, option_boolean_text, 2, RESIZE_OPTION_CYCLE_BUTTON);

  01637	6a 01		 push	 1
  01639	6a 02		 push	 2
  0163b	68 00 00 00 00	 push	 OFFSET ?option_boolean_text@@3PAPBDA
  01640	a1 00 00 00 00	 mov	 eax, DWORD PTR ?over_torque_option_button@@3PAUUI_OBJECT@@A ; over_torque_option_button
  01645	50		 push	 eax
  01646	8b 4d fc	 mov	 ecx, DWORD PTR _i$[ebp]
  01649	8b 54 8d 94	 mov	 edx, DWORD PTR _change_array$[ebp+ecx*4]
  0164d	52		 push	 edx
  0164e	e8 00 00 00 00	 call	 ?preprocess_translation_object_size@@YGXPAUUI_OBJECT@@0PAPBDHW4RESIZE_UI_OBJECT_TYPES@@@Z ; preprocess_translation_object_size

; 680  : 
; 681  : 	//vortex_ring
; 682  : 	
; 683  : 	i++;

  01653	8b 45 fc	 mov	 eax, DWORD PTR _i$[ebp]
  01656	83 c0 01	 add	 eax, 1
  01659	89 45 fc	 mov	 DWORD PTR _i$[ebp], eax

; 684  : 
; 685  : 	change_array[i] = create_ui_object

  0165c	6a 11		 push	 17			; 00000011H
  0165e	a1 00 00 00 00	 mov	 eax, DWORD PTR ?options_box_small@@3PAUTEXTURE_GRAPHIC@@A ; options_box_small
  01663	50		 push	 eax
  01664	6a 4c		 push	 76			; 0000004cH
  01666	68 ff 00 00 00	 push	 255			; 000000ffH
  0166b	68 ff 00 00 00	 push	 255			; 000000ffH
  01670	68 ff 00 00 00	 push	 255			; 000000ffH
  01675	68 ff 00 00 00	 push	 255			; 000000ffH
  0167a	6a 0a		 push	 10			; 0000000aH
  0167c	6a 00		 push	 0
  0167e	68 ff 00 00 00	 push	 255			; 000000ffH
  01683	68 ff 00 00 00	 push	 255			; 000000ffH
  01688	68 ff 00 00 00	 push	 255			; 000000ffH
  0168d	6a 0b		 push	 11			; 0000000bH
  0168f	83 ec 08	 sub	 esp, 8
  01692	f2 0f 10 05 00
	00 00 00	 movsd	 xmm0, QWORD PTR __real@3ff0000000000000
  0169a	f2 0f 11 04 24	 movsd	 QWORD PTR [esp], xmm0
  0169f	83 ec 08	 sub	 esp, 8
  016a2	f2 0f 10 05 00
	00 00 00	 movsd	 xmm0, QWORD PTR __real@3fbba5e360000000
  016aa	f2 0f 11 04 24	 movsd	 QWORD PTR [esp], xmm0
  016af	6a 59		 push	 89			; 00000059H
  016b1	83 ec 08	 sub	 esp, 8
  016b4	0f 57 c0	 xorps	 xmm0, xmm0
  016b7	f2 0f 11 04 24	 movsd	 QWORD PTR [esp], xmm0
  016bc	8b 4d fc	 mov	 ecx, DWORD PTR _i$[ebp]
  016bf	8b 54 8d cc	 mov	 edx, DWORD PTR _title_change_array$[ebp+ecx*4]
  016c3	52		 push	 edx
  016c4	8b 45 fc	 mov	 eax, DWORD PTR _i$[ebp]
  016c7	8b 4c 85 cc	 mov	 ecx, DWORD PTR _title_change_array$[ebp+eax*4]
  016cb	8b 11		 mov	 edx, DWORD PTR [ecx]
  016cd	8b 04 95 00 00
	00 00		 mov	 eax, DWORD PTR ?fn_get_ui_object_x_end@@3PAP6GMPAUUI_OBJECT@@@ZA[edx*4]
  016d4	ff d0		 call	 eax
  016d6	d9 9d 50 ff ff
	ff		 fstp	 DWORD PTR tv2266[ebp]
  016dc	f3 0f 10 85 50
	ff ff ff	 movss	 xmm0, DWORD PTR tv2266[ebp]
  016e4	8b 4d fc	 mov	 ecx, DWORD PTR _i$[ebp]
  016e7	8b 54 8d cc	 mov	 edx, DWORD PTR _title_change_array$[ebp+ecx*4]
  016eb	52		 push	 edx
  016ec	8b 45 fc	 mov	 eax, DWORD PTR _i$[ebp]
  016ef	8b 4c 85 cc	 mov	 ecx, DWORD PTR _title_change_array$[ebp+eax*4]
  016f3	8b 11		 mov	 edx, DWORD PTR [ecx]
  016f5	8b 04 95 00 00
	00 00		 mov	 eax, DWORD PTR ?fn_get_ui_object_x_size_end@@3PAP6GMPAUUI_OBJECT@@@ZA[edx*4]
  016fc	f3 0f 11 85 4c
	ff ff ff	 movss	 DWORD PTR tv2432[ebp], xmm0
  01704	ff d0		 call	 eax
  01706	d9 9d 48 ff ff
	ff		 fstp	 DWORD PTR tv2274[ebp]
  0170c	f3 0f 10 85 4c
	ff ff ff	 movss	 xmm0, DWORD PTR tv2432[ebp]
  01714	f3 0f 58 85 48
	ff ff ff	 addss	 xmm0, DWORD PTR tv2274[ebp]
  0171c	f3 0f 58 05 00
	00 00 00	 addss	 xmm0, DWORD PTR __real@3b2a64c3
  01724	f3 0f 5a c0	 cvtss2sd xmm0, xmm0
  01728	83 ec 08	 sub	 esp, 8
  0172b	f2 0f 11 04 24	 movsd	 QWORD PTR [esp], xmm0
  01730	6a 58		 push	 88			; 00000058H
  01732	8b 0d 00 00 00
	00		 mov	 ecx, DWORD PTR ?vortex_ring_area@@3PAUUI_OBJECT@@A ; vortex_ring_area
  01738	51		 push	 ecx
  01739	6a 32		 push	 50			; 00000032H
  0173b	6a 01		 push	 1
  0173d	e8 00 00 00 00	 call	 ?create_ui_object@@YAPAUUI_OBJECT@@HZZ ; create_ui_object
  01742	83 c4 68	 add	 esp, 104		; 00000068H
  01745	8b 55 fc	 mov	 edx, DWORD PTR _i$[ebp]
  01748	89 44 95 94	 mov	 DWORD PTR _change_array$[ebp+edx*4], eax

; 686  : 	(
; 687  : 		UI_TYPE_AREA,
; 688  : 		UI_ATTR_PARENT (vortex_ring_area),
; 689  : 		UI_ATTR_VIRTUAL_POSITION ((get_ui_object_x_end (title_change_array [i]) + get_ui_object_x_size_end (title_change_array [i]) + OPTION_BOX_GAP_WIDTH), 0.0),
; 690  : 		UI_ATTR_VIRTUAL_SIZE (OPTION_BOX_SMALL_WIDTH, OPTION_BOX_HEIGHT),
; 691  : 		UI_ATTR_COLOUR_START ( 255, 255, 255, 0 ),
; 692  : 		UI_ATTR_COLOUR_END ( 255, 255, 255, 255 ),
; 693  : 		UI_ATTR_TEXTURE_GRAPHIC (options_box_small),
; 694  : 		UI_ATTR_END
; 695  : 	);
; 696  : 
; 697  :    vortex_ring_option_button = create_ui_object

  0174c	6a 11		 push	 17			; 00000011H
  0174e	68 00 00 00 00	 push	 OFFSET ?notify_vortex_ring_option_button@@YGXPAUUI_OBJECT@@PAX@Z ; notify_vortex_ring_option_button
  01753	6a 16		 push	 22			; 00000016H
  01755	6a 01		 push	 1
  01757	6a 2f		 push	 47			; 0000002fH
  01759	6a 01		 push	 1
  0175b	6a 07		 push	 7
  0175d	6a 01		 push	 1
  0175f	6a 1b		 push	 27			; 0000001bH
  01761	68 ff 00 00 00	 push	 255			; 000000ffH
  01766	0f b6 05 00 00
	00 00		 movzx	 eax, BYTE PTR ?ui_option_text_hilite_colour@@3UREAL_COLOUR@@A
  0176d	50		 push	 eax
  0176e	0f b6 0d 01 00
	00 00		 movzx	 ecx, BYTE PTR ?ui_option_text_hilite_colour@@3UREAL_COLOUR@@A+1
  01775	51		 push	 ecx
  01776	0f b6 15 02 00
	00 00		 movzx	 edx, BYTE PTR ?ui_option_text_hilite_colour@@3UREAL_COLOUR@@A+2
  0177d	52		 push	 edx
  0177e	6a 22		 push	 34			; 00000022H
  01780	6a 00		 push	 0
  01782	0f b6 05 00 00
	00 00		 movzx	 eax, BYTE PTR ?ui_option_text_hilite_colour@@3UREAL_COLOUR@@A
  01789	50		 push	 eax
  0178a	0f b6 0d 01 00
	00 00		 movzx	 ecx, BYTE PTR ?ui_option_text_hilite_colour@@3UREAL_COLOUR@@A+1
  01791	51		 push	 ecx
  01792	0f b6 15 02 00
	00 00		 movzx	 edx, BYTE PTR ?ui_option_text_hilite_colour@@3UREAL_COLOUR@@A+2
  01799	52		 push	 edx
  0179a	6a 23		 push	 35			; 00000023H
  0179c	68 ff 00 00 00	 push	 255			; 000000ffH
  017a1	0f b6 05 00 00
	00 00		 movzx	 eax, BYTE PTR ?ui_option_text_default_colour@@3UREAL_COLOUR@@A
  017a8	50		 push	 eax
  017a9	0f b6 0d 01 00
	00 00		 movzx	 ecx, BYTE PTR ?ui_option_text_default_colour@@3UREAL_COLOUR@@A+1
  017b0	51		 push	 ecx
  017b1	0f b6 15 02 00
	00 00		 movzx	 edx, BYTE PTR ?ui_option_text_default_colour@@3UREAL_COLOUR@@A+2
  017b8	52		 push	 edx
  017b9	6a 14		 push	 20			; 00000014H
  017bb	6a 00		 push	 0
  017bd	0f b6 05 00 00
	00 00		 movzx	 eax, BYTE PTR ?ui_option_text_default_colour@@3UREAL_COLOUR@@A
  017c4	50		 push	 eax
  017c5	0f b6 0d 01 00
	00 00		 movzx	 ecx, BYTE PTR ?ui_option_text_default_colour@@3UREAL_COLOUR@@A+1
  017cc	51		 push	 ecx
  017cd	0f b6 15 02 00
	00 00		 movzx	 edx, BYTE PTR ?ui_option_text_default_colour@@3UREAL_COLOUR@@A+2
  017d4	52		 push	 edx
  017d5	6a 15		 push	 21			; 00000015H
  017d7	68 00 00 00 00	 push	 OFFSET ??_C@_00CNPNBAHC@@
  017dc	6a 4a		 push	 74			; 0000004aH
  017de	6a 01		 push	 1
  017e0	6a 4b		 push	 75			; 0000004bH
  017e2	83 ec 08	 sub	 esp, 8
  017e5	f2 0f 10 05 00
	00 00 00	 movsd	 xmm0, QWORD PTR __real@3fc24dd300000000
  017ed	f2 0f 11 04 24	 movsd	 QWORD PTR [esp], xmm0
  017f2	8b 45 fc	 mov	 eax, DWORD PTR _i$[ebp]
  017f5	8b 4c 85 94	 mov	 ecx, DWORD PTR _change_array$[ebp+eax*4]
  017f9	51		 push	 ecx
  017fa	8b 55 fc	 mov	 edx, DWORD PTR _i$[ebp]
  017fd	8b 44 95 94	 mov	 eax, DWORD PTR _change_array$[ebp+edx*4]
  01801	8b 08		 mov	 ecx, DWORD PTR [eax]
  01803	8b 14 8d 00 00
	00 00		 mov	 edx, DWORD PTR ?fn_get_ui_object_x_end@@3PAP6GMPAUUI_OBJECT@@@ZA[ecx*4]
  0180a	ff d2		 call	 edx
  0180c	d9 9d 50 ff ff
	ff		 fstp	 DWORD PTR tv2293[ebp]
  01812	f3 0f 10 85 50
	ff ff ff	 movss	 xmm0, DWORD PTR tv2293[ebp]
  0181a	f3 0f 58 05 00
	00 00 00	 addss	 xmm0, DWORD PTR __real@3c03126f
  01822	f3 0f 5a c0	 cvtss2sd xmm0, xmm0
  01826	83 ec 08	 sub	 esp, 8
  01829	f2 0f 11 04 24	 movsd	 QWORD PTR [esp], xmm0
  0182e	6a 58		 push	 88			; 00000058H
  01830	68 ff 00 00 00	 push	 255			; 000000ffH
  01835	6a 2f		 push	 47			; 0000002fH
  01837	6a 7c		 push	 124			; 0000007cH
  01839	68 fe 00 00 00	 push	 254			; 000000feH
  0183e	6a 13		 push	 19			; 00000013H
  01840	6a 08		 push	 8
  01842	6a 12		 push	 18			; 00000012H
  01844	a1 00 00 00 00	 mov	 eax, DWORD PTR ?vortex_ring_area@@3PAUUI_OBJECT@@A ; vortex_ring_area
  01849	50		 push	 eax
  0184a	6a 32		 push	 50			; 00000032H
  0184c	6a 05		 push	 5
  0184e	e8 00 00 00 00	 call	 ?create_ui_object@@YAPAUUI_OBJECT@@HZZ ; create_ui_object
  01853	81 c4 c0 00 00
	00		 add	 esp, 192		; 000000c0H
  01859	a3 00 00 00 00	 mov	 DWORD PTR ?vortex_ring_option_button@@3PAUUI_OBJECT@@A, eax ; vortex_ring_option_button

; 698  : 	(
; 699  : 		UI_TYPE_TEXT,
; 700  : 		UI_ATTR_PARENT (vortex_ring_area),
; 701  : 		UI_ATTR_FONT_TYPE (UI_FONT_THICK_ITALIC_ARIAL_18),
; 702  : 		UI_ATTR_FONT_COLOUR (254, 124, 47, 255),
; 703  : 		UI_ATTR_VIRTUAL_POSITION (get_ui_object_x_end (change_array [i]) + OPTION_BUTTON_TEXT_OFFSET_X, OPTION_BOX_TEXT_OFFSET_Y),
; 704  : 		UI_ATTR_TEXT_JUSTIFY (TEXT_JUSTIFY_LEFT_CENTRE),
; 705  : 		UI_ATTR_TEXT (""),
; 706  :       UI_ATTR_FONT_COLOUR_START (ui_option_text_default_colour.r, ui_option_text_default_colour.g, ui_option_text_default_colour.b, 0),
; 707  :       UI_ATTR_FONT_COLOUR_END (ui_option_text_default_colour.r, ui_option_text_default_colour.g, ui_option_text_default_colour.b, 255),
; 708  :       UI_ATTR_HIGHLIGHTED_FONT_COLOUR_START (ui_option_text_hilite_colour.r, ui_option_text_hilite_colour.g, ui_option_text_hilite_colour.b, 0),
; 709  :       UI_ATTR_HIGHLIGHTED_FONT_COLOUR_END (ui_option_text_hilite_colour.r, ui_option_text_hilite_colour.g, ui_option_text_hilite_colour.b, 255),
; 710  : 		UI_ATTR_HIGHLIGHTABLE (TRUE),
; 711  : 		UI_ATTR_CLEAR (TRUE),
; 712  : 		UI_ATTR_NOTIFY_ON (NOTIFY_TYPE_BUTTON_UP),
; 713  : 		UI_ATTR_FUNCTION (notify_vortex_ring_option_button),
; 714  : 		UI_ATTR_END
; 715  : 	);
; 716  : 
; 717  : 	preprocess_translation_object_size (change_array [i], vortex_ring_option_button, option_boolean_text, 2, RESIZE_OPTION_CYCLE_BUTTON);

  0185e	6a 01		 push	 1
  01860	6a 02		 push	 2
  01862	68 00 00 00 00	 push	 OFFSET ?option_boolean_text@@3PAPBDA
  01867	a1 00 00 00 00	 mov	 eax, DWORD PTR ?vortex_ring_option_button@@3PAUUI_OBJECT@@A ; vortex_ring_option_button
  0186c	50		 push	 eax
  0186d	8b 4d fc	 mov	 ecx, DWORD PTR _i$[ebp]
  01870	8b 54 8d 94	 mov	 edx, DWORD PTR _change_array$[ebp+ecx*4]
  01874	52		 push	 edx
  01875	e8 00 00 00 00	 call	 ?preprocess_translation_object_size@@YGXPAUUI_OBJECT@@0PAPBDHW4RESIZE_UI_OBJECT_TYPES@@@Z ; preprocess_translation_object_size

; 718  : 
; 719  : 	//Wind
; 720  : 	
; 721  : 	i++;

  0187a	8b 45 fc	 mov	 eax, DWORD PTR _i$[ebp]
  0187d	83 c0 01	 add	 eax, 1
  01880	89 45 fc	 mov	 DWORD PTR _i$[ebp], eax

; 722  : 
; 723  : 	change_array[i] = create_ui_object

  01883	6a 11		 push	 17			; 00000011H
  01885	a1 00 00 00 00	 mov	 eax, DWORD PTR ?options_box_small@@3PAUTEXTURE_GRAPHIC@@A ; options_box_small
  0188a	50		 push	 eax
  0188b	6a 4c		 push	 76			; 0000004cH
  0188d	68 ff 00 00 00	 push	 255			; 000000ffH
  01892	68 ff 00 00 00	 push	 255			; 000000ffH
  01897	68 ff 00 00 00	 push	 255			; 000000ffH
  0189c	68 ff 00 00 00	 push	 255			; 000000ffH
  018a1	6a 0a		 push	 10			; 0000000aH
  018a3	6a 00		 push	 0
  018a5	68 ff 00 00 00	 push	 255			; 000000ffH
  018aa	68 ff 00 00 00	 push	 255			; 000000ffH
  018af	68 ff 00 00 00	 push	 255			; 000000ffH
  018b4	6a 0b		 push	 11			; 0000000bH
  018b6	83 ec 08	 sub	 esp, 8
  018b9	f2 0f 10 05 00
	00 00 00	 movsd	 xmm0, QWORD PTR __real@3ff0000000000000
  018c1	f2 0f 11 04 24	 movsd	 QWORD PTR [esp], xmm0
  018c6	83 ec 08	 sub	 esp, 8
  018c9	f2 0f 10 05 00
	00 00 00	 movsd	 xmm0, QWORD PTR __real@3fbba5e360000000
  018d1	f2 0f 11 04 24	 movsd	 QWORD PTR [esp], xmm0
  018d6	6a 59		 push	 89			; 00000059H
  018d8	83 ec 08	 sub	 esp, 8
  018db	0f 57 c0	 xorps	 xmm0, xmm0
  018de	f2 0f 11 04 24	 movsd	 QWORD PTR [esp], xmm0
  018e3	8b 4d fc	 mov	 ecx, DWORD PTR _i$[ebp]
  018e6	8b 54 8d cc	 mov	 edx, DWORD PTR _title_change_array$[ebp+ecx*4]
  018ea	52		 push	 edx
  018eb	8b 45 fc	 mov	 eax, DWORD PTR _i$[ebp]
  018ee	8b 4c 85 cc	 mov	 ecx, DWORD PTR _title_change_array$[ebp+eax*4]
  018f2	8b 11		 mov	 edx, DWORD PTR [ecx]
  018f4	8b 04 95 00 00
	00 00		 mov	 eax, DWORD PTR ?fn_get_ui_object_x_end@@3PAP6GMPAUUI_OBJECT@@@ZA[edx*4]
  018fb	ff d0		 call	 eax
  018fd	d9 9d 50 ff ff
	ff		 fstp	 DWORD PTR tv2310[ebp]
  01903	f3 0f 10 85 50
	ff ff ff	 movss	 xmm0, DWORD PTR tv2310[ebp]
  0190b	8b 4d fc	 mov	 ecx, DWORD PTR _i$[ebp]
  0190e	8b 54 8d cc	 mov	 edx, DWORD PTR _title_change_array$[ebp+ecx*4]
  01912	52		 push	 edx
  01913	8b 45 fc	 mov	 eax, DWORD PTR _i$[ebp]
  01916	8b 4c 85 cc	 mov	 ecx, DWORD PTR _title_change_array$[ebp+eax*4]
  0191a	8b 11		 mov	 edx, DWORD PTR [ecx]
  0191c	8b 04 95 00 00
	00 00		 mov	 eax, DWORD PTR ?fn_get_ui_object_x_size_end@@3PAP6GMPAUUI_OBJECT@@@ZA[edx*4]
  01923	f3 0f 11 85 4c
	ff ff ff	 movss	 DWORD PTR tv2434[ebp], xmm0
  0192b	ff d0		 call	 eax
  0192d	d9 9d 48 ff ff
	ff		 fstp	 DWORD PTR tv2318[ebp]
  01933	f3 0f 10 85 4c
	ff ff ff	 movss	 xmm0, DWORD PTR tv2434[ebp]
  0193b	f3 0f 58 85 48
	ff ff ff	 addss	 xmm0, DWORD PTR tv2318[ebp]
  01943	f3 0f 58 05 00
	00 00 00	 addss	 xmm0, DWORD PTR __real@3b2a64c3
  0194b	f3 0f 5a c0	 cvtss2sd xmm0, xmm0
  0194f	83 ec 08	 sub	 esp, 8
  01952	f2 0f 11 04 24	 movsd	 QWORD PTR [esp], xmm0
  01957	6a 58		 push	 88			; 00000058H
  01959	8b 0d 00 00 00
	00		 mov	 ecx, DWORD PTR ?wind_area@@3PAUUI_OBJECT@@A ; wind_area
  0195f	51		 push	 ecx
  01960	6a 32		 push	 50			; 00000032H
  01962	6a 01		 push	 1
  01964	e8 00 00 00 00	 call	 ?create_ui_object@@YAPAUUI_OBJECT@@HZZ ; create_ui_object
  01969	83 c4 68	 add	 esp, 104		; 00000068H
  0196c	8b 55 fc	 mov	 edx, DWORD PTR _i$[ebp]
  0196f	89 44 95 94	 mov	 DWORD PTR _change_array$[ebp+edx*4], eax

; 724  : 	(
; 725  : 		UI_TYPE_AREA,
; 726  : 		UI_ATTR_PARENT (wind_area),
; 727  : 		UI_ATTR_VIRTUAL_POSITION ((get_ui_object_x_end (title_change_array [i]) + get_ui_object_x_size_end (title_change_array [i]) + OPTION_BOX_GAP_WIDTH), 0.0),
; 728  : 		UI_ATTR_VIRTUAL_SIZE (OPTION_BOX_SMALL_WIDTH, OPTION_BOX_HEIGHT),
; 729  : 		UI_ATTR_COLOUR_START ( 255, 255, 255, 0 ),
; 730  : 		UI_ATTR_COLOUR_END ( 255, 255, 255, 255 ),
; 731  : 		UI_ATTR_TEXTURE_GRAPHIC (options_box_small),
; 732  : 		UI_ATTR_END
; 733  : 	);
; 734  : 
; 735  :    wind_option_button = create_ui_object

  01973	6a 11		 push	 17			; 00000011H
  01975	68 00 00 00 00	 push	 OFFSET ?notify_wind_option_button@@YGXPAUUI_OBJECT@@PAX@Z ; notify_wind_option_button
  0197a	6a 16		 push	 22			; 00000016H
  0197c	6a 01		 push	 1
  0197e	6a 2f		 push	 47			; 0000002fH
  01980	6a 01		 push	 1
  01982	6a 07		 push	 7
  01984	6a 01		 push	 1
  01986	6a 1b		 push	 27			; 0000001bH
  01988	68 ff 00 00 00	 push	 255			; 000000ffH
  0198d	0f b6 05 00 00
	00 00		 movzx	 eax, BYTE PTR ?ui_option_text_hilite_colour@@3UREAL_COLOUR@@A
  01994	50		 push	 eax
  01995	0f b6 0d 01 00
	00 00		 movzx	 ecx, BYTE PTR ?ui_option_text_hilite_colour@@3UREAL_COLOUR@@A+1
  0199c	51		 push	 ecx
  0199d	0f b6 15 02 00
	00 00		 movzx	 edx, BYTE PTR ?ui_option_text_hilite_colour@@3UREAL_COLOUR@@A+2
  019a4	52		 push	 edx
  019a5	6a 22		 push	 34			; 00000022H
  019a7	6a 00		 push	 0
  019a9	0f b6 05 00 00
	00 00		 movzx	 eax, BYTE PTR ?ui_option_text_hilite_colour@@3UREAL_COLOUR@@A
  019b0	50		 push	 eax
  019b1	0f b6 0d 01 00
	00 00		 movzx	 ecx, BYTE PTR ?ui_option_text_hilite_colour@@3UREAL_COLOUR@@A+1
  019b8	51		 push	 ecx
  019b9	0f b6 15 02 00
	00 00		 movzx	 edx, BYTE PTR ?ui_option_text_hilite_colour@@3UREAL_COLOUR@@A+2
  019c0	52		 push	 edx
  019c1	6a 23		 push	 35			; 00000023H
  019c3	68 ff 00 00 00	 push	 255			; 000000ffH
  019c8	0f b6 05 00 00
	00 00		 movzx	 eax, BYTE PTR ?ui_option_text_default_colour@@3UREAL_COLOUR@@A
  019cf	50		 push	 eax
  019d0	0f b6 0d 01 00
	00 00		 movzx	 ecx, BYTE PTR ?ui_option_text_default_colour@@3UREAL_COLOUR@@A+1
  019d7	51		 push	 ecx
  019d8	0f b6 15 02 00
	00 00		 movzx	 edx, BYTE PTR ?ui_option_text_default_colour@@3UREAL_COLOUR@@A+2
  019df	52		 push	 edx
  019e0	6a 14		 push	 20			; 00000014H
  019e2	6a 00		 push	 0
  019e4	0f b6 05 00 00
	00 00		 movzx	 eax, BYTE PTR ?ui_option_text_default_colour@@3UREAL_COLOUR@@A
  019eb	50		 push	 eax
  019ec	0f b6 0d 01 00
	00 00		 movzx	 ecx, BYTE PTR ?ui_option_text_default_colour@@3UREAL_COLOUR@@A+1
  019f3	51		 push	 ecx
  019f4	0f b6 15 02 00
	00 00		 movzx	 edx, BYTE PTR ?ui_option_text_default_colour@@3UREAL_COLOUR@@A+2
  019fb	52		 push	 edx
  019fc	6a 15		 push	 21			; 00000015H
  019fe	68 00 00 00 00	 push	 OFFSET ??_C@_00CNPNBAHC@@
  01a03	6a 4a		 push	 74			; 0000004aH
  01a05	6a 01		 push	 1
  01a07	6a 4b		 push	 75			; 0000004bH
  01a09	83 ec 08	 sub	 esp, 8
  01a0c	f2 0f 10 05 00
	00 00 00	 movsd	 xmm0, QWORD PTR __real@3fc24dd300000000
  01a14	f2 0f 11 04 24	 movsd	 QWORD PTR [esp], xmm0
  01a19	8b 45 fc	 mov	 eax, DWORD PTR _i$[ebp]
  01a1c	8b 4c 85 94	 mov	 ecx, DWORD PTR _change_array$[ebp+eax*4]
  01a20	51		 push	 ecx
  01a21	8b 55 fc	 mov	 edx, DWORD PTR _i$[ebp]
  01a24	8b 44 95 94	 mov	 eax, DWORD PTR _change_array$[ebp+edx*4]
  01a28	8b 08		 mov	 ecx, DWORD PTR [eax]
  01a2a	8b 14 8d 00 00
	00 00		 mov	 edx, DWORD PTR ?fn_get_ui_object_x_end@@3PAP6GMPAUUI_OBJECT@@@ZA[ecx*4]
  01a31	ff d2		 call	 edx
  01a33	d9 9d 50 ff ff
	ff		 fstp	 DWORD PTR tv2337[ebp]
  01a39	f3 0f 10 85 50
	ff ff ff	 movss	 xmm0, DWORD PTR tv2337[ebp]
  01a41	f3 0f 58 05 00
	00 00 00	 addss	 xmm0, DWORD PTR __real@3c03126f
  01a49	f3 0f 5a c0	 cvtss2sd xmm0, xmm0
  01a4d	83 ec 08	 sub	 esp, 8
  01a50	f2 0f 11 04 24	 movsd	 QWORD PTR [esp], xmm0
  01a55	6a 58		 push	 88			; 00000058H
  01a57	68 ff 00 00 00	 push	 255			; 000000ffH
  01a5c	6a 2f		 push	 47			; 0000002fH
  01a5e	6a 7c		 push	 124			; 0000007cH
  01a60	68 fe 00 00 00	 push	 254			; 000000feH
  01a65	6a 13		 push	 19			; 00000013H
  01a67	6a 08		 push	 8
  01a69	6a 12		 push	 18			; 00000012H
  01a6b	a1 00 00 00 00	 mov	 eax, DWORD PTR ?wind_area@@3PAUUI_OBJECT@@A ; wind_area
  01a70	50		 push	 eax
  01a71	6a 32		 push	 50			; 00000032H
  01a73	6a 05		 push	 5
  01a75	e8 00 00 00 00	 call	 ?create_ui_object@@YAPAUUI_OBJECT@@HZZ ; create_ui_object
  01a7a	81 c4 c0 00 00
	00		 add	 esp, 192		; 000000c0H
  01a80	a3 00 00 00 00	 mov	 DWORD PTR ?wind_option_button@@3PAUUI_OBJECT@@A, eax ; wind_option_button

; 736  : 	(
; 737  : 		UI_TYPE_TEXT,
; 738  : 		UI_ATTR_PARENT (wind_area),
; 739  : 		UI_ATTR_FONT_TYPE (UI_FONT_THICK_ITALIC_ARIAL_18),
; 740  : 		UI_ATTR_FONT_COLOUR (254, 124, 47, 255),
; 741  : 		UI_ATTR_VIRTUAL_POSITION (get_ui_object_x_end (change_array [i]) + OPTION_BUTTON_TEXT_OFFSET_X, OPTION_BOX_TEXT_OFFSET_Y),
; 742  : 		UI_ATTR_TEXT_JUSTIFY (TEXT_JUSTIFY_LEFT_CENTRE),
; 743  : 		UI_ATTR_TEXT (""),
; 744  :       UI_ATTR_FONT_COLOUR_START (ui_option_text_default_colour.r, ui_option_text_default_colour.g, ui_option_text_default_colour.b, 0),
; 745  :       UI_ATTR_FONT_COLOUR_END (ui_option_text_default_colour.r, ui_option_text_default_colour.g, ui_option_text_default_colour.b, 255),
; 746  :       UI_ATTR_HIGHLIGHTED_FONT_COLOUR_START (ui_option_text_hilite_colour.r, ui_option_text_hilite_colour.g, ui_option_text_hilite_colour.b, 0),
; 747  :       UI_ATTR_HIGHLIGHTED_FONT_COLOUR_END (ui_option_text_hilite_colour.r, ui_option_text_hilite_colour.g, ui_option_text_hilite_colour.b, 255),
; 748  : 		UI_ATTR_HIGHLIGHTABLE (TRUE),
; 749  : 		UI_ATTR_CLEAR (TRUE),
; 750  : 		UI_ATTR_NOTIFY_ON (NOTIFY_TYPE_BUTTON_UP),
; 751  : 		UI_ATTR_FUNCTION (notify_wind_option_button),
; 752  : 		UI_ATTR_END
; 753  : 	);
; 754  : 
; 755  : 	preprocess_translation_object_size (change_array [i], wind_option_button, option_boolean_text, 2, RESIZE_OPTION_CYCLE_BUTTON);

  01a85	6a 01		 push	 1
  01a87	6a 02		 push	 2
  01a89	68 00 00 00 00	 push	 OFFSET ?option_boolean_text@@3PAPBDA
  01a8e	a1 00 00 00 00	 mov	 eax, DWORD PTR ?wind_option_button@@3PAUUI_OBJECT@@A ; wind_option_button
  01a93	50		 push	 eax
  01a94	8b 4d fc	 mov	 ecx, DWORD PTR _i$[ebp]
  01a97	8b 54 8d 94	 mov	 edx, DWORD PTR _change_array$[ebp+ecx*4]
  01a9b	52		 push	 edx
  01a9c	e8 00 00 00 00	 call	 ?preprocess_translation_object_size@@YGXPAUUI_OBJECT@@0PAPBDHW4RESIZE_UI_OBJECT_TYPES@@@Z ; preprocess_translation_object_size

; 756  : 
; 757  : 	//transitional lift
; 758  : 	
; 759  : 	i++;

  01aa1	8b 45 fc	 mov	 eax, DWORD PTR _i$[ebp]
  01aa4	83 c0 01	 add	 eax, 1
  01aa7	89 45 fc	 mov	 DWORD PTR _i$[ebp], eax

; 760  : 
; 761  : 	change_array[i] = create_ui_object

  01aaa	6a 11		 push	 17			; 00000011H
  01aac	a1 00 00 00 00	 mov	 eax, DWORD PTR ?options_box_small@@3PAUTEXTURE_GRAPHIC@@A ; options_box_small
  01ab1	50		 push	 eax
  01ab2	6a 4c		 push	 76			; 0000004cH
  01ab4	68 ff 00 00 00	 push	 255			; 000000ffH
  01ab9	68 ff 00 00 00	 push	 255			; 000000ffH
  01abe	68 ff 00 00 00	 push	 255			; 000000ffH
  01ac3	68 ff 00 00 00	 push	 255			; 000000ffH
  01ac8	6a 0a		 push	 10			; 0000000aH
  01aca	6a 00		 push	 0
  01acc	68 ff 00 00 00	 push	 255			; 000000ffH
  01ad1	68 ff 00 00 00	 push	 255			; 000000ffH
  01ad6	68 ff 00 00 00	 push	 255			; 000000ffH
  01adb	6a 0b		 push	 11			; 0000000bH
  01add	83 ec 08	 sub	 esp, 8
  01ae0	f2 0f 10 05 00
	00 00 00	 movsd	 xmm0, QWORD PTR __real@3ff0000000000000
  01ae8	f2 0f 11 04 24	 movsd	 QWORD PTR [esp], xmm0
  01aed	83 ec 08	 sub	 esp, 8
  01af0	f2 0f 10 05 00
	00 00 00	 movsd	 xmm0, QWORD PTR __real@3fbba5e360000000
  01af8	f2 0f 11 04 24	 movsd	 QWORD PTR [esp], xmm0
  01afd	6a 59		 push	 89			; 00000059H
  01aff	83 ec 08	 sub	 esp, 8
  01b02	0f 57 c0	 xorps	 xmm0, xmm0
  01b05	f2 0f 11 04 24	 movsd	 QWORD PTR [esp], xmm0
  01b0a	8b 4d fc	 mov	 ecx, DWORD PTR _i$[ebp]
  01b0d	8b 54 8d cc	 mov	 edx, DWORD PTR _title_change_array$[ebp+ecx*4]
  01b11	52		 push	 edx
  01b12	8b 45 fc	 mov	 eax, DWORD PTR _i$[ebp]
  01b15	8b 4c 85 cc	 mov	 ecx, DWORD PTR _title_change_array$[ebp+eax*4]
  01b19	8b 11		 mov	 edx, DWORD PTR [ecx]
  01b1b	8b 04 95 00 00
	00 00		 mov	 eax, DWORD PTR ?fn_get_ui_object_x_end@@3PAP6GMPAUUI_OBJECT@@@ZA[edx*4]
  01b22	ff d0		 call	 eax
  01b24	d9 9d 50 ff ff
	ff		 fstp	 DWORD PTR tv2354[ebp]
  01b2a	f3 0f 10 85 50
	ff ff ff	 movss	 xmm0, DWORD PTR tv2354[ebp]
  01b32	8b 4d fc	 mov	 ecx, DWORD PTR _i$[ebp]
  01b35	8b 54 8d cc	 mov	 edx, DWORD PTR _title_change_array$[ebp+ecx*4]
  01b39	52		 push	 edx
  01b3a	8b 45 fc	 mov	 eax, DWORD PTR _i$[ebp]
  01b3d	8b 4c 85 cc	 mov	 ecx, DWORD PTR _title_change_array$[ebp+eax*4]
  01b41	8b 11		 mov	 edx, DWORD PTR [ecx]
  01b43	8b 04 95 00 00
	00 00		 mov	 eax, DWORD PTR ?fn_get_ui_object_x_size_end@@3PAP6GMPAUUI_OBJECT@@@ZA[edx*4]
  01b4a	f3 0f 11 85 4c
	ff ff ff	 movss	 DWORD PTR tv2436[ebp], xmm0
  01b52	ff d0		 call	 eax
  01b54	d9 9d 48 ff ff
	ff		 fstp	 DWORD PTR tv2362[ebp]
  01b5a	f3 0f 10 85 4c
	ff ff ff	 movss	 xmm0, DWORD PTR tv2436[ebp]
  01b62	f3 0f 58 85 48
	ff ff ff	 addss	 xmm0, DWORD PTR tv2362[ebp]
  01b6a	f3 0f 58 05 00
	00 00 00	 addss	 xmm0, DWORD PTR __real@3b2a64c3
  01b72	f3 0f 5a c0	 cvtss2sd xmm0, xmm0
  01b76	83 ec 08	 sub	 esp, 8
  01b79	f2 0f 11 04 24	 movsd	 QWORD PTR [esp], xmm0
  01b7e	6a 58		 push	 88			; 00000058H
  01b80	8b 0d 00 00 00
	00		 mov	 ecx, DWORD PTR ?transitional_lift_area@@3PAUUI_OBJECT@@A ; transitional_lift_area
  01b86	51		 push	 ecx
  01b87	6a 32		 push	 50			; 00000032H
  01b89	6a 01		 push	 1
  01b8b	e8 00 00 00 00	 call	 ?create_ui_object@@YAPAUUI_OBJECT@@HZZ ; create_ui_object
  01b90	83 c4 68	 add	 esp, 104		; 00000068H
  01b93	8b 55 fc	 mov	 edx, DWORD PTR _i$[ebp]
  01b96	89 44 95 94	 mov	 DWORD PTR _change_array$[ebp+edx*4], eax

; 762  : 	(
; 763  : 		UI_TYPE_AREA,
; 764  : 		UI_ATTR_PARENT (transitional_lift_area),
; 765  : 		UI_ATTR_VIRTUAL_POSITION ((get_ui_object_x_end (title_change_array [i]) + get_ui_object_x_size_end (title_change_array [i]) + OPTION_BOX_GAP_WIDTH), 0.0),
; 766  : 		UI_ATTR_VIRTUAL_SIZE (OPTION_BOX_SMALL_WIDTH, OPTION_BOX_HEIGHT),
; 767  : 		UI_ATTR_COLOUR_START ( 255, 255, 255, 0 ),
; 768  : 		UI_ATTR_COLOUR_END ( 255, 255, 255, 255 ),
; 769  : 		UI_ATTR_TEXTURE_GRAPHIC (options_box_small),
; 770  : 		UI_ATTR_END
; 771  : 	);
; 772  : 
; 773  :    transitional_lift_option_button = create_ui_object

  01b9a	6a 11		 push	 17			; 00000011H
  01b9c	68 00 00 00 00	 push	 OFFSET ?notify_transitional_lift_option_button@@YGXPAUUI_OBJECT@@PAX@Z ; notify_transitional_lift_option_button
  01ba1	6a 16		 push	 22			; 00000016H
  01ba3	6a 01		 push	 1
  01ba5	6a 2f		 push	 47			; 0000002fH
  01ba7	6a 01		 push	 1
  01ba9	6a 07		 push	 7
  01bab	6a 01		 push	 1
  01bad	6a 1b		 push	 27			; 0000001bH
  01baf	68 ff 00 00 00	 push	 255			; 000000ffH
  01bb4	0f b6 05 00 00
	00 00		 movzx	 eax, BYTE PTR ?ui_option_text_hilite_colour@@3UREAL_COLOUR@@A
  01bbb	50		 push	 eax
  01bbc	0f b6 0d 01 00
	00 00		 movzx	 ecx, BYTE PTR ?ui_option_text_hilite_colour@@3UREAL_COLOUR@@A+1
  01bc3	51		 push	 ecx
  01bc4	0f b6 15 02 00
	00 00		 movzx	 edx, BYTE PTR ?ui_option_text_hilite_colour@@3UREAL_COLOUR@@A+2
  01bcb	52		 push	 edx
  01bcc	6a 22		 push	 34			; 00000022H
  01bce	6a 00		 push	 0
  01bd0	0f b6 05 00 00
	00 00		 movzx	 eax, BYTE PTR ?ui_option_text_hilite_colour@@3UREAL_COLOUR@@A
  01bd7	50		 push	 eax
  01bd8	0f b6 0d 01 00
	00 00		 movzx	 ecx, BYTE PTR ?ui_option_text_hilite_colour@@3UREAL_COLOUR@@A+1
  01bdf	51		 push	 ecx
  01be0	0f b6 15 02 00
	00 00		 movzx	 edx, BYTE PTR ?ui_option_text_hilite_colour@@3UREAL_COLOUR@@A+2
  01be7	52		 push	 edx
  01be8	6a 23		 push	 35			; 00000023H
  01bea	68 ff 00 00 00	 push	 255			; 000000ffH
  01bef	0f b6 05 00 00
	00 00		 movzx	 eax, BYTE PTR ?ui_option_text_default_colour@@3UREAL_COLOUR@@A
  01bf6	50		 push	 eax
  01bf7	0f b6 0d 01 00
	00 00		 movzx	 ecx, BYTE PTR ?ui_option_text_default_colour@@3UREAL_COLOUR@@A+1
  01bfe	51		 push	 ecx
  01bff	0f b6 15 02 00
	00 00		 movzx	 edx, BYTE PTR ?ui_option_text_default_colour@@3UREAL_COLOUR@@A+2
  01c06	52		 push	 edx
  01c07	6a 14		 push	 20			; 00000014H
  01c09	6a 00		 push	 0
  01c0b	0f b6 05 00 00
	00 00		 movzx	 eax, BYTE PTR ?ui_option_text_default_colour@@3UREAL_COLOUR@@A
  01c12	50		 push	 eax
  01c13	0f b6 0d 01 00
	00 00		 movzx	 ecx, BYTE PTR ?ui_option_text_default_colour@@3UREAL_COLOUR@@A+1
  01c1a	51		 push	 ecx
  01c1b	0f b6 15 02 00
	00 00		 movzx	 edx, BYTE PTR ?ui_option_text_default_colour@@3UREAL_COLOUR@@A+2
  01c22	52		 push	 edx
  01c23	6a 15		 push	 21			; 00000015H
  01c25	68 00 00 00 00	 push	 OFFSET ??_C@_00CNPNBAHC@@
  01c2a	6a 4a		 push	 74			; 0000004aH
  01c2c	6a 01		 push	 1
  01c2e	6a 4b		 push	 75			; 0000004bH
  01c30	83 ec 08	 sub	 esp, 8
  01c33	f2 0f 10 05 00
	00 00 00	 movsd	 xmm0, QWORD PTR __real@3fc24dd300000000
  01c3b	f2 0f 11 04 24	 movsd	 QWORD PTR [esp], xmm0
  01c40	8b 45 fc	 mov	 eax, DWORD PTR _i$[ebp]
  01c43	8b 4c 85 94	 mov	 ecx, DWORD PTR _change_array$[ebp+eax*4]
  01c47	51		 push	 ecx
  01c48	8b 55 fc	 mov	 edx, DWORD PTR _i$[ebp]
  01c4b	8b 44 95 94	 mov	 eax, DWORD PTR _change_array$[ebp+edx*4]
  01c4f	8b 08		 mov	 ecx, DWORD PTR [eax]
  01c51	8b 14 8d 00 00
	00 00		 mov	 edx, DWORD PTR ?fn_get_ui_object_x_end@@3PAP6GMPAUUI_OBJECT@@@ZA[ecx*4]
  01c58	ff d2		 call	 edx
  01c5a	d9 9d 50 ff ff
	ff		 fstp	 DWORD PTR tv2381[ebp]
  01c60	f3 0f 10 85 50
	ff ff ff	 movss	 xmm0, DWORD PTR tv2381[ebp]
  01c68	f3 0f 58 05 00
	00 00 00	 addss	 xmm0, DWORD PTR __real@3c03126f
  01c70	f3 0f 5a c0	 cvtss2sd xmm0, xmm0
  01c74	83 ec 08	 sub	 esp, 8
  01c77	f2 0f 11 04 24	 movsd	 QWORD PTR [esp], xmm0
  01c7c	6a 58		 push	 88			; 00000058H
  01c7e	68 ff 00 00 00	 push	 255			; 000000ffH
  01c83	6a 2f		 push	 47			; 0000002fH
  01c85	6a 7c		 push	 124			; 0000007cH
  01c87	68 fe 00 00 00	 push	 254			; 000000feH
  01c8c	6a 13		 push	 19			; 00000013H
  01c8e	6a 08		 push	 8
  01c90	6a 12		 push	 18			; 00000012H
  01c92	a1 00 00 00 00	 mov	 eax, DWORD PTR ?transitional_lift_area@@3PAUUI_OBJECT@@A ; transitional_lift_area
  01c97	50		 push	 eax
  01c98	6a 32		 push	 50			; 00000032H
  01c9a	6a 05		 push	 5
  01c9c	e8 00 00 00 00	 call	 ?create_ui_object@@YAPAUUI_OBJECT@@HZZ ; create_ui_object
  01ca1	81 c4 c0 00 00
	00		 add	 esp, 192		; 000000c0H
  01ca7	a3 00 00 00 00	 mov	 DWORD PTR ?transitional_lift_option_button@@3PAUUI_OBJECT@@A, eax ; transitional_lift_option_button

; 774  : 	(
; 775  : 		UI_TYPE_TEXT,
; 776  : 		UI_ATTR_PARENT (transitional_lift_area),
; 777  : 		UI_ATTR_FONT_TYPE (UI_FONT_THICK_ITALIC_ARIAL_18),
; 778  : 		UI_ATTR_FONT_COLOUR (254, 124, 47, 255),
; 779  : 		UI_ATTR_VIRTUAL_POSITION (get_ui_object_x_end (change_array [i]) + OPTION_BUTTON_TEXT_OFFSET_X, OPTION_BOX_TEXT_OFFSET_Y),
; 780  : 		UI_ATTR_TEXT_JUSTIFY (TEXT_JUSTIFY_LEFT_CENTRE),
; 781  : 		UI_ATTR_TEXT (""),
; 782  :       UI_ATTR_FONT_COLOUR_START (ui_option_text_default_colour.r, ui_option_text_default_colour.g, ui_option_text_default_colour.b, 0),
; 783  :       UI_ATTR_FONT_COLOUR_END (ui_option_text_default_colour.r, ui_option_text_default_colour.g, ui_option_text_default_colour.b, 255),
; 784  :       UI_ATTR_HIGHLIGHTED_FONT_COLOUR_START (ui_option_text_hilite_colour.r, ui_option_text_hilite_colour.g, ui_option_text_hilite_colour.b, 0),
; 785  :       UI_ATTR_HIGHLIGHTED_FONT_COLOUR_END (ui_option_text_hilite_colour.r, ui_option_text_hilite_colour.g, ui_option_text_hilite_colour.b, 255),
; 786  : 		UI_ATTR_HIGHLIGHTABLE (TRUE),
; 787  : 		UI_ATTR_CLEAR (TRUE),
; 788  : 		UI_ATTR_NOTIFY_ON (NOTIFY_TYPE_BUTTON_UP),
; 789  : 		UI_ATTR_FUNCTION (notify_transitional_lift_option_button),
; 790  : 		UI_ATTR_END
; 791  : 	);
; 792  : 
; 793  : 	preprocess_translation_object_size (change_array [i], transitional_lift_option_button, option_boolean_text, 2, RESIZE_OPTION_CYCLE_BUTTON);

  01cac	6a 01		 push	 1
  01cae	6a 02		 push	 2
  01cb0	68 00 00 00 00	 push	 OFFSET ?option_boolean_text@@3PAPBDA
  01cb5	a1 00 00 00 00	 mov	 eax, DWORD PTR ?transitional_lift_option_button@@3PAUUI_OBJECT@@A ; transitional_lift_option_button
  01cba	50		 push	 eax
  01cbb	8b 4d fc	 mov	 ecx, DWORD PTR _i$[ebp]
  01cbe	8b 54 8d 94	 mov	 edx, DWORD PTR _change_array$[ebp+ecx*4]
  01cc2	52		 push	 edx
  01cc3	e8 00 00 00 00	 call	 ?preprocess_translation_object_size@@YGXPAUUI_OBJECT@@0PAPBDHW4RESIZE_UI_OBJECT_TYPES@@@Z ; preprocess_translation_object_size

; 794  : 
; 795  : 	recursively_set_object_time (page, OPTIONS_BUTTON_AREA_FADE_TIME, OPTIONS_BUTTON_AREA_OFFSET_TIME);

  01cc8	6a 00		 push	 0
  01cca	68 90 01 00 00	 push	 400			; 00000190H
  01ccf	8b 45 e8	 mov	 eax, DWORD PTR _page$[ebp]
  01cd2	50		 push	 eax
  01cd3	e8 00 00 00 00	 call	 ?recursively_set_object_time@@YGXPAUUI_OBJECT@@HH@Z ; recursively_set_object_time

; 796  : }

  01cd8	5f		 pop	 edi
  01cd9	5e		 pop	 esi
  01cda	5b		 pop	 ebx
  01cdb	8b e5		 mov	 esp, ebp
  01cdd	5d		 pop	 ebp
  01cde	c3		 ret	 0
?define_options_screen_dynamics_page_objects@@YGXXZ ENDP ; define_options_screen_dynamics_page_objects
_TEXT	ENDS
; Function compile flags: /Odtp /ZI
; File c:\users\nhv90\projects\eech\aphavoc\source\ui_menu\options\op_dynam.c
;	COMDAT ?notify_show_dynamics_page@@YGXXZ
_TEXT	SEGMENT
?notify_show_dynamics_page@@YGXXZ PROC			; notify_show_dynamics_page, COMDAT

; 121  : {

  00000	55		 push	 ebp
  00001	8b ec		 mov	 ebp, esp
  00003	83 ec 40	 sub	 esp, 64			; 00000040H
  00006	53		 push	 ebx
  00007	56		 push	 esi
  00008	57		 push	 edi

; 122  : 	set_ui_object_text (blade_stall_option_button, option_boolean_text [get_global_dynamics_options_retreating_blade_stall ()]);

  00009	a1 50 00 00 00	 mov	 eax, DWORD PTR ?global_options@@3UGLOBAL_OPTIONS_DATA@@A+80
  0000e	c1 e8 06	 shr	 eax, 6
  00011	83 e0 01	 and	 eax, 1
  00014	8b 0c 85 00 00
	00 00		 mov	 ecx, DWORD PTR ?option_boolean_text@@3PAPBDA[eax*4]
  0001b	51		 push	 ecx
  0001c	8b 15 00 00 00
	00		 mov	 edx, DWORD PTR ?blade_stall_option_button@@3PAUUI_OBJECT@@A ; blade_stall_option_button
  00022	52		 push	 edx
  00023	a1 00 00 00 00	 mov	 eax, DWORD PTR ?blade_stall_option_button@@3PAUUI_OBJECT@@A ; blade_stall_option_button
  00028	8b 08		 mov	 ecx, DWORD PTR [eax]
  0002a	8b 14 8d 00 00
	00 00		 mov	 edx, DWORD PTR ?fn_set_ui_object_text@@3PAP6GXPAUUI_OBJECT@@PBD@ZA[ecx*4]
  00031	ff d2		 call	 edx

; 123  : 
; 124  : 	set_ui_object_text (cross_couple_option_button, option_boolean_text [get_global_dynamics_options_cross_coupling ()]);

  00033	a1 50 00 00 00	 mov	 eax, DWORD PTR ?global_options@@3UGLOBAL_OPTIONS_DATA@@A+80
  00038	c1 e8 09	 shr	 eax, 9
  0003b	83 e0 01	 and	 eax, 1
  0003e	8b 0c 85 00 00
	00 00		 mov	 ecx, DWORD PTR ?option_boolean_text@@3PAPBDA[eax*4]
  00045	51		 push	 ecx
  00046	8b 15 00 00 00
	00		 mov	 edx, DWORD PTR ?cross_couple_option_button@@3PAUUI_OBJECT@@A ; cross_couple_option_button
  0004c	52		 push	 edx
  0004d	a1 00 00 00 00	 mov	 eax, DWORD PTR ?cross_couple_option_button@@3PAUUI_OBJECT@@A ; cross_couple_option_button
  00052	8b 08		 mov	 ecx, DWORD PTR [eax]
  00054	8b 14 8d 00 00
	00 00		 mov	 edx, DWORD PTR ?fn_set_ui_object_text@@3PAP6GXPAUUI_OBJECT@@PBD@ZA[ecx*4]
  0005b	ff d2		 call	 edx

; 125  : 
; 126  : 	set_ui_object_text (ground_effect_option_button, option_boolean_text [get_global_dynamics_options_ground_effect ()]);

  0005d	a1 50 00 00 00	 mov	 eax, DWORD PTR ?global_options@@3UGLOBAL_OPTIONS_DATA@@A+80
  00062	c1 e8 0a	 shr	 eax, 10			; 0000000aH
  00065	83 e0 01	 and	 eax, 1
  00068	8b 0c 85 00 00
	00 00		 mov	 ecx, DWORD PTR ?option_boolean_text@@3PAPBDA[eax*4]
  0006f	51		 push	 ecx
  00070	8b 15 00 00 00
	00		 mov	 edx, DWORD PTR ?ground_effect_option_button@@3PAUUI_OBJECT@@A ; ground_effect_option_button
  00076	52		 push	 edx
  00077	a1 00 00 00 00	 mov	 eax, DWORD PTR ?ground_effect_option_button@@3PAUUI_OBJECT@@A ; ground_effect_option_button
  0007c	8b 08		 mov	 ecx, DWORD PTR [eax]
  0007e	8b 14 8d 00 00
	00 00		 mov	 edx, DWORD PTR ?fn_set_ui_object_text@@3PAP6GXPAUUI_OBJECT@@PBD@ZA[ecx*4]
  00085	ff d2		 call	 edx

; 127  : 
; 128  : 	set_ui_object_text (over_torque_option_button, option_boolean_text [get_global_dynamics_options_over_torque ()]);

  00087	a1 50 00 00 00	 mov	 eax, DWORD PTR ?global_options@@3UGLOBAL_OPTIONS_DATA@@A+80
  0008c	c1 e8 0e	 shr	 eax, 14			; 0000000eH
  0008f	83 e0 01	 and	 eax, 1
  00092	8b 0c 85 00 00
	00 00		 mov	 ecx, DWORD PTR ?option_boolean_text@@3PAPBDA[eax*4]
  00099	51		 push	 ecx
  0009a	8b 15 00 00 00
	00		 mov	 edx, DWORD PTR ?over_torque_option_button@@3PAUUI_OBJECT@@A ; over_torque_option_button
  000a0	52		 push	 edx
  000a1	a1 00 00 00 00	 mov	 eax, DWORD PTR ?over_torque_option_button@@3PAUUI_OBJECT@@A ; over_torque_option_button
  000a6	8b 08		 mov	 ecx, DWORD PTR [eax]
  000a8	8b 14 8d 00 00
	00 00		 mov	 edx, DWORD PTR ?fn_set_ui_object_text@@3PAP6GXPAUUI_OBJECT@@PBD@ZA[ecx*4]
  000af	ff d2		 call	 edx

; 129  : 
; 130  : 	set_ui_object_text (vortex_ring_option_button, option_boolean_text [get_global_dynamics_options_vortex_ring ()]);

  000b1	a1 50 00 00 00	 mov	 eax, DWORD PTR ?global_options@@3UGLOBAL_OPTIONS_DATA@@A+80
  000b6	c1 e8 05	 shr	 eax, 5
  000b9	83 e0 01	 and	 eax, 1
  000bc	8b 0c 85 00 00
	00 00		 mov	 ecx, DWORD PTR ?option_boolean_text@@3PAPBDA[eax*4]
  000c3	51		 push	 ecx
  000c4	8b 15 00 00 00
	00		 mov	 edx, DWORD PTR ?vortex_ring_option_button@@3PAUUI_OBJECT@@A ; vortex_ring_option_button
  000ca	52		 push	 edx
  000cb	a1 00 00 00 00	 mov	 eax, DWORD PTR ?vortex_ring_option_button@@3PAUUI_OBJECT@@A ; vortex_ring_option_button
  000d0	8b 08		 mov	 ecx, DWORD PTR [eax]
  000d2	8b 14 8d 00 00
	00 00		 mov	 edx, DWORD PTR ?fn_set_ui_object_text@@3PAP6GXPAUUI_OBJECT@@PBD@ZA[ecx*4]
  000d9	ff d2		 call	 edx

; 131  : 
; 132  : 	set_ui_object_text (wind_option_button, option_boolean_text [get_global_dynamics_options_wind ()]);

  000db	a1 50 00 00 00	 mov	 eax, DWORD PTR ?global_options@@3UGLOBAL_OPTIONS_DATA@@A+80
  000e0	c1 e8 03	 shr	 eax, 3
  000e3	83 e0 01	 and	 eax, 1
  000e6	8b 0c 85 00 00
	00 00		 mov	 ecx, DWORD PTR ?option_boolean_text@@3PAPBDA[eax*4]
  000ed	51		 push	 ecx
  000ee	8b 15 00 00 00
	00		 mov	 edx, DWORD PTR ?wind_option_button@@3PAUUI_OBJECT@@A ; wind_option_button
  000f4	52		 push	 edx
  000f5	a1 00 00 00 00	 mov	 eax, DWORD PTR ?wind_option_button@@3PAUUI_OBJECT@@A ; wind_option_button
  000fa	8b 08		 mov	 ecx, DWORD PTR [eax]
  000fc	8b 14 8d 00 00
	00 00		 mov	 edx, DWORD PTR ?fn_set_ui_object_text@@3PAP6GXPAUUI_OBJECT@@PBD@ZA[ecx*4]
  00103	ff d2		 call	 edx

; 133  : 
; 134  : 	set_ui_object_text (transitional_lift_option_button, option_boolean_text [get_global_dynamics_options_transitional_lift ()]);

  00105	a1 50 00 00 00	 mov	 eax, DWORD PTR ?global_options@@3UGLOBAL_OPTIONS_DATA@@A+80
  0010a	c1 e8 04	 shr	 eax, 4
  0010d	83 e0 01	 and	 eax, 1
  00110	8b 0c 85 00 00
	00 00		 mov	 ecx, DWORD PTR ?option_boolean_text@@3PAPBDA[eax*4]
  00117	51		 push	 ecx
  00118	8b 15 00 00 00
	00		 mov	 edx, DWORD PTR ?transitional_lift_option_button@@3PAUUI_OBJECT@@A ; transitional_lift_option_button
  0011e	52		 push	 edx
  0011f	a1 00 00 00 00	 mov	 eax, DWORD PTR ?transitional_lift_option_button@@3PAUUI_OBJECT@@A ; transitional_lift_option_button
  00124	8b 08		 mov	 ecx, DWORD PTR [eax]
  00126	8b 14 8d 00 00
	00 00		 mov	 edx, DWORD PTR ?fn_set_ui_object_text@@3PAP6GXPAUUI_OBJECT@@PBD@ZA[ecx*4]
  0012d	ff d2		 call	 edx

; 135  : 
; 136  : 	display_options_page (OPTIONS_PAGE_DYNAMICS);

  0012f	6a 01		 push	 1
  00131	e8 00 00 00 00	 call	 ?display_options_page@@YGXW4OPTIONS_PAGES@@@Z ; display_options_page

; 137  : 
; 138  : 	#if DEBUG_MODULE
; 139  : 		debug_filtered_log("Inside show_realism_page");
; 140  : 	#endif
; 141  : }

  00136	5f		 pop	 edi
  00137	5e		 pop	 esi
  00138	5b		 pop	 ebx
  00139	8b e5		 mov	 esp, ebp
  0013b	5d		 pop	 ebp
  0013c	c3		 ret	 0
?notify_show_dynamics_page@@YGXXZ ENDP			; notify_show_dynamics_page
_TEXT	ENDS
END
