; Listing generated by Microsoft (R) Optimizing Compiler Version 19.16.27045.0 

	TITLE	C:\Users\nhv90\Projects\eech\aphavoc\source\ui_menu\options\op_insnd.c
	.686P
	.XMM
	include listing.inc
	.model	flat

INCLUDELIB MSVCRTD
INCLUDELIB OLDNAMES

PUBLIC	___local_stdio_printf_options
PUBLIC	__vsnprintf_l
PUBLIC	__vsprintf_l
PUBLIC	_sprintf
PUBLIC	?notify_show_ingame_sound_page@@YGXXZ		; notify_show_ingame_sound_page
PUBLIC	?define_options_screen_ingame_sound_page_objects@@YGXXZ ; define_options_screen_ingame_sound_page_objects
PUBLIC	?_OptionsStorage@?1??__local_stdio_printf_options@@9@4_KA ; `__local_stdio_printf_options'::`2'::_OptionsStorage
PUBLIC	?__LINE__Var@?0??draw_channel_muted@@YGXPAUUI_OBJECT@@PAX@Z@4JA ; `draw_channel_muted'::`1'::__LINE__Var
PUBLIC	??_C@_0EH@JHJCCJBD@c?3?2users?2nhv90?2projects?2eech?2ap@ ; `string'
PUBLIC	??_C@_0DG@DPBCIMBL@?$CIchannel?5?$DO?$DN?50?$CJ?5?$CG?$CG?5?$CIchannel?5?$DM?5NU@ ; `string'
PUBLIC	??_C@_03GCDBBDDL@Off@				; `string'
PUBLIC	??_C@_02IAAGKKDJ@On@				; `string'
PUBLIC	?__LINE__Var@?0??draw_channel_volume@@YGXPAUUI_OBJECT@@PAX@Z@4JA ; `draw_channel_volume'::`1'::__LINE__Var
PUBLIC	??_C@_02DPKJAMEF@?$CFd@				; `string'
PUBLIC	?__LINE__Var@?0??decrease_channel_volume@@YGXPAUUI_OBJECT@@PAX@Z@4JA ; `decrease_channel_volume'::`1'::__LINE__Var
PUBLIC	?__LINE__Var@?0??increase_channel_volume@@YGXPAUUI_OBJECT@@PAX@Z@4JA ; `increase_channel_volume'::`1'::__LINE__Var
PUBLIC	?__LINE__Var@?0??toggle_channel_muted@@YGXPAUUI_OBJECT@@PAX@Z@4JA ; `toggle_channel_muted'::`1'::__LINE__Var
PUBLIC	??_C@_01JOAMLHOP@?9@				; `string'
PUBLIC	??_C@_01MIFGBAGJ@?$CL@				; `string'
PUBLIC	??_C@_00CNPNBAHC@@				; `string'
PUBLIC	__real@3b2a64c3
PUBLIC	__real@3d6d9168
PUBLIC	__real@3d7df3b6
PUBLIC	__real@3def9db2
PUBLIC	__real@3e851eb8
PUBLIC	__real@3f800000
PUBLIC	__real@3fbeb851eb851eb8
PUBLIC	__real@3fc24dd300000000
PUBLIC	__real@3fd51eb851eb851f
PUBLIC	__real@3fd5c28f5c28f5c3
PUBLIC	__real@3fd999999999999a
PUBLIC	__real@3fe570a3d70a3d71
PUBLIC	__real@3fee666660000000
PUBLIC	__real@3ff0000000000000
EXTRN	__imp____stdio_common_vsprintf:PROC
EXTRN	?process_assert@@YGXPBD0H@Z:PROC		; process_assert
EXTRN	?create_ui_object@@YAPAUUI_OBJECT@@HZZ:PROC	; create_ui_object
EXTRN	?recursively_set_object_time@@YGXPAUUI_OBJECT@@HH@Z:PROC ; recursively_set_object_time
EXTRN	?get_sound_channel_name@@YGPBDH@Z:PROC		; get_sound_channel_name
EXTRN	?get_sound_channel_volume@@YGHH@Z:PROC		; get_sound_channel_volume
EXTRN	?set_sound_channel_volume@@YGXHH@Z:PROC		; set_sound_channel_volume
EXTRN	?get_sound_channel_muted@@YGHH@Z:PROC		; get_sound_channel_muted
EXTRN	?set_sound_channel_muted@@YGXHH@Z:PROC		; set_sound_channel_muted
EXTRN	?get_trans@@YGPBDPBD@Z:PROC			; get_trans
EXTRN	?display_options_page@@YGXW4OPTIONS_PAGES@@@Z:PROC ; display_options_page
EXTRN	?fn_get_ui_object_item_number@@3PAP6GHPAUUI_OBJECT@@@ZA:BYTE ; fn_get_ui_object_item_number
EXTRN	?fn_set_ui_object_text@@3PAP6GXPAUUI_OBJECT@@PBD@ZA:BYTE ; fn_set_ui_object_text
EXTRN	?fn_set_ui_object_font_colour@@3PAP6GXPAUUI_OBJECT@@DDDD@ZA:BYTE ; fn_set_ui_object_font_colour
EXTRN	?ui_option_title_text_colour@@3UREAL_COLOUR@@A:DWORD ; ui_option_title_text_colour
EXTRN	?ui_option_text_default_colour@@3UREAL_COLOUR@@A:DWORD ; ui_option_text_default_colour
EXTRN	?ui_option_text_hilite_colour@@3UREAL_COLOUR@@A:DWORD ; ui_option_text_hilite_colour
EXTRN	?options_box_large@@3PAUTEXTURE_GRAPHIC@@A:DWORD ; options_box_large
EXTRN	?options_screen@@3PAUUI_OBJECT@@A:DWORD		; options_screen
EXTRN	?options_page@@3PAPAUUI_OBJECT@@A:BYTE		; options_page
EXTRN	__fltused:DWORD
;	COMDAT ?_OptionsStorage@?1??__local_stdio_printf_options@@9@4_KA
_BSS	SEGMENT
?_OptionsStorage@?1??__local_stdio_printf_options@@9@4_KA DQ 01H DUP (?) ; `__local_stdio_printf_options'::`2'::_OptionsStorage
_BSS	ENDS
;	COMDAT __real@3ff0000000000000
CONST	SEGMENT
__real@3ff0000000000000 DQ 03ff0000000000000r	; 1
CONST	ENDS
;	COMDAT __real@3fee666660000000
CONST	SEGMENT
__real@3fee666660000000 DQ 03fee666660000000r	; 0.95
CONST	ENDS
;	COMDAT __real@3fe570a3d70a3d71
CONST	SEGMENT
__real@3fe570a3d70a3d71 DQ 03fe570a3d70a3d71r	; 0.67
CONST	ENDS
;	COMDAT __real@3fd999999999999a
CONST	SEGMENT
__real@3fd999999999999a DQ 03fd999999999999ar	; 0.4
CONST	ENDS
;	COMDAT __real@3fd5c28f5c28f5c3
CONST	SEGMENT
__real@3fd5c28f5c28f5c3 DQ 03fd5c28f5c28f5c3r	; 0.34
CONST	ENDS
;	COMDAT __real@3fd51eb851eb851f
CONST	SEGMENT
__real@3fd51eb851eb851f DQ 03fd51eb851eb851fr	; 0.33
CONST	ENDS
;	COMDAT __real@3fc24dd300000000
CONST	SEGMENT
__real@3fc24dd300000000 DQ 03fc24dd300000000r	; 0.143
CONST	ENDS
;	COMDAT __real@3fbeb851eb851eb8
CONST	SEGMENT
__real@3fbeb851eb851eb8 DQ 03fbeb851eb851eb8r	; 0.12
CONST	ENDS
;	COMDAT __real@3f800000
CONST	SEGMENT
__real@3f800000 DD 03f800000r			; 1
CONST	ENDS
;	COMDAT __real@3e851eb8
CONST	SEGMENT
__real@3e851eb8 DD 03e851eb8r			; 0.26
CONST	ENDS
;	COMDAT __real@3def9db2
CONST	SEGMENT
__real@3def9db2 DD 03def9db2r			; 0.117
CONST	ENDS
;	COMDAT __real@3d7df3b6
CONST	SEGMENT
__real@3d7df3b6 DD 03d7df3b6r			; 0.062
CONST	ENDS
;	COMDAT __real@3d6d9168
CONST	SEGMENT
__real@3d6d9168 DD 03d6d9168r			; 0.058
CONST	ENDS
;	COMDAT __real@3b2a64c3
CONST	SEGMENT
__real@3b2a64c3 DD 03b2a64c3r			; 0.0026
CONST	ENDS
;	COMDAT ??_C@_00CNPNBAHC@@
CONST	SEGMENT
??_C@_00CNPNBAHC@@ DB 00H				; `string'
CONST	ENDS
;	COMDAT ??_C@_01MIFGBAGJ@?$CL@
CONST	SEGMENT
??_C@_01MIFGBAGJ@?$CL@ DB '+', 00H			; `string'
CONST	ENDS
;	COMDAT ??_C@_01JOAMLHOP@?9@
CONST	SEGMENT
??_C@_01JOAMLHOP@?9@ DB '-', 00H			; `string'
CONST	ENDS
;	COMDAT ?__LINE__Var@?0??toggle_channel_muted@@YGXPAUUI_OBJECT@@PAX@Z@4JA
_DATA	SEGMENT
?__LINE__Var@?0??toggle_channel_muted@@YGXPAUUI_OBJECT@@PAX@Z@4JA DD 0c2H ; `toggle_channel_muted'::`1'::__LINE__Var
_DATA	ENDS
;	COMDAT ?__LINE__Var@?0??increase_channel_volume@@YGXPAUUI_OBJECT@@PAX@Z@4JA
_DATA	SEGMENT
?__LINE__Var@?0??increase_channel_volume@@YGXPAUUI_OBJECT@@PAX@Z@4JA DD 0abH ; `increase_channel_volume'::`1'::__LINE__Var
_DATA	ENDS
;	COMDAT ?__LINE__Var@?0??decrease_channel_volume@@YGXPAUUI_OBJECT@@PAX@Z@4JA
_DATA	SEGMENT
?__LINE__Var@?0??decrease_channel_volume@@YGXPAUUI_OBJECT@@PAX@Z@4JA DD 094H ; `decrease_channel_volume'::`1'::__LINE__Var
_DATA	ENDS
;	COMDAT ??_C@_02DPKJAMEF@?$CFd@
CONST	SEGMENT
??_C@_02DPKJAMEF@?$CFd@ DB '%d', 00H			; `string'
CONST	ENDS
;	COMDAT ?__LINE__Var@?0??draw_channel_volume@@YGXPAUUI_OBJECT@@PAX@Z@4JA
_DATA	SEGMENT
?__LINE__Var@?0??draw_channel_volume@@YGXPAUUI_OBJECT@@PAX@Z@4JA DD 073H ; `draw_channel_volume'::`1'::__LINE__Var
_DATA	ENDS
;	COMDAT ??_C@_02IAAGKKDJ@On@
CONST	SEGMENT
??_C@_02IAAGKKDJ@On@ DB 'On', 00H			; `string'
CONST	ENDS
;	COMDAT ??_C@_03GCDBBDDL@Off@
CONST	SEGMENT
??_C@_03GCDBBDDL@Off@ DB 'Off', 00H			; `string'
CONST	ENDS
;	COMDAT ??_C@_0DG@DPBCIMBL@?$CIchannel?5?$DO?$DN?50?$CJ?5?$CG?$CG?5?$CIchannel?5?$DM?5NU@
CONST	SEGMENT
??_C@_0DG@DPBCIMBL@?$CIchannel?5?$DO?$DN?50?$CJ?5?$CG?$CG?5?$CIchannel?5?$DM?5NU@ DB '('
	DB	'channel >= 0) && (channel < NUM_SOUND_CHANNEL_TYPES)', 00H ; `string'
CONST	ENDS
;	COMDAT ??_C@_0EH@JHJCCJBD@c?3?2users?2nhv90?2projects?2eech?2ap@
CONST	SEGMENT
??_C@_0EH@JHJCCJBD@c?3?2users?2nhv90?2projects?2eech?2ap@ DB 'c:\users\nh'
	DB	'v90\projects\eech\aphavoc\source\ui_menu\options\op_insnd.c', 00H ; `string'
CONST	ENDS
;	COMDAT ?__LINE__Var@?0??draw_channel_muted@@YGXPAUUI_OBJECT@@PAX@Z@4JA
_DATA	SEGMENT
?__LINE__Var@?0??draw_channel_muted@@YGXPAUUI_OBJECT@@PAX@Z@4JA DD 059H ; `draw_channel_muted'::`1'::__LINE__Var
_DATA	ENDS
; Function compile flags: /Odtp /ZI
; File c:\users\nhv90\projects\eech\aphavoc\source\ui_menu\options\op_insnd.c
;	COMDAT ?toggle_channel_muted@@YGXPAUUI_OBJECT@@PAX@Z
_TEXT	SEGMENT
tv78 = -76						; size = 4
_channel$ = -8						; size = 4
_mute$ = -4						; size = 4
_obj$ = 8						; size = 4
_arg$ = 12						; size = 4
?toggle_channel_muted@@YGXPAUUI_OBJECT@@PAX@Z PROC	; toggle_channel_muted, COMDAT

; 194  : {

  00000	55		 push	 ebp
  00001	8b ec		 mov	 ebp, esp
  00003	83 ec 4c	 sub	 esp, 76			; 0000004cH
  00006	53		 push	 ebx
  00007	56		 push	 esi
  00008	57		 push	 edi

; 195  : 	int
; 196  : 		mute,
; 197  : 		channel;
; 198  : 
; 199  : 	channel = get_ui_object_item_number (obj);

  00009	8b 45 08	 mov	 eax, DWORD PTR _obj$[ebp]
  0000c	50		 push	 eax
  0000d	8b 4d 08	 mov	 ecx, DWORD PTR _obj$[ebp]
  00010	8b 11		 mov	 edx, DWORD PTR [ecx]
  00012	8b 04 95 00 00
	00 00		 mov	 eax, DWORD PTR ?fn_get_ui_object_item_number@@3PAP6GHPAUUI_OBJECT@@@ZA[edx*4]
  00019	ff d0		 call	 eax
  0001b	89 45 f8	 mov	 DWORD PTR _channel$[ebp], eax

; 200  : 
; 201  : 	ASSERT ((channel >= 0) && (channel < NUM_SOUND_CHANNEL_TYPES));

  0001e	83 7d f8 00	 cmp	 DWORD PTR _channel$[ebp], 0
  00022	7c 06		 jl	 SHORT $LN3@toggle_cha
  00024	83 7d f8 07	 cmp	 DWORD PTR _channel$[ebp], 7
  00028	7c 18		 jl	 SHORT $LN2@toggle_cha
$LN3@toggle_cha:
  0002a	a1 00 00 00 00	 mov	 eax, DWORD PTR ?__LINE__Var@?0??toggle_channel_muted@@YGXPAUUI_OBJECT@@PAX@Z@4JA
  0002f	83 c0 07	 add	 eax, 7
  00032	50		 push	 eax
  00033	68 00 00 00 00	 push	 OFFSET ??_C@_0EH@JHJCCJBD@c?3?2users?2nhv90?2projects?2eech?2ap@
  00038	68 00 00 00 00	 push	 OFFSET ??_C@_0DG@DPBCIMBL@?$CIchannel?5?$DO?$DN?50?$CJ?5?$CG?$CG?5?$CIchannel?5?$DM?5NU@
  0003d	e8 00 00 00 00	 call	 ?process_assert@@YGXPBD0H@Z ; process_assert
$LN2@toggle_cha:

; 202  : 
; 203  : 	mute = get_sound_channel_muted (channel);

  00042	8b 45 f8	 mov	 eax, DWORD PTR _channel$[ebp]
  00045	50		 push	 eax
  00046	e8 00 00 00 00	 call	 ?get_sound_channel_muted@@YGHH@Z ; get_sound_channel_muted
  0004b	89 45 fc	 mov	 DWORD PTR _mute$[ebp], eax

; 204  : 
; 205  : 	set_sound_channel_muted (channel, !mute);

  0004e	83 7d fc 00	 cmp	 DWORD PTR _mute$[ebp], 0
  00052	75 09		 jne	 SHORT $LN5@toggle_cha
  00054	c7 45 b4 01 00
	00 00		 mov	 DWORD PTR tv78[ebp], 1
  0005b	eb 07		 jmp	 SHORT $LN6@toggle_cha
$LN5@toggle_cha:
  0005d	c7 45 b4 00 00
	00 00		 mov	 DWORD PTR tv78[ebp], 0
$LN6@toggle_cha:
  00064	8b 45 b4	 mov	 eax, DWORD PTR tv78[ebp]
  00067	50		 push	 eax
  00068	8b 4d f8	 mov	 ecx, DWORD PTR _channel$[ebp]
  0006b	51		 push	 ecx
  0006c	e8 00 00 00 00	 call	 ?set_sound_channel_muted@@YGXHH@Z ; set_sound_channel_muted

; 206  : }

  00071	5f		 pop	 edi
  00072	5e		 pop	 esi
  00073	5b		 pop	 ebx
  00074	8b e5		 mov	 esp, ebp
  00076	5d		 pop	 ebp
  00077	c2 08 00	 ret	 8
?toggle_channel_muted@@YGXPAUUI_OBJECT@@PAX@Z ENDP	; toggle_channel_muted
_TEXT	ENDS
; Function compile flags: /Odtp /ZI
; File c:\users\nhv90\projects\eech\aphavoc\source\ui_menu\options\op_insnd.c
;	COMDAT ?increase_channel_volume@@YGXPAUUI_OBJECT@@PAX@Z
_TEXT	SEGMENT
_channel$ = -8						; size = 4
_vol$ = -4						; size = 4
_obj$ = 8						; size = 4
_arg$ = 12						; size = 4
?increase_channel_volume@@YGXPAUUI_OBJECT@@PAX@Z PROC	; increase_channel_volume, COMDAT

; 171  : {

  00000	55		 push	 ebp
  00001	8b ec		 mov	 ebp, esp
  00003	83 ec 48	 sub	 esp, 72			; 00000048H
  00006	53		 push	 ebx
  00007	56		 push	 esi
  00008	57		 push	 edi

; 172  : 	int
; 173  : 		vol,
; 174  : 		channel;
; 175  : 
; 176  : 	channel = get_ui_object_item_number (obj);

  00009	8b 45 08	 mov	 eax, DWORD PTR _obj$[ebp]
  0000c	50		 push	 eax
  0000d	8b 4d 08	 mov	 ecx, DWORD PTR _obj$[ebp]
  00010	8b 11		 mov	 edx, DWORD PTR [ecx]
  00012	8b 04 95 00 00
	00 00		 mov	 eax, DWORD PTR ?fn_get_ui_object_item_number@@3PAP6GHPAUUI_OBJECT@@@ZA[edx*4]
  00019	ff d0		 call	 eax
  0001b	89 45 f8	 mov	 DWORD PTR _channel$[ebp], eax

; 177  : 
; 178  : 	ASSERT ((channel >= 0) && (channel < NUM_SOUND_CHANNEL_TYPES));

  0001e	83 7d f8 00	 cmp	 DWORD PTR _channel$[ebp], 0
  00022	7c 06		 jl	 SHORT $LN3@increase_c
  00024	83 7d f8 07	 cmp	 DWORD PTR _channel$[ebp], 7
  00028	7c 18		 jl	 SHORT $LN2@increase_c
$LN3@increase_c:
  0002a	a1 00 00 00 00	 mov	 eax, DWORD PTR ?__LINE__Var@?0??increase_channel_volume@@YGXPAUUI_OBJECT@@PAX@Z@4JA
  0002f	83 c0 07	 add	 eax, 7
  00032	50		 push	 eax
  00033	68 00 00 00 00	 push	 OFFSET ??_C@_0EH@JHJCCJBD@c?3?2users?2nhv90?2projects?2eech?2ap@
  00038	68 00 00 00 00	 push	 OFFSET ??_C@_0DG@DPBCIMBL@?$CIchannel?5?$DO?$DN?50?$CJ?5?$CG?$CG?5?$CIchannel?5?$DM?5NU@
  0003d	e8 00 00 00 00	 call	 ?process_assert@@YGXPBD0H@Z ; process_assert
$LN2@increase_c:

; 179  : 
; 180  : 	set_sound_channel_muted (channel, FALSE);

  00042	6a 00		 push	 0
  00044	8b 45 f8	 mov	 eax, DWORD PTR _channel$[ebp]
  00047	50		 push	 eax
  00048	e8 00 00 00 00	 call	 ?set_sound_channel_muted@@YGXHH@Z ; set_sound_channel_muted

; 181  : 
; 182  : 	vol = get_sound_channel_volume (channel);

  0004d	8b 45 f8	 mov	 eax, DWORD PTR _channel$[ebp]
  00050	50		 push	 eax
  00051	e8 00 00 00 00	 call	 ?get_sound_channel_volume@@YGHH@Z ; get_sound_channel_volume
  00056	89 45 fc	 mov	 DWORD PTR _vol$[ebp], eax

; 183  : 
; 184  : 	vol ++;

  00059	8b 45 fc	 mov	 eax, DWORD PTR _vol$[ebp]
  0005c	83 c0 01	 add	 eax, 1
  0005f	89 45 fc	 mov	 DWORD PTR _vol$[ebp], eax

; 185  : 
; 186  : 	set_sound_channel_volume (channel, vol);

  00062	8b 45 fc	 mov	 eax, DWORD PTR _vol$[ebp]
  00065	50		 push	 eax
  00066	8b 4d f8	 mov	 ecx, DWORD PTR _channel$[ebp]
  00069	51		 push	 ecx
  0006a	e8 00 00 00 00	 call	 ?set_sound_channel_volume@@YGXHH@Z ; set_sound_channel_volume

; 187  : }

  0006f	5f		 pop	 edi
  00070	5e		 pop	 esi
  00071	5b		 pop	 ebx
  00072	8b e5		 mov	 esp, ebp
  00074	5d		 pop	 ebp
  00075	c2 08 00	 ret	 8
?increase_channel_volume@@YGXPAUUI_OBJECT@@PAX@Z ENDP	; increase_channel_volume
_TEXT	ENDS
; Function compile flags: /Odtp /ZI
; File c:\users\nhv90\projects\eech\aphavoc\source\ui_menu\options\op_insnd.c
;	COMDAT ?decrease_channel_volume@@YGXPAUUI_OBJECT@@PAX@Z
_TEXT	SEGMENT
_channel$ = -8						; size = 4
_vol$ = -4						; size = 4
_obj$ = 8						; size = 4
_arg$ = 12						; size = 4
?decrease_channel_volume@@YGXPAUUI_OBJECT@@PAX@Z PROC	; decrease_channel_volume, COMDAT

; 148  : {

  00000	55		 push	 ebp
  00001	8b ec		 mov	 ebp, esp
  00003	83 ec 48	 sub	 esp, 72			; 00000048H
  00006	53		 push	 ebx
  00007	56		 push	 esi
  00008	57		 push	 edi

; 149  : 	int
; 150  : 		vol,
; 151  : 		channel;
; 152  : 
; 153  : 	channel = get_ui_object_item_number (obj);

  00009	8b 45 08	 mov	 eax, DWORD PTR _obj$[ebp]
  0000c	50		 push	 eax
  0000d	8b 4d 08	 mov	 ecx, DWORD PTR _obj$[ebp]
  00010	8b 11		 mov	 edx, DWORD PTR [ecx]
  00012	8b 04 95 00 00
	00 00		 mov	 eax, DWORD PTR ?fn_get_ui_object_item_number@@3PAP6GHPAUUI_OBJECT@@@ZA[edx*4]
  00019	ff d0		 call	 eax
  0001b	89 45 f8	 mov	 DWORD PTR _channel$[ebp], eax

; 154  : 
; 155  : 	ASSERT ((channel >= 0) && (channel < NUM_SOUND_CHANNEL_TYPES));

  0001e	83 7d f8 00	 cmp	 DWORD PTR _channel$[ebp], 0
  00022	7c 06		 jl	 SHORT $LN3@decrease_c
  00024	83 7d f8 07	 cmp	 DWORD PTR _channel$[ebp], 7
  00028	7c 18		 jl	 SHORT $LN2@decrease_c
$LN3@decrease_c:
  0002a	a1 00 00 00 00	 mov	 eax, DWORD PTR ?__LINE__Var@?0??decrease_channel_volume@@YGXPAUUI_OBJECT@@PAX@Z@4JA
  0002f	83 c0 07	 add	 eax, 7
  00032	50		 push	 eax
  00033	68 00 00 00 00	 push	 OFFSET ??_C@_0EH@JHJCCJBD@c?3?2users?2nhv90?2projects?2eech?2ap@
  00038	68 00 00 00 00	 push	 OFFSET ??_C@_0DG@DPBCIMBL@?$CIchannel?5?$DO?$DN?50?$CJ?5?$CG?$CG?5?$CIchannel?5?$DM?5NU@
  0003d	e8 00 00 00 00	 call	 ?process_assert@@YGXPBD0H@Z ; process_assert
$LN2@decrease_c:

; 156  : 
; 157  : 	set_sound_channel_muted (channel, FALSE);

  00042	6a 00		 push	 0
  00044	8b 45 f8	 mov	 eax, DWORD PTR _channel$[ebp]
  00047	50		 push	 eax
  00048	e8 00 00 00 00	 call	 ?set_sound_channel_muted@@YGXHH@Z ; set_sound_channel_muted

; 158  : 
; 159  : 	vol = get_sound_channel_volume (channel);

  0004d	8b 45 f8	 mov	 eax, DWORD PTR _channel$[ebp]
  00050	50		 push	 eax
  00051	e8 00 00 00 00	 call	 ?get_sound_channel_volume@@YGHH@Z ; get_sound_channel_volume
  00056	89 45 fc	 mov	 DWORD PTR _vol$[ebp], eax

; 160  : 
; 161  : 	vol --;

  00059	8b 45 fc	 mov	 eax, DWORD PTR _vol$[ebp]
  0005c	83 e8 01	 sub	 eax, 1
  0005f	89 45 fc	 mov	 DWORD PTR _vol$[ebp], eax

; 162  : 
; 163  : 	set_sound_channel_volume (channel, vol);

  00062	8b 45 fc	 mov	 eax, DWORD PTR _vol$[ebp]
  00065	50		 push	 eax
  00066	8b 4d f8	 mov	 ecx, DWORD PTR _channel$[ebp]
  00069	51		 push	 ecx
  0006a	e8 00 00 00 00	 call	 ?set_sound_channel_volume@@YGXHH@Z ; set_sound_channel_volume

; 164  : }

  0006f	5f		 pop	 edi
  00070	5e		 pop	 esi
  00071	5b		 pop	 ebx
  00072	8b e5		 mov	 esp, ebp
  00074	5d		 pop	 ebp
  00075	c2 08 00	 ret	 8
?decrease_channel_volume@@YGXPAUUI_OBJECT@@PAX@Z ENDP	; decrease_channel_volume
_TEXT	ENDS
; Function compile flags: /Odtp /ZI
; File c:\users\nhv90\projects\eech\aphavoc\source\ui_menu\options\op_insnd.c
;	COMDAT ?draw_channel_volume@@YGXPAUUI_OBJECT@@PAX@Z
_TEXT	SEGMENT
_channel$ = -16						; size = 4
_vol$ = -12						; size = 4
_s$ = -8						; size = 8
_obj$ = 8						; size = 4
_arg$ = 12						; size = 4
?draw_channel_volume@@YGXPAUUI_OBJECT@@PAX@Z PROC	; draw_channel_volume, COMDAT

; 115  : {

  00000	55		 push	 ebp
  00001	8b ec		 mov	 ebp, esp
  00003	83 ec 50	 sub	 esp, 80			; 00000050H
  00006	53		 push	 ebx
  00007	56		 push	 esi
  00008	57		 push	 edi

; 116  : 	char
; 117  : 		s [8];
; 118  : 
; 119  : 	int
; 120  : 		vol,
; 121  : 		channel;
; 122  : 
; 123  : 	channel = get_ui_object_item_number (obj);

  00009	8b 45 08	 mov	 eax, DWORD PTR _obj$[ebp]
  0000c	50		 push	 eax
  0000d	8b 4d 08	 mov	 ecx, DWORD PTR _obj$[ebp]
  00010	8b 11		 mov	 edx, DWORD PTR [ecx]
  00012	8b 04 95 00 00
	00 00		 mov	 eax, DWORD PTR ?fn_get_ui_object_item_number@@3PAP6GHPAUUI_OBJECT@@@ZA[edx*4]
  00019	ff d0		 call	 eax
  0001b	89 45 f0	 mov	 DWORD PTR _channel$[ebp], eax

; 124  : 
; 125  : 	ASSERT ((channel >= 0) && (channel < NUM_SOUND_CHANNEL_TYPES));

  0001e	83 7d f0 00	 cmp	 DWORD PTR _channel$[ebp], 0
  00022	7c 06		 jl	 SHORT $LN3@draw_chann
  00024	83 7d f0 07	 cmp	 DWORD PTR _channel$[ebp], 7
  00028	7c 18		 jl	 SHORT $LN2@draw_chann
$LN3@draw_chann:
  0002a	a1 00 00 00 00	 mov	 eax, DWORD PTR ?__LINE__Var@?0??draw_channel_volume@@YGXPAUUI_OBJECT@@PAX@Z@4JA
  0002f	83 c0 0a	 add	 eax, 10			; 0000000aH
  00032	50		 push	 eax
  00033	68 00 00 00 00	 push	 OFFSET ??_C@_0EH@JHJCCJBD@c?3?2users?2nhv90?2projects?2eech?2ap@
  00038	68 00 00 00 00	 push	 OFFSET ??_C@_0DG@DPBCIMBL@?$CIchannel?5?$DO?$DN?50?$CJ?5?$CG?$CG?5?$CIchannel?5?$DM?5NU@
  0003d	e8 00 00 00 00	 call	 ?process_assert@@YGXPBD0H@Z ; process_assert
$LN2@draw_chann:

; 126  : 
; 127  : 	vol = get_sound_channel_volume (channel);

  00042	8b 45 f0	 mov	 eax, DWORD PTR _channel$[ebp]
  00045	50		 push	 eax
  00046	e8 00 00 00 00	 call	 ?get_sound_channel_volume@@YGHH@Z ; get_sound_channel_volume
  0004b	89 45 f4	 mov	 DWORD PTR _vol$[ebp], eax

; 128  : 
; 129  : 	sprintf (s, "%d", vol);

  0004e	8b 45 f4	 mov	 eax, DWORD PTR _vol$[ebp]
  00051	50		 push	 eax
  00052	68 00 00 00 00	 push	 OFFSET ??_C@_02DPKJAMEF@?$CFd@
  00057	8d 4d f8	 lea	 ecx, DWORD PTR _s$[ebp]
  0005a	51		 push	 ecx
  0005b	e8 00 00 00 00	 call	 _sprintf
  00060	83 c4 0c	 add	 esp, 12			; 0000000cH

; 130  : 
; 131  : 	set_ui_object_text (obj, s);

  00063	8d 45 f8	 lea	 eax, DWORD PTR _s$[ebp]
  00066	50		 push	 eax
  00067	8b 4d 08	 mov	 ecx, DWORD PTR _obj$[ebp]
  0006a	51		 push	 ecx
  0006b	8b 55 08	 mov	 edx, DWORD PTR _obj$[ebp]
  0006e	8b 02		 mov	 eax, DWORD PTR [edx]
  00070	8b 0c 85 00 00
	00 00		 mov	 ecx, DWORD PTR ?fn_set_ui_object_text@@3PAP6GXPAUUI_OBJECT@@PBD@ZA[eax*4]
  00077	ff d1		 call	 ecx

; 132  : 
; 133  : 	if (get_sound_channel_muted (channel))

  00079	8b 45 f0	 mov	 eax, DWORD PTR _channel$[ebp]
  0007c	50		 push	 eax
  0007d	e8 00 00 00 00	 call	 ?get_sound_channel_muted@@YGHH@Z ; get_sound_channel_muted
  00082	85 c0		 test	 eax, eax
  00084	74 34		 je	 SHORT $LN4@draw_chann

; 134  : 	{
; 135  : 		set_ui_object_font_colour (obj, ui_option_text_default_colour.r, ui_option_text_default_colour.g, ui_option_text_default_colour.b, ui_option_text_default_colour.a);

  00086	0f b6 05 03 00
	00 00		 movzx	 eax, BYTE PTR ?ui_option_text_default_colour@@3UREAL_COLOUR@@A+3
  0008d	50		 push	 eax
  0008e	0f b6 0d 00 00
	00 00		 movzx	 ecx, BYTE PTR ?ui_option_text_default_colour@@3UREAL_COLOUR@@A
  00095	51		 push	 ecx
  00096	0f b6 15 01 00
	00 00		 movzx	 edx, BYTE PTR ?ui_option_text_default_colour@@3UREAL_COLOUR@@A+1
  0009d	52		 push	 edx
  0009e	0f b6 05 02 00
	00 00		 movzx	 eax, BYTE PTR ?ui_option_text_default_colour@@3UREAL_COLOUR@@A+2
  000a5	50		 push	 eax
  000a6	8b 4d 08	 mov	 ecx, DWORD PTR _obj$[ebp]
  000a9	51		 push	 ecx
  000aa	8b 55 08	 mov	 edx, DWORD PTR _obj$[ebp]
  000ad	8b 02		 mov	 eax, DWORD PTR [edx]
  000af	8b 0c 85 00 00
	00 00		 mov	 ecx, DWORD PTR ?fn_set_ui_object_font_colour@@3PAP6GXPAUUI_OBJECT@@DDDD@ZA[eax*4]
  000b6	ff d1		 call	 ecx

; 136  : 	}
; 137  : 	else

  000b8	eb 32		 jmp	 SHORT $LN1@draw_chann
$LN4@draw_chann:

; 138  : 	{
; 139  : 		set_ui_object_font_colour (obj, ui_option_title_text_colour.r, ui_option_title_text_colour.g, ui_option_title_text_colour.b, ui_option_title_text_colour.a);

  000ba	0f b6 05 03 00
	00 00		 movzx	 eax, BYTE PTR ?ui_option_title_text_colour@@3UREAL_COLOUR@@A+3
  000c1	50		 push	 eax
  000c2	0f b6 0d 00 00
	00 00		 movzx	 ecx, BYTE PTR ?ui_option_title_text_colour@@3UREAL_COLOUR@@A
  000c9	51		 push	 ecx
  000ca	0f b6 15 01 00
	00 00		 movzx	 edx, BYTE PTR ?ui_option_title_text_colour@@3UREAL_COLOUR@@A+1
  000d1	52		 push	 edx
  000d2	0f b6 05 02 00
	00 00		 movzx	 eax, BYTE PTR ?ui_option_title_text_colour@@3UREAL_COLOUR@@A+2
  000d9	50		 push	 eax
  000da	8b 4d 08	 mov	 ecx, DWORD PTR _obj$[ebp]
  000dd	51		 push	 ecx
  000de	8b 55 08	 mov	 edx, DWORD PTR _obj$[ebp]
  000e1	8b 02		 mov	 eax, DWORD PTR [edx]
  000e3	8b 0c 85 00 00
	00 00		 mov	 ecx, DWORD PTR ?fn_set_ui_object_font_colour@@3PAP6GXPAUUI_OBJECT@@DDDD@ZA[eax*4]
  000ea	ff d1		 call	 ecx
$LN1@draw_chann:

; 140  : 	}
; 141  : }

  000ec	5f		 pop	 edi
  000ed	5e		 pop	 esi
  000ee	5b		 pop	 ebx
  000ef	8b e5		 mov	 esp, ebp
  000f1	5d		 pop	 ebp
  000f2	c2 08 00	 ret	 8
?draw_channel_volume@@YGXPAUUI_OBJECT@@PAX@Z ENDP	; draw_channel_volume
_TEXT	ENDS
; Function compile flags: /Odtp /ZI
; File c:\users\nhv90\projects\eech\aphavoc\source\ui_menu\options\op_insnd.c
;	COMDAT ?draw_channel_muted@@YGXPAUUI_OBJECT@@PAX@Z
_TEXT	SEGMENT
_channel$ = -8						; size = 4
_mute$ = -4						; size = 4
_obj$ = 8						; size = 4
_arg$ = 12						; size = 4
?draw_channel_muted@@YGXPAUUI_OBJECT@@PAX@Z PROC	; draw_channel_muted, COMDAT

; 89   : {

  00000	55		 push	 ebp
  00001	8b ec		 mov	 ebp, esp
  00003	83 ec 48	 sub	 esp, 72			; 00000048H
  00006	53		 push	 ebx
  00007	56		 push	 esi
  00008	57		 push	 edi

; 90   : 	int
; 91   : 		mute,
; 92   : 		channel;
; 93   : 
; 94   : 	channel = get_ui_object_item_number (obj);

  00009	8b 45 08	 mov	 eax, DWORD PTR _obj$[ebp]
  0000c	50		 push	 eax
  0000d	8b 4d 08	 mov	 ecx, DWORD PTR _obj$[ebp]
  00010	8b 11		 mov	 edx, DWORD PTR [ecx]
  00012	8b 04 95 00 00
	00 00		 mov	 eax, DWORD PTR ?fn_get_ui_object_item_number@@3PAP6GHPAUUI_OBJECT@@@ZA[edx*4]
  00019	ff d0		 call	 eax
  0001b	89 45 f8	 mov	 DWORD PTR _channel$[ebp], eax

; 95   : 
; 96   : 	ASSERT ((channel >= 0) && (channel < NUM_SOUND_CHANNEL_TYPES));

  0001e	83 7d f8 00	 cmp	 DWORD PTR _channel$[ebp], 0
  00022	7c 06		 jl	 SHORT $LN3@draw_chann
  00024	83 7d f8 07	 cmp	 DWORD PTR _channel$[ebp], 7
  00028	7c 18		 jl	 SHORT $LN2@draw_chann
$LN3@draw_chann:
  0002a	a1 00 00 00 00	 mov	 eax, DWORD PTR ?__LINE__Var@?0??draw_channel_muted@@YGXPAUUI_OBJECT@@PAX@Z@4JA
  0002f	83 c0 07	 add	 eax, 7
  00032	50		 push	 eax
  00033	68 00 00 00 00	 push	 OFFSET ??_C@_0EH@JHJCCJBD@c?3?2users?2nhv90?2projects?2eech?2ap@
  00038	68 00 00 00 00	 push	 OFFSET ??_C@_0DG@DPBCIMBL@?$CIchannel?5?$DO?$DN?50?$CJ?5?$CG?$CG?5?$CIchannel?5?$DM?5NU@
  0003d	e8 00 00 00 00	 call	 ?process_assert@@YGXPBD0H@Z ; process_assert
$LN2@draw_chann:

; 97   : 
; 98   : 	mute = get_sound_channel_muted (channel);

  00042	8b 45 f8	 mov	 eax, DWORD PTR _channel$[ebp]
  00045	50		 push	 eax
  00046	e8 00 00 00 00	 call	 ?get_sound_channel_muted@@YGHH@Z ; get_sound_channel_muted
  0004b	89 45 fc	 mov	 DWORD PTR _mute$[ebp], eax

; 99   : 
; 100  : 	if (mute)

  0004e	83 7d fc 00	 cmp	 DWORD PTR _mute$[ebp], 0
  00052	74 1f		 je	 SHORT $LN4@draw_chann

; 101  : 	{
; 102  : 		set_ui_object_text (obj, get_trans ("Off"));

  00054	68 00 00 00 00	 push	 OFFSET ??_C@_03GCDBBDDL@Off@
  00059	e8 00 00 00 00	 call	 ?get_trans@@YGPBDPBD@Z	; get_trans
  0005e	50		 push	 eax
  0005f	8b 45 08	 mov	 eax, DWORD PTR _obj$[ebp]
  00062	50		 push	 eax
  00063	8b 4d 08	 mov	 ecx, DWORD PTR _obj$[ebp]
  00066	8b 11		 mov	 edx, DWORD PTR [ecx]
  00068	8b 04 95 00 00
	00 00		 mov	 eax, DWORD PTR ?fn_set_ui_object_text@@3PAP6GXPAUUI_OBJECT@@PBD@ZA[edx*4]
  0006f	ff d0		 call	 eax

; 103  : 	}
; 104  : 	else

  00071	eb 1d		 jmp	 SHORT $LN1@draw_chann
$LN4@draw_chann:

; 105  : 	{
; 106  : 		set_ui_object_text (obj, get_trans ("On"));

  00073	68 00 00 00 00	 push	 OFFSET ??_C@_02IAAGKKDJ@On@
  00078	e8 00 00 00 00	 call	 ?get_trans@@YGPBDPBD@Z	; get_trans
  0007d	50		 push	 eax
  0007e	8b 45 08	 mov	 eax, DWORD PTR _obj$[ebp]
  00081	50		 push	 eax
  00082	8b 4d 08	 mov	 ecx, DWORD PTR _obj$[ebp]
  00085	8b 11		 mov	 edx, DWORD PTR [ecx]
  00087	8b 04 95 00 00
	00 00		 mov	 eax, DWORD PTR ?fn_set_ui_object_text@@3PAP6GXPAUUI_OBJECT@@PBD@ZA[edx*4]
  0008e	ff d0		 call	 eax
$LN1@draw_chann:

; 107  : 	}
; 108  : }

  00090	5f		 pop	 edi
  00091	5e		 pop	 esi
  00092	5b		 pop	 ebx
  00093	8b e5		 mov	 esp, ebp
  00095	5d		 pop	 ebp
  00096	c2 08 00	 ret	 8
?draw_channel_muted@@YGXPAUUI_OBJECT@@PAX@Z ENDP	; draw_channel_muted
_TEXT	ENDS
; Function compile flags: /Odtp /ZI
; File c:\users\nhv90\projects\eech\aphavoc\source\ui_menu\options\op_insnd.c
;	COMDAT ?define_options_screen_ingame_sound_page_objects@@YGXXZ
_TEXT	SEGMENT
_volume_area$ = -36					; size = 4
_channel_area$ = -32					; size = 4
_text_area$ = -28					; size = 4
_page$ = -24						; size = 4
_y2$ = -20						; size = 4
_x2$ = -16						; size = 4
_y1$ = -12						; size = 4
_x1$ = -8						; size = 4
_loop$ = -4						; size = 4
?define_options_screen_ingame_sound_page_objects@@YGXXZ PROC ; define_options_screen_ingame_sound_page_objects, COMDAT

; 213  : {

  00000	55		 push	 ebp
  00001	8b ec		 mov	 ebp, esp
  00003	83 ec 64	 sub	 esp, 100		; 00000064H
  00006	53		 push	 ebx
  00007	56		 push	 esi
  00008	57		 push	 edi

; 214  : 	int
; 215  : 		loop;
; 216  : 
; 217  : 	float
; 218  : 		x1,
; 219  : 		y1,
; 220  : 		x2,
; 221  : 		y2;
; 222  : 
; 223  : 	ui_object
; 224  : 		*page,
; 225  : 		*text_area,
; 226  : 		*channel_area,
; 227  : 		*volume_area;
; 228  : 
; 229  : 	/////////////////////////////////////////////////////////////////
; 230  : 	// sound Area
; 231  : 
; 232  : 	x1 = 0.0;

  00009	0f 57 c0	 xorps	 xmm0, xmm0
  0000c	f3 0f 11 45 f8	 movss	 DWORD PTR _x1$[ebp], xmm0

; 233  : 	y1 = 0.0;

  00011	0f 57 c0	 xorps	 xmm0, xmm0
  00014	f3 0f 11 45 f4	 movss	 DWORD PTR _y1$[ebp], xmm0

; 234  : 	x2 = 1.0;

  00019	f3 0f 10 05 00
	00 00 00	 movss	 xmm0, DWORD PTR __real@3f800000
  00021	f3 0f 11 45 f0	 movss	 DWORD PTR _x2$[ebp], xmm0

; 235  : 	y2 = 1.0;

  00026	f3 0f 10 05 00
	00 00 00	 movss	 xmm0, DWORD PTR __real@3f800000
  0002e	f3 0f 11 45 ec	 movss	 DWORD PTR _y2$[ebp], xmm0

; 236  : 
; 237  : 	options_page [OPTIONS_PAGE_INGAME_SOUND] = create_ui_object

  00033	6a 11		 push	 17			; 00000011H
  00035	6a 00		 push	 0
  00037	6a 16		 push	 22			; 00000016H
  00039	6a 00		 push	 0
  0003b	6a 10		 push	 16			; 00000010H
  0003d	6a 01		 push	 1
  0003f	6a 07		 push	 7
  00041	f3 0f 5a 45 ec	 cvtss2sd xmm0, DWORD PTR _y2$[ebp]
  00046	83 ec 08	 sub	 esp, 8
  00049	f2 0f 11 04 24	 movsd	 QWORD PTR [esp], xmm0
  0004e	f3 0f 5a 45 f0	 cvtss2sd xmm0, DWORD PTR _x2$[ebp]
  00053	83 ec 08	 sub	 esp, 8
  00056	f2 0f 11 04 24	 movsd	 QWORD PTR [esp], xmm0
  0005b	6a 59		 push	 89			; 00000059H
  0005d	f3 0f 5a 45 f4	 cvtss2sd xmm0, DWORD PTR _y1$[ebp]
  00062	83 ec 08	 sub	 esp, 8
  00065	f2 0f 11 04 24	 movsd	 QWORD PTR [esp], xmm0
  0006a	f3 0f 5a 45 f8	 cvtss2sd xmm0, DWORD PTR _x1$[ebp]
  0006f	83 ec 08	 sub	 esp, 8
  00072	f2 0f 11 04 24	 movsd	 QWORD PTR [esp], xmm0
  00077	6a 58		 push	 88			; 00000058H
  00079	a1 00 00 00 00	 mov	 eax, DWORD PTR ?options_screen@@3PAUUI_OBJECT@@A ; options_screen
  0007e	50		 push	 eax
  0007f	6a 32		 push	 50			; 00000032H
  00081	6a 01		 push	 1
  00083	e8 00 00 00 00	 call	 ?create_ui_object@@YAPAUUI_OBJECT@@HZZ ; create_ui_object
  00088	83 c4 50	 add	 esp, 80			; 00000050H
  0008b	b9 04 00 00 00	 mov	 ecx, 4
  00090	6b d1 05	 imul	 edx, ecx, 5
  00093	89 82 00 00 00
	00		 mov	 DWORD PTR ?options_page@@3PAPAUUI_OBJECT@@A[edx], eax

; 238  : 			(
; 239  : 				UI_TYPE_AREA,
; 240  : 				UI_ATTR_PARENT (options_screen),
; 241  : 				UI_ATTR_VIRTUAL_POSITION (x1, y1),
; 242  : 				UI_ATTR_VIRTUAL_SIZE (x2, y2),
; 243  : 				UI_ATTR_CLEAR (TRUE),
; 244  : 				UI_ATTR_DRAWABLE (FALSE),
; 245  : 				UI_ATTR_FUNCTION (NOTIFY_TYPE_NONE),
; 246  : 				UI_ATTR_END
; 247  : 			);
; 248  : 
; 249  : 	page = options_page [OPTIONS_PAGE_INGAME_SOUND];

  00099	b8 04 00 00 00	 mov	 eax, 4
  0009e	6b c8 05	 imul	 ecx, eax, 5
  000a1	8b 91 00 00 00
	00		 mov	 edx, DWORD PTR ?options_page@@3PAPAUUI_OBJECT@@A[ecx]
  000a7	89 55 e8	 mov	 DWORD PTR _page$[ebp], edx

; 250  : 
; 251  : 	//
; 252  : 	// Channel Options
; 253  : 	//
; 254  : 
; 255  : 	x1 = 0.0;

  000aa	0f 57 c0	 xorps	 xmm0, xmm0
  000ad	f3 0f 11 45 f8	 movss	 DWORD PTR _x1$[ebp], xmm0

; 256  : 	y1 = 0.0;

  000b2	0f 57 c0	 xorps	 xmm0, xmm0
  000b5	f3 0f 11 45 f4	 movss	 DWORD PTR _y1$[ebp], xmm0

; 257  : 
; 258  : 	x2 = 1.0;

  000ba	f3 0f 10 05 00
	00 00 00	 movss	 xmm0, DWORD PTR __real@3f800000
  000c2	f3 0f 11 45 f0	 movss	 DWORD PTR _x2$[ebp], xmm0

; 259  : 	y2 = 1.0;

  000c7	f3 0f 10 05 00
	00 00 00	 movss	 xmm0, DWORD PTR __real@3f800000
  000cf	f3 0f 11 45 ec	 movss	 DWORD PTR _y2$[ebp], xmm0

; 260  : 
; 261  :    channel_area = create_ui_object

  000d4	6a 11		 push	 17			; 00000011H
  000d6	68 ff 00 00 00	 push	 255			; 000000ffH
  000db	68 ff 00 00 00	 push	 255			; 000000ffH
  000e0	68 ff 00 00 00	 push	 255			; 000000ffH
  000e5	68 ff 00 00 00	 push	 255			; 000000ffH
  000ea	6a 0a		 push	 10			; 0000000aH
  000ec	6a 00		 push	 0
  000ee	6a 00		 push	 0
  000f0	6a 00		 push	 0
  000f2	6a 00		 push	 0
  000f4	6a 0b		 push	 11			; 0000000bH
  000f6	6a 01		 push	 1
  000f8	6a 07		 push	 7
  000fa	f3 0f 10 45 ec	 movss	 xmm0, DWORD PTR _y2$[ebp]
  000ff	f3 0f 5c 45 f4	 subss	 xmm0, DWORD PTR _y1$[ebp]
  00104	f3 0f 5a c0	 cvtss2sd xmm0, xmm0
  00108	83 ec 08	 sub	 esp, 8
  0010b	f2 0f 11 04 24	 movsd	 QWORD PTR [esp], xmm0
  00110	f3 0f 10 45 f0	 movss	 xmm0, DWORD PTR _x2$[ebp]
  00115	f3 0f 5c 45 f8	 subss	 xmm0, DWORD PTR _x1$[ebp]
  0011a	f3 0f 5a c0	 cvtss2sd xmm0, xmm0
  0011e	83 ec 08	 sub	 esp, 8
  00121	f2 0f 11 04 24	 movsd	 QWORD PTR [esp], xmm0
  00126	6a 59		 push	 89			; 00000059H
  00128	f3 0f 5a 45 f4	 cvtss2sd xmm0, DWORD PTR _y1$[ebp]
  0012d	83 ec 08	 sub	 esp, 8
  00130	f2 0f 11 04 24	 movsd	 QWORD PTR [esp], xmm0
  00135	f3 0f 5a 45 f8	 cvtss2sd xmm0, DWORD PTR _x1$[ebp]
  0013a	83 ec 08	 sub	 esp, 8
  0013d	f2 0f 11 04 24	 movsd	 QWORD PTR [esp], xmm0
  00142	6a 58		 push	 88			; 00000058H
  00144	8b 45 e8	 mov	 eax, DWORD PTR _page$[ebp]
  00147	50		 push	 eax
  00148	6a 32		 push	 50			; 00000032H
  0014a	6a 01		 push	 1
  0014c	e8 00 00 00 00	 call	 ?create_ui_object@@YAPAUUI_OBJECT@@HZZ ; create_ui_object
  00151	83 c4 68	 add	 esp, 104		; 00000068H
  00154	89 45 e0	 mov	 DWORD PTR _channel_area$[ebp], eax

; 262  : 	(
; 263  : 		UI_TYPE_AREA,
; 264  : 		UI_ATTR_PARENT (page),
; 265  : 		UI_ATTR_VIRTUAL_POSITION (x1, y1),
; 266  : 		UI_ATTR_VIRTUAL_SIZE (x2 - x1, y2 - y1),
; 267  : 		UI_ATTR_CLEAR (TRUE),
; 268  : 		UI_ATTR_COLOUR_START (0,0,0,0),
; 269  : 		UI_ATTR_COLOUR_END (255,255,255,255),
; 270  : 		UI_ATTR_END
; 271  : 	);
; 272  : 
; 273  : 	for (loop = 0; loop < NUM_SOUND_CHANNEL_TYPES; loop ++)

  00157	c7 45 fc 00 00
	00 00		 mov	 DWORD PTR _loop$[ebp], 0
  0015e	eb 09		 jmp	 SHORT $LN4@define_opt
$LN2@define_opt:
  00160	8b 45 fc	 mov	 eax, DWORD PTR _loop$[ebp]
  00163	83 c0 01	 add	 eax, 1
  00166	89 45 fc	 mov	 DWORD PTR _loop$[ebp], eax
$LN4@define_opt:
  00169	83 7d fc 07	 cmp	 DWORD PTR _loop$[ebp], 7
  0016d	0f 8d f7 05 00
	00		 jge	 $LN3@define_opt

; 274  : 	{
; 275  : 		y1 = OPTION_TITLE_OFFSET_Y	+ (loop * OPTION_AREA_OFFSET_Y);

  00173	f3 0f 2a 45 fc	 cvtsi2ss xmm0, DWORD PTR _loop$[ebp]
  00178	f3 0f 59 05 00
	00 00 00	 mulss	 xmm0, DWORD PTR __real@3d7df3b6
  00180	f3 0f 58 05 00
	00 00 00	 addss	 xmm0, DWORD PTR __real@3e851eb8
  00188	f3 0f 11 45 f4	 movss	 DWORD PTR _y1$[ebp], xmm0

; 276  : 		y2 = y1 + OPTION_AREA_HEIGHT;

  0018d	f3 0f 10 45 f4	 movss	 xmm0, DWORD PTR _y1$[ebp]
  00192	f3 0f 58 05 00
	00 00 00	 addss	 xmm0, DWORD PTR __real@3d6d9168
  0019a	f3 0f 11 45 ec	 movss	 DWORD PTR _y2$[ebp], xmm0

; 277  : 
; 278  : 		//
; 279  : 		// Description
; 280  : 		//
; 281  : 		
; 282  : 		x1 = OPTION_TITLE_OFFSET_X;

  0019f	f3 0f 10 05 00
	00 00 00	 movss	 xmm0, DWORD PTR __real@3def9db2
  001a7	f3 0f 11 45 f8	 movss	 DWORD PTR _x1$[ebp], xmm0

; 283  : 		x2 = x1 + 0.4;

  001ac	f3 0f 5a 45 f8	 cvtss2sd xmm0, DWORD PTR _x1$[ebp]
  001b1	f2 0f 58 05 00
	00 00 00	 addsd	 xmm0, QWORD PTR __real@3fd999999999999a
  001b9	f2 0f 5a c0	 cvtsd2ss xmm0, xmm0
  001bd	f3 0f 11 45 f0	 movss	 DWORD PTR _x2$[ebp], xmm0

; 284  : 
; 285  : 		text_area = create_ui_object

  001c2	6a 11		 push	 17			; 00000011H
  001c4	68 ff 00 00 00	 push	 255			; 000000ffH
  001c9	68 ff 00 00 00	 push	 255			; 000000ffH
  001ce	68 ff 00 00 00	 push	 255			; 000000ffH
  001d3	68 ff 00 00 00	 push	 255			; 000000ffH
  001d8	6a 0a		 push	 10			; 0000000aH
  001da	6a 00		 push	 0
  001dc	68 ff 00 00 00	 push	 255			; 000000ffH
  001e1	68 ff 00 00 00	 push	 255			; 000000ffH
  001e6	68 ff 00 00 00	 push	 255			; 000000ffH
  001eb	6a 0b		 push	 11			; 0000000bH
  001ed	a1 00 00 00 00	 mov	 eax, DWORD PTR ?options_box_large@@3PAUTEXTURE_GRAPHIC@@A ; options_box_large
  001f2	50		 push	 eax
  001f3	6a 4c		 push	 76			; 0000004cH
  001f5	f3 0f 10 45 ec	 movss	 xmm0, DWORD PTR _y2$[ebp]
  001fa	f3 0f 5c 45 f4	 subss	 xmm0, DWORD PTR _y1$[ebp]
  001ff	f3 0f 5a c0	 cvtss2sd xmm0, xmm0
  00203	83 ec 08	 sub	 esp, 8
  00206	f2 0f 11 04 24	 movsd	 QWORD PTR [esp], xmm0
  0020b	f3 0f 10 45 f0	 movss	 xmm0, DWORD PTR _x2$[ebp]
  00210	f3 0f 5c 45 f8	 subss	 xmm0, DWORD PTR _x1$[ebp]
  00215	f3 0f 5a c0	 cvtss2sd xmm0, xmm0
  00219	83 ec 08	 sub	 esp, 8
  0021c	f2 0f 11 04 24	 movsd	 QWORD PTR [esp], xmm0
  00221	6a 59		 push	 89			; 00000059H
  00223	f3 0f 5a 45 f4	 cvtss2sd xmm0, DWORD PTR _y1$[ebp]
  00228	83 ec 08	 sub	 esp, 8
  0022b	f2 0f 11 04 24	 movsd	 QWORD PTR [esp], xmm0
  00230	f3 0f 5a 45 f8	 cvtss2sd xmm0, DWORD PTR _x1$[ebp]
  00235	83 ec 08	 sub	 esp, 8
  00238	f2 0f 11 04 24	 movsd	 QWORD PTR [esp], xmm0
  0023d	6a 58		 push	 88			; 00000058H
  0023f	8b 4d e0	 mov	 ecx, DWORD PTR _channel_area$[ebp]
  00242	51		 push	 ecx
  00243	6a 32		 push	 50			; 00000032H
  00245	6a 01		 push	 1
  00247	e8 00 00 00 00	 call	 ?create_ui_object@@YAPAUUI_OBJECT@@HZZ ; create_ui_object
  0024c	83 c4 68	 add	 esp, 104		; 00000068H
  0024f	89 45 e4	 mov	 DWORD PTR _text_area$[ebp], eax

; 286  : 		(
; 287  : 			UI_TYPE_AREA,
; 288  : 			UI_ATTR_PARENT (channel_area),
; 289  : 			UI_ATTR_VIRTUAL_POSITION (x1, y1),
; 290  : 			UI_ATTR_VIRTUAL_SIZE (x2 - x1, y2 - y1),
; 291  : 			UI_ATTR_TEXTURE_GRAPHIC (options_box_large),
; 292  : 			UI_ATTR_COLOUR_START (255,255,255,0),
; 293  :    	   UI_ATTR_COLOUR_END (255,255,255,255),
; 294  : 			UI_ATTR_END
; 295  : 		);
; 296  : 
; 297  : 		create_ui_object

  00252	6a 11		 push	 17			; 00000011H
  00254	8b 45 fc	 mov	 eax, DWORD PTR _loop$[ebp]
  00257	50		 push	 eax
  00258	e8 00 00 00 00	 call	 ?get_sound_channel_name@@YGPBDH@Z ; get_sound_channel_name
  0025d	50		 push	 eax
  0025e	e8 00 00 00 00	 call	 ?get_trans@@YGPBDPBD@Z	; get_trans
  00263	50		 push	 eax
  00264	6a 4a		 push	 74			; 0000004aH
  00266	6a 02		 push	 2
  00268	6a 4b		 push	 75			; 0000004bH
  0026a	68 ff 00 00 00	 push	 255			; 000000ffH
  0026f	0f b6 0d 00 00
	00 00		 movzx	 ecx, BYTE PTR ?ui_option_title_text_colour@@3UREAL_COLOUR@@A
  00276	51		 push	 ecx
  00277	0f b6 15 01 00
	00 00		 movzx	 edx, BYTE PTR ?ui_option_title_text_colour@@3UREAL_COLOUR@@A+1
  0027e	52		 push	 edx
  0027f	0f b6 05 02 00
	00 00		 movzx	 eax, BYTE PTR ?ui_option_title_text_colour@@3UREAL_COLOUR@@A+2
  00286	50		 push	 eax
  00287	6a 14		 push	 20			; 00000014H
  00289	6a 00		 push	 0
  0028b	0f b6 0d 00 00
	00 00		 movzx	 ecx, BYTE PTR ?ui_option_title_text_colour@@3UREAL_COLOUR@@A
  00292	51		 push	 ecx
  00293	0f b6 15 01 00
	00 00		 movzx	 edx, BYTE PTR ?ui_option_title_text_colour@@3UREAL_COLOUR@@A+1
  0029a	52		 push	 edx
  0029b	0f b6 05 02 00
	00 00		 movzx	 eax, BYTE PTR ?ui_option_title_text_colour@@3UREAL_COLOUR@@A+2
  002a2	50		 push	 eax
  002a3	6a 15		 push	 21			; 00000015H
  002a5	6a 06		 push	 6
  002a7	6a 12		 push	 18			; 00000012H
  002a9	83 ec 08	 sub	 esp, 8
  002ac	f2 0f 10 05 00
	00 00 00	 movsd	 xmm0, QWORD PTR __real@3fc24dd300000000
  002b4	f2 0f 11 04 24	 movsd	 QWORD PTR [esp], xmm0
  002b9	83 ec 08	 sub	 esp, 8
  002bc	f2 0f 10 05 00
	00 00 00	 movsd	 xmm0, QWORD PTR __real@3fee666660000000
  002c4	f2 0f 11 04 24	 movsd	 QWORD PTR [esp], xmm0
  002c9	6a 58		 push	 88			; 00000058H
  002cb	8b 4d e4	 mov	 ecx, DWORD PTR _text_area$[ebp]
  002ce	51		 push	 ecx
  002cf	6a 32		 push	 50			; 00000032H
  002d1	6a 05		 push	 5
  002d3	e8 00 00 00 00	 call	 ?create_ui_object@@YAPAUUI_OBJECT@@HZZ ; create_ui_object
  002d8	83 c4 64	 add	 esp, 100		; 00000064H

; 298  : 		(
; 299  : 			UI_TYPE_TEXT,
; 300  : 			UI_ATTR_PARENT (text_area),
; 301  : 			UI_ATTR_VIRTUAL_POSITION (OPTION_BOX_TEXT_OFFSET_X, OPTION_BOX_TEXT_OFFSET_Y),
; 302  : 			UI_ATTR_FONT_TYPE (UI_FONT_THICK_ARIAL_18),
; 303  : 			UI_ATTR_FONT_COLOUR_START (ui_option_title_text_colour.r, ui_option_title_text_colour.g, ui_option_title_text_colour.b, 0),
; 304  : 			UI_ATTR_FONT_COLOUR_END (ui_option_title_text_colour.r, ui_option_title_text_colour.g, ui_option_title_text_colour.b, 255),
; 305  : 			UI_ATTR_TEXT_JUSTIFY (TEXT_JUSTIFY_RIGHT_CENTRE),
; 306  : 			UI_ATTR_TEXT (get_trans (get_sound_channel_name (loop))),
; 307  : 			UI_ATTR_END
; 308  : 		);
; 309  : 
; 310  : 		//
; 311  : 		// Volume Controls
; 312  : 		//
; 313  : 		
; 314  : 		x1 = x2 + OPTION_BOX_GAP_WIDTH;

  002db	f3 0f 10 45 f0	 movss	 xmm0, DWORD PTR _x2$[ebp]
  002e0	f3 0f 58 05 00
	00 00 00	 addss	 xmm0, DWORD PTR __real@3b2a64c3
  002e8	f3 0f 11 45 f8	 movss	 DWORD PTR _x1$[ebp], xmm0

; 315  : 		x2 = x1 + 0.12;

  002ed	f3 0f 5a 45 f8	 cvtss2sd xmm0, DWORD PTR _x1$[ebp]
  002f2	f2 0f 58 05 00
	00 00 00	 addsd	 xmm0, QWORD PTR __real@3fbeb851eb851eb8
  002fa	f2 0f 5a c0	 cvtsd2ss xmm0, xmm0
  002fe	f3 0f 11 45 f0	 movss	 DWORD PTR _x2$[ebp], xmm0

; 316  : 
; 317  : 		volume_area = create_ui_object

  00303	6a 11		 push	 17			; 00000011H
  00305	a1 00 00 00 00	 mov	 eax, DWORD PTR ?options_box_large@@3PAUTEXTURE_GRAPHIC@@A ; options_box_large
  0030a	50		 push	 eax
  0030b	6a 4c		 push	 76			; 0000004cH
  0030d	68 ff 00 00 00	 push	 255			; 000000ffH
  00312	68 ff 00 00 00	 push	 255			; 000000ffH
  00317	68 ff 00 00 00	 push	 255			; 000000ffH
  0031c	68 ff 00 00 00	 push	 255			; 000000ffH
  00321	6a 0a		 push	 10			; 0000000aH
  00323	6a 00		 push	 0
  00325	68 ff 00 00 00	 push	 255			; 000000ffH
  0032a	68 ff 00 00 00	 push	 255			; 000000ffH
  0032f	68 ff 00 00 00	 push	 255			; 000000ffH
  00334	6a 0b		 push	 11			; 0000000bH
  00336	f3 0f 10 45 ec	 movss	 xmm0, DWORD PTR _y2$[ebp]
  0033b	f3 0f 5c 45 f4	 subss	 xmm0, DWORD PTR _y1$[ebp]
  00340	f3 0f 5a c0	 cvtss2sd xmm0, xmm0
  00344	83 ec 08	 sub	 esp, 8
  00347	f2 0f 11 04 24	 movsd	 QWORD PTR [esp], xmm0
  0034c	f3 0f 10 45 f0	 movss	 xmm0, DWORD PTR _x2$[ebp]
  00351	f3 0f 5c 45 f8	 subss	 xmm0, DWORD PTR _x1$[ebp]
  00356	f3 0f 5a c0	 cvtss2sd xmm0, xmm0
  0035a	83 ec 08	 sub	 esp, 8
  0035d	f2 0f 11 04 24	 movsd	 QWORD PTR [esp], xmm0
  00362	6a 59		 push	 89			; 00000059H
  00364	f3 0f 5a 45 f4	 cvtss2sd xmm0, DWORD PTR _y1$[ebp]
  00369	83 ec 08	 sub	 esp, 8
  0036c	f2 0f 11 04 24	 movsd	 QWORD PTR [esp], xmm0
  00371	f3 0f 5a 45 f8	 cvtss2sd xmm0, DWORD PTR _x1$[ebp]
  00376	83 ec 08	 sub	 esp, 8
  00379	f2 0f 11 04 24	 movsd	 QWORD PTR [esp], xmm0
  0037e	6a 58		 push	 88			; 00000058H
  00380	8b 4d e0	 mov	 ecx, DWORD PTR _channel_area$[ebp]
  00383	51		 push	 ecx
  00384	6a 32		 push	 50			; 00000032H
  00386	6a 01		 push	 1
  00388	e8 00 00 00 00	 call	 ?create_ui_object@@YAPAUUI_OBJECT@@HZZ ; create_ui_object
  0038d	83 c4 68	 add	 esp, 104		; 00000068H
  00390	89 45 dc	 mov	 DWORD PTR _volume_area$[ebp], eax

; 318  : 		(
; 319  : 			UI_TYPE_AREA,
; 320  : 			UI_ATTR_PARENT (channel_area),
; 321  : 			UI_ATTR_VIRTUAL_POSITION (x1, y1),
; 322  : 			UI_ATTR_VIRTUAL_SIZE (x2 - x1, y2 - y1),
; 323  : 			UI_ATTR_COLOUR_START (255,255,255,0),
; 324  : 			UI_ATTR_COLOUR_END (255,255,255,255),
; 325  : 			UI_ATTR_TEXTURE_GRAPHIC (options_box_large),
; 326  : 			UI_ATTR_END
; 327  : 		);
; 328  : 
; 329  : 		create_ui_object

  00393	6a 11		 push	 17			; 00000011H
  00395	6a 01		 push	 1
  00397	6a 07		 push	 7
  00399	6a 01		 push	 1
  0039b	6a 1b		 push	 27			; 0000001bH
  0039d	68 ff 00 00 00	 push	 255			; 000000ffH
  003a2	0f b6 05 00 00
	00 00		 movzx	 eax, BYTE PTR ?ui_option_text_hilite_colour@@3UREAL_COLOUR@@A
  003a9	50		 push	 eax
  003aa	0f b6 0d 01 00
	00 00		 movzx	 ecx, BYTE PTR ?ui_option_text_hilite_colour@@3UREAL_COLOUR@@A+1
  003b1	51		 push	 ecx
  003b2	0f b6 15 02 00
	00 00		 movzx	 edx, BYTE PTR ?ui_option_text_hilite_colour@@3UREAL_COLOUR@@A+2
  003b9	52		 push	 edx
  003ba	6a 22		 push	 34			; 00000022H
  003bc	6a 00		 push	 0
  003be	0f b6 05 00 00
	00 00		 movzx	 eax, BYTE PTR ?ui_option_text_hilite_colour@@3UREAL_COLOUR@@A
  003c5	50		 push	 eax
  003c6	0f b6 0d 01 00
	00 00		 movzx	 ecx, BYTE PTR ?ui_option_text_hilite_colour@@3UREAL_COLOUR@@A+1
  003cd	51		 push	 ecx
  003ce	0f b6 15 02 00
	00 00		 movzx	 edx, BYTE PTR ?ui_option_text_hilite_colour@@3UREAL_COLOUR@@A+2
  003d5	52		 push	 edx
  003d6	6a 23		 push	 35			; 00000023H
  003d8	68 ff 00 00 00	 push	 255			; 000000ffH
  003dd	0f b6 05 00 00
	00 00		 movzx	 eax, BYTE PTR ?ui_option_text_default_colour@@3UREAL_COLOUR@@A
  003e4	50		 push	 eax
  003e5	0f b6 0d 01 00
	00 00		 movzx	 ecx, BYTE PTR ?ui_option_text_default_colour@@3UREAL_COLOUR@@A+1
  003ec	51		 push	 ecx
  003ed	0f b6 15 02 00
	00 00		 movzx	 edx, BYTE PTR ?ui_option_text_default_colour@@3UREAL_COLOUR@@A+2
  003f4	52		 push	 edx
  003f5	6a 14		 push	 20			; 00000014H
  003f7	6a 00		 push	 0
  003f9	0f b6 05 00 00
	00 00		 movzx	 eax, BYTE PTR ?ui_option_text_default_colour@@3UREAL_COLOUR@@A
  00400	50		 push	 eax
  00401	0f b6 0d 01 00
	00 00		 movzx	 ecx, BYTE PTR ?ui_option_text_default_colour@@3UREAL_COLOUR@@A+1
  00408	51		 push	 ecx
  00409	0f b6 15 02 00
	00 00		 movzx	 edx, BYTE PTR ?ui_option_text_default_colour@@3UREAL_COLOUR@@A+2
  00410	52		 push	 edx
  00411	6a 15		 push	 21			; 00000015H
  00413	6a 08		 push	 8
  00415	6a 12		 push	 18			; 00000012H
  00417	68 00 00 00 00	 push	 OFFSET ?decrease_channel_volume@@YGXPAUUI_OBJECT@@PAX@Z ; decrease_channel_volume
  0041c	6a 16		 push	 22			; 00000016H
  0041e	8b 45 fc	 mov	 eax, DWORD PTR _loop$[ebp]
  00421	50		 push	 eax
  00422	6a 29		 push	 41			; 00000029H
  00424	68 00 00 00 00	 push	 OFFSET ??_C@_01JOAMLHOP@?9@
  00429	6a 4a		 push	 74			; 0000004aH
  0042b	83 ec 08	 sub	 esp, 8
  0042e	f2 0f 10 05 00
	00 00 00	 movsd	 xmm0, QWORD PTR __real@3ff0000000000000
  00436	f2 0f 11 04 24	 movsd	 QWORD PTR [esp], xmm0
  0043b	83 ec 08	 sub	 esp, 8
  0043e	f2 0f 10 05 00
	00 00 00	 movsd	 xmm0, QWORD PTR __real@3fd51eb851eb851f
  00446	f2 0f 11 04 24	 movsd	 QWORD PTR [esp], xmm0
  0044b	6a 59		 push	 89			; 00000059H
  0044d	83 ec 08	 sub	 esp, 8
  00450	0f 57 c0	 xorps	 xmm0, xmm0
  00453	f2 0f 11 04 24	 movsd	 QWORD PTR [esp], xmm0
  00458	83 ec 08	 sub	 esp, 8
  0045b	0f 57 c0	 xorps	 xmm0, xmm0
  0045e	f2 0f 11 04 24	 movsd	 QWORD PTR [esp], xmm0
  00463	6a 58		 push	 88			; 00000058H
  00465	8b 4d dc	 mov	 ecx, DWORD PTR _volume_area$[ebp]
  00468	51		 push	 ecx
  00469	6a 32		 push	 50			; 00000032H
  0046b	6a 01		 push	 1
  0046d	e8 00 00 00 00	 call	 ?create_ui_object@@YAPAUUI_OBJECT@@HZZ ; create_ui_object
  00472	81 c4 b8 00 00
	00		 add	 esp, 184		; 000000b8H

; 330  : 		(
; 331  : 			UI_TYPE_AREA,
; 332  : 			UI_ATTR_PARENT (volume_area),
; 333  : 			UI_ATTR_VIRTUAL_POSITION (0.0, 0.0),
; 334  : 			UI_ATTR_VIRTUAL_SIZE (0.33, 1.0),
; 335  : 			UI_ATTR_TEXT ("-"),
; 336  : 			UI_ATTR_ITEM_NUMBER (loop),
; 337  : 			UI_ATTR_FUNCTION (decrease_channel_volume),
; 338  : 			UI_ATTR_FONT_TYPE (UI_FONT_THICK_ITALIC_ARIAL_18),
; 339  : 	      UI_ATTR_FONT_COLOUR_START (ui_option_text_default_colour.r, ui_option_text_default_colour.g, ui_option_text_default_colour.b, 0),
; 340  :    	   UI_ATTR_FONT_COLOUR_END (ui_option_text_default_colour.r, ui_option_text_default_colour.g, ui_option_text_default_colour.b, 255),
; 341  : 	      UI_ATTR_HIGHLIGHTED_FONT_COLOUR_START (ui_option_text_hilite_colour.r, ui_option_text_hilite_colour.g, ui_option_text_hilite_colour.b, 0),
; 342  :    	   UI_ATTR_HIGHLIGHTED_FONT_COLOUR_END (ui_option_text_hilite_colour.r, ui_option_text_hilite_colour.g, ui_option_text_hilite_colour.b, 255),
; 343  : 			UI_ATTR_HIGHLIGHTABLE (TRUE),
; 344  : 			UI_ATTR_CLEAR (TRUE),
; 345  : 			UI_ATTR_END
; 346  : 		);
; 347  : 
; 348  : 		create_ui_object

  00478	6a 11		 push	 17			; 00000011H
  0047a	6a 01		 push	 1
  0047c	6a 07		 push	 7
  0047e	68 00 00 00 00	 push	 OFFSET ?increase_channel_volume@@YGXPAUUI_OBJECT@@PAX@Z ; increase_channel_volume
  00483	6a 16		 push	 22			; 00000016H
  00485	6a 01		 push	 1
  00487	6a 1b		 push	 27			; 0000001bH
  00489	68 ff 00 00 00	 push	 255			; 000000ffH
  0048e	0f b6 05 00 00
	00 00		 movzx	 eax, BYTE PTR ?ui_option_text_hilite_colour@@3UREAL_COLOUR@@A
  00495	50		 push	 eax
  00496	0f b6 0d 01 00
	00 00		 movzx	 ecx, BYTE PTR ?ui_option_text_hilite_colour@@3UREAL_COLOUR@@A+1
  0049d	51		 push	 ecx
  0049e	0f b6 15 02 00
	00 00		 movzx	 edx, BYTE PTR ?ui_option_text_hilite_colour@@3UREAL_COLOUR@@A+2
  004a5	52		 push	 edx
  004a6	6a 22		 push	 34			; 00000022H
  004a8	6a 00		 push	 0
  004aa	0f b6 05 00 00
	00 00		 movzx	 eax, BYTE PTR ?ui_option_text_hilite_colour@@3UREAL_COLOUR@@A
  004b1	50		 push	 eax
  004b2	0f b6 0d 01 00
	00 00		 movzx	 ecx, BYTE PTR ?ui_option_text_hilite_colour@@3UREAL_COLOUR@@A+1
  004b9	51		 push	 ecx
  004ba	0f b6 15 02 00
	00 00		 movzx	 edx, BYTE PTR ?ui_option_text_hilite_colour@@3UREAL_COLOUR@@A+2
  004c1	52		 push	 edx
  004c2	6a 23		 push	 35			; 00000023H
  004c4	68 ff 00 00 00	 push	 255			; 000000ffH
  004c9	0f b6 05 00 00
	00 00		 movzx	 eax, BYTE PTR ?ui_option_text_default_colour@@3UREAL_COLOUR@@A
  004d0	50		 push	 eax
  004d1	0f b6 0d 01 00
	00 00		 movzx	 ecx, BYTE PTR ?ui_option_text_default_colour@@3UREAL_COLOUR@@A+1
  004d8	51		 push	 ecx
  004d9	0f b6 15 02 00
	00 00		 movzx	 edx, BYTE PTR ?ui_option_text_default_colour@@3UREAL_COLOUR@@A+2
  004e0	52		 push	 edx
  004e1	6a 14		 push	 20			; 00000014H
  004e3	6a 00		 push	 0
  004e5	0f b6 05 00 00
	00 00		 movzx	 eax, BYTE PTR ?ui_option_text_default_colour@@3UREAL_COLOUR@@A
  004ec	50		 push	 eax
  004ed	0f b6 0d 01 00
	00 00		 movzx	 ecx, BYTE PTR ?ui_option_text_default_colour@@3UREAL_COLOUR@@A+1
  004f4	51		 push	 ecx
  004f5	0f b6 15 02 00
	00 00		 movzx	 edx, BYTE PTR ?ui_option_text_default_colour@@3UREAL_COLOUR@@A+2
  004fc	52		 push	 edx
  004fd	6a 15		 push	 21			; 00000015H
  004ff	6a 08		 push	 8
  00501	6a 12		 push	 18			; 00000012H
  00503	8b 45 fc	 mov	 eax, DWORD PTR _loop$[ebp]
  00506	50		 push	 eax
  00507	6a 29		 push	 41			; 00000029H
  00509	68 00 00 00 00	 push	 OFFSET ??_C@_01MIFGBAGJ@?$CL@
  0050e	6a 4a		 push	 74			; 0000004aH
  00510	83 ec 08	 sub	 esp, 8
  00513	f2 0f 10 05 00
	00 00 00	 movsd	 xmm0, QWORD PTR __real@3ff0000000000000
  0051b	f2 0f 11 04 24	 movsd	 QWORD PTR [esp], xmm0
  00520	83 ec 08	 sub	 esp, 8
  00523	f2 0f 10 05 00
	00 00 00	 movsd	 xmm0, QWORD PTR __real@3fd51eb851eb851f
  0052b	f2 0f 11 04 24	 movsd	 QWORD PTR [esp], xmm0
  00530	6a 59		 push	 89			; 00000059H
  00532	83 ec 08	 sub	 esp, 8
  00535	0f 57 c0	 xorps	 xmm0, xmm0
  00538	f2 0f 11 04 24	 movsd	 QWORD PTR [esp], xmm0
  0053d	83 ec 08	 sub	 esp, 8
  00540	f2 0f 10 05 00
	00 00 00	 movsd	 xmm0, QWORD PTR __real@3fe570a3d70a3d71
  00548	f2 0f 11 04 24	 movsd	 QWORD PTR [esp], xmm0
  0054d	6a 58		 push	 88			; 00000058H
  0054f	8b 4d dc	 mov	 ecx, DWORD PTR _volume_area$[ebp]
  00552	51		 push	 ecx
  00553	6a 32		 push	 50			; 00000032H
  00555	6a 01		 push	 1
  00557	e8 00 00 00 00	 call	 ?create_ui_object@@YAPAUUI_OBJECT@@HZZ ; create_ui_object
  0055c	81 c4 b8 00 00
	00		 add	 esp, 184		; 000000b8H

; 349  : 		(
; 350  : 			UI_TYPE_AREA,
; 351  : 			UI_ATTR_PARENT (volume_area),
; 352  : 			UI_ATTR_VIRTUAL_POSITION (0.67, 0.0),
; 353  : 			UI_ATTR_VIRTUAL_SIZE (0.33, 1.0),
; 354  : 			UI_ATTR_TEXT ("+"),
; 355  : 			UI_ATTR_ITEM_NUMBER (loop),
; 356  : 			UI_ATTR_FONT_TYPE (UI_FONT_THICK_ITALIC_ARIAL_18),
; 357  : 	      UI_ATTR_FONT_COLOUR_START (ui_option_text_default_colour.r, ui_option_text_default_colour.g, ui_option_text_default_colour.b, 0),
; 358  :    	   UI_ATTR_FONT_COLOUR_END (ui_option_text_default_colour.r, ui_option_text_default_colour.g, ui_option_text_default_colour.b, 255),
; 359  : 	      UI_ATTR_HIGHLIGHTED_FONT_COLOUR_START (ui_option_text_hilite_colour.r, ui_option_text_hilite_colour.g, ui_option_text_hilite_colour.b, 0),
; 360  :    	   UI_ATTR_HIGHLIGHTED_FONT_COLOUR_END (ui_option_text_hilite_colour.r, ui_option_text_hilite_colour.g, ui_option_text_hilite_colour.b, 255),
; 361  : 			UI_ATTR_HIGHLIGHTABLE (TRUE),
; 362  : 			UI_ATTR_FUNCTION (increase_channel_volume),
; 363  : 			UI_ATTR_CLEAR (TRUE),
; 364  : 			UI_ATTR_END
; 365  : 		);
; 366  : 
; 367  : 		create_ui_object

  00562	6a 11		 push	 17			; 00000011H
  00564	6a 01		 push	 1
  00566	6a 07		 push	 7
  00568	68 00 00 00 00	 push	 OFFSET ?draw_channel_volume@@YGXPAUUI_OBJECT@@PAX@Z ; draw_channel_volume
  0056d	6a 0f		 push	 15			; 0000000fH
  0056f	68 ff 00 00 00	 push	 255			; 000000ffH
  00574	0f b6 05 00 00
	00 00		 movzx	 eax, BYTE PTR ?ui_option_title_text_colour@@3UREAL_COLOUR@@A
  0057b	50		 push	 eax
  0057c	0f b6 0d 01 00
	00 00		 movzx	 ecx, BYTE PTR ?ui_option_title_text_colour@@3UREAL_COLOUR@@A+1
  00583	51		 push	 ecx
  00584	0f b6 15 02 00
	00 00		 movzx	 edx, BYTE PTR ?ui_option_title_text_colour@@3UREAL_COLOUR@@A+2
  0058b	52		 push	 edx
  0058c	6a 14		 push	 20			; 00000014H
  0058e	6a 00		 push	 0
  00590	0f b6 05 00 00
	00 00		 movzx	 eax, BYTE PTR ?ui_option_title_text_colour@@3UREAL_COLOUR@@A
  00597	50		 push	 eax
  00598	0f b6 0d 01 00
	00 00		 movzx	 ecx, BYTE PTR ?ui_option_title_text_colour@@3UREAL_COLOUR@@A+1
  0059f	51		 push	 ecx
  005a0	0f b6 15 02 00
	00 00		 movzx	 edx, BYTE PTR ?ui_option_title_text_colour@@3UREAL_COLOUR@@A+2
  005a7	52		 push	 edx
  005a8	6a 15		 push	 21			; 00000015H
  005aa	6a 06		 push	 6
  005ac	6a 12		 push	 18			; 00000012H
  005ae	8b 45 fc	 mov	 eax, DWORD PTR _loop$[ebp]
  005b1	50		 push	 eax
  005b2	6a 29		 push	 41			; 00000029H
  005b4	68 00 00 00 00	 push	 OFFSET ??_C@_00CNPNBAHC@@
  005b9	6a 4a		 push	 74			; 0000004aH
  005bb	83 ec 08	 sub	 esp, 8
  005be	f2 0f 10 05 00
	00 00 00	 movsd	 xmm0, QWORD PTR __real@3ff0000000000000
  005c6	f2 0f 11 04 24	 movsd	 QWORD PTR [esp], xmm0
  005cb	83 ec 08	 sub	 esp, 8
  005ce	f2 0f 10 05 00
	00 00 00	 movsd	 xmm0, QWORD PTR __real@3fd5c28f5c28f5c3
  005d6	f2 0f 11 04 24	 movsd	 QWORD PTR [esp], xmm0
  005db	6a 59		 push	 89			; 00000059H
  005dd	83 ec 08	 sub	 esp, 8
  005e0	0f 57 c0	 xorps	 xmm0, xmm0
  005e3	f2 0f 11 04 24	 movsd	 QWORD PTR [esp], xmm0
  005e8	83 ec 08	 sub	 esp, 8
  005eb	f2 0f 10 05 00
	00 00 00	 movsd	 xmm0, QWORD PTR __real@3fd51eb851eb851f
  005f3	f2 0f 11 04 24	 movsd	 QWORD PTR [esp], xmm0
  005f8	6a 58		 push	 88			; 00000058H
  005fa	8b 4d dc	 mov	 ecx, DWORD PTR _volume_area$[ebp]
  005fd	51		 push	 ecx
  005fe	6a 32		 push	 50			; 00000032H
  00600	6a 01		 push	 1
  00602	e8 00 00 00 00	 call	 ?create_ui_object@@YAPAUUI_OBJECT@@HZZ ; create_ui_object
  00607	81 c4 88 00 00
	00		 add	 esp, 136		; 00000088H

; 368  : 		(
; 369  : 			UI_TYPE_AREA,
; 370  : 			UI_ATTR_PARENT (volume_area),
; 371  : 			UI_ATTR_VIRTUAL_POSITION (0.33, 0.0),
; 372  : 			UI_ATTR_VIRTUAL_SIZE (0.34, 1.0),
; 373  : 			UI_ATTR_TEXT (""),
; 374  : 			UI_ATTR_ITEM_NUMBER (loop),
; 375  : 			UI_ATTR_FONT_TYPE (UI_FONT_THICK_ARIAL_18),
; 376  : 			UI_ATTR_FONT_COLOUR_START (ui_option_title_text_colour.r, ui_option_title_text_colour.g, ui_option_title_text_colour.b, 0),
; 377  : 			UI_ATTR_FONT_COLOUR_END (ui_option_title_text_colour.r, ui_option_title_text_colour.g, ui_option_title_text_colour.b, 255),
; 378  : 			UI_ATTR_DRAW_FUNCTION (draw_channel_volume),
; 379  : 			UI_ATTR_CLEAR (TRUE),
; 380  : 			UI_ATTR_END
; 381  : 		);
; 382  : 
; 383  : 		//
; 384  : 		// "Mute" toggle
; 385  : 		//
; 386  : 		
; 387  : 		x1 = x2 + OPTION_BOX_GAP_WIDTH;

  0060d	f3 0f 10 45 f0	 movss	 xmm0, DWORD PTR _x2$[ebp]
  00612	f3 0f 58 05 00
	00 00 00	 addss	 xmm0, DWORD PTR __real@3b2a64c3
  0061a	f3 0f 11 45 f8	 movss	 DWORD PTR _x1$[ebp], xmm0

; 388  : 		x2 = x1 + 0.12;

  0061f	f3 0f 5a 45 f8	 cvtss2sd xmm0, DWORD PTR _x1$[ebp]
  00624	f2 0f 58 05 00
	00 00 00	 addsd	 xmm0, QWORD PTR __real@3fbeb851eb851eb8
  0062c	f2 0f 5a c0	 cvtsd2ss xmm0, xmm0
  00630	f3 0f 11 45 f0	 movss	 DWORD PTR _x2$[ebp], xmm0

; 389  : 
; 390  : 		create_ui_object

  00635	6a 11		 push	 17			; 00000011H
  00637	68 00 00 00 00	 push	 OFFSET ?draw_channel_muted@@YGXPAUUI_OBJECT@@PAX@Z ; draw_channel_muted
  0063c	6a 0f		 push	 15			; 0000000fH
  0063e	68 00 00 00 00	 push	 OFFSET ?toggle_channel_muted@@YGXPAUUI_OBJECT@@PAX@Z ; toggle_channel_muted
  00643	6a 16		 push	 22			; 00000016H
  00645	8b 45 fc	 mov	 eax, DWORD PTR _loop$[ebp]
  00648	50		 push	 eax
  00649	6a 29		 push	 41			; 00000029H
  0064b	6a 01		 push	 1
  0064d	6a 1b		 push	 27			; 0000001bH
  0064f	68 ff 00 00 00	 push	 255			; 000000ffH
  00654	0f b6 0d 00 00
	00 00		 movzx	 ecx, BYTE PTR ?ui_option_text_hilite_colour@@3UREAL_COLOUR@@A
  0065b	51		 push	 ecx
  0065c	0f b6 15 01 00
	00 00		 movzx	 edx, BYTE PTR ?ui_option_text_hilite_colour@@3UREAL_COLOUR@@A+1
  00663	52		 push	 edx
  00664	0f b6 05 02 00
	00 00		 movzx	 eax, BYTE PTR ?ui_option_text_hilite_colour@@3UREAL_COLOUR@@A+2
  0066b	50		 push	 eax
  0066c	6a 22		 push	 34			; 00000022H
  0066e	6a 00		 push	 0
  00670	0f b6 0d 00 00
	00 00		 movzx	 ecx, BYTE PTR ?ui_option_text_hilite_colour@@3UREAL_COLOUR@@A
  00677	51		 push	 ecx
  00678	0f b6 15 01 00
	00 00		 movzx	 edx, BYTE PTR ?ui_option_text_hilite_colour@@3UREAL_COLOUR@@A+1
  0067f	52		 push	 edx
  00680	0f b6 05 02 00
	00 00		 movzx	 eax, BYTE PTR ?ui_option_text_hilite_colour@@3UREAL_COLOUR@@A+2
  00687	50		 push	 eax
  00688	6a 23		 push	 35			; 00000023H
  0068a	68 ff 00 00 00	 push	 255			; 000000ffH
  0068f	0f b6 0d 00 00
	00 00		 movzx	 ecx, BYTE PTR ?ui_option_text_default_colour@@3UREAL_COLOUR@@A
  00696	51		 push	 ecx
  00697	0f b6 15 01 00
	00 00		 movzx	 edx, BYTE PTR ?ui_option_text_default_colour@@3UREAL_COLOUR@@A+1
  0069e	52		 push	 edx
  0069f	0f b6 05 02 00
	00 00		 movzx	 eax, BYTE PTR ?ui_option_text_default_colour@@3UREAL_COLOUR@@A+2
  006a6	50		 push	 eax
  006a7	6a 14		 push	 20			; 00000014H
  006a9	6a 00		 push	 0
  006ab	0f b6 0d 00 00
	00 00		 movzx	 ecx, BYTE PTR ?ui_option_text_default_colour@@3UREAL_COLOUR@@A
  006b2	51		 push	 ecx
  006b3	0f b6 15 01 00
	00 00		 movzx	 edx, BYTE PTR ?ui_option_text_default_colour@@3UREAL_COLOUR@@A+1
  006ba	52		 push	 edx
  006bb	0f b6 05 02 00
	00 00		 movzx	 eax, BYTE PTR ?ui_option_text_default_colour@@3UREAL_COLOUR@@A+2
  006c2	50		 push	 eax
  006c3	6a 15		 push	 21			; 00000015H
  006c5	6a 08		 push	 8
  006c7	6a 12		 push	 18			; 00000012H
  006c9	68 00 00 00 00	 push	 OFFSET ??_C@_02IAAGKKDJ@On@
  006ce	e8 00 00 00 00	 call	 ?get_trans@@YGPBDPBD@Z	; get_trans
  006d3	50		 push	 eax
  006d4	6a 4a		 push	 74			; 0000004aH
  006d6	8b 0d 00 00 00
	00		 mov	 ecx, DWORD PTR ?options_box_large@@3PAUTEXTURE_GRAPHIC@@A ; options_box_large
  006dc	51		 push	 ecx
  006dd	6a 4c		 push	 76			; 0000004cH
  006df	68 ff 00 00 00	 push	 255			; 000000ffH
  006e4	68 ff 00 00 00	 push	 255			; 000000ffH
  006e9	68 ff 00 00 00	 push	 255			; 000000ffH
  006ee	68 ff 00 00 00	 push	 255			; 000000ffH
  006f3	6a 0a		 push	 10			; 0000000aH
  006f5	6a 00		 push	 0
  006f7	68 ff 00 00 00	 push	 255			; 000000ffH
  006fc	68 ff 00 00 00	 push	 255			; 000000ffH
  00701	68 ff 00 00 00	 push	 255			; 000000ffH
  00706	6a 0b		 push	 11			; 0000000bH
  00708	f3 0f 10 45 ec	 movss	 xmm0, DWORD PTR _y2$[ebp]
  0070d	f3 0f 5c 45 f4	 subss	 xmm0, DWORD PTR _y1$[ebp]
  00712	f3 0f 5a c0	 cvtss2sd xmm0, xmm0
  00716	83 ec 08	 sub	 esp, 8
  00719	f2 0f 11 04 24	 movsd	 QWORD PTR [esp], xmm0
  0071e	f3 0f 10 45 f0	 movss	 xmm0, DWORD PTR _x2$[ebp]
  00723	f3 0f 5c 45 f8	 subss	 xmm0, DWORD PTR _x1$[ebp]
  00728	f3 0f 5a c0	 cvtss2sd xmm0, xmm0
  0072c	83 ec 08	 sub	 esp, 8
  0072f	f2 0f 11 04 24	 movsd	 QWORD PTR [esp], xmm0
  00734	6a 59		 push	 89			; 00000059H
  00736	f3 0f 5a 45 f4	 cvtss2sd xmm0, DWORD PTR _y1$[ebp]
  0073b	83 ec 08	 sub	 esp, 8
  0073e	f2 0f 11 04 24	 movsd	 QWORD PTR [esp], xmm0
  00743	f3 0f 5a 45 f8	 cvtss2sd xmm0, DWORD PTR _x1$[ebp]
  00748	83 ec 08	 sub	 esp, 8
  0074b	f2 0f 11 04 24	 movsd	 QWORD PTR [esp], xmm0
  00750	6a 58		 push	 88			; 00000058H
  00752	8b 55 e0	 mov	 edx, DWORD PTR _channel_area$[ebp]
  00755	52		 push	 edx
  00756	6a 32		 push	 50			; 00000032H
  00758	6a 02		 push	 2
  0075a	e8 00 00 00 00	 call	 ?create_ui_object@@YAPAUUI_OBJECT@@HZZ ; create_ui_object
  0075f	81 c4 e8 00 00
	00		 add	 esp, 232		; 000000e8H

; 391  : 		(
; 392  : 			UI_TYPE_BUTTON,
; 393  : 			UI_ATTR_PARENT (channel_area),
; 394  : 			UI_ATTR_VIRTUAL_POSITION (x1, y1),
; 395  : 			UI_ATTR_VIRTUAL_SIZE (x2 - x1, y2 - y1),
; 396  : 			UI_ATTR_COLOUR_START (255,255,255,0),
; 397  : 			UI_ATTR_COLOUR_END (255,255,255,255),
; 398  : 			UI_ATTR_TEXTURE_GRAPHIC (options_box_large),
; 399  : 			UI_ATTR_TEXT (get_trans ("On")),
; 400  : 			UI_ATTR_FONT_TYPE (UI_FONT_THICK_ITALIC_ARIAL_18),
; 401  : 	      UI_ATTR_FONT_COLOUR_START (ui_option_text_default_colour.r, ui_option_text_default_colour.g, ui_option_text_default_colour.b, 0),
; 402  :    	   UI_ATTR_FONT_COLOUR_END (ui_option_text_default_colour.r, ui_option_text_default_colour.g, ui_option_text_default_colour.b, 255),
; 403  : 	      UI_ATTR_HIGHLIGHTED_FONT_COLOUR_START (ui_option_text_hilite_colour.r, ui_option_text_hilite_colour.g, ui_option_text_hilite_colour.b, 0),
; 404  :    	   UI_ATTR_HIGHLIGHTED_FONT_COLOUR_END (ui_option_text_hilite_colour.r, ui_option_text_hilite_colour.g, ui_option_text_hilite_colour.b, 255),
; 405  : 			UI_ATTR_HIGHLIGHTABLE (TRUE),
; 406  : 			UI_ATTR_ITEM_NUMBER (loop),
; 407  : 			UI_ATTR_FUNCTION (toggle_channel_muted),
; 408  : 			UI_ATTR_DRAW_FUNCTION (draw_channel_muted),
; 409  : 			UI_ATTR_END
; 410  : 		);
; 411  : 	}

  00765	e9 f6 f9 ff ff	 jmp	 $LN2@define_opt
$LN3@define_opt:

; 412  : 
; 413  : 	//
; 414  : 	//
; 415  : 	//
; 416  : 
; 417  : 	recursively_set_object_time (page, OPTIONS_BUTTON_AREA_FADE_TIME, OPTIONS_BUTTON_AREA_OFFSET_TIME);

  0076a	6a 00		 push	 0
  0076c	68 90 01 00 00	 push	 400			; 00000190H
  00771	8b 45 e8	 mov	 eax, DWORD PTR _page$[ebp]
  00774	50		 push	 eax
  00775	e8 00 00 00 00	 call	 ?recursively_set_object_time@@YGXPAUUI_OBJECT@@HH@Z ; recursively_set_object_time

; 418  : }

  0077a	5f		 pop	 edi
  0077b	5e		 pop	 esi
  0077c	5b		 pop	 ebx
  0077d	8b e5		 mov	 esp, ebp
  0077f	5d		 pop	 ebp
  00780	c3		 ret	 0
?define_options_screen_ingame_sound_page_objects@@YGXXZ ENDP ; define_options_screen_ingame_sound_page_objects
_TEXT	ENDS
; Function compile flags: /Odtp /ZI
; File c:\users\nhv90\projects\eech\aphavoc\source\ui_menu\options\op_insnd.c
;	COMDAT ?notify_show_ingame_sound_page@@YGXXZ
_TEXT	SEGMENT
?notify_show_ingame_sound_page@@YGXXZ PROC		; notify_show_ingame_sound_page, COMDAT

; 80   : {

  00000	55		 push	 ebp
  00001	8b ec		 mov	 ebp, esp
  00003	83 ec 40	 sub	 esp, 64			; 00000040H
  00006	53		 push	 ebx
  00007	56		 push	 esi
  00008	57		 push	 edi

; 81   : 	display_options_page (OPTIONS_PAGE_INGAME_SOUND);

  00009	6a 05		 push	 5
  0000b	e8 00 00 00 00	 call	 ?display_options_page@@YGXW4OPTIONS_PAGES@@@Z ; display_options_page

; 82   : }

  00010	5f		 pop	 edi
  00011	5e		 pop	 esi
  00012	5b		 pop	 ebx
  00013	8b e5		 mov	 esp, ebp
  00015	5d		 pop	 ebp
  00016	c3		 ret	 0
?notify_show_ingame_sound_page@@YGXXZ ENDP		; notify_show_ingame_sound_page
_TEXT	ENDS
; Function compile flags: /Odtp /ZI
; File c:\program files (x86)\windows kits\10\include\10.0.18362.0\ucrt\stdio.h
;	COMDAT _sprintf
_TEXT	SEGMENT
__ArgList$ = -8						; size = 4
__Result$ = -4						; size = 4
__Buffer$ = 8						; size = 4
__Format$ = 12						; size = 4
_sprintf PROC						; COMDAT

; 1781 :     {

  00000	55		 push	 ebp
  00001	8b ec		 mov	 ebp, esp
  00003	83 ec 4c	 sub	 esp, 76			; 0000004cH
  00006	53		 push	 ebx
  00007	56		 push	 esi
  00008	57		 push	 edi

; 1782 :         int _Result;
; 1783 :         va_list _ArgList;
; 1784 :         __crt_va_start(_ArgList, _Format);

  00009	8d 45 10	 lea	 eax, DWORD PTR __Format$[ebp+4]
  0000c	89 45 f8	 mov	 DWORD PTR __ArgList$[ebp], eax

; 1785 : 
; 1786 :         #pragma warning(push)
; 1787 :         #pragma warning(disable: 4996) // Deprecation
; 1788 :         _Result = _vsprintf_l(_Buffer, _Format, NULL, _ArgList);

  0000f	8b 45 f8	 mov	 eax, DWORD PTR __ArgList$[ebp]
  00012	50		 push	 eax
  00013	6a 00		 push	 0
  00015	8b 4d 0c	 mov	 ecx, DWORD PTR __Format$[ebp]
  00018	51		 push	 ecx
  00019	8b 55 08	 mov	 edx, DWORD PTR __Buffer$[ebp]
  0001c	52		 push	 edx
  0001d	e8 00 00 00 00	 call	 __vsprintf_l
  00022	83 c4 10	 add	 esp, 16			; 00000010H
  00025	89 45 fc	 mov	 DWORD PTR __Result$[ebp], eax

; 1789 :         #pragma warning(pop)
; 1790 : 
; 1791 :         __crt_va_end(_ArgList);

  00028	c7 45 f8 00 00
	00 00		 mov	 DWORD PTR __ArgList$[ebp], 0

; 1792 :         return _Result;

  0002f	8b 45 fc	 mov	 eax, DWORD PTR __Result$[ebp]

; 1793 :     }

  00032	5f		 pop	 edi
  00033	5e		 pop	 esi
  00034	5b		 pop	 ebx
  00035	8b e5		 mov	 esp, ebp
  00037	5d		 pop	 ebp
  00038	c3		 ret	 0
_sprintf ENDP
_TEXT	ENDS
; Function compile flags: /Odtp /ZI
; File c:\program files (x86)\windows kits\10\include\10.0.18362.0\ucrt\stdio.h
;	COMDAT __vsprintf_l
_TEXT	SEGMENT
__Buffer$ = 8						; size = 4
__Format$ = 12						; size = 4
__Locale$ = 16						; size = 4
__ArgList$ = 20						; size = 4
__vsprintf_l PROC					; COMDAT

; 1459 :     {

  00000	55		 push	 ebp
  00001	8b ec		 mov	 ebp, esp
  00003	83 ec 40	 sub	 esp, 64			; 00000040H
  00006	53		 push	 ebx
  00007	56		 push	 esi
  00008	57		 push	 edi

; 1460 :         #pragma warning(push)
; 1461 :         #pragma warning(disable: 4996) // Deprecation
; 1462 :         return _vsnprintf_l(_Buffer, (size_t)-1, _Format, _Locale, _ArgList);

  00009	8b 45 14	 mov	 eax, DWORD PTR __ArgList$[ebp]
  0000c	50		 push	 eax
  0000d	8b 4d 10	 mov	 ecx, DWORD PTR __Locale$[ebp]
  00010	51		 push	 ecx
  00011	8b 55 0c	 mov	 edx, DWORD PTR __Format$[ebp]
  00014	52		 push	 edx
  00015	6a ff		 push	 -1
  00017	8b 45 08	 mov	 eax, DWORD PTR __Buffer$[ebp]
  0001a	50		 push	 eax
  0001b	e8 00 00 00 00	 call	 __vsnprintf_l
  00020	83 c4 14	 add	 esp, 20			; 00000014H

; 1463 :         #pragma warning(pop)
; 1464 :     }

  00023	5f		 pop	 edi
  00024	5e		 pop	 esi
  00025	5b		 pop	 ebx
  00026	8b e5		 mov	 esp, ebp
  00028	5d		 pop	 ebp
  00029	c3		 ret	 0
__vsprintf_l ENDP
_TEXT	ENDS
; Function compile flags: /Odtp /ZI
; File c:\program files (x86)\windows kits\10\include\10.0.18362.0\ucrt\stdio.h
;	COMDAT __vsnprintf_l
_TEXT	SEGMENT
tv74 = -72						; size = 4
__Result$ = -4						; size = 4
__Buffer$ = 8						; size = 4
__BufferCount$ = 12					; size = 4
__Format$ = 16						; size = 4
__Locale$ = 20						; size = 4
__ArgList$ = 24						; size = 4
__vsnprintf_l PROC					; COMDAT

; 1389 :     {

  00000	55		 push	 ebp
  00001	8b ec		 mov	 ebp, esp
  00003	83 ec 48	 sub	 esp, 72			; 00000048H
  00006	53		 push	 ebx
  00007	56		 push	 esi
  00008	57		 push	 edi

; 1390 :         int const _Result = __stdio_common_vsprintf(

  00009	8b 45 18	 mov	 eax, DWORD PTR __ArgList$[ebp]
  0000c	50		 push	 eax
  0000d	8b 4d 14	 mov	 ecx, DWORD PTR __Locale$[ebp]
  00010	51		 push	 ecx
  00011	8b 55 10	 mov	 edx, DWORD PTR __Format$[ebp]
  00014	52		 push	 edx
  00015	8b 45 0c	 mov	 eax, DWORD PTR __BufferCount$[ebp]
  00018	50		 push	 eax
  00019	8b 4d 08	 mov	 ecx, DWORD PTR __Buffer$[ebp]
  0001c	51		 push	 ecx
  0001d	e8 00 00 00 00	 call	 ___local_stdio_printf_options
  00022	8b 10		 mov	 edx, DWORD PTR [eax]
  00024	83 ca 01	 or	 edx, 1
  00027	8b 40 04	 mov	 eax, DWORD PTR [eax+4]
  0002a	50		 push	 eax
  0002b	52		 push	 edx
  0002c	ff 15 00 00 00
	00		 call	 DWORD PTR __imp____stdio_common_vsprintf
  00032	83 c4 1c	 add	 esp, 28			; 0000001cH
  00035	89 45 fc	 mov	 DWORD PTR __Result$[ebp], eax

; 1391 :             _CRT_INTERNAL_LOCAL_PRINTF_OPTIONS | _CRT_INTERNAL_PRINTF_LEGACY_VSPRINTF_NULL_TERMINATION,
; 1392 :             _Buffer, _BufferCount, _Format, _Locale, _ArgList);
; 1393 : 
; 1394 :         return _Result < 0 ? -1 : _Result;

  00038	83 7d fc 00	 cmp	 DWORD PTR __Result$[ebp], 0
  0003c	7d 09		 jge	 SHORT $LN3@vsnprintf_
  0003e	c7 45 b8 ff ff
	ff ff		 mov	 DWORD PTR tv74[ebp], -1
  00045	eb 06		 jmp	 SHORT $LN4@vsnprintf_
$LN3@vsnprintf_:
  00047	8b 45 fc	 mov	 eax, DWORD PTR __Result$[ebp]
  0004a	89 45 b8	 mov	 DWORD PTR tv74[ebp], eax
$LN4@vsnprintf_:
  0004d	8b 45 b8	 mov	 eax, DWORD PTR tv74[ebp]

; 1395 :     }

  00050	5f		 pop	 edi
  00051	5e		 pop	 esi
  00052	5b		 pop	 ebx
  00053	8b e5		 mov	 esp, ebp
  00055	5d		 pop	 ebp
  00056	c3		 ret	 0
__vsnprintf_l ENDP
_TEXT	ENDS
; Function compile flags: /Odtp /ZI
; File c:\program files (x86)\windows kits\10\include\10.0.18362.0\ucrt\corecrt_stdio_config.h
;	COMDAT ___local_stdio_printf_options
_TEXT	SEGMENT
___local_stdio_printf_options PROC			; COMDAT

; 86   :     {

  00000	55		 push	 ebp
  00001	8b ec		 mov	 ebp, esp
  00003	83 ec 40	 sub	 esp, 64			; 00000040H
  00006	53		 push	 ebx
  00007	56		 push	 esi
  00008	57		 push	 edi

; 87   :         static unsigned __int64 _OptionsStorage;
; 88   :         return &_OptionsStorage;

  00009	b8 00 00 00 00	 mov	 eax, OFFSET ?_OptionsStorage@?1??__local_stdio_printf_options@@9@4_KA ; `__local_stdio_printf_options'::`2'::_OptionsStorage

; 89   :     }

  0000e	5f		 pop	 edi
  0000f	5e		 pop	 esi
  00010	5b		 pop	 ebx
  00011	8b e5		 mov	 esp, ebp
  00013	5d		 pop	 ebp
  00014	c3		 ret	 0
___local_stdio_printf_options ENDP
_TEXT	ENDS
END
