; Listing generated by Microsoft (R) Optimizing Compiler Version 19.16.27045.0 

	TITLE	C:\Users\nhv90\Projects\eech\aphavoc\source\ui_menu\options\options.c
	.686P
	.XMM
	include listing.inc
	.model	flat

INCLUDELIB MSVCRTD
INCLUDELIB OLDNAMES

PUBLIC	?options_screen@@3PAUUI_OBJECT@@A		; options_screen
PUBLIC	?options_page@@3PAPAUUI_OBJECT@@A		; options_page
PUBLIC	?options_page_buttons@@3PAPAUUI_OBJECT@@A	; options_page_buttons
PUBLIC	?options_screen_graphic@@3PAUTEXTURE_GRAPHIC@@A	; options_screen_graphic
PUBLIC	?old_graphics_card_selection@@3PAUDD_DISPLAY_DEVICE@@A ; old_graphics_card_selection
PUBLIC	?old_graphics_card_automatic_selection@@3HA	; old_graphics_card_automatic_selection
_BSS	SEGMENT
?options_screen@@3PAUUI_OBJECT@@A DD 01H DUP (?)	; options_screen
?options_page@@3PAPAUUI_OBJECT@@A DD 07H DUP (?)	; options_page
?options_page_buttons@@3PAPAUUI_OBJECT@@A DD 07H DUP (?) ; options_page_buttons
?options_screen_graphic@@3PAUTEXTURE_GRAPHIC@@A DD 01H DUP (?) ; options_screen_graphic
?old_graphics_card_selection@@3PAUDD_DISPLAY_DEVICE@@A DD 01H DUP (?) ; old_graphics_card_selection
?old_graphics_card_automatic_selection@@3HA DD 01H DUP (?) ; old_graphics_card_automatic_selection
_BSS	ENDS
PUBLIC	?notify_options_screen@@YGXPAUUI_OBJECT@@PAX@Z	; notify_options_screen
PUBLIC	?notify_options_page@@YGXW4OPTIONS_PAGES@@@Z	; notify_options_page
PUBLIC	?display_options_page@@YGXW4OPTIONS_PAGES@@@Z	; display_options_page
PUBLIC	?initialise_options_screen@@YGXXZ		; initialise_options_screen
PUBLIC	?notify_clear_options_screen@@YGXXZ		; notify_clear_options_screen
PUBLIC	?show_options_page@@YGXXZ			; show_options_page
PUBLIC	??_C@_0BO@PPDJAGLC@graphics?2ui?2cohokum?2setup?4psd@ ; `string'
PUBLIC	??_C@_0CH@CAKLAPHP@OPTIONS?4C?3?5illegal?5options?5page@ ; `string'
PUBLIC	??_C@_0P@JAJAJOP@Options?5Screen@		; `string'
PUBLIC	__real@3f800000
PUBLIC	__real@3f999999a0000000
PUBLIC	__real@3fa3f7cee0000000
PUBLIC	__real@3fed9999a0000000
EXTRN	?debug_fatal@@YAXPBDZZ:PROC			; debug_fatal
EXTRN	?change_joystick_properties@@YGXXZ:PROC		; change_joystick_properties
EXTRN	?blit_front_buffer_to_render_buffer@@YGXXZ:PROC	; blit_front_buffer_to_render_buffer
EXTRN	?create_texture_graphic@@YGPAUTEXTURE_GRAPHIC@@PBD@Z:PROC ; create_texture_graphic
EXTRN	?destroy_texture_graphic@@YGXPAUTEXTURE_GRAPHIC@@@Z:PROC ; destroy_texture_graphic
EXTRN	?create_ui_object@@YAPAUUI_OBJECT@@HZZ:PROC	; create_ui_object
EXTRN	?reset_time_values@@YGXPAUUI_OBJECT@@@Z:PROC	; reset_time_values
EXTRN	?push_ui_screen@@YGXPAUUI_OBJECT@@@Z:PROC	; push_ui_screen
EXTRN	?pop_ui_screen@@YGXW4SCREEN_POP_TYPES@@@Z:PROC	; pop_ui_screen
EXTRN	?save_global_options_data@@YGXXZ:PROC		; save_global_options_data
EXTRN	?get_trans@@YGPBDPBD@Z:PROC			; get_trans
EXTRN	?define_multi_player_setup_objects@@YGXXZ:PROC	; define_multi_player_setup_objects
EXTRN	?notify_multi_player_setup@@YGXXZ:PROC		; notify_multi_player_setup
EXTRN	?store_multiplayer_options@@YGXXZ:PROC		; store_multiplayer_options
EXTRN	?define_options_screen_common_objects@@YGXXZ:PROC ; define_options_screen_common_objects
EXTRN	?initialise_joystick_selection@@YGXXZ:PROC	; initialise_joystick_selection
EXTRN	?notify_show_controller_page@@YGXXZ:PROC	; notify_show_controller_page
EXTRN	?define_options_screen_controller_page_objects@@YGXXZ:PROC ; define_options_screen_controller_page_objects
EXTRN	?notify_show_dynamics_page@@YGXXZ:PROC		; notify_show_dynamics_page
EXTRN	?define_options_screen_dynamics_page_objects@@YGXXZ:PROC ; define_options_screen_dynamics_page_objects
EXTRN	?notify_show_graphics_page@@YGXXZ:PROC		; notify_show_graphics_page
EXTRN	?define_options_screen_graphics_page_objects@@YGXXZ:PROC ; define_options_screen_graphics_page_objects
EXTRN	?get_card_selection_device@@YGPAUDD_DISPLAY_DEVICE@@XZ:PROC ; get_card_selection_device
EXTRN	?notify_show_realism_page@@YGXXZ:PROC		; notify_show_realism_page
EXTRN	?define_options_screen_realism_page_objects@@YGXXZ:PROC ; define_options_screen_realism_page_objects
EXTRN	?notify_show_sound_page@@YGXXZ:PROC		; notify_show_sound_page
EXTRN	?define_options_screen_sound_page_objects@@YGXXZ:PROC ; define_options_screen_sound_page_objects
EXTRN	?notify_show_ingame_sound_page@@YGXXZ:PROC	; notify_show_ingame_sound_page
EXTRN	?define_options_screen_ingame_sound_page_objects@@YGXXZ:PROC ; define_options_screen_ingame_sound_page_objects
EXTRN	?fn_set_ui_object_state@@3PAP6GXPAUUI_OBJECT@@H@ZA:BYTE ; fn_set_ui_object_state
EXTRN	?fn_set_ui_object_drawable@@3PAP6GXPAUUI_OBJECT@@H@ZA:BYTE ; fn_set_ui_object_drawable
EXTRN	?fn_get_ui_object_drawable@@3PAP6GHPAUUI_OBJECT@@@ZA:BYTE ; fn_get_ui_object_drawable
EXTRN	?fn_set_ui_object_highlightable@@3PAP6GXPAUUI_OBJECT@@H@ZA:BYTE ; fn_set_ui_object_highlightable
EXTRN	?fn_set_ui_object_font_colour_end@@3PAP6GXPAUUI_OBJECT@@DDDD@ZA:BYTE ; fn_set_ui_object_font_colour_end
EXTRN	?fn_set_ui_object_texture_graphic@@3PAP6GXPAUUI_OBJECT@@PAUTEXTURE_GRAPHIC@@@ZA:BYTE ; fn_set_ui_object_texture_graphic
EXTRN	?ui_screen_title_text_colour@@3UREAL_COLOUR@@A:DWORD ; ui_screen_title_text_colour
EXTRN	?ui_option_text_default_colour@@3UREAL_COLOUR@@A:DWORD ; ui_option_text_default_colour
EXTRN	?global_options@@3UGLOBAL_OPTIONS_DATA@@A:BYTE	; global_options
EXTRN	?multi_player_setup_area@@3PAUUI_OBJECT@@A:DWORD ; multi_player_setup_area
EXTRN	?exit_screen@@3PAUUI_OBJECT@@A:DWORD		; exit_screen
EXTRN	?current_game_session@@3PAUSESSION_LIST_DATA_TYPE@@A:DWORD ; current_game_session
EXTRN	?ghost_multiplayer_option_button@@3PAUUI_OBJECT@@A:DWORD ; ghost_multiplayer_option_button
EXTRN	?option_page_ok_button_reasons@@3HA:DWORD	; option_page_ok_button_reasons
EXTRN	__fltused:DWORD
;	COMDAT __real@3fed9999a0000000
CONST	SEGMENT
__real@3fed9999a0000000 DQ 03fed9999a0000000r	; 0.925
CONST	ENDS
;	COMDAT __real@3fa3f7cee0000000
CONST	SEGMENT
__real@3fa3f7cee0000000 DQ 03fa3f7cee0000000r	; 0.039
CONST	ENDS
;	COMDAT __real@3f999999a0000000
CONST	SEGMENT
__real@3f999999a0000000 DQ 03f999999a0000000r	; 0.025
CONST	ENDS
;	COMDAT __real@3f800000
CONST	SEGMENT
__real@3f800000 DD 03f800000r			; 1
CONST	ENDS
;	COMDAT ??_C@_0P@JAJAJOP@Options?5Screen@
CONST	SEGMENT
??_C@_0P@JAJAJOP@Options?5Screen@ DB 'Options Screen', 00H ; `string'
CONST	ENDS
;	COMDAT ??_C@_0CH@CAKLAPHP@OPTIONS?4C?3?5illegal?5options?5page@
CONST	SEGMENT
??_C@_0CH@CAKLAPHP@OPTIONS?4C?3?5illegal?5options?5page@ DB 'OPTIONS.C: i'
	DB	'llegal options page called', 00H		; `string'
CONST	ENDS
;	COMDAT ??_C@_0BO@PPDJAGLC@graphics?2ui?2cohokum?2setup?4psd@
CONST	SEGMENT
??_C@_0BO@PPDJAGLC@graphics?2ui?2cohokum?2setup?4psd@ DB 'graphics\ui\coh'
	DB	'okum\setup.psd', 00H			; `string'
CONST	ENDS
_DATA	SEGMENT
?current_options_page@@3HA DD 02H			; current_options_page
_DATA	ENDS
; Function compile flags: /Odtp /ZI
; File c:\users\nhv90\projects\eech\aphavoc\source\ui_menu\options\options.c
;	COMDAT ?show_options_page@@YGXXZ
_TEXT	SEGMENT
?show_options_page@@YGXXZ PROC				; show_options_page, COMDAT

; 454  : {

  00000	55		 push	 ebp
  00001	8b ec		 mov	 ebp, esp
  00003	83 ec 40	 sub	 esp, 64			; 00000040H
  00006	53		 push	 ebx
  00007	56		 push	 esi
  00008	57		 push	 edi

; 455  : 
; 456  : //	pop_event (campaign_options_events);
; 457  : 
; 458  : //	initialise_options_screen();
; 459  : 	
; 460  : 	push_ui_screen (options_screen);

  00009	a1 00 00 00 00	 mov	 eax, DWORD PTR ?options_screen@@3PAUUI_OBJECT@@A ; options_screen
  0000e	50		 push	 eax
  0000f	e8 00 00 00 00	 call	 ?push_ui_screen@@YGXPAUUI_OBJECT@@@Z ; push_ui_screen

; 461  : 
; 462  : 	#if DEBUG_MODULE
; 463  : 
; 464  : 	debug_filtered_log("Inside show_options_screen");
; 465  : 
; 466  : 	#endif
; 467  : }

  00014	5f		 pop	 edi
  00015	5e		 pop	 esi
  00016	5b		 pop	 ebx
  00017	8b e5		 mov	 esp, ebp
  00019	5d		 pop	 ebp
  0001a	c3		 ret	 0
?show_options_page@@YGXXZ ENDP				; show_options_page
_TEXT	ENDS
; Function compile flags: /Odtp /ZI
; File c:\users\nhv90\projects\eech\aphavoc\source\ui_menu\options\options.c
;	COMDAT ?notify_clear_options_screen@@YGXXZ
_TEXT	SEGMENT
?notify_clear_options_screen@@YGXXZ PROC		; notify_clear_options_screen, COMDAT

; 422  : {

  00000	55		 push	 ebp
  00001	8b ec		 mov	 ebp, esp
  00003	83 ec 40	 sub	 esp, 64			; 00000040H
  00006	53		 push	 ebx
  00007	56		 push	 esi
  00008	57		 push	 edi

; 423  : 
; 424  : 	store_multiplayer_options ();

  00009	e8 00 00 00 00	 call	 ?store_multiplayer_options@@YGXXZ ; store_multiplayer_options

; 425  : 
; 426  : 	// Save the global options data
; 427  : 
; 428  : 	save_global_options_data ();

  0000e	e8 00 00 00 00	 call	 ?save_global_options_data@@YGXXZ ; save_global_options_data

; 429  : 	
; 430  : 	// if the graphics display adapter has changed, boot the player out
; 431  : 	{
; 432  : 		if (option_page_ok_button_reasons)

  00013	83 3d 00 00 00
	00 00		 cmp	 DWORD PTR ?option_page_ok_button_reasons@@3HA, 0 ; option_page_ok_button_reasons
  0001a	74 0d		 je	 SHORT $LN2@notify_cle

; 433  : 		{
; 434  : 			push_ui_screen (exit_screen);

  0001c	a1 00 00 00 00	 mov	 eax, DWORD PTR ?exit_screen@@3PAUUI_OBJECT@@A ; exit_screen
  00021	50		 push	 eax
  00022	e8 00 00 00 00	 call	 ?push_ui_screen@@YGXPAUUI_OBJECT@@@Z ; push_ui_screen

; 435  : 		}
; 436  : 		else

  00027	eb 07		 jmp	 SHORT $LN1@notify_cle
$LN2@notify_cle:

; 437  : 		{
; 438  : 			pop_ui_screen (SCREEN_POP_ACTUAL);

  00029	6a 00		 push	 0
  0002b	e8 00 00 00 00	 call	 ?pop_ui_screen@@YGXW4SCREEN_POP_TYPES@@@Z ; pop_ui_screen
$LN1@notify_cle:

; 439  : 		}
; 440  : 	}
; 441  : 
; 442  : 	#if DEBUG_MODULE
; 443  : 
; 444  : 	debug_filtered_log("Inside clear_options_screen");
; 445  : 
; 446  : 	#endif
; 447  : }

  00030	5f		 pop	 edi
  00031	5e		 pop	 esi
  00032	5b		 pop	 ebx
  00033	8b e5		 mov	 esp, ebp
  00035	5d		 pop	 ebp
  00036	c3		 ret	 0
?notify_clear_options_screen@@YGXXZ ENDP		; notify_clear_options_screen
_TEXT	ENDS
; Function compile flags: /Odtp /ZI
; File c:\users\nhv90\projects\eech\aphavoc\source\ui_menu\options\options.c
;	COMDAT ?initialise_options_screen@@YGXXZ
_TEXT	SEGMENT
_y_size$ = -8						; size = 4
_x_size$ = -4						; size = 4
?initialise_options_screen@@YGXXZ PROC			; initialise_options_screen, COMDAT

; 340  : {

  00000	55		 push	 ebp
  00001	8b ec		 mov	 ebp, esp
  00003	83 ec 48	 sub	 esp, 72			; 00000048H
  00006	53		 push	 ebx
  00007	56		 push	 esi
  00008	57		 push	 edi

; 341  : 	float
; 342  : 		x_size,
; 343  : 		y_size;
; 344  : 
; 345  : 	x_size = 1.0;

  00009	f3 0f 10 05 00
	00 00 00	 movss	 xmm0, DWORD PTR __real@3f800000
  00011	f3 0f 11 45 fc	 movss	 DWORD PTR _x_size$[ebp], xmm0

; 346  : 	y_size = 1.0;

  00016	f3 0f 10 05 00
	00 00 00	 movss	 xmm0, DWORD PTR __real@3f800000
  0001e	f3 0f 11 45 f8	 movss	 DWORD PTR _y_size$[ebp], xmm0

; 347  : 
; 348  : 	/////////////////////////////////////////////////////////////////
; 349  : 
; 350  :    options_screen = create_ui_object

  00023	6a 11		 push	 17			; 00000011H
  00025	68 00 00 00 00	 push	 OFFSET ?notify_options_screen@@YGXPAUUI_OBJECT@@PAX@Z ; notify_options_screen
  0002a	6a 16		 push	 22			; 00000016H
  0002c	6a 04		 push	 4
  0002e	6a 2f		 push	 47			; 0000002fH
  00030	68 f4 01 00 00	 push	 500			; 000001f4H
  00035	6a 4d		 push	 77			; 0000004dH
  00037	6a 00		 push	 0
  00039	6a 30		 push	 48			; 00000030H
  0003b	68 ff 00 00 00	 push	 255			; 000000ffH
  00040	68 ff 00 00 00	 push	 255			; 000000ffH
  00045	68 ff 00 00 00	 push	 255			; 000000ffH
  0004a	68 ff 00 00 00	 push	 255			; 000000ffH
  0004f	6a 0a		 push	 10			; 0000000aH
  00051	6a 00		 push	 0
  00053	68 ff 00 00 00	 push	 255			; 000000ffH
  00058	68 ff 00 00 00	 push	 255			; 000000ffH
  0005d	68 ff 00 00 00	 push	 255			; 000000ffH
  00062	6a 0b		 push	 11			; 0000000bH
  00064	f3 0f 5a 45 f8	 cvtss2sd xmm0, DWORD PTR _y_size$[ebp]
  00069	83 ec 08	 sub	 esp, 8
  0006c	f2 0f 11 04 24	 movsd	 QWORD PTR [esp], xmm0
  00071	f3 0f 5a 45 fc	 cvtss2sd xmm0, DWORD PTR _x_size$[ebp]
  00076	83 ec 08	 sub	 esp, 8
  00079	f2 0f 11 04 24	 movsd	 QWORD PTR [esp], xmm0
  0007e	6a 59		 push	 89			; 00000059H
  00080	83 ec 08	 sub	 esp, 8
  00083	0f 57 c0	 xorps	 xmm0, xmm0
  00086	f2 0f 11 04 24	 movsd	 QWORD PTR [esp], xmm0
  0008b	83 ec 08	 sub	 esp, 8
  0008e	0f 57 c0	 xorps	 xmm0, xmm0
  00091	f2 0f 11 04 24	 movsd	 QWORD PTR [esp], xmm0
  00096	6a 58		 push	 88			; 00000058H
  00098	6a 06		 push	 6
  0009a	e8 00 00 00 00	 call	 ?create_ui_object@@YAPAUUI_OBJECT@@HZZ ; create_ui_object
  0009f	83 c4 78	 add	 esp, 120		; 00000078H
  000a2	a3 00 00 00 00	 mov	 DWORD PTR ?options_screen@@3PAUUI_OBJECT@@A, eax ; options_screen

; 351  :             (
; 352  :                UI_TYPE_SCREEN,
; 353  : 					UI_ATTR_VIRTUAL_POSITION (0.0, 0.0),
; 354  : 					UI_ATTR_VIRTUAL_SIZE (x_size, y_size),
; 355  : 					UI_ATTR_COLOUR_START (255, 255, 255, 0),
; 356  : 					UI_ATTR_COLOUR_END (255, 255, 255, 255),
; 357  : 					UI_ATTR_OFFSET_TIME (0),
; 358  : 					UI_ATTR_TIME_LENGTH (500),
; 359  : 					UI_ATTR_NOTIFY_ON (NOTIFY_TYPE_DISPLAYED),
; 360  : 					UI_ATTR_FUNCTION (notify_options_screen),
; 361  :                UI_ATTR_END
; 362  :             );
; 363  : 
; 364  :    create_ui_object

  000a7	6a 11		 push	 17			; 00000011H
  000a9	6a 01		 push	 1
  000ab	6a 07		 push	 7
  000ad	6a 00		 push	 0
  000af	6a 1b		 push	 27			; 0000001bH
  000b1	68 ff 00 00 00	 push	 255			; 000000ffH
  000b6	0f b6 05 00 00
	00 00		 movzx	 eax, BYTE PTR ?ui_screen_title_text_colour@@3UREAL_COLOUR@@A
  000bd	50		 push	 eax
  000be	0f b6 0d 01 00
	00 00		 movzx	 ecx, BYTE PTR ?ui_screen_title_text_colour@@3UREAL_COLOUR@@A+1
  000c5	51		 push	 ecx
  000c6	0f b6 15 02 00
	00 00		 movzx	 edx, BYTE PTR ?ui_screen_title_text_colour@@3UREAL_COLOUR@@A+2
  000cd	52		 push	 edx
  000ce	6a 14		 push	 20			; 00000014H
  000d0	6a 00		 push	 0
  000d2	0f b6 05 00 00
	00 00		 movzx	 eax, BYTE PTR ?ui_screen_title_text_colour@@3UREAL_COLOUR@@A
  000d9	50		 push	 eax
  000da	0f b6 0d 01 00
	00 00		 movzx	 ecx, BYTE PTR ?ui_screen_title_text_colour@@3UREAL_COLOUR@@A+1
  000e1	51		 push	 ecx
  000e2	0f b6 15 02 00
	00 00		 movzx	 edx, BYTE PTR ?ui_screen_title_text_colour@@3UREAL_COLOUR@@A+2
  000e9	52		 push	 edx
  000ea	6a 15		 push	 21			; 00000015H
  000ec	6a 07		 push	 7
  000ee	6a 4b		 push	 75			; 0000004bH
  000f0	6a 0c		 push	 12			; 0000000cH
  000f2	6a 12		 push	 18			; 00000012H
  000f4	68 00 00 00 00	 push	 OFFSET ??_C@_0P@JAJAJOP@Options?5Screen@
  000f9	e8 00 00 00 00	 call	 ?get_trans@@YGPBDPBD@Z	; get_trans
  000fe	50		 push	 eax
  000ff	6a 4a		 push	 74			; 0000004aH
  00101	83 ec 08	 sub	 esp, 8
  00104	f2 0f 10 05 00
	00 00 00	 movsd	 xmm0, QWORD PTR __real@3fa3f7cee0000000
  0010c	f2 0f 11 04 24	 movsd	 QWORD PTR [esp], xmm0
  00111	83 ec 08	 sub	 esp, 8
  00114	f2 0f 10 05 00
	00 00 00	 movsd	 xmm0, QWORD PTR __real@3fed9999a0000000
  0011c	f2 0f 11 04 24	 movsd	 QWORD PTR [esp], xmm0
  00121	6a 59		 push	 89			; 00000059H
  00123	83 ec 08	 sub	 esp, 8
  00126	f2 0f 10 05 00
	00 00 00	 movsd	 xmm0, QWORD PTR __real@3fa3f7cee0000000
  0012e	f2 0f 11 04 24	 movsd	 QWORD PTR [esp], xmm0
  00133	83 ec 08	 sub	 esp, 8
  00136	f2 0f 10 05 00
	00 00 00	 movsd	 xmm0, QWORD PTR __real@3f999999a0000000
  0013e	f2 0f 11 04 24	 movsd	 QWORD PTR [esp], xmm0
  00143	6a 58		 push	 88			; 00000058H
  00145	68 f4 01 00 00	 push	 500			; 000001f4H
  0014a	6a 4d		 push	 77			; 0000004dH
  0014c	6a 00		 push	 0
  0014e	6a 30		 push	 48			; 00000030H
  00150	a1 00 00 00 00	 mov	 eax, DWORD PTR ?options_screen@@3PAUUI_OBJECT@@A ; options_screen
  00155	50		 push	 eax
  00156	6a 32		 push	 50			; 00000032H
  00158	6a 05		 push	 5
  0015a	e8 00 00 00 00	 call	 ?create_ui_object@@YAPAUUI_OBJECT@@HZZ ; create_ui_object
  0015f	81 c4 98 00 00
	00		 add	 esp, 152		; 00000098H

; 365  :             (
; 366  :                UI_TYPE_TEXT,
; 367  :                UI_ATTR_PARENT (options_screen),
; 368  : 					UI_ATTR_OFFSET_TIME (0),
; 369  : 					UI_ATTR_TIME_LENGTH (500),
; 370  :                UI_ATTR_VIRTUAL_POSITION (TITLE_TEXT_POSITION_X, TITLE_TEXT_POSITION_Y),
; 371  : 					UI_ATTR_VIRTUAL_SIZE (TITLE_TEXT_WIDTH, TITLE_TEXT_HEIGHT),
; 372  : 					UI_ATTR_TEXT (get_trans ("Options Screen")),
; 373  : 					UI_ATTR_FONT_TYPE (UI_FONT_IMPACT_22),
; 374  : 					UI_ATTR_TEXT_JUSTIFY (TEXT_JUSTIFY_LEFT_BOTTOM),
; 375  :                UI_ATTR_FONT_COLOUR_START (ui_screen_title_text_colour.r, ui_screen_title_text_colour.g, ui_screen_title_text_colour.b, 0),
; 376  :                UI_ATTR_FONT_COLOUR_END (ui_screen_title_text_colour.r, ui_screen_title_text_colour.g, ui_screen_title_text_colour.b, 255),
; 377  : 					UI_ATTR_HIGHLIGHTABLE (FALSE),
; 378  : 					UI_ATTR_CLEAR (TRUE),
; 379  :                UI_ATTR_END
; 380  :             );
; 381  : 
; 382  : 	/////////////////////////////////////////////////////////////////
; 383  : 
; 384  : 	define_options_screen_controller_page_objects ();

  00165	e8 00 00 00 00	 call	 ?define_options_screen_controller_page_objects@@YGXXZ ; define_options_screen_controller_page_objects

; 385  : 	
; 386  : 	/////////////////////////////////////////////////////////////////
; 387  : 
; 388  : 	define_options_screen_dynamics_page_objects ();

  0016a	e8 00 00 00 00	 call	 ?define_options_screen_dynamics_page_objects@@YGXXZ ; define_options_screen_dynamics_page_objects

; 389  : 	
; 390  : 	/////////////////////////////////////////////////////////////////
; 391  : 
; 392  : 	define_options_screen_graphics_page_objects ();

  0016f	e8 00 00 00 00	 call	 ?define_options_screen_graphics_page_objects@@YGXXZ ; define_options_screen_graphics_page_objects

; 393  : 	
; 394  : 	/////////////////////////////////////////////////////////////////
; 395  : 
; 396  : 	define_options_screen_realism_page_objects ();

  00174	e8 00 00 00 00	 call	 ?define_options_screen_realism_page_objects@@YGXXZ ; define_options_screen_realism_page_objects

; 397  : 
; 398  : 	/////////////////////////////////////////////////////////////////
; 399  : 
; 400  : 	define_options_screen_sound_page_objects ();

  00179	e8 00 00 00 00	 call	 ?define_options_screen_sound_page_objects@@YGXXZ ; define_options_screen_sound_page_objects

; 401  : 
; 402  : 	define_options_screen_ingame_sound_page_objects ();

  0017e	e8 00 00 00 00	 call	 ?define_options_screen_ingame_sound_page_objects@@YGXXZ ; define_options_screen_ingame_sound_page_objects

; 403  : 
; 404  : 	/////////////////////////////////////////////////////////////////
; 405  : 
; 406  : 	define_multi_player_setup_objects ();

  00183	e8 00 00 00 00	 call	 ?define_multi_player_setup_objects@@YGXXZ ; define_multi_player_setup_objects

; 407  : 
; 408  : 	options_page [OPTIONS_PAGE_MULTIPLAYER] = multi_player_setup_area;

  00188	b8 04 00 00 00	 mov	 eax, 4
  0018d	6b c8 06	 imul	 ecx, eax, 6
  00190	8b 15 00 00 00
	00		 mov	 edx, DWORD PTR ?multi_player_setup_area@@3PAUUI_OBJECT@@A ; multi_player_setup_area
  00196	89 91 00 00 00
	00		 mov	 DWORD PTR ?options_page@@3PAPAUUI_OBJECT@@A[ecx], edx

; 409  : 	
; 410  : 	/////////////////////////////////////////////////////////////////
; 411  : 
; 412  : 	define_options_screen_common_objects ();

  0019c	e8 00 00 00 00	 call	 ?define_options_screen_common_objects@@YGXXZ ; define_options_screen_common_objects

; 413  : 
; 414  : 	/////////////////////////////////////////////////////////////////
; 415  : }

  001a1	5f		 pop	 edi
  001a2	5e		 pop	 esi
  001a3	5b		 pop	 ebx
  001a4	8b e5		 mov	 esp, ebp
  001a6	5d		 pop	 ebp
  001a7	c3		 ret	 0
?initialise_options_screen@@YGXXZ ENDP			; initialise_options_screen
_TEXT	ENDS
; Function compile flags: /Odtp /ZI
; File c:\users\nhv90\projects\eech\aphavoc\source\ui_menu\options\options.c
;	COMDAT ?display_options_page@@YGXW4OPTIONS_PAGES@@@Z
_TEXT	SEGMENT
_loop$ = -4						; size = 4
_page$ = 8						; size = 4
?display_options_page@@YGXW4OPTIONS_PAGES@@@Z PROC	; display_options_page, COMDAT

; 244  : {

  00000	55		 push	 ebp
  00001	8b ec		 mov	 ebp, esp
  00003	83 ec 44	 sub	 esp, 68			; 00000044H
  00006	53		 push	 ebx
  00007	56		 push	 esi
  00008	57		 push	 edi

; 245  : 	int
; 246  : 		loop;
; 247  : 		
; 248  : 	//set drawable state of pages depending on chosen page & hilite appropriate button
; 249  : 	
; 250  : 	for (loop = 0; loop < NUM_OPTIONS_PAGES; loop ++)

  00009	c7 45 fc 00 00
	00 00		 mov	 DWORD PTR _loop$[ebp], 0
  00010	eb 09		 jmp	 SHORT $LN4@display_op
$LN2@display_op:
  00012	8b 45 fc	 mov	 eax, DWORD PTR _loop$[ebp]
  00015	83 c0 01	 add	 eax, 1
  00018	89 45 fc	 mov	 DWORD PTR _loop$[ebp], eax
$LN4@display_op:
  0001b	83 7d fc 07	 cmp	 DWORD PTR _loop$[ebp], 7
  0001f	0f 8d af 00 00
	00		 jge	 $LN1@display_op

; 251  : 	{
; 252  : 		set_ui_object_drawable (options_page [loop], FALSE);

  00025	6a 00		 push	 0
  00027	8b 45 fc	 mov	 eax, DWORD PTR _loop$[ebp]
  0002a	8b 0c 85 00 00
	00 00		 mov	 ecx, DWORD PTR ?options_page@@3PAPAUUI_OBJECT@@A[eax*4]
  00031	51		 push	 ecx
  00032	8b 55 fc	 mov	 edx, DWORD PTR _loop$[ebp]
  00035	8b 04 95 00 00
	00 00		 mov	 eax, DWORD PTR ?options_page@@3PAPAUUI_OBJECT@@A[edx*4]
  0003c	8b 08		 mov	 ecx, DWORD PTR [eax]
  0003e	8b 14 8d 00 00
	00 00		 mov	 edx, DWORD PTR ?fn_set_ui_object_drawable@@3PAP6GXPAUUI_OBJECT@@H@ZA[ecx*4]
  00045	ff d2		 call	 edx

; 253  : 
; 254  : 		if (page == loop)

  00047	8b 45 08	 mov	 eax, DWORD PTR _page$[ebp]
  0004a	3b 45 fc	 cmp	 eax, DWORD PTR _loop$[ebp]
  0004d	75 5e		 jne	 SHORT $LN5@display_op

; 255  : 		{
; 256  : 			set_ui_object_state (options_page_buttons [loop], UI_OBJECT_STATE_ON);

  0004f	6a 01		 push	 1
  00051	8b 45 fc	 mov	 eax, DWORD PTR _loop$[ebp]
  00054	8b 0c 85 00 00
	00 00		 mov	 ecx, DWORD PTR ?options_page_buttons@@3PAPAUUI_OBJECT@@A[eax*4]
  0005b	51		 push	 ecx
  0005c	8b 55 fc	 mov	 edx, DWORD PTR _loop$[ebp]
  0005f	8b 04 95 00 00
	00 00		 mov	 eax, DWORD PTR ?options_page_buttons@@3PAPAUUI_OBJECT@@A[edx*4]
  00066	8b 08		 mov	 ecx, DWORD PTR [eax]
  00068	8b 14 8d 00 00
	00 00		 mov	 edx, DWORD PTR ?fn_set_ui_object_state@@3PAP6GXPAUUI_OBJECT@@H@ZA[ecx*4]
  0006f	ff d2		 call	 edx

; 257  : 
; 258  : 			reset_time_values (options_page[loop]);

  00071	8b 45 fc	 mov	 eax, DWORD PTR _loop$[ebp]
  00074	8b 0c 85 00 00
	00 00		 mov	 ecx, DWORD PTR ?options_page@@3PAPAUUI_OBJECT@@A[eax*4]
  0007b	51		 push	 ecx
  0007c	e8 00 00 00 00	 call	 ?reset_time_values@@YGXPAUUI_OBJECT@@@Z ; reset_time_values

; 259  : 
; 260  : 			current_options_page = loop;

  00081	8b 45 fc	 mov	 eax, DWORD PTR _loop$[ebp]
  00084	a3 00 00 00 00	 mov	 DWORD PTR ?current_options_page@@3HA, eax

; 261  : 
; 262  : 			set_ui_object_drawable (options_page [loop], TRUE);

  00089	6a 01		 push	 1
  0008b	8b 45 fc	 mov	 eax, DWORD PTR _loop$[ebp]
  0008e	8b 0c 85 00 00
	00 00		 mov	 ecx, DWORD PTR ?options_page@@3PAPAUUI_OBJECT@@A[eax*4]
  00095	51		 push	 ecx
  00096	8b 55 fc	 mov	 edx, DWORD PTR _loop$[ebp]
  00099	8b 04 95 00 00
	00 00		 mov	 eax, DWORD PTR ?options_page@@3PAPAUUI_OBJECT@@A[edx*4]
  000a0	8b 08		 mov	 ecx, DWORD PTR [eax]
  000a2	8b 14 8d 00 00
	00 00		 mov	 edx, DWORD PTR ?fn_set_ui_object_drawable@@3PAP6GXPAUUI_OBJECT@@H@ZA[ecx*4]
  000a9	ff d2		 call	 edx

; 263  : 
; 264  : 		}
; 265  : 		else

  000ab	eb 22		 jmp	 SHORT $LN6@display_op
$LN5@display_op:

; 266  : 		{	
; 267  : 			set_ui_object_state (options_page_buttons [loop], UI_OBJECT_STATE_OFF);

  000ad	6a 00		 push	 0
  000af	8b 45 fc	 mov	 eax, DWORD PTR _loop$[ebp]
  000b2	8b 0c 85 00 00
	00 00		 mov	 ecx, DWORD PTR ?options_page_buttons@@3PAPAUUI_OBJECT@@A[eax*4]
  000b9	51		 push	 ecx
  000ba	8b 55 fc	 mov	 edx, DWORD PTR _loop$[ebp]
  000bd	8b 04 95 00 00
	00 00		 mov	 eax, DWORD PTR ?options_page_buttons@@3PAPAUUI_OBJECT@@A[edx*4]
  000c4	8b 08		 mov	 ecx, DWORD PTR [eax]
  000c6	8b 14 8d 00 00
	00 00		 mov	 edx, DWORD PTR ?fn_set_ui_object_state@@3PAP6GXPAUUI_OBJECT@@H@ZA[ecx*4]
  000cd	ff d2		 call	 edx
$LN6@display_op:

; 268  : 		}
; 269  : 	}

  000cf	e9 3e ff ff ff	 jmp	 $LN2@display_op
$LN1@display_op:

; 270  : }

  000d4	5f		 pop	 edi
  000d5	5e		 pop	 esi
  000d6	5b		 pop	 ebx
  000d7	8b e5		 mov	 esp, ebp
  000d9	5d		 pop	 ebp
  000da	c2 04 00	 ret	 4
?display_options_page@@YGXW4OPTIONS_PAGES@@@Z ENDP	; display_options_page
_TEXT	ENDS
; Function compile flags: /Odtp /ZI
; File c:\users\nhv90\projects\eech\aphavoc\source\ui_menu\options\options.c
;	COMDAT ?notify_options_page@@YGXW4OPTIONS_PAGES@@@Z
_TEXT	SEGMENT
tv65 = -68						; size = 4
_page$ = 8						; size = 4
?notify_options_page@@YGXW4OPTIONS_PAGES@@@Z PROC	; notify_options_page, COMDAT

; 277  : {

  00000	55		 push	 ebp
  00001	8b ec		 mov	 ebp, esp
  00003	83 ec 44	 sub	 esp, 68			; 00000044H
  00006	53		 push	 ebx
  00007	56		 push	 esi
  00008	57		 push	 edi

; 278  : 	// Retro 12Dez2004 - apply new stick deadzone settings..
; 279  : 	if (current_options_page == OPTIONS_PAGE_CONTROLLER)

  00009	83 3d 00 00 00
	00 00		 cmp	 DWORD PTR ?current_options_page@@3HA, 0
  00010	75 05		 jne	 SHORT $LN4@notify_opt

; 280  : 	{
; 281  : 		change_joystick_properties ();

  00012	e8 00 00 00 00	 call	 ?change_joystick_properties@@YGXXZ ; change_joystick_properties
$LN4@notify_opt:

; 282  : 	}
; 283  : 
; 284  : 	switch (page)

  00017	8b 45 08	 mov	 eax, DWORD PTR _page$[ebp]
  0001a	89 45 bc	 mov	 DWORD PTR tv65[ebp], eax
  0001d	83 7d bc 06	 cmp	 DWORD PTR tv65[ebp], 6
  00021	77 3b		 ja	 SHORT $LN12@notify_opt
  00023	8b 4d bc	 mov	 ecx, DWORD PTR tv65[ebp]
  00026	ff 24 8d 00 00
	00 00		 jmp	 DWORD PTR $LN14@notify_opt[ecx*4]
$LN5@notify_opt:

; 285  : 	{
; 286  : 		case OPTIONS_PAGE_CONTROLLER:
; 287  : 		{
; 288  : 			notify_show_controller_page ();

  0002d	e8 00 00 00 00	 call	 ?notify_show_controller_page@@YGXXZ ; notify_show_controller_page

; 289  : 
; 290  : 			break;

  00032	eb 37		 jmp	 SHORT $LN1@notify_opt
$LN6@notify_opt:

; 291  : 		}
; 292  : 		case OPTIONS_PAGE_DYNAMICS:
; 293  : 		{
; 294  : 			notify_show_dynamics_page ();

  00034	e8 00 00 00 00	 call	 ?notify_show_dynamics_page@@YGXXZ ; notify_show_dynamics_page

; 295  : 
; 296  : 			break;

  00039	eb 30		 jmp	 SHORT $LN1@notify_opt
$LN7@notify_opt:

; 297  : 		}
; 298  : 		case OPTIONS_PAGE_GRAPHICS:
; 299  : 		{
; 300  : 			notify_show_graphics_page ();

  0003b	e8 00 00 00 00	 call	 ?notify_show_graphics_page@@YGXXZ ; notify_show_graphics_page

; 301  : 
; 302  : 			break;

  00040	eb 29		 jmp	 SHORT $LN1@notify_opt
$LN8@notify_opt:

; 303  : 		}
; 304  : 		case OPTIONS_PAGE_REALISM:
; 305  : 		{
; 306  : 			notify_show_realism_page ();

  00042	e8 00 00 00 00	 call	 ?notify_show_realism_page@@YGXXZ ; notify_show_realism_page

; 307  : 
; 308  : 			break;

  00047	eb 22		 jmp	 SHORT $LN1@notify_opt
$LN9@notify_opt:

; 309  : 		}
; 310  : 		case OPTIONS_PAGE_SOUND:
; 311  : 		{
; 312  : 			notify_show_sound_page ();

  00049	e8 00 00 00 00	 call	 ?notify_show_sound_page@@YGXXZ ; notify_show_sound_page

; 313  : 
; 314  : 			break;

  0004e	eb 1b		 jmp	 SHORT $LN1@notify_opt
$LN10@notify_opt:

; 315  : 		}
; 316  : 		case OPTIONS_PAGE_INGAME_SOUND:
; 317  : 		{
; 318  : 			notify_show_ingame_sound_page ();

  00050	e8 00 00 00 00	 call	 ?notify_show_ingame_sound_page@@YGXXZ ; notify_show_ingame_sound_page

; 319  : 
; 320  : 			break;

  00055	eb 14		 jmp	 SHORT $LN1@notify_opt
$LN11@notify_opt:

; 321  : 		}
; 322  : 		case OPTIONS_PAGE_MULTIPLAYER:
; 323  : 		{
; 324  : 			notify_multi_player_setup ();

  00057	e8 00 00 00 00	 call	 ?notify_multi_player_setup@@YGXXZ ; notify_multi_player_setup

; 325  : 
; 326  : 			break;

  0005c	eb 0d		 jmp	 SHORT $LN1@notify_opt
$LN12@notify_opt:

; 327  : 		}
; 328  : 		default:
; 329  : 		{
; 330  : 			debug_fatal ("OPTIONS.C: illegal options page called");

  0005e	68 00 00 00 00	 push	 OFFSET ??_C@_0CH@CAKLAPHP@OPTIONS?4C?3?5illegal?5options?5page@
  00063	e8 00 00 00 00	 call	 ?debug_fatal@@YAXPBDZZ	; debug_fatal
  00068	83 c4 04	 add	 esp, 4
$LN1@notify_opt:

; 331  : 		}
; 332  : 	}
; 333  : }

  0006b	5f		 pop	 edi
  0006c	5e		 pop	 esi
  0006d	5b		 pop	 ebx
  0006e	8b e5		 mov	 esp, ebp
  00070	5d		 pop	 ebp
  00071	c2 04 00	 ret	 4
$LN14@notify_opt:
  00074	00 00 00 00	 DD	 $LN5@notify_opt
  00078	00 00 00 00	 DD	 $LN6@notify_opt
  0007c	00 00 00 00	 DD	 $LN7@notify_opt
  00080	00 00 00 00	 DD	 $LN8@notify_opt
  00084	00 00 00 00	 DD	 $LN9@notify_opt
  00088	00 00 00 00	 DD	 $LN10@notify_opt
  0008c	00 00 00 00	 DD	 $LN11@notify_opt
?notify_options_page@@YGXW4OPTIONS_PAGES@@@Z ENDP	; notify_options_page
_TEXT	ENDS
; Function compile flags: /Odtp /ZI
; File c:\users\nhv90\projects\eech\aphavoc\source\ui_menu\options\options.c
;	COMDAT ?notify_options_screen@@YGXPAUUI_OBJECT@@PAX@Z
_TEXT	SEGMENT
_obj$ = 8						; size = 4
_arg$ = 12						; size = 4
?notify_options_screen@@YGXPAUUI_OBJECT@@PAX@Z PROC	; notify_options_screen, COMDAT

; 103  : {

  00000	55		 push	 ebp
  00001	8b ec		 mov	 ebp, esp
  00003	83 ec 40	 sub	 esp, 64			; 00000040H
  00006	53		 push	 ebx
  00007	56		 push	 esi
  00008	57		 push	 edi

; 104  : 
; 105  : 	if ( get_ui_object_drawable ( obj ) )

  00009	8b 45 08	 mov	 eax, DWORD PTR _obj$[ebp]
  0000c	50		 push	 eax
  0000d	8b 4d 08	 mov	 ecx, DWORD PTR _obj$[ebp]
  00010	8b 11		 mov	 edx, DWORD PTR [ecx]
  00012	8b 04 95 00 00
	00 00		 mov	 eax, DWORD PTR ?fn_get_ui_object_drawable@@3PAP6GHPAUUI_OBJECT@@@ZA[edx*4]
  00019	ff d0		 call	 eax
  0001b	85 c0		 test	 eax, eax
  0001d	0f 84 7c 02 00
	00		 je	 $LN2@notify_opt

; 106  : 	{
; 107  : 		
; 108  : 		//
; 109  : 		// Setup screen graphics
; 110  : 		//
; 111  : 	
; 112  : 		blit_front_buffer_to_render_buffer ();

  00023	e8 00 00 00 00	 call	 ?blit_front_buffer_to_render_buffer@@YGXXZ ; blit_front_buffer_to_render_buffer

; 113  : 	
; 114  : 		if (options_screen_graphic)

  00028	83 3d 00 00 00
	00 00		 cmp	 DWORD PTR ?options_screen_graphic@@3PAUTEXTURE_GRAPHIC@@A, 0 ; options_screen_graphic
  0002f	74 15		 je	 SHORT $LN4@notify_opt

; 115  : 		{
; 116  : 		
; 117  : 			destroy_texture_graphic (options_screen_graphic);

  00031	a1 00 00 00 00	 mov	 eax, DWORD PTR ?options_screen_graphic@@3PAUTEXTURE_GRAPHIC@@A ; options_screen_graphic
  00036	50		 push	 eax
  00037	e8 00 00 00 00	 call	 ?destroy_texture_graphic@@YGXPAUTEXTURE_GRAPHIC@@@Z ; destroy_texture_graphic

; 118  : 	
; 119  : 			options_screen_graphic = NULL;

  0003c	c7 05 00 00 00
	00 00 00 00 00	 mov	 DWORD PTR ?options_screen_graphic@@3PAUTEXTURE_GRAPHIC@@A, 0 ; options_screen_graphic
$LN4@notify_opt:

; 120  : 		}
; 121  : 		
; 122  : 		options_screen_graphic = create_texture_graphic ("graphics\\ui\\cohokum\\setup.psd");

  00046	68 00 00 00 00	 push	 OFFSET ??_C@_0BO@PPDJAGLC@graphics?2ui?2cohokum?2setup?4psd@
  0004b	e8 00 00 00 00	 call	 ?create_texture_graphic@@YGPAUTEXTURE_GRAPHIC@@PBD@Z ; create_texture_graphic
  00050	a3 00 00 00 00	 mov	 DWORD PTR ?options_screen_graphic@@3PAUTEXTURE_GRAPHIC@@A, eax ; options_screen_graphic

; 123  : 		
; 124  : 		set_ui_object_texture_graphic (options_screen, options_screen_graphic);

  00055	a1 00 00 00 00	 mov	 eax, DWORD PTR ?options_screen_graphic@@3PAUTEXTURE_GRAPHIC@@A ; options_screen_graphic
  0005a	50		 push	 eax
  0005b	8b 0d 00 00 00
	00		 mov	 ecx, DWORD PTR ?options_screen@@3PAUUI_OBJECT@@A ; options_screen
  00061	51		 push	 ecx
  00062	8b 15 00 00 00
	00		 mov	 edx, DWORD PTR ?options_screen@@3PAUUI_OBJECT@@A ; options_screen
  00068	8b 02		 mov	 eax, DWORD PTR [edx]
  0006a	8b 0c 85 00 00
	00 00		 mov	 ecx, DWORD PTR ?fn_set_ui_object_texture_graphic@@3PAP6GXPAUUI_OBJECT@@PAUTEXTURE_GRAPHIC@@@ZA[eax*4]
  00071	ff d1		 call	 ecx

; 125  : 		
; 126  : //		reset_time_values (options_screen);
; 127  : 
; 128  : 		// if called from within game - hide certain options
; 129  : 		if (get_current_game_session())

  00073	83 3d 00 00 00
	00 00		 cmp	 DWORD PTR ?current_game_session@@3PAUSESSION_LIST_DATA_TYPE@@A, 0 ; current_game_session
  0007a	0f 84 04 01 00
	00		 je	 $LN5@notify_opt

; 130  : 		{
; 131  : 			set_ui_object_highlightable (options_page_buttons[OPTIONS_PAGE_MULTIPLAYER], FALSE);

  00080	6a 00		 push	 0
  00082	b8 04 00 00 00	 mov	 eax, 4
  00087	6b c8 06	 imul	 ecx, eax, 6
  0008a	8b 91 00 00 00
	00		 mov	 edx, DWORD PTR ?options_page_buttons@@3PAPAUUI_OBJECT@@A[ecx]
  00090	52		 push	 edx
  00091	b8 04 00 00 00	 mov	 eax, 4
  00096	6b c8 06	 imul	 ecx, eax, 6
  00099	8b 91 00 00 00
	00		 mov	 edx, DWORD PTR ?options_page_buttons@@3PAPAUUI_OBJECT@@A[ecx]
  0009f	8b 02		 mov	 eax, DWORD PTR [edx]
  000a1	8b 0c 85 00 00
	00 00		 mov	 ecx, DWORD PTR ?fn_set_ui_object_highlightable@@3PAP6GXPAUUI_OBJECT@@H@ZA[eax*4]
  000a8	ff d1		 call	 ecx

; 132  : 
; 133  : 			set_ui_object_font_colour_end (options_page_buttons[OPTIONS_PAGE_MULTIPLAYER], ui_option_text_default_colour.r, ui_option_text_default_colour.g, ui_option_text_default_colour.b, 127);

  000aa	6a 7f		 push	 127			; 0000007fH
  000ac	0f b6 05 00 00
	00 00		 movzx	 eax, BYTE PTR ?ui_option_text_default_colour@@3UREAL_COLOUR@@A
  000b3	50		 push	 eax
  000b4	0f b6 0d 01 00
	00 00		 movzx	 ecx, BYTE PTR ?ui_option_text_default_colour@@3UREAL_COLOUR@@A+1
  000bb	51		 push	 ecx
  000bc	0f b6 15 02 00
	00 00		 movzx	 edx, BYTE PTR ?ui_option_text_default_colour@@3UREAL_COLOUR@@A+2
  000c3	52		 push	 edx
  000c4	b8 04 00 00 00	 mov	 eax, 4
  000c9	6b c8 06	 imul	 ecx, eax, 6
  000cc	8b 91 00 00 00
	00		 mov	 edx, DWORD PTR ?options_page_buttons@@3PAPAUUI_OBJECT@@A[ecx]
  000d2	52		 push	 edx
  000d3	b8 04 00 00 00	 mov	 eax, 4
  000d8	6b c8 06	 imul	 ecx, eax, 6
  000db	8b 91 00 00 00
	00		 mov	 edx, DWORD PTR ?options_page_buttons@@3PAPAUUI_OBJECT@@A[ecx]
  000e1	8b 02		 mov	 eax, DWORD PTR [edx]
  000e3	8b 0c 85 00 00
	00 00		 mov	 ecx, DWORD PTR ?fn_set_ui_object_font_colour_end@@3PAP6GXPAUUI_OBJECT@@DDDD@ZA[eax*4]
  000ea	ff d1		 call	 ecx

; 134  : 
; 135  : 			set_ui_object_drawable (ghost_multiplayer_option_button, TRUE);

  000ec	6a 01		 push	 1
  000ee	a1 00 00 00 00	 mov	 eax, DWORD PTR ?ghost_multiplayer_option_button@@3PAUUI_OBJECT@@A ; ghost_multiplayer_option_button
  000f3	50		 push	 eax
  000f4	8b 0d 00 00 00
	00		 mov	 ecx, DWORD PTR ?ghost_multiplayer_option_button@@3PAUUI_OBJECT@@A ; ghost_multiplayer_option_button
  000fa	8b 11		 mov	 edx, DWORD PTR [ecx]
  000fc	8b 04 95 00 00
	00 00		 mov	 eax, DWORD PTR ?fn_set_ui_object_drawable@@3PAP6GXPAUUI_OBJECT@@H@ZA[edx*4]
  00103	ff d0		 call	 eax

; 136  : 
; 137  : 			if (current_options_page == OPTIONS_PAGE_MULTIPLAYER)

  00105	83 3d 00 00 00
	00 06		 cmp	 DWORD PTR ?current_options_page@@3HA, 6
  0010c	75 0a		 jne	 SHORT $LN7@notify_opt

; 138  : 			{
; 139  : 				current_options_page = OPTIONS_PAGE_GRAPHICS;

  0010e	c7 05 00 00 00
	00 02 00 00 00	 mov	 DWORD PTR ?current_options_page@@3HA, 2
$LN7@notify_opt:

; 140  : 			}
; 141  : 
; 142  : 			#if INGAME_SOUND_OPTIONS
; 143  : 			
; 144  : 			set_ui_object_drawable (options_page_buttons[OPTIONS_PAGE_SOUND], FALSE);

  00118	6a 00		 push	 0
  0011a	b8 04 00 00 00	 mov	 eax, 4
  0011f	c1 e0 02	 shl	 eax, 2
  00122	8b 88 00 00 00
	00		 mov	 ecx, DWORD PTR ?options_page_buttons@@3PAPAUUI_OBJECT@@A[eax]
  00128	51		 push	 ecx
  00129	ba 04 00 00 00	 mov	 edx, 4
  0012e	c1 e2 02	 shl	 edx, 2
  00131	8b 82 00 00 00
	00		 mov	 eax, DWORD PTR ?options_page_buttons@@3PAPAUUI_OBJECT@@A[edx]
  00137	8b 08		 mov	 ecx, DWORD PTR [eax]
  00139	8b 14 8d 00 00
	00 00		 mov	 edx, DWORD PTR ?fn_set_ui_object_drawable@@3PAP6GXPAUUI_OBJECT@@H@ZA[ecx*4]
  00140	ff d2		 call	 edx

; 145  : 
; 146  : 			set_ui_object_drawable (options_page_buttons[OPTIONS_PAGE_INGAME_SOUND], TRUE);

  00142	6a 01		 push	 1
  00144	b8 04 00 00 00	 mov	 eax, 4
  00149	6b c8 05	 imul	 ecx, eax, 5
  0014c	8b 91 00 00 00
	00		 mov	 edx, DWORD PTR ?options_page_buttons@@3PAPAUUI_OBJECT@@A[ecx]
  00152	52		 push	 edx
  00153	b8 04 00 00 00	 mov	 eax, 4
  00158	6b c8 05	 imul	 ecx, eax, 5
  0015b	8b 91 00 00 00
	00		 mov	 edx, DWORD PTR ?options_page_buttons@@3PAPAUUI_OBJECT@@A[ecx]
  00161	8b 02		 mov	 eax, DWORD PTR [edx]
  00163	8b 0c 85 00 00
	00 00		 mov	 ecx, DWORD PTR ?fn_set_ui_object_drawable@@3PAP6GXPAUUI_OBJECT@@H@ZA[eax*4]
  0016a	ff d1		 call	 ecx

; 147  : 
; 148  : 			if (current_options_page == OPTIONS_PAGE_SOUND)

  0016c	83 3d 00 00 00
	00 04		 cmp	 DWORD PTR ?current_options_page@@3HA, 4
  00173	75 0a		 jne	 SHORT $LN8@notify_opt

; 149  : 			{
; 150  : 				current_options_page = OPTIONS_PAGE_INGAME_SOUND;

  00175	c7 05 00 00 00
	00 05 00 00 00	 mov	 DWORD PTR ?current_options_page@@3HA, 5
$LN8@notify_opt:

; 151  : 			}
; 152  : 
; 153  : 			#else
; 154  : 
; 155  : 			set_ui_object_drawable (options_page_buttons[OPTIONS_PAGE_INGAME_SOUND], FALSE);
; 156  : 
; 157  : 			set_ui_object_highlightable (options_page_buttons[OPTIONS_PAGE_SOUND], FALSE);
; 158  : 
; 159  : 			set_ui_object_font_colour_end (options_page_buttons[OPTIONS_PAGE_SOUND], ui_option_text_default_colour.r, ui_option_text_default_colour.g, ui_option_text_default_colour.b, 127);
; 160  : 
; 161  : 			set_ui_object_drawable (ghost_sound_option_button, TRUE);
; 162  : 
; 163  : 			if (current_options_page == OPTIONS_PAGE_SOUND)
; 164  : 			{
; 165  : 				current_options_page = OPTIONS_PAGE_GRAPHICS;
; 166  : 			}
; 167  : 
; 168  : 			#endif
; 169  : 		}
; 170  : 		else

  0017f	e9 ef 00 00 00	 jmp	 $LN6@notify_opt
$LN5@notify_opt:

; 171  : 		{
; 172  : 			set_ui_object_highlightable (options_page_buttons[OPTIONS_PAGE_MULTIPLAYER], TRUE);

  00184	6a 01		 push	 1
  00186	b8 04 00 00 00	 mov	 eax, 4
  0018b	6b c8 06	 imul	 ecx, eax, 6
  0018e	8b 91 00 00 00
	00		 mov	 edx, DWORD PTR ?options_page_buttons@@3PAPAUUI_OBJECT@@A[ecx]
  00194	52		 push	 edx
  00195	b8 04 00 00 00	 mov	 eax, 4
  0019a	6b c8 06	 imul	 ecx, eax, 6
  0019d	8b 91 00 00 00
	00		 mov	 edx, DWORD PTR ?options_page_buttons@@3PAPAUUI_OBJECT@@A[ecx]
  001a3	8b 02		 mov	 eax, DWORD PTR [edx]
  001a5	8b 0c 85 00 00
	00 00		 mov	 ecx, DWORD PTR ?fn_set_ui_object_highlightable@@3PAP6GXPAUUI_OBJECT@@H@ZA[eax*4]
  001ac	ff d1		 call	 ecx

; 173  : 			
; 174  : 			set_ui_object_font_colour_end (options_page_buttons[OPTIONS_PAGE_MULTIPLAYER], ui_option_text_default_colour.r, ui_option_text_default_colour.g, ui_option_text_default_colour.b, 255);

  001ae	68 ff 00 00 00	 push	 255			; 000000ffH
  001b3	0f b6 05 00 00
	00 00		 movzx	 eax, BYTE PTR ?ui_option_text_default_colour@@3UREAL_COLOUR@@A
  001ba	50		 push	 eax
  001bb	0f b6 0d 01 00
	00 00		 movzx	 ecx, BYTE PTR ?ui_option_text_default_colour@@3UREAL_COLOUR@@A+1
  001c2	51		 push	 ecx
  001c3	0f b6 15 02 00
	00 00		 movzx	 edx, BYTE PTR ?ui_option_text_default_colour@@3UREAL_COLOUR@@A+2
  001ca	52		 push	 edx
  001cb	b8 04 00 00 00	 mov	 eax, 4
  001d0	6b c8 06	 imul	 ecx, eax, 6
  001d3	8b 91 00 00 00
	00		 mov	 edx, DWORD PTR ?options_page_buttons@@3PAPAUUI_OBJECT@@A[ecx]
  001d9	52		 push	 edx
  001da	b8 04 00 00 00	 mov	 eax, 4
  001df	6b c8 06	 imul	 ecx, eax, 6
  001e2	8b 91 00 00 00
	00		 mov	 edx, DWORD PTR ?options_page_buttons@@3PAPAUUI_OBJECT@@A[ecx]
  001e8	8b 02		 mov	 eax, DWORD PTR [edx]
  001ea	8b 0c 85 00 00
	00 00		 mov	 ecx, DWORD PTR ?fn_set_ui_object_font_colour_end@@3PAP6GXPAUUI_OBJECT@@DDDD@ZA[eax*4]
  001f1	ff d1		 call	 ecx

; 175  : 
; 176  : 			set_ui_object_drawable (ghost_multiplayer_option_button, FALSE);

  001f3	6a 00		 push	 0
  001f5	a1 00 00 00 00	 mov	 eax, DWORD PTR ?ghost_multiplayer_option_button@@3PAUUI_OBJECT@@A ; ghost_multiplayer_option_button
  001fa	50		 push	 eax
  001fb	8b 0d 00 00 00
	00		 mov	 ecx, DWORD PTR ?ghost_multiplayer_option_button@@3PAUUI_OBJECT@@A ; ghost_multiplayer_option_button
  00201	8b 11		 mov	 edx, DWORD PTR [ecx]
  00203	8b 04 95 00 00
	00 00		 mov	 eax, DWORD PTR ?fn_set_ui_object_drawable@@3PAP6GXPAUUI_OBJECT@@H@ZA[edx*4]
  0020a	ff d0		 call	 eax

; 177  : 
; 178  : 			#if INGAME_SOUND_OPTIONS
; 179  : 
; 180  : 			set_ui_object_drawable (options_page_buttons[OPTIONS_PAGE_SOUND], TRUE);

  0020c	6a 01		 push	 1
  0020e	b8 04 00 00 00	 mov	 eax, 4
  00213	c1 e0 02	 shl	 eax, 2
  00216	8b 88 00 00 00
	00		 mov	 ecx, DWORD PTR ?options_page_buttons@@3PAPAUUI_OBJECT@@A[eax]
  0021c	51		 push	 ecx
  0021d	ba 04 00 00 00	 mov	 edx, 4
  00222	c1 e2 02	 shl	 edx, 2
  00225	8b 82 00 00 00
	00		 mov	 eax, DWORD PTR ?options_page_buttons@@3PAPAUUI_OBJECT@@A[edx]
  0022b	8b 08		 mov	 ecx, DWORD PTR [eax]
  0022d	8b 14 8d 00 00
	00 00		 mov	 edx, DWORD PTR ?fn_set_ui_object_drawable@@3PAP6GXPAUUI_OBJECT@@H@ZA[ecx*4]
  00234	ff d2		 call	 edx

; 181  : 
; 182  : 			set_ui_object_drawable (options_page_buttons[OPTIONS_PAGE_INGAME_SOUND], FALSE);

  00236	6a 00		 push	 0
  00238	b8 04 00 00 00	 mov	 eax, 4
  0023d	6b c8 05	 imul	 ecx, eax, 5
  00240	8b 91 00 00 00
	00		 mov	 edx, DWORD PTR ?options_page_buttons@@3PAPAUUI_OBJECT@@A[ecx]
  00246	52		 push	 edx
  00247	b8 04 00 00 00	 mov	 eax, 4
  0024c	6b c8 05	 imul	 ecx, eax, 5
  0024f	8b 91 00 00 00
	00		 mov	 edx, DWORD PTR ?options_page_buttons@@3PAPAUUI_OBJECT@@A[ecx]
  00255	8b 02		 mov	 eax, DWORD PTR [edx]
  00257	8b 0c 85 00 00
	00 00		 mov	 ecx, DWORD PTR ?fn_set_ui_object_drawable@@3PAP6GXPAUUI_OBJECT@@H@ZA[eax*4]
  0025e	ff d1		 call	 ecx

; 183  : 
; 184  : 			if (current_options_page == OPTIONS_PAGE_INGAME_SOUND)

  00260	83 3d 00 00 00
	00 05		 cmp	 DWORD PTR ?current_options_page@@3HA, 5
  00267	75 0a		 jne	 SHORT $LN6@notify_opt

; 185  : 			{
; 186  : 				current_options_page = OPTIONS_PAGE_SOUND;

  00269	c7 05 00 00 00
	00 04 00 00 00	 mov	 DWORD PTR ?current_options_page@@3HA, 4
$LN6@notify_opt:

; 187  : 			}
; 188  : 
; 189  : 			#else
; 190  : 
; 191  : 			set_ui_object_drawable (options_page_buttons[OPTIONS_PAGE_INGAME_SOUND], FALSE);
; 192  : 
; 193  : 			set_ui_object_highlightable (options_page_buttons[OPTIONS_PAGE_SOUND], TRUE);
; 194  : 			
; 195  : 			set_ui_object_font_colour_end (options_page_buttons[OPTIONS_PAGE_SOUND], ui_option_text_default_colour.r, ui_option_text_default_colour.g, ui_option_text_default_colour.b, 255);
; 196  : 
; 197  : 			set_ui_object_drawable (ghost_sound_option_button, FALSE);
; 198  : 
; 199  : 			#endif
; 200  : 		}
; 201  : 
; 202  : 		#if DEMO_VERSION
; 203  : 
; 204  : 		set_ui_object_highlightable (options_page_buttons[OPTIONS_PAGE_MULTIPLAYER], FALSE);
; 205  : 
; 206  : 		set_ui_object_font_colour_end (options_page_buttons[OPTIONS_PAGE_MULTIPLAYER], ui_option_text_default_colour.r, ui_option_text_default_colour.g, ui_option_text_default_colour.b, 127);
; 207  : 
; 208  : 		set_ui_object_drawable (ghost_multiplayer_option_button, TRUE);
; 209  : 
; 210  : 		#endif
; 211  : 
; 212  : 		//initialise the joystick devices
; 213  : 
; 214  : 		initialise_joystick_selection ();

  00273	e8 00 00 00 00	 call	 ?initialise_joystick_selection@@YGXXZ ; initialise_joystick_selection

; 215  : 
; 216  : 		//call most recently entered options page
; 217  : 		
; 218  : 		notify_options_page ((options_pages) current_options_page);

  00278	a1 00 00 00 00	 mov	 eax, DWORD PTR ?current_options_page@@3HA
  0027d	50		 push	 eax
  0027e	e8 00 00 00 00	 call	 ?notify_options_page@@YGXW4OPTIONS_PAGES@@@Z ; notify_options_page

; 219  : 
; 220  : 		// get pointer to current graphics card
; 221  : 
; 222  : 		old_graphics_card_selection = get_card_selection_device ();

  00283	e8 00 00 00 00	 call	 ?get_card_selection_device@@YGPAUDD_DISPLAY_DEVICE@@XZ ; get_card_selection_device
  00288	a3 00 00 00 00	 mov	 DWORD PTR ?old_graphics_card_selection@@3PAUDD_DISPLAY_DEVICE@@A, eax ; old_graphics_card_selection

; 223  : 
; 224  : 		old_graphics_card_automatic_selection = get_global_graphics_device_selection_automatic ();

  0028d	a1 50 00 00 00	 mov	 eax, DWORD PTR ?global_options@@3UGLOBAL_OPTIONS_DATA@@A+80
  00292	c1 e8 10	 shr	 eax, 16			; 00000010H
  00295	83 e0 01	 and	 eax, 1
  00298	a3 00 00 00 00	 mov	 DWORD PTR ?old_graphics_card_automatic_selection@@3HA, eax ; old_graphics_card_automatic_selection

; 225  : 	}
; 226  : 	else

  0029d	eb 1e		 jmp	 SHORT $LN1@notify_opt
$LN2@notify_opt:

; 227  : 	{
; 228  : 
; 229  : 		if (options_screen_graphic)

  0029f	83 3d 00 00 00
	00 00		 cmp	 DWORD PTR ?options_screen_graphic@@3PAUTEXTURE_GRAPHIC@@A, 0 ; options_screen_graphic
  002a6	74 15		 je	 SHORT $LN1@notify_opt

; 230  : 		{
; 231  : 	
; 232  : 			destroy_texture_graphic (options_screen_graphic);

  002a8	a1 00 00 00 00	 mov	 eax, DWORD PTR ?options_screen_graphic@@3PAUTEXTURE_GRAPHIC@@A ; options_screen_graphic
  002ad	50		 push	 eax
  002ae	e8 00 00 00 00	 call	 ?destroy_texture_graphic@@YGXPAUTEXTURE_GRAPHIC@@@Z ; destroy_texture_graphic

; 233  : 
; 234  : 			options_screen_graphic = NULL;

  002b3	c7 05 00 00 00
	00 00 00 00 00	 mov	 DWORD PTR ?options_screen_graphic@@3PAUTEXTURE_GRAPHIC@@A, 0 ; options_screen_graphic
$LN1@notify_opt:

; 235  : 		}
; 236  : 	}
; 237  : }

  002bd	5f		 pop	 edi
  002be	5e		 pop	 esi
  002bf	5b		 pop	 ebx
  002c0	8b e5		 mov	 esp, ebp
  002c2	5d		 pop	 ebp
  002c3	c2 08 00	 ret	 8
?notify_options_screen@@YGXPAUUI_OBJECT@@PAX@Z ENDP	; notify_options_screen
_TEXT	ENDS
END
