; Listing generated by Microsoft (R) Optimizing Compiler Version 19.16.27045.0 

	TITLE	C:\Users\nhv90\Projects\eech\aphavoc\source\entity\special\effect\particle\pa_creat.c
	.686P
	.XMM
	include listing.inc
	.model	flat

INCLUDELIB MSVCRTD
INCLUDELIB OLDNAMES

PUBLIC	?overload_particle_create_functions@@YGXXZ	; overload_particle_create_functions
PUBLIC	?create_client_server_particle_entity@@YGPAUENTITY@@HPAUVEC3D@@MH@Z ; create_client_server_particle_entity
PUBLIC	?__LINE__Var@?0??create_local@@YGPAUENTITY@@W4ENTITY_TYPES@@HPAD@Z@4JA ; `create_local'::`1'::__LINE__Var
PUBLIC	??_C@_0FG@CFPFNCOJ@c?3?2users?2nhv90?2projects?2eech?2ap@ ; `string'
PUBLIC	??_C@_0CL@OOPHFNJI@assert_local_create_entity_inde@ ; `string'
PUBLIC	??_C@_0DB@JLFODKPO@entity_sub_type_effect_valid?5?$CIr@ ; `string'
PUBLIC	??_C@_0BI@MCELCAN@raw?9?$DOparticle_count?5?$DO?50@ ; `string'
PUBLIC	??_C@_0BJ@MLPAAPIH@raw?9?$DOinitial_speed?5?$DO?50?40@ ; `string'
PUBLIC	?__LINE__Var@?0??create_remote@@YGPAUENTITY@@W4ENTITY_TYPES@@HPAD@Z@4JA ; `create_remote'::`1'::__LINE__Var
PUBLIC	??_C@_0CM@DHBIKIGD@assert_remote_create_entity_ind@ ; `string'
PUBLIC	?__LINE__Var@?0??create_server@@YGPAUENTITY@@W4ENTITY_TYPES@@HPAD@Z@4JA ; `create_server'::`1'::__LINE__Var
PUBLIC	??_C@_0CB@CFOCLFOK@assert_client_server_local_fn?5?$CI@ ; `string'
PUBLIC	??_C@_0CC@BNNNEGEG@assert_client_server_remote_fn?5@ ; `string'
PUBLIC	?__LINE__Var@?0??create_client@@YGPAUENTITY@@W4ENTITY_TYPES@@HPAD@Z@4JA ; `create_client'::`1'::__LINE__Var
PUBLIC	__real@0000000000000000
PUBLIC	__real@3f00002000400080
PUBLIC	__real@3f10000000000000
PUBLIC	__real@400921fb60000000
EXTRN	_memcpy:PROC
EXTRN	_memset:PROC
EXTRN	?process_assert@@YGXPBD0H@Z:PROC		; process_assert
EXTRN	?malloc_fast_memory@@YGPAXI@Z:PROC		; malloc_fast_memory
EXTRN	?get_3d_transformation_matrix_fast@@YGXQAY02MMMM@Z:PROC ; get_3d_transformation_matrix_fast
EXTRN	?construct_3d_object@@YGPAUOBJECT_3D_INSTANCE@@H@Z:PROC ; construct_3d_object
EXTRN	?set_local_entity_attributes@@YGXPAUENTITY@@PAD@Z:PROC ; set_local_entity_attributes
EXTRN	?insert_local_entity_into_parents_child_list@@YGXPAUENTITY@@W4LIST_TYPES@@00@Z:PROC ; insert_local_entity_into_parents_child_list
EXTRN	?create_client_server_entity@@YAPAUENTITY@@W4ENTITY_TYPES@@HZZ:PROC ; create_client_server_entity
EXTRN	?transmit_entity_comms_message@@YAXW4ENTITY_COMMS_MESSAGES@@PAUENTITY@@ZZ:PROC ; transmit_entity_comms_message
EXTRN	?assert_client_server_local_fn@@YGHXZ:PROC	; assert_client_server_local_fn
EXTRN	?assert_client_server_remote_fn@@YGHXZ:PROC	; assert_client_server_remote_fn
EXTRN	?assert_local_create_entity_index@@YGHH@Z:PROC	; assert_local_create_entity_index
EXTRN	?assert_remote_create_entity_index@@YGHH@Z:PROC	; assert_remote_create_entity_index
EXTRN	?get_free_entity@@YGPAUENTITY@@H@Z:PROC		; get_free_entity
EXTRN	?get_local_sector_entity@@YGPAUENTITY@@PAUVEC3D@@@Z:PROC ; get_local_sector_entity
EXTRN	?random_number_seed@@3HA:DWORD			; random_number_seed
EXTRN	?system_comms_data_flow@@3W4COMMS_DATA_FLOW_TYPES@@A:DWORD ; system_comms_data_flow
EXTRN	?world_map@@3UWORLD_MAP_DATA@@A:BYTE		; world_map
EXTRN	?fn_create_local_entity@@3PAP6GPAUENTITY@@W4ENTITY_TYPES@@HPAD@ZA:BYTE ; fn_create_local_entity
EXTRN	?fn_create_client_server_entity@@3PAY01P6GPAUENTITY@@W4ENTITY_TYPES@@HPAD@ZA:BYTE ; fn_create_client_server_entity
EXTRN	?force_local_entity_create_stack_attributes@@3HA:DWORD ; force_local_entity_create_stack_attributes
EXTRN	?entities@@3PAUENTITY@@A:DWORD			; entities
EXTRN	?update_entity@@3PAUENTITY@@A:DWORD		; update_entity
EXTRN	__fltused:DWORD
;	COMDAT __real@400921fb60000000
CONST	SEGMENT
__real@400921fb60000000 DQ 0400921fb60000000r	; 3.14159
CONST	ENDS
;	COMDAT __real@3f10000000000000
CONST	SEGMENT
__real@3f10000000000000 DQ 03f10000000000000r	; 6.10352e-05
CONST	ENDS
;	COMDAT __real@3f00002000400080
CONST	SEGMENT
__real@3f00002000400080 DQ 03f00002000400080r	; 3.05185e-05
CONST	ENDS
;	COMDAT __real@0000000000000000
CONST	SEGMENT
__real@0000000000000000 DQ 00000000000000000r	; 0
CONST	ENDS
;	COMDAT ?__LINE__Var@?0??create_client@@YGPAUENTITY@@W4ENTITY_TYPES@@HPAD@Z@4JA
_DATA	SEGMENT
?__LINE__Var@?0??create_client@@YGPAUENTITY@@W4ENTITY_TYPES@@HPAD@Z@4JA DD 0123H ; `create_client'::`1'::__LINE__Var
_DATA	ENDS
;	COMDAT ??_C@_0CC@BNNNEGEG@assert_client_server_remote_fn?5@
CONST	SEGMENT
??_C@_0CC@BNNNEGEG@assert_client_server_remote_fn?5@ DB 'assert_client_se'
	DB	'rver_remote_fn ()', 00H			; `string'
CONST	ENDS
;	COMDAT ??_C@_0CB@CFOCLFOK@assert_client_server_local_fn?5?$CI@
CONST	SEGMENT
??_C@_0CB@CFOCLFOK@assert_client_server_local_fn?5?$CI@ DB 'assert_client'
	DB	'_server_local_fn ()', 00H			; `string'
CONST	ENDS
;	COMDAT ?__LINE__Var@?0??create_server@@YGPAUENTITY@@W4ENTITY_TYPES@@HPAD@Z@4JA
_DATA	SEGMENT
?__LINE__Var@?0??create_server@@YGPAUENTITY@@W4ENTITY_TYPES@@HPAD@Z@4JA DD 010cH ; `create_server'::`1'::__LINE__Var
_DATA	ENDS
;	COMDAT ??_C@_0CM@DHBIKIGD@assert_remote_create_entity_ind@
CONST	SEGMENT
??_C@_0CM@DHBIKIGD@assert_remote_create_entity_ind@ DB 'assert_remote_cre'
	DB	'ate_entity_index ((index))', 00H		; `string'
CONST	ENDS
;	COMDAT ?__LINE__Var@?0??create_remote@@YGPAUENTITY@@W4ENTITY_TYPES@@HPAD@Z@4JA
_DATA	SEGMENT
?__LINE__Var@?0??create_remote@@YGPAUENTITY@@W4ENTITY_TYPES@@HPAD@Z@4JA DD 0f9H ; `create_remote'::`1'::__LINE__Var
_DATA	ENDS
;	COMDAT ??_C@_0BJ@MLPAAPIH@raw?9?$DOinitial_speed?5?$DO?50?40@
CONST	SEGMENT
??_C@_0BJ@MLPAAPIH@raw?9?$DOinitial_speed?5?$DO?50?40@ DB 'raw->initial_s'
	DB	'peed > 0.0', 00H				; `string'
CONST	ENDS
;	COMDAT ??_C@_0BI@MCELCAN@raw?9?$DOparticle_count?5?$DO?50@
CONST	SEGMENT
??_C@_0BI@MCELCAN@raw?9?$DOparticle_count?5?$DO?50@ DB 'raw->particle_cou'
	DB	'nt > 0', 00H				; `string'
CONST	ENDS
;	COMDAT ??_C@_0DB@JLFODKPO@entity_sub_type_effect_valid?5?$CIr@
CONST	SEGMENT
??_C@_0DB@JLFODKPO@entity_sub_type_effect_valid?5?$CIr@ DB 'entity_sub_ty'
	DB	'pe_effect_valid (raw->eff.sub_type)', 00H	; `string'
CONST	ENDS
;	COMDAT ??_C@_0CL@OOPHFNJI@assert_local_create_entity_inde@
CONST	SEGMENT
??_C@_0CL@OOPHFNJI@assert_local_create_entity_inde@ DB 'assert_local_crea'
	DB	'te_entity_index ((index))', 00H		; `string'
CONST	ENDS
;	COMDAT ??_C@_0FG@CFPFNCOJ@c?3?2users?2nhv90?2projects?2eech?2ap@
CONST	SEGMENT
??_C@_0FG@CFPFNCOJ@c?3?2users?2nhv90?2projects?2eech?2ap@ DB 'c:\users\nh'
	DB	'v90\projects\eech\aphavoc\source\entity\special\effect\partic'
	DB	'le\pa_creat.c', 00H				; `string'
CONST	ENDS
;	COMDAT ?__LINE__Var@?0??create_local@@YGPAUENTITY@@W4ENTITY_TYPES@@HPAD@Z@4JA
_DATA	SEGMENT
?__LINE__Var@?0??create_local@@YGPAUENTITY@@W4ENTITY_TYPES@@HPAD@Z@4JA DD 050H ; `create_local'::`1'::__LINE__Var
_DATA	ENDS
; Function compile flags: /Odtp /ZI
; File c:\users\nhv90\projects\eech\aphavoc\source\entity\special\effect\particle\pa_creat.c
;	COMDAT ?create_client@@YGPAUENTITY@@W4ENTITY_TYPES@@HPAD@Z
_TEXT	SEGMENT
_en$ = -4						; size = 4
_type$ = 8						; size = 4
_index$ = 12						; size = 4
_pargs$ = 16						; size = 4
?create_client@@YGPAUENTITY@@W4ENTITY_TYPES@@HPAD@Z PROC ; create_client, COMDAT

; 291  : {

  00000	55		 push	 ebp
  00001	8b ec		 mov	 ebp, esp
  00003	83 ec 44	 sub	 esp, 68			; 00000044H
  00006	53		 push	 ebx
  00007	56		 push	 esi
  00008	57		 push	 edi

; 292  : 	entity
; 293  : 		*en;
; 294  : 
; 295  : 	if (get_comms_data_flow () == COMMS_DATA_FLOW_TX)

  00009	83 3d 00 00 00
	00 00		 cmp	 DWORD PTR ?system_comms_data_flow@@3W4COMMS_DATA_FLOW_TYPES@@A, 0 ; system_comms_data_flow
  00010	75 37		 jne	 SHORT $LN2@create_cli

; 296  : 	{
; 297  : 		validate_client_server_remote_fn ();

  00012	e8 00 00 00 00	 call	 ?assert_client_server_remote_fn@@YGHXZ ; assert_client_server_remote_fn
  00017	85 c0		 test	 eax, eax
  00019	75 18		 jne	 SHORT $LN4@create_cli
  0001b	a1 00 00 00 00	 mov	 eax, DWORD PTR ?__LINE__Var@?0??create_client@@YGPAUENTITY@@W4ENTITY_TYPES@@HPAD@Z@4JA
  00020	83 c0 06	 add	 eax, 6
  00023	50		 push	 eax
  00024	68 00 00 00 00	 push	 OFFSET ??_C@_0FG@CFPFNCOJ@c?3?2users?2nhv90?2projects?2eech?2ap@
  00029	68 00 00 00 00	 push	 OFFSET ??_C@_0CC@BNNNEGEG@assert_client_server_remote_fn?5@
  0002e	e8 00 00 00 00	 call	 ?process_assert@@YGXPBD0H@Z ; process_assert
$LN4@create_cli:

; 298  : 
; 299  : 		en = create_remote (type, index, pargs);

  00033	8b 45 10	 mov	 eax, DWORD PTR _pargs$[ebp]
  00036	50		 push	 eax
  00037	8b 4d 0c	 mov	 ecx, DWORD PTR _index$[ebp]
  0003a	51		 push	 ecx
  0003b	8b 55 08	 mov	 edx, DWORD PTR _type$[ebp]
  0003e	52		 push	 edx
  0003f	e8 00 00 00 00	 call	 ?create_remote@@YGPAUENTITY@@W4ENTITY_TYPES@@HPAD@Z ; create_remote
  00044	89 45 fc	 mov	 DWORD PTR _en$[ebp], eax

; 300  : 	}
; 301  : 	else

  00047	eb 35		 jmp	 SHORT $LN3@create_cli
$LN2@create_cli:

; 302  : 	{
; 303  : 		validate_client_server_local_fn ();

  00049	e8 00 00 00 00	 call	 ?assert_client_server_local_fn@@YGHXZ ; assert_client_server_local_fn
  0004e	85 c0		 test	 eax, eax
  00050	75 18		 jne	 SHORT $LN5@create_cli
  00052	a1 00 00 00 00	 mov	 eax, DWORD PTR ?__LINE__Var@?0??create_client@@YGPAUENTITY@@W4ENTITY_TYPES@@HPAD@Z@4JA
  00057	83 c0 0c	 add	 eax, 12			; 0000000cH
  0005a	50		 push	 eax
  0005b	68 00 00 00 00	 push	 OFFSET ??_C@_0FG@CFPFNCOJ@c?3?2users?2nhv90?2projects?2eech?2ap@
  00060	68 00 00 00 00	 push	 OFFSET ??_C@_0CB@CFOCLFOK@assert_client_server_local_fn?5?$CI@
  00065	e8 00 00 00 00	 call	 ?process_assert@@YGXPBD0H@Z ; process_assert
$LN5@create_cli:

; 304  : 
; 305  : 		en = create_local (type, index, pargs);

  0006a	8b 45 10	 mov	 eax, DWORD PTR _pargs$[ebp]
  0006d	50		 push	 eax
  0006e	8b 4d 0c	 mov	 ecx, DWORD PTR _index$[ebp]
  00071	51		 push	 ecx
  00072	8b 55 08	 mov	 edx, DWORD PTR _type$[ebp]
  00075	52		 push	 edx
  00076	e8 00 00 00 00	 call	 ?create_local@@YGPAUENTITY@@W4ENTITY_TYPES@@HPAD@Z ; create_local
  0007b	89 45 fc	 mov	 DWORD PTR _en$[ebp], eax
$LN3@create_cli:

; 306  : 	}
; 307  : 
; 308  : 	return (en);

  0007e	8b 45 fc	 mov	 eax, DWORD PTR _en$[ebp]

; 309  : }

  00081	5f		 pop	 edi
  00082	5e		 pop	 esi
  00083	5b		 pop	 ebx
  00084	8b e5		 mov	 esp, ebp
  00086	5d		 pop	 ebp
  00087	c2 0c 00	 ret	 12			; 0000000cH
?create_client@@YGPAUENTITY@@W4ENTITY_TYPES@@HPAD@Z ENDP ; create_client
_TEXT	ENDS
; Function compile flags: /Odtp /ZI
; File c:\users\nhv90\projects\eech\aphavoc\source\entity\special\effect\particle\pa_creat.c
;	COMDAT ?create_server@@YGPAUENTITY@@W4ENTITY_TYPES@@HPAD@Z
_TEXT	SEGMENT
_en$ = -4						; size = 4
_type$ = 8						; size = 4
_index$ = 12						; size = 4
_pargs$ = 16						; size = 4
?create_server@@YGPAUENTITY@@W4ENTITY_TYPES@@HPAD@Z PROC ; create_server, COMDAT

; 268  : {

  00000	55		 push	 ebp
  00001	8b ec		 mov	 ebp, esp
  00003	83 ec 44	 sub	 esp, 68			; 00000044H
  00006	53		 push	 ebx
  00007	56		 push	 esi
  00008	57		 push	 edi

; 269  : 	entity
; 270  : 		*en;
; 271  : 
; 272  : 	validate_client_server_local_fn ();

  00009	e8 00 00 00 00	 call	 ?assert_client_server_local_fn@@YGHXZ ; assert_client_server_local_fn
  0000e	85 c0		 test	 eax, eax
  00010	75 18		 jne	 SHORT $LN2@create_ser
  00012	a1 00 00 00 00	 mov	 eax, DWORD PTR ?__LINE__Var@?0??create_server@@YGPAUENTITY@@W4ENTITY_TYPES@@HPAD@Z@4JA
  00017	83 c0 04	 add	 eax, 4
  0001a	50		 push	 eax
  0001b	68 00 00 00 00	 push	 OFFSET ??_C@_0FG@CFPFNCOJ@c?3?2users?2nhv90?2projects?2eech?2ap@
  00020	68 00 00 00 00	 push	 OFFSET ??_C@_0CB@CFOCLFOK@assert_client_server_local_fn?5?$CI@
  00025	e8 00 00 00 00	 call	 ?process_assert@@YGXPBD0H@Z ; process_assert
$LN2@create_ser:

; 273  : 
; 274  : 	en = create_local (type, index, pargs);

  0002a	8b 45 10	 mov	 eax, DWORD PTR _pargs$[ebp]
  0002d	50		 push	 eax
  0002e	8b 4d 0c	 mov	 ecx, DWORD PTR _index$[ebp]
  00031	51		 push	 ecx
  00032	8b 55 08	 mov	 edx, DWORD PTR _type$[ebp]
  00035	52		 push	 edx
  00036	e8 00 00 00 00	 call	 ?create_local@@YGPAUENTITY@@W4ENTITY_TYPES@@HPAD@Z ; create_local
  0003b	89 45 fc	 mov	 DWORD PTR _en$[ebp], eax

; 275  : 
; 276  : 	if (en)

  0003e	83 7d fc 00	 cmp	 DWORD PTR _en$[ebp], 0
  00042	74 3b		 je	 SHORT $LN3@create_ser

; 277  : 	{
; 278  : 		validate_client_server_remote_fn ();

  00044	e8 00 00 00 00	 call	 ?assert_client_server_remote_fn@@YGHXZ ; assert_client_server_remote_fn
  00049	85 c0		 test	 eax, eax
  0004b	75 18		 jne	 SHORT $LN4@create_ser
  0004d	a1 00 00 00 00	 mov	 eax, DWORD PTR ?__LINE__Var@?0??create_server@@YGPAUENTITY@@W4ENTITY_TYPES@@HPAD@Z@4JA
  00052	83 c0 0a	 add	 eax, 10			; 0000000aH
  00055	50		 push	 eax
  00056	68 00 00 00 00	 push	 OFFSET ??_C@_0FG@CFPFNCOJ@c?3?2users?2nhv90?2projects?2eech?2ap@
  0005b	68 00 00 00 00	 push	 OFFSET ??_C@_0CC@BNNNEGEG@assert_client_server_remote_fn?5@
  00060	e8 00 00 00 00	 call	 ?process_assert@@YGXPBD0H@Z ; process_assert
$LN4@create_ser:

; 279  : 
; 280  : 		create_remote (type, get_local_entity_index (en), pargs);

  00065	8b 45 10	 mov	 eax, DWORD PTR _pargs$[ebp]
  00068	50		 push	 eax
  00069	8b 4d fc	 mov	 ecx, DWORD PTR _en$[ebp]
  0006c	2b 0d 00 00 00
	00		 sub	 ecx, DWORD PTR ?entities@@3PAUENTITY@@A ; entities
  00072	c1 f9 04	 sar	 ecx, 4
  00075	51		 push	 ecx
  00076	8b 55 08	 mov	 edx, DWORD PTR _type$[ebp]
  00079	52		 push	 edx
  0007a	e8 00 00 00 00	 call	 ?create_remote@@YGPAUENTITY@@W4ENTITY_TYPES@@HPAD@Z ; create_remote
$LN3@create_ser:

; 281  : 	}
; 282  : 
; 283  : 	return (en);

  0007f	8b 45 fc	 mov	 eax, DWORD PTR _en$[ebp]

; 284  : }

  00082	5f		 pop	 edi
  00083	5e		 pop	 esi
  00084	5b		 pop	 ebx
  00085	8b e5		 mov	 esp, ebp
  00087	5d		 pop	 ebp
  00088	c2 0c 00	 ret	 12			; 0000000cH
?create_server@@YGPAUENTITY@@W4ENTITY_TYPES@@HPAD@Z ENDP ; create_server
_TEXT	ENDS
; Function compile flags: /Odtp /ZI
; File c:\users\nhv90\projects\eech\aphavoc\source\entity\special\effect\particle\pa_creat.c
;	COMDAT ?create_remote@@YGPAUENTITY@@W4ENTITY_TYPES@@HPAD@Z
_TEXT	SEGMENT
_type$ = 8						; size = 4
_index$ = 12						; size = 4
_pargs$ = 16						; size = 4
?create_remote@@YGPAUENTITY@@W4ENTITY_TYPES@@HPAD@Z PROC ; create_remote, COMDAT

; 249  : {

  00000	55		 push	 ebp
  00001	8b ec		 mov	 ebp, esp
  00003	83 ec 40	 sub	 esp, 64			; 00000040H
  00006	53		 push	 ebx
  00007	56		 push	 esi
  00008	57		 push	 edi

; 250  : 	validate_remote_create_entity_index (index);

  00009	8b 45 0c	 mov	 eax, DWORD PTR _index$[ebp]
  0000c	50		 push	 eax
  0000d	e8 00 00 00 00	 call	 ?assert_remote_create_entity_index@@YGHH@Z ; assert_remote_create_entity_index
  00012	85 c0		 test	 eax, eax
  00014	75 18		 jne	 SHORT $LN2@create_rem
  00016	a1 00 00 00 00	 mov	 eax, DWORD PTR ?__LINE__Var@?0??create_remote@@YGPAUENTITY@@W4ENTITY_TYPES@@HPAD@Z@4JA
  0001b	83 c0 01	 add	 eax, 1
  0001e	50		 push	 eax
  0001f	68 00 00 00 00	 push	 OFFSET ??_C@_0FG@CFPFNCOJ@c?3?2users?2nhv90?2projects?2eech?2ap@
  00024	68 00 00 00 00	 push	 OFFSET ??_C@_0CM@DHBIKIGD@assert_remote_create_entity_ind@
  00029	e8 00 00 00 00	 call	 ?process_assert@@YGXPBD0H@Z ; process_assert
$LN2@create_rem:

; 251  : 
; 252  : 	#if DEBUG_MODULE
; 253  : 
; 254  : 	debug_log_entity_args (ENTITY_DEBUG_REMOTE, ENTITY_DEBUG_CREATE, NULL, type, index);
; 255  : 
; 256  : 	#endif
; 257  : 
; 258  : 	transmit_entity_comms_message (ENTITY_COMMS_CREATE, NULL, type, index, pargs);

  0002e	8b 45 10	 mov	 eax, DWORD PTR _pargs$[ebp]
  00031	50		 push	 eax
  00032	8b 4d 0c	 mov	 ecx, DWORD PTR _index$[ebp]
  00035	51		 push	 ecx
  00036	8b 55 08	 mov	 edx, DWORD PTR _type$[ebp]
  00039	52		 push	 edx
  0003a	6a 00		 push	 0
  0003c	6a 08		 push	 8
  0003e	e8 00 00 00 00	 call	 ?transmit_entity_comms_message@@YAXW4ENTITY_COMMS_MESSAGES@@PAUENTITY@@ZZ ; transmit_entity_comms_message
  00043	83 c4 14	 add	 esp, 20			; 00000014H

; 259  : 
; 260  : 	return (NULL);

  00046	33 c0		 xor	 eax, eax

; 261  : }

  00048	5f		 pop	 edi
  00049	5e		 pop	 esi
  0004a	5b		 pop	 ebx
  0004b	8b e5		 mov	 esp, ebp
  0004d	5d		 pop	 ebp
  0004e	c2 0c 00	 ret	 12			; 0000000cH
?create_remote@@YGPAUENTITY@@W4ENTITY_TYPES@@HPAD@Z ENDP ; create_remote
_TEXT	ENDS
; Function compile flags: /Odtp /ZI
; File c:\users\nhv90\projects\eech\aphavoc\source\entity\special\effect\particle\pa_creat.c
;	COMDAT ?create_local@@YGPAUENTITY@@W4ENTITY_TYPES@@HPAD@Z
_TEXT	SEGMENT
_rotation_matrix$ = -52					; size = 36
_loop$ = -16						; size = 4
_seed$ = -12						; size = 4
_raw$ = -8						; size = 4
_en$ = -4						; size = 4
_type$ = 8						; size = 4
_index$ = 12						; size = 4
_pargs$ = 16						; size = 4
?create_local@@YGPAUENTITY@@W4ENTITY_TYPES@@HPAD@Z PROC	; create_local, COMDAT

; 80   : {

  00000	55		 push	 ebp
  00001	8b ec		 mov	 ebp, esp
  00003	83 ec 74	 sub	 esp, 116		; 00000074H
  00006	53		 push	 ebx
  00007	56		 push	 esi
  00008	57		 push	 edi

; 81   : 	entity
; 82   : 		*en;
; 83   : 
; 84   : 	particle
; 85   : 		*raw;
; 86   : 
; 87   : 	int
; 88   : 		seed,
; 89   : 		loop;
; 90   : 
; 91   : 	matrix3x3
; 92   : 		rotation_matrix;
; 93   : 
; 94   : 	#if DEBUG_MODULE
; 95   : 
; 96   : 	debug_log ("PARTICLE : create");
; 97   : 
; 98   : 	#endif
; 99   : 
; 100  : 	////////////////////////////////////////
; 101  :   	//
; 102  :   	// VALIDATE
; 103  :   	//
; 104  : 	////////////////////////////////////////
; 105  : 
; 106  : 	validate_local_create_entity_index (index);

  00009	8b 45 0c	 mov	 eax, DWORD PTR _index$[ebp]
  0000c	50		 push	 eax
  0000d	e8 00 00 00 00	 call	 ?assert_local_create_entity_index@@YGHH@Z ; assert_local_create_entity_index
  00012	85 c0		 test	 eax, eax
  00014	75 18		 jne	 SHORT $LN5@create_loc
  00016	a1 00 00 00 00	 mov	 eax, DWORD PTR ?__LINE__Var@?0??create_local@@YGPAUENTITY@@W4ENTITY_TYPES@@HPAD@Z@4JA
  0001b	83 c0 1a	 add	 eax, 26			; 0000001aH
  0001e	50		 push	 eax
  0001f	68 00 00 00 00	 push	 OFFSET ??_C@_0FG@CFPFNCOJ@c?3?2users?2nhv90?2projects?2eech?2ap@
  00024	68 00 00 00 00	 push	 OFFSET ??_C@_0CL@OOPHFNJI@assert_local_create_entity_inde@
  00029	e8 00 00 00 00	 call	 ?process_assert@@YGXPBD0H@Z ; process_assert
$LN5@create_loc:

; 107  : 
; 108  : 	#if DEBUG_MODULE
; 109  : 
; 110  : 	debug_log_entity_args (ENTITY_DEBUG_LOCAL, ENTITY_DEBUG_CREATE, NULL, type, index);
; 111  : 
; 112  : 	#endif
; 113  : 
; 114  : 	en = get_free_entity (index);

  0002e	8b 45 0c	 mov	 eax, DWORD PTR _index$[ebp]
  00031	50		 push	 eax
  00032	e8 00 00 00 00	 call	 ?get_free_entity@@YGPAUENTITY@@H@Z ; get_free_entity
  00037	89 45 fc	 mov	 DWORD PTR _en$[ebp], eax

; 115  : 
; 116  : 	if (en)

  0003a	83 7d fc 00	 cmp	 DWORD PTR _en$[ebp], 0
  0003e	0f 84 f1 03 00
	00		 je	 $LN6@create_loc

; 117  : 	{
; 118  : 		////////////////////////////////////////
; 119  :    	//
; 120  :    	// MALLOC ENTITY DATA
; 121  :    	//
; 122  : 		////////////////////////////////////////
; 123  : 
; 124  : 		set_local_entity_type (en, type);

  00044	8b 45 fc	 mov	 eax, DWORD PTR _en$[ebp]
  00047	8b 4d 08	 mov	 ecx, DWORD PTR _type$[ebp]
  0004a	89 08		 mov	 DWORD PTR [eax], ecx

; 125  : 
; 126  : 		raw = (particle *) malloc_fast_mem (sizeof (particle));

  0004c	6a 54		 push	 84			; 00000054H
  0004e	e8 00 00 00 00	 call	 ?malloc_fast_memory@@YGPAXI@Z ; malloc_fast_memory
  00053	89 45 f8	 mov	 DWORD PTR _raw$[ebp], eax

; 127  : 
; 128  : 		set_local_entity_data (en, raw);

  00056	8b 45 fc	 mov	 eax, DWORD PTR _en$[ebp]
  00059	8b 4d f8	 mov	 ecx, DWORD PTR _raw$[ebp]
  0005c	89 48 04	 mov	 DWORD PTR [eax+4], ecx

; 129  : 
; 130  : 		////////////////////////////////////////
; 131  :    	//
; 132  :    	// INITIALISE ALL ENTITY DATA TO 'WORKING' DEFAULT VALUES
; 133  : 		//
; 134  : 		// DO NOT USE ACCESS FUNCTIONS
; 135  : 		//
; 136  : 		// DO NOT USE RANDOM VALUES
; 137  : 		//
; 138  : 		////////////////////////////////////////
; 139  : 
; 140  : 		memset (raw, 0, sizeof (particle));

  0005f	6a 54		 push	 84			; 00000054H
  00061	6a 00		 push	 0
  00063	8b 45 f8	 mov	 eax, DWORD PTR _raw$[ebp]
  00066	50		 push	 eax
  00067	e8 00 00 00 00	 call	 _memset
  0006c	83 c4 0c	 add	 esp, 12			; 0000000cH

; 141  : 
; 142  : 		//
; 143  : 		// fixed
; 144  : 		//
; 145  : 
; 146  : 		raw->eff.position.x = MID_MAP_X;

  0006f	8b 45 f8	 mov	 eax, DWORD PTR _raw$[ebp]
  00072	f3 0f 10 05 30
	00 00 00	 movss	 xmm0, DWORD PTR ?world_map@@3UWORLD_MAP_DATA@@A+48
  0007a	f3 0f 11 40 04	 movss	 DWORD PTR [eax+4], xmm0

; 147  : 		raw->eff.position.y = MID_MAP_Y;

  0007f	8b 45 f8	 mov	 eax, DWORD PTR _raw$[ebp]
  00082	f3 0f 10 05 34
	00 00 00	 movss	 xmm0, DWORD PTR ?world_map@@3UWORLD_MAP_DATA@@A+52
  0008a	f3 0f 11 40 08	 movss	 DWORD PTR [eax+8], xmm0

; 148  : 		raw->eff.position.z = MID_MAP_Z;

  0008f	8b 45 f8	 mov	 eax, DWORD PTR _raw$[ebp]
  00092	f3 0f 10 05 38
	00 00 00	 movss	 xmm0, DWORD PTR ?world_map@@3UWORLD_MAP_DATA@@A+56
  0009a	f3 0f 11 40 0c	 movss	 DWORD PTR [eax+12], xmm0

; 149  : 
; 150  : 		////////////////////////////////////////
; 151  : 		//
; 152  : 		// OVERWRITE DEFAULT VALUES WITH GIVEN ATTRIBUTES
; 153  : 		//
; 154  : 		////////////////////////////////////////
; 155  : 
; 156  : 		set_local_entity_attributes (en, pargs);

  0009f	8b 45 10	 mov	 eax, DWORD PTR _pargs$[ebp]
  000a2	50		 push	 eax
  000a3	8b 4d fc	 mov	 ecx, DWORD PTR _en$[ebp]
  000a6	51		 push	 ecx
  000a7	e8 00 00 00 00	 call	 ?set_local_entity_attributes@@YGXPAUENTITY@@PAD@Z ; set_local_entity_attributes

; 157  : 
; 158  : 		////////////////////////////////////////
; 159  : 		//
; 160  : 		// CHECK MANDATORY ATTRIBUTES HAVE BEEN GIVEN
; 161  : 		//
; 162  : 		////////////////////////////////////////
; 163  : 
; 164  : 		ASSERT (entity_sub_type_effect_valid (raw->eff.sub_type));

  000ac	8b 45 f8	 mov	 eax, DWORD PTR _raw$[ebp]
  000af	83 38 00	 cmp	 DWORD PTR [eax], 0
  000b2	7c 08		 jl	 SHORT $LN8@create_loc
  000b4	8b 45 f8	 mov	 eax, DWORD PTR _raw$[ebp]
  000b7	83 38 2e	 cmp	 DWORD PTR [eax], 46	; 0000002eH
  000ba	7c 18		 jl	 SHORT $LN7@create_loc
$LN8@create_loc:
  000bc	a1 00 00 00 00	 mov	 eax, DWORD PTR ?__LINE__Var@?0??create_local@@YGPAUENTITY@@W4ENTITY_TYPES@@HPAD@Z@4JA
  000c1	83 c0 54	 add	 eax, 84			; 00000054H
  000c4	50		 push	 eax
  000c5	68 00 00 00 00	 push	 OFFSET ??_C@_0FG@CFPFNCOJ@c?3?2users?2nhv90?2projects?2eech?2ap@
  000ca	68 00 00 00 00	 push	 OFFSET ??_C@_0DB@JLFODKPO@entity_sub_type_effect_valid?5?$CIr@
  000cf	e8 00 00 00 00	 call	 ?process_assert@@YGXPBD0H@Z ; process_assert
$LN7@create_loc:

; 165  : 
; 166  : 		ASSERT (raw->particle_count > 0);

  000d4	8b 45 f8	 mov	 eax, DWORD PTR _raw$[ebp]
  000d7	0f b6 48 2c	 movzx	 ecx, BYTE PTR [eax+44]
  000db	85 c9		 test	 ecx, ecx
  000dd	7f 18		 jg	 SHORT $LN9@create_loc
  000df	a1 00 00 00 00	 mov	 eax, DWORD PTR ?__LINE__Var@?0??create_local@@YGPAUENTITY@@W4ENTITY_TYPES@@HPAD@Z@4JA
  000e4	83 c0 56	 add	 eax, 86			; 00000056H
  000e7	50		 push	 eax
  000e8	68 00 00 00 00	 push	 OFFSET ??_C@_0FG@CFPFNCOJ@c?3?2users?2nhv90?2projects?2eech?2ap@
  000ed	68 00 00 00 00	 push	 OFFSET ??_C@_0BI@MCELCAN@raw?9?$DOparticle_count?5?$DO?50@
  000f2	e8 00 00 00 00	 call	 ?process_assert@@YGXPBD0H@Z ; process_assert
$LN9@create_loc:

; 167  : 
; 168  : 		ASSERT (raw->initial_speed > 0.0);

  000f7	8b 45 f8	 mov	 eax, DWORD PTR _raw$[ebp]
  000fa	f3 0f 5a 40 28	 cvtss2sd xmm0, DWORD PTR [eax+40]
  000ff	66 0f 2f 05 00
	00 00 00	 comisd	 xmm0, QWORD PTR __real@0000000000000000
  00107	77 18		 ja	 SHORT $LN10@create_loc
  00109	a1 00 00 00 00	 mov	 eax, DWORD PTR ?__LINE__Var@?0??create_local@@YGPAUENTITY@@W4ENTITY_TYPES@@HPAD@Z@4JA
  0010e	83 c0 58	 add	 eax, 88			; 00000058H
  00111	50		 push	 eax
  00112	68 00 00 00 00	 push	 OFFSET ??_C@_0FG@CFPFNCOJ@c?3?2users?2nhv90?2projects?2eech?2ap@
  00117	68 00 00 00 00	 push	 OFFSET ??_C@_0BJ@MLPAAPIH@raw?9?$DOinitial_speed?5?$DO?50?40@
  0011c	e8 00 00 00 00	 call	 ?process_assert@@YGXPBD0H@Z ; process_assert
$LN10@create_loc:

; 169  : 
; 170  : 		////////////////////////////////////////
; 171  : 		//
; 172  : 		// RESOLVE DEFAULT VALUES
; 173  : 		//
; 174  : 		////////////////////////////////////////
; 175  : 
; 176  : 		////////////////////////////////////////
; 177  : 		//
; 178  : 		// BUILD COMPONENTS
; 179  : 		//
; 180  : 		////////////////////////////////////////
; 181  : 
; 182  : 		//
; 183  : 		// Build array of particle positions, and set all to effect position
; 184  : 		//
; 185  : 
; 186  : 		raw->valid = (unsigned char *) malloc_fast_mem (sizeof (unsigned char) * raw->particle_count);

  00121	8b 45 f8	 mov	 eax, DWORD PTR _raw$[ebp]
  00124	0f b6 48 2c	 movzx	 ecx, BYTE PTR [eax+44]
  00128	51		 push	 ecx
  00129	e8 00 00 00 00	 call	 ?malloc_fast_memory@@YGPAXI@Z ; malloc_fast_memory
  0012e	8b 55 f8	 mov	 edx, DWORD PTR _raw$[ebp]
  00131	89 42 30	 mov	 DWORD PTR [edx+48], eax

; 187  : 
; 188  : 		raw->position = (vec3d *) malloc_fast_mem (sizeof (vec3d) * raw->particle_count);

  00134	8b 45 f8	 mov	 eax, DWORD PTR _raw$[ebp]
  00137	0f b6 48 2c	 movzx	 ecx, BYTE PTR [eax+44]
  0013b	6b d1 0c	 imul	 edx, ecx, 12
  0013e	52		 push	 edx
  0013f	e8 00 00 00 00	 call	 ?malloc_fast_memory@@YGPAXI@Z ; malloc_fast_memory
  00144	8b 4d f8	 mov	 ecx, DWORD PTR _raw$[ebp]
  00147	89 41 40	 mov	 DWORD PTR [ecx+64], eax

; 189  : 
; 190  : 		raw->motion_vector = (vec3d *) malloc_fast_mem (sizeof (vec3d) * raw->particle_count);

  0014a	8b 45 f8	 mov	 eax, DWORD PTR _raw$[ebp]
  0014d	0f b6 48 2c	 movzx	 ecx, BYTE PTR [eax+44]
  00151	6b d1 0c	 imul	 edx, ecx, 12
  00154	52		 push	 edx
  00155	e8 00 00 00 00	 call	 ?malloc_fast_memory@@YGPAXI@Z ; malloc_fast_memory
  0015a	8b 4d f8	 mov	 ecx, DWORD PTR _raw$[ebp]
  0015d	89 41 3c	 mov	 DWORD PTR [ecx+60], eax

; 191  : 
; 192  : 		raw->inst3d = (object_3d_instance **) malloc_fast_mem (sizeof (object_3d_instance *) * raw->particle_count);

  00160	8b 45 f8	 mov	 eax, DWORD PTR _raw$[ebp]
  00163	0f b6 48 2c	 movzx	 ecx, BYTE PTR [eax+44]
  00167	c1 e1 02	 shl	 ecx, 2
  0016a	51		 push	 ecx
  0016b	e8 00 00 00 00	 call	 ?malloc_fast_memory@@YGPAXI@Z ; malloc_fast_memory
  00170	8b 55 f8	 mov	 edx, DWORD PTR _raw$[ebp]
  00173	89 42 38	 mov	 DWORD PTR [edx+56], eax

; 193  : 
; 194  : 		seed = get_client_server_entity_random_number_seed( en );

  00176	8b 45 fc	 mov	 eax, DWORD PTR _en$[ebp]
  00179	2b 05 00 00 00
	00		 sub	 eax, DWORD PTR ?entities@@3PAUENTITY@@A ; entities
  0017f	c1 f8 04	 sar	 eax, 4
  00182	89 45 f4	 mov	 DWORD PTR _seed$[ebp], eax

; 195  : 
; 196  : 		#if DEBUG_MODULE
; 197  : 
; 198  : 		debug_log ("PARTICLE : initial speed = %f", raw->initial_speed);
; 199  : 
; 200  : 		#endif
; 201  : 
; 202  : 		for ( loop = raw->particle_count - 1 ; loop >= 0 ; loop -- )

  00185	8b 45 f8	 mov	 eax, DWORD PTR _raw$[ebp]
  00188	0f b6 48 2c	 movzx	 ecx, BYTE PTR [eax+44]
  0018c	83 e9 01	 sub	 ecx, 1
  0018f	89 4d f0	 mov	 DWORD PTR _loop$[ebp], ecx
  00192	eb 09		 jmp	 SHORT $LN4@create_loc
$LN2@create_loc:
  00194	8b 45 f0	 mov	 eax, DWORD PTR _loop$[ebp]
  00197	83 e8 01	 sub	 eax, 1
  0019a	89 45 f0	 mov	 DWORD PTR _loop$[ebp], eax
$LN4@create_loc:
  0019d	83 7d f0 00	 cmp	 DWORD PTR _loop$[ebp], 0
  001a1	0f 8c 61 02 00
	00		 jl	 $LN3@create_loc

; 203  : 		{
; 204  : 			raw->valid[ loop ] = TRUE;

  001a7	8b 45 f8	 mov	 eax, DWORD PTR _raw$[ebp]
  001aa	8b 48 30	 mov	 ecx, DWORD PTR [eax+48]
  001ad	8b 55 f0	 mov	 edx, DWORD PTR _loop$[ebp]
  001b0	c6 04 11 01	 mov	 BYTE PTR [ecx+edx], 1

; 205  : 
; 206  : 			if (raw->object_3d_shape != OBJECT_3D_INVALID_OBJECT_INDEX)

  001b4	8b 45 f8	 mov	 eax, DWORD PTR _raw$[ebp]
  001b7	83 78 34 00	 cmp	 DWORD PTR [eax+52], 0
  001bb	0f 84 17 01 00
	00		 je	 $LN11@create_loc

; 207  : 			{
; 208  : 				raw->inst3d[ loop ] = construct_3d_object (raw->object_3d_shape);

  001c1	8b 45 f8	 mov	 eax, DWORD PTR _raw$[ebp]
  001c4	8b 48 34	 mov	 ecx, DWORD PTR [eax+52]
  001c7	51		 push	 ecx
  001c8	e8 00 00 00 00	 call	 ?construct_3d_object@@YGPAUOBJECT_3D_INSTANCE@@H@Z ; construct_3d_object
  001cd	8b 55 f8	 mov	 edx, DWORD PTR _raw$[ebp]
  001d0	8b 4a 38	 mov	 ecx, DWORD PTR [edx+56]
  001d3	8b 55 f0	 mov	 edx, DWORD PTR _loop$[ebp]
  001d6	89 04 91	 mov	 DWORD PTR [ecx+edx*4], eax

; 209  : 
; 210  : 				// okay to use random values as its for visual effect only
; 211  : 				get_3d_transformation_matrix_fast (rotation_matrix, PI * sfrand1(), PI * sfrand1(), PI * sfrand1());

  001d9	69 05 00 00 00
	00 6d 4e c6 41	 imul	 eax, DWORD PTR ?random_number_seed@@3HA, 1103515245 ; random_number_seed
  001e3	05 39 30 00 00	 add	 eax, 12345		; 00003039H
  001e8	a3 00 00 00 00	 mov	 DWORD PTR ?random_number_seed@@3HA, eax ; random_number_seed
  001ed	69 0d 00 00 00
	00 6d 4e c6 41	 imul	 ecx, DWORD PTR ?random_number_seed@@3HA, 1103515245 ; random_number_seed
  001f7	81 c1 39 30 00
	00		 add	 ecx, 12345		; 00003039H
  001fd	89 0d 00 00 00
	00		 mov	 DWORD PTR ?random_number_seed@@3HA, ecx ; random_number_seed
  00203	69 15 00 00 00
	00 6d 4e c6 41	 imul	 edx, DWORD PTR ?random_number_seed@@3HA, 1103515245 ; random_number_seed
  0020d	81 c2 39 30 00
	00		 add	 edx, 12345		; 00003039H
  00213	89 15 00 00 00
	00		 mov	 DWORD PTR ?random_number_seed@@3HA, edx ; random_number_seed
  00219	a1 00 00 00 00	 mov	 eax, DWORD PTR ?random_number_seed@@3HA ; random_number_seed
  0021e	c1 f8 10	 sar	 eax, 16			; 00000010H
  00221	25 ff 7f 00 00	 and	 eax, 32767		; 00007fffH
  00226	2d 00 40 00 00	 sub	 eax, 16384		; 00004000H
  0022b	f2 0f 2a c0	 cvtsi2sd xmm0, eax
  0022f	f2 0f 59 05 00
	00 00 00	 mulsd	 xmm0, QWORD PTR __real@3f10000000000000
  00237	f2 0f 59 05 00
	00 00 00	 mulsd	 xmm0, QWORD PTR __real@400921fb60000000
  0023f	f2 0f 5a c0	 cvtsd2ss xmm0, xmm0
  00243	51		 push	 ecx
  00244	f3 0f 11 04 24	 movss	 DWORD PTR [esp], xmm0
  00249	8b 0d 00 00 00
	00		 mov	 ecx, DWORD PTR ?random_number_seed@@3HA ; random_number_seed
  0024f	c1 f9 10	 sar	 ecx, 16			; 00000010H
  00252	81 e1 ff 7f 00
	00		 and	 ecx, 32767		; 00007fffH
  00258	81 e9 00 40 00
	00		 sub	 ecx, 16384		; 00004000H
  0025e	f2 0f 2a c1	 cvtsi2sd xmm0, ecx
  00262	f2 0f 59 05 00
	00 00 00	 mulsd	 xmm0, QWORD PTR __real@3f10000000000000
  0026a	f2 0f 59 05 00
	00 00 00	 mulsd	 xmm0, QWORD PTR __real@400921fb60000000
  00272	f2 0f 5a c0	 cvtsd2ss xmm0, xmm0
  00276	51		 push	 ecx
  00277	f3 0f 11 04 24	 movss	 DWORD PTR [esp], xmm0
  0027c	8b 15 00 00 00
	00		 mov	 edx, DWORD PTR ?random_number_seed@@3HA ; random_number_seed
  00282	c1 fa 10	 sar	 edx, 16			; 00000010H
  00285	81 e2 ff 7f 00
	00		 and	 edx, 32767		; 00007fffH
  0028b	81 ea 00 40 00
	00		 sub	 edx, 16384		; 00004000H
  00291	f2 0f 2a c2	 cvtsi2sd xmm0, edx
  00295	f2 0f 59 05 00
	00 00 00	 mulsd	 xmm0, QWORD PTR __real@3f10000000000000
  0029d	f2 0f 59 05 00
	00 00 00	 mulsd	 xmm0, QWORD PTR __real@400921fb60000000
  002a5	f2 0f 5a c0	 cvtsd2ss xmm0, xmm0
  002a9	51		 push	 ecx
  002aa	f3 0f 11 04 24	 movss	 DWORD PTR [esp], xmm0
  002af	8d 45 cc	 lea	 eax, DWORD PTR _rotation_matrix$[ebp]
  002b2	50		 push	 eax
  002b3	e8 00 00 00 00	 call	 ?get_3d_transformation_matrix_fast@@YGXQAY02MMMM@Z ; get_3d_transformation_matrix_fast

; 212  : 
; 213  : 				memcpy (raw->inst3d [loop]->vp.attitude, rotation_matrix, sizeof (matrix3x3));

  002b8	6a 24		 push	 36			; 00000024H
  002ba	8d 45 cc	 lea	 eax, DWORD PTR _rotation_matrix$[ebp]
  002bd	50		 push	 eax
  002be	8b 4d f8	 mov	 ecx, DWORD PTR _raw$[ebp]
  002c1	8b 51 38	 mov	 edx, DWORD PTR [ecx+56]
  002c4	8b 45 f0	 mov	 eax, DWORD PTR _loop$[ebp]
  002c7	8b 0c 82	 mov	 ecx, DWORD PTR [edx+eax*4]
  002ca	83 c1 14	 add	 ecx, 20			; 00000014H
  002cd	51		 push	 ecx
  002ce	e8 00 00 00 00	 call	 _memcpy
  002d3	83 c4 0c	 add	 esp, 12			; 0000000cH

; 214  : 			}
; 215  : 			else

  002d6	eb 10		 jmp	 SHORT $LN12@create_loc
$LN11@create_loc:

; 216  : 			{
; 217  : 				raw->inst3d[ loop ] = NULL;

  002d8	8b 45 f8	 mov	 eax, DWORD PTR _raw$[ebp]
  002db	8b 48 38	 mov	 ecx, DWORD PTR [eax+56]
  002de	8b 55 f0	 mov	 edx, DWORD PTR _loop$[ebp]
  002e1	c7 04 91 00 00
	00 00		 mov	 DWORD PTR [ecx+edx*4], 0
$LN12@create_loc:

; 218  : 			}
; 219  : 
; 220  : 			raw->position[ loop ].x = raw->eff.position.x;

  002e8	6b 45 f0 0c	 imul	 eax, DWORD PTR _loop$[ebp], 12
  002ec	8b 4d f8	 mov	 ecx, DWORD PTR _raw$[ebp]
  002ef	8b 51 40	 mov	 edx, DWORD PTR [ecx+64]
  002f2	8b 4d f8	 mov	 ecx, DWORD PTR _raw$[ebp]
  002f5	8b 49 04	 mov	 ecx, DWORD PTR [ecx+4]
  002f8	89 0c 02	 mov	 DWORD PTR [edx+eax], ecx

; 221  : 			raw->position[ loop ].y = raw->eff.position.y;

  002fb	6b 45 f0 0c	 imul	 eax, DWORD PTR _loop$[ebp], 12
  002ff	8b 4d f8	 mov	 ecx, DWORD PTR _raw$[ebp]
  00302	8b 51 40	 mov	 edx, DWORD PTR [ecx+64]
  00305	8b 4d f8	 mov	 ecx, DWORD PTR _raw$[ebp]
  00308	8b 49 08	 mov	 ecx, DWORD PTR [ecx+8]
  0030b	89 4c 02 04	 mov	 DWORD PTR [edx+eax+4], ecx

; 222  : 			raw->position[ loop ].z = raw->eff.position.z;

  0030f	6b 45 f0 0c	 imul	 eax, DWORD PTR _loop$[ebp], 12
  00313	8b 4d f8	 mov	 ecx, DWORD PTR _raw$[ebp]
  00316	8b 51 40	 mov	 edx, DWORD PTR [ecx+64]
  00319	8b 4d f8	 mov	 ecx, DWORD PTR _raw$[ebp]
  0031c	8b 49 0c	 mov	 ecx, DWORD PTR [ecx+12]
  0031f	89 4c 02 08	 mov	 DWORD PTR [edx+eax+8], ecx

; 223  : 
; 224  : 			raw->motion_vector[ loop ].x = ( sfrand1x( &seed ) * raw->initial_speed );

  00323	69 45 f4 6d 4e
	c6 41		 imul	 eax, DWORD PTR _seed$[ebp], 1103515245
  0032a	05 39 30 00 00	 add	 eax, 12345		; 00003039H
  0032f	89 45 f4	 mov	 DWORD PTR _seed$[ebp], eax
  00332	8b 4d f4	 mov	 ecx, DWORD PTR _seed$[ebp]
  00335	c1 f9 10	 sar	 ecx, 16			; 00000010H
  00338	81 e1 ff 7f 00
	00		 and	 ecx, 32767		; 00007fffH
  0033e	81 e9 00 40 00
	00		 sub	 ecx, 16384		; 00004000H
  00344	f2 0f 2a c1	 cvtsi2sd xmm0, ecx
  00348	f2 0f 59 05 00
	00 00 00	 mulsd	 xmm0, QWORD PTR __real@3f10000000000000
  00350	8b 55 f8	 mov	 edx, DWORD PTR _raw$[ebp]
  00353	f3 0f 5a 4a 28	 cvtss2sd xmm1, DWORD PTR [edx+40]
  00358	f2 0f 59 c1	 mulsd	 xmm0, xmm1
  0035c	f2 0f 5a c0	 cvtsd2ss xmm0, xmm0
  00360	6b 45 f0 0c	 imul	 eax, DWORD PTR _loop$[ebp], 12
  00364	8b 4d f8	 mov	 ecx, DWORD PTR _raw$[ebp]
  00367	8b 51 3c	 mov	 edx, DWORD PTR [ecx+60]
  0036a	f3 0f 11 04 02	 movss	 DWORD PTR [edx+eax], xmm0

; 225  : 			raw->motion_vector[ loop ].y = ( frand1x( &seed ) * raw->initial_speed );

  0036f	69 45 f4 6d 4e
	c6 41		 imul	 eax, DWORD PTR _seed$[ebp], 1103515245
  00376	05 39 30 00 00	 add	 eax, 12345		; 00003039H
  0037b	89 45 f4	 mov	 DWORD PTR _seed$[ebp], eax
  0037e	8b 4d f4	 mov	 ecx, DWORD PTR _seed$[ebp]
  00381	c1 f9 10	 sar	 ecx, 16			; 00000010H
  00384	81 e1 ff 7f 00
	00		 and	 ecx, 32767		; 00007fffH
  0038a	f2 0f 2a c1	 cvtsi2sd xmm0, ecx
  0038e	f2 0f 59 05 00
	00 00 00	 mulsd	 xmm0, QWORD PTR __real@3f00002000400080
  00396	8b 55 f8	 mov	 edx, DWORD PTR _raw$[ebp]
  00399	f3 0f 5a 4a 28	 cvtss2sd xmm1, DWORD PTR [edx+40]
  0039e	f2 0f 59 c1	 mulsd	 xmm0, xmm1
  003a2	f2 0f 5a c0	 cvtsd2ss xmm0, xmm0
  003a6	6b 45 f0 0c	 imul	 eax, DWORD PTR _loop$[ebp], 12
  003aa	8b 4d f8	 mov	 ecx, DWORD PTR _raw$[ebp]
  003ad	8b 51 3c	 mov	 edx, DWORD PTR [ecx+60]
  003b0	f3 0f 11 44 02
	04		 movss	 DWORD PTR [edx+eax+4], xmm0

; 226  : 			raw->motion_vector[ loop ].z = ( sfrand1x( &seed ) * raw->initial_speed );

  003b6	69 45 f4 6d 4e
	c6 41		 imul	 eax, DWORD PTR _seed$[ebp], 1103515245
  003bd	05 39 30 00 00	 add	 eax, 12345		; 00003039H
  003c2	89 45 f4	 mov	 DWORD PTR _seed$[ebp], eax
  003c5	8b 4d f4	 mov	 ecx, DWORD PTR _seed$[ebp]
  003c8	c1 f9 10	 sar	 ecx, 16			; 00000010H
  003cb	81 e1 ff 7f 00
	00		 and	 ecx, 32767		; 00007fffH
  003d1	81 e9 00 40 00
	00		 sub	 ecx, 16384		; 00004000H
  003d7	f2 0f 2a c1	 cvtsi2sd xmm0, ecx
  003db	f2 0f 59 05 00
	00 00 00	 mulsd	 xmm0, QWORD PTR __real@3f10000000000000
  003e3	8b 55 f8	 mov	 edx, DWORD PTR _raw$[ebp]
  003e6	f3 0f 5a 4a 28	 cvtss2sd xmm1, DWORD PTR [edx+40]
  003eb	f2 0f 59 c1	 mulsd	 xmm0, xmm1
  003ef	f2 0f 5a c0	 cvtsd2ss xmm0, xmm0
  003f3	6b 45 f0 0c	 imul	 eax, DWORD PTR _loop$[ebp], 12
  003f7	8b 4d f8	 mov	 ecx, DWORD PTR _raw$[ebp]
  003fa	8b 51 3c	 mov	 edx, DWORD PTR [ecx+60]
  003fd	f3 0f 11 44 02
	08		 movss	 DWORD PTR [edx+eax+8], xmm0

; 227  : 
; 228  : 		}

  00403	e9 8c fd ff ff	 jmp	 $LN2@create_loc
$LN3@create_loc:

; 229  : 
; 230  : 		////////////////////////////////////////
; 231  : 		//
; 232  : 		// LINK INTO SYSTEM
; 233  : 		//
; 234  : 		////////////////////////////////////////
; 235  : 
; 236  : 		insert_local_entity_into_parents_child_list (en, LIST_TYPE_UPDATE, get_update_entity(), NULL);

  00408	6a 00		 push	 0
  0040a	a1 00 00 00 00	 mov	 eax, DWORD PTR ?update_entity@@3PAUENTITY@@A ; update_entity
  0040f	50		 push	 eax
  00410	6a 29		 push	 41			; 00000029H
  00412	8b 4d fc	 mov	 ecx, DWORD PTR _en$[ebp]
  00415	51		 push	 ecx
  00416	e8 00 00 00 00	 call	 ?insert_local_entity_into_parents_child_list@@YGXPAUENTITY@@W4LIST_TYPES@@00@Z ; insert_local_entity_into_parents_child_list

; 237  : 
; 238  : 		insert_local_entity_into_parents_child_list (en, LIST_TYPE_SECTOR, get_local_sector_entity (&raw->eff.position), NULL);

  0041b	6a 00		 push	 0
  0041d	8b 45 f8	 mov	 eax, DWORD PTR _raw$[ebp]
  00420	83 c0 04	 add	 eax, 4
  00423	50		 push	 eax
  00424	e8 00 00 00 00	 call	 ?get_local_sector_entity@@YGPAUENTITY@@PAUVEC3D@@@Z ; get_local_sector_entity
  00429	50		 push	 eax
  0042a	6a 21		 push	 33			; 00000021H
  0042c	8b 4d fc	 mov	 ecx, DWORD PTR _en$[ebp]
  0042f	51		 push	 ecx
  00430	e8 00 00 00 00	 call	 ?insert_local_entity_into_parents_child_list@@YGXPAUENTITY@@W4LIST_TYPES@@00@Z ; insert_local_entity_into_parents_child_list
$LN6@create_loc:

; 239  : 	}
; 240  : 
; 241  : 	return (en);

  00435	8b 45 fc	 mov	 eax, DWORD PTR _en$[ebp]

; 242  : }

  00438	5f		 pop	 edi
  00439	5e		 pop	 esi
  0043a	5b		 pop	 ebx
  0043b	8b e5		 mov	 esp, ebp
  0043d	5d		 pop	 ebp
  0043e	c2 0c 00	 ret	 12			; 0000000cH
?create_local@@YGPAUENTITY@@W4ENTITY_TYPES@@HPAD@Z ENDP	; create_local
_TEXT	ENDS
; Function compile flags: /Odtp /ZI
; File c:\users\nhv90\projects\eech\aphavoc\source\entity\special\effect\particle\pa_creat.c
;	COMDAT ?create_client_server_particle_entity@@YGPAUENTITY@@HPAUVEC3D@@MH@Z
_TEXT	SEGMENT
_create_stack_attributes$ = -8				; size = 4
_en$ = -4						; size = 4
_particle_count$ = 8					; size = 4
_position$ = 12						; size = 4
_initial_speed$ = 16					; size = 4
_object_3d_shape$ = 20					; size = 4
?create_client_server_particle_entity@@YGPAUENTITY@@HPAUVEC3D@@MH@Z PROC ; create_client_server_particle_entity, COMDAT

; 316  : {

  00000	55		 push	 ebp
  00001	8b ec		 mov	 ebp, esp
  00003	83 ec 48	 sub	 esp, 72			; 00000048H
  00006	53		 push	 ebx
  00007	56		 push	 esi
  00008	57		 push	 edi

; 317  : 
; 318  : 	entity
; 319  : 		*en;
; 320  : 
; 321  : 	int
; 322  : 		create_stack_attributes;
; 323  : 
; 324  : 	create_stack_attributes = force_local_entity_create_stack_attributes;

  00009	a1 00 00 00 00	 mov	 eax, DWORD PTR ?force_local_entity_create_stack_attributes@@3HA ; force_local_entity_create_stack_attributes
  0000e	89 45 f8	 mov	 DWORD PTR _create_stack_attributes$[ebp], eax

; 325  : 
; 326  : 	if (get_comms_data_flow () == COMMS_DATA_FLOW_RX)

  00011	83 3d 00 00 00
	00 01		 cmp	 DWORD PTR ?system_comms_data_flow@@3W4COMMS_DATA_FLOW_TYPES@@A, 1 ; system_comms_data_flow
  00018	75 0a		 jne	 SHORT $LN2@create_cli

; 327  : 	{
; 328  : 		set_force_local_entity_create_stack_attributes (TRUE);

  0001a	c7 05 00 00 00
	00 01 00 00 00	 mov	 DWORD PTR ?force_local_entity_create_stack_attributes@@3HA, 1 ; force_local_entity_create_stack_attributes
$LN2@create_cli:

; 329  : 	}
; 330  : 
; 331  : 	en = create_client_server_entity

  00024	6a 00		 push	 0
  00026	f3 0f 5a 45 10	 cvtss2sd xmm0, DWORD PTR _initial_speed$[ebp]
  0002b	83 ec 08	 sub	 esp, 8
  0002e	f2 0f 11 04 24	 movsd	 QWORD PTR [esp], xmm0
  00033	6a 36		 push	 54			; 00000036H
  00035	6a 04		 push	 4
  00037	8b 45 0c	 mov	 eax, DWORD PTR _position$[ebp]
  0003a	f3 0f 10 40 08	 movss	 xmm0, DWORD PTR [eax+8]
  0003f	f3 0f 5a c0	 cvtss2sd xmm0, xmm0
  00043	83 ec 08	 sub	 esp, 8
  00046	f2 0f 11 04 24	 movsd	 QWORD PTR [esp], xmm0
  0004b	8b 4d 0c	 mov	 ecx, DWORD PTR _position$[ebp]
  0004e	f3 0f 10 41 04	 movss	 xmm0, DWORD PTR [ecx+4]
  00053	f3 0f 5a c0	 cvtss2sd xmm0, xmm0
  00057	83 ec 08	 sub	 esp, 8
  0005a	f2 0f 11 04 24	 movsd	 QWORD PTR [esp], xmm0
  0005f	8b 55 0c	 mov	 edx, DWORD PTR _position$[ebp]
  00062	f3 0f 10 02	 movss	 xmm0, DWORD PTR [edx]
  00066	f3 0f 5a c0	 cvtss2sd xmm0, xmm0
  0006a	83 ec 08	 sub	 esp, 8
  0006d	f2 0f 11 04 24	 movsd	 QWORD PTR [esp], xmm0
  00072	6a 08		 push	 8
  00074	6a 09		 push	 9
  00076	8b 45 14	 mov	 eax, DWORD PTR _object_3d_shape$[ebp]
  00079	50		 push	 eax
  0007a	68 92 00 00 00	 push	 146			; 00000092H
  0007f	6a 05		 push	 5
  00081	8b 4d 08	 mov	 ecx, DWORD PTR _particle_count$[ebp]
  00084	51		 push	 ecx
  00085	68 98 00 00 00	 push	 152			; 00000098H
  0008a	6a 05		 push	 5
  0008c	6a 00		 push	 0
  0008e	6a 34		 push	 52			; 00000034H
  00090	6a 05		 push	 5
  00092	6a ff		 push	 -1
  00094	6a 12		 push	 18			; 00000012H
  00096	e8 00 00 00 00	 call	 ?create_client_server_entity@@YAPAUENTITY@@W4ENTITY_TYPES@@HZZ ; create_client_server_entity
  0009b	83 c4 60	 add	 esp, 96			; 00000060H
  0009e	89 45 fc	 mov	 DWORD PTR _en$[ebp], eax

; 332  : 	(
; 333  : 		ENTITY_TYPE_PARTICLE,
; 334  : 		ENTITY_INDEX_DONT_CARE,
; 335  : 		ENTITY_ATTR_INT_VALUE (INT_TYPE_ENTITY_SUB_TYPE, ENTITY_SUB_TYPE_EFFECT_PARTICLE),
; 336  : 		ENTITY_ATTR_INT_VALUE (INT_TYPE_PARTICLE_COUNT, particle_count),
; 337  : 		ENTITY_ATTR_INT_VALUE (INT_TYPE_OBJECT_3D_SHAPE, object_3d_shape),
; 338  : 		ENTITY_ATTR_VEC3D (VEC3D_TYPE_POSITION, position->x, position->y, position->z),
; 339  : 		ENTITY_ATTR_FLOAT_VALUE (FLOAT_TYPE_INITIAL_SPEED, initial_speed),
; 340  : 		ENTITY_ATTR_END
; 341  : 	);
; 342  : 
; 343  : 	set_force_local_entity_create_stack_attributes (create_stack_attributes);

  000a1	8b 45 f8	 mov	 eax, DWORD PTR _create_stack_attributes$[ebp]
  000a4	a3 00 00 00 00	 mov	 DWORD PTR ?force_local_entity_create_stack_attributes@@3HA, eax ; force_local_entity_create_stack_attributes

; 344  : 
; 345  : 	return en;

  000a9	8b 45 fc	 mov	 eax, DWORD PTR _en$[ebp]

; 346  : }

  000ac	5f		 pop	 edi
  000ad	5e		 pop	 esi
  000ae	5b		 pop	 ebx
  000af	8b e5		 mov	 esp, ebp
  000b1	5d		 pop	 ebp
  000b2	c2 10 00	 ret	 16			; 00000010H
?create_client_server_particle_entity@@YGPAUENTITY@@HPAUVEC3D@@MH@Z ENDP ; create_client_server_particle_entity
_TEXT	ENDS
; Function compile flags: /Odtp /ZI
; File c:\users\nhv90\projects\eech\aphavoc\source\entity\special\effect\particle\pa_creat.c
;	COMDAT ?overload_particle_create_functions@@YGXXZ
_TEXT	SEGMENT
?overload_particle_create_functions@@YGXXZ PROC		; overload_particle_create_functions, COMDAT

; 353  : {

  00000	55		 push	 ebp
  00001	8b ec		 mov	 ebp, esp
  00003	83 ec 40	 sub	 esp, 64			; 00000040H
  00006	53		 push	 ebx
  00007	56		 push	 esi
  00008	57		 push	 edi

; 354  : 	fn_create_local_entity[ENTITY_TYPE_PARTICLE]			  								= create_local;

  00009	b8 04 00 00 00	 mov	 eax, 4
  0000e	6b c8 12	 imul	 ecx, eax, 18
  00011	c7 81 00 00 00
	00 00 00 00 00	 mov	 DWORD PTR ?fn_create_local_entity@@3PAP6GPAUENTITY@@W4ENTITY_TYPES@@HPAD@ZA[ecx], OFFSET ?create_local@@YGPAUENTITY@@W4ENTITY_TYPES@@HPAD@Z ; create_local

; 355  : 
; 356  : 	fn_create_client_server_entity[ENTITY_TYPE_PARTICLE][COMMS_MODEL_SERVER]	= create_server;

  0001b	b8 08 00 00 00	 mov	 eax, 8
  00020	6b c8 12	 imul	 ecx, eax, 18
  00023	ba 04 00 00 00	 mov	 edx, 4
  00028	6b c2 00	 imul	 eax, edx, 0
  0002b	c7 84 01 00 00
	00 00 00 00 00
	00		 mov	 DWORD PTR ?fn_create_client_server_entity@@3PAY01P6GPAUENTITY@@W4ENTITY_TYPES@@HPAD@ZA[ecx+eax], OFFSET ?create_server@@YGPAUENTITY@@W4ENTITY_TYPES@@HPAD@Z ; create_server

; 357  : 
; 358  : 	fn_create_client_server_entity[ENTITY_TYPE_PARTICLE][COMMS_MODEL_CLIENT]	= create_client;

  00036	b8 08 00 00 00	 mov	 eax, 8
  0003b	6b c8 12	 imul	 ecx, eax, 18
  0003e	ba 04 00 00 00	 mov	 edx, 4
  00043	c1 e2 00	 shl	 edx, 0
  00046	c7 84 11 00 00
	00 00 00 00 00
	00		 mov	 DWORD PTR ?fn_create_client_server_entity@@3PAY01P6GPAUENTITY@@W4ENTITY_TYPES@@HPAD@ZA[ecx+edx], OFFSET ?create_client@@YGPAUENTITY@@W4ENTITY_TYPES@@HPAD@Z ; create_client

; 359  : }

  00051	5f		 pop	 edi
  00052	5e		 pop	 esi
  00053	5b		 pop	 ebx
  00054	8b e5		 mov	 esp, ebp
  00056	5d		 pop	 ebp
  00057	c3		 ret	 0
?overload_particle_create_functions@@YGXXZ ENDP		; overload_particle_create_functions
_TEXT	ENDS
END
