; Listing generated by Microsoft (R) Optimizing Compiler Version 19.16.27045.0 

	TITLE	C:\Users\nhv90\Projects\eech\aphavoc\source\entity\special\effect\particle\pa_dstry.c
	.686P
	.XMM
	include listing.inc
	.model	flat

INCLUDELIB MSVCRTD
INCLUDELIB OLDNAMES

PUBLIC	?overload_particle_destroy_functions@@YGXXZ	; overload_particle_destroy_functions
PUBLIC	?__LINE__Var@?0??destroy_server@@YGXPAUENTITY@@@Z@4JA ; `destroy_server'::`1'::__LINE__Var
PUBLIC	??_C@_0FG@JEOHDEPF@c?3?2users?2nhv90?2projects?2eech?2ap@ ; `string'
PUBLIC	??_C@_0CC@BNNNEGEG@assert_client_server_remote_fn?5@ ; `string'
PUBLIC	??_C@_0CB@CFOCLFOK@assert_client_server_local_fn?5?$CI@ ; `string'
PUBLIC	?__LINE__Var@?0??destroy_client@@YGXPAUENTITY@@@Z@4JA ; `destroy_client'::`1'::__LINE__Var
EXTRN	?process_assert@@YGXPBD0H@Z:PROC		; process_assert
EXTRN	?free_mem@@YGXPAX@Z:PROC			; free_mem
EXTRN	?destruct_3d_object@@YGXPAUOBJECT_3D_INSTANCE@@@Z:PROC ; destruct_3d_object
EXTRN	?delete_local_entity_from_parents_child_list@@YGXPAUENTITY@@W4LIST_TYPES@@@Z:PROC ; delete_local_entity_from_parents_child_list
EXTRN	?unlink_local_entity_children@@YGXPAUENTITY@@W4LIST_TYPES@@@Z:PROC ; unlink_local_entity_children
EXTRN	?destroy_local_entity@@YGXPAUENTITY@@@Z:PROC	; destroy_local_entity
EXTRN	?transmit_entity_comms_message@@YAXW4ENTITY_COMMS_MESSAGES@@PAUENTITY@@ZZ:PROC ; transmit_entity_comms_message
EXTRN	?assert_client_server_local_fn@@YGHXZ:PROC	; assert_client_server_local_fn
EXTRN	?assert_client_server_remote_fn@@YGHXZ:PROC	; assert_client_server_remote_fn
EXTRN	?set_free_entity@@YGXPAUENTITY@@@Z:PROC		; set_free_entity
EXTRN	?system_comms_data_flow@@3W4COMMS_DATA_FLOW_TYPES@@A:DWORD ; system_comms_data_flow
EXTRN	?fn_destroy_local_entity@@3PAP6GXPAUENTITY@@@ZA:BYTE ; fn_destroy_local_entity
EXTRN	?fn_destroy_client_server_entity@@3PAY01P6GXPAUENTITY@@@ZA:BYTE ; fn_destroy_client_server_entity
EXTRN	?fn_destroy_local_entity_family@@3PAP6GXPAUENTITY@@@ZA:BYTE ; fn_destroy_local_entity_family
EXTRN	?fn_destroy_client_server_entity_family@@3PAY01P6GXPAUENTITY@@@ZA:BYTE ; fn_destroy_client_server_entity_family
EXTRN	?fn_kill_local_entity@@3PAP6GXPAUENTITY@@@ZA:BYTE ; fn_kill_local_entity
EXTRN	?fn_kill_client_server_entity@@3PAY01P6GXPAUENTITY@@@ZA:BYTE ; fn_kill_client_server_entity
;	COMDAT ?__LINE__Var@?0??destroy_client@@YGXPAUENTITY@@@Z@4JA
_DATA	SEGMENT
?__LINE__Var@?0??destroy_client@@YGXPAUENTITY@@@Z@4JA DD 0c3H ; `destroy_client'::`1'::__LINE__Var
_DATA	ENDS
;	COMDAT ??_C@_0CB@CFOCLFOK@assert_client_server_local_fn?5?$CI@
CONST	SEGMENT
??_C@_0CB@CFOCLFOK@assert_client_server_local_fn?5?$CI@ DB 'assert_client'
	DB	'_server_local_fn ()', 00H			; `string'
CONST	ENDS
;	COMDAT ??_C@_0CC@BNNNEGEG@assert_client_server_remote_fn?5@
CONST	SEGMENT
??_C@_0CC@BNNNEGEG@assert_client_server_remote_fn?5@ DB 'assert_client_se'
	DB	'rver_remote_fn ()', 00H			; `string'
CONST	ENDS
;	COMDAT ??_C@_0FG@JEOHDEPF@c?3?2users?2nhv90?2projects?2eech?2ap@
CONST	SEGMENT
??_C@_0FG@JEOHDEPF@c?3?2users?2nhv90?2projects?2eech?2ap@ DB 'c:\users\nh'
	DB	'v90\projects\eech\aphavoc\source\entity\special\effect\partic'
	DB	'le\pa_dstry.c', 00H				; `string'
CONST	ENDS
;	COMDAT ?__LINE__Var@?0??destroy_server@@YGXPAUENTITY@@@Z@4JA
_DATA	SEGMENT
?__LINE__Var@?0??destroy_server@@YGXPAUENTITY@@@Z@4JA DD 0acH ; `destroy_server'::`1'::__LINE__Var
_DATA	ENDS
; Function compile flags: /Odtp /ZI
; File c:\users\nhv90\projects\eech\aphavoc\source\entity\special\effect\particle\pa_dstry.c
;	COMDAT ?destroy_client@@YGXPAUENTITY@@@Z
_TEXT	SEGMENT
_en$ = 8						; size = 4
?destroy_client@@YGXPAUENTITY@@@Z PROC			; destroy_client, COMDAT

; 195  : {

  00000	55		 push	 ebp
  00001	8b ec		 mov	 ebp, esp
  00003	83 ec 40	 sub	 esp, 64			; 00000040H
  00006	53		 push	 ebx
  00007	56		 push	 esi
  00008	57		 push	 edi

; 196  : 	if (get_comms_data_flow () == COMMS_DATA_FLOW_TX)

  00009	83 3d 00 00 00
	00 00		 cmp	 DWORD PTR ?system_comms_data_flow@@3W4COMMS_DATA_FLOW_TYPES@@A, 0 ; system_comms_data_flow
  00010	75 2c		 jne	 SHORT $LN2@destroy_cl

; 197  : 	{
; 198  : 		validate_client_server_remote_fn ();

  00012	e8 00 00 00 00	 call	 ?assert_client_server_remote_fn@@YGHXZ ; assert_client_server_remote_fn
  00017	85 c0		 test	 eax, eax
  00019	75 18		 jne	 SHORT $LN4@destroy_cl
  0001b	a1 00 00 00 00	 mov	 eax, DWORD PTR ?__LINE__Var@?0??destroy_client@@YGXPAUENTITY@@@Z@4JA
  00020	83 c0 03	 add	 eax, 3
  00023	50		 push	 eax
  00024	68 00 00 00 00	 push	 OFFSET ??_C@_0FG@JEOHDEPF@c?3?2users?2nhv90?2projects?2eech?2ap@
  00029	68 00 00 00 00	 push	 OFFSET ??_C@_0CC@BNNNEGEG@assert_client_server_remote_fn?5@
  0002e	e8 00 00 00 00	 call	 ?process_assert@@YGXPBD0H@Z ; process_assert
$LN4@destroy_cl:

; 199  : 
; 200  : 		destroy_remote (en);

  00033	8b 45 08	 mov	 eax, DWORD PTR _en$[ebp]
  00036	50		 push	 eax
  00037	e8 00 00 00 00	 call	 ?destroy_remote@@YGXPAUENTITY@@@Z ; destroy_remote

; 201  : 	}
; 202  : 	else

  0003c	eb 2a		 jmp	 SHORT $LN1@destroy_cl
$LN2@destroy_cl:

; 203  : 	{
; 204  : 		validate_client_server_local_fn ();

  0003e	e8 00 00 00 00	 call	 ?assert_client_server_local_fn@@YGHXZ ; assert_client_server_local_fn
  00043	85 c0		 test	 eax, eax
  00045	75 18		 jne	 SHORT $LN5@destroy_cl
  00047	a1 00 00 00 00	 mov	 eax, DWORD PTR ?__LINE__Var@?0??destroy_client@@YGXPAUENTITY@@@Z@4JA
  0004c	83 c0 09	 add	 eax, 9
  0004f	50		 push	 eax
  00050	68 00 00 00 00	 push	 OFFSET ??_C@_0FG@JEOHDEPF@c?3?2users?2nhv90?2projects?2eech?2ap@
  00055	68 00 00 00 00	 push	 OFFSET ??_C@_0CB@CFOCLFOK@assert_client_server_local_fn?5?$CI@
  0005a	e8 00 00 00 00	 call	 ?process_assert@@YGXPBD0H@Z ; process_assert
$LN5@destroy_cl:

; 205  : 
; 206  : 		//
; 207  : 		// destroy local using 'full' function
; 208  : 		//
; 209  : 
; 210  : 		destroy_local_entity (en);

  0005f	8b 45 08	 mov	 eax, DWORD PTR _en$[ebp]
  00062	50		 push	 eax
  00063	e8 00 00 00 00	 call	 ?destroy_local_entity@@YGXPAUENTITY@@@Z ; destroy_local_entity
$LN1@destroy_cl:

; 211  : 	}
; 212  : }

  00068	5f		 pop	 edi
  00069	5e		 pop	 esi
  0006a	5b		 pop	 ebx
  0006b	8b e5		 mov	 esp, ebp
  0006d	5d		 pop	 ebp
  0006e	c2 04 00	 ret	 4
?destroy_client@@YGXPAUENTITY@@@Z ENDP			; destroy_client
_TEXT	ENDS
; Function compile flags: /Odtp /ZI
; File c:\users\nhv90\projects\eech\aphavoc\source\entity\special\effect\particle\pa_dstry.c
;	COMDAT ?destroy_server@@YGXPAUENTITY@@@Z
_TEXT	SEGMENT
_en$ = 8						; size = 4
?destroy_server@@YGXPAUENTITY@@@Z PROC			; destroy_server, COMDAT

; 172  : {

  00000	55		 push	 ebp
  00001	8b ec		 mov	 ebp, esp
  00003	83 ec 40	 sub	 esp, 64			; 00000040H
  00006	53		 push	 ebx
  00007	56		 push	 esi
  00008	57		 push	 edi

; 173  : 	//
; 174  : 	// destroy remote entity first (keeping local entity valid)
; 175  : 	//
; 176  : 
; 177  : 	validate_client_server_remote_fn ();

  00009	e8 00 00 00 00	 call	 ?assert_client_server_remote_fn@@YGHXZ ; assert_client_server_remote_fn
  0000e	85 c0		 test	 eax, eax
  00010	75 18		 jne	 SHORT $LN2@destroy_se
  00012	a1 00 00 00 00	 mov	 eax, DWORD PTR ?__LINE__Var@?0??destroy_server@@YGXPAUENTITY@@@Z@4JA
  00017	83 c0 05	 add	 eax, 5
  0001a	50		 push	 eax
  0001b	68 00 00 00 00	 push	 OFFSET ??_C@_0FG@JEOHDEPF@c?3?2users?2nhv90?2projects?2eech?2ap@
  00020	68 00 00 00 00	 push	 OFFSET ??_C@_0CC@BNNNEGEG@assert_client_server_remote_fn?5@
  00025	e8 00 00 00 00	 call	 ?process_assert@@YGXPBD0H@Z ; process_assert
$LN2@destroy_se:

; 178  : 
; 179  : 	destroy_remote (en);

  0002a	8b 45 08	 mov	 eax, DWORD PTR _en$[ebp]
  0002d	50		 push	 eax
  0002e	e8 00 00 00 00	 call	 ?destroy_remote@@YGXPAUENTITY@@@Z ; destroy_remote

; 180  : 
; 181  : 	validate_client_server_local_fn ();

  00033	e8 00 00 00 00	 call	 ?assert_client_server_local_fn@@YGHXZ ; assert_client_server_local_fn
  00038	85 c0		 test	 eax, eax
  0003a	75 18		 jne	 SHORT $LN3@destroy_se
  0003c	a1 00 00 00 00	 mov	 eax, DWORD PTR ?__LINE__Var@?0??destroy_server@@YGXPAUENTITY@@@Z@4JA
  00041	83 c0 09	 add	 eax, 9
  00044	50		 push	 eax
  00045	68 00 00 00 00	 push	 OFFSET ??_C@_0FG@JEOHDEPF@c?3?2users?2nhv90?2projects?2eech?2ap@
  0004a	68 00 00 00 00	 push	 OFFSET ??_C@_0CB@CFOCLFOK@assert_client_server_local_fn?5?$CI@
  0004f	e8 00 00 00 00	 call	 ?process_assert@@YGXPBD0H@Z ; process_assert
$LN3@destroy_se:

; 182  : 
; 183  : 	//
; 184  : 	// destroy local using 'full' function
; 185  : 	//
; 186  : 
; 187  : 	destroy_local_entity (en);

  00054	8b 45 08	 mov	 eax, DWORD PTR _en$[ebp]
  00057	50		 push	 eax
  00058	e8 00 00 00 00	 call	 ?destroy_local_entity@@YGXPAUENTITY@@@Z ; destroy_local_entity

; 188  : }

  0005d	5f		 pop	 edi
  0005e	5e		 pop	 esi
  0005f	5b		 pop	 ebx
  00060	8b e5		 mov	 esp, ebp
  00062	5d		 pop	 ebp
  00063	c2 04 00	 ret	 4
?destroy_server@@YGXPAUENTITY@@@Z ENDP			; destroy_server
_TEXT	ENDS
; Function compile flags: /Odtp /ZI
; File c:\users\nhv90\projects\eech\aphavoc\source\entity\special\effect\particle\pa_dstry.c
;	COMDAT ?destroy_remote@@YGXPAUENTITY@@@Z
_TEXT	SEGMENT
_en$ = 8						; size = 4
?destroy_remote@@YGXPAUENTITY@@@Z PROC			; destroy_remote, COMDAT

; 157  : {

  00000	55		 push	 ebp
  00001	8b ec		 mov	 ebp, esp
  00003	83 ec 40	 sub	 esp, 64			; 00000040H
  00006	53		 push	 ebx
  00007	56		 push	 esi
  00008	57		 push	 edi

; 158  : 	#if DEBUG_MODULE
; 159  : 
; 160  : 	debug_log_entity_args (ENTITY_DEBUG_REMOTE, ENTITY_DEBUG_DESTROY, en);
; 161  : 
; 162  : 	#endif
; 163  : 
; 164  : 	transmit_entity_comms_message (ENTITY_COMMS_DESTROY, en);

  00009	8b 45 08	 mov	 eax, DWORD PTR _en$[ebp]
  0000c	50		 push	 eax
  0000d	6a 12		 push	 18			; 00000012H
  0000f	e8 00 00 00 00	 call	 ?transmit_entity_comms_message@@YAXW4ENTITY_COMMS_MESSAGES@@PAUENTITY@@ZZ ; transmit_entity_comms_message
  00014	83 c4 08	 add	 esp, 8

; 165  : }

  00017	5f		 pop	 edi
  00018	5e		 pop	 esi
  00019	5b		 pop	 ebx
  0001a	8b e5		 mov	 esp, ebp
  0001c	5d		 pop	 ebp
  0001d	c2 04 00	 ret	 4
?destroy_remote@@YGXPAUENTITY@@@Z ENDP			; destroy_remote
_TEXT	ENDS
; Function compile flags: /Odtp /ZI
; File c:\users\nhv90\projects\eech\aphavoc\source\entity\special\effect\particle\pa_dstry.c
;	COMDAT ?destroy_local@@YGXPAUENTITY@@@Z
_TEXT	SEGMENT
_loop$ = -8						; size = 4
_raw$ = -4						; size = 4
_en$ = 8						; size = 4
?destroy_local@@YGXPAUENTITY@@@Z PROC			; destroy_local, COMDAT

; 80   : {

  00000	55		 push	 ebp
  00001	8b ec		 mov	 ebp, esp
  00003	83 ec 48	 sub	 esp, 72			; 00000048H
  00006	53		 push	 ebx
  00007	56		 push	 esi
  00008	57		 push	 edi

; 81   : 	particle
; 82   : 		*raw;
; 83   : 
; 84   : 	int
; 85   : 		loop;
; 86   : 
; 87   : 	////////////////////////////////////////
; 88   : 	//
; 89   : 	// PRE-AMBLE
; 90   : 	//
; 91   : 	////////////////////////////////////////
; 92   : 
; 93   : 	#if DEBUG_MODULE
; 94   : 
; 95   : 	debug_log_entity_args (ENTITY_DEBUG_LOCAL, ENTITY_DEBUG_DESTROY, en);
; 96   : 
; 97   : 	#endif
; 98   : 
; 99   : 	raw = (particle *) get_local_entity_data (en);

  00009	8b 45 08	 mov	 eax, DWORD PTR _en$[ebp]
  0000c	8b 48 04	 mov	 ecx, DWORD PTR [eax+4]
  0000f	89 4d fc	 mov	 DWORD PTR _raw$[ebp], ecx

; 100  : 
; 101  : 	////////////////////////////////////////
; 102  : 	//
; 103  : 	// VALIDATE
; 104  : 	//
; 105  : 	////////////////////////////////////////
; 106  : 
; 107  : 	////////////////////////////////////////
; 108  : 	//
; 109  : 	// DESTROY COMPONENTS
; 110  : 	//
; 111  : 	////////////////////////////////////////
; 112  : 
; 113  : 	free_mem (raw->position);

  00012	8b 45 fc	 mov	 eax, DWORD PTR _raw$[ebp]
  00015	8b 48 40	 mov	 ecx, DWORD PTR [eax+64]
  00018	51		 push	 ecx
  00019	e8 00 00 00 00	 call	 ?free_mem@@YGXPAX@Z	; free_mem

; 114  : 
; 115  : 	free_mem (raw->motion_vector);

  0001e	8b 45 fc	 mov	 eax, DWORD PTR _raw$[ebp]
  00021	8b 48 3c	 mov	 ecx, DWORD PTR [eax+60]
  00024	51		 push	 ecx
  00025	e8 00 00 00 00	 call	 ?free_mem@@YGXPAX@Z	; free_mem

; 116  : 
; 117  : 	free_mem (raw->valid);

  0002a	8b 45 fc	 mov	 eax, DWORD PTR _raw$[ebp]
  0002d	8b 48 30	 mov	 ecx, DWORD PTR [eax+48]
  00030	51		 push	 ecx
  00031	e8 00 00 00 00	 call	 ?free_mem@@YGXPAX@Z	; free_mem

; 118  : 
; 119  : 	for (loop = 0; loop < raw->particle_count; loop ++)

  00036	c7 45 f8 00 00
	00 00		 mov	 DWORD PTR _loop$[ebp], 0
  0003d	eb 09		 jmp	 SHORT $LN4@destroy_lo
$LN2@destroy_lo:
  0003f	8b 45 f8	 mov	 eax, DWORD PTR _loop$[ebp]
  00042	83 c0 01	 add	 eax, 1
  00045	89 45 f8	 mov	 DWORD PTR _loop$[ebp], eax
$LN4@destroy_lo:
  00048	8b 45 fc	 mov	 eax, DWORD PTR _raw$[ebp]
  0004b	0f b6 48 2c	 movzx	 ecx, BYTE PTR [eax+44]
  0004f	39 4d f8	 cmp	 DWORD PTR _loop$[ebp], ecx
  00052	7d 23		 jge	 SHORT $LN3@destroy_lo

; 120  : 	{
; 121  : 		if (raw->inst3d [loop])

  00054	8b 45 fc	 mov	 eax, DWORD PTR _raw$[ebp]
  00057	8b 48 38	 mov	 ecx, DWORD PTR [eax+56]
  0005a	8b 55 f8	 mov	 edx, DWORD PTR _loop$[ebp]
  0005d	83 3c 91 00	 cmp	 DWORD PTR [ecx+edx*4], 0
  00061	74 12		 je	 SHORT $LN5@destroy_lo

; 122  : 		{
; 123  : 			destruct_3d_object (raw->inst3d [loop]);

  00063	8b 45 fc	 mov	 eax, DWORD PTR _raw$[ebp]
  00066	8b 48 38	 mov	 ecx, DWORD PTR [eax+56]
  00069	8b 55 f8	 mov	 edx, DWORD PTR _loop$[ebp]
  0006c	8b 04 91	 mov	 eax, DWORD PTR [ecx+edx*4]
  0006f	50		 push	 eax
  00070	e8 00 00 00 00	 call	 ?destruct_3d_object@@YGXPAUOBJECT_3D_INSTANCE@@@Z ; destruct_3d_object
$LN5@destroy_lo:

; 124  : 		}
; 125  : 	}

  00075	eb c8		 jmp	 SHORT $LN2@destroy_lo
$LN3@destroy_lo:

; 126  : 
; 127  : 	free_mem (raw->inst3d);

  00077	8b 45 fc	 mov	 eax, DWORD PTR _raw$[ebp]
  0007a	8b 48 38	 mov	 ecx, DWORD PTR [eax+56]
  0007d	51		 push	 ecx
  0007e	e8 00 00 00 00	 call	 ?free_mem@@YGXPAX@Z	; free_mem

; 128  : 
; 129  : 	////////////////////////////////////////
; 130  : 	//
; 131  : 	// UNLINK FROM SYSTEM
; 132  : 	//
; 133  : 	////////////////////////////////////////
; 134  : 
; 135  : 	unlink_local_entity_children (en, LIST_TYPE_SPECIAL_EFFECT);

  00083	6a 24		 push	 36			; 00000024H
  00085	8b 45 08	 mov	 eax, DWORD PTR _en$[ebp]
  00088	50		 push	 eax
  00089	e8 00 00 00 00	 call	 ?unlink_local_entity_children@@YGXPAUENTITY@@W4LIST_TYPES@@@Z ; unlink_local_entity_children

; 136  : 
; 137  : 	delete_local_entity_from_parents_child_list (en, LIST_TYPE_SECTOR);

  0008e	6a 21		 push	 33			; 00000021H
  00090	8b 45 08	 mov	 eax, DWORD PTR _en$[ebp]
  00093	50		 push	 eax
  00094	e8 00 00 00 00	 call	 ?delete_local_entity_from_parents_child_list@@YGXPAUENTITY@@W4LIST_TYPES@@@Z ; delete_local_entity_from_parents_child_list

; 138  : 
; 139  : 	delete_local_entity_from_parents_child_list (en, LIST_TYPE_UPDATE);

  00099	6a 29		 push	 41			; 00000029H
  0009b	8b 45 08	 mov	 eax, DWORD PTR _en$[ebp]
  0009e	50		 push	 eax
  0009f	e8 00 00 00 00	 call	 ?delete_local_entity_from_parents_child_list@@YGXPAUENTITY@@W4LIST_TYPES@@@Z ; delete_local_entity_from_parents_child_list

; 140  : 
; 141  : 	////////////////////////////////////////
; 142  : 	//
; 143  : 	// FREE ENTITY DATA
; 144  : 	//
; 145  : 	////////////////////////////////////////
; 146  : 
; 147  : 	free_mem (raw);

  000a4	8b 45 fc	 mov	 eax, DWORD PTR _raw$[ebp]
  000a7	50		 push	 eax
  000a8	e8 00 00 00 00	 call	 ?free_mem@@YGXPAX@Z	; free_mem

; 148  : 
; 149  : 	set_free_entity (en);

  000ad	8b 45 08	 mov	 eax, DWORD PTR _en$[ebp]
  000b0	50		 push	 eax
  000b1	e8 00 00 00 00	 call	 ?set_free_entity@@YGXPAUENTITY@@@Z ; set_free_entity

; 150  : }

  000b6	5f		 pop	 edi
  000b7	5e		 pop	 esi
  000b8	5b		 pop	 ebx
  000b9	8b e5		 mov	 esp, ebp
  000bb	5d		 pop	 ebp
  000bc	c2 04 00	 ret	 4
?destroy_local@@YGXPAUENTITY@@@Z ENDP			; destroy_local
_TEXT	ENDS
; Function compile flags: /Odtp /ZI
; File c:\users\nhv90\projects\eech\aphavoc\source\entity\special\effect\particle\pa_dstry.c
;	COMDAT ?overload_particle_destroy_functions@@YGXXZ
_TEXT	SEGMENT
?overload_particle_destroy_functions@@YGXXZ PROC	; overload_particle_destroy_functions, COMDAT

; 219  : {

  00000	55		 push	 ebp
  00001	8b ec		 mov	 ebp, esp
  00003	83 ec 40	 sub	 esp, 64			; 00000040H
  00006	53		 push	 ebx
  00007	56		 push	 esi
  00008	57		 push	 edi

; 220  : 	fn_destroy_local_entity						[ENTITY_TYPE_PARTICLE]								= destroy_local;

  00009	b8 04 00 00 00	 mov	 eax, 4
  0000e	6b c8 12	 imul	 ecx, eax, 18
  00011	c7 81 00 00 00
	00 00 00 00 00	 mov	 DWORD PTR ?fn_destroy_local_entity@@3PAP6GXPAUENTITY@@@ZA[ecx], OFFSET ?destroy_local@@YGXPAUENTITY@@@Z ; destroy_local

; 221  : 	fn_destroy_client_server_entity			[ENTITY_TYPE_PARTICLE][COMMS_MODEL_SERVER]	= destroy_server;

  0001b	b8 08 00 00 00	 mov	 eax, 8
  00020	6b c8 12	 imul	 ecx, eax, 18
  00023	ba 04 00 00 00	 mov	 edx, 4
  00028	6b c2 00	 imul	 eax, edx, 0
  0002b	c7 84 01 00 00
	00 00 00 00 00
	00		 mov	 DWORD PTR ?fn_destroy_client_server_entity@@3PAY01P6GXPAUENTITY@@@ZA[ecx+eax], OFFSET ?destroy_server@@YGXPAUENTITY@@@Z ; destroy_server

; 222  : 	fn_destroy_client_server_entity			[ENTITY_TYPE_PARTICLE][COMMS_MODEL_CLIENT]	= destroy_client;

  00036	b8 08 00 00 00	 mov	 eax, 8
  0003b	6b c8 12	 imul	 ecx, eax, 18
  0003e	ba 04 00 00 00	 mov	 edx, 4
  00043	c1 e2 00	 shl	 edx, 0
  00046	c7 84 11 00 00
	00 00 00 00 00
	00		 mov	 DWORD PTR ?fn_destroy_client_server_entity@@3PAY01P6GXPAUENTITY@@@ZA[ecx+edx], OFFSET ?destroy_client@@YGXPAUENTITY@@@Z ; destroy_client

; 223  : 
; 224  : 	fn_destroy_local_entity_family			[ENTITY_TYPE_PARTICLE]								= destroy_local;

  00051	b8 04 00 00 00	 mov	 eax, 4
  00056	6b c8 12	 imul	 ecx, eax, 18
  00059	c7 81 00 00 00
	00 00 00 00 00	 mov	 DWORD PTR ?fn_destroy_local_entity_family@@3PAP6GXPAUENTITY@@@ZA[ecx], OFFSET ?destroy_local@@YGXPAUENTITY@@@Z ; destroy_local

; 225  : 	fn_destroy_client_server_entity_family	[ENTITY_TYPE_PARTICLE][COMMS_MODEL_SERVER]	= destroy_server;

  00063	b8 08 00 00 00	 mov	 eax, 8
  00068	6b c8 12	 imul	 ecx, eax, 18
  0006b	ba 04 00 00 00	 mov	 edx, 4
  00070	6b c2 00	 imul	 eax, edx, 0
  00073	c7 84 01 00 00
	00 00 00 00 00
	00		 mov	 DWORD PTR ?fn_destroy_client_server_entity_family@@3PAY01P6GXPAUENTITY@@@ZA[ecx+eax], OFFSET ?destroy_server@@YGXPAUENTITY@@@Z ; destroy_server

; 226  : 	fn_destroy_client_server_entity_family	[ENTITY_TYPE_PARTICLE][COMMS_MODEL_CLIENT]	= destroy_client;

  0007e	b8 08 00 00 00	 mov	 eax, 8
  00083	6b c8 12	 imul	 ecx, eax, 18
  00086	ba 04 00 00 00	 mov	 edx, 4
  0008b	c1 e2 00	 shl	 edx, 0
  0008e	c7 84 11 00 00
	00 00 00 00 00
	00		 mov	 DWORD PTR ?fn_destroy_client_server_entity_family@@3PAY01P6GXPAUENTITY@@@ZA[ecx+edx], OFFSET ?destroy_client@@YGXPAUENTITY@@@Z ; destroy_client

; 227  : 
; 228  : 	fn_kill_local_entity							[ENTITY_TYPE_PARTICLE]								= destroy_local;

  00099	b8 04 00 00 00	 mov	 eax, 4
  0009e	6b c8 12	 imul	 ecx, eax, 18
  000a1	c7 81 00 00 00
	00 00 00 00 00	 mov	 DWORD PTR ?fn_kill_local_entity@@3PAP6GXPAUENTITY@@@ZA[ecx], OFFSET ?destroy_local@@YGXPAUENTITY@@@Z ; destroy_local

; 229  : 	fn_kill_client_server_entity				[ENTITY_TYPE_PARTICLE][COMMS_MODEL_SERVER]	= destroy_server;

  000ab	b8 08 00 00 00	 mov	 eax, 8
  000b0	6b c8 12	 imul	 ecx, eax, 18
  000b3	ba 04 00 00 00	 mov	 edx, 4
  000b8	6b c2 00	 imul	 eax, edx, 0
  000bb	c7 84 01 00 00
	00 00 00 00 00
	00		 mov	 DWORD PTR ?fn_kill_client_server_entity@@3PAY01P6GXPAUENTITY@@@ZA[ecx+eax], OFFSET ?destroy_server@@YGXPAUENTITY@@@Z ; destroy_server

; 230  : 	fn_kill_client_server_entity				[ENTITY_TYPE_PARTICLE][COMMS_MODEL_CLIENT]	= destroy_client;

  000c6	b8 08 00 00 00	 mov	 eax, 8
  000cb	6b c8 12	 imul	 ecx, eax, 18
  000ce	ba 04 00 00 00	 mov	 edx, 4
  000d3	c1 e2 00	 shl	 edx, 0
  000d6	c7 84 11 00 00
	00 00 00 00 00
	00		 mov	 DWORD PTR ?fn_kill_client_server_entity@@3PAY01P6GXPAUENTITY@@@ZA[ecx+edx], OFFSET ?destroy_client@@YGXPAUENTITY@@@Z ; destroy_client

; 231  : }

  000e1	5f		 pop	 edi
  000e2	5e		 pop	 esi
  000e3	5b		 pop	 ebx
  000e4	8b e5		 mov	 esp, ebp
  000e6	5d		 pop	 ebp
  000e7	c3		 ret	 0
?overload_particle_destroy_functions@@YGXXZ ENDP	; overload_particle_destroy_functions
_TEXT	ENDS
END
