; Listing generated by Microsoft (R) Optimizing Compiler Version 19.16.27045.0 

	TITLE	C:\Users\nhv90\Projects\eech\aphavoc\source\entity\special\effect\particle\pa_int.c
	.686P
	.XMM
	include listing.inc
	.model	flat

INCLUDELIB MSVCRTD
INCLUDELIB OLDNAMES

PUBLIC	?overload_particle_int_value_functions@@YGXXZ	; overload_particle_int_value_functions
PUBLIC	?__LINE__Var@?0??set_local_int_value@@YGXPAUENTITY@@W4INT_TYPES@@H@Z@4JA ; `set_local_int_value'::`1'::__LINE__Var
PUBLIC	??_C@_0FE@PBEHCOFJ@c?3?2users?2nhv90?2projects?2eech?2ap@ ; `string'
PUBLIC	?__LINE__Var@?0??set_server_int_value@@YGXPAUENTITY@@W4INT_TYPES@@H@Z@4JA ; `set_server_int_value'::`1'::__LINE__Var
PUBLIC	??_C@_0CB@CFOCLFOK@assert_client_server_local_fn?5?$CI@ ; `string'
PUBLIC	??_C@_0CC@BNNNEGEG@assert_client_server_remote_fn?5@ ; `string'
PUBLIC	?__LINE__Var@?0??set_client_int_value@@YGXPAUENTITY@@W4INT_TYPES@@H@Z@4JA ; `set_client_int_value'::`1'::__LINE__Var
PUBLIC	?__LINE__Var@?0??get_local_int_value@@YGHPAUENTITY@@W4INT_TYPES@@@Z@4JA ; `get_local_int_value'::`1'::__LINE__Var
EXTRN	?process_assert@@YGXPBD0H@Z:PROC		; process_assert
EXTRN	?debug_fatal@@YAXPBDZZ:PROC			; debug_fatal
EXTRN	?transmit_entity_comms_message@@YAXW4ENTITY_COMMS_MESSAGES@@PAUENTITY@@ZZ:PROC ; transmit_entity_comms_message
EXTRN	?assert_client_server_local_fn@@YGHXZ:PROC	; assert_client_server_local_fn
EXTRN	?assert_client_server_remote_fn@@YGHXZ:PROC	; assert_client_server_remote_fn
EXTRN	?null_entity_pointer_message@@3PBDB:DWORD	; null_entity_pointer_message
EXTRN	?entity_type_database@@3PAUENTITY_TYPE_DATA@@A:BYTE ; entity_type_database
EXTRN	?system_comms_data_flow@@3W4COMMS_DATA_FLOW_TYPES@@A:DWORD ; system_comms_data_flow
EXTRN	?int_type_database@@3PAUINT_TYPE_DATA@@A:BYTE	; int_type_database
EXTRN	?debug_fatal_invalid_int_type_message@@3PBDB:DWORD ; debug_fatal_invalid_int_type_message
EXTRN	?fn_set_local_entity_raw_int_value@@3PAY0BBH@P6GXPAUENTITY@@W4INT_TYPES@@H@ZA:BYTE ; fn_set_local_entity_raw_int_value
EXTRN	?fn_set_local_entity_int_value@@3PAY0BBH@P6GXPAUENTITY@@W4INT_TYPES@@H@ZA:BYTE ; fn_set_local_entity_int_value
EXTRN	?fn_set_client_server_entity_int_value@@3PAY1BBH@1P6GXPAUENTITY@@W4INT_TYPES@@H@ZA:BYTE ; fn_set_client_server_entity_int_value
EXTRN	?fn_get_local_entity_int_value@@3PAY0BBH@P6GHPAUENTITY@@W4INT_TYPES@@@ZA:BYTE ; fn_get_local_entity_int_value
EXTRN	?entities@@3PAUENTITY@@A:DWORD			; entities
;	COMDAT ?__LINE__Var@?0??get_local_int_value@@YGHPAUENTITY@@W4INT_TYPES@@@Z@4JA
_DATA	SEGMENT
?__LINE__Var@?0??get_local_int_value@@YGHPAUENTITY@@W4INT_TYPES@@@Z@4JA DD 0b0H ; `get_local_int_value'::`1'::__LINE__Var
_DATA	ENDS
;	COMDAT ?__LINE__Var@?0??set_client_int_value@@YGXPAUENTITY@@W4INT_TYPES@@H@Z@4JA
_DATA	SEGMENT
?__LINE__Var@?0??set_client_int_value@@YGXPAUENTITY@@W4INT_TYPES@@H@Z@4JA DD 09cH ; `set_client_int_value'::`1'::__LINE__Var
_DATA	ENDS
;	COMDAT ??_C@_0CC@BNNNEGEG@assert_client_server_remote_fn?5@
CONST	SEGMENT
??_C@_0CC@BNNNEGEG@assert_client_server_remote_fn?5@ DB 'assert_client_se'
	DB	'rver_remote_fn ()', 00H			; `string'
CONST	ENDS
;	COMDAT ??_C@_0CB@CFOCLFOK@assert_client_server_local_fn?5?$CI@
CONST	SEGMENT
??_C@_0CB@CFOCLFOK@assert_client_server_local_fn?5?$CI@ DB 'assert_client'
	DB	'_server_local_fn ()', 00H			; `string'
CONST	ENDS
;	COMDAT ?__LINE__Var@?0??set_server_int_value@@YGXPAUENTITY@@W4INT_TYPES@@H@Z@4JA
_DATA	SEGMENT
?__LINE__Var@?0??set_server_int_value@@YGXPAUENTITY@@W4INT_TYPES@@H@Z@4JA DD 08dH ; `set_server_int_value'::`1'::__LINE__Var
_DATA	ENDS
;	COMDAT ??_C@_0FE@PBEHCOFJ@c?3?2users?2nhv90?2projects?2eech?2ap@
CONST	SEGMENT
??_C@_0FE@PBEHCOFJ@c?3?2users?2nhv90?2projects?2eech?2ap@ DB 'c:\users\nh'
	DB	'v90\projects\eech\aphavoc\source\entity\special\effect\partic'
	DB	'le\pa_int.c', 00H				; `string'
CONST	ENDS
;	COMDAT ?__LINE__Var@?0??set_local_int_value@@YGXPAUENTITY@@W4INT_TYPES@@H@Z@4JA
_DATA	SEGMENT
?__LINE__Var@?0??set_local_int_value@@YGXPAUENTITY@@W4INT_TYPES@@H@Z@4JA DD 050H ; `set_local_int_value'::`1'::__LINE__Var
_DATA	ENDS
; Function compile flags: /Odtp /ZI
; File c:\users\nhv90\projects\eech\aphavoc\source\entity\special\effect\particle\pa_int.c
;	COMDAT ?get_local_int_value@@YGHPAUENTITY@@W4INT_TYPES@@@Z
_TEXT	SEGMENT
tv85 = -76						; size = 4
tv65 = -76						; size = 4
_value$ = -8						; size = 4
_raw$ = -4						; size = 4
_en$ = 8						; size = 4
_type$ = 12						; size = 4
?get_local_int_value@@YGHPAUENTITY@@W4INT_TYPES@@@Z PROC ; get_local_int_value, COMDAT

; 176  : {

  00000	55		 push	 ebp
  00001	8b ec		 mov	 ebp, esp
  00003	83 ec 4c	 sub	 esp, 76			; 0000004cH
  00006	53		 push	 ebx
  00007	56		 push	 esi
  00008	57		 push	 edi

; 177  : 	particle
; 178  : 		*raw;
; 179  : 
; 180  : 	int
; 181  : 		value;
; 182  : 
; 183  : 	raw = (particle *) get_local_entity_data (en);

  00009	8b 45 08	 mov	 eax, DWORD PTR _en$[ebp]
  0000c	8b 48 04	 mov	 ecx, DWORD PTR [eax+4]
  0000f	89 4d fc	 mov	 DWORD PTR _raw$[ebp], ecx

; 184  : 
; 185  : 	switch (type)

  00012	8b 45 0c	 mov	 eax, DWORD PTR _type$[ebp]
  00015	89 45 b4	 mov	 DWORD PTR tv65[ebp], eax
  00018	81 7d b4 92 00
	00 00		 cmp	 DWORD PTR tv65[ebp], 146 ; 00000092H
  0001f	74 0b		 je	 SHORT $LN4@get_local_
  00021	81 7d b4 98 00
	00 00		 cmp	 DWORD PTR tv65[ebp], 152 ; 00000098H
  00028	74 0d		 je	 SHORT $LN5@get_local_
  0002a	eb 17		 jmp	 SHORT $LN6@get_local_
$LN4@get_local_:

; 186  : 	{
; 187  : 		////////////////////////////////////////
; 188  : 		case INT_TYPE_OBJECT_3D_SHAPE:
; 189  : 		////////////////////////////////////////
; 190  : 		{
; 191  : 			value = raw->object_3d_shape;

  0002c	8b 45 fc	 mov	 eax, DWORD PTR _raw$[ebp]
  0002f	8b 48 34	 mov	 ecx, DWORD PTR [eax+52]
  00032	89 4d f8	 mov	 DWORD PTR _value$[ebp], ecx

; 192  : 
; 193  : 			break;

  00035	eb 7e		 jmp	 SHORT $LN2@get_local_
$LN5@get_local_:

; 194  : 		}
; 195  : 		////////////////////////////////////////
; 196  : 		case INT_TYPE_PARTICLE_COUNT:
; 197  : 		////////////////////////////////////////
; 198  : 		{
; 199  : 			value = raw->particle_count;

  00037	8b 45 fc	 mov	 eax, DWORD PTR _raw$[ebp]
  0003a	0f b6 48 2c	 movzx	 ecx, BYTE PTR [eax+44]
  0003e	89 4d f8	 mov	 DWORD PTR _value$[ebp], ecx

; 200  : 
; 201  : 			break;

  00041	eb 72		 jmp	 SHORT $LN2@get_local_
$LN6@get_local_:

; 202  : 		}
; 203  : 		////////////////////////////////////////
; 204  : 		default:
; 205  : 		////////////////////////////////////////
; 206  : 		{
; 207  : 			debug_fatal_invalid_int_type (en, type);

  00043	83 7d 08 00	 cmp	 DWORD PTR _en$[ebp], 0
  00047	74 0a		 je	 SHORT $LN8@get_local_
  00049	8b 45 08	 mov	 eax, DWORD PTR _en$[ebp]
  0004c	8b 08		 mov	 ecx, DWORD PTR [eax]
  0004e	89 4d b4	 mov	 DWORD PTR tv85[ebp], ecx
  00051	eb 21		 jmp	 SHORT $LN9@get_local_
$LN8@get_local_:
  00053	8b 15 00 00 00
	00		 mov	 edx, DWORD PTR ?__LINE__Var@?0??get_local_int_value@@YGHPAUENTITY@@W4INT_TYPES@@@Z@4JA
  00059	83 c2 1f	 add	 edx, 31			; 0000001fH
  0005c	52		 push	 edx
  0005d	68 00 00 00 00	 push	 OFFSET ??_C@_0FE@PBEHCOFJ@c?3?2users?2nhv90?2projects?2eech?2ap@
  00062	a1 00 00 00 00	 mov	 eax, DWORD PTR ?null_entity_pointer_message@@3PBDB ; null_entity_pointer_message
  00067	50		 push	 eax
  00068	e8 00 00 00 00	 call	 ?process_assert@@YGXPBD0H@Z ; process_assert
  0006d	c7 45 b4 00 00
	00 00		 mov	 DWORD PTR tv85[ebp], 0
$LN9@get_local_:
  00074	8b 0d 00 00 00
	00		 mov	 ecx, DWORD PTR ?__LINE__Var@?0??get_local_int_value@@YGHPAUENTITY@@W4INT_TYPES@@@Z@4JA
  0007a	83 c1 1f	 add	 ecx, 31			; 0000001fH
  0007d	51		 push	 ecx
  0007e	68 00 00 00 00	 push	 OFFSET ??_C@_0FE@PBEHCOFJ@c?3?2users?2nhv90?2projects?2eech?2ap@
  00083	6b 55 0c 14	 imul	 edx, DWORD PTR _type$[ebp], 20
  00087	8b 82 00 00 00
	00		 mov	 eax, DWORD PTR ?int_type_database@@3PAUINT_TYPE_DATA@@A[edx]
  0008d	50		 push	 eax
  0008e	8b 4d 08	 mov	 ecx, DWORD PTR _en$[ebp]
  00091	2b 0d 00 00 00
	00		 sub	 ecx, DWORD PTR ?entities@@3PAUENTITY@@A ; entities
  00097	c1 f9 04	 sar	 ecx, 4
  0009a	51		 push	 ecx
  0009b	6b 55 b4 0c	 imul	 edx, DWORD PTR tv85[ebp], 12
  0009f	8b 82 00 00 00
	00		 mov	 eax, DWORD PTR ?entity_type_database@@3PAUENTITY_TYPE_DATA@@A[edx]
  000a5	50		 push	 eax
  000a6	8b 0d 00 00 00
	00		 mov	 ecx, DWORD PTR ?debug_fatal_invalid_int_type_message@@3PBDB ; debug_fatal_invalid_int_type_message
  000ac	51		 push	 ecx
  000ad	e8 00 00 00 00	 call	 ?debug_fatal@@YAXPBDZZ	; debug_fatal
  000b2	83 c4 18	 add	 esp, 24			; 00000018H
$LN2@get_local_:

; 208  : 
; 209  : 			break;
; 210  : 		}
; 211  : 	}
; 212  : 
; 213  : 	return (value);

  000b5	8b 45 f8	 mov	 eax, DWORD PTR _value$[ebp]

; 214  : }

  000b8	5f		 pop	 edi
  000b9	5e		 pop	 esi
  000ba	5b		 pop	 ebx
  000bb	8b e5		 mov	 esp, ebp
  000bd	5d		 pop	 ebp
  000be	c2 08 00	 ret	 8
?get_local_int_value@@YGHPAUENTITY@@W4INT_TYPES@@@Z ENDP ; get_local_int_value
_TEXT	ENDS
; Function compile flags: /Odtp /ZI
; File c:\users\nhv90\projects\eech\aphavoc\source\entity\special\effect\particle\pa_int.c
;	COMDAT ?set_client_int_value@@YGXPAUENTITY@@W4INT_TYPES@@H@Z
_TEXT	SEGMENT
_en$ = 8						; size = 4
_type$ = 12						; size = 4
_value$ = 16						; size = 4
?set_client_int_value@@YGXPAUENTITY@@W4INT_TYPES@@H@Z PROC ; set_client_int_value, COMDAT

; 156  : {

  00000	55		 push	 ebp
  00001	8b ec		 mov	 ebp, esp
  00003	83 ec 40	 sub	 esp, 64			; 00000040H
  00006	53		 push	 ebx
  00007	56		 push	 esi
  00008	57		 push	 edi

; 157  : 	if (get_comms_data_flow () == COMMS_DATA_FLOW_TX)

  00009	83 3d 00 00 00
	00 00		 cmp	 DWORD PTR ?system_comms_data_flow@@3W4COMMS_DATA_FLOW_TYPES@@A, 0 ; system_comms_data_flow
  00010	75 34		 jne	 SHORT $LN2@set_client

; 158  : 	{
; 159  : 		validate_client_server_remote_fn ();

  00012	e8 00 00 00 00	 call	 ?assert_client_server_remote_fn@@YGHXZ ; assert_client_server_remote_fn
  00017	85 c0		 test	 eax, eax
  00019	75 18		 jne	 SHORT $LN4@set_client
  0001b	a1 00 00 00 00	 mov	 eax, DWORD PTR ?__LINE__Var@?0??set_client_int_value@@YGXPAUENTITY@@W4INT_TYPES@@H@Z@4JA
  00020	83 c0 03	 add	 eax, 3
  00023	50		 push	 eax
  00024	68 00 00 00 00	 push	 OFFSET ??_C@_0FE@PBEHCOFJ@c?3?2users?2nhv90?2projects?2eech?2ap@
  00029	68 00 00 00 00	 push	 OFFSET ??_C@_0CC@BNNNEGEG@assert_client_server_remote_fn?5@
  0002e	e8 00 00 00 00	 call	 ?process_assert@@YGXPBD0H@Z ; process_assert
$LN4@set_client:

; 160  : 
; 161  : 		set_remote_int_value (en, type, value);

  00033	8b 45 10	 mov	 eax, DWORD PTR _value$[ebp]
  00036	50		 push	 eax
  00037	8b 4d 0c	 mov	 ecx, DWORD PTR _type$[ebp]
  0003a	51		 push	 ecx
  0003b	8b 55 08	 mov	 edx, DWORD PTR _en$[ebp]
  0003e	52		 push	 edx
  0003f	e8 00 00 00 00	 call	 ?set_remote_int_value@@YGXPAUENTITY@@W4INT_TYPES@@H@Z ; set_remote_int_value

; 162  : 	}
; 163  : 	else

  00044	eb 32		 jmp	 SHORT $LN1@set_client
$LN2@set_client:

; 164  : 	{
; 165  : 		validate_client_server_local_fn ();

  00046	e8 00 00 00 00	 call	 ?assert_client_server_local_fn@@YGHXZ ; assert_client_server_local_fn
  0004b	85 c0		 test	 eax, eax
  0004d	75 18		 jne	 SHORT $LN5@set_client
  0004f	a1 00 00 00 00	 mov	 eax, DWORD PTR ?__LINE__Var@?0??set_client_int_value@@YGXPAUENTITY@@W4INT_TYPES@@H@Z@4JA
  00054	83 c0 09	 add	 eax, 9
  00057	50		 push	 eax
  00058	68 00 00 00 00	 push	 OFFSET ??_C@_0FE@PBEHCOFJ@c?3?2users?2nhv90?2projects?2eech?2ap@
  0005d	68 00 00 00 00	 push	 OFFSET ??_C@_0CB@CFOCLFOK@assert_client_server_local_fn?5?$CI@
  00062	e8 00 00 00 00	 call	 ?process_assert@@YGXPBD0H@Z ; process_assert
$LN5@set_client:

; 166  : 
; 167  : 		set_local_int_value (en, type, value);

  00067	8b 45 10	 mov	 eax, DWORD PTR _value$[ebp]
  0006a	50		 push	 eax
  0006b	8b 4d 0c	 mov	 ecx, DWORD PTR _type$[ebp]
  0006e	51		 push	 ecx
  0006f	8b 55 08	 mov	 edx, DWORD PTR _en$[ebp]
  00072	52		 push	 edx
  00073	e8 00 00 00 00	 call	 ?set_local_int_value@@YGXPAUENTITY@@W4INT_TYPES@@H@Z ; set_local_int_value
$LN1@set_client:

; 168  : 	}
; 169  : }

  00078	5f		 pop	 edi
  00079	5e		 pop	 esi
  0007a	5b		 pop	 ebx
  0007b	8b e5		 mov	 esp, ebp
  0007d	5d		 pop	 ebp
  0007e	c2 0c 00	 ret	 12			; 0000000cH
?set_client_int_value@@YGXPAUENTITY@@W4INT_TYPES@@H@Z ENDP ; set_client_int_value
_TEXT	ENDS
; Function compile flags: /Odtp /ZI
; File c:\users\nhv90\projects\eech\aphavoc\source\entity\special\effect\particle\pa_int.c
;	COMDAT ?set_server_int_value@@YGXPAUENTITY@@W4INT_TYPES@@H@Z
_TEXT	SEGMENT
_en$ = 8						; size = 4
_type$ = 12						; size = 4
_value$ = 16						; size = 4
?set_server_int_value@@YGXPAUENTITY@@W4INT_TYPES@@H@Z PROC ; set_server_int_value, COMDAT

; 141  : {

  00000	55		 push	 ebp
  00001	8b ec		 mov	 ebp, esp
  00003	83 ec 40	 sub	 esp, 64			; 00000040H
  00006	53		 push	 ebx
  00007	56		 push	 esi
  00008	57		 push	 edi

; 142  : 	validate_client_server_local_fn ();

  00009	e8 00 00 00 00	 call	 ?assert_client_server_local_fn@@YGHXZ ; assert_client_server_local_fn
  0000e	85 c0		 test	 eax, eax
  00010	75 18		 jne	 SHORT $LN2@set_server
  00012	a1 00 00 00 00	 mov	 eax, DWORD PTR ?__LINE__Var@?0??set_server_int_value@@YGXPAUENTITY@@W4INT_TYPES@@H@Z@4JA
  00017	83 c0 01	 add	 eax, 1
  0001a	50		 push	 eax
  0001b	68 00 00 00 00	 push	 OFFSET ??_C@_0FE@PBEHCOFJ@c?3?2users?2nhv90?2projects?2eech?2ap@
  00020	68 00 00 00 00	 push	 OFFSET ??_C@_0CB@CFOCLFOK@assert_client_server_local_fn?5?$CI@
  00025	e8 00 00 00 00	 call	 ?process_assert@@YGXPBD0H@Z ; process_assert
$LN2@set_server:

; 143  : 
; 144  : 	set_local_int_value (en, type, value);

  0002a	8b 45 10	 mov	 eax, DWORD PTR _value$[ebp]
  0002d	50		 push	 eax
  0002e	8b 4d 0c	 mov	 ecx, DWORD PTR _type$[ebp]
  00031	51		 push	 ecx
  00032	8b 55 08	 mov	 edx, DWORD PTR _en$[ebp]
  00035	52		 push	 edx
  00036	e8 00 00 00 00	 call	 ?set_local_int_value@@YGXPAUENTITY@@W4INT_TYPES@@H@Z ; set_local_int_value

; 145  : 
; 146  : 	validate_client_server_remote_fn ();

  0003b	e8 00 00 00 00	 call	 ?assert_client_server_remote_fn@@YGHXZ ; assert_client_server_remote_fn
  00040	85 c0		 test	 eax, eax
  00042	75 18		 jne	 SHORT $LN3@set_server
  00044	a1 00 00 00 00	 mov	 eax, DWORD PTR ?__LINE__Var@?0??set_server_int_value@@YGXPAUENTITY@@W4INT_TYPES@@H@Z@4JA
  00049	83 c0 05	 add	 eax, 5
  0004c	50		 push	 eax
  0004d	68 00 00 00 00	 push	 OFFSET ??_C@_0FE@PBEHCOFJ@c?3?2users?2nhv90?2projects?2eech?2ap@
  00052	68 00 00 00 00	 push	 OFFSET ??_C@_0CC@BNNNEGEG@assert_client_server_remote_fn?5@
  00057	e8 00 00 00 00	 call	 ?process_assert@@YGXPBD0H@Z ; process_assert
$LN3@set_server:

; 147  : 
; 148  : 	set_remote_int_value (en, type, value);

  0005c	8b 45 10	 mov	 eax, DWORD PTR _value$[ebp]
  0005f	50		 push	 eax
  00060	8b 4d 0c	 mov	 ecx, DWORD PTR _type$[ebp]
  00063	51		 push	 ecx
  00064	8b 55 08	 mov	 edx, DWORD PTR _en$[ebp]
  00067	52		 push	 edx
  00068	e8 00 00 00 00	 call	 ?set_remote_int_value@@YGXPAUENTITY@@W4INT_TYPES@@H@Z ; set_remote_int_value

; 149  : }

  0006d	5f		 pop	 edi
  0006e	5e		 pop	 esi
  0006f	5b		 pop	 ebx
  00070	8b e5		 mov	 esp, ebp
  00072	5d		 pop	 ebp
  00073	c2 0c 00	 ret	 12			; 0000000cH
?set_server_int_value@@YGXPAUENTITY@@W4INT_TYPES@@H@Z ENDP ; set_server_int_value
_TEXT	ENDS
; Function compile flags: /Odtp /ZI
; File c:\users\nhv90\projects\eech\aphavoc\source\entity\special\effect\particle\pa_int.c
;	COMDAT ?set_remote_int_value@@YGXPAUENTITY@@W4INT_TYPES@@H@Z
_TEXT	SEGMENT
_en$ = 8						; size = 4
_type$ = 12						; size = 4
_value$ = 16						; size = 4
?set_remote_int_value@@YGXPAUENTITY@@W4INT_TYPES@@H@Z PROC ; set_remote_int_value, COMDAT

; 126  : {

  00000	55		 push	 ebp
  00001	8b ec		 mov	 ebp, esp
  00003	83 ec 40	 sub	 esp, 64			; 00000040H
  00006	53		 push	 ebx
  00007	56		 push	 esi
  00008	57		 push	 edi

; 127  : 	#if DEBUG_MODULE
; 128  : 
; 129  : 	debug_log_entity_args (ENTITY_DEBUG_REMOTE, ENTITY_DEBUG_INT_VALUE, en, type, value);
; 130  : 
; 131  : 	#endif
; 132  : 
; 133  : 	transmit_entity_comms_message (ENTITY_COMMS_INT_VALUE, en, type, value);

  00009	8b 45 10	 mov	 eax, DWORD PTR _value$[ebp]
  0000c	50		 push	 eax
  0000d	8b 4d 0c	 mov	 ecx, DWORD PTR _type$[ebp]
  00010	51		 push	 ecx
  00011	8b 55 08	 mov	 edx, DWORD PTR _en$[ebp]
  00014	52		 push	 edx
  00015	6a 17		 push	 23			; 00000017H
  00017	e8 00 00 00 00	 call	 ?transmit_entity_comms_message@@YAXW4ENTITY_COMMS_MESSAGES@@PAUENTITY@@ZZ ; transmit_entity_comms_message
  0001c	83 c4 10	 add	 esp, 16			; 00000010H

; 134  : }

  0001f	5f		 pop	 edi
  00020	5e		 pop	 esi
  00021	5b		 pop	 ebx
  00022	8b e5		 mov	 esp, ebp
  00024	5d		 pop	 ebp
  00025	c2 0c 00	 ret	 12			; 0000000cH
?set_remote_int_value@@YGXPAUENTITY@@W4INT_TYPES@@H@Z ENDP ; set_remote_int_value
_TEXT	ENDS
; Function compile flags: /Odtp /ZI
; File c:\users\nhv90\projects\eech\aphavoc\source\entity\special\effect\particle\pa_int.c
;	COMDAT ?set_local_int_value@@YGXPAUENTITY@@W4INT_TYPES@@H@Z
_TEXT	SEGMENT
tv84 = -72						; size = 4
tv65 = -72						; size = 4
_raw$ = -4						; size = 4
_en$ = 8						; size = 4
_type$ = 12						; size = 4
_value$ = 16						; size = 4
?set_local_int_value@@YGXPAUENTITY@@W4INT_TYPES@@H@Z PROC ; set_local_int_value, COMDAT

; 80   : {

  00000	55		 push	 ebp
  00001	8b ec		 mov	 ebp, esp
  00003	83 ec 48	 sub	 esp, 72			; 00000048H
  00006	53		 push	 ebx
  00007	56		 push	 esi
  00008	57		 push	 edi

; 81   : 	particle
; 82   : 		*raw;
; 83   : 
; 84   : 	#if DEBUG_MODULE
; 85   : 
; 86   : 	debug_log_entity_args (ENTITY_DEBUG_LOCAL, ENTITY_DEBUG_INT_VALUE, en, type, value);
; 87   : 
; 88   : 	#endif
; 89   : 
; 90   : 	raw = (particle *) get_local_entity_data (en);

  00009	8b 45 08	 mov	 eax, DWORD PTR _en$[ebp]
  0000c	8b 48 04	 mov	 ecx, DWORD PTR [eax+4]
  0000f	89 4d fc	 mov	 DWORD PTR _raw$[ebp], ecx

; 91   : 
; 92   : 	switch (type)

  00012	8b 45 0c	 mov	 eax, DWORD PTR _type$[ebp]
  00015	89 45 b8	 mov	 DWORD PTR tv65[ebp], eax
  00018	81 7d b8 92 00
	00 00		 cmp	 DWORD PTR tv65[ebp], 146 ; 00000092H
  0001f	74 0b		 je	 SHORT $LN4@set_local_
  00021	81 7d b8 98 00
	00 00		 cmp	 DWORD PTR tv65[ebp], 152 ; 00000098H
  00028	74 0d		 je	 SHORT $LN5@set_local_
  0002a	eb 16		 jmp	 SHORT $LN6@set_local_
$LN4@set_local_:

; 93   : 	{
; 94   : 		////////////////////////////////////////
; 95   : 		case INT_TYPE_OBJECT_3D_SHAPE:
; 96   : 		////////////////////////////////////////
; 97   : 		{
; 98   : 			raw->object_3d_shape = value;

  0002c	8b 45 fc	 mov	 eax, DWORD PTR _raw$[ebp]
  0002f	8b 4d 10	 mov	 ecx, DWORD PTR _value$[ebp]
  00032	89 48 34	 mov	 DWORD PTR [eax+52], ecx

; 99   : 
; 100  : 			break;

  00035	eb 7d		 jmp	 SHORT $LN1@set_local_
$LN5@set_local_:

; 101  : 		}
; 102  : 		////////////////////////////////////////
; 103  : 		case INT_TYPE_PARTICLE_COUNT:
; 104  : 		////////////////////////////////////////
; 105  : 		{
; 106  : 			raw->particle_count = value;

  00037	8b 45 fc	 mov	 eax, DWORD PTR _raw$[ebp]
  0003a	8a 4d 10	 mov	 cl, BYTE PTR _value$[ebp]
  0003d	88 48 2c	 mov	 BYTE PTR [eax+44], cl

; 107  : 
; 108  : 			break;

  00040	eb 72		 jmp	 SHORT $LN1@set_local_
$LN6@set_local_:

; 109  : 		}
; 110  : 		////////////////////////////////////////
; 111  : 		default:
; 112  : 		////////////////////////////////////////
; 113  : 		{
; 114  : 			debug_fatal_invalid_int_type (en, type);

  00042	83 7d 08 00	 cmp	 DWORD PTR _en$[ebp], 0
  00046	74 0a		 je	 SHORT $LN8@set_local_
  00048	8b 45 08	 mov	 eax, DWORD PTR _en$[ebp]
  0004b	8b 08		 mov	 ecx, DWORD PTR [eax]
  0004d	89 4d b8	 mov	 DWORD PTR tv84[ebp], ecx
  00050	eb 21		 jmp	 SHORT $LN9@set_local_
$LN8@set_local_:
  00052	8b 15 00 00 00
	00		 mov	 edx, DWORD PTR ?__LINE__Var@?0??set_local_int_value@@YGXPAUENTITY@@W4INT_TYPES@@H@Z@4JA
  00058	83 c2 22	 add	 edx, 34			; 00000022H
  0005b	52		 push	 edx
  0005c	68 00 00 00 00	 push	 OFFSET ??_C@_0FE@PBEHCOFJ@c?3?2users?2nhv90?2projects?2eech?2ap@
  00061	a1 00 00 00 00	 mov	 eax, DWORD PTR ?null_entity_pointer_message@@3PBDB ; null_entity_pointer_message
  00066	50		 push	 eax
  00067	e8 00 00 00 00	 call	 ?process_assert@@YGXPBD0H@Z ; process_assert
  0006c	c7 45 b8 00 00
	00 00		 mov	 DWORD PTR tv84[ebp], 0
$LN9@set_local_:
  00073	8b 0d 00 00 00
	00		 mov	 ecx, DWORD PTR ?__LINE__Var@?0??set_local_int_value@@YGXPAUENTITY@@W4INT_TYPES@@H@Z@4JA
  00079	83 c1 22	 add	 ecx, 34			; 00000022H
  0007c	51		 push	 ecx
  0007d	68 00 00 00 00	 push	 OFFSET ??_C@_0FE@PBEHCOFJ@c?3?2users?2nhv90?2projects?2eech?2ap@
  00082	6b 55 0c 14	 imul	 edx, DWORD PTR _type$[ebp], 20
  00086	8b 82 00 00 00
	00		 mov	 eax, DWORD PTR ?int_type_database@@3PAUINT_TYPE_DATA@@A[edx]
  0008c	50		 push	 eax
  0008d	8b 4d 08	 mov	 ecx, DWORD PTR _en$[ebp]
  00090	2b 0d 00 00 00
	00		 sub	 ecx, DWORD PTR ?entities@@3PAUENTITY@@A ; entities
  00096	c1 f9 04	 sar	 ecx, 4
  00099	51		 push	 ecx
  0009a	6b 55 b8 0c	 imul	 edx, DWORD PTR tv84[ebp], 12
  0009e	8b 82 00 00 00
	00		 mov	 eax, DWORD PTR ?entity_type_database@@3PAUENTITY_TYPE_DATA@@A[edx]
  000a4	50		 push	 eax
  000a5	8b 0d 00 00 00
	00		 mov	 ecx, DWORD PTR ?debug_fatal_invalid_int_type_message@@3PBDB ; debug_fatal_invalid_int_type_message
  000ab	51		 push	 ecx
  000ac	e8 00 00 00 00	 call	 ?debug_fatal@@YAXPBDZZ	; debug_fatal
  000b1	83 c4 18	 add	 esp, 24			; 00000018H
$LN1@set_local_:

; 115  : 
; 116  : 			break;
; 117  : 		}
; 118  : 	}
; 119  : }

  000b4	5f		 pop	 edi
  000b5	5e		 pop	 esi
  000b6	5b		 pop	 ebx
  000b7	8b e5		 mov	 esp, ebp
  000b9	5d		 pop	 ebp
  000ba	c2 0c 00	 ret	 12			; 0000000cH
?set_local_int_value@@YGXPAUENTITY@@W4INT_TYPES@@H@Z ENDP ; set_local_int_value
_TEXT	ENDS
; Function compile flags: /Odtp /ZI
; File c:\users\nhv90\projects\eech\aphavoc\source\entity\special\effect\particle\pa_int.c
;	COMDAT ?overload_particle_int_value_functions@@YGXXZ
_TEXT	SEGMENT
?overload_particle_int_value_functions@@YGXXZ PROC	; overload_particle_int_value_functions, COMDAT

; 221  : {

  00000	55		 push	 ebp
  00001	8b ec		 mov	 ebp, esp
  00003	83 ec 40	 sub	 esp, 64			; 00000040H
  00006	53		 push	 ebx
  00007	56		 push	 esi
  00008	57		 push	 edi

; 222  : 	fn_set_local_entity_raw_int_value		[ENTITY_TYPE_PARTICLE][INT_TYPE_OBJECT_3D_SHAPE]							= set_local_int_value;

  00009	b8 5c 04 00 00	 mov	 eax, 1116		; 0000045cH
  0000e	6b c8 12	 imul	 ecx, eax, 18
  00011	ba 04 00 00 00	 mov	 edx, 4
  00016	69 c2 92 00 00
	00		 imul	 eax, edx, 146
  0001c	c7 84 01 00 00
	00 00 00 00 00
	00		 mov	 DWORD PTR ?fn_set_local_entity_raw_int_value@@3PAY0BBH@P6GXPAUENTITY@@W4INT_TYPES@@H@ZA[ecx+eax], OFFSET ?set_local_int_value@@YGXPAUENTITY@@W4INT_TYPES@@H@Z ; set_local_int_value

; 223  : 	fn_set_local_entity_int_value				[ENTITY_TYPE_PARTICLE][INT_TYPE_OBJECT_3D_SHAPE]							= set_local_int_value;

  00027	b8 5c 04 00 00	 mov	 eax, 1116		; 0000045cH
  0002c	6b c8 12	 imul	 ecx, eax, 18
  0002f	ba 04 00 00 00	 mov	 edx, 4
  00034	69 c2 92 00 00
	00		 imul	 eax, edx, 146
  0003a	c7 84 01 00 00
	00 00 00 00 00
	00		 mov	 DWORD PTR ?fn_set_local_entity_int_value@@3PAY0BBH@P6GXPAUENTITY@@W4INT_TYPES@@H@ZA[ecx+eax], OFFSET ?set_local_int_value@@YGXPAUENTITY@@W4INT_TYPES@@H@Z ; set_local_int_value

; 224  : 	fn_set_client_server_entity_int_value	[ENTITY_TYPE_PARTICLE][INT_TYPE_OBJECT_3D_SHAPE][COMMS_MODEL_SERVER]	= set_server_int_value;

  00045	b8 b8 08 00 00	 mov	 eax, 2232		; 000008b8H
  0004a	6b c8 12	 imul	 ecx, eax, 18
  0004d	ba 08 00 00 00	 mov	 edx, 8
  00052	69 c2 92 00 00
	00		 imul	 eax, edx, 146
  00058	8d 8c 01 00 00
	00 00		 lea	 ecx, DWORD PTR ?fn_set_client_server_entity_int_value@@3PAY1BBH@1P6GXPAUENTITY@@W4INT_TYPES@@H@ZA[ecx+eax]
  0005f	ba 04 00 00 00	 mov	 edx, 4
  00064	6b c2 00	 imul	 eax, edx, 0
  00067	c7 04 01 00 00
	00 00		 mov	 DWORD PTR [ecx+eax], OFFSET ?set_server_int_value@@YGXPAUENTITY@@W4INT_TYPES@@H@Z ; set_server_int_value

; 225  : 	fn_set_client_server_entity_int_value	[ENTITY_TYPE_PARTICLE][INT_TYPE_OBJECT_3D_SHAPE][COMMS_MODEL_CLIENT]	= set_client_int_value;

  0006e	b8 b8 08 00 00	 mov	 eax, 2232		; 000008b8H
  00073	6b c8 12	 imul	 ecx, eax, 18
  00076	ba 08 00 00 00	 mov	 edx, 8
  0007b	69 c2 92 00 00
	00		 imul	 eax, edx, 146
  00081	8d 8c 01 00 00
	00 00		 lea	 ecx, DWORD PTR ?fn_set_client_server_entity_int_value@@3PAY1BBH@1P6GXPAUENTITY@@W4INT_TYPES@@H@ZA[ecx+eax]
  00088	ba 04 00 00 00	 mov	 edx, 4
  0008d	c1 e2 00	 shl	 edx, 0
  00090	c7 04 11 00 00
	00 00		 mov	 DWORD PTR [ecx+edx], OFFSET ?set_client_int_value@@YGXPAUENTITY@@W4INT_TYPES@@H@Z ; set_client_int_value

; 226  : 	fn_get_local_entity_int_value				[ENTITY_TYPE_PARTICLE][INT_TYPE_OBJECT_3D_SHAPE]							= get_local_int_value;

  00097	b8 5c 04 00 00	 mov	 eax, 1116		; 0000045cH
  0009c	6b c8 12	 imul	 ecx, eax, 18
  0009f	ba 04 00 00 00	 mov	 edx, 4
  000a4	69 c2 92 00 00
	00		 imul	 eax, edx, 146
  000aa	c7 84 01 00 00
	00 00 00 00 00
	00		 mov	 DWORD PTR ?fn_get_local_entity_int_value@@3PAY0BBH@P6GHPAUENTITY@@W4INT_TYPES@@@ZA[ecx+eax], OFFSET ?get_local_int_value@@YGHPAUENTITY@@W4INT_TYPES@@@Z ; get_local_int_value

; 227  : 
; 228  : 	fn_set_local_entity_raw_int_value		[ENTITY_TYPE_PARTICLE][INT_TYPE_PARTICLE_COUNT]								= set_local_int_value;

  000b5	b8 5c 04 00 00	 mov	 eax, 1116		; 0000045cH
  000ba	6b c8 12	 imul	 ecx, eax, 18
  000bd	ba 04 00 00 00	 mov	 edx, 4
  000c2	69 c2 98 00 00
	00		 imul	 eax, edx, 152
  000c8	c7 84 01 00 00
	00 00 00 00 00
	00		 mov	 DWORD PTR ?fn_set_local_entity_raw_int_value@@3PAY0BBH@P6GXPAUENTITY@@W4INT_TYPES@@H@ZA[ecx+eax], OFFSET ?set_local_int_value@@YGXPAUENTITY@@W4INT_TYPES@@H@Z ; set_local_int_value

; 229  : 	fn_set_local_entity_int_value				[ENTITY_TYPE_PARTICLE][INT_TYPE_PARTICLE_COUNT]								= set_local_int_value;

  000d3	b8 5c 04 00 00	 mov	 eax, 1116		; 0000045cH
  000d8	6b c8 12	 imul	 ecx, eax, 18
  000db	ba 04 00 00 00	 mov	 edx, 4
  000e0	69 c2 98 00 00
	00		 imul	 eax, edx, 152
  000e6	c7 84 01 00 00
	00 00 00 00 00
	00		 mov	 DWORD PTR ?fn_set_local_entity_int_value@@3PAY0BBH@P6GXPAUENTITY@@W4INT_TYPES@@H@ZA[ecx+eax], OFFSET ?set_local_int_value@@YGXPAUENTITY@@W4INT_TYPES@@H@Z ; set_local_int_value

; 230  : 	fn_set_client_server_entity_int_value	[ENTITY_TYPE_PARTICLE][INT_TYPE_PARTICLE_COUNT][COMMS_MODEL_SERVER]	= set_server_int_value;

  000f1	b8 b8 08 00 00	 mov	 eax, 2232		; 000008b8H
  000f6	6b c8 12	 imul	 ecx, eax, 18
  000f9	ba 08 00 00 00	 mov	 edx, 8
  000fe	69 c2 98 00 00
	00		 imul	 eax, edx, 152
  00104	8d 8c 01 00 00
	00 00		 lea	 ecx, DWORD PTR ?fn_set_client_server_entity_int_value@@3PAY1BBH@1P6GXPAUENTITY@@W4INT_TYPES@@H@ZA[ecx+eax]
  0010b	ba 04 00 00 00	 mov	 edx, 4
  00110	6b c2 00	 imul	 eax, edx, 0
  00113	c7 04 01 00 00
	00 00		 mov	 DWORD PTR [ecx+eax], OFFSET ?set_server_int_value@@YGXPAUENTITY@@W4INT_TYPES@@H@Z ; set_server_int_value

; 231  : 	fn_set_client_server_entity_int_value	[ENTITY_TYPE_PARTICLE][INT_TYPE_PARTICLE_COUNT][COMMS_MODEL_CLIENT]	= set_client_int_value;

  0011a	b8 b8 08 00 00	 mov	 eax, 2232		; 000008b8H
  0011f	6b c8 12	 imul	 ecx, eax, 18
  00122	ba 08 00 00 00	 mov	 edx, 8
  00127	69 c2 98 00 00
	00		 imul	 eax, edx, 152
  0012d	8d 8c 01 00 00
	00 00		 lea	 ecx, DWORD PTR ?fn_set_client_server_entity_int_value@@3PAY1BBH@1P6GXPAUENTITY@@W4INT_TYPES@@H@ZA[ecx+eax]
  00134	ba 04 00 00 00	 mov	 edx, 4
  00139	c1 e2 00	 shl	 edx, 0
  0013c	c7 04 11 00 00
	00 00		 mov	 DWORD PTR [ecx+edx], OFFSET ?set_client_int_value@@YGXPAUENTITY@@W4INT_TYPES@@H@Z ; set_client_int_value

; 232  : 	fn_get_local_entity_int_value				[ENTITY_TYPE_PARTICLE][INT_TYPE_PARTICLE_COUNT]								= get_local_int_value;

  00143	b8 5c 04 00 00	 mov	 eax, 1116		; 0000045cH
  00148	6b c8 12	 imul	 ecx, eax, 18
  0014b	ba 04 00 00 00	 mov	 edx, 4
  00150	69 c2 98 00 00
	00		 imul	 eax, edx, 152
  00156	c7 84 01 00 00
	00 00 00 00 00
	00		 mov	 DWORD PTR ?fn_get_local_entity_int_value@@3PAY0BBH@P6GHPAUENTITY@@W4INT_TYPES@@@ZA[ecx+eax], OFFSET ?get_local_int_value@@YGHPAUENTITY@@W4INT_TYPES@@@Z ; get_local_int_value

; 233  : }

  00161	5f		 pop	 edi
  00162	5e		 pop	 esi
  00163	5b		 pop	 ebx
  00164	8b e5		 mov	 esp, ebp
  00166	5d		 pop	 ebp
  00167	c3		 ret	 0
?overload_particle_int_value_functions@@YGXXZ ENDP	; overload_particle_int_value_functions
_TEXT	ENDS
END
