; Listing generated by Microsoft (R) Optimizing Compiler Version 19.16.27045.0 

	TITLE	C:\Users\nhv90\Projects\eech\aphavoc\source\entity\special\pilot\pi_dstry.c
	.686P
	.XMM
	include listing.inc
	.model	flat

INCLUDELIB MSVCRTD
INCLUDELIB OLDNAMES

PUBLIC	?overload_pilot_destroy_functions@@YGXXZ	; overload_pilot_destroy_functions
PUBLIC	??_C@_0BH@CJMCGBIN@pilot?5entity?5destroyed@	; `string'
PUBLIC	?__LINE__Var@?0??destroy_server@@YGXPAUENTITY@@@Z@4JA ; `destroy_server'::`1'::__LINE__Var
PUBLIC	??_C@_0EM@INLOBND@c?3?2users?2nhv90?2projects?2eech?2ap@ ; `string'
PUBLIC	??_C@_0CC@BNNNEGEG@assert_client_server_remote_fn?5@ ; `string'
PUBLIC	??_C@_0CB@CFOCLFOK@assert_client_server_local_fn?5?$CI@ ; `string'
PUBLIC	?__LINE__Var@?0??destroy_client@@YGXPAUENTITY@@@Z@4JA ; `destroy_client'::`1'::__LINE__Var
EXTRN	?process_assert@@YGXPBD0H@Z:PROC		; process_assert
EXTRN	?debug_log@@YAXPBDZZ:PROC			; debug_log
EXTRN	?free_mem@@YGXPAX@Z:PROC			; free_mem
EXTRN	?delete_local_entity_from_parents_child_list@@YGXPAUENTITY@@W4LIST_TYPES@@@Z:PROC ; delete_local_entity_from_parents_child_list
EXTRN	?unlink_local_entity_children@@YGXPAUENTITY@@W4LIST_TYPES@@@Z:PROC ; unlink_local_entity_children
EXTRN	?destroy_local_entity@@YGXPAUENTITY@@@Z:PROC	; destroy_local_entity
EXTRN	?transmit_entity_comms_message@@YAXW4ENTITY_COMMS_MESSAGES@@PAUENTITY@@ZZ:PROC ; transmit_entity_comms_message
EXTRN	?assert_client_server_local_fn@@YGHXZ:PROC	; assert_client_server_local_fn
EXTRN	?assert_client_server_remote_fn@@YGHXZ:PROC	; assert_client_server_remote_fn
EXTRN	?set_free_entity@@YGXPAUENTITY@@@Z:PROC		; set_free_entity
EXTRN	?send_pilot_quit_message@@YGXPAUENTITY@@@Z:PROC	; send_pilot_quit_message
EXTRN	?campaign_screen_update_chat_page_pilot@@YGXPAUENTITY@@@Z:PROC ; campaign_screen_update_chat_page_pilot
EXTRN	?system_comms_model@@3W4COMMS_MODEL_TYPES@@A:DWORD ; system_comms_model
EXTRN	?system_comms_data_flow@@3W4COMMS_DATA_FLOW_TYPES@@A:DWORD ; system_comms_data_flow
EXTRN	?fn_destroy_local_entity@@3PAP6GXPAUENTITY@@@ZA:BYTE ; fn_destroy_local_entity
EXTRN	?fn_destroy_client_server_entity@@3PAY01P6GXPAUENTITY@@@ZA:BYTE ; fn_destroy_client_server_entity
EXTRN	?fn_destroy_local_entity_family@@3PAP6GXPAUENTITY@@@ZA:BYTE ; fn_destroy_local_entity_family
EXTRN	?fn_destroy_client_server_entity_family@@3PAY01P6GXPAUENTITY@@@ZA:BYTE ; fn_destroy_client_server_entity_family
EXTRN	?fn_kill_local_entity@@3PAP6GXPAUENTITY@@@ZA:BYTE ; fn_kill_local_entity
EXTRN	?fn_kill_client_server_entity@@3PAY01P6GXPAUENTITY@@@ZA:BYTE ; fn_kill_client_server_entity
EXTRN	?pilot_entity@@3PAUENTITY@@A:DWORD		; pilot_entity
;	COMDAT ?__LINE__Var@?0??destroy_client@@YGXPAUENTITY@@@Z@4JA
_DATA	SEGMENT
?__LINE__Var@?0??destroy_client@@YGXPAUENTITY@@@Z@4JA DD 0d0H ; `destroy_client'::`1'::__LINE__Var
_DATA	ENDS
;	COMDAT ??_C@_0CB@CFOCLFOK@assert_client_server_local_fn?5?$CI@
CONST	SEGMENT
??_C@_0CB@CFOCLFOK@assert_client_server_local_fn?5?$CI@ DB 'assert_client'
	DB	'_server_local_fn ()', 00H			; `string'
CONST	ENDS
;	COMDAT ??_C@_0CC@BNNNEGEG@assert_client_server_remote_fn?5@
CONST	SEGMENT
??_C@_0CC@BNNNEGEG@assert_client_server_remote_fn?5@ DB 'assert_client_se'
	DB	'rver_remote_fn ()', 00H			; `string'
CONST	ENDS
;	COMDAT ??_C@_0EM@INLOBND@c?3?2users?2nhv90?2projects?2eech?2ap@
CONST	SEGMENT
??_C@_0EM@INLOBND@c?3?2users?2nhv90?2projects?2eech?2ap@ DB 'c:\users\nhv'
	DB	'90\projects\eech\aphavoc\source\entity\special\pilot\pi_dstry'
	DB	'.c', 00H					; `string'
CONST	ENDS
;	COMDAT ?__LINE__Var@?0??destroy_server@@YGXPAUENTITY@@@Z@4JA
_DATA	SEGMENT
?__LINE__Var@?0??destroy_server@@YGXPAUENTITY@@@Z@4JA DD 0b9H ; `destroy_server'::`1'::__LINE__Var
_DATA	ENDS
;	COMDAT ??_C@_0BH@CJMCGBIN@pilot?5entity?5destroyed@
CONST	SEGMENT
??_C@_0BH@CJMCGBIN@pilot?5entity?5destroyed@ DB 'pilot entity destroyed', 00H ; `string'
CONST	ENDS
; Function compile flags: /Odtp /ZI
; File c:\users\nhv90\projects\eech\aphavoc\source\entity\special\pilot\pi_dstry.c
;	COMDAT ?destroy_client@@YGXPAUENTITY@@@Z
_TEXT	SEGMENT
_en$ = 8						; size = 4
?destroy_client@@YGXPAUENTITY@@@Z PROC			; destroy_client, COMDAT

; 208  : {

  00000	55		 push	 ebp
  00001	8b ec		 mov	 ebp, esp
  00003	83 ec 40	 sub	 esp, 64			; 00000040H
  00006	53		 push	 ebx
  00007	56		 push	 esi
  00008	57		 push	 edi

; 209  : 	if (get_comms_data_flow () == COMMS_DATA_FLOW_TX)

  00009	83 3d 00 00 00
	00 00		 cmp	 DWORD PTR ?system_comms_data_flow@@3W4COMMS_DATA_FLOW_TYPES@@A, 0 ; system_comms_data_flow
  00010	75 2c		 jne	 SHORT $LN2@destroy_cl

; 210  : 	{
; 211  : 		validate_client_server_remote_fn ();

  00012	e8 00 00 00 00	 call	 ?assert_client_server_remote_fn@@YGHXZ ; assert_client_server_remote_fn
  00017	85 c0		 test	 eax, eax
  00019	75 18		 jne	 SHORT $LN4@destroy_cl
  0001b	a1 00 00 00 00	 mov	 eax, DWORD PTR ?__LINE__Var@?0??destroy_client@@YGXPAUENTITY@@@Z@4JA
  00020	83 c0 03	 add	 eax, 3
  00023	50		 push	 eax
  00024	68 00 00 00 00	 push	 OFFSET ??_C@_0EM@INLOBND@c?3?2users?2nhv90?2projects?2eech?2ap@
  00029	68 00 00 00 00	 push	 OFFSET ??_C@_0CC@BNNNEGEG@assert_client_server_remote_fn?5@
  0002e	e8 00 00 00 00	 call	 ?process_assert@@YGXPBD0H@Z ; process_assert
$LN4@destroy_cl:

; 212  : 
; 213  : 		destroy_remote (en);

  00033	8b 45 08	 mov	 eax, DWORD PTR _en$[ebp]
  00036	50		 push	 eax
  00037	e8 00 00 00 00	 call	 ?destroy_remote@@YGXPAUENTITY@@@Z ; destroy_remote

; 214  : 	}
; 215  : 	else

  0003c	eb 2a		 jmp	 SHORT $LN1@destroy_cl
$LN2@destroy_cl:

; 216  : 	{
; 217  : 		validate_client_server_local_fn ();

  0003e	e8 00 00 00 00	 call	 ?assert_client_server_local_fn@@YGHXZ ; assert_client_server_local_fn
  00043	85 c0		 test	 eax, eax
  00045	75 18		 jne	 SHORT $LN5@destroy_cl
  00047	a1 00 00 00 00	 mov	 eax, DWORD PTR ?__LINE__Var@?0??destroy_client@@YGXPAUENTITY@@@Z@4JA
  0004c	83 c0 09	 add	 eax, 9
  0004f	50		 push	 eax
  00050	68 00 00 00 00	 push	 OFFSET ??_C@_0EM@INLOBND@c?3?2users?2nhv90?2projects?2eech?2ap@
  00055	68 00 00 00 00	 push	 OFFSET ??_C@_0CB@CFOCLFOK@assert_client_server_local_fn?5?$CI@
  0005a	e8 00 00 00 00	 call	 ?process_assert@@YGXPBD0H@Z ; process_assert
$LN5@destroy_cl:

; 218  : 
; 219  : 		//
; 220  : 		// destroy local using 'full' function
; 221  :   		//
; 222  : 
; 223  : 		destroy_local_entity (en);

  0005f	8b 45 08	 mov	 eax, DWORD PTR _en$[ebp]
  00062	50		 push	 eax
  00063	e8 00 00 00 00	 call	 ?destroy_local_entity@@YGXPAUENTITY@@@Z ; destroy_local_entity
$LN1@destroy_cl:

; 224  : 	}
; 225  : }

  00068	5f		 pop	 edi
  00069	5e		 pop	 esi
  0006a	5b		 pop	 ebx
  0006b	8b e5		 mov	 esp, ebp
  0006d	5d		 pop	 ebp
  0006e	c2 04 00	 ret	 4
?destroy_client@@YGXPAUENTITY@@@Z ENDP			; destroy_client
_TEXT	ENDS
; Function compile flags: /Odtp /ZI
; File c:\users\nhv90\projects\eech\aphavoc\source\entity\special\pilot\pi_dstry.c
;	COMDAT ?destroy_server@@YGXPAUENTITY@@@Z
_TEXT	SEGMENT
_en$ = 8						; size = 4
?destroy_server@@YGXPAUENTITY@@@Z PROC			; destroy_server, COMDAT

; 185  : {

  00000	55		 push	 ebp
  00001	8b ec		 mov	 ebp, esp
  00003	83 ec 40	 sub	 esp, 64			; 00000040H
  00006	53		 push	 ebx
  00007	56		 push	 esi
  00008	57		 push	 edi

; 186  : 	//
; 187  : 	// destroy remote entity first (keeping local entity valid)
; 188  : 	//
; 189  : 
; 190  : 	validate_client_server_remote_fn ();

  00009	e8 00 00 00 00	 call	 ?assert_client_server_remote_fn@@YGHXZ ; assert_client_server_remote_fn
  0000e	85 c0		 test	 eax, eax
  00010	75 18		 jne	 SHORT $LN2@destroy_se
  00012	a1 00 00 00 00	 mov	 eax, DWORD PTR ?__LINE__Var@?0??destroy_server@@YGXPAUENTITY@@@Z@4JA
  00017	83 c0 05	 add	 eax, 5
  0001a	50		 push	 eax
  0001b	68 00 00 00 00	 push	 OFFSET ??_C@_0EM@INLOBND@c?3?2users?2nhv90?2projects?2eech?2ap@
  00020	68 00 00 00 00	 push	 OFFSET ??_C@_0CC@BNNNEGEG@assert_client_server_remote_fn?5@
  00025	e8 00 00 00 00	 call	 ?process_assert@@YGXPBD0H@Z ; process_assert
$LN2@destroy_se:

; 191  : 
; 192  : 	destroy_remote (en);

  0002a	8b 45 08	 mov	 eax, DWORD PTR _en$[ebp]
  0002d	50		 push	 eax
  0002e	e8 00 00 00 00	 call	 ?destroy_remote@@YGXPAUENTITY@@@Z ; destroy_remote

; 193  : 
; 194  : 	validate_client_server_local_fn ();

  00033	e8 00 00 00 00	 call	 ?assert_client_server_local_fn@@YGHXZ ; assert_client_server_local_fn
  00038	85 c0		 test	 eax, eax
  0003a	75 18		 jne	 SHORT $LN3@destroy_se
  0003c	a1 00 00 00 00	 mov	 eax, DWORD PTR ?__LINE__Var@?0??destroy_server@@YGXPAUENTITY@@@Z@4JA
  00041	83 c0 09	 add	 eax, 9
  00044	50		 push	 eax
  00045	68 00 00 00 00	 push	 OFFSET ??_C@_0EM@INLOBND@c?3?2users?2nhv90?2projects?2eech?2ap@
  0004a	68 00 00 00 00	 push	 OFFSET ??_C@_0CB@CFOCLFOK@assert_client_server_local_fn?5?$CI@
  0004f	e8 00 00 00 00	 call	 ?process_assert@@YGXPBD0H@Z ; process_assert
$LN3@destroy_se:

; 195  : 
; 196  : 	//
; 197  : 	// destroy local using 'full' function
; 198  : 	//
; 199  : 
; 200  : 	destroy_local_entity (en);

  00054	8b 45 08	 mov	 eax, DWORD PTR _en$[ebp]
  00057	50		 push	 eax
  00058	e8 00 00 00 00	 call	 ?destroy_local_entity@@YGXPAUENTITY@@@Z ; destroy_local_entity

; 201  : }

  0005d	5f		 pop	 edi
  0005e	5e		 pop	 esi
  0005f	5b		 pop	 ebx
  00060	8b e5		 mov	 esp, ebp
  00062	5d		 pop	 ebp
  00063	c2 04 00	 ret	 4
?destroy_server@@YGXPAUENTITY@@@Z ENDP			; destroy_server
_TEXT	ENDS
; Function compile flags: /Odtp /ZI
; File c:\users\nhv90\projects\eech\aphavoc\source\entity\special\pilot\pi_dstry.c
;	COMDAT ?destroy_remote@@YGXPAUENTITY@@@Z
_TEXT	SEGMENT
_en$ = 8						; size = 4
?destroy_remote@@YGXPAUENTITY@@@Z PROC			; destroy_remote, COMDAT

; 170  : {

  00000	55		 push	 ebp
  00001	8b ec		 mov	 ebp, esp
  00003	83 ec 40	 sub	 esp, 64			; 00000040H
  00006	53		 push	 ebx
  00007	56		 push	 esi
  00008	57		 push	 edi

; 171  : 	#if DEBUG_MODULE
; 172  : 
; 173  : 	debug_log_entity_args (ENTITY_DEBUG_REMOTE, ENTITY_DEBUG_DESTROY, en);
; 174  : 
; 175  : 	#endif
; 176  : 
; 177  : 	transmit_entity_comms_message (ENTITY_COMMS_DESTROY, en);

  00009	8b 45 08	 mov	 eax, DWORD PTR _en$[ebp]
  0000c	50		 push	 eax
  0000d	6a 12		 push	 18			; 00000012H
  0000f	e8 00 00 00 00	 call	 ?transmit_entity_comms_message@@YAXW4ENTITY_COMMS_MESSAGES@@PAUENTITY@@ZZ ; transmit_entity_comms_message
  00014	83 c4 08	 add	 esp, 8

; 178  : }

  00017	5f		 pop	 edi
  00018	5e		 pop	 esi
  00019	5b		 pop	 ebx
  0001a	8b e5		 mov	 esp, ebp
  0001c	5d		 pop	 ebp
  0001d	c2 04 00	 ret	 4
?destroy_remote@@YGXPAUENTITY@@@Z ENDP			; destroy_remote
_TEXT	ENDS
; Function compile flags: /Odtp /ZI
; File c:\users\nhv90\projects\eech\aphavoc\source\entity\special\pilot\pi_dstry.c
;	COMDAT ?destroy_local@@YGXPAUENTITY@@@Z
_TEXT	SEGMENT
_raw$ = -4						; size = 4
_en$ = 8						; size = 4
?destroy_local@@YGXPAUENTITY@@@Z PROC			; destroy_local, COMDAT

; 80   : {

  00000	55		 push	 ebp
  00001	8b ec		 mov	 ebp, esp
  00003	83 ec 44	 sub	 esp, 68			; 00000044H
  00006	53		 push	 ebx
  00007	56		 push	 esi
  00008	57		 push	 edi

; 81   : 	pilot
; 82   : 		*raw;
; 83   : 
; 84   : 	////////////////////////////////////////
; 85   : 	//
; 86   : 	// PRE-AMBLE
; 87   : 	//
; 88   : 	////////////////////////////////////////
; 89   : 
; 90   : 	#if DEBUG_MODULE
; 91   : 
; 92   : 	debug_log_entity_args (ENTITY_DEBUG_LOCAL, ENTITY_DEBUG_DESTROY, en);
; 93   : 
; 94   : 	#endif
; 95   : 
; 96   : 	raw = (pilot *) get_local_entity_data (en);

  00009	8b 45 08	 mov	 eax, DWORD PTR _en$[ebp]
  0000c	8b 48 04	 mov	 ecx, DWORD PTR [eax+4]
  0000f	89 4d fc	 mov	 DWORD PTR _raw$[ebp], ecx

; 97   : 
; 98   : 	//
; 99   : 	// notify others that player has quit
; 100  : 	//
; 101  : 
; 102  : 	if (get_comms_model () == COMMS_MODEL_SERVER)

  00012	83 3d 00 00 00
	00 00		 cmp	 DWORD PTR ?system_comms_model@@3W4COMMS_MODEL_TYPES@@A, 0 ; system_comms_model
  00019	75 09		 jne	 SHORT $LN2@destroy_lo

; 103  : 	{
; 104  : 		send_pilot_quit_message (en);

  0001b	8b 45 08	 mov	 eax, DWORD PTR _en$[ebp]
  0001e	50		 push	 eax
  0001f	e8 00 00 00 00	 call	 ?send_pilot_quit_message@@YGXPAUENTITY@@@Z ; send_pilot_quit_message
$LN2@destroy_lo:

; 105  : 	}
; 106  : 
; 107  : 	////////////////////////////////////////
; 108  : 	//
; 109  : 	// VALIDATE
; 110  : 	//
; 111  : 	////////////////////////////////////////
; 112  : 
; 113  : 	////////////////////////////////////////
; 114  : 	//
; 115  : 	// DESTROY COMPONENTS
; 116  : 	//
; 117  : 	////////////////////////////////////////
; 118  : 
; 119  : 	////////////////////////////////////////
; 120  : 	//
; 121  : 	// UNLINK FROM SYSTEM
; 122  : 	//
; 123  : 	////////////////////////////////////////
; 124  : 
; 125  : 	unlink_local_entity_children (en, LIST_TYPE_PILOT_LOCK);

  00024	6a 1d		 push	 29			; 0000001dH
  00026	8b 45 08	 mov	 eax, DWORD PTR _en$[ebp]
  00029	50		 push	 eax
  0002a	e8 00 00 00 00	 call	 ?unlink_local_entity_children@@YGXPAUENTITY@@W4LIST_TYPES@@@Z ; unlink_local_entity_children

; 126  : 
; 127  : 	delete_local_entity_from_parents_child_list (en, LIST_TYPE_AIRCREW);

  0002f	6a 01		 push	 1
  00031	8b 45 08	 mov	 eax, DWORD PTR _en$[ebp]
  00034	50		 push	 eax
  00035	e8 00 00 00 00	 call	 ?delete_local_entity_from_parents_child_list@@YGXPAUENTITY@@W4LIST_TYPES@@@Z ; delete_local_entity_from_parents_child_list

; 128  : 
; 129  : 	delete_local_entity_from_parents_child_list (en, LIST_TYPE_PILOT);

  0003a	6a 1c		 push	 28			; 0000001cH
  0003c	8b 45 08	 mov	 eax, DWORD PTR _en$[ebp]
  0003f	50		 push	 eax
  00040	e8 00 00 00 00	 call	 ?delete_local_entity_from_parents_child_list@@YGXPAUENTITY@@W4LIST_TYPES@@@Z ; delete_local_entity_from_parents_child_list

; 130  : 
; 131  : 	delete_local_entity_from_parents_child_list (en, LIST_TYPE_PLAYER_TASK);

  00045	6a 1e		 push	 30			; 0000001eH
  00047	8b 45 08	 mov	 eax, DWORD PTR _en$[ebp]
  0004a	50		 push	 eax
  0004b	e8 00 00 00 00	 call	 ?delete_local_entity_from_parents_child_list@@YGXPAUENTITY@@W4LIST_TYPES@@@Z ; delete_local_entity_from_parents_child_list

; 132  : 
; 133  : 	//
; 134  : 	// Notify Campaign Screen
; 135  : 	//
; 136  : 	
; 137  : 	campaign_screen_update_chat_page_pilot (en);

  00050	8b 45 08	 mov	 eax, DWORD PTR _en$[ebp]
  00053	50		 push	 eax
  00054	e8 00 00 00 00	 call	 ?campaign_screen_update_chat_page_pilot@@YGXPAUENTITY@@@Z ; campaign_screen_update_chat_page_pilot

; 138  : 
; 139  : 	//
; 140  : 	// check if this player entity belongs to the local player
; 141  : 	//
; 142  : 
; 143  : 	if (en == get_pilot_entity ())

  00059	8b 45 08	 mov	 eax, DWORD PTR _en$[ebp]
  0005c	3b 05 00 00 00
	00		 cmp	 eax, DWORD PTR ?pilot_entity@@3PAUENTITY@@A ; pilot_entity
  00062	75 17		 jne	 SHORT $LN3@destroy_lo

; 144  : 	{
; 145  : 		//
; 146  : 		// just set raw value (otherwise it will destroy itself again)
; 147  : 		//
; 148  : 		
; 149  : 		debug_log("pilot entity destroyed");

  00064	68 00 00 00 00	 push	 OFFSET ??_C@_0BH@CJMCGBIN@pilot?5entity?5destroyed@
  00069	e8 00 00 00 00	 call	 ?debug_log@@YAXPBDZZ	; debug_log
  0006e	83 c4 04	 add	 esp, 4

; 150  : 			
; 151  : 		pilot_entity = NULL;

  00071	c7 05 00 00 00
	00 00 00 00 00	 mov	 DWORD PTR ?pilot_entity@@3PAUENTITY@@A, 0 ; pilot_entity
$LN3@destroy_lo:

; 152  : 	}
; 153  : 
; 154  : 	////////////////////////////////////////
; 155  : 	//
; 156  : 	// FREE ENTITY DATA
; 157  : 	//
; 158  : 	////////////////////////////////////////
; 159  : 
; 160  : 	free_mem (raw);

  0007b	8b 45 fc	 mov	 eax, DWORD PTR _raw$[ebp]
  0007e	50		 push	 eax
  0007f	e8 00 00 00 00	 call	 ?free_mem@@YGXPAX@Z	; free_mem

; 161  : 
; 162  : 	set_free_entity (en);

  00084	8b 45 08	 mov	 eax, DWORD PTR _en$[ebp]
  00087	50		 push	 eax
  00088	e8 00 00 00 00	 call	 ?set_free_entity@@YGXPAUENTITY@@@Z ; set_free_entity

; 163  : }

  0008d	5f		 pop	 edi
  0008e	5e		 pop	 esi
  0008f	5b		 pop	 ebx
  00090	8b e5		 mov	 esp, ebp
  00092	5d		 pop	 ebp
  00093	c2 04 00	 ret	 4
?destroy_local@@YGXPAUENTITY@@@Z ENDP			; destroy_local
_TEXT	ENDS
; Function compile flags: /Odtp /ZI
; File c:\users\nhv90\projects\eech\aphavoc\source\entity\special\pilot\pi_dstry.c
;	COMDAT ?overload_pilot_destroy_functions@@YGXXZ
_TEXT	SEGMENT
?overload_pilot_destroy_functions@@YGXXZ PROC		; overload_pilot_destroy_functions, COMDAT

; 232  : {

  00000	55		 push	 ebp
  00001	8b ec		 mov	 ebp, esp
  00003	83 ec 40	 sub	 esp, 64			; 00000040H
  00006	53		 push	 ebx
  00007	56		 push	 esi
  00008	57		 push	 edi

; 233  : 	fn_destroy_local_entity						[ENTITY_TYPE_PILOT]								= destroy_local;

  00009	b8 04 00 00 00	 mov	 eax, 4
  0000e	6b c8 14	 imul	 ecx, eax, 20
  00011	c7 81 00 00 00
	00 00 00 00 00	 mov	 DWORD PTR ?fn_destroy_local_entity@@3PAP6GXPAUENTITY@@@ZA[ecx], OFFSET ?destroy_local@@YGXPAUENTITY@@@Z ; destroy_local

; 234  : 	fn_destroy_client_server_entity			[ENTITY_TYPE_PILOT][COMMS_MODEL_SERVER]	= destroy_server;

  0001b	b8 08 00 00 00	 mov	 eax, 8
  00020	6b c8 14	 imul	 ecx, eax, 20
  00023	ba 04 00 00 00	 mov	 edx, 4
  00028	6b c2 00	 imul	 eax, edx, 0
  0002b	c7 84 01 00 00
	00 00 00 00 00
	00		 mov	 DWORD PTR ?fn_destroy_client_server_entity@@3PAY01P6GXPAUENTITY@@@ZA[ecx+eax], OFFSET ?destroy_server@@YGXPAUENTITY@@@Z ; destroy_server

; 235  : 	fn_destroy_client_server_entity			[ENTITY_TYPE_PILOT][COMMS_MODEL_CLIENT]	= destroy_client;

  00036	b8 08 00 00 00	 mov	 eax, 8
  0003b	6b c8 14	 imul	 ecx, eax, 20
  0003e	ba 04 00 00 00	 mov	 edx, 4
  00043	c1 e2 00	 shl	 edx, 0
  00046	c7 84 11 00 00
	00 00 00 00 00
	00		 mov	 DWORD PTR ?fn_destroy_client_server_entity@@3PAY01P6GXPAUENTITY@@@ZA[ecx+edx], OFFSET ?destroy_client@@YGXPAUENTITY@@@Z ; destroy_client

; 236  : 
; 237  : 	fn_destroy_local_entity_family			[ENTITY_TYPE_PILOT]								= destroy_local;

  00051	b8 04 00 00 00	 mov	 eax, 4
  00056	6b c8 14	 imul	 ecx, eax, 20
  00059	c7 81 00 00 00
	00 00 00 00 00	 mov	 DWORD PTR ?fn_destroy_local_entity_family@@3PAP6GXPAUENTITY@@@ZA[ecx], OFFSET ?destroy_local@@YGXPAUENTITY@@@Z ; destroy_local

; 238  : 	fn_destroy_client_server_entity_family	[ENTITY_TYPE_PILOT][COMMS_MODEL_SERVER]	= destroy_server;

  00063	b8 08 00 00 00	 mov	 eax, 8
  00068	6b c8 14	 imul	 ecx, eax, 20
  0006b	ba 04 00 00 00	 mov	 edx, 4
  00070	6b c2 00	 imul	 eax, edx, 0
  00073	c7 84 01 00 00
	00 00 00 00 00
	00		 mov	 DWORD PTR ?fn_destroy_client_server_entity_family@@3PAY01P6GXPAUENTITY@@@ZA[ecx+eax], OFFSET ?destroy_server@@YGXPAUENTITY@@@Z ; destroy_server

; 239  : 	fn_destroy_client_server_entity_family	[ENTITY_TYPE_PILOT][COMMS_MODEL_CLIENT]	= destroy_client;

  0007e	b8 08 00 00 00	 mov	 eax, 8
  00083	6b c8 14	 imul	 ecx, eax, 20
  00086	ba 04 00 00 00	 mov	 edx, 4
  0008b	c1 e2 00	 shl	 edx, 0
  0008e	c7 84 11 00 00
	00 00 00 00 00
	00		 mov	 DWORD PTR ?fn_destroy_client_server_entity_family@@3PAY01P6GXPAUENTITY@@@ZA[ecx+edx], OFFSET ?destroy_client@@YGXPAUENTITY@@@Z ; destroy_client

; 240  : 
; 241  : 	fn_kill_local_entity							[ENTITY_TYPE_PILOT]								= destroy_local;

  00099	b8 04 00 00 00	 mov	 eax, 4
  0009e	6b c8 14	 imul	 ecx, eax, 20
  000a1	c7 81 00 00 00
	00 00 00 00 00	 mov	 DWORD PTR ?fn_kill_local_entity@@3PAP6GXPAUENTITY@@@ZA[ecx], OFFSET ?destroy_local@@YGXPAUENTITY@@@Z ; destroy_local

; 242  : 	fn_kill_client_server_entity				[ENTITY_TYPE_PILOT][COMMS_MODEL_SERVER]	= destroy_server;

  000ab	b8 08 00 00 00	 mov	 eax, 8
  000b0	6b c8 14	 imul	 ecx, eax, 20
  000b3	ba 04 00 00 00	 mov	 edx, 4
  000b8	6b c2 00	 imul	 eax, edx, 0
  000bb	c7 84 01 00 00
	00 00 00 00 00
	00		 mov	 DWORD PTR ?fn_kill_client_server_entity@@3PAY01P6GXPAUENTITY@@@ZA[ecx+eax], OFFSET ?destroy_server@@YGXPAUENTITY@@@Z ; destroy_server

; 243  : 	fn_kill_client_server_entity				[ENTITY_TYPE_PILOT][COMMS_MODEL_CLIENT]	= destroy_client;

  000c6	b8 08 00 00 00	 mov	 eax, 8
  000cb	6b c8 14	 imul	 ecx, eax, 20
  000ce	ba 04 00 00 00	 mov	 edx, 4
  000d3	c1 e2 00	 shl	 edx, 0
  000d6	c7 84 11 00 00
	00 00 00 00 00
	00		 mov	 DWORD PTR ?fn_kill_client_server_entity@@3PAY01P6GXPAUENTITY@@@ZA[ecx+edx], OFFSET ?destroy_client@@YGXPAUENTITY@@@Z ; destroy_client

; 244  : }

  000e1	5f		 pop	 edi
  000e2	5e		 pop	 esi
  000e3	5b		 pop	 ebx
  000e4	8b e5		 mov	 esp, ebp
  000e6	5d		 pop	 ebp
  000e7	c3		 ret	 0
?overload_pilot_destroy_functions@@YGXXZ ENDP		; overload_pilot_destroy_functions
_TEXT	ENDS
END
