; Listing generated by Microsoft (R) Optimizing Compiler Version 19.16.27045.0 

	TITLE	C:\Users\nhv90\Projects\eech\aphavoc\source\entity\special\pilot\pi_int.c
	.686P
	.XMM
	include listing.inc
	.model	flat

INCLUDELIB MSVCRTD
INCLUDELIB OLDNAMES

PUBLIC	?overload_pilot_int_value_functions@@YGXXZ	; overload_pilot_int_value_functions
PUBLIC	?__LINE__Var@?0??set_local_int_value@@YGXPAUENTITY@@W4INT_TYPES@@H@Z@4JA ; `set_local_int_value'::`1'::__LINE__Var
PUBLIC	??_C@_0EK@JHGABAHB@c?3?2users?2nhv90?2projects?2eech?2ap@ ; `string'
PUBLIC	?__LINE__Var@?0??set_server_int_value@@YGXPAUENTITY@@W4INT_TYPES@@H@Z@4JA ; `set_server_int_value'::`1'::__LINE__Var
PUBLIC	??_C@_0CB@CFOCLFOK@assert_client_server_local_fn?5?$CI@ ; `string'
PUBLIC	??_C@_0CC@BNNNEGEG@assert_client_server_remote_fn?5@ ; `string'
PUBLIC	?__LINE__Var@?0??set_client_int_value@@YGXPAUENTITY@@W4INT_TYPES@@H@Z@4JA ; `set_client_int_value'::`1'::__LINE__Var
PUBLIC	?__LINE__Var@?0??get_local_int_value@@YGHPAUENTITY@@W4INT_TYPES@@@Z@4JA ; `get_local_int_value'::`1'::__LINE__Var
EXTRN	?process_assert@@YGXPBD0H@Z:PROC		; process_assert
EXTRN	?debug_fatal@@YAXPBDZZ:PROC			; debug_fatal
EXTRN	?transmit_entity_comms_message@@YAXW4ENTITY_COMMS_MESSAGES@@PAUENTITY@@ZZ:PROC ; transmit_entity_comms_message
EXTRN	?assert_client_server_local_fn@@YGHXZ:PROC	; assert_client_server_local_fn
EXTRN	?assert_client_server_remote_fn@@YGHXZ:PROC	; assert_client_server_remote_fn
EXTRN	?update_pilot_high_score_table@@YGHXZ:PROC	; update_pilot_high_score_table
EXTRN	?null_entity_pointer_message@@3PBDB:DWORD	; null_entity_pointer_message
EXTRN	?entity_type_database@@3PAUENTITY_TYPE_DATA@@A:BYTE ; entity_type_database
EXTRN	?system_comms_data_flow@@3W4COMMS_DATA_FLOW_TYPES@@A:DWORD ; system_comms_data_flow
EXTRN	?int_type_database@@3PAUINT_TYPE_DATA@@A:BYTE	; int_type_database
EXTRN	?debug_fatal_invalid_int_type_message@@3PBDB:DWORD ; debug_fatal_invalid_int_type_message
EXTRN	?fn_set_local_entity_raw_int_value@@3PAY0BBH@P6GXPAUENTITY@@W4INT_TYPES@@H@ZA:BYTE ; fn_set_local_entity_raw_int_value
EXTRN	?fn_set_local_entity_int_value@@3PAY0BBH@P6GXPAUENTITY@@W4INT_TYPES@@H@ZA:BYTE ; fn_set_local_entity_int_value
EXTRN	?fn_set_client_server_entity_int_value@@3PAY1BBH@1P6GXPAUENTITY@@W4INT_TYPES@@H@ZA:BYTE ; fn_set_client_server_entity_int_value
EXTRN	?fn_get_local_entity_int_value@@3PAY0BBH@P6GHPAUENTITY@@W4INT_TYPES@@@ZA:BYTE ; fn_get_local_entity_int_value
EXTRN	?entities@@3PAUENTITY@@A:DWORD			; entities
;	COMDAT ?__LINE__Var@?0??get_local_int_value@@YGHPAUENTITY@@W4INT_TYPES@@@Z@4JA
_DATA	SEGMENT
?__LINE__Var@?0??get_local_int_value@@YGHPAUENTITY@@W4INT_TYPES@@@Z@4JA DD 0deH ; `get_local_int_value'::`1'::__LINE__Var
_DATA	ENDS
;	COMDAT ?__LINE__Var@?0??set_client_int_value@@YGXPAUENTITY@@W4INT_TYPES@@H@Z@4JA
_DATA	SEGMENT
?__LINE__Var@?0??set_client_int_value@@YGXPAUENTITY@@W4INT_TYPES@@H@Z@4JA DD 0caH ; `set_client_int_value'::`1'::__LINE__Var
_DATA	ENDS
;	COMDAT ??_C@_0CC@BNNNEGEG@assert_client_server_remote_fn?5@
CONST	SEGMENT
??_C@_0CC@BNNNEGEG@assert_client_server_remote_fn?5@ DB 'assert_client_se'
	DB	'rver_remote_fn ()', 00H			; `string'
CONST	ENDS
;	COMDAT ??_C@_0CB@CFOCLFOK@assert_client_server_local_fn?5?$CI@
CONST	SEGMENT
??_C@_0CB@CFOCLFOK@assert_client_server_local_fn?5?$CI@ DB 'assert_client'
	DB	'_server_local_fn ()', 00H			; `string'
CONST	ENDS
;	COMDAT ?__LINE__Var@?0??set_server_int_value@@YGXPAUENTITY@@W4INT_TYPES@@H@Z@4JA
_DATA	SEGMENT
?__LINE__Var@?0??set_server_int_value@@YGXPAUENTITY@@W4INT_TYPES@@H@Z@4JA DD 0bbH ; `set_server_int_value'::`1'::__LINE__Var
_DATA	ENDS
;	COMDAT ??_C@_0EK@JHGABAHB@c?3?2users?2nhv90?2projects?2eech?2ap@
CONST	SEGMENT
??_C@_0EK@JHGABAHB@c?3?2users?2nhv90?2projects?2eech?2ap@ DB 'c:\users\nh'
	DB	'v90\projects\eech\aphavoc\source\entity\special\pilot\pi_int.'
	DB	'c', 00H					; `string'
CONST	ENDS
;	COMDAT ?__LINE__Var@?0??set_local_int_value@@YGXPAUENTITY@@W4INT_TYPES@@H@Z@4JA
_DATA	SEGMENT
?__LINE__Var@?0??set_local_int_value@@YGXPAUENTITY@@W4INT_TYPES@@H@Z@4JA DD 050H ; `set_local_int_value'::`1'::__LINE__Var
_DATA	ENDS
; Function compile flags: /Odtp /ZI
; File c:\users\nhv90\projects\eech\aphavoc\source\entity\special\pilot\pi_int.c
;	COMDAT ?get_local_int_value@@YGHPAUENTITY@@W4INT_TYPES@@@Z
_TEXT	SEGMENT
tv92 = -76						; size = 4
tv65 = -76						; size = 4
_value$ = -8						; size = 4
_raw$ = -4						; size = 4
_en$ = 8						; size = 4
_type$ = 12						; size = 4
?get_local_int_value@@YGHPAUENTITY@@W4INT_TYPES@@@Z PROC ; get_local_int_value, COMDAT

; 222  : {

  00000	55		 push	 ebp
  00001	8b ec		 mov	 ebp, esp
  00003	83 ec 4c	 sub	 esp, 76			; 0000004cH
  00006	53		 push	 ebx
  00007	56		 push	 esi
  00008	57		 push	 edi

; 223  : 	pilot
; 224  : 		*raw;
; 225  : 
; 226  : 	int
; 227  : 		value;
; 228  : 
; 229  : 	raw = (pilot *) get_local_entity_data (en);

  00009	8b 45 08	 mov	 eax, DWORD PTR _en$[ebp]
  0000c	8b 48 04	 mov	 ecx, DWORD PTR [eax+4]
  0000f	89 4d fc	 mov	 DWORD PTR _raw$[ebp], ecx

; 230  : 
; 231  : 	switch (type)

  00012	8b 45 0c	 mov	 eax, DWORD PTR _type$[ebp]
  00015	89 45 b4	 mov	 DWORD PTR tv65[ebp], eax
  00018	8b 4d b4	 mov	 ecx, DWORD PTR tv65[ebp]
  0001b	83 e9 23	 sub	 ecx, 35			; 00000023H
  0001e	89 4d b4	 mov	 DWORD PTR tv65[ebp], ecx
  00021	81 7d b4 ca 00
	00 00		 cmp	 DWORD PTR tv65[ebp], 202 ; 000000caH
  00028	0f 87 8a 00 00
	00		 ja	 $LN11@get_local_
  0002e	8b 55 b4	 mov	 edx, DWORD PTR tv65[ebp]
  00031	0f b6 82 00 00
	00 00		 movzx	 eax, BYTE PTR $LN15@get_local_[edx]
  00038	ff 24 85 00 00
	00 00		 jmp	 DWORD PTR $LN16@get_local_[eax*4]
$LN4@get_local_:

; 232  : 	{
; 233  : 		////////////////////////////////////////
; 234  : 		case INT_TYPE_CREW_ROLE:
; 235  : 		////////////////////////////////////////
; 236  : 		{
; 237  : 			value = raw->crew_role;

  0003f	8b 45 fc	 mov	 eax, DWORD PTR _raw$[ebp]
  00042	8b 88 14 01 00
	00		 mov	 ecx, DWORD PTR [eax+276]
  00048	89 4d f8	 mov	 DWORD PTR _value$[ebp], ecx

; 238  : 
; 239  : 			break;

  0004b	e9 da 00 00 00	 jmp	 $LN2@get_local_
$LN5@get_local_:

; 240  : 		}
; 241  : 		////////////////////////////////////////
; 242  : 		case INT_TYPE_DIFFICULTY_LEVEL:
; 243  : 		////////////////////////////////////////
; 244  : 		{
; 245  : 			value = raw->difficulty_level;

  00050	8b 45 fc	 mov	 eax, DWORD PTR _raw$[ebp]
  00053	8b 88 40 01 00
	00		 mov	 ecx, DWORD PTR [eax+320]
  00059	c1 e9 02	 shr	 ecx, 2
  0005c	83 e1 03	 and	 ecx, 3
  0005f	89 4d f8	 mov	 DWORD PTR _value$[ebp], ecx

; 246  : 
; 247  : 			break;

  00062	e9 c3 00 00 00	 jmp	 $LN2@get_local_
$LN6@get_local_:

; 248  : 		}
; 249  : 		////////////////////////////////////////
; 250  : 		case INT_TYPE_ENTITY_SUB_TYPE:
; 251  : 		////////////////////////////////////////
; 252  : 		{
; 253  : 			value = raw->sub_type;

  00067	8b 45 fc	 mov	 eax, DWORD PTR _raw$[ebp]
  0006a	8b 08		 mov	 ecx, DWORD PTR [eax]
  0006c	89 4d f8	 mov	 DWORD PTR _value$[ebp], ecx

; 254  : 
; 255  : 			break;

  0006f	e9 b6 00 00 00	 jmp	 $LN2@get_local_
$LN7@get_local_:

; 256  : 		}
; 257  : 		////////////////////////////////////////
; 258  : 		case INT_TYPE_KILLS:
; 259  : 		////////////////////////////////////////
; 260  : 		{
; 261  : 			value = raw->kills;

  00074	8b 45 fc	 mov	 eax, DWORD PTR _raw$[ebp]
  00077	8b 88 0c 01 00
	00		 mov	 ecx, DWORD PTR [eax+268]
  0007d	89 4d f8	 mov	 DWORD PTR _value$[ebp], ecx

; 262  : 
; 263  : 			break;

  00080	e9 a5 00 00 00	 jmp	 $LN2@get_local_
$LN8@get_local_:

; 264  : 		}
; 265  : 		////////////////////////////////////////
; 266  : 		case INT_TYPE_PILOT_RANK:
; 267  : 		////////////////////////////////////////
; 268  : 		{
; 269  : 			value = raw->rank;

  00085	8b 45 fc	 mov	 eax, DWORD PTR _raw$[ebp]
  00088	8b 88 08 01 00
	00		 mov	 ecx, DWORD PTR [eax+264]
  0008e	89 4d f8	 mov	 DWORD PTR _value$[ebp], ecx

; 270  : 
; 271  : 			break;

  00091	e9 94 00 00 00	 jmp	 $LN2@get_local_
$LN9@get_local_:

; 272  : 		}
; 273  : 		////////////////////////////////////////
; 274  : 		case INT_TYPE_SIDE:
; 275  : 		////////////////////////////////////////
; 276  : 		{
; 277  : 			value = raw->side;

  00096	8b 45 fc	 mov	 eax, DWORD PTR _raw$[ebp]
  00099	8b 88 40 01 00
	00		 mov	 ecx, DWORD PTR [eax+320]
  0009f	83 e1 03	 and	 ecx, 3
  000a2	89 4d f8	 mov	 DWORD PTR _value$[ebp], ecx

; 278  : 
; 279  : 			break;

  000a5	e9 80 00 00 00	 jmp	 $LN2@get_local_
$LN10@get_local_:

; 280  : 		}
; 281  : 		////////////////////////////////////////
; 282  : 		case INT_TYPE_UNIQUE_ID:
; 283  : 		////////////////////////////////////////
; 284  : 		{
; 285  : 			value = raw->unique_id;

  000aa	8b 45 fc	 mov	 eax, DWORD PTR _raw$[ebp]
  000ad	8b 88 10 01 00
	00		 mov	 ecx, DWORD PTR [eax+272]
  000b3	89 4d f8	 mov	 DWORD PTR _value$[ebp], ecx

; 286  : 
; 287  : 			break;

  000b6	eb 72		 jmp	 SHORT $LN2@get_local_
$LN11@get_local_:

; 288  : 		}
; 289  : 		////////////////////////////////////////
; 290  : 		default:
; 291  : 		////////////////////////////////////////
; 292  : 		{
; 293  : 			debug_fatal_invalid_int_type (en, type);

  000b8	83 7d 08 00	 cmp	 DWORD PTR _en$[ebp], 0
  000bc	74 0a		 je	 SHORT $LN13@get_local_
  000be	8b 45 08	 mov	 eax, DWORD PTR _en$[ebp]
  000c1	8b 08		 mov	 ecx, DWORD PTR [eax]
  000c3	89 4d b4	 mov	 DWORD PTR tv92[ebp], ecx
  000c6	eb 21		 jmp	 SHORT $LN14@get_local_
$LN13@get_local_:
  000c8	8b 15 00 00 00
	00		 mov	 edx, DWORD PTR ?__LINE__Var@?0??get_local_int_value@@YGHPAUENTITY@@W4INT_TYPES@@@Z@4JA
  000ce	83 c2 47	 add	 edx, 71			; 00000047H
  000d1	52		 push	 edx
  000d2	68 00 00 00 00	 push	 OFFSET ??_C@_0EK@JHGABAHB@c?3?2users?2nhv90?2projects?2eech?2ap@
  000d7	a1 00 00 00 00	 mov	 eax, DWORD PTR ?null_entity_pointer_message@@3PBDB ; null_entity_pointer_message
  000dc	50		 push	 eax
  000dd	e8 00 00 00 00	 call	 ?process_assert@@YGXPBD0H@Z ; process_assert
  000e2	c7 45 b4 00 00
	00 00		 mov	 DWORD PTR tv92[ebp], 0
$LN14@get_local_:
  000e9	8b 0d 00 00 00
	00		 mov	 ecx, DWORD PTR ?__LINE__Var@?0??get_local_int_value@@YGHPAUENTITY@@W4INT_TYPES@@@Z@4JA
  000ef	83 c1 47	 add	 ecx, 71			; 00000047H
  000f2	51		 push	 ecx
  000f3	68 00 00 00 00	 push	 OFFSET ??_C@_0EK@JHGABAHB@c?3?2users?2nhv90?2projects?2eech?2ap@
  000f8	6b 55 0c 14	 imul	 edx, DWORD PTR _type$[ebp], 20
  000fc	8b 82 00 00 00
	00		 mov	 eax, DWORD PTR ?int_type_database@@3PAUINT_TYPE_DATA@@A[edx]
  00102	50		 push	 eax
  00103	8b 4d 08	 mov	 ecx, DWORD PTR _en$[ebp]
  00106	2b 0d 00 00 00
	00		 sub	 ecx, DWORD PTR ?entities@@3PAUENTITY@@A ; entities
  0010c	c1 f9 04	 sar	 ecx, 4
  0010f	51		 push	 ecx
  00110	6b 55 b4 0c	 imul	 edx, DWORD PTR tv92[ebp], 12
  00114	8b 82 00 00 00
	00		 mov	 eax, DWORD PTR ?entity_type_database@@3PAUENTITY_TYPE_DATA@@A[edx]
  0011a	50		 push	 eax
  0011b	8b 0d 00 00 00
	00		 mov	 ecx, DWORD PTR ?debug_fatal_invalid_int_type_message@@3PBDB ; debug_fatal_invalid_int_type_message
  00121	51		 push	 ecx
  00122	e8 00 00 00 00	 call	 ?debug_fatal@@YAXPBDZZ	; debug_fatal
  00127	83 c4 18	 add	 esp, 24			; 00000018H
$LN2@get_local_:

; 294  : 
; 295  : 			break;
; 296  : 		}
; 297  : 	}
; 298  : 
; 299  : 	return (value);

  0012a	8b 45 f8	 mov	 eax, DWORD PTR _value$[ebp]

; 300  : }

  0012d	5f		 pop	 edi
  0012e	5e		 pop	 esi
  0012f	5b		 pop	 ebx
  00130	8b e5		 mov	 esp, ebp
  00132	5d		 pop	 ebp
  00133	c2 08 00	 ret	 8
  00136	66 90		 npad	 2
$LN16@get_local_:
  00138	00 00 00 00	 DD	 $LN4@get_local_
  0013c	00 00 00 00	 DD	 $LN5@get_local_
  00140	00 00 00 00	 DD	 $LN6@get_local_
  00144	00 00 00 00	 DD	 $LN7@get_local_
  00148	00 00 00 00	 DD	 $LN8@get_local_
  0014c	00 00 00 00	 DD	 $LN9@get_local_
  00150	00 00 00 00	 DD	 $LN10@get_local_
  00154	00 00 00 00	 DD	 $LN11@get_local_
$LN15@get_local_:
  00158	00		 DB	 0
  00159	07		 DB	 7
  0015a	07		 DB	 7
  0015b	07		 DB	 7
  0015c	07		 DB	 7
  0015d	07		 DB	 7
  0015e	07		 DB	 7
  0015f	07		 DB	 7
  00160	07		 DB	 7
  00161	07		 DB	 7
  00162	07		 DB	 7
  00163	07		 DB	 7
  00164	01		 DB	 1
  00165	07		 DB	 7
  00166	07		 DB	 7
  00167	07		 DB	 7
  00168	07		 DB	 7
  00169	02		 DB	 2
  0016a	07		 DB	 7
  0016b	07		 DB	 7
  0016c	07		 DB	 7
  0016d	07		 DB	 7
  0016e	07		 DB	 7
  0016f	07		 DB	 7
  00170	07		 DB	 7
  00171	07		 DB	 7
  00172	07		 DB	 7
  00173	07		 DB	 7
  00174	07		 DB	 7
  00175	07		 DB	 7
  00176	07		 DB	 7
  00177	07		 DB	 7
  00178	07		 DB	 7
  00179	07		 DB	 7
  0017a	07		 DB	 7
  0017b	07		 DB	 7
  0017c	07		 DB	 7
  0017d	07		 DB	 7
  0017e	07		 DB	 7
  0017f	07		 DB	 7
  00180	07		 DB	 7
  00181	07		 DB	 7
  00182	07		 DB	 7
  00183	07		 DB	 7
  00184	07		 DB	 7
  00185	07		 DB	 7
  00186	07		 DB	 7
  00187	07		 DB	 7
  00188	07		 DB	 7
  00189	07		 DB	 7
  0018a	07		 DB	 7
  0018b	07		 DB	 7
  0018c	07		 DB	 7
  0018d	07		 DB	 7
  0018e	07		 DB	 7
  0018f	07		 DB	 7
  00190	07		 DB	 7
  00191	07		 DB	 7
  00192	07		 DB	 7
  00193	07		 DB	 7
  00194	07		 DB	 7
  00195	07		 DB	 7
  00196	07		 DB	 7
  00197	07		 DB	 7
  00198	07		 DB	 7
  00199	07		 DB	 7
  0019a	07		 DB	 7
  0019b	07		 DB	 7
  0019c	07		 DB	 7
  0019d	07		 DB	 7
  0019e	07		 DB	 7
  0019f	07		 DB	 7
  001a0	07		 DB	 7
  001a1	07		 DB	 7
  001a2	07		 DB	 7
  001a3	07		 DB	 7
  001a4	07		 DB	 7
  001a5	07		 DB	 7
  001a6	07		 DB	 7
  001a7	03		 DB	 3
  001a8	07		 DB	 7
  001a9	07		 DB	 7
  001aa	07		 DB	 7
  001ab	07		 DB	 7
  001ac	07		 DB	 7
  001ad	07		 DB	 7
  001ae	07		 DB	 7
  001af	07		 DB	 7
  001b0	07		 DB	 7
  001b1	07		 DB	 7
  001b2	07		 DB	 7
  001b3	07		 DB	 7
  001b4	07		 DB	 7
  001b5	07		 DB	 7
  001b6	07		 DB	 7
  001b7	07		 DB	 7
  001b8	07		 DB	 7
  001b9	07		 DB	 7
  001ba	07		 DB	 7
  001bb	07		 DB	 7
  001bc	07		 DB	 7
  001bd	07		 DB	 7
  001be	07		 DB	 7
  001bf	07		 DB	 7
  001c0	07		 DB	 7
  001c1	07		 DB	 7
  001c2	07		 DB	 7
  001c3	07		 DB	 7
  001c4	07		 DB	 7
  001c5	07		 DB	 7
  001c6	07		 DB	 7
  001c7	07		 DB	 7
  001c8	07		 DB	 7
  001c9	07		 DB	 7
  001ca	07		 DB	 7
  001cb	07		 DB	 7
  001cc	07		 DB	 7
  001cd	07		 DB	 7
  001ce	07		 DB	 7
  001cf	04		 DB	 4
  001d0	07		 DB	 7
  001d1	07		 DB	 7
  001d2	07		 DB	 7
  001d3	07		 DB	 7
  001d4	07		 DB	 7
  001d5	07		 DB	 7
  001d6	07		 DB	 7
  001d7	07		 DB	 7
  001d8	07		 DB	 7
  001d9	07		 DB	 7
  001da	07		 DB	 7
  001db	07		 DB	 7
  001dc	07		 DB	 7
  001dd	07		 DB	 7
  001de	07		 DB	 7
  001df	07		 DB	 7
  001e0	07		 DB	 7
  001e1	07		 DB	 7
  001e2	07		 DB	 7
  001e3	07		 DB	 7
  001e4	07		 DB	 7
  001e5	07		 DB	 7
  001e6	07		 DB	 7
  001e7	07		 DB	 7
  001e8	07		 DB	 7
  001e9	07		 DB	 7
  001ea	07		 DB	 7
  001eb	07		 DB	 7
  001ec	07		 DB	 7
  001ed	07		 DB	 7
  001ee	07		 DB	 7
  001ef	07		 DB	 7
  001f0	05		 DB	 5
  001f1	07		 DB	 7
  001f2	07		 DB	 7
  001f3	07		 DB	 7
  001f4	07		 DB	 7
  001f5	07		 DB	 7
  001f6	07		 DB	 7
  001f7	07		 DB	 7
  001f8	07		 DB	 7
  001f9	07		 DB	 7
  001fa	07		 DB	 7
  001fb	07		 DB	 7
  001fc	07		 DB	 7
  001fd	07		 DB	 7
  001fe	07		 DB	 7
  001ff	07		 DB	 7
  00200	07		 DB	 7
  00201	07		 DB	 7
  00202	07		 DB	 7
  00203	07		 DB	 7
  00204	07		 DB	 7
  00205	07		 DB	 7
  00206	07		 DB	 7
  00207	07		 DB	 7
  00208	07		 DB	 7
  00209	07		 DB	 7
  0020a	07		 DB	 7
  0020b	07		 DB	 7
  0020c	07		 DB	 7
  0020d	07		 DB	 7
  0020e	07		 DB	 7
  0020f	07		 DB	 7
  00210	07		 DB	 7
  00211	07		 DB	 7
  00212	07		 DB	 7
  00213	07		 DB	 7
  00214	07		 DB	 7
  00215	07		 DB	 7
  00216	07		 DB	 7
  00217	07		 DB	 7
  00218	07		 DB	 7
  00219	07		 DB	 7
  0021a	07		 DB	 7
  0021b	07		 DB	 7
  0021c	07		 DB	 7
  0021d	07		 DB	 7
  0021e	07		 DB	 7
  0021f	07		 DB	 7
  00220	07		 DB	 7
  00221	07		 DB	 7
  00222	06		 DB	 6
?get_local_int_value@@YGHPAUENTITY@@W4INT_TYPES@@@Z ENDP ; get_local_int_value
_TEXT	ENDS
; Function compile flags: /Odtp /ZI
; File c:\users\nhv90\projects\eech\aphavoc\source\entity\special\pilot\pi_int.c
;	COMDAT ?set_client_int_value@@YGXPAUENTITY@@W4INT_TYPES@@H@Z
_TEXT	SEGMENT
_en$ = 8						; size = 4
_type$ = 12						; size = 4
_value$ = 16						; size = 4
?set_client_int_value@@YGXPAUENTITY@@W4INT_TYPES@@H@Z PROC ; set_client_int_value, COMDAT

; 202  : {

  00000	55		 push	 ebp
  00001	8b ec		 mov	 ebp, esp
  00003	83 ec 40	 sub	 esp, 64			; 00000040H
  00006	53		 push	 ebx
  00007	56		 push	 esi
  00008	57		 push	 edi

; 203  : 	if (get_comms_data_flow () == COMMS_DATA_FLOW_TX)

  00009	83 3d 00 00 00
	00 00		 cmp	 DWORD PTR ?system_comms_data_flow@@3W4COMMS_DATA_FLOW_TYPES@@A, 0 ; system_comms_data_flow
  00010	75 34		 jne	 SHORT $LN2@set_client

; 204  : 	{
; 205  : 		validate_client_server_remote_fn ();

  00012	e8 00 00 00 00	 call	 ?assert_client_server_remote_fn@@YGHXZ ; assert_client_server_remote_fn
  00017	85 c0		 test	 eax, eax
  00019	75 18		 jne	 SHORT $LN4@set_client
  0001b	a1 00 00 00 00	 mov	 eax, DWORD PTR ?__LINE__Var@?0??set_client_int_value@@YGXPAUENTITY@@W4INT_TYPES@@H@Z@4JA
  00020	83 c0 03	 add	 eax, 3
  00023	50		 push	 eax
  00024	68 00 00 00 00	 push	 OFFSET ??_C@_0EK@JHGABAHB@c?3?2users?2nhv90?2projects?2eech?2ap@
  00029	68 00 00 00 00	 push	 OFFSET ??_C@_0CC@BNNNEGEG@assert_client_server_remote_fn?5@
  0002e	e8 00 00 00 00	 call	 ?process_assert@@YGXPBD0H@Z ; process_assert
$LN4@set_client:

; 206  : 
; 207  : 		set_remote_int_value (en, type, value);

  00033	8b 45 10	 mov	 eax, DWORD PTR _value$[ebp]
  00036	50		 push	 eax
  00037	8b 4d 0c	 mov	 ecx, DWORD PTR _type$[ebp]
  0003a	51		 push	 ecx
  0003b	8b 55 08	 mov	 edx, DWORD PTR _en$[ebp]
  0003e	52		 push	 edx
  0003f	e8 00 00 00 00	 call	 ?set_remote_int_value@@YGXPAUENTITY@@W4INT_TYPES@@H@Z ; set_remote_int_value

; 208  : 	}
; 209  : 	else

  00044	eb 32		 jmp	 SHORT $LN1@set_client
$LN2@set_client:

; 210  : 	{
; 211  : 		validate_client_server_local_fn ();

  00046	e8 00 00 00 00	 call	 ?assert_client_server_local_fn@@YGHXZ ; assert_client_server_local_fn
  0004b	85 c0		 test	 eax, eax
  0004d	75 18		 jne	 SHORT $LN5@set_client
  0004f	a1 00 00 00 00	 mov	 eax, DWORD PTR ?__LINE__Var@?0??set_client_int_value@@YGXPAUENTITY@@W4INT_TYPES@@H@Z@4JA
  00054	83 c0 09	 add	 eax, 9
  00057	50		 push	 eax
  00058	68 00 00 00 00	 push	 OFFSET ??_C@_0EK@JHGABAHB@c?3?2users?2nhv90?2projects?2eech?2ap@
  0005d	68 00 00 00 00	 push	 OFFSET ??_C@_0CB@CFOCLFOK@assert_client_server_local_fn?5?$CI@
  00062	e8 00 00 00 00	 call	 ?process_assert@@YGXPBD0H@Z ; process_assert
$LN5@set_client:

; 212  : 
; 213  : 		set_local_int_value (en, type, value);

  00067	8b 45 10	 mov	 eax, DWORD PTR _value$[ebp]
  0006a	50		 push	 eax
  0006b	8b 4d 0c	 mov	 ecx, DWORD PTR _type$[ebp]
  0006e	51		 push	 ecx
  0006f	8b 55 08	 mov	 edx, DWORD PTR _en$[ebp]
  00072	52		 push	 edx
  00073	e8 00 00 00 00	 call	 ?set_local_int_value@@YGXPAUENTITY@@W4INT_TYPES@@H@Z ; set_local_int_value
$LN1@set_client:

; 214  : 	}
; 215  : }

  00078	5f		 pop	 edi
  00079	5e		 pop	 esi
  0007a	5b		 pop	 ebx
  0007b	8b e5		 mov	 esp, ebp
  0007d	5d		 pop	 ebp
  0007e	c2 0c 00	 ret	 12			; 0000000cH
?set_client_int_value@@YGXPAUENTITY@@W4INT_TYPES@@H@Z ENDP ; set_client_int_value
_TEXT	ENDS
; Function compile flags: /Odtp /ZI
; File c:\users\nhv90\projects\eech\aphavoc\source\entity\special\pilot\pi_int.c
;	COMDAT ?set_server_int_value@@YGXPAUENTITY@@W4INT_TYPES@@H@Z
_TEXT	SEGMENT
_en$ = 8						; size = 4
_type$ = 12						; size = 4
_value$ = 16						; size = 4
?set_server_int_value@@YGXPAUENTITY@@W4INT_TYPES@@H@Z PROC ; set_server_int_value, COMDAT

; 187  : {

  00000	55		 push	 ebp
  00001	8b ec		 mov	 ebp, esp
  00003	83 ec 40	 sub	 esp, 64			; 00000040H
  00006	53		 push	 ebx
  00007	56		 push	 esi
  00008	57		 push	 edi

; 188  : 	validate_client_server_local_fn ();

  00009	e8 00 00 00 00	 call	 ?assert_client_server_local_fn@@YGHXZ ; assert_client_server_local_fn
  0000e	85 c0		 test	 eax, eax
  00010	75 18		 jne	 SHORT $LN2@set_server
  00012	a1 00 00 00 00	 mov	 eax, DWORD PTR ?__LINE__Var@?0??set_server_int_value@@YGXPAUENTITY@@W4INT_TYPES@@H@Z@4JA
  00017	83 c0 01	 add	 eax, 1
  0001a	50		 push	 eax
  0001b	68 00 00 00 00	 push	 OFFSET ??_C@_0EK@JHGABAHB@c?3?2users?2nhv90?2projects?2eech?2ap@
  00020	68 00 00 00 00	 push	 OFFSET ??_C@_0CB@CFOCLFOK@assert_client_server_local_fn?5?$CI@
  00025	e8 00 00 00 00	 call	 ?process_assert@@YGXPBD0H@Z ; process_assert
$LN2@set_server:

; 189  : 
; 190  : 	set_local_int_value (en, type, value);

  0002a	8b 45 10	 mov	 eax, DWORD PTR _value$[ebp]
  0002d	50		 push	 eax
  0002e	8b 4d 0c	 mov	 ecx, DWORD PTR _type$[ebp]
  00031	51		 push	 ecx
  00032	8b 55 08	 mov	 edx, DWORD PTR _en$[ebp]
  00035	52		 push	 edx
  00036	e8 00 00 00 00	 call	 ?set_local_int_value@@YGXPAUENTITY@@W4INT_TYPES@@H@Z ; set_local_int_value

; 191  : 
; 192  : 	validate_client_server_remote_fn ();

  0003b	e8 00 00 00 00	 call	 ?assert_client_server_remote_fn@@YGHXZ ; assert_client_server_remote_fn
  00040	85 c0		 test	 eax, eax
  00042	75 18		 jne	 SHORT $LN3@set_server
  00044	a1 00 00 00 00	 mov	 eax, DWORD PTR ?__LINE__Var@?0??set_server_int_value@@YGXPAUENTITY@@W4INT_TYPES@@H@Z@4JA
  00049	83 c0 05	 add	 eax, 5
  0004c	50		 push	 eax
  0004d	68 00 00 00 00	 push	 OFFSET ??_C@_0EK@JHGABAHB@c?3?2users?2nhv90?2projects?2eech?2ap@
  00052	68 00 00 00 00	 push	 OFFSET ??_C@_0CC@BNNNEGEG@assert_client_server_remote_fn?5@
  00057	e8 00 00 00 00	 call	 ?process_assert@@YGXPBD0H@Z ; process_assert
$LN3@set_server:

; 193  : 
; 194  : 	set_remote_int_value (en, type, value);

  0005c	8b 45 10	 mov	 eax, DWORD PTR _value$[ebp]
  0005f	50		 push	 eax
  00060	8b 4d 0c	 mov	 ecx, DWORD PTR _type$[ebp]
  00063	51		 push	 ecx
  00064	8b 55 08	 mov	 edx, DWORD PTR _en$[ebp]
  00067	52		 push	 edx
  00068	e8 00 00 00 00	 call	 ?set_remote_int_value@@YGXPAUENTITY@@W4INT_TYPES@@H@Z ; set_remote_int_value

; 195  : }

  0006d	5f		 pop	 edi
  0006e	5e		 pop	 esi
  0006f	5b		 pop	 ebx
  00070	8b e5		 mov	 esp, ebp
  00072	5d		 pop	 ebp
  00073	c2 0c 00	 ret	 12			; 0000000cH
?set_server_int_value@@YGXPAUENTITY@@W4INT_TYPES@@H@Z ENDP ; set_server_int_value
_TEXT	ENDS
; Function compile flags: /Odtp /ZI
; File c:\users\nhv90\projects\eech\aphavoc\source\entity\special\pilot\pi_int.c
;	COMDAT ?set_remote_int_value@@YGXPAUENTITY@@W4INT_TYPES@@H@Z
_TEXT	SEGMENT
_en$ = 8						; size = 4
_type$ = 12						; size = 4
_value$ = 16						; size = 4
?set_remote_int_value@@YGXPAUENTITY@@W4INT_TYPES@@H@Z PROC ; set_remote_int_value, COMDAT

; 172  : {

  00000	55		 push	 ebp
  00001	8b ec		 mov	 ebp, esp
  00003	83 ec 40	 sub	 esp, 64			; 00000040H
  00006	53		 push	 ebx
  00007	56		 push	 esi
  00008	57		 push	 edi

; 173  : 	#if DEBUG_MODULE
; 174  : 
; 175  : 	debug_log_entity_args (ENTITY_DEBUG_REMOTE, ENTITY_DEBUG_INT_VALUE, en, type, value);
; 176  : 
; 177  : 	#endif
; 178  : 
; 179  : 	transmit_entity_comms_message (ENTITY_COMMS_INT_VALUE, en, type, value);

  00009	8b 45 10	 mov	 eax, DWORD PTR _value$[ebp]
  0000c	50		 push	 eax
  0000d	8b 4d 0c	 mov	 ecx, DWORD PTR _type$[ebp]
  00010	51		 push	 ecx
  00011	8b 55 08	 mov	 edx, DWORD PTR _en$[ebp]
  00014	52		 push	 edx
  00015	6a 17		 push	 23			; 00000017H
  00017	e8 00 00 00 00	 call	 ?transmit_entity_comms_message@@YAXW4ENTITY_COMMS_MESSAGES@@PAUENTITY@@ZZ ; transmit_entity_comms_message
  0001c	83 c4 10	 add	 esp, 16			; 00000010H

; 180  : }

  0001f	5f		 pop	 edi
  00020	5e		 pop	 esi
  00021	5b		 pop	 ebx
  00022	8b e5		 mov	 esp, ebp
  00024	5d		 pop	 ebp
  00025	c2 0c 00	 ret	 12			; 0000000cH
?set_remote_int_value@@YGXPAUENTITY@@W4INT_TYPES@@H@Z ENDP ; set_remote_int_value
_TEXT	ENDS
; Function compile flags: /Odtp /ZI
; File c:\users\nhv90\projects\eech\aphavoc\source\entity\special\pilot\pi_int.c
;	COMDAT ?set_local_int_value@@YGXPAUENTITY@@W4INT_TYPES@@H@Z
_TEXT	SEGMENT
tv130 = -72						; size = 4
tv65 = -72						; size = 4
_raw$ = -4						; size = 4
_en$ = 8						; size = 4
_type$ = 12						; size = 4
_value$ = 16						; size = 4
?set_local_int_value@@YGXPAUENTITY@@W4INT_TYPES@@H@Z PROC ; set_local_int_value, COMDAT

; 80   : {

  00000	55		 push	 ebp
  00001	8b ec		 mov	 ebp, esp
  00003	83 ec 48	 sub	 esp, 72			; 00000048H
  00006	53		 push	 ebx
  00007	56		 push	 esi
  00008	57		 push	 edi

; 81   : 	pilot
; 82   : 		*raw;
; 83   : 
; 84   : 	#if DEBUG_MODULE
; 85   : 
; 86   : 	debug_log_entity_args (ENTITY_DEBUG_LOCAL, ENTITY_DEBUG_INT_VALUE, en, type, value);
; 87   : 
; 88   : 	#endif
; 89   : 
; 90   : 	raw = (pilot *) get_local_entity_data (en);

  00009	8b 45 08	 mov	 eax, DWORD PTR _en$[ebp]
  0000c	8b 48 04	 mov	 ecx, DWORD PTR [eax+4]
  0000f	89 4d fc	 mov	 DWORD PTR _raw$[ebp], ecx

; 91   : 
; 92   : 	switch (type)

  00012	8b 45 0c	 mov	 eax, DWORD PTR _type$[ebp]
  00015	89 45 b8	 mov	 DWORD PTR tv65[ebp], eax
  00018	8b 4d b8	 mov	 ecx, DWORD PTR tv65[ebp]
  0001b	83 e9 23	 sub	 ecx, 35			; 00000023H
  0001e	89 4d b8	 mov	 DWORD PTR tv65[ebp], ecx
  00021	81 7d b8 ca 00
	00 00		 cmp	 DWORD PTR tv65[ebp], 202 ; 000000caH
  00028	0f 87 ab 00 00
	00		 ja	 $LN11@set_local_
  0002e	8b 55 b8	 mov	 edx, DWORD PTR tv65[ebp]
  00031	0f b6 82 00 00
	00 00		 movzx	 eax, BYTE PTR $LN15@set_local_[edx]
  00038	ff 24 85 00 00
	00 00		 jmp	 DWORD PTR $LN16@set_local_[eax*4]
$LN4@set_local_:

; 93   : 	{
; 94   : 		////////////////////////////////////////
; 95   : 		case INT_TYPE_CREW_ROLE:
; 96   : 		////////////////////////////////////////
; 97   : 		{
; 98   : 			raw->crew_role = (crew_roles) value;

  0003f	8b 45 fc	 mov	 eax, DWORD PTR _raw$[ebp]
  00042	8b 4d 10	 mov	 ecx, DWORD PTR _value$[ebp]
  00045	89 88 14 01 00
	00		 mov	 DWORD PTR [eax+276], ecx

; 99   : 
; 100  : 			break;

  0004b	e9 fb 00 00 00	 jmp	 $LN1@set_local_
$LN5@set_local_:

; 101  : 		}
; 102  : 		////////////////////////////////////////
; 103  : 		case INT_TYPE_DIFFICULTY_LEVEL:
; 104  : 		////////////////////////////////////////
; 105  : 		{
; 106  : 			raw->difficulty_level = value;

  00050	8b 45 10	 mov	 eax, DWORD PTR _value$[ebp]
  00053	83 e0 03	 and	 eax, 3
  00056	c1 e0 02	 shl	 eax, 2
  00059	8b 4d fc	 mov	 ecx, DWORD PTR _raw$[ebp]
  0005c	8b 91 40 01 00
	00		 mov	 edx, DWORD PTR [ecx+320]
  00062	83 e2 f3	 and	 edx, -13		; fffffff3H
  00065	0b d0		 or	 edx, eax
  00067	8b 45 fc	 mov	 eax, DWORD PTR _raw$[ebp]
  0006a	89 90 40 01 00
	00		 mov	 DWORD PTR [eax+320], edx

; 107  : 
; 108  : 			break;

  00070	e9 d6 00 00 00	 jmp	 $LN1@set_local_
$LN6@set_local_:

; 109  : 		}
; 110  : 		////////////////////////////////////////
; 111  : 		case INT_TYPE_ENTITY_SUB_TYPE:
; 112  : 		////////////////////////////////////////
; 113  : 		{
; 114  : 			raw->sub_type = value;

  00075	8b 45 fc	 mov	 eax, DWORD PTR _raw$[ebp]
  00078	8b 4d 10	 mov	 ecx, DWORD PTR _value$[ebp]
  0007b	89 08		 mov	 DWORD PTR [eax], ecx

; 115  : 
; 116  : 			break;

  0007d	e9 c9 00 00 00	 jmp	 $LN1@set_local_
$LN7@set_local_:

; 117  : 		}
; 118  : 		////////////////////////////////////////
; 119  : 		case INT_TYPE_KILLS:
; 120  : 		////////////////////////////////////////
; 121  : 		{
; 122  : 			raw->kills = value;

  00082	8b 45 fc	 mov	 eax, DWORD PTR _raw$[ebp]
  00085	8b 4d 10	 mov	 ecx, DWORD PTR _value$[ebp]
  00088	89 88 0c 01 00
	00		 mov	 DWORD PTR [eax+268], ecx

; 123  : 
; 124  : 			//
; 125  : 			// update high score table if deathmatch, and victim was a player gunship
; 126  : 			//
; 127  : 
; 128  : 			update_pilot_high_score_table ();

  0008e	e8 00 00 00 00	 call	 ?update_pilot_high_score_table@@YGHXZ ; update_pilot_high_score_table

; 129  : 
; 130  : 			break;

  00093	e9 b3 00 00 00	 jmp	 $LN1@set_local_
$LN8@set_local_:

; 131  : 		}
; 132  : 		////////////////////////////////////////
; 133  : 		case INT_TYPE_PILOT_RANK:
; 134  : 		////////////////////////////////////////
; 135  : 		{
; 136  : 			raw->rank = value;

  00098	8b 45 fc	 mov	 eax, DWORD PTR _raw$[ebp]
  0009b	8b 4d 10	 mov	 ecx, DWORD PTR _value$[ebp]
  0009e	89 88 08 01 00
	00		 mov	 DWORD PTR [eax+264], ecx

; 137  : 
; 138  : 			break;

  000a4	e9 a2 00 00 00	 jmp	 $LN1@set_local_
$LN9@set_local_:

; 139  : 		}
; 140  : 		////////////////////////////////////////
; 141  : 		case INT_TYPE_SIDE:
; 142  : 		////////////////////////////////////////
; 143  : 		{
; 144  : 			raw->side = value;

  000a9	8b 45 10	 mov	 eax, DWORD PTR _value$[ebp]
  000ac	83 e0 03	 and	 eax, 3
  000af	8b 4d fc	 mov	 ecx, DWORD PTR _raw$[ebp]
  000b2	8b 91 40 01 00
	00		 mov	 edx, DWORD PTR [ecx+320]
  000b8	83 e2 fc	 and	 edx, -4			; fffffffcH
  000bb	0b d0		 or	 edx, eax
  000bd	8b 45 fc	 mov	 eax, DWORD PTR _raw$[ebp]
  000c0	89 90 40 01 00
	00		 mov	 DWORD PTR [eax+320], edx

; 145  : 
; 146  : 			break;

  000c6	e9 80 00 00 00	 jmp	 $LN1@set_local_
$LN10@set_local_:

; 147  : 		}
; 148  : 		////////////////////////////////////////
; 149  : 		case INT_TYPE_UNIQUE_ID:
; 150  : 		////////////////////////////////////////
; 151  : 		{
; 152  : 			raw->unique_id = value;

  000cb	8b 45 fc	 mov	 eax, DWORD PTR _raw$[ebp]
  000ce	8b 4d 10	 mov	 ecx, DWORD PTR _value$[ebp]
  000d1	89 88 10 01 00
	00		 mov	 DWORD PTR [eax+272], ecx

; 153  : 
; 154  : 			break;

  000d7	eb 72		 jmp	 SHORT $LN1@set_local_
$LN11@set_local_:

; 155  : 		}
; 156  : 		////////////////////////////////////////
; 157  : 		default:
; 158  : 		////////////////////////////////////////
; 159  : 		{
; 160  : 			debug_fatal_invalid_int_type (en, type);

  000d9	83 7d 08 00	 cmp	 DWORD PTR _en$[ebp], 0
  000dd	74 0a		 je	 SHORT $LN13@set_local_
  000df	8b 45 08	 mov	 eax, DWORD PTR _en$[ebp]
  000e2	8b 08		 mov	 ecx, DWORD PTR [eax]
  000e4	89 4d b8	 mov	 DWORD PTR tv130[ebp], ecx
  000e7	eb 21		 jmp	 SHORT $LN14@set_local_
$LN13@set_local_:
  000e9	8b 15 00 00 00
	00		 mov	 edx, DWORD PTR ?__LINE__Var@?0??set_local_int_value@@YGXPAUENTITY@@W4INT_TYPES@@H@Z@4JA
  000ef	83 c2 50	 add	 edx, 80			; 00000050H
  000f2	52		 push	 edx
  000f3	68 00 00 00 00	 push	 OFFSET ??_C@_0EK@JHGABAHB@c?3?2users?2nhv90?2projects?2eech?2ap@
  000f8	a1 00 00 00 00	 mov	 eax, DWORD PTR ?null_entity_pointer_message@@3PBDB ; null_entity_pointer_message
  000fd	50		 push	 eax
  000fe	e8 00 00 00 00	 call	 ?process_assert@@YGXPBD0H@Z ; process_assert
  00103	c7 45 b8 00 00
	00 00		 mov	 DWORD PTR tv130[ebp], 0
$LN14@set_local_:
  0010a	8b 0d 00 00 00
	00		 mov	 ecx, DWORD PTR ?__LINE__Var@?0??set_local_int_value@@YGXPAUENTITY@@W4INT_TYPES@@H@Z@4JA
  00110	83 c1 50	 add	 ecx, 80			; 00000050H
  00113	51		 push	 ecx
  00114	68 00 00 00 00	 push	 OFFSET ??_C@_0EK@JHGABAHB@c?3?2users?2nhv90?2projects?2eech?2ap@
  00119	6b 55 0c 14	 imul	 edx, DWORD PTR _type$[ebp], 20
  0011d	8b 82 00 00 00
	00		 mov	 eax, DWORD PTR ?int_type_database@@3PAUINT_TYPE_DATA@@A[edx]
  00123	50		 push	 eax
  00124	8b 4d 08	 mov	 ecx, DWORD PTR _en$[ebp]
  00127	2b 0d 00 00 00
	00		 sub	 ecx, DWORD PTR ?entities@@3PAUENTITY@@A ; entities
  0012d	c1 f9 04	 sar	 ecx, 4
  00130	51		 push	 ecx
  00131	6b 55 b8 0c	 imul	 edx, DWORD PTR tv130[ebp], 12
  00135	8b 82 00 00 00
	00		 mov	 eax, DWORD PTR ?entity_type_database@@3PAUENTITY_TYPE_DATA@@A[edx]
  0013b	50		 push	 eax
  0013c	8b 0d 00 00 00
	00		 mov	 ecx, DWORD PTR ?debug_fatal_invalid_int_type_message@@3PBDB ; debug_fatal_invalid_int_type_message
  00142	51		 push	 ecx
  00143	e8 00 00 00 00	 call	 ?debug_fatal@@YAXPBDZZ	; debug_fatal
  00148	83 c4 18	 add	 esp, 24			; 00000018H
$LN1@set_local_:

; 161  : 
; 162  : 			break;
; 163  : 		}
; 164  : 	}
; 165  : }

  0014b	5f		 pop	 edi
  0014c	5e		 pop	 esi
  0014d	5b		 pop	 ebx
  0014e	8b e5		 mov	 esp, ebp
  00150	5d		 pop	 ebp
  00151	c2 0c 00	 ret	 12			; 0000000cH
$LN16@set_local_:
  00154	00 00 00 00	 DD	 $LN4@set_local_
  00158	00 00 00 00	 DD	 $LN5@set_local_
  0015c	00 00 00 00	 DD	 $LN6@set_local_
  00160	00 00 00 00	 DD	 $LN7@set_local_
  00164	00 00 00 00	 DD	 $LN8@set_local_
  00168	00 00 00 00	 DD	 $LN9@set_local_
  0016c	00 00 00 00	 DD	 $LN10@set_local_
  00170	00 00 00 00	 DD	 $LN11@set_local_
$LN15@set_local_:
  00174	00		 DB	 0
  00175	07		 DB	 7
  00176	07		 DB	 7
  00177	07		 DB	 7
  00178	07		 DB	 7
  00179	07		 DB	 7
  0017a	07		 DB	 7
  0017b	07		 DB	 7
  0017c	07		 DB	 7
  0017d	07		 DB	 7
  0017e	07		 DB	 7
  0017f	07		 DB	 7
  00180	01		 DB	 1
  00181	07		 DB	 7
  00182	07		 DB	 7
  00183	07		 DB	 7
  00184	07		 DB	 7
  00185	02		 DB	 2
  00186	07		 DB	 7
  00187	07		 DB	 7
  00188	07		 DB	 7
  00189	07		 DB	 7
  0018a	07		 DB	 7
  0018b	07		 DB	 7
  0018c	07		 DB	 7
  0018d	07		 DB	 7
  0018e	07		 DB	 7
  0018f	07		 DB	 7
  00190	07		 DB	 7
  00191	07		 DB	 7
  00192	07		 DB	 7
  00193	07		 DB	 7
  00194	07		 DB	 7
  00195	07		 DB	 7
  00196	07		 DB	 7
  00197	07		 DB	 7
  00198	07		 DB	 7
  00199	07		 DB	 7
  0019a	07		 DB	 7
  0019b	07		 DB	 7
  0019c	07		 DB	 7
  0019d	07		 DB	 7
  0019e	07		 DB	 7
  0019f	07		 DB	 7
  001a0	07		 DB	 7
  001a1	07		 DB	 7
  001a2	07		 DB	 7
  001a3	07		 DB	 7
  001a4	07		 DB	 7
  001a5	07		 DB	 7
  001a6	07		 DB	 7
  001a7	07		 DB	 7
  001a8	07		 DB	 7
  001a9	07		 DB	 7
  001aa	07		 DB	 7
  001ab	07		 DB	 7
  001ac	07		 DB	 7
  001ad	07		 DB	 7
  001ae	07		 DB	 7
  001af	07		 DB	 7
  001b0	07		 DB	 7
  001b1	07		 DB	 7
  001b2	07		 DB	 7
  001b3	07		 DB	 7
  001b4	07		 DB	 7
  001b5	07		 DB	 7
  001b6	07		 DB	 7
  001b7	07		 DB	 7
  001b8	07		 DB	 7
  001b9	07		 DB	 7
  001ba	07		 DB	 7
  001bb	07		 DB	 7
  001bc	07		 DB	 7
  001bd	07		 DB	 7
  001be	07		 DB	 7
  001bf	07		 DB	 7
  001c0	07		 DB	 7
  001c1	07		 DB	 7
  001c2	07		 DB	 7
  001c3	03		 DB	 3
  001c4	07		 DB	 7
  001c5	07		 DB	 7
  001c6	07		 DB	 7
  001c7	07		 DB	 7
  001c8	07		 DB	 7
  001c9	07		 DB	 7
  001ca	07		 DB	 7
  001cb	07		 DB	 7
  001cc	07		 DB	 7
  001cd	07		 DB	 7
  001ce	07		 DB	 7
  001cf	07		 DB	 7
  001d0	07		 DB	 7
  001d1	07		 DB	 7
  001d2	07		 DB	 7
  001d3	07		 DB	 7
  001d4	07		 DB	 7
  001d5	07		 DB	 7
  001d6	07		 DB	 7
  001d7	07		 DB	 7
  001d8	07		 DB	 7
  001d9	07		 DB	 7
  001da	07		 DB	 7
  001db	07		 DB	 7
  001dc	07		 DB	 7
  001dd	07		 DB	 7
  001de	07		 DB	 7
  001df	07		 DB	 7
  001e0	07		 DB	 7
  001e1	07		 DB	 7
  001e2	07		 DB	 7
  001e3	07		 DB	 7
  001e4	07		 DB	 7
  001e5	07		 DB	 7
  001e6	07		 DB	 7
  001e7	07		 DB	 7
  001e8	07		 DB	 7
  001e9	07		 DB	 7
  001ea	07		 DB	 7
  001eb	04		 DB	 4
  001ec	07		 DB	 7
  001ed	07		 DB	 7
  001ee	07		 DB	 7
  001ef	07		 DB	 7
  001f0	07		 DB	 7
  001f1	07		 DB	 7
  001f2	07		 DB	 7
  001f3	07		 DB	 7
  001f4	07		 DB	 7
  001f5	07		 DB	 7
  001f6	07		 DB	 7
  001f7	07		 DB	 7
  001f8	07		 DB	 7
  001f9	07		 DB	 7
  001fa	07		 DB	 7
  001fb	07		 DB	 7
  001fc	07		 DB	 7
  001fd	07		 DB	 7
  001fe	07		 DB	 7
  001ff	07		 DB	 7
  00200	07		 DB	 7
  00201	07		 DB	 7
  00202	07		 DB	 7
  00203	07		 DB	 7
  00204	07		 DB	 7
  00205	07		 DB	 7
  00206	07		 DB	 7
  00207	07		 DB	 7
  00208	07		 DB	 7
  00209	07		 DB	 7
  0020a	07		 DB	 7
  0020b	07		 DB	 7
  0020c	05		 DB	 5
  0020d	07		 DB	 7
  0020e	07		 DB	 7
  0020f	07		 DB	 7
  00210	07		 DB	 7
  00211	07		 DB	 7
  00212	07		 DB	 7
  00213	07		 DB	 7
  00214	07		 DB	 7
  00215	07		 DB	 7
  00216	07		 DB	 7
  00217	07		 DB	 7
  00218	07		 DB	 7
  00219	07		 DB	 7
  0021a	07		 DB	 7
  0021b	07		 DB	 7
  0021c	07		 DB	 7
  0021d	07		 DB	 7
  0021e	07		 DB	 7
  0021f	07		 DB	 7
  00220	07		 DB	 7
  00221	07		 DB	 7
  00222	07		 DB	 7
  00223	07		 DB	 7
  00224	07		 DB	 7
  00225	07		 DB	 7
  00226	07		 DB	 7
  00227	07		 DB	 7
  00228	07		 DB	 7
  00229	07		 DB	 7
  0022a	07		 DB	 7
  0022b	07		 DB	 7
  0022c	07		 DB	 7
  0022d	07		 DB	 7
  0022e	07		 DB	 7
  0022f	07		 DB	 7
  00230	07		 DB	 7
  00231	07		 DB	 7
  00232	07		 DB	 7
  00233	07		 DB	 7
  00234	07		 DB	 7
  00235	07		 DB	 7
  00236	07		 DB	 7
  00237	07		 DB	 7
  00238	07		 DB	 7
  00239	07		 DB	 7
  0023a	07		 DB	 7
  0023b	07		 DB	 7
  0023c	07		 DB	 7
  0023d	07		 DB	 7
  0023e	06		 DB	 6
?set_local_int_value@@YGXPAUENTITY@@W4INT_TYPES@@H@Z ENDP ; set_local_int_value
_TEXT	ENDS
; Function compile flags: /Odtp /ZI
; File c:\users\nhv90\projects\eech\aphavoc\source\entity\special\pilot\pi_int.c
;	COMDAT ?overload_pilot_int_value_functions@@YGXXZ
_TEXT	SEGMENT
?overload_pilot_int_value_functions@@YGXXZ PROC		; overload_pilot_int_value_functions, COMDAT

; 307  : {

  00000	55		 push	 ebp
  00001	8b ec		 mov	 ebp, esp
  00003	83 ec 40	 sub	 esp, 64			; 00000040H
  00006	53		 push	 ebx
  00007	56		 push	 esi
  00008	57		 push	 edi

; 308  : 	fn_set_local_entity_raw_int_value		[ENTITY_TYPE_PILOT][INT_TYPE_CREW_ROLE]										= set_local_int_value;

  00009	b8 5c 04 00 00	 mov	 eax, 1116		; 0000045cH
  0000e	6b c8 14	 imul	 ecx, eax, 20
  00011	ba 04 00 00 00	 mov	 edx, 4
  00016	6b c2 23	 imul	 eax, edx, 35
  00019	c7 84 01 00 00
	00 00 00 00 00
	00		 mov	 DWORD PTR ?fn_set_local_entity_raw_int_value@@3PAY0BBH@P6GXPAUENTITY@@W4INT_TYPES@@H@ZA[ecx+eax], OFFSET ?set_local_int_value@@YGXPAUENTITY@@W4INT_TYPES@@H@Z ; set_local_int_value

; 309  : 	fn_set_local_entity_int_value				[ENTITY_TYPE_PILOT][INT_TYPE_CREW_ROLE]										= set_local_int_value;

  00024	b8 5c 04 00 00	 mov	 eax, 1116		; 0000045cH
  00029	6b c8 14	 imul	 ecx, eax, 20
  0002c	ba 04 00 00 00	 mov	 edx, 4
  00031	6b c2 23	 imul	 eax, edx, 35
  00034	c7 84 01 00 00
	00 00 00 00 00
	00		 mov	 DWORD PTR ?fn_set_local_entity_int_value@@3PAY0BBH@P6GXPAUENTITY@@W4INT_TYPES@@H@ZA[ecx+eax], OFFSET ?set_local_int_value@@YGXPAUENTITY@@W4INT_TYPES@@H@Z ; set_local_int_value

; 310  : 	fn_set_client_server_entity_int_value	[ENTITY_TYPE_PILOT][INT_TYPE_CREW_ROLE][COMMS_MODEL_SERVER]				= set_server_int_value;

  0003f	b8 b8 08 00 00	 mov	 eax, 2232		; 000008b8H
  00044	6b c8 14	 imul	 ecx, eax, 20
  00047	ba 08 00 00 00	 mov	 edx, 8
  0004c	6b c2 23	 imul	 eax, edx, 35
  0004f	8d 8c 01 00 00
	00 00		 lea	 ecx, DWORD PTR ?fn_set_client_server_entity_int_value@@3PAY1BBH@1P6GXPAUENTITY@@W4INT_TYPES@@H@ZA[ecx+eax]
  00056	ba 04 00 00 00	 mov	 edx, 4
  0005b	6b c2 00	 imul	 eax, edx, 0
  0005e	c7 04 01 00 00
	00 00		 mov	 DWORD PTR [ecx+eax], OFFSET ?set_server_int_value@@YGXPAUENTITY@@W4INT_TYPES@@H@Z ; set_server_int_value

; 311  : 	fn_set_client_server_entity_int_value	[ENTITY_TYPE_PILOT][INT_TYPE_CREW_ROLE][COMMS_MODEL_CLIENT]				= set_client_int_value;

  00065	b8 b8 08 00 00	 mov	 eax, 2232		; 000008b8H
  0006a	6b c8 14	 imul	 ecx, eax, 20
  0006d	ba 08 00 00 00	 mov	 edx, 8
  00072	6b c2 23	 imul	 eax, edx, 35
  00075	8d 8c 01 00 00
	00 00		 lea	 ecx, DWORD PTR ?fn_set_client_server_entity_int_value@@3PAY1BBH@1P6GXPAUENTITY@@W4INT_TYPES@@H@ZA[ecx+eax]
  0007c	ba 04 00 00 00	 mov	 edx, 4
  00081	c1 e2 00	 shl	 edx, 0
  00084	c7 04 11 00 00
	00 00		 mov	 DWORD PTR [ecx+edx], OFFSET ?set_client_int_value@@YGXPAUENTITY@@W4INT_TYPES@@H@Z ; set_client_int_value

; 312  : 	fn_get_local_entity_int_value				[ENTITY_TYPE_PILOT][INT_TYPE_CREW_ROLE]										= get_local_int_value;

  0008b	b8 5c 04 00 00	 mov	 eax, 1116		; 0000045cH
  00090	6b c8 14	 imul	 ecx, eax, 20
  00093	ba 04 00 00 00	 mov	 edx, 4
  00098	6b c2 23	 imul	 eax, edx, 35
  0009b	c7 84 01 00 00
	00 00 00 00 00
	00		 mov	 DWORD PTR ?fn_get_local_entity_int_value@@3PAY0BBH@P6GHPAUENTITY@@W4INT_TYPES@@@ZA[ecx+eax], OFFSET ?get_local_int_value@@YGHPAUENTITY@@W4INT_TYPES@@@Z ; get_local_int_value

; 313  : 
; 314  : 	fn_set_local_entity_raw_int_value		[ENTITY_TYPE_PILOT][INT_TYPE_DIFFICULTY_LEVEL]								= set_local_int_value;

  000a6	b8 5c 04 00 00	 mov	 eax, 1116		; 0000045cH
  000ab	6b c8 14	 imul	 ecx, eax, 20
  000ae	ba 04 00 00 00	 mov	 edx, 4
  000b3	6b c2 2f	 imul	 eax, edx, 47
  000b6	c7 84 01 00 00
	00 00 00 00 00
	00		 mov	 DWORD PTR ?fn_set_local_entity_raw_int_value@@3PAY0BBH@P6GXPAUENTITY@@W4INT_TYPES@@H@ZA[ecx+eax], OFFSET ?set_local_int_value@@YGXPAUENTITY@@W4INT_TYPES@@H@Z ; set_local_int_value

; 315  : 	fn_set_local_entity_int_value				[ENTITY_TYPE_PILOT][INT_TYPE_DIFFICULTY_LEVEL]								= set_local_int_value;

  000c1	b8 5c 04 00 00	 mov	 eax, 1116		; 0000045cH
  000c6	6b c8 14	 imul	 ecx, eax, 20
  000c9	ba 04 00 00 00	 mov	 edx, 4
  000ce	6b c2 2f	 imul	 eax, edx, 47
  000d1	c7 84 01 00 00
	00 00 00 00 00
	00		 mov	 DWORD PTR ?fn_set_local_entity_int_value@@3PAY0BBH@P6GXPAUENTITY@@W4INT_TYPES@@H@ZA[ecx+eax], OFFSET ?set_local_int_value@@YGXPAUENTITY@@W4INT_TYPES@@H@Z ; set_local_int_value

; 316  : 	fn_set_client_server_entity_int_value	[ENTITY_TYPE_PILOT][INT_TYPE_DIFFICULTY_LEVEL][COMMS_MODEL_SERVER]	= set_server_int_value;

  000dc	b8 b8 08 00 00	 mov	 eax, 2232		; 000008b8H
  000e1	6b c8 14	 imul	 ecx, eax, 20
  000e4	ba 08 00 00 00	 mov	 edx, 8
  000e9	6b c2 2f	 imul	 eax, edx, 47
  000ec	8d 8c 01 00 00
	00 00		 lea	 ecx, DWORD PTR ?fn_set_client_server_entity_int_value@@3PAY1BBH@1P6GXPAUENTITY@@W4INT_TYPES@@H@ZA[ecx+eax]
  000f3	ba 04 00 00 00	 mov	 edx, 4
  000f8	6b c2 00	 imul	 eax, edx, 0
  000fb	c7 04 01 00 00
	00 00		 mov	 DWORD PTR [ecx+eax], OFFSET ?set_server_int_value@@YGXPAUENTITY@@W4INT_TYPES@@H@Z ; set_server_int_value

; 317  : 	fn_set_client_server_entity_int_value	[ENTITY_TYPE_PILOT][INT_TYPE_DIFFICULTY_LEVEL][COMMS_MODEL_CLIENT]	= set_client_int_value;

  00102	b8 b8 08 00 00	 mov	 eax, 2232		; 000008b8H
  00107	6b c8 14	 imul	 ecx, eax, 20
  0010a	ba 08 00 00 00	 mov	 edx, 8
  0010f	6b c2 2f	 imul	 eax, edx, 47
  00112	8d 8c 01 00 00
	00 00		 lea	 ecx, DWORD PTR ?fn_set_client_server_entity_int_value@@3PAY1BBH@1P6GXPAUENTITY@@W4INT_TYPES@@H@ZA[ecx+eax]
  00119	ba 04 00 00 00	 mov	 edx, 4
  0011e	c1 e2 00	 shl	 edx, 0
  00121	c7 04 11 00 00
	00 00		 mov	 DWORD PTR [ecx+edx], OFFSET ?set_client_int_value@@YGXPAUENTITY@@W4INT_TYPES@@H@Z ; set_client_int_value

; 318  : 	fn_get_local_entity_int_value				[ENTITY_TYPE_PILOT][INT_TYPE_DIFFICULTY_LEVEL]								= get_local_int_value;

  00128	b8 5c 04 00 00	 mov	 eax, 1116		; 0000045cH
  0012d	6b c8 14	 imul	 ecx, eax, 20
  00130	ba 04 00 00 00	 mov	 edx, 4
  00135	6b c2 2f	 imul	 eax, edx, 47
  00138	c7 84 01 00 00
	00 00 00 00 00
	00		 mov	 DWORD PTR ?fn_get_local_entity_int_value@@3PAY0BBH@P6GHPAUENTITY@@W4INT_TYPES@@@ZA[ecx+eax], OFFSET ?get_local_int_value@@YGHPAUENTITY@@W4INT_TYPES@@@Z ; get_local_int_value

; 319  : 
; 320  : 	fn_set_local_entity_raw_int_value		[ENTITY_TYPE_PILOT][INT_TYPE_ENTITY_SUB_TYPE]								= set_local_int_value;

  00143	b8 5c 04 00 00	 mov	 eax, 1116		; 0000045cH
  00148	6b c8 14	 imul	 ecx, eax, 20
  0014b	ba 04 00 00 00	 mov	 edx, 4
  00150	6b c2 34	 imul	 eax, edx, 52
  00153	c7 84 01 00 00
	00 00 00 00 00
	00		 mov	 DWORD PTR ?fn_set_local_entity_raw_int_value@@3PAY0BBH@P6GXPAUENTITY@@W4INT_TYPES@@H@ZA[ecx+eax], OFFSET ?set_local_int_value@@YGXPAUENTITY@@W4INT_TYPES@@H@Z ; set_local_int_value

; 321  : 	fn_set_local_entity_int_value				[ENTITY_TYPE_PILOT][INT_TYPE_ENTITY_SUB_TYPE]								= set_local_int_value;

  0015e	b8 5c 04 00 00	 mov	 eax, 1116		; 0000045cH
  00163	6b c8 14	 imul	 ecx, eax, 20
  00166	ba 04 00 00 00	 mov	 edx, 4
  0016b	6b c2 34	 imul	 eax, edx, 52
  0016e	c7 84 01 00 00
	00 00 00 00 00
	00		 mov	 DWORD PTR ?fn_set_local_entity_int_value@@3PAY0BBH@P6GXPAUENTITY@@W4INT_TYPES@@H@ZA[ecx+eax], OFFSET ?set_local_int_value@@YGXPAUENTITY@@W4INT_TYPES@@H@Z ; set_local_int_value

; 322  : 	fn_set_client_server_entity_int_value	[ENTITY_TYPE_PILOT][INT_TYPE_ENTITY_SUB_TYPE][COMMS_MODEL_SERVER]		= set_server_int_value;

  00179	b8 b8 08 00 00	 mov	 eax, 2232		; 000008b8H
  0017e	6b c8 14	 imul	 ecx, eax, 20
  00181	ba 08 00 00 00	 mov	 edx, 8
  00186	6b c2 34	 imul	 eax, edx, 52
  00189	8d 8c 01 00 00
	00 00		 lea	 ecx, DWORD PTR ?fn_set_client_server_entity_int_value@@3PAY1BBH@1P6GXPAUENTITY@@W4INT_TYPES@@H@ZA[ecx+eax]
  00190	ba 04 00 00 00	 mov	 edx, 4
  00195	6b c2 00	 imul	 eax, edx, 0
  00198	c7 04 01 00 00
	00 00		 mov	 DWORD PTR [ecx+eax], OFFSET ?set_server_int_value@@YGXPAUENTITY@@W4INT_TYPES@@H@Z ; set_server_int_value

; 323  : 	fn_set_client_server_entity_int_value	[ENTITY_TYPE_PILOT][INT_TYPE_ENTITY_SUB_TYPE][COMMS_MODEL_CLIENT]		= set_client_int_value;

  0019f	b8 b8 08 00 00	 mov	 eax, 2232		; 000008b8H
  001a4	6b c8 14	 imul	 ecx, eax, 20
  001a7	ba 08 00 00 00	 mov	 edx, 8
  001ac	6b c2 34	 imul	 eax, edx, 52
  001af	8d 8c 01 00 00
	00 00		 lea	 ecx, DWORD PTR ?fn_set_client_server_entity_int_value@@3PAY1BBH@1P6GXPAUENTITY@@W4INT_TYPES@@H@ZA[ecx+eax]
  001b6	ba 04 00 00 00	 mov	 edx, 4
  001bb	c1 e2 00	 shl	 edx, 0
  001be	c7 04 11 00 00
	00 00		 mov	 DWORD PTR [ecx+edx], OFFSET ?set_client_int_value@@YGXPAUENTITY@@W4INT_TYPES@@H@Z ; set_client_int_value

; 324  : 	fn_get_local_entity_int_value				[ENTITY_TYPE_PILOT][INT_TYPE_ENTITY_SUB_TYPE]								= get_local_int_value;

  001c5	b8 5c 04 00 00	 mov	 eax, 1116		; 0000045cH
  001ca	6b c8 14	 imul	 ecx, eax, 20
  001cd	ba 04 00 00 00	 mov	 edx, 4
  001d2	6b c2 34	 imul	 eax, edx, 52
  001d5	c7 84 01 00 00
	00 00 00 00 00
	00		 mov	 DWORD PTR ?fn_get_local_entity_int_value@@3PAY0BBH@P6GHPAUENTITY@@W4INT_TYPES@@@ZA[ecx+eax], OFFSET ?get_local_int_value@@YGHPAUENTITY@@W4INT_TYPES@@@Z ; get_local_int_value

; 325  : 
; 326  : 	fn_set_local_entity_raw_int_value		[ENTITY_TYPE_PILOT][INT_TYPE_KILLS]											= set_local_int_value;

  001e0	b8 5c 04 00 00	 mov	 eax, 1116		; 0000045cH
  001e5	6b c8 14	 imul	 ecx, eax, 20
  001e8	ba 04 00 00 00	 mov	 edx, 4
  001ed	6b c2 72	 imul	 eax, edx, 114
  001f0	c7 84 01 00 00
	00 00 00 00 00
	00		 mov	 DWORD PTR ?fn_set_local_entity_raw_int_value@@3PAY0BBH@P6GXPAUENTITY@@W4INT_TYPES@@H@ZA[ecx+eax], OFFSET ?set_local_int_value@@YGXPAUENTITY@@W4INT_TYPES@@H@Z ; set_local_int_value

; 327  : 	fn_set_local_entity_int_value				[ENTITY_TYPE_PILOT][INT_TYPE_KILLS]											= set_local_int_value;

  001fb	b8 5c 04 00 00	 mov	 eax, 1116		; 0000045cH
  00200	6b c8 14	 imul	 ecx, eax, 20
  00203	ba 04 00 00 00	 mov	 edx, 4
  00208	6b c2 72	 imul	 eax, edx, 114
  0020b	c7 84 01 00 00
	00 00 00 00 00
	00		 mov	 DWORD PTR ?fn_set_local_entity_int_value@@3PAY0BBH@P6GXPAUENTITY@@W4INT_TYPES@@H@ZA[ecx+eax], OFFSET ?set_local_int_value@@YGXPAUENTITY@@W4INT_TYPES@@H@Z ; set_local_int_value

; 328  : 	fn_set_client_server_entity_int_value	[ENTITY_TYPE_PILOT][INT_TYPE_KILLS][COMMS_MODEL_SERVER]				= set_server_int_value;

  00216	b8 b8 08 00 00	 mov	 eax, 2232		; 000008b8H
  0021b	6b c8 14	 imul	 ecx, eax, 20
  0021e	ba 08 00 00 00	 mov	 edx, 8
  00223	6b c2 72	 imul	 eax, edx, 114
  00226	8d 8c 01 00 00
	00 00		 lea	 ecx, DWORD PTR ?fn_set_client_server_entity_int_value@@3PAY1BBH@1P6GXPAUENTITY@@W4INT_TYPES@@H@ZA[ecx+eax]
  0022d	ba 04 00 00 00	 mov	 edx, 4
  00232	6b c2 00	 imul	 eax, edx, 0
  00235	c7 04 01 00 00
	00 00		 mov	 DWORD PTR [ecx+eax], OFFSET ?set_server_int_value@@YGXPAUENTITY@@W4INT_TYPES@@H@Z ; set_server_int_value

; 329  : 	fn_set_client_server_entity_int_value	[ENTITY_TYPE_PILOT][INT_TYPE_KILLS][COMMS_MODEL_CLIENT]				= set_client_int_value;

  0023c	b8 b8 08 00 00	 mov	 eax, 2232		; 000008b8H
  00241	6b c8 14	 imul	 ecx, eax, 20
  00244	ba 08 00 00 00	 mov	 edx, 8
  00249	6b c2 72	 imul	 eax, edx, 114
  0024c	8d 8c 01 00 00
	00 00		 lea	 ecx, DWORD PTR ?fn_set_client_server_entity_int_value@@3PAY1BBH@1P6GXPAUENTITY@@W4INT_TYPES@@H@ZA[ecx+eax]
  00253	ba 04 00 00 00	 mov	 edx, 4
  00258	c1 e2 00	 shl	 edx, 0
  0025b	c7 04 11 00 00
	00 00		 mov	 DWORD PTR [ecx+edx], OFFSET ?set_client_int_value@@YGXPAUENTITY@@W4INT_TYPES@@H@Z ; set_client_int_value

; 330  : 	fn_get_local_entity_int_value				[ENTITY_TYPE_PILOT][INT_TYPE_KILLS]											= get_local_int_value;

  00262	b8 5c 04 00 00	 mov	 eax, 1116		; 0000045cH
  00267	6b c8 14	 imul	 ecx, eax, 20
  0026a	ba 04 00 00 00	 mov	 edx, 4
  0026f	6b c2 72	 imul	 eax, edx, 114
  00272	c7 84 01 00 00
	00 00 00 00 00
	00		 mov	 DWORD PTR ?fn_get_local_entity_int_value@@3PAY0BBH@P6GHPAUENTITY@@W4INT_TYPES@@@ZA[ecx+eax], OFFSET ?get_local_int_value@@YGHPAUENTITY@@W4INT_TYPES@@@Z ; get_local_int_value

; 331  : 
; 332  : 	fn_set_local_entity_raw_int_value		[ENTITY_TYPE_PILOT][INT_TYPE_PILOT_RANK]									= set_local_int_value;

  0027d	b8 5c 04 00 00	 mov	 eax, 1116		; 0000045cH
  00282	6b c8 14	 imul	 ecx, eax, 20
  00285	ba 04 00 00 00	 mov	 edx, 4
  0028a	69 c2 9a 00 00
	00		 imul	 eax, edx, 154
  00290	c7 84 01 00 00
	00 00 00 00 00
	00		 mov	 DWORD PTR ?fn_set_local_entity_raw_int_value@@3PAY0BBH@P6GXPAUENTITY@@W4INT_TYPES@@H@ZA[ecx+eax], OFFSET ?set_local_int_value@@YGXPAUENTITY@@W4INT_TYPES@@H@Z ; set_local_int_value

; 333  : 	fn_set_local_entity_int_value				[ENTITY_TYPE_PILOT][INT_TYPE_PILOT_RANK]									= set_local_int_value;

  0029b	b8 5c 04 00 00	 mov	 eax, 1116		; 0000045cH
  002a0	6b c8 14	 imul	 ecx, eax, 20
  002a3	ba 04 00 00 00	 mov	 edx, 4
  002a8	69 c2 9a 00 00
	00		 imul	 eax, edx, 154
  002ae	c7 84 01 00 00
	00 00 00 00 00
	00		 mov	 DWORD PTR ?fn_set_local_entity_int_value@@3PAY0BBH@P6GXPAUENTITY@@W4INT_TYPES@@H@ZA[ecx+eax], OFFSET ?set_local_int_value@@YGXPAUENTITY@@W4INT_TYPES@@H@Z ; set_local_int_value

; 334  : 	fn_set_client_server_entity_int_value	[ENTITY_TYPE_PILOT][INT_TYPE_PILOT_RANK][COMMS_MODEL_SERVER]		= set_server_int_value;

  002b9	b8 b8 08 00 00	 mov	 eax, 2232		; 000008b8H
  002be	6b c8 14	 imul	 ecx, eax, 20
  002c1	ba 08 00 00 00	 mov	 edx, 8
  002c6	69 c2 9a 00 00
	00		 imul	 eax, edx, 154
  002cc	8d 8c 01 00 00
	00 00		 lea	 ecx, DWORD PTR ?fn_set_client_server_entity_int_value@@3PAY1BBH@1P6GXPAUENTITY@@W4INT_TYPES@@H@ZA[ecx+eax]
  002d3	ba 04 00 00 00	 mov	 edx, 4
  002d8	6b c2 00	 imul	 eax, edx, 0
  002db	c7 04 01 00 00
	00 00		 mov	 DWORD PTR [ecx+eax], OFFSET ?set_server_int_value@@YGXPAUENTITY@@W4INT_TYPES@@H@Z ; set_server_int_value

; 335  : 	fn_set_client_server_entity_int_value	[ENTITY_TYPE_PILOT][INT_TYPE_PILOT_RANK][COMMS_MODEL_CLIENT]		= set_client_int_value;

  002e2	b8 b8 08 00 00	 mov	 eax, 2232		; 000008b8H
  002e7	6b c8 14	 imul	 ecx, eax, 20
  002ea	ba 08 00 00 00	 mov	 edx, 8
  002ef	69 c2 9a 00 00
	00		 imul	 eax, edx, 154
  002f5	8d 8c 01 00 00
	00 00		 lea	 ecx, DWORD PTR ?fn_set_client_server_entity_int_value@@3PAY1BBH@1P6GXPAUENTITY@@W4INT_TYPES@@H@ZA[ecx+eax]
  002fc	ba 04 00 00 00	 mov	 edx, 4
  00301	c1 e2 00	 shl	 edx, 0
  00304	c7 04 11 00 00
	00 00		 mov	 DWORD PTR [ecx+edx], OFFSET ?set_client_int_value@@YGXPAUENTITY@@W4INT_TYPES@@H@Z ; set_client_int_value

; 336  : 	fn_get_local_entity_int_value				[ENTITY_TYPE_PILOT][INT_TYPE_PILOT_RANK]									= get_local_int_value;

  0030b	b8 5c 04 00 00	 mov	 eax, 1116		; 0000045cH
  00310	6b c8 14	 imul	 ecx, eax, 20
  00313	ba 04 00 00 00	 mov	 edx, 4
  00318	69 c2 9a 00 00
	00		 imul	 eax, edx, 154
  0031e	c7 84 01 00 00
	00 00 00 00 00
	00		 mov	 DWORD PTR ?fn_get_local_entity_int_value@@3PAY0BBH@P6GHPAUENTITY@@W4INT_TYPES@@@ZA[ecx+eax], OFFSET ?get_local_int_value@@YGHPAUENTITY@@W4INT_TYPES@@@Z ; get_local_int_value

; 337  : 
; 338  : 	fn_set_local_entity_raw_int_value		[ENTITY_TYPE_PILOT][INT_TYPE_SIDE]											= set_local_int_value;

  00329	b8 5c 04 00 00	 mov	 eax, 1116		; 0000045cH
  0032e	6b c8 14	 imul	 ecx, eax, 20
  00331	ba 04 00 00 00	 mov	 edx, 4
  00336	69 c2 bb 00 00
	00		 imul	 eax, edx, 187
  0033c	c7 84 01 00 00
	00 00 00 00 00
	00		 mov	 DWORD PTR ?fn_set_local_entity_raw_int_value@@3PAY0BBH@P6GXPAUENTITY@@W4INT_TYPES@@H@ZA[ecx+eax], OFFSET ?set_local_int_value@@YGXPAUENTITY@@W4INT_TYPES@@H@Z ; set_local_int_value

; 339  : 	fn_set_local_entity_int_value				[ENTITY_TYPE_PILOT][INT_TYPE_SIDE]											= set_local_int_value;

  00347	b8 5c 04 00 00	 mov	 eax, 1116		; 0000045cH
  0034c	6b c8 14	 imul	 ecx, eax, 20
  0034f	ba 04 00 00 00	 mov	 edx, 4
  00354	69 c2 bb 00 00
	00		 imul	 eax, edx, 187
  0035a	c7 84 01 00 00
	00 00 00 00 00
	00		 mov	 DWORD PTR ?fn_set_local_entity_int_value@@3PAY0BBH@P6GXPAUENTITY@@W4INT_TYPES@@H@ZA[ecx+eax], OFFSET ?set_local_int_value@@YGXPAUENTITY@@W4INT_TYPES@@H@Z ; set_local_int_value

; 340  : 	fn_set_client_server_entity_int_value	[ENTITY_TYPE_PILOT][INT_TYPE_SIDE][COMMS_MODEL_SERVER]				= set_server_int_value;

  00365	b8 b8 08 00 00	 mov	 eax, 2232		; 000008b8H
  0036a	6b c8 14	 imul	 ecx, eax, 20
  0036d	ba 08 00 00 00	 mov	 edx, 8
  00372	69 c2 bb 00 00
	00		 imul	 eax, edx, 187
  00378	8d 8c 01 00 00
	00 00		 lea	 ecx, DWORD PTR ?fn_set_client_server_entity_int_value@@3PAY1BBH@1P6GXPAUENTITY@@W4INT_TYPES@@H@ZA[ecx+eax]
  0037f	ba 04 00 00 00	 mov	 edx, 4
  00384	6b c2 00	 imul	 eax, edx, 0
  00387	c7 04 01 00 00
	00 00		 mov	 DWORD PTR [ecx+eax], OFFSET ?set_server_int_value@@YGXPAUENTITY@@W4INT_TYPES@@H@Z ; set_server_int_value

; 341  : 	fn_set_client_server_entity_int_value	[ENTITY_TYPE_PILOT][INT_TYPE_SIDE][COMMS_MODEL_CLIENT]				= set_client_int_value;

  0038e	b8 b8 08 00 00	 mov	 eax, 2232		; 000008b8H
  00393	6b c8 14	 imul	 ecx, eax, 20
  00396	ba 08 00 00 00	 mov	 edx, 8
  0039b	69 c2 bb 00 00
	00		 imul	 eax, edx, 187
  003a1	8d 8c 01 00 00
	00 00		 lea	 ecx, DWORD PTR ?fn_set_client_server_entity_int_value@@3PAY1BBH@1P6GXPAUENTITY@@W4INT_TYPES@@H@ZA[ecx+eax]
  003a8	ba 04 00 00 00	 mov	 edx, 4
  003ad	c1 e2 00	 shl	 edx, 0
  003b0	c7 04 11 00 00
	00 00		 mov	 DWORD PTR [ecx+edx], OFFSET ?set_client_int_value@@YGXPAUENTITY@@W4INT_TYPES@@H@Z ; set_client_int_value

; 342  : 	fn_get_local_entity_int_value				[ENTITY_TYPE_PILOT][INT_TYPE_SIDE]											= get_local_int_value;

  003b7	b8 5c 04 00 00	 mov	 eax, 1116		; 0000045cH
  003bc	6b c8 14	 imul	 ecx, eax, 20
  003bf	ba 04 00 00 00	 mov	 edx, 4
  003c4	69 c2 bb 00 00
	00		 imul	 eax, edx, 187
  003ca	c7 84 01 00 00
	00 00 00 00 00
	00		 mov	 DWORD PTR ?fn_get_local_entity_int_value@@3PAY0BBH@P6GHPAUENTITY@@W4INT_TYPES@@@ZA[ecx+eax], OFFSET ?get_local_int_value@@YGHPAUENTITY@@W4INT_TYPES@@@Z ; get_local_int_value

; 343  : 
; 344  : 	fn_set_local_entity_raw_int_value		[ENTITY_TYPE_PILOT][INT_TYPE_UNIQUE_ID]									= set_local_int_value;

  003d5	b8 5c 04 00 00	 mov	 eax, 1116		; 0000045cH
  003da	6b c8 14	 imul	 ecx, eax, 20
  003dd	ba 04 00 00 00	 mov	 edx, 4
  003e2	69 c2 ed 00 00
	00		 imul	 eax, edx, 237
  003e8	c7 84 01 00 00
	00 00 00 00 00
	00		 mov	 DWORD PTR ?fn_set_local_entity_raw_int_value@@3PAY0BBH@P6GXPAUENTITY@@W4INT_TYPES@@H@ZA[ecx+eax], OFFSET ?set_local_int_value@@YGXPAUENTITY@@W4INT_TYPES@@H@Z ; set_local_int_value

; 345  : 	fn_set_local_entity_int_value				[ENTITY_TYPE_PILOT][INT_TYPE_UNIQUE_ID]									= set_local_int_value;

  003f3	b8 5c 04 00 00	 mov	 eax, 1116		; 0000045cH
  003f8	6b c8 14	 imul	 ecx, eax, 20
  003fb	ba 04 00 00 00	 mov	 edx, 4
  00400	69 c2 ed 00 00
	00		 imul	 eax, edx, 237
  00406	c7 84 01 00 00
	00 00 00 00 00
	00		 mov	 DWORD PTR ?fn_set_local_entity_int_value@@3PAY0BBH@P6GXPAUENTITY@@W4INT_TYPES@@H@ZA[ecx+eax], OFFSET ?set_local_int_value@@YGXPAUENTITY@@W4INT_TYPES@@H@Z ; set_local_int_value

; 346  : 	fn_set_client_server_entity_int_value	[ENTITY_TYPE_PILOT][INT_TYPE_UNIQUE_ID][COMMS_MODEL_SERVER]			= set_server_int_value;

  00411	b8 b8 08 00 00	 mov	 eax, 2232		; 000008b8H
  00416	6b c8 14	 imul	 ecx, eax, 20
  00419	ba 08 00 00 00	 mov	 edx, 8
  0041e	69 c2 ed 00 00
	00		 imul	 eax, edx, 237
  00424	8d 8c 01 00 00
	00 00		 lea	 ecx, DWORD PTR ?fn_set_client_server_entity_int_value@@3PAY1BBH@1P6GXPAUENTITY@@W4INT_TYPES@@H@ZA[ecx+eax]
  0042b	ba 04 00 00 00	 mov	 edx, 4
  00430	6b c2 00	 imul	 eax, edx, 0
  00433	c7 04 01 00 00
	00 00		 mov	 DWORD PTR [ecx+eax], OFFSET ?set_server_int_value@@YGXPAUENTITY@@W4INT_TYPES@@H@Z ; set_server_int_value

; 347  : 	fn_set_client_server_entity_int_value	[ENTITY_TYPE_PILOT][INT_TYPE_UNIQUE_ID][COMMS_MODEL_CLIENT]			= set_client_int_value;

  0043a	b8 b8 08 00 00	 mov	 eax, 2232		; 000008b8H
  0043f	6b c8 14	 imul	 ecx, eax, 20
  00442	ba 08 00 00 00	 mov	 edx, 8
  00447	69 c2 ed 00 00
	00		 imul	 eax, edx, 237
  0044d	8d 8c 01 00 00
	00 00		 lea	 ecx, DWORD PTR ?fn_set_client_server_entity_int_value@@3PAY1BBH@1P6GXPAUENTITY@@W4INT_TYPES@@H@ZA[ecx+eax]
  00454	ba 04 00 00 00	 mov	 edx, 4
  00459	c1 e2 00	 shl	 edx, 0
  0045c	c7 04 11 00 00
	00 00		 mov	 DWORD PTR [ecx+edx], OFFSET ?set_client_int_value@@YGXPAUENTITY@@W4INT_TYPES@@H@Z ; set_client_int_value

; 348  : 	fn_get_local_entity_int_value				[ENTITY_TYPE_PILOT][INT_TYPE_UNIQUE_ID]									= get_local_int_value;

  00463	b8 5c 04 00 00	 mov	 eax, 1116		; 0000045cH
  00468	6b c8 14	 imul	 ecx, eax, 20
  0046b	ba 04 00 00 00	 mov	 edx, 4
  00470	69 c2 ed 00 00
	00		 imul	 eax, edx, 237
  00476	c7 84 01 00 00
	00 00 00 00 00
	00		 mov	 DWORD PTR ?fn_get_local_entity_int_value@@3PAY0BBH@P6GHPAUENTITY@@W4INT_TYPES@@@ZA[ecx+eax], OFFSET ?get_local_int_value@@YGHPAUENTITY@@W4INT_TYPES@@@Z ; get_local_int_value

; 349  : }

  00481	5f		 pop	 edi
  00482	5e		 pop	 esi
  00483	5b		 pop	 ebx
  00484	8b e5		 mov	 esp, ebp
  00486	5d		 pop	 ebp
  00487	c3		 ret	 0
?overload_pilot_int_value_functions@@YGXXZ ENDP		; overload_pilot_int_value_functions
_TEXT	ENDS
END
