; Listing generated by Microsoft (R) Optimizing Compiler Version 19.16.27045.0 

	TITLE	C:\Users\nhv90\Projects\eech\aphavoc\source\ui_menu\player\play_wp.c
	.686P
	.XMM
	include listing.inc
	.model	flat

INCLUDELIB MSVCRTD
INCLUDELIB OLDNAMES

PUBLIC	___local_stdio_printf_options
PUBLIC	__vsnprintf_l
PUBLIC	__vsprintf_l
PUBLIC	_sprintf
PUBLIC	?notify_show_weapon_log_page@@YGXPAUUI_OBJECT@@@Z ; notify_show_weapon_log_page
PUBLIC	?define_weapon_log_page_objects@@YGXXZ		; define_weapon_log_page_objects
PUBLIC	?rebuild_weapon_log_list@@YGXPAUPLAYER_LOG_TYPE@@H@Z ; rebuild_weapon_log_list
PUBLIC	?_OptionsStorage@?1??__local_stdio_printf_options@@9@4_KA ; `__local_stdio_printf_options'::`2'::_OptionsStorage
PUBLIC	??_C@_06GANGLKEK@WEAPON@			; `string'
PUBLIC	??_C@_05EBJPIPBG@FIRED@				; `string'
PUBLIC	??_C@_03CBIHHOCO@HIT@				; `string'
PUBLIC	??_C@_03KAEFJBBN@EFF@				; `string'
PUBLIC	??_C@_01CLKCMJKC@?5@				; `string'
PUBLIC	??_C@_02DPKJAMEF@?$CFd@				; `string'
PUBLIC	??_C@_04FCMNJMCO@?$CFd?$CF?$CF@			; `string'
PUBLIC	__real@3dcccccd
PUBLIC	__real@3e0f5c29
PUBLIC	__real@3e75c28f
PUBLIC	__real@3e800000
PUBLIC	__real@3ea9fbe7
PUBLIC	__real@3eb33333
PUBLIC	__real@3ef0a3d7
PUBLIC	__real@3efa5e35
PUBLIC	__real@3f02d0e5
PUBLIC	__real@3f07ae14
PUBLIC	__real@3f19999a
PUBLIC	__real@3f3d2f1b
PUBLIC	__real@3f570a3d
PUBLIC	__real@3f800000
PUBLIC	__real@be4ccccd
EXTRN	__imp____stdio_common_vsprintf:PROC
EXTRN	?create_ui_object@@YAPAUUI_OBJECT@@HZZ:PROC	; create_ui_object
EXTRN	?ui_object_destroy_list_items@@YGXPAUUI_OBJECT@@@Z:PROC ; ui_object_destroy_list_items
EXTRN	?add_to_pop_up_list@@YGPAUUI_OBJECT@@PBDPAU1@1HHUREAL_COLOUR@@@Z:PROC ; add_to_pop_up_list
EXTRN	?get_trans@@YGPBDPBD@Z:PROC			; get_trans
EXTRN	?get_current_language_font@@YG?AW4FONT_TYPES@@W41@@Z:PROC ; get_current_language_font
EXTRN	?set_ui_list_spacing_proportional_to_font@@YGXPAUUI_OBJECT@@M@Z:PROC ; set_ui_list_spacing_proportional_to_font
EXTRN	?display_player_log_page@@YGXW4PLAYER_LOG_PAGES@@@Z:PROC ; display_player_log_page
EXTRN	?ui_option_title_text_colour@@3UREAL_COLOUR@@A:DWORD ; ui_option_title_text_colour
EXTRN	?weapon_database@@3PAUWEAPON_DATA@@A:BYTE	; weapon_database
EXTRN	?select_player_screen@@3PAUUI_OBJECT@@A:DWORD	; select_player_screen
EXTRN	?log_page@@3PAPAUUI_OBJECT@@A:BYTE		; log_page
EXTRN	__fltused:DWORD
;	COMDAT ?_OptionsStorage@?1??__local_stdio_printf_options@@9@4_KA
_BSS	SEGMENT
?_OptionsStorage@?1??__local_stdio_printf_options@@9@4_KA DQ 01H DUP (?) ; `__local_stdio_printf_options'::`2'::_OptionsStorage
_BSS	ENDS
_BSS	SEGMENT
?weapon_list_area@@3PAUUI_OBJECT@@A DD 01H DUP (?)	; weapon_list_area
?weapon_type_list@@3PAUUI_OBJECT@@A DD 01H DUP (?)	; weapon_type_list
?weapon_hit_list@@3PAUUI_OBJECT@@A DD 01H DUP (?)	; weapon_hit_list
?weapon_fired_list@@3PAUUI_OBJECT@@A DD 01H DUP (?)	; weapon_fired_list
?weapon_eff_list@@3PAUUI_OBJECT@@A DD 01H DUP (?)	; weapon_eff_list
_BSS	ENDS
;	COMDAT __real@be4ccccd
CONST	SEGMENT
__real@be4ccccd DD 0be4ccccdr			; -0.2
CONST	ENDS
;	COMDAT __real@3f800000
CONST	SEGMENT
__real@3f800000 DD 03f800000r			; 1
CONST	ENDS
;	COMDAT __real@3f570a3d
CONST	SEGMENT
__real@3f570a3d DD 03f570a3dr			; 0.84
CONST	ENDS
;	COMDAT __real@3f3d2f1b
CONST	SEGMENT
__real@3f3d2f1b DD 03f3d2f1br			; 0.739
CONST	ENDS
;	COMDAT __real@3f19999a
CONST	SEGMENT
__real@3f19999a DD 03f19999ar			; 0.6
CONST	ENDS
;	COMDAT __real@3f07ae14
CONST	SEGMENT
__real@3f07ae14 DD 03f07ae14r			; 0.53
CONST	ENDS
;	COMDAT __real@3f02d0e5
CONST	SEGMENT
__real@3f02d0e5 DD 03f02d0e5r			; 0.511
CONST	ENDS
;	COMDAT __real@3efa5e35
CONST	SEGMENT
__real@3efa5e35 DD 03efa5e35r			; 0.489
CONST	ENDS
;	COMDAT __real@3ef0a3d7
CONST	SEGMENT
__real@3ef0a3d7 DD 03ef0a3d7r			; 0.47
CONST	ENDS
;	COMDAT __real@3eb33333
CONST	SEGMENT
__real@3eb33333 DD 03eb33333r			; 0.35
CONST	ENDS
;	COMDAT __real@3ea9fbe7
CONST	SEGMENT
__real@3ea9fbe7 DD 03ea9fbe7r			; 0.332
CONST	ENDS
;	COMDAT __real@3e800000
CONST	SEGMENT
__real@3e800000 DD 03e800000r			; 0.25
CONST	ENDS
;	COMDAT __real@3e75c28f
CONST	SEGMENT
__real@3e75c28f DD 03e75c28fr			; 0.24
CONST	ENDS
;	COMDAT __real@3e0f5c29
CONST	SEGMENT
__real@3e0f5c29 DD 03e0f5c29r			; 0.14
CONST	ENDS
;	COMDAT __real@3dcccccd
CONST	SEGMENT
__real@3dcccccd DD 03dcccccdr			; 0.1
CONST	ENDS
;	COMDAT ??_C@_04FCMNJMCO@?$CFd?$CF?$CF@
CONST	SEGMENT
??_C@_04FCMNJMCO@?$CFd?$CF?$CF@ DB '%d%%', 00H		; `string'
CONST	ENDS
;	COMDAT ??_C@_02DPKJAMEF@?$CFd@
CONST	SEGMENT
??_C@_02DPKJAMEF@?$CFd@ DB '%d', 00H			; `string'
CONST	ENDS
;	COMDAT ??_C@_01CLKCMJKC@?5@
CONST	SEGMENT
??_C@_01CLKCMJKC@?5@ DB ' ', 00H			; `string'
CONST	ENDS
;	COMDAT ??_C@_03KAEFJBBN@EFF@
CONST	SEGMENT
??_C@_03KAEFJBBN@EFF@ DB 'EFF', 00H			; `string'
CONST	ENDS
;	COMDAT ??_C@_03CBIHHOCO@HIT@
CONST	SEGMENT
??_C@_03CBIHHOCO@HIT@ DB 'HIT', 00H			; `string'
CONST	ENDS
;	COMDAT ??_C@_05EBJPIPBG@FIRED@
CONST	SEGMENT
??_C@_05EBJPIPBG@FIRED@ DB 'FIRED', 00H			; `string'
CONST	ENDS
;	COMDAT ??_C@_06GANGLKEK@WEAPON@
CONST	SEGMENT
??_C@_06GANGLKEK@WEAPON@ DB 'WEAPON', 00H		; `string'
CONST	ENDS
; Function compile flags: /Odtp /ZI
; File c:\users\nhv90\projects\eech\aphavoc\source\ui_menu\player\play_wp.c
;	COMDAT ?rebuild_weapon_log_list@@YGXPAUPLAYER_LOG_TYPE@@H@Z
_TEXT	SEGMENT
_count$ = -24						; size = 4
_weapon$ = -20						; size = 4
_eff$ = -16						; size = 4
_buff$ = -12						; size = 7
_temp$ = -4						; size = 4
_log$ = 8						; size = 4
_side$ = 12						; size = 4
?rebuild_weapon_log_list@@YGXPAUPLAYER_LOG_TYPE@@H@Z PROC ; rebuild_weapon_log_list, COMDAT

; 108  : {

  00000	55		 push	 ebp
  00001	8b ec		 mov	 ebp, esp
  00003	83 ec 58	 sub	 esp, 88			; 00000058H
  00006	53		 push	 ebx
  00007	56		 push	 esi
  00008	57		 push	 edi

; 109  : 	ui_object
; 110  : 		*temp;
; 111  : 
; 112  : 	char
; 113  : 		buff[7];
; 114  : 
; 115  : 	int
; 116  : 		eff,
; 117  : 		weapon,
; 118  : 		count = 0;

  00009	c7 45 e8 00 00
	00 00		 mov	 DWORD PTR _count$[ebp], 0

; 119  : 
; 120  : 	ui_object_destroy_list_items (weapon_type_list);

  00010	a1 00 00 00 00	 mov	 eax, DWORD PTR ?weapon_type_list@@3PAUUI_OBJECT@@A
  00015	50		 push	 eax
  00016	e8 00 00 00 00	 call	 ?ui_object_destroy_list_items@@YGXPAUUI_OBJECT@@@Z ; ui_object_destroy_list_items

; 121  : 
; 122  : 	ui_object_destroy_list_items (weapon_fired_list);

  0001b	a1 00 00 00 00	 mov	 eax, DWORD PTR ?weapon_fired_list@@3PAUUI_OBJECT@@A
  00020	50		 push	 eax
  00021	e8 00 00 00 00	 call	 ?ui_object_destroy_list_items@@YGXPAUUI_OBJECT@@@Z ; ui_object_destroy_list_items

; 123  : 
; 124  : 	ui_object_destroy_list_items (weapon_hit_list);

  00026	a1 00 00 00 00	 mov	 eax, DWORD PTR ?weapon_hit_list@@3PAUUI_OBJECT@@A
  0002b	50		 push	 eax
  0002c	e8 00 00 00 00	 call	 ?ui_object_destroy_list_items@@YGXPAUUI_OBJECT@@@Z ; ui_object_destroy_list_items

; 125  : 
; 126  : 	ui_object_destroy_list_items (weapon_eff_list);

  00031	a1 00 00 00 00	 mov	 eax, DWORD PTR ?weapon_eff_list@@3PAUUI_OBJECT@@A
  00036	50		 push	 eax
  00037	e8 00 00 00 00	 call	 ?ui_object_destroy_list_items@@YGXPAUUI_OBJECT@@@Z ; ui_object_destroy_list_items

; 127  : 
; 128  : 	temp = add_to_pop_up_list (get_trans ("WEAPON"), weapon_type_list, NULL, ENTITY_INDEX_DONT_CARE, get_current_language_font (UI_FONT_ARIAL_14), ui_option_title_text_colour);

  0003c	a1 00 00 00 00	 mov	 eax, DWORD PTR ?ui_option_title_text_colour@@3UREAL_COLOUR@@A ; ui_option_title_text_colour
  00041	50		 push	 eax
  00042	6a 01		 push	 1
  00044	e8 00 00 00 00	 call	 ?get_current_language_font@@YG?AW4FONT_TYPES@@W41@@Z ; get_current_language_font
  00049	50		 push	 eax
  0004a	6a ff		 push	 -1
  0004c	6a 00		 push	 0
  0004e	8b 0d 00 00 00
	00		 mov	 ecx, DWORD PTR ?weapon_type_list@@3PAUUI_OBJECT@@A
  00054	51		 push	 ecx
  00055	68 00 00 00 00	 push	 OFFSET ??_C@_06GANGLKEK@WEAPON@
  0005a	e8 00 00 00 00	 call	 ?get_trans@@YGPBDPBD@Z	; get_trans
  0005f	50		 push	 eax
  00060	e8 00 00 00 00	 call	 ?add_to_pop_up_list@@YGPAUUI_OBJECT@@PBDPAU1@1HHUREAL_COLOUR@@@Z ; add_to_pop_up_list
  00065	89 45 fc	 mov	 DWORD PTR _temp$[ebp], eax

; 129  : 
; 130  : 	temp = add_to_pop_up_list (get_trans ("FIRED"), weapon_fired_list, NULL, ENTITY_INDEX_DONT_CARE, get_current_language_font (UI_FONT_ARIAL_14), ui_option_title_text_colour);

  00068	a1 00 00 00 00	 mov	 eax, DWORD PTR ?ui_option_title_text_colour@@3UREAL_COLOUR@@A ; ui_option_title_text_colour
  0006d	50		 push	 eax
  0006e	6a 01		 push	 1
  00070	e8 00 00 00 00	 call	 ?get_current_language_font@@YG?AW4FONT_TYPES@@W41@@Z ; get_current_language_font
  00075	50		 push	 eax
  00076	6a ff		 push	 -1
  00078	6a 00		 push	 0
  0007a	8b 0d 00 00 00
	00		 mov	 ecx, DWORD PTR ?weapon_fired_list@@3PAUUI_OBJECT@@A
  00080	51		 push	 ecx
  00081	68 00 00 00 00	 push	 OFFSET ??_C@_05EBJPIPBG@FIRED@
  00086	e8 00 00 00 00	 call	 ?get_trans@@YGPBDPBD@Z	; get_trans
  0008b	50		 push	 eax
  0008c	e8 00 00 00 00	 call	 ?add_to_pop_up_list@@YGPAUUI_OBJECT@@PBDPAU1@1HHUREAL_COLOUR@@@Z ; add_to_pop_up_list
  00091	89 45 fc	 mov	 DWORD PTR _temp$[ebp], eax

; 131  : 
; 132  : 	temp = add_to_pop_up_list (get_trans ("HIT"), weapon_hit_list, NULL, ENTITY_INDEX_DONT_CARE, get_current_language_font (UI_FONT_ARIAL_14), ui_option_title_text_colour);

  00094	a1 00 00 00 00	 mov	 eax, DWORD PTR ?ui_option_title_text_colour@@3UREAL_COLOUR@@A ; ui_option_title_text_colour
  00099	50		 push	 eax
  0009a	6a 01		 push	 1
  0009c	e8 00 00 00 00	 call	 ?get_current_language_font@@YG?AW4FONT_TYPES@@W41@@Z ; get_current_language_font
  000a1	50		 push	 eax
  000a2	6a ff		 push	 -1
  000a4	6a 00		 push	 0
  000a6	8b 0d 00 00 00
	00		 mov	 ecx, DWORD PTR ?weapon_hit_list@@3PAUUI_OBJECT@@A
  000ac	51		 push	 ecx
  000ad	68 00 00 00 00	 push	 OFFSET ??_C@_03CBIHHOCO@HIT@
  000b2	e8 00 00 00 00	 call	 ?get_trans@@YGPBDPBD@Z	; get_trans
  000b7	50		 push	 eax
  000b8	e8 00 00 00 00	 call	 ?add_to_pop_up_list@@YGPAUUI_OBJECT@@PBDPAU1@1HHUREAL_COLOUR@@@Z ; add_to_pop_up_list
  000bd	89 45 fc	 mov	 DWORD PTR _temp$[ebp], eax

; 133  : 
; 134  : 	temp = add_to_pop_up_list (get_trans ("EFF"), weapon_eff_list, NULL, ENTITY_INDEX_DONT_CARE, get_current_language_font (UI_FONT_ARIAL_14), ui_option_title_text_colour);

  000c0	a1 00 00 00 00	 mov	 eax, DWORD PTR ?ui_option_title_text_colour@@3UREAL_COLOUR@@A ; ui_option_title_text_colour
  000c5	50		 push	 eax
  000c6	6a 01		 push	 1
  000c8	e8 00 00 00 00	 call	 ?get_current_language_font@@YG?AW4FONT_TYPES@@W41@@Z ; get_current_language_font
  000cd	50		 push	 eax
  000ce	6a ff		 push	 -1
  000d0	6a 00		 push	 0
  000d2	8b 0d 00 00 00
	00		 mov	 ecx, DWORD PTR ?weapon_eff_list@@3PAUUI_OBJECT@@A
  000d8	51		 push	 ecx
  000d9	68 00 00 00 00	 push	 OFFSET ??_C@_03KAEFJBBN@EFF@
  000de	e8 00 00 00 00	 call	 ?get_trans@@YGPBDPBD@Z	; get_trans
  000e3	50		 push	 eax
  000e4	e8 00 00 00 00	 call	 ?add_to_pop_up_list@@YGPAUUI_OBJECT@@PBDPAU1@1HHUREAL_COLOUR@@@Z ; add_to_pop_up_list
  000e9	89 45 fc	 mov	 DWORD PTR _temp$[ebp], eax

; 135  : 
; 136  : 	temp = add_to_pop_up_list (" ", weapon_type_list, NULL, ENTITY_INDEX_DONT_CARE, get_current_language_font (UI_FONT_ARIAL_14), ui_option_title_text_colour);

  000ec	a1 00 00 00 00	 mov	 eax, DWORD PTR ?ui_option_title_text_colour@@3UREAL_COLOUR@@A ; ui_option_title_text_colour
  000f1	50		 push	 eax
  000f2	6a 01		 push	 1
  000f4	e8 00 00 00 00	 call	 ?get_current_language_font@@YG?AW4FONT_TYPES@@W41@@Z ; get_current_language_font
  000f9	50		 push	 eax
  000fa	6a ff		 push	 -1
  000fc	6a 00		 push	 0
  000fe	8b 0d 00 00 00
	00		 mov	 ecx, DWORD PTR ?weapon_type_list@@3PAUUI_OBJECT@@A
  00104	51		 push	 ecx
  00105	68 00 00 00 00	 push	 OFFSET ??_C@_01CLKCMJKC@?5@
  0010a	e8 00 00 00 00	 call	 ?add_to_pop_up_list@@YGPAUUI_OBJECT@@PBDPAU1@1HHUREAL_COLOUR@@@Z ; add_to_pop_up_list
  0010f	89 45 fc	 mov	 DWORD PTR _temp$[ebp], eax

; 137  : 
; 138  : 	temp = add_to_pop_up_list (" ", weapon_fired_list, NULL, ENTITY_INDEX_DONT_CARE, get_current_language_font (UI_FONT_ARIAL_14), ui_option_title_text_colour);

  00112	a1 00 00 00 00	 mov	 eax, DWORD PTR ?ui_option_title_text_colour@@3UREAL_COLOUR@@A ; ui_option_title_text_colour
  00117	50		 push	 eax
  00118	6a 01		 push	 1
  0011a	e8 00 00 00 00	 call	 ?get_current_language_font@@YG?AW4FONT_TYPES@@W41@@Z ; get_current_language_font
  0011f	50		 push	 eax
  00120	6a ff		 push	 -1
  00122	6a 00		 push	 0
  00124	8b 0d 00 00 00
	00		 mov	 ecx, DWORD PTR ?weapon_fired_list@@3PAUUI_OBJECT@@A
  0012a	51		 push	 ecx
  0012b	68 00 00 00 00	 push	 OFFSET ??_C@_01CLKCMJKC@?5@
  00130	e8 00 00 00 00	 call	 ?add_to_pop_up_list@@YGPAUUI_OBJECT@@PBDPAU1@1HHUREAL_COLOUR@@@Z ; add_to_pop_up_list
  00135	89 45 fc	 mov	 DWORD PTR _temp$[ebp], eax

; 139  : 
; 140  : 	temp = add_to_pop_up_list (" ", weapon_hit_list, NULL, ENTITY_INDEX_DONT_CARE, get_current_language_font (UI_FONT_ARIAL_14), ui_option_title_text_colour);

  00138	a1 00 00 00 00	 mov	 eax, DWORD PTR ?ui_option_title_text_colour@@3UREAL_COLOUR@@A ; ui_option_title_text_colour
  0013d	50		 push	 eax
  0013e	6a 01		 push	 1
  00140	e8 00 00 00 00	 call	 ?get_current_language_font@@YG?AW4FONT_TYPES@@W41@@Z ; get_current_language_font
  00145	50		 push	 eax
  00146	6a ff		 push	 -1
  00148	6a 00		 push	 0
  0014a	8b 0d 00 00 00
	00		 mov	 ecx, DWORD PTR ?weapon_hit_list@@3PAUUI_OBJECT@@A
  00150	51		 push	 ecx
  00151	68 00 00 00 00	 push	 OFFSET ??_C@_01CLKCMJKC@?5@
  00156	e8 00 00 00 00	 call	 ?add_to_pop_up_list@@YGPAUUI_OBJECT@@PBDPAU1@1HHUREAL_COLOUR@@@Z ; add_to_pop_up_list
  0015b	89 45 fc	 mov	 DWORD PTR _temp$[ebp], eax

; 141  : 
; 142  : 	temp = add_to_pop_up_list (" ", weapon_eff_list, NULL, ENTITY_INDEX_DONT_CARE, get_current_language_font (UI_FONT_ARIAL_14), ui_option_title_text_colour);

  0015e	a1 00 00 00 00	 mov	 eax, DWORD PTR ?ui_option_title_text_colour@@3UREAL_COLOUR@@A ; ui_option_title_text_colour
  00163	50		 push	 eax
  00164	6a 01		 push	 1
  00166	e8 00 00 00 00	 call	 ?get_current_language_font@@YG?AW4FONT_TYPES@@W41@@Z ; get_current_language_font
  0016b	50		 push	 eax
  0016c	6a ff		 push	 -1
  0016e	6a 00		 push	 0
  00170	8b 0d 00 00 00
	00		 mov	 ecx, DWORD PTR ?weapon_eff_list@@3PAUUI_OBJECT@@A
  00176	51		 push	 ecx
  00177	68 00 00 00 00	 push	 OFFSET ??_C@_01CLKCMJKC@?5@
  0017c	e8 00 00 00 00	 call	 ?add_to_pop_up_list@@YGPAUUI_OBJECT@@PBDPAU1@1HHUREAL_COLOUR@@@Z ; add_to_pop_up_list
  00181	89 45 fc	 mov	 DWORD PTR _temp$[ebp], eax
$LN2@rebuild_we:

; 143  : 
; 144  : 
; 145  : 	while (count < NUM_ENTITY_SUB_TYPE_WEAPONS)

  00184	83 7d e8 4c	 cmp	 DWORD PTR _count$[ebp], 76 ; 0000004cH
  00188	0f 8d 65 02 00
	00		 jge	 $LN1@rebuild_we

; 146  : 	{
; 147  : 		if	(log->side_log[side].weapon_usage[count][WEAPON_LOG_FIRED])

  0018e	69 45 0c 4c 03
	00 00		 imul	 eax, DWORD PTR _side$[ebp], 844
  00195	8b 4d 08	 mov	 ecx, DWORD PTR _log$[ebp]
  00198	8d 54 01 0c	 lea	 edx, DWORD PTR [ecx+eax+12]
  0019c	8b 45 e8	 mov	 eax, DWORD PTR _count$[ebp]
  0019f	8d 8c c2 a8 00
	00 00		 lea	 ecx, DWORD PTR [edx+eax*8+168]
  001a6	ba 04 00 00 00	 mov	 edx, 4
  001ab	6b c2 00	 imul	 eax, edx, 0
  001ae	83 3c 01 00	 cmp	 DWORD PTR [ecx+eax], 0
  001b2	0f 84 2d 02 00
	00		 je	 $LN4@rebuild_we

; 148  : 		{
; 149  : 			weapon = log->side_log[side].weapon_usage[count][WEAPON_LOG_FIRED];

  001b8	69 45 0c 4c 03
	00 00		 imul	 eax, DWORD PTR _side$[ebp], 844
  001bf	8b 4d 08	 mov	 ecx, DWORD PTR _log$[ebp]
  001c2	8d 54 01 0c	 lea	 edx, DWORD PTR [ecx+eax+12]
  001c6	8b 45 e8	 mov	 eax, DWORD PTR _count$[ebp]
  001c9	8d 8c c2 a8 00
	00 00		 lea	 ecx, DWORD PTR [edx+eax*8+168]
  001d0	ba 04 00 00 00	 mov	 edx, 4
  001d5	6b c2 00	 imul	 eax, edx, 0
  001d8	8b 0c 01	 mov	 ecx, DWORD PTR [ecx+eax]
  001db	89 4d ec	 mov	 DWORD PTR _weapon$[ebp], ecx

; 150  : 
; 151  : 			if ( (count == ENTITY_SUB_TYPE_WEAPON_AIM92_STINGER) ||
; 152  : 					(count == ENTITY_SUB_TYPE_WEAPON_AGM114L_LONGBOW_HELLFIRE) ||
; 153  : 					(count == ENTITY_SUB_TYPE_WEAPON_AGM114K_HELLFIRE_II) ||
; 154  : 					(count == ENTITY_SUB_TYPE_WEAPON_HYDRA70_M255) ||
; 155  : 					(count == ENTITY_SUB_TYPE_WEAPON_HYDRA70_M261) ||
; 156  : 					(count == ENTITY_SUB_TYPE_WEAPON_M230_30MM_ROUND) ||
; 157  : 					(count == ENTITY_SUB_TYPE_WEAPON_M197_20MM_ROUND) ||
; 158  : 					(count == ENTITY_SUB_TYPE_WEAPON_IGLA_V) ||
; 159  : 					(count == ENTITY_SUB_TYPE_WEAPON_S5) ||
; 160  : 					(count == ENTITY_SUB_TYPE_WEAPON_S8) ||
; 161  : 					(count == ENTITY_SUB_TYPE_WEAPON_S13) ||
; 162  : 					(count == ENTITY_SUB_TYPE_WEAPON_2A42_30MM_HE_ROUND) ||
; 163  : 					(count == ENTITY_SUB_TYPE_WEAPON_2A42_30MM_AP_ROUND) ||
; 164  : 					(count == ENTITY_SUB_TYPE_WEAPON_GSH23L_23MM_ROUND) ||
; 165  : 					(count == ENTITY_SUB_TYPE_WEAPON_9A642_12P7MM_ROUND) ||
; 166  : 					(count == ENTITY_SUB_TYPE_WEAPON_AT6_SPIRAL) ||
; 167  : 					(count == ENTITY_SUB_TYPE_WEAPON_ATAKA) ||

  001de	83 7d e8 24	 cmp	 DWORD PTR _count$[ebp], 36 ; 00000024H
  001e2	74 6a		 je	 SHORT $LN6@rebuild_we
  001e4	83 7d e8 2d	 cmp	 DWORD PTR _count$[ebp], 45 ; 0000002dH
  001e8	74 64		 je	 SHORT $LN6@rebuild_we
  001ea	83 7d e8 2e	 cmp	 DWORD PTR _count$[ebp], 46 ; 0000002eH
  001ee	74 5e		 je	 SHORT $LN6@rebuild_we
  001f0	83 7d e8 1e	 cmp	 DWORD PTR _count$[ebp], 30 ; 0000001eH
  001f4	74 58		 je	 SHORT $LN6@rebuild_we
  001f6	83 7d e8 1f	 cmp	 DWORD PTR _count$[ebp], 31 ; 0000001fH
  001fa	74 52		 je	 SHORT $LN6@rebuild_we
  001fc	83 7d e8 07	 cmp	 DWORD PTR _count$[ebp], 7
  00200	74 4c		 je	 SHORT $LN6@rebuild_we
  00202	83 7d e8 03	 cmp	 DWORD PTR _count$[ebp], 3
  00206	74 46		 je	 SHORT $LN6@rebuild_we
  00208	83 7d e8 27	 cmp	 DWORD PTR _count$[ebp], 39 ; 00000027H
  0020c	74 40		 je	 SHORT $LN6@rebuild_we
  0020e	83 7d e8 21	 cmp	 DWORD PTR _count$[ebp], 33 ; 00000021H
  00212	74 3a		 je	 SHORT $LN6@rebuild_we
  00214	83 7d e8 22	 cmp	 DWORD PTR _count$[ebp], 34 ; 00000022H
  00218	74 34		 je	 SHORT $LN6@rebuild_we
  0021a	83 7d e8 23	 cmp	 DWORD PTR _count$[ebp], 35 ; 00000023H
  0021e	74 2e		 je	 SHORT $LN6@rebuild_we
  00220	83 7d e8 13	 cmp	 DWORD PTR _count$[ebp], 19 ; 00000013H
  00224	74 28		 je	 SHORT $LN6@rebuild_we
  00226	83 7d e8 14	 cmp	 DWORD PTR _count$[ebp], 20 ; 00000014H
  0022a	74 22		 je	 SHORT $LN6@rebuild_we
  0022c	83 7d e8 0f	 cmp	 DWORD PTR _count$[ebp], 15 ; 0000000fH
  00230	74 1c		 je	 SHORT $LN6@rebuild_we
  00232	83 7d e8 0d	 cmp	 DWORD PTR _count$[ebp], 13 ; 0000000dH
  00236	74 16		 je	 SHORT $LN6@rebuild_we
  00238	83 7d e8 33	 cmp	 DWORD PTR _count$[ebp], 51 ; 00000033H
  0023c	74 10		 je	 SHORT $LN6@rebuild_we
  0023e	83 7d e8 31	 cmp	 DWORD PTR _count$[ebp], 49 ; 00000031H
  00242	74 0a		 je	 SHORT $LN6@rebuild_we
  00244	83 7d e8 32	 cmp	 DWORD PTR _count$[ebp], 50 ; 00000032H
  00248	0f 85 97 01 00
	00		 jne	 $LN4@rebuild_we
$LN6@rebuild_we:

; 168  : 					(count == ENTITY_SUB_TYPE_WEAPON_VIKHR)
; 169  : 				)
; 170  : 			{
; 171  : 
; 172  : 				temp = add_to_pop_up_list (weapon_database[count].weapon_loading_list_name, weapon_type_list, NULL, ENTITY_INDEX_DONT_CARE, get_current_language_font (UI_FONT_ARIAL_14), ui_option_title_text_colour);

  0024e	a1 00 00 00 00	 mov	 eax, DWORD PTR ?ui_option_title_text_colour@@3UREAL_COLOUR@@A ; ui_option_title_text_colour
  00253	50		 push	 eax
  00254	6a 01		 push	 1
  00256	e8 00 00 00 00	 call	 ?get_current_language_font@@YG?AW4FONT_TYPES@@W41@@Z ; get_current_language_font
  0025b	50		 push	 eax
  0025c	6a ff		 push	 -1
  0025e	6a 00		 push	 0
  00260	8b 0d 00 00 00
	00		 mov	 ecx, DWORD PTR ?weapon_type_list@@3PAUUI_OBJECT@@A
  00266	51		 push	 ecx
  00267	69 55 e8 e0 00
	00 00		 imul	 edx, DWORD PTR _count$[ebp], 224
  0026e	8b 82 0c 00 00
	00		 mov	 eax, DWORD PTR ?weapon_database@@3PAUWEAPON_DATA@@A[edx+12]
  00274	50		 push	 eax
  00275	e8 00 00 00 00	 call	 ?add_to_pop_up_list@@YGPAUUI_OBJECT@@PBDPAU1@1HHUREAL_COLOUR@@@Z ; add_to_pop_up_list
  0027a	89 45 fc	 mov	 DWORD PTR _temp$[ebp], eax

; 173  : 
; 174  : 				sprintf (buff, "%d", log->side_log[side].weapon_usage[count][WEAPON_LOG_FIRED]);

  0027d	69 45 0c 4c 03
	00 00		 imul	 eax, DWORD PTR _side$[ebp], 844
  00284	8b 4d 08	 mov	 ecx, DWORD PTR _log$[ebp]
  00287	8d 54 01 0c	 lea	 edx, DWORD PTR [ecx+eax+12]
  0028b	8b 45 e8	 mov	 eax, DWORD PTR _count$[ebp]
  0028e	8d 8c c2 a8 00
	00 00		 lea	 ecx, DWORD PTR [edx+eax*8+168]
  00295	ba 04 00 00 00	 mov	 edx, 4
  0029a	6b c2 00	 imul	 eax, edx, 0
  0029d	8b 0c 01	 mov	 ecx, DWORD PTR [ecx+eax]
  002a0	51		 push	 ecx
  002a1	68 00 00 00 00	 push	 OFFSET ??_C@_02DPKJAMEF@?$CFd@
  002a6	8d 55 f4	 lea	 edx, DWORD PTR _buff$[ebp]
  002a9	52		 push	 edx
  002aa	e8 00 00 00 00	 call	 _sprintf
  002af	83 c4 0c	 add	 esp, 12			; 0000000cH

; 175  : 
; 176  : 				temp = add_to_pop_up_list (buff, weapon_fired_list, NULL, ENTITY_INDEX_DONT_CARE, get_current_language_font (UI_FONT_ARIAL_14), ui_option_title_text_colour);

  002b2	a1 00 00 00 00	 mov	 eax, DWORD PTR ?ui_option_title_text_colour@@3UREAL_COLOUR@@A ; ui_option_title_text_colour
  002b7	50		 push	 eax
  002b8	6a 01		 push	 1
  002ba	e8 00 00 00 00	 call	 ?get_current_language_font@@YG?AW4FONT_TYPES@@W41@@Z ; get_current_language_font
  002bf	50		 push	 eax
  002c0	6a ff		 push	 -1
  002c2	6a 00		 push	 0
  002c4	8b 0d 00 00 00
	00		 mov	 ecx, DWORD PTR ?weapon_fired_list@@3PAUUI_OBJECT@@A
  002ca	51		 push	 ecx
  002cb	8d 55 f4	 lea	 edx, DWORD PTR _buff$[ebp]
  002ce	52		 push	 edx
  002cf	e8 00 00 00 00	 call	 ?add_to_pop_up_list@@YGPAUUI_OBJECT@@PBDPAU1@1HHUREAL_COLOUR@@@Z ; add_to_pop_up_list
  002d4	89 45 fc	 mov	 DWORD PTR _temp$[ebp], eax

; 177  : 
; 178  : 				sprintf (buff, "%d", log->side_log[side].weapon_usage[count][WEAPON_LOG_HIT]);

  002d7	69 45 0c 4c 03
	00 00		 imul	 eax, DWORD PTR _side$[ebp], 844
  002de	8b 4d 08	 mov	 ecx, DWORD PTR _log$[ebp]
  002e1	8d 54 01 0c	 lea	 edx, DWORD PTR [ecx+eax+12]
  002e5	8b 45 e8	 mov	 eax, DWORD PTR _count$[ebp]
  002e8	8d 8c c2 a8 00
	00 00		 lea	 ecx, DWORD PTR [edx+eax*8+168]
  002ef	ba 04 00 00 00	 mov	 edx, 4
  002f4	c1 e2 00	 shl	 edx, 0
  002f7	8b 04 11	 mov	 eax, DWORD PTR [ecx+edx]
  002fa	50		 push	 eax
  002fb	68 00 00 00 00	 push	 OFFSET ??_C@_02DPKJAMEF@?$CFd@
  00300	8d 4d f4	 lea	 ecx, DWORD PTR _buff$[ebp]
  00303	51		 push	 ecx
  00304	e8 00 00 00 00	 call	 _sprintf
  00309	83 c4 0c	 add	 esp, 12			; 0000000cH

; 179  : 
; 180  : 				temp = add_to_pop_up_list (buff, weapon_hit_list, NULL, ENTITY_INDEX_DONT_CARE, get_current_language_font (UI_FONT_ARIAL_14), ui_option_title_text_colour);

  0030c	a1 00 00 00 00	 mov	 eax, DWORD PTR ?ui_option_title_text_colour@@3UREAL_COLOUR@@A ; ui_option_title_text_colour
  00311	50		 push	 eax
  00312	6a 01		 push	 1
  00314	e8 00 00 00 00	 call	 ?get_current_language_font@@YG?AW4FONT_TYPES@@W41@@Z ; get_current_language_font
  00319	50		 push	 eax
  0031a	6a ff		 push	 -1
  0031c	6a 00		 push	 0
  0031e	8b 0d 00 00 00
	00		 mov	 ecx, DWORD PTR ?weapon_hit_list@@3PAUUI_OBJECT@@A
  00324	51		 push	 ecx
  00325	8d 55 f4	 lea	 edx, DWORD PTR _buff$[ebp]
  00328	52		 push	 edx
  00329	e8 00 00 00 00	 call	 ?add_to_pop_up_list@@YGPAUUI_OBJECT@@PBDPAU1@1HHUREAL_COLOUR@@@Z ; add_to_pop_up_list
  0032e	89 45 fc	 mov	 DWORD PTR _temp$[ebp], eax

; 181  : 
; 182  : 				if (log->side_log[side].weapon_usage[count][WEAPON_LOG_FIRED])

  00331	69 45 0c 4c 03
	00 00		 imul	 eax, DWORD PTR _side$[ebp], 844
  00338	8b 4d 08	 mov	 ecx, DWORD PTR _log$[ebp]
  0033b	8d 54 01 0c	 lea	 edx, DWORD PTR [ecx+eax+12]
  0033f	8b 45 e8	 mov	 eax, DWORD PTR _count$[ebp]
  00342	8d 8c c2 a8 00
	00 00		 lea	 ecx, DWORD PTR [edx+eax*8+168]
  00349	ba 04 00 00 00	 mov	 edx, 4
  0034e	6b c2 00	 imul	 eax, edx, 0
  00351	83 3c 01 00	 cmp	 DWORD PTR [ecx+eax], 0
  00355	74 4d		 je	 SHORT $LN7@rebuild_we

; 183  : 				{
; 184  : 					eff = (int) ((100 * log->side_log[side].weapon_usage[count][WEAPON_LOG_HIT]) / log->side_log[side].weapon_usage[count][WEAPON_LOG_FIRED]);

  00357	69 45 0c 4c 03
	00 00		 imul	 eax, DWORD PTR _side$[ebp], 844
  0035e	8b 4d 08	 mov	 ecx, DWORD PTR _log$[ebp]
  00361	8d 54 01 0c	 lea	 edx, DWORD PTR [ecx+eax+12]
  00365	8b 45 e8	 mov	 eax, DWORD PTR _count$[ebp]
  00368	8d 8c c2 a8 00
	00 00		 lea	 ecx, DWORD PTR [edx+eax*8+168]
  0036f	ba 04 00 00 00	 mov	 edx, 4
  00374	c1 e2 00	 shl	 edx, 0
  00377	6b 04 11 64	 imul	 eax, DWORD PTR [ecx+edx], 100
  0037b	69 4d 0c 4c 03
	00 00		 imul	 ecx, DWORD PTR _side$[ebp], 844
  00382	8b 55 08	 mov	 edx, DWORD PTR _log$[ebp]
  00385	8d 4c 0a 0c	 lea	 ecx, DWORD PTR [edx+ecx+12]
  00389	8b 55 e8	 mov	 edx, DWORD PTR _count$[ebp]
  0038c	8d 8c d1 a8 00
	00 00		 lea	 ecx, DWORD PTR [ecx+edx*8+168]
  00393	ba 04 00 00 00	 mov	 edx, 4
  00398	6b f2 00	 imul	 esi, edx, 0
  0039b	99		 cdq
  0039c	f7 3c 31	 idiv	 DWORD PTR [ecx+esi]
  0039f	89 45 f0	 mov	 DWORD PTR _eff$[ebp], eax

; 185  : 				}
; 186  : 				else

  003a2	eb 07		 jmp	 SHORT $LN8@rebuild_we
$LN7@rebuild_we:

; 187  : 				{
; 188  : 					eff = 0;

  003a4	c7 45 f0 00 00
	00 00		 mov	 DWORD PTR _eff$[ebp], 0
$LN8@rebuild_we:

; 189  : 				}
; 190  : 
; 191  : 				sprintf (buff, "%d%%", eff);

  003ab	8b 45 f0	 mov	 eax, DWORD PTR _eff$[ebp]
  003ae	50		 push	 eax
  003af	68 00 00 00 00	 push	 OFFSET ??_C@_04FCMNJMCO@?$CFd?$CF?$CF@
  003b4	8d 4d f4	 lea	 ecx, DWORD PTR _buff$[ebp]
  003b7	51		 push	 ecx
  003b8	e8 00 00 00 00	 call	 _sprintf
  003bd	83 c4 0c	 add	 esp, 12			; 0000000cH

; 192  : 
; 193  : 				temp = add_to_pop_up_list (buff, weapon_eff_list, NULL, ENTITY_INDEX_DONT_CARE, get_current_language_font (UI_FONT_ARIAL_14), ui_option_title_text_colour);

  003c0	a1 00 00 00 00	 mov	 eax, DWORD PTR ?ui_option_title_text_colour@@3UREAL_COLOUR@@A ; ui_option_title_text_colour
  003c5	50		 push	 eax
  003c6	6a 01		 push	 1
  003c8	e8 00 00 00 00	 call	 ?get_current_language_font@@YG?AW4FONT_TYPES@@W41@@Z ; get_current_language_font
  003cd	50		 push	 eax
  003ce	6a ff		 push	 -1
  003d0	6a 00		 push	 0
  003d2	8b 0d 00 00 00
	00		 mov	 ecx, DWORD PTR ?weapon_eff_list@@3PAUUI_OBJECT@@A
  003d8	51		 push	 ecx
  003d9	8d 55 f4	 lea	 edx, DWORD PTR _buff$[ebp]
  003dc	52		 push	 edx
  003dd	e8 00 00 00 00	 call	 ?add_to_pop_up_list@@YGPAUUI_OBJECT@@PBDPAU1@1HHUREAL_COLOUR@@@Z ; add_to_pop_up_list
  003e2	89 45 fc	 mov	 DWORD PTR _temp$[ebp], eax
$LN4@rebuild_we:

; 194  : 
; 195  : 			}
; 196  : 		}
; 197  : 
; 198  : 		count++;

  003e5	8b 45 e8	 mov	 eax, DWORD PTR _count$[ebp]
  003e8	83 c0 01	 add	 eax, 1
  003eb	89 45 e8	 mov	 DWORD PTR _count$[ebp], eax

; 199  : 	}

  003ee	e9 91 fd ff ff	 jmp	 $LN2@rebuild_we
$LN1@rebuild_we:

; 200  : 
; 201  : }

  003f3	5f		 pop	 edi
  003f4	5e		 pop	 esi
  003f5	5b		 pop	 ebx
  003f6	8b e5		 mov	 esp, ebp
  003f8	5d		 pop	 ebp
  003f9	c2 08 00	 ret	 8
?rebuild_weapon_log_list@@YGXPAUPLAYER_LOG_TYPE@@H@Z ENDP ; rebuild_weapon_log_list
_TEXT	ENDS
; Function compile flags: /Odtp /ZI
; File c:\users\nhv90\projects\eech\aphavoc\source\ui_menu\player\play_wp.c
;	COMDAT ?define_weapon_log_page_objects@@YGXXZ
_TEXT	SEGMENT
_page$ = -20						; size = 4
_y2$ = -16						; size = 4
_x2$ = -12						; size = 4
_y1$ = -8						; size = 4
_x1$ = -4						; size = 4
?define_weapon_log_page_objects@@YGXXZ PROC		; define_weapon_log_page_objects, COMDAT

; 208  : {

  00000	55		 push	 ebp
  00001	8b ec		 mov	 ebp, esp
  00003	83 ec 54	 sub	 esp, 84			; 00000054H
  00006	53		 push	 ebx
  00007	56		 push	 esi
  00008	57		 push	 edi

; 209  : 
; 210  : 	float
; 211  : 		x1,
; 212  : 		y1,
; 213  : 		x2,
; 214  : 		y2;
; 215  : 
; 216  : 	ui_object
; 217  : 		*page;
; 218  : 
; 219  : 	/////////////////////////////////////////////////////////////////
; 220  : 	// Weapon Log Area
; 221  : 
; 222  : 	x1 = 0.511;

  00009	f3 0f 10 05 00
	00 00 00	 movss	 xmm0, DWORD PTR __real@3f02d0e5
  00011	f3 0f 11 45 fc	 movss	 DWORD PTR _x1$[ebp], xmm0

; 223  : 	x1 = 0.470;

  00016	f3 0f 10 05 00
	00 00 00	 movss	 xmm0, DWORD PTR __real@3ef0a3d7
  0001e	f3 0f 11 45 fc	 movss	 DWORD PTR _x1$[ebp], xmm0

; 224  : 	y1 = 0.332;

  00023	f3 0f 10 05 00
	00 00 00	 movss	 xmm0, DWORD PTR __real@3ea9fbe7
  0002b	f3 0f 11 45 f8	 movss	 DWORD PTR _y1$[ebp], xmm0

; 225  : 	x2 = 0.489;

  00030	f3 0f 10 05 00
	00 00 00	 movss	 xmm0, DWORD PTR __real@3efa5e35
  00038	f3 0f 11 45 f4	 movss	 DWORD PTR _x2$[ebp], xmm0

; 226  : 	x2 = 0.530;

  0003d	f3 0f 10 05 00
	00 00 00	 movss	 xmm0, DWORD PTR __real@3f07ae14
  00045	f3 0f 11 45 f4	 movss	 DWORD PTR _x2$[ebp], xmm0

; 227  : 	y2 = 0.350;

  0004a	f3 0f 10 05 00
	00 00 00	 movss	 xmm0, DWORD PTR __real@3eb33333
  00052	f3 0f 11 45 f0	 movss	 DWORD PTR _y2$[ebp], xmm0

; 228  : 
; 229  : 	log_page [LOG_PAGE_WEAPON] = create_ui_object

  00057	6a 11		 push	 17			; 00000011H
  00059	6a 00		 push	 0
  0005b	6a 10		 push	 16			; 00000010H
  0005d	6a 01		 push	 1
  0005f	6a 07		 push	 7
  00061	f3 0f 5a 45 f0	 cvtss2sd xmm0, DWORD PTR _y2$[ebp]
  00066	83 ec 08	 sub	 esp, 8
  00069	f2 0f 11 04 24	 movsd	 QWORD PTR [esp], xmm0
  0006e	f3 0f 5a 45 f4	 cvtss2sd xmm0, DWORD PTR _x2$[ebp]
  00073	83 ec 08	 sub	 esp, 8
  00076	f2 0f 11 04 24	 movsd	 QWORD PTR [esp], xmm0
  0007b	6a 59		 push	 89			; 00000059H
  0007d	f3 0f 5a 45 f8	 cvtss2sd xmm0, DWORD PTR _y1$[ebp]
  00082	83 ec 08	 sub	 esp, 8
  00085	f2 0f 11 04 24	 movsd	 QWORD PTR [esp], xmm0
  0008a	f3 0f 5a 45 fc	 cvtss2sd xmm0, DWORD PTR _x1$[ebp]
  0008f	83 ec 08	 sub	 esp, 8
  00092	f2 0f 11 04 24	 movsd	 QWORD PTR [esp], xmm0
  00097	6a 58		 push	 88			; 00000058H
  00099	a1 00 00 00 00	 mov	 eax, DWORD PTR ?select_player_screen@@3PAUUI_OBJECT@@A ; select_player_screen
  0009e	50		 push	 eax
  0009f	6a 32		 push	 50			; 00000032H
  000a1	6a 01		 push	 1
  000a3	e8 00 00 00 00	 call	 ?create_ui_object@@YAPAUUI_OBJECT@@HZZ ; create_ui_object
  000a8	83 c4 48	 add	 esp, 72			; 00000048H
  000ab	b9 04 00 00 00	 mov	 ecx, 4
  000b0	c1 e1 00	 shl	 ecx, 0
  000b3	89 81 00 00 00
	00		 mov	 DWORD PTR ?log_page@@3PAPAUUI_OBJECT@@A[ecx], eax

; 230  : 			(
; 231  : 				UI_TYPE_AREA,
; 232  : 				UI_ATTR_PARENT (select_player_screen),
; 233  : 				UI_ATTR_VIRTUAL_POSITION (x1, y1),
; 234  : 				UI_ATTR_VIRTUAL_SIZE (x2, y2),
; 235  : 				UI_ATTR_CLEAR (TRUE),
; 236  : 				UI_ATTR_DRAWABLE (FALSE),
; 237  : 				UI_ATTR_END
; 238  : 			);
; 239  : 
; 240  : 	page = log_page [LOG_PAGE_WEAPON];

  000b9	b8 04 00 00 00	 mov	 eax, 4
  000be	c1 e0 00	 shl	 eax, 0
  000c1	8b 88 00 00 00
	00		 mov	 ecx, DWORD PTR ?log_page@@3PAPAUUI_OBJECT@@A[eax]
  000c7	89 4d ec	 mov	 DWORD PTR _page$[ebp], ecx

; 241  : 
; 242  : 	/////////////////////////////////////////////////////////////////
; 243  : 	// Weapon List Area
; 244  : 
; 245  : 	x1 = 0.0;

  000ca	0f 57 c0	 xorps	 xmm0, xmm0
  000cd	f3 0f 11 45 fc	 movss	 DWORD PTR _x1$[ebp], xmm0

; 246  : 	y1 = 0.0;

  000d2	0f 57 c0	 xorps	 xmm0, xmm0
  000d5	f3 0f 11 45 f8	 movss	 DWORD PTR _y1$[ebp], xmm0

; 247  : 	x2 = 1.0;

  000da	f3 0f 10 05 00
	00 00 00	 movss	 xmm0, DWORD PTR __real@3f800000
  000e2	f3 0f 11 45 f4	 movss	 DWORD PTR _x2$[ebp], xmm0

; 248  : 	y2 = 1.0;

  000e7	f3 0f 10 05 00
	00 00 00	 movss	 xmm0, DWORD PTR __real@3f800000
  000ef	f3 0f 11 45 f0	 movss	 DWORD PTR _y2$[ebp], xmm0

; 249  : 
; 250  : 	weapon_list_area = create_ui_object

  000f4	6a 11		 push	 17			; 00000011H
  000f6	6a 01		 push	 1
  000f8	6a 07		 push	 7
  000fa	f3 0f 5a 45 f0	 cvtss2sd xmm0, DWORD PTR _y2$[ebp]
  000ff	83 ec 08	 sub	 esp, 8
  00102	f2 0f 11 04 24	 movsd	 QWORD PTR [esp], xmm0
  00107	f3 0f 5a 45 f4	 cvtss2sd xmm0, DWORD PTR _x2$[ebp]
  0010c	83 ec 08	 sub	 esp, 8
  0010f	f2 0f 11 04 24	 movsd	 QWORD PTR [esp], xmm0
  00114	6a 59		 push	 89			; 00000059H
  00116	f3 0f 5a 45 f8	 cvtss2sd xmm0, DWORD PTR _y1$[ebp]
  0011b	83 ec 08	 sub	 esp, 8
  0011e	f2 0f 11 04 24	 movsd	 QWORD PTR [esp], xmm0
  00123	f3 0f 5a 45 fc	 cvtss2sd xmm0, DWORD PTR _x1$[ebp]
  00128	83 ec 08	 sub	 esp, 8
  0012b	f2 0f 11 04 24	 movsd	 QWORD PTR [esp], xmm0
  00130	6a 58		 push	 88			; 00000058H
  00132	8b 45 ec	 mov	 eax, DWORD PTR _page$[ebp]
  00135	50		 push	 eax
  00136	6a 32		 push	 50			; 00000032H
  00138	6a 01		 push	 1
  0013a	e8 00 00 00 00	 call	 ?create_ui_object@@YAPAUUI_OBJECT@@HZZ ; create_ui_object
  0013f	83 c4 40	 add	 esp, 64			; 00000040H
  00142	a3 00 00 00 00	 mov	 DWORD PTR ?weapon_list_area@@3PAUUI_OBJECT@@A, eax

; 251  : 			(
; 252  : 				UI_TYPE_AREA,
; 253  : 				UI_ATTR_PARENT (page),
; 254  : 				UI_ATTR_VIRTUAL_POSITION (x1, y1),
; 255  : 				UI_ATTR_VIRTUAL_SIZE (x2, y2),
; 256  : 				UI_ATTR_CLEAR (TRUE),
; 257  : 				UI_ATTR_END
; 258  : 			);
; 259  : 
; 260  : 	/////////////////////////////////////////////////////////////////
; 261  : 	// Weapon Type List Object
; 262  : 
; 263  : 	x1 = 0.1;

  00147	f3 0f 10 05 00
	00 00 00	 movss	 xmm0, DWORD PTR __real@3dcccccd
  0014f	f3 0f 11 45 fc	 movss	 DWORD PTR _x1$[ebp], xmm0

; 264  : 	y1 = 0.0;

  00154	0f 57 c0	 xorps	 xmm0, xmm0
  00157	f3 0f 11 45 f8	 movss	 DWORD PTR _y1$[ebp], xmm0

; 265  : 	x2 = 0.250;

  0015c	f3 0f 10 05 00
	00 00 00	 movss	 xmm0, DWORD PTR __real@3e800000
  00164	f3 0f 11 45 f4	 movss	 DWORD PTR _x2$[ebp], xmm0

; 266  : 	y2 = 1.0;

  00169	f3 0f 10 05 00
	00 00 00	 movss	 xmm0, DWORD PTR __real@3f800000
  00171	f3 0f 11 45 f0	 movss	 DWORD PTR _y2$[ebp], xmm0

; 267  : 
; 268  : 	weapon_type_list = create_ui_object

  00176	6a 11		 push	 17			; 00000011H
  00178	6a 00		 push	 0
  0017a	6a 2f		 push	 47			; 0000002fH
  0017c	6a fe		 push	 -2			; fffffffeH
  0017e	6a 29		 push	 41			; 00000029H
  00180	6a 01		 push	 1
  00182	e8 00 00 00 00	 call	 ?get_current_language_font@@YG?AW4FONT_TYPES@@W41@@Z ; get_current_language_font
  00187	50		 push	 eax
  00188	6a 12		 push	 18			; 00000012H
  0018a	6a 01		 push	 1
  0018c	6a 07		 push	 7
  0018e	f3 0f 5a 45 f0	 cvtss2sd xmm0, DWORD PTR _y2$[ebp]
  00193	83 ec 08	 sub	 esp, 8
  00196	f2 0f 11 04 24	 movsd	 QWORD PTR [esp], xmm0
  0019b	f3 0f 5a 45 f4	 cvtss2sd xmm0, DWORD PTR _x2$[ebp]
  001a0	83 ec 08	 sub	 esp, 8
  001a3	f2 0f 11 04 24	 movsd	 QWORD PTR [esp], xmm0
  001a8	6a 59		 push	 89			; 00000059H
  001aa	f3 0f 5a 45 f8	 cvtss2sd xmm0, DWORD PTR _y1$[ebp]
  001af	83 ec 08	 sub	 esp, 8
  001b2	f2 0f 11 04 24	 movsd	 QWORD PTR [esp], xmm0
  001b7	f3 0f 5a 45 fc	 cvtss2sd xmm0, DWORD PTR _x1$[ebp]
  001bc	83 ec 08	 sub	 esp, 8
  001bf	f2 0f 11 04 24	 movsd	 QWORD PTR [esp], xmm0
  001c4	6a 58		 push	 88			; 00000058H
  001c6	a1 00 00 00 00	 mov	 eax, DWORD PTR ?weapon_list_area@@3PAUUI_OBJECT@@A
  001cb	50		 push	 eax
  001cc	6a 32		 push	 50			; 00000032H
  001ce	6a 0d		 push	 13			; 0000000dH
  001d0	e8 00 00 00 00	 call	 ?create_ui_object@@YAPAUUI_OBJECT@@HZZ ; create_ui_object
  001d5	83 c4 58	 add	 esp, 88			; 00000058H
  001d8	a3 00 00 00 00	 mov	 DWORD PTR ?weapon_type_list@@3PAUUI_OBJECT@@A, eax

; 269  : 				(
; 270  : 					UI_TYPE_LIST_BOX,
; 271  : 					UI_ATTR_PARENT (weapon_list_area),
; 272  : 					UI_ATTR_VIRTUAL_POSITION (x1, y1),
; 273  : 					UI_ATTR_VIRTUAL_SIZE (x2, y2),
; 274  : 					UI_ATTR_CLEAR (TRUE),
; 275  : 					UI_ATTR_FONT_TYPE (get_current_language_font (UI_FONT_ARIAL_14)),
; 276  : 					UI_ATTR_ITEM_NUMBER (-2),
; 277  : 					UI_ATTR_NOTIFY_ON (NOTIFY_TYPE_NONE),
; 278  : 					UI_ATTR_END
; 279  : 				);
; 280  : 
; 281  : 	set_ui_list_spacing_proportional_to_font (weapon_type_list, -0.2);

  001dd	51		 push	 ecx
  001de	f3 0f 10 05 00
	00 00 00	 movss	 xmm0, DWORD PTR __real@be4ccccd
  001e6	f3 0f 11 04 24	 movss	 DWORD PTR [esp], xmm0
  001eb	a1 00 00 00 00	 mov	 eax, DWORD PTR ?weapon_type_list@@3PAUUI_OBJECT@@A
  001f0	50		 push	 eax
  001f1	e8 00 00 00 00	 call	 ?set_ui_list_spacing_proportional_to_font@@YGXPAUUI_OBJECT@@M@Z ; set_ui_list_spacing_proportional_to_font

; 282  : 
; 283  : 	/////////////////////////////////////////////////////////////////
; 284  : 	// Weapon Fired List Object
; 285  : 
; 286  : 	x1 = 0.35;

  001f6	f3 0f 10 05 00
	00 00 00	 movss	 xmm0, DWORD PTR __real@3eb33333
  001fe	f3 0f 11 45 fc	 movss	 DWORD PTR _x1$[ebp], xmm0

; 287  : 	y1 = 0.0;

  00203	0f 57 c0	 xorps	 xmm0, xmm0
  00206	f3 0f 11 45 f8	 movss	 DWORD PTR _y1$[ebp], xmm0

; 288  : 	x2 = 0.250;

  0020b	f3 0f 10 05 00
	00 00 00	 movss	 xmm0, DWORD PTR __real@3e800000
  00213	f3 0f 11 45 f4	 movss	 DWORD PTR _x2$[ebp], xmm0

; 289  : 	y2 = 1.0;

  00218	f3 0f 10 05 00
	00 00 00	 movss	 xmm0, DWORD PTR __real@3f800000
  00220	f3 0f 11 45 f0	 movss	 DWORD PTR _y2$[ebp], xmm0

; 290  : 
; 291  : 	weapon_fired_list = create_ui_object

  00225	6a 11		 push	 17			; 00000011H
  00227	6a 00		 push	 0
  00229	6a 2f		 push	 47			; 0000002fH
  0022b	6a fe		 push	 -2			; fffffffeH
  0022d	6a 29		 push	 41			; 00000029H
  0022f	6a 01		 push	 1
  00231	e8 00 00 00 00	 call	 ?get_current_language_font@@YG?AW4FONT_TYPES@@W41@@Z ; get_current_language_font
  00236	50		 push	 eax
  00237	6a 12		 push	 18			; 00000012H
  00239	6a 01		 push	 1
  0023b	6a 07		 push	 7
  0023d	f3 0f 5a 45 f0	 cvtss2sd xmm0, DWORD PTR _y2$[ebp]
  00242	83 ec 08	 sub	 esp, 8
  00245	f2 0f 11 04 24	 movsd	 QWORD PTR [esp], xmm0
  0024a	f3 0f 5a 45 f4	 cvtss2sd xmm0, DWORD PTR _x2$[ebp]
  0024f	83 ec 08	 sub	 esp, 8
  00252	f2 0f 11 04 24	 movsd	 QWORD PTR [esp], xmm0
  00257	6a 59		 push	 89			; 00000059H
  00259	f3 0f 5a 45 f8	 cvtss2sd xmm0, DWORD PTR _y1$[ebp]
  0025e	83 ec 08	 sub	 esp, 8
  00261	f2 0f 11 04 24	 movsd	 QWORD PTR [esp], xmm0
  00266	f3 0f 5a 45 fc	 cvtss2sd xmm0, DWORD PTR _x1$[ebp]
  0026b	83 ec 08	 sub	 esp, 8
  0026e	f2 0f 11 04 24	 movsd	 QWORD PTR [esp], xmm0
  00273	6a 58		 push	 88			; 00000058H
  00275	a1 00 00 00 00	 mov	 eax, DWORD PTR ?weapon_list_area@@3PAUUI_OBJECT@@A
  0027a	50		 push	 eax
  0027b	6a 32		 push	 50			; 00000032H
  0027d	6a 0d		 push	 13			; 0000000dH
  0027f	e8 00 00 00 00	 call	 ?create_ui_object@@YAPAUUI_OBJECT@@HZZ ; create_ui_object
  00284	83 c4 58	 add	 esp, 88			; 00000058H
  00287	a3 00 00 00 00	 mov	 DWORD PTR ?weapon_fired_list@@3PAUUI_OBJECT@@A, eax

; 292  : 				(
; 293  : 					UI_TYPE_LIST_BOX,
; 294  : 					UI_ATTR_PARENT (weapon_list_area),
; 295  : 					UI_ATTR_VIRTUAL_POSITION (x1, y1),
; 296  : 					UI_ATTR_VIRTUAL_SIZE (x2, y2),
; 297  : 					UI_ATTR_CLEAR (TRUE),
; 298  : 					UI_ATTR_FONT_TYPE (get_current_language_font (UI_FONT_ARIAL_14)),
; 299  : 					UI_ATTR_ITEM_NUMBER (-2),
; 300  : 					UI_ATTR_NOTIFY_ON (NOTIFY_TYPE_NONE),
; 301  : 					UI_ATTR_END
; 302  : 				);
; 303  : 
; 304  : 	set_ui_list_spacing_proportional_to_font (weapon_fired_list, -0.2);

  0028c	51		 push	 ecx
  0028d	f3 0f 10 05 00
	00 00 00	 movss	 xmm0, DWORD PTR __real@be4ccccd
  00295	f3 0f 11 04 24	 movss	 DWORD PTR [esp], xmm0
  0029a	a1 00 00 00 00	 mov	 eax, DWORD PTR ?weapon_fired_list@@3PAUUI_OBJECT@@A
  0029f	50		 push	 eax
  002a0	e8 00 00 00 00	 call	 ?set_ui_list_spacing_proportional_to_font@@YGXPAUUI_OBJECT@@M@Z ; set_ui_list_spacing_proportional_to_font

; 305  : 
; 306  : 	/////////////////////////////////////////////////////////////////
; 307  : 	// Weapon Hit List Object
; 308  : 
; 309  : 	x1 = 0.6;

  002a5	f3 0f 10 05 00
	00 00 00	 movss	 xmm0, DWORD PTR __real@3f19999a
  002ad	f3 0f 11 45 fc	 movss	 DWORD PTR _x1$[ebp], xmm0

; 310  : 	y1 = 0.0;

  002b2	0f 57 c0	 xorps	 xmm0, xmm0
  002b5	f3 0f 11 45 f8	 movss	 DWORD PTR _y1$[ebp], xmm0

; 311  : 	x2 = 0.240;

  002ba	f3 0f 10 05 00
	00 00 00	 movss	 xmm0, DWORD PTR __real@3e75c28f
  002c2	f3 0f 11 45 f4	 movss	 DWORD PTR _x2$[ebp], xmm0

; 312  : 	y2 = 1.0;

  002c7	f3 0f 10 05 00
	00 00 00	 movss	 xmm0, DWORD PTR __real@3f800000
  002cf	f3 0f 11 45 f0	 movss	 DWORD PTR _y2$[ebp], xmm0

; 313  : 
; 314  : 	weapon_hit_list = create_ui_object

  002d4	6a 11		 push	 17			; 00000011H
  002d6	6a 00		 push	 0
  002d8	6a 2f		 push	 47			; 0000002fH
  002da	6a fe		 push	 -2			; fffffffeH
  002dc	6a 29		 push	 41			; 00000029H
  002de	6a 01		 push	 1
  002e0	e8 00 00 00 00	 call	 ?get_current_language_font@@YG?AW4FONT_TYPES@@W41@@Z ; get_current_language_font
  002e5	50		 push	 eax
  002e6	6a 12		 push	 18			; 00000012H
  002e8	6a 01		 push	 1
  002ea	6a 07		 push	 7
  002ec	f3 0f 5a 45 f0	 cvtss2sd xmm0, DWORD PTR _y2$[ebp]
  002f1	83 ec 08	 sub	 esp, 8
  002f4	f2 0f 11 04 24	 movsd	 QWORD PTR [esp], xmm0
  002f9	f3 0f 5a 45 f4	 cvtss2sd xmm0, DWORD PTR _x2$[ebp]
  002fe	83 ec 08	 sub	 esp, 8
  00301	f2 0f 11 04 24	 movsd	 QWORD PTR [esp], xmm0
  00306	6a 59		 push	 89			; 00000059H
  00308	f3 0f 5a 45 f8	 cvtss2sd xmm0, DWORD PTR _y1$[ebp]
  0030d	83 ec 08	 sub	 esp, 8
  00310	f2 0f 11 04 24	 movsd	 QWORD PTR [esp], xmm0
  00315	f3 0f 5a 45 fc	 cvtss2sd xmm0, DWORD PTR _x1$[ebp]
  0031a	83 ec 08	 sub	 esp, 8
  0031d	f2 0f 11 04 24	 movsd	 QWORD PTR [esp], xmm0
  00322	6a 58		 push	 88			; 00000058H
  00324	a1 00 00 00 00	 mov	 eax, DWORD PTR ?weapon_list_area@@3PAUUI_OBJECT@@A
  00329	50		 push	 eax
  0032a	6a 32		 push	 50			; 00000032H
  0032c	6a 0d		 push	 13			; 0000000dH
  0032e	e8 00 00 00 00	 call	 ?create_ui_object@@YAPAUUI_OBJECT@@HZZ ; create_ui_object
  00333	83 c4 58	 add	 esp, 88			; 00000058H
  00336	a3 00 00 00 00	 mov	 DWORD PTR ?weapon_hit_list@@3PAUUI_OBJECT@@A, eax

; 315  : 				(
; 316  : 					UI_TYPE_LIST_BOX,
; 317  : 					UI_ATTR_PARENT (weapon_list_area),
; 318  : 					UI_ATTR_VIRTUAL_POSITION (x1, y1),
; 319  : 					UI_ATTR_VIRTUAL_SIZE (x2, y2),
; 320  : 					UI_ATTR_CLEAR (TRUE),
; 321  : 					UI_ATTR_FONT_TYPE (get_current_language_font (UI_FONT_ARIAL_14)),
; 322  : 					UI_ATTR_ITEM_NUMBER (-2),
; 323  : 					UI_ATTR_NOTIFY_ON (NOTIFY_TYPE_NONE),
; 324  : 					UI_ATTR_END
; 325  : 				);
; 326  : 
; 327  : 	set_ui_list_spacing_proportional_to_font (weapon_hit_list, -0.2);

  0033b	51		 push	 ecx
  0033c	f3 0f 10 05 00
	00 00 00	 movss	 xmm0, DWORD PTR __real@be4ccccd
  00344	f3 0f 11 04 24	 movss	 DWORD PTR [esp], xmm0
  00349	a1 00 00 00 00	 mov	 eax, DWORD PTR ?weapon_hit_list@@3PAUUI_OBJECT@@A
  0034e	50		 push	 eax
  0034f	e8 00 00 00 00	 call	 ?set_ui_list_spacing_proportional_to_font@@YGXPAUUI_OBJECT@@M@Z ; set_ui_list_spacing_proportional_to_font

; 328  : 
; 329  : 	/////////////////////////////////////////////////////////////////
; 330  : 	// Weapon Eff List Object
; 331  : 
; 332  : 	x1 = 0.739;

  00354	f3 0f 10 05 00
	00 00 00	 movss	 xmm0, DWORD PTR __real@3f3d2f1b
  0035c	f3 0f 11 45 fc	 movss	 DWORD PTR _x1$[ebp], xmm0

; 333  : 	x1 = 0.840;

  00361	f3 0f 10 05 00
	00 00 00	 movss	 xmm0, DWORD PTR __real@3f570a3d
  00369	f3 0f 11 45 fc	 movss	 DWORD PTR _x1$[ebp], xmm0

; 334  : 	y1 = 0.0;

  0036e	0f 57 c0	 xorps	 xmm0, xmm0
  00371	f3 0f 11 45 f8	 movss	 DWORD PTR _y1$[ebp], xmm0

; 335  : 	x2 = 0.140;

  00376	f3 0f 10 05 00
	00 00 00	 movss	 xmm0, DWORD PTR __real@3e0f5c29
  0037e	f3 0f 11 45 f4	 movss	 DWORD PTR _x2$[ebp], xmm0

; 336  : 	y2 = 1.0;

  00383	f3 0f 10 05 00
	00 00 00	 movss	 xmm0, DWORD PTR __real@3f800000
  0038b	f3 0f 11 45 f0	 movss	 DWORD PTR _y2$[ebp], xmm0

; 337  : 
; 338  : 	weapon_eff_list = create_ui_object

  00390	6a 11		 push	 17			; 00000011H
  00392	6a 00		 push	 0
  00394	6a 2f		 push	 47			; 0000002fH
  00396	6a fe		 push	 -2			; fffffffeH
  00398	6a 29		 push	 41			; 00000029H
  0039a	6a 01		 push	 1
  0039c	e8 00 00 00 00	 call	 ?get_current_language_font@@YG?AW4FONT_TYPES@@W41@@Z ; get_current_language_font
  003a1	50		 push	 eax
  003a2	6a 12		 push	 18			; 00000012H
  003a4	6a 01		 push	 1
  003a6	6a 07		 push	 7
  003a8	f3 0f 5a 45 f0	 cvtss2sd xmm0, DWORD PTR _y2$[ebp]
  003ad	83 ec 08	 sub	 esp, 8
  003b0	f2 0f 11 04 24	 movsd	 QWORD PTR [esp], xmm0
  003b5	f3 0f 5a 45 f4	 cvtss2sd xmm0, DWORD PTR _x2$[ebp]
  003ba	83 ec 08	 sub	 esp, 8
  003bd	f2 0f 11 04 24	 movsd	 QWORD PTR [esp], xmm0
  003c2	6a 59		 push	 89			; 00000059H
  003c4	f3 0f 5a 45 f8	 cvtss2sd xmm0, DWORD PTR _y1$[ebp]
  003c9	83 ec 08	 sub	 esp, 8
  003cc	f2 0f 11 04 24	 movsd	 QWORD PTR [esp], xmm0
  003d1	f3 0f 5a 45 fc	 cvtss2sd xmm0, DWORD PTR _x1$[ebp]
  003d6	83 ec 08	 sub	 esp, 8
  003d9	f2 0f 11 04 24	 movsd	 QWORD PTR [esp], xmm0
  003de	6a 58		 push	 88			; 00000058H
  003e0	a1 00 00 00 00	 mov	 eax, DWORD PTR ?weapon_list_area@@3PAUUI_OBJECT@@A
  003e5	50		 push	 eax
  003e6	6a 32		 push	 50			; 00000032H
  003e8	6a 0d		 push	 13			; 0000000dH
  003ea	e8 00 00 00 00	 call	 ?create_ui_object@@YAPAUUI_OBJECT@@HZZ ; create_ui_object
  003ef	83 c4 58	 add	 esp, 88			; 00000058H
  003f2	a3 00 00 00 00	 mov	 DWORD PTR ?weapon_eff_list@@3PAUUI_OBJECT@@A, eax

; 339  : 				(
; 340  : 					UI_TYPE_LIST_BOX,
; 341  : 					UI_ATTR_PARENT (weapon_list_area),
; 342  : 					UI_ATTR_VIRTUAL_POSITION (x1, y1),
; 343  : 					UI_ATTR_VIRTUAL_SIZE (x2, y2),
; 344  : 					UI_ATTR_CLEAR (TRUE),
; 345  : 					UI_ATTR_FONT_TYPE (get_current_language_font (UI_FONT_ARIAL_14)),
; 346  : 					UI_ATTR_ITEM_NUMBER (-2),
; 347  : 					UI_ATTR_NOTIFY_ON (NOTIFY_TYPE_NONE),
; 348  : 					UI_ATTR_END
; 349  : 				);
; 350  : 
; 351  : 	set_ui_list_spacing_proportional_to_font (weapon_eff_list, -0.2);

  003f7	51		 push	 ecx
  003f8	f3 0f 10 05 00
	00 00 00	 movss	 xmm0, DWORD PTR __real@be4ccccd
  00400	f3 0f 11 04 24	 movss	 DWORD PTR [esp], xmm0
  00405	a1 00 00 00 00	 mov	 eax, DWORD PTR ?weapon_eff_list@@3PAUUI_OBJECT@@A
  0040a	50		 push	 eax
  0040b	e8 00 00 00 00	 call	 ?set_ui_list_spacing_proportional_to_font@@YGXPAUUI_OBJECT@@M@Z ; set_ui_list_spacing_proportional_to_font

; 352  : 
; 353  : }

  00410	5f		 pop	 edi
  00411	5e		 pop	 esi
  00412	5b		 pop	 ebx
  00413	8b e5		 mov	 esp, ebp
  00415	5d		 pop	 ebp
  00416	c3		 ret	 0
?define_weapon_log_page_objects@@YGXXZ ENDP		; define_weapon_log_page_objects
_TEXT	ENDS
; Function compile flags: /Odtp /ZI
; File c:\users\nhv90\projects\eech\aphavoc\source\ui_menu\player\play_wp.c
;	COMDAT ?notify_show_weapon_log_page@@YGXPAUUI_OBJECT@@@Z
_TEXT	SEGMENT
_obj$ = 8						; size = 4
?notify_show_weapon_log_page@@YGXPAUUI_OBJECT@@@Z PROC	; notify_show_weapon_log_page, COMDAT

; 94   : {

  00000	55		 push	 ebp
  00001	8b ec		 mov	 ebp, esp
  00003	83 ec 40	 sub	 esp, 64			; 00000040H
  00006	53		 push	 ebx
  00007	56		 push	 esi
  00008	57		 push	 edi

; 95   : 
; 96   : 	display_player_log_page (LOG_PAGE_WEAPON);

  00009	6a 01		 push	 1
  0000b	e8 00 00 00 00	 call	 ?display_player_log_page@@YGXW4PLAYER_LOG_PAGES@@@Z ; display_player_log_page

; 97   : 
; 98   : 	#if DEBUG_MODULE
; 99   : 		debug_filtered_log("Inside show_weapon_log_page");
; 100  : 	#endif
; 101  : }

  00010	5f		 pop	 edi
  00011	5e		 pop	 esi
  00012	5b		 pop	 ebx
  00013	8b e5		 mov	 esp, ebp
  00015	5d		 pop	 ebp
  00016	c2 04 00	 ret	 4
?notify_show_weapon_log_page@@YGXPAUUI_OBJECT@@@Z ENDP	; notify_show_weapon_log_page
_TEXT	ENDS
; Function compile flags: /Odtp /ZI
; File c:\program files (x86)\windows kits\10\include\10.0.18362.0\ucrt\stdio.h
;	COMDAT _sprintf
_TEXT	SEGMENT
__ArgList$ = -8						; size = 4
__Result$ = -4						; size = 4
__Buffer$ = 8						; size = 4
__Format$ = 12						; size = 4
_sprintf PROC						; COMDAT

; 1781 :     {

  00000	55		 push	 ebp
  00001	8b ec		 mov	 ebp, esp
  00003	83 ec 4c	 sub	 esp, 76			; 0000004cH
  00006	53		 push	 ebx
  00007	56		 push	 esi
  00008	57		 push	 edi

; 1782 :         int _Result;
; 1783 :         va_list _ArgList;
; 1784 :         __crt_va_start(_ArgList, _Format);

  00009	8d 45 10	 lea	 eax, DWORD PTR __Format$[ebp+4]
  0000c	89 45 f8	 mov	 DWORD PTR __ArgList$[ebp], eax

; 1785 : 
; 1786 :         #pragma warning(push)
; 1787 :         #pragma warning(disable: 4996) // Deprecation
; 1788 :         _Result = _vsprintf_l(_Buffer, _Format, NULL, _ArgList);

  0000f	8b 45 f8	 mov	 eax, DWORD PTR __ArgList$[ebp]
  00012	50		 push	 eax
  00013	6a 00		 push	 0
  00015	8b 4d 0c	 mov	 ecx, DWORD PTR __Format$[ebp]
  00018	51		 push	 ecx
  00019	8b 55 08	 mov	 edx, DWORD PTR __Buffer$[ebp]
  0001c	52		 push	 edx
  0001d	e8 00 00 00 00	 call	 __vsprintf_l
  00022	83 c4 10	 add	 esp, 16			; 00000010H
  00025	89 45 fc	 mov	 DWORD PTR __Result$[ebp], eax

; 1789 :         #pragma warning(pop)
; 1790 : 
; 1791 :         __crt_va_end(_ArgList);

  00028	c7 45 f8 00 00
	00 00		 mov	 DWORD PTR __ArgList$[ebp], 0

; 1792 :         return _Result;

  0002f	8b 45 fc	 mov	 eax, DWORD PTR __Result$[ebp]

; 1793 :     }

  00032	5f		 pop	 edi
  00033	5e		 pop	 esi
  00034	5b		 pop	 ebx
  00035	8b e5		 mov	 esp, ebp
  00037	5d		 pop	 ebp
  00038	c3		 ret	 0
_sprintf ENDP
_TEXT	ENDS
; Function compile flags: /Odtp /ZI
; File c:\program files (x86)\windows kits\10\include\10.0.18362.0\ucrt\stdio.h
;	COMDAT __vsprintf_l
_TEXT	SEGMENT
__Buffer$ = 8						; size = 4
__Format$ = 12						; size = 4
__Locale$ = 16						; size = 4
__ArgList$ = 20						; size = 4
__vsprintf_l PROC					; COMDAT

; 1459 :     {

  00000	55		 push	 ebp
  00001	8b ec		 mov	 ebp, esp
  00003	83 ec 40	 sub	 esp, 64			; 00000040H
  00006	53		 push	 ebx
  00007	56		 push	 esi
  00008	57		 push	 edi

; 1460 :         #pragma warning(push)
; 1461 :         #pragma warning(disable: 4996) // Deprecation
; 1462 :         return _vsnprintf_l(_Buffer, (size_t)-1, _Format, _Locale, _ArgList);

  00009	8b 45 14	 mov	 eax, DWORD PTR __ArgList$[ebp]
  0000c	50		 push	 eax
  0000d	8b 4d 10	 mov	 ecx, DWORD PTR __Locale$[ebp]
  00010	51		 push	 ecx
  00011	8b 55 0c	 mov	 edx, DWORD PTR __Format$[ebp]
  00014	52		 push	 edx
  00015	6a ff		 push	 -1
  00017	8b 45 08	 mov	 eax, DWORD PTR __Buffer$[ebp]
  0001a	50		 push	 eax
  0001b	e8 00 00 00 00	 call	 __vsnprintf_l
  00020	83 c4 14	 add	 esp, 20			; 00000014H

; 1463 :         #pragma warning(pop)
; 1464 :     }

  00023	5f		 pop	 edi
  00024	5e		 pop	 esi
  00025	5b		 pop	 ebx
  00026	8b e5		 mov	 esp, ebp
  00028	5d		 pop	 ebp
  00029	c3		 ret	 0
__vsprintf_l ENDP
_TEXT	ENDS
; Function compile flags: /Odtp /ZI
; File c:\program files (x86)\windows kits\10\include\10.0.18362.0\ucrt\stdio.h
;	COMDAT __vsnprintf_l
_TEXT	SEGMENT
tv74 = -72						; size = 4
__Result$ = -4						; size = 4
__Buffer$ = 8						; size = 4
__BufferCount$ = 12					; size = 4
__Format$ = 16						; size = 4
__Locale$ = 20						; size = 4
__ArgList$ = 24						; size = 4
__vsnprintf_l PROC					; COMDAT

; 1389 :     {

  00000	55		 push	 ebp
  00001	8b ec		 mov	 ebp, esp
  00003	83 ec 48	 sub	 esp, 72			; 00000048H
  00006	53		 push	 ebx
  00007	56		 push	 esi
  00008	57		 push	 edi

; 1390 :         int const _Result = __stdio_common_vsprintf(

  00009	8b 45 18	 mov	 eax, DWORD PTR __ArgList$[ebp]
  0000c	50		 push	 eax
  0000d	8b 4d 14	 mov	 ecx, DWORD PTR __Locale$[ebp]
  00010	51		 push	 ecx
  00011	8b 55 10	 mov	 edx, DWORD PTR __Format$[ebp]
  00014	52		 push	 edx
  00015	8b 45 0c	 mov	 eax, DWORD PTR __BufferCount$[ebp]
  00018	50		 push	 eax
  00019	8b 4d 08	 mov	 ecx, DWORD PTR __Buffer$[ebp]
  0001c	51		 push	 ecx
  0001d	e8 00 00 00 00	 call	 ___local_stdio_printf_options
  00022	8b 10		 mov	 edx, DWORD PTR [eax]
  00024	83 ca 01	 or	 edx, 1
  00027	8b 40 04	 mov	 eax, DWORD PTR [eax+4]
  0002a	50		 push	 eax
  0002b	52		 push	 edx
  0002c	ff 15 00 00 00
	00		 call	 DWORD PTR __imp____stdio_common_vsprintf
  00032	83 c4 1c	 add	 esp, 28			; 0000001cH
  00035	89 45 fc	 mov	 DWORD PTR __Result$[ebp], eax

; 1391 :             _CRT_INTERNAL_LOCAL_PRINTF_OPTIONS | _CRT_INTERNAL_PRINTF_LEGACY_VSPRINTF_NULL_TERMINATION,
; 1392 :             _Buffer, _BufferCount, _Format, _Locale, _ArgList);
; 1393 : 
; 1394 :         return _Result < 0 ? -1 : _Result;

  00038	83 7d fc 00	 cmp	 DWORD PTR __Result$[ebp], 0
  0003c	7d 09		 jge	 SHORT $LN3@vsnprintf_
  0003e	c7 45 b8 ff ff
	ff ff		 mov	 DWORD PTR tv74[ebp], -1
  00045	eb 06		 jmp	 SHORT $LN4@vsnprintf_
$LN3@vsnprintf_:
  00047	8b 45 fc	 mov	 eax, DWORD PTR __Result$[ebp]
  0004a	89 45 b8	 mov	 DWORD PTR tv74[ebp], eax
$LN4@vsnprintf_:
  0004d	8b 45 b8	 mov	 eax, DWORD PTR tv74[ebp]

; 1395 :     }

  00050	5f		 pop	 edi
  00051	5e		 pop	 esi
  00052	5b		 pop	 ebx
  00053	8b e5		 mov	 esp, ebp
  00055	5d		 pop	 ebp
  00056	c3		 ret	 0
__vsnprintf_l ENDP
_TEXT	ENDS
; Function compile flags: /Odtp /ZI
; File c:\program files (x86)\windows kits\10\include\10.0.18362.0\ucrt\corecrt_stdio_config.h
;	COMDAT ___local_stdio_printf_options
_TEXT	SEGMENT
___local_stdio_printf_options PROC			; COMDAT

; 86   :     {

  00000	55		 push	 ebp
  00001	8b ec		 mov	 ebp, esp
  00003	83 ec 40	 sub	 esp, 64			; 00000040H
  00006	53		 push	 ebx
  00007	56		 push	 esi
  00008	57		 push	 edi

; 87   :         static unsigned __int64 _OptionsStorage;
; 88   :         return &_OptionsStorage;

  00009	b8 00 00 00 00	 mov	 eax, OFFSET ?_OptionsStorage@?1??__local_stdio_printf_options@@9@4_KA ; `__local_stdio_printf_options'::`2'::_OptionsStorage

; 89   :     }

  0000e	5f		 pop	 edi
  0000f	5e		 pop	 esi
  00010	5b		 pop	 ebx
  00011	8b e5		 mov	 esp, ebp
  00013	5d		 pop	 ebp
  00014	c3		 ret	 0
___local_stdio_printf_options ENDP
_TEXT	ENDS
END
