; Listing generated by Microsoft (R) Optimizing Compiler Version 19.16.27045.0 

	TITLE	C:\Users\nhv90\Projects\eech\aphavoc\source\ui_menu\player\play_hours.c
	.686P
	.XMM
	include listing.inc
	.model	flat

INCLUDELIB MSVCRTD
INCLUDELIB OLDNAMES

PUBLIC	___local_stdio_printf_options
PUBLIC	__vsnprintf_l
PUBLIC	__vsprintf_l
PUBLIC	_sprintf
PUBLIC	?get_current_warzone_log@@YGPAUPLAYER_WARZONE_LOG@@PAUPLAYER_LOG_TYPE@@H@Z ; get_current_warzone_log
PUBLIC	?notify_show_flight_hours_page@@YGXPAUUI_OBJECT@@@Z ; notify_show_flight_hours_page
PUBLIC	?rebuild_flight_hours_list@@YGXPAUPLAYER_LOG_TYPE@@H@Z ; rebuild_flight_hours_list
PUBLIC	?define_flight_hours_page_objects@@YGXXZ	; define_flight_hours_page_objects
PUBLIC	?_OptionsStorage@?1??__local_stdio_printf_options@@9@4_KA ; `__local_stdio_printf_options'::`2'::_OptionsStorage
PUBLIC	??_C@_0L@LHKIJOOB@Helicopter@			; `string'
PUBLIC	??_C@_05ENODICIF@Miss?4@			; `string'
PUBLIC	??_C@_05LJNCPAGE@Hours@				; `string'
PUBLIC	??_C@_02DPKJAMEF@?$CFd@				; `string'
PUBLIC	??_C@_07COCHMHBB@?$CFd?3?$CF02d@		; `string'
PUBLIC	??_C@_07LIMLDKEI@Theater@			; `string'
PUBLIC	??_C@_00CNPNBAHC@@				; `string'
PUBLIC	??_C@_05KGEAEGFG@Total@				; `string'
PUBLIC	__real@3dcccccd
PUBLIC	__real@3df5c28f
PUBLIC	__real@3e800000
PUBLIC	__real@3e8f5c29
PUBLIC	__real@3ecccccd
PUBLIC	__real@3ef0a3d7
PUBLIC	__real@3f07ae14
PUBLIC	__real@3f19999a
PUBLIC	__real@3f1eb852
PUBLIC	__real@3f400000
PUBLIC	__real@3f800000
PUBLIC	__real@42700000
PUBLIC	__real@45610000
PUBLIC	__real@be4ccccd
EXTRN	__imp____stdio_common_vsprintf:PROC
EXTRN	?create_ui_object@@YAPAUUI_OBJECT@@HZZ:PROC	; create_ui_object
EXTRN	?ui_object_destroy_list_items@@YGXPAUUI_OBJECT@@@Z:PROC ; ui_object_destroy_list_items
EXTRN	?add_to_pop_up_list@@YGPAUUI_OBJECT@@PBDPAU1@1HHUREAL_COLOUR@@@Z:PROC ; add_to_pop_up_list
EXTRN	?get_current_language_font@@YG?AW4FONT_TYPES@@W41@@Z:PROC ; get_current_language_font
EXTRN	?set_ui_list_spacing_proportional_to_font@@YGXPAUUI_OBJECT@@M@Z:PROC ; set_ui_list_spacing_proportional_to_font
EXTRN	?display_player_log_page@@YGXW4PLAYER_LOG_PAGES@@@Z:PROC ; display_player_log_page
EXTRN	__ftoui3:PROC
EXTRN	?ui_option_title_text_colour@@3UREAL_COLOUR@@A:DWORD ; ui_option_title_text_colour
EXTRN	?alphabetical_gunship_types@@3PAW4GUNSHIP_TYPES@@A:BYTE ; alphabetical_gunship_types
EXTRN	?long_gunship_names@@3PAPBDA:BYTE		; long_gunship_names
EXTRN	?select_player_screen@@3PAUUI_OBJECT@@A:DWORD	; select_player_screen
EXTRN	?log_page@@3PAPAUUI_OBJECT@@A:BYTE		; log_page
EXTRN	__fltused:DWORD
;	COMDAT ?_OptionsStorage@?1??__local_stdio_printf_options@@9@4_KA
_BSS	SEGMENT
?_OptionsStorage@?1??__local_stdio_printf_options@@9@4_KA DQ 01H DUP (?) ; `__local_stdio_printf_options'::`2'::_OptionsStorage
_BSS	ENDS
_BSS	SEGMENT
?flight_hours_text_area@@3PAUUI_OBJECT@@A DD 01H DUP (?) ; flight_hours_text_area
?gunship_type_list@@3PAUUI_OBJECT@@A DD 01H DUP (?)	; gunship_type_list
?gunship_missions_list@@3PAUUI_OBJECT@@A DD 01H DUP (?)	; gunship_missions_list
?gunship_hours_list@@3PAUUI_OBJECT@@A DD 01H DUP (?)	; gunship_hours_list
?hours_type@@3HA DD 01H DUP (?)				; hours_type
_BSS	ENDS
;	COMDAT __real@be4ccccd
CONST	SEGMENT
__real@be4ccccd DD 0be4ccccdr			; -0.2
CONST	ENDS
;	COMDAT __real@45610000
CONST	SEGMENT
__real@45610000 DD 045610000r			; 3600
CONST	ENDS
;	COMDAT __real@42700000
CONST	SEGMENT
__real@42700000 DD 042700000r			; 60
CONST	ENDS
;	COMDAT __real@3f800000
CONST	SEGMENT
__real@3f800000 DD 03f800000r			; 1
CONST	ENDS
;	COMDAT __real@3f400000
CONST	SEGMENT
__real@3f400000 DD 03f400000r			; 0.75
CONST	ENDS
;	COMDAT __real@3f1eb852
CONST	SEGMENT
__real@3f1eb852 DD 03f1eb852r			; 0.62
CONST	ENDS
;	COMDAT __real@3f19999a
CONST	SEGMENT
__real@3f19999a DD 03f19999ar			; 0.6
CONST	ENDS
;	COMDAT __real@3f07ae14
CONST	SEGMENT
__real@3f07ae14 DD 03f07ae14r			; 0.53
CONST	ENDS
;	COMDAT __real@3ef0a3d7
CONST	SEGMENT
__real@3ef0a3d7 DD 03ef0a3d7r			; 0.47
CONST	ENDS
;	COMDAT __real@3ecccccd
CONST	SEGMENT
__real@3ecccccd DD 03ecccccdr			; 0.4
CONST	ENDS
;	COMDAT __real@3e8f5c29
CONST	SEGMENT
__real@3e8f5c29 DD 03e8f5c29r			; 0.28
CONST	ENDS
;	COMDAT __real@3e800000
CONST	SEGMENT
__real@3e800000 DD 03e800000r			; 0.25
CONST	ENDS
;	COMDAT __real@3df5c28f
CONST	SEGMENT
__real@3df5c28f DD 03df5c28fr			; 0.12
CONST	ENDS
;	COMDAT __real@3dcccccd
CONST	SEGMENT
__real@3dcccccd DD 03dcccccdr			; 0.1
CONST	ENDS
;	COMDAT ??_C@_05KGEAEGFG@Total@
CONST	SEGMENT
??_C@_05KGEAEGFG@Total@ DB 'Total', 00H			; `string'
CONST	ENDS
;	COMDAT ??_C@_00CNPNBAHC@@
CONST	SEGMENT
??_C@_00CNPNBAHC@@ DB 00H				; `string'
CONST	ENDS
;	COMDAT ??_C@_07LIMLDKEI@Theater@
CONST	SEGMENT
??_C@_07LIMLDKEI@Theater@ DB 'Theater', 00H		; `string'
CONST	ENDS
;	COMDAT ??_C@_07COCHMHBB@?$CFd?3?$CF02d@
CONST	SEGMENT
??_C@_07COCHMHBB@?$CFd?3?$CF02d@ DB '%d:%02d', 00H	; `string'
CONST	ENDS
;	COMDAT ??_C@_02DPKJAMEF@?$CFd@
CONST	SEGMENT
??_C@_02DPKJAMEF@?$CFd@ DB '%d', 00H			; `string'
CONST	ENDS
;	COMDAT ??_C@_05LJNCPAGE@Hours@
CONST	SEGMENT
??_C@_05LJNCPAGE@Hours@ DB 'Hours', 00H			; `string'
CONST	ENDS
;	COMDAT ??_C@_05ENODICIF@Miss?4@
CONST	SEGMENT
??_C@_05ENODICIF@Miss?4@ DB 'Miss.', 00H		; `string'
CONST	ENDS
;	COMDAT ??_C@_0L@LHKIJOOB@Helicopter@
CONST	SEGMENT
??_C@_0L@LHKIJOOB@Helicopter@ DB 'Helicopter', 00H	; `string'
CONST	ENDS
; Function compile flags: /Odtp /ZI
; File c:\users\nhv90\projects\eech\aphavoc\source\ui_menu\player\play_hours.c
;	COMDAT ?define_flight_hours_page_objects@@YGXXZ
_TEXT	SEGMENT
_page$ = -20						; size = 4
_y2$ = -16						; size = 4
_x2$ = -12						; size = 4
_y1$ = -8						; size = 4
_x1$ = -4						; size = 4
?define_flight_hours_page_objects@@YGXXZ PROC		; define_flight_hours_page_objects, COMDAT

; 251  : {

  00000	55		 push	 ebp
  00001	8b ec		 mov	 ebp, esp
  00003	83 ec 54	 sub	 esp, 84			; 00000054H
  00006	53		 push	 ebx
  00007	56		 push	 esi
  00008	57		 push	 edi

; 252  : 
; 253  : 	float
; 254  : 		x1,
; 255  : 		y1,
; 256  : 		x2,
; 257  : 		y2;
; 258  : 
; 259  : 	ui_object
; 260  : 		*page;
; 261  : 
; 262  : 	/////////////////////////////////////////////////////////////////
; 263  : 	// Flight hours Area
; 264  : 
; 265  : 	x1 = 0.470;

  00009	f3 0f 10 05 00
	00 00 00	 movss	 xmm0, DWORD PTR __real@3ef0a3d7
  00011	f3 0f 11 45 fc	 movss	 DWORD PTR _x1$[ebp], xmm0

; 266  : 	y1 = 0.280;

  00016	f3 0f 10 05 00
	00 00 00	 movss	 xmm0, DWORD PTR __real@3e8f5c29
  0001e	f3 0f 11 45 f8	 movss	 DWORD PTR _y1$[ebp], xmm0

; 267  : 	x2 = 0.530;

  00023	f3 0f 10 05 00
	00 00 00	 movss	 xmm0, DWORD PTR __real@3f07ae14
  0002b	f3 0f 11 45 f4	 movss	 DWORD PTR _x2$[ebp], xmm0

; 268  : 	y2 = 0.400;

  00030	f3 0f 10 05 00
	00 00 00	 movss	 xmm0, DWORD PTR __real@3ecccccd
  00038	f3 0f 11 45 f0	 movss	 DWORD PTR _y2$[ebp], xmm0

; 269  : 
; 270  : 	log_page [LOG_PAGE_FLIGHT_HOURS] = create_ui_object

  0003d	6a 11		 push	 17			; 00000011H
  0003f	6a 00		 push	 0
  00041	6a 10		 push	 16			; 00000010H
  00043	6a 01		 push	 1
  00045	6a 07		 push	 7
  00047	f3 0f 5a 45 f0	 cvtss2sd xmm0, DWORD PTR _y2$[ebp]
  0004c	83 ec 08	 sub	 esp, 8
  0004f	f2 0f 11 04 24	 movsd	 QWORD PTR [esp], xmm0
  00054	f3 0f 5a 45 f4	 cvtss2sd xmm0, DWORD PTR _x2$[ebp]
  00059	83 ec 08	 sub	 esp, 8
  0005c	f2 0f 11 04 24	 movsd	 QWORD PTR [esp], xmm0
  00061	6a 59		 push	 89			; 00000059H
  00063	f3 0f 5a 45 f8	 cvtss2sd xmm0, DWORD PTR _y1$[ebp]
  00068	83 ec 08	 sub	 esp, 8
  0006b	f2 0f 11 04 24	 movsd	 QWORD PTR [esp], xmm0
  00070	f3 0f 5a 45 fc	 cvtss2sd xmm0, DWORD PTR _x1$[ebp]
  00075	83 ec 08	 sub	 esp, 8
  00078	f2 0f 11 04 24	 movsd	 QWORD PTR [esp], xmm0
  0007d	6a 58		 push	 88			; 00000058H
  0007f	a1 00 00 00 00	 mov	 eax, DWORD PTR ?select_player_screen@@3PAUUI_OBJECT@@A ; select_player_screen
  00084	50		 push	 eax
  00085	6a 32		 push	 50			; 00000032H
  00087	6a 01		 push	 1
  00089	e8 00 00 00 00	 call	 ?create_ui_object@@YAPAUUI_OBJECT@@HZZ ; create_ui_object
  0008e	83 c4 48	 add	 esp, 72			; 00000048H
  00091	b9 04 00 00 00	 mov	 ecx, 4
  00096	d1 e1		 shl	 ecx, 1
  00098	89 81 00 00 00
	00		 mov	 DWORD PTR ?log_page@@3PAPAUUI_OBJECT@@A[ecx], eax

; 271  : 			(
; 272  : 				UI_TYPE_AREA,
; 273  : 				UI_ATTR_PARENT (select_player_screen),
; 274  : 				UI_ATTR_VIRTUAL_POSITION (x1, y1),
; 275  : 				UI_ATTR_VIRTUAL_SIZE (x2, y2),
; 276  : 				UI_ATTR_CLEAR (TRUE),
; 277  : 				UI_ATTR_DRAWABLE (FALSE),
; 278  : 				UI_ATTR_END
; 279  : 			);
; 280  : 
; 281  : 	page = log_page [LOG_PAGE_FLIGHT_HOURS];

  0009e	b8 04 00 00 00	 mov	 eax, 4
  000a3	d1 e0		 shl	 eax, 1
  000a5	8b 88 00 00 00
	00		 mov	 ecx, DWORD PTR ?log_page@@3PAPAUUI_OBJECT@@A[eax]
  000ab	89 4d ec	 mov	 DWORD PTR _page$[ebp], ecx

; 282  : 
; 283  : 	/////////////////////////////////////////////////////////////////
; 284  : 	// Flight Hours List Area
; 285  : 
; 286  : 	x1 = 0.0;

  000ae	0f 57 c0	 xorps	 xmm0, xmm0
  000b1	f3 0f 11 45 fc	 movss	 DWORD PTR _x1$[ebp], xmm0

; 287  : 	y1 = 0.0;

  000b6	0f 57 c0	 xorps	 xmm0, xmm0
  000b9	f3 0f 11 45 f8	 movss	 DWORD PTR _y1$[ebp], xmm0

; 288  : 	x2 = 1.0;

  000be	f3 0f 10 05 00
	00 00 00	 movss	 xmm0, DWORD PTR __real@3f800000
  000c6	f3 0f 11 45 f4	 movss	 DWORD PTR _x2$[ebp], xmm0

; 289  : 	y2 = 1.0;

  000cb	f3 0f 10 05 00
	00 00 00	 movss	 xmm0, DWORD PTR __real@3f800000
  000d3	f3 0f 11 45 f0	 movss	 DWORD PTR _y2$[ebp], xmm0

; 290  : 
; 291  : 	flight_hours_text_area = create_ui_object

  000d8	6a 11		 push	 17			; 00000011H
  000da	6a 01		 push	 1
  000dc	6a 07		 push	 7
  000de	f3 0f 5a 45 f0	 cvtss2sd xmm0, DWORD PTR _y2$[ebp]
  000e3	83 ec 08	 sub	 esp, 8
  000e6	f2 0f 11 04 24	 movsd	 QWORD PTR [esp], xmm0
  000eb	f3 0f 5a 45 f4	 cvtss2sd xmm0, DWORD PTR _x2$[ebp]
  000f0	83 ec 08	 sub	 esp, 8
  000f3	f2 0f 11 04 24	 movsd	 QWORD PTR [esp], xmm0
  000f8	6a 59		 push	 89			; 00000059H
  000fa	f3 0f 5a 45 f8	 cvtss2sd xmm0, DWORD PTR _y1$[ebp]
  000ff	83 ec 08	 sub	 esp, 8
  00102	f2 0f 11 04 24	 movsd	 QWORD PTR [esp], xmm0
  00107	f3 0f 5a 45 fc	 cvtss2sd xmm0, DWORD PTR _x1$[ebp]
  0010c	83 ec 08	 sub	 esp, 8
  0010f	f2 0f 11 04 24	 movsd	 QWORD PTR [esp], xmm0
  00114	6a 58		 push	 88			; 00000058H
  00116	8b 45 ec	 mov	 eax, DWORD PTR _page$[ebp]
  00119	50		 push	 eax
  0011a	6a 32		 push	 50			; 00000032H
  0011c	6a 01		 push	 1
  0011e	e8 00 00 00 00	 call	 ?create_ui_object@@YAPAUUI_OBJECT@@HZZ ; create_ui_object
  00123	83 c4 40	 add	 esp, 64			; 00000040H
  00126	a3 00 00 00 00	 mov	 DWORD PTR ?flight_hours_text_area@@3PAUUI_OBJECT@@A, eax

; 292  : 			(
; 293  : 				UI_TYPE_AREA,
; 294  : 				UI_ATTR_PARENT (page),
; 295  : 				UI_ATTR_VIRTUAL_POSITION (x1, y1),
; 296  : 				UI_ATTR_VIRTUAL_SIZE (x2, y2),
; 297  : 				UI_ATTR_CLEAR (TRUE),
; 298  : 				UI_ATTR_END
; 299  : 			);
; 300  : 
; 301  : 	/////////////////////////////////////////////////////////////////
; 302  : 	// Gunship Type List Object
; 303  : 
; 304  : 	x1 = 0.1;

  0012b	f3 0f 10 05 00
	00 00 00	 movss	 xmm0, DWORD PTR __real@3dcccccd
  00133	f3 0f 11 45 fc	 movss	 DWORD PTR _x1$[ebp], xmm0

; 305  : 	y1 = 0.0;

  00138	0f 57 c0	 xorps	 xmm0, xmm0
  0013b	f3 0f 11 45 f8	 movss	 DWORD PTR _y1$[ebp], xmm0

; 306  : 	x2 = 0.600;

  00140	f3 0f 10 05 00
	00 00 00	 movss	 xmm0, DWORD PTR __real@3f19999a
  00148	f3 0f 11 45 f4	 movss	 DWORD PTR _x2$[ebp], xmm0

; 307  : 	y2 = 1.0;

  0014d	f3 0f 10 05 00
	00 00 00	 movss	 xmm0, DWORD PTR __real@3f800000
  00155	f3 0f 11 45 f0	 movss	 DWORD PTR _y2$[ebp], xmm0

; 308  : 
; 309  : 	gunship_type_list = create_ui_object

  0015a	6a 11		 push	 17			; 00000011H
  0015c	6a 00		 push	 0
  0015e	6a 2f		 push	 47			; 0000002fH
  00160	6a fe		 push	 -2			; fffffffeH
  00162	6a 29		 push	 41			; 00000029H
  00164	6a 01		 push	 1
  00166	e8 00 00 00 00	 call	 ?get_current_language_font@@YG?AW4FONT_TYPES@@W41@@Z ; get_current_language_font
  0016b	50		 push	 eax
  0016c	6a 12		 push	 18			; 00000012H
  0016e	6a 01		 push	 1
  00170	6a 07		 push	 7
  00172	f3 0f 5a 45 f0	 cvtss2sd xmm0, DWORD PTR _y2$[ebp]
  00177	83 ec 08	 sub	 esp, 8
  0017a	f2 0f 11 04 24	 movsd	 QWORD PTR [esp], xmm0
  0017f	f3 0f 5a 45 f4	 cvtss2sd xmm0, DWORD PTR _x2$[ebp]
  00184	83 ec 08	 sub	 esp, 8
  00187	f2 0f 11 04 24	 movsd	 QWORD PTR [esp], xmm0
  0018c	6a 59		 push	 89			; 00000059H
  0018e	f3 0f 5a 45 f8	 cvtss2sd xmm0, DWORD PTR _y1$[ebp]
  00193	83 ec 08	 sub	 esp, 8
  00196	f2 0f 11 04 24	 movsd	 QWORD PTR [esp], xmm0
  0019b	f3 0f 5a 45 fc	 cvtss2sd xmm0, DWORD PTR _x1$[ebp]
  001a0	83 ec 08	 sub	 esp, 8
  001a3	f2 0f 11 04 24	 movsd	 QWORD PTR [esp], xmm0
  001a8	6a 58		 push	 88			; 00000058H
  001aa	a1 00 00 00 00	 mov	 eax, DWORD PTR ?flight_hours_text_area@@3PAUUI_OBJECT@@A
  001af	50		 push	 eax
  001b0	6a 32		 push	 50			; 00000032H
  001b2	6a 0d		 push	 13			; 0000000dH
  001b4	e8 00 00 00 00	 call	 ?create_ui_object@@YAPAUUI_OBJECT@@HZZ ; create_ui_object
  001b9	83 c4 58	 add	 esp, 88			; 00000058H
  001bc	a3 00 00 00 00	 mov	 DWORD PTR ?gunship_type_list@@3PAUUI_OBJECT@@A, eax

; 310  : 				(
; 311  : 					UI_TYPE_LIST_BOX,
; 312  : 					UI_ATTR_PARENT (flight_hours_text_area),
; 313  : 					UI_ATTR_VIRTUAL_POSITION (x1, y1),
; 314  : 					UI_ATTR_VIRTUAL_SIZE (x2, y2),
; 315  : 					UI_ATTR_CLEAR (TRUE),
; 316  : 					UI_ATTR_FONT_TYPE (get_current_language_font (UI_FONT_ARIAL_14)),
; 317  : 					UI_ATTR_ITEM_NUMBER (-2),
; 318  : 					UI_ATTR_NOTIFY_ON (NOTIFY_TYPE_NONE),
; 319  : 					UI_ATTR_END
; 320  : 				);
; 321  : 
; 322  : 	set_ui_list_spacing_proportional_to_font (gunship_type_list, -0.2);

  001c1	51		 push	 ecx
  001c2	f3 0f 10 05 00
	00 00 00	 movss	 xmm0, DWORD PTR __real@be4ccccd
  001ca	f3 0f 11 04 24	 movss	 DWORD PTR [esp], xmm0
  001cf	a1 00 00 00 00	 mov	 eax, DWORD PTR ?gunship_type_list@@3PAUUI_OBJECT@@A
  001d4	50		 push	 eax
  001d5	e8 00 00 00 00	 call	 ?set_ui_list_spacing_proportional_to_font@@YGXPAUUI_OBJECT@@M@Z ; set_ui_list_spacing_proportional_to_font

; 323  : 
; 324  : 	/////////////////////////////////////////////////////////////////
; 325  : 	// Missions List Object
; 326  : 
; 327  : 	x1 = 0.62;

  001da	f3 0f 10 05 00
	00 00 00	 movss	 xmm0, DWORD PTR __real@3f1eb852
  001e2	f3 0f 11 45 fc	 movss	 DWORD PTR _x1$[ebp], xmm0

; 328  : 	y1 = 0.0;

  001e7	0f 57 c0	 xorps	 xmm0, xmm0
  001ea	f3 0f 11 45 f8	 movss	 DWORD PTR _y1$[ebp], xmm0

; 329  : 	x2 = 0.12;

  001ef	f3 0f 10 05 00
	00 00 00	 movss	 xmm0, DWORD PTR __real@3df5c28f
  001f7	f3 0f 11 45 f4	 movss	 DWORD PTR _x2$[ebp], xmm0

; 330  : 	y2 = 1.0;

  001fc	f3 0f 10 05 00
	00 00 00	 movss	 xmm0, DWORD PTR __real@3f800000
  00204	f3 0f 11 45 f0	 movss	 DWORD PTR _y2$[ebp], xmm0

; 331  : 
; 332  : 	gunship_missions_list = create_ui_object

  00209	6a 11		 push	 17			; 00000011H
  0020b	6a 00		 push	 0
  0020d	6a 2f		 push	 47			; 0000002fH
  0020f	6a fe		 push	 -2			; fffffffeH
  00211	6a 29		 push	 41			; 00000029H
  00213	6a 01		 push	 1
  00215	e8 00 00 00 00	 call	 ?get_current_language_font@@YG?AW4FONT_TYPES@@W41@@Z ; get_current_language_font
  0021a	50		 push	 eax
  0021b	6a 12		 push	 18			; 00000012H
  0021d	6a 01		 push	 1
  0021f	6a 07		 push	 7
  00221	f3 0f 5a 45 f0	 cvtss2sd xmm0, DWORD PTR _y2$[ebp]
  00226	83 ec 08	 sub	 esp, 8
  00229	f2 0f 11 04 24	 movsd	 QWORD PTR [esp], xmm0
  0022e	f3 0f 5a 45 f4	 cvtss2sd xmm0, DWORD PTR _x2$[ebp]
  00233	83 ec 08	 sub	 esp, 8
  00236	f2 0f 11 04 24	 movsd	 QWORD PTR [esp], xmm0
  0023b	6a 59		 push	 89			; 00000059H
  0023d	f3 0f 5a 45 f8	 cvtss2sd xmm0, DWORD PTR _y1$[ebp]
  00242	83 ec 08	 sub	 esp, 8
  00245	f2 0f 11 04 24	 movsd	 QWORD PTR [esp], xmm0
  0024a	f3 0f 5a 45 fc	 cvtss2sd xmm0, DWORD PTR _x1$[ebp]
  0024f	83 ec 08	 sub	 esp, 8
  00252	f2 0f 11 04 24	 movsd	 QWORD PTR [esp], xmm0
  00257	6a 58		 push	 88			; 00000058H
  00259	a1 00 00 00 00	 mov	 eax, DWORD PTR ?flight_hours_text_area@@3PAUUI_OBJECT@@A
  0025e	50		 push	 eax
  0025f	6a 32		 push	 50			; 00000032H
  00261	6a 0d		 push	 13			; 0000000dH
  00263	e8 00 00 00 00	 call	 ?create_ui_object@@YAPAUUI_OBJECT@@HZZ ; create_ui_object
  00268	83 c4 58	 add	 esp, 88			; 00000058H
  0026b	a3 00 00 00 00	 mov	 DWORD PTR ?gunship_missions_list@@3PAUUI_OBJECT@@A, eax

; 333  : 				(
; 334  : 					UI_TYPE_LIST_BOX,
; 335  : 					UI_ATTR_PARENT (flight_hours_text_area),
; 336  : 					UI_ATTR_VIRTUAL_POSITION (x1, y1),
; 337  : 					UI_ATTR_VIRTUAL_SIZE (x2, y2),
; 338  : 					UI_ATTR_CLEAR (TRUE),
; 339  : 					UI_ATTR_FONT_TYPE (get_current_language_font (UI_FONT_ARIAL_14)),
; 340  : 					UI_ATTR_ITEM_NUMBER (-2),
; 341  : 					UI_ATTR_NOTIFY_ON (NOTIFY_TYPE_NONE),
; 342  : 					UI_ATTR_END
; 343  : 				);
; 344  : 
; 345  : 	set_ui_list_spacing_proportional_to_font (gunship_missions_list, -0.2);

  00270	51		 push	 ecx
  00271	f3 0f 10 05 00
	00 00 00	 movss	 xmm0, DWORD PTR __real@be4ccccd
  00279	f3 0f 11 04 24	 movss	 DWORD PTR [esp], xmm0
  0027e	a1 00 00 00 00	 mov	 eax, DWORD PTR ?gunship_missions_list@@3PAUUI_OBJECT@@A
  00283	50		 push	 eax
  00284	e8 00 00 00 00	 call	 ?set_ui_list_spacing_proportional_to_font@@YGXPAUUI_OBJECT@@M@Z ; set_ui_list_spacing_proportional_to_font

; 346  : 
; 347  : 	/////////////////////////////////////////////////////////////////
; 348  : 	// Flight Hours List Object
; 349  : 
; 350  : 	x1 = 0.75;

  00289	f3 0f 10 05 00
	00 00 00	 movss	 xmm0, DWORD PTR __real@3f400000
  00291	f3 0f 11 45 fc	 movss	 DWORD PTR _x1$[ebp], xmm0

; 351  : 	y1 = 0.0;

  00296	0f 57 c0	 xorps	 xmm0, xmm0
  00299	f3 0f 11 45 f8	 movss	 DWORD PTR _y1$[ebp], xmm0

; 352  : 	x2 = 0.250;

  0029e	f3 0f 10 05 00
	00 00 00	 movss	 xmm0, DWORD PTR __real@3e800000
  002a6	f3 0f 11 45 f4	 movss	 DWORD PTR _x2$[ebp], xmm0

; 353  : 	y2 = 1.0;

  002ab	f3 0f 10 05 00
	00 00 00	 movss	 xmm0, DWORD PTR __real@3f800000
  002b3	f3 0f 11 45 f0	 movss	 DWORD PTR _y2$[ebp], xmm0

; 354  : 
; 355  : 	gunship_hours_list = create_ui_object

  002b8	6a 11		 push	 17			; 00000011H
  002ba	6a 00		 push	 0
  002bc	6a 2f		 push	 47			; 0000002fH
  002be	6a fe		 push	 -2			; fffffffeH
  002c0	6a 29		 push	 41			; 00000029H
  002c2	6a 01		 push	 1
  002c4	e8 00 00 00 00	 call	 ?get_current_language_font@@YG?AW4FONT_TYPES@@W41@@Z ; get_current_language_font
  002c9	50		 push	 eax
  002ca	6a 12		 push	 18			; 00000012H
  002cc	6a 01		 push	 1
  002ce	6a 07		 push	 7
  002d0	f3 0f 5a 45 f0	 cvtss2sd xmm0, DWORD PTR _y2$[ebp]
  002d5	83 ec 08	 sub	 esp, 8
  002d8	f2 0f 11 04 24	 movsd	 QWORD PTR [esp], xmm0
  002dd	f3 0f 5a 45 f4	 cvtss2sd xmm0, DWORD PTR _x2$[ebp]
  002e2	83 ec 08	 sub	 esp, 8
  002e5	f2 0f 11 04 24	 movsd	 QWORD PTR [esp], xmm0
  002ea	6a 59		 push	 89			; 00000059H
  002ec	f3 0f 5a 45 f8	 cvtss2sd xmm0, DWORD PTR _y1$[ebp]
  002f1	83 ec 08	 sub	 esp, 8
  002f4	f2 0f 11 04 24	 movsd	 QWORD PTR [esp], xmm0
  002f9	f3 0f 5a 45 fc	 cvtss2sd xmm0, DWORD PTR _x1$[ebp]
  002fe	83 ec 08	 sub	 esp, 8
  00301	f2 0f 11 04 24	 movsd	 QWORD PTR [esp], xmm0
  00306	6a 58		 push	 88			; 00000058H
  00308	a1 00 00 00 00	 mov	 eax, DWORD PTR ?flight_hours_text_area@@3PAUUI_OBJECT@@A
  0030d	50		 push	 eax
  0030e	6a 32		 push	 50			; 00000032H
  00310	6a 0d		 push	 13			; 0000000dH
  00312	e8 00 00 00 00	 call	 ?create_ui_object@@YAPAUUI_OBJECT@@HZZ ; create_ui_object
  00317	83 c4 58	 add	 esp, 88			; 00000058H
  0031a	a3 00 00 00 00	 mov	 DWORD PTR ?gunship_hours_list@@3PAUUI_OBJECT@@A, eax

; 356  : 				(
; 357  : 					UI_TYPE_LIST_BOX,
; 358  : 					UI_ATTR_PARENT (flight_hours_text_area),
; 359  : 					UI_ATTR_VIRTUAL_POSITION (x1, y1),
; 360  : 					UI_ATTR_VIRTUAL_SIZE (x2, y2),
; 361  : 					UI_ATTR_CLEAR (TRUE),
; 362  : 					UI_ATTR_FONT_TYPE (get_current_language_font (UI_FONT_ARIAL_14)),
; 363  : 					UI_ATTR_ITEM_NUMBER (-2),
; 364  : 					UI_ATTR_NOTIFY_ON (NOTIFY_TYPE_NONE),
; 365  : 					UI_ATTR_END
; 366  : 				);
; 367  : 
; 368  : 	set_ui_list_spacing_proportional_to_font (gunship_hours_list, -0.2);

  0031f	51		 push	 ecx
  00320	f3 0f 10 05 00
	00 00 00	 movss	 xmm0, DWORD PTR __real@be4ccccd
  00328	f3 0f 11 04 24	 movss	 DWORD PTR [esp], xmm0
  0032d	a1 00 00 00 00	 mov	 eax, DWORD PTR ?gunship_hours_list@@3PAUUI_OBJECT@@A
  00332	50		 push	 eax
  00333	e8 00 00 00 00	 call	 ?set_ui_list_spacing_proportional_to_font@@YGXPAUUI_OBJECT@@M@Z ; set_ui_list_spacing_proportional_to_font

; 369  : }

  00338	5f		 pop	 edi
  00339	5e		 pop	 esi
  0033a	5b		 pop	 ebx
  0033b	8b e5		 mov	 esp, ebp
  0033d	5d		 pop	 ebp
  0033e	c3		 ret	 0
?define_flight_hours_page_objects@@YGXXZ ENDP		; define_flight_hours_page_objects
_TEXT	ENDS
; Function compile flags: /Odtp /ZI
; File c:\users\nhv90\projects\eech\aphavoc\source\ui_menu\player\play_hours.c
;	COMDAT ?rebuild_flight_hours_list@@YGXPAUPLAYER_LOG_TYPE@@H@Z
_TEXT	SEGMENT
_warzone$1 = -44					; size = 4
_gunship$2 = -40					; size = 4
_type$3 = -36						; size = 4
_buff$ = -32						; size = 12
_missions$ = -20					; size = 4
_minutes$ = -16						; size = 4
_hours$ = -12						; size = 4
_temp$ = -8						; size = 4
_i$ = -4						; size = 4
_log$ = 8						; size = 4
_side$ = 12						; size = 4
?rebuild_flight_hours_list@@YGXPAUPLAYER_LOG_TYPE@@H@Z PROC ; rebuild_flight_hours_list, COMDAT

; 169  : {

  00000	55		 push	 ebp
  00001	8b ec		 mov	 ebp, esp
  00003	83 ec 6c	 sub	 esp, 108		; 0000006cH
  00006	53		 push	 ebx
  00007	56		 push	 esi
  00008	57		 push	 edi

; 170  : 	int i;
; 171  : 	ui_object *temp;
; 172  : 	unsigned int hours, minutes, missions;
; 173  : 	char buff[12];
; 174  :  
; 175  :  	ui_object_destroy_list_items (gunship_type_list);

  00009	a1 00 00 00 00	 mov	 eax, DWORD PTR ?gunship_type_list@@3PAUUI_OBJECT@@A
  0000e	50		 push	 eax
  0000f	e8 00 00 00 00	 call	 ?ui_object_destroy_list_items@@YGXPAUUI_OBJECT@@@Z ; ui_object_destroy_list_items

; 176  :  	ui_object_destroy_list_items (gunship_missions_list);

  00014	a1 00 00 00 00	 mov	 eax, DWORD PTR ?gunship_missions_list@@3PAUUI_OBJECT@@A
  00019	50		 push	 eax
  0001a	e8 00 00 00 00	 call	 ?ui_object_destroy_list_items@@YGXPAUUI_OBJECT@@@Z ; ui_object_destroy_list_items

; 177  :   	ui_object_destroy_list_items (gunship_hours_list);

  0001f	a1 00 00 00 00	 mov	 eax, DWORD PTR ?gunship_hours_list@@3PAUUI_OBJECT@@A
  00024	50		 push	 eax
  00025	e8 00 00 00 00	 call	 ?ui_object_destroy_list_items@@YGXPAUUI_OBJECT@@@Z ; ui_object_destroy_list_items

; 178  : 
; 179  : 	if (hours_type == PLAYER_HELICOPTER_HOURS)

  0002a	83 3d 00 00 00
	00 00		 cmp	 DWORD PTR ?hours_type@@3HA, 0
  00031	0f 85 d6 01 00
	00		 jne	 $LN8@rebuild_fl

; 180  : 	{
; 181  : 		// headers
; 182  : 		temp = add_to_pop_up_list("Helicopter", gunship_type_list, NULL, ENTITY_INDEX_DONT_CARE, get_current_language_font (UI_FONT_ARIAL_14), ui_option_title_text_colour);

  00037	a1 00 00 00 00	 mov	 eax, DWORD PTR ?ui_option_title_text_colour@@3UREAL_COLOUR@@A ; ui_option_title_text_colour
  0003c	50		 push	 eax
  0003d	6a 01		 push	 1
  0003f	e8 00 00 00 00	 call	 ?get_current_language_font@@YG?AW4FONT_TYPES@@W41@@Z ; get_current_language_font
  00044	50		 push	 eax
  00045	6a ff		 push	 -1
  00047	6a 00		 push	 0
  00049	8b 0d 00 00 00
	00		 mov	 ecx, DWORD PTR ?gunship_type_list@@3PAUUI_OBJECT@@A
  0004f	51		 push	 ecx
  00050	68 00 00 00 00	 push	 OFFSET ??_C@_0L@LHKIJOOB@Helicopter@
  00055	e8 00 00 00 00	 call	 ?add_to_pop_up_list@@YGPAUUI_OBJECT@@PBDPAU1@1HHUREAL_COLOUR@@@Z ; add_to_pop_up_list
  0005a	89 45 f8	 mov	 DWORD PTR _temp$[ebp], eax

; 183  : 		temp = add_to_pop_up_list("Miss.", gunship_missions_list, NULL, ENTITY_INDEX_DONT_CARE, get_current_language_font (UI_FONT_ARIAL_14), ui_option_title_text_colour);

  0005d	a1 00 00 00 00	 mov	 eax, DWORD PTR ?ui_option_title_text_colour@@3UREAL_COLOUR@@A ; ui_option_title_text_colour
  00062	50		 push	 eax
  00063	6a 01		 push	 1
  00065	e8 00 00 00 00	 call	 ?get_current_language_font@@YG?AW4FONT_TYPES@@W41@@Z ; get_current_language_font
  0006a	50		 push	 eax
  0006b	6a ff		 push	 -1
  0006d	6a 00		 push	 0
  0006f	8b 0d 00 00 00
	00		 mov	 ecx, DWORD PTR ?gunship_missions_list@@3PAUUI_OBJECT@@A
  00075	51		 push	 ecx
  00076	68 00 00 00 00	 push	 OFFSET ??_C@_05ENODICIF@Miss?4@
  0007b	e8 00 00 00 00	 call	 ?add_to_pop_up_list@@YGPAUUI_OBJECT@@PBDPAU1@1HHUREAL_COLOUR@@@Z ; add_to_pop_up_list
  00080	89 45 f8	 mov	 DWORD PTR _temp$[ebp], eax

; 184  : 		temp = add_to_pop_up_list("Hours", gunship_hours_list, NULL, ENTITY_INDEX_DONT_CARE, get_current_language_font (UI_FONT_ARIAL_14), ui_option_title_text_colour);

  00083	a1 00 00 00 00	 mov	 eax, DWORD PTR ?ui_option_title_text_colour@@3UREAL_COLOUR@@A ; ui_option_title_text_colour
  00088	50		 push	 eax
  00089	6a 01		 push	 1
  0008b	e8 00 00 00 00	 call	 ?get_current_language_font@@YG?AW4FONT_TYPES@@W41@@Z ; get_current_language_font
  00090	50		 push	 eax
  00091	6a ff		 push	 -1
  00093	6a 00		 push	 0
  00095	8b 0d 00 00 00
	00		 mov	 ecx, DWORD PTR ?gunship_hours_list@@3PAUUI_OBJECT@@A
  0009b	51		 push	 ecx
  0009c	68 00 00 00 00	 push	 OFFSET ??_C@_05LJNCPAGE@Hours@
  000a1	e8 00 00 00 00	 call	 ?add_to_pop_up_list@@YGPAUUI_OBJECT@@PBDPAU1@1HHUREAL_COLOUR@@@Z ; add_to_pop_up_list
  000a6	89 45 f8	 mov	 DWORD PTR _temp$[ebp], eax

; 185  : 
; 186  : 		for (i = 0; i < NUM_GUNSHIP_TYPES; i++)

  000a9	c7 45 fc 00 00
	00 00		 mov	 DWORD PTR _i$[ebp], 0
  000b0	eb 09		 jmp	 SHORT $LN4@rebuild_fl
$LN2@rebuild_fl:
  000b2	8b 45 fc	 mov	 eax, DWORD PTR _i$[ebp]
  000b5	83 c0 01	 add	 eax, 1
  000b8	89 45 fc	 mov	 DWORD PTR _i$[ebp], eax
$LN4@rebuild_fl:
  000bb	83 7d fc 0a	 cmp	 DWORD PTR _i$[ebp], 10	; 0000000aH
  000bf	0f 8d 43 01 00
	00		 jge	 $LN3@rebuild_fl

; 187  : 		{
; 188  : 			gunship_types type = alphabetical_gunship_types[i];

  000c5	8b 45 fc	 mov	 eax, DWORD PTR _i$[ebp]
  000c8	8b 0c 85 00 00
	00 00		 mov	 ecx, DWORD PTR ?alphabetical_gunship_types@@3PAW4GUNSHIP_TYPES@@A[eax*4]
  000cf	89 4d dc	 mov	 DWORD PTR _type$3[ebp], ecx

; 189  : 			const char* gunship = long_gunship_names[type];

  000d2	8b 45 dc	 mov	 eax, DWORD PTR _type$3[ebp]
  000d5	8b 0c 85 00 00
	00 00		 mov	 ecx, DWORD PTR ?long_gunship_names@@3PAPBDA[eax*4]
  000dc	89 4d d8	 mov	 DWORD PTR _gunship$2[ebp], ecx

; 190  : 	
; 191  : 			hours = (int)(log->side_log[side].gunship_flying_seconds[type] / ONE_HOUR);

  000df	69 45 0c 4c 03
	00 00		 imul	 eax, DWORD PTR _side$[ebp], 844
  000e6	8b 4d 08	 mov	 ecx, DWORD PTR _log$[ebp]
  000e9	8d 54 01 0c	 lea	 edx, DWORD PTR [ecx+eax+12]
  000ed	8b 45 dc	 mov	 eax, DWORD PTR _type$3[ebp]
  000f0	f3 0f 10 84 82
	08 03 00 00	 movss	 xmm0, DWORD PTR [edx+eax*4+776]
  000f9	f3 0f 5e 05 00
	00 00 00	 divss	 xmm0, DWORD PTR __real@45610000
  00101	f3 0f 2c c8	 cvttss2si ecx, xmm0
  00105	89 4d f4	 mov	 DWORD PTR _hours$[ebp], ecx

; 192  : 			minutes = (int)(log->side_log[side].gunship_flying_seconds[type] / ONE_MINUTE) % 60;

  00108	69 45 0c 4c 03
	00 00		 imul	 eax, DWORD PTR _side$[ebp], 844
  0010f	8b 4d 08	 mov	 ecx, DWORD PTR _log$[ebp]
  00112	8d 54 01 0c	 lea	 edx, DWORD PTR [ecx+eax+12]
  00116	8b 45 dc	 mov	 eax, DWORD PTR _type$3[ebp]
  00119	f3 0f 10 84 82
	08 03 00 00	 movss	 xmm0, DWORD PTR [edx+eax*4+776]
  00122	f3 0f 5e 05 00
	00 00 00	 divss	 xmm0, DWORD PTR __real@42700000
  0012a	f3 0f 2c c0	 cvttss2si eax, xmm0
  0012e	99		 cdq
  0012f	b9 3c 00 00 00	 mov	 ecx, 60			; 0000003cH
  00134	f7 f9		 idiv	 ecx
  00136	89 55 f0	 mov	 DWORD PTR _minutes$[ebp], edx

; 193  : 			missions = log->side_log[side].gunship_missions[type];

  00139	69 45 0c 4c 03
	00 00		 imul	 eax, DWORD PTR _side$[ebp], 844
  00140	8b 4d 08	 mov	 ecx, DWORD PTR _log$[ebp]
  00143	8d 54 01 0c	 lea	 edx, DWORD PTR [ecx+eax+12]
  00147	8b 45 dc	 mov	 eax, DWORD PTR _type$3[ebp]
  0014a	0f b7 8c 42 30
	03 00 00	 movzx	 ecx, WORD PTR [edx+eax*2+816]
  00152	89 4d ec	 mov	 DWORD PTR _missions$[ebp], ecx

; 194  : 	
; 195  : 			if (hours == 0 && minutes == 0)

  00155	83 7d f4 00	 cmp	 DWORD PTR _hours$[ebp], 0
  00159	75 0b		 jne	 SHORT $LN10@rebuild_fl
  0015b	83 7d f0 00	 cmp	 DWORD PTR _minutes$[ebp], 0
  0015f	75 05		 jne	 SHORT $LN10@rebuild_fl

; 196  : 				continue;

  00161	e9 4c ff ff ff	 jmp	 $LN2@rebuild_fl
$LN10@rebuild_fl:

; 197  : 			
; 198  : 			// add row for helicopter type
; 199  : 			temp = add_to_pop_up_list (gunship, gunship_type_list, NULL, ENTITY_INDEX_DONT_CARE, get_current_language_font (UI_FONT_ARIAL_14), ui_option_title_text_colour);

  00166	a1 00 00 00 00	 mov	 eax, DWORD PTR ?ui_option_title_text_colour@@3UREAL_COLOUR@@A ; ui_option_title_text_colour
  0016b	50		 push	 eax
  0016c	6a 01		 push	 1
  0016e	e8 00 00 00 00	 call	 ?get_current_language_font@@YG?AW4FONT_TYPES@@W41@@Z ; get_current_language_font
  00173	50		 push	 eax
  00174	6a ff		 push	 -1
  00176	6a 00		 push	 0
  00178	8b 0d 00 00 00
	00		 mov	 ecx, DWORD PTR ?gunship_type_list@@3PAUUI_OBJECT@@A
  0017e	51		 push	 ecx
  0017f	8b 55 d8	 mov	 edx, DWORD PTR _gunship$2[ebp]
  00182	52		 push	 edx
  00183	e8 00 00 00 00	 call	 ?add_to_pop_up_list@@YGPAUUI_OBJECT@@PBDPAU1@1HHUREAL_COLOUR@@@Z ; add_to_pop_up_list
  00188	89 45 f8	 mov	 DWORD PTR _temp$[ebp], eax

; 200  : 			sprintf(buff, "%d", missions);

  0018b	8b 45 ec	 mov	 eax, DWORD PTR _missions$[ebp]
  0018e	50		 push	 eax
  0018f	68 00 00 00 00	 push	 OFFSET ??_C@_02DPKJAMEF@?$CFd@
  00194	8d 4d e0	 lea	 ecx, DWORD PTR _buff$[ebp]
  00197	51		 push	 ecx
  00198	e8 00 00 00 00	 call	 _sprintf
  0019d	83 c4 0c	 add	 esp, 12			; 0000000cH

; 201  : 			temp = add_to_pop_up_list (buff, gunship_missions_list, NULL, ENTITY_INDEX_DONT_CARE, get_current_language_font (UI_FONT_ARIAL_14), ui_option_title_text_colour);

  001a0	a1 00 00 00 00	 mov	 eax, DWORD PTR ?ui_option_title_text_colour@@3UREAL_COLOUR@@A ; ui_option_title_text_colour
  001a5	50		 push	 eax
  001a6	6a 01		 push	 1
  001a8	e8 00 00 00 00	 call	 ?get_current_language_font@@YG?AW4FONT_TYPES@@W41@@Z ; get_current_language_font
  001ad	50		 push	 eax
  001ae	6a ff		 push	 -1
  001b0	6a 00		 push	 0
  001b2	8b 0d 00 00 00
	00		 mov	 ecx, DWORD PTR ?gunship_missions_list@@3PAUUI_OBJECT@@A
  001b8	51		 push	 ecx
  001b9	8d 55 e0	 lea	 edx, DWORD PTR _buff$[ebp]
  001bc	52		 push	 edx
  001bd	e8 00 00 00 00	 call	 ?add_to_pop_up_list@@YGPAUUI_OBJECT@@PBDPAU1@1HHUREAL_COLOUR@@@Z ; add_to_pop_up_list
  001c2	89 45 f8	 mov	 DWORD PTR _temp$[ebp], eax

; 202  : 			sprintf(buff, "%d:%02d", hours, minutes);

  001c5	8b 45 f0	 mov	 eax, DWORD PTR _minutes$[ebp]
  001c8	50		 push	 eax
  001c9	8b 4d f4	 mov	 ecx, DWORD PTR _hours$[ebp]
  001cc	51		 push	 ecx
  001cd	68 00 00 00 00	 push	 OFFSET ??_C@_07COCHMHBB@?$CFd?3?$CF02d@
  001d2	8d 55 e0	 lea	 edx, DWORD PTR _buff$[ebp]
  001d5	52		 push	 edx
  001d6	e8 00 00 00 00	 call	 _sprintf
  001db	83 c4 10	 add	 esp, 16			; 00000010H

; 203  : 			temp = add_to_pop_up_list (buff, gunship_hours_list, NULL, ENTITY_INDEX_DONT_CARE, get_current_language_font (UI_FONT_ARIAL_14), ui_option_title_text_colour);

  001de	a1 00 00 00 00	 mov	 eax, DWORD PTR ?ui_option_title_text_colour@@3UREAL_COLOUR@@A ; ui_option_title_text_colour
  001e3	50		 push	 eax
  001e4	6a 01		 push	 1
  001e6	e8 00 00 00 00	 call	 ?get_current_language_font@@YG?AW4FONT_TYPES@@W41@@Z ; get_current_language_font
  001eb	50		 push	 eax
  001ec	6a ff		 push	 -1
  001ee	6a 00		 push	 0
  001f0	8b 0d 00 00 00
	00		 mov	 ecx, DWORD PTR ?gunship_hours_list@@3PAUUI_OBJECT@@A
  001f6	51		 push	 ecx
  001f7	8d 55 e0	 lea	 edx, DWORD PTR _buff$[ebp]
  001fa	52		 push	 edx
  001fb	e8 00 00 00 00	 call	 ?add_to_pop_up_list@@YGPAUUI_OBJECT@@PBDPAU1@1HHUREAL_COLOUR@@@Z ; add_to_pop_up_list
  00200	89 45 f8	 mov	 DWORD PTR _temp$[ebp], eax

; 204  : 		}

  00203	e9 aa fe ff ff	 jmp	 $LN2@rebuild_fl
$LN3@rebuild_fl:

; 205  : 	}
; 206  : 	else

  00208	e9 78 01 00 00	 jmp	 $LN6@rebuild_fl
$LN8@rebuild_fl:

; 207  : 	{
; 208  : 		player_warzone_log* warzone = log->side_log[side].warzone_log;

  0020d	69 45 0c 4c 03
	00 00		 imul	 eax, DWORD PTR _side$[ebp], 844
  00214	8b 4d 08	 mov	 ecx, DWORD PTR _log$[ebp]
  00217	8b 94 01 54 03
	00 00		 mov	 edx, DWORD PTR [ecx+eax+852]
  0021e	89 55 d4	 mov	 DWORD PTR _warzone$1[ebp], edx

; 209  : 		
; 210  : 		// headers
; 211  : 		temp = add_to_pop_up_list("Theater", gunship_type_list, NULL, ENTITY_INDEX_DONT_CARE, get_current_language_font (UI_FONT_ARIAL_14), ui_option_title_text_colour);

  00221	a1 00 00 00 00	 mov	 eax, DWORD PTR ?ui_option_title_text_colour@@3UREAL_COLOUR@@A ; ui_option_title_text_colour
  00226	50		 push	 eax
  00227	6a 01		 push	 1
  00229	e8 00 00 00 00	 call	 ?get_current_language_font@@YG?AW4FONT_TYPES@@W41@@Z ; get_current_language_font
  0022e	50		 push	 eax
  0022f	6a ff		 push	 -1
  00231	6a 00		 push	 0
  00233	8b 0d 00 00 00
	00		 mov	 ecx, DWORD PTR ?gunship_type_list@@3PAUUI_OBJECT@@A
  00239	51		 push	 ecx
  0023a	68 00 00 00 00	 push	 OFFSET ??_C@_07LIMLDKEI@Theater@
  0023f	e8 00 00 00 00	 call	 ?add_to_pop_up_list@@YGPAUUI_OBJECT@@PBDPAU1@1HHUREAL_COLOUR@@@Z ; add_to_pop_up_list
  00244	89 45 f8	 mov	 DWORD PTR _temp$[ebp], eax

; 212  : 		temp = add_to_pop_up_list("Miss.", gunship_missions_list, NULL, ENTITY_INDEX_DONT_CARE, get_current_language_font (UI_FONT_ARIAL_14), ui_option_title_text_colour);

  00247	a1 00 00 00 00	 mov	 eax, DWORD PTR ?ui_option_title_text_colour@@3UREAL_COLOUR@@A ; ui_option_title_text_colour
  0024c	50		 push	 eax
  0024d	6a 01		 push	 1
  0024f	e8 00 00 00 00	 call	 ?get_current_language_font@@YG?AW4FONT_TYPES@@W41@@Z ; get_current_language_font
  00254	50		 push	 eax
  00255	6a ff		 push	 -1
  00257	6a 00		 push	 0
  00259	8b 0d 00 00 00
	00		 mov	 ecx, DWORD PTR ?gunship_missions_list@@3PAUUI_OBJECT@@A
  0025f	51		 push	 ecx
  00260	68 00 00 00 00	 push	 OFFSET ??_C@_05ENODICIF@Miss?4@
  00265	e8 00 00 00 00	 call	 ?add_to_pop_up_list@@YGPAUUI_OBJECT@@PBDPAU1@1HHUREAL_COLOUR@@@Z ; add_to_pop_up_list
  0026a	89 45 f8	 mov	 DWORD PTR _temp$[ebp], eax

; 213  : 		temp = add_to_pop_up_list("Hours", gunship_hours_list, NULL, ENTITY_INDEX_DONT_CARE, get_current_language_font (UI_FONT_ARIAL_14), ui_option_title_text_colour);

  0026d	a1 00 00 00 00	 mov	 eax, DWORD PTR ?ui_option_title_text_colour@@3UREAL_COLOUR@@A ; ui_option_title_text_colour
  00272	50		 push	 eax
  00273	6a 01		 push	 1
  00275	e8 00 00 00 00	 call	 ?get_current_language_font@@YG?AW4FONT_TYPES@@W41@@Z ; get_current_language_font
  0027a	50		 push	 eax
  0027b	6a ff		 push	 -1
  0027d	6a 00		 push	 0
  0027f	8b 0d 00 00 00
	00		 mov	 ecx, DWORD PTR ?gunship_hours_list@@3PAUUI_OBJECT@@A
  00285	51		 push	 ecx
  00286	68 00 00 00 00	 push	 OFFSET ??_C@_05LJNCPAGE@Hours@
  0028b	e8 00 00 00 00	 call	 ?add_to_pop_up_list@@YGPAUUI_OBJECT@@PBDPAU1@1HHUREAL_COLOUR@@@Z ; add_to_pop_up_list
  00290	89 45 f8	 mov	 DWORD PTR _temp$[ebp], eax

; 214  : 
; 215  : 		for (; warzone; warzone = warzone->next)

  00293	eb 08		 jmp	 SHORT $LN7@rebuild_fl
$LN5@rebuild_fl:
  00295	8b 45 d4	 mov	 eax, DWORD PTR _warzone$1[ebp]
  00298	8b 08		 mov	 ecx, DWORD PTR [eax]
  0029a	89 4d d4	 mov	 DWORD PTR _warzone$1[ebp], ecx
$LN7@rebuild_fl:
  0029d	83 7d d4 00	 cmp	 DWORD PTR _warzone$1[ebp], 0
  002a1	0f 84 de 00 00
	00		 je	 $LN6@rebuild_fl

; 216  : 		{
; 217  : 			hours = (int)(warzone->flying_seconds / ONE_HOUR);

  002a7	8b 45 d4	 mov	 eax, DWORD PTR _warzone$1[ebp]
  002aa	f3 0f 10 40 0c	 movss	 xmm0, DWORD PTR [eax+12]
  002af	f3 0f 5e 05 00
	00 00 00	 divss	 xmm0, DWORD PTR __real@45610000
  002b7	f3 0f 2c c8	 cvttss2si ecx, xmm0
  002bb	89 4d f4	 mov	 DWORD PTR _hours$[ebp], ecx

; 218  : 			minutes = (int)(warzone->flying_seconds / ONE_MINUTE) % 60;

  002be	8b 45 d4	 mov	 eax, DWORD PTR _warzone$1[ebp]
  002c1	f3 0f 10 40 0c	 movss	 xmm0, DWORD PTR [eax+12]
  002c6	f3 0f 5e 05 00
	00 00 00	 divss	 xmm0, DWORD PTR __real@42700000
  002ce	f3 0f 2c c0	 cvttss2si eax, xmm0
  002d2	99		 cdq
  002d3	b9 3c 00 00 00	 mov	 ecx, 60			; 0000003cH
  002d8	f7 f9		 idiv	 ecx
  002da	89 55 f0	 mov	 DWORD PTR _minutes$[ebp], edx

; 219  : 				
; 220  : 			// add row for warzone
; 221  : 			temp = add_to_pop_up_list (warzone->warzone_name, gunship_type_list, NULL, ENTITY_INDEX_DONT_CARE, get_current_language_font (UI_FONT_ARIAL_14), ui_option_title_text_colour);

  002dd	a1 00 00 00 00	 mov	 eax, DWORD PTR ?ui_option_title_text_colour@@3UREAL_COLOUR@@A ; ui_option_title_text_colour
  002e2	50		 push	 eax
  002e3	6a 01		 push	 1
  002e5	e8 00 00 00 00	 call	 ?get_current_language_font@@YG?AW4FONT_TYPES@@W41@@Z ; get_current_language_font
  002ea	50		 push	 eax
  002eb	6a ff		 push	 -1
  002ed	6a 00		 push	 0
  002ef	8b 0d 00 00 00
	00		 mov	 ecx, DWORD PTR ?gunship_type_list@@3PAUUI_OBJECT@@A
  002f5	51		 push	 ecx
  002f6	8b 55 d4	 mov	 edx, DWORD PTR _warzone$1[ebp]
  002f9	8b 42 04	 mov	 eax, DWORD PTR [edx+4]
  002fc	50		 push	 eax
  002fd	e8 00 00 00 00	 call	 ?add_to_pop_up_list@@YGPAUUI_OBJECT@@PBDPAU1@1HHUREAL_COLOUR@@@Z ; add_to_pop_up_list
  00302	89 45 f8	 mov	 DWORD PTR _temp$[ebp], eax

; 222  : 			sprintf(buff, "%d", warzone->missions);

  00305	8b 45 d4	 mov	 eax, DWORD PTR _warzone$1[ebp]
  00308	8b 48 08	 mov	 ecx, DWORD PTR [eax+8]
  0030b	51		 push	 ecx
  0030c	68 00 00 00 00	 push	 OFFSET ??_C@_02DPKJAMEF@?$CFd@
  00311	8d 55 e0	 lea	 edx, DWORD PTR _buff$[ebp]
  00314	52		 push	 edx
  00315	e8 00 00 00 00	 call	 _sprintf
  0031a	83 c4 0c	 add	 esp, 12			; 0000000cH

; 223  : 			temp = add_to_pop_up_list (buff, gunship_missions_list, NULL, ENTITY_INDEX_DONT_CARE, get_current_language_font (UI_FONT_ARIAL_14), ui_option_title_text_colour);

  0031d	a1 00 00 00 00	 mov	 eax, DWORD PTR ?ui_option_title_text_colour@@3UREAL_COLOUR@@A ; ui_option_title_text_colour
  00322	50		 push	 eax
  00323	6a 01		 push	 1
  00325	e8 00 00 00 00	 call	 ?get_current_language_font@@YG?AW4FONT_TYPES@@W41@@Z ; get_current_language_font
  0032a	50		 push	 eax
  0032b	6a ff		 push	 -1
  0032d	6a 00		 push	 0
  0032f	8b 0d 00 00 00
	00		 mov	 ecx, DWORD PTR ?gunship_missions_list@@3PAUUI_OBJECT@@A
  00335	51		 push	 ecx
  00336	8d 55 e0	 lea	 edx, DWORD PTR _buff$[ebp]
  00339	52		 push	 edx
  0033a	e8 00 00 00 00	 call	 ?add_to_pop_up_list@@YGPAUUI_OBJECT@@PBDPAU1@1HHUREAL_COLOUR@@@Z ; add_to_pop_up_list
  0033f	89 45 f8	 mov	 DWORD PTR _temp$[ebp], eax

; 224  : 			sprintf(buff, "%d:%02d", hours, minutes);

  00342	8b 45 f0	 mov	 eax, DWORD PTR _minutes$[ebp]
  00345	50		 push	 eax
  00346	8b 4d f4	 mov	 ecx, DWORD PTR _hours$[ebp]
  00349	51		 push	 ecx
  0034a	68 00 00 00 00	 push	 OFFSET ??_C@_07COCHMHBB@?$CFd?3?$CF02d@
  0034f	8d 55 e0	 lea	 edx, DWORD PTR _buff$[ebp]
  00352	52		 push	 edx
  00353	e8 00 00 00 00	 call	 _sprintf
  00358	83 c4 10	 add	 esp, 16			; 00000010H

; 225  : 			temp = add_to_pop_up_list (buff, gunship_hours_list, NULL, ENTITY_INDEX_DONT_CARE, get_current_language_font (UI_FONT_ARIAL_14), ui_option_title_text_colour);

  0035b	a1 00 00 00 00	 mov	 eax, DWORD PTR ?ui_option_title_text_colour@@3UREAL_COLOUR@@A ; ui_option_title_text_colour
  00360	50		 push	 eax
  00361	6a 01		 push	 1
  00363	e8 00 00 00 00	 call	 ?get_current_language_font@@YG?AW4FONT_TYPES@@W41@@Z ; get_current_language_font
  00368	50		 push	 eax
  00369	6a ff		 push	 -1
  0036b	6a 00		 push	 0
  0036d	8b 0d 00 00 00
	00		 mov	 ecx, DWORD PTR ?gunship_hours_list@@3PAUUI_OBJECT@@A
  00373	51		 push	 ecx
  00374	8d 55 e0	 lea	 edx, DWORD PTR _buff$[ebp]
  00377	52		 push	 edx
  00378	e8 00 00 00 00	 call	 ?add_to_pop_up_list@@YGPAUUI_OBJECT@@PBDPAU1@1HHUREAL_COLOUR@@@Z ; add_to_pop_up_list
  0037d	89 45 f8	 mov	 DWORD PTR _temp$[ebp], eax

; 226  : 		}

  00380	e9 10 ff ff ff	 jmp	 $LN5@rebuild_fl
$LN6@rebuild_fl:

; 227  : 	}
; 228  : 	
; 229  : 	// empty row
; 230  : 	temp = add_to_pop_up_list ("", gunship_type_list, NULL, ENTITY_INDEX_DONT_CARE, get_current_language_font (UI_FONT_ARIAL_14), ui_option_title_text_colour);

  00385	a1 00 00 00 00	 mov	 eax, DWORD PTR ?ui_option_title_text_colour@@3UREAL_COLOUR@@A ; ui_option_title_text_colour
  0038a	50		 push	 eax
  0038b	6a 01		 push	 1
  0038d	e8 00 00 00 00	 call	 ?get_current_language_font@@YG?AW4FONT_TYPES@@W41@@Z ; get_current_language_font
  00392	50		 push	 eax
  00393	6a ff		 push	 -1
  00395	6a 00		 push	 0
  00397	8b 0d 00 00 00
	00		 mov	 ecx, DWORD PTR ?gunship_type_list@@3PAUUI_OBJECT@@A
  0039d	51		 push	 ecx
  0039e	68 00 00 00 00	 push	 OFFSET ??_C@_00CNPNBAHC@@
  003a3	e8 00 00 00 00	 call	 ?add_to_pop_up_list@@YGPAUUI_OBJECT@@PBDPAU1@1HHUREAL_COLOUR@@@Z ; add_to_pop_up_list
  003a8	89 45 f8	 mov	 DWORD PTR _temp$[ebp], eax

; 231  : 	temp = add_to_pop_up_list ("", gunship_missions_list, NULL, ENTITY_INDEX_DONT_CARE, get_current_language_font (UI_FONT_ARIAL_14), ui_option_title_text_colour);

  003ab	a1 00 00 00 00	 mov	 eax, DWORD PTR ?ui_option_title_text_colour@@3UREAL_COLOUR@@A ; ui_option_title_text_colour
  003b0	50		 push	 eax
  003b1	6a 01		 push	 1
  003b3	e8 00 00 00 00	 call	 ?get_current_language_font@@YG?AW4FONT_TYPES@@W41@@Z ; get_current_language_font
  003b8	50		 push	 eax
  003b9	6a ff		 push	 -1
  003bb	6a 00		 push	 0
  003bd	8b 0d 00 00 00
	00		 mov	 ecx, DWORD PTR ?gunship_missions_list@@3PAUUI_OBJECT@@A
  003c3	51		 push	 ecx
  003c4	68 00 00 00 00	 push	 OFFSET ??_C@_00CNPNBAHC@@
  003c9	e8 00 00 00 00	 call	 ?add_to_pop_up_list@@YGPAUUI_OBJECT@@PBDPAU1@1HHUREAL_COLOUR@@@Z ; add_to_pop_up_list
  003ce	89 45 f8	 mov	 DWORD PTR _temp$[ebp], eax

; 232  : 	temp = add_to_pop_up_list ("", gunship_hours_list, NULL, ENTITY_INDEX_DONT_CARE, get_current_language_font (UI_FONT_ARIAL_14), ui_option_title_text_colour);

  003d1	a1 00 00 00 00	 mov	 eax, DWORD PTR ?ui_option_title_text_colour@@3UREAL_COLOUR@@A ; ui_option_title_text_colour
  003d6	50		 push	 eax
  003d7	6a 01		 push	 1
  003d9	e8 00 00 00 00	 call	 ?get_current_language_font@@YG?AW4FONT_TYPES@@W41@@Z ; get_current_language_font
  003de	50		 push	 eax
  003df	6a ff		 push	 -1
  003e1	6a 00		 push	 0
  003e3	8b 0d 00 00 00
	00		 mov	 ecx, DWORD PTR ?gunship_hours_list@@3PAUUI_OBJECT@@A
  003e9	51		 push	 ecx
  003ea	68 00 00 00 00	 push	 OFFSET ??_C@_00CNPNBAHC@@
  003ef	e8 00 00 00 00	 call	 ?add_to_pop_up_list@@YGPAUUI_OBJECT@@PBDPAU1@1HHUREAL_COLOUR@@@Z ; add_to_pop_up_list
  003f4	89 45 f8	 mov	 DWORD PTR _temp$[ebp], eax

; 233  : 
; 234  : 	// total
; 235  : 	hours = (unsigned int)(log->side_log[side].flying_seconds / ONE_HOUR);

  003f7	69 45 0c 4c 03
	00 00		 imul	 eax, DWORD PTR _side$[ebp], 844
  003fe	8b 4d 08	 mov	 ecx, DWORD PTR _log$[ebp]
  00401	f3 0f 10 84 01
	80 00 00 00	 movss	 xmm0, DWORD PTR [ecx+eax+128]
  0040a	f3 0f 5e 05 00
	00 00 00	 divss	 xmm0, DWORD PTR __real@45610000
  00412	e8 00 00 00 00	 call	 __ftoui3
  00417	89 45 f4	 mov	 DWORD PTR _hours$[ebp], eax

; 236  : 	minutes = (unsigned int)(log->side_log[side].flying_seconds / ONE_MINUTE) % 60;

  0041a	69 45 0c 4c 03
	00 00		 imul	 eax, DWORD PTR _side$[ebp], 844
  00421	8b 4d 08	 mov	 ecx, DWORD PTR _log$[ebp]
  00424	f3 0f 10 84 01
	80 00 00 00	 movss	 xmm0, DWORD PTR [ecx+eax+128]
  0042d	f3 0f 5e 05 00
	00 00 00	 divss	 xmm0, DWORD PTR __real@42700000
  00435	e8 00 00 00 00	 call	 __ftoui3
  0043a	33 d2		 xor	 edx, edx
  0043c	b9 3c 00 00 00	 mov	 ecx, 60			; 0000003cH
  00441	f7 f1		 div	 ecx
  00443	89 55 f0	 mov	 DWORD PTR _minutes$[ebp], edx

; 237  : 	missions = log->side_log[side].missions_flown;

  00446	69 45 0c 4c 03
	00 00		 imul	 eax, DWORD PTR _side$[ebp], 844
  0044d	8b 4d 08	 mov	 ecx, DWORD PTR _log$[ebp]
  00450	8b 54 01 18	 mov	 edx, DWORD PTR [ecx+eax+24]
  00454	89 55 ec	 mov	 DWORD PTR _missions$[ebp], edx

; 238  : 	
; 239  : 	temp = add_to_pop_up_list ("Total", gunship_type_list, NULL, ENTITY_INDEX_DONT_CARE, get_current_language_font (UI_FONT_ARIAL_14), ui_option_title_text_colour);

  00457	a1 00 00 00 00	 mov	 eax, DWORD PTR ?ui_option_title_text_colour@@3UREAL_COLOUR@@A ; ui_option_title_text_colour
  0045c	50		 push	 eax
  0045d	6a 01		 push	 1
  0045f	e8 00 00 00 00	 call	 ?get_current_language_font@@YG?AW4FONT_TYPES@@W41@@Z ; get_current_language_font
  00464	50		 push	 eax
  00465	6a ff		 push	 -1
  00467	6a 00		 push	 0
  00469	8b 0d 00 00 00
	00		 mov	 ecx, DWORD PTR ?gunship_type_list@@3PAUUI_OBJECT@@A
  0046f	51		 push	 ecx
  00470	68 00 00 00 00	 push	 OFFSET ??_C@_05KGEAEGFG@Total@
  00475	e8 00 00 00 00	 call	 ?add_to_pop_up_list@@YGPAUUI_OBJECT@@PBDPAU1@1HHUREAL_COLOUR@@@Z ; add_to_pop_up_list
  0047a	89 45 f8	 mov	 DWORD PTR _temp$[ebp], eax

; 240  : 	sprintf(buff, "%d", missions);

  0047d	8b 45 ec	 mov	 eax, DWORD PTR _missions$[ebp]
  00480	50		 push	 eax
  00481	68 00 00 00 00	 push	 OFFSET ??_C@_02DPKJAMEF@?$CFd@
  00486	8d 4d e0	 lea	 ecx, DWORD PTR _buff$[ebp]
  00489	51		 push	 ecx
  0048a	e8 00 00 00 00	 call	 _sprintf
  0048f	83 c4 0c	 add	 esp, 12			; 0000000cH

; 241  : 	temp = add_to_pop_up_list (buff, gunship_missions_list, NULL, ENTITY_INDEX_DONT_CARE, get_current_language_font (UI_FONT_ARIAL_14), ui_option_title_text_colour);

  00492	a1 00 00 00 00	 mov	 eax, DWORD PTR ?ui_option_title_text_colour@@3UREAL_COLOUR@@A ; ui_option_title_text_colour
  00497	50		 push	 eax
  00498	6a 01		 push	 1
  0049a	e8 00 00 00 00	 call	 ?get_current_language_font@@YG?AW4FONT_TYPES@@W41@@Z ; get_current_language_font
  0049f	50		 push	 eax
  004a0	6a ff		 push	 -1
  004a2	6a 00		 push	 0
  004a4	8b 0d 00 00 00
	00		 mov	 ecx, DWORD PTR ?gunship_missions_list@@3PAUUI_OBJECT@@A
  004aa	51		 push	 ecx
  004ab	8d 55 e0	 lea	 edx, DWORD PTR _buff$[ebp]
  004ae	52		 push	 edx
  004af	e8 00 00 00 00	 call	 ?add_to_pop_up_list@@YGPAUUI_OBJECT@@PBDPAU1@1HHUREAL_COLOUR@@@Z ; add_to_pop_up_list
  004b4	89 45 f8	 mov	 DWORD PTR _temp$[ebp], eax

; 242  : 	sprintf(buff, "%d:%02d", hours, minutes);

  004b7	8b 45 f0	 mov	 eax, DWORD PTR _minutes$[ebp]
  004ba	50		 push	 eax
  004bb	8b 4d f4	 mov	 ecx, DWORD PTR _hours$[ebp]
  004be	51		 push	 ecx
  004bf	68 00 00 00 00	 push	 OFFSET ??_C@_07COCHMHBB@?$CFd?3?$CF02d@
  004c4	8d 55 e0	 lea	 edx, DWORD PTR _buff$[ebp]
  004c7	52		 push	 edx
  004c8	e8 00 00 00 00	 call	 _sprintf
  004cd	83 c4 10	 add	 esp, 16			; 00000010H

; 243  : 	temp = add_to_pop_up_list (buff, gunship_hours_list, NULL, ENTITY_INDEX_DONT_CARE, get_current_language_font (UI_FONT_ARIAL_14), ui_option_title_text_colour);

  004d0	a1 00 00 00 00	 mov	 eax, DWORD PTR ?ui_option_title_text_colour@@3UREAL_COLOUR@@A ; ui_option_title_text_colour
  004d5	50		 push	 eax
  004d6	6a 01		 push	 1
  004d8	e8 00 00 00 00	 call	 ?get_current_language_font@@YG?AW4FONT_TYPES@@W41@@Z ; get_current_language_font
  004dd	50		 push	 eax
  004de	6a ff		 push	 -1
  004e0	6a 00		 push	 0
  004e2	8b 0d 00 00 00
	00		 mov	 ecx, DWORD PTR ?gunship_hours_list@@3PAUUI_OBJECT@@A
  004e8	51		 push	 ecx
  004e9	8d 55 e0	 lea	 edx, DWORD PTR _buff$[ebp]
  004ec	52		 push	 edx
  004ed	e8 00 00 00 00	 call	 ?add_to_pop_up_list@@YGPAUUI_OBJECT@@PBDPAU1@1HHUREAL_COLOUR@@@Z ; add_to_pop_up_list
  004f2	89 45 f8	 mov	 DWORD PTR _temp$[ebp], eax

; 244  : }

  004f5	5f		 pop	 edi
  004f6	5e		 pop	 esi
  004f7	5b		 pop	 ebx
  004f8	8b e5		 mov	 esp, ebp
  004fa	5d		 pop	 ebp
  004fb	c2 08 00	 ret	 8
?rebuild_flight_hours_list@@YGXPAUPLAYER_LOG_TYPE@@H@Z ENDP ; rebuild_flight_hours_list
_TEXT	ENDS
; Function compile flags: /Odtp /ZI
; File c:\users\nhv90\projects\eech\aphavoc\source\ui_menu\player\play_hours.c
;	COMDAT ?notify_show_flight_hours_page@@YGXPAUUI_OBJECT@@@Z
_TEXT	SEGMENT
_obj$ = 8						; size = 4
?notify_show_flight_hours_page@@YGXPAUUI_OBJECT@@@Z PROC ; notify_show_flight_hours_page, COMDAT

; 155  : {

  00000	55		 push	 ebp
  00001	8b ec		 mov	 ebp, esp
  00003	83 ec 40	 sub	 esp, 64			; 00000040H
  00006	53		 push	 ebx
  00007	56		 push	 esi
  00008	57		 push	 edi

; 156  : 
; 157  : 	display_player_log_page (LOG_PAGE_FLIGHT_HOURS);

  00009	6a 02		 push	 2
  0000b	e8 00 00 00 00	 call	 ?display_player_log_page@@YGXW4PLAYER_LOG_PAGES@@@Z ; display_player_log_page

; 158  : 
; 159  : 	#if DEBUG_MODULE
; 160  : 		debug_filtered_log("Inside show_weapon_log_page");
; 161  : 	#endif
; 162  : }

  00010	5f		 pop	 edi
  00011	5e		 pop	 esi
  00012	5b		 pop	 ebx
  00013	8b e5		 mov	 esp, ebp
  00015	5d		 pop	 ebp
  00016	c2 04 00	 ret	 4
?notify_show_flight_hours_page@@YGXPAUUI_OBJECT@@@Z ENDP ; notify_show_flight_hours_page
_TEXT	ENDS
; Function compile flags: /Odtp /ZI
; File c:\users\nhv90\projects\eech\aphavoc\source\ui_menu\player\play_hours.c
;	COMDAT ?get_current_warzone_log@@YGPAUPLAYER_WARZONE_LOG@@PAUPLAYER_LOG_TYPE@@H@Z
_TEXT	SEGMENT
_log$ = 8						; size = 4
_side$ = 12						; size = 4
?get_current_warzone_log@@YGPAUPLAYER_WARZONE_LOG@@PAUPLAYER_LOG_TYPE@@H@Z PROC ; get_current_warzone_log, COMDAT

; 105  : {

  00000	55		 push	 ebp
  00001	8b ec		 mov	 ebp, esp
  00003	83 ec 40	 sub	 esp, 64			; 00000040H
  00006	53		 push	 ebx
  00007	56		 push	 esi
  00008	57		 push	 edi

; 106  : 	/*
; 107  : 	player_warzone_log* warzone, *last_warzone = NULL;
; 108  : 	session_list_data_type* session = get_current_game_session();
; 109  : 	const char* warzone_name;
; 110  : 	
; 111  : 	if (!log || !session)
; 112  : 		return NULL;
; 113  : 
; 114  : 	warzone_name = session->warzone_name;
; 115  : 
; 116  : 	debug_log("warzone name: %s, title: %s, display_title: %s", warzone_name, session->title, session->displayed_title);
; 117  : 
; 118  : 	for (warzone = log->side_log[side].warzone_log; warzone; warzone = warzone->next)
; 119  : 	{
; 120  : 		if (strcmp(warzone_name, warzone->warzone_name) == 0)
; 121  : 		{
; 122  : 			debug_log("found log for %s with %.2f seconds", warzone->warzone_name, warzone->flying_seconds);
; 123  : 			return warzone;
; 124  : 		}
; 125  : 
; 126  : 		last_warzone = warzone;
; 127  : 	}
; 128  : 
; 129  : 	debug_log("creating new log for %s", warzone_name);
; 130  : 
; 131  : 	// we don't have any log for this zone yet, create it
; 132  : 	warzone = malloc_heap_mem(sizeof(player_warzone_log));
; 133  : 	memset(warzone, 0, sizeof(player_warzone_log));
; 134  : 
; 135  : 	// set name
; 136  : 	warzone->warzone_name = malloc_heap_mem(sizeof(warzone_name));
; 137  : 	strcpy(warzone->warzone_name, warzone_name);
; 138  : 
; 139  : 	// insert it last
; 140  : 	if (last_warzone)
; 141  : 		last_warzone->next = warzone;
; 142  : 	else
; 143  : 		log->side_log[side].warzone_log = warzone;
; 144  : 
; 145  : 	return warzone;
; 146  : 	*/
; 147  : 	return NULL;

  00009	33 c0		 xor	 eax, eax

; 148  : }

  0000b	5f		 pop	 edi
  0000c	5e		 pop	 esi
  0000d	5b		 pop	 ebx
  0000e	8b e5		 mov	 esp, ebp
  00010	5d		 pop	 ebp
  00011	c2 08 00	 ret	 8
?get_current_warzone_log@@YGPAUPLAYER_WARZONE_LOG@@PAUPLAYER_LOG_TYPE@@H@Z ENDP ; get_current_warzone_log
_TEXT	ENDS
; Function compile flags: /Odtp /ZI
; File c:\program files (x86)\windows kits\10\include\10.0.18362.0\ucrt\stdio.h
;	COMDAT _sprintf
_TEXT	SEGMENT
__ArgList$ = -8						; size = 4
__Result$ = -4						; size = 4
__Buffer$ = 8						; size = 4
__Format$ = 12						; size = 4
_sprintf PROC						; COMDAT

; 1781 :     {

  00000	55		 push	 ebp
  00001	8b ec		 mov	 ebp, esp
  00003	83 ec 4c	 sub	 esp, 76			; 0000004cH
  00006	53		 push	 ebx
  00007	56		 push	 esi
  00008	57		 push	 edi

; 1782 :         int _Result;
; 1783 :         va_list _ArgList;
; 1784 :         __crt_va_start(_ArgList, _Format);

  00009	8d 45 10	 lea	 eax, DWORD PTR __Format$[ebp+4]
  0000c	89 45 f8	 mov	 DWORD PTR __ArgList$[ebp], eax

; 1785 : 
; 1786 :         #pragma warning(push)
; 1787 :         #pragma warning(disable: 4996) // Deprecation
; 1788 :         _Result = _vsprintf_l(_Buffer, _Format, NULL, _ArgList);

  0000f	8b 45 f8	 mov	 eax, DWORD PTR __ArgList$[ebp]
  00012	50		 push	 eax
  00013	6a 00		 push	 0
  00015	8b 4d 0c	 mov	 ecx, DWORD PTR __Format$[ebp]
  00018	51		 push	 ecx
  00019	8b 55 08	 mov	 edx, DWORD PTR __Buffer$[ebp]
  0001c	52		 push	 edx
  0001d	e8 00 00 00 00	 call	 __vsprintf_l
  00022	83 c4 10	 add	 esp, 16			; 00000010H
  00025	89 45 fc	 mov	 DWORD PTR __Result$[ebp], eax

; 1789 :         #pragma warning(pop)
; 1790 : 
; 1791 :         __crt_va_end(_ArgList);

  00028	c7 45 f8 00 00
	00 00		 mov	 DWORD PTR __ArgList$[ebp], 0

; 1792 :         return _Result;

  0002f	8b 45 fc	 mov	 eax, DWORD PTR __Result$[ebp]

; 1793 :     }

  00032	5f		 pop	 edi
  00033	5e		 pop	 esi
  00034	5b		 pop	 ebx
  00035	8b e5		 mov	 esp, ebp
  00037	5d		 pop	 ebp
  00038	c3		 ret	 0
_sprintf ENDP
_TEXT	ENDS
; Function compile flags: /Odtp /ZI
; File c:\program files (x86)\windows kits\10\include\10.0.18362.0\ucrt\stdio.h
;	COMDAT __vsprintf_l
_TEXT	SEGMENT
__Buffer$ = 8						; size = 4
__Format$ = 12						; size = 4
__Locale$ = 16						; size = 4
__ArgList$ = 20						; size = 4
__vsprintf_l PROC					; COMDAT

; 1459 :     {

  00000	55		 push	 ebp
  00001	8b ec		 mov	 ebp, esp
  00003	83 ec 40	 sub	 esp, 64			; 00000040H
  00006	53		 push	 ebx
  00007	56		 push	 esi
  00008	57		 push	 edi

; 1460 :         #pragma warning(push)
; 1461 :         #pragma warning(disable: 4996) // Deprecation
; 1462 :         return _vsnprintf_l(_Buffer, (size_t)-1, _Format, _Locale, _ArgList);

  00009	8b 45 14	 mov	 eax, DWORD PTR __ArgList$[ebp]
  0000c	50		 push	 eax
  0000d	8b 4d 10	 mov	 ecx, DWORD PTR __Locale$[ebp]
  00010	51		 push	 ecx
  00011	8b 55 0c	 mov	 edx, DWORD PTR __Format$[ebp]
  00014	52		 push	 edx
  00015	6a ff		 push	 -1
  00017	8b 45 08	 mov	 eax, DWORD PTR __Buffer$[ebp]
  0001a	50		 push	 eax
  0001b	e8 00 00 00 00	 call	 __vsnprintf_l
  00020	83 c4 14	 add	 esp, 20			; 00000014H

; 1463 :         #pragma warning(pop)
; 1464 :     }

  00023	5f		 pop	 edi
  00024	5e		 pop	 esi
  00025	5b		 pop	 ebx
  00026	8b e5		 mov	 esp, ebp
  00028	5d		 pop	 ebp
  00029	c3		 ret	 0
__vsprintf_l ENDP
_TEXT	ENDS
; Function compile flags: /Odtp /ZI
; File c:\program files (x86)\windows kits\10\include\10.0.18362.0\ucrt\stdio.h
;	COMDAT __vsnprintf_l
_TEXT	SEGMENT
tv74 = -72						; size = 4
__Result$ = -4						; size = 4
__Buffer$ = 8						; size = 4
__BufferCount$ = 12					; size = 4
__Format$ = 16						; size = 4
__Locale$ = 20						; size = 4
__ArgList$ = 24						; size = 4
__vsnprintf_l PROC					; COMDAT

; 1389 :     {

  00000	55		 push	 ebp
  00001	8b ec		 mov	 ebp, esp
  00003	83 ec 48	 sub	 esp, 72			; 00000048H
  00006	53		 push	 ebx
  00007	56		 push	 esi
  00008	57		 push	 edi

; 1390 :         int const _Result = __stdio_common_vsprintf(

  00009	8b 45 18	 mov	 eax, DWORD PTR __ArgList$[ebp]
  0000c	50		 push	 eax
  0000d	8b 4d 14	 mov	 ecx, DWORD PTR __Locale$[ebp]
  00010	51		 push	 ecx
  00011	8b 55 10	 mov	 edx, DWORD PTR __Format$[ebp]
  00014	52		 push	 edx
  00015	8b 45 0c	 mov	 eax, DWORD PTR __BufferCount$[ebp]
  00018	50		 push	 eax
  00019	8b 4d 08	 mov	 ecx, DWORD PTR __Buffer$[ebp]
  0001c	51		 push	 ecx
  0001d	e8 00 00 00 00	 call	 ___local_stdio_printf_options
  00022	8b 10		 mov	 edx, DWORD PTR [eax]
  00024	83 ca 01	 or	 edx, 1
  00027	8b 40 04	 mov	 eax, DWORD PTR [eax+4]
  0002a	50		 push	 eax
  0002b	52		 push	 edx
  0002c	ff 15 00 00 00
	00		 call	 DWORD PTR __imp____stdio_common_vsprintf
  00032	83 c4 1c	 add	 esp, 28			; 0000001cH
  00035	89 45 fc	 mov	 DWORD PTR __Result$[ebp], eax

; 1391 :             _CRT_INTERNAL_LOCAL_PRINTF_OPTIONS | _CRT_INTERNAL_PRINTF_LEGACY_VSPRINTF_NULL_TERMINATION,
; 1392 :             _Buffer, _BufferCount, _Format, _Locale, _ArgList);
; 1393 : 
; 1394 :         return _Result < 0 ? -1 : _Result;

  00038	83 7d fc 00	 cmp	 DWORD PTR __Result$[ebp], 0
  0003c	7d 09		 jge	 SHORT $LN3@vsnprintf_
  0003e	c7 45 b8 ff ff
	ff ff		 mov	 DWORD PTR tv74[ebp], -1
  00045	eb 06		 jmp	 SHORT $LN4@vsnprintf_
$LN3@vsnprintf_:
  00047	8b 45 fc	 mov	 eax, DWORD PTR __Result$[ebp]
  0004a	89 45 b8	 mov	 DWORD PTR tv74[ebp], eax
$LN4@vsnprintf_:
  0004d	8b 45 b8	 mov	 eax, DWORD PTR tv74[ebp]

; 1395 :     }

  00050	5f		 pop	 edi
  00051	5e		 pop	 esi
  00052	5b		 pop	 ebx
  00053	8b e5		 mov	 esp, ebp
  00055	5d		 pop	 ebp
  00056	c3		 ret	 0
__vsnprintf_l ENDP
_TEXT	ENDS
; Function compile flags: /Odtp /ZI
; File c:\program files (x86)\windows kits\10\include\10.0.18362.0\ucrt\corecrt_stdio_config.h
;	COMDAT ___local_stdio_printf_options
_TEXT	SEGMENT
___local_stdio_printf_options PROC			; COMDAT

; 86   :     {

  00000	55		 push	 ebp
  00001	8b ec		 mov	 ebp, esp
  00003	83 ec 40	 sub	 esp, 64			; 00000040H
  00006	53		 push	 ebx
  00007	56		 push	 esi
  00008	57		 push	 edi

; 87   :         static unsigned __int64 _OptionsStorage;
; 88   :         return &_OptionsStorage;

  00009	b8 00 00 00 00	 mov	 eax, OFFSET ?_OptionsStorage@?1??__local_stdio_printf_options@@9@4_KA ; `__local_stdio_printf_options'::`2'::_OptionsStorage

; 89   :     }

  0000e	5f		 pop	 edi
  0000f	5e		 pop	 esi
  00010	5b		 pop	 ebx
  00011	8b e5		 mov	 esp, ebp
  00013	5d		 pop	 ebp
  00014	c3		 ret	 0
___local_stdio_printf_options ENDP
_TEXT	ENDS
END
