; Listing generated by Microsoft (R) Optimizing Compiler Version 19.16.27045.0 

	TITLE	C:\Users\nhv90\Projects\eech\aphavoc\source\ui_menu\player\play_gn.c
	.686P
	.XMM
	include listing.inc
	.model	flat

INCLUDELIB MSVCRTD
INCLUDELIB OLDNAMES

PUBLIC	?general_log_area@@3PAUUI_OBJECT@@A		; general_log_area
PUBLIC	?general_log_text_list_area@@3PAUUI_OBJECT@@A	; general_log_text_list_area
PUBLIC	?general_log_text_list@@3PAUUI_OBJECT@@A	; general_log_text_list
PUBLIC	?general_log_output_list_area@@3PAUUI_OBJECT@@A	; general_log_output_list_area
PUBLIC	?general_log_output_list@@3PAUUI_OBJECT@@A	; general_log_output_list
_BSS	SEGMENT
?general_log_area@@3PAUUI_OBJECT@@A DD 01H DUP (?)	; general_log_area
?general_log_text_list_area@@3PAUUI_OBJECT@@A DD 01H DUP (?) ; general_log_text_list_area
?general_log_text_list@@3PAUUI_OBJECT@@A DD 01H DUP (?)	; general_log_text_list
?general_log_output_list_area@@3PAUUI_OBJECT@@A DD 01H DUP (?) ; general_log_output_list_area
?general_log_output_list@@3PAUUI_OBJECT@@A DD 01H DUP (?) ; general_log_output_list
_BSS	ENDS
PUBLIC	___local_stdio_printf_options
PUBLIC	__vsnprintf_l
PUBLIC	__vsprintf_l
PUBLIC	_sprintf
PUBLIC	?notify_show_general_log_page@@YGXPAUUI_OBJECT@@@Z ; notify_show_general_log_page
PUBLIC	?define_general_log_page_objects@@YGXXZ		; define_general_log_page_objects
PUBLIC	?rebuild_general_log_list@@YGXPAUPLAYER_LOG_TYPE@@H@Z ; rebuild_general_log_list
PUBLIC	?_OptionsStorage@?1??__local_stdio_printf_options@@9@4_KA ; `__local_stdio_printf_options'::`2'::_OptionsStorage
PUBLIC	??_C@_02DPKJAMEF@?$CFd@				; `string'
PUBLIC	??_C@_0P@GOEIDLBI@Aircraft?5kills@		; `string'
PUBLIC	??_C@_0BB@PGGDALNK@Helicopter?5kills@		; `string'
PUBLIC	??_C@_0N@OBGHGPHF@Ground?5Kills@		; `string'
PUBLIC	??_C@_0O@CLPOICOD@?5?5Air?5defence@		; `string'
PUBLIC	??_C@_08ILDDDMMF@?5?5Armour@			; `string'
PUBLIC	??_C@_0M@FBKFAPD@?5?5Artillery@			; `string'
PUBLIC	??_C@_09EOMMEIMJ@Sea?5Kills@			; `string'
PUBLIC	??_C@_0M@HKADIJJM@Fratricides@			; `string'
PUBLIC	??_C@_03NDEAONJP@?5?5?5@			; `string'
PUBLIC	??_C@_0BB@DKPFAEL@Helicopters?5lost@		; `string'
PUBLIC	??_C@_03EIHDHNE@KIA@				; `string'
PUBLIC	??_C@_0P@FGEIGIED@Missions?5Flown@		; `string'
PUBLIC	??_C@_04FCMNJMCO@?$CFd?$CF?$CF@			; `string'
PUBLIC	??_C@_0N@GPPIJFNH@Success?5Rate@		; `string'
PUBLIC	??_C@_0BB@KDFKFOIO@Successful?5Tours@		; `string'
PUBLIC	__real@3e8a3d71
PUBLIC	__real@3ecccccd
PUBLIC	__real@3ef5c28f
PUBLIC	__real@3f05e354
PUBLIC	__real@3f3eb852
PUBLIC	__real@3f59999a
PUBLIC	__real@3f800000
PUBLIC	__real@4059000000000000
PUBLIC	__real@be4ccccd
EXTRN	__imp____stdio_common_vsprintf:PROC
EXTRN	_strlen:PROC
EXTRN	?direct_play_set_player_name@@YGXPBD@Z:PROC	; direct_play_set_player_name
EXTRN	?create_ui_object@@YAPAUUI_OBJECT@@HZZ:PROC	; create_ui_object
EXTRN	?ui_object_destroy_list_items@@YGXPAUUI_OBJECT@@@Z:PROC ; ui_object_destroy_list_items
EXTRN	?add_to_pop_up_list@@YGPAUUI_OBJECT@@PBDPAU1@1HHUREAL_COLOUR@@@Z:PROC ; add_to_pop_up_list
EXTRN	?get_trans@@YGPBDPBD@Z:PROC			; get_trans
EXTRN	?get_current_language_font@@YG?AW4FONT_TYPES@@W41@@Z:PROC ; get_current_language_font
EXTRN	?set_ui_list_spacing_proportional_to_font@@YGXPAUUI_OBJECT@@M@Z:PROC ; set_ui_list_spacing_proportional_to_font
EXTRN	?display_player_log_page@@YGXW4PLAYER_LOG_PAGES@@@Z:PROC ; display_player_log_page
EXTRN	?ui_option_title_text_colour@@3UREAL_COLOUR@@A:DWORD ; ui_option_title_text_colour
EXTRN	?select_player_screen@@3PAUUI_OBJECT@@A:DWORD	; select_player_screen
EXTRN	?log_page@@3PAPAUUI_OBJECT@@A:BYTE		; log_page
EXTRN	__fltused:DWORD
;	COMDAT ?_OptionsStorage@?1??__local_stdio_printf_options@@9@4_KA
_BSS	SEGMENT
?_OptionsStorage@?1??__local_stdio_printf_options@@9@4_KA DQ 01H DUP (?) ; `__local_stdio_printf_options'::`2'::_OptionsStorage
_BSS	ENDS
;	COMDAT __real@be4ccccd
CONST	SEGMENT
__real@be4ccccd DD 0be4ccccdr			; -0.2
CONST	ENDS
;	COMDAT __real@4059000000000000
CONST	SEGMENT
__real@4059000000000000 DQ 04059000000000000r	; 100
CONST	ENDS
;	COMDAT __real@3f800000
CONST	SEGMENT
__real@3f800000 DD 03f800000r			; 1
CONST	ENDS
;	COMDAT __real@3f59999a
CONST	SEGMENT
__real@3f59999a DD 03f59999ar			; 0.85
CONST	ENDS
;	COMDAT __real@3f3eb852
CONST	SEGMENT
__real@3f3eb852 DD 03f3eb852r			; 0.745
CONST	ENDS
;	COMDAT __real@3f05e354
CONST	SEGMENT
__real@3f05e354 DD 03f05e354r			; 0.523
CONST	ENDS
;	COMDAT __real@3ef5c28f
CONST	SEGMENT
__real@3ef5c28f DD 03ef5c28fr			; 0.48
CONST	ENDS
;	COMDAT __real@3ecccccd
CONST	SEGMENT
__real@3ecccccd DD 03ecccccdr			; 0.4
CONST	ENDS
;	COMDAT __real@3e8a3d71
CONST	SEGMENT
__real@3e8a3d71 DD 03e8a3d71r			; 0.27
CONST	ENDS
;	COMDAT ??_C@_0BB@KDFKFOIO@Successful?5Tours@
CONST	SEGMENT
??_C@_0BB@KDFKFOIO@Successful?5Tours@ DB 'Successful Tours', 00H ; `string'
CONST	ENDS
;	COMDAT ??_C@_0N@GPPIJFNH@Success?5Rate@
CONST	SEGMENT
??_C@_0N@GPPIJFNH@Success?5Rate@ DB 'Success Rate', 00H	; `string'
CONST	ENDS
;	COMDAT ??_C@_04FCMNJMCO@?$CFd?$CF?$CF@
CONST	SEGMENT
??_C@_04FCMNJMCO@?$CFd?$CF?$CF@ DB '%d%%', 00H		; `string'
CONST	ENDS
;	COMDAT ??_C@_0P@FGEIGIED@Missions?5Flown@
CONST	SEGMENT
??_C@_0P@FGEIGIED@Missions?5Flown@ DB 'Missions Flown', 00H ; `string'
CONST	ENDS
;	COMDAT ??_C@_03EIHDHNE@KIA@
CONST	SEGMENT
??_C@_03EIHDHNE@KIA@ DB 'KIA', 00H			; `string'
CONST	ENDS
;	COMDAT ??_C@_0BB@DKPFAEL@Helicopters?5lost@
CONST	SEGMENT
??_C@_0BB@DKPFAEL@Helicopters?5lost@ DB 'Helicopters lost', 00H ; `string'
CONST	ENDS
;	COMDAT ??_C@_03NDEAONJP@?5?5?5@
CONST	SEGMENT
??_C@_03NDEAONJP@?5?5?5@ DB '   ', 00H			; `string'
CONST	ENDS
;	COMDAT ??_C@_0M@HKADIJJM@Fratricides@
CONST	SEGMENT
??_C@_0M@HKADIJJM@Fratricides@ DB 'Fratricides', 00H	; `string'
CONST	ENDS
;	COMDAT ??_C@_09EOMMEIMJ@Sea?5Kills@
CONST	SEGMENT
??_C@_09EOMMEIMJ@Sea?5Kills@ DB 'Sea Kills', 00H	; `string'
CONST	ENDS
;	COMDAT ??_C@_0M@FBKFAPD@?5?5Artillery@
CONST	SEGMENT
??_C@_0M@FBKFAPD@?5?5Artillery@ DB '  Artillery', 00H	; `string'
CONST	ENDS
;	COMDAT ??_C@_08ILDDDMMF@?5?5Armour@
CONST	SEGMENT
??_C@_08ILDDDMMF@?5?5Armour@ DB '  Armour', 00H		; `string'
CONST	ENDS
;	COMDAT ??_C@_0O@CLPOICOD@?5?5Air?5defence@
CONST	SEGMENT
??_C@_0O@CLPOICOD@?5?5Air?5defence@ DB '  Air defence', 00H ; `string'
CONST	ENDS
;	COMDAT ??_C@_0N@OBGHGPHF@Ground?5Kills@
CONST	SEGMENT
??_C@_0N@OBGHGPHF@Ground?5Kills@ DB 'Ground Kills', 00H	; `string'
CONST	ENDS
;	COMDAT ??_C@_0BB@PGGDALNK@Helicopter?5kills@
CONST	SEGMENT
??_C@_0BB@PGGDALNK@Helicopter?5kills@ DB 'Helicopter kills', 00H ; `string'
CONST	ENDS
;	COMDAT ??_C@_0P@GOEIDLBI@Aircraft?5kills@
CONST	SEGMENT
??_C@_0P@GOEIDLBI@Aircraft?5kills@ DB 'Aircraft kills', 00H ; `string'
CONST	ENDS
;	COMDAT ??_C@_02DPKJAMEF@?$CFd@
CONST	SEGMENT
??_C@_02DPKJAMEF@?$CFd@ DB '%d', 00H			; `string'
CONST	ENDS
; Function compile flags: /Odtp /ZI
; File c:\users\nhv90\projects\eech\aphavoc\source\ui_menu\player\play_gn.c
;	COMDAT ?rebuild_general_log_list@@YGXPAUPLAYER_LOG_TYPE@@H@Z
_TEXT	SEGMENT
_buf$ = -100						; size = 100
_player_log$ = 8					; size = 4
_side$ = 12						; size = 4
?rebuild_general_log_list@@YGXPAUPLAYER_LOG_TYPE@@H@Z PROC ; rebuild_general_log_list, COMDAT

; 106  : {

  00000	55		 push	 ebp
  00001	8b ec		 mov	 ebp, esp
  00003	81 ec a4 00 00
	00		 sub	 esp, 164		; 000000a4H
  00009	53		 push	 ebx
  0000a	56		 push	 esi
  0000b	57		 push	 edi

; 107  : 	char
; 108  : 		buf [100];
; 109  : 
; 110  : 		set_ui_list_spacing_proportional_to_font (general_log_text_list, -0.2);

  0000c	51		 push	 ecx
  0000d	f3 0f 10 05 00
	00 00 00	 movss	 xmm0, DWORD PTR __real@be4ccccd
  00015	f3 0f 11 04 24	 movss	 DWORD PTR [esp], xmm0
  0001a	a1 00 00 00 00	 mov	 eax, DWORD PTR ?general_log_text_list@@3PAUUI_OBJECT@@A ; general_log_text_list
  0001f	50		 push	 eax
  00020	e8 00 00 00 00	 call	 ?set_ui_list_spacing_proportional_to_font@@YGXPAUUI_OBJECT@@M@Z ; set_ui_list_spacing_proportional_to_font

; 111  : 
; 112  : 		set_ui_list_spacing_proportional_to_font (general_log_output_list, -0.2);

  00025	51		 push	 ecx
  00026	f3 0f 10 05 00
	00 00 00	 movss	 xmm0, DWORD PTR __real@be4ccccd
  0002e	f3 0f 11 04 24	 movss	 DWORD PTR [esp], xmm0
  00033	a1 00 00 00 00	 mov	 eax, DWORD PTR ?general_log_output_list@@3PAUUI_OBJECT@@A ; general_log_output_list
  00038	50		 push	 eax
  00039	e8 00 00 00 00	 call	 ?set_ui_list_spacing_proportional_to_font@@YGXPAUUI_OBJECT@@M@Z ; set_ui_list_spacing_proportional_to_font

; 113  : 
; 114  : 		ui_object_destroy_list_items (general_log_text_list);

  0003e	a1 00 00 00 00	 mov	 eax, DWORD PTR ?general_log_text_list@@3PAUUI_OBJECT@@A ; general_log_text_list
  00043	50		 push	 eax
  00044	e8 00 00 00 00	 call	 ?ui_object_destroy_list_items@@YGXPAUUI_OBJECT@@@Z ; ui_object_destroy_list_items

; 115  : 
; 116  : 		ui_object_destroy_list_items (general_log_output_list);

  00049	a1 00 00 00 00	 mov	 eax, DWORD PTR ?general_log_output_list@@3PAUUI_OBJECT@@A ; general_log_output_list
  0004e	50		 push	 eax
  0004f	e8 00 00 00 00	 call	 ?ui_object_destroy_list_items@@YGXPAUUI_OBJECT@@@Z ; ui_object_destroy_list_items

; 117  : 
; 118  : 		if ( ( player_log->name ) && ( strlen ( player_log->name ) > 0 ) )

  00054	8b 45 08	 mov	 eax, DWORD PTR _player_log$[ebp]
  00057	83 38 00	 cmp	 DWORD PTR [eax], 0
  0005a	74 1d		 je	 SHORT $LN2@rebuild_ge
  0005c	8b 45 08	 mov	 eax, DWORD PTR _player_log$[ebp]
  0005f	8b 08		 mov	 ecx, DWORD PTR [eax]
  00061	51		 push	 ecx
  00062	e8 00 00 00 00	 call	 _strlen
  00067	83 c4 04	 add	 esp, 4
  0006a	85 c0		 test	 eax, eax
  0006c	76 0b		 jbe	 SHORT $LN2@rebuild_ge

; 119  : 		{
; 120  : 
; 121  : 			direct_play_set_player_name ( player_log->name );

  0006e	8b 45 08	 mov	 eax, DWORD PTR _player_log$[ebp]
  00071	8b 08		 mov	 ecx, DWORD PTR [eax]
  00073	51		 push	 ecx
  00074	e8 00 00 00 00	 call	 ?direct_play_set_player_name@@YGXPBD@Z ; direct_play_set_player_name
$LN2@rebuild_ge:

; 122  : 		}
; 123  : 
; 124  : 		// Air kills
; 125  : //		add_to_pop_up_list (get_trans ("Air Kills"), general_log_text_list, NULL, ENTITY_INDEX_DONT_CARE, get_current_language_font (UI_FONT_ARIAL_16), ui_option_title_text_colour);
; 126  : //		sprintf (buf, "%d", player_log->side_log[side].kills.air );
; 127  : //		add_to_pop_up_list (buf, general_log_output_list, NULL, ENTITY_INDEX_DONT_CARE, get_current_language_font (UI_FONT_ARIAL_16), ui_option_title_text_colour);
; 128  : 
; 129  : 		sprintf (buf, "%d", player_log->side_log[side].kills.fixed_wing);

  00079	69 45 0c 4c 03
	00 00		 imul	 eax, DWORD PTR _side$[ebp], 844
  00080	8b 4d 08	 mov	 ecx, DWORD PTR _player_log$[ebp]
  00083	8b 94 01 a0 00
	00 00		 mov	 edx, DWORD PTR [ecx+eax+160]
  0008a	52		 push	 edx
  0008b	68 00 00 00 00	 push	 OFFSET ??_C@_02DPKJAMEF@?$CFd@
  00090	8d 45 9c	 lea	 eax, DWORD PTR _buf$[ebp]
  00093	50		 push	 eax
  00094	e8 00 00 00 00	 call	 _sprintf
  00099	83 c4 0c	 add	 esp, 12			; 0000000cH

; 130  : 		add_to_pop_up_list (get_trans ("Aircraft kills"), general_log_text_list, NULL, ENTITY_INDEX_DONT_CARE, get_current_language_font (UI_FONT_ARIAL_14), ui_option_title_text_colour);

  0009c	a1 00 00 00 00	 mov	 eax, DWORD PTR ?ui_option_title_text_colour@@3UREAL_COLOUR@@A ; ui_option_title_text_colour
  000a1	50		 push	 eax
  000a2	6a 01		 push	 1
  000a4	e8 00 00 00 00	 call	 ?get_current_language_font@@YG?AW4FONT_TYPES@@W41@@Z ; get_current_language_font
  000a9	50		 push	 eax
  000aa	6a ff		 push	 -1
  000ac	6a 00		 push	 0
  000ae	8b 0d 00 00 00
	00		 mov	 ecx, DWORD PTR ?general_log_text_list@@3PAUUI_OBJECT@@A ; general_log_text_list
  000b4	51		 push	 ecx
  000b5	68 00 00 00 00	 push	 OFFSET ??_C@_0P@GOEIDLBI@Aircraft?5kills@
  000ba	e8 00 00 00 00	 call	 ?get_trans@@YGPBDPBD@Z	; get_trans
  000bf	50		 push	 eax
  000c0	e8 00 00 00 00	 call	 ?add_to_pop_up_list@@YGPAUUI_OBJECT@@PBDPAU1@1HHUREAL_COLOUR@@@Z ; add_to_pop_up_list

; 131  : 		add_to_pop_up_list (buf, general_log_output_list, NULL, ENTITY_INDEX_DONT_CARE, get_current_language_font (UI_FONT_ARIAL_14), ui_option_title_text_colour);

  000c5	a1 00 00 00 00	 mov	 eax, DWORD PTR ?ui_option_title_text_colour@@3UREAL_COLOUR@@A ; ui_option_title_text_colour
  000ca	50		 push	 eax
  000cb	6a 01		 push	 1
  000cd	e8 00 00 00 00	 call	 ?get_current_language_font@@YG?AW4FONT_TYPES@@W41@@Z ; get_current_language_font
  000d2	50		 push	 eax
  000d3	6a ff		 push	 -1
  000d5	6a 00		 push	 0
  000d7	8b 0d 00 00 00
	00		 mov	 ecx, DWORD PTR ?general_log_output_list@@3PAUUI_OBJECT@@A ; general_log_output_list
  000dd	51		 push	 ecx
  000de	8d 55 9c	 lea	 edx, DWORD PTR _buf$[ebp]
  000e1	52		 push	 edx
  000e2	e8 00 00 00 00	 call	 ?add_to_pop_up_list@@YGPAUUI_OBJECT@@PBDPAU1@1HHUREAL_COLOUR@@@Z ; add_to_pop_up_list

; 132  : 
; 133  : 		sprintf (buf, "%d", player_log->side_log[side].kills.helicopter);

  000e7	69 45 0c 4c 03
	00 00		 imul	 eax, DWORD PTR _side$[ebp], 844
  000ee	8b 4d 08	 mov	 ecx, DWORD PTR _player_log$[ebp]
  000f1	8b 94 01 a4 00
	00 00		 mov	 edx, DWORD PTR [ecx+eax+164]
  000f8	52		 push	 edx
  000f9	68 00 00 00 00	 push	 OFFSET ??_C@_02DPKJAMEF@?$CFd@
  000fe	8d 45 9c	 lea	 eax, DWORD PTR _buf$[ebp]
  00101	50		 push	 eax
  00102	e8 00 00 00 00	 call	 _sprintf
  00107	83 c4 0c	 add	 esp, 12			; 0000000cH

; 134  : 		add_to_pop_up_list (get_trans ("Helicopter kills"), general_log_text_list, NULL, ENTITY_INDEX_DONT_CARE, get_current_language_font (UI_FONT_ARIAL_14), ui_option_title_text_colour);

  0010a	a1 00 00 00 00	 mov	 eax, DWORD PTR ?ui_option_title_text_colour@@3UREAL_COLOUR@@A ; ui_option_title_text_colour
  0010f	50		 push	 eax
  00110	6a 01		 push	 1
  00112	e8 00 00 00 00	 call	 ?get_current_language_font@@YG?AW4FONT_TYPES@@W41@@Z ; get_current_language_font
  00117	50		 push	 eax
  00118	6a ff		 push	 -1
  0011a	6a 00		 push	 0
  0011c	8b 0d 00 00 00
	00		 mov	 ecx, DWORD PTR ?general_log_text_list@@3PAUUI_OBJECT@@A ; general_log_text_list
  00122	51		 push	 ecx
  00123	68 00 00 00 00	 push	 OFFSET ??_C@_0BB@PGGDALNK@Helicopter?5kills@
  00128	e8 00 00 00 00	 call	 ?get_trans@@YGPBDPBD@Z	; get_trans
  0012d	50		 push	 eax
  0012e	e8 00 00 00 00	 call	 ?add_to_pop_up_list@@YGPAUUI_OBJECT@@PBDPAU1@1HHUREAL_COLOUR@@@Z ; add_to_pop_up_list

; 135  : 		add_to_pop_up_list (buf, general_log_output_list, NULL, ENTITY_INDEX_DONT_CARE, get_current_language_font (UI_FONT_ARIAL_14), ui_option_title_text_colour);

  00133	a1 00 00 00 00	 mov	 eax, DWORD PTR ?ui_option_title_text_colour@@3UREAL_COLOUR@@A ; ui_option_title_text_colour
  00138	50		 push	 eax
  00139	6a 01		 push	 1
  0013b	e8 00 00 00 00	 call	 ?get_current_language_font@@YG?AW4FONT_TYPES@@W41@@Z ; get_current_language_font
  00140	50		 push	 eax
  00141	6a ff		 push	 -1
  00143	6a 00		 push	 0
  00145	8b 0d 00 00 00
	00		 mov	 ecx, DWORD PTR ?general_log_output_list@@3PAUUI_OBJECT@@A ; general_log_output_list
  0014b	51		 push	 ecx
  0014c	8d 55 9c	 lea	 edx, DWORD PTR _buf$[ebp]
  0014f	52		 push	 edx
  00150	e8 00 00 00 00	 call	 ?add_to_pop_up_list@@YGPAUUI_OBJECT@@PBDPAU1@1HHUREAL_COLOUR@@@Z ; add_to_pop_up_list

; 136  : 
; 137  : 		// Ground kills
; 138  : 		sprintf (buf, "%d", player_log->side_log[side].kills.ground );

  00155	69 45 0c 4c 03
	00 00		 imul	 eax, DWORD PTR _side$[ebp], 844
  0015c	8b 4d 08	 mov	 ecx, DWORD PTR _player_log$[ebp]
  0015f	8b 94 01 8c 00
	00 00		 mov	 edx, DWORD PTR [ecx+eax+140]
  00166	52		 push	 edx
  00167	68 00 00 00 00	 push	 OFFSET ??_C@_02DPKJAMEF@?$CFd@
  0016c	8d 45 9c	 lea	 eax, DWORD PTR _buf$[ebp]
  0016f	50		 push	 eax
  00170	e8 00 00 00 00	 call	 _sprintf
  00175	83 c4 0c	 add	 esp, 12			; 0000000cH

; 139  : 		add_to_pop_up_list (get_trans ("Ground Kills"), general_log_text_list, NULL, ENTITY_INDEX_DONT_CARE, get_current_language_font (UI_FONT_ARIAL_14), ui_option_title_text_colour);

  00178	a1 00 00 00 00	 mov	 eax, DWORD PTR ?ui_option_title_text_colour@@3UREAL_COLOUR@@A ; ui_option_title_text_colour
  0017d	50		 push	 eax
  0017e	6a 01		 push	 1
  00180	e8 00 00 00 00	 call	 ?get_current_language_font@@YG?AW4FONT_TYPES@@W41@@Z ; get_current_language_font
  00185	50		 push	 eax
  00186	6a ff		 push	 -1
  00188	6a 00		 push	 0
  0018a	8b 0d 00 00 00
	00		 mov	 ecx, DWORD PTR ?general_log_text_list@@3PAUUI_OBJECT@@A ; general_log_text_list
  00190	51		 push	 ecx
  00191	68 00 00 00 00	 push	 OFFSET ??_C@_0N@OBGHGPHF@Ground?5Kills@
  00196	e8 00 00 00 00	 call	 ?get_trans@@YGPBDPBD@Z	; get_trans
  0019b	50		 push	 eax
  0019c	e8 00 00 00 00	 call	 ?add_to_pop_up_list@@YGPAUUI_OBJECT@@PBDPAU1@1HHUREAL_COLOUR@@@Z ; add_to_pop_up_list

; 140  : 		add_to_pop_up_list (buf, general_log_output_list, NULL, ENTITY_INDEX_DONT_CARE, get_current_language_font (UI_FONT_ARIAL_14), ui_option_title_text_colour);

  001a1	a1 00 00 00 00	 mov	 eax, DWORD PTR ?ui_option_title_text_colour@@3UREAL_COLOUR@@A ; ui_option_title_text_colour
  001a6	50		 push	 eax
  001a7	6a 01		 push	 1
  001a9	e8 00 00 00 00	 call	 ?get_current_language_font@@YG?AW4FONT_TYPES@@W41@@Z ; get_current_language_font
  001ae	50		 push	 eax
  001af	6a ff		 push	 -1
  001b1	6a 00		 push	 0
  001b3	8b 0d 00 00 00
	00		 mov	 ecx, DWORD PTR ?general_log_output_list@@3PAUUI_OBJECT@@A ; general_log_output_list
  001b9	51		 push	 ecx
  001ba	8d 55 9c	 lea	 edx, DWORD PTR _buf$[ebp]
  001bd	52		 push	 edx
  001be	e8 00 00 00 00	 call	 ?add_to_pop_up_list@@YGPAUUI_OBJECT@@PBDPAU1@1HHUREAL_COLOUR@@@Z ; add_to_pop_up_list

; 141  : 
; 142  : 		sprintf (buf, "%d", player_log->side_log[side].kills.air_defence );

  001c3	69 45 0c 4c 03
	00 00		 imul	 eax, DWORD PTR _side$[ebp], 844
  001ca	8b 4d 08	 mov	 ecx, DWORD PTR _player_log$[ebp]
  001cd	8b 94 01 a8 00
	00 00		 mov	 edx, DWORD PTR [ecx+eax+168]
  001d4	52		 push	 edx
  001d5	68 00 00 00 00	 push	 OFFSET ??_C@_02DPKJAMEF@?$CFd@
  001da	8d 45 9c	 lea	 eax, DWORD PTR _buf$[ebp]
  001dd	50		 push	 eax
  001de	e8 00 00 00 00	 call	 _sprintf
  001e3	83 c4 0c	 add	 esp, 12			; 0000000cH

; 143  : 		add_to_pop_up_list (get_trans ("  Air defence"), general_log_text_list, NULL, ENTITY_INDEX_DONT_CARE, get_current_language_font (UI_FONT_ARIAL_14), ui_option_title_text_colour);

  001e6	a1 00 00 00 00	 mov	 eax, DWORD PTR ?ui_option_title_text_colour@@3UREAL_COLOUR@@A ; ui_option_title_text_colour
  001eb	50		 push	 eax
  001ec	6a 01		 push	 1
  001ee	e8 00 00 00 00	 call	 ?get_current_language_font@@YG?AW4FONT_TYPES@@W41@@Z ; get_current_language_font
  001f3	50		 push	 eax
  001f4	6a ff		 push	 -1
  001f6	6a 00		 push	 0
  001f8	8b 0d 00 00 00
	00		 mov	 ecx, DWORD PTR ?general_log_text_list@@3PAUUI_OBJECT@@A ; general_log_text_list
  001fe	51		 push	 ecx
  001ff	68 00 00 00 00	 push	 OFFSET ??_C@_0O@CLPOICOD@?5?5Air?5defence@
  00204	e8 00 00 00 00	 call	 ?get_trans@@YGPBDPBD@Z	; get_trans
  00209	50		 push	 eax
  0020a	e8 00 00 00 00	 call	 ?add_to_pop_up_list@@YGPAUUI_OBJECT@@PBDPAU1@1HHUREAL_COLOUR@@@Z ; add_to_pop_up_list

; 144  : 		add_to_pop_up_list (buf, general_log_output_list, NULL, ENTITY_INDEX_DONT_CARE, get_current_language_font (UI_FONT_ARIAL_14), ui_option_title_text_colour);

  0020f	a1 00 00 00 00	 mov	 eax, DWORD PTR ?ui_option_title_text_colour@@3UREAL_COLOUR@@A ; ui_option_title_text_colour
  00214	50		 push	 eax
  00215	6a 01		 push	 1
  00217	e8 00 00 00 00	 call	 ?get_current_language_font@@YG?AW4FONT_TYPES@@W41@@Z ; get_current_language_font
  0021c	50		 push	 eax
  0021d	6a ff		 push	 -1
  0021f	6a 00		 push	 0
  00221	8b 0d 00 00 00
	00		 mov	 ecx, DWORD PTR ?general_log_output_list@@3PAUUI_OBJECT@@A ; general_log_output_list
  00227	51		 push	 ecx
  00228	8d 55 9c	 lea	 edx, DWORD PTR _buf$[ebp]
  0022b	52		 push	 edx
  0022c	e8 00 00 00 00	 call	 ?add_to_pop_up_list@@YGPAUUI_OBJECT@@PBDPAU1@1HHUREAL_COLOUR@@@Z ; add_to_pop_up_list

; 145  : 
; 146  : 		sprintf (buf, "%d", player_log->side_log[side].kills.armour );

  00231	69 45 0c 4c 03
	00 00		 imul	 eax, DWORD PTR _side$[ebp], 844
  00238	8b 4d 08	 mov	 ecx, DWORD PTR _player_log$[ebp]
  0023b	8b 94 01 ac 00
	00 00		 mov	 edx, DWORD PTR [ecx+eax+172]
  00242	52		 push	 edx
  00243	68 00 00 00 00	 push	 OFFSET ??_C@_02DPKJAMEF@?$CFd@
  00248	8d 45 9c	 lea	 eax, DWORD PTR _buf$[ebp]
  0024b	50		 push	 eax
  0024c	e8 00 00 00 00	 call	 _sprintf
  00251	83 c4 0c	 add	 esp, 12			; 0000000cH

; 147  : 		add_to_pop_up_list (get_trans ("  Armour"), general_log_text_list, NULL, ENTITY_INDEX_DONT_CARE, get_current_language_font (UI_FONT_ARIAL_14), ui_option_title_text_colour);

  00254	a1 00 00 00 00	 mov	 eax, DWORD PTR ?ui_option_title_text_colour@@3UREAL_COLOUR@@A ; ui_option_title_text_colour
  00259	50		 push	 eax
  0025a	6a 01		 push	 1
  0025c	e8 00 00 00 00	 call	 ?get_current_language_font@@YG?AW4FONT_TYPES@@W41@@Z ; get_current_language_font
  00261	50		 push	 eax
  00262	6a ff		 push	 -1
  00264	6a 00		 push	 0
  00266	8b 0d 00 00 00
	00		 mov	 ecx, DWORD PTR ?general_log_text_list@@3PAUUI_OBJECT@@A ; general_log_text_list
  0026c	51		 push	 ecx
  0026d	68 00 00 00 00	 push	 OFFSET ??_C@_08ILDDDMMF@?5?5Armour@
  00272	e8 00 00 00 00	 call	 ?get_trans@@YGPBDPBD@Z	; get_trans
  00277	50		 push	 eax
  00278	e8 00 00 00 00	 call	 ?add_to_pop_up_list@@YGPAUUI_OBJECT@@PBDPAU1@1HHUREAL_COLOUR@@@Z ; add_to_pop_up_list

; 148  : 		add_to_pop_up_list (buf, general_log_output_list, NULL, ENTITY_INDEX_DONT_CARE, get_current_language_font (UI_FONT_ARIAL_14), ui_option_title_text_colour);

  0027d	a1 00 00 00 00	 mov	 eax, DWORD PTR ?ui_option_title_text_colour@@3UREAL_COLOUR@@A ; ui_option_title_text_colour
  00282	50		 push	 eax
  00283	6a 01		 push	 1
  00285	e8 00 00 00 00	 call	 ?get_current_language_font@@YG?AW4FONT_TYPES@@W41@@Z ; get_current_language_font
  0028a	50		 push	 eax
  0028b	6a ff		 push	 -1
  0028d	6a 00		 push	 0
  0028f	8b 0d 00 00 00
	00		 mov	 ecx, DWORD PTR ?general_log_output_list@@3PAUUI_OBJECT@@A ; general_log_output_list
  00295	51		 push	 ecx
  00296	8d 55 9c	 lea	 edx, DWORD PTR _buf$[ebp]
  00299	52		 push	 edx
  0029a	e8 00 00 00 00	 call	 ?add_to_pop_up_list@@YGPAUUI_OBJECT@@PBDPAU1@1HHUREAL_COLOUR@@@Z ; add_to_pop_up_list

; 149  : 
; 150  : 		sprintf (buf, "%d", player_log->side_log[side].kills.artillery );

  0029f	69 45 0c 4c 03
	00 00		 imul	 eax, DWORD PTR _side$[ebp], 844
  002a6	8b 4d 08	 mov	 ecx, DWORD PTR _player_log$[ebp]
  002a9	8b 94 01 b0 00
	00 00		 mov	 edx, DWORD PTR [ecx+eax+176]
  002b0	52		 push	 edx
  002b1	68 00 00 00 00	 push	 OFFSET ??_C@_02DPKJAMEF@?$CFd@
  002b6	8d 45 9c	 lea	 eax, DWORD PTR _buf$[ebp]
  002b9	50		 push	 eax
  002ba	e8 00 00 00 00	 call	 _sprintf
  002bf	83 c4 0c	 add	 esp, 12			; 0000000cH

; 151  : 		add_to_pop_up_list (get_trans ("  Artillery"), general_log_text_list, NULL, ENTITY_INDEX_DONT_CARE, get_current_language_font (UI_FONT_ARIAL_14), ui_option_title_text_colour);

  002c2	a1 00 00 00 00	 mov	 eax, DWORD PTR ?ui_option_title_text_colour@@3UREAL_COLOUR@@A ; ui_option_title_text_colour
  002c7	50		 push	 eax
  002c8	6a 01		 push	 1
  002ca	e8 00 00 00 00	 call	 ?get_current_language_font@@YG?AW4FONT_TYPES@@W41@@Z ; get_current_language_font
  002cf	50		 push	 eax
  002d0	6a ff		 push	 -1
  002d2	6a 00		 push	 0
  002d4	8b 0d 00 00 00
	00		 mov	 ecx, DWORD PTR ?general_log_text_list@@3PAUUI_OBJECT@@A ; general_log_text_list
  002da	51		 push	 ecx
  002db	68 00 00 00 00	 push	 OFFSET ??_C@_0M@FBKFAPD@?5?5Artillery@
  002e0	e8 00 00 00 00	 call	 ?get_trans@@YGPBDPBD@Z	; get_trans
  002e5	50		 push	 eax
  002e6	e8 00 00 00 00	 call	 ?add_to_pop_up_list@@YGPAUUI_OBJECT@@PBDPAU1@1HHUREAL_COLOUR@@@Z ; add_to_pop_up_list

; 152  : 		add_to_pop_up_list (buf, general_log_output_list, NULL, ENTITY_INDEX_DONT_CARE, get_current_language_font (UI_FONT_ARIAL_14), ui_option_title_text_colour);

  002eb	a1 00 00 00 00	 mov	 eax, DWORD PTR ?ui_option_title_text_colour@@3UREAL_COLOUR@@A ; ui_option_title_text_colour
  002f0	50		 push	 eax
  002f1	6a 01		 push	 1
  002f3	e8 00 00 00 00	 call	 ?get_current_language_font@@YG?AW4FONT_TYPES@@W41@@Z ; get_current_language_font
  002f8	50		 push	 eax
  002f9	6a ff		 push	 -1
  002fb	6a 00		 push	 0
  002fd	8b 0d 00 00 00
	00		 mov	 ecx, DWORD PTR ?general_log_output_list@@3PAUUI_OBJECT@@A ; general_log_output_list
  00303	51		 push	 ecx
  00304	8d 55 9c	 lea	 edx, DWORD PTR _buf$[ebp]
  00307	52		 push	 edx
  00308	e8 00 00 00 00	 call	 ?add_to_pop_up_list@@YGPAUUI_OBJECT@@PBDPAU1@1HHUREAL_COLOUR@@@Z ; add_to_pop_up_list

; 153  : 
; 154  : 		// Sea kills
; 155  : 		sprintf (buf, "%d", player_log->side_log[side].kills.sea );

  0030d	69 45 0c 4c 03
	00 00		 imul	 eax, DWORD PTR _side$[ebp], 844
  00314	8b 4d 08	 mov	 ecx, DWORD PTR _player_log$[ebp]
  00317	8b 94 01 90 00
	00 00		 mov	 edx, DWORD PTR [ecx+eax+144]
  0031e	52		 push	 edx
  0031f	68 00 00 00 00	 push	 OFFSET ??_C@_02DPKJAMEF@?$CFd@
  00324	8d 45 9c	 lea	 eax, DWORD PTR _buf$[ebp]
  00327	50		 push	 eax
  00328	e8 00 00 00 00	 call	 _sprintf
  0032d	83 c4 0c	 add	 esp, 12			; 0000000cH

; 156  : 
; 157  : 		add_to_pop_up_list (get_trans ("Sea Kills"), general_log_text_list, NULL, ENTITY_INDEX_DONT_CARE, get_current_language_font (UI_FONT_ARIAL_14), ui_option_title_text_colour);

  00330	a1 00 00 00 00	 mov	 eax, DWORD PTR ?ui_option_title_text_colour@@3UREAL_COLOUR@@A ; ui_option_title_text_colour
  00335	50		 push	 eax
  00336	6a 01		 push	 1
  00338	e8 00 00 00 00	 call	 ?get_current_language_font@@YG?AW4FONT_TYPES@@W41@@Z ; get_current_language_font
  0033d	50		 push	 eax
  0033e	6a ff		 push	 -1
  00340	6a 00		 push	 0
  00342	8b 0d 00 00 00
	00		 mov	 ecx, DWORD PTR ?general_log_text_list@@3PAUUI_OBJECT@@A ; general_log_text_list
  00348	51		 push	 ecx
  00349	68 00 00 00 00	 push	 OFFSET ??_C@_09EOMMEIMJ@Sea?5Kills@
  0034e	e8 00 00 00 00	 call	 ?get_trans@@YGPBDPBD@Z	; get_trans
  00353	50		 push	 eax
  00354	e8 00 00 00 00	 call	 ?add_to_pop_up_list@@YGPAUUI_OBJECT@@PBDPAU1@1HHUREAL_COLOUR@@@Z ; add_to_pop_up_list

; 158  : 
; 159  : 		add_to_pop_up_list (buf, general_log_output_list, NULL, ENTITY_INDEX_DONT_CARE, get_current_language_font (UI_FONT_ARIAL_14), ui_option_title_text_colour);

  00359	a1 00 00 00 00	 mov	 eax, DWORD PTR ?ui_option_title_text_colour@@3UREAL_COLOUR@@A ; ui_option_title_text_colour
  0035e	50		 push	 eax
  0035f	6a 01		 push	 1
  00361	e8 00 00 00 00	 call	 ?get_current_language_font@@YG?AW4FONT_TYPES@@W41@@Z ; get_current_language_font
  00366	50		 push	 eax
  00367	6a ff		 push	 -1
  00369	6a 00		 push	 0
  0036b	8b 0d 00 00 00
	00		 mov	 ecx, DWORD PTR ?general_log_output_list@@3PAUUI_OBJECT@@A ; general_log_output_list
  00371	51		 push	 ecx
  00372	8d 55 9c	 lea	 edx, DWORD PTR _buf$[ebp]
  00375	52		 push	 edx
  00376	e8 00 00 00 00	 call	 ?add_to_pop_up_list@@YGPAUUI_OBJECT@@PBDPAU1@1HHUREAL_COLOUR@@@Z ; add_to_pop_up_list

; 160  : 
; 161  : 
; 162  : 		// Fratricides
; 163  : 		sprintf (buf, "%d", player_log->side_log[side].kills.friendly );

  0037b	69 45 0c 4c 03
	00 00		 imul	 eax, DWORD PTR _side$[ebp], 844
  00382	8b 4d 08	 mov	 ecx, DWORD PTR _player_log$[ebp]
  00385	8b 94 01 9c 00
	00 00		 mov	 edx, DWORD PTR [ecx+eax+156]
  0038c	52		 push	 edx
  0038d	68 00 00 00 00	 push	 OFFSET ??_C@_02DPKJAMEF@?$CFd@
  00392	8d 45 9c	 lea	 eax, DWORD PTR _buf$[ebp]
  00395	50		 push	 eax
  00396	e8 00 00 00 00	 call	 _sprintf
  0039b	83 c4 0c	 add	 esp, 12			; 0000000cH

; 164  : 
; 165  : 		add_to_pop_up_list (get_trans ("Fratricides"), general_log_text_list, NULL, ENTITY_INDEX_DONT_CARE, get_current_language_font (UI_FONT_ARIAL_14), ui_option_title_text_colour);

  0039e	a1 00 00 00 00	 mov	 eax, DWORD PTR ?ui_option_title_text_colour@@3UREAL_COLOUR@@A ; ui_option_title_text_colour
  003a3	50		 push	 eax
  003a4	6a 01		 push	 1
  003a6	e8 00 00 00 00	 call	 ?get_current_language_font@@YG?AW4FONT_TYPES@@W41@@Z ; get_current_language_font
  003ab	50		 push	 eax
  003ac	6a ff		 push	 -1
  003ae	6a 00		 push	 0
  003b0	8b 0d 00 00 00
	00		 mov	 ecx, DWORD PTR ?general_log_text_list@@3PAUUI_OBJECT@@A ; general_log_text_list
  003b6	51		 push	 ecx
  003b7	68 00 00 00 00	 push	 OFFSET ??_C@_0M@HKADIJJM@Fratricides@
  003bc	e8 00 00 00 00	 call	 ?get_trans@@YGPBDPBD@Z	; get_trans
  003c1	50		 push	 eax
  003c2	e8 00 00 00 00	 call	 ?add_to_pop_up_list@@YGPAUUI_OBJECT@@PBDPAU1@1HHUREAL_COLOUR@@@Z ; add_to_pop_up_list

; 166  : 
; 167  : 		add_to_pop_up_list (buf, general_log_output_list, NULL, ENTITY_INDEX_DONT_CARE, get_current_language_font (UI_FONT_ARIAL_14), ui_option_title_text_colour);

  003c7	a1 00 00 00 00	 mov	 eax, DWORD PTR ?ui_option_title_text_colour@@3UREAL_COLOUR@@A ; ui_option_title_text_colour
  003cc	50		 push	 eax
  003cd	6a 01		 push	 1
  003cf	e8 00 00 00 00	 call	 ?get_current_language_font@@YG?AW4FONT_TYPES@@W41@@Z ; get_current_language_font
  003d4	50		 push	 eax
  003d5	6a ff		 push	 -1
  003d7	6a 00		 push	 0
  003d9	8b 0d 00 00 00
	00		 mov	 ecx, DWORD PTR ?general_log_output_list@@3PAUUI_OBJECT@@A ; general_log_output_list
  003df	51		 push	 ecx
  003e0	8d 55 9c	 lea	 edx, DWORD PTR _buf$[ebp]
  003e3	52		 push	 edx
  003e4	e8 00 00 00 00	 call	 ?add_to_pop_up_list@@YGPAUUI_OBJECT@@PBDPAU1@1HHUREAL_COLOUR@@@Z ; add_to_pop_up_list

; 168  : 
; 169  : 
; 170  : 		add_to_pop_up_list ("   ", general_log_text_list, NULL, ENTITY_INDEX_DONT_CARE, get_current_language_font (UI_FONT_ARIAL_10), ui_option_title_text_colour);

  003e9	a1 00 00 00 00	 mov	 eax, DWORD PTR ?ui_option_title_text_colour@@3UREAL_COLOUR@@A ; ui_option_title_text_colour
  003ee	50		 push	 eax
  003ef	6a 00		 push	 0
  003f1	e8 00 00 00 00	 call	 ?get_current_language_font@@YG?AW4FONT_TYPES@@W41@@Z ; get_current_language_font
  003f6	50		 push	 eax
  003f7	6a ff		 push	 -1
  003f9	6a 00		 push	 0
  003fb	8b 0d 00 00 00
	00		 mov	 ecx, DWORD PTR ?general_log_text_list@@3PAUUI_OBJECT@@A ; general_log_text_list
  00401	51		 push	 ecx
  00402	68 00 00 00 00	 push	 OFFSET ??_C@_03NDEAONJP@?5?5?5@
  00407	e8 00 00 00 00	 call	 ?add_to_pop_up_list@@YGPAUUI_OBJECT@@PBDPAU1@1HHUREAL_COLOUR@@@Z ; add_to_pop_up_list

; 171  : 		add_to_pop_up_list ("   ", general_log_output_list, NULL, ENTITY_INDEX_DONT_CARE, get_current_language_font (UI_FONT_ARIAL_10), ui_option_title_text_colour);

  0040c	a1 00 00 00 00	 mov	 eax, DWORD PTR ?ui_option_title_text_colour@@3UREAL_COLOUR@@A ; ui_option_title_text_colour
  00411	50		 push	 eax
  00412	6a 00		 push	 0
  00414	e8 00 00 00 00	 call	 ?get_current_language_font@@YG?AW4FONT_TYPES@@W41@@Z ; get_current_language_font
  00419	50		 push	 eax
  0041a	6a ff		 push	 -1
  0041c	6a 00		 push	 0
  0041e	8b 0d 00 00 00
	00		 mov	 ecx, DWORD PTR ?general_log_output_list@@3PAUUI_OBJECT@@A ; general_log_output_list
  00424	51		 push	 ecx
  00425	68 00 00 00 00	 push	 OFFSET ??_C@_03NDEAONJP@?5?5?5@
  0042a	e8 00 00 00 00	 call	 ?add_to_pop_up_list@@YGPAUUI_OBJECT@@PBDPAU1@1HHUREAL_COLOUR@@@Z ; add_to_pop_up_list

; 172  : 
; 173  : 
; 174  : 
; 175  : 		// helicopters lost
; 176  : 		sprintf (buf, "%d", player_log->side_log[side].helicopters_lost);

  0042f	69 45 0c 4c 03
	00 00		 imul	 eax, DWORD PTR _side$[ebp], 844
  00436	8b 4d 08	 mov	 ecx, DWORD PTR _player_log$[ebp]
  00439	8b 94 01 50 03
	00 00		 mov	 edx, DWORD PTR [ecx+eax+848]
  00440	52		 push	 edx
  00441	68 00 00 00 00	 push	 OFFSET ??_C@_02DPKJAMEF@?$CFd@
  00446	8d 45 9c	 lea	 eax, DWORD PTR _buf$[ebp]
  00449	50		 push	 eax
  0044a	e8 00 00 00 00	 call	 _sprintf
  0044f	83 c4 0c	 add	 esp, 12			; 0000000cH

; 177  : 		add_to_pop_up_list (get_trans ("Helicopters lost"), general_log_text_list, NULL, ENTITY_INDEX_DONT_CARE, get_current_language_font (UI_FONT_ARIAL_14), ui_option_title_text_colour);

  00452	a1 00 00 00 00	 mov	 eax, DWORD PTR ?ui_option_title_text_colour@@3UREAL_COLOUR@@A ; ui_option_title_text_colour
  00457	50		 push	 eax
  00458	6a 01		 push	 1
  0045a	e8 00 00 00 00	 call	 ?get_current_language_font@@YG?AW4FONT_TYPES@@W41@@Z ; get_current_language_font
  0045f	50		 push	 eax
  00460	6a ff		 push	 -1
  00462	6a 00		 push	 0
  00464	8b 0d 00 00 00
	00		 mov	 ecx, DWORD PTR ?general_log_text_list@@3PAUUI_OBJECT@@A ; general_log_text_list
  0046a	51		 push	 ecx
  0046b	68 00 00 00 00	 push	 OFFSET ??_C@_0BB@DKPFAEL@Helicopters?5lost@
  00470	e8 00 00 00 00	 call	 ?get_trans@@YGPBDPBD@Z	; get_trans
  00475	50		 push	 eax
  00476	e8 00 00 00 00	 call	 ?add_to_pop_up_list@@YGPAUUI_OBJECT@@PBDPAU1@1HHUREAL_COLOUR@@@Z ; add_to_pop_up_list

; 178  : 		add_to_pop_up_list (buf, general_log_output_list, NULL, ENTITY_INDEX_DONT_CARE, get_current_language_font (UI_FONT_ARIAL_14), ui_option_title_text_colour);

  0047b	a1 00 00 00 00	 mov	 eax, DWORD PTR ?ui_option_title_text_colour@@3UREAL_COLOUR@@A ; ui_option_title_text_colour
  00480	50		 push	 eax
  00481	6a 01		 push	 1
  00483	e8 00 00 00 00	 call	 ?get_current_language_font@@YG?AW4FONT_TYPES@@W41@@Z ; get_current_language_font
  00488	50		 push	 eax
  00489	6a ff		 push	 -1
  0048b	6a 00		 push	 0
  0048d	8b 0d 00 00 00
	00		 mov	 ecx, DWORD PTR ?general_log_output_list@@3PAUUI_OBJECT@@A ; general_log_output_list
  00493	51		 push	 ecx
  00494	8d 55 9c	 lea	 edx, DWORD PTR _buf$[ebp]
  00497	52		 push	 edx
  00498	e8 00 00 00 00	 call	 ?add_to_pop_up_list@@YGPAUUI_OBJECT@@PBDPAU1@1HHUREAL_COLOUR@@@Z ; add_to_pop_up_list

; 179  : 	
; 180  : 		// KIA
; 181  : 		sprintf (buf, "%d", player_log->side_log[side].kills.deaths );

  0049d	69 45 0c 4c 03
	00 00		 imul	 eax, DWORD PTR _side$[ebp], 844
  004a4	8b 4d 08	 mov	 ecx, DWORD PTR _player_log$[ebp]
  004a7	8b 94 01 98 00
	00 00		 mov	 edx, DWORD PTR [ecx+eax+152]
  004ae	52		 push	 edx
  004af	68 00 00 00 00	 push	 OFFSET ??_C@_02DPKJAMEF@?$CFd@
  004b4	8d 45 9c	 lea	 eax, DWORD PTR _buf$[ebp]
  004b7	50		 push	 eax
  004b8	e8 00 00 00 00	 call	 _sprintf
  004bd	83 c4 0c	 add	 esp, 12			; 0000000cH

; 182  : 		add_to_pop_up_list (get_trans ("KIA"), general_log_text_list, NULL, ENTITY_INDEX_DONT_CARE, get_current_language_font (UI_FONT_ARIAL_14), ui_option_title_text_colour);

  004c0	a1 00 00 00 00	 mov	 eax, DWORD PTR ?ui_option_title_text_colour@@3UREAL_COLOUR@@A ; ui_option_title_text_colour
  004c5	50		 push	 eax
  004c6	6a 01		 push	 1
  004c8	e8 00 00 00 00	 call	 ?get_current_language_font@@YG?AW4FONT_TYPES@@W41@@Z ; get_current_language_font
  004cd	50		 push	 eax
  004ce	6a ff		 push	 -1
  004d0	6a 00		 push	 0
  004d2	8b 0d 00 00 00
	00		 mov	 ecx, DWORD PTR ?general_log_text_list@@3PAUUI_OBJECT@@A ; general_log_text_list
  004d8	51		 push	 ecx
  004d9	68 00 00 00 00	 push	 OFFSET ??_C@_03EIHDHNE@KIA@
  004de	e8 00 00 00 00	 call	 ?get_trans@@YGPBDPBD@Z	; get_trans
  004e3	50		 push	 eax
  004e4	e8 00 00 00 00	 call	 ?add_to_pop_up_list@@YGPAUUI_OBJECT@@PBDPAU1@1HHUREAL_COLOUR@@@Z ; add_to_pop_up_list

; 183  : 		add_to_pop_up_list (buf, general_log_output_list, NULL, ENTITY_INDEX_DONT_CARE, get_current_language_font (UI_FONT_ARIAL_14), ui_option_title_text_colour);

  004e9	a1 00 00 00 00	 mov	 eax, DWORD PTR ?ui_option_title_text_colour@@3UREAL_COLOUR@@A ; ui_option_title_text_colour
  004ee	50		 push	 eax
  004ef	6a 01		 push	 1
  004f1	e8 00 00 00 00	 call	 ?get_current_language_font@@YG?AW4FONT_TYPES@@W41@@Z ; get_current_language_font
  004f6	50		 push	 eax
  004f7	6a ff		 push	 -1
  004f9	6a 00		 push	 0
  004fb	8b 0d 00 00 00
	00		 mov	 ecx, DWORD PTR ?general_log_output_list@@3PAUUI_OBJECT@@A ; general_log_output_list
  00501	51		 push	 ecx
  00502	8d 55 9c	 lea	 edx, DWORD PTR _buf$[ebp]
  00505	52		 push	 edx
  00506	e8 00 00 00 00	 call	 ?add_to_pop_up_list@@YGPAUUI_OBJECT@@PBDPAU1@1HHUREAL_COLOUR@@@Z ; add_to_pop_up_list

; 184  : 
; 185  : 
; 186  : 		add_to_pop_up_list ("   ", general_log_text_list, NULL, ENTITY_INDEX_DONT_CARE, get_current_language_font (UI_FONT_ARIAL_10), ui_option_title_text_colour);

  0050b	a1 00 00 00 00	 mov	 eax, DWORD PTR ?ui_option_title_text_colour@@3UREAL_COLOUR@@A ; ui_option_title_text_colour
  00510	50		 push	 eax
  00511	6a 00		 push	 0
  00513	e8 00 00 00 00	 call	 ?get_current_language_font@@YG?AW4FONT_TYPES@@W41@@Z ; get_current_language_font
  00518	50		 push	 eax
  00519	6a ff		 push	 -1
  0051b	6a 00		 push	 0
  0051d	8b 0d 00 00 00
	00		 mov	 ecx, DWORD PTR ?general_log_text_list@@3PAUUI_OBJECT@@A ; general_log_text_list
  00523	51		 push	 ecx
  00524	68 00 00 00 00	 push	 OFFSET ??_C@_03NDEAONJP@?5?5?5@
  00529	e8 00 00 00 00	 call	 ?add_to_pop_up_list@@YGPAUUI_OBJECT@@PBDPAU1@1HHUREAL_COLOUR@@@Z ; add_to_pop_up_list

; 187  : 		add_to_pop_up_list ("   ", general_log_output_list, NULL, ENTITY_INDEX_DONT_CARE, get_current_language_font (UI_FONT_ARIAL_10), ui_option_title_text_colour);

  0052e	a1 00 00 00 00	 mov	 eax, DWORD PTR ?ui_option_title_text_colour@@3UREAL_COLOUR@@A ; ui_option_title_text_colour
  00533	50		 push	 eax
  00534	6a 00		 push	 0
  00536	e8 00 00 00 00	 call	 ?get_current_language_font@@YG?AW4FONT_TYPES@@W41@@Z ; get_current_language_font
  0053b	50		 push	 eax
  0053c	6a ff		 push	 -1
  0053e	6a 00		 push	 0
  00540	8b 0d 00 00 00
	00		 mov	 ecx, DWORD PTR ?general_log_output_list@@3PAUUI_OBJECT@@A ; general_log_output_list
  00546	51		 push	 ecx
  00547	68 00 00 00 00	 push	 OFFSET ??_C@_03NDEAONJP@?5?5?5@
  0054c	e8 00 00 00 00	 call	 ?add_to_pop_up_list@@YGPAUUI_OBJECT@@PBDPAU1@1HHUREAL_COLOUR@@@Z ; add_to_pop_up_list

; 188  : 
; 189  : 
; 190  : 		// Missions flown
; 191  : 		sprintf (buf, "%d", player_log->side_log[side].missions_flown );

  00551	69 45 0c 4c 03
	00 00		 imul	 eax, DWORD PTR _side$[ebp], 844
  00558	8b 4d 08	 mov	 ecx, DWORD PTR _player_log$[ebp]
  0055b	8b 54 01 18	 mov	 edx, DWORD PTR [ecx+eax+24]
  0055f	52		 push	 edx
  00560	68 00 00 00 00	 push	 OFFSET ??_C@_02DPKJAMEF@?$CFd@
  00565	8d 45 9c	 lea	 eax, DWORD PTR _buf$[ebp]
  00568	50		 push	 eax
  00569	e8 00 00 00 00	 call	 _sprintf
  0056e	83 c4 0c	 add	 esp, 12			; 0000000cH

; 192  : 
; 193  : 		add_to_pop_up_list (get_trans ("Missions Flown"), general_log_text_list, NULL, ENTITY_INDEX_DONT_CARE, get_current_language_font (UI_FONT_ARIAL_14), ui_option_title_text_colour);

  00571	a1 00 00 00 00	 mov	 eax, DWORD PTR ?ui_option_title_text_colour@@3UREAL_COLOUR@@A ; ui_option_title_text_colour
  00576	50		 push	 eax
  00577	6a 01		 push	 1
  00579	e8 00 00 00 00	 call	 ?get_current_language_font@@YG?AW4FONT_TYPES@@W41@@Z ; get_current_language_font
  0057e	50		 push	 eax
  0057f	6a ff		 push	 -1
  00581	6a 00		 push	 0
  00583	8b 0d 00 00 00
	00		 mov	 ecx, DWORD PTR ?general_log_text_list@@3PAUUI_OBJECT@@A ; general_log_text_list
  00589	51		 push	 ecx
  0058a	68 00 00 00 00	 push	 OFFSET ??_C@_0P@FGEIGIED@Missions?5Flown@
  0058f	e8 00 00 00 00	 call	 ?get_trans@@YGPBDPBD@Z	; get_trans
  00594	50		 push	 eax
  00595	e8 00 00 00 00	 call	 ?add_to_pop_up_list@@YGPAUUI_OBJECT@@PBDPAU1@1HHUREAL_COLOUR@@@Z ; add_to_pop_up_list

; 194  : 
; 195  : 		add_to_pop_up_list (buf, general_log_output_list, NULL, ENTITY_INDEX_DONT_CARE, get_current_language_font (UI_FONT_ARIAL_14), ui_option_title_text_colour);

  0059a	a1 00 00 00 00	 mov	 eax, DWORD PTR ?ui_option_title_text_colour@@3UREAL_COLOUR@@A ; ui_option_title_text_colour
  0059f	50		 push	 eax
  005a0	6a 01		 push	 1
  005a2	e8 00 00 00 00	 call	 ?get_current_language_font@@YG?AW4FONT_TYPES@@W41@@Z ; get_current_language_font
  005a7	50		 push	 eax
  005a8	6a ff		 push	 -1
  005aa	6a 00		 push	 0
  005ac	8b 0d 00 00 00
	00		 mov	 ecx, DWORD PTR ?general_log_output_list@@3PAUUI_OBJECT@@A ; general_log_output_list
  005b2	51		 push	 ecx
  005b3	8d 55 9c	 lea	 edx, DWORD PTR _buf$[ebp]
  005b6	52		 push	 edx
  005b7	e8 00 00 00 00	 call	 ?add_to_pop_up_list@@YGPAUUI_OBJECT@@PBDPAU1@1HHUREAL_COLOUR@@@Z ; add_to_pop_up_list

; 196  : 
; 197  : 		// Success rate
; 198  : 		sprintf (buf, "%d%%", (int) (player_log->side_log[side].mission_success_rate * 100.0));

  005bc	69 45 0c 4c 03
	00 00		 imul	 eax, DWORD PTR _side$[ebp], 844
  005c3	8b 4d 08	 mov	 ecx, DWORD PTR _player_log$[ebp]
  005c6	f3 0f 5a 84 01
	84 00 00 00	 cvtss2sd xmm0, DWORD PTR [ecx+eax+132]
  005cf	f2 0f 59 05 00
	00 00 00	 mulsd	 xmm0, QWORD PTR __real@4059000000000000
  005d7	f2 0f 2c d0	 cvttsd2si edx, xmm0
  005db	52		 push	 edx
  005dc	68 00 00 00 00	 push	 OFFSET ??_C@_04FCMNJMCO@?$CFd?$CF?$CF@
  005e1	8d 45 9c	 lea	 eax, DWORD PTR _buf$[ebp]
  005e4	50		 push	 eax
  005e5	e8 00 00 00 00	 call	 _sprintf
  005ea	83 c4 0c	 add	 esp, 12			; 0000000cH

; 199  : 
; 200  : 		add_to_pop_up_list (get_trans ("Success Rate"), general_log_text_list, NULL, ENTITY_INDEX_DONT_CARE, get_current_language_font (UI_FONT_ARIAL_14), ui_option_title_text_colour);

  005ed	a1 00 00 00 00	 mov	 eax, DWORD PTR ?ui_option_title_text_colour@@3UREAL_COLOUR@@A ; ui_option_title_text_colour
  005f2	50		 push	 eax
  005f3	6a 01		 push	 1
  005f5	e8 00 00 00 00	 call	 ?get_current_language_font@@YG?AW4FONT_TYPES@@W41@@Z ; get_current_language_font
  005fa	50		 push	 eax
  005fb	6a ff		 push	 -1
  005fd	6a 00		 push	 0
  005ff	8b 0d 00 00 00
	00		 mov	 ecx, DWORD PTR ?general_log_text_list@@3PAUUI_OBJECT@@A ; general_log_text_list
  00605	51		 push	 ecx
  00606	68 00 00 00 00	 push	 OFFSET ??_C@_0N@GPPIJFNH@Success?5Rate@
  0060b	e8 00 00 00 00	 call	 ?get_trans@@YGPBDPBD@Z	; get_trans
  00610	50		 push	 eax
  00611	e8 00 00 00 00	 call	 ?add_to_pop_up_list@@YGPAUUI_OBJECT@@PBDPAU1@1HHUREAL_COLOUR@@@Z ; add_to_pop_up_list

; 201  : 
; 202  : 		add_to_pop_up_list (buf, general_log_output_list, NULL, ENTITY_INDEX_DONT_CARE, get_current_language_font (UI_FONT_ARIAL_14), ui_option_title_text_colour);

  00616	a1 00 00 00 00	 mov	 eax, DWORD PTR ?ui_option_title_text_colour@@3UREAL_COLOUR@@A ; ui_option_title_text_colour
  0061b	50		 push	 eax
  0061c	6a 01		 push	 1
  0061e	e8 00 00 00 00	 call	 ?get_current_language_font@@YG?AW4FONT_TYPES@@W41@@Z ; get_current_language_font
  00623	50		 push	 eax
  00624	6a ff		 push	 -1
  00626	6a 00		 push	 0
  00628	8b 0d 00 00 00
	00		 mov	 ecx, DWORD PTR ?general_log_output_list@@3PAUUI_OBJECT@@A ; general_log_output_list
  0062e	51		 push	 ecx
  0062f	8d 55 9c	 lea	 edx, DWORD PTR _buf$[ebp]
  00632	52		 push	 edx
  00633	e8 00 00 00 00	 call	 ?add_to_pop_up_list@@YGPAUUI_OBJECT@@PBDPAU1@1HHUREAL_COLOUR@@@Z ; add_to_pop_up_list

; 203  : 
; 204  : 		// Successful tours
; 205  : 
; 206  : 		sprintf (buf, "%d", player_log->side_log[side].successful_tours );

  00638	69 45 0c 4c 03
	00 00		 imul	 eax, DWORD PTR _side$[ebp], 844
  0063f	8b 4d 08	 mov	 ecx, DWORD PTR _player_log$[ebp]
  00642	8b 54 01 1c	 mov	 edx, DWORD PTR [ecx+eax+28]
  00646	52		 push	 edx
  00647	68 00 00 00 00	 push	 OFFSET ??_C@_02DPKJAMEF@?$CFd@
  0064c	8d 45 9c	 lea	 eax, DWORD PTR _buf$[ebp]
  0064f	50		 push	 eax
  00650	e8 00 00 00 00	 call	 _sprintf
  00655	83 c4 0c	 add	 esp, 12			; 0000000cH

; 207  : 
; 208  : 		add_to_pop_up_list (get_trans ("Successful Tours"), general_log_text_list, NULL, ENTITY_INDEX_DONT_CARE, get_current_language_font (UI_FONT_ARIAL_14), ui_option_title_text_colour);

  00658	a1 00 00 00 00	 mov	 eax, DWORD PTR ?ui_option_title_text_colour@@3UREAL_COLOUR@@A ; ui_option_title_text_colour
  0065d	50		 push	 eax
  0065e	6a 01		 push	 1
  00660	e8 00 00 00 00	 call	 ?get_current_language_font@@YG?AW4FONT_TYPES@@W41@@Z ; get_current_language_font
  00665	50		 push	 eax
  00666	6a ff		 push	 -1
  00668	6a 00		 push	 0
  0066a	8b 0d 00 00 00
	00		 mov	 ecx, DWORD PTR ?general_log_text_list@@3PAUUI_OBJECT@@A ; general_log_text_list
  00670	51		 push	 ecx
  00671	68 00 00 00 00	 push	 OFFSET ??_C@_0BB@KDFKFOIO@Successful?5Tours@
  00676	e8 00 00 00 00	 call	 ?get_trans@@YGPBDPBD@Z	; get_trans
  0067b	50		 push	 eax
  0067c	e8 00 00 00 00	 call	 ?add_to_pop_up_list@@YGPAUUI_OBJECT@@PBDPAU1@1HHUREAL_COLOUR@@@Z ; add_to_pop_up_list

; 209  : 
; 210  : 		add_to_pop_up_list (buf, general_log_output_list, NULL, ENTITY_INDEX_DONT_CARE, get_current_language_font (UI_FONT_ARIAL_14), ui_option_title_text_colour);

  00681	a1 00 00 00 00	 mov	 eax, DWORD PTR ?ui_option_title_text_colour@@3UREAL_COLOUR@@A ; ui_option_title_text_colour
  00686	50		 push	 eax
  00687	6a 01		 push	 1
  00689	e8 00 00 00 00	 call	 ?get_current_language_font@@YG?AW4FONT_TYPES@@W41@@Z ; get_current_language_font
  0068e	50		 push	 eax
  0068f	6a ff		 push	 -1
  00691	6a 00		 push	 0
  00693	8b 0d 00 00 00
	00		 mov	 ecx, DWORD PTR ?general_log_output_list@@3PAUUI_OBJECT@@A ; general_log_output_list
  00699	51		 push	 ecx
  0069a	8d 55 9c	 lea	 edx, DWORD PTR _buf$[ebp]
  0069d	52		 push	 edx
  0069e	e8 00 00 00 00	 call	 ?add_to_pop_up_list@@YGPAUUI_OBJECT@@PBDPAU1@1HHUREAL_COLOUR@@@Z ; add_to_pop_up_list

; 211  : 
; 212  : /*
; 213  : 		// Failed tours
; 214  : 		sprintf (buf, "%d", player_log->side_log[side].failed_tours );
; 215  : 
; 216  : 		add_to_pop_up_list (get_trans ("Failed Tours"), general_log_text_list, NULL, ENTITY_INDEX_DONT_CARE, get_current_language_font (UI_FONT_ARIAL_16), ui_option_title_text_colour);
; 217  : 
; 218  : 		add_to_pop_up_list (buf, general_log_output_list, NULL, ENTITY_INDEX_DONT_CARE, get_current_language_font (UI_FONT_ARIAL_16), ui_option_title_text_colour);
; 219  : */
; 220  : 
; 221  : 		// Total points
; 222  : //		sprintf (buf, "%d", ( int ) ( player_log->side_log[side].experience ));
; 223  : 
; 224  : //		add_to_pop_up_list (get_trans ("Total Points"), general_log_text_list, NULL, ENTITY_INDEX_DONT_CARE, get_current_language_font (UI_FONT_ARIAL_16), ui_option_title_text_colour);
; 225  : 
; 226  : //		add_to_pop_up_list (buf, general_log_output_list, NULL, ENTITY_INDEX_DONT_CARE, get_current_language_font (UI_FONT_ARIAL_16), ui_option_title_text_colour);
; 227  : 
; 228  : }

  006a3	5f		 pop	 edi
  006a4	5e		 pop	 esi
  006a5	5b		 pop	 ebx
  006a6	8b e5		 mov	 esp, ebp
  006a8	5d		 pop	 ebp
  006a9	c2 08 00	 ret	 8
?rebuild_general_log_list@@YGXPAUPLAYER_LOG_TYPE@@H@Z ENDP ; rebuild_general_log_list
_TEXT	ENDS
; Function compile flags: /Odtp /ZI
; File c:\users\nhv90\projects\eech\aphavoc\source\ui_menu\player\play_gn.c
;	COMDAT ?define_general_log_page_objects@@YGXXZ
_TEXT	SEGMENT
_page$ = -20						; size = 4
_y2$ = -16						; size = 4
_x2$ = -12						; size = 4
_y1$ = -8						; size = 4
_x1$ = -4						; size = 4
?define_general_log_page_objects@@YGXXZ PROC		; define_general_log_page_objects, COMDAT

; 235  : {

  00000	55		 push	 ebp
  00001	8b ec		 mov	 ebp, esp
  00003	83 ec 54	 sub	 esp, 84			; 00000054H
  00006	53		 push	 ebx
  00007	56		 push	 esi
  00008	57		 push	 edi

; 236  : 
; 237  : 	float
; 238  : 		x1,
; 239  : 		y1,
; 240  : 		x2,
; 241  : 		y2;
; 242  : 
; 243  : 	ui_object
; 244  : 		*page;
; 245  : 
; 246  : 	/////////////////////////////////////////////////////////////////
; 247  : 	// general Log Area
; 248  : 
; 249  : 	x1 = 0.523;

  00009	f3 0f 10 05 00
	00 00 00	 movss	 xmm0, DWORD PTR __real@3f05e354
  00011	f3 0f 11 45 fc	 movss	 DWORD PTR _x1$[ebp], xmm0

; 250  : 	y1 = 0.270;

  00016	f3 0f 10 05 00
	00 00 00	 movss	 xmm0, DWORD PTR __real@3e8a3d71
  0001e	f3 0f 11 45 f8	 movss	 DWORD PTR _y1$[ebp], xmm0

; 251  : //	x2 = 0.271;
; 252  : 	x2 = 0.4;

  00023	f3 0f 10 05 00
	00 00 00	 movss	 xmm0, DWORD PTR __real@3ecccccd
  0002b	f3 0f 11 45 f4	 movss	 DWORD PTR _x2$[ebp], xmm0

; 253  : 	y2 = 0.480;

  00030	f3 0f 10 05 00
	00 00 00	 movss	 xmm0, DWORD PTR __real@3ef5c28f
  00038	f3 0f 11 45 f0	 movss	 DWORD PTR _y2$[ebp], xmm0

; 254  : 
; 255  : 	log_page [LOG_PAGE_GENERAL] = create_ui_object

  0003d	6a 11		 push	 17			; 00000011H
  0003f	6a 00		 push	 0
  00041	6a 10		 push	 16			; 00000010H
  00043	6a 01		 push	 1
  00045	6a 07		 push	 7
  00047	f3 0f 5a 45 f0	 cvtss2sd xmm0, DWORD PTR _y2$[ebp]
  0004c	83 ec 08	 sub	 esp, 8
  0004f	f2 0f 11 04 24	 movsd	 QWORD PTR [esp], xmm0
  00054	f3 0f 5a 45 f4	 cvtss2sd xmm0, DWORD PTR _x2$[ebp]
  00059	83 ec 08	 sub	 esp, 8
  0005c	f2 0f 11 04 24	 movsd	 QWORD PTR [esp], xmm0
  00061	6a 59		 push	 89			; 00000059H
  00063	f3 0f 5a 45 f8	 cvtss2sd xmm0, DWORD PTR _y1$[ebp]
  00068	83 ec 08	 sub	 esp, 8
  0006b	f2 0f 11 04 24	 movsd	 QWORD PTR [esp], xmm0
  00070	f3 0f 5a 45 fc	 cvtss2sd xmm0, DWORD PTR _x1$[ebp]
  00075	83 ec 08	 sub	 esp, 8
  00078	f2 0f 11 04 24	 movsd	 QWORD PTR [esp], xmm0
  0007d	6a 58		 push	 88			; 00000058H
  0007f	a1 00 00 00 00	 mov	 eax, DWORD PTR ?select_player_screen@@3PAUUI_OBJECT@@A ; select_player_screen
  00084	50		 push	 eax
  00085	6a 32		 push	 50			; 00000032H
  00087	6a 01		 push	 1
  00089	e8 00 00 00 00	 call	 ?create_ui_object@@YAPAUUI_OBJECT@@HZZ ; create_ui_object
  0008e	83 c4 48	 add	 esp, 72			; 00000048H
  00091	b9 04 00 00 00	 mov	 ecx, 4
  00096	6b d1 00	 imul	 edx, ecx, 0
  00099	89 82 00 00 00
	00		 mov	 DWORD PTR ?log_page@@3PAPAUUI_OBJECT@@A[edx], eax

; 256  : 			(
; 257  : 				UI_TYPE_AREA,
; 258  : 				UI_ATTR_PARENT (select_player_screen),
; 259  : 				UI_ATTR_VIRTUAL_POSITION (x1, y1),
; 260  : 				UI_ATTR_VIRTUAL_SIZE (x2, y2),
; 261  : 				UI_ATTR_CLEAR (TRUE),
; 262  : 				UI_ATTR_DRAWABLE (FALSE),
; 263  : 				UI_ATTR_END
; 264  : 			);
; 265  : 
; 266  : 	page = log_page [LOG_PAGE_GENERAL];

  0009f	b8 04 00 00 00	 mov	 eax, 4
  000a4	6b c8 00	 imul	 ecx, eax, 0
  000a7	8b 91 00 00 00
	00		 mov	 edx, DWORD PTR ?log_page@@3PAPAUUI_OBJECT@@A[ecx]
  000ad	89 55 ec	 mov	 DWORD PTR _page$[ebp], edx

; 267  : 
; 268  : 	/////////////////////////////////////////////////////////////////
; 269  : 	// Text List Area
; 270  : 
; 271  : 	x1 = 0.0;

  000b0	0f 57 c0	 xorps	 xmm0, xmm0
  000b3	f3 0f 11 45 fc	 movss	 DWORD PTR _x1$[ebp], xmm0

; 272  : 	y1 = 0.0;

  000b8	0f 57 c0	 xorps	 xmm0, xmm0
  000bb	f3 0f 11 45 f8	 movss	 DWORD PTR _y1$[ebp], xmm0

; 273  : 	x2 = 0.745;

  000c0	f3 0f 10 05 00
	00 00 00	 movss	 xmm0, DWORD PTR __real@3f3eb852
  000c8	f3 0f 11 45 f4	 movss	 DWORD PTR _x2$[ebp], xmm0

; 274  : 	x2 = 0.85;

  000cd	f3 0f 10 05 00
	00 00 00	 movss	 xmm0, DWORD PTR __real@3f59999a
  000d5	f3 0f 11 45 f4	 movss	 DWORD PTR _x2$[ebp], xmm0

; 275  : 	y2 = 1.0;

  000da	f3 0f 10 05 00
	00 00 00	 movss	 xmm0, DWORD PTR __real@3f800000
  000e2	f3 0f 11 45 f0	 movss	 DWORD PTR _y2$[ebp], xmm0

; 276  : 
; 277  : 	general_log_text_list_area = create_ui_object

  000e7	6a 11		 push	 17			; 00000011H
  000e9	6a 01		 push	 1
  000eb	6a 07		 push	 7
  000ed	f3 0f 5a 45 f0	 cvtss2sd xmm0, DWORD PTR _y2$[ebp]
  000f2	83 ec 08	 sub	 esp, 8
  000f5	f2 0f 11 04 24	 movsd	 QWORD PTR [esp], xmm0
  000fa	f3 0f 5a 45 f4	 cvtss2sd xmm0, DWORD PTR _x2$[ebp]
  000ff	83 ec 08	 sub	 esp, 8
  00102	f2 0f 11 04 24	 movsd	 QWORD PTR [esp], xmm0
  00107	6a 59		 push	 89			; 00000059H
  00109	f3 0f 5a 45 f8	 cvtss2sd xmm0, DWORD PTR _y1$[ebp]
  0010e	83 ec 08	 sub	 esp, 8
  00111	f2 0f 11 04 24	 movsd	 QWORD PTR [esp], xmm0
  00116	f3 0f 5a 45 fc	 cvtss2sd xmm0, DWORD PTR _x1$[ebp]
  0011b	83 ec 08	 sub	 esp, 8
  0011e	f2 0f 11 04 24	 movsd	 QWORD PTR [esp], xmm0
  00123	6a 58		 push	 88			; 00000058H
  00125	8b 45 ec	 mov	 eax, DWORD PTR _page$[ebp]
  00128	50		 push	 eax
  00129	6a 32		 push	 50			; 00000032H
  0012b	6a 01		 push	 1
  0012d	e8 00 00 00 00	 call	 ?create_ui_object@@YAPAUUI_OBJECT@@HZZ ; create_ui_object
  00132	83 c4 40	 add	 esp, 64			; 00000040H
  00135	a3 00 00 00 00	 mov	 DWORD PTR ?general_log_text_list_area@@3PAUUI_OBJECT@@A, eax ; general_log_text_list_area

; 278  : 			(
; 279  : 				UI_TYPE_AREA,
; 280  : 				UI_ATTR_PARENT (page),
; 281  : 				UI_ATTR_VIRTUAL_POSITION (x1, y1),
; 282  : 				UI_ATTR_VIRTUAL_SIZE (x2, y2),
; 283  : 				UI_ATTR_CLEAR (TRUE),
; 284  : 				UI_ATTR_END
; 285  : 			);
; 286  : 
; 287  : 	/////////////////////////////////////////////////////////////////
; 288  : 	// Text List Object
; 289  : 
; 290  : 	x1 = 0.0;

  0013a	0f 57 c0	 xorps	 xmm0, xmm0
  0013d	f3 0f 11 45 fc	 movss	 DWORD PTR _x1$[ebp], xmm0

; 291  : 	y1 = 0.0;

  00142	0f 57 c0	 xorps	 xmm0, xmm0
  00145	f3 0f 11 45 f8	 movss	 DWORD PTR _y1$[ebp], xmm0

; 292  : 	x2 = 1.0;

  0014a	f3 0f 10 05 00
	00 00 00	 movss	 xmm0, DWORD PTR __real@3f800000
  00152	f3 0f 11 45 f4	 movss	 DWORD PTR _x2$[ebp], xmm0

; 293  : 	y2 = 1.0;

  00157	f3 0f 10 05 00
	00 00 00	 movss	 xmm0, DWORD PTR __real@3f800000
  0015f	f3 0f 11 45 f0	 movss	 DWORD PTR _y2$[ebp], xmm0

; 294  : 
; 295  : 	general_log_text_list = create_ui_object

  00164	6a 11		 push	 17			; 00000011H
  00166	6a 00		 push	 0
  00168	6a 2f		 push	 47			; 0000002fH
  0016a	6a fe		 push	 -2			; fffffffeH
  0016c	6a 29		 push	 41			; 00000029H
  0016e	68 ff 00 00 00	 push	 255			; 000000ffH
  00173	0f b6 05 00 00
	00 00		 movzx	 eax, BYTE PTR ?ui_option_title_text_colour@@3UREAL_COLOUR@@A
  0017a	50		 push	 eax
  0017b	0f b6 0d 01 00
	00 00		 movzx	 ecx, BYTE PTR ?ui_option_title_text_colour@@3UREAL_COLOUR@@A+1
  00182	51		 push	 ecx
  00183	0f b6 15 02 00
	00 00		 movzx	 edx, BYTE PTR ?ui_option_title_text_colour@@3UREAL_COLOUR@@A+2
  0018a	52		 push	 edx
  0018b	6a 14		 push	 20			; 00000014H
  0018d	6a 00		 push	 0
  0018f	0f b6 05 00 00
	00 00		 movzx	 eax, BYTE PTR ?ui_option_title_text_colour@@3UREAL_COLOUR@@A
  00196	50		 push	 eax
  00197	0f b6 0d 01 00
	00 00		 movzx	 ecx, BYTE PTR ?ui_option_title_text_colour@@3UREAL_COLOUR@@A+1
  0019e	51		 push	 ecx
  0019f	0f b6 15 02 00
	00 00		 movzx	 edx, BYTE PTR ?ui_option_title_text_colour@@3UREAL_COLOUR@@A+2
  001a6	52		 push	 edx
  001a7	6a 15		 push	 21			; 00000015H
  001a9	6a 03		 push	 3
  001ab	e8 00 00 00 00	 call	 ?get_current_language_font@@YG?AW4FONT_TYPES@@W41@@Z ; get_current_language_font
  001b0	50		 push	 eax
  001b1	6a 12		 push	 18			; 00000012H
  001b3	6a 01		 push	 1
  001b5	6a 07		 push	 7
  001b7	f3 0f 5a 45 f0	 cvtss2sd xmm0, DWORD PTR _y2$[ebp]
  001bc	83 ec 08	 sub	 esp, 8
  001bf	f2 0f 11 04 24	 movsd	 QWORD PTR [esp], xmm0
  001c4	f3 0f 5a 45 f4	 cvtss2sd xmm0, DWORD PTR _x2$[ebp]
  001c9	83 ec 08	 sub	 esp, 8
  001cc	f2 0f 11 04 24	 movsd	 QWORD PTR [esp], xmm0
  001d1	6a 59		 push	 89			; 00000059H
  001d3	f3 0f 5a 45 f8	 cvtss2sd xmm0, DWORD PTR _y1$[ebp]
  001d8	83 ec 08	 sub	 esp, 8
  001db	f2 0f 11 04 24	 movsd	 QWORD PTR [esp], xmm0
  001e0	f3 0f 5a 45 fc	 cvtss2sd xmm0, DWORD PTR _x1$[ebp]
  001e5	83 ec 08	 sub	 esp, 8
  001e8	f2 0f 11 04 24	 movsd	 QWORD PTR [esp], xmm0
  001ed	6a 58		 push	 88			; 00000058H
  001ef	a1 00 00 00 00	 mov	 eax, DWORD PTR ?general_log_text_list_area@@3PAUUI_OBJECT@@A ; general_log_text_list_area
  001f4	50		 push	 eax
  001f5	6a 32		 push	 50			; 00000032H
  001f7	6a 0d		 push	 13			; 0000000dH
  001f9	e8 00 00 00 00	 call	 ?create_ui_object@@YAPAUUI_OBJECT@@HZZ ; create_ui_object
  001fe	81 c4 80 00 00
	00		 add	 esp, 128		; 00000080H
  00204	a3 00 00 00 00	 mov	 DWORD PTR ?general_log_text_list@@3PAUUI_OBJECT@@A, eax ; general_log_text_list

; 296  : 				(
; 297  : 					UI_TYPE_LIST_BOX,
; 298  : 					UI_ATTR_PARENT (general_log_text_list_area),
; 299  : 					UI_ATTR_VIRTUAL_POSITION (x1, y1),
; 300  : 					UI_ATTR_VIRTUAL_SIZE (x2, y2),
; 301  : 					UI_ATTR_CLEAR (TRUE),
; 302  : 					UI_ATTR_FONT_TYPE (get_current_language_font (UI_FONT_ARIAL_16)),
; 303  :   				   UI_ATTR_FONT_COLOUR_START (ui_option_title_text_colour.r, ui_option_title_text_colour.g, ui_option_title_text_colour.b, 0),
; 304  :       			UI_ATTR_FONT_COLOUR_END (ui_option_title_text_colour.r, ui_option_title_text_colour.g, ui_option_title_text_colour.b, 255),
; 305  : 					UI_ATTR_ITEM_NUMBER (-2),
; 306  : 					UI_ATTR_NOTIFY_ON (NOTIFY_TYPE_NONE),
; 307  : 					UI_ATTR_END
; 308  : 				);
; 309  : 
; 310  : 	/////////////////////////////////////////////////////////////////
; 311  : 	// Output List Area
; 312  : 
; 313  : 	x2 = 0.745;

  00209	f3 0f 10 05 00
	00 00 00	 movss	 xmm0, DWORD PTR __real@3f3eb852
  00211	f3 0f 11 45 f4	 movss	 DWORD PTR _x2$[ebp], xmm0

; 314  : 	x1 = 0.85;

  00216	f3 0f 10 05 00
	00 00 00	 movss	 xmm0, DWORD PTR __real@3f59999a
  0021e	f3 0f 11 45 fc	 movss	 DWORD PTR _x1$[ebp], xmm0

; 315  : 	y1 = 0.0;

  00223	0f 57 c0	 xorps	 xmm0, xmm0
  00226	f3 0f 11 45 f8	 movss	 DWORD PTR _y1$[ebp], xmm0

; 316  : 	x2 = 1.0;

  0022b	f3 0f 10 05 00
	00 00 00	 movss	 xmm0, DWORD PTR __real@3f800000
  00233	f3 0f 11 45 f4	 movss	 DWORD PTR _x2$[ebp], xmm0

; 317  : 	y2 = 1.0;

  00238	f3 0f 10 05 00
	00 00 00	 movss	 xmm0, DWORD PTR __real@3f800000
  00240	f3 0f 11 45 f0	 movss	 DWORD PTR _y2$[ebp], xmm0

; 318  : 
; 319  : 	general_log_output_list_area = create_ui_object

  00245	6a 11		 push	 17			; 00000011H
  00247	6a 01		 push	 1
  00249	6a 07		 push	 7
  0024b	6a 02		 push	 2
  0024d	6a 4b		 push	 75			; 0000004bH
  0024f	f3 0f 5a 45 f0	 cvtss2sd xmm0, DWORD PTR _y2$[ebp]
  00254	83 ec 08	 sub	 esp, 8
  00257	f2 0f 11 04 24	 movsd	 QWORD PTR [esp], xmm0
  0025c	f3 0f 5a 45 f4	 cvtss2sd xmm0, DWORD PTR _x2$[ebp]
  00261	83 ec 08	 sub	 esp, 8
  00264	f2 0f 11 04 24	 movsd	 QWORD PTR [esp], xmm0
  00269	6a 59		 push	 89			; 00000059H
  0026b	f3 0f 5a 45 f8	 cvtss2sd xmm0, DWORD PTR _y1$[ebp]
  00270	83 ec 08	 sub	 esp, 8
  00273	f2 0f 11 04 24	 movsd	 QWORD PTR [esp], xmm0
  00278	f3 0f 5a 45 fc	 cvtss2sd xmm0, DWORD PTR _x1$[ebp]
  0027d	83 ec 08	 sub	 esp, 8
  00280	f2 0f 11 04 24	 movsd	 QWORD PTR [esp], xmm0
  00285	6a 58		 push	 88			; 00000058H
  00287	8b 45 ec	 mov	 eax, DWORD PTR _page$[ebp]
  0028a	50		 push	 eax
  0028b	6a 32		 push	 50			; 00000032H
  0028d	6a 01		 push	 1
  0028f	e8 00 00 00 00	 call	 ?create_ui_object@@YAPAUUI_OBJECT@@HZZ ; create_ui_object
  00294	83 c4 48	 add	 esp, 72			; 00000048H
  00297	a3 00 00 00 00	 mov	 DWORD PTR ?general_log_output_list_area@@3PAUUI_OBJECT@@A, eax ; general_log_output_list_area

; 320  : 			(
; 321  : 				UI_TYPE_AREA,
; 322  : 				UI_ATTR_PARENT (page),
; 323  : 				UI_ATTR_VIRTUAL_POSITION (x1, y1),
; 324  : 				UI_ATTR_VIRTUAL_SIZE (x2, y2),
; 325  : 				UI_ATTR_TEXT_JUSTIFY ( TEXT_JUSTIFY_RIGHT_CENTRE ),
; 326  : 				UI_ATTR_CLEAR (TRUE),
; 327  : 				UI_ATTR_END
; 328  : 			);
; 329  : 
; 330  : 	/////////////////////////////////////////////////////////////////
; 331  : 	// Output List Object
; 332  : 
; 333  : 	x1 = 0.0;

  0029c	0f 57 c0	 xorps	 xmm0, xmm0
  0029f	f3 0f 11 45 fc	 movss	 DWORD PTR _x1$[ebp], xmm0

; 334  : 	y1 = 0.0;

  002a4	0f 57 c0	 xorps	 xmm0, xmm0
  002a7	f3 0f 11 45 f8	 movss	 DWORD PTR _y1$[ebp], xmm0

; 335  : 	x2 = 1.0;

  002ac	f3 0f 10 05 00
	00 00 00	 movss	 xmm0, DWORD PTR __real@3f800000
  002b4	f3 0f 11 45 f4	 movss	 DWORD PTR _x2$[ebp], xmm0

; 336  : 	y2 = 1.0;

  002b9	f3 0f 10 05 00
	00 00 00	 movss	 xmm0, DWORD PTR __real@3f800000
  002c1	f3 0f 11 45 f0	 movss	 DWORD PTR _y2$[ebp], xmm0

; 337  : 
; 338  : 	general_log_output_list = create_ui_object

  002c6	6a 11		 push	 17			; 00000011H
  002c8	6a 00		 push	 0
  002ca	6a 2f		 push	 47			; 0000002fH
  002cc	6a fe		 push	 -2			; fffffffeH
  002ce	6a 29		 push	 41			; 00000029H
  002d0	68 ff 00 00 00	 push	 255			; 000000ffH
  002d5	0f b6 05 00 00
	00 00		 movzx	 eax, BYTE PTR ?ui_option_title_text_colour@@3UREAL_COLOUR@@A
  002dc	50		 push	 eax
  002dd	0f b6 0d 01 00
	00 00		 movzx	 ecx, BYTE PTR ?ui_option_title_text_colour@@3UREAL_COLOUR@@A+1
  002e4	51		 push	 ecx
  002e5	0f b6 15 02 00
	00 00		 movzx	 edx, BYTE PTR ?ui_option_title_text_colour@@3UREAL_COLOUR@@A+2
  002ec	52		 push	 edx
  002ed	6a 14		 push	 20			; 00000014H
  002ef	6a 00		 push	 0
  002f1	0f b6 05 00 00
	00 00		 movzx	 eax, BYTE PTR ?ui_option_title_text_colour@@3UREAL_COLOUR@@A
  002f8	50		 push	 eax
  002f9	0f b6 0d 01 00
	00 00		 movzx	 ecx, BYTE PTR ?ui_option_title_text_colour@@3UREAL_COLOUR@@A+1
  00300	51		 push	 ecx
  00301	0f b6 15 02 00
	00 00		 movzx	 edx, BYTE PTR ?ui_option_title_text_colour@@3UREAL_COLOUR@@A+2
  00308	52		 push	 edx
  00309	6a 15		 push	 21			; 00000015H
  0030b	6a 03		 push	 3
  0030d	e8 00 00 00 00	 call	 ?get_current_language_font@@YG?AW4FONT_TYPES@@W41@@Z ; get_current_language_font
  00312	50		 push	 eax
  00313	6a 12		 push	 18			; 00000012H
  00315	6a 01		 push	 1
  00317	6a 07		 push	 7
  00319	f3 0f 5a 45 f0	 cvtss2sd xmm0, DWORD PTR _y2$[ebp]
  0031e	83 ec 08	 sub	 esp, 8
  00321	f2 0f 11 04 24	 movsd	 QWORD PTR [esp], xmm0
  00326	f3 0f 5a 45 f4	 cvtss2sd xmm0, DWORD PTR _x2$[ebp]
  0032b	83 ec 08	 sub	 esp, 8
  0032e	f2 0f 11 04 24	 movsd	 QWORD PTR [esp], xmm0
  00333	6a 59		 push	 89			; 00000059H
  00335	f3 0f 5a 45 f8	 cvtss2sd xmm0, DWORD PTR _y1$[ebp]
  0033a	83 ec 08	 sub	 esp, 8
  0033d	f2 0f 11 04 24	 movsd	 QWORD PTR [esp], xmm0
  00342	f3 0f 5a 45 fc	 cvtss2sd xmm0, DWORD PTR _x1$[ebp]
  00347	83 ec 08	 sub	 esp, 8
  0034a	f2 0f 11 04 24	 movsd	 QWORD PTR [esp], xmm0
  0034f	6a 58		 push	 88			; 00000058H
  00351	a1 00 00 00 00	 mov	 eax, DWORD PTR ?general_log_output_list_area@@3PAUUI_OBJECT@@A ; general_log_output_list_area
  00356	50		 push	 eax
  00357	6a 32		 push	 50			; 00000032H
  00359	6a 0d		 push	 13			; 0000000dH
  0035b	e8 00 00 00 00	 call	 ?create_ui_object@@YAPAUUI_OBJECT@@HZZ ; create_ui_object
  00360	81 c4 80 00 00
	00		 add	 esp, 128		; 00000080H
  00366	a3 00 00 00 00	 mov	 DWORD PTR ?general_log_output_list@@3PAUUI_OBJECT@@A, eax ; general_log_output_list

; 339  : 				(
; 340  : 					UI_TYPE_LIST_BOX,
; 341  : 					UI_ATTR_PARENT (general_log_output_list_area),
; 342  : 					UI_ATTR_VIRTUAL_POSITION (x1, y1),
; 343  : 					UI_ATTR_VIRTUAL_SIZE (x2, y2),
; 344  : 					UI_ATTR_CLEAR (TRUE),
; 345  : 					UI_ATTR_FONT_TYPE (get_current_language_font (UI_FONT_ARIAL_16)),
; 346  :   				   UI_ATTR_FONT_COLOUR_START (ui_option_title_text_colour.r, ui_option_title_text_colour.g, ui_option_title_text_colour.b, 0),
; 347  :       			UI_ATTR_FONT_COLOUR_END (ui_option_title_text_colour.r, ui_option_title_text_colour.g, ui_option_title_text_colour.b, 255),
; 348  : 					UI_ATTR_ITEM_NUMBER (-2),
; 349  : 					UI_ATTR_NOTIFY_ON (NOTIFY_TYPE_NONE),
; 350  : 					UI_ATTR_END
; 351  : 				);
; 352  : 
; 353  : 
; 354  : }

  0036b	5f		 pop	 edi
  0036c	5e		 pop	 esi
  0036d	5b		 pop	 ebx
  0036e	8b e5		 mov	 esp, ebp
  00370	5d		 pop	 ebp
  00371	c3		 ret	 0
?define_general_log_page_objects@@YGXXZ ENDP		; define_general_log_page_objects
_TEXT	ENDS
; Function compile flags: /Odtp /ZI
; File c:\users\nhv90\projects\eech\aphavoc\source\ui_menu\player\play_gn.c
;	COMDAT ?notify_show_general_log_page@@YGXPAUUI_OBJECT@@@Z
_TEXT	SEGMENT
_obj$ = 8						; size = 4
?notify_show_general_log_page@@YGXPAUUI_OBJECT@@@Z PROC	; notify_show_general_log_page, COMDAT

; 92   : {

  00000	55		 push	 ebp
  00001	8b ec		 mov	 ebp, esp
  00003	83 ec 40	 sub	 esp, 64			; 00000040H
  00006	53		 push	 ebx
  00007	56		 push	 esi
  00008	57		 push	 edi

; 93   : 
; 94   : 	display_player_log_page (LOG_PAGE_GENERAL);

  00009	6a 00		 push	 0
  0000b	e8 00 00 00 00	 call	 ?display_player_log_page@@YGXW4PLAYER_LOG_PAGES@@@Z ; display_player_log_page

; 95   : 
; 96   : 	#if DEBUG_MODULE
; 97   : 		debug_filtered_log("Inside show_general_log_page");
; 98   : 	#endif
; 99   : }

  00010	5f		 pop	 edi
  00011	5e		 pop	 esi
  00012	5b		 pop	 ebx
  00013	8b e5		 mov	 esp, ebp
  00015	5d		 pop	 ebp
  00016	c2 04 00	 ret	 4
?notify_show_general_log_page@@YGXPAUUI_OBJECT@@@Z ENDP	; notify_show_general_log_page
_TEXT	ENDS
; Function compile flags: /Odtp /ZI
; File c:\program files (x86)\windows kits\10\include\10.0.18362.0\ucrt\stdio.h
;	COMDAT _sprintf
_TEXT	SEGMENT
__ArgList$ = -8						; size = 4
__Result$ = -4						; size = 4
__Buffer$ = 8						; size = 4
__Format$ = 12						; size = 4
_sprintf PROC						; COMDAT

; 1781 :     {

  00000	55		 push	 ebp
  00001	8b ec		 mov	 ebp, esp
  00003	83 ec 4c	 sub	 esp, 76			; 0000004cH
  00006	53		 push	 ebx
  00007	56		 push	 esi
  00008	57		 push	 edi

; 1782 :         int _Result;
; 1783 :         va_list _ArgList;
; 1784 :         __crt_va_start(_ArgList, _Format);

  00009	8d 45 10	 lea	 eax, DWORD PTR __Format$[ebp+4]
  0000c	89 45 f8	 mov	 DWORD PTR __ArgList$[ebp], eax

; 1785 : 
; 1786 :         #pragma warning(push)
; 1787 :         #pragma warning(disable: 4996) // Deprecation
; 1788 :         _Result = _vsprintf_l(_Buffer, _Format, NULL, _ArgList);

  0000f	8b 45 f8	 mov	 eax, DWORD PTR __ArgList$[ebp]
  00012	50		 push	 eax
  00013	6a 00		 push	 0
  00015	8b 4d 0c	 mov	 ecx, DWORD PTR __Format$[ebp]
  00018	51		 push	 ecx
  00019	8b 55 08	 mov	 edx, DWORD PTR __Buffer$[ebp]
  0001c	52		 push	 edx
  0001d	e8 00 00 00 00	 call	 __vsprintf_l
  00022	83 c4 10	 add	 esp, 16			; 00000010H
  00025	89 45 fc	 mov	 DWORD PTR __Result$[ebp], eax

; 1789 :         #pragma warning(pop)
; 1790 : 
; 1791 :         __crt_va_end(_ArgList);

  00028	c7 45 f8 00 00
	00 00		 mov	 DWORD PTR __ArgList$[ebp], 0

; 1792 :         return _Result;

  0002f	8b 45 fc	 mov	 eax, DWORD PTR __Result$[ebp]

; 1793 :     }

  00032	5f		 pop	 edi
  00033	5e		 pop	 esi
  00034	5b		 pop	 ebx
  00035	8b e5		 mov	 esp, ebp
  00037	5d		 pop	 ebp
  00038	c3		 ret	 0
_sprintf ENDP
_TEXT	ENDS
; Function compile flags: /Odtp /ZI
; File c:\program files (x86)\windows kits\10\include\10.0.18362.0\ucrt\stdio.h
;	COMDAT __vsprintf_l
_TEXT	SEGMENT
__Buffer$ = 8						; size = 4
__Format$ = 12						; size = 4
__Locale$ = 16						; size = 4
__ArgList$ = 20						; size = 4
__vsprintf_l PROC					; COMDAT

; 1459 :     {

  00000	55		 push	 ebp
  00001	8b ec		 mov	 ebp, esp
  00003	83 ec 40	 sub	 esp, 64			; 00000040H
  00006	53		 push	 ebx
  00007	56		 push	 esi
  00008	57		 push	 edi

; 1460 :         #pragma warning(push)
; 1461 :         #pragma warning(disable: 4996) // Deprecation
; 1462 :         return _vsnprintf_l(_Buffer, (size_t)-1, _Format, _Locale, _ArgList);

  00009	8b 45 14	 mov	 eax, DWORD PTR __ArgList$[ebp]
  0000c	50		 push	 eax
  0000d	8b 4d 10	 mov	 ecx, DWORD PTR __Locale$[ebp]
  00010	51		 push	 ecx
  00011	8b 55 0c	 mov	 edx, DWORD PTR __Format$[ebp]
  00014	52		 push	 edx
  00015	6a ff		 push	 -1
  00017	8b 45 08	 mov	 eax, DWORD PTR __Buffer$[ebp]
  0001a	50		 push	 eax
  0001b	e8 00 00 00 00	 call	 __vsnprintf_l
  00020	83 c4 14	 add	 esp, 20			; 00000014H

; 1463 :         #pragma warning(pop)
; 1464 :     }

  00023	5f		 pop	 edi
  00024	5e		 pop	 esi
  00025	5b		 pop	 ebx
  00026	8b e5		 mov	 esp, ebp
  00028	5d		 pop	 ebp
  00029	c3		 ret	 0
__vsprintf_l ENDP
_TEXT	ENDS
; Function compile flags: /Odtp /ZI
; File c:\program files (x86)\windows kits\10\include\10.0.18362.0\ucrt\stdio.h
;	COMDAT __vsnprintf_l
_TEXT	SEGMENT
tv74 = -72						; size = 4
__Result$ = -4						; size = 4
__Buffer$ = 8						; size = 4
__BufferCount$ = 12					; size = 4
__Format$ = 16						; size = 4
__Locale$ = 20						; size = 4
__ArgList$ = 24						; size = 4
__vsnprintf_l PROC					; COMDAT

; 1389 :     {

  00000	55		 push	 ebp
  00001	8b ec		 mov	 ebp, esp
  00003	83 ec 48	 sub	 esp, 72			; 00000048H
  00006	53		 push	 ebx
  00007	56		 push	 esi
  00008	57		 push	 edi

; 1390 :         int const _Result = __stdio_common_vsprintf(

  00009	8b 45 18	 mov	 eax, DWORD PTR __ArgList$[ebp]
  0000c	50		 push	 eax
  0000d	8b 4d 14	 mov	 ecx, DWORD PTR __Locale$[ebp]
  00010	51		 push	 ecx
  00011	8b 55 10	 mov	 edx, DWORD PTR __Format$[ebp]
  00014	52		 push	 edx
  00015	8b 45 0c	 mov	 eax, DWORD PTR __BufferCount$[ebp]
  00018	50		 push	 eax
  00019	8b 4d 08	 mov	 ecx, DWORD PTR __Buffer$[ebp]
  0001c	51		 push	 ecx
  0001d	e8 00 00 00 00	 call	 ___local_stdio_printf_options
  00022	8b 10		 mov	 edx, DWORD PTR [eax]
  00024	83 ca 01	 or	 edx, 1
  00027	8b 40 04	 mov	 eax, DWORD PTR [eax+4]
  0002a	50		 push	 eax
  0002b	52		 push	 edx
  0002c	ff 15 00 00 00
	00		 call	 DWORD PTR __imp____stdio_common_vsprintf
  00032	83 c4 1c	 add	 esp, 28			; 0000001cH
  00035	89 45 fc	 mov	 DWORD PTR __Result$[ebp], eax

; 1391 :             _CRT_INTERNAL_LOCAL_PRINTF_OPTIONS | _CRT_INTERNAL_PRINTF_LEGACY_VSPRINTF_NULL_TERMINATION,
; 1392 :             _Buffer, _BufferCount, _Format, _Locale, _ArgList);
; 1393 : 
; 1394 :         return _Result < 0 ? -1 : _Result;

  00038	83 7d fc 00	 cmp	 DWORD PTR __Result$[ebp], 0
  0003c	7d 09		 jge	 SHORT $LN3@vsnprintf_
  0003e	c7 45 b8 ff ff
	ff ff		 mov	 DWORD PTR tv74[ebp], -1
  00045	eb 06		 jmp	 SHORT $LN4@vsnprintf_
$LN3@vsnprintf_:
  00047	8b 45 fc	 mov	 eax, DWORD PTR __Result$[ebp]
  0004a	89 45 b8	 mov	 DWORD PTR tv74[ebp], eax
$LN4@vsnprintf_:
  0004d	8b 45 b8	 mov	 eax, DWORD PTR tv74[ebp]

; 1395 :     }

  00050	5f		 pop	 edi
  00051	5e		 pop	 esi
  00052	5b		 pop	 ebx
  00053	8b e5		 mov	 esp, ebp
  00055	5d		 pop	 ebp
  00056	c3		 ret	 0
__vsnprintf_l ENDP
_TEXT	ENDS
; Function compile flags: /Odtp /ZI
; File c:\program files (x86)\windows kits\10\include\10.0.18362.0\ucrt\corecrt_stdio_config.h
;	COMDAT ___local_stdio_printf_options
_TEXT	SEGMENT
___local_stdio_printf_options PROC			; COMDAT

; 86   :     {

  00000	55		 push	 ebp
  00001	8b ec		 mov	 ebp, esp
  00003	83 ec 40	 sub	 esp, 64			; 00000040H
  00006	53		 push	 ebx
  00007	56		 push	 esi
  00008	57		 push	 edi

; 87   :         static unsigned __int64 _OptionsStorage;
; 88   :         return &_OptionsStorage;

  00009	b8 00 00 00 00	 mov	 eax, OFFSET ?_OptionsStorage@?1??__local_stdio_printf_options@@9@4_KA ; `__local_stdio_printf_options'::`2'::_OptionsStorage

; 89   :     }

  0000e	5f		 pop	 edi
  0000f	5e		 pop	 esi
  00010	5b		 pop	 ebx
  00011	8b e5		 mov	 esp, ebp
  00013	5d		 pop	 ebp
  00014	c3		 ret	 0
___local_stdio_printf_options ENDP
_TEXT	ENDS
END
