; Listing generated by Microsoft (R) Optimizing Compiler Version 19.16.27045.0 

	TITLE	C:\Users\nhv90\Projects\eech\aphavoc\source\entity\mobile\vehicle\person\ps_dstry.c
	.686P
	.XMM
	include listing.inc
	.model	flat

INCLUDELIB MSVCRTD
INCLUDELIB OLDNAMES

PUBLIC	?overload_person_destroy_functions@@YGXXZ	; overload_person_destroy_functions
PUBLIC	?__LINE__Var@?0??destroy_local@@YGXPAUENTITY@@@Z@4JA ; `destroy_local'::`1'::__LINE__Var
PUBLIC	??_C@_0FE@LLMAPGIJ@c?3?2users?2nhv90?2projects?2eech?2ap@ ; `string'
PUBLIC	?__LINE__Var@?0??destroy_server@@YGXPAUENTITY@@@Z@4JA ; `destroy_server'::`1'::__LINE__Var
PUBLIC	??_C@_0CC@BNNNEGEG@assert_client_server_remote_fn?5@ ; `string'
PUBLIC	??_C@_0CB@CFOCLFOK@assert_client_server_local_fn?5?$CI@ ; `string'
PUBLIC	?__LINE__Var@?0??destroy_client@@YGXPAUENTITY@@@Z@4JA ; `destroy_client'::`1'::__LINE__Var
PUBLIC	?__LINE__Var@?0??destroy_server_family@@YGXPAUENTITY@@@Z@4JA ; `destroy_server_family'::`1'::__LINE__Var
PUBLIC	?__LINE__Var@?0??kill_local@@YGXPAUENTITY@@@Z@4JA ; `kill_local'::`1'::__LINE__Var
PUBLIC	??_C@_05MGJOOGAJ@group@				; `string'
PUBLIC	?__LINE__Var@?0??kill_server@@YGXPAUENTITY@@@Z@4JA ; `kill_server'::`1'::__LINE__Var
PUBLIC	?__LINE__Var@?0??kill_client@@YGXPAUENTITY@@@Z@4JA ; `kill_client'::`1'::__LINE__Var
EXTRN	?process_assert@@YGXPBD0H@Z:PROC		; process_assert
EXTRN	?free_mem@@YGXPAX@Z:PROC			; free_mem
EXTRN	?destruct_3d_object@@YGXPAUOBJECT_3D_INSTANCE@@@Z:PROC ; destruct_3d_object
EXTRN	?destroy_system_sound_effect@@YGXPAUSYSTEM_SOUND_EFFECT@@@Z:PROC ; destroy_system_sound_effect
EXTRN	?notify_local_entity@@YAHW4ENTITY_MESSAGES@@PAUENTITY@@1ZZ:PROC ; notify_local_entity
EXTRN	?delete_local_entity_from_parents_child_list@@YGXPAUENTITY@@W4LIST_TYPES@@@Z:PROC ; delete_local_entity_from_parents_child_list
EXTRN	?unlink_local_entity_children@@YGXPAUENTITY@@W4LIST_TYPES@@@Z:PROC ; unlink_local_entity_children
EXTRN	?destroy_local_entity@@YGXPAUENTITY@@@Z:PROC	; destroy_local_entity
EXTRN	?destroy_local_entity_children@@YGXPAUENTITY@@W4LIST_TYPES@@@Z:PROC ; destroy_local_entity_children
EXTRN	?destroy_client_server_entity_children@@YGXPAUENTITY@@W4LIST_TYPES@@@Z:PROC ; destroy_client_server_entity_children
EXTRN	?transmit_entity_comms_message@@YAXW4ENTITY_COMMS_MESSAGES@@PAUENTITY@@ZZ:PROC ; transmit_entity_comms_message
EXTRN	?assert_client_server_local_fn@@YGHXZ:PROC	; assert_client_server_local_fn
EXTRN	?assert_client_server_remote_fn@@YGHXZ:PROC	; assert_client_server_remote_fn
EXTRN	?set_free_entity@@YGXPAUENTITY@@@Z:PROC		; set_free_entity
EXTRN	?damage_person_3d_object@@YGXPAUENTITY@@@Z:PROC	; damage_person_3d_object
EXTRN	?calculate_mobile_death_timer_value@@YGMPAUENTITY@@@Z:PROC ; calculate_mobile_death_timer_value
EXTRN	?create_client_server_object_killed_explosion_effect@@YGXPAUENTITY@@@Z:PROC ; create_client_server_object_killed_explosion_effect
EXTRN	?kill_local_entity_sound_type@@YGXPAUENTITY@@H@Z:PROC ; kill_local_entity_sound_type
EXTRN	?destroy_local_sound_effects@@YGXPAUENTITY@@@Z:PROC ; destroy_local_sound_effects
EXTRN	?destroy_client_server_sound_effects@@YGXPAUENTITY@@@Z:PROC ; destroy_client_server_sound_effects
EXTRN	?remove_mobile_values_from_sector@@YGXPAUENTITY@@0@Z:PROC ; remove_mobile_values_from_sector
EXTRN	?notify_campaign_screen@@YGHW4CAMPAIGN_SCREEN_MESSAGES@@PAUENTITY@@@Z:PROC ; notify_campaign_screen
EXTRN	?null_entity_pointer_message@@3PBDB:DWORD	; null_entity_pointer_message
EXTRN	?system_comms_model@@3W4COMMS_MODEL_TYPES@@A:DWORD ; system_comms_model
EXTRN	?system_comms_data_flow@@3W4COMMS_DATA_FLOW_TYPES@@A:DWORD ; system_comms_data_flow
EXTRN	?overload_invalid_list_type_message@@3PBDB:DWORD ; overload_invalid_list_type_message
EXTRN	?fn_get_local_entity_first_child@@3PAY0CN@P6GPAUENTITY@@PAU1@W4LIST_TYPES@@@ZA:BYTE ; fn_get_local_entity_first_child
EXTRN	?fn_get_local_entity_parent@@3PAY0CN@P6GPAUENTITY@@PAU1@W4LIST_TYPES@@@ZA:BYTE ; fn_get_local_entity_parent
EXTRN	?fn_get_local_entity_child_succ@@3PAY0CN@P6GPAUENTITY@@PAU1@W4LIST_TYPES@@@ZA:BYTE ; fn_get_local_entity_child_succ
EXTRN	?fn_destroy_local_entity@@3PAP6GXPAUENTITY@@@ZA:BYTE ; fn_destroy_local_entity
EXTRN	?fn_destroy_client_server_entity@@3PAY01P6GXPAUENTITY@@@ZA:BYTE ; fn_destroy_client_server_entity
EXTRN	?fn_destroy_local_entity_family@@3PAP6GXPAUENTITY@@@ZA:BYTE ; fn_destroy_local_entity_family
EXTRN	?fn_destroy_client_server_entity_family@@3PAY01P6GXPAUENTITY@@@ZA:BYTE ; fn_destroy_client_server_entity_family
EXTRN	?fn_kill_local_entity@@3PAP6GXPAUENTITY@@@ZA:BYTE ; fn_kill_local_entity
EXTRN	?fn_kill_client_server_entity@@3PAY01P6GXPAUENTITY@@@ZA:BYTE ; fn_kill_client_server_entity
EXTRN	?overload_invalid_float_type_message@@3PBDB:DWORD ; overload_invalid_float_type_message
EXTRN	?fn_set_local_entity_float_value@@3PAY0KP@P6GXPAUENTITY@@W4FLOAT_TYPES@@M@ZA:BYTE ; fn_set_local_entity_float_value
EXTRN	?overload_invalid_int_type_message@@3PBDB:DWORD	; overload_invalid_int_type_message
EXTRN	?fn_set_local_entity_int_value@@3PAY0BBH@P6GXPAUENTITY@@W4INT_TYPES@@H@ZA:BYTE ; fn_set_local_entity_int_value
EXTRN	?fn_get_local_entity_int_value@@3PAY0BBH@P6GHPAUENTITY@@W4INT_TYPES@@@ZA:BYTE ; fn_get_local_entity_int_value
EXTRN	__fltused:DWORD
;	COMDAT ?__LINE__Var@?0??kill_client@@YGXPAUENTITY@@@Z@4JA
_DATA	SEGMENT
?__LINE__Var@?0??kill_client@@YGXPAUENTITY@@@Z@4JA DD 0213H ; `kill_client'::`1'::__LINE__Var
_DATA	ENDS
;	COMDAT ?__LINE__Var@?0??kill_server@@YGXPAUENTITY@@@Z@4JA
_DATA	SEGMENT
?__LINE__Var@?0??kill_server@@YGXPAUENTITY@@@Z@4JA DD 01fcH ; `kill_server'::`1'::__LINE__Var
_DATA	ENDS
;	COMDAT ??_C@_05MGJOOGAJ@group@
CONST	SEGMENT
??_C@_05MGJOOGAJ@group@ DB 'group', 00H			; `string'
CONST	ENDS
;	COMDAT ?__LINE__Var@?0??kill_local@@YGXPAUENTITY@@@Z@4JA
_DATA	SEGMENT
?__LINE__Var@?0??kill_local@@YGXPAUENTITY@@@Z@4JA DD 0126H ; `kill_local'::`1'::__LINE__Var
_DATA	ENDS
;	COMDAT ?__LINE__Var@?0??destroy_server_family@@YGXPAUENTITY@@@Z@4JA
_DATA	SEGMENT
?__LINE__Var@?0??destroy_server_family@@YGXPAUENTITY@@@Z@4JA DD 0108H ; `destroy_server_family'::`1'::__LINE__Var
_DATA	ENDS
;	COMDAT ?__LINE__Var@?0??destroy_client@@YGXPAUENTITY@@@Z@4JA
_DATA	SEGMENT
?__LINE__Var@?0??destroy_client@@YGXPAUENTITY@@@Z@4JA DD 0e1H ; `destroy_client'::`1'::__LINE__Var
_DATA	ENDS
;	COMDAT ??_C@_0CB@CFOCLFOK@assert_client_server_local_fn?5?$CI@
CONST	SEGMENT
??_C@_0CB@CFOCLFOK@assert_client_server_local_fn?5?$CI@ DB 'assert_client'
	DB	'_server_local_fn ()', 00H			; `string'
CONST	ENDS
;	COMDAT ??_C@_0CC@BNNNEGEG@assert_client_server_remote_fn?5@
CONST	SEGMENT
??_C@_0CC@BNNNEGEG@assert_client_server_remote_fn?5@ DB 'assert_client_se'
	DB	'rver_remote_fn ()', 00H			; `string'
CONST	ENDS
;	COMDAT ?__LINE__Var@?0??destroy_server@@YGXPAUENTITY@@@Z@4JA
_DATA	SEGMENT
?__LINE__Var@?0??destroy_server@@YGXPAUENTITY@@@Z@4JA DD 0caH ; `destroy_server'::`1'::__LINE__Var
_DATA	ENDS
;	COMDAT ??_C@_0FE@LLMAPGIJ@c?3?2users?2nhv90?2projects?2eech?2ap@
CONST	SEGMENT
??_C@_0FE@LLMAPGIJ@c?3?2users?2nhv90?2projects?2eech?2ap@ DB 'c:\users\nh'
	DB	'v90\projects\eech\aphavoc\source\entity\mobile\vehicle\person'
	DB	'\ps_dstry.c', 00H				; `string'
CONST	ENDS
;	COMDAT ?__LINE__Var@?0??destroy_local@@YGXPAUENTITY@@@Z@4JA
_DATA	SEGMENT
?__LINE__Var@?0??destroy_local@@YGXPAUENTITY@@@Z@4JA DD 052H ; `destroy_local'::`1'::__LINE__Var
_DATA	ENDS
; Function compile flags: /Odtp /ZI
; File c:\users\nhv90\projects\eech\aphavoc\source\entity\mobile\vehicle\person\ps_dstry.c
;	COMDAT ?kill_client@@YGXPAUENTITY@@@Z
_TEXT	SEGMENT
tv84 = -68						; size = 4
_en$ = 8						; size = 4
?kill_client@@YGXPAUENTITY@@@Z PROC			; kill_client, COMDAT

; 531  : {

  00000	55		 push	 ebp
  00001	8b ec		 mov	 ebp, esp
  00003	83 ec 44	 sub	 esp, 68			; 00000044H
  00006	53		 push	 ebx
  00007	56		 push	 esi
  00008	57		 push	 edi

; 532  : 	if (get_comms_data_flow () == COMMS_DATA_FLOW_TX)

  00009	83 3d 00 00 00
	00 00		 cmp	 DWORD PTR ?system_comms_data_flow@@3W4COMMS_DATA_FLOW_TYPES@@A, 0 ; system_comms_data_flow
  00010	75 2c		 jne	 SHORT $LN2@kill_clien

; 533  : 	{
; 534  : 		validate_client_server_remote_fn ();

  00012	e8 00 00 00 00	 call	 ?assert_client_server_remote_fn@@YGHXZ ; assert_client_server_remote_fn
  00017	85 c0		 test	 eax, eax
  00019	75 18		 jne	 SHORT $LN4@kill_clien
  0001b	a1 00 00 00 00	 mov	 eax, DWORD PTR ?__LINE__Var@?0??kill_client@@YGXPAUENTITY@@@Z@4JA
  00020	83 c0 03	 add	 eax, 3
  00023	50		 push	 eax
  00024	68 00 00 00 00	 push	 OFFSET ??_C@_0FE@LLMAPGIJ@c?3?2users?2nhv90?2projects?2eech?2ap@
  00029	68 00 00 00 00	 push	 OFFSET ??_C@_0CC@BNNNEGEG@assert_client_server_remote_fn?5@
  0002e	e8 00 00 00 00	 call	 ?process_assert@@YGXPBD0H@Z ; process_assert
$LN4@kill_clien:

; 535  : 
; 536  : 		kill_remote (en);

  00033	8b 45 08	 mov	 eax, DWORD PTR _en$[ebp]
  00036	50		 push	 eax
  00037	e8 00 00 00 00	 call	 ?kill_remote@@YGXPAUENTITY@@@Z ; kill_remote

; 537  : 	}
; 538  : 	else

  0003c	eb 62		 jmp	 SHORT $LN1@kill_clien
$LN2@kill_clien:

; 539  : 	{
; 540  : 		validate_client_server_local_fn ();

  0003e	e8 00 00 00 00	 call	 ?assert_client_server_local_fn@@YGHXZ ; assert_client_server_local_fn
  00043	85 c0		 test	 eax, eax
  00045	75 18		 jne	 SHORT $LN5@kill_clien
  00047	a1 00 00 00 00	 mov	 eax, DWORD PTR ?__LINE__Var@?0??kill_client@@YGXPAUENTITY@@@Z@4JA
  0004c	83 c0 09	 add	 eax, 9
  0004f	50		 push	 eax
  00050	68 00 00 00 00	 push	 OFFSET ??_C@_0FE@LLMAPGIJ@c?3?2users?2nhv90?2projects?2eech?2ap@
  00055	68 00 00 00 00	 push	 OFFSET ??_C@_0CB@CFOCLFOK@assert_client_server_local_fn?5?$CI@
  0005a	e8 00 00 00 00	 call	 ?process_assert@@YGXPBD0H@Z ; process_assert
$LN5@kill_clien:

; 541  : 
; 542  : 		//
; 543  : 		// kill local using 'full' function
; 544  : 		//
; 545  : 
; 546  : 		kill_local_entity (en);

  0005f	83 7d 08 00	 cmp	 DWORD PTR _en$[ebp], 0
  00063	74 0a		 je	 SHORT $LN7@kill_clien
  00065	8b 45 08	 mov	 eax, DWORD PTR _en$[ebp]
  00068	8b 08		 mov	 ecx, DWORD PTR [eax]
  0006a	89 4d bc	 mov	 DWORD PTR tv84[ebp], ecx
  0006d	eb 21		 jmp	 SHORT $LN8@kill_clien
$LN7@kill_clien:
  0006f	8b 15 00 00 00
	00		 mov	 edx, DWORD PTR ?__LINE__Var@?0??kill_client@@YGXPAUENTITY@@@Z@4JA
  00075	83 c2 0f	 add	 edx, 15			; 0000000fH
  00078	52		 push	 edx
  00079	68 00 00 00 00	 push	 OFFSET ??_C@_0FE@LLMAPGIJ@c?3?2users?2nhv90?2projects?2eech?2ap@
  0007e	a1 00 00 00 00	 mov	 eax, DWORD PTR ?null_entity_pointer_message@@3PBDB ; null_entity_pointer_message
  00083	50		 push	 eax
  00084	e8 00 00 00 00	 call	 ?process_assert@@YGXPBD0H@Z ; process_assert
  00089	c7 45 bc 00 00
	00 00		 mov	 DWORD PTR tv84[ebp], 0
$LN8@kill_clien:
  00090	8b 4d 08	 mov	 ecx, DWORD PTR _en$[ebp]
  00093	51		 push	 ecx
  00094	8b 55 bc	 mov	 edx, DWORD PTR tv84[ebp]
  00097	8b 04 95 00 00
	00 00		 mov	 eax, DWORD PTR ?fn_kill_local_entity@@3PAP6GXPAUENTITY@@@ZA[edx*4]
  0009e	ff d0		 call	 eax
$LN1@kill_clien:

; 547  : 	}
; 548  : }

  000a0	5f		 pop	 edi
  000a1	5e		 pop	 esi
  000a2	5b		 pop	 ebx
  000a3	8b e5		 mov	 esp, ebp
  000a5	5d		 pop	 ebp
  000a6	c2 04 00	 ret	 4
?kill_client@@YGXPAUENTITY@@@Z ENDP			; kill_client
_TEXT	ENDS
; Function compile flags: /Odtp /ZI
; File c:\users\nhv90\projects\eech\aphavoc\source\entity\mobile\vehicle\person\ps_dstry.c
;	COMDAT ?kill_server@@YGXPAUENTITY@@@Z
_TEXT	SEGMENT
tv83 = -68						; size = 4
_en$ = 8						; size = 4
?kill_server@@YGXPAUENTITY@@@Z PROC			; kill_server, COMDAT

; 508  : {

  00000	55		 push	 ebp
  00001	8b ec		 mov	 ebp, esp
  00003	83 ec 44	 sub	 esp, 68			; 00000044H
  00006	53		 push	 ebx
  00007	56		 push	 esi
  00008	57		 push	 edi

; 509  : 	//
; 510  : 	// kill remote entity first (keeping local entity valid)
; 511  : 	//
; 512  : 
; 513  : 	validate_client_server_remote_fn ();

  00009	e8 00 00 00 00	 call	 ?assert_client_server_remote_fn@@YGHXZ ; assert_client_server_remote_fn
  0000e	85 c0		 test	 eax, eax
  00010	75 18		 jne	 SHORT $LN2@kill_serve
  00012	a1 00 00 00 00	 mov	 eax, DWORD PTR ?__LINE__Var@?0??kill_server@@YGXPAUENTITY@@@Z@4JA
  00017	83 c0 05	 add	 eax, 5
  0001a	50		 push	 eax
  0001b	68 00 00 00 00	 push	 OFFSET ??_C@_0FE@LLMAPGIJ@c?3?2users?2nhv90?2projects?2eech?2ap@
  00020	68 00 00 00 00	 push	 OFFSET ??_C@_0CC@BNNNEGEG@assert_client_server_remote_fn?5@
  00025	e8 00 00 00 00	 call	 ?process_assert@@YGXPBD0H@Z ; process_assert
$LN2@kill_serve:

; 514  : 
; 515  : 	kill_remote (en);

  0002a	8b 45 08	 mov	 eax, DWORD PTR _en$[ebp]
  0002d	50		 push	 eax
  0002e	e8 00 00 00 00	 call	 ?kill_remote@@YGXPAUENTITY@@@Z ; kill_remote

; 516  : 
; 517  : 	validate_client_server_local_fn ();

  00033	e8 00 00 00 00	 call	 ?assert_client_server_local_fn@@YGHXZ ; assert_client_server_local_fn
  00038	85 c0		 test	 eax, eax
  0003a	75 18		 jne	 SHORT $LN3@kill_serve
  0003c	a1 00 00 00 00	 mov	 eax, DWORD PTR ?__LINE__Var@?0??kill_server@@YGXPAUENTITY@@@Z@4JA
  00041	83 c0 09	 add	 eax, 9
  00044	50		 push	 eax
  00045	68 00 00 00 00	 push	 OFFSET ??_C@_0FE@LLMAPGIJ@c?3?2users?2nhv90?2projects?2eech?2ap@
  0004a	68 00 00 00 00	 push	 OFFSET ??_C@_0CB@CFOCLFOK@assert_client_server_local_fn?5?$CI@
  0004f	e8 00 00 00 00	 call	 ?process_assert@@YGXPBD0H@Z ; process_assert
$LN3@kill_serve:

; 518  : 
; 519  : 	//
; 520  : 	// kill local using 'full' function
; 521  : 	//
; 522  : 
; 523  : 	kill_local_entity (en);

  00054	83 7d 08 00	 cmp	 DWORD PTR _en$[ebp], 0
  00058	74 0a		 je	 SHORT $LN5@kill_serve
  0005a	8b 45 08	 mov	 eax, DWORD PTR _en$[ebp]
  0005d	8b 08		 mov	 ecx, DWORD PTR [eax]
  0005f	89 4d bc	 mov	 DWORD PTR tv83[ebp], ecx
  00062	eb 21		 jmp	 SHORT $LN6@kill_serve
$LN5@kill_serve:
  00064	8b 15 00 00 00
	00		 mov	 edx, DWORD PTR ?__LINE__Var@?0??kill_server@@YGXPAUENTITY@@@Z@4JA
  0006a	83 c2 0f	 add	 edx, 15			; 0000000fH
  0006d	52		 push	 edx
  0006e	68 00 00 00 00	 push	 OFFSET ??_C@_0FE@LLMAPGIJ@c?3?2users?2nhv90?2projects?2eech?2ap@
  00073	a1 00 00 00 00	 mov	 eax, DWORD PTR ?null_entity_pointer_message@@3PBDB ; null_entity_pointer_message
  00078	50		 push	 eax
  00079	e8 00 00 00 00	 call	 ?process_assert@@YGXPBD0H@Z ; process_assert
  0007e	c7 45 bc 00 00
	00 00		 mov	 DWORD PTR tv83[ebp], 0
$LN6@kill_serve:
  00085	8b 4d 08	 mov	 ecx, DWORD PTR _en$[ebp]
  00088	51		 push	 ecx
  00089	8b 55 bc	 mov	 edx, DWORD PTR tv83[ebp]
  0008c	8b 04 95 00 00
	00 00		 mov	 eax, DWORD PTR ?fn_kill_local_entity@@3PAP6GXPAUENTITY@@@ZA[edx*4]
  00093	ff d0		 call	 eax

; 524  : }

  00095	5f		 pop	 edi
  00096	5e		 pop	 esi
  00097	5b		 pop	 ebx
  00098	8b e5		 mov	 esp, ebp
  0009a	5d		 pop	 ebp
  0009b	c2 04 00	 ret	 4
?kill_server@@YGXPAUENTITY@@@Z ENDP			; kill_server
_TEXT	ENDS
; Function compile flags: /Odtp /ZI
; File c:\users\nhv90\projects\eech\aphavoc\source\entity\mobile\vehicle\person\ps_dstry.c
;	COMDAT ?kill_remote@@YGXPAUENTITY@@@Z
_TEXT	SEGMENT
_en$ = 8						; size = 4
?kill_remote@@YGXPAUENTITY@@@Z PROC			; kill_remote, COMDAT

; 493  : {

  00000	55		 push	 ebp
  00001	8b ec		 mov	 ebp, esp
  00003	83 ec 40	 sub	 esp, 64			; 00000040H
  00006	53		 push	 ebx
  00007	56		 push	 esi
  00008	57		 push	 edi

; 494  : 	#if DEBUG_MODULE >= 2
; 495  : 
; 496  : 	debug_log_entity_args (ENTITY_DEBUG_REMOTE, ENTITY_DEBUG_kill, en);
; 497  : 
; 498  : 	#endif
; 499  : 
; 500  : 	transmit_entity_comms_message (ENTITY_COMMS_KILL, en);

  00009	8b 45 08	 mov	 eax, DWORD PTR _en$[ebp]
  0000c	50		 push	 eax
  0000d	6a 18		 push	 24			; 00000018H
  0000f	e8 00 00 00 00	 call	 ?transmit_entity_comms_message@@YAXW4ENTITY_COMMS_MESSAGES@@PAUENTITY@@ZZ ; transmit_entity_comms_message
  00014	83 c4 08	 add	 esp, 8

; 501  : }

  00017	5f		 pop	 edi
  00018	5e		 pop	 esi
  00019	5b		 pop	 ebx
  0001a	8b e5		 mov	 esp, ebp
  0001c	5d		 pop	 ebp
  0001d	c2 04 00	 ret	 4
?kill_remote@@YGXPAUENTITY@@@Z ENDP			; kill_remote
_TEXT	ENDS
; Function compile flags: /Odtp /ZI
; File c:\users\nhv90\projects\eech\aphavoc\source\entity\mobile\vehicle\person\ps_dstry.c
;	COMDAT ?kill_local@@YGXPAUENTITY@@@Z
_TEXT	SEGMENT
tv477 = -96						; size = 4
tv335 = -92						; size = 4
tv309 = -92						; size = 4
tv261 = -92						; size = 4
tv240 = -92						; size = 4
tv219 = -92						; size = 4
tv198 = -92						; size = 4
tv173 = -92						; size = 4
tv152 = -92						; size = 4
tv131 = -92						; size = 4
tv76 = -92						; size = 4
tv327 = -88						; size = 4
tv301 = -88						; size = 4
tv272 = -88						; size = 4
tv253 = -88						; size = 4
tv232 = -88						; size = 4
tv211 = -88						; size = 4
tv190 = -88						; size = 4
tv165 = -88						; size = 4
tv144 = -88						; size = 4
tv91 = -88						; size = 4
tv69 = -88						; size = 4
_group$ = -20						; size = 4
_destroy_task$ = -16					; size = 4
_task$ = -12						; size = 4
_losses$ = -8						; size = 4
_raw$ = -4						; size = 4
_en$ = 8						; size = 4
?kill_local@@YGXPAUENTITY@@@Z PROC			; kill_local, COMDAT

; 294  : {

  00000	55		 push	 ebp
  00001	8b ec		 mov	 ebp, esp
  00003	83 ec 60	 sub	 esp, 96			; 00000060H
  00006	53		 push	 ebx
  00007	56		 push	 esi
  00008	57		 push	 edi

; 295  : 
; 296  : 	person
; 297  : 		*raw;
; 298  : 
; 299  : 	int
; 300  : 		losses;
; 301  : 
; 302  : 	entity
; 303  : 		*task,
; 304  : 		*destroy_task,
; 305  : 		*group;
; 306  : 
; 307  : 	////////////////////////////////////////
; 308  : 	//
; 309  : 	// PRE-AMBLE
; 310  : 	//
; 311  : 	////////////////////////////////////////
; 312  : 
; 313  : 	#if DEBUG_MODULE >= 2
; 314  : 
; 315  : 	debug_log_entity_args (ENTITY_DEBUG_LOCAL, ENTITY_DEBUG_KILL, en);
; 316  : 
; 317  : 	#endif
; 318  : 
; 319  : 	if (!get_local_entity_int_value (en, INT_TYPE_ALIVE))

  00009	83 7d 08 00	 cmp	 DWORD PTR _en$[ebp], 0
  0000d	74 0a		 je	 SHORT $LN11@kill_local
  0000f	8b 45 08	 mov	 eax, DWORD PTR _en$[ebp]
  00012	8b 08		 mov	 ecx, DWORD PTR [eax]
  00014	89 4d a8	 mov	 DWORD PTR tv69[ebp], ecx
  00017	eb 1d		 jmp	 SHORT $LN12@kill_local
$LN11@kill_local:
  00019	68 3f 01 00 00	 push	 319			; 0000013fH
  0001e	68 00 00 00 00	 push	 OFFSET ??_C@_0FE@LLMAPGIJ@c?3?2users?2nhv90?2projects?2eech?2ap@
  00023	8b 15 00 00 00
	00		 mov	 edx, DWORD PTR ?null_entity_pointer_message@@3PBDB ; null_entity_pointer_message
  00029	52		 push	 edx
  0002a	e8 00 00 00 00	 call	 ?process_assert@@YGXPBD0H@Z ; process_assert
  0002f	c7 45 a8 00 00
	00 00		 mov	 DWORD PTR tv69[ebp], 0
$LN12@kill_local:
  00036	b8 01 00 00 00	 mov	 eax, 1
  0003b	85 c0		 test	 eax, eax
  0003d	74 09		 je	 SHORT $LN13@kill_local
  0003f	c7 45 a4 07 00
	00 00		 mov	 DWORD PTR tv76[ebp], 7
  00046	eb 1d		 jmp	 SHORT $LN14@kill_local
$LN13@kill_local:
  00048	68 3f 01 00 00	 push	 319			; 0000013fH
  0004d	68 00 00 00 00	 push	 OFFSET ??_C@_0FE@LLMAPGIJ@c?3?2users?2nhv90?2projects?2eech?2ap@
  00052	8b 0d 00 00 00
	00		 mov	 ecx, DWORD PTR ?overload_invalid_int_type_message@@3PBDB ; overload_invalid_int_type_message
  00058	51		 push	 ecx
  00059	e8 00 00 00 00	 call	 ?process_assert@@YGXPBD0H@Z ; process_assert
  0005e	c7 45 a4 00 00
	00 00		 mov	 DWORD PTR tv76[ebp], 0
$LN14@kill_local:
  00065	6a 07		 push	 7
  00067	8b 55 08	 mov	 edx, DWORD PTR _en$[ebp]
  0006a	52		 push	 edx
  0006b	69 45 a8 5c 04
	00 00		 imul	 eax, DWORD PTR tv69[ebp], 1116
  00072	8b 4d a4	 mov	 ecx, DWORD PTR tv76[ebp]
  00075	8b 94 88 00 00
	00 00		 mov	 edx, DWORD PTR ?fn_get_local_entity_int_value@@3PAY0BBH@P6GHPAUENTITY@@W4INT_TYPES@@@ZA[eax+ecx*4]
  0007c	ff d2		 call	 edx
  0007e	85 c0		 test	 eax, eax
  00080	75 05		 jne	 SHORT $LN4@kill_local

; 320  : 	{
; 321  : 		return;

  00082	e9 e4 05 00 00	 jmp	 $LN1@kill_local
$LN4@kill_local:

; 322  : 	}
; 323  : 
; 324  : 	raw = (person *) get_local_entity_data (en);

  00087	8b 45 08	 mov	 eax, DWORD PTR _en$[ebp]
  0008a	8b 48 04	 mov	 ecx, DWORD PTR [eax+4]
  0008d	89 4d fc	 mov	 DWORD PTR _raw$[ebp], ecx

; 325  : 
; 326  : 	////////////////////////////////////////
; 327  : 	//
; 328  : 	// VALIDATE
; 329  : 	//
; 330  : 	////////////////////////////////////////
; 331  : 
; 332  : 	////////////////////////////////////////
; 333  : 	//
; 334  : 	// KILL
; 335  : 	//
; 336  : 	////////////////////////////////////////
; 337  : 
; 338  : 	// must be done before alive flag set to FALSE
; 339  : 	remove_mobile_values_from_sector (get_local_entity_parent (en, LIST_TYPE_SECTOR), en);

  00090	83 7d 08 00	 cmp	 DWORD PTR _en$[ebp], 0
  00094	74 0a		 je	 SHORT $LN15@kill_local
  00096	8b 45 08	 mov	 eax, DWORD PTR _en$[ebp]
  00099	8b 08		 mov	 ecx, DWORD PTR [eax]
  0009b	89 4d a8	 mov	 DWORD PTR tv91[ebp], ecx
  0009e	eb 21		 jmp	 SHORT $LN16@kill_local
$LN15@kill_local:
  000a0	8b 15 00 00 00
	00		 mov	 edx, DWORD PTR ?__LINE__Var@?0??kill_local@@YGXPAUENTITY@@@Z@4JA
  000a6	83 c2 2d	 add	 edx, 45			; 0000002dH
  000a9	52		 push	 edx
  000aa	68 00 00 00 00	 push	 OFFSET ??_C@_0FE@LLMAPGIJ@c?3?2users?2nhv90?2projects?2eech?2ap@
  000af	a1 00 00 00 00	 mov	 eax, DWORD PTR ?null_entity_pointer_message@@3PBDB ; null_entity_pointer_message
  000b4	50		 push	 eax
  000b5	e8 00 00 00 00	 call	 ?process_assert@@YGXPBD0H@Z ; process_assert
  000ba	c7 45 a8 00 00
	00 00		 mov	 DWORD PTR tv91[ebp], 0
$LN16@kill_local:
  000c1	b9 01 00 00 00	 mov	 ecx, 1
  000c6	85 c9		 test	 ecx, ecx
  000c8	74 09		 je	 SHORT $LN17@kill_local
  000ca	c7 45 a4 21 00
	00 00		 mov	 DWORD PTR tv131[ebp], 33 ; 00000021H
  000d1	eb 21		 jmp	 SHORT $LN18@kill_local
$LN17@kill_local:
  000d3	8b 15 00 00 00
	00		 mov	 edx, DWORD PTR ?__LINE__Var@?0??kill_local@@YGXPAUENTITY@@@Z@4JA
  000d9	83 c2 2d	 add	 edx, 45			; 0000002dH
  000dc	52		 push	 edx
  000dd	68 00 00 00 00	 push	 OFFSET ??_C@_0FE@LLMAPGIJ@c?3?2users?2nhv90?2projects?2eech?2ap@
  000e2	a1 00 00 00 00	 mov	 eax, DWORD PTR ?overload_invalid_list_type_message@@3PBDB ; overload_invalid_list_type_message
  000e7	50		 push	 eax
  000e8	e8 00 00 00 00	 call	 ?process_assert@@YGXPBD0H@Z ; process_assert
  000ed	c7 45 a4 00 00
	00 00		 mov	 DWORD PTR tv131[ebp], 0
$LN18@kill_local:
  000f4	8b 4d 08	 mov	 ecx, DWORD PTR _en$[ebp]
  000f7	51		 push	 ecx
  000f8	6a 21		 push	 33			; 00000021H
  000fa	8b 55 08	 mov	 edx, DWORD PTR _en$[ebp]
  000fd	52		 push	 edx
  000fe	69 45 a8 b4 00
	00 00		 imul	 eax, DWORD PTR tv91[ebp], 180
  00105	8b 4d a4	 mov	 ecx, DWORD PTR tv131[ebp]
  00108	8b 94 88 00 00
	00 00		 mov	 edx, DWORD PTR ?fn_get_local_entity_parent@@3PAY0CN@P6GPAUENTITY@@PAU1@W4LIST_TYPES@@@ZA[eax+ecx*4]
  0010f	ff d2		 call	 edx
  00111	50		 push	 eax
  00112	e8 00 00 00 00	 call	 ?remove_mobile_values_from_sector@@YGXPAUENTITY@@0@Z ; remove_mobile_values_from_sector

; 340  : 
; 341  : 	set_local_entity_int_value (en, INT_TYPE_ALIVE, FALSE);

  00117	83 7d 08 00	 cmp	 DWORD PTR _en$[ebp], 0
  0011b	74 0a		 je	 SHORT $LN19@kill_local
  0011d	8b 45 08	 mov	 eax, DWORD PTR _en$[ebp]
  00120	8b 08		 mov	 ecx, DWORD PTR [eax]
  00122	89 4d a8	 mov	 DWORD PTR tv144[ebp], ecx
  00125	eb 21		 jmp	 SHORT $LN20@kill_local
$LN19@kill_local:
  00127	8b 15 00 00 00
	00		 mov	 edx, DWORD PTR ?__LINE__Var@?0??kill_local@@YGXPAUENTITY@@@Z@4JA
  0012d	83 c2 2f	 add	 edx, 47			; 0000002fH
  00130	52		 push	 edx
  00131	68 00 00 00 00	 push	 OFFSET ??_C@_0FE@LLMAPGIJ@c?3?2users?2nhv90?2projects?2eech?2ap@
  00136	a1 00 00 00 00	 mov	 eax, DWORD PTR ?null_entity_pointer_message@@3PBDB ; null_entity_pointer_message
  0013b	50		 push	 eax
  0013c	e8 00 00 00 00	 call	 ?process_assert@@YGXPBD0H@Z ; process_assert
  00141	c7 45 a8 00 00
	00 00		 mov	 DWORD PTR tv144[ebp], 0
$LN20@kill_local:
  00148	b9 01 00 00 00	 mov	 ecx, 1
  0014d	85 c9		 test	 ecx, ecx
  0014f	74 09		 je	 SHORT $LN21@kill_local
  00151	c7 45 a4 07 00
	00 00		 mov	 DWORD PTR tv152[ebp], 7
  00158	eb 21		 jmp	 SHORT $LN22@kill_local
$LN21@kill_local:
  0015a	8b 15 00 00 00
	00		 mov	 edx, DWORD PTR ?__LINE__Var@?0??kill_local@@YGXPAUENTITY@@@Z@4JA
  00160	83 c2 2f	 add	 edx, 47			; 0000002fH
  00163	52		 push	 edx
  00164	68 00 00 00 00	 push	 OFFSET ??_C@_0FE@LLMAPGIJ@c?3?2users?2nhv90?2projects?2eech?2ap@
  00169	a1 00 00 00 00	 mov	 eax, DWORD PTR ?overload_invalid_int_type_message@@3PBDB ; overload_invalid_int_type_message
  0016e	50		 push	 eax
  0016f	e8 00 00 00 00	 call	 ?process_assert@@YGXPBD0H@Z ; process_assert
  00174	c7 45 a4 00 00
	00 00		 mov	 DWORD PTR tv152[ebp], 0
$LN22@kill_local:
  0017b	6a 00		 push	 0
  0017d	6a 07		 push	 7
  0017f	8b 4d 08	 mov	 ecx, DWORD PTR _en$[ebp]
  00182	51		 push	 ecx
  00183	69 55 a8 5c 04
	00 00		 imul	 edx, DWORD PTR tv144[ebp], 1116
  0018a	8b 45 a4	 mov	 eax, DWORD PTR tv152[ebp]
  0018d	8b 8c 82 00 00
	00 00		 mov	 ecx, DWORD PTR ?fn_set_local_entity_int_value@@3PAY0BBH@P6GXPAUENTITY@@W4INT_TYPES@@H@ZA[edx+eax*4]
  00194	ff d1		 call	 ecx

; 342  : 
; 343  : 	// update person object
; 344  : 	damage_person_3d_object (en);

  00196	8b 45 08	 mov	 eax, DWORD PTR _en$[ebp]
  00199	50		 push	 eax
  0019a	e8 00 00 00 00	 call	 ?damage_person_3d_object@@YGXPAUENTITY@@@Z ; damage_person_3d_object

; 345  : 
; 346  : 	group = get_local_entity_parent (en, LIST_TYPE_MEMBER);

  0019f	83 7d 08 00	 cmp	 DWORD PTR _en$[ebp], 0
  001a3	74 0a		 je	 SHORT $LN23@kill_local
  001a5	8b 45 08	 mov	 eax, DWORD PTR _en$[ebp]
  001a8	8b 08		 mov	 ecx, DWORD PTR [eax]
  001aa	89 4d a8	 mov	 DWORD PTR tv165[ebp], ecx
  001ad	eb 21		 jmp	 SHORT $LN24@kill_local
$LN23@kill_local:
  001af	8b 15 00 00 00
	00		 mov	 edx, DWORD PTR ?__LINE__Var@?0??kill_local@@YGXPAUENTITY@@@Z@4JA
  001b5	83 c2 34	 add	 edx, 52			; 00000034H
  001b8	52		 push	 edx
  001b9	68 00 00 00 00	 push	 OFFSET ??_C@_0FE@LLMAPGIJ@c?3?2users?2nhv90?2projects?2eech?2ap@
  001be	a1 00 00 00 00	 mov	 eax, DWORD PTR ?null_entity_pointer_message@@3PBDB ; null_entity_pointer_message
  001c3	50		 push	 eax
  001c4	e8 00 00 00 00	 call	 ?process_assert@@YGXPBD0H@Z ; process_assert
  001c9	c7 45 a8 00 00
	00 00		 mov	 DWORD PTR tv165[ebp], 0
$LN24@kill_local:
  001d0	b9 01 00 00 00	 mov	 ecx, 1
  001d5	85 c9		 test	 ecx, ecx
  001d7	74 09		 je	 SHORT $LN25@kill_local
  001d9	c7 45 a4 19 00
	00 00		 mov	 DWORD PTR tv173[ebp], 25 ; 00000019H
  001e0	eb 21		 jmp	 SHORT $LN26@kill_local
$LN25@kill_local:
  001e2	8b 15 00 00 00
	00		 mov	 edx, DWORD PTR ?__LINE__Var@?0??kill_local@@YGXPAUENTITY@@@Z@4JA
  001e8	83 c2 34	 add	 edx, 52			; 00000034H
  001eb	52		 push	 edx
  001ec	68 00 00 00 00	 push	 OFFSET ??_C@_0FE@LLMAPGIJ@c?3?2users?2nhv90?2projects?2eech?2ap@
  001f1	a1 00 00 00 00	 mov	 eax, DWORD PTR ?overload_invalid_list_type_message@@3PBDB ; overload_invalid_list_type_message
  001f6	50		 push	 eax
  001f7	e8 00 00 00 00	 call	 ?process_assert@@YGXPBD0H@Z ; process_assert
  001fc	c7 45 a4 00 00
	00 00		 mov	 DWORD PTR tv173[ebp], 0
$LN26@kill_local:
  00203	6a 19		 push	 25			; 00000019H
  00205	8b 4d 08	 mov	 ecx, DWORD PTR _en$[ebp]
  00208	51		 push	 ecx
  00209	69 55 a8 b4 00
	00 00		 imul	 edx, DWORD PTR tv165[ebp], 180
  00210	8b 45 a4	 mov	 eax, DWORD PTR tv173[ebp]
  00213	8b 8c 82 00 00
	00 00		 mov	 ecx, DWORD PTR ?fn_get_local_entity_parent@@3PAY0CN@P6GPAUENTITY@@PAU1@W4LIST_TYPES@@@ZA[edx+eax*4]
  0021a	ff d1		 call	 ecx
  0021c	89 45 ec	 mov	 DWORD PTR _group$[ebp], eax

; 347  : 
; 348  : 	ASSERT (group);

  0021f	83 7d ec 00	 cmp	 DWORD PTR _group$[ebp], 0
  00223	75 18		 jne	 SHORT $LN5@kill_local
  00225	a1 00 00 00 00	 mov	 eax, DWORD PTR ?__LINE__Var@?0??kill_local@@YGXPAUENTITY@@@Z@4JA
  0022a	83 c0 36	 add	 eax, 54			; 00000036H
  0022d	50		 push	 eax
  0022e	68 00 00 00 00	 push	 OFFSET ??_C@_0FE@LLMAPGIJ@c?3?2users?2nhv90?2projects?2eech?2ap@
  00233	68 00 00 00 00	 push	 OFFSET ??_C@_05MGJOOGAJ@group@
  00238	e8 00 00 00 00	 call	 ?process_assert@@YGXPBD0H@Z ; process_assert
$LN5@kill_local:

; 349  : 
; 350  : 	//
; 351  : 	// group losses
; 352  : 	//
; 353  : 
; 354  : 	losses = get_local_entity_int_value (group, INT_TYPE_LOSSES);

  0023d	83 7d ec 00	 cmp	 DWORD PTR _group$[ebp], 0
  00241	74 0a		 je	 SHORT $LN27@kill_local
  00243	8b 45 ec	 mov	 eax, DWORD PTR _group$[ebp]
  00246	8b 08		 mov	 ecx, DWORD PTR [eax]
  00248	89 4d a8	 mov	 DWORD PTR tv190[ebp], ecx
  0024b	eb 21		 jmp	 SHORT $LN28@kill_local
$LN27@kill_local:
  0024d	8b 15 00 00 00
	00		 mov	 edx, DWORD PTR ?__LINE__Var@?0??kill_local@@YGXPAUENTITY@@@Z@4JA
  00253	83 c2 3c	 add	 edx, 60			; 0000003cH
  00256	52		 push	 edx
  00257	68 00 00 00 00	 push	 OFFSET ??_C@_0FE@LLMAPGIJ@c?3?2users?2nhv90?2projects?2eech?2ap@
  0025c	a1 00 00 00 00	 mov	 eax, DWORD PTR ?null_entity_pointer_message@@3PBDB ; null_entity_pointer_message
  00261	50		 push	 eax
  00262	e8 00 00 00 00	 call	 ?process_assert@@YGXPBD0H@Z ; process_assert
  00267	c7 45 a8 00 00
	00 00		 mov	 DWORD PTR tv190[ebp], 0
$LN28@kill_local:
  0026e	b9 01 00 00 00	 mov	 ecx, 1
  00273	85 c9		 test	 ecx, ecx
  00275	74 09		 je	 SHORT $LN29@kill_local
  00277	c7 45 a4 7f 00
	00 00		 mov	 DWORD PTR tv198[ebp], 127 ; 0000007fH
  0027e	eb 21		 jmp	 SHORT $LN30@kill_local
$LN29@kill_local:
  00280	8b 15 00 00 00
	00		 mov	 edx, DWORD PTR ?__LINE__Var@?0??kill_local@@YGXPAUENTITY@@@Z@4JA
  00286	83 c2 3c	 add	 edx, 60			; 0000003cH
  00289	52		 push	 edx
  0028a	68 00 00 00 00	 push	 OFFSET ??_C@_0FE@LLMAPGIJ@c?3?2users?2nhv90?2projects?2eech?2ap@
  0028f	a1 00 00 00 00	 mov	 eax, DWORD PTR ?overload_invalid_int_type_message@@3PBDB ; overload_invalid_int_type_message
  00294	50		 push	 eax
  00295	e8 00 00 00 00	 call	 ?process_assert@@YGXPBD0H@Z ; process_assert
  0029a	c7 45 a4 00 00
	00 00		 mov	 DWORD PTR tv198[ebp], 0
$LN30@kill_local:
  002a1	6a 7f		 push	 127			; 0000007fH
  002a3	8b 4d ec	 mov	 ecx, DWORD PTR _group$[ebp]
  002a6	51		 push	 ecx
  002a7	69 55 a8 5c 04
	00 00		 imul	 edx, DWORD PTR tv190[ebp], 1116
  002ae	8b 45 a4	 mov	 eax, DWORD PTR tv198[ebp]
  002b1	8b 8c 82 00 00
	00 00		 mov	 ecx, DWORD PTR ?fn_get_local_entity_int_value@@3PAY0BBH@P6GHPAUENTITY@@W4INT_TYPES@@@ZA[edx+eax*4]
  002b8	ff d1		 call	 ecx
  002ba	89 45 f8	 mov	 DWORD PTR _losses$[ebp], eax

; 355  : 
; 356  : 	losses ++;

  002bd	8b 45 f8	 mov	 eax, DWORD PTR _losses$[ebp]
  002c0	83 c0 01	 add	 eax, 1
  002c3	89 45 f8	 mov	 DWORD PTR _losses$[ebp], eax

; 357  : 
; 358  : 	set_local_entity_int_value (group, INT_TYPE_LOSSES, losses);

  002c6	83 7d ec 00	 cmp	 DWORD PTR _group$[ebp], 0
  002ca	74 0a		 je	 SHORT $LN31@kill_local
  002cc	8b 45 ec	 mov	 eax, DWORD PTR _group$[ebp]
  002cf	8b 08		 mov	 ecx, DWORD PTR [eax]
  002d1	89 4d a8	 mov	 DWORD PTR tv211[ebp], ecx
  002d4	eb 21		 jmp	 SHORT $LN32@kill_local
$LN31@kill_local:
  002d6	8b 15 00 00 00
	00		 mov	 edx, DWORD PTR ?__LINE__Var@?0??kill_local@@YGXPAUENTITY@@@Z@4JA
  002dc	83 c2 40	 add	 edx, 64			; 00000040H
  002df	52		 push	 edx
  002e0	68 00 00 00 00	 push	 OFFSET ??_C@_0FE@LLMAPGIJ@c?3?2users?2nhv90?2projects?2eech?2ap@
  002e5	a1 00 00 00 00	 mov	 eax, DWORD PTR ?null_entity_pointer_message@@3PBDB ; null_entity_pointer_message
  002ea	50		 push	 eax
  002eb	e8 00 00 00 00	 call	 ?process_assert@@YGXPBD0H@Z ; process_assert
  002f0	c7 45 a8 00 00
	00 00		 mov	 DWORD PTR tv211[ebp], 0
$LN32@kill_local:
  002f7	b9 01 00 00 00	 mov	 ecx, 1
  002fc	85 c9		 test	 ecx, ecx
  002fe	74 09		 je	 SHORT $LN33@kill_local
  00300	c7 45 a4 7f 00
	00 00		 mov	 DWORD PTR tv219[ebp], 127 ; 0000007fH
  00307	eb 21		 jmp	 SHORT $LN34@kill_local
$LN33@kill_local:
  00309	8b 15 00 00 00
	00		 mov	 edx, DWORD PTR ?__LINE__Var@?0??kill_local@@YGXPAUENTITY@@@Z@4JA
  0030f	83 c2 40	 add	 edx, 64			; 00000040H
  00312	52		 push	 edx
  00313	68 00 00 00 00	 push	 OFFSET ??_C@_0FE@LLMAPGIJ@c?3?2users?2nhv90?2projects?2eech?2ap@
  00318	a1 00 00 00 00	 mov	 eax, DWORD PTR ?overload_invalid_int_type_message@@3PBDB ; overload_invalid_int_type_message
  0031d	50		 push	 eax
  0031e	e8 00 00 00 00	 call	 ?process_assert@@YGXPBD0H@Z ; process_assert
  00323	c7 45 a4 00 00
	00 00		 mov	 DWORD PTR tv219[ebp], 0
$LN34@kill_local:
  0032a	8b 4d f8	 mov	 ecx, DWORD PTR _losses$[ebp]
  0032d	51		 push	 ecx
  0032e	6a 7f		 push	 127			; 0000007fH
  00330	8b 55 ec	 mov	 edx, DWORD PTR _group$[ebp]
  00333	52		 push	 edx
  00334	69 45 a8 5c 04
	00 00		 imul	 eax, DWORD PTR tv211[ebp], 1116
  0033b	8b 4d a4	 mov	 ecx, DWORD PTR tv219[ebp]
  0033e	8b 94 88 00 00
	00 00		 mov	 edx, DWORD PTR ?fn_set_local_entity_int_value@@3PAY0BBH@P6GXPAUENTITY@@W4INT_TYPES@@H@ZA[eax+ecx*4]
  00345	ff d2		 call	 edx

; 359  : 
; 360  : 	////////////////////////////////////////
; 361  : 	//
; 362  : 	// DESTROY COMPONENTS
; 363  : 	//
; 364  : 	////////////////////////////////////////
; 365  : 
; 366  : 	if (get_comms_model () == COMMS_MODEL_SERVER)

  00347	83 3d 00 00 00
	00 00		 cmp	 DWORD PTR ?system_comms_model@@3W4COMMS_MODEL_TYPES@@A, 0 ; system_comms_model
  0034e	0f 85 5a 01 00
	00		 jne	 $LN3@kill_local

; 367  : 	{
; 368  : 		////////////////////////////////////////
; 369  : 		//
; 370  : 		// SEND NOTIFY MESSAGES
; 371  : 		//
; 372  : 		////////////////////////////////////////
; 373  : 
; 374  : 		//
; 375  : 		//
; 376  : 		//
; 377  : 
; 378  : 		task = get_local_entity_first_child (en, LIST_TYPE_TASK_DEPENDENT);

  00354	83 7d 08 00	 cmp	 DWORD PTR _en$[ebp], 0
  00358	74 0a		 je	 SHORT $LN35@kill_local
  0035a	8b 45 08	 mov	 eax, DWORD PTR _en$[ebp]
  0035d	8b 08		 mov	 ecx, DWORD PTR [eax]
  0035f	89 4d a8	 mov	 DWORD PTR tv232[ebp], ecx
  00362	eb 21		 jmp	 SHORT $LN36@kill_local
$LN35@kill_local:
  00364	8b 15 00 00 00
	00		 mov	 edx, DWORD PTR ?__LINE__Var@?0??kill_local@@YGXPAUENTITY@@@Z@4JA
  0036a	83 c2 54	 add	 edx, 84			; 00000054H
  0036d	52		 push	 edx
  0036e	68 00 00 00 00	 push	 OFFSET ??_C@_0FE@LLMAPGIJ@c?3?2users?2nhv90?2projects?2eech?2ap@
  00373	a1 00 00 00 00	 mov	 eax, DWORD PTR ?null_entity_pointer_message@@3PBDB ; null_entity_pointer_message
  00378	50		 push	 eax
  00379	e8 00 00 00 00	 call	 ?process_assert@@YGXPBD0H@Z ; process_assert
  0037e	c7 45 a8 00 00
	00 00		 mov	 DWORD PTR tv232[ebp], 0
$LN36@kill_local:
  00385	b9 01 00 00 00	 mov	 ecx, 1
  0038a	85 c9		 test	 ecx, ecx
  0038c	74 09		 je	 SHORT $LN37@kill_local
  0038e	c7 45 a4 27 00
	00 00		 mov	 DWORD PTR tv240[ebp], 39 ; 00000027H
  00395	eb 21		 jmp	 SHORT $LN38@kill_local
$LN37@kill_local:
  00397	8b 15 00 00 00
	00		 mov	 edx, DWORD PTR ?__LINE__Var@?0??kill_local@@YGXPAUENTITY@@@Z@4JA
  0039d	83 c2 54	 add	 edx, 84			; 00000054H
  003a0	52		 push	 edx
  003a1	68 00 00 00 00	 push	 OFFSET ??_C@_0FE@LLMAPGIJ@c?3?2users?2nhv90?2projects?2eech?2ap@
  003a6	a1 00 00 00 00	 mov	 eax, DWORD PTR ?overload_invalid_list_type_message@@3PBDB ; overload_invalid_list_type_message
  003ab	50		 push	 eax
  003ac	e8 00 00 00 00	 call	 ?process_assert@@YGXPBD0H@Z ; process_assert
  003b1	c7 45 a4 00 00
	00 00		 mov	 DWORD PTR tv240[ebp], 0
$LN38@kill_local:
  003b8	6a 27		 push	 39			; 00000027H
  003ba	8b 4d 08	 mov	 ecx, DWORD PTR _en$[ebp]
  003bd	51		 push	 ecx
  003be	69 55 a8 b4 00
	00 00		 imul	 edx, DWORD PTR tv232[ebp], 180
  003c5	8b 45 a4	 mov	 eax, DWORD PTR tv240[ebp]
  003c8	8b 8c 82 00 00
	00 00		 mov	 ecx, DWORD PTR ?fn_get_local_entity_first_child@@3PAY0CN@P6GPAUENTITY@@PAU1@W4LIST_TYPES@@@ZA[edx+eax*4]
  003cf	ff d1		 call	 ecx
  003d1	89 45 f4	 mov	 DWORD PTR _task$[ebp], eax
$LN2@kill_local:

; 379  : 
; 380  : 		while (task)

  003d4	83 7d f4 00	 cmp	 DWORD PTR _task$[ebp], 0
  003d8	0f 84 d0 00 00
	00		 je	 $LN3@kill_local

; 381  : 		{
; 382  : 
; 383  : 			destroy_task = task;

  003de	8b 45 f4	 mov	 eax, DWORD PTR _task$[ebp]
  003e1	89 45 f0	 mov	 DWORD PTR _destroy_task$[ebp], eax

; 384  : 
; 385  : 			task = get_local_entity_child_succ (task, LIST_TYPE_TASK_DEPENDENT);

  003e4	83 7d f4 00	 cmp	 DWORD PTR _task$[ebp], 0
  003e8	74 0a		 je	 SHORT $LN39@kill_local
  003ea	8b 45 f4	 mov	 eax, DWORD PTR _task$[ebp]
  003ed	8b 08		 mov	 ecx, DWORD PTR [eax]
  003ef	89 4d a8	 mov	 DWORD PTR tv253[ebp], ecx
  003f2	eb 21		 jmp	 SHORT $LN40@kill_local
$LN39@kill_local:
  003f4	8b 15 00 00 00
	00		 mov	 edx, DWORD PTR ?__LINE__Var@?0??kill_local@@YGXPAUENTITY@@@Z@4JA
  003fa	83 c2 5b	 add	 edx, 91			; 0000005bH
  003fd	52		 push	 edx
  003fe	68 00 00 00 00	 push	 OFFSET ??_C@_0FE@LLMAPGIJ@c?3?2users?2nhv90?2projects?2eech?2ap@
  00403	a1 00 00 00 00	 mov	 eax, DWORD PTR ?null_entity_pointer_message@@3PBDB ; null_entity_pointer_message
  00408	50		 push	 eax
  00409	e8 00 00 00 00	 call	 ?process_assert@@YGXPBD0H@Z ; process_assert
  0040e	c7 45 a8 00 00
	00 00		 mov	 DWORD PTR tv253[ebp], 0
$LN40@kill_local:
  00415	b9 01 00 00 00	 mov	 ecx, 1
  0041a	85 c9		 test	 ecx, ecx
  0041c	74 09		 je	 SHORT $LN41@kill_local
  0041e	c7 45 a4 27 00
	00 00		 mov	 DWORD PTR tv261[ebp], 39 ; 00000027H
  00425	eb 21		 jmp	 SHORT $LN42@kill_local
$LN41@kill_local:
  00427	8b 15 00 00 00
	00		 mov	 edx, DWORD PTR ?__LINE__Var@?0??kill_local@@YGXPAUENTITY@@@Z@4JA
  0042d	83 c2 5b	 add	 edx, 91			; 0000005bH
  00430	52		 push	 edx
  00431	68 00 00 00 00	 push	 OFFSET ??_C@_0FE@LLMAPGIJ@c?3?2users?2nhv90?2projects?2eech?2ap@
  00436	a1 00 00 00 00	 mov	 eax, DWORD PTR ?overload_invalid_list_type_message@@3PBDB ; overload_invalid_list_type_message
  0043b	50		 push	 eax
  0043c	e8 00 00 00 00	 call	 ?process_assert@@YGXPBD0H@Z ; process_assert
  00441	c7 45 a4 00 00
	00 00		 mov	 DWORD PTR tv261[ebp], 0
$LN42@kill_local:
  00448	6a 27		 push	 39			; 00000027H
  0044a	8b 4d f4	 mov	 ecx, DWORD PTR _task$[ebp]
  0044d	51		 push	 ecx
  0044e	69 55 a8 b4 00
	00 00		 imul	 edx, DWORD PTR tv253[ebp], 180
  00455	8b 45 a4	 mov	 eax, DWORD PTR tv261[ebp]
  00458	8b 8c 82 00 00
	00 00		 mov	 ecx, DWORD PTR ?fn_get_local_entity_child_succ@@3PAY0CN@P6GPAUENTITY@@PAU1@W4LIST_TYPES@@@ZA[edx+eax*4]
  0045f	ff d1		 call	 ecx
  00461	89 45 f4	 mov	 DWORD PTR _task$[ebp], eax

; 386  : 
; 387  : 			if (get_local_entity_type (destroy_task) == ENTITY_TYPE_TASK)

  00464	83 7d f0 00	 cmp	 DWORD PTR _destroy_task$[ebp], 0
  00468	74 0a		 je	 SHORT $LN43@kill_local
  0046a	8b 45 f0	 mov	 eax, DWORD PTR _destroy_task$[ebp]
  0046d	8b 08		 mov	 ecx, DWORD PTR [eax]
  0046f	89 4d a8	 mov	 DWORD PTR tv272[ebp], ecx
  00472	eb 1d		 jmp	 SHORT $LN44@kill_local
$LN43@kill_local:
  00474	68 83 01 00 00	 push	 387			; 00000183H
  00479	68 00 00 00 00	 push	 OFFSET ??_C@_0FE@LLMAPGIJ@c?3?2users?2nhv90?2projects?2eech?2ap@
  0047e	8b 15 00 00 00
	00		 mov	 edx, DWORD PTR ?null_entity_pointer_message@@3PBDB ; null_entity_pointer_message
  00484	52		 push	 edx
  00485	e8 00 00 00 00	 call	 ?process_assert@@YGXPBD0H@Z ; process_assert
  0048a	c7 45 a8 00 00
	00 00		 mov	 DWORD PTR tv272[ebp], 0
$LN44@kill_local:
  00491	83 7d a8 22	 cmp	 DWORD PTR tv272[ebp], 34 ; 00000022H
  00495	75 12		 jne	 SHORT $LN7@kill_local

; 388  : 			{
; 389  : 
; 390  : 				#if DEBUG_MODULE
; 391  : 
; 392  : 				debug_log ("PS_DSTRY: killing person, notifying task %s complete", entity_sub_type_task_names [get_local_entity_int_value (destroy_task, INT_TYPE_ENTITY_SUB_TYPE)]);
; 393  : 
; 394  : 				#endif
; 395  : 
; 396  : 				notify_local_entity (ENTITY_MESSAGE_TASK_COMPLETED, destroy_task, en);

  00497	8b 45 08	 mov	 eax, DWORD PTR _en$[ebp]
  0049a	50		 push	 eax
  0049b	8b 4d f0	 mov	 ecx, DWORD PTR _destroy_task$[ebp]
  0049e	51		 push	 ecx
  0049f	6a 32		 push	 50			; 00000032H
  004a1	e8 00 00 00 00	 call	 ?notify_local_entity@@YAHW4ENTITY_MESSAGES@@PAUENTITY@@1ZZ ; notify_local_entity
  004a6	83 c4 0c	 add	 esp, 12			; 0000000cH
$LN7@kill_local:

; 397  : 			}
; 398  : 		}

  004a9	e9 26 ff ff ff	 jmp	 $LN2@kill_local
$LN3@kill_local:

; 399  : 
; 400  : 		//
; 401  : 		// Release landing lock (if any)
; 402  : 		//
; 403  : 
; 404  : 		//release_mobile_entity_landing_locks (en);
; 405  : 	}
; 406  : 
; 407  : 	////////////////////////////////////////
; 408  : 	//
; 409  : 	// UNLINK FROM SYSTEM
; 410  : 	//
; 411  : 	////////////////////////////////////////
; 412  : 
; 413  : 	//
; 414  : 	// person
; 415  : 	//
; 416  : 
; 417  : 	//
; 418  : 	// vehicle
; 419  : 	//
; 420  : 
; 421  : 	unlink_local_entity_children (en, LIST_TYPE_TASK_DEPENDENT);

  004ae	6a 27		 push	 39			; 00000027H
  004b0	8b 45 08	 mov	 eax, DWORD PTR _en$[ebp]
  004b3	50		 push	 eax
  004b4	e8 00 00 00 00	 call	 ?unlink_local_entity_children@@YGXPAUENTITY@@W4LIST_TYPES@@@Z ; unlink_local_entity_children

; 422  : 
; 423  : 	unlink_local_entity_children (en, LIST_TYPE_LAUNCHED_WEAPON);

  004b9	6a 18		 push	 24			; 00000018H
  004bb	8b 45 08	 mov	 eax, DWORD PTR _en$[ebp]
  004be	50		 push	 eax
  004bf	e8 00 00 00 00	 call	 ?unlink_local_entity_children@@YGXPAUENTITY@@W4LIST_TYPES@@@Z ; unlink_local_entity_children

; 424  : 
; 425  : 	delete_local_entity_from_parents_child_list (en, LIST_TYPE_MEMBER);

  004c4	6a 19		 push	 25			; 00000019H
  004c6	8b 45 08	 mov	 eax, DWORD PTR _en$[ebp]
  004c9	50		 push	 eax
  004ca	e8 00 00 00 00	 call	 ?delete_local_entity_from_parents_child_list@@YGXPAUENTITY@@W4LIST_TYPES@@@Z ; delete_local_entity_from_parents_child_list

; 426  : 
; 427  : 	delete_local_entity_from_parents_child_list (en, LIST_TYPE_FOLLOWER);

  004cf	6a 0d		 push	 13			; 0000000dH
  004d1	8b 45 08	 mov	 eax, DWORD PTR _en$[ebp]
  004d4	50		 push	 eax
  004d5	e8 00 00 00 00	 call	 ?delete_local_entity_from_parents_child_list@@YGXPAUENTITY@@W4LIST_TYPES@@@Z ; delete_local_entity_from_parents_child_list

; 428  : 
; 429  : 	// gunship_target_link
; 430  : 
; 431  : 	// member_link
; 432  : 
; 433  : 	// view_link
; 434  : 
; 435  : 	delete_local_entity_from_parents_child_list (en, LIST_TYPE_TAKEOFF_QUEUE);

  004da	6a 25		 push	 37			; 00000025H
  004dc	8b 45 08	 mov	 eax, DWORD PTR _en$[ebp]
  004df	50		 push	 eax
  004e0	e8 00 00 00 00	 call	 ?delete_local_entity_from_parents_child_list@@YGXPAUENTITY@@W4LIST_TYPES@@@Z ; delete_local_entity_from_parents_child_list

; 436  : 
; 437  : 	//
; 438  : 	// mobile
; 439  : 	//
; 440  : 
; 441  : 	//
; 442  : 	// kill weapon sound effects
; 443  : 	//
; 444  : 
; 445  : 	kill_local_entity_sound_type (en, ENTITY_SUB_TYPE_EFFECT_SOUND_CHAIN_GUN);

  004e5	6a 10		 push	 16			; 00000010H
  004e7	8b 45 08	 mov	 eax, DWORD PTR _en$[ebp]
  004ea	50		 push	 eax
  004eb	e8 00 00 00 00	 call	 ?kill_local_entity_sound_type@@YGXPAUENTITY@@H@Z ; kill_local_entity_sound_type

; 446  : 
; 447  : 	//unlink_local_entity_children (en, LIST_TYPE_SPECIAL_EFFECT);
; 448  : 
; 449  : 	unlink_local_entity_children (en, LIST_TYPE_TARGET);

  004f0	6a 26		 push	 38			; 00000026H
  004f2	8b 45 08	 mov	 eax, DWORD PTR _en$[ebp]
  004f5	50		 push	 eax
  004f6	e8 00 00 00 00	 call	 ?unlink_local_entity_children@@YGXPAUENTITY@@W4LIST_TYPES@@@Z ; unlink_local_entity_children

; 450  : 
; 451  : 	delete_local_entity_from_parents_child_list (en, LIST_TYPE_PADLOCK);

  004fb	6a 1b		 push	 27			; 0000001bH
  004fd	8b 45 08	 mov	 eax, DWORD PTR _en$[ebp]
  00500	50		 push	 eax
  00501	e8 00 00 00 00	 call	 ?delete_local_entity_from_parents_child_list@@YGXPAUENTITY@@W4LIST_TYPES@@@Z ; delete_local_entity_from_parents_child_list

; 452  : 
; 453  : 	// sector_link
; 454  : 
; 455  : 	delete_local_entity_from_parents_child_list (en, LIST_TYPE_TARGET);

  00506	6a 26		 push	 38			; 00000026H
  00508	8b 45 08	 mov	 eax, DWORD PTR _en$[ebp]
  0050b	50		 push	 eax
  0050c	e8 00 00 00 00	 call	 ?delete_local_entity_from_parents_child_list@@YGXPAUENTITY@@W4LIST_TYPES@@@Z ; delete_local_entity_from_parents_child_list

; 456  : 
; 457  : 	set_local_entity_int_value (en, INT_TYPE_OPERATIONAL_STATE, OPERATIONAL_STATE_DEAD);

  00511	83 7d 08 00	 cmp	 DWORD PTR _en$[ebp], 0
  00515	74 0a		 je	 SHORT $LN45@kill_local
  00517	8b 45 08	 mov	 eax, DWORD PTR _en$[ebp]
  0051a	8b 08		 mov	 ecx, DWORD PTR [eax]
  0051c	89 4d a8	 mov	 DWORD PTR tv301[ebp], ecx
  0051f	eb 24		 jmp	 SHORT $LN46@kill_local
$LN45@kill_local:
  00521	8b 15 00 00 00
	00		 mov	 edx, DWORD PTR ?__LINE__Var@?0??kill_local@@YGXPAUENTITY@@@Z@4JA
  00527	81 c2 a3 00 00
	00		 add	 edx, 163		; 000000a3H
  0052d	52		 push	 edx
  0052e	68 00 00 00 00	 push	 OFFSET ??_C@_0FE@LLMAPGIJ@c?3?2users?2nhv90?2projects?2eech?2ap@
  00533	a1 00 00 00 00	 mov	 eax, DWORD PTR ?null_entity_pointer_message@@3PBDB ; null_entity_pointer_message
  00538	50		 push	 eax
  00539	e8 00 00 00 00	 call	 ?process_assert@@YGXPBD0H@Z ; process_assert
  0053e	c7 45 a8 00 00
	00 00		 mov	 DWORD PTR tv301[ebp], 0
$LN46@kill_local:
  00545	b9 01 00 00 00	 mov	 ecx, 1
  0054a	85 c9		 test	 ecx, ecx
  0054c	74 09		 je	 SHORT $LN47@kill_local
  0054e	c7 45 a4 97 00
	00 00		 mov	 DWORD PTR tv309[ebp], 151 ; 00000097H
  00555	eb 24		 jmp	 SHORT $LN48@kill_local
$LN47@kill_local:
  00557	8b 15 00 00 00
	00		 mov	 edx, DWORD PTR ?__LINE__Var@?0??kill_local@@YGXPAUENTITY@@@Z@4JA
  0055d	81 c2 a3 00 00
	00		 add	 edx, 163		; 000000a3H
  00563	52		 push	 edx
  00564	68 00 00 00 00	 push	 OFFSET ??_C@_0FE@LLMAPGIJ@c?3?2users?2nhv90?2projects?2eech?2ap@
  00569	a1 00 00 00 00	 mov	 eax, DWORD PTR ?overload_invalid_int_type_message@@3PBDB ; overload_invalid_int_type_message
  0056e	50		 push	 eax
  0056f	e8 00 00 00 00	 call	 ?process_assert@@YGXPBD0H@Z ; process_assert
  00574	c7 45 a4 00 00
	00 00		 mov	 DWORD PTR tv309[ebp], 0
$LN48@kill_local:
  0057b	6a 02		 push	 2
  0057d	68 97 00 00 00	 push	 151			; 00000097H
  00582	8b 4d 08	 mov	 ecx, DWORD PTR _en$[ebp]
  00585	51		 push	 ecx
  00586	69 55 a8 5c 04
	00 00		 imul	 edx, DWORD PTR tv301[ebp], 1116
  0058d	8b 45 a4	 mov	 eax, DWORD PTR tv309[ebp]
  00590	8b 8c 82 00 00
	00 00		 mov	 ecx, DWORD PTR ?fn_set_local_entity_int_value@@3PAY0BBH@P6GXPAUENTITY@@W4INT_TYPES@@H@ZA[edx+eax*4]
  00597	ff d1		 call	 ecx

; 458  : 
; 459  : 	//
; 460  : 	// Notify Campaign Screen
; 461  : 	//
; 462  : 
; 463  : 	notify_campaign_screen (CAMPAIGN_SCREEN_GROUP_REMOVE_MEMBER, group);

  00599	8b 45 ec	 mov	 eax, DWORD PTR _group$[ebp]
  0059c	50		 push	 eax
  0059d	6a 08		 push	 8
  0059f	e8 00 00 00 00	 call	 ?notify_campaign_screen@@YGHW4CAMPAIGN_SCREEN_MESSAGES@@PAUENTITY@@@Z ; notify_campaign_screen

; 464  : 
; 465  : 	//
; 466  : 	// Notify the GROUP that the mobile has been killed  (N.B. must be done AFTER mobile is unlinked from member list)
; 467  : 	//
; 468  : 
; 469  : 	if (get_comms_model () == COMMS_MODEL_SERVER)

  005a4	83 3d 00 00 00
	00 00		 cmp	 DWORD PTR ?system_comms_model@@3W4COMMS_MODEL_TYPES@@A, 0 ; system_comms_model
  005ab	75 12		 jne	 SHORT $LN8@kill_local

; 470  : 	{
; 471  : 		notify_local_entity (ENTITY_MESSAGE_MOBILE_KILLED, group, en);

  005ad	8b 45 08	 mov	 eax, DWORD PTR _en$[ebp]
  005b0	50		 push	 eax
  005b1	8b 4d ec	 mov	 ecx, DWORD PTR _group$[ebp]
  005b4	51		 push	 ecx
  005b5	6a 28		 push	 40			; 00000028H
  005b7	e8 00 00 00 00	 call	 ?notify_local_entity@@YAHW4ENTITY_MESSAGES@@PAUENTITY@@1ZZ ; notify_local_entity
  005bc	83 c4 0c	 add	 esp, 12			; 0000000cH
$LN8@kill_local:

; 472  : 	}
; 473  : 
; 474  : 	////////////////////////////////////////
; 475  : 	//
; 476  : 	// SPECIAL EFFECTS
; 477  : 	//
; 478  : 	////////////////////////////////////////
; 479  : 
; 480  : 	set_local_entity_float_value (en, FLOAT_TYPE_DEATH_TIMER, calculate_mobile_death_timer_value (en));

  005bf	83 7d 08 00	 cmp	 DWORD PTR _en$[ebp], 0
  005c3	74 0a		 je	 SHORT $LN49@kill_local
  005c5	8b 45 08	 mov	 eax, DWORD PTR _en$[ebp]
  005c8	8b 08		 mov	 ecx, DWORD PTR [eax]
  005ca	89 4d a8	 mov	 DWORD PTR tv327[ebp], ecx
  005cd	eb 24		 jmp	 SHORT $LN50@kill_local
$LN49@kill_local:
  005cf	8b 15 00 00 00
	00		 mov	 edx, DWORD PTR ?__LINE__Var@?0??kill_local@@YGXPAUENTITY@@@Z@4JA
  005d5	81 c2 ba 00 00
	00		 add	 edx, 186		; 000000baH
  005db	52		 push	 edx
  005dc	68 00 00 00 00	 push	 OFFSET ??_C@_0FE@LLMAPGIJ@c?3?2users?2nhv90?2projects?2eech?2ap@
  005e1	a1 00 00 00 00	 mov	 eax, DWORD PTR ?null_entity_pointer_message@@3PBDB ; null_entity_pointer_message
  005e6	50		 push	 eax
  005e7	e8 00 00 00 00	 call	 ?process_assert@@YGXPBD0H@Z ; process_assert
  005ec	c7 45 a8 00 00
	00 00		 mov	 DWORD PTR tv327[ebp], 0
$LN50@kill_local:
  005f3	b9 01 00 00 00	 mov	 ecx, 1
  005f8	85 c9		 test	 ecx, ecx
  005fa	74 09		 je	 SHORT $LN51@kill_local
  005fc	c7 45 a4 1b 00
	00 00		 mov	 DWORD PTR tv335[ebp], 27 ; 0000001bH
  00603	eb 24		 jmp	 SHORT $LN52@kill_local
$LN51@kill_local:
  00605	8b 15 00 00 00
	00		 mov	 edx, DWORD PTR ?__LINE__Var@?0??kill_local@@YGXPAUENTITY@@@Z@4JA
  0060b	81 c2 ba 00 00
	00		 add	 edx, 186		; 000000baH
  00611	52		 push	 edx
  00612	68 00 00 00 00	 push	 OFFSET ??_C@_0FE@LLMAPGIJ@c?3?2users?2nhv90?2projects?2eech?2ap@
  00617	a1 00 00 00 00	 mov	 eax, DWORD PTR ?overload_invalid_float_type_message@@3PBDB ; overload_invalid_float_type_message
  0061c	50		 push	 eax
  0061d	e8 00 00 00 00	 call	 ?process_assert@@YGXPBD0H@Z ; process_assert
  00622	c7 45 a4 00 00
	00 00		 mov	 DWORD PTR tv335[ebp], 0
$LN52@kill_local:
  00629	8b 4d 08	 mov	 ecx, DWORD PTR _en$[ebp]
  0062c	51		 push	 ecx
  0062d	e8 00 00 00 00	 call	 ?calculate_mobile_death_timer_value@@YGMPAUENTITY@@@Z ; calculate_mobile_death_timer_value
  00632	d9 5d a0	 fstp	 DWORD PTR tv477[ebp]
  00635	f3 0f 10 45 a0	 movss	 xmm0, DWORD PTR tv477[ebp]
  0063a	51		 push	 ecx
  0063b	f3 0f 11 04 24	 movss	 DWORD PTR [esp], xmm0
  00640	6a 1b		 push	 27			; 0000001bH
  00642	8b 55 08	 mov	 edx, DWORD PTR _en$[ebp]
  00645	52		 push	 edx
  00646	69 45 a8 bc 02
	00 00		 imul	 eax, DWORD PTR tv327[ebp], 700
  0064d	8b 4d a4	 mov	 ecx, DWORD PTR tv335[ebp]
  00650	8b 94 88 00 00
	00 00		 mov	 edx, DWORD PTR ?fn_set_local_entity_float_value@@3PAY0KP@P6GXPAUENTITY@@W4FLOAT_TYPES@@M@ZA[eax+ecx*4]
  00657	ff d2		 call	 edx

; 481  : 
; 482  : 	if (get_comms_model () == COMMS_MODEL_SERVER)

  00659	83 3d 00 00 00
	00 00		 cmp	 DWORD PTR ?system_comms_model@@3W4COMMS_MODEL_TYPES@@A, 0 ; system_comms_model
  00660	75 09		 jne	 SHORT $LN9@kill_local

; 483  : 	{
; 484  : 		create_client_server_object_killed_explosion_effect (en);

  00662	8b 45 08	 mov	 eax, DWORD PTR _en$[ebp]
  00665	50		 push	 eax
  00666	e8 00 00 00 00	 call	 ?create_client_server_object_killed_explosion_effect@@YGXPAUENTITY@@@Z ; create_client_server_object_killed_explosion_effect
$LN9@kill_local:
$LN1@kill_local:

; 485  : 	}
; 486  : }

  0066b	5f		 pop	 edi
  0066c	5e		 pop	 esi
  0066d	5b		 pop	 ebx
  0066e	8b e5		 mov	 esp, ebp
  00670	5d		 pop	 ebp
  00671	c2 04 00	 ret	 4
?kill_local@@YGXPAUENTITY@@@Z ENDP			; kill_local
_TEXT	ENDS
; Function compile flags: /Odtp /ZI
; File c:\users\nhv90\projects\eech\aphavoc\source\entity\mobile\vehicle\person\ps_dstry.c
;	COMDAT ?destroy_client_family@@YGXPAUENTITY@@@Z
_TEXT	SEGMENT
_en$ = 8						; size = 4
?destroy_client_family@@YGXPAUENTITY@@@Z PROC		; destroy_client_family, COMDAT

; 279  : {

  00000	55		 push	 ebp
  00001	8b ec		 mov	 ebp, esp
  00003	83 ec 40	 sub	 esp, 64			; 00000040H
  00006	53		 push	 ebx
  00007	56		 push	 esi
  00008	57		 push	 edi

; 280  : 	#if DEBUG_MODULE >= 2
; 281  : 
; 282  : 	debug_log_entity_args (ENTITY_DEBUG_REMOTE, ENTITY_DEBUG_DESTROY_FAMILY, en);
; 283  : 
; 284  : 	#endif
; 285  : 
; 286  : 	transmit_entity_comms_message (ENTITY_COMMS_DESTROY_FAMILY, en);

  00009	8b 45 08	 mov	 eax, DWORD PTR _en$[ebp]
  0000c	50		 push	 eax
  0000d	6a 13		 push	 19			; 00000013H
  0000f	e8 00 00 00 00	 call	 ?transmit_entity_comms_message@@YAXW4ENTITY_COMMS_MESSAGES@@PAUENTITY@@ZZ ; transmit_entity_comms_message
  00014	83 c4 08	 add	 esp, 8

; 287  : }

  00017	5f		 pop	 edi
  00018	5e		 pop	 esi
  00019	5b		 pop	 ebx
  0001a	8b e5		 mov	 esp, ebp
  0001c	5d		 pop	 ebp
  0001d	c2 04 00	 ret	 4
?destroy_client_family@@YGXPAUENTITY@@@Z ENDP		; destroy_client_family
_TEXT	ENDS
; Function compile flags: /Odtp /ZI
; File c:\users\nhv90\projects\eech\aphavoc\source\entity\mobile\vehicle\person\ps_dstry.c
;	COMDAT ?destroy_server_family@@YGXPAUENTITY@@@Z
_TEXT	SEGMENT
tv73 = -68						; size = 4
_en$ = 8						; size = 4
?destroy_server_family@@YGXPAUENTITY@@@Z PROC		; destroy_server_family, COMDAT

; 264  : {

  00000	55		 push	 ebp
  00001	8b ec		 mov	 ebp, esp
  00003	83 ec 44	 sub	 esp, 68			; 00000044H
  00006	53		 push	 ebx
  00007	56		 push	 esi
  00008	57		 push	 edi

; 265  : 	destroy_client_server_entity_children (en, LIST_TYPE_MOVEMENT_DEPENDENT);

  00009	6a 1a		 push	 26			; 0000001aH
  0000b	8b 45 08	 mov	 eax, DWORD PTR _en$[ebp]
  0000e	50		 push	 eax
  0000f	e8 00 00 00 00	 call	 ?destroy_client_server_entity_children@@YGXPAUENTITY@@W4LIST_TYPES@@@Z ; destroy_client_server_entity_children

; 266  : 
; 267  : //	destroy_client_server_entity_children (en, LIST_TYPE_WAYPOINT);
; 268  : 
; 269  : 	destroy_client_server_sound_effects (en);

  00014	8b 45 08	 mov	 eax, DWORD PTR _en$[ebp]
  00017	50		 push	 eax
  00018	e8 00 00 00 00	 call	 ?destroy_client_server_sound_effects@@YGXPAUENTITY@@@Z ; destroy_client_server_sound_effects

; 270  : 
; 271  : 	destroy_client_server_entity (en);

  0001d	83 7d 08 00	 cmp	 DWORD PTR _en$[ebp], 0
  00021	74 0a		 je	 SHORT $LN3@destroy_se
  00023	8b 45 08	 mov	 eax, DWORD PTR _en$[ebp]
  00026	8b 08		 mov	 ecx, DWORD PTR [eax]
  00028	89 4d bc	 mov	 DWORD PTR tv73[ebp], ecx
  0002b	eb 21		 jmp	 SHORT $LN4@destroy_se
$LN3@destroy_se:
  0002d	8b 15 00 00 00
	00		 mov	 edx, DWORD PTR ?__LINE__Var@?0??destroy_server_family@@YGXPAUENTITY@@@Z@4JA
  00033	83 c2 07	 add	 edx, 7
  00036	52		 push	 edx
  00037	68 00 00 00 00	 push	 OFFSET ??_C@_0FE@LLMAPGIJ@c?3?2users?2nhv90?2projects?2eech?2ap@
  0003c	a1 00 00 00 00	 mov	 eax, DWORD PTR ?null_entity_pointer_message@@3PBDB ; null_entity_pointer_message
  00041	50		 push	 eax
  00042	e8 00 00 00 00	 call	 ?process_assert@@YGXPBD0H@Z ; process_assert
  00047	c7 45 bc 00 00
	00 00		 mov	 DWORD PTR tv73[ebp], 0
$LN4@destroy_se:
  0004e	8b 4d 08	 mov	 ecx, DWORD PTR _en$[ebp]
  00051	51		 push	 ecx
  00052	8b 15 00 00 00
	00		 mov	 edx, DWORD PTR ?system_comms_model@@3W4COMMS_MODEL_TYPES@@A ; system_comms_model
  00058	c1 e2 02	 shl	 edx, 2
  0005b	8b 45 bc	 mov	 eax, DWORD PTR tv73[ebp]
  0005e	8b 8c c2 00 00
	00 00		 mov	 ecx, DWORD PTR ?fn_destroy_client_server_entity@@3PAY01P6GXPAUENTITY@@@ZA[edx+eax*8]
  00065	ff d1		 call	 ecx

; 272  : }

  00067	5f		 pop	 edi
  00068	5e		 pop	 esi
  00069	5b		 pop	 ebx
  0006a	8b e5		 mov	 esp, ebp
  0006c	5d		 pop	 ebp
  0006d	c2 04 00	 ret	 4
?destroy_server_family@@YGXPAUENTITY@@@Z ENDP		; destroy_server_family
_TEXT	ENDS
; Function compile flags: /Odtp /ZI
; File c:\users\nhv90\projects\eech\aphavoc\source\entity\mobile\vehicle\person\ps_dstry.c
;	COMDAT ?destroy_local_family@@YGXPAUENTITY@@@Z
_TEXT	SEGMENT
_en$ = 8						; size = 4
?destroy_local_family@@YGXPAUENTITY@@@Z PROC		; destroy_local_family, COMDAT

; 249  : {

  00000	55		 push	 ebp
  00001	8b ec		 mov	 ebp, esp
  00003	83 ec 40	 sub	 esp, 64			; 00000040H
  00006	53		 push	 ebx
  00007	56		 push	 esi
  00008	57		 push	 edi

; 250  : 	destroy_local_entity_children (en, LIST_TYPE_MOVEMENT_DEPENDENT);

  00009	6a 1a		 push	 26			; 0000001aH
  0000b	8b 45 08	 mov	 eax, DWORD PTR _en$[ebp]
  0000e	50		 push	 eax
  0000f	e8 00 00 00 00	 call	 ?destroy_local_entity_children@@YGXPAUENTITY@@W4LIST_TYPES@@@Z ; destroy_local_entity_children

; 251  : 
; 252  : //	destroy_local_entity_children (en, LIST_TYPE_WAYPOINT);
; 253  : 
; 254  : 	destroy_local_sound_effects (en);

  00014	8b 45 08	 mov	 eax, DWORD PTR _en$[ebp]
  00017	50		 push	 eax
  00018	e8 00 00 00 00	 call	 ?destroy_local_sound_effects@@YGXPAUENTITY@@@Z ; destroy_local_sound_effects

; 255  : 
; 256  : 	destroy_local_entity (en);

  0001d	8b 45 08	 mov	 eax, DWORD PTR _en$[ebp]
  00020	50		 push	 eax
  00021	e8 00 00 00 00	 call	 ?destroy_local_entity@@YGXPAUENTITY@@@Z ; destroy_local_entity

; 257  : }

  00026	5f		 pop	 edi
  00027	5e		 pop	 esi
  00028	5b		 pop	 ebx
  00029	8b e5		 mov	 esp, ebp
  0002b	5d		 pop	 ebp
  0002c	c2 04 00	 ret	 4
?destroy_local_family@@YGXPAUENTITY@@@Z ENDP		; destroy_local_family
_TEXT	ENDS
; Function compile flags: /Odtp /ZI
; File c:\users\nhv90\projects\eech\aphavoc\source\entity\mobile\vehicle\person\ps_dstry.c
;	COMDAT ?destroy_client@@YGXPAUENTITY@@@Z
_TEXT	SEGMENT
_en$ = 8						; size = 4
?destroy_client@@YGXPAUENTITY@@@Z PROC			; destroy_client, COMDAT

; 225  : {

  00000	55		 push	 ebp
  00001	8b ec		 mov	 ebp, esp
  00003	83 ec 40	 sub	 esp, 64			; 00000040H
  00006	53		 push	 ebx
  00007	56		 push	 esi
  00008	57		 push	 edi

; 226  : 	if (get_comms_data_flow () == COMMS_DATA_FLOW_TX)

  00009	83 3d 00 00 00
	00 00		 cmp	 DWORD PTR ?system_comms_data_flow@@3W4COMMS_DATA_FLOW_TYPES@@A, 0 ; system_comms_data_flow
  00010	75 2c		 jne	 SHORT $LN2@destroy_cl

; 227  : 	{
; 228  : 		validate_client_server_remote_fn ();

  00012	e8 00 00 00 00	 call	 ?assert_client_server_remote_fn@@YGHXZ ; assert_client_server_remote_fn
  00017	85 c0		 test	 eax, eax
  00019	75 18		 jne	 SHORT $LN4@destroy_cl
  0001b	a1 00 00 00 00	 mov	 eax, DWORD PTR ?__LINE__Var@?0??destroy_client@@YGXPAUENTITY@@@Z@4JA
  00020	83 c0 03	 add	 eax, 3
  00023	50		 push	 eax
  00024	68 00 00 00 00	 push	 OFFSET ??_C@_0FE@LLMAPGIJ@c?3?2users?2nhv90?2projects?2eech?2ap@
  00029	68 00 00 00 00	 push	 OFFSET ??_C@_0CC@BNNNEGEG@assert_client_server_remote_fn?5@
  0002e	e8 00 00 00 00	 call	 ?process_assert@@YGXPBD0H@Z ; process_assert
$LN4@destroy_cl:

; 229  : 
; 230  : 		destroy_remote (en);

  00033	8b 45 08	 mov	 eax, DWORD PTR _en$[ebp]
  00036	50		 push	 eax
  00037	e8 00 00 00 00	 call	 ?destroy_remote@@YGXPAUENTITY@@@Z ; destroy_remote

; 231  : 	}
; 232  : 	else

  0003c	eb 2a		 jmp	 SHORT $LN1@destroy_cl
$LN2@destroy_cl:

; 233  : 	{
; 234  : 		validate_client_server_local_fn ();

  0003e	e8 00 00 00 00	 call	 ?assert_client_server_local_fn@@YGHXZ ; assert_client_server_local_fn
  00043	85 c0		 test	 eax, eax
  00045	75 18		 jne	 SHORT $LN5@destroy_cl
  00047	a1 00 00 00 00	 mov	 eax, DWORD PTR ?__LINE__Var@?0??destroy_client@@YGXPAUENTITY@@@Z@4JA
  0004c	83 c0 09	 add	 eax, 9
  0004f	50		 push	 eax
  00050	68 00 00 00 00	 push	 OFFSET ??_C@_0FE@LLMAPGIJ@c?3?2users?2nhv90?2projects?2eech?2ap@
  00055	68 00 00 00 00	 push	 OFFSET ??_C@_0CB@CFOCLFOK@assert_client_server_local_fn?5?$CI@
  0005a	e8 00 00 00 00	 call	 ?process_assert@@YGXPBD0H@Z ; process_assert
$LN5@destroy_cl:

; 235  : 
; 236  : 		//
; 237  : 		// destroy local using 'full' function
; 238  : 		//
; 239  : 
; 240  : 		destroy_local_entity (en);

  0005f	8b 45 08	 mov	 eax, DWORD PTR _en$[ebp]
  00062	50		 push	 eax
  00063	e8 00 00 00 00	 call	 ?destroy_local_entity@@YGXPAUENTITY@@@Z ; destroy_local_entity
$LN1@destroy_cl:

; 241  : 	}
; 242  : }

  00068	5f		 pop	 edi
  00069	5e		 pop	 esi
  0006a	5b		 pop	 ebx
  0006b	8b e5		 mov	 esp, ebp
  0006d	5d		 pop	 ebp
  0006e	c2 04 00	 ret	 4
?destroy_client@@YGXPAUENTITY@@@Z ENDP			; destroy_client
_TEXT	ENDS
; Function compile flags: /Odtp /ZI
; File c:\users\nhv90\projects\eech\aphavoc\source\entity\mobile\vehicle\person\ps_dstry.c
;	COMDAT ?destroy_server@@YGXPAUENTITY@@@Z
_TEXT	SEGMENT
_en$ = 8						; size = 4
?destroy_server@@YGXPAUENTITY@@@Z PROC			; destroy_server, COMDAT

; 202  : {

  00000	55		 push	 ebp
  00001	8b ec		 mov	 ebp, esp
  00003	83 ec 40	 sub	 esp, 64			; 00000040H
  00006	53		 push	 ebx
  00007	56		 push	 esi
  00008	57		 push	 edi

; 203  : 	//
; 204  : 	// destroy remote entity first (keeping local entity valid)
; 205  : 	//
; 206  : 
; 207  : 	validate_client_server_remote_fn ();

  00009	e8 00 00 00 00	 call	 ?assert_client_server_remote_fn@@YGHXZ ; assert_client_server_remote_fn
  0000e	85 c0		 test	 eax, eax
  00010	75 18		 jne	 SHORT $LN2@destroy_se
  00012	a1 00 00 00 00	 mov	 eax, DWORD PTR ?__LINE__Var@?0??destroy_server@@YGXPAUENTITY@@@Z@4JA
  00017	83 c0 05	 add	 eax, 5
  0001a	50		 push	 eax
  0001b	68 00 00 00 00	 push	 OFFSET ??_C@_0FE@LLMAPGIJ@c?3?2users?2nhv90?2projects?2eech?2ap@
  00020	68 00 00 00 00	 push	 OFFSET ??_C@_0CC@BNNNEGEG@assert_client_server_remote_fn?5@
  00025	e8 00 00 00 00	 call	 ?process_assert@@YGXPBD0H@Z ; process_assert
$LN2@destroy_se:

; 208  : 
; 209  : 	destroy_remote (en);

  0002a	8b 45 08	 mov	 eax, DWORD PTR _en$[ebp]
  0002d	50		 push	 eax
  0002e	e8 00 00 00 00	 call	 ?destroy_remote@@YGXPAUENTITY@@@Z ; destroy_remote

; 210  : 
; 211  : 	validate_client_server_local_fn ();

  00033	e8 00 00 00 00	 call	 ?assert_client_server_local_fn@@YGHXZ ; assert_client_server_local_fn
  00038	85 c0		 test	 eax, eax
  0003a	75 18		 jne	 SHORT $LN3@destroy_se
  0003c	a1 00 00 00 00	 mov	 eax, DWORD PTR ?__LINE__Var@?0??destroy_server@@YGXPAUENTITY@@@Z@4JA
  00041	83 c0 09	 add	 eax, 9
  00044	50		 push	 eax
  00045	68 00 00 00 00	 push	 OFFSET ??_C@_0FE@LLMAPGIJ@c?3?2users?2nhv90?2projects?2eech?2ap@
  0004a	68 00 00 00 00	 push	 OFFSET ??_C@_0CB@CFOCLFOK@assert_client_server_local_fn?5?$CI@
  0004f	e8 00 00 00 00	 call	 ?process_assert@@YGXPBD0H@Z ; process_assert
$LN3@destroy_se:

; 212  : 
; 213  : 	//
; 214  : 	// destroy local using 'full' function
; 215  : 	//
; 216  : 
; 217  : 	destroy_local_entity (en);

  00054	8b 45 08	 mov	 eax, DWORD PTR _en$[ebp]
  00057	50		 push	 eax
  00058	e8 00 00 00 00	 call	 ?destroy_local_entity@@YGXPAUENTITY@@@Z ; destroy_local_entity

; 218  : }

  0005d	5f		 pop	 edi
  0005e	5e		 pop	 esi
  0005f	5b		 pop	 ebx
  00060	8b e5		 mov	 esp, ebp
  00062	5d		 pop	 ebp
  00063	c2 04 00	 ret	 4
?destroy_server@@YGXPAUENTITY@@@Z ENDP			; destroy_server
_TEXT	ENDS
; Function compile flags: /Odtp /ZI
; File c:\users\nhv90\projects\eech\aphavoc\source\entity\mobile\vehicle\person\ps_dstry.c
;	COMDAT ?destroy_remote@@YGXPAUENTITY@@@Z
_TEXT	SEGMENT
_en$ = 8						; size = 4
?destroy_remote@@YGXPAUENTITY@@@Z PROC			; destroy_remote, COMDAT

; 187  : {

  00000	55		 push	 ebp
  00001	8b ec		 mov	 ebp, esp
  00003	83 ec 40	 sub	 esp, 64			; 00000040H
  00006	53		 push	 ebx
  00007	56		 push	 esi
  00008	57		 push	 edi

; 188  : 	#if DEBUG_MODULE >= 2
; 189  : 
; 190  : 	debug_log_entity_args (ENTITY_DEBUG_REMOTE, ENTITY_DEBUG_DESTROY, en);
; 191  : 
; 192  : 	#endif
; 193  : 
; 194  : 	transmit_entity_comms_message (ENTITY_COMMS_DESTROY, en);

  00009	8b 45 08	 mov	 eax, DWORD PTR _en$[ebp]
  0000c	50		 push	 eax
  0000d	6a 12		 push	 18			; 00000012H
  0000f	e8 00 00 00 00	 call	 ?transmit_entity_comms_message@@YAXW4ENTITY_COMMS_MESSAGES@@PAUENTITY@@ZZ ; transmit_entity_comms_message
  00014	83 c4 08	 add	 esp, 8

; 195  : }

  00017	5f		 pop	 edi
  00018	5e		 pop	 esi
  00019	5b		 pop	 ebx
  0001a	8b e5		 mov	 esp, ebp
  0001c	5d		 pop	 ebp
  0001d	c2 04 00	 ret	 4
?destroy_remote@@YGXPAUENTITY@@@Z ENDP			; destroy_remote
_TEXT	ENDS
; Function compile flags: /Odtp /ZI
; File c:\users\nhv90\projects\eech\aphavoc\source\entity\mobile\vehicle\person\ps_dstry.c
;	COMDAT ?destroy_local@@YGXPAUENTITY@@@Z
_TEXT	SEGMENT
tv79 = -76						; size = 4
tv71 = -72						; size = 4
_raw$ = -4						; size = 4
_en$ = 8						; size = 4
?destroy_local@@YGXPAUENTITY@@@Z PROC			; destroy_local, COMDAT

; 82   : {

  00000	55		 push	 ebp
  00001	8b ec		 mov	 ebp, esp
  00003	83 ec 4c	 sub	 esp, 76			; 0000004cH
  00006	53		 push	 ebx
  00007	56		 push	 esi
  00008	57		 push	 edi

; 83   : 
; 84   : 	person
; 85   : 		*raw;
; 86   : 
; 87   : 	////////////////////////////////////////
; 88   : 	//
; 89   : 	// PRE-AMBLE
; 90   : 	//
; 91   : 	////////////////////////////////////////
; 92   : 
; 93   : 	#if DEBUG_MODULE >= 2
; 94   : 
; 95   : 	debug_log_entity_args (ENTITY_DEBUG_LOCAL, ENTITY_DEBUG_DESTROY, en);
; 96   : 
; 97   : 	#endif
; 98   : 
; 99   : 	raw = (person *) get_local_entity_data (en);

  00009	8b 45 08	 mov	 eax, DWORD PTR _en$[ebp]
  0000c	8b 48 04	 mov	 ecx, DWORD PTR [eax+4]
  0000f	89 4d fc	 mov	 DWORD PTR _raw$[ebp], ecx

; 100  : 
; 101  : 	set_local_entity_int_value (en, INT_TYPE_ALIVE, FALSE);

  00012	83 7d 08 00	 cmp	 DWORD PTR _en$[ebp], 0
  00016	74 0a		 je	 SHORT $LN4@destroy_lo
  00018	8b 45 08	 mov	 eax, DWORD PTR _en$[ebp]
  0001b	8b 08		 mov	 ecx, DWORD PTR [eax]
  0001d	89 4d b8	 mov	 DWORD PTR tv71[ebp], ecx
  00020	eb 21		 jmp	 SHORT $LN5@destroy_lo
$LN4@destroy_lo:
  00022	8b 15 00 00 00
	00		 mov	 edx, DWORD PTR ?__LINE__Var@?0??destroy_local@@YGXPAUENTITY@@@Z@4JA
  00028	83 c2 13	 add	 edx, 19			; 00000013H
  0002b	52		 push	 edx
  0002c	68 00 00 00 00	 push	 OFFSET ??_C@_0FE@LLMAPGIJ@c?3?2users?2nhv90?2projects?2eech?2ap@
  00031	a1 00 00 00 00	 mov	 eax, DWORD PTR ?null_entity_pointer_message@@3PBDB ; null_entity_pointer_message
  00036	50		 push	 eax
  00037	e8 00 00 00 00	 call	 ?process_assert@@YGXPBD0H@Z ; process_assert
  0003c	c7 45 b8 00 00
	00 00		 mov	 DWORD PTR tv71[ebp], 0
$LN5@destroy_lo:
  00043	b9 01 00 00 00	 mov	 ecx, 1
  00048	85 c9		 test	 ecx, ecx
  0004a	74 09		 je	 SHORT $LN6@destroy_lo
  0004c	c7 45 b4 07 00
	00 00		 mov	 DWORD PTR tv79[ebp], 7
  00053	eb 21		 jmp	 SHORT $LN7@destroy_lo
$LN6@destroy_lo:
  00055	8b 15 00 00 00
	00		 mov	 edx, DWORD PTR ?__LINE__Var@?0??destroy_local@@YGXPAUENTITY@@@Z@4JA
  0005b	83 c2 13	 add	 edx, 19			; 00000013H
  0005e	52		 push	 edx
  0005f	68 00 00 00 00	 push	 OFFSET ??_C@_0FE@LLMAPGIJ@c?3?2users?2nhv90?2projects?2eech?2ap@
  00064	a1 00 00 00 00	 mov	 eax, DWORD PTR ?overload_invalid_int_type_message@@3PBDB ; overload_invalid_int_type_message
  00069	50		 push	 eax
  0006a	e8 00 00 00 00	 call	 ?process_assert@@YGXPBD0H@Z ; process_assert
  0006f	c7 45 b4 00 00
	00 00		 mov	 DWORD PTR tv79[ebp], 0
$LN7@destroy_lo:
  00076	6a 00		 push	 0
  00078	6a 07		 push	 7
  0007a	8b 4d 08	 mov	 ecx, DWORD PTR _en$[ebp]
  0007d	51		 push	 ecx
  0007e	69 55 b8 5c 04
	00 00		 imul	 edx, DWORD PTR tv71[ebp], 1116
  00085	8b 45 b4	 mov	 eax, DWORD PTR tv79[ebp]
  00088	8b 8c 82 00 00
	00 00		 mov	 ecx, DWORD PTR ?fn_set_local_entity_int_value@@3PAY0BBH@P6GXPAUENTITY@@W4INT_TYPES@@H@ZA[edx+eax*4]
  0008f	ff d1		 call	 ecx

; 102  : 
; 103  : 	////////////////////////////////////////
; 104  : 	//
; 105  : 	// VALIDATE
; 106  : 	//
; 107  : 	////////////////////////////////////////
; 108  : 
; 109  : 	////////////////////////////////////////
; 110  : 	//
; 111  : 	// DESTROY COMPONENTS
; 112  : 	//
; 113  : 	////////////////////////////////////////
; 114  : 
; 115  : 	destruct_3d_object (raw->vh.inst3d);

  00091	8b 45 fc	 mov	 eax, DWORD PTR _raw$[ebp]
  00094	8b 88 84 00 00
	00		 mov	 ecx, DWORD PTR [eax+132]
  0009a	51		 push	 ecx
  0009b	e8 00 00 00 00	 call	 ?destruct_3d_object@@YGXPAUOBJECT_3D_INSTANCE@@@Z ; destruct_3d_object

; 116  : 
; 117  : 	free_mem (raw->vh.weapon_package_status_array);

  000a0	8b 45 fc	 mov	 eax, DWORD PTR _raw$[ebp]
  000a3	8b 88 18 01 00
	00		 mov	 ecx, DWORD PTR [eax+280]
  000a9	51		 push	 ecx
  000aa	e8 00 00 00 00	 call	 ?free_mem@@YGXPAX@Z	; free_mem

; 118  : 
; 119  : 	if (raw->vh.sound_effect_data)

  000af	8b 45 fc	 mov	 eax, DWORD PTR _raw$[ebp]
  000b2	83 b8 20 01 00
	00 00		 cmp	 DWORD PTR [eax+288], 0
  000b9	74 0f		 je	 SHORT $LN2@destroy_lo

; 120  : 	{
; 121  : 
; 122  : 		destroy_system_sound_effect (raw->vh.sound_effect_data);

  000bb	8b 45 fc	 mov	 eax, DWORD PTR _raw$[ebp]
  000be	8b 88 20 01 00
	00		 mov	 ecx, DWORD PTR [eax+288]
  000c4	51		 push	 ecx
  000c5	e8 00 00 00 00	 call	 ?destroy_system_sound_effect@@YGXPAUSYSTEM_SOUND_EFFECT@@@Z ; destroy_system_sound_effect
$LN2@destroy_lo:

; 123  : 	}
; 124  : 
; 125  : 	////////////////////////////////////////
; 126  : 	//
; 127  : 	// UNLINK FROM SYSTEM
; 128  : 	//
; 129  : 	////////////////////////////////////////
; 130  : 
; 131  : 	//
; 132  : 	// person
; 133  : 	//
; 134  : 
; 135  : 	//
; 136  : 	// vehicle
; 137  : 	//
; 138  : 
; 139  : 	unlink_local_entity_children (en, LIST_TYPE_TASK_DEPENDENT);

  000ca	6a 27		 push	 39			; 00000027H
  000cc	8b 45 08	 mov	 eax, DWORD PTR _en$[ebp]
  000cf	50		 push	 eax
  000d0	e8 00 00 00 00	 call	 ?unlink_local_entity_children@@YGXPAUENTITY@@W4LIST_TYPES@@@Z ; unlink_local_entity_children

; 140  : 
; 141  : 	unlink_local_entity_children (en, LIST_TYPE_LAUNCHED_WEAPON);

  000d5	6a 18		 push	 24			; 00000018H
  000d7	8b 45 08	 mov	 eax, DWORD PTR _en$[ebp]
  000da	50		 push	 eax
  000db	e8 00 00 00 00	 call	 ?unlink_local_entity_children@@YGXPAUENTITY@@W4LIST_TYPES@@@Z ; unlink_local_entity_children

; 142  : 
; 143  : 	delete_local_entity_from_parents_child_list (en, LIST_TYPE_FOLLOWER);

  000e0	6a 0d		 push	 13			; 0000000dH
  000e2	8b 45 08	 mov	 eax, DWORD PTR _en$[ebp]
  000e5	50		 push	 eax
  000e6	e8 00 00 00 00	 call	 ?delete_local_entity_from_parents_child_list@@YGXPAUENTITY@@W4LIST_TYPES@@@Z ; delete_local_entity_from_parents_child_list

; 144  : 
; 145  : 	delete_local_entity_from_parents_child_list (en, LIST_TYPE_DESIGNATED_TARGET); // Jabberwock 031107 Designated targets

  000eb	6a 0a		 push	 10			; 0000000aH
  000ed	8b 45 08	 mov	 eax, DWORD PTR _en$[ebp]
  000f0	50		 push	 eax
  000f1	e8 00 00 00 00	 call	 ?delete_local_entity_from_parents_child_list@@YGXPAUENTITY@@W4LIST_TYPES@@@Z ; delete_local_entity_from_parents_child_list

; 146  : 
; 147  : 	delete_local_entity_from_parents_child_list (en, LIST_TYPE_GUNSHIP_TARGET);

  000f6	6a 12		 push	 18			; 00000012H
  000f8	8b 45 08	 mov	 eax, DWORD PTR _en$[ebp]
  000fb	50		 push	 eax
  000fc	e8 00 00 00 00	 call	 ?delete_local_entity_from_parents_child_list@@YGXPAUENTITY@@W4LIST_TYPES@@@Z ; delete_local_entity_from_parents_child_list

; 148  : 
; 149  : 	delete_local_entity_from_parents_child_list (en, LIST_TYPE_MEMBER);

  00101	6a 19		 push	 25			; 00000019H
  00103	8b 45 08	 mov	 eax, DWORD PTR _en$[ebp]
  00106	50		 push	 eax
  00107	e8 00 00 00 00	 call	 ?delete_local_entity_from_parents_child_list@@YGXPAUENTITY@@W4LIST_TYPES@@@Z ; delete_local_entity_from_parents_child_list

; 150  : 
; 151  : 	delete_local_entity_from_parents_child_list (en, LIST_TYPE_VIEW);

  0010c	6a 2a		 push	 42			; 0000002aH
  0010e	8b 45 08	 mov	 eax, DWORD PTR _en$[ebp]
  00111	50		 push	 eax
  00112	e8 00 00 00 00	 call	 ?delete_local_entity_from_parents_child_list@@YGXPAUENTITY@@W4LIST_TYPES@@@Z ; delete_local_entity_from_parents_child_list

; 152  : 
; 153  : 	delete_local_entity_from_parents_child_list (en, LIST_TYPE_TAKEOFF_QUEUE);

  00117	6a 25		 push	 37			; 00000025H
  00119	8b 45 08	 mov	 eax, DWORD PTR _en$[ebp]
  0011c	50		 push	 eax
  0011d	e8 00 00 00 00	 call	 ?delete_local_entity_from_parents_child_list@@YGXPAUENTITY@@W4LIST_TYPES@@@Z ; delete_local_entity_from_parents_child_list

; 154  : 
; 155  : 	//
; 156  : 	// mobile
; 157  : 	//
; 158  : 
; 159  : 	unlink_local_entity_children (en, LIST_TYPE_SPECIAL_EFFECT);

  00122	6a 24		 push	 36			; 00000024H
  00124	8b 45 08	 mov	 eax, DWORD PTR _en$[ebp]
  00127	50		 push	 eax
  00128	e8 00 00 00 00	 call	 ?unlink_local_entity_children@@YGXPAUENTITY@@W4LIST_TYPES@@@Z ; unlink_local_entity_children

; 160  : 
; 161  : 	unlink_local_entity_children (en, LIST_TYPE_TARGET);

  0012d	6a 26		 push	 38			; 00000026H
  0012f	8b 45 08	 mov	 eax, DWORD PTR _en$[ebp]
  00132	50		 push	 eax
  00133	e8 00 00 00 00	 call	 ?unlink_local_entity_children@@YGXPAUENTITY@@W4LIST_TYPES@@@Z ; unlink_local_entity_children

; 162  : 
; 163  : 	delete_local_entity_from_parents_child_list (en, LIST_TYPE_PADLOCK);

  00138	6a 1b		 push	 27			; 0000001bH
  0013a	8b 45 08	 mov	 eax, DWORD PTR _en$[ebp]
  0013d	50		 push	 eax
  0013e	e8 00 00 00 00	 call	 ?delete_local_entity_from_parents_child_list@@YGXPAUENTITY@@W4LIST_TYPES@@@Z ; delete_local_entity_from_parents_child_list

; 164  : 
; 165  : 	delete_local_entity_from_parents_child_list (en, LIST_TYPE_SECTOR);

  00143	6a 21		 push	 33			; 00000021H
  00145	8b 45 08	 mov	 eax, DWORD PTR _en$[ebp]
  00148	50		 push	 eax
  00149	e8 00 00 00 00	 call	 ?delete_local_entity_from_parents_child_list@@YGXPAUENTITY@@W4LIST_TYPES@@@Z ; delete_local_entity_from_parents_child_list

; 166  : 
; 167  : 	delete_local_entity_from_parents_child_list (en, LIST_TYPE_TARGET);

  0014e	6a 26		 push	 38			; 00000026H
  00150	8b 45 08	 mov	 eax, DWORD PTR _en$[ebp]
  00153	50		 push	 eax
  00154	e8 00 00 00 00	 call	 ?delete_local_entity_from_parents_child_list@@YGXPAUENTITY@@W4LIST_TYPES@@@Z ; delete_local_entity_from_parents_child_list

; 168  : 
; 169  : 	delete_local_entity_from_parents_child_list (en, LIST_TYPE_UPDATE);

  00159	6a 29		 push	 41			; 00000029H
  0015b	8b 45 08	 mov	 eax, DWORD PTR _en$[ebp]
  0015e	50		 push	 eax
  0015f	e8 00 00 00 00	 call	 ?delete_local_entity_from_parents_child_list@@YGXPAUENTITY@@W4LIST_TYPES@@@Z ; delete_local_entity_from_parents_child_list

; 170  : 
; 171  : 	////////////////////////////////////////
; 172  : 	//
; 173  : 	// FREE ENTITY DATA
; 174  : 	//
; 175  : 	////////////////////////////////////////
; 176  : 
; 177  : 	free_mem (raw);

  00164	8b 45 fc	 mov	 eax, DWORD PTR _raw$[ebp]
  00167	50		 push	 eax
  00168	e8 00 00 00 00	 call	 ?free_mem@@YGXPAX@Z	; free_mem

; 178  : 
; 179  : 	set_free_entity (en);

  0016d	8b 45 08	 mov	 eax, DWORD PTR _en$[ebp]
  00170	50		 push	 eax
  00171	e8 00 00 00 00	 call	 ?set_free_entity@@YGXPAUENTITY@@@Z ; set_free_entity

; 180  : }

  00176	5f		 pop	 edi
  00177	5e		 pop	 esi
  00178	5b		 pop	 ebx
  00179	8b e5		 mov	 esp, ebp
  0017b	5d		 pop	 ebp
  0017c	c2 04 00	 ret	 4
?destroy_local@@YGXPAUENTITY@@@Z ENDP			; destroy_local
_TEXT	ENDS
; Function compile flags: /Odtp /ZI
; File c:\users\nhv90\projects\eech\aphavoc\source\entity\mobile\vehicle\person\ps_dstry.c
;	COMDAT ?overload_person_destroy_functions@@YGXXZ
_TEXT	SEGMENT
?overload_person_destroy_functions@@YGXXZ PROC		; overload_person_destroy_functions, COMDAT

; 555  : {

  00000	55		 push	 ebp
  00001	8b ec		 mov	 ebp, esp
  00003	83 ec 40	 sub	 esp, 64			; 00000040H
  00006	53		 push	 ebx
  00007	56		 push	 esi
  00008	57		 push	 edi

; 556  : 	fn_destroy_local_entity						[ENTITY_TYPE_PERSON]									= destroy_local;

  00009	b8 04 00 00 00	 mov	 eax, 4
  0000e	6b c8 13	 imul	 ecx, eax, 19
  00011	c7 81 00 00 00
	00 00 00 00 00	 mov	 DWORD PTR ?fn_destroy_local_entity@@3PAP6GXPAUENTITY@@@ZA[ecx], OFFSET ?destroy_local@@YGXPAUENTITY@@@Z ; destroy_local

; 557  : 	fn_destroy_client_server_entity			[ENTITY_TYPE_PERSON][COMMS_MODEL_SERVER]		= destroy_server;

  0001b	b8 08 00 00 00	 mov	 eax, 8
  00020	6b c8 13	 imul	 ecx, eax, 19
  00023	ba 04 00 00 00	 mov	 edx, 4
  00028	6b c2 00	 imul	 eax, edx, 0
  0002b	c7 84 01 00 00
	00 00 00 00 00
	00		 mov	 DWORD PTR ?fn_destroy_client_server_entity@@3PAY01P6GXPAUENTITY@@@ZA[ecx+eax], OFFSET ?destroy_server@@YGXPAUENTITY@@@Z ; destroy_server

; 558  : 	fn_destroy_client_server_entity			[ENTITY_TYPE_PERSON][COMMS_MODEL_CLIENT]		= destroy_client;

  00036	b8 08 00 00 00	 mov	 eax, 8
  0003b	6b c8 13	 imul	 ecx, eax, 19
  0003e	ba 04 00 00 00	 mov	 edx, 4
  00043	c1 e2 00	 shl	 edx, 0
  00046	c7 84 11 00 00
	00 00 00 00 00
	00		 mov	 DWORD PTR ?fn_destroy_client_server_entity@@3PAY01P6GXPAUENTITY@@@ZA[ecx+edx], OFFSET ?destroy_client@@YGXPAUENTITY@@@Z ; destroy_client

; 559  : 
; 560  : 	fn_destroy_local_entity_family			[ENTITY_TYPE_PERSON]									= destroy_local_family;

  00051	b8 04 00 00 00	 mov	 eax, 4
  00056	6b c8 13	 imul	 ecx, eax, 19
  00059	c7 81 00 00 00
	00 00 00 00 00	 mov	 DWORD PTR ?fn_destroy_local_entity_family@@3PAP6GXPAUENTITY@@@ZA[ecx], OFFSET ?destroy_local_family@@YGXPAUENTITY@@@Z ; destroy_local_family

; 561  : 	fn_destroy_client_server_entity_family	[ENTITY_TYPE_PERSON][COMMS_MODEL_SERVER]		= destroy_server_family;

  00063	b8 08 00 00 00	 mov	 eax, 8
  00068	6b c8 13	 imul	 ecx, eax, 19
  0006b	ba 04 00 00 00	 mov	 edx, 4
  00070	6b c2 00	 imul	 eax, edx, 0
  00073	c7 84 01 00 00
	00 00 00 00 00
	00		 mov	 DWORD PTR ?fn_destroy_client_server_entity_family@@3PAY01P6GXPAUENTITY@@@ZA[ecx+eax], OFFSET ?destroy_server_family@@YGXPAUENTITY@@@Z ; destroy_server_family

; 562  : 	fn_destroy_client_server_entity_family	[ENTITY_TYPE_PERSON][COMMS_MODEL_CLIENT]		= destroy_client_family;

  0007e	b8 08 00 00 00	 mov	 eax, 8
  00083	6b c8 13	 imul	 ecx, eax, 19
  00086	ba 04 00 00 00	 mov	 edx, 4
  0008b	c1 e2 00	 shl	 edx, 0
  0008e	c7 84 11 00 00
	00 00 00 00 00
	00		 mov	 DWORD PTR ?fn_destroy_client_server_entity_family@@3PAY01P6GXPAUENTITY@@@ZA[ecx+edx], OFFSET ?destroy_client_family@@YGXPAUENTITY@@@Z ; destroy_client_family

; 563  : 
; 564  : 	fn_kill_local_entity							[ENTITY_TYPE_PERSON]									= kill_local;

  00099	b8 04 00 00 00	 mov	 eax, 4
  0009e	6b c8 13	 imul	 ecx, eax, 19
  000a1	c7 81 00 00 00
	00 00 00 00 00	 mov	 DWORD PTR ?fn_kill_local_entity@@3PAP6GXPAUENTITY@@@ZA[ecx], OFFSET ?kill_local@@YGXPAUENTITY@@@Z ; kill_local

; 565  : 	fn_kill_client_server_entity				[ENTITY_TYPE_PERSON][COMMS_MODEL_SERVER]		= kill_server;

  000ab	b8 08 00 00 00	 mov	 eax, 8
  000b0	6b c8 13	 imul	 ecx, eax, 19
  000b3	ba 04 00 00 00	 mov	 edx, 4
  000b8	6b c2 00	 imul	 eax, edx, 0
  000bb	c7 84 01 00 00
	00 00 00 00 00
	00		 mov	 DWORD PTR ?fn_kill_client_server_entity@@3PAY01P6GXPAUENTITY@@@ZA[ecx+eax], OFFSET ?kill_server@@YGXPAUENTITY@@@Z ; kill_server

; 566  : 	fn_kill_client_server_entity				[ENTITY_TYPE_PERSON][COMMS_MODEL_CLIENT]		= kill_client;

  000c6	b8 08 00 00 00	 mov	 eax, 8
  000cb	6b c8 13	 imul	 ecx, eax, 19
  000ce	ba 04 00 00 00	 mov	 edx, 4
  000d3	c1 e2 00	 shl	 edx, 0
  000d6	c7 84 11 00 00
	00 00 00 00 00
	00		 mov	 DWORD PTR ?fn_kill_client_server_entity@@3PAY01P6GXPAUENTITY@@@ZA[ecx+edx], OFFSET ?kill_client@@YGXPAUENTITY@@@Z ; kill_client

; 567  : }

  000e1	5f		 pop	 edi
  000e2	5e		 pop	 esi
  000e3	5b		 pop	 ebx
  000e4	8b e5		 mov	 esp, ebp
  000e6	5d		 pop	 ebp
  000e7	c3		 ret	 0
?overload_person_destroy_functions@@YGXXZ ENDP		; overload_person_destroy_functions
_TEXT	ENDS
END
