; Listing generated by Microsoft (R) Optimizing Compiler Version 19.16.27045.0 

	TITLE	C:\Users\nhv90\Projects\eech\aphavoc\source\entity\mobile\vehicle\person\ps_pack.c
	.686P
	.XMM
	include listing.inc
	.model	flat

INCLUDELIB MSVCRTD
INCLUDELIB OLDNAMES

PUBLIC	?overload_person_pack_functions@@YGXXZ		; overload_person_pack_functions
PUBLIC	?__LINE__Var@?0??pack_local_data@@YGXPAUENTITY@@W4PACK_MODES@@@Z@4JA ; `pack_local_data'::`1'::__LINE__Var
PUBLIC	??_C@_0FD@BBHAPLOA@c?3?2users?2nhv90?2projects?2eech?2ap@ ; `string'
PUBLIC	??_C@_0CH@MMFDPOBJ@?$CImode?5?$DO?$DN?50?$CJ?5?$CG?$CG?5?$CImode?5?$DM?5NUM_PACK@ ; `string'
PUBLIC	?__LINE__Var@?0??unpack_local_data@@YGXPAUENTITY@@W4ENTITY_TYPES@@W4PACK_MODES@@@Z@4JA ; `unpack_local_data'::`1'::__LINE__Var
EXTRN	_memset:PROC
EXTRN	?process_assert@@YGXPBD0H@Z:PROC		; process_assert
EXTRN	?malloc_fast_memory@@YGPAXI@Z:PROC		; malloc_fast_memory
EXTRN	?pack_entity_type@@YGXW4ENTITY_TYPES@@@Z:PROC	; pack_entity_type
EXTRN	?insert_local_entity_into_parents_child_list@@YGXPAUENTITY@@W4LIST_TYPES@@00@Z:PROC ; insert_local_entity_into_parents_child_list
EXTRN	?pack_float_value@@YGXPAUENTITY@@W4FLOAT_TYPES@@M@Z:PROC ; pack_float_value
EXTRN	?unpack_float_value@@YGMPAUENTITY@@W4FLOAT_TYPES@@@Z:PROC ; unpack_float_value
EXTRN	?get_free_entity@@YGPAUENTITY@@H@Z:PROC		; get_free_entity
EXTRN	?unpack_entity_safe_index@@YGHXZ:PROC		; unpack_entity_safe_index
EXTRN	?pack_entity_safe_ptr@@YGXPAUENTITY@@@Z:PROC	; pack_entity_safe_ptr
EXTRN	?pack_vehicle_data@@YGXPAUENTITY@@PAUVEHICLE@@W4PACK_MODES@@@Z:PROC ; pack_vehicle_data
EXTRN	?unpack_vehicle_data@@YGXPAUENTITY@@PAUVEHICLE@@W4PACK_MODES@@@Z:PROC ; unpack_vehicle_data
EXTRN	?get_local_sector_entity@@YGPAUENTITY@@PAUVEC3D@@@Z:PROC ; get_local_sector_entity
EXTRN	?null_entity_pointer_message@@3PBDB:DWORD	; null_entity_pointer_message
EXTRN	?fn_pack_local_entity_data@@3PAP6GXPAUENTITY@@W4PACK_MODES@@@ZA:BYTE ; fn_pack_local_entity_data
EXTRN	?fn_unpack_local_entity_data@@3PAP6GXPAUENTITY@@W4ENTITY_TYPES@@W4PACK_MODES@@@ZA:BYTE ; fn_unpack_local_entity_data
EXTRN	?camera_entity@@3PAUENTITY@@A:DWORD		; camera_entity
EXTRN	?update_entity@@3PAUENTITY@@A:DWORD		; update_entity
EXTRN	__fltused:DWORD
;	COMDAT ?__LINE__Var@?0??unpack_local_data@@YGXPAUENTITY@@W4ENTITY_TYPES@@W4PACK_MODES@@@Z@4JA
_DATA	SEGMENT
?__LINE__Var@?0??unpack_local_data@@YGXPAUENTITY@@W4ENTITY_TYPES@@W4PACK_MODES@@@Z@4JA DD 084H ; `unpack_local_data'::`1'::__LINE__Var
_DATA	ENDS
;	COMDAT ??_C@_0CH@MMFDPOBJ@?$CImode?5?$DO?$DN?50?$CJ?5?$CG?$CG?5?$CImode?5?$DM?5NUM_PACK@
CONST	SEGMENT
??_C@_0CH@MMFDPOBJ@?$CImode?5?$DO?$DN?50?$CJ?5?$CG?$CG?5?$CImode?5?$DM?5NUM_PACK@ DB '('
	DB	'mode >= 0) && (mode < NUM_PACK_MODES)', 00H	; `string'
CONST	ENDS
;	COMDAT ??_C@_0FD@BBHAPLOA@c?3?2users?2nhv90?2projects?2eech?2ap@
CONST	SEGMENT
??_C@_0FD@BBHAPLOA@c?3?2users?2nhv90?2projects?2eech?2ap@ DB 'c:\users\nh'
	DB	'v90\projects\eech\aphavoc\source\entity\mobile\vehicle\person'
	DB	'\ps_pack.c', 00H				; `string'
CONST	ENDS
;	COMDAT ?__LINE__Var@?0??pack_local_data@@YGXPAUENTITY@@W4PACK_MODES@@@Z@4JA
_DATA	SEGMENT
?__LINE__Var@?0??pack_local_data@@YGXPAUENTITY@@W4PACK_MODES@@@Z@4JA DD 050H ; `pack_local_data'::`1'::__LINE__Var
_DATA	ENDS
; Function compile flags: /Odtp /ZI
; File c:\users\nhv90\projects\eech\aphavoc\source\entity\mobile\vehicle\person\ps_pack.c
;	COMDAT ?unpack_local_data@@YGXPAUENTITY@@W4ENTITY_TYPES@@W4PACK_MODES@@@Z
_TEXT	SEGMENT
tv70 = -76						; size = 4
_raw$1 = -8						; size = 4
_index$2 = -4						; size = 4
_en$ = 8						; size = 4
_type$ = 12						; size = 4
_mode$ = 16						; size = 4
?unpack_local_data@@YGXPAUENTITY@@W4ENTITY_TYPES@@W4PACK_MODES@@@Z PROC ; unpack_local_data, COMDAT

; 132  : {

  00000	55		 push	 ebp
  00001	8b ec		 mov	 ebp, esp
  00003	83 ec 4c	 sub	 esp, 76			; 0000004cH
  00006	53		 push	 ebx
  00007	56		 push	 esi
  00008	57		 push	 edi

; 133  : 	ASSERT ((mode >= 0) && (mode < NUM_PACK_MODES));

  00009	83 7d 10 00	 cmp	 DWORD PTR _mode$[ebp], 0
  0000d	7c 06		 jl	 SHORT $LN5@unpack_loc
  0000f	83 7d 10 04	 cmp	 DWORD PTR _mode$[ebp], 4
  00013	7c 18		 jl	 SHORT $LN4@unpack_loc
$LN5@unpack_loc:
  00015	a1 00 00 00 00	 mov	 eax, DWORD PTR ?__LINE__Var@?0??unpack_local_data@@YGXPAUENTITY@@W4ENTITY_TYPES@@W4PACK_MODES@@@Z@4JA
  0001a	83 c0 01	 add	 eax, 1
  0001d	50		 push	 eax
  0001e	68 00 00 00 00	 push	 OFFSET ??_C@_0FD@BBHAPLOA@c?3?2users?2nhv90?2projects?2eech?2ap@
  00023	68 00 00 00 00	 push	 OFFSET ??_C@_0CH@MMFDPOBJ@?$CImode?5?$DO?$DN?50?$CJ?5?$CG?$CG?5?$CImode?5?$DM?5NUM_PACK@
  00028	e8 00 00 00 00	 call	 ?process_assert@@YGXPBD0H@Z ; process_assert
$LN4@unpack_loc:

; 134  : 
; 135  : 	switch (mode)

  0002d	8b 45 10	 mov	 eax, DWORD PTR _mode$[ebp]
  00030	89 45 b4	 mov	 DWORD PTR tv70[ebp], eax
  00033	83 7d b4 00	 cmp	 DWORD PTR tv70[ebp], 0
  00037	0f 8c b5 00 00
	00		 jl	 $LN2@unpack_loc
  0003d	83 7d b4 01	 cmp	 DWORD PTR tv70[ebp], 1
  00041	7e 05		 jle	 SHORT $LN6@unpack_loc
  00043	e9 aa 00 00 00	 jmp	 $LN2@unpack_loc
$LN6@unpack_loc:

; 136  : 	{
; 137  : 		////////////////////////////////////////
; 138  : 		case PACK_MODE_SERVER_SESSION:
; 139  : 		case PACK_MODE_CLIENT_SESSION:
; 140  : 		////////////////////////////////////////
; 141  : 		{
; 142  : 			//
; 143  : 			// create entity
; 144  : 			//
; 145  : 			int
; 146  : 				index;
; 147  : 
; 148  : 			person
; 149  : 				*raw;
; 150  : 
; 151  : 
; 152  : 			index = unpack_entity_safe_index ();

  00048	e8 00 00 00 00	 call	 ?unpack_entity_safe_index@@YGHXZ ; unpack_entity_safe_index
  0004d	89 45 fc	 mov	 DWORD PTR _index$2[ebp], eax

; 153  : 
; 154  : 			en = get_free_entity (index);

  00050	8b 45 fc	 mov	 eax, DWORD PTR _index$2[ebp]
  00053	50		 push	 eax
  00054	e8 00 00 00 00	 call	 ?get_free_entity@@YGPAUENTITY@@H@Z ; get_free_entity
  00059	89 45 08	 mov	 DWORD PTR _en$[ebp], eax

; 155  : 
; 156  : 			set_local_entity_type (en, type);

  0005c	8b 45 08	 mov	 eax, DWORD PTR _en$[ebp]
  0005f	8b 4d 0c	 mov	 ecx, DWORD PTR _type$[ebp]
  00062	89 08		 mov	 DWORD PTR [eax], ecx

; 157  : 
; 158  : 			raw = (person *) malloc_fast_mem (sizeof (person));

  00064	68 7c 01 00 00	 push	 380			; 0000017cH
  00069	e8 00 00 00 00	 call	 ?malloc_fast_memory@@YGPAXI@Z ; malloc_fast_memory
  0006e	89 45 f8	 mov	 DWORD PTR _raw$1[ebp], eax

; 159  : 
; 160  : 			set_local_entity_data (en, raw);

  00071	8b 45 08	 mov	 eax, DWORD PTR _en$[ebp]
  00074	8b 4d f8	 mov	 ecx, DWORD PTR _raw$1[ebp]
  00077	89 48 04	 mov	 DWORD PTR [eax+4], ecx

; 161  : 
; 162  : 			memset (raw, 0, sizeof (person));

  0007a	68 7c 01 00 00	 push	 380			; 0000017cH
  0007f	6a 00		 push	 0
  00081	8b 45 f8	 mov	 eax, DWORD PTR _raw$1[ebp]
  00084	50		 push	 eax
  00085	e8 00 00 00 00	 call	 _memset
  0008a	83 c4 0c	 add	 esp, 12			; 0000000cH

; 163  : 
; 164  : 			//
; 165  : 			// unpack data (in exactly the same order as the data was packed)
; 166  : 			//
; 167  : 
; 168  : 			// vehicle data
; 169  : 
; 170  : 			unpack_vehicle_data (en, &raw->vh, mode);

  0008d	8b 45 10	 mov	 eax, DWORD PTR _mode$[ebp]
  00090	50		 push	 eax
  00091	8b 4d f8	 mov	 ecx, DWORD PTR _raw$1[ebp]
  00094	51		 push	 ecx
  00095	8b 55 08	 mov	 edx, DWORD PTR _en$[ebp]
  00098	52		 push	 edx
  00099	e8 00 00 00 00	 call	 ?unpack_vehicle_data@@YGXPAUENTITY@@PAUVEHICLE@@W4PACK_MODES@@@Z ; unpack_vehicle_data

; 171  : 
; 172  : 			// animation state
; 173  : 
; 174  : 			raw->person_animation_state = unpack_float_value (en, FLOAT_TYPE_PERSON_ANIMATION_STATE);

  0009e	6a 53		 push	 83			; 00000053H
  000a0	8b 45 08	 mov	 eax, DWORD PTR _en$[ebp]
  000a3	50		 push	 eax
  000a4	e8 00 00 00 00	 call	 ?unpack_float_value@@YGMPAUENTITY@@W4FLOAT_TYPES@@@Z ; unpack_float_value
  000a9	8b 4d f8	 mov	 ecx, DWORD PTR _raw$1[ebp]
  000ac	d9 99 78 01 00
	00		 fstp	 DWORD PTR [ecx+376]

; 175  : 
; 176  : 			//
; 177  : 			// link into system
; 178  : 			//
; 179  : 
; 180  : 			insert_local_entity_into_parents_child_list (en, LIST_TYPE_VIEW, get_camera_entity (), NULL);

  000b2	6a 00		 push	 0
  000b4	a1 00 00 00 00	 mov	 eax, DWORD PTR ?camera_entity@@3PAUENTITY@@A ; camera_entity
  000b9	50		 push	 eax
  000ba	6a 2a		 push	 42			; 0000002aH
  000bc	8b 4d 08	 mov	 ecx, DWORD PTR _en$[ebp]
  000bf	51		 push	 ecx
  000c0	e8 00 00 00 00	 call	 ?insert_local_entity_into_parents_child_list@@YGXPAUENTITY@@W4LIST_TYPES@@00@Z ; insert_local_entity_into_parents_child_list

; 181  : 
; 182  : 			insert_local_entity_into_parents_child_list (en, LIST_TYPE_SECTOR, get_local_sector_entity (&raw->vh.mob.position), NULL);

  000c5	6a 00		 push	 0
  000c7	8b 45 f8	 mov	 eax, DWORD PTR _raw$1[ebp]
  000ca	83 c0 04	 add	 eax, 4
  000cd	50		 push	 eax
  000ce	e8 00 00 00 00	 call	 ?get_local_sector_entity@@YGPAUENTITY@@PAUVEC3D@@@Z ; get_local_sector_entity
  000d3	50		 push	 eax
  000d4	6a 21		 push	 33			; 00000021H
  000d6	8b 4d 08	 mov	 ecx, DWORD PTR _en$[ebp]
  000d9	51		 push	 ecx
  000da	e8 00 00 00 00	 call	 ?insert_local_entity_into_parents_child_list@@YGXPAUENTITY@@W4LIST_TYPES@@00@Z ; insert_local_entity_into_parents_child_list

; 183  : 
; 184  : 			insert_local_entity_into_parents_child_list (en, LIST_TYPE_UPDATE, get_update_entity (), NULL);

  000df	6a 00		 push	 0
  000e1	a1 00 00 00 00	 mov	 eax, DWORD PTR ?update_entity@@3PAUENTITY@@A ; update_entity
  000e6	50		 push	 eax
  000e7	6a 29		 push	 41			; 00000029H
  000e9	8b 4d 08	 mov	 ecx, DWORD PTR _en$[ebp]
  000ec	51		 push	 ecx
  000ed	e8 00 00 00 00	 call	 ?insert_local_entity_into_parents_child_list@@YGXPAUENTITY@@W4LIST_TYPES@@00@Z ; insert_local_entity_into_parents_child_list
$LN2@unpack_loc:

; 185  : 
; 186  : 			break;
; 187  : 		}
; 188  : 		////////////////////////////////////////
; 189  : 		case PACK_MODE_BROWSE_SESSION:
; 190  : 		////////////////////////////////////////
; 191  : 		{
; 192  : 
; 193  : 			break;
; 194  : 		}
; 195  : 		////////////////////////////////////////
; 196  : 		case PACK_MODE_UPDATE_ENTITY:
; 197  : 		////////////////////////////////////////
; 198  : 		{
; 199  : 
; 200  : 			break;
; 201  : 		}
; 202  : 	}
; 203  : }

  000f2	5f		 pop	 edi
  000f3	5e		 pop	 esi
  000f4	5b		 pop	 ebx
  000f5	8b e5		 mov	 esp, ebp
  000f7	5d		 pop	 ebp
  000f8	c2 0c 00	 ret	 12			; 0000000cH
?unpack_local_data@@YGXPAUENTITY@@W4ENTITY_TYPES@@W4PACK_MODES@@@Z ENDP ; unpack_local_data
_TEXT	ENDS
; Function compile flags: /Odtp /ZI
; File c:\users\nhv90\projects\eech\aphavoc\source\entity\mobile\vehicle\person\ps_pack.c
;	COMDAT ?pack_local_data@@YGXPAUENTITY@@W4PACK_MODES@@@Z
_TEXT	SEGMENT
tv78 = -72						; size = 4
tv70 = -72						; size = 4
_raw$ = -4						; size = 4
_en$ = 8						; size = 4
_mode$ = 12						; size = 4
?pack_local_data@@YGXPAUENTITY@@W4PACK_MODES@@@Z PROC	; pack_local_data, COMDAT

; 80   : {

  00000	55		 push	 ebp
  00001	8b ec		 mov	 ebp, esp
  00003	83 ec 48	 sub	 esp, 72			; 00000048H
  00006	53		 push	 ebx
  00007	56		 push	 esi
  00008	57		 push	 edi

; 81   : 	person
; 82   : 		*raw;
; 83   : 
; 84   : 	ASSERT ((mode >= 0) && (mode < NUM_PACK_MODES));

  00009	83 7d 0c 00	 cmp	 DWORD PTR _mode$[ebp], 0
  0000d	7c 06		 jl	 SHORT $LN5@pack_local
  0000f	83 7d 0c 04	 cmp	 DWORD PTR _mode$[ebp], 4
  00013	7c 18		 jl	 SHORT $LN4@pack_local
$LN5@pack_local:
  00015	a1 00 00 00 00	 mov	 eax, DWORD PTR ?__LINE__Var@?0??pack_local_data@@YGXPAUENTITY@@W4PACK_MODES@@@Z@4JA
  0001a	83 c0 04	 add	 eax, 4
  0001d	50		 push	 eax
  0001e	68 00 00 00 00	 push	 OFFSET ??_C@_0FD@BBHAPLOA@c?3?2users?2nhv90?2projects?2eech?2ap@
  00023	68 00 00 00 00	 push	 OFFSET ??_C@_0CH@MMFDPOBJ@?$CImode?5?$DO?$DN?50?$CJ?5?$CG?$CG?5?$CImode?5?$DM?5NUM_PACK@
  00028	e8 00 00 00 00	 call	 ?process_assert@@YGXPBD0H@Z ; process_assert
$LN4@pack_local:

; 85   : 
; 86   : 	switch (mode)

  0002d	8b 45 0c	 mov	 eax, DWORD PTR _mode$[ebp]
  00030	89 45 b8	 mov	 DWORD PTR tv70[ebp], eax
  00033	83 7d b8 00	 cmp	 DWORD PTR tv70[ebp], 0
  00037	0f 8c 81 00 00
	00		 jl	 $LN2@pack_local
  0003d	83 7d b8 01	 cmp	 DWORD PTR tv70[ebp], 1
  00041	7e 02		 jle	 SHORT $LN6@pack_local
  00043	eb 79		 jmp	 SHORT $LN2@pack_local
$LN6@pack_local:

; 87   : 	{
; 88   : 		////////////////////////////////////////
; 89   : 		case PACK_MODE_SERVER_SESSION:
; 90   : 		case PACK_MODE_CLIENT_SESSION:
; 91   : 		////////////////////////////////////////
; 92   : 		{
; 93   : 
; 94   : 			raw = (person *) get_local_entity_data (en);

  00045	8b 45 08	 mov	 eax, DWORD PTR _en$[ebp]
  00048	8b 48 04	 mov	 ecx, DWORD PTR [eax+4]
  0004b	89 4d fc	 mov	 DWORD PTR _raw$[ebp], ecx

; 95   : 
; 96   : 			pack_entity_type (get_local_entity_type (en));

  0004e	83 7d 08 00	 cmp	 DWORD PTR _en$[ebp], 0
  00052	74 0a		 je	 SHORT $LN10@pack_local
  00054	8b 45 08	 mov	 eax, DWORD PTR _en$[ebp]
  00057	8b 08		 mov	 ecx, DWORD PTR [eax]
  00059	89 4d b8	 mov	 DWORD PTR tv78[ebp], ecx
  0005c	eb 21		 jmp	 SHORT $LN11@pack_local
$LN10@pack_local:
  0005e	8b 15 00 00 00
	00		 mov	 edx, DWORD PTR ?__LINE__Var@?0??pack_local_data@@YGXPAUENTITY@@W4PACK_MODES@@@Z@4JA
  00064	83 c2 10	 add	 edx, 16			; 00000010H
  00067	52		 push	 edx
  00068	68 00 00 00 00	 push	 OFFSET ??_C@_0FD@BBHAPLOA@c?3?2users?2nhv90?2projects?2eech?2ap@
  0006d	a1 00 00 00 00	 mov	 eax, DWORD PTR ?null_entity_pointer_message@@3PBDB ; null_entity_pointer_message
  00072	50		 push	 eax
  00073	e8 00 00 00 00	 call	 ?process_assert@@YGXPBD0H@Z ; process_assert
  00078	c7 45 b8 00 00
	00 00		 mov	 DWORD PTR tv78[ebp], 0
$LN11@pack_local:
  0007f	8b 4d b8	 mov	 ecx, DWORD PTR tv78[ebp]
  00082	51		 push	 ecx
  00083	e8 00 00 00 00	 call	 ?pack_entity_type@@YGXW4ENTITY_TYPES@@@Z ; pack_entity_type

; 97   : 
; 98   : 			pack_entity_safe_ptr (en);

  00088	8b 45 08	 mov	 eax, DWORD PTR _en$[ebp]
  0008b	50		 push	 eax
  0008c	e8 00 00 00 00	 call	 ?pack_entity_safe_ptr@@YGXPAUENTITY@@@Z ; pack_entity_safe_ptr

; 99   : 
; 100  : 			// pack vehicle data
; 101  : 
; 102  : 			pack_vehicle_data (en, &raw->vh, mode);

  00091	8b 45 0c	 mov	 eax, DWORD PTR _mode$[ebp]
  00094	50		 push	 eax
  00095	8b 4d fc	 mov	 ecx, DWORD PTR _raw$[ebp]
  00098	51		 push	 ecx
  00099	8b 55 08	 mov	 edx, DWORD PTR _en$[ebp]
  0009c	52		 push	 edx
  0009d	e8 00 00 00 00	 call	 ?pack_vehicle_data@@YGXPAUENTITY@@PAUVEHICLE@@W4PACK_MODES@@@Z ; pack_vehicle_data

; 103  : 
; 104  : 			// pack animation state
; 105  : 
; 106  : 			pack_float_value (en, FLOAT_TYPE_PERSON_ANIMATION_STATE, raw->person_animation_state);

  000a2	8b 45 fc	 mov	 eax, DWORD PTR _raw$[ebp]
  000a5	51		 push	 ecx
  000a6	f3 0f 10 80 78
	01 00 00	 movss	 xmm0, DWORD PTR [eax+376]
  000ae	f3 0f 11 04 24	 movss	 DWORD PTR [esp], xmm0
  000b3	6a 53		 push	 83			; 00000053H
  000b5	8b 4d 08	 mov	 ecx, DWORD PTR _en$[ebp]
  000b8	51		 push	 ecx
  000b9	e8 00 00 00 00	 call	 ?pack_float_value@@YGXPAUENTITY@@W4FLOAT_TYPES@@M@Z ; pack_float_value
$LN2@pack_local:

; 107  : 
; 108  : 			break;
; 109  : 		}
; 110  : 		////////////////////////////////////////
; 111  : 		case PACK_MODE_BROWSE_SESSION:
; 112  : 		////////////////////////////////////////
; 113  : 		{
; 114  : 
; 115  : 			break;
; 116  : 		}
; 117  : 		////////////////////////////////////////
; 118  : 		case PACK_MODE_UPDATE_ENTITY:
; 119  : 		////////////////////////////////////////
; 120  : 		{
; 121  : 
; 122  : 			break;
; 123  : 		}
; 124  : 	}
; 125  : }

  000be	5f		 pop	 edi
  000bf	5e		 pop	 esi
  000c0	5b		 pop	 ebx
  000c1	8b e5		 mov	 esp, ebp
  000c3	5d		 pop	 ebp
  000c4	c2 08 00	 ret	 8
?pack_local_data@@YGXPAUENTITY@@W4PACK_MODES@@@Z ENDP	; pack_local_data
_TEXT	ENDS
; Function compile flags: /Odtp /ZI
; File c:\users\nhv90\projects\eech\aphavoc\source\entity\mobile\vehicle\person\ps_pack.c
;	COMDAT ?overload_person_pack_functions@@YGXXZ
_TEXT	SEGMENT
?overload_person_pack_functions@@YGXXZ PROC		; overload_person_pack_functions, COMDAT

; 210  : {

  00000	55		 push	 ebp
  00001	8b ec		 mov	 ebp, esp
  00003	83 ec 40	 sub	 esp, 64			; 00000040H
  00006	53		 push	 ebx
  00007	56		 push	 esi
  00008	57		 push	 edi

; 211  : 	fn_pack_local_entity_data[ENTITY_TYPE_PERSON]		= pack_local_data;

  00009	b8 04 00 00 00	 mov	 eax, 4
  0000e	6b c8 13	 imul	 ecx, eax, 19
  00011	c7 81 00 00 00
	00 00 00 00 00	 mov	 DWORD PTR ?fn_pack_local_entity_data@@3PAP6GXPAUENTITY@@W4PACK_MODES@@@ZA[ecx], OFFSET ?pack_local_data@@YGXPAUENTITY@@W4PACK_MODES@@@Z ; pack_local_data

; 212  : 
; 213  : 	fn_unpack_local_entity_data[ENTITY_TYPE_PERSON]		= unpack_local_data;

  0001b	b8 04 00 00 00	 mov	 eax, 4
  00020	6b c8 13	 imul	 ecx, eax, 19
  00023	c7 81 00 00 00
	00 00 00 00 00	 mov	 DWORD PTR ?fn_unpack_local_entity_data@@3PAP6GXPAUENTITY@@W4ENTITY_TYPES@@W4PACK_MODES@@@ZA[ecx], OFFSET ?unpack_local_data@@YGXPAUENTITY@@W4ENTITY_TYPES@@W4PACK_MODES@@@Z ; unpack_local_data

; 214  : }

  0002d	5f		 pop	 edi
  0002e	5e		 pop	 esi
  0002f	5b		 pop	 ebx
  00030	8b e5		 mov	 esp, ebp
  00032	5d		 pop	 ebp
  00033	c3		 ret	 0
?overload_person_pack_functions@@YGXXZ ENDP		; overload_person_pack_functions
_TEXT	ENDS
END
