; Listing generated by Microsoft (R) Optimizing Compiler Version 19.16.27045.0 

	TITLE	C:\Users\nhv90\Projects\eech\aphavoc\source\entity\fixed\pylon\py_float.c
	.686P
	.XMM
	include listing.inc
	.model	flat

INCLUDELIB MSVCRTD
INCLUDELIB OLDNAMES

PUBLIC	?overload_pylon_float_value_functions@@YGXXZ	; overload_pylon_float_value_functions
PUBLIC	?__LINE__Var@?0??get_local_float_value@@YGMPAUENTITY@@W4FLOAT_TYPES@@@Z@4JA ; `get_local_float_value'::`1'::__LINE__Var
PUBLIC	??_C@_0EK@JPAEDLED@c?3?2users?2nhv90?2projects?2eech?2ap@ ; `string'
PUBLIC	__real@42480000
EXTRN	?process_assert@@YGXPBD0H@Z:PROC		; process_assert
EXTRN	?debug_fatal@@YAXPBDZZ:PROC			; debug_fatal
EXTRN	?null_entity_pointer_message@@3PBDB:DWORD	; null_entity_pointer_message
EXTRN	?entity_type_database@@3PAUENTITY_TYPE_DATA@@A:BYTE ; entity_type_database
EXTRN	?float_type_database@@3PAUFLOAT_TYPE_DATA@@A:BYTE ; float_type_database
EXTRN	?debug_fatal_invalid_float_type_message@@3PBDB:DWORD ; debug_fatal_invalid_float_type_message
EXTRN	?fn_get_local_entity_float_value@@3PAY0KP@P6GMPAUENTITY@@W4FLOAT_TYPES@@@ZA:BYTE ; fn_get_local_entity_float_value
EXTRN	?entities@@3PAUENTITY@@A:DWORD			; entities
EXTRN	__fltused:DWORD
;	COMDAT __real@42480000
CONST	SEGMENT
__real@42480000 DD 042480000r			; 50
CONST	ENDS
;	COMDAT ??_C@_0EK@JPAEDLED@c?3?2users?2nhv90?2projects?2eech?2ap@
CONST	SEGMENT
??_C@_0EK@JPAEDLED@c?3?2users?2nhv90?2projects?2eech?2ap@ DB 'c:\users\nh'
	DB	'v90\projects\eech\aphavoc\source\entity\fixed\pylon\py_float.'
	DB	'c', 00H					; `string'
CONST	ENDS
;	COMDAT ?__LINE__Var@?0??get_local_float_value@@YGMPAUENTITY@@W4FLOAT_TYPES@@@Z@4JA
_DATA	SEGMENT
?__LINE__Var@?0??get_local_float_value@@YGMPAUENTITY@@W4FLOAT_TYPES@@@Z@4JA DD 050H ; `get_local_float_value'::`1'::__LINE__Var
_DATA	ENDS
; Function compile flags: /Odtp /ZI
; File c:\users\nhv90\projects\eech\aphavoc\source\entity\fixed\pylon\py_float.c
;	COMDAT ?get_local_float_value@@YGMPAUENTITY@@W4FLOAT_TYPES@@@Z
_TEXT	SEGMENT
tv82 = -76						; size = 4
tv65 = -76						; size = 4
_value$ = -8						; size = 4
_raw$ = -4						; size = 4
_en$ = 8						; size = 4
_type$ = 12						; size = 4
?get_local_float_value@@YGMPAUENTITY@@W4FLOAT_TYPES@@@Z PROC ; get_local_float_value, COMDAT

; 80   : {

  00000	55		 push	 ebp
  00001	8b ec		 mov	 ebp, esp
  00003	83 ec 4c	 sub	 esp, 76			; 0000004cH
  00006	53		 push	 ebx
  00007	56		 push	 esi
  00008	57		 push	 edi

; 81   : 	pylon
; 82   : 		*raw;
; 83   : 
; 84   : 	float
; 85   : 		value;
; 86   : 
; 87   : 	raw = (pylon *) get_local_entity_data (en);

  00009	8b 45 08	 mov	 eax, DWORD PTR _en$[ebp]
  0000c	8b 48 04	 mov	 ecx, DWORD PTR [eax+4]
  0000f	89 4d fc	 mov	 DWORD PTR _raw$[ebp], ecx

; 88   : 
; 89   : 	switch (type)

  00012	8b 45 0c	 mov	 eax, DWORD PTR _type$[ebp]
  00015	89 45 b4	 mov	 DWORD PTR tv65[ebp], eax
  00018	83 7d b4 0f	 cmp	 DWORD PTR tv65[ebp], 15	; 0000000fH
  0001c	74 02		 je	 SHORT $LN4@get_local_
  0001e	eb 0f		 jmp	 SHORT $LN5@get_local_
$LN4@get_local_:

; 90   : 	{
; 91   : 		////////////////////////////////////////
; 92   : 		case FLOAT_TYPE_AVOIDANCE_RADIUS:
; 93   : 		////////////////////////////////////////
; 94   : 		{
; 95   : 			value = 50.0;

  00020	f3 0f 10 05 00
	00 00 00	 movss	 xmm0, DWORD PTR __real@42480000
  00028	f3 0f 11 45 f8	 movss	 DWORD PTR _value$[ebp], xmm0

; 96   : 
; 97   : 			break;

  0002d	eb 72		 jmp	 SHORT $LN2@get_local_
$LN5@get_local_:

; 98   : 		}
; 99   : 		////////////////////////////////////////
; 100  : 		default:
; 101  : 		////////////////////////////////////////
; 102  : 		{
; 103  : 			debug_fatal_invalid_float_type (en, type);

  0002f	83 7d 08 00	 cmp	 DWORD PTR _en$[ebp], 0
  00033	74 0a		 je	 SHORT $LN7@get_local_
  00035	8b 45 08	 mov	 eax, DWORD PTR _en$[ebp]
  00038	8b 08		 mov	 ecx, DWORD PTR [eax]
  0003a	89 4d b4	 mov	 DWORD PTR tv82[ebp], ecx
  0003d	eb 21		 jmp	 SHORT $LN8@get_local_
$LN7@get_local_:
  0003f	8b 15 00 00 00
	00		 mov	 edx, DWORD PTR ?__LINE__Var@?0??get_local_float_value@@YGMPAUENTITY@@W4FLOAT_TYPES@@@Z@4JA
  00045	83 c2 17	 add	 edx, 23			; 00000017H
  00048	52		 push	 edx
  00049	68 00 00 00 00	 push	 OFFSET ??_C@_0EK@JPAEDLED@c?3?2users?2nhv90?2projects?2eech?2ap@
  0004e	a1 00 00 00 00	 mov	 eax, DWORD PTR ?null_entity_pointer_message@@3PBDB ; null_entity_pointer_message
  00053	50		 push	 eax
  00054	e8 00 00 00 00	 call	 ?process_assert@@YGXPBD0H@Z ; process_assert
  00059	c7 45 b4 00 00
	00 00		 mov	 DWORD PTR tv82[ebp], 0
$LN8@get_local_:
  00060	8b 0d 00 00 00
	00		 mov	 ecx, DWORD PTR ?__LINE__Var@?0??get_local_float_value@@YGMPAUENTITY@@W4FLOAT_TYPES@@@Z@4JA
  00066	83 c1 17	 add	 ecx, 23			; 00000017H
  00069	51		 push	 ecx
  0006a	68 00 00 00 00	 push	 OFFSET ??_C@_0EK@JPAEDLED@c?3?2users?2nhv90?2projects?2eech?2ap@
  0006f	6b 55 0c 18	 imul	 edx, DWORD PTR _type$[ebp], 24
  00073	8b 82 00 00 00
	00		 mov	 eax, DWORD PTR ?float_type_database@@3PAUFLOAT_TYPE_DATA@@A[edx]
  00079	50		 push	 eax
  0007a	8b 4d 08	 mov	 ecx, DWORD PTR _en$[ebp]
  0007d	2b 0d 00 00 00
	00		 sub	 ecx, DWORD PTR ?entities@@3PAUENTITY@@A ; entities
  00083	c1 f9 04	 sar	 ecx, 4
  00086	51		 push	 ecx
  00087	6b 55 b4 0c	 imul	 edx, DWORD PTR tv82[ebp], 12
  0008b	8b 82 00 00 00
	00		 mov	 eax, DWORD PTR ?entity_type_database@@3PAUENTITY_TYPE_DATA@@A[edx]
  00091	50		 push	 eax
  00092	8b 0d 00 00 00
	00		 mov	 ecx, DWORD PTR ?debug_fatal_invalid_float_type_message@@3PBDB ; debug_fatal_invalid_float_type_message
  00098	51		 push	 ecx
  00099	e8 00 00 00 00	 call	 ?debug_fatal@@YAXPBDZZ	; debug_fatal
  0009e	83 c4 18	 add	 esp, 24			; 00000018H
$LN2@get_local_:

; 104  : 
; 105  : 			break;
; 106  : 		}
; 107  : 	}
; 108  : 
; 109  : 	return (value);

  000a1	d9 45 f8	 fld	 DWORD PTR _value$[ebp]

; 110  : }

  000a4	5f		 pop	 edi
  000a5	5e		 pop	 esi
  000a6	5b		 pop	 ebx
  000a7	8b e5		 mov	 esp, ebp
  000a9	5d		 pop	 ebp
  000aa	c2 08 00	 ret	 8
?get_local_float_value@@YGMPAUENTITY@@W4FLOAT_TYPES@@@Z ENDP ; get_local_float_value
_TEXT	ENDS
; Function compile flags: /Odtp /ZI
; File c:\users\nhv90\projects\eech\aphavoc\source\entity\fixed\pylon\py_float.c
;	COMDAT ?overload_pylon_float_value_functions@@YGXXZ
_TEXT	SEGMENT
?overload_pylon_float_value_functions@@YGXXZ PROC	; overload_pylon_float_value_functions, COMDAT

; 117  : {

  00000	55		 push	 ebp
  00001	8b ec		 mov	 ebp, esp
  00003	83 ec 40	 sub	 esp, 64			; 00000040H
  00006	53		 push	 ebx
  00007	56		 push	 esi
  00008	57		 push	 edi

; 118  : 	fn_get_local_entity_float_value		[ENTITY_TYPE_PYLON][FLOAT_TYPE_AVOIDANCE_RADIUS]	= get_local_float_value;

  00009	b8 bc 02 00 00	 mov	 eax, 700		; 000002bcH
  0000e	6b c8 15	 imul	 ecx, eax, 21
  00011	ba 04 00 00 00	 mov	 edx, 4
  00016	6b c2 0f	 imul	 eax, edx, 15
  00019	c7 84 01 00 00
	00 00 00 00 00
	00		 mov	 DWORD PTR ?fn_get_local_entity_float_value@@3PAY0KP@P6GMPAUENTITY@@W4FLOAT_TYPES@@@ZA[ecx+eax], OFFSET ?get_local_float_value@@YGMPAUENTITY@@W4FLOAT_TYPES@@@Z ; get_local_float_value

; 119  : }

  00024	5f		 pop	 edi
  00025	5e		 pop	 esi
  00026	5b		 pop	 ebx
  00027	8b e5		 mov	 esp, ebp
  00029	5d		 pop	 ebp
  0002a	c3		 ret	 0
?overload_pylon_float_value_functions@@YGXXZ ENDP	; overload_pylon_float_value_functions
_TEXT	ENDS
END
