; Listing generated by Microsoft (R) Optimizing Compiler Version 19.16.27045.0 

	TITLE	C:\Users\nhv90\Projects\eech\aphavoc\source\entity\fixed\pylon\py_int.c
	.686P
	.XMM
	include listing.inc
	.model	flat

INCLUDELIB MSVCRTD
INCLUDELIB OLDNAMES

PUBLIC	?overload_pylon_int_value_functions@@YGXXZ	; overload_pylon_int_value_functions
PUBLIC	?__LINE__Var@?0??set_local_int_value@@YGXPAUENTITY@@W4INT_TYPES@@H@Z@4JA ; `set_local_int_value'::`1'::__LINE__Var
PUBLIC	??_C@_0EI@HKLMDHFJ@c?3?2users?2nhv90?2projects?2eech?2ap@ ; `string'
PUBLIC	?__LINE__Var@?0??set_server_int_value@@YGXPAUENTITY@@W4INT_TYPES@@H@Z@4JA ; `set_server_int_value'::`1'::__LINE__Var
PUBLIC	??_C@_0CB@CFOCLFOK@assert_client_server_local_fn?5?$CI@ ; `string'
PUBLIC	??_C@_0CC@BNNNEGEG@assert_client_server_remote_fn?5@ ; `string'
PUBLIC	?__LINE__Var@?0??set_client_int_value@@YGXPAUENTITY@@W4INT_TYPES@@H@Z@4JA ; `set_client_int_value'::`1'::__LINE__Var
PUBLIC	?__LINE__Var@?0??get_local_int_value@@YGHPAUENTITY@@W4INT_TYPES@@@Z@4JA ; `get_local_int_value'::`1'::__LINE__Var
EXTRN	?process_assert@@YGXPBD0H@Z:PROC		; process_assert
EXTRN	?debug_fatal@@YAXPBDZZ:PROC			; debug_fatal
EXTRN	?transmit_entity_comms_message@@YAXW4ENTITY_COMMS_MESSAGES@@PAUENTITY@@ZZ:PROC ; transmit_entity_comms_message
EXTRN	?assert_client_server_local_fn@@YGHXZ:PROC	; assert_client_server_local_fn
EXTRN	?assert_client_server_remote_fn@@YGHXZ:PROC	; assert_client_server_remote_fn
EXTRN	?null_entity_pointer_message@@3PBDB:DWORD	; null_entity_pointer_message
EXTRN	?entity_type_database@@3PAUENTITY_TYPE_DATA@@A:BYTE ; entity_type_database
EXTRN	?system_comms_data_flow@@3W4COMMS_DATA_FLOW_TYPES@@A:DWORD ; system_comms_data_flow
EXTRN	?int_type_database@@3PAUINT_TYPE_DATA@@A:BYTE	; int_type_database
EXTRN	?debug_fatal_invalid_int_type_message@@3PBDB:DWORD ; debug_fatal_invalid_int_type_message
EXTRN	?fn_set_local_entity_raw_int_value@@3PAY0BBH@P6GXPAUENTITY@@W4INT_TYPES@@H@ZA:BYTE ; fn_set_local_entity_raw_int_value
EXTRN	?fn_set_local_entity_int_value@@3PAY0BBH@P6GXPAUENTITY@@W4INT_TYPES@@H@ZA:BYTE ; fn_set_local_entity_int_value
EXTRN	?fn_set_client_server_entity_int_value@@3PAY1BBH@1P6GXPAUENTITY@@W4INT_TYPES@@H@ZA:BYTE ; fn_set_client_server_entity_int_value
EXTRN	?fn_get_local_entity_int_value@@3PAY0BBH@P6GHPAUENTITY@@W4INT_TYPES@@@ZA:BYTE ; fn_get_local_entity_int_value
EXTRN	?entities@@3PAUENTITY@@A:DWORD			; entities
;	COMDAT ?__LINE__Var@?0??get_local_int_value@@YGHPAUENTITY@@W4INT_TYPES@@@Z@4JA
_DATA	SEGMENT
?__LINE__Var@?0??get_local_int_value@@YGHPAUENTITY@@W4INT_TYPES@@@Z@4JA DD 0a8H ; `get_local_int_value'::`1'::__LINE__Var
_DATA	ENDS
;	COMDAT ?__LINE__Var@?0??set_client_int_value@@YGXPAUENTITY@@W4INT_TYPES@@H@Z@4JA
_DATA	SEGMENT
?__LINE__Var@?0??set_client_int_value@@YGXPAUENTITY@@W4INT_TYPES@@H@Z@4JA DD 094H ; `set_client_int_value'::`1'::__LINE__Var
_DATA	ENDS
;	COMDAT ??_C@_0CC@BNNNEGEG@assert_client_server_remote_fn?5@
CONST	SEGMENT
??_C@_0CC@BNNNEGEG@assert_client_server_remote_fn?5@ DB 'assert_client_se'
	DB	'rver_remote_fn ()', 00H			; `string'
CONST	ENDS
;	COMDAT ??_C@_0CB@CFOCLFOK@assert_client_server_local_fn?5?$CI@
CONST	SEGMENT
??_C@_0CB@CFOCLFOK@assert_client_server_local_fn?5?$CI@ DB 'assert_client'
	DB	'_server_local_fn ()', 00H			; `string'
CONST	ENDS
;	COMDAT ?__LINE__Var@?0??set_server_int_value@@YGXPAUENTITY@@W4INT_TYPES@@H@Z@4JA
_DATA	SEGMENT
?__LINE__Var@?0??set_server_int_value@@YGXPAUENTITY@@W4INT_TYPES@@H@Z@4JA DD 085H ; `set_server_int_value'::`1'::__LINE__Var
_DATA	ENDS
;	COMDAT ??_C@_0EI@HKLMDHFJ@c?3?2users?2nhv90?2projects?2eech?2ap@
CONST	SEGMENT
??_C@_0EI@HKLMDHFJ@c?3?2users?2nhv90?2projects?2eech?2ap@ DB 'c:\users\nh'
	DB	'v90\projects\eech\aphavoc\source\entity\fixed\pylon\py_int.c', 00H ; `string'
CONST	ENDS
;	COMDAT ?__LINE__Var@?0??set_local_int_value@@YGXPAUENTITY@@W4INT_TYPES@@H@Z@4JA
_DATA	SEGMENT
?__LINE__Var@?0??set_local_int_value@@YGXPAUENTITY@@W4INT_TYPES@@H@Z@4JA DD 050H ; `set_local_int_value'::`1'::__LINE__Var
_DATA	ENDS
; Function compile flags: /Odtp /ZI
; File c:\users\nhv90\projects\eech\aphavoc\source\entity\fixed\pylon\py_int.c
;	COMDAT ?get_local_int_value@@YGHPAUENTITY@@W4INT_TYPES@@@Z
_TEXT	SEGMENT
tv83 = -76						; size = 4
tv65 = -76						; size = 4
_value$ = -8						; size = 4
_raw$ = -4						; size = 4
_en$ = 8						; size = 4
_type$ = 12						; size = 4
?get_local_int_value@@YGHPAUENTITY@@W4INT_TYPES@@@Z PROC ; get_local_int_value, COMDAT

; 168  : {

  00000	55		 push	 ebp
  00001	8b ec		 mov	 ebp, esp
  00003	83 ec 4c	 sub	 esp, 76			; 0000004cH
  00006	53		 push	 ebx
  00007	56		 push	 esi
  00008	57		 push	 edi

; 169  : 	pylon
; 170  : 		*raw;
; 171  : 
; 172  : 	int
; 173  : 		value;
; 174  : 
; 175  : 	raw = (pylon *) get_local_entity_data (en);

  00009	8b 45 08	 mov	 eax, DWORD PTR _en$[ebp]
  0000c	8b 48 04	 mov	 ecx, DWORD PTR [eax+4]
  0000f	89 4d fc	 mov	 DWORD PTR _raw$[ebp], ecx

; 176  : 
; 177  : 	switch (type)

  00012	8b 45 0c	 mov	 eax, DWORD PTR _type$[ebp]
  00015	89 45 b4	 mov	 DWORD PTR tv65[ebp], eax
  00018	8b 4d b4	 mov	 ecx, DWORD PTR tv65[ebp]
  0001b	83 e9 25	 sub	 ecx, 37			; 00000025H
  0001e	89 4d b4	 mov	 DWORD PTR tv65[ebp], ecx
  00021	81 7d b4 d7 00
	00 00		 cmp	 DWORD PTR tv65[ebp], 215 ; 000000d7H
  00028	77 49		 ja	 SHORT $LN9@get_local_
  0002a	8b 55 b4	 mov	 edx, DWORD PTR tv65[ebp]
  0002d	0f b6 82 00 00
	00 00		 movzx	 eax, BYTE PTR $LN13@get_local_[edx]
  00034	ff 24 85 00 00
	00 00		 jmp	 DWORD PTR $LN14@get_local_[eax*4]
$LN4@get_local_:

; 178  : 	{
; 179  : 		////////////////////////////////////////
; 180  : 		case INT_TYPE_DAMAGE_LEVEL:
; 181  : 		////////////////////////////////////////
; 182  : 		{
; 183  : 			value = raw->damage_level;

  0003b	8b 45 fc	 mov	 eax, DWORD PTR _raw$[ebp]
  0003e	8b 48 40	 mov	 ecx, DWORD PTR [eax+64]
  00041	89 4d f8	 mov	 DWORD PTR _value$[ebp], ecx

; 184  : 
; 185  : 			break;

  00044	e9 9c 00 00 00	 jmp	 $LN2@get_local_
$LN5@get_local_:

; 186  : 		}
; 187  : 		////////////////////////////////////////
; 188  : 		case INT_TYPE_TARGET_SYMBOL_TYPE:
; 189  : 		////////////////////////////////////////
; 190  : 		{
; 191  : 			value = TARGET_SYMBOL_UNKNOWN;

  00049	c7 45 f8 00 00
	00 00		 mov	 DWORD PTR _value$[ebp], 0

; 192  : 
; 193  : 			break;

  00050	e9 90 00 00 00	 jmp	 $LN2@get_local_
$LN6@get_local_:

; 194  : 		}
; 195  : 		////////////////////////////////////////
; 196  : 		case INT_TYPE_TARGET_TYPE:
; 197  : 		////////////////////////////////////////
; 198  : 		{
; 199  : 			value = TARGET_TYPE_INVALID;

  00055	c7 45 f8 00 00
	00 00		 mov	 DWORD PTR _value$[ebp], 0

; 200  : 
; 201  : 			break;

  0005c	e9 84 00 00 00	 jmp	 $LN2@get_local_
$LN7@get_local_:

; 202  : 		}
; 203  : 		////////////////////////////////////////
; 204  : 		case INT_TYPE_TASK_TARGET_TYPE:
; 205  : 		////////////////////////////////////////
; 206  : 		{
; 207  : 			value = TASK_TARGET_TYPE_POWER;

  00061	c7 45 f8 00 20
	00 00		 mov	 DWORD PTR _value$[ebp], 8192 ; 00002000H

; 208  : 
; 209  : 			break;

  00068	eb 7b		 jmp	 SHORT $LN2@get_local_
$LN8@get_local_:

; 210  : 		}
; 211  : 		////////////////////////////////////////
; 212  : 		case INT_TYPE_WARHEAD_EFFECTIVE_CLASS:
; 213  : 		////////////////////////////////////////
; 214  : 		{
; 215  : 			value = WARHEAD_EFFECTIVE_STONE_BUILDING;

  0006a	c7 45 f8 00 01
	00 00		 mov	 DWORD PTR _value$[ebp], 256 ; 00000100H

; 216  : 
; 217  : 			break;

  00071	eb 72		 jmp	 SHORT $LN2@get_local_
$LN9@get_local_:

; 218  : 		}
; 219  : 		////////////////////////////////////////
; 220  : 		default:
; 221  : 		////////////////////////////////////////
; 222  : 		{
; 223  : 			debug_fatal_invalid_int_type (en, type);

  00073	83 7d 08 00	 cmp	 DWORD PTR _en$[ebp], 0
  00077	74 0a		 je	 SHORT $LN11@get_local_
  00079	8b 45 08	 mov	 eax, DWORD PTR _en$[ebp]
  0007c	8b 08		 mov	 ecx, DWORD PTR [eax]
  0007e	89 4d b4	 mov	 DWORD PTR tv83[ebp], ecx
  00081	eb 21		 jmp	 SHORT $LN12@get_local_
$LN11@get_local_:
  00083	8b 15 00 00 00
	00		 mov	 edx, DWORD PTR ?__LINE__Var@?0??get_local_int_value@@YGHPAUENTITY@@W4INT_TYPES@@@Z@4JA
  00089	83 c2 37	 add	 edx, 55			; 00000037H
  0008c	52		 push	 edx
  0008d	68 00 00 00 00	 push	 OFFSET ??_C@_0EI@HKLMDHFJ@c?3?2users?2nhv90?2projects?2eech?2ap@
  00092	a1 00 00 00 00	 mov	 eax, DWORD PTR ?null_entity_pointer_message@@3PBDB ; null_entity_pointer_message
  00097	50		 push	 eax
  00098	e8 00 00 00 00	 call	 ?process_assert@@YGXPBD0H@Z ; process_assert
  0009d	c7 45 b4 00 00
	00 00		 mov	 DWORD PTR tv83[ebp], 0
$LN12@get_local_:
  000a4	8b 0d 00 00 00
	00		 mov	 ecx, DWORD PTR ?__LINE__Var@?0??get_local_int_value@@YGHPAUENTITY@@W4INT_TYPES@@@Z@4JA
  000aa	83 c1 37	 add	 ecx, 55			; 00000037H
  000ad	51		 push	 ecx
  000ae	68 00 00 00 00	 push	 OFFSET ??_C@_0EI@HKLMDHFJ@c?3?2users?2nhv90?2projects?2eech?2ap@
  000b3	6b 55 0c 14	 imul	 edx, DWORD PTR _type$[ebp], 20
  000b7	8b 82 00 00 00
	00		 mov	 eax, DWORD PTR ?int_type_database@@3PAUINT_TYPE_DATA@@A[edx]
  000bd	50		 push	 eax
  000be	8b 4d 08	 mov	 ecx, DWORD PTR _en$[ebp]
  000c1	2b 0d 00 00 00
	00		 sub	 ecx, DWORD PTR ?entities@@3PAUENTITY@@A ; entities
  000c7	c1 f9 04	 sar	 ecx, 4
  000ca	51		 push	 ecx
  000cb	6b 55 b4 0c	 imul	 edx, DWORD PTR tv83[ebp], 12
  000cf	8b 82 00 00 00
	00		 mov	 eax, DWORD PTR ?entity_type_database@@3PAUENTITY_TYPE_DATA@@A[edx]
  000d5	50		 push	 eax
  000d6	8b 0d 00 00 00
	00		 mov	 ecx, DWORD PTR ?debug_fatal_invalid_int_type_message@@3PBDB ; debug_fatal_invalid_int_type_message
  000dc	51		 push	 ecx
  000dd	e8 00 00 00 00	 call	 ?debug_fatal@@YAXPBDZZ	; debug_fatal
  000e2	83 c4 18	 add	 esp, 24			; 00000018H
$LN2@get_local_:

; 224  : 
; 225  : 			break;
; 226  : 		}
; 227  : 	}
; 228  : 
; 229  : 	return (value);

  000e5	8b 45 f8	 mov	 eax, DWORD PTR _value$[ebp]

; 230  : }

  000e8	5f		 pop	 edi
  000e9	5e		 pop	 esi
  000ea	5b		 pop	 ebx
  000eb	8b e5		 mov	 esp, ebp
  000ed	5d		 pop	 ebp
  000ee	c2 08 00	 ret	 8
  000f1	0f 1f 00	 npad	 3
$LN14@get_local_:
  000f4	00 00 00 00	 DD	 $LN4@get_local_
  000f8	00 00 00 00	 DD	 $LN5@get_local_
  000fc	00 00 00 00	 DD	 $LN6@get_local_
  00100	00 00 00 00	 DD	 $LN7@get_local_
  00104	00 00 00 00	 DD	 $LN8@get_local_
  00108	00 00 00 00	 DD	 $LN9@get_local_
$LN13@get_local_:
  0010c	00		 DB	 0
  0010d	05		 DB	 5
  0010e	05		 DB	 5
  0010f	05		 DB	 5
  00110	05		 DB	 5
  00111	05		 DB	 5
  00112	05		 DB	 5
  00113	05		 DB	 5
  00114	05		 DB	 5
  00115	05		 DB	 5
  00116	05		 DB	 5
  00117	05		 DB	 5
  00118	05		 DB	 5
  00119	05		 DB	 5
  0011a	05		 DB	 5
  0011b	05		 DB	 5
  0011c	05		 DB	 5
  0011d	05		 DB	 5
  0011e	05		 DB	 5
  0011f	05		 DB	 5
  00120	05		 DB	 5
  00121	05		 DB	 5
  00122	05		 DB	 5
  00123	05		 DB	 5
  00124	05		 DB	 5
  00125	05		 DB	 5
  00126	05		 DB	 5
  00127	05		 DB	 5
  00128	05		 DB	 5
  00129	05		 DB	 5
  0012a	05		 DB	 5
  0012b	05		 DB	 5
  0012c	05		 DB	 5
  0012d	05		 DB	 5
  0012e	05		 DB	 5
  0012f	05		 DB	 5
  00130	05		 DB	 5
  00131	05		 DB	 5
  00132	05		 DB	 5
  00133	05		 DB	 5
  00134	05		 DB	 5
  00135	05		 DB	 5
  00136	05		 DB	 5
  00137	05		 DB	 5
  00138	05		 DB	 5
  00139	05		 DB	 5
  0013a	05		 DB	 5
  0013b	05		 DB	 5
  0013c	05		 DB	 5
  0013d	05		 DB	 5
  0013e	05		 DB	 5
  0013f	05		 DB	 5
  00140	05		 DB	 5
  00141	05		 DB	 5
  00142	05		 DB	 5
  00143	05		 DB	 5
  00144	05		 DB	 5
  00145	05		 DB	 5
  00146	05		 DB	 5
  00147	05		 DB	 5
  00148	05		 DB	 5
  00149	05		 DB	 5
  0014a	05		 DB	 5
  0014b	05		 DB	 5
  0014c	05		 DB	 5
  0014d	05		 DB	 5
  0014e	05		 DB	 5
  0014f	05		 DB	 5
  00150	05		 DB	 5
  00151	05		 DB	 5
  00152	05		 DB	 5
  00153	05		 DB	 5
  00154	05		 DB	 5
  00155	05		 DB	 5
  00156	05		 DB	 5
  00157	05		 DB	 5
  00158	05		 DB	 5
  00159	05		 DB	 5
  0015a	05		 DB	 5
  0015b	05		 DB	 5
  0015c	05		 DB	 5
  0015d	05		 DB	 5
  0015e	05		 DB	 5
  0015f	05		 DB	 5
  00160	05		 DB	 5
  00161	05		 DB	 5
  00162	05		 DB	 5
  00163	05		 DB	 5
  00164	05		 DB	 5
  00165	05		 DB	 5
  00166	05		 DB	 5
  00167	05		 DB	 5
  00168	05		 DB	 5
  00169	05		 DB	 5
  0016a	05		 DB	 5
  0016b	05		 DB	 5
  0016c	05		 DB	 5
  0016d	05		 DB	 5
  0016e	05		 DB	 5
  0016f	05		 DB	 5
  00170	05		 DB	 5
  00171	05		 DB	 5
  00172	05		 DB	 5
  00173	05		 DB	 5
  00174	05		 DB	 5
  00175	05		 DB	 5
  00176	05		 DB	 5
  00177	05		 DB	 5
  00178	05		 DB	 5
  00179	05		 DB	 5
  0017a	05		 DB	 5
  0017b	05		 DB	 5
  0017c	05		 DB	 5
  0017d	05		 DB	 5
  0017e	05		 DB	 5
  0017f	05		 DB	 5
  00180	05		 DB	 5
  00181	05		 DB	 5
  00182	05		 DB	 5
  00183	05		 DB	 5
  00184	05		 DB	 5
  00185	05		 DB	 5
  00186	05		 DB	 5
  00187	05		 DB	 5
  00188	05		 DB	 5
  00189	05		 DB	 5
  0018a	05		 DB	 5
  0018b	05		 DB	 5
  0018c	05		 DB	 5
  0018d	05		 DB	 5
  0018e	05		 DB	 5
  0018f	05		 DB	 5
  00190	05		 DB	 5
  00191	05		 DB	 5
  00192	05		 DB	 5
  00193	05		 DB	 5
  00194	05		 DB	 5
  00195	05		 DB	 5
  00196	05		 DB	 5
  00197	05		 DB	 5
  00198	05		 DB	 5
  00199	05		 DB	 5
  0019a	05		 DB	 5
  0019b	05		 DB	 5
  0019c	05		 DB	 5
  0019d	05		 DB	 5
  0019e	05		 DB	 5
  0019f	05		 DB	 5
  001a0	05		 DB	 5
  001a1	05		 DB	 5
  001a2	05		 DB	 5
  001a3	05		 DB	 5
  001a4	05		 DB	 5
  001a5	05		 DB	 5
  001a6	05		 DB	 5
  001a7	05		 DB	 5
  001a8	05		 DB	 5
  001a9	05		 DB	 5
  001aa	05		 DB	 5
  001ab	05		 DB	 5
  001ac	05		 DB	 5
  001ad	05		 DB	 5
  001ae	05		 DB	 5
  001af	05		 DB	 5
  001b0	05		 DB	 5
  001b1	05		 DB	 5
  001b2	05		 DB	 5
  001b3	05		 DB	 5
  001b4	05		 DB	 5
  001b5	05		 DB	 5
  001b6	05		 DB	 5
  001b7	05		 DB	 5
  001b8	05		 DB	 5
  001b9	05		 DB	 5
  001ba	05		 DB	 5
  001bb	05		 DB	 5
  001bc	01		 DB	 1
  001bd	02		 DB	 2
  001be	05		 DB	 5
  001bf	05		 DB	 5
  001c0	05		 DB	 5
  001c1	05		 DB	 5
  001c2	05		 DB	 5
  001c3	05		 DB	 5
  001c4	05		 DB	 5
  001c5	05		 DB	 5
  001c6	05		 DB	 5
  001c7	05		 DB	 5
  001c8	05		 DB	 5
  001c9	05		 DB	 5
  001ca	05		 DB	 5
  001cb	05		 DB	 5
  001cc	05		 DB	 5
  001cd	03		 DB	 3
  001ce	05		 DB	 5
  001cf	05		 DB	 5
  001d0	05		 DB	 5
  001d1	05		 DB	 5
  001d2	05		 DB	 5
  001d3	05		 DB	 5
  001d4	05		 DB	 5
  001d5	05		 DB	 5
  001d6	05		 DB	 5
  001d7	05		 DB	 5
  001d8	05		 DB	 5
  001d9	05		 DB	 5
  001da	05		 DB	 5
  001db	05		 DB	 5
  001dc	05		 DB	 5
  001dd	05		 DB	 5
  001de	05		 DB	 5
  001df	05		 DB	 5
  001e0	05		 DB	 5
  001e1	05		 DB	 5
  001e2	05		 DB	 5
  001e3	04		 DB	 4
?get_local_int_value@@YGHPAUENTITY@@W4INT_TYPES@@@Z ENDP ; get_local_int_value
_TEXT	ENDS
; Function compile flags: /Odtp /ZI
; File c:\users\nhv90\projects\eech\aphavoc\source\entity\fixed\pylon\py_int.c
;	COMDAT ?set_client_int_value@@YGXPAUENTITY@@W4INT_TYPES@@H@Z
_TEXT	SEGMENT
_en$ = 8						; size = 4
_type$ = 12						; size = 4
_value$ = 16						; size = 4
?set_client_int_value@@YGXPAUENTITY@@W4INT_TYPES@@H@Z PROC ; set_client_int_value, COMDAT

; 148  : {

  00000	55		 push	 ebp
  00001	8b ec		 mov	 ebp, esp
  00003	83 ec 40	 sub	 esp, 64			; 00000040H
  00006	53		 push	 ebx
  00007	56		 push	 esi
  00008	57		 push	 edi

; 149  : 	if (get_comms_data_flow () == COMMS_DATA_FLOW_TX)

  00009	83 3d 00 00 00
	00 00		 cmp	 DWORD PTR ?system_comms_data_flow@@3W4COMMS_DATA_FLOW_TYPES@@A, 0 ; system_comms_data_flow
  00010	75 34		 jne	 SHORT $LN2@set_client

; 150  : 	{
; 151  : 		validate_client_server_remote_fn ();

  00012	e8 00 00 00 00	 call	 ?assert_client_server_remote_fn@@YGHXZ ; assert_client_server_remote_fn
  00017	85 c0		 test	 eax, eax
  00019	75 18		 jne	 SHORT $LN4@set_client
  0001b	a1 00 00 00 00	 mov	 eax, DWORD PTR ?__LINE__Var@?0??set_client_int_value@@YGXPAUENTITY@@W4INT_TYPES@@H@Z@4JA
  00020	83 c0 03	 add	 eax, 3
  00023	50		 push	 eax
  00024	68 00 00 00 00	 push	 OFFSET ??_C@_0EI@HKLMDHFJ@c?3?2users?2nhv90?2projects?2eech?2ap@
  00029	68 00 00 00 00	 push	 OFFSET ??_C@_0CC@BNNNEGEG@assert_client_server_remote_fn?5@
  0002e	e8 00 00 00 00	 call	 ?process_assert@@YGXPBD0H@Z ; process_assert
$LN4@set_client:

; 152  : 
; 153  : 		set_remote_int_value (en, type, value);

  00033	8b 45 10	 mov	 eax, DWORD PTR _value$[ebp]
  00036	50		 push	 eax
  00037	8b 4d 0c	 mov	 ecx, DWORD PTR _type$[ebp]
  0003a	51		 push	 ecx
  0003b	8b 55 08	 mov	 edx, DWORD PTR _en$[ebp]
  0003e	52		 push	 edx
  0003f	e8 00 00 00 00	 call	 ?set_remote_int_value@@YGXPAUENTITY@@W4INT_TYPES@@H@Z ; set_remote_int_value

; 154  : 	}
; 155  : 	else

  00044	eb 32		 jmp	 SHORT $LN1@set_client
$LN2@set_client:

; 156  : 	{
; 157  : 		validate_client_server_local_fn ();

  00046	e8 00 00 00 00	 call	 ?assert_client_server_local_fn@@YGHXZ ; assert_client_server_local_fn
  0004b	85 c0		 test	 eax, eax
  0004d	75 18		 jne	 SHORT $LN5@set_client
  0004f	a1 00 00 00 00	 mov	 eax, DWORD PTR ?__LINE__Var@?0??set_client_int_value@@YGXPAUENTITY@@W4INT_TYPES@@H@Z@4JA
  00054	83 c0 09	 add	 eax, 9
  00057	50		 push	 eax
  00058	68 00 00 00 00	 push	 OFFSET ??_C@_0EI@HKLMDHFJ@c?3?2users?2nhv90?2projects?2eech?2ap@
  0005d	68 00 00 00 00	 push	 OFFSET ??_C@_0CB@CFOCLFOK@assert_client_server_local_fn?5?$CI@
  00062	e8 00 00 00 00	 call	 ?process_assert@@YGXPBD0H@Z ; process_assert
$LN5@set_client:

; 158  : 
; 159  : 		set_local_int_value (en, type, value);

  00067	8b 45 10	 mov	 eax, DWORD PTR _value$[ebp]
  0006a	50		 push	 eax
  0006b	8b 4d 0c	 mov	 ecx, DWORD PTR _type$[ebp]
  0006e	51		 push	 ecx
  0006f	8b 55 08	 mov	 edx, DWORD PTR _en$[ebp]
  00072	52		 push	 edx
  00073	e8 00 00 00 00	 call	 ?set_local_int_value@@YGXPAUENTITY@@W4INT_TYPES@@H@Z ; set_local_int_value
$LN1@set_client:

; 160  : 	}
; 161  : }

  00078	5f		 pop	 edi
  00079	5e		 pop	 esi
  0007a	5b		 pop	 ebx
  0007b	8b e5		 mov	 esp, ebp
  0007d	5d		 pop	 ebp
  0007e	c2 0c 00	 ret	 12			; 0000000cH
?set_client_int_value@@YGXPAUENTITY@@W4INT_TYPES@@H@Z ENDP ; set_client_int_value
_TEXT	ENDS
; Function compile flags: /Odtp /ZI
; File c:\users\nhv90\projects\eech\aphavoc\source\entity\fixed\pylon\py_int.c
;	COMDAT ?set_server_int_value@@YGXPAUENTITY@@W4INT_TYPES@@H@Z
_TEXT	SEGMENT
_en$ = 8						; size = 4
_type$ = 12						; size = 4
_value$ = 16						; size = 4
?set_server_int_value@@YGXPAUENTITY@@W4INT_TYPES@@H@Z PROC ; set_server_int_value, COMDAT

; 133  : {

  00000	55		 push	 ebp
  00001	8b ec		 mov	 ebp, esp
  00003	83 ec 40	 sub	 esp, 64			; 00000040H
  00006	53		 push	 ebx
  00007	56		 push	 esi
  00008	57		 push	 edi

; 134  : 	validate_client_server_local_fn ();

  00009	e8 00 00 00 00	 call	 ?assert_client_server_local_fn@@YGHXZ ; assert_client_server_local_fn
  0000e	85 c0		 test	 eax, eax
  00010	75 18		 jne	 SHORT $LN2@set_server
  00012	a1 00 00 00 00	 mov	 eax, DWORD PTR ?__LINE__Var@?0??set_server_int_value@@YGXPAUENTITY@@W4INT_TYPES@@H@Z@4JA
  00017	83 c0 01	 add	 eax, 1
  0001a	50		 push	 eax
  0001b	68 00 00 00 00	 push	 OFFSET ??_C@_0EI@HKLMDHFJ@c?3?2users?2nhv90?2projects?2eech?2ap@
  00020	68 00 00 00 00	 push	 OFFSET ??_C@_0CB@CFOCLFOK@assert_client_server_local_fn?5?$CI@
  00025	e8 00 00 00 00	 call	 ?process_assert@@YGXPBD0H@Z ; process_assert
$LN2@set_server:

; 135  : 
; 136  : 	set_local_int_value (en, type, value);

  0002a	8b 45 10	 mov	 eax, DWORD PTR _value$[ebp]
  0002d	50		 push	 eax
  0002e	8b 4d 0c	 mov	 ecx, DWORD PTR _type$[ebp]
  00031	51		 push	 ecx
  00032	8b 55 08	 mov	 edx, DWORD PTR _en$[ebp]
  00035	52		 push	 edx
  00036	e8 00 00 00 00	 call	 ?set_local_int_value@@YGXPAUENTITY@@W4INT_TYPES@@H@Z ; set_local_int_value

; 137  : 
; 138  : 	validate_client_server_remote_fn ();

  0003b	e8 00 00 00 00	 call	 ?assert_client_server_remote_fn@@YGHXZ ; assert_client_server_remote_fn
  00040	85 c0		 test	 eax, eax
  00042	75 18		 jne	 SHORT $LN3@set_server
  00044	a1 00 00 00 00	 mov	 eax, DWORD PTR ?__LINE__Var@?0??set_server_int_value@@YGXPAUENTITY@@W4INT_TYPES@@H@Z@4JA
  00049	83 c0 05	 add	 eax, 5
  0004c	50		 push	 eax
  0004d	68 00 00 00 00	 push	 OFFSET ??_C@_0EI@HKLMDHFJ@c?3?2users?2nhv90?2projects?2eech?2ap@
  00052	68 00 00 00 00	 push	 OFFSET ??_C@_0CC@BNNNEGEG@assert_client_server_remote_fn?5@
  00057	e8 00 00 00 00	 call	 ?process_assert@@YGXPBD0H@Z ; process_assert
$LN3@set_server:

; 139  : 
; 140  : 	set_remote_int_value (en, type, value);

  0005c	8b 45 10	 mov	 eax, DWORD PTR _value$[ebp]
  0005f	50		 push	 eax
  00060	8b 4d 0c	 mov	 ecx, DWORD PTR _type$[ebp]
  00063	51		 push	 ecx
  00064	8b 55 08	 mov	 edx, DWORD PTR _en$[ebp]
  00067	52		 push	 edx
  00068	e8 00 00 00 00	 call	 ?set_remote_int_value@@YGXPAUENTITY@@W4INT_TYPES@@H@Z ; set_remote_int_value

; 141  : }

  0006d	5f		 pop	 edi
  0006e	5e		 pop	 esi
  0006f	5b		 pop	 ebx
  00070	8b e5		 mov	 esp, ebp
  00072	5d		 pop	 ebp
  00073	c2 0c 00	 ret	 12			; 0000000cH
?set_server_int_value@@YGXPAUENTITY@@W4INT_TYPES@@H@Z ENDP ; set_server_int_value
_TEXT	ENDS
; Function compile flags: /Odtp /ZI
; File c:\users\nhv90\projects\eech\aphavoc\source\entity\fixed\pylon\py_int.c
;	COMDAT ?set_remote_int_value@@YGXPAUENTITY@@W4INT_TYPES@@H@Z
_TEXT	SEGMENT
_en$ = 8						; size = 4
_type$ = 12						; size = 4
_value$ = 16						; size = 4
?set_remote_int_value@@YGXPAUENTITY@@W4INT_TYPES@@H@Z PROC ; set_remote_int_value, COMDAT

; 118  : {

  00000	55		 push	 ebp
  00001	8b ec		 mov	 ebp, esp
  00003	83 ec 40	 sub	 esp, 64			; 00000040H
  00006	53		 push	 ebx
  00007	56		 push	 esi
  00008	57		 push	 edi

; 119  : 	#if DEBUG_MODULE
; 120  : 
; 121  : 	debug_log_entity_args (ENTITY_DEBUG_REMOTE, ENTITY_DEBUG_INT_VALUE, en, type, value);
; 122  : 
; 123  : 	#endif
; 124  : 
; 125  : 	transmit_entity_comms_message (ENTITY_COMMS_INT_VALUE, en, type, value);

  00009	8b 45 10	 mov	 eax, DWORD PTR _value$[ebp]
  0000c	50		 push	 eax
  0000d	8b 4d 0c	 mov	 ecx, DWORD PTR _type$[ebp]
  00010	51		 push	 ecx
  00011	8b 55 08	 mov	 edx, DWORD PTR _en$[ebp]
  00014	52		 push	 edx
  00015	6a 17		 push	 23			; 00000017H
  00017	e8 00 00 00 00	 call	 ?transmit_entity_comms_message@@YAXW4ENTITY_COMMS_MESSAGES@@PAUENTITY@@ZZ ; transmit_entity_comms_message
  0001c	83 c4 10	 add	 esp, 16			; 00000010H

; 126  : }

  0001f	5f		 pop	 edi
  00020	5e		 pop	 esi
  00021	5b		 pop	 ebx
  00022	8b e5		 mov	 esp, ebp
  00024	5d		 pop	 ebp
  00025	c2 0c 00	 ret	 12			; 0000000cH
?set_remote_int_value@@YGXPAUENTITY@@W4INT_TYPES@@H@Z ENDP ; set_remote_int_value
_TEXT	ENDS
; Function compile flags: /Odtp /ZI
; File c:\users\nhv90\projects\eech\aphavoc\source\entity\fixed\pylon\py_int.c
;	COMDAT ?set_local_int_value@@YGXPAUENTITY@@W4INT_TYPES@@H@Z
_TEXT	SEGMENT
tv83 = -72						; size = 4
tv65 = -72						; size = 4
_raw$ = -4						; size = 4
_en$ = 8						; size = 4
_type$ = 12						; size = 4
_value$ = 16						; size = 4
?set_local_int_value@@YGXPAUENTITY@@W4INT_TYPES@@H@Z PROC ; set_local_int_value, COMDAT

; 80   : {

  00000	55		 push	 ebp
  00001	8b ec		 mov	 ebp, esp
  00003	83 ec 48	 sub	 esp, 72			; 00000048H
  00006	53		 push	 ebx
  00007	56		 push	 esi
  00008	57		 push	 edi

; 81   : 	pylon
; 82   : 		*raw;
; 83   : 
; 84   : 	#if DEBUG_MODULE
; 85   : 
; 86   : 	debug_log_entity_args (ENTITY_DEBUG_LOCAL, ENTITY_DEBUG_INT_VALUE, en, type, value);
; 87   : 
; 88   : 	#endif
; 89   : 
; 90   : 	raw = (pylon *) get_local_entity_data (en);

  00009	8b 45 08	 mov	 eax, DWORD PTR _en$[ebp]
  0000c	8b 48 04	 mov	 ecx, DWORD PTR [eax+4]
  0000f	89 4d fc	 mov	 DWORD PTR _raw$[ebp], ecx

; 91   : 
; 92   : 	switch (type)

  00012	8b 45 0c	 mov	 eax, DWORD PTR _type$[ebp]
  00015	89 45 b8	 mov	 DWORD PTR tv65[ebp], eax
  00018	83 7d b8 25	 cmp	 DWORD PTR tv65[ebp], 37	; 00000025H
  0001c	74 02		 je	 SHORT $LN4@set_local_
  0001e	eb 0b		 jmp	 SHORT $LN5@set_local_
$LN4@set_local_:

; 93   : 	{
; 94   : 		////////////////////////////////////////
; 95   : 		case INT_TYPE_DAMAGE_LEVEL:
; 96   : 		////////////////////////////////////////
; 97   : 		{
; 98   : 			raw->damage_level = value;

  00020	8b 45 fc	 mov	 eax, DWORD PTR _raw$[ebp]
  00023	8b 4d 10	 mov	 ecx, DWORD PTR _value$[ebp]
  00026	89 48 40	 mov	 DWORD PTR [eax+64], ecx

; 99   : 
; 100  : 			break;

  00029	eb 72		 jmp	 SHORT $LN1@set_local_
$LN5@set_local_:

; 101  : 		}
; 102  : 		////////////////////////////////////////
; 103  : 		default:
; 104  : 		////////////////////////////////////////
; 105  : 		{
; 106  : 			debug_fatal_invalid_int_type (en, type);

  0002b	83 7d 08 00	 cmp	 DWORD PTR _en$[ebp], 0
  0002f	74 0a		 je	 SHORT $LN7@set_local_
  00031	8b 45 08	 mov	 eax, DWORD PTR _en$[ebp]
  00034	8b 08		 mov	 ecx, DWORD PTR [eax]
  00036	89 4d b8	 mov	 DWORD PTR tv83[ebp], ecx
  00039	eb 21		 jmp	 SHORT $LN8@set_local_
$LN7@set_local_:
  0003b	8b 15 00 00 00
	00		 mov	 edx, DWORD PTR ?__LINE__Var@?0??set_local_int_value@@YGXPAUENTITY@@W4INT_TYPES@@H@Z@4JA
  00041	83 c2 1a	 add	 edx, 26			; 0000001aH
  00044	52		 push	 edx
  00045	68 00 00 00 00	 push	 OFFSET ??_C@_0EI@HKLMDHFJ@c?3?2users?2nhv90?2projects?2eech?2ap@
  0004a	a1 00 00 00 00	 mov	 eax, DWORD PTR ?null_entity_pointer_message@@3PBDB ; null_entity_pointer_message
  0004f	50		 push	 eax
  00050	e8 00 00 00 00	 call	 ?process_assert@@YGXPBD0H@Z ; process_assert
  00055	c7 45 b8 00 00
	00 00		 mov	 DWORD PTR tv83[ebp], 0
$LN8@set_local_:
  0005c	8b 0d 00 00 00
	00		 mov	 ecx, DWORD PTR ?__LINE__Var@?0??set_local_int_value@@YGXPAUENTITY@@W4INT_TYPES@@H@Z@4JA
  00062	83 c1 1a	 add	 ecx, 26			; 0000001aH
  00065	51		 push	 ecx
  00066	68 00 00 00 00	 push	 OFFSET ??_C@_0EI@HKLMDHFJ@c?3?2users?2nhv90?2projects?2eech?2ap@
  0006b	6b 55 0c 14	 imul	 edx, DWORD PTR _type$[ebp], 20
  0006f	8b 82 00 00 00
	00		 mov	 eax, DWORD PTR ?int_type_database@@3PAUINT_TYPE_DATA@@A[edx]
  00075	50		 push	 eax
  00076	8b 4d 08	 mov	 ecx, DWORD PTR _en$[ebp]
  00079	2b 0d 00 00 00
	00		 sub	 ecx, DWORD PTR ?entities@@3PAUENTITY@@A ; entities
  0007f	c1 f9 04	 sar	 ecx, 4
  00082	51		 push	 ecx
  00083	6b 55 b8 0c	 imul	 edx, DWORD PTR tv83[ebp], 12
  00087	8b 82 00 00 00
	00		 mov	 eax, DWORD PTR ?entity_type_database@@3PAUENTITY_TYPE_DATA@@A[edx]
  0008d	50		 push	 eax
  0008e	8b 0d 00 00 00
	00		 mov	 ecx, DWORD PTR ?debug_fatal_invalid_int_type_message@@3PBDB ; debug_fatal_invalid_int_type_message
  00094	51		 push	 ecx
  00095	e8 00 00 00 00	 call	 ?debug_fatal@@YAXPBDZZ	; debug_fatal
  0009a	83 c4 18	 add	 esp, 24			; 00000018H
$LN1@set_local_:

; 107  : 
; 108  : 			break;
; 109  : 		}
; 110  : 	}
; 111  : }

  0009d	5f		 pop	 edi
  0009e	5e		 pop	 esi
  0009f	5b		 pop	 ebx
  000a0	8b e5		 mov	 esp, ebp
  000a2	5d		 pop	 ebp
  000a3	c2 0c 00	 ret	 12			; 0000000cH
?set_local_int_value@@YGXPAUENTITY@@W4INT_TYPES@@H@Z ENDP ; set_local_int_value
_TEXT	ENDS
; Function compile flags: /Odtp /ZI
; File c:\users\nhv90\projects\eech\aphavoc\source\entity\fixed\pylon\py_int.c
;	COMDAT ?overload_pylon_int_value_functions@@YGXXZ
_TEXT	SEGMENT
?overload_pylon_int_value_functions@@YGXXZ PROC		; overload_pylon_int_value_functions, COMDAT

; 237  : {

  00000	55		 push	 ebp
  00001	8b ec		 mov	 ebp, esp
  00003	83 ec 40	 sub	 esp, 64			; 00000040H
  00006	53		 push	 ebx
  00007	56		 push	 esi
  00008	57		 push	 edi

; 238  : 	fn_set_local_entity_raw_int_value		[ENTITY_TYPE_PYLON][INT_TYPE_DAMAGE_LEVEL]									= set_local_int_value;

  00009	b8 5c 04 00 00	 mov	 eax, 1116		; 0000045cH
  0000e	6b c8 15	 imul	 ecx, eax, 21
  00011	ba 04 00 00 00	 mov	 edx, 4
  00016	6b c2 25	 imul	 eax, edx, 37
  00019	c7 84 01 00 00
	00 00 00 00 00
	00		 mov	 DWORD PTR ?fn_set_local_entity_raw_int_value@@3PAY0BBH@P6GXPAUENTITY@@W4INT_TYPES@@H@ZA[ecx+eax], OFFSET ?set_local_int_value@@YGXPAUENTITY@@W4INT_TYPES@@H@Z ; set_local_int_value

; 239  : 	fn_set_local_entity_int_value				[ENTITY_TYPE_PYLON][INT_TYPE_DAMAGE_LEVEL]									= set_local_int_value;

  00024	b8 5c 04 00 00	 mov	 eax, 1116		; 0000045cH
  00029	6b c8 15	 imul	 ecx, eax, 21
  0002c	ba 04 00 00 00	 mov	 edx, 4
  00031	6b c2 25	 imul	 eax, edx, 37
  00034	c7 84 01 00 00
	00 00 00 00 00
	00		 mov	 DWORD PTR ?fn_set_local_entity_int_value@@3PAY0BBH@P6GXPAUENTITY@@W4INT_TYPES@@H@ZA[ecx+eax], OFFSET ?set_local_int_value@@YGXPAUENTITY@@W4INT_TYPES@@H@Z ; set_local_int_value

; 240  : 	fn_set_client_server_entity_int_value	[ENTITY_TYPE_PYLON][INT_TYPE_DAMAGE_LEVEL][COMMS_MODEL_SERVER]			= set_server_int_value;

  0003f	b8 b8 08 00 00	 mov	 eax, 2232		; 000008b8H
  00044	6b c8 15	 imul	 ecx, eax, 21
  00047	ba 08 00 00 00	 mov	 edx, 8
  0004c	6b c2 25	 imul	 eax, edx, 37
  0004f	8d 8c 01 00 00
	00 00		 lea	 ecx, DWORD PTR ?fn_set_client_server_entity_int_value@@3PAY1BBH@1P6GXPAUENTITY@@W4INT_TYPES@@H@ZA[ecx+eax]
  00056	ba 04 00 00 00	 mov	 edx, 4
  0005b	6b c2 00	 imul	 eax, edx, 0
  0005e	c7 04 01 00 00
	00 00		 mov	 DWORD PTR [ecx+eax], OFFSET ?set_server_int_value@@YGXPAUENTITY@@W4INT_TYPES@@H@Z ; set_server_int_value

; 241  : 	fn_set_client_server_entity_int_value	[ENTITY_TYPE_PYLON][INT_TYPE_DAMAGE_LEVEL][COMMS_MODEL_CLIENT]			= set_client_int_value;

  00065	b8 b8 08 00 00	 mov	 eax, 2232		; 000008b8H
  0006a	6b c8 15	 imul	 ecx, eax, 21
  0006d	ba 08 00 00 00	 mov	 edx, 8
  00072	6b c2 25	 imul	 eax, edx, 37
  00075	8d 8c 01 00 00
	00 00		 lea	 ecx, DWORD PTR ?fn_set_client_server_entity_int_value@@3PAY1BBH@1P6GXPAUENTITY@@W4INT_TYPES@@H@ZA[ecx+eax]
  0007c	ba 04 00 00 00	 mov	 edx, 4
  00081	c1 e2 00	 shl	 edx, 0
  00084	c7 04 11 00 00
	00 00		 mov	 DWORD PTR [ecx+edx], OFFSET ?set_client_int_value@@YGXPAUENTITY@@W4INT_TYPES@@H@Z ; set_client_int_value

; 242  : 	fn_get_local_entity_int_value				[ENTITY_TYPE_PYLON][INT_TYPE_DAMAGE_LEVEL]									= get_local_int_value;

  0008b	b8 5c 04 00 00	 mov	 eax, 1116		; 0000045cH
  00090	6b c8 15	 imul	 ecx, eax, 21
  00093	ba 04 00 00 00	 mov	 edx, 4
  00098	6b c2 25	 imul	 eax, edx, 37
  0009b	c7 84 01 00 00
	00 00 00 00 00
	00		 mov	 DWORD PTR ?fn_get_local_entity_int_value@@3PAY0BBH@P6GHPAUENTITY@@W4INT_TYPES@@@ZA[ecx+eax], OFFSET ?get_local_int_value@@YGHPAUENTITY@@W4INT_TYPES@@@Z ; get_local_int_value

; 243  : 
; 244  : 	fn_get_local_entity_int_value				[ENTITY_TYPE_PYLON][INT_TYPE_TARGET_SYMBOL_TYPE]							= get_local_int_value;

  000a6	b8 5c 04 00 00	 mov	 eax, 1116		; 0000045cH
  000ab	6b c8 15	 imul	 ecx, eax, 21
  000ae	ba 04 00 00 00	 mov	 edx, 4
  000b3	69 c2 d5 00 00
	00		 imul	 eax, edx, 213
  000b9	c7 84 01 00 00
	00 00 00 00 00
	00		 mov	 DWORD PTR ?fn_get_local_entity_int_value@@3PAY0BBH@P6GHPAUENTITY@@W4INT_TYPES@@@ZA[ecx+eax], OFFSET ?get_local_int_value@@YGHPAUENTITY@@W4INT_TYPES@@@Z ; get_local_int_value

; 245  : 
; 246  : 	fn_get_local_entity_int_value				[ENTITY_TYPE_PYLON][INT_TYPE_TARGET_TYPE]										= get_local_int_value;

  000c4	b8 5c 04 00 00	 mov	 eax, 1116		; 0000045cH
  000c9	6b c8 15	 imul	 ecx, eax, 21
  000cc	ba 04 00 00 00	 mov	 edx, 4
  000d1	69 c2 d6 00 00
	00		 imul	 eax, edx, 214
  000d7	c7 84 01 00 00
	00 00 00 00 00
	00		 mov	 DWORD PTR ?fn_get_local_entity_int_value@@3PAY0BBH@P6GHPAUENTITY@@W4INT_TYPES@@@ZA[ecx+eax], OFFSET ?get_local_int_value@@YGHPAUENTITY@@W4INT_TYPES@@@Z ; get_local_int_value

; 247  : 
; 248  : 	fn_get_local_entity_int_value				[ENTITY_TYPE_PYLON][INT_TYPE_TASK_TARGET_TYPE]								= get_local_int_value;

  000e2	b8 5c 04 00 00	 mov	 eax, 1116		; 0000045cH
  000e7	6b c8 15	 imul	 ecx, eax, 21
  000ea	ba 04 00 00 00	 mov	 edx, 4
  000ef	69 c2 e6 00 00
	00		 imul	 eax, edx, 230
  000f5	c7 84 01 00 00
	00 00 00 00 00
	00		 mov	 DWORD PTR ?fn_get_local_entity_int_value@@3PAY0BBH@P6GHPAUENTITY@@W4INT_TYPES@@@ZA[ecx+eax], OFFSET ?get_local_int_value@@YGHPAUENTITY@@W4INT_TYPES@@@Z ; get_local_int_value

; 249  : 
; 250  : 	fn_get_local_entity_int_value				[ENTITY_TYPE_PYLON][INT_TYPE_WARHEAD_EFFECTIVE_CLASS]						= get_local_int_value;

  00100	b8 5c 04 00 00	 mov	 eax, 1116		; 0000045cH
  00105	6b c8 15	 imul	 ecx, eax, 21
  00108	ba 04 00 00 00	 mov	 edx, 4
  0010d	69 c2 fc 00 00
	00		 imul	 eax, edx, 252
  00113	c7 84 01 00 00
	00 00 00 00 00
	00		 mov	 DWORD PTR ?fn_get_local_entity_int_value@@3PAY0BBH@P6GHPAUENTITY@@W4INT_TYPES@@@ZA[ecx+eax], OFFSET ?get_local_int_value@@YGHPAUENTITY@@W4INT_TYPES@@@Z ; get_local_int_value

; 251  : }

  0011e	5f		 pop	 edi
  0011f	5e		 pop	 esi
  00120	5b		 pop	 ebx
  00121	8b e5		 mov	 esp, ebp
  00123	5d		 pop	 ebp
  00124	c3		 ret	 0
?overload_pylon_int_value_functions@@YGXXZ ENDP		; overload_pylon_int_value_functions
_TEXT	ENDS
END
