; Listing generated by Microsoft (R) Optimizing Compiler Version 19.16.27045.0 

	TITLE	C:\Users\nhv90\Projects\eech\aphavoc\source\entity\fixed\pylon\py_ptr.c
	.686P
	.XMM
	include listing.inc
	.model	flat

INCLUDELIB MSVCRTD
INCLUDELIB OLDNAMES

PUBLIC	?overload_pylon_ptr_value_functions@@YGXXZ	; overload_pylon_ptr_value_functions
PUBLIC	?__LINE__Var@?0??set_local_ptr_value@@YGXPAUENTITY@@W4PTR_TYPES@@PAX@Z@4JA ; `set_local_ptr_value'::`1'::__LINE__Var
PUBLIC	??_C@_0EI@FBFOLEPF@c?3?2users?2nhv90?2projects?2eech?2ap@ ; `string'
PUBLIC	?__LINE__Var@?0??get_local_ptr_value@@YGPAXPAUENTITY@@W4PTR_TYPES@@@Z@4JA ; `get_local_ptr_value'::`1'::__LINE__Var
EXTRN	?process_assert@@YGXPBD0H@Z:PROC		; process_assert
EXTRN	?debug_fatal@@YAXPBDZZ:PROC			; debug_fatal
EXTRN	?null_entity_pointer_message@@3PBDB:DWORD	; null_entity_pointer_message
EXTRN	?entity_type_database@@3PAUENTITY_TYPE_DATA@@A:BYTE ; entity_type_database
EXTRN	?ptr_type_database@@3PAUPTR_TYPE_DATA@@A:BYTE	; ptr_type_database
EXTRN	?debug_fatal_invalid_ptr_type_message@@3PBDB:DWORD ; debug_fatal_invalid_ptr_type_message
EXTRN	?fn_set_local_entity_ptr_value@@3PAY0BE@P6GXPAUENTITY@@W4PTR_TYPES@@PAX@ZA:BYTE ; fn_set_local_entity_ptr_value
EXTRN	?fn_get_local_entity_ptr_value@@3PAY0BE@P6GPAXPAUENTITY@@W4PTR_TYPES@@@ZA:BYTE ; fn_get_local_entity_ptr_value
EXTRN	?entities@@3PAUENTITY@@A:DWORD			; entities
;	COMDAT ?__LINE__Var@?0??get_local_ptr_value@@YGPAXPAUENTITY@@W4PTR_TYPES@@@Z@4JA
_DATA	SEGMENT
?__LINE__Var@?0??get_local_ptr_value@@YGPAXPAUENTITY@@W4PTR_TYPES@@@Z@4JA DD 076H ; `get_local_ptr_value'::`1'::__LINE__Var
_DATA	ENDS
;	COMDAT ??_C@_0EI@FBFOLEPF@c?3?2users?2nhv90?2projects?2eech?2ap@
CONST	SEGMENT
??_C@_0EI@FBFOLEPF@c?3?2users?2nhv90?2projects?2eech?2ap@ DB 'c:\users\nh'
	DB	'v90\projects\eech\aphavoc\source\entity\fixed\pylon\py_ptr.c', 00H ; `string'
CONST	ENDS
;	COMDAT ?__LINE__Var@?0??set_local_ptr_value@@YGXPAUENTITY@@W4PTR_TYPES@@PAX@Z@4JA
_DATA	SEGMENT
?__LINE__Var@?0??set_local_ptr_value@@YGXPAUENTITY@@W4PTR_TYPES@@PAX@Z@4JA DD 050H ; `set_local_ptr_value'::`1'::__LINE__Var
_DATA	ENDS
; Function compile flags: /Odtp /ZI
; File c:\users\nhv90\projects\eech\aphavoc\source\entity\fixed\pylon\py_ptr.c
;	COMDAT ?get_local_ptr_value@@YGPAXPAUENTITY@@W4PTR_TYPES@@@Z
_TEXT	SEGMENT
tv83 = -76						; size = 4
tv65 = -76						; size = 4
_ptr$ = -8						; size = 4
_raw$ = -4						; size = 4
_en$ = 8						; size = 4
_type$ = 12						; size = 4
?get_local_ptr_value@@YGPAXPAUENTITY@@W4PTR_TYPES@@@Z PROC ; get_local_ptr_value, COMDAT

; 118  : {

  00000	55		 push	 ebp
  00001	8b ec		 mov	 ebp, esp
  00003	83 ec 4c	 sub	 esp, 76			; 0000004cH
  00006	53		 push	 ebx
  00007	56		 push	 esi
  00008	57		 push	 edi

; 119  : 	pylon
; 120  : 		*raw;
; 121  : 
; 122  : 	void
; 123  : 		*ptr;
; 124  : 
; 125  : 	raw = (pylon *) get_local_entity_data (en);

  00009	8b 45 08	 mov	 eax, DWORD PTR _en$[ebp]
  0000c	8b 48 04	 mov	 ecx, DWORD PTR [eax+4]
  0000f	89 4d fc	 mov	 DWORD PTR _raw$[ebp], ecx

; 126  : 
; 127  : 	switch (type)

  00012	8b 45 0c	 mov	 eax, DWORD PTR _type$[ebp]
  00015	89 45 b4	 mov	 DWORD PTR tv65[ebp], eax
  00018	83 7d b4 0d	 cmp	 DWORD PTR tv65[ebp], 13	; 0000000dH
  0001c	74 02		 je	 SHORT $LN4@get_local_
  0001e	eb 0b		 jmp	 SHORT $LN5@get_local_
$LN4@get_local_:

; 128  : 	{
; 129  : 		////////////////////////////////////////
; 130  : 		case PTR_TYPE_SUCC:
; 131  : 		////////////////////////////////////////
; 132  : 		{
; 133  : 			ptr = raw->succ;

  00020	8b 45 fc	 mov	 eax, DWORD PTR _raw$[ebp]
  00023	8b 48 44	 mov	 ecx, DWORD PTR [eax+68]
  00026	89 4d f8	 mov	 DWORD PTR _ptr$[ebp], ecx

; 134  : 
; 135  : 			break;

  00029	eb 72		 jmp	 SHORT $LN2@get_local_
$LN5@get_local_:

; 136  : 		}
; 137  : 		////////////////////////////////////////
; 138  : 		default:
; 139  : 		////////////////////////////////////////
; 140  : 		{
; 141  : 			debug_fatal_invalid_ptr_type (en, type);

  0002b	83 7d 08 00	 cmp	 DWORD PTR _en$[ebp], 0
  0002f	74 0a		 je	 SHORT $LN7@get_local_
  00031	8b 45 08	 mov	 eax, DWORD PTR _en$[ebp]
  00034	8b 08		 mov	 ecx, DWORD PTR [eax]
  00036	89 4d b4	 mov	 DWORD PTR tv83[ebp], ecx
  00039	eb 21		 jmp	 SHORT $LN8@get_local_
$LN7@get_local_:
  0003b	8b 15 00 00 00
	00		 mov	 edx, DWORD PTR ?__LINE__Var@?0??get_local_ptr_value@@YGPAXPAUENTITY@@W4PTR_TYPES@@@Z@4JA
  00041	83 c2 17	 add	 edx, 23			; 00000017H
  00044	52		 push	 edx
  00045	68 00 00 00 00	 push	 OFFSET ??_C@_0EI@FBFOLEPF@c?3?2users?2nhv90?2projects?2eech?2ap@
  0004a	a1 00 00 00 00	 mov	 eax, DWORD PTR ?null_entity_pointer_message@@3PBDB ; null_entity_pointer_message
  0004f	50		 push	 eax
  00050	e8 00 00 00 00	 call	 ?process_assert@@YGXPBD0H@Z ; process_assert
  00055	c7 45 b4 00 00
	00 00		 mov	 DWORD PTR tv83[ebp], 0
$LN8@get_local_:
  0005c	8b 0d 00 00 00
	00		 mov	 ecx, DWORD PTR ?__LINE__Var@?0??get_local_ptr_value@@YGPAXPAUENTITY@@W4PTR_TYPES@@@Z@4JA
  00062	83 c1 17	 add	 ecx, 23			; 00000017H
  00065	51		 push	 ecx
  00066	68 00 00 00 00	 push	 OFFSET ??_C@_0EI@FBFOLEPF@c?3?2users?2nhv90?2projects?2eech?2ap@
  0006b	8b 55 0c	 mov	 edx, DWORD PTR _type$[ebp]
  0006e	8b 04 95 00 00
	00 00		 mov	 eax, DWORD PTR ?ptr_type_database@@3PAUPTR_TYPE_DATA@@A[edx*4]
  00075	50		 push	 eax
  00076	8b 4d 08	 mov	 ecx, DWORD PTR _en$[ebp]
  00079	2b 0d 00 00 00
	00		 sub	 ecx, DWORD PTR ?entities@@3PAUENTITY@@A ; entities
  0007f	c1 f9 04	 sar	 ecx, 4
  00082	51		 push	 ecx
  00083	6b 55 b4 0c	 imul	 edx, DWORD PTR tv83[ebp], 12
  00087	8b 82 00 00 00
	00		 mov	 eax, DWORD PTR ?entity_type_database@@3PAUENTITY_TYPE_DATA@@A[edx]
  0008d	50		 push	 eax
  0008e	8b 0d 00 00 00
	00		 mov	 ecx, DWORD PTR ?debug_fatal_invalid_ptr_type_message@@3PBDB ; debug_fatal_invalid_ptr_type_message
  00094	51		 push	 ecx
  00095	e8 00 00 00 00	 call	 ?debug_fatal@@YAXPBDZZ	; debug_fatal
  0009a	83 c4 18	 add	 esp, 24			; 00000018H
$LN2@get_local_:

; 142  : 
; 143  : 			break;
; 144  : 		}
; 145  : 	}
; 146  : 
; 147  : 	return (ptr);

  0009d	8b 45 f8	 mov	 eax, DWORD PTR _ptr$[ebp]

; 148  : }

  000a0	5f		 pop	 edi
  000a1	5e		 pop	 esi
  000a2	5b		 pop	 ebx
  000a3	8b e5		 mov	 esp, ebp
  000a5	5d		 pop	 ebp
  000a6	c2 08 00	 ret	 8
?get_local_ptr_value@@YGPAXPAUENTITY@@W4PTR_TYPES@@@Z ENDP ; get_local_ptr_value
_TEXT	ENDS
; Function compile flags: /Odtp /ZI
; File c:\users\nhv90\projects\eech\aphavoc\source\entity\fixed\pylon\py_ptr.c
;	COMDAT ?set_local_ptr_value@@YGXPAUENTITY@@W4PTR_TYPES@@PAX@Z
_TEXT	SEGMENT
tv83 = -72						; size = 4
tv65 = -72						; size = 4
_raw$ = -4						; size = 4
_en$ = 8						; size = 4
_type$ = 12						; size = 4
_ptr$ = 16						; size = 4
?set_local_ptr_value@@YGXPAUENTITY@@W4PTR_TYPES@@PAX@Z PROC ; set_local_ptr_value, COMDAT

; 80   : {

  00000	55		 push	 ebp
  00001	8b ec		 mov	 ebp, esp
  00003	83 ec 48	 sub	 esp, 72			; 00000048H
  00006	53		 push	 ebx
  00007	56		 push	 esi
  00008	57		 push	 edi

; 81   : 	pylon
; 82   : 		*raw;
; 83   : 
; 84   : 	#if DEBUG_MODULE
; 85   : 
; 86   : 	debug_log_entity_args (ENTITY_DEBUG_LOCAL, ENTITY_DEBUG_PTR_VALUE, en, type, ptr);
; 87   : 
; 88   : 	#endif
; 89   : 
; 90   : 	raw = (pylon *) get_local_entity_data (en);

  00009	8b 45 08	 mov	 eax, DWORD PTR _en$[ebp]
  0000c	8b 48 04	 mov	 ecx, DWORD PTR [eax+4]
  0000f	89 4d fc	 mov	 DWORD PTR _raw$[ebp], ecx

; 91   : 
; 92   : 	switch (type)

  00012	8b 45 0c	 mov	 eax, DWORD PTR _type$[ebp]
  00015	89 45 b8	 mov	 DWORD PTR tv65[ebp], eax
  00018	83 7d b8 0d	 cmp	 DWORD PTR tv65[ebp], 13	; 0000000dH
  0001c	74 02		 je	 SHORT $LN4@set_local_
  0001e	eb 0b		 jmp	 SHORT $LN5@set_local_
$LN4@set_local_:

; 93   : 	{
; 94   : 		////////////////////////////////////////
; 95   : 		case PTR_TYPE_SUCC:
; 96   : 		////////////////////////////////////////
; 97   : 		{
; 98   : 			raw->succ = (entity *) ptr;

  00020	8b 45 fc	 mov	 eax, DWORD PTR _raw$[ebp]
  00023	8b 4d 10	 mov	 ecx, DWORD PTR _ptr$[ebp]
  00026	89 48 44	 mov	 DWORD PTR [eax+68], ecx

; 99   : 
; 100  : 			break;

  00029	eb 72		 jmp	 SHORT $LN1@set_local_
$LN5@set_local_:

; 101  : 		}
; 102  : 		////////////////////////////////////////
; 103  : 		default:
; 104  : 		////////////////////////////////////////
; 105  : 		{
; 106  : 			debug_fatal_invalid_ptr_type (en, type);

  0002b	83 7d 08 00	 cmp	 DWORD PTR _en$[ebp], 0
  0002f	74 0a		 je	 SHORT $LN7@set_local_
  00031	8b 45 08	 mov	 eax, DWORD PTR _en$[ebp]
  00034	8b 08		 mov	 ecx, DWORD PTR [eax]
  00036	89 4d b8	 mov	 DWORD PTR tv83[ebp], ecx
  00039	eb 21		 jmp	 SHORT $LN8@set_local_
$LN7@set_local_:
  0003b	8b 15 00 00 00
	00		 mov	 edx, DWORD PTR ?__LINE__Var@?0??set_local_ptr_value@@YGXPAUENTITY@@W4PTR_TYPES@@PAX@Z@4JA
  00041	83 c2 1a	 add	 edx, 26			; 0000001aH
  00044	52		 push	 edx
  00045	68 00 00 00 00	 push	 OFFSET ??_C@_0EI@FBFOLEPF@c?3?2users?2nhv90?2projects?2eech?2ap@
  0004a	a1 00 00 00 00	 mov	 eax, DWORD PTR ?null_entity_pointer_message@@3PBDB ; null_entity_pointer_message
  0004f	50		 push	 eax
  00050	e8 00 00 00 00	 call	 ?process_assert@@YGXPBD0H@Z ; process_assert
  00055	c7 45 b8 00 00
	00 00		 mov	 DWORD PTR tv83[ebp], 0
$LN8@set_local_:
  0005c	8b 0d 00 00 00
	00		 mov	 ecx, DWORD PTR ?__LINE__Var@?0??set_local_ptr_value@@YGXPAUENTITY@@W4PTR_TYPES@@PAX@Z@4JA
  00062	83 c1 1a	 add	 ecx, 26			; 0000001aH
  00065	51		 push	 ecx
  00066	68 00 00 00 00	 push	 OFFSET ??_C@_0EI@FBFOLEPF@c?3?2users?2nhv90?2projects?2eech?2ap@
  0006b	8b 55 0c	 mov	 edx, DWORD PTR _type$[ebp]
  0006e	8b 04 95 00 00
	00 00		 mov	 eax, DWORD PTR ?ptr_type_database@@3PAUPTR_TYPE_DATA@@A[edx*4]
  00075	50		 push	 eax
  00076	8b 4d 08	 mov	 ecx, DWORD PTR _en$[ebp]
  00079	2b 0d 00 00 00
	00		 sub	 ecx, DWORD PTR ?entities@@3PAUENTITY@@A ; entities
  0007f	c1 f9 04	 sar	 ecx, 4
  00082	51		 push	 ecx
  00083	6b 55 b8 0c	 imul	 edx, DWORD PTR tv83[ebp], 12
  00087	8b 82 00 00 00
	00		 mov	 eax, DWORD PTR ?entity_type_database@@3PAUENTITY_TYPE_DATA@@A[edx]
  0008d	50		 push	 eax
  0008e	8b 0d 00 00 00
	00		 mov	 ecx, DWORD PTR ?debug_fatal_invalid_ptr_type_message@@3PBDB ; debug_fatal_invalid_ptr_type_message
  00094	51		 push	 ecx
  00095	e8 00 00 00 00	 call	 ?debug_fatal@@YAXPBDZZ	; debug_fatal
  0009a	83 c4 18	 add	 esp, 24			; 00000018H
$LN1@set_local_:

; 107  : 
; 108  : 			break;
; 109  : 		}
; 110  : 	}
; 111  : }

  0009d	5f		 pop	 edi
  0009e	5e		 pop	 esi
  0009f	5b		 pop	 ebx
  000a0	8b e5		 mov	 esp, ebp
  000a2	5d		 pop	 ebp
  000a3	c2 0c 00	 ret	 12			; 0000000cH
?set_local_ptr_value@@YGXPAUENTITY@@W4PTR_TYPES@@PAX@Z ENDP ; set_local_ptr_value
_TEXT	ENDS
; Function compile flags: /Odtp /ZI
; File c:\users\nhv90\projects\eech\aphavoc\source\entity\fixed\pylon\py_ptr.c
;	COMDAT ?overload_pylon_ptr_value_functions@@YGXXZ
_TEXT	SEGMENT
?overload_pylon_ptr_value_functions@@YGXXZ PROC		; overload_pylon_ptr_value_functions, COMDAT

; 155  : {

  00000	55		 push	 ebp
  00001	8b ec		 mov	 ebp, esp
  00003	83 ec 40	 sub	 esp, 64			; 00000040H
  00006	53		 push	 ebx
  00007	56		 push	 esi
  00008	57		 push	 edi

; 156  : 	fn_set_local_entity_ptr_value[ENTITY_TYPE_PYLON][PTR_TYPE_SUCC] = set_local_ptr_value;

  00009	b8 50 00 00 00	 mov	 eax, 80			; 00000050H
  0000e	6b c8 15	 imul	 ecx, eax, 21
  00011	ba 04 00 00 00	 mov	 edx, 4
  00016	6b c2 0d	 imul	 eax, edx, 13
  00019	c7 84 01 00 00
	00 00 00 00 00
	00		 mov	 DWORD PTR ?fn_set_local_entity_ptr_value@@3PAY0BE@P6GXPAUENTITY@@W4PTR_TYPES@@PAX@ZA[ecx+eax], OFFSET ?set_local_ptr_value@@YGXPAUENTITY@@W4PTR_TYPES@@PAX@Z ; set_local_ptr_value

; 157  : 	fn_get_local_entity_ptr_value[ENTITY_TYPE_PYLON][PTR_TYPE_SUCC] = get_local_ptr_value;

  00024	b8 50 00 00 00	 mov	 eax, 80			; 00000050H
  00029	6b c8 15	 imul	 ecx, eax, 21
  0002c	ba 04 00 00 00	 mov	 edx, 4
  00031	6b c2 0d	 imul	 eax, edx, 13
  00034	c7 84 01 00 00
	00 00 00 00 00
	00		 mov	 DWORD PTR ?fn_get_local_entity_ptr_value@@3PAY0BE@P6GPAXPAUENTITY@@W4PTR_TYPES@@@ZA[ecx+eax], OFFSET ?get_local_ptr_value@@YGPAXPAUENTITY@@W4PTR_TYPES@@@Z ; get_local_ptr_value

; 158  : }

  0003f	5f		 pop	 edi
  00040	5e		 pop	 esi
  00041	5b		 pop	 ebx
  00042	8b e5		 mov	 esp, ebp
  00044	5d		 pop	 ebp
  00045	c3		 ret	 0
?overload_pylon_ptr_value_functions@@YGXXZ ENDP		; overload_pylon_ptr_value_functions
_TEXT	ENDS
END
