; Listing generated by Microsoft (R) Optimizing Compiler Version 19.16.27045.0 

	TITLE	C:\Users\nhv90\Projects\eech\modules\userint2\ui_obj\radio\radio.c
	.686P
	.XMM
	include listing.inc
	.model	flat

INCLUDELIB MSVCRTD
INCLUDELIB OLDNAMES

PUBLIC	?set_radio_buttons_off@@YGXPAUUI_OBJECT@@@Z	; set_radio_buttons_off
PUBLIC	?set_radio_button_on@@YGXPAUUI_OBJECT@@@Z	; set_radio_button_on
EXTRN	?fn_set_ui_object_redraw@@3PAP6GXPAUUI_OBJECT@@H@ZA:BYTE ; fn_set_ui_object_redraw
EXTRN	?fn_get_ui_object_clear@@3PAP6GHPAUUI_OBJECT@@@ZA:BYTE ; fn_get_ui_object_clear
EXTRN	?fn_get_ui_object_parent@@3PAP6GPAUUI_OBJECT@@PAU1@@ZA:BYTE ; fn_get_ui_object_parent
EXTRN	?fn_get_ui_object_child@@3PAP6GPAUUI_OBJECT@@PAU1@@ZA:BYTE ; fn_get_ui_object_child
EXTRN	?fn_get_ui_object_next@@3PAP6GPAUUI_OBJECT@@PAU1@@ZA:BYTE ; fn_get_ui_object_next
; Function compile flags: /Odtp /ZI
; File c:\users\nhv90\projects\eech\modules\userint2\ui_obj\radio\radio.c
;	COMDAT ?set_radio_button_on@@YGXPAUUI_OBJECT@@@Z
_TEXT	SEGMENT
_parent$ = -8						; size = 4
_area$ = -4						; size = 4
_obj$ = 8						; size = 4
?set_radio_button_on@@YGXPAUUI_OBJECT@@@Z PROC		; set_radio_button_on, COMDAT

; 141  : {

  00000	55		 push	 ebp
  00001	8b ec		 mov	 ebp, esp
  00003	83 ec 48	 sub	 esp, 72			; 00000048H
  00006	53		 push	 ebx
  00007	56		 push	 esi
  00008	57		 push	 edi

; 142  : 
; 143  : 	area_ui_object
; 144  : 		*area;
; 145  : 
; 146  : 	ui_object
; 147  : 		*parent;
; 148  : 
; 149  : 	area = (area_ui_object *) obj->data;

  00009	8b 45 08	 mov	 eax, DWORD PTR _obj$[ebp]
  0000c	8b 48 04	 mov	 ecx, DWORD PTR [eax+4]
  0000f	89 4d fc	 mov	 DWORD PTR _area$[ebp], ecx

; 150  : 
; 151  : 	area->state = UI_OBJECT_STATE_ON;

  00012	8b 45 fc	 mov	 eax, DWORD PTR _area$[ebp]
  00015	8b 48 4c	 mov	 ecx, DWORD PTR [eax+76]
  00018	83 e1 e7	 and	 ecx, -25		; ffffffe7H
  0001b	83 c9 08	 or	 ecx, 8
  0001e	8b 55 fc	 mov	 edx, DWORD PTR _area$[ebp]
  00021	89 4a 4c	 mov	 DWORD PTR [edx+76], ecx

; 152  : 
; 153  : 	parent = get_ui_object_parent (obj);

  00024	8b 45 08	 mov	 eax, DWORD PTR _obj$[ebp]
  00027	50		 push	 eax
  00028	8b 4d 08	 mov	 ecx, DWORD PTR _obj$[ebp]
  0002b	8b 11		 mov	 edx, DWORD PTR [ecx]
  0002d	8b 04 95 00 00
	00 00		 mov	 eax, DWORD PTR ?fn_get_ui_object_parent@@3PAP6GPAUUI_OBJECT@@PAU1@@ZA[edx*4]
  00034	ff d0		 call	 eax
  00036	89 45 f8	 mov	 DWORD PTR _parent$[ebp], eax

; 154  : 
; 155  : 	if (parent)

  00039	83 7d f8 00	 cmp	 DWORD PTR _parent$[ebp], 0
  0003d	74 63		 je	 SHORT $LN4@set_radio_

; 156  : 	{
; 157  : 
; 158  : 		set_ui_object_redraw (parent, TRUE);

  0003f	6a 01		 push	 1
  00041	8b 45 f8	 mov	 eax, DWORD PTR _parent$[ebp]
  00044	50		 push	 eax
  00045	8b 4d f8	 mov	 ecx, DWORD PTR _parent$[ebp]
  00048	8b 11		 mov	 edx, DWORD PTR [ecx]
  0004a	8b 04 95 00 00
	00 00		 mov	 eax, DWORD PTR ?fn_set_ui_object_redraw@@3PAP6GXPAUUI_OBJECT@@H@ZA[edx*4]
  00051	ff d0		 call	 eax
$LN2@set_radio_:

; 159  : 
; 160  : 		while ((parent) && (get_ui_object_clear (parent)))

  00053	83 7d f8 00	 cmp	 DWORD PTR _parent$[ebp], 0
  00057	74 47		 je	 SHORT $LN3@set_radio_
  00059	8b 45 f8	 mov	 eax, DWORD PTR _parent$[ebp]
  0005c	50		 push	 eax
  0005d	8b 4d f8	 mov	 ecx, DWORD PTR _parent$[ebp]
  00060	8b 11		 mov	 edx, DWORD PTR [ecx]
  00062	8b 04 95 00 00
	00 00		 mov	 eax, DWORD PTR ?fn_get_ui_object_clear@@3PAP6GHPAUUI_OBJECT@@@ZA[edx*4]
  00069	ff d0		 call	 eax
  0006b	85 c0		 test	 eax, eax
  0006d	74 31		 je	 SHORT $LN3@set_radio_

; 161  : 		{
; 162  : 
; 163  : 			parent = get_ui_object_parent (parent);

  0006f	8b 45 f8	 mov	 eax, DWORD PTR _parent$[ebp]
  00072	50		 push	 eax
  00073	8b 4d f8	 mov	 ecx, DWORD PTR _parent$[ebp]
  00076	8b 11		 mov	 edx, DWORD PTR [ecx]
  00078	8b 04 95 00 00
	00 00		 mov	 eax, DWORD PTR ?fn_get_ui_object_parent@@3PAP6GPAUUI_OBJECT@@PAU1@@ZA[edx*4]
  0007f	ff d0		 call	 eax
  00081	89 45 f8	 mov	 DWORD PTR _parent$[ebp], eax

; 164  : 
; 165  : 			if (parent)

  00084	83 7d f8 00	 cmp	 DWORD PTR _parent$[ebp], 0
  00088	74 14		 je	 SHORT $LN6@set_radio_

; 166  : 			{
; 167  : 
; 168  : 				set_ui_object_redraw (parent, TRUE);

  0008a	6a 01		 push	 1
  0008c	8b 45 f8	 mov	 eax, DWORD PTR _parent$[ebp]
  0008f	50		 push	 eax
  00090	8b 4d f8	 mov	 ecx, DWORD PTR _parent$[ebp]
  00093	8b 11		 mov	 edx, DWORD PTR [ecx]
  00095	8b 04 95 00 00
	00 00		 mov	 eax, DWORD PTR ?fn_set_ui_object_redraw@@3PAP6GXPAUUI_OBJECT@@H@ZA[edx*4]
  0009c	ff d0		 call	 eax
$LN6@set_radio_:

; 169  : 			}
; 170  : 		}

  0009e	eb b3		 jmp	 SHORT $LN2@set_radio_
$LN3@set_radio_:

; 171  : 	}
; 172  : 	else

  000a0	eb 14		 jmp	 SHORT $LN1@set_radio_
$LN4@set_radio_:

; 173  : 	{
; 174  : 
; 175  : 		set_ui_object_redraw (obj, TRUE);

  000a2	6a 01		 push	 1
  000a4	8b 45 08	 mov	 eax, DWORD PTR _obj$[ebp]
  000a7	50		 push	 eax
  000a8	8b 4d 08	 mov	 ecx, DWORD PTR _obj$[ebp]
  000ab	8b 11		 mov	 edx, DWORD PTR [ecx]
  000ad	8b 04 95 00 00
	00 00		 mov	 eax, DWORD PTR ?fn_set_ui_object_redraw@@3PAP6GXPAUUI_OBJECT@@H@ZA[edx*4]
  000b4	ff d0		 call	 eax
$LN1@set_radio_:

; 176  : 	}
; 177  : }

  000b6	5f		 pop	 edi
  000b7	5e		 pop	 esi
  000b8	5b		 pop	 ebx
  000b9	8b e5		 mov	 esp, ebp
  000bb	5d		 pop	 ebp
  000bc	c2 04 00	 ret	 4
?set_radio_button_on@@YGXPAUUI_OBJECT@@@Z ENDP		; set_radio_button_on
_TEXT	ENDS
; Function compile flags: /Odtp /ZI
; File c:\users\nhv90\projects\eech\modules\userint2\ui_obj\radio\radio.c
;	COMDAT ?set_radio_buttons_off@@YGXPAUUI_OBJECT@@@Z
_TEXT	SEGMENT
_parent$ = -12						; size = 4
_next$ = -8						; size = 4
_area$ = -4						; size = 4
_obj$ = 8						; size = 4
?set_radio_buttons_off@@YGXPAUUI_OBJECT@@@Z PROC	; set_radio_buttons_off, COMDAT

; 74   : {

  00000	55		 push	 ebp
  00001	8b ec		 mov	 ebp, esp
  00003	83 ec 4c	 sub	 esp, 76			; 0000004cH
  00006	53		 push	 ebx
  00007	56		 push	 esi
  00008	57		 push	 edi

; 75   : 
; 76   : 	area_ui_object
; 77   : 		*area;
; 78   : 
; 79   : 	ui_object
; 80   : 		*next,
; 81   : 		*parent;
; 82   : 
; 83   : 	area = (area_ui_object *) obj->data;

  00009	8b 45 08	 mov	 eax, DWORD PTR _obj$[ebp]
  0000c	8b 48 04	 mov	 ecx, DWORD PTR [eax+4]
  0000f	89 4d fc	 mov	 DWORD PTR _area$[ebp], ecx

; 84   : 
; 85   : 	parent = get_ui_object_parent (obj);

  00012	8b 45 08	 mov	 eax, DWORD PTR _obj$[ebp]
  00015	50		 push	 eax
  00016	8b 4d 08	 mov	 ecx, DWORD PTR _obj$[ebp]
  00019	8b 11		 mov	 edx, DWORD PTR [ecx]
  0001b	8b 04 95 00 00
	00 00		 mov	 eax, DWORD PTR ?fn_get_ui_object_parent@@3PAP6GPAUUI_OBJECT@@PAU1@@ZA[edx*4]
  00022	ff d0		 call	 eax
  00024	89 45 f4	 mov	 DWORD PTR _parent$[ebp], eax

; 86   : 
; 87   : 	if (parent)

  00027	83 7d f4 00	 cmp	 DWORD PTR _parent$[ebp], 0
  0002b	74 17		 je	 SHORT $LN6@set_radio_

; 88   : 	{
; 89   : 
; 90   : 		next = get_ui_object_child (parent);

  0002d	8b 45 f4	 mov	 eax, DWORD PTR _parent$[ebp]
  00030	50		 push	 eax
  00031	8b 4d f4	 mov	 ecx, DWORD PTR _parent$[ebp]
  00034	8b 11		 mov	 edx, DWORD PTR [ecx]
  00036	8b 04 95 00 00
	00 00		 mov	 eax, DWORD PTR ?fn_get_ui_object_child@@3PAP6GPAUUI_OBJECT@@PAU1@@ZA[edx*4]
  0003d	ff d0		 call	 eax
  0003f	89 45 f8	 mov	 DWORD PTR _next$[ebp], eax

; 91   : 	}
; 92   : 	else

  00042	eb 15		 jmp	 SHORT $LN2@set_radio_
$LN6@set_radio_:

; 93   : 	{
; 94   : 
; 95   : 		next = get_ui_object_next (obj);

  00044	8b 45 08	 mov	 eax, DWORD PTR _obj$[ebp]
  00047	50		 push	 eax
  00048	8b 4d 08	 mov	 ecx, DWORD PTR _obj$[ebp]
  0004b	8b 11		 mov	 edx, DWORD PTR [ecx]
  0004d	8b 04 95 00 00
	00 00		 mov	 eax, DWORD PTR ?fn_get_ui_object_next@@3PAP6GPAUUI_OBJECT@@PAU1@@ZA[edx*4]
  00054	ff d0		 call	 eax
  00056	89 45 f8	 mov	 DWORD PTR _next$[ebp], eax
$LN2@set_radio_:

; 96   : 	}
; 97   : 
; 98   : 	while (next)

  00059	83 7d f8 00	 cmp	 DWORD PTR _next$[ebp], 0
  0005d	74 37		 je	 SHORT $LN3@set_radio_

; 99   : 	{
; 100  : 
; 101  : 		if (next->type == UI_TYPE_RADIO)

  0005f	8b 45 f8	 mov	 eax, DWORD PTR _next$[ebp]
  00062	83 38 03	 cmp	 DWORD PTR [eax], 3
  00065	75 18		 jne	 SHORT $LN8@set_radio_

; 102  : 		{
; 103  : 	
; 104  : 			area = (area_ui_object *) next->data;

  00067	8b 45 f8	 mov	 eax, DWORD PTR _next$[ebp]
  0006a	8b 48 04	 mov	 ecx, DWORD PTR [eax+4]
  0006d	89 4d fc	 mov	 DWORD PTR _area$[ebp], ecx

; 105  : 	
; 106  : 			area->state = UI_OBJECT_STATE_OFF;

  00070	8b 45 fc	 mov	 eax, DWORD PTR _area$[ebp]
  00073	8b 48 4c	 mov	 ecx, DWORD PTR [eax+76]
  00076	83 e1 e7	 and	 ecx, -25		; ffffffe7H
  00079	8b 55 fc	 mov	 edx, DWORD PTR _area$[ebp]
  0007c	89 4a 4c	 mov	 DWORD PTR [edx+76], ecx
$LN8@set_radio_:

; 107  : 		}
; 108  : 	
; 109  : 		next = get_ui_object_next (next);

  0007f	8b 45 f8	 mov	 eax, DWORD PTR _next$[ebp]
  00082	50		 push	 eax
  00083	8b 4d f8	 mov	 ecx, DWORD PTR _next$[ebp]
  00086	8b 11		 mov	 edx, DWORD PTR [ecx]
  00088	8b 04 95 00 00
	00 00		 mov	 eax, DWORD PTR ?fn_get_ui_object_next@@3PAP6GPAUUI_OBJECT@@PAU1@@ZA[edx*4]
  0008f	ff d0		 call	 eax
  00091	89 45 f8	 mov	 DWORD PTR _next$[ebp], eax

; 110  : 	}

  00094	eb c3		 jmp	 SHORT $LN2@set_radio_
$LN3@set_radio_:

; 111  : 
; 112  : 	if (parent)

  00096	83 7d f4 00	 cmp	 DWORD PTR _parent$[ebp], 0
  0009a	74 63		 je	 SHORT $LN9@set_radio_

; 113  : 	{
; 114  : 
; 115  : 		set_ui_object_redraw (parent, TRUE);

  0009c	6a 01		 push	 1
  0009e	8b 45 f4	 mov	 eax, DWORD PTR _parent$[ebp]
  000a1	50		 push	 eax
  000a2	8b 4d f4	 mov	 ecx, DWORD PTR _parent$[ebp]
  000a5	8b 11		 mov	 edx, DWORD PTR [ecx]
  000a7	8b 04 95 00 00
	00 00		 mov	 eax, DWORD PTR ?fn_set_ui_object_redraw@@3PAP6GXPAUUI_OBJECT@@H@ZA[edx*4]
  000ae	ff d0		 call	 eax
$LN4@set_radio_:

; 116  : 
; 117  : 		while ((parent) && (get_ui_object_clear (parent)))

  000b0	83 7d f4 00	 cmp	 DWORD PTR _parent$[ebp], 0
  000b4	74 47		 je	 SHORT $LN5@set_radio_
  000b6	8b 45 f4	 mov	 eax, DWORD PTR _parent$[ebp]
  000b9	50		 push	 eax
  000ba	8b 4d f4	 mov	 ecx, DWORD PTR _parent$[ebp]
  000bd	8b 11		 mov	 edx, DWORD PTR [ecx]
  000bf	8b 04 95 00 00
	00 00		 mov	 eax, DWORD PTR ?fn_get_ui_object_clear@@3PAP6GHPAUUI_OBJECT@@@ZA[edx*4]
  000c6	ff d0		 call	 eax
  000c8	85 c0		 test	 eax, eax
  000ca	74 31		 je	 SHORT $LN5@set_radio_

; 118  : 		{
; 119  : 
; 120  : 			parent = get_ui_object_parent (parent);

  000cc	8b 45 f4	 mov	 eax, DWORD PTR _parent$[ebp]
  000cf	50		 push	 eax
  000d0	8b 4d f4	 mov	 ecx, DWORD PTR _parent$[ebp]
  000d3	8b 11		 mov	 edx, DWORD PTR [ecx]
  000d5	8b 04 95 00 00
	00 00		 mov	 eax, DWORD PTR ?fn_get_ui_object_parent@@3PAP6GPAUUI_OBJECT@@PAU1@@ZA[edx*4]
  000dc	ff d0		 call	 eax
  000de	89 45 f4	 mov	 DWORD PTR _parent$[ebp], eax

; 121  : 
; 122  : 			if (parent)

  000e1	83 7d f4 00	 cmp	 DWORD PTR _parent$[ebp], 0
  000e5	74 14		 je	 SHORT $LN11@set_radio_

; 123  : 			{
; 124  : 
; 125  : 				set_ui_object_redraw (parent, TRUE);

  000e7	6a 01		 push	 1
  000e9	8b 45 f4	 mov	 eax, DWORD PTR _parent$[ebp]
  000ec	50		 push	 eax
  000ed	8b 4d f4	 mov	 ecx, DWORD PTR _parent$[ebp]
  000f0	8b 11		 mov	 edx, DWORD PTR [ecx]
  000f2	8b 04 95 00 00
	00 00		 mov	 eax, DWORD PTR ?fn_set_ui_object_redraw@@3PAP6GXPAUUI_OBJECT@@H@ZA[edx*4]
  000f9	ff d0		 call	 eax
$LN11@set_radio_:

; 126  : 			}
; 127  : 		}

  000fb	eb b3		 jmp	 SHORT $LN4@set_radio_
$LN5@set_radio_:

; 128  : 	}
; 129  : 	else

  000fd	eb 14		 jmp	 SHORT $LN1@set_radio_
$LN9@set_radio_:

; 130  : 	{
; 131  : 
; 132  : 		set_ui_object_redraw (obj, TRUE);

  000ff	6a 01		 push	 1
  00101	8b 45 08	 mov	 eax, DWORD PTR _obj$[ebp]
  00104	50		 push	 eax
  00105	8b 4d 08	 mov	 ecx, DWORD PTR _obj$[ebp]
  00108	8b 11		 mov	 edx, DWORD PTR [ecx]
  0010a	8b 04 95 00 00
	00 00		 mov	 eax, DWORD PTR ?fn_set_ui_object_redraw@@3PAP6GXPAUUI_OBJECT@@H@ZA[edx*4]
  00111	ff d0		 call	 eax
$LN1@set_radio_:

; 133  : 	}
; 134  : }

  00113	5f		 pop	 edi
  00114	5e		 pop	 esi
  00115	5b		 pop	 ebx
  00116	8b e5		 mov	 esp, ebp
  00118	5d		 pop	 ebp
  00119	c2 04 00	 ret	 4
?set_radio_buttons_off@@YGXPAUUI_OBJECT@@@Z ENDP	; set_radio_buttons_off
_TEXT	ENDS
END
