; Listing generated by Microsoft (R) Optimizing Compiler Version 19.16.27045.0 

	TITLE	C:\Users\nhv90\Projects\eech\aphavoc\source\ai\highlevl\reaction.c
	.686P
	.XMM
	include listing.inc
	.model	flat

INCLUDELIB MSVCRTD
INCLUDELIB OLDNAMES

PUBLIC	___local_stdio_printf_options
PUBLIC	__vsnprintf_l
PUBLIC	__vsprintf_l
PUBLIC	_sprintf
PUBLIC	?create_task_assigned_reactionary_tasks@@YGXPAUENTITY@@@Z ; create_task_assigned_reactionary_tasks
PUBLIC	?create_task_completed_reactionary_tasks@@YGXPAUENTITY@@@Z ; create_task_completed_reactionary_tasks
PUBLIC	?create_reaction_to_artillery_fire@@YGXPAUENTITY@@0@Z ; create_reaction_to_artillery_fire
PUBLIC	?create_reaction_to_map_click@@YGXPAUENTITY@@@Z	; create_reaction_to_map_click
PUBLIC	?_OptionsStorage@?1??__local_stdio_printf_options@@9@4_KA ; `__local_stdio_printf_options'::`2'::_OptionsStorage
PUBLIC	?__LINE__Var@?0??create_task_assigned_reactionary_tasks@@YGXPAUENTITY@@@Z@4JA ; `create_task_assigned_reactionary_tasks'::`1'::__LINE__Var
PUBLIC	??_C@_0ED@PAFNPDBA@c?3?2users?2nhv90?2projects?2eech?2ap@ ; `string'
PUBLIC	??_C@_04GGKLLKOO@task@				; `string'
PUBLIC	??_C@_0CJ@DMBLBJBK@get_comms_model?5?$CI?$CJ?5?$DN?$DN?5COMMS_MOD@ ; `string'
PUBLIC	?__LINE__Var@?0??create_task_completed_reactionary_tasks@@YGXPAUENTITY@@@Z@4JA ; `create_task_completed_reactionary_tasks'::`1'::__LINE__Var
PUBLIC	?__LINE__Var@?0??create_reaction_to_offensive_keysite_task_assigned@@YGXPAUENTITY@@@Z@4JA ; `create_reaction_to_offensive_keysite_task_assigned'::`1'::__LINE__Var
PUBLIC	??_C@_09FKEDLGBF@objective@			; `string'
PUBLIC	??_C@_0CM@DKCOECIC@?$DN?$DN?$DN?$DN?$DN?$DN?$DN?$DN?$DN?$DN?$DN?$DN?$DN?$DN?$DN?$DN?$DN?$DN?$DN?$DN?$DN?$DN?$DN?$DN?$DN?$DN?$DN?$DN?$DN?$DN?$DN@ ; `string'
PUBLIC	??_C@_0CM@NHLNKGBK@REACTION?5TO?5OFFENSIVE?5KEYSITE?5T@ ; `string'
PUBLIC	??_C@_0CM@JHDGHFGP@?9?9?9?9?9?9?9?9?9?9?9?9?9?9?9?9?9?9?9?9?9?9?9?9?9?9?9?9?9?9?9@ ; `string'
PUBLIC	??_C@_0DK@LIMKOOBG@?$CITASK?$CJ?5Side?5?$CFs?5?3?5Created?5CAP?5?$CI?$CF@ ; `string'
PUBLIC	??_C@_05HLIEEKJG@guide@				; `string'
PUBLIC	??_C@_05MGJOOGAJ@group@				; `string'
PUBLIC	??_C@_0DN@EAJCCGHF@?$CITASK?$CJ?5Side?5?$CFs?5?3?5Created?5BARCAP@ ; `string'
PUBLIC	?__LINE__Var@?0??create_reaction_to_recon_task_completed@@YGXPAUENTITY@@@Z@4JA ; `create_reaction_to_recon_task_completed'::`1'::__LINE__Var
PUBLIC	??_C@_05BINPNAAL@force@				; `string'
PUBLIC	??_C@_0CB@HHHLKEEB@?$DN?$DN?$DN?$DN?$DN?$DN?$DN?$DN?$DN?$DN?$DN?$DN?$DN?$DN?$DN?$DN?$DN?$DN?$DN?$DN?$DN?$DN?$DN?$DN?$DN?$DN?$DN?$DN?$DN?$DN?$DN@ ; `string'
PUBLIC	??_C@_0CB@FNNEAEL@REACTION?5TO?5RECON?5TASK?5COMPLETE@ ; `string'
PUBLIC	??_C@_0CB@GNHPAIID@?9?9?9?9?9?9?9?9?9?9?9?9?9?9?9?9?9?9?9?9?9?9?9?9?9?9?9?9?9?9?9@ ; `string'
PUBLIC	??_C@_0N@JMJFELOL@is?5currently@		; `string'
PUBLIC	??_C@_0P@DPDAPKCI@revealed?5enemy@		; `string'
PUBLIC	??_C@_0P@EIKAFNDF@?$CFs?5?$CFs?5?$CFs?5?$CFs?5?$CFs@ ; `string'
PUBLIC	??_C@_0FC@IGKCOALE@?$CITASK?$CJ?5Side?5?$CFs?5?3?5Created?5TROOP?5@ ; `string'
PUBLIC	??_C@_0EN@GANKIGPA@?$CITASK?$CJ?5Side?5?$CFs?5?3?5Created?5OCA?5ST@ ; `string'
PUBLIC	??_C@_0EM@DNLNLGOL@?$CITASK?$CJ?5Side?5?$CFs?5?3?5Created?5OCA?5SW@ ; `string'
PUBLIC	??_C@_0EJ@JNDJIAKO@?$CITASK?$CJ?5Side?5?$CFs?5?3?5Created?5STRIKE@ ; `string'
PUBLIC	??_C@_0FD@JBAPAIII@?$CITASK?$CJ?5Side?5?$CFs?5?3?5Created?5ANTI?9S@ ; `string'
PUBLIC	??_C@_0BD@CJIFGLCK@has?5been?5destroyed@	; `string'
PUBLIC	??_C@_08BCAGGEAL@revealed@			; `string'
PUBLIC	??_C@_08EPEHIMMI@?$CFs?5?$CFs?5?$CFs@		; `string'
PUBLIC	??_C@_0DL@FACLFHJG@?$CITASK?$CJ?5Side?5?$CFs?5?3?5Created?5SEAD?5?$CI@ ; `string'
PUBLIC	??_C@_0BH@PFFAKBG@enemy?5A?9A?5installation@	; `string'
PUBLIC	??_C@_0L@JBGBOCDK@?$CFs?5?$CFs?51?5?$CFs@	; `string'
PUBLIC	??_C@_0BI@PAMJMKGO@enemy?5A?9A?5installations@	; `string'
PUBLIC	??_C@_0M@KIFEIOFB@?$CFs?5?$CFs?5?$CFd?5?$CFs@	; `string'
PUBLIC	??_C@_0DK@PJPICFLO@?$CITASK?$CJ?5Side?5?$CFs?5?3?5Created?5BAI?5?$CI?$CF@ ; `string'
PUBLIC	??_C@_0CC@OPDFECFI@revealed?5enemy?5armoured?5battali@ ; `string'
PUBLIC	??_C@_05DNIIFBMG@?$CFs?5?$CFs@			; `string'
PUBLIC	?__LINE__Var@?0??create_reaction_to_strike_task_completed@@YGXPAUENTITY@@@Z@4JA ; `create_reaction_to_strike_task_completed'::`1'::__LINE__Var
PUBLIC	??_C@_0CC@KILKLPJC@REACTION?5TO?5STRIKE?5TASK?5COMPLET@ ; `string'
PUBLIC	??_C@_0EG@IAANGOIG@?$CITASK?$CJ?5Side?5?$CFs?5?3?5Created?5BDA?5?$CI?$CF@ ; `string'
PUBLIC	?__LINE__Var@?0??create_reaction_to_artillery_fire@@YGXPAUENTITY@@0@Z@4JA ; `create_reaction_to_artillery_fire'::`1'::__LINE__Var
PUBLIC	??_C@_06JJLAMBGK@target@			; `string'
PUBLIC	??_C@_06IDGHNJOB@sector@			; `string'
PUBLIC	??_C@_0FD@CEGILPJG@?$CITASK?$CJ?5Side?5?$CFs?5?3?5Created?5BAI?5?$CI?$CF@ ; `string'
PUBLIC	??_C@_0FF@LJGPEIM@?$CITASK?$CJ?5Side?5?$CFs?5?3?5Created?5RECON?5@ ; `string'
PUBLIC	?__LINE__Var@?0??create_reaction_to_map_click@@YGXPAUENTITY@@@Z@4JA ; `create_reaction_to_map_click'::`1'::__LINE__Var
PUBLIC	__real@3fe0000000000000
PUBLIC	__real@3ff0000000000000
PUBLIC	__real@4000000000000000
PUBLIC	__real@40800000
PUBLIC	__real@44e10000
PUBLIC	__real@45bb8000
EXTRN	__imp____stdio_common_vsprintf:PROC
EXTRN	?process_assert@@YGXPBD0H@Z:PROC		; process_assert
EXTRN	?normalise_any_3d_vector@@YGMPAUVEC3D@@@Z:PROC	; normalise_any_3d_vector
EXTRN	?get_local_force_entity@@YGPAUENTITY@@W4ENTITY_SIDES@@@Z:PROC ; get_local_force_entity
EXTRN	?get_local_sector_entity@@YGPAUENTITY@@PAUVEC3D@@@Z:PROC ; get_local_sector_entity
EXTRN	?get_sector_fog_of_war_value@@YGMPAUENTITY@@W4ENTITY_SIDES@@@Z:PROC ; get_sector_fog_of_war_value
EXTRN	?entity_is_object_of_task@@YGHPAUENTITY@@HW4ENTITY_SIDES@@@Z:PROC ; entity_is_object_of_task
EXTRN	?send_text_message@@YGXPAUENTITY@@0W4MESSAGE_TEXT_TYPES@@PBD@Z:PROC ; send_text_message
EXTRN	?get_trans@@YGPBDPBD@Z:PROC			; get_trans
EXTRN	?create_sead_tasks_around_keysite@@YGHPAUENTITY@@0W4ENTITY_SIDES@@@Z:PROC ; create_sead_tasks_around_keysite
EXTRN	?ai_log@@YAXPBDZZ:PROC				; ai_log
EXTRN	?get_imap_value@@YGMW4IMAP_TYPES@@W4ENTITY_SIDES@@HH@Z:PROC ; get_imap_value
EXTRN	?create_anti_ship_strike_task@@YGPAUENTITY@@W4ENTITY_SIDES@@PAU1@1HM11@Z:PROC ; create_anti_ship_strike_task
EXTRN	?create_bai_task@@YGPAUENTITY@@W4ENTITY_SIDES@@PAU1@1HM11@Z:PROC ; create_bai_task
EXTRN	?create_barcap_task@@YGPAUENTITY@@W4ENTITY_SIDES@@PAU1@1HPAUVEC3D@@MM11@Z:PROC ; create_barcap_task
EXTRN	?create_bda_task@@YGPAUENTITY@@W4ENTITY_SIDES@@PAU1@1HM11@Z:PROC ; create_bda_task
EXTRN	?create_cap_task@@YGPAUENTITY@@W4ENTITY_SIDES@@PAU1@1HMM11@Z:PROC ; create_cap_task
EXTRN	?create_close_air_support_task@@YGPAUENTITY@@W4ENTITY_SIDES@@PAU1@1HM11@Z:PROC ; create_close_air_support_task
EXTRN	?create_ground_strike_task@@YGPAUENTITY@@W4ENTITY_SIDES@@PAU1@1HM11@Z:PROC ; create_ground_strike_task
EXTRN	?create_oca_strike_task@@YGPAUENTITY@@W4ENTITY_SIDES@@PAU1@1HM11@Z:PROC ; create_oca_strike_task
EXTRN	?create_oca_sweep_task@@YGPAUENTITY@@W4ENTITY_SIDES@@PAU1@1HM11@Z:PROC ; create_oca_sweep_task
EXTRN	?create_recon_task@@YGPAUENTITY@@W4ENTITY_SIDES@@PAU1@1HM11@Z:PROC ; create_recon_task
EXTRN	?create_sead_task@@YGPAUENTITY@@W4ENTITY_SIDES@@PAU1@1HM11@Z:PROC ; create_sead_task
EXTRN	?create_troop_insertion_task@@YGPAUENTITY@@W4ENTITY_SIDES@@PAU1@1HM11@Z:PROC ; create_troop_insertion_task
EXTRN	?null_entity_pointer_message@@3PBDB:DWORD	; null_entity_pointer_message
EXTRN	?entity_side_short_names@@3PAPBDA:BYTE		; entity_side_short_names
EXTRN	?keysite_usable_state_names@@3PAPBDA:BYTE	; keysite_usable_state_names
EXTRN	?system_comms_model@@3W4COMMS_MODEL_TYPES@@A:DWORD ; system_comms_model
EXTRN	?overload_invalid_list_type_message@@3PBDB:DWORD ; overload_invalid_list_type_message
EXTRN	?fn_get_local_entity_first_child@@3PAY0CN@P6GPAUENTITY@@PAU1@W4LIST_TYPES@@@ZA:BYTE ; fn_get_local_entity_first_child
EXTRN	?fn_get_local_entity_parent@@3PAY0CN@P6GPAUENTITY@@PAU1@W4LIST_TYPES@@@ZA:BYTE ; fn_get_local_entity_parent
EXTRN	?overload_invalid_float_type_message@@3PBDB:DWORD ; overload_invalid_float_type_message
EXTRN	?fn_get_local_entity_float_value@@3PAY0KP@P6GMPAUENTITY@@W4FLOAT_TYPES@@@ZA:BYTE ; fn_get_local_entity_float_value
EXTRN	?overload_invalid_int_type_message@@3PBDB:DWORD	; overload_invalid_int_type_message
EXTRN	?fn_get_local_entity_int_value@@3PAY0BBH@P6GHPAUENTITY@@W4INT_TYPES@@@ZA:BYTE ; fn_get_local_entity_int_value
EXTRN	?overload_invalid_string_type_message@@3PBDB:DWORD ; overload_invalid_string_type_message
EXTRN	?fn_get_local_entity_string@@3PAY0N@P6GPBDPAUENTITY@@W4STRING_TYPES@@@ZA:BYTE ; fn_get_local_entity_string
EXTRN	?overload_invalid_vec3d_type_message@@3PBDB:DWORD ; overload_invalid_vec3d_type_message
EXTRN	?fn_get_local_entity_vec3d_ptr@@3PAY0BI@P6GPAUVEC3D@@PAUENTITY@@W4VEC3D_TYPES@@@ZA:BYTE ; fn_get_local_entity_vec3d_ptr
EXTRN	?entities@@3PAUENTITY@@A:DWORD			; entities
EXTRN	?group_database@@3PAUGROUP_DATA@@A:BYTE		; group_database
EXTRN	?keysite_database@@3PAUKEYSITE_DATA@@A:BYTE	; keysite_database
EXTRN	?pilot_entity@@3PAUENTITY@@A:DWORD		; pilot_entity
EXTRN	?session_entity@@3PAUENTITY@@A:DWORD		; session_entity
EXTRN	?task_database@@3PAUTASK_DATA@@A:BYTE		; task_database
EXTRN	__fltused:DWORD
;	COMDAT ?_OptionsStorage@?1??__local_stdio_printf_options@@9@4_KA
_BSS	SEGMENT
?_OptionsStorage@?1??__local_stdio_printf_options@@9@4_KA DQ 01H DUP (?) ; `__local_stdio_printf_options'::`2'::_OptionsStorage
_BSS	ENDS
;	COMDAT __real@45bb8000
CONST	SEGMENT
__real@45bb8000 DD 045bb8000r			; 6000
CONST	ENDS
;	COMDAT __real@44e10000
CONST	SEGMENT
__real@44e10000 DD 044e10000r			; 1800
CONST	ENDS
;	COMDAT __real@40800000
CONST	SEGMENT
__real@40800000 DD 040800000r			; 4
CONST	ENDS
;	COMDAT __real@4000000000000000
CONST	SEGMENT
__real@4000000000000000 DQ 04000000000000000r	; 2
CONST	ENDS
;	COMDAT __real@3ff0000000000000
CONST	SEGMENT
__real@3ff0000000000000 DQ 03ff0000000000000r	; 1
CONST	ENDS
;	COMDAT __real@3fe0000000000000
CONST	SEGMENT
__real@3fe0000000000000 DQ 03fe0000000000000r	; 0.5
CONST	ENDS
;	COMDAT ?__LINE__Var@?0??create_reaction_to_map_click@@YGXPAUENTITY@@@Z@4JA
_DATA	SEGMENT
?__LINE__Var@?0??create_reaction_to_map_click@@YGXPAUENTITY@@@Z@4JA DD 0314H ; `create_reaction_to_map_click'::`1'::__LINE__Var
_DATA	ENDS
;	COMDAT ??_C@_0FF@LJGPEIM@?$CITASK?$CJ?5Side?5?$CFs?5?3?5Created?5RECON?5@
CONST	SEGMENT
??_C@_0FF@LJGPEIM@?$CITASK?$CJ?5Side?5?$CFs?5?3?5Created?5RECON?5@ DB '(T'
	DB	'ASK) Side %s : Created RECON (%d) to sector (%d, %d) in react'
	DB	'ion to Artillery Fire', 00H			; `string'
CONST	ENDS
;	COMDAT ??_C@_0FD@CEGILPJG@?$CITASK?$CJ?5Side?5?$CFs?5?3?5Created?5BAI?5?$CI?$CF@
CONST	SEGMENT
??_C@_0FD@CEGILPJG@?$CITASK?$CJ?5Side?5?$CFs?5?3?5Created?5BAI?5?$CI?$CF@ DB '('
	DB	'TASK) Side %s : Created BAI (%d) to sector (%d, %d) in reacti'
	DB	'on to Artillery Fire', 00H			; `string'
CONST	ENDS
;	COMDAT ??_C@_06IDGHNJOB@sector@
CONST	SEGMENT
??_C@_06IDGHNJOB@sector@ DB 'sector', 00H		; `string'
CONST	ENDS
;	COMDAT ??_C@_06JJLAMBGK@target@
CONST	SEGMENT
??_C@_06JJLAMBGK@target@ DB 'target', 00H		; `string'
CONST	ENDS
;	COMDAT ?__LINE__Var@?0??create_reaction_to_artillery_fire@@YGXPAUENTITY@@0@Z@4JA
_DATA	SEGMENT
?__LINE__Var@?0??create_reaction_to_artillery_fire@@YGXPAUENTITY@@0@Z@4JA DD 02a1H ; `create_reaction_to_artillery_fire'::`1'::__LINE__Var
_DATA	ENDS
;	COMDAT ??_C@_0EG@IAANGOIG@?$CITASK?$CJ?5Side?5?$CFs?5?3?5Created?5BDA?5?$CI?$CF@
CONST	SEGMENT
??_C@_0EG@IAANGOIG@?$CITASK?$CJ?5Side?5?$CFs?5?3?5Created?5BDA?5?$CI?$CF@ DB '('
	DB	'TASK) Side %s : Created BDA (%d) at %s (eff. %.3f) in reactio'
	DB	'n to %s', 00H				; `string'
CONST	ENDS
;	COMDAT ??_C@_0CC@KILKLPJC@REACTION?5TO?5STRIKE?5TASK?5COMPLET@
CONST	SEGMENT
??_C@_0CC@KILKLPJC@REACTION?5TO?5STRIKE?5TASK?5COMPLET@ DB 'REACTION TO S'
	DB	'TRIKE TASK COMPLETED', 00H			; `string'
CONST	ENDS
;	COMDAT ?__LINE__Var@?0??create_reaction_to_strike_task_completed@@YGXPAUENTITY@@@Z@4JA
_DATA	SEGMENT
?__LINE__Var@?0??create_reaction_to_strike_task_completed@@YGXPAUENTITY@@@Z@4JA DD 0243H ; `create_reaction_to_strike_task_completed'::`1'::__LINE__Var
_DATA	ENDS
;	COMDAT ??_C@_05DNIIFBMG@?$CFs?5?$CFs@
CONST	SEGMENT
??_C@_05DNIIFBMG@?$CFs?5?$CFs@ DB '%s %s', 00H		; `string'
CONST	ENDS
;	COMDAT ??_C@_0CC@OPDFECFI@revealed?5enemy?5armoured?5battali@
CONST	SEGMENT
??_C@_0CC@OPDFECFI@revealed?5enemy?5armoured?5battali@ DB 'revealed enemy'
	DB	' armoured battalion', 00H			; `string'
CONST	ENDS
;	COMDAT ??_C@_0DK@PJPICFLO@?$CITASK?$CJ?5Side?5?$CFs?5?3?5Created?5BAI?5?$CI?$CF@
CONST	SEGMENT
??_C@_0DK@PJPICFLO@?$CITASK?$CJ?5Side?5?$CFs?5?3?5Created?5BAI?5?$CI?$CF@ DB '('
	DB	'TASK) Side %s : Created BAI (%d) to %s in reaction to %s', 00H ; `string'
CONST	ENDS
;	COMDAT ??_C@_0M@KIFEIOFB@?$CFs?5?$CFs?5?$CFd?5?$CFs@
CONST	SEGMENT
??_C@_0M@KIFEIOFB@?$CFs?5?$CFs?5?$CFd?5?$CFs@ DB '%s %s %d %s', 00H ; `string'
CONST	ENDS
;	COMDAT ??_C@_0BI@PAMJMKGO@enemy?5A?9A?5installations@
CONST	SEGMENT
??_C@_0BI@PAMJMKGO@enemy?5A?9A?5installations@ DB 'enemy A-A installation'
	DB	's', 00H					; `string'
CONST	ENDS
;	COMDAT ??_C@_0L@JBGBOCDK@?$CFs?5?$CFs?51?5?$CFs@
CONST	SEGMENT
??_C@_0L@JBGBOCDK@?$CFs?5?$CFs?51?5?$CFs@ DB '%s %s 1 %s', 00H ; `string'
CONST	ENDS
;	COMDAT ??_C@_0BH@PFFAKBG@enemy?5A?9A?5installation@
CONST	SEGMENT
??_C@_0BH@PFFAKBG@enemy?5A?9A?5installation@ DB 'enemy A-A installation', 00H ; `string'
CONST	ENDS
;	COMDAT ??_C@_0DL@FACLFHJG@?$CITASK?$CJ?5Side?5?$CFs?5?3?5Created?5SEAD?5?$CI@
CONST	SEGMENT
??_C@_0DL@FACLFHJG@?$CITASK?$CJ?5Side?5?$CFs?5?3?5Created?5SEAD?5?$CI@ DB '('
	DB	'TASK) Side %s : Created SEAD (%d) to %s in reaction to %s', 00H ; `string'
CONST	ENDS
;	COMDAT ??_C@_08EPEHIMMI@?$CFs?5?$CFs?5?$CFs@
CONST	SEGMENT
??_C@_08EPEHIMMI@?$CFs?5?$CFs?5?$CFs@ DB '%s %s %s', 00H ; `string'
CONST	ENDS
;	COMDAT ??_C@_08BCAGGEAL@revealed@
CONST	SEGMENT
??_C@_08BCAGGEAL@revealed@ DB 'revealed', 00H		; `string'
CONST	ENDS
;	COMDAT ??_C@_0BD@CJIFGLCK@has?5been?5destroyed@
CONST	SEGMENT
??_C@_0BD@CJIFGLCK@has?5been?5destroyed@ DB 'has been destroyed', 00H ; `string'
CONST	ENDS
;	COMDAT ??_C@_0FD@JBAPAIII@?$CITASK?$CJ?5Side?5?$CFs?5?3?5Created?5ANTI?9S@
CONST	SEGMENT
??_C@_0FD@JBAPAIII@?$CITASK?$CJ?5Side?5?$CFs?5?3?5Created?5ANTI?9S@ DB '('
	DB	'TASK) Side %s : Created ANTI-SHIP STRIKE (%d) at %s (eff. %.3'
	DB	'f) in reaction to %s', 00H			; `string'
CONST	ENDS
;	COMDAT ??_C@_0EJ@JNDJIAKO@?$CITASK?$CJ?5Side?5?$CFs?5?3?5Created?5STRIKE@
CONST	SEGMENT
??_C@_0EJ@JNDJIAKO@?$CITASK?$CJ?5Side?5?$CFs?5?3?5Created?5STRIKE@ DB '(T'
	DB	'ASK) Side %s : Created STRIKE (%d) at %s (eff. %.3f) in react'
	DB	'ion to %s', 00H				; `string'
CONST	ENDS
;	COMDAT ??_C@_0EM@DNLNLGOL@?$CITASK?$CJ?5Side?5?$CFs?5?3?5Created?5OCA?5SW@
CONST	SEGMENT
??_C@_0EM@DNLNLGOL@?$CITASK?$CJ?5Side?5?$CFs?5?3?5Created?5OCA?5SW@ DB '('
	DB	'TASK) Side %s : Created OCA SWEEP (%d) at %s (eff. %.3f) in r'
	DB	'eaction to %s', 00H				; `string'
CONST	ENDS
;	COMDAT ??_C@_0EN@GANKIGPA@?$CITASK?$CJ?5Side?5?$CFs?5?3?5Created?5OCA?5ST@
CONST	SEGMENT
??_C@_0EN@GANKIGPA@?$CITASK?$CJ?5Side?5?$CFs?5?3?5Created?5OCA?5ST@ DB '('
	DB	'TASK) Side %s : Created OCA STRIKE (%d) at %s (eff. %.3f) in '
	DB	'reaction to %s', 00H			; `string'
CONST	ENDS
;	COMDAT ??_C@_0FC@IGKCOALE@?$CITASK?$CJ?5Side?5?$CFs?5?3?5Created?5TROOP?5@
CONST	SEGMENT
??_C@_0FC@IGKCOALE@?$CITASK?$CJ?5Side?5?$CFs?5?3?5Created?5TROOP?5@ DB '('
	DB	'TASK) Side %s : Created TROOP INSERTION (%d) at %s (eff. %.3f'
	DB	') in reaction to %s', 00H			; `string'
CONST	ENDS
;	COMDAT ??_C@_0P@EIKAFNDF@?$CFs?5?$CFs?5?$CFs?5?$CFs?5?$CFs@
CONST	SEGMENT
??_C@_0P@EIKAFNDF@?$CFs?5?$CFs?5?$CFs?5?$CFs?5?$CFs@ DB '%s %s %s %s %s', 00H ; `string'
CONST	ENDS
;	COMDAT ??_C@_0P@DPDAPKCI@revealed?5enemy@
CONST	SEGMENT
??_C@_0P@DPDAPKCI@revealed?5enemy@ DB 'revealed enemy', 00H ; `string'
CONST	ENDS
;	COMDAT ??_C@_0N@JMJFELOL@is?5currently@
CONST	SEGMENT
??_C@_0N@JMJFELOL@is?5currently@ DB 'is currently', 00H	; `string'
CONST	ENDS
;	COMDAT ??_C@_0CB@GNHPAIID@?9?9?9?9?9?9?9?9?9?9?9?9?9?9?9?9?9?9?9?9?9?9?9?9?9?9?9?9?9?9?9@
CONST	SEGMENT
??_C@_0CB@GNHPAIID@?9?9?9?9?9?9?9?9?9?9?9?9?9?9?9?9?9?9?9?9?9?9?9?9?9?9?9?9?9?9?9@ DB '-'
	DB	'-------------------------------', 00H	; `string'
CONST	ENDS
;	COMDAT ??_C@_0CB@FNNEAEL@REACTION?5TO?5RECON?5TASK?5COMPLETE@
CONST	SEGMENT
??_C@_0CB@FNNEAEL@REACTION?5TO?5RECON?5TASK?5COMPLETE@ DB 'REACTION TO RE'
	DB	'CON TASK COMPLETED', 00H			; `string'
CONST	ENDS
;	COMDAT ??_C@_0CB@HHHLKEEB@?$DN?$DN?$DN?$DN?$DN?$DN?$DN?$DN?$DN?$DN?$DN?$DN?$DN?$DN?$DN?$DN?$DN?$DN?$DN?$DN?$DN?$DN?$DN?$DN?$DN?$DN?$DN?$DN?$DN?$DN?$DN@
CONST	SEGMENT
??_C@_0CB@HHHLKEEB@?$DN?$DN?$DN?$DN?$DN?$DN?$DN?$DN?$DN?$DN?$DN?$DN?$DN?$DN?$DN?$DN?$DN?$DN?$DN?$DN?$DN?$DN?$DN?$DN?$DN?$DN?$DN?$DN?$DN?$DN?$DN@ DB '='
	DB	'===============================', 00H	; `string'
CONST	ENDS
;	COMDAT ??_C@_05BINPNAAL@force@
CONST	SEGMENT
??_C@_05BINPNAAL@force@ DB 'force', 00H			; `string'
CONST	ENDS
;	COMDAT ?__LINE__Var@?0??create_reaction_to_recon_task_completed@@YGXPAUENTITY@@@Z@4JA
_DATA	SEGMENT
?__LINE__Var@?0??create_reaction_to_recon_task_completed@@YGXPAUENTITY@@@Z@4JA DD 013bH ; `create_reaction_to_recon_task_completed'::`1'::__LINE__Var
_DATA	ENDS
;	COMDAT ??_C@_0DN@EAJCCGHF@?$CITASK?$CJ?5Side?5?$CFs?5?3?5Created?5BARCAP@
CONST	SEGMENT
??_C@_0DN@EAJCCGHF@?$CITASK?$CJ?5Side?5?$CFs?5?3?5Created?5BARCAP@ DB '(T'
	DB	'ASK) Side %s : Created BARCAP (%d) at %s in reaction to %s', 00H ; `string'
CONST	ENDS
;	COMDAT ??_C@_05MGJOOGAJ@group@
CONST	SEGMENT
??_C@_05MGJOOGAJ@group@ DB 'group', 00H			; `string'
CONST	ENDS
;	COMDAT ??_C@_05HLIEEKJG@guide@
CONST	SEGMENT
??_C@_05HLIEEKJG@guide@ DB 'guide', 00H			; `string'
CONST	ENDS
;	COMDAT ??_C@_0DK@LIMKOOBG@?$CITASK?$CJ?5Side?5?$CFs?5?3?5Created?5CAP?5?$CI?$CF@
CONST	SEGMENT
??_C@_0DK@LIMKOOBG@?$CITASK?$CJ?5Side?5?$CFs?5?3?5Created?5CAP?5?$CI?$CF@ DB '('
	DB	'TASK) Side %s : Created CAP (%d) at %s in reaction to %s', 00H ; `string'
CONST	ENDS
;	COMDAT ??_C@_0CM@JHDGHFGP@?9?9?9?9?9?9?9?9?9?9?9?9?9?9?9?9?9?9?9?9?9?9?9?9?9?9?9?9?9?9?9@
CONST	SEGMENT
??_C@_0CM@JHDGHFGP@?9?9?9?9?9?9?9?9?9?9?9?9?9?9?9?9?9?9?9?9?9?9?9?9?9?9?9?9?9?9?9@ DB '-'
	DB	'------------------------------------------', 00H ; `string'
CONST	ENDS
;	COMDAT ??_C@_0CM@NHLNKGBK@REACTION?5TO?5OFFENSIVE?5KEYSITE?5T@
CONST	SEGMENT
??_C@_0CM@NHLNKGBK@REACTION?5TO?5OFFENSIVE?5KEYSITE?5T@ DB 'REACTION TO O'
	DB	'FFENSIVE KEYSITE TASK ASSIGNED', 00H	; `string'
CONST	ENDS
;	COMDAT ??_C@_0CM@DKCOECIC@?$DN?$DN?$DN?$DN?$DN?$DN?$DN?$DN?$DN?$DN?$DN?$DN?$DN?$DN?$DN?$DN?$DN?$DN?$DN?$DN?$DN?$DN?$DN?$DN?$DN?$DN?$DN?$DN?$DN?$DN?$DN@
CONST	SEGMENT
??_C@_0CM@DKCOECIC@?$DN?$DN?$DN?$DN?$DN?$DN?$DN?$DN?$DN?$DN?$DN?$DN?$DN?$DN?$DN?$DN?$DN?$DN?$DN?$DN?$DN?$DN?$DN?$DN?$DN?$DN?$DN?$DN?$DN?$DN?$DN@ DB '='
	DB	'==========================================', 00H ; `string'
CONST	ENDS
;	COMDAT ??_C@_09FKEDLGBF@objective@
CONST	SEGMENT
??_C@_09FKEDLGBF@objective@ DB 'objective', 00H		; `string'
CONST	ENDS
;	COMDAT ?__LINE__Var@?0??create_reaction_to_offensive_keysite_task_assigned@@YGXPAUENTITY@@@Z@4JA
_DATA	SEGMENT
?__LINE__Var@?0??create_reaction_to_offensive_keysite_task_assigned@@YGXPAUENTITY@@@Z@4JA DD 0daH ; `create_reaction_to_offensive_keysite_task_assigned'::`1'::__LINE__Var
_DATA	ENDS
;	COMDAT ?__LINE__Var@?0??create_task_completed_reactionary_tasks@@YGXPAUENTITY@@@Z@4JA
_DATA	SEGMENT
?__LINE__Var@?0??create_task_completed_reactionary_tasks@@YGXPAUENTITY@@@Z@4JA DD 099H ; `create_task_completed_reactionary_tasks'::`1'::__LINE__Var
_DATA	ENDS
;	COMDAT ??_C@_0CJ@DMBLBJBK@get_comms_model?5?$CI?$CJ?5?$DN?$DN?5COMMS_MOD@
CONST	SEGMENT
??_C@_0CJ@DMBLBJBK@get_comms_model?5?$CI?$CJ?5?$DN?$DN?5COMMS_MOD@ DB 'ge'
	DB	't_comms_model () == COMMS_MODEL_SERVER', 00H ; `string'
CONST	ENDS
;	COMDAT ??_C@_04GGKLLKOO@task@
CONST	SEGMENT
??_C@_04GGKLLKOO@task@ DB 'task', 00H			; `string'
CONST	ENDS
;	COMDAT ??_C@_0ED@PAFNPDBA@c?3?2users?2nhv90?2projects?2eech?2ap@
CONST	SEGMENT
??_C@_0ED@PAFNPDBA@c?3?2users?2nhv90?2projects?2eech?2ap@ DB 'c:\users\nh'
	DB	'v90\projects\eech\aphavoc\source\ai\highlevl\reaction.c', 00H ; `string'
CONST	ENDS
;	COMDAT ?__LINE__Var@?0??create_task_assigned_reactionary_tasks@@YGXPAUENTITY@@@Z@4JA
_DATA	SEGMENT
?__LINE__Var@?0??create_task_assigned_reactionary_tasks@@YGXPAUENTITY@@@Z@4JA DD 062H ; `create_task_assigned_reactionary_tasks'::`1'::__LINE__Var
_DATA	ENDS
; Function compile flags: /Odtp /ZI
; File c:\users\nhv90\projects\eech\aphavoc\source\ai\highlevl\reaction.c
;	COMDAT ?create_reaction_to_offensive_keysite_task_assigned@@YGXPAUENTITY@@@Z
_TEXT	SEGMENT
tv418 = -144						; size = 4
tv239 = -144						; size = 4
tv408 = -140						; size = 4
tv229 = -140						; size = 4
tv400 = -136						; size = 4
tv221 = -136						; size = 4
tv387 = -132						; size = 4
tv340 = -132						; size = 4
tv320 = -132						; size = 4
tv295 = -132						; size = 4
tv270 = -132						; size = 4
tv208 = -132						; size = 4
tv165 = -132						; size = 4
tv145 = -132						; size = 4
tv78 = -132						; size = 4
tv379 = -128						; size = 4
tv332 = -128						; size = 4
tv312 = -128						; size = 4
tv287 = -128						; size = 4
tv262 = -128						; size = 4
tv200 = -128						; size = 4
tv157 = -128						; size = 4
tv137 = -128						; size = 4
tv94 = -128						; size = 4
tv70 = -128						; size = 4
_distance$1 = -60					; size = 4
_group_pos$2 = -56					; size = 4
_objective_pos$3 = -52					; size = 4
_direction$4 = -48					; size = 12
_position$5 = -36					; size = 12
_guide$6 = -24						; size = 4
_group$7 = -20						; size = 4
_objective_side$ = -16					; size = 4
_objective_type$ = -12					; size = 4
_objective$ = -8					; size = 4
_new_task$ = -4						; size = 4
_task$ = 8						; size = 4
?create_reaction_to_offensive_keysite_task_assigned@@YGXPAUENTITY@@@Z PROC ; create_reaction_to_offensive_keysite_task_assigned, COMDAT

; 218  : {

  00000	55		 push	 ebp
  00001	8b ec		 mov	 ebp, esp
  00003	81 ec 90 00 00
	00		 sub	 esp, 144		; 00000090H
  00009	53		 push	 ebx
  0000a	56		 push	 esi
  0000b	57		 push	 edi

; 219  : 	entity
; 220  : 		*new_task,
; 221  : 		*objective;
; 222  : 	
; 223  : 	entity_sub_types
; 224  : 		objective_type;
; 225  : 
; 226  : 	entity_sides
; 227  : 		objective_side;
; 228  : 
; 229  : 	objective = get_local_entity_parent (task, LIST_TYPE_TASK_DEPENDENT);

  0000c	83 7d 08 00	 cmp	 DWORD PTR _task$[ebp], 0
  00010	74 0a		 je	 SHORT $LN11@create_rea
  00012	8b 45 08	 mov	 eax, DWORD PTR _task$[ebp]
  00015	8b 08		 mov	 ecx, DWORD PTR [eax]
  00017	89 4d 80	 mov	 DWORD PTR tv70[ebp], ecx
  0001a	eb 21		 jmp	 SHORT $LN12@create_rea
$LN11@create_rea:
  0001c	8b 15 00 00 00
	00		 mov	 edx, DWORD PTR ?__LINE__Var@?0??create_reaction_to_offensive_keysite_task_assigned@@YGXPAUENTITY@@@Z@4JA
  00022	83 c2 0b	 add	 edx, 11			; 0000000bH
  00025	52		 push	 edx
  00026	68 00 00 00 00	 push	 OFFSET ??_C@_0ED@PAFNPDBA@c?3?2users?2nhv90?2projects?2eech?2ap@
  0002b	a1 00 00 00 00	 mov	 eax, DWORD PTR ?null_entity_pointer_message@@3PBDB ; null_entity_pointer_message
  00030	50		 push	 eax
  00031	e8 00 00 00 00	 call	 ?process_assert@@YGXPBD0H@Z ; process_assert
  00036	c7 45 80 00 00
	00 00		 mov	 DWORD PTR tv70[ebp], 0
$LN12@create_rea:
  0003d	b9 01 00 00 00	 mov	 ecx, 1
  00042	85 c9		 test	 ecx, ecx
  00044	74 0c		 je	 SHORT $LN13@create_rea
  00046	c7 85 7c ff ff
	ff 27 00 00 00	 mov	 DWORD PTR tv78[ebp], 39	; 00000027H
  00050	eb 24		 jmp	 SHORT $LN14@create_rea
$LN13@create_rea:
  00052	8b 15 00 00 00
	00		 mov	 edx, DWORD PTR ?__LINE__Var@?0??create_reaction_to_offensive_keysite_task_assigned@@YGXPAUENTITY@@@Z@4JA
  00058	83 c2 0b	 add	 edx, 11			; 0000000bH
  0005b	52		 push	 edx
  0005c	68 00 00 00 00	 push	 OFFSET ??_C@_0ED@PAFNPDBA@c?3?2users?2nhv90?2projects?2eech?2ap@
  00061	a1 00 00 00 00	 mov	 eax, DWORD PTR ?overload_invalid_list_type_message@@3PBDB ; overload_invalid_list_type_message
  00066	50		 push	 eax
  00067	e8 00 00 00 00	 call	 ?process_assert@@YGXPBD0H@Z ; process_assert
  0006c	c7 85 7c ff ff
	ff 00 00 00 00	 mov	 DWORD PTR tv78[ebp], 0
$LN14@create_rea:
  00076	6a 27		 push	 39			; 00000027H
  00078	8b 4d 08	 mov	 ecx, DWORD PTR _task$[ebp]
  0007b	51		 push	 ecx
  0007c	69 55 80 b4 00
	00 00		 imul	 edx, DWORD PTR tv70[ebp], 180
  00083	8b 85 7c ff ff
	ff		 mov	 eax, DWORD PTR tv78[ebp]
  00089	8b 8c 82 00 00
	00 00		 mov	 ecx, DWORD PTR ?fn_get_local_entity_parent@@3PAY0CN@P6GPAUENTITY@@PAU1@W4LIST_TYPES@@@ZA[edx+eax*4]
  00090	ff d1		 call	 ecx
  00092	89 45 f8	 mov	 DWORD PTR _objective$[ebp], eax

; 230  : 
; 231  : 	ASSERT (objective);

  00095	83 7d f8 00	 cmp	 DWORD PTR _objective$[ebp], 0
  00099	75 18		 jne	 SHORT $LN2@create_rea
  0009b	a1 00 00 00 00	 mov	 eax, DWORD PTR ?__LINE__Var@?0??create_reaction_to_offensive_keysite_task_assigned@@YGXPAUENTITY@@@Z@4JA
  000a0	83 c0 0d	 add	 eax, 13			; 0000000dH
  000a3	50		 push	 eax
  000a4	68 00 00 00 00	 push	 OFFSET ??_C@_0ED@PAFNPDBA@c?3?2users?2nhv90?2projects?2eech?2ap@
  000a9	68 00 00 00 00	 push	 OFFSET ??_C@_09FKEDLGBF@objective@
  000ae	e8 00 00 00 00	 call	 ?process_assert@@YGXPBD0H@Z ; process_assert
$LN2@create_rea:

; 232  : 
; 233  : 	if (get_local_entity_type (objective) == ENTITY_TYPE_KEYSITE)

  000b3	83 7d f8 00	 cmp	 DWORD PTR _objective$[ebp], 0
  000b7	74 0a		 je	 SHORT $LN15@create_rea
  000b9	8b 45 f8	 mov	 eax, DWORD PTR _objective$[ebp]
  000bc	8b 08		 mov	 ecx, DWORD PTR [eax]
  000be	89 4d 80	 mov	 DWORD PTR tv94[ebp], ecx
  000c1	eb 1d		 jmp	 SHORT $LN16@create_rea
$LN15@create_rea:
  000c3	68 e9 00 00 00	 push	 233			; 000000e9H
  000c8	68 00 00 00 00	 push	 OFFSET ??_C@_0ED@PAFNPDBA@c?3?2users?2nhv90?2projects?2eech?2ap@
  000cd	8b 15 00 00 00
	00		 mov	 edx, DWORD PTR ?null_entity_pointer_message@@3PBDB ; null_entity_pointer_message
  000d3	52		 push	 edx
  000d4	e8 00 00 00 00	 call	 ?process_assert@@YGXPBD0H@Z ; process_assert
  000d9	c7 45 80 00 00
	00 00		 mov	 DWORD PTR tv94[ebp], 0
$LN16@create_rea:
  000e0	83 7d 80 0f	 cmp	 DWORD PTR tv94[ebp], 15	; 0000000fH
  000e4	0f 85 9a 07 00
	00		 jne	 $LN7@create_rea

; 234  : 	{
; 235  : 		ai_log ("===========================================");

  000ea	68 00 00 00 00	 push	 OFFSET ??_C@_0CM@DKCOECIC@?$DN?$DN?$DN?$DN?$DN?$DN?$DN?$DN?$DN?$DN?$DN?$DN?$DN?$DN?$DN?$DN?$DN?$DN?$DN?$DN?$DN?$DN?$DN?$DN?$DN?$DN?$DN?$DN?$DN?$DN?$DN@
  000ef	e8 00 00 00 00	 call	 ?ai_log@@YAXPBDZZ	; ai_log
  000f4	83 c4 04	 add	 esp, 4

; 236  : 		ai_log ("REACTION TO OFFENSIVE KEYSITE TASK ASSIGNED");

  000f7	68 00 00 00 00	 push	 OFFSET ??_C@_0CM@NHLNKGBK@REACTION?5TO?5OFFENSIVE?5KEYSITE?5T@
  000fc	e8 00 00 00 00	 call	 ?ai_log@@YAXPBDZZ	; ai_log
  00101	83 c4 04	 add	 esp, 4

; 237  : 		ai_log ("-------------------------------------------");

  00104	68 00 00 00 00	 push	 OFFSET ??_C@_0CM@JHDGHFGP@?9?9?9?9?9?9?9?9?9?9?9?9?9?9?9?9?9?9?9?9?9?9?9?9?9?9?9?9?9?9?9@
  00109	e8 00 00 00 00	 call	 ?ai_log@@YAXPBDZZ	; ai_log
  0010e	83 c4 04	 add	 esp, 4

; 238  : 
; 239  : 		objective_side = (entity_sides) get_local_entity_int_value (objective, INT_TYPE_SIDE);

  00111	83 7d f8 00	 cmp	 DWORD PTR _objective$[ebp], 0
  00115	74 0a		 je	 SHORT $LN17@create_rea
  00117	8b 45 f8	 mov	 eax, DWORD PTR _objective$[ebp]
  0011a	8b 08		 mov	 ecx, DWORD PTR [eax]
  0011c	89 4d 80	 mov	 DWORD PTR tv137[ebp], ecx
  0011f	eb 21		 jmp	 SHORT $LN18@create_rea
$LN17@create_rea:
  00121	8b 15 00 00 00
	00		 mov	 edx, DWORD PTR ?__LINE__Var@?0??create_reaction_to_offensive_keysite_task_assigned@@YGXPAUENTITY@@@Z@4JA
  00127	83 c2 15	 add	 edx, 21			; 00000015H
  0012a	52		 push	 edx
  0012b	68 00 00 00 00	 push	 OFFSET ??_C@_0ED@PAFNPDBA@c?3?2users?2nhv90?2projects?2eech?2ap@
  00130	a1 00 00 00 00	 mov	 eax, DWORD PTR ?null_entity_pointer_message@@3PBDB ; null_entity_pointer_message
  00135	50		 push	 eax
  00136	e8 00 00 00 00	 call	 ?process_assert@@YGXPBD0H@Z ; process_assert
  0013b	c7 45 80 00 00
	00 00		 mov	 DWORD PTR tv137[ebp], 0
$LN18@create_rea:
  00142	b9 01 00 00 00	 mov	 ecx, 1
  00147	85 c9		 test	 ecx, ecx
  00149	74 0c		 je	 SHORT $LN19@create_rea
  0014b	c7 85 7c ff ff
	ff bb 00 00 00	 mov	 DWORD PTR tv145[ebp], 187 ; 000000bbH
  00155	eb 24		 jmp	 SHORT $LN20@create_rea
$LN19@create_rea:
  00157	8b 15 00 00 00
	00		 mov	 edx, DWORD PTR ?__LINE__Var@?0??create_reaction_to_offensive_keysite_task_assigned@@YGXPAUENTITY@@@Z@4JA
  0015d	83 c2 15	 add	 edx, 21			; 00000015H
  00160	52		 push	 edx
  00161	68 00 00 00 00	 push	 OFFSET ??_C@_0ED@PAFNPDBA@c?3?2users?2nhv90?2projects?2eech?2ap@
  00166	a1 00 00 00 00	 mov	 eax, DWORD PTR ?overload_invalid_int_type_message@@3PBDB ; overload_invalid_int_type_message
  0016b	50		 push	 eax
  0016c	e8 00 00 00 00	 call	 ?process_assert@@YGXPBD0H@Z ; process_assert
  00171	c7 85 7c ff ff
	ff 00 00 00 00	 mov	 DWORD PTR tv145[ebp], 0
$LN20@create_rea:
  0017b	68 bb 00 00 00	 push	 187			; 000000bbH
  00180	8b 4d f8	 mov	 ecx, DWORD PTR _objective$[ebp]
  00183	51		 push	 ecx
  00184	69 55 80 5c 04
	00 00		 imul	 edx, DWORD PTR tv137[ebp], 1116
  0018b	8b 85 7c ff ff
	ff		 mov	 eax, DWORD PTR tv145[ebp]
  00191	8b 8c 82 00 00
	00 00		 mov	 ecx, DWORD PTR ?fn_get_local_entity_int_value@@3PAY0BBH@P6GHPAUENTITY@@W4INT_TYPES@@@ZA[edx+eax*4]
  00198	ff d1		 call	 ecx
  0019a	89 45 f0	 mov	 DWORD PTR _objective_side$[ebp], eax

; 240  : 
; 241  : 		objective_type = get_local_entity_int_value (objective, INT_TYPE_ENTITY_SUB_TYPE);

  0019d	83 7d f8 00	 cmp	 DWORD PTR _objective$[ebp], 0
  001a1	74 0a		 je	 SHORT $LN21@create_rea
  001a3	8b 45 f8	 mov	 eax, DWORD PTR _objective$[ebp]
  001a6	8b 08		 mov	 ecx, DWORD PTR [eax]
  001a8	89 4d 80	 mov	 DWORD PTR tv157[ebp], ecx
  001ab	eb 21		 jmp	 SHORT $LN22@create_rea
$LN21@create_rea:
  001ad	8b 15 00 00 00
	00		 mov	 edx, DWORD PTR ?__LINE__Var@?0??create_reaction_to_offensive_keysite_task_assigned@@YGXPAUENTITY@@@Z@4JA
  001b3	83 c2 17	 add	 edx, 23			; 00000017H
  001b6	52		 push	 edx
  001b7	68 00 00 00 00	 push	 OFFSET ??_C@_0ED@PAFNPDBA@c?3?2users?2nhv90?2projects?2eech?2ap@
  001bc	a1 00 00 00 00	 mov	 eax, DWORD PTR ?null_entity_pointer_message@@3PBDB ; null_entity_pointer_message
  001c1	50		 push	 eax
  001c2	e8 00 00 00 00	 call	 ?process_assert@@YGXPBD0H@Z ; process_assert
  001c7	c7 45 80 00 00
	00 00		 mov	 DWORD PTR tv157[ebp], 0
$LN22@create_rea:
  001ce	b9 01 00 00 00	 mov	 ecx, 1
  001d3	85 c9		 test	 ecx, ecx
  001d5	74 0c		 je	 SHORT $LN23@create_rea
  001d7	c7 85 7c ff ff
	ff 34 00 00 00	 mov	 DWORD PTR tv165[ebp], 52 ; 00000034H
  001e1	eb 24		 jmp	 SHORT $LN24@create_rea
$LN23@create_rea:
  001e3	8b 15 00 00 00
	00		 mov	 edx, DWORD PTR ?__LINE__Var@?0??create_reaction_to_offensive_keysite_task_assigned@@YGXPAUENTITY@@@Z@4JA
  001e9	83 c2 17	 add	 edx, 23			; 00000017H
  001ec	52		 push	 edx
  001ed	68 00 00 00 00	 push	 OFFSET ??_C@_0ED@PAFNPDBA@c?3?2users?2nhv90?2projects?2eech?2ap@
  001f2	a1 00 00 00 00	 mov	 eax, DWORD PTR ?overload_invalid_int_type_message@@3PBDB ; overload_invalid_int_type_message
  001f7	50		 push	 eax
  001f8	e8 00 00 00 00	 call	 ?process_assert@@YGXPBD0H@Z ; process_assert
  001fd	c7 85 7c ff ff
	ff 00 00 00 00	 mov	 DWORD PTR tv165[ebp], 0
$LN24@create_rea:
  00207	6a 34		 push	 52			; 00000034H
  00209	8b 4d f8	 mov	 ecx, DWORD PTR _objective$[ebp]
  0020c	51		 push	 ecx
  0020d	69 55 80 5c 04
	00 00		 imul	 edx, DWORD PTR tv157[ebp], 1116
  00214	8b 85 7c ff ff
	ff		 mov	 eax, DWORD PTR tv165[ebp]
  0021a	8b 8c 82 00 00
	00 00		 mov	 ecx, DWORD PTR ?fn_get_local_entity_int_value@@3PAY0BBH@P6GHPAUENTITY@@W4INT_TYPES@@@ZA[edx+eax*4]
  00221	ff d1		 call	 ecx
  00223	89 45 f4	 mov	 DWORD PTR _objective_type$[ebp], eax

; 242  : 
; 243  : 		if (keysite_database [objective_type].requires_cap)

  00226	6b 45 f4 44	 imul	 eax, DWORD PTR _objective_type$[ebp], 68
  0022a	8b 88 40 00 00
	00		 mov	 ecx, DWORD PTR ?keysite_database@@3PAUKEYSITE_DATA@@A[eax+64]
  00230	c1 e9 05	 shr	 ecx, 5
  00233	83 e1 01	 and	 ecx, 1
  00236	0f 84 a9 01 00
	00		 je	 $LN5@create_rea

; 244  : 		{
; 245  : 			if (!entity_is_object_of_task (objective, ENTITY_SUB_TYPE_TASK_COMBAT_AIR_PATROL, objective_side))

  0023c	8b 45 f0	 mov	 eax, DWORD PTR _objective_side$[ebp]
  0023f	50		 push	 eax
  00240	6a 08		 push	 8
  00242	8b 4d f8	 mov	 ecx, DWORD PTR _objective$[ebp]
  00245	51		 push	 ecx
  00246	e8 00 00 00 00	 call	 ?entity_is_object_of_task@@YGHPAUENTITY@@HW4ENTITY_SIDES@@@Z ; entity_is_object_of_task
  0024b	85 c0		 test	 eax, eax
  0024d	0f 85 92 01 00
	00		 jne	 $LN5@create_rea

; 246  : 			{
; 247  : 				new_task = create_cap_task (objective_side, objective, task, TRUE, task_database [ENTITY_SUB_TYPE_TASK_COMBAT_AIR_PATROL].task_priority, 30.0 * ONE_MINUTE, NULL, NULL);

  00253	6a 00		 push	 0
  00255	6a 00		 push	 0
  00257	51		 push	 ecx
  00258	f3 0f 10 05 00
	00 00 00	 movss	 xmm0, DWORD PTR __real@44e10000
  00260	f3 0f 11 04 24	 movss	 DWORD PTR [esp], xmm0
  00265	b8 50 00 00 00	 mov	 eax, 80			; 00000050H
  0026a	c1 e0 03	 shl	 eax, 3
  0026d	51		 push	 ecx
  0026e	f3 0f 10 80 10
	00 00 00	 movss	 xmm0, DWORD PTR ?task_database@@3PAUTASK_DATA@@A[eax+16]
  00276	f3 0f 11 04 24	 movss	 DWORD PTR [esp], xmm0
  0027b	6a 01		 push	 1
  0027d	8b 4d 08	 mov	 ecx, DWORD PTR _task$[ebp]
  00280	51		 push	 ecx
  00281	8b 55 f8	 mov	 edx, DWORD PTR _objective$[ebp]
  00284	52		 push	 edx
  00285	8b 45 f0	 mov	 eax, DWORD PTR _objective_side$[ebp]
  00288	50		 push	 eax
  00289	e8 00 00 00 00	 call	 ?create_cap_task@@YGPAUENTITY@@W4ENTITY_SIDES@@PAU1@1HMM11@Z ; create_cap_task
  0028e	89 45 fc	 mov	 DWORD PTR _new_task$[ebp], eax

; 248  : 
; 249  : 				ai_log ("(TASK) Side %s : Created CAP (%d) at %s in reaction to %s",

  00291	83 7d 08 00	 cmp	 DWORD PTR _task$[ebp], 0
  00295	74 0a		 je	 SHORT $LN25@create_rea
  00297	8b 45 08	 mov	 eax, DWORD PTR _task$[ebp]
  0029a	8b 08		 mov	 ecx, DWORD PTR [eax]
  0029c	89 4d 80	 mov	 DWORD PTR tv200[ebp], ecx
  0029f	eb 21		 jmp	 SHORT $LN26@create_rea
$LN25@create_rea:
  002a1	8b 15 00 00 00
	00		 mov	 edx, DWORD PTR ?__LINE__Var@?0??create_reaction_to_offensive_keysite_task_assigned@@YGXPAUENTITY@@@Z@4JA
  002a7	83 c2 23	 add	 edx, 35			; 00000023H
  002aa	52		 push	 edx
  002ab	68 00 00 00 00	 push	 OFFSET ??_C@_0ED@PAFNPDBA@c?3?2users?2nhv90?2projects?2eech?2ap@
  002b0	a1 00 00 00 00	 mov	 eax, DWORD PTR ?null_entity_pointer_message@@3PBDB ; null_entity_pointer_message
  002b5	50		 push	 eax
  002b6	e8 00 00 00 00	 call	 ?process_assert@@YGXPBD0H@Z ; process_assert
  002bb	c7 45 80 00 00
	00 00		 mov	 DWORD PTR tv200[ebp], 0
$LN26@create_rea:
  002c2	b9 01 00 00 00	 mov	 ecx, 1
  002c7	85 c9		 test	 ecx, ecx
  002c9	74 0c		 je	 SHORT $LN27@create_rea
  002cb	c7 85 7c ff ff
	ff 03 00 00 00	 mov	 DWORD PTR tv208[ebp], 3
  002d5	eb 24		 jmp	 SHORT $LN28@create_rea
$LN27@create_rea:
  002d7	8b 15 00 00 00
	00		 mov	 edx, DWORD PTR ?__LINE__Var@?0??create_reaction_to_offensive_keysite_task_assigned@@YGXPAUENTITY@@@Z@4JA
  002dd	83 c2 23	 add	 edx, 35			; 00000023H
  002e0	52		 push	 edx
  002e1	68 00 00 00 00	 push	 OFFSET ??_C@_0ED@PAFNPDBA@c?3?2users?2nhv90?2projects?2eech?2ap@
  002e6	a1 00 00 00 00	 mov	 eax, DWORD PTR ?overload_invalid_string_type_message@@3PBDB ; overload_invalid_string_type_message
  002eb	50		 push	 eax
  002ec	e8 00 00 00 00	 call	 ?process_assert@@YGXPBD0H@Z ; process_assert
  002f1	c7 85 7c ff ff
	ff 00 00 00 00	 mov	 DWORD PTR tv208[ebp], 0
$LN28@create_rea:
  002fb	83 7d f8 00	 cmp	 DWORD PTR _objective$[ebp], 0
  002ff	74 0d		 je	 SHORT $LN29@create_rea
  00301	8b 4d f8	 mov	 ecx, DWORD PTR _objective$[ebp]
  00304	8b 11		 mov	 edx, DWORD PTR [ecx]
  00306	89 95 78 ff ff
	ff		 mov	 DWORD PTR tv221[ebp], edx
  0030c	eb 24		 jmp	 SHORT $LN30@create_rea
$LN29@create_rea:
  0030e	a1 00 00 00 00	 mov	 eax, DWORD PTR ?__LINE__Var@?0??create_reaction_to_offensive_keysite_task_assigned@@YGXPAUENTITY@@@Z@4JA
  00313	83 c0 22	 add	 eax, 34			; 00000022H
  00316	50		 push	 eax
  00317	68 00 00 00 00	 push	 OFFSET ??_C@_0ED@PAFNPDBA@c?3?2users?2nhv90?2projects?2eech?2ap@
  0031c	8b 0d 00 00 00
	00		 mov	 ecx, DWORD PTR ?null_entity_pointer_message@@3PBDB ; null_entity_pointer_message
  00322	51		 push	 ecx
  00323	e8 00 00 00 00	 call	 ?process_assert@@YGXPBD0H@Z ; process_assert
  00328	c7 85 78 ff ff
	ff 00 00 00 00	 mov	 DWORD PTR tv221[ebp], 0
$LN30@create_rea:
  00332	ba 01 00 00 00	 mov	 edx, 1
  00337	85 d2		 test	 edx, edx
  00339	74 0c		 je	 SHORT $LN31@create_rea
  0033b	c7 85 74 ff ff
	ff 07 00 00 00	 mov	 DWORD PTR tv229[ebp], 7
  00345	eb 24		 jmp	 SHORT $LN32@create_rea
$LN31@create_rea:
  00347	a1 00 00 00 00	 mov	 eax, DWORD PTR ?__LINE__Var@?0??create_reaction_to_offensive_keysite_task_assigned@@YGXPAUENTITY@@@Z@4JA
  0034c	83 c0 22	 add	 eax, 34			; 00000022H
  0034f	50		 push	 eax
  00350	68 00 00 00 00	 push	 OFFSET ??_C@_0ED@PAFNPDBA@c?3?2users?2nhv90?2projects?2eech?2ap@
  00355	8b 0d 00 00 00
	00		 mov	 ecx, DWORD PTR ?overload_invalid_string_type_message@@3PBDB ; overload_invalid_string_type_message
  0035b	51		 push	 ecx
  0035c	e8 00 00 00 00	 call	 ?process_assert@@YGXPBD0H@Z ; process_assert
  00361	c7 85 74 ff ff
	ff 00 00 00 00	 mov	 DWORD PTR tv229[ebp], 0
$LN32@create_rea:
  0036b	83 7d fc 00	 cmp	 DWORD PTR _new_task$[ebp], 0
  0036f	74 14		 je	 SHORT $LN33@create_rea
  00371	8b 55 fc	 mov	 edx, DWORD PTR _new_task$[ebp]
  00374	2b 15 00 00 00
	00		 sub	 edx, DWORD PTR ?entities@@3PAUENTITY@@A ; entities
  0037a	c1 fa 04	 sar	 edx, 4
  0037d	89 95 70 ff ff
	ff		 mov	 DWORD PTR tv239[ebp], edx
  00383	eb 0a		 jmp	 SHORT $LN34@create_rea
$LN33@create_rea:
  00385	c7 85 70 ff ff
	ff ff ff ff ff	 mov	 DWORD PTR tv239[ebp], -1
$LN34@create_rea:
  0038f	6a 03		 push	 3
  00391	8b 45 08	 mov	 eax, DWORD PTR _task$[ebp]
  00394	50		 push	 eax
  00395	6b 4d 80 34	 imul	 ecx, DWORD PTR tv200[ebp], 52
  00399	8b 95 7c ff ff
	ff		 mov	 edx, DWORD PTR tv208[ebp]
  0039f	8b 84 91 00 00
	00 00		 mov	 eax, DWORD PTR ?fn_get_local_entity_string@@3PAY0N@P6GPBDPAUENTITY@@W4STRING_TYPES@@@ZA[ecx+edx*4]
  003a6	ff d0		 call	 eax
  003a8	50		 push	 eax
  003a9	6a 07		 push	 7
  003ab	8b 4d f8	 mov	 ecx, DWORD PTR _objective$[ebp]
  003ae	51		 push	 ecx
  003af	6b 95 78 ff ff
	ff 34		 imul	 edx, DWORD PTR tv221[ebp], 52
  003b6	8b 85 74 ff ff
	ff		 mov	 eax, DWORD PTR tv229[ebp]
  003bc	8b 8c 82 00 00
	00 00		 mov	 ecx, DWORD PTR ?fn_get_local_entity_string@@3PAY0N@P6GPBDPAUENTITY@@W4STRING_TYPES@@@ZA[edx+eax*4]
  003c3	ff d1		 call	 ecx
  003c5	50		 push	 eax
  003c6	8b 95 70 ff ff
	ff		 mov	 edx, DWORD PTR tv239[ebp]
  003cc	52		 push	 edx
  003cd	8b 45 f0	 mov	 eax, DWORD PTR _objective_side$[ebp]
  003d0	8b 0c 85 00 00
	00 00		 mov	 ecx, DWORD PTR ?entity_side_short_names@@3PAPBDA[eax*4]
  003d7	51		 push	 ecx
  003d8	68 00 00 00 00	 push	 OFFSET ??_C@_0DK@LIMKOOBG@?$CITASK?$CJ?5Side?5?$CFs?5?3?5Created?5CAP?5?$CI?$CF@
  003dd	e8 00 00 00 00	 call	 ?ai_log@@YAXPBDZZ	; ai_log
  003e2	83 c4 14	 add	 esp, 20			; 00000014H
$LN5@create_rea:

; 250  : 							entity_side_short_names [objective_side],
; 251  : 							get_local_entity_safe_index (new_task),
; 252  : 							get_local_entity_string (objective, STRING_TYPE_KEYSITE_NAME),
; 253  : 							get_local_entity_string (task, STRING_TYPE_FULL_NAME));
; 254  : 			}
; 255  : 		}
; 256  : 
; 257  : 		if (keysite_database [objective_type].requires_barcap)

  003e5	6b 45 f4 44	 imul	 eax, DWORD PTR _objective_type$[ebp], 68
  003e9	8b 88 40 00 00
	00		 mov	 ecx, DWORD PTR ?keysite_database@@3PAUKEYSITE_DATA@@A[eax+64]
  003ef	c1 e9 06	 shr	 ecx, 6
  003f2	83 e1 01	 and	 ecx, 1
  003f5	0f 84 89 04 00
	00		 je	 $LN7@create_rea

; 258  : 		{
; 259  : 			if (!entity_is_object_of_task (objective, ENTITY_SUB_TYPE_TASK_BARCAP, objective_side))

  003fb	8b 45 f0	 mov	 eax, DWORD PTR _objective_side$[ebp]
  003fe	50		 push	 eax
  003ff	6a 04		 push	 4
  00401	8b 4d f8	 mov	 ecx, DWORD PTR _objective$[ebp]
  00404	51		 push	 ecx
  00405	e8 00 00 00 00	 call	 ?entity_is_object_of_task@@YGHPAUENTITY@@HW4ENTITY_SIDES@@@Z ; entity_is_object_of_task
  0040a	85 c0		 test	 eax, eax
  0040c	0f 85 72 04 00
	00		 jne	 $LN7@create_rea

; 260  : 			{
; 261  : 				entity
; 262  : 					*group,
; 263  : 					*guide;
; 264  : 
; 265  : 				vec3d
; 266  : 					position,
; 267  : 					direction,
; 268  : 					*objective_pos,
; 269  : 					*group_pos;
; 270  : 
; 271  : 				float
; 272  : 					distance;
; 273  : 
; 274  : 				guide = get_local_entity_first_child (task, LIST_TYPE_GUIDE);

  00412	83 7d 08 00	 cmp	 DWORD PTR _task$[ebp], 0
  00416	74 0a		 je	 SHORT $LN35@create_rea
  00418	8b 45 08	 mov	 eax, DWORD PTR _task$[ebp]
  0041b	8b 08		 mov	 ecx, DWORD PTR [eax]
  0041d	89 4d 80	 mov	 DWORD PTR tv262[ebp], ecx
  00420	eb 21		 jmp	 SHORT $LN36@create_rea
$LN35@create_rea:
  00422	8b 15 00 00 00
	00		 mov	 edx, DWORD PTR ?__LINE__Var@?0??create_reaction_to_offensive_keysite_task_assigned@@YGXPAUENTITY@@@Z@4JA
  00428	83 c2 38	 add	 edx, 56			; 00000038H
  0042b	52		 push	 edx
  0042c	68 00 00 00 00	 push	 OFFSET ??_C@_0ED@PAFNPDBA@c?3?2users?2nhv90?2projects?2eech?2ap@
  00431	a1 00 00 00 00	 mov	 eax, DWORD PTR ?null_entity_pointer_message@@3PBDB ; null_entity_pointer_message
  00436	50		 push	 eax
  00437	e8 00 00 00 00	 call	 ?process_assert@@YGXPBD0H@Z ; process_assert
  0043c	c7 45 80 00 00
	00 00		 mov	 DWORD PTR tv262[ebp], 0
$LN36@create_rea:
  00443	b9 01 00 00 00	 mov	 ecx, 1
  00448	85 c9		 test	 ecx, ecx
  0044a	74 0c		 je	 SHORT $LN37@create_rea
  0044c	c7 85 7c ff ff
	ff 10 00 00 00	 mov	 DWORD PTR tv270[ebp], 16 ; 00000010H
  00456	eb 24		 jmp	 SHORT $LN38@create_rea
$LN37@create_rea:
  00458	8b 15 00 00 00
	00		 mov	 edx, DWORD PTR ?__LINE__Var@?0??create_reaction_to_offensive_keysite_task_assigned@@YGXPAUENTITY@@@Z@4JA
  0045e	83 c2 38	 add	 edx, 56			; 00000038H
  00461	52		 push	 edx
  00462	68 00 00 00 00	 push	 OFFSET ??_C@_0ED@PAFNPDBA@c?3?2users?2nhv90?2projects?2eech?2ap@
  00467	a1 00 00 00 00	 mov	 eax, DWORD PTR ?overload_invalid_list_type_message@@3PBDB ; overload_invalid_list_type_message
  0046c	50		 push	 eax
  0046d	e8 00 00 00 00	 call	 ?process_assert@@YGXPBD0H@Z ; process_assert
  00472	c7 85 7c ff ff
	ff 00 00 00 00	 mov	 DWORD PTR tv270[ebp], 0
$LN38@create_rea:
  0047c	6a 10		 push	 16			; 00000010H
  0047e	8b 4d 08	 mov	 ecx, DWORD PTR _task$[ebp]
  00481	51		 push	 ecx
  00482	69 55 80 b4 00
	00 00		 imul	 edx, DWORD PTR tv262[ebp], 180
  00489	8b 85 7c ff ff
	ff		 mov	 eax, DWORD PTR tv270[ebp]
  0048f	8b 8c 82 00 00
	00 00		 mov	 ecx, DWORD PTR ?fn_get_local_entity_first_child@@3PAY0CN@P6GPAUENTITY@@PAU1@W4LIST_TYPES@@@ZA[edx+eax*4]
  00496	ff d1		 call	 ecx
  00498	89 45 e8	 mov	 DWORD PTR _guide$6[ebp], eax

; 275  : 
; 276  : 				ASSERT (guide);

  0049b	83 7d e8 00	 cmp	 DWORD PTR _guide$6[ebp], 0
  0049f	75 18		 jne	 SHORT $LN8@create_rea
  004a1	a1 00 00 00 00	 mov	 eax, DWORD PTR ?__LINE__Var@?0??create_reaction_to_offensive_keysite_task_assigned@@YGXPAUENTITY@@@Z@4JA
  004a6	83 c0 3a	 add	 eax, 58			; 0000003aH
  004a9	50		 push	 eax
  004aa	68 00 00 00 00	 push	 OFFSET ??_C@_0ED@PAFNPDBA@c?3?2users?2nhv90?2projects?2eech?2ap@
  004af	68 00 00 00 00	 push	 OFFSET ??_C@_05HLIEEKJG@guide@
  004b4	e8 00 00 00 00	 call	 ?process_assert@@YGXPBD0H@Z ; process_assert
$LN8@create_rea:

; 277  : 
; 278  : 				group = get_local_entity_parent (guide, LIST_TYPE_GUIDE_STACK);

  004b9	83 7d e8 00	 cmp	 DWORD PTR _guide$6[ebp], 0
  004bd	74 0a		 je	 SHORT $LN39@create_rea
  004bf	8b 45 e8	 mov	 eax, DWORD PTR _guide$6[ebp]
  004c2	8b 08		 mov	 ecx, DWORD PTR [eax]
  004c4	89 4d 80	 mov	 DWORD PTR tv287[ebp], ecx
  004c7	eb 21		 jmp	 SHORT $LN40@create_rea
$LN39@create_rea:
  004c9	8b 15 00 00 00
	00		 mov	 edx, DWORD PTR ?__LINE__Var@?0??create_reaction_to_offensive_keysite_task_assigned@@YGXPAUENTITY@@@Z@4JA
  004cf	83 c2 3c	 add	 edx, 60			; 0000003cH
  004d2	52		 push	 edx
  004d3	68 00 00 00 00	 push	 OFFSET ??_C@_0ED@PAFNPDBA@c?3?2users?2nhv90?2projects?2eech?2ap@
  004d8	a1 00 00 00 00	 mov	 eax, DWORD PTR ?null_entity_pointer_message@@3PBDB ; null_entity_pointer_message
  004dd	50		 push	 eax
  004de	e8 00 00 00 00	 call	 ?process_assert@@YGXPBD0H@Z ; process_assert
  004e3	c7 45 80 00 00
	00 00		 mov	 DWORD PTR tv287[ebp], 0
$LN40@create_rea:
  004ea	b9 01 00 00 00	 mov	 ecx, 1
  004ef	85 c9		 test	 ecx, ecx
  004f1	74 0c		 je	 SHORT $LN41@create_rea
  004f3	c7 85 7c ff ff
	ff 11 00 00 00	 mov	 DWORD PTR tv295[ebp], 17 ; 00000011H
  004fd	eb 24		 jmp	 SHORT $LN42@create_rea
$LN41@create_rea:
  004ff	8b 15 00 00 00
	00		 mov	 edx, DWORD PTR ?__LINE__Var@?0??create_reaction_to_offensive_keysite_task_assigned@@YGXPAUENTITY@@@Z@4JA
  00505	83 c2 3c	 add	 edx, 60			; 0000003cH
  00508	52		 push	 edx
  00509	68 00 00 00 00	 push	 OFFSET ??_C@_0ED@PAFNPDBA@c?3?2users?2nhv90?2projects?2eech?2ap@
  0050e	a1 00 00 00 00	 mov	 eax, DWORD PTR ?overload_invalid_list_type_message@@3PBDB ; overload_invalid_list_type_message
  00513	50		 push	 eax
  00514	e8 00 00 00 00	 call	 ?process_assert@@YGXPBD0H@Z ; process_assert
  00519	c7 85 7c ff ff
	ff 00 00 00 00	 mov	 DWORD PTR tv295[ebp], 0
$LN42@create_rea:
  00523	6a 11		 push	 17			; 00000011H
  00525	8b 4d e8	 mov	 ecx, DWORD PTR _guide$6[ebp]
  00528	51		 push	 ecx
  00529	69 55 80 b4 00
	00 00		 imul	 edx, DWORD PTR tv287[ebp], 180
  00530	8b 85 7c ff ff
	ff		 mov	 eax, DWORD PTR tv295[ebp]
  00536	8b 8c 82 00 00
	00 00		 mov	 ecx, DWORD PTR ?fn_get_local_entity_parent@@3PAY0CN@P6GPAUENTITY@@PAU1@W4LIST_TYPES@@@ZA[edx+eax*4]
  0053d	ff d1		 call	 ecx
  0053f	89 45 ec	 mov	 DWORD PTR _group$7[ebp], eax

; 279  : 
; 280  : 				ASSERT (group);

  00542	83 7d ec 00	 cmp	 DWORD PTR _group$7[ebp], 0
  00546	75 18		 jne	 SHORT $LN9@create_rea
  00548	a1 00 00 00 00	 mov	 eax, DWORD PTR ?__LINE__Var@?0??create_reaction_to_offensive_keysite_task_assigned@@YGXPAUENTITY@@@Z@4JA
  0054d	83 c0 3e	 add	 eax, 62			; 0000003eH
  00550	50		 push	 eax
  00551	68 00 00 00 00	 push	 OFFSET ??_C@_0ED@PAFNPDBA@c?3?2users?2nhv90?2projects?2eech?2ap@
  00556	68 00 00 00 00	 push	 OFFSET ??_C@_05MGJOOGAJ@group@
  0055b	e8 00 00 00 00	 call	 ?process_assert@@YGXPBD0H@Z ; process_assert
$LN9@create_rea:

; 281  : 
; 282  : 				group_pos = get_local_entity_vec3d_ptr (group, VEC3D_TYPE_POSITION);

  00560	83 7d ec 00	 cmp	 DWORD PTR _group$7[ebp], 0
  00564	74 0a		 je	 SHORT $LN43@create_rea
  00566	8b 45 ec	 mov	 eax, DWORD PTR _group$7[ebp]
  00569	8b 08		 mov	 ecx, DWORD PTR [eax]
  0056b	89 4d 80	 mov	 DWORD PTR tv312[ebp], ecx
  0056e	eb 21		 jmp	 SHORT $LN44@create_rea
$LN43@create_rea:
  00570	8b 15 00 00 00
	00		 mov	 edx, DWORD PTR ?__LINE__Var@?0??create_reaction_to_offensive_keysite_task_assigned@@YGXPAUENTITY@@@Z@4JA
  00576	83 c2 40	 add	 edx, 64			; 00000040H
  00579	52		 push	 edx
  0057a	68 00 00 00 00	 push	 OFFSET ??_C@_0ED@PAFNPDBA@c?3?2users?2nhv90?2projects?2eech?2ap@
  0057f	a1 00 00 00 00	 mov	 eax, DWORD PTR ?null_entity_pointer_message@@3PBDB ; null_entity_pointer_message
  00584	50		 push	 eax
  00585	e8 00 00 00 00	 call	 ?process_assert@@YGXPBD0H@Z ; process_assert
  0058a	c7 45 80 00 00
	00 00		 mov	 DWORD PTR tv312[ebp], 0
$LN44@create_rea:
  00591	b9 01 00 00 00	 mov	 ecx, 1
  00596	85 c9		 test	 ecx, ecx
  00598	74 0c		 je	 SHORT $LN45@create_rea
  0059a	c7 85 7c ff ff
	ff 08 00 00 00	 mov	 DWORD PTR tv320[ebp], 8
  005a4	eb 24		 jmp	 SHORT $LN46@create_rea
$LN45@create_rea:
  005a6	8b 15 00 00 00
	00		 mov	 edx, DWORD PTR ?__LINE__Var@?0??create_reaction_to_offensive_keysite_task_assigned@@YGXPAUENTITY@@@Z@4JA
  005ac	83 c2 40	 add	 edx, 64			; 00000040H
  005af	52		 push	 edx
  005b0	68 00 00 00 00	 push	 OFFSET ??_C@_0ED@PAFNPDBA@c?3?2users?2nhv90?2projects?2eech?2ap@
  005b5	a1 00 00 00 00	 mov	 eax, DWORD PTR ?overload_invalid_vec3d_type_message@@3PBDB ; overload_invalid_vec3d_type_message
  005ba	50		 push	 eax
  005bb	e8 00 00 00 00	 call	 ?process_assert@@YGXPBD0H@Z ; process_assert
  005c0	c7 85 7c ff ff
	ff 00 00 00 00	 mov	 DWORD PTR tv320[ebp], 0
$LN46@create_rea:
  005ca	6a 08		 push	 8
  005cc	8b 4d ec	 mov	 ecx, DWORD PTR _group$7[ebp]
  005cf	51		 push	 ecx
  005d0	6b 55 80 60	 imul	 edx, DWORD PTR tv312[ebp], 96
  005d4	8b 85 7c ff ff
	ff		 mov	 eax, DWORD PTR tv320[ebp]
  005da	8b 8c 82 00 00
	00 00		 mov	 ecx, DWORD PTR ?fn_get_local_entity_vec3d_ptr@@3PAY0BI@P6GPAUVEC3D@@PAUENTITY@@W4VEC3D_TYPES@@@ZA[edx+eax*4]
  005e1	ff d1		 call	 ecx
  005e3	89 45 c8	 mov	 DWORD PTR _group_pos$2[ebp], eax

; 283  : 
; 284  : 				objective_pos = get_local_entity_vec3d_ptr (objective, VEC3D_TYPE_POSITION);

  005e6	83 7d f8 00	 cmp	 DWORD PTR _objective$[ebp], 0
  005ea	74 0a		 je	 SHORT $LN47@create_rea
  005ec	8b 45 f8	 mov	 eax, DWORD PTR _objective$[ebp]
  005ef	8b 08		 mov	 ecx, DWORD PTR [eax]
  005f1	89 4d 80	 mov	 DWORD PTR tv332[ebp], ecx
  005f4	eb 21		 jmp	 SHORT $LN48@create_rea
$LN47@create_rea:
  005f6	8b 15 00 00 00
	00		 mov	 edx, DWORD PTR ?__LINE__Var@?0??create_reaction_to_offensive_keysite_task_assigned@@YGXPAUENTITY@@@Z@4JA
  005fc	83 c2 42	 add	 edx, 66			; 00000042H
  005ff	52		 push	 edx
  00600	68 00 00 00 00	 push	 OFFSET ??_C@_0ED@PAFNPDBA@c?3?2users?2nhv90?2projects?2eech?2ap@
  00605	a1 00 00 00 00	 mov	 eax, DWORD PTR ?null_entity_pointer_message@@3PBDB ; null_entity_pointer_message
  0060a	50		 push	 eax
  0060b	e8 00 00 00 00	 call	 ?process_assert@@YGXPBD0H@Z ; process_assert
  00610	c7 45 80 00 00
	00 00		 mov	 DWORD PTR tv332[ebp], 0
$LN48@create_rea:
  00617	b9 01 00 00 00	 mov	 ecx, 1
  0061c	85 c9		 test	 ecx, ecx
  0061e	74 0c		 je	 SHORT $LN49@create_rea
  00620	c7 85 7c ff ff
	ff 08 00 00 00	 mov	 DWORD PTR tv340[ebp], 8
  0062a	eb 24		 jmp	 SHORT $LN50@create_rea
$LN49@create_rea:
  0062c	8b 15 00 00 00
	00		 mov	 edx, DWORD PTR ?__LINE__Var@?0??create_reaction_to_offensive_keysite_task_assigned@@YGXPAUENTITY@@@Z@4JA
  00632	83 c2 42	 add	 edx, 66			; 00000042H
  00635	52		 push	 edx
  00636	68 00 00 00 00	 push	 OFFSET ??_C@_0ED@PAFNPDBA@c?3?2users?2nhv90?2projects?2eech?2ap@
  0063b	a1 00 00 00 00	 mov	 eax, DWORD PTR ?overload_invalid_vec3d_type_message@@3PBDB ; overload_invalid_vec3d_type_message
  00640	50		 push	 eax
  00641	e8 00 00 00 00	 call	 ?process_assert@@YGXPBD0H@Z ; process_assert
  00646	c7 85 7c ff ff
	ff 00 00 00 00	 mov	 DWORD PTR tv340[ebp], 0
$LN50@create_rea:
  00650	6a 08		 push	 8
  00652	8b 4d f8	 mov	 ecx, DWORD PTR _objective$[ebp]
  00655	51		 push	 ecx
  00656	6b 55 80 60	 imul	 edx, DWORD PTR tv332[ebp], 96
  0065a	8b 85 7c ff ff
	ff		 mov	 eax, DWORD PTR tv340[ebp]
  00660	8b 8c 82 00 00
	00 00		 mov	 ecx, DWORD PTR ?fn_get_local_entity_vec3d_ptr@@3PAY0BI@P6GPAUVEC3D@@PAUENTITY@@W4VEC3D_TYPES@@@ZA[edx+eax*4]
  00667	ff d1		 call	 ecx
  00669	89 45 cc	 mov	 DWORD PTR _objective_pos$3[ebp], eax

; 285  : 
; 286  : 				direction.x = group_pos->x - objective_pos->x;

  0066c	8b 45 c8	 mov	 eax, DWORD PTR _group_pos$2[ebp]
  0066f	8b 4d cc	 mov	 ecx, DWORD PTR _objective_pos$3[ebp]
  00672	f3 0f 10 00	 movss	 xmm0, DWORD PTR [eax]
  00676	f3 0f 5c 01	 subss	 xmm0, DWORD PTR [ecx]
  0067a	f3 0f 11 45 d0	 movss	 DWORD PTR _direction$4[ebp], xmm0

; 287  : 				direction.y = 0.0;

  0067f	0f 57 c0	 xorps	 xmm0, xmm0
  00682	f3 0f 11 45 d4	 movss	 DWORD PTR _direction$4[ebp+4], xmm0

; 288  : 				direction.z = group_pos->z - objective_pos->z;

  00687	8b 45 c8	 mov	 eax, DWORD PTR _group_pos$2[ebp]
  0068a	8b 4d cc	 mov	 ecx, DWORD PTR _objective_pos$3[ebp]
  0068d	f3 0f 10 40 08	 movss	 xmm0, DWORD PTR [eax+8]
  00692	f3 0f 5c 41 08	 subss	 xmm0, DWORD PTR [ecx+8]
  00697	f3 0f 11 45 d8	 movss	 DWORD PTR _direction$4[ebp+8], xmm0

; 289  : 
; 290  : 				normalise_any_3d_vector (&direction);

  0069c	8d 45 d0	 lea	 eax, DWORD PTR _direction$4[ebp]
  0069f	50		 push	 eax
  006a0	e8 00 00 00 00	 call	 ?normalise_any_3d_vector@@YGMPAUVEC3D@@@Z ; normalise_any_3d_vector
  006a5	dd d8		 fstp	 ST(0)

; 291  : 
; 292  : 				distance = 6.0 * KILOMETRE;

  006a7	f3 0f 10 05 00
	00 00 00	 movss	 xmm0, DWORD PTR __real@45bb8000
  006af	f3 0f 11 45 c4	 movss	 DWORD PTR _distance$1[ebp], xmm0

; 293  : 
; 294  : 				position.x = objective_pos->x + (direction.x * distance);

  006b4	f3 0f 10 45 d0	 movss	 xmm0, DWORD PTR _direction$4[ebp]
  006b9	f3 0f 59 45 c4	 mulss	 xmm0, DWORD PTR _distance$1[ebp]
  006be	8b 45 cc	 mov	 eax, DWORD PTR _objective_pos$3[ebp]
  006c1	f3 0f 58 00	 addss	 xmm0, DWORD PTR [eax]
  006c5	f3 0f 11 45 dc	 movss	 DWORD PTR _position$5[ebp], xmm0

; 295  : 				position.y = objective_pos->y;

  006ca	8b 45 cc	 mov	 eax, DWORD PTR _objective_pos$3[ebp]
  006cd	f3 0f 10 40 04	 movss	 xmm0, DWORD PTR [eax+4]
  006d2	f3 0f 11 45 e0	 movss	 DWORD PTR _position$5[ebp+4], xmm0

; 296  : 				position.z = objective_pos->z + (direction.z * distance);

  006d7	f3 0f 10 45 d8	 movss	 xmm0, DWORD PTR _direction$4[ebp+8]
  006dc	f3 0f 59 45 c4	 mulss	 xmm0, DWORD PTR _distance$1[ebp]
  006e1	8b 45 cc	 mov	 eax, DWORD PTR _objective_pos$3[ebp]
  006e4	f3 0f 58 40 08	 addss	 xmm0, DWORD PTR [eax+8]
  006e9	f3 0f 11 45 e4	 movss	 DWORD PTR _position$5[ebp+8], xmm0

; 297  : 
; 298  : 				new_task = create_barcap_task (objective_side, objective, task, TRUE, &position, task_database [ENTITY_SUB_TYPE_TASK_BARCAP].task_priority, 30.0 * ONE_MINUTE, NULL, NULL);

  006ee	6a 00		 push	 0
  006f0	6a 00		 push	 0
  006f2	51		 push	 ecx
  006f3	f3 0f 10 05 00
	00 00 00	 movss	 xmm0, DWORD PTR __real@44e10000
  006fb	f3 0f 11 04 24	 movss	 DWORD PTR [esp], xmm0
  00700	b8 50 00 00 00	 mov	 eax, 80			; 00000050H
  00705	c1 e0 02	 shl	 eax, 2
  00708	51		 push	 ecx
  00709	f3 0f 10 80 10
	00 00 00	 movss	 xmm0, DWORD PTR ?task_database@@3PAUTASK_DATA@@A[eax+16]
  00711	f3 0f 11 04 24	 movss	 DWORD PTR [esp], xmm0
  00716	8d 4d dc	 lea	 ecx, DWORD PTR _position$5[ebp]
  00719	51		 push	 ecx
  0071a	6a 01		 push	 1
  0071c	8b 55 08	 mov	 edx, DWORD PTR _task$[ebp]
  0071f	52		 push	 edx
  00720	8b 45 f8	 mov	 eax, DWORD PTR _objective$[ebp]
  00723	50		 push	 eax
  00724	8b 4d f0	 mov	 ecx, DWORD PTR _objective_side$[ebp]
  00727	51		 push	 ecx
  00728	e8 00 00 00 00	 call	 ?create_barcap_task@@YGPAUENTITY@@W4ENTITY_SIDES@@PAU1@1HPAUVEC3D@@MM11@Z ; create_barcap_task
  0072d	89 45 fc	 mov	 DWORD PTR _new_task$[ebp], eax

; 299  : 					
; 300  : 				ai_log ("(TASK) Side %s : Created BARCAP (%d) at %s in reaction to %s",

  00730	83 7d 08 00	 cmp	 DWORD PTR _task$[ebp], 0
  00734	74 0a		 je	 SHORT $LN51@create_rea
  00736	8b 45 08	 mov	 eax, DWORD PTR _task$[ebp]
  00739	8b 08		 mov	 ecx, DWORD PTR [eax]
  0073b	89 4d 80	 mov	 DWORD PTR tv379[ebp], ecx
  0073e	eb 21		 jmp	 SHORT $LN52@create_rea
$LN51@create_rea:
  00740	8b 15 00 00 00
	00		 mov	 edx, DWORD PTR ?__LINE__Var@?0??create_reaction_to_offensive_keysite_task_assigned@@YGXPAUENTITY@@@Z@4JA
  00746	83 c2 56	 add	 edx, 86			; 00000056H
  00749	52		 push	 edx
  0074a	68 00 00 00 00	 push	 OFFSET ??_C@_0ED@PAFNPDBA@c?3?2users?2nhv90?2projects?2eech?2ap@
  0074f	a1 00 00 00 00	 mov	 eax, DWORD PTR ?null_entity_pointer_message@@3PBDB ; null_entity_pointer_message
  00754	50		 push	 eax
  00755	e8 00 00 00 00	 call	 ?process_assert@@YGXPBD0H@Z ; process_assert
  0075a	c7 45 80 00 00
	00 00		 mov	 DWORD PTR tv379[ebp], 0
$LN52@create_rea:
  00761	b9 01 00 00 00	 mov	 ecx, 1
  00766	85 c9		 test	 ecx, ecx
  00768	74 0c		 je	 SHORT $LN53@create_rea
  0076a	c7 85 7c ff ff
	ff 03 00 00 00	 mov	 DWORD PTR tv387[ebp], 3
  00774	eb 24		 jmp	 SHORT $LN54@create_rea
$LN53@create_rea:
  00776	8b 15 00 00 00
	00		 mov	 edx, DWORD PTR ?__LINE__Var@?0??create_reaction_to_offensive_keysite_task_assigned@@YGXPAUENTITY@@@Z@4JA
  0077c	83 c2 56	 add	 edx, 86			; 00000056H
  0077f	52		 push	 edx
  00780	68 00 00 00 00	 push	 OFFSET ??_C@_0ED@PAFNPDBA@c?3?2users?2nhv90?2projects?2eech?2ap@
  00785	a1 00 00 00 00	 mov	 eax, DWORD PTR ?overload_invalid_string_type_message@@3PBDB ; overload_invalid_string_type_message
  0078a	50		 push	 eax
  0078b	e8 00 00 00 00	 call	 ?process_assert@@YGXPBD0H@Z ; process_assert
  00790	c7 85 7c ff ff
	ff 00 00 00 00	 mov	 DWORD PTR tv387[ebp], 0
$LN54@create_rea:
  0079a	83 7d f8 00	 cmp	 DWORD PTR _objective$[ebp], 0
  0079e	74 0d		 je	 SHORT $LN55@create_rea
  007a0	8b 4d f8	 mov	 ecx, DWORD PTR _objective$[ebp]
  007a3	8b 11		 mov	 edx, DWORD PTR [ecx]
  007a5	89 95 78 ff ff
	ff		 mov	 DWORD PTR tv400[ebp], edx
  007ab	eb 24		 jmp	 SHORT $LN56@create_rea
$LN55@create_rea:
  007ad	a1 00 00 00 00	 mov	 eax, DWORD PTR ?__LINE__Var@?0??create_reaction_to_offensive_keysite_task_assigned@@YGXPAUENTITY@@@Z@4JA
  007b2	83 c0 55	 add	 eax, 85			; 00000055H
  007b5	50		 push	 eax
  007b6	68 00 00 00 00	 push	 OFFSET ??_C@_0ED@PAFNPDBA@c?3?2users?2nhv90?2projects?2eech?2ap@
  007bb	8b 0d 00 00 00
	00		 mov	 ecx, DWORD PTR ?null_entity_pointer_message@@3PBDB ; null_entity_pointer_message
  007c1	51		 push	 ecx
  007c2	e8 00 00 00 00	 call	 ?process_assert@@YGXPBD0H@Z ; process_assert
  007c7	c7 85 78 ff ff
	ff 00 00 00 00	 mov	 DWORD PTR tv400[ebp], 0
$LN56@create_rea:
  007d1	ba 01 00 00 00	 mov	 edx, 1
  007d6	85 d2		 test	 edx, edx
  007d8	74 0c		 je	 SHORT $LN57@create_rea
  007da	c7 85 74 ff ff
	ff 07 00 00 00	 mov	 DWORD PTR tv408[ebp], 7
  007e4	eb 24		 jmp	 SHORT $LN58@create_rea
$LN57@create_rea:
  007e6	a1 00 00 00 00	 mov	 eax, DWORD PTR ?__LINE__Var@?0??create_reaction_to_offensive_keysite_task_assigned@@YGXPAUENTITY@@@Z@4JA
  007eb	83 c0 55	 add	 eax, 85			; 00000055H
  007ee	50		 push	 eax
  007ef	68 00 00 00 00	 push	 OFFSET ??_C@_0ED@PAFNPDBA@c?3?2users?2nhv90?2projects?2eech?2ap@
  007f4	8b 0d 00 00 00
	00		 mov	 ecx, DWORD PTR ?overload_invalid_string_type_message@@3PBDB ; overload_invalid_string_type_message
  007fa	51		 push	 ecx
  007fb	e8 00 00 00 00	 call	 ?process_assert@@YGXPBD0H@Z ; process_assert
  00800	c7 85 74 ff ff
	ff 00 00 00 00	 mov	 DWORD PTR tv408[ebp], 0
$LN58@create_rea:
  0080a	83 7d fc 00	 cmp	 DWORD PTR _new_task$[ebp], 0
  0080e	74 14		 je	 SHORT $LN59@create_rea
  00810	8b 55 fc	 mov	 edx, DWORD PTR _new_task$[ebp]
  00813	2b 15 00 00 00
	00		 sub	 edx, DWORD PTR ?entities@@3PAUENTITY@@A ; entities
  00819	c1 fa 04	 sar	 edx, 4
  0081c	89 95 70 ff ff
	ff		 mov	 DWORD PTR tv418[ebp], edx
  00822	eb 0a		 jmp	 SHORT $LN60@create_rea
$LN59@create_rea:
  00824	c7 85 70 ff ff
	ff ff ff ff ff	 mov	 DWORD PTR tv418[ebp], -1
$LN60@create_rea:
  0082e	6a 03		 push	 3
  00830	8b 45 08	 mov	 eax, DWORD PTR _task$[ebp]
  00833	50		 push	 eax
  00834	6b 4d 80 34	 imul	 ecx, DWORD PTR tv379[ebp], 52
  00838	8b 95 7c ff ff
	ff		 mov	 edx, DWORD PTR tv387[ebp]
  0083e	8b 84 91 00 00
	00 00		 mov	 eax, DWORD PTR ?fn_get_local_entity_string@@3PAY0N@P6GPBDPAUENTITY@@W4STRING_TYPES@@@ZA[ecx+edx*4]
  00845	ff d0		 call	 eax
  00847	50		 push	 eax
  00848	6a 07		 push	 7
  0084a	8b 4d f8	 mov	 ecx, DWORD PTR _objective$[ebp]
  0084d	51		 push	 ecx
  0084e	6b 95 78 ff ff
	ff 34		 imul	 edx, DWORD PTR tv400[ebp], 52
  00855	8b 85 74 ff ff
	ff		 mov	 eax, DWORD PTR tv408[ebp]
  0085b	8b 8c 82 00 00
	00 00		 mov	 ecx, DWORD PTR ?fn_get_local_entity_string@@3PAY0N@P6GPBDPAUENTITY@@W4STRING_TYPES@@@ZA[edx+eax*4]
  00862	ff d1		 call	 ecx
  00864	50		 push	 eax
  00865	8b 95 70 ff ff
	ff		 mov	 edx, DWORD PTR tv418[ebp]
  0086b	52		 push	 edx
  0086c	8b 45 f0	 mov	 eax, DWORD PTR _objective_side$[ebp]
  0086f	8b 0c 85 00 00
	00 00		 mov	 ecx, DWORD PTR ?entity_side_short_names@@3PAPBDA[eax*4]
  00876	51		 push	 ecx
  00877	68 00 00 00 00	 push	 OFFSET ??_C@_0DN@EAJCCGHF@?$CITASK?$CJ?5Side?5?$CFs?5?3?5Created?5BARCAP@
  0087c	e8 00 00 00 00	 call	 ?ai_log@@YAXPBDZZ	; ai_log
  00881	83 c4 14	 add	 esp, 20			; 00000014H
$LN7@create_rea:

; 301  : 							entity_side_short_names [objective_side],
; 302  : 							get_local_entity_safe_index (new_task),
; 303  : 							get_local_entity_string (objective, STRING_TYPE_KEYSITE_NAME),
; 304  : 							get_local_entity_string (task, STRING_TYPE_FULL_NAME));
; 305  : 			}
; 306  : 		}
; 307  : 	}
; 308  : }

  00884	5f		 pop	 edi
  00885	5e		 pop	 esi
  00886	5b		 pop	 ebx
  00887	8b e5		 mov	 esp, ebp
  00889	5d		 pop	 ebp
  0088a	c2 04 00	 ret	 4
?create_reaction_to_offensive_keysite_task_assigned@@YGXPAUENTITY@@@Z ENDP ; create_reaction_to_offensive_keysite_task_assigned
_TEXT	ENDS
; Function compile flags: /Odtp /ZI
; File c:\users\nhv90\projects\eech\aphavoc\source\ai\highlevl\reaction.c
;	COMDAT ?create_reaction_to_strike_task_completed@@YGXPAUENTITY@@@Z
_TEXT	SEGMENT
tv428 = -116						; size = 4
tv418 = -112						; size = 4
tv410 = -108						; size = 4
tv327 = -108						; size = 4
tv395 = -104						; size = 4
tv317 = -104						; size = 4
tv387 = -100						; size = 4
tv309 = -100						; size = 4
tv374 = -96						; size = 4
tv294 = -96						; size = 4
tv253 = -96						; size = 4
tv238 = -96						; size = 4
tv226 = -96						; size = 4
tv206 = -96						; size = 4
tv181 = -96						; size = 4
tv161 = -96						; size = 4
tv137 = -96						; size = 4
tv86 = -96						; size = 4
tv366 = -92						; size = 4
tv286 = -92						; size = 4
tv245 = -92						; size = 4
tv237 = -92						; size = 4
tv218 = -92						; size = 4
tv198 = -92						; size = 4
tv173 = -92						; size = 4
tv153 = -92						; size = 4
tv130 = -92						; size = 4
tv79 = -92						; size = 4
_efficiency$ = -24					; size = 4
_priority$ = -20					; size = 4
_sub_type$ = -16					; size = 4
_task_side$ = -12					; size = 4
_objective$ = -8					; size = 4
_new_task$ = -4						; size = 4
_task$ = 8						; size = 4
?create_reaction_to_strike_task_completed@@YGXPAUENTITY@@@Z PROC ; create_reaction_to_strike_task_completed, COMDAT

; 579  : {

  00000	55		 push	 ebp
  00001	8b ec		 mov	 ebp, esp
  00003	83 ec 74	 sub	 esp, 116		; 00000074H
  00006	53		 push	 ebx
  00007	56		 push	 esi
  00008	57		 push	 edi

; 580  : 	entity
; 581  : 		*new_task,
; 582  : 		*objective;
; 583  : 
; 584  : 	entity_sides
; 585  : 		task_side;
; 586  : 
; 587  : 	int
; 588  : 		sub_type;
; 589  : 
; 590  : 	float
; 591  : 		priority,
; 592  : 		efficiency;
; 593  : 
; 594  : 	ASSERT (task);

  00009	83 7d 08 00	 cmp	 DWORD PTR _task$[ebp], 0
  0000d	75 18		 jne	 SHORT $LN4@create_rea
  0000f	a1 00 00 00 00	 mov	 eax, DWORD PTR ?__LINE__Var@?0??create_reaction_to_strike_task_completed@@YGXPAUENTITY@@@Z@4JA
  00014	83 c0 0f	 add	 eax, 15			; 0000000fH
  00017	50		 push	 eax
  00018	68 00 00 00 00	 push	 OFFSET ??_C@_0ED@PAFNPDBA@c?3?2users?2nhv90?2projects?2eech?2ap@
  0001d	68 00 00 00 00	 push	 OFFSET ??_C@_04GGKLLKOO@task@
  00022	e8 00 00 00 00	 call	 ?process_assert@@YGXPBD0H@Z ; process_assert
$LN4@create_rea:

; 595  : 
; 596  : 	ASSERT (get_comms_model () == COMMS_MODEL_SERVER);

  00027	83 3d 00 00 00
	00 00		 cmp	 DWORD PTR ?system_comms_model@@3W4COMMS_MODEL_TYPES@@A, 0 ; system_comms_model
  0002e	74 18		 je	 SHORT $LN5@create_rea
  00030	a1 00 00 00 00	 mov	 eax, DWORD PTR ?__LINE__Var@?0??create_reaction_to_strike_task_completed@@YGXPAUENTITY@@@Z@4JA
  00035	83 c0 11	 add	 eax, 17			; 00000011H
  00038	50		 push	 eax
  00039	68 00 00 00 00	 push	 OFFSET ??_C@_0ED@PAFNPDBA@c?3?2users?2nhv90?2projects?2eech?2ap@
  0003e	68 00 00 00 00	 push	 OFFSET ??_C@_0CJ@DMBLBJBK@get_comms_model?5?$CI?$CJ?5?$DN?$DN?5COMMS_MOD@
  00043	e8 00 00 00 00	 call	 ?process_assert@@YGXPBD0H@Z ; process_assert
$LN5@create_rea:

; 597  : 
; 598  : 	if ((get_local_entity_int_value (task, INT_TYPE_TASK_COMPLETED) != TASK_COMPLETED_SUCCESS) &&

  00048	83 7d 08 00	 cmp	 DWORD PTR _task$[ebp], 0
  0004c	74 0a		 je	 SHORT $LN14@create_rea
  0004e	8b 45 08	 mov	 eax, DWORD PTR _task$[ebp]
  00051	8b 08		 mov	 ecx, DWORD PTR [eax]
  00053	89 4d a4	 mov	 DWORD PTR tv79[ebp], ecx
  00056	eb 1d		 jmp	 SHORT $LN15@create_rea
$LN14@create_rea:
  00058	68 56 02 00 00	 push	 598			; 00000256H
  0005d	68 00 00 00 00	 push	 OFFSET ??_C@_0ED@PAFNPDBA@c?3?2users?2nhv90?2projects?2eech?2ap@
  00062	8b 15 00 00 00
	00		 mov	 edx, DWORD PTR ?null_entity_pointer_message@@3PBDB ; null_entity_pointer_message
  00068	52		 push	 edx
  00069	e8 00 00 00 00	 call	 ?process_assert@@YGXPBD0H@Z ; process_assert
  0006e	c7 45 a4 00 00
	00 00		 mov	 DWORD PTR tv79[ebp], 0
$LN15@create_rea:
  00075	b8 01 00 00 00	 mov	 eax, 1
  0007a	85 c0		 test	 eax, eax
  0007c	74 09		 je	 SHORT $LN16@create_rea
  0007e	c7 45 a0 d9 00
	00 00		 mov	 DWORD PTR tv86[ebp], 217 ; 000000d9H
  00085	eb 1d		 jmp	 SHORT $LN17@create_rea
$LN16@create_rea:
  00087	68 56 02 00 00	 push	 598			; 00000256H
  0008c	68 00 00 00 00	 push	 OFFSET ??_C@_0ED@PAFNPDBA@c?3?2users?2nhv90?2projects?2eech?2ap@
  00091	8b 0d 00 00 00
	00		 mov	 ecx, DWORD PTR ?overload_invalid_int_type_message@@3PBDB ; overload_invalid_int_type_message
  00097	51		 push	 ecx
  00098	e8 00 00 00 00	 call	 ?process_assert@@YGXPBD0H@Z ; process_assert
  0009d	c7 45 a0 00 00
	00 00		 mov	 DWORD PTR tv86[ebp], 0
$LN17@create_rea:
  000a4	68 d9 00 00 00	 push	 217			; 000000d9H
  000a9	8b 55 08	 mov	 edx, DWORD PTR _task$[ebp]
  000ac	52		 push	 edx
  000ad	69 45 a4 5c 04
	00 00		 imul	 eax, DWORD PTR tv79[ebp], 1116
  000b4	8b 4d a0	 mov	 ecx, DWORD PTR tv86[ebp]
  000b7	8b 94 88 00 00
	00 00		 mov	 edx, DWORD PTR ?fn_get_local_entity_int_value@@3PAY0BBH@P6GHPAUENTITY@@W4INT_TYPES@@@ZA[eax+ecx*4]
  000be	ff d2		 call	 edx
  000c0	83 f8 03	 cmp	 eax, 3
  000c3	0f 84 82 00 00
	00		 je	 $LN6@create_rea
  000c9	83 7d 08 00	 cmp	 DWORD PTR _task$[ebp], 0
  000cd	74 0a		 je	 SHORT $LN18@create_rea
  000cf	8b 45 08	 mov	 eax, DWORD PTR _task$[ebp]
  000d2	8b 08		 mov	 ecx, DWORD PTR [eax]
  000d4	89 4d a4	 mov	 DWORD PTR tv130[ebp], ecx
  000d7	eb 1d		 jmp	 SHORT $LN19@create_rea
$LN18@create_rea:
  000d9	68 57 02 00 00	 push	 599			; 00000257H
  000de	68 00 00 00 00	 push	 OFFSET ??_C@_0ED@PAFNPDBA@c?3?2users?2nhv90?2projects?2eech?2ap@
  000e3	8b 15 00 00 00
	00		 mov	 edx, DWORD PTR ?null_entity_pointer_message@@3PBDB ; null_entity_pointer_message
  000e9	52		 push	 edx
  000ea	e8 00 00 00 00	 call	 ?process_assert@@YGXPBD0H@Z ; process_assert
  000ef	c7 45 a4 00 00
	00 00		 mov	 DWORD PTR tv130[ebp], 0
$LN19@create_rea:
  000f6	b8 01 00 00 00	 mov	 eax, 1
  000fb	85 c0		 test	 eax, eax
  000fd	74 09		 je	 SHORT $LN20@create_rea
  000ff	c7 45 a0 d9 00
	00 00		 mov	 DWORD PTR tv137[ebp], 217 ; 000000d9H
  00106	eb 1d		 jmp	 SHORT $LN21@create_rea
$LN20@create_rea:
  00108	68 57 02 00 00	 push	 599			; 00000257H
  0010d	68 00 00 00 00	 push	 OFFSET ??_C@_0ED@PAFNPDBA@c?3?2users?2nhv90?2projects?2eech?2ap@
  00112	8b 0d 00 00 00
	00		 mov	 ecx, DWORD PTR ?overload_invalid_int_type_message@@3PBDB ; overload_invalid_int_type_message
  00118	51		 push	 ecx
  00119	e8 00 00 00 00	 call	 ?process_assert@@YGXPBD0H@Z ; process_assert
  0011e	c7 45 a0 00 00
	00 00		 mov	 DWORD PTR tv137[ebp], 0
$LN21@create_rea:
  00125	68 d9 00 00 00	 push	 217			; 000000d9H
  0012a	8b 55 08	 mov	 edx, DWORD PTR _task$[ebp]
  0012d	52		 push	 edx
  0012e	69 45 a4 5c 04
	00 00		 imul	 eax, DWORD PTR tv130[ebp], 1116
  00135	8b 4d a0	 mov	 ecx, DWORD PTR tv137[ebp]
  00138	8b 94 88 00 00
	00 00		 mov	 edx, DWORD PTR ?fn_get_local_entity_int_value@@3PAY0BBH@P6GHPAUENTITY@@W4INT_TYPES@@@ZA[eax+ecx*4]
  0013f	ff d2		 call	 edx
  00141	83 f8 02	 cmp	 eax, 2
  00144	74 05		 je	 SHORT $LN6@create_rea

; 599  : 			(get_local_entity_int_value (task, INT_TYPE_TASK_COMPLETED) != TASK_COMPLETED_PARTIAL))
; 600  : 	{
; 601  : 		return;

  00146	e9 d0 06 00 00	 jmp	 $LN1@create_rea
$LN6@create_rea:

; 602  : 	}
; 603  : 
; 604  : 	ai_log ("================================");

  0014b	68 00 00 00 00	 push	 OFFSET ??_C@_0CB@HHHLKEEB@?$DN?$DN?$DN?$DN?$DN?$DN?$DN?$DN?$DN?$DN?$DN?$DN?$DN?$DN?$DN?$DN?$DN?$DN?$DN?$DN?$DN?$DN?$DN?$DN?$DN?$DN?$DN?$DN?$DN?$DN?$DN@
  00150	e8 00 00 00 00	 call	 ?ai_log@@YAXPBDZZ	; ai_log
  00155	83 c4 04	 add	 esp, 4

; 605  : 	ai_log ("REACTION TO STRIKE TASK COMPLETED");

  00158	68 00 00 00 00	 push	 OFFSET ??_C@_0CC@KILKLPJC@REACTION?5TO?5STRIKE?5TASK?5COMPLET@
  0015d	e8 00 00 00 00	 call	 ?ai_log@@YAXPBDZZ	; ai_log
  00162	83 c4 04	 add	 esp, 4

; 606  : 	ai_log ("--------------------------------");

  00165	68 00 00 00 00	 push	 OFFSET ??_C@_0CB@GNHPAIID@?9?9?9?9?9?9?9?9?9?9?9?9?9?9?9?9?9?9?9?9?9?9?9?9?9?9?9?9?9?9?9@
  0016a	e8 00 00 00 00	 call	 ?ai_log@@YAXPBDZZ	; ai_log
  0016f	83 c4 04	 add	 esp, 4

; 607  : 
; 608  : 	task_side = (entity_sides) get_local_entity_int_value (task, INT_TYPE_SIDE);

  00172	83 7d 08 00	 cmp	 DWORD PTR _task$[ebp], 0
  00176	74 0a		 je	 SHORT $LN22@create_rea
  00178	8b 45 08	 mov	 eax, DWORD PTR _task$[ebp]
  0017b	8b 08		 mov	 ecx, DWORD PTR [eax]
  0017d	89 4d a4	 mov	 DWORD PTR tv153[ebp], ecx
  00180	eb 21		 jmp	 SHORT $LN23@create_rea
$LN22@create_rea:
  00182	8b 15 00 00 00
	00		 mov	 edx, DWORD PTR ?__LINE__Var@?0??create_reaction_to_strike_task_completed@@YGXPAUENTITY@@@Z@4JA
  00188	83 c2 1d	 add	 edx, 29			; 0000001dH
  0018b	52		 push	 edx
  0018c	68 00 00 00 00	 push	 OFFSET ??_C@_0ED@PAFNPDBA@c?3?2users?2nhv90?2projects?2eech?2ap@
  00191	a1 00 00 00 00	 mov	 eax, DWORD PTR ?null_entity_pointer_message@@3PBDB ; null_entity_pointer_message
  00196	50		 push	 eax
  00197	e8 00 00 00 00	 call	 ?process_assert@@YGXPBD0H@Z ; process_assert
  0019c	c7 45 a4 00 00
	00 00		 mov	 DWORD PTR tv153[ebp], 0
$LN23@create_rea:
  001a3	b9 01 00 00 00	 mov	 ecx, 1
  001a8	85 c9		 test	 ecx, ecx
  001aa	74 09		 je	 SHORT $LN24@create_rea
  001ac	c7 45 a0 bb 00
	00 00		 mov	 DWORD PTR tv161[ebp], 187 ; 000000bbH
  001b3	eb 21		 jmp	 SHORT $LN25@create_rea
$LN24@create_rea:
  001b5	8b 15 00 00 00
	00		 mov	 edx, DWORD PTR ?__LINE__Var@?0??create_reaction_to_strike_task_completed@@YGXPAUENTITY@@@Z@4JA
  001bb	83 c2 1d	 add	 edx, 29			; 0000001dH
  001be	52		 push	 edx
  001bf	68 00 00 00 00	 push	 OFFSET ??_C@_0ED@PAFNPDBA@c?3?2users?2nhv90?2projects?2eech?2ap@
  001c4	a1 00 00 00 00	 mov	 eax, DWORD PTR ?overload_invalid_int_type_message@@3PBDB ; overload_invalid_int_type_message
  001c9	50		 push	 eax
  001ca	e8 00 00 00 00	 call	 ?process_assert@@YGXPBD0H@Z ; process_assert
  001cf	c7 45 a0 00 00
	00 00		 mov	 DWORD PTR tv161[ebp], 0
$LN25@create_rea:
  001d6	68 bb 00 00 00	 push	 187			; 000000bbH
  001db	8b 4d 08	 mov	 ecx, DWORD PTR _task$[ebp]
  001de	51		 push	 ecx
  001df	69 55 a4 5c 04
	00 00		 imul	 edx, DWORD PTR tv153[ebp], 1116
  001e6	8b 45 a0	 mov	 eax, DWORD PTR tv161[ebp]
  001e9	8b 8c 82 00 00
	00 00		 mov	 ecx, DWORD PTR ?fn_get_local_entity_int_value@@3PAY0BBH@P6GHPAUENTITY@@W4INT_TYPES@@@ZA[edx+eax*4]
  001f0	ff d1		 call	 ecx
  001f2	89 45 f4	 mov	 DWORD PTR _task_side$[ebp], eax

; 609  : 
; 610  : 	objective = get_local_entity_parent (task, LIST_TYPE_TASK_DEPENDENT);

  001f5	83 7d 08 00	 cmp	 DWORD PTR _task$[ebp], 0
  001f9	74 0a		 je	 SHORT $LN26@create_rea
  001fb	8b 45 08	 mov	 eax, DWORD PTR _task$[ebp]
  001fe	8b 08		 mov	 ecx, DWORD PTR [eax]
  00200	89 4d a4	 mov	 DWORD PTR tv173[ebp], ecx
  00203	eb 21		 jmp	 SHORT $LN27@create_rea
$LN26@create_rea:
  00205	8b 15 00 00 00
	00		 mov	 edx, DWORD PTR ?__LINE__Var@?0??create_reaction_to_strike_task_completed@@YGXPAUENTITY@@@Z@4JA
  0020b	83 c2 1f	 add	 edx, 31			; 0000001fH
  0020e	52		 push	 edx
  0020f	68 00 00 00 00	 push	 OFFSET ??_C@_0ED@PAFNPDBA@c?3?2users?2nhv90?2projects?2eech?2ap@
  00214	a1 00 00 00 00	 mov	 eax, DWORD PTR ?null_entity_pointer_message@@3PBDB ; null_entity_pointer_message
  00219	50		 push	 eax
  0021a	e8 00 00 00 00	 call	 ?process_assert@@YGXPBD0H@Z ; process_assert
  0021f	c7 45 a4 00 00
	00 00		 mov	 DWORD PTR tv173[ebp], 0
$LN27@create_rea:
  00226	b9 01 00 00 00	 mov	 ecx, 1
  0022b	85 c9		 test	 ecx, ecx
  0022d	74 09		 je	 SHORT $LN28@create_rea
  0022f	c7 45 a0 27 00
	00 00		 mov	 DWORD PTR tv181[ebp], 39 ; 00000027H
  00236	eb 21		 jmp	 SHORT $LN29@create_rea
$LN28@create_rea:
  00238	8b 15 00 00 00
	00		 mov	 edx, DWORD PTR ?__LINE__Var@?0??create_reaction_to_strike_task_completed@@YGXPAUENTITY@@@Z@4JA
  0023e	83 c2 1f	 add	 edx, 31			; 0000001fH
  00241	52		 push	 edx
  00242	68 00 00 00 00	 push	 OFFSET ??_C@_0ED@PAFNPDBA@c?3?2users?2nhv90?2projects?2eech?2ap@
  00247	a1 00 00 00 00	 mov	 eax, DWORD PTR ?overload_invalid_list_type_message@@3PBDB ; overload_invalid_list_type_message
  0024c	50		 push	 eax
  0024d	e8 00 00 00 00	 call	 ?process_assert@@YGXPBD0H@Z ; process_assert
  00252	c7 45 a0 00 00
	00 00		 mov	 DWORD PTR tv181[ebp], 0
$LN29@create_rea:
  00259	6a 27		 push	 39			; 00000027H
  0025b	8b 4d 08	 mov	 ecx, DWORD PTR _task$[ebp]
  0025e	51		 push	 ecx
  0025f	69 55 a4 b4 00
	00 00		 imul	 edx, DWORD PTR tv173[ebp], 180
  00266	8b 45 a0	 mov	 eax, DWORD PTR tv181[ebp]
  00269	8b 8c 82 00 00
	00 00		 mov	 ecx, DWORD PTR ?fn_get_local_entity_parent@@3PAY0CN@P6GPAUENTITY@@PAU1@W4LIST_TYPES@@@ZA[edx+eax*4]
  00270	ff d1		 call	 ecx
  00272	89 45 f8	 mov	 DWORD PTR _objective$[ebp], eax

; 611  : 
; 612  : 	ASSERT (objective);

  00275	83 7d f8 00	 cmp	 DWORD PTR _objective$[ebp], 0
  00279	75 18		 jne	 SHORT $LN7@create_rea
  0027b	a1 00 00 00 00	 mov	 eax, DWORD PTR ?__LINE__Var@?0??create_reaction_to_strike_task_completed@@YGXPAUENTITY@@@Z@4JA
  00280	83 c0 21	 add	 eax, 33			; 00000021H
  00283	50		 push	 eax
  00284	68 00 00 00 00	 push	 OFFSET ??_C@_0ED@PAFNPDBA@c?3?2users?2nhv90?2projects?2eech?2ap@
  00289	68 00 00 00 00	 push	 OFFSET ??_C@_09FKEDLGBF@objective@
  0028e	e8 00 00 00 00	 call	 ?process_assert@@YGXPBD0H@Z ; process_assert
$LN7@create_rea:

; 613  : 
; 614  : 	sub_type = get_local_entity_int_value (objective, INT_TYPE_ENTITY_SUB_TYPE);

  00293	83 7d f8 00	 cmp	 DWORD PTR _objective$[ebp], 0
  00297	74 0a		 je	 SHORT $LN30@create_rea
  00299	8b 45 f8	 mov	 eax, DWORD PTR _objective$[ebp]
  0029c	8b 08		 mov	 ecx, DWORD PTR [eax]
  0029e	89 4d a4	 mov	 DWORD PTR tv198[ebp], ecx
  002a1	eb 21		 jmp	 SHORT $LN31@create_rea
$LN30@create_rea:
  002a3	8b 15 00 00 00
	00		 mov	 edx, DWORD PTR ?__LINE__Var@?0??create_reaction_to_strike_task_completed@@YGXPAUENTITY@@@Z@4JA
  002a9	83 c2 23	 add	 edx, 35			; 00000023H
  002ac	52		 push	 edx
  002ad	68 00 00 00 00	 push	 OFFSET ??_C@_0ED@PAFNPDBA@c?3?2users?2nhv90?2projects?2eech?2ap@
  002b2	a1 00 00 00 00	 mov	 eax, DWORD PTR ?null_entity_pointer_message@@3PBDB ; null_entity_pointer_message
  002b7	50		 push	 eax
  002b8	e8 00 00 00 00	 call	 ?process_assert@@YGXPBD0H@Z ; process_assert
  002bd	c7 45 a4 00 00
	00 00		 mov	 DWORD PTR tv198[ebp], 0
$LN31@create_rea:
  002c4	b9 01 00 00 00	 mov	 ecx, 1
  002c9	85 c9		 test	 ecx, ecx
  002cb	74 09		 je	 SHORT $LN32@create_rea
  002cd	c7 45 a0 34 00
	00 00		 mov	 DWORD PTR tv206[ebp], 52 ; 00000034H
  002d4	eb 21		 jmp	 SHORT $LN33@create_rea
$LN32@create_rea:
  002d6	8b 15 00 00 00
	00		 mov	 edx, DWORD PTR ?__LINE__Var@?0??create_reaction_to_strike_task_completed@@YGXPAUENTITY@@@Z@4JA
  002dc	83 c2 23	 add	 edx, 35			; 00000023H
  002df	52		 push	 edx
  002e0	68 00 00 00 00	 push	 OFFSET ??_C@_0ED@PAFNPDBA@c?3?2users?2nhv90?2projects?2eech?2ap@
  002e5	a1 00 00 00 00	 mov	 eax, DWORD PTR ?overload_invalid_int_type_message@@3PBDB ; overload_invalid_int_type_message
  002ea	50		 push	 eax
  002eb	e8 00 00 00 00	 call	 ?process_assert@@YGXPBD0H@Z ; process_assert
  002f0	c7 45 a0 00 00
	00 00		 mov	 DWORD PTR tv206[ebp], 0
$LN33@create_rea:
  002f7	6a 34		 push	 52			; 00000034H
  002f9	8b 4d f8	 mov	 ecx, DWORD PTR _objective$[ebp]
  002fc	51		 push	 ecx
  002fd	69 55 a4 5c 04
	00 00		 imul	 edx, DWORD PTR tv198[ebp], 1116
  00304	8b 45 a0	 mov	 eax, DWORD PTR tv206[ebp]
  00307	8b 8c 82 00 00
	00 00		 mov	 ecx, DWORD PTR ?fn_get_local_entity_int_value@@3PAY0BBH@P6GHPAUENTITY@@W4INT_TYPES@@@ZA[edx+eax*4]
  0030e	ff d1		 call	 ecx
  00310	89 45 f0	 mov	 DWORD PTR _sub_type$[ebp], eax

; 615  : 
; 616  : 	priority = get_local_entity_float_value (task, FLOAT_TYPE_TASK_PRIORITY);

  00313	83 7d 08 00	 cmp	 DWORD PTR _task$[ebp], 0
  00317	74 0a		 je	 SHORT $LN34@create_rea
  00319	8b 45 08	 mov	 eax, DWORD PTR _task$[ebp]
  0031c	8b 08		 mov	 ecx, DWORD PTR [eax]
  0031e	89 4d a4	 mov	 DWORD PTR tv218[ebp], ecx
  00321	eb 21		 jmp	 SHORT $LN35@create_rea
$LN34@create_rea:
  00323	8b 15 00 00 00
	00		 mov	 edx, DWORD PTR ?__LINE__Var@?0??create_reaction_to_strike_task_completed@@YGXPAUENTITY@@@Z@4JA
  00329	83 c2 25	 add	 edx, 37			; 00000025H
  0032c	52		 push	 edx
  0032d	68 00 00 00 00	 push	 OFFSET ??_C@_0ED@PAFNPDBA@c?3?2users?2nhv90?2projects?2eech?2ap@
  00332	a1 00 00 00 00	 mov	 eax, DWORD PTR ?null_entity_pointer_message@@3PBDB ; null_entity_pointer_message
  00337	50		 push	 eax
  00338	e8 00 00 00 00	 call	 ?process_assert@@YGXPBD0H@Z ; process_assert
  0033d	c7 45 a4 00 00
	00 00		 mov	 DWORD PTR tv218[ebp], 0
$LN35@create_rea:
  00344	b9 01 00 00 00	 mov	 ecx, 1
  00349	85 c9		 test	 ecx, ecx
  0034b	74 09		 je	 SHORT $LN36@create_rea
  0034d	c7 45 a0 8a 00
	00 00		 mov	 DWORD PTR tv226[ebp], 138 ; 0000008aH
  00354	eb 21		 jmp	 SHORT $LN37@create_rea
$LN36@create_rea:
  00356	8b 15 00 00 00
	00		 mov	 edx, DWORD PTR ?__LINE__Var@?0??create_reaction_to_strike_task_completed@@YGXPAUENTITY@@@Z@4JA
  0035c	83 c2 25	 add	 edx, 37			; 00000025H
  0035f	52		 push	 edx
  00360	68 00 00 00 00	 push	 OFFSET ??_C@_0ED@PAFNPDBA@c?3?2users?2nhv90?2projects?2eech?2ap@
  00365	a1 00 00 00 00	 mov	 eax, DWORD PTR ?overload_invalid_float_type_message@@3PBDB ; overload_invalid_float_type_message
  0036a	50		 push	 eax
  0036b	e8 00 00 00 00	 call	 ?process_assert@@YGXPBD0H@Z ; process_assert
  00370	c7 45 a0 00 00
	00 00		 mov	 DWORD PTR tv226[ebp], 0
$LN37@create_rea:
  00377	68 8a 00 00 00	 push	 138			; 0000008aH
  0037c	8b 4d 08	 mov	 ecx, DWORD PTR _task$[ebp]
  0037f	51		 push	 ecx
  00380	69 55 a4 bc 02
	00 00		 imul	 edx, DWORD PTR tv218[ebp], 700
  00387	8b 45 a0	 mov	 eax, DWORD PTR tv226[ebp]
  0038a	8b 8c 82 00 00
	00 00		 mov	 ecx, DWORD PTR ?fn_get_local_entity_float_value@@3PAY0KP@P6GMPAUENTITY@@W4FLOAT_TYPES@@@ZA[edx+eax*4]
  00391	ff d1		 call	 ecx
  00393	d9 5d ec	 fstp	 DWORD PTR _priority$[ebp]

; 617  : 
; 618  : 	switch (get_local_entity_type (objective))

  00396	83 7d f8 00	 cmp	 DWORD PTR _objective$[ebp], 0
  0039a	74 0a		 je	 SHORT $LN38@create_rea
  0039c	8b 45 f8	 mov	 eax, DWORD PTR _objective$[ebp]
  0039f	8b 08		 mov	 ecx, DWORD PTR [eax]
  003a1	89 4d a4	 mov	 DWORD PTR tv237[ebp], ecx
  003a4	eb 1d		 jmp	 SHORT $LN39@create_rea
$LN38@create_rea:
  003a6	68 6a 02 00 00	 push	 618			; 0000026aH
  003ab	68 00 00 00 00	 push	 OFFSET ??_C@_0ED@PAFNPDBA@c?3?2users?2nhv90?2projects?2eech?2ap@
  003b0	8b 15 00 00 00
	00		 mov	 edx, DWORD PTR ?null_entity_pointer_message@@3PBDB ; null_entity_pointer_message
  003b6	52		 push	 edx
  003b7	e8 00 00 00 00	 call	 ?process_assert@@YGXPBD0H@Z ; process_assert
  003bc	c7 45 a4 00 00
	00 00		 mov	 DWORD PTR tv237[ebp], 0
$LN39@create_rea:
  003c3	8b 45 a4	 mov	 eax, DWORD PTR tv237[ebp]
  003c6	89 45 a0	 mov	 DWORD PTR tv238[ebp], eax
  003c9	83 7d a0 0f	 cmp	 DWORD PTR tv238[ebp], 15 ; 0000000fH
  003cd	74 05		 je	 SHORT $LN8@create_rea
  003cf	e9 47 04 00 00	 jmp	 $LN2@create_rea
$LN8@create_rea:

; 619  : 	{
; 620  : 		case ENTITY_TYPE_KEYSITE:
; 621  : 		{
; 622  : 			//
; 623  : 			// Upon completion of ground strike - create another ground strike, or BDA if below min efficiency
; 624  : 			//
; 625  : 			
; 626  : 			efficiency = get_local_entity_float_value (objective, FLOAT_TYPE_EFFICIENCY);

  003d4	83 7d f8 00	 cmp	 DWORD PTR _objective$[ebp], 0
  003d8	74 0a		 je	 SHORT $LN40@create_rea
  003da	8b 45 f8	 mov	 eax, DWORD PTR _objective$[ebp]
  003dd	8b 08		 mov	 ecx, DWORD PTR [eax]
  003df	89 4d a4	 mov	 DWORD PTR tv245[ebp], ecx
  003e2	eb 21		 jmp	 SHORT $LN41@create_rea
$LN40@create_rea:
  003e4	8b 15 00 00 00
	00		 mov	 edx, DWORD PTR ?__LINE__Var@?0??create_reaction_to_strike_task_completed@@YGXPAUENTITY@@@Z@4JA
  003ea	83 c2 2f	 add	 edx, 47			; 0000002fH
  003ed	52		 push	 edx
  003ee	68 00 00 00 00	 push	 OFFSET ??_C@_0ED@PAFNPDBA@c?3?2users?2nhv90?2projects?2eech?2ap@
  003f3	a1 00 00 00 00	 mov	 eax, DWORD PTR ?null_entity_pointer_message@@3PBDB ; null_entity_pointer_message
  003f8	50		 push	 eax
  003f9	e8 00 00 00 00	 call	 ?process_assert@@YGXPBD0H@Z ; process_assert
  003fe	c7 45 a4 00 00
	00 00		 mov	 DWORD PTR tv245[ebp], 0
$LN41@create_rea:
  00405	b9 01 00 00 00	 mov	 ecx, 1
  0040a	85 c9		 test	 ecx, ecx
  0040c	74 09		 je	 SHORT $LN42@create_rea
  0040e	c7 45 a0 21 00
	00 00		 mov	 DWORD PTR tv253[ebp], 33 ; 00000021H
  00415	eb 21		 jmp	 SHORT $LN43@create_rea
$LN42@create_rea:
  00417	8b 15 00 00 00
	00		 mov	 edx, DWORD PTR ?__LINE__Var@?0??create_reaction_to_strike_task_completed@@YGXPAUENTITY@@@Z@4JA
  0041d	83 c2 2f	 add	 edx, 47			; 0000002fH
  00420	52		 push	 edx
  00421	68 00 00 00 00	 push	 OFFSET ??_C@_0ED@PAFNPDBA@c?3?2users?2nhv90?2projects?2eech?2ap@
  00426	a1 00 00 00 00	 mov	 eax, DWORD PTR ?overload_invalid_float_type_message@@3PBDB ; overload_invalid_float_type_message
  0042b	50		 push	 eax
  0042c	e8 00 00 00 00	 call	 ?process_assert@@YGXPBD0H@Z ; process_assert
  00431	c7 45 a0 00 00
	00 00		 mov	 DWORD PTR tv253[ebp], 0
$LN43@create_rea:
  00438	6a 21		 push	 33			; 00000021H
  0043a	8b 4d f8	 mov	 ecx, DWORD PTR _objective$[ebp]
  0043d	51		 push	 ecx
  0043e	69 55 a4 bc 02
	00 00		 imul	 edx, DWORD PTR tv245[ebp], 700
  00445	8b 45 a0	 mov	 eax, DWORD PTR tv253[ebp]
  00448	8b 8c 82 00 00
	00 00		 mov	 ecx, DWORD PTR ?fn_get_local_entity_float_value@@3PAY0KP@P6GMPAUENTITY@@W4FLOAT_TYPES@@@ZA[edx+eax*4]
  0044f	ff d1		 call	 ecx
  00451	d9 5d e8	 fstp	 DWORD PTR _efficiency$[ebp]

; 627  : 
; 628  : 			if (keysite_database [sub_type].ground_strike_target)

  00454	6b 45 f0 44	 imul	 eax, DWORD PTR _sub_type$[ebp], 68
  00458	8b 88 40 00 00
	00		 mov	 ecx, DWORD PTR ?keysite_database@@3PAUKEYSITE_DATA@@A[eax+64]
  0045e	c1 e9 0a	 shr	 ecx, 10			; 0000000aH
  00461	83 e1 01	 and	 ecx, 1
  00464	0f 84 88 01 00
	00		 je	 $LN10@create_rea

; 629  : 			{
; 630  : 				if (efficiency >= keysite_database [sub_type].minimum_efficiency)

  0046a	6b 45 f0 44	 imul	 eax, DWORD PTR _sub_type$[ebp], 68
  0046e	f3 0f 10 45 e8	 movss	 xmm0, DWORD PTR _efficiency$[ebp]
  00473	0f 2f 80 1c 00
	00 00		 comiss	 xmm0, DWORD PTR ?keysite_database@@3PAUKEYSITE_DATA@@A[eax+28]
  0047a	0f 82 72 01 00
	00		 jb	 $LN10@create_rea

; 631  : 				{
; 632  : 					new_task = create_ground_strike_task (task_side, objective, task, TRUE, task_database [ENTITY_SUB_TYPE_TASK_GROUND_STRIKE].task_priority, NULL, NULL);

  00480	6a 00		 push	 0
  00482	6a 00		 push	 0
  00484	b8 50 00 00 00	 mov	 eax, 80			; 00000050H
  00489	6b c8 0c	 imul	 ecx, eax, 12
  0048c	51		 push	 ecx
  0048d	f3 0f 10 81 10
	00 00 00	 movss	 xmm0, DWORD PTR ?task_database@@3PAUTASK_DATA@@A[ecx+16]
  00495	f3 0f 11 04 24	 movss	 DWORD PTR [esp], xmm0
  0049a	6a 01		 push	 1
  0049c	8b 55 08	 mov	 edx, DWORD PTR _task$[ebp]
  0049f	52		 push	 edx
  004a0	8b 45 f8	 mov	 eax, DWORD PTR _objective$[ebp]
  004a3	50		 push	 eax
  004a4	8b 4d f4	 mov	 ecx, DWORD PTR _task_side$[ebp]
  004a7	51		 push	 ecx
  004a8	e8 00 00 00 00	 call	 ?create_ground_strike_task@@YGPAUENTITY@@W4ENTITY_SIDES@@PAU1@1HM11@Z ; create_ground_strike_task
  004ad	89 45 fc	 mov	 DWORD PTR _new_task$[ebp], eax

; 633  : 	
; 634  : 					ai_log ("(TASK) Side %s : Created STRIKE (%d) at %s (eff. %.3f) in reaction to %s",

  004b0	83 7d 08 00	 cmp	 DWORD PTR _task$[ebp], 0
  004b4	74 0a		 je	 SHORT $LN44@create_rea
  004b6	8b 45 08	 mov	 eax, DWORD PTR _task$[ebp]
  004b9	8b 08		 mov	 ecx, DWORD PTR [eax]
  004bb	89 4d a4	 mov	 DWORD PTR tv286[ebp], ecx
  004be	eb 21		 jmp	 SHORT $LN45@create_rea
$LN44@create_rea:
  004c0	8b 15 00 00 00
	00		 mov	 edx, DWORD PTR ?__LINE__Var@?0??create_reaction_to_strike_task_completed@@YGXPAUENTITY@@@Z@4JA
  004c6	83 c2 3c	 add	 edx, 60			; 0000003cH
  004c9	52		 push	 edx
  004ca	68 00 00 00 00	 push	 OFFSET ??_C@_0ED@PAFNPDBA@c?3?2users?2nhv90?2projects?2eech?2ap@
  004cf	a1 00 00 00 00	 mov	 eax, DWORD PTR ?null_entity_pointer_message@@3PBDB ; null_entity_pointer_message
  004d4	50		 push	 eax
  004d5	e8 00 00 00 00	 call	 ?process_assert@@YGXPBD0H@Z ; process_assert
  004da	c7 45 a4 00 00
	00 00		 mov	 DWORD PTR tv286[ebp], 0
$LN45@create_rea:
  004e1	b9 01 00 00 00	 mov	 ecx, 1
  004e6	85 c9		 test	 ecx, ecx
  004e8	74 09		 je	 SHORT $LN46@create_rea
  004ea	c7 45 a0 03 00
	00 00		 mov	 DWORD PTR tv294[ebp], 3
  004f1	eb 21		 jmp	 SHORT $LN47@create_rea
$LN46@create_rea:
  004f3	8b 15 00 00 00
	00		 mov	 edx, DWORD PTR ?__LINE__Var@?0??create_reaction_to_strike_task_completed@@YGXPAUENTITY@@@Z@4JA
  004f9	83 c2 3c	 add	 edx, 60			; 0000003cH
  004fc	52		 push	 edx
  004fd	68 00 00 00 00	 push	 OFFSET ??_C@_0ED@PAFNPDBA@c?3?2users?2nhv90?2projects?2eech?2ap@
  00502	a1 00 00 00 00	 mov	 eax, DWORD PTR ?overload_invalid_string_type_message@@3PBDB ; overload_invalid_string_type_message
  00507	50		 push	 eax
  00508	e8 00 00 00 00	 call	 ?process_assert@@YGXPBD0H@Z ; process_assert
  0050d	c7 45 a0 00 00
	00 00		 mov	 DWORD PTR tv294[ebp], 0
$LN47@create_rea:
  00514	83 7d f8 00	 cmp	 DWORD PTR _objective$[ebp], 0
  00518	74 0a		 je	 SHORT $LN48@create_rea
  0051a	8b 4d f8	 mov	 ecx, DWORD PTR _objective$[ebp]
  0051d	8b 11		 mov	 edx, DWORD PTR [ecx]
  0051f	89 55 9c	 mov	 DWORD PTR tv309[ebp], edx
  00522	eb 21		 jmp	 SHORT $LN49@create_rea
$LN48@create_rea:
  00524	a1 00 00 00 00	 mov	 eax, DWORD PTR ?__LINE__Var@?0??create_reaction_to_strike_task_completed@@YGXPAUENTITY@@@Z@4JA
  00529	83 c0 3a	 add	 eax, 58			; 0000003aH
  0052c	50		 push	 eax
  0052d	68 00 00 00 00	 push	 OFFSET ??_C@_0ED@PAFNPDBA@c?3?2users?2nhv90?2projects?2eech?2ap@
  00532	8b 0d 00 00 00
	00		 mov	 ecx, DWORD PTR ?null_entity_pointer_message@@3PBDB ; null_entity_pointer_message
  00538	51		 push	 ecx
  00539	e8 00 00 00 00	 call	 ?process_assert@@YGXPBD0H@Z ; process_assert
  0053e	c7 45 9c 00 00
	00 00		 mov	 DWORD PTR tv309[ebp], 0
$LN49@create_rea:
  00545	ba 01 00 00 00	 mov	 edx, 1
  0054a	85 d2		 test	 edx, edx
  0054c	74 09		 je	 SHORT $LN50@create_rea
  0054e	c7 45 98 07 00
	00 00		 mov	 DWORD PTR tv317[ebp], 7
  00555	eb 21		 jmp	 SHORT $LN51@create_rea
$LN50@create_rea:
  00557	a1 00 00 00 00	 mov	 eax, DWORD PTR ?__LINE__Var@?0??create_reaction_to_strike_task_completed@@YGXPAUENTITY@@@Z@4JA
  0055c	83 c0 3a	 add	 eax, 58			; 0000003aH
  0055f	50		 push	 eax
  00560	68 00 00 00 00	 push	 OFFSET ??_C@_0ED@PAFNPDBA@c?3?2users?2nhv90?2projects?2eech?2ap@
  00565	8b 0d 00 00 00
	00		 mov	 ecx, DWORD PTR ?overload_invalid_string_type_message@@3PBDB ; overload_invalid_string_type_message
  0056b	51		 push	 ecx
  0056c	e8 00 00 00 00	 call	 ?process_assert@@YGXPBD0H@Z ; process_assert
  00571	c7 45 98 00 00
	00 00		 mov	 DWORD PTR tv317[ebp], 0
$LN51@create_rea:
  00578	83 7d fc 00	 cmp	 DWORD PTR _new_task$[ebp], 0
  0057c	74 11		 je	 SHORT $LN52@create_rea
  0057e	8b 55 fc	 mov	 edx, DWORD PTR _new_task$[ebp]
  00581	2b 15 00 00 00
	00		 sub	 edx, DWORD PTR ?entities@@3PAUENTITY@@A ; entities
  00587	c1 fa 04	 sar	 edx, 4
  0058a	89 55 94	 mov	 DWORD PTR tv327[ebp], edx
  0058d	eb 07		 jmp	 SHORT $LN53@create_rea
$LN52@create_rea:
  0058f	c7 45 94 ff ff
	ff ff		 mov	 DWORD PTR tv327[ebp], -1
$LN53@create_rea:
  00596	6a 03		 push	 3
  00598	8b 45 08	 mov	 eax, DWORD PTR _task$[ebp]
  0059b	50		 push	 eax
  0059c	6b 4d a4 34	 imul	 ecx, DWORD PTR tv286[ebp], 52
  005a0	8b 55 a0	 mov	 edx, DWORD PTR tv294[ebp]
  005a3	8b 84 91 00 00
	00 00		 mov	 eax, DWORD PTR ?fn_get_local_entity_string@@3PAY0N@P6GPBDPAUENTITY@@W4STRING_TYPES@@@ZA[ecx+edx*4]
  005aa	ff d0		 call	 eax
  005ac	50		 push	 eax
  005ad	f3 0f 5a 45 e8	 cvtss2sd xmm0, DWORD PTR _efficiency$[ebp]
  005b2	83 ec 08	 sub	 esp, 8
  005b5	f2 0f 11 04 24	 movsd	 QWORD PTR [esp], xmm0
  005ba	6a 07		 push	 7
  005bc	8b 4d f8	 mov	 ecx, DWORD PTR _objective$[ebp]
  005bf	51		 push	 ecx
  005c0	6b 55 9c 34	 imul	 edx, DWORD PTR tv309[ebp], 52
  005c4	8b 45 98	 mov	 eax, DWORD PTR tv317[ebp]
  005c7	8b 8c 82 00 00
	00 00		 mov	 ecx, DWORD PTR ?fn_get_local_entity_string@@3PAY0N@P6GPBDPAUENTITY@@W4STRING_TYPES@@@ZA[edx+eax*4]
  005ce	ff d1		 call	 ecx
  005d0	50		 push	 eax
  005d1	8b 55 94	 mov	 edx, DWORD PTR tv327[ebp]
  005d4	52		 push	 edx
  005d5	8b 45 f4	 mov	 eax, DWORD PTR _task_side$[ebp]
  005d8	8b 0c 85 00 00
	00 00		 mov	 ecx, DWORD PTR ?entity_side_short_names@@3PAPBDA[eax*4]
  005df	51		 push	 ecx
  005e0	68 00 00 00 00	 push	 OFFSET ??_C@_0EJ@JNDJIAKO@?$CITASK?$CJ?5Side?5?$CFs?5?3?5Created?5STRIKE@
  005e5	e8 00 00 00 00	 call	 ?ai_log@@YAXPBDZZ	; ai_log
  005ea	83 c4 1c	 add	 esp, 28			; 0000001cH

; 635  : 										entity_side_short_names [task_side],
; 636  : 										get_local_entity_safe_index (new_task),
; 637  : 										get_local_entity_string (objective, STRING_TYPE_KEYSITE_NAME),
; 638  : 										efficiency,
; 639  : 										get_local_entity_string (task, STRING_TYPE_FULL_NAME));
; 640  : 
; 641  : 					return;

  005ed	e9 29 02 00 00	 jmp	 $LN1@create_rea
$LN10@create_rea:

; 642  : 				}
; 643  : 			}
; 644  : 	
; 645  : 			if (keysite_database [sub_type].recon_target)

  005f2	6b 45 f0 44	 imul	 eax, DWORD PTR _sub_type$[ebp], 68
  005f6	8b 88 40 00 00
	00		 mov	 ecx, DWORD PTR ?keysite_database@@3PAUKEYSITE_DATA@@A[eax+64]
  005fc	c1 e9 09	 shr	 ecx, 9
  005ff	83 e1 01	 and	 ecx, 1
  00602	0f 84 13 02 00
	00		 je	 $LN12@create_rea

; 646  : 			{
; 647  : 				if (
; 648  : 						(!entity_is_object_of_task (objective, ENTITY_SUB_TYPE_TASK_RECON, task_side)) &&

  00608	8b 45 f4	 mov	 eax, DWORD PTR _task_side$[ebp]
  0060b	50		 push	 eax
  0060c	6a 11		 push	 17			; 00000011H
  0060e	8b 4d f8	 mov	 ecx, DWORD PTR _objective$[ebp]
  00611	51		 push	 ecx
  00612	e8 00 00 00 00	 call	 ?entity_is_object_of_task@@YGHPAUENTITY@@HW4ENTITY_SIDES@@@Z ; entity_is_object_of_task
  00617	85 c0		 test	 eax, eax
  00619	0f 85 fc 01 00
	00		 jne	 $LN12@create_rea
  0061f	8b 45 f4	 mov	 eax, DWORD PTR _task_side$[ebp]
  00622	50		 push	 eax
  00623	6a 05		 push	 5
  00625	8b 4d f8	 mov	 ecx, DWORD PTR _objective$[ebp]
  00628	51		 push	 ecx
  00629	e8 00 00 00 00	 call	 ?entity_is_object_of_task@@YGHPAUENTITY@@HW4ENTITY_SIDES@@@Z ; entity_is_object_of_task
  0062e	85 c0		 test	 eax, eax
  00630	0f 85 e5 01 00
	00		 jne	 $LN12@create_rea

; 649  : 						(!entity_is_object_of_task (objective, ENTITY_SUB_TYPE_TASK_BDA, task_side))
; 650  : 					)
; 651  : 				{
; 652  : 					new_task = create_bda_task (task_side, objective, task, TRUE, task_database [ENTITY_SUB_TYPE_TASK_BDA].task_priority, NULL, NULL);

  00636	6a 00		 push	 0
  00638	6a 00		 push	 0
  0063a	b8 50 00 00 00	 mov	 eax, 80			; 00000050H
  0063f	6b c8 05	 imul	 ecx, eax, 5
  00642	51		 push	 ecx
  00643	f3 0f 10 81 10
	00 00 00	 movss	 xmm0, DWORD PTR ?task_database@@3PAUTASK_DATA@@A[ecx+16]
  0064b	f3 0f 11 04 24	 movss	 DWORD PTR [esp], xmm0
  00650	6a 01		 push	 1
  00652	8b 55 08	 mov	 edx, DWORD PTR _task$[ebp]
  00655	52		 push	 edx
  00656	8b 45 f8	 mov	 eax, DWORD PTR _objective$[ebp]
  00659	50		 push	 eax
  0065a	8b 4d f4	 mov	 ecx, DWORD PTR _task_side$[ebp]
  0065d	51		 push	 ecx
  0065e	e8 00 00 00 00	 call	 ?create_bda_task@@YGPAUENTITY@@W4ENTITY_SIDES@@PAU1@1HM11@Z ; create_bda_task
  00663	89 45 fc	 mov	 DWORD PTR _new_task$[ebp], eax

; 653  : 
; 654  : 					ai_log ("(TASK) Side %s : Created BDA (%d) at %s (eff. %.3f) in reaction to %s",

  00666	83 7d 08 00	 cmp	 DWORD PTR _task$[ebp], 0
  0066a	74 0a		 je	 SHORT $LN54@create_rea
  0066c	8b 45 08	 mov	 eax, DWORD PTR _task$[ebp]
  0066f	8b 08		 mov	 ecx, DWORD PTR [eax]
  00671	89 4d a4	 mov	 DWORD PTR tv366[ebp], ecx
  00674	eb 21		 jmp	 SHORT $LN55@create_rea
$LN54@create_rea:
  00676	8b 15 00 00 00
	00		 mov	 edx, DWORD PTR ?__LINE__Var@?0??create_reaction_to_strike_task_completed@@YGXPAUENTITY@@@Z@4JA
  0067c	83 c2 50	 add	 edx, 80			; 00000050H
  0067f	52		 push	 edx
  00680	68 00 00 00 00	 push	 OFFSET ??_C@_0ED@PAFNPDBA@c?3?2users?2nhv90?2projects?2eech?2ap@
  00685	a1 00 00 00 00	 mov	 eax, DWORD PTR ?null_entity_pointer_message@@3PBDB ; null_entity_pointer_message
  0068a	50		 push	 eax
  0068b	e8 00 00 00 00	 call	 ?process_assert@@YGXPBD0H@Z ; process_assert
  00690	c7 45 a4 00 00
	00 00		 mov	 DWORD PTR tv366[ebp], 0
$LN55@create_rea:
  00697	b9 01 00 00 00	 mov	 ecx, 1
  0069c	85 c9		 test	 ecx, ecx
  0069e	74 09		 je	 SHORT $LN56@create_rea
  006a0	c7 45 a0 03 00
	00 00		 mov	 DWORD PTR tv374[ebp], 3
  006a7	eb 21		 jmp	 SHORT $LN57@create_rea
$LN56@create_rea:
  006a9	8b 15 00 00 00
	00		 mov	 edx, DWORD PTR ?__LINE__Var@?0??create_reaction_to_strike_task_completed@@YGXPAUENTITY@@@Z@4JA
  006af	83 c2 50	 add	 edx, 80			; 00000050H
  006b2	52		 push	 edx
  006b3	68 00 00 00 00	 push	 OFFSET ??_C@_0ED@PAFNPDBA@c?3?2users?2nhv90?2projects?2eech?2ap@
  006b8	a1 00 00 00 00	 mov	 eax, DWORD PTR ?overload_invalid_string_type_message@@3PBDB ; overload_invalid_string_type_message
  006bd	50		 push	 eax
  006be	e8 00 00 00 00	 call	 ?process_assert@@YGXPBD0H@Z ; process_assert
  006c3	c7 45 a0 00 00
	00 00		 mov	 DWORD PTR tv374[ebp], 0
$LN57@create_rea:
  006ca	83 7d f8 00	 cmp	 DWORD PTR _objective$[ebp], 0
  006ce	74 0a		 je	 SHORT $LN58@create_rea
  006d0	8b 4d f8	 mov	 ecx, DWORD PTR _objective$[ebp]
  006d3	8b 11		 mov	 edx, DWORD PTR [ecx]
  006d5	89 55 9c	 mov	 DWORD PTR tv387[ebp], edx
  006d8	eb 21		 jmp	 SHORT $LN59@create_rea
$LN58@create_rea:
  006da	a1 00 00 00 00	 mov	 eax, DWORD PTR ?__LINE__Var@?0??create_reaction_to_strike_task_completed@@YGXPAUENTITY@@@Z@4JA
  006df	83 c0 4f	 add	 eax, 79			; 0000004fH
  006e2	50		 push	 eax
  006e3	68 00 00 00 00	 push	 OFFSET ??_C@_0ED@PAFNPDBA@c?3?2users?2nhv90?2projects?2eech?2ap@
  006e8	8b 0d 00 00 00
	00		 mov	 ecx, DWORD PTR ?null_entity_pointer_message@@3PBDB ; null_entity_pointer_message
  006ee	51		 push	 ecx
  006ef	e8 00 00 00 00	 call	 ?process_assert@@YGXPBD0H@Z ; process_assert
  006f4	c7 45 9c 00 00
	00 00		 mov	 DWORD PTR tv387[ebp], 0
$LN59@create_rea:
  006fb	ba 01 00 00 00	 mov	 edx, 1
  00700	85 d2		 test	 edx, edx
  00702	74 09		 je	 SHORT $LN60@create_rea
  00704	c7 45 98 21 00
	00 00		 mov	 DWORD PTR tv395[ebp], 33 ; 00000021H
  0070b	eb 21		 jmp	 SHORT $LN61@create_rea
$LN60@create_rea:
  0070d	a1 00 00 00 00	 mov	 eax, DWORD PTR ?__LINE__Var@?0??create_reaction_to_strike_task_completed@@YGXPAUENTITY@@@Z@4JA
  00712	83 c0 4f	 add	 eax, 79			; 0000004fH
  00715	50		 push	 eax
  00716	68 00 00 00 00	 push	 OFFSET ??_C@_0ED@PAFNPDBA@c?3?2users?2nhv90?2projects?2eech?2ap@
  0071b	8b 0d 00 00 00
	00		 mov	 ecx, DWORD PTR ?overload_invalid_float_type_message@@3PBDB ; overload_invalid_float_type_message
  00721	51		 push	 ecx
  00722	e8 00 00 00 00	 call	 ?process_assert@@YGXPBD0H@Z ; process_assert
  00727	c7 45 98 00 00
	00 00		 mov	 DWORD PTR tv395[ebp], 0
$LN61@create_rea:
  0072e	83 7d f8 00	 cmp	 DWORD PTR _objective$[ebp], 0
  00732	74 0a		 je	 SHORT $LN62@create_rea
  00734	8b 55 f8	 mov	 edx, DWORD PTR _objective$[ebp]
  00737	8b 02		 mov	 eax, DWORD PTR [edx]
  00739	89 45 94	 mov	 DWORD PTR tv410[ebp], eax
  0073c	eb 22		 jmp	 SHORT $LN63@create_rea
$LN62@create_rea:
  0073e	8b 0d 00 00 00
	00		 mov	 ecx, DWORD PTR ?__LINE__Var@?0??create_reaction_to_strike_task_completed@@YGXPAUENTITY@@@Z@4JA
  00744	83 c1 4e	 add	 ecx, 78			; 0000004eH
  00747	51		 push	 ecx
  00748	68 00 00 00 00	 push	 OFFSET ??_C@_0ED@PAFNPDBA@c?3?2users?2nhv90?2projects?2eech?2ap@
  0074d	8b 15 00 00 00
	00		 mov	 edx, DWORD PTR ?null_entity_pointer_message@@3PBDB ; null_entity_pointer_message
  00753	52		 push	 edx
  00754	e8 00 00 00 00	 call	 ?process_assert@@YGXPBD0H@Z ; process_assert
  00759	c7 45 94 00 00
	00 00		 mov	 DWORD PTR tv410[ebp], 0
$LN63@create_rea:
  00760	b8 01 00 00 00	 mov	 eax, 1
  00765	85 c0		 test	 eax, eax
  00767	74 09		 je	 SHORT $LN64@create_rea
  00769	c7 45 90 07 00
	00 00		 mov	 DWORD PTR tv418[ebp], 7
  00770	eb 22		 jmp	 SHORT $LN65@create_rea
$LN64@create_rea:
  00772	8b 0d 00 00 00
	00		 mov	 ecx, DWORD PTR ?__LINE__Var@?0??create_reaction_to_strike_task_completed@@YGXPAUENTITY@@@Z@4JA
  00778	83 c1 4e	 add	 ecx, 78			; 0000004eH
  0077b	51		 push	 ecx
  0077c	68 00 00 00 00	 push	 OFFSET ??_C@_0ED@PAFNPDBA@c?3?2users?2nhv90?2projects?2eech?2ap@
  00781	8b 15 00 00 00
	00		 mov	 edx, DWORD PTR ?overload_invalid_string_type_message@@3PBDB ; overload_invalid_string_type_message
  00787	52		 push	 edx
  00788	e8 00 00 00 00	 call	 ?process_assert@@YGXPBD0H@Z ; process_assert
  0078d	c7 45 90 00 00
	00 00		 mov	 DWORD PTR tv418[ebp], 0
$LN65@create_rea:
  00794	83 7d fc 00	 cmp	 DWORD PTR _new_task$[ebp], 0
  00798	74 11		 je	 SHORT $LN66@create_rea
  0079a	8b 45 fc	 mov	 eax, DWORD PTR _new_task$[ebp]
  0079d	2b 05 00 00 00
	00		 sub	 eax, DWORD PTR ?entities@@3PAUENTITY@@A ; entities
  007a3	c1 f8 04	 sar	 eax, 4
  007a6	89 45 8c	 mov	 DWORD PTR tv428[ebp], eax
  007a9	eb 07		 jmp	 SHORT $LN67@create_rea
$LN66@create_rea:
  007ab	c7 45 8c ff ff
	ff ff		 mov	 DWORD PTR tv428[ebp], -1
$LN67@create_rea:
  007b2	6a 03		 push	 3
  007b4	8b 4d 08	 mov	 ecx, DWORD PTR _task$[ebp]
  007b7	51		 push	 ecx
  007b8	6b 55 a4 34	 imul	 edx, DWORD PTR tv366[ebp], 52
  007bc	8b 45 a0	 mov	 eax, DWORD PTR tv374[ebp]
  007bf	8b 8c 82 00 00
	00 00		 mov	 ecx, DWORD PTR ?fn_get_local_entity_string@@3PAY0N@P6GPBDPAUENTITY@@W4STRING_TYPES@@@ZA[edx+eax*4]
  007c6	ff d1		 call	 ecx
  007c8	50		 push	 eax
  007c9	6a 21		 push	 33			; 00000021H
  007cb	8b 55 f8	 mov	 edx, DWORD PTR _objective$[ebp]
  007ce	52		 push	 edx
  007cf	69 45 9c bc 02
	00 00		 imul	 eax, DWORD PTR tv387[ebp], 700
  007d6	8b 4d 98	 mov	 ecx, DWORD PTR tv395[ebp]
  007d9	8b 94 88 00 00
	00 00		 mov	 edx, DWORD PTR ?fn_get_local_entity_float_value@@3PAY0KP@P6GMPAUENTITY@@W4FLOAT_TYPES@@@ZA[eax+ecx*4]
  007e0	ff d2		 call	 edx
  007e2	83 ec 08	 sub	 esp, 8
  007e5	dd 1c 24	 fstp	 QWORD PTR [esp]
  007e8	6a 07		 push	 7
  007ea	8b 45 f8	 mov	 eax, DWORD PTR _objective$[ebp]
  007ed	50		 push	 eax
  007ee	6b 4d 94 34	 imul	 ecx, DWORD PTR tv410[ebp], 52
  007f2	8b 55 90	 mov	 edx, DWORD PTR tv418[ebp]
  007f5	8b 84 91 00 00
	00 00		 mov	 eax, DWORD PTR ?fn_get_local_entity_string@@3PAY0N@P6GPBDPAUENTITY@@W4STRING_TYPES@@@ZA[ecx+edx*4]
  007fc	ff d0		 call	 eax
  007fe	50		 push	 eax
  007ff	8b 4d 8c	 mov	 ecx, DWORD PTR tv428[ebp]
  00802	51		 push	 ecx
  00803	8b 55 f4	 mov	 edx, DWORD PTR _task_side$[ebp]
  00806	8b 04 95 00 00
	00 00		 mov	 eax, DWORD PTR ?entity_side_short_names@@3PAPBDA[edx*4]
  0080d	50		 push	 eax
  0080e	68 00 00 00 00	 push	 OFFSET ??_C@_0EG@IAANGOIG@?$CITASK?$CJ?5Side?5?$CFs?5?3?5Created?5BDA?5?$CI?$CF@
  00813	e8 00 00 00 00	 call	 ?ai_log@@YAXPBDZZ	; ai_log
  00818	83 c4 1c	 add	 esp, 28			; 0000001cH
$LN12@create_rea:
$LN2@create_rea:
$LN1@create_rea:

; 655  : 									entity_side_short_names [task_side],
; 656  : 									get_local_entity_safe_index (new_task),
; 657  : 									get_local_entity_string (objective, STRING_TYPE_KEYSITE_NAME),
; 658  : 									get_local_entity_float_value (objective, FLOAT_TYPE_EFFICIENCY),
; 659  : 									get_local_entity_string (task, STRING_TYPE_FULL_NAME));
; 660  : 				}
; 661  : 			}
; 662  : 
; 663  : 			break;
; 664  : 		}
; 665  : 	}
; 666  : }

  0081b	5f		 pop	 edi
  0081c	5e		 pop	 esi
  0081d	5b		 pop	 ebx
  0081e	8b e5		 mov	 esp, ebp
  00820	5d		 pop	 ebp
  00821	c2 04 00	 ret	 4
?create_reaction_to_strike_task_completed@@YGXPAUENTITY@@@Z ENDP ; create_reaction_to_strike_task_completed
_TEXT	ENDS
; Function compile flags: /Odtp /ZI
; File c:\users\nhv90\projects\eech\aphavoc\source\ai\highlevl\reaction.c
;	COMDAT ?create_reaction_to_recon_task_completed@@YGXPAUENTITY@@@Z
_TEXT	SEGMENT
tv355 = -380						; size = 4
tv1080 = -376						; size = 4
tv903 = -376						; size = 4
tv728 = -376						; size = 4
tv658 = -376						; size = 4
tv584 = -376						; size = 4
tv515 = -376						; size = 4
tv440 = -376						; size = 4
tv347 = -376						; size = 4
tv1070 = -372						; size = 4
tv981 = -372						; size = 4
tv893 = -372						; size = 4
tv808 = -372						; size = 4
tv718 = -372						; size = 4
tv648 = -372						; size = 4
tv574 = -372						; size = 4
tv505 = -372						; size = 4
tv430 = -372						; size = 4
tv331 = -372						; size = 4
tv1062 = -368						; size = 4
tv973 = -368						; size = 4
tv885 = -368						; size = 4
tv800 = -368						; size = 4
tv710 = -368						; size = 4
tv640 = -368						; size = 4
tv566 = -368						; size = 4
tv497 = -368						; size = 4
tv422 = -368						; size = 4
tv323 = -368						; size = 4
tv1104 = -364						; size = 4
tv1049 = -364						; size = 4
tv1012 = -364						; size = 4
tv957 = -364						; size = 4
tv931 = -364						; size = 4
tv872 = -364						; size = 4
tv835 = -364						; size = 4
tv784 = -364						; size = 4
tv695 = -364						; size = 4
tv625 = -364						; size = 4
tv551 = -364						; size = 4
tv482 = -364						; size = 4
tv407 = -364						; size = 4
tv305 = -364						; size = 4
tv283 = -364						; size = 4
tv260 = -364						; size = 4
tv245 = -364						; size = 4
tv233 = -364						; size = 4
tv209 = -364						; size = 4
tv190 = -364						; size = 4
tv172 = -364						; size = 4
tv147 = -364						; size = 4
tv88 = -364						; size = 4
tv1096 = -360						; size = 4
tv1041 = -360						; size = 4
tv1004 = -360						; size = 4
tv949 = -360						; size = 4
tv923 = -360						; size = 4
tv864 = -360						; size = 4
tv827 = -360						; size = 4
tv776 = -360						; size = 4
tv687 = -360						; size = 4
tv617 = -360						; size = 4
tv543 = -360						; size = 4
tv474 = -360						; size = 4
tv399 = -360						; size = 4
tv297 = -360						; size = 4
tv276 = -360						; size = 4
tv252 = -360						; size = 4
tv244 = -360						; size = 4
tv225 = -360						; size = 4
tv202 = -360						; size = 4
tv183 = -360						; size = 4
tv164 = -360						; size = 4
tv139 = -360						; size = 4
tv80 = -360						; size = 4
_member_count$1 = -292					; size = 4
_member_count$2 = -288					; size = 4
_efficiency$3 = -284					; size = 4
_s$ = -280						; size = 256
_priority$ = -24					; size = 4
_sub_type$ = -20					; size = 4
_task_side$ = -16					; size = 4
_objective$ = -12					; size = 4
_new_task$ = -8						; size = 4
_force$ = -4						; size = 4
_task$ = 8						; size = 4
?create_reaction_to_recon_task_completed@@YGXPAUENTITY@@@Z PROC ; create_reaction_to_recon_task_completed, COMDAT

; 315  : {

  00000	55		 push	 ebp
  00001	8b ec		 mov	 ebp, esp
  00003	81 ec 7c 01 00
	00		 sub	 esp, 380		; 0000017cH
  00009	53		 push	 ebx
  0000a	56		 push	 esi
  0000b	57		 push	 edi

; 316  : 	entity
; 317  : 		*force,
; 318  : 		*new_task,
; 319  : 		*objective;
; 320  : 
; 321  : 	entity_sides
; 322  : 		task_side;
; 323  : 
; 324  : 	int
; 325  : 		sub_type;
; 326  : 
; 327  : 	float
; 328  : 		priority;
; 329  : 
; 330  : 	char
; 331  : 		s [256];
; 332  : 
; 333  : 	ASSERT (task);

  0000c	83 7d 08 00	 cmp	 DWORD PTR _task$[ebp], 0
  00010	75 18		 jne	 SHORT $LN4@create_rea
  00012	a1 00 00 00 00	 mov	 eax, DWORD PTR ?__LINE__Var@?0??create_reaction_to_recon_task_completed@@YGXPAUENTITY@@@Z@4JA
  00017	83 c0 12	 add	 eax, 18			; 00000012H
  0001a	50		 push	 eax
  0001b	68 00 00 00 00	 push	 OFFSET ??_C@_0ED@PAFNPDBA@c?3?2users?2nhv90?2projects?2eech?2ap@
  00020	68 00 00 00 00	 push	 OFFSET ??_C@_04GGKLLKOO@task@
  00025	e8 00 00 00 00	 call	 ?process_assert@@YGXPBD0H@Z ; process_assert
$LN4@create_rea:

; 334  : 
; 335  : 	ASSERT (get_comms_model () == COMMS_MODEL_SERVER);

  0002a	83 3d 00 00 00
	00 00		 cmp	 DWORD PTR ?system_comms_model@@3W4COMMS_MODEL_TYPES@@A, 0 ; system_comms_model
  00031	74 18		 je	 SHORT $LN5@create_rea
  00033	a1 00 00 00 00	 mov	 eax, DWORD PTR ?__LINE__Var@?0??create_reaction_to_recon_task_completed@@YGXPAUENTITY@@@Z@4JA
  00038	83 c0 14	 add	 eax, 20			; 00000014H
  0003b	50		 push	 eax
  0003c	68 00 00 00 00	 push	 OFFSET ??_C@_0ED@PAFNPDBA@c?3?2users?2nhv90?2projects?2eech?2ap@
  00041	68 00 00 00 00	 push	 OFFSET ??_C@_0CJ@DMBLBJBK@get_comms_model?5?$CI?$CJ?5?$DN?$DN?5COMMS_MOD@
  00046	e8 00 00 00 00	 call	 ?process_assert@@YGXPBD0H@Z ; process_assert
$LN5@create_rea:

; 336  : 
; 337  : 	task_side = (entity_sides) get_local_entity_int_value (task, INT_TYPE_SIDE);

  0004b	83 7d 08 00	 cmp	 DWORD PTR _task$[ebp], 0
  0004f	74 0d		 je	 SHORT $LN34@create_rea
  00051	8b 45 08	 mov	 eax, DWORD PTR _task$[ebp]
  00054	8b 08		 mov	 ecx, DWORD PTR [eax]
  00056	89 8d 98 fe ff
	ff		 mov	 DWORD PTR tv80[ebp], ecx
  0005c	eb 24		 jmp	 SHORT $LN35@create_rea
$LN34@create_rea:
  0005e	8b 15 00 00 00
	00		 mov	 edx, DWORD PTR ?__LINE__Var@?0??create_reaction_to_recon_task_completed@@YGXPAUENTITY@@@Z@4JA
  00064	83 c2 16	 add	 edx, 22			; 00000016H
  00067	52		 push	 edx
  00068	68 00 00 00 00	 push	 OFFSET ??_C@_0ED@PAFNPDBA@c?3?2users?2nhv90?2projects?2eech?2ap@
  0006d	a1 00 00 00 00	 mov	 eax, DWORD PTR ?null_entity_pointer_message@@3PBDB ; null_entity_pointer_message
  00072	50		 push	 eax
  00073	e8 00 00 00 00	 call	 ?process_assert@@YGXPBD0H@Z ; process_assert
  00078	c7 85 98 fe ff
	ff 00 00 00 00	 mov	 DWORD PTR tv80[ebp], 0
$LN35@create_rea:
  00082	b9 01 00 00 00	 mov	 ecx, 1
  00087	85 c9		 test	 ecx, ecx
  00089	74 0c		 je	 SHORT $LN36@create_rea
  0008b	c7 85 94 fe ff
	ff bb 00 00 00	 mov	 DWORD PTR tv88[ebp], 187 ; 000000bbH
  00095	eb 24		 jmp	 SHORT $LN37@create_rea
$LN36@create_rea:
  00097	8b 15 00 00 00
	00		 mov	 edx, DWORD PTR ?__LINE__Var@?0??create_reaction_to_recon_task_completed@@YGXPAUENTITY@@@Z@4JA
  0009d	83 c2 16	 add	 edx, 22			; 00000016H
  000a0	52		 push	 edx
  000a1	68 00 00 00 00	 push	 OFFSET ??_C@_0ED@PAFNPDBA@c?3?2users?2nhv90?2projects?2eech?2ap@
  000a6	a1 00 00 00 00	 mov	 eax, DWORD PTR ?overload_invalid_int_type_message@@3PBDB ; overload_invalid_int_type_message
  000ab	50		 push	 eax
  000ac	e8 00 00 00 00	 call	 ?process_assert@@YGXPBD0H@Z ; process_assert
  000b1	c7 85 94 fe ff
	ff 00 00 00 00	 mov	 DWORD PTR tv88[ebp], 0
$LN37@create_rea:
  000bb	68 bb 00 00 00	 push	 187			; 000000bbH
  000c0	8b 4d 08	 mov	 ecx, DWORD PTR _task$[ebp]
  000c3	51		 push	 ecx
  000c4	69 95 98 fe ff
	ff 5c 04 00 00	 imul	 edx, DWORD PTR tv80[ebp], 1116
  000ce	8b 85 94 fe ff
	ff		 mov	 eax, DWORD PTR tv88[ebp]
  000d4	8b 8c 82 00 00
	00 00		 mov	 ecx, DWORD PTR ?fn_get_local_entity_int_value@@3PAY0BBH@P6GHPAUENTITY@@W4INT_TYPES@@@ZA[edx+eax*4]
  000db	ff d1		 call	 ecx
  000dd	89 45 f0	 mov	 DWORD PTR _task_side$[ebp], eax

; 338  : 
; 339  : 	force = get_local_force_entity (task_side);

  000e0	8b 45 f0	 mov	 eax, DWORD PTR _task_side$[ebp]
  000e3	50		 push	 eax
  000e4	e8 00 00 00 00	 call	 ?get_local_force_entity@@YGPAUENTITY@@W4ENTITY_SIDES@@@Z ; get_local_force_entity
  000e9	89 45 fc	 mov	 DWORD PTR _force$[ebp], eax

; 340  : 
; 341  : 	ASSERT (force);

  000ec	83 7d fc 00	 cmp	 DWORD PTR _force$[ebp], 0
  000f0	75 18		 jne	 SHORT $LN6@create_rea
  000f2	a1 00 00 00 00	 mov	 eax, DWORD PTR ?__LINE__Var@?0??create_reaction_to_recon_task_completed@@YGXPAUENTITY@@@Z@4JA
  000f7	83 c0 1a	 add	 eax, 26			; 0000001aH
  000fa	50		 push	 eax
  000fb	68 00 00 00 00	 push	 OFFSET ??_C@_0ED@PAFNPDBA@c?3?2users?2nhv90?2projects?2eech?2ap@
  00100	68 00 00 00 00	 push	 OFFSET ??_C@_05BINPNAAL@force@
  00105	e8 00 00 00 00	 call	 ?process_assert@@YGXPBD0H@Z ; process_assert
$LN6@create_rea:

; 342  : 
; 343  : 	objective = get_local_entity_parent (task, LIST_TYPE_TASK_DEPENDENT);

  0010a	83 7d 08 00	 cmp	 DWORD PTR _task$[ebp], 0
  0010e	74 0d		 je	 SHORT $LN38@create_rea
  00110	8b 45 08	 mov	 eax, DWORD PTR _task$[ebp]
  00113	8b 08		 mov	 ecx, DWORD PTR [eax]
  00115	89 8d 98 fe ff
	ff		 mov	 DWORD PTR tv139[ebp], ecx
  0011b	eb 24		 jmp	 SHORT $LN39@create_rea
$LN38@create_rea:
  0011d	8b 15 00 00 00
	00		 mov	 edx, DWORD PTR ?__LINE__Var@?0??create_reaction_to_recon_task_completed@@YGXPAUENTITY@@@Z@4JA
  00123	83 c2 1c	 add	 edx, 28			; 0000001cH
  00126	52		 push	 edx
  00127	68 00 00 00 00	 push	 OFFSET ??_C@_0ED@PAFNPDBA@c?3?2users?2nhv90?2projects?2eech?2ap@
  0012c	a1 00 00 00 00	 mov	 eax, DWORD PTR ?null_entity_pointer_message@@3PBDB ; null_entity_pointer_message
  00131	50		 push	 eax
  00132	e8 00 00 00 00	 call	 ?process_assert@@YGXPBD0H@Z ; process_assert
  00137	c7 85 98 fe ff
	ff 00 00 00 00	 mov	 DWORD PTR tv139[ebp], 0
$LN39@create_rea:
  00141	b9 01 00 00 00	 mov	 ecx, 1
  00146	85 c9		 test	 ecx, ecx
  00148	74 0c		 je	 SHORT $LN40@create_rea
  0014a	c7 85 94 fe ff
	ff 27 00 00 00	 mov	 DWORD PTR tv147[ebp], 39 ; 00000027H
  00154	eb 24		 jmp	 SHORT $LN41@create_rea
$LN40@create_rea:
  00156	8b 15 00 00 00
	00		 mov	 edx, DWORD PTR ?__LINE__Var@?0??create_reaction_to_recon_task_completed@@YGXPAUENTITY@@@Z@4JA
  0015c	83 c2 1c	 add	 edx, 28			; 0000001cH
  0015f	52		 push	 edx
  00160	68 00 00 00 00	 push	 OFFSET ??_C@_0ED@PAFNPDBA@c?3?2users?2nhv90?2projects?2eech?2ap@
  00165	a1 00 00 00 00	 mov	 eax, DWORD PTR ?overload_invalid_list_type_message@@3PBDB ; overload_invalid_list_type_message
  0016a	50		 push	 eax
  0016b	e8 00 00 00 00	 call	 ?process_assert@@YGXPBD0H@Z ; process_assert
  00170	c7 85 94 fe ff
	ff 00 00 00 00	 mov	 DWORD PTR tv147[ebp], 0
$LN41@create_rea:
  0017a	6a 27		 push	 39			; 00000027H
  0017c	8b 4d 08	 mov	 ecx, DWORD PTR _task$[ebp]
  0017f	51		 push	 ecx
  00180	69 95 98 fe ff
	ff b4 00 00 00	 imul	 edx, DWORD PTR tv139[ebp], 180
  0018a	8b 85 94 fe ff
	ff		 mov	 eax, DWORD PTR tv147[ebp]
  00190	8b 8c 82 00 00
	00 00		 mov	 ecx, DWORD PTR ?fn_get_local_entity_parent@@3PAY0CN@P6GPAUENTITY@@PAU1@W4LIST_TYPES@@@ZA[edx+eax*4]
  00197	ff d1		 call	 ecx
  00199	89 45 f4	 mov	 DWORD PTR _objective$[ebp], eax

; 344  : 
; 345  : 	ASSERT (objective);

  0019c	83 7d f4 00	 cmp	 DWORD PTR _objective$[ebp], 0
  001a0	75 18		 jne	 SHORT $LN7@create_rea
  001a2	a1 00 00 00 00	 mov	 eax, DWORD PTR ?__LINE__Var@?0??create_reaction_to_recon_task_completed@@YGXPAUENTITY@@@Z@4JA
  001a7	83 c0 1e	 add	 eax, 30			; 0000001eH
  001aa	50		 push	 eax
  001ab	68 00 00 00 00	 push	 OFFSET ??_C@_0ED@PAFNPDBA@c?3?2users?2nhv90?2projects?2eech?2ap@
  001b0	68 00 00 00 00	 push	 OFFSET ??_C@_09FKEDLGBF@objective@
  001b5	e8 00 00 00 00	 call	 ?process_assert@@YGXPBD0H@Z ; process_assert
$LN7@create_rea:

; 346  : 
; 347  : 	sub_type = get_local_entity_int_value (objective, INT_TYPE_ENTITY_SUB_TYPE);

  001ba	83 7d f4 00	 cmp	 DWORD PTR _objective$[ebp], 0
  001be	74 0d		 je	 SHORT $LN42@create_rea
  001c0	8b 45 f4	 mov	 eax, DWORD PTR _objective$[ebp]
  001c3	8b 08		 mov	 ecx, DWORD PTR [eax]
  001c5	89 8d 98 fe ff
	ff		 mov	 DWORD PTR tv164[ebp], ecx
  001cb	eb 24		 jmp	 SHORT $LN43@create_rea
$LN42@create_rea:
  001cd	8b 15 00 00 00
	00		 mov	 edx, DWORD PTR ?__LINE__Var@?0??create_reaction_to_recon_task_completed@@YGXPAUENTITY@@@Z@4JA
  001d3	83 c2 20	 add	 edx, 32			; 00000020H
  001d6	52		 push	 edx
  001d7	68 00 00 00 00	 push	 OFFSET ??_C@_0ED@PAFNPDBA@c?3?2users?2nhv90?2projects?2eech?2ap@
  001dc	a1 00 00 00 00	 mov	 eax, DWORD PTR ?null_entity_pointer_message@@3PBDB ; null_entity_pointer_message
  001e1	50		 push	 eax
  001e2	e8 00 00 00 00	 call	 ?process_assert@@YGXPBD0H@Z ; process_assert
  001e7	c7 85 98 fe ff
	ff 00 00 00 00	 mov	 DWORD PTR tv164[ebp], 0
$LN43@create_rea:
  001f1	b9 01 00 00 00	 mov	 ecx, 1
  001f6	85 c9		 test	 ecx, ecx
  001f8	74 0c		 je	 SHORT $LN44@create_rea
  001fa	c7 85 94 fe ff
	ff 34 00 00 00	 mov	 DWORD PTR tv172[ebp], 52 ; 00000034H
  00204	eb 24		 jmp	 SHORT $LN45@create_rea
$LN44@create_rea:
  00206	8b 15 00 00 00
	00		 mov	 edx, DWORD PTR ?__LINE__Var@?0??create_reaction_to_recon_task_completed@@YGXPAUENTITY@@@Z@4JA
  0020c	83 c2 20	 add	 edx, 32			; 00000020H
  0020f	52		 push	 edx
  00210	68 00 00 00 00	 push	 OFFSET ??_C@_0ED@PAFNPDBA@c?3?2users?2nhv90?2projects?2eech?2ap@
  00215	a1 00 00 00 00	 mov	 eax, DWORD PTR ?overload_invalid_int_type_message@@3PBDB ; overload_invalid_int_type_message
  0021a	50		 push	 eax
  0021b	e8 00 00 00 00	 call	 ?process_assert@@YGXPBD0H@Z ; process_assert
  00220	c7 85 94 fe ff
	ff 00 00 00 00	 mov	 DWORD PTR tv172[ebp], 0
$LN45@create_rea:
  0022a	6a 34		 push	 52			; 00000034H
  0022c	8b 4d f4	 mov	 ecx, DWORD PTR _objective$[ebp]
  0022f	51		 push	 ecx
  00230	69 95 98 fe ff
	ff 5c 04 00 00	 imul	 edx, DWORD PTR tv164[ebp], 1116
  0023a	8b 85 94 fe ff
	ff		 mov	 eax, DWORD PTR tv172[ebp]
  00240	8b 8c 82 00 00
	00 00		 mov	 ecx, DWORD PTR ?fn_get_local_entity_int_value@@3PAY0BBH@P6GHPAUENTITY@@W4INT_TYPES@@@ZA[edx+eax*4]
  00247	ff d1		 call	 ecx
  00249	89 45 ec	 mov	 DWORD PTR _sub_type$[ebp], eax

; 348  : 
; 349  : 	//
; 350  : 	// Quick check that objective is enemy
; 351  : 	//
; 352  : 	
; 353  : 	if (get_local_entity_int_value (objective, INT_TYPE_SIDE) == task_side)

  0024c	83 7d f4 00	 cmp	 DWORD PTR _objective$[ebp], 0
  00250	74 0d		 je	 SHORT $LN46@create_rea
  00252	8b 45 f4	 mov	 eax, DWORD PTR _objective$[ebp]
  00255	8b 08		 mov	 ecx, DWORD PTR [eax]
  00257	89 8d 98 fe ff
	ff		 mov	 DWORD PTR tv183[ebp], ecx
  0025d	eb 20		 jmp	 SHORT $LN47@create_rea
$LN46@create_rea:
  0025f	68 61 01 00 00	 push	 353			; 00000161H
  00264	68 00 00 00 00	 push	 OFFSET ??_C@_0ED@PAFNPDBA@c?3?2users?2nhv90?2projects?2eech?2ap@
  00269	8b 15 00 00 00
	00		 mov	 edx, DWORD PTR ?null_entity_pointer_message@@3PBDB ; null_entity_pointer_message
  0026f	52		 push	 edx
  00270	e8 00 00 00 00	 call	 ?process_assert@@YGXPBD0H@Z ; process_assert
  00275	c7 85 98 fe ff
	ff 00 00 00 00	 mov	 DWORD PTR tv183[ebp], 0
$LN47@create_rea:
  0027f	b8 01 00 00 00	 mov	 eax, 1
  00284	85 c0		 test	 eax, eax
  00286	74 0c		 je	 SHORT $LN48@create_rea
  00288	c7 85 94 fe ff
	ff bb 00 00 00	 mov	 DWORD PTR tv190[ebp], 187 ; 000000bbH
  00292	eb 20		 jmp	 SHORT $LN49@create_rea
$LN48@create_rea:
  00294	68 61 01 00 00	 push	 353			; 00000161H
  00299	68 00 00 00 00	 push	 OFFSET ??_C@_0ED@PAFNPDBA@c?3?2users?2nhv90?2projects?2eech?2ap@
  0029e	8b 0d 00 00 00
	00		 mov	 ecx, DWORD PTR ?overload_invalid_int_type_message@@3PBDB ; overload_invalid_int_type_message
  002a4	51		 push	 ecx
  002a5	e8 00 00 00 00	 call	 ?process_assert@@YGXPBD0H@Z ; process_assert
  002aa	c7 85 94 fe ff
	ff 00 00 00 00	 mov	 DWORD PTR tv190[ebp], 0
$LN49@create_rea:
  002b4	68 bb 00 00 00	 push	 187			; 000000bbH
  002b9	8b 55 f4	 mov	 edx, DWORD PTR _objective$[ebp]
  002bc	52		 push	 edx
  002bd	69 85 98 fe ff
	ff 5c 04 00 00	 imul	 eax, DWORD PTR tv183[ebp], 1116
  002c7	8b 8d 94 fe ff
	ff		 mov	 ecx, DWORD PTR tv190[ebp]
  002cd	8b 94 88 00 00
	00 00		 mov	 edx, DWORD PTR ?fn_get_local_entity_int_value@@3PAY0BBH@P6GHPAUENTITY@@W4INT_TYPES@@@ZA[eax+ecx*4]
  002d4	ff d2		 call	 edx
  002d6	3b 45 f0	 cmp	 eax, DWORD PTR _task_side$[ebp]
  002d9	75 05		 jne	 SHORT $LN8@create_rea

; 354  : 	{
; 355  : 		return;

  002db	e9 1c 17 00 00	 jmp	 $LN1@create_rea
$LN8@create_rea:

; 356  : 	}
; 357  : 
; 358  : 	if (get_local_entity_int_value (task, INT_TYPE_TASK_COMPLETED) != TASK_COMPLETED_SUCCESS)

  002e0	83 7d 08 00	 cmp	 DWORD PTR _task$[ebp], 0
  002e4	74 0d		 je	 SHORT $LN50@create_rea
  002e6	8b 45 08	 mov	 eax, DWORD PTR _task$[ebp]
  002e9	8b 08		 mov	 ecx, DWORD PTR [eax]
  002eb	89 8d 98 fe ff
	ff		 mov	 DWORD PTR tv202[ebp], ecx
  002f1	eb 20		 jmp	 SHORT $LN51@create_rea
$LN50@create_rea:
  002f3	68 66 01 00 00	 push	 358			; 00000166H
  002f8	68 00 00 00 00	 push	 OFFSET ??_C@_0ED@PAFNPDBA@c?3?2users?2nhv90?2projects?2eech?2ap@
  002fd	8b 15 00 00 00
	00		 mov	 edx, DWORD PTR ?null_entity_pointer_message@@3PBDB ; null_entity_pointer_message
  00303	52		 push	 edx
  00304	e8 00 00 00 00	 call	 ?process_assert@@YGXPBD0H@Z ; process_assert
  00309	c7 85 98 fe ff
	ff 00 00 00 00	 mov	 DWORD PTR tv202[ebp], 0
$LN51@create_rea:
  00313	b8 01 00 00 00	 mov	 eax, 1
  00318	85 c0		 test	 eax, eax
  0031a	74 0c		 je	 SHORT $LN52@create_rea
  0031c	c7 85 94 fe ff
	ff d9 00 00 00	 mov	 DWORD PTR tv209[ebp], 217 ; 000000d9H
  00326	eb 20		 jmp	 SHORT $LN53@create_rea
$LN52@create_rea:
  00328	68 66 01 00 00	 push	 358			; 00000166H
  0032d	68 00 00 00 00	 push	 OFFSET ??_C@_0ED@PAFNPDBA@c?3?2users?2nhv90?2projects?2eech?2ap@
  00332	8b 0d 00 00 00
	00		 mov	 ecx, DWORD PTR ?overload_invalid_int_type_message@@3PBDB ; overload_invalid_int_type_message
  00338	51		 push	 ecx
  00339	e8 00 00 00 00	 call	 ?process_assert@@YGXPBD0H@Z ; process_assert
  0033e	c7 85 94 fe ff
	ff 00 00 00 00	 mov	 DWORD PTR tv209[ebp], 0
$LN53@create_rea:
  00348	68 d9 00 00 00	 push	 217			; 000000d9H
  0034d	8b 55 08	 mov	 edx, DWORD PTR _task$[ebp]
  00350	52		 push	 edx
  00351	69 85 98 fe ff
	ff 5c 04 00 00	 imul	 eax, DWORD PTR tv202[ebp], 1116
  0035b	8b 8d 94 fe ff
	ff		 mov	 ecx, DWORD PTR tv209[ebp]
  00361	8b 94 88 00 00
	00 00		 mov	 edx, DWORD PTR ?fn_get_local_entity_int_value@@3PAY0BBH@P6GHPAUENTITY@@W4INT_TYPES@@@ZA[eax+ecx*4]
  00368	ff d2		 call	 edx
  0036a	83 f8 03	 cmp	 eax, 3
  0036d	74 05		 je	 SHORT $LN9@create_rea

; 359  : 	{
; 360  : 		return;

  0036f	e9 88 16 00 00	 jmp	 $LN1@create_rea
$LN9@create_rea:

; 361  : 	}
; 362  : 
; 363  : 	ai_log ("================================");

  00374	68 00 00 00 00	 push	 OFFSET ??_C@_0CB@HHHLKEEB@?$DN?$DN?$DN?$DN?$DN?$DN?$DN?$DN?$DN?$DN?$DN?$DN?$DN?$DN?$DN?$DN?$DN?$DN?$DN?$DN?$DN?$DN?$DN?$DN?$DN?$DN?$DN?$DN?$DN?$DN?$DN@
  00379	e8 00 00 00 00	 call	 ?ai_log@@YAXPBDZZ	; ai_log
  0037e	83 c4 04	 add	 esp, 4

; 364  : 	ai_log ("REACTION TO RECON TASK COMPLETED");

  00381	68 00 00 00 00	 push	 OFFSET ??_C@_0CB@FNNEAEL@REACTION?5TO?5RECON?5TASK?5COMPLETE@
  00386	e8 00 00 00 00	 call	 ?ai_log@@YAXPBDZZ	; ai_log
  0038b	83 c4 04	 add	 esp, 4

; 365  : 	ai_log ("--------------------------------");

  0038e	68 00 00 00 00	 push	 OFFSET ??_C@_0CB@GNHPAIID@?9?9?9?9?9?9?9?9?9?9?9?9?9?9?9?9?9?9?9?9?9?9?9?9?9?9?9?9?9?9?9@
  00393	e8 00 00 00 00	 call	 ?ai_log@@YAXPBDZZ	; ai_log
  00398	83 c4 04	 add	 esp, 4

; 366  : 
; 367  : 	priority = get_local_entity_float_value (task, FLOAT_TYPE_TASK_PRIORITY);

  0039b	83 7d 08 00	 cmp	 DWORD PTR _task$[ebp], 0
  0039f	74 0d		 je	 SHORT $LN54@create_rea
  003a1	8b 45 08	 mov	 eax, DWORD PTR _task$[ebp]
  003a4	8b 08		 mov	 ecx, DWORD PTR [eax]
  003a6	89 8d 98 fe ff
	ff		 mov	 DWORD PTR tv225[ebp], ecx
  003ac	eb 24		 jmp	 SHORT $LN55@create_rea
$LN54@create_rea:
  003ae	8b 15 00 00 00
	00		 mov	 edx, DWORD PTR ?__LINE__Var@?0??create_reaction_to_recon_task_completed@@YGXPAUENTITY@@@Z@4JA
  003b4	83 c2 34	 add	 edx, 52			; 00000034H
  003b7	52		 push	 edx
  003b8	68 00 00 00 00	 push	 OFFSET ??_C@_0ED@PAFNPDBA@c?3?2users?2nhv90?2projects?2eech?2ap@
  003bd	a1 00 00 00 00	 mov	 eax, DWORD PTR ?null_entity_pointer_message@@3PBDB ; null_entity_pointer_message
  003c2	50		 push	 eax
  003c3	e8 00 00 00 00	 call	 ?process_assert@@YGXPBD0H@Z ; process_assert
  003c8	c7 85 98 fe ff
	ff 00 00 00 00	 mov	 DWORD PTR tv225[ebp], 0
$LN55@create_rea:
  003d2	b9 01 00 00 00	 mov	 ecx, 1
  003d7	85 c9		 test	 ecx, ecx
  003d9	74 0c		 je	 SHORT $LN56@create_rea
  003db	c7 85 94 fe ff
	ff 8a 00 00 00	 mov	 DWORD PTR tv233[ebp], 138 ; 0000008aH
  003e5	eb 24		 jmp	 SHORT $LN57@create_rea
$LN56@create_rea:
  003e7	8b 15 00 00 00
	00		 mov	 edx, DWORD PTR ?__LINE__Var@?0??create_reaction_to_recon_task_completed@@YGXPAUENTITY@@@Z@4JA
  003ed	83 c2 34	 add	 edx, 52			; 00000034H
  003f0	52		 push	 edx
  003f1	68 00 00 00 00	 push	 OFFSET ??_C@_0ED@PAFNPDBA@c?3?2users?2nhv90?2projects?2eech?2ap@
  003f6	a1 00 00 00 00	 mov	 eax, DWORD PTR ?overload_invalid_float_type_message@@3PBDB ; overload_invalid_float_type_message
  003fb	50		 push	 eax
  003fc	e8 00 00 00 00	 call	 ?process_assert@@YGXPBD0H@Z ; process_assert
  00401	c7 85 94 fe ff
	ff 00 00 00 00	 mov	 DWORD PTR tv233[ebp], 0
$LN57@create_rea:
  0040b	68 8a 00 00 00	 push	 138			; 0000008aH
  00410	8b 4d 08	 mov	 ecx, DWORD PTR _task$[ebp]
  00413	51		 push	 ecx
  00414	69 95 98 fe ff
	ff bc 02 00 00	 imul	 edx, DWORD PTR tv225[ebp], 700
  0041e	8b 85 94 fe ff
	ff		 mov	 eax, DWORD PTR tv233[ebp]
  00424	8b 8c 82 00 00
	00 00		 mov	 ecx, DWORD PTR ?fn_get_local_entity_float_value@@3PAY0KP@P6GMPAUENTITY@@W4FLOAT_TYPES@@@ZA[edx+eax*4]
  0042b	ff d1		 call	 ecx
  0042d	d9 5d e8	 fstp	 DWORD PTR _priority$[ebp]

; 368  : 
; 369  : 	//
; 370  : 	// Check objective type :- keysites create strikes, air defence groups create SEAD etc.
; 371  : 	//
; 372  : 
; 373  : 	switch (get_local_entity_type (objective))

  00430	83 7d f4 00	 cmp	 DWORD PTR _objective$[ebp], 0
  00434	74 0d		 je	 SHORT $LN58@create_rea
  00436	8b 45 f4	 mov	 eax, DWORD PTR _objective$[ebp]
  00439	8b 08		 mov	 ecx, DWORD PTR [eax]
  0043b	89 8d 98 fe ff
	ff		 mov	 DWORD PTR tv244[ebp], ecx
  00441	eb 20		 jmp	 SHORT $LN59@create_rea
$LN58@create_rea:
  00443	68 75 01 00 00	 push	 373			; 00000175H
  00448	68 00 00 00 00	 push	 OFFSET ??_C@_0ED@PAFNPDBA@c?3?2users?2nhv90?2projects?2eech?2ap@
  0044d	8b 15 00 00 00
	00		 mov	 edx, DWORD PTR ?null_entity_pointer_message@@3PBDB ; null_entity_pointer_message
  00453	52		 push	 edx
  00454	e8 00 00 00 00	 call	 ?process_assert@@YGXPBD0H@Z ; process_assert
  00459	c7 85 98 fe ff
	ff 00 00 00 00	 mov	 DWORD PTR tv244[ebp], 0
$LN59@create_rea:
  00463	8b 85 98 fe ff
	ff		 mov	 eax, DWORD PTR tv244[ebp]
  00469	89 85 94 fe ff
	ff		 mov	 DWORD PTR tv245[ebp], eax
  0046f	83 bd 94 fe ff
	ff 0c		 cmp	 DWORD PTR tv245[ebp], 12 ; 0000000cH
  00476	0f 84 ab 0d 00
	00		 je	 $LN23@create_rea
  0047c	83 bd 94 fe ff
	ff 0f		 cmp	 DWORD PTR tv245[ebp], 15 ; 0000000fH
  00483	74 05		 je	 SHORT $LN10@create_rea
  00485	e9 72 15 00 00	 jmp	 $LN2@create_rea
$LN10@create_rea:

; 374  : 	{
; 375  : 		case ENTITY_TYPE_KEYSITE:
; 376  : 		{
; 377  : 			float
; 378  : 				efficiency;
; 379  : 
; 380  : 			efficiency = get_local_entity_float_value (objective, FLOAT_TYPE_EFFICIENCY);

  0048a	83 7d f4 00	 cmp	 DWORD PTR _objective$[ebp], 0
  0048e	74 0d		 je	 SHORT $LN60@create_rea
  00490	8b 45 f4	 mov	 eax, DWORD PTR _objective$[ebp]
  00493	8b 08		 mov	 ecx, DWORD PTR [eax]
  00495	89 8d 98 fe ff
	ff		 mov	 DWORD PTR tv252[ebp], ecx
  0049b	eb 24		 jmp	 SHORT $LN61@create_rea
$LN60@create_rea:
  0049d	8b 15 00 00 00
	00		 mov	 edx, DWORD PTR ?__LINE__Var@?0??create_reaction_to_recon_task_completed@@YGXPAUENTITY@@@Z@4JA
  004a3	83 c2 41	 add	 edx, 65			; 00000041H
  004a6	52		 push	 edx
  004a7	68 00 00 00 00	 push	 OFFSET ??_C@_0ED@PAFNPDBA@c?3?2users?2nhv90?2projects?2eech?2ap@
  004ac	a1 00 00 00 00	 mov	 eax, DWORD PTR ?null_entity_pointer_message@@3PBDB ; null_entity_pointer_message
  004b1	50		 push	 eax
  004b2	e8 00 00 00 00	 call	 ?process_assert@@YGXPBD0H@Z ; process_assert
  004b7	c7 85 98 fe ff
	ff 00 00 00 00	 mov	 DWORD PTR tv252[ebp], 0
$LN61@create_rea:
  004c1	b9 01 00 00 00	 mov	 ecx, 1
  004c6	85 c9		 test	 ecx, ecx
  004c8	74 0c		 je	 SHORT $LN62@create_rea
  004ca	c7 85 94 fe ff
	ff 21 00 00 00	 mov	 DWORD PTR tv260[ebp], 33 ; 00000021H
  004d4	eb 24		 jmp	 SHORT $LN63@create_rea
$LN62@create_rea:
  004d6	8b 15 00 00 00
	00		 mov	 edx, DWORD PTR ?__LINE__Var@?0??create_reaction_to_recon_task_completed@@YGXPAUENTITY@@@Z@4JA
  004dc	83 c2 41	 add	 edx, 65			; 00000041H
  004df	52		 push	 edx
  004e0	68 00 00 00 00	 push	 OFFSET ??_C@_0ED@PAFNPDBA@c?3?2users?2nhv90?2projects?2eech?2ap@
  004e5	a1 00 00 00 00	 mov	 eax, DWORD PTR ?overload_invalid_float_type_message@@3PBDB ; overload_invalid_float_type_message
  004ea	50		 push	 eax
  004eb	e8 00 00 00 00	 call	 ?process_assert@@YGXPBD0H@Z ; process_assert
  004f0	c7 85 94 fe ff
	ff 00 00 00 00	 mov	 DWORD PTR tv260[ebp], 0
$LN63@create_rea:
  004fa	6a 21		 push	 33			; 00000021H
  004fc	8b 4d f4	 mov	 ecx, DWORD PTR _objective$[ebp]
  004ff	51		 push	 ecx
  00500	69 95 98 fe ff
	ff bc 02 00 00	 imul	 edx, DWORD PTR tv252[ebp], 700
  0050a	8b 85 94 fe ff
	ff		 mov	 eax, DWORD PTR tv260[ebp]
  00510	8b 8c 82 00 00
	00 00		 mov	 ecx, DWORD PTR ?fn_get_local_entity_float_value@@3PAY0KP@P6GMPAUENTITY@@W4FLOAT_TYPES@@@ZA[edx+eax*4]
  00517	ff d1		 call	 ecx
  00519	d9 9d e4 fe ff
	ff		 fstp	 DWORD PTR _efficiency$3[ebp]

; 381  : 
; 382  : 			//
; 383  : 			// Check surrounding air defences - if greater than threshold abort strike and create S.E.A.D.
; 384  : 			//
; 385  : 
; 386  : 			if (create_sead_tasks_around_keysite (task, objective, task_side) > 1)

  0051f	8b 45 f0	 mov	 eax, DWORD PTR _task_side$[ebp]
  00522	50		 push	 eax
  00523	8b 4d f4	 mov	 ecx, DWORD PTR _objective$[ebp]
  00526	51		 push	 ecx
  00527	8b 55 08	 mov	 edx, DWORD PTR _task$[ebp]
  0052a	52		 push	 edx
  0052b	e8 00 00 00 00	 call	 ?create_sead_tasks_around_keysite@@YGHPAUENTITY@@0W4ENTITY_SIDES@@@Z ; create_sead_tasks_around_keysite
  00530	83 f8 01	 cmp	 eax, 1
  00533	7e 05		 jle	 SHORT $LN11@create_rea

; 387  : 			{
; 388  : 				break;

  00535	e9 c2 14 00 00	 jmp	 $LN2@create_rea
$LN11@create_rea:

; 389  : 			}
; 390  : 
; 391  : 			if (get_local_entity_int_value (objective, INT_TYPE_ALIVE))

  0053a	83 7d f4 00	 cmp	 DWORD PTR _objective$[ebp], 0
  0053e	74 0d		 je	 SHORT $LN64@create_rea
  00540	8b 45 f4	 mov	 eax, DWORD PTR _objective$[ebp]
  00543	8b 08		 mov	 ecx, DWORD PTR [eax]
  00545	89 8d 98 fe ff
	ff		 mov	 DWORD PTR tv276[ebp], ecx
  0054b	eb 20		 jmp	 SHORT $LN65@create_rea
$LN64@create_rea:
  0054d	68 87 01 00 00	 push	 391			; 00000187H
  00552	68 00 00 00 00	 push	 OFFSET ??_C@_0ED@PAFNPDBA@c?3?2users?2nhv90?2projects?2eech?2ap@
  00557	8b 15 00 00 00
	00		 mov	 edx, DWORD PTR ?null_entity_pointer_message@@3PBDB ; null_entity_pointer_message
  0055d	52		 push	 edx
  0055e	e8 00 00 00 00	 call	 ?process_assert@@YGXPBD0H@Z ; process_assert
  00563	c7 85 98 fe ff
	ff 00 00 00 00	 mov	 DWORD PTR tv276[ebp], 0
$LN65@create_rea:
  0056d	b8 01 00 00 00	 mov	 eax, 1
  00572	85 c0		 test	 eax, eax
  00574	74 0c		 je	 SHORT $LN66@create_rea
  00576	c7 85 94 fe ff
	ff 07 00 00 00	 mov	 DWORD PTR tv283[ebp], 7
  00580	eb 20		 jmp	 SHORT $LN67@create_rea
$LN66@create_rea:
  00582	68 87 01 00 00	 push	 391			; 00000187H
  00587	68 00 00 00 00	 push	 OFFSET ??_C@_0ED@PAFNPDBA@c?3?2users?2nhv90?2projects?2eech?2ap@
  0058c	8b 0d 00 00 00
	00		 mov	 ecx, DWORD PTR ?overload_invalid_int_type_message@@3PBDB ; overload_invalid_int_type_message
  00592	51		 push	 ecx
  00593	e8 00 00 00 00	 call	 ?process_assert@@YGXPBD0H@Z ; process_assert
  00598	c7 85 94 fe ff
	ff 00 00 00 00	 mov	 DWORD PTR tv283[ebp], 0
$LN67@create_rea:
  005a2	6a 07		 push	 7
  005a4	8b 55 f4	 mov	 edx, DWORD PTR _objective$[ebp]
  005a7	52		 push	 edx
  005a8	69 85 98 fe ff
	ff 5c 04 00 00	 imul	 eax, DWORD PTR tv276[ebp], 1116
  005b2	8b 8d 94 fe ff
	ff		 mov	 ecx, DWORD PTR tv283[ebp]
  005b8	8b 94 88 00 00
	00 00		 mov	 edx, DWORD PTR ?fn_get_local_entity_int_value@@3PAY0BBH@P6GHPAUENTITY@@W4INT_TYPES@@@ZA[eax+ecx*4]
  005bf	ff d2		 call	 edx
  005c1	85 c0		 test	 eax, eax
  005c3	0f 84 f5 0a 00
	00		 je	 $LN12@create_rea

; 392  : 			{
; 393  : 				sprintf (s, "%s %s %s %s %s",

  005c9	83 7d f4 00	 cmp	 DWORD PTR _objective$[ebp], 0
  005cd	74 0d		 je	 SHORT $LN68@create_rea
  005cf	8b 45 f4	 mov	 eax, DWORD PTR _objective$[ebp]
  005d2	8b 08		 mov	 ecx, DWORD PTR [eax]
  005d4	89 8d 98 fe ff
	ff		 mov	 DWORD PTR tv297[ebp], ecx
  005da	eb 24		 jmp	 SHORT $LN69@create_rea
$LN68@create_rea:
  005dc	8b 15 00 00 00
	00		 mov	 edx, DWORD PTR ?__LINE__Var@?0??create_reaction_to_recon_task_completed@@YGXPAUENTITY@@@Z@4JA
  005e2	83 c2 53	 add	 edx, 83			; 00000053H
  005e5	52		 push	 edx
  005e6	68 00 00 00 00	 push	 OFFSET ??_C@_0ED@PAFNPDBA@c?3?2users?2nhv90?2projects?2eech?2ap@
  005eb	a1 00 00 00 00	 mov	 eax, DWORD PTR ?null_entity_pointer_message@@3PBDB ; null_entity_pointer_message
  005f0	50		 push	 eax
  005f1	e8 00 00 00 00	 call	 ?process_assert@@YGXPBD0H@Z ; process_assert
  005f6	c7 85 98 fe ff
	ff 00 00 00 00	 mov	 DWORD PTR tv297[ebp], 0
$LN69@create_rea:
  00600	b9 01 00 00 00	 mov	 ecx, 1
  00605	85 c9		 test	 ecx, ecx
  00607	74 0c		 je	 SHORT $LN70@create_rea
  00609	c7 85 94 fe ff
	ff 70 00 00 00	 mov	 DWORD PTR tv305[ebp], 112 ; 00000070H
  00613	eb 24		 jmp	 SHORT $LN71@create_rea
$LN70@create_rea:
  00615	8b 15 00 00 00
	00		 mov	 edx, DWORD PTR ?__LINE__Var@?0??create_reaction_to_recon_task_completed@@YGXPAUENTITY@@@Z@4JA
  0061b	83 c2 53	 add	 edx, 83			; 00000053H
  0061e	52		 push	 edx
  0061f	68 00 00 00 00	 push	 OFFSET ??_C@_0ED@PAFNPDBA@c?3?2users?2nhv90?2projects?2eech?2ap@
  00624	a1 00 00 00 00	 mov	 eax, DWORD PTR ?overload_invalid_int_type_message@@3PBDB ; overload_invalid_int_type_message
  00629	50		 push	 eax
  0062a	e8 00 00 00 00	 call	 ?process_assert@@YGXPBD0H@Z ; process_assert
  0062f	c7 85 94 fe ff
	ff 00 00 00 00	 mov	 DWORD PTR tv305[ebp], 0
$LN71@create_rea:
  00639	83 7d f4 00	 cmp	 DWORD PTR _objective$[ebp], 0
  0063d	74 0d		 je	 SHORT $LN72@create_rea
  0063f	8b 4d f4	 mov	 ecx, DWORD PTR _objective$[ebp]
  00642	8b 11		 mov	 edx, DWORD PTR [ecx]
  00644	89 95 90 fe ff
	ff		 mov	 DWORD PTR tv323[ebp], edx
  0064a	eb 24		 jmp	 SHORT $LN73@create_rea
$LN72@create_rea:
  0064c	a1 00 00 00 00	 mov	 eax, DWORD PTR ?__LINE__Var@?0??create_reaction_to_recon_task_completed@@YGXPAUENTITY@@@Z@4JA
  00651	83 c0 51	 add	 eax, 81			; 00000051H
  00654	50		 push	 eax
  00655	68 00 00 00 00	 push	 OFFSET ??_C@_0ED@PAFNPDBA@c?3?2users?2nhv90?2projects?2eech?2ap@
  0065a	8b 0d 00 00 00
	00		 mov	 ecx, DWORD PTR ?null_entity_pointer_message@@3PBDB ; null_entity_pointer_message
  00660	51		 push	 ecx
  00661	e8 00 00 00 00	 call	 ?process_assert@@YGXPBD0H@Z ; process_assert
  00666	c7 85 90 fe ff
	ff 00 00 00 00	 mov	 DWORD PTR tv323[ebp], 0
$LN73@create_rea:
  00670	ba 01 00 00 00	 mov	 edx, 1
  00675	85 d2		 test	 edx, edx
  00677	74 0c		 je	 SHORT $LN74@create_rea
  00679	c7 85 8c fe ff
	ff 03 00 00 00	 mov	 DWORD PTR tv331[ebp], 3
  00683	eb 24		 jmp	 SHORT $LN75@create_rea
$LN74@create_rea:
  00685	a1 00 00 00 00	 mov	 eax, DWORD PTR ?__LINE__Var@?0??create_reaction_to_recon_task_completed@@YGXPAUENTITY@@@Z@4JA
  0068a	83 c0 51	 add	 eax, 81			; 00000051H
  0068d	50		 push	 eax
  0068e	68 00 00 00 00	 push	 OFFSET ??_C@_0ED@PAFNPDBA@c?3?2users?2nhv90?2projects?2eech?2ap@
  00693	8b 0d 00 00 00
	00		 mov	 ecx, DWORD PTR ?overload_invalid_string_type_message@@3PBDB ; overload_invalid_string_type_message
  00699	51		 push	 ecx
  0069a	e8 00 00 00 00	 call	 ?process_assert@@YGXPBD0H@Z ; process_assert
  0069f	c7 85 8c fe ff
	ff 00 00 00 00	 mov	 DWORD PTR tv331[ebp], 0
$LN75@create_rea:
  006a9	83 7d 08 00	 cmp	 DWORD PTR _task$[ebp], 0
  006ad	74 0d		 je	 SHORT $LN76@create_rea
  006af	8b 55 08	 mov	 edx, DWORD PTR _task$[ebp]
  006b2	8b 02		 mov	 eax, DWORD PTR [edx]
  006b4	89 85 88 fe ff
	ff		 mov	 DWORD PTR tv347[ebp], eax
  006ba	eb 25		 jmp	 SHORT $LN77@create_rea
$LN76@create_rea:
  006bc	8b 0d 00 00 00
	00		 mov	 ecx, DWORD PTR ?__LINE__Var@?0??create_reaction_to_recon_task_completed@@YGXPAUENTITY@@@Z@4JA
  006c2	83 c1 4f	 add	 ecx, 79			; 0000004fH
  006c5	51		 push	 ecx
  006c6	68 00 00 00 00	 push	 OFFSET ??_C@_0ED@PAFNPDBA@c?3?2users?2nhv90?2projects?2eech?2ap@
  006cb	8b 15 00 00 00
	00		 mov	 edx, DWORD PTR ?null_entity_pointer_message@@3PBDB ; null_entity_pointer_message
  006d1	52		 push	 edx
  006d2	e8 00 00 00 00	 call	 ?process_assert@@YGXPBD0H@Z ; process_assert
  006d7	c7 85 88 fe ff
	ff 00 00 00 00	 mov	 DWORD PTR tv347[ebp], 0
$LN77@create_rea:
  006e1	b8 01 00 00 00	 mov	 eax, 1
  006e6	85 c0		 test	 eax, eax
  006e8	74 0c		 je	 SHORT $LN78@create_rea
  006ea	c7 85 84 fe ff
	ff 0c 00 00 00	 mov	 DWORD PTR tv355[ebp], 12 ; 0000000cH
  006f4	eb 25		 jmp	 SHORT $LN79@create_rea
$LN78@create_rea:
  006f6	8b 0d 00 00 00
	00		 mov	 ecx, DWORD PTR ?__LINE__Var@?0??create_reaction_to_recon_task_completed@@YGXPAUENTITY@@@Z@4JA
  006fc	83 c1 4f	 add	 ecx, 79			; 0000004fH
  006ff	51		 push	 ecx
  00700	68 00 00 00 00	 push	 OFFSET ??_C@_0ED@PAFNPDBA@c?3?2users?2nhv90?2projects?2eech?2ap@
  00705	8b 15 00 00 00
	00		 mov	 edx, DWORD PTR ?overload_invalid_string_type_message@@3PBDB ; overload_invalid_string_type_message
  0070b	52		 push	 edx
  0070c	e8 00 00 00 00	 call	 ?process_assert@@YGXPBD0H@Z ; process_assert
  00711	c7 85 84 fe ff
	ff 00 00 00 00	 mov	 DWORD PTR tv355[ebp], 0
$LN79@create_rea:
  0071b	6a 70		 push	 112			; 00000070H
  0071d	8b 45 f4	 mov	 eax, DWORD PTR _objective$[ebp]
  00720	50		 push	 eax
  00721	69 8d 98 fe ff
	ff 5c 04 00 00	 imul	 ecx, DWORD PTR tv297[ebp], 1116
  0072b	8b 95 94 fe ff
	ff		 mov	 edx, DWORD PTR tv305[ebp]
  00731	8b 84 91 00 00
	00 00		 mov	 eax, DWORD PTR ?fn_get_local_entity_int_value@@3PAY0BBH@P6GHPAUENTITY@@W4INT_TYPES@@@ZA[ecx+edx*4]
  00738	ff d0		 call	 eax
  0073a	8b 0c 85 00 00
	00 00		 mov	 ecx, DWORD PTR ?keysite_usable_state_names@@3PAPBDA[eax*4]
  00741	51		 push	 ecx
  00742	68 00 00 00 00	 push	 OFFSET ??_C@_0N@JMJFELOL@is?5currently@
  00747	e8 00 00 00 00	 call	 ?get_trans@@YGPBDPBD@Z	; get_trans
  0074c	50		 push	 eax
  0074d	6a 03		 push	 3
  0074f	8b 55 f4	 mov	 edx, DWORD PTR _objective$[ebp]
  00752	52		 push	 edx
  00753	6b 85 90 fe ff
	ff 34		 imul	 eax, DWORD PTR tv323[ebp], 52
  0075a	8b 8d 8c fe ff
	ff		 mov	 ecx, DWORD PTR tv331[ebp]
  00760	8b 94 88 00 00
	00 00		 mov	 edx, DWORD PTR ?fn_get_local_entity_string@@3PAY0N@P6GPBDPAUENTITY@@W4STRING_TYPES@@@ZA[eax+ecx*4]
  00767	ff d2		 call	 edx
  00769	50		 push	 eax
  0076a	68 00 00 00 00	 push	 OFFSET ??_C@_0P@DPDAPKCI@revealed?5enemy@
  0076f	e8 00 00 00 00	 call	 ?get_trans@@YGPBDPBD@Z	; get_trans
  00774	50		 push	 eax
  00775	6a 0c		 push	 12			; 0000000cH
  00777	8b 45 08	 mov	 eax, DWORD PTR _task$[ebp]
  0077a	50		 push	 eax
  0077b	6b 8d 88 fe ff
	ff 34		 imul	 ecx, DWORD PTR tv347[ebp], 52
  00782	8b 95 84 fe ff
	ff		 mov	 edx, DWORD PTR tv355[ebp]
  00788	8b 84 91 00 00
	00 00		 mov	 eax, DWORD PTR ?fn_get_local_entity_string@@3PAY0N@P6GPBDPAUENTITY@@W4STRING_TYPES@@@ZA[ecx+edx*4]
  0078f	ff d0		 call	 eax
  00791	50		 push	 eax
  00792	68 00 00 00 00	 push	 OFFSET ??_C@_0P@EIKAFNDF@?$CFs?5?$CFs?5?$CFs?5?$CFs?5?$CFs@
  00797	8d 8d e8 fe ff
	ff		 lea	 ecx, DWORD PTR _s$[ebp]
  0079d	51		 push	 ecx
  0079e	e8 00 00 00 00	 call	 _sprintf
  007a3	83 c4 1c	 add	 esp, 28			; 0000001cH

; 394  : 										get_local_entity_string (task, STRING_TYPE_SHORT_DISPLAY_NAME),
; 395  : 										get_trans ("revealed enemy"),
; 396  : 										get_local_entity_string (objective, STRING_TYPE_FULL_NAME),
; 397  : 										get_trans ("is currently"),
; 398  : 										keysite_usable_state_names [get_local_entity_int_value (objective, INT_TYPE_KEYSITE_USABLE_STATE)]);
; 399  : 
; 400  : 				send_text_message (objective, force, MESSAGE_TEXT_SYSTEM_RECON_DATA, s);

  007a6	8d 85 e8 fe ff
	ff		 lea	 eax, DWORD PTR _s$[ebp]
  007ac	50		 push	 eax
  007ad	6a 03		 push	 3
  007af	8b 4d fc	 mov	 ecx, DWORD PTR _force$[ebp]
  007b2	51		 push	 ecx
  007b3	8b 55 f4	 mov	 edx, DWORD PTR _objective$[ebp]
  007b6	52		 push	 edx
  007b7	e8 00 00 00 00	 call	 ?send_text_message@@YGXPAUENTITY@@0W4MESSAGE_TEXT_TYPES@@PBD@Z ; send_text_message

; 401  : 
; 402  : 				if (keysite_database [sub_type].troop_insertion_target)

  007bc	6b 45 ec 44	 imul	 eax, DWORD PTR _sub_type$[ebp], 68
  007c0	8b 88 40 00 00
	00		 mov	 ecx, DWORD PTR ?keysite_database@@3PAUKEYSITE_DATA@@A[eax+64]
  007c6	c1 e9 0c	 shr	 ecx, 12			; 0000000cH
  007c9	83 e1 01	 and	 ecx, 1
  007cc	0f 84 cd 01 00
	00		 je	 $LN16@create_rea

; 403  : 				{
; 404  : 					//
; 405  : 					// check keysite efficiency - if less than threshold level then create T.I.
; 406  : 					//
; 407  : 	
; 408  : 					if (efficiency < keysite_database [sub_type].minimum_efficiency)

  007d2	6b 45 ec 44	 imul	 eax, DWORD PTR _sub_type$[ebp], 68
  007d6	f3 0f 10 80 1c
	00 00 00	 movss	 xmm0, DWORD PTR ?keysite_database@@3PAUKEYSITE_DATA@@A[eax+28]
  007de	0f 2f 85 e4 fe
	ff ff		 comiss	 xmm0, DWORD PTR _efficiency$3[ebp]
  007e5	0f 86 b4 01 00
	00		 jbe	 $LN16@create_rea

; 409  : 					{
; 410  : 						if (!entity_is_object_of_task (objective, ENTITY_SUB_TYPE_TASK_TROOP_INSERTION, task_side))

  007eb	8b 45 f0	 mov	 eax, DWORD PTR _task_side$[ebp]
  007ee	50		 push	 eax
  007ef	6a 1a		 push	 26			; 0000001aH
  007f1	8b 4d f4	 mov	 ecx, DWORD PTR _objective$[ebp]
  007f4	51		 push	 ecx
  007f5	e8 00 00 00 00	 call	 ?entity_is_object_of_task@@YGHPAUENTITY@@HW4ENTITY_SIDES@@@Z ; entity_is_object_of_task
  007fa	85 c0		 test	 eax, eax
  007fc	0f 85 9d 01 00
	00		 jne	 $LN16@create_rea

; 411  : 						{
; 412  : 							new_task = create_troop_insertion_task (task_side, objective, task, TRUE, task_database [ENTITY_SUB_TYPE_TASK_TROOP_INSERTION].task_priority, NULL, NULL);

  00802	6a 00		 push	 0
  00804	6a 00		 push	 0
  00806	b8 50 00 00 00	 mov	 eax, 80			; 00000050H
  0080b	6b c8 1a	 imul	 ecx, eax, 26
  0080e	51		 push	 ecx
  0080f	f3 0f 10 81 10
	00 00 00	 movss	 xmm0, DWORD PTR ?task_database@@3PAUTASK_DATA@@A[ecx+16]
  00817	f3 0f 11 04 24	 movss	 DWORD PTR [esp], xmm0
  0081c	6a 01		 push	 1
  0081e	8b 55 08	 mov	 edx, DWORD PTR _task$[ebp]
  00821	52		 push	 edx
  00822	8b 45 f4	 mov	 eax, DWORD PTR _objective$[ebp]
  00825	50		 push	 eax
  00826	8b 4d f0	 mov	 ecx, DWORD PTR _task_side$[ebp]
  00829	51		 push	 ecx
  0082a	e8 00 00 00 00	 call	 ?create_troop_insertion_task@@YGPAUENTITY@@W4ENTITY_SIDES@@PAU1@1HM11@Z ; create_troop_insertion_task
  0082f	89 45 f8	 mov	 DWORD PTR _new_task$[ebp], eax

; 413  : 	
; 414  : 							ai_log ("(TASK) Side %s : Created TROOP INSERTION (%d) at %s (eff. %.3f) in reaction to %s",

  00832	83 7d 08 00	 cmp	 DWORD PTR _task$[ebp], 0
  00836	74 0d		 je	 SHORT $LN80@create_rea
  00838	8b 45 08	 mov	 eax, DWORD PTR _task$[ebp]
  0083b	8b 08		 mov	 ecx, DWORD PTR [eax]
  0083d	89 8d 98 fe ff
	ff		 mov	 DWORD PTR tv399[ebp], ecx
  00843	eb 24		 jmp	 SHORT $LN81@create_rea
$LN80@create_rea:
  00845	8b 15 00 00 00
	00		 mov	 edx, DWORD PTR ?__LINE__Var@?0??create_reaction_to_recon_task_completed@@YGXPAUENTITY@@@Z@4JA
  0084b	83 c2 68	 add	 edx, 104		; 00000068H
  0084e	52		 push	 edx
  0084f	68 00 00 00 00	 push	 OFFSET ??_C@_0ED@PAFNPDBA@c?3?2users?2nhv90?2projects?2eech?2ap@
  00854	a1 00 00 00 00	 mov	 eax, DWORD PTR ?null_entity_pointer_message@@3PBDB ; null_entity_pointer_message
  00859	50		 push	 eax
  0085a	e8 00 00 00 00	 call	 ?process_assert@@YGXPBD0H@Z ; process_assert
  0085f	c7 85 98 fe ff
	ff 00 00 00 00	 mov	 DWORD PTR tv399[ebp], 0
$LN81@create_rea:
  00869	b9 01 00 00 00	 mov	 ecx, 1
  0086e	85 c9		 test	 ecx, ecx
  00870	74 0c		 je	 SHORT $LN82@create_rea
  00872	c7 85 94 fe ff
	ff 03 00 00 00	 mov	 DWORD PTR tv407[ebp], 3
  0087c	eb 24		 jmp	 SHORT $LN83@create_rea
$LN82@create_rea:
  0087e	8b 15 00 00 00
	00		 mov	 edx, DWORD PTR ?__LINE__Var@?0??create_reaction_to_recon_task_completed@@YGXPAUENTITY@@@Z@4JA
  00884	83 c2 68	 add	 edx, 104		; 00000068H
  00887	52		 push	 edx
  00888	68 00 00 00 00	 push	 OFFSET ??_C@_0ED@PAFNPDBA@c?3?2users?2nhv90?2projects?2eech?2ap@
  0088d	a1 00 00 00 00	 mov	 eax, DWORD PTR ?overload_invalid_string_type_message@@3PBDB ; overload_invalid_string_type_message
  00892	50		 push	 eax
  00893	e8 00 00 00 00	 call	 ?process_assert@@YGXPBD0H@Z ; process_assert
  00898	c7 85 94 fe ff
	ff 00 00 00 00	 mov	 DWORD PTR tv407[ebp], 0
$LN83@create_rea:
  008a2	83 7d f4 00	 cmp	 DWORD PTR _objective$[ebp], 0
  008a6	74 0d		 je	 SHORT $LN84@create_rea
  008a8	8b 4d f4	 mov	 ecx, DWORD PTR _objective$[ebp]
  008ab	8b 11		 mov	 edx, DWORD PTR [ecx]
  008ad	89 95 90 fe ff
	ff		 mov	 DWORD PTR tv422[ebp], edx
  008b3	eb 24		 jmp	 SHORT $LN85@create_rea
$LN84@create_rea:
  008b5	a1 00 00 00 00	 mov	 eax, DWORD PTR ?__LINE__Var@?0??create_reaction_to_recon_task_completed@@YGXPAUENTITY@@@Z@4JA
  008ba	83 c0 66	 add	 eax, 102		; 00000066H
  008bd	50		 push	 eax
  008be	68 00 00 00 00	 push	 OFFSET ??_C@_0ED@PAFNPDBA@c?3?2users?2nhv90?2projects?2eech?2ap@
  008c3	8b 0d 00 00 00
	00		 mov	 ecx, DWORD PTR ?null_entity_pointer_message@@3PBDB ; null_entity_pointer_message
  008c9	51		 push	 ecx
  008ca	e8 00 00 00 00	 call	 ?process_assert@@YGXPBD0H@Z ; process_assert
  008cf	c7 85 90 fe ff
	ff 00 00 00 00	 mov	 DWORD PTR tv422[ebp], 0
$LN85@create_rea:
  008d9	ba 01 00 00 00	 mov	 edx, 1
  008de	85 d2		 test	 edx, edx
  008e0	74 0c		 je	 SHORT $LN86@create_rea
  008e2	c7 85 8c fe ff
	ff 07 00 00 00	 mov	 DWORD PTR tv430[ebp], 7
  008ec	eb 24		 jmp	 SHORT $LN87@create_rea
$LN86@create_rea:
  008ee	a1 00 00 00 00	 mov	 eax, DWORD PTR ?__LINE__Var@?0??create_reaction_to_recon_task_completed@@YGXPAUENTITY@@@Z@4JA
  008f3	83 c0 66	 add	 eax, 102		; 00000066H
  008f6	50		 push	 eax
  008f7	68 00 00 00 00	 push	 OFFSET ??_C@_0ED@PAFNPDBA@c?3?2users?2nhv90?2projects?2eech?2ap@
  008fc	8b 0d 00 00 00
	00		 mov	 ecx, DWORD PTR ?overload_invalid_string_type_message@@3PBDB ; overload_invalid_string_type_message
  00902	51		 push	 ecx
  00903	e8 00 00 00 00	 call	 ?process_assert@@YGXPBD0H@Z ; process_assert
  00908	c7 85 8c fe ff
	ff 00 00 00 00	 mov	 DWORD PTR tv430[ebp], 0
$LN87@create_rea:
  00912	83 7d f8 00	 cmp	 DWORD PTR _new_task$[ebp], 0
  00916	74 14		 je	 SHORT $LN88@create_rea
  00918	8b 55 f8	 mov	 edx, DWORD PTR _new_task$[ebp]
  0091b	2b 15 00 00 00
	00		 sub	 edx, DWORD PTR ?entities@@3PAUENTITY@@A ; entities
  00921	c1 fa 04	 sar	 edx, 4
  00924	89 95 88 fe ff
	ff		 mov	 DWORD PTR tv440[ebp], edx
  0092a	eb 0a		 jmp	 SHORT $LN89@create_rea
$LN88@create_rea:
  0092c	c7 85 88 fe ff
	ff ff ff ff ff	 mov	 DWORD PTR tv440[ebp], -1
$LN89@create_rea:
  00936	6a 03		 push	 3
  00938	8b 45 08	 mov	 eax, DWORD PTR _task$[ebp]
  0093b	50		 push	 eax
  0093c	6b 8d 98 fe ff
	ff 34		 imul	 ecx, DWORD PTR tv399[ebp], 52
  00943	8b 95 94 fe ff
	ff		 mov	 edx, DWORD PTR tv407[ebp]
  00949	8b 84 91 00 00
	00 00		 mov	 eax, DWORD PTR ?fn_get_local_entity_string@@3PAY0N@P6GPBDPAUENTITY@@W4STRING_TYPES@@@ZA[ecx+edx*4]
  00950	ff d0		 call	 eax
  00952	50		 push	 eax
  00953	f3 0f 5a 85 e4
	fe ff ff	 cvtss2sd xmm0, DWORD PTR _efficiency$3[ebp]
  0095b	83 ec 08	 sub	 esp, 8
  0095e	f2 0f 11 04 24	 movsd	 QWORD PTR [esp], xmm0
  00963	6a 07		 push	 7
  00965	8b 4d f4	 mov	 ecx, DWORD PTR _objective$[ebp]
  00968	51		 push	 ecx
  00969	6b 95 90 fe ff
	ff 34		 imul	 edx, DWORD PTR tv422[ebp], 52
  00970	8b 85 8c fe ff
	ff		 mov	 eax, DWORD PTR tv430[ebp]
  00976	8b 8c 82 00 00
	00 00		 mov	 ecx, DWORD PTR ?fn_get_local_entity_string@@3PAY0N@P6GPBDPAUENTITY@@W4STRING_TYPES@@@ZA[edx+eax*4]
  0097d	ff d1		 call	 ecx
  0097f	50		 push	 eax
  00980	8b 95 88 fe ff
	ff		 mov	 edx, DWORD PTR tv440[ebp]
  00986	52		 push	 edx
  00987	8b 45 f0	 mov	 eax, DWORD PTR _task_side$[ebp]
  0098a	8b 0c 85 00 00
	00 00		 mov	 ecx, DWORD PTR ?entity_side_short_names@@3PAPBDA[eax*4]
  00991	51		 push	 ecx
  00992	68 00 00 00 00	 push	 OFFSET ??_C@_0FC@IGKCOALE@?$CITASK?$CJ?5Side?5?$CFs?5?3?5Created?5TROOP?5@
  00997	e8 00 00 00 00	 call	 ?ai_log@@YAXPBDZZ	; ai_log
  0099c	83 c4 1c	 add	 esp, 28			; 0000001cH
$LN16@create_rea:

; 415  : 										entity_side_short_names [task_side],
; 416  : 										get_local_entity_safe_index (new_task),
; 417  : 										get_local_entity_string (objective, STRING_TYPE_KEYSITE_NAME),
; 418  : 										efficiency,
; 419  : 										get_local_entity_string (task, STRING_TYPE_FULL_NAME));
; 420  : 						}
; 421  : 					}
; 422  : 				}
; 423  : 	
; 424  : 				if (keysite_database [sub_type].oca_target)

  0099f	6b 45 ec 44	 imul	 eax, DWORD PTR _sub_type$[ebp], 68
  009a3	8b 88 40 00 00
	00		 mov	 ecx, DWORD PTR ?keysite_database@@3PAUKEYSITE_DATA@@A[eax+64]
  009a9	c1 e9 08	 shr	 ecx, 8
  009ac	83 e1 01	 and	 ecx, 1
  009af	0f 84 72 03 00
	00		 je	 $LN19@create_rea

; 425  : 				{
; 426  : 					if (!entity_is_object_of_task (objective, ENTITY_SUB_TYPE_TASK_OCA_STRIKE, task_side))

  009b5	8b 45 f0	 mov	 eax, DWORD PTR _task_side$[ebp]
  009b8	50		 push	 eax
  009b9	6a 0f		 push	 15			; 0000000fH
  009bb	8b 4d f4	 mov	 ecx, DWORD PTR _objective$[ebp]
  009be	51		 push	 ecx
  009bf	e8 00 00 00 00	 call	 ?entity_is_object_of_task@@YGHPAUENTITY@@HW4ENTITY_SIDES@@@Z ; entity_is_object_of_task
  009c4	85 c0		 test	 eax, eax
  009c6	0f 85 9d 01 00
	00		 jne	 $LN18@create_rea

; 427  : 					{
; 428  : 						new_task = create_oca_strike_task (task_side, objective, task, TRUE, task_database [ENTITY_SUB_TYPE_TASK_OCA_STRIKE].task_priority, NULL, NULL);

  009cc	6a 00		 push	 0
  009ce	6a 00		 push	 0
  009d0	b8 50 00 00 00	 mov	 eax, 80			; 00000050H
  009d5	6b c8 0f	 imul	 ecx, eax, 15
  009d8	51		 push	 ecx
  009d9	f3 0f 10 81 10
	00 00 00	 movss	 xmm0, DWORD PTR ?task_database@@3PAUTASK_DATA@@A[ecx+16]
  009e1	f3 0f 11 04 24	 movss	 DWORD PTR [esp], xmm0
  009e6	6a 01		 push	 1
  009e8	8b 55 08	 mov	 edx, DWORD PTR _task$[ebp]
  009eb	52		 push	 edx
  009ec	8b 45 f4	 mov	 eax, DWORD PTR _objective$[ebp]
  009ef	50		 push	 eax
  009f0	8b 4d f0	 mov	 ecx, DWORD PTR _task_side$[ebp]
  009f3	51		 push	 ecx
  009f4	e8 00 00 00 00	 call	 ?create_oca_strike_task@@YGPAUENTITY@@W4ENTITY_SIDES@@PAU1@1HM11@Z ; create_oca_strike_task
  009f9	89 45 f8	 mov	 DWORD PTR _new_task$[ebp], eax

; 429  : 
; 430  : 						ai_log ("(TASK) Side %s : Created OCA STRIKE (%d) at %s (eff. %.3f) in reaction to %s",

  009fc	83 7d 08 00	 cmp	 DWORD PTR _task$[ebp], 0
  00a00	74 0d		 je	 SHORT $LN90@create_rea
  00a02	8b 45 08	 mov	 eax, DWORD PTR _task$[ebp]
  00a05	8b 08		 mov	 ecx, DWORD PTR [eax]
  00a07	89 8d 98 fe ff
	ff		 mov	 DWORD PTR tv474[ebp], ecx
  00a0d	eb 24		 jmp	 SHORT $LN91@create_rea
$LN90@create_rea:
  00a0f	8b 15 00 00 00
	00		 mov	 edx, DWORD PTR ?__LINE__Var@?0??create_reaction_to_recon_task_completed@@YGXPAUENTITY@@@Z@4JA
  00a15	83 c2 78	 add	 edx, 120		; 00000078H
  00a18	52		 push	 edx
  00a19	68 00 00 00 00	 push	 OFFSET ??_C@_0ED@PAFNPDBA@c?3?2users?2nhv90?2projects?2eech?2ap@
  00a1e	a1 00 00 00 00	 mov	 eax, DWORD PTR ?null_entity_pointer_message@@3PBDB ; null_entity_pointer_message
  00a23	50		 push	 eax
  00a24	e8 00 00 00 00	 call	 ?process_assert@@YGXPBD0H@Z ; process_assert
  00a29	c7 85 98 fe ff
	ff 00 00 00 00	 mov	 DWORD PTR tv474[ebp], 0
$LN91@create_rea:
  00a33	b9 01 00 00 00	 mov	 ecx, 1
  00a38	85 c9		 test	 ecx, ecx
  00a3a	74 0c		 je	 SHORT $LN92@create_rea
  00a3c	c7 85 94 fe ff
	ff 03 00 00 00	 mov	 DWORD PTR tv482[ebp], 3
  00a46	eb 24		 jmp	 SHORT $LN93@create_rea
$LN92@create_rea:
  00a48	8b 15 00 00 00
	00		 mov	 edx, DWORD PTR ?__LINE__Var@?0??create_reaction_to_recon_task_completed@@YGXPAUENTITY@@@Z@4JA
  00a4e	83 c2 78	 add	 edx, 120		; 00000078H
  00a51	52		 push	 edx
  00a52	68 00 00 00 00	 push	 OFFSET ??_C@_0ED@PAFNPDBA@c?3?2users?2nhv90?2projects?2eech?2ap@
  00a57	a1 00 00 00 00	 mov	 eax, DWORD PTR ?overload_invalid_string_type_message@@3PBDB ; overload_invalid_string_type_message
  00a5c	50		 push	 eax
  00a5d	e8 00 00 00 00	 call	 ?process_assert@@YGXPBD0H@Z ; process_assert
  00a62	c7 85 94 fe ff
	ff 00 00 00 00	 mov	 DWORD PTR tv482[ebp], 0
$LN93@create_rea:
  00a6c	83 7d f4 00	 cmp	 DWORD PTR _objective$[ebp], 0
  00a70	74 0d		 je	 SHORT $LN94@create_rea
  00a72	8b 4d f4	 mov	 ecx, DWORD PTR _objective$[ebp]
  00a75	8b 11		 mov	 edx, DWORD PTR [ecx]
  00a77	89 95 90 fe ff
	ff		 mov	 DWORD PTR tv497[ebp], edx
  00a7d	eb 24		 jmp	 SHORT $LN95@create_rea
$LN94@create_rea:
  00a7f	a1 00 00 00 00	 mov	 eax, DWORD PTR ?__LINE__Var@?0??create_reaction_to_recon_task_completed@@YGXPAUENTITY@@@Z@4JA
  00a84	83 c0 76	 add	 eax, 118		; 00000076H
  00a87	50		 push	 eax
  00a88	68 00 00 00 00	 push	 OFFSET ??_C@_0ED@PAFNPDBA@c?3?2users?2nhv90?2projects?2eech?2ap@
  00a8d	8b 0d 00 00 00
	00		 mov	 ecx, DWORD PTR ?null_entity_pointer_message@@3PBDB ; null_entity_pointer_message
  00a93	51		 push	 ecx
  00a94	e8 00 00 00 00	 call	 ?process_assert@@YGXPBD0H@Z ; process_assert
  00a99	c7 85 90 fe ff
	ff 00 00 00 00	 mov	 DWORD PTR tv497[ebp], 0
$LN95@create_rea:
  00aa3	ba 01 00 00 00	 mov	 edx, 1
  00aa8	85 d2		 test	 edx, edx
  00aaa	74 0c		 je	 SHORT $LN96@create_rea
  00aac	c7 85 8c fe ff
	ff 07 00 00 00	 mov	 DWORD PTR tv505[ebp], 7
  00ab6	eb 24		 jmp	 SHORT $LN97@create_rea
$LN96@create_rea:
  00ab8	a1 00 00 00 00	 mov	 eax, DWORD PTR ?__LINE__Var@?0??create_reaction_to_recon_task_completed@@YGXPAUENTITY@@@Z@4JA
  00abd	83 c0 76	 add	 eax, 118		; 00000076H
  00ac0	50		 push	 eax
  00ac1	68 00 00 00 00	 push	 OFFSET ??_C@_0ED@PAFNPDBA@c?3?2users?2nhv90?2projects?2eech?2ap@
  00ac6	8b 0d 00 00 00
	00		 mov	 ecx, DWORD PTR ?overload_invalid_string_type_message@@3PBDB ; overload_invalid_string_type_message
  00acc	51		 push	 ecx
  00acd	e8 00 00 00 00	 call	 ?process_assert@@YGXPBD0H@Z ; process_assert
  00ad2	c7 85 8c fe ff
	ff 00 00 00 00	 mov	 DWORD PTR tv505[ebp], 0
$LN97@create_rea:
  00adc	83 7d f8 00	 cmp	 DWORD PTR _new_task$[ebp], 0
  00ae0	74 14		 je	 SHORT $LN98@create_rea
  00ae2	8b 55 f8	 mov	 edx, DWORD PTR _new_task$[ebp]
  00ae5	2b 15 00 00 00
	00		 sub	 edx, DWORD PTR ?entities@@3PAUENTITY@@A ; entities
  00aeb	c1 fa 04	 sar	 edx, 4
  00aee	89 95 88 fe ff
	ff		 mov	 DWORD PTR tv515[ebp], edx
  00af4	eb 0a		 jmp	 SHORT $LN99@create_rea
$LN98@create_rea:
  00af6	c7 85 88 fe ff
	ff ff ff ff ff	 mov	 DWORD PTR tv515[ebp], -1
$LN99@create_rea:
  00b00	6a 03		 push	 3
  00b02	8b 45 08	 mov	 eax, DWORD PTR _task$[ebp]
  00b05	50		 push	 eax
  00b06	6b 8d 98 fe ff
	ff 34		 imul	 ecx, DWORD PTR tv474[ebp], 52
  00b0d	8b 95 94 fe ff
	ff		 mov	 edx, DWORD PTR tv482[ebp]
  00b13	8b 84 91 00 00
	00 00		 mov	 eax, DWORD PTR ?fn_get_local_entity_string@@3PAY0N@P6GPBDPAUENTITY@@W4STRING_TYPES@@@ZA[ecx+edx*4]
  00b1a	ff d0		 call	 eax
  00b1c	50		 push	 eax
  00b1d	f3 0f 5a 85 e4
	fe ff ff	 cvtss2sd xmm0, DWORD PTR _efficiency$3[ebp]
  00b25	83 ec 08	 sub	 esp, 8
  00b28	f2 0f 11 04 24	 movsd	 QWORD PTR [esp], xmm0
  00b2d	6a 07		 push	 7
  00b2f	8b 4d f4	 mov	 ecx, DWORD PTR _objective$[ebp]
  00b32	51		 push	 ecx
  00b33	6b 95 90 fe ff
	ff 34		 imul	 edx, DWORD PTR tv497[ebp], 52
  00b3a	8b 85 8c fe ff
	ff		 mov	 eax, DWORD PTR tv505[ebp]
  00b40	8b 8c 82 00 00
	00 00		 mov	 ecx, DWORD PTR ?fn_get_local_entity_string@@3PAY0N@P6GPBDPAUENTITY@@W4STRING_TYPES@@@ZA[edx+eax*4]
  00b47	ff d1		 call	 ecx
  00b49	50		 push	 eax
  00b4a	8b 95 88 fe ff
	ff		 mov	 edx, DWORD PTR tv515[ebp]
  00b50	52		 push	 edx
  00b51	8b 45 f0	 mov	 eax, DWORD PTR _task_side$[ebp]
  00b54	8b 0c 85 00 00
	00 00		 mov	 ecx, DWORD PTR ?entity_side_short_names@@3PAPBDA[eax*4]
  00b5b	51		 push	 ecx
  00b5c	68 00 00 00 00	 push	 OFFSET ??_C@_0EN@GANKIGPA@?$CITASK?$CJ?5Side?5?$CFs?5?3?5Created?5OCA?5ST@
  00b61	e8 00 00 00 00	 call	 ?ai_log@@YAXPBDZZ	; ai_log
  00b66	83 c4 1c	 add	 esp, 28			; 0000001cH
$LN18@create_rea:

; 431  : 										entity_side_short_names [task_side],
; 432  : 										get_local_entity_safe_index (new_task),
; 433  : 										get_local_entity_string (objective, STRING_TYPE_KEYSITE_NAME),
; 434  : 										efficiency,
; 435  : 										get_local_entity_string (task, STRING_TYPE_FULL_NAME));
; 436  : 					}
; 437  : 					
; 438  : 					if (!entity_is_object_of_task (objective, ENTITY_SUB_TYPE_TASK_OCA_SWEEP, task_side))

  00b69	8b 45 f0	 mov	 eax, DWORD PTR _task_side$[ebp]
  00b6c	50		 push	 eax
  00b6d	6a 10		 push	 16			; 00000010H
  00b6f	8b 4d f4	 mov	 ecx, DWORD PTR _objective$[ebp]
  00b72	51		 push	 ecx
  00b73	e8 00 00 00 00	 call	 ?entity_is_object_of_task@@YGHPAUENTITY@@HW4ENTITY_SIDES@@@Z ; entity_is_object_of_task
  00b78	85 c0		 test	 eax, eax
  00b7a	0f 85 a7 01 00
	00		 jne	 $LN19@create_rea

; 439  : 					{
; 440  : 						new_task = create_oca_sweep_task (task_side, objective, task, TRUE, task_database [ENTITY_SUB_TYPE_TASK_OCA_SWEEP].task_priority, NULL, NULL);

  00b80	6a 00		 push	 0
  00b82	6a 00		 push	 0
  00b84	b8 50 00 00 00	 mov	 eax, 80			; 00000050H
  00b89	c1 e0 04	 shl	 eax, 4
  00b8c	51		 push	 ecx
  00b8d	f3 0f 10 80 10
	00 00 00	 movss	 xmm0, DWORD PTR ?task_database@@3PAUTASK_DATA@@A[eax+16]
  00b95	f3 0f 11 04 24	 movss	 DWORD PTR [esp], xmm0
  00b9a	6a 01		 push	 1
  00b9c	8b 4d 08	 mov	 ecx, DWORD PTR _task$[ebp]
  00b9f	51		 push	 ecx
  00ba0	8b 55 f4	 mov	 edx, DWORD PTR _objective$[ebp]
  00ba3	52		 push	 edx
  00ba4	8b 45 f0	 mov	 eax, DWORD PTR _task_side$[ebp]
  00ba7	50		 push	 eax
  00ba8	e8 00 00 00 00	 call	 ?create_oca_sweep_task@@YGPAUENTITY@@W4ENTITY_SIDES@@PAU1@1HM11@Z ; create_oca_sweep_task
  00bad	89 45 f8	 mov	 DWORD PTR _new_task$[ebp], eax

; 441  : 		
; 442  : 						ai_log ("(TASK) Side %s : Created OCA SWEEP (%d) at %s (eff. %.3f) in reaction to %s",

  00bb0	83 7d 08 00	 cmp	 DWORD PTR _task$[ebp], 0
  00bb4	74 0d		 je	 SHORT $LN100@create_rea
  00bb6	8b 45 08	 mov	 eax, DWORD PTR _task$[ebp]
  00bb9	8b 08		 mov	 ecx, DWORD PTR [eax]
  00bbb	89 8d 98 fe ff
	ff		 mov	 DWORD PTR tv543[ebp], ecx
  00bc1	eb 27		 jmp	 SHORT $LN101@create_rea
$LN100@create_rea:
  00bc3	8b 15 00 00 00
	00		 mov	 edx, DWORD PTR ?__LINE__Var@?0??create_reaction_to_recon_task_completed@@YGXPAUENTITY@@@Z@4JA
  00bc9	81 c2 84 00 00
	00		 add	 edx, 132		; 00000084H
  00bcf	52		 push	 edx
  00bd0	68 00 00 00 00	 push	 OFFSET ??_C@_0ED@PAFNPDBA@c?3?2users?2nhv90?2projects?2eech?2ap@
  00bd5	a1 00 00 00 00	 mov	 eax, DWORD PTR ?null_entity_pointer_message@@3PBDB ; null_entity_pointer_message
  00bda	50		 push	 eax
  00bdb	e8 00 00 00 00	 call	 ?process_assert@@YGXPBD0H@Z ; process_assert
  00be0	c7 85 98 fe ff
	ff 00 00 00 00	 mov	 DWORD PTR tv543[ebp], 0
$LN101@create_rea:
  00bea	b9 01 00 00 00	 mov	 ecx, 1
  00bef	85 c9		 test	 ecx, ecx
  00bf1	74 0c		 je	 SHORT $LN102@create_rea
  00bf3	c7 85 94 fe ff
	ff 03 00 00 00	 mov	 DWORD PTR tv551[ebp], 3
  00bfd	eb 27		 jmp	 SHORT $LN103@create_rea
$LN102@create_rea:
  00bff	8b 15 00 00 00
	00		 mov	 edx, DWORD PTR ?__LINE__Var@?0??create_reaction_to_recon_task_completed@@YGXPAUENTITY@@@Z@4JA
  00c05	81 c2 84 00 00
	00		 add	 edx, 132		; 00000084H
  00c0b	52		 push	 edx
  00c0c	68 00 00 00 00	 push	 OFFSET ??_C@_0ED@PAFNPDBA@c?3?2users?2nhv90?2projects?2eech?2ap@
  00c11	a1 00 00 00 00	 mov	 eax, DWORD PTR ?overload_invalid_string_type_message@@3PBDB ; overload_invalid_string_type_message
  00c16	50		 push	 eax
  00c17	e8 00 00 00 00	 call	 ?process_assert@@YGXPBD0H@Z ; process_assert
  00c1c	c7 85 94 fe ff
	ff 00 00 00 00	 mov	 DWORD PTR tv551[ebp], 0
$LN103@create_rea:
  00c26	83 7d f4 00	 cmp	 DWORD PTR _objective$[ebp], 0
  00c2a	74 0d		 je	 SHORT $LN104@create_rea
  00c2c	8b 4d f4	 mov	 ecx, DWORD PTR _objective$[ebp]
  00c2f	8b 11		 mov	 edx, DWORD PTR [ecx]
  00c31	89 95 90 fe ff
	ff		 mov	 DWORD PTR tv566[ebp], edx
  00c37	eb 26		 jmp	 SHORT $LN105@create_rea
$LN104@create_rea:
  00c39	a1 00 00 00 00	 mov	 eax, DWORD PTR ?__LINE__Var@?0??create_reaction_to_recon_task_completed@@YGXPAUENTITY@@@Z@4JA
  00c3e	05 82 00 00 00	 add	 eax, 130		; 00000082H
  00c43	50		 push	 eax
  00c44	68 00 00 00 00	 push	 OFFSET ??_C@_0ED@PAFNPDBA@c?3?2users?2nhv90?2projects?2eech?2ap@
  00c49	8b 0d 00 00 00
	00		 mov	 ecx, DWORD PTR ?null_entity_pointer_message@@3PBDB ; null_entity_pointer_message
  00c4f	51		 push	 ecx
  00c50	e8 00 00 00 00	 call	 ?process_assert@@YGXPBD0H@Z ; process_assert
  00c55	c7 85 90 fe ff
	ff 00 00 00 00	 mov	 DWORD PTR tv566[ebp], 0
$LN105@create_rea:
  00c5f	ba 01 00 00 00	 mov	 edx, 1
  00c64	85 d2		 test	 edx, edx
  00c66	74 0c		 je	 SHORT $LN106@create_rea
  00c68	c7 85 8c fe ff
	ff 07 00 00 00	 mov	 DWORD PTR tv574[ebp], 7
  00c72	eb 26		 jmp	 SHORT $LN107@create_rea
$LN106@create_rea:
  00c74	a1 00 00 00 00	 mov	 eax, DWORD PTR ?__LINE__Var@?0??create_reaction_to_recon_task_completed@@YGXPAUENTITY@@@Z@4JA
  00c79	05 82 00 00 00	 add	 eax, 130		; 00000082H
  00c7e	50		 push	 eax
  00c7f	68 00 00 00 00	 push	 OFFSET ??_C@_0ED@PAFNPDBA@c?3?2users?2nhv90?2projects?2eech?2ap@
  00c84	8b 0d 00 00 00
	00		 mov	 ecx, DWORD PTR ?overload_invalid_string_type_message@@3PBDB ; overload_invalid_string_type_message
  00c8a	51		 push	 ecx
  00c8b	e8 00 00 00 00	 call	 ?process_assert@@YGXPBD0H@Z ; process_assert
  00c90	c7 85 8c fe ff
	ff 00 00 00 00	 mov	 DWORD PTR tv574[ebp], 0
$LN107@create_rea:
  00c9a	83 7d f8 00	 cmp	 DWORD PTR _new_task$[ebp], 0
  00c9e	74 14		 je	 SHORT $LN108@create_rea
  00ca0	8b 55 f8	 mov	 edx, DWORD PTR _new_task$[ebp]
  00ca3	2b 15 00 00 00
	00		 sub	 edx, DWORD PTR ?entities@@3PAUENTITY@@A ; entities
  00ca9	c1 fa 04	 sar	 edx, 4
  00cac	89 95 88 fe ff
	ff		 mov	 DWORD PTR tv584[ebp], edx
  00cb2	eb 0a		 jmp	 SHORT $LN109@create_rea
$LN108@create_rea:
  00cb4	c7 85 88 fe ff
	ff ff ff ff ff	 mov	 DWORD PTR tv584[ebp], -1
$LN109@create_rea:
  00cbe	6a 03		 push	 3
  00cc0	8b 45 08	 mov	 eax, DWORD PTR _task$[ebp]
  00cc3	50		 push	 eax
  00cc4	6b 8d 98 fe ff
	ff 34		 imul	 ecx, DWORD PTR tv543[ebp], 52
  00ccb	8b 95 94 fe ff
	ff		 mov	 edx, DWORD PTR tv551[ebp]
  00cd1	8b 84 91 00 00
	00 00		 mov	 eax, DWORD PTR ?fn_get_local_entity_string@@3PAY0N@P6GPBDPAUENTITY@@W4STRING_TYPES@@@ZA[ecx+edx*4]
  00cd8	ff d0		 call	 eax
  00cda	50		 push	 eax
  00cdb	f3 0f 5a 85 e4
	fe ff ff	 cvtss2sd xmm0, DWORD PTR _efficiency$3[ebp]
  00ce3	83 ec 08	 sub	 esp, 8
  00ce6	f2 0f 11 04 24	 movsd	 QWORD PTR [esp], xmm0
  00ceb	6a 07		 push	 7
  00ced	8b 4d f4	 mov	 ecx, DWORD PTR _objective$[ebp]
  00cf0	51		 push	 ecx
  00cf1	6b 95 90 fe ff
	ff 34		 imul	 edx, DWORD PTR tv566[ebp], 52
  00cf8	8b 85 8c fe ff
	ff		 mov	 eax, DWORD PTR tv574[ebp]
  00cfe	8b 8c 82 00 00
	00 00		 mov	 ecx, DWORD PTR ?fn_get_local_entity_string@@3PAY0N@P6GPBDPAUENTITY@@W4STRING_TYPES@@@ZA[edx+eax*4]
  00d05	ff d1		 call	 ecx
  00d07	50		 push	 eax
  00d08	8b 95 88 fe ff
	ff		 mov	 edx, DWORD PTR tv584[ebp]
  00d0e	52		 push	 edx
  00d0f	8b 45 f0	 mov	 eax, DWORD PTR _task_side$[ebp]
  00d12	8b 0c 85 00 00
	00 00		 mov	 ecx, DWORD PTR ?entity_side_short_names@@3PAPBDA[eax*4]
  00d19	51		 push	 ecx
  00d1a	68 00 00 00 00	 push	 OFFSET ??_C@_0EM@DNLNLGOL@?$CITASK?$CJ?5Side?5?$CFs?5?3?5Created?5OCA?5SW@
  00d1f	e8 00 00 00 00	 call	 ?ai_log@@YAXPBDZZ	; ai_log
  00d24	83 c4 1c	 add	 esp, 28			; 0000001cH
$LN19@create_rea:

; 443  : 											entity_side_short_names [task_side],
; 444  : 											get_local_entity_safe_index (new_task),
; 445  : 											get_local_entity_string (objective, STRING_TYPE_KEYSITE_NAME),
; 446  : 											efficiency,
; 447  : 											get_local_entity_string (task, STRING_TYPE_FULL_NAME));
; 448  : 					}
; 449  : 				}
; 450  : 	
; 451  : 				if (keysite_database [sub_type].ground_strike_target)

  00d27	6b 45 ec 44	 imul	 eax, DWORD PTR _sub_type$[ebp], 68
  00d2b	8b 88 40 00 00
	00		 mov	 ecx, DWORD PTR ?keysite_database@@3PAUKEYSITE_DATA@@A[eax+64]
  00d31	c1 e9 0a	 shr	 ecx, 10			; 0000000aH
  00d34	83 e1 01	 and	 ecx, 1
  00d37	0f 84 c0 01 00
	00		 je	 $LN21@create_rea

; 452  : 				{
; 453  : 					if (efficiency >= keysite_database [sub_type].minimum_efficiency)

  00d3d	6b 45 ec 44	 imul	 eax, DWORD PTR _sub_type$[ebp], 68
  00d41	f3 0f 10 85 e4
	fe ff ff	 movss	 xmm0, DWORD PTR _efficiency$3[ebp]
  00d49	0f 2f 80 1c 00
	00 00		 comiss	 xmm0, DWORD PTR ?keysite_database@@3PAUKEYSITE_DATA@@A[eax+28]
  00d50	0f 82 a7 01 00
	00		 jb	 $LN21@create_rea

; 454  : 					{
; 455  : 						new_task = create_ground_strike_task (task_side, objective, task, TRUE, task_database [ENTITY_SUB_TYPE_TASK_GROUND_STRIKE].task_priority, NULL, NULL);

  00d56	6a 00		 push	 0
  00d58	6a 00		 push	 0
  00d5a	b8 50 00 00 00	 mov	 eax, 80			; 00000050H
  00d5f	6b c8 0c	 imul	 ecx, eax, 12
  00d62	51		 push	 ecx
  00d63	f3 0f 10 81 10
	00 00 00	 movss	 xmm0, DWORD PTR ?task_database@@3PAUTASK_DATA@@A[ecx+16]
  00d6b	f3 0f 11 04 24	 movss	 DWORD PTR [esp], xmm0
  00d70	6a 01		 push	 1
  00d72	8b 55 08	 mov	 edx, DWORD PTR _task$[ebp]
  00d75	52		 push	 edx
  00d76	8b 45 f4	 mov	 eax, DWORD PTR _objective$[ebp]
  00d79	50		 push	 eax
  00d7a	8b 4d f0	 mov	 ecx, DWORD PTR _task_side$[ebp]
  00d7d	51		 push	 ecx
  00d7e	e8 00 00 00 00	 call	 ?create_ground_strike_task@@YGPAUENTITY@@W4ENTITY_SIDES@@PAU1@1HM11@Z ; create_ground_strike_task
  00d83	89 45 f8	 mov	 DWORD PTR _new_task$[ebp], eax

; 456  : 	
; 457  : 						ai_log ("(TASK) Side %s : Created STRIKE (%d) at %s (eff. %.3f) in reaction to %s",

  00d86	83 7d 08 00	 cmp	 DWORD PTR _task$[ebp], 0
  00d8a	74 0d		 je	 SHORT $LN110@create_rea
  00d8c	8b 45 08	 mov	 eax, DWORD PTR _task$[ebp]
  00d8f	8b 08		 mov	 ecx, DWORD PTR [eax]
  00d91	89 8d 98 fe ff
	ff		 mov	 DWORD PTR tv617[ebp], ecx
  00d97	eb 27		 jmp	 SHORT $LN111@create_rea
$LN110@create_rea:
  00d99	8b 15 00 00 00
	00		 mov	 edx, DWORD PTR ?__LINE__Var@?0??create_reaction_to_recon_task_completed@@YGXPAUENTITY@@@Z@4JA
  00d9f	81 c2 93 00 00
	00		 add	 edx, 147		; 00000093H
  00da5	52		 push	 edx
  00da6	68 00 00 00 00	 push	 OFFSET ??_C@_0ED@PAFNPDBA@c?3?2users?2nhv90?2projects?2eech?2ap@
  00dab	a1 00 00 00 00	 mov	 eax, DWORD PTR ?null_entity_pointer_message@@3PBDB ; null_entity_pointer_message
  00db0	50		 push	 eax
  00db1	e8 00 00 00 00	 call	 ?process_assert@@YGXPBD0H@Z ; process_assert
  00db6	c7 85 98 fe ff
	ff 00 00 00 00	 mov	 DWORD PTR tv617[ebp], 0
$LN111@create_rea:
  00dc0	b9 01 00 00 00	 mov	 ecx, 1
  00dc5	85 c9		 test	 ecx, ecx
  00dc7	74 0c		 je	 SHORT $LN112@create_rea
  00dc9	c7 85 94 fe ff
	ff 03 00 00 00	 mov	 DWORD PTR tv625[ebp], 3
  00dd3	eb 27		 jmp	 SHORT $LN113@create_rea
$LN112@create_rea:
  00dd5	8b 15 00 00 00
	00		 mov	 edx, DWORD PTR ?__LINE__Var@?0??create_reaction_to_recon_task_completed@@YGXPAUENTITY@@@Z@4JA
  00ddb	81 c2 93 00 00
	00		 add	 edx, 147		; 00000093H
  00de1	52		 push	 edx
  00de2	68 00 00 00 00	 push	 OFFSET ??_C@_0ED@PAFNPDBA@c?3?2users?2nhv90?2projects?2eech?2ap@
  00de7	a1 00 00 00 00	 mov	 eax, DWORD PTR ?overload_invalid_string_type_message@@3PBDB ; overload_invalid_string_type_message
  00dec	50		 push	 eax
  00ded	e8 00 00 00 00	 call	 ?process_assert@@YGXPBD0H@Z ; process_assert
  00df2	c7 85 94 fe ff
	ff 00 00 00 00	 mov	 DWORD PTR tv625[ebp], 0
$LN113@create_rea:
  00dfc	83 7d f4 00	 cmp	 DWORD PTR _objective$[ebp], 0
  00e00	74 0d		 je	 SHORT $LN114@create_rea
  00e02	8b 4d f4	 mov	 ecx, DWORD PTR _objective$[ebp]
  00e05	8b 11		 mov	 edx, DWORD PTR [ecx]
  00e07	89 95 90 fe ff
	ff		 mov	 DWORD PTR tv640[ebp], edx
  00e0d	eb 26		 jmp	 SHORT $LN115@create_rea
$LN114@create_rea:
  00e0f	a1 00 00 00 00	 mov	 eax, DWORD PTR ?__LINE__Var@?0??create_reaction_to_recon_task_completed@@YGXPAUENTITY@@@Z@4JA
  00e14	05 91 00 00 00	 add	 eax, 145		; 00000091H
  00e19	50		 push	 eax
  00e1a	68 00 00 00 00	 push	 OFFSET ??_C@_0ED@PAFNPDBA@c?3?2users?2nhv90?2projects?2eech?2ap@
  00e1f	8b 0d 00 00 00
	00		 mov	 ecx, DWORD PTR ?null_entity_pointer_message@@3PBDB ; null_entity_pointer_message
  00e25	51		 push	 ecx
  00e26	e8 00 00 00 00	 call	 ?process_assert@@YGXPBD0H@Z ; process_assert
  00e2b	c7 85 90 fe ff
	ff 00 00 00 00	 mov	 DWORD PTR tv640[ebp], 0
$LN115@create_rea:
  00e35	ba 01 00 00 00	 mov	 edx, 1
  00e3a	85 d2		 test	 edx, edx
  00e3c	74 0c		 je	 SHORT $LN116@create_rea
  00e3e	c7 85 8c fe ff
	ff 07 00 00 00	 mov	 DWORD PTR tv648[ebp], 7
  00e48	eb 26		 jmp	 SHORT $LN117@create_rea
$LN116@create_rea:
  00e4a	a1 00 00 00 00	 mov	 eax, DWORD PTR ?__LINE__Var@?0??create_reaction_to_recon_task_completed@@YGXPAUENTITY@@@Z@4JA
  00e4f	05 91 00 00 00	 add	 eax, 145		; 00000091H
  00e54	50		 push	 eax
  00e55	68 00 00 00 00	 push	 OFFSET ??_C@_0ED@PAFNPDBA@c?3?2users?2nhv90?2projects?2eech?2ap@
  00e5a	8b 0d 00 00 00
	00		 mov	 ecx, DWORD PTR ?overload_invalid_string_type_message@@3PBDB ; overload_invalid_string_type_message
  00e60	51		 push	 ecx
  00e61	e8 00 00 00 00	 call	 ?process_assert@@YGXPBD0H@Z ; process_assert
  00e66	c7 85 8c fe ff
	ff 00 00 00 00	 mov	 DWORD PTR tv648[ebp], 0
$LN117@create_rea:
  00e70	83 7d f8 00	 cmp	 DWORD PTR _new_task$[ebp], 0
  00e74	74 14		 je	 SHORT $LN118@create_rea
  00e76	8b 55 f8	 mov	 edx, DWORD PTR _new_task$[ebp]
  00e79	2b 15 00 00 00
	00		 sub	 edx, DWORD PTR ?entities@@3PAUENTITY@@A ; entities
  00e7f	c1 fa 04	 sar	 edx, 4
  00e82	89 95 88 fe ff
	ff		 mov	 DWORD PTR tv658[ebp], edx
  00e88	eb 0a		 jmp	 SHORT $LN119@create_rea
$LN118@create_rea:
  00e8a	c7 85 88 fe ff
	ff ff ff ff ff	 mov	 DWORD PTR tv658[ebp], -1
$LN119@create_rea:
  00e94	6a 03		 push	 3
  00e96	8b 45 08	 mov	 eax, DWORD PTR _task$[ebp]
  00e99	50		 push	 eax
  00e9a	6b 8d 98 fe ff
	ff 34		 imul	 ecx, DWORD PTR tv617[ebp], 52
  00ea1	8b 95 94 fe ff
	ff		 mov	 edx, DWORD PTR tv625[ebp]
  00ea7	8b 84 91 00 00
	00 00		 mov	 eax, DWORD PTR ?fn_get_local_entity_string@@3PAY0N@P6GPBDPAUENTITY@@W4STRING_TYPES@@@ZA[ecx+edx*4]
  00eae	ff d0		 call	 eax
  00eb0	50		 push	 eax
  00eb1	f3 0f 5a 85 e4
	fe ff ff	 cvtss2sd xmm0, DWORD PTR _efficiency$3[ebp]
  00eb9	83 ec 08	 sub	 esp, 8
  00ebc	f2 0f 11 04 24	 movsd	 QWORD PTR [esp], xmm0
  00ec1	6a 07		 push	 7
  00ec3	8b 4d f4	 mov	 ecx, DWORD PTR _objective$[ebp]
  00ec6	51		 push	 ecx
  00ec7	6b 95 90 fe ff
	ff 34		 imul	 edx, DWORD PTR tv640[ebp], 52
  00ece	8b 85 8c fe ff
	ff		 mov	 eax, DWORD PTR tv648[ebp]
  00ed4	8b 8c 82 00 00
	00 00		 mov	 ecx, DWORD PTR ?fn_get_local_entity_string@@3PAY0N@P6GPBDPAUENTITY@@W4STRING_TYPES@@@ZA[edx+eax*4]
  00edb	ff d1		 call	 ecx
  00edd	50		 push	 eax
  00ede	8b 95 88 fe ff
	ff		 mov	 edx, DWORD PTR tv658[ebp]
  00ee4	52		 push	 edx
  00ee5	8b 45 f0	 mov	 eax, DWORD PTR _task_side$[ebp]
  00ee8	8b 0c 85 00 00
	00 00		 mov	 ecx, DWORD PTR ?entity_side_short_names@@3PAPBDA[eax*4]
  00eef	51		 push	 ecx
  00ef0	68 00 00 00 00	 push	 OFFSET ??_C@_0EJ@JNDJIAKO@?$CITASK?$CJ?5Side?5?$CFs?5?3?5Created?5STRIKE@
  00ef5	e8 00 00 00 00	 call	 ?ai_log@@YAXPBDZZ	; ai_log
  00efa	83 c4 1c	 add	 esp, 28			; 0000001cH
$LN21@create_rea:

; 458  : 										entity_side_short_names [task_side],
; 459  : 										get_local_entity_safe_index (new_task),
; 460  : 										get_local_entity_string (objective, STRING_TYPE_KEYSITE_NAME),
; 461  : 										efficiency,
; 462  : 										get_local_entity_string (task, STRING_TYPE_FULL_NAME));
; 463  : 					}
; 464  : 				}
; 465  : 	
; 466  : 				if (keysite_database [sub_type].ship_strike_target)

  00efd	6b 45 ec 44	 imul	 eax, DWORD PTR _sub_type$[ebp], 68
  00f01	8b 88 40 00 00
	00		 mov	 ecx, DWORD PTR ?keysite_database@@3PAUKEYSITE_DATA@@A[eax+64]
  00f07	c1 e9 0b	 shr	 ecx, 11			; 0000000bH
  00f0a	83 e1 01	 and	 ecx, 1
  00f0d	0f 84 a6 01 00
	00		 je	 $LN22@create_rea

; 467  : 				{
; 468  : 					new_task = create_anti_ship_strike_task (task_side, objective, task, TRUE, task_database [ENTITY_SUB_TYPE_TASK_ANTI_SHIP_STRIKE].task_priority, NULL, NULL);

  00f13	6a 00		 push	 0
  00f15	6a 00		 push	 0
  00f17	b8 50 00 00 00	 mov	 eax, 80			; 00000050H
  00f1c	d1 e0		 shl	 eax, 1
  00f1e	51		 push	 ecx
  00f1f	f3 0f 10 80 10
	00 00 00	 movss	 xmm0, DWORD PTR ?task_database@@3PAUTASK_DATA@@A[eax+16]
  00f27	f3 0f 11 04 24	 movss	 DWORD PTR [esp], xmm0
  00f2c	6a 01		 push	 1
  00f2e	8b 4d 08	 mov	 ecx, DWORD PTR _task$[ebp]
  00f31	51		 push	 ecx
  00f32	8b 55 f4	 mov	 edx, DWORD PTR _objective$[ebp]
  00f35	52		 push	 edx
  00f36	8b 45 f0	 mov	 eax, DWORD PTR _task_side$[ebp]
  00f39	50		 push	 eax
  00f3a	e8 00 00 00 00	 call	 ?create_anti_ship_strike_task@@YGPAUENTITY@@W4ENTITY_SIDES@@PAU1@1HM11@Z ; create_anti_ship_strike_task
  00f3f	89 45 f8	 mov	 DWORD PTR _new_task$[ebp], eax

; 469  : 	
; 470  : 					ai_log ("(TASK) Side %s : Created ANTI-SHIP STRIKE (%d) at %s (eff. %.3f) in reaction to %s",

  00f42	83 7d 08 00	 cmp	 DWORD PTR _task$[ebp], 0
  00f46	74 0d		 je	 SHORT $LN120@create_rea
  00f48	8b 45 08	 mov	 eax, DWORD PTR _task$[ebp]
  00f4b	8b 08		 mov	 ecx, DWORD PTR [eax]
  00f4d	89 8d 98 fe ff
	ff		 mov	 DWORD PTR tv687[ebp], ecx
  00f53	eb 27		 jmp	 SHORT $LN121@create_rea
$LN120@create_rea:
  00f55	8b 15 00 00 00
	00		 mov	 edx, DWORD PTR ?__LINE__Var@?0??create_reaction_to_recon_task_completed@@YGXPAUENTITY@@@Z@4JA
  00f5b	81 c2 a0 00 00
	00		 add	 edx, 160		; 000000a0H
  00f61	52		 push	 edx
  00f62	68 00 00 00 00	 push	 OFFSET ??_C@_0ED@PAFNPDBA@c?3?2users?2nhv90?2projects?2eech?2ap@
  00f67	a1 00 00 00 00	 mov	 eax, DWORD PTR ?null_entity_pointer_message@@3PBDB ; null_entity_pointer_message
  00f6c	50		 push	 eax
  00f6d	e8 00 00 00 00	 call	 ?process_assert@@YGXPBD0H@Z ; process_assert
  00f72	c7 85 98 fe ff
	ff 00 00 00 00	 mov	 DWORD PTR tv687[ebp], 0
$LN121@create_rea:
  00f7c	b9 01 00 00 00	 mov	 ecx, 1
  00f81	85 c9		 test	 ecx, ecx
  00f83	74 0c		 je	 SHORT $LN122@create_rea
  00f85	c7 85 94 fe ff
	ff 03 00 00 00	 mov	 DWORD PTR tv695[ebp], 3
  00f8f	eb 27		 jmp	 SHORT $LN123@create_rea
$LN122@create_rea:
  00f91	8b 15 00 00 00
	00		 mov	 edx, DWORD PTR ?__LINE__Var@?0??create_reaction_to_recon_task_completed@@YGXPAUENTITY@@@Z@4JA
  00f97	81 c2 a0 00 00
	00		 add	 edx, 160		; 000000a0H
  00f9d	52		 push	 edx
  00f9e	68 00 00 00 00	 push	 OFFSET ??_C@_0ED@PAFNPDBA@c?3?2users?2nhv90?2projects?2eech?2ap@
  00fa3	a1 00 00 00 00	 mov	 eax, DWORD PTR ?overload_invalid_string_type_message@@3PBDB ; overload_invalid_string_type_message
  00fa8	50		 push	 eax
  00fa9	e8 00 00 00 00	 call	 ?process_assert@@YGXPBD0H@Z ; process_assert
  00fae	c7 85 94 fe ff
	ff 00 00 00 00	 mov	 DWORD PTR tv695[ebp], 0
$LN123@create_rea:
  00fb8	83 7d f4 00	 cmp	 DWORD PTR _objective$[ebp], 0
  00fbc	74 0d		 je	 SHORT $LN124@create_rea
  00fbe	8b 4d f4	 mov	 ecx, DWORD PTR _objective$[ebp]
  00fc1	8b 11		 mov	 edx, DWORD PTR [ecx]
  00fc3	89 95 90 fe ff
	ff		 mov	 DWORD PTR tv710[ebp], edx
  00fc9	eb 26		 jmp	 SHORT $LN125@create_rea
$LN124@create_rea:
  00fcb	a1 00 00 00 00	 mov	 eax, DWORD PTR ?__LINE__Var@?0??create_reaction_to_recon_task_completed@@YGXPAUENTITY@@@Z@4JA
  00fd0	05 9e 00 00 00	 add	 eax, 158		; 0000009eH
  00fd5	50		 push	 eax
  00fd6	68 00 00 00 00	 push	 OFFSET ??_C@_0ED@PAFNPDBA@c?3?2users?2nhv90?2projects?2eech?2ap@
  00fdb	8b 0d 00 00 00
	00		 mov	 ecx, DWORD PTR ?null_entity_pointer_message@@3PBDB ; null_entity_pointer_message
  00fe1	51		 push	 ecx
  00fe2	e8 00 00 00 00	 call	 ?process_assert@@YGXPBD0H@Z ; process_assert
  00fe7	c7 85 90 fe ff
	ff 00 00 00 00	 mov	 DWORD PTR tv710[ebp], 0
$LN125@create_rea:
  00ff1	ba 01 00 00 00	 mov	 edx, 1
  00ff6	85 d2		 test	 edx, edx
  00ff8	74 0c		 je	 SHORT $LN126@create_rea
  00ffa	c7 85 8c fe ff
	ff 07 00 00 00	 mov	 DWORD PTR tv718[ebp], 7
  01004	eb 26		 jmp	 SHORT $LN127@create_rea
$LN126@create_rea:
  01006	a1 00 00 00 00	 mov	 eax, DWORD PTR ?__LINE__Var@?0??create_reaction_to_recon_task_completed@@YGXPAUENTITY@@@Z@4JA
  0100b	05 9e 00 00 00	 add	 eax, 158		; 0000009eH
  01010	50		 push	 eax
  01011	68 00 00 00 00	 push	 OFFSET ??_C@_0ED@PAFNPDBA@c?3?2users?2nhv90?2projects?2eech?2ap@
  01016	8b 0d 00 00 00
	00		 mov	 ecx, DWORD PTR ?overload_invalid_string_type_message@@3PBDB ; overload_invalid_string_type_message
  0101c	51		 push	 ecx
  0101d	e8 00 00 00 00	 call	 ?process_assert@@YGXPBD0H@Z ; process_assert
  01022	c7 85 8c fe ff
	ff 00 00 00 00	 mov	 DWORD PTR tv718[ebp], 0
$LN127@create_rea:
  0102c	83 7d f8 00	 cmp	 DWORD PTR _new_task$[ebp], 0
  01030	74 14		 je	 SHORT $LN128@create_rea
  01032	8b 55 f8	 mov	 edx, DWORD PTR _new_task$[ebp]
  01035	2b 15 00 00 00
	00		 sub	 edx, DWORD PTR ?entities@@3PAUENTITY@@A ; entities
  0103b	c1 fa 04	 sar	 edx, 4
  0103e	89 95 88 fe ff
	ff		 mov	 DWORD PTR tv728[ebp], edx
  01044	eb 0a		 jmp	 SHORT $LN129@create_rea
$LN128@create_rea:
  01046	c7 85 88 fe ff
	ff ff ff ff ff	 mov	 DWORD PTR tv728[ebp], -1
$LN129@create_rea:
  01050	6a 03		 push	 3
  01052	8b 45 08	 mov	 eax, DWORD PTR _task$[ebp]
  01055	50		 push	 eax
  01056	6b 8d 98 fe ff
	ff 34		 imul	 ecx, DWORD PTR tv687[ebp], 52
  0105d	8b 95 94 fe ff
	ff		 mov	 edx, DWORD PTR tv695[ebp]
  01063	8b 84 91 00 00
	00 00		 mov	 eax, DWORD PTR ?fn_get_local_entity_string@@3PAY0N@P6GPBDPAUENTITY@@W4STRING_TYPES@@@ZA[ecx+edx*4]
  0106a	ff d0		 call	 eax
  0106c	50		 push	 eax
  0106d	f3 0f 5a 85 e4
	fe ff ff	 cvtss2sd xmm0, DWORD PTR _efficiency$3[ebp]
  01075	83 ec 08	 sub	 esp, 8
  01078	f2 0f 11 04 24	 movsd	 QWORD PTR [esp], xmm0
  0107d	6a 07		 push	 7
  0107f	8b 4d f4	 mov	 ecx, DWORD PTR _objective$[ebp]
  01082	51		 push	 ecx
  01083	6b 95 90 fe ff
	ff 34		 imul	 edx, DWORD PTR tv710[ebp], 52
  0108a	8b 85 8c fe ff
	ff		 mov	 eax, DWORD PTR tv718[ebp]
  01090	8b 8c 82 00 00
	00 00		 mov	 ecx, DWORD PTR ?fn_get_local_entity_string@@3PAY0N@P6GPBDPAUENTITY@@W4STRING_TYPES@@@ZA[edx+eax*4]
  01097	ff d1		 call	 ecx
  01099	50		 push	 eax
  0109a	8b 95 88 fe ff
	ff		 mov	 edx, DWORD PTR tv728[ebp]
  010a0	52		 push	 edx
  010a1	8b 45 f0	 mov	 eax, DWORD PTR _task_side$[ebp]
  010a4	8b 0c 85 00 00
	00 00		 mov	 ecx, DWORD PTR ?entity_side_short_names@@3PAPBDA[eax*4]
  010ab	51		 push	 ecx
  010ac	68 00 00 00 00	 push	 OFFSET ??_C@_0FD@JBAPAIII@?$CITASK?$CJ?5Side?5?$CFs?5?3?5Created?5ANTI?9S@
  010b1	e8 00 00 00 00	 call	 ?ai_log@@YAXPBDZZ	; ai_log
  010b6	83 c4 1c	 add	 esp, 28			; 0000001cH
$LN22@create_rea:

; 471  : 										entity_side_short_names [task_side],
; 472  : 										get_local_entity_safe_index (new_task),
; 473  : 										get_local_entity_string (objective, STRING_TYPE_KEYSITE_NAME),
; 474  : 										efficiency,
; 475  : 										get_local_entity_string (task, STRING_TYPE_FULL_NAME));
; 476  : 				}
; 477  : 			}
; 478  : 			else

  010b9	e9 64 01 00 00	 jmp	 $LN13@create_rea
$LN12@create_rea:

; 479  : 			{
; 480  : 				sprintf (s, "%s %s %s",

  010be	83 7d f4 00	 cmp	 DWORD PTR _objective$[ebp], 0
  010c2	74 0d		 je	 SHORT $LN130@create_rea
  010c4	8b 45 f4	 mov	 eax, DWORD PTR _objective$[ebp]
  010c7	8b 08		 mov	 ecx, DWORD PTR [eax]
  010c9	89 8d 98 fe ff
	ff		 mov	 DWORD PTR tv776[ebp], ecx
  010cf	eb 27		 jmp	 SHORT $LN131@create_rea
$LN130@create_rea:
  010d1	8b 15 00 00 00
	00		 mov	 edx, DWORD PTR ?__LINE__Var@?0??create_reaction_to_recon_task_completed@@YGXPAUENTITY@@@Z@4JA
  010d7	81 c2 a8 00 00
	00		 add	 edx, 168		; 000000a8H
  010dd	52		 push	 edx
  010de	68 00 00 00 00	 push	 OFFSET ??_C@_0ED@PAFNPDBA@c?3?2users?2nhv90?2projects?2eech?2ap@
  010e3	a1 00 00 00 00	 mov	 eax, DWORD PTR ?null_entity_pointer_message@@3PBDB ; null_entity_pointer_message
  010e8	50		 push	 eax
  010e9	e8 00 00 00 00	 call	 ?process_assert@@YGXPBD0H@Z ; process_assert
  010ee	c7 85 98 fe ff
	ff 00 00 00 00	 mov	 DWORD PTR tv776[ebp], 0
$LN131@create_rea:
  010f8	b9 01 00 00 00	 mov	 ecx, 1
  010fd	85 c9		 test	 ecx, ecx
  010ff	74 0c		 je	 SHORT $LN132@create_rea
  01101	c7 85 94 fe ff
	ff 03 00 00 00	 mov	 DWORD PTR tv784[ebp], 3
  0110b	eb 27		 jmp	 SHORT $LN133@create_rea
$LN132@create_rea:
  0110d	8b 15 00 00 00
	00		 mov	 edx, DWORD PTR ?__LINE__Var@?0??create_reaction_to_recon_task_completed@@YGXPAUENTITY@@@Z@4JA
  01113	81 c2 a8 00 00
	00		 add	 edx, 168		; 000000a8H
  01119	52		 push	 edx
  0111a	68 00 00 00 00	 push	 OFFSET ??_C@_0ED@PAFNPDBA@c?3?2users?2nhv90?2projects?2eech?2ap@
  0111f	a1 00 00 00 00	 mov	 eax, DWORD PTR ?overload_invalid_string_type_message@@3PBDB ; overload_invalid_string_type_message
  01124	50		 push	 eax
  01125	e8 00 00 00 00	 call	 ?process_assert@@YGXPBD0H@Z ; process_assert
  0112a	c7 85 94 fe ff
	ff 00 00 00 00	 mov	 DWORD PTR tv784[ebp], 0
$LN133@create_rea:
  01134	83 7d 08 00	 cmp	 DWORD PTR _task$[ebp], 0
  01138	74 0d		 je	 SHORT $LN134@create_rea
  0113a	8b 4d 08	 mov	 ecx, DWORD PTR _task$[ebp]
  0113d	8b 11		 mov	 edx, DWORD PTR [ecx]
  0113f	89 95 90 fe ff
	ff		 mov	 DWORD PTR tv800[ebp], edx
  01145	eb 26		 jmp	 SHORT $LN135@create_rea
$LN134@create_rea:
  01147	a1 00 00 00 00	 mov	 eax, DWORD PTR ?__LINE__Var@?0??create_reaction_to_recon_task_completed@@YGXPAUENTITY@@@Z@4JA
  0114c	05 a6 00 00 00	 add	 eax, 166		; 000000a6H
  01151	50		 push	 eax
  01152	68 00 00 00 00	 push	 OFFSET ??_C@_0ED@PAFNPDBA@c?3?2users?2nhv90?2projects?2eech?2ap@
  01157	8b 0d 00 00 00
	00		 mov	 ecx, DWORD PTR ?null_entity_pointer_message@@3PBDB ; null_entity_pointer_message
  0115d	51		 push	 ecx
  0115e	e8 00 00 00 00	 call	 ?process_assert@@YGXPBD0H@Z ; process_assert
  01163	c7 85 90 fe ff
	ff 00 00 00 00	 mov	 DWORD PTR tv800[ebp], 0
$LN135@create_rea:
  0116d	ba 01 00 00 00	 mov	 edx, 1
  01172	85 d2		 test	 edx, edx
  01174	74 0c		 je	 SHORT $LN136@create_rea
  01176	c7 85 8c fe ff
	ff 03 00 00 00	 mov	 DWORD PTR tv808[ebp], 3
  01180	eb 26		 jmp	 SHORT $LN137@create_rea
$LN136@create_rea:
  01182	a1 00 00 00 00	 mov	 eax, DWORD PTR ?__LINE__Var@?0??create_reaction_to_recon_task_completed@@YGXPAUENTITY@@@Z@4JA
  01187	05 a6 00 00 00	 add	 eax, 166		; 000000a6H
  0118c	50		 push	 eax
  0118d	68 00 00 00 00	 push	 OFFSET ??_C@_0ED@PAFNPDBA@c?3?2users?2nhv90?2projects?2eech?2ap@
  01192	8b 0d 00 00 00
	00		 mov	 ecx, DWORD PTR ?overload_invalid_string_type_message@@3PBDB ; overload_invalid_string_type_message
  01198	51		 push	 ecx
  01199	e8 00 00 00 00	 call	 ?process_assert@@YGXPBD0H@Z ; process_assert
  0119e	c7 85 8c fe ff
	ff 00 00 00 00	 mov	 DWORD PTR tv808[ebp], 0
$LN137@create_rea:
  011a8	68 00 00 00 00	 push	 OFFSET ??_C@_0BD@CJIFGLCK@has?5been?5destroyed@
  011ad	e8 00 00 00 00	 call	 ?get_trans@@YGPBDPBD@Z	; get_trans
  011b2	50		 push	 eax
  011b3	6a 03		 push	 3
  011b5	8b 55 f4	 mov	 edx, DWORD PTR _objective$[ebp]
  011b8	52		 push	 edx
  011b9	6b 85 98 fe ff
	ff 34		 imul	 eax, DWORD PTR tv776[ebp], 52
  011c0	8b 8d 94 fe ff
	ff		 mov	 ecx, DWORD PTR tv784[ebp]
  011c6	8b 94 88 00 00
	00 00		 mov	 edx, DWORD PTR ?fn_get_local_entity_string@@3PAY0N@P6GPBDPAUENTITY@@W4STRING_TYPES@@@ZA[eax+ecx*4]
  011cd	ff d2		 call	 edx
  011cf	50		 push	 eax
  011d0	68 00 00 00 00	 push	 OFFSET ??_C@_08BCAGGEAL@revealed@
  011d5	e8 00 00 00 00	 call	 ?get_trans@@YGPBDPBD@Z	; get_trans
  011da	50		 push	 eax
  011db	6a 03		 push	 3
  011dd	8b 45 08	 mov	 eax, DWORD PTR _task$[ebp]
  011e0	50		 push	 eax
  011e1	6b 8d 90 fe ff
	ff 34		 imul	 ecx, DWORD PTR tv800[ebp], 52
  011e8	8b 95 8c fe ff
	ff		 mov	 edx, DWORD PTR tv808[ebp]
  011ee	8b 84 91 00 00
	00 00		 mov	 eax, DWORD PTR ?fn_get_local_entity_string@@3PAY0N@P6GPBDPAUENTITY@@W4STRING_TYPES@@@ZA[ecx+edx*4]
  011f5	ff d0		 call	 eax
  011f7	50		 push	 eax
  011f8	68 00 00 00 00	 push	 OFFSET ??_C@_08EPEHIMMI@?$CFs?5?$CFs?5?$CFs@
  011fd	8d 8d e8 fe ff
	ff		 lea	 ecx, DWORD PTR _s$[ebp]
  01203	51		 push	 ecx
  01204	e8 00 00 00 00	 call	 _sprintf
  01209	83 c4 18	 add	 esp, 24			; 00000018H

; 481  : 										get_local_entity_string (task, STRING_TYPE_FULL_NAME),
; 482  : 										get_trans ("revealed"),
; 483  : 										get_local_entity_string (objective, STRING_TYPE_FULL_NAME),
; 484  : 										get_trans ("has been destroyed"));
; 485  : 
; 486  : 				send_text_message (objective, force, MESSAGE_TEXT_SYSTEM_RECON_DATA, s);

  0120c	8d 85 e8 fe ff
	ff		 lea	 eax, DWORD PTR _s$[ebp]
  01212	50		 push	 eax
  01213	6a 03		 push	 3
  01215	8b 4d fc	 mov	 ecx, DWORD PTR _force$[ebp]
  01218	51		 push	 ecx
  01219	8b 55 f4	 mov	 edx, DWORD PTR _objective$[ebp]
  0121c	52		 push	 edx
  0121d	e8 00 00 00 00	 call	 ?send_text_message@@YGXPAUENTITY@@0W4MESSAGE_TEXT_TYPES@@PBD@Z ; send_text_message
$LN13@create_rea:

; 487  : 			}
; 488  : 
; 489  : 			break;

  01222	e9 d5 07 00 00	 jmp	 $LN2@create_rea
$LN23@create_rea:

; 490  : 		}
; 491  : 
; 492  : 		case ENTITY_TYPE_GROUP:
; 493  : 		{
; 494  : 			if (sub_type == ENTITY_SUB_TYPE_GROUP_ANTI_AIRCRAFT)

  01227	83 7d ec 0e	 cmp	 DWORD PTR _sub_type$[ebp], 14 ; 0000000eH
  0122b	0f 85 97 04 00
	00		 jne	 $LN24@create_rea

; 495  : 			{
; 496  : 				//
; 497  : 				// CREATE SEAD
; 498  : 				//
; 499  : 				
; 500  : 				int
; 501  : 					member_count;
; 502  : 
; 503  : 				member_count = get_local_entity_int_value (objective, INT_TYPE_MEMBER_COUNT);

  01231	83 7d f4 00	 cmp	 DWORD PTR _objective$[ebp], 0
  01235	74 0d		 je	 SHORT $LN138@create_rea
  01237	8b 45 f4	 mov	 eax, DWORD PTR _objective$[ebp]
  0123a	8b 08		 mov	 ecx, DWORD PTR [eax]
  0123c	89 8d 98 fe ff
	ff		 mov	 DWORD PTR tv827[ebp], ecx
  01242	eb 27		 jmp	 SHORT $LN139@create_rea
$LN138@create_rea:
  01244	8b 15 00 00 00
	00		 mov	 edx, DWORD PTR ?__LINE__Var@?0??create_reaction_to_recon_task_completed@@YGXPAUENTITY@@@Z@4JA
  0124a	81 c2 bc 00 00
	00		 add	 edx, 188		; 000000bcH
  01250	52		 push	 edx
  01251	68 00 00 00 00	 push	 OFFSET ??_C@_0ED@PAFNPDBA@c?3?2users?2nhv90?2projects?2eech?2ap@
  01256	a1 00 00 00 00	 mov	 eax, DWORD PTR ?null_entity_pointer_message@@3PBDB ; null_entity_pointer_message
  0125b	50		 push	 eax
  0125c	e8 00 00 00 00	 call	 ?process_assert@@YGXPBD0H@Z ; process_assert
  01261	c7 85 98 fe ff
	ff 00 00 00 00	 mov	 DWORD PTR tv827[ebp], 0
$LN139@create_rea:
  0126b	b9 01 00 00 00	 mov	 ecx, 1
  01270	85 c9		 test	 ecx, ecx
  01272	74 0c		 je	 SHORT $LN140@create_rea
  01274	c7 85 94 fe ff
	ff 86 00 00 00	 mov	 DWORD PTR tv835[ebp], 134 ; 00000086H
  0127e	eb 27		 jmp	 SHORT $LN141@create_rea
$LN140@create_rea:
  01280	8b 15 00 00 00
	00		 mov	 edx, DWORD PTR ?__LINE__Var@?0??create_reaction_to_recon_task_completed@@YGXPAUENTITY@@@Z@4JA
  01286	81 c2 bc 00 00
	00		 add	 edx, 188		; 000000bcH
  0128c	52		 push	 edx
  0128d	68 00 00 00 00	 push	 OFFSET ??_C@_0ED@PAFNPDBA@c?3?2users?2nhv90?2projects?2eech?2ap@
  01292	a1 00 00 00 00	 mov	 eax, DWORD PTR ?overload_invalid_int_type_message@@3PBDB ; overload_invalid_int_type_message
  01297	50		 push	 eax
  01298	e8 00 00 00 00	 call	 ?process_assert@@YGXPBD0H@Z ; process_assert
  0129d	c7 85 94 fe ff
	ff 00 00 00 00	 mov	 DWORD PTR tv835[ebp], 0
$LN141@create_rea:
  012a7	68 86 00 00 00	 push	 134			; 00000086H
  012ac	8b 4d f4	 mov	 ecx, DWORD PTR _objective$[ebp]
  012af	51		 push	 ecx
  012b0	69 95 98 fe ff
	ff 5c 04 00 00	 imul	 edx, DWORD PTR tv827[ebp], 1116
  012ba	8b 85 94 fe ff
	ff		 mov	 eax, DWORD PTR tv835[ebp]
  012c0	8b 8c 82 00 00
	00 00		 mov	 ecx, DWORD PTR ?fn_get_local_entity_int_value@@3PAY0BBH@P6GHPAUENTITY@@W4INT_TYPES@@@ZA[edx+eax*4]
  012c7	ff d1		 call	 ecx
  012c9	89 85 e0 fe ff
	ff		 mov	 DWORD PTR _member_count$2[ebp], eax

; 504  : 
; 505  : 				if (member_count > 0)

  012cf	83 bd e0 fe ff
	ff 00		 cmp	 DWORD PTR _member_count$2[ebp], 0
  012d6	0f 8e e7 03 00
	00		 jle	 $LN26@create_rea

; 506  : 				{
; 507  : 					if (!entity_is_object_of_task (objective, ENTITY_SUB_TYPE_TASK_SEAD, task_side))

  012dc	8b 45 f0	 mov	 eax, DWORD PTR _task_side$[ebp]
  012df	50		 push	 eax
  012e0	6a 14		 push	 20			; 00000014H
  012e2	8b 4d f4	 mov	 ecx, DWORD PTR _objective$[ebp]
  012e5	51		 push	 ecx
  012e6	e8 00 00 00 00	 call	 ?entity_is_object_of_task@@YGHPAUENTITY@@HW4ENTITY_SIDES@@@Z ; entity_is_object_of_task
  012eb	85 c0		 test	 eax, eax
  012ed	0f 85 97 01 00
	00		 jne	 $LN27@create_rea

; 508  : 					{
; 509  : 						new_task = create_sead_task (task_side, objective, task, TRUE, task_database [ENTITY_SUB_TYPE_TASK_SEAD].task_priority, NULL, NULL);

  012f3	6a 00		 push	 0
  012f5	6a 00		 push	 0
  012f7	b8 50 00 00 00	 mov	 eax, 80			; 00000050H
  012fc	6b c8 14	 imul	 ecx, eax, 20
  012ff	51		 push	 ecx
  01300	f3 0f 10 81 10
	00 00 00	 movss	 xmm0, DWORD PTR ?task_database@@3PAUTASK_DATA@@A[ecx+16]
  01308	f3 0f 11 04 24	 movss	 DWORD PTR [esp], xmm0
  0130d	6a 01		 push	 1
  0130f	8b 55 08	 mov	 edx, DWORD PTR _task$[ebp]
  01312	52		 push	 edx
  01313	8b 45 f4	 mov	 eax, DWORD PTR _objective$[ebp]
  01316	50		 push	 eax
  01317	8b 4d f0	 mov	 ecx, DWORD PTR _task_side$[ebp]
  0131a	51		 push	 ecx
  0131b	e8 00 00 00 00	 call	 ?create_sead_task@@YGPAUENTITY@@W4ENTITY_SIDES@@PAU1@1HM11@Z ; create_sead_task
  01320	89 45 f8	 mov	 DWORD PTR _new_task$[ebp], eax

; 510  : 	
; 511  : 						ai_log ("(TASK) Side %s : Created SEAD (%d) to %s in reaction to %s",

  01323	83 7d 08 00	 cmp	 DWORD PTR _task$[ebp], 0
  01327	74 0d		 je	 SHORT $LN142@create_rea
  01329	8b 45 08	 mov	 eax, DWORD PTR _task$[ebp]
  0132c	8b 08		 mov	 ecx, DWORD PTR [eax]
  0132e	89 8d 98 fe ff
	ff		 mov	 DWORD PTR tv864[ebp], ecx
  01334	eb 27		 jmp	 SHORT $LN143@create_rea
$LN142@create_rea:
  01336	8b 15 00 00 00
	00		 mov	 edx, DWORD PTR ?__LINE__Var@?0??create_reaction_to_recon_task_completed@@YGXPAUENTITY@@@Z@4JA
  0133c	81 c2 c8 00 00
	00		 add	 edx, 200		; 000000c8H
  01342	52		 push	 edx
  01343	68 00 00 00 00	 push	 OFFSET ??_C@_0ED@PAFNPDBA@c?3?2users?2nhv90?2projects?2eech?2ap@
  01348	a1 00 00 00 00	 mov	 eax, DWORD PTR ?null_entity_pointer_message@@3PBDB ; null_entity_pointer_message
  0134d	50		 push	 eax
  0134e	e8 00 00 00 00	 call	 ?process_assert@@YGXPBD0H@Z ; process_assert
  01353	c7 85 98 fe ff
	ff 00 00 00 00	 mov	 DWORD PTR tv864[ebp], 0
$LN143@create_rea:
  0135d	b9 01 00 00 00	 mov	 ecx, 1
  01362	85 c9		 test	 ecx, ecx
  01364	74 0c		 je	 SHORT $LN144@create_rea
  01366	c7 85 94 fe ff
	ff 03 00 00 00	 mov	 DWORD PTR tv872[ebp], 3
  01370	eb 27		 jmp	 SHORT $LN145@create_rea
$LN144@create_rea:
  01372	8b 15 00 00 00
	00		 mov	 edx, DWORD PTR ?__LINE__Var@?0??create_reaction_to_recon_task_completed@@YGXPAUENTITY@@@Z@4JA
  01378	81 c2 c8 00 00
	00		 add	 edx, 200		; 000000c8H
  0137e	52		 push	 edx
  0137f	68 00 00 00 00	 push	 OFFSET ??_C@_0ED@PAFNPDBA@c?3?2users?2nhv90?2projects?2eech?2ap@
  01384	a1 00 00 00 00	 mov	 eax, DWORD PTR ?overload_invalid_string_type_message@@3PBDB ; overload_invalid_string_type_message
  01389	50		 push	 eax
  0138a	e8 00 00 00 00	 call	 ?process_assert@@YGXPBD0H@Z ; process_assert
  0138f	c7 85 94 fe ff
	ff 00 00 00 00	 mov	 DWORD PTR tv872[ebp], 0
$LN145@create_rea:
  01399	83 7d f4 00	 cmp	 DWORD PTR _objective$[ebp], 0
  0139d	74 0d		 je	 SHORT $LN146@create_rea
  0139f	8b 4d f4	 mov	 ecx, DWORD PTR _objective$[ebp]
  013a2	8b 11		 mov	 edx, DWORD PTR [ecx]
  013a4	89 95 90 fe ff
	ff		 mov	 DWORD PTR tv885[ebp], edx
  013aa	eb 26		 jmp	 SHORT $LN147@create_rea
$LN146@create_rea:
  013ac	a1 00 00 00 00	 mov	 eax, DWORD PTR ?__LINE__Var@?0??create_reaction_to_recon_task_completed@@YGXPAUENTITY@@@Z@4JA
  013b1	05 c7 00 00 00	 add	 eax, 199		; 000000c7H
  013b6	50		 push	 eax
  013b7	68 00 00 00 00	 push	 OFFSET ??_C@_0ED@PAFNPDBA@c?3?2users?2nhv90?2projects?2eech?2ap@
  013bc	8b 0d 00 00 00
	00		 mov	 ecx, DWORD PTR ?null_entity_pointer_message@@3PBDB ; null_entity_pointer_message
  013c2	51		 push	 ecx
  013c3	e8 00 00 00 00	 call	 ?process_assert@@YGXPBD0H@Z ; process_assert
  013c8	c7 85 90 fe ff
	ff 00 00 00 00	 mov	 DWORD PTR tv885[ebp], 0
$LN147@create_rea:
  013d2	ba 01 00 00 00	 mov	 edx, 1
  013d7	85 d2		 test	 edx, edx
  013d9	74 0c		 je	 SHORT $LN148@create_rea
  013db	c7 85 8c fe ff
	ff 03 00 00 00	 mov	 DWORD PTR tv893[ebp], 3
  013e5	eb 26		 jmp	 SHORT $LN149@create_rea
$LN148@create_rea:
  013e7	a1 00 00 00 00	 mov	 eax, DWORD PTR ?__LINE__Var@?0??create_reaction_to_recon_task_completed@@YGXPAUENTITY@@@Z@4JA
  013ec	05 c7 00 00 00	 add	 eax, 199		; 000000c7H
  013f1	50		 push	 eax
  013f2	68 00 00 00 00	 push	 OFFSET ??_C@_0ED@PAFNPDBA@c?3?2users?2nhv90?2projects?2eech?2ap@
  013f7	8b 0d 00 00 00
	00		 mov	 ecx, DWORD PTR ?overload_invalid_string_type_message@@3PBDB ; overload_invalid_string_type_message
  013fd	51		 push	 ecx
  013fe	e8 00 00 00 00	 call	 ?process_assert@@YGXPBD0H@Z ; process_assert
  01403	c7 85 8c fe ff
	ff 00 00 00 00	 mov	 DWORD PTR tv893[ebp], 0
$LN149@create_rea:
  0140d	83 7d f8 00	 cmp	 DWORD PTR _new_task$[ebp], 0
  01411	74 14		 je	 SHORT $LN150@create_rea
  01413	8b 55 f8	 mov	 edx, DWORD PTR _new_task$[ebp]
  01416	2b 15 00 00 00
	00		 sub	 edx, DWORD PTR ?entities@@3PAUENTITY@@A ; entities
  0141c	c1 fa 04	 sar	 edx, 4
  0141f	89 95 88 fe ff
	ff		 mov	 DWORD PTR tv903[ebp], edx
  01425	eb 0a		 jmp	 SHORT $LN151@create_rea
$LN150@create_rea:
  01427	c7 85 88 fe ff
	ff ff ff ff ff	 mov	 DWORD PTR tv903[ebp], -1
$LN151@create_rea:
  01431	6a 03		 push	 3
  01433	8b 45 08	 mov	 eax, DWORD PTR _task$[ebp]
  01436	50		 push	 eax
  01437	6b 8d 98 fe ff
	ff 34		 imul	 ecx, DWORD PTR tv864[ebp], 52
  0143e	8b 95 94 fe ff
	ff		 mov	 edx, DWORD PTR tv872[ebp]
  01444	8b 84 91 00 00
	00 00		 mov	 eax, DWORD PTR ?fn_get_local_entity_string@@3PAY0N@P6GPBDPAUENTITY@@W4STRING_TYPES@@@ZA[ecx+edx*4]
  0144b	ff d0		 call	 eax
  0144d	50		 push	 eax
  0144e	6a 03		 push	 3
  01450	8b 4d f4	 mov	 ecx, DWORD PTR _objective$[ebp]
  01453	51		 push	 ecx
  01454	6b 95 90 fe ff
	ff 34		 imul	 edx, DWORD PTR tv885[ebp], 52
  0145b	8b 85 8c fe ff
	ff		 mov	 eax, DWORD PTR tv893[ebp]
  01461	8b 8c 82 00 00
	00 00		 mov	 ecx, DWORD PTR ?fn_get_local_entity_string@@3PAY0N@P6GPBDPAUENTITY@@W4STRING_TYPES@@@ZA[edx+eax*4]
  01468	ff d1		 call	 ecx
  0146a	50		 push	 eax
  0146b	8b 95 88 fe ff
	ff		 mov	 edx, DWORD PTR tv903[ebp]
  01471	52		 push	 edx
  01472	8b 45 f0	 mov	 eax, DWORD PTR _task_side$[ebp]
  01475	8b 0c 85 00 00
	00 00		 mov	 ecx, DWORD PTR ?entity_side_short_names@@3PAPBDA[eax*4]
  0147c	51		 push	 ecx
  0147d	68 00 00 00 00	 push	 OFFSET ??_C@_0DL@FACLFHJG@?$CITASK?$CJ?5Side?5?$CFs?5?3?5Created?5SEAD?5?$CI@
  01482	e8 00 00 00 00	 call	 ?ai_log@@YAXPBDZZ	; ai_log
  01487	83 c4 14	 add	 esp, 20			; 00000014H
$LN27@create_rea:

; 512  : 										entity_side_short_names [task_side],
; 513  : 										get_local_entity_safe_index (new_task),
; 514  : 										get_local_entity_string (objective, STRING_TYPE_FULL_NAME),
; 515  : 										get_local_entity_string (task, STRING_TYPE_FULL_NAME));
; 516  : 					}	
; 517  : 	
; 518  : 					if (member_count == 1)

  0148a	83 bd e0 fe ff
	ff 01		 cmp	 DWORD PTR _member_count$2[ebp], 1
  01491	0f 85 c2 00 00
	00		 jne	 $LN28@create_rea

; 519  : 					{
; 520  : 						sprintf (s, "%s %s 1 %s",

  01497	83 7d 08 00	 cmp	 DWORD PTR _task$[ebp], 0
  0149b	74 0d		 je	 SHORT $LN152@create_rea
  0149d	8b 45 08	 mov	 eax, DWORD PTR _task$[ebp]
  014a0	8b 08		 mov	 ecx, DWORD PTR [eax]
  014a2	89 8d 98 fe ff
	ff		 mov	 DWORD PTR tv923[ebp], ecx
  014a8	eb 27		 jmp	 SHORT $LN153@create_rea
$LN152@create_rea:
  014aa	8b 15 00 00 00
	00		 mov	 edx, DWORD PTR ?__LINE__Var@?0??create_reaction_to_recon_task_completed@@YGXPAUENTITY@@@Z@4JA
  014b0	81 c2 ce 00 00
	00		 add	 edx, 206		; 000000ceH
  014b6	52		 push	 edx
  014b7	68 00 00 00 00	 push	 OFFSET ??_C@_0ED@PAFNPDBA@c?3?2users?2nhv90?2projects?2eech?2ap@
  014bc	a1 00 00 00 00	 mov	 eax, DWORD PTR ?null_entity_pointer_message@@3PBDB ; null_entity_pointer_message
  014c1	50		 push	 eax
  014c2	e8 00 00 00 00	 call	 ?process_assert@@YGXPBD0H@Z ; process_assert
  014c7	c7 85 98 fe ff
	ff 00 00 00 00	 mov	 DWORD PTR tv923[ebp], 0
$LN153@create_rea:
  014d1	b9 01 00 00 00	 mov	 ecx, 1
  014d6	85 c9		 test	 ecx, ecx
  014d8	74 0c		 je	 SHORT $LN154@create_rea
  014da	c7 85 94 fe ff
	ff 03 00 00 00	 mov	 DWORD PTR tv931[ebp], 3
  014e4	eb 27		 jmp	 SHORT $LN155@create_rea
$LN154@create_rea:
  014e6	8b 15 00 00 00
	00		 mov	 edx, DWORD PTR ?__LINE__Var@?0??create_reaction_to_recon_task_completed@@YGXPAUENTITY@@@Z@4JA
  014ec	81 c2 ce 00 00
	00		 add	 edx, 206		; 000000ceH
  014f2	52		 push	 edx
  014f3	68 00 00 00 00	 push	 OFFSET ??_C@_0ED@PAFNPDBA@c?3?2users?2nhv90?2projects?2eech?2ap@
  014f8	a1 00 00 00 00	 mov	 eax, DWORD PTR ?overload_invalid_string_type_message@@3PBDB ; overload_invalid_string_type_message
  014fd	50		 push	 eax
  014fe	e8 00 00 00 00	 call	 ?process_assert@@YGXPBD0H@Z ; process_assert
  01503	c7 85 94 fe ff
	ff 00 00 00 00	 mov	 DWORD PTR tv931[ebp], 0
$LN155@create_rea:
  0150d	68 00 00 00 00	 push	 OFFSET ??_C@_0BH@PFFAKBG@enemy?5A?9A?5installation@
  01512	e8 00 00 00 00	 call	 ?get_trans@@YGPBDPBD@Z	; get_trans
  01517	50		 push	 eax
  01518	68 00 00 00 00	 push	 OFFSET ??_C@_08BCAGGEAL@revealed@
  0151d	e8 00 00 00 00	 call	 ?get_trans@@YGPBDPBD@Z	; get_trans
  01522	50		 push	 eax
  01523	6a 03		 push	 3
  01525	8b 4d 08	 mov	 ecx, DWORD PTR _task$[ebp]
  01528	51		 push	 ecx
  01529	6b 95 98 fe ff
	ff 34		 imul	 edx, DWORD PTR tv923[ebp], 52
  01530	8b 85 94 fe ff
	ff		 mov	 eax, DWORD PTR tv931[ebp]
  01536	8b 8c 82 00 00
	00 00		 mov	 ecx, DWORD PTR ?fn_get_local_entity_string@@3PAY0N@P6GPBDPAUENTITY@@W4STRING_TYPES@@@ZA[edx+eax*4]
  0153d	ff d1		 call	 ecx
  0153f	50		 push	 eax
  01540	68 00 00 00 00	 push	 OFFSET ??_C@_0L@JBGBOCDK@?$CFs?5?$CFs?51?5?$CFs@
  01545	8d 95 e8 fe ff
	ff		 lea	 edx, DWORD PTR _s$[ebp]
  0154b	52		 push	 edx
  0154c	e8 00 00 00 00	 call	 _sprintf
  01551	83 c4 14	 add	 esp, 20			; 00000014H

; 521  : 											get_local_entity_string (task, STRING_TYPE_FULL_NAME),
; 522  : 											get_trans ("revealed"),
; 523  : 											get_trans ("enemy A-A installation"));
; 524  : 					}
; 525  : 					else

  01554	e9 54 01 00 00	 jmp	 $LN29@create_rea
$LN28@create_rea:

; 526  : 					{
; 527  : 						sprintf (s, "%s %s %d %s",

  01559	83 7d f4 00	 cmp	 DWORD PTR _objective$[ebp], 0
  0155d	74 0d		 je	 SHORT $LN156@create_rea
  0155f	8b 45 f4	 mov	 eax, DWORD PTR _objective$[ebp]
  01562	8b 08		 mov	 ecx, DWORD PTR [eax]
  01564	89 8d 98 fe ff
	ff		 mov	 DWORD PTR tv949[ebp], ecx
  0156a	eb 27		 jmp	 SHORT $LN157@create_rea
$LN156@create_rea:
  0156c	8b 15 00 00 00
	00		 mov	 edx, DWORD PTR ?__LINE__Var@?0??create_reaction_to_recon_task_completed@@YGXPAUENTITY@@@Z@4JA
  01572	81 c2 d7 00 00
	00		 add	 edx, 215		; 000000d7H
  01578	52		 push	 edx
  01579	68 00 00 00 00	 push	 OFFSET ??_C@_0ED@PAFNPDBA@c?3?2users?2nhv90?2projects?2eech?2ap@
  0157e	a1 00 00 00 00	 mov	 eax, DWORD PTR ?null_entity_pointer_message@@3PBDB ; null_entity_pointer_message
  01583	50		 push	 eax
  01584	e8 00 00 00 00	 call	 ?process_assert@@YGXPBD0H@Z ; process_assert
  01589	c7 85 98 fe ff
	ff 00 00 00 00	 mov	 DWORD PTR tv949[ebp], 0
$LN157@create_rea:
  01593	b9 01 00 00 00	 mov	 ecx, 1
  01598	85 c9		 test	 ecx, ecx
  0159a	74 0c		 je	 SHORT $LN158@create_rea
  0159c	c7 85 94 fe ff
	ff 86 00 00 00	 mov	 DWORD PTR tv957[ebp], 134 ; 00000086H
  015a6	eb 27		 jmp	 SHORT $LN159@create_rea
$LN158@create_rea:
  015a8	8b 15 00 00 00
	00		 mov	 edx, DWORD PTR ?__LINE__Var@?0??create_reaction_to_recon_task_completed@@YGXPAUENTITY@@@Z@4JA
  015ae	81 c2 d7 00 00
	00		 add	 edx, 215		; 000000d7H
  015b4	52		 push	 edx
  015b5	68 00 00 00 00	 push	 OFFSET ??_C@_0ED@PAFNPDBA@c?3?2users?2nhv90?2projects?2eech?2ap@
  015ba	a1 00 00 00 00	 mov	 eax, DWORD PTR ?overload_invalid_int_type_message@@3PBDB ; overload_invalid_int_type_message
  015bf	50		 push	 eax
  015c0	e8 00 00 00 00	 call	 ?process_assert@@YGXPBD0H@Z ; process_assert
  015c5	c7 85 94 fe ff
	ff 00 00 00 00	 mov	 DWORD PTR tv957[ebp], 0
$LN159@create_rea:
  015cf	83 7d 08 00	 cmp	 DWORD PTR _task$[ebp], 0
  015d3	74 0d		 je	 SHORT $LN160@create_rea
  015d5	8b 4d 08	 mov	 ecx, DWORD PTR _task$[ebp]
  015d8	8b 11		 mov	 edx, DWORD PTR [ecx]
  015da	89 95 90 fe ff
	ff		 mov	 DWORD PTR tv973[ebp], edx
  015e0	eb 26		 jmp	 SHORT $LN161@create_rea
$LN160@create_rea:
  015e2	a1 00 00 00 00	 mov	 eax, DWORD PTR ?__LINE__Var@?0??create_reaction_to_recon_task_completed@@YGXPAUENTITY@@@Z@4JA
  015e7	05 d5 00 00 00	 add	 eax, 213		; 000000d5H
  015ec	50		 push	 eax
  015ed	68 00 00 00 00	 push	 OFFSET ??_C@_0ED@PAFNPDBA@c?3?2users?2nhv90?2projects?2eech?2ap@
  015f2	8b 0d 00 00 00
	00		 mov	 ecx, DWORD PTR ?null_entity_pointer_message@@3PBDB ; null_entity_pointer_message
  015f8	51		 push	 ecx
  015f9	e8 00 00 00 00	 call	 ?process_assert@@YGXPBD0H@Z ; process_assert
  015fe	c7 85 90 fe ff
	ff 00 00 00 00	 mov	 DWORD PTR tv973[ebp], 0
$LN161@create_rea:
  01608	ba 01 00 00 00	 mov	 edx, 1
  0160d	85 d2		 test	 edx, edx
  0160f	74 0c		 je	 SHORT $LN162@create_rea
  01611	c7 85 8c fe ff
	ff 03 00 00 00	 mov	 DWORD PTR tv981[ebp], 3
  0161b	eb 26		 jmp	 SHORT $LN163@create_rea
$LN162@create_rea:
  0161d	a1 00 00 00 00	 mov	 eax, DWORD PTR ?__LINE__Var@?0??create_reaction_to_recon_task_completed@@YGXPAUENTITY@@@Z@4JA
  01622	05 d5 00 00 00	 add	 eax, 213		; 000000d5H
  01627	50		 push	 eax
  01628	68 00 00 00 00	 push	 OFFSET ??_C@_0ED@PAFNPDBA@c?3?2users?2nhv90?2projects?2eech?2ap@
  0162d	8b 0d 00 00 00
	00		 mov	 ecx, DWORD PTR ?overload_invalid_string_type_message@@3PBDB ; overload_invalid_string_type_message
  01633	51		 push	 ecx
  01634	e8 00 00 00 00	 call	 ?process_assert@@YGXPBD0H@Z ; process_assert
  01639	c7 85 8c fe ff
	ff 00 00 00 00	 mov	 DWORD PTR tv981[ebp], 0
$LN163@create_rea:
  01643	68 00 00 00 00	 push	 OFFSET ??_C@_0BI@PAMJMKGO@enemy?5A?9A?5installations@
  01648	e8 00 00 00 00	 call	 ?get_trans@@YGPBDPBD@Z	; get_trans
  0164d	50		 push	 eax
  0164e	68 86 00 00 00	 push	 134			; 00000086H
  01653	8b 55 f4	 mov	 edx, DWORD PTR _objective$[ebp]
  01656	52		 push	 edx
  01657	69 85 98 fe ff
	ff 5c 04 00 00	 imul	 eax, DWORD PTR tv949[ebp], 1116
  01661	8b 8d 94 fe ff
	ff		 mov	 ecx, DWORD PTR tv957[ebp]
  01667	8b 94 88 00 00
	00 00		 mov	 edx, DWORD PTR ?fn_get_local_entity_int_value@@3PAY0BBH@P6GHPAUENTITY@@W4INT_TYPES@@@ZA[eax+ecx*4]
  0166e	ff d2		 call	 edx
  01670	50		 push	 eax
  01671	68 00 00 00 00	 push	 OFFSET ??_C@_08BCAGGEAL@revealed@
  01676	e8 00 00 00 00	 call	 ?get_trans@@YGPBDPBD@Z	; get_trans
  0167b	50		 push	 eax
  0167c	6a 03		 push	 3
  0167e	8b 45 08	 mov	 eax, DWORD PTR _task$[ebp]
  01681	50		 push	 eax
  01682	6b 8d 90 fe ff
	ff 34		 imul	 ecx, DWORD PTR tv973[ebp], 52
  01689	8b 95 8c fe ff
	ff		 mov	 edx, DWORD PTR tv981[ebp]
  0168f	8b 84 91 00 00
	00 00		 mov	 eax, DWORD PTR ?fn_get_local_entity_string@@3PAY0N@P6GPBDPAUENTITY@@W4STRING_TYPES@@@ZA[ecx+edx*4]
  01696	ff d0		 call	 eax
  01698	50		 push	 eax
  01699	68 00 00 00 00	 push	 OFFSET ??_C@_0M@KIFEIOFB@?$CFs?5?$CFs?5?$CFd?5?$CFs@
  0169e	8d 8d e8 fe ff
	ff		 lea	 ecx, DWORD PTR _s$[ebp]
  016a4	51		 push	 ecx
  016a5	e8 00 00 00 00	 call	 _sprintf
  016aa	83 c4 18	 add	 esp, 24			; 00000018H
$LN29@create_rea:

; 528  : 											get_local_entity_string (task, STRING_TYPE_FULL_NAME),
; 529  : 											get_trans ("revealed"),
; 530  : 											get_local_entity_int_value (objective, INT_TYPE_MEMBER_COUNT),
; 531  : 											get_trans ("enemy A-A installations"));
; 532  : 					}
; 533  : 						
; 534  : 					send_text_message (objective, force, MESSAGE_TEXT_SYSTEM_RECON_DATA, s);

  016ad	8d 85 e8 fe ff
	ff		 lea	 eax, DWORD PTR _s$[ebp]
  016b3	50		 push	 eax
  016b4	6a 03		 push	 3
  016b6	8b 4d fc	 mov	 ecx, DWORD PTR _force$[ebp]
  016b9	51		 push	 ecx
  016ba	8b 55 f4	 mov	 edx, DWORD PTR _objective$[ebp]
  016bd	52		 push	 edx
  016be	e8 00 00 00 00	 call	 ?send_text_message@@YGXPAUENTITY@@0W4MESSAGE_TEXT_TYPES@@PBD@Z ; send_text_message
$LN26@create_rea:

; 535  : 				}
; 536  : 			}

  016c3	e9 34 03 00 00	 jmp	 $LN31@create_rea
$LN24@create_rea:

; 537  : 			else if (group_database [sub_type].frontline_flag)

  016c8	6b 45 ec 64	 imul	 eax, DWORD PTR _sub_type$[ebp], 100
  016cc	8b 88 48 00 00
	00		 mov	 ecx, DWORD PTR ?group_database@@3PAUGROUP_DATA@@A[eax+72]
  016d2	83 e1 03	 and	 ecx, 3
  016d5	0f 84 21 03 00
	00		 je	 $LN31@create_rea

; 538  : 			{
; 539  : 				//
; 540  : 				// CREATE BAI
; 541  : 				//
; 542  : 				
; 543  : 				int
; 544  : 					member_count;
; 545  : 
; 546  : 				member_count = get_local_entity_int_value (objective, INT_TYPE_MEMBER_COUNT);

  016db	83 7d f4 00	 cmp	 DWORD PTR _objective$[ebp], 0
  016df	74 0d		 je	 SHORT $LN164@create_rea
  016e1	8b 45 f4	 mov	 eax, DWORD PTR _objective$[ebp]
  016e4	8b 08		 mov	 ecx, DWORD PTR [eax]
  016e6	89 8d 98 fe ff
	ff		 mov	 DWORD PTR tv1004[ebp], ecx
  016ec	eb 27		 jmp	 SHORT $LN165@create_rea
$LN164@create_rea:
  016ee	8b 15 00 00 00
	00		 mov	 edx, DWORD PTR ?__LINE__Var@?0??create_reaction_to_recon_task_completed@@YGXPAUENTITY@@@Z@4JA
  016f4	81 c2 e7 00 00
	00		 add	 edx, 231		; 000000e7H
  016fa	52		 push	 edx
  016fb	68 00 00 00 00	 push	 OFFSET ??_C@_0ED@PAFNPDBA@c?3?2users?2nhv90?2projects?2eech?2ap@
  01700	a1 00 00 00 00	 mov	 eax, DWORD PTR ?null_entity_pointer_message@@3PBDB ; null_entity_pointer_message
  01705	50		 push	 eax
  01706	e8 00 00 00 00	 call	 ?process_assert@@YGXPBD0H@Z ; process_assert
  0170b	c7 85 98 fe ff
	ff 00 00 00 00	 mov	 DWORD PTR tv1004[ebp], 0
$LN165@create_rea:
  01715	b9 01 00 00 00	 mov	 ecx, 1
  0171a	85 c9		 test	 ecx, ecx
  0171c	74 0c		 je	 SHORT $LN166@create_rea
  0171e	c7 85 94 fe ff
	ff 86 00 00 00	 mov	 DWORD PTR tv1012[ebp], 134 ; 00000086H
  01728	eb 27		 jmp	 SHORT $LN167@create_rea
$LN166@create_rea:
  0172a	8b 15 00 00 00
	00		 mov	 edx, DWORD PTR ?__LINE__Var@?0??create_reaction_to_recon_task_completed@@YGXPAUENTITY@@@Z@4JA
  01730	81 c2 e7 00 00
	00		 add	 edx, 231		; 000000e7H
  01736	52		 push	 edx
  01737	68 00 00 00 00	 push	 OFFSET ??_C@_0ED@PAFNPDBA@c?3?2users?2nhv90?2projects?2eech?2ap@
  0173c	a1 00 00 00 00	 mov	 eax, DWORD PTR ?overload_invalid_int_type_message@@3PBDB ; overload_invalid_int_type_message
  01741	50		 push	 eax
  01742	e8 00 00 00 00	 call	 ?process_assert@@YGXPBD0H@Z ; process_assert
  01747	c7 85 94 fe ff
	ff 00 00 00 00	 mov	 DWORD PTR tv1012[ebp], 0
$LN167@create_rea:
  01751	68 86 00 00 00	 push	 134			; 00000086H
  01756	8b 4d f4	 mov	 ecx, DWORD PTR _objective$[ebp]
  01759	51		 push	 ecx
  0175a	69 95 98 fe ff
	ff 5c 04 00 00	 imul	 edx, DWORD PTR tv1004[ebp], 1116
  01764	8b 85 94 fe ff
	ff		 mov	 eax, DWORD PTR tv1012[ebp]
  0176a	8b 8c 82 00 00
	00 00		 mov	 ecx, DWORD PTR ?fn_get_local_entity_int_value@@3PAY0BBH@P6GHPAUENTITY@@W4INT_TYPES@@@ZA[edx+eax*4]
  01771	ff d1		 call	 ecx
  01773	89 85 dc fe ff
	ff		 mov	 DWORD PTR _member_count$1[ebp], eax

; 547  : 
; 548  : 				if (member_count > 0)

  01779	83 bd dc fe ff
	ff 00		 cmp	 DWORD PTR _member_count$1[ebp], 0
  01780	0f 8e 76 02 00
	00		 jle	 $LN31@create_rea

; 549  : 				{
; 550  : 					if (!entity_is_object_of_task (objective, ENTITY_SUB_TYPE_TASK_BAI, task_side))

  01786	8b 45 f0	 mov	 eax, DWORD PTR _task_side$[ebp]
  01789	50		 push	 eax
  0178a	6a 03		 push	 3
  0178c	8b 4d f4	 mov	 ecx, DWORD PTR _objective$[ebp]
  0178f	51		 push	 ecx
  01790	e8 00 00 00 00	 call	 ?entity_is_object_of_task@@YGHPAUENTITY@@HW4ENTITY_SIDES@@@Z ; entity_is_object_of_task
  01795	85 c0		 test	 eax, eax
  01797	0f 85 97 01 00
	00		 jne	 $LN32@create_rea

; 551  : 					{
; 552  : 						new_task = create_bai_task (task_side, objective, task, TRUE, task_database [ENTITY_SUB_TYPE_TASK_BAI].task_priority, NULL, NULL);

  0179d	6a 00		 push	 0
  0179f	6a 00		 push	 0
  017a1	b8 50 00 00 00	 mov	 eax, 80			; 00000050H
  017a6	6b c8 03	 imul	 ecx, eax, 3
  017a9	51		 push	 ecx
  017aa	f3 0f 10 81 10
	00 00 00	 movss	 xmm0, DWORD PTR ?task_database@@3PAUTASK_DATA@@A[ecx+16]
  017b2	f3 0f 11 04 24	 movss	 DWORD PTR [esp], xmm0
  017b7	6a 01		 push	 1
  017b9	8b 55 08	 mov	 edx, DWORD PTR _task$[ebp]
  017bc	52		 push	 edx
  017bd	8b 45 f4	 mov	 eax, DWORD PTR _objective$[ebp]
  017c0	50		 push	 eax
  017c1	8b 4d f0	 mov	 ecx, DWORD PTR _task_side$[ebp]
  017c4	51		 push	 ecx
  017c5	e8 00 00 00 00	 call	 ?create_bai_task@@YGPAUENTITY@@W4ENTITY_SIDES@@PAU1@1HM11@Z ; create_bai_task
  017ca	89 45 f8	 mov	 DWORD PTR _new_task$[ebp], eax

; 553  : 	
; 554  : 						ai_log ("(TASK) Side %s : Created BAI (%d) to %s in reaction to %s",

  017cd	83 7d 08 00	 cmp	 DWORD PTR _task$[ebp], 0
  017d1	74 0d		 je	 SHORT $LN168@create_rea
  017d3	8b 45 08	 mov	 eax, DWORD PTR _task$[ebp]
  017d6	8b 08		 mov	 ecx, DWORD PTR [eax]
  017d8	89 8d 98 fe ff
	ff		 mov	 DWORD PTR tv1041[ebp], ecx
  017de	eb 27		 jmp	 SHORT $LN169@create_rea
$LN168@create_rea:
  017e0	8b 15 00 00 00
	00		 mov	 edx, DWORD PTR ?__LINE__Var@?0??create_reaction_to_recon_task_completed@@YGXPAUENTITY@@@Z@4JA
  017e6	81 c2 f3 00 00
	00		 add	 edx, 243		; 000000f3H
  017ec	52		 push	 edx
  017ed	68 00 00 00 00	 push	 OFFSET ??_C@_0ED@PAFNPDBA@c?3?2users?2nhv90?2projects?2eech?2ap@
  017f2	a1 00 00 00 00	 mov	 eax, DWORD PTR ?null_entity_pointer_message@@3PBDB ; null_entity_pointer_message
  017f7	50		 push	 eax
  017f8	e8 00 00 00 00	 call	 ?process_assert@@YGXPBD0H@Z ; process_assert
  017fd	c7 85 98 fe ff
	ff 00 00 00 00	 mov	 DWORD PTR tv1041[ebp], 0
$LN169@create_rea:
  01807	b9 01 00 00 00	 mov	 ecx, 1
  0180c	85 c9		 test	 ecx, ecx
  0180e	74 0c		 je	 SHORT $LN170@create_rea
  01810	c7 85 94 fe ff
	ff 03 00 00 00	 mov	 DWORD PTR tv1049[ebp], 3
  0181a	eb 27		 jmp	 SHORT $LN171@create_rea
$LN170@create_rea:
  0181c	8b 15 00 00 00
	00		 mov	 edx, DWORD PTR ?__LINE__Var@?0??create_reaction_to_recon_task_completed@@YGXPAUENTITY@@@Z@4JA
  01822	81 c2 f3 00 00
	00		 add	 edx, 243		; 000000f3H
  01828	52		 push	 edx
  01829	68 00 00 00 00	 push	 OFFSET ??_C@_0ED@PAFNPDBA@c?3?2users?2nhv90?2projects?2eech?2ap@
  0182e	a1 00 00 00 00	 mov	 eax, DWORD PTR ?overload_invalid_string_type_message@@3PBDB ; overload_invalid_string_type_message
  01833	50		 push	 eax
  01834	e8 00 00 00 00	 call	 ?process_assert@@YGXPBD0H@Z ; process_assert
  01839	c7 85 94 fe ff
	ff 00 00 00 00	 mov	 DWORD PTR tv1049[ebp], 0
$LN171@create_rea:
  01843	83 7d f4 00	 cmp	 DWORD PTR _objective$[ebp], 0
  01847	74 0d		 je	 SHORT $LN172@create_rea
  01849	8b 4d f4	 mov	 ecx, DWORD PTR _objective$[ebp]
  0184c	8b 11		 mov	 edx, DWORD PTR [ecx]
  0184e	89 95 90 fe ff
	ff		 mov	 DWORD PTR tv1062[ebp], edx
  01854	eb 26		 jmp	 SHORT $LN173@create_rea
$LN172@create_rea:
  01856	a1 00 00 00 00	 mov	 eax, DWORD PTR ?__LINE__Var@?0??create_reaction_to_recon_task_completed@@YGXPAUENTITY@@@Z@4JA
  0185b	05 f2 00 00 00	 add	 eax, 242		; 000000f2H
  01860	50		 push	 eax
  01861	68 00 00 00 00	 push	 OFFSET ??_C@_0ED@PAFNPDBA@c?3?2users?2nhv90?2projects?2eech?2ap@
  01866	8b 0d 00 00 00
	00		 mov	 ecx, DWORD PTR ?null_entity_pointer_message@@3PBDB ; null_entity_pointer_message
  0186c	51		 push	 ecx
  0186d	e8 00 00 00 00	 call	 ?process_assert@@YGXPBD0H@Z ; process_assert
  01872	c7 85 90 fe ff
	ff 00 00 00 00	 mov	 DWORD PTR tv1062[ebp], 0
$LN173@create_rea:
  0187c	ba 01 00 00 00	 mov	 edx, 1
  01881	85 d2		 test	 edx, edx
  01883	74 0c		 je	 SHORT $LN174@create_rea
  01885	c7 85 8c fe ff
	ff 03 00 00 00	 mov	 DWORD PTR tv1070[ebp], 3
  0188f	eb 26		 jmp	 SHORT $LN175@create_rea
$LN174@create_rea:
  01891	a1 00 00 00 00	 mov	 eax, DWORD PTR ?__LINE__Var@?0??create_reaction_to_recon_task_completed@@YGXPAUENTITY@@@Z@4JA
  01896	05 f2 00 00 00	 add	 eax, 242		; 000000f2H
  0189b	50		 push	 eax
  0189c	68 00 00 00 00	 push	 OFFSET ??_C@_0ED@PAFNPDBA@c?3?2users?2nhv90?2projects?2eech?2ap@
  018a1	8b 0d 00 00 00
	00		 mov	 ecx, DWORD PTR ?overload_invalid_string_type_message@@3PBDB ; overload_invalid_string_type_message
  018a7	51		 push	 ecx
  018a8	e8 00 00 00 00	 call	 ?process_assert@@YGXPBD0H@Z ; process_assert
  018ad	c7 85 8c fe ff
	ff 00 00 00 00	 mov	 DWORD PTR tv1070[ebp], 0
$LN175@create_rea:
  018b7	83 7d f8 00	 cmp	 DWORD PTR _new_task$[ebp], 0
  018bb	74 14		 je	 SHORT $LN176@create_rea
  018bd	8b 55 f8	 mov	 edx, DWORD PTR _new_task$[ebp]
  018c0	2b 15 00 00 00
	00		 sub	 edx, DWORD PTR ?entities@@3PAUENTITY@@A ; entities
  018c6	c1 fa 04	 sar	 edx, 4
  018c9	89 95 88 fe ff
	ff		 mov	 DWORD PTR tv1080[ebp], edx
  018cf	eb 0a		 jmp	 SHORT $LN177@create_rea
$LN176@create_rea:
  018d1	c7 85 88 fe ff
	ff ff ff ff ff	 mov	 DWORD PTR tv1080[ebp], -1
$LN177@create_rea:
  018db	6a 03		 push	 3
  018dd	8b 45 08	 mov	 eax, DWORD PTR _task$[ebp]
  018e0	50		 push	 eax
  018e1	6b 8d 98 fe ff
	ff 34		 imul	 ecx, DWORD PTR tv1041[ebp], 52
  018e8	8b 95 94 fe ff
	ff		 mov	 edx, DWORD PTR tv1049[ebp]
  018ee	8b 84 91 00 00
	00 00		 mov	 eax, DWORD PTR ?fn_get_local_entity_string@@3PAY0N@P6GPBDPAUENTITY@@W4STRING_TYPES@@@ZA[ecx+edx*4]
  018f5	ff d0		 call	 eax
  018f7	50		 push	 eax
  018f8	6a 03		 push	 3
  018fa	8b 4d f4	 mov	 ecx, DWORD PTR _objective$[ebp]
  018fd	51		 push	 ecx
  018fe	6b 95 90 fe ff
	ff 34		 imul	 edx, DWORD PTR tv1062[ebp], 52
  01905	8b 85 8c fe ff
	ff		 mov	 eax, DWORD PTR tv1070[ebp]
  0190b	8b 8c 82 00 00
	00 00		 mov	 ecx, DWORD PTR ?fn_get_local_entity_string@@3PAY0N@P6GPBDPAUENTITY@@W4STRING_TYPES@@@ZA[edx+eax*4]
  01912	ff d1		 call	 ecx
  01914	50		 push	 eax
  01915	8b 95 88 fe ff
	ff		 mov	 edx, DWORD PTR tv1080[ebp]
  0191b	52		 push	 edx
  0191c	8b 45 f0	 mov	 eax, DWORD PTR _task_side$[ebp]
  0191f	8b 0c 85 00 00
	00 00		 mov	 ecx, DWORD PTR ?entity_side_short_names@@3PAPBDA[eax*4]
  01926	51		 push	 ecx
  01927	68 00 00 00 00	 push	 OFFSET ??_C@_0DK@PJPICFLO@?$CITASK?$CJ?5Side?5?$CFs?5?3?5Created?5BAI?5?$CI?$CF@
  0192c	e8 00 00 00 00	 call	 ?ai_log@@YAXPBDZZ	; ai_log
  01931	83 c4 14	 add	 esp, 20			; 00000014H
$LN32@create_rea:

; 555  : 										entity_side_short_names [task_side],
; 556  : 										get_local_entity_safe_index (new_task),
; 557  : 										get_local_entity_string (objective, STRING_TYPE_FULL_NAME),
; 558  : 										get_local_entity_string (task, STRING_TYPE_FULL_NAME));
; 559  : 					}	
; 560  : 	
; 561  : 					sprintf (s, "%s %s",

  01934	83 7d 08 00	 cmp	 DWORD PTR _task$[ebp], 0
  01938	74 0d		 je	 SHORT $LN178@create_rea
  0193a	8b 45 08	 mov	 eax, DWORD PTR _task$[ebp]
  0193d	8b 08		 mov	 ecx, DWORD PTR [eax]
  0193f	89 8d 98 fe ff
	ff		 mov	 DWORD PTR tv1096[ebp], ecx
  01945	eb 27		 jmp	 SHORT $LN179@create_rea
$LN178@create_rea:
  01947	8b 15 00 00 00
	00		 mov	 edx, DWORD PTR ?__LINE__Var@?0??create_reaction_to_recon_task_completed@@YGXPAUENTITY@@@Z@4JA
  0194d	81 c2 f7 00 00
	00		 add	 edx, 247		; 000000f7H
  01953	52		 push	 edx
  01954	68 00 00 00 00	 push	 OFFSET ??_C@_0ED@PAFNPDBA@c?3?2users?2nhv90?2projects?2eech?2ap@
  01959	a1 00 00 00 00	 mov	 eax, DWORD PTR ?null_entity_pointer_message@@3PBDB ; null_entity_pointer_message
  0195e	50		 push	 eax
  0195f	e8 00 00 00 00	 call	 ?process_assert@@YGXPBD0H@Z ; process_assert
  01964	c7 85 98 fe ff
	ff 00 00 00 00	 mov	 DWORD PTR tv1096[ebp], 0
$LN179@create_rea:
  0196e	b9 01 00 00 00	 mov	 ecx, 1
  01973	85 c9		 test	 ecx, ecx
  01975	74 0c		 je	 SHORT $LN180@create_rea
  01977	c7 85 94 fe ff
	ff 03 00 00 00	 mov	 DWORD PTR tv1104[ebp], 3
  01981	eb 27		 jmp	 SHORT $LN181@create_rea
$LN180@create_rea:
  01983	8b 15 00 00 00
	00		 mov	 edx, DWORD PTR ?__LINE__Var@?0??create_reaction_to_recon_task_completed@@YGXPAUENTITY@@@Z@4JA
  01989	81 c2 f7 00 00
	00		 add	 edx, 247		; 000000f7H
  0198f	52		 push	 edx
  01990	68 00 00 00 00	 push	 OFFSET ??_C@_0ED@PAFNPDBA@c?3?2users?2nhv90?2projects?2eech?2ap@
  01995	a1 00 00 00 00	 mov	 eax, DWORD PTR ?overload_invalid_string_type_message@@3PBDB ; overload_invalid_string_type_message
  0199a	50		 push	 eax
  0199b	e8 00 00 00 00	 call	 ?process_assert@@YGXPBD0H@Z ; process_assert
  019a0	c7 85 94 fe ff
	ff 00 00 00 00	 mov	 DWORD PTR tv1104[ebp], 0
$LN181@create_rea:
  019aa	68 00 00 00 00	 push	 OFFSET ??_C@_0CC@OPDFECFI@revealed?5enemy?5armoured?5battali@
  019af	e8 00 00 00 00	 call	 ?get_trans@@YGPBDPBD@Z	; get_trans
  019b4	50		 push	 eax
  019b5	6a 03		 push	 3
  019b7	8b 4d 08	 mov	 ecx, DWORD PTR _task$[ebp]
  019ba	51		 push	 ecx
  019bb	6b 95 98 fe ff
	ff 34		 imul	 edx, DWORD PTR tv1096[ebp], 52
  019c2	8b 85 94 fe ff
	ff		 mov	 eax, DWORD PTR tv1104[ebp]
  019c8	8b 8c 82 00 00
	00 00		 mov	 ecx, DWORD PTR ?fn_get_local_entity_string@@3PAY0N@P6GPBDPAUENTITY@@W4STRING_TYPES@@@ZA[edx+eax*4]
  019cf	ff d1		 call	 ecx
  019d1	50		 push	 eax
  019d2	68 00 00 00 00	 push	 OFFSET ??_C@_05DNIIFBMG@?$CFs?5?$CFs@
  019d7	8d 95 e8 fe ff
	ff		 lea	 edx, DWORD PTR _s$[ebp]
  019dd	52		 push	 edx
  019de	e8 00 00 00 00	 call	 _sprintf
  019e3	83 c4 10	 add	 esp, 16			; 00000010H

; 562  : 											get_local_entity_string (task, STRING_TYPE_FULL_NAME),
; 563  : 											get_trans ("revealed enemy armoured battalion"));
; 564  : 						
; 565  : 					send_text_message (objective, force, MESSAGE_TEXT_SYSTEM_RECON_DATA, s);

  019e6	8d 85 e8 fe ff
	ff		 lea	 eax, DWORD PTR _s$[ebp]
  019ec	50		 push	 eax
  019ed	6a 03		 push	 3
  019ef	8b 4d fc	 mov	 ecx, DWORD PTR _force$[ebp]
  019f2	51		 push	 ecx
  019f3	8b 55 f4	 mov	 edx, DWORD PTR _objective$[ebp]
  019f6	52		 push	 edx
  019f7	e8 00 00 00 00	 call	 ?send_text_message@@YGXPAUENTITY@@0W4MESSAGE_TEXT_TYPES@@PBD@Z ; send_text_message
$LN31@create_rea:
$LN2@create_rea:
$LN1@create_rea:

; 566  : 				}
; 567  : 			}
; 568  : 
; 569  : 			break;
; 570  : 		}
; 571  : 	}
; 572  : }

  019fc	5f		 pop	 edi
  019fd	5e		 pop	 esi
  019fe	5b		 pop	 ebx
  019ff	8b e5		 mov	 esp, ebp
  01a01	5d		 pop	 ebp
  01a02	c2 04 00	 ret	 4
?create_reaction_to_recon_task_completed@@YGXPAUENTITY@@@Z ENDP ; create_reaction_to_recon_task_completed
_TEXT	ENDS
; Function compile flags: /Odtp /ZI
; File c:\users\nhv90\projects\eech\aphavoc\source\ai\highlevl\reaction.c
;	COMDAT ?create_reaction_to_map_click@@YGXPAUENTITY@@@Z
_TEXT	SEGMENT
tv348 = -100						; size = 4
tv311 = -100						; size = 4
tv182 = -100						; size = 4
tv164 = -100						; size = 4
tv149 = -100						; size = 4
tv137 = -100						; size = 4
tv78 = -100						; size = 4
tv340 = -96						; size = 4
tv303 = -96						; size = 4
tv296 = -96						; size = 4
tv175 = -96						; size = 4
tv156 = -96						; size = 4
tv148 = -96						; size = 4
tv129 = -96						; size = 4
tv70 = -96						; size = 4
_member_count$1 = -28					; size = 4
_member_count$2 = -24					; size = 4
_efficiency$ = -20					; size = 4
_sub_type$ = -16					; size = 4
_task_side$ = -12					; size = 4
_new_task$ = -8						; size = 4
_force$ = -4						; size = 4
_objective$ = 8						; size = 4
?create_reaction_to_map_click@@YGXPAUENTITY@@@Z PROC	; create_reaction_to_map_click, COMDAT

; 788  : {

  00000	55		 push	 ebp
  00001	8b ec		 mov	 ebp, esp
  00003	83 ec 64	 sub	 esp, 100		; 00000064H
  00006	53		 push	 ebx
  00007	56		 push	 esi
  00008	57		 push	 edi

; 789  : 	entity
; 790  : 		*force,
; 791  : 		*new_task;
; 792  : 
; 793  : 	entity_sides
; 794  : 		task_side;
; 795  : 
; 796  : 	int
; 797  : 		sub_type;
; 798  : 
; 799  : 	float
; 800  : 		efficiency;
; 801  : 
; 802  : 	task_side = (entity_sides) get_local_entity_int_value (get_pilot_entity (), INT_TYPE_SIDE);

  00009	83 3d 00 00 00
	00 00		 cmp	 DWORD PTR ?pilot_entity@@3PAUENTITY@@A, 0 ; pilot_entity
  00010	74 0c		 je	 SHORT $LN30@create_rea
  00012	a1 00 00 00 00	 mov	 eax, DWORD PTR ?pilot_entity@@3PAUENTITY@@A ; pilot_entity
  00017	8b 08		 mov	 ecx, DWORD PTR [eax]
  00019	89 4d a0	 mov	 DWORD PTR tv70[ebp], ecx
  0001c	eb 21		 jmp	 SHORT $LN31@create_rea
$LN30@create_rea:
  0001e	8b 15 00 00 00
	00		 mov	 edx, DWORD PTR ?__LINE__Var@?0??create_reaction_to_map_click@@YGXPAUENTITY@@@Z@4JA
  00024	83 c2 0e	 add	 edx, 14			; 0000000eH
  00027	52		 push	 edx
  00028	68 00 00 00 00	 push	 OFFSET ??_C@_0ED@PAFNPDBA@c?3?2users?2nhv90?2projects?2eech?2ap@
  0002d	a1 00 00 00 00	 mov	 eax, DWORD PTR ?null_entity_pointer_message@@3PBDB ; null_entity_pointer_message
  00032	50		 push	 eax
  00033	e8 00 00 00 00	 call	 ?process_assert@@YGXPBD0H@Z ; process_assert
  00038	c7 45 a0 00 00
	00 00		 mov	 DWORD PTR tv70[ebp], 0
$LN31@create_rea:
  0003f	b9 01 00 00 00	 mov	 ecx, 1
  00044	85 c9		 test	 ecx, ecx
  00046	74 09		 je	 SHORT $LN32@create_rea
  00048	c7 45 9c bb 00
	00 00		 mov	 DWORD PTR tv78[ebp], 187 ; 000000bbH
  0004f	eb 21		 jmp	 SHORT $LN33@create_rea
$LN32@create_rea:
  00051	8b 15 00 00 00
	00		 mov	 edx, DWORD PTR ?__LINE__Var@?0??create_reaction_to_map_click@@YGXPAUENTITY@@@Z@4JA
  00057	83 c2 0e	 add	 edx, 14			; 0000000eH
  0005a	52		 push	 edx
  0005b	68 00 00 00 00	 push	 OFFSET ??_C@_0ED@PAFNPDBA@c?3?2users?2nhv90?2projects?2eech?2ap@
  00060	a1 00 00 00 00	 mov	 eax, DWORD PTR ?overload_invalid_int_type_message@@3PBDB ; overload_invalid_int_type_message
  00065	50		 push	 eax
  00066	e8 00 00 00 00	 call	 ?process_assert@@YGXPBD0H@Z ; process_assert
  0006b	c7 45 9c 00 00
	00 00		 mov	 DWORD PTR tv78[ebp], 0
$LN33@create_rea:
  00072	68 bb 00 00 00	 push	 187			; 000000bbH
  00077	8b 0d 00 00 00
	00		 mov	 ecx, DWORD PTR ?pilot_entity@@3PAUENTITY@@A ; pilot_entity
  0007d	51		 push	 ecx
  0007e	69 55 a0 5c 04
	00 00		 imul	 edx, DWORD PTR tv70[ebp], 1116
  00085	8b 45 9c	 mov	 eax, DWORD PTR tv78[ebp]
  00088	8b 8c 82 00 00
	00 00		 mov	 ecx, DWORD PTR ?fn_get_local_entity_int_value@@3PAY0BBH@P6GHPAUENTITY@@W4INT_TYPES@@@ZA[edx+eax*4]
  0008f	ff d1		 call	 ecx
  00091	89 45 f4	 mov	 DWORD PTR _task_side$[ebp], eax

; 803  : 
; 804  : 	force = get_local_force_entity (task_side);

  00094	8b 45 f4	 mov	 eax, DWORD PTR _task_side$[ebp]
  00097	50		 push	 eax
  00098	e8 00 00 00 00	 call	 ?get_local_force_entity@@YGPAUENTITY@@W4ENTITY_SIDES@@@Z ; get_local_force_entity
  0009d	89 45 fc	 mov	 DWORD PTR _force$[ebp], eax

; 805  : 
; 806  : 	ASSERT (force);

  000a0	83 7d fc 00	 cmp	 DWORD PTR _force$[ebp], 0
  000a4	75 18		 jne	 SHORT $LN6@create_rea
  000a6	a1 00 00 00 00	 mov	 eax, DWORD PTR ?__LINE__Var@?0??create_reaction_to_map_click@@YGXPAUENTITY@@@Z@4JA
  000ab	83 c0 12	 add	 eax, 18			; 00000012H
  000ae	50		 push	 eax
  000af	68 00 00 00 00	 push	 OFFSET ??_C@_0ED@PAFNPDBA@c?3?2users?2nhv90?2projects?2eech?2ap@
  000b4	68 00 00 00 00	 push	 OFFSET ??_C@_05BINPNAAL@force@
  000b9	e8 00 00 00 00	 call	 ?process_assert@@YGXPBD0H@Z ; process_assert
$LN6@create_rea:

; 807  : 
; 808  : 	sub_type = get_local_entity_int_value (objective, INT_TYPE_ENTITY_SUB_TYPE);

  000be	83 7d 08 00	 cmp	 DWORD PTR _objective$[ebp], 0
  000c2	74 0a		 je	 SHORT $LN34@create_rea
  000c4	8b 45 08	 mov	 eax, DWORD PTR _objective$[ebp]
  000c7	8b 08		 mov	 ecx, DWORD PTR [eax]
  000c9	89 4d a0	 mov	 DWORD PTR tv129[ebp], ecx
  000cc	eb 21		 jmp	 SHORT $LN35@create_rea
$LN34@create_rea:
  000ce	8b 15 00 00 00
	00		 mov	 edx, DWORD PTR ?__LINE__Var@?0??create_reaction_to_map_click@@YGXPAUENTITY@@@Z@4JA
  000d4	83 c2 14	 add	 edx, 20			; 00000014H
  000d7	52		 push	 edx
  000d8	68 00 00 00 00	 push	 OFFSET ??_C@_0ED@PAFNPDBA@c?3?2users?2nhv90?2projects?2eech?2ap@
  000dd	a1 00 00 00 00	 mov	 eax, DWORD PTR ?null_entity_pointer_message@@3PBDB ; null_entity_pointer_message
  000e2	50		 push	 eax
  000e3	e8 00 00 00 00	 call	 ?process_assert@@YGXPBD0H@Z ; process_assert
  000e8	c7 45 a0 00 00
	00 00		 mov	 DWORD PTR tv129[ebp], 0
$LN35@create_rea:
  000ef	b9 01 00 00 00	 mov	 ecx, 1
  000f4	85 c9		 test	 ecx, ecx
  000f6	74 09		 je	 SHORT $LN36@create_rea
  000f8	c7 45 9c 34 00
	00 00		 mov	 DWORD PTR tv137[ebp], 52 ; 00000034H
  000ff	eb 21		 jmp	 SHORT $LN37@create_rea
$LN36@create_rea:
  00101	8b 15 00 00 00
	00		 mov	 edx, DWORD PTR ?__LINE__Var@?0??create_reaction_to_map_click@@YGXPAUENTITY@@@Z@4JA
  00107	83 c2 14	 add	 edx, 20			; 00000014H
  0010a	52		 push	 edx
  0010b	68 00 00 00 00	 push	 OFFSET ??_C@_0ED@PAFNPDBA@c?3?2users?2nhv90?2projects?2eech?2ap@
  00110	a1 00 00 00 00	 mov	 eax, DWORD PTR ?overload_invalid_int_type_message@@3PBDB ; overload_invalid_int_type_message
  00115	50		 push	 eax
  00116	e8 00 00 00 00	 call	 ?process_assert@@YGXPBD0H@Z ; process_assert
  0011b	c7 45 9c 00 00
	00 00		 mov	 DWORD PTR tv137[ebp], 0
$LN37@create_rea:
  00122	6a 34		 push	 52			; 00000034H
  00124	8b 4d 08	 mov	 ecx, DWORD PTR _objective$[ebp]
  00127	51		 push	 ecx
  00128	69 55 a0 5c 04
	00 00		 imul	 edx, DWORD PTR tv129[ebp], 1116
  0012f	8b 45 9c	 mov	 eax, DWORD PTR tv137[ebp]
  00132	8b 8c 82 00 00
	00 00		 mov	 ecx, DWORD PTR ?fn_get_local_entity_int_value@@3PAY0BBH@P6GHPAUENTITY@@W4INT_TYPES@@@ZA[edx+eax*4]
  00139	ff d1		 call	 ecx
  0013b	89 45 f0	 mov	 DWORD PTR _sub_type$[ebp], eax

; 809  : 
; 810  : 	switch (get_local_entity_type (objective))

  0013e	83 7d 08 00	 cmp	 DWORD PTR _objective$[ebp], 0
  00142	74 0a		 je	 SHORT $LN38@create_rea
  00144	8b 45 08	 mov	 eax, DWORD PTR _objective$[ebp]
  00147	8b 08		 mov	 ecx, DWORD PTR [eax]
  00149	89 4d a0	 mov	 DWORD PTR tv148[ebp], ecx
  0014c	eb 1d		 jmp	 SHORT $LN39@create_rea
$LN38@create_rea:
  0014e	68 2a 03 00 00	 push	 810			; 0000032aH
  00153	68 00 00 00 00	 push	 OFFSET ??_C@_0ED@PAFNPDBA@c?3?2users?2nhv90?2projects?2eech?2ap@
  00158	8b 15 00 00 00
	00		 mov	 edx, DWORD PTR ?null_entity_pointer_message@@3PBDB ; null_entity_pointer_message
  0015e	52		 push	 edx
  0015f	e8 00 00 00 00	 call	 ?process_assert@@YGXPBD0H@Z ; process_assert
  00164	c7 45 a0 00 00
	00 00		 mov	 DWORD PTR tv148[ebp], 0
$LN39@create_rea:
  0016b	8b 45 a0	 mov	 eax, DWORD PTR tv148[ebp]
  0016e	89 45 9c	 mov	 DWORD PTR tv149[ebp], eax
  00171	83 7d 9c 0c	 cmp	 DWORD PTR tv149[ebp], 12 ; 0000000cH
  00175	0f 84 b3 02 00
	00		 je	 $LN20@create_rea
  0017b	83 7d 9c 0f	 cmp	 DWORD PTR tv149[ebp], 15 ; 0000000fH
  0017f	74 05		 je	 SHORT $LN7@create_rea
  00181	e9 a5 04 00 00	 jmp	 $LN2@create_rea
$LN7@create_rea:

; 811  : 	{
; 812  : 		case ENTITY_TYPE_KEYSITE:
; 813  : 		{
; 814  : 			efficiency = get_local_entity_float_value (objective, FLOAT_TYPE_EFFICIENCY);

  00186	83 7d 08 00	 cmp	 DWORD PTR _objective$[ebp], 0
  0018a	74 0a		 je	 SHORT $LN40@create_rea
  0018c	8b 45 08	 mov	 eax, DWORD PTR _objective$[ebp]
  0018f	8b 08		 mov	 ecx, DWORD PTR [eax]
  00191	89 4d a0	 mov	 DWORD PTR tv156[ebp], ecx
  00194	eb 21		 jmp	 SHORT $LN41@create_rea
$LN40@create_rea:
  00196	8b 15 00 00 00
	00		 mov	 edx, DWORD PTR ?__LINE__Var@?0??create_reaction_to_map_click@@YGXPAUENTITY@@@Z@4JA
  0019c	83 c2 1a	 add	 edx, 26			; 0000001aH
  0019f	52		 push	 edx
  001a0	68 00 00 00 00	 push	 OFFSET ??_C@_0ED@PAFNPDBA@c?3?2users?2nhv90?2projects?2eech?2ap@
  001a5	a1 00 00 00 00	 mov	 eax, DWORD PTR ?null_entity_pointer_message@@3PBDB ; null_entity_pointer_message
  001aa	50		 push	 eax
  001ab	e8 00 00 00 00	 call	 ?process_assert@@YGXPBD0H@Z ; process_assert
  001b0	c7 45 a0 00 00
	00 00		 mov	 DWORD PTR tv156[ebp], 0
$LN41@create_rea:
  001b7	b9 01 00 00 00	 mov	 ecx, 1
  001bc	85 c9		 test	 ecx, ecx
  001be	74 09		 je	 SHORT $LN42@create_rea
  001c0	c7 45 9c 21 00
	00 00		 mov	 DWORD PTR tv164[ebp], 33 ; 00000021H
  001c7	eb 21		 jmp	 SHORT $LN43@create_rea
$LN42@create_rea:
  001c9	8b 15 00 00 00
	00		 mov	 edx, DWORD PTR ?__LINE__Var@?0??create_reaction_to_map_click@@YGXPAUENTITY@@@Z@4JA
  001cf	83 c2 1a	 add	 edx, 26			; 0000001aH
  001d2	52		 push	 edx
  001d3	68 00 00 00 00	 push	 OFFSET ??_C@_0ED@PAFNPDBA@c?3?2users?2nhv90?2projects?2eech?2ap@
  001d8	a1 00 00 00 00	 mov	 eax, DWORD PTR ?overload_invalid_float_type_message@@3PBDB ; overload_invalid_float_type_message
  001dd	50		 push	 eax
  001de	e8 00 00 00 00	 call	 ?process_assert@@YGXPBD0H@Z ; process_assert
  001e3	c7 45 9c 00 00
	00 00		 mov	 DWORD PTR tv164[ebp], 0
$LN43@create_rea:
  001ea	6a 21		 push	 33			; 00000021H
  001ec	8b 4d 08	 mov	 ecx, DWORD PTR _objective$[ebp]
  001ef	51		 push	 ecx
  001f0	69 55 a0 bc 02
	00 00		 imul	 edx, DWORD PTR tv156[ebp], 700
  001f7	8b 45 9c	 mov	 eax, DWORD PTR tv164[ebp]
  001fa	8b 8c 82 00 00
	00 00		 mov	 ecx, DWORD PTR ?fn_get_local_entity_float_value@@3PAY0KP@P6GMPAUENTITY@@W4FLOAT_TYPES@@@ZA[edx+eax*4]
  00201	ff d1		 call	 ecx
  00203	d9 5d ec	 fstp	 DWORD PTR _efficiency$[ebp]

; 815  : 
; 816  : 			if (get_local_entity_int_value (objective, INT_TYPE_ALIVE))

  00206	83 7d 08 00	 cmp	 DWORD PTR _objective$[ebp], 0
  0020a	74 0a		 je	 SHORT $LN44@create_rea
  0020c	8b 45 08	 mov	 eax, DWORD PTR _objective$[ebp]
  0020f	8b 08		 mov	 ecx, DWORD PTR [eax]
  00211	89 4d a0	 mov	 DWORD PTR tv175[ebp], ecx
  00214	eb 1d		 jmp	 SHORT $LN45@create_rea
$LN44@create_rea:
  00216	68 30 03 00 00	 push	 816			; 00000330H
  0021b	68 00 00 00 00	 push	 OFFSET ??_C@_0ED@PAFNPDBA@c?3?2users?2nhv90?2projects?2eech?2ap@
  00220	8b 15 00 00 00
	00		 mov	 edx, DWORD PTR ?null_entity_pointer_message@@3PBDB ; null_entity_pointer_message
  00226	52		 push	 edx
  00227	e8 00 00 00 00	 call	 ?process_assert@@YGXPBD0H@Z ; process_assert
  0022c	c7 45 a0 00 00
	00 00		 mov	 DWORD PTR tv175[ebp], 0
$LN45@create_rea:
  00233	b8 01 00 00 00	 mov	 eax, 1
  00238	85 c0		 test	 eax, eax
  0023a	74 09		 je	 SHORT $LN46@create_rea
  0023c	c7 45 9c 07 00
	00 00		 mov	 DWORD PTR tv182[ebp], 7
  00243	eb 1d		 jmp	 SHORT $LN47@create_rea
$LN46@create_rea:
  00245	68 30 03 00 00	 push	 816			; 00000330H
  0024a	68 00 00 00 00	 push	 OFFSET ??_C@_0ED@PAFNPDBA@c?3?2users?2nhv90?2projects?2eech?2ap@
  0024f	8b 0d 00 00 00
	00		 mov	 ecx, DWORD PTR ?overload_invalid_int_type_message@@3PBDB ; overload_invalid_int_type_message
  00255	51		 push	 ecx
  00256	e8 00 00 00 00	 call	 ?process_assert@@YGXPBD0H@Z ; process_assert
  0025b	c7 45 9c 00 00
	00 00		 mov	 DWORD PTR tv182[ebp], 0
$LN47@create_rea:
  00262	6a 07		 push	 7
  00264	8b 55 08	 mov	 edx, DWORD PTR _objective$[ebp]
  00267	52		 push	 edx
  00268	69 45 a0 5c 04
	00 00		 imul	 eax, DWORD PTR tv175[ebp], 1116
  0026f	8b 4d 9c	 mov	 ecx, DWORD PTR tv182[ebp]
  00272	8b 94 88 00 00
	00 00		 mov	 edx, DWORD PTR ?fn_get_local_entity_int_value@@3PAY0BBH@P6GHPAUENTITY@@W4INT_TYPES@@@ZA[eax+ecx*4]
  00279	ff d2		 call	 edx
  0027b	85 c0		 test	 eax, eax
  0027d	0f 84 a6 01 00
	00		 je	 $LN19@create_rea

; 817  : 			{
; 818  : 
; 819  : 				if (keysite_database [sub_type].troop_insertion_target)

  00283	6b 45 f0 44	 imul	 eax, DWORD PTR _sub_type$[ebp], 68
  00287	8b 88 40 00 00
	00		 mov	 ecx, DWORD PTR ?keysite_database@@3PAUKEYSITE_DATA@@A[eax+64]
  0028d	c1 e9 0c	 shr	 ecx, 12			; 0000000cH
  00290	83 e1 01	 and	 ecx, 1
  00293	74 53		 je	 SHORT $LN11@create_rea

; 820  : 				{
; 821  : 					//
; 822  : 					// check keysite efficiency - if less than threshold level then create T.I.
; 823  : 					//
; 824  : 	
; 825  : 					if (efficiency < keysite_database [sub_type].minimum_efficiency)

  00295	6b 45 f0 44	 imul	 eax, DWORD PTR _sub_type$[ebp], 68
  00299	f3 0f 10 80 1c
	00 00 00	 movss	 xmm0, DWORD PTR ?keysite_database@@3PAUKEYSITE_DATA@@A[eax+28]
  002a1	0f 2f 45 ec	 comiss	 xmm0, DWORD PTR _efficiency$[ebp]
  002a5	76 41		 jbe	 SHORT $LN11@create_rea

; 826  : 					{
; 827  : 						if (!entity_is_object_of_task (objective, ENTITY_SUB_TYPE_TASK_TROOP_INSERTION, task_side))

  002a7	8b 45 f4	 mov	 eax, DWORD PTR _task_side$[ebp]
  002aa	50		 push	 eax
  002ab	6a 1a		 push	 26			; 0000001aH
  002ad	8b 4d 08	 mov	 ecx, DWORD PTR _objective$[ebp]
  002b0	51		 push	 ecx
  002b1	e8 00 00 00 00	 call	 ?entity_is_object_of_task@@YGHPAUENTITY@@HW4ENTITY_SIDES@@@Z ; entity_is_object_of_task
  002b6	85 c0		 test	 eax, eax
  002b8	75 2e		 jne	 SHORT $LN11@create_rea

; 828  : 						{
; 829  : 							new_task = create_troop_insertion_task (task_side, objective, NULL, TRUE, task_database [ENTITY_SUB_TYPE_TASK_TROOP_INSERTION].task_priority, NULL, NULL);

  002ba	6a 00		 push	 0
  002bc	6a 00		 push	 0
  002be	b8 50 00 00 00	 mov	 eax, 80			; 00000050H
  002c3	6b c8 1a	 imul	 ecx, eax, 26
  002c6	51		 push	 ecx
  002c7	f3 0f 10 81 10
	00 00 00	 movss	 xmm0, DWORD PTR ?task_database@@3PAUTASK_DATA@@A[ecx+16]
  002cf	f3 0f 11 04 24	 movss	 DWORD PTR [esp], xmm0
  002d4	6a 01		 push	 1
  002d6	6a 00		 push	 0
  002d8	8b 55 08	 mov	 edx, DWORD PTR _objective$[ebp]
  002db	52		 push	 edx
  002dc	8b 45 f4	 mov	 eax, DWORD PTR _task_side$[ebp]
  002df	50		 push	 eax
  002e0	e8 00 00 00 00	 call	 ?create_troop_insertion_task@@YGPAUENTITY@@W4ENTITY_SIDES@@PAU1@1HM11@Z ; create_troop_insertion_task
  002e5	89 45 f8	 mov	 DWORD PTR _new_task$[ebp], eax
$LN11@create_rea:

; 830  : 	
; 831  : 						}
; 832  : 					}
; 833  : 				}
; 834  : 	
; 835  : 				if (keysite_database [sub_type].ground_strike_target)

  002e8	6b 45 f0 44	 imul	 eax, DWORD PTR _sub_type$[ebp], 68
  002ec	8b 88 40 00 00
	00		 mov	 ecx, DWORD PTR ?keysite_database@@3PAUKEYSITE_DATA@@A[eax+64]
  002f2	c1 e9 0a	 shr	 ecx, 10			; 0000000aH
  002f5	83 e1 01	 and	 ecx, 1
  002f8	74 58		 je	 SHORT $LN12@create_rea

; 836  : 				{
; 837  : 					if (efficiency >= keysite_database [sub_type].minimum_efficiency)

  002fa	6b 45 f0 44	 imul	 eax, DWORD PTR _sub_type$[ebp], 68
  002fe	f3 0f 10 45 ec	 movss	 xmm0, DWORD PTR _efficiency$[ebp]
  00303	0f 2f 80 1c 00
	00 00		 comiss	 xmm0, DWORD PTR ?keysite_database@@3PAUKEYSITE_DATA@@A[eax+28]
  0030a	72 41		 jb	 SHORT $LN15@create_rea

; 838  : 					{
; 839  : 						if (!entity_is_object_of_task (objective, ENTITY_SUB_TYPE_TASK_GROUND_STRIKE, task_side))

  0030c	8b 45 f4	 mov	 eax, DWORD PTR _task_side$[ebp]
  0030f	50		 push	 eax
  00310	6a 0c		 push	 12			; 0000000cH
  00312	8b 4d 08	 mov	 ecx, DWORD PTR _objective$[ebp]
  00315	51		 push	 ecx
  00316	e8 00 00 00 00	 call	 ?entity_is_object_of_task@@YGHPAUENTITY@@HW4ENTITY_SIDES@@@Z ; entity_is_object_of_task
  0031b	85 c0		 test	 eax, eax
  0031d	75 2e		 jne	 SHORT $LN15@create_rea

; 840  : 						{
; 841  : 							new_task = create_ground_strike_task (task_side, objective, NULL, TRUE, task_database [ENTITY_SUB_TYPE_TASK_GROUND_STRIKE].task_priority, NULL, NULL);

  0031f	6a 00		 push	 0
  00321	6a 00		 push	 0
  00323	b8 50 00 00 00	 mov	 eax, 80			; 00000050H
  00328	6b c8 0c	 imul	 ecx, eax, 12
  0032b	51		 push	 ecx
  0032c	f3 0f 10 81 10
	00 00 00	 movss	 xmm0, DWORD PTR ?task_database@@3PAUTASK_DATA@@A[ecx+16]
  00334	f3 0f 11 04 24	 movss	 DWORD PTR [esp], xmm0
  00339	6a 01		 push	 1
  0033b	6a 00		 push	 0
  0033d	8b 55 08	 mov	 edx, DWORD PTR _objective$[ebp]
  00340	52		 push	 edx
  00341	8b 45 f4	 mov	 eax, DWORD PTR _task_side$[ebp]
  00344	50		 push	 eax
  00345	e8 00 00 00 00	 call	 ?create_ground_strike_task@@YGPAUENTITY@@W4ENTITY_SIDES@@PAU1@1HM11@Z ; create_ground_strike_task
  0034a	89 45 f8	 mov	 DWORD PTR _new_task$[ebp], eax
$LN15@create_rea:

; 842  : 						}
; 843  : 					}
; 844  : 				}
; 845  : 				else

  0034d	e9 98 00 00 00	 jmp	 $LN18@create_rea
$LN12@create_rea:

; 846  : 				{
; 847  : 					if (keysite_database [sub_type].oca_target)

  00352	6b 45 f0 44	 imul	 eax, DWORD PTR _sub_type$[ebp], 68
  00356	8b 88 40 00 00
	00		 mov	 ecx, DWORD PTR ?keysite_database@@3PAUKEYSITE_DATA@@A[eax+64]
  0035c	c1 e9 08	 shr	 ecx, 8
  0035f	83 e1 01	 and	 ecx, 1
  00362	0f 84 82 00 00
	00		 je	 $LN18@create_rea

; 848  : 					{
; 849  : 						if (!entity_is_object_of_task (objective, ENTITY_SUB_TYPE_TASK_OCA_STRIKE, task_side))

  00368	8b 45 f4	 mov	 eax, DWORD PTR _task_side$[ebp]
  0036b	50		 push	 eax
  0036c	6a 0f		 push	 15			; 0000000fH
  0036e	8b 4d 08	 mov	 ecx, DWORD PTR _objective$[ebp]
  00371	51		 push	 ecx
  00372	e8 00 00 00 00	 call	 ?entity_is_object_of_task@@YGHPAUENTITY@@HW4ENTITY_SIDES@@@Z ; entity_is_object_of_task
  00377	85 c0		 test	 eax, eax
  00379	75 2e		 jne	 SHORT $LN17@create_rea

; 850  : 						{
; 851  : 							new_task = create_oca_strike_task (task_side, objective, NULL, TRUE, task_database [ENTITY_SUB_TYPE_TASK_OCA_STRIKE].task_priority, NULL, NULL);

  0037b	6a 00		 push	 0
  0037d	6a 00		 push	 0
  0037f	b8 50 00 00 00	 mov	 eax, 80			; 00000050H
  00384	6b c8 0f	 imul	 ecx, eax, 15
  00387	51		 push	 ecx
  00388	f3 0f 10 81 10
	00 00 00	 movss	 xmm0, DWORD PTR ?task_database@@3PAUTASK_DATA@@A[ecx+16]
  00390	f3 0f 11 04 24	 movss	 DWORD PTR [esp], xmm0
  00395	6a 01		 push	 1
  00397	6a 00		 push	 0
  00399	8b 55 08	 mov	 edx, DWORD PTR _objective$[ebp]
  0039c	52		 push	 edx
  0039d	8b 45 f4	 mov	 eax, DWORD PTR _task_side$[ebp]
  003a0	50		 push	 eax
  003a1	e8 00 00 00 00	 call	 ?create_oca_strike_task@@YGPAUENTITY@@W4ENTITY_SIDES@@PAU1@1HM11@Z ; create_oca_strike_task
  003a6	89 45 f8	 mov	 DWORD PTR _new_task$[ebp], eax
$LN17@create_rea:

; 852  : 	
; 853  : 						}
; 854  : 					
; 855  : 						if (!entity_is_object_of_task (objective, ENTITY_SUB_TYPE_TASK_OCA_SWEEP, task_side))

  003a9	8b 45 f4	 mov	 eax, DWORD PTR _task_side$[ebp]
  003ac	50		 push	 eax
  003ad	6a 10		 push	 16			; 00000010H
  003af	8b 4d 08	 mov	 ecx, DWORD PTR _objective$[ebp]
  003b2	51		 push	 ecx
  003b3	e8 00 00 00 00	 call	 ?entity_is_object_of_task@@YGHPAUENTITY@@HW4ENTITY_SIDES@@@Z ; entity_is_object_of_task
  003b8	85 c0		 test	 eax, eax
  003ba	75 2e		 jne	 SHORT $LN18@create_rea

; 856  : 						{
; 857  : 							new_task = create_oca_sweep_task (task_side, objective, NULL, TRUE, task_database [ENTITY_SUB_TYPE_TASK_OCA_SWEEP].task_priority, NULL, NULL);

  003bc	6a 00		 push	 0
  003be	6a 00		 push	 0
  003c0	b8 50 00 00 00	 mov	 eax, 80			; 00000050H
  003c5	c1 e0 04	 shl	 eax, 4
  003c8	51		 push	 ecx
  003c9	f3 0f 10 80 10
	00 00 00	 movss	 xmm0, DWORD PTR ?task_database@@3PAUTASK_DATA@@A[eax+16]
  003d1	f3 0f 11 04 24	 movss	 DWORD PTR [esp], xmm0
  003d6	6a 01		 push	 1
  003d8	6a 00		 push	 0
  003da	8b 4d 08	 mov	 ecx, DWORD PTR _objective$[ebp]
  003dd	51		 push	 ecx
  003de	8b 55 f4	 mov	 edx, DWORD PTR _task_side$[ebp]
  003e1	52		 push	 edx
  003e2	e8 00 00 00 00	 call	 ?create_oca_sweep_task@@YGPAUENTITY@@W4ENTITY_SIDES@@PAU1@1HM11@Z ; create_oca_sweep_task
  003e7	89 45 f8	 mov	 DWORD PTR _new_task$[ebp], eax
$LN18@create_rea:

; 858  : 		
; 859  : 						}
; 860  : 					}
; 861  : 				}
; 862  : 	
; 863  : 				if (keysite_database [sub_type].ship_strike_target)

  003ea	6b 45 f0 44	 imul	 eax, DWORD PTR _sub_type$[ebp], 68
  003ee	8b 88 40 00 00
	00		 mov	 ecx, DWORD PTR ?keysite_database@@3PAUKEYSITE_DATA@@A[eax+64]
  003f4	c1 e9 0b	 shr	 ecx, 11			; 0000000bH
  003f7	83 e1 01	 and	 ecx, 1
  003fa	74 2d		 je	 SHORT $LN19@create_rea

; 864  : 				{
; 865  : 					new_task = create_anti_ship_strike_task (task_side, objective, NULL, TRUE, task_database [ENTITY_SUB_TYPE_TASK_ANTI_SHIP_STRIKE].task_priority, NULL, NULL);

  003fc	6a 00		 push	 0
  003fe	6a 00		 push	 0
  00400	b8 50 00 00 00	 mov	 eax, 80			; 00000050H
  00405	d1 e0		 shl	 eax, 1
  00407	51		 push	 ecx
  00408	f3 0f 10 80 10
	00 00 00	 movss	 xmm0, DWORD PTR ?task_database@@3PAUTASK_DATA@@A[eax+16]
  00410	f3 0f 11 04 24	 movss	 DWORD PTR [esp], xmm0
  00415	6a 01		 push	 1
  00417	6a 00		 push	 0
  00419	8b 4d 08	 mov	 ecx, DWORD PTR _objective$[ebp]
  0041c	51		 push	 ecx
  0041d	8b 55 f4	 mov	 edx, DWORD PTR _task_side$[ebp]
  00420	52		 push	 edx
  00421	e8 00 00 00 00	 call	 ?create_anti_ship_strike_task@@YGPAUENTITY@@W4ENTITY_SIDES@@PAU1@1HM11@Z ; create_anti_ship_strike_task
  00426	89 45 f8	 mov	 DWORD PTR _new_task$[ebp], eax
$LN19@create_rea:

; 866  : 	
; 867  : 				}
; 868  : 			}
; 869  : 			break;

  00429	e9 fd 01 00 00	 jmp	 $LN2@create_rea
$LN20@create_rea:

; 870  : 		}
; 871  : 		
; 872  : 		case ENTITY_TYPE_GROUP:
; 873  : 		{
; 874  : 			switch (sub_type)

  0042e	8b 45 f0	 mov	 eax, DWORD PTR _sub_type$[ebp]
  00431	89 45 a0	 mov	 DWORD PTR tv296[ebp], eax
  00434	83 7d a0 12	 cmp	 DWORD PTR tv296[ebp], 18 ; 00000012H
  00438	0f 87 ed 01 00
	00		 ja	 $LN4@create_rea
  0043e	8b 4d a0	 mov	 ecx, DWORD PTR tv296[ebp]
  00441	0f b6 91 00 00
	00 00		 movzx	 edx, BYTE PTR $LN56@create_rea[ecx]
  00448	ff 24 95 00 00
	00 00		 jmp	 DWORD PTR $LN57@create_rea[edx*4]
$LN21@create_rea:

; 875  : 			{
; 876  : 				case ENTITY_SUB_TYPE_GROUP_ANTI_AIRCRAFT:
; 877  : 				{
; 878  : 					int
; 879  : 						member_count;
; 880  : 
; 881  : 					member_count = get_local_entity_int_value (objective, INT_TYPE_MEMBER_COUNT);

  0044f	83 7d 08 00	 cmp	 DWORD PTR _objective$[ebp], 0
  00453	74 0a		 je	 SHORT $LN48@create_rea
  00455	8b 45 08	 mov	 eax, DWORD PTR _objective$[ebp]
  00458	8b 08		 mov	 ecx, DWORD PTR [eax]
  0045a	89 4d a0	 mov	 DWORD PTR tv303[ebp], ecx
  0045d	eb 21		 jmp	 SHORT $LN49@create_rea
$LN48@create_rea:
  0045f	8b 15 00 00 00
	00		 mov	 edx, DWORD PTR ?__LINE__Var@?0??create_reaction_to_map_click@@YGXPAUENTITY@@@Z@4JA
  00465	83 c2 5d	 add	 edx, 93			; 0000005dH
  00468	52		 push	 edx
  00469	68 00 00 00 00	 push	 OFFSET ??_C@_0ED@PAFNPDBA@c?3?2users?2nhv90?2projects?2eech?2ap@
  0046e	a1 00 00 00 00	 mov	 eax, DWORD PTR ?null_entity_pointer_message@@3PBDB ; null_entity_pointer_message
  00473	50		 push	 eax
  00474	e8 00 00 00 00	 call	 ?process_assert@@YGXPBD0H@Z ; process_assert
  00479	c7 45 a0 00 00
	00 00		 mov	 DWORD PTR tv303[ebp], 0
$LN49@create_rea:
  00480	b9 01 00 00 00	 mov	 ecx, 1
  00485	85 c9		 test	 ecx, ecx
  00487	74 09		 je	 SHORT $LN50@create_rea
  00489	c7 45 9c 86 00
	00 00		 mov	 DWORD PTR tv311[ebp], 134 ; 00000086H
  00490	eb 21		 jmp	 SHORT $LN51@create_rea
$LN50@create_rea:
  00492	8b 15 00 00 00
	00		 mov	 edx, DWORD PTR ?__LINE__Var@?0??create_reaction_to_map_click@@YGXPAUENTITY@@@Z@4JA
  00498	83 c2 5d	 add	 edx, 93			; 0000005dH
  0049b	52		 push	 edx
  0049c	68 00 00 00 00	 push	 OFFSET ??_C@_0ED@PAFNPDBA@c?3?2users?2nhv90?2projects?2eech?2ap@
  004a1	a1 00 00 00 00	 mov	 eax, DWORD PTR ?overload_invalid_int_type_message@@3PBDB ; overload_invalid_int_type_message
  004a6	50		 push	 eax
  004a7	e8 00 00 00 00	 call	 ?process_assert@@YGXPBD0H@Z ; process_assert
  004ac	c7 45 9c 00 00
	00 00		 mov	 DWORD PTR tv311[ebp], 0
$LN51@create_rea:
  004b3	68 86 00 00 00	 push	 134			; 00000086H
  004b8	8b 4d 08	 mov	 ecx, DWORD PTR _objective$[ebp]
  004bb	51		 push	 ecx
  004bc	69 55 a0 5c 04
	00 00		 imul	 edx, DWORD PTR tv303[ebp], 1116
  004c3	8b 45 9c	 mov	 eax, DWORD PTR tv311[ebp]
  004c6	8b 8c 82 00 00
	00 00		 mov	 ecx, DWORD PTR ?fn_get_local_entity_int_value@@3PAY0BBH@P6GHPAUENTITY@@W4INT_TYPES@@@ZA[edx+eax*4]
  004cd	ff d1		 call	 ecx
  004cf	89 45 e8	 mov	 DWORD PTR _member_count$2[ebp], eax

; 882  : 
; 883  : 					if (member_count > 0)

  004d2	83 7d e8 00	 cmp	 DWORD PTR _member_count$2[ebp], 0
  004d6	7e 41		 jle	 SHORT $LN23@create_rea

; 884  : 					{
; 885  : 						if (!entity_is_object_of_task (objective, ENTITY_SUB_TYPE_TASK_SEAD, task_side))

  004d8	8b 45 f4	 mov	 eax, DWORD PTR _task_side$[ebp]
  004db	50		 push	 eax
  004dc	6a 14		 push	 20			; 00000014H
  004de	8b 4d 08	 mov	 ecx, DWORD PTR _objective$[ebp]
  004e1	51		 push	 ecx
  004e2	e8 00 00 00 00	 call	 ?entity_is_object_of_task@@YGHPAUENTITY@@HW4ENTITY_SIDES@@@Z ; entity_is_object_of_task
  004e7	85 c0		 test	 eax, eax
  004e9	75 2e		 jne	 SHORT $LN23@create_rea

; 886  : 						{
; 887  : 							new_task = create_sead_task (task_side, objective, NULL, TRUE, task_database [ENTITY_SUB_TYPE_TASK_SEAD].task_priority, NULL, NULL);

  004eb	6a 00		 push	 0
  004ed	6a 00		 push	 0
  004ef	b8 50 00 00 00	 mov	 eax, 80			; 00000050H
  004f4	6b c8 14	 imul	 ecx, eax, 20
  004f7	51		 push	 ecx
  004f8	f3 0f 10 81 10
	00 00 00	 movss	 xmm0, DWORD PTR ?task_database@@3PAUTASK_DATA@@A[ecx+16]
  00500	f3 0f 11 04 24	 movss	 DWORD PTR [esp], xmm0
  00505	6a 01		 push	 1
  00507	6a 00		 push	 0
  00509	8b 55 08	 mov	 edx, DWORD PTR _objective$[ebp]
  0050c	52		 push	 edx
  0050d	8b 45 f4	 mov	 eax, DWORD PTR _task_side$[ebp]
  00510	50		 push	 eax
  00511	e8 00 00 00 00	 call	 ?create_sead_task@@YGPAUENTITY@@W4ENTITY_SIDES@@PAU1@1HM11@Z ; create_sead_task
  00516	89 45 f8	 mov	 DWORD PTR _new_task$[ebp], eax
$LN23@create_rea:

; 888  : 	
; 889  : 						}	
; 890  : 					}
; 891  : 					break;

  00519	e9 0d 01 00 00	 jmp	 $LN4@create_rea
$LN24@create_rea:

; 892  : 				}
; 893  : 			
; 894  : 				case ENTITY_SUB_TYPE_GROUP_PRIMARY_FRONTLINE:
; 895  : 				case ENTITY_SUB_TYPE_GROUP_SECONDARY_FRONTLINE:
; 896  : 				case ENTITY_SUB_TYPE_GROUP_SELF_PROPELLED_ARTILLERY:
; 897  : 				case ENTITY_SUB_TYPE_GROUP_SELF_PROPELLED_MLRS:
; 898  : 				{
; 899  : 					int
; 900  : 						member_count;
; 901  : 
; 902  : 					member_count = get_local_entity_int_value (objective, INT_TYPE_MEMBER_COUNT);

  0051e	83 7d 08 00	 cmp	 DWORD PTR _objective$[ebp], 0
  00522	74 0a		 je	 SHORT $LN52@create_rea
  00524	8b 45 08	 mov	 eax, DWORD PTR _objective$[ebp]
  00527	8b 08		 mov	 ecx, DWORD PTR [eax]
  00529	89 4d a0	 mov	 DWORD PTR tv340[ebp], ecx
  0052c	eb 21		 jmp	 SHORT $LN53@create_rea
$LN52@create_rea:
  0052e	8b 15 00 00 00
	00		 mov	 edx, DWORD PTR ?__LINE__Var@?0??create_reaction_to_map_click@@YGXPAUENTITY@@@Z@4JA
  00534	83 c2 72	 add	 edx, 114		; 00000072H
  00537	52		 push	 edx
  00538	68 00 00 00 00	 push	 OFFSET ??_C@_0ED@PAFNPDBA@c?3?2users?2nhv90?2projects?2eech?2ap@
  0053d	a1 00 00 00 00	 mov	 eax, DWORD PTR ?null_entity_pointer_message@@3PBDB ; null_entity_pointer_message
  00542	50		 push	 eax
  00543	e8 00 00 00 00	 call	 ?process_assert@@YGXPBD0H@Z ; process_assert
  00548	c7 45 a0 00 00
	00 00		 mov	 DWORD PTR tv340[ebp], 0
$LN53@create_rea:
  0054f	b9 01 00 00 00	 mov	 ecx, 1
  00554	85 c9		 test	 ecx, ecx
  00556	74 09		 je	 SHORT $LN54@create_rea
  00558	c7 45 9c 86 00
	00 00		 mov	 DWORD PTR tv348[ebp], 134 ; 00000086H
  0055f	eb 21		 jmp	 SHORT $LN55@create_rea
$LN54@create_rea:
  00561	8b 15 00 00 00
	00		 mov	 edx, DWORD PTR ?__LINE__Var@?0??create_reaction_to_map_click@@YGXPAUENTITY@@@Z@4JA
  00567	83 c2 72	 add	 edx, 114		; 00000072H
  0056a	52		 push	 edx
  0056b	68 00 00 00 00	 push	 OFFSET ??_C@_0ED@PAFNPDBA@c?3?2users?2nhv90?2projects?2eech?2ap@
  00570	a1 00 00 00 00	 mov	 eax, DWORD PTR ?overload_invalid_int_type_message@@3PBDB ; overload_invalid_int_type_message
  00575	50		 push	 eax
  00576	e8 00 00 00 00	 call	 ?process_assert@@YGXPBD0H@Z ; process_assert
  0057b	c7 45 9c 00 00
	00 00		 mov	 DWORD PTR tv348[ebp], 0
$LN55@create_rea:
  00582	68 86 00 00 00	 push	 134			; 00000086H
  00587	8b 4d 08	 mov	 ecx, DWORD PTR _objective$[ebp]
  0058a	51		 push	 ecx
  0058b	69 55 a0 5c 04
	00 00		 imul	 edx, DWORD PTR tv340[ebp], 1116
  00592	8b 45 9c	 mov	 eax, DWORD PTR tv348[ebp]
  00595	8b 8c 82 00 00
	00 00		 mov	 ecx, DWORD PTR ?fn_get_local_entity_int_value@@3PAY0BBH@P6GHPAUENTITY@@W4INT_TYPES@@@ZA[edx+eax*4]
  0059c	ff d1		 call	 ecx
  0059e	89 45 e4	 mov	 DWORD PTR _member_count$1[ebp], eax

; 903  : 
; 904  : 					if (member_count > 0)

  005a1	83 7d e4 00	 cmp	 DWORD PTR _member_count$1[ebp], 0
  005a5	7e 41		 jle	 SHORT $LN26@create_rea

; 905  : 					{
; 906  : 						if (!entity_is_object_of_task (objective, ENTITY_SUB_TYPE_TASK_BAI, task_side))

  005a7	8b 45 f4	 mov	 eax, DWORD PTR _task_side$[ebp]
  005aa	50		 push	 eax
  005ab	6a 03		 push	 3
  005ad	8b 4d 08	 mov	 ecx, DWORD PTR _objective$[ebp]
  005b0	51		 push	 ecx
  005b1	e8 00 00 00 00	 call	 ?entity_is_object_of_task@@YGHPAUENTITY@@HW4ENTITY_SIDES@@@Z ; entity_is_object_of_task
  005b6	85 c0		 test	 eax, eax
  005b8	75 2e		 jne	 SHORT $LN26@create_rea

; 907  : 						{
; 908  : 							new_task = create_bai_task (task_side, objective, NULL, TRUE, task_database [ENTITY_SUB_TYPE_TASK_BAI].task_priority, NULL, NULL);

  005ba	6a 00		 push	 0
  005bc	6a 00		 push	 0
  005be	b8 50 00 00 00	 mov	 eax, 80			; 00000050H
  005c3	6b c8 03	 imul	 ecx, eax, 3
  005c6	51		 push	 ecx
  005c7	f3 0f 10 81 10
	00 00 00	 movss	 xmm0, DWORD PTR ?task_database@@3PAUTASK_DATA@@A[ecx+16]
  005cf	f3 0f 11 04 24	 movss	 DWORD PTR [esp], xmm0
  005d4	6a 01		 push	 1
  005d6	6a 00		 push	 0
  005d8	8b 55 08	 mov	 edx, DWORD PTR _objective$[ebp]
  005db	52		 push	 edx
  005dc	8b 45 f4	 mov	 eax, DWORD PTR _task_side$[ebp]
  005df	50		 push	 eax
  005e0	e8 00 00 00 00	 call	 ?create_bai_task@@YGPAUENTITY@@W4ENTITY_SIDES@@PAU1@1HM11@Z ; create_bai_task
  005e5	89 45 f8	 mov	 DWORD PTR _new_task$[ebp], eax
$LN26@create_rea:

; 909  : 
; 910  : 						}	
; 911  : 					}
; 912  : 					break;

  005e8	eb 41		 jmp	 SHORT $LN4@create_rea
$LN27@create_rea:

; 913  : 				}
; 914  : 
; 915  : 				case ENTITY_SUB_TYPE_GROUP_ATTACK_HELICOPTER:
; 916  : 				case ENTITY_SUB_TYPE_GROUP_MARINE_ATTACK_HELICOPTER:
; 917  : 				case ENTITY_SUB_TYPE_GROUP_ASSAULT_HELICOPTER:
; 918  : 				case ENTITY_SUB_TYPE_GROUP_MARINE_ASSAULT_HELICOPTER:
; 919  : 				case ENTITY_SUB_TYPE_GROUP_RECON_HELICOPTER:
; 920  : 				case ENTITY_SUB_TYPE_GROUP_RECON_ATTACK_HELICOPTER:
; 921  : 				case ENTITY_SUB_TYPE_GROUP_MEDIUM_LIFT_TRANSPORT_HELICOPTER:
; 922  : 				case ENTITY_SUB_TYPE_GROUP_HEAVY_LIFT_TRANSPORT_HELICOPTER:
; 923  : 				case ENTITY_SUB_TYPE_GROUP_MULTI_ROLE_FIGHTER:
; 924  : 				case ENTITY_SUB_TYPE_GROUP_CARRIER_BORNE_ATTACK_AIRCRAFT:
; 925  : 				case ENTITY_SUB_TYPE_GROUP_CARRIER_BORNE_INTERCEPTOR:
; 926  : 				case ENTITY_SUB_TYPE_GROUP_CLOSE_AIR_SUPPORT_AIRCRAFT:
; 927  : 				case ENTITY_SUB_TYPE_GROUP_MEDIUM_LIFT_TRANSPORT_AIRCRAFT:
; 928  : 				case ENTITY_SUB_TYPE_GROUP_HEAVY_LIFT_TRANSPORT_AIRCRAFT:
; 929  : 				{
; 930  : 					if (!entity_is_object_of_task (objective, ENTITY_SUB_TYPE_TASK_CLOSE_AIR_SUPPORT, task_side))

  005ea	8b 45 f4	 mov	 eax, DWORD PTR _task_side$[ebp]
  005ed	50		 push	 eax
  005ee	6a 06		 push	 6
  005f0	8b 4d 08	 mov	 ecx, DWORD PTR _objective$[ebp]
  005f3	51		 push	 ecx
  005f4	e8 00 00 00 00	 call	 ?entity_is_object_of_task@@YGHPAUENTITY@@HW4ENTITY_SIDES@@@Z ; entity_is_object_of_task
  005f9	85 c0		 test	 eax, eax
  005fb	75 2e		 jne	 SHORT $LN28@create_rea

; 931  : 					{
; 932  : 						new_task = create_close_air_support_task (task_side, objective, NULL, TRUE, task_database [ENTITY_SUB_TYPE_TASK_CLOSE_AIR_SUPPORT].task_priority, NULL, NULL);

  005fd	6a 00		 push	 0
  005ff	6a 00		 push	 0
  00601	b8 50 00 00 00	 mov	 eax, 80			; 00000050H
  00606	6b c8 06	 imul	 ecx, eax, 6
  00609	51		 push	 ecx
  0060a	f3 0f 10 81 10
	00 00 00	 movss	 xmm0, DWORD PTR ?task_database@@3PAUTASK_DATA@@A[ecx+16]
  00612	f3 0f 11 04 24	 movss	 DWORD PTR [esp], xmm0
  00617	6a 01		 push	 1
  00619	6a 00		 push	 0
  0061b	8b 55 08	 mov	 edx, DWORD PTR _objective$[ebp]
  0061e	52		 push	 edx
  0061f	8b 45 f4	 mov	 eax, DWORD PTR _task_side$[ebp]
  00622	50		 push	 eax
  00623	e8 00 00 00 00	 call	 ?create_close_air_support_task@@YGPAUENTITY@@W4ENTITY_SIDES@@PAU1@1HM11@Z ; create_close_air_support_task
  00628	89 45 f8	 mov	 DWORD PTR _new_task$[ebp], eax
$LN28@create_rea:
$LN4@create_rea:
$LN2@create_rea:

; 933  : 					}
; 934  : 				}
; 935  : 				break;
; 936  : 			}
; 937  : 			break;
; 938  : 		}
; 939  : 	}
; 940  : 	
; 941  : }

  0062b	5f		 pop	 edi
  0062c	5e		 pop	 esi
  0062d	5b		 pop	 ebx
  0062e	8b e5		 mov	 esp, ebp
  00630	5d		 pop	 ebp
  00631	c2 04 00	 ret	 4
$LN57@create_rea:
  00634	00 00 00 00	 DD	 $LN27@create_rea
  00638	00 00 00 00	 DD	 $LN21@create_rea
  0063c	00 00 00 00	 DD	 $LN24@create_rea
$LN56@create_rea:
  00640	00		 DB	 0
  00641	00		 DB	 0
  00642	00		 DB	 0
  00643	00		 DB	 0
  00644	00		 DB	 0
  00645	00		 DB	 0
  00646	00		 DB	 0
  00647	00		 DB	 0
  00648	00		 DB	 0
  00649	00		 DB	 0
  0064a	00		 DB	 0
  0064b	00		 DB	 0
  0064c	00		 DB	 0
  0064d	00		 DB	 0
  0064e	01		 DB	 1
  0064f	02		 DB	 2
  00650	02		 DB	 2
  00651	02		 DB	 2
  00652	02		 DB	 2
?create_reaction_to_map_click@@YGXPAUENTITY@@@Z ENDP	; create_reaction_to_map_click
_TEXT	ENDS
; Function compile flags: /Odtp /ZI
; File c:\users\nhv90\projects\eech\aphavoc\source\ai\highlevl\reaction.c
;	COMDAT ?create_reaction_to_artillery_fire@@YGXPAUENTITY@@0@Z
_TEXT	SEGMENT
tv434 = -148						; size = 8
tv463 = -140						; size = 8
tv426 = -132						; size = 8
tv270 = -124						; size = 4
tv222 = -124						; size = 4
tv202 = -124						; size = 4
tv175 = -124						; size = 4
tv155 = -124						; size = 4
tv93 = -124						; size = 4
tv321 = -120						; size = 4
tv297 = -120						; size = 4
tv263 = -120						; size = 4
tv214 = -120						; size = 4
tv194 = -120						; size = 4
tv167 = -120						; size = 4
tv147 = -120						; size = 4
tv85 = -120						; size = 4
_pos$ = -52						; size = 4
_base_distance_rating$ = -48				; size = 4
_surface_defence_rating$ = -44				; size = 4
_air_defence_rating$ = -40				; size = 4
_priority$ = -36					; size = 4
_max_rating$ = -32					; size = 4
_rating$ = -28						; size = 4
_z$ = -24						; size = 4
_x$ = -20						; size = 4
_enemy_side$ = -16					; size = 4
_side$ = -12						; size = 4
_new_task$ = -8						; size = 4
_sector$ = -4						; size = 4
_group$ = 8						; size = 4
_target$ = 12						; size = 4
?create_reaction_to_artillery_fire@@YGXPAUENTITY@@0@Z PROC ; create_reaction_to_artillery_fire, COMDAT

; 673  : {

  00000	55		 push	 ebp
  00001	8b ec		 mov	 ebp, esp
  00003	81 ec 94 00 00
	00		 sub	 esp, 148		; 00000094H
  00009	53		 push	 ebx
  0000a	56		 push	 esi
  0000b	57		 push	 edi

; 674  : 	entity
; 675  : 		*sector,
; 676  : 		*new_task;
; 677  : 
; 678  : 	entity_sides
; 679  : 		side,
; 680  : 		enemy_side;
; 681  : 
; 682  : 	int
; 683  : 		x,
; 684  : 		z;
; 685  : 
; 686  : 	float
; 687  : 		rating,
; 688  : 		max_rating,
; 689  : 		priority,
; 690  : 		air_defence_rating,
; 691  : 		surface_defence_rating,
; 692  : 		base_distance_rating;
; 693  : 
; 694  : 	vec3d
; 695  : 		*pos;
; 696  : 
; 697  : 	//
; 698  : 	// Create Recon/BAI Task in response to artillery fire
; 699  : 	//
; 700  : 
; 701  : 	ASSERT (group);

  0000c	83 7d 08 00	 cmp	 DWORD PTR _group$[ebp], 0
  00010	75 18		 jne	 SHORT $LN2@create_rea
  00012	a1 00 00 00 00	 mov	 eax, DWORD PTR ?__LINE__Var@?0??create_reaction_to_artillery_fire@@YGXPAUENTITY@@0@Z@4JA
  00017	83 c0 1c	 add	 eax, 28			; 0000001cH
  0001a	50		 push	 eax
  0001b	68 00 00 00 00	 push	 OFFSET ??_C@_0ED@PAFNPDBA@c?3?2users?2nhv90?2projects?2eech?2ap@
  00020	68 00 00 00 00	 push	 OFFSET ??_C@_05MGJOOGAJ@group@
  00025	e8 00 00 00 00	 call	 ?process_assert@@YGXPBD0H@Z ; process_assert
$LN2@create_rea:

; 702  : 
; 703  : 	ASSERT (target);

  0002a	83 7d 0c 00	 cmp	 DWORD PTR _target$[ebp], 0
  0002e	75 18		 jne	 SHORT $LN3@create_rea
  00030	a1 00 00 00 00	 mov	 eax, DWORD PTR ?__LINE__Var@?0??create_reaction_to_artillery_fire@@YGXPAUENTITY@@0@Z@4JA
  00035	83 c0 1e	 add	 eax, 30			; 0000001eH
  00038	50		 push	 eax
  00039	68 00 00 00 00	 push	 OFFSET ??_C@_0ED@PAFNPDBA@c?3?2users?2nhv90?2projects?2eech?2ap@
  0003e	68 00 00 00 00	 push	 OFFSET ??_C@_06JJLAMBGK@target@
  00043	e8 00 00 00 00	 call	 ?process_assert@@YGXPBD0H@Z ; process_assert
$LN3@create_rea:

; 704  : 
; 705  : 	ASSERT (get_comms_model () == COMMS_MODEL_SERVER);

  00048	83 3d 00 00 00
	00 00		 cmp	 DWORD PTR ?system_comms_model@@3W4COMMS_MODEL_TYPES@@A, 0 ; system_comms_model
  0004f	74 18		 je	 SHORT $LN4@create_rea
  00051	a1 00 00 00 00	 mov	 eax, DWORD PTR ?__LINE__Var@?0??create_reaction_to_artillery_fire@@YGXPAUENTITY@@0@Z@4JA
  00056	83 c0 20	 add	 eax, 32			; 00000020H
  00059	50		 push	 eax
  0005a	68 00 00 00 00	 push	 OFFSET ??_C@_0ED@PAFNPDBA@c?3?2users?2nhv90?2projects?2eech?2ap@
  0005f	68 00 00 00 00	 push	 OFFSET ??_C@_0CJ@DMBLBJBK@get_comms_model?5?$CI?$CJ?5?$DN?$DN?5COMMS_MOD@
  00064	e8 00 00 00 00	 call	 ?process_assert@@YGXPBD0H@Z ; process_assert
$LN4@create_rea:

; 706  : 
; 707  : 	side = (entity_sides) get_local_entity_int_value (target, INT_TYPE_SIDE);

  00069	83 7d 0c 00	 cmp	 DWORD PTR _target$[ebp], 0
  0006d	74 0a		 je	 SHORT $LN11@create_rea
  0006f	8b 45 0c	 mov	 eax, DWORD PTR _target$[ebp]
  00072	8b 08		 mov	 ecx, DWORD PTR [eax]
  00074	89 4d 88	 mov	 DWORD PTR tv85[ebp], ecx
  00077	eb 21		 jmp	 SHORT $LN12@create_rea
$LN11@create_rea:
  00079	8b 15 00 00 00
	00		 mov	 edx, DWORD PTR ?__LINE__Var@?0??create_reaction_to_artillery_fire@@YGXPAUENTITY@@0@Z@4JA
  0007f	83 c2 22	 add	 edx, 34			; 00000022H
  00082	52		 push	 edx
  00083	68 00 00 00 00	 push	 OFFSET ??_C@_0ED@PAFNPDBA@c?3?2users?2nhv90?2projects?2eech?2ap@
  00088	a1 00 00 00 00	 mov	 eax, DWORD PTR ?null_entity_pointer_message@@3PBDB ; null_entity_pointer_message
  0008d	50		 push	 eax
  0008e	e8 00 00 00 00	 call	 ?process_assert@@YGXPBD0H@Z ; process_assert
  00093	c7 45 88 00 00
	00 00		 mov	 DWORD PTR tv85[ebp], 0
$LN12@create_rea:
  0009a	b9 01 00 00 00	 mov	 ecx, 1
  0009f	85 c9		 test	 ecx, ecx
  000a1	74 09		 je	 SHORT $LN13@create_rea
  000a3	c7 45 84 bb 00
	00 00		 mov	 DWORD PTR tv93[ebp], 187 ; 000000bbH
  000aa	eb 21		 jmp	 SHORT $LN14@create_rea
$LN13@create_rea:
  000ac	8b 15 00 00 00
	00		 mov	 edx, DWORD PTR ?__LINE__Var@?0??create_reaction_to_artillery_fire@@YGXPAUENTITY@@0@Z@4JA
  000b2	83 c2 22	 add	 edx, 34			; 00000022H
  000b5	52		 push	 edx
  000b6	68 00 00 00 00	 push	 OFFSET ??_C@_0ED@PAFNPDBA@c?3?2users?2nhv90?2projects?2eech?2ap@
  000bb	a1 00 00 00 00	 mov	 eax, DWORD PTR ?overload_invalid_int_type_message@@3PBDB ; overload_invalid_int_type_message
  000c0	50		 push	 eax
  000c1	e8 00 00 00 00	 call	 ?process_assert@@YGXPBD0H@Z ; process_assert
  000c6	c7 45 84 00 00
	00 00		 mov	 DWORD PTR tv93[ebp], 0
$LN14@create_rea:
  000cd	68 bb 00 00 00	 push	 187			; 000000bbH
  000d2	8b 4d 0c	 mov	 ecx, DWORD PTR _target$[ebp]
  000d5	51		 push	 ecx
  000d6	69 55 88 5c 04
	00 00		 imul	 edx, DWORD PTR tv85[ebp], 1116
  000dd	8b 45 84	 mov	 eax, DWORD PTR tv93[ebp]
  000e0	8b 8c 82 00 00
	00 00		 mov	 ecx, DWORD PTR ?fn_get_local_entity_int_value@@3PAY0BBH@P6GHPAUENTITY@@W4INT_TYPES@@@ZA[edx+eax*4]
  000e7	ff d1		 call	 ecx
  000e9	89 45 f4	 mov	 DWORD PTR _side$[ebp], eax

; 708  : 
; 709  : 	if ((entity_is_object_of_task (group, ENTITY_SUB_TYPE_TASK_BAI, side)) ||

  000ec	8b 45 f4	 mov	 eax, DWORD PTR _side$[ebp]
  000ef	50		 push	 eax
  000f0	6a 03		 push	 3
  000f2	8b 4d 08	 mov	 ecx, DWORD PTR _group$[ebp]
  000f5	51		 push	 ecx
  000f6	e8 00 00 00 00	 call	 ?entity_is_object_of_task@@YGHPAUENTITY@@HW4ENTITY_SIDES@@@Z ; entity_is_object_of_task
  000fb	85 c0		 test	 eax, eax
  000fd	75 13		 jne	 SHORT $LN6@create_rea
  000ff	8b 45 f4	 mov	 eax, DWORD PTR _side$[ebp]
  00102	50		 push	 eax
  00103	6a 11		 push	 17			; 00000011H
  00105	8b 4d 08	 mov	 ecx, DWORD PTR _group$[ebp]
  00108	51		 push	 ecx
  00109	e8 00 00 00 00	 call	 ?entity_is_object_of_task@@YGHPAUENTITY@@HW4ENTITY_SIDES@@@Z ; entity_is_object_of_task
  0010e	85 c0		 test	 eax, eax
  00110	74 05		 je	 SHORT $LN5@create_rea
$LN6@create_rea:

; 710  : 			(entity_is_object_of_task (group, ENTITY_SUB_TYPE_TASK_RECON, side)))
; 711  : 	{
; 712  : 		return;

  00112	e9 ad 04 00 00	 jmp	 $LN1@create_rea
$LN5@create_rea:

; 713  : 	}
; 714  : 	
; 715  : 	enemy_side = (entity_sides) get_local_entity_int_value (group, INT_TYPE_SIDE);

  00117	83 7d 08 00	 cmp	 DWORD PTR _group$[ebp], 0
  0011b	74 0a		 je	 SHORT $LN15@create_rea
  0011d	8b 45 08	 mov	 eax, DWORD PTR _group$[ebp]
  00120	8b 08		 mov	 ecx, DWORD PTR [eax]
  00122	89 4d 88	 mov	 DWORD PTR tv147[ebp], ecx
  00125	eb 21		 jmp	 SHORT $LN16@create_rea
$LN15@create_rea:
  00127	8b 15 00 00 00
	00		 mov	 edx, DWORD PTR ?__LINE__Var@?0??create_reaction_to_artillery_fire@@YGXPAUENTITY@@0@Z@4JA
  0012d	83 c2 2a	 add	 edx, 42			; 0000002aH
  00130	52		 push	 edx
  00131	68 00 00 00 00	 push	 OFFSET ??_C@_0ED@PAFNPDBA@c?3?2users?2nhv90?2projects?2eech?2ap@
  00136	a1 00 00 00 00	 mov	 eax, DWORD PTR ?null_entity_pointer_message@@3PBDB ; null_entity_pointer_message
  0013b	50		 push	 eax
  0013c	e8 00 00 00 00	 call	 ?process_assert@@YGXPBD0H@Z ; process_assert
  00141	c7 45 88 00 00
	00 00		 mov	 DWORD PTR tv147[ebp], 0
$LN16@create_rea:
  00148	b9 01 00 00 00	 mov	 ecx, 1
  0014d	85 c9		 test	 ecx, ecx
  0014f	74 09		 je	 SHORT $LN17@create_rea
  00151	c7 45 84 bb 00
	00 00		 mov	 DWORD PTR tv155[ebp], 187 ; 000000bbH
  00158	eb 21		 jmp	 SHORT $LN18@create_rea
$LN17@create_rea:
  0015a	8b 15 00 00 00
	00		 mov	 edx, DWORD PTR ?__LINE__Var@?0??create_reaction_to_artillery_fire@@YGXPAUENTITY@@0@Z@4JA
  00160	83 c2 2a	 add	 edx, 42			; 0000002aH
  00163	52		 push	 edx
  00164	68 00 00 00 00	 push	 OFFSET ??_C@_0ED@PAFNPDBA@c?3?2users?2nhv90?2projects?2eech?2ap@
  00169	a1 00 00 00 00	 mov	 eax, DWORD PTR ?overload_invalid_int_type_message@@3PBDB ; overload_invalid_int_type_message
  0016e	50		 push	 eax
  0016f	e8 00 00 00 00	 call	 ?process_assert@@YGXPBD0H@Z ; process_assert
  00174	c7 45 84 00 00
	00 00		 mov	 DWORD PTR tv155[ebp], 0
$LN18@create_rea:
  0017b	68 bb 00 00 00	 push	 187			; 000000bbH
  00180	8b 4d 08	 mov	 ecx, DWORD PTR _group$[ebp]
  00183	51		 push	 ecx
  00184	69 55 88 5c 04
	00 00		 imul	 edx, DWORD PTR tv147[ebp], 1116
  0018b	8b 45 84	 mov	 eax, DWORD PTR tv155[ebp]
  0018e	8b 8c 82 00 00
	00 00		 mov	 ecx, DWORD PTR ?fn_get_local_entity_int_value@@3PAY0BBH@P6GHPAUENTITY@@W4INT_TYPES@@@ZA[edx+eax*4]
  00195	ff d1		 call	 ecx
  00197	89 45 f0	 mov	 DWORD PTR _enemy_side$[ebp], eax

; 716  : 
; 717  : 	pos = get_local_entity_vec3d_ptr (group, VEC3D_TYPE_POSITION);

  0019a	83 7d 08 00	 cmp	 DWORD PTR _group$[ebp], 0
  0019e	74 0a		 je	 SHORT $LN19@create_rea
  001a0	8b 45 08	 mov	 eax, DWORD PTR _group$[ebp]
  001a3	8b 08		 mov	 ecx, DWORD PTR [eax]
  001a5	89 4d 88	 mov	 DWORD PTR tv167[ebp], ecx
  001a8	eb 21		 jmp	 SHORT $LN20@create_rea
$LN19@create_rea:
  001aa	8b 15 00 00 00
	00		 mov	 edx, DWORD PTR ?__LINE__Var@?0??create_reaction_to_artillery_fire@@YGXPAUENTITY@@0@Z@4JA
  001b0	83 c2 2c	 add	 edx, 44			; 0000002cH
  001b3	52		 push	 edx
  001b4	68 00 00 00 00	 push	 OFFSET ??_C@_0ED@PAFNPDBA@c?3?2users?2nhv90?2projects?2eech?2ap@
  001b9	a1 00 00 00 00	 mov	 eax, DWORD PTR ?null_entity_pointer_message@@3PBDB ; null_entity_pointer_message
  001be	50		 push	 eax
  001bf	e8 00 00 00 00	 call	 ?process_assert@@YGXPBD0H@Z ; process_assert
  001c4	c7 45 88 00 00
	00 00		 mov	 DWORD PTR tv167[ebp], 0
$LN20@create_rea:
  001cb	b9 01 00 00 00	 mov	 ecx, 1
  001d0	85 c9		 test	 ecx, ecx
  001d2	74 09		 je	 SHORT $LN21@create_rea
  001d4	c7 45 84 08 00
	00 00		 mov	 DWORD PTR tv175[ebp], 8
  001db	eb 21		 jmp	 SHORT $LN22@create_rea
$LN21@create_rea:
  001dd	8b 15 00 00 00
	00		 mov	 edx, DWORD PTR ?__LINE__Var@?0??create_reaction_to_artillery_fire@@YGXPAUENTITY@@0@Z@4JA
  001e3	83 c2 2c	 add	 edx, 44			; 0000002cH
  001e6	52		 push	 edx
  001e7	68 00 00 00 00	 push	 OFFSET ??_C@_0ED@PAFNPDBA@c?3?2users?2nhv90?2projects?2eech?2ap@
  001ec	a1 00 00 00 00	 mov	 eax, DWORD PTR ?overload_invalid_vec3d_type_message@@3PBDB ; overload_invalid_vec3d_type_message
  001f1	50		 push	 eax
  001f2	e8 00 00 00 00	 call	 ?process_assert@@YGXPBD0H@Z ; process_assert
  001f7	c7 45 84 00 00
	00 00		 mov	 DWORD PTR tv175[ebp], 0
$LN22@create_rea:
  001fe	6a 08		 push	 8
  00200	8b 4d 08	 mov	 ecx, DWORD PTR _group$[ebp]
  00203	51		 push	 ecx
  00204	6b 55 88 60	 imul	 edx, DWORD PTR tv167[ebp], 96
  00208	8b 45 84	 mov	 eax, DWORD PTR tv175[ebp]
  0020b	8b 8c 82 00 00
	00 00		 mov	 ecx, DWORD PTR ?fn_get_local_entity_vec3d_ptr@@3PAY0BI@P6GPAUVEC3D@@PAUENTITY@@W4VEC3D_TYPES@@@ZA[edx+eax*4]
  00212	ff d1		 call	 ecx
  00214	89 45 cc	 mov	 DWORD PTR _pos$[ebp], eax

; 718  : 
; 719  : 	sector = get_local_sector_entity (pos);

  00217	8b 45 cc	 mov	 eax, DWORD PTR _pos$[ebp]
  0021a	50		 push	 eax
  0021b	e8 00 00 00 00	 call	 ?get_local_sector_entity@@YGPAUENTITY@@PAUVEC3D@@@Z ; get_local_sector_entity
  00220	89 45 fc	 mov	 DWORD PTR _sector$[ebp], eax

; 720  : 
; 721  : 	ASSERT (sector);

  00223	83 7d fc 00	 cmp	 DWORD PTR _sector$[ebp], 0
  00227	75 18		 jne	 SHORT $LN7@create_rea
  00229	a1 00 00 00 00	 mov	 eax, DWORD PTR ?__LINE__Var@?0??create_reaction_to_artillery_fire@@YGXPAUENTITY@@0@Z@4JA
  0022e	83 c0 30	 add	 eax, 48			; 00000030H
  00231	50		 push	 eax
  00232	68 00 00 00 00	 push	 OFFSET ??_C@_0ED@PAFNPDBA@c?3?2users?2nhv90?2projects?2eech?2ap@
  00237	68 00 00 00 00	 push	 OFFSET ??_C@_06IDGHNJOB@sector@
  0023c	e8 00 00 00 00	 call	 ?process_assert@@YGXPBD0H@Z ; process_assert
$LN7@create_rea:

; 722  : 
; 723  : 	x = get_local_entity_int_value (sector, INT_TYPE_X_SECTOR);

  00241	83 7d fc 00	 cmp	 DWORD PTR _sector$[ebp], 0
  00245	74 0a		 je	 SHORT $LN23@create_rea
  00247	8b 45 fc	 mov	 eax, DWORD PTR _sector$[ebp]
  0024a	8b 08		 mov	 ecx, DWORD PTR [eax]
  0024c	89 4d 88	 mov	 DWORD PTR tv194[ebp], ecx
  0024f	eb 21		 jmp	 SHORT $LN24@create_rea
$LN23@create_rea:
  00251	8b 15 00 00 00
	00		 mov	 edx, DWORD PTR ?__LINE__Var@?0??create_reaction_to_artillery_fire@@YGXPAUENTITY@@0@Z@4JA
  00257	83 c2 32	 add	 edx, 50			; 00000032H
  0025a	52		 push	 edx
  0025b	68 00 00 00 00	 push	 OFFSET ??_C@_0ED@PAFNPDBA@c?3?2users?2nhv90?2projects?2eech?2ap@
  00260	a1 00 00 00 00	 mov	 eax, DWORD PTR ?null_entity_pointer_message@@3PBDB ; null_entity_pointer_message
  00265	50		 push	 eax
  00266	e8 00 00 00 00	 call	 ?process_assert@@YGXPBD0H@Z ; process_assert
  0026b	c7 45 88 00 00
	00 00		 mov	 DWORD PTR tv194[ebp], 0
$LN24@create_rea:
  00272	b9 01 00 00 00	 mov	 ecx, 1
  00277	85 c9		 test	 ecx, ecx
  00279	74 09		 je	 SHORT $LN25@create_rea
  0027b	c7 45 84 15 01
	00 00		 mov	 DWORD PTR tv202[ebp], 277 ; 00000115H
  00282	eb 21		 jmp	 SHORT $LN26@create_rea
$LN25@create_rea:
  00284	8b 15 00 00 00
	00		 mov	 edx, DWORD PTR ?__LINE__Var@?0??create_reaction_to_artillery_fire@@YGXPAUENTITY@@0@Z@4JA
  0028a	83 c2 32	 add	 edx, 50			; 00000032H
  0028d	52		 push	 edx
  0028e	68 00 00 00 00	 push	 OFFSET ??_C@_0ED@PAFNPDBA@c?3?2users?2nhv90?2projects?2eech?2ap@
  00293	a1 00 00 00 00	 mov	 eax, DWORD PTR ?overload_invalid_int_type_message@@3PBDB ; overload_invalid_int_type_message
  00298	50		 push	 eax
  00299	e8 00 00 00 00	 call	 ?process_assert@@YGXPBD0H@Z ; process_assert
  0029e	c7 45 84 00 00
	00 00		 mov	 DWORD PTR tv202[ebp], 0
$LN26@create_rea:
  002a5	68 15 01 00 00	 push	 277			; 00000115H
  002aa	8b 4d fc	 mov	 ecx, DWORD PTR _sector$[ebp]
  002ad	51		 push	 ecx
  002ae	69 55 88 5c 04
	00 00		 imul	 edx, DWORD PTR tv194[ebp], 1116
  002b5	8b 45 84	 mov	 eax, DWORD PTR tv202[ebp]
  002b8	8b 8c 82 00 00
	00 00		 mov	 ecx, DWORD PTR ?fn_get_local_entity_int_value@@3PAY0BBH@P6GHPAUENTITY@@W4INT_TYPES@@@ZA[edx+eax*4]
  002bf	ff d1		 call	 ecx
  002c1	89 45 ec	 mov	 DWORD PTR _x$[ebp], eax

; 724  : 	z = get_local_entity_int_value (sector, INT_TYPE_Z_SECTOR);

  002c4	83 7d fc 00	 cmp	 DWORD PTR _sector$[ebp], 0
  002c8	74 0a		 je	 SHORT $LN27@create_rea
  002ca	8b 45 fc	 mov	 eax, DWORD PTR _sector$[ebp]
  002cd	8b 08		 mov	 ecx, DWORD PTR [eax]
  002cf	89 4d 88	 mov	 DWORD PTR tv214[ebp], ecx
  002d2	eb 21		 jmp	 SHORT $LN28@create_rea
$LN27@create_rea:
  002d4	8b 15 00 00 00
	00		 mov	 edx, DWORD PTR ?__LINE__Var@?0??create_reaction_to_artillery_fire@@YGXPAUENTITY@@0@Z@4JA
  002da	83 c2 33	 add	 edx, 51			; 00000033H
  002dd	52		 push	 edx
  002de	68 00 00 00 00	 push	 OFFSET ??_C@_0ED@PAFNPDBA@c?3?2users?2nhv90?2projects?2eech?2ap@
  002e3	a1 00 00 00 00	 mov	 eax, DWORD PTR ?null_entity_pointer_message@@3PBDB ; null_entity_pointer_message
  002e8	50		 push	 eax
  002e9	e8 00 00 00 00	 call	 ?process_assert@@YGXPBD0H@Z ; process_assert
  002ee	c7 45 88 00 00
	00 00		 mov	 DWORD PTR tv214[ebp], 0
$LN28@create_rea:
  002f5	b9 01 00 00 00	 mov	 ecx, 1
  002fa	85 c9		 test	 ecx, ecx
  002fc	74 09		 je	 SHORT $LN29@create_rea
  002fe	c7 45 84 16 01
	00 00		 mov	 DWORD PTR tv222[ebp], 278 ; 00000116H
  00305	eb 21		 jmp	 SHORT $LN30@create_rea
$LN29@create_rea:
  00307	8b 15 00 00 00
	00		 mov	 edx, DWORD PTR ?__LINE__Var@?0??create_reaction_to_artillery_fire@@YGXPAUENTITY@@0@Z@4JA
  0030d	83 c2 33	 add	 edx, 51			; 00000033H
  00310	52		 push	 edx
  00311	68 00 00 00 00	 push	 OFFSET ??_C@_0ED@PAFNPDBA@c?3?2users?2nhv90?2projects?2eech?2ap@
  00316	a1 00 00 00 00	 mov	 eax, DWORD PTR ?overload_invalid_int_type_message@@3PBDB ; overload_invalid_int_type_message
  0031b	50		 push	 eax
  0031c	e8 00 00 00 00	 call	 ?process_assert@@YGXPBD0H@Z ; process_assert
  00321	c7 45 84 00 00
	00 00		 mov	 DWORD PTR tv222[ebp], 0
$LN30@create_rea:
  00328	68 16 01 00 00	 push	 278			; 00000116H
  0032d	8b 4d fc	 mov	 ecx, DWORD PTR _sector$[ebp]
  00330	51		 push	 ecx
  00331	69 55 88 5c 04
	00 00		 imul	 edx, DWORD PTR tv214[ebp], 1116
  00338	8b 45 84	 mov	 eax, DWORD PTR tv222[ebp]
  0033b	8b 8c 82 00 00
	00 00		 mov	 ecx, DWORD PTR ?fn_get_local_entity_int_value@@3PAY0BBH@P6GHPAUENTITY@@W4INT_TYPES@@@ZA[edx+eax*4]
  00342	ff d1		 call	 ecx
  00344	89 45 e8	 mov	 DWORD PTR _z$[ebp], eax

; 725  : 
; 726  : 	//
; 727  : 	// Calculate sector rating
; 728  : 	//
; 729  : 	
; 730  : 	air_defence_rating = get_imap_value (IMAP_AIR_DEFENCE, side, x, z);

  00347	8b 45 e8	 mov	 eax, DWORD PTR _z$[ebp]
  0034a	50		 push	 eax
  0034b	8b 4d ec	 mov	 ecx, DWORD PTR _x$[ebp]
  0034e	51		 push	 ecx
  0034f	8b 55 f4	 mov	 edx, DWORD PTR _side$[ebp]
  00352	52		 push	 edx
  00353	6a 02		 push	 2
  00355	e8 00 00 00 00	 call	 ?get_imap_value@@YGMW4IMAP_TYPES@@W4ENTITY_SIDES@@HH@Z ; get_imap_value
  0035a	d9 5d d8	 fstp	 DWORD PTR _air_defence_rating$[ebp]

; 731  : 	
; 732  : 	surface_defence_rating = get_imap_value (IMAP_SURFACE_DEFENCE, side, x, z);

  0035d	8b 45 e8	 mov	 eax, DWORD PTR _z$[ebp]
  00360	50		 push	 eax
  00361	8b 4d ec	 mov	 ecx, DWORD PTR _x$[ebp]
  00364	51		 push	 ecx
  00365	8b 55 f4	 mov	 edx, DWORD PTR _side$[ebp]
  00368	52		 push	 edx
  00369	6a 03		 push	 3
  0036b	e8 00 00 00 00	 call	 ?get_imap_value@@YGMW4IMAP_TYPES@@W4ENTITY_SIDES@@HH@Z ; get_imap_value
  00370	d9 5d d4	 fstp	 DWORD PTR _surface_defence_rating$[ebp]

; 733  : 	
; 734  : 	base_distance_rating = get_imap_value (IMAP_BASE_DISTANCE, side, x, z);

  00373	8b 45 e8	 mov	 eax, DWORD PTR _z$[ebp]
  00376	50		 push	 eax
  00377	8b 4d ec	 mov	 ecx, DWORD PTR _x$[ebp]
  0037a	51		 push	 ecx
  0037b	8b 55 f4	 mov	 edx, DWORD PTR _side$[ebp]
  0037e	52		 push	 edx
  0037f	6a 01		 push	 1
  00381	e8 00 00 00 00	 call	 ?get_imap_value@@YGMW4IMAP_TYPES@@W4ENTITY_SIDES@@HH@Z ; get_imap_value
  00386	d9 5d d0	 fstp	 DWORD PTR _base_distance_rating$[ebp]

; 735  : 	
; 736  : 	rating = 0.0;

  00389	0f 57 c0	 xorps	 xmm0, xmm0
  0038c	f3 0f 11 45 e4	 movss	 DWORD PTR _rating$[ebp], xmm0

; 737  : 		
; 738  : 	// low enemy S-A threat 
; 739  : 	rating += (1.0 - air_defence_rating);

  00391	f3 0f 5a 45 d8	 cvtss2sd xmm0, DWORD PTR _air_defence_rating$[ebp]
  00396	f2 0f 10 0d 00
	00 00 00	 movsd	 xmm1, QWORD PTR __real@3ff0000000000000
  0039e	f2 0f 5c c8	 subsd	 xmm1, xmm0
  003a2	f3 0f 5a 45 e4	 cvtss2sd xmm0, DWORD PTR _rating$[ebp]
  003a7	f2 0f 58 c1	 addsd	 xmm0, xmm1
  003ab	f2 0f 5a c0	 cvtsd2ss xmm0, xmm0
  003af	f3 0f 11 45 e4	 movss	 DWORD PTR _rating$[ebp], xmm0

; 740  : 	
; 741  : 	// high enemy S-S threat
; 742  : 	rating += (surface_defence_rating);

  003b4	f3 0f 10 45 e4	 movss	 xmm0, DWORD PTR _rating$[ebp]
  003b9	f3 0f 58 45 d4	 addss	 xmm0, DWORD PTR _surface_defence_rating$[ebp]
  003be	f3 0f 11 45 e4	 movss	 DWORD PTR _rating$[ebp], xmm0

; 743  : 	
; 744  : 	// close to enemy base
; 745  : 	rating += 2.0 * (base_distance_rating);

  003c3	f3 0f 5a 45 d0	 cvtss2sd xmm0, DWORD PTR _base_distance_rating$[ebp]
  003c8	f2 0f 59 05 00
	00 00 00	 mulsd	 xmm0, QWORD PTR __real@4000000000000000
  003d0	f3 0f 5a 4d e4	 cvtss2sd xmm1, DWORD PTR _rating$[ebp]
  003d5	f2 0f 58 c8	 addsd	 xmm1, xmm0
  003d9	f2 0f 5a c1	 cvtsd2ss xmm0, xmm1
  003dd	f3 0f 11 45 e4	 movss	 DWORD PTR _rating$[ebp], xmm0

; 746  : 	
; 747  : 	max_rating = 4.0;

  003e2	f3 0f 10 05 00
	00 00 00	 movss	 xmm0, DWORD PTR __real@40800000
  003ea	f3 0f 11 45 e0	 movss	 DWORD PTR _max_rating$[ebp], xmm0

; 748  : 		
; 749  : 	if (get_sector_fog_of_war_value (sector, side) > (0.5 * get_local_entity_float_value (get_session_entity (), FLOAT_TYPE_FOG_OF_WAR_MAXIMUM_VALUE)))

  003ef	83 3d 00 00 00
	00 00		 cmp	 DWORD PTR ?session_entity@@3PAUENTITY@@A, 0 ; session_entity
  003f6	74 0c		 je	 SHORT $LN31@create_rea
  003f8	a1 00 00 00 00	 mov	 eax, DWORD PTR ?session_entity@@3PAUENTITY@@A ; session_entity
  003fd	8b 08		 mov	 ecx, DWORD PTR [eax]
  003ff	89 4d 88	 mov	 DWORD PTR tv263[ebp], ecx
  00402	eb 1d		 jmp	 SHORT $LN32@create_rea
$LN31@create_rea:
  00404	68 ed 02 00 00	 push	 749			; 000002edH
  00409	68 00 00 00 00	 push	 OFFSET ??_C@_0ED@PAFNPDBA@c?3?2users?2nhv90?2projects?2eech?2ap@
  0040e	8b 15 00 00 00
	00		 mov	 edx, DWORD PTR ?null_entity_pointer_message@@3PBDB ; null_entity_pointer_message
  00414	52		 push	 edx
  00415	e8 00 00 00 00	 call	 ?process_assert@@YGXPBD0H@Z ; process_assert
  0041a	c7 45 88 00 00
	00 00		 mov	 DWORD PTR tv263[ebp], 0
$LN32@create_rea:
  00421	b8 01 00 00 00	 mov	 eax, 1
  00426	85 c0		 test	 eax, eax
  00428	74 09		 je	 SHORT $LN33@create_rea
  0042a	c7 45 84 2c 00
	00 00		 mov	 DWORD PTR tv270[ebp], 44 ; 0000002cH
  00431	eb 1d		 jmp	 SHORT $LN34@create_rea
$LN33@create_rea:
  00433	68 ed 02 00 00	 push	 749			; 000002edH
  00438	68 00 00 00 00	 push	 OFFSET ??_C@_0ED@PAFNPDBA@c?3?2users?2nhv90?2projects?2eech?2ap@
  0043d	8b 0d 00 00 00
	00		 mov	 ecx, DWORD PTR ?overload_invalid_float_type_message@@3PBDB ; overload_invalid_float_type_message
  00443	51		 push	 ecx
  00444	e8 00 00 00 00	 call	 ?process_assert@@YGXPBD0H@Z ; process_assert
  00449	c7 45 84 00 00
	00 00		 mov	 DWORD PTR tv270[ebp], 0
$LN34@create_rea:
  00450	8b 55 f4	 mov	 edx, DWORD PTR _side$[ebp]
  00453	52		 push	 edx
  00454	8b 45 fc	 mov	 eax, DWORD PTR _sector$[ebp]
  00457	50		 push	 eax
  00458	e8 00 00 00 00	 call	 ?get_sector_fog_of_war_value@@YGMPAUENTITY@@W4ENTITY_SIDES@@@Z ; get_sector_fog_of_war_value
  0045d	dd 9d 7c ff ff
	ff		 fstp	 QWORD PTR tv426[ebp]
  00463	f2 0f 10 85 7c
	ff ff ff	 movsd	 xmm0, QWORD PTR tv426[ebp]
  0046b	6a 2c		 push	 44			; 0000002cH
  0046d	8b 0d 00 00 00
	00		 mov	 ecx, DWORD PTR ?session_entity@@3PAUENTITY@@A ; session_entity
  00473	51		 push	 ecx
  00474	69 55 88 bc 02
	00 00		 imul	 edx, DWORD PTR tv263[ebp], 700
  0047b	8b 45 84	 mov	 eax, DWORD PTR tv270[ebp]
  0047e	8b 8c 82 00 00
	00 00		 mov	 ecx, DWORD PTR ?fn_get_local_entity_float_value@@3PAY0KP@P6GMPAUENTITY@@W4FLOAT_TYPES@@@ZA[edx+eax*4]
  00485	f2 0f 11 85 74
	ff ff ff	 movsd	 QWORD PTR tv463[ebp], xmm0
  0048d	ff d1		 call	 ecx
  0048f	dd 9d 6c ff ff
	ff		 fstp	 QWORD PTR tv434[ebp]
  00495	f2 0f 10 85 6c
	ff ff ff	 movsd	 xmm0, QWORD PTR tv434[ebp]
  0049d	f2 0f 59 05 00
	00 00 00	 mulsd	 xmm0, QWORD PTR __real@3fe0000000000000
  004a5	f2 0f 10 8d 74
	ff ff ff	 movsd	 xmm1, QWORD PTR tv463[ebp]
  004ad	66 0f 2f c8	 comisd	 xmm1, xmm0
  004b1	0f 86 89 00 00
	00		 jbe	 $LN8@create_rea

; 750  : 	{
; 751  : 		//
; 752  : 		// Create BAI
; 753  : 		//
; 754  : 								
; 755  : 		priority = (rating / max_rating) * task_database [ENTITY_SUB_TYPE_TASK_BAI].task_priority;

  004b7	f3 0f 10 45 e4	 movss	 xmm0, DWORD PTR _rating$[ebp]
  004bc	f3 0f 5e 45 e0	 divss	 xmm0, DWORD PTR _max_rating$[ebp]
  004c1	b8 50 00 00 00	 mov	 eax, 80			; 00000050H
  004c6	6b c8 03	 imul	 ecx, eax, 3
  004c9	f3 0f 59 81 10
	00 00 00	 mulss	 xmm0, DWORD PTR ?task_database@@3PAUTASK_DATA@@A[ecx+16]
  004d1	f3 0f 11 45 dc	 movss	 DWORD PTR _priority$[ebp], xmm0

; 756  : 		
; 757  : 		new_task = create_bai_task (side, group, NULL, FALSE, priority, NULL, NULL);

  004d6	6a 00		 push	 0
  004d8	6a 00		 push	 0
  004da	51		 push	 ecx
  004db	f3 0f 10 45 dc	 movss	 xmm0, DWORD PTR _priority$[ebp]
  004e0	f3 0f 11 04 24	 movss	 DWORD PTR [esp], xmm0
  004e5	6a 00		 push	 0
  004e7	6a 00		 push	 0
  004e9	8b 45 08	 mov	 eax, DWORD PTR _group$[ebp]
  004ec	50		 push	 eax
  004ed	8b 4d f4	 mov	 ecx, DWORD PTR _side$[ebp]
  004f0	51		 push	 ecx
  004f1	e8 00 00 00 00	 call	 ?create_bai_task@@YGPAUENTITY@@W4ENTITY_SIDES@@PAU1@1HM11@Z ; create_bai_task
  004f6	89 45 f8	 mov	 DWORD PTR _new_task$[ebp], eax

; 758  : 	
; 759  : 		ai_log ("(TASK) Side %s : Created BAI (%d) to sector (%d, %d) in reaction to Artillery Fire",

  004f9	83 7d f8 00	 cmp	 DWORD PTR _new_task$[ebp], 0
  004fd	74 11		 je	 SHORT $LN35@create_rea
  004ff	8b 45 f8	 mov	 eax, DWORD PTR _new_task$[ebp]
  00502	2b 05 00 00 00
	00		 sub	 eax, DWORD PTR ?entities@@3PAUENTITY@@A ; entities
  00508	c1 f8 04	 sar	 eax, 4
  0050b	89 45 88	 mov	 DWORD PTR tv297[ebp], eax
  0050e	eb 07		 jmp	 SHORT $LN36@create_rea
$LN35@create_rea:
  00510	c7 45 88 ff ff
	ff ff		 mov	 DWORD PTR tv297[ebp], -1
$LN36@create_rea:
  00517	8b 4d e8	 mov	 ecx, DWORD PTR _z$[ebp]
  0051a	51		 push	 ecx
  0051b	8b 55 ec	 mov	 edx, DWORD PTR _x$[ebp]
  0051e	52		 push	 edx
  0051f	8b 45 88	 mov	 eax, DWORD PTR tv297[ebp]
  00522	50		 push	 eax
  00523	8b 4d f4	 mov	 ecx, DWORD PTR _side$[ebp]
  00526	8b 14 8d 00 00
	00 00		 mov	 edx, DWORD PTR ?entity_side_short_names@@3PAPBDA[ecx*4]
  0052d	52		 push	 edx
  0052e	68 00 00 00 00	 push	 OFFSET ??_C@_0FD@CEGILPJG@?$CITASK?$CJ?5Side?5?$CFs?5?3?5Created?5BAI?5?$CI?$CF@
  00533	e8 00 00 00 00	 call	 ?ai_log@@YAXPBDZZ	; ai_log
  00538	83 c4 14	 add	 esp, 20			; 00000014H

; 760  : 					entity_side_short_names [side],
; 761  : 					get_local_entity_safe_index (new_task),
; 762  : 					x, z);
; 763  : 	}
; 764  : 	else

  0053b	e9 84 00 00 00	 jmp	 $LN9@create_rea
$LN8@create_rea:

; 765  : 	{
; 766  : 		//
; 767  : 		// Create RECON
; 768  : 		//
; 769  : 								
; 770  : 		priority = (rating / max_rating) * task_database [ENTITY_SUB_TYPE_TASK_BAI].task_priority;

  00540	f3 0f 10 45 e4	 movss	 xmm0, DWORD PTR _rating$[ebp]
  00545	f3 0f 5e 45 e0	 divss	 xmm0, DWORD PTR _max_rating$[ebp]
  0054a	b8 50 00 00 00	 mov	 eax, 80			; 00000050H
  0054f	6b c8 03	 imul	 ecx, eax, 3
  00552	f3 0f 59 81 10
	00 00 00	 mulss	 xmm0, DWORD PTR ?task_database@@3PAUTASK_DATA@@A[ecx+16]
  0055a	f3 0f 11 45 dc	 movss	 DWORD PTR _priority$[ebp], xmm0

; 771  : 		
; 772  : 		new_task = create_recon_task (side, group, NULL, TRUE, priority, NULL, NULL);

  0055f	6a 00		 push	 0
  00561	6a 00		 push	 0
  00563	51		 push	 ecx
  00564	f3 0f 10 45 dc	 movss	 xmm0, DWORD PTR _priority$[ebp]
  00569	f3 0f 11 04 24	 movss	 DWORD PTR [esp], xmm0
  0056e	6a 01		 push	 1
  00570	6a 00		 push	 0
  00572	8b 45 08	 mov	 eax, DWORD PTR _group$[ebp]
  00575	50		 push	 eax
  00576	8b 4d f4	 mov	 ecx, DWORD PTR _side$[ebp]
  00579	51		 push	 ecx
  0057a	e8 00 00 00 00	 call	 ?create_recon_task@@YGPAUENTITY@@W4ENTITY_SIDES@@PAU1@1HM11@Z ; create_recon_task
  0057f	89 45 f8	 mov	 DWORD PTR _new_task$[ebp], eax

; 773  : 	
; 774  : 		ai_log ("(TASK) Side %s : Created RECON (%d) to sector (%d, %d) in reaction to Artillery Fire",

  00582	83 7d f8 00	 cmp	 DWORD PTR _new_task$[ebp], 0
  00586	74 11		 je	 SHORT $LN37@create_rea
  00588	8b 45 f8	 mov	 eax, DWORD PTR _new_task$[ebp]
  0058b	2b 05 00 00 00
	00		 sub	 eax, DWORD PTR ?entities@@3PAUENTITY@@A ; entities
  00591	c1 f8 04	 sar	 eax, 4
  00594	89 45 88	 mov	 DWORD PTR tv321[ebp], eax
  00597	eb 07		 jmp	 SHORT $LN38@create_rea
$LN37@create_rea:
  00599	c7 45 88 ff ff
	ff ff		 mov	 DWORD PTR tv321[ebp], -1
$LN38@create_rea:
  005a0	8b 4d e8	 mov	 ecx, DWORD PTR _z$[ebp]
  005a3	51		 push	 ecx
  005a4	8b 55 ec	 mov	 edx, DWORD PTR _x$[ebp]
  005a7	52		 push	 edx
  005a8	8b 45 88	 mov	 eax, DWORD PTR tv321[ebp]
  005ab	50		 push	 eax
  005ac	8b 4d f4	 mov	 ecx, DWORD PTR _side$[ebp]
  005af	8b 14 8d 00 00
	00 00		 mov	 edx, DWORD PTR ?entity_side_short_names@@3PAPBDA[ecx*4]
  005b6	52		 push	 edx
  005b7	68 00 00 00 00	 push	 OFFSET ??_C@_0FF@LJGPEIM@?$CITASK?$CJ?5Side?5?$CFs?5?3?5Created?5RECON?5@
  005bc	e8 00 00 00 00	 call	 ?ai_log@@YAXPBDZZ	; ai_log
  005c1	83 c4 14	 add	 esp, 20			; 00000014H
$LN9@create_rea:
$LN1@create_rea:

; 775  : 					entity_side_short_names [side],
; 776  : 					get_local_entity_safe_index (new_task),
; 777  : 					x, z);
; 778  : 	}
; 779  : }

  005c4	5f		 pop	 edi
  005c5	5e		 pop	 esi
  005c6	5b		 pop	 ebx
  005c7	8b e5		 mov	 esp, ebp
  005c9	5d		 pop	 ebp
  005ca	c2 08 00	 ret	 8
?create_reaction_to_artillery_fire@@YGXPAUENTITY@@0@Z ENDP ; create_reaction_to_artillery_fire
_TEXT	ENDS
; Function compile flags: /Odtp /ZI
; File c:\users\nhv90\projects\eech\aphavoc\source\ai\highlevl\reaction.c
;	COMDAT ?create_task_completed_reactionary_tasks@@YGXPAUENTITY@@@Z
_TEXT	SEGMENT
tv140 = -80						; size = 4
tv88 = -80						; size = 4
tv146 = -76						; size = 4
tv132 = -76						; size = 4
tv80 = -76						; size = 4
_task_side$ = -8					; size = 4
_task_type$ = -4					; size = 4
_task$ = 8						; size = 4
?create_task_completed_reactionary_tasks@@YGXPAUENTITY@@@Z PROC ; create_task_completed_reactionary_tasks, COMDAT

; 153  : {

  00000	55		 push	 ebp
  00001	8b ec		 mov	 ebp, esp
  00003	83 ec 50	 sub	 esp, 80			; 00000050H
  00006	53		 push	 ebx
  00007	56		 push	 esi
  00008	57		 push	 edi

; 154  : 	entity_sub_types
; 155  : 		task_type;
; 156  : 
; 157  : 	entity_sides
; 158  : 		task_side;
; 159  : 
; 160  : 	ASSERT (task);

  00009	83 7d 08 00	 cmp	 DWORD PTR _task$[ebp], 0
  0000d	75 18		 jne	 SHORT $LN4@create_tas
  0000f	a1 00 00 00 00	 mov	 eax, DWORD PTR ?__LINE__Var@?0??create_task_completed_reactionary_tasks@@YGXPAUENTITY@@@Z@4JA
  00014	83 c0 07	 add	 eax, 7
  00017	50		 push	 eax
  00018	68 00 00 00 00	 push	 OFFSET ??_C@_0ED@PAFNPDBA@c?3?2users?2nhv90?2projects?2eech?2ap@
  0001d	68 00 00 00 00	 push	 OFFSET ??_C@_04GGKLLKOO@task@
  00022	e8 00 00 00 00	 call	 ?process_assert@@YGXPBD0H@Z ; process_assert
$LN4@create_tas:

; 161  : 
; 162  : 	ASSERT (get_comms_model () == COMMS_MODEL_SERVER);

  00027	83 3d 00 00 00
	00 00		 cmp	 DWORD PTR ?system_comms_model@@3W4COMMS_MODEL_TYPES@@A, 0 ; system_comms_model
  0002e	74 18		 je	 SHORT $LN5@create_tas
  00030	a1 00 00 00 00	 mov	 eax, DWORD PTR ?__LINE__Var@?0??create_task_completed_reactionary_tasks@@YGXPAUENTITY@@@Z@4JA
  00035	83 c0 09	 add	 eax, 9
  00038	50		 push	 eax
  00039	68 00 00 00 00	 push	 OFFSET ??_C@_0ED@PAFNPDBA@c?3?2users?2nhv90?2projects?2eech?2ap@
  0003e	68 00 00 00 00	 push	 OFFSET ??_C@_0CJ@DMBLBJBK@get_comms_model?5?$CI?$CJ?5?$DN?$DN?5COMMS_MOD@
  00043	e8 00 00 00 00	 call	 ?process_assert@@YGXPBD0H@Z ; process_assert
$LN5@create_tas:

; 163  : 
; 164  : 	task_side = (entity_sides) get_local_entity_int_value (task, INT_TYPE_SIDE);

  00048	83 7d 08 00	 cmp	 DWORD PTR _task$[ebp], 0
  0004c	74 0a		 je	 SHORT $LN10@create_tas
  0004e	8b 45 08	 mov	 eax, DWORD PTR _task$[ebp]
  00051	8b 08		 mov	 ecx, DWORD PTR [eax]
  00053	89 4d b4	 mov	 DWORD PTR tv80[ebp], ecx
  00056	eb 21		 jmp	 SHORT $LN11@create_tas
$LN10@create_tas:
  00058	8b 15 00 00 00
	00		 mov	 edx, DWORD PTR ?__LINE__Var@?0??create_task_completed_reactionary_tasks@@YGXPAUENTITY@@@Z@4JA
  0005e	83 c2 0b	 add	 edx, 11			; 0000000bH
  00061	52		 push	 edx
  00062	68 00 00 00 00	 push	 OFFSET ??_C@_0ED@PAFNPDBA@c?3?2users?2nhv90?2projects?2eech?2ap@
  00067	a1 00 00 00 00	 mov	 eax, DWORD PTR ?null_entity_pointer_message@@3PBDB ; null_entity_pointer_message
  0006c	50		 push	 eax
  0006d	e8 00 00 00 00	 call	 ?process_assert@@YGXPBD0H@Z ; process_assert
  00072	c7 45 b4 00 00
	00 00		 mov	 DWORD PTR tv80[ebp], 0
$LN11@create_tas:
  00079	b9 01 00 00 00	 mov	 ecx, 1
  0007e	85 c9		 test	 ecx, ecx
  00080	74 09		 je	 SHORT $LN12@create_tas
  00082	c7 45 b0 bb 00
	00 00		 mov	 DWORD PTR tv88[ebp], 187 ; 000000bbH
  00089	eb 21		 jmp	 SHORT $LN13@create_tas
$LN12@create_tas:
  0008b	8b 15 00 00 00
	00		 mov	 edx, DWORD PTR ?__LINE__Var@?0??create_task_completed_reactionary_tasks@@YGXPAUENTITY@@@Z@4JA
  00091	83 c2 0b	 add	 edx, 11			; 0000000bH
  00094	52		 push	 edx
  00095	68 00 00 00 00	 push	 OFFSET ??_C@_0ED@PAFNPDBA@c?3?2users?2nhv90?2projects?2eech?2ap@
  0009a	a1 00 00 00 00	 mov	 eax, DWORD PTR ?overload_invalid_int_type_message@@3PBDB ; overload_invalid_int_type_message
  0009f	50		 push	 eax
  000a0	e8 00 00 00 00	 call	 ?process_assert@@YGXPBD0H@Z ; process_assert
  000a5	c7 45 b0 00 00
	00 00		 mov	 DWORD PTR tv88[ebp], 0
$LN13@create_tas:
  000ac	68 bb 00 00 00	 push	 187			; 000000bbH
  000b1	8b 4d 08	 mov	 ecx, DWORD PTR _task$[ebp]
  000b4	51		 push	 ecx
  000b5	69 55 b4 5c 04
	00 00		 imul	 edx, DWORD PTR tv80[ebp], 1116
  000bc	8b 45 b0	 mov	 eax, DWORD PTR tv88[ebp]
  000bf	8b 8c 82 00 00
	00 00		 mov	 ecx, DWORD PTR ?fn_get_local_entity_int_value@@3PAY0BBH@P6GHPAUENTITY@@W4INT_TYPES@@@ZA[edx+eax*4]
  000c6	ff d1		 call	 ecx
  000c8	89 45 f8	 mov	 DWORD PTR _task_side$[ebp], eax

; 165  : 
; 166  : 	task_type = get_local_entity_int_value (task, INT_TYPE_ENTITY_SUB_TYPE);

  000cb	83 7d 08 00	 cmp	 DWORD PTR _task$[ebp], 0
  000cf	74 0a		 je	 SHORT $LN14@create_tas
  000d1	8b 45 08	 mov	 eax, DWORD PTR _task$[ebp]
  000d4	8b 08		 mov	 ecx, DWORD PTR [eax]
  000d6	89 4d b4	 mov	 DWORD PTR tv132[ebp], ecx
  000d9	eb 21		 jmp	 SHORT $LN15@create_tas
$LN14@create_tas:
  000db	8b 15 00 00 00
	00		 mov	 edx, DWORD PTR ?__LINE__Var@?0??create_task_completed_reactionary_tasks@@YGXPAUENTITY@@@Z@4JA
  000e1	83 c2 0d	 add	 edx, 13			; 0000000dH
  000e4	52		 push	 edx
  000e5	68 00 00 00 00	 push	 OFFSET ??_C@_0ED@PAFNPDBA@c?3?2users?2nhv90?2projects?2eech?2ap@
  000ea	a1 00 00 00 00	 mov	 eax, DWORD PTR ?null_entity_pointer_message@@3PBDB ; null_entity_pointer_message
  000ef	50		 push	 eax
  000f0	e8 00 00 00 00	 call	 ?process_assert@@YGXPBD0H@Z ; process_assert
  000f5	c7 45 b4 00 00
	00 00		 mov	 DWORD PTR tv132[ebp], 0
$LN15@create_tas:
  000fc	b9 01 00 00 00	 mov	 ecx, 1
  00101	85 c9		 test	 ecx, ecx
  00103	74 09		 je	 SHORT $LN16@create_tas
  00105	c7 45 b0 34 00
	00 00		 mov	 DWORD PTR tv140[ebp], 52 ; 00000034H
  0010c	eb 21		 jmp	 SHORT $LN17@create_tas
$LN16@create_tas:
  0010e	8b 15 00 00 00
	00		 mov	 edx, DWORD PTR ?__LINE__Var@?0??create_task_completed_reactionary_tasks@@YGXPAUENTITY@@@Z@4JA
  00114	83 c2 0d	 add	 edx, 13			; 0000000dH
  00117	52		 push	 edx
  00118	68 00 00 00 00	 push	 OFFSET ??_C@_0ED@PAFNPDBA@c?3?2users?2nhv90?2projects?2eech?2ap@
  0011d	a1 00 00 00 00	 mov	 eax, DWORD PTR ?overload_invalid_int_type_message@@3PBDB ; overload_invalid_int_type_message
  00122	50		 push	 eax
  00123	e8 00 00 00 00	 call	 ?process_assert@@YGXPBD0H@Z ; process_assert
  00128	c7 45 b0 00 00
	00 00		 mov	 DWORD PTR tv140[ebp], 0
$LN17@create_tas:
  0012f	6a 34		 push	 52			; 00000034H
  00131	8b 4d 08	 mov	 ecx, DWORD PTR _task$[ebp]
  00134	51		 push	 ecx
  00135	69 55 b4 5c 04
	00 00		 imul	 edx, DWORD PTR tv132[ebp], 1116
  0013c	8b 45 b0	 mov	 eax, DWORD PTR tv140[ebp]
  0013f	8b 8c 82 00 00
	00 00		 mov	 ecx, DWORD PTR ?fn_get_local_entity_int_value@@3PAY0BBH@P6GHPAUENTITY@@W4INT_TYPES@@@ZA[edx+eax*4]
  00146	ff d1		 call	 ecx
  00148	89 45 fc	 mov	 DWORD PTR _task_type$[ebp], eax

; 167  : 
; 168  : 	switch (task_type)

  0014b	8b 45 fc	 mov	 eax, DWORD PTR _task_type$[ebp]
  0014e	89 45 b4	 mov	 DWORD PTR tv146[ebp], eax
  00151	8b 4d b4	 mov	 ecx, DWORD PTR tv146[ebp]
  00154	83 e9 05	 sub	 ecx, 5
  00157	89 4d b4	 mov	 DWORD PTR tv146[ebp], ecx
  0015a	83 7d b4 0c	 cmp	 DWORD PTR tv146[ebp], 12 ; 0000000cH
  0015e	77 25		 ja	 SHORT $LN1@create_tas
  00160	8b 55 b4	 mov	 edx, DWORD PTR tv146[ebp]
  00163	0f b6 82 00 00
	00 00		 movzx	 eax, BYTE PTR $LN18@create_tas[edx]
  0016a	ff 24 85 00 00
	00 00		 jmp	 DWORD PTR $LN19@create_tas[eax*4]
$LN6@create_tas:

; 169  : 	{
; 170  : 		case ENTITY_SUB_TYPE_TASK_RECON:
; 171  : 		case ENTITY_SUB_TYPE_TASK_BDA:
; 172  : 		{
; 173  : 			//
; 174  : 			// Recon tasks aimed at enemy installations create offensive missions when completed
; 175  : 			//
; 176  : 		
; 177  : 			create_reaction_to_recon_task_completed (task);

  00171	8b 45 08	 mov	 eax, DWORD PTR _task$[ebp]
  00174	50		 push	 eax
  00175	e8 00 00 00 00	 call	 ?create_reaction_to_recon_task_completed@@YGXPAUENTITY@@@Z ; create_reaction_to_recon_task_completed

; 178  : 
; 179  : 			break;

  0017a	eb 09		 jmp	 SHORT $LN1@create_tas
$LN7@create_tas:

; 180  : 		}
; 181  : 
; 182  : 		case ENTITY_SUB_TYPE_TASK_GROUND_STRIKE:
; 183  : 		case ENTITY_SUB_TYPE_TASK_OCA_STRIKE:
; 184  : 		{
; 185  : 			//
; 186  : 			// Strike missions create BDA tasks when completed
; 187  : 			//
; 188  : 
; 189  : 			create_reaction_to_strike_task_completed (task);

  0017c	8b 45 08	 mov	 eax, DWORD PTR _task$[ebp]
  0017f	50		 push	 eax
  00180	e8 00 00 00 00	 call	 ?create_reaction_to_strike_task_completed@@YGXPAUENTITY@@@Z ; create_reaction_to_strike_task_completed
$LN1@create_tas:

; 190  : 
; 191  : 			break;
; 192  : 		}
; 193  : 
; 194  : 		case ENTITY_SUB_TYPE_TASK_OCA_SWEEP:
; 195  : 		case ENTITY_SUB_TYPE_TASK_BAI:
; 196  : 		case ENTITY_SUB_TYPE_TASK_CLOSE_AIR_SUPPORT:
; 197  : 		case ENTITY_SUB_TYPE_TASK_COASTAL_PATROL:
; 198  : 		case ENTITY_SUB_TYPE_TASK_COMBAT_AIR_PATROL:
; 199  : 		case ENTITY_SUB_TYPE_TASK_ESCORT:
; 200  : 		case ENTITY_SUB_TYPE_TASK_REPAIR:
; 201  : 		case ENTITY_SUB_TYPE_TASK_SEAD:
; 202  : 		case ENTITY_SUB_TYPE_TASK_SUPPLY:
; 203  : 		case ENTITY_SUB_TYPE_TASK_TRANSFER_FIXED_WING:
; 204  : 		case ENTITY_SUB_TYPE_TASK_TRANSFER_HELICOPTER:
; 205  : 		case ENTITY_SUB_TYPE_TASK_TROOP_INSERTION:
; 206  : 		default:
; 207  : 		{
; 208  : 			break;
; 209  : 		}
; 210  : 	}
; 211  : }

  00185	5f		 pop	 edi
  00186	5e		 pop	 esi
  00187	5b		 pop	 ebx
  00188	8b e5		 mov	 esp, ebp
  0018a	5d		 pop	 ebp
  0018b	c2 04 00	 ret	 4
  0018e	66 90		 npad	 2
$LN19@create_tas:
  00190	00 00 00 00	 DD	 $LN6@create_tas
  00194	00 00 00 00	 DD	 $LN7@create_tas
  00198	00 00 00 00	 DD	 $LN1@create_tas
$LN18@create_tas:
  0019c	00		 DB	 0
  0019d	02		 DB	 2
  0019e	02		 DB	 2
  0019f	02		 DB	 2
  001a0	02		 DB	 2
  001a1	02		 DB	 2
  001a2	02		 DB	 2
  001a3	01		 DB	 1
  001a4	02		 DB	 2
  001a5	02		 DB	 2
  001a6	01		 DB	 1
  001a7	02		 DB	 2
  001a8	00		 DB	 0
?create_task_completed_reactionary_tasks@@YGXPAUENTITY@@@Z ENDP ; create_task_completed_reactionary_tasks
_TEXT	ENDS
; Function compile flags: /Odtp /ZI
; File c:\users\nhv90\projects\eech\aphavoc\source\ai\highlevl\reaction.c
;	COMDAT ?create_task_assigned_reactionary_tasks@@YGXPAUENTITY@@@Z
_TEXT	SEGMENT
tv140 = -80						; size = 4
tv88 = -80						; size = 4
tv146 = -76						; size = 4
tv132 = -76						; size = 4
tv80 = -76						; size = 4
_task_side$ = -8					; size = 4
_task_type$ = -4					; size = 4
_task$ = 8						; size = 4
?create_task_assigned_reactionary_tasks@@YGXPAUENTITY@@@Z PROC ; create_task_assigned_reactionary_tasks, COMDAT

; 98   : {

  00000	55		 push	 ebp
  00001	8b ec		 mov	 ebp, esp
  00003	83 ec 50	 sub	 esp, 80			; 00000050H
  00006	53		 push	 ebx
  00007	56		 push	 esi
  00008	57		 push	 edi

; 99   : 	entity_sub_types
; 100  : 		task_type;
; 101  : 
; 102  : 	entity_sides
; 103  : 		task_side;
; 104  : 
; 105  : 	ASSERT (task);

  00009	83 7d 08 00	 cmp	 DWORD PTR _task$[ebp], 0
  0000d	75 18		 jne	 SHORT $LN4@create_tas
  0000f	a1 00 00 00 00	 mov	 eax, DWORD PTR ?__LINE__Var@?0??create_task_assigned_reactionary_tasks@@YGXPAUENTITY@@@Z@4JA
  00014	83 c0 07	 add	 eax, 7
  00017	50		 push	 eax
  00018	68 00 00 00 00	 push	 OFFSET ??_C@_0ED@PAFNPDBA@c?3?2users?2nhv90?2projects?2eech?2ap@
  0001d	68 00 00 00 00	 push	 OFFSET ??_C@_04GGKLLKOO@task@
  00022	e8 00 00 00 00	 call	 ?process_assert@@YGXPBD0H@Z ; process_assert
$LN4@create_tas:

; 106  : 
; 107  : 	ASSERT (get_comms_model () == COMMS_MODEL_SERVER);

  00027	83 3d 00 00 00
	00 00		 cmp	 DWORD PTR ?system_comms_model@@3W4COMMS_MODEL_TYPES@@A, 0 ; system_comms_model
  0002e	74 18		 je	 SHORT $LN5@create_tas
  00030	a1 00 00 00 00	 mov	 eax, DWORD PTR ?__LINE__Var@?0??create_task_assigned_reactionary_tasks@@YGXPAUENTITY@@@Z@4JA
  00035	83 c0 09	 add	 eax, 9
  00038	50		 push	 eax
  00039	68 00 00 00 00	 push	 OFFSET ??_C@_0ED@PAFNPDBA@c?3?2users?2nhv90?2projects?2eech?2ap@
  0003e	68 00 00 00 00	 push	 OFFSET ??_C@_0CJ@DMBLBJBK@get_comms_model?5?$CI?$CJ?5?$DN?$DN?5COMMS_MOD@
  00043	e8 00 00 00 00	 call	 ?process_assert@@YGXPBD0H@Z ; process_assert
$LN5@create_tas:

; 108  : 
; 109  : 	task_side = (entity_sides) get_local_entity_int_value (task, INT_TYPE_SIDE);

  00048	83 7d 08 00	 cmp	 DWORD PTR _task$[ebp], 0
  0004c	74 0a		 je	 SHORT $LN9@create_tas
  0004e	8b 45 08	 mov	 eax, DWORD PTR _task$[ebp]
  00051	8b 08		 mov	 ecx, DWORD PTR [eax]
  00053	89 4d b4	 mov	 DWORD PTR tv80[ebp], ecx
  00056	eb 21		 jmp	 SHORT $LN10@create_tas
$LN9@create_tas:
  00058	8b 15 00 00 00
	00		 mov	 edx, DWORD PTR ?__LINE__Var@?0??create_task_assigned_reactionary_tasks@@YGXPAUENTITY@@@Z@4JA
  0005e	83 c2 0b	 add	 edx, 11			; 0000000bH
  00061	52		 push	 edx
  00062	68 00 00 00 00	 push	 OFFSET ??_C@_0ED@PAFNPDBA@c?3?2users?2nhv90?2projects?2eech?2ap@
  00067	a1 00 00 00 00	 mov	 eax, DWORD PTR ?null_entity_pointer_message@@3PBDB ; null_entity_pointer_message
  0006c	50		 push	 eax
  0006d	e8 00 00 00 00	 call	 ?process_assert@@YGXPBD0H@Z ; process_assert
  00072	c7 45 b4 00 00
	00 00		 mov	 DWORD PTR tv80[ebp], 0
$LN10@create_tas:
  00079	b9 01 00 00 00	 mov	 ecx, 1
  0007e	85 c9		 test	 ecx, ecx
  00080	74 09		 je	 SHORT $LN11@create_tas
  00082	c7 45 b0 bb 00
	00 00		 mov	 DWORD PTR tv88[ebp], 187 ; 000000bbH
  00089	eb 21		 jmp	 SHORT $LN12@create_tas
$LN11@create_tas:
  0008b	8b 15 00 00 00
	00		 mov	 edx, DWORD PTR ?__LINE__Var@?0??create_task_assigned_reactionary_tasks@@YGXPAUENTITY@@@Z@4JA
  00091	83 c2 0b	 add	 edx, 11			; 0000000bH
  00094	52		 push	 edx
  00095	68 00 00 00 00	 push	 OFFSET ??_C@_0ED@PAFNPDBA@c?3?2users?2nhv90?2projects?2eech?2ap@
  0009a	a1 00 00 00 00	 mov	 eax, DWORD PTR ?overload_invalid_int_type_message@@3PBDB ; overload_invalid_int_type_message
  0009f	50		 push	 eax
  000a0	e8 00 00 00 00	 call	 ?process_assert@@YGXPBD0H@Z ; process_assert
  000a5	c7 45 b0 00 00
	00 00		 mov	 DWORD PTR tv88[ebp], 0
$LN12@create_tas:
  000ac	68 bb 00 00 00	 push	 187			; 000000bbH
  000b1	8b 4d 08	 mov	 ecx, DWORD PTR _task$[ebp]
  000b4	51		 push	 ecx
  000b5	69 55 b4 5c 04
	00 00		 imul	 edx, DWORD PTR tv80[ebp], 1116
  000bc	8b 45 b0	 mov	 eax, DWORD PTR tv88[ebp]
  000bf	8b 8c 82 00 00
	00 00		 mov	 ecx, DWORD PTR ?fn_get_local_entity_int_value@@3PAY0BBH@P6GHPAUENTITY@@W4INT_TYPES@@@ZA[edx+eax*4]
  000c6	ff d1		 call	 ecx
  000c8	89 45 f8	 mov	 DWORD PTR _task_side$[ebp], eax

; 110  : 
; 111  : 	task_type = get_local_entity_int_value (task, INT_TYPE_ENTITY_SUB_TYPE);

  000cb	83 7d 08 00	 cmp	 DWORD PTR _task$[ebp], 0
  000cf	74 0a		 je	 SHORT $LN13@create_tas
  000d1	8b 45 08	 mov	 eax, DWORD PTR _task$[ebp]
  000d4	8b 08		 mov	 ecx, DWORD PTR [eax]
  000d6	89 4d b4	 mov	 DWORD PTR tv132[ebp], ecx
  000d9	eb 21		 jmp	 SHORT $LN14@create_tas
$LN13@create_tas:
  000db	8b 15 00 00 00
	00		 mov	 edx, DWORD PTR ?__LINE__Var@?0??create_task_assigned_reactionary_tasks@@YGXPAUENTITY@@@Z@4JA
  000e1	83 c2 0d	 add	 edx, 13			; 0000000dH
  000e4	52		 push	 edx
  000e5	68 00 00 00 00	 push	 OFFSET ??_C@_0ED@PAFNPDBA@c?3?2users?2nhv90?2projects?2eech?2ap@
  000ea	a1 00 00 00 00	 mov	 eax, DWORD PTR ?null_entity_pointer_message@@3PBDB ; null_entity_pointer_message
  000ef	50		 push	 eax
  000f0	e8 00 00 00 00	 call	 ?process_assert@@YGXPBD0H@Z ; process_assert
  000f5	c7 45 b4 00 00
	00 00		 mov	 DWORD PTR tv132[ebp], 0
$LN14@create_tas:
  000fc	b9 01 00 00 00	 mov	 ecx, 1
  00101	85 c9		 test	 ecx, ecx
  00103	74 09		 je	 SHORT $LN15@create_tas
  00105	c7 45 b0 34 00
	00 00		 mov	 DWORD PTR tv140[ebp], 52 ; 00000034H
  0010c	eb 21		 jmp	 SHORT $LN16@create_tas
$LN15@create_tas:
  0010e	8b 15 00 00 00
	00		 mov	 edx, DWORD PTR ?__LINE__Var@?0??create_task_assigned_reactionary_tasks@@YGXPAUENTITY@@@Z@4JA
  00114	83 c2 0d	 add	 edx, 13			; 0000000dH
  00117	52		 push	 edx
  00118	68 00 00 00 00	 push	 OFFSET ??_C@_0ED@PAFNPDBA@c?3?2users?2nhv90?2projects?2eech?2ap@
  0011d	a1 00 00 00 00	 mov	 eax, DWORD PTR ?overload_invalid_int_type_message@@3PBDB ; overload_invalid_int_type_message
  00122	50		 push	 eax
  00123	e8 00 00 00 00	 call	 ?process_assert@@YGXPBD0H@Z ; process_assert
  00128	c7 45 b0 00 00
	00 00		 mov	 DWORD PTR tv140[ebp], 0
$LN16@create_tas:
  0012f	6a 34		 push	 52			; 00000034H
  00131	8b 4d 08	 mov	 ecx, DWORD PTR _task$[ebp]
  00134	51		 push	 ecx
  00135	69 55 b4 5c 04
	00 00		 imul	 edx, DWORD PTR tv132[ebp], 1116
  0013c	8b 45 b0	 mov	 eax, DWORD PTR tv140[ebp]
  0013f	8b 8c 82 00 00
	00 00		 mov	 ecx, DWORD PTR ?fn_get_local_entity_int_value@@3PAY0BBH@P6GHPAUENTITY@@W4INT_TYPES@@@ZA[edx+eax*4]
  00146	ff d1		 call	 ecx
  00148	89 45 fc	 mov	 DWORD PTR _task_type$[ebp], eax

; 112  : 
; 113  : 	switch (task_type)

  0014b	8b 45 fc	 mov	 eax, DWORD PTR _task_type$[ebp]
  0014e	89 45 b4	 mov	 DWORD PTR tv146[ebp], eax
  00151	83 7d b4 0c	 cmp	 DWORD PTR tv146[ebp], 12 ; 0000000cH
  00155	74 0e		 je	 SHORT $LN6@create_tas
  00157	83 7d b4 0e	 cmp	 DWORD PTR tv146[ebp], 14 ; 0000000eH
  0015b	7e 11		 jle	 SHORT $LN1@create_tas
  0015d	83 7d b4 11	 cmp	 DWORD PTR tv146[ebp], 17 ; 00000011H
  00161	7e 02		 jle	 SHORT $LN6@create_tas
  00163	eb 09		 jmp	 SHORT $LN1@create_tas
$LN6@create_tas:

; 114  : 	{
; 115  : 		//
; 116  : 		// Tasks aimed at enemy keysites create CAP as reaction
; 117  : 		//
; 118  : 		
; 119  : 		case ENTITY_SUB_TYPE_TASK_GROUND_STRIKE:
; 120  : 		case ENTITY_SUB_TYPE_TASK_OCA_STRIKE:
; 121  : 		case ENTITY_SUB_TYPE_TASK_OCA_SWEEP:
; 122  : 		case ENTITY_SUB_TYPE_TASK_RECON:
; 123  : 		{
; 124  : 			create_reaction_to_offensive_keysite_task_assigned (task);

  00165	8b 45 08	 mov	 eax, DWORD PTR _task$[ebp]
  00168	50		 push	 eax
  00169	e8 00 00 00 00	 call	 ?create_reaction_to_offensive_keysite_task_assigned@@YGXPAUENTITY@@@Z ; create_reaction_to_offensive_keysite_task_assigned
$LN1@create_tas:

; 125  : 
; 126  : 			break;
; 127  : 		}
; 128  : 
; 129  : 		case ENTITY_SUB_TYPE_TASK_BAI:
; 130  : 		case ENTITY_SUB_TYPE_TASK_BDA:
; 131  : 		case ENTITY_SUB_TYPE_TASK_CLOSE_AIR_SUPPORT:
; 132  : 		case ENTITY_SUB_TYPE_TASK_COASTAL_PATROL:
; 133  : 		case ENTITY_SUB_TYPE_TASK_COMBAT_AIR_PATROL:
; 134  : 		case ENTITY_SUB_TYPE_TASK_ESCORT:
; 135  : 		case ENTITY_SUB_TYPE_TASK_REPAIR:
; 136  : 		case ENTITY_SUB_TYPE_TASK_SEAD:
; 137  : 		case ENTITY_SUB_TYPE_TASK_SUPPLY:
; 138  : 		case ENTITY_SUB_TYPE_TASK_TRANSFER_FIXED_WING:
; 139  : 		case ENTITY_SUB_TYPE_TASK_TRANSFER_HELICOPTER:
; 140  : 		case ENTITY_SUB_TYPE_TASK_TROOP_INSERTION:
; 141  : 		default:
; 142  : 		{
; 143  : 			break;
; 144  : 		}
; 145  : 	}
; 146  : }

  0016e	5f		 pop	 edi
  0016f	5e		 pop	 esi
  00170	5b		 pop	 ebx
  00171	8b e5		 mov	 esp, ebp
  00173	5d		 pop	 ebp
  00174	c2 04 00	 ret	 4
?create_task_assigned_reactionary_tasks@@YGXPAUENTITY@@@Z ENDP ; create_task_assigned_reactionary_tasks
_TEXT	ENDS
; Function compile flags: /Odtp /ZI
; File c:\program files (x86)\windows kits\10\include\10.0.18362.0\ucrt\stdio.h
;	COMDAT _sprintf
_TEXT	SEGMENT
__ArgList$ = -8						; size = 4
__Result$ = -4						; size = 4
__Buffer$ = 8						; size = 4
__Format$ = 12						; size = 4
_sprintf PROC						; COMDAT

; 1781 :     {

  00000	55		 push	 ebp
  00001	8b ec		 mov	 ebp, esp
  00003	83 ec 4c	 sub	 esp, 76			; 0000004cH
  00006	53		 push	 ebx
  00007	56		 push	 esi
  00008	57		 push	 edi

; 1782 :         int _Result;
; 1783 :         va_list _ArgList;
; 1784 :         __crt_va_start(_ArgList, _Format);

  00009	8d 45 10	 lea	 eax, DWORD PTR __Format$[ebp+4]
  0000c	89 45 f8	 mov	 DWORD PTR __ArgList$[ebp], eax

; 1785 : 
; 1786 :         #pragma warning(push)
; 1787 :         #pragma warning(disable: 4996) // Deprecation
; 1788 :         _Result = _vsprintf_l(_Buffer, _Format, NULL, _ArgList);

  0000f	8b 45 f8	 mov	 eax, DWORD PTR __ArgList$[ebp]
  00012	50		 push	 eax
  00013	6a 00		 push	 0
  00015	8b 4d 0c	 mov	 ecx, DWORD PTR __Format$[ebp]
  00018	51		 push	 ecx
  00019	8b 55 08	 mov	 edx, DWORD PTR __Buffer$[ebp]
  0001c	52		 push	 edx
  0001d	e8 00 00 00 00	 call	 __vsprintf_l
  00022	83 c4 10	 add	 esp, 16			; 00000010H
  00025	89 45 fc	 mov	 DWORD PTR __Result$[ebp], eax

; 1789 :         #pragma warning(pop)
; 1790 : 
; 1791 :         __crt_va_end(_ArgList);

  00028	c7 45 f8 00 00
	00 00		 mov	 DWORD PTR __ArgList$[ebp], 0

; 1792 :         return _Result;

  0002f	8b 45 fc	 mov	 eax, DWORD PTR __Result$[ebp]

; 1793 :     }

  00032	5f		 pop	 edi
  00033	5e		 pop	 esi
  00034	5b		 pop	 ebx
  00035	8b e5		 mov	 esp, ebp
  00037	5d		 pop	 ebp
  00038	c3		 ret	 0
_sprintf ENDP
_TEXT	ENDS
; Function compile flags: /Odtp /ZI
; File c:\program files (x86)\windows kits\10\include\10.0.18362.0\ucrt\stdio.h
;	COMDAT __vsprintf_l
_TEXT	SEGMENT
__Buffer$ = 8						; size = 4
__Format$ = 12						; size = 4
__Locale$ = 16						; size = 4
__ArgList$ = 20						; size = 4
__vsprintf_l PROC					; COMDAT

; 1459 :     {

  00000	55		 push	 ebp
  00001	8b ec		 mov	 ebp, esp
  00003	83 ec 40	 sub	 esp, 64			; 00000040H
  00006	53		 push	 ebx
  00007	56		 push	 esi
  00008	57		 push	 edi

; 1460 :         #pragma warning(push)
; 1461 :         #pragma warning(disable: 4996) // Deprecation
; 1462 :         return _vsnprintf_l(_Buffer, (size_t)-1, _Format, _Locale, _ArgList);

  00009	8b 45 14	 mov	 eax, DWORD PTR __ArgList$[ebp]
  0000c	50		 push	 eax
  0000d	8b 4d 10	 mov	 ecx, DWORD PTR __Locale$[ebp]
  00010	51		 push	 ecx
  00011	8b 55 0c	 mov	 edx, DWORD PTR __Format$[ebp]
  00014	52		 push	 edx
  00015	6a ff		 push	 -1
  00017	8b 45 08	 mov	 eax, DWORD PTR __Buffer$[ebp]
  0001a	50		 push	 eax
  0001b	e8 00 00 00 00	 call	 __vsnprintf_l
  00020	83 c4 14	 add	 esp, 20			; 00000014H

; 1463 :         #pragma warning(pop)
; 1464 :     }

  00023	5f		 pop	 edi
  00024	5e		 pop	 esi
  00025	5b		 pop	 ebx
  00026	8b e5		 mov	 esp, ebp
  00028	5d		 pop	 ebp
  00029	c3		 ret	 0
__vsprintf_l ENDP
_TEXT	ENDS
; Function compile flags: /Odtp /ZI
; File c:\program files (x86)\windows kits\10\include\10.0.18362.0\ucrt\stdio.h
;	COMDAT __vsnprintf_l
_TEXT	SEGMENT
tv74 = -72						; size = 4
__Result$ = -4						; size = 4
__Buffer$ = 8						; size = 4
__BufferCount$ = 12					; size = 4
__Format$ = 16						; size = 4
__Locale$ = 20						; size = 4
__ArgList$ = 24						; size = 4
__vsnprintf_l PROC					; COMDAT

; 1389 :     {

  00000	55		 push	 ebp
  00001	8b ec		 mov	 ebp, esp
  00003	83 ec 48	 sub	 esp, 72			; 00000048H
  00006	53		 push	 ebx
  00007	56		 push	 esi
  00008	57		 push	 edi

; 1390 :         int const _Result = __stdio_common_vsprintf(

  00009	8b 45 18	 mov	 eax, DWORD PTR __ArgList$[ebp]
  0000c	50		 push	 eax
  0000d	8b 4d 14	 mov	 ecx, DWORD PTR __Locale$[ebp]
  00010	51		 push	 ecx
  00011	8b 55 10	 mov	 edx, DWORD PTR __Format$[ebp]
  00014	52		 push	 edx
  00015	8b 45 0c	 mov	 eax, DWORD PTR __BufferCount$[ebp]
  00018	50		 push	 eax
  00019	8b 4d 08	 mov	 ecx, DWORD PTR __Buffer$[ebp]
  0001c	51		 push	 ecx
  0001d	e8 00 00 00 00	 call	 ___local_stdio_printf_options
  00022	8b 10		 mov	 edx, DWORD PTR [eax]
  00024	83 ca 01	 or	 edx, 1
  00027	8b 40 04	 mov	 eax, DWORD PTR [eax+4]
  0002a	50		 push	 eax
  0002b	52		 push	 edx
  0002c	ff 15 00 00 00
	00		 call	 DWORD PTR __imp____stdio_common_vsprintf
  00032	83 c4 1c	 add	 esp, 28			; 0000001cH
  00035	89 45 fc	 mov	 DWORD PTR __Result$[ebp], eax

; 1391 :             _CRT_INTERNAL_LOCAL_PRINTF_OPTIONS | _CRT_INTERNAL_PRINTF_LEGACY_VSPRINTF_NULL_TERMINATION,
; 1392 :             _Buffer, _BufferCount, _Format, _Locale, _ArgList);
; 1393 : 
; 1394 :         return _Result < 0 ? -1 : _Result;

  00038	83 7d fc 00	 cmp	 DWORD PTR __Result$[ebp], 0
  0003c	7d 09		 jge	 SHORT $LN3@vsnprintf_
  0003e	c7 45 b8 ff ff
	ff ff		 mov	 DWORD PTR tv74[ebp], -1
  00045	eb 06		 jmp	 SHORT $LN4@vsnprintf_
$LN3@vsnprintf_:
  00047	8b 45 fc	 mov	 eax, DWORD PTR __Result$[ebp]
  0004a	89 45 b8	 mov	 DWORD PTR tv74[ebp], eax
$LN4@vsnprintf_:
  0004d	8b 45 b8	 mov	 eax, DWORD PTR tv74[ebp]

; 1395 :     }

  00050	5f		 pop	 edi
  00051	5e		 pop	 esi
  00052	5b		 pop	 ebx
  00053	8b e5		 mov	 esp, ebp
  00055	5d		 pop	 ebp
  00056	c3		 ret	 0
__vsnprintf_l ENDP
_TEXT	ENDS
; Function compile flags: /Odtp /ZI
; File c:\program files (x86)\windows kits\10\include\10.0.18362.0\ucrt\corecrt_stdio_config.h
;	COMDAT ___local_stdio_printf_options
_TEXT	SEGMENT
___local_stdio_printf_options PROC			; COMDAT

; 86   :     {

  00000	55		 push	 ebp
  00001	8b ec		 mov	 ebp, esp
  00003	83 ec 40	 sub	 esp, 64			; 00000040H
  00006	53		 push	 ebx
  00007	56		 push	 esi
  00008	57		 push	 edi

; 87   :         static unsigned __int64 _OptionsStorage;
; 88   :         return &_OptionsStorage;

  00009	b8 00 00 00 00	 mov	 eax, OFFSET ?_OptionsStorage@?1??__local_stdio_printf_options@@9@4_KA ; `__local_stdio_printf_options'::`2'::_OptionsStorage

; 89   :     }

  0000e	5f		 pop	 edi
  0000f	5e		 pop	 esi
  00010	5b		 pop	 ebx
  00011	8b e5		 mov	 esp, ebp
  00013	5d		 pop	 ebp
  00014	c3		 ret	 0
___local_stdio_printf_options ENDP
_TEXT	ENDS
END
