; Listing generated by Microsoft (R) Optimizing Compiler Version 19.16.27045.0 

	TITLE	C:\Users\nhv90\Projects\eech\aphavoc\source\entity\special\regen\regen.c
	.686P
	.XMM
	include listing.inc
	.model	flat

INCLUDELIB MSVCRTD
INCLUDELIB OLDNAMES

PUBLIC	?regen_to_landing_conversion@@3PAHA		; regen_to_landing_conversion
PUBLIC	?regen_queue@@3PAY05PAUREGEN_LIST_ELEMENT@@A	; regen_queue
PUBLIC	?regen_manager@@3PAY05UREGEN_MANAGEMENT_ELEMENT@@A ; regen_manager
PUBLIC	?regen_frequency@@3PAMA				; regen_frequency
PUBLIC	?regeneration_object_database@@3PAUREGENERATION_OBJECT_DATABASE_STRUCTURE@@A ; regeneration_object_database
PUBLIC	?object_3d_updateable_flag@@3PAHA		; object_3d_updateable_flag
_BSS	SEGMENT
?regen_to_landing_conversion@@3PAHA DD 06H DUP (?)	; regen_to_landing_conversion
?regen_queue@@3PAY05PAUREGEN_LIST_ELEMENT@@A DD 012H DUP (?) ; regen_queue
?regen_manager@@3PAY05UREGEN_MANAGEMENT_ELEMENT@@A DB 0d8H DUP (?) ; regen_manager
?regen_frequency@@3PAMA DD 03H DUP (?)			; regen_frequency
	ALIGN	8

?regeneration_object_database@@3PAUREGENERATION_OBJECT_DATABASE_STRUCTURE@@A DQ 0ae4H DUP (?) ; regeneration_object_database
?object_3d_updateable_flag@@3PAHA DD 0ae4H DUP (?)	; object_3d_updateable_flag
_BSS	ENDS
PUBLIC	?initialise_object_3d_regeneration_database@@YGXXZ ; initialise_object_3d_regeneration_database
PUBLIC	?get_3d_object_updateable_flag@@YGHH@Z		; get_3d_object_updateable_flag
PUBLIC	?get_object_3d_regeneration_type@@YG?AW4ENTITY_SUB_TYPE_REGEN@@HPAH@Z ; get_object_3d_regeneration_type
PUBLIC	?get_regen_frequency_difficulty_modifier@@YGMXZ	; get_regen_frequency_difficulty_modifier
PUBLIC	?__LINE__Var@?0??get_object_3d_regeneration_type@@YG?AW4ENTITY_SUB_TYPE_REGEN@@HPAH@Z@4JA ; `get_object_3d_regeneration_type'::`1'::__LINE__Var
PUBLIC	??_C@_0EJ@DCLHMGPC@c?3?2users?2nhv90?2projects?2eech?2ap@ ; `string'
PUBLIC	??_C@_0CI@KDHBGOAC@object?5?$DO?5OBJECT_3D_INVALID_OBJE@ ; `string'
PUBLIC	??_C@_0BI@EKJIAKFN@object?5?$DM?5OBJECT_3D_LAST@ ; `string'
PUBLIC	??_C@_0BK@OIHNIOCC@REGEN?3?5unknown?5regen?5type@ ; `string'
PUBLIC	__real@3f800000
EXTRN	?process_assert@@YGXPBD0H@Z:PROC		; process_assert
EXTRN	?debug_fatal@@YAXPBDZZ:PROC			; debug_fatal
EXTRN	?construct_3d_object@@YGPAUOBJECT_3D_INSTANCE@@H@Z:PROC ; construct_3d_object
EXTRN	?destruct_3d_object@@YGXPAUOBJECT_3D_INSTANCE@@@Z:PROC ; destruct_3d_object
EXTRN	?find_object_3d_sub_object@@YG?AW4SUB_OBJECT_SEARCH_RESULT_TYPES@@PAUOBJECT_3D_SUB_OBJECT_SEARCH_DATA@@@Z:PROC ; find_object_3d_sub_object
EXTRN	__fltused:DWORD
;	COMDAT __real@3f800000
CONST	SEGMENT
__real@3f800000 DD 03f800000r			; 1
CONST	ENDS
;	COMDAT ??_C@_0BK@OIHNIOCC@REGEN?3?5unknown?5regen?5type@
CONST	SEGMENT
??_C@_0BK@OIHNIOCC@REGEN?3?5unknown?5regen?5type@ DB 'REGEN: unknown rege'
	DB	'n type', 00H				; `string'
CONST	ENDS
;	COMDAT ??_C@_0BI@EKJIAKFN@object?5?$DM?5OBJECT_3D_LAST@
CONST	SEGMENT
??_C@_0BI@EKJIAKFN@object?5?$DM?5OBJECT_3D_LAST@ DB 'object < OBJECT_3D_L'
	DB	'AST', 00H					; `string'
CONST	ENDS
;	COMDAT ??_C@_0CI@KDHBGOAC@object?5?$DO?5OBJECT_3D_INVALID_OBJE@
CONST	SEGMENT
??_C@_0CI@KDHBGOAC@object?5?$DO?5OBJECT_3D_INVALID_OBJE@ DB 'object > OBJ'
	DB	'ECT_3D_INVALID_OBJECT_INDEX', 00H		; `string'
CONST	ENDS
;	COMDAT ??_C@_0EJ@DCLHMGPC@c?3?2users?2nhv90?2projects?2eech?2ap@
CONST	SEGMENT
??_C@_0EJ@DCLHMGPC@c?3?2users?2nhv90?2projects?2eech?2ap@ DB 'c:\users\nh'
	DB	'v90\projects\eech\aphavoc\source\entity\special\regen\regen.c'
	DB	00H						; `string'
CONST	ENDS
;	COMDAT ?__LINE__Var@?0??get_object_3d_regeneration_type@@YG?AW4ENTITY_SUB_TYPE_REGEN@@HPAH@Z@4JA
_DATA	SEGMENT
?__LINE__Var@?0??get_object_3d_regeneration_type@@YG?AW4ENTITY_SUB_TYPE_REGEN@@HPAH@Z@4JA DD 0d1H ; `get_object_3d_regeneration_type'::`1'::__LINE__Var
_DATA	ENDS
; Function compile flags: /Odtp /ZI
; File c:\users\nhv90\projects\eech\aphavoc\source\entity\special\regen\regen.c
;	COMDAT ?get_regen_frequency_difficulty_modifier@@YGMXZ
_TEXT	SEGMENT
?get_regen_frequency_difficulty_modifier@@YGMXZ PROC	; get_regen_frequency_difficulty_modifier, COMDAT

; 321  : {

  00000	55		 push	 ebp
  00001	8b ec		 mov	 ebp, esp
  00003	83 ec 40	 sub	 esp, 64			; 00000040H
  00006	53		 push	 ebx
  00007	56		 push	 esi
  00008	57		 push	 edi

; 322  : 	//
; 323  : 	// Modify Regen Frequency wrt difficulty level
; 324  : 	//
; 325  : 
; 326  : 	// (just use medium for now..)
; 327  : 	return REGEN_UPDATE_MEDIUM	;

  00009	d9 e8		 fld1

; 328  : }

  0000b	5f		 pop	 edi
  0000c	5e		 pop	 esi
  0000d	5b		 pop	 ebx
  0000e	8b e5		 mov	 esp, ebp
  00010	5d		 pop	 ebp
  00011	c3		 ret	 0
?get_regen_frequency_difficulty_modifier@@YGMXZ ENDP	; get_regen_frequency_difficulty_modifier
_TEXT	ENDS
; Function compile flags: /Odtp /ZI
; File c:\users\nhv90\projects\eech\aphavoc\source\entity\special\regen\regen.c
;	COMDAT ?get_object_3d_regeneration_type@@YG?AW4ENTITY_SUB_TYPE_REGEN@@HPAH@Z
_TEXT	SEGMENT
tv147 = -128						; size = 4
_search$1 = -60						; size = 56
_object_instance$2 = -4					; size = 4
_object$ = 8						; size = 4
_landing_sub_type$ = 12					; size = 4
?get_object_3d_regeneration_type@@YG?AW4ENTITY_SUB_TYPE_REGEN@@HPAH@Z PROC ; get_object_3d_regeneration_type, COMDAT

; 209  : {

  00000	55		 push	 ebp
  00001	8b ec		 mov	 ebp, esp
  00003	81 ec 80 00 00
	00		 sub	 esp, 128		; 00000080H
  00009	53		 push	 ebx
  0000a	56		 push	 esi
  0000b	57		 push	 edi

; 210  : 
; 211  : 	ASSERT ( object > OBJECT_3D_INVALID_OBJECT_INDEX );

  0000c	83 7d 08 00	 cmp	 DWORD PTR _object$[ebp], 0
  00010	7f 18		 jg	 SHORT $LN4@get_object
  00012	a1 00 00 00 00	 mov	 eax, DWORD PTR ?__LINE__Var@?0??get_object_3d_regeneration_type@@YG?AW4ENTITY_SUB_TYPE_REGEN@@HPAH@Z@4JA
  00017	83 c0 02	 add	 eax, 2
  0001a	50		 push	 eax
  0001b	68 00 00 00 00	 push	 OFFSET ??_C@_0EJ@DCLHMGPC@c?3?2users?2nhv90?2projects?2eech?2ap@
  00020	68 00 00 00 00	 push	 OFFSET ??_C@_0CI@KDHBGOAC@object?5?$DO?5OBJECT_3D_INVALID_OBJE@
  00025	e8 00 00 00 00	 call	 ?process_assert@@YGXPBD0H@Z ; process_assert
$LN4@get_object:

; 212  : 
; 213  : 	ASSERT ( object < OBJECT_3D_LAST );

  0002a	81 7d 08 e4 0a
	00 00		 cmp	 DWORD PTR _object$[ebp], 2788 ; 00000ae4H
  00031	7c 18		 jl	 SHORT $LN5@get_object
  00033	a1 00 00 00 00	 mov	 eax, DWORD PTR ?__LINE__Var@?0??get_object_3d_regeneration_type@@YG?AW4ENTITY_SUB_TYPE_REGEN@@HPAH@Z@4JA
  00038	83 c0 04	 add	 eax, 4
  0003b	50		 push	 eax
  0003c	68 00 00 00 00	 push	 OFFSET ??_C@_0EJ@DCLHMGPC@c?3?2users?2nhv90?2projects?2eech?2ap@
  00041	68 00 00 00 00	 push	 OFFSET ??_C@_0BI@EKJIAKFN@object?5?$DM?5OBJECT_3D_LAST@
  00046	e8 00 00 00 00	 call	 ?process_assert@@YGXPBD0H@Z ; process_assert
$LN5@get_object:

; 214  : 
; 215  : 	*landing_sub_type = NUM_ENTITY_SUB_TYPE_LANDINGS;

  0004b	8b 45 0c	 mov	 eax, DWORD PTR _landing_sub_type$[ebp]
  0004e	c7 00 06 00 00
	00		 mov	 DWORD PTR [eax], 6

; 216  : 
; 217  : 	if ( regeneration_object_database[object].regeneration_sub_type == NUM_ENTITY_SUB_TYPE_REGENS )

  00054	8b 45 08	 mov	 eax, DWORD PTR _object$[ebp]
  00057	83 3c c5 04 00
	00 00 06	 cmp	 DWORD PTR ?regeneration_object_database@@3PAUREGENERATION_OBJECT_DATABASE_STRUCTURE@@A[eax*8+4], 6
  0005f	0f 85 14 01 00
	00		 jne	 $LN6@get_object

; 218  : 	{
; 219  : 
; 220  : 		object_3d_instance
; 221  : 			*object_instance;
; 222  : 
; 223  : 		object_3d_sub_object_search_data
; 224  : 			search;
; 225  : 
; 226  : 		object_instance = construct_3d_object ( object );

  00065	8b 45 08	 mov	 eax, DWORD PTR _object$[ebp]
  00068	50		 push	 eax
  00069	e8 00 00 00 00	 call	 ?construct_3d_object@@YGPAUOBJECT_3D_INSTANCE@@H@Z ; construct_3d_object
  0006e	89 45 fc	 mov	 DWORD PTR _object_instance$2[ebp], eax

; 227  : 
; 228  : 		search.search_object = object_instance;

  00071	8b 45 fc	 mov	 eax, DWORD PTR _object_instance$2[ebp]
  00074	89 45 c4	 mov	 DWORD PTR _search$1[ebp], eax

; 229  : 		search.search_depth = 0;

  00077	c7 45 cc 00 00
	00 00		 mov	 DWORD PTR _search$1[ebp+8], 0

; 230  : 		search.sub_object_index = OBJECT_3D_SUB_OBJECT_REGEN_FIXED_WING;

  0007e	c7 45 d0 62 00
	00 00		 mov	 DWORD PTR _search$1[ebp+12], 98 ; 00000062H

; 231  : 	
; 232  : 		if ( find_object_3d_sub_object ( &search ) == SUB_OBJECT_SEARCH_RESULT_OBJECT_FOUND )

  00085	8d 45 c4	 lea	 eax, DWORD PTR _search$1[ebp]
  00088	50		 push	 eax
  00089	e8 00 00 00 00	 call	 ?find_object_3d_sub_object@@YG?AW4SUB_OBJECT_SEARCH_RESULT_TYPES@@PAUOBJECT_3D_SUB_OBJECT_SEARCH_DATA@@@Z ; find_object_3d_sub_object
  0008e	83 f8 01	 cmp	 eax, 1
  00091	75 17		 jne	 SHORT $LN7@get_object

; 233  : 		{
; 234  : 
; 235  : 			regeneration_object_database[object].regeneration_sub_type = ENTITY_SUB_TYPE_REGEN_FIXED_WING;

  00093	8b 45 08	 mov	 eax, DWORD PTR _object$[ebp]
  00096	c7 04 c5 04 00
	00 00 00 00 00
	00		 mov	 DWORD PTR ?regeneration_object_database@@3PAUREGENERATION_OBJECT_DATABASE_STRUCTURE@@A[eax*8+4], 0

; 236  : 
; 237  : 			*landing_sub_type = ENTITY_SUB_TYPE_LANDING_FIXED_WING;

  000a1	8b 45 0c	 mov	 eax, DWORD PTR _landing_sub_type$[ebp]
  000a4	c7 00 00 00 00
	00		 mov	 DWORD PTR [eax], 0
$LN7@get_object:

; 238  : 		}
; 239  : 
; 240  : 		search.search_object = object_instance;

  000aa	8b 45 fc	 mov	 eax, DWORD PTR _object_instance$2[ebp]
  000ad	89 45 c4	 mov	 DWORD PTR _search$1[ebp], eax

; 241  : 		search.search_depth = 0;

  000b0	c7 45 cc 00 00
	00 00		 mov	 DWORD PTR _search$1[ebp+8], 0

; 242  : 		search.sub_object_index = OBJECT_3D_SUB_OBJECT_REGEN_HELICOPTER;

  000b7	c7 45 d0 64 00
	00 00		 mov	 DWORD PTR _search$1[ebp+12], 100 ; 00000064H

; 243  : 	
; 244  : 		if ( find_object_3d_sub_object ( &search ) == SUB_OBJECT_SEARCH_RESULT_OBJECT_FOUND )

  000be	8d 45 c4	 lea	 eax, DWORD PTR _search$1[ebp]
  000c1	50		 push	 eax
  000c2	e8 00 00 00 00	 call	 ?find_object_3d_sub_object@@YG?AW4SUB_OBJECT_SEARCH_RESULT_TYPES@@PAUOBJECT_3D_SUB_OBJECT_SEARCH_DATA@@@Z ; find_object_3d_sub_object
  000c7	83 f8 01	 cmp	 eax, 1
  000ca	75 17		 jne	 SHORT $LN8@get_object

; 245  : 		{
; 246  : 
; 247  : 			regeneration_object_database[object].regeneration_sub_type = ENTITY_SUB_TYPE_REGEN_HELICOPTER;

  000cc	8b 45 08	 mov	 eax, DWORD PTR _object$[ebp]
  000cf	c7 04 c5 04 00
	00 00 01 00 00
	00		 mov	 DWORD PTR ?regeneration_object_database@@3PAUREGENERATION_OBJECT_DATABASE_STRUCTURE@@A[eax*8+4], 1

; 248  : 
; 249  : 			*landing_sub_type = ENTITY_SUB_TYPE_LANDING_HELICOPTER;

  000da	8b 45 0c	 mov	 eax, DWORD PTR _landing_sub_type$[ebp]
  000dd	c7 00 02 00 00
	00		 mov	 DWORD PTR [eax], 2
$LN8@get_object:

; 250  : 		}
; 251  : 
; 252  : 		search.search_object = object_instance;

  000e3	8b 45 fc	 mov	 eax, DWORD PTR _object_instance$2[ebp]
  000e6	89 45 c4	 mov	 DWORD PTR _search$1[ebp], eax

; 253  : 		search.search_depth = 0;

  000e9	c7 45 cc 00 00
	00 00		 mov	 DWORD PTR _search$1[ebp+8], 0

; 254  : 		search.sub_object_index = OBJECT_3D_SUB_OBJECT_REGEN_ROUTED_VEHICLE;

  000f0	c7 45 d0 65 00
	00 00		 mov	 DWORD PTR _search$1[ebp+12], 101 ; 00000065H

; 255  : 	
; 256  : 		if ( find_object_3d_sub_object ( &search ) == SUB_OBJECT_SEARCH_RESULT_OBJECT_FOUND )

  000f7	8d 45 c4	 lea	 eax, DWORD PTR _search$1[ebp]
  000fa	50		 push	 eax
  000fb	e8 00 00 00 00	 call	 ?find_object_3d_sub_object@@YG?AW4SUB_OBJECT_SEARCH_RESULT_TYPES@@PAUOBJECT_3D_SUB_OBJECT_SEARCH_DATA@@@Z ; find_object_3d_sub_object
  00100	83 f8 01	 cmp	 eax, 1
  00103	75 17		 jne	 SHORT $LN9@get_object

; 257  : 		{
; 258  : 
; 259  : 			regeneration_object_database[object].regeneration_sub_type = ENTITY_SUB_TYPE_REGEN_GROUND;

  00105	8b 45 08	 mov	 eax, DWORD PTR _object$[ebp]
  00108	c7 04 c5 04 00
	00 00 02 00 00
	00		 mov	 DWORD PTR ?regeneration_object_database@@3PAUREGENERATION_OBJECT_DATABASE_STRUCTURE@@A[eax*8+4], 2

; 260  : 
; 261  : 			*landing_sub_type = ENTITY_SUB_TYPE_LANDING_GROUND;

  00113	8b 45 0c	 mov	 eax, DWORD PTR _landing_sub_type$[ebp]
  00116	c7 00 03 00 00
	00		 mov	 DWORD PTR [eax], 3
$LN9@get_object:

; 262  : 		}
; 263  : 
; 264  : 		search.search_object = object_instance;

  0011c	8b 45 fc	 mov	 eax, DWORD PTR _object_instance$2[ebp]
  0011f	89 45 c4	 mov	 DWORD PTR _search$1[ebp], eax

; 265  : 		search.search_depth = 0;

  00122	c7 45 cc 00 00
	00 00		 mov	 DWORD PTR _search$1[ebp+8], 0

; 266  : 		search.sub_object_index = OBJECT_3D_SUB_OBJECT_REGEN_PERSON;

  00129	c7 45 d0 66 00
	00 00		 mov	 DWORD PTR _search$1[ebp+12], 102 ; 00000066H

; 267  : 	
; 268  : 		if ( find_object_3d_sub_object ( &search ) == SUB_OBJECT_SEARCH_RESULT_OBJECT_FOUND )

  00130	8d 45 c4	 lea	 eax, DWORD PTR _search$1[ebp]
  00133	50		 push	 eax
  00134	e8 00 00 00 00	 call	 ?find_object_3d_sub_object@@YG?AW4SUB_OBJECT_SEARCH_RESULT_TYPES@@PAUOBJECT_3D_SUB_OBJECT_SEARCH_DATA@@@Z ; find_object_3d_sub_object
  00139	83 f8 01	 cmp	 eax, 1
  0013c	75 17		 jne	 SHORT $LN10@get_object

; 269  : 		{
; 270  : 
; 271  : 			regeneration_object_database[object].regeneration_sub_type = ENTITY_SUB_TYPE_REGEN_PEOPLE;

  0013e	8b 45 08	 mov	 eax, DWORD PTR _object$[ebp]
  00141	c7 04 c5 04 00
	00 00 03 00 00
	00		 mov	 DWORD PTR ?regeneration_object_database@@3PAUREGENERATION_OBJECT_DATABASE_STRUCTURE@@A[eax*8+4], 3

; 272  : 
; 273  : 			*landing_sub_type = ENTITY_SUB_TYPE_LANDING_PEOPLE;

  0014c	8b 45 0c	 mov	 eax, DWORD PTR _landing_sub_type$[ebp]
  0014f	c7 00 04 00 00
	00		 mov	 DWORD PTR [eax], 4
$LN10@get_object:

; 274  : 		}
; 275  : 
; 276  : /*
; 277  : 		search.object = object_instance;
; 278  : 		search.search_depth = 0;
; 279  : 		search.sub_object_index = OBJECT_3D_SUB_OBJECT_REGEN_SHIP_VEHICLE;
; 280  : 	
; 281  : 		if ( find_object_3d_sub_object ( &search ) == SUB_OBJECT_SEARCH_RESULT_OBJECT_FOUND )
; 282  : 		{
; 283  : 
; 284  : 			regeneration_object_database[object].regeneration_sub_type = ENTITY_SUB_TYPE_REGEN_SHIP_VEHICLE;
; 285  : 
; 286  : 			*landing_sub_type = ENTITY_SUB_TYPE_LANDING_SEA;
; 287  : 		}
; 288  : */
; 289  : 		destruct_3d_object ( object_instance );

  00155	8b 45 fc	 mov	 eax, DWORD PTR _object_instance$2[ebp]
  00158	50		 push	 eax
  00159	e8 00 00 00 00	 call	 ?destruct_3d_object@@YGXPAUOBJECT_3D_INSTANCE@@@Z ; destruct_3d_object

; 290  : 
; 291  : 		if ( regeneration_object_database[object].regeneration_sub_type == NUM_ENTITY_SUB_TYPE_REGENS )

  0015e	8b 45 08	 mov	 eax, DWORD PTR _object$[ebp]
  00161	83 3c c5 04 00
	00 00 06	 cmp	 DWORD PTR ?regeneration_object_database@@3PAUREGENERATION_OBJECT_DATABASE_STRUCTURE@@A[eax*8+4], 6
  00169	75 0e		 jne	 SHORT $LN6@get_object

; 292  : 		{
; 293  : 
; 294  : 			regeneration_object_database[object].regeneration_sub_type = ENTITY_SUB_TYPE_REGEN_NONE;

  0016b	8b 45 08	 mov	 eax, DWORD PTR _object$[ebp]
  0016e	c7 04 c5 04 00
	00 00 05 00 00
	00		 mov	 DWORD PTR ?regeneration_object_database@@3PAUREGENERATION_OBJECT_DATABASE_STRUCTURE@@A[eax*8+4], 5
$LN6@get_object:

; 295  : 		}
; 296  : 	}
; 297  : 
; 298  : 	switch ( regeneration_object_database[object].regeneration_sub_type )

  00179	8b 45 08	 mov	 eax, DWORD PTR _object$[ebp]
  0017c	8b 0c c5 04 00
	00 00		 mov	 ecx, DWORD PTR ?regeneration_object_database@@3PAUREGENERATION_OBJECT_DATABASE_STRUCTURE@@A[eax*8+4]
  00183	89 4d 80	 mov	 DWORD PTR tv147[ebp], ecx
  00186	83 7d 80 05	 cmp	 DWORD PTR tv147[ebp], 5
  0018a	77 41		 ja	 SHORT $LN17@get_object
  0018c	8b 55 80	 mov	 edx, DWORD PTR tv147[ebp]
  0018f	ff 24 95 00 00
	00 00		 jmp	 DWORD PTR $LN19@get_object[edx*4]
$LN12@get_object:

; 299  : 	{
; 300  : 
; 301  : 		case ENTITY_SUB_TYPE_REGEN_FIXED_WING:	{ *landing_sub_type = ENTITY_SUB_TYPE_LANDING_FIXED_WING; break; }

  00196	8b 45 0c	 mov	 eax, DWORD PTR _landing_sub_type$[ebp]
  00199	c7 00 00 00 00
	00		 mov	 DWORD PTR [eax], 0
  0019f	eb 39		 jmp	 SHORT $LN2@get_object
$LN13@get_object:

; 302  : 		case ENTITY_SUB_TYPE_REGEN_HELICOPTER:	{ *landing_sub_type = ENTITY_SUB_TYPE_LANDING_HELICOPTER; break; }

  001a1	8b 45 0c	 mov	 eax, DWORD PTR _landing_sub_type$[ebp]
  001a4	c7 00 02 00 00
	00		 mov	 DWORD PTR [eax], 2
  001aa	eb 2e		 jmp	 SHORT $LN2@get_object
$LN14@get_object:

; 303  : 		case ENTITY_SUB_TYPE_REGEN_GROUND:		{ *landing_sub_type = ENTITY_SUB_TYPE_LANDING_GROUND; break; }

  001ac	8b 45 0c	 mov	 eax, DWORD PTR _landing_sub_type$[ebp]
  001af	c7 00 03 00 00
	00		 mov	 DWORD PTR [eax], 3
  001b5	eb 23		 jmp	 SHORT $LN2@get_object
$LN15@get_object:

; 304  : 		case ENTITY_SUB_TYPE_REGEN_PEOPLE:		{ *landing_sub_type = ENTITY_SUB_TYPE_LANDING_PEOPLE; break; }

  001b7	8b 45 0c	 mov	 eax, DWORD PTR _landing_sub_type$[ebp]
  001ba	c7 00 04 00 00
	00		 mov	 DWORD PTR [eax], 4
  001c0	eb 18		 jmp	 SHORT $LN2@get_object
$LN16@get_object:

; 305  : 		case ENTITY_SUB_TYPE_REGEN_NONE:			{ *landing_sub_type = NUM_ENTITY_SUB_TYPE_LANDINGS; break; }

  001c2	8b 45 0c	 mov	 eax, DWORD PTR _landing_sub_type$[ebp]
  001c5	c7 00 06 00 00
	00		 mov	 DWORD PTR [eax], 6
  001cb	eb 0d		 jmp	 SHORT $LN2@get_object
$LN17@get_object:

; 306  : 		default:
; 307  : 		{
; 308  : 
; 309  : 			debug_fatal ( "REGEN: unknown regen type" );

  001cd	68 00 00 00 00	 push	 OFFSET ??_C@_0BK@OIHNIOCC@REGEN?3?5unknown?5regen?5type@
  001d2	e8 00 00 00 00	 call	 ?debug_fatal@@YAXPBDZZ	; debug_fatal
  001d7	83 c4 04	 add	 esp, 4
$LN2@get_object:

; 310  : 		}
; 311  : 	}
; 312  : 
; 313  : 	return ( regeneration_object_database[object].regeneration_sub_type );

  001da	8b 45 08	 mov	 eax, DWORD PTR _object$[ebp]
  001dd	8b 04 c5 04 00
	00 00		 mov	 eax, DWORD PTR ?regeneration_object_database@@3PAUREGENERATION_OBJECT_DATABASE_STRUCTURE@@A[eax*8+4]

; 314  : }

  001e4	5f		 pop	 edi
  001e5	5e		 pop	 esi
  001e6	5b		 pop	 ebx
  001e7	8b e5		 mov	 esp, ebp
  001e9	5d		 pop	 ebp
  001ea	c2 08 00	 ret	 8
  001ed	0f 1f 00	 npad	 3
$LN19@get_object:
  001f0	00 00 00 00	 DD	 $LN12@get_object
  001f4	00 00 00 00	 DD	 $LN13@get_object
  001f8	00 00 00 00	 DD	 $LN14@get_object
  001fc	00 00 00 00	 DD	 $LN15@get_object
  00200	00 00 00 00	 DD	 $LN17@get_object
  00204	00 00 00 00	 DD	 $LN16@get_object
?get_object_3d_regeneration_type@@YG?AW4ENTITY_SUB_TYPE_REGEN@@HPAH@Z ENDP ; get_object_3d_regeneration_type
_TEXT	ENDS
; Function compile flags: /Odtp /ZI
; File c:\users\nhv90\projects\eech\aphavoc\source\entity\special\regen\regen.c
;	COMDAT ?get_3d_object_updateable_flag@@YGHH@Z
_TEXT	SEGMENT
_search$1 = -60						; size = 56
_object_instance$2 = -4					; size = 4
_object$ = 8						; size = 4
?get_3d_object_updateable_flag@@YGHH@Z PROC		; get_3d_object_updateable_flag, COMDAT

; 160  : {

  00000	55		 push	 ebp
  00001	8b ec		 mov	 ebp, esp
  00003	83 ec 7c	 sub	 esp, 124		; 0000007cH
  00006	53		 push	 ebx
  00007	56		 push	 esi
  00008	57		 push	 edi

; 161  : 
; 162  : 	if ( object_3d_updateable_flag[object] == -1 )

  00009	8b 45 08	 mov	 eax, DWORD PTR _object$[ebp]
  0000c	83 3c 85 00 00
	00 00 ff	 cmp	 DWORD PTR ?object_3d_updateable_flag@@3PAHA[eax*4], -1
  00014	0f 85 85 00 00
	00		 jne	 $LN2@get_3d_obj

; 163  : 	{
; 164  : 
; 165  : 		object_3d_instance
; 166  : 			*object_instance;
; 167  : 
; 168  : 		object_3d_sub_object_search_data
; 169  : 			search;
; 170  : 
; 171  : 		object_3d_updateable_flag[object] = FALSE;

  0001a	8b 45 08	 mov	 eax, DWORD PTR _object$[ebp]
  0001d	c7 04 85 00 00
	00 00 00 00 00
	00		 mov	 DWORD PTR ?object_3d_updateable_flag@@3PAHA[eax*4], 0

; 172  : 
; 173  : 		object_instance = construct_3d_object ( object );

  00028	8b 45 08	 mov	 eax, DWORD PTR _object$[ebp]
  0002b	50		 push	 eax
  0002c	e8 00 00 00 00	 call	 ?construct_3d_object@@YGPAUOBJECT_3D_INSTANCE@@H@Z ; construct_3d_object
  00031	89 45 fc	 mov	 DWORD PTR _object_instance$2[ebp], eax

; 174  : 
; 175  : 		search.search_object = object_instance;

  00034	8b 45 fc	 mov	 eax, DWORD PTR _object_instance$2[ebp]
  00037	89 45 c4	 mov	 DWORD PTR _search$1[ebp], eax

; 176  : 		search.search_depth = 0;

  0003a	c7 45 cc 00 00
	00 00		 mov	 DWORD PTR _search$1[ebp+8], 0

; 177  : 		search.sub_object_index = OBJECT_3D_SUB_OBJECT_UPDATEABLE_OBJECT;

  00041	c7 45 d0 63 00
	00 00		 mov	 DWORD PTR _search$1[ebp+12], 99 ; 00000063H

; 178  : 	
; 179  : 		if ( find_object_3d_sub_object ( &search ) == SUB_OBJECT_SEARCH_RESULT_OBJECT_FOUND )

  00048	8d 45 c4	 lea	 eax, DWORD PTR _search$1[ebp]
  0004b	50		 push	 eax
  0004c	e8 00 00 00 00	 call	 ?find_object_3d_sub_object@@YG?AW4SUB_OBJECT_SEARCH_RESULT_TYPES@@PAUOBJECT_3D_SUB_OBJECT_SEARCH_DATA@@@Z ; find_object_3d_sub_object
  00051	83 f8 01	 cmp	 eax, 1
  00054	75 10		 jne	 SHORT $LN3@get_3d_obj

; 180  : 		{
; 181  : 
; 182  : 			object_3d_updateable_flag[object] = TRUE;

  00056	8b 45 08	 mov	 eax, DWORD PTR _object$[ebp]
  00059	c7 04 85 00 00
	00 00 01 00 00
	00		 mov	 DWORD PTR ?object_3d_updateable_flag@@3PAHA[eax*4], 1

; 183  : 		}
; 184  : 		else

  00064	eb 30		 jmp	 SHORT $LN4@get_3d_obj
$LN3@get_3d_obj:

; 185  : 		{
; 186  : 
; 187  : 			search.search_object = object_instance;

  00066	8b 45 fc	 mov	 eax, DWORD PTR _object_instance$2[ebp]
  00069	89 45 c4	 mov	 DWORD PTR _search$1[ebp], eax

; 188  : 			search.search_depth = 0;

  0006c	c7 45 cc 00 00
	00 00		 mov	 DWORD PTR _search$1[ebp+8], 0

; 189  : 			search.sub_object_index = OBJECT_3D_SUB_OBJECT_RADAR;

  00073	c7 45 d0 67 00
	00 00		 mov	 DWORD PTR _search$1[ebp+12], 103 ; 00000067H

; 190  : 		
; 191  : 			if ( find_object_3d_sub_object ( &search ) == SUB_OBJECT_SEARCH_RESULT_OBJECT_FOUND )

  0007a	8d 45 c4	 lea	 eax, DWORD PTR _search$1[ebp]
  0007d	50		 push	 eax
  0007e	e8 00 00 00 00	 call	 ?find_object_3d_sub_object@@YG?AW4SUB_OBJECT_SEARCH_RESULT_TYPES@@PAUOBJECT_3D_SUB_OBJECT_SEARCH_DATA@@@Z ; find_object_3d_sub_object
  00083	83 f8 01	 cmp	 eax, 1
  00086	75 0e		 jne	 SHORT $LN4@get_3d_obj

; 192  : 			{
; 193  : 	
; 194  : 				object_3d_updateable_flag[object] = TRUE;

  00088	8b 45 08	 mov	 eax, DWORD PTR _object$[ebp]
  0008b	c7 04 85 00 00
	00 00 01 00 00
	00		 mov	 DWORD PTR ?object_3d_updateable_flag@@3PAHA[eax*4], 1
$LN4@get_3d_obj:

; 195  : 			}
; 196  : 		}
; 197  : 
; 198  : 		destruct_3d_object ( object_instance );

  00096	8b 45 fc	 mov	 eax, DWORD PTR _object_instance$2[ebp]
  00099	50		 push	 eax
  0009a	e8 00 00 00 00	 call	 ?destruct_3d_object@@YGXPAUOBJECT_3D_INSTANCE@@@Z ; destruct_3d_object
$LN2@get_3d_obj:

; 199  : 	}
; 200  : 
; 201  : 	return ( object_3d_updateable_flag[object] );

  0009f	8b 45 08	 mov	 eax, DWORD PTR _object$[ebp]
  000a2	8b 04 85 00 00
	00 00		 mov	 eax, DWORD PTR ?object_3d_updateable_flag@@3PAHA[eax*4]

; 202  : }

  000a9	5f		 pop	 edi
  000aa	5e		 pop	 esi
  000ab	5b		 pop	 ebx
  000ac	8b e5		 mov	 esp, ebp
  000ae	5d		 pop	 ebp
  000af	c2 04 00	 ret	 4
?get_3d_object_updateable_flag@@YGHH@Z ENDP		; get_3d_object_updateable_flag
_TEXT	ENDS
; Function compile flags: /Odtp /ZI
; File c:\users\nhv90\projects\eech\aphavoc\source\entity\special\regen\regen.c
;	COMDAT ?initialise_object_3d_regeneration_database@@YGXXZ
_TEXT	SEGMENT
_count$ = -4						; size = 4
?initialise_object_3d_regeneration_database@@YGXXZ PROC	; initialise_object_3d_regeneration_database, COMDAT

; 120  : {

  00000	55		 push	 ebp
  00001	8b ec		 mov	 ebp, esp
  00003	83 ec 44	 sub	 esp, 68			; 00000044H
  00006	53		 push	 ebx
  00007	56		 push	 esi
  00008	57		 push	 edi

; 121  : 
; 122  : 	int
; 123  : 		count;
; 124  : 
; 125  : 	//
; 126  : 	// Setup the regeneration flags for each 3d object
; 127  : 	//
; 128  : 
; 129  : 	regen_to_landing_conversion [ENTITY_SUB_TYPE_REGEN_NONE] = 0;

  00009	b8 04 00 00 00	 mov	 eax, 4
  0000e	6b c8 05	 imul	 ecx, eax, 5
  00011	c7 81 00 00 00
	00 00 00 00 00	 mov	 DWORD PTR ?regen_to_landing_conversion@@3PAHA[ecx], 0

; 130  : 	regen_to_landing_conversion [ENTITY_SUB_TYPE_REGEN_HELICOPTER] = ENTITY_SUB_TYPE_LANDING_HELICOPTER;

  0001b	b8 04 00 00 00	 mov	 eax, 4
  00020	c1 e0 00	 shl	 eax, 0
  00023	c7 80 00 00 00
	00 02 00 00 00	 mov	 DWORD PTR ?regen_to_landing_conversion@@3PAHA[eax], 2

; 131  : 	regen_to_landing_conversion [ENTITY_SUB_TYPE_REGEN_FIXED_WING] = ENTITY_SUB_TYPE_LANDING_FIXED_WING;

  0002d	b8 04 00 00 00	 mov	 eax, 4
  00032	6b c8 00	 imul	 ecx, eax, 0
  00035	c7 81 00 00 00
	00 00 00 00 00	 mov	 DWORD PTR ?regen_to_landing_conversion@@3PAHA[ecx], 0

; 132  : 	regen_to_landing_conversion [ENTITY_SUB_TYPE_REGEN_GROUND] = ENTITY_SUB_TYPE_LANDING_GROUND;

  0003f	b8 04 00 00 00	 mov	 eax, 4
  00044	d1 e0		 shl	 eax, 1
  00046	c7 80 00 00 00
	00 03 00 00 00	 mov	 DWORD PTR ?regen_to_landing_conversion@@3PAHA[eax], 3

; 133  : 	regen_to_landing_conversion [ENTITY_SUB_TYPE_REGEN_PEOPLE] = ENTITY_SUB_TYPE_LANDING_PEOPLE;

  00050	b8 04 00 00 00	 mov	 eax, 4
  00055	6b c8 03	 imul	 ecx, eax, 3
  00058	c7 81 00 00 00
	00 04 00 00 00	 mov	 DWORD PTR ?regen_to_landing_conversion@@3PAHA[ecx], 4

; 134  : 	regen_to_landing_conversion [ENTITY_SUB_TYPE_REGEN_SEA] = ENTITY_SUB_TYPE_LANDING_SEA;

  00062	b8 04 00 00 00	 mov	 eax, 4
  00067	c1 e0 02	 shl	 eax, 2
  0006a	c7 80 00 00 00
	00 05 00 00 00	 mov	 DWORD PTR ?regen_to_landing_conversion@@3PAHA[eax], 5

; 135  : 
; 136  : 	for ( count = OBJECT_3D_INVALID_OBJECT_INDEX + 1; count < OBJECT_3D_LAST; count++ )

  00074	c7 45 fc 01 00
	00 00		 mov	 DWORD PTR _count$[ebp], 1
  0007b	eb 09		 jmp	 SHORT $LN4@initialise
$LN2@initialise:
  0007d	8b 45 fc	 mov	 eax, DWORD PTR _count$[ebp]
  00080	83 c0 01	 add	 eax, 1
  00083	89 45 fc	 mov	 DWORD PTR _count$[ebp], eax
$LN4@initialise:
  00086	81 7d fc e4 0a
	00 00		 cmp	 DWORD PTR _count$[ebp], 2788 ; 00000ae4H
  0008d	7d 1e		 jge	 SHORT $LN3@initialise

; 137  : 	{
; 138  : 
; 139  : 		regeneration_object_database[count].object_index = OBJECT_3D_INVALID_OBJECT_INDEX;

  0008f	8b 45 fc	 mov	 eax, DWORD PTR _count$[ebp]
  00092	c7 04 c5 00 00
	00 00 00 00 00
	00		 mov	 DWORD PTR ?regeneration_object_database@@3PAUREGENERATION_OBJECT_DATABASE_STRUCTURE@@A[eax*8], 0

; 140  : 
; 141  : 		regeneration_object_database[count].regeneration_sub_type = NUM_ENTITY_SUB_TYPE_REGENS;

  0009d	8b 45 fc	 mov	 eax, DWORD PTR _count$[ebp]
  000a0	c7 04 c5 04 00
	00 00 06 00 00
	00		 mov	 DWORD PTR ?regeneration_object_database@@3PAUREGENERATION_OBJECT_DATABASE_STRUCTURE@@A[eax*8+4], 6

; 142  : 	}

  000ab	eb d0		 jmp	 SHORT $LN2@initialise
$LN3@initialise:

; 143  : 
; 144  : 	//
; 145  : 	// Setup the updateable flags for each 3d object
; 146  : 	//
; 147  : 
; 148  : 	for ( count = OBJECT_3D_INVALID_OBJECT_INDEX + 1; count < OBJECT_3D_LAST; count++ )

  000ad	c7 45 fc 01 00
	00 00		 mov	 DWORD PTR _count$[ebp], 1
  000b4	eb 09		 jmp	 SHORT $LN7@initialise
$LN5@initialise:
  000b6	8b 45 fc	 mov	 eax, DWORD PTR _count$[ebp]
  000b9	83 c0 01	 add	 eax, 1
  000bc	89 45 fc	 mov	 DWORD PTR _count$[ebp], eax
$LN7@initialise:
  000bf	81 7d fc e4 0a
	00 00		 cmp	 DWORD PTR _count$[ebp], 2788 ; 00000ae4H
  000c6	7d 10		 jge	 SHORT $LN1@initialise

; 149  : 	{
; 150  : 
; 151  : 		object_3d_updateable_flag[count] = -1;

  000c8	8b 45 fc	 mov	 eax, DWORD PTR _count$[ebp]
  000cb	c7 04 85 00 00
	00 00 ff ff ff
	ff		 mov	 DWORD PTR ?object_3d_updateable_flag@@3PAHA[eax*4], -1

; 152  : 	}

  000d6	eb de		 jmp	 SHORT $LN5@initialise
$LN1@initialise:

; 153  : }

  000d8	5f		 pop	 edi
  000d9	5e		 pop	 esi
  000da	5b		 pop	 ebx
  000db	8b e5		 mov	 esp, ebp
  000dd	5d		 pop	 ebp
  000de	c3		 ret	 0
?initialise_object_3d_regeneration_database@@YGXXZ ENDP	; initialise_object_3d_regeneration_database
_TEXT	ENDS
END
