; Listing generated by Microsoft (R) Optimizing Compiler Version 19.16.27045.0 

	TITLE	C:\Users\nhv90\Projects\eech\aphavoc\source\entity\special\regen\rg_creat.c
	.686P
	.XMM
	include listing.inc
	.model	flat

INCLUDELIB MSVCRTD
INCLUDELIB OLDNAMES

PUBLIC	?overload_regen_create_functions@@YGXXZ		; overload_regen_create_functions
PUBLIC	?__LINE__Var@?0??create_local@@YGPAUENTITY@@W4ENTITY_TYPES@@HPAD@Z@4JA ; `create_local'::`1'::__LINE__Var
PUBLIC	??_C@_0EM@OOJHBCL@c?3?2users?2nhv90?2projects?2eech?2ap@ ; `string'
PUBLIC	??_C@_0CL@OOPHFNJI@assert_local_create_entity_inde@ ; `string'
PUBLIC	??_C@_0CM@FBBPIFGC@entity_sub_type_regen_valid?5?$CIra@ ; `string'
PUBLIC	??_C@_07FBNBNOMI@keysite@			; `string'
PUBLIC	??_C@_02HODPCBMO@wp@				; `string'
PUBLIC	?__LINE__Var@?0??create_remote@@YGPAUENTITY@@W4ENTITY_TYPES@@HPAD@Z@4JA ; `create_remote'::`1'::__LINE__Var
PUBLIC	??_C@_0CM@DHBIKIGD@assert_remote_create_entity_ind@ ; `string'
PUBLIC	?__LINE__Var@?0??create_server@@YGPAUENTITY@@W4ENTITY_TYPES@@HPAD@Z@4JA ; `create_server'::`1'::__LINE__Var
PUBLIC	??_C@_0CB@CFOCLFOK@assert_client_server_local_fn?5?$CI@ ; `string'
PUBLIC	??_C@_0CC@BNNNEGEG@assert_client_server_remote_fn?5@ ; `string'
PUBLIC	?__LINE__Var@?0??create_client@@YGPAUENTITY@@W4ENTITY_TYPES@@HPAD@Z@4JA ; `create_client'::`1'::__LINE__Var
PUBLIC	__real@3f00002000400080
PUBLIC	__real@4014000000000000
PUBLIC	__real@404e000000000000
EXTRN	_memset:PROC
EXTRN	?process_assert@@YGXPBD0H@Z:PROC		; process_assert
EXTRN	?malloc_fast_memory@@YGPAXI@Z:PROC		; malloc_fast_memory
EXTRN	?set_local_entity_attributes@@YGXPAUENTITY@@PAD@Z:PROC ; set_local_entity_attributes
EXTRN	?insert_local_entity_into_parents_child_list@@YGXPAUENTITY@@W4LIST_TYPES@@00@Z:PROC ; insert_local_entity_into_parents_child_list
EXTRN	?transmit_entity_comms_message@@YAXW4ENTITY_COMMS_MESSAGES@@PAUENTITY@@ZZ:PROC ; transmit_entity_comms_message
EXTRN	?assert_client_server_local_fn@@YGHXZ:PROC	; assert_client_server_local_fn
EXTRN	?assert_client_server_remote_fn@@YGHXZ:PROC	; assert_client_server_remote_fn
EXTRN	?assert_local_create_entity_index@@YGHH@Z:PROC	; assert_local_create_entity_index
EXTRN	?assert_remote_create_entity_index@@YGHH@Z:PROC	; assert_remote_create_entity_index
EXTRN	?get_free_entity@@YGPAUENTITY@@H@Z:PROC		; get_free_entity
EXTRN	?random_number_seed@@3HA:DWORD			; random_number_seed
EXTRN	?system_comms_data_flow@@3W4COMMS_DATA_FLOW_TYPES@@A:DWORD ; system_comms_data_flow
EXTRN	?world_map@@3UWORLD_MAP_DATA@@A:BYTE		; world_map
EXTRN	?fn_create_local_entity@@3PAP6GPAUENTITY@@W4ENTITY_TYPES@@HPAD@ZA:BYTE ; fn_create_local_entity
EXTRN	?fn_create_client_server_entity@@3PAY01P6GPAUENTITY@@W4ENTITY_TYPES@@HPAD@ZA:BYTE ; fn_create_client_server_entity
EXTRN	?entities@@3PAUENTITY@@A:DWORD			; entities
EXTRN	?update_entity@@3PAUENTITY@@A:DWORD		; update_entity
EXTRN	__fltused:DWORD
;	COMDAT __real@404e000000000000
CONST	SEGMENT
__real@404e000000000000 DQ 0404e000000000000r	; 60
CONST	ENDS
;	COMDAT __real@4014000000000000
CONST	SEGMENT
__real@4014000000000000 DQ 04014000000000000r	; 5
CONST	ENDS
;	COMDAT __real@3f00002000400080
CONST	SEGMENT
__real@3f00002000400080 DQ 03f00002000400080r	; 3.05185e-05
CONST	ENDS
;	COMDAT ?__LINE__Var@?0??create_client@@YGPAUENTITY@@W4ENTITY_TYPES@@HPAD@Z@4JA
_DATA	SEGMENT
?__LINE__Var@?0??create_client@@YGPAUENTITY@@W4ENTITY_TYPES@@HPAD@Z@4JA DD 0101H ; `create_client'::`1'::__LINE__Var
_DATA	ENDS
;	COMDAT ??_C@_0CC@BNNNEGEG@assert_client_server_remote_fn?5@
CONST	SEGMENT
??_C@_0CC@BNNNEGEG@assert_client_server_remote_fn?5@ DB 'assert_client_se'
	DB	'rver_remote_fn ()', 00H			; `string'
CONST	ENDS
;	COMDAT ??_C@_0CB@CFOCLFOK@assert_client_server_local_fn?5?$CI@
CONST	SEGMENT
??_C@_0CB@CFOCLFOK@assert_client_server_local_fn?5?$CI@ DB 'assert_client'
	DB	'_server_local_fn ()', 00H			; `string'
CONST	ENDS
;	COMDAT ?__LINE__Var@?0??create_server@@YGPAUENTITY@@W4ENTITY_TYPES@@HPAD@Z@4JA
_DATA	SEGMENT
?__LINE__Var@?0??create_server@@YGPAUENTITY@@W4ENTITY_TYPES@@HPAD@Z@4JA DD 0eaH ; `create_server'::`1'::__LINE__Var
_DATA	ENDS
;	COMDAT ??_C@_0CM@DHBIKIGD@assert_remote_create_entity_ind@
CONST	SEGMENT
??_C@_0CM@DHBIKIGD@assert_remote_create_entity_ind@ DB 'assert_remote_cre'
	DB	'ate_entity_index ((index))', 00H		; `string'
CONST	ENDS
;	COMDAT ?__LINE__Var@?0??create_remote@@YGPAUENTITY@@W4ENTITY_TYPES@@HPAD@Z@4JA
_DATA	SEGMENT
?__LINE__Var@?0??create_remote@@YGPAUENTITY@@W4ENTITY_TYPES@@HPAD@Z@4JA DD 0d7H ; `create_remote'::`1'::__LINE__Var
_DATA	ENDS
;	COMDAT ??_C@_02HODPCBMO@wp@
CONST	SEGMENT
??_C@_02HODPCBMO@wp@ DB 'wp', 00H			; `string'
CONST	ENDS
;	COMDAT ??_C@_07FBNBNOMI@keysite@
CONST	SEGMENT
??_C@_07FBNBNOMI@keysite@ DB 'keysite', 00H		; `string'
CONST	ENDS
;	COMDAT ??_C@_0CM@FBBPIFGC@entity_sub_type_regen_valid?5?$CIra@
CONST	SEGMENT
??_C@_0CM@FBBPIFGC@entity_sub_type_regen_valid?5?$CIra@ DB 'entity_sub_ty'
	DB	'pe_regen_valid (raw->sub_type)', 00H	; `string'
CONST	ENDS
;	COMDAT ??_C@_0CL@OOPHFNJI@assert_local_create_entity_inde@
CONST	SEGMENT
??_C@_0CL@OOPHFNJI@assert_local_create_entity_inde@ DB 'assert_local_crea'
	DB	'te_entity_index ((index))', 00H		; `string'
CONST	ENDS
;	COMDAT ??_C@_0EM@OOJHBCL@c?3?2users?2nhv90?2projects?2eech?2ap@
CONST	SEGMENT
??_C@_0EM@OOJHBCL@c?3?2users?2nhv90?2projects?2eech?2ap@ DB 'c:\users\nhv'
	DB	'90\projects\eech\aphavoc\source\entity\special\regen\rg_creat'
	DB	'.c', 00H					; `string'
CONST	ENDS
;	COMDAT ?__LINE__Var@?0??create_local@@YGPAUENTITY@@W4ENTITY_TYPES@@HPAD@Z@4JA
_DATA	SEGMENT
?__LINE__Var@?0??create_local@@YGPAUENTITY@@W4ENTITY_TYPES@@HPAD@Z@4JA DD 050H ; `create_local'::`1'::__LINE__Var
_DATA	ENDS
; Function compile flags: /Odtp /ZI
; File c:\users\nhv90\projects\eech\aphavoc\source\entity\special\regen\rg_creat.c
;	COMDAT ?create_client@@YGPAUENTITY@@W4ENTITY_TYPES@@HPAD@Z
_TEXT	SEGMENT
_en$ = -4						; size = 4
_type$ = 8						; size = 4
_index$ = 12						; size = 4
_pargs$ = 16						; size = 4
?create_client@@YGPAUENTITY@@W4ENTITY_TYPES@@HPAD@Z PROC ; create_client, COMDAT

; 257  : {

  00000	55		 push	 ebp
  00001	8b ec		 mov	 ebp, esp
  00003	83 ec 44	 sub	 esp, 68			; 00000044H
  00006	53		 push	 ebx
  00007	56		 push	 esi
  00008	57		 push	 edi

; 258  : 	entity
; 259  : 		*en;
; 260  : 
; 261  : 	if (get_comms_data_flow () == COMMS_DATA_FLOW_TX)

  00009	83 3d 00 00 00
	00 00		 cmp	 DWORD PTR ?system_comms_data_flow@@3W4COMMS_DATA_FLOW_TYPES@@A, 0 ; system_comms_data_flow
  00010	75 37		 jne	 SHORT $LN2@create_cli

; 262  : 	{
; 263  : 		validate_client_server_remote_fn ();

  00012	e8 00 00 00 00	 call	 ?assert_client_server_remote_fn@@YGHXZ ; assert_client_server_remote_fn
  00017	85 c0		 test	 eax, eax
  00019	75 18		 jne	 SHORT $LN4@create_cli
  0001b	a1 00 00 00 00	 mov	 eax, DWORD PTR ?__LINE__Var@?0??create_client@@YGPAUENTITY@@W4ENTITY_TYPES@@HPAD@Z@4JA
  00020	83 c0 06	 add	 eax, 6
  00023	50		 push	 eax
  00024	68 00 00 00 00	 push	 OFFSET ??_C@_0EM@OOJHBCL@c?3?2users?2nhv90?2projects?2eech?2ap@
  00029	68 00 00 00 00	 push	 OFFSET ??_C@_0CC@BNNNEGEG@assert_client_server_remote_fn?5@
  0002e	e8 00 00 00 00	 call	 ?process_assert@@YGXPBD0H@Z ; process_assert
$LN4@create_cli:

; 264  : 
; 265  : 		en = create_remote (type, index, pargs);

  00033	8b 45 10	 mov	 eax, DWORD PTR _pargs$[ebp]
  00036	50		 push	 eax
  00037	8b 4d 0c	 mov	 ecx, DWORD PTR _index$[ebp]
  0003a	51		 push	 ecx
  0003b	8b 55 08	 mov	 edx, DWORD PTR _type$[ebp]
  0003e	52		 push	 edx
  0003f	e8 00 00 00 00	 call	 ?create_remote@@YGPAUENTITY@@W4ENTITY_TYPES@@HPAD@Z ; create_remote
  00044	89 45 fc	 mov	 DWORD PTR _en$[ebp], eax

; 266  : 	}
; 267  : 	else

  00047	eb 35		 jmp	 SHORT $LN3@create_cli
$LN2@create_cli:

; 268  : 	{
; 269  : 		validate_client_server_local_fn ();

  00049	e8 00 00 00 00	 call	 ?assert_client_server_local_fn@@YGHXZ ; assert_client_server_local_fn
  0004e	85 c0		 test	 eax, eax
  00050	75 18		 jne	 SHORT $LN5@create_cli
  00052	a1 00 00 00 00	 mov	 eax, DWORD PTR ?__LINE__Var@?0??create_client@@YGPAUENTITY@@W4ENTITY_TYPES@@HPAD@Z@4JA
  00057	83 c0 0c	 add	 eax, 12			; 0000000cH
  0005a	50		 push	 eax
  0005b	68 00 00 00 00	 push	 OFFSET ??_C@_0EM@OOJHBCL@c?3?2users?2nhv90?2projects?2eech?2ap@
  00060	68 00 00 00 00	 push	 OFFSET ??_C@_0CB@CFOCLFOK@assert_client_server_local_fn?5?$CI@
  00065	e8 00 00 00 00	 call	 ?process_assert@@YGXPBD0H@Z ; process_assert
$LN5@create_cli:

; 270  : 
; 271  : 		en = create_local (type, index, pargs);

  0006a	8b 45 10	 mov	 eax, DWORD PTR _pargs$[ebp]
  0006d	50		 push	 eax
  0006e	8b 4d 0c	 mov	 ecx, DWORD PTR _index$[ebp]
  00071	51		 push	 ecx
  00072	8b 55 08	 mov	 edx, DWORD PTR _type$[ebp]
  00075	52		 push	 edx
  00076	e8 00 00 00 00	 call	 ?create_local@@YGPAUENTITY@@W4ENTITY_TYPES@@HPAD@Z ; create_local
  0007b	89 45 fc	 mov	 DWORD PTR _en$[ebp], eax
$LN3@create_cli:

; 272  : 	}
; 273  : 
; 274  : 	return (en);

  0007e	8b 45 fc	 mov	 eax, DWORD PTR _en$[ebp]

; 275  : }

  00081	5f		 pop	 edi
  00082	5e		 pop	 esi
  00083	5b		 pop	 ebx
  00084	8b e5		 mov	 esp, ebp
  00086	5d		 pop	 ebp
  00087	c2 0c 00	 ret	 12			; 0000000cH
?create_client@@YGPAUENTITY@@W4ENTITY_TYPES@@HPAD@Z ENDP ; create_client
_TEXT	ENDS
; Function compile flags: /Odtp /ZI
; File c:\users\nhv90\projects\eech\aphavoc\source\entity\special\regen\rg_creat.c
;	COMDAT ?create_server@@YGPAUENTITY@@W4ENTITY_TYPES@@HPAD@Z
_TEXT	SEGMENT
_en$ = -4						; size = 4
_type$ = 8						; size = 4
_index$ = 12						; size = 4
_pargs$ = 16						; size = 4
?create_server@@YGPAUENTITY@@W4ENTITY_TYPES@@HPAD@Z PROC ; create_server, COMDAT

; 234  : {

  00000	55		 push	 ebp
  00001	8b ec		 mov	 ebp, esp
  00003	83 ec 44	 sub	 esp, 68			; 00000044H
  00006	53		 push	 ebx
  00007	56		 push	 esi
  00008	57		 push	 edi

; 235  : 	entity
; 236  : 		*en;
; 237  : 
; 238  : 	validate_client_server_local_fn ();

  00009	e8 00 00 00 00	 call	 ?assert_client_server_local_fn@@YGHXZ ; assert_client_server_local_fn
  0000e	85 c0		 test	 eax, eax
  00010	75 18		 jne	 SHORT $LN2@create_ser
  00012	a1 00 00 00 00	 mov	 eax, DWORD PTR ?__LINE__Var@?0??create_server@@YGPAUENTITY@@W4ENTITY_TYPES@@HPAD@Z@4JA
  00017	83 c0 04	 add	 eax, 4
  0001a	50		 push	 eax
  0001b	68 00 00 00 00	 push	 OFFSET ??_C@_0EM@OOJHBCL@c?3?2users?2nhv90?2projects?2eech?2ap@
  00020	68 00 00 00 00	 push	 OFFSET ??_C@_0CB@CFOCLFOK@assert_client_server_local_fn?5?$CI@
  00025	e8 00 00 00 00	 call	 ?process_assert@@YGXPBD0H@Z ; process_assert
$LN2@create_ser:

; 239  : 
; 240  : 	en = create_local (type, index, pargs);

  0002a	8b 45 10	 mov	 eax, DWORD PTR _pargs$[ebp]
  0002d	50		 push	 eax
  0002e	8b 4d 0c	 mov	 ecx, DWORD PTR _index$[ebp]
  00031	51		 push	 ecx
  00032	8b 55 08	 mov	 edx, DWORD PTR _type$[ebp]
  00035	52		 push	 edx
  00036	e8 00 00 00 00	 call	 ?create_local@@YGPAUENTITY@@W4ENTITY_TYPES@@HPAD@Z ; create_local
  0003b	89 45 fc	 mov	 DWORD PTR _en$[ebp], eax

; 241  : 
; 242  : 	if (en)

  0003e	83 7d fc 00	 cmp	 DWORD PTR _en$[ebp], 0
  00042	74 3b		 je	 SHORT $LN3@create_ser

; 243  : 	{
; 244  : 		validate_client_server_remote_fn ();

  00044	e8 00 00 00 00	 call	 ?assert_client_server_remote_fn@@YGHXZ ; assert_client_server_remote_fn
  00049	85 c0		 test	 eax, eax
  0004b	75 18		 jne	 SHORT $LN4@create_ser
  0004d	a1 00 00 00 00	 mov	 eax, DWORD PTR ?__LINE__Var@?0??create_server@@YGPAUENTITY@@W4ENTITY_TYPES@@HPAD@Z@4JA
  00052	83 c0 0a	 add	 eax, 10			; 0000000aH
  00055	50		 push	 eax
  00056	68 00 00 00 00	 push	 OFFSET ??_C@_0EM@OOJHBCL@c?3?2users?2nhv90?2projects?2eech?2ap@
  0005b	68 00 00 00 00	 push	 OFFSET ??_C@_0CC@BNNNEGEG@assert_client_server_remote_fn?5@
  00060	e8 00 00 00 00	 call	 ?process_assert@@YGXPBD0H@Z ; process_assert
$LN4@create_ser:

; 245  : 
; 246  : 		create_remote (type, get_local_entity_index (en), pargs);

  00065	8b 45 10	 mov	 eax, DWORD PTR _pargs$[ebp]
  00068	50		 push	 eax
  00069	8b 4d fc	 mov	 ecx, DWORD PTR _en$[ebp]
  0006c	2b 0d 00 00 00
	00		 sub	 ecx, DWORD PTR ?entities@@3PAUENTITY@@A ; entities
  00072	c1 f9 04	 sar	 ecx, 4
  00075	51		 push	 ecx
  00076	8b 55 08	 mov	 edx, DWORD PTR _type$[ebp]
  00079	52		 push	 edx
  0007a	e8 00 00 00 00	 call	 ?create_remote@@YGPAUENTITY@@W4ENTITY_TYPES@@HPAD@Z ; create_remote
$LN3@create_ser:

; 247  : 	}
; 248  : 
; 249  : 	return (en);

  0007f	8b 45 fc	 mov	 eax, DWORD PTR _en$[ebp]

; 250  : }

  00082	5f		 pop	 edi
  00083	5e		 pop	 esi
  00084	5b		 pop	 ebx
  00085	8b e5		 mov	 esp, ebp
  00087	5d		 pop	 ebp
  00088	c2 0c 00	 ret	 12			; 0000000cH
?create_server@@YGPAUENTITY@@W4ENTITY_TYPES@@HPAD@Z ENDP ; create_server
_TEXT	ENDS
; Function compile flags: /Odtp /ZI
; File c:\users\nhv90\projects\eech\aphavoc\source\entity\special\regen\rg_creat.c
;	COMDAT ?create_remote@@YGPAUENTITY@@W4ENTITY_TYPES@@HPAD@Z
_TEXT	SEGMENT
_type$ = 8						; size = 4
_index$ = 12						; size = 4
_pargs$ = 16						; size = 4
?create_remote@@YGPAUENTITY@@W4ENTITY_TYPES@@HPAD@Z PROC ; create_remote, COMDAT

; 215  : {

  00000	55		 push	 ebp
  00001	8b ec		 mov	 ebp, esp
  00003	83 ec 40	 sub	 esp, 64			; 00000040H
  00006	53		 push	 ebx
  00007	56		 push	 esi
  00008	57		 push	 edi

; 216  : 	validate_remote_create_entity_index (index);

  00009	8b 45 0c	 mov	 eax, DWORD PTR _index$[ebp]
  0000c	50		 push	 eax
  0000d	e8 00 00 00 00	 call	 ?assert_remote_create_entity_index@@YGHH@Z ; assert_remote_create_entity_index
  00012	85 c0		 test	 eax, eax
  00014	75 18		 jne	 SHORT $LN2@create_rem
  00016	a1 00 00 00 00	 mov	 eax, DWORD PTR ?__LINE__Var@?0??create_remote@@YGPAUENTITY@@W4ENTITY_TYPES@@HPAD@Z@4JA
  0001b	83 c0 01	 add	 eax, 1
  0001e	50		 push	 eax
  0001f	68 00 00 00 00	 push	 OFFSET ??_C@_0EM@OOJHBCL@c?3?2users?2nhv90?2projects?2eech?2ap@
  00024	68 00 00 00 00	 push	 OFFSET ??_C@_0CM@DHBIKIGD@assert_remote_create_entity_ind@
  00029	e8 00 00 00 00	 call	 ?process_assert@@YGXPBD0H@Z ; process_assert
$LN2@create_rem:

; 217  : 
; 218  : 	#if DEBUG_MODULE
; 219  : 
; 220  : 	debug_log_entity_args (ENTITY_DEBUG_REMOTE, ENTITY_DEBUG_CREATE, NULL, type, index);
; 221  : 
; 222  : 	#endif
; 223  : 
; 224  : 	transmit_entity_comms_message (ENTITY_COMMS_CREATE, NULL, type, index, pargs);

  0002e	8b 45 10	 mov	 eax, DWORD PTR _pargs$[ebp]
  00031	50		 push	 eax
  00032	8b 4d 0c	 mov	 ecx, DWORD PTR _index$[ebp]
  00035	51		 push	 ecx
  00036	8b 55 08	 mov	 edx, DWORD PTR _type$[ebp]
  00039	52		 push	 edx
  0003a	6a 00		 push	 0
  0003c	6a 08		 push	 8
  0003e	e8 00 00 00 00	 call	 ?transmit_entity_comms_message@@YAXW4ENTITY_COMMS_MESSAGES@@PAUENTITY@@ZZ ; transmit_entity_comms_message
  00043	83 c4 14	 add	 esp, 20			; 00000014H

; 225  : 
; 226  : 	return (NULL);

  00046	33 c0		 xor	 eax, eax

; 227  : }

  00048	5f		 pop	 edi
  00049	5e		 pop	 esi
  0004a	5b		 pop	 ebx
  0004b	8b e5		 mov	 esp, ebp
  0004d	5d		 pop	 ebp
  0004e	c2 0c 00	 ret	 12			; 0000000cH
?create_remote@@YGPAUENTITY@@W4ENTITY_TYPES@@HPAD@Z ENDP ; create_remote
_TEXT	ENDS
; Function compile flags: /Odtp /ZI
; File c:\users\nhv90\projects\eech\aphavoc\source\entity\special\regen\rg_creat.c
;	COMDAT ?create_local@@YGPAUENTITY@@W4ENTITY_TYPES@@HPAD@Z
_TEXT	SEGMENT
_raw$ = -16						; size = 4
_en$ = -12						; size = 4
_wp$ = -8						; size = 4
_keysite$ = -4						; size = 4
_type$ = 8						; size = 4
_index$ = 12						; size = 4
_pargs$ = 16						; size = 4
?create_local@@YGPAUENTITY@@W4ENTITY_TYPES@@HPAD@Z PROC	; create_local, COMDAT

; 80   : {

  00000	55		 push	 ebp
  00001	8b ec		 mov	 ebp, esp
  00003	83 ec 50	 sub	 esp, 80			; 00000050H
  00006	53		 push	 ebx
  00007	56		 push	 esi
  00008	57		 push	 edi

; 81   : 
; 82   : 	entity
; 83   : 		*keysite,
; 84   : 		*wp,
; 85   : 		*en;
; 86   : 
; 87   : 	regen
; 88   : 		*raw;
; 89   : 
; 90   : 	////////////////////////////////////////
; 91   :   	//
; 92   :   	// VALIDATE
; 93   :   	//
; 94   : 	////////////////////////////////////////
; 95   : 
; 96   : 	validate_local_create_entity_index (index);

  00009	8b 45 0c	 mov	 eax, DWORD PTR _index$[ebp]
  0000c	50		 push	 eax
  0000d	e8 00 00 00 00	 call	 ?assert_local_create_entity_index@@YGHH@Z ; assert_local_create_entity_index
  00012	85 c0		 test	 eax, eax
  00014	75 18		 jne	 SHORT $LN2@create_loc
  00016	a1 00 00 00 00	 mov	 eax, DWORD PTR ?__LINE__Var@?0??create_local@@YGPAUENTITY@@W4ENTITY_TYPES@@HPAD@Z@4JA
  0001b	83 c0 10	 add	 eax, 16			; 00000010H
  0001e	50		 push	 eax
  0001f	68 00 00 00 00	 push	 OFFSET ??_C@_0EM@OOJHBCL@c?3?2users?2nhv90?2projects?2eech?2ap@
  00024	68 00 00 00 00	 push	 OFFSET ??_C@_0CL@OOPHFNJI@assert_local_create_entity_inde@
  00029	e8 00 00 00 00	 call	 ?process_assert@@YGXPBD0H@Z ; process_assert
$LN2@create_loc:

; 97   : 
; 98   : 	#if DEBUG_MODULE
; 99   : 
; 100  : 	debug_log_entity_args (ENTITY_DEBUG_LOCAL, ENTITY_DEBUG_CREATE, NULL, type, index);
; 101  : 
; 102  : 	#endif
; 103  : 
; 104  : 	en = get_free_entity (index);

  0002e	8b 45 0c	 mov	 eax, DWORD PTR _index$[ebp]
  00031	50		 push	 eax
  00032	e8 00 00 00 00	 call	 ?get_free_entity@@YGPAUENTITY@@H@Z ; get_free_entity
  00037	89 45 f4	 mov	 DWORD PTR _en$[ebp], eax

; 105  : 
; 106  : 	if (en)

  0003a	83 7d f4 00	 cmp	 DWORD PTR _en$[ebp], 0
  0003e	0f 84 7f 01 00
	00		 je	 $LN3@create_loc

; 107  : 	{
; 108  : 		////////////////////////////////////////
; 109  :    	//
; 110  :    	// MALLOC ENTITY DATA
; 111  :    	//
; 112  : 		////////////////////////////////////////
; 113  : 
; 114  : 		set_local_entity_type (en, type);

  00044	8b 45 f4	 mov	 eax, DWORD PTR _en$[ebp]
  00047	8b 4d 08	 mov	 ecx, DWORD PTR _type$[ebp]
  0004a	89 08		 mov	 DWORD PTR [eax], ecx

; 115  : 
; 116  : 		raw = (regen *) malloc_fast_mem (sizeof (regen));

  0004c	6a 40		 push	 64			; 00000040H
  0004e	e8 00 00 00 00	 call	 ?malloc_fast_memory@@YGPAXI@Z ; malloc_fast_memory
  00053	89 45 f0	 mov	 DWORD PTR _raw$[ebp], eax

; 117  : 
; 118  : 		set_local_entity_data (en, raw);

  00056	8b 45 f4	 mov	 eax, DWORD PTR _en$[ebp]
  00059	8b 4d f0	 mov	 ecx, DWORD PTR _raw$[ebp]
  0005c	89 48 04	 mov	 DWORD PTR [eax+4], ecx

; 119  : 
; 120  : 		////////////////////////////////////////
; 121  :    	//
; 122  :    	// INITIALISE ALL ENTITY DATA TO 'WORKING' DEFAULT VALUES
; 123  : 		//
; 124  : 		// DO NOT USE ACCESS FUNCTIONS
; 125  : 		//
; 126  : 		// DO NOT USE RANDOM VALUES
; 127  : 		//
; 128  : 		////////////////////////////////////////
; 129  : 
; 130  : 		memset (raw, 0, sizeof (regen));

  0005f	6a 40		 push	 64			; 00000040H
  00061	6a 00		 push	 0
  00063	8b 45 f0	 mov	 eax, DWORD PTR _raw$[ebp]
  00066	50		 push	 eax
  00067	e8 00 00 00 00	 call	 _memset
  0006c	83 c4 0c	 add	 esp, 12			; 0000000cH

; 131  : 
; 132  : 		raw->position.x = MID_MAP_X;

  0006f	8b 45 f0	 mov	 eax, DWORD PTR _raw$[ebp]
  00072	f3 0f 10 05 30
	00 00 00	 movss	 xmm0, DWORD PTR ?world_map@@3UWORLD_MAP_DATA@@A+48
  0007a	f3 0f 11 40 04	 movss	 DWORD PTR [eax+4], xmm0

; 133  : 		raw->position.y = MID_MAP_Y;

  0007f	8b 45 f0	 mov	 eax, DWORD PTR _raw$[ebp]
  00082	f3 0f 10 05 34
	00 00 00	 movss	 xmm0, DWORD PTR ?world_map@@3UWORLD_MAP_DATA@@A+52
  0008a	f3 0f 11 40 08	 movss	 DWORD PTR [eax+8], xmm0

; 134  : 		raw->position.z = MID_MAP_Z;

  0008f	8b 45 f0	 mov	 eax, DWORD PTR _raw$[ebp]
  00092	f3 0f 10 05 38
	00 00 00	 movss	 xmm0, DWORD PTR ?world_map@@3UWORLD_MAP_DATA@@A+56
  0009a	f3 0f 11 40 0c	 movss	 DWORD PTR [eax+12], xmm0

; 135  : 
; 136  : 		raw->alive = TRUE;

  0009f	8b 45 f0	 mov	 eax, DWORD PTR _raw$[ebp]
  000a2	8b 48 3c	 mov	 ecx, DWORD PTR [eax+60]
  000a5	83 c9 01	 or	 ecx, 1
  000a8	8b 55 f0	 mov	 edx, DWORD PTR _raw$[ebp]
  000ab	89 4a 3c	 mov	 DWORD PTR [edx+60], ecx

; 137  : 
; 138  : 		raw->side = ENTITY_SIDE_NEUTRAL;

  000ae	8b 45 f0	 mov	 eax, DWORD PTR _raw$[ebp]
  000b1	8b 48 3c	 mov	 ecx, DWORD PTR [eax+60]
  000b4	81 e1 ff e7 ff
	ff		 and	 ecx, -6145		; ffffe7ffH
  000ba	8b 55 f0	 mov	 edx, DWORD PTR _raw$[ebp]
  000bd	89 4a 3c	 mov	 DWORD PTR [edx+60], ecx

; 139  : 
; 140  : 		////////////////////////////////////////
; 141  : 		//
; 142  : 		// OVERWRITE DEFAULT VALUES WITH GIVEN ATTRIBUTES
; 143  : 		//
; 144  : 		////////////////////////////////////////
; 145  : 
; 146  : 		set_local_entity_attributes (en, pargs);

  000c0	8b 45 10	 mov	 eax, DWORD PTR _pargs$[ebp]
  000c3	50		 push	 eax
  000c4	8b 4d f4	 mov	 ecx, DWORD PTR _en$[ebp]
  000c7	51		 push	 ecx
  000c8	e8 00 00 00 00	 call	 ?set_local_entity_attributes@@YGXPAUENTITY@@PAD@Z ; set_local_entity_attributes

; 147  : 
; 148  : 		////////////////////////////////////////
; 149  : 		//
; 150  : 		// CHECK MANDATORY ATTRIBUTES HAVE BEEN GIVEN
; 151  : 		//
; 152  : 		////////////////////////////////////////
; 153  : 
; 154  : 		ASSERT (entity_sub_type_regen_valid (raw->sub_type));

  000cd	8b 45 f0	 mov	 eax, DWORD PTR _raw$[ebp]
  000d0	83 38 00	 cmp	 DWORD PTR [eax], 0
  000d3	7c 08		 jl	 SHORT $LN5@create_loc
  000d5	8b 45 f0	 mov	 eax, DWORD PTR _raw$[ebp]
  000d8	83 38 06	 cmp	 DWORD PTR [eax], 6
  000db	7c 18		 jl	 SHORT $LN4@create_loc
$LN5@create_loc:
  000dd	a1 00 00 00 00	 mov	 eax, DWORD PTR ?__LINE__Var@?0??create_local@@YGPAUENTITY@@W4ENTITY_TYPES@@HPAD@Z@4JA
  000e2	83 c0 4a	 add	 eax, 74			; 0000004aH
  000e5	50		 push	 eax
  000e6	68 00 00 00 00	 push	 OFFSET ??_C@_0EM@OOJHBCL@c?3?2users?2nhv90?2projects?2eech?2ap@
  000eb	68 00 00 00 00	 push	 OFFSET ??_C@_0CM@FBBPIFGC@entity_sub_type_regen_valid?5?$CIra@
  000f0	e8 00 00 00 00	 call	 ?process_assert@@YGXPBD0H@Z ; process_assert
$LN4@create_loc:

; 155  : 
; 156  : 		////////////////////////////////////////
; 157  : 		//
; 158  : 		// RESOLVE DEFAULT VALUES
; 159  : 		//
; 160  : 		////////////////////////////////////////
; 161  : 
; 162  : 		raw->sleep = frand1 () * 5.0 * ONE_MINUTE; 

  000f5	69 05 00 00 00
	00 6d 4e c6 41	 imul	 eax, DWORD PTR ?random_number_seed@@3HA, 1103515245 ; random_number_seed
  000ff	05 39 30 00 00	 add	 eax, 12345		; 00003039H
  00104	a3 00 00 00 00	 mov	 DWORD PTR ?random_number_seed@@3HA, eax ; random_number_seed
  00109	8b 0d 00 00 00
	00		 mov	 ecx, DWORD PTR ?random_number_seed@@3HA ; random_number_seed
  0010f	c1 f9 10	 sar	 ecx, 16			; 00000010H
  00112	81 e1 ff 7f 00
	00		 and	 ecx, 32767		; 00007fffH
  00118	f2 0f 2a c1	 cvtsi2sd xmm0, ecx
  0011c	f2 0f 59 05 00
	00 00 00	 mulsd	 xmm0, QWORD PTR __real@3f00002000400080
  00124	f2 0f 59 05 00
	00 00 00	 mulsd	 xmm0, QWORD PTR __real@4014000000000000
  0012c	f2 0f 59 05 00
	00 00 00	 mulsd	 xmm0, QWORD PTR __real@404e000000000000
  00134	f2 0f 5a c0	 cvtsd2ss xmm0, xmm0
  00138	8b 55 f0	 mov	 edx, DWORD PTR _raw$[ebp]
  0013b	f3 0f 11 42 38	 movss	 DWORD PTR [edx+56], xmm0

; 163  : 
; 164  : 		////////////////////////////////////////
; 165  : 		//
; 166  : 		// BUILD COMPONENTS
; 167  : 		//
; 168  : 		////////////////////////////////////////
; 169  : 
; 170  : 		////////////////////////////////////////
; 171  : 		//
; 172  : 		// LINK INTO SYSTEM
; 173  : 		//
; 174  : 		////////////////////////////////////////
; 175  : 
; 176  : 		keysite = raw->regen_link.parent;

  00140	8b 45 f0	 mov	 eax, DWORD PTR _raw$[ebp]
  00143	8b 48 20	 mov	 ecx, DWORD PTR [eax+32]
  00146	89 4d fc	 mov	 DWORD PTR _keysite$[ebp], ecx

; 177  : 
; 178  : 		ASSERT (keysite);

  00149	83 7d fc 00	 cmp	 DWORD PTR _keysite$[ebp], 0
  0014d	75 18		 jne	 SHORT $LN6@create_loc
  0014f	a1 00 00 00 00	 mov	 eax, DWORD PTR ?__LINE__Var@?0??create_local@@YGPAUENTITY@@W4ENTITY_TYPES@@HPAD@Z@4JA
  00154	83 c0 62	 add	 eax, 98			; 00000062H
  00157	50		 push	 eax
  00158	68 00 00 00 00	 push	 OFFSET ??_C@_0EM@OOJHBCL@c?3?2users?2nhv90?2projects?2eech?2ap@
  0015d	68 00 00 00 00	 push	 OFFSET ??_C@_07FBNBNOMI@keysite@
  00162	e8 00 00 00 00	 call	 ?process_assert@@YGXPBD0H@Z ; process_assert
$LN6@create_loc:

; 179  : 
; 180  : 		insert_local_entity_into_parents_child_list (en, LIST_TYPE_REGEN, keysite, NULL);

  00167	6a 00		 push	 0
  00169	8b 45 fc	 mov	 eax, DWORD PTR _keysite$[ebp]
  0016c	50		 push	 eax
  0016d	6a 1f		 push	 31			; 0000001fH
  0016f	8b 4d f4	 mov	 ecx, DWORD PTR _en$[ebp]
  00172	51		 push	 ecx
  00173	e8 00 00 00 00	 call	 ?insert_local_entity_into_parents_child_list@@YGXPAUENTITY@@W4LIST_TYPES@@00@Z ; insert_local_entity_into_parents_child_list

; 181  : 
; 182  : 		wp = raw->current_waypoint_link.parent;

  00178	8b 45 f0	 mov	 eax, DWORD PTR _raw$[ebp]
  0017b	8b 48 14	 mov	 ecx, DWORD PTR [eax+20]
  0017e	89 4d f8	 mov	 DWORD PTR _wp$[ebp], ecx

; 183  : 
; 184  : 		ASSERT (wp);

  00181	83 7d f8 00	 cmp	 DWORD PTR _wp$[ebp], 0
  00185	75 18		 jne	 SHORT $LN7@create_loc
  00187	a1 00 00 00 00	 mov	 eax, DWORD PTR ?__LINE__Var@?0??create_local@@YGPAUENTITY@@W4ENTITY_TYPES@@HPAD@Z@4JA
  0018c	83 c0 68	 add	 eax, 104		; 00000068H
  0018f	50		 push	 eax
  00190	68 00 00 00 00	 push	 OFFSET ??_C@_0EM@OOJHBCL@c?3?2users?2nhv90?2projects?2eech?2ap@
  00195	68 00 00 00 00	 push	 OFFSET ??_C@_02HODPCBMO@wp@
  0019a	e8 00 00 00 00	 call	 ?process_assert@@YGXPBD0H@Z ; process_assert
$LN7@create_loc:

; 185  : 
; 186  : 		insert_local_entity_into_parents_child_list (en, LIST_TYPE_CURRENT_WAYPOINT, wp, NULL);

  0019f	6a 00		 push	 0
  001a1	8b 45 f8	 mov	 eax, DWORD PTR _wp$[ebp]
  001a4	50		 push	 eax
  001a5	6a 09		 push	 9
  001a7	8b 4d f4	 mov	 ecx, DWORD PTR _en$[ebp]
  001aa	51		 push	 ecx
  001ab	e8 00 00 00 00	 call	 ?insert_local_entity_into_parents_child_list@@YGXPAUENTITY@@W4LIST_TYPES@@00@Z ; insert_local_entity_into_parents_child_list

; 187  : 
; 188  : 		insert_local_entity_into_parents_child_list (en, LIST_TYPE_UPDATE, get_update_entity (), NULL);

  001b0	6a 00		 push	 0
  001b2	a1 00 00 00 00	 mov	 eax, DWORD PTR ?update_entity@@3PAUENTITY@@A ; update_entity
  001b7	50		 push	 eax
  001b8	6a 29		 push	 41			; 00000029H
  001ba	8b 4d f4	 mov	 ecx, DWORD PTR _en$[ebp]
  001bd	51		 push	 ecx
  001be	e8 00 00 00 00	 call	 ?insert_local_entity_into_parents_child_list@@YGXPAUENTITY@@W4LIST_TYPES@@00@Z ; insert_local_entity_into_parents_child_list
$LN3@create_loc:

; 189  : 
; 190  : 		#if DEBUG_MODULE
; 191  : 		{
; 192  : 			entity
; 193  : 				*task,
; 194  : 				*landing,
; 195  : 				*keysite;
; 196  : 
; 197  : 			task = get_local_entity_parent (wp, LIST_TYPE_WAYPOINT);
; 198  : 			landing = get_local_entity_parent (task, LIST_TYPE_ASSIGNED_TASK);
; 199  : 			keysite = get_local_entity_parent (landing, LIST_TYPE_LANDING_SITE);
; 200  : 
; 201  : 			debug_log ("RG_CREAT: %s creating regen %s, at keysite %s, time %f", entity_side_names [raw->side], entity_sub_type_regen_names [raw->sub_type],
; 202  : 							get_local_entity_string (keysite, STRING_TYPE_KEYSITE_NAME), regen_frequency [raw->side]);
; 203  : 		}
; 204  : 		#endif
; 205  : 	}
; 206  : 
; 207  : 	return (en);

  001c3	8b 45 f4	 mov	 eax, DWORD PTR _en$[ebp]

; 208  : }

  001c6	5f		 pop	 edi
  001c7	5e		 pop	 esi
  001c8	5b		 pop	 ebx
  001c9	8b e5		 mov	 esp, ebp
  001cb	5d		 pop	 ebp
  001cc	c2 0c 00	 ret	 12			; 0000000cH
?create_local@@YGPAUENTITY@@W4ENTITY_TYPES@@HPAD@Z ENDP	; create_local
_TEXT	ENDS
; Function compile flags: /Odtp /ZI
; File c:\users\nhv90\projects\eech\aphavoc\source\entity\special\regen\rg_creat.c
;	COMDAT ?overload_regen_create_functions@@YGXXZ
_TEXT	SEGMENT
?overload_regen_create_functions@@YGXXZ PROC		; overload_regen_create_functions, COMDAT

; 282  : {

  00000	55		 push	 ebp
  00001	8b ec		 mov	 ebp, esp
  00003	83 ec 40	 sub	 esp, 64			; 00000040H
  00006	53		 push	 ebx
  00007	56		 push	 esi
  00008	57		 push	 edi

; 283  : 	fn_create_local_entity[ENTITY_TYPE_REGEN]		  								= create_local;

  00009	b8 04 00 00 00	 mov	 eax, 4
  0000e	6b c8 16	 imul	 ecx, eax, 22
  00011	c7 81 00 00 00
	00 00 00 00 00	 mov	 DWORD PTR ?fn_create_local_entity@@3PAP6GPAUENTITY@@W4ENTITY_TYPES@@HPAD@ZA[ecx], OFFSET ?create_local@@YGPAUENTITY@@W4ENTITY_TYPES@@HPAD@Z ; create_local

; 284  : 
; 285  : 	fn_create_client_server_entity[ENTITY_TYPE_REGEN][COMMS_MODEL_SERVER]	= create_server;

  0001b	b8 08 00 00 00	 mov	 eax, 8
  00020	6b c8 16	 imul	 ecx, eax, 22
  00023	ba 04 00 00 00	 mov	 edx, 4
  00028	6b c2 00	 imul	 eax, edx, 0
  0002b	c7 84 01 00 00
	00 00 00 00 00
	00		 mov	 DWORD PTR ?fn_create_client_server_entity@@3PAY01P6GPAUENTITY@@W4ENTITY_TYPES@@HPAD@ZA[ecx+eax], OFFSET ?create_server@@YGPAUENTITY@@W4ENTITY_TYPES@@HPAD@Z ; create_server

; 286  : 
; 287  : 	fn_create_client_server_entity[ENTITY_TYPE_REGEN][COMMS_MODEL_CLIENT]	= create_client;

  00036	b8 08 00 00 00	 mov	 eax, 8
  0003b	6b c8 16	 imul	 ecx, eax, 22
  0003e	ba 04 00 00 00	 mov	 edx, 4
  00043	c1 e2 00	 shl	 edx, 0
  00046	c7 84 11 00 00
	00 00 00 00 00
	00		 mov	 DWORD PTR ?fn_create_client_server_entity@@3PAY01P6GPAUENTITY@@W4ENTITY_TYPES@@HPAD@ZA[ecx+edx], OFFSET ?create_client@@YGPAUENTITY@@W4ENTITY_TYPES@@HPAD@Z ; create_client

; 288  : }

  00051	5f		 pop	 edi
  00052	5e		 pop	 esi
  00053	5b		 pop	 ebx
  00054	8b e5		 mov	 esp, ebp
  00056	5d		 pop	 ebp
  00057	c3		 ret	 0
?overload_regen_create_functions@@YGXXZ ENDP		; overload_regen_create_functions
_TEXT	ENDS
END
