; Listing generated by Microsoft (R) Optimizing Compiler Version 19.16.27045.0 

	TITLE	C:\Users\nhv90\Projects\eech\aphavoc\source\entity\mobile\vehicle\routed\rv_creat.c
	.686P
	.XMM
	include listing.inc
	.model	flat

INCLUDELIB MSVCRTD
INCLUDELIB OLDNAMES

PUBLIC	_atan2f
PUBLIC	?atan2@@YGMMM@Z					; atan2
PUBLIC	?overload_routed_vehicle_create_functions@@YGXXZ ; overload_routed_vehicle_create_functions
PUBLIC	?create_client_server_entity_routed_vehicle@@YGPAUENTITY@@HHPAU1@PAUVEC3D@@@Z ; create_client_server_entity_routed_vehicle
PUBLIC	?create_local_entity_routed_vehicle@@YGPAUENTITY@@HHPAU1@PAUVEC3D@@@Z ; create_local_entity_routed_vehicle
PUBLIC	?__LINE__Var@?0??create_local@@YGPAUENTITY@@W4ENTITY_TYPES@@HPAD@Z@4JA ; `create_local'::`1'::__LINE__Var
PUBLIC	??_C@_0FE@NPPJNBI@c?3?2users?2nhv90?2projects?2eech?2ap@ ; `string'
PUBLIC	??_C@_0CL@OOPHFNJI@assert_local_create_entity_inde@ ; `string'
PUBLIC	??_C@_0BL@DJJKEKPA@raw?9?$DOvh?4member_link?4parent@ ; `string'
PUBLIC	??_C@_0EI@DJAOJDPN@get_local_entity_type?5?$CIraw?9?$DOvh?4@ ; `string'
PUBLIC	??_C@_0CI@PIKALLKJ@raw?9?$DOvh?4mob?4side?5?$CB?$DN?5ENTITY_SIDE@ ; `string'
PUBLIC	??_C@_0DF@HPCMHJPO@entity_sub_type_vehicle_valid?5?$CI@ ; `string'
PUBLIC	??_C@_0DG@BJPIFHJB@weapon_config_type_valid?5?$CIraw?9?$DO@ ; `string'
PUBLIC	?__LINE__Var@?0??create_remote@@YGPAUENTITY@@W4ENTITY_TYPES@@HPAD@Z@4JA ; `create_remote'::`1'::__LINE__Var
PUBLIC	??_C@_0CM@DHBIKIGD@assert_remote_create_entity_ind@ ; `string'
PUBLIC	?__LINE__Var@?0??create_server@@YGPAUENTITY@@W4ENTITY_TYPES@@HPAD@Z@4JA ; `create_server'::`1'::__LINE__Var
PUBLIC	??_C@_0CB@CFOCLFOK@assert_client_server_local_fn?5?$CI@ ; `string'
PUBLIC	??_C@_0CC@BNNNEGEG@assert_client_server_remote_fn?5@ ; `string'
PUBLIC	?__LINE__Var@?0??create_client@@YGPAUENTITY@@W4ENTITY_TYPES@@HPAD@Z@4JA ; `create_client'::`1'::__LINE__Var
PUBLIC	?__LINE__Var@?0??create_client_server_entity_routed_vehicle@@YGPAUENTITY@@HHPAU2@PAUVEC3D@@@Z@4JA ; `create_client_server_entity_routed_vehicle'::`1'::__LINE__Var
PUBLIC	??_C@_0CI@NLFHFOLH@get_comms_model?$CI?$CJ?5?$DN?$DN?5COMMS_MODE@ ; `string'
PUBLIC	?__LINE__Var@?0??create_local_entity_routed_vehicle@@YGPAUENTITY@@HHPAU2@PAUVEC3D@@@Z@4JA ; `create_local_entity_routed_vehicle'::`1'::__LINE__Var
PUBLIC	__real@3f00002000400080
PUBLIC	__real@3f800000
PUBLIC	__real@40000000
PUBLIC	__real@bf800000
EXTRN	_memset:PROC
EXTRN	_atan2:PROC
EXTRN	?process_assert@@YGXPBD0H@Z:PROC		; process_assert
EXTRN	?malloc_fast_memory@@YGPAXI@Z:PROC		; malloc_fast_memory
EXTRN	?get_identity_matrix3x3@@YGXQAY02M@Z:PROC	; get_identity_matrix3x3
EXTRN	?get_3d_transformation_matrix_from_face_normal_and_heading@@YGXQAY02MPBUVEC3D@@M@Z:PROC ; get_3d_transformation_matrix_from_face_normal_and_heading
EXTRN	?construct_3d_object@@YGPAUOBJECT_3D_INSTANCE@@H@Z:PROC ; construct_3d_object
EXTRN	?get_3d_terrain_point_data@@YGMMMPAUTERRAIN_3D_POINT_DATA@@@Z:PROC ; get_3d_terrain_point_data
EXTRN	?get_3d_terrain_point_data_normal@@YGPAUVEC3D@@PAUTERRAIN_3D_POINT_DATA@@@Z:PROC ; get_3d_terrain_point_data_normal
EXTRN	?set_local_entity_attributes@@YGXPAUENTITY@@PAD@Z:PROC ; set_local_entity_attributes
EXTRN	?insert_local_entity_into_parents_child_list@@YGXPAUENTITY@@W4LIST_TYPES@@00@Z:PROC ; insert_local_entity_into_parents_child_list
EXTRN	?create_local_entity@@YAPAUENTITY@@W4ENTITY_TYPES@@HZZ:PROC ; create_local_entity
EXTRN	?create_client_server_entity@@YAPAUENTITY@@W4ENTITY_TYPES@@HZZ:PROC ; create_client_server_entity
EXTRN	?transmit_entity_comms_message@@YAXW4ENTITY_COMMS_MESSAGES@@PAUENTITY@@ZZ:PROC ; transmit_entity_comms_message
EXTRN	?assert_client_server_local_fn@@YGHXZ:PROC	; assert_client_server_local_fn
EXTRN	?assert_client_server_remote_fn@@YGHXZ:PROC	; assert_client_server_remote_fn
EXTRN	?assert_local_create_entity_index@@YGHH@Z:PROC	; assert_local_create_entity_index
EXTRN	?assert_remote_create_entity_index@@YGHH@Z:PROC	; assert_remote_create_entity_index
EXTRN	?get_free_entity@@YGPAUENTITY@@H@Z:PROC		; get_free_entity
EXTRN	?load_local_entity_weapon_config@@YGXPAUENTITY@@@Z:PROC ; load_local_entity_weapon_config
EXTRN	?set_vehicle_headlight_state@@YGXPAUENTITY@@H@Z:PROC ; set_vehicle_headlight_state
EXTRN	?set_initial_rotation_angle_of_routed_vehicle_wheels@@YGHPAUOBJECT_3D_INSTANCE@@@Z:PROC ; set_initial_rotation_angle_of_routed_vehicle_wheels
EXTRN	?set_routed_vehicle_id_number@@YGXPAUENTITY@@@Z:PROC ; set_routed_vehicle_id_number
EXTRN	?attach_routed_vehicle_meta_smoke_lists@@YGXPAUENTITY@@@Z:PROC ; attach_routed_vehicle_meta_smoke_lists
EXTRN	?get_local_entity_view_list_pred@@YGPAUENTITY@@PAU1@@Z:PROC ; get_local_entity_view_list_pred
EXTRN	?create_client_server_sound_effect_entity@@YGPAUENTITY@@PAU1@W4ENTITY_SIDES@@HW4SOUND_CHANNEL_TYPES@@W4SOUND_LOCALITY_TYPES@@PAUVEC3D@@MMHHHPAH@Z:PROC ; create_client_server_sound_effect_entity
EXTRN	?get_local_force_entity@@YGPAUENTITY@@W4ENTITY_SIDES@@@Z:PROC ; get_local_force_entity
EXTRN	?add_to_force_info@@YGXPAUENTITY@@0@Z:PROC	; add_to_force_info
EXTRN	?get_local_sector_entity@@YGPAUENTITY@@PAUVEC3D@@@Z:PROC ; get_local_sector_entity
EXTRN	?write_tacview_new_unit@@YGXPAUENTITY@@@Z:PROC	; write_tacview_new_unit
EXTRN	?random_number_seed@@3HA:DWORD			; random_number_seed
EXTRN	?null_entity_pointer_message@@3PBDB:DWORD	; null_entity_pointer_message
EXTRN	?system_comms_model@@3W4COMMS_MODEL_TYPES@@A:DWORD ; system_comms_model
EXTRN	?system_comms_data_flow@@3W4COMMS_DATA_FLOW_TYPES@@A:DWORD ; system_comms_data_flow
EXTRN	?world_map@@3UWORLD_MAP_DATA@@A:BYTE		; world_map
EXTRN	?fn_create_local_entity@@3PAP6GPAUENTITY@@W4ENTITY_TYPES@@HPAD@ZA:BYTE ; fn_create_local_entity
EXTRN	?fn_create_client_server_entity@@3PAY01P6GPAUENTITY@@W4ENTITY_TYPES@@HPAD@ZA:BYTE ; fn_create_client_server_entity
EXTRN	?overload_invalid_int_type_message@@3PBDB:DWORD	; overload_invalid_int_type_message
EXTRN	?fn_get_local_entity_int_value@@3PAY0BBH@P6GHPAUENTITY@@W4INT_TYPES@@@ZA:BYTE ; fn_get_local_entity_int_value
EXTRN	?entities@@3PAUENTITY@@A:DWORD			; entities
EXTRN	?vehicle_database@@3PAUVEHICLE_DATA@@A:BYTE	; vehicle_database
EXTRN	?camera_entity@@3PAUENTITY@@A:DWORD		; camera_entity
EXTRN	?group_database@@3PAUGROUP_DATA@@A:BYTE		; group_database
EXTRN	?update_entity@@3PAUENTITY@@A:DWORD		; update_entity
EXTRN	?tacview_log_file@@3PAU_iobuf@@A:DWORD		; tacview_log_file
EXTRN	__fltused:DWORD
;	COMDAT __real@bf800000
CONST	SEGMENT
__real@bf800000 DD 0bf800000r			; -1
CONST	ENDS
;	COMDAT __real@40000000
CONST	SEGMENT
__real@40000000 DD 040000000r			; 2
CONST	ENDS
;	COMDAT __real@3f800000
CONST	SEGMENT
__real@3f800000 DD 03f800000r			; 1
CONST	ENDS
;	COMDAT __real@3f00002000400080
CONST	SEGMENT
__real@3f00002000400080 DQ 03f00002000400080r	; 3.05185e-05
CONST	ENDS
;	COMDAT ?__LINE__Var@?0??create_local_entity_routed_vehicle@@YGPAUENTITY@@HHPAU2@PAUVEC3D@@@Z@4JA
_DATA	SEGMENT
?__LINE__Var@?0??create_local_entity_routed_vehicle@@YGPAUENTITY@@HHPAU2@PAUVEC3D@@@Z@4JA DD 020cH ; `create_local_entity_routed_vehicle'::`1'::__LINE__Var
_DATA	ENDS
;	COMDAT ??_C@_0CI@NLFHFOLH@get_comms_model?$CI?$CJ?5?$DN?$DN?5COMMS_MODE@
CONST	SEGMENT
??_C@_0CI@NLFHFOLH@get_comms_model?$CI?$CJ?5?$DN?$DN?5COMMS_MODE@ DB 'get'
	DB	'_comms_model() == COMMS_MODEL_SERVER', 00H	; `string'
CONST	ENDS
;	COMDAT ?__LINE__Var@?0??create_client_server_entity_routed_vehicle@@YGPAUENTITY@@HHPAU2@PAUVEC3D@@@Z@4JA
_DATA	SEGMENT
?__LINE__Var@?0??create_client_server_entity_routed_vehicle@@YGPAUENTITY@@HHPAU2@PAUVEC3D@@@Z@4JA DD 01a9H ; `create_client_server_entity_routed_vehicle'::`1'::__LINE__Var
_DATA	ENDS
;	COMDAT ?__LINE__Var@?0??create_client@@YGPAUENTITY@@W4ENTITY_TYPES@@HPAD@Z@4JA
_DATA	SEGMENT
?__LINE__Var@?0??create_client@@YGPAUENTITY@@W4ENTITY_TYPES@@HPAD@Z@4JA DD 0183H ; `create_client'::`1'::__LINE__Var
_DATA	ENDS
;	COMDAT ??_C@_0CC@BNNNEGEG@assert_client_server_remote_fn?5@
CONST	SEGMENT
??_C@_0CC@BNNNEGEG@assert_client_server_remote_fn?5@ DB 'assert_client_se'
	DB	'rver_remote_fn ()', 00H			; `string'
CONST	ENDS
;	COMDAT ??_C@_0CB@CFOCLFOK@assert_client_server_local_fn?5?$CI@
CONST	SEGMENT
??_C@_0CB@CFOCLFOK@assert_client_server_local_fn?5?$CI@ DB 'assert_client'
	DB	'_server_local_fn ()', 00H			; `string'
CONST	ENDS
;	COMDAT ?__LINE__Var@?0??create_server@@YGPAUENTITY@@W4ENTITY_TYPES@@HPAD@Z@4JA
_DATA	SEGMENT
?__LINE__Var@?0??create_server@@YGPAUENTITY@@W4ENTITY_TYPES@@HPAD@Z@4JA DD 016cH ; `create_server'::`1'::__LINE__Var
_DATA	ENDS
;	COMDAT ??_C@_0CM@DHBIKIGD@assert_remote_create_entity_ind@
CONST	SEGMENT
??_C@_0CM@DHBIKIGD@assert_remote_create_entity_ind@ DB 'assert_remote_cre'
	DB	'ate_entity_index ((index))', 00H		; `string'
CONST	ENDS
;	COMDAT ?__LINE__Var@?0??create_remote@@YGPAUENTITY@@W4ENTITY_TYPES@@HPAD@Z@4JA
_DATA	SEGMENT
?__LINE__Var@?0??create_remote@@YGPAUENTITY@@W4ENTITY_TYPES@@HPAD@Z@4JA DD 0159H ; `create_remote'::`1'::__LINE__Var
_DATA	ENDS
;	COMDAT ??_C@_0DG@BJPIFHJB@weapon_config_type_valid?5?$CIraw?9?$DO@
CONST	SEGMENT
??_C@_0DG@BJPIFHJB@weapon_config_type_valid?5?$CIraw?9?$DO@ DB 'weapon_co'
	DB	'nfig_type_valid (raw->vh.weapon_config_type)', 00H ; `string'
CONST	ENDS
;	COMDAT ??_C@_0DF@HPCMHJPO@entity_sub_type_vehicle_valid?5?$CI@
CONST	SEGMENT
??_C@_0DF@HPCMHJPO@entity_sub_type_vehicle_valid?5?$CI@ DB 'entity_sub_ty'
	DB	'pe_vehicle_valid (raw->vh.mob.sub_type)', 00H ; `string'
CONST	ENDS
;	COMDAT ??_C@_0CI@PIKALLKJ@raw?9?$DOvh?4mob?4side?5?$CB?$DN?5ENTITY_SIDE@
CONST	SEGMENT
??_C@_0CI@PIKALLKJ@raw?9?$DOvh?4mob?4side?5?$CB?$DN?5ENTITY_SIDE@ DB 'raw'
	DB	'->vh.mob.side != ENTITY_SIDE_NEUTRAL', 00H	; `string'
CONST	ENDS
;	COMDAT ??_C@_0EI@DJAOJDPN@get_local_entity_type?5?$CIraw?9?$DOvh?4@
CONST	SEGMENT
??_C@_0EI@DJAOJDPN@get_local_entity_type?5?$CIraw?9?$DOvh?4@ DB 'get_loca'
	DB	'l_entity_type (raw->vh.member_link.parent) == ENTITY_TYPE_GRO'
	DB	'UP', 00H					; `string'
CONST	ENDS
;	COMDAT ??_C@_0BL@DJJKEKPA@raw?9?$DOvh?4member_link?4parent@
CONST	SEGMENT
??_C@_0BL@DJJKEKPA@raw?9?$DOvh?4member_link?4parent@ DB 'raw->vh.member_l'
	DB	'ink.parent', 00H				; `string'
CONST	ENDS
;	COMDAT ??_C@_0CL@OOPHFNJI@assert_local_create_entity_inde@
CONST	SEGMENT
??_C@_0CL@OOPHFNJI@assert_local_create_entity_inde@ DB 'assert_local_crea'
	DB	'te_entity_index ((index))', 00H		; `string'
CONST	ENDS
;	COMDAT ??_C@_0FE@NPPJNBI@c?3?2users?2nhv90?2projects?2eech?2ap@
CONST	SEGMENT
??_C@_0FE@NPPJNBI@c?3?2users?2nhv90?2projects?2eech?2ap@ DB 'c:\users\nhv'
	DB	'90\projects\eech\aphavoc\source\entity\mobile\vehicle\routed\'
	DB	'rv_creat.c', 00H				; `string'
CONST	ENDS
;	COMDAT ?__LINE__Var@?0??create_local@@YGPAUENTITY@@W4ENTITY_TYPES@@HPAD@Z@4JA
_DATA	SEGMENT
?__LINE__Var@?0??create_local@@YGPAUENTITY@@W4ENTITY_TYPES@@HPAD@Z@4JA DD 052H ; `create_local'::`1'::__LINE__Var
_DATA	ENDS
; Function compile flags: /Odtp /ZI
; File c:\users\nhv90\projects\eech\aphavoc\source\entity\mobile\vehicle\routed\rv_creat.c
;	COMDAT ?create_client@@YGPAUENTITY@@W4ENTITY_TYPES@@HPAD@Z
_TEXT	SEGMENT
_en$ = -4						; size = 4
_type$ = 8						; size = 4
_index$ = 12						; size = 4
_pargs$ = 16						; size = 4
?create_client@@YGPAUENTITY@@W4ENTITY_TYPES@@HPAD@Z PROC ; create_client, COMDAT

; 387  : {

  00000	55		 push	 ebp
  00001	8b ec		 mov	 ebp, esp
  00003	83 ec 44	 sub	 esp, 68			; 00000044H
  00006	53		 push	 ebx
  00007	56		 push	 esi
  00008	57		 push	 edi

; 388  : 	entity
; 389  : 		*en;
; 390  : 
; 391  : 	if (get_comms_data_flow () == COMMS_DATA_FLOW_TX)

  00009	83 3d 00 00 00
	00 00		 cmp	 DWORD PTR ?system_comms_data_flow@@3W4COMMS_DATA_FLOW_TYPES@@A, 0 ; system_comms_data_flow
  00010	75 37		 jne	 SHORT $LN2@create_cli

; 392  : 	{
; 393  : 		validate_client_server_remote_fn ();

  00012	e8 00 00 00 00	 call	 ?assert_client_server_remote_fn@@YGHXZ ; assert_client_server_remote_fn
  00017	85 c0		 test	 eax, eax
  00019	75 18		 jne	 SHORT $LN4@create_cli
  0001b	a1 00 00 00 00	 mov	 eax, DWORD PTR ?__LINE__Var@?0??create_client@@YGPAUENTITY@@W4ENTITY_TYPES@@HPAD@Z@4JA
  00020	83 c0 06	 add	 eax, 6
  00023	50		 push	 eax
  00024	68 00 00 00 00	 push	 OFFSET ??_C@_0FE@NPPJNBI@c?3?2users?2nhv90?2projects?2eech?2ap@
  00029	68 00 00 00 00	 push	 OFFSET ??_C@_0CC@BNNNEGEG@assert_client_server_remote_fn?5@
  0002e	e8 00 00 00 00	 call	 ?process_assert@@YGXPBD0H@Z ; process_assert
$LN4@create_cli:

; 394  : 
; 395  : 		en = create_remote (type, index, pargs);

  00033	8b 45 10	 mov	 eax, DWORD PTR _pargs$[ebp]
  00036	50		 push	 eax
  00037	8b 4d 0c	 mov	 ecx, DWORD PTR _index$[ebp]
  0003a	51		 push	 ecx
  0003b	8b 55 08	 mov	 edx, DWORD PTR _type$[ebp]
  0003e	52		 push	 edx
  0003f	e8 00 00 00 00	 call	 ?create_remote@@YGPAUENTITY@@W4ENTITY_TYPES@@HPAD@Z ; create_remote
  00044	89 45 fc	 mov	 DWORD PTR _en$[ebp], eax

; 396  : 	}
; 397  : 	else

  00047	eb 35		 jmp	 SHORT $LN3@create_cli
$LN2@create_cli:

; 398  : 	{
; 399  : 		validate_client_server_local_fn ();

  00049	e8 00 00 00 00	 call	 ?assert_client_server_local_fn@@YGHXZ ; assert_client_server_local_fn
  0004e	85 c0		 test	 eax, eax
  00050	75 18		 jne	 SHORT $LN5@create_cli
  00052	a1 00 00 00 00	 mov	 eax, DWORD PTR ?__LINE__Var@?0??create_client@@YGPAUENTITY@@W4ENTITY_TYPES@@HPAD@Z@4JA
  00057	83 c0 0c	 add	 eax, 12			; 0000000cH
  0005a	50		 push	 eax
  0005b	68 00 00 00 00	 push	 OFFSET ??_C@_0FE@NPPJNBI@c?3?2users?2nhv90?2projects?2eech?2ap@
  00060	68 00 00 00 00	 push	 OFFSET ??_C@_0CB@CFOCLFOK@assert_client_server_local_fn?5?$CI@
  00065	e8 00 00 00 00	 call	 ?process_assert@@YGXPBD0H@Z ; process_assert
$LN5@create_cli:

; 400  : 
; 401  : 		en = create_local (type, index, pargs);

  0006a	8b 45 10	 mov	 eax, DWORD PTR _pargs$[ebp]
  0006d	50		 push	 eax
  0006e	8b 4d 0c	 mov	 ecx, DWORD PTR _index$[ebp]
  00071	51		 push	 ecx
  00072	8b 55 08	 mov	 edx, DWORD PTR _type$[ebp]
  00075	52		 push	 edx
  00076	e8 00 00 00 00	 call	 ?create_local@@YGPAUENTITY@@W4ENTITY_TYPES@@HPAD@Z ; create_local
  0007b	89 45 fc	 mov	 DWORD PTR _en$[ebp], eax
$LN3@create_cli:

; 402  : 	}
; 403  : 
; 404  : 	return (en);

  0007e	8b 45 fc	 mov	 eax, DWORD PTR _en$[ebp]

; 405  : }

  00081	5f		 pop	 edi
  00082	5e		 pop	 esi
  00083	5b		 pop	 ebx
  00084	8b e5		 mov	 esp, ebp
  00086	5d		 pop	 ebp
  00087	c2 0c 00	 ret	 12			; 0000000cH
?create_client@@YGPAUENTITY@@W4ENTITY_TYPES@@HPAD@Z ENDP ; create_client
_TEXT	ENDS
; Function compile flags: /Odtp /ZI
; File c:\users\nhv90\projects\eech\aphavoc\source\entity\mobile\vehicle\routed\rv_creat.c
;	COMDAT ?create_server@@YGPAUENTITY@@W4ENTITY_TYPES@@HPAD@Z
_TEXT	SEGMENT
_en$ = -4						; size = 4
_type$ = 8						; size = 4
_index$ = 12						; size = 4
_pargs$ = 16						; size = 4
?create_server@@YGPAUENTITY@@W4ENTITY_TYPES@@HPAD@Z PROC ; create_server, COMDAT

; 364  : {

  00000	55		 push	 ebp
  00001	8b ec		 mov	 ebp, esp
  00003	83 ec 44	 sub	 esp, 68			; 00000044H
  00006	53		 push	 ebx
  00007	56		 push	 esi
  00008	57		 push	 edi

; 365  : 	entity
; 366  : 		*en;
; 367  : 
; 368  : 	validate_client_server_local_fn ();

  00009	e8 00 00 00 00	 call	 ?assert_client_server_local_fn@@YGHXZ ; assert_client_server_local_fn
  0000e	85 c0		 test	 eax, eax
  00010	75 18		 jne	 SHORT $LN2@create_ser
  00012	a1 00 00 00 00	 mov	 eax, DWORD PTR ?__LINE__Var@?0??create_server@@YGPAUENTITY@@W4ENTITY_TYPES@@HPAD@Z@4JA
  00017	83 c0 04	 add	 eax, 4
  0001a	50		 push	 eax
  0001b	68 00 00 00 00	 push	 OFFSET ??_C@_0FE@NPPJNBI@c?3?2users?2nhv90?2projects?2eech?2ap@
  00020	68 00 00 00 00	 push	 OFFSET ??_C@_0CB@CFOCLFOK@assert_client_server_local_fn?5?$CI@
  00025	e8 00 00 00 00	 call	 ?process_assert@@YGXPBD0H@Z ; process_assert
$LN2@create_ser:

; 369  : 
; 370  : 	en = create_local (type, index, pargs);

  0002a	8b 45 10	 mov	 eax, DWORD PTR _pargs$[ebp]
  0002d	50		 push	 eax
  0002e	8b 4d 0c	 mov	 ecx, DWORD PTR _index$[ebp]
  00031	51		 push	 ecx
  00032	8b 55 08	 mov	 edx, DWORD PTR _type$[ebp]
  00035	52		 push	 edx
  00036	e8 00 00 00 00	 call	 ?create_local@@YGPAUENTITY@@W4ENTITY_TYPES@@HPAD@Z ; create_local
  0003b	89 45 fc	 mov	 DWORD PTR _en$[ebp], eax

; 371  : 
; 372  : 	if (en)

  0003e	83 7d fc 00	 cmp	 DWORD PTR _en$[ebp], 0
  00042	74 3b		 je	 SHORT $LN3@create_ser

; 373  : 	{
; 374  : 		validate_client_server_remote_fn ();

  00044	e8 00 00 00 00	 call	 ?assert_client_server_remote_fn@@YGHXZ ; assert_client_server_remote_fn
  00049	85 c0		 test	 eax, eax
  0004b	75 18		 jne	 SHORT $LN4@create_ser
  0004d	a1 00 00 00 00	 mov	 eax, DWORD PTR ?__LINE__Var@?0??create_server@@YGPAUENTITY@@W4ENTITY_TYPES@@HPAD@Z@4JA
  00052	83 c0 0a	 add	 eax, 10			; 0000000aH
  00055	50		 push	 eax
  00056	68 00 00 00 00	 push	 OFFSET ??_C@_0FE@NPPJNBI@c?3?2users?2nhv90?2projects?2eech?2ap@
  0005b	68 00 00 00 00	 push	 OFFSET ??_C@_0CC@BNNNEGEG@assert_client_server_remote_fn?5@
  00060	e8 00 00 00 00	 call	 ?process_assert@@YGXPBD0H@Z ; process_assert
$LN4@create_ser:

; 375  : 
; 376  : 		create_remote (type, get_local_entity_index (en), pargs);

  00065	8b 45 10	 mov	 eax, DWORD PTR _pargs$[ebp]
  00068	50		 push	 eax
  00069	8b 4d fc	 mov	 ecx, DWORD PTR _en$[ebp]
  0006c	2b 0d 00 00 00
	00		 sub	 ecx, DWORD PTR ?entities@@3PAUENTITY@@A ; entities
  00072	c1 f9 04	 sar	 ecx, 4
  00075	51		 push	 ecx
  00076	8b 55 08	 mov	 edx, DWORD PTR _type$[ebp]
  00079	52		 push	 edx
  0007a	e8 00 00 00 00	 call	 ?create_remote@@YGPAUENTITY@@W4ENTITY_TYPES@@HPAD@Z ; create_remote
$LN3@create_ser:

; 377  : 	}
; 378  : 
; 379  : 	return (en);

  0007f	8b 45 fc	 mov	 eax, DWORD PTR _en$[ebp]

; 380  : }

  00082	5f		 pop	 edi
  00083	5e		 pop	 esi
  00084	5b		 pop	 ebx
  00085	8b e5		 mov	 esp, ebp
  00087	5d		 pop	 ebp
  00088	c2 0c 00	 ret	 12			; 0000000cH
?create_server@@YGPAUENTITY@@W4ENTITY_TYPES@@HPAD@Z ENDP ; create_server
_TEXT	ENDS
; Function compile flags: /Odtp /ZI
; File c:\users\nhv90\projects\eech\aphavoc\source\entity\mobile\vehicle\routed\rv_creat.c
;	COMDAT ?create_remote@@YGPAUENTITY@@W4ENTITY_TYPES@@HPAD@Z
_TEXT	SEGMENT
_type$ = 8						; size = 4
_index$ = 12						; size = 4
_pargs$ = 16						; size = 4
?create_remote@@YGPAUENTITY@@W4ENTITY_TYPES@@HPAD@Z PROC ; create_remote, COMDAT

; 345  : {

  00000	55		 push	 ebp
  00001	8b ec		 mov	 ebp, esp
  00003	83 ec 40	 sub	 esp, 64			; 00000040H
  00006	53		 push	 ebx
  00007	56		 push	 esi
  00008	57		 push	 edi

; 346  : 	validate_remote_create_entity_index (index);

  00009	8b 45 0c	 mov	 eax, DWORD PTR _index$[ebp]
  0000c	50		 push	 eax
  0000d	e8 00 00 00 00	 call	 ?assert_remote_create_entity_index@@YGHH@Z ; assert_remote_create_entity_index
  00012	85 c0		 test	 eax, eax
  00014	75 18		 jne	 SHORT $LN2@create_rem
  00016	a1 00 00 00 00	 mov	 eax, DWORD PTR ?__LINE__Var@?0??create_remote@@YGPAUENTITY@@W4ENTITY_TYPES@@HPAD@Z@4JA
  0001b	83 c0 01	 add	 eax, 1
  0001e	50		 push	 eax
  0001f	68 00 00 00 00	 push	 OFFSET ??_C@_0FE@NPPJNBI@c?3?2users?2nhv90?2projects?2eech?2ap@
  00024	68 00 00 00 00	 push	 OFFSET ??_C@_0CM@DHBIKIGD@assert_remote_create_entity_ind@
  00029	e8 00 00 00 00	 call	 ?process_assert@@YGXPBD0H@Z ; process_assert
$LN2@create_rem:

; 347  : 
; 348  : 	#if DEBUG_MODULE
; 349  : 
; 350  : 	debug_log_entity_args (ENTITY_DEBUG_REMOTE, ENTITY_DEBUG_CREATE, NULL, type, index);
; 351  : 
; 352  : 	#endif
; 353  : 
; 354  : 	transmit_entity_comms_message (ENTITY_COMMS_CREATE, NULL, type, index, pargs);

  0002e	8b 45 10	 mov	 eax, DWORD PTR _pargs$[ebp]
  00031	50		 push	 eax
  00032	8b 4d 0c	 mov	 ecx, DWORD PTR _index$[ebp]
  00035	51		 push	 ecx
  00036	8b 55 08	 mov	 edx, DWORD PTR _type$[ebp]
  00039	52		 push	 edx
  0003a	6a 00		 push	 0
  0003c	6a 08		 push	 8
  0003e	e8 00 00 00 00	 call	 ?transmit_entity_comms_message@@YAXW4ENTITY_COMMS_MESSAGES@@PAUENTITY@@ZZ ; transmit_entity_comms_message
  00043	83 c4 14	 add	 esp, 20			; 00000014H

; 355  : 
; 356  : 	return (NULL);

  00046	33 c0		 xor	 eax, eax

; 357  : }

  00048	5f		 pop	 edi
  00049	5e		 pop	 esi
  0004a	5b		 pop	 ebx
  0004b	8b e5		 mov	 esp, ebp
  0004d	5d		 pop	 ebp
  0004e	c2 0c 00	 ret	 12			; 0000000cH
?create_remote@@YGPAUENTITY@@W4ENTITY_TYPES@@HPAD@Z ENDP ; create_remote
_TEXT	ENDS
; Function compile flags: /Odtp /ZI
; File c:\users\nhv90\projects\eech\aphavoc\source\entity\mobile\vehicle\routed\rv_creat.c
;	COMDAT ?create_local@@YGPAUENTITY@@W4ENTITY_TYPES@@HPAD@Z
_TEXT	SEGMENT
tv244 = -96						; size = 4
tv286 = -92						; size = 4
tv235 = -92						; size = 4
tv278 = -88						; size = 4
tv227 = -88						; size = 4
tv199 = -88						; size = 4
_face_normal$ = -20					; size = 4
_heading$ = -16						; size = 4
_group_sub_type$ = -12					; size = 4
_raw$ = -8						; size = 4
_en$ = -4						; size = 4
_type$ = 8						; size = 4
_index$ = 12						; size = 4
_pargs$ = 16						; size = 4
?create_local@@YGPAUENTITY@@W4ENTITY_TYPES@@HPAD@Z PROC	; create_local, COMDAT

; 82   : {

  00000	55		 push	 ebp
  00001	8b ec		 mov	 ebp, esp
  00003	83 ec 60	 sub	 esp, 96			; 00000060H
  00006	53		 push	 ebx
  00007	56		 push	 esi
  00008	57		 push	 edi

; 83   : 	entity
; 84   : 		*en;
; 85   : 
; 86   : 	routed_vehicle
; 87   : 		*raw;
; 88   : 
; 89   : 	entity_sub_types
; 90   : 		group_sub_type;
; 91   : 
; 92   : 	float
; 93   : 		heading;
; 94   : 
; 95   : 	vec3d
; 96   : 		*face_normal;
; 97   : 
; 98   : 	////////////////////////////////////////
; 99   :   	//
; 100  :   	// VALIDATE
; 101  :   	//
; 102  : 	////////////////////////////////////////
; 103  : 
; 104  : 	validate_local_create_entity_index (index);

  00009	8b 45 0c	 mov	 eax, DWORD PTR _index$[ebp]
  0000c	50		 push	 eax
  0000d	e8 00 00 00 00	 call	 ?assert_local_create_entity_index@@YGHH@Z ; assert_local_create_entity_index
  00012	85 c0		 test	 eax, eax
  00014	75 18		 jne	 SHORT $LN2@create_loc
  00016	a1 00 00 00 00	 mov	 eax, DWORD PTR ?__LINE__Var@?0??create_local@@YGPAUENTITY@@W4ENTITY_TYPES@@HPAD@Z@4JA
  0001b	83 c0 16	 add	 eax, 22			; 00000016H
  0001e	50		 push	 eax
  0001f	68 00 00 00 00	 push	 OFFSET ??_C@_0FE@NPPJNBI@c?3?2users?2nhv90?2projects?2eech?2ap@
  00024	68 00 00 00 00	 push	 OFFSET ??_C@_0CL@OOPHFNJI@assert_local_create_entity_inde@
  00029	e8 00 00 00 00	 call	 ?process_assert@@YGXPBD0H@Z ; process_assert
$LN2@create_loc:

; 105  : 
; 106  : 	#if DEBUG_MODULE
; 107  : 
; 108  : 	debug_log_entity_args (ENTITY_DEBUG_LOCAL, ENTITY_DEBUG_CREATE, NULL, type, index);
; 109  : 
; 110  : 	#endif
; 111  : 
; 112  : 	en = get_free_entity (index);

  0002e	8b 45 0c	 mov	 eax, DWORD PTR _index$[ebp]
  00031	50		 push	 eax
  00032	e8 00 00 00 00	 call	 ?get_free_entity@@YGPAUENTITY@@H@Z ; get_free_entity
  00037	89 45 fc	 mov	 DWORD PTR _en$[ebp], eax

; 113  : 
; 114  : 	if (en)

  0003a	83 7d fc 00	 cmp	 DWORD PTR _en$[ebp], 0
  0003e	0f 84 3d 06 00
	00		 je	 $LN17@create_loc

; 115  : 	{
; 116  : 		////////////////////////////////////////
; 117  :    	//
; 118  :    	// MALLOC ENTITY DATA
; 119  :    	//
; 120  : 		////////////////////////////////////////
; 121  : 
; 122  : 		set_local_entity_type (en, type);

  00044	8b 45 fc	 mov	 eax, DWORD PTR _en$[ebp]
  00047	8b 4d 08	 mov	 ecx, DWORD PTR _type$[ebp]
  0004a	89 08		 mov	 DWORD PTR [eax], ecx

; 123  : 
; 124  : 		raw = (routed_vehicle *) malloc_fast_mem (sizeof (routed_vehicle));

  0004c	68 84 01 00 00	 push	 388			; 00000184H
  00051	e8 00 00 00 00	 call	 ?malloc_fast_memory@@YGPAXI@Z ; malloc_fast_memory
  00056	89 45 f8	 mov	 DWORD PTR _raw$[ebp], eax

; 125  : 
; 126  : 		set_local_entity_data (en, raw);

  00059	8b 45 fc	 mov	 eax, DWORD PTR _en$[ebp]
  0005c	8b 4d f8	 mov	 ecx, DWORD PTR _raw$[ebp]
  0005f	89 48 04	 mov	 DWORD PTR [eax+4], ecx

; 127  : 
; 128  : 		////////////////////////////////////////
; 129  :    	//
; 130  :    	// INITIALISE ALL ENTITY DATA TO 'WORKING' DEFAULT VALUES
; 131  : 		//
; 132  : 		// DO NOT USE ACCESS FUNCTIONS
; 133  : 		//
; 134  : 		// DO NOT USE RANDOM VALUES
; 135  : 		//
; 136  : 		////////////////////////////////////////
; 137  : 
; 138  : 		memset (raw, 0, sizeof (routed_vehicle));

  00062	68 84 01 00 00	 push	 388			; 00000184H
  00067	6a 00		 push	 0
  00069	8b 45 f8	 mov	 eax, DWORD PTR _raw$[ebp]
  0006c	50		 push	 eax
  0006d	e8 00 00 00 00	 call	 _memset
  00072	83 c4 0c	 add	 esp, 12			; 0000000cH

; 139  : 
; 140  : 		//
; 141  : 		// mobile
; 142  : 		//
; 143  : 
; 144  : 		raw->vh.mob.sub_type = ENTITY_SUB_TYPE_UNINITIALISED;

  00075	8b 45 f8	 mov	 eax, DWORD PTR _raw$[ebp]
  00078	c7 00 ff ff ff
	ff		 mov	 DWORD PTR [eax], -1

; 145  : 
; 146  : 		raw->vh.mob.position.x = MID_MAP_X;

  0007e	8b 45 f8	 mov	 eax, DWORD PTR _raw$[ebp]
  00081	f3 0f 10 05 30
	00 00 00	 movss	 xmm0, DWORD PTR ?world_map@@3UWORLD_MAP_DATA@@A+48
  00089	f3 0f 11 40 04	 movss	 DWORD PTR [eax+4], xmm0

; 147  : 		raw->vh.mob.position.y = MID_MAP_Y;

  0008e	8b 45 f8	 mov	 eax, DWORD PTR _raw$[ebp]
  00091	f3 0f 10 05 34
	00 00 00	 movss	 xmm0, DWORD PTR ?world_map@@3UWORLD_MAP_DATA@@A+52
  00099	f3 0f 11 40 08	 movss	 DWORD PTR [eax+8], xmm0

; 148  : 		raw->vh.mob.position.z = MID_MAP_Z;

  0009e	8b 45 f8	 mov	 eax, DWORD PTR _raw$[ebp]
  000a1	f3 0f 10 05 38
	00 00 00	 movss	 xmm0, DWORD PTR ?world_map@@3UWORLD_MAP_DATA@@A+56
  000a9	f3 0f 11 40 0c	 movss	 DWORD PTR [eax+12], xmm0

; 149  : 
; 150  : 		get_identity_matrix3x3 (raw->vh.mob.attitude);

  000ae	8b 45 f8	 mov	 eax, DWORD PTR _raw$[ebp]
  000b1	83 c0 10	 add	 eax, 16			; 00000010H
  000b4	50		 push	 eax
  000b5	e8 00 00 00 00	 call	 ?get_identity_matrix3x3@@YGXQAY02M@Z ; get_identity_matrix3x3

; 151  : 
; 152  : 		raw->vh.mob.alive = TRUE;

  000ba	8b 45 f8	 mov	 eax, DWORD PTR _raw$[ebp]
  000bd	8b 48 7c	 mov	 ecx, DWORD PTR [eax+124]
  000c0	83 c9 01	 or	 ecx, 1
  000c3	8b 55 f8	 mov	 edx, DWORD PTR _raw$[ebp]
  000c6	89 4a 7c	 mov	 DWORD PTR [edx+124], ecx

; 153  : 
; 154  : 		raw->vh.mob.side = ENTITY_SIDE_UNINITIALISED;

  000c9	8b 45 f8	 mov	 eax, DWORD PTR _raw$[ebp]
  000cc	8b 48 7c	 mov	 ecx, DWORD PTR [eax+124]
  000cf	83 c9 06	 or	 ecx, 6
  000d2	8b 55 f8	 mov	 edx, DWORD PTR _raw$[ebp]
  000d5	89 4a 7c	 mov	 DWORD PTR [edx+124], ecx

; 155  : 
; 156  : 		raw->vh.operational_state = OPERATIONAL_STATE_UNKNOWN;

  000d8	8b 45 f8	 mov	 eax, DWORD PTR _raw$[ebp]
  000db	8b 88 24 01 00
	00		 mov	 ecx, DWORD PTR [eax+292]
  000e1	81 e1 1f fc ff
	ff		 and	 ecx, -993		; fffffc1fH
  000e7	8b 55 f8	 mov	 edx, DWORD PTR _raw$[ebp]
  000ea	89 8a 24 01 00
	00		 mov	 DWORD PTR [edx+292], ecx

; 157  : 
; 158  : 		//
; 159  : 		// vehicle
; 160  : 		//
; 161  : 
; 162  : 		raw->vh.object_3d_shape = OBJECT_3D_INVALID_OBJECT_INDEX;

  000f0	8b 45 f8	 mov	 eax, DWORD PTR _raw$[ebp]
  000f3	c7 80 80 00 00
	00 00 00 00 00	 mov	 DWORD PTR [eax+128], 0

; 163  : 
; 164  : 		raw->vh.weapon_config_type = WEAPON_CONFIG_TYPE_UNINITIALISED;

  000fd	8b 45 f8	 mov	 eax, DWORD PTR _raw$[ebp]
  00100	c7 80 14 01 00
	00 ff ff ff ff	 mov	 DWORD PTR [eax+276], -1

; 165  : 
; 166  : 		raw->vh.selected_weapon = ENTITY_SUB_TYPE_WEAPON_NO_WEAPON;

  0010a	8b 45 f8	 mov	 eax, DWORD PTR _raw$[ebp]
  0010d	c7 80 1c 01 00
	00 00 00 00 00	 mov	 DWORD PTR [eax+284], 0

; 167  : 
; 168  : 		raw->vh.weapon_vector.x = 0.0;

  00117	8b 45 f8	 mov	 eax, DWORD PTR _raw$[ebp]
  0011a	0f 57 c0	 xorps	 xmm0, xmm0
  0011d	f3 0f 11 80 34
	01 00 00	 movss	 DWORD PTR [eax+308], xmm0

; 169  : 		raw->vh.weapon_vector.y = 0.0;

  00125	8b 45 f8	 mov	 eax, DWORD PTR _raw$[ebp]
  00128	0f 57 c0	 xorps	 xmm0, xmm0
  0012b	f3 0f 11 80 38
	01 00 00	 movss	 DWORD PTR [eax+312], xmm0

; 170  : 		raw->vh.weapon_vector.z = 1.0;

  00133	8b 45 f8	 mov	 eax, DWORD PTR _raw$[ebp]
  00136	f3 0f 10 05 00
	00 00 00	 movss	 xmm0, DWORD PTR __real@3f800000
  0013e	f3 0f 11 80 3c
	01 00 00	 movss	 DWORD PTR [eax+316], xmm0

; 171  : 
; 172  : 		raw->vh.weapon_to_target_vector.x = 0.0;

  00146	8b 45 f8	 mov	 eax, DWORD PTR _raw$[ebp]
  00149	0f 57 c0	 xorps	 xmm0, xmm0
  0014c	f3 0f 11 80 40
	01 00 00	 movss	 DWORD PTR [eax+320], xmm0

; 173  : 		raw->vh.weapon_to_target_vector.y = 0.0;

  00154	8b 45 f8	 mov	 eax, DWORD PTR _raw$[ebp]
  00157	0f 57 c0	 xorps	 xmm0, xmm0
  0015a	f3 0f 11 80 44
	01 00 00	 movss	 DWORD PTR [eax+324], xmm0

; 174  : 		raw->vh.weapon_to_target_vector.z = -1.0;

  00162	8b 45 f8	 mov	 eax, DWORD PTR _raw$[ebp]
  00165	f3 0f 10 05 00
	00 00 00	 movss	 xmm0, DWORD PTR __real@bf800000
  0016d	f3 0f 11 80 48
	01 00 00	 movss	 DWORD PTR [eax+328], xmm0

; 175  : 
; 176  : 		raw->vh.loading_door_state = VEHICLE_LOADING_DOORS_OPEN_FLOAT_VALUE;

  00175	8b 45 f8	 mov	 eax, DWORD PTR _raw$[ebp]
  00178	f3 0f 10 05 00
	00 00 00	 movss	 xmm0, DWORD PTR __real@40000000
  00180	f3 0f 11 80 f0
	00 00 00	 movss	 DWORD PTR [eax+240], xmm0

; 177  : 
; 178  : 		//
; 179  : 		// routed
; 180  : 		//
; 181  : 
; 182  : 		////////////////////////////////////////
; 183  : 		//
; 184  : 		// OVERWRITE DEFAULT VALUES WITH GIVEN ATTRIBUTES
; 185  : 		//
; 186  : 		////////////////////////////////////////
; 187  : 
; 188  : 		set_local_entity_attributes (en, pargs);

  00188	8b 45 10	 mov	 eax, DWORD PTR _pargs$[ebp]
  0018b	50		 push	 eax
  0018c	8b 4d fc	 mov	 ecx, DWORD PTR _en$[ebp]
  0018f	51		 push	 ecx
  00190	e8 00 00 00 00	 call	 ?set_local_entity_attributes@@YGXPAUENTITY@@PAD@Z ; set_local_entity_attributes

; 189  : 
; 190  : 		////////////////////////////////////////
; 191  : 		//
; 192  : 		// CHECK MANDATORY ATTRIBUTES HAVE BEEN GIVEN
; 193  : 		//
; 194  : 		////////////////////////////////////////
; 195  : 
; 196  : 		ASSERT (raw->vh.member_link.parent);

  00195	8b 45 f8	 mov	 eax, DWORD PTR _raw$[ebp]
  00198	83 b8 b8 00 00
	00 00		 cmp	 DWORD PTR [eax+184], 0
  0019f	75 18		 jne	 SHORT $LN4@create_loc
  001a1	a1 00 00 00 00	 mov	 eax, DWORD PTR ?__LINE__Var@?0??create_local@@YGPAUENTITY@@W4ENTITY_TYPES@@HPAD@Z@4JA
  001a6	83 c0 72	 add	 eax, 114		; 00000072H
  001a9	50		 push	 eax
  001aa	68 00 00 00 00	 push	 OFFSET ??_C@_0FE@NPPJNBI@c?3?2users?2nhv90?2projects?2eech?2ap@
  001af	68 00 00 00 00	 push	 OFFSET ??_C@_0BL@DJJKEKPA@raw?9?$DOvh?4member_link?4parent@
  001b4	e8 00 00 00 00	 call	 ?process_assert@@YGXPBD0H@Z ; process_assert
$LN4@create_loc:

; 197  : 
; 198  : 		ASSERT (get_local_entity_type (raw->vh.member_link.parent) == ENTITY_TYPE_GROUP);

  001b9	8b 45 f8	 mov	 eax, DWORD PTR _raw$[ebp]
  001bc	83 b8 b8 00 00
	00 00		 cmp	 DWORD PTR [eax+184], 0
  001c3	74 10		 je	 SHORT $LN19@create_loc
  001c5	8b 4d f8	 mov	 ecx, DWORD PTR _raw$[ebp]
  001c8	8b 91 b8 00 00
	00		 mov	 edx, DWORD PTR [ecx+184]
  001ce	8b 02		 mov	 eax, DWORD PTR [edx]
  001d0	89 45 a8	 mov	 DWORD PTR tv199[ebp], eax
  001d3	eb 22		 jmp	 SHORT $LN20@create_loc
$LN19@create_loc:
  001d5	8b 0d 00 00 00
	00		 mov	 ecx, DWORD PTR ?__LINE__Var@?0??create_local@@YGPAUENTITY@@W4ENTITY_TYPES@@HPAD@Z@4JA
  001db	83 c1 74	 add	 ecx, 116		; 00000074H
  001de	51		 push	 ecx
  001df	68 00 00 00 00	 push	 OFFSET ??_C@_0FE@NPPJNBI@c?3?2users?2nhv90?2projects?2eech?2ap@
  001e4	8b 15 00 00 00
	00		 mov	 edx, DWORD PTR ?null_entity_pointer_message@@3PBDB ; null_entity_pointer_message
  001ea	52		 push	 edx
  001eb	e8 00 00 00 00	 call	 ?process_assert@@YGXPBD0H@Z ; process_assert
  001f0	c7 45 a8 00 00
	00 00		 mov	 DWORD PTR tv199[ebp], 0
$LN20@create_loc:
  001f7	83 7d a8 0c	 cmp	 DWORD PTR tv199[ebp], 12 ; 0000000cH
  001fb	74 18		 je	 SHORT $LN5@create_loc
  001fd	a1 00 00 00 00	 mov	 eax, DWORD PTR ?__LINE__Var@?0??create_local@@YGPAUENTITY@@W4ENTITY_TYPES@@HPAD@Z@4JA
  00202	83 c0 74	 add	 eax, 116		; 00000074H
  00205	50		 push	 eax
  00206	68 00 00 00 00	 push	 OFFSET ??_C@_0FE@NPPJNBI@c?3?2users?2nhv90?2projects?2eech?2ap@
  0020b	68 00 00 00 00	 push	 OFFSET ??_C@_0EI@DJAOJDPN@get_local_entity_type?5?$CIraw?9?$DOvh?4@
  00210	e8 00 00 00 00	 call	 ?process_assert@@YGXPBD0H@Z ; process_assert
$LN5@create_loc:

; 199  : 
; 200  : 		////////////////////////////////////////
; 201  : 		//
; 202  : 		// RESOLVE DEFAULT VALUES
; 203  : 		//
; 204  : 		////////////////////////////////////////
; 205  : 
; 206  : 		raw->sub_route = NULL;

  00215	8b 45 f8	 mov	 eax, DWORD PTR _raw$[ebp]
  00218	c7 80 80 01 00
	00 00 00 00 00	 mov	 DWORD PTR [eax+384], 0

; 207  : 
; 208  : 		//
; 209  : 		// side
; 210  : 		//
; 211  : 
; 212  : 		if (raw->vh.mob.side == ENTITY_SIDE_UNINITIALISED)

  00222	8b 45 f8	 mov	 eax, DWORD PTR _raw$[ebp]
  00225	8b 48 7c	 mov	 ecx, DWORD PTR [eax+124]
  00228	d1 e9		 shr	 ecx, 1
  0022a	83 e1 03	 and	 ecx, 3
  0022d	83 f9 03	 cmp	 ecx, 3
  00230	0f 85 b6 00 00
	00		 jne	 $LN6@create_loc

; 213  : 		{
; 214  : 			raw->vh.mob.side = get_local_entity_int_value (raw->vh.member_link.parent, INT_TYPE_SIDE);

  00236	8b 45 f8	 mov	 eax, DWORD PTR _raw$[ebp]
  00239	83 b8 b8 00 00
	00 00		 cmp	 DWORD PTR [eax+184], 0
  00240	74 10		 je	 SHORT $LN21@create_loc
  00242	8b 4d f8	 mov	 ecx, DWORD PTR _raw$[ebp]
  00245	8b 91 b8 00 00
	00		 mov	 edx, DWORD PTR [ecx+184]
  0024b	8b 02		 mov	 eax, DWORD PTR [edx]
  0024d	89 45 a8	 mov	 DWORD PTR tv227[ebp], eax
  00250	eb 25		 jmp	 SHORT $LN22@create_loc
$LN21@create_loc:
  00252	8b 0d 00 00 00
	00		 mov	 ecx, DWORD PTR ?__LINE__Var@?0??create_local@@YGPAUENTITY@@W4ENTITY_TYPES@@HPAD@Z@4JA
  00258	81 c1 84 00 00
	00		 add	 ecx, 132		; 00000084H
  0025e	51		 push	 ecx
  0025f	68 00 00 00 00	 push	 OFFSET ??_C@_0FE@NPPJNBI@c?3?2users?2nhv90?2projects?2eech?2ap@
  00264	8b 15 00 00 00
	00		 mov	 edx, DWORD PTR ?null_entity_pointer_message@@3PBDB ; null_entity_pointer_message
  0026a	52		 push	 edx
  0026b	e8 00 00 00 00	 call	 ?process_assert@@YGXPBD0H@Z ; process_assert
  00270	c7 45 a8 00 00
	00 00		 mov	 DWORD PTR tv227[ebp], 0
$LN22@create_loc:
  00277	b8 01 00 00 00	 mov	 eax, 1
  0027c	85 c0		 test	 eax, eax
  0027e	74 09		 je	 SHORT $LN23@create_loc
  00280	c7 45 a4 bb 00
	00 00		 mov	 DWORD PTR tv235[ebp], 187 ; 000000bbH
  00287	eb 25		 jmp	 SHORT $LN24@create_loc
$LN23@create_loc:
  00289	8b 0d 00 00 00
	00		 mov	 ecx, DWORD PTR ?__LINE__Var@?0??create_local@@YGPAUENTITY@@W4ENTITY_TYPES@@HPAD@Z@4JA
  0028f	81 c1 84 00 00
	00		 add	 ecx, 132		; 00000084H
  00295	51		 push	 ecx
  00296	68 00 00 00 00	 push	 OFFSET ??_C@_0FE@NPPJNBI@c?3?2users?2nhv90?2projects?2eech?2ap@
  0029b	8b 15 00 00 00
	00		 mov	 edx, DWORD PTR ?overload_invalid_int_type_message@@3PBDB ; overload_invalid_int_type_message
  002a1	52		 push	 edx
  002a2	e8 00 00 00 00	 call	 ?process_assert@@YGXPBD0H@Z ; process_assert
  002a7	c7 45 a4 00 00
	00 00		 mov	 DWORD PTR tv235[ebp], 0
$LN24@create_loc:
  002ae	68 bb 00 00 00	 push	 187			; 000000bbH
  002b3	8b 45 f8	 mov	 eax, DWORD PTR _raw$[ebp]
  002b6	8b 88 b8 00 00
	00		 mov	 ecx, DWORD PTR [eax+184]
  002bc	51		 push	 ecx
  002bd	69 55 a8 5c 04
	00 00		 imul	 edx, DWORD PTR tv227[ebp], 1116
  002c4	8b 45 a4	 mov	 eax, DWORD PTR tv235[ebp]
  002c7	8b 8c 82 00 00
	00 00		 mov	 ecx, DWORD PTR ?fn_get_local_entity_int_value@@3PAY0BBH@P6GHPAUENTITY@@W4INT_TYPES@@@ZA[edx+eax*4]
  002ce	ff d1		 call	 ecx
  002d0	89 45 a0	 mov	 DWORD PTR tv244[ebp], eax
  002d3	8b 55 a0	 mov	 edx, DWORD PTR tv244[ebp]
  002d6	83 e2 03	 and	 edx, 3
  002d9	d1 e2		 shl	 edx, 1
  002db	8b 45 f8	 mov	 eax, DWORD PTR _raw$[ebp]
  002de	8b 48 7c	 mov	 ecx, DWORD PTR [eax+124]
  002e1	83 e1 f9	 and	 ecx, -7			; fffffff9H
  002e4	0b ca		 or	 ecx, edx
  002e6	8b 55 f8	 mov	 edx, DWORD PTR _raw$[ebp]
  002e9	89 4a 7c	 mov	 DWORD PTR [edx+124], ecx
$LN6@create_loc:

; 215  : 		}
; 216  : 
; 217  : 		ASSERT (raw->vh.mob.side != ENTITY_SIDE_NEUTRAL);

  002ec	8b 45 f8	 mov	 eax, DWORD PTR _raw$[ebp]
  002ef	8b 48 7c	 mov	 ecx, DWORD PTR [eax+124]
  002f2	d1 e9		 shr	 ecx, 1
  002f4	83 e1 03	 and	 ecx, 3
  002f7	75 1a		 jne	 SHORT $LN7@create_loc
  002f9	a1 00 00 00 00	 mov	 eax, DWORD PTR ?__LINE__Var@?0??create_local@@YGPAUENTITY@@W4ENTITY_TYPES@@HPAD@Z@4JA
  002fe	05 87 00 00 00	 add	 eax, 135		; 00000087H
  00303	50		 push	 eax
  00304	68 00 00 00 00	 push	 OFFSET ??_C@_0FE@NPPJNBI@c?3?2users?2nhv90?2projects?2eech?2ap@
  00309	68 00 00 00 00	 push	 OFFSET ??_C@_0CI@PIKALLKJ@raw?9?$DOvh?4mob?4side?5?$CB?$DN?5ENTITY_SIDE@
  0030e	e8 00 00 00 00	 call	 ?process_assert@@YGXPBD0H@Z ; process_assert
$LN7@create_loc:

; 218  : 
; 219  : 		//
; 220  : 		// sub_type
; 221  : 		//
; 222  : 
; 223  : 		if (raw->vh.mob.sub_type == ENTITY_SUB_TYPE_UNINITIALISED)

  00313	8b 45 f8	 mov	 eax, DWORD PTR _raw$[ebp]
  00316	83 38 ff	 cmp	 DWORD PTR [eax], -1
  00319	0f 85 ca 00 00
	00		 jne	 $LN10@create_loc

; 224  : 		{
; 225  : 			group_sub_type = get_local_entity_int_value (raw->vh.member_link.parent, INT_TYPE_ENTITY_SUB_TYPE);

  0031f	8b 45 f8	 mov	 eax, DWORD PTR _raw$[ebp]
  00322	83 b8 b8 00 00
	00 00		 cmp	 DWORD PTR [eax+184], 0
  00329	74 10		 je	 SHORT $LN25@create_loc
  0032b	8b 4d f8	 mov	 ecx, DWORD PTR _raw$[ebp]
  0032e	8b 91 b8 00 00
	00		 mov	 edx, DWORD PTR [ecx+184]
  00334	8b 02		 mov	 eax, DWORD PTR [edx]
  00336	89 45 a8	 mov	 DWORD PTR tv278[ebp], eax
  00339	eb 25		 jmp	 SHORT $LN26@create_loc
$LN25@create_loc:
  0033b	8b 0d 00 00 00
	00		 mov	 ecx, DWORD PTR ?__LINE__Var@?0??create_local@@YGPAUENTITY@@W4ENTITY_TYPES@@HPAD@Z@4JA
  00341	81 c1 8f 00 00
	00		 add	 ecx, 143		; 0000008fH
  00347	51		 push	 ecx
  00348	68 00 00 00 00	 push	 OFFSET ??_C@_0FE@NPPJNBI@c?3?2users?2nhv90?2projects?2eech?2ap@
  0034d	8b 15 00 00 00
	00		 mov	 edx, DWORD PTR ?null_entity_pointer_message@@3PBDB ; null_entity_pointer_message
  00353	52		 push	 edx
  00354	e8 00 00 00 00	 call	 ?process_assert@@YGXPBD0H@Z ; process_assert
  00359	c7 45 a8 00 00
	00 00		 mov	 DWORD PTR tv278[ebp], 0
$LN26@create_loc:
  00360	b8 01 00 00 00	 mov	 eax, 1
  00365	85 c0		 test	 eax, eax
  00367	74 09		 je	 SHORT $LN27@create_loc
  00369	c7 45 a4 34 00
	00 00		 mov	 DWORD PTR tv286[ebp], 52 ; 00000034H
  00370	eb 25		 jmp	 SHORT $LN28@create_loc
$LN27@create_loc:
  00372	8b 0d 00 00 00
	00		 mov	 ecx, DWORD PTR ?__LINE__Var@?0??create_local@@YGPAUENTITY@@W4ENTITY_TYPES@@HPAD@Z@4JA
  00378	81 c1 8f 00 00
	00		 add	 ecx, 143		; 0000008fH
  0037e	51		 push	 ecx
  0037f	68 00 00 00 00	 push	 OFFSET ??_C@_0FE@NPPJNBI@c?3?2users?2nhv90?2projects?2eech?2ap@
  00384	8b 15 00 00 00
	00		 mov	 edx, DWORD PTR ?overload_invalid_int_type_message@@3PBDB ; overload_invalid_int_type_message
  0038a	52		 push	 edx
  0038b	e8 00 00 00 00	 call	 ?process_assert@@YGXPBD0H@Z ; process_assert
  00390	c7 45 a4 00 00
	00 00		 mov	 DWORD PTR tv286[ebp], 0
$LN28@create_loc:
  00397	6a 34		 push	 52			; 00000034H
  00399	8b 45 f8	 mov	 eax, DWORD PTR _raw$[ebp]
  0039c	8b 88 b8 00 00
	00		 mov	 ecx, DWORD PTR [eax+184]
  003a2	51		 push	 ecx
  003a3	69 55 a8 5c 04
	00 00		 imul	 edx, DWORD PTR tv278[ebp], 1116
  003aa	8b 45 a4	 mov	 eax, DWORD PTR tv286[ebp]
  003ad	8b 8c 82 00 00
	00 00		 mov	 ecx, DWORD PTR ?fn_get_local_entity_int_value@@3PAY0BBH@P6GHPAUENTITY@@W4INT_TYPES@@@ZA[edx+eax*4]
  003b4	ff d1		 call	 ecx
  003b6	89 45 f4	 mov	 DWORD PTR _group_sub_type$[ebp], eax

; 226  : 
; 227  : 			if (raw->vh.mob.side == ENTITY_SIDE_BLUE_FORCE)

  003b9	8b 45 f8	 mov	 eax, DWORD PTR _raw$[ebp]
  003bc	8b 48 7c	 mov	 ecx, DWORD PTR [eax+124]
  003bf	d1 e9		 shr	 ecx, 1
  003c1	83 e1 03	 and	 ecx, 3
  003c4	83 f9 01	 cmp	 ecx, 1
  003c7	75 11		 jne	 SHORT $LN9@create_loc

; 228  : 			{
; 229  : 				raw->vh.mob.sub_type = group_database[group_sub_type].default_blue_force_sub_type;

  003c9	6b 45 f4 64	 imul	 eax, DWORD PTR _group_sub_type$[ebp], 100
  003cd	8b 4d f8	 mov	 ecx, DWORD PTR _raw$[ebp]
  003d0	8b 90 20 00 00
	00		 mov	 edx, DWORD PTR ?group_database@@3PAUGROUP_DATA@@A[eax+32]
  003d6	89 11		 mov	 DWORD PTR [ecx], edx

; 230  : 			}
; 231  : 			else

  003d8	eb 0f		 jmp	 SHORT $LN10@create_loc
$LN9@create_loc:

; 232  : 			{
; 233  : 				raw->vh.mob.sub_type = group_database[group_sub_type].default_red_force_sub_type;

  003da	6b 45 f4 64	 imul	 eax, DWORD PTR _group_sub_type$[ebp], 100
  003de	8b 4d f8	 mov	 ecx, DWORD PTR _raw$[ebp]
  003e1	8b 90 24 00 00
	00		 mov	 edx, DWORD PTR ?group_database@@3PAUGROUP_DATA@@A[eax+36]
  003e7	89 11		 mov	 DWORD PTR [ecx], edx
$LN10@create_loc:

; 234  : 			}
; 235  : 		}
; 236  : 
; 237  : 		ASSERT (entity_sub_type_vehicle_valid (raw->vh.mob.sub_type));

  003e9	8b 45 f8	 mov	 eax, DWORD PTR _raw$[ebp]
  003ec	83 38 00	 cmp	 DWORD PTR [eax], 0
  003ef	7c 08		 jl	 SHORT $LN12@create_loc
  003f1	8b 45 f8	 mov	 eax, DWORD PTR _raw$[ebp]
  003f4	83 38 26	 cmp	 DWORD PTR [eax], 38	; 00000026H
  003f7	7c 1a		 jl	 SHORT $LN11@create_loc
$LN12@create_loc:
  003f9	a1 00 00 00 00	 mov	 eax, DWORD PTR ?__LINE__Var@?0??create_local@@YGPAUENTITY@@W4ENTITY_TYPES@@HPAD@Z@4JA
  003fe	05 9b 00 00 00	 add	 eax, 155		; 0000009bH
  00403	50		 push	 eax
  00404	68 00 00 00 00	 push	 OFFSET ??_C@_0FE@NPPJNBI@c?3?2users?2nhv90?2projects?2eech?2ap@
  00409	68 00 00 00 00	 push	 OFFSET ??_C@_0DF@HPCMHJPO@entity_sub_type_vehicle_valid?5?$CI@
  0040e	e8 00 00 00 00	 call	 ?process_assert@@YGXPBD0H@Z ; process_assert
$LN11@create_loc:

; 238  : 
; 239  : 		//
; 240  : 		// 3D shape
; 241  : 		//
; 242  : 
; 243  : 		if (raw->vh.object_3d_shape == OBJECT_3D_INVALID_OBJECT_INDEX)

  00413	8b 45 f8	 mov	 eax, DWORD PTR _raw$[ebp]
  00416	83 b8 80 00 00
	00 00		 cmp	 DWORD PTR [eax+128], 0
  0041d	75 18		 jne	 SHORT $LN13@create_loc

; 244  : 		{
; 245  : 			raw->vh.object_3d_shape = vehicle_database[raw->vh.mob.sub_type].default_3d_shape;

  0041f	8b 45 f8	 mov	 eax, DWORD PTR _raw$[ebp]
  00422	69 08 bc 00 00
	00		 imul	 ecx, DWORD PTR [eax], 188
  00428	8b 55 f8	 mov	 edx, DWORD PTR _raw$[ebp]
  0042b	8b 81 10 00 00
	00		 mov	 eax, DWORD PTR ?vehicle_database@@3PAUVEHICLE_DATA@@A[ecx+16]
  00431	89 82 80 00 00
	00		 mov	 DWORD PTR [edx+128], eax
$LN13@create_loc:

; 246  : 		}
; 247  : 
; 248  : 		//
; 249  : 		// weapon config
; 250  : 		//
; 251  : 
; 252  : 		if (raw->vh.weapon_config_type == WEAPON_CONFIG_TYPE_UNINITIALISED)

  00437	8b 45 f8	 mov	 eax, DWORD PTR _raw$[ebp]
  0043a	83 b8 14 01 00
	00 ff		 cmp	 DWORD PTR [eax+276], -1
  00441	75 18		 jne	 SHORT $LN14@create_loc

; 253  : 		{
; 254  : 			raw->vh.weapon_config_type = vehicle_database[raw->vh.mob.sub_type].default_weapon_config_type;

  00443	8b 45 f8	 mov	 eax, DWORD PTR _raw$[ebp]
  00446	69 08 bc 00 00
	00		 imul	 ecx, DWORD PTR [eax], 188
  0044c	8b 55 f8	 mov	 edx, DWORD PTR _raw$[ebp]
  0044f	8b 81 18 00 00
	00		 mov	 eax, DWORD PTR ?vehicle_database@@3PAUVEHICLE_DATA@@A[ecx+24]
  00455	89 82 14 01 00
	00		 mov	 DWORD PTR [edx+276], eax
$LN14@create_loc:

; 255  : 		}
; 256  : 
; 257  : 		ASSERT (weapon_config_type_valid (raw->vh.weapon_config_type));

  0045b	8b 45 f8	 mov	 eax, DWORD PTR _raw$[ebp]
  0045e	83 b8 14 01 00
	00 00		 cmp	 DWORD PTR [eax+276], 0
  00465	7c 0f		 jl	 SHORT $LN16@create_loc
  00467	8b 45 f8	 mov	 eax, DWORD PTR _raw$[ebp]
  0046a	81 b8 14 01 00
	00 cc 02 00 00	 cmp	 DWORD PTR [eax+276], 716 ; 000002ccH
  00474	7c 1a		 jl	 SHORT $LN15@create_loc
$LN16@create_loc:
  00476	a1 00 00 00 00	 mov	 eax, DWORD PTR ?__LINE__Var@?0??create_local@@YGPAUENTITY@@W4ENTITY_TYPES@@HPAD@Z@4JA
  0047b	05 af 00 00 00	 add	 eax, 175		; 000000afH
  00480	50		 push	 eax
  00481	68 00 00 00 00	 push	 OFFSET ??_C@_0FE@NPPJNBI@c?3?2users?2nhv90?2projects?2eech?2ap@
  00486	68 00 00 00 00	 push	 OFFSET ??_C@_0DG@BJPIFHJB@weapon_config_type_valid?5?$CIraw?9?$DO@
  0048b	e8 00 00 00 00	 call	 ?process_assert@@YGXPBD0H@Z ; process_assert
$LN15@create_loc:

; 258  : 
; 259  : 		//
; 260  : 		// damage levels
; 261  : 		//
; 262  : 
; 263  : 		raw->vh.damage_level = vehicle_database[raw->vh.mob.sub_type].initial_damage_level;

  00490	8b 45 f8	 mov	 eax, DWORD PTR _raw$[ebp]
  00493	69 08 bc 00 00
	00		 imul	 ecx, DWORD PTR [eax], 188
  00499	8b 55 f8	 mov	 edx, DWORD PTR _raw$[ebp]
  0049c	8b 81 a8 00 00
	00		 mov	 eax, DWORD PTR ?vehicle_database@@3PAUVEHICLE_DATA@@A[ecx+168]
  004a2	89 82 2c 01 00
	00		 mov	 DWORD PTR [edx+300], eax

; 264  : 
; 265  : 		//
; 266  : 		// radar dish rotation (ok to use a random number as this is for visual effect only)
; 267  : 		//
; 268  : 
; 269  : 		raw->vh.radar_rotation_state = frand1 ();

  004a8	69 05 00 00 00
	00 6d 4e c6 41	 imul	 eax, DWORD PTR ?random_number_seed@@3HA, 1103515245 ; random_number_seed
  004b2	05 39 30 00 00	 add	 eax, 12345		; 00003039H
  004b7	a3 00 00 00 00	 mov	 DWORD PTR ?random_number_seed@@3HA, eax ; random_number_seed
  004bc	8b 0d 00 00 00
	00		 mov	 ecx, DWORD PTR ?random_number_seed@@3HA ; random_number_seed
  004c2	c1 f9 10	 sar	 ecx, 16			; 00000010H
  004c5	81 e1 ff 7f 00
	00		 and	 ecx, 32767		; 00007fffH
  004cb	f2 0f 2a c1	 cvtsi2sd xmm0, ecx
  004cf	f2 0f 59 05 00
	00 00 00	 mulsd	 xmm0, QWORD PTR __real@3f00002000400080
  004d7	f2 0f 5a c0	 cvtsd2ss xmm0, xmm0
  004db	8b 55 f8	 mov	 edx, DWORD PTR _raw$[ebp]
  004de	f3 0f 11 82 f4
	00 00 00	 movss	 DWORD PTR [edx+244], xmm0

; 270  : 
; 271  : 		////////////////////////////////////////
; 272  : 		//
; 273  : 		// BUILD COMPONENTS
; 274  : 		//
; 275  : 		////////////////////////////////////////
; 276  : 
; 277  : 		//
; 278  : 		// 3D object
; 279  : 		//
; 280  : 
; 281  : 		raw->vh.inst3d = construct_3d_object (raw->vh.object_3d_shape);

  004e6	8b 45 f8	 mov	 eax, DWORD PTR _raw$[ebp]
  004e9	8b 88 80 00 00
	00		 mov	 ecx, DWORD PTR [eax+128]
  004ef	51		 push	 ecx
  004f0	e8 00 00 00 00	 call	 ?construct_3d_object@@YGPAUOBJECT_3D_INSTANCE@@H@Z ; construct_3d_object
  004f5	8b 55 f8	 mov	 edx, DWORD PTR _raw$[ebp]
  004f8	89 82 84 00 00
	00		 mov	 DWORD PTR [edx+132], eax

; 282  : 
; 283  : 		set_routed_vehicle_id_number (en);

  004fe	8b 45 fc	 mov	 eax, DWORD PTR _en$[ebp]
  00501	50		 push	 eax
  00502	e8 00 00 00 00	 call	 ?set_routed_vehicle_id_number@@YGXPAUENTITY@@@Z ; set_routed_vehicle_id_number

; 284  : 
; 285  : 		set_initial_rotation_angle_of_routed_vehicle_wheels (raw->vh.inst3d);

  00507	8b 45 f8	 mov	 eax, DWORD PTR _raw$[ebp]
  0050a	8b 88 84 00 00
	00		 mov	 ecx, DWORD PTR [eax+132]
  00510	51		 push	 ecx
  00511	e8 00 00 00 00	 call	 ?set_initial_rotation_angle_of_routed_vehicle_wheels@@YGHPAUOBJECT_3D_INSTANCE@@@Z ; set_initial_rotation_angle_of_routed_vehicle_wheels

; 286  : 
; 287  : 		//
; 288  : 		// align with terrain
; 289  : 		//
; 290  : 
; 291  : 		get_3d_terrain_point_data (raw->vh.mob.position.x, raw->vh.mob.position.z, &raw->vh.terrain_info);

  00516	8b 45 f8	 mov	 eax, DWORD PTR _raw$[ebp]
  00519	05 4c 01 00 00	 add	 eax, 332		; 0000014cH
  0051e	50		 push	 eax
  0051f	8b 4d f8	 mov	 ecx, DWORD PTR _raw$[ebp]
  00522	51		 push	 ecx
  00523	f3 0f 10 41 0c	 movss	 xmm0, DWORD PTR [ecx+12]
  00528	f3 0f 11 04 24	 movss	 DWORD PTR [esp], xmm0
  0052d	8b 55 f8	 mov	 edx, DWORD PTR _raw$[ebp]
  00530	51		 push	 ecx
  00531	f3 0f 10 42 04	 movss	 xmm0, DWORD PTR [edx+4]
  00536	f3 0f 11 04 24	 movss	 DWORD PTR [esp], xmm0
  0053b	e8 00 00 00 00	 call	 ?get_3d_terrain_point_data@@YGMMMPAUTERRAIN_3D_POINT_DATA@@@Z ; get_3d_terrain_point_data
  00540	dd d8		 fstp	 ST(0)

; 292  : 
; 293  : 		heading = get_heading_from_attitude_matrix (raw->vh.mob.attitude);

  00542	b8 0c 00 00 00	 mov	 eax, 12			; 0000000cH
  00547	d1 e0		 shl	 eax, 1
  00549	8b 4d f8	 mov	 ecx, DWORD PTR _raw$[ebp]
  0054c	8d 54 01 10	 lea	 edx, DWORD PTR [ecx+eax+16]
  00550	b8 04 00 00 00	 mov	 eax, 4
  00555	d1 e0		 shl	 eax, 1
  00557	51		 push	 ecx
  00558	f3 0f 10 04 02	 movss	 xmm0, DWORD PTR [edx+eax]
  0055d	f3 0f 11 04 24	 movss	 DWORD PTR [esp], xmm0
  00562	b9 0c 00 00 00	 mov	 ecx, 12			; 0000000cH
  00567	d1 e1		 shl	 ecx, 1
  00569	8b 55 f8	 mov	 edx, DWORD PTR _raw$[ebp]
  0056c	8d 44 0a 10	 lea	 eax, DWORD PTR [edx+ecx+16]
  00570	b9 04 00 00 00	 mov	 ecx, 4
  00575	6b d1 00	 imul	 edx, ecx, 0
  00578	51		 push	 ecx
  00579	f3 0f 10 04 10	 movss	 xmm0, DWORD PTR [eax+edx]
  0057e	f3 0f 11 04 24	 movss	 DWORD PTR [esp], xmm0
  00583	e8 00 00 00 00	 call	 ?atan2@@YGMMM@Z		; atan2
  00588	d9 5d f0	 fstp	 DWORD PTR _heading$[ebp]

; 294  : 
; 295  : 		face_normal = get_3d_terrain_point_data_normal (&raw->vh.terrain_info);

  0058b	8b 45 f8	 mov	 eax, DWORD PTR _raw$[ebp]
  0058e	05 4c 01 00 00	 add	 eax, 332		; 0000014cH
  00593	50		 push	 eax
  00594	e8 00 00 00 00	 call	 ?get_3d_terrain_point_data_normal@@YGPAUVEC3D@@PAUTERRAIN_3D_POINT_DATA@@@Z ; get_3d_terrain_point_data_normal
  00599	89 45 ec	 mov	 DWORD PTR _face_normal$[ebp], eax

; 296  : 
; 297  : 		get_3d_transformation_matrix_from_face_normal_and_heading (raw->vh.mob.attitude, face_normal, heading);

  0059c	51		 push	 ecx
  0059d	f3 0f 10 45 f0	 movss	 xmm0, DWORD PTR _heading$[ebp]
  005a2	f3 0f 11 04 24	 movss	 DWORD PTR [esp], xmm0
  005a7	8b 45 ec	 mov	 eax, DWORD PTR _face_normal$[ebp]
  005aa	50		 push	 eax
  005ab	8b 4d f8	 mov	 ecx, DWORD PTR _raw$[ebp]
  005ae	83 c1 10	 add	 ecx, 16			; 00000010H
  005b1	51		 push	 ecx
  005b2	e8 00 00 00 00	 call	 ?get_3d_transformation_matrix_from_face_normal_and_heading@@YGXQAY02MPBUVEC3D@@M@Z ; get_3d_transformation_matrix_from_face_normal_and_heading

; 298  : 
; 299  : 		//
; 300  : 		// weapon config
; 301  : 		//
; 302  : 
; 303  : 		raw->vh.weapon_package_status_array = (weapon_package_status *) malloc_fast_mem (SIZE_WEAPON_PACKAGE_STATUS_ARRAY);

  005b7	68 00 02 00 00	 push	 512			; 00000200H
  005bc	e8 00 00 00 00	 call	 ?malloc_fast_memory@@YGPAXI@Z ; malloc_fast_memory
  005c1	8b 4d f8	 mov	 ecx, DWORD PTR _raw$[ebp]
  005c4	89 81 18 01 00
	00		 mov	 DWORD PTR [ecx+280], eax

; 304  : 
; 305  : 		memset (raw->vh.weapon_package_status_array, 0, SIZE_WEAPON_PACKAGE_STATUS_ARRAY);

  005ca	68 00 02 00 00	 push	 512			; 00000200H
  005cf	6a 00		 push	 0
  005d1	8b 45 f8	 mov	 eax, DWORD PTR _raw$[ebp]
  005d4	8b 88 18 01 00
	00		 mov	 ecx, DWORD PTR [eax+280]
  005da	51		 push	 ecx
  005db	e8 00 00 00 00	 call	 _memset
  005e0	83 c4 0c	 add	 esp, 12			; 0000000cH

; 306  : 
; 307  : 		load_local_entity_weapon_config (en);

  005e3	8b 45 fc	 mov	 eax, DWORD PTR _en$[ebp]
  005e6	50		 push	 eax
  005e7	e8 00 00 00 00	 call	 ?load_local_entity_weapon_config@@YGXPAUENTITY@@@Z ; load_local_entity_weapon_config

; 308  : 
; 309  : 		//
; 310  : 		// update force info
; 311  : 		//
; 312  : 
; 313  : 		add_to_force_info (get_local_force_entity ((entity_sides) raw->vh.mob.side), en);

  005ec	8b 45 fc	 mov	 eax, DWORD PTR _en$[ebp]
  005ef	50		 push	 eax
  005f0	8b 4d f8	 mov	 ecx, DWORD PTR _raw$[ebp]
  005f3	8b 51 7c	 mov	 edx, DWORD PTR [ecx+124]
  005f6	d1 ea		 shr	 edx, 1
  005f8	83 e2 03	 and	 edx, 3
  005fb	52		 push	 edx
  005fc	e8 00 00 00 00	 call	 ?get_local_force_entity@@YGPAUENTITY@@W4ENTITY_SIDES@@@Z ; get_local_force_entity
  00601	50		 push	 eax
  00602	e8 00 00 00 00	 call	 ?add_to_force_info@@YGXPAUENTITY@@0@Z ; add_to_force_info

; 314  : 
; 315  : 		////////////////////////////////////////
; 316  : 		//
; 317  : 		// LINK INTO SYSTEM
; 318  : 		//
; 319  : 		////////////////////////////////////////
; 320  : 
; 321  : 		insert_local_entity_into_parents_child_list (en, LIST_TYPE_MEMBER, raw->vh.member_link.parent, raw->vh.member_link.child_pred);

  00607	8b 45 f8	 mov	 eax, DWORD PTR _raw$[ebp]
  0060a	8b 88 c0 00 00
	00		 mov	 ecx, DWORD PTR [eax+192]
  00610	51		 push	 ecx
  00611	8b 55 f8	 mov	 edx, DWORD PTR _raw$[ebp]
  00614	8b 82 b8 00 00
	00		 mov	 eax, DWORD PTR [edx+184]
  0061a	50		 push	 eax
  0061b	6a 19		 push	 25			; 00000019H
  0061d	8b 4d fc	 mov	 ecx, DWORD PTR _en$[ebp]
  00620	51		 push	 ecx
  00621	e8 00 00 00 00	 call	 ?insert_local_entity_into_parents_child_list@@YGXPAUENTITY@@W4LIST_TYPES@@00@Z ; insert_local_entity_into_parents_child_list

; 322  : 
; 323  : 		//
; 324  : 		// insert into LIST_TYPE_MEMBER before LIST_TYPE_VIEW
; 325  : 		//
; 326  : 
; 327  : 		insert_local_entity_into_parents_child_list (en, LIST_TYPE_VIEW, get_camera_entity (), get_local_entity_view_list_pred (en));

  00626	8b 45 fc	 mov	 eax, DWORD PTR _en$[ebp]
  00629	50		 push	 eax
  0062a	e8 00 00 00 00	 call	 ?get_local_entity_view_list_pred@@YGPAUENTITY@@PAU1@@Z ; get_local_entity_view_list_pred
  0062f	50		 push	 eax
  00630	8b 0d 00 00 00
	00		 mov	 ecx, DWORD PTR ?camera_entity@@3PAUENTITY@@A ; camera_entity
  00636	51		 push	 ecx
  00637	6a 2a		 push	 42			; 0000002aH
  00639	8b 55 fc	 mov	 edx, DWORD PTR _en$[ebp]
  0063c	52		 push	 edx
  0063d	e8 00 00 00 00	 call	 ?insert_local_entity_into_parents_child_list@@YGXPAUENTITY@@W4LIST_TYPES@@00@Z ; insert_local_entity_into_parents_child_list

; 328  : 
; 329  : 		insert_local_entity_into_parents_child_list (en, LIST_TYPE_SECTOR, get_local_sector_entity (&raw->vh.mob.position), NULL);

  00642	6a 00		 push	 0
  00644	8b 45 f8	 mov	 eax, DWORD PTR _raw$[ebp]
  00647	83 c0 04	 add	 eax, 4
  0064a	50		 push	 eax
  0064b	e8 00 00 00 00	 call	 ?get_local_sector_entity@@YGPAUENTITY@@PAUVEC3D@@@Z ; get_local_sector_entity
  00650	50		 push	 eax
  00651	6a 21		 push	 33			; 00000021H
  00653	8b 4d fc	 mov	 ecx, DWORD PTR _en$[ebp]
  00656	51		 push	 ecx
  00657	e8 00 00 00 00	 call	 ?insert_local_entity_into_parents_child_list@@YGXPAUENTITY@@W4LIST_TYPES@@00@Z ; insert_local_entity_into_parents_child_list

; 330  : 
; 331  : 		insert_local_entity_into_parents_child_list (en, LIST_TYPE_UPDATE, get_update_entity (), NULL);

  0065c	6a 00		 push	 0
  0065e	a1 00 00 00 00	 mov	 eax, DWORD PTR ?update_entity@@3PAUENTITY@@A ; update_entity
  00663	50		 push	 eax
  00664	6a 29		 push	 41			; 00000029H
  00666	8b 4d fc	 mov	 ecx, DWORD PTR _en$[ebp]
  00669	51		 push	 ecx
  0066a	e8 00 00 00 00	 call	 ?insert_local_entity_into_parents_child_list@@YGXPAUENTITY@@W4LIST_TYPES@@00@Z ; insert_local_entity_into_parents_child_list

; 332  : 
; 333  : 		if (tacview_is_logging())

  0066f	83 3d 00 00 00
	00 00		 cmp	 DWORD PTR ?tacview_log_file@@3PAU_iobuf@@A, 0 ; tacview_log_file
  00676	74 09		 je	 SHORT $LN17@create_loc

; 334  : 			write_tacview_new_unit(en);

  00678	8b 45 fc	 mov	 eax, DWORD PTR _en$[ebp]
  0067b	50		 push	 eax
  0067c	e8 00 00 00 00	 call	 ?write_tacview_new_unit@@YGXPAUENTITY@@@Z ; write_tacview_new_unit
$LN17@create_loc:

; 335  : 	}
; 336  : 
; 337  : 	return (en);

  00681	8b 45 fc	 mov	 eax, DWORD PTR _en$[ebp]

; 338  : }

  00684	5f		 pop	 edi
  00685	5e		 pop	 esi
  00686	5b		 pop	 ebx
  00687	8b e5		 mov	 esp, ebp
  00689	5d		 pop	 ebp
  0068a	c2 0c 00	 ret	 12			; 0000000cH
?create_local@@YGPAUENTITY@@W4ENTITY_TYPES@@HPAD@Z ENDP	; create_local
_TEXT	ENDS
; Function compile flags: /Odtp /ZI
; File c:\users\nhv90\projects\eech\aphavoc\source\entity\mobile\vehicle\routed\rv_creat.c
;	COMDAT ?create_local_entity_routed_vehicle@@YGPAUENTITY@@HHPAU1@PAUVEC3D@@@Z
_TEXT	SEGMENT
_new_entity$ = -4					; size = 4
_index$ = 8						; size = 4
_sub_type$ = 12						; size = 4
_group$ = 16						; size = 4
_position$ = 20						; size = 4
?create_local_entity_routed_vehicle@@YGPAUENTITY@@HHPAU1@PAUVEC3D@@@Z PROC ; create_local_entity_routed_vehicle, COMDAT

; 524  : {

  00000	55		 push	 ebp
  00001	8b ec		 mov	 ebp, esp
  00003	83 ec 44	 sub	 esp, 68			; 00000044H
  00006	53		 push	 ebx
  00007	56		 push	 esi
  00008	57		 push	 edi

; 525  : 	entity
; 526  : 		*new_entity;
; 527  : 
; 528  : 	ASSERT (get_comms_model() == COMMS_MODEL_SERVER);

  00009	83 3d 00 00 00
	00 00		 cmp	 DWORD PTR ?system_comms_model@@3W4COMMS_MODEL_TYPES@@A, 0 ; system_comms_model
  00010	74 18		 je	 SHORT $LN2@create_loc
  00012	a1 00 00 00 00	 mov	 eax, DWORD PTR ?__LINE__Var@?0??create_local_entity_routed_vehicle@@YGPAUENTITY@@HHPAU2@PAUVEC3D@@@Z@4JA
  00017	83 c0 04	 add	 eax, 4
  0001a	50		 push	 eax
  0001b	68 00 00 00 00	 push	 OFFSET ??_C@_0FE@NPPJNBI@c?3?2users?2nhv90?2projects?2eech?2ap@
  00020	68 00 00 00 00	 push	 OFFSET ??_C@_0CI@NLFHFOLH@get_comms_model?$CI?$CJ?5?$DN?$DN?5COMMS_MODE@
  00025	e8 00 00 00 00	 call	 ?process_assert@@YGXPBD0H@Z ; process_assert
$LN2@create_loc:

; 529  : 
; 530  : 	//
; 531  : 	// create routed entity
; 532  : 	//
; 533  : 
; 534  : 	new_entity = create_local_entity

  0002a	6a 00		 push	 0
  0002c	8b 45 14	 mov	 eax, DWORD PTR _position$[ebp]
  0002f	f3 0f 10 40 08	 movss	 xmm0, DWORD PTR [eax+8]
  00034	f3 0f 5a c0	 cvtss2sd xmm0, xmm0
  00038	83 ec 08	 sub	 esp, 8
  0003b	f2 0f 11 04 24	 movsd	 QWORD PTR [esp], xmm0
  00040	8b 4d 14	 mov	 ecx, DWORD PTR _position$[ebp]
  00043	f3 0f 10 41 04	 movss	 xmm0, DWORD PTR [ecx+4]
  00048	f3 0f 5a c0	 cvtss2sd xmm0, xmm0
  0004c	83 ec 08	 sub	 esp, 8
  0004f	f2 0f 11 04 24	 movsd	 QWORD PTR [esp], xmm0
  00054	8b 55 14	 mov	 edx, DWORD PTR _position$[ebp]
  00057	f3 0f 10 02	 movss	 xmm0, DWORD PTR [edx]
  0005b	f3 0f 5a c0	 cvtss2sd xmm0, xmm0
  0005f	83 ec 08	 sub	 esp, 8
  00062	f2 0f 11 04 24	 movsd	 QWORD PTR [esp], xmm0
  00067	6a 08		 push	 8
  00069	6a 09		 push	 9
  0006b	8b 45 0c	 mov	 eax, DWORD PTR _sub_type$[ebp]
  0006e	50		 push	 eax
  0006f	6a 34		 push	 52			; 00000034H
  00071	6a 05		 push	 5
  00073	8b 4d 10	 mov	 ecx, DWORD PTR _group$[ebp]
  00076	51		 push	 ecx
  00077	6a 19		 push	 25			; 00000019H
  00079	6a 06		 push	 6
  0007b	8b 55 08	 mov	 edx, DWORD PTR _index$[ebp]
  0007e	52		 push	 edx
  0007f	6a 17		 push	 23			; 00000017H
  00081	e8 00 00 00 00	 call	 ?create_local_entity@@YAPAUENTITY@@W4ENTITY_TYPES@@HZZ ; create_local_entity
  00086	83 c4 44	 add	 esp, 68			; 00000044H
  00089	89 45 fc	 mov	 DWORD PTR _new_entity$[ebp], eax

; 535  : 	(
; 536  : 		ENTITY_TYPE_ROUTED_VEHICLE,
; 537  : 		index,
; 538  : 		ENTITY_ATTR_PARENT (LIST_TYPE_MEMBER, group),
; 539  : 		ENTITY_ATTR_INT_VALUE (INT_TYPE_ENTITY_SUB_TYPE, sub_type),
; 540  : 		ENTITY_ATTR_VEC3D (VEC3D_TYPE_POSITION, position->x, position->y, position->z),
; 541  : 		ENTITY_ATTR_END
; 542  : 	);
; 543  : 
; 544  : 	//
; 545  : 	// create and attach special effects
; 546  : 	//
; 547  : 
; 548  : 	//
; 549  : 	//
; 550  : 	//
; 551  : 
; 552  : 	return new_entity;

  0008c	8b 45 fc	 mov	 eax, DWORD PTR _new_entity$[ebp]

; 553  : }

  0008f	5f		 pop	 edi
  00090	5e		 pop	 esi
  00091	5b		 pop	 ebx
  00092	8b e5		 mov	 esp, ebp
  00094	5d		 pop	 ebp
  00095	c2 10 00	 ret	 16			; 00000010H
?create_local_entity_routed_vehicle@@YGPAUENTITY@@HHPAU1@PAUVEC3D@@@Z ENDP ; create_local_entity_routed_vehicle
_TEXT	ENDS
; Function compile flags: /Odtp /ZI
; File c:\users\nhv90\projects\eech\aphavoc\source\entity\mobile\vehicle\routed\rv_creat.c
;	COMDAT ?create_client_server_entity_routed_vehicle@@YGPAUENTITY@@HHPAU1@PAUVEC3D@@@Z
_TEXT	SEGMENT
_sample_index$ = -8					; size = 4
_new_entity$ = -4					; size = 4
_index$ = 8						; size = 4
_sub_type$ = 12						; size = 4
_group$ = 16						; size = 4
_position$ = 20						; size = 4
?create_client_server_entity_routed_vehicle@@YGPAUENTITY@@HHPAU1@PAUVEC3D@@@Z PROC ; create_client_server_entity_routed_vehicle, COMDAT

; 425  : {

  00000	55		 push	 ebp
  00001	8b ec		 mov	 ebp, esp
  00003	83 ec 48	 sub	 esp, 72			; 00000048H
  00006	53		 push	 ebx
  00007	56		 push	 esi
  00008	57		 push	 edi

; 426  : 	entity
; 427  : 		*new_entity;
; 428  : 
; 429  : 	sound_sample_indices
; 430  : 		sample_index;
; 431  : 
; 432  : 	ASSERT (get_comms_model() == COMMS_MODEL_SERVER);

  00009	83 3d 00 00 00
	00 00		 cmp	 DWORD PTR ?system_comms_model@@3W4COMMS_MODEL_TYPES@@A, 0 ; system_comms_model
  00010	74 18		 je	 SHORT $LN2@create_cli
  00012	a1 00 00 00 00	 mov	 eax, DWORD PTR ?__LINE__Var@?0??create_client_server_entity_routed_vehicle@@YGPAUENTITY@@HHPAU2@PAUVEC3D@@@Z@4JA
  00017	83 c0 07	 add	 eax, 7
  0001a	50		 push	 eax
  0001b	68 00 00 00 00	 push	 OFFSET ??_C@_0FE@NPPJNBI@c?3?2users?2nhv90?2projects?2eech?2ap@
  00020	68 00 00 00 00	 push	 OFFSET ??_C@_0CI@NLFHFOLH@get_comms_model?$CI?$CJ?5?$DN?$DN?5COMMS_MODE@
  00025	e8 00 00 00 00	 call	 ?process_assert@@YGXPBD0H@Z ; process_assert
$LN2@create_cli:

; 433  : 
; 434  : 	//
; 435  : 	// create routed entity
; 436  : 	//
; 437  : 
; 438  : 	new_entity = create_client_server_entity

  0002a	6a 00		 push	 0
  0002c	8b 45 14	 mov	 eax, DWORD PTR _position$[ebp]
  0002f	f3 0f 10 40 08	 movss	 xmm0, DWORD PTR [eax+8]
  00034	f3 0f 5a c0	 cvtss2sd xmm0, xmm0
  00038	83 ec 08	 sub	 esp, 8
  0003b	f2 0f 11 04 24	 movsd	 QWORD PTR [esp], xmm0
  00040	8b 4d 14	 mov	 ecx, DWORD PTR _position$[ebp]
  00043	f3 0f 10 41 04	 movss	 xmm0, DWORD PTR [ecx+4]
  00048	f3 0f 5a c0	 cvtss2sd xmm0, xmm0
  0004c	83 ec 08	 sub	 esp, 8
  0004f	f2 0f 11 04 24	 movsd	 QWORD PTR [esp], xmm0
  00054	8b 55 14	 mov	 edx, DWORD PTR _position$[ebp]
  00057	f3 0f 10 02	 movss	 xmm0, DWORD PTR [edx]
  0005b	f3 0f 5a c0	 cvtss2sd xmm0, xmm0
  0005f	83 ec 08	 sub	 esp, 8
  00062	f2 0f 11 04 24	 movsd	 QWORD PTR [esp], xmm0
  00067	6a 08		 push	 8
  00069	6a 09		 push	 9
  0006b	8b 45 0c	 mov	 eax, DWORD PTR _sub_type$[ebp]
  0006e	50		 push	 eax
  0006f	6a 34		 push	 52			; 00000034H
  00071	6a 05		 push	 5
  00073	8b 4d 10	 mov	 ecx, DWORD PTR _group$[ebp]
  00076	51		 push	 ecx
  00077	6a 19		 push	 25			; 00000019H
  00079	6a 06		 push	 6
  0007b	8b 55 08	 mov	 edx, DWORD PTR _index$[ebp]
  0007e	52		 push	 edx
  0007f	6a 17		 push	 23			; 00000017H
  00081	e8 00 00 00 00	 call	 ?create_client_server_entity@@YAPAUENTITY@@W4ENTITY_TYPES@@HZZ ; create_client_server_entity
  00086	83 c4 44	 add	 esp, 68			; 00000044H
  00089	89 45 fc	 mov	 DWORD PTR _new_entity$[ebp], eax

; 439  : 	(
; 440  : 		ENTITY_TYPE_ROUTED_VEHICLE,
; 441  : 		index,
; 442  : 		ENTITY_ATTR_PARENT (LIST_TYPE_MEMBER, group),
; 443  : 		ENTITY_ATTR_INT_VALUE (INT_TYPE_ENTITY_SUB_TYPE, sub_type),
; 444  : 		ENTITY_ATTR_VEC3D (VEC3D_TYPE_POSITION, position->x, position->y, position->z),
; 445  : 		ENTITY_ATTR_END
; 446  : 	);
; 447  : 
; 448  : 	//
; 449  : 	// create and attach special effects
; 450  : 	//
; 451  : 
; 452  : 	{
; 453  : 		//
; 454  : 		// dust trails
; 455  : 		//
; 456  : 
; 457  : 		attach_routed_vehicle_meta_smoke_lists (new_entity);

  0008c	8b 45 fc	 mov	 eax, DWORD PTR _new_entity$[ebp]
  0008f	50		 push	 eax
  00090	e8 00 00 00 00	 call	 ?attach_routed_vehicle_meta_smoke_lists@@YGXPAUENTITY@@@Z ; attach_routed_vehicle_meta_smoke_lists

; 458  : 
; 459  : 		//
; 460  : 		// headlights
; 461  : 		//
; 462  : 
; 463  : 		set_vehicle_headlight_state (new_entity, OFF);

  00095	6a 00		 push	 0
  00097	8b 45 fc	 mov	 eax, DWORD PTR _new_entity$[ebp]
  0009a	50		 push	 eax
  0009b	e8 00 00 00 00	 call	 ?set_vehicle_headlight_state@@YGXPAUENTITY@@H@Z ; set_vehicle_headlight_state

; 464  : 
; 465  : 		//
; 466  : 		// sound effects
; 467  : 		//
; 468  : 
; 469  : 		sample_index = vehicle_database [sub_type].idle_sound_effect;

  000a0	69 45 0c bc 00
	00 00		 imul	 eax, DWORD PTR _sub_type$[ebp], 188
  000a7	8b 88 b4 00 00
	00		 mov	 ecx, DWORD PTR ?vehicle_database@@3PAUVEHICLE_DATA@@A[eax+180]
  000ad	89 4d f8	 mov	 DWORD PTR _sample_index$[ebp], ecx

; 470  : 
; 471  : 		if (sample_index != SOUND_SAMPLE_INDEX_NONE)

  000b0	83 7d f8 00	 cmp	 DWORD PTR _sample_index$[ebp], 0
  000b4	74 39		 je	 SHORT $LN3@create_cli

; 472  : 		{
; 473  : 			create_client_server_sound_effect_entity

  000b6	8d 45 f8	 lea	 eax, DWORD PTR _sample_index$[ebp]
  000b9	50		 push	 eax
  000ba	6a 01		 push	 1
  000bc	6a 01		 push	 1
  000be	6a 01		 push	 1
  000c0	51		 push	 ecx
  000c1	f3 0f 10 05 00
	00 00 00	 movss	 xmm0, DWORD PTR __real@3f800000
  000c9	f3 0f 11 04 24	 movss	 DWORD PTR [esp], xmm0
  000ce	51		 push	 ecx
  000cf	f3 0f 10 05 00
	00 00 00	 movss	 xmm0, DWORD PTR __real@3f800000
  000d7	f3 0f 11 04 24	 movss	 DWORD PTR [esp], xmm0
  000dc	6a 00		 push	 0
  000de	6a 00		 push	 0
  000e0	6a 00		 push	 0
  000e2	6a 15		 push	 21			; 00000015H
  000e4	6a 00		 push	 0
  000e6	8b 4d fc	 mov	 ecx, DWORD PTR _new_entity$[ebp]
  000e9	51		 push	 ecx
  000ea	e8 00 00 00 00	 call	 ?create_client_server_sound_effect_entity@@YGPAUENTITY@@PAU1@W4ENTITY_SIDES@@HW4SOUND_CHANNEL_TYPES@@W4SOUND_LOCALITY_TYPES@@PAUVEC3D@@MMHHHPAH@Z ; create_client_server_sound_effect_entity
$LN3@create_cli:

; 474  : 			(
; 475  : 				new_entity,
; 476  : 				ENTITY_SIDE_NEUTRAL,
; 477  : 				ENTITY_SUB_TYPE_EFFECT_SOUND_ENGINE_LOOPING1,
; 478  : 				SOUND_CHANNEL_SOUND_EFFECT,
; 479  : 				SOUND_LOCALITY_ALL,
; 480  : 				NULL,												// position
; 481  : 				1.0,												// amplification
; 482  : 				1.0,												// Werewolf pitch
; 483  : 				TRUE,												// valid sound effect
; 484  : 				TRUE,												// looping
; 485  : 				1,													// sample count
; 486  : 				&sample_index									// sample index list
; 487  : 			);
; 488  : 		}
; 489  : 
; 490  : 		sample_index = vehicle_database [sub_type].moving_sound_effect;

  000ef	69 45 0c bc 00
	00 00		 imul	 eax, DWORD PTR _sub_type$[ebp], 188
  000f6	8b 88 b8 00 00
	00		 mov	 ecx, DWORD PTR ?vehicle_database@@3PAUVEHICLE_DATA@@A[eax+184]
  000fc	89 4d f8	 mov	 DWORD PTR _sample_index$[ebp], ecx

; 491  : 
; 492  : 		if (sample_index != SOUND_SAMPLE_INDEX_NONE)

  000ff	83 7d f8 00	 cmp	 DWORD PTR _sample_index$[ebp], 0
  00103	74 39		 je	 SHORT $LN4@create_cli

; 493  : 		{
; 494  : 			create_client_server_sound_effect_entity

  00105	8d 45 f8	 lea	 eax, DWORD PTR _sample_index$[ebp]
  00108	50		 push	 eax
  00109	6a 01		 push	 1
  0010b	6a 01		 push	 1
  0010d	6a 00		 push	 0
  0010f	51		 push	 ecx
  00110	f3 0f 10 05 00
	00 00 00	 movss	 xmm0, DWORD PTR __real@3f800000
  00118	f3 0f 11 04 24	 movss	 DWORD PTR [esp], xmm0
  0011d	51		 push	 ecx
  0011e	f3 0f 10 05 00
	00 00 00	 movss	 xmm0, DWORD PTR __real@3f800000
  00126	f3 0f 11 04 24	 movss	 DWORD PTR [esp], xmm0
  0012b	6a 00		 push	 0
  0012d	6a 00		 push	 0
  0012f	6a 00		 push	 0
  00131	6a 16		 push	 22			; 00000016H
  00133	6a 00		 push	 0
  00135	8b 4d fc	 mov	 ecx, DWORD PTR _new_entity$[ebp]
  00138	51		 push	 ecx
  00139	e8 00 00 00 00	 call	 ?create_client_server_sound_effect_entity@@YGPAUENTITY@@PAU1@W4ENTITY_SIDES@@HW4SOUND_CHANNEL_TYPES@@W4SOUND_LOCALITY_TYPES@@PAUVEC3D@@MMHHHPAH@Z ; create_client_server_sound_effect_entity
$LN4@create_cli:

; 495  : 			(
; 496  : 				new_entity,
; 497  : 				ENTITY_SIDE_NEUTRAL,
; 498  : 				ENTITY_SUB_TYPE_EFFECT_SOUND_ENGINE_LOOPING2,
; 499  : 				SOUND_CHANNEL_SOUND_EFFECT,
; 500  : 				SOUND_LOCALITY_ALL,
; 501  : 				NULL,												// position
; 502  : 				1.0,												// amplification
; 503  : 				1.0,												// Werewolf pitch
; 504  : 				FALSE,											// valid sound effect
; 505  : 				TRUE,												// looping
; 506  : 				1,													// sample count
; 507  : 				&sample_index									// sample index list
; 508  : 			);
; 509  : 		}
; 510  : 	}
; 511  : 
; 512  : 	//
; 513  : 	//
; 514  : 	//
; 515  : 
; 516  : 	return new_entity;

  0013e	8b 45 fc	 mov	 eax, DWORD PTR _new_entity$[ebp]

; 517  : }

  00141	5f		 pop	 edi
  00142	5e		 pop	 esi
  00143	5b		 pop	 ebx
  00144	8b e5		 mov	 esp, ebp
  00146	5d		 pop	 ebp
  00147	c2 10 00	 ret	 16			; 00000010H
?create_client_server_entity_routed_vehicle@@YGPAUENTITY@@HHPAU1@PAUVEC3D@@@Z ENDP ; create_client_server_entity_routed_vehicle
_TEXT	ENDS
; Function compile flags: /Odtp /ZI
; File c:\users\nhv90\projects\eech\aphavoc\source\entity\mobile\vehicle\routed\rv_creat.c
;	COMDAT ?overload_routed_vehicle_create_functions@@YGXXZ
_TEXT	SEGMENT
?overload_routed_vehicle_create_functions@@YGXXZ PROC	; overload_routed_vehicle_create_functions, COMDAT

; 412  : {

  00000	55		 push	 ebp
  00001	8b ec		 mov	 ebp, esp
  00003	83 ec 40	 sub	 esp, 64			; 00000040H
  00006	53		 push	 ebx
  00007	56		 push	 esi
  00008	57		 push	 edi

; 413  : 	fn_create_local_entity[ENTITY_TYPE_ROUTED_VEHICLE]		  								= create_local;

  00009	b8 04 00 00 00	 mov	 eax, 4
  0000e	6b c8 17	 imul	 ecx, eax, 23
  00011	c7 81 00 00 00
	00 00 00 00 00	 mov	 DWORD PTR ?fn_create_local_entity@@3PAP6GPAUENTITY@@W4ENTITY_TYPES@@HPAD@ZA[ecx], OFFSET ?create_local@@YGPAUENTITY@@W4ENTITY_TYPES@@HPAD@Z ; create_local

; 414  : 
; 415  : 	fn_create_client_server_entity[ENTITY_TYPE_ROUTED_VEHICLE][COMMS_MODEL_SERVER]	= create_server;

  0001b	b8 08 00 00 00	 mov	 eax, 8
  00020	6b c8 17	 imul	 ecx, eax, 23
  00023	ba 04 00 00 00	 mov	 edx, 4
  00028	6b c2 00	 imul	 eax, edx, 0
  0002b	c7 84 01 00 00
	00 00 00 00 00
	00		 mov	 DWORD PTR ?fn_create_client_server_entity@@3PAY01P6GPAUENTITY@@W4ENTITY_TYPES@@HPAD@ZA[ecx+eax], OFFSET ?create_server@@YGPAUENTITY@@W4ENTITY_TYPES@@HPAD@Z ; create_server

; 416  : 
; 417  : 	fn_create_client_server_entity[ENTITY_TYPE_ROUTED_VEHICLE][COMMS_MODEL_CLIENT]	= create_client;

  00036	b8 08 00 00 00	 mov	 eax, 8
  0003b	6b c8 17	 imul	 ecx, eax, 23
  0003e	ba 04 00 00 00	 mov	 edx, 4
  00043	c1 e2 00	 shl	 edx, 0
  00046	c7 84 11 00 00
	00 00 00 00 00
	00		 mov	 DWORD PTR ?fn_create_client_server_entity@@3PAY01P6GPAUENTITY@@W4ENTITY_TYPES@@HPAD@ZA[ecx+edx], OFFSET ?create_client@@YGPAUENTITY@@W4ENTITY_TYPES@@HPAD@Z ; create_client

; 418  : }

  00051	5f		 pop	 edi
  00052	5e		 pop	 esi
  00053	5b		 pop	 ebx
  00054	8b e5		 mov	 esp, ebp
  00056	5d		 pop	 ebp
  00057	c3		 ret	 0
?overload_routed_vehicle_create_functions@@YGXXZ ENDP	; overload_routed_vehicle_create_functions
_TEXT	ENDS
; Function compile flags: /Odtp /ZI
; File c:\program files (x86)\microsoft visual studio\2017\community\vc\tools\msvc\14.16.27023\include\cmath
;	COMDAT ?atan2@@YGMMM@Z
_TEXT	SEGMENT
__Yx$ = 8						; size = 4
__Xx$ = 12						; size = 4
?atan2@@YGMMM@Z PROC					; atan2, COMDAT

; 56   : 	{

  00000	55		 push	 ebp
  00001	8b ec		 mov	 ebp, esp
  00003	83 ec 40	 sub	 esp, 64			; 00000040H
  00006	53		 push	 ebx
  00007	56		 push	 esi
  00008	57		 push	 edi

; 57   : 	return (_CSTD atan2f(_Yx, _Xx));

  00009	51		 push	 ecx
  0000a	f3 0f 10 45 0c	 movss	 xmm0, DWORD PTR __Xx$[ebp]
  0000f	f3 0f 11 04 24	 movss	 DWORD PTR [esp], xmm0
  00014	51		 push	 ecx
  00015	f3 0f 10 45 08	 movss	 xmm0, DWORD PTR __Yx$[ebp]
  0001a	f3 0f 11 04 24	 movss	 DWORD PTR [esp], xmm0
  0001f	e8 00 00 00 00	 call	 _atan2f
  00024	83 c4 08	 add	 esp, 8

; 58   : 	}

  00027	5f		 pop	 edi
  00028	5e		 pop	 esi
  00029	5b		 pop	 ebx
  0002a	8b e5		 mov	 esp, ebp
  0002c	5d		 pop	 ebp
  0002d	c2 08 00	 ret	 8
?atan2@@YGMMM@Z ENDP					; atan2
_TEXT	ENDS
; Function compile flags: /Odtp /ZI
; File c:\program files (x86)\windows kits\10\include\10.0.18362.0\ucrt\corecrt_math.h
;	COMDAT _atan2f
_TEXT	SEGMENT
tv74 = -68						; size = 4
__Y$ = 8						; size = 4
__X$ = 12						; size = 4
_atan2f	PROC						; COMDAT

; 633  :         {

  00000	55		 push	 ebp
  00001	8b ec		 mov	 ebp, esp
  00003	83 ec 44	 sub	 esp, 68			; 00000044H
  00006	53		 push	 ebx
  00007	56		 push	 esi
  00008	57		 push	 edi

; 634  :             return (float)atan2(_Y, _X);

  00009	f3 0f 5a 45 0c	 cvtss2sd xmm0, DWORD PTR __X$[ebp]
  0000e	83 ec 08	 sub	 esp, 8
  00011	f2 0f 11 04 24	 movsd	 QWORD PTR [esp], xmm0
  00016	f3 0f 5a 45 08	 cvtss2sd xmm0, DWORD PTR __Y$[ebp]
  0001b	83 ec 08	 sub	 esp, 8
  0001e	f2 0f 11 04 24	 movsd	 QWORD PTR [esp], xmm0
  00023	e8 00 00 00 00	 call	 _atan2
  00028	83 c4 10	 add	 esp, 16			; 00000010H
  0002b	d9 5d bc	 fstp	 DWORD PTR tv74[ebp]
  0002e	d9 45 bc	 fld	 DWORD PTR tv74[ebp]

; 635  :         }

  00031	5f		 pop	 edi
  00032	5e		 pop	 esi
  00033	5b		 pop	 ebx
  00034	8b e5		 mov	 esp, ebp
  00036	5d		 pop	 ebp
  00037	c3		 ret	 0
_atan2f	ENDP
_TEXT	ENDS
END
