; Listing generated by Microsoft (R) Optimizing Compiler Version 19.16.27045.0 

	TITLE	C:\Users\nhv90\Projects\eech\aphavoc\source\entity\mobile\vehicle\routed\rv_dstry.c
	.686P
	.XMM
	include listing.inc
	.model	flat

INCLUDELIB MSVCRTD
INCLUDELIB OLDNAMES

PUBLIC	?overload_routed_vehicle_destroy_functions@@YGXXZ ; overload_routed_vehicle_destroy_functions
PUBLIC	?__LINE__Var@?0??destroy_local@@YGXPAUENTITY@@@Z@4JA ; `destroy_local'::`1'::__LINE__Var
PUBLIC	??_C@_0FE@LMONHLAE@c?3?2users?2nhv90?2projects?2eech?2ap@ ; `string'
PUBLIC	?__LINE__Var@?0??destroy_server@@YGXPAUENTITY@@@Z@4JA ; `destroy_server'::`1'::__LINE__Var
PUBLIC	??_C@_0CC@BNNNEGEG@assert_client_server_remote_fn?5@ ; `string'
PUBLIC	??_C@_0CB@CFOCLFOK@assert_client_server_local_fn?5?$CI@ ; `string'
PUBLIC	?__LINE__Var@?0??destroy_client@@YGXPAUENTITY@@@Z@4JA ; `destroy_client'::`1'::__LINE__Var
PUBLIC	?__LINE__Var@?0??destroy_server_family@@YGXPAUENTITY@@@Z@4JA ; `destroy_server_family'::`1'::__LINE__Var
PUBLIC	?__LINE__Var@?0??kill_local@@YGXPAUENTITY@@@Z@4JA ; `kill_local'::`1'::__LINE__Var
PUBLIC	??_C@_05MGJOOGAJ@group@				; `string'
PUBLIC	?__LINE__Var@?0??kill_server@@YGXPAUENTITY@@@Z@4JA ; `kill_server'::`1'::__LINE__Var
PUBLIC	?__LINE__Var@?0??kill_client@@YGXPAUENTITY@@@Z@4JA ; `kill_client'::`1'::__LINE__Var
EXTRN	?process_assert@@YGXPBD0H@Z:PROC		; process_assert
EXTRN	?free_mem@@YGXPAX@Z:PROC			; free_mem
EXTRN	?destruct_3d_object@@YGXPAUOBJECT_3D_INSTANCE@@@Z:PROC ; destruct_3d_object
EXTRN	?destroy_system_sound_effect@@YGXPAUSYSTEM_SOUND_EFFECT@@@Z:PROC ; destroy_system_sound_effect
EXTRN	?notify_local_entity@@YAHW4ENTITY_MESSAGES@@PAUENTITY@@1ZZ:PROC ; notify_local_entity
EXTRN	?delete_local_entity_from_parents_child_list@@YGXPAUENTITY@@W4LIST_TYPES@@@Z:PROC ; delete_local_entity_from_parents_child_list
EXTRN	?unlink_local_entity_children@@YGXPAUENTITY@@W4LIST_TYPES@@@Z:PROC ; unlink_local_entity_children
EXTRN	?destroy_local_entity@@YGXPAUENTITY@@@Z:PROC	; destroy_local_entity
EXTRN	?destroy_local_entity_children@@YGXPAUENTITY@@W4LIST_TYPES@@@Z:PROC ; destroy_local_entity_children
EXTRN	?destroy_client_server_entity_children@@YGXPAUENTITY@@W4LIST_TYPES@@@Z:PROC ; destroy_client_server_entity_children
EXTRN	?transmit_entity_comms_message@@YAXW4ENTITY_COMMS_MESSAGES@@PAUENTITY@@ZZ:PROC ; transmit_entity_comms_message
EXTRN	?assert_client_server_local_fn@@YGHXZ:PROC	; assert_client_server_local_fn
EXTRN	?assert_client_server_remote_fn@@YGHXZ:PROC	; assert_client_server_remote_fn
EXTRN	?set_free_entity@@YGXPAUENTITY@@@Z:PROC		; set_free_entity
EXTRN	?damage_routed_vehicle_3d_object@@YGXPAUENTITY@@@Z:PROC ; damage_routed_vehicle_3d_object
EXTRN	?routed_vehicle_impact_movement@@YGXPAUENTITY@@@Z:PROC ; routed_vehicle_impact_movement
EXTRN	?calculate_mobile_death_timer_value@@YGMPAUENTITY@@@Z:PROC ; calculate_mobile_death_timer_value
EXTRN	?create_client_server_object_killed_explosion_effect@@YGXPAUENTITY@@@Z:PROC ; create_client_server_object_killed_explosion_effect
EXTRN	?kill_local_entity_sound_type@@YGXPAUENTITY@@H@Z:PROC ; kill_local_entity_sound_type
EXTRN	?destroy_local_sound_effects@@YGXPAUENTITY@@@Z:PROC ; destroy_local_sound_effects
EXTRN	?destroy_client_server_sound_effects@@YGXPAUENTITY@@@Z:PROC ; destroy_client_server_sound_effects
EXTRN	?get_local_force_entity@@YGPAUENTITY@@W4ENTITY_SIDES@@@Z:PROC ; get_local_force_entity
EXTRN	?remove_from_force_info@@YGXPAUENTITY@@0@Z:PROC	; remove_from_force_info
EXTRN	?destroy_debug_entity_landing_route_check@@YGXPAUENTITY@@@Z:PROC ; destroy_debug_entity_landing_route_check
EXTRN	?release_mobile_entity_landing_locks@@YGXPAUENTITY@@@Z:PROC ; release_mobile_entity_landing_locks
EXTRN	?add_entity_to_regen_queue@@YGXW4ENTITY_SIDES@@W4ENTITY_TYPES@@HH@Z:PROC ; add_entity_to_regen_queue
EXTRN	?remove_mobile_values_from_sector@@YGXPAUENTITY@@0@Z:PROC ; remove_mobile_values_from_sector
EXTRN	?get_local_group_primary_task@@YGPAUENTITY@@PAU1@@Z:PROC ; get_local_group_primary_task
EXTRN	?notify_campaign_screen@@YGHW4CAMPAIGN_SCREEN_MESSAGES@@PAUENTITY@@@Z:PROC ; notify_campaign_screen
EXTRN	?write_tacview_unit_event@@YGXPAUENTITY@@W4tacview_event_type@@0@Z:PROC ; write_tacview_unit_event
EXTRN	?null_entity_pointer_message@@3PBDB:DWORD	; null_entity_pointer_message
EXTRN	?system_comms_model@@3W4COMMS_MODEL_TYPES@@A:DWORD ; system_comms_model
EXTRN	?system_comms_data_flow@@3W4COMMS_DATA_FLOW_TYPES@@A:DWORD ; system_comms_data_flow
EXTRN	?overload_invalid_list_type_message@@3PBDB:DWORD ; overload_invalid_list_type_message
EXTRN	?fn_get_local_entity_first_child@@3PAY0CN@P6GPAUENTITY@@PAU1@W4LIST_TYPES@@@ZA:BYTE ; fn_get_local_entity_first_child
EXTRN	?fn_get_local_entity_parent@@3PAY0CN@P6GPAUENTITY@@PAU1@W4LIST_TYPES@@@ZA:BYTE ; fn_get_local_entity_parent
EXTRN	?fn_get_local_entity_child_succ@@3PAY0CN@P6GPAUENTITY@@PAU1@W4LIST_TYPES@@@ZA:BYTE ; fn_get_local_entity_child_succ
EXTRN	?fn_destroy_local_entity@@3PAP6GXPAUENTITY@@@ZA:BYTE ; fn_destroy_local_entity
EXTRN	?fn_destroy_client_server_entity@@3PAY01P6GXPAUENTITY@@@ZA:BYTE ; fn_destroy_client_server_entity
EXTRN	?fn_destroy_local_entity_family@@3PAP6GXPAUENTITY@@@ZA:BYTE ; fn_destroy_local_entity_family
EXTRN	?fn_destroy_client_server_entity_family@@3PAY01P6GXPAUENTITY@@@ZA:BYTE ; fn_destroy_client_server_entity_family
EXTRN	?fn_kill_local_entity@@3PAP6GXPAUENTITY@@@ZA:BYTE ; fn_kill_local_entity
EXTRN	?fn_kill_client_server_entity@@3PAY01P6GXPAUENTITY@@@ZA:BYTE ; fn_kill_client_server_entity
EXTRN	?overload_invalid_float_type_message@@3PBDB:DWORD ; overload_invalid_float_type_message
EXTRN	?fn_set_local_entity_float_value@@3PAY0KP@P6GXPAUENTITY@@W4FLOAT_TYPES@@M@ZA:BYTE ; fn_set_local_entity_float_value
EXTRN	?overload_invalid_int_type_message@@3PBDB:DWORD	; overload_invalid_int_type_message
EXTRN	?fn_set_local_entity_int_value@@3PAY0BBH@P6GXPAUENTITY@@W4INT_TYPES@@H@ZA:BYTE ; fn_set_local_entity_int_value
EXTRN	?fn_get_local_entity_int_value@@3PAY0BBH@P6GHPAUENTITY@@W4INT_TYPES@@@ZA:BYTE ; fn_get_local_entity_int_value
EXTRN	?tacview_log_file@@3PAU_iobuf@@A:DWORD		; tacview_log_file
EXTRN	__fltused:DWORD
;	COMDAT ?__LINE__Var@?0??kill_client@@YGXPAUENTITY@@@Z@4JA
_DATA	SEGMENT
?__LINE__Var@?0??kill_client@@YGXPAUENTITY@@@Z@4JA DD 025eH ; `kill_client'::`1'::__LINE__Var
_DATA	ENDS
;	COMDAT ?__LINE__Var@?0??kill_server@@YGXPAUENTITY@@@Z@4JA
_DATA	SEGMENT
?__LINE__Var@?0??kill_server@@YGXPAUENTITY@@@Z@4JA DD 0247H ; `kill_server'::`1'::__LINE__Var
_DATA	ENDS
;	COMDAT ??_C@_05MGJOOGAJ@group@
CONST	SEGMENT
??_C@_05MGJOOGAJ@group@ DB 'group', 00H			; `string'
CONST	ENDS
;	COMDAT ?__LINE__Var@?0??kill_local@@YGXPAUENTITY@@@Z@4JA
_DATA	SEGMENT
?__LINE__Var@?0??kill_local@@YGXPAUENTITY@@@Z@4JA DD 012eH ; `kill_local'::`1'::__LINE__Var
_DATA	ENDS
;	COMDAT ?__LINE__Var@?0??destroy_server_family@@YGXPAUENTITY@@@Z@4JA
_DATA	SEGMENT
?__LINE__Var@?0??destroy_server_family@@YGXPAUENTITY@@@Z@4JA DD 0112H ; `destroy_server_family'::`1'::__LINE__Var
_DATA	ENDS
;	COMDAT ?__LINE__Var@?0??destroy_client@@YGXPAUENTITY@@@Z@4JA
_DATA	SEGMENT
?__LINE__Var@?0??destroy_client@@YGXPAUENTITY@@@Z@4JA DD 0edH ; `destroy_client'::`1'::__LINE__Var
_DATA	ENDS
;	COMDAT ??_C@_0CB@CFOCLFOK@assert_client_server_local_fn?5?$CI@
CONST	SEGMENT
??_C@_0CB@CFOCLFOK@assert_client_server_local_fn?5?$CI@ DB 'assert_client'
	DB	'_server_local_fn ()', 00H			; `string'
CONST	ENDS
;	COMDAT ??_C@_0CC@BNNNEGEG@assert_client_server_remote_fn?5@
CONST	SEGMENT
??_C@_0CC@BNNNEGEG@assert_client_server_remote_fn?5@ DB 'assert_client_se'
	DB	'rver_remote_fn ()', 00H			; `string'
CONST	ENDS
;	COMDAT ?__LINE__Var@?0??destroy_server@@YGXPAUENTITY@@@Z@4JA
_DATA	SEGMENT
?__LINE__Var@?0??destroy_server@@YGXPAUENTITY@@@Z@4JA DD 0d6H ; `destroy_server'::`1'::__LINE__Var
_DATA	ENDS
;	COMDAT ??_C@_0FE@LMONHLAE@c?3?2users?2nhv90?2projects?2eech?2ap@
CONST	SEGMENT
??_C@_0FE@LMONHLAE@c?3?2users?2nhv90?2projects?2eech?2ap@ DB 'c:\users\nh'
	DB	'v90\projects\eech\aphavoc\source\entity\mobile\vehicle\routed'
	DB	'\rv_dstry.c', 00H				; `string'
CONST	ENDS
;	COMDAT ?__LINE__Var@?0??destroy_local@@YGXPAUENTITY@@@Z@4JA
_DATA	SEGMENT
?__LINE__Var@?0??destroy_local@@YGXPAUENTITY@@@Z@4JA DD 054H ; `destroy_local'::`1'::__LINE__Var
_DATA	ENDS
; Function compile flags: /Odtp /ZI
; File c:\users\nhv90\projects\eech\aphavoc\source\entity\mobile\vehicle\routed\rv_dstry.c
;	COMDAT ?kill_client@@YGXPAUENTITY@@@Z
_TEXT	SEGMENT
tv84 = -68						; size = 4
_en$ = 8						; size = 4
?kill_client@@YGXPAUENTITY@@@Z PROC			; kill_client, COMDAT

; 606  : {

  00000	55		 push	 ebp
  00001	8b ec		 mov	 ebp, esp
  00003	83 ec 44	 sub	 esp, 68			; 00000044H
  00006	53		 push	 ebx
  00007	56		 push	 esi
  00008	57		 push	 edi

; 607  : 	if (get_comms_data_flow () == COMMS_DATA_FLOW_TX)

  00009	83 3d 00 00 00
	00 00		 cmp	 DWORD PTR ?system_comms_data_flow@@3W4COMMS_DATA_FLOW_TYPES@@A, 0 ; system_comms_data_flow
  00010	75 2c		 jne	 SHORT $LN2@kill_clien

; 608  : 	{
; 609  : 		validate_client_server_remote_fn ();

  00012	e8 00 00 00 00	 call	 ?assert_client_server_remote_fn@@YGHXZ ; assert_client_server_remote_fn
  00017	85 c0		 test	 eax, eax
  00019	75 18		 jne	 SHORT $LN4@kill_clien
  0001b	a1 00 00 00 00	 mov	 eax, DWORD PTR ?__LINE__Var@?0??kill_client@@YGXPAUENTITY@@@Z@4JA
  00020	83 c0 03	 add	 eax, 3
  00023	50		 push	 eax
  00024	68 00 00 00 00	 push	 OFFSET ??_C@_0FE@LMONHLAE@c?3?2users?2nhv90?2projects?2eech?2ap@
  00029	68 00 00 00 00	 push	 OFFSET ??_C@_0CC@BNNNEGEG@assert_client_server_remote_fn?5@
  0002e	e8 00 00 00 00	 call	 ?process_assert@@YGXPBD0H@Z ; process_assert
$LN4@kill_clien:

; 610  : 
; 611  : 		kill_remote (en);

  00033	8b 45 08	 mov	 eax, DWORD PTR _en$[ebp]
  00036	50		 push	 eax
  00037	e8 00 00 00 00	 call	 ?kill_remote@@YGXPAUENTITY@@@Z ; kill_remote

; 612  : 	}
; 613  : 	else

  0003c	eb 62		 jmp	 SHORT $LN1@kill_clien
$LN2@kill_clien:

; 614  : 	{
; 615  : 		validate_client_server_local_fn ();

  0003e	e8 00 00 00 00	 call	 ?assert_client_server_local_fn@@YGHXZ ; assert_client_server_local_fn
  00043	85 c0		 test	 eax, eax
  00045	75 18		 jne	 SHORT $LN5@kill_clien
  00047	a1 00 00 00 00	 mov	 eax, DWORD PTR ?__LINE__Var@?0??kill_client@@YGXPAUENTITY@@@Z@4JA
  0004c	83 c0 09	 add	 eax, 9
  0004f	50		 push	 eax
  00050	68 00 00 00 00	 push	 OFFSET ??_C@_0FE@LMONHLAE@c?3?2users?2nhv90?2projects?2eech?2ap@
  00055	68 00 00 00 00	 push	 OFFSET ??_C@_0CB@CFOCLFOK@assert_client_server_local_fn?5?$CI@
  0005a	e8 00 00 00 00	 call	 ?process_assert@@YGXPBD0H@Z ; process_assert
$LN5@kill_clien:

; 616  : 
; 617  : 		//
; 618  : 		// kill local using 'full' function
; 619  : 		//
; 620  : 
; 621  : 		kill_local_entity (en);

  0005f	83 7d 08 00	 cmp	 DWORD PTR _en$[ebp], 0
  00063	74 0a		 je	 SHORT $LN7@kill_clien
  00065	8b 45 08	 mov	 eax, DWORD PTR _en$[ebp]
  00068	8b 08		 mov	 ecx, DWORD PTR [eax]
  0006a	89 4d bc	 mov	 DWORD PTR tv84[ebp], ecx
  0006d	eb 21		 jmp	 SHORT $LN8@kill_clien
$LN7@kill_clien:
  0006f	8b 15 00 00 00
	00		 mov	 edx, DWORD PTR ?__LINE__Var@?0??kill_client@@YGXPAUENTITY@@@Z@4JA
  00075	83 c2 0f	 add	 edx, 15			; 0000000fH
  00078	52		 push	 edx
  00079	68 00 00 00 00	 push	 OFFSET ??_C@_0FE@LMONHLAE@c?3?2users?2nhv90?2projects?2eech?2ap@
  0007e	a1 00 00 00 00	 mov	 eax, DWORD PTR ?null_entity_pointer_message@@3PBDB ; null_entity_pointer_message
  00083	50		 push	 eax
  00084	e8 00 00 00 00	 call	 ?process_assert@@YGXPBD0H@Z ; process_assert
  00089	c7 45 bc 00 00
	00 00		 mov	 DWORD PTR tv84[ebp], 0
$LN8@kill_clien:
  00090	8b 4d 08	 mov	 ecx, DWORD PTR _en$[ebp]
  00093	51		 push	 ecx
  00094	8b 55 bc	 mov	 edx, DWORD PTR tv84[ebp]
  00097	8b 04 95 00 00
	00 00		 mov	 eax, DWORD PTR ?fn_kill_local_entity@@3PAP6GXPAUENTITY@@@ZA[edx*4]
  0009e	ff d0		 call	 eax
$LN1@kill_clien:

; 622  : 	}
; 623  : }

  000a0	5f		 pop	 edi
  000a1	5e		 pop	 esi
  000a2	5b		 pop	 ebx
  000a3	8b e5		 mov	 esp, ebp
  000a5	5d		 pop	 ebp
  000a6	c2 04 00	 ret	 4
?kill_client@@YGXPAUENTITY@@@Z ENDP			; kill_client
_TEXT	ENDS
; Function compile flags: /Odtp /ZI
; File c:\users\nhv90\projects\eech\aphavoc\source\entity\mobile\vehicle\routed\rv_dstry.c
;	COMDAT ?kill_server@@YGXPAUENTITY@@@Z
_TEXT	SEGMENT
tv83 = -68						; size = 4
_en$ = 8						; size = 4
?kill_server@@YGXPAUENTITY@@@Z PROC			; kill_server, COMDAT

; 583  : {

  00000	55		 push	 ebp
  00001	8b ec		 mov	 ebp, esp
  00003	83 ec 44	 sub	 esp, 68			; 00000044H
  00006	53		 push	 ebx
  00007	56		 push	 esi
  00008	57		 push	 edi

; 584  : 	//
; 585  : 	// kill remote entity first (keeping local entity valid)
; 586  : 	//
; 587  : 
; 588  : 	validate_client_server_remote_fn ();

  00009	e8 00 00 00 00	 call	 ?assert_client_server_remote_fn@@YGHXZ ; assert_client_server_remote_fn
  0000e	85 c0		 test	 eax, eax
  00010	75 18		 jne	 SHORT $LN2@kill_serve
  00012	a1 00 00 00 00	 mov	 eax, DWORD PTR ?__LINE__Var@?0??kill_server@@YGXPAUENTITY@@@Z@4JA
  00017	83 c0 05	 add	 eax, 5
  0001a	50		 push	 eax
  0001b	68 00 00 00 00	 push	 OFFSET ??_C@_0FE@LMONHLAE@c?3?2users?2nhv90?2projects?2eech?2ap@
  00020	68 00 00 00 00	 push	 OFFSET ??_C@_0CC@BNNNEGEG@assert_client_server_remote_fn?5@
  00025	e8 00 00 00 00	 call	 ?process_assert@@YGXPBD0H@Z ; process_assert
$LN2@kill_serve:

; 589  : 
; 590  : 	kill_remote (en);

  0002a	8b 45 08	 mov	 eax, DWORD PTR _en$[ebp]
  0002d	50		 push	 eax
  0002e	e8 00 00 00 00	 call	 ?kill_remote@@YGXPAUENTITY@@@Z ; kill_remote

; 591  : 
; 592  : 	validate_client_server_local_fn ();

  00033	e8 00 00 00 00	 call	 ?assert_client_server_local_fn@@YGHXZ ; assert_client_server_local_fn
  00038	85 c0		 test	 eax, eax
  0003a	75 18		 jne	 SHORT $LN3@kill_serve
  0003c	a1 00 00 00 00	 mov	 eax, DWORD PTR ?__LINE__Var@?0??kill_server@@YGXPAUENTITY@@@Z@4JA
  00041	83 c0 09	 add	 eax, 9
  00044	50		 push	 eax
  00045	68 00 00 00 00	 push	 OFFSET ??_C@_0FE@LMONHLAE@c?3?2users?2nhv90?2projects?2eech?2ap@
  0004a	68 00 00 00 00	 push	 OFFSET ??_C@_0CB@CFOCLFOK@assert_client_server_local_fn?5?$CI@
  0004f	e8 00 00 00 00	 call	 ?process_assert@@YGXPBD0H@Z ; process_assert
$LN3@kill_serve:

; 593  : 
; 594  : 	//
; 595  : 	// kill local using 'full' function
; 596  : 	//
; 597  : 
; 598  : 	kill_local_entity (en);

  00054	83 7d 08 00	 cmp	 DWORD PTR _en$[ebp], 0
  00058	74 0a		 je	 SHORT $LN5@kill_serve
  0005a	8b 45 08	 mov	 eax, DWORD PTR _en$[ebp]
  0005d	8b 08		 mov	 ecx, DWORD PTR [eax]
  0005f	89 4d bc	 mov	 DWORD PTR tv83[ebp], ecx
  00062	eb 21		 jmp	 SHORT $LN6@kill_serve
$LN5@kill_serve:
  00064	8b 15 00 00 00
	00		 mov	 edx, DWORD PTR ?__LINE__Var@?0??kill_server@@YGXPAUENTITY@@@Z@4JA
  0006a	83 c2 0f	 add	 edx, 15			; 0000000fH
  0006d	52		 push	 edx
  0006e	68 00 00 00 00	 push	 OFFSET ??_C@_0FE@LMONHLAE@c?3?2users?2nhv90?2projects?2eech?2ap@
  00073	a1 00 00 00 00	 mov	 eax, DWORD PTR ?null_entity_pointer_message@@3PBDB ; null_entity_pointer_message
  00078	50		 push	 eax
  00079	e8 00 00 00 00	 call	 ?process_assert@@YGXPBD0H@Z ; process_assert
  0007e	c7 45 bc 00 00
	00 00		 mov	 DWORD PTR tv83[ebp], 0
$LN6@kill_serve:
  00085	8b 4d 08	 mov	 ecx, DWORD PTR _en$[ebp]
  00088	51		 push	 ecx
  00089	8b 55 bc	 mov	 edx, DWORD PTR tv83[ebp]
  0008c	8b 04 95 00 00
	00 00		 mov	 eax, DWORD PTR ?fn_kill_local_entity@@3PAP6GXPAUENTITY@@@ZA[edx*4]
  00093	ff d0		 call	 eax

; 599  : }

  00095	5f		 pop	 edi
  00096	5e		 pop	 esi
  00097	5b		 pop	 ebx
  00098	8b e5		 mov	 esp, ebp
  0009a	5d		 pop	 ebp
  0009b	c2 04 00	 ret	 4
?kill_server@@YGXPAUENTITY@@@Z ENDP			; kill_server
_TEXT	ENDS
; Function compile flags: /Odtp /ZI
; File c:\users\nhv90\projects\eech\aphavoc\source\entity\mobile\vehicle\routed\rv_dstry.c
;	COMDAT ?kill_remote@@YGXPAUENTITY@@@Z
_TEXT	SEGMENT
_en$ = 8						; size = 4
?kill_remote@@YGXPAUENTITY@@@Z PROC			; kill_remote, COMDAT

; 568  : {

  00000	55		 push	 ebp
  00001	8b ec		 mov	 ebp, esp
  00003	83 ec 40	 sub	 esp, 64			; 00000040H
  00006	53		 push	 ebx
  00007	56		 push	 esi
  00008	57		 push	 edi

; 569  : 	#if DEBUG_MODULE >= 2
; 570  : 
; 571  : 	debug_log_entity_args (ENTITY_DEBUG_REMOTE, ENTITY_DEBUG_kill, en);
; 572  : 
; 573  : 	#endif
; 574  : 
; 575  : 	transmit_entity_comms_message (ENTITY_COMMS_KILL, en);

  00009	8b 45 08	 mov	 eax, DWORD PTR _en$[ebp]
  0000c	50		 push	 eax
  0000d	6a 18		 push	 24			; 00000018H
  0000f	e8 00 00 00 00	 call	 ?transmit_entity_comms_message@@YAXW4ENTITY_COMMS_MESSAGES@@PAUENTITY@@ZZ ; transmit_entity_comms_message
  00014	83 c4 08	 add	 esp, 8

; 576  : }

  00017	5f		 pop	 edi
  00018	5e		 pop	 esi
  00019	5b		 pop	 ebx
  0001a	8b e5		 mov	 esp, ebp
  0001c	5d		 pop	 ebp
  0001d	c2 04 00	 ret	 4
?kill_remote@@YGXPAUENTITY@@@Z ENDP			; kill_remote
_TEXT	ENDS
; Function compile flags: /Odtp /ZI
; File c:\users\nhv90\projects\eech\aphavoc\source\entity\mobile\vehicle\routed\rv_dstry.c
;	COMDAT ?kill_local@@YGXPAUENTITY@@@Z
_TEXT	SEGMENT
tv219 = -112						; size = 4
tv211 = -108						; size = 4
tv203 = -104						; size = 4
tv190 = -100						; size = 4
tv687 = -96						; size = 4
tv182 = -96						; size = 4
tv471 = -92						; size = 4
tv445 = -92						; size = 4
tv424 = -92						; size = 4
tv401 = -92						; size = 4
tv380 = -92						; size = 4
tv359 = -92						; size = 4
tv338 = -92						; size = 4
tv317 = -92						; size = 4
tv261 = -92						; size = 4
tv240 = -92						; size = 4
tv169 = -92						; size = 4
tv130 = -92						; size = 4
tv76 = -92						; size = 4
tv463 = -88						; size = 4
tv437 = -88						; size = 4
tv416 = -88						; size = 4
tv393 = -88						; size = 4
tv372 = -88						; size = 4
tv351 = -88						; size = 4
tv330 = -88						; size = 4
tv309 = -88						; size = 4
tv272 = -88						; size = 4
tv253 = -88						; size = 4
tv232 = -88						; size = 4
tv161 = -88						; size = 4
tv90 = -88						; size = 4
tv69 = -88						; size = 4
_group$ = -20						; size = 4
_destroy_task$ = -16					; size = 4
_task$ = -12						; size = 4
_raw$ = -8						; size = 4
_losses$ = -4						; size = 4
_en$ = 8						; size = 4
?kill_local@@YGXPAUENTITY@@@Z PROC			; kill_local, COMDAT

; 302  : {

  00000	55		 push	 ebp
  00001	8b ec		 mov	 ebp, esp
  00003	83 ec 70	 sub	 esp, 112		; 00000070H
  00006	53		 push	 ebx
  00007	56		 push	 esi
  00008	57		 push	 edi

; 303  : 
; 304  : 	int
; 305  : 		losses;
; 306  : 
; 307  : 	routed_vehicle
; 308  : 		*raw;
; 309  : 
; 310  : 	entity
; 311  : 		*task,
; 312  : 		*destroy_task,
; 313  : 		*group;
; 314  : 
; 315  : 	////////////////////////////////////////
; 316  : 	//
; 317  : 	// PRE-AMBLE
; 318  : 	//
; 319  : 	////////////////////////////////////////
; 320  : 
; 321  : 	#if DEBUG_MODULE >= 2
; 322  : 
; 323  : 	debug_log_entity_args (ENTITY_DEBUG_LOCAL, ENTITY_DEBUG_KILL, en);
; 324  : 
; 325  : 	#endif
; 326  : 
; 327  : 	if (!get_local_entity_int_value (en, INT_TYPE_ALIVE))

  00009	83 7d 08 00	 cmp	 DWORD PTR _en$[ebp], 0
  0000d	74 0a		 je	 SHORT $LN13@kill_local
  0000f	8b 45 08	 mov	 eax, DWORD PTR _en$[ebp]
  00012	8b 08		 mov	 ecx, DWORD PTR [eax]
  00014	89 4d a8	 mov	 DWORD PTR tv69[ebp], ecx
  00017	eb 1d		 jmp	 SHORT $LN14@kill_local
$LN13@kill_local:
  00019	68 47 01 00 00	 push	 327			; 00000147H
  0001e	68 00 00 00 00	 push	 OFFSET ??_C@_0FE@LMONHLAE@c?3?2users?2nhv90?2projects?2eech?2ap@
  00023	8b 15 00 00 00
	00		 mov	 edx, DWORD PTR ?null_entity_pointer_message@@3PBDB ; null_entity_pointer_message
  00029	52		 push	 edx
  0002a	e8 00 00 00 00	 call	 ?process_assert@@YGXPBD0H@Z ; process_assert
  0002f	c7 45 a8 00 00
	00 00		 mov	 DWORD PTR tv69[ebp], 0
$LN14@kill_local:
  00036	b8 01 00 00 00	 mov	 eax, 1
  0003b	85 c0		 test	 eax, eax
  0003d	74 09		 je	 SHORT $LN15@kill_local
  0003f	c7 45 a4 07 00
	00 00		 mov	 DWORD PTR tv76[ebp], 7
  00046	eb 1d		 jmp	 SHORT $LN16@kill_local
$LN15@kill_local:
  00048	68 47 01 00 00	 push	 327			; 00000147H
  0004d	68 00 00 00 00	 push	 OFFSET ??_C@_0FE@LMONHLAE@c?3?2users?2nhv90?2projects?2eech?2ap@
  00052	8b 0d 00 00 00
	00		 mov	 ecx, DWORD PTR ?overload_invalid_int_type_message@@3PBDB ; overload_invalid_int_type_message
  00058	51		 push	 ecx
  00059	e8 00 00 00 00	 call	 ?process_assert@@YGXPBD0H@Z ; process_assert
  0005e	c7 45 a4 00 00
	00 00		 mov	 DWORD PTR tv76[ebp], 0
$LN16@kill_local:
  00065	6a 07		 push	 7
  00067	8b 55 08	 mov	 edx, DWORD PTR _en$[ebp]
  0006a	52		 push	 edx
  0006b	69 45 a8 5c 04
	00 00		 imul	 eax, DWORD PTR tv69[ebp], 1116
  00072	8b 4d a4	 mov	 ecx, DWORD PTR tv76[ebp]
  00075	8b 94 88 00 00
	00 00		 mov	 edx, DWORD PTR ?fn_get_local_entity_int_value@@3PAY0BBH@P6GHPAUENTITY@@W4INT_TYPES@@@ZA[eax+ecx*4]
  0007c	ff d2		 call	 edx
  0007e	85 c0		 test	 eax, eax
  00080	75 05		 jne	 SHORT $LN4@kill_local

; 328  : 	{
; 329  : 		return;

  00082	e9 4f 09 00 00	 jmp	 $LN1@kill_local
$LN4@kill_local:

; 330  : 	}
; 331  : 
; 332  : 	raw = (routed_vehicle *) get_local_entity_data (en);

  00087	8b 45 08	 mov	 eax, DWORD PTR _en$[ebp]
  0008a	8b 48 04	 mov	 ecx, DWORD PTR [eax+4]
  0008d	89 4d f8	 mov	 DWORD PTR _raw$[ebp], ecx

; 333  : 
; 334  : 	group = get_local_entity_parent (en, LIST_TYPE_MEMBER);

  00090	83 7d 08 00	 cmp	 DWORD PTR _en$[ebp], 0
  00094	74 0a		 je	 SHORT $LN17@kill_local
  00096	8b 45 08	 mov	 eax, DWORD PTR _en$[ebp]
  00099	8b 08		 mov	 ecx, DWORD PTR [eax]
  0009b	89 4d a8	 mov	 DWORD PTR tv90[ebp], ecx
  0009e	eb 21		 jmp	 SHORT $LN18@kill_local
$LN17@kill_local:
  000a0	8b 15 00 00 00
	00		 mov	 edx, DWORD PTR ?__LINE__Var@?0??kill_local@@YGXPAUENTITY@@@Z@4JA
  000a6	83 c2 20	 add	 edx, 32			; 00000020H
  000a9	52		 push	 edx
  000aa	68 00 00 00 00	 push	 OFFSET ??_C@_0FE@LMONHLAE@c?3?2users?2nhv90?2projects?2eech?2ap@
  000af	a1 00 00 00 00	 mov	 eax, DWORD PTR ?null_entity_pointer_message@@3PBDB ; null_entity_pointer_message
  000b4	50		 push	 eax
  000b5	e8 00 00 00 00	 call	 ?process_assert@@YGXPBD0H@Z ; process_assert
  000ba	c7 45 a8 00 00
	00 00		 mov	 DWORD PTR tv90[ebp], 0
$LN18@kill_local:
  000c1	b9 01 00 00 00	 mov	 ecx, 1
  000c6	85 c9		 test	 ecx, ecx
  000c8	74 09		 je	 SHORT $LN19@kill_local
  000ca	c7 45 a4 19 00
	00 00		 mov	 DWORD PTR tv130[ebp], 25 ; 00000019H
  000d1	eb 21		 jmp	 SHORT $LN20@kill_local
$LN19@kill_local:
  000d3	8b 15 00 00 00
	00		 mov	 edx, DWORD PTR ?__LINE__Var@?0??kill_local@@YGXPAUENTITY@@@Z@4JA
  000d9	83 c2 20	 add	 edx, 32			; 00000020H
  000dc	52		 push	 edx
  000dd	68 00 00 00 00	 push	 OFFSET ??_C@_0FE@LMONHLAE@c?3?2users?2nhv90?2projects?2eech?2ap@
  000e2	a1 00 00 00 00	 mov	 eax, DWORD PTR ?overload_invalid_list_type_message@@3PBDB ; overload_invalid_list_type_message
  000e7	50		 push	 eax
  000e8	e8 00 00 00 00	 call	 ?process_assert@@YGXPBD0H@Z ; process_assert
  000ed	c7 45 a4 00 00
	00 00		 mov	 DWORD PTR tv130[ebp], 0
$LN20@kill_local:
  000f4	6a 19		 push	 25			; 00000019H
  000f6	8b 4d 08	 mov	 ecx, DWORD PTR _en$[ebp]
  000f9	51		 push	 ecx
  000fa	69 55 a8 b4 00
	00 00		 imul	 edx, DWORD PTR tv90[ebp], 180
  00101	8b 45 a4	 mov	 eax, DWORD PTR tv130[ebp]
  00104	8b 8c 82 00 00
	00 00		 mov	 ecx, DWORD PTR ?fn_get_local_entity_parent@@3PAY0CN@P6GPAUENTITY@@PAU1@W4LIST_TYPES@@@ZA[edx+eax*4]
  0010b	ff d1		 call	 ecx
  0010d	89 45 ec	 mov	 DWORD PTR _group$[ebp], eax

; 335  : 
; 336  : 	if (tacview_is_logging())

  00110	83 3d 00 00 00
	00 00		 cmp	 DWORD PTR ?tacview_log_file@@3PAU_iobuf@@A, 0 ; tacview_log_file
  00117	74 0d		 je	 SHORT $LN5@kill_local

; 337  : 		write_tacview_unit_event(en, TACVIEW_UNIT_DESTROYED, NULL);

  00119	6a 00		 push	 0
  0011b	6a 01		 push	 1
  0011d	8b 45 08	 mov	 eax, DWORD PTR _en$[ebp]
  00120	50		 push	 eax
  00121	e8 00 00 00 00	 call	 ?write_tacview_unit_event@@YGXPAUENTITY@@W4tacview_event_type@@0@Z ; write_tacview_unit_event
$LN5@kill_local:

; 338  : 
; 339  : 	ASSERT (group);

  00126	83 7d ec 00	 cmp	 DWORD PTR _group$[ebp], 0
  0012a	75 18		 jne	 SHORT $LN6@kill_local
  0012c	a1 00 00 00 00	 mov	 eax, DWORD PTR ?__LINE__Var@?0??kill_local@@YGXPAUENTITY@@@Z@4JA
  00131	83 c0 25	 add	 eax, 37			; 00000025H
  00134	50		 push	 eax
  00135	68 00 00 00 00	 push	 OFFSET ??_C@_0FE@LMONHLAE@c?3?2users?2nhv90?2projects?2eech?2ap@
  0013a	68 00 00 00 00	 push	 OFFSET ??_C@_05MGJOOGAJ@group@
  0013f	e8 00 00 00 00	 call	 ?process_assert@@YGXPBD0H@Z ; process_assert
$LN6@kill_local:

; 340  : 
; 341  : 	//
; 342  : 	// update force info
; 343  : 	//
; 344  : 
; 345  : 	remove_from_force_info (get_local_force_entity ((entity_sides) raw->vh.mob.side), en);

  00144	8b 45 08	 mov	 eax, DWORD PTR _en$[ebp]
  00147	50		 push	 eax
  00148	8b 4d f8	 mov	 ecx, DWORD PTR _raw$[ebp]
  0014b	8b 51 7c	 mov	 edx, DWORD PTR [ecx+124]
  0014e	d1 ea		 shr	 edx, 1
  00150	83 e2 03	 and	 edx, 3
  00153	52		 push	 edx
  00154	e8 00 00 00 00	 call	 ?get_local_force_entity@@YGPAUENTITY@@W4ENTITY_SIDES@@@Z ; get_local_force_entity
  00159	50		 push	 eax
  0015a	e8 00 00 00 00	 call	 ?remove_from_force_info@@YGXPAUENTITY@@0@Z ; remove_from_force_info

; 346  : 
; 347  : 	////////////////////////////////////////
; 348  : 	//
; 349  : 	// VALIDATE
; 350  : 	//
; 351  : 	////////////////////////////////////////
; 352  : 
; 353  : 	////////////////////////////////////////
; 354  : 	//
; 355  : 	// DESTROY COMPONENTS
; 356  : 	//
; 357  : 	////////////////////////////////////////
; 358  : 
; 359  : 	if (get_comms_model () == COMMS_MODEL_SERVER)

  0015f	83 3d 00 00 00
	00 00		 cmp	 DWORD PTR ?system_comms_model@@3W4COMMS_MODEL_TYPES@@A, 0 ; system_comms_model
  00166	0f 85 1d 03 00
	00		 jne	 $LN7@kill_local

; 360  : 	{
; 361  : 		////////////////////////////////////////
; 362  : 		//
; 363  : 		// SEND NOTIFY MESSAGES
; 364  : 		//
; 365  : 		////////////////////////////////////////
; 366  : 
; 367  : 		// notify regen of kill
; 368  : 
; 369  : 		add_entity_to_regen_queue

  0016c	83 7d ec 00	 cmp	 DWORD PTR _group$[ebp], 0
  00170	74 0a		 je	 SHORT $LN21@kill_local
  00172	8b 45 ec	 mov	 eax, DWORD PTR _group$[ebp]
  00175	8b 08		 mov	 ecx, DWORD PTR [eax]
  00177	89 4d a8	 mov	 DWORD PTR tv161[ebp], ecx
  0017a	eb 21		 jmp	 SHORT $LN22@kill_local
$LN21@kill_local:
  0017c	8b 15 00 00 00
	00		 mov	 edx, DWORD PTR ?__LINE__Var@?0??kill_local@@YGXPAUENTITY@@@Z@4JA
  00182	83 c2 48	 add	 edx, 72			; 00000048H
  00185	52		 push	 edx
  00186	68 00 00 00 00	 push	 OFFSET ??_C@_0FE@LMONHLAE@c?3?2users?2nhv90?2projects?2eech?2ap@
  0018b	a1 00 00 00 00	 mov	 eax, DWORD PTR ?null_entity_pointer_message@@3PBDB ; null_entity_pointer_message
  00190	50		 push	 eax
  00191	e8 00 00 00 00	 call	 ?process_assert@@YGXPBD0H@Z ; process_assert
  00196	c7 45 a8 00 00
	00 00		 mov	 DWORD PTR tv161[ebp], 0
$LN22@kill_local:
  0019d	b9 01 00 00 00	 mov	 ecx, 1
  001a2	85 c9		 test	 ecx, ecx
  001a4	74 09		 je	 SHORT $LN23@kill_local
  001a6	c7 45 a4 34 00
	00 00		 mov	 DWORD PTR tv169[ebp], 52 ; 00000034H
  001ad	eb 21		 jmp	 SHORT $LN24@kill_local
$LN23@kill_local:
  001af	8b 15 00 00 00
	00		 mov	 edx, DWORD PTR ?__LINE__Var@?0??kill_local@@YGXPAUENTITY@@@Z@4JA
  001b5	83 c2 48	 add	 edx, 72			; 00000048H
  001b8	52		 push	 edx
  001b9	68 00 00 00 00	 push	 OFFSET ??_C@_0FE@LMONHLAE@c?3?2users?2nhv90?2projects?2eech?2ap@
  001be	a1 00 00 00 00	 mov	 eax, DWORD PTR ?overload_invalid_int_type_message@@3PBDB ; overload_invalid_int_type_message
  001c3	50		 push	 eax
  001c4	e8 00 00 00 00	 call	 ?process_assert@@YGXPBD0H@Z ; process_assert
  001c9	c7 45 a4 00 00
	00 00		 mov	 DWORD PTR tv169[ebp], 0
$LN24@kill_local:
  001d0	83 7d 08 00	 cmp	 DWORD PTR _en$[ebp], 0
  001d4	74 0a		 je	 SHORT $LN25@kill_local
  001d6	8b 4d 08	 mov	 ecx, DWORD PTR _en$[ebp]
  001d9	8b 11		 mov	 edx, DWORD PTR [ecx]
  001db	89 55 a0	 mov	 DWORD PTR tv182[ebp], edx
  001de	eb 21		 jmp	 SHORT $LN26@kill_local
$LN25@kill_local:
  001e0	a1 00 00 00 00	 mov	 eax, DWORD PTR ?__LINE__Var@?0??kill_local@@YGXPAUENTITY@@@Z@4JA
  001e5	83 c0 47	 add	 eax, 71			; 00000047H
  001e8	50		 push	 eax
  001e9	68 00 00 00 00	 push	 OFFSET ??_C@_0FE@LMONHLAE@c?3?2users?2nhv90?2projects?2eech?2ap@
  001ee	8b 0d 00 00 00
	00		 mov	 ecx, DWORD PTR ?null_entity_pointer_message@@3PBDB ; null_entity_pointer_message
  001f4	51		 push	 ecx
  001f5	e8 00 00 00 00	 call	 ?process_assert@@YGXPBD0H@Z ; process_assert
  001fa	c7 45 a0 00 00
	00 00		 mov	 DWORD PTR tv182[ebp], 0
$LN26@kill_local:
  00201	ba 01 00 00 00	 mov	 edx, 1
  00206	85 d2		 test	 edx, edx
  00208	74 09		 je	 SHORT $LN27@kill_local
  0020a	c7 45 9c 34 00
	00 00		 mov	 DWORD PTR tv190[ebp], 52 ; 00000034H
  00211	eb 21		 jmp	 SHORT $LN28@kill_local
$LN27@kill_local:
  00213	a1 00 00 00 00	 mov	 eax, DWORD PTR ?__LINE__Var@?0??kill_local@@YGXPAUENTITY@@@Z@4JA
  00218	83 c0 47	 add	 eax, 71			; 00000047H
  0021b	50		 push	 eax
  0021c	68 00 00 00 00	 push	 OFFSET ??_C@_0FE@LMONHLAE@c?3?2users?2nhv90?2projects?2eech?2ap@
  00221	8b 0d 00 00 00
	00		 mov	 ecx, DWORD PTR ?overload_invalid_int_type_message@@3PBDB ; overload_invalid_int_type_message
  00227	51		 push	 ecx
  00228	e8 00 00 00 00	 call	 ?process_assert@@YGXPBD0H@Z ; process_assert
  0022d	c7 45 9c 00 00
	00 00		 mov	 DWORD PTR tv190[ebp], 0
$LN28@kill_local:
  00234	83 7d 08 00	 cmp	 DWORD PTR _en$[ebp], 0
  00238	74 0a		 je	 SHORT $LN29@kill_local
  0023a	8b 55 08	 mov	 edx, DWORD PTR _en$[ebp]
  0023d	8b 02		 mov	 eax, DWORD PTR [edx]
  0023f	89 45 98	 mov	 DWORD PTR tv203[ebp], eax
  00242	eb 22		 jmp	 SHORT $LN30@kill_local
$LN29@kill_local:
  00244	8b 0d 00 00 00
	00		 mov	 ecx, DWORD PTR ?__LINE__Var@?0??kill_local@@YGXPAUENTITY@@@Z@4JA
  0024a	83 c1 46	 add	 ecx, 70			; 00000046H
  0024d	51		 push	 ecx
  0024e	68 00 00 00 00	 push	 OFFSET ??_C@_0FE@LMONHLAE@c?3?2users?2nhv90?2projects?2eech?2ap@
  00253	8b 15 00 00 00
	00		 mov	 edx, DWORD PTR ?null_entity_pointer_message@@3PBDB ; null_entity_pointer_message
  00259	52		 push	 edx
  0025a	e8 00 00 00 00	 call	 ?process_assert@@YGXPBD0H@Z ; process_assert
  0025f	c7 45 98 00 00
	00 00		 mov	 DWORD PTR tv203[ebp], 0
$LN30@kill_local:
  00266	83 7d 08 00	 cmp	 DWORD PTR _en$[ebp], 0
  0026a	74 0a		 je	 SHORT $LN31@kill_local
  0026c	8b 45 08	 mov	 eax, DWORD PTR _en$[ebp]
  0026f	8b 08		 mov	 ecx, DWORD PTR [eax]
  00271	89 4d 94	 mov	 DWORD PTR tv211[ebp], ecx
  00274	eb 21		 jmp	 SHORT $LN32@kill_local
$LN31@kill_local:
  00276	8b 15 00 00 00
	00		 mov	 edx, DWORD PTR ?__LINE__Var@?0??kill_local@@YGXPAUENTITY@@@Z@4JA
  0027c	83 c2 45	 add	 edx, 69			; 00000045H
  0027f	52		 push	 edx
  00280	68 00 00 00 00	 push	 OFFSET ??_C@_0FE@LMONHLAE@c?3?2users?2nhv90?2projects?2eech?2ap@
  00285	a1 00 00 00 00	 mov	 eax, DWORD PTR ?null_entity_pointer_message@@3PBDB ; null_entity_pointer_message
  0028a	50		 push	 eax
  0028b	e8 00 00 00 00	 call	 ?process_assert@@YGXPBD0H@Z ; process_assert
  00290	c7 45 94 00 00
	00 00		 mov	 DWORD PTR tv211[ebp], 0
$LN32@kill_local:
  00297	b9 01 00 00 00	 mov	 ecx, 1
  0029c	85 c9		 test	 ecx, ecx
  0029e	74 09		 je	 SHORT $LN33@kill_local
  002a0	c7 45 90 bb 00
	00 00		 mov	 DWORD PTR tv219[ebp], 187 ; 000000bbH
  002a7	eb 21		 jmp	 SHORT $LN34@kill_local
$LN33@kill_local:
  002a9	8b 15 00 00 00
	00		 mov	 edx, DWORD PTR ?__LINE__Var@?0??kill_local@@YGXPAUENTITY@@@Z@4JA
  002af	83 c2 45	 add	 edx, 69			; 00000045H
  002b2	52		 push	 edx
  002b3	68 00 00 00 00	 push	 OFFSET ??_C@_0FE@LMONHLAE@c?3?2users?2nhv90?2projects?2eech?2ap@
  002b8	a1 00 00 00 00	 mov	 eax, DWORD PTR ?overload_invalid_int_type_message@@3PBDB ; overload_invalid_int_type_message
  002bd	50		 push	 eax
  002be	e8 00 00 00 00	 call	 ?process_assert@@YGXPBD0H@Z ; process_assert
  002c3	c7 45 90 00 00
	00 00		 mov	 DWORD PTR tv219[ebp], 0
$LN34@kill_local:
  002ca	6a 34		 push	 52			; 00000034H
  002cc	8b 4d ec	 mov	 ecx, DWORD PTR _group$[ebp]
  002cf	51		 push	 ecx
  002d0	69 55 a8 5c 04
	00 00		 imul	 edx, DWORD PTR tv161[ebp], 1116
  002d7	8b 45 a4	 mov	 eax, DWORD PTR tv169[ebp]
  002da	8b 8c 82 00 00
	00 00		 mov	 ecx, DWORD PTR ?fn_get_local_entity_int_value@@3PAY0BBH@P6GHPAUENTITY@@W4INT_TYPES@@@ZA[edx+eax*4]
  002e1	ff d1		 call	 ecx
  002e3	50		 push	 eax
  002e4	6a 34		 push	 52			; 00000034H
  002e6	8b 55 08	 mov	 edx, DWORD PTR _en$[ebp]
  002e9	52		 push	 edx
  002ea	69 45 a0 5c 04
	00 00		 imul	 eax, DWORD PTR tv182[ebp], 1116
  002f1	8b 4d 9c	 mov	 ecx, DWORD PTR tv190[ebp]
  002f4	8b 94 88 00 00
	00 00		 mov	 edx, DWORD PTR ?fn_get_local_entity_int_value@@3PAY0BBH@P6GHPAUENTITY@@W4INT_TYPES@@@ZA[eax+ecx*4]
  002fb	ff d2		 call	 edx
  002fd	50		 push	 eax
  002fe	8b 45 98	 mov	 eax, DWORD PTR tv203[ebp]
  00301	50		 push	 eax
  00302	68 bb 00 00 00	 push	 187			; 000000bbH
  00307	8b 4d 08	 mov	 ecx, DWORD PTR _en$[ebp]
  0030a	51		 push	 ecx
  0030b	69 55 94 5c 04
	00 00		 imul	 edx, DWORD PTR tv211[ebp], 1116
  00312	8b 45 90	 mov	 eax, DWORD PTR tv219[ebp]
  00315	8b 8c 82 00 00
	00 00		 mov	 ecx, DWORD PTR ?fn_get_local_entity_int_value@@3PAY0BBH@P6GHPAUENTITY@@W4INT_TYPES@@@ZA[edx+eax*4]
  0031c	ff d1		 call	 ecx
  0031e	50		 push	 eax
  0031f	e8 00 00 00 00	 call	 ?add_entity_to_regen_queue@@YGXW4ENTITY_SIDES@@W4ENTITY_TYPES@@HH@Z ; add_entity_to_regen_queue

; 370  : 		(
; 371  : 			(entity_sides) get_local_entity_int_value(en, INT_TYPE_SIDE),
; 372  : 			get_local_entity_type(en),
; 373  : 			get_local_entity_int_value (en, INT_TYPE_ENTITY_SUB_TYPE),
; 374  : 			get_local_entity_int_value (group, INT_TYPE_ENTITY_SUB_TYPE)
; 375  : 		);
; 376  : 
; 377  : 		//
; 378  : 		//
; 379  : 		//
; 380  : 
; 381  : 		task = get_local_entity_first_child (en, LIST_TYPE_TASK_DEPENDENT);

  00324	83 7d 08 00	 cmp	 DWORD PTR _en$[ebp], 0
  00328	74 0a		 je	 SHORT $LN35@kill_local
  0032a	8b 45 08	 mov	 eax, DWORD PTR _en$[ebp]
  0032d	8b 08		 mov	 ecx, DWORD PTR [eax]
  0032f	89 4d a8	 mov	 DWORD PTR tv232[ebp], ecx
  00332	eb 21		 jmp	 SHORT $LN36@kill_local
$LN35@kill_local:
  00334	8b 15 00 00 00
	00		 mov	 edx, DWORD PTR ?__LINE__Var@?0??kill_local@@YGXPAUENTITY@@@Z@4JA
  0033a	83 c2 4f	 add	 edx, 79			; 0000004fH
  0033d	52		 push	 edx
  0033e	68 00 00 00 00	 push	 OFFSET ??_C@_0FE@LMONHLAE@c?3?2users?2nhv90?2projects?2eech?2ap@
  00343	a1 00 00 00 00	 mov	 eax, DWORD PTR ?null_entity_pointer_message@@3PBDB ; null_entity_pointer_message
  00348	50		 push	 eax
  00349	e8 00 00 00 00	 call	 ?process_assert@@YGXPBD0H@Z ; process_assert
  0034e	c7 45 a8 00 00
	00 00		 mov	 DWORD PTR tv232[ebp], 0
$LN36@kill_local:
  00355	b9 01 00 00 00	 mov	 ecx, 1
  0035a	85 c9		 test	 ecx, ecx
  0035c	74 09		 je	 SHORT $LN37@kill_local
  0035e	c7 45 a4 27 00
	00 00		 mov	 DWORD PTR tv240[ebp], 39 ; 00000027H
  00365	eb 21		 jmp	 SHORT $LN38@kill_local
$LN37@kill_local:
  00367	8b 15 00 00 00
	00		 mov	 edx, DWORD PTR ?__LINE__Var@?0??kill_local@@YGXPAUENTITY@@@Z@4JA
  0036d	83 c2 4f	 add	 edx, 79			; 0000004fH
  00370	52		 push	 edx
  00371	68 00 00 00 00	 push	 OFFSET ??_C@_0FE@LMONHLAE@c?3?2users?2nhv90?2projects?2eech?2ap@
  00376	a1 00 00 00 00	 mov	 eax, DWORD PTR ?overload_invalid_list_type_message@@3PBDB ; overload_invalid_list_type_message
  0037b	50		 push	 eax
  0037c	e8 00 00 00 00	 call	 ?process_assert@@YGXPBD0H@Z ; process_assert
  00381	c7 45 a4 00 00
	00 00		 mov	 DWORD PTR tv240[ebp], 0
$LN38@kill_local:
  00388	6a 27		 push	 39			; 00000027H
  0038a	8b 4d 08	 mov	 ecx, DWORD PTR _en$[ebp]
  0038d	51		 push	 ecx
  0038e	69 55 a8 b4 00
	00 00		 imul	 edx, DWORD PTR tv232[ebp], 180
  00395	8b 45 a4	 mov	 eax, DWORD PTR tv240[ebp]
  00398	8b 8c 82 00 00
	00 00		 mov	 ecx, DWORD PTR ?fn_get_local_entity_first_child@@3PAY0CN@P6GPAUENTITY@@PAU1@W4LIST_TYPES@@@ZA[edx+eax*4]
  0039f	ff d1		 call	 ecx
  003a1	89 45 f4	 mov	 DWORD PTR _task$[ebp], eax
$LN2@kill_local:

; 382  : 
; 383  : 		while (task)

  003a4	83 7d f4 00	 cmp	 DWORD PTR _task$[ebp], 0
  003a8	0f 84 d2 00 00
	00		 je	 $LN3@kill_local

; 384  : 		{
; 385  : 
; 386  : 			destroy_task = task;

  003ae	8b 45 f4	 mov	 eax, DWORD PTR _task$[ebp]
  003b1	89 45 f0	 mov	 DWORD PTR _destroy_task$[ebp], eax

; 387  : 
; 388  : 			task = get_local_entity_child_succ (task, LIST_TYPE_TASK_DEPENDENT);

  003b4	83 7d f4 00	 cmp	 DWORD PTR _task$[ebp], 0
  003b8	74 0a		 je	 SHORT $LN39@kill_local
  003ba	8b 45 f4	 mov	 eax, DWORD PTR _task$[ebp]
  003bd	8b 08		 mov	 ecx, DWORD PTR [eax]
  003bf	89 4d a8	 mov	 DWORD PTR tv253[ebp], ecx
  003c2	eb 21		 jmp	 SHORT $LN40@kill_local
$LN39@kill_local:
  003c4	8b 15 00 00 00
	00		 mov	 edx, DWORD PTR ?__LINE__Var@?0??kill_local@@YGXPAUENTITY@@@Z@4JA
  003ca	83 c2 56	 add	 edx, 86			; 00000056H
  003cd	52		 push	 edx
  003ce	68 00 00 00 00	 push	 OFFSET ??_C@_0FE@LMONHLAE@c?3?2users?2nhv90?2projects?2eech?2ap@
  003d3	a1 00 00 00 00	 mov	 eax, DWORD PTR ?null_entity_pointer_message@@3PBDB ; null_entity_pointer_message
  003d8	50		 push	 eax
  003d9	e8 00 00 00 00	 call	 ?process_assert@@YGXPBD0H@Z ; process_assert
  003de	c7 45 a8 00 00
	00 00		 mov	 DWORD PTR tv253[ebp], 0
$LN40@kill_local:
  003e5	b9 01 00 00 00	 mov	 ecx, 1
  003ea	85 c9		 test	 ecx, ecx
  003ec	74 09		 je	 SHORT $LN41@kill_local
  003ee	c7 45 a4 27 00
	00 00		 mov	 DWORD PTR tv261[ebp], 39 ; 00000027H
  003f5	eb 21		 jmp	 SHORT $LN42@kill_local
$LN41@kill_local:
  003f7	8b 15 00 00 00
	00		 mov	 edx, DWORD PTR ?__LINE__Var@?0??kill_local@@YGXPAUENTITY@@@Z@4JA
  003fd	83 c2 56	 add	 edx, 86			; 00000056H
  00400	52		 push	 edx
  00401	68 00 00 00 00	 push	 OFFSET ??_C@_0FE@LMONHLAE@c?3?2users?2nhv90?2projects?2eech?2ap@
  00406	a1 00 00 00 00	 mov	 eax, DWORD PTR ?overload_invalid_list_type_message@@3PBDB ; overload_invalid_list_type_message
  0040b	50		 push	 eax
  0040c	e8 00 00 00 00	 call	 ?process_assert@@YGXPBD0H@Z ; process_assert
  00411	c7 45 a4 00 00
	00 00		 mov	 DWORD PTR tv261[ebp], 0
$LN42@kill_local:
  00418	6a 27		 push	 39			; 00000027H
  0041a	8b 4d f4	 mov	 ecx, DWORD PTR _task$[ebp]
  0041d	51		 push	 ecx
  0041e	69 55 a8 b4 00
	00 00		 imul	 edx, DWORD PTR tv253[ebp], 180
  00425	8b 45 a4	 mov	 eax, DWORD PTR tv261[ebp]
  00428	8b 8c 82 00 00
	00 00		 mov	 ecx, DWORD PTR ?fn_get_local_entity_child_succ@@3PAY0CN@P6GPAUENTITY@@PAU1@W4LIST_TYPES@@@ZA[edx+eax*4]
  0042f	ff d1		 call	 ecx
  00431	89 45 f4	 mov	 DWORD PTR _task$[ebp], eax

; 389  : 
; 390  : 			if (get_local_entity_type (destroy_task) == ENTITY_TYPE_TASK)

  00434	83 7d f0 00	 cmp	 DWORD PTR _destroy_task$[ebp], 0
  00438	74 0a		 je	 SHORT $LN43@kill_local
  0043a	8b 45 f0	 mov	 eax, DWORD PTR _destroy_task$[ebp]
  0043d	8b 08		 mov	 ecx, DWORD PTR [eax]
  0043f	89 4d a8	 mov	 DWORD PTR tv272[ebp], ecx
  00442	eb 1d		 jmp	 SHORT $LN44@kill_local
$LN43@kill_local:
  00444	68 86 01 00 00	 push	 390			; 00000186H
  00449	68 00 00 00 00	 push	 OFFSET ??_C@_0FE@LMONHLAE@c?3?2users?2nhv90?2projects?2eech?2ap@
  0044e	8b 15 00 00 00
	00		 mov	 edx, DWORD PTR ?null_entity_pointer_message@@3PBDB ; null_entity_pointer_message
  00454	52		 push	 edx
  00455	e8 00 00 00 00	 call	 ?process_assert@@YGXPBD0H@Z ; process_assert
  0045a	c7 45 a8 00 00
	00 00		 mov	 DWORD PTR tv272[ebp], 0
$LN44@kill_local:
  00461	83 7d a8 22	 cmp	 DWORD PTR tv272[ebp], 34 ; 00000022H
  00465	75 14		 jne	 SHORT $LN8@kill_local

; 391  : 			{
; 392  : 
; 393  : 				#if DEBUG_MODULE
; 394  : 
; 395  : 				debug_log ("RV_DSTRY: killing routed vehicle, notifying task %s complete", entity_sub_type_task_names [get_local_entity_int_value (destroy_task, INT_TYPE_ENTITY_SUB_TYPE)]);
; 396  : 
; 397  : 				#endif
; 398  : 
; 399  : 				notify_local_entity (ENTITY_MESSAGE_TASK_COMPLETED, destroy_task, en, TASK_TERMINATED_OBJECTIVE_MESSAGE);

  00467	6a 04		 push	 4
  00469	8b 45 08	 mov	 eax, DWORD PTR _en$[ebp]
  0046c	50		 push	 eax
  0046d	8b 4d f0	 mov	 ecx, DWORD PTR _destroy_task$[ebp]
  00470	51		 push	 ecx
  00471	6a 32		 push	 50			; 00000032H
  00473	e8 00 00 00 00	 call	 ?notify_local_entity@@YAHW4ENTITY_MESSAGES@@PAUENTITY@@1ZZ ; notify_local_entity
  00478	83 c4 10	 add	 esp, 16			; 00000010H
$LN8@kill_local:

; 400  : 			}
; 401  : 		}

  0047b	e9 24 ff ff ff	 jmp	 $LN2@kill_local
$LN3@kill_local:

; 402  : 
; 403  : 		//
; 404  : 		// Release landing lock (if any)
; 405  : 		//
; 406  : 
; 407  : 		release_mobile_entity_landing_locks (en);

  00480	8b 45 08	 mov	 eax, DWORD PTR _en$[ebp]
  00483	50		 push	 eax
  00484	e8 00 00 00 00	 call	 ?release_mobile_entity_landing_locks@@YGXPAUENTITY@@@Z ; release_mobile_entity_landing_locks
$LN7@kill_local:

; 408  : 	}
; 409  : 
; 410  : 	////////////////////////////////////////
; 411  : 	//
; 412  : 	// UNLINK FROM SYSTEM
; 413  : 	//
; 414  : 	////////////////////////////////////////
; 415  : 
; 416  : 	//
; 417  : 	// routed_vehicle
; 418  : 	//
; 419  : 
; 420  : 	//
; 421  : 	// vehicle
; 422  : 	//
; 423  : 
; 424  : 	unlink_local_entity_children (en, LIST_TYPE_TASK_DEPENDENT);

  00489	6a 27		 push	 39			; 00000027H
  0048b	8b 45 08	 mov	 eax, DWORD PTR _en$[ebp]
  0048e	50		 push	 eax
  0048f	e8 00 00 00 00	 call	 ?unlink_local_entity_children@@YGXPAUENTITY@@W4LIST_TYPES@@@Z ; unlink_local_entity_children

; 425  : 
; 426  : 	unlink_local_entity_children (en, LIST_TYPE_MOVEMENT_DEPENDENT);

  00494	6a 1a		 push	 26			; 0000001aH
  00496	8b 45 08	 mov	 eax, DWORD PTR _en$[ebp]
  00499	50		 push	 eax
  0049a	e8 00 00 00 00	 call	 ?unlink_local_entity_children@@YGXPAUENTITY@@W4LIST_TYPES@@@Z ; unlink_local_entity_children

; 427  : 
; 428  : 	#if DEBUG_MODULE
; 429  : 
; 430  : 	debug_log ("RV_DSTRY: removing member %d from group %d", get_local_entity_index (en), get_local_entity_index (raw->vh.member_link.parent));
; 431  : 
; 432  : 	#endif
; 433  : 
; 434  : 	delete_local_entity_from_parents_child_list (en, LIST_TYPE_MEMBER);

  0049f	6a 19		 push	 25			; 00000019H
  004a1	8b 45 08	 mov	 eax, DWORD PTR _en$[ebp]
  004a4	50		 push	 eax
  004a5	e8 00 00 00 00	 call	 ?delete_local_entity_from_parents_child_list@@YGXPAUENTITY@@W4LIST_TYPES@@@Z ; delete_local_entity_from_parents_child_list

; 435  : 
; 436  : 	delete_local_entity_from_parents_child_list (en, LIST_TYPE_MOVEMENT_DEPENDENT);

  004aa	6a 1a		 push	 26			; 0000001aH
  004ac	8b 45 08	 mov	 eax, DWORD PTR _en$[ebp]
  004af	50		 push	 eax
  004b0	e8 00 00 00 00	 call	 ?delete_local_entity_from_parents_child_list@@YGXPAUENTITY@@W4LIST_TYPES@@@Z ; delete_local_entity_from_parents_child_list

; 437  : 
; 438  : 	delete_local_entity_from_parents_child_list (en, LIST_TYPE_FOLLOWER);

  004b5	6a 0d		 push	 13			; 0000000dH
  004b7	8b 45 08	 mov	 eax, DWORD PTR _en$[ebp]
  004ba	50		 push	 eax
  004bb	e8 00 00 00 00	 call	 ?delete_local_entity_from_parents_child_list@@YGXPAUENTITY@@W4LIST_TYPES@@@Z ; delete_local_entity_from_parents_child_list

; 439  : 
; 440  : 	// gunship_target_link
; 441  : 
; 442  : 	// member_link
; 443  : 
; 444  : 	// view_link
; 445  : 
; 446  : 	delete_local_entity_from_parents_child_list (en, LIST_TYPE_TAKEOFF_QUEUE);

  004c0	6a 25		 push	 37			; 00000025H
  004c2	8b 45 08	 mov	 eax, DWORD PTR _en$[ebp]
  004c5	50		 push	 eax
  004c6	e8 00 00 00 00	 call	 ?delete_local_entity_from_parents_child_list@@YGXPAUENTITY@@W4LIST_TYPES@@@Z ; delete_local_entity_from_parents_child_list

; 447  : 
; 448  : 	//
; 449  : 	// mobile
; 450  : 	//
; 451  : 
; 452  : 	//
; 453  : 	// kill weapon sound effects
; 454  : 	//
; 455  : 
; 456  : 	kill_local_entity_sound_type (en, ENTITY_SUB_TYPE_EFFECT_SOUND_CHAIN_GUN);

  004cb	6a 10		 push	 16			; 00000010H
  004cd	8b 45 08	 mov	 eax, DWORD PTR _en$[ebp]
  004d0	50		 push	 eax
  004d1	e8 00 00 00 00	 call	 ?kill_local_entity_sound_type@@YGXPAUENTITY@@H@Z ; kill_local_entity_sound_type

; 457  : 
; 458  : 	//
; 459  : 	// kill engine sound effects
; 460  : 	//
; 461  : 
; 462  : 	kill_local_entity_sound_type (en, ENTITY_SUB_TYPE_EFFECT_SOUND_ENGINE_LOOPING1);

  004d6	6a 15		 push	 21			; 00000015H
  004d8	8b 45 08	 mov	 eax, DWORD PTR _en$[ebp]
  004db	50		 push	 eax
  004dc	e8 00 00 00 00	 call	 ?kill_local_entity_sound_type@@YGXPAUENTITY@@H@Z ; kill_local_entity_sound_type

; 463  : 	kill_local_entity_sound_type (en, ENTITY_SUB_TYPE_EFFECT_SOUND_ENGINE_LOOPING2);

  004e1	6a 16		 push	 22			; 00000016H
  004e3	8b 45 08	 mov	 eax, DWORD PTR _en$[ebp]
  004e6	50		 push	 eax
  004e7	e8 00 00 00 00	 call	 ?kill_local_entity_sound_type@@YGXPAUENTITY@@H@Z ; kill_local_entity_sound_type

; 464  : 
; 465  : 	unlink_local_entity_children (en, LIST_TYPE_TARGET);

  004ec	6a 26		 push	 38			; 00000026H
  004ee	8b 45 08	 mov	 eax, DWORD PTR _en$[ebp]
  004f1	50		 push	 eax
  004f2	e8 00 00 00 00	 call	 ?unlink_local_entity_children@@YGXPAUENTITY@@W4LIST_TYPES@@@Z ; unlink_local_entity_children

; 466  : 
; 467  : 	delete_local_entity_from_parents_child_list (en, LIST_TYPE_PADLOCK);

  004f7	6a 1b		 push	 27			; 0000001bH
  004f9	8b 45 08	 mov	 eax, DWORD PTR _en$[ebp]
  004fc	50		 push	 eax
  004fd	e8 00 00 00 00	 call	 ?delete_local_entity_from_parents_child_list@@YGXPAUENTITY@@W4LIST_TYPES@@@Z ; delete_local_entity_from_parents_child_list

; 468  : 
; 469  : 	// sector_link
; 470  : 
; 471  : 	delete_local_entity_from_parents_child_list (en, LIST_TYPE_TARGET);

  00502	6a 26		 push	 38			; 00000026H
  00504	8b 45 08	 mov	 eax, DWORD PTR _en$[ebp]
  00507	50		 push	 eax
  00508	e8 00 00 00 00	 call	 ?delete_local_entity_from_parents_child_list@@YGXPAUENTITY@@W4LIST_TYPES@@@Z ; delete_local_entity_from_parents_child_list

; 472  : 
; 473  : 	// update_link
; 474  : 
; 475  : 	set_local_entity_int_value (en, INT_TYPE_OPERATIONAL_STATE, OPERATIONAL_STATE_DYING);

  0050d	83 7d 08 00	 cmp	 DWORD PTR _en$[ebp], 0
  00511	74 0a		 je	 SHORT $LN45@kill_local
  00513	8b 45 08	 mov	 eax, DWORD PTR _en$[ebp]
  00516	8b 08		 mov	 ecx, DWORD PTR [eax]
  00518	89 4d a8	 mov	 DWORD PTR tv309[ebp], ecx
  0051b	eb 24		 jmp	 SHORT $LN46@kill_local
$LN45@kill_local:
  0051d	8b 15 00 00 00
	00		 mov	 edx, DWORD PTR ?__LINE__Var@?0??kill_local@@YGXPAUENTITY@@@Z@4JA
  00523	81 c2 ad 00 00
	00		 add	 edx, 173		; 000000adH
  00529	52		 push	 edx
  0052a	68 00 00 00 00	 push	 OFFSET ??_C@_0FE@LMONHLAE@c?3?2users?2nhv90?2projects?2eech?2ap@
  0052f	a1 00 00 00 00	 mov	 eax, DWORD PTR ?null_entity_pointer_message@@3PBDB ; null_entity_pointer_message
  00534	50		 push	 eax
  00535	e8 00 00 00 00	 call	 ?process_assert@@YGXPBD0H@Z ; process_assert
  0053a	c7 45 a8 00 00
	00 00		 mov	 DWORD PTR tv309[ebp], 0
$LN46@kill_local:
  00541	b9 01 00 00 00	 mov	 ecx, 1
  00546	85 c9		 test	 ecx, ecx
  00548	74 09		 je	 SHORT $LN47@kill_local
  0054a	c7 45 a4 97 00
	00 00		 mov	 DWORD PTR tv317[ebp], 151 ; 00000097H
  00551	eb 24		 jmp	 SHORT $LN48@kill_local
$LN47@kill_local:
  00553	8b 15 00 00 00
	00		 mov	 edx, DWORD PTR ?__LINE__Var@?0??kill_local@@YGXPAUENTITY@@@Z@4JA
  00559	81 c2 ad 00 00
	00		 add	 edx, 173		; 000000adH
  0055f	52		 push	 edx
  00560	68 00 00 00 00	 push	 OFFSET ??_C@_0FE@LMONHLAE@c?3?2users?2nhv90?2projects?2eech?2ap@
  00565	a1 00 00 00 00	 mov	 eax, DWORD PTR ?overload_invalid_int_type_message@@3PBDB ; overload_invalid_int_type_message
  0056a	50		 push	 eax
  0056b	e8 00 00 00 00	 call	 ?process_assert@@YGXPBD0H@Z ; process_assert
  00570	c7 45 a4 00 00
	00 00		 mov	 DWORD PTR tv317[ebp], 0
$LN48@kill_local:
  00577	6a 03		 push	 3
  00579	68 97 00 00 00	 push	 151			; 00000097H
  0057e	8b 4d 08	 mov	 ecx, DWORD PTR _en$[ebp]
  00581	51		 push	 ecx
  00582	69 55 a8 5c 04
	00 00		 imul	 edx, DWORD PTR tv309[ebp], 1116
  00589	8b 45 a4	 mov	 eax, DWORD PTR tv317[ebp]
  0058c	8b 8c 82 00 00
	00 00		 mov	 ecx, DWORD PTR ?fn_set_local_entity_int_value@@3PAY0BBH@P6GXPAUENTITY@@W4INT_TYPES@@H@ZA[edx+eax*4]
  00593	ff d1		 call	 ecx

; 476  : 
; 477  : 	////////////////////////////////////////
; 478  : 	//
; 479  : 	// KILL
; 480  : 	//
; 481  : 	////////////////////////////////////////
; 482  : 
; 483  : 	// must be done before alive flag set to FALSE
; 484  : 	remove_mobile_values_from_sector (get_local_entity_parent (en, LIST_TYPE_SECTOR), en);

  00595	83 7d 08 00	 cmp	 DWORD PTR _en$[ebp], 0
  00599	74 0a		 je	 SHORT $LN49@kill_local
  0059b	8b 45 08	 mov	 eax, DWORD PTR _en$[ebp]
  0059e	8b 08		 mov	 ecx, DWORD PTR [eax]
  005a0	89 4d a8	 mov	 DWORD PTR tv330[ebp], ecx
  005a3	eb 24		 jmp	 SHORT $LN50@kill_local
$LN49@kill_local:
  005a5	8b 15 00 00 00
	00		 mov	 edx, DWORD PTR ?__LINE__Var@?0??kill_local@@YGXPAUENTITY@@@Z@4JA
  005ab	81 c2 b6 00 00
	00		 add	 edx, 182		; 000000b6H
  005b1	52		 push	 edx
  005b2	68 00 00 00 00	 push	 OFFSET ??_C@_0FE@LMONHLAE@c?3?2users?2nhv90?2projects?2eech?2ap@
  005b7	a1 00 00 00 00	 mov	 eax, DWORD PTR ?null_entity_pointer_message@@3PBDB ; null_entity_pointer_message
  005bc	50		 push	 eax
  005bd	e8 00 00 00 00	 call	 ?process_assert@@YGXPBD0H@Z ; process_assert
  005c2	c7 45 a8 00 00
	00 00		 mov	 DWORD PTR tv330[ebp], 0
$LN50@kill_local:
  005c9	b9 01 00 00 00	 mov	 ecx, 1
  005ce	85 c9		 test	 ecx, ecx
  005d0	74 09		 je	 SHORT $LN51@kill_local
  005d2	c7 45 a4 21 00
	00 00		 mov	 DWORD PTR tv338[ebp], 33 ; 00000021H
  005d9	eb 24		 jmp	 SHORT $LN52@kill_local
$LN51@kill_local:
  005db	8b 15 00 00 00
	00		 mov	 edx, DWORD PTR ?__LINE__Var@?0??kill_local@@YGXPAUENTITY@@@Z@4JA
  005e1	81 c2 b6 00 00
	00		 add	 edx, 182		; 000000b6H
  005e7	52		 push	 edx
  005e8	68 00 00 00 00	 push	 OFFSET ??_C@_0FE@LMONHLAE@c?3?2users?2nhv90?2projects?2eech?2ap@
  005ed	a1 00 00 00 00	 mov	 eax, DWORD PTR ?overload_invalid_list_type_message@@3PBDB ; overload_invalid_list_type_message
  005f2	50		 push	 eax
  005f3	e8 00 00 00 00	 call	 ?process_assert@@YGXPBD0H@Z ; process_assert
  005f8	c7 45 a4 00 00
	00 00		 mov	 DWORD PTR tv338[ebp], 0
$LN52@kill_local:
  005ff	8b 4d 08	 mov	 ecx, DWORD PTR _en$[ebp]
  00602	51		 push	 ecx
  00603	6a 21		 push	 33			; 00000021H
  00605	8b 55 08	 mov	 edx, DWORD PTR _en$[ebp]
  00608	52		 push	 edx
  00609	69 45 a8 b4 00
	00 00		 imul	 eax, DWORD PTR tv330[ebp], 180
  00610	8b 4d a4	 mov	 ecx, DWORD PTR tv338[ebp]
  00613	8b 94 88 00 00
	00 00		 mov	 edx, DWORD PTR ?fn_get_local_entity_parent@@3PAY0CN@P6GPAUENTITY@@PAU1@W4LIST_TYPES@@@ZA[eax+ecx*4]
  0061a	ff d2		 call	 edx
  0061c	50		 push	 eax
  0061d	e8 00 00 00 00	 call	 ?remove_mobile_values_from_sector@@YGXPAUENTITY@@0@Z ; remove_mobile_values_from_sector

; 485  : 
; 486  : 	set_local_entity_int_value (en, INT_TYPE_ALIVE, FALSE);

  00622	83 7d 08 00	 cmp	 DWORD PTR _en$[ebp], 0
  00626	74 0a		 je	 SHORT $LN53@kill_local
  00628	8b 45 08	 mov	 eax, DWORD PTR _en$[ebp]
  0062b	8b 08		 mov	 ecx, DWORD PTR [eax]
  0062d	89 4d a8	 mov	 DWORD PTR tv351[ebp], ecx
  00630	eb 24		 jmp	 SHORT $LN54@kill_local
$LN53@kill_local:
  00632	8b 15 00 00 00
	00		 mov	 edx, DWORD PTR ?__LINE__Var@?0??kill_local@@YGXPAUENTITY@@@Z@4JA
  00638	81 c2 b8 00 00
	00		 add	 edx, 184		; 000000b8H
  0063e	52		 push	 edx
  0063f	68 00 00 00 00	 push	 OFFSET ??_C@_0FE@LMONHLAE@c?3?2users?2nhv90?2projects?2eech?2ap@
  00644	a1 00 00 00 00	 mov	 eax, DWORD PTR ?null_entity_pointer_message@@3PBDB ; null_entity_pointer_message
  00649	50		 push	 eax
  0064a	e8 00 00 00 00	 call	 ?process_assert@@YGXPBD0H@Z ; process_assert
  0064f	c7 45 a8 00 00
	00 00		 mov	 DWORD PTR tv351[ebp], 0
$LN54@kill_local:
  00656	b9 01 00 00 00	 mov	 ecx, 1
  0065b	85 c9		 test	 ecx, ecx
  0065d	74 09		 je	 SHORT $LN55@kill_local
  0065f	c7 45 a4 07 00
	00 00		 mov	 DWORD PTR tv359[ebp], 7
  00666	eb 24		 jmp	 SHORT $LN56@kill_local
$LN55@kill_local:
  00668	8b 15 00 00 00
	00		 mov	 edx, DWORD PTR ?__LINE__Var@?0??kill_local@@YGXPAUENTITY@@@Z@4JA
  0066e	81 c2 b8 00 00
	00		 add	 edx, 184		; 000000b8H
  00674	52		 push	 edx
  00675	68 00 00 00 00	 push	 OFFSET ??_C@_0FE@LMONHLAE@c?3?2users?2nhv90?2projects?2eech?2ap@
  0067a	a1 00 00 00 00	 mov	 eax, DWORD PTR ?overload_invalid_int_type_message@@3PBDB ; overload_invalid_int_type_message
  0067f	50		 push	 eax
  00680	e8 00 00 00 00	 call	 ?process_assert@@YGXPBD0H@Z ; process_assert
  00685	c7 45 a4 00 00
	00 00		 mov	 DWORD PTR tv359[ebp], 0
$LN56@kill_local:
  0068c	6a 00		 push	 0
  0068e	6a 07		 push	 7
  00690	8b 4d 08	 mov	 ecx, DWORD PTR _en$[ebp]
  00693	51		 push	 ecx
  00694	69 55 a8 5c 04
	00 00		 imul	 edx, DWORD PTR tv351[ebp], 1116
  0069b	8b 45 a4	 mov	 eax, DWORD PTR tv359[ebp]
  0069e	8b 8c 82 00 00
	00 00		 mov	 ecx, DWORD PTR ?fn_set_local_entity_int_value@@3PAY0BBH@P6GXPAUENTITY@@W4INT_TYPES@@H@ZA[edx+eax*4]
  006a5	ff d1		 call	 ecx

; 487  : 
; 488  : 	damage_routed_vehicle_3d_object (en);

  006a7	8b 45 08	 mov	 eax, DWORD PTR _en$[ebp]
  006aa	50		 push	 eax
  006ab	e8 00 00 00 00	 call	 ?damage_routed_vehicle_3d_object@@YGXPAUENTITY@@@Z ; damage_routed_vehicle_3d_object

; 489  : 
; 490  : 	//
; 491  : 	// group losses
; 492  : 	//
; 493  : 
; 494  : 	losses = get_local_entity_int_value (group, INT_TYPE_LOSSES);

  006b0	83 7d ec 00	 cmp	 DWORD PTR _group$[ebp], 0
  006b4	74 0a		 je	 SHORT $LN57@kill_local
  006b6	8b 45 ec	 mov	 eax, DWORD PTR _group$[ebp]
  006b9	8b 08		 mov	 ecx, DWORD PTR [eax]
  006bb	89 4d a8	 mov	 DWORD PTR tv372[ebp], ecx
  006be	eb 24		 jmp	 SHORT $LN58@kill_local
$LN57@kill_local:
  006c0	8b 15 00 00 00
	00		 mov	 edx, DWORD PTR ?__LINE__Var@?0??kill_local@@YGXPAUENTITY@@@Z@4JA
  006c6	81 c2 c0 00 00
	00		 add	 edx, 192		; 000000c0H
  006cc	52		 push	 edx
  006cd	68 00 00 00 00	 push	 OFFSET ??_C@_0FE@LMONHLAE@c?3?2users?2nhv90?2projects?2eech?2ap@
  006d2	a1 00 00 00 00	 mov	 eax, DWORD PTR ?null_entity_pointer_message@@3PBDB ; null_entity_pointer_message
  006d7	50		 push	 eax
  006d8	e8 00 00 00 00	 call	 ?process_assert@@YGXPBD0H@Z ; process_assert
  006dd	c7 45 a8 00 00
	00 00		 mov	 DWORD PTR tv372[ebp], 0
$LN58@kill_local:
  006e4	b9 01 00 00 00	 mov	 ecx, 1
  006e9	85 c9		 test	 ecx, ecx
  006eb	74 09		 je	 SHORT $LN59@kill_local
  006ed	c7 45 a4 7f 00
	00 00		 mov	 DWORD PTR tv380[ebp], 127 ; 0000007fH
  006f4	eb 24		 jmp	 SHORT $LN60@kill_local
$LN59@kill_local:
  006f6	8b 15 00 00 00
	00		 mov	 edx, DWORD PTR ?__LINE__Var@?0??kill_local@@YGXPAUENTITY@@@Z@4JA
  006fc	81 c2 c0 00 00
	00		 add	 edx, 192		; 000000c0H
  00702	52		 push	 edx
  00703	68 00 00 00 00	 push	 OFFSET ??_C@_0FE@LMONHLAE@c?3?2users?2nhv90?2projects?2eech?2ap@
  00708	a1 00 00 00 00	 mov	 eax, DWORD PTR ?overload_invalid_int_type_message@@3PBDB ; overload_invalid_int_type_message
  0070d	50		 push	 eax
  0070e	e8 00 00 00 00	 call	 ?process_assert@@YGXPBD0H@Z ; process_assert
  00713	c7 45 a4 00 00
	00 00		 mov	 DWORD PTR tv380[ebp], 0
$LN60@kill_local:
  0071a	6a 7f		 push	 127			; 0000007fH
  0071c	8b 4d ec	 mov	 ecx, DWORD PTR _group$[ebp]
  0071f	51		 push	 ecx
  00720	69 55 a8 5c 04
	00 00		 imul	 edx, DWORD PTR tv372[ebp], 1116
  00727	8b 45 a4	 mov	 eax, DWORD PTR tv380[ebp]
  0072a	8b 8c 82 00 00
	00 00		 mov	 ecx, DWORD PTR ?fn_get_local_entity_int_value@@3PAY0BBH@P6GHPAUENTITY@@W4INT_TYPES@@@ZA[edx+eax*4]
  00731	ff d1		 call	 ecx
  00733	89 45 fc	 mov	 DWORD PTR _losses$[ebp], eax

; 495  : 
; 496  : 	losses ++;

  00736	8b 45 fc	 mov	 eax, DWORD PTR _losses$[ebp]
  00739	83 c0 01	 add	 eax, 1
  0073c	89 45 fc	 mov	 DWORD PTR _losses$[ebp], eax

; 497  : 
; 498  : 	set_local_entity_int_value (group, INT_TYPE_LOSSES, losses);

  0073f	83 7d ec 00	 cmp	 DWORD PTR _group$[ebp], 0
  00743	74 0a		 je	 SHORT $LN61@kill_local
  00745	8b 45 ec	 mov	 eax, DWORD PTR _group$[ebp]
  00748	8b 08		 mov	 ecx, DWORD PTR [eax]
  0074a	89 4d a8	 mov	 DWORD PTR tv393[ebp], ecx
  0074d	eb 24		 jmp	 SHORT $LN62@kill_local
$LN61@kill_local:
  0074f	8b 15 00 00 00
	00		 mov	 edx, DWORD PTR ?__LINE__Var@?0??kill_local@@YGXPAUENTITY@@@Z@4JA
  00755	81 c2 c4 00 00
	00		 add	 edx, 196		; 000000c4H
  0075b	52		 push	 edx
  0075c	68 00 00 00 00	 push	 OFFSET ??_C@_0FE@LMONHLAE@c?3?2users?2nhv90?2projects?2eech?2ap@
  00761	a1 00 00 00 00	 mov	 eax, DWORD PTR ?null_entity_pointer_message@@3PBDB ; null_entity_pointer_message
  00766	50		 push	 eax
  00767	e8 00 00 00 00	 call	 ?process_assert@@YGXPBD0H@Z ; process_assert
  0076c	c7 45 a8 00 00
	00 00		 mov	 DWORD PTR tv393[ebp], 0
$LN62@kill_local:
  00773	b9 01 00 00 00	 mov	 ecx, 1
  00778	85 c9		 test	 ecx, ecx
  0077a	74 09		 je	 SHORT $LN63@kill_local
  0077c	c7 45 a4 7f 00
	00 00		 mov	 DWORD PTR tv401[ebp], 127 ; 0000007fH
  00783	eb 24		 jmp	 SHORT $LN64@kill_local
$LN63@kill_local:
  00785	8b 15 00 00 00
	00		 mov	 edx, DWORD PTR ?__LINE__Var@?0??kill_local@@YGXPAUENTITY@@@Z@4JA
  0078b	81 c2 c4 00 00
	00		 add	 edx, 196		; 000000c4H
  00791	52		 push	 edx
  00792	68 00 00 00 00	 push	 OFFSET ??_C@_0FE@LMONHLAE@c?3?2users?2nhv90?2projects?2eech?2ap@
  00797	a1 00 00 00 00	 mov	 eax, DWORD PTR ?overload_invalid_int_type_message@@3PBDB ; overload_invalid_int_type_message
  0079c	50		 push	 eax
  0079d	e8 00 00 00 00	 call	 ?process_assert@@YGXPBD0H@Z ; process_assert
  007a2	c7 45 a4 00 00
	00 00		 mov	 DWORD PTR tv401[ebp], 0
$LN64@kill_local:
  007a9	8b 4d fc	 mov	 ecx, DWORD PTR _losses$[ebp]
  007ac	51		 push	 ecx
  007ad	6a 7f		 push	 127			; 0000007fH
  007af	8b 55 ec	 mov	 edx, DWORD PTR _group$[ebp]
  007b2	52		 push	 edx
  007b3	69 45 a8 5c 04
	00 00		 imul	 eax, DWORD PTR tv393[ebp], 1116
  007ba	8b 4d a4	 mov	 ecx, DWORD PTR tv401[ebp]
  007bd	8b 94 88 00 00
	00 00		 mov	 edx, DWORD PTR ?fn_set_local_entity_int_value@@3PAY0BBH@P6GXPAUENTITY@@W4INT_TYPES@@H@ZA[eax+ecx*4]
  007c4	ff d2		 call	 edx

; 499  : 
; 500  : 	//
; 501  : 	// task losses
; 502  : 	//
; 503  : 
; 504  : 	task = get_local_group_primary_task (group);

  007c6	8b 45 ec	 mov	 eax, DWORD PTR _group$[ebp]
  007c9	50		 push	 eax
  007ca	e8 00 00 00 00	 call	 ?get_local_group_primary_task@@YGPAUENTITY@@PAU1@@Z ; get_local_group_primary_task
  007cf	89 45 f4	 mov	 DWORD PTR _task$[ebp], eax

; 505  : 
; 506  : 	if (task)

  007d2	83 7d f4 00	 cmp	 DWORD PTR _task$[ebp], 0
  007d6	0f 84 16 01 00
	00		 je	 $LN9@kill_local

; 507  : 	{
; 508  : 		losses = get_local_entity_int_value (task, INT_TYPE_LOSSES);

  007dc	83 7d f4 00	 cmp	 DWORD PTR _task$[ebp], 0
  007e0	74 0a		 je	 SHORT $LN65@kill_local
  007e2	8b 45 f4	 mov	 eax, DWORD PTR _task$[ebp]
  007e5	8b 08		 mov	 ecx, DWORD PTR [eax]
  007e7	89 4d a8	 mov	 DWORD PTR tv416[ebp], ecx
  007ea	eb 24		 jmp	 SHORT $LN66@kill_local
$LN65@kill_local:
  007ec	8b 15 00 00 00
	00		 mov	 edx, DWORD PTR ?__LINE__Var@?0??kill_local@@YGXPAUENTITY@@@Z@4JA
  007f2	81 c2 ce 00 00
	00		 add	 edx, 206		; 000000ceH
  007f8	52		 push	 edx
  007f9	68 00 00 00 00	 push	 OFFSET ??_C@_0FE@LMONHLAE@c?3?2users?2nhv90?2projects?2eech?2ap@
  007fe	a1 00 00 00 00	 mov	 eax, DWORD PTR ?null_entity_pointer_message@@3PBDB ; null_entity_pointer_message
  00803	50		 push	 eax
  00804	e8 00 00 00 00	 call	 ?process_assert@@YGXPBD0H@Z ; process_assert
  00809	c7 45 a8 00 00
	00 00		 mov	 DWORD PTR tv416[ebp], 0
$LN66@kill_local:
  00810	b9 01 00 00 00	 mov	 ecx, 1
  00815	85 c9		 test	 ecx, ecx
  00817	74 09		 je	 SHORT $LN67@kill_local
  00819	c7 45 a4 7f 00
	00 00		 mov	 DWORD PTR tv424[ebp], 127 ; 0000007fH
  00820	eb 24		 jmp	 SHORT $LN68@kill_local
$LN67@kill_local:
  00822	8b 15 00 00 00
	00		 mov	 edx, DWORD PTR ?__LINE__Var@?0??kill_local@@YGXPAUENTITY@@@Z@4JA
  00828	81 c2 ce 00 00
	00		 add	 edx, 206		; 000000ceH
  0082e	52		 push	 edx
  0082f	68 00 00 00 00	 push	 OFFSET ??_C@_0FE@LMONHLAE@c?3?2users?2nhv90?2projects?2eech?2ap@
  00834	a1 00 00 00 00	 mov	 eax, DWORD PTR ?overload_invalid_int_type_message@@3PBDB ; overload_invalid_int_type_message
  00839	50		 push	 eax
  0083a	e8 00 00 00 00	 call	 ?process_assert@@YGXPBD0H@Z ; process_assert
  0083f	c7 45 a4 00 00
	00 00		 mov	 DWORD PTR tv424[ebp], 0
$LN68@kill_local:
  00846	6a 7f		 push	 127			; 0000007fH
  00848	8b 4d f4	 mov	 ecx, DWORD PTR _task$[ebp]
  0084b	51		 push	 ecx
  0084c	69 55 a8 5c 04
	00 00		 imul	 edx, DWORD PTR tv416[ebp], 1116
  00853	8b 45 a4	 mov	 eax, DWORD PTR tv424[ebp]
  00856	8b 8c 82 00 00
	00 00		 mov	 ecx, DWORD PTR ?fn_get_local_entity_int_value@@3PAY0BBH@P6GHPAUENTITY@@W4INT_TYPES@@@ZA[edx+eax*4]
  0085d	ff d1		 call	 ecx
  0085f	89 45 fc	 mov	 DWORD PTR _losses$[ebp], eax

; 509  : 
; 510  : 		losses ++;

  00862	8b 45 fc	 mov	 eax, DWORD PTR _losses$[ebp]
  00865	83 c0 01	 add	 eax, 1
  00868	89 45 fc	 mov	 DWORD PTR _losses$[ebp], eax

; 511  : 
; 512  : 		set_local_entity_int_value (task, INT_TYPE_LOSSES, losses);

  0086b	83 7d f4 00	 cmp	 DWORD PTR _task$[ebp], 0
  0086f	74 0a		 je	 SHORT $LN69@kill_local
  00871	8b 45 f4	 mov	 eax, DWORD PTR _task$[ebp]
  00874	8b 08		 mov	 ecx, DWORD PTR [eax]
  00876	89 4d a8	 mov	 DWORD PTR tv437[ebp], ecx
  00879	eb 24		 jmp	 SHORT $LN70@kill_local
$LN69@kill_local:
  0087b	8b 15 00 00 00
	00		 mov	 edx, DWORD PTR ?__LINE__Var@?0??kill_local@@YGXPAUENTITY@@@Z@4JA
  00881	81 c2 d2 00 00
	00		 add	 edx, 210		; 000000d2H
  00887	52		 push	 edx
  00888	68 00 00 00 00	 push	 OFFSET ??_C@_0FE@LMONHLAE@c?3?2users?2nhv90?2projects?2eech?2ap@
  0088d	a1 00 00 00 00	 mov	 eax, DWORD PTR ?null_entity_pointer_message@@3PBDB ; null_entity_pointer_message
  00892	50		 push	 eax
  00893	e8 00 00 00 00	 call	 ?process_assert@@YGXPBD0H@Z ; process_assert
  00898	c7 45 a8 00 00
	00 00		 mov	 DWORD PTR tv437[ebp], 0
$LN70@kill_local:
  0089f	b9 01 00 00 00	 mov	 ecx, 1
  008a4	85 c9		 test	 ecx, ecx
  008a6	74 09		 je	 SHORT $LN71@kill_local
  008a8	c7 45 a4 7f 00
	00 00		 mov	 DWORD PTR tv445[ebp], 127 ; 0000007fH
  008af	eb 24		 jmp	 SHORT $LN72@kill_local
$LN71@kill_local:
  008b1	8b 15 00 00 00
	00		 mov	 edx, DWORD PTR ?__LINE__Var@?0??kill_local@@YGXPAUENTITY@@@Z@4JA
  008b7	81 c2 d2 00 00
	00		 add	 edx, 210		; 000000d2H
  008bd	52		 push	 edx
  008be	68 00 00 00 00	 push	 OFFSET ??_C@_0FE@LMONHLAE@c?3?2users?2nhv90?2projects?2eech?2ap@
  008c3	a1 00 00 00 00	 mov	 eax, DWORD PTR ?overload_invalid_int_type_message@@3PBDB ; overload_invalid_int_type_message
  008c8	50		 push	 eax
  008c9	e8 00 00 00 00	 call	 ?process_assert@@YGXPBD0H@Z ; process_assert
  008ce	c7 45 a4 00 00
	00 00		 mov	 DWORD PTR tv445[ebp], 0
$LN72@kill_local:
  008d5	8b 4d fc	 mov	 ecx, DWORD PTR _losses$[ebp]
  008d8	51		 push	 ecx
  008d9	6a 7f		 push	 127			; 0000007fH
  008db	8b 55 f4	 mov	 edx, DWORD PTR _task$[ebp]
  008de	52		 push	 edx
  008df	69 45 a8 5c 04
	00 00		 imul	 eax, DWORD PTR tv437[ebp], 1116
  008e6	8b 4d a4	 mov	 ecx, DWORD PTR tv445[ebp]
  008e9	8b 94 88 00 00
	00 00		 mov	 edx, DWORD PTR ?fn_set_local_entity_int_value@@3PAY0BBH@P6GXPAUENTITY@@W4INT_TYPES@@H@ZA[eax+ecx*4]
  008f0	ff d2		 call	 edx
$LN9@kill_local:

; 513  : 	}
; 514  : 
; 515  : 	//
; 516  : 	// Notify Campaign Screen
; 517  : 	//
; 518  : 
; 519  : 	notify_campaign_screen (CAMPAIGN_SCREEN_GROUP_REMOVE_MEMBER, group);

  008f2	8b 45 ec	 mov	 eax, DWORD PTR _group$[ebp]
  008f5	50		 push	 eax
  008f6	6a 08		 push	 8
  008f8	e8 00 00 00 00	 call	 ?notify_campaign_screen@@YGHW4CAMPAIGN_SCREEN_MESSAGES@@PAUENTITY@@@Z ; notify_campaign_screen

; 520  : 
; 521  : 	//
; 522  : 	// Notify the GROUP that the mobile has been killed  (N.B. must be done AFTER mobile is unlinked from member list)
; 523  : 	//
; 524  : 
; 525  : 	if (get_comms_model () == COMMS_MODEL_SERVER)

  008fd	83 3d 00 00 00
	00 00		 cmp	 DWORD PTR ?system_comms_model@@3W4COMMS_MODEL_TYPES@@A, 0 ; system_comms_model
  00904	75 12		 jne	 SHORT $LN10@kill_local

; 526  : 	{
; 527  : 		notify_local_entity (ENTITY_MESSAGE_MOBILE_KILLED, group, en);

  00906	8b 45 08	 mov	 eax, DWORD PTR _en$[ebp]
  00909	50		 push	 eax
  0090a	8b 4d ec	 mov	 ecx, DWORD PTR _group$[ebp]
  0090d	51		 push	 ecx
  0090e	6a 28		 push	 40			; 00000028H
  00910	e8 00 00 00 00	 call	 ?notify_local_entity@@YAHW4ENTITY_MESSAGES@@PAUENTITY@@1ZZ ; notify_local_entity
  00915	83 c4 0c	 add	 esp, 12			; 0000000cH
$LN10@kill_local:

; 528  : 	}
; 529  : 
; 530  : 	////////////////////////////////////////
; 531  : 	//
; 532  : 	// SPECIAL EFFECTS
; 533  : 	//
; 534  : 	////////////////////////////////////////
; 535  : 
; 536  : 	set_local_entity_float_value (en, FLOAT_TYPE_DEATH_TIMER, calculate_mobile_death_timer_value (en));

  00918	83 7d 08 00	 cmp	 DWORD PTR _en$[ebp], 0
  0091c	74 0a		 je	 SHORT $LN73@kill_local
  0091e	8b 45 08	 mov	 eax, DWORD PTR _en$[ebp]
  00921	8b 08		 mov	 ecx, DWORD PTR [eax]
  00923	89 4d a8	 mov	 DWORD PTR tv463[ebp], ecx
  00926	eb 24		 jmp	 SHORT $LN74@kill_local
$LN73@kill_local:
  00928	8b 15 00 00 00
	00		 mov	 edx, DWORD PTR ?__LINE__Var@?0??kill_local@@YGXPAUENTITY@@@Z@4JA
  0092e	81 c2 ea 00 00
	00		 add	 edx, 234		; 000000eaH
  00934	52		 push	 edx
  00935	68 00 00 00 00	 push	 OFFSET ??_C@_0FE@LMONHLAE@c?3?2users?2nhv90?2projects?2eech?2ap@
  0093a	a1 00 00 00 00	 mov	 eax, DWORD PTR ?null_entity_pointer_message@@3PBDB ; null_entity_pointer_message
  0093f	50		 push	 eax
  00940	e8 00 00 00 00	 call	 ?process_assert@@YGXPBD0H@Z ; process_assert
  00945	c7 45 a8 00 00
	00 00		 mov	 DWORD PTR tv463[ebp], 0
$LN74@kill_local:
  0094c	b9 01 00 00 00	 mov	 ecx, 1
  00951	85 c9		 test	 ecx, ecx
  00953	74 09		 je	 SHORT $LN75@kill_local
  00955	c7 45 a4 1b 00
	00 00		 mov	 DWORD PTR tv471[ebp], 27 ; 0000001bH
  0095c	eb 24		 jmp	 SHORT $LN76@kill_local
$LN75@kill_local:
  0095e	8b 15 00 00 00
	00		 mov	 edx, DWORD PTR ?__LINE__Var@?0??kill_local@@YGXPAUENTITY@@@Z@4JA
  00964	81 c2 ea 00 00
	00		 add	 edx, 234		; 000000eaH
  0096a	52		 push	 edx
  0096b	68 00 00 00 00	 push	 OFFSET ??_C@_0FE@LMONHLAE@c?3?2users?2nhv90?2projects?2eech?2ap@
  00970	a1 00 00 00 00	 mov	 eax, DWORD PTR ?overload_invalid_float_type_message@@3PBDB ; overload_invalid_float_type_message
  00975	50		 push	 eax
  00976	e8 00 00 00 00	 call	 ?process_assert@@YGXPBD0H@Z ; process_assert
  0097b	c7 45 a4 00 00
	00 00		 mov	 DWORD PTR tv471[ebp], 0
$LN76@kill_local:
  00982	8b 4d 08	 mov	 ecx, DWORD PTR _en$[ebp]
  00985	51		 push	 ecx
  00986	e8 00 00 00 00	 call	 ?calculate_mobile_death_timer_value@@YGMPAUENTITY@@@Z ; calculate_mobile_death_timer_value
  0098b	d9 5d a0	 fstp	 DWORD PTR tv687[ebp]
  0098e	f3 0f 10 45 a0	 movss	 xmm0, DWORD PTR tv687[ebp]
  00993	51		 push	 ecx
  00994	f3 0f 11 04 24	 movss	 DWORD PTR [esp], xmm0
  00999	6a 1b		 push	 27			; 0000001bH
  0099b	8b 55 08	 mov	 edx, DWORD PTR _en$[ebp]
  0099e	52		 push	 edx
  0099f	69 45 a8 bc 02
	00 00		 imul	 eax, DWORD PTR tv463[ebp], 700
  009a6	8b 4d a4	 mov	 ecx, DWORD PTR tv471[ebp]
  009a9	8b 94 88 00 00
	00 00		 mov	 edx, DWORD PTR ?fn_set_local_entity_float_value@@3PAY0KP@P6GXPAUENTITY@@W4FLOAT_TYPES@@M@ZA[eax+ecx*4]
  009b0	ff d2		 call	 edx

; 537  : 
; 538  : 	routed_vehicle_impact_movement (en);

  009b2	8b 45 08	 mov	 eax, DWORD PTR _en$[ebp]
  009b5	50		 push	 eax
  009b6	e8 00 00 00 00	 call	 ?routed_vehicle_impact_movement@@YGXPAUENTITY@@@Z ; routed_vehicle_impact_movement

; 539  : 
; 540  : 	if (get_comms_model () == COMMS_MODEL_SERVER)

  009bb	83 3d 00 00 00
	00 00		 cmp	 DWORD PTR ?system_comms_model@@3W4COMMS_MODEL_TYPES@@A, 0 ; system_comms_model
  009c2	75 09		 jne	 SHORT $LN11@kill_local

; 541  : 	{
; 542  : 		create_client_server_object_killed_explosion_effect (en);

  009c4	8b 45 08	 mov	 eax, DWORD PTR _en$[ebp]
  009c7	50		 push	 eax
  009c8	e8 00 00 00 00	 call	 ?create_client_server_object_killed_explosion_effect@@YGXPAUENTITY@@@Z ; create_client_server_object_killed_explosion_effect
$LN11@kill_local:

; 543  : 	}
; 544  : 
; 545  : 	#if LANDING_ROUTE_CHECK
; 546  : 
; 547  : 	destroy_debug_entity_landing_route_check (en);

  009cd	8b 45 08	 mov	 eax, DWORD PTR _en$[ebp]
  009d0	50		 push	 eax
  009d1	e8 00 00 00 00	 call	 ?destroy_debug_entity_landing_route_check@@YGXPAUENTITY@@@Z ; destroy_debug_entity_landing_route_check
$LN1@kill_local:

; 548  : 
; 549  : 	#endif
; 550  : 
; 551  : 	/////////////////////////////////////////////////////////////////
; 552  : 	//
; 553  : 	// SPECIAL_EFFECT_HOOK FOR BEING_DESTROYED
; 554  : 	//
; 555  : 	////////////////////////////////////////////////////////////////
; 556  : 
; 557  : 	/////////////////////////////////////////////////////////////////
; 558  : 	//
; 559  : 	//
; 560  : 	/////////////////////////////////////////////////////////////////
; 561  : }

  009d6	5f		 pop	 edi
  009d7	5e		 pop	 esi
  009d8	5b		 pop	 ebx
  009d9	8b e5		 mov	 esp, ebp
  009db	5d		 pop	 ebp
  009dc	c2 04 00	 ret	 4
?kill_local@@YGXPAUENTITY@@@Z ENDP			; kill_local
_TEXT	ENDS
; Function compile flags: /Odtp /ZI
; File c:\users\nhv90\projects\eech\aphavoc\source\entity\mobile\vehicle\routed\rv_dstry.c
;	COMDAT ?destroy_client_family@@YGXPAUENTITY@@@Z
_TEXT	SEGMENT
_en$ = 8						; size = 4
?destroy_client_family@@YGXPAUENTITY@@@Z PROC		; destroy_client_family, COMDAT

; 287  : {

  00000	55		 push	 ebp
  00001	8b ec		 mov	 ebp, esp
  00003	83 ec 40	 sub	 esp, 64			; 00000040H
  00006	53		 push	 ebx
  00007	56		 push	 esi
  00008	57		 push	 edi

; 288  : 	#if DEBUG_MODULE >= 2
; 289  : 
; 290  : 	debug_log_entity_args (ENTITY_DEBUG_REMOTE, ENTITY_DEBUG_DESTROY_FAMILY, en);
; 291  : 
; 292  : 	#endif
; 293  : 
; 294  : 	transmit_entity_comms_message (ENTITY_COMMS_DESTROY_FAMILY, en);

  00009	8b 45 08	 mov	 eax, DWORD PTR _en$[ebp]
  0000c	50		 push	 eax
  0000d	6a 13		 push	 19			; 00000013H
  0000f	e8 00 00 00 00	 call	 ?transmit_entity_comms_message@@YAXW4ENTITY_COMMS_MESSAGES@@PAUENTITY@@ZZ ; transmit_entity_comms_message
  00014	83 c4 08	 add	 esp, 8

; 295  : }

  00017	5f		 pop	 edi
  00018	5e		 pop	 esi
  00019	5b		 pop	 ebx
  0001a	8b e5		 mov	 esp, ebp
  0001c	5d		 pop	 ebp
  0001d	c2 04 00	 ret	 4
?destroy_client_family@@YGXPAUENTITY@@@Z ENDP		; destroy_client_family
_TEXT	ENDS
; Function compile flags: /Odtp /ZI
; File c:\users\nhv90\projects\eech\aphavoc\source\entity\mobile\vehicle\routed\rv_dstry.c
;	COMDAT ?destroy_server_family@@YGXPAUENTITY@@@Z
_TEXT	SEGMENT
tv73 = -68						; size = 4
_en$ = 8						; size = 4
?destroy_server_family@@YGXPAUENTITY@@@Z PROC		; destroy_server_family, COMDAT

; 274  : {

  00000	55		 push	 ebp
  00001	8b ec		 mov	 ebp, esp
  00003	83 ec 44	 sub	 esp, 68			; 00000044H
  00006	53		 push	 ebx
  00007	56		 push	 esi
  00008	57		 push	 edi

; 275  : 	destroy_client_server_entity_children (en, LIST_TYPE_MOVEMENT_DEPENDENT);

  00009	6a 1a		 push	 26			; 0000001aH
  0000b	8b 45 08	 mov	 eax, DWORD PTR _en$[ebp]
  0000e	50		 push	 eax
  0000f	e8 00 00 00 00	 call	 ?destroy_client_server_entity_children@@YGXPAUENTITY@@W4LIST_TYPES@@@Z ; destroy_client_server_entity_children

; 276  : 
; 277  : 	destroy_client_server_sound_effects (en);

  00014	8b 45 08	 mov	 eax, DWORD PTR _en$[ebp]
  00017	50		 push	 eax
  00018	e8 00 00 00 00	 call	 ?destroy_client_server_sound_effects@@YGXPAUENTITY@@@Z ; destroy_client_server_sound_effects

; 278  : 
; 279  : 	destroy_client_server_entity (en);

  0001d	83 7d 08 00	 cmp	 DWORD PTR _en$[ebp], 0
  00021	74 0a		 je	 SHORT $LN3@destroy_se
  00023	8b 45 08	 mov	 eax, DWORD PTR _en$[ebp]
  00026	8b 08		 mov	 ecx, DWORD PTR [eax]
  00028	89 4d bc	 mov	 DWORD PTR tv73[ebp], ecx
  0002b	eb 21		 jmp	 SHORT $LN4@destroy_se
$LN3@destroy_se:
  0002d	8b 15 00 00 00
	00		 mov	 edx, DWORD PTR ?__LINE__Var@?0??destroy_server_family@@YGXPAUENTITY@@@Z@4JA
  00033	83 c2 05	 add	 edx, 5
  00036	52		 push	 edx
  00037	68 00 00 00 00	 push	 OFFSET ??_C@_0FE@LMONHLAE@c?3?2users?2nhv90?2projects?2eech?2ap@
  0003c	a1 00 00 00 00	 mov	 eax, DWORD PTR ?null_entity_pointer_message@@3PBDB ; null_entity_pointer_message
  00041	50		 push	 eax
  00042	e8 00 00 00 00	 call	 ?process_assert@@YGXPBD0H@Z ; process_assert
  00047	c7 45 bc 00 00
	00 00		 mov	 DWORD PTR tv73[ebp], 0
$LN4@destroy_se:
  0004e	8b 4d 08	 mov	 ecx, DWORD PTR _en$[ebp]
  00051	51		 push	 ecx
  00052	8b 15 00 00 00
	00		 mov	 edx, DWORD PTR ?system_comms_model@@3W4COMMS_MODEL_TYPES@@A ; system_comms_model
  00058	c1 e2 02	 shl	 edx, 2
  0005b	8b 45 bc	 mov	 eax, DWORD PTR tv73[ebp]
  0005e	8b 8c c2 00 00
	00 00		 mov	 ecx, DWORD PTR ?fn_destroy_client_server_entity@@3PAY01P6GXPAUENTITY@@@ZA[edx+eax*8]
  00065	ff d1		 call	 ecx

; 280  : }

  00067	5f		 pop	 edi
  00068	5e		 pop	 esi
  00069	5b		 pop	 ebx
  0006a	8b e5		 mov	 esp, ebp
  0006c	5d		 pop	 ebp
  0006d	c2 04 00	 ret	 4
?destroy_server_family@@YGXPAUENTITY@@@Z ENDP		; destroy_server_family
_TEXT	ENDS
; Function compile flags: /Odtp /ZI
; File c:\users\nhv90\projects\eech\aphavoc\source\entity\mobile\vehicle\routed\rv_dstry.c
;	COMDAT ?destroy_local_family@@YGXPAUENTITY@@@Z
_TEXT	SEGMENT
_en$ = 8						; size = 4
?destroy_local_family@@YGXPAUENTITY@@@Z PROC		; destroy_local_family, COMDAT

; 261  : {

  00000	55		 push	 ebp
  00001	8b ec		 mov	 ebp, esp
  00003	83 ec 40	 sub	 esp, 64			; 00000040H
  00006	53		 push	 ebx
  00007	56		 push	 esi
  00008	57		 push	 edi

; 262  : 	destroy_local_entity_children (en, LIST_TYPE_MOVEMENT_DEPENDENT);

  00009	6a 1a		 push	 26			; 0000001aH
  0000b	8b 45 08	 mov	 eax, DWORD PTR _en$[ebp]
  0000e	50		 push	 eax
  0000f	e8 00 00 00 00	 call	 ?destroy_local_entity_children@@YGXPAUENTITY@@W4LIST_TYPES@@@Z ; destroy_local_entity_children

; 263  : 
; 264  : 	destroy_local_sound_effects (en);

  00014	8b 45 08	 mov	 eax, DWORD PTR _en$[ebp]
  00017	50		 push	 eax
  00018	e8 00 00 00 00	 call	 ?destroy_local_sound_effects@@YGXPAUENTITY@@@Z ; destroy_local_sound_effects

; 265  : 
; 266  : 	destroy_local_entity (en);

  0001d	8b 45 08	 mov	 eax, DWORD PTR _en$[ebp]
  00020	50		 push	 eax
  00021	e8 00 00 00 00	 call	 ?destroy_local_entity@@YGXPAUENTITY@@@Z ; destroy_local_entity

; 267  : }

  00026	5f		 pop	 edi
  00027	5e		 pop	 esi
  00028	5b		 pop	 ebx
  00029	8b e5		 mov	 esp, ebp
  0002b	5d		 pop	 ebp
  0002c	c2 04 00	 ret	 4
?destroy_local_family@@YGXPAUENTITY@@@Z ENDP		; destroy_local_family
_TEXT	ENDS
; Function compile flags: /Odtp /ZI
; File c:\users\nhv90\projects\eech\aphavoc\source\entity\mobile\vehicle\routed\rv_dstry.c
;	COMDAT ?destroy_client@@YGXPAUENTITY@@@Z
_TEXT	SEGMENT
_en$ = 8						; size = 4
?destroy_client@@YGXPAUENTITY@@@Z PROC			; destroy_client, COMDAT

; 237  : {

  00000	55		 push	 ebp
  00001	8b ec		 mov	 ebp, esp
  00003	83 ec 40	 sub	 esp, 64			; 00000040H
  00006	53		 push	 ebx
  00007	56		 push	 esi
  00008	57		 push	 edi

; 238  : 	if (get_comms_data_flow () == COMMS_DATA_FLOW_TX)

  00009	83 3d 00 00 00
	00 00		 cmp	 DWORD PTR ?system_comms_data_flow@@3W4COMMS_DATA_FLOW_TYPES@@A, 0 ; system_comms_data_flow
  00010	75 2c		 jne	 SHORT $LN2@destroy_cl

; 239  : 	{
; 240  : 		validate_client_server_remote_fn ();

  00012	e8 00 00 00 00	 call	 ?assert_client_server_remote_fn@@YGHXZ ; assert_client_server_remote_fn
  00017	85 c0		 test	 eax, eax
  00019	75 18		 jne	 SHORT $LN4@destroy_cl
  0001b	a1 00 00 00 00	 mov	 eax, DWORD PTR ?__LINE__Var@?0??destroy_client@@YGXPAUENTITY@@@Z@4JA
  00020	83 c0 03	 add	 eax, 3
  00023	50		 push	 eax
  00024	68 00 00 00 00	 push	 OFFSET ??_C@_0FE@LMONHLAE@c?3?2users?2nhv90?2projects?2eech?2ap@
  00029	68 00 00 00 00	 push	 OFFSET ??_C@_0CC@BNNNEGEG@assert_client_server_remote_fn?5@
  0002e	e8 00 00 00 00	 call	 ?process_assert@@YGXPBD0H@Z ; process_assert
$LN4@destroy_cl:

; 241  : 
; 242  : 		destroy_remote (en);

  00033	8b 45 08	 mov	 eax, DWORD PTR _en$[ebp]
  00036	50		 push	 eax
  00037	e8 00 00 00 00	 call	 ?destroy_remote@@YGXPAUENTITY@@@Z ; destroy_remote

; 243  : 	}
; 244  : 	else

  0003c	eb 2a		 jmp	 SHORT $LN1@destroy_cl
$LN2@destroy_cl:

; 245  : 	{
; 246  : 		validate_client_server_local_fn ();

  0003e	e8 00 00 00 00	 call	 ?assert_client_server_local_fn@@YGHXZ ; assert_client_server_local_fn
  00043	85 c0		 test	 eax, eax
  00045	75 18		 jne	 SHORT $LN5@destroy_cl
  00047	a1 00 00 00 00	 mov	 eax, DWORD PTR ?__LINE__Var@?0??destroy_client@@YGXPAUENTITY@@@Z@4JA
  0004c	83 c0 09	 add	 eax, 9
  0004f	50		 push	 eax
  00050	68 00 00 00 00	 push	 OFFSET ??_C@_0FE@LMONHLAE@c?3?2users?2nhv90?2projects?2eech?2ap@
  00055	68 00 00 00 00	 push	 OFFSET ??_C@_0CB@CFOCLFOK@assert_client_server_local_fn?5?$CI@
  0005a	e8 00 00 00 00	 call	 ?process_assert@@YGXPBD0H@Z ; process_assert
$LN5@destroy_cl:

; 247  : 
; 248  : 		//
; 249  : 		// destroy local using 'full' function
; 250  : 		//
; 251  : 
; 252  : 		destroy_local_entity (en);

  0005f	8b 45 08	 mov	 eax, DWORD PTR _en$[ebp]
  00062	50		 push	 eax
  00063	e8 00 00 00 00	 call	 ?destroy_local_entity@@YGXPAUENTITY@@@Z ; destroy_local_entity
$LN1@destroy_cl:

; 253  : 	}
; 254  : }

  00068	5f		 pop	 edi
  00069	5e		 pop	 esi
  0006a	5b		 pop	 ebx
  0006b	8b e5		 mov	 esp, ebp
  0006d	5d		 pop	 ebp
  0006e	c2 04 00	 ret	 4
?destroy_client@@YGXPAUENTITY@@@Z ENDP			; destroy_client
_TEXT	ENDS
; Function compile flags: /Odtp /ZI
; File c:\users\nhv90\projects\eech\aphavoc\source\entity\mobile\vehicle\routed\rv_dstry.c
;	COMDAT ?destroy_server@@YGXPAUENTITY@@@Z
_TEXT	SEGMENT
_en$ = 8						; size = 4
?destroy_server@@YGXPAUENTITY@@@Z PROC			; destroy_server, COMDAT

; 214  : {

  00000	55		 push	 ebp
  00001	8b ec		 mov	 ebp, esp
  00003	83 ec 40	 sub	 esp, 64			; 00000040H
  00006	53		 push	 ebx
  00007	56		 push	 esi
  00008	57		 push	 edi

; 215  : 	//
; 216  : 	// destroy remote entity first (keeping local entity valid)
; 217  : 	//
; 218  : 
; 219  : 	validate_client_server_remote_fn ();

  00009	e8 00 00 00 00	 call	 ?assert_client_server_remote_fn@@YGHXZ ; assert_client_server_remote_fn
  0000e	85 c0		 test	 eax, eax
  00010	75 18		 jne	 SHORT $LN2@destroy_se
  00012	a1 00 00 00 00	 mov	 eax, DWORD PTR ?__LINE__Var@?0??destroy_server@@YGXPAUENTITY@@@Z@4JA
  00017	83 c0 05	 add	 eax, 5
  0001a	50		 push	 eax
  0001b	68 00 00 00 00	 push	 OFFSET ??_C@_0FE@LMONHLAE@c?3?2users?2nhv90?2projects?2eech?2ap@
  00020	68 00 00 00 00	 push	 OFFSET ??_C@_0CC@BNNNEGEG@assert_client_server_remote_fn?5@
  00025	e8 00 00 00 00	 call	 ?process_assert@@YGXPBD0H@Z ; process_assert
$LN2@destroy_se:

; 220  : 
; 221  : 	destroy_remote (en);

  0002a	8b 45 08	 mov	 eax, DWORD PTR _en$[ebp]
  0002d	50		 push	 eax
  0002e	e8 00 00 00 00	 call	 ?destroy_remote@@YGXPAUENTITY@@@Z ; destroy_remote

; 222  : 
; 223  : 	validate_client_server_local_fn ();

  00033	e8 00 00 00 00	 call	 ?assert_client_server_local_fn@@YGHXZ ; assert_client_server_local_fn
  00038	85 c0		 test	 eax, eax
  0003a	75 18		 jne	 SHORT $LN3@destroy_se
  0003c	a1 00 00 00 00	 mov	 eax, DWORD PTR ?__LINE__Var@?0??destroy_server@@YGXPAUENTITY@@@Z@4JA
  00041	83 c0 09	 add	 eax, 9
  00044	50		 push	 eax
  00045	68 00 00 00 00	 push	 OFFSET ??_C@_0FE@LMONHLAE@c?3?2users?2nhv90?2projects?2eech?2ap@
  0004a	68 00 00 00 00	 push	 OFFSET ??_C@_0CB@CFOCLFOK@assert_client_server_local_fn?5?$CI@
  0004f	e8 00 00 00 00	 call	 ?process_assert@@YGXPBD0H@Z ; process_assert
$LN3@destroy_se:

; 224  : 
; 225  : 	//
; 226  : 	// destroy local using 'full' function
; 227  : 	//
; 228  : 
; 229  : 	destroy_local_entity (en);

  00054	8b 45 08	 mov	 eax, DWORD PTR _en$[ebp]
  00057	50		 push	 eax
  00058	e8 00 00 00 00	 call	 ?destroy_local_entity@@YGXPAUENTITY@@@Z ; destroy_local_entity

; 230  : }

  0005d	5f		 pop	 edi
  0005e	5e		 pop	 esi
  0005f	5b		 pop	 ebx
  00060	8b e5		 mov	 esp, ebp
  00062	5d		 pop	 ebp
  00063	c2 04 00	 ret	 4
?destroy_server@@YGXPAUENTITY@@@Z ENDP			; destroy_server
_TEXT	ENDS
; Function compile flags: /Odtp /ZI
; File c:\users\nhv90\projects\eech\aphavoc\source\entity\mobile\vehicle\routed\rv_dstry.c
;	COMDAT ?destroy_remote@@YGXPAUENTITY@@@Z
_TEXT	SEGMENT
_en$ = 8						; size = 4
?destroy_remote@@YGXPAUENTITY@@@Z PROC			; destroy_remote, COMDAT

; 199  : {

  00000	55		 push	 ebp
  00001	8b ec		 mov	 ebp, esp
  00003	83 ec 40	 sub	 esp, 64			; 00000040H
  00006	53		 push	 ebx
  00007	56		 push	 esi
  00008	57		 push	 edi

; 200  : 	#if DEBUG_MODULE >= 2
; 201  : 
; 202  : 	debug_log_entity_args (ENTITY_DEBUG_REMOTE, ENTITY_DEBUG_DESTROY, en);
; 203  : 
; 204  : 	#endif
; 205  : 
; 206  : 	transmit_entity_comms_message (ENTITY_COMMS_DESTROY, en);

  00009	8b 45 08	 mov	 eax, DWORD PTR _en$[ebp]
  0000c	50		 push	 eax
  0000d	6a 12		 push	 18			; 00000012H
  0000f	e8 00 00 00 00	 call	 ?transmit_entity_comms_message@@YAXW4ENTITY_COMMS_MESSAGES@@PAUENTITY@@ZZ ; transmit_entity_comms_message
  00014	83 c4 08	 add	 esp, 8

; 207  : }

  00017	5f		 pop	 edi
  00018	5e		 pop	 esi
  00019	5b		 pop	 ebx
  0001a	8b e5		 mov	 esp, ebp
  0001c	5d		 pop	 ebp
  0001d	c2 04 00	 ret	 4
?destroy_remote@@YGXPAUENTITY@@@Z ENDP			; destroy_remote
_TEXT	ENDS
; Function compile flags: /Odtp /ZI
; File c:\users\nhv90\projects\eech\aphavoc\source\entity\mobile\vehicle\routed\rv_dstry.c
;	COMDAT ?destroy_local@@YGXPAUENTITY@@@Z
_TEXT	SEGMENT
tv79 = -76						; size = 4
tv71 = -72						; size = 4
_raw$ = -4						; size = 4
_en$ = 8						; size = 4
?destroy_local@@YGXPAUENTITY@@@Z PROC			; destroy_local, COMDAT

; 84   : {

  00000	55		 push	 ebp
  00001	8b ec		 mov	 ebp, esp
  00003	83 ec 4c	 sub	 esp, 76			; 0000004cH
  00006	53		 push	 ebx
  00007	56		 push	 esi
  00008	57		 push	 edi

; 85   : 
; 86   : 	routed_vehicle
; 87   : 		*raw;
; 88   : 
; 89   : 	////////////////////////////////////////
; 90   : 	//
; 91   : 	// PRE-AMBLE
; 92   : 	//
; 93   : 	////////////////////////////////////////
; 94   : 
; 95   : 	#if DEBUG_MODULE >= 2
; 96   : 
; 97   : 	debug_log_entity_args (ENTITY_DEBUG_LOCAL, ENTITY_DEBUG_DESTROY, en);
; 98   : 
; 99   : 	#endif
; 100  : 
; 101  : 	raw = (routed_vehicle *) get_local_entity_data (en);

  00009	8b 45 08	 mov	 eax, DWORD PTR _en$[ebp]
  0000c	8b 48 04	 mov	 ecx, DWORD PTR [eax+4]
  0000f	89 4d fc	 mov	 DWORD PTR _raw$[ebp], ecx

; 102  : 
; 103  : 	set_local_entity_int_value (en, INT_TYPE_ALIVE, FALSE);

  00012	83 7d 08 00	 cmp	 DWORD PTR _en$[ebp], 0
  00016	74 0a		 je	 SHORT $LN4@destroy_lo
  00018	8b 45 08	 mov	 eax, DWORD PTR _en$[ebp]
  0001b	8b 08		 mov	 ecx, DWORD PTR [eax]
  0001d	89 4d b8	 mov	 DWORD PTR tv71[ebp], ecx
  00020	eb 21		 jmp	 SHORT $LN5@destroy_lo
$LN4@destroy_lo:
  00022	8b 15 00 00 00
	00		 mov	 edx, DWORD PTR ?__LINE__Var@?0??destroy_local@@YGXPAUENTITY@@@Z@4JA
  00028	83 c2 13	 add	 edx, 19			; 00000013H
  0002b	52		 push	 edx
  0002c	68 00 00 00 00	 push	 OFFSET ??_C@_0FE@LMONHLAE@c?3?2users?2nhv90?2projects?2eech?2ap@
  00031	a1 00 00 00 00	 mov	 eax, DWORD PTR ?null_entity_pointer_message@@3PBDB ; null_entity_pointer_message
  00036	50		 push	 eax
  00037	e8 00 00 00 00	 call	 ?process_assert@@YGXPBD0H@Z ; process_assert
  0003c	c7 45 b8 00 00
	00 00		 mov	 DWORD PTR tv71[ebp], 0
$LN5@destroy_lo:
  00043	b9 01 00 00 00	 mov	 ecx, 1
  00048	85 c9		 test	 ecx, ecx
  0004a	74 09		 je	 SHORT $LN6@destroy_lo
  0004c	c7 45 b4 07 00
	00 00		 mov	 DWORD PTR tv79[ebp], 7
  00053	eb 21		 jmp	 SHORT $LN7@destroy_lo
$LN6@destroy_lo:
  00055	8b 15 00 00 00
	00		 mov	 edx, DWORD PTR ?__LINE__Var@?0??destroy_local@@YGXPAUENTITY@@@Z@4JA
  0005b	83 c2 13	 add	 edx, 19			; 00000013H
  0005e	52		 push	 edx
  0005f	68 00 00 00 00	 push	 OFFSET ??_C@_0FE@LMONHLAE@c?3?2users?2nhv90?2projects?2eech?2ap@
  00064	a1 00 00 00 00	 mov	 eax, DWORD PTR ?overload_invalid_int_type_message@@3PBDB ; overload_invalid_int_type_message
  00069	50		 push	 eax
  0006a	e8 00 00 00 00	 call	 ?process_assert@@YGXPBD0H@Z ; process_assert
  0006f	c7 45 b4 00 00
	00 00		 mov	 DWORD PTR tv79[ebp], 0
$LN7@destroy_lo:
  00076	6a 00		 push	 0
  00078	6a 07		 push	 7
  0007a	8b 4d 08	 mov	 ecx, DWORD PTR _en$[ebp]
  0007d	51		 push	 ecx
  0007e	69 55 b8 5c 04
	00 00		 imul	 edx, DWORD PTR tv71[ebp], 1116
  00085	8b 45 b4	 mov	 eax, DWORD PTR tv79[ebp]
  00088	8b 8c 82 00 00
	00 00		 mov	 ecx, DWORD PTR ?fn_set_local_entity_int_value@@3PAY0BBH@P6GXPAUENTITY@@W4INT_TYPES@@H@ZA[edx+eax*4]
  0008f	ff d1		 call	 ecx

; 104  : 
; 105  : 	////////////////////////////////////////
; 106  : 	//
; 107  : 	// VALIDATE
; 108  : 	//
; 109  : 	////////////////////////////////////////
; 110  : 
; 111  : 	////////////////////////////////////////
; 112  : 	//
; 113  : 	// DESTROY COMPONENTS
; 114  : 	//
; 115  : 	////////////////////////////////////////
; 116  : 
; 117  : 	destruct_3d_object (raw->vh.inst3d);

  00091	8b 45 fc	 mov	 eax, DWORD PTR _raw$[ebp]
  00094	8b 88 84 00 00
	00		 mov	 ecx, DWORD PTR [eax+132]
  0009a	51		 push	 ecx
  0009b	e8 00 00 00 00	 call	 ?destruct_3d_object@@YGXPAUOBJECT_3D_INSTANCE@@@Z ; destruct_3d_object

; 118  : 
; 119  : 	free_mem (raw->vh.weapon_package_status_array);

  000a0	8b 45 fc	 mov	 eax, DWORD PTR _raw$[ebp]
  000a3	8b 88 18 01 00
	00		 mov	 ecx, DWORD PTR [eax+280]
  000a9	51		 push	 ecx
  000aa	e8 00 00 00 00	 call	 ?free_mem@@YGXPAX@Z	; free_mem

; 120  : 
; 121  : 	if (raw->vh.sound_effect_data)

  000af	8b 45 fc	 mov	 eax, DWORD PTR _raw$[ebp]
  000b2	83 b8 20 01 00
	00 00		 cmp	 DWORD PTR [eax+288], 0
  000b9	74 0f		 je	 SHORT $LN2@destroy_lo

; 122  : 	{
; 123  : 
; 124  : 		destroy_system_sound_effect (raw->vh.sound_effect_data);

  000bb	8b 45 fc	 mov	 eax, DWORD PTR _raw$[ebp]
  000be	8b 88 20 01 00
	00		 mov	 ecx, DWORD PTR [eax+288]
  000c4	51		 push	 ecx
  000c5	e8 00 00 00 00	 call	 ?destroy_system_sound_effect@@YGXPAUSYSTEM_SOUND_EFFECT@@@Z ; destroy_system_sound_effect
$LN2@destroy_lo:

; 125  : 	}
; 126  : 
; 127  : 	////////////////////////////////////////
; 128  : 	//
; 129  : 	// UNLINK FROM SYSTEM
; 130  : 	//
; 131  : 	////////////////////////////////////////
; 132  : 
; 133  : 	//
; 134  : 	// routed_vehicle
; 135  : 	//
; 136  : 
; 137  : 	//
; 138  : 	// vehicle
; 139  : 	//
; 140  : 
; 141  : 	unlink_local_entity_children (en, LIST_TYPE_TASK_DEPENDENT);

  000ca	6a 27		 push	 39			; 00000027H
  000cc	8b 45 08	 mov	 eax, DWORD PTR _en$[ebp]
  000cf	50		 push	 eax
  000d0	e8 00 00 00 00	 call	 ?unlink_local_entity_children@@YGXPAUENTITY@@W4LIST_TYPES@@@Z ; unlink_local_entity_children

; 142  : 
; 143  : 	unlink_local_entity_children (en, LIST_TYPE_LAUNCHED_WEAPON);

  000d5	6a 18		 push	 24			; 00000018H
  000d7	8b 45 08	 mov	 eax, DWORD PTR _en$[ebp]
  000da	50		 push	 eax
  000db	e8 00 00 00 00	 call	 ?unlink_local_entity_children@@YGXPAUENTITY@@W4LIST_TYPES@@@Z ; unlink_local_entity_children

; 144  : 
; 145  : 	unlink_local_entity_children (en, LIST_TYPE_MOVEMENT_DEPENDENT);

  000e0	6a 1a		 push	 26			; 0000001aH
  000e2	8b 45 08	 mov	 eax, DWORD PTR _en$[ebp]
  000e5	50		 push	 eax
  000e6	e8 00 00 00 00	 call	 ?unlink_local_entity_children@@YGXPAUENTITY@@W4LIST_TYPES@@@Z ; unlink_local_entity_children

; 146  : 
; 147  : 	delete_local_entity_from_parents_child_list (en, LIST_TYPE_MOVEMENT_DEPENDENT);

  000eb	6a 1a		 push	 26			; 0000001aH
  000ed	8b 45 08	 mov	 eax, DWORD PTR _en$[ebp]
  000f0	50		 push	 eax
  000f1	e8 00 00 00 00	 call	 ?delete_local_entity_from_parents_child_list@@YGXPAUENTITY@@W4LIST_TYPES@@@Z ; delete_local_entity_from_parents_child_list

; 148  : 
; 149  : 	delete_local_entity_from_parents_child_list (en, LIST_TYPE_FOLLOWER);

  000f6	6a 0d		 push	 13			; 0000000dH
  000f8	8b 45 08	 mov	 eax, DWORD PTR _en$[ebp]
  000fb	50		 push	 eax
  000fc	e8 00 00 00 00	 call	 ?delete_local_entity_from_parents_child_list@@YGXPAUENTITY@@W4LIST_TYPES@@@Z ; delete_local_entity_from_parents_child_list

; 150  : 
; 151  : 	delete_local_entity_from_parents_child_list (en, LIST_TYPE_DESIGNATED_TARGET); // Jabberwock 031107 Designated targets

  00101	6a 0a		 push	 10			; 0000000aH
  00103	8b 45 08	 mov	 eax, DWORD PTR _en$[ebp]
  00106	50		 push	 eax
  00107	e8 00 00 00 00	 call	 ?delete_local_entity_from_parents_child_list@@YGXPAUENTITY@@W4LIST_TYPES@@@Z ; delete_local_entity_from_parents_child_list

; 152  : 
; 153  : 	delete_local_entity_from_parents_child_list (en, LIST_TYPE_GUNSHIP_TARGET);

  0010c	6a 12		 push	 18			; 00000012H
  0010e	8b 45 08	 mov	 eax, DWORD PTR _en$[ebp]
  00111	50		 push	 eax
  00112	e8 00 00 00 00	 call	 ?delete_local_entity_from_parents_child_list@@YGXPAUENTITY@@W4LIST_TYPES@@@Z ; delete_local_entity_from_parents_child_list

; 154  : 
; 155  : 	delete_local_entity_from_parents_child_list (en, LIST_TYPE_MEMBER);

  00117	6a 19		 push	 25			; 00000019H
  00119	8b 45 08	 mov	 eax, DWORD PTR _en$[ebp]
  0011c	50		 push	 eax
  0011d	e8 00 00 00 00	 call	 ?delete_local_entity_from_parents_child_list@@YGXPAUENTITY@@W4LIST_TYPES@@@Z ; delete_local_entity_from_parents_child_list

; 156  : 
; 157  : 	delete_local_entity_from_parents_child_list (en, LIST_TYPE_VIEW);

  00122	6a 2a		 push	 42			; 0000002aH
  00124	8b 45 08	 mov	 eax, DWORD PTR _en$[ebp]
  00127	50		 push	 eax
  00128	e8 00 00 00 00	 call	 ?delete_local_entity_from_parents_child_list@@YGXPAUENTITY@@W4LIST_TYPES@@@Z ; delete_local_entity_from_parents_child_list

; 158  : 
; 159  : 	delete_local_entity_from_parents_child_list (en, LIST_TYPE_TAKEOFF_QUEUE);

  0012d	6a 25		 push	 37			; 00000025H
  0012f	8b 45 08	 mov	 eax, DWORD PTR _en$[ebp]
  00132	50		 push	 eax
  00133	e8 00 00 00 00	 call	 ?delete_local_entity_from_parents_child_list@@YGXPAUENTITY@@W4LIST_TYPES@@@Z ; delete_local_entity_from_parents_child_list

; 160  : 
; 161  : 	//
; 162  : 	// mobile
; 163  : 	//
; 164  : 
; 165  : 	unlink_local_entity_children (en, LIST_TYPE_SPECIAL_EFFECT);

  00138	6a 24		 push	 36			; 00000024H
  0013a	8b 45 08	 mov	 eax, DWORD PTR _en$[ebp]
  0013d	50		 push	 eax
  0013e	e8 00 00 00 00	 call	 ?unlink_local_entity_children@@YGXPAUENTITY@@W4LIST_TYPES@@@Z ; unlink_local_entity_children

; 166  : 
; 167  : 	unlink_local_entity_children (en, LIST_TYPE_TARGET);

  00143	6a 26		 push	 38			; 00000026H
  00145	8b 45 08	 mov	 eax, DWORD PTR _en$[ebp]
  00148	50		 push	 eax
  00149	e8 00 00 00 00	 call	 ?unlink_local_entity_children@@YGXPAUENTITY@@W4LIST_TYPES@@@Z ; unlink_local_entity_children

; 168  : 
; 169  : 	delete_local_entity_from_parents_child_list (en, LIST_TYPE_PADLOCK);

  0014e	6a 1b		 push	 27			; 0000001bH
  00150	8b 45 08	 mov	 eax, DWORD PTR _en$[ebp]
  00153	50		 push	 eax
  00154	e8 00 00 00 00	 call	 ?delete_local_entity_from_parents_child_list@@YGXPAUENTITY@@W4LIST_TYPES@@@Z ; delete_local_entity_from_parents_child_list

; 170  : 
; 171  : 	delete_local_entity_from_parents_child_list (en, LIST_TYPE_SECTOR);

  00159	6a 21		 push	 33			; 00000021H
  0015b	8b 45 08	 mov	 eax, DWORD PTR _en$[ebp]
  0015e	50		 push	 eax
  0015f	e8 00 00 00 00	 call	 ?delete_local_entity_from_parents_child_list@@YGXPAUENTITY@@W4LIST_TYPES@@@Z ; delete_local_entity_from_parents_child_list

; 172  : 
; 173  : 	delete_local_entity_from_parents_child_list (en, LIST_TYPE_TARGET);

  00164	6a 26		 push	 38			; 00000026H
  00166	8b 45 08	 mov	 eax, DWORD PTR _en$[ebp]
  00169	50		 push	 eax
  0016a	e8 00 00 00 00	 call	 ?delete_local_entity_from_parents_child_list@@YGXPAUENTITY@@W4LIST_TYPES@@@Z ; delete_local_entity_from_parents_child_list

; 174  : 
; 175  : 	delete_local_entity_from_parents_child_list (en, LIST_TYPE_UPDATE);

  0016f	6a 29		 push	 41			; 00000029H
  00171	8b 45 08	 mov	 eax, DWORD PTR _en$[ebp]
  00174	50		 push	 eax
  00175	e8 00 00 00 00	 call	 ?delete_local_entity_from_parents_child_list@@YGXPAUENTITY@@W4LIST_TYPES@@@Z ; delete_local_entity_from_parents_child_list

; 176  : 
; 177  : 	#if LANDING_ROUTE_CHECK
; 178  : 
; 179  : 	destroy_debug_entity_landing_route_check (en);

  0017a	8b 45 08	 mov	 eax, DWORD PTR _en$[ebp]
  0017d	50		 push	 eax
  0017e	e8 00 00 00 00	 call	 ?destroy_debug_entity_landing_route_check@@YGXPAUENTITY@@@Z ; destroy_debug_entity_landing_route_check

; 180  : 
; 181  : 	#endif
; 182  : 
; 183  : 	////////////////////////////////////////
; 184  : 	//
; 185  : 	// FREE ENTITY DATA
; 186  : 	//
; 187  : 	////////////////////////////////////////
; 188  : 
; 189  : 	free_mem (raw);

  00183	8b 45 fc	 mov	 eax, DWORD PTR _raw$[ebp]
  00186	50		 push	 eax
  00187	e8 00 00 00 00	 call	 ?free_mem@@YGXPAX@Z	; free_mem

; 190  : 
; 191  : 	set_free_entity (en);

  0018c	8b 45 08	 mov	 eax, DWORD PTR _en$[ebp]
  0018f	50		 push	 eax
  00190	e8 00 00 00 00	 call	 ?set_free_entity@@YGXPAUENTITY@@@Z ; set_free_entity

; 192  : }

  00195	5f		 pop	 edi
  00196	5e		 pop	 esi
  00197	5b		 pop	 ebx
  00198	8b e5		 mov	 esp, ebp
  0019a	5d		 pop	 ebp
  0019b	c2 04 00	 ret	 4
?destroy_local@@YGXPAUENTITY@@@Z ENDP			; destroy_local
_TEXT	ENDS
; Function compile flags: /Odtp /ZI
; File c:\users\nhv90\projects\eech\aphavoc\source\entity\mobile\vehicle\routed\rv_dstry.c
;	COMDAT ?overload_routed_vehicle_destroy_functions@@YGXXZ
_TEXT	SEGMENT
?overload_routed_vehicle_destroy_functions@@YGXXZ PROC	; overload_routed_vehicle_destroy_functions, COMDAT

; 630  : {

  00000	55		 push	 ebp
  00001	8b ec		 mov	 ebp, esp
  00003	83 ec 40	 sub	 esp, 64			; 00000040H
  00006	53		 push	 ebx
  00007	56		 push	 esi
  00008	57		 push	 edi

; 631  : 	fn_destroy_local_entity						[ENTITY_TYPE_ROUTED_VEHICLE]								= destroy_local;

  00009	b8 04 00 00 00	 mov	 eax, 4
  0000e	6b c8 17	 imul	 ecx, eax, 23
  00011	c7 81 00 00 00
	00 00 00 00 00	 mov	 DWORD PTR ?fn_destroy_local_entity@@3PAP6GXPAUENTITY@@@ZA[ecx], OFFSET ?destroy_local@@YGXPAUENTITY@@@Z ; destroy_local

; 632  : 	fn_destroy_client_server_entity			[ENTITY_TYPE_ROUTED_VEHICLE][COMMS_MODEL_SERVER]	= destroy_server;

  0001b	b8 08 00 00 00	 mov	 eax, 8
  00020	6b c8 17	 imul	 ecx, eax, 23
  00023	ba 04 00 00 00	 mov	 edx, 4
  00028	6b c2 00	 imul	 eax, edx, 0
  0002b	c7 84 01 00 00
	00 00 00 00 00
	00		 mov	 DWORD PTR ?fn_destroy_client_server_entity@@3PAY01P6GXPAUENTITY@@@ZA[ecx+eax], OFFSET ?destroy_server@@YGXPAUENTITY@@@Z ; destroy_server

; 633  : 	fn_destroy_client_server_entity			[ENTITY_TYPE_ROUTED_VEHICLE][COMMS_MODEL_CLIENT]	= destroy_client;

  00036	b8 08 00 00 00	 mov	 eax, 8
  0003b	6b c8 17	 imul	 ecx, eax, 23
  0003e	ba 04 00 00 00	 mov	 edx, 4
  00043	c1 e2 00	 shl	 edx, 0
  00046	c7 84 11 00 00
	00 00 00 00 00
	00		 mov	 DWORD PTR ?fn_destroy_client_server_entity@@3PAY01P6GXPAUENTITY@@@ZA[ecx+edx], OFFSET ?destroy_client@@YGXPAUENTITY@@@Z ; destroy_client

; 634  : 
; 635  : 	fn_destroy_local_entity_family			[ENTITY_TYPE_ROUTED_VEHICLE]								= destroy_local_family;

  00051	b8 04 00 00 00	 mov	 eax, 4
  00056	6b c8 17	 imul	 ecx, eax, 23
  00059	c7 81 00 00 00
	00 00 00 00 00	 mov	 DWORD PTR ?fn_destroy_local_entity_family@@3PAP6GXPAUENTITY@@@ZA[ecx], OFFSET ?destroy_local_family@@YGXPAUENTITY@@@Z ; destroy_local_family

; 636  : 	fn_destroy_client_server_entity_family	[ENTITY_TYPE_ROUTED_VEHICLE][COMMS_MODEL_SERVER]	= destroy_server_family;

  00063	b8 08 00 00 00	 mov	 eax, 8
  00068	6b c8 17	 imul	 ecx, eax, 23
  0006b	ba 04 00 00 00	 mov	 edx, 4
  00070	6b c2 00	 imul	 eax, edx, 0
  00073	c7 84 01 00 00
	00 00 00 00 00
	00		 mov	 DWORD PTR ?fn_destroy_client_server_entity_family@@3PAY01P6GXPAUENTITY@@@ZA[ecx+eax], OFFSET ?destroy_server_family@@YGXPAUENTITY@@@Z ; destroy_server_family

; 637  : 	fn_destroy_client_server_entity_family	[ENTITY_TYPE_ROUTED_VEHICLE][COMMS_MODEL_CLIENT]	= destroy_client_family;

  0007e	b8 08 00 00 00	 mov	 eax, 8
  00083	6b c8 17	 imul	 ecx, eax, 23
  00086	ba 04 00 00 00	 mov	 edx, 4
  0008b	c1 e2 00	 shl	 edx, 0
  0008e	c7 84 11 00 00
	00 00 00 00 00
	00		 mov	 DWORD PTR ?fn_destroy_client_server_entity_family@@3PAY01P6GXPAUENTITY@@@ZA[ecx+edx], OFFSET ?destroy_client_family@@YGXPAUENTITY@@@Z ; destroy_client_family

; 638  : 
; 639  : 	fn_kill_local_entity							[ENTITY_TYPE_ROUTED_VEHICLE]								= kill_local;

  00099	b8 04 00 00 00	 mov	 eax, 4
  0009e	6b c8 17	 imul	 ecx, eax, 23
  000a1	c7 81 00 00 00
	00 00 00 00 00	 mov	 DWORD PTR ?fn_kill_local_entity@@3PAP6GXPAUENTITY@@@ZA[ecx], OFFSET ?kill_local@@YGXPAUENTITY@@@Z ; kill_local

; 640  : 	fn_kill_client_server_entity				[ENTITY_TYPE_ROUTED_VEHICLE][COMMS_MODEL_SERVER]	= kill_server;

  000ab	b8 08 00 00 00	 mov	 eax, 8
  000b0	6b c8 17	 imul	 ecx, eax, 23
  000b3	ba 04 00 00 00	 mov	 edx, 4
  000b8	6b c2 00	 imul	 eax, edx, 0
  000bb	c7 84 01 00 00
	00 00 00 00 00
	00		 mov	 DWORD PTR ?fn_kill_client_server_entity@@3PAY01P6GXPAUENTITY@@@ZA[ecx+eax], OFFSET ?kill_server@@YGXPAUENTITY@@@Z ; kill_server

; 641  : 	fn_kill_client_server_entity				[ENTITY_TYPE_ROUTED_VEHICLE][COMMS_MODEL_CLIENT]	= kill_client;

  000c6	b8 08 00 00 00	 mov	 eax, 8
  000cb	6b c8 17	 imul	 ecx, eax, 23
  000ce	ba 04 00 00 00	 mov	 edx, 4
  000d3	c1 e2 00	 shl	 edx, 0
  000d6	c7 84 11 00 00
	00 00 00 00 00
	00		 mov	 DWORD PTR ?fn_kill_client_server_entity@@3PAY01P6GXPAUENTITY@@@ZA[ecx+edx], OFFSET ?kill_client@@YGXPAUENTITY@@@Z ; kill_client

; 642  : }

  000e1	5f		 pop	 edi
  000e2	5e		 pop	 esi
  000e3	5b		 pop	 ebx
  000e4	8b e5		 mov	 esp, ebp
  000e6	5d		 pop	 ebp
  000e7	c3		 ret	 0
?overload_routed_vehicle_destroy_functions@@YGXXZ ENDP	; overload_routed_vehicle_destroy_functions
_TEXT	ENDS
END
