; Listing generated by Microsoft (R) Optimizing Compiler Version 19.16.27045.0 

	TITLE	C:\Users\nhv90\Projects\eech\aphavoc\source\entity\mobile\vehicle\routed\rv_int.c
	.686P
	.XMM
	include listing.inc
	.model	flat

INCLUDELIB MSVCRTD
INCLUDELIB OLDNAMES

PUBLIC	?overload_routed_vehicle_int_value_functions@@YGXXZ ; overload_routed_vehicle_int_value_functions
PUBLIC	?__LINE__Var@?0??set_local_int_value@@YGXPAUENTITY@@W4INT_TYPES@@H@Z@4JA ; `set_local_int_value'::`1'::__LINE__Var
PUBLIC	??_C@_0FC@GLBFDLBE@c?3?2users?2nhv90?2projects?2eech?2ap@ ; `string'
PUBLIC	?__LINE__Var@?0??set_server_int_value@@YGXPAUENTITY@@W4INT_TYPES@@H@Z@4JA ; `set_server_int_value'::`1'::__LINE__Var
PUBLIC	??_C@_0CB@CFOCLFOK@assert_client_server_local_fn?5?$CI@ ; `string'
PUBLIC	??_C@_0CC@BNNNEGEG@assert_client_server_remote_fn?5@ ; `string'
PUBLIC	?__LINE__Var@?0??set_client_int_value@@YGXPAUENTITY@@W4INT_TYPES@@H@Z@4JA ; `set_client_int_value'::`1'::__LINE__Var
PUBLIC	?__LINE__Var@?0??get_local_int_value@@YGHPAUENTITY@@W4INT_TYPES@@@Z@4JA ; `get_local_int_value'::`1'::__LINE__Var
EXTRN	?process_assert@@YGXPBD0H@Z:PROC		; process_assert
EXTRN	?debug_fatal@@YAXPBDZZ:PROC			; debug_fatal
EXTRN	?transmit_entity_comms_message@@YAXW4ENTITY_COMMS_MESSAGES@@PAUENTITY@@ZZ:PROC ; transmit_entity_comms_message
EXTRN	?assert_client_server_local_fn@@YGHXZ:PROC	; assert_client_server_local_fn
EXTRN	?assert_client_server_remote_fn@@YGHXZ:PROC	; assert_client_server_remote_fn
EXTRN	?null_entity_pointer_message@@3PBDB:DWORD	; null_entity_pointer_message
EXTRN	?entity_type_database@@3PAUENTITY_TYPE_DATA@@A:BYTE ; entity_type_database
EXTRN	?system_comms_data_flow@@3W4COMMS_DATA_FLOW_TYPES@@A:DWORD ; system_comms_data_flow
EXTRN	?int_type_database@@3PAUINT_TYPE_DATA@@A:BYTE	; int_type_database
EXTRN	?debug_fatal_invalid_int_type_message@@3PBDB:DWORD ; debug_fatal_invalid_int_type_message
EXTRN	?fn_set_local_entity_raw_int_value@@3PAY0BBH@P6GXPAUENTITY@@W4INT_TYPES@@H@ZA:BYTE ; fn_set_local_entity_raw_int_value
EXTRN	?fn_set_local_entity_int_value@@3PAY0BBH@P6GXPAUENTITY@@W4INT_TYPES@@H@ZA:BYTE ; fn_set_local_entity_int_value
EXTRN	?fn_set_client_server_entity_int_value@@3PAY1BBH@1P6GXPAUENTITY@@W4INT_TYPES@@H@ZA:BYTE ; fn_set_client_server_entity_int_value
EXTRN	?fn_get_local_entity_int_value@@3PAY0BBH@P6GHPAUENTITY@@W4INT_TYPES@@@ZA:BYTE ; fn_get_local_entity_int_value
EXTRN	?entities@@3PAUENTITY@@A:DWORD			; entities
;	COMDAT ?__LINE__Var@?0??get_local_int_value@@YGHPAUENTITY@@W4INT_TYPES@@@Z@4JA
_DATA	SEGMENT
?__LINE__Var@?0??get_local_int_value@@YGHPAUENTITY@@W4INT_TYPES@@@Z@4JA DD 0c3H ; `get_local_int_value'::`1'::__LINE__Var
_DATA	ENDS
;	COMDAT ?__LINE__Var@?0??set_client_int_value@@YGXPAUENTITY@@W4INT_TYPES@@H@Z@4JA
_DATA	SEGMENT
?__LINE__Var@?0??set_client_int_value@@YGXPAUENTITY@@W4INT_TYPES@@H@Z@4JA DD 0afH ; `set_client_int_value'::`1'::__LINE__Var
_DATA	ENDS
;	COMDAT ??_C@_0CC@BNNNEGEG@assert_client_server_remote_fn?5@
CONST	SEGMENT
??_C@_0CC@BNNNEGEG@assert_client_server_remote_fn?5@ DB 'assert_client_se'
	DB	'rver_remote_fn ()', 00H			; `string'
CONST	ENDS
;	COMDAT ??_C@_0CB@CFOCLFOK@assert_client_server_local_fn?5?$CI@
CONST	SEGMENT
??_C@_0CB@CFOCLFOK@assert_client_server_local_fn?5?$CI@ DB 'assert_client'
	DB	'_server_local_fn ()', 00H			; `string'
CONST	ENDS
;	COMDAT ?__LINE__Var@?0??set_server_int_value@@YGXPAUENTITY@@W4INT_TYPES@@H@Z@4JA
_DATA	SEGMENT
?__LINE__Var@?0??set_server_int_value@@YGXPAUENTITY@@W4INT_TYPES@@H@Z@4JA DD 0a0H ; `set_server_int_value'::`1'::__LINE__Var
_DATA	ENDS
;	COMDAT ??_C@_0FC@GLBFDLBE@c?3?2users?2nhv90?2projects?2eech?2ap@
CONST	SEGMENT
??_C@_0FC@GLBFDLBE@c?3?2users?2nhv90?2projects?2eech?2ap@ DB 'c:\users\nh'
	DB	'v90\projects\eech\aphavoc\source\entity\mobile\vehicle\routed'
	DB	'\rv_int.c', 00H				; `string'
CONST	ENDS
;	COMDAT ?__LINE__Var@?0??set_local_int_value@@YGXPAUENTITY@@W4INT_TYPES@@H@Z@4JA
_DATA	SEGMENT
?__LINE__Var@?0??set_local_int_value@@YGXPAUENTITY@@W4INT_TYPES@@H@Z@4JA DD 050H ; `set_local_int_value'::`1'::__LINE__Var
_DATA	ENDS
; Function compile flags: /Odtp /ZI
; File c:\users\nhv90\projects\eech\aphavoc\source\entity\mobile\vehicle\routed\rv_int.c
;	COMDAT ?get_local_int_value@@YGHPAUENTITY@@W4INT_TYPES@@@Z
_TEXT	SEGMENT
tv90 = -76						; size = 4
tv65 = -76						; size = 4
_value$ = -8						; size = 4
_raw$ = -4						; size = 4
_en$ = 8						; size = 4
_type$ = 12						; size = 4
?get_local_int_value@@YGHPAUENTITY@@W4INT_TYPES@@@Z PROC ; get_local_int_value, COMDAT

; 195  : {

  00000	55		 push	 ebp
  00001	8b ec		 mov	 ebp, esp
  00003	83 ec 4c	 sub	 esp, 76			; 0000004cH
  00006	53		 push	 ebx
  00007	56		 push	 esi
  00008	57		 push	 edi

; 196  : 	routed_vehicle
; 197  : 		*raw;
; 198  : 
; 199  : 	int
; 200  : 		value;
; 201  : 
; 202  : 	raw = (routed_vehicle *) get_local_entity_data (en);

  00009	8b 45 08	 mov	 eax, DWORD PTR _en$[ebp]
  0000c	8b 48 04	 mov	 ecx, DWORD PTR [eax+4]
  0000f	89 4d fc	 mov	 DWORD PTR _raw$[ebp], ecx

; 203  : 
; 204  : 	switch (type)

  00012	8b 45 0c	 mov	 eax, DWORD PTR _type$[ebp]
  00015	89 45 b4	 mov	 DWORD PTR tv65[ebp], eax
  00018	8b 4d b4	 mov	 ecx, DWORD PTR tv65[ebp]
  0001b	83 e9 5e	 sub	 ecx, 94			; 0000005eH
  0001e	89 4d b4	 mov	 DWORD PTR tv65[ebp], ecx
  00021	81 7d b4 a3 00
	00 00		 cmp	 DWORD PTR tv65[ebp], 163 ; 000000a3H
  00028	77 7d		 ja	 SHORT $LN10@get_local_
  0002a	8b 55 b4	 mov	 edx, DWORD PTR tv65[ebp]
  0002d	0f b6 82 00 00
	00 00		 movzx	 eax, BYTE PTR $LN14@get_local_[edx]
  00034	ff 24 85 00 00
	00 00		 jmp	 DWORD PTR $LN15@get_local_[eax*4]
$LN4@get_local_:

; 205  : 	{
; 206  : 		////////////////////////////////////////
; 207  : 		case INT_TYPE_IDENTIFY_ROUTED:
; 208  : 		////////////////////////////////////////
; 209  : 		{
; 210  : 			value = TRUE;

  0003b	c7 45 f8 01 00
	00 00		 mov	 DWORD PTR _value$[ebp], 1

; 211  : 
; 212  : 			break;

  00042	e9 d2 00 00 00	 jmp	 $LN2@get_local_
$LN5@get_local_:

; 213  : 		}
; 214  : 		////////////////////////////////////////
; 215  : 		case INT_TYPE_MOVEMENT_TYPE:
; 216  : 		////////////////////////////////////////
; 217  : 		{
; 218  : 			value = MOVEMENT_TYPE_GROUND;

  00047	c7 45 f8 02 00
	00 00		 mov	 DWORD PTR _value$[ebp], 2

; 219  : 
; 220  : 			break;

  0004e	e9 c6 00 00 00	 jmp	 $LN2@get_local_
$LN6@get_local_:

; 221  : 		}
; 222  : 		////////////////////////////////////////
; 223  : 		case INT_TYPE_SUB_WAYPOINT_COUNT:
; 224  : 		////////////////////////////////////////
; 225  : 		{
; 226  : 			value = raw->sub_waypoint_count;

  00053	8b 45 fc	 mov	 eax, DWORD PTR _raw$[ebp]
  00056	8b 88 7c 01 00
	00		 mov	 ecx, DWORD PTR [eax+380]
  0005c	81 e1 ff 03 00
	00		 and	 ecx, 1023		; 000003ffH
  00062	89 4d f8	 mov	 DWORD PTR _value$[ebp], ecx

; 227  : 
; 228  : 			break;

  00065	e9 af 00 00 00	 jmp	 $LN2@get_local_
$LN7@get_local_:

; 229  : 		}
; 230  : 		////////////////////////////////////////
; 231  : 		case INT_TYPE_TASK_TARGET_TYPE:
; 232  : 		////////////////////////////////////////
; 233  : 		{
; 234  : 			value = (TASK_TARGET_TYPE_ANY | TASK_TARGET_TYPE_MOBILE | TASK_TARGET_TYPE_VEHICLE | TASK_TARGET_TYPE_ROUTED);

  0006a	c7 45 f8 04 48
	01 00		 mov	 DWORD PTR _value$[ebp], 83972 ; 00014804H

; 235  : 
; 236  : 			break;

  00071	e9 a3 00 00 00	 jmp	 $LN2@get_local_
$LN8@get_local_:

; 237  : 		}
; 238  : 		/*
; 239  : 		////////////////////////////////////////
; 240  : 		case INT_TYPE_TIMER:
; 241  : 		////////////////////////////////////////
; 242  : 		{
; 243  : 			value = raw->timer;
; 244  : 
; 245  : 			break;
; 246  : 		}
; 247  : 		*/
; 248  : 		////////////////////////////////////////
; 249  : 		case INT_TYPE_WAYPOINT_NEXT_INDEX:
; 250  : 		////////////////////////////////////////
; 251  : 		{
; 252  : 			value = raw->waypoint_next_index;

  00076	8b 45 fc	 mov	 eax, DWORD PTR _raw$[ebp]
  00079	8b 88 7c 01 00
	00		 mov	 ecx, DWORD PTR [eax+380]
  0007f	c1 e9 0a	 shr	 ecx, 10			; 0000000aH
  00082	81 e1 ff 03 00
	00		 and	 ecx, 1023		; 000003ffH
  00088	89 4d f8	 mov	 DWORD PTR _value$[ebp], ecx

; 253  : 
; 254  : 			break;

  0008b	e9 89 00 00 00	 jmp	 $LN2@get_local_
$LN9@get_local_:

; 255  : 		}
; 256  : 		////////////////////////////////////////
; 257  : 		case INT_TYPE_WAYPOINT_THIS_INDEX:
; 258  : 		////////////////////////////////////////
; 259  : 		{
; 260  : 			value = raw->waypoint_this_index;

  00090	8b 45 fc	 mov	 eax, DWORD PTR _raw$[ebp]
  00093	8b 88 7c 01 00
	00		 mov	 ecx, DWORD PTR [eax+380]
  00099	c1 e9 14	 shr	 ecx, 20			; 00000014H
  0009c	81 e1 ff 03 00
	00		 and	 ecx, 1023		; 000003ffH
  000a2	89 4d f8	 mov	 DWORD PTR _value$[ebp], ecx

; 261  : 
; 262  : 			break;

  000a5	eb 72		 jmp	 SHORT $LN2@get_local_
$LN10@get_local_:

; 263  : 		}
; 264  : 		////////////////////////////////////////
; 265  : 		default:
; 266  : 		////////////////////////////////////////
; 267  : 		{
; 268  : 			debug_fatal_invalid_int_type (en, type);

  000a7	83 7d 08 00	 cmp	 DWORD PTR _en$[ebp], 0
  000ab	74 0a		 je	 SHORT $LN12@get_local_
  000ad	8b 45 08	 mov	 eax, DWORD PTR _en$[ebp]
  000b0	8b 08		 mov	 ecx, DWORD PTR [eax]
  000b2	89 4d b4	 mov	 DWORD PTR tv90[ebp], ecx
  000b5	eb 21		 jmp	 SHORT $LN13@get_local_
$LN12@get_local_:
  000b7	8b 15 00 00 00
	00		 mov	 edx, DWORD PTR ?__LINE__Var@?0??get_local_int_value@@YGHPAUENTITY@@W4INT_TYPES@@@Z@4JA
  000bd	83 c2 49	 add	 edx, 73			; 00000049H
  000c0	52		 push	 edx
  000c1	68 00 00 00 00	 push	 OFFSET ??_C@_0FC@GLBFDLBE@c?3?2users?2nhv90?2projects?2eech?2ap@
  000c6	a1 00 00 00 00	 mov	 eax, DWORD PTR ?null_entity_pointer_message@@3PBDB ; null_entity_pointer_message
  000cb	50		 push	 eax
  000cc	e8 00 00 00 00	 call	 ?process_assert@@YGXPBD0H@Z ; process_assert
  000d1	c7 45 b4 00 00
	00 00		 mov	 DWORD PTR tv90[ebp], 0
$LN13@get_local_:
  000d8	8b 0d 00 00 00
	00		 mov	 ecx, DWORD PTR ?__LINE__Var@?0??get_local_int_value@@YGHPAUENTITY@@W4INT_TYPES@@@Z@4JA
  000de	83 c1 49	 add	 ecx, 73			; 00000049H
  000e1	51		 push	 ecx
  000e2	68 00 00 00 00	 push	 OFFSET ??_C@_0FC@GLBFDLBE@c?3?2users?2nhv90?2projects?2eech?2ap@
  000e7	6b 55 0c 14	 imul	 edx, DWORD PTR _type$[ebp], 20
  000eb	8b 82 00 00 00
	00		 mov	 eax, DWORD PTR ?int_type_database@@3PAUINT_TYPE_DATA@@A[edx]
  000f1	50		 push	 eax
  000f2	8b 4d 08	 mov	 ecx, DWORD PTR _en$[ebp]
  000f5	2b 0d 00 00 00
	00		 sub	 ecx, DWORD PTR ?entities@@3PAUENTITY@@A ; entities
  000fb	c1 f9 04	 sar	 ecx, 4
  000fe	51		 push	 ecx
  000ff	6b 55 b4 0c	 imul	 edx, DWORD PTR tv90[ebp], 12
  00103	8b 82 00 00 00
	00		 mov	 eax, DWORD PTR ?entity_type_database@@3PAUENTITY_TYPE_DATA@@A[edx]
  00109	50		 push	 eax
  0010a	8b 0d 00 00 00
	00		 mov	 ecx, DWORD PTR ?debug_fatal_invalid_int_type_message@@3PBDB ; debug_fatal_invalid_int_type_message
  00110	51		 push	 ecx
  00111	e8 00 00 00 00	 call	 ?debug_fatal@@YAXPBDZZ	; debug_fatal
  00116	83 c4 18	 add	 esp, 24			; 00000018H
$LN2@get_local_:

; 269  : 
; 270  : 			break;
; 271  : 		}
; 272  : 	}
; 273  : 
; 274  : 	return (value);

  00119	8b 45 f8	 mov	 eax, DWORD PTR _value$[ebp]

; 275  : }

  0011c	5f		 pop	 edi
  0011d	5e		 pop	 esi
  0011e	5b		 pop	 ebx
  0011f	8b e5		 mov	 esp, ebp
  00121	5d		 pop	 ebp
  00122	c2 08 00	 ret	 8
  00125	0f 1f 00	 npad	 3
$LN15@get_local_:
  00128	00 00 00 00	 DD	 $LN4@get_local_
  0012c	00 00 00 00	 DD	 $LN5@get_local_
  00130	00 00 00 00	 DD	 $LN6@get_local_
  00134	00 00 00 00	 DD	 $LN7@get_local_
  00138	00 00 00 00	 DD	 $LN8@get_local_
  0013c	00 00 00 00	 DD	 $LN9@get_local_
  00140	00 00 00 00	 DD	 $LN10@get_local_
$LN14@get_local_:
  00144	00		 DB	 0
  00145	06		 DB	 6
  00146	06		 DB	 6
  00147	06		 DB	 6
  00148	06		 DB	 6
  00149	06		 DB	 6
  0014a	06		 DB	 6
  0014b	06		 DB	 6
  0014c	06		 DB	 6
  0014d	06		 DB	 6
  0014e	06		 DB	 6
  0014f	06		 DB	 6
  00150	06		 DB	 6
  00151	06		 DB	 6
  00152	06		 DB	 6
  00153	06		 DB	 6
  00154	06		 DB	 6
  00155	06		 DB	 6
  00156	06		 DB	 6
  00157	06		 DB	 6
  00158	06		 DB	 6
  00159	06		 DB	 6
  0015a	06		 DB	 6
  0015b	06		 DB	 6
  0015c	06		 DB	 6
  0015d	06		 DB	 6
  0015e	06		 DB	 6
  0015f	06		 DB	 6
  00160	06		 DB	 6
  00161	06		 DB	 6
  00162	06		 DB	 6
  00163	06		 DB	 6
  00164	06		 DB	 6
  00165	06		 DB	 6
  00166	06		 DB	 6
  00167	06		 DB	 6
  00168	06		 DB	 6
  00169	06		 DB	 6
  0016a	06		 DB	 6
  0016b	06		 DB	 6
  0016c	06		 DB	 6
  0016d	06		 DB	 6
  0016e	06		 DB	 6
  0016f	06		 DB	 6
  00170	06		 DB	 6
  00171	06		 DB	 6
  00172	06		 DB	 6
  00173	06		 DB	 6
  00174	06		 DB	 6
  00175	06		 DB	 6
  00176	01		 DB	 1
  00177	06		 DB	 6
  00178	06		 DB	 6
  00179	06		 DB	 6
  0017a	06		 DB	 6
  0017b	06		 DB	 6
  0017c	06		 DB	 6
  0017d	06		 DB	 6
  0017e	06		 DB	 6
  0017f	06		 DB	 6
  00180	06		 DB	 6
  00181	06		 DB	 6
  00182	06		 DB	 6
  00183	06		 DB	 6
  00184	06		 DB	 6
  00185	06		 DB	 6
  00186	06		 DB	 6
  00187	06		 DB	 6
  00188	06		 DB	 6
  00189	06		 DB	 6
  0018a	06		 DB	 6
  0018b	06		 DB	 6
  0018c	06		 DB	 6
  0018d	06		 DB	 6
  0018e	06		 DB	 6
  0018f	06		 DB	 6
  00190	06		 DB	 6
  00191	06		 DB	 6
  00192	06		 DB	 6
  00193	06		 DB	 6
  00194	06		 DB	 6
  00195	06		 DB	 6
  00196	06		 DB	 6
  00197	06		 DB	 6
  00198	06		 DB	 6
  00199	06		 DB	 6
  0019a	06		 DB	 6
  0019b	06		 DB	 6
  0019c	06		 DB	 6
  0019d	06		 DB	 6
  0019e	06		 DB	 6
  0019f	06		 DB	 6
  001a0	06		 DB	 6
  001a1	06		 DB	 6
  001a2	06		 DB	 6
  001a3	06		 DB	 6
  001a4	06		 DB	 6
  001a5	06		 DB	 6
  001a6	06		 DB	 6
  001a7	06		 DB	 6
  001a8	06		 DB	 6
  001a9	06		 DB	 6
  001aa	06		 DB	 6
  001ab	06		 DB	 6
  001ac	06		 DB	 6
  001ad	06		 DB	 6
  001ae	06		 DB	 6
  001af	06		 DB	 6
  001b0	06		 DB	 6
  001b1	06		 DB	 6
  001b2	06		 DB	 6
  001b3	06		 DB	 6
  001b4	06		 DB	 6
  001b5	02		 DB	 2
  001b6	06		 DB	 6
  001b7	06		 DB	 6
  001b8	06		 DB	 6
  001b9	06		 DB	 6
  001ba	06		 DB	 6
  001bb	06		 DB	 6
  001bc	06		 DB	 6
  001bd	06		 DB	 6
  001be	06		 DB	 6
  001bf	06		 DB	 6
  001c0	06		 DB	 6
  001c1	06		 DB	 6
  001c2	06		 DB	 6
  001c3	06		 DB	 6
  001c4	06		 DB	 6
  001c5	06		 DB	 6
  001c6	06		 DB	 6
  001c7	06		 DB	 6
  001c8	06		 DB	 6
  001c9	06		 DB	 6
  001ca	06		 DB	 6
  001cb	06		 DB	 6
  001cc	03		 DB	 3
  001cd	06		 DB	 6
  001ce	06		 DB	 6
  001cf	06		 DB	 6
  001d0	06		 DB	 6
  001d1	06		 DB	 6
  001d2	06		 DB	 6
  001d3	06		 DB	 6
  001d4	06		 DB	 6
  001d5	06		 DB	 6
  001d6	06		 DB	 6
  001d7	06		 DB	 6
  001d8	06		 DB	 6
  001d9	06		 DB	 6
  001da	06		 DB	 6
  001db	06		 DB	 6
  001dc	06		 DB	 6
  001dd	06		 DB	 6
  001de	06		 DB	 6
  001df	06		 DB	 6
  001e0	06		 DB	 6
  001e1	06		 DB	 6
  001e2	06		 DB	 6
  001e3	06		 DB	 6
  001e4	06		 DB	 6
  001e5	06		 DB	 6
  001e6	04		 DB	 4
  001e7	05		 DB	 5
?get_local_int_value@@YGHPAUENTITY@@W4INT_TYPES@@@Z ENDP ; get_local_int_value
_TEXT	ENDS
; Function compile flags: /Odtp /ZI
; File c:\users\nhv90\projects\eech\aphavoc\source\entity\mobile\vehicle\routed\rv_int.c
;	COMDAT ?set_client_int_value@@YGXPAUENTITY@@W4INT_TYPES@@H@Z
_TEXT	SEGMENT
_en$ = 8						; size = 4
_type$ = 12						; size = 4
_value$ = 16						; size = 4
?set_client_int_value@@YGXPAUENTITY@@W4INT_TYPES@@H@Z PROC ; set_client_int_value, COMDAT

; 175  : {

  00000	55		 push	 ebp
  00001	8b ec		 mov	 ebp, esp
  00003	83 ec 40	 sub	 esp, 64			; 00000040H
  00006	53		 push	 ebx
  00007	56		 push	 esi
  00008	57		 push	 edi

; 176  : 	if (get_comms_data_flow () == COMMS_DATA_FLOW_TX)

  00009	83 3d 00 00 00
	00 00		 cmp	 DWORD PTR ?system_comms_data_flow@@3W4COMMS_DATA_FLOW_TYPES@@A, 0 ; system_comms_data_flow
  00010	75 34		 jne	 SHORT $LN2@set_client

; 177  : 	{
; 178  : 		validate_client_server_remote_fn ();

  00012	e8 00 00 00 00	 call	 ?assert_client_server_remote_fn@@YGHXZ ; assert_client_server_remote_fn
  00017	85 c0		 test	 eax, eax
  00019	75 18		 jne	 SHORT $LN4@set_client
  0001b	a1 00 00 00 00	 mov	 eax, DWORD PTR ?__LINE__Var@?0??set_client_int_value@@YGXPAUENTITY@@W4INT_TYPES@@H@Z@4JA
  00020	83 c0 03	 add	 eax, 3
  00023	50		 push	 eax
  00024	68 00 00 00 00	 push	 OFFSET ??_C@_0FC@GLBFDLBE@c?3?2users?2nhv90?2projects?2eech?2ap@
  00029	68 00 00 00 00	 push	 OFFSET ??_C@_0CC@BNNNEGEG@assert_client_server_remote_fn?5@
  0002e	e8 00 00 00 00	 call	 ?process_assert@@YGXPBD0H@Z ; process_assert
$LN4@set_client:

; 179  : 
; 180  : 		set_remote_int_value (en, type, value);

  00033	8b 45 10	 mov	 eax, DWORD PTR _value$[ebp]
  00036	50		 push	 eax
  00037	8b 4d 0c	 mov	 ecx, DWORD PTR _type$[ebp]
  0003a	51		 push	 ecx
  0003b	8b 55 08	 mov	 edx, DWORD PTR _en$[ebp]
  0003e	52		 push	 edx
  0003f	e8 00 00 00 00	 call	 ?set_remote_int_value@@YGXPAUENTITY@@W4INT_TYPES@@H@Z ; set_remote_int_value

; 181  : 	}
; 182  : 	else

  00044	eb 32		 jmp	 SHORT $LN1@set_client
$LN2@set_client:

; 183  : 	{
; 184  : 		validate_client_server_local_fn ();

  00046	e8 00 00 00 00	 call	 ?assert_client_server_local_fn@@YGHXZ ; assert_client_server_local_fn
  0004b	85 c0		 test	 eax, eax
  0004d	75 18		 jne	 SHORT $LN5@set_client
  0004f	a1 00 00 00 00	 mov	 eax, DWORD PTR ?__LINE__Var@?0??set_client_int_value@@YGXPAUENTITY@@W4INT_TYPES@@H@Z@4JA
  00054	83 c0 09	 add	 eax, 9
  00057	50		 push	 eax
  00058	68 00 00 00 00	 push	 OFFSET ??_C@_0FC@GLBFDLBE@c?3?2users?2nhv90?2projects?2eech?2ap@
  0005d	68 00 00 00 00	 push	 OFFSET ??_C@_0CB@CFOCLFOK@assert_client_server_local_fn?5?$CI@
  00062	e8 00 00 00 00	 call	 ?process_assert@@YGXPBD0H@Z ; process_assert
$LN5@set_client:

; 185  : 
; 186  : 		set_local_int_value (en, type, value);

  00067	8b 45 10	 mov	 eax, DWORD PTR _value$[ebp]
  0006a	50		 push	 eax
  0006b	8b 4d 0c	 mov	 ecx, DWORD PTR _type$[ebp]
  0006e	51		 push	 ecx
  0006f	8b 55 08	 mov	 edx, DWORD PTR _en$[ebp]
  00072	52		 push	 edx
  00073	e8 00 00 00 00	 call	 ?set_local_int_value@@YGXPAUENTITY@@W4INT_TYPES@@H@Z ; set_local_int_value
$LN1@set_client:

; 187  : 	}
; 188  : }

  00078	5f		 pop	 edi
  00079	5e		 pop	 esi
  0007a	5b		 pop	 ebx
  0007b	8b e5		 mov	 esp, ebp
  0007d	5d		 pop	 ebp
  0007e	c2 0c 00	 ret	 12			; 0000000cH
?set_client_int_value@@YGXPAUENTITY@@W4INT_TYPES@@H@Z ENDP ; set_client_int_value
_TEXT	ENDS
; Function compile flags: /Odtp /ZI
; File c:\users\nhv90\projects\eech\aphavoc\source\entity\mobile\vehicle\routed\rv_int.c
;	COMDAT ?set_server_int_value@@YGXPAUENTITY@@W4INT_TYPES@@H@Z
_TEXT	SEGMENT
_en$ = 8						; size = 4
_type$ = 12						; size = 4
_value$ = 16						; size = 4
?set_server_int_value@@YGXPAUENTITY@@W4INT_TYPES@@H@Z PROC ; set_server_int_value, COMDAT

; 160  : {

  00000	55		 push	 ebp
  00001	8b ec		 mov	 ebp, esp
  00003	83 ec 40	 sub	 esp, 64			; 00000040H
  00006	53		 push	 ebx
  00007	56		 push	 esi
  00008	57		 push	 edi

; 161  : 	validate_client_server_local_fn ();

  00009	e8 00 00 00 00	 call	 ?assert_client_server_local_fn@@YGHXZ ; assert_client_server_local_fn
  0000e	85 c0		 test	 eax, eax
  00010	75 18		 jne	 SHORT $LN2@set_server
  00012	a1 00 00 00 00	 mov	 eax, DWORD PTR ?__LINE__Var@?0??set_server_int_value@@YGXPAUENTITY@@W4INT_TYPES@@H@Z@4JA
  00017	83 c0 01	 add	 eax, 1
  0001a	50		 push	 eax
  0001b	68 00 00 00 00	 push	 OFFSET ??_C@_0FC@GLBFDLBE@c?3?2users?2nhv90?2projects?2eech?2ap@
  00020	68 00 00 00 00	 push	 OFFSET ??_C@_0CB@CFOCLFOK@assert_client_server_local_fn?5?$CI@
  00025	e8 00 00 00 00	 call	 ?process_assert@@YGXPBD0H@Z ; process_assert
$LN2@set_server:

; 162  : 
; 163  : 	set_local_int_value (en, type, value);

  0002a	8b 45 10	 mov	 eax, DWORD PTR _value$[ebp]
  0002d	50		 push	 eax
  0002e	8b 4d 0c	 mov	 ecx, DWORD PTR _type$[ebp]
  00031	51		 push	 ecx
  00032	8b 55 08	 mov	 edx, DWORD PTR _en$[ebp]
  00035	52		 push	 edx
  00036	e8 00 00 00 00	 call	 ?set_local_int_value@@YGXPAUENTITY@@W4INT_TYPES@@H@Z ; set_local_int_value

; 164  : 
; 165  : 	validate_client_server_remote_fn ();

  0003b	e8 00 00 00 00	 call	 ?assert_client_server_remote_fn@@YGHXZ ; assert_client_server_remote_fn
  00040	85 c0		 test	 eax, eax
  00042	75 18		 jne	 SHORT $LN3@set_server
  00044	a1 00 00 00 00	 mov	 eax, DWORD PTR ?__LINE__Var@?0??set_server_int_value@@YGXPAUENTITY@@W4INT_TYPES@@H@Z@4JA
  00049	83 c0 05	 add	 eax, 5
  0004c	50		 push	 eax
  0004d	68 00 00 00 00	 push	 OFFSET ??_C@_0FC@GLBFDLBE@c?3?2users?2nhv90?2projects?2eech?2ap@
  00052	68 00 00 00 00	 push	 OFFSET ??_C@_0CC@BNNNEGEG@assert_client_server_remote_fn?5@
  00057	e8 00 00 00 00	 call	 ?process_assert@@YGXPBD0H@Z ; process_assert
$LN3@set_server:

; 166  : 
; 167  : 	set_remote_int_value (en, type, value);

  0005c	8b 45 10	 mov	 eax, DWORD PTR _value$[ebp]
  0005f	50		 push	 eax
  00060	8b 4d 0c	 mov	 ecx, DWORD PTR _type$[ebp]
  00063	51		 push	 ecx
  00064	8b 55 08	 mov	 edx, DWORD PTR _en$[ebp]
  00067	52		 push	 edx
  00068	e8 00 00 00 00	 call	 ?set_remote_int_value@@YGXPAUENTITY@@W4INT_TYPES@@H@Z ; set_remote_int_value

; 168  : }

  0006d	5f		 pop	 edi
  0006e	5e		 pop	 esi
  0006f	5b		 pop	 ebx
  00070	8b e5		 mov	 esp, ebp
  00072	5d		 pop	 ebp
  00073	c2 0c 00	 ret	 12			; 0000000cH
?set_server_int_value@@YGXPAUENTITY@@W4INT_TYPES@@H@Z ENDP ; set_server_int_value
_TEXT	ENDS
; Function compile flags: /Odtp /ZI
; File c:\users\nhv90\projects\eech\aphavoc\source\entity\mobile\vehicle\routed\rv_int.c
;	COMDAT ?set_remote_int_value@@YGXPAUENTITY@@W4INT_TYPES@@H@Z
_TEXT	SEGMENT
_en$ = 8						; size = 4
_type$ = 12						; size = 4
_value$ = 16						; size = 4
?set_remote_int_value@@YGXPAUENTITY@@W4INT_TYPES@@H@Z PROC ; set_remote_int_value, COMDAT

; 145  : {

  00000	55		 push	 ebp
  00001	8b ec		 mov	 ebp, esp
  00003	83 ec 40	 sub	 esp, 64			; 00000040H
  00006	53		 push	 ebx
  00007	56		 push	 esi
  00008	57		 push	 edi

; 146  : 	#if DEBUG_MODULE
; 147  : 
; 148  : 	debug_log_entity_args (ENTITY_DEBUG_REMOTE, ENTITY_DEBUG_INT_VALUE, en, type, value);
; 149  : 
; 150  : 	#endif
; 151  : 
; 152  : 	transmit_entity_comms_message (ENTITY_COMMS_INT_VALUE, en, type, value);

  00009	8b 45 10	 mov	 eax, DWORD PTR _value$[ebp]
  0000c	50		 push	 eax
  0000d	8b 4d 0c	 mov	 ecx, DWORD PTR _type$[ebp]
  00010	51		 push	 ecx
  00011	8b 55 08	 mov	 edx, DWORD PTR _en$[ebp]
  00014	52		 push	 edx
  00015	6a 17		 push	 23			; 00000017H
  00017	e8 00 00 00 00	 call	 ?transmit_entity_comms_message@@YAXW4ENTITY_COMMS_MESSAGES@@PAUENTITY@@ZZ ; transmit_entity_comms_message
  0001c	83 c4 10	 add	 esp, 16			; 00000010H

; 153  : }

  0001f	5f		 pop	 edi
  00020	5e		 pop	 esi
  00021	5b		 pop	 ebx
  00022	8b e5		 mov	 esp, ebp
  00024	5d		 pop	 ebp
  00025	c2 0c 00	 ret	 12			; 0000000cH
?set_remote_int_value@@YGXPAUENTITY@@W4INT_TYPES@@H@Z ENDP ; set_remote_int_value
_TEXT	ENDS
; Function compile flags: /Odtp /ZI
; File c:\users\nhv90\projects\eech\aphavoc\source\entity\mobile\vehicle\routed\rv_int.c
;	COMDAT ?set_local_int_value@@YGXPAUENTITY@@W4INT_TYPES@@H@Z
_TEXT	SEGMENT
tv131 = -72						; size = 4
tv65 = -72						; size = 4
_raw$ = -4						; size = 4
_en$ = 8						; size = 4
_type$ = 12						; size = 4
_value$ = 16						; size = 4
?set_local_int_value@@YGXPAUENTITY@@W4INT_TYPES@@H@Z PROC ; set_local_int_value, COMDAT

; 80   : {

  00000	55		 push	 ebp
  00001	8b ec		 mov	 ebp, esp
  00003	83 ec 48	 sub	 esp, 72			; 00000048H
  00006	53		 push	 ebx
  00007	56		 push	 esi
  00008	57		 push	 edi

; 81   : 	routed_vehicle
; 82   : 		*raw;
; 83   : 
; 84   : 	#if DEBUG_MODULE
; 85   : 
; 86   : 	debug_log_entity_args (ENTITY_DEBUG_LOCAL, ENTITY_DEBUG_INT_VALUE, en, type, value);
; 87   : 
; 88   : 	#endif
; 89   : 
; 90   : 	raw = (routed_vehicle *) get_local_entity_data (en);

  00009	8b 45 08	 mov	 eax, DWORD PTR _en$[ebp]
  0000c	8b 48 04	 mov	 ecx, DWORD PTR [eax+4]
  0000f	89 4d fc	 mov	 DWORD PTR _raw$[ebp], ecx

; 91   : 
; 92   : 	switch (type)

  00012	8b 45 0c	 mov	 eax, DWORD PTR _type$[ebp]
  00015	89 45 b8	 mov	 DWORD PTR tv65[ebp], eax
  00018	81 7d b8 cf 00
	00 00		 cmp	 DWORD PTR tv65[ebp], 207 ; 000000cfH
  0001f	74 14		 je	 SHORT $LN4@set_local_
  00021	81 7d b8 00 01
	00 00		 cmp	 DWORD PTR tv65[ebp], 256 ; 00000100H
  00028	74 32		 je	 SHORT $LN5@set_local_
  0002a	81 7d b8 01 01
	00 00		 cmp	 DWORD PTR tv65[ebp], 257 ; 00000101H
  00031	74 53		 je	 SHORT $LN6@set_local_
  00033	eb 78		 jmp	 SHORT $LN7@set_local_
$LN4@set_local_:

; 93   : 	{
; 94   : 		////////////////////////////////////////
; 95   : 		case INT_TYPE_SUB_WAYPOINT_COUNT:
; 96   : 		////////////////////////////////////////
; 97   : 		{
; 98   : 			raw->sub_waypoint_count = value;

  00035	8b 45 10	 mov	 eax, DWORD PTR _value$[ebp]
  00038	25 ff 03 00 00	 and	 eax, 1023		; 000003ffH
  0003d	8b 4d fc	 mov	 ecx, DWORD PTR _raw$[ebp]
  00040	8b 91 7c 01 00
	00		 mov	 edx, DWORD PTR [ecx+380]
  00046	81 e2 00 fc ff
	ff		 and	 edx, -1024		; fffffc00H
  0004c	0b d0		 or	 edx, eax
  0004e	8b 45 fc	 mov	 eax, DWORD PTR _raw$[ebp]
  00051	89 90 7c 01 00
	00		 mov	 DWORD PTR [eax+380], edx

; 99   : 
; 100  : 			break;

  00057	e9 c3 00 00 00	 jmp	 $LN1@set_local_
$LN5@set_local_:

; 101  : 		}
; 102  : 		/*
; 103  : 		////////////////////////////////////////
; 104  : 		case INT_TYPE_TIMER:
; 105  : 		////////////////////////////////////////
; 106  : 		{
; 107  : 			raw->timer = value;
; 108  : 
; 109  : 			break;
; 110  : 		}
; 111  : 		*/
; 112  : 		////////////////////////////////////////
; 113  : 		case INT_TYPE_WAYPOINT_NEXT_INDEX:
; 114  : 		////////////////////////////////////////
; 115  : 		{
; 116  : 
; 117  : 			raw->waypoint_next_index = value;

  0005c	8b 45 10	 mov	 eax, DWORD PTR _value$[ebp]
  0005f	25 ff 03 00 00	 and	 eax, 1023		; 000003ffH
  00064	c1 e0 0a	 shl	 eax, 10			; 0000000aH
  00067	8b 4d fc	 mov	 ecx, DWORD PTR _raw$[ebp]
  0006a	8b 91 7c 01 00
	00		 mov	 edx, DWORD PTR [ecx+380]
  00070	81 e2 ff 03 f0
	ff		 and	 edx, -1047553		; fff003ffH
  00076	0b d0		 or	 edx, eax
  00078	8b 45 fc	 mov	 eax, DWORD PTR _raw$[ebp]
  0007b	89 90 7c 01 00
	00		 mov	 DWORD PTR [eax+380], edx

; 118  : 
; 119  : 			break;

  00081	e9 99 00 00 00	 jmp	 $LN1@set_local_
$LN6@set_local_:

; 120  : 		}
; 121  : 		////////////////////////////////////////
; 122  : 		case INT_TYPE_WAYPOINT_THIS_INDEX:
; 123  : 		////////////////////////////////////////
; 124  : 		{
; 125  : 			raw->waypoint_this_index = value;

  00086	8b 45 10	 mov	 eax, DWORD PTR _value$[ebp]
  00089	25 ff 03 00 00	 and	 eax, 1023		; 000003ffH
  0008e	c1 e0 14	 shl	 eax, 20			; 00000014H
  00091	8b 4d fc	 mov	 ecx, DWORD PTR _raw$[ebp]
  00094	8b 91 7c 01 00
	00		 mov	 edx, DWORD PTR [ecx+380]
  0009a	81 e2 ff ff 0f
	c0		 and	 edx, -1072693249	; c00fffffH
  000a0	0b d0		 or	 edx, eax
  000a2	8b 45 fc	 mov	 eax, DWORD PTR _raw$[ebp]
  000a5	89 90 7c 01 00
	00		 mov	 DWORD PTR [eax+380], edx

; 126  : 
; 127  : 			break;

  000ab	eb 72		 jmp	 SHORT $LN1@set_local_
$LN7@set_local_:

; 128  : 		}
; 129  : 		////////////////////////////////////////
; 130  : 		default:
; 131  : 		////////////////////////////////////////
; 132  : 		{
; 133  : 			debug_fatal_invalid_int_type (en, type);

  000ad	83 7d 08 00	 cmp	 DWORD PTR _en$[ebp], 0
  000b1	74 0a		 je	 SHORT $LN9@set_local_
  000b3	8b 45 08	 mov	 eax, DWORD PTR _en$[ebp]
  000b6	8b 08		 mov	 ecx, DWORD PTR [eax]
  000b8	89 4d b8	 mov	 DWORD PTR tv131[ebp], ecx
  000bb	eb 21		 jmp	 SHORT $LN10@set_local_
$LN9@set_local_:
  000bd	8b 15 00 00 00
	00		 mov	 edx, DWORD PTR ?__LINE__Var@?0??set_local_int_value@@YGXPAUENTITY@@W4INT_TYPES@@H@Z@4JA
  000c3	83 c2 35	 add	 edx, 53			; 00000035H
  000c6	52		 push	 edx
  000c7	68 00 00 00 00	 push	 OFFSET ??_C@_0FC@GLBFDLBE@c?3?2users?2nhv90?2projects?2eech?2ap@
  000cc	a1 00 00 00 00	 mov	 eax, DWORD PTR ?null_entity_pointer_message@@3PBDB ; null_entity_pointer_message
  000d1	50		 push	 eax
  000d2	e8 00 00 00 00	 call	 ?process_assert@@YGXPBD0H@Z ; process_assert
  000d7	c7 45 b8 00 00
	00 00		 mov	 DWORD PTR tv131[ebp], 0
$LN10@set_local_:
  000de	8b 0d 00 00 00
	00		 mov	 ecx, DWORD PTR ?__LINE__Var@?0??set_local_int_value@@YGXPAUENTITY@@W4INT_TYPES@@H@Z@4JA
  000e4	83 c1 35	 add	 ecx, 53			; 00000035H
  000e7	51		 push	 ecx
  000e8	68 00 00 00 00	 push	 OFFSET ??_C@_0FC@GLBFDLBE@c?3?2users?2nhv90?2projects?2eech?2ap@
  000ed	6b 55 0c 14	 imul	 edx, DWORD PTR _type$[ebp], 20
  000f1	8b 82 00 00 00
	00		 mov	 eax, DWORD PTR ?int_type_database@@3PAUINT_TYPE_DATA@@A[edx]
  000f7	50		 push	 eax
  000f8	8b 4d 08	 mov	 ecx, DWORD PTR _en$[ebp]
  000fb	2b 0d 00 00 00
	00		 sub	 ecx, DWORD PTR ?entities@@3PAUENTITY@@A ; entities
  00101	c1 f9 04	 sar	 ecx, 4
  00104	51		 push	 ecx
  00105	6b 55 b8 0c	 imul	 edx, DWORD PTR tv131[ebp], 12
  00109	8b 82 00 00 00
	00		 mov	 eax, DWORD PTR ?entity_type_database@@3PAUENTITY_TYPE_DATA@@A[edx]
  0010f	50		 push	 eax
  00110	8b 0d 00 00 00
	00		 mov	 ecx, DWORD PTR ?debug_fatal_invalid_int_type_message@@3PBDB ; debug_fatal_invalid_int_type_message
  00116	51		 push	 ecx
  00117	e8 00 00 00 00	 call	 ?debug_fatal@@YAXPBDZZ	; debug_fatal
  0011c	83 c4 18	 add	 esp, 24			; 00000018H
$LN1@set_local_:

; 134  : 
; 135  : 			break;
; 136  : 		}
; 137  : 	}
; 138  : }

  0011f	5f		 pop	 edi
  00120	5e		 pop	 esi
  00121	5b		 pop	 ebx
  00122	8b e5		 mov	 esp, ebp
  00124	5d		 pop	 ebp
  00125	c2 0c 00	 ret	 12			; 0000000cH
?set_local_int_value@@YGXPAUENTITY@@W4INT_TYPES@@H@Z ENDP ; set_local_int_value
_TEXT	ENDS
; Function compile flags: /Odtp /ZI
; File c:\users\nhv90\projects\eech\aphavoc\source\entity\mobile\vehicle\routed\rv_int.c
;	COMDAT ?overload_routed_vehicle_int_value_functions@@YGXXZ
_TEXT	SEGMENT
?overload_routed_vehicle_int_value_functions@@YGXXZ PROC ; overload_routed_vehicle_int_value_functions, COMDAT

; 282  : {

  00000	55		 push	 ebp
  00001	8b ec		 mov	 ebp, esp
  00003	83 ec 40	 sub	 esp, 64			; 00000040H
  00006	53		 push	 ebx
  00007	56		 push	 esi
  00008	57		 push	 edi

; 283  : 	fn_get_local_entity_int_value				[ENTITY_TYPE_ROUTED_VEHICLE][INT_TYPE_IDENTIFY_ROUTED]								= get_local_int_value;

  00009	b8 5c 04 00 00	 mov	 eax, 1116		; 0000045cH
  0000e	6b c8 17	 imul	 ecx, eax, 23
  00011	ba 04 00 00 00	 mov	 edx, 4
  00016	6b c2 5e	 imul	 eax, edx, 94
  00019	c7 84 01 00 00
	00 00 00 00 00
	00		 mov	 DWORD PTR ?fn_get_local_entity_int_value@@3PAY0BBH@P6GHPAUENTITY@@W4INT_TYPES@@@ZA[ecx+eax], OFFSET ?get_local_int_value@@YGHPAUENTITY@@W4INT_TYPES@@@Z ; get_local_int_value

; 284  : 
; 285  : 	fn_get_local_entity_int_value				[ENTITY_TYPE_ROUTED_VEHICLE][INT_TYPE_MOVEMENT_TYPE]									= get_local_int_value;

  00024	b8 5c 04 00 00	 mov	 eax, 1116		; 0000045cH
  00029	6b c8 17	 imul	 ecx, eax, 23
  0002c	ba 04 00 00 00	 mov	 edx, 4
  00031	69 c2 90 00 00
	00		 imul	 eax, edx, 144
  00037	c7 84 01 00 00
	00 00 00 00 00
	00		 mov	 DWORD PTR ?fn_get_local_entity_int_value@@3PAY0BBH@P6GHPAUENTITY@@W4INT_TYPES@@@ZA[ecx+eax], OFFSET ?get_local_int_value@@YGHPAUENTITY@@W4INT_TYPES@@@Z ; get_local_int_value

; 286  : 
; 287  : 	fn_set_local_entity_raw_int_value		[ENTITY_TYPE_ROUTED_VEHICLE][INT_TYPE_SUB_WAYPOINT_COUNT]							= set_local_int_value;

  00042	b8 5c 04 00 00	 mov	 eax, 1116		; 0000045cH
  00047	6b c8 17	 imul	 ecx, eax, 23
  0004a	ba 04 00 00 00	 mov	 edx, 4
  0004f	69 c2 cf 00 00
	00		 imul	 eax, edx, 207
  00055	c7 84 01 00 00
	00 00 00 00 00
	00		 mov	 DWORD PTR ?fn_set_local_entity_raw_int_value@@3PAY0BBH@P6GXPAUENTITY@@W4INT_TYPES@@H@ZA[ecx+eax], OFFSET ?set_local_int_value@@YGXPAUENTITY@@W4INT_TYPES@@H@Z ; set_local_int_value

; 288  : 	fn_set_local_entity_int_value				[ENTITY_TYPE_ROUTED_VEHICLE][INT_TYPE_SUB_WAYPOINT_COUNT]							= set_local_int_value;

  00060	b8 5c 04 00 00	 mov	 eax, 1116		; 0000045cH
  00065	6b c8 17	 imul	 ecx, eax, 23
  00068	ba 04 00 00 00	 mov	 edx, 4
  0006d	69 c2 cf 00 00
	00		 imul	 eax, edx, 207
  00073	c7 84 01 00 00
	00 00 00 00 00
	00		 mov	 DWORD PTR ?fn_set_local_entity_int_value@@3PAY0BBH@P6GXPAUENTITY@@W4INT_TYPES@@H@ZA[ecx+eax], OFFSET ?set_local_int_value@@YGXPAUENTITY@@W4INT_TYPES@@H@Z ; set_local_int_value

; 289  : 	fn_set_client_server_entity_int_value	[ENTITY_TYPE_ROUTED_VEHICLE][INT_TYPE_SUB_WAYPOINT_COUNT][COMMS_MODEL_SERVER]	= set_server_int_value;

  0007e	b8 b8 08 00 00	 mov	 eax, 2232		; 000008b8H
  00083	6b c8 17	 imul	 ecx, eax, 23
  00086	ba 08 00 00 00	 mov	 edx, 8
  0008b	69 c2 cf 00 00
	00		 imul	 eax, edx, 207
  00091	8d 8c 01 00 00
	00 00		 lea	 ecx, DWORD PTR ?fn_set_client_server_entity_int_value@@3PAY1BBH@1P6GXPAUENTITY@@W4INT_TYPES@@H@ZA[ecx+eax]
  00098	ba 04 00 00 00	 mov	 edx, 4
  0009d	6b c2 00	 imul	 eax, edx, 0
  000a0	c7 04 01 00 00
	00 00		 mov	 DWORD PTR [ecx+eax], OFFSET ?set_server_int_value@@YGXPAUENTITY@@W4INT_TYPES@@H@Z ; set_server_int_value

; 290  : 	fn_set_client_server_entity_int_value	[ENTITY_TYPE_ROUTED_VEHICLE][INT_TYPE_SUB_WAYPOINT_COUNT][COMMS_MODEL_CLIENT]	= set_client_int_value;

  000a7	b8 b8 08 00 00	 mov	 eax, 2232		; 000008b8H
  000ac	6b c8 17	 imul	 ecx, eax, 23
  000af	ba 08 00 00 00	 mov	 edx, 8
  000b4	69 c2 cf 00 00
	00		 imul	 eax, edx, 207
  000ba	8d 8c 01 00 00
	00 00		 lea	 ecx, DWORD PTR ?fn_set_client_server_entity_int_value@@3PAY1BBH@1P6GXPAUENTITY@@W4INT_TYPES@@H@ZA[ecx+eax]
  000c1	ba 04 00 00 00	 mov	 edx, 4
  000c6	c1 e2 00	 shl	 edx, 0
  000c9	c7 04 11 00 00
	00 00		 mov	 DWORD PTR [ecx+edx], OFFSET ?set_client_int_value@@YGXPAUENTITY@@W4INT_TYPES@@H@Z ; set_client_int_value

; 291  : 	fn_get_local_entity_int_value				[ENTITY_TYPE_ROUTED_VEHICLE][INT_TYPE_SUB_WAYPOINT_COUNT]							= get_local_int_value;

  000d0	b8 5c 04 00 00	 mov	 eax, 1116		; 0000045cH
  000d5	6b c8 17	 imul	 ecx, eax, 23
  000d8	ba 04 00 00 00	 mov	 edx, 4
  000dd	69 c2 cf 00 00
	00		 imul	 eax, edx, 207
  000e3	c7 84 01 00 00
	00 00 00 00 00
	00		 mov	 DWORD PTR ?fn_get_local_entity_int_value@@3PAY0BBH@P6GHPAUENTITY@@W4INT_TYPES@@@ZA[ecx+eax], OFFSET ?get_local_int_value@@YGHPAUENTITY@@W4INT_TYPES@@@Z ; get_local_int_value

; 292  : 
; 293  : 	fn_get_local_entity_int_value				[ENTITY_TYPE_ROUTED_VEHICLE][INT_TYPE_TASK_TARGET_TYPE]								= get_local_int_value;

  000ee	b8 5c 04 00 00	 mov	 eax, 1116		; 0000045cH
  000f3	6b c8 17	 imul	 ecx, eax, 23
  000f6	ba 04 00 00 00	 mov	 edx, 4
  000fb	69 c2 e6 00 00
	00		 imul	 eax, edx, 230
  00101	c7 84 01 00 00
	00 00 00 00 00
	00		 mov	 DWORD PTR ?fn_get_local_entity_int_value@@3PAY0BBH@P6GHPAUENTITY@@W4INT_TYPES@@@ZA[ecx+eax], OFFSET ?get_local_int_value@@YGHPAUENTITY@@W4INT_TYPES@@@Z ; get_local_int_value

; 294  : 
; 295  : /*
; 296  : 	fn_set_local_entity_raw_int_value		[ENTITY_TYPE_ROUTED_VEHICLE][INT_TYPE_TIMER]									= set_local_int_value;
; 297  : 	fn_set_local_entity_int_value				[ENTITY_TYPE_ROUTED_VEHICLE][INT_TYPE_TIMER]									= set_local_int_value;
; 298  : 	fn_set_client_server_entity_int_value	[ENTITY_TYPE_ROUTED_VEHICLE][INT_TYPE_TIMER][COMMS_MODEL_SERVER]		= set_server_int_value;
; 299  : 	fn_set_client_server_entity_int_value	[ENTITY_TYPE_ROUTED_VEHICLE][INT_TYPE_TIMER][COMMS_MODEL_CLIENT]		= set_client_int_value;
; 300  : 	fn_get_local_entity_int_value				[ENTITY_TYPE_ROUTED_VEHICLE][INT_TYPE_TIMER]									= get_local_int_value;
; 301  : */
; 302  : 	fn_set_local_entity_raw_int_value		[ENTITY_TYPE_ROUTED_VEHICLE][INT_TYPE_WAYPOINT_NEXT_INDEX]								= set_local_int_value;

  0010c	b8 5c 04 00 00	 mov	 eax, 1116		; 0000045cH
  00111	6b c8 17	 imul	 ecx, eax, 23
  00114	ba 04 00 00 00	 mov	 edx, 4
  00119	c1 e2 08	 shl	 edx, 8
  0011c	c7 84 11 00 00
	00 00 00 00 00
	00		 mov	 DWORD PTR ?fn_set_local_entity_raw_int_value@@3PAY0BBH@P6GXPAUENTITY@@W4INT_TYPES@@H@ZA[ecx+edx], OFFSET ?set_local_int_value@@YGXPAUENTITY@@W4INT_TYPES@@H@Z ; set_local_int_value

; 303  : 	fn_set_local_entity_int_value				[ENTITY_TYPE_ROUTED_VEHICLE][INT_TYPE_WAYPOINT_NEXT_INDEX]								= set_local_int_value;

  00127	b8 5c 04 00 00	 mov	 eax, 1116		; 0000045cH
  0012c	6b c8 17	 imul	 ecx, eax, 23
  0012f	ba 04 00 00 00	 mov	 edx, 4
  00134	c1 e2 08	 shl	 edx, 8
  00137	c7 84 11 00 00
	00 00 00 00 00
	00		 mov	 DWORD PTR ?fn_set_local_entity_int_value@@3PAY0BBH@P6GXPAUENTITY@@W4INT_TYPES@@H@ZA[ecx+edx], OFFSET ?set_local_int_value@@YGXPAUENTITY@@W4INT_TYPES@@H@Z ; set_local_int_value

; 304  : 	fn_set_client_server_entity_int_value	[ENTITY_TYPE_ROUTED_VEHICLE][INT_TYPE_WAYPOINT_NEXT_INDEX][COMMS_MODEL_SERVER]		= set_server_int_value;

  00142	b8 b8 08 00 00	 mov	 eax, 2232		; 000008b8H
  00147	6b c8 17	 imul	 ecx, eax, 23
  0014a	ba 08 00 00 00	 mov	 edx, 8
  0014f	c1 e2 08	 shl	 edx, 8
  00152	8d 84 11 00 00
	00 00		 lea	 eax, DWORD PTR ?fn_set_client_server_entity_int_value@@3PAY1BBH@1P6GXPAUENTITY@@W4INT_TYPES@@H@ZA[ecx+edx]
  00159	b9 04 00 00 00	 mov	 ecx, 4
  0015e	6b d1 00	 imul	 edx, ecx, 0
  00161	c7 04 10 00 00
	00 00		 mov	 DWORD PTR [eax+edx], OFFSET ?set_server_int_value@@YGXPAUENTITY@@W4INT_TYPES@@H@Z ; set_server_int_value

; 305  : 	fn_set_client_server_entity_int_value	[ENTITY_TYPE_ROUTED_VEHICLE][INT_TYPE_WAYPOINT_NEXT_INDEX][COMMS_MODEL_CLIENT]		= set_client_int_value;

  00168	b8 b8 08 00 00	 mov	 eax, 2232		; 000008b8H
  0016d	6b c8 17	 imul	 ecx, eax, 23
  00170	ba 08 00 00 00	 mov	 edx, 8
  00175	c1 e2 08	 shl	 edx, 8
  00178	8d 84 11 00 00
	00 00		 lea	 eax, DWORD PTR ?fn_set_client_server_entity_int_value@@3PAY1BBH@1P6GXPAUENTITY@@W4INT_TYPES@@H@ZA[ecx+edx]
  0017f	b9 04 00 00 00	 mov	 ecx, 4
  00184	c1 e1 00	 shl	 ecx, 0
  00187	c7 04 08 00 00
	00 00		 mov	 DWORD PTR [eax+ecx], OFFSET ?set_client_int_value@@YGXPAUENTITY@@W4INT_TYPES@@H@Z ; set_client_int_value

; 306  : 	fn_get_local_entity_int_value				[ENTITY_TYPE_ROUTED_VEHICLE][INT_TYPE_WAYPOINT_NEXT_INDEX]								= get_local_int_value;

  0018e	b8 5c 04 00 00	 mov	 eax, 1116		; 0000045cH
  00193	6b c8 17	 imul	 ecx, eax, 23
  00196	ba 04 00 00 00	 mov	 edx, 4
  0019b	c1 e2 08	 shl	 edx, 8
  0019e	c7 84 11 00 00
	00 00 00 00 00
	00		 mov	 DWORD PTR ?fn_get_local_entity_int_value@@3PAY0BBH@P6GHPAUENTITY@@W4INT_TYPES@@@ZA[ecx+edx], OFFSET ?get_local_int_value@@YGHPAUENTITY@@W4INT_TYPES@@@Z ; get_local_int_value

; 307  : 
; 308  : 	fn_set_local_entity_raw_int_value		[ENTITY_TYPE_ROUTED_VEHICLE][INT_TYPE_WAYPOINT_THIS_INDEX]								= set_local_int_value;

  001a9	b8 5c 04 00 00	 mov	 eax, 1116		; 0000045cH
  001ae	6b c8 17	 imul	 ecx, eax, 23
  001b1	ba 04 00 00 00	 mov	 edx, 4
  001b6	69 c2 01 01 00
	00		 imul	 eax, edx, 257
  001bc	c7 84 01 00 00
	00 00 00 00 00
	00		 mov	 DWORD PTR ?fn_set_local_entity_raw_int_value@@3PAY0BBH@P6GXPAUENTITY@@W4INT_TYPES@@H@ZA[ecx+eax], OFFSET ?set_local_int_value@@YGXPAUENTITY@@W4INT_TYPES@@H@Z ; set_local_int_value

; 309  : 	fn_set_local_entity_int_value				[ENTITY_TYPE_ROUTED_VEHICLE][INT_TYPE_WAYPOINT_THIS_INDEX]								= set_local_int_value;

  001c7	b8 5c 04 00 00	 mov	 eax, 1116		; 0000045cH
  001cc	6b c8 17	 imul	 ecx, eax, 23
  001cf	ba 04 00 00 00	 mov	 edx, 4
  001d4	69 c2 01 01 00
	00		 imul	 eax, edx, 257
  001da	c7 84 01 00 00
	00 00 00 00 00
	00		 mov	 DWORD PTR ?fn_set_local_entity_int_value@@3PAY0BBH@P6GXPAUENTITY@@W4INT_TYPES@@H@ZA[ecx+eax], OFFSET ?set_local_int_value@@YGXPAUENTITY@@W4INT_TYPES@@H@Z ; set_local_int_value

; 310  : 	fn_set_client_server_entity_int_value	[ENTITY_TYPE_ROUTED_VEHICLE][INT_TYPE_WAYPOINT_THIS_INDEX][COMMS_MODEL_SERVER]		= set_server_int_value;

  001e5	b8 b8 08 00 00	 mov	 eax, 2232		; 000008b8H
  001ea	6b c8 17	 imul	 ecx, eax, 23
  001ed	ba 08 00 00 00	 mov	 edx, 8
  001f2	69 c2 01 01 00
	00		 imul	 eax, edx, 257
  001f8	8d 8c 01 00 00
	00 00		 lea	 ecx, DWORD PTR ?fn_set_client_server_entity_int_value@@3PAY1BBH@1P6GXPAUENTITY@@W4INT_TYPES@@H@ZA[ecx+eax]
  001ff	ba 04 00 00 00	 mov	 edx, 4
  00204	6b c2 00	 imul	 eax, edx, 0
  00207	c7 04 01 00 00
	00 00		 mov	 DWORD PTR [ecx+eax], OFFSET ?set_server_int_value@@YGXPAUENTITY@@W4INT_TYPES@@H@Z ; set_server_int_value

; 311  : 	fn_set_client_server_entity_int_value	[ENTITY_TYPE_ROUTED_VEHICLE][INT_TYPE_WAYPOINT_THIS_INDEX][COMMS_MODEL_CLIENT]		= set_client_int_value;

  0020e	b8 b8 08 00 00	 mov	 eax, 2232		; 000008b8H
  00213	6b c8 17	 imul	 ecx, eax, 23
  00216	ba 08 00 00 00	 mov	 edx, 8
  0021b	69 c2 01 01 00
	00		 imul	 eax, edx, 257
  00221	8d 8c 01 00 00
	00 00		 lea	 ecx, DWORD PTR ?fn_set_client_server_entity_int_value@@3PAY1BBH@1P6GXPAUENTITY@@W4INT_TYPES@@H@ZA[ecx+eax]
  00228	ba 04 00 00 00	 mov	 edx, 4
  0022d	c1 e2 00	 shl	 edx, 0
  00230	c7 04 11 00 00
	00 00		 mov	 DWORD PTR [ecx+edx], OFFSET ?set_client_int_value@@YGXPAUENTITY@@W4INT_TYPES@@H@Z ; set_client_int_value

; 312  : 	fn_get_local_entity_int_value				[ENTITY_TYPE_ROUTED_VEHICLE][INT_TYPE_WAYPOINT_THIS_INDEX]								= get_local_int_value;

  00237	b8 5c 04 00 00	 mov	 eax, 1116		; 0000045cH
  0023c	6b c8 17	 imul	 ecx, eax, 23
  0023f	ba 04 00 00 00	 mov	 edx, 4
  00244	69 c2 01 01 00
	00		 imul	 eax, edx, 257
  0024a	c7 84 01 00 00
	00 00 00 00 00
	00		 mov	 DWORD PTR ?fn_get_local_entity_int_value@@3PAY0BBH@P6GHPAUENTITY@@W4INT_TYPES@@@ZA[ecx+eax], OFFSET ?get_local_int_value@@YGHPAUENTITY@@W4INT_TYPES@@@Z ; get_local_int_value

; 313  : }

  00255	5f		 pop	 edi
  00256	5e		 pop	 esi
  00257	5b		 pop	 ebx
  00258	8b e5		 mov	 esp, ebp
  0025a	5d		 pop	 ebp
  0025b	c3		 ret	 0
?overload_routed_vehicle_int_value_functions@@YGXXZ ENDP ; overload_routed_vehicle_int_value_functions
_TEXT	ENDS
END
