; Listing generated by Microsoft (R) Optimizing Compiler Version 19.16.27045.0 

	TITLE	C:\Users\nhv90\Projects\eech\aphavoc\source\entity\mobile\vehicle\routed\rv_move.c
	.686P
	.XMM
	include listing.inc
	.model	flat

INCLUDELIB MSVCRTD
INCLUDELIB OLDNAMES

PUBLIC	_asinf
PUBLIC	_atan2f
PUBLIC	_fabsf
PUBLIC	?asin@@YGMM@Z					; asin
PUBLIC	?atan2@@YGMMM@Z					; atan2
PUBLIC	?fabs@@YGMM@Z					; fabs
PUBLIC	?routed_vehicle_movement@@YGXPAUENTITY@@@Z	; routed_vehicle_movement
PUBLIC	?routed_vehicle_death_movement@@YGXPAUENTITY@@@Z ; routed_vehicle_death_movement
PUBLIC	?routed_vehicle_impact_movement@@YGXPAUENTITY@@@Z ; routed_vehicle_impact_movement
PUBLIC	??$min@M@std@@YGABMABM0@Z			; std::min<float>
PUBLIC	??$max@M@std@@YGABMABM0@Z			; std::max<float>
PUBLIC	??_C@_02DKCKIIND@?$CFs@				; `string'
PUBLIC	?__LINE__Var@?0??routed_vehicle_movement@@YGXPAUENTITY@@@Z@4JA ; `routed_vehicle_movement'::`1'::__LINE__Var
PUBLIC	??_C@_0FD@CFOFJMFL@c?3?2users?2nhv90?2projects?2eech?2ap@ ; `string'
PUBLIC	??_C@_0EF@LFFEIDGF@RV_MOVE?3?5RV?5?$CFs?5?$CI?$CFd?$CJ?5at?5keysite?5@ ; `string'
PUBLIC	??_C@_0EN@PPDNMGHK@RV_MOVE?3?5RV?5?$CFs?5?$CI?$CFd?$CJ?5at?5road?5nod@ ; `string'
PUBLIC	??_C@_0DH@JMEINJPI@RV_MOVE?3?5RV?5?$CFs?5?$CI?$CFd?$CJ?5not?5on?5keys@ ; `string'
PUBLIC	?__LINE__Var@?0??routed_vehicle_death_movement@@YGXPAUENTITY@@@Z@4JA ; `routed_vehicle_death_movement'::`1'::__LINE__Var
PUBLIC	?__LINE__Var@?0??routed_vehicle_falling_movement@@YGXPAUENTITY@@@Z@4JA ; `routed_vehicle_falling_movement'::`1'::__LINE__Var
PUBLIC	?__LINE__Var@?0??routed_vehicle_impact_movement@@YGXPAUENTITY@@@Z@4JA ; `routed_vehicle_impact_movement'::`1'::__LINE__Var
PUBLIC	?__LINE__Var@?0??routed_vehicle_movement_get_waypoint_position@@YGXPAUENTITY@@PAUVEC3D@@@Z@4JA ; `routed_vehicle_movement_get_waypoint_position'::`1'::__LINE__Var
PUBLIC	??_C@_02LFNMGJAP@en@				; `string'
PUBLIC	??_C@_06NGJLJNEL@wp_pos@			; `string'
PUBLIC	??_C@_05HLIEEKJG@guide@				; `string'
PUBLIC	??_C@_02HODPCBMO@wp@				; `string'
PUBLIC	??_C@_0BD@FEEMDEPI@invalid?5comparator@		; `string'
PUBLIC	??_C@_0GK@JMBMHIBC@c?3?2program?5files?5?$CIx86?$CJ?2microsof@ ; `string'
PUBLIC	??_C@_1NE@FKBPBJEB@?$AAc?$AA?3?$AA?2?$AAp?$AAr?$AAo?$AAg?$AAr?$AAa?$AAm?$AA?5?$AAf?$AAi?$AAl?$AAe@ ; `string'
PUBLIC	??_C@_1BC@BLAPCBGI@?$AAs?$AAt?$AAd?$AA?3?$AA?3?$AAm?$AAi?$AAn@ ; `string'
PUBLIC	??_C@_1CK@NDNHPKPI@?$AA?$CC?$AAi?$AAn?$AAv?$AAa?$AAl?$AAi?$AAd?$AA?5?$AAc?$AAo?$AAm?$AAp?$AAa?$AAr@ ; `string'
PUBLIC	??_C@_1BC@ICCOKLEG@?$AAs?$AAt?$AAd?$AA?3?$AA?3?$AAm?$AAa?$AAx@ ; `string'
PUBLIC	__real@0000000000000000
PUBLIC	__real@3ef24d151eb851ec
PUBLIC	__real@3f00002000400080
PUBLIC	__real@3fc999999999999a
PUBLIC	__real@3fd41b2f80000000
PUBLIC	__real@3ff0000000000000
PUBLIC	__real@4010000000000000
PUBLIC	__real@4018000000000000
PUBLIC	__real@401c000000000000
PUBLIC	__real@4024000000000000
PUBLIC	__real@4034000000000000
PUBLIC	__real@40800000
PUBLIC	__real@411cf5c3
PUBLIC	__xmm@80000000000000008000000000000000
PUBLIC	__xmm@80000000800000008000000080000000
EXTRN	__imp___invalid_parameter:PROC
EXTRN	__imp___CrtDbgReport:PROC
EXTRN	_asin:PROC
EXTRN	_atan2:PROC
EXTRN	_fabs:PROC
EXTRN	?process_assert@@YGXPBD0H@Z:PROC		; process_assert
EXTRN	?debug_fatal@@YAXPBDZZ:PROC			; debug_fatal
EXTRN	?debug_log@@YAXPBDZZ:PROC			; debug_log
EXTRN	?normalise_any_3d_vector@@YGMPAUVEC3D@@@Z:PROC	; normalise_any_3d_vector
EXTRN	?get_3d_vector_magnitude@@YGMPBUVEC3D@@@Z:PROC	; get_3d_vector_magnitude
EXTRN	?normalise_3d_vector_given_magnitude@@YGXPAUVEC3D@@M@Z:PROC ; normalise_3d_vector_given_magnitude
EXTRN	?get_3d_transformation_matrix@@YGXQAY02MMMM@Z:PROC ; get_3d_transformation_matrix
EXTRN	?get_3d_transformation_heading_pitch_matrix@@YGXQAY02MMM@Z:PROC ; get_3d_transformation_heading_pitch_matrix
EXTRN	?get_3d_transformation_matrix_from_face_normal_and_heading@@YGXQAY02MPBUVEC3D@@M@Z:PROC ; get_3d_transformation_matrix_from_face_normal_and_heading
EXTRN	?get_2d_range@@YGMPBUVEC3D@@0@Z:PROC		; get_2d_range
EXTRN	?get_object_3d_bounding_box@@YGPAUOBJECT_3D_BOUNDS@@H@Z:PROC ; get_object_3d_bounding_box
EXTRN	?get_3d_terrain_point_data@@YGMMMPAUTERRAIN_3D_POINT_DATA@@@Z:PROC ; get_3d_terrain_point_data
EXTRN	?get_3d_terrain_point_data_normal@@YGPAUVEC3D@@PAUTERRAIN_3D_POINT_DATA@@@Z:PROC ; get_3d_terrain_point_data_normal
EXTRN	?get_3d_terrain_point_data_elevation@@YGMPAUTERRAIN_3D_POINT_DATA@@@Z:PROC ; get_3d_terrain_point_data_elevation
EXTRN	?get_3d_terrain_point_data_type@@YGHPAUTERRAIN_3D_POINT_DATA@@@Z:PROC ; get_3d_terrain_point_data_type
EXTRN	?bound_position_to_map_volume@@YGHPAUVEC3D@@@Z:PROC ; bound_position_to_map_volume
EXTRN	?transmit_entity_comms_message@@YAXW4ENTITY_COMMS_MESSAGES@@PAUENTITY@@ZZ:PROC ; transmit_entity_comms_message
EXTRN	?create_client_server_object_hit_ground_explosion_effect@@YGXPAUENTITY@@H@Z:PROC ; create_client_server_object_hit_ground_explosion_effect
EXTRN	?clear_smoke_list_generator_lifetime@@YGHPAUENTITY@@H@Z:PROC ; clear_smoke_list_generator_lifetime
EXTRN	?check_group_task_type_valid_members@@YGHPAUENTITY@@H@Z:PROC ; check_group_task_type_valid_members
EXTRN	?get_local_entity_formation_position_offset@@YGXPAUENTITY@@0PAUVEC3D@@@Z:PROC ; get_local_entity_formation_position_offset
EXTRN	?get_terrain_type_class@@YG?AW4TERRAIN_CLASSES@@H@Z:PROC ; get_terrain_type_class
EXTRN	?system_delta_time@@3MA:DWORD			; system_delta_time
EXTRN	?null_entity_pointer_message@@3PBDB:DWORD	; null_entity_pointer_message
EXTRN	?system_comms_model@@3W4COMMS_MODEL_TYPES@@A:DWORD ; system_comms_model
EXTRN	?overload_invalid_list_type_message@@3PBDB:DWORD ; overload_invalid_list_type_message
EXTRN	?fn_get_local_entity_parent@@3PAY0CN@P6GPAUENTITY@@PAU1@W4LIST_TYPES@@@ZA:BYTE ; fn_get_local_entity_parent
EXTRN	?fn_get_local_entity_child_succ@@3PAY0CN@P6GPAUENTITY@@PAU1@W4LIST_TYPES@@@ZA:BYTE ; fn_get_local_entity_child_succ
EXTRN	?fn_get_local_entity_child_pred@@3PAY0CN@P6GPAUENTITY@@PAU1@W4LIST_TYPES@@@ZA:BYTE ; fn_get_local_entity_child_pred
EXTRN	?overload_invalid_float_type_message@@3PBDB:DWORD ; overload_invalid_float_type_message
EXTRN	?fn_set_local_entity_float_value@@3PAY0KP@P6GXPAUENTITY@@W4FLOAT_TYPES@@M@ZA:BYTE ; fn_set_local_entity_float_value
EXTRN	?fn_set_client_server_entity_float_value@@3PAY1KP@1P6GXPAUENTITY@@W4FLOAT_TYPES@@M@ZA:BYTE ; fn_set_client_server_entity_float_value
EXTRN	?fn_get_local_entity_float_value@@3PAY0KP@P6GMPAUENTITY@@W4FLOAT_TYPES@@@ZA:BYTE ; fn_get_local_entity_float_value
EXTRN	?overload_invalid_int_type_message@@3PBDB:DWORD	; overload_invalid_int_type_message
EXTRN	?fn_set_local_entity_int_value@@3PAY0BBH@P6GXPAUENTITY@@W4INT_TYPES@@H@ZA:BYTE ; fn_set_local_entity_int_value
EXTRN	?fn_get_local_entity_int_value@@3PAY0BBH@P6GHPAUENTITY@@W4INT_TYPES@@@ZA:BYTE ; fn_get_local_entity_int_value
EXTRN	?overload_invalid_string_type_message@@3PBDB:DWORD ; overload_invalid_string_type_message
EXTRN	?fn_get_local_entity_string@@3PAY0N@P6GPBDPAUENTITY@@W4STRING_TYPES@@@ZA:BYTE ; fn_get_local_entity_string
EXTRN	?overload_invalid_vec3d_type_message@@3PBDB:DWORD ; overload_invalid_vec3d_type_message
EXTRN	?fn_set_local_entity_vec3d@@3PAY0BI@P6GXPAUENTITY@@W4VEC3D_TYPES@@PAUVEC3D@@@ZA:BYTE ; fn_set_local_entity_vec3d
EXTRN	?fn_get_local_entity_vec3d@@3PAY0BI@P6GXPAUENTITY@@W4VEC3D_TYPES@@PAUVEC3D@@@ZA:BYTE ; fn_get_local_entity_vec3d
EXTRN	?fn_get_local_entity_vec3d_ptr@@3PAY0BI@P6GPAUVEC3D@@PAUENTITY@@W4VEC3D_TYPES@@@ZA:BYTE ; fn_get_local_entity_vec3d_ptr
EXTRN	?entities@@3PAUENTITY@@A:DWORD			; entities
EXTRN	__fltused:DWORD
;	COMDAT __xmm@80000000800000008000000080000000
CONST	SEGMENT
__xmm@80000000800000008000000080000000 DB 00H, 00H, 00H, 080H, 00H, 00H, 00H
	DB	080H, 00H, 00H, 00H, 080H, 00H, 00H, 00H, 080H
CONST	ENDS
;	COMDAT __xmm@80000000000000008000000000000000
CONST	SEGMENT
__xmm@80000000000000008000000000000000 DB 00H, 00H, 00H, 00H, 00H, 00H, 00H
	DB	080H, 00H, 00H, 00H, 00H, 00H, 00H, 00H, 080H
CONST	ENDS
;	COMDAT __real@411cf5c3
CONST	SEGMENT
__real@411cf5c3 DD 0411cf5c3r			; 9.81
CONST	ENDS
;	COMDAT __real@40800000
CONST	SEGMENT
__real@40800000 DD 040800000r			; 4
CONST	ENDS
;	COMDAT __real@4034000000000000
CONST	SEGMENT
__real@4034000000000000 DQ 04034000000000000r	; 20
CONST	ENDS
;	COMDAT __real@4024000000000000
CONST	SEGMENT
__real@4024000000000000 DQ 04024000000000000r	; 10
CONST	ENDS
;	COMDAT __real@401c000000000000
CONST	SEGMENT
__real@401c000000000000 DQ 0401c000000000000r	; 7
CONST	ENDS
;	COMDAT __real@4018000000000000
CONST	SEGMENT
__real@4018000000000000 DQ 04018000000000000r	; 6
CONST	ENDS
;	COMDAT __real@4010000000000000
CONST	SEGMENT
__real@4010000000000000 DQ 04010000000000000r	; 4
CONST	ENDS
;	COMDAT __real@3ff0000000000000
CONST	SEGMENT
__real@3ff0000000000000 DQ 03ff0000000000000r	; 1
CONST	ENDS
;	COMDAT __real@3fd41b2f80000000
CONST	SEGMENT
__real@3fd41b2f80000000 DQ 03fd41b2f80000000r	; 0.314159
CONST	ENDS
;	COMDAT __real@3fc999999999999a
CONST	SEGMENT
__real@3fc999999999999a DQ 03fc999999999999ar	; 0.2
CONST	ENDS
;	COMDAT __real@3f00002000400080
CONST	SEGMENT
__real@3f00002000400080 DQ 03f00002000400080r	; 3.05185e-05
CONST	ENDS
;	COMDAT __real@3ef24d151eb851ec
CONST	SEGMENT
__real@3ef24d151eb851ec DQ 03ef24d151eb851ecr	; 1.74533e-05
CONST	ENDS
;	COMDAT __real@0000000000000000
CONST	SEGMENT
__real@0000000000000000 DQ 00000000000000000r	; 0
CONST	ENDS
;	COMDAT ??_C@_1BC@ICCOKLEG@?$AAs?$AAt?$AAd?$AA?3?$AA?3?$AAm?$AAa?$AAx@
CONST	SEGMENT
??_C@_1BC@ICCOKLEG@?$AAs?$AAt?$AAd?$AA?3?$AA?3?$AAm?$AAa?$AAx@ DB 's', 00H
	DB	't', 00H, 'd', 00H, ':', 00H, ':', 00H, 'm', 00H, 'a', 00H, 'x'
	DB	00H, 00H, 00H				; `string'
CONST	ENDS
;	COMDAT ??_C@_1CK@NDNHPKPI@?$AA?$CC?$AAi?$AAn?$AAv?$AAa?$AAl?$AAi?$AAd?$AA?5?$AAc?$AAo?$AAm?$AAp?$AAa?$AAr@
CONST	SEGMENT
??_C@_1CK@NDNHPKPI@?$AA?$CC?$AAi?$AAn?$AAv?$AAa?$AAl?$AAi?$AAd?$AA?5?$AAc?$AAo?$AAm?$AAp?$AAa?$AAr@ DB '"'
	DB	00H, 'i', 00H, 'n', 00H, 'v', 00H, 'a', 00H, 'l', 00H, 'i', 00H
	DB	'd', 00H, ' ', 00H, 'c', 00H, 'o', 00H, 'm', 00H, 'p', 00H, 'a'
	DB	00H, 'r', 00H, 'a', 00H, 't', 00H, 'o', 00H, 'r', 00H, '"', 00H
	DB	00H, 00H					; `string'
CONST	ENDS
;	COMDAT ??_C@_1BC@BLAPCBGI@?$AAs?$AAt?$AAd?$AA?3?$AA?3?$AAm?$AAi?$AAn@
CONST	SEGMENT
??_C@_1BC@BLAPCBGI@?$AAs?$AAt?$AAd?$AA?3?$AA?3?$AAm?$AAi?$AAn@ DB 's', 00H
	DB	't', 00H, 'd', 00H, ':', 00H, ':', 00H, 'm', 00H, 'i', 00H, 'n'
	DB	00H, 00H, 00H				; `string'
CONST	ENDS
;	COMDAT ??_C@_1NE@FKBPBJEB@?$AAc?$AA?3?$AA?2?$AAp?$AAr?$AAo?$AAg?$AAr?$AAa?$AAm?$AA?5?$AAf?$AAi?$AAl?$AAe@
CONST	SEGMENT
??_C@_1NE@FKBPBJEB@?$AAc?$AA?3?$AA?2?$AAp?$AAr?$AAo?$AAg?$AAr?$AAa?$AAm?$AA?5?$AAf?$AAi?$AAl?$AAe@ DB 'c'
	DB	00H, ':', 00H, '\', 00H, 'p', 00H, 'r', 00H, 'o', 00H, 'g', 00H
	DB	'r', 00H, 'a', 00H, 'm', 00H, ' ', 00H, 'f', 00H, 'i', 00H, 'l'
	DB	00H, 'e', 00H, 's', 00H, ' ', 00H, '(', 00H, 'x', 00H, '8', 00H
	DB	'6', 00H, ')', 00H, '\', 00H, 'm', 00H, 'i', 00H, 'c', 00H, 'r'
	DB	00H, 'o', 00H, 's', 00H, 'o', 00H, 'f', 00H, 't', 00H, ' ', 00H
	DB	'v', 00H, 'i', 00H, 's', 00H, 'u', 00H, 'a', 00H, 'l', 00H, ' '
	DB	00H, 's', 00H, 't', 00H, 'u', 00H, 'd', 00H, 'i', 00H, 'o', 00H
	DB	'\', 00H, '2', 00H, '0', 00H, '1', 00H, '7', 00H, '\', 00H, 'c'
	DB	00H, 'o', 00H, 'm', 00H, 'm', 00H, 'u', 00H, 'n', 00H, 'i', 00H
	DB	't', 00H, 'y', 00H, '\', 00H, 'v', 00H, 'c', 00H, '\', 00H, 't'
	DB	00H, 'o', 00H, 'o', 00H, 'l', 00H, 's', 00H, '\', 00H, 'm', 00H
	DB	's', 00H, 'v', 00H, 'c', 00H, '\', 00H, '1', 00H, '4', 00H, '.'
	DB	00H, '1', 00H, '6', 00H, '.', 00H, '2', 00H, '7', 00H, '0', 00H
	DB	'2', 00H, '3', 00H, '\', 00H, 'i', 00H, 'n', 00H, 'c', 00H, 'l'
	DB	00H, 'u', 00H, 'd', 00H, 'e', 00H, '\', 00H, 'a', 00H, 'l', 00H
	DB	'g', 00H, 'o', 00H, 'r', 00H, 'i', 00H, 't', 00H, 'h', 00H, 'm'
	DB	00H, 00H, 00H				; `string'
CONST	ENDS
;	COMDAT ??_C@_0GK@JMBMHIBC@c?3?2program?5files?5?$CIx86?$CJ?2microsof@
CONST	SEGMENT
??_C@_0GK@JMBMHIBC@c?3?2program?5files?5?$CIx86?$CJ?2microsof@ DB 'c:\pro'
	DB	'gram files (x86)\microsoft visual studio\2017\community\vc\to'
	DB	'ols\msvc\14.16.27023\include\algorithm', 00H ; `string'
CONST	ENDS
;	COMDAT ??_C@_0BD@FEEMDEPI@invalid?5comparator@
CONST	SEGMENT
??_C@_0BD@FEEMDEPI@invalid?5comparator@ DB 'invalid comparator', 00H ; `string'
CONST	ENDS
;	COMDAT ??_C@_02HODPCBMO@wp@
CONST	SEGMENT
??_C@_02HODPCBMO@wp@ DB 'wp', 00H			; `string'
CONST	ENDS
;	COMDAT ??_C@_05HLIEEKJG@guide@
CONST	SEGMENT
??_C@_05HLIEEKJG@guide@ DB 'guide', 00H			; `string'
CONST	ENDS
;	COMDAT ??_C@_06NGJLJNEL@wp_pos@
CONST	SEGMENT
??_C@_06NGJLJNEL@wp_pos@ DB 'wp_pos', 00H		; `string'
CONST	ENDS
;	COMDAT ??_C@_02LFNMGJAP@en@
CONST	SEGMENT
??_C@_02LFNMGJAP@en@ DB 'en', 00H			; `string'
CONST	ENDS
;	COMDAT ?__LINE__Var@?0??routed_vehicle_movement_get_waypoint_position@@YGXPAUENTITY@@PAUVEC3D@@@Z@4JA
_DATA	SEGMENT
?__LINE__Var@?0??routed_vehicle_movement_get_waypoint_position@@YGXPAUENTITY@@PAUVEC3D@@@Z@4JA DD 02d9H ; `routed_vehicle_movement_get_waypoint_position'::`1'::__LINE__Var
_DATA	ENDS
;	COMDAT ?__LINE__Var@?0??routed_vehicle_impact_movement@@YGXPAUENTITY@@@Z@4JA
_DATA	SEGMENT
?__LINE__Var@?0??routed_vehicle_impact_movement@@YGXPAUENTITY@@@Z@4JA DD 02b5H ; `routed_vehicle_impact_movement'::`1'::__LINE__Var
_DATA	ENDS
;	COMDAT ?__LINE__Var@?0??routed_vehicle_falling_movement@@YGXPAUENTITY@@@Z@4JA
_DATA	SEGMENT
?__LINE__Var@?0??routed_vehicle_falling_movement@@YGXPAUENTITY@@@Z@4JA DD 0208H ; `routed_vehicle_falling_movement'::`1'::__LINE__Var
_DATA	ENDS
;	COMDAT ?__LINE__Var@?0??routed_vehicle_death_movement@@YGXPAUENTITY@@@Z@4JA
_DATA	SEGMENT
?__LINE__Var@?0??routed_vehicle_death_movement@@YGXPAUENTITY@@@Z@4JA DD 019eH ; `routed_vehicle_death_movement'::`1'::__LINE__Var
_DATA	ENDS
;	COMDAT ??_C@_0DH@JMEINJPI@RV_MOVE?3?5RV?5?$CFs?5?$CI?$CFd?$CJ?5not?5on?5keys@
CONST	SEGMENT
??_C@_0DH@JMEINJPI@RV_MOVE?3?5RV?5?$CFs?5?$CI?$CFd?$CJ?5not?5on?5keys@ DB 'R'
	DB	'V_MOVE: RV %s (%d) not on keysite or independent list', 00H ; `string'
CONST	ENDS
;	COMDAT ??_C@_0EN@PPDNMGHK@RV_MOVE?3?5RV?5?$CFs?5?$CI?$CFd?$CJ?5at?5road?5nod@
CONST	SEGMENT
??_C@_0EN@PPDNMGHK@RV_MOVE?3?5RV?5?$CFs?5?$CI?$CFd?$CJ?5at?5road?5nod@ DB 'R'
	DB	'V_MOVE: RV %s (%d) at road node in incorrect state (%d), sett'
	DB	'ing to STOPPED', 00H			; `string'
CONST	ENDS
;	COMDAT ??_C@_0EF@LFFEIDGF@RV_MOVE?3?5RV?5?$CFs?5?$CI?$CFd?$CJ?5at?5keysite?5@
CONST	SEGMENT
??_C@_0EF@LFFEIDGF@RV_MOVE?3?5RV?5?$CFs?5?$CI?$CFd?$CJ?5at?5keysite?5@ DB 'R'
	DB	'V_MOVE: RV %s (%d) at keysite in incorrect state, setting to '
	DB	'LANDED', 00H				; `string'
CONST	ENDS
;	COMDAT ??_C@_0FD@CFOFJMFL@c?3?2users?2nhv90?2projects?2eech?2ap@
CONST	SEGMENT
??_C@_0FD@CFOFJMFL@c?3?2users?2nhv90?2projects?2eech?2ap@ DB 'c:\users\nh'
	DB	'v90\projects\eech\aphavoc\source\entity\mobile\vehicle\routed'
	DB	'\rv_move.c', 00H				; `string'
CONST	ENDS
;	COMDAT ?__LINE__Var@?0??routed_vehicle_movement@@YGXPAUENTITY@@@Z@4JA
_DATA	SEGMENT
?__LINE__Var@?0??routed_vehicle_movement@@YGXPAUENTITY@@@Z@4JA DD 062H ; `routed_vehicle_movement'::`1'::__LINE__Var
_DATA	ENDS
;	COMDAT ??_C@_02DKCKIIND@?$CFs@
CONST	SEGMENT
??_C@_02DKCKIIND@?$CFs@ DB '%s', 00H			; `string'
CONST	ENDS
; Function compile flags: /Odtp /ZI
; File c:\program files (x86)\microsoft visual studio\2017\community\vc\tools\msvc\14.16.27023\include\algorithm
;	COMDAT ??$max@M@std@@YGABMABM0@Z
_TEXT	SEGMENT
__Left$ = 8						; size = 4
__Right$ = 12						; size = 4
??$max@M@std@@YGABMABM0@Z PROC				; std::max<float>, COMDAT

; 5387 : 	{	// return larger of _Left and _Right

  00000	55		 push	 ebp
  00001	8b ec		 mov	 ebp, esp
  00003	83 ec 40	 sub	 esp, 64			; 00000040H
  00006	53		 push	 ebx
  00007	56		 push	 esi
  00008	57		 push	 edi

; 5388 : 	if (_Left < _Right)

  00009	8b 45 0c	 mov	 eax, DWORD PTR __Right$[ebp]
  0000c	8b 4d 08	 mov	 ecx, DWORD PTR __Left$[ebp]
  0000f	f3 0f 10 00	 movss	 xmm0, DWORD PTR [eax]
  00013	0f 2f 01	 comiss	 xmm0, DWORD PTR [ecx]
  00016	76 64		 jbe	 SHORT $LN8@max
$LN4@max:

; 5389 : 		{
; 5390 : 		_STL_ASSERT(!(_Right < _Left), "invalid comparator");

  00018	8b 45 08	 mov	 eax, DWORD PTR __Left$[ebp]
  0001b	8b 4d 0c	 mov	 ecx, DWORD PTR __Right$[ebp]
  0001e	f3 0f 10 00	 movss	 xmm0, DWORD PTR [eax]
  00022	0f 2f 01	 comiss	 xmm0, DWORD PTR [ecx]
  00025	77 02		 ja	 SHORT $LN9@max
  00027	eb 4a		 jmp	 SHORT $LN6@max
$LN9@max:
  00029	68 00 00 00 00	 push	 OFFSET ??_C@_0BD@FEEMDEPI@invalid?5comparator@
  0002e	68 00 00 00 00	 push	 OFFSET ??_C@_02DKCKIIND@?$CFs@
  00033	6a 00		 push	 0
  00035	68 0e 15 00 00	 push	 5390			; 0000150eH
  0003a	68 00 00 00 00	 push	 OFFSET ??_C@_0GK@JMBMHIBC@c?3?2program?5files?5?$CIx86?$CJ?2microsof@
  0003f	6a 02		 push	 2
  00041	ff 15 00 00 00
	00		 call	 DWORD PTR __imp___CrtDbgReport
  00047	83 c4 18	 add	 esp, 24			; 00000018H
  0004a	83 f8 01	 cmp	 eax, 1
  0004d	75 01		 jne	 SHORT $LN12@max
  0004f	cc		 int	 3
$LN12@max:
  00050	6a 00		 push	 0
  00052	68 0e 15 00 00	 push	 5390			; 0000150eH
  00057	68 00 00 00 00	 push	 OFFSET ??_C@_1NE@FKBPBJEB@?$AAc?$AA?3?$AA?2?$AAp?$AAr?$AAo?$AAg?$AAr?$AAa?$AAm?$AA?5?$AAf?$AAi?$AAl?$AAe@
  0005c	68 00 00 00 00	 push	 OFFSET ??_C@_1BC@ICCOKLEG@?$AAs?$AAt?$AAd?$AA?3?$AA?3?$AAm?$AAa?$AAx@
  00061	68 00 00 00 00	 push	 OFFSET ??_C@_1CK@NDNHPKPI@?$AA?$CC?$AAi?$AAn?$AAv?$AAa?$AAl?$AAi?$AAd?$AA?5?$AAc?$AAo?$AAm?$AAp?$AAa?$AAr@
  00066	ff 15 00 00 00
	00		 call	 DWORD PTR __imp___invalid_parameter
  0006c	83 c4 14	 add	 esp, 20			; 00000014H
  0006f	33 c0		 xor	 eax, eax
  00071	75 b6		 jne	 SHORT $LN9@max
$LN6@max:
  00073	33 c0		 xor	 eax, eax
  00075	75 a1		 jne	 SHORT $LN4@max

; 5391 : 		return (_Right);

  00077	8b 45 0c	 mov	 eax, DWORD PTR __Right$[ebp]
  0007a	eb 03		 jmp	 SHORT $LN1@max
$LN8@max:

; 5392 : 		}
; 5393 : 
; 5394 : 	return (_Left);

  0007c	8b 45 08	 mov	 eax, DWORD PTR __Left$[ebp]
$LN1@max:

; 5395 : 	}

  0007f	5f		 pop	 edi
  00080	5e		 pop	 esi
  00081	5b		 pop	 ebx
  00082	8b e5		 mov	 esp, ebp
  00084	5d		 pop	 ebp
  00085	c2 08 00	 ret	 8
??$max@M@std@@YGABMABM0@Z ENDP				; std::max<float>
_TEXT	ENDS
; Function compile flags: /Odtp /ZI
; File c:\program files (x86)\microsoft visual studio\2017\community\vc\tools\msvc\14.16.27023\include\algorithm
;	COMDAT ??$min@M@std@@YGABMABM0@Z
_TEXT	SEGMENT
__Left$ = 8						; size = 4
__Right$ = 12						; size = 4
??$min@M@std@@YGABMABM0@Z PROC				; std::min<float>, COMDAT

; 5427 : 	{	// return smaller of _Left and _Right

  00000	55		 push	 ebp
  00001	8b ec		 mov	 ebp, esp
  00003	83 ec 40	 sub	 esp, 64			; 00000040H
  00006	53		 push	 ebx
  00007	56		 push	 esi
  00008	57		 push	 edi

; 5428 : 	if (_Right < _Left)

  00009	8b 45 08	 mov	 eax, DWORD PTR __Left$[ebp]
  0000c	8b 4d 0c	 mov	 ecx, DWORD PTR __Right$[ebp]
  0000f	f3 0f 10 00	 movss	 xmm0, DWORD PTR [eax]
  00013	0f 2f 01	 comiss	 xmm0, DWORD PTR [ecx]
  00016	76 64		 jbe	 SHORT $LN8@min
$LN4@min:

; 5429 : 		{
; 5430 : 		_STL_ASSERT(!(_Left < _Right), "invalid comparator");

  00018	8b 45 0c	 mov	 eax, DWORD PTR __Right$[ebp]
  0001b	8b 4d 08	 mov	 ecx, DWORD PTR __Left$[ebp]
  0001e	f3 0f 10 00	 movss	 xmm0, DWORD PTR [eax]
  00022	0f 2f 01	 comiss	 xmm0, DWORD PTR [ecx]
  00025	77 02		 ja	 SHORT $LN9@min
  00027	eb 4a		 jmp	 SHORT $LN6@min
$LN9@min:
  00029	68 00 00 00 00	 push	 OFFSET ??_C@_0BD@FEEMDEPI@invalid?5comparator@
  0002e	68 00 00 00 00	 push	 OFFSET ??_C@_02DKCKIIND@?$CFs@
  00033	6a 00		 push	 0
  00035	68 36 15 00 00	 push	 5430			; 00001536H
  0003a	68 00 00 00 00	 push	 OFFSET ??_C@_0GK@JMBMHIBC@c?3?2program?5files?5?$CIx86?$CJ?2microsof@
  0003f	6a 02		 push	 2
  00041	ff 15 00 00 00
	00		 call	 DWORD PTR __imp___CrtDbgReport
  00047	83 c4 18	 add	 esp, 24			; 00000018H
  0004a	83 f8 01	 cmp	 eax, 1
  0004d	75 01		 jne	 SHORT $LN12@min
  0004f	cc		 int	 3
$LN12@min:
  00050	6a 00		 push	 0
  00052	68 36 15 00 00	 push	 5430			; 00001536H
  00057	68 00 00 00 00	 push	 OFFSET ??_C@_1NE@FKBPBJEB@?$AAc?$AA?3?$AA?2?$AAp?$AAr?$AAo?$AAg?$AAr?$AAa?$AAm?$AA?5?$AAf?$AAi?$AAl?$AAe@
  0005c	68 00 00 00 00	 push	 OFFSET ??_C@_1BC@BLAPCBGI@?$AAs?$AAt?$AAd?$AA?3?$AA?3?$AAm?$AAi?$AAn@
  00061	68 00 00 00 00	 push	 OFFSET ??_C@_1CK@NDNHPKPI@?$AA?$CC?$AAi?$AAn?$AAv?$AAa?$AAl?$AAi?$AAd?$AA?5?$AAc?$AAo?$AAm?$AAp?$AAa?$AAr@
  00066	ff 15 00 00 00
	00		 call	 DWORD PTR __imp___invalid_parameter
  0006c	83 c4 14	 add	 esp, 20			; 00000014H
  0006f	33 c0		 xor	 eax, eax
  00071	75 b6		 jne	 SHORT $LN9@min
$LN6@min:
  00073	33 c0		 xor	 eax, eax
  00075	75 a1		 jne	 SHORT $LN4@min

; 5431 : 		return (_Right);

  00077	8b 45 0c	 mov	 eax, DWORD PTR __Right$[ebp]
  0007a	eb 03		 jmp	 SHORT $LN1@min
$LN8@min:

; 5432 : 		}
; 5433 : 
; 5434 : 	return (_Left);

  0007c	8b 45 08	 mov	 eax, DWORD PTR __Left$[ebp]
$LN1@min:

; 5435 : 	}

  0007f	5f		 pop	 edi
  00080	5e		 pop	 esi
  00081	5b		 pop	 ebx
  00082	8b e5		 mov	 esp, ebp
  00084	5d		 pop	 ebp
  00085	c2 08 00	 ret	 8
??$min@M@std@@YGABMABM0@Z ENDP				; std::min<float>
_TEXT	ENDS
; Function compile flags: /Odtp /ZI
; File c:\users\nhv90\projects\eech\aphavoc\source\entity\mobile\vehicle\routed\rv_move.c
;	COMDAT ?routed_vehicle_movement_get_waypoint_position@@YGXPAUENTITY@@PAUVEC3D@@@Z
_TEXT	SEGMENT
tv413 = -132						; size = 4
tv384 = -132						; size = 4
tv364 = -132						; size = 4
tv332 = -132						; size = 4
tv189 = -132						; size = 4
tv168 = -132						; size = 4
tv145 = -132						; size = 4
tv88 = -132						; size = 4
tv405 = -128						; size = 4
tv376 = -128						; size = 4
tv356 = -128						; size = 4
tv324 = -128						; size = 4
tv181 = -128						; size = 4
tv161 = -128						; size = 4
tv137 = -128						; size = 4
tv80 = -128						; size = 4
_offset$1 = -60						; size = 12
_sqr_range$2 = -48					; size = 4
_raw$ = -44						; size = 4
_pos$ = -40						; size = 4
_temp_pos$ = -36					; size = 12
_offset$ = -24						; size = 12
_distance$ = -12					; size = 4
_guide$ = -8						; size = 4
_wp$ = -4						; size = 4
_en$ = 8						; size = 4
_wp_pos$ = 12						; size = 4
?routed_vehicle_movement_get_waypoint_position@@YGXPAUENTITY@@PAUVEC3D@@@Z PROC ; routed_vehicle_movement_get_waypoint_position, COMDAT

; 729  : {

  00000	55		 push	 ebp
  00001	8b ec		 mov	 ebp, esp
  00003	81 ec 84 00 00
	00		 sub	 esp, 132		; 00000084H
  00009	53		 push	 ebx
  0000a	56		 push	 esi
  0000b	57		 push	 edi

; 730  : 
; 731  : 	entity
; 732  : 		*wp,
; 733  : 		*guide;
; 734  : 
; 735  : 	float
; 736  : 		distance;
; 737  : 
; 738  : 	vec3d
; 739  : 		offset,
; 740  : 		temp_pos,
; 741  : 		*pos;
; 742  : 
; 743  : 	routed_vehicle
; 744  : 		*raw;
; 745  : 
; 746  : 	ASSERT (en);

  0000c	83 7d 08 00	 cmp	 DWORD PTR _en$[ebp], 0
  00010	75 18		 jne	 SHORT $LN2@routed_veh
  00012	a1 00 00 00 00	 mov	 eax, DWORD PTR ?__LINE__Var@?0??routed_vehicle_movement_get_waypoint_position@@YGXPAUENTITY@@PAUVEC3D@@@Z@4JA
  00017	83 c0 11	 add	 eax, 17			; 00000011H
  0001a	50		 push	 eax
  0001b	68 00 00 00 00	 push	 OFFSET ??_C@_0FD@CFOFJMFL@c?3?2users?2nhv90?2projects?2eech?2ap@
  00020	68 00 00 00 00	 push	 OFFSET ??_C@_02LFNMGJAP@en@
  00025	e8 00 00 00 00	 call	 ?process_assert@@YGXPBD0H@Z ; process_assert
$LN2@routed_veh:

; 747  : 
; 748  : 	ASSERT (wp_pos);

  0002a	83 7d 0c 00	 cmp	 DWORD PTR _wp_pos$[ebp], 0
  0002e	75 18		 jne	 SHORT $LN3@routed_veh
  00030	a1 00 00 00 00	 mov	 eax, DWORD PTR ?__LINE__Var@?0??routed_vehicle_movement_get_waypoint_position@@YGXPAUENTITY@@PAUVEC3D@@@Z@4JA
  00035	83 c0 13	 add	 eax, 19			; 00000013H
  00038	50		 push	 eax
  00039	68 00 00 00 00	 push	 OFFSET ??_C@_0FD@CFOFJMFL@c?3?2users?2nhv90?2projects?2eech?2ap@
  0003e	68 00 00 00 00	 push	 OFFSET ??_C@_06NGJLJNEL@wp_pos@
  00043	e8 00 00 00 00	 call	 ?process_assert@@YGXPBD0H@Z ; process_assert
$LN3@routed_veh:

; 749  : 
; 750  : 	guide = get_local_entity_parent (en, LIST_TYPE_FOLLOWER);

  00048	83 7d 08 00	 cmp	 DWORD PTR _en$[ebp], 0
  0004c	74 0a		 je	 SHORT $LN19@routed_veh
  0004e	8b 45 08	 mov	 eax, DWORD PTR _en$[ebp]
  00051	8b 08		 mov	 ecx, DWORD PTR [eax]
  00053	89 4d 80	 mov	 DWORD PTR tv80[ebp], ecx
  00056	eb 21		 jmp	 SHORT $LN20@routed_veh
$LN19@routed_veh:
  00058	8b 15 00 00 00
	00		 mov	 edx, DWORD PTR ?__LINE__Var@?0??routed_vehicle_movement_get_waypoint_position@@YGXPAUENTITY@@PAUVEC3D@@@Z@4JA
  0005e	83 c2 15	 add	 edx, 21			; 00000015H
  00061	52		 push	 edx
  00062	68 00 00 00 00	 push	 OFFSET ??_C@_0FD@CFOFJMFL@c?3?2users?2nhv90?2projects?2eech?2ap@
  00067	a1 00 00 00 00	 mov	 eax, DWORD PTR ?null_entity_pointer_message@@3PBDB ; null_entity_pointer_message
  0006c	50		 push	 eax
  0006d	e8 00 00 00 00	 call	 ?process_assert@@YGXPBD0H@Z ; process_assert
  00072	c7 45 80 00 00
	00 00		 mov	 DWORD PTR tv80[ebp], 0
$LN20@routed_veh:
  00079	b9 01 00 00 00	 mov	 ecx, 1
  0007e	85 c9		 test	 ecx, ecx
  00080	74 0c		 je	 SHORT $LN21@routed_veh
  00082	c7 85 7c ff ff
	ff 0d 00 00 00	 mov	 DWORD PTR tv88[ebp], 13	; 0000000dH
  0008c	eb 24		 jmp	 SHORT $LN22@routed_veh
$LN21@routed_veh:
  0008e	8b 15 00 00 00
	00		 mov	 edx, DWORD PTR ?__LINE__Var@?0??routed_vehicle_movement_get_waypoint_position@@YGXPAUENTITY@@PAUVEC3D@@@Z@4JA
  00094	83 c2 15	 add	 edx, 21			; 00000015H
  00097	52		 push	 edx
  00098	68 00 00 00 00	 push	 OFFSET ??_C@_0FD@CFOFJMFL@c?3?2users?2nhv90?2projects?2eech?2ap@
  0009d	a1 00 00 00 00	 mov	 eax, DWORD PTR ?overload_invalid_list_type_message@@3PBDB ; overload_invalid_list_type_message
  000a2	50		 push	 eax
  000a3	e8 00 00 00 00	 call	 ?process_assert@@YGXPBD0H@Z ; process_assert
  000a8	c7 85 7c ff ff
	ff 00 00 00 00	 mov	 DWORD PTR tv88[ebp], 0
$LN22@routed_veh:
  000b2	6a 0d		 push	 13			; 0000000dH
  000b4	8b 4d 08	 mov	 ecx, DWORD PTR _en$[ebp]
  000b7	51		 push	 ecx
  000b8	69 55 80 b4 00
	00 00		 imul	 edx, DWORD PTR tv80[ebp], 180
  000bf	8b 85 7c ff ff
	ff		 mov	 eax, DWORD PTR tv88[ebp]
  000c5	8b 8c 82 00 00
	00 00		 mov	 ecx, DWORD PTR ?fn_get_local_entity_parent@@3PAY0CN@P6GPAUENTITY@@PAU1@W4LIST_TYPES@@@ZA[edx+eax*4]
  000cc	ff d1		 call	 ecx
  000ce	89 45 f8	 mov	 DWORD PTR _guide$[ebp], eax

; 751  : 
; 752  : 	ASSERT (guide);

  000d1	83 7d f8 00	 cmp	 DWORD PTR _guide$[ebp], 0
  000d5	75 18		 jne	 SHORT $LN4@routed_veh
  000d7	a1 00 00 00 00	 mov	 eax, DWORD PTR ?__LINE__Var@?0??routed_vehicle_movement_get_waypoint_position@@YGXPAUENTITY@@PAUVEC3D@@@Z@4JA
  000dc	83 c0 17	 add	 eax, 23			; 00000017H
  000df	50		 push	 eax
  000e0	68 00 00 00 00	 push	 OFFSET ??_C@_0FD@CFOFJMFL@c?3?2users?2nhv90?2projects?2eech?2ap@
  000e5	68 00 00 00 00	 push	 OFFSET ??_C@_05HLIEEKJG@guide@
  000ea	e8 00 00 00 00	 call	 ?process_assert@@YGXPBD0H@Z ; process_assert
$LN4@routed_veh:

; 753  : 
; 754  : 	wp = get_local_entity_parent (guide, LIST_TYPE_CURRENT_WAYPOINT);

  000ef	83 7d f8 00	 cmp	 DWORD PTR _guide$[ebp], 0
  000f3	74 0a		 je	 SHORT $LN23@routed_veh
  000f5	8b 45 f8	 mov	 eax, DWORD PTR _guide$[ebp]
  000f8	8b 08		 mov	 ecx, DWORD PTR [eax]
  000fa	89 4d 80	 mov	 DWORD PTR tv137[ebp], ecx
  000fd	eb 21		 jmp	 SHORT $LN24@routed_veh
$LN23@routed_veh:
  000ff	8b 15 00 00 00
	00		 mov	 edx, DWORD PTR ?__LINE__Var@?0??routed_vehicle_movement_get_waypoint_position@@YGXPAUENTITY@@PAUVEC3D@@@Z@4JA
  00105	83 c2 19	 add	 edx, 25			; 00000019H
  00108	52		 push	 edx
  00109	68 00 00 00 00	 push	 OFFSET ??_C@_0FD@CFOFJMFL@c?3?2users?2nhv90?2projects?2eech?2ap@
  0010e	a1 00 00 00 00	 mov	 eax, DWORD PTR ?null_entity_pointer_message@@3PBDB ; null_entity_pointer_message
  00113	50		 push	 eax
  00114	e8 00 00 00 00	 call	 ?process_assert@@YGXPBD0H@Z ; process_assert
  00119	c7 45 80 00 00
	00 00		 mov	 DWORD PTR tv137[ebp], 0
$LN24@routed_veh:
  00120	b9 01 00 00 00	 mov	 ecx, 1
  00125	85 c9		 test	 ecx, ecx
  00127	74 0c		 je	 SHORT $LN25@routed_veh
  00129	c7 85 7c ff ff
	ff 09 00 00 00	 mov	 DWORD PTR tv145[ebp], 9
  00133	eb 24		 jmp	 SHORT $LN26@routed_veh
$LN25@routed_veh:
  00135	8b 15 00 00 00
	00		 mov	 edx, DWORD PTR ?__LINE__Var@?0??routed_vehicle_movement_get_waypoint_position@@YGXPAUENTITY@@PAUVEC3D@@@Z@4JA
  0013b	83 c2 19	 add	 edx, 25			; 00000019H
  0013e	52		 push	 edx
  0013f	68 00 00 00 00	 push	 OFFSET ??_C@_0FD@CFOFJMFL@c?3?2users?2nhv90?2projects?2eech?2ap@
  00144	a1 00 00 00 00	 mov	 eax, DWORD PTR ?overload_invalid_list_type_message@@3PBDB ; overload_invalid_list_type_message
  00149	50		 push	 eax
  0014a	e8 00 00 00 00	 call	 ?process_assert@@YGXPBD0H@Z ; process_assert
  0014f	c7 85 7c ff ff
	ff 00 00 00 00	 mov	 DWORD PTR tv145[ebp], 0
$LN26@routed_veh:
  00159	6a 09		 push	 9
  0015b	8b 4d f8	 mov	 ecx, DWORD PTR _guide$[ebp]
  0015e	51		 push	 ecx
  0015f	69 55 80 b4 00
	00 00		 imul	 edx, DWORD PTR tv137[ebp], 180
  00166	8b 85 7c ff ff
	ff		 mov	 eax, DWORD PTR tv145[ebp]
  0016c	8b 8c 82 00 00
	00 00		 mov	 ecx, DWORD PTR ?fn_get_local_entity_parent@@3PAY0CN@P6GPAUENTITY@@PAU1@W4LIST_TYPES@@@ZA[edx+eax*4]
  00173	ff d1		 call	 ecx
  00175	89 45 fc	 mov	 DWORD PTR _wp$[ebp], eax

; 755  : 
; 756  : 	ASSERT (wp);

  00178	83 7d fc 00	 cmp	 DWORD PTR _wp$[ebp], 0
  0017c	75 18		 jne	 SHORT $LN5@routed_veh
  0017e	a1 00 00 00 00	 mov	 eax, DWORD PTR ?__LINE__Var@?0??routed_vehicle_movement_get_waypoint_position@@YGXPAUENTITY@@PAUVEC3D@@@Z@4JA
  00183	83 c0 1b	 add	 eax, 27			; 0000001bH
  00186	50		 push	 eax
  00187	68 00 00 00 00	 push	 OFFSET ??_C@_0FD@CFOFJMFL@c?3?2users?2nhv90?2projects?2eech?2ap@
  0018c	68 00 00 00 00	 push	 OFFSET ??_C@_02HODPCBMO@wp@
  00191	e8 00 00 00 00	 call	 ?process_assert@@YGXPBD0H@Z ; process_assert
$LN5@routed_veh:

; 757  : 
; 758  : 	//
; 759  : 	// Should vehicle follow waypoint or sub_route ?
; 760  : 	//
; 761  : 
; 762  : 	if (get_local_entity_int_value (wp, INT_TYPE_MOBILE_FOLLOW_WAYPOINT_OFFSET))

  00196	83 7d fc 00	 cmp	 DWORD PTR _wp$[ebp], 0
  0019a	74 0a		 je	 SHORT $LN27@routed_veh
  0019c	8b 45 fc	 mov	 eax, DWORD PTR _wp$[ebp]
  0019f	8b 08		 mov	 ecx, DWORD PTR [eax]
  001a1	89 4d 80	 mov	 DWORD PTR tv161[ebp], ecx
  001a4	eb 1d		 jmp	 SHORT $LN28@routed_veh
$LN27@routed_veh:
  001a6	68 fa 02 00 00	 push	 762			; 000002faH
  001ab	68 00 00 00 00	 push	 OFFSET ??_C@_0FD@CFOFJMFL@c?3?2users?2nhv90?2projects?2eech?2ap@
  001b0	8b 15 00 00 00
	00		 mov	 edx, DWORD PTR ?null_entity_pointer_message@@3PBDB ; null_entity_pointer_message
  001b6	52		 push	 edx
  001b7	e8 00 00 00 00	 call	 ?process_assert@@YGXPBD0H@Z ; process_assert
  001bc	c7 45 80 00 00
	00 00		 mov	 DWORD PTR tv161[ebp], 0
$LN28@routed_veh:
  001c3	b8 01 00 00 00	 mov	 eax, 1
  001c8	85 c0		 test	 eax, eax
  001ca	74 0c		 je	 SHORT $LN29@routed_veh
  001cc	c7 85 7c ff ff
	ff 8d 00 00 00	 mov	 DWORD PTR tv168[ebp], 141 ; 0000008dH
  001d6	eb 20		 jmp	 SHORT $LN30@routed_veh
$LN29@routed_veh:
  001d8	68 fa 02 00 00	 push	 762			; 000002faH
  001dd	68 00 00 00 00	 push	 OFFSET ??_C@_0FD@CFOFJMFL@c?3?2users?2nhv90?2projects?2eech?2ap@
  001e2	8b 0d 00 00 00
	00		 mov	 ecx, DWORD PTR ?overload_invalid_int_type_message@@3PBDB ; overload_invalid_int_type_message
  001e8	51		 push	 ecx
  001e9	e8 00 00 00 00	 call	 ?process_assert@@YGXPBD0H@Z ; process_assert
  001ee	c7 85 7c ff ff
	ff 00 00 00 00	 mov	 DWORD PTR tv168[ebp], 0
$LN30@routed_veh:
  001f8	68 8d 00 00 00	 push	 141			; 0000008dH
  001fd	8b 55 fc	 mov	 edx, DWORD PTR _wp$[ebp]
  00200	52		 push	 edx
  00201	69 45 80 5c 04
	00 00		 imul	 eax, DWORD PTR tv161[ebp], 1116
  00208	8b 8d 7c ff ff
	ff		 mov	 ecx, DWORD PTR tv168[ebp]
  0020e	8b 94 88 00 00
	00 00		 mov	 edx, DWORD PTR ?fn_get_local_entity_int_value@@3PAY0BBH@P6GHPAUENTITY@@W4INT_TYPES@@@ZA[eax+ecx*4]
  00215	ff d2		 call	 edx
  00217	85 c0		 test	 eax, eax
  00219	0f 84 da 00 00
	00		 je	 $LN6@routed_veh

; 763  : 	{
; 764  : 
; 765  : 		get_local_entity_vec3d (guide, VEC3D_TYPE_GUIDE_POSITION, wp_pos);

  0021f	83 7d f8 00	 cmp	 DWORD PTR _guide$[ebp], 0
  00223	74 0a		 je	 SHORT $LN31@routed_veh
  00225	8b 45 f8	 mov	 eax, DWORD PTR _guide$[ebp]
  00228	8b 08		 mov	 ecx, DWORD PTR [eax]
  0022a	89 4d 80	 mov	 DWORD PTR tv181[ebp], ecx
  0022d	eb 21		 jmp	 SHORT $LN32@routed_veh
$LN31@routed_veh:
  0022f	8b 15 00 00 00
	00		 mov	 edx, DWORD PTR ?__LINE__Var@?0??routed_vehicle_movement_get_waypoint_position@@YGXPAUENTITY@@PAUVEC3D@@@Z@4JA
  00235	83 c2 24	 add	 edx, 36			; 00000024H
  00238	52		 push	 edx
  00239	68 00 00 00 00	 push	 OFFSET ??_C@_0FD@CFOFJMFL@c?3?2users?2nhv90?2projects?2eech?2ap@
  0023e	a1 00 00 00 00	 mov	 eax, DWORD PTR ?null_entity_pointer_message@@3PBDB ; null_entity_pointer_message
  00243	50		 push	 eax
  00244	e8 00 00 00 00	 call	 ?process_assert@@YGXPBD0H@Z ; process_assert
  00249	c7 45 80 00 00
	00 00		 mov	 DWORD PTR tv181[ebp], 0
$LN32@routed_veh:
  00250	b9 01 00 00 00	 mov	 ecx, 1
  00255	85 c9		 test	 ecx, ecx
  00257	74 0c		 je	 SHORT $LN33@routed_veh
  00259	c7 85 7c ff ff
	ff 04 00 00 00	 mov	 DWORD PTR tv189[ebp], 4
  00263	eb 24		 jmp	 SHORT $LN34@routed_veh
$LN33@routed_veh:
  00265	8b 15 00 00 00
	00		 mov	 edx, DWORD PTR ?__LINE__Var@?0??routed_vehicle_movement_get_waypoint_position@@YGXPAUENTITY@@PAUVEC3D@@@Z@4JA
  0026b	83 c2 24	 add	 edx, 36			; 00000024H
  0026e	52		 push	 edx
  0026f	68 00 00 00 00	 push	 OFFSET ??_C@_0FD@CFOFJMFL@c?3?2users?2nhv90?2projects?2eech?2ap@
  00274	a1 00 00 00 00	 mov	 eax, DWORD PTR ?overload_invalid_vec3d_type_message@@3PBDB ; overload_invalid_vec3d_type_message
  00279	50		 push	 eax
  0027a	e8 00 00 00 00	 call	 ?process_assert@@YGXPBD0H@Z ; process_assert
  0027f	c7 85 7c ff ff
	ff 00 00 00 00	 mov	 DWORD PTR tv189[ebp], 0
$LN34@routed_veh:
  00289	8b 4d 0c	 mov	 ecx, DWORD PTR _wp_pos$[ebp]
  0028c	51		 push	 ecx
  0028d	6a 04		 push	 4
  0028f	8b 55 f8	 mov	 edx, DWORD PTR _guide$[ebp]
  00292	52		 push	 edx
  00293	6b 45 80 60	 imul	 eax, DWORD PTR tv181[ebp], 96
  00297	8b 8d 7c ff ff
	ff		 mov	 ecx, DWORD PTR tv189[ebp]
  0029d	8b 94 88 00 00
	00 00		 mov	 edx, DWORD PTR ?fn_get_local_entity_vec3d@@3PAY0BI@P6GXPAUENTITY@@W4VEC3D_TYPES@@PAUVEC3D@@@ZA[eax+ecx*4]
  002a4	ff d2		 call	 edx

; 766  : 
; 767  : 		get_local_entity_formation_position_offset (en, wp, &offset);

  002a6	8d 45 e8	 lea	 eax, DWORD PTR _offset$[ebp]
  002a9	50		 push	 eax
  002aa	8b 4d fc	 mov	 ecx, DWORD PTR _wp$[ebp]
  002ad	51		 push	 ecx
  002ae	8b 55 08	 mov	 edx, DWORD PTR _en$[ebp]
  002b1	52		 push	 edx
  002b2	e8 00 00 00 00	 call	 ?get_local_entity_formation_position_offset@@YGXPAUENTITY@@0PAUVEC3D@@@Z ; get_local_entity_formation_position_offset

; 768  : 
; 769  : 		wp_pos->x += offset.x;

  002b7	8b 45 0c	 mov	 eax, DWORD PTR _wp_pos$[ebp]
  002ba	f3 0f 10 00	 movss	 xmm0, DWORD PTR [eax]
  002be	f3 0f 58 45 e8	 addss	 xmm0, DWORD PTR _offset$[ebp]
  002c3	8b 4d 0c	 mov	 ecx, DWORD PTR _wp_pos$[ebp]
  002c6	f3 0f 11 01	 movss	 DWORD PTR [ecx], xmm0

; 770  : 		wp_pos->y += offset.y;

  002ca	8b 45 0c	 mov	 eax, DWORD PTR _wp_pos$[ebp]
  002cd	f3 0f 10 40 04	 movss	 xmm0, DWORD PTR [eax+4]
  002d2	f3 0f 58 45 ec	 addss	 xmm0, DWORD PTR _offset$[ebp+4]
  002d7	8b 4d 0c	 mov	 ecx, DWORD PTR _wp_pos$[ebp]
  002da	f3 0f 11 41 04	 movss	 DWORD PTR [ecx+4], xmm0

; 771  : 		wp_pos->z += offset.z;

  002df	8b 45 0c	 mov	 eax, DWORD PTR _wp_pos$[ebp]
  002e2	f3 0f 10 40 08	 movss	 xmm0, DWORD PTR [eax+8]
  002e7	f3 0f 58 45 f0	 addss	 xmm0, DWORD PTR _offset$[ebp+8]
  002ec	8b 4d 0c	 mov	 ecx, DWORD PTR _wp_pos$[ebp]
  002ef	f3 0f 11 41 08	 movss	 DWORD PTR [ecx+8], xmm0

; 772  : 	}
; 773  : 	else

  002f4	e9 4a 03 00 00	 jmp	 $LN9@routed_veh
$LN6@routed_veh:

; 774  : 	{
; 775  : 
; 776  : 		//
; 777  : 		// following sub_route
; 778  : 		//
; 779  : 
; 780  : 		raw = (routed_vehicle *) get_local_entity_data (en);

  002f9	8b 45 08	 mov	 eax, DWORD PTR _en$[ebp]
  002fc	8b 48 04	 mov	 ecx, DWORD PTR [eax+4]
  002ff	89 4d d4	 mov	 DWORD PTR _raw$[ebp], ecx

; 781  : 
; 782  : 		if ((raw->sub_route) && (raw->sub_waypoint_count > 0))

  00302	8b 45 d4	 mov	 eax, DWORD PTR _raw$[ebp]
  00305	83 b8 80 01 00
	00 00		 cmp	 DWORD PTR [eax+384], 0
  0030c	0f 84 56 02 00
	00		 je	 $LN8@routed_veh
  00312	8b 45 d4	 mov	 eax, DWORD PTR _raw$[ebp]
  00315	8b 88 7c 01 00
	00		 mov	 ecx, DWORD PTR [eax+380]
  0031b	81 e1 ff 03 00
	00		 and	 ecx, 1023		; 000003ffH
  00321	0f 86 41 02 00
	00		 jbe	 $LN8@routed_veh

; 783  : 		{
; 784  : 
; 785  : 			float
; 786  : 				sqr_range;
; 787  : 
; 788  : 			if (raw->waypoint_next_index > raw->waypoint_this_index)

  00327	8b 45 d4	 mov	 eax, DWORD PTR _raw$[ebp]
  0032a	8b 88 7c 01 00
	00		 mov	 ecx, DWORD PTR [eax+380]
  00330	c1 e9 0a	 shr	 ecx, 10			; 0000000aH
  00333	81 e1 ff 03 00
	00		 and	 ecx, 1023		; 000003ffH
  00339	8b 55 d4	 mov	 edx, DWORD PTR _raw$[ebp]
  0033c	8b 82 7c 01 00
	00		 mov	 eax, DWORD PTR [edx+380]
  00342	c1 e8 14	 shr	 eax, 20			; 00000014H
  00345	25 ff 03 00 00	 and	 eax, 1023		; 000003ffH
  0034a	3b c8		 cmp	 ecx, eax
  0034c	76 43		 jbe	 SHORT $LN10@routed_veh

; 789  : 			{
; 790  : 
; 791  : 				*wp_pos = raw->sub_route->link_positions [raw->sub_route->number_of_links - raw->sub_waypoint_count];

  0034e	8b 45 d4	 mov	 eax, DWORD PTR _raw$[ebp]
  00351	8b 88 80 01 00
	00		 mov	 ecx, DWORD PTR [eax+384]
  00357	8b 55 d4	 mov	 edx, DWORD PTR _raw$[ebp]
  0035a	8b 82 80 01 00
	00		 mov	 eax, DWORD PTR [edx+384]
  00360	0f b7 50 06	 movzx	 edx, WORD PTR [eax+6]
  00364	8b 45 d4	 mov	 eax, DWORD PTR _raw$[ebp]
  00367	8b 80 7c 01 00
	00		 mov	 eax, DWORD PTR [eax+380]
  0036d	25 ff 03 00 00	 and	 eax, 1023		; 000003ffH
  00372	2b d0		 sub	 edx, eax
  00374	6b d2 0c	 imul	 edx, edx, 12
  00377	8b 41 0c	 mov	 eax, DWORD PTR [ecx+12]
  0037a	03 c2		 add	 eax, edx
  0037c	8b 4d 0c	 mov	 ecx, DWORD PTR _wp_pos$[ebp]
  0037f	8b 10		 mov	 edx, DWORD PTR [eax]
  00381	89 11		 mov	 DWORD PTR [ecx], edx
  00383	8b 50 04	 mov	 edx, DWORD PTR [eax+4]
  00386	89 51 04	 mov	 DWORD PTR [ecx+4], edx
  00389	8b 40 08	 mov	 eax, DWORD PTR [eax+8]
  0038c	89 41 08	 mov	 DWORD PTR [ecx+8], eax

; 792  : 			}
; 793  : 			else

  0038f	eb 35		 jmp	 SHORT $LN11@routed_veh
$LN10@routed_veh:

; 794  : 			{
; 795  : 
; 796  : 				*wp_pos = raw->sub_route->link_positions [raw->sub_waypoint_count - 1];

  00391	8b 45 d4	 mov	 eax, DWORD PTR _raw$[ebp]
  00394	8b 88 80 01 00
	00		 mov	 ecx, DWORD PTR [eax+384]
  0039a	8b 55 d4	 mov	 edx, DWORD PTR _raw$[ebp]
  0039d	8b 82 7c 01 00
	00		 mov	 eax, DWORD PTR [edx+380]
  003a3	25 ff 03 00 00	 and	 eax, 1023		; 000003ffH
  003a8	83 e8 01	 sub	 eax, 1
  003ab	6b d0 0c	 imul	 edx, eax, 12
  003ae	8b 41 0c	 mov	 eax, DWORD PTR [ecx+12]
  003b1	03 c2		 add	 eax, edx
  003b3	8b 4d 0c	 mov	 ecx, DWORD PTR _wp_pos$[ebp]
  003b6	8b 10		 mov	 edx, DWORD PTR [eax]
  003b8	89 11		 mov	 DWORD PTR [ecx], edx
  003ba	8b 50 04	 mov	 edx, DWORD PTR [eax+4]
  003bd	89 51 04	 mov	 DWORD PTR [ecx+4], edx
  003c0	8b 40 08	 mov	 eax, DWORD PTR [eax+8]
  003c3	89 41 08	 mov	 DWORD PTR [ecx+8], eax
$LN11@routed_veh:

; 797  : 			}
; 798  : 
; 799  : 			sqr_range = ((wp_pos->x - raw->vh.mob.position.x) * (wp_pos->x - raw->vh.mob.position.x)) +

  003c6	8b 45 0c	 mov	 eax, DWORD PTR _wp_pos$[ebp]
  003c9	8b 4d d4	 mov	 ecx, DWORD PTR _raw$[ebp]
  003cc	f3 0f 10 00	 movss	 xmm0, DWORD PTR [eax]
  003d0	f3 0f 5c 41 04	 subss	 xmm0, DWORD PTR [ecx+4]
  003d5	8b 55 0c	 mov	 edx, DWORD PTR _wp_pos$[ebp]
  003d8	8b 45 d4	 mov	 eax, DWORD PTR _raw$[ebp]
  003db	f3 0f 10 0a	 movss	 xmm1, DWORD PTR [edx]
  003df	f3 0f 5c 48 04	 subss	 xmm1, DWORD PTR [eax+4]
  003e4	f3 0f 59 c1	 mulss	 xmm0, xmm1
  003e8	8b 4d 0c	 mov	 ecx, DWORD PTR _wp_pos$[ebp]
  003eb	8b 55 d4	 mov	 edx, DWORD PTR _raw$[ebp]
  003ee	f3 0f 10 49 08	 movss	 xmm1, DWORD PTR [ecx+8]
  003f3	f3 0f 5c 4a 0c	 subss	 xmm1, DWORD PTR [edx+12]
  003f8	8b 45 0c	 mov	 eax, DWORD PTR _wp_pos$[ebp]
  003fb	8b 4d d4	 mov	 ecx, DWORD PTR _raw$[ebp]
  003fe	f3 0f 10 50 08	 movss	 xmm2, DWORD PTR [eax+8]
  00403	f3 0f 5c 51 0c	 subss	 xmm2, DWORD PTR [ecx+12]
  00408	f3 0f 59 ca	 mulss	 xmm1, xmm2
  0040c	f3 0f 58 c1	 addss	 xmm0, xmm1
  00410	f3 0f 11 45 d0	 movss	 DWORD PTR _sqr_range$2[ebp], xmm0

; 800  : 							((wp_pos->z - raw->vh.mob.position.z) * (wp_pos->z - raw->vh.mob.position.z));
; 801  : 
; 802  : 			#if DEBUG_MODULE
; 803  : 
; 804  : 			if (get_external_view_entity () == en)
; 805  : 			{
; 806  : 
; 807  : 				debug_log ("RV_MOVE: %s, %d at [%f, %f, %f] following sub_route %d, at [%f, %f, %f] sqr_range %f",
; 808  : 								get_local_entity_string (en, STRING_TYPE_FULL_NAME),
; 809  : 								get_local_entity_index (en),
; 810  : 								raw->vh.mob.position.x,
; 811  : 								raw->vh.mob.position.y,
; 812  : 								raw->vh.mob.position.z,
; 813  : 								raw->waypoint_next_index,
; 814  : 								wp_pos->x, wp_pos->y, wp_pos->z,
; 815  : 								sqr_range);
; 816  : 			}
; 817  : 
; 818  : 			#endif
; 819  : 
; 820  : 			if (sqr_range < 6.0)

  00415	f3 0f 5a 45 d0	 cvtss2sd xmm0, DWORD PTR _sqr_range$2[ebp]
  0041a	f2 0f 10 0d 00
	00 00 00	 movsd	 xmm1, QWORD PTR __real@4018000000000000
  00422	66 0f 2f c8	 comisd	 xmm1, xmm0
  00426	0f 86 37 01 00
	00		 jbe	 $LN15@routed_veh

; 821  : 			{
; 822  : 
; 823  : 				raw->sub_waypoint_count --;

  0042c	8b 45 d4	 mov	 eax, DWORD PTR _raw$[ebp]
  0042f	8b 88 7c 01 00
	00		 mov	 ecx, DWORD PTR [eax+380]
  00435	81 e1 ff 03 00
	00		 and	 ecx, 1023		; 000003ffH
  0043b	83 e9 01	 sub	 ecx, 1
  0043e	81 e1 ff 03 00
	00		 and	 ecx, 1023		; 000003ffH
  00444	8b 55 d4	 mov	 edx, DWORD PTR _raw$[ebp]
  00447	8b 82 7c 01 00
	00		 mov	 eax, DWORD PTR [edx+380]
  0044d	25 00 fc ff ff	 and	 eax, -1024		; fffffc00H
  00452	0b c1		 or	 eax, ecx
  00454	8b 4d d4	 mov	 ecx, DWORD PTR _raw$[ebp]
  00457	89 81 7c 01 00
	00		 mov	 DWORD PTR [ecx+380], eax

; 824  : 
; 825  : 				#if DEBUG_MODULE
; 826  : 
; 827  : 				if (get_external_view_entity () == en)
; 828  : 				{
; 829  : 
; 830  : 					debug_log ("RV_MOVE: reached sub_route waypoint");
; 831  : 				}
; 832  : 
; 833  : 				#endif
; 834  : 
; 835  : 				if ((get_comms_model () == COMMS_MODEL_SERVER) && (raw->sub_waypoint_count & SUB_ROUTE_WAYPOINT_RESYNC_FREQUENCY))

  0045d	83 3d 00 00 00
	00 00		 cmp	 DWORD PTR ?system_comms_model@@3W4COMMS_MODEL_TYPES@@A, 0 ; system_comms_model
  00464	75 22		 jne	 SHORT $LN13@routed_veh
  00466	8b 45 d4	 mov	 eax, DWORD PTR _raw$[ebp]
  00469	8b 88 7c 01 00
	00		 mov	 ecx, DWORD PTR [eax+380]
  0046f	81 e1 ff 03 00
	00		 and	 ecx, 1023		; 000003ffH
  00475	83 e1 01	 and	 ecx, 1
  00478	74 0e		 je	 SHORT $LN13@routed_veh

; 836  : 				{
; 837  : 
; 838  : 					transmit_entity_comms_message (ENTITY_COMMS_UPDATE, en);

  0047a	8b 45 08	 mov	 eax, DWORD PTR _en$[ebp]
  0047d	50		 push	 eax
  0047e	6a 3e		 push	 62			; 0000003eH
  00480	e8 00 00 00 00	 call	 ?transmit_entity_comms_message@@YAXW4ENTITY_COMMS_MESSAGES@@PAUENTITY@@ZZ ; transmit_entity_comms_message
  00485	83 c4 08	 add	 esp, 8
$LN13@routed_veh:

; 839  : 
; 840  : 					#if DEBUG_MODULE
; 841  : 
; 842  : 					debug_log ("RV_MOVE: client server update position for en %s %d", get_local_entity_string (en, STRING_TYPE_FULL_NAME), get_local_entity_index (en));
; 843  : 
; 844  : 					#endif
; 845  : 				}
; 846  : 
; 847  : 				if (raw->sub_waypoint_count > 0)

  00488	8b 45 d4	 mov	 eax, DWORD PTR _raw$[ebp]
  0048b	8b 88 7c 01 00
	00		 mov	 ecx, DWORD PTR [eax+380]
  00491	81 e1 ff 03 00
	00		 and	 ecx, 1023		; 000003ffH
  00497	0f 86 a1 00 00
	00		 jbe	 $LN14@routed_veh

; 848  : 				{
; 849  : 
; 850  : 					if (raw->waypoint_next_index > raw->waypoint_this_index)

  0049d	8b 45 d4	 mov	 eax, DWORD PTR _raw$[ebp]
  004a0	8b 88 7c 01 00
	00		 mov	 ecx, DWORD PTR [eax+380]
  004a6	c1 e9 0a	 shr	 ecx, 10			; 0000000aH
  004a9	81 e1 ff 03 00
	00		 and	 ecx, 1023		; 000003ffH
  004af	8b 55 d4	 mov	 edx, DWORD PTR _raw$[ebp]
  004b2	8b 82 7c 01 00
	00		 mov	 eax, DWORD PTR [edx+380]
  004b8	c1 e8 14	 shr	 eax, 20			; 00000014H
  004bb	25 ff 03 00 00	 and	 eax, 1023		; 000003ffH
  004c0	3b c8		 cmp	 ecx, eax
  004c2	76 43		 jbe	 SHORT $LN16@routed_veh

; 851  : 					{
; 852  : 
; 853  : 						*wp_pos = raw->sub_route->link_positions [raw->sub_route->number_of_links - raw->sub_waypoint_count];

  004c4	8b 45 d4	 mov	 eax, DWORD PTR _raw$[ebp]
  004c7	8b 88 80 01 00
	00		 mov	 ecx, DWORD PTR [eax+384]
  004cd	8b 55 d4	 mov	 edx, DWORD PTR _raw$[ebp]
  004d0	8b 82 80 01 00
	00		 mov	 eax, DWORD PTR [edx+384]
  004d6	0f b7 50 06	 movzx	 edx, WORD PTR [eax+6]
  004da	8b 45 d4	 mov	 eax, DWORD PTR _raw$[ebp]
  004dd	8b 80 7c 01 00
	00		 mov	 eax, DWORD PTR [eax+380]
  004e3	25 ff 03 00 00	 and	 eax, 1023		; 000003ffH
  004e8	2b d0		 sub	 edx, eax
  004ea	6b d2 0c	 imul	 edx, edx, 12
  004ed	8b 41 0c	 mov	 eax, DWORD PTR [ecx+12]
  004f0	03 c2		 add	 eax, edx
  004f2	8b 4d 0c	 mov	 ecx, DWORD PTR _wp_pos$[ebp]
  004f5	8b 10		 mov	 edx, DWORD PTR [eax]
  004f7	89 11		 mov	 DWORD PTR [ecx], edx
  004f9	8b 50 04	 mov	 edx, DWORD PTR [eax+4]
  004fc	89 51 04	 mov	 DWORD PTR [ecx+4], edx
  004ff	8b 40 08	 mov	 eax, DWORD PTR [eax+8]
  00502	89 41 08	 mov	 DWORD PTR [ecx+8], eax

; 854  : 					}
; 855  : 					else

  00505	eb 35		 jmp	 SHORT $LN17@routed_veh
$LN16@routed_veh:

; 856  : 					{
; 857  : 
; 858  : 						*wp_pos = raw->sub_route->link_positions [raw->sub_waypoint_count - 1];

  00507	8b 45 d4	 mov	 eax, DWORD PTR _raw$[ebp]
  0050a	8b 88 80 01 00
	00		 mov	 ecx, DWORD PTR [eax+384]
  00510	8b 55 d4	 mov	 edx, DWORD PTR _raw$[ebp]
  00513	8b 82 7c 01 00
	00		 mov	 eax, DWORD PTR [edx+380]
  00519	25 ff 03 00 00	 and	 eax, 1023		; 000003ffH
  0051e	83 e8 01	 sub	 eax, 1
  00521	6b d0 0c	 imul	 edx, eax, 12
  00524	8b 41 0c	 mov	 eax, DWORD PTR [ecx+12]
  00527	03 c2		 add	 eax, edx
  00529	8b 4d 0c	 mov	 ecx, DWORD PTR _wp_pos$[ebp]
  0052c	8b 10		 mov	 edx, DWORD PTR [eax]
  0052e	89 11		 mov	 DWORD PTR [ecx], edx
  00530	8b 50 04	 mov	 edx, DWORD PTR [eax+4]
  00533	89 51 04	 mov	 DWORD PTR [ecx+4], edx
  00536	8b 40 08	 mov	 eax, DWORD PTR [eax+8]
  00539	89 41 08	 mov	 DWORD PTR [ecx+8], eax
$LN17@routed_veh:

; 859  : 					}
; 860  : 				}
; 861  : 				else

  0053c	eb 25		 jmp	 SHORT $LN15@routed_veh
$LN14@routed_veh:

; 862  : 				{
; 863  : 
; 864  : 					raw->sub_route = NULL;

  0053e	8b 45 d4	 mov	 eax, DWORD PTR _raw$[ebp]
  00541	c7 80 80 01 00
	00 00 00 00 00	 mov	 DWORD PTR [eax+384], 0

; 865  : 
; 866  : 					raw->sub_waypoint_count = 0;

  0054b	8b 45 d4	 mov	 eax, DWORD PTR _raw$[ebp]
  0054e	8b 88 7c 01 00
	00		 mov	 ecx, DWORD PTR [eax+380]
  00554	81 e1 00 fc ff
	ff		 and	 ecx, -1024		; fffffc00H
  0055a	8b 55 d4	 mov	 edx, DWORD PTR _raw$[ebp]
  0055d	89 8a 7c 01 00
	00		 mov	 DWORD PTR [edx+380], ecx
$LN15@routed_veh:

; 867  : 				}
; 868  : 			}
; 869  : 		}
; 870  : 		else

  00563	e9 db 00 00 00	 jmp	 $LN9@routed_veh
$LN8@routed_veh:

; 871  : 		{
; 872  : 
; 873  : 			vec3d
; 874  : 				offset;
; 875  : 
; 876  : 			#if DEBUG_MODULE
; 877  : 
; 878  : 			debug_log ("RV_MOVE: warning... routed vehicle %s (%d) is moving between %d and %d and has no sub_route setup",
; 879  : 							get_local_entity_string (en, STRING_TYPE_FULL_NAME),
; 880  : 							get_local_entity_index (en),
; 881  : 							get_local_entity_int_value (en, INT_TYPE_WAYPOINT_THIS_INDEX),
; 882  : 							get_local_entity_int_value (en, INT_TYPE_WAYPOINT_NEXT_INDEX));
; 883  : 
; 884  : 			#endif
; 885  : 
; 886  : 			get_local_entity_vec3d (guide, VEC3D_TYPE_GUIDE_POSITION, wp_pos);

  00568	83 7d f8 00	 cmp	 DWORD PTR _guide$[ebp], 0
  0056c	74 0a		 je	 SHORT $LN35@routed_veh
  0056e	8b 45 f8	 mov	 eax, DWORD PTR _guide$[ebp]
  00571	8b 08		 mov	 ecx, DWORD PTR [eax]
  00573	89 4d 80	 mov	 DWORD PTR tv324[ebp], ecx
  00576	eb 24		 jmp	 SHORT $LN36@routed_veh
$LN35@routed_veh:
  00578	8b 15 00 00 00
	00		 mov	 edx, DWORD PTR ?__LINE__Var@?0??routed_vehicle_movement_get_waypoint_position@@YGXPAUENTITY@@PAUVEC3D@@@Z@4JA
  0057e	81 c2 9d 00 00
	00		 add	 edx, 157		; 0000009dH
  00584	52		 push	 edx
  00585	68 00 00 00 00	 push	 OFFSET ??_C@_0FD@CFOFJMFL@c?3?2users?2nhv90?2projects?2eech?2ap@
  0058a	a1 00 00 00 00	 mov	 eax, DWORD PTR ?null_entity_pointer_message@@3PBDB ; null_entity_pointer_message
  0058f	50		 push	 eax
  00590	e8 00 00 00 00	 call	 ?process_assert@@YGXPBD0H@Z ; process_assert
  00595	c7 45 80 00 00
	00 00		 mov	 DWORD PTR tv324[ebp], 0
$LN36@routed_veh:
  0059c	b9 01 00 00 00	 mov	 ecx, 1
  005a1	85 c9		 test	 ecx, ecx
  005a3	74 0c		 je	 SHORT $LN37@routed_veh
  005a5	c7 85 7c ff ff
	ff 04 00 00 00	 mov	 DWORD PTR tv332[ebp], 4
  005af	eb 27		 jmp	 SHORT $LN38@routed_veh
$LN37@routed_veh:
  005b1	8b 15 00 00 00
	00		 mov	 edx, DWORD PTR ?__LINE__Var@?0??routed_vehicle_movement_get_waypoint_position@@YGXPAUENTITY@@PAUVEC3D@@@Z@4JA
  005b7	81 c2 9d 00 00
	00		 add	 edx, 157		; 0000009dH
  005bd	52		 push	 edx
  005be	68 00 00 00 00	 push	 OFFSET ??_C@_0FD@CFOFJMFL@c?3?2users?2nhv90?2projects?2eech?2ap@
  005c3	a1 00 00 00 00	 mov	 eax, DWORD PTR ?overload_invalid_vec3d_type_message@@3PBDB ; overload_invalid_vec3d_type_message
  005c8	50		 push	 eax
  005c9	e8 00 00 00 00	 call	 ?process_assert@@YGXPBD0H@Z ; process_assert
  005ce	c7 85 7c ff ff
	ff 00 00 00 00	 mov	 DWORD PTR tv332[ebp], 0
$LN38@routed_veh:
  005d8	8b 4d 0c	 mov	 ecx, DWORD PTR _wp_pos$[ebp]
  005db	51		 push	 ecx
  005dc	6a 04		 push	 4
  005de	8b 55 f8	 mov	 edx, DWORD PTR _guide$[ebp]
  005e1	52		 push	 edx
  005e2	6b 45 80 60	 imul	 eax, DWORD PTR tv324[ebp], 96
  005e6	8b 8d 7c ff ff
	ff		 mov	 ecx, DWORD PTR tv332[ebp]
  005ec	8b 94 88 00 00
	00 00		 mov	 edx, DWORD PTR ?fn_get_local_entity_vec3d@@3PAY0BI@P6GXPAUENTITY@@W4VEC3D_TYPES@@PAUVEC3D@@@ZA[eax+ecx*4]
  005f3	ff d2		 call	 edx

; 887  : 
; 888  : 			get_local_entity_formation_position_offset (en, wp, &offset);

  005f5	8d 45 c4	 lea	 eax, DWORD PTR _offset$1[ebp]
  005f8	50		 push	 eax
  005f9	8b 4d fc	 mov	 ecx, DWORD PTR _wp$[ebp]
  005fc	51		 push	 ecx
  005fd	8b 55 08	 mov	 edx, DWORD PTR _en$[ebp]
  00600	52		 push	 edx
  00601	e8 00 00 00 00	 call	 ?get_local_entity_formation_position_offset@@YGXPAUENTITY@@0PAUVEC3D@@@Z ; get_local_entity_formation_position_offset

; 889  : 
; 890  : 			wp_pos->x += offset.x;

  00606	8b 45 0c	 mov	 eax, DWORD PTR _wp_pos$[ebp]
  00609	f3 0f 10 00	 movss	 xmm0, DWORD PTR [eax]
  0060d	f3 0f 58 45 c4	 addss	 xmm0, DWORD PTR _offset$1[ebp]
  00612	8b 4d 0c	 mov	 ecx, DWORD PTR _wp_pos$[ebp]
  00615	f3 0f 11 01	 movss	 DWORD PTR [ecx], xmm0

; 891  : 			wp_pos->y += offset.y;

  00619	8b 45 0c	 mov	 eax, DWORD PTR _wp_pos$[ebp]
  0061c	f3 0f 10 40 04	 movss	 xmm0, DWORD PTR [eax+4]
  00621	f3 0f 58 45 c8	 addss	 xmm0, DWORD PTR _offset$1[ebp+4]
  00626	8b 4d 0c	 mov	 ecx, DWORD PTR _wp_pos$[ebp]
  00629	f3 0f 11 41 04	 movss	 DWORD PTR [ecx+4], xmm0

; 892  : 			wp_pos->z += offset.z;

  0062e	8b 45 0c	 mov	 eax, DWORD PTR _wp_pos$[ebp]
  00631	f3 0f 10 40 08	 movss	 xmm0, DWORD PTR [eax+8]
  00636	f3 0f 58 45 cc	 addss	 xmm0, DWORD PTR _offset$1[ebp+8]
  0063b	8b 4d 0c	 mov	 ecx, DWORD PTR _wp_pos$[ebp]
  0063e	f3 0f 11 41 08	 movss	 DWORD PTR [ecx+8], xmm0
$LN9@routed_veh:

; 893  : 		}
; 894  : 	}
; 895  : 
; 896  : 	//
; 897  : 	// calculate distance of entity to next waypoint position
; 898  : 	//
; 899  : 
; 900  : 	pos = get_local_entity_vec3d_ptr (en, VEC3D_TYPE_POSITION);

  00643	83 7d 08 00	 cmp	 DWORD PTR _en$[ebp], 0
  00647	74 0a		 je	 SHORT $LN39@routed_veh
  00649	8b 45 08	 mov	 eax, DWORD PTR _en$[ebp]
  0064c	8b 08		 mov	 ecx, DWORD PTR [eax]
  0064e	89 4d 80	 mov	 DWORD PTR tv356[ebp], ecx
  00651	eb 24		 jmp	 SHORT $LN40@routed_veh
$LN39@routed_veh:
  00653	8b 15 00 00 00
	00		 mov	 edx, DWORD PTR ?__LINE__Var@?0??routed_vehicle_movement_get_waypoint_position@@YGXPAUENTITY@@PAUVEC3D@@@Z@4JA
  00659	81 c2 ab 00 00
	00		 add	 edx, 171		; 000000abH
  0065f	52		 push	 edx
  00660	68 00 00 00 00	 push	 OFFSET ??_C@_0FD@CFOFJMFL@c?3?2users?2nhv90?2projects?2eech?2ap@
  00665	a1 00 00 00 00	 mov	 eax, DWORD PTR ?null_entity_pointer_message@@3PBDB ; null_entity_pointer_message
  0066a	50		 push	 eax
  0066b	e8 00 00 00 00	 call	 ?process_assert@@YGXPBD0H@Z ; process_assert
  00670	c7 45 80 00 00
	00 00		 mov	 DWORD PTR tv356[ebp], 0
$LN40@routed_veh:
  00677	b9 01 00 00 00	 mov	 ecx, 1
  0067c	85 c9		 test	 ecx, ecx
  0067e	74 0c		 je	 SHORT $LN41@routed_veh
  00680	c7 85 7c ff ff
	ff 08 00 00 00	 mov	 DWORD PTR tv364[ebp], 8
  0068a	eb 27		 jmp	 SHORT $LN42@routed_veh
$LN41@routed_veh:
  0068c	8b 15 00 00 00
	00		 mov	 edx, DWORD PTR ?__LINE__Var@?0??routed_vehicle_movement_get_waypoint_position@@YGXPAUENTITY@@PAUVEC3D@@@Z@4JA
  00692	81 c2 ab 00 00
	00		 add	 edx, 171		; 000000abH
  00698	52		 push	 edx
  00699	68 00 00 00 00	 push	 OFFSET ??_C@_0FD@CFOFJMFL@c?3?2users?2nhv90?2projects?2eech?2ap@
  0069e	a1 00 00 00 00	 mov	 eax, DWORD PTR ?overload_invalid_vec3d_type_message@@3PBDB ; overload_invalid_vec3d_type_message
  006a3	50		 push	 eax
  006a4	e8 00 00 00 00	 call	 ?process_assert@@YGXPBD0H@Z ; process_assert
  006a9	c7 85 7c ff ff
	ff 00 00 00 00	 mov	 DWORD PTR tv364[ebp], 0
$LN42@routed_veh:
  006b3	6a 08		 push	 8
  006b5	8b 4d 08	 mov	 ecx, DWORD PTR _en$[ebp]
  006b8	51		 push	 ecx
  006b9	6b 55 80 60	 imul	 edx, DWORD PTR tv356[ebp], 96
  006bd	8b 85 7c ff ff
	ff		 mov	 eax, DWORD PTR tv364[ebp]
  006c3	8b 8c 82 00 00
	00 00		 mov	 ecx, DWORD PTR ?fn_get_local_entity_vec3d_ptr@@3PAY0BI@P6GPAUVEC3D@@PAUENTITY@@W4VEC3D_TYPES@@@ZA[edx+eax*4]
  006ca	ff d1		 call	 ecx
  006cc	89 45 d8	 mov	 DWORD PTR _pos$[ebp], eax

; 901  : 
; 902  : 	get_local_entity_vec3d (wp, VEC3D_TYPE_POSITION, &temp_pos);

  006cf	83 7d fc 00	 cmp	 DWORD PTR _wp$[ebp], 0
  006d3	74 0a		 je	 SHORT $LN43@routed_veh
  006d5	8b 45 fc	 mov	 eax, DWORD PTR _wp$[ebp]
  006d8	8b 08		 mov	 ecx, DWORD PTR [eax]
  006da	89 4d 80	 mov	 DWORD PTR tv376[ebp], ecx
  006dd	eb 24		 jmp	 SHORT $LN44@routed_veh
$LN43@routed_veh:
  006df	8b 15 00 00 00
	00		 mov	 edx, DWORD PTR ?__LINE__Var@?0??routed_vehicle_movement_get_waypoint_position@@YGXPAUENTITY@@PAUVEC3D@@@Z@4JA
  006e5	81 c2 ad 00 00
	00		 add	 edx, 173		; 000000adH
  006eb	52		 push	 edx
  006ec	68 00 00 00 00	 push	 OFFSET ??_C@_0FD@CFOFJMFL@c?3?2users?2nhv90?2projects?2eech?2ap@
  006f1	a1 00 00 00 00	 mov	 eax, DWORD PTR ?null_entity_pointer_message@@3PBDB ; null_entity_pointer_message
  006f6	50		 push	 eax
  006f7	e8 00 00 00 00	 call	 ?process_assert@@YGXPBD0H@Z ; process_assert
  006fc	c7 45 80 00 00
	00 00		 mov	 DWORD PTR tv376[ebp], 0
$LN44@routed_veh:
  00703	b9 01 00 00 00	 mov	 ecx, 1
  00708	85 c9		 test	 ecx, ecx
  0070a	74 0c		 je	 SHORT $LN45@routed_veh
  0070c	c7 85 7c ff ff
	ff 08 00 00 00	 mov	 DWORD PTR tv384[ebp], 8
  00716	eb 27		 jmp	 SHORT $LN46@routed_veh
$LN45@routed_veh:
  00718	8b 15 00 00 00
	00		 mov	 edx, DWORD PTR ?__LINE__Var@?0??routed_vehicle_movement_get_waypoint_position@@YGXPAUENTITY@@PAUVEC3D@@@Z@4JA
  0071e	81 c2 ad 00 00
	00		 add	 edx, 173		; 000000adH
  00724	52		 push	 edx
  00725	68 00 00 00 00	 push	 OFFSET ??_C@_0FD@CFOFJMFL@c?3?2users?2nhv90?2projects?2eech?2ap@
  0072a	a1 00 00 00 00	 mov	 eax, DWORD PTR ?overload_invalid_vec3d_type_message@@3PBDB ; overload_invalid_vec3d_type_message
  0072f	50		 push	 eax
  00730	e8 00 00 00 00	 call	 ?process_assert@@YGXPBD0H@Z ; process_assert
  00735	c7 85 7c ff ff
	ff 00 00 00 00	 mov	 DWORD PTR tv384[ebp], 0
$LN46@routed_veh:
  0073f	8d 4d dc	 lea	 ecx, DWORD PTR _temp_pos$[ebp]
  00742	51		 push	 ecx
  00743	6a 08		 push	 8
  00745	8b 55 fc	 mov	 edx, DWORD PTR _wp$[ebp]
  00748	52		 push	 edx
  00749	6b 45 80 60	 imul	 eax, DWORD PTR tv376[ebp], 96
  0074d	8b 8d 7c ff ff
	ff		 mov	 ecx, DWORD PTR tv384[ebp]
  00753	8b 94 88 00 00
	00 00		 mov	 edx, DWORD PTR ?fn_get_local_entity_vec3d@@3PAY0BI@P6GXPAUENTITY@@W4VEC3D_TYPES@@PAUVEC3D@@@ZA[eax+ecx*4]
  0075a	ff d2		 call	 edx

; 903  : 
; 904  : 	get_local_entity_formation_position_offset (en, wp, &offset);

  0075c	8d 45 e8	 lea	 eax, DWORD PTR _offset$[ebp]
  0075f	50		 push	 eax
  00760	8b 4d fc	 mov	 ecx, DWORD PTR _wp$[ebp]
  00763	51		 push	 ecx
  00764	8b 55 08	 mov	 edx, DWORD PTR _en$[ebp]
  00767	52		 push	 edx
  00768	e8 00 00 00 00	 call	 ?get_local_entity_formation_position_offset@@YGXPAUENTITY@@0PAUVEC3D@@@Z ; get_local_entity_formation_position_offset

; 905  : 
; 906  : 	temp_pos.x += offset.x;

  0076d	f3 0f 10 45 dc	 movss	 xmm0, DWORD PTR _temp_pos$[ebp]
  00772	f3 0f 58 45 e8	 addss	 xmm0, DWORD PTR _offset$[ebp]
  00777	f3 0f 11 45 dc	 movss	 DWORD PTR _temp_pos$[ebp], xmm0

; 907  : 	temp_pos.y += offset.y;

  0077c	f3 0f 10 45 e0	 movss	 xmm0, DWORD PTR _temp_pos$[ebp+4]
  00781	f3 0f 58 45 ec	 addss	 xmm0, DWORD PTR _offset$[ebp+4]
  00786	f3 0f 11 45 e0	 movss	 DWORD PTR _temp_pos$[ebp+4], xmm0

; 908  : 	temp_pos.z += offset.z;

  0078b	f3 0f 10 45 e4	 movss	 xmm0, DWORD PTR _temp_pos$[ebp+8]
  00790	f3 0f 58 45 f0	 addss	 xmm0, DWORD PTR _offset$[ebp+8]
  00795	f3 0f 11 45 e4	 movss	 DWORD PTR _temp_pos$[ebp+8], xmm0

; 909  : 
; 910  : 	distance = get_2d_range (pos, &temp_pos);

  0079a	8d 45 dc	 lea	 eax, DWORD PTR _temp_pos$[ebp]
  0079d	50		 push	 eax
  0079e	8b 4d d8	 mov	 ecx, DWORD PTR _pos$[ebp]
  007a1	51		 push	 ecx
  007a2	e8 00 00 00 00	 call	 ?get_2d_range@@YGMPBUVEC3D@@0@Z ; get_2d_range
  007a7	d9 5d f4	 fstp	 DWORD PTR _distance$[ebp]

; 911  : 
; 912  : 	set_local_entity_float_value (en, FLOAT_TYPE_DISTANCE, distance);

  007aa	83 7d 08 00	 cmp	 DWORD PTR _en$[ebp], 0
  007ae	74 0a		 je	 SHORT $LN47@routed_veh
  007b0	8b 45 08	 mov	 eax, DWORD PTR _en$[ebp]
  007b3	8b 08		 mov	 ecx, DWORD PTR [eax]
  007b5	89 4d 80	 mov	 DWORD PTR tv405[ebp], ecx
  007b8	eb 24		 jmp	 SHORT $LN48@routed_veh
$LN47@routed_veh:
  007ba	8b 15 00 00 00
	00		 mov	 edx, DWORD PTR ?__LINE__Var@?0??routed_vehicle_movement_get_waypoint_position@@YGXPAUENTITY@@PAUVEC3D@@@Z@4JA
  007c0	81 c2 b7 00 00
	00		 add	 edx, 183		; 000000b7H
  007c6	52		 push	 edx
  007c7	68 00 00 00 00	 push	 OFFSET ??_C@_0FD@CFOFJMFL@c?3?2users?2nhv90?2projects?2eech?2ap@
  007cc	a1 00 00 00 00	 mov	 eax, DWORD PTR ?null_entity_pointer_message@@3PBDB ; null_entity_pointer_message
  007d1	50		 push	 eax
  007d2	e8 00 00 00 00	 call	 ?process_assert@@YGXPBD0H@Z ; process_assert
  007d7	c7 45 80 00 00
	00 00		 mov	 DWORD PTR tv405[ebp], 0
$LN48@routed_veh:
  007de	b9 01 00 00 00	 mov	 ecx, 1
  007e3	85 c9		 test	 ecx, ecx
  007e5	74 0c		 je	 SHORT $LN49@routed_veh
  007e7	c7 85 7c ff ff
	ff 1f 00 00 00	 mov	 DWORD PTR tv413[ebp], 31 ; 0000001fH
  007f1	eb 27		 jmp	 SHORT $LN50@routed_veh
$LN49@routed_veh:
  007f3	8b 15 00 00 00
	00		 mov	 edx, DWORD PTR ?__LINE__Var@?0??routed_vehicle_movement_get_waypoint_position@@YGXPAUENTITY@@PAUVEC3D@@@Z@4JA
  007f9	81 c2 b7 00 00
	00		 add	 edx, 183		; 000000b7H
  007ff	52		 push	 edx
  00800	68 00 00 00 00	 push	 OFFSET ??_C@_0FD@CFOFJMFL@c?3?2users?2nhv90?2projects?2eech?2ap@
  00805	a1 00 00 00 00	 mov	 eax, DWORD PTR ?overload_invalid_float_type_message@@3PBDB ; overload_invalid_float_type_message
  0080a	50		 push	 eax
  0080b	e8 00 00 00 00	 call	 ?process_assert@@YGXPBD0H@Z ; process_assert
  00810	c7 85 7c ff ff
	ff 00 00 00 00	 mov	 DWORD PTR tv413[ebp], 0
$LN50@routed_veh:
  0081a	51		 push	 ecx
  0081b	f3 0f 10 45 f4	 movss	 xmm0, DWORD PTR _distance$[ebp]
  00820	f3 0f 11 04 24	 movss	 DWORD PTR [esp], xmm0
  00825	6a 1f		 push	 31			; 0000001fH
  00827	8b 4d 08	 mov	 ecx, DWORD PTR _en$[ebp]
  0082a	51		 push	 ecx
  0082b	69 55 80 bc 02
	00 00		 imul	 edx, DWORD PTR tv405[ebp], 700
  00832	8b 85 7c ff ff
	ff		 mov	 eax, DWORD PTR tv413[ebp]
  00838	8b 8c 82 00 00
	00 00		 mov	 ecx, DWORD PTR ?fn_set_local_entity_float_value@@3PAY0KP@P6GXPAUENTITY@@W4FLOAT_TYPES@@M@ZA[edx+eax*4]
  0083f	ff d1		 call	 ecx

; 913  : }

  00841	5f		 pop	 edi
  00842	5e		 pop	 esi
  00843	5b		 pop	 ebx
  00844	8b e5		 mov	 esp, ebp
  00846	5d		 pop	 ebp
  00847	c2 08 00	 ret	 8
?routed_vehicle_movement_get_waypoint_position@@YGXPAUENTITY@@PAUVEC3D@@@Z ENDP ; routed_vehicle_movement_get_waypoint_position
_TEXT	ENDS
; Function compile flags: /Odtp /ZI
; File c:\users\nhv90\projects\eech\aphavoc\source\entity\mobile\vehicle\routed\rv_move.c
;	COMDAT ?routed_vehicle_falling_movement@@YGXPAUENTITY@@@Z
_TEXT	SEGMENT
tv563 = -156						; size = 4
tv477 = -156						; size = 4
tv405 = -152						; size = 4
tv385 = -152						; size = 4
tv356 = -152						; size = 4
tv302 = -152						; size = 4
tv282 = -152						; size = 4
tv245 = -152						; size = 4
tv216 = -152						; size = 4
tv180 = -152						; size = 4
tv135 = -152						; size = 4
tv79 = -152						; size = 4
tv533 = -148						; size = 4
tv397 = -148						; size = 4
tv377 = -148						; size = 4
tv316 = -148						; size = 4
tv294 = -148						; size = 4
tv274 = -148						; size = 4
tv237 = -148						; size = 4
tv208 = -148						; size = 4
tv172 = -148						; size = 4
tv95 = -148						; size = 4
tv71 = -148						; size = 4
_temp_pos$1 = -80					; size = 12
_d$2 = -68						; size = 12
_bounding_box$3 = -56					; size = 4
_temp_pos$4 = -52					; size = 12
_new_pos$ = -40						; size = 12
_velocity$ = -28					; size = 4
_pos$ = -24						; size = 4
_old_terrain_elevation$ = -20				; size = 4
_terrain_elevation$ = -16				; size = 4
_altitude$ = -12					; size = 4
_speed$ = -8						; size = 4
_raw$ = -4						; size = 4
_en$ = 8						; size = 4
?routed_vehicle_falling_movement@@YGXPAUENTITY@@@Z PROC	; routed_vehicle_falling_movement, COMDAT

; 520  : {

  00000	55		 push	 ebp
  00001	8b ec		 mov	 ebp, esp
  00003	81 ec 9c 00 00
	00		 sub	 esp, 156		; 0000009cH
  00009	53		 push	 ebx
  0000a	56		 push	 esi
  0000b	57		 push	 edi

; 521  : 
; 522  : 	routed_vehicle
; 523  : 		*raw;
; 524  : 
; 525  : 	float
; 526  : 		speed,
; 527  : 		altitude,
; 528  : 		terrain_elevation,
; 529  : 		old_terrain_elevation;
; 530  : 
; 531  : 	vec3d
; 532  : 		*pos,
; 533  : 		*velocity,
; 534  : 		new_pos;
; 535  : 
; 536  : 	raw = (routed_vehicle *) get_local_entity_data (en);

  0000c	8b 45 08	 mov	 eax, DWORD PTR _en$[ebp]
  0000f	8b 48 04	 mov	 ecx, DWORD PTR [eax+4]
  00012	89 4d fc	 mov	 DWORD PTR _raw$[ebp], ecx

; 537  : 
; 538  : 	//
; 539  : 	// get current position and velocity
; 540  : 	//
; 541  : 
; 542  : 	pos = get_local_entity_vec3d_ptr (en, VEC3D_TYPE_POSITION);

  00015	83 7d 08 00	 cmp	 DWORD PTR _en$[ebp], 0
  00019	74 0d		 je	 SHORT $LN10@routed_veh
  0001b	8b 45 08	 mov	 eax, DWORD PTR _en$[ebp]
  0001e	8b 08		 mov	 ecx, DWORD PTR [eax]
  00020	89 8d 6c ff ff
	ff		 mov	 DWORD PTR tv71[ebp], ecx
  00026	eb 24		 jmp	 SHORT $LN11@routed_veh
$LN10@routed_veh:
  00028	8b 15 00 00 00
	00		 mov	 edx, DWORD PTR ?__LINE__Var@?0??routed_vehicle_falling_movement@@YGXPAUENTITY@@@Z@4JA
  0002e	83 c2 16	 add	 edx, 22			; 00000016H
  00031	52		 push	 edx
  00032	68 00 00 00 00	 push	 OFFSET ??_C@_0FD@CFOFJMFL@c?3?2users?2nhv90?2projects?2eech?2ap@
  00037	a1 00 00 00 00	 mov	 eax, DWORD PTR ?null_entity_pointer_message@@3PBDB ; null_entity_pointer_message
  0003c	50		 push	 eax
  0003d	e8 00 00 00 00	 call	 ?process_assert@@YGXPBD0H@Z ; process_assert
  00042	c7 85 6c ff ff
	ff 00 00 00 00	 mov	 DWORD PTR tv71[ebp], 0
$LN11@routed_veh:
  0004c	b9 01 00 00 00	 mov	 ecx, 1
  00051	85 c9		 test	 ecx, ecx
  00053	74 0c		 je	 SHORT $LN12@routed_veh
  00055	c7 85 68 ff ff
	ff 08 00 00 00	 mov	 DWORD PTR tv79[ebp], 8
  0005f	eb 24		 jmp	 SHORT $LN13@routed_veh
$LN12@routed_veh:
  00061	8b 15 00 00 00
	00		 mov	 edx, DWORD PTR ?__LINE__Var@?0??routed_vehicle_falling_movement@@YGXPAUENTITY@@@Z@4JA
  00067	83 c2 16	 add	 edx, 22			; 00000016H
  0006a	52		 push	 edx
  0006b	68 00 00 00 00	 push	 OFFSET ??_C@_0FD@CFOFJMFL@c?3?2users?2nhv90?2projects?2eech?2ap@
  00070	a1 00 00 00 00	 mov	 eax, DWORD PTR ?overload_invalid_vec3d_type_message@@3PBDB ; overload_invalid_vec3d_type_message
  00075	50		 push	 eax
  00076	e8 00 00 00 00	 call	 ?process_assert@@YGXPBD0H@Z ; process_assert
  0007b	c7 85 68 ff ff
	ff 00 00 00 00	 mov	 DWORD PTR tv79[ebp], 0
$LN13@routed_veh:
  00085	6a 08		 push	 8
  00087	8b 4d 08	 mov	 ecx, DWORD PTR _en$[ebp]
  0008a	51		 push	 ecx
  0008b	6b 95 6c ff ff
	ff 60		 imul	 edx, DWORD PTR tv71[ebp], 96
  00092	8b 85 68 ff ff
	ff		 mov	 eax, DWORD PTR tv79[ebp]
  00098	8b 8c 82 00 00
	00 00		 mov	 ecx, DWORD PTR ?fn_get_local_entity_vec3d_ptr@@3PAY0BI@P6GPAUVEC3D@@PAUENTITY@@W4VEC3D_TYPES@@@ZA[edx+eax*4]
  0009f	ff d1		 call	 ecx
  000a1	89 45 e8	 mov	 DWORD PTR _pos$[ebp], eax

; 543  : 
; 544  : 	old_terrain_elevation = get_3d_terrain_point_data_elevation (&raw->vh.terrain_info);

  000a4	8b 45 fc	 mov	 eax, DWORD PTR _raw$[ebp]
  000a7	05 4c 01 00 00	 add	 eax, 332		; 0000014cH
  000ac	50		 push	 eax
  000ad	e8 00 00 00 00	 call	 ?get_3d_terrain_point_data_elevation@@YGMPAUTERRAIN_3D_POINT_DATA@@@Z ; get_3d_terrain_point_data_elevation
  000b2	d9 5d ec	 fstp	 DWORD PTR _old_terrain_elevation$[ebp]

; 545  : 
; 546  : 	velocity = get_local_entity_vec3d_ptr (en, VEC3D_TYPE_MOTION_VECTOR);

  000b5	83 7d 08 00	 cmp	 DWORD PTR _en$[ebp], 0
  000b9	74 0d		 je	 SHORT $LN14@routed_veh
  000bb	8b 45 08	 mov	 eax, DWORD PTR _en$[ebp]
  000be	8b 08		 mov	 ecx, DWORD PTR [eax]
  000c0	89 8d 6c ff ff
	ff		 mov	 DWORD PTR tv95[ebp], ecx
  000c6	eb 24		 jmp	 SHORT $LN15@routed_veh
$LN14@routed_veh:
  000c8	8b 15 00 00 00
	00		 mov	 edx, DWORD PTR ?__LINE__Var@?0??routed_vehicle_falling_movement@@YGXPAUENTITY@@@Z@4JA
  000ce	83 c2 1a	 add	 edx, 26			; 0000001aH
  000d1	52		 push	 edx
  000d2	68 00 00 00 00	 push	 OFFSET ??_C@_0FD@CFOFJMFL@c?3?2users?2nhv90?2projects?2eech?2ap@
  000d7	a1 00 00 00 00	 mov	 eax, DWORD PTR ?null_entity_pointer_message@@3PBDB ; null_entity_pointer_message
  000dc	50		 push	 eax
  000dd	e8 00 00 00 00	 call	 ?process_assert@@YGXPBD0H@Z ; process_assert
  000e2	c7 85 6c ff ff
	ff 00 00 00 00	 mov	 DWORD PTR tv95[ebp], 0
$LN15@routed_veh:
  000ec	b9 01 00 00 00	 mov	 ecx, 1
  000f1	85 c9		 test	 ecx, ecx
  000f3	74 0c		 je	 SHORT $LN16@routed_veh
  000f5	c7 85 68 ff ff
	ff 06 00 00 00	 mov	 DWORD PTR tv135[ebp], 6
  000ff	eb 24		 jmp	 SHORT $LN17@routed_veh
$LN16@routed_veh:
  00101	8b 15 00 00 00
	00		 mov	 edx, DWORD PTR ?__LINE__Var@?0??routed_vehicle_falling_movement@@YGXPAUENTITY@@@Z@4JA
  00107	83 c2 1a	 add	 edx, 26			; 0000001aH
  0010a	52		 push	 edx
  0010b	68 00 00 00 00	 push	 OFFSET ??_C@_0FD@CFOFJMFL@c?3?2users?2nhv90?2projects?2eech?2ap@
  00110	a1 00 00 00 00	 mov	 eax, DWORD PTR ?overload_invalid_vec3d_type_message@@3PBDB ; overload_invalid_vec3d_type_message
  00115	50		 push	 eax
  00116	e8 00 00 00 00	 call	 ?process_assert@@YGXPBD0H@Z ; process_assert
  0011b	c7 85 68 ff ff
	ff 00 00 00 00	 mov	 DWORD PTR tv135[ebp], 0
$LN17@routed_veh:
  00125	6a 06		 push	 6
  00127	8b 4d 08	 mov	 ecx, DWORD PTR _en$[ebp]
  0012a	51		 push	 ecx
  0012b	6b 95 6c ff ff
	ff 60		 imul	 edx, DWORD PTR tv95[ebp], 96
  00132	8b 85 68 ff ff
	ff		 mov	 eax, DWORD PTR tv135[ebp]
  00138	8b 8c 82 00 00
	00 00		 mov	 ecx, DWORD PTR ?fn_get_local_entity_vec3d_ptr@@3PAY0BI@P6GPAUVEC3D@@PAUENTITY@@W4VEC3D_TYPES@@@ZA[edx+eax*4]
  0013f	ff d1		 call	 ecx
  00141	89 45 e4	 mov	 DWORD PTR _velocity$[ebp], eax

; 547  : 
; 548  : 	new_pos.x = pos->x + (velocity->x * get_entity_movement_delta_time());

  00144	8b 45 e4	 mov	 eax, DWORD PTR _velocity$[ebp]
  00147	f3 0f 10 00	 movss	 xmm0, DWORD PTR [eax]
  0014b	f3 0f 59 05 00
	00 00 00	 mulss	 xmm0, DWORD PTR ?system_delta_time@@3MA
  00153	8b 4d e8	 mov	 ecx, DWORD PTR _pos$[ebp]
  00156	f3 0f 58 01	 addss	 xmm0, DWORD PTR [ecx]
  0015a	f3 0f 11 45 d8	 movss	 DWORD PTR _new_pos$[ebp], xmm0

; 549  : 	new_pos.y = pos->y + (velocity->y * get_entity_movement_delta_time());

  0015f	8b 45 e4	 mov	 eax, DWORD PTR _velocity$[ebp]
  00162	f3 0f 10 40 04	 movss	 xmm0, DWORD PTR [eax+4]
  00167	f3 0f 59 05 00
	00 00 00	 mulss	 xmm0, DWORD PTR ?system_delta_time@@3MA
  0016f	8b 4d e8	 mov	 ecx, DWORD PTR _pos$[ebp]
  00172	f3 0f 58 41 04	 addss	 xmm0, DWORD PTR [ecx+4]
  00177	f3 0f 11 45 dc	 movss	 DWORD PTR _new_pos$[ebp+4], xmm0

; 550  : 	new_pos.z = pos->z + (velocity->z * get_entity_movement_delta_time());

  0017c	8b 45 e4	 mov	 eax, DWORD PTR _velocity$[ebp]
  0017f	f3 0f 10 40 08	 movss	 xmm0, DWORD PTR [eax+8]
  00184	f3 0f 59 05 00
	00 00 00	 mulss	 xmm0, DWORD PTR ?system_delta_time@@3MA
  0018c	8b 4d e8	 mov	 ecx, DWORD PTR _pos$[ebp]
  0018f	f3 0f 58 41 08	 addss	 xmm0, DWORD PTR [ecx+8]
  00194	f3 0f 11 45 e0	 movss	 DWORD PTR _new_pos$[ebp+8], xmm0

; 551  : 
; 552  : 	get_3d_terrain_point_data (new_pos.x, new_pos.z, &raw->vh.terrain_info);

  00199	8b 45 fc	 mov	 eax, DWORD PTR _raw$[ebp]
  0019c	05 4c 01 00 00	 add	 eax, 332		; 0000014cH
  001a1	50		 push	 eax
  001a2	51		 push	 ecx
  001a3	f3 0f 10 45 e0	 movss	 xmm0, DWORD PTR _new_pos$[ebp+8]
  001a8	f3 0f 11 04 24	 movss	 DWORD PTR [esp], xmm0
  001ad	51		 push	 ecx
  001ae	f3 0f 10 45 d8	 movss	 xmm0, DWORD PTR _new_pos$[ebp]
  001b3	f3 0f 11 04 24	 movss	 DWORD PTR [esp], xmm0
  001b8	e8 00 00 00 00	 call	 ?get_3d_terrain_point_data@@YGMMMPAUTERRAIN_3D_POINT_DATA@@@Z ; get_3d_terrain_point_data
  001bd	dd d8		 fstp	 ST(0)

; 553  : 
; 554  : 	//
; 555  : 	// update velocity
; 556  : 	//
; 557  : 
; 558  : 	velocity->y -= (G * get_entity_movement_delta_time());

  001bf	f3 0f 10 05 00
	00 00 00	 movss	 xmm0, DWORD PTR __real@411cf5c3
  001c7	f3 0f 59 05 00
	00 00 00	 mulss	 xmm0, DWORD PTR ?system_delta_time@@3MA
  001cf	8b 45 e4	 mov	 eax, DWORD PTR _velocity$[ebp]
  001d2	f3 0f 10 48 04	 movss	 xmm1, DWORD PTR [eax+4]
  001d7	f3 0f 5c c8	 subss	 xmm1, xmm0
  001db	8b 4d e4	 mov	 ecx, DWORD PTR _velocity$[ebp]
  001de	f3 0f 11 49 04	 movss	 DWORD PTR [ecx+4], xmm1

; 559  : 
; 560  : 	//
; 561  : 	// check if vehicle has hit the floor
; 562  : 	//
; 563  : 
; 564  : 	terrain_elevation = get_3d_terrain_point_data_elevation (&raw->vh.terrain_info);

  001e3	8b 45 fc	 mov	 eax, DWORD PTR _raw$[ebp]
  001e6	05 4c 01 00 00	 add	 eax, 332		; 0000014cH
  001eb	50		 push	 eax
  001ec	e8 00 00 00 00	 call	 ?get_3d_terrain_point_data_elevation@@YGMPAUTERRAIN_3D_POINT_DATA@@@Z ; get_3d_terrain_point_data_elevation
  001f1	d9 5d f0	 fstp	 DWORD PTR _terrain_elevation$[ebp]

; 565  : 
; 566  : 	altitude = new_pos.y - (terrain_elevation + get_local_entity_float_value (en, FLOAT_TYPE_CENTRE_OF_GRAVITY_TO_GROUND_DISTANCE));

  001f4	83 7d 08 00	 cmp	 DWORD PTR _en$[ebp], 0
  001f8	74 0d		 je	 SHORT $LN18@routed_veh
  001fa	8b 45 08	 mov	 eax, DWORD PTR _en$[ebp]
  001fd	8b 08		 mov	 ecx, DWORD PTR [eax]
  001ff	89 8d 6c ff ff
	ff		 mov	 DWORD PTR tv172[ebp], ecx
  00205	eb 24		 jmp	 SHORT $LN19@routed_veh
$LN18@routed_veh:
  00207	8b 15 00 00 00
	00		 mov	 edx, DWORD PTR ?__LINE__Var@?0??routed_vehicle_falling_movement@@YGXPAUENTITY@@@Z@4JA
  0020d	83 c2 2e	 add	 edx, 46			; 0000002eH
  00210	52		 push	 edx
  00211	68 00 00 00 00	 push	 OFFSET ??_C@_0FD@CFOFJMFL@c?3?2users?2nhv90?2projects?2eech?2ap@
  00216	a1 00 00 00 00	 mov	 eax, DWORD PTR ?null_entity_pointer_message@@3PBDB ; null_entity_pointer_message
  0021b	50		 push	 eax
  0021c	e8 00 00 00 00	 call	 ?process_assert@@YGXPBD0H@Z ; process_assert
  00221	c7 85 6c ff ff
	ff 00 00 00 00	 mov	 DWORD PTR tv172[ebp], 0
$LN19@routed_veh:
  0022b	b9 01 00 00 00	 mov	 ecx, 1
  00230	85 c9		 test	 ecx, ecx
  00232	74 0c		 je	 SHORT $LN20@routed_veh
  00234	c7 85 68 ff ff
	ff 12 00 00 00	 mov	 DWORD PTR tv180[ebp], 18 ; 00000012H
  0023e	eb 24		 jmp	 SHORT $LN21@routed_veh
$LN20@routed_veh:
  00240	8b 15 00 00 00
	00		 mov	 edx, DWORD PTR ?__LINE__Var@?0??routed_vehicle_falling_movement@@YGXPAUENTITY@@@Z@4JA
  00246	83 c2 2e	 add	 edx, 46			; 0000002eH
  00249	52		 push	 edx
  0024a	68 00 00 00 00	 push	 OFFSET ??_C@_0FD@CFOFJMFL@c?3?2users?2nhv90?2projects?2eech?2ap@
  0024f	a1 00 00 00 00	 mov	 eax, DWORD PTR ?overload_invalid_float_type_message@@3PBDB ; overload_invalid_float_type_message
  00254	50		 push	 eax
  00255	e8 00 00 00 00	 call	 ?process_assert@@YGXPBD0H@Z ; process_assert
  0025a	c7 85 68 ff ff
	ff 00 00 00 00	 mov	 DWORD PTR tv180[ebp], 0
$LN21@routed_veh:
  00264	6a 12		 push	 18			; 00000012H
  00266	8b 4d 08	 mov	 ecx, DWORD PTR _en$[ebp]
  00269	51		 push	 ecx
  0026a	69 95 6c ff ff
	ff bc 02 00 00	 imul	 edx, DWORD PTR tv172[ebp], 700
  00274	8b 85 68 ff ff
	ff		 mov	 eax, DWORD PTR tv180[ebp]
  0027a	8b 8c 82 00 00
	00 00		 mov	 ecx, DWORD PTR ?fn_get_local_entity_float_value@@3PAY0KP@P6GMPAUENTITY@@W4FLOAT_TYPES@@@ZA[edx+eax*4]
  00281	ff d1		 call	 ecx
  00283	d9 9d 64 ff ff
	ff		 fstp	 DWORD PTR tv477[ebp]
  00289	f3 0f 10 85 64
	ff ff ff	 movss	 xmm0, DWORD PTR tv477[ebp]
  00291	f3 0f 58 45 f0	 addss	 xmm0, DWORD PTR _terrain_elevation$[ebp]
  00296	f3 0f 10 4d dc	 movss	 xmm1, DWORD PTR _new_pos$[ebp+4]
  0029b	f3 0f 5c c8	 subss	 xmm1, xmm0
  0029f	f3 0f 11 4d f4	 movss	 DWORD PTR _altitude$[ebp], xmm1

; 567  : 
; 568  : 	if (altitude <= 0.0)

  002a4	f3 0f 5a 45 f4	 cvtss2sd xmm0, DWORD PTR _altitude$[ebp]
  002a9	0f 57 c9	 xorps	 xmm1, xmm1
  002ac	66 0f 2f c8	 comisd	 xmm1, xmm0
  002b0	0f 82 71 04 00
	00		 jb	 $LN4@routed_veh

; 569  : 	{
; 570  : 		//
; 571  : 		// no lateral movement below ground
; 572  : 		//
; 573  : 
; 574  : 		new_pos.x = pos->x;

  002b6	8b 45 e8	 mov	 eax, DWORD PTR _pos$[ebp]
  002b9	f3 0f 10 00	 movss	 xmm0, DWORD PTR [eax]
  002bd	f3 0f 11 45 d8	 movss	 DWORD PTR _new_pos$[ebp], xmm0

; 575  : 		new_pos.z = pos->z;

  002c2	8b 45 e8	 mov	 eax, DWORD PTR _pos$[ebp]
  002c5	f3 0f 10 40 08	 movss	 xmm0, DWORD PTR [eax+8]
  002ca	f3 0f 11 45 e0	 movss	 DWORD PTR _new_pos$[ebp+8], xmm0

; 576  : 
; 577  : 		if (get_terrain_type_class (get_3d_terrain_point_data_type (&raw->vh.terrain_info)) == TERRAIN_CLASS_WATER)

  002cf	8b 45 fc	 mov	 eax, DWORD PTR _raw$[ebp]
  002d2	05 4c 01 00 00	 add	 eax, 332		; 0000014cH
  002d7	50		 push	 eax
  002d8	e8 00 00 00 00	 call	 ?get_3d_terrain_point_data_type@@YGHPAUTERRAIN_3D_POINT_DATA@@@Z ; get_3d_terrain_point_data_type
  002dd	50		 push	 eax
  002de	e8 00 00 00 00	 call	 ?get_terrain_type_class@@YG?AW4TERRAIN_CLASSES@@H@Z ; get_terrain_type_class
  002e3	83 f8 01	 cmp	 eax, 1
  002e6	0f 85 aa 02 00
	00		 jne	 $LN3@routed_veh

; 578  : 		{
; 579  : 			//////////////////////////////////////////
; 580  : 			//
; 581  : 			// VEHICLE IS BELOW GROUND AND IN WATER
; 582  : 			//
; 583  : 			//////////////////////////////////////////
; 584  : 
; 585  : 			if (pos->y > old_terrain_elevation)

  002ec	8b 45 e8	 mov	 eax, DWORD PTR _pos$[ebp]
  002ef	f3 0f 10 40 04	 movss	 xmm0, DWORD PTR [eax+4]
  002f4	0f 2f 45 ec	 comiss	 xmm0, DWORD PTR _old_terrain_elevation$[ebp]
  002f8	0f 86 de 00 00
	00		 jbe	 $LN5@routed_veh

; 586  : 			{
; 587  : 				//
; 588  : 				// vehicle has hit the water this frame - create a "splash"
; 589  : 				//
; 590  : 
; 591  : 				if (get_comms_model() == COMMS_MODEL_SERVER)

  002fe	83 3d 00 00 00
	00 00		 cmp	 DWORD PTR ?system_comms_model@@3W4COMMS_MODEL_TYPES@@A, 0 ; system_comms_model
  00305	0f 85 c6 00 00
	00		 jne	 $LN6@routed_veh

; 592  : 				{
; 593  : 					vec3d
; 594  : 						temp_pos;
; 595  : 
; 596  : 					temp_pos.x = new_pos.x;

  0030b	f3 0f 10 45 d8	 movss	 xmm0, DWORD PTR _new_pos$[ebp]
  00310	f3 0f 11 45 cc	 movss	 DWORD PTR _temp_pos$4[ebp], xmm0

; 597  : 					temp_pos.y = terrain_elevation;

  00315	f3 0f 10 45 f0	 movss	 xmm0, DWORD PTR _terrain_elevation$[ebp]
  0031a	f3 0f 11 45 d0	 movss	 DWORD PTR _temp_pos$4[ebp+4], xmm0

; 598  : 					temp_pos.z = new_pos.z;

  0031f	f3 0f 10 45 e0	 movss	 xmm0, DWORD PTR _new_pos$[ebp+8]
  00324	f3 0f 11 45 d4	 movss	 DWORD PTR _temp_pos$4[ebp+8], xmm0

; 599  : 
; 600  : 					set_local_entity_vec3d (en, VEC3D_TYPE_POSITION, &temp_pos);

  00329	83 7d 08 00	 cmp	 DWORD PTR _en$[ebp], 0
  0032d	74 0d		 je	 SHORT $LN22@routed_veh
  0032f	8b 45 08	 mov	 eax, DWORD PTR _en$[ebp]
  00332	8b 08		 mov	 ecx, DWORD PTR [eax]
  00334	89 8d 6c ff ff
	ff		 mov	 DWORD PTR tv208[ebp], ecx
  0033a	eb 24		 jmp	 SHORT $LN23@routed_veh
$LN22@routed_veh:
  0033c	8b 15 00 00 00
	00		 mov	 edx, DWORD PTR ?__LINE__Var@?0??routed_vehicle_falling_movement@@YGXPAUENTITY@@@Z@4JA
  00342	83 c2 50	 add	 edx, 80			; 00000050H
  00345	52		 push	 edx
  00346	68 00 00 00 00	 push	 OFFSET ??_C@_0FD@CFOFJMFL@c?3?2users?2nhv90?2projects?2eech?2ap@
  0034b	a1 00 00 00 00	 mov	 eax, DWORD PTR ?null_entity_pointer_message@@3PBDB ; null_entity_pointer_message
  00350	50		 push	 eax
  00351	e8 00 00 00 00	 call	 ?process_assert@@YGXPBD0H@Z ; process_assert
  00356	c7 85 6c ff ff
	ff 00 00 00 00	 mov	 DWORD PTR tv208[ebp], 0
$LN23@routed_veh:
  00360	b9 01 00 00 00	 mov	 ecx, 1
  00365	85 c9		 test	 ecx, ecx
  00367	74 0c		 je	 SHORT $LN24@routed_veh
  00369	c7 85 68 ff ff
	ff 08 00 00 00	 mov	 DWORD PTR tv216[ebp], 8
  00373	eb 24		 jmp	 SHORT $LN25@routed_veh
$LN24@routed_veh:
  00375	8b 15 00 00 00
	00		 mov	 edx, DWORD PTR ?__LINE__Var@?0??routed_vehicle_falling_movement@@YGXPAUENTITY@@@Z@4JA
  0037b	83 c2 50	 add	 edx, 80			; 00000050H
  0037e	52		 push	 edx
  0037f	68 00 00 00 00	 push	 OFFSET ??_C@_0FD@CFOFJMFL@c?3?2users?2nhv90?2projects?2eech?2ap@
  00384	a1 00 00 00 00	 mov	 eax, DWORD PTR ?overload_invalid_vec3d_type_message@@3PBDB ; overload_invalid_vec3d_type_message
  00389	50		 push	 eax
  0038a	e8 00 00 00 00	 call	 ?process_assert@@YGXPBD0H@Z ; process_assert
  0038f	c7 85 68 ff ff
	ff 00 00 00 00	 mov	 DWORD PTR tv216[ebp], 0
$LN25@routed_veh:
  00399	8d 4d cc	 lea	 ecx, DWORD PTR _temp_pos$4[ebp]
  0039c	51		 push	 ecx
  0039d	6a 08		 push	 8
  0039f	8b 55 08	 mov	 edx, DWORD PTR _en$[ebp]
  003a2	52		 push	 edx
  003a3	6b 85 6c ff ff
	ff 60		 imul	 eax, DWORD PTR tv208[ebp], 96
  003aa	8b 8d 68 ff ff
	ff		 mov	 ecx, DWORD PTR tv216[ebp]
  003b0	8b 94 88 00 00
	00 00		 mov	 edx, DWORD PTR ?fn_set_local_entity_vec3d@@3PAY0BI@P6GXPAUENTITY@@W4VEC3D_TYPES@@PAUVEC3D@@@ZA[eax+ecx*4]
  003b7	ff d2		 call	 edx

; 601  : 
; 602  : 					create_client_server_object_hit_ground_explosion_effect (en, get_3d_terrain_point_data_type (&raw->vh.terrain_info));

  003b9	8b 45 fc	 mov	 eax, DWORD PTR _raw$[ebp]
  003bc	05 4c 01 00 00	 add	 eax, 332		; 0000014cH
  003c1	50		 push	 eax
  003c2	e8 00 00 00 00	 call	 ?get_3d_terrain_point_data_type@@YGHPAUTERRAIN_3D_POINT_DATA@@@Z ; get_3d_terrain_point_data_type
  003c7	50		 push	 eax
  003c8	8b 4d 08	 mov	 ecx, DWORD PTR _en$[ebp]
  003cb	51		 push	 ecx
  003cc	e8 00 00 00 00	 call	 ?create_client_server_object_hit_ground_explosion_effect@@YGXPAUENTITY@@H@Z ; create_client_server_object_hit_ground_explosion_effect
$LN6@routed_veh:

; 603  : 				}
; 604  : 
; 605  : 				//
; 606  : 				// also kill any fires that may be burning
; 607  : 				//
; 608  : 
; 609  : 				clear_smoke_list_generator_lifetime (en, ENTITY_SUB_TYPE_EFFECT_SMOKE_LIST_FIRE);

  003d1	6a 04		 push	 4
  003d3	8b 45 08	 mov	 eax, DWORD PTR _en$[ebp]
  003d6	50		 push	 eax
  003d7	e8 00 00 00 00	 call	 ?clear_smoke_list_generator_lifetime@@YGHPAUENTITY@@H@Z ; clear_smoke_list_generator_lifetime
$LN5@routed_veh:

; 610  : 			}
; 611  : 
; 612  : 			{
; 613  : 				//
; 614  : 				// make vehicle sink until it is no longer visible
; 615  : 				//
; 616  : 
; 617  : 				struct OBJECT_3D_BOUNDS
; 618  : 					*bounding_box;
; 619  : 
; 620  : 				vec3d
; 621  : 					d;
; 622  : 
; 623  : 				bounding_box = get_object_3d_bounding_box (get_local_entity_int_value (en, INT_TYPE_OBJECT_3D_SHAPE));

  003dc	83 7d 08 00	 cmp	 DWORD PTR _en$[ebp], 0
  003e0	74 0d		 je	 SHORT $LN26@routed_veh
  003e2	8b 45 08	 mov	 eax, DWORD PTR _en$[ebp]
  003e5	8b 08		 mov	 ecx, DWORD PTR [eax]
  003e7	89 8d 6c ff ff
	ff		 mov	 DWORD PTR tv237[ebp], ecx
  003ed	eb 24		 jmp	 SHORT $LN27@routed_veh
$LN26@routed_veh:
  003ef	8b 15 00 00 00
	00		 mov	 edx, DWORD PTR ?__LINE__Var@?0??routed_vehicle_falling_movement@@YGXPAUENTITY@@@Z@4JA
  003f5	83 c2 67	 add	 edx, 103		; 00000067H
  003f8	52		 push	 edx
  003f9	68 00 00 00 00	 push	 OFFSET ??_C@_0FD@CFOFJMFL@c?3?2users?2nhv90?2projects?2eech?2ap@
  003fe	a1 00 00 00 00	 mov	 eax, DWORD PTR ?null_entity_pointer_message@@3PBDB ; null_entity_pointer_message
  00403	50		 push	 eax
  00404	e8 00 00 00 00	 call	 ?process_assert@@YGXPBD0H@Z ; process_assert
  00409	c7 85 6c ff ff
	ff 00 00 00 00	 mov	 DWORD PTR tv237[ebp], 0
$LN27@routed_veh:
  00413	b9 01 00 00 00	 mov	 ecx, 1
  00418	85 c9		 test	 ecx, ecx
  0041a	74 0c		 je	 SHORT $LN28@routed_veh
  0041c	c7 85 68 ff ff
	ff 92 00 00 00	 mov	 DWORD PTR tv245[ebp], 146 ; 00000092H
  00426	eb 24		 jmp	 SHORT $LN29@routed_veh
$LN28@routed_veh:
  00428	8b 15 00 00 00
	00		 mov	 edx, DWORD PTR ?__LINE__Var@?0??routed_vehicle_falling_movement@@YGXPAUENTITY@@@Z@4JA
  0042e	83 c2 67	 add	 edx, 103		; 00000067H
  00431	52		 push	 edx
  00432	68 00 00 00 00	 push	 OFFSET ??_C@_0FD@CFOFJMFL@c?3?2users?2nhv90?2projects?2eech?2ap@
  00437	a1 00 00 00 00	 mov	 eax, DWORD PTR ?overload_invalid_int_type_message@@3PBDB ; overload_invalid_int_type_message
  0043c	50		 push	 eax
  0043d	e8 00 00 00 00	 call	 ?process_assert@@YGXPBD0H@Z ; process_assert
  00442	c7 85 68 ff ff
	ff 00 00 00 00	 mov	 DWORD PTR tv245[ebp], 0
$LN29@routed_veh:
  0044c	68 92 00 00 00	 push	 146			; 00000092H
  00451	8b 4d 08	 mov	 ecx, DWORD PTR _en$[ebp]
  00454	51		 push	 ecx
  00455	69 95 6c ff ff
	ff 5c 04 00 00	 imul	 edx, DWORD PTR tv237[ebp], 1116
  0045f	8b 85 68 ff ff
	ff		 mov	 eax, DWORD PTR tv245[ebp]
  00465	8b 8c 82 00 00
	00 00		 mov	 ecx, DWORD PTR ?fn_get_local_entity_int_value@@3PAY0BBH@P6GHPAUENTITY@@W4INT_TYPES@@@ZA[edx+eax*4]
  0046c	ff d1		 call	 ecx
  0046e	50		 push	 eax
  0046f	e8 00 00 00 00	 call	 ?get_object_3d_bounding_box@@YGPAUOBJECT_3D_BOUNDS@@H@Z ; get_object_3d_bounding_box
  00474	89 45 c8	 mov	 DWORD PTR _bounding_box$3[ebp], eax

; 624  : 
; 625  : 				d.x = bounding_box->xmax - bounding_box->xmin;

  00477	8b 45 c8	 mov	 eax, DWORD PTR _bounding_box$3[ebp]
  0047a	8b 4d c8	 mov	 ecx, DWORD PTR _bounding_box$3[ebp]
  0047d	f3 0f 10 40 04	 movss	 xmm0, DWORD PTR [eax+4]
  00482	f3 0f 5c 01	 subss	 xmm0, DWORD PTR [ecx]
  00486	f3 0f 11 45 bc	 movss	 DWORD PTR _d$2[ebp], xmm0

; 626  : 				d.y = bounding_box->ymax - bounding_box->ymin;

  0048b	8b 45 c8	 mov	 eax, DWORD PTR _bounding_box$3[ebp]
  0048e	8b 4d c8	 mov	 ecx, DWORD PTR _bounding_box$3[ebp]
  00491	f3 0f 10 40 0c	 movss	 xmm0, DWORD PTR [eax+12]
  00496	f3 0f 5c 41 08	 subss	 xmm0, DWORD PTR [ecx+8]
  0049b	f3 0f 11 45 c0	 movss	 DWORD PTR _d$2[ebp+4], xmm0

; 627  : 				d.z = bounding_box->zmax - bounding_box->zmin;

  004a0	8b 45 c8	 mov	 eax, DWORD PTR _bounding_box$3[ebp]
  004a3	8b 4d c8	 mov	 ecx, DWORD PTR _bounding_box$3[ebp]
  004a6	f3 0f 10 40 14	 movss	 xmm0, DWORD PTR [eax+20]
  004ab	f3 0f 5c 41 10	 subss	 xmm0, DWORD PTR [ecx+16]
  004b0	f3 0f 11 45 c4	 movss	 DWORD PTR _d$2[ebp+8], xmm0

; 628  : 
; 629  : 				if (altitude < -get_3d_vector_magnitude (&d))

  004b5	8d 45 bc	 lea	 eax, DWORD PTR _d$2[ebp]
  004b8	50		 push	 eax
  004b9	e8 00 00 00 00	 call	 ?get_3d_vector_magnitude@@YGMPBUVEC3D@@@Z ; get_3d_vector_magnitude
  004be	d9 9d 6c ff ff
	ff		 fstp	 DWORD PTR tv533[ebp]
  004c4	f3 0f 10 85 6c
	ff ff ff	 movss	 xmm0, DWORD PTR tv533[ebp]
  004cc	0f 57 05 00 00
	00 00		 xorps	 xmm0, DWORD PTR __xmm@80000000800000008000000080000000
  004d3	0f 2f 45 f4	 comiss	 xmm0, DWORD PTR _altitude$[ebp]
  004d7	0f 86 b4 00 00
	00		 jbe	 $LN7@routed_veh

; 630  : 				{
; 631  : 					//
; 632  : 					// vehicle is no longer visible
; 633  : 					//
; 634  : 
; 635  : 					velocity->x = 0.0;

  004dd	8b 45 e4	 mov	 eax, DWORD PTR _velocity$[ebp]
  004e0	0f 57 c0	 xorps	 xmm0, xmm0
  004e3	f3 0f 11 00	 movss	 DWORD PTR [eax], xmm0

; 636  : 					velocity->y = 0.0;

  004e7	8b 45 e4	 mov	 eax, DWORD PTR _velocity$[ebp]
  004ea	0f 57 c0	 xorps	 xmm0, xmm0
  004ed	f3 0f 11 40 04	 movss	 DWORD PTR [eax+4], xmm0

; 637  : 					velocity->z = 0.0;

  004f2	8b 45 e4	 mov	 eax, DWORD PTR _velocity$[ebp]
  004f5	0f 57 c0	 xorps	 xmm0, xmm0
  004f8	f3 0f 11 40 08	 movss	 DWORD PTR [eax+8], xmm0

; 638  : 
; 639  : //					delete_local_entity_from_parents_child_list (en, LIST_TYPE_VIEW);
; 640  : 
; 641  : 					set_local_entity_int_value (en, INT_TYPE_OPERATIONAL_STATE, OPERATIONAL_STATE_DEAD);

  004fd	83 7d 08 00	 cmp	 DWORD PTR _en$[ebp], 0
  00501	74 0d		 je	 SHORT $LN30@routed_veh
  00503	8b 45 08	 mov	 eax, DWORD PTR _en$[ebp]
  00506	8b 08		 mov	 ecx, DWORD PTR [eax]
  00508	89 8d 6c ff ff
	ff		 mov	 DWORD PTR tv274[ebp], ecx
  0050e	eb 24		 jmp	 SHORT $LN31@routed_veh
$LN30@routed_veh:
  00510	8b 15 00 00 00
	00		 mov	 edx, DWORD PTR ?__LINE__Var@?0??routed_vehicle_falling_movement@@YGXPAUENTITY@@@Z@4JA
  00516	83 c2 79	 add	 edx, 121		; 00000079H
  00519	52		 push	 edx
  0051a	68 00 00 00 00	 push	 OFFSET ??_C@_0FD@CFOFJMFL@c?3?2users?2nhv90?2projects?2eech?2ap@
  0051f	a1 00 00 00 00	 mov	 eax, DWORD PTR ?null_entity_pointer_message@@3PBDB ; null_entity_pointer_message
  00524	50		 push	 eax
  00525	e8 00 00 00 00	 call	 ?process_assert@@YGXPBD0H@Z ; process_assert
  0052a	c7 85 6c ff ff
	ff 00 00 00 00	 mov	 DWORD PTR tv274[ebp], 0
$LN31@routed_veh:
  00534	b9 01 00 00 00	 mov	 ecx, 1
  00539	85 c9		 test	 ecx, ecx
  0053b	74 0c		 je	 SHORT $LN32@routed_veh
  0053d	c7 85 68 ff ff
	ff 97 00 00 00	 mov	 DWORD PTR tv282[ebp], 151 ; 00000097H
  00547	eb 24		 jmp	 SHORT $LN33@routed_veh
$LN32@routed_veh:
  00549	8b 15 00 00 00
	00		 mov	 edx, DWORD PTR ?__LINE__Var@?0??routed_vehicle_falling_movement@@YGXPAUENTITY@@@Z@4JA
  0054f	83 c2 79	 add	 edx, 121		; 00000079H
  00552	52		 push	 edx
  00553	68 00 00 00 00	 push	 OFFSET ??_C@_0FD@CFOFJMFL@c?3?2users?2nhv90?2projects?2eech?2ap@
  00558	a1 00 00 00 00	 mov	 eax, DWORD PTR ?overload_invalid_int_type_message@@3PBDB ; overload_invalid_int_type_message
  0055d	50		 push	 eax
  0055e	e8 00 00 00 00	 call	 ?process_assert@@YGXPBD0H@Z ; process_assert
  00563	c7 85 68 ff ff
	ff 00 00 00 00	 mov	 DWORD PTR tv282[ebp], 0
$LN33@routed_veh:
  0056d	6a 02		 push	 2
  0056f	68 97 00 00 00	 push	 151			; 00000097H
  00574	8b 4d 08	 mov	 ecx, DWORD PTR _en$[ebp]
  00577	51		 push	 ecx
  00578	69 95 6c ff ff
	ff 5c 04 00 00	 imul	 edx, DWORD PTR tv274[ebp], 1116
  00582	8b 85 68 ff ff
	ff		 mov	 eax, DWORD PTR tv282[ebp]
  00588	8b 8c 82 00 00
	00 00		 mov	 ecx, DWORD PTR ?fn_set_local_entity_int_value@@3PAY0BBH@P6GXPAUENTITY@@W4INT_TYPES@@H@ZA[edx+eax*4]
  0058f	ff d1		 call	 ecx
$LN7@routed_veh:

; 642  : 				}
; 643  : 			}
; 644  : 		}
; 645  : 		else

  00591	e9 91 01 00 00	 jmp	 $LN4@routed_veh
$LN3@routed_veh:

; 646  : 		{
; 647  : 			//////////////////////////////////////////
; 648  : 			//
; 649  : 			// VEHICLE HAS HIT SOLID GROUND
; 650  : 			//
; 651  : 			//////////////////////////////////////////
; 652  : 
; 653  : 			new_pos.y = terrain_elevation + get_local_entity_float_value (en, FLOAT_TYPE_CENTRE_OF_GRAVITY_TO_GROUND_DISTANCE);

  00596	83 7d 08 00	 cmp	 DWORD PTR _en$[ebp], 0
  0059a	74 0d		 je	 SHORT $LN34@routed_veh
  0059c	8b 45 08	 mov	 eax, DWORD PTR _en$[ebp]
  0059f	8b 08		 mov	 ecx, DWORD PTR [eax]
  005a1	89 8d 6c ff ff
	ff		 mov	 DWORD PTR tv294[ebp], ecx
  005a7	eb 27		 jmp	 SHORT $LN35@routed_veh
$LN34@routed_veh:
  005a9	8b 15 00 00 00
	00		 mov	 edx, DWORD PTR ?__LINE__Var@?0??routed_vehicle_falling_movement@@YGXPAUENTITY@@@Z@4JA
  005af	81 c2 85 00 00
	00		 add	 edx, 133		; 00000085H
  005b5	52		 push	 edx
  005b6	68 00 00 00 00	 push	 OFFSET ??_C@_0FD@CFOFJMFL@c?3?2users?2nhv90?2projects?2eech?2ap@
  005bb	a1 00 00 00 00	 mov	 eax, DWORD PTR ?null_entity_pointer_message@@3PBDB ; null_entity_pointer_message
  005c0	50		 push	 eax
  005c1	e8 00 00 00 00	 call	 ?process_assert@@YGXPBD0H@Z ; process_assert
  005c6	c7 85 6c ff ff
	ff 00 00 00 00	 mov	 DWORD PTR tv294[ebp], 0
$LN35@routed_veh:
  005d0	b9 01 00 00 00	 mov	 ecx, 1
  005d5	85 c9		 test	 ecx, ecx
  005d7	74 0c		 je	 SHORT $LN36@routed_veh
  005d9	c7 85 68 ff ff
	ff 12 00 00 00	 mov	 DWORD PTR tv302[ebp], 18 ; 00000012H
  005e3	eb 27		 jmp	 SHORT $LN37@routed_veh
$LN36@routed_veh:
  005e5	8b 15 00 00 00
	00		 mov	 edx, DWORD PTR ?__LINE__Var@?0??routed_vehicle_falling_movement@@YGXPAUENTITY@@@Z@4JA
  005eb	81 c2 85 00 00
	00		 add	 edx, 133		; 00000085H
  005f1	52		 push	 edx
  005f2	68 00 00 00 00	 push	 OFFSET ??_C@_0FD@CFOFJMFL@c?3?2users?2nhv90?2projects?2eech?2ap@
  005f7	a1 00 00 00 00	 mov	 eax, DWORD PTR ?overload_invalid_float_type_message@@3PBDB ; overload_invalid_float_type_message
  005fc	50		 push	 eax
  005fd	e8 00 00 00 00	 call	 ?process_assert@@YGXPBD0H@Z ; process_assert
  00602	c7 85 68 ff ff
	ff 00 00 00 00	 mov	 DWORD PTR tv302[ebp], 0
$LN37@routed_veh:
  0060c	6a 12		 push	 18			; 00000012H
  0060e	8b 4d 08	 mov	 ecx, DWORD PTR _en$[ebp]
  00611	51		 push	 ecx
  00612	69 95 6c ff ff
	ff bc 02 00 00	 imul	 edx, DWORD PTR tv294[ebp], 700
  0061c	8b 85 68 ff ff
	ff		 mov	 eax, DWORD PTR tv302[ebp]
  00622	8b 8c 82 00 00
	00 00		 mov	 ecx, DWORD PTR ?fn_get_local_entity_float_value@@3PAY0KP@P6GMPAUENTITY@@W4FLOAT_TYPES@@@ZA[edx+eax*4]
  00629	ff d1		 call	 ecx
  0062b	d9 9d 64 ff ff
	ff		 fstp	 DWORD PTR tv563[ebp]
  00631	f3 0f 10 85 64
	ff ff ff	 movss	 xmm0, DWORD PTR tv563[ebp]
  00639	f3 0f 58 45 f0	 addss	 xmm0, DWORD PTR _terrain_elevation$[ebp]
  0063e	f3 0f 11 45 dc	 movss	 DWORD PTR _new_pos$[ebp+4], xmm0

; 654  : 
; 655  : 			if (get_comms_model() == COMMS_MODEL_SERVER)

  00643	83 3d 00 00 00
	00 00		 cmp	 DWORD PTR ?system_comms_model@@3W4COMMS_MODEL_TYPES@@A, 0 ; system_comms_model
  0064a	0f 85 cc 00 00
	00		 jne	 $LN8@routed_veh

; 656  : 			{
; 657  : 				vec3d
; 658  : 					temp_pos;
; 659  : 
; 660  : 				temp_pos.x = new_pos.x;

  00650	f3 0f 10 45 d8	 movss	 xmm0, DWORD PTR _new_pos$[ebp]
  00655	f3 0f 11 45 b0	 movss	 DWORD PTR _temp_pos$1[ebp], xmm0

; 661  : 				temp_pos.y = terrain_elevation;

  0065a	f3 0f 10 45 f0	 movss	 xmm0, DWORD PTR _terrain_elevation$[ebp]
  0065f	f3 0f 11 45 b4	 movss	 DWORD PTR _temp_pos$1[ebp+4], xmm0

; 662  : 				temp_pos.z = new_pos.z;

  00664	f3 0f 10 45 e0	 movss	 xmm0, DWORD PTR _new_pos$[ebp+8]
  00669	f3 0f 11 45 b8	 movss	 DWORD PTR _temp_pos$1[ebp+8], xmm0

; 663  : 
; 664  : 				set_local_entity_vec3d (en, VEC3D_TYPE_POSITION, &temp_pos);

  0066e	83 7d 08 00	 cmp	 DWORD PTR _en$[ebp], 0
  00672	74 0d		 je	 SHORT $LN38@routed_veh
  00674	8b 45 08	 mov	 eax, DWORD PTR _en$[ebp]
  00677	8b 08		 mov	 ecx, DWORD PTR [eax]
  00679	89 8d 6c ff ff
	ff		 mov	 DWORD PTR tv316[ebp], ecx
  0067f	eb 27		 jmp	 SHORT $LN39@routed_veh
$LN38@routed_veh:
  00681	8b 15 00 00 00
	00		 mov	 edx, DWORD PTR ?__LINE__Var@?0??routed_vehicle_falling_movement@@YGXPAUENTITY@@@Z@4JA
  00687	81 c2 90 00 00
	00		 add	 edx, 144		; 00000090H
  0068d	52		 push	 edx
  0068e	68 00 00 00 00	 push	 OFFSET ??_C@_0FD@CFOFJMFL@c?3?2users?2nhv90?2projects?2eech?2ap@
  00693	a1 00 00 00 00	 mov	 eax, DWORD PTR ?null_entity_pointer_message@@3PBDB ; null_entity_pointer_message
  00698	50		 push	 eax
  00699	e8 00 00 00 00	 call	 ?process_assert@@YGXPBD0H@Z ; process_assert
  0069e	c7 85 6c ff ff
	ff 00 00 00 00	 mov	 DWORD PTR tv316[ebp], 0
$LN39@routed_veh:
  006a8	b9 01 00 00 00	 mov	 ecx, 1
  006ad	85 c9		 test	 ecx, ecx
  006af	74 0c		 je	 SHORT $LN40@routed_veh
  006b1	c7 85 68 ff ff
	ff 08 00 00 00	 mov	 DWORD PTR tv356[ebp], 8
  006bb	eb 27		 jmp	 SHORT $LN41@routed_veh
$LN40@routed_veh:
  006bd	8b 15 00 00 00
	00		 mov	 edx, DWORD PTR ?__LINE__Var@?0??routed_vehicle_falling_movement@@YGXPAUENTITY@@@Z@4JA
  006c3	81 c2 90 00 00
	00		 add	 edx, 144		; 00000090H
  006c9	52		 push	 edx
  006ca	68 00 00 00 00	 push	 OFFSET ??_C@_0FD@CFOFJMFL@c?3?2users?2nhv90?2projects?2eech?2ap@
  006cf	a1 00 00 00 00	 mov	 eax, DWORD PTR ?overload_invalid_vec3d_type_message@@3PBDB ; overload_invalid_vec3d_type_message
  006d4	50		 push	 eax
  006d5	e8 00 00 00 00	 call	 ?process_assert@@YGXPBD0H@Z ; process_assert
  006da	c7 85 68 ff ff
	ff 00 00 00 00	 mov	 DWORD PTR tv356[ebp], 0
$LN41@routed_veh:
  006e4	8d 4d b0	 lea	 ecx, DWORD PTR _temp_pos$1[ebp]
  006e7	51		 push	 ecx
  006e8	6a 08		 push	 8
  006ea	8b 55 08	 mov	 edx, DWORD PTR _en$[ebp]
  006ed	52		 push	 edx
  006ee	6b 85 6c ff ff
	ff 60		 imul	 eax, DWORD PTR tv316[ebp], 96
  006f5	8b 8d 68 ff ff
	ff		 mov	 ecx, DWORD PTR tv356[ebp]
  006fb	8b 94 88 00 00
	00 00		 mov	 edx, DWORD PTR ?fn_set_local_entity_vec3d@@3PAY0BI@P6GXPAUENTITY@@W4VEC3D_TYPES@@PAUVEC3D@@@ZA[eax+ecx*4]
  00702	ff d2		 call	 edx

; 665  : 
; 666  : 				create_client_server_object_hit_ground_explosion_effect (en, get_3d_terrain_point_data_type (&raw->vh.terrain_info));

  00704	8b 45 fc	 mov	 eax, DWORD PTR _raw$[ebp]
  00707	05 4c 01 00 00	 add	 eax, 332		; 0000014cH
  0070c	50		 push	 eax
  0070d	e8 00 00 00 00	 call	 ?get_3d_terrain_point_data_type@@YGHPAUTERRAIN_3D_POINT_DATA@@@Z ; get_3d_terrain_point_data_type
  00712	50		 push	 eax
  00713	8b 4d 08	 mov	 ecx, DWORD PTR _en$[ebp]
  00716	51		 push	 ecx
  00717	e8 00 00 00 00	 call	 ?create_client_server_object_hit_ground_explosion_effect@@YGXPAUENTITY@@H@Z ; create_client_server_object_hit_ground_explosion_effect
$LN8@routed_veh:

; 667  : 			}
; 668  : 
; 669  : 			velocity->y = 0.0;

  0071c	8b 45 e4	 mov	 eax, DWORD PTR _velocity$[ebp]
  0071f	0f 57 c0	 xorps	 xmm0, xmm0
  00722	f3 0f 11 40 04	 movss	 DWORD PTR [eax+4], xmm0
$LN4@routed_veh:

; 670  : 		}
; 671  : 	}
; 672  : 
; 673  : 	//
; 674  : 	// update speed
; 675  : 	//
; 676  : 
; 677  : 	speed = get_3d_vector_magnitude (velocity);

  00727	8b 45 e4	 mov	 eax, DWORD PTR _velocity$[ebp]
  0072a	50		 push	 eax
  0072b	e8 00 00 00 00	 call	 ?get_3d_vector_magnitude@@YGMPBUVEC3D@@@Z ; get_3d_vector_magnitude
  00730	d9 5d f8	 fstp	 DWORD PTR _speed$[ebp]

; 678  : 
; 679  : 	set_local_entity_float_value (en, FLOAT_TYPE_VELOCITY, speed);

  00733	83 7d 08 00	 cmp	 DWORD PTR _en$[ebp], 0
  00737	74 0d		 je	 SHORT $LN42@routed_veh
  00739	8b 45 08	 mov	 eax, DWORD PTR _en$[ebp]
  0073c	8b 08		 mov	 ecx, DWORD PTR [eax]
  0073e	89 8d 6c ff ff
	ff		 mov	 DWORD PTR tv377[ebp], ecx
  00744	eb 27		 jmp	 SHORT $LN43@routed_veh
$LN42@routed_veh:
  00746	8b 15 00 00 00
	00		 mov	 edx, DWORD PTR ?__LINE__Var@?0??routed_vehicle_falling_movement@@YGXPAUENTITY@@@Z@4JA
  0074c	81 c2 9f 00 00
	00		 add	 edx, 159		; 0000009fH
  00752	52		 push	 edx
  00753	68 00 00 00 00	 push	 OFFSET ??_C@_0FD@CFOFJMFL@c?3?2users?2nhv90?2projects?2eech?2ap@
  00758	a1 00 00 00 00	 mov	 eax, DWORD PTR ?null_entity_pointer_message@@3PBDB ; null_entity_pointer_message
  0075d	50		 push	 eax
  0075e	e8 00 00 00 00	 call	 ?process_assert@@YGXPBD0H@Z ; process_assert
  00763	c7 85 6c ff ff
	ff 00 00 00 00	 mov	 DWORD PTR tv377[ebp], 0
$LN43@routed_veh:
  0076d	b9 01 00 00 00	 mov	 ecx, 1
  00772	85 c9		 test	 ecx, ecx
  00774	74 0c		 je	 SHORT $LN44@routed_veh
  00776	c7 85 68 ff ff
	ff 93 00 00 00	 mov	 DWORD PTR tv385[ebp], 147 ; 00000093H
  00780	eb 27		 jmp	 SHORT $LN45@routed_veh
$LN44@routed_veh:
  00782	8b 15 00 00 00
	00		 mov	 edx, DWORD PTR ?__LINE__Var@?0??routed_vehicle_falling_movement@@YGXPAUENTITY@@@Z@4JA
  00788	81 c2 9f 00 00
	00		 add	 edx, 159		; 0000009fH
  0078e	52		 push	 edx
  0078f	68 00 00 00 00	 push	 OFFSET ??_C@_0FD@CFOFJMFL@c?3?2users?2nhv90?2projects?2eech?2ap@
  00794	a1 00 00 00 00	 mov	 eax, DWORD PTR ?overload_invalid_float_type_message@@3PBDB ; overload_invalid_float_type_message
  00799	50		 push	 eax
  0079a	e8 00 00 00 00	 call	 ?process_assert@@YGXPBD0H@Z ; process_assert
  0079f	c7 85 68 ff ff
	ff 00 00 00 00	 mov	 DWORD PTR tv385[ebp], 0
$LN45@routed_veh:
  007a9	51		 push	 ecx
  007aa	f3 0f 10 45 f8	 movss	 xmm0, DWORD PTR _speed$[ebp]
  007af	f3 0f 11 04 24	 movss	 DWORD PTR [esp], xmm0
  007b4	68 93 00 00 00	 push	 147			; 00000093H
  007b9	8b 4d 08	 mov	 ecx, DWORD PTR _en$[ebp]
  007bc	51		 push	 ecx
  007bd	69 95 6c ff ff
	ff bc 02 00 00	 imul	 edx, DWORD PTR tv377[ebp], 700
  007c7	8b 85 68 ff ff
	ff		 mov	 eax, DWORD PTR tv385[ebp]
  007cd	8b 8c 82 00 00
	00 00		 mov	 ecx, DWORD PTR ?fn_set_local_entity_float_value@@3PAY0KP@P6GXPAUENTITY@@W4FLOAT_TYPES@@M@ZA[edx+eax*4]
  007d4	ff d1		 call	 ecx

; 680  : 
; 681  : 	//
; 682  : 	// set new position
; 683  : 	//
; 684  : 
; 685  : 	set_local_entity_vec3d (en, VEC3D_TYPE_POSITION, &new_pos);

  007d6	83 7d 08 00	 cmp	 DWORD PTR _en$[ebp], 0
  007da	74 0d		 je	 SHORT $LN46@routed_veh
  007dc	8b 45 08	 mov	 eax, DWORD PTR _en$[ebp]
  007df	8b 08		 mov	 ecx, DWORD PTR [eax]
  007e1	89 8d 6c ff ff
	ff		 mov	 DWORD PTR tv397[ebp], ecx
  007e7	eb 27		 jmp	 SHORT $LN47@routed_veh
$LN46@routed_veh:
  007e9	8b 15 00 00 00
	00		 mov	 edx, DWORD PTR ?__LINE__Var@?0??routed_vehicle_falling_movement@@YGXPAUENTITY@@@Z@4JA
  007ef	81 c2 a5 00 00
	00		 add	 edx, 165		; 000000a5H
  007f5	52		 push	 edx
  007f6	68 00 00 00 00	 push	 OFFSET ??_C@_0FD@CFOFJMFL@c?3?2users?2nhv90?2projects?2eech?2ap@
  007fb	a1 00 00 00 00	 mov	 eax, DWORD PTR ?null_entity_pointer_message@@3PBDB ; null_entity_pointer_message
  00800	50		 push	 eax
  00801	e8 00 00 00 00	 call	 ?process_assert@@YGXPBD0H@Z ; process_assert
  00806	c7 85 6c ff ff
	ff 00 00 00 00	 mov	 DWORD PTR tv397[ebp], 0
$LN47@routed_veh:
  00810	b9 01 00 00 00	 mov	 ecx, 1
  00815	85 c9		 test	 ecx, ecx
  00817	74 0c		 je	 SHORT $LN48@routed_veh
  00819	c7 85 68 ff ff
	ff 08 00 00 00	 mov	 DWORD PTR tv405[ebp], 8
  00823	eb 27		 jmp	 SHORT $LN49@routed_veh
$LN48@routed_veh:
  00825	8b 15 00 00 00
	00		 mov	 edx, DWORD PTR ?__LINE__Var@?0??routed_vehicle_falling_movement@@YGXPAUENTITY@@@Z@4JA
  0082b	81 c2 a5 00 00
	00		 add	 edx, 165		; 000000a5H
  00831	52		 push	 edx
  00832	68 00 00 00 00	 push	 OFFSET ??_C@_0FD@CFOFJMFL@c?3?2users?2nhv90?2projects?2eech?2ap@
  00837	a1 00 00 00 00	 mov	 eax, DWORD PTR ?overload_invalid_vec3d_type_message@@3PBDB ; overload_invalid_vec3d_type_message
  0083c	50		 push	 eax
  0083d	e8 00 00 00 00	 call	 ?process_assert@@YGXPBD0H@Z ; process_assert
  00842	c7 85 68 ff ff
	ff 00 00 00 00	 mov	 DWORD PTR tv405[ebp], 0
$LN49@routed_veh:
  0084c	8d 4d d8	 lea	 ecx, DWORD PTR _new_pos$[ebp]
  0084f	51		 push	 ecx
  00850	6a 08		 push	 8
  00852	8b 55 08	 mov	 edx, DWORD PTR _en$[ebp]
  00855	52		 push	 edx
  00856	6b 85 6c ff ff
	ff 60		 imul	 eax, DWORD PTR tv397[ebp], 96
  0085d	8b 8d 68 ff ff
	ff		 mov	 ecx, DWORD PTR tv405[ebp]
  00863	8b 94 88 00 00
	00 00		 mov	 edx, DWORD PTR ?fn_set_local_entity_vec3d@@3PAY0BI@P6GXPAUENTITY@@W4VEC3D_TYPES@@PAUVEC3D@@@ZA[eax+ecx*4]
  0086a	ff d2		 call	 edx

; 686  : }

  0086c	5f		 pop	 edi
  0086d	5e		 pop	 esi
  0086e	5b		 pop	 ebx
  0086f	8b e5		 mov	 esp, ebp
  00871	5d		 pop	 ebp
  00872	c2 04 00	 ret	 4
?routed_vehicle_falling_movement@@YGXPAUENTITY@@@Z ENDP	; routed_vehicle_falling_movement
_TEXT	ENDS
; Function compile flags: /Odtp /ZI
; File c:\users\nhv90\projects\eech\aphavoc\source\entity\mobile\vehicle\routed\rv_move.c
;	COMDAT ?routed_vehicle_impact_movement@@YGXPAUENTITY@@@Z
_TEXT	SEGMENT
tv90 = -88						; size = 4
tv82 = -84						; size = 4
_seed$ = -16						; size = 4
_velocity$ = -12					; size = 4
_speed$ = -8						; size = 4
_raw$ = -4						; size = 4
_en$ = 8						; size = 4
?routed_vehicle_impact_movement@@YGXPAUENTITY@@@Z PROC	; routed_vehicle_impact_movement, COMDAT

; 693  : {

  00000	55		 push	 ebp
  00001	8b ec		 mov	 ebp, esp
  00003	83 ec 58	 sub	 esp, 88			; 00000058H
  00006	53		 push	 ebx
  00007	56		 push	 esi
  00008	57		 push	 edi

; 694  : 
; 695  : 	routed_vehicle
; 696  : 		*raw;
; 697  : 
; 698  : 	float
; 699  : 		speed;
; 700  : 
; 701  : 	vec3d
; 702  : 		*velocity;
; 703  : 
; 704  : 	int
; 705  : 		seed;
; 706  : 
; 707  : 	//
; 708  : 	// when a routed vehicle is killed it needs to be "moved out the way", so give it an instantaneous sideways velocity
; 709  : 	//
; 710  : 
; 711  : 	raw = (routed_vehicle *) get_local_entity_data (en);

  00009	8b 45 08	 mov	 eax, DWORD PTR _en$[ebp]
  0000c	8b 48 04	 mov	 ecx, DWORD PTR [eax+4]
  0000f	89 4d fc	 mov	 DWORD PTR _raw$[ebp], ecx

; 712  : 
; 713  : 	seed = get_client_server_entity_random_number_seed(en);

  00012	8b 45 08	 mov	 eax, DWORD PTR _en$[ebp]
  00015	2b 05 00 00 00
	00		 sub	 eax, DWORD PTR ?entities@@3PAUENTITY@@A ; entities
  0001b	c1 f8 04	 sar	 eax, 4
  0001e	89 45 f0	 mov	 DWORD PTR _seed$[ebp], eax

; 714  : 
; 715  : 	speed = 7.0 + (4.0 * frand1x (&seed));

  00021	69 45 f0 6d 4e
	c6 41		 imul	 eax, DWORD PTR _seed$[ebp], 1103515245
  00028	05 39 30 00 00	 add	 eax, 12345		; 00003039H
  0002d	89 45 f0	 mov	 DWORD PTR _seed$[ebp], eax
  00030	8b 4d f0	 mov	 ecx, DWORD PTR _seed$[ebp]
  00033	c1 f9 10	 sar	 ecx, 16			; 00000010H
  00036	81 e1 ff 7f 00
	00		 and	 ecx, 32767		; 00007fffH
  0003c	f2 0f 2a c1	 cvtsi2sd xmm0, ecx
  00040	f2 0f 59 05 00
	00 00 00	 mulsd	 xmm0, QWORD PTR __real@3f00002000400080
  00048	f2 0f 59 05 00
	00 00 00	 mulsd	 xmm0, QWORD PTR __real@4010000000000000
  00050	f2 0f 58 05 00
	00 00 00	 addsd	 xmm0, QWORD PTR __real@401c000000000000
  00058	f2 0f 5a c0	 cvtsd2ss xmm0, xmm0
  0005c	f3 0f 11 45 f8	 movss	 DWORD PTR _speed$[ebp], xmm0

; 716  : 
; 717  : 	velocity = get_local_entity_vec3d_ptr (en, VEC3D_TYPE_MOTION_VECTOR);

  00061	83 7d 08 00	 cmp	 DWORD PTR _en$[ebp], 0
  00065	74 0a		 je	 SHORT $LN3@routed_veh
  00067	8b 45 08	 mov	 eax, DWORD PTR _en$[ebp]
  0006a	8b 08		 mov	 ecx, DWORD PTR [eax]
  0006c	89 4d ac	 mov	 DWORD PTR tv82[ebp], ecx
  0006f	eb 21		 jmp	 SHORT $LN4@routed_veh
$LN3@routed_veh:
  00071	8b 15 00 00 00
	00		 mov	 edx, DWORD PTR ?__LINE__Var@?0??routed_vehicle_impact_movement@@YGXPAUENTITY@@@Z@4JA
  00077	83 c2 18	 add	 edx, 24			; 00000018H
  0007a	52		 push	 edx
  0007b	68 00 00 00 00	 push	 OFFSET ??_C@_0FD@CFOFJMFL@c?3?2users?2nhv90?2projects?2eech?2ap@
  00080	a1 00 00 00 00	 mov	 eax, DWORD PTR ?null_entity_pointer_message@@3PBDB ; null_entity_pointer_message
  00085	50		 push	 eax
  00086	e8 00 00 00 00	 call	 ?process_assert@@YGXPBD0H@Z ; process_assert
  0008b	c7 45 ac 00 00
	00 00		 mov	 DWORD PTR tv82[ebp], 0
$LN4@routed_veh:
  00092	b9 01 00 00 00	 mov	 ecx, 1
  00097	85 c9		 test	 ecx, ecx
  00099	74 09		 je	 SHORT $LN5@routed_veh
  0009b	c7 45 a8 06 00
	00 00		 mov	 DWORD PTR tv90[ebp], 6
  000a2	eb 21		 jmp	 SHORT $LN6@routed_veh
$LN5@routed_veh:
  000a4	8b 15 00 00 00
	00		 mov	 edx, DWORD PTR ?__LINE__Var@?0??routed_vehicle_impact_movement@@YGXPAUENTITY@@@Z@4JA
  000aa	83 c2 18	 add	 edx, 24			; 00000018H
  000ad	52		 push	 edx
  000ae	68 00 00 00 00	 push	 OFFSET ??_C@_0FD@CFOFJMFL@c?3?2users?2nhv90?2projects?2eech?2ap@
  000b3	a1 00 00 00 00	 mov	 eax, DWORD PTR ?overload_invalid_vec3d_type_message@@3PBDB ; overload_invalid_vec3d_type_message
  000b8	50		 push	 eax
  000b9	e8 00 00 00 00	 call	 ?process_assert@@YGXPBD0H@Z ; process_assert
  000be	c7 45 a8 00 00
	00 00		 mov	 DWORD PTR tv90[ebp], 0
$LN6@routed_veh:
  000c5	6a 06		 push	 6
  000c7	8b 4d 08	 mov	 ecx, DWORD PTR _en$[ebp]
  000ca	51		 push	 ecx
  000cb	6b 55 ac 60	 imul	 edx, DWORD PTR tv82[ebp], 96
  000cf	8b 45 a8	 mov	 eax, DWORD PTR tv90[ebp]
  000d2	8b 8c 82 00 00
	00 00		 mov	 ecx, DWORD PTR ?fn_get_local_entity_vec3d_ptr@@3PAY0BI@P6GPAUVEC3D@@PAUENTITY@@W4VEC3D_TYPES@@@ZA[edx+eax*4]
  000d9	ff d1		 call	 ecx
  000db	89 45 f4	 mov	 DWORD PTR _velocity$[ebp], eax

; 718  : 
; 719  : 	velocity->x += (speed * raw->vh.mob.xv.x);

  000de	8b 45 fc	 mov	 eax, DWORD PTR _raw$[ebp]
  000e1	f3 0f 10 45 f8	 movss	 xmm0, DWORD PTR _speed$[ebp]
  000e6	f3 0f 59 40 10	 mulss	 xmm0, DWORD PTR [eax+16]
  000eb	8b 4d f4	 mov	 ecx, DWORD PTR _velocity$[ebp]
  000ee	f3 0f 58 01	 addss	 xmm0, DWORD PTR [ecx]
  000f2	8b 55 f4	 mov	 edx, DWORD PTR _velocity$[ebp]
  000f5	f3 0f 11 02	 movss	 DWORD PTR [edx], xmm0

; 720  : 
; 721  : 	velocity->z += (speed * raw->vh.mob.xv.z);

  000f9	8b 45 fc	 mov	 eax, DWORD PTR _raw$[ebp]
  000fc	f3 0f 10 45 f8	 movss	 xmm0, DWORD PTR _speed$[ebp]
  00101	f3 0f 59 40 18	 mulss	 xmm0, DWORD PTR [eax+24]
  00106	8b 4d f4	 mov	 ecx, DWORD PTR _velocity$[ebp]
  00109	f3 0f 58 41 08	 addss	 xmm0, DWORD PTR [ecx+8]
  0010e	8b 55 f4	 mov	 edx, DWORD PTR _velocity$[ebp]
  00111	f3 0f 11 42 08	 movss	 DWORD PTR [edx+8], xmm0

; 722  : }

  00116	5f		 pop	 edi
  00117	5e		 pop	 esi
  00118	5b		 pop	 ebx
  00119	8b e5		 mov	 esp, ebp
  0011b	5d		 pop	 ebp
  0011c	c2 04 00	 ret	 4
?routed_vehicle_impact_movement@@YGXPAUENTITY@@@Z ENDP	; routed_vehicle_impact_movement
_TEXT	ENDS
; Function compile flags: /Odtp /ZI
; File c:\users\nhv90\projects\eech\aphavoc\source\entity\mobile\vehicle\routed\rv_move.c
;	COMDAT ?routed_vehicle_death_movement@@YGXPAUENTITY@@@Z
_TEXT	SEGMENT
tv379 = -132						; size = 4
tv521 = -128						; size = 8
tv437 = -124						; size = 4
tv341 = -120						; size = 4
tv256 = -120						; size = 4
tv228 = -120						; size = 4
tv191 = -120						; size = 4
tv167 = -120						; size = 4
tv142 = -120						; size = 4
tv79 = -120						; size = 4
tv333 = -116						; size = 4
tv248 = -116						; size = 4
tv220 = -116						; size = 4
tv183 = -116						; size = 4
tv159 = -116						; size = 4
tv135 = -116						; size = 4
tv71 = -116						; size = 4
$T1 = -112						; size = 4
_new_pos$ = -44						; size = 12
_velocity$ = -32					; size = 4
_pos$ = -28						; size = 4
_terrain_elevation$ = -24				; size = 4
_speed$ = -20						; size = 4
_roll$ = -16						; size = 4
_pitch$ = -12						; size = 4
_heading$ = -8						; size = 4
_raw$ = -4						; size = 4
_en$ = 8						; size = 4
?routed_vehicle_death_movement@@YGXPAUENTITY@@@Z PROC	; routed_vehicle_death_movement, COMDAT

; 414  : {

  00000	55		 push	 ebp
  00001	8b ec		 mov	 ebp, esp
  00003	81 ec 84 00 00
	00		 sub	 esp, 132		; 00000084H
  00009	53		 push	 ebx
  0000a	56		 push	 esi
  0000b	57		 push	 edi

; 415  : 
; 416  : 	routed_vehicle
; 417  : 		*raw;
; 418  : 
; 419  : 	float
; 420  : 		heading,
; 421  : 		pitch,
; 422  : 		roll,
; 423  : 		speed,
; 424  : 		terrain_elevation;
; 425  : 
; 426  : 	vec3d
; 427  : 		*pos,
; 428  : 		*velocity,
; 429  : 		new_pos;
; 430  : 
; 431  : 	raw = (routed_vehicle *) get_local_entity_data (en);

  0000c	8b 45 08	 mov	 eax, DWORD PTR _en$[ebp]
  0000f	8b 48 04	 mov	 ecx, DWORD PTR [eax+4]
  00012	89 4d fc	 mov	 DWORD PTR _raw$[ebp], ecx

; 432  : 
; 433  : 	//
; 434  : 	// first check to see if vehicle is on the ground or not
; 435  : 	//
; 436  : 
; 437  : 	pos = get_local_entity_vec3d_ptr (en, VEC3D_TYPE_POSITION);

  00015	83 7d 08 00	 cmp	 DWORD PTR _en$[ebp], 0
  00019	74 0a		 je	 SHORT $LN6@routed_veh
  0001b	8b 45 08	 mov	 eax, DWORD PTR _en$[ebp]
  0001e	8b 08		 mov	 ecx, DWORD PTR [eax]
  00020	89 4d 8c	 mov	 DWORD PTR tv71[ebp], ecx
  00023	eb 21		 jmp	 SHORT $LN7@routed_veh
$LN6@routed_veh:
  00025	8b 15 00 00 00
	00		 mov	 edx, DWORD PTR ?__LINE__Var@?0??routed_vehicle_death_movement@@YGXPAUENTITY@@@Z@4JA
  0002b	83 c2 17	 add	 edx, 23			; 00000017H
  0002e	52		 push	 edx
  0002f	68 00 00 00 00	 push	 OFFSET ??_C@_0FD@CFOFJMFL@c?3?2users?2nhv90?2projects?2eech?2ap@
  00034	a1 00 00 00 00	 mov	 eax, DWORD PTR ?null_entity_pointer_message@@3PBDB ; null_entity_pointer_message
  00039	50		 push	 eax
  0003a	e8 00 00 00 00	 call	 ?process_assert@@YGXPBD0H@Z ; process_assert
  0003f	c7 45 8c 00 00
	00 00		 mov	 DWORD PTR tv71[ebp], 0
$LN7@routed_veh:
  00046	b9 01 00 00 00	 mov	 ecx, 1
  0004b	85 c9		 test	 ecx, ecx
  0004d	74 09		 je	 SHORT $LN8@routed_veh
  0004f	c7 45 88 08 00
	00 00		 mov	 DWORD PTR tv79[ebp], 8
  00056	eb 21		 jmp	 SHORT $LN9@routed_veh
$LN8@routed_veh:
  00058	8b 15 00 00 00
	00		 mov	 edx, DWORD PTR ?__LINE__Var@?0??routed_vehicle_death_movement@@YGXPAUENTITY@@@Z@4JA
  0005e	83 c2 17	 add	 edx, 23			; 00000017H
  00061	52		 push	 edx
  00062	68 00 00 00 00	 push	 OFFSET ??_C@_0FD@CFOFJMFL@c?3?2users?2nhv90?2projects?2eech?2ap@
  00067	a1 00 00 00 00	 mov	 eax, DWORD PTR ?overload_invalid_vec3d_type_message@@3PBDB ; overload_invalid_vec3d_type_message
  0006c	50		 push	 eax
  0006d	e8 00 00 00 00	 call	 ?process_assert@@YGXPBD0H@Z ; process_assert
  00072	c7 45 88 00 00
	00 00		 mov	 DWORD PTR tv79[ebp], 0
$LN9@routed_veh:
  00079	6a 08		 push	 8
  0007b	8b 4d 08	 mov	 ecx, DWORD PTR _en$[ebp]
  0007e	51		 push	 ecx
  0007f	6b 55 8c 60	 imul	 edx, DWORD PTR tv71[ebp], 96
  00083	8b 45 88	 mov	 eax, DWORD PTR tv79[ebp]
  00086	8b 8c 82 00 00
	00 00		 mov	 ecx, DWORD PTR ?fn_get_local_entity_vec3d_ptr@@3PAY0BI@P6GPAUVEC3D@@PAUENTITY@@W4VEC3D_TYPES@@@ZA[edx+eax*4]
  0008d	ff d1		 call	 ecx
  0008f	89 45 e4	 mov	 DWORD PTR _pos$[ebp], eax

; 438  : 
; 439  : 	terrain_elevation = get_3d_terrain_point_data_elevation (&raw->vh.terrain_info);

  00092	8b 45 fc	 mov	 eax, DWORD PTR _raw$[ebp]
  00095	05 4c 01 00 00	 add	 eax, 332		; 0000014cH
  0009a	50		 push	 eax
  0009b	e8 00 00 00 00	 call	 ?get_3d_terrain_point_data_elevation@@YGMPAUTERRAIN_3D_POINT_DATA@@@Z ; get_3d_terrain_point_data_elevation
  000a0	d9 5d e8	 fstp	 DWORD PTR _terrain_elevation$[ebp]

; 440  : 
; 441  : 	if ((get_terrain_type_class (get_3d_terrain_point_data_type (&raw->vh.terrain_info)) == TERRAIN_CLASS_WATER) ||

  000a3	8b 45 fc	 mov	 eax, DWORD PTR _raw$[ebp]
  000a6	05 4c 01 00 00	 add	 eax, 332		; 0000014cH
  000ab	50		 push	 eax
  000ac	e8 00 00 00 00	 call	 ?get_3d_terrain_point_data_type@@YGHPAUTERRAIN_3D_POINT_DATA@@@Z ; get_3d_terrain_point_data_type
  000b1	50		 push	 eax
  000b2	e8 00 00 00 00	 call	 ?get_terrain_type_class@@YG?AW4TERRAIN_CLASSES@@H@Z ; get_terrain_type_class
  000b7	83 f8 01	 cmp	 eax, 1
  000ba	0f 84 ac 00 00
	00		 je	 $LN3@routed_veh
  000c0	83 7d 08 00	 cmp	 DWORD PTR _en$[ebp], 0
  000c4	74 0a		 je	 SHORT $LN10@routed_veh
  000c6	8b 45 08	 mov	 eax, DWORD PTR _en$[ebp]
  000c9	8b 08		 mov	 ecx, DWORD PTR [eax]
  000cb	89 4d 8c	 mov	 DWORD PTR tv135[ebp], ecx
  000ce	eb 1d		 jmp	 SHORT $LN11@routed_veh
$LN10@routed_veh:
  000d0	68 ba 01 00 00	 push	 442			; 000001baH
  000d5	68 00 00 00 00	 push	 OFFSET ??_C@_0FD@CFOFJMFL@c?3?2users?2nhv90?2projects?2eech?2ap@
  000da	8b 15 00 00 00
	00		 mov	 edx, DWORD PTR ?null_entity_pointer_message@@3PBDB ; null_entity_pointer_message
  000e0	52		 push	 edx
  000e1	e8 00 00 00 00	 call	 ?process_assert@@YGXPBD0H@Z ; process_assert
  000e6	c7 45 8c 00 00
	00 00		 mov	 DWORD PTR tv135[ebp], 0
$LN11@routed_veh:
  000ed	b8 01 00 00 00	 mov	 eax, 1
  000f2	85 c0		 test	 eax, eax
  000f4	74 09		 je	 SHORT $LN12@routed_veh
  000f6	c7 45 88 12 00
	00 00		 mov	 DWORD PTR tv142[ebp], 18 ; 00000012H
  000fd	eb 1d		 jmp	 SHORT $LN13@routed_veh
$LN12@routed_veh:
  000ff	68 ba 01 00 00	 push	 442			; 000001baH
  00104	68 00 00 00 00	 push	 OFFSET ??_C@_0FD@CFOFJMFL@c?3?2users?2nhv90?2projects?2eech?2ap@
  00109	8b 0d 00 00 00
	00		 mov	 ecx, DWORD PTR ?overload_invalid_float_type_message@@3PBDB ; overload_invalid_float_type_message
  0010f	51		 push	 ecx
  00110	e8 00 00 00 00	 call	 ?process_assert@@YGXPBD0H@Z ; process_assert
  00115	c7 45 88 00 00
	00 00		 mov	 DWORD PTR tv142[ebp], 0
$LN13@routed_veh:
  0011c	8b 55 e4	 mov	 edx, DWORD PTR _pos$[ebp]
  0011f	f3 0f 5a 42 04	 cvtss2sd xmm0, DWORD PTR [edx+4]
  00124	6a 12		 push	 18			; 00000012H
  00126	8b 45 08	 mov	 eax, DWORD PTR _en$[ebp]
  00129	50		 push	 eax
  0012a	69 4d 8c bc 02
	00 00		 imul	 ecx, DWORD PTR tv135[ebp], 700
  00131	8b 55 88	 mov	 edx, DWORD PTR tv142[ebp]
  00134	8b 84 91 00 00
	00 00		 mov	 eax, DWORD PTR ?fn_get_local_entity_float_value@@3PAY0KP@P6GMPAUENTITY@@W4FLOAT_TYPES@@@ZA[ecx+edx*4]
  0013b	f2 0f 11 45 80	 movsd	 QWORD PTR tv521[ebp], xmm0
  00140	ff d0		 call	 eax
  00142	d9 9d 7c ff ff
	ff		 fstp	 DWORD PTR tv379[ebp]
  00148	f3 0f 10 85 7c
	ff ff ff	 movss	 xmm0, DWORD PTR tv379[ebp]
  00150	f3 0f 58 45 e8	 addss	 xmm0, DWORD PTR _terrain_elevation$[ebp]
  00155	f3 0f 5a c0	 cvtss2sd xmm0, xmm0
  00159	f2 0f 58 05 00
	00 00 00	 addsd	 xmm0, QWORD PTR __real@3fc999999999999a
  00161	f2 0f 10 4d 80	 movsd	 xmm1, QWORD PTR tv521[ebp]
  00166	66 0f 2f c8	 comisd	 xmm1, xmm0
  0016a	76 0e		 jbe	 SHORT $LN2@routed_veh
$LN3@routed_veh:

; 442  : 			(pos->y > (terrain_elevation + get_local_entity_float_value (en, FLOAT_TYPE_CENTRE_OF_GRAVITY_TO_GROUND_DISTANCE) + 0.2)))
; 443  : 	{
; 444  : 
; 445  : 		routed_vehicle_falling_movement (en);

  0016c	8b 45 08	 mov	 eax, DWORD PTR _en$[ebp]
  0016f	50		 push	 eax
  00170	e8 00 00 00 00	 call	 ?routed_vehicle_falling_movement@@YGXPAUENTITY@@@Z ; routed_vehicle_falling_movement

; 446  : 
; 447  : 		return;

  00175	e9 cf 04 00 00	 jmp	 $LN1@routed_veh
$LN2@routed_veh:

; 448  : 	}
; 449  : 
; 450  : 	//
; 451  : 	// if vehicle has come to a stop, remove from update list
; 452  : 	//
; 453  : 
; 454  : 	velocity = get_local_entity_vec3d_ptr (en, VEC3D_TYPE_MOTION_VECTOR);

  0017a	83 7d 08 00	 cmp	 DWORD PTR _en$[ebp], 0
  0017e	74 0a		 je	 SHORT $LN14@routed_veh
  00180	8b 45 08	 mov	 eax, DWORD PTR _en$[ebp]
  00183	8b 08		 mov	 ecx, DWORD PTR [eax]
  00185	89 4d 8c	 mov	 DWORD PTR tv159[ebp], ecx
  00188	eb 21		 jmp	 SHORT $LN15@routed_veh
$LN14@routed_veh:
  0018a	8b 15 00 00 00
	00		 mov	 edx, DWORD PTR ?__LINE__Var@?0??routed_vehicle_death_movement@@YGXPAUENTITY@@@Z@4JA
  00190	83 c2 28	 add	 edx, 40			; 00000028H
  00193	52		 push	 edx
  00194	68 00 00 00 00	 push	 OFFSET ??_C@_0FD@CFOFJMFL@c?3?2users?2nhv90?2projects?2eech?2ap@
  00199	a1 00 00 00 00	 mov	 eax, DWORD PTR ?null_entity_pointer_message@@3PBDB ; null_entity_pointer_message
  0019e	50		 push	 eax
  0019f	e8 00 00 00 00	 call	 ?process_assert@@YGXPBD0H@Z ; process_assert
  001a4	c7 45 8c 00 00
	00 00		 mov	 DWORD PTR tv159[ebp], 0
$LN15@routed_veh:
  001ab	b9 01 00 00 00	 mov	 ecx, 1
  001b0	85 c9		 test	 ecx, ecx
  001b2	74 09		 je	 SHORT $LN16@routed_veh
  001b4	c7 45 88 06 00
	00 00		 mov	 DWORD PTR tv167[ebp], 6
  001bb	eb 21		 jmp	 SHORT $LN17@routed_veh
$LN16@routed_veh:
  001bd	8b 15 00 00 00
	00		 mov	 edx, DWORD PTR ?__LINE__Var@?0??routed_vehicle_death_movement@@YGXPAUENTITY@@@Z@4JA
  001c3	83 c2 28	 add	 edx, 40			; 00000028H
  001c6	52		 push	 edx
  001c7	68 00 00 00 00	 push	 OFFSET ??_C@_0FD@CFOFJMFL@c?3?2users?2nhv90?2projects?2eech?2ap@
  001cc	a1 00 00 00 00	 mov	 eax, DWORD PTR ?overload_invalid_vec3d_type_message@@3PBDB ; overload_invalid_vec3d_type_message
  001d1	50		 push	 eax
  001d2	e8 00 00 00 00	 call	 ?process_assert@@YGXPBD0H@Z ; process_assert
  001d7	c7 45 88 00 00
	00 00		 mov	 DWORD PTR tv167[ebp], 0
$LN17@routed_veh:
  001de	6a 06		 push	 6
  001e0	8b 4d 08	 mov	 ecx, DWORD PTR _en$[ebp]
  001e3	51		 push	 ecx
  001e4	6b 55 8c 60	 imul	 edx, DWORD PTR tv159[ebp], 96
  001e8	8b 45 88	 mov	 eax, DWORD PTR tv167[ebp]
  001eb	8b 8c 82 00 00
	00 00		 mov	 ecx, DWORD PTR ?fn_get_local_entity_vec3d_ptr@@3PAY0BI@P6GPAUVEC3D@@PAUENTITY@@W4VEC3D_TYPES@@@ZA[edx+eax*4]
  001f2	ff d1		 call	 ecx
  001f4	89 45 e0	 mov	 DWORD PTR _velocity$[ebp], eax

; 455  : 
; 456  : 	speed = get_3d_vector_magnitude (velocity);

  001f7	8b 45 e0	 mov	 eax, DWORD PTR _velocity$[ebp]
  001fa	50		 push	 eax
  001fb	e8 00 00 00 00	 call	 ?get_3d_vector_magnitude@@YGMPBUVEC3D@@@Z ; get_3d_vector_magnitude
  00200	d9 5d ec	 fstp	 DWORD PTR _speed$[ebp]

; 457  : 
; 458  : 	if (speed == 0.0)

  00203	f3 0f 5a 45 ec	 cvtss2sd xmm0, DWORD PTR _speed$[ebp]
  00208	66 0f 2e 05 00
	00 00 00	 ucomisd xmm0, QWORD PTR __real@0000000000000000
  00210	9f		 lahf
  00211	f6 c4 44	 test	 ah, 68			; 00000044H
  00214	0f 8a 87 00 00
	00		 jp	 $LN4@routed_veh

; 459  : 	{
; 460  : 		set_local_entity_int_value (en, INT_TYPE_OPERATIONAL_STATE, OPERATIONAL_STATE_DEAD);

  0021a	83 7d 08 00	 cmp	 DWORD PTR _en$[ebp], 0
  0021e	74 0a		 je	 SHORT $LN18@routed_veh
  00220	8b 45 08	 mov	 eax, DWORD PTR _en$[ebp]
  00223	8b 08		 mov	 ecx, DWORD PTR [eax]
  00225	89 4d 8c	 mov	 DWORD PTR tv183[ebp], ecx
  00228	eb 21		 jmp	 SHORT $LN19@routed_veh
$LN18@routed_veh:
  0022a	8b 15 00 00 00
	00		 mov	 edx, DWORD PTR ?__LINE__Var@?0??routed_vehicle_death_movement@@YGXPAUENTITY@@@Z@4JA
  00230	83 c2 2e	 add	 edx, 46			; 0000002eH
  00233	52		 push	 edx
  00234	68 00 00 00 00	 push	 OFFSET ??_C@_0FD@CFOFJMFL@c?3?2users?2nhv90?2projects?2eech?2ap@
  00239	a1 00 00 00 00	 mov	 eax, DWORD PTR ?null_entity_pointer_message@@3PBDB ; null_entity_pointer_message
  0023e	50		 push	 eax
  0023f	e8 00 00 00 00	 call	 ?process_assert@@YGXPBD0H@Z ; process_assert
  00244	c7 45 8c 00 00
	00 00		 mov	 DWORD PTR tv183[ebp], 0
$LN19@routed_veh:
  0024b	b9 01 00 00 00	 mov	 ecx, 1
  00250	85 c9		 test	 ecx, ecx
  00252	74 09		 je	 SHORT $LN20@routed_veh
  00254	c7 45 88 97 00
	00 00		 mov	 DWORD PTR tv191[ebp], 151 ; 00000097H
  0025b	eb 21		 jmp	 SHORT $LN21@routed_veh
$LN20@routed_veh:
  0025d	8b 15 00 00 00
	00		 mov	 edx, DWORD PTR ?__LINE__Var@?0??routed_vehicle_death_movement@@YGXPAUENTITY@@@Z@4JA
  00263	83 c2 2e	 add	 edx, 46			; 0000002eH
  00266	52		 push	 edx
  00267	68 00 00 00 00	 push	 OFFSET ??_C@_0FD@CFOFJMFL@c?3?2users?2nhv90?2projects?2eech?2ap@
  0026c	a1 00 00 00 00	 mov	 eax, DWORD PTR ?overload_invalid_int_type_message@@3PBDB ; overload_invalid_int_type_message
  00271	50		 push	 eax
  00272	e8 00 00 00 00	 call	 ?process_assert@@YGXPBD0H@Z ; process_assert
  00277	c7 45 88 00 00
	00 00		 mov	 DWORD PTR tv191[ebp], 0
$LN21@routed_veh:
  0027e	6a 02		 push	 2
  00280	68 97 00 00 00	 push	 151			; 00000097H
  00285	8b 4d 08	 mov	 ecx, DWORD PTR _en$[ebp]
  00288	51		 push	 ecx
  00289	69 55 8c 5c 04
	00 00		 imul	 edx, DWORD PTR tv183[ebp], 1116
  00290	8b 45 88	 mov	 eax, DWORD PTR tv191[ebp]
  00293	8b 8c 82 00 00
	00 00		 mov	 ecx, DWORD PTR ?fn_set_local_entity_int_value@@3PAY0BBH@P6GXPAUENTITY@@W4INT_TYPES@@H@ZA[edx+eax*4]
  0029a	ff d1		 call	 ecx

; 461  : 
; 462  : 		return;

  0029c	e9 a8 03 00 00	 jmp	 $LN1@routed_veh
$LN4@routed_veh:

; 463  : 	}
; 464  : 
; 465  : 	//
; 466  : 	// work out new position
; 467  : 	//
; 468  : 
; 469  : 	new_pos.x = pos->x + (velocity->x * get_entity_movement_delta_time());

  002a1	8b 45 e0	 mov	 eax, DWORD PTR _velocity$[ebp]
  002a4	f3 0f 10 00	 movss	 xmm0, DWORD PTR [eax]
  002a8	f3 0f 59 05 00
	00 00 00	 mulss	 xmm0, DWORD PTR ?system_delta_time@@3MA
  002b0	8b 4d e4	 mov	 ecx, DWORD PTR _pos$[ebp]
  002b3	f3 0f 58 01	 addss	 xmm0, DWORD PTR [ecx]
  002b7	f3 0f 11 45 d4	 movss	 DWORD PTR _new_pos$[ebp], xmm0

; 470  : 	new_pos.z = pos->z + (velocity->z * get_entity_movement_delta_time());

  002bc	8b 45 e0	 mov	 eax, DWORD PTR _velocity$[ebp]
  002bf	f3 0f 10 40 08	 movss	 xmm0, DWORD PTR [eax+8]
  002c4	f3 0f 59 05 00
	00 00 00	 mulss	 xmm0, DWORD PTR ?system_delta_time@@3MA
  002cc	8b 4d e4	 mov	 ecx, DWORD PTR _pos$[ebp]
  002cf	f3 0f 58 41 08	 addss	 xmm0, DWORD PTR [ecx+8]
  002d4	f3 0f 11 45 dc	 movss	 DWORD PTR _new_pos$[ebp+8], xmm0

; 471  : 
; 472  : 	get_3d_terrain_point_data (new_pos.x, new_pos.z, &raw->vh.terrain_info);

  002d9	8b 45 fc	 mov	 eax, DWORD PTR _raw$[ebp]
  002dc	05 4c 01 00 00	 add	 eax, 332		; 0000014cH
  002e1	50		 push	 eax
  002e2	51		 push	 ecx
  002e3	f3 0f 10 45 dc	 movss	 xmm0, DWORD PTR _new_pos$[ebp+8]
  002e8	f3 0f 11 04 24	 movss	 DWORD PTR [esp], xmm0
  002ed	51		 push	 ecx
  002ee	f3 0f 10 45 d4	 movss	 xmm0, DWORD PTR _new_pos$[ebp]
  002f3	f3 0f 11 04 24	 movss	 DWORD PTR [esp], xmm0
  002f8	e8 00 00 00 00	 call	 ?get_3d_terrain_point_data@@YGMMMPAUTERRAIN_3D_POINT_DATA@@@Z ; get_3d_terrain_point_data
  002fd	dd d8		 fstp	 ST(0)

; 473  : 
; 474  : 	terrain_elevation = get_3d_terrain_point_data_elevation (&raw->vh.terrain_info);

  002ff	8b 45 fc	 mov	 eax, DWORD PTR _raw$[ebp]
  00302	05 4c 01 00 00	 add	 eax, 332		; 0000014cH
  00307	50		 push	 eax
  00308	e8 00 00 00 00	 call	 ?get_3d_terrain_point_data_elevation@@YGMPAUTERRAIN_3D_POINT_DATA@@@Z ; get_3d_terrain_point_data_elevation
  0030d	d9 5d e8	 fstp	 DWORD PTR _terrain_elevation$[ebp]

; 475  : 
; 476  : 	new_pos.y = terrain_elevation + get_local_entity_float_value (en, FLOAT_TYPE_CENTRE_OF_GRAVITY_TO_GROUND_DISTANCE);

  00310	83 7d 08 00	 cmp	 DWORD PTR _en$[ebp], 0
  00314	74 0a		 je	 SHORT $LN22@routed_veh
  00316	8b 45 08	 mov	 eax, DWORD PTR _en$[ebp]
  00319	8b 08		 mov	 ecx, DWORD PTR [eax]
  0031b	89 4d 8c	 mov	 DWORD PTR tv220[ebp], ecx
  0031e	eb 21		 jmp	 SHORT $LN23@routed_veh
$LN22@routed_veh:
  00320	8b 15 00 00 00
	00		 mov	 edx, DWORD PTR ?__LINE__Var@?0??routed_vehicle_death_movement@@YGXPAUENTITY@@@Z@4JA
  00326	83 c2 3e	 add	 edx, 62			; 0000003eH
  00329	52		 push	 edx
  0032a	68 00 00 00 00	 push	 OFFSET ??_C@_0FD@CFOFJMFL@c?3?2users?2nhv90?2projects?2eech?2ap@
  0032f	a1 00 00 00 00	 mov	 eax, DWORD PTR ?null_entity_pointer_message@@3PBDB ; null_entity_pointer_message
  00334	50		 push	 eax
  00335	e8 00 00 00 00	 call	 ?process_assert@@YGXPBD0H@Z ; process_assert
  0033a	c7 45 8c 00 00
	00 00		 mov	 DWORD PTR tv220[ebp], 0
$LN23@routed_veh:
  00341	b9 01 00 00 00	 mov	 ecx, 1
  00346	85 c9		 test	 ecx, ecx
  00348	74 09		 je	 SHORT $LN24@routed_veh
  0034a	c7 45 88 12 00
	00 00		 mov	 DWORD PTR tv228[ebp], 18 ; 00000012H
  00351	eb 21		 jmp	 SHORT $LN25@routed_veh
$LN24@routed_veh:
  00353	8b 15 00 00 00
	00		 mov	 edx, DWORD PTR ?__LINE__Var@?0??routed_vehicle_death_movement@@YGXPAUENTITY@@@Z@4JA
  00359	83 c2 3e	 add	 edx, 62			; 0000003eH
  0035c	52		 push	 edx
  0035d	68 00 00 00 00	 push	 OFFSET ??_C@_0FD@CFOFJMFL@c?3?2users?2nhv90?2projects?2eech?2ap@
  00362	a1 00 00 00 00	 mov	 eax, DWORD PTR ?overload_invalid_float_type_message@@3PBDB ; overload_invalid_float_type_message
  00367	50		 push	 eax
  00368	e8 00 00 00 00	 call	 ?process_assert@@YGXPBD0H@Z ; process_assert
  0036d	c7 45 88 00 00
	00 00		 mov	 DWORD PTR tv228[ebp], 0
$LN25@routed_veh:
  00374	6a 12		 push	 18			; 00000012H
  00376	8b 4d 08	 mov	 ecx, DWORD PTR _en$[ebp]
  00379	51		 push	 ecx
  0037a	69 55 8c bc 02
	00 00		 imul	 edx, DWORD PTR tv220[ebp], 700
  00381	8b 45 88	 mov	 eax, DWORD PTR tv228[ebp]
  00384	8b 8c 82 00 00
	00 00		 mov	 ecx, DWORD PTR ?fn_get_local_entity_float_value@@3PAY0KP@P6GMPAUENTITY@@W4FLOAT_TYPES@@@ZA[edx+eax*4]
  0038b	ff d1		 call	 ecx
  0038d	d9 5d 84	 fstp	 DWORD PTR tv437[ebp]
  00390	f3 0f 10 45 84	 movss	 xmm0, DWORD PTR tv437[ebp]
  00395	f3 0f 58 45 e8	 addss	 xmm0, DWORD PTR _terrain_elevation$[ebp]
  0039a	f3 0f 11 45 d8	 movss	 DWORD PTR _new_pos$[ebp+4], xmm0

; 477  : 
; 478  : 	//
; 479  : 	// update velocity
; 480  : 	//
; 481  : 
; 482  : 	normalise_3d_vector_given_magnitude (velocity, speed);

  0039f	51		 push	 ecx
  003a0	f3 0f 10 45 ec	 movss	 xmm0, DWORD PTR _speed$[ebp]
  003a5	f3 0f 11 04 24	 movss	 DWORD PTR [esp], xmm0
  003aa	8b 45 e0	 mov	 eax, DWORD PTR _velocity$[ebp]
  003ad	50		 push	 eax
  003ae	e8 00 00 00 00	 call	 ?normalise_3d_vector_given_magnitude@@YGXPAUVEC3D@@M@Z ; normalise_3d_vector_given_magnitude

; 483  : 
; 484  : 	speed -= (4.0f * get_entity_movement_delta_time());

  003b3	f3 0f 10 05 00
	00 00 00	 movss	 xmm0, DWORD PTR __real@40800000
  003bb	f3 0f 59 05 00
	00 00 00	 mulss	 xmm0, DWORD PTR ?system_delta_time@@3MA
  003c3	f3 0f 10 4d ec	 movss	 xmm1, DWORD PTR _speed$[ebp]
  003c8	f3 0f 5c c8	 subss	 xmm1, xmm0
  003cc	f3 0f 11 4d ec	 movss	 DWORD PTR _speed$[ebp], xmm1

; 485  : 
; 486  : 	speed = max (0.0f, speed);

  003d1	0f 57 c0	 xorps	 xmm0, xmm0
  003d4	f3 0f 11 45 90	 movss	 DWORD PTR $T1[ebp], xmm0
  003d9	8d 45 ec	 lea	 eax, DWORD PTR _speed$[ebp]
  003dc	50		 push	 eax
  003dd	8d 4d 90	 lea	 ecx, DWORD PTR $T1[ebp]
  003e0	51		 push	 ecx
  003e1	e8 00 00 00 00	 call	 ??$max@M@std@@YGABMABM0@Z ; std::max<float>
  003e6	f3 0f 10 00	 movss	 xmm0, DWORD PTR [eax]
  003ea	f3 0f 11 45 ec	 movss	 DWORD PTR _speed$[ebp], xmm0

; 487  : 
; 488  : 	set_local_entity_float_value (en, FLOAT_TYPE_VELOCITY, speed);

  003ef	83 7d 08 00	 cmp	 DWORD PTR _en$[ebp], 0
  003f3	74 0a		 je	 SHORT $LN26@routed_veh
  003f5	8b 45 08	 mov	 eax, DWORD PTR _en$[ebp]
  003f8	8b 08		 mov	 ecx, DWORD PTR [eax]
  003fa	89 4d 8c	 mov	 DWORD PTR tv248[ebp], ecx
  003fd	eb 21		 jmp	 SHORT $LN27@routed_veh
$LN26@routed_veh:
  003ff	8b 15 00 00 00
	00		 mov	 edx, DWORD PTR ?__LINE__Var@?0??routed_vehicle_death_movement@@YGXPAUENTITY@@@Z@4JA
  00405	83 c2 4a	 add	 edx, 74			; 0000004aH
  00408	52		 push	 edx
  00409	68 00 00 00 00	 push	 OFFSET ??_C@_0FD@CFOFJMFL@c?3?2users?2nhv90?2projects?2eech?2ap@
  0040e	a1 00 00 00 00	 mov	 eax, DWORD PTR ?null_entity_pointer_message@@3PBDB ; null_entity_pointer_message
  00413	50		 push	 eax
  00414	e8 00 00 00 00	 call	 ?process_assert@@YGXPBD0H@Z ; process_assert
  00419	c7 45 8c 00 00
	00 00		 mov	 DWORD PTR tv248[ebp], 0
$LN27@routed_veh:
  00420	b9 01 00 00 00	 mov	 ecx, 1
  00425	85 c9		 test	 ecx, ecx
  00427	74 09		 je	 SHORT $LN28@routed_veh
  00429	c7 45 88 93 00
	00 00		 mov	 DWORD PTR tv256[ebp], 147 ; 00000093H
  00430	eb 21		 jmp	 SHORT $LN29@routed_veh
$LN28@routed_veh:
  00432	8b 15 00 00 00
	00		 mov	 edx, DWORD PTR ?__LINE__Var@?0??routed_vehicle_death_movement@@YGXPAUENTITY@@@Z@4JA
  00438	83 c2 4a	 add	 edx, 74			; 0000004aH
  0043b	52		 push	 edx
  0043c	68 00 00 00 00	 push	 OFFSET ??_C@_0FD@CFOFJMFL@c?3?2users?2nhv90?2projects?2eech?2ap@
  00441	a1 00 00 00 00	 mov	 eax, DWORD PTR ?overload_invalid_float_type_message@@3PBDB ; overload_invalid_float_type_message
  00446	50		 push	 eax
  00447	e8 00 00 00 00	 call	 ?process_assert@@YGXPBD0H@Z ; process_assert
  0044c	c7 45 88 00 00
	00 00		 mov	 DWORD PTR tv256[ebp], 0
$LN29@routed_veh:
  00453	51		 push	 ecx
  00454	f3 0f 10 45 ec	 movss	 xmm0, DWORD PTR _speed$[ebp]
  00459	f3 0f 11 04 24	 movss	 DWORD PTR [esp], xmm0
  0045e	68 93 00 00 00	 push	 147			; 00000093H
  00463	8b 4d 08	 mov	 ecx, DWORD PTR _en$[ebp]
  00466	51		 push	 ecx
  00467	69 55 8c bc 02
	00 00		 imul	 edx, DWORD PTR tv248[ebp], 700
  0046e	8b 45 88	 mov	 eax, DWORD PTR tv256[ebp]
  00471	8b 8c 82 00 00
	00 00		 mov	 ecx, DWORD PTR ?fn_set_local_entity_float_value@@3PAY0KP@P6GXPAUENTITY@@W4FLOAT_TYPES@@M@ZA[edx+eax*4]
  00478	ff d1		 call	 ecx

; 489  : 
; 490  : 	velocity->x *= speed;

  0047a	8b 45 e0	 mov	 eax, DWORD PTR _velocity$[ebp]
  0047d	f3 0f 10 00	 movss	 xmm0, DWORD PTR [eax]
  00481	f3 0f 59 45 ec	 mulss	 xmm0, DWORD PTR _speed$[ebp]
  00486	8b 4d e0	 mov	 ecx, DWORD PTR _velocity$[ebp]
  00489	f3 0f 11 01	 movss	 DWORD PTR [ecx], xmm0

; 491  : 	velocity->y *= speed;

  0048d	8b 45 e0	 mov	 eax, DWORD PTR _velocity$[ebp]
  00490	f3 0f 10 40 04	 movss	 xmm0, DWORD PTR [eax+4]
  00495	f3 0f 59 45 ec	 mulss	 xmm0, DWORD PTR _speed$[ebp]
  0049a	8b 4d e0	 mov	 ecx, DWORD PTR _velocity$[ebp]
  0049d	f3 0f 11 41 04	 movss	 DWORD PTR [ecx+4], xmm0

; 492  : 	velocity->z *= speed;

  004a2	8b 45 e0	 mov	 eax, DWORD PTR _velocity$[ebp]
  004a5	f3 0f 10 40 08	 movss	 xmm0, DWORD PTR [eax+8]
  004aa	f3 0f 59 45 ec	 mulss	 xmm0, DWORD PTR _speed$[ebp]
  004af	8b 4d e0	 mov	 ecx, DWORD PTR _velocity$[ebp]
  004b2	f3 0f 11 41 08	 movss	 DWORD PTR [ecx+8], xmm0

; 493  : 
; 494  : 	//
; 495  : 	// update attitude
; 496  : 	//
; 497  : 
; 498  : 	heading = get_heading_from_attitude_matrix (raw->vh.mob.attitude);

  004b7	b8 0c 00 00 00	 mov	 eax, 12			; 0000000cH
  004bc	d1 e0		 shl	 eax, 1
  004be	8b 4d fc	 mov	 ecx, DWORD PTR _raw$[ebp]
  004c1	8d 54 01 10	 lea	 edx, DWORD PTR [ecx+eax+16]
  004c5	b8 04 00 00 00	 mov	 eax, 4
  004ca	d1 e0		 shl	 eax, 1
  004cc	51		 push	 ecx
  004cd	f3 0f 10 04 02	 movss	 xmm0, DWORD PTR [edx+eax]
  004d2	f3 0f 11 04 24	 movss	 DWORD PTR [esp], xmm0
  004d7	b9 0c 00 00 00	 mov	 ecx, 12			; 0000000cH
  004dc	d1 e1		 shl	 ecx, 1
  004de	8b 55 fc	 mov	 edx, DWORD PTR _raw$[ebp]
  004e1	8d 44 0a 10	 lea	 eax, DWORD PTR [edx+ecx+16]
  004e5	b9 04 00 00 00	 mov	 ecx, 4
  004ea	6b d1 00	 imul	 edx, ecx, 0
  004ed	51		 push	 ecx
  004ee	f3 0f 10 04 10	 movss	 xmm0, DWORD PTR [eax+edx]
  004f3	f3 0f 11 04 24	 movss	 DWORD PTR [esp], xmm0
  004f8	e8 00 00 00 00	 call	 ?atan2@@YGMMM@Z		; atan2
  004fd	d9 5d f8	 fstp	 DWORD PTR _heading$[ebp]

; 499  : 
; 500  : 	pitch = get_pitch_from_attitude_matrix (raw->vh.mob.attitude);

  00500	b8 0c 00 00 00	 mov	 eax, 12			; 0000000cH
  00505	d1 e0		 shl	 eax, 1
  00507	8b 4d fc	 mov	 ecx, DWORD PTR _raw$[ebp]
  0050a	8d 54 01 10	 lea	 edx, DWORD PTR [ecx+eax+16]
  0050e	b8 04 00 00 00	 mov	 eax, 4
  00513	c1 e0 00	 shl	 eax, 0
  00516	51		 push	 ecx
  00517	f3 0f 10 04 02	 movss	 xmm0, DWORD PTR [edx+eax]
  0051c	f3 0f 11 04 24	 movss	 DWORD PTR [esp], xmm0
  00521	e8 00 00 00 00	 call	 ?asin@@YGMM@Z		; asin
  00526	d9 5d f4	 fstp	 DWORD PTR _pitch$[ebp]

; 501  : 
; 502  : 	roll = get_roll_from_attitude_matrix (raw->vh.mob.attitude);

  00529	b8 0c 00 00 00	 mov	 eax, 12			; 0000000cH
  0052e	c1 e0 00	 shl	 eax, 0
  00531	8b 4d fc	 mov	 ecx, DWORD PTR _raw$[ebp]
  00534	8d 54 01 10	 lea	 edx, DWORD PTR [ecx+eax+16]
  00538	b8 04 00 00 00	 mov	 eax, 4
  0053d	c1 e0 00	 shl	 eax, 0
  00540	51		 push	 ecx
  00541	f3 0f 10 04 02	 movss	 xmm0, DWORD PTR [edx+eax]
  00546	f3 0f 11 04 24	 movss	 DWORD PTR [esp], xmm0
  0054b	b9 0c 00 00 00	 mov	 ecx, 12			; 0000000cH
  00550	6b d1 00	 imul	 edx, ecx, 0
  00553	8b 45 fc	 mov	 eax, DWORD PTR _raw$[ebp]
  00556	8d 4c 10 10	 lea	 ecx, DWORD PTR [eax+edx+16]
  0055a	ba 04 00 00 00	 mov	 edx, 4
  0055f	c1 e2 00	 shl	 edx, 0
  00562	f3 0f 10 04 11	 movss	 xmm0, DWORD PTR [ecx+edx]
  00567	0f 57 05 00 00
	00 00		 xorps	 xmm0, DWORD PTR __xmm@80000000800000008000000080000000
  0056e	51		 push	 ecx
  0056f	f3 0f 11 04 24	 movss	 DWORD PTR [esp], xmm0
  00574	e8 00 00 00 00	 call	 ?atan2@@YGMMM@Z		; atan2
  00579	d9 5d f0	 fstp	 DWORD PTR _roll$[ebp]

; 503  : 
; 504  : 	heading -= (PI * 0.1 * get_entity_movement_delta_time());

  0057c	f3 0f 5a 05 00
	00 00 00	 cvtss2sd xmm0, DWORD PTR ?system_delta_time@@3MA
  00584	f2 0f 59 05 00
	00 00 00	 mulsd	 xmm0, QWORD PTR __real@3fd41b2f80000000
  0058c	f3 0f 5a 4d f8	 cvtss2sd xmm1, DWORD PTR _heading$[ebp]
  00591	f2 0f 5c c8	 subsd	 xmm1, xmm0
  00595	f2 0f 5a c1	 cvtsd2ss xmm0, xmm1
  00599	f3 0f 11 45 f8	 movss	 DWORD PTR _heading$[ebp], xmm0

; 505  : 
; 506  : 	get_3d_transformation_matrix (raw->vh.mob.attitude, heading, pitch, roll);

  0059e	51		 push	 ecx
  0059f	f3 0f 10 45 f0	 movss	 xmm0, DWORD PTR _roll$[ebp]
  005a4	f3 0f 11 04 24	 movss	 DWORD PTR [esp], xmm0
  005a9	51		 push	 ecx
  005aa	f3 0f 10 45 f4	 movss	 xmm0, DWORD PTR _pitch$[ebp]
  005af	f3 0f 11 04 24	 movss	 DWORD PTR [esp], xmm0
  005b4	51		 push	 ecx
  005b5	f3 0f 10 45 f8	 movss	 xmm0, DWORD PTR _heading$[ebp]
  005ba	f3 0f 11 04 24	 movss	 DWORD PTR [esp], xmm0
  005bf	8b 45 fc	 mov	 eax, DWORD PTR _raw$[ebp]
  005c2	83 c0 10	 add	 eax, 16			; 00000010H
  005c5	50		 push	 eax
  005c6	e8 00 00 00 00	 call	 ?get_3d_transformation_matrix@@YGXQAY02MMMM@Z ; get_3d_transformation_matrix

; 507  : 
; 508  : 	//
; 509  : 	// set new position
; 510  : 	//
; 511  : 
; 512  : 	set_local_entity_vec3d (en, VEC3D_TYPE_POSITION, &new_pos);

  005cb	83 7d 08 00	 cmp	 DWORD PTR _en$[ebp], 0
  005cf	74 0a		 je	 SHORT $LN30@routed_veh
  005d1	8b 45 08	 mov	 eax, DWORD PTR _en$[ebp]
  005d4	8b 08		 mov	 ecx, DWORD PTR [eax]
  005d6	89 4d 8c	 mov	 DWORD PTR tv333[ebp], ecx
  005d9	eb 21		 jmp	 SHORT $LN31@routed_veh
$LN30@routed_veh:
  005db	8b 15 00 00 00
	00		 mov	 edx, DWORD PTR ?__LINE__Var@?0??routed_vehicle_death_movement@@YGXPAUENTITY@@@Z@4JA
  005e1	83 c2 62	 add	 edx, 98			; 00000062H
  005e4	52		 push	 edx
  005e5	68 00 00 00 00	 push	 OFFSET ??_C@_0FD@CFOFJMFL@c?3?2users?2nhv90?2projects?2eech?2ap@
  005ea	a1 00 00 00 00	 mov	 eax, DWORD PTR ?null_entity_pointer_message@@3PBDB ; null_entity_pointer_message
  005ef	50		 push	 eax
  005f0	e8 00 00 00 00	 call	 ?process_assert@@YGXPBD0H@Z ; process_assert
  005f5	c7 45 8c 00 00
	00 00		 mov	 DWORD PTR tv333[ebp], 0
$LN31@routed_veh:
  005fc	b9 01 00 00 00	 mov	 ecx, 1
  00601	85 c9		 test	 ecx, ecx
  00603	74 09		 je	 SHORT $LN32@routed_veh
  00605	c7 45 88 08 00
	00 00		 mov	 DWORD PTR tv341[ebp], 8
  0060c	eb 21		 jmp	 SHORT $LN33@routed_veh
$LN32@routed_veh:
  0060e	8b 15 00 00 00
	00		 mov	 edx, DWORD PTR ?__LINE__Var@?0??routed_vehicle_death_movement@@YGXPAUENTITY@@@Z@4JA
  00614	83 c2 62	 add	 edx, 98			; 00000062H
  00617	52		 push	 edx
  00618	68 00 00 00 00	 push	 OFFSET ??_C@_0FD@CFOFJMFL@c?3?2users?2nhv90?2projects?2eech?2ap@
  0061d	a1 00 00 00 00	 mov	 eax, DWORD PTR ?overload_invalid_vec3d_type_message@@3PBDB ; overload_invalid_vec3d_type_message
  00622	50		 push	 eax
  00623	e8 00 00 00 00	 call	 ?process_assert@@YGXPBD0H@Z ; process_assert
  00628	c7 45 88 00 00
	00 00		 mov	 DWORD PTR tv341[ebp], 0
$LN33@routed_veh:
  0062f	8d 4d d4	 lea	 ecx, DWORD PTR _new_pos$[ebp]
  00632	51		 push	 ecx
  00633	6a 08		 push	 8
  00635	8b 55 08	 mov	 edx, DWORD PTR _en$[ebp]
  00638	52		 push	 edx
  00639	6b 45 8c 60	 imul	 eax, DWORD PTR tv333[ebp], 96
  0063d	8b 4d 88	 mov	 ecx, DWORD PTR tv341[ebp]
  00640	8b 94 88 00 00
	00 00		 mov	 edx, DWORD PTR ?fn_set_local_entity_vec3d@@3PAY0BI@P6GXPAUENTITY@@W4VEC3D_TYPES@@PAUVEC3D@@@ZA[eax+ecx*4]
  00647	ff d2		 call	 edx
$LN1@routed_veh:

; 513  : }

  00649	5f		 pop	 edi
  0064a	5e		 pop	 esi
  0064b	5b		 pop	 ebx
  0064c	8b e5		 mov	 esp, ebp
  0064e	5d		 pop	 ebp
  0064f	c2 04 00	 ret	 4
?routed_vehicle_death_movement@@YGXPAUENTITY@@@Z ENDP	; routed_vehicle_death_movement
_TEXT	ENDS
; Function compile flags: /Odtp /ZI
; File c:\users\nhv90\projects\eech\aphavoc\source\entity\mobile\vehicle\routed\rv_move.c
;	COMDAT ?routed_vehicle_movement@@YGXPAUENTITY@@@Z
_TEXT	SEGMENT
tv304 = -180						; size = 4
tv1478 = -176						; size = 8
tv1463 = -176						; size = 8
tv730 = -176						; size = 4
tv296 = -176						; size = 4
tv182 = -176						; size = 4
tv1485 = -172						; size = 8
tv981 = -172						; size = 4
tv947 = -172						; size = 4
tv809 = -172						; size = 4
tv732 = -172						; size = 8
tv708 = -172						; size = 4
tv687 = -172						; size = 4
tv584 = -172						; size = 4
tv559 = -172						; size = 4
tv523 = -172						; size = 4
tv505 = -172						; size = 4
tv438 = -172						; size = 4
tv411 = -172						; size = 4
tv392 = -172						; size = 4
tv373 = -172						; size = 4
tv349 = -172						; size = 4
tv326 = -172						; size = 4
tv280 = -172						; size = 4
tv259 = -172						; size = 4
tv241 = -172						; size = 4
tv219 = -172						; size = 4
tv195 = -172						; size = 4
tv176 = -172						; size = 4
tv157 = -172						; size = 4
tv137 = -172						; size = 4
tv79 = -172						; size = 4
tv1472 = -168						; size = 4
tv1457 = -168						; size = 4
tv973 = -168						; size = 4
tv939 = -168						; size = 4
tv802 = -168						; size = 4
tv700 = -168						; size = 4
tv679 = -168						; size = 4
tv576 = -168						; size = 4
tv551 = -168						; size = 4
tv516 = -168						; size = 4
tv497 = -168						; size = 4
tv430 = -168						; size = 4
tv404 = -168						; size = 4
tv385 = -168						; size = 4
tv365 = -168						; size = 4
tv341 = -168						; size = 4
tv318 = -168						; size = 4
tv272 = -168						; size = 4
tv252 = -168						; size = 4
tv233 = -168						; size = 4
tv211 = -168						; size = 4
tv188 = -168						; size = 4
tv169 = -168						; size = 4
tv149 = -168						; size = 4
tv129 = -168						; size = 4
tv71 = -168						; size = 4
$T1 = -164						; size = 4
_max_accel$2 = -96					; size = 4
_delta_velocity$3 = -92					; size = 4
_movement_distance$4 = -88				; size = 4
_old_pitch$5 = -84					; size = 4
_old_roll$6 = -80					; size = 4
_old_heading$7 = -76					; size = 4
_heading$ = -72						; size = 4
_pitch$ = -68						; size = 4
_roll$ = -64						; size = 4
_distance$ = -60					; size = 4
_new_pos$ = -56						; size = 12
_wp_pos$ = -44						; size = 12
_wp_vec$ = -32						; size = 12
_face_normal$ = -20					; size = 4
_guide$ = -16						; size = 4
_group$ = -12						; size = 4
_wp$ = -8						; size = 4
_raw$ = -4						; size = 4
_en$ = 8						; size = 4
?routed_vehicle_movement@@YGXPAUENTITY@@@Z PROC		; routed_vehicle_movement, COMDAT

; 98   : {

  00000	55		 push	 ebp
  00001	8b ec		 mov	 ebp, esp
  00003	81 ec b4 00 00
	00		 sub	 esp, 180		; 000000b4H
  00009	53		 push	 ebx
  0000a	56		 push	 esi
  0000b	57		 push	 edi

; 99   : 
; 100  : 	routed_vehicle
; 101  :       *raw;
; 102  : 
; 103  :    entity
; 104  :       *wp,
; 105  : 		*group,
; 106  : 		*guide;
; 107  : 
; 108  :    vec3d
; 109  :       *face_normal,
; 110  :       wp_vec,
; 111  :       wp_pos,
; 112  :       new_pos;
; 113  : 
; 114  :    float
; 115  : 		distance,
; 116  : 		roll,
; 117  : 		pitch,
; 118  : 		heading;
; 119  : 
; 120  :     raw = (routed_vehicle *) get_local_entity_data (en);

  0000c	8b 45 08	 mov	 eax, DWORD PTR _en$[ebp]
  0000f	8b 48 04	 mov	 ecx, DWORD PTR [eax+4]
  00012	89 4d fc	 mov	 DWORD PTR _raw$[ebp], ecx

; 121  : 
; 122  : 	guide = get_local_entity_parent (en, LIST_TYPE_FOLLOWER);

  00015	83 7d 08 00	 cmp	 DWORD PTR _en$[ebp], 0
  00019	74 0d		 je	 SHORT $LN34@routed_veh
  0001b	8b 45 08	 mov	 eax, DWORD PTR _en$[ebp]
  0001e	8b 08		 mov	 ecx, DWORD PTR [eax]
  00020	89 8d 58 ff ff
	ff		 mov	 DWORD PTR tv71[ebp], ecx
  00026	eb 24		 jmp	 SHORT $LN35@routed_veh
$LN34@routed_veh:
  00028	8b 15 00 00 00
	00		 mov	 edx, DWORD PTR ?__LINE__Var@?0??routed_vehicle_movement@@YGXPAUENTITY@@@Z@4JA
  0002e	83 c2 18	 add	 edx, 24			; 00000018H
  00031	52		 push	 edx
  00032	68 00 00 00 00	 push	 OFFSET ??_C@_0FD@CFOFJMFL@c?3?2users?2nhv90?2projects?2eech?2ap@
  00037	a1 00 00 00 00	 mov	 eax, DWORD PTR ?null_entity_pointer_message@@3PBDB ; null_entity_pointer_message
  0003c	50		 push	 eax
  0003d	e8 00 00 00 00	 call	 ?process_assert@@YGXPBD0H@Z ; process_assert
  00042	c7 85 58 ff ff
	ff 00 00 00 00	 mov	 DWORD PTR tv71[ebp], 0
$LN35@routed_veh:
  0004c	b9 01 00 00 00	 mov	 ecx, 1
  00051	85 c9		 test	 ecx, ecx
  00053	74 0c		 je	 SHORT $LN36@routed_veh
  00055	c7 85 54 ff ff
	ff 0d 00 00 00	 mov	 DWORD PTR tv79[ebp], 13	; 0000000dH
  0005f	eb 24		 jmp	 SHORT $LN37@routed_veh
$LN36@routed_veh:
  00061	8b 15 00 00 00
	00		 mov	 edx, DWORD PTR ?__LINE__Var@?0??routed_vehicle_movement@@YGXPAUENTITY@@@Z@4JA
  00067	83 c2 18	 add	 edx, 24			; 00000018H
  0006a	52		 push	 edx
  0006b	68 00 00 00 00	 push	 OFFSET ??_C@_0FD@CFOFJMFL@c?3?2users?2nhv90?2projects?2eech?2ap@
  00070	a1 00 00 00 00	 mov	 eax, DWORD PTR ?overload_invalid_list_type_message@@3PBDB ; overload_invalid_list_type_message
  00075	50		 push	 eax
  00076	e8 00 00 00 00	 call	 ?process_assert@@YGXPBD0H@Z ; process_assert
  0007b	c7 85 54 ff ff
	ff 00 00 00 00	 mov	 DWORD PTR tv79[ebp], 0
$LN37@routed_veh:
  00085	6a 0d		 push	 13			; 0000000dH
  00087	8b 4d 08	 mov	 ecx, DWORD PTR _en$[ebp]
  0008a	51		 push	 ecx
  0008b	69 95 58 ff ff
	ff b4 00 00 00	 imul	 edx, DWORD PTR tv71[ebp], 180
  00095	8b 85 54 ff ff
	ff		 mov	 eax, DWORD PTR tv79[ebp]
  0009b	8b 8c 82 00 00
	00 00		 mov	 ecx, DWORD PTR ?fn_get_local_entity_parent@@3PAY0CN@P6GPAUENTITY@@PAU1@W4LIST_TYPES@@@ZA[edx+eax*4]
  000a2	ff d1		 call	 ecx
  000a4	89 45 f0	 mov	 DWORD PTR _guide$[ebp], eax

; 123  : 
; 124  : 	if (!guide)

  000a7	83 7d f0 00	 cmp	 DWORD PTR _guide$[ebp], 0
  000ab	0f 85 de 06 00
	00		 jne	 $LN4@routed_veh

; 125  : 	{
; 126  : 
; 127  : 		if (raw->vh.mob.velocity != 0.0)

  000b1	8b 45 fc	 mov	 eax, DWORD PTR _raw$[ebp]
  000b4	f3 0f 5a 40 40	 cvtss2sd xmm0, DWORD PTR [eax+64]
  000b9	66 0f 2e 05 00
	00 00 00	 ucomisd xmm0, QWORD PTR __real@0000000000000000
  000c1	9f		 lahf
  000c2	f6 c4 44	 test	 ah, 68			; 00000044H
  000c5	0f 8b 9b 00 00
	00		 jnp	 $LN5@routed_veh

; 128  : 		{
; 129  : 
; 130  : 			set_local_entity_float_value (en, FLOAT_TYPE_VELOCITY, 0.0);

  000cb	83 7d 08 00	 cmp	 DWORD PTR _en$[ebp], 0
  000cf	74 0d		 je	 SHORT $LN38@routed_veh
  000d1	8b 45 08	 mov	 eax, DWORD PTR _en$[ebp]
  000d4	8b 08		 mov	 ecx, DWORD PTR [eax]
  000d6	89 8d 58 ff ff
	ff		 mov	 DWORD PTR tv129[ebp], ecx
  000dc	eb 24		 jmp	 SHORT $LN39@routed_veh
$LN38@routed_veh:
  000de	8b 15 00 00 00
	00		 mov	 edx, DWORD PTR ?__LINE__Var@?0??routed_vehicle_movement@@YGXPAUENTITY@@@Z@4JA
  000e4	83 c2 20	 add	 edx, 32			; 00000020H
  000e7	52		 push	 edx
  000e8	68 00 00 00 00	 push	 OFFSET ??_C@_0FD@CFOFJMFL@c?3?2users?2nhv90?2projects?2eech?2ap@
  000ed	a1 00 00 00 00	 mov	 eax, DWORD PTR ?null_entity_pointer_message@@3PBDB ; null_entity_pointer_message
  000f2	50		 push	 eax
  000f3	e8 00 00 00 00	 call	 ?process_assert@@YGXPBD0H@Z ; process_assert
  000f8	c7 85 58 ff ff
	ff 00 00 00 00	 mov	 DWORD PTR tv129[ebp], 0
$LN39@routed_veh:
  00102	b9 01 00 00 00	 mov	 ecx, 1
  00107	85 c9		 test	 ecx, ecx
  00109	74 0c		 je	 SHORT $LN40@routed_veh
  0010b	c7 85 54 ff ff
	ff 93 00 00 00	 mov	 DWORD PTR tv137[ebp], 147 ; 00000093H
  00115	eb 24		 jmp	 SHORT $LN41@routed_veh
$LN40@routed_veh:
  00117	8b 15 00 00 00
	00		 mov	 edx, DWORD PTR ?__LINE__Var@?0??routed_vehicle_movement@@YGXPAUENTITY@@@Z@4JA
  0011d	83 c2 20	 add	 edx, 32			; 00000020H
  00120	52		 push	 edx
  00121	68 00 00 00 00	 push	 OFFSET ??_C@_0FD@CFOFJMFL@c?3?2users?2nhv90?2projects?2eech?2ap@
  00126	a1 00 00 00 00	 mov	 eax, DWORD PTR ?overload_invalid_float_type_message@@3PBDB ; overload_invalid_float_type_message
  0012b	50		 push	 eax
  0012c	e8 00 00 00 00	 call	 ?process_assert@@YGXPBD0H@Z ; process_assert
  00131	c7 85 54 ff ff
	ff 00 00 00 00	 mov	 DWORD PTR tv137[ebp], 0
$LN41@routed_veh:
  0013b	51		 push	 ecx
  0013c	0f 57 c0	 xorps	 xmm0, xmm0
  0013f	f3 0f 11 04 24	 movss	 DWORD PTR [esp], xmm0
  00144	68 93 00 00 00	 push	 147			; 00000093H
  00149	8b 4d 08	 mov	 ecx, DWORD PTR _en$[ebp]
  0014c	51		 push	 ecx
  0014d	69 95 58 ff ff
	ff bc 02 00 00	 imul	 edx, DWORD PTR tv129[ebp], 700
  00157	8b 85 54 ff ff
	ff		 mov	 eax, DWORD PTR tv137[ebp]
  0015d	8b 8c 82 00 00
	00 00		 mov	 ecx, DWORD PTR ?fn_set_local_entity_float_value@@3PAY0KP@P6GXPAUENTITY@@W4FLOAT_TYPES@@M@ZA[edx+eax*4]
  00164	ff d1		 call	 ecx
$LN5@routed_veh:

; 131  : 		}
; 132  : 
; 133  : 		group = get_local_entity_parent (en, LIST_TYPE_MEMBER);

  00166	83 7d 08 00	 cmp	 DWORD PTR _en$[ebp], 0
  0016a	74 0d		 je	 SHORT $LN42@routed_veh
  0016c	8b 45 08	 mov	 eax, DWORD PTR _en$[ebp]
  0016f	8b 08		 mov	 ecx, DWORD PTR [eax]
  00171	89 8d 58 ff ff
	ff		 mov	 DWORD PTR tv149[ebp], ecx
  00177	eb 24		 jmp	 SHORT $LN43@routed_veh
$LN42@routed_veh:
  00179	8b 15 00 00 00
	00		 mov	 edx, DWORD PTR ?__LINE__Var@?0??routed_vehicle_movement@@YGXPAUENTITY@@@Z@4JA
  0017f	83 c2 23	 add	 edx, 35			; 00000023H
  00182	52		 push	 edx
  00183	68 00 00 00 00	 push	 OFFSET ??_C@_0FD@CFOFJMFL@c?3?2users?2nhv90?2projects?2eech?2ap@
  00188	a1 00 00 00 00	 mov	 eax, DWORD PTR ?null_entity_pointer_message@@3PBDB ; null_entity_pointer_message
  0018d	50		 push	 eax
  0018e	e8 00 00 00 00	 call	 ?process_assert@@YGXPBD0H@Z ; process_assert
  00193	c7 85 58 ff ff
	ff 00 00 00 00	 mov	 DWORD PTR tv149[ebp], 0
$LN43@routed_veh:
  0019d	b9 01 00 00 00	 mov	 ecx, 1
  001a2	85 c9		 test	 ecx, ecx
  001a4	74 0c		 je	 SHORT $LN44@routed_veh
  001a6	c7 85 54 ff ff
	ff 19 00 00 00	 mov	 DWORD PTR tv157[ebp], 25 ; 00000019H
  001b0	eb 24		 jmp	 SHORT $LN45@routed_veh
$LN44@routed_veh:
  001b2	8b 15 00 00 00
	00		 mov	 edx, DWORD PTR ?__LINE__Var@?0??routed_vehicle_movement@@YGXPAUENTITY@@@Z@4JA
  001b8	83 c2 23	 add	 edx, 35			; 00000023H
  001bb	52		 push	 edx
  001bc	68 00 00 00 00	 push	 OFFSET ??_C@_0FD@CFOFJMFL@c?3?2users?2nhv90?2projects?2eech?2ap@
  001c1	a1 00 00 00 00	 mov	 eax, DWORD PTR ?overload_invalid_list_type_message@@3PBDB ; overload_invalid_list_type_message
  001c6	50		 push	 eax
  001c7	e8 00 00 00 00	 call	 ?process_assert@@YGXPBD0H@Z ; process_assert
  001cc	c7 85 54 ff ff
	ff 00 00 00 00	 mov	 DWORD PTR tv157[ebp], 0
$LN45@routed_veh:
  001d6	6a 19		 push	 25			; 00000019H
  001d8	8b 4d 08	 mov	 ecx, DWORD PTR _en$[ebp]
  001db	51		 push	 ecx
  001dc	69 95 58 ff ff
	ff b4 00 00 00	 imul	 edx, DWORD PTR tv149[ebp], 180
  001e6	8b 85 54 ff ff
	ff		 mov	 eax, DWORD PTR tv157[ebp]
  001ec	8b 8c 82 00 00
	00 00		 mov	 ecx, DWORD PTR ?fn_get_local_entity_parent@@3PAY0CN@P6GPAUENTITY@@PAU1@W4LIST_TYPES@@@ZA[edx+eax*4]
  001f3	ff d1		 call	 ecx
  001f5	89 45 f4	 mov	 DWORD PTR _group$[ebp], eax

; 134  : 
; 135  : 		if (group)

  001f8	83 7d f4 00	 cmp	 DWORD PTR _group$[ebp], 0
  001fc	0f 84 88 05 00
	00		 je	 $LN2@routed_veh

; 136  : 		{
; 137  : 
; 138  : 			switch (get_local_entity_int_value (group, INT_TYPE_GROUP_LIST_TYPE))

  00202	83 7d f4 00	 cmp	 DWORD PTR _group$[ebp], 0
  00206	74 0d		 je	 SHORT $LN46@routed_veh
  00208	8b 45 f4	 mov	 eax, DWORD PTR _group$[ebp]
  0020b	8b 08		 mov	 ecx, DWORD PTR [eax]
  0020d	89 8d 58 ff ff
	ff		 mov	 DWORD PTR tv169[ebp], ecx
  00213	eb 20		 jmp	 SHORT $LN47@routed_veh
$LN46@routed_veh:
  00215	68 8a 00 00 00	 push	 138			; 0000008aH
  0021a	68 00 00 00 00	 push	 OFFSET ??_C@_0FD@CFOFJMFL@c?3?2users?2nhv90?2projects?2eech?2ap@
  0021f	8b 15 00 00 00
	00		 mov	 edx, DWORD PTR ?null_entity_pointer_message@@3PBDB ; null_entity_pointer_message
  00225	52		 push	 edx
  00226	e8 00 00 00 00	 call	 ?process_assert@@YGXPBD0H@Z ; process_assert
  0022b	c7 85 58 ff ff
	ff 00 00 00 00	 mov	 DWORD PTR tv169[ebp], 0
$LN47@routed_veh:
  00235	b8 01 00 00 00	 mov	 eax, 1
  0023a	85 c0		 test	 eax, eax
  0023c	74 0c		 je	 SHORT $LN48@routed_veh
  0023e	c7 85 54 ff ff
	ff 49 00 00 00	 mov	 DWORD PTR tv176[ebp], 73 ; 00000049H
  00248	eb 20		 jmp	 SHORT $LN49@routed_veh
$LN48@routed_veh:
  0024a	68 8a 00 00 00	 push	 138			; 0000008aH
  0024f	68 00 00 00 00	 push	 OFFSET ??_C@_0FD@CFOFJMFL@c?3?2users?2nhv90?2projects?2eech?2ap@
  00254	8b 0d 00 00 00
	00		 mov	 ecx, DWORD PTR ?overload_invalid_int_type_message@@3PBDB ; overload_invalid_int_type_message
  0025a	51		 push	 ecx
  0025b	e8 00 00 00 00	 call	 ?process_assert@@YGXPBD0H@Z ; process_assert
  00260	c7 85 54 ff ff
	ff 00 00 00 00	 mov	 DWORD PTR tv176[ebp], 0
$LN49@routed_veh:
  0026a	6a 49		 push	 73			; 00000049H
  0026c	8b 55 f4	 mov	 edx, DWORD PTR _group$[ebp]
  0026f	52		 push	 edx
  00270	69 85 58 ff ff
	ff 5c 04 00 00	 imul	 eax, DWORD PTR tv169[ebp], 1116
  0027a	8b 8d 54 ff ff
	ff		 mov	 ecx, DWORD PTR tv176[ebp]
  00280	8b 94 88 00 00
	00 00		 mov	 edx, DWORD PTR ?fn_get_local_entity_int_value@@3PAY0BBH@P6GHPAUENTITY@@W4INT_TYPES@@@ZA[eax+ecx*4]
  00287	ff d2		 call	 edx
  00289	89 85 50 ff ff
	ff		 mov	 DWORD PTR tv182[ebp], eax
  0028f	83 bd 50 ff ff
	ff 14		 cmp	 DWORD PTR tv182[ebp], 20 ; 00000014H
  00296	0f 84 e1 01 00
	00		 je	 $LN9@routed_veh
  0029c	83 bd 50 ff ff
	ff 16		 cmp	 DWORD PTR tv182[ebp], 22 ; 00000016H
  002a3	74 05		 je	 SHORT $LN7@routed_veh
  002a5	e9 39 04 00 00	 jmp	 $LN11@routed_veh
$LN7@routed_veh:

; 139  : 			{
; 140  : 
; 141  : 				case LIST_TYPE_KEYSITE_GROUP:
; 142  : 				{
; 143  : 
; 144  : 					if (get_local_entity_int_value (en, INT_TYPE_OPERATIONAL_STATE) != OPERATIONAL_STATE_LANDED)

  002aa	83 7d 08 00	 cmp	 DWORD PTR _en$[ebp], 0
  002ae	74 0d		 je	 SHORT $LN50@routed_veh
  002b0	8b 45 08	 mov	 eax, DWORD PTR _en$[ebp]
  002b3	8b 08		 mov	 ecx, DWORD PTR [eax]
  002b5	89 8d 58 ff ff
	ff		 mov	 DWORD PTR tv188[ebp], ecx
  002bb	eb 20		 jmp	 SHORT $LN51@routed_veh
$LN50@routed_veh:
  002bd	68 90 00 00 00	 push	 144			; 00000090H
  002c2	68 00 00 00 00	 push	 OFFSET ??_C@_0FD@CFOFJMFL@c?3?2users?2nhv90?2projects?2eech?2ap@
  002c7	8b 15 00 00 00
	00		 mov	 edx, DWORD PTR ?null_entity_pointer_message@@3PBDB ; null_entity_pointer_message
  002cd	52		 push	 edx
  002ce	e8 00 00 00 00	 call	 ?process_assert@@YGXPBD0H@Z ; process_assert
  002d3	c7 85 58 ff ff
	ff 00 00 00 00	 mov	 DWORD PTR tv188[ebp], 0
$LN51@routed_veh:
  002dd	b8 01 00 00 00	 mov	 eax, 1
  002e2	85 c0		 test	 eax, eax
  002e4	74 0c		 je	 SHORT $LN52@routed_veh
  002e6	c7 85 54 ff ff
	ff 97 00 00 00	 mov	 DWORD PTR tv195[ebp], 151 ; 00000097H
  002f0	eb 20		 jmp	 SHORT $LN53@routed_veh
$LN52@routed_veh:
  002f2	68 90 00 00 00	 push	 144			; 00000090H
  002f7	68 00 00 00 00	 push	 OFFSET ??_C@_0FD@CFOFJMFL@c?3?2users?2nhv90?2projects?2eech?2ap@
  002fc	8b 0d 00 00 00
	00		 mov	 ecx, DWORD PTR ?overload_invalid_int_type_message@@3PBDB ; overload_invalid_int_type_message
  00302	51		 push	 ecx
  00303	e8 00 00 00 00	 call	 ?process_assert@@YGXPBD0H@Z ; process_assert
  00308	c7 85 54 ff ff
	ff 00 00 00 00	 mov	 DWORD PTR tv195[ebp], 0
$LN53@routed_veh:
  00312	68 97 00 00 00	 push	 151			; 00000097H
  00317	8b 55 08	 mov	 edx, DWORD PTR _en$[ebp]
  0031a	52		 push	 edx
  0031b	69 85 58 ff ff
	ff 5c 04 00 00	 imul	 eax, DWORD PTR tv188[ebp], 1116
  00325	8b 8d 54 ff ff
	ff		 mov	 ecx, DWORD PTR tv195[ebp]
  0032b	8b 94 88 00 00
	00 00		 mov	 edx, DWORD PTR ?fn_get_local_entity_int_value@@3PAY0BBH@P6GHPAUENTITY@@W4INT_TYPES@@@ZA[eax+ecx*4]
  00332	ff d2		 call	 edx
  00334	83 f8 04	 cmp	 eax, 4
  00337	0f 84 3b 01 00
	00		 je	 $LN8@routed_veh

; 145  : 					{
; 146  : 
; 147  : 						debug_log ("RV_MOVE: RV %s (%d) at keysite in incorrect state, setting to LANDED", get_local_entity_string (en, STRING_TYPE_FULL_NAME), get_local_entity_index (en));

  0033d	83 7d 08 00	 cmp	 DWORD PTR _en$[ebp], 0
  00341	74 0d		 je	 SHORT $LN54@routed_veh
  00343	8b 45 08	 mov	 eax, DWORD PTR _en$[ebp]
  00346	8b 08		 mov	 ecx, DWORD PTR [eax]
  00348	89 8d 58 ff ff
	ff		 mov	 DWORD PTR tv211[ebp], ecx
  0034e	eb 24		 jmp	 SHORT $LN55@routed_veh
$LN54@routed_veh:
  00350	8b 15 00 00 00
	00		 mov	 edx, DWORD PTR ?__LINE__Var@?0??routed_vehicle_movement@@YGXPAUENTITY@@@Z@4JA
  00356	83 c2 31	 add	 edx, 49			; 00000031H
  00359	52		 push	 edx
  0035a	68 00 00 00 00	 push	 OFFSET ??_C@_0FD@CFOFJMFL@c?3?2users?2nhv90?2projects?2eech?2ap@
  0035f	a1 00 00 00 00	 mov	 eax, DWORD PTR ?null_entity_pointer_message@@3PBDB ; null_entity_pointer_message
  00364	50		 push	 eax
  00365	e8 00 00 00 00	 call	 ?process_assert@@YGXPBD0H@Z ; process_assert
  0036a	c7 85 58 ff ff
	ff 00 00 00 00	 mov	 DWORD PTR tv211[ebp], 0
$LN55@routed_veh:
  00374	b9 01 00 00 00	 mov	 ecx, 1
  00379	85 c9		 test	 ecx, ecx
  0037b	74 0c		 je	 SHORT $LN56@routed_veh
  0037d	c7 85 54 ff ff
	ff 03 00 00 00	 mov	 DWORD PTR tv219[ebp], 3
  00387	eb 24		 jmp	 SHORT $LN57@routed_veh
$LN56@routed_veh:
  00389	8b 15 00 00 00
	00		 mov	 edx, DWORD PTR ?__LINE__Var@?0??routed_vehicle_movement@@YGXPAUENTITY@@@Z@4JA
  0038f	83 c2 31	 add	 edx, 49			; 00000031H
  00392	52		 push	 edx
  00393	68 00 00 00 00	 push	 OFFSET ??_C@_0FD@CFOFJMFL@c?3?2users?2nhv90?2projects?2eech?2ap@
  00398	a1 00 00 00 00	 mov	 eax, DWORD PTR ?overload_invalid_string_type_message@@3PBDB ; overload_invalid_string_type_message
  0039d	50		 push	 eax
  0039e	e8 00 00 00 00	 call	 ?process_assert@@YGXPBD0H@Z ; process_assert
  003a3	c7 85 54 ff ff
	ff 00 00 00 00	 mov	 DWORD PTR tv219[ebp], 0
$LN57@routed_veh:
  003ad	8b 4d 08	 mov	 ecx, DWORD PTR _en$[ebp]
  003b0	2b 0d 00 00 00
	00		 sub	 ecx, DWORD PTR ?entities@@3PAUENTITY@@A ; entities
  003b6	c1 f9 04	 sar	 ecx, 4
  003b9	51		 push	 ecx
  003ba	6a 03		 push	 3
  003bc	8b 55 08	 mov	 edx, DWORD PTR _en$[ebp]
  003bf	52		 push	 edx
  003c0	6b 85 58 ff ff
	ff 34		 imul	 eax, DWORD PTR tv211[ebp], 52
  003c7	8b 8d 54 ff ff
	ff		 mov	 ecx, DWORD PTR tv219[ebp]
  003cd	8b 94 88 00 00
	00 00		 mov	 edx, DWORD PTR ?fn_get_local_entity_string@@3PAY0N@P6GPBDPAUENTITY@@W4STRING_TYPES@@@ZA[eax+ecx*4]
  003d4	ff d2		 call	 edx
  003d6	50		 push	 eax
  003d7	68 00 00 00 00	 push	 OFFSET ??_C@_0EF@LFFEIDGF@RV_MOVE?3?5RV?5?$CFs?5?$CI?$CFd?$CJ?5at?5keysite?5@
  003dc	e8 00 00 00 00	 call	 ?debug_log@@YAXPBDZZ	; debug_log
  003e1	83 c4 0c	 add	 esp, 12			; 0000000cH

; 148  : 
; 149  : 						set_local_entity_int_value (en, INT_TYPE_OPERATIONAL_STATE, OPERATIONAL_STATE_LANDED);

  003e4	83 7d 08 00	 cmp	 DWORD PTR _en$[ebp], 0
  003e8	74 0d		 je	 SHORT $LN58@routed_veh
  003ea	8b 45 08	 mov	 eax, DWORD PTR _en$[ebp]
  003ed	8b 08		 mov	 ecx, DWORD PTR [eax]
  003ef	89 8d 58 ff ff
	ff		 mov	 DWORD PTR tv233[ebp], ecx
  003f5	eb 24		 jmp	 SHORT $LN59@routed_veh
$LN58@routed_veh:
  003f7	8b 15 00 00 00
	00		 mov	 edx, DWORD PTR ?__LINE__Var@?0??routed_vehicle_movement@@YGXPAUENTITY@@@Z@4JA
  003fd	83 c2 33	 add	 edx, 51			; 00000033H
  00400	52		 push	 edx
  00401	68 00 00 00 00	 push	 OFFSET ??_C@_0FD@CFOFJMFL@c?3?2users?2nhv90?2projects?2eech?2ap@
  00406	a1 00 00 00 00	 mov	 eax, DWORD PTR ?null_entity_pointer_message@@3PBDB ; null_entity_pointer_message
  0040b	50		 push	 eax
  0040c	e8 00 00 00 00	 call	 ?process_assert@@YGXPBD0H@Z ; process_assert
  00411	c7 85 58 ff ff
	ff 00 00 00 00	 mov	 DWORD PTR tv233[ebp], 0
$LN59@routed_veh:
  0041b	b9 01 00 00 00	 mov	 ecx, 1
  00420	85 c9		 test	 ecx, ecx
  00422	74 0c		 je	 SHORT $LN60@routed_veh
  00424	c7 85 54 ff ff
	ff 97 00 00 00	 mov	 DWORD PTR tv241[ebp], 151 ; 00000097H
  0042e	eb 24		 jmp	 SHORT $LN61@routed_veh
$LN60@routed_veh:
  00430	8b 15 00 00 00
	00		 mov	 edx, DWORD PTR ?__LINE__Var@?0??routed_vehicle_movement@@YGXPAUENTITY@@@Z@4JA
  00436	83 c2 33	 add	 edx, 51			; 00000033H
  00439	52		 push	 edx
  0043a	68 00 00 00 00	 push	 OFFSET ??_C@_0FD@CFOFJMFL@c?3?2users?2nhv90?2projects?2eech?2ap@
  0043f	a1 00 00 00 00	 mov	 eax, DWORD PTR ?overload_invalid_int_type_message@@3PBDB ; overload_invalid_int_type_message
  00444	50		 push	 eax
  00445	e8 00 00 00 00	 call	 ?process_assert@@YGXPBD0H@Z ; process_assert
  0044a	c7 85 54 ff ff
	ff 00 00 00 00	 mov	 DWORD PTR tv241[ebp], 0
$LN61@routed_veh:
  00454	6a 04		 push	 4
  00456	68 97 00 00 00	 push	 151			; 00000097H
  0045b	8b 4d 08	 mov	 ecx, DWORD PTR _en$[ebp]
  0045e	51		 push	 ecx
  0045f	69 95 58 ff ff
	ff 5c 04 00 00	 imul	 edx, DWORD PTR tv233[ebp], 1116
  00469	8b 85 54 ff ff
	ff		 mov	 eax, DWORD PTR tv241[ebp]
  0046f	8b 8c 82 00 00
	00 00		 mov	 ecx, DWORD PTR ?fn_set_local_entity_int_value@@3PAY0BBH@P6GXPAUENTITY@@W4INT_TYPES@@H@ZA[edx+eax*4]
  00476	ff d1		 call	 ecx
$LN8@routed_veh:

; 150  : 					}
; 151  : 
; 152  : 					break;

  00478	e9 0d 03 00 00	 jmp	 $LN2@routed_veh
$LN9@routed_veh:

; 153  : 				}
; 154  : 
; 155  : 				case LIST_TYPE_INDEPENDENT_GROUP:
; 156  : 				{
; 157  : 
; 158  : 					if (get_local_entity_int_value (en, INT_TYPE_OPERATIONAL_STATE) != OPERATIONAL_STATE_STOPPED)

  0047d	83 7d 08 00	 cmp	 DWORD PTR _en$[ebp], 0
  00481	74 0d		 je	 SHORT $LN62@routed_veh
  00483	8b 45 08	 mov	 eax, DWORD PTR _en$[ebp]
  00486	8b 08		 mov	 ecx, DWORD PTR [eax]
  00488	89 8d 58 ff ff
	ff		 mov	 DWORD PTR tv252[ebp], ecx
  0048e	eb 20		 jmp	 SHORT $LN63@routed_veh
$LN62@routed_veh:
  00490	68 9e 00 00 00	 push	 158			; 0000009eH
  00495	68 00 00 00 00	 push	 OFFSET ??_C@_0FD@CFOFJMFL@c?3?2users?2nhv90?2projects?2eech?2ap@
  0049a	8b 15 00 00 00
	00		 mov	 edx, DWORD PTR ?null_entity_pointer_message@@3PBDB ; null_entity_pointer_message
  004a0	52		 push	 edx
  004a1	e8 00 00 00 00	 call	 ?process_assert@@YGXPBD0H@Z ; process_assert
  004a6	c7 85 58 ff ff
	ff 00 00 00 00	 mov	 DWORD PTR tv252[ebp], 0
$LN63@routed_veh:
  004b0	b8 01 00 00 00	 mov	 eax, 1
  004b5	85 c0		 test	 eax, eax
  004b7	74 0c		 je	 SHORT $LN64@routed_veh
  004b9	c7 85 54 ff ff
	ff 97 00 00 00	 mov	 DWORD PTR tv259[ebp], 151 ; 00000097H
  004c3	eb 20		 jmp	 SHORT $LN65@routed_veh
$LN64@routed_veh:
  004c5	68 9e 00 00 00	 push	 158			; 0000009eH
  004ca	68 00 00 00 00	 push	 OFFSET ??_C@_0FD@CFOFJMFL@c?3?2users?2nhv90?2projects?2eech?2ap@
  004cf	8b 0d 00 00 00
	00		 mov	 ecx, DWORD PTR ?overload_invalid_int_type_message@@3PBDB ; overload_invalid_int_type_message
  004d5	51		 push	 ecx
  004d6	e8 00 00 00 00	 call	 ?process_assert@@YGXPBD0H@Z ; process_assert
  004db	c7 85 54 ff ff
	ff 00 00 00 00	 mov	 DWORD PTR tv259[ebp], 0
$LN65@routed_veh:
  004e5	68 97 00 00 00	 push	 151			; 00000097H
  004ea	8b 55 08	 mov	 edx, DWORD PTR _en$[ebp]
  004ed	52		 push	 edx
  004ee	69 85 58 ff ff
	ff 5c 04 00 00	 imul	 eax, DWORD PTR tv252[ebp], 1116
  004f8	8b 8d 54 ff ff
	ff		 mov	 ecx, DWORD PTR tv259[ebp]
  004fe	8b 94 88 00 00
	00 00		 mov	 edx, DWORD PTR ?fn_get_local_entity_int_value@@3PAY0BBH@P6GHPAUENTITY@@W4INT_TYPES@@@ZA[eax+ecx*4]
  00505	ff d2		 call	 edx
  00507	83 f8 08	 cmp	 eax, 8
  0050a	0f 84 ce 01 00
	00		 je	 $LN10@routed_veh

; 159  : 					{
; 160  : 
; 161  : 						debug_log ("RV_MOVE: RV %s (%d) at road node in incorrect state (%d), setting to STOPPED", get_local_entity_string (en, STRING_TYPE_FULL_NAME), get_local_entity_index (en), get_local_entity_int_value (en, INT_TYPE_OPERATIONAL_STATE));

  00510	83 7d 08 00	 cmp	 DWORD PTR _en$[ebp], 0
  00514	74 0d		 je	 SHORT $LN66@routed_veh
  00516	8b 45 08	 mov	 eax, DWORD PTR _en$[ebp]
  00519	8b 08		 mov	 ecx, DWORD PTR [eax]
  0051b	89 8d 58 ff ff
	ff		 mov	 DWORD PTR tv272[ebp], ecx
  00521	eb 24		 jmp	 SHORT $LN67@routed_veh
$LN66@routed_veh:
  00523	8b 15 00 00 00
	00		 mov	 edx, DWORD PTR ?__LINE__Var@?0??routed_vehicle_movement@@YGXPAUENTITY@@@Z@4JA
  00529	83 c2 3f	 add	 edx, 63			; 0000003fH
  0052c	52		 push	 edx
  0052d	68 00 00 00 00	 push	 OFFSET ??_C@_0FD@CFOFJMFL@c?3?2users?2nhv90?2projects?2eech?2ap@
  00532	a1 00 00 00 00	 mov	 eax, DWORD PTR ?null_entity_pointer_message@@3PBDB ; null_entity_pointer_message
  00537	50		 push	 eax
  00538	e8 00 00 00 00	 call	 ?process_assert@@YGXPBD0H@Z ; process_assert
  0053d	c7 85 58 ff ff
	ff 00 00 00 00	 mov	 DWORD PTR tv272[ebp], 0
$LN67@routed_veh:
  00547	b9 01 00 00 00	 mov	 ecx, 1
  0054c	85 c9		 test	 ecx, ecx
  0054e	74 0c		 je	 SHORT $LN68@routed_veh
  00550	c7 85 54 ff ff
	ff 97 00 00 00	 mov	 DWORD PTR tv280[ebp], 151 ; 00000097H
  0055a	eb 24		 jmp	 SHORT $LN69@routed_veh
$LN68@routed_veh:
  0055c	8b 15 00 00 00
	00		 mov	 edx, DWORD PTR ?__LINE__Var@?0??routed_vehicle_movement@@YGXPAUENTITY@@@Z@4JA
  00562	83 c2 3f	 add	 edx, 63			; 0000003fH
  00565	52		 push	 edx
  00566	68 00 00 00 00	 push	 OFFSET ??_C@_0FD@CFOFJMFL@c?3?2users?2nhv90?2projects?2eech?2ap@
  0056b	a1 00 00 00 00	 mov	 eax, DWORD PTR ?overload_invalid_int_type_message@@3PBDB ; overload_invalid_int_type_message
  00570	50		 push	 eax
  00571	e8 00 00 00 00	 call	 ?process_assert@@YGXPBD0H@Z ; process_assert
  00576	c7 85 54 ff ff
	ff 00 00 00 00	 mov	 DWORD PTR tv280[ebp], 0
$LN69@routed_veh:
  00580	83 7d 08 00	 cmp	 DWORD PTR _en$[ebp], 0
  00584	74 0d		 je	 SHORT $LN70@routed_veh
  00586	8b 4d 08	 mov	 ecx, DWORD PTR _en$[ebp]
  00589	8b 11		 mov	 edx, DWORD PTR [ecx]
  0058b	89 95 50 ff ff
	ff		 mov	 DWORD PTR tv296[ebp], edx
  00591	eb 24		 jmp	 SHORT $LN71@routed_veh
$LN70@routed_veh:
  00593	a1 00 00 00 00	 mov	 eax, DWORD PTR ?__LINE__Var@?0??routed_vehicle_movement@@YGXPAUENTITY@@@Z@4JA
  00598	83 c0 3f	 add	 eax, 63			; 0000003fH
  0059b	50		 push	 eax
  0059c	68 00 00 00 00	 push	 OFFSET ??_C@_0FD@CFOFJMFL@c?3?2users?2nhv90?2projects?2eech?2ap@
  005a1	8b 0d 00 00 00
	00		 mov	 ecx, DWORD PTR ?null_entity_pointer_message@@3PBDB ; null_entity_pointer_message
  005a7	51		 push	 ecx
  005a8	e8 00 00 00 00	 call	 ?process_assert@@YGXPBD0H@Z ; process_assert
  005ad	c7 85 50 ff ff
	ff 00 00 00 00	 mov	 DWORD PTR tv296[ebp], 0
$LN71@routed_veh:
  005b7	ba 01 00 00 00	 mov	 edx, 1
  005bc	85 d2		 test	 edx, edx
  005be	74 0c		 je	 SHORT $LN72@routed_veh
  005c0	c7 85 4c ff ff
	ff 03 00 00 00	 mov	 DWORD PTR tv304[ebp], 3
  005ca	eb 24		 jmp	 SHORT $LN73@routed_veh
$LN72@routed_veh:
  005cc	a1 00 00 00 00	 mov	 eax, DWORD PTR ?__LINE__Var@?0??routed_vehicle_movement@@YGXPAUENTITY@@@Z@4JA
  005d1	83 c0 3f	 add	 eax, 63			; 0000003fH
  005d4	50		 push	 eax
  005d5	68 00 00 00 00	 push	 OFFSET ??_C@_0FD@CFOFJMFL@c?3?2users?2nhv90?2projects?2eech?2ap@
  005da	8b 0d 00 00 00
	00		 mov	 ecx, DWORD PTR ?overload_invalid_string_type_message@@3PBDB ; overload_invalid_string_type_message
  005e0	51		 push	 ecx
  005e1	e8 00 00 00 00	 call	 ?process_assert@@YGXPBD0H@Z ; process_assert
  005e6	c7 85 4c ff ff
	ff 00 00 00 00	 mov	 DWORD PTR tv304[ebp], 0
$LN73@routed_veh:
  005f0	68 97 00 00 00	 push	 151			; 00000097H
  005f5	8b 55 08	 mov	 edx, DWORD PTR _en$[ebp]
  005f8	52		 push	 edx
  005f9	69 85 58 ff ff
	ff 5c 04 00 00	 imul	 eax, DWORD PTR tv272[ebp], 1116
  00603	8b 8d 54 ff ff
	ff		 mov	 ecx, DWORD PTR tv280[ebp]
  00609	8b 94 88 00 00
	00 00		 mov	 edx, DWORD PTR ?fn_get_local_entity_int_value@@3PAY0BBH@P6GHPAUENTITY@@W4INT_TYPES@@@ZA[eax+ecx*4]
  00610	ff d2		 call	 edx
  00612	50		 push	 eax
  00613	8b 45 08	 mov	 eax, DWORD PTR _en$[ebp]
  00616	2b 05 00 00 00
	00		 sub	 eax, DWORD PTR ?entities@@3PAUENTITY@@A ; entities
  0061c	c1 f8 04	 sar	 eax, 4
  0061f	50		 push	 eax
  00620	6a 03		 push	 3
  00622	8b 4d 08	 mov	 ecx, DWORD PTR _en$[ebp]
  00625	51		 push	 ecx
  00626	6b 95 50 ff ff
	ff 34		 imul	 edx, DWORD PTR tv296[ebp], 52
  0062d	8b 85 4c ff ff
	ff		 mov	 eax, DWORD PTR tv304[ebp]
  00633	8b 8c 82 00 00
	00 00		 mov	 ecx, DWORD PTR ?fn_get_local_entity_string@@3PAY0N@P6GPBDPAUENTITY@@W4STRING_TYPES@@@ZA[edx+eax*4]
  0063a	ff d1		 call	 ecx
  0063c	50		 push	 eax
  0063d	68 00 00 00 00	 push	 OFFSET ??_C@_0EN@PPDNMGHK@RV_MOVE?3?5RV?5?$CFs?5?$CI?$CFd?$CJ?5at?5road?5nod@
  00642	e8 00 00 00 00	 call	 ?debug_log@@YAXPBDZZ	; debug_log
  00647	83 c4 10	 add	 esp, 16			; 00000010H

; 162  : 
; 163  : 						set_local_entity_int_value (en, INT_TYPE_OPERATIONAL_STATE, OPERATIONAL_STATE_STOPPED);

  0064a	83 7d 08 00	 cmp	 DWORD PTR _en$[ebp], 0
  0064e	74 0d		 je	 SHORT $LN74@routed_veh
  00650	8b 45 08	 mov	 eax, DWORD PTR _en$[ebp]
  00653	8b 08		 mov	 ecx, DWORD PTR [eax]
  00655	89 8d 58 ff ff
	ff		 mov	 DWORD PTR tv318[ebp], ecx
  0065b	eb 24		 jmp	 SHORT $LN75@routed_veh
$LN74@routed_veh:
  0065d	8b 15 00 00 00
	00		 mov	 edx, DWORD PTR ?__LINE__Var@?0??routed_vehicle_movement@@YGXPAUENTITY@@@Z@4JA
  00663	83 c2 41	 add	 edx, 65			; 00000041H
  00666	52		 push	 edx
  00667	68 00 00 00 00	 push	 OFFSET ??_C@_0FD@CFOFJMFL@c?3?2users?2nhv90?2projects?2eech?2ap@
  0066c	a1 00 00 00 00	 mov	 eax, DWORD PTR ?null_entity_pointer_message@@3PBDB ; null_entity_pointer_message
  00671	50		 push	 eax
  00672	e8 00 00 00 00	 call	 ?process_assert@@YGXPBD0H@Z ; process_assert
  00677	c7 85 58 ff ff
	ff 00 00 00 00	 mov	 DWORD PTR tv318[ebp], 0
$LN75@routed_veh:
  00681	b9 01 00 00 00	 mov	 ecx, 1
  00686	85 c9		 test	 ecx, ecx
  00688	74 0c		 je	 SHORT $LN76@routed_veh
  0068a	c7 85 54 ff ff
	ff 97 00 00 00	 mov	 DWORD PTR tv326[ebp], 151 ; 00000097H
  00694	eb 24		 jmp	 SHORT $LN77@routed_veh
$LN76@routed_veh:
  00696	8b 15 00 00 00
	00		 mov	 edx, DWORD PTR ?__LINE__Var@?0??routed_vehicle_movement@@YGXPAUENTITY@@@Z@4JA
  0069c	83 c2 41	 add	 edx, 65			; 00000041H
  0069f	52		 push	 edx
  006a0	68 00 00 00 00	 push	 OFFSET ??_C@_0FD@CFOFJMFL@c?3?2users?2nhv90?2projects?2eech?2ap@
  006a5	a1 00 00 00 00	 mov	 eax, DWORD PTR ?overload_invalid_int_type_message@@3PBDB ; overload_invalid_int_type_message
  006aa	50		 push	 eax
  006ab	e8 00 00 00 00	 call	 ?process_assert@@YGXPBD0H@Z ; process_assert
  006b0	c7 85 54 ff ff
	ff 00 00 00 00	 mov	 DWORD PTR tv326[ebp], 0
$LN77@routed_veh:
  006ba	6a 08		 push	 8
  006bc	68 97 00 00 00	 push	 151			; 00000097H
  006c1	8b 4d 08	 mov	 ecx, DWORD PTR _en$[ebp]
  006c4	51		 push	 ecx
  006c5	69 95 58 ff ff
	ff 5c 04 00 00	 imul	 edx, DWORD PTR tv318[ebp], 1116
  006cf	8b 85 54 ff ff
	ff		 mov	 eax, DWORD PTR tv326[ebp]
  006d5	8b 8c 82 00 00
	00 00		 mov	 ecx, DWORD PTR ?fn_set_local_entity_int_value@@3PAY0BBH@P6GXPAUENTITY@@W4INT_TYPES@@H@ZA[edx+eax*4]
  006dc	ff d1		 call	 ecx
$LN10@routed_veh:

; 164  : 					}
; 165  : 
; 166  : 					break;

  006de	e9 a7 00 00 00	 jmp	 $LN2@routed_veh
$LN11@routed_veh:

; 167  : 				}
; 168  : 
; 169  : 				default:
; 170  : 				{
; 171  : 
; 172  : 					debug_fatal ("RV_MOVE: RV %s (%d) not on keysite or independent list", get_local_entity_string (en, STRING_TYPE_FULL_NAME), get_local_entity_index (en));

  006e3	83 7d 08 00	 cmp	 DWORD PTR _en$[ebp], 0
  006e7	74 0d		 je	 SHORT $LN78@routed_veh
  006e9	8b 45 08	 mov	 eax, DWORD PTR _en$[ebp]
  006ec	8b 08		 mov	 ecx, DWORD PTR [eax]
  006ee	89 8d 58 ff ff
	ff		 mov	 DWORD PTR tv341[ebp], ecx
  006f4	eb 24		 jmp	 SHORT $LN79@routed_veh
$LN78@routed_veh:
  006f6	8b 15 00 00 00
	00		 mov	 edx, DWORD PTR ?__LINE__Var@?0??routed_vehicle_movement@@YGXPAUENTITY@@@Z@4JA
  006fc	83 c2 4a	 add	 edx, 74			; 0000004aH
  006ff	52		 push	 edx
  00700	68 00 00 00 00	 push	 OFFSET ??_C@_0FD@CFOFJMFL@c?3?2users?2nhv90?2projects?2eech?2ap@
  00705	a1 00 00 00 00	 mov	 eax, DWORD PTR ?null_entity_pointer_message@@3PBDB ; null_entity_pointer_message
  0070a	50		 push	 eax
  0070b	e8 00 00 00 00	 call	 ?process_assert@@YGXPBD0H@Z ; process_assert
  00710	c7 85 58 ff ff
	ff 00 00 00 00	 mov	 DWORD PTR tv341[ebp], 0
$LN79@routed_veh:
  0071a	b9 01 00 00 00	 mov	 ecx, 1
  0071f	85 c9		 test	 ecx, ecx
  00721	74 0c		 je	 SHORT $LN80@routed_veh
  00723	c7 85 54 ff ff
	ff 03 00 00 00	 mov	 DWORD PTR tv349[ebp], 3
  0072d	eb 24		 jmp	 SHORT $LN81@routed_veh
$LN80@routed_veh:
  0072f	8b 15 00 00 00
	00		 mov	 edx, DWORD PTR ?__LINE__Var@?0??routed_vehicle_movement@@YGXPAUENTITY@@@Z@4JA
  00735	83 c2 4a	 add	 edx, 74			; 0000004aH
  00738	52		 push	 edx
  00739	68 00 00 00 00	 push	 OFFSET ??_C@_0FD@CFOFJMFL@c?3?2users?2nhv90?2projects?2eech?2ap@
  0073e	a1 00 00 00 00	 mov	 eax, DWORD PTR ?overload_invalid_string_type_message@@3PBDB ; overload_invalid_string_type_message
  00743	50		 push	 eax
  00744	e8 00 00 00 00	 call	 ?process_assert@@YGXPBD0H@Z ; process_assert
  00749	c7 85 54 ff ff
	ff 00 00 00 00	 mov	 DWORD PTR tv349[ebp], 0
$LN81@routed_veh:
  00753	8b 4d 08	 mov	 ecx, DWORD PTR _en$[ebp]
  00756	2b 0d 00 00 00
	00		 sub	 ecx, DWORD PTR ?entities@@3PAUENTITY@@A ; entities
  0075c	c1 f9 04	 sar	 ecx, 4
  0075f	51		 push	 ecx
  00760	6a 03		 push	 3
  00762	8b 55 08	 mov	 edx, DWORD PTR _en$[ebp]
  00765	52		 push	 edx
  00766	6b 85 58 ff ff
	ff 34		 imul	 eax, DWORD PTR tv341[ebp], 52
  0076d	8b 8d 54 ff ff
	ff		 mov	 ecx, DWORD PTR tv349[ebp]
  00773	8b 94 88 00 00
	00 00		 mov	 edx, DWORD PTR ?fn_get_local_entity_string@@3PAY0N@P6GPBDPAUENTITY@@W4STRING_TYPES@@@ZA[eax+ecx*4]
  0077a	ff d2		 call	 edx
  0077c	50		 push	 eax
  0077d	68 00 00 00 00	 push	 OFFSET ??_C@_0DH@JMEINJPI@RV_MOVE?3?5RV?5?$CFs?5?$CI?$CFd?$CJ?5not?5on?5keys@
  00782	e8 00 00 00 00	 call	 ?debug_fatal@@YAXPBDZZ	; debug_fatal
  00787	83 c4 0c	 add	 esp, 12			; 0000000cH
$LN2@routed_veh:

; 173  : 				}
; 174  : 			}
; 175  : 		}
; 176  : 
; 177  : 		return;

  0078a	e9 c4 0e 00 00	 jmp	 $LN1@routed_veh
$LN4@routed_veh:

; 178  : 	}
; 179  : 
; 180  : 	wp = get_local_entity_parent (guide, LIST_TYPE_CURRENT_WAYPOINT);

  0078f	83 7d f0 00	 cmp	 DWORD PTR _guide$[ebp], 0
  00793	74 0d		 je	 SHORT $LN82@routed_veh
  00795	8b 45 f0	 mov	 eax, DWORD PTR _guide$[ebp]
  00798	8b 08		 mov	 ecx, DWORD PTR [eax]
  0079a	89 8d 58 ff ff
	ff		 mov	 DWORD PTR tv365[ebp], ecx
  007a0	eb 24		 jmp	 SHORT $LN83@routed_veh
$LN82@routed_veh:
  007a2	8b 15 00 00 00
	00		 mov	 edx, DWORD PTR ?__LINE__Var@?0??routed_vehicle_movement@@YGXPAUENTITY@@@Z@4JA
  007a8	83 c2 52	 add	 edx, 82			; 00000052H
  007ab	52		 push	 edx
  007ac	68 00 00 00 00	 push	 OFFSET ??_C@_0FD@CFOFJMFL@c?3?2users?2nhv90?2projects?2eech?2ap@
  007b1	a1 00 00 00 00	 mov	 eax, DWORD PTR ?null_entity_pointer_message@@3PBDB ; null_entity_pointer_message
  007b6	50		 push	 eax
  007b7	e8 00 00 00 00	 call	 ?process_assert@@YGXPBD0H@Z ; process_assert
  007bc	c7 85 58 ff ff
	ff 00 00 00 00	 mov	 DWORD PTR tv365[ebp], 0
$LN83@routed_veh:
  007c6	b9 01 00 00 00	 mov	 ecx, 1
  007cb	85 c9		 test	 ecx, ecx
  007cd	74 0c		 je	 SHORT $LN84@routed_veh
  007cf	c7 85 54 ff ff
	ff 09 00 00 00	 mov	 DWORD PTR tv373[ebp], 9
  007d9	eb 24		 jmp	 SHORT $LN85@routed_veh
$LN84@routed_veh:
  007db	8b 15 00 00 00
	00		 mov	 edx, DWORD PTR ?__LINE__Var@?0??routed_vehicle_movement@@YGXPAUENTITY@@@Z@4JA
  007e1	83 c2 52	 add	 edx, 82			; 00000052H
  007e4	52		 push	 edx
  007e5	68 00 00 00 00	 push	 OFFSET ??_C@_0FD@CFOFJMFL@c?3?2users?2nhv90?2projects?2eech?2ap@
  007ea	a1 00 00 00 00	 mov	 eax, DWORD PTR ?overload_invalid_list_type_message@@3PBDB ; overload_invalid_list_type_message
  007ef	50		 push	 eax
  007f0	e8 00 00 00 00	 call	 ?process_assert@@YGXPBD0H@Z ; process_assert
  007f5	c7 85 54 ff ff
	ff 00 00 00 00	 mov	 DWORD PTR tv373[ebp], 0
$LN85@routed_veh:
  007ff	6a 09		 push	 9
  00801	8b 4d f0	 mov	 ecx, DWORD PTR _guide$[ebp]
  00804	51		 push	 ecx
  00805	69 95 58 ff ff
	ff b4 00 00 00	 imul	 edx, DWORD PTR tv365[ebp], 180
  0080f	8b 85 54 ff ff
	ff		 mov	 eax, DWORD PTR tv373[ebp]
  00815	8b 8c 82 00 00
	00 00		 mov	 ecx, DWORD PTR ?fn_get_local_entity_parent@@3PAY0CN@P6GPAUENTITY@@PAU1@W4LIST_TYPES@@@ZA[edx+eax*4]
  0081c	ff d1		 call	 ecx
  0081e	89 45 f8	 mov	 DWORD PTR _wp$[ebp], eax

; 181  : 
; 182  : 	if ((!wp) || (!(get_local_entity_child_succ (wp, LIST_TYPE_WAYPOINT) || (get_local_entity_child_pred (wp, LIST_TYPE_WAYPOINT)))))

  00821	83 7d f8 00	 cmp	 DWORD PTR _wp$[ebp], 0
  00825	0f 84 1e 01 00
	00		 je	 $LN13@routed_veh
  0082b	83 7d f8 00	 cmp	 DWORD PTR _wp$[ebp], 0
  0082f	74 0d		 je	 SHORT $LN86@routed_veh
  00831	8b 45 f8	 mov	 eax, DWORD PTR _wp$[ebp]
  00834	8b 08		 mov	 ecx, DWORD PTR [eax]
  00836	89 8d 58 ff ff
	ff		 mov	 DWORD PTR tv385[ebp], ecx
  0083c	eb 20		 jmp	 SHORT $LN87@routed_veh
$LN86@routed_veh:
  0083e	68 b6 00 00 00	 push	 182			; 000000b6H
  00843	68 00 00 00 00	 push	 OFFSET ??_C@_0FD@CFOFJMFL@c?3?2users?2nhv90?2projects?2eech?2ap@
  00848	8b 15 00 00 00
	00		 mov	 edx, DWORD PTR ?null_entity_pointer_message@@3PBDB ; null_entity_pointer_message
  0084e	52		 push	 edx
  0084f	e8 00 00 00 00	 call	 ?process_assert@@YGXPBD0H@Z ; process_assert
  00854	c7 85 58 ff ff
	ff 00 00 00 00	 mov	 DWORD PTR tv385[ebp], 0
$LN87@routed_veh:
  0085e	b8 01 00 00 00	 mov	 eax, 1
  00863	85 c0		 test	 eax, eax
  00865	74 0c		 je	 SHORT $LN88@routed_veh
  00867	c7 85 54 ff ff
	ff 2c 00 00 00	 mov	 DWORD PTR tv392[ebp], 44 ; 0000002cH
  00871	eb 20		 jmp	 SHORT $LN89@routed_veh
$LN88@routed_veh:
  00873	68 b6 00 00 00	 push	 182			; 000000b6H
  00878	68 00 00 00 00	 push	 OFFSET ??_C@_0FD@CFOFJMFL@c?3?2users?2nhv90?2projects?2eech?2ap@
  0087d	8b 0d 00 00 00
	00		 mov	 ecx, DWORD PTR ?overload_invalid_list_type_message@@3PBDB ; overload_invalid_list_type_message
  00883	51		 push	 ecx
  00884	e8 00 00 00 00	 call	 ?process_assert@@YGXPBD0H@Z ; process_assert
  00889	c7 85 54 ff ff
	ff 00 00 00 00	 mov	 DWORD PTR tv392[ebp], 0
$LN89@routed_veh:
  00893	6a 2c		 push	 44			; 0000002cH
  00895	8b 55 f8	 mov	 edx, DWORD PTR _wp$[ebp]
  00898	52		 push	 edx
  00899	69 85 58 ff ff
	ff b4 00 00 00	 imul	 eax, DWORD PTR tv385[ebp], 180
  008a3	8b 8d 54 ff ff
	ff		 mov	 ecx, DWORD PTR tv392[ebp]
  008a9	8b 94 88 00 00
	00 00		 mov	 edx, DWORD PTR ?fn_get_local_entity_child_succ@@3PAY0CN@P6GPAUENTITY@@PAU1@W4LIST_TYPES@@@ZA[eax+ecx*4]
  008b0	ff d2		 call	 edx
  008b2	85 c0		 test	 eax, eax
  008b4	0f 85 df 01 00
	00		 jne	 $LN12@routed_veh
  008ba	83 7d f8 00	 cmp	 DWORD PTR _wp$[ebp], 0
  008be	74 0d		 je	 SHORT $LN90@routed_veh
  008c0	8b 45 f8	 mov	 eax, DWORD PTR _wp$[ebp]
  008c3	8b 08		 mov	 ecx, DWORD PTR [eax]
  008c5	89 8d 58 ff ff
	ff		 mov	 DWORD PTR tv404[ebp], ecx
  008cb	eb 20		 jmp	 SHORT $LN91@routed_veh
$LN90@routed_veh:
  008cd	68 b6 00 00 00	 push	 182			; 000000b6H
  008d2	68 00 00 00 00	 push	 OFFSET ??_C@_0FD@CFOFJMFL@c?3?2users?2nhv90?2projects?2eech?2ap@
  008d7	8b 15 00 00 00
	00		 mov	 edx, DWORD PTR ?null_entity_pointer_message@@3PBDB ; null_entity_pointer_message
  008dd	52		 push	 edx
  008de	e8 00 00 00 00	 call	 ?process_assert@@YGXPBD0H@Z ; process_assert
  008e3	c7 85 58 ff ff
	ff 00 00 00 00	 mov	 DWORD PTR tv404[ebp], 0
$LN91@routed_veh:
  008ed	b8 01 00 00 00	 mov	 eax, 1
  008f2	85 c0		 test	 eax, eax
  008f4	74 0c		 je	 SHORT $LN92@routed_veh
  008f6	c7 85 54 ff ff
	ff 2c 00 00 00	 mov	 DWORD PTR tv411[ebp], 44 ; 0000002cH
  00900	eb 20		 jmp	 SHORT $LN93@routed_veh
$LN92@routed_veh:
  00902	68 b6 00 00 00	 push	 182			; 000000b6H
  00907	68 00 00 00 00	 push	 OFFSET ??_C@_0FD@CFOFJMFL@c?3?2users?2nhv90?2projects?2eech?2ap@
  0090c	8b 0d 00 00 00
	00		 mov	 ecx, DWORD PTR ?overload_invalid_list_type_message@@3PBDB ; overload_invalid_list_type_message
  00912	51		 push	 ecx
  00913	e8 00 00 00 00	 call	 ?process_assert@@YGXPBD0H@Z ; process_assert
  00918	c7 85 54 ff ff
	ff 00 00 00 00	 mov	 DWORD PTR tv411[ebp], 0
$LN93@routed_veh:
  00922	6a 2c		 push	 44			; 0000002cH
  00924	8b 55 f8	 mov	 edx, DWORD PTR _wp$[ebp]
  00927	52		 push	 edx
  00928	69 85 58 ff ff
	ff b4 00 00 00	 imul	 eax, DWORD PTR tv404[ebp], 180
  00932	8b 8d 54 ff ff
	ff		 mov	 ecx, DWORD PTR tv411[ebp]
  00938	8b 94 88 00 00
	00 00		 mov	 edx, DWORD PTR ?fn_get_local_entity_child_pred@@3PAY0CN@P6GPAUENTITY@@PAU1@W4LIST_TYPES@@@ZA[eax+ecx*4]
  0093f	ff d2		 call	 edx
  00941	85 c0		 test	 eax, eax
  00943	0f 85 50 01 00
	00		 jne	 $LN12@routed_veh
$LN13@routed_veh:

; 183  : 	{
; 184  : 
; 185  : 		if (raw->vh.mob.velocity != 0.0)

  00949	8b 45 fc	 mov	 eax, DWORD PTR _raw$[ebp]
  0094c	f3 0f 5a 40 40	 cvtss2sd xmm0, DWORD PTR [eax+64]
  00951	66 0f 2e 05 00
	00 00 00	 ucomisd xmm0, QWORD PTR __real@0000000000000000
  00959	9f		 lahf
  0095a	f6 c4 44	 test	 ah, 68			; 00000044H
  0095d	0f 8b b1 00 00
	00		 jnp	 $LN15@routed_veh

; 186  : 		{
; 187  : 
; 188  : 			if (get_comms_model () == COMMS_MODEL_SERVER)

  00963	83 3d 00 00 00
	00 00		 cmp	 DWORD PTR ?system_comms_model@@3W4COMMS_MODEL_TYPES@@A, 0 ; system_comms_model
  0096a	0f 85 a4 00 00
	00		 jne	 $LN15@routed_veh

; 189  : 			{
; 190  : 
; 191  : 				set_client_server_entity_float_value (en, FLOAT_TYPE_VELOCITY, 0.0);

  00970	83 7d 08 00	 cmp	 DWORD PTR _en$[ebp], 0
  00974	74 0d		 je	 SHORT $LN94@routed_veh
  00976	8b 45 08	 mov	 eax, DWORD PTR _en$[ebp]
  00979	8b 08		 mov	 ecx, DWORD PTR [eax]
  0097b	89 8d 58 ff ff
	ff		 mov	 DWORD PTR tv430[ebp], ecx
  00981	eb 24		 jmp	 SHORT $LN95@routed_veh
$LN94@routed_veh:
  00983	8b 15 00 00 00
	00		 mov	 edx, DWORD PTR ?__LINE__Var@?0??routed_vehicle_movement@@YGXPAUENTITY@@@Z@4JA
  00989	83 c2 5d	 add	 edx, 93			; 0000005dH
  0098c	52		 push	 edx
  0098d	68 00 00 00 00	 push	 OFFSET ??_C@_0FD@CFOFJMFL@c?3?2users?2nhv90?2projects?2eech?2ap@
  00992	a1 00 00 00 00	 mov	 eax, DWORD PTR ?null_entity_pointer_message@@3PBDB ; null_entity_pointer_message
  00997	50		 push	 eax
  00998	e8 00 00 00 00	 call	 ?process_assert@@YGXPBD0H@Z ; process_assert
  0099d	c7 85 58 ff ff
	ff 00 00 00 00	 mov	 DWORD PTR tv430[ebp], 0
$LN95@routed_veh:
  009a7	b9 01 00 00 00	 mov	 ecx, 1
  009ac	85 c9		 test	 ecx, ecx
  009ae	74 0c		 je	 SHORT $LN96@routed_veh
  009b0	c7 85 54 ff ff
	ff 93 00 00 00	 mov	 DWORD PTR tv438[ebp], 147 ; 00000093H
  009ba	eb 24		 jmp	 SHORT $LN97@routed_veh
$LN96@routed_veh:
  009bc	8b 15 00 00 00
	00		 mov	 edx, DWORD PTR ?__LINE__Var@?0??routed_vehicle_movement@@YGXPAUENTITY@@@Z@4JA
  009c2	83 c2 5d	 add	 edx, 93			; 0000005dH
  009c5	52		 push	 edx
  009c6	68 00 00 00 00	 push	 OFFSET ??_C@_0FD@CFOFJMFL@c?3?2users?2nhv90?2projects?2eech?2ap@
  009cb	a1 00 00 00 00	 mov	 eax, DWORD PTR ?overload_invalid_float_type_message@@3PBDB ; overload_invalid_float_type_message
  009d0	50		 push	 eax
  009d1	e8 00 00 00 00	 call	 ?process_assert@@YGXPBD0H@Z ; process_assert
  009d6	c7 85 54 ff ff
	ff 00 00 00 00	 mov	 DWORD PTR tv438[ebp], 0
$LN97@routed_veh:
  009e0	51		 push	 ecx
  009e1	0f 57 c0	 xorps	 xmm0, xmm0
  009e4	f3 0f 11 04 24	 movss	 DWORD PTR [esp], xmm0
  009e9	68 93 00 00 00	 push	 147			; 00000093H
  009ee	8b 4d 08	 mov	 ecx, DWORD PTR _en$[ebp]
  009f1	51		 push	 ecx
  009f2	69 95 58 ff ff
	ff 78 05 00 00	 imul	 edx, DWORD PTR tv430[ebp], 1400
  009fc	8b 85 54 ff ff
	ff		 mov	 eax, DWORD PTR tv438[ebp]
  00a02	8d 8c c2 00 00
	00 00		 lea	 ecx, DWORD PTR ?fn_set_client_server_entity_float_value@@3PAY1KP@1P6GXPAUENTITY@@W4FLOAT_TYPES@@M@ZA[edx+eax*8]
  00a09	8b 15 00 00 00
	00		 mov	 edx, DWORD PTR ?system_comms_model@@3W4COMMS_MODEL_TYPES@@A ; system_comms_model
  00a0f	8b 04 91	 mov	 eax, DWORD PTR [ecx+edx*4]
  00a12	ff d0		 call	 eax
$LN15@routed_veh:

; 192  : 			}
; 193  : 			else
; 194  : 			{
; 195  : 
; 196  : 				//set_local_entity_float_value (en, FLOAT_TYPE_VELOCITY, 0.0);
; 197  : 			}
; 198  : 		}
; 199  : 
; 200  : 		raw->vh.mob.motion_vector.x = raw->vh.mob.attitude [2][0] * raw->vh.mob.velocity;

  00a14	b8 0c 00 00 00	 mov	 eax, 12			; 0000000cH
  00a19	d1 e0		 shl	 eax, 1
  00a1b	8b 4d fc	 mov	 ecx, DWORD PTR _raw$[ebp]
  00a1e	8d 54 01 10	 lea	 edx, DWORD PTR [ecx+eax+16]
  00a22	b8 04 00 00 00	 mov	 eax, 4
  00a27	6b c8 00	 imul	 ecx, eax, 0
  00a2a	8b 45 fc	 mov	 eax, DWORD PTR _raw$[ebp]
  00a2d	f3 0f 10 04 0a	 movss	 xmm0, DWORD PTR [edx+ecx]
  00a32	f3 0f 59 40 40	 mulss	 xmm0, DWORD PTR [eax+64]
  00a37	8b 4d fc	 mov	 ecx, DWORD PTR _raw$[ebp]
  00a3a	f3 0f 11 41 34	 movss	 DWORD PTR [ecx+52], xmm0

; 201  : 		raw->vh.mob.motion_vector.y = raw->vh.mob.attitude [2][1] * raw->vh.mob.velocity;

  00a3f	b8 0c 00 00 00	 mov	 eax, 12			; 0000000cH
  00a44	d1 e0		 shl	 eax, 1
  00a46	8b 4d fc	 mov	 ecx, DWORD PTR _raw$[ebp]
  00a49	8d 54 01 10	 lea	 edx, DWORD PTR [ecx+eax+16]
  00a4d	b8 04 00 00 00	 mov	 eax, 4
  00a52	c1 e0 00	 shl	 eax, 0
  00a55	8b 4d fc	 mov	 ecx, DWORD PTR _raw$[ebp]
  00a58	f3 0f 10 04 02	 movss	 xmm0, DWORD PTR [edx+eax]
  00a5d	f3 0f 59 41 40	 mulss	 xmm0, DWORD PTR [ecx+64]
  00a62	8b 55 fc	 mov	 edx, DWORD PTR _raw$[ebp]
  00a65	f3 0f 11 42 38	 movss	 DWORD PTR [edx+56], xmm0

; 202  : 		raw->vh.mob.motion_vector.z = raw->vh.mob.attitude [2][2] * raw->vh.mob.velocity;

  00a6a	b8 0c 00 00 00	 mov	 eax, 12			; 0000000cH
  00a6f	d1 e0		 shl	 eax, 1
  00a71	8b 4d fc	 mov	 ecx, DWORD PTR _raw$[ebp]
  00a74	8d 54 01 10	 lea	 edx, DWORD PTR [ecx+eax+16]
  00a78	b8 04 00 00 00	 mov	 eax, 4
  00a7d	d1 e0		 shl	 eax, 1
  00a7f	8b 4d fc	 mov	 ecx, DWORD PTR _raw$[ebp]
  00a82	f3 0f 10 04 02	 movss	 xmm0, DWORD PTR [edx+eax]
  00a87	f3 0f 59 41 40	 mulss	 xmm0, DWORD PTR [ecx+64]
  00a8c	8b 55 fc	 mov	 edx, DWORD PTR _raw$[ebp]
  00a8f	f3 0f 11 42 3c	 movss	 DWORD PTR [edx+60], xmm0

; 203  : 
; 204  : 		return;

  00a94	e9 ba 0b 00 00	 jmp	 $LN1@routed_veh
$LN12@routed_veh:

; 205  : 	}
; 206  : 
; 207  :    ////////////////////////////////////////
; 208  : 	//
; 209  : 	// not correct state to move (or group is engaging targets)
; 210  : 	//
; 211  :    ////////////////////////////////////////
; 212  : 
; 213  : 	group = get_local_entity_parent (en, LIST_TYPE_MEMBER);

  00a99	83 7d 08 00	 cmp	 DWORD PTR _en$[ebp], 0
  00a9d	74 0d		 je	 SHORT $LN98@routed_veh
  00a9f	8b 45 08	 mov	 eax, DWORD PTR _en$[ebp]
  00aa2	8b 08		 mov	 ecx, DWORD PTR [eax]
  00aa4	89 8d 58 ff ff
	ff		 mov	 DWORD PTR tv497[ebp], ecx
  00aaa	eb 24		 jmp	 SHORT $LN99@routed_veh
$LN98@routed_veh:
  00aac	8b 15 00 00 00
	00		 mov	 edx, DWORD PTR ?__LINE__Var@?0??routed_vehicle_movement@@YGXPAUENTITY@@@Z@4JA
  00ab2	83 c2 73	 add	 edx, 115		; 00000073H
  00ab5	52		 push	 edx
  00ab6	68 00 00 00 00	 push	 OFFSET ??_C@_0FD@CFOFJMFL@c?3?2users?2nhv90?2projects?2eech?2ap@
  00abb	a1 00 00 00 00	 mov	 eax, DWORD PTR ?null_entity_pointer_message@@3PBDB ; null_entity_pointer_message
  00ac0	50		 push	 eax
  00ac1	e8 00 00 00 00	 call	 ?process_assert@@YGXPBD0H@Z ; process_assert
  00ac6	c7 85 58 ff ff
	ff 00 00 00 00	 mov	 DWORD PTR tv497[ebp], 0
$LN99@routed_veh:
  00ad0	b9 01 00 00 00	 mov	 ecx, 1
  00ad5	85 c9		 test	 ecx, ecx
  00ad7	74 0c		 je	 SHORT $LN100@routed_veh
  00ad9	c7 85 54 ff ff
	ff 19 00 00 00	 mov	 DWORD PTR tv505[ebp], 25 ; 00000019H
  00ae3	eb 24		 jmp	 SHORT $LN101@routed_veh
$LN100@routed_veh:
  00ae5	8b 15 00 00 00
	00		 mov	 edx, DWORD PTR ?__LINE__Var@?0??routed_vehicle_movement@@YGXPAUENTITY@@@Z@4JA
  00aeb	83 c2 73	 add	 edx, 115		; 00000073H
  00aee	52		 push	 edx
  00aef	68 00 00 00 00	 push	 OFFSET ??_C@_0FD@CFOFJMFL@c?3?2users?2nhv90?2projects?2eech?2ap@
  00af4	a1 00 00 00 00	 mov	 eax, DWORD PTR ?overload_invalid_list_type_message@@3PBDB ; overload_invalid_list_type_message
  00af9	50		 push	 eax
  00afa	e8 00 00 00 00	 call	 ?process_assert@@YGXPBD0H@Z ; process_assert
  00aff	c7 85 54 ff ff
	ff 00 00 00 00	 mov	 DWORD PTR tv505[ebp], 0
$LN101@routed_veh:
  00b09	6a 19		 push	 25			; 00000019H
  00b0b	8b 4d 08	 mov	 ecx, DWORD PTR _en$[ebp]
  00b0e	51		 push	 ecx
  00b0f	69 95 58 ff ff
	ff b4 00 00 00	 imul	 edx, DWORD PTR tv497[ebp], 180
  00b19	8b 85 54 ff ff
	ff		 mov	 eax, DWORD PTR tv505[ebp]
  00b1f	8b 8c 82 00 00
	00 00		 mov	 ecx, DWORD PTR ?fn_get_local_entity_parent@@3PAY0CN@P6GPAUENTITY@@PAU1@W4LIST_TYPES@@@ZA[edx+eax*4]
  00b26	ff d1		 call	 ecx
  00b28	89 45 f4	 mov	 DWORD PTR _group$[ebp], eax

; 214  : 
; 215  : 	if (((!get_local_entity_int_value (en, INT_TYPE_MOBILE_MOVING)) && (raw->vh.operational_state != OPERATIONAL_STATE_WAITING)) ||

  00b2b	83 7d 08 00	 cmp	 DWORD PTR _en$[ebp], 0
  00b2f	74 0d		 je	 SHORT $LN102@routed_veh
  00b31	8b 45 08	 mov	 eax, DWORD PTR _en$[ebp]
  00b34	8b 08		 mov	 ecx, DWORD PTR [eax]
  00b36	89 8d 58 ff ff
	ff		 mov	 DWORD PTR tv516[ebp], ecx
  00b3c	eb 20		 jmp	 SHORT $LN103@routed_veh
$LN102@routed_veh:
  00b3e	68 d7 00 00 00	 push	 215			; 000000d7H
  00b43	68 00 00 00 00	 push	 OFFSET ??_C@_0FD@CFOFJMFL@c?3?2users?2nhv90?2projects?2eech?2ap@
  00b48	8b 15 00 00 00
	00		 mov	 edx, DWORD PTR ?null_entity_pointer_message@@3PBDB ; null_entity_pointer_message
  00b4e	52		 push	 edx
  00b4f	e8 00 00 00 00	 call	 ?process_assert@@YGXPBD0H@Z ; process_assert
  00b54	c7 85 58 ff ff
	ff 00 00 00 00	 mov	 DWORD PTR tv516[ebp], 0
$LN103@routed_veh:
  00b5e	b8 01 00 00 00	 mov	 eax, 1
  00b63	85 c0		 test	 eax, eax
  00b65	74 0c		 je	 SHORT $LN104@routed_veh
  00b67	c7 85 54 ff ff
	ff 8e 00 00 00	 mov	 DWORD PTR tv523[ebp], 142 ; 0000008eH
  00b71	eb 20		 jmp	 SHORT $LN105@routed_veh
$LN104@routed_veh:
  00b73	68 d7 00 00 00	 push	 215			; 000000d7H
  00b78	68 00 00 00 00	 push	 OFFSET ??_C@_0FD@CFOFJMFL@c?3?2users?2nhv90?2projects?2eech?2ap@
  00b7d	8b 0d 00 00 00
	00		 mov	 ecx, DWORD PTR ?overload_invalid_int_type_message@@3PBDB ; overload_invalid_int_type_message
  00b83	51		 push	 ecx
  00b84	e8 00 00 00 00	 call	 ?process_assert@@YGXPBD0H@Z ; process_assert
  00b89	c7 85 54 ff ff
	ff 00 00 00 00	 mov	 DWORD PTR tv523[ebp], 0
$LN105@routed_veh:
  00b93	68 8e 00 00 00	 push	 142			; 0000008eH
  00b98	8b 55 08	 mov	 edx, DWORD PTR _en$[ebp]
  00b9b	52		 push	 edx
  00b9c	69 85 58 ff ff
	ff 5c 04 00 00	 imul	 eax, DWORD PTR tv516[ebp], 1116
  00ba6	8b 8d 54 ff ff
	ff		 mov	 ecx, DWORD PTR tv523[ebp]
  00bac	8b 94 88 00 00
	00 00		 mov	 edx, DWORD PTR ?fn_get_local_entity_int_value@@3PAY0BBH@P6GHPAUENTITY@@W4INT_TYPES@@@ZA[eax+ecx*4]
  00bb3	ff d2		 call	 edx
  00bb5	85 c0		 test	 eax, eax
  00bb7	75 14		 jne	 SHORT $LN19@routed_veh
  00bb9	8b 45 fc	 mov	 eax, DWORD PTR _raw$[ebp]
  00bbc	8b 88 24 01 00
	00		 mov	 ecx, DWORD PTR [eax+292]
  00bc2	c1 e9 05	 shr	 ecx, 5
  00bc5	83 e1 1f	 and	 ecx, 31			; 0000001fH
  00bc8	83 f9 0c	 cmp	 ecx, 12			; 0000000cH
  00bcb	75 13		 jne	 SHORT $LN18@routed_veh
$LN19@routed_veh:
  00bcd	6a 09		 push	 9
  00bcf	8b 45 f4	 mov	 eax, DWORD PTR _group$[ebp]
  00bd2	50		 push	 eax
  00bd3	e8 00 00 00 00	 call	 ?check_group_task_type_valid_members@@YGHPAUENTITY@@H@Z ; check_group_task_type_valid_members
  00bd8	85 c0		 test	 eax, eax
  00bda	0f 84 0b 02 00
	00		 je	 $LN17@routed_veh
$LN18@routed_veh:

; 216  : 		(check_group_task_type_valid_members (group, ENTITY_SUB_TYPE_TASK_ENGAGE)))
; 217  : 	{
; 218  : 
; 219  : 		if (raw->vh.mob.velocity != 0.0)

  00be0	8b 45 fc	 mov	 eax, DWORD PTR _raw$[ebp]
  00be3	f3 0f 5a 40 40	 cvtss2sd xmm0, DWORD PTR [eax+64]
  00be8	66 0f 2e 05 00
	00 00 00	 ucomisd xmm0, QWORD PTR __real@0000000000000000
  00bf0	9f		 lahf
  00bf1	f6 c4 44	 test	 ah, 68			; 00000044H
  00bf4	0f 8b b1 00 00
	00		 jnp	 $LN21@routed_veh

; 220  : 		{
; 221  : 
; 222  : 			if (get_comms_model () == COMMS_MODEL_SERVER)

  00bfa	83 3d 00 00 00
	00 00		 cmp	 DWORD PTR ?system_comms_model@@3W4COMMS_MODEL_TYPES@@A, 0 ; system_comms_model
  00c01	0f 85 a4 00 00
	00		 jne	 $LN21@routed_veh

; 223  : 			{
; 224  : 
; 225  : 				set_client_server_entity_float_value (en, FLOAT_TYPE_VELOCITY, 0.0);

  00c07	83 7d 08 00	 cmp	 DWORD PTR _en$[ebp], 0
  00c0b	74 0d		 je	 SHORT $LN106@routed_veh
  00c0d	8b 45 08	 mov	 eax, DWORD PTR _en$[ebp]
  00c10	8b 08		 mov	 ecx, DWORD PTR [eax]
  00c12	89 8d 58 ff ff
	ff		 mov	 DWORD PTR tv551[ebp], ecx
  00c18	eb 24		 jmp	 SHORT $LN107@routed_veh
$LN106@routed_veh:
  00c1a	8b 15 00 00 00
	00		 mov	 edx, DWORD PTR ?__LINE__Var@?0??routed_vehicle_movement@@YGXPAUENTITY@@@Z@4JA
  00c20	83 c2 7f	 add	 edx, 127		; 0000007fH
  00c23	52		 push	 edx
  00c24	68 00 00 00 00	 push	 OFFSET ??_C@_0FD@CFOFJMFL@c?3?2users?2nhv90?2projects?2eech?2ap@
  00c29	a1 00 00 00 00	 mov	 eax, DWORD PTR ?null_entity_pointer_message@@3PBDB ; null_entity_pointer_message
  00c2e	50		 push	 eax
  00c2f	e8 00 00 00 00	 call	 ?process_assert@@YGXPBD0H@Z ; process_assert
  00c34	c7 85 58 ff ff
	ff 00 00 00 00	 mov	 DWORD PTR tv551[ebp], 0
$LN107@routed_veh:
  00c3e	b9 01 00 00 00	 mov	 ecx, 1
  00c43	85 c9		 test	 ecx, ecx
  00c45	74 0c		 je	 SHORT $LN108@routed_veh
  00c47	c7 85 54 ff ff
	ff 93 00 00 00	 mov	 DWORD PTR tv559[ebp], 147 ; 00000093H
  00c51	eb 24		 jmp	 SHORT $LN109@routed_veh
$LN108@routed_veh:
  00c53	8b 15 00 00 00
	00		 mov	 edx, DWORD PTR ?__LINE__Var@?0??routed_vehicle_movement@@YGXPAUENTITY@@@Z@4JA
  00c59	83 c2 7f	 add	 edx, 127		; 0000007fH
  00c5c	52		 push	 edx
  00c5d	68 00 00 00 00	 push	 OFFSET ??_C@_0FD@CFOFJMFL@c?3?2users?2nhv90?2projects?2eech?2ap@
  00c62	a1 00 00 00 00	 mov	 eax, DWORD PTR ?overload_invalid_float_type_message@@3PBDB ; overload_invalid_float_type_message
  00c67	50		 push	 eax
  00c68	e8 00 00 00 00	 call	 ?process_assert@@YGXPBD0H@Z ; process_assert
  00c6d	c7 85 54 ff ff
	ff 00 00 00 00	 mov	 DWORD PTR tv559[ebp], 0
$LN109@routed_veh:
  00c77	51		 push	 ecx
  00c78	0f 57 c0	 xorps	 xmm0, xmm0
  00c7b	f3 0f 11 04 24	 movss	 DWORD PTR [esp], xmm0
  00c80	68 93 00 00 00	 push	 147			; 00000093H
  00c85	8b 4d 08	 mov	 ecx, DWORD PTR _en$[ebp]
  00c88	51		 push	 ecx
  00c89	69 95 58 ff ff
	ff 78 05 00 00	 imul	 edx, DWORD PTR tv551[ebp], 1400
  00c93	8b 85 54 ff ff
	ff		 mov	 eax, DWORD PTR tv559[ebp]
  00c99	8d 8c c2 00 00
	00 00		 lea	 ecx, DWORD PTR ?fn_set_client_server_entity_float_value@@3PAY1KP@1P6GXPAUENTITY@@W4FLOAT_TYPES@@M@ZA[edx+eax*8]
  00ca0	8b 15 00 00 00
	00		 mov	 edx, DWORD PTR ?system_comms_model@@3W4COMMS_MODEL_TYPES@@A ; system_comms_model
  00ca6	8b 04 91	 mov	 eax, DWORD PTR [ecx+edx*4]
  00ca9	ff d0		 call	 eax
$LN21@routed_veh:

; 226  : 			}
; 227  : 			else
; 228  : 			{
; 229  : 
; 230  : 				//set_local_entity_float_value (en, FLOAT_TYPE_VELOCITY, 0.0);
; 231  : 			}
; 232  : 		}
; 233  : 
; 234  : 		if (raw->desired_velocity != 0.0)

  00cab	8b 45 fc	 mov	 eax, DWORD PTR _raw$[ebp]
  00cae	f3 0f 5a 80 78
	01 00 00	 cvtss2sd xmm0, DWORD PTR [eax+376]
  00cb6	66 0f 2e 05 00
	00 00 00	 ucomisd xmm0, QWORD PTR __real@0000000000000000
  00cbe	9f		 lahf
  00cbf	f6 c4 44	 test	 ah, 68			; 00000044H
  00cc2	0f 8b 9e 00 00
	00		 jnp	 $LN23@routed_veh

; 235  : 		{
; 236  : 
; 237  : 			set_local_entity_float_value (en, FLOAT_TYPE_DESIRED_VELOCITY, 0.0);

  00cc8	83 7d 08 00	 cmp	 DWORD PTR _en$[ebp], 0
  00ccc	74 0d		 je	 SHORT $LN110@routed_veh
  00cce	8b 45 08	 mov	 eax, DWORD PTR _en$[ebp]
  00cd1	8b 08		 mov	 ecx, DWORD PTR [eax]
  00cd3	89 8d 58 ff ff
	ff		 mov	 DWORD PTR tv576[ebp], ecx
  00cd9	eb 27		 jmp	 SHORT $LN111@routed_veh
$LN110@routed_veh:
  00cdb	8b 15 00 00 00
	00		 mov	 edx, DWORD PTR ?__LINE__Var@?0??routed_vehicle_movement@@YGXPAUENTITY@@@Z@4JA
  00ce1	81 c2 8b 00 00
	00		 add	 edx, 139		; 0000008bH
  00ce7	52		 push	 edx
  00ce8	68 00 00 00 00	 push	 OFFSET ??_C@_0FD@CFOFJMFL@c?3?2users?2nhv90?2projects?2eech?2ap@
  00ced	a1 00 00 00 00	 mov	 eax, DWORD PTR ?null_entity_pointer_message@@3PBDB ; null_entity_pointer_message
  00cf2	50		 push	 eax
  00cf3	e8 00 00 00 00	 call	 ?process_assert@@YGXPBD0H@Z ; process_assert
  00cf8	c7 85 58 ff ff
	ff 00 00 00 00	 mov	 DWORD PTR tv576[ebp], 0
$LN111@routed_veh:
  00d02	b9 01 00 00 00	 mov	 ecx, 1
  00d07	85 c9		 test	 ecx, ecx
  00d09	74 0c		 je	 SHORT $LN112@routed_veh
  00d0b	c7 85 54 ff ff
	ff 1e 00 00 00	 mov	 DWORD PTR tv584[ebp], 30 ; 0000001eH
  00d15	eb 27		 jmp	 SHORT $LN113@routed_veh
$LN112@routed_veh:
  00d17	8b 15 00 00 00
	00		 mov	 edx, DWORD PTR ?__LINE__Var@?0??routed_vehicle_movement@@YGXPAUENTITY@@@Z@4JA
  00d1d	81 c2 8b 00 00
	00		 add	 edx, 139		; 0000008bH
  00d23	52		 push	 edx
  00d24	68 00 00 00 00	 push	 OFFSET ??_C@_0FD@CFOFJMFL@c?3?2users?2nhv90?2projects?2eech?2ap@
  00d29	a1 00 00 00 00	 mov	 eax, DWORD PTR ?overload_invalid_float_type_message@@3PBDB ; overload_invalid_float_type_message
  00d2e	50		 push	 eax
  00d2f	e8 00 00 00 00	 call	 ?process_assert@@YGXPBD0H@Z ; process_assert
  00d34	c7 85 54 ff ff
	ff 00 00 00 00	 mov	 DWORD PTR tv584[ebp], 0
$LN113@routed_veh:
  00d3e	51		 push	 ecx
  00d3f	0f 57 c0	 xorps	 xmm0, xmm0
  00d42	f3 0f 11 04 24	 movss	 DWORD PTR [esp], xmm0
  00d47	6a 1e		 push	 30			; 0000001eH
  00d49	8b 4d 08	 mov	 ecx, DWORD PTR _en$[ebp]
  00d4c	51		 push	 ecx
  00d4d	69 95 58 ff ff
	ff bc 02 00 00	 imul	 edx, DWORD PTR tv576[ebp], 700
  00d57	8b 85 54 ff ff
	ff		 mov	 eax, DWORD PTR tv584[ebp]
  00d5d	8b 8c 82 00 00
	00 00		 mov	 ecx, DWORD PTR ?fn_set_local_entity_float_value@@3PAY0KP@P6GXPAUENTITY@@W4FLOAT_TYPES@@M@ZA[edx+eax*4]
  00d64	ff d1		 call	 ecx
$LN23@routed_veh:

; 238  : 		}
; 239  : 
; 240  : 		raw->vh.mob.motion_vector.x = raw->vh.mob.attitude [2][0] * raw->vh.mob.velocity;

  00d66	b8 0c 00 00 00	 mov	 eax, 12			; 0000000cH
  00d6b	d1 e0		 shl	 eax, 1
  00d6d	8b 4d fc	 mov	 ecx, DWORD PTR _raw$[ebp]
  00d70	8d 54 01 10	 lea	 edx, DWORD PTR [ecx+eax+16]
  00d74	b8 04 00 00 00	 mov	 eax, 4
  00d79	6b c8 00	 imul	 ecx, eax, 0
  00d7c	8b 45 fc	 mov	 eax, DWORD PTR _raw$[ebp]
  00d7f	f3 0f 10 04 0a	 movss	 xmm0, DWORD PTR [edx+ecx]
  00d84	f3 0f 59 40 40	 mulss	 xmm0, DWORD PTR [eax+64]
  00d89	8b 4d fc	 mov	 ecx, DWORD PTR _raw$[ebp]
  00d8c	f3 0f 11 41 34	 movss	 DWORD PTR [ecx+52], xmm0

; 241  : 		raw->vh.mob.motion_vector.y = raw->vh.mob.attitude [2][1] * raw->vh.mob.velocity;

  00d91	b8 0c 00 00 00	 mov	 eax, 12			; 0000000cH
  00d96	d1 e0		 shl	 eax, 1
  00d98	8b 4d fc	 mov	 ecx, DWORD PTR _raw$[ebp]
  00d9b	8d 54 01 10	 lea	 edx, DWORD PTR [ecx+eax+16]
  00d9f	b8 04 00 00 00	 mov	 eax, 4
  00da4	c1 e0 00	 shl	 eax, 0
  00da7	8b 4d fc	 mov	 ecx, DWORD PTR _raw$[ebp]
  00daa	f3 0f 10 04 02	 movss	 xmm0, DWORD PTR [edx+eax]
  00daf	f3 0f 59 41 40	 mulss	 xmm0, DWORD PTR [ecx+64]
  00db4	8b 55 fc	 mov	 edx, DWORD PTR _raw$[ebp]
  00db7	f3 0f 11 42 38	 movss	 DWORD PTR [edx+56], xmm0

; 242  : 		raw->vh.mob.motion_vector.z = raw->vh.mob.attitude [2][2] * raw->vh.mob.velocity;

  00dbc	b8 0c 00 00 00	 mov	 eax, 12			; 0000000cH
  00dc1	d1 e0		 shl	 eax, 1
  00dc3	8b 4d fc	 mov	 ecx, DWORD PTR _raw$[ebp]
  00dc6	8d 54 01 10	 lea	 edx, DWORD PTR [ecx+eax+16]
  00dca	b8 04 00 00 00	 mov	 eax, 4
  00dcf	d1 e0		 shl	 eax, 1
  00dd1	8b 4d fc	 mov	 ecx, DWORD PTR _raw$[ebp]
  00dd4	f3 0f 10 04 02	 movss	 xmm0, DWORD PTR [edx+eax]
  00dd9	f3 0f 59 41 40	 mulss	 xmm0, DWORD PTR [ecx+64]
  00dde	8b 55 fc	 mov	 edx, DWORD PTR _raw$[ebp]
  00de1	f3 0f 11 42 3c	 movss	 DWORD PTR [edx+60], xmm0

; 243  : 
; 244  : 		return;

  00de6	e9 68 08 00 00	 jmp	 $LN1@routed_veh
$LN17@routed_veh:

; 245  : 	}
; 246  : 
; 247  :    ////////////////////////////////////////
; 248  :    //
; 249  :    // current waypoint vector
; 250  :    //
; 251  :    ////////////////////////////////////////
; 252  : 
; 253  : 	routed_vehicle_movement_get_waypoint_position (en, &wp_pos);

  00deb	8d 45 d4	 lea	 eax, DWORD PTR _wp_pos$[ebp]
  00dee	50		 push	 eax
  00def	8b 4d 08	 mov	 ecx, DWORD PTR _en$[ebp]
  00df2	51		 push	 ecx
  00df3	e8 00 00 00 00	 call	 ?routed_vehicle_movement_get_waypoint_position@@YGXPAUENTITY@@PAUVEC3D@@@Z ; routed_vehicle_movement_get_waypoint_position

; 254  : 
; 255  : 	// find better place for this...
; 256  : 	if (raw->vh.sleep > 0.0)

  00df8	8b 45 fc	 mov	 eax, DWORD PTR _raw$[ebp]
  00dfb	f3 0f 5a 80 e8
	00 00 00	 cvtss2sd xmm0, DWORD PTR [eax+232]
  00e03	66 0f 2f 05 00
	00 00 00	 comisd	 xmm0, QWORD PTR __real@0000000000000000
  00e0b	76 05		 jbe	 SHORT $LN24@routed_veh

; 257  : 	{
; 258  : 
; 259  : 		return;

  00e0d	e9 41 08 00 00	 jmp	 $LN1@routed_veh
$LN24@routed_veh:

; 260  : 	}
; 261  : 	//
; 262  : 
; 263  :    wp_vec.x = wp_pos.x - raw->vh.mob.position.x;

  00e12	8b 45 fc	 mov	 eax, DWORD PTR _raw$[ebp]
  00e15	f3 0f 10 45 d4	 movss	 xmm0, DWORD PTR _wp_pos$[ebp]
  00e1a	f3 0f 5c 40 04	 subss	 xmm0, DWORD PTR [eax+4]
  00e1f	f3 0f 11 45 e0	 movss	 DWORD PTR _wp_vec$[ebp], xmm0

; 264  :    wp_vec.y = wp_pos.y - raw->vh.mob.position.y;

  00e24	8b 45 fc	 mov	 eax, DWORD PTR _raw$[ebp]
  00e27	f3 0f 10 45 d8	 movss	 xmm0, DWORD PTR _wp_pos$[ebp+4]
  00e2c	f3 0f 5c 40 08	 subss	 xmm0, DWORD PTR [eax+8]
  00e31	f3 0f 11 45 e4	 movss	 DWORD PTR _wp_vec$[ebp+4], xmm0

; 265  :    wp_vec.z = wp_pos.z - raw->vh.mob.position.z;

  00e36	8b 45 fc	 mov	 eax, DWORD PTR _raw$[ebp]
  00e39	f3 0f 10 45 dc	 movss	 xmm0, DWORD PTR _wp_pos$[ebp+8]
  00e3e	f3 0f 5c 40 0c	 subss	 xmm0, DWORD PTR [eax+12]
  00e43	f3 0f 11 45 e8	 movss	 DWORD PTR _wp_vec$[ebp+8], xmm0

; 266  : 
; 267  :    ////////////////////////////////////////
; 268  :    //
; 269  : 	// Movement
; 270  :    //
; 271  :    ////////////////////////////////////////
; 272  : 
; 273  : 	new_pos.x = raw->vh.mob.position.x;

  00e48	8b 45 fc	 mov	 eax, DWORD PTR _raw$[ebp]
  00e4b	f3 0f 10 40 04	 movss	 xmm0, DWORD PTR [eax+4]
  00e50	f3 0f 11 45 c8	 movss	 DWORD PTR _new_pos$[ebp], xmm0

; 274  : 	new_pos.y = raw->vh.mob.position.y;

  00e55	8b 45 fc	 mov	 eax, DWORD PTR _raw$[ebp]
  00e58	f3 0f 10 40 08	 movss	 xmm0, DWORD PTR [eax+8]
  00e5d	f3 0f 11 45 cc	 movss	 DWORD PTR _new_pos$[ebp+4], xmm0

; 275  : 	new_pos.z = raw->vh.mob.position.z;

  00e62	8b 45 fc	 mov	 eax, DWORD PTR _raw$[ebp]
  00e65	f3 0f 10 40 0c	 movss	 xmm0, DWORD PTR [eax+12]
  00e6a	f3 0f 11 45 d0	 movss	 DWORD PTR _new_pos$[ebp+8], xmm0

; 276  : 
; 277  : 	// not on top of waypoint (sqr check within 0.1m)
; 278  : 	if (((wp_vec.x * wp_vec.x) + (wp_vec.z * wp_vec.z)) > 1.0)

  00e6f	f3 0f 10 45 e0	 movss	 xmm0, DWORD PTR _wp_vec$[ebp]
  00e74	f3 0f 59 45 e0	 mulss	 xmm0, DWORD PTR _wp_vec$[ebp]
  00e79	f3 0f 10 4d e8	 movss	 xmm1, DWORD PTR _wp_vec$[ebp+8]
  00e7e	f3 0f 59 4d e8	 mulss	 xmm1, DWORD PTR _wp_vec$[ebp+8]
  00e83	f3 0f 58 c1	 addss	 xmm0, xmm1
  00e87	f3 0f 5a c0	 cvtss2sd xmm0, xmm0
  00e8b	66 0f 2f 05 00
	00 00 00	 comisd	 xmm0, QWORD PTR __real@3ff0000000000000
  00e93	0f 86 9b 06 00
	00		 jbe	 $LN25@routed_veh

; 279  : 	{
; 280  : 
; 281  : 		float
; 282  : 			old_heading = 0,

  00e99	0f 57 c0	 xorps	 xmm0, xmm0
  00e9c	f3 0f 11 45 b4	 movss	 DWORD PTR _old_heading$7[ebp], xmm0

; 283  : 			old_roll = 0,

  00ea1	0f 57 c0	 xorps	 xmm0, xmm0
  00ea4	f3 0f 11 45 b0	 movss	 DWORD PTR _old_roll$6[ebp], xmm0

; 284  : 			old_pitch = 0,

  00ea9	0f 57 c0	 xorps	 xmm0, xmm0
  00eac	f3 0f 11 45 ac	 movss	 DWORD PTR _old_pitch$5[ebp], xmm0

; 285  : 			movement_distance,
; 286  : 			delta_velocity,
; 287  : 			max_accel;
; 288  : 
; 289  : 		////////////////////////////////////////
; 290  : 		//
; 291  : 		// velocity
; 292  : 		//
; 293  : 		////////////////////////////////////////
; 294  : 
; 295  : 		max_accel = get_local_entity_float_value (en, FLOAT_TYPE_MAX_ACCELERATION);

  00eb1	83 7d 08 00	 cmp	 DWORD PTR _en$[ebp], 0
  00eb5	74 0d		 je	 SHORT $LN114@routed_veh
  00eb7	8b 45 08	 mov	 eax, DWORD PTR _en$[ebp]
  00eba	8b 08		 mov	 ecx, DWORD PTR [eax]
  00ebc	89 8d 58 ff ff
	ff		 mov	 DWORD PTR tv679[ebp], ecx
  00ec2	eb 27		 jmp	 SHORT $LN115@routed_veh
$LN114@routed_veh:
  00ec4	8b 15 00 00 00
	00		 mov	 edx, DWORD PTR ?__LINE__Var@?0??routed_vehicle_movement@@YGXPAUENTITY@@@Z@4JA
  00eca	81 c2 c5 00 00
	00		 add	 edx, 197		; 000000c5H
  00ed0	52		 push	 edx
  00ed1	68 00 00 00 00	 push	 OFFSET ??_C@_0FD@CFOFJMFL@c?3?2users?2nhv90?2projects?2eech?2ap@
  00ed6	a1 00 00 00 00	 mov	 eax, DWORD PTR ?null_entity_pointer_message@@3PBDB ; null_entity_pointer_message
  00edb	50		 push	 eax
  00edc	e8 00 00 00 00	 call	 ?process_assert@@YGXPBD0H@Z ; process_assert
  00ee1	c7 85 58 ff ff
	ff 00 00 00 00	 mov	 DWORD PTR tv679[ebp], 0
$LN115@routed_veh:
  00eeb	b9 01 00 00 00	 mov	 ecx, 1
  00ef0	85 c9		 test	 ecx, ecx
  00ef2	74 0c		 je	 SHORT $LN116@routed_veh
  00ef4	c7 85 54 ff ff
	ff 4c 00 00 00	 mov	 DWORD PTR tv687[ebp], 76 ; 0000004cH
  00efe	eb 27		 jmp	 SHORT $LN117@routed_veh
$LN116@routed_veh:
  00f00	8b 15 00 00 00
	00		 mov	 edx, DWORD PTR ?__LINE__Var@?0??routed_vehicle_movement@@YGXPAUENTITY@@@Z@4JA
  00f06	81 c2 c5 00 00
	00		 add	 edx, 197		; 000000c5H
  00f0c	52		 push	 edx
  00f0d	68 00 00 00 00	 push	 OFFSET ??_C@_0FD@CFOFJMFL@c?3?2users?2nhv90?2projects?2eech?2ap@
  00f12	a1 00 00 00 00	 mov	 eax, DWORD PTR ?overload_invalid_float_type_message@@3PBDB ; overload_invalid_float_type_message
  00f17	50		 push	 eax
  00f18	e8 00 00 00 00	 call	 ?process_assert@@YGXPBD0H@Z ; process_assert
  00f1d	c7 85 54 ff ff
	ff 00 00 00 00	 mov	 DWORD PTR tv687[ebp], 0
$LN117@routed_veh:
  00f27	6a 4c		 push	 76			; 0000004cH
  00f29	8b 4d 08	 mov	 ecx, DWORD PTR _en$[ebp]
  00f2c	51		 push	 ecx
  00f2d	69 95 58 ff ff
	ff bc 02 00 00	 imul	 edx, DWORD PTR tv679[ebp], 700
  00f37	8b 85 54 ff ff
	ff		 mov	 eax, DWORD PTR tv687[ebp]
  00f3d	8b 8c 82 00 00
	00 00		 mov	 ecx, DWORD PTR ?fn_get_local_entity_float_value@@3PAY0KP@P6GMPAUENTITY@@W4FLOAT_TYPES@@@ZA[edx+eax*4]
  00f44	ff d1		 call	 ecx
  00f46	d9 5d a0	 fstp	 DWORD PTR _max_accel$2[ebp]

; 296  : 
; 297  : 		raw->desired_velocity = get_local_entity_float_value (guide, FLOAT_TYPE_VELOCITY);

  00f49	83 7d f0 00	 cmp	 DWORD PTR _guide$[ebp], 0
  00f4d	74 0d		 je	 SHORT $LN118@routed_veh
  00f4f	8b 45 f0	 mov	 eax, DWORD PTR _guide$[ebp]
  00f52	8b 08		 mov	 ecx, DWORD PTR [eax]
  00f54	89 8d 58 ff ff
	ff		 mov	 DWORD PTR tv700[ebp], ecx
  00f5a	eb 27		 jmp	 SHORT $LN119@routed_veh
$LN118@routed_veh:
  00f5c	8b 15 00 00 00
	00		 mov	 edx, DWORD PTR ?__LINE__Var@?0??routed_vehicle_movement@@YGXPAUENTITY@@@Z@4JA
  00f62	81 c2 c7 00 00
	00		 add	 edx, 199		; 000000c7H
  00f68	52		 push	 edx
  00f69	68 00 00 00 00	 push	 OFFSET ??_C@_0FD@CFOFJMFL@c?3?2users?2nhv90?2projects?2eech?2ap@
  00f6e	a1 00 00 00 00	 mov	 eax, DWORD PTR ?null_entity_pointer_message@@3PBDB ; null_entity_pointer_message
  00f73	50		 push	 eax
  00f74	e8 00 00 00 00	 call	 ?process_assert@@YGXPBD0H@Z ; process_assert
  00f79	c7 85 58 ff ff
	ff 00 00 00 00	 mov	 DWORD PTR tv700[ebp], 0
$LN119@routed_veh:
  00f83	b9 01 00 00 00	 mov	 ecx, 1
  00f88	85 c9		 test	 ecx, ecx
  00f8a	74 0c		 je	 SHORT $LN120@routed_veh
  00f8c	c7 85 54 ff ff
	ff 93 00 00 00	 mov	 DWORD PTR tv708[ebp], 147 ; 00000093H
  00f96	eb 27		 jmp	 SHORT $LN121@routed_veh
$LN120@routed_veh:
  00f98	8b 15 00 00 00
	00		 mov	 edx, DWORD PTR ?__LINE__Var@?0??routed_vehicle_movement@@YGXPAUENTITY@@@Z@4JA
  00f9e	81 c2 c7 00 00
	00		 add	 edx, 199		; 000000c7H
  00fa4	52		 push	 edx
  00fa5	68 00 00 00 00	 push	 OFFSET ??_C@_0FD@CFOFJMFL@c?3?2users?2nhv90?2projects?2eech?2ap@
  00faa	a1 00 00 00 00	 mov	 eax, DWORD PTR ?overload_invalid_float_type_message@@3PBDB ; overload_invalid_float_type_message
  00faf	50		 push	 eax
  00fb0	e8 00 00 00 00	 call	 ?process_assert@@YGXPBD0H@Z ; process_assert
  00fb5	c7 85 54 ff ff
	ff 00 00 00 00	 mov	 DWORD PTR tv708[ebp], 0
$LN121@routed_veh:
  00fbf	68 93 00 00 00	 push	 147			; 00000093H
  00fc4	8b 4d f0	 mov	 ecx, DWORD PTR _guide$[ebp]
  00fc7	51		 push	 ecx
  00fc8	69 95 58 ff ff
	ff bc 02 00 00	 imul	 edx, DWORD PTR tv700[ebp], 700
  00fd2	8b 85 54 ff ff
	ff		 mov	 eax, DWORD PTR tv708[ebp]
  00fd8	8b 8c 82 00 00
	00 00		 mov	 ecx, DWORD PTR ?fn_get_local_entity_float_value@@3PAY0KP@P6GMPAUENTITY@@W4FLOAT_TYPES@@@ZA[edx+eax*4]
  00fdf	ff d1		 call	 ecx
  00fe1	8b 55 fc	 mov	 edx, DWORD PTR _raw$[ebp]
  00fe4	d9 9a 78 01 00
	00		 fstp	 DWORD PTR [edx+376]

; 298  : 
; 299  : 		delta_velocity = (raw->desired_velocity - raw->vh.mob.velocity);

  00fea	8b 45 fc	 mov	 eax, DWORD PTR _raw$[ebp]
  00fed	8b 4d fc	 mov	 ecx, DWORD PTR _raw$[ebp]
  00ff0	f3 0f 10 80 78
	01 00 00	 movss	 xmm0, DWORD PTR [eax+376]
  00ff8	f3 0f 5c 41 40	 subss	 xmm0, DWORD PTR [ecx+64]
  00ffd	f3 0f 11 45 a4	 movss	 DWORD PTR _delta_velocity$3[ebp], xmm0

; 300  : 
; 301  : 		delta_velocity = bound (delta_velocity, -(10.0 * max_accel), max_accel);

  01002	f3 0f 5a 45 a4	 cvtss2sd xmm0, DWORD PTR _delta_velocity$3[ebp]
  01007	f3 0f 5a 4d a0	 cvtss2sd xmm1, DWORD PTR _max_accel$2[ebp]
  0100c	f2 0f 59 0d 00
	00 00 00	 mulsd	 xmm1, QWORD PTR __real@4024000000000000
  01014	0f 57 0d 00 00
	00 00		 xorps	 xmm1, QWORD PTR __xmm@80000000000000008000000000000000
  0101b	66 0f 2f c8	 comisd	 xmm1, xmm0
  0101f	76 1e		 jbe	 SHORT $LN124@routed_veh
  01021	f3 0f 5a 45 a0	 cvtss2sd xmm0, DWORD PTR _max_accel$2[ebp]
  01026	f2 0f 59 05 00
	00 00 00	 mulsd	 xmm0, QWORD PTR __real@4024000000000000
  0102e	0f 57 05 00 00
	00 00		 xorps	 xmm0, QWORD PTR __xmm@80000000000000008000000000000000
  01035	f2 0f 11 85 54
	ff ff ff	 movsd	 QWORD PTR tv732[ebp], xmm0
  0103d	eb 37		 jmp	 SHORT $LN125@routed_veh
$LN124@routed_veh:
  0103f	f3 0f 10 45 a4	 movss	 xmm0, DWORD PTR _delta_velocity$3[ebp]
  01044	0f 2f 45 a0	 comiss	 xmm0, DWORD PTR _max_accel$2[ebp]
  01048	76 0f		 jbe	 SHORT $LN122@routed_veh
  0104a	f3 0f 10 45 a0	 movss	 xmm0, DWORD PTR _max_accel$2[ebp]
  0104f	f3 0f 11 85 50
	ff ff ff	 movss	 DWORD PTR tv730[ebp], xmm0
  01057	eb 0d		 jmp	 SHORT $LN123@routed_veh
$LN122@routed_veh:
  01059	f3 0f 10 45 a4	 movss	 xmm0, DWORD PTR _delta_velocity$3[ebp]
  0105e	f3 0f 11 85 50
	ff ff ff	 movss	 DWORD PTR tv730[ebp], xmm0
$LN123@routed_veh:
  01066	f3 0f 5a 85 50
	ff ff ff	 cvtss2sd xmm0, DWORD PTR tv730[ebp]
  0106e	f2 0f 11 85 54
	ff ff ff	 movsd	 QWORD PTR tv732[ebp], xmm0
$LN125@routed_veh:
  01076	f2 0f 5a 85 54
	ff ff ff	 cvtsd2ss xmm0, QWORD PTR tv732[ebp]
  0107e	f3 0f 11 45 a4	 movss	 DWORD PTR _delta_velocity$3[ebp], xmm0

; 302  : 
; 303  : 		raw->vh.mob.velocity += delta_velocity * get_entity_movement_delta_time ();

  01083	f3 0f 10 45 a4	 movss	 xmm0, DWORD PTR _delta_velocity$3[ebp]
  01088	f3 0f 59 05 00
	00 00 00	 mulss	 xmm0, DWORD PTR ?system_delta_time@@3MA
  01090	8b 45 fc	 mov	 eax, DWORD PTR _raw$[ebp]
  01093	f3 0f 58 40 40	 addss	 xmm0, DWORD PTR [eax+64]
  01098	8b 4d fc	 mov	 ecx, DWORD PTR _raw$[ebp]
  0109b	f3 0f 11 41 40	 movss	 DWORD PTR [ecx+64], xmm0

; 304  : 
; 305  : 		////////////////////////////////////////
; 306  : 		//
; 307  : 		// Calculate attitude angles
; 308  : 		//
; 309  : 		////////////////////////////////////////
; 310  : 
; 311  : 		//
; 312  : 		// Heading
; 313  : 		//
; 314  : 
; 315  : 		heading = atan2 (wp_vec.x, wp_vec.z);

  010a0	51		 push	 ecx
  010a1	f3 0f 10 45 e8	 movss	 xmm0, DWORD PTR _wp_vec$[ebp+8]
  010a6	f3 0f 11 04 24	 movss	 DWORD PTR [esp], xmm0
  010ab	51		 push	 ecx
  010ac	f3 0f 10 45 e0	 movss	 xmm0, DWORD PTR _wp_vec$[ebp]
  010b1	f3 0f 11 04 24	 movss	 DWORD PTR [esp], xmm0
  010b6	e8 00 00 00 00	 call	 ?atan2@@YGMMM@Z		; atan2
  010bb	d9 5d b8	 fstp	 DWORD PTR _heading$[ebp]

; 316  : 
; 317  : 		//
; 318  : 		// Roll
; 319  : 		//
; 320  : 
; 321  : 		roll = 0;

  010be	0f 57 c0	 xorps	 xmm0, xmm0
  010c1	f3 0f 11 45 c0	 movss	 DWORD PTR _roll$[ebp], xmm0

; 322  : 
; 323  : 		distance = normalise_any_3d_vector (&wp_vec);

  010c6	8d 45 e0	 lea	 eax, DWORD PTR _wp_vec$[ebp]
  010c9	50		 push	 eax
  010ca	e8 00 00 00 00	 call	 ?normalise_any_3d_vector@@YGMPAUVEC3D@@@Z ; normalise_any_3d_vector
  010cf	d9 5d c4	 fstp	 DWORD PTR _distance$[ebp]

; 324  : 
; 325  : 		////////////////////////////////////////
; 326  : 		//
; 327  : 		// attitude
; 328  : 		//
; 329  : 		////////////////////////////////////////
; 330  : 
; 331  : 		if (raw->vh.mob.tacview_logging)

  010d2	8b 45 fc	 mov	 eax, DWORD PTR _raw$[ebp]
  010d5	8b 48 7c	 mov	 ecx, DWORD PTR [eax+124]
  010d8	c1 e9 05	 shr	 ecx, 5
  010db	83 e1 01	 and	 ecx, 1
  010de	0f 84 c5 00 00
	00		 je	 $LN26@routed_veh

; 332  : 		{
; 333  : 			old_roll = get_roll_from_attitude_matrix(raw->vh.mob.attitude);

  010e4	b8 0c 00 00 00	 mov	 eax, 12			; 0000000cH
  010e9	c1 e0 00	 shl	 eax, 0
  010ec	8b 4d fc	 mov	 ecx, DWORD PTR _raw$[ebp]
  010ef	8d 54 01 10	 lea	 edx, DWORD PTR [ecx+eax+16]
  010f3	b8 04 00 00 00	 mov	 eax, 4
  010f8	c1 e0 00	 shl	 eax, 0
  010fb	51		 push	 ecx
  010fc	f3 0f 10 04 02	 movss	 xmm0, DWORD PTR [edx+eax]
  01101	f3 0f 11 04 24	 movss	 DWORD PTR [esp], xmm0
  01106	b9 0c 00 00 00	 mov	 ecx, 12			; 0000000cH
  0110b	6b d1 00	 imul	 edx, ecx, 0
  0110e	8b 45 fc	 mov	 eax, DWORD PTR _raw$[ebp]
  01111	8d 4c 10 10	 lea	 ecx, DWORD PTR [eax+edx+16]
  01115	ba 04 00 00 00	 mov	 edx, 4
  0111a	c1 e2 00	 shl	 edx, 0
  0111d	f3 0f 10 04 11	 movss	 xmm0, DWORD PTR [ecx+edx]
  01122	0f 57 05 00 00
	00 00		 xorps	 xmm0, DWORD PTR __xmm@80000000800000008000000080000000
  01129	51		 push	 ecx
  0112a	f3 0f 11 04 24	 movss	 DWORD PTR [esp], xmm0
  0112f	e8 00 00 00 00	 call	 ?atan2@@YGMMM@Z		; atan2
  01134	d9 5d b0	 fstp	 DWORD PTR _old_roll$6[ebp]

; 334  : 			old_pitch = get_pitch_from_attitude_matrix(raw->vh.mob.attitude);

  01137	b8 0c 00 00 00	 mov	 eax, 12			; 0000000cH
  0113c	d1 e0		 shl	 eax, 1
  0113e	8b 4d fc	 mov	 ecx, DWORD PTR _raw$[ebp]
  01141	8d 54 01 10	 lea	 edx, DWORD PTR [ecx+eax+16]
  01145	b8 04 00 00 00	 mov	 eax, 4
  0114a	c1 e0 00	 shl	 eax, 0
  0114d	51		 push	 ecx
  0114e	f3 0f 10 04 02	 movss	 xmm0, DWORD PTR [edx+eax]
  01153	f3 0f 11 04 24	 movss	 DWORD PTR [esp], xmm0
  01158	e8 00 00 00 00	 call	 ?asin@@YGMM@Z		; asin
  0115d	d9 5d ac	 fstp	 DWORD PTR _old_pitch$5[ebp]

; 335  : 			old_heading = get_heading_from_attitude_matrix(raw->vh.mob.attitude);

  01160	b8 0c 00 00 00	 mov	 eax, 12			; 0000000cH
  01165	d1 e0		 shl	 eax, 1
  01167	8b 4d fc	 mov	 ecx, DWORD PTR _raw$[ebp]
  0116a	8d 54 01 10	 lea	 edx, DWORD PTR [ecx+eax+16]
  0116e	b8 04 00 00 00	 mov	 eax, 4
  01173	d1 e0		 shl	 eax, 1
  01175	51		 push	 ecx
  01176	f3 0f 10 04 02	 movss	 xmm0, DWORD PTR [edx+eax]
  0117b	f3 0f 11 04 24	 movss	 DWORD PTR [esp], xmm0
  01180	b9 0c 00 00 00	 mov	 ecx, 12			; 0000000cH
  01185	d1 e1		 shl	 ecx, 1
  01187	8b 55 fc	 mov	 edx, DWORD PTR _raw$[ebp]
  0118a	8d 44 0a 10	 lea	 eax, DWORD PTR [edx+ecx+16]
  0118e	b9 04 00 00 00	 mov	 ecx, 4
  01193	6b d1 00	 imul	 edx, ecx, 0
  01196	51		 push	 ecx
  01197	f3 0f 10 04 10	 movss	 xmm0, DWORD PTR [eax+edx]
  0119c	f3 0f 11 04 24	 movss	 DWORD PTR [esp], xmm0
  011a1	e8 00 00 00 00	 call	 ?atan2@@YGMMM@Z		; atan2
  011a6	d9 5d b4	 fstp	 DWORD PTR _old_heading$7[ebp]
$LN26@routed_veh:

; 336  : 		}
; 337  : 
; 338  : 		if (get_local_entity_int_value (guide, INT_TYPE_TERRAIN_FOLLOW_MODE) != GUIDE_TERRAIN_FOLLOW_NONE)

  011a9	83 7d f0 00	 cmp	 DWORD PTR _guide$[ebp], 0
  011ad	74 0d		 je	 SHORT $LN126@routed_veh
  011af	8b 45 f0	 mov	 eax, DWORD PTR _guide$[ebp]
  011b2	8b 08		 mov	 ecx, DWORD PTR [eax]
  011b4	89 8d 58 ff ff
	ff		 mov	 DWORD PTR tv802[ebp], ecx
  011ba	eb 20		 jmp	 SHORT $LN127@routed_veh
$LN126@routed_veh:
  011bc	68 52 01 00 00	 push	 338			; 00000152H
  011c1	68 00 00 00 00	 push	 OFFSET ??_C@_0FD@CFOFJMFL@c?3?2users?2nhv90?2projects?2eech?2ap@
  011c6	8b 15 00 00 00
	00		 mov	 edx, DWORD PTR ?null_entity_pointer_message@@3PBDB ; null_entity_pointer_message
  011cc	52		 push	 edx
  011cd	e8 00 00 00 00	 call	 ?process_assert@@YGXPBD0H@Z ; process_assert
  011d2	c7 85 58 ff ff
	ff 00 00 00 00	 mov	 DWORD PTR tv802[ebp], 0
$LN127@routed_veh:
  011dc	b8 01 00 00 00	 mov	 eax, 1
  011e1	85 c0		 test	 eax, eax
  011e3	74 0c		 je	 SHORT $LN128@routed_veh
  011e5	c7 85 54 ff ff
	ff e8 00 00 00	 mov	 DWORD PTR tv809[ebp], 232 ; 000000e8H
  011ef	eb 20		 jmp	 SHORT $LN129@routed_veh
$LN128@routed_veh:
  011f1	68 52 01 00 00	 push	 338			; 00000152H
  011f6	68 00 00 00 00	 push	 OFFSET ??_C@_0FD@CFOFJMFL@c?3?2users?2nhv90?2projects?2eech?2ap@
  011fb	8b 0d 00 00 00
	00		 mov	 ecx, DWORD PTR ?overload_invalid_int_type_message@@3PBDB ; overload_invalid_int_type_message
  01201	51		 push	 ecx
  01202	e8 00 00 00 00	 call	 ?process_assert@@YGXPBD0H@Z ; process_assert
  01207	c7 85 54 ff ff
	ff 00 00 00 00	 mov	 DWORD PTR tv809[ebp], 0
$LN129@routed_veh:
  01211	68 e8 00 00 00	 push	 232			; 000000e8H
  01216	8b 55 f0	 mov	 edx, DWORD PTR _guide$[ebp]
  01219	52		 push	 edx
  0121a	69 85 58 ff ff
	ff 5c 04 00 00	 imul	 eax, DWORD PTR tv802[ebp], 1116
  01224	8b 8d 54 ff ff
	ff		 mov	 ecx, DWORD PTR tv809[ebp]
  0122a	8b 94 88 00 00
	00 00		 mov	 edx, DWORD PTR ?fn_get_local_entity_int_value@@3PAY0BBH@P6GHPAUENTITY@@W4INT_TYPES@@@ZA[eax+ecx*4]
  01231	ff d2		 call	 edx
  01233	85 c0		 test	 eax, eax
  01235	0f 84 94 00 00
	00		 je	 $LN27@routed_veh

; 339  : 		{
; 340  : 
; 341  : 			//
; 342  : 			// Get roll for terrain
; 343  : 			//
; 344  : 
; 345  : 			get_3d_terrain_point_data (new_pos.x, new_pos.z, &raw->vh.terrain_info);

  0123b	8b 45 fc	 mov	 eax, DWORD PTR _raw$[ebp]
  0123e	05 4c 01 00 00	 add	 eax, 332		; 0000014cH
  01243	50		 push	 eax
  01244	51		 push	 ecx
  01245	f3 0f 10 45 d0	 movss	 xmm0, DWORD PTR _new_pos$[ebp+8]
  0124a	f3 0f 11 04 24	 movss	 DWORD PTR [esp], xmm0
  0124f	51		 push	 ecx
  01250	f3 0f 10 45 c8	 movss	 xmm0, DWORD PTR _new_pos$[ebp]
  01255	f3 0f 11 04 24	 movss	 DWORD PTR [esp], xmm0
  0125a	e8 00 00 00 00	 call	 ?get_3d_terrain_point_data@@YGMMMPAUTERRAIN_3D_POINT_DATA@@@Z ; get_3d_terrain_point_data
  0125f	dd d8		 fstp	 ST(0)

; 346  : 
; 347  : 			new_pos.y = get_3d_terrain_point_data_elevation (&raw->vh.terrain_info);

  01261	8b 45 fc	 mov	 eax, DWORD PTR _raw$[ebp]
  01264	05 4c 01 00 00	 add	 eax, 332		; 0000014cH
  01269	50		 push	 eax
  0126a	e8 00 00 00 00	 call	 ?get_3d_terrain_point_data_elevation@@YGMPAUTERRAIN_3D_POINT_DATA@@@Z ; get_3d_terrain_point_data_elevation
  0126f	d9 5d cc	 fstp	 DWORD PTR _new_pos$[ebp+4]

; 348  : 
; 349  : 			if (get_terrain_type_class (get_3d_terrain_point_data_type (&raw->vh.terrain_info)) == TERRAIN_CLASS_FOREST)

  01272	8b 45 fc	 mov	 eax, DWORD PTR _raw$[ebp]
  01275	05 4c 01 00 00	 add	 eax, 332		; 0000014cH
  0127a	50		 push	 eax
  0127b	e8 00 00 00 00	 call	 ?get_3d_terrain_point_data_type@@YGHPAUTERRAIN_3D_POINT_DATA@@@Z ; get_3d_terrain_point_data_type
  01280	50		 push	 eax
  01281	e8 00 00 00 00	 call	 ?get_terrain_type_class@@YG?AW4TERRAIN_CLASSES@@H@Z ; get_terrain_type_class
  01286	83 f8 02	 cmp	 eax, 2
  01289	75 16		 jne	 SHORT $LN29@routed_veh

; 350  : 			{
; 351  : 				new_pos.y -= 20.0;

  0128b	f3 0f 5a 45 cc	 cvtss2sd xmm0, DWORD PTR _new_pos$[ebp+4]
  01290	f2 0f 5c 05 00
	00 00 00	 subsd	 xmm0, QWORD PTR __real@4034000000000000
  01298	f2 0f 5a c0	 cvtsd2ss xmm0, xmm0
  0129c	f3 0f 11 45 cc	 movss	 DWORD PTR _new_pos$[ebp+4], xmm0
$LN29@routed_veh:

; 352  : 			}
; 353  : 
; 354  : 			face_normal = get_3d_terrain_point_data_normal (&raw->vh.terrain_info);

  012a1	8b 45 fc	 mov	 eax, DWORD PTR _raw$[ebp]
  012a4	05 4c 01 00 00	 add	 eax, 332		; 0000014cH
  012a9	50		 push	 eax
  012aa	e8 00 00 00 00	 call	 ?get_3d_terrain_point_data_normal@@YGPAUVEC3D@@PAUTERRAIN_3D_POINT_DATA@@@Z ; get_3d_terrain_point_data_normal
  012af	89 45 ec	 mov	 DWORD PTR _face_normal$[ebp], eax

; 355  : 
; 356  : 			get_3d_transformation_matrix_from_face_normal_and_heading (raw->vh.mob.attitude, face_normal, heading);

  012b2	51		 push	 ecx
  012b3	f3 0f 10 45 b8	 movss	 xmm0, DWORD PTR _heading$[ebp]
  012b8	f3 0f 11 04 24	 movss	 DWORD PTR [esp], xmm0
  012bd	8b 45 ec	 mov	 eax, DWORD PTR _face_normal$[ebp]
  012c0	50		 push	 eax
  012c1	8b 4d fc	 mov	 ecx, DWORD PTR _raw$[ebp]
  012c4	83 c1 10	 add	 ecx, 16			; 00000010H
  012c7	51		 push	 ecx
  012c8	e8 00 00 00 00	 call	 ?get_3d_transformation_matrix_from_face_normal_and_heading@@YGXQAY02MPBUVEC3D@@M@Z ; get_3d_transformation_matrix_from_face_normal_and_heading

; 357  : 		}
; 358  : 		else

  012cd	eb 35		 jmp	 SHORT $LN28@routed_veh
$LN27@routed_veh:

; 359  : 		{
; 360  : 
; 361  : 			pitch = asin (wp_vec.y);

  012cf	51		 push	 ecx
  012d0	f3 0f 10 45 e4	 movss	 xmm0, DWORD PTR _wp_vec$[ebp+4]
  012d5	f3 0f 11 04 24	 movss	 DWORD PTR [esp], xmm0
  012da	e8 00 00 00 00	 call	 ?asin@@YGMM@Z		; asin
  012df	d9 5d bc	 fstp	 DWORD PTR _pitch$[ebp]

; 362  : 
; 363  : 			get_3d_transformation_heading_pitch_matrix (raw->vh.mob.attitude, heading, pitch);

  012e2	51		 push	 ecx
  012e3	f3 0f 10 45 bc	 movss	 xmm0, DWORD PTR _pitch$[ebp]
  012e8	f3 0f 11 04 24	 movss	 DWORD PTR [esp], xmm0
  012ed	51		 push	 ecx
  012ee	f3 0f 10 45 b8	 movss	 xmm0, DWORD PTR _heading$[ebp]
  012f3	f3 0f 11 04 24	 movss	 DWORD PTR [esp], xmm0
  012f8	8b 45 fc	 mov	 eax, DWORD PTR _raw$[ebp]
  012fb	83 c0 10	 add	 eax, 16			; 00000010H
  012fe	50		 push	 eax
  012ff	e8 00 00 00 00	 call	 ?get_3d_transformation_heading_pitch_matrix@@YGXQAY02MMM@Z ; get_3d_transformation_heading_pitch_matrix
$LN28@routed_veh:

; 364  : 		}
; 365  : 
; 366  : 		////////////////////////////////////////
; 367  : 		//
; 368  : 		// Set Position
; 369  : 		//
; 370  : 		////////////////////////////////////////
; 371  : 
; 372  : 		if (raw->vh.mob.tacview_logging)

  01304	8b 45 fc	 mov	 eax, DWORD PTR _raw$[ebp]
  01307	8b 48 7c	 mov	 ecx, DWORD PTR [eax+124]
  0130a	c1 e9 05	 shr	 ecx, 5
  0130d	83 e1 01	 and	 ecx, 1
  01310	0f 84 b1 01 00
	00		 je	 $LN31@routed_veh

; 373  : 		{
; 374  : 			if (fabs(get_roll_from_attitude_matrix(raw->vh.mob.attitude) - old_roll) > rad(0.001)
; 375  : 				|| fabs(get_pitch_from_attitude_matrix(raw->vh.mob.attitude) - old_pitch) > rad(0.001)
; 376  : 				|| fabs(heading - old_heading) > rad(0.001))

  01316	b8 0c 00 00 00	 mov	 eax, 12			; 0000000cH
  0131b	c1 e0 00	 shl	 eax, 0
  0131e	8b 4d fc	 mov	 ecx, DWORD PTR _raw$[ebp]
  01321	8d 54 01 10	 lea	 edx, DWORD PTR [ecx+eax+16]
  01325	b8 04 00 00 00	 mov	 eax, 4
  0132a	c1 e0 00	 shl	 eax, 0
  0132d	51		 push	 ecx
  0132e	f3 0f 10 04 02	 movss	 xmm0, DWORD PTR [edx+eax]
  01333	f3 0f 11 04 24	 movss	 DWORD PTR [esp], xmm0
  01338	b9 0c 00 00 00	 mov	 ecx, 12			; 0000000cH
  0133d	6b d1 00	 imul	 edx, ecx, 0
  01340	8b 45 fc	 mov	 eax, DWORD PTR _raw$[ebp]
  01343	8d 4c 10 10	 lea	 ecx, DWORD PTR [eax+edx+16]
  01347	ba 04 00 00 00	 mov	 edx, 4
  0134c	c1 e2 00	 shl	 edx, 0
  0134f	f3 0f 10 04 11	 movss	 xmm0, DWORD PTR [ecx+edx]
  01354	0f 57 05 00 00
	00 00		 xorps	 xmm0, DWORD PTR __xmm@80000000800000008000000080000000
  0135b	51		 push	 ecx
  0135c	f3 0f 11 04 24	 movss	 DWORD PTR [esp], xmm0
  01361	e8 00 00 00 00	 call	 ?atan2@@YGMMM@Z		; atan2
  01366	d9 9d 58 ff ff
	ff		 fstp	 DWORD PTR tv1457[ebp]
  0136c	f3 0f 10 85 58
	ff ff ff	 movss	 xmm0, DWORD PTR tv1457[ebp]
  01374	f3 0f 5c 45 b0	 subss	 xmm0, DWORD PTR _old_roll$6[ebp]
  01379	51		 push	 ecx
  0137a	f3 0f 11 04 24	 movss	 DWORD PTR [esp], xmm0
  0137f	e8 00 00 00 00	 call	 ?fabs@@YGMM@Z		; fabs
  01384	dd 9d 50 ff ff
	ff		 fstp	 QWORD PTR tv1463[ebp]
  0138a	f2 0f 10 85 50
	ff ff ff	 movsd	 xmm0, QWORD PTR tv1463[ebp]
  01392	66 0f 2f 05 00
	00 00 00	 comisd	 xmm0, QWORD PTR __real@3ef24d151eb851ec
  0139a	0f 87 8d 00 00
	00		 ja	 $LN32@routed_veh
  013a0	b8 0c 00 00 00	 mov	 eax, 12			; 0000000cH
  013a5	d1 e0		 shl	 eax, 1
  013a7	8b 4d fc	 mov	 ecx, DWORD PTR _raw$[ebp]
  013aa	8d 54 01 10	 lea	 edx, DWORD PTR [ecx+eax+16]
  013ae	b8 04 00 00 00	 mov	 eax, 4
  013b3	c1 e0 00	 shl	 eax, 0
  013b6	51		 push	 ecx
  013b7	f3 0f 10 04 02	 movss	 xmm0, DWORD PTR [edx+eax]
  013bc	f3 0f 11 04 24	 movss	 DWORD PTR [esp], xmm0
  013c1	e8 00 00 00 00	 call	 ?asin@@YGMM@Z		; asin
  013c6	d9 9d 58 ff ff
	ff		 fstp	 DWORD PTR tv1472[ebp]
  013cc	f3 0f 10 85 58
	ff ff ff	 movss	 xmm0, DWORD PTR tv1472[ebp]
  013d4	f3 0f 5c 45 ac	 subss	 xmm0, DWORD PTR _old_pitch$5[ebp]
  013d9	51		 push	 ecx
  013da	f3 0f 11 04 24	 movss	 DWORD PTR [esp], xmm0
  013df	e8 00 00 00 00	 call	 ?fabs@@YGMM@Z		; fabs
  013e4	dd 9d 50 ff ff
	ff		 fstp	 QWORD PTR tv1478[ebp]
  013ea	f2 0f 10 85 50
	ff ff ff	 movsd	 xmm0, QWORD PTR tv1478[ebp]
  013f2	66 0f 2f 05 00
	00 00 00	 comisd	 xmm0, QWORD PTR __real@3ef24d151eb851ec
  013fa	77 31		 ja	 SHORT $LN32@routed_veh
  013fc	f3 0f 10 45 b8	 movss	 xmm0, DWORD PTR _heading$[ebp]
  01401	f3 0f 5c 45 b4	 subss	 xmm0, DWORD PTR _old_heading$7[ebp]
  01406	51		 push	 ecx
  01407	f3 0f 11 04 24	 movss	 DWORD PTR [esp], xmm0
  0140c	e8 00 00 00 00	 call	 ?fabs@@YGMM@Z		; fabs
  01411	dd 9d 54 ff ff
	ff		 fstp	 QWORD PTR tv1485[ebp]
  01417	f2 0f 10 85 54
	ff ff ff	 movsd	 xmm0, QWORD PTR tv1485[ebp]
  0141f	66 0f 2f 05 00
	00 00 00	 comisd	 xmm0, QWORD PTR __real@3ef24d151eb851ec
  01427	0f 86 9a 00 00
	00		 jbe	 $LN31@routed_veh
$LN32@routed_veh:

; 377  : 			{
; 378  : 				set_local_entity_int_value(en, INT_TYPE_ROTATED, TRUE);

  0142d	83 7d 08 00	 cmp	 DWORD PTR _en$[ebp], 0
  01431	74 0d		 je	 SHORT $LN130@routed_veh
  01433	8b 45 08	 mov	 eax, DWORD PTR _en$[ebp]
  01436	8b 08		 mov	 ecx, DWORD PTR [eax]
  01438	89 8d 58 ff ff
	ff		 mov	 DWORD PTR tv939[ebp], ecx
  0143e	eb 27		 jmp	 SHORT $LN131@routed_veh
$LN130@routed_veh:
  01440	8b 15 00 00 00
	00		 mov	 edx, DWORD PTR ?__LINE__Var@?0??routed_vehicle_movement@@YGXPAUENTITY@@@Z@4JA
  01446	81 c2 18 01 00
	00		 add	 edx, 280		; 00000118H
  0144c	52		 push	 edx
  0144d	68 00 00 00 00	 push	 OFFSET ??_C@_0FD@CFOFJMFL@c?3?2users?2nhv90?2projects?2eech?2ap@
  01452	a1 00 00 00 00	 mov	 eax, DWORD PTR ?null_entity_pointer_message@@3PBDB ; null_entity_pointer_message
  01457	50		 push	 eax
  01458	e8 00 00 00 00	 call	 ?process_assert@@YGXPBD0H@Z ; process_assert
  0145d	c7 85 58 ff ff
	ff 00 00 00 00	 mov	 DWORD PTR tv939[ebp], 0
$LN131@routed_veh:
  01467	b9 01 00 00 00	 mov	 ecx, 1
  0146c	85 c9		 test	 ecx, ecx
  0146e	74 0c		 je	 SHORT $LN132@routed_veh
  01470	c7 85 54 ff ff
	ff b1 00 00 00	 mov	 DWORD PTR tv947[ebp], 177 ; 000000b1H
  0147a	eb 27		 jmp	 SHORT $LN133@routed_veh
$LN132@routed_veh:
  0147c	8b 15 00 00 00
	00		 mov	 edx, DWORD PTR ?__LINE__Var@?0??routed_vehicle_movement@@YGXPAUENTITY@@@Z@4JA
  01482	81 c2 18 01 00
	00		 add	 edx, 280		; 00000118H
  01488	52		 push	 edx
  01489	68 00 00 00 00	 push	 OFFSET ??_C@_0FD@CFOFJMFL@c?3?2users?2nhv90?2projects?2eech?2ap@
  0148e	a1 00 00 00 00	 mov	 eax, DWORD PTR ?overload_invalid_int_type_message@@3PBDB ; overload_invalid_int_type_message
  01493	50		 push	 eax
  01494	e8 00 00 00 00	 call	 ?process_assert@@YGXPBD0H@Z ; process_assert
  01499	c7 85 54 ff ff
	ff 00 00 00 00	 mov	 DWORD PTR tv947[ebp], 0
$LN133@routed_veh:
  014a3	6a 01		 push	 1
  014a5	68 b1 00 00 00	 push	 177			; 000000b1H
  014aa	8b 4d 08	 mov	 ecx, DWORD PTR _en$[ebp]
  014ad	51		 push	 ecx
  014ae	69 95 58 ff ff
	ff 5c 04 00 00	 imul	 edx, DWORD PTR tv939[ebp], 1116
  014b8	8b 85 54 ff ff
	ff		 mov	 eax, DWORD PTR tv947[ebp]
  014be	8b 8c 82 00 00
	00 00		 mov	 ecx, DWORD PTR ?fn_set_local_entity_int_value@@3PAY0BBH@P6GXPAUENTITY@@W4INT_TYPES@@H@ZA[edx+eax*4]
  014c5	ff d1		 call	 ecx
$LN31@routed_veh:

; 379  : 			}
; 380  : 		}
; 381  : 
; 382  : 		movement_distance = min (distance, raw->vh.mob.velocity * get_entity_movement_delta_time ());

  014c7	8b 45 fc	 mov	 eax, DWORD PTR _raw$[ebp]
  014ca	f3 0f 10 40 40	 movss	 xmm0, DWORD PTR [eax+64]
  014cf	f3 0f 59 05 00
	00 00 00	 mulss	 xmm0, DWORD PTR ?system_delta_time@@3MA
  014d7	f3 0f 11 85 5c
	ff ff ff	 movss	 DWORD PTR $T1[ebp], xmm0
  014df	8d 8d 5c ff ff
	ff		 lea	 ecx, DWORD PTR $T1[ebp]
  014e5	51		 push	 ecx
  014e6	8d 55 c4	 lea	 edx, DWORD PTR _distance$[ebp]
  014e9	52		 push	 edx
  014ea	e8 00 00 00 00	 call	 ??$min@M@std@@YGABMABM0@Z ; std::min<float>
  014ef	f3 0f 10 00	 movss	 xmm0, DWORD PTR [eax]
  014f3	f3 0f 11 45 a8	 movss	 DWORD PTR _movement_distance$4[ebp], xmm0

; 383  : 
; 384  : 		//new_pos.x += raw->vh.mob.attitude [2][0] * movement_distance;
; 385  : 		//new_pos.y += raw->vh.mob.attitude [2][1] * movement_distance;
; 386  : 		//new_pos.z += raw->vh.mob.attitude [2][2] * movement_distance;
; 387  : 		new_pos.x += wp_vec.x * movement_distance;

  014f8	f3 0f 10 45 e0	 movss	 xmm0, DWORD PTR _wp_vec$[ebp]
  014fd	f3 0f 59 45 a8	 mulss	 xmm0, DWORD PTR _movement_distance$4[ebp]
  01502	f3 0f 58 45 c8	 addss	 xmm0, DWORD PTR _new_pos$[ebp]
  01507	f3 0f 11 45 c8	 movss	 DWORD PTR _new_pos$[ebp], xmm0

; 388  : 		new_pos.y += wp_vec.y * movement_distance;

  0150c	f3 0f 10 45 e4	 movss	 xmm0, DWORD PTR _wp_vec$[ebp+4]
  01511	f3 0f 59 45 a8	 mulss	 xmm0, DWORD PTR _movement_distance$4[ebp]
  01516	f3 0f 58 45 cc	 addss	 xmm0, DWORD PTR _new_pos$[ebp+4]
  0151b	f3 0f 11 45 cc	 movss	 DWORD PTR _new_pos$[ebp+4], xmm0

; 389  : 		new_pos.z += wp_vec.z * movement_distance;

  01520	f3 0f 10 45 e8	 movss	 xmm0, DWORD PTR _wp_vec$[ebp+8]
  01525	f3 0f 59 45 a8	 mulss	 xmm0, DWORD PTR _movement_distance$4[ebp]
  0152a	f3 0f 58 45 d0	 addss	 xmm0, DWORD PTR _new_pos$[ebp+8]
  0152f	f3 0f 11 45 d0	 movss	 DWORD PTR _new_pos$[ebp+8], xmm0
$LN25@routed_veh:

; 390  : 	}
; 391  : 
; 392  : 	//
; 393  : 	// Set vehicle positon
; 394  : 	//
; 395  : 
; 396  : 	bound_position_to_map_volume (&new_pos);

  01534	8d 45 c8	 lea	 eax, DWORD PTR _new_pos$[ebp]
  01537	50		 push	 eax
  01538	e8 00 00 00 00	 call	 ?bound_position_to_map_volume@@YGHPAUVEC3D@@@Z ; bound_position_to_map_volume

; 397  : 
; 398  : 	set_local_entity_vec3d (en, VEC3D_TYPE_POSITION, &new_pos);

  0153d	83 7d 08 00	 cmp	 DWORD PTR _en$[ebp], 0
  01541	74 0d		 je	 SHORT $LN134@routed_veh
  01543	8b 45 08	 mov	 eax, DWORD PTR _en$[ebp]
  01546	8b 08		 mov	 ecx, DWORD PTR [eax]
  01548	89 8d 58 ff ff
	ff		 mov	 DWORD PTR tv973[ebp], ecx
  0154e	eb 27		 jmp	 SHORT $LN135@routed_veh
$LN134@routed_veh:
  01550	8b 15 00 00 00
	00		 mov	 edx, DWORD PTR ?__LINE__Var@?0??routed_vehicle_movement@@YGXPAUENTITY@@@Z@4JA
  01556	81 c2 2c 01 00
	00		 add	 edx, 300		; 0000012cH
  0155c	52		 push	 edx
  0155d	68 00 00 00 00	 push	 OFFSET ??_C@_0FD@CFOFJMFL@c?3?2users?2nhv90?2projects?2eech?2ap@
  01562	a1 00 00 00 00	 mov	 eax, DWORD PTR ?null_entity_pointer_message@@3PBDB ; null_entity_pointer_message
  01567	50		 push	 eax
  01568	e8 00 00 00 00	 call	 ?process_assert@@YGXPBD0H@Z ; process_assert
  0156d	c7 85 58 ff ff
	ff 00 00 00 00	 mov	 DWORD PTR tv973[ebp], 0
$LN135@routed_veh:
  01577	b9 01 00 00 00	 mov	 ecx, 1
  0157c	85 c9		 test	 ecx, ecx
  0157e	74 0c		 je	 SHORT $LN136@routed_veh
  01580	c7 85 54 ff ff
	ff 08 00 00 00	 mov	 DWORD PTR tv981[ebp], 8
  0158a	eb 27		 jmp	 SHORT $LN137@routed_veh
$LN136@routed_veh:
  0158c	8b 15 00 00 00
	00		 mov	 edx, DWORD PTR ?__LINE__Var@?0??routed_vehicle_movement@@YGXPAUENTITY@@@Z@4JA
  01592	81 c2 2c 01 00
	00		 add	 edx, 300		; 0000012cH
  01598	52		 push	 edx
  01599	68 00 00 00 00	 push	 OFFSET ??_C@_0FD@CFOFJMFL@c?3?2users?2nhv90?2projects?2eech?2ap@
  0159e	a1 00 00 00 00	 mov	 eax, DWORD PTR ?overload_invalid_vec3d_type_message@@3PBDB ; overload_invalid_vec3d_type_message
  015a3	50		 push	 eax
  015a4	e8 00 00 00 00	 call	 ?process_assert@@YGXPBD0H@Z ; process_assert
  015a9	c7 85 54 ff ff
	ff 00 00 00 00	 mov	 DWORD PTR tv981[ebp], 0
$LN137@routed_veh:
  015b3	8d 4d c8	 lea	 ecx, DWORD PTR _new_pos$[ebp]
  015b6	51		 push	 ecx
  015b7	6a 08		 push	 8
  015b9	8b 55 08	 mov	 edx, DWORD PTR _en$[ebp]
  015bc	52		 push	 edx
  015bd	6b 85 58 ff ff
	ff 60		 imul	 eax, DWORD PTR tv973[ebp], 96
  015c4	8b 8d 54 ff ff
	ff		 mov	 ecx, DWORD PTR tv981[ebp]
  015ca	8b 94 88 00 00
	00 00		 mov	 edx, DWORD PTR ?fn_set_local_entity_vec3d@@3PAY0BI@P6GXPAUENTITY@@W4VEC3D_TYPES@@PAUVEC3D@@@ZA[eax+ecx*4]
  015d1	ff d2		 call	 edx

; 399  : 
; 400  : 	//
; 401  : 	// Calculate motion vector for view system
; 402  : 	//
; 403  : 
; 404  : 	raw->vh.mob.motion_vector.x = raw->vh.mob.attitude [2][0] * raw->vh.mob.velocity;

  015d3	b8 0c 00 00 00	 mov	 eax, 12			; 0000000cH
  015d8	d1 e0		 shl	 eax, 1
  015da	8b 4d fc	 mov	 ecx, DWORD PTR _raw$[ebp]
  015dd	8d 54 01 10	 lea	 edx, DWORD PTR [ecx+eax+16]
  015e1	b8 04 00 00 00	 mov	 eax, 4
  015e6	6b c8 00	 imul	 ecx, eax, 0
  015e9	8b 45 fc	 mov	 eax, DWORD PTR _raw$[ebp]
  015ec	f3 0f 10 04 0a	 movss	 xmm0, DWORD PTR [edx+ecx]
  015f1	f3 0f 59 40 40	 mulss	 xmm0, DWORD PTR [eax+64]
  015f6	8b 4d fc	 mov	 ecx, DWORD PTR _raw$[ebp]
  015f9	f3 0f 11 41 34	 movss	 DWORD PTR [ecx+52], xmm0

; 405  : 	raw->vh.mob.motion_vector.y = raw->vh.mob.attitude [2][1] * raw->vh.mob.velocity;

  015fe	b8 0c 00 00 00	 mov	 eax, 12			; 0000000cH
  01603	d1 e0		 shl	 eax, 1
  01605	8b 4d fc	 mov	 ecx, DWORD PTR _raw$[ebp]
  01608	8d 54 01 10	 lea	 edx, DWORD PTR [ecx+eax+16]
  0160c	b8 04 00 00 00	 mov	 eax, 4
  01611	c1 e0 00	 shl	 eax, 0
  01614	8b 4d fc	 mov	 ecx, DWORD PTR _raw$[ebp]
  01617	f3 0f 10 04 02	 movss	 xmm0, DWORD PTR [edx+eax]
  0161c	f3 0f 59 41 40	 mulss	 xmm0, DWORD PTR [ecx+64]
  01621	8b 55 fc	 mov	 edx, DWORD PTR _raw$[ebp]
  01624	f3 0f 11 42 38	 movss	 DWORD PTR [edx+56], xmm0

; 406  : 	raw->vh.mob.motion_vector.z = raw->vh.mob.attitude [2][2] * raw->vh.mob.velocity;

  01629	b8 0c 00 00 00	 mov	 eax, 12			; 0000000cH
  0162e	d1 e0		 shl	 eax, 1
  01630	8b 4d fc	 mov	 ecx, DWORD PTR _raw$[ebp]
  01633	8d 54 01 10	 lea	 edx, DWORD PTR [ecx+eax+16]
  01637	b8 04 00 00 00	 mov	 eax, 4
  0163c	d1 e0		 shl	 eax, 1
  0163e	8b 4d fc	 mov	 ecx, DWORD PTR _raw$[ebp]
  01641	f3 0f 10 04 02	 movss	 xmm0, DWORD PTR [edx+eax]
  01646	f3 0f 59 41 40	 mulss	 xmm0, DWORD PTR [ecx+64]
  0164b	8b 55 fc	 mov	 edx, DWORD PTR _raw$[ebp]
  0164e	f3 0f 11 42 3c	 movss	 DWORD PTR [edx+60], xmm0
$LN1@routed_veh:

; 407  : }

  01653	5f		 pop	 edi
  01654	5e		 pop	 esi
  01655	5b		 pop	 ebx
  01656	8b e5		 mov	 esp, ebp
  01658	5d		 pop	 ebp
  01659	c2 04 00	 ret	 4
?routed_vehicle_movement@@YGXPAUENTITY@@@Z ENDP		; routed_vehicle_movement
_TEXT	ENDS
; Function compile flags: /Odtp /ZI
; File c:\program files (x86)\microsoft visual studio\2017\community\vc\tools\msvc\14.16.27023\include\cmath
;	COMDAT ?fabs@@YGMM@Z
_TEXT	SEGMENT
__Xx$ = 8						; size = 4
?fabs@@YGMM@Z PROC					; fabs, COMDAT

; 112  : 	{

  00000	55		 push	 ebp
  00001	8b ec		 mov	 ebp, esp
  00003	83 ec 40	 sub	 esp, 64			; 00000040H
  00006	53		 push	 ebx
  00007	56		 push	 esi
  00008	57		 push	 edi

; 113  : 	return (_CSTD fabsf(_Xx));

  00009	51		 push	 ecx
  0000a	f3 0f 10 45 08	 movss	 xmm0, DWORD PTR __Xx$[ebp]
  0000f	f3 0f 11 04 24	 movss	 DWORD PTR [esp], xmm0
  00014	e8 00 00 00 00	 call	 _fabsf
  00019	83 c4 04	 add	 esp, 4

; 114  : 	}

  0001c	5f		 pop	 edi
  0001d	5e		 pop	 esi
  0001e	5b		 pop	 ebx
  0001f	8b e5		 mov	 esp, ebp
  00021	5d		 pop	 ebp
  00022	c2 04 00	 ret	 4
?fabs@@YGMM@Z ENDP					; fabs
_TEXT	ENDS
; Function compile flags: /Odtp /ZI
; File c:\program files (x86)\microsoft visual studio\2017\community\vc\tools\msvc\14.16.27023\include\cmath
;	COMDAT ?atan2@@YGMMM@Z
_TEXT	SEGMENT
__Yx$ = 8						; size = 4
__Xx$ = 12						; size = 4
?atan2@@YGMMM@Z PROC					; atan2, COMDAT

; 56   : 	{

  00000	55		 push	 ebp
  00001	8b ec		 mov	 ebp, esp
  00003	83 ec 40	 sub	 esp, 64			; 00000040H
  00006	53		 push	 ebx
  00007	56		 push	 esi
  00008	57		 push	 edi

; 57   : 	return (_CSTD atan2f(_Yx, _Xx));

  00009	51		 push	 ecx
  0000a	f3 0f 10 45 0c	 movss	 xmm0, DWORD PTR __Xx$[ebp]
  0000f	f3 0f 11 04 24	 movss	 DWORD PTR [esp], xmm0
  00014	51		 push	 ecx
  00015	f3 0f 10 45 08	 movss	 xmm0, DWORD PTR __Yx$[ebp]
  0001a	f3 0f 11 04 24	 movss	 DWORD PTR [esp], xmm0
  0001f	e8 00 00 00 00	 call	 _atan2f
  00024	83 c4 08	 add	 esp, 8

; 58   : 	}

  00027	5f		 pop	 edi
  00028	5e		 pop	 esi
  00029	5b		 pop	 ebx
  0002a	8b e5		 mov	 esp, ebp
  0002c	5d		 pop	 ebp
  0002d	c2 08 00	 ret	 8
?atan2@@YGMMM@Z ENDP					; atan2
_TEXT	ENDS
; Function compile flags: /Odtp /ZI
; File c:\program files (x86)\microsoft visual studio\2017\community\vc\tools\msvc\14.16.27023\include\cmath
;	COMDAT ?asin@@YGMM@Z
_TEXT	SEGMENT
__Xx$ = 8						; size = 4
?asin@@YGMM@Z PROC					; asin, COMDAT

; 36   : 	{

  00000	55		 push	 ebp
  00001	8b ec		 mov	 ebp, esp
  00003	83 ec 40	 sub	 esp, 64			; 00000040H
  00006	53		 push	 ebx
  00007	56		 push	 esi
  00008	57		 push	 edi

; 37   : 	return (_CSTD asinf(_Xx));

  00009	51		 push	 ecx
  0000a	f3 0f 10 45 08	 movss	 xmm0, DWORD PTR __Xx$[ebp]
  0000f	f3 0f 11 04 24	 movss	 DWORD PTR [esp], xmm0
  00014	e8 00 00 00 00	 call	 _asinf
  00019	83 c4 04	 add	 esp, 4

; 38   : 	}

  0001c	5f		 pop	 edi
  0001d	5e		 pop	 esi
  0001e	5b		 pop	 ebx
  0001f	8b e5		 mov	 esp, ebp
  00021	5d		 pop	 ebp
  00022	c2 04 00	 ret	 4
?asin@@YGMM@Z ENDP					; asin
_TEXT	ENDS
; Function compile flags: /Odtp /ZI
; File c:\program files (x86)\windows kits\10\include\10.0.18362.0\ucrt\corecrt_math.h
;	COMDAT _fabsf
_TEXT	SEGMENT
tv71 = -68						; size = 4
__X$ = 8						; size = 4
_fabsf	PROC						; COMDAT

; 671  :         {

  00000	55		 push	 ebp
  00001	8b ec		 mov	 ebp, esp
  00003	83 ec 44	 sub	 esp, 68			; 00000044H
  00006	53		 push	 ebx
  00007	56		 push	 esi
  00008	57		 push	 edi

; 672  :             return (float)fabs(_X);

  00009	f3 0f 5a 45 08	 cvtss2sd xmm0, DWORD PTR __X$[ebp]
  0000e	83 ec 08	 sub	 esp, 8
  00011	f2 0f 11 04 24	 movsd	 QWORD PTR [esp], xmm0
  00016	e8 00 00 00 00	 call	 _fabs
  0001b	83 c4 08	 add	 esp, 8
  0001e	d9 5d bc	 fstp	 DWORD PTR tv71[ebp]
  00021	d9 45 bc	 fld	 DWORD PTR tv71[ebp]

; 673  :         }

  00024	5f		 pop	 edi
  00025	5e		 pop	 esi
  00026	5b		 pop	 ebx
  00027	8b e5		 mov	 esp, ebp
  00029	5d		 pop	 ebp
  0002a	c3		 ret	 0
_fabsf	ENDP
_TEXT	ENDS
; Function compile flags: /Odtp /ZI
; File c:\program files (x86)\windows kits\10\include\10.0.18362.0\ucrt\corecrt_math.h
;	COMDAT _atan2f
_TEXT	SEGMENT
tv74 = -68						; size = 4
__Y$ = 8						; size = 4
__X$ = 12						; size = 4
_atan2f	PROC						; COMDAT

; 633  :         {

  00000	55		 push	 ebp
  00001	8b ec		 mov	 ebp, esp
  00003	83 ec 44	 sub	 esp, 68			; 00000044H
  00006	53		 push	 ebx
  00007	56		 push	 esi
  00008	57		 push	 edi

; 634  :             return (float)atan2(_Y, _X);

  00009	f3 0f 5a 45 0c	 cvtss2sd xmm0, DWORD PTR __X$[ebp]
  0000e	83 ec 08	 sub	 esp, 8
  00011	f2 0f 11 04 24	 movsd	 QWORD PTR [esp], xmm0
  00016	f3 0f 5a 45 08	 cvtss2sd xmm0, DWORD PTR __Y$[ebp]
  0001b	83 ec 08	 sub	 esp, 8
  0001e	f2 0f 11 04 24	 movsd	 QWORD PTR [esp], xmm0
  00023	e8 00 00 00 00	 call	 _atan2
  00028	83 c4 10	 add	 esp, 16			; 00000010H
  0002b	d9 5d bc	 fstp	 DWORD PTR tv74[ebp]
  0002e	d9 45 bc	 fld	 DWORD PTR tv74[ebp]

; 635  :         }

  00031	5f		 pop	 edi
  00032	5e		 pop	 esi
  00033	5b		 pop	 ebx
  00034	8b e5		 mov	 esp, ebp
  00036	5d		 pop	 ebp
  00037	c3		 ret	 0
_atan2f	ENDP
_TEXT	ENDS
; Function compile flags: /Odtp /ZI
; File c:\program files (x86)\windows kits\10\include\10.0.18362.0\ucrt\corecrt_math.h
;	COMDAT _asinf
_TEXT	SEGMENT
tv71 = -68						; size = 4
__X$ = 8						; size = 4
_asinf	PROC						; COMDAT

; 628  :         {

  00000	55		 push	 ebp
  00001	8b ec		 mov	 ebp, esp
  00003	83 ec 44	 sub	 esp, 68			; 00000044H
  00006	53		 push	 ebx
  00007	56		 push	 esi
  00008	57		 push	 edi

; 629  :             return (float)asin(_X);

  00009	f3 0f 5a 45 08	 cvtss2sd xmm0, DWORD PTR __X$[ebp]
  0000e	83 ec 08	 sub	 esp, 8
  00011	f2 0f 11 04 24	 movsd	 QWORD PTR [esp], xmm0
  00016	e8 00 00 00 00	 call	 _asin
  0001b	83 c4 08	 add	 esp, 8
  0001e	d9 5d bc	 fstp	 DWORD PTR tv71[ebp]
  00021	d9 45 bc	 fld	 DWORD PTR tv71[ebp]

; 630  :         }

  00024	5f		 pop	 edi
  00025	5e		 pop	 esi
  00026	5b		 pop	 ebx
  00027	8b e5		 mov	 esp, ebp
  00029	5d		 pop	 ebp
  0002a	c3		 ret	 0
_asinf	ENDP
_TEXT	ENDS
END
