; Listing generated by Microsoft (R) Optimizing Compiler Version 19.16.27045.0 

	TITLE	C:\Users\nhv90\Projects\eech\modules\userint2\ui_obj\screen\sc_creat.c
	.686P
	.XMM
	include listing.inc
	.model	flat

INCLUDELIB MSVCRTD
INCLUDELIB OLDNAMES

PUBLIC	?overload_screen_ui_object_create_functions@@YGXH@Z ; overload_screen_ui_object_create_functions
EXTRN	_memset:PROC
EXTRN	?safe_malloc_memory@@YGPAXI@Z:PROC		; safe_malloc_memory
EXTRN	?set_ui_object_attributes@@YGXPAUUI_OBJECT@@PAD@Z:PROC ; set_ui_object_attributes
EXTRN	?increase_ui_object_counter@@YGXXZ:PROC		; increase_ui_object_counter
EXTRN	?fn_create_ui_object@@3PAP6GXPAUUI_OBJECT@@HPAD@ZA:BYTE ; fn_create_ui_object
EXTRN	?ui_object_counter@@3HA:DWORD			; ui_object_counter
EXTRN	__fltused:DWORD
; Function compile flags: /Odtp /ZI
; File c:\users\nhv90\projects\eech\modules\userint2\ui_obj\screen\sc_creat.c
;	COMDAT ?create_screen_ui_object@@YGXPAUUI_OBJECT@@HPAD@Z
_TEXT	SEGMENT
_new_screen$ = -4					; size = 4
_obj$ = 8						; size = 4
_type$ = 12						; size = 4
_pargs$ = 16						; size = 4
?create_screen_ui_object@@YGXPAUUI_OBJECT@@HPAD@Z PROC	; create_screen_ui_object, COMDAT

; 74   : {

  00000	55		 push	 ebp
  00001	8b ec		 mov	 ebp, esp
  00003	83 ec 44	 sub	 esp, 68			; 00000044H
  00006	53		 push	 ebx
  00007	56		 push	 esi
  00008	57		 push	 edi

; 75   : 
; 76   :    screen_ui_object
; 77   :       *new_screen;
; 78   : 
; 79   : 	increase_ui_object_counter ();

  00009	e8 00 00 00 00	 call	 ?increase_ui_object_counter@@YGXXZ ; increase_ui_object_counter

; 80   : 
; 81   :    ////////////////////////////////////////
; 82   :    //
; 83   :    // MALLOC ENTITY DATA
; 84   :    //
; 85   :    ////////////////////////////////////////
; 86   : 
; 87   :    obj->type = type;

  0000e	8b 45 08	 mov	 eax, DWORD PTR _obj$[ebp]
  00011	8b 4d 0c	 mov	 ecx, DWORD PTR _type$[ebp]
  00014	89 08		 mov	 DWORD PTR [eax], ecx

; 88   : 
; 89   :    new_screen = (screen_ui_object *) safe_malloc (sizeof (screen_ui_object));

  00016	68 e8 00 00 00	 push	 232			; 000000e8H
  0001b	e8 00 00 00 00	 call	 ?safe_malloc_memory@@YGPAXI@Z ; safe_malloc_memory
  00020	89 45 fc	 mov	 DWORD PTR _new_screen$[ebp], eax

; 90   : 
; 91   :    obj->data = new_screen;

  00023	8b 45 08	 mov	 eax, DWORD PTR _obj$[ebp]
  00026	8b 4d fc	 mov	 ecx, DWORD PTR _new_screen$[ebp]
  00029	89 48 04	 mov	 DWORD PTR [eax+4], ecx

; 92   : 
; 93   :    ////////////////////////////////////////
; 94   :    //
; 95   :    // INITIALISE ALL ENTITY DATA TO 'WORKING' DEFAULT VALUES
; 96   :    //
; 97   :    // DO NOT USE ACCESS FUNCTIONS
; 98   :    //
; 99   :    // DO NOT USE RANDOM VALUES
; 100  :    //
; 101  :    ////////////////////////////////////////
; 102  : 
; 103  :    memset (new_screen, 0, sizeof (screen_ui_object));

  0002c	68 e8 00 00 00	 push	 232			; 000000e8H
  00031	6a 00		 push	 0
  00033	8b 45 fc	 mov	 eax, DWORD PTR _new_screen$[ebp]
  00036	50		 push	 eax
  00037	e8 00 00 00 00	 call	 _memset
  0003c	83 c4 0c	 add	 esp, 12			; 0000000cH

; 104  : 
; 105  :    //new_screen->area.x = 0.0;
; 106  :    //new_screen->area.y = 0.0;
; 107  :    //new_screen->area.x_size = 0.0;
; 108  :    //new_screen->area.y_size = 0.0;
; 109  : 	new_screen->area.colour_start.r = 255;

  0003f	8b 45 fc	 mov	 eax, DWORD PTR _new_screen$[ebp]
  00042	c6 80 82 00 00
	00 ff		 mov	 BYTE PTR [eax+130], 255	; 000000ffH

; 110  : 	new_screen->area.colour_start.g = 255;

  00049	8b 45 fc	 mov	 eax, DWORD PTR _new_screen$[ebp]
  0004c	c6 80 81 00 00
	00 ff		 mov	 BYTE PTR [eax+129], 255	; 000000ffH

; 111  : 	new_screen->area.colour_start.b = 255;

  00053	8b 45 fc	 mov	 eax, DWORD PTR _new_screen$[ebp]
  00056	c6 80 80 00 00
	00 ff		 mov	 BYTE PTR [eax+128], 255	; 000000ffH

; 112  : 	new_screen->area.colour_start.a = 255;

  0005d	8b 45 fc	 mov	 eax, DWORD PTR _new_screen$[ebp]
  00060	c6 80 83 00 00
	00 ff		 mov	 BYTE PTR [eax+131], 255	; 000000ffH

; 113  : 	new_screen->area.colour_end.r = 255;

  00067	8b 45 fc	 mov	 eax, DWORD PTR _new_screen$[ebp]
  0006a	c6 40 7e ff	 mov	 BYTE PTR [eax+126], 255	; 000000ffH

; 114  : 	new_screen->area.colour_end.g = 255;

  0006e	8b 45 fc	 mov	 eax, DWORD PTR _new_screen$[ebp]
  00071	c6 40 7d ff	 mov	 BYTE PTR [eax+125], 255	; 000000ffH

; 115  : 	new_screen->area.colour_end.b = 255;

  00075	8b 45 fc	 mov	 eax, DWORD PTR _new_screen$[ebp]
  00078	c6 40 7c ff	 mov	 BYTE PTR [eax+124], 255	; 000000ffH

; 116  : 	new_screen->area.colour_end.a = 255;

  0007c	8b 45 fc	 mov	 eax, DWORD PTR _new_screen$[ebp]
  0007f	c6 40 7f ff	 mov	 BYTE PTR [eax+127], 255	; 000000ffH

; 117  :    new_screen->area.x_origin = 0.0;

  00083	8b 45 fc	 mov	 eax, DWORD PTR _new_screen$[ebp]
  00086	0f 57 c0	 xorps	 xmm0, xmm0
  00089	f3 0f 11 40 30	 movss	 DWORD PTR [eax+48], xmm0

; 118  :    new_screen->area.y_origin = 0.0;

  0008e	8b 45 fc	 mov	 eax, DWORD PTR _new_screen$[ebp]
  00091	0f 57 c0	 xorps	 xmm0, xmm0
  00094	f3 0f 11 40 34	 movss	 DWORD PTR [eax+52], xmm0

; 119  :    new_screen->area.drawable = 1;

  00099	8b 45 fc	 mov	 eax, DWORD PTR _new_screen$[ebp]
  0009c	8b 48 4c	 mov	 ecx, DWORD PTR [eax+76]
  0009f	83 c9 20	 or	 ecx, 32			; 00000020H
  000a2	8b 55 fc	 mov	 edx, DWORD PTR _new_screen$[ebp]
  000a5	89 4a 4c	 mov	 DWORD PTR [edx+76], ecx

; 120  :    new_screen->area.item_number = -1;

  000a8	8b 45 fc	 mov	 eax, DWORD PTR _new_screen$[ebp]
  000ab	c7 40 54 ff ff
	ff ff		 mov	 DWORD PTR [eax+84], -1

; 121  :    new_screen->area.redraw = 1;

  000b2	8b 45 fc	 mov	 eax, DWORD PTR _new_screen$[ebp]
  000b5	8b 48 4c	 mov	 ecx, DWORD PTR [eax+76]
  000b8	81 e1 7f 80 ff
	ff		 and	 ecx, -32641		; ffff807fH
  000be	81 c9 80 00 00
	00		 or	 ecx, 128		; 00000080H
  000c4	8b 55 fc	 mov	 edx, DWORD PTR _new_screen$[ebp]
  000c7	89 4a 4c	 mov	 DWORD PTR [edx+76], ecx

; 122  :    new_screen->area.moveable = 0;

  000ca	8b 45 fc	 mov	 eax, DWORD PTR _new_screen$[ebp]
  000cd	8b 48 4c	 mov	 ecx, DWORD PTR [eax+76]
  000d0	81 e1 ff 7f ff
	ff		 and	 ecx, -32769		; ffff7fffH
  000d6	8b 55 fc	 mov	 edx, DWORD PTR _new_screen$[ebp]
  000d9	89 4a 4c	 mov	 DWORD PTR [edx+76], ecx

; 123  :    new_screen->area.resizeable = 0;

  000dc	8b 45 fc	 mov	 eax, DWORD PTR _new_screen$[ebp]
  000df	8b 48 4c	 mov	 ecx, DWORD PTR [eax+76]
  000e2	81 e1 ff ff fe
	ff		 and	 ecx, -65537		; fffeffffH
  000e8	8b 55 fc	 mov	 edx, DWORD PTR _new_screen$[ebp]
  000eb	89 4a 4c	 mov	 DWORD PTR [edx+76], ecx

; 124  :    new_screen->area.notify_on = NOTIFY_TYPE_DISPLAYED;

  000ee	8b 45 fc	 mov	 eax, DWORD PTR _new_screen$[ebp]
  000f1	8b 48 4c	 mov	 ecx, DWORD PTR [eax+76]
  000f4	81 e1 ff ff ff
	87		 and	 ecx, -2013265921	; 87ffffffH
  000fa	81 c9 00 00 00
	20		 or	 ecx, 536870912		; 20000000H
  00100	8b 55 fc	 mov	 edx, DWORD PTR _new_screen$[ebp]
  00103	89 4a 4c	 mov	 DWORD PTR [edx+76], ecx

; 125  :    new_screen->area.parent = NULL;

  00106	8b 45 fc	 mov	 eax, DWORD PTR _new_screen$[ebp]
  00109	c7 40 3c 00 00
	00 00		 mov	 DWORD PTR [eax+60], 0

; 126  :    new_screen->area.child = NULL;

  00110	8b 45 fc	 mov	 eax, DWORD PTR _new_screen$[ebp]
  00113	c7 40 40 00 00
	00 00		 mov	 DWORD PTR [eax+64], 0

; 127  :    new_screen->area.next = NULL;

  0011a	8b 45 fc	 mov	 eax, DWORD PTR _new_screen$[ebp]
  0011d	c7 40 44 00 00
	00 00		 mov	 DWORD PTR [eax+68], 0

; 128  :    new_screen->area.prev = NULL;

  00124	8b 45 fc	 mov	 eax, DWORD PTR _new_screen$[ebp]
  00127	c7 40 48 00 00
	00 00		 mov	 DWORD PTR [eax+72], 0

; 129  : 	new_screen->screen_id = ui_object_counter;

  0012e	8b 45 fc	 mov	 eax, DWORD PTR _new_screen$[ebp]
  00131	8b 0d 00 00 00
	00		 mov	 ecx, DWORD PTR ?ui_object_counter@@3HA ; ui_object_counter
  00137	89 88 e4 00 00
	00		 mov	 DWORD PTR [eax+228], ecx

; 130  : 
; 131  :    ////////////////////////////////////////
; 132  :    //
; 133  :    // OVERWRITE DEFAULTS WITH GIVEN ATTRIBUTES
; 134  :    //
; 135  :    ////////////////////////////////////////
; 136  : 
; 137  :    set_ui_object_attributes (obj, pargs);

  0013d	8b 45 10	 mov	 eax, DWORD PTR _pargs$[ebp]
  00140	50		 push	 eax
  00141	8b 4d 08	 mov	 ecx, DWORD PTR _obj$[ebp]
  00144	51		 push	 ecx
  00145	e8 00 00 00 00	 call	 ?set_ui_object_attributes@@YGXPAUUI_OBJECT@@PAD@Z ; set_ui_object_attributes

; 138  : 
; 139  :    ////////////////////////////////////////
; 140  :    //
; 141  :    // INTEGRATE INTO SYSTEM
; 142  :    //
; 143  :    ////////////////////////////////////////
; 144  : }

  0014a	5f		 pop	 edi
  0014b	5e		 pop	 esi
  0014c	5b		 pop	 ebx
  0014d	8b e5		 mov	 esp, ebp
  0014f	5d		 pop	 ebp
  00150	c2 0c 00	 ret	 12			; 0000000cH
?create_screen_ui_object@@YGXPAUUI_OBJECT@@HPAD@Z ENDP	; create_screen_ui_object
_TEXT	ENDS
; Function compile flags: /Odtp /ZI
; File c:\users\nhv90\projects\eech\modules\userint2\ui_obj\screen\sc_creat.c
;	COMDAT ?overload_screen_ui_object_create_functions@@YGXH@Z
_TEXT	SEGMENT
_type$ = 8						; size = 4
?overload_screen_ui_object_create_functions@@YGXH@Z PROC ; overload_screen_ui_object_create_functions, COMDAT

; 151  : {

  00000	55		 push	 ebp
  00001	8b ec		 mov	 ebp, esp
  00003	83 ec 40	 sub	 esp, 64			; 00000040H
  00006	53		 push	 ebx
  00007	56		 push	 esi
  00008	57		 push	 edi

; 152  : 
; 153  : 	fn_create_ui_object [type] = create_screen_ui_object;

  00009	8b 45 08	 mov	 eax, DWORD PTR _type$[ebp]
  0000c	c7 04 85 00 00
	00 00 00 00 00
	00		 mov	 DWORD PTR ?fn_create_ui_object@@3PAP6GXPAUUI_OBJECT@@HPAD@ZA[eax*4], OFFSET ?create_screen_ui_object@@YGXPAUUI_OBJECT@@HPAD@Z ; create_screen_ui_object

; 154  : }

  00017	5f		 pop	 edi
  00018	5e		 pop	 esi
  00019	5b		 pop	 ebx
  0001a	8b e5		 mov	 esp, ebp
  0001c	5d		 pop	 ebp
  0001d	c2 04 00	 ret	 4
?overload_screen_ui_object_create_functions@@YGXH@Z ENDP ; overload_screen_ui_object_create_functions
_TEXT	ENDS
END
