; Listing generated by Microsoft (R) Optimizing Compiler Version 19.16.27045.0 

	TITLE	C:\Users\nhv90\Projects\eech\aphavoc\source\entity\special\sector\sc_int.c
	.686P
	.XMM
	include listing.inc
	.model	flat

INCLUDELIB MSVCRTD
INCLUDELIB OLDNAMES

PUBLIC	?overload_sector_int_value_functions@@YGXXZ	; overload_sector_int_value_functions
PUBLIC	?__LINE__Var@?0??set_local_int_value@@YGXPAUENTITY@@W4INT_TYPES@@H@Z@4JA ; `set_local_int_value'::`1'::__LINE__Var
PUBLIC	??_C@_0EL@DHLLPHEB@c?3?2users?2nhv90?2projects?2eech?2ap@ ; `string'
PUBLIC	??_C@_0CP@NOCCPNPK@get_game_status?5?$CI?$CJ?5?$DN?$DN?5GAME_STAT@ ; `string'
PUBLIC	?__LINE__Var@?0??set_server_int_value@@YGXPAUENTITY@@W4INT_TYPES@@H@Z@4JA ; `set_server_int_value'::`1'::__LINE__Var
PUBLIC	??_C@_0CB@CFOCLFOK@assert_client_server_local_fn?5?$CI@ ; `string'
PUBLIC	??_C@_0CC@BNNNEGEG@assert_client_server_remote_fn?5@ ; `string'
PUBLIC	?__LINE__Var@?0??set_client_int_value@@YGXPAUENTITY@@W4INT_TYPES@@H@Z@4JA ; `set_client_int_value'::`1'::__LINE__Var
PUBLIC	?__LINE__Var@?0??get_local_int_value@@YGHPAUENTITY@@W4INT_TYPES@@@Z@4JA ; `get_local_int_value'::`1'::__LINE__Var
EXTRN	?process_assert@@YGXPBD0H@Z:PROC		; process_assert
EXTRN	?debug_fatal@@YAXPBDZZ:PROC			; debug_fatal
EXTRN	?transmit_entity_comms_message@@YAXW4ENTITY_COMMS_MESSAGES@@PAUENTITY@@ZZ:PROC ; transmit_entity_comms_message
EXTRN	?assert_client_server_local_fn@@YGHXZ:PROC	; assert_client_server_local_fn
EXTRN	?assert_client_server_remote_fn@@YGHXZ:PROC	; assert_client_server_remote_fn
EXTRN	?game_status@@3W4GAME_STATUS_TYPES@@A:DWORD	; game_status
EXTRN	?null_entity_pointer_message@@3PBDB:DWORD	; null_entity_pointer_message
EXTRN	?entity_type_database@@3PAUENTITY_TYPE_DATA@@A:BYTE ; entity_type_database
EXTRN	?system_comms_data_flow@@3W4COMMS_DATA_FLOW_TYPES@@A:DWORD ; system_comms_data_flow
EXTRN	?int_type_database@@3PAUINT_TYPE_DATA@@A:BYTE	; int_type_database
EXTRN	?debug_fatal_invalid_int_type_message@@3PBDB:DWORD ; debug_fatal_invalid_int_type_message
EXTRN	?fn_set_local_entity_raw_int_value@@3PAY0BBH@P6GXPAUENTITY@@W4INT_TYPES@@H@ZA:BYTE ; fn_set_local_entity_raw_int_value
EXTRN	?fn_set_local_entity_int_value@@3PAY0BBH@P6GXPAUENTITY@@W4INT_TYPES@@H@ZA:BYTE ; fn_set_local_entity_int_value
EXTRN	?fn_set_client_server_entity_int_value@@3PAY1BBH@1P6GXPAUENTITY@@W4INT_TYPES@@H@ZA:BYTE ; fn_set_client_server_entity_int_value
EXTRN	?fn_get_local_entity_int_value@@3PAY0BBH@P6GHPAUENTITY@@W4INT_TYPES@@@ZA:BYTE ; fn_get_local_entity_int_value
EXTRN	?entities@@3PAUENTITY@@A:DWORD			; entities
EXTRN	__fltused:DWORD
;	COMDAT ?__LINE__Var@?0??get_local_int_value@@YGHPAUENTITY@@W4INT_TYPES@@@Z@4JA
_DATA	SEGMENT
?__LINE__Var@?0??get_local_int_value@@YGHPAUENTITY@@W4INT_TYPES@@@Z@4JA DD 0c9H ; `get_local_int_value'::`1'::__LINE__Var
_DATA	ENDS
;	COMDAT ?__LINE__Var@?0??set_client_int_value@@YGXPAUENTITY@@W4INT_TYPES@@H@Z@4JA
_DATA	SEGMENT
?__LINE__Var@?0??set_client_int_value@@YGXPAUENTITY@@W4INT_TYPES@@H@Z@4JA DD 0b5H ; `set_client_int_value'::`1'::__LINE__Var
_DATA	ENDS
;	COMDAT ??_C@_0CC@BNNNEGEG@assert_client_server_remote_fn?5@
CONST	SEGMENT
??_C@_0CC@BNNNEGEG@assert_client_server_remote_fn?5@ DB 'assert_client_se'
	DB	'rver_remote_fn ()', 00H			; `string'
CONST	ENDS
;	COMDAT ??_C@_0CB@CFOCLFOK@assert_client_server_local_fn?5?$CI@
CONST	SEGMENT
??_C@_0CB@CFOCLFOK@assert_client_server_local_fn?5?$CI@ DB 'assert_client'
	DB	'_server_local_fn ()', 00H			; `string'
CONST	ENDS
;	COMDAT ?__LINE__Var@?0??set_server_int_value@@YGXPAUENTITY@@W4INT_TYPES@@H@Z@4JA
_DATA	SEGMENT
?__LINE__Var@?0??set_server_int_value@@YGXPAUENTITY@@W4INT_TYPES@@H@Z@4JA DD 0a6H ; `set_server_int_value'::`1'::__LINE__Var
_DATA	ENDS
;	COMDAT ??_C@_0CP@NOCCPNPK@get_game_status?5?$CI?$CJ?5?$DN?$DN?5GAME_STAT@
CONST	SEGMENT
??_C@_0CP@NOCCPNPK@get_game_status?5?$CI?$CJ?5?$DN?$DN?5GAME_STAT@ DB 'ge'
	DB	't_game_status () == GAME_STATUS_INITIALISING', 00H ; `string'
CONST	ENDS
;	COMDAT ??_C@_0EL@DHLLPHEB@c?3?2users?2nhv90?2projects?2eech?2ap@
CONST	SEGMENT
??_C@_0EL@DHLLPHEB@c?3?2users?2nhv90?2projects?2eech?2ap@ DB 'c:\users\nh'
	DB	'v90\projects\eech\aphavoc\source\entity\special\sector\sc_int'
	DB	'.c', 00H					; `string'
CONST	ENDS
;	COMDAT ?__LINE__Var@?0??set_local_int_value@@YGXPAUENTITY@@W4INT_TYPES@@H@Z@4JA
_DATA	SEGMENT
?__LINE__Var@?0??set_local_int_value@@YGXPAUENTITY@@W4INT_TYPES@@H@Z@4JA DD 050H ; `set_local_int_value'::`1'::__LINE__Var
_DATA	ENDS
; Function compile flags: /Odtp /ZI
; File c:\users\nhv90\projects\eech\aphavoc\source\entity\special\sector\sc_int.c
;	COMDAT ?get_local_int_value@@YGHPAUENTITY@@W4INT_TYPES@@@Z
_TEXT	SEGMENT
tv132 = -76						; size = 4
tv65 = -76						; size = 4
_value$ = -8						; size = 4
_raw$ = -4						; size = 4
_en$ = 8						; size = 4
_type$ = 12						; size = 4
?get_local_int_value@@YGHPAUENTITY@@W4INT_TYPES@@@Z PROC ; get_local_int_value, COMDAT

; 201  : {

  00000	55		 push	 ebp
  00001	8b ec		 mov	 ebp, esp
  00003	83 ec 4c	 sub	 esp, 76			; 0000004cH
  00006	53		 push	 ebx
  00007	56		 push	 esi
  00008	57		 push	 edi

; 202  : 	sector
; 203  : 		*raw;
; 204  : 
; 205  : 	int
; 206  : 		value;
; 207  : 
; 208  : 	raw = (sector *) get_local_entity_data (en);

  00009	8b 45 08	 mov	 eax, DWORD PTR _en$[ebp]
  0000c	8b 48 04	 mov	 ecx, DWORD PTR [eax+4]
  0000f	89 4d fc	 mov	 DWORD PTR _raw$[ebp], ecx

; 209  : 
; 210  : 	switch (type)

  00012	8b 45 0c	 mov	 eax, DWORD PTR _type$[ebp]
  00015	89 45 b4	 mov	 DWORD PTR tv65[ebp], eax
  00018	8b 4d b4	 mov	 ecx, DWORD PTR tv65[ebp]
  0001b	83 e9 6e	 sub	 ecx, 110		; 0000006eH
  0001e	89 4d b4	 mov	 DWORD PTR tv65[ebp], ecx
  00021	81 7d b4 a8 00
	00 00		 cmp	 DWORD PTR tv65[ebp], 168 ; 000000a8H
  00028	0f 87 9b 00 00
	00		 ja	 $LN11@get_local_
  0002e	8b 55 b4	 mov	 edx, DWORD PTR tv65[ebp]
  00031	0f b6 82 00 00
	00 00		 movzx	 eax, BYTE PTR $LN15@get_local_[edx]
  00038	ff 24 85 00 00
	00 00		 jmp	 DWORD PTR $LN16@get_local_[eax*4]
$LN4@get_local_:

; 211  : 	{
; 212  : 		////////////////////////////////////////
; 213  : 		case INT_TYPE_KEYSITE_COUNT:
; 214  : 		////////////////////////////////////////
; 215  : 		{
; 216  : 			value = raw->keysite_count;

  0003f	8b 45 fc	 mov	 eax, DWORD PTR _raw$[ebp]
  00042	8b 48 0c	 mov	 ecx, DWORD PTR [eax+12]
  00045	81 e1 ff 00 00
	00		 and	 ecx, 255		; 000000ffH
  0004b	89 4d f8	 mov	 DWORD PTR _value$[ebp], ecx

; 217  : 
; 218  : 			break;

  0004e	e9 e8 00 00 00	 jmp	 $LN2@get_local_
$LN5@get_local_:

; 219  : 		}
; 220  : 		////////////////////////////////////////
; 221  : 		case INT_TYPE_SIDE:
; 222  : 		////////////////////////////////////////
; 223  : 		{
; 224  : 			value = raw->side;

  00053	8b 45 fc	 mov	 eax, DWORD PTR _raw$[ebp]
  00056	8b 48 0c	 mov	 ecx, DWORD PTR [eax+12]
  00059	c1 e9 18	 shr	 ecx, 24			; 00000018H
  0005c	83 e1 03	 and	 ecx, 3
  0005f	89 4d f8	 mov	 DWORD PTR _value$[ebp], ecx

; 225  : 
; 226  : 			break;

  00062	e9 d4 00 00 00	 jmp	 $LN2@get_local_
$LN6@get_local_:

; 227  : 		}
; 228  : 		////////////////////////////////////////
; 229  : 		case INT_TYPE_SECTOR_SIDE:
; 230  : 		////////////////////////////////////////
; 231  : 		{
; 232  : 			if (raw->sector_side [ENTITY_SIDE_BLUE_FORCE] > raw->sector_side [ENTITY_SIDE_RED_FORCE])

  00067	b8 04 00 00 00	 mov	 eax, 4
  0006c	c1 e0 00	 shl	 eax, 0
  0006f	b9 04 00 00 00	 mov	 ecx, 4
  00074	d1 e1		 shl	 ecx, 1
  00076	8b 55 fc	 mov	 edx, DWORD PTR _raw$[ebp]
  00079	8b 75 fc	 mov	 esi, DWORD PTR _raw$[ebp]
  0007c	f3 0f 10 44 02
	14		 movss	 xmm0, DWORD PTR [edx+eax+20]
  00082	0f 2f 44 0e 14	 comiss	 xmm0, DWORD PTR [esi+ecx+20]
  00087	76 09		 jbe	 SHORT $LN7@get_local_

; 233  : 			{
; 234  : 				value = ENTITY_SIDE_BLUE_FORCE;

  00089	c7 45 f8 01 00
	00 00		 mov	 DWORD PTR _value$[ebp], 1

; 235  : 			}
; 236  : 			else

  00090	eb 07		 jmp	 SHORT $LN8@get_local_
$LN7@get_local_:

; 237  : 			{
; 238  : 				value = ENTITY_SIDE_RED_FORCE;

  00092	c7 45 f8 02 00
	00 00		 mov	 DWORD PTR _value$[ebp], 2
$LN8@get_local_:

; 239  : 			}
; 240  : 
; 241  : 			break;

  00099	e9 9d 00 00 00	 jmp	 $LN2@get_local_
$LN9@get_local_:

; 242  : 		}
; 243  : 		////////////////////////////////////////
; 244  : 		case INT_TYPE_X_SECTOR:
; 245  : 		////////////////////////////////////////
; 246  : 		{
; 247  : 			value = raw->x_sector;

  0009e	8b 45 fc	 mov	 eax, DWORD PTR _raw$[ebp]
  000a1	8b 48 0c	 mov	 ecx, DWORD PTR [eax+12]
  000a4	c1 e9 08	 shr	 ecx, 8
  000a7	81 e1 ff 00 00
	00		 and	 ecx, 255		; 000000ffH
  000ad	89 4d f8	 mov	 DWORD PTR _value$[ebp], ecx

; 248  : 
; 249  : 			break;

  000b0	e9 86 00 00 00	 jmp	 $LN2@get_local_
$LN10@get_local_:

; 250  : 		}
; 251  : 		////////////////////////////////////////
; 252  : 		case INT_TYPE_Z_SECTOR:
; 253  : 		////////////////////////////////////////
; 254  : 		{
; 255  : 			value = raw->z_sector;

  000b5	8b 45 fc	 mov	 eax, DWORD PTR _raw$[ebp]
  000b8	8b 48 0c	 mov	 ecx, DWORD PTR [eax+12]
  000bb	c1 e9 10	 shr	 ecx, 16			; 00000010H
  000be	81 e1 ff 00 00
	00		 and	 ecx, 255		; 000000ffH
  000c4	89 4d f8	 mov	 DWORD PTR _value$[ebp], ecx

; 256  : 
; 257  : 			break;

  000c7	eb 72		 jmp	 SHORT $LN2@get_local_
$LN11@get_local_:

; 258  : 		}
; 259  : 		////////////////////////////////////////
; 260  : 		default:
; 261  : 		////////////////////////////////////////
; 262  : 		{
; 263  : 			debug_fatal_invalid_int_type (en, type);

  000c9	83 7d 08 00	 cmp	 DWORD PTR _en$[ebp], 0
  000cd	74 0a		 je	 SHORT $LN13@get_local_
  000cf	8b 45 08	 mov	 eax, DWORD PTR _en$[ebp]
  000d2	8b 08		 mov	 ecx, DWORD PTR [eax]
  000d4	89 4d b4	 mov	 DWORD PTR tv132[ebp], ecx
  000d7	eb 21		 jmp	 SHORT $LN14@get_local_
$LN13@get_local_:
  000d9	8b 15 00 00 00
	00		 mov	 edx, DWORD PTR ?__LINE__Var@?0??get_local_int_value@@YGHPAUENTITY@@W4INT_TYPES@@@Z@4JA
  000df	83 c2 3e	 add	 edx, 62			; 0000003eH
  000e2	52		 push	 edx
  000e3	68 00 00 00 00	 push	 OFFSET ??_C@_0EL@DHLLPHEB@c?3?2users?2nhv90?2projects?2eech?2ap@
  000e8	a1 00 00 00 00	 mov	 eax, DWORD PTR ?null_entity_pointer_message@@3PBDB ; null_entity_pointer_message
  000ed	50		 push	 eax
  000ee	e8 00 00 00 00	 call	 ?process_assert@@YGXPBD0H@Z ; process_assert
  000f3	c7 45 b4 00 00
	00 00		 mov	 DWORD PTR tv132[ebp], 0
$LN14@get_local_:
  000fa	8b 0d 00 00 00
	00		 mov	 ecx, DWORD PTR ?__LINE__Var@?0??get_local_int_value@@YGHPAUENTITY@@W4INT_TYPES@@@Z@4JA
  00100	83 c1 3e	 add	 ecx, 62			; 0000003eH
  00103	51		 push	 ecx
  00104	68 00 00 00 00	 push	 OFFSET ??_C@_0EL@DHLLPHEB@c?3?2users?2nhv90?2projects?2eech?2ap@
  00109	6b 55 0c 14	 imul	 edx, DWORD PTR _type$[ebp], 20
  0010d	8b 82 00 00 00
	00		 mov	 eax, DWORD PTR ?int_type_database@@3PAUINT_TYPE_DATA@@A[edx]
  00113	50		 push	 eax
  00114	8b 4d 08	 mov	 ecx, DWORD PTR _en$[ebp]
  00117	2b 0d 00 00 00
	00		 sub	 ecx, DWORD PTR ?entities@@3PAUENTITY@@A ; entities
  0011d	c1 f9 04	 sar	 ecx, 4
  00120	51		 push	 ecx
  00121	6b 55 b4 0c	 imul	 edx, DWORD PTR tv132[ebp], 12
  00125	8b 82 00 00 00
	00		 mov	 eax, DWORD PTR ?entity_type_database@@3PAUENTITY_TYPE_DATA@@A[edx]
  0012b	50		 push	 eax
  0012c	8b 0d 00 00 00
	00		 mov	 ecx, DWORD PTR ?debug_fatal_invalid_int_type_message@@3PBDB ; debug_fatal_invalid_int_type_message
  00132	51		 push	 ecx
  00133	e8 00 00 00 00	 call	 ?debug_fatal@@YAXPBDZZ	; debug_fatal
  00138	83 c4 18	 add	 esp, 24			; 00000018H
$LN2@get_local_:

; 264  : 
; 265  : 			break;
; 266  : 		}
; 267  : 	}
; 268  : 
; 269  : 	return (value);

  0013b	8b 45 f8	 mov	 eax, DWORD PTR _value$[ebp]

; 270  : }

  0013e	5f		 pop	 edi
  0013f	5e		 pop	 esi
  00140	5b		 pop	 ebx
  00141	8b e5		 mov	 esp, ebp
  00143	5d		 pop	 ebp
  00144	c2 08 00	 ret	 8
  00147	90		 npad	 1
$LN16@get_local_:
  00148	00 00 00 00	 DD	 $LN4@get_local_
  0014c	00 00 00 00	 DD	 $LN6@get_local_
  00150	00 00 00 00	 DD	 $LN5@get_local_
  00154	00 00 00 00	 DD	 $LN9@get_local_
  00158	00 00 00 00	 DD	 $LN10@get_local_
  0015c	00 00 00 00	 DD	 $LN11@get_local_
$LN15@get_local_:
  00160	00		 DB	 0
  00161	05		 DB	 5
  00162	05		 DB	 5
  00163	05		 DB	 5
  00164	05		 DB	 5
  00165	05		 DB	 5
  00166	05		 DB	 5
  00167	05		 DB	 5
  00168	05		 DB	 5
  00169	05		 DB	 5
  0016a	05		 DB	 5
  0016b	05		 DB	 5
  0016c	05		 DB	 5
  0016d	05		 DB	 5
  0016e	05		 DB	 5
  0016f	05		 DB	 5
  00170	05		 DB	 5
  00171	05		 DB	 5
  00172	05		 DB	 5
  00173	05		 DB	 5
  00174	05		 DB	 5
  00175	05		 DB	 5
  00176	05		 DB	 5
  00177	05		 DB	 5
  00178	05		 DB	 5
  00179	05		 DB	 5
  0017a	05		 DB	 5
  0017b	05		 DB	 5
  0017c	05		 DB	 5
  0017d	05		 DB	 5
  0017e	05		 DB	 5
  0017f	05		 DB	 5
  00180	05		 DB	 5
  00181	05		 DB	 5
  00182	05		 DB	 5
  00183	05		 DB	 5
  00184	05		 DB	 5
  00185	05		 DB	 5
  00186	05		 DB	 5
  00187	05		 DB	 5
  00188	05		 DB	 5
  00189	05		 DB	 5
  0018a	05		 DB	 5
  0018b	05		 DB	 5
  0018c	05		 DB	 5
  0018d	05		 DB	 5
  0018e	05		 DB	 5
  0018f	05		 DB	 5
  00190	05		 DB	 5
  00191	05		 DB	 5
  00192	05		 DB	 5
  00193	05		 DB	 5
  00194	05		 DB	 5
  00195	05		 DB	 5
  00196	05		 DB	 5
  00197	05		 DB	 5
  00198	05		 DB	 5
  00199	05		 DB	 5
  0019a	05		 DB	 5
  0019b	05		 DB	 5
  0019c	05		 DB	 5
  0019d	05		 DB	 5
  0019e	05		 DB	 5
  0019f	05		 DB	 5
  001a0	05		 DB	 5
  001a1	05		 DB	 5
  001a2	05		 DB	 5
  001a3	05		 DB	 5
  001a4	05		 DB	 5
  001a5	05		 DB	 5
  001a6	05		 DB	 5
  001a7	05		 DB	 5
  001a8	05		 DB	 5
  001a9	01		 DB	 1
  001aa	05		 DB	 5
  001ab	05		 DB	 5
  001ac	05		 DB	 5
  001ad	02		 DB	 2
  001ae	05		 DB	 5
  001af	05		 DB	 5
  001b0	05		 DB	 5
  001b1	05		 DB	 5
  001b2	05		 DB	 5
  001b3	05		 DB	 5
  001b4	05		 DB	 5
  001b5	05		 DB	 5
  001b6	05		 DB	 5
  001b7	05		 DB	 5
  001b8	05		 DB	 5
  001b9	05		 DB	 5
  001ba	05		 DB	 5
  001bb	05		 DB	 5
  001bc	05		 DB	 5
  001bd	05		 DB	 5
  001be	05		 DB	 5
  001bf	05		 DB	 5
  001c0	05		 DB	 5
  001c1	05		 DB	 5
  001c2	05		 DB	 5
  001c3	05		 DB	 5
  001c4	05		 DB	 5
  001c5	05		 DB	 5
  001c6	05		 DB	 5
  001c7	05		 DB	 5
  001c8	05		 DB	 5
  001c9	05		 DB	 5
  001ca	05		 DB	 5
  001cb	05		 DB	 5
  001cc	05		 DB	 5
  001cd	05		 DB	 5
  001ce	05		 DB	 5
  001cf	05		 DB	 5
  001d0	05		 DB	 5
  001d1	05		 DB	 5
  001d2	05		 DB	 5
  001d3	05		 DB	 5
  001d4	05		 DB	 5
  001d5	05		 DB	 5
  001d6	05		 DB	 5
  001d7	05		 DB	 5
  001d8	05		 DB	 5
  001d9	05		 DB	 5
  001da	05		 DB	 5
  001db	05		 DB	 5
  001dc	05		 DB	 5
  001dd	05		 DB	 5
  001de	05		 DB	 5
  001df	05		 DB	 5
  001e0	05		 DB	 5
  001e1	05		 DB	 5
  001e2	05		 DB	 5
  001e3	05		 DB	 5
  001e4	05		 DB	 5
  001e5	05		 DB	 5
  001e6	05		 DB	 5
  001e7	05		 DB	 5
  001e8	05		 DB	 5
  001e9	05		 DB	 5
  001ea	05		 DB	 5
  001eb	05		 DB	 5
  001ec	05		 DB	 5
  001ed	05		 DB	 5
  001ee	05		 DB	 5
  001ef	05		 DB	 5
  001f0	05		 DB	 5
  001f1	05		 DB	 5
  001f2	05		 DB	 5
  001f3	05		 DB	 5
  001f4	05		 DB	 5
  001f5	05		 DB	 5
  001f6	05		 DB	 5
  001f7	05		 DB	 5
  001f8	05		 DB	 5
  001f9	05		 DB	 5
  001fa	05		 DB	 5
  001fb	05		 DB	 5
  001fc	05		 DB	 5
  001fd	05		 DB	 5
  001fe	05		 DB	 5
  001ff	05		 DB	 5
  00200	05		 DB	 5
  00201	05		 DB	 5
  00202	05		 DB	 5
  00203	05		 DB	 5
  00204	05		 DB	 5
  00205	05		 DB	 5
  00206	05		 DB	 5
  00207	03		 DB	 3
  00208	04		 DB	 4
?get_local_int_value@@YGHPAUENTITY@@W4INT_TYPES@@@Z ENDP ; get_local_int_value
_TEXT	ENDS
; Function compile flags: /Odtp /ZI
; File c:\users\nhv90\projects\eech\aphavoc\source\entity\special\sector\sc_int.c
;	COMDAT ?set_client_int_value@@YGXPAUENTITY@@W4INT_TYPES@@H@Z
_TEXT	SEGMENT
_en$ = 8						; size = 4
_type$ = 12						; size = 4
_value$ = 16						; size = 4
?set_client_int_value@@YGXPAUENTITY@@W4INT_TYPES@@H@Z PROC ; set_client_int_value, COMDAT

; 181  : {

  00000	55		 push	 ebp
  00001	8b ec		 mov	 ebp, esp
  00003	83 ec 40	 sub	 esp, 64			; 00000040H
  00006	53		 push	 ebx
  00007	56		 push	 esi
  00008	57		 push	 edi

; 182  : 	if (get_comms_data_flow () == COMMS_DATA_FLOW_TX)

  00009	83 3d 00 00 00
	00 00		 cmp	 DWORD PTR ?system_comms_data_flow@@3W4COMMS_DATA_FLOW_TYPES@@A, 0 ; system_comms_data_flow
  00010	75 34		 jne	 SHORT $LN2@set_client

; 183  : 	{
; 184  : 		validate_client_server_remote_fn ();

  00012	e8 00 00 00 00	 call	 ?assert_client_server_remote_fn@@YGHXZ ; assert_client_server_remote_fn
  00017	85 c0		 test	 eax, eax
  00019	75 18		 jne	 SHORT $LN4@set_client
  0001b	a1 00 00 00 00	 mov	 eax, DWORD PTR ?__LINE__Var@?0??set_client_int_value@@YGXPAUENTITY@@W4INT_TYPES@@H@Z@4JA
  00020	83 c0 03	 add	 eax, 3
  00023	50		 push	 eax
  00024	68 00 00 00 00	 push	 OFFSET ??_C@_0EL@DHLLPHEB@c?3?2users?2nhv90?2projects?2eech?2ap@
  00029	68 00 00 00 00	 push	 OFFSET ??_C@_0CC@BNNNEGEG@assert_client_server_remote_fn?5@
  0002e	e8 00 00 00 00	 call	 ?process_assert@@YGXPBD0H@Z ; process_assert
$LN4@set_client:

; 185  : 
; 186  : 		set_remote_int_value (en, type, value);

  00033	8b 45 10	 mov	 eax, DWORD PTR _value$[ebp]
  00036	50		 push	 eax
  00037	8b 4d 0c	 mov	 ecx, DWORD PTR _type$[ebp]
  0003a	51		 push	 ecx
  0003b	8b 55 08	 mov	 edx, DWORD PTR _en$[ebp]
  0003e	52		 push	 edx
  0003f	e8 00 00 00 00	 call	 ?set_remote_int_value@@YGXPAUENTITY@@W4INT_TYPES@@H@Z ; set_remote_int_value

; 187  : 	}
; 188  : 	else

  00044	eb 32		 jmp	 SHORT $LN1@set_client
$LN2@set_client:

; 189  : 	{
; 190  : 		validate_client_server_local_fn ();

  00046	e8 00 00 00 00	 call	 ?assert_client_server_local_fn@@YGHXZ ; assert_client_server_local_fn
  0004b	85 c0		 test	 eax, eax
  0004d	75 18		 jne	 SHORT $LN5@set_client
  0004f	a1 00 00 00 00	 mov	 eax, DWORD PTR ?__LINE__Var@?0??set_client_int_value@@YGXPAUENTITY@@W4INT_TYPES@@H@Z@4JA
  00054	83 c0 09	 add	 eax, 9
  00057	50		 push	 eax
  00058	68 00 00 00 00	 push	 OFFSET ??_C@_0EL@DHLLPHEB@c?3?2users?2nhv90?2projects?2eech?2ap@
  0005d	68 00 00 00 00	 push	 OFFSET ??_C@_0CB@CFOCLFOK@assert_client_server_local_fn?5?$CI@
  00062	e8 00 00 00 00	 call	 ?process_assert@@YGXPBD0H@Z ; process_assert
$LN5@set_client:

; 191  : 
; 192  : 		set_local_int_value (en, type, value);

  00067	8b 45 10	 mov	 eax, DWORD PTR _value$[ebp]
  0006a	50		 push	 eax
  0006b	8b 4d 0c	 mov	 ecx, DWORD PTR _type$[ebp]
  0006e	51		 push	 ecx
  0006f	8b 55 08	 mov	 edx, DWORD PTR _en$[ebp]
  00072	52		 push	 edx
  00073	e8 00 00 00 00	 call	 ?set_local_int_value@@YGXPAUENTITY@@W4INT_TYPES@@H@Z ; set_local_int_value
$LN1@set_client:

; 193  : 	}
; 194  : }

  00078	5f		 pop	 edi
  00079	5e		 pop	 esi
  0007a	5b		 pop	 ebx
  0007b	8b e5		 mov	 esp, ebp
  0007d	5d		 pop	 ebp
  0007e	c2 0c 00	 ret	 12			; 0000000cH
?set_client_int_value@@YGXPAUENTITY@@W4INT_TYPES@@H@Z ENDP ; set_client_int_value
_TEXT	ENDS
; Function compile flags: /Odtp /ZI
; File c:\users\nhv90\projects\eech\aphavoc\source\entity\special\sector\sc_int.c
;	COMDAT ?set_server_int_value@@YGXPAUENTITY@@W4INT_TYPES@@H@Z
_TEXT	SEGMENT
_en$ = 8						; size = 4
_type$ = 12						; size = 4
_value$ = 16						; size = 4
?set_server_int_value@@YGXPAUENTITY@@W4INT_TYPES@@H@Z PROC ; set_server_int_value, COMDAT

; 166  : {

  00000	55		 push	 ebp
  00001	8b ec		 mov	 ebp, esp
  00003	83 ec 40	 sub	 esp, 64			; 00000040H
  00006	53		 push	 ebx
  00007	56		 push	 esi
  00008	57		 push	 edi

; 167  : 	validate_client_server_local_fn ();

  00009	e8 00 00 00 00	 call	 ?assert_client_server_local_fn@@YGHXZ ; assert_client_server_local_fn
  0000e	85 c0		 test	 eax, eax
  00010	75 18		 jne	 SHORT $LN2@set_server
  00012	a1 00 00 00 00	 mov	 eax, DWORD PTR ?__LINE__Var@?0??set_server_int_value@@YGXPAUENTITY@@W4INT_TYPES@@H@Z@4JA
  00017	83 c0 01	 add	 eax, 1
  0001a	50		 push	 eax
  0001b	68 00 00 00 00	 push	 OFFSET ??_C@_0EL@DHLLPHEB@c?3?2users?2nhv90?2projects?2eech?2ap@
  00020	68 00 00 00 00	 push	 OFFSET ??_C@_0CB@CFOCLFOK@assert_client_server_local_fn?5?$CI@
  00025	e8 00 00 00 00	 call	 ?process_assert@@YGXPBD0H@Z ; process_assert
$LN2@set_server:

; 168  : 
; 169  : 	set_local_int_value (en, type, value);

  0002a	8b 45 10	 mov	 eax, DWORD PTR _value$[ebp]
  0002d	50		 push	 eax
  0002e	8b 4d 0c	 mov	 ecx, DWORD PTR _type$[ebp]
  00031	51		 push	 ecx
  00032	8b 55 08	 mov	 edx, DWORD PTR _en$[ebp]
  00035	52		 push	 edx
  00036	e8 00 00 00 00	 call	 ?set_local_int_value@@YGXPAUENTITY@@W4INT_TYPES@@H@Z ; set_local_int_value

; 170  : 
; 171  : 	validate_client_server_remote_fn ();

  0003b	e8 00 00 00 00	 call	 ?assert_client_server_remote_fn@@YGHXZ ; assert_client_server_remote_fn
  00040	85 c0		 test	 eax, eax
  00042	75 18		 jne	 SHORT $LN3@set_server
  00044	a1 00 00 00 00	 mov	 eax, DWORD PTR ?__LINE__Var@?0??set_server_int_value@@YGXPAUENTITY@@W4INT_TYPES@@H@Z@4JA
  00049	83 c0 05	 add	 eax, 5
  0004c	50		 push	 eax
  0004d	68 00 00 00 00	 push	 OFFSET ??_C@_0EL@DHLLPHEB@c?3?2users?2nhv90?2projects?2eech?2ap@
  00052	68 00 00 00 00	 push	 OFFSET ??_C@_0CC@BNNNEGEG@assert_client_server_remote_fn?5@
  00057	e8 00 00 00 00	 call	 ?process_assert@@YGXPBD0H@Z ; process_assert
$LN3@set_server:

; 172  : 
; 173  : 	set_remote_int_value (en, type, value);

  0005c	8b 45 10	 mov	 eax, DWORD PTR _value$[ebp]
  0005f	50		 push	 eax
  00060	8b 4d 0c	 mov	 ecx, DWORD PTR _type$[ebp]
  00063	51		 push	 ecx
  00064	8b 55 08	 mov	 edx, DWORD PTR _en$[ebp]
  00067	52		 push	 edx
  00068	e8 00 00 00 00	 call	 ?set_remote_int_value@@YGXPAUENTITY@@W4INT_TYPES@@H@Z ; set_remote_int_value

; 174  : }

  0006d	5f		 pop	 edi
  0006e	5e		 pop	 esi
  0006f	5b		 pop	 ebx
  00070	8b e5		 mov	 esp, ebp
  00072	5d		 pop	 ebp
  00073	c2 0c 00	 ret	 12			; 0000000cH
?set_server_int_value@@YGXPAUENTITY@@W4INT_TYPES@@H@Z ENDP ; set_server_int_value
_TEXT	ENDS
; Function compile flags: /Odtp /ZI
; File c:\users\nhv90\projects\eech\aphavoc\source\entity\special\sector\sc_int.c
;	COMDAT ?set_remote_int_value@@YGXPAUENTITY@@W4INT_TYPES@@H@Z
_TEXT	SEGMENT
_en$ = 8						; size = 4
_type$ = 12						; size = 4
_value$ = 16						; size = 4
?set_remote_int_value@@YGXPAUENTITY@@W4INT_TYPES@@H@Z PROC ; set_remote_int_value, COMDAT

; 151  : {

  00000	55		 push	 ebp
  00001	8b ec		 mov	 ebp, esp
  00003	83 ec 40	 sub	 esp, 64			; 00000040H
  00006	53		 push	 ebx
  00007	56		 push	 esi
  00008	57		 push	 edi

; 152  : 	#if DEBUG_MODULE
; 153  : 
; 154  : 	debug_log_entity_args (ENTITY_DEBUG_REMOTE, ENTITY_DEBUG_INT_VALUE, en, type, value);
; 155  : 
; 156  : 	#endif
; 157  : 
; 158  : 	transmit_entity_comms_message (ENTITY_COMMS_INT_VALUE, en, type, value);

  00009	8b 45 10	 mov	 eax, DWORD PTR _value$[ebp]
  0000c	50		 push	 eax
  0000d	8b 4d 0c	 mov	 ecx, DWORD PTR _type$[ebp]
  00010	51		 push	 ecx
  00011	8b 55 08	 mov	 edx, DWORD PTR _en$[ebp]
  00014	52		 push	 edx
  00015	6a 17		 push	 23			; 00000017H
  00017	e8 00 00 00 00	 call	 ?transmit_entity_comms_message@@YAXW4ENTITY_COMMS_MESSAGES@@PAUENTITY@@ZZ ; transmit_entity_comms_message
  0001c	83 c4 10	 add	 esp, 16			; 00000010H

; 159  : }

  0001f	5f		 pop	 edi
  00020	5e		 pop	 esi
  00021	5b		 pop	 ebx
  00022	8b e5		 mov	 esp, ebp
  00024	5d		 pop	 ebp
  00025	c2 0c 00	 ret	 12			; 0000000cH
?set_remote_int_value@@YGXPAUENTITY@@W4INT_TYPES@@H@Z ENDP ; set_remote_int_value
_TEXT	ENDS
; Function compile flags: /Odtp /ZI
; File c:\users\nhv90\projects\eech\aphavoc\source\entity\special\sector\sc_int.c
;	COMDAT ?set_local_int_value@@YGXPAUENTITY@@W4INT_TYPES@@H@Z
_TEXT	SEGMENT
tv143 = -72						; size = 4
tv65 = -72						; size = 4
_raw$ = -4						; size = 4
_en$ = 8						; size = 4
_type$ = 12						; size = 4
_value$ = 16						; size = 4
?set_local_int_value@@YGXPAUENTITY@@W4INT_TYPES@@H@Z PROC ; set_local_int_value, COMDAT

; 80   : {

  00000	55		 push	 ebp
  00001	8b ec		 mov	 ebp, esp
  00003	83 ec 48	 sub	 esp, 72			; 00000048H
  00006	53		 push	 ebx
  00007	56		 push	 esi
  00008	57		 push	 edi

; 81   : 	sector
; 82   : 		*raw;
; 83   : 
; 84   : 	#if DEBUG_MODULE
; 85   : 
; 86   : 	debug_log_entity_args (ENTITY_DEBUG_LOCAL, ENTITY_DEBUG_INT_VALUE, en, type, value);
; 87   : 
; 88   : 	#endif
; 89   : 
; 90   : 	raw = (sector *) get_local_entity_data (en);

  00009	8b 45 08	 mov	 eax, DWORD PTR _en$[ebp]
  0000c	8b 48 04	 mov	 ecx, DWORD PTR [eax+4]
  0000f	89 4d fc	 mov	 DWORD PTR _raw$[ebp], ecx

; 91   : 
; 92   : 	switch (type)

  00012	8b 45 0c	 mov	 eax, DWORD PTR _type$[ebp]
  00015	89 45 b8	 mov	 DWORD PTR tv65[ebp], eax
  00018	8b 4d b8	 mov	 ecx, DWORD PTR tv65[ebp]
  0001b	83 e9 6e	 sub	 ecx, 110		; 0000006eH
  0001e	89 4d b8	 mov	 DWORD PTR tv65[ebp], ecx
  00021	81 7d b8 a8 00
	00 00		 cmp	 DWORD PTR tv65[ebp], 168 ; 000000a8H
  00028	0f 87 c0 00 00
	00		 ja	 $LN10@set_local_
  0002e	8b 55 b8	 mov	 edx, DWORD PTR tv65[ebp]
  00031	0f b6 82 00 00
	00 00		 movzx	 eax, BYTE PTR $LN14@set_local_[edx]
  00038	ff 24 85 00 00
	00 00		 jmp	 DWORD PTR $LN15@set_local_[eax*4]
$LN4@set_local_:

; 93   : 	{
; 94   : 		////////////////////////////////////////
; 95   : 		case INT_TYPE_KEYSITE_COUNT:
; 96   : 		////////////////////////////////////////
; 97   : 		{
; 98   : 			raw->keysite_count = value;

  0003f	8b 45 10	 mov	 eax, DWORD PTR _value$[ebp]
  00042	25 ff 00 00 00	 and	 eax, 255		; 000000ffH
  00047	8b 4d fc	 mov	 ecx, DWORD PTR _raw$[ebp]
  0004a	8b 51 0c	 mov	 edx, DWORD PTR [ecx+12]
  0004d	81 e2 00 ff ff
	ff		 and	 edx, -256		; ffffff00H
  00053	0b d0		 or	 edx, eax
  00055	8b 45 fc	 mov	 eax, DWORD PTR _raw$[ebp]
  00058	89 50 0c	 mov	 DWORD PTR [eax+12], edx

; 99   : 
; 100  : 			break;

  0005b	e9 00 01 00 00	 jmp	 $LN1@set_local_
$LN5@set_local_:

; 101  : 		}
; 102  : 		////////////////////////////////////////
; 103  : 		case INT_TYPE_SIDE:
; 104  : 		////////////////////////////////////////
; 105  : 		{
; 106  : 			raw->side = value;

  00060	8b 45 10	 mov	 eax, DWORD PTR _value$[ebp]
  00063	83 e0 03	 and	 eax, 3
  00066	c1 e0 18	 shl	 eax, 24			; 00000018H
  00069	8b 4d fc	 mov	 ecx, DWORD PTR _raw$[ebp]
  0006c	8b 51 0c	 mov	 edx, DWORD PTR [ecx+12]
  0006f	81 e2 ff ff ff
	fc		 and	 edx, -50331649		; fcffffffH
  00075	0b d0		 or	 edx, eax
  00077	8b 45 fc	 mov	 eax, DWORD PTR _raw$[ebp]
  0007a	89 50 0c	 mov	 DWORD PTR [eax+12], edx

; 107  : 
; 108  : 			#ifdef DEBUG
; 109  : 
; 110  : 			if (value != ENTITY_SIDE_NEUTRAL)

  0007d	83 7d 10 00	 cmp	 DWORD PTR _value$[ebp], 0
  00081	74 21		 je	 SHORT $LN6@set_local_

; 111  : 			{
; 112  : 				ASSERT (get_game_status () == GAME_STATUS_INITIALISING);

  00083	83 3d 00 00 00
	00 02		 cmp	 DWORD PTR ?game_status@@3W4GAME_STATUS_TYPES@@A, 2 ; game_status
  0008a	74 18		 je	 SHORT $LN6@set_local_
  0008c	a1 00 00 00 00	 mov	 eax, DWORD PTR ?__LINE__Var@?0??set_local_int_value@@YGXPAUENTITY@@W4INT_TYPES@@H@Z@4JA
  00091	83 c0 20	 add	 eax, 32			; 00000020H
  00094	50		 push	 eax
  00095	68 00 00 00 00	 push	 OFFSET ??_C@_0EL@DHLLPHEB@c?3?2users?2nhv90?2projects?2eech?2ap@
  0009a	68 00 00 00 00	 push	 OFFSET ??_C@_0CP@NOCCPNPK@get_game_status?5?$CI?$CJ?5?$DN?$DN?5GAME_STAT@
  0009f	e8 00 00 00 00	 call	 ?process_assert@@YGXPBD0H@Z ; process_assert
$LN6@set_local_:

; 113  : 			}
; 114  : 
; 115  : 			#endif
; 116  : 			
; 117  : 			break;

  000a4	e9 b7 00 00 00	 jmp	 $LN1@set_local_
$LN8@set_local_:

; 118  : 		}
; 119  : 		////////////////////////////////////////
; 120  : 		case INT_TYPE_X_SECTOR:
; 121  : 		////////////////////////////////////////
; 122  : 		{
; 123  : 			raw->x_sector = value;

  000a9	8b 45 10	 mov	 eax, DWORD PTR _value$[ebp]
  000ac	25 ff 00 00 00	 and	 eax, 255		; 000000ffH
  000b1	c1 e0 08	 shl	 eax, 8
  000b4	8b 4d fc	 mov	 ecx, DWORD PTR _raw$[ebp]
  000b7	8b 51 0c	 mov	 edx, DWORD PTR [ecx+12]
  000ba	81 e2 ff 00 ff
	ff		 and	 edx, -65281		; ffff00ffH
  000c0	0b d0		 or	 edx, eax
  000c2	8b 45 fc	 mov	 eax, DWORD PTR _raw$[ebp]
  000c5	89 50 0c	 mov	 DWORD PTR [eax+12], edx

; 124  : 
; 125  : 			break;

  000c8	e9 93 00 00 00	 jmp	 $LN1@set_local_
$LN9@set_local_:

; 126  : 		}
; 127  : 		////////////////////////////////////////
; 128  : 		case INT_TYPE_Z_SECTOR:
; 129  : 		////////////////////////////////////////
; 130  : 		{
; 131  : 			raw->z_sector = value;

  000cd	8b 45 10	 mov	 eax, DWORD PTR _value$[ebp]
  000d0	25 ff 00 00 00	 and	 eax, 255		; 000000ffH
  000d5	c1 e0 10	 shl	 eax, 16			; 00000010H
  000d8	8b 4d fc	 mov	 ecx, DWORD PTR _raw$[ebp]
  000db	8b 51 0c	 mov	 edx, DWORD PTR [ecx+12]
  000de	81 e2 ff ff 00
	ff		 and	 edx, -16711681		; ff00ffffH
  000e4	0b d0		 or	 edx, eax
  000e6	8b 45 fc	 mov	 eax, DWORD PTR _raw$[ebp]
  000e9	89 50 0c	 mov	 DWORD PTR [eax+12], edx

; 132  : 
; 133  : 			break;

  000ec	eb 72		 jmp	 SHORT $LN1@set_local_
$LN10@set_local_:

; 134  : 		}
; 135  : 		////////////////////////////////////////
; 136  : 		default:
; 137  : 		////////////////////////////////////////
; 138  : 		{
; 139  : 			debug_fatal_invalid_int_type (en, type);

  000ee	83 7d 08 00	 cmp	 DWORD PTR _en$[ebp], 0
  000f2	74 0a		 je	 SHORT $LN12@set_local_
  000f4	8b 45 08	 mov	 eax, DWORD PTR _en$[ebp]
  000f7	8b 08		 mov	 ecx, DWORD PTR [eax]
  000f9	89 4d b8	 mov	 DWORD PTR tv143[ebp], ecx
  000fc	eb 21		 jmp	 SHORT $LN13@set_local_
$LN12@set_local_:
  000fe	8b 15 00 00 00
	00		 mov	 edx, DWORD PTR ?__LINE__Var@?0??set_local_int_value@@YGXPAUENTITY@@W4INT_TYPES@@H@Z@4JA
  00104	83 c2 3b	 add	 edx, 59			; 0000003bH
  00107	52		 push	 edx
  00108	68 00 00 00 00	 push	 OFFSET ??_C@_0EL@DHLLPHEB@c?3?2users?2nhv90?2projects?2eech?2ap@
  0010d	a1 00 00 00 00	 mov	 eax, DWORD PTR ?null_entity_pointer_message@@3PBDB ; null_entity_pointer_message
  00112	50		 push	 eax
  00113	e8 00 00 00 00	 call	 ?process_assert@@YGXPBD0H@Z ; process_assert
  00118	c7 45 b8 00 00
	00 00		 mov	 DWORD PTR tv143[ebp], 0
$LN13@set_local_:
  0011f	8b 0d 00 00 00
	00		 mov	 ecx, DWORD PTR ?__LINE__Var@?0??set_local_int_value@@YGXPAUENTITY@@W4INT_TYPES@@H@Z@4JA
  00125	83 c1 3b	 add	 ecx, 59			; 0000003bH
  00128	51		 push	 ecx
  00129	68 00 00 00 00	 push	 OFFSET ??_C@_0EL@DHLLPHEB@c?3?2users?2nhv90?2projects?2eech?2ap@
  0012e	6b 55 0c 14	 imul	 edx, DWORD PTR _type$[ebp], 20
  00132	8b 82 00 00 00
	00		 mov	 eax, DWORD PTR ?int_type_database@@3PAUINT_TYPE_DATA@@A[edx]
  00138	50		 push	 eax
  00139	8b 4d 08	 mov	 ecx, DWORD PTR _en$[ebp]
  0013c	2b 0d 00 00 00
	00		 sub	 ecx, DWORD PTR ?entities@@3PAUENTITY@@A ; entities
  00142	c1 f9 04	 sar	 ecx, 4
  00145	51		 push	 ecx
  00146	6b 55 b8 0c	 imul	 edx, DWORD PTR tv143[ebp], 12
  0014a	8b 82 00 00 00
	00		 mov	 eax, DWORD PTR ?entity_type_database@@3PAUENTITY_TYPE_DATA@@A[edx]
  00150	50		 push	 eax
  00151	8b 0d 00 00 00
	00		 mov	 ecx, DWORD PTR ?debug_fatal_invalid_int_type_message@@3PBDB ; debug_fatal_invalid_int_type_message
  00157	51		 push	 ecx
  00158	e8 00 00 00 00	 call	 ?debug_fatal@@YAXPBDZZ	; debug_fatal
  0015d	83 c4 18	 add	 esp, 24			; 00000018H
$LN1@set_local_:

; 140  : 
; 141  : 			break;
; 142  : 		}
; 143  : 	}
; 144  : }

  00160	5f		 pop	 edi
  00161	5e		 pop	 esi
  00162	5b		 pop	 ebx
  00163	8b e5		 mov	 esp, ebp
  00165	5d		 pop	 ebp
  00166	c2 0c 00	 ret	 12			; 0000000cH
  00169	0f 1f 00	 npad	 3
$LN15@set_local_:
  0016c	00 00 00 00	 DD	 $LN4@set_local_
  00170	00 00 00 00	 DD	 $LN5@set_local_
  00174	00 00 00 00	 DD	 $LN8@set_local_
  00178	00 00 00 00	 DD	 $LN9@set_local_
  0017c	00 00 00 00	 DD	 $LN10@set_local_
$LN14@set_local_:
  00180	00		 DB	 0
  00181	04		 DB	 4
  00182	04		 DB	 4
  00183	04		 DB	 4
  00184	04		 DB	 4
  00185	04		 DB	 4
  00186	04		 DB	 4
  00187	04		 DB	 4
  00188	04		 DB	 4
  00189	04		 DB	 4
  0018a	04		 DB	 4
  0018b	04		 DB	 4
  0018c	04		 DB	 4
  0018d	04		 DB	 4
  0018e	04		 DB	 4
  0018f	04		 DB	 4
  00190	04		 DB	 4
  00191	04		 DB	 4
  00192	04		 DB	 4
  00193	04		 DB	 4
  00194	04		 DB	 4
  00195	04		 DB	 4
  00196	04		 DB	 4
  00197	04		 DB	 4
  00198	04		 DB	 4
  00199	04		 DB	 4
  0019a	04		 DB	 4
  0019b	04		 DB	 4
  0019c	04		 DB	 4
  0019d	04		 DB	 4
  0019e	04		 DB	 4
  0019f	04		 DB	 4
  001a0	04		 DB	 4
  001a1	04		 DB	 4
  001a2	04		 DB	 4
  001a3	04		 DB	 4
  001a4	04		 DB	 4
  001a5	04		 DB	 4
  001a6	04		 DB	 4
  001a7	04		 DB	 4
  001a8	04		 DB	 4
  001a9	04		 DB	 4
  001aa	04		 DB	 4
  001ab	04		 DB	 4
  001ac	04		 DB	 4
  001ad	04		 DB	 4
  001ae	04		 DB	 4
  001af	04		 DB	 4
  001b0	04		 DB	 4
  001b1	04		 DB	 4
  001b2	04		 DB	 4
  001b3	04		 DB	 4
  001b4	04		 DB	 4
  001b5	04		 DB	 4
  001b6	04		 DB	 4
  001b7	04		 DB	 4
  001b8	04		 DB	 4
  001b9	04		 DB	 4
  001ba	04		 DB	 4
  001bb	04		 DB	 4
  001bc	04		 DB	 4
  001bd	04		 DB	 4
  001be	04		 DB	 4
  001bf	04		 DB	 4
  001c0	04		 DB	 4
  001c1	04		 DB	 4
  001c2	04		 DB	 4
  001c3	04		 DB	 4
  001c4	04		 DB	 4
  001c5	04		 DB	 4
  001c6	04		 DB	 4
  001c7	04		 DB	 4
  001c8	04		 DB	 4
  001c9	04		 DB	 4
  001ca	04		 DB	 4
  001cb	04		 DB	 4
  001cc	04		 DB	 4
  001cd	01		 DB	 1
  001ce	04		 DB	 4
  001cf	04		 DB	 4
  001d0	04		 DB	 4
  001d1	04		 DB	 4
  001d2	04		 DB	 4
  001d3	04		 DB	 4
  001d4	04		 DB	 4
  001d5	04		 DB	 4
  001d6	04		 DB	 4
  001d7	04		 DB	 4
  001d8	04		 DB	 4
  001d9	04		 DB	 4
  001da	04		 DB	 4
  001db	04		 DB	 4
  001dc	04		 DB	 4
  001dd	04		 DB	 4
  001de	04		 DB	 4
  001df	04		 DB	 4
  001e0	04		 DB	 4
  001e1	04		 DB	 4
  001e2	04		 DB	 4
  001e3	04		 DB	 4
  001e4	04		 DB	 4
  001e5	04		 DB	 4
  001e6	04		 DB	 4
  001e7	04		 DB	 4
  001e8	04		 DB	 4
  001e9	04		 DB	 4
  001ea	04		 DB	 4
  001eb	04		 DB	 4
  001ec	04		 DB	 4
  001ed	04		 DB	 4
  001ee	04		 DB	 4
  001ef	04		 DB	 4
  001f0	04		 DB	 4
  001f1	04		 DB	 4
  001f2	04		 DB	 4
  001f3	04		 DB	 4
  001f4	04		 DB	 4
  001f5	04		 DB	 4
  001f6	04		 DB	 4
  001f7	04		 DB	 4
  001f8	04		 DB	 4
  001f9	04		 DB	 4
  001fa	04		 DB	 4
  001fb	04		 DB	 4
  001fc	04		 DB	 4
  001fd	04		 DB	 4
  001fe	04		 DB	 4
  001ff	04		 DB	 4
  00200	04		 DB	 4
  00201	04		 DB	 4
  00202	04		 DB	 4
  00203	04		 DB	 4
  00204	04		 DB	 4
  00205	04		 DB	 4
  00206	04		 DB	 4
  00207	04		 DB	 4
  00208	04		 DB	 4
  00209	04		 DB	 4
  0020a	04		 DB	 4
  0020b	04		 DB	 4
  0020c	04		 DB	 4
  0020d	04		 DB	 4
  0020e	04		 DB	 4
  0020f	04		 DB	 4
  00210	04		 DB	 4
  00211	04		 DB	 4
  00212	04		 DB	 4
  00213	04		 DB	 4
  00214	04		 DB	 4
  00215	04		 DB	 4
  00216	04		 DB	 4
  00217	04		 DB	 4
  00218	04		 DB	 4
  00219	04		 DB	 4
  0021a	04		 DB	 4
  0021b	04		 DB	 4
  0021c	04		 DB	 4
  0021d	04		 DB	 4
  0021e	04		 DB	 4
  0021f	04		 DB	 4
  00220	04		 DB	 4
  00221	04		 DB	 4
  00222	04		 DB	 4
  00223	04		 DB	 4
  00224	04		 DB	 4
  00225	04		 DB	 4
  00226	04		 DB	 4
  00227	02		 DB	 2
  00228	03		 DB	 3
?set_local_int_value@@YGXPAUENTITY@@W4INT_TYPES@@H@Z ENDP ; set_local_int_value
_TEXT	ENDS
; Function compile flags: /Odtp /ZI
; File c:\users\nhv90\projects\eech\aphavoc\source\entity\special\sector\sc_int.c
;	COMDAT ?overload_sector_int_value_functions@@YGXXZ
_TEXT	SEGMENT
?overload_sector_int_value_functions@@YGXXZ PROC	; overload_sector_int_value_functions, COMDAT

; 277  : {

  00000	55		 push	 ebp
  00001	8b ec		 mov	 ebp, esp
  00003	83 ec 40	 sub	 esp, 64			; 00000040H
  00006	53		 push	 ebx
  00007	56		 push	 esi
  00008	57		 push	 edi

; 278  : 
; 279  : 	fn_set_local_entity_raw_int_value		[ENTITY_TYPE_SECTOR][INT_TYPE_KEYSITE_COUNT]								= set_local_int_value;

  00009	b8 5c 04 00 00	 mov	 eax, 1116		; 0000045cH
  0000e	6b c8 19	 imul	 ecx, eax, 25
  00011	ba 04 00 00 00	 mov	 edx, 4
  00016	6b c2 6e	 imul	 eax, edx, 110
  00019	c7 84 01 00 00
	00 00 00 00 00
	00		 mov	 DWORD PTR ?fn_set_local_entity_raw_int_value@@3PAY0BBH@P6GXPAUENTITY@@W4INT_TYPES@@H@ZA[ecx+eax], OFFSET ?set_local_int_value@@YGXPAUENTITY@@W4INT_TYPES@@H@Z ; set_local_int_value

; 280  : 	fn_set_local_entity_int_value				[ENTITY_TYPE_SECTOR][INT_TYPE_KEYSITE_COUNT]								= set_local_int_value;

  00024	b8 5c 04 00 00	 mov	 eax, 1116		; 0000045cH
  00029	6b c8 19	 imul	 ecx, eax, 25
  0002c	ba 04 00 00 00	 mov	 edx, 4
  00031	6b c2 6e	 imul	 eax, edx, 110
  00034	c7 84 01 00 00
	00 00 00 00 00
	00		 mov	 DWORD PTR ?fn_set_local_entity_int_value@@3PAY0BBH@P6GXPAUENTITY@@W4INT_TYPES@@H@ZA[ecx+eax], OFFSET ?set_local_int_value@@YGXPAUENTITY@@W4INT_TYPES@@H@Z ; set_local_int_value

; 281  : 	fn_set_client_server_entity_int_value	[ENTITY_TYPE_SECTOR][INT_TYPE_KEYSITE_COUNT][COMMS_MODEL_SERVER]	= set_server_int_value;

  0003f	b8 b8 08 00 00	 mov	 eax, 2232		; 000008b8H
  00044	6b c8 19	 imul	 ecx, eax, 25
  00047	ba 08 00 00 00	 mov	 edx, 8
  0004c	6b c2 6e	 imul	 eax, edx, 110
  0004f	8d 8c 01 00 00
	00 00		 lea	 ecx, DWORD PTR ?fn_set_client_server_entity_int_value@@3PAY1BBH@1P6GXPAUENTITY@@W4INT_TYPES@@H@ZA[ecx+eax]
  00056	ba 04 00 00 00	 mov	 edx, 4
  0005b	6b c2 00	 imul	 eax, edx, 0
  0005e	c7 04 01 00 00
	00 00		 mov	 DWORD PTR [ecx+eax], OFFSET ?set_server_int_value@@YGXPAUENTITY@@W4INT_TYPES@@H@Z ; set_server_int_value

; 282  : 	fn_set_client_server_entity_int_value	[ENTITY_TYPE_SECTOR][INT_TYPE_KEYSITE_COUNT][COMMS_MODEL_CLIENT]	= set_client_int_value;

  00065	b8 b8 08 00 00	 mov	 eax, 2232		; 000008b8H
  0006a	6b c8 19	 imul	 ecx, eax, 25
  0006d	ba 08 00 00 00	 mov	 edx, 8
  00072	6b c2 6e	 imul	 eax, edx, 110
  00075	8d 8c 01 00 00
	00 00		 lea	 ecx, DWORD PTR ?fn_set_client_server_entity_int_value@@3PAY1BBH@1P6GXPAUENTITY@@W4INT_TYPES@@H@ZA[ecx+eax]
  0007c	ba 04 00 00 00	 mov	 edx, 4
  00081	c1 e2 00	 shl	 edx, 0
  00084	c7 04 11 00 00
	00 00		 mov	 DWORD PTR [ecx+edx], OFFSET ?set_client_int_value@@YGXPAUENTITY@@W4INT_TYPES@@H@Z ; set_client_int_value

; 283  : 	fn_get_local_entity_int_value				[ENTITY_TYPE_SECTOR][INT_TYPE_KEYSITE_COUNT]								= get_local_int_value;

  0008b	b8 5c 04 00 00	 mov	 eax, 1116		; 0000045cH
  00090	6b c8 19	 imul	 ecx, eax, 25
  00093	ba 04 00 00 00	 mov	 edx, 4
  00098	6b c2 6e	 imul	 eax, edx, 110
  0009b	c7 84 01 00 00
	00 00 00 00 00
	00		 mov	 DWORD PTR ?fn_get_local_entity_int_value@@3PAY0BBH@P6GHPAUENTITY@@W4INT_TYPES@@@ZA[ecx+eax], OFFSET ?get_local_int_value@@YGHPAUENTITY@@W4INT_TYPES@@@Z ; get_local_int_value

; 284  : 
; 285  : 	fn_set_local_entity_raw_int_value		[ENTITY_TYPE_SECTOR][INT_TYPE_SECTOR_SIDE]								= set_local_int_value;

  000a6	b8 5c 04 00 00	 mov	 eax, 1116		; 0000045cH
  000ab	6b c8 19	 imul	 ecx, eax, 25
  000ae	ba 04 00 00 00	 mov	 edx, 4
  000b3	69 c2 b7 00 00
	00		 imul	 eax, edx, 183
  000b9	c7 84 01 00 00
	00 00 00 00 00
	00		 mov	 DWORD PTR ?fn_set_local_entity_raw_int_value@@3PAY0BBH@P6GXPAUENTITY@@W4INT_TYPES@@H@ZA[ecx+eax], OFFSET ?set_local_int_value@@YGXPAUENTITY@@W4INT_TYPES@@H@Z ; set_local_int_value

; 286  : 	fn_set_local_entity_int_value				[ENTITY_TYPE_SECTOR][INT_TYPE_SECTOR_SIDE]								= set_local_int_value;

  000c4	b8 5c 04 00 00	 mov	 eax, 1116		; 0000045cH
  000c9	6b c8 19	 imul	 ecx, eax, 25
  000cc	ba 04 00 00 00	 mov	 edx, 4
  000d1	69 c2 b7 00 00
	00		 imul	 eax, edx, 183
  000d7	c7 84 01 00 00
	00 00 00 00 00
	00		 mov	 DWORD PTR ?fn_set_local_entity_int_value@@3PAY0BBH@P6GXPAUENTITY@@W4INT_TYPES@@H@ZA[ecx+eax], OFFSET ?set_local_int_value@@YGXPAUENTITY@@W4INT_TYPES@@H@Z ; set_local_int_value

; 287  : 	fn_set_client_server_entity_int_value	[ENTITY_TYPE_SECTOR][INT_TYPE_SECTOR_SIDE][COMMS_MODEL_SERVER]		= set_server_int_value;

  000e2	b8 b8 08 00 00	 mov	 eax, 2232		; 000008b8H
  000e7	6b c8 19	 imul	 ecx, eax, 25
  000ea	ba 08 00 00 00	 mov	 edx, 8
  000ef	69 c2 b7 00 00
	00		 imul	 eax, edx, 183
  000f5	8d 8c 01 00 00
	00 00		 lea	 ecx, DWORD PTR ?fn_set_client_server_entity_int_value@@3PAY1BBH@1P6GXPAUENTITY@@W4INT_TYPES@@H@ZA[ecx+eax]
  000fc	ba 04 00 00 00	 mov	 edx, 4
  00101	6b c2 00	 imul	 eax, edx, 0
  00104	c7 04 01 00 00
	00 00		 mov	 DWORD PTR [ecx+eax], OFFSET ?set_server_int_value@@YGXPAUENTITY@@W4INT_TYPES@@H@Z ; set_server_int_value

; 288  : 	fn_set_client_server_entity_int_value	[ENTITY_TYPE_SECTOR][INT_TYPE_SECTOR_SIDE][COMMS_MODEL_CLIENT]		= set_client_int_value;

  0010b	b8 b8 08 00 00	 mov	 eax, 2232		; 000008b8H
  00110	6b c8 19	 imul	 ecx, eax, 25
  00113	ba 08 00 00 00	 mov	 edx, 8
  00118	69 c2 b7 00 00
	00		 imul	 eax, edx, 183
  0011e	8d 8c 01 00 00
	00 00		 lea	 ecx, DWORD PTR ?fn_set_client_server_entity_int_value@@3PAY1BBH@1P6GXPAUENTITY@@W4INT_TYPES@@H@ZA[ecx+eax]
  00125	ba 04 00 00 00	 mov	 edx, 4
  0012a	c1 e2 00	 shl	 edx, 0
  0012d	c7 04 11 00 00
	00 00		 mov	 DWORD PTR [ecx+edx], OFFSET ?set_client_int_value@@YGXPAUENTITY@@W4INT_TYPES@@H@Z ; set_client_int_value

; 289  : 	fn_get_local_entity_int_value				[ENTITY_TYPE_SECTOR][INT_TYPE_SECTOR_SIDE]								= get_local_int_value;

  00134	b8 5c 04 00 00	 mov	 eax, 1116		; 0000045cH
  00139	6b c8 19	 imul	 ecx, eax, 25
  0013c	ba 04 00 00 00	 mov	 edx, 4
  00141	69 c2 b7 00 00
	00		 imul	 eax, edx, 183
  00147	c7 84 01 00 00
	00 00 00 00 00
	00		 mov	 DWORD PTR ?fn_get_local_entity_int_value@@3PAY0BBH@P6GHPAUENTITY@@W4INT_TYPES@@@ZA[ecx+eax], OFFSET ?get_local_int_value@@YGHPAUENTITY@@W4INT_TYPES@@@Z ; get_local_int_value

; 290  : 
; 291  : 	fn_set_local_entity_raw_int_value		[ENTITY_TYPE_SECTOR][INT_TYPE_SIDE]											= set_local_int_value;

  00152	b8 5c 04 00 00	 mov	 eax, 1116		; 0000045cH
  00157	6b c8 19	 imul	 ecx, eax, 25
  0015a	ba 04 00 00 00	 mov	 edx, 4
  0015f	69 c2 bb 00 00
	00		 imul	 eax, edx, 187
  00165	c7 84 01 00 00
	00 00 00 00 00
	00		 mov	 DWORD PTR ?fn_set_local_entity_raw_int_value@@3PAY0BBH@P6GXPAUENTITY@@W4INT_TYPES@@H@ZA[ecx+eax], OFFSET ?set_local_int_value@@YGXPAUENTITY@@W4INT_TYPES@@H@Z ; set_local_int_value

; 292  : 	fn_set_local_entity_int_value				[ENTITY_TYPE_SECTOR][INT_TYPE_SIDE]											= set_local_int_value;

  00170	b8 5c 04 00 00	 mov	 eax, 1116		; 0000045cH
  00175	6b c8 19	 imul	 ecx, eax, 25
  00178	ba 04 00 00 00	 mov	 edx, 4
  0017d	69 c2 bb 00 00
	00		 imul	 eax, edx, 187
  00183	c7 84 01 00 00
	00 00 00 00 00
	00		 mov	 DWORD PTR ?fn_set_local_entity_int_value@@3PAY0BBH@P6GXPAUENTITY@@W4INT_TYPES@@H@ZA[ecx+eax], OFFSET ?set_local_int_value@@YGXPAUENTITY@@W4INT_TYPES@@H@Z ; set_local_int_value

; 293  : 	fn_set_client_server_entity_int_value	[ENTITY_TYPE_SECTOR][INT_TYPE_SIDE][COMMS_MODEL_SERVER]				= set_server_int_value;

  0018e	b8 b8 08 00 00	 mov	 eax, 2232		; 000008b8H
  00193	6b c8 19	 imul	 ecx, eax, 25
  00196	ba 08 00 00 00	 mov	 edx, 8
  0019b	69 c2 bb 00 00
	00		 imul	 eax, edx, 187
  001a1	8d 8c 01 00 00
	00 00		 lea	 ecx, DWORD PTR ?fn_set_client_server_entity_int_value@@3PAY1BBH@1P6GXPAUENTITY@@W4INT_TYPES@@H@ZA[ecx+eax]
  001a8	ba 04 00 00 00	 mov	 edx, 4
  001ad	6b c2 00	 imul	 eax, edx, 0
  001b0	c7 04 01 00 00
	00 00		 mov	 DWORD PTR [ecx+eax], OFFSET ?set_server_int_value@@YGXPAUENTITY@@W4INT_TYPES@@H@Z ; set_server_int_value

; 294  : 	fn_set_client_server_entity_int_value	[ENTITY_TYPE_SECTOR][INT_TYPE_SIDE][COMMS_MODEL_CLIENT]				= set_client_int_value;

  001b7	b8 b8 08 00 00	 mov	 eax, 2232		; 000008b8H
  001bc	6b c8 19	 imul	 ecx, eax, 25
  001bf	ba 08 00 00 00	 mov	 edx, 8
  001c4	69 c2 bb 00 00
	00		 imul	 eax, edx, 187
  001ca	8d 8c 01 00 00
	00 00		 lea	 ecx, DWORD PTR ?fn_set_client_server_entity_int_value@@3PAY1BBH@1P6GXPAUENTITY@@W4INT_TYPES@@H@ZA[ecx+eax]
  001d1	ba 04 00 00 00	 mov	 edx, 4
  001d6	c1 e2 00	 shl	 edx, 0
  001d9	c7 04 11 00 00
	00 00		 mov	 DWORD PTR [ecx+edx], OFFSET ?set_client_int_value@@YGXPAUENTITY@@W4INT_TYPES@@H@Z ; set_client_int_value

; 295  : 	fn_get_local_entity_int_value				[ENTITY_TYPE_SECTOR][INT_TYPE_SIDE]											= get_local_int_value;

  001e0	b8 5c 04 00 00	 mov	 eax, 1116		; 0000045cH
  001e5	6b c8 19	 imul	 ecx, eax, 25
  001e8	ba 04 00 00 00	 mov	 edx, 4
  001ed	69 c2 bb 00 00
	00		 imul	 eax, edx, 187
  001f3	c7 84 01 00 00
	00 00 00 00 00
	00		 mov	 DWORD PTR ?fn_get_local_entity_int_value@@3PAY0BBH@P6GHPAUENTITY@@W4INT_TYPES@@@ZA[ecx+eax], OFFSET ?get_local_int_value@@YGHPAUENTITY@@W4INT_TYPES@@@Z ; get_local_int_value

; 296  : 
; 297  : 	fn_set_local_entity_raw_int_value		[ENTITY_TYPE_SECTOR][INT_TYPE_X_SECTOR]									= set_local_int_value;

  001fe	b8 5c 04 00 00	 mov	 eax, 1116		; 0000045cH
  00203	6b c8 19	 imul	 ecx, eax, 25
  00206	ba 04 00 00 00	 mov	 edx, 4
  0020b	69 c2 15 01 00
	00		 imul	 eax, edx, 277
  00211	c7 84 01 00 00
	00 00 00 00 00
	00		 mov	 DWORD PTR ?fn_set_local_entity_raw_int_value@@3PAY0BBH@P6GXPAUENTITY@@W4INT_TYPES@@H@ZA[ecx+eax], OFFSET ?set_local_int_value@@YGXPAUENTITY@@W4INT_TYPES@@H@Z ; set_local_int_value

; 298  : 	fn_set_local_entity_int_value				[ENTITY_TYPE_SECTOR][INT_TYPE_X_SECTOR]									= set_local_int_value;

  0021c	b8 5c 04 00 00	 mov	 eax, 1116		; 0000045cH
  00221	6b c8 19	 imul	 ecx, eax, 25
  00224	ba 04 00 00 00	 mov	 edx, 4
  00229	69 c2 15 01 00
	00		 imul	 eax, edx, 277
  0022f	c7 84 01 00 00
	00 00 00 00 00
	00		 mov	 DWORD PTR ?fn_set_local_entity_int_value@@3PAY0BBH@P6GXPAUENTITY@@W4INT_TYPES@@H@ZA[ecx+eax], OFFSET ?set_local_int_value@@YGXPAUENTITY@@W4INT_TYPES@@H@Z ; set_local_int_value

; 299  : 	fn_set_client_server_entity_int_value	[ENTITY_TYPE_SECTOR][INT_TYPE_X_SECTOR][COMMS_MODEL_SERVER]			= set_server_int_value;

  0023a	b8 b8 08 00 00	 mov	 eax, 2232		; 000008b8H
  0023f	6b c8 19	 imul	 ecx, eax, 25
  00242	ba 08 00 00 00	 mov	 edx, 8
  00247	69 c2 15 01 00
	00		 imul	 eax, edx, 277
  0024d	8d 8c 01 00 00
	00 00		 lea	 ecx, DWORD PTR ?fn_set_client_server_entity_int_value@@3PAY1BBH@1P6GXPAUENTITY@@W4INT_TYPES@@H@ZA[ecx+eax]
  00254	ba 04 00 00 00	 mov	 edx, 4
  00259	6b c2 00	 imul	 eax, edx, 0
  0025c	c7 04 01 00 00
	00 00		 mov	 DWORD PTR [ecx+eax], OFFSET ?set_server_int_value@@YGXPAUENTITY@@W4INT_TYPES@@H@Z ; set_server_int_value

; 300  : 	fn_set_client_server_entity_int_value	[ENTITY_TYPE_SECTOR][INT_TYPE_X_SECTOR][COMMS_MODEL_CLIENT]			= set_client_int_value;

  00263	b8 b8 08 00 00	 mov	 eax, 2232		; 000008b8H
  00268	6b c8 19	 imul	 ecx, eax, 25
  0026b	ba 08 00 00 00	 mov	 edx, 8
  00270	69 c2 15 01 00
	00		 imul	 eax, edx, 277
  00276	8d 8c 01 00 00
	00 00		 lea	 ecx, DWORD PTR ?fn_set_client_server_entity_int_value@@3PAY1BBH@1P6GXPAUENTITY@@W4INT_TYPES@@H@ZA[ecx+eax]
  0027d	ba 04 00 00 00	 mov	 edx, 4
  00282	c1 e2 00	 shl	 edx, 0
  00285	c7 04 11 00 00
	00 00		 mov	 DWORD PTR [ecx+edx], OFFSET ?set_client_int_value@@YGXPAUENTITY@@W4INT_TYPES@@H@Z ; set_client_int_value

; 301  : 	fn_get_local_entity_int_value				[ENTITY_TYPE_SECTOR][INT_TYPE_X_SECTOR]									= get_local_int_value;

  0028c	b8 5c 04 00 00	 mov	 eax, 1116		; 0000045cH
  00291	6b c8 19	 imul	 ecx, eax, 25
  00294	ba 04 00 00 00	 mov	 edx, 4
  00299	69 c2 15 01 00
	00		 imul	 eax, edx, 277
  0029f	c7 84 01 00 00
	00 00 00 00 00
	00		 mov	 DWORD PTR ?fn_get_local_entity_int_value@@3PAY0BBH@P6GHPAUENTITY@@W4INT_TYPES@@@ZA[ecx+eax], OFFSET ?get_local_int_value@@YGHPAUENTITY@@W4INT_TYPES@@@Z ; get_local_int_value

; 302  : 
; 303  : 	fn_set_local_entity_raw_int_value		[ENTITY_TYPE_SECTOR][INT_TYPE_Z_SECTOR]									= set_local_int_value;

  002aa	b8 5c 04 00 00	 mov	 eax, 1116		; 0000045cH
  002af	6b c8 19	 imul	 ecx, eax, 25
  002b2	ba 04 00 00 00	 mov	 edx, 4
  002b7	69 c2 16 01 00
	00		 imul	 eax, edx, 278
  002bd	c7 84 01 00 00
	00 00 00 00 00
	00		 mov	 DWORD PTR ?fn_set_local_entity_raw_int_value@@3PAY0BBH@P6GXPAUENTITY@@W4INT_TYPES@@H@ZA[ecx+eax], OFFSET ?set_local_int_value@@YGXPAUENTITY@@W4INT_TYPES@@H@Z ; set_local_int_value

; 304  : 	fn_set_local_entity_int_value				[ENTITY_TYPE_SECTOR][INT_TYPE_Z_SECTOR]									= set_local_int_value;

  002c8	b8 5c 04 00 00	 mov	 eax, 1116		; 0000045cH
  002cd	6b c8 19	 imul	 ecx, eax, 25
  002d0	ba 04 00 00 00	 mov	 edx, 4
  002d5	69 c2 16 01 00
	00		 imul	 eax, edx, 278
  002db	c7 84 01 00 00
	00 00 00 00 00
	00		 mov	 DWORD PTR ?fn_set_local_entity_int_value@@3PAY0BBH@P6GXPAUENTITY@@W4INT_TYPES@@H@ZA[ecx+eax], OFFSET ?set_local_int_value@@YGXPAUENTITY@@W4INT_TYPES@@H@Z ; set_local_int_value

; 305  : 	fn_set_client_server_entity_int_value	[ENTITY_TYPE_SECTOR][INT_TYPE_Z_SECTOR][COMMS_MODEL_SERVER]			= set_server_int_value;

  002e6	b8 b8 08 00 00	 mov	 eax, 2232		; 000008b8H
  002eb	6b c8 19	 imul	 ecx, eax, 25
  002ee	ba 08 00 00 00	 mov	 edx, 8
  002f3	69 c2 16 01 00
	00		 imul	 eax, edx, 278
  002f9	8d 8c 01 00 00
	00 00		 lea	 ecx, DWORD PTR ?fn_set_client_server_entity_int_value@@3PAY1BBH@1P6GXPAUENTITY@@W4INT_TYPES@@H@ZA[ecx+eax]
  00300	ba 04 00 00 00	 mov	 edx, 4
  00305	6b c2 00	 imul	 eax, edx, 0
  00308	c7 04 01 00 00
	00 00		 mov	 DWORD PTR [ecx+eax], OFFSET ?set_server_int_value@@YGXPAUENTITY@@W4INT_TYPES@@H@Z ; set_server_int_value

; 306  : 	fn_set_client_server_entity_int_value	[ENTITY_TYPE_SECTOR][INT_TYPE_Z_SECTOR][COMMS_MODEL_CLIENT]			= set_client_int_value;

  0030f	b8 b8 08 00 00	 mov	 eax, 2232		; 000008b8H
  00314	6b c8 19	 imul	 ecx, eax, 25
  00317	ba 08 00 00 00	 mov	 edx, 8
  0031c	69 c2 16 01 00
	00		 imul	 eax, edx, 278
  00322	8d 8c 01 00 00
	00 00		 lea	 ecx, DWORD PTR ?fn_set_client_server_entity_int_value@@3PAY1BBH@1P6GXPAUENTITY@@W4INT_TYPES@@H@ZA[ecx+eax]
  00329	ba 04 00 00 00	 mov	 edx, 4
  0032e	c1 e2 00	 shl	 edx, 0
  00331	c7 04 11 00 00
	00 00		 mov	 DWORD PTR [ecx+edx], OFFSET ?set_client_int_value@@YGXPAUENTITY@@W4INT_TYPES@@H@Z ; set_client_int_value

; 307  : 	fn_get_local_entity_int_value				[ENTITY_TYPE_SECTOR][INT_TYPE_Z_SECTOR]									= get_local_int_value;

  00338	b8 5c 04 00 00	 mov	 eax, 1116		; 0000045cH
  0033d	6b c8 19	 imul	 ecx, eax, 25
  00340	ba 04 00 00 00	 mov	 edx, 4
  00345	69 c2 16 01 00
	00		 imul	 eax, edx, 278
  0034b	c7 84 01 00 00
	00 00 00 00 00
	00		 mov	 DWORD PTR ?fn_get_local_entity_int_value@@3PAY0BBH@P6GHPAUENTITY@@W4INT_TYPES@@@ZA[ecx+eax], OFFSET ?get_local_int_value@@YGHPAUENTITY@@W4INT_TYPES@@@Z ; get_local_int_value

; 308  : }

  00356	5f		 pop	 edi
  00357	5e		 pop	 esi
  00358	5b		 pop	 ebx
  00359	8b e5		 mov	 esp, ebp
  0035b	5d		 pop	 ebp
  0035c	c3		 ret	 0
?overload_sector_int_value_functions@@YGXXZ ENDP	; overload_sector_int_value_functions
_TEXT	ENDS
END
