; Listing generated by Microsoft (R) Optimizing Compiler Version 19.16.27045.0 

	TITLE	C:\Users\nhv90\Projects\eech\aphavoc\source\entity\special\sector\sc_seccreat.c
	.686P
	.XMM
	include listing.inc
	.model	flat

INCLUDELIB MSVCRTD
INCLUDELIB OLDNAMES

PUBLIC	?create_local_sector_entities@@YGXXZ		; create_local_sector_entities
PUBLIC	?overload_sector_create_functions@@YGXXZ	; overload_sector_create_functions
PUBLIC	??_C@_0CG@DLIBKIKB@SC_CREAT?3?5uninitialised?5sector?5@ ; `string'
PUBLIC	??_C@_0CM@HGHEMEOP@SC_CREAT?3?5creating?5sectors?4?5Sta@ ; `string'
PUBLIC	?__LINE__Var@?0??create_local@@YGPAUENTITY@@W4ENTITY_TYPES@@HPAD@Z@4JA ; `create_local'::`1'::__LINE__Var
PUBLIC	??_C@_0FA@EMDCECDF@c?3?2users?2nhv90?2projects?2eech?2ap@ ; `string'
PUBLIC	??_C@_0CL@OOPHFNJI@assert_local_create_entity_inde@ ; `string'
EXTRN	_memset:PROC
EXTRN	?process_assert@@YGXPBD0H@Z:PROC		; process_assert
EXTRN	?debug_fatal@@YAXPBDZZ:PROC			; debug_fatal
EXTRN	?debug_log@@YAXPBDZZ:PROC			; debug_log
EXTRN	?malloc_fast_memory@@YGPAXI@Z:PROC		; malloc_fast_memory
EXTRN	?malloc_heap_memory@@YGPAXI@Z:PROC		; malloc_heap_memory
EXTRN	?free_mem@@YGXPAX@Z:PROC			; free_mem
EXTRN	?set_local_entity_attributes@@YGXPAUENTITY@@PAD@Z:PROC ; set_local_entity_attributes
EXTRN	?create_local_entity@@YAPAUENTITY@@W4ENTITY_TYPES@@HZZ:PROC ; create_local_entity
EXTRN	?assert_local_create_entity_index@@YGHH@Z:PROC	; assert_local_create_entity_index
EXTRN	?get_free_entity@@YGPAUENTITY@@H@Z:PROC		; get_free_entity
EXTRN	?world_map@@3UWORLD_MAP_DATA@@A:BYTE		; world_map
EXTRN	?fn_create_local_entity@@3PAP6GPAUENTITY@@W4ENTITY_TYPES@@HPAD@ZA:BYTE ; fn_create_local_entity
EXTRN	?entities@@3PAUENTITY@@A:DWORD			; entities
EXTRN	?entity_sector_map@@3PAPAUENTITY@@A:DWORD	; entity_sector_map
;	COMDAT ??_C@_0CL@OOPHFNJI@assert_local_create_entity_inde@
CONST	SEGMENT
??_C@_0CL@OOPHFNJI@assert_local_create_entity_inde@ DB 'assert_local_crea'
	DB	'te_entity_index ((index))', 00H		; `string'
CONST	ENDS
;	COMDAT ??_C@_0FA@EMDCECDF@c?3?2users?2nhv90?2projects?2eech?2ap@
CONST	SEGMENT
??_C@_0FA@EMDCECDF@c?3?2users?2nhv90?2projects?2eech?2ap@ DB 'c:\users\nh'
	DB	'v90\projects\eech\aphavoc\source\entity\special\sector\sc_sec'
	DB	'creat.c', 00H				; `string'
CONST	ENDS
;	COMDAT ?__LINE__Var@?0??create_local@@YGPAUENTITY@@W4ENTITY_TYPES@@HPAD@Z@4JA
_DATA	SEGMENT
?__LINE__Var@?0??create_local@@YGPAUENTITY@@W4ENTITY_TYPES@@HPAD@Z@4JA DD 0bdH ; `create_local'::`1'::__LINE__Var
_DATA	ENDS
;	COMDAT ??_C@_0CM@HGHEMEOP@SC_CREAT?3?5creating?5sectors?4?5Sta@
CONST	SEGMENT
??_C@_0CM@HGHEMEOP@SC_CREAT?3?5creating?5sectors?4?5Sta@ DB 'SC_CREAT: cr'
	DB	'eating sectors. Start entity %d', 00H	; `string'
CONST	ENDS
;	COMDAT ??_C@_0CG@DLIBKIKB@SC_CREAT?3?5uninitialised?5sector?5@
CONST	SEGMENT
??_C@_0CG@DLIBKIKB@SC_CREAT?3?5uninitialised?5sector?5@ DB 'SC_CREAT: uni'
	DB	'nitialised sector entity', 00H		; `string'
CONST	ENDS
_DATA	SEGMENT
?old_min_map_z_sector@?1??create_local_sector_entities@@YGXXZ@4HA DD 0ffffffffH ; `create_local_sector_entities'::`2'::old_min_map_z_sector
?old_max_map_z_sector@?1??create_local_sector_entities@@YGXXZ@4HA DD 0ffffffffH ; `create_local_sector_entities'::`2'::old_max_map_z_sector
?old_num_map_z_sectors@?1??create_local_sector_entities@@YGXXZ@4HA DD 0ffffffffH ; `create_local_sector_entities'::`2'::old_num_map_z_sectors
?old_min_map_x_sector@?1??create_local_sector_entities@@YGXXZ@4HA DD 0ffffffffH ; `create_local_sector_entities'::`2'::old_min_map_x_sector
?old_max_map_x_sector@?1??create_local_sector_entities@@YGXXZ@4HA DD 0ffffffffH ; `create_local_sector_entities'::`2'::old_max_map_x_sector
?old_num_map_x_sectors@?1??create_local_sector_entities@@YGXXZ@4HA DD 0ffffffffH ; `create_local_sector_entities'::`2'::old_num_map_x_sectors
_DATA	ENDS
; Function compile flags: /Odtp /ZI
; File c:\users\nhv90\projects\eech\aphavoc\source\entity\special\sector\sc_seccreat.c
;	COMDAT ?create_local@@YGPAUENTITY@@W4ENTITY_TYPES@@HPAD@Z
_TEXT	SEGMENT
_raw$ = -8						; size = 4
_en$ = -4						; size = 4
_type$ = 8						; size = 4
_index$ = 12						; size = 4
_pargs$ = 16						; size = 4
?create_local@@YGPAUENTITY@@W4ENTITY_TYPES@@HPAD@Z PROC	; create_local, COMDAT

; 189  : {

  00000	55		 push	 ebp
  00001	8b ec		 mov	 ebp, esp
  00003	83 ec 48	 sub	 esp, 72			; 00000048H
  00006	53		 push	 ebx
  00007	56		 push	 esi
  00008	57		 push	 edi

; 190  : 	entity
; 191  : 		*en;
; 192  : 
; 193  : 	sector
; 194  : 		*raw;
; 195  : 
; 196  : 	////////////////////////////////////////
; 197  :   	//
; 198  :   	// VALIDATE
; 199  :   	//
; 200  : 	////////////////////////////////////////
; 201  : 
; 202  : 	validate_local_create_entity_index (index);

  00009	8b 45 0c	 mov	 eax, DWORD PTR _index$[ebp]
  0000c	50		 push	 eax
  0000d	e8 00 00 00 00	 call	 ?assert_local_create_entity_index@@YGHH@Z ; assert_local_create_entity_index
  00012	85 c0		 test	 eax, eax
  00014	75 18		 jne	 SHORT $LN2@create_loc
  00016	a1 00 00 00 00	 mov	 eax, DWORD PTR ?__LINE__Var@?0??create_local@@YGPAUENTITY@@W4ENTITY_TYPES@@HPAD@Z@4JA
  0001b	83 c0 0d	 add	 eax, 13			; 0000000dH
  0001e	50		 push	 eax
  0001f	68 00 00 00 00	 push	 OFFSET ??_C@_0FA@EMDCECDF@c?3?2users?2nhv90?2projects?2eech?2ap@
  00024	68 00 00 00 00	 push	 OFFSET ??_C@_0CL@OOPHFNJI@assert_local_create_entity_inde@
  00029	e8 00 00 00 00	 call	 ?process_assert@@YGXPBD0H@Z ; process_assert
$LN2@create_loc:

; 203  : 
; 204  : 	#if DEBUG_MODULE
; 205  : 
; 206  : 	debug_log_entity_args (ENTITY_DEBUG_LOCAL, ENTITY_DEBUG_CREATE, NULL, type, index);
; 207  : 
; 208  : 	#endif
; 209  : 
; 210  : 	en = get_free_entity (index);

  0002e	8b 45 0c	 mov	 eax, DWORD PTR _index$[ebp]
  00031	50		 push	 eax
  00032	e8 00 00 00 00	 call	 ?get_free_entity@@YGPAUENTITY@@H@Z ; get_free_entity
  00037	89 45 fc	 mov	 DWORD PTR _en$[ebp], eax

; 211  : 
; 212  : 	if (en)

  0003a	83 7d fc 00	 cmp	 DWORD PTR _en$[ebp], 0
  0003e	74 38		 je	 SHORT $LN3@create_loc

; 213  : 	{
; 214  : 		////////////////////////////////////////
; 215  :    	//
; 216  :    	// MALLOC ENTITY DATA
; 217  :    	//
; 218  : 		////////////////////////////////////////
; 219  : 
; 220  : 		set_local_entity_type (en, type);

  00040	8b 45 fc	 mov	 eax, DWORD PTR _en$[ebp]
  00043	8b 4d 08	 mov	 ecx, DWORD PTR _type$[ebp]
  00046	89 08		 mov	 DWORD PTR [eax], ecx

; 221  : 
; 222  : 		raw = (sector *) malloc_fast_mem (sizeof (sector));

  00048	6a 5c		 push	 92			; 0000005cH
  0004a	e8 00 00 00 00	 call	 ?malloc_fast_memory@@YGPAXI@Z ; malloc_fast_memory
  0004f	89 45 f8	 mov	 DWORD PTR _raw$[ebp], eax

; 223  : 
; 224  : 		set_local_entity_data (en, raw);

  00052	8b 45 fc	 mov	 eax, DWORD PTR _en$[ebp]
  00055	8b 4d f8	 mov	 ecx, DWORD PTR _raw$[ebp]
  00058	89 48 04	 mov	 DWORD PTR [eax+4], ecx

; 225  : 
; 226  : 		////////////////////////////////////////
; 227  :    	//
; 228  :    	// INITIALISE ALL ENTITY DATA TO 'WORKING' DEFAULT VALUES
; 229  : 		//
; 230  : 		// DO NOT USE ACCESS FUNCTIONS
; 231  : 		//
; 232  : 		// DO NOT USE RANDOM VALUES
; 233  : 		//
; 234  : 		////////////////////////////////////////
; 235  : 
; 236  : 		memset (raw, 0, sizeof (sector));

  0005b	6a 5c		 push	 92			; 0000005cH
  0005d	6a 00		 push	 0
  0005f	8b 45 f8	 mov	 eax, DWORD PTR _raw$[ebp]
  00062	50		 push	 eax
  00063	e8 00 00 00 00	 call	 _memset
  00068	83 c4 0c	 add	 esp, 12			; 0000000cH

; 237  : 
; 238  : 		////////////////////////////////////////
; 239  : 		//
; 240  : 		// OVERWRITE DEFAULT VALUES WITH GIVEN ATTRIBUTES
; 241  : 		//
; 242  : 		////////////////////////////////////////
; 243  : 
; 244  : 		set_local_entity_attributes (en, pargs);

  0006b	8b 45 10	 mov	 eax, DWORD PTR _pargs$[ebp]
  0006e	50		 push	 eax
  0006f	8b 4d fc	 mov	 ecx, DWORD PTR _en$[ebp]
  00072	51		 push	 ecx
  00073	e8 00 00 00 00	 call	 ?set_local_entity_attributes@@YGXPAUENTITY@@PAD@Z ; set_local_entity_attributes
$LN3@create_loc:

; 245  : 
; 246  : 		////////////////////////////////////////
; 247  : 		//
; 248  : 		// CHECK MANDATORY ATTRIBUTES HAVE BEEN GIVEN
; 249  : 		//
; 250  : 		////////////////////////////////////////
; 251  : 
; 252  : 		////////////////////////////////////////
; 253  : 		//
; 254  : 		// RESOLVE DEFAULT VALUES
; 255  : 		//
; 256  : 		////////////////////////////////////////
; 257  : 
; 258  : 		////////////////////////////////////////
; 259  : 		//
; 260  : 		// LINK INTO SYSTEM
; 261  : 		//
; 262  : 		////////////////////////////////////////
; 263  : 	}
; 264  : 
; 265  : 	return (en);

  00078	8b 45 fc	 mov	 eax, DWORD PTR _en$[ebp]

; 266  : }

  0007b	5f		 pop	 edi
  0007c	5e		 pop	 esi
  0007d	5b		 pop	 ebx
  0007e	8b e5		 mov	 esp, ebp
  00080	5d		 pop	 ebp
  00081	c2 0c 00	 ret	 12			; 0000000cH
?create_local@@YGPAUENTITY@@W4ENTITY_TYPES@@HPAD@Z ENDP	; create_local
_TEXT	ENDS
; Function compile flags: /Odtp /ZI
; File c:\users\nhv90\projects\eech\aphavoc\source\entity\special\sector\sc_seccreat.c
;	COMDAT ?overload_sector_create_functions@@YGXXZ
_TEXT	SEGMENT
?overload_sector_create_functions@@YGXXZ PROC		; overload_sector_create_functions, COMDAT

; 273  : {

  00000	55		 push	 ebp
  00001	8b ec		 mov	 ebp, esp
  00003	83 ec 40	 sub	 esp, 64			; 00000040H
  00006	53		 push	 ebx
  00007	56		 push	 esi
  00008	57		 push	 edi

; 274  : 	fn_create_local_entity[ENTITY_TYPE_SECTOR] = create_local;

  00009	b8 04 00 00 00	 mov	 eax, 4
  0000e	6b c8 19	 imul	 ecx, eax, 25
  00011	c7 81 00 00 00
	00 00 00 00 00	 mov	 DWORD PTR ?fn_create_local_entity@@3PAP6GPAUENTITY@@W4ENTITY_TYPES@@HPAD@ZA[ecx], OFFSET ?create_local@@YGPAUENTITY@@W4ENTITY_TYPES@@HPAD@Z ; create_local

; 275  : }

  0001b	5f		 pop	 edi
  0001c	5e		 pop	 esi
  0001d	5b		 pop	 ebx
  0001e	8b e5		 mov	 esp, ebp
  00020	5d		 pop	 ebp
  00021	c3		 ret	 0
?overload_sector_create_functions@@YGXXZ ENDP		; overload_sector_create_functions
_TEXT	ENDS
; Function compile flags: /Odtp /ZI
; File c:\users\nhv90\projects\eech\aphavoc\source\entity\special\sector\sc_seccreat.c
;	COMDAT ?create_local_sector_entities@@YGXXZ
_TEXT	SEGMENT
_z_sec$ = -8						; size = 4
_x_sec$ = -4						; size = 4
?create_local_sector_entities@@YGXXZ PROC		; create_local_sector_entities, COMDAT

; 88   : {

  00000	55		 push	 ebp
  00001	8b ec		 mov	 ebp, esp
  00003	83 ec 48	 sub	 esp, 72			; 00000048H
  00006	53		 push	 ebx
  00007	56		 push	 esi
  00008	57		 push	 edi

; 89   : 	static int
; 90   : 		old_min_map_z_sector = -1,
; 91   : 		old_max_map_z_sector = -1,
; 92   : 		old_num_map_z_sectors = -1,
; 93   : 		old_min_map_x_sector = -1,
; 94   : 		old_max_map_x_sector = -1,
; 95   : 		old_num_map_x_sectors = -1;
; 96   : 
; 97   : 	int
; 98   : 		x_sec,
; 99   : 		z_sec;
; 100  : 
; 101  : 	//
; 102  : 	// First time setup
; 103  : 	//
; 104  : 
; 105  : 	if (old_min_map_z_sector == -1)

  00009	83 3d 00 00 00
	00 ff		 cmp	 DWORD PTR ?old_min_map_z_sector@?1??create_local_sector_entities@@YGXXZ@4HA, -1
  00010	75 3c		 jne	 SHORT $LN14@create_loc

; 106  : 	{
; 107  : 		old_min_map_z_sector = MIN_MAP_Z_SECTOR;

  00012	a1 18 00 00 00	 mov	 eax, DWORD PTR ?world_map@@3UWORLD_MAP_DATA@@A+24
  00017	a3 00 00 00 00	 mov	 DWORD PTR ?old_min_map_z_sector@?1??create_local_sector_entities@@YGXXZ@4HA, eax

; 108  : 
; 109  : 		old_max_map_z_sector = MAX_MAP_Z_SECTOR;

  0001c	a1 20 00 00 00	 mov	 eax, DWORD PTR ?world_map@@3UWORLD_MAP_DATA@@A+32
  00021	a3 00 00 00 00	 mov	 DWORD PTR ?old_max_map_z_sector@?1??create_local_sector_entities@@YGXXZ@4HA, eax

; 110  : 
; 111  : 		old_num_map_z_sectors = NUM_MAP_Z_SECTORS;

  00026	a1 0c 00 00 00	 mov	 eax, DWORD PTR ?world_map@@3UWORLD_MAP_DATA@@A+12
  0002b	a3 00 00 00 00	 mov	 DWORD PTR ?old_num_map_z_sectors@?1??create_local_sector_entities@@YGXXZ@4HA, eax

; 112  : 
; 113  : 		old_min_map_x_sector = MIN_MAP_X_SECTOR;

  00030	a1 14 00 00 00	 mov	 eax, DWORD PTR ?world_map@@3UWORLD_MAP_DATA@@A+20
  00035	a3 00 00 00 00	 mov	 DWORD PTR ?old_min_map_x_sector@?1??create_local_sector_entities@@YGXXZ@4HA, eax

; 114  : 
; 115  : 		old_max_map_x_sector = MAX_MAP_X_SECTOR;

  0003a	a1 1c 00 00 00	 mov	 eax, DWORD PTR ?world_map@@3UWORLD_MAP_DATA@@A+28
  0003f	a3 00 00 00 00	 mov	 DWORD PTR ?old_max_map_x_sector@?1??create_local_sector_entities@@YGXXZ@4HA, eax

; 116  : 
; 117  : 		old_num_map_x_sectors = NUM_MAP_X_SECTORS;

  00044	a1 08 00 00 00	 mov	 eax, DWORD PTR ?world_map@@3UWORLD_MAP_DATA@@A+8
  00049	a3 00 00 00 00	 mov	 DWORD PTR ?old_num_map_x_sectors@?1??create_local_sector_entities@@YGXXZ@4HA, eax
$LN14@create_loc:

; 118  : 	}
; 119  : 
; 120  : 	//
; 121  : 	// Deinitialise sectors (must be the 'old' map size)
; 122  : 	//
; 123  : 
; 124  : 	if (entity_sector_map)

  0004e	83 3d 00 00 00
	00 00		 cmp	 DWORD PTR ?entity_sector_map@@3PAPAUENTITY@@A, 0 ; entity_sector_map
  00055	74 73		 je	 SHORT $LN15@create_loc

; 125  : 	{
; 126  : 		for (z_sec = old_min_map_z_sector; z_sec <= old_max_map_z_sector; z_sec ++)

  00057	a1 00 00 00 00	 mov	 eax, DWORD PTR ?old_min_map_z_sector@?1??create_local_sector_entities@@YGXXZ@4HA
  0005c	89 45 f8	 mov	 DWORD PTR _z_sec$[ebp], eax
  0005f	eb 09		 jmp	 SHORT $LN4@create_loc
$LN2@create_loc:
  00061	8b 45 f8	 mov	 eax, DWORD PTR _z_sec$[ebp]
  00064	83 c0 01	 add	 eax, 1
  00067	89 45 f8	 mov	 DWORD PTR _z_sec$[ebp], eax
$LN4@create_loc:
  0006a	8b 45 f8	 mov	 eax, DWORD PTR _z_sec$[ebp]
  0006d	3b 05 00 00 00
	00		 cmp	 eax, DWORD PTR ?old_max_map_z_sector@?1??create_local_sector_entities@@YGXXZ@4HA
  00073	7f 4a		 jg	 SHORT $LN3@create_loc

; 127  : 		{
; 128  : 			for (x_sec = old_min_map_x_sector; x_sec <= old_max_map_x_sector; x_sec ++)

  00075	a1 00 00 00 00	 mov	 eax, DWORD PTR ?old_min_map_x_sector@?1??create_local_sector_entities@@YGXXZ@4HA
  0007a	89 45 fc	 mov	 DWORD PTR _x_sec$[ebp], eax
  0007d	eb 09		 jmp	 SHORT $LN7@create_loc
$LN5@create_loc:
  0007f	8b 45 fc	 mov	 eax, DWORD PTR _x_sec$[ebp]
  00082	83 c0 01	 add	 eax, 1
  00085	89 45 fc	 mov	 DWORD PTR _x_sec$[ebp], eax
$LN7@create_loc:
  00088	8b 45 fc	 mov	 eax, DWORD PTR _x_sec$[ebp]
  0008b	3b 05 00 00 00
	00		 cmp	 eax, DWORD PTR ?old_max_map_x_sector@?1??create_local_sector_entities@@YGXXZ@4HA
  00091	7f 2a		 jg	 SHORT $LN6@create_loc

; 129  : 			{
; 130  : 				if (entity_sector_map [x_sec + (z_sec * old_num_map_x_sectors)]->type != ENTITY_TYPE_UNKNOWN)

  00093	8b 45 f8	 mov	 eax, DWORD PTR _z_sec$[ebp]
  00096	0f af 05 00 00
	00 00		 imul	 eax, DWORD PTR ?old_num_map_x_sectors@?1??create_local_sector_entities@@YGXXZ@4HA
  0009d	03 45 fc	 add	 eax, DWORD PTR _x_sec$[ebp]
  000a0	8b 0d 00 00 00
	00		 mov	 ecx, DWORD PTR ?entity_sector_map@@3PAPAUENTITY@@A ; entity_sector_map
  000a6	8b 14 81	 mov	 edx, DWORD PTR [ecx+eax*4]
  000a9	83 3a 00	 cmp	 DWORD PTR [edx], 0
  000ac	74 0d		 je	 SHORT $LN16@create_loc

; 131  : 				{
; 132  : 					debug_fatal ("SC_CREAT: uninitialised sector entity");

  000ae	68 00 00 00 00	 push	 OFFSET ??_C@_0CG@DLIBKIKB@SC_CREAT?3?5uninitialised?5sector?5@
  000b3	e8 00 00 00 00	 call	 ?debug_fatal@@YAXPBDZZ	; debug_fatal
  000b8	83 c4 04	 add	 esp, 4
$LN16@create_loc:

; 133  : 				}
; 134  : 			}

  000bb	eb c2		 jmp	 SHORT $LN5@create_loc
$LN6@create_loc:

; 135  : 		}

  000bd	eb a2		 jmp	 SHORT $LN2@create_loc
$LN3@create_loc:

; 136  : 
; 137  : 		free_mem (entity_sector_map);

  000bf	a1 00 00 00 00	 mov	 eax, DWORD PTR ?entity_sector_map@@3PAPAUENTITY@@A ; entity_sector_map
  000c4	50		 push	 eax
  000c5	e8 00 00 00 00	 call	 ?free_mem@@YGXPAX@Z	; free_mem
$LN15@create_loc:

; 138  : 	}
; 139  : 
; 140  : 	//
; 141  : 	// Store new map size
; 142  : 	//
; 143  : 
; 144  : 	old_min_map_z_sector = MIN_MAP_Z_SECTOR;

  000ca	a1 18 00 00 00	 mov	 eax, DWORD PTR ?world_map@@3UWORLD_MAP_DATA@@A+24
  000cf	a3 00 00 00 00	 mov	 DWORD PTR ?old_min_map_z_sector@?1??create_local_sector_entities@@YGXXZ@4HA, eax

; 145  : 
; 146  : 	old_max_map_z_sector = MAX_MAP_Z_SECTOR;

  000d4	a1 20 00 00 00	 mov	 eax, DWORD PTR ?world_map@@3UWORLD_MAP_DATA@@A+32
  000d9	a3 00 00 00 00	 mov	 DWORD PTR ?old_max_map_z_sector@?1??create_local_sector_entities@@YGXXZ@4HA, eax

; 147  : 
; 148  : 	old_num_map_z_sectors = NUM_MAP_Z_SECTORS;

  000de	a1 0c 00 00 00	 mov	 eax, DWORD PTR ?world_map@@3UWORLD_MAP_DATA@@A+12
  000e3	a3 00 00 00 00	 mov	 DWORD PTR ?old_num_map_z_sectors@?1??create_local_sector_entities@@YGXXZ@4HA, eax

; 149  : 
; 150  : 	old_min_map_x_sector = MIN_MAP_X_SECTOR;

  000e8	a1 14 00 00 00	 mov	 eax, DWORD PTR ?world_map@@3UWORLD_MAP_DATA@@A+20
  000ed	a3 00 00 00 00	 mov	 DWORD PTR ?old_min_map_x_sector@?1??create_local_sector_entities@@YGXXZ@4HA, eax

; 151  : 
; 152  : 	old_max_map_x_sector = MAX_MAP_X_SECTOR;

  000f2	a1 1c 00 00 00	 mov	 eax, DWORD PTR ?world_map@@3UWORLD_MAP_DATA@@A+28
  000f7	a3 00 00 00 00	 mov	 DWORD PTR ?old_max_map_x_sector@?1??create_local_sector_entities@@YGXXZ@4HA, eax

; 153  : 
; 154  : 	old_num_map_x_sectors = NUM_MAP_X_SECTORS;

  000fc	a1 08 00 00 00	 mov	 eax, DWORD PTR ?world_map@@3UWORLD_MAP_DATA@@A+8
  00101	a3 00 00 00 00	 mov	 DWORD PTR ?old_num_map_x_sectors@?1??create_local_sector_entities@@YGXXZ@4HA, eax

; 155  : 
; 156  : 	//
; 157  : 	// Malloc memory
; 158  : 	//
; 159  : 
; 160  : 	entity_sector_map = (entity **) malloc_heap_mem (sizeof (entity) * NUM_MAP_X_SECTORS * NUM_MAP_Z_SECTORS);

  00106	a1 08 00 00 00	 mov	 eax, DWORD PTR ?world_map@@3UWORLD_MAP_DATA@@A+8
  0010b	c1 e0 04	 shl	 eax, 4
  0010e	0f af 05 0c 00
	00 00		 imul	 eax, DWORD PTR ?world_map@@3UWORLD_MAP_DATA@@A+12
  00115	50		 push	 eax
  00116	e8 00 00 00 00	 call	 ?malloc_heap_memory@@YGPAXI@Z ; malloc_heap_memory
  0011b	a3 00 00 00 00	 mov	 DWORD PTR ?entity_sector_map@@3PAPAUENTITY@@A, eax ; entity_sector_map

; 161  : 
; 162  : 	//
; 163  : 	// Create sector entities
; 164  : 	//
; 165  : 
; 166  : 	for (z_sec = MIN_MAP_Z_SECTOR; z_sec <= MAX_MAP_Z_SECTOR; z_sec++)

  00120	a1 18 00 00 00	 mov	 eax, DWORD PTR ?world_map@@3UWORLD_MAP_DATA@@A+24
  00125	89 45 f8	 mov	 DWORD PTR _z_sec$[ebp], eax
  00128	eb 09		 jmp	 SHORT $LN10@create_loc
$LN8@create_loc:
  0012a	8b 45 f8	 mov	 eax, DWORD PTR _z_sec$[ebp]
  0012d	83 c0 01	 add	 eax, 1
  00130	89 45 f8	 mov	 DWORD PTR _z_sec$[ebp], eax
$LN10@create_loc:
  00133	8b 45 f8	 mov	 eax, DWORD PTR _z_sec$[ebp]
  00136	3b 05 20 00 00
	00		 cmp	 eax, DWORD PTR ?world_map@@3UWORLD_MAP_DATA@@A+32
  0013c	7f 5c		 jg	 SHORT $LN9@create_loc

; 167  : 	{
; 168  : 		for (x_sec = MIN_MAP_X_SECTOR; x_sec <= MAX_MAP_X_SECTOR; x_sec++)

  0013e	a1 14 00 00 00	 mov	 eax, DWORD PTR ?world_map@@3UWORLD_MAP_DATA@@A+20
  00143	89 45 fc	 mov	 DWORD PTR _x_sec$[ebp], eax
  00146	eb 09		 jmp	 SHORT $LN13@create_loc
$LN11@create_loc:
  00148	8b 45 fc	 mov	 eax, DWORD PTR _x_sec$[ebp]
  0014b	83 c0 01	 add	 eax, 1
  0014e	89 45 fc	 mov	 DWORD PTR _x_sec$[ebp], eax
$LN13@create_loc:
  00151	8b 45 fc	 mov	 eax, DWORD PTR _x_sec$[ebp]
  00154	3b 05 1c 00 00
	00		 cmp	 eax, DWORD PTR ?world_map@@3UWORLD_MAP_DATA@@A+28
  0015a	7f 3c		 jg	 SHORT $LN12@create_loc

; 169  : 		{
; 170  : 			entity_sector_map[x_sec + (z_sec * NUM_MAP_X_SECTORS)] = create_local_entity

  0015c	6a 00		 push	 0
  0015e	8b 45 f8	 mov	 eax, DWORD PTR _z_sec$[ebp]
  00161	50		 push	 eax
  00162	68 16 01 00 00	 push	 278			; 00000116H
  00167	6a 05		 push	 5
  00169	8b 4d fc	 mov	 ecx, DWORD PTR _x_sec$[ebp]
  0016c	51		 push	 ecx
  0016d	68 15 01 00 00	 push	 277			; 00000115H
  00172	6a 05		 push	 5
  00174	6a ff		 push	 -1
  00176	6a 19		 push	 25			; 00000019H
  00178	e8 00 00 00 00	 call	 ?create_local_entity@@YAPAUENTITY@@W4ENTITY_TYPES@@HZZ ; create_local_entity
  0017d	83 c4 24	 add	 esp, 36			; 00000024H
  00180	8b 55 f8	 mov	 edx, DWORD PTR _z_sec$[ebp]
  00183	0f af 15 08 00
	00 00		 imul	 edx, DWORD PTR ?world_map@@3UWORLD_MAP_DATA@@A+8
  0018a	03 55 fc	 add	 edx, DWORD PTR _x_sec$[ebp]
  0018d	8b 0d 00 00 00
	00		 mov	 ecx, DWORD PTR ?entity_sector_map@@3PAPAUENTITY@@A ; entity_sector_map
  00193	89 04 91	 mov	 DWORD PTR [ecx+edx*4], eax

; 171  : 			(
; 172  : 				ENTITY_TYPE_SECTOR,
; 173  : 				ENTITY_INDEX_DONT_CARE,
; 174  : 				ENTITY_ATTR_INT_VALUE (INT_TYPE_X_SECTOR, x_sec),
; 175  : 				ENTITY_ATTR_INT_VALUE (INT_TYPE_Z_SECTOR, z_sec),
; 176  : 				ENTITY_ATTR_END
; 177  : 			);
; 178  : 		}

  00196	eb b0		 jmp	 SHORT $LN11@create_loc
$LN12@create_loc:

; 179  : 	}

  00198	eb 90		 jmp	 SHORT $LN8@create_loc
$LN9@create_loc:

; 180  : 
; 181  : 	debug_log ("SC_CREAT: creating sectors. Start entity %d", get_local_entity_index (entity_sector_map [0]));

  0019a	b8 04 00 00 00	 mov	 eax, 4
  0019f	6b c8 00	 imul	 ecx, eax, 0
  001a2	8b 15 00 00 00
	00		 mov	 edx, DWORD PTR ?entity_sector_map@@3PAPAUENTITY@@A ; entity_sector_map
  001a8	8b 04 0a	 mov	 eax, DWORD PTR [edx+ecx]
  001ab	2b 05 00 00 00
	00		 sub	 eax, DWORD PTR ?entities@@3PAUENTITY@@A ; entities
  001b1	c1 f8 04	 sar	 eax, 4
  001b4	50		 push	 eax
  001b5	68 00 00 00 00	 push	 OFFSET ??_C@_0CM@HGHEMEOP@SC_CREAT?3?5creating?5sectors?4?5Sta@
  001ba	e8 00 00 00 00	 call	 ?debug_log@@YAXPBDZZ	; debug_log
  001bf	83 c4 08	 add	 esp, 8

; 182  : }

  001c2	5f		 pop	 edi
  001c3	5e		 pop	 esi
  001c4	5b		 pop	 ebx
  001c5	8b e5		 mov	 esp, ebp
  001c7	5d		 pop	 ebp
  001c8	c3		 ret	 0
?create_local_sector_entities@@YGXXZ ENDP		; create_local_sector_entities
_TEXT	ENDS
END
