; Listing generated by Microsoft (R) Optimizing Compiler Version 19.16.27045.0 

	TITLE	C:\Users\nhv90\Projects\eech\aphavoc\source\entity\special\effect\soundeff\se_float.c
	.686P
	.XMM
	include listing.inc
	.model	flat

INCLUDELIB MSVCRTD
INCLUDELIB OLDNAMES

PUBLIC	?overload_sound_effect_float_value_functions@@YGXXZ ; overload_sound_effect_float_value_functions
PUBLIC	?__LINE__Var@?0??set_local_float_value@@YGXPAUENTITY@@W4FLOAT_TYPES@@M@Z@4JA ; `set_local_float_value'::`1'::__LINE__Var
PUBLIC	??_C@_0FG@NAKMOJOB@c?3?2users?2nhv90?2projects?2eech?2ap@ ; `string'
PUBLIC	?__LINE__Var@?0??set_server_float_value@@YGXPAUENTITY@@W4FLOAT_TYPES@@M@Z@4JA ; `set_server_float_value'::`1'::__LINE__Var
PUBLIC	??_C@_0CB@CFOCLFOK@assert_client_server_local_fn?5?$CI@ ; `string'
PUBLIC	??_C@_0CC@BNNNEGEG@assert_client_server_remote_fn?5@ ; `string'
PUBLIC	?__LINE__Var@?0??set_client_float_value@@YGXPAUENTITY@@W4FLOAT_TYPES@@M@Z@4JA ; `set_client_float_value'::`1'::__LINE__Var
PUBLIC	?__LINE__Var@?0??get_local_float_value@@YGMPAUENTITY@@W4FLOAT_TYPES@@@Z@4JA ; `get_local_float_value'::`1'::__LINE__Var
PUBLIC	??_C@_0BC@EBDAMAJO@raw?9?$DOeffect_index@	; `string'
EXTRN	?process_assert@@YGXPBD0H@Z:PROC		; process_assert
EXTRN	?debug_fatal@@YAXPBDZZ:PROC			; debug_fatal
EXTRN	?transmit_entity_comms_message@@YAXW4ENTITY_COMMS_MESSAGES@@PAUENTITY@@ZZ:PROC ; transmit_entity_comms_message
EXTRN	?assert_client_server_local_fn@@YGHXZ:PROC	; assert_client_server_local_fn
EXTRN	?assert_client_server_remote_fn@@YGHXZ:PROC	; assert_client_server_remote_fn
EXTRN	?null_entity_pointer_message@@3PBDB:DWORD	; null_entity_pointer_message
EXTRN	?entity_type_database@@3PAUENTITY_TYPE_DATA@@A:BYTE ; entity_type_database
EXTRN	?application_sound_effects@@3PAUSOUND_EFFECT_INFORMATION@@A:BYTE ; application_sound_effects
EXTRN	?system_comms_data_flow@@3W4COMMS_DATA_FLOW_TYPES@@A:DWORD ; system_comms_data_flow
EXTRN	?float_type_database@@3PAUFLOAT_TYPE_DATA@@A:BYTE ; float_type_database
EXTRN	?debug_fatal_invalid_float_type_message@@3PBDB:DWORD ; debug_fatal_invalid_float_type_message
EXTRN	?fn_set_local_entity_raw_float_value@@3PAY0KP@P6GXPAUENTITY@@W4FLOAT_TYPES@@M@ZA:BYTE ; fn_set_local_entity_raw_float_value
EXTRN	?fn_set_local_entity_float_value@@3PAY0KP@P6GXPAUENTITY@@W4FLOAT_TYPES@@M@ZA:BYTE ; fn_set_local_entity_float_value
EXTRN	?fn_set_client_server_entity_float_value@@3PAY1KP@1P6GXPAUENTITY@@W4FLOAT_TYPES@@M@ZA:BYTE ; fn_set_client_server_entity_float_value
EXTRN	?fn_get_local_entity_float_value@@3PAY0KP@P6GMPAUENTITY@@W4FLOAT_TYPES@@@ZA:BYTE ; fn_get_local_entity_float_value
EXTRN	?entities@@3PAUENTITY@@A:DWORD			; entities
EXTRN	__fltused:DWORD
;	COMDAT ??_C@_0BC@EBDAMAJO@raw?9?$DOeffect_index@
CONST	SEGMENT
??_C@_0BC@EBDAMAJO@raw?9?$DOeffect_index@ DB 'raw->effect_index', 00H ; `string'
CONST	ENDS
;	COMDAT ?__LINE__Var@?0??get_local_float_value@@YGMPAUENTITY@@W4FLOAT_TYPES@@@Z@4JA
_DATA	SEGMENT
?__LINE__Var@?0??get_local_float_value@@YGMPAUENTITY@@W4FLOAT_TYPES@@@Z@4JA DD 0c0H ; `get_local_float_value'::`1'::__LINE__Var
_DATA	ENDS
;	COMDAT ?__LINE__Var@?0??set_client_float_value@@YGXPAUENTITY@@W4FLOAT_TYPES@@M@Z@4JA
_DATA	SEGMENT
?__LINE__Var@?0??set_client_float_value@@YGXPAUENTITY@@W4FLOAT_TYPES@@M@Z@4JA DD 0acH ; `set_client_float_value'::`1'::__LINE__Var
_DATA	ENDS
;	COMDAT ??_C@_0CC@BNNNEGEG@assert_client_server_remote_fn?5@
CONST	SEGMENT
??_C@_0CC@BNNNEGEG@assert_client_server_remote_fn?5@ DB 'assert_client_se'
	DB	'rver_remote_fn ()', 00H			; `string'
CONST	ENDS
;	COMDAT ??_C@_0CB@CFOCLFOK@assert_client_server_local_fn?5?$CI@
CONST	SEGMENT
??_C@_0CB@CFOCLFOK@assert_client_server_local_fn?5?$CI@ DB 'assert_client'
	DB	'_server_local_fn ()', 00H			; `string'
CONST	ENDS
;	COMDAT ?__LINE__Var@?0??set_server_float_value@@YGXPAUENTITY@@W4FLOAT_TYPES@@M@Z@4JA
_DATA	SEGMENT
?__LINE__Var@?0??set_server_float_value@@YGXPAUENTITY@@W4FLOAT_TYPES@@M@Z@4JA DD 09dH ; `set_server_float_value'::`1'::__LINE__Var
_DATA	ENDS
;	COMDAT ??_C@_0FG@NAKMOJOB@c?3?2users?2nhv90?2projects?2eech?2ap@
CONST	SEGMENT
??_C@_0FG@NAKMOJOB@c?3?2users?2nhv90?2projects?2eech?2ap@ DB 'c:\users\nh'
	DB	'v90\projects\eech\aphavoc\source\entity\special\effect\sounde'
	DB	'ff\se_float.c', 00H				; `string'
CONST	ENDS
;	COMDAT ?__LINE__Var@?0??set_local_float_value@@YGXPAUENTITY@@W4FLOAT_TYPES@@M@Z@4JA
_DATA	SEGMENT
?__LINE__Var@?0??set_local_float_value@@YGXPAUENTITY@@W4FLOAT_TYPES@@M@Z@4JA DD 050H ; `set_local_float_value'::`1'::__LINE__Var
_DATA	ENDS
; Function compile flags: /Odtp /ZI
; File c:\users\nhv90\projects\eech\aphavoc\source\entity\special\effect\soundeff\se_float.c
;	COMDAT ?get_local_float_value@@YGMPAUENTITY@@W4FLOAT_TYPES@@@Z
_TEXT	SEGMENT
tv154 = -76						; size = 4
tv65 = -76						; size = 4
_value$ = -8						; size = 4
_raw$ = -4						; size = 4
_en$ = 8						; size = 4
_type$ = 12						; size = 4
?get_local_float_value@@YGMPAUENTITY@@W4FLOAT_TYPES@@@Z PROC ; get_local_float_value, COMDAT

; 192  : {

  00000	55		 push	 ebp
  00001	8b ec		 mov	 ebp, esp
  00003	83 ec 4c	 sub	 esp, 76			; 0000004cH
  00006	53		 push	 ebx
  00007	56		 push	 esi
  00008	57		 push	 edi

; 193  : 	sound_effect
; 194  : 		*raw;
; 195  : 
; 196  : 	float
; 197  : 		value;
; 198  : 
; 199  : 	raw = (sound_effect *) get_local_entity_data (en);

  00009	8b 45 08	 mov	 eax, DWORD PTR _en$[ebp]
  0000c	8b 48 04	 mov	 ecx, DWORD PTR [eax+4]
  0000f	89 4d fc	 mov	 DWORD PTR _raw$[ebp], ecx

; 200  : 
; 201  : 	switch (type)

  00012	8b 45 0c	 mov	 eax, DWORD PTR _type$[ebp]
  00015	89 45 b4	 mov	 DWORD PTR tv65[ebp], eax
  00018	8b 4d b4	 mov	 ecx, DWORD PTR tv65[ebp]
  0001b	83 e9 09	 sub	 ecx, 9
  0001e	89 4d b4	 mov	 DWORD PTR tv65[ebp], ecx
  00021	81 7d b4 9d 00
	00 00		 cmp	 DWORD PTR tv65[ebp], 157 ; 0000009dH
  00028	0f 87 2b 01 00
	00		 ja	 $LN14@get_local_
  0002e	8b 55 b4	 mov	 edx, DWORD PTR tv65[ebp]
  00031	0f b6 82 00 00
	00 00		 movzx	 eax, BYTE PTR $LN18@get_local_[edx]
  00038	ff 24 85 00 00
	00 00		 jmp	 DWORD PTR $LN19@get_local_[eax*4]
$LN4@get_local_:

; 202  : 	{
; 203  : 		////////////////////////////////////////
; 204  : 		case FLOAT_TYPE_AMPLIFICATION:
; 205  : 		////////////////////////////////////////
; 206  : 		{
; 207  : 			value = raw->amplification;

  0003f	8b 45 fc	 mov	 eax, DWORD PTR _raw$[ebp]
  00042	f3 0f 10 40 2c	 movss	 xmm0, DWORD PTR [eax+44]
  00047	f3 0f 11 45 f8	 movss	 DWORD PTR _value$[ebp], xmm0

; 208  : 
; 209  : 			break;

  0004c	e9 7a 01 00 00	 jmp	 $LN2@get_local_
$LN5@get_local_:

; 210  : 		}
; 211  : 		////////////////////////////////////////
; 212  : 		case FLOAT_TYPE_SOUNDPITCH:
; 213  : 		////////////////////////////////////////
; 214  : 		{
; 215  : 			value = raw->pitch;

  00051	8b 45 fc	 mov	 eax, DWORD PTR _raw$[ebp]
  00054	f3 0f 10 40 30	 movss	 xmm0, DWORD PTR [eax+48]
  00059	f3 0f 11 45 f8	 movss	 DWORD PTR _value$[ebp], xmm0

; 216  : 
; 217  : 			break;

  0005e	e9 68 01 00 00	 jmp	 $LN2@get_local_
$LN6@get_local_:

; 218  : 		}
; 219  : 		////////////////////////////////////////
; 220  : 		case FLOAT_TYPE_EFFECT_LIFETIME:
; 221  : 		////////////////////////////////////////
; 222  : 		{
; 223  : 			value = raw->effect_lifetime;

  00063	8b 45 fc	 mov	 eax, DWORD PTR _raw$[ebp]
  00066	f3 0f 10 40 34	 movss	 xmm0, DWORD PTR [eax+52]
  0006b	f3 0f 11 45 f8	 movss	 DWORD PTR _value$[ebp], xmm0

; 224  : 
; 225  : 			break;

  00070	e9 56 01 00 00	 jmp	 $LN2@get_local_
$LN7@get_local_:

; 226  : 		}
; 227  : 		////////////////////////////////////////
; 228  : 		case FLOAT_TYPE_VALID_EFFECT_LIFETIME:
; 229  : 		////////////////////////////////////////
; 230  : 		{
; 231  : 			value = raw->valid_effect_lifetime;

  00075	8b 45 fc	 mov	 eax, DWORD PTR _raw$[ebp]
  00078	f3 0f 10 40 38	 movss	 xmm0, DWORD PTR [eax+56]
  0007d	f3 0f 11 45 f8	 movss	 DWORD PTR _value$[ebp], xmm0

; 232  : 
; 233  : 			break;

  00082	e9 44 01 00 00	 jmp	 $LN2@get_local_
$LN8@get_local_:

; 234  : 		}
; 235  : 		////////////////////////////////////////
; 236  : 		case FLOAT_TYPE_MINIMUM_SOUND_RANGE:
; 237  : 		////////////////////////////////////////
; 238  : 		{
; 239  : 			// possibly store in the entity ??
; 240  : 
; 241  : 			ASSERT (raw->effect_index);

  00087	8b 45 fc	 mov	 eax, DWORD PTR _raw$[ebp]
  0008a	83 78 28 00	 cmp	 DWORD PTR [eax+40], 0
  0008e	75 18		 jne	 SHORT $LN9@get_local_
  00090	a1 00 00 00 00	 mov	 eax, DWORD PTR ?__LINE__Var@?0??get_local_float_value@@YGMPAUENTITY@@W4FLOAT_TYPES@@@Z@4JA
  00095	83 c0 31	 add	 eax, 49			; 00000031H
  00098	50		 push	 eax
  00099	68 00 00 00 00	 push	 OFFSET ??_C@_0FG@NAKMOJOB@c?3?2users?2nhv90?2projects?2eech?2ap@
  0009e	68 00 00 00 00	 push	 OFFSET ??_C@_0BC@EBDAMAJO@raw?9?$DOeffect_index@
  000a3	e8 00 00 00 00	 call	 ?process_assert@@YGXPBD0H@Z ; process_assert
$LN9@get_local_:

; 242  : 
; 243  : 			value = application_sound_effects [raw->effect_index [0]].minimum_sound_range;

  000a8	b8 04 00 00 00	 mov	 eax, 4
  000ad	6b c8 00	 imul	 ecx, eax, 0
  000b0	8b 55 fc	 mov	 edx, DWORD PTR _raw$[ebp]
  000b3	8b 42 28	 mov	 eax, DWORD PTR [edx+40]
  000b6	8b 0c 08	 mov	 ecx, DWORD PTR [eax+ecx]
  000b9	c1 e1 05	 shl	 ecx, 5
  000bc	f3 0f 10 81 14
	00 00 00	 movss	 xmm0, DWORD PTR ?application_sound_effects@@3PAUSOUND_EFFECT_INFORMATION@@A[ecx+20]
  000c4	f3 0f 11 45 f8	 movss	 DWORD PTR _value$[ebp], xmm0

; 244  : 
; 245  : 			break;

  000c9	e9 fd 00 00 00	 jmp	 $LN2@get_local_
$LN10@get_local_:

; 246  : 		}
; 247  : 		////////////////////////////////////////
; 248  : 		case FLOAT_TYPE_REFERENCE_SOUND_RANGE:
; 249  : 		////////////////////////////////////////
; 250  : 		{
; 251  : 			// possibly store in the entity ??
; 252  : 
; 253  : 			ASSERT (raw->effect_index);

  000ce	8b 45 fc	 mov	 eax, DWORD PTR _raw$[ebp]
  000d1	83 78 28 00	 cmp	 DWORD PTR [eax+40], 0
  000d5	75 18		 jne	 SHORT $LN11@get_local_
  000d7	a1 00 00 00 00	 mov	 eax, DWORD PTR ?__LINE__Var@?0??get_local_float_value@@YGMPAUENTITY@@W4FLOAT_TYPES@@@Z@4JA
  000dc	83 c0 3d	 add	 eax, 61			; 0000003dH
  000df	50		 push	 eax
  000e0	68 00 00 00 00	 push	 OFFSET ??_C@_0FG@NAKMOJOB@c?3?2users?2nhv90?2projects?2eech?2ap@
  000e5	68 00 00 00 00	 push	 OFFSET ??_C@_0BC@EBDAMAJO@raw?9?$DOeffect_index@
  000ea	e8 00 00 00 00	 call	 ?process_assert@@YGXPBD0H@Z ; process_assert
$LN11@get_local_:

; 254  : 
; 255  : 			value = application_sound_effects [raw->effect_index [0]].reference_sound_range;

  000ef	b8 04 00 00 00	 mov	 eax, 4
  000f4	6b c8 00	 imul	 ecx, eax, 0
  000f7	8b 55 fc	 mov	 edx, DWORD PTR _raw$[ebp]
  000fa	8b 42 28	 mov	 eax, DWORD PTR [edx+40]
  000fd	8b 0c 08	 mov	 ecx, DWORD PTR [eax+ecx]
  00100	c1 e1 05	 shl	 ecx, 5
  00103	f3 0f 10 81 18
	00 00 00	 movss	 xmm0, DWORD PTR ?application_sound_effects@@3PAUSOUND_EFFECT_INFORMATION@@A[ecx+24]
  0010b	f3 0f 11 45 f8	 movss	 DWORD PTR _value$[ebp], xmm0

; 256  : 
; 257  : 			break;

  00110	e9 b6 00 00 00	 jmp	 $LN2@get_local_
$LN12@get_local_:

; 258  : 		}
; 259  : 		////////////////////////////////////////
; 260  : 		case FLOAT_TYPE_MAXIMUM_SOUND_RANGE:
; 261  : 		////////////////////////////////////////
; 262  : 		{
; 263  : 			// possibly store in the entity ??
; 264  : 
; 265  : 			ASSERT (raw->effect_index);

  00115	8b 45 fc	 mov	 eax, DWORD PTR _raw$[ebp]
  00118	83 78 28 00	 cmp	 DWORD PTR [eax+40], 0
  0011c	75 18		 jne	 SHORT $LN13@get_local_
  0011e	a1 00 00 00 00	 mov	 eax, DWORD PTR ?__LINE__Var@?0??get_local_float_value@@YGMPAUENTITY@@W4FLOAT_TYPES@@@Z@4JA
  00123	83 c0 49	 add	 eax, 73			; 00000049H
  00126	50		 push	 eax
  00127	68 00 00 00 00	 push	 OFFSET ??_C@_0FG@NAKMOJOB@c?3?2users?2nhv90?2projects?2eech?2ap@
  0012c	68 00 00 00 00	 push	 OFFSET ??_C@_0BC@EBDAMAJO@raw?9?$DOeffect_index@
  00131	e8 00 00 00 00	 call	 ?process_assert@@YGXPBD0H@Z ; process_assert
$LN13@get_local_:

; 266  : 
; 267  : 			value = application_sound_effects [raw->effect_index [0]].maximum_sound_range;

  00136	b8 04 00 00 00	 mov	 eax, 4
  0013b	6b c8 00	 imul	 ecx, eax, 0
  0013e	8b 55 fc	 mov	 edx, DWORD PTR _raw$[ebp]
  00141	8b 42 28	 mov	 eax, DWORD PTR [edx+40]
  00144	8b 0c 08	 mov	 ecx, DWORD PTR [eax+ecx]
  00147	c1 e1 05	 shl	 ecx, 5
  0014a	f3 0f 10 81 1c
	00 00 00	 movss	 xmm0, DWORD PTR ?application_sound_effects@@3PAUSOUND_EFFECT_INFORMATION@@A[ecx+28]
  00152	f3 0f 11 45 f8	 movss	 DWORD PTR _value$[ebp], xmm0

; 268  : 
; 269  : 			break;

  00157	eb 72		 jmp	 SHORT $LN2@get_local_
$LN14@get_local_:

; 270  : 		}
; 271  : 		////////////////////////////////////////
; 272  : 		default:
; 273  : 		////////////////////////////////////////
; 274  : 		{
; 275  : 			debug_fatal_invalid_float_type (en, type);

  00159	83 7d 08 00	 cmp	 DWORD PTR _en$[ebp], 0
  0015d	74 0a		 je	 SHORT $LN16@get_local_
  0015f	8b 45 08	 mov	 eax, DWORD PTR _en$[ebp]
  00162	8b 08		 mov	 ecx, DWORD PTR [eax]
  00164	89 4d b4	 mov	 DWORD PTR tv154[ebp], ecx
  00167	eb 21		 jmp	 SHORT $LN17@get_local_
$LN16@get_local_:
  00169	8b 15 00 00 00
	00		 mov	 edx, DWORD PTR ?__LINE__Var@?0??get_local_float_value@@YGMPAUENTITY@@W4FLOAT_TYPES@@@Z@4JA
  0016f	83 c2 53	 add	 edx, 83			; 00000053H
  00172	52		 push	 edx
  00173	68 00 00 00 00	 push	 OFFSET ??_C@_0FG@NAKMOJOB@c?3?2users?2nhv90?2projects?2eech?2ap@
  00178	a1 00 00 00 00	 mov	 eax, DWORD PTR ?null_entity_pointer_message@@3PBDB ; null_entity_pointer_message
  0017d	50		 push	 eax
  0017e	e8 00 00 00 00	 call	 ?process_assert@@YGXPBD0H@Z ; process_assert
  00183	c7 45 b4 00 00
	00 00		 mov	 DWORD PTR tv154[ebp], 0
$LN17@get_local_:
  0018a	8b 0d 00 00 00
	00		 mov	 ecx, DWORD PTR ?__LINE__Var@?0??get_local_float_value@@YGMPAUENTITY@@W4FLOAT_TYPES@@@Z@4JA
  00190	83 c1 53	 add	 ecx, 83			; 00000053H
  00193	51		 push	 ecx
  00194	68 00 00 00 00	 push	 OFFSET ??_C@_0FG@NAKMOJOB@c?3?2users?2nhv90?2projects?2eech?2ap@
  00199	6b 55 0c 18	 imul	 edx, DWORD PTR _type$[ebp], 24
  0019d	8b 82 00 00 00
	00		 mov	 eax, DWORD PTR ?float_type_database@@3PAUFLOAT_TYPE_DATA@@A[edx]
  001a3	50		 push	 eax
  001a4	8b 4d 08	 mov	 ecx, DWORD PTR _en$[ebp]
  001a7	2b 0d 00 00 00
	00		 sub	 ecx, DWORD PTR ?entities@@3PAUENTITY@@A ; entities
  001ad	c1 f9 04	 sar	 ecx, 4
  001b0	51		 push	 ecx
  001b1	6b 55 b4 0c	 imul	 edx, DWORD PTR tv154[ebp], 12
  001b5	8b 82 00 00 00
	00		 mov	 eax, DWORD PTR ?entity_type_database@@3PAUENTITY_TYPE_DATA@@A[edx]
  001bb	50		 push	 eax
  001bc	8b 0d 00 00 00
	00		 mov	 ecx, DWORD PTR ?debug_fatal_invalid_float_type_message@@3PBDB ; debug_fatal_invalid_float_type_message
  001c2	51		 push	 ecx
  001c3	e8 00 00 00 00	 call	 ?debug_fatal@@YAXPBDZZ	; debug_fatal
  001c8	83 c4 18	 add	 esp, 24			; 00000018H
$LN2@get_local_:

; 276  : 
; 277  : 			break;
; 278  : 		}
; 279  : 	}
; 280  : 
; 281  : 	return (value);

  001cb	d9 45 f8	 fld	 DWORD PTR _value$[ebp]

; 282  : }

  001ce	5f		 pop	 edi
  001cf	5e		 pop	 esi
  001d0	5b		 pop	 ebx
  001d1	8b e5		 mov	 esp, ebp
  001d3	5d		 pop	 ebp
  001d4	c2 08 00	 ret	 8
  001d7	90		 npad	 1
$LN19@get_local_:
  001d8	00 00 00 00	 DD	 $LN4@get_local_
  001dc	00 00 00 00	 DD	 $LN5@get_local_
  001e0	00 00 00 00	 DD	 $LN6@get_local_
  001e4	00 00 00 00	 DD	 $LN7@get_local_
  001e8	00 00 00 00	 DD	 $LN8@get_local_
  001ec	00 00 00 00	 DD	 $LN10@get_local_
  001f0	00 00 00 00	 DD	 $LN12@get_local_
  001f4	00 00 00 00	 DD	 $LN14@get_local_
$LN18@get_local_:
  001f8	00		 DB	 0
  001f9	01		 DB	 1
  001fa	07		 DB	 7
  001fb	07		 DB	 7
  001fc	07		 DB	 7
  001fd	07		 DB	 7
  001fe	07		 DB	 7
  001ff	07		 DB	 7
  00200	07		 DB	 7
  00201	07		 DB	 7
  00202	07		 DB	 7
  00203	07		 DB	 7
  00204	07		 DB	 7
  00205	07		 DB	 7
  00206	07		 DB	 7
  00207	07		 DB	 7
  00208	07		 DB	 7
  00209	07		 DB	 7
  0020a	07		 DB	 7
  0020b	07		 DB	 7
  0020c	07		 DB	 7
  0020d	07		 DB	 7
  0020e	07		 DB	 7
  0020f	02		 DB	 2
  00210	07		 DB	 7
  00211	07		 DB	 7
  00212	07		 DB	 7
  00213	07		 DB	 7
  00214	07		 DB	 7
  00215	07		 DB	 7
  00216	07		 DB	 7
  00217	07		 DB	 7
  00218	07		 DB	 7
  00219	07		 DB	 7
  0021a	07		 DB	 7
  0021b	07		 DB	 7
  0021c	07		 DB	 7
  0021d	07		 DB	 7
  0021e	07		 DB	 7
  0021f	07		 DB	 7
  00220	07		 DB	 7
  00221	07		 DB	 7
  00222	07		 DB	 7
  00223	07		 DB	 7
  00224	07		 DB	 7
  00225	07		 DB	 7
  00226	07		 DB	 7
  00227	07		 DB	 7
  00228	07		 DB	 7
  00229	07		 DB	 7
  0022a	07		 DB	 7
  0022b	07		 DB	 7
  0022c	07		 DB	 7
  0022d	07		 DB	 7
  0022e	07		 DB	 7
  0022f	07		 DB	 7
  00230	07		 DB	 7
  00231	07		 DB	 7
  00232	07		 DB	 7
  00233	07		 DB	 7
  00234	07		 DB	 7
  00235	07		 DB	 7
  00236	07		 DB	 7
  00237	07		 DB	 7
  00238	07		 DB	 7
  00239	07		 DB	 7
  0023a	07		 DB	 7
  0023b	07		 DB	 7
  0023c	07		 DB	 7
  0023d	07		 DB	 7
  0023e	07		 DB	 7
  0023f	07		 DB	 7
  00240	07		 DB	 7
  00241	07		 DB	 7
  00242	07		 DB	 7
  00243	07		 DB	 7
  00244	07		 DB	 7
  00245	07		 DB	 7
  00246	07		 DB	 7
  00247	07		 DB	 7
  00248	07		 DB	 7
  00249	07		 DB	 7
  0024a	07		 DB	 7
  0024b	07		 DB	 7
  0024c	07		 DB	 7
  0024d	07		 DB	 7
  0024e	07		 DB	 7
  0024f	07		 DB	 7
  00250	07		 DB	 7
  00251	07		 DB	 7
  00252	07		 DB	 7
  00253	07		 DB	 7
  00254	07		 DB	 7
  00255	07		 DB	 7
  00256	07		 DB	 7
  00257	07		 DB	 7
  00258	07		 DB	 7
  00259	07		 DB	 7
  0025a	07		 DB	 7
  0025b	07		 DB	 7
  0025c	07		 DB	 7
  0025d	07		 DB	 7
  0025e	07		 DB	 7
  0025f	07		 DB	 7
  00260	07		 DB	 7
  00261	07		 DB	 7
  00262	07		 DB	 7
  00263	07		 DB	 7
  00264	07		 DB	 7
  00265	07		 DB	 7
  00266	07		 DB	 7
  00267	07		 DB	 7
  00268	07		 DB	 7
  00269	07		 DB	 7
  0026a	07		 DB	 7
  0026b	07		 DB	 7
  0026c	07		 DB	 7
  0026d	07		 DB	 7
  0026e	07		 DB	 7
  0026f	07		 DB	 7
  00270	07		 DB	 7
  00271	07		 DB	 7
  00272	07		 DB	 7
  00273	07		 DB	 7
  00274	07		 DB	 7
  00275	07		 DB	 7
  00276	07		 DB	 7
  00277	07		 DB	 7
  00278	07		 DB	 7
  00279	07		 DB	 7
  0027a	07		 DB	 7
  0027b	07		 DB	 7
  0027c	07		 DB	 7
  0027d	07		 DB	 7
  0027e	07		 DB	 7
  0027f	07		 DB	 7
  00280	07		 DB	 7
  00281	03		 DB	 3
  00282	07		 DB	 7
  00283	07		 DB	 7
  00284	07		 DB	 7
  00285	07		 DB	 7
  00286	07		 DB	 7
  00287	07		 DB	 7
  00288	07		 DB	 7
  00289	07		 DB	 7
  0028a	07		 DB	 7
  0028b	07		 DB	 7
  0028c	07		 DB	 7
  0028d	07		 DB	 7
  0028e	07		 DB	 7
  0028f	07		 DB	 7
  00290	07		 DB	 7
  00291	07		 DB	 7
  00292	07		 DB	 7
  00293	04		 DB	 4
  00294	05		 DB	 5
  00295	06		 DB	 6
?get_local_float_value@@YGMPAUENTITY@@W4FLOAT_TYPES@@@Z ENDP ; get_local_float_value
_TEXT	ENDS
; Function compile flags: /Odtp /ZI
; File c:\users\nhv90\projects\eech\aphavoc\source\entity\special\effect\soundeff\se_float.c
;	COMDAT ?set_client_float_value@@YGXPAUENTITY@@W4FLOAT_TYPES@@M@Z
_TEXT	SEGMENT
_en$ = 8						; size = 4
_type$ = 12						; size = 4
_value$ = 16						; size = 4
?set_client_float_value@@YGXPAUENTITY@@W4FLOAT_TYPES@@M@Z PROC ; set_client_float_value, COMDAT

; 172  : {

  00000	55		 push	 ebp
  00001	8b ec		 mov	 ebp, esp
  00003	83 ec 40	 sub	 esp, 64			; 00000040H
  00006	53		 push	 ebx
  00007	56		 push	 esi
  00008	57		 push	 edi

; 173  : 	if (get_comms_data_flow () == COMMS_DATA_FLOW_TX)

  00009	83 3d 00 00 00
	00 00		 cmp	 DWORD PTR ?system_comms_data_flow@@3W4COMMS_DATA_FLOW_TYPES@@A, 0 ; system_comms_data_flow
  00010	75 3b		 jne	 SHORT $LN2@set_client

; 174  : 	{
; 175  : 		validate_client_server_remote_fn ();

  00012	e8 00 00 00 00	 call	 ?assert_client_server_remote_fn@@YGHXZ ; assert_client_server_remote_fn
  00017	85 c0		 test	 eax, eax
  00019	75 18		 jne	 SHORT $LN4@set_client
  0001b	a1 00 00 00 00	 mov	 eax, DWORD PTR ?__LINE__Var@?0??set_client_float_value@@YGXPAUENTITY@@W4FLOAT_TYPES@@M@Z@4JA
  00020	83 c0 03	 add	 eax, 3
  00023	50		 push	 eax
  00024	68 00 00 00 00	 push	 OFFSET ??_C@_0FG@NAKMOJOB@c?3?2users?2nhv90?2projects?2eech?2ap@
  00029	68 00 00 00 00	 push	 OFFSET ??_C@_0CC@BNNNEGEG@assert_client_server_remote_fn?5@
  0002e	e8 00 00 00 00	 call	 ?process_assert@@YGXPBD0H@Z ; process_assert
$LN4@set_client:

; 176  : 
; 177  : 		set_remote_float_value (en, type, value);

  00033	51		 push	 ecx
  00034	f3 0f 10 45 10	 movss	 xmm0, DWORD PTR _value$[ebp]
  00039	f3 0f 11 04 24	 movss	 DWORD PTR [esp], xmm0
  0003e	8b 45 0c	 mov	 eax, DWORD PTR _type$[ebp]
  00041	50		 push	 eax
  00042	8b 4d 08	 mov	 ecx, DWORD PTR _en$[ebp]
  00045	51		 push	 ecx
  00046	e8 00 00 00 00	 call	 ?set_remote_float_value@@YGXPAUENTITY@@W4FLOAT_TYPES@@M@Z ; set_remote_float_value

; 178  : 	}
; 179  : 	else

  0004b	eb 39		 jmp	 SHORT $LN3@set_client
$LN2@set_client:

; 180  : 	{
; 181  : 		validate_client_server_local_fn ();

  0004d	e8 00 00 00 00	 call	 ?assert_client_server_local_fn@@YGHXZ ; assert_client_server_local_fn
  00052	85 c0		 test	 eax, eax
  00054	75 18		 jne	 SHORT $LN5@set_client
  00056	a1 00 00 00 00	 mov	 eax, DWORD PTR ?__LINE__Var@?0??set_client_float_value@@YGXPAUENTITY@@W4FLOAT_TYPES@@M@Z@4JA
  0005b	83 c0 09	 add	 eax, 9
  0005e	50		 push	 eax
  0005f	68 00 00 00 00	 push	 OFFSET ??_C@_0FG@NAKMOJOB@c?3?2users?2nhv90?2projects?2eech?2ap@
  00064	68 00 00 00 00	 push	 OFFSET ??_C@_0CB@CFOCLFOK@assert_client_server_local_fn?5?$CI@
  00069	e8 00 00 00 00	 call	 ?process_assert@@YGXPBD0H@Z ; process_assert
$LN5@set_client:

; 182  : 
; 183  : 		set_local_float_value (en, type, value);

  0006e	51		 push	 ecx
  0006f	f3 0f 10 45 10	 movss	 xmm0, DWORD PTR _value$[ebp]
  00074	f3 0f 11 04 24	 movss	 DWORD PTR [esp], xmm0
  00079	8b 45 0c	 mov	 eax, DWORD PTR _type$[ebp]
  0007c	50		 push	 eax
  0007d	8b 4d 08	 mov	 ecx, DWORD PTR _en$[ebp]
  00080	51		 push	 ecx
  00081	e8 00 00 00 00	 call	 ?set_local_float_value@@YGXPAUENTITY@@W4FLOAT_TYPES@@M@Z ; set_local_float_value
$LN3@set_client:

; 184  : 	}
; 185  : }

  00086	5f		 pop	 edi
  00087	5e		 pop	 esi
  00088	5b		 pop	 ebx
  00089	8b e5		 mov	 esp, ebp
  0008b	5d		 pop	 ebp
  0008c	c2 0c 00	 ret	 12			; 0000000cH
?set_client_float_value@@YGXPAUENTITY@@W4FLOAT_TYPES@@M@Z ENDP ; set_client_float_value
_TEXT	ENDS
; Function compile flags: /Odtp /ZI
; File c:\users\nhv90\projects\eech\aphavoc\source\entity\special\effect\soundeff\se_float.c
;	COMDAT ?set_server_float_value@@YGXPAUENTITY@@W4FLOAT_TYPES@@M@Z
_TEXT	SEGMENT
_en$ = 8						; size = 4
_type$ = 12						; size = 4
_value$ = 16						; size = 4
?set_server_float_value@@YGXPAUENTITY@@W4FLOAT_TYPES@@M@Z PROC ; set_server_float_value, COMDAT

; 157  : {

  00000	55		 push	 ebp
  00001	8b ec		 mov	 ebp, esp
  00003	83 ec 40	 sub	 esp, 64			; 00000040H
  00006	53		 push	 ebx
  00007	56		 push	 esi
  00008	57		 push	 edi

; 158  : 	validate_client_server_local_fn ();

  00009	e8 00 00 00 00	 call	 ?assert_client_server_local_fn@@YGHXZ ; assert_client_server_local_fn
  0000e	85 c0		 test	 eax, eax
  00010	75 18		 jne	 SHORT $LN2@set_server
  00012	a1 00 00 00 00	 mov	 eax, DWORD PTR ?__LINE__Var@?0??set_server_float_value@@YGXPAUENTITY@@W4FLOAT_TYPES@@M@Z@4JA
  00017	83 c0 01	 add	 eax, 1
  0001a	50		 push	 eax
  0001b	68 00 00 00 00	 push	 OFFSET ??_C@_0FG@NAKMOJOB@c?3?2users?2nhv90?2projects?2eech?2ap@
  00020	68 00 00 00 00	 push	 OFFSET ??_C@_0CB@CFOCLFOK@assert_client_server_local_fn?5?$CI@
  00025	e8 00 00 00 00	 call	 ?process_assert@@YGXPBD0H@Z ; process_assert
$LN2@set_server:

; 159  : 
; 160  : 	set_local_float_value (en, type, value);

  0002a	51		 push	 ecx
  0002b	f3 0f 10 45 10	 movss	 xmm0, DWORD PTR _value$[ebp]
  00030	f3 0f 11 04 24	 movss	 DWORD PTR [esp], xmm0
  00035	8b 45 0c	 mov	 eax, DWORD PTR _type$[ebp]
  00038	50		 push	 eax
  00039	8b 4d 08	 mov	 ecx, DWORD PTR _en$[ebp]
  0003c	51		 push	 ecx
  0003d	e8 00 00 00 00	 call	 ?set_local_float_value@@YGXPAUENTITY@@W4FLOAT_TYPES@@M@Z ; set_local_float_value

; 161  : 
; 162  : 	validate_client_server_remote_fn ();

  00042	e8 00 00 00 00	 call	 ?assert_client_server_remote_fn@@YGHXZ ; assert_client_server_remote_fn
  00047	85 c0		 test	 eax, eax
  00049	75 18		 jne	 SHORT $LN3@set_server
  0004b	a1 00 00 00 00	 mov	 eax, DWORD PTR ?__LINE__Var@?0??set_server_float_value@@YGXPAUENTITY@@W4FLOAT_TYPES@@M@Z@4JA
  00050	83 c0 05	 add	 eax, 5
  00053	50		 push	 eax
  00054	68 00 00 00 00	 push	 OFFSET ??_C@_0FG@NAKMOJOB@c?3?2users?2nhv90?2projects?2eech?2ap@
  00059	68 00 00 00 00	 push	 OFFSET ??_C@_0CC@BNNNEGEG@assert_client_server_remote_fn?5@
  0005e	e8 00 00 00 00	 call	 ?process_assert@@YGXPBD0H@Z ; process_assert
$LN3@set_server:

; 163  : 
; 164  : 	set_remote_float_value (en, type, value);

  00063	51		 push	 ecx
  00064	f3 0f 10 45 10	 movss	 xmm0, DWORD PTR _value$[ebp]
  00069	f3 0f 11 04 24	 movss	 DWORD PTR [esp], xmm0
  0006e	8b 45 0c	 mov	 eax, DWORD PTR _type$[ebp]
  00071	50		 push	 eax
  00072	8b 4d 08	 mov	 ecx, DWORD PTR _en$[ebp]
  00075	51		 push	 ecx
  00076	e8 00 00 00 00	 call	 ?set_remote_float_value@@YGXPAUENTITY@@W4FLOAT_TYPES@@M@Z ; set_remote_float_value

; 165  : }

  0007b	5f		 pop	 edi
  0007c	5e		 pop	 esi
  0007d	5b		 pop	 ebx
  0007e	8b e5		 mov	 esp, ebp
  00080	5d		 pop	 ebp
  00081	c2 0c 00	 ret	 12			; 0000000cH
?set_server_float_value@@YGXPAUENTITY@@W4FLOAT_TYPES@@M@Z ENDP ; set_server_float_value
_TEXT	ENDS
; Function compile flags: /Odtp /ZI
; File c:\users\nhv90\projects\eech\aphavoc\source\entity\special\effect\soundeff\se_float.c
;	COMDAT ?set_remote_float_value@@YGXPAUENTITY@@W4FLOAT_TYPES@@M@Z
_TEXT	SEGMENT
_en$ = 8						; size = 4
_type$ = 12						; size = 4
_value$ = 16						; size = 4
?set_remote_float_value@@YGXPAUENTITY@@W4FLOAT_TYPES@@M@Z PROC ; set_remote_float_value, COMDAT

; 142  : {

  00000	55		 push	 ebp
  00001	8b ec		 mov	 ebp, esp
  00003	83 ec 40	 sub	 esp, 64			; 00000040H
  00006	53		 push	 ebx
  00007	56		 push	 esi
  00008	57		 push	 edi

; 143  : 	#if DEBUG_MODULE
; 144  : 
; 145  : 	debug_log_entity_args (ENTITY_DEBUG_REMOTE, ENTITY_DEBUG_FLOAT_VALUE, en, type, value);
; 146  : 
; 147  : 	#endif
; 148  : 
; 149  : 	transmit_entity_comms_message (ENTITY_COMMS_FLOAT_VALUE, en, type, value);

  00009	f3 0f 5a 45 10	 cvtss2sd xmm0, DWORD PTR _value$[ebp]
  0000e	83 ec 08	 sub	 esp, 8
  00011	f2 0f 11 04 24	 movsd	 QWORD PTR [esp], xmm0
  00016	8b 45 0c	 mov	 eax, DWORD PTR _type$[ebp]
  00019	50		 push	 eax
  0001a	8b 4d 08	 mov	 ecx, DWORD PTR _en$[ebp]
  0001d	51		 push	 ecx
  0001e	6a 16		 push	 22			; 00000016H
  00020	e8 00 00 00 00	 call	 ?transmit_entity_comms_message@@YAXW4ENTITY_COMMS_MESSAGES@@PAUENTITY@@ZZ ; transmit_entity_comms_message
  00025	83 c4 14	 add	 esp, 20			; 00000014H

; 150  : }

  00028	5f		 pop	 edi
  00029	5e		 pop	 esi
  0002a	5b		 pop	 ebx
  0002b	8b e5		 mov	 esp, ebp
  0002d	5d		 pop	 ebp
  0002e	c2 0c 00	 ret	 12			; 0000000cH
?set_remote_float_value@@YGXPAUENTITY@@W4FLOAT_TYPES@@M@Z ENDP ; set_remote_float_value
_TEXT	ENDS
; Function compile flags: /Odtp /ZI
; File c:\users\nhv90\projects\eech\aphavoc\source\entity\special\effect\soundeff\se_float.c
;	COMDAT ?set_local_float_value@@YGXPAUENTITY@@W4FLOAT_TYPES@@M@Z
_TEXT	SEGMENT
tv86 = -72						; size = 4
tv65 = -72						; size = 4
_raw$ = -4						; size = 4
_en$ = 8						; size = 4
_type$ = 12						; size = 4
_value$ = 16						; size = 4
?set_local_float_value@@YGXPAUENTITY@@W4FLOAT_TYPES@@M@Z PROC ; set_local_float_value, COMDAT

; 80   : {

  00000	55		 push	 ebp
  00001	8b ec		 mov	 ebp, esp
  00003	83 ec 48	 sub	 esp, 72			; 00000048H
  00006	53		 push	 ebx
  00007	56		 push	 esi
  00008	57		 push	 edi

; 81   : 	sound_effect
; 82   : 		*raw;
; 83   : 
; 84   : 	#if DEBUG_MODULE
; 85   : 
; 86   : 	debug_log_entity_args (ENTITY_DEBUG_LOCAL, ENTITY_DEBUG_FLOAT_VALUE, en, type, value);
; 87   : 
; 88   : 	#endif
; 89   : 
; 90   : 	raw = (sound_effect *) get_local_entity_data (en);

  00009	8b 45 08	 mov	 eax, DWORD PTR _en$[ebp]
  0000c	8b 48 04	 mov	 ecx, DWORD PTR [eax+4]
  0000f	89 4d fc	 mov	 DWORD PTR _raw$[ebp], ecx

; 91   : 
; 92   : 	switch (type)

  00012	8b 45 0c	 mov	 eax, DWORD PTR _type$[ebp]
  00015	89 45 b8	 mov	 DWORD PTR tv65[ebp], eax
  00018	8b 4d b8	 mov	 ecx, DWORD PTR tv65[ebp]
  0001b	83 e9 09	 sub	 ecx, 9
  0001e	89 4d b8	 mov	 DWORD PTR tv65[ebp], ecx
  00021	81 7d b8 89 00
	00 00		 cmp	 DWORD PTR tv65[ebp], 137 ; 00000089H
  00028	77 56		 ja	 SHORT $LN8@set_local_
  0002a	8b 55 b8	 mov	 edx, DWORD PTR tv65[ebp]
  0002d	0f b6 82 00 00
	00 00		 movzx	 eax, BYTE PTR $LN12@set_local_[edx]
  00034	ff 24 85 00 00
	00 00		 jmp	 DWORD PTR $LN13@set_local_[eax*4]
$LN4@set_local_:

; 93   : 	{
; 94   : 		////////////////////////////////////////
; 95   : 		case FLOAT_TYPE_AMPLIFICATION:
; 96   : 		////////////////////////////////////////
; 97   : 		{
; 98   : 			raw->amplification = value;

  0003b	8b 45 fc	 mov	 eax, DWORD PTR _raw$[ebp]
  0003e	f3 0f 10 45 10	 movss	 xmm0, DWORD PTR _value$[ebp]
  00043	f3 0f 11 40 2c	 movss	 DWORD PTR [eax+44], xmm0

; 99   : 
; 100  : 			break;

  00048	e9 a5 00 00 00	 jmp	 $LN2@set_local_
$LN5@set_local_:

; 101  : 		}
; 102  : 		////////////////////////////////////////
; 103  : 		case FLOAT_TYPE_SOUNDPITCH:
; 104  : 		////////////////////////////////////////
; 105  : 		{
; 106  : 			raw->pitch = value;

  0004d	8b 45 fc	 mov	 eax, DWORD PTR _raw$[ebp]
  00050	f3 0f 10 45 10	 movss	 xmm0, DWORD PTR _value$[ebp]
  00055	f3 0f 11 40 30	 movss	 DWORD PTR [eax+48], xmm0

; 107  : 
; 108  : 			break;

  0005a	e9 93 00 00 00	 jmp	 $LN2@set_local_
$LN6@set_local_:

; 109  : 		}
; 110  : 		////////////////////////////////////////
; 111  : 		case FLOAT_TYPE_EFFECT_LIFETIME:
; 112  : 		////////////////////////////////////////
; 113  : 		{
; 114  : 			raw->effect_lifetime = value;

  0005f	8b 45 fc	 mov	 eax, DWORD PTR _raw$[ebp]
  00062	f3 0f 10 45 10	 movss	 xmm0, DWORD PTR _value$[ebp]
  00067	f3 0f 11 40 34	 movss	 DWORD PTR [eax+52], xmm0

; 115  : 
; 116  : 			break;

  0006c	e9 81 00 00 00	 jmp	 $LN2@set_local_
$LN7@set_local_:

; 117  : 		}
; 118  : 		////////////////////////////////////////
; 119  : 		case FLOAT_TYPE_VALID_EFFECT_LIFETIME:
; 120  : 		////////////////////////////////////////
; 121  : 		{
; 122  : 			raw->valid_effect_lifetime = value;

  00071	8b 45 fc	 mov	 eax, DWORD PTR _raw$[ebp]
  00074	f3 0f 10 45 10	 movss	 xmm0, DWORD PTR _value$[ebp]
  00079	f3 0f 11 40 38	 movss	 DWORD PTR [eax+56], xmm0

; 123  : 
; 124  : 			break;

  0007e	eb 72		 jmp	 SHORT $LN2@set_local_
$LN8@set_local_:

; 125  : 		}
; 126  : 		////////////////////////////////////////
; 127  : 		default:
; 128  : 		////////////////////////////////////////
; 129  : 		{
; 130  : 			debug_fatal_invalid_float_type (en, type);

  00080	83 7d 08 00	 cmp	 DWORD PTR _en$[ebp], 0
  00084	74 0a		 je	 SHORT $LN10@set_local_
  00086	8b 45 08	 mov	 eax, DWORD PTR _en$[ebp]
  00089	8b 08		 mov	 ecx, DWORD PTR [eax]
  0008b	89 4d b8	 mov	 DWORD PTR tv86[ebp], ecx
  0008e	eb 21		 jmp	 SHORT $LN11@set_local_
$LN10@set_local_:
  00090	8b 15 00 00 00
	00		 mov	 edx, DWORD PTR ?__LINE__Var@?0??set_local_float_value@@YGXPAUENTITY@@W4FLOAT_TYPES@@M@Z@4JA
  00096	83 c2 32	 add	 edx, 50			; 00000032H
  00099	52		 push	 edx
  0009a	68 00 00 00 00	 push	 OFFSET ??_C@_0FG@NAKMOJOB@c?3?2users?2nhv90?2projects?2eech?2ap@
  0009f	a1 00 00 00 00	 mov	 eax, DWORD PTR ?null_entity_pointer_message@@3PBDB ; null_entity_pointer_message
  000a4	50		 push	 eax
  000a5	e8 00 00 00 00	 call	 ?process_assert@@YGXPBD0H@Z ; process_assert
  000aa	c7 45 b8 00 00
	00 00		 mov	 DWORD PTR tv86[ebp], 0
$LN11@set_local_:
  000b1	8b 0d 00 00 00
	00		 mov	 ecx, DWORD PTR ?__LINE__Var@?0??set_local_float_value@@YGXPAUENTITY@@W4FLOAT_TYPES@@M@Z@4JA
  000b7	83 c1 32	 add	 ecx, 50			; 00000032H
  000ba	51		 push	 ecx
  000bb	68 00 00 00 00	 push	 OFFSET ??_C@_0FG@NAKMOJOB@c?3?2users?2nhv90?2projects?2eech?2ap@
  000c0	6b 55 0c 18	 imul	 edx, DWORD PTR _type$[ebp], 24
  000c4	8b 82 00 00 00
	00		 mov	 eax, DWORD PTR ?float_type_database@@3PAUFLOAT_TYPE_DATA@@A[edx]
  000ca	50		 push	 eax
  000cb	8b 4d 08	 mov	 ecx, DWORD PTR _en$[ebp]
  000ce	2b 0d 00 00 00
	00		 sub	 ecx, DWORD PTR ?entities@@3PAUENTITY@@A ; entities
  000d4	c1 f9 04	 sar	 ecx, 4
  000d7	51		 push	 ecx
  000d8	6b 55 b8 0c	 imul	 edx, DWORD PTR tv86[ebp], 12
  000dc	8b 82 00 00 00
	00		 mov	 eax, DWORD PTR ?entity_type_database@@3PAUENTITY_TYPE_DATA@@A[edx]
  000e2	50		 push	 eax
  000e3	8b 0d 00 00 00
	00		 mov	 ecx, DWORD PTR ?debug_fatal_invalid_float_type_message@@3PBDB ; debug_fatal_invalid_float_type_message
  000e9	51		 push	 ecx
  000ea	e8 00 00 00 00	 call	 ?debug_fatal@@YAXPBDZZ	; debug_fatal
  000ef	83 c4 18	 add	 esp, 24			; 00000018H
$LN2@set_local_:

; 131  : 
; 132  : 			break;
; 133  : 		}
; 134  : 	}
; 135  : }

  000f2	5f		 pop	 edi
  000f3	5e		 pop	 esi
  000f4	5b		 pop	 ebx
  000f5	8b e5		 mov	 esp, ebp
  000f7	5d		 pop	 ebp
  000f8	c2 0c 00	 ret	 12			; 0000000cH
  000fb	90		 npad	 1
$LN13@set_local_:
  000fc	00 00 00 00	 DD	 $LN4@set_local_
  00100	00 00 00 00	 DD	 $LN5@set_local_
  00104	00 00 00 00	 DD	 $LN6@set_local_
  00108	00 00 00 00	 DD	 $LN7@set_local_
  0010c	00 00 00 00	 DD	 $LN8@set_local_
$LN12@set_local_:
  00110	00		 DB	 0
  00111	01		 DB	 1
  00112	04		 DB	 4
  00113	04		 DB	 4
  00114	04		 DB	 4
  00115	04		 DB	 4
  00116	04		 DB	 4
  00117	04		 DB	 4
  00118	04		 DB	 4
  00119	04		 DB	 4
  0011a	04		 DB	 4
  0011b	04		 DB	 4
  0011c	04		 DB	 4
  0011d	04		 DB	 4
  0011e	04		 DB	 4
  0011f	04		 DB	 4
  00120	04		 DB	 4
  00121	04		 DB	 4
  00122	04		 DB	 4
  00123	04		 DB	 4
  00124	04		 DB	 4
  00125	04		 DB	 4
  00126	04		 DB	 4
  00127	02		 DB	 2
  00128	04		 DB	 4
  00129	04		 DB	 4
  0012a	04		 DB	 4
  0012b	04		 DB	 4
  0012c	04		 DB	 4
  0012d	04		 DB	 4
  0012e	04		 DB	 4
  0012f	04		 DB	 4
  00130	04		 DB	 4
  00131	04		 DB	 4
  00132	04		 DB	 4
  00133	04		 DB	 4
  00134	04		 DB	 4
  00135	04		 DB	 4
  00136	04		 DB	 4
  00137	04		 DB	 4
  00138	04		 DB	 4
  00139	04		 DB	 4
  0013a	04		 DB	 4
  0013b	04		 DB	 4
  0013c	04		 DB	 4
  0013d	04		 DB	 4
  0013e	04		 DB	 4
  0013f	04		 DB	 4
  00140	04		 DB	 4
  00141	04		 DB	 4
  00142	04		 DB	 4
  00143	04		 DB	 4
  00144	04		 DB	 4
  00145	04		 DB	 4
  00146	04		 DB	 4
  00147	04		 DB	 4
  00148	04		 DB	 4
  00149	04		 DB	 4
  0014a	04		 DB	 4
  0014b	04		 DB	 4
  0014c	04		 DB	 4
  0014d	04		 DB	 4
  0014e	04		 DB	 4
  0014f	04		 DB	 4
  00150	04		 DB	 4
  00151	04		 DB	 4
  00152	04		 DB	 4
  00153	04		 DB	 4
  00154	04		 DB	 4
  00155	04		 DB	 4
  00156	04		 DB	 4
  00157	04		 DB	 4
  00158	04		 DB	 4
  00159	04		 DB	 4
  0015a	04		 DB	 4
  0015b	04		 DB	 4
  0015c	04		 DB	 4
  0015d	04		 DB	 4
  0015e	04		 DB	 4
  0015f	04		 DB	 4
  00160	04		 DB	 4
  00161	04		 DB	 4
  00162	04		 DB	 4
  00163	04		 DB	 4
  00164	04		 DB	 4
  00165	04		 DB	 4
  00166	04		 DB	 4
  00167	04		 DB	 4
  00168	04		 DB	 4
  00169	04		 DB	 4
  0016a	04		 DB	 4
  0016b	04		 DB	 4
  0016c	04		 DB	 4
  0016d	04		 DB	 4
  0016e	04		 DB	 4
  0016f	04		 DB	 4
  00170	04		 DB	 4
  00171	04		 DB	 4
  00172	04		 DB	 4
  00173	04		 DB	 4
  00174	04		 DB	 4
  00175	04		 DB	 4
  00176	04		 DB	 4
  00177	04		 DB	 4
  00178	04		 DB	 4
  00179	04		 DB	 4
  0017a	04		 DB	 4
  0017b	04		 DB	 4
  0017c	04		 DB	 4
  0017d	04		 DB	 4
  0017e	04		 DB	 4
  0017f	04		 DB	 4
  00180	04		 DB	 4
  00181	04		 DB	 4
  00182	04		 DB	 4
  00183	04		 DB	 4
  00184	04		 DB	 4
  00185	04		 DB	 4
  00186	04		 DB	 4
  00187	04		 DB	 4
  00188	04		 DB	 4
  00189	04		 DB	 4
  0018a	04		 DB	 4
  0018b	04		 DB	 4
  0018c	04		 DB	 4
  0018d	04		 DB	 4
  0018e	04		 DB	 4
  0018f	04		 DB	 4
  00190	04		 DB	 4
  00191	04		 DB	 4
  00192	04		 DB	 4
  00193	04		 DB	 4
  00194	04		 DB	 4
  00195	04		 DB	 4
  00196	04		 DB	 4
  00197	04		 DB	 4
  00198	04		 DB	 4
  00199	03		 DB	 3
?set_local_float_value@@YGXPAUENTITY@@W4FLOAT_TYPES@@M@Z ENDP ; set_local_float_value
_TEXT	ENDS
; Function compile flags: /Odtp /ZI
; File c:\users\nhv90\projects\eech\aphavoc\source\entity\special\effect\soundeff\se_float.c
;	COMDAT ?overload_sound_effect_float_value_functions@@YGXXZ
_TEXT	SEGMENT
?overload_sound_effect_float_value_functions@@YGXXZ PROC ; overload_sound_effect_float_value_functions, COMDAT

; 289  : {

  00000	55		 push	 ebp
  00001	8b ec		 mov	 ebp, esp
  00003	83 ec 40	 sub	 esp, 64			; 00000040H
  00006	53		 push	 ebx
  00007	56		 push	 esi
  00008	57		 push	 edi

; 290  : 	fn_set_local_entity_raw_float_value			[ENTITY_TYPE_SOUND_EFFECT][FLOAT_TYPE_AMPLIFICATION]								= set_local_float_value;

  00009	b8 bc 02 00 00	 mov	 eax, 700		; 000002bcH
  0000e	c1 e0 05	 shl	 eax, 5
  00011	b9 04 00 00 00	 mov	 ecx, 4
  00016	6b d1 09	 imul	 edx, ecx, 9
  00019	c7 84 10 00 00
	00 00 00 00 00
	00		 mov	 DWORD PTR ?fn_set_local_entity_raw_float_value@@3PAY0KP@P6GXPAUENTITY@@W4FLOAT_TYPES@@M@ZA[eax+edx], OFFSET ?set_local_float_value@@YGXPAUENTITY@@W4FLOAT_TYPES@@M@Z ; set_local_float_value

; 291  : 	fn_set_local_entity_float_value				[ENTITY_TYPE_SOUND_EFFECT][FLOAT_TYPE_AMPLIFICATION]								= set_local_float_value;

  00024	b8 bc 02 00 00	 mov	 eax, 700		; 000002bcH
  00029	c1 e0 05	 shl	 eax, 5
  0002c	b9 04 00 00 00	 mov	 ecx, 4
  00031	6b d1 09	 imul	 edx, ecx, 9
  00034	c7 84 10 00 00
	00 00 00 00 00
	00		 mov	 DWORD PTR ?fn_set_local_entity_float_value@@3PAY0KP@P6GXPAUENTITY@@W4FLOAT_TYPES@@M@ZA[eax+edx], OFFSET ?set_local_float_value@@YGXPAUENTITY@@W4FLOAT_TYPES@@M@Z ; set_local_float_value

; 292  : 	fn_set_client_server_entity_float_value	[ENTITY_TYPE_SOUND_EFFECT][FLOAT_TYPE_AMPLIFICATION][COMMS_MODEL_SERVER]	= set_server_float_value;

  0003f	b8 78 05 00 00	 mov	 eax, 1400		; 00000578H
  00044	c1 e0 05	 shl	 eax, 5
  00047	b9 08 00 00 00	 mov	 ecx, 8
  0004c	6b d1 09	 imul	 edx, ecx, 9
  0004f	8d 84 10 00 00
	00 00		 lea	 eax, DWORD PTR ?fn_set_client_server_entity_float_value@@3PAY1KP@1P6GXPAUENTITY@@W4FLOAT_TYPES@@M@ZA[eax+edx]
  00056	b9 04 00 00 00	 mov	 ecx, 4
  0005b	6b d1 00	 imul	 edx, ecx, 0
  0005e	c7 04 10 00 00
	00 00		 mov	 DWORD PTR [eax+edx], OFFSET ?set_server_float_value@@YGXPAUENTITY@@W4FLOAT_TYPES@@M@Z ; set_server_float_value

; 293  : 	fn_set_client_server_entity_float_value	[ENTITY_TYPE_SOUND_EFFECT][FLOAT_TYPE_AMPLIFICATION][COMMS_MODEL_CLIENT]	= set_client_float_value;

  00065	b8 78 05 00 00	 mov	 eax, 1400		; 00000578H
  0006a	c1 e0 05	 shl	 eax, 5
  0006d	b9 08 00 00 00	 mov	 ecx, 8
  00072	6b d1 09	 imul	 edx, ecx, 9
  00075	8d 84 10 00 00
	00 00		 lea	 eax, DWORD PTR ?fn_set_client_server_entity_float_value@@3PAY1KP@1P6GXPAUENTITY@@W4FLOAT_TYPES@@M@ZA[eax+edx]
  0007c	b9 04 00 00 00	 mov	 ecx, 4
  00081	c1 e1 00	 shl	 ecx, 0
  00084	c7 04 08 00 00
	00 00		 mov	 DWORD PTR [eax+ecx], OFFSET ?set_client_float_value@@YGXPAUENTITY@@W4FLOAT_TYPES@@M@Z ; set_client_float_value

; 294  : 	fn_get_local_entity_float_value				[ENTITY_TYPE_SOUND_EFFECT][FLOAT_TYPE_AMPLIFICATION]								= get_local_float_value;

  0008b	b8 bc 02 00 00	 mov	 eax, 700		; 000002bcH
  00090	c1 e0 05	 shl	 eax, 5
  00093	b9 04 00 00 00	 mov	 ecx, 4
  00098	6b d1 09	 imul	 edx, ecx, 9
  0009b	c7 84 10 00 00
	00 00 00 00 00
	00		 mov	 DWORD PTR ?fn_get_local_entity_float_value@@3PAY0KP@P6GMPAUENTITY@@W4FLOAT_TYPES@@@ZA[eax+edx], OFFSET ?get_local_float_value@@YGMPAUENTITY@@W4FLOAT_TYPES@@@Z ; get_local_float_value

; 295  : 
; 296  : 	fn_set_local_entity_raw_float_value			[ENTITY_TYPE_SOUND_EFFECT][FLOAT_TYPE_SOUNDPITCH]								= set_local_float_value;

  000a6	b8 bc 02 00 00	 mov	 eax, 700		; 000002bcH
  000ab	c1 e0 05	 shl	 eax, 5
  000ae	b9 04 00 00 00	 mov	 ecx, 4
  000b3	6b d1 0a	 imul	 edx, ecx, 10
  000b6	c7 84 10 00 00
	00 00 00 00 00
	00		 mov	 DWORD PTR ?fn_set_local_entity_raw_float_value@@3PAY0KP@P6GXPAUENTITY@@W4FLOAT_TYPES@@M@ZA[eax+edx], OFFSET ?set_local_float_value@@YGXPAUENTITY@@W4FLOAT_TYPES@@M@Z ; set_local_float_value

; 297  : 	fn_set_local_entity_float_value				[ENTITY_TYPE_SOUND_EFFECT][FLOAT_TYPE_SOUNDPITCH]								= set_local_float_value;

  000c1	b8 bc 02 00 00	 mov	 eax, 700		; 000002bcH
  000c6	c1 e0 05	 shl	 eax, 5
  000c9	b9 04 00 00 00	 mov	 ecx, 4
  000ce	6b d1 0a	 imul	 edx, ecx, 10
  000d1	c7 84 10 00 00
	00 00 00 00 00
	00		 mov	 DWORD PTR ?fn_set_local_entity_float_value@@3PAY0KP@P6GXPAUENTITY@@W4FLOAT_TYPES@@M@ZA[eax+edx], OFFSET ?set_local_float_value@@YGXPAUENTITY@@W4FLOAT_TYPES@@M@Z ; set_local_float_value

; 298  : 	fn_set_client_server_entity_float_value	[ENTITY_TYPE_SOUND_EFFECT][FLOAT_TYPE_SOUNDPITCH][COMMS_MODEL_SERVER]	= set_server_float_value;

  000dc	b8 78 05 00 00	 mov	 eax, 1400		; 00000578H
  000e1	c1 e0 05	 shl	 eax, 5
  000e4	b9 08 00 00 00	 mov	 ecx, 8
  000e9	6b d1 0a	 imul	 edx, ecx, 10
  000ec	8d 84 10 00 00
	00 00		 lea	 eax, DWORD PTR ?fn_set_client_server_entity_float_value@@3PAY1KP@1P6GXPAUENTITY@@W4FLOAT_TYPES@@M@ZA[eax+edx]
  000f3	b9 04 00 00 00	 mov	 ecx, 4
  000f8	6b d1 00	 imul	 edx, ecx, 0
  000fb	c7 04 10 00 00
	00 00		 mov	 DWORD PTR [eax+edx], OFFSET ?set_server_float_value@@YGXPAUENTITY@@W4FLOAT_TYPES@@M@Z ; set_server_float_value

; 299  : 	fn_set_client_server_entity_float_value	[ENTITY_TYPE_SOUND_EFFECT][FLOAT_TYPE_SOUNDPITCH][COMMS_MODEL_CLIENT]	= set_client_float_value;

  00102	b8 78 05 00 00	 mov	 eax, 1400		; 00000578H
  00107	c1 e0 05	 shl	 eax, 5
  0010a	b9 08 00 00 00	 mov	 ecx, 8
  0010f	6b d1 0a	 imul	 edx, ecx, 10
  00112	8d 84 10 00 00
	00 00		 lea	 eax, DWORD PTR ?fn_set_client_server_entity_float_value@@3PAY1KP@1P6GXPAUENTITY@@W4FLOAT_TYPES@@M@ZA[eax+edx]
  00119	b9 04 00 00 00	 mov	 ecx, 4
  0011e	c1 e1 00	 shl	 ecx, 0
  00121	c7 04 08 00 00
	00 00		 mov	 DWORD PTR [eax+ecx], OFFSET ?set_client_float_value@@YGXPAUENTITY@@W4FLOAT_TYPES@@M@Z ; set_client_float_value

; 300  : 	fn_get_local_entity_float_value				[ENTITY_TYPE_SOUND_EFFECT][FLOAT_TYPE_SOUNDPITCH]								= get_local_float_value;

  00128	b8 bc 02 00 00	 mov	 eax, 700		; 000002bcH
  0012d	c1 e0 05	 shl	 eax, 5
  00130	b9 04 00 00 00	 mov	 ecx, 4
  00135	6b d1 0a	 imul	 edx, ecx, 10
  00138	c7 84 10 00 00
	00 00 00 00 00
	00		 mov	 DWORD PTR ?fn_get_local_entity_float_value@@3PAY0KP@P6GMPAUENTITY@@W4FLOAT_TYPES@@@ZA[eax+edx], OFFSET ?get_local_float_value@@YGMPAUENTITY@@W4FLOAT_TYPES@@@Z ; get_local_float_value

; 301  : 
; 302  : 	fn_set_local_entity_raw_float_value			[ENTITY_TYPE_SOUND_EFFECT][FLOAT_TYPE_EFFECT_LIFETIME]							= set_local_float_value;

  00143	b8 bc 02 00 00	 mov	 eax, 700		; 000002bcH
  00148	c1 e0 05	 shl	 eax, 5
  0014b	b9 04 00 00 00	 mov	 ecx, 4
  00150	c1 e1 05	 shl	 ecx, 5
  00153	c7 84 08 00 00
	00 00 00 00 00
	00		 mov	 DWORD PTR ?fn_set_local_entity_raw_float_value@@3PAY0KP@P6GXPAUENTITY@@W4FLOAT_TYPES@@M@ZA[eax+ecx], OFFSET ?set_local_float_value@@YGXPAUENTITY@@W4FLOAT_TYPES@@M@Z ; set_local_float_value

; 303  : 	fn_set_local_entity_float_value				[ENTITY_TYPE_SOUND_EFFECT][FLOAT_TYPE_EFFECT_LIFETIME]							= set_local_float_value;

  0015e	b8 bc 02 00 00	 mov	 eax, 700		; 000002bcH
  00163	c1 e0 05	 shl	 eax, 5
  00166	b9 04 00 00 00	 mov	 ecx, 4
  0016b	c1 e1 05	 shl	 ecx, 5
  0016e	c7 84 08 00 00
	00 00 00 00 00
	00		 mov	 DWORD PTR ?fn_set_local_entity_float_value@@3PAY0KP@P6GXPAUENTITY@@W4FLOAT_TYPES@@M@ZA[eax+ecx], OFFSET ?set_local_float_value@@YGXPAUENTITY@@W4FLOAT_TYPES@@M@Z ; set_local_float_value

; 304  : 	fn_set_client_server_entity_float_value	[ENTITY_TYPE_SOUND_EFFECT][FLOAT_TYPE_EFFECT_LIFETIME][COMMS_MODEL_SERVER]	= set_server_float_value;

  00179	b8 78 05 00 00	 mov	 eax, 1400		; 00000578H
  0017e	c1 e0 05	 shl	 eax, 5
  00181	b9 08 00 00 00	 mov	 ecx, 8
  00186	c1 e1 05	 shl	 ecx, 5
  00189	8d 94 08 00 00
	00 00		 lea	 edx, DWORD PTR ?fn_set_client_server_entity_float_value@@3PAY1KP@1P6GXPAUENTITY@@W4FLOAT_TYPES@@M@ZA[eax+ecx]
  00190	b8 04 00 00 00	 mov	 eax, 4
  00195	6b c8 00	 imul	 ecx, eax, 0
  00198	c7 04 0a 00 00
	00 00		 mov	 DWORD PTR [edx+ecx], OFFSET ?set_server_float_value@@YGXPAUENTITY@@W4FLOAT_TYPES@@M@Z ; set_server_float_value

; 305  : 	fn_set_client_server_entity_float_value	[ENTITY_TYPE_SOUND_EFFECT][FLOAT_TYPE_EFFECT_LIFETIME][COMMS_MODEL_CLIENT]	= set_client_float_value;

  0019f	b8 78 05 00 00	 mov	 eax, 1400		; 00000578H
  001a4	c1 e0 05	 shl	 eax, 5
  001a7	b9 08 00 00 00	 mov	 ecx, 8
  001ac	c1 e1 05	 shl	 ecx, 5
  001af	8d 94 08 00 00
	00 00		 lea	 edx, DWORD PTR ?fn_set_client_server_entity_float_value@@3PAY1KP@1P6GXPAUENTITY@@W4FLOAT_TYPES@@M@ZA[eax+ecx]
  001b6	b8 04 00 00 00	 mov	 eax, 4
  001bb	c1 e0 00	 shl	 eax, 0
  001be	c7 04 02 00 00
	00 00		 mov	 DWORD PTR [edx+eax], OFFSET ?set_client_float_value@@YGXPAUENTITY@@W4FLOAT_TYPES@@M@Z ; set_client_float_value

; 306  : 	fn_get_local_entity_float_value				[ENTITY_TYPE_SOUND_EFFECT][FLOAT_TYPE_EFFECT_LIFETIME]							= get_local_float_value;

  001c5	b8 bc 02 00 00	 mov	 eax, 700		; 000002bcH
  001ca	c1 e0 05	 shl	 eax, 5
  001cd	b9 04 00 00 00	 mov	 ecx, 4
  001d2	c1 e1 05	 shl	 ecx, 5
  001d5	c7 84 08 00 00
	00 00 00 00 00
	00		 mov	 DWORD PTR ?fn_get_local_entity_float_value@@3PAY0KP@P6GMPAUENTITY@@W4FLOAT_TYPES@@@ZA[eax+ecx], OFFSET ?get_local_float_value@@YGMPAUENTITY@@W4FLOAT_TYPES@@@Z ; get_local_float_value

; 307  : 
; 308  : 	fn_set_local_entity_raw_float_value			[ENTITY_TYPE_SOUND_EFFECT][FLOAT_TYPE_VALID_EFFECT_LIFETIME]							= set_local_float_value;

  001e0	b8 bc 02 00 00	 mov	 eax, 700		; 000002bcH
  001e5	c1 e0 05	 shl	 eax, 5
  001e8	b9 04 00 00 00	 mov	 ecx, 4
  001ed	69 d1 92 00 00
	00		 imul	 edx, ecx, 146
  001f3	c7 84 10 00 00
	00 00 00 00 00
	00		 mov	 DWORD PTR ?fn_set_local_entity_raw_float_value@@3PAY0KP@P6GXPAUENTITY@@W4FLOAT_TYPES@@M@ZA[eax+edx], OFFSET ?set_local_float_value@@YGXPAUENTITY@@W4FLOAT_TYPES@@M@Z ; set_local_float_value

; 309  : 	fn_set_local_entity_float_value				[ENTITY_TYPE_SOUND_EFFECT][FLOAT_TYPE_VALID_EFFECT_LIFETIME]							= set_local_float_value;

  001fe	b8 bc 02 00 00	 mov	 eax, 700		; 000002bcH
  00203	c1 e0 05	 shl	 eax, 5
  00206	b9 04 00 00 00	 mov	 ecx, 4
  0020b	69 d1 92 00 00
	00		 imul	 edx, ecx, 146
  00211	c7 84 10 00 00
	00 00 00 00 00
	00		 mov	 DWORD PTR ?fn_set_local_entity_float_value@@3PAY0KP@P6GXPAUENTITY@@W4FLOAT_TYPES@@M@ZA[eax+edx], OFFSET ?set_local_float_value@@YGXPAUENTITY@@W4FLOAT_TYPES@@M@Z ; set_local_float_value

; 310  : 	fn_set_client_server_entity_float_value	[ENTITY_TYPE_SOUND_EFFECT][FLOAT_TYPE_VALID_EFFECT_LIFETIME][COMMS_MODEL_SERVER]	= set_server_float_value;

  0021c	b8 78 05 00 00	 mov	 eax, 1400		; 00000578H
  00221	c1 e0 05	 shl	 eax, 5
  00224	b9 08 00 00 00	 mov	 ecx, 8
  00229	69 d1 92 00 00
	00		 imul	 edx, ecx, 146
  0022f	8d 84 10 00 00
	00 00		 lea	 eax, DWORD PTR ?fn_set_client_server_entity_float_value@@3PAY1KP@1P6GXPAUENTITY@@W4FLOAT_TYPES@@M@ZA[eax+edx]
  00236	b9 04 00 00 00	 mov	 ecx, 4
  0023b	6b d1 00	 imul	 edx, ecx, 0
  0023e	c7 04 10 00 00
	00 00		 mov	 DWORD PTR [eax+edx], OFFSET ?set_server_float_value@@YGXPAUENTITY@@W4FLOAT_TYPES@@M@Z ; set_server_float_value

; 311  : 	fn_set_client_server_entity_float_value	[ENTITY_TYPE_SOUND_EFFECT][FLOAT_TYPE_VALID_EFFECT_LIFETIME][COMMS_MODEL_CLIENT]	= set_client_float_value;

  00245	b8 78 05 00 00	 mov	 eax, 1400		; 00000578H
  0024a	c1 e0 05	 shl	 eax, 5
  0024d	b9 08 00 00 00	 mov	 ecx, 8
  00252	69 d1 92 00 00
	00		 imul	 edx, ecx, 146
  00258	8d 84 10 00 00
	00 00		 lea	 eax, DWORD PTR ?fn_set_client_server_entity_float_value@@3PAY1KP@1P6GXPAUENTITY@@W4FLOAT_TYPES@@M@ZA[eax+edx]
  0025f	b9 04 00 00 00	 mov	 ecx, 4
  00264	c1 e1 00	 shl	 ecx, 0
  00267	c7 04 08 00 00
	00 00		 mov	 DWORD PTR [eax+ecx], OFFSET ?set_client_float_value@@YGXPAUENTITY@@W4FLOAT_TYPES@@M@Z ; set_client_float_value

; 312  : 	fn_get_local_entity_float_value				[ENTITY_TYPE_SOUND_EFFECT][FLOAT_TYPE_VALID_EFFECT_LIFETIME]							= get_local_float_value;

  0026e	b8 bc 02 00 00	 mov	 eax, 700		; 000002bcH
  00273	c1 e0 05	 shl	 eax, 5
  00276	b9 04 00 00 00	 mov	 ecx, 4
  0027b	69 d1 92 00 00
	00		 imul	 edx, ecx, 146
  00281	c7 84 10 00 00
	00 00 00 00 00
	00		 mov	 DWORD PTR ?fn_get_local_entity_float_value@@3PAY0KP@P6GMPAUENTITY@@W4FLOAT_TYPES@@@ZA[eax+edx], OFFSET ?get_local_float_value@@YGMPAUENTITY@@W4FLOAT_TYPES@@@Z ; get_local_float_value

; 313  : 
; 314  : 	fn_get_local_entity_float_value				[ENTITY_TYPE_SOUND_EFFECT][FLOAT_TYPE_MINIMUM_SOUND_RANGE]							= get_local_float_value;

  0028c	b8 bc 02 00 00	 mov	 eax, 700		; 000002bcH
  00291	c1 e0 05	 shl	 eax, 5
  00294	b9 04 00 00 00	 mov	 ecx, 4
  00299	69 d1 a4 00 00
	00		 imul	 edx, ecx, 164
  0029f	c7 84 10 00 00
	00 00 00 00 00
	00		 mov	 DWORD PTR ?fn_get_local_entity_float_value@@3PAY0KP@P6GMPAUENTITY@@W4FLOAT_TYPES@@@ZA[eax+edx], OFFSET ?get_local_float_value@@YGMPAUENTITY@@W4FLOAT_TYPES@@@Z ; get_local_float_value

; 315  : 	fn_get_local_entity_float_value				[ENTITY_TYPE_SOUND_EFFECT][FLOAT_TYPE_REFERENCE_SOUND_RANGE]							= get_local_float_value;

  002aa	b8 bc 02 00 00	 mov	 eax, 700		; 000002bcH
  002af	c1 e0 05	 shl	 eax, 5
  002b2	b9 04 00 00 00	 mov	 ecx, 4
  002b7	69 d1 a5 00 00
	00		 imul	 edx, ecx, 165
  002bd	c7 84 10 00 00
	00 00 00 00 00
	00		 mov	 DWORD PTR ?fn_get_local_entity_float_value@@3PAY0KP@P6GMPAUENTITY@@W4FLOAT_TYPES@@@ZA[eax+edx], OFFSET ?get_local_float_value@@YGMPAUENTITY@@W4FLOAT_TYPES@@@Z ; get_local_float_value

; 316  : 	fn_get_local_entity_float_value				[ENTITY_TYPE_SOUND_EFFECT][FLOAT_TYPE_MAXIMUM_SOUND_RANGE]							= get_local_float_value;

  002c8	b8 bc 02 00 00	 mov	 eax, 700		; 000002bcH
  002cd	c1 e0 05	 shl	 eax, 5
  002d0	b9 04 00 00 00	 mov	 ecx, 4
  002d5	69 d1 a6 00 00
	00		 imul	 edx, ecx, 166
  002db	c7 84 10 00 00
	00 00 00 00 00
	00		 mov	 DWORD PTR ?fn_get_local_entity_float_value@@3PAY0KP@P6GMPAUENTITY@@W4FLOAT_TYPES@@@ZA[eax+edx], OFFSET ?get_local_float_value@@YGMPAUENTITY@@W4FLOAT_TYPES@@@Z ; get_local_float_value

; 317  : }

  002e6	5f		 pop	 edi
  002e7	5e		 pop	 esi
  002e8	5b		 pop	 ebx
  002e9	8b e5		 mov	 esp, ebp
  002eb	5d		 pop	 ebp
  002ec	c3		 ret	 0
?overload_sound_effect_float_value_functions@@YGXXZ ENDP ; overload_sound_effect_float_value_functions
_TEXT	ENDS
END
