; Listing generated by Microsoft (R) Optimizing Compiler Version 19.16.27045.0 

	TITLE	C:\Users\nhv90\Projects\eech\aphavoc\source\entity\special\effect\soundeff\se_int.c
	.686P
	.XMM
	include listing.inc
	.model	flat

INCLUDELIB MSVCRTD
INCLUDELIB OLDNAMES

PUBLIC	?overload_sound_effect_int_value_functions@@YGXXZ ; overload_sound_effect_int_value_functions
PUBLIC	?__LINE__Var@?0??set_local_int_value@@YGXPAUENTITY@@W4INT_TYPES@@H@Z@4JA ; `set_local_int_value'::`1'::__LINE__Var
PUBLIC	??_C@_0FE@FNHMACFI@c?3?2users?2nhv90?2projects?2eech?2ap@ ; `string'
PUBLIC	?__LINE__Var@?0??set_server_int_value@@YGXPAUENTITY@@W4INT_TYPES@@H@Z@4JA ; `set_server_int_value'::`1'::__LINE__Var
PUBLIC	??_C@_0CB@CFOCLFOK@assert_client_server_local_fn?5?$CI@ ; `string'
PUBLIC	??_C@_0CC@BNNNEGEG@assert_client_server_remote_fn?5@ ; `string'
PUBLIC	?__LINE__Var@?0??set_client_int_value@@YGXPAUENTITY@@W4INT_TYPES@@H@Z@4JA ; `set_client_int_value'::`1'::__LINE__Var
PUBLIC	?__LINE__Var@?0??get_local_int_value@@YGHPAUENTITY@@W4INT_TYPES@@@Z@4JA ; `get_local_int_value'::`1'::__LINE__Var
PUBLIC	??_C@_0BC@EBDAMAJO@raw?9?$DOeffect_index@	; `string'
EXTRN	?process_assert@@YGXPBD0H@Z:PROC		; process_assert
EXTRN	?debug_fatal@@YAXPBDZZ:PROC			; debug_fatal
EXTRN	?transmit_entity_comms_message@@YAXW4ENTITY_COMMS_MESSAGES@@PAUENTITY@@ZZ:PROC ; transmit_entity_comms_message
EXTRN	?assert_client_server_local_fn@@YGHXZ:PROC	; assert_client_server_local_fn
EXTRN	?assert_client_server_remote_fn@@YGHXZ:PROC	; assert_client_server_remote_fn
EXTRN	?null_entity_pointer_message@@3PBDB:DWORD	; null_entity_pointer_message
EXTRN	?entity_type_database@@3PAUENTITY_TYPE_DATA@@A:BYTE ; entity_type_database
EXTRN	?application_sound_effects@@3PAUSOUND_EFFECT_INFORMATION@@A:BYTE ; application_sound_effects
EXTRN	?system_comms_data_flow@@3W4COMMS_DATA_FLOW_TYPES@@A:DWORD ; system_comms_data_flow
EXTRN	?int_type_database@@3PAUINT_TYPE_DATA@@A:BYTE	; int_type_database
EXTRN	?debug_fatal_invalid_int_type_message@@3PBDB:DWORD ; debug_fatal_invalid_int_type_message
EXTRN	?fn_set_local_entity_raw_int_value@@3PAY0BBH@P6GXPAUENTITY@@W4INT_TYPES@@H@ZA:BYTE ; fn_set_local_entity_raw_int_value
EXTRN	?fn_set_local_entity_int_value@@3PAY0BBH@P6GXPAUENTITY@@W4INT_TYPES@@H@ZA:BYTE ; fn_set_local_entity_int_value
EXTRN	?fn_set_client_server_entity_int_value@@3PAY1BBH@1P6GXPAUENTITY@@W4INT_TYPES@@H@ZA:BYTE ; fn_set_client_server_entity_int_value
EXTRN	?fn_get_local_entity_int_value@@3PAY0BBH@P6GHPAUENTITY@@W4INT_TYPES@@@ZA:BYTE ; fn_get_local_entity_int_value
EXTRN	?entities@@3PAUENTITY@@A:DWORD			; entities
;	COMDAT ??_C@_0BC@EBDAMAJO@raw?9?$DOeffect_index@
CONST	SEGMENT
??_C@_0BC@EBDAMAJO@raw?9?$DOeffect_index@ DB 'raw->effect_index', 00H ; `string'
CONST	ENDS
;	COMDAT ?__LINE__Var@?0??get_local_int_value@@YGHPAUENTITY@@W4INT_TYPES@@@Z@4JA
_DATA	SEGMENT
?__LINE__Var@?0??get_local_int_value@@YGHPAUENTITY@@W4INT_TYPES@@@Z@4JA DD 0d8H ; `get_local_int_value'::`1'::__LINE__Var
_DATA	ENDS
;	COMDAT ?__LINE__Var@?0??set_client_int_value@@YGXPAUENTITY@@W4INT_TYPES@@H@Z@4JA
_DATA	SEGMENT
?__LINE__Var@?0??set_client_int_value@@YGXPAUENTITY@@W4INT_TYPES@@H@Z@4JA DD 0c4H ; `set_client_int_value'::`1'::__LINE__Var
_DATA	ENDS
;	COMDAT ??_C@_0CC@BNNNEGEG@assert_client_server_remote_fn?5@
CONST	SEGMENT
??_C@_0CC@BNNNEGEG@assert_client_server_remote_fn?5@ DB 'assert_client_se'
	DB	'rver_remote_fn ()', 00H			; `string'
CONST	ENDS
;	COMDAT ??_C@_0CB@CFOCLFOK@assert_client_server_local_fn?5?$CI@
CONST	SEGMENT
??_C@_0CB@CFOCLFOK@assert_client_server_local_fn?5?$CI@ DB 'assert_client'
	DB	'_server_local_fn ()', 00H			; `string'
CONST	ENDS
;	COMDAT ?__LINE__Var@?0??set_server_int_value@@YGXPAUENTITY@@W4INT_TYPES@@H@Z@4JA
_DATA	SEGMENT
?__LINE__Var@?0??set_server_int_value@@YGXPAUENTITY@@W4INT_TYPES@@H@Z@4JA DD 0b5H ; `set_server_int_value'::`1'::__LINE__Var
_DATA	ENDS
;	COMDAT ??_C@_0FE@FNHMACFI@c?3?2users?2nhv90?2projects?2eech?2ap@
CONST	SEGMENT
??_C@_0FE@FNHMACFI@c?3?2users?2nhv90?2projects?2eech?2ap@ DB 'c:\users\nh'
	DB	'v90\projects\eech\aphavoc\source\entity\special\effect\sounde'
	DB	'ff\se_int.c', 00H				; `string'
CONST	ENDS
;	COMDAT ?__LINE__Var@?0??set_local_int_value@@YGXPAUENTITY@@W4INT_TYPES@@H@Z@4JA
_DATA	SEGMENT
?__LINE__Var@?0??set_local_int_value@@YGXPAUENTITY@@W4INT_TYPES@@H@Z@4JA DD 050H ; `set_local_int_value'::`1'::__LINE__Var
_DATA	ENDS
; Function compile flags: /Odtp /ZI
; File c:\users\nhv90\projects\eech\aphavoc\source\entity\special\effect\soundeff\se_int.c
;	COMDAT ?get_local_int_value@@YGHPAUENTITY@@W4INT_TYPES@@@Z
_TEXT	SEGMENT
tv158 = -76						; size = 4
tv65 = -76						; size = 4
_value$ = -8						; size = 4
_raw$ = -4						; size = 4
_en$ = 8						; size = 4
_type$ = 12						; size = 4
?get_local_int_value@@YGHPAUENTITY@@W4INT_TYPES@@@Z PROC ; get_local_int_value, COMDAT

; 216  : {

  00000	55		 push	 ebp
  00001	8b ec		 mov	 ebp, esp
  00003	83 ec 4c	 sub	 esp, 76			; 0000004cH
  00006	53		 push	 ebx
  00007	56		 push	 esi
  00008	57		 push	 edi

; 217  : 	sound_effect
; 218  : 		*raw;
; 219  : 
; 220  : 	int
; 221  : 		value;
; 222  : 
; 223  : 	raw = (sound_effect *) get_local_entity_data (en);

  00009	8b 45 08	 mov	 eax, DWORD PTR _en$[ebp]
  0000c	8b 48 04	 mov	 ecx, DWORD PTR [eax+4]
  0000f	89 4d fc	 mov	 DWORD PTR _raw$[ebp], ecx

; 224  : 
; 225  : 	switch (type)

  00012	8b 45 0c	 mov	 eax, DWORD PTR _type$[ebp]
  00015	89 45 b4	 mov	 DWORD PTR tv65[ebp], eax
  00018	8b 4d b4	 mov	 ecx, DWORD PTR tv65[ebp]
  0001b	81 e9 84 00 00
	00		 sub	 ecx, 132		; 00000084H
  00021	89 4d b4	 mov	 DWORD PTR tv65[ebp], ecx
  00024	83 7d b4 6d	 cmp	 DWORD PTR tv65[ebp], 109 ; 0000006dH
  00028	0f 87 1d 01 00
	00		 ja	 $LN15@get_local_
  0002e	8b 55 b4	 mov	 edx, DWORD PTR tv65[ebp]
  00031	0f b6 82 00 00
	00 00		 movzx	 eax, BYTE PTR $LN19@get_local_[edx]
  00038	ff 24 85 00 00
	00 00		 jmp	 DWORD PTR $LN20@get_local_[eax*4]
$LN4@get_local_:

; 226  : 	{
; 227  : 		////////////////////////////////////////
; 228  : 		case INT_TYPE_MAXIMUM_VOLUME:
; 229  : 		////////////////////////////////////////
; 230  : 		{
; 231  : 			// possibly store in entity ??
; 232  : 
; 233  : 			ASSERT (raw->effect_index);

  0003f	8b 45 fc	 mov	 eax, DWORD PTR _raw$[ebp]
  00042	83 78 28 00	 cmp	 DWORD PTR [eax+40], 0
  00046	75 18		 jne	 SHORT $LN5@get_local_
  00048	a1 00 00 00 00	 mov	 eax, DWORD PTR ?__LINE__Var@?0??get_local_int_value@@YGHPAUENTITY@@W4INT_TYPES@@@Z@4JA
  0004d	83 c0 11	 add	 eax, 17			; 00000011H
  00050	50		 push	 eax
  00051	68 00 00 00 00	 push	 OFFSET ??_C@_0FE@FNHMACFI@c?3?2users?2nhv90?2projects?2eech?2ap@
  00056	68 00 00 00 00	 push	 OFFSET ??_C@_0BC@EBDAMAJO@raw?9?$DOeffect_index@
  0005b	e8 00 00 00 00	 call	 ?process_assert@@YGXPBD0H@Z ; process_assert
$LN5@get_local_:

; 234  : 
; 235  : 			value = application_sound_effects [raw->effect_index [0]].maximum_volume;

  00060	b8 04 00 00 00	 mov	 eax, 4
  00065	6b c8 00	 imul	 ecx, eax, 0
  00068	8b 55 fc	 mov	 edx, DWORD PTR _raw$[ebp]
  0006b	8b 42 28	 mov	 eax, DWORD PTR [edx+40]
  0006e	8b 0c 08	 mov	 ecx, DWORD PTR [eax+ecx]
  00071	c1 e1 05	 shl	 ecx, 5
  00074	8b 91 10 00 00
	00		 mov	 edx, DWORD PTR ?application_sound_effects@@3PAUSOUND_EFFECT_INFORMATION@@A[ecx+16]
  0007a	89 55 f8	 mov	 DWORD PTR _value$[ebp], edx

; 236  : 
; 237  : 			break;

  0007d	e9 3b 01 00 00	 jmp	 $LN2@get_local_
$LN6@get_local_:

; 238  : 		}
; 239  : 		////////////////////////////////////////
; 240  : 		case INT_TYPE_SIDE:
; 241  : 		////////////////////////////////////////
; 242  : 		{
; 243  : 			value = raw->side;

  00082	8b 45 fc	 mov	 eax, DWORD PTR _raw$[ebp]
  00085	8b 48 40	 mov	 ecx, DWORD PTR [eax+64]
  00088	83 e1 03	 and	 ecx, 3
  0008b	89 4d f8	 mov	 DWORD PTR _value$[ebp], ecx

; 244  : 
; 245  : 			break;

  0008e	e9 2a 01 00 00	 jmp	 $LN2@get_local_
$LN7@get_local_:

; 246  : 		}
; 247  : 		////////////////////////////////////////
; 248  : 		case INT_TYPE_SOUND_CHANNEL:
; 249  : 		////////////////////////////////////////
; 250  : 		{
; 251  : 			value = raw->sound_channel;

  00093	8b 45 fc	 mov	 eax, DWORD PTR _raw$[ebp]
  00096	8b 48 40	 mov	 ecx, DWORD PTR [eax+64]
  00099	c1 e9 02	 shr	 ecx, 2
  0009c	83 e1 0f	 and	 ecx, 15			; 0000000fH
  0009f	89 4d f8	 mov	 DWORD PTR _value$[ebp], ecx

; 252  : 
; 253  : 			break;

  000a2	e9 16 01 00 00	 jmp	 $LN2@get_local_
$LN8@get_local_:

; 254  : 		}
; 255  : 		////////////////////////////////////////
; 256  : 		case INT_TYPE_SOUND_EFFECT_LOOPING:
; 257  : 		////////////////////////////////////////
; 258  : 		{
; 259  : 			value = raw->looping;

  000a7	8b 45 fc	 mov	 eax, DWORD PTR _raw$[ebp]
  000aa	8b 48 40	 mov	 ecx, DWORD PTR [eax+64]
  000ad	c1 e9 09	 shr	 ecx, 9
  000b0	83 e1 01	 and	 ecx, 1
  000b3	89 4d f8	 mov	 DWORD PTR _value$[ebp], ecx

; 260  : 
; 261  : 			break;

  000b6	e9 02 01 00 00	 jmp	 $LN2@get_local_
$LN9@get_local_:

; 262  : 		}
; 263  : 		////////////////////////////////////////
; 264  : 		case INT_TYPE_SOUND_EFFECT_PANNING:
; 265  : 		////////////////////////////////////////
; 266  : 		{
; 267  : 			value = raw->panning;

  000bb	8b 45 fc	 mov	 eax, DWORD PTR _raw$[ebp]
  000be	8b 48 40	 mov	 ecx, DWORD PTR [eax+64]
  000c1	c1 e9 0a	 shr	 ecx, 10			; 0000000aH
  000c4	83 e1 01	 and	 ecx, 1
  000c7	89 4d f8	 mov	 DWORD PTR _value$[ebp], ecx

; 268  : 
; 269  : 			break;

  000ca	e9 ee 00 00 00	 jmp	 $LN2@get_local_
$LN10@get_local_:

; 270  : 		}
; 271  : 		////////////////////////////////////////
; 272  : 		case INT_TYPE_SOUND_EFFECT_RATE:
; 273  : 		////////////////////////////////////////
; 274  : 		{
; 275  : 			ASSERT (raw->effect_index);

  000cf	8b 45 fc	 mov	 eax, DWORD PTR _raw$[ebp]
  000d2	83 78 28 00	 cmp	 DWORD PTR [eax+40], 0
  000d6	75 18		 jne	 SHORT $LN11@get_local_
  000d8	a1 00 00 00 00	 mov	 eax, DWORD PTR ?__LINE__Var@?0??get_local_int_value@@YGHPAUENTITY@@W4INT_TYPES@@@Z@4JA
  000dd	83 c0 3b	 add	 eax, 59			; 0000003bH
  000e0	50		 push	 eax
  000e1	68 00 00 00 00	 push	 OFFSET ??_C@_0FE@FNHMACFI@c?3?2users?2nhv90?2projects?2eech?2ap@
  000e6	68 00 00 00 00	 push	 OFFSET ??_C@_0BC@EBDAMAJO@raw?9?$DOeffect_index@
  000eb	e8 00 00 00 00	 call	 ?process_assert@@YGXPBD0H@Z ; process_assert
$LN11@get_local_:

; 276  : 
; 277  : 			value = application_sound_effects [raw->effect_index [0]].rate;

  000f0	b8 04 00 00 00	 mov	 eax, 4
  000f5	6b c8 00	 imul	 ecx, eax, 0
  000f8	8b 55 fc	 mov	 edx, DWORD PTR _raw$[ebp]
  000fb	8b 42 28	 mov	 eax, DWORD PTR [edx+40]
  000fe	8b 0c 08	 mov	 ecx, DWORD PTR [eax+ecx]
  00101	c1 e1 05	 shl	 ecx, 5
  00104	8b 91 08 00 00
	00		 mov	 edx, DWORD PTR ?application_sound_effects@@3PAUSOUND_EFFECT_INFORMATION@@A[ecx+8]
  0010a	89 55 f8	 mov	 DWORD PTR _value$[ebp], edx

; 278  : 
; 279  : 			break;

  0010d	e9 ab 00 00 00	 jmp	 $LN2@get_local_
$LN12@get_local_:

; 280  : 		}
; 281  : 		////////////////////////////////////////
; 282  : 		case INT_TYPE_SOUND_EFFECT_SEQUENCE_COUNT:
; 283  : 		////////////////////////////////////////
; 284  : 		{
; 285  : 			value = raw->sound_effect_sequence_count;

  00112	8b 45 fc	 mov	 eax, DWORD PTR _raw$[ebp]
  00115	8b 48 40	 mov	 ecx, DWORD PTR [eax+64]
  00118	c1 e9 0b	 shr	 ecx, 11			; 0000000bH
  0011b	83 e1 0f	 and	 ecx, 15			; 0000000fH
  0011e	89 4d f8	 mov	 DWORD PTR _value$[ebp], ecx

; 286  : 
; 287  : 			break;

  00121	e9 97 00 00 00	 jmp	 $LN2@get_local_
$LN13@get_local_:

; 288  : 		}
; 289  : 		////////////////////////////////////////
; 290  : 		case INT_TYPE_SOUND_LOCALITY:
; 291  : 		////////////////////////////////////////
; 292  : 		{
; 293  : 			value = raw->sound_locality;

  00126	8b 45 fc	 mov	 eax, DWORD PTR _raw$[ebp]
  00129	8b 48 40	 mov	 ecx, DWORD PTR [eax+64]
  0012c	c1 e9 06	 shr	 ecx, 6
  0012f	83 e1 03	 and	 ecx, 3
  00132	89 4d f8	 mov	 DWORD PTR _value$[ebp], ecx

; 294  : 
; 295  : 			break;

  00135	e9 83 00 00 00	 jmp	 $LN2@get_local_
$LN14@get_local_:

; 296  : 		}
; 297  : 		////////////////////////////////////////
; 298  : 		case INT_TYPE_VALID_SOUND_EFFECT:
; 299  : 		////////////////////////////////////////
; 300  : 		{
; 301  : 			value = raw->valid_sound_effect;

  0013a	8b 45 fc	 mov	 eax, DWORD PTR _raw$[ebp]
  0013d	8b 48 40	 mov	 ecx, DWORD PTR [eax+64]
  00140	c1 e9 08	 shr	 ecx, 8
  00143	83 e1 01	 and	 ecx, 1
  00146	89 4d f8	 mov	 DWORD PTR _value$[ebp], ecx

; 302  : 
; 303  : 			break;

  00149	eb 72		 jmp	 SHORT $LN2@get_local_
$LN15@get_local_:

; 304  : 		}
; 305  : 		////////////////////////////////////////
; 306  : 		default:
; 307  : 		////////////////////////////////////////
; 308  : 		{
; 309  : 			debug_fatal_invalid_int_type (en, type);

  0014b	83 7d 08 00	 cmp	 DWORD PTR _en$[ebp], 0
  0014f	74 0a		 je	 SHORT $LN17@get_local_
  00151	8b 45 08	 mov	 eax, DWORD PTR _en$[ebp]
  00154	8b 08		 mov	 ecx, DWORD PTR [eax]
  00156	89 4d b4	 mov	 DWORD PTR tv158[ebp], ecx
  00159	eb 21		 jmp	 SHORT $LN18@get_local_
$LN17@get_local_:
  0015b	8b 15 00 00 00
	00		 mov	 edx, DWORD PTR ?__LINE__Var@?0??get_local_int_value@@YGHPAUENTITY@@W4INT_TYPES@@@Z@4JA
  00161	83 c2 5d	 add	 edx, 93			; 0000005dH
  00164	52		 push	 edx
  00165	68 00 00 00 00	 push	 OFFSET ??_C@_0FE@FNHMACFI@c?3?2users?2nhv90?2projects?2eech?2ap@
  0016a	a1 00 00 00 00	 mov	 eax, DWORD PTR ?null_entity_pointer_message@@3PBDB ; null_entity_pointer_message
  0016f	50		 push	 eax
  00170	e8 00 00 00 00	 call	 ?process_assert@@YGXPBD0H@Z ; process_assert
  00175	c7 45 b4 00 00
	00 00		 mov	 DWORD PTR tv158[ebp], 0
$LN18@get_local_:
  0017c	8b 0d 00 00 00
	00		 mov	 ecx, DWORD PTR ?__LINE__Var@?0??get_local_int_value@@YGHPAUENTITY@@W4INT_TYPES@@@Z@4JA
  00182	83 c1 5d	 add	 ecx, 93			; 0000005dH
  00185	51		 push	 ecx
  00186	68 00 00 00 00	 push	 OFFSET ??_C@_0FE@FNHMACFI@c?3?2users?2nhv90?2projects?2eech?2ap@
  0018b	6b 55 0c 14	 imul	 edx, DWORD PTR _type$[ebp], 20
  0018f	8b 82 00 00 00
	00		 mov	 eax, DWORD PTR ?int_type_database@@3PAUINT_TYPE_DATA@@A[edx]
  00195	50		 push	 eax
  00196	8b 4d 08	 mov	 ecx, DWORD PTR _en$[ebp]
  00199	2b 0d 00 00 00
	00		 sub	 ecx, DWORD PTR ?entities@@3PAUENTITY@@A ; entities
  0019f	c1 f9 04	 sar	 ecx, 4
  001a2	51		 push	 ecx
  001a3	6b 55 b4 0c	 imul	 edx, DWORD PTR tv158[ebp], 12
  001a7	8b 82 00 00 00
	00		 mov	 eax, DWORD PTR ?entity_type_database@@3PAUENTITY_TYPE_DATA@@A[edx]
  001ad	50		 push	 eax
  001ae	8b 0d 00 00 00
	00		 mov	 ecx, DWORD PTR ?debug_fatal_invalid_int_type_message@@3PBDB ; debug_fatal_invalid_int_type_message
  001b4	51		 push	 ecx
  001b5	e8 00 00 00 00	 call	 ?debug_fatal@@YAXPBDZZ	; debug_fatal
  001ba	83 c4 18	 add	 esp, 24			; 00000018H
$LN2@get_local_:

; 310  : 
; 311  : 			break;
; 312  : 		}
; 313  : 	}
; 314  : 
; 315  : 	return (value);

  001bd	8b 45 f8	 mov	 eax, DWORD PTR _value$[ebp]

; 316  : }

  001c0	5f		 pop	 edi
  001c1	5e		 pop	 esi
  001c2	5b		 pop	 ebx
  001c3	8b e5		 mov	 esp, ebp
  001c5	5d		 pop	 ebp
  001c6	c2 08 00	 ret	 8
  001c9	0f 1f 00	 npad	 3
$LN20@get_local_:
  001cc	00 00 00 00	 DD	 $LN4@get_local_
  001d0	00 00 00 00	 DD	 $LN6@get_local_
  001d4	00 00 00 00	 DD	 $LN7@get_local_
  001d8	00 00 00 00	 DD	 $LN8@get_local_
  001dc	00 00 00 00	 DD	 $LN9@get_local_
  001e0	00 00 00 00	 DD	 $LN10@get_local_
  001e4	00 00 00 00	 DD	 $LN12@get_local_
  001e8	00 00 00 00	 DD	 $LN13@get_local_
  001ec	00 00 00 00	 DD	 $LN14@get_local_
  001f0	00 00 00 00	 DD	 $LN15@get_local_
$LN19@get_local_:
  001f4	00		 DB	 0
  001f5	09		 DB	 9
  001f6	09		 DB	 9
  001f7	09		 DB	 9
  001f8	09		 DB	 9
  001f9	09		 DB	 9
  001fa	09		 DB	 9
  001fb	09		 DB	 9
  001fc	09		 DB	 9
  001fd	09		 DB	 9
  001fe	09		 DB	 9
  001ff	09		 DB	 9
  00200	09		 DB	 9
  00201	09		 DB	 9
  00202	09		 DB	 9
  00203	09		 DB	 9
  00204	09		 DB	 9
  00205	09		 DB	 9
  00206	09		 DB	 9
  00207	09		 DB	 9
  00208	09		 DB	 9
  00209	09		 DB	 9
  0020a	09		 DB	 9
  0020b	09		 DB	 9
  0020c	09		 DB	 9
  0020d	09		 DB	 9
  0020e	09		 DB	 9
  0020f	09		 DB	 9
  00210	09		 DB	 9
  00211	09		 DB	 9
  00212	09		 DB	 9
  00213	09		 DB	 9
  00214	09		 DB	 9
  00215	09		 DB	 9
  00216	09		 DB	 9
  00217	09		 DB	 9
  00218	09		 DB	 9
  00219	09		 DB	 9
  0021a	09		 DB	 9
  0021b	09		 DB	 9
  0021c	09		 DB	 9
  0021d	09		 DB	 9
  0021e	09		 DB	 9
  0021f	09		 DB	 9
  00220	09		 DB	 9
  00221	09		 DB	 9
  00222	09		 DB	 9
  00223	09		 DB	 9
  00224	09		 DB	 9
  00225	09		 DB	 9
  00226	09		 DB	 9
  00227	09		 DB	 9
  00228	09		 DB	 9
  00229	09		 DB	 9
  0022a	09		 DB	 9
  0022b	01		 DB	 1
  0022c	09		 DB	 9
  0022d	09		 DB	 9
  0022e	09		 DB	 9
  0022f	09		 DB	 9
  00230	02		 DB	 2
  00231	09		 DB	 9
  00232	03		 DB	 3
  00233	04		 DB	 4
  00234	05		 DB	 5
  00235	06		 DB	 6
  00236	09		 DB	 9
  00237	07		 DB	 7
  00238	09		 DB	 9
  00239	09		 DB	 9
  0023a	09		 DB	 9
  0023b	09		 DB	 9
  0023c	09		 DB	 9
  0023d	09		 DB	 9
  0023e	09		 DB	 9
  0023f	09		 DB	 9
  00240	09		 DB	 9
  00241	09		 DB	 9
  00242	09		 DB	 9
  00243	09		 DB	 9
  00244	09		 DB	 9
  00245	09		 DB	 9
  00246	09		 DB	 9
  00247	09		 DB	 9
  00248	09		 DB	 9
  00249	09		 DB	 9
  0024a	09		 DB	 9
  0024b	09		 DB	 9
  0024c	09		 DB	 9
  0024d	09		 DB	 9
  0024e	09		 DB	 9
  0024f	09		 DB	 9
  00250	09		 DB	 9
  00251	09		 DB	 9
  00252	09		 DB	 9
  00253	09		 DB	 9
  00254	09		 DB	 9
  00255	09		 DB	 9
  00256	09		 DB	 9
  00257	09		 DB	 9
  00258	09		 DB	 9
  00259	09		 DB	 9
  0025a	09		 DB	 9
  0025b	09		 DB	 9
  0025c	09		 DB	 9
  0025d	09		 DB	 9
  0025e	09		 DB	 9
  0025f	09		 DB	 9
  00260	09		 DB	 9
  00261	08		 DB	 8
?get_local_int_value@@YGHPAUENTITY@@W4INT_TYPES@@@Z ENDP ; get_local_int_value
_TEXT	ENDS
; Function compile flags: /Odtp /ZI
; File c:\users\nhv90\projects\eech\aphavoc\source\entity\special\effect\soundeff\se_int.c
;	COMDAT ?set_client_int_value@@YGXPAUENTITY@@W4INT_TYPES@@H@Z
_TEXT	SEGMENT
_en$ = 8						; size = 4
_type$ = 12						; size = 4
_value$ = 16						; size = 4
?set_client_int_value@@YGXPAUENTITY@@W4INT_TYPES@@H@Z PROC ; set_client_int_value, COMDAT

; 196  : {

  00000	55		 push	 ebp
  00001	8b ec		 mov	 ebp, esp
  00003	83 ec 40	 sub	 esp, 64			; 00000040H
  00006	53		 push	 ebx
  00007	56		 push	 esi
  00008	57		 push	 edi

; 197  : 	if (get_comms_data_flow () == COMMS_DATA_FLOW_TX)

  00009	83 3d 00 00 00
	00 00		 cmp	 DWORD PTR ?system_comms_data_flow@@3W4COMMS_DATA_FLOW_TYPES@@A, 0 ; system_comms_data_flow
  00010	75 34		 jne	 SHORT $LN2@set_client

; 198  : 	{
; 199  : 		validate_client_server_remote_fn ();

  00012	e8 00 00 00 00	 call	 ?assert_client_server_remote_fn@@YGHXZ ; assert_client_server_remote_fn
  00017	85 c0		 test	 eax, eax
  00019	75 18		 jne	 SHORT $LN4@set_client
  0001b	a1 00 00 00 00	 mov	 eax, DWORD PTR ?__LINE__Var@?0??set_client_int_value@@YGXPAUENTITY@@W4INT_TYPES@@H@Z@4JA
  00020	83 c0 03	 add	 eax, 3
  00023	50		 push	 eax
  00024	68 00 00 00 00	 push	 OFFSET ??_C@_0FE@FNHMACFI@c?3?2users?2nhv90?2projects?2eech?2ap@
  00029	68 00 00 00 00	 push	 OFFSET ??_C@_0CC@BNNNEGEG@assert_client_server_remote_fn?5@
  0002e	e8 00 00 00 00	 call	 ?process_assert@@YGXPBD0H@Z ; process_assert
$LN4@set_client:

; 200  : 
; 201  : 		set_remote_int_value (en, type, value);

  00033	8b 45 10	 mov	 eax, DWORD PTR _value$[ebp]
  00036	50		 push	 eax
  00037	8b 4d 0c	 mov	 ecx, DWORD PTR _type$[ebp]
  0003a	51		 push	 ecx
  0003b	8b 55 08	 mov	 edx, DWORD PTR _en$[ebp]
  0003e	52		 push	 edx
  0003f	e8 00 00 00 00	 call	 ?set_remote_int_value@@YGXPAUENTITY@@W4INT_TYPES@@H@Z ; set_remote_int_value

; 202  : 	}
; 203  : 	else

  00044	eb 32		 jmp	 SHORT $LN1@set_client
$LN2@set_client:

; 204  : 	{
; 205  : 		validate_client_server_local_fn ();

  00046	e8 00 00 00 00	 call	 ?assert_client_server_local_fn@@YGHXZ ; assert_client_server_local_fn
  0004b	85 c0		 test	 eax, eax
  0004d	75 18		 jne	 SHORT $LN5@set_client
  0004f	a1 00 00 00 00	 mov	 eax, DWORD PTR ?__LINE__Var@?0??set_client_int_value@@YGXPAUENTITY@@W4INT_TYPES@@H@Z@4JA
  00054	83 c0 09	 add	 eax, 9
  00057	50		 push	 eax
  00058	68 00 00 00 00	 push	 OFFSET ??_C@_0FE@FNHMACFI@c?3?2users?2nhv90?2projects?2eech?2ap@
  0005d	68 00 00 00 00	 push	 OFFSET ??_C@_0CB@CFOCLFOK@assert_client_server_local_fn?5?$CI@
  00062	e8 00 00 00 00	 call	 ?process_assert@@YGXPBD0H@Z ; process_assert
$LN5@set_client:

; 206  : 
; 207  : 		set_local_int_value (en, type, value);

  00067	8b 45 10	 mov	 eax, DWORD PTR _value$[ebp]
  0006a	50		 push	 eax
  0006b	8b 4d 0c	 mov	 ecx, DWORD PTR _type$[ebp]
  0006e	51		 push	 ecx
  0006f	8b 55 08	 mov	 edx, DWORD PTR _en$[ebp]
  00072	52		 push	 edx
  00073	e8 00 00 00 00	 call	 ?set_local_int_value@@YGXPAUENTITY@@W4INT_TYPES@@H@Z ; set_local_int_value
$LN1@set_client:

; 208  : 	}
; 209  : }

  00078	5f		 pop	 edi
  00079	5e		 pop	 esi
  0007a	5b		 pop	 ebx
  0007b	8b e5		 mov	 esp, ebp
  0007d	5d		 pop	 ebp
  0007e	c2 0c 00	 ret	 12			; 0000000cH
?set_client_int_value@@YGXPAUENTITY@@W4INT_TYPES@@H@Z ENDP ; set_client_int_value
_TEXT	ENDS
; Function compile flags: /Odtp /ZI
; File c:\users\nhv90\projects\eech\aphavoc\source\entity\special\effect\soundeff\se_int.c
;	COMDAT ?set_server_int_value@@YGXPAUENTITY@@W4INT_TYPES@@H@Z
_TEXT	SEGMENT
_en$ = 8						; size = 4
_type$ = 12						; size = 4
_value$ = 16						; size = 4
?set_server_int_value@@YGXPAUENTITY@@W4INT_TYPES@@H@Z PROC ; set_server_int_value, COMDAT

; 181  : {

  00000	55		 push	 ebp
  00001	8b ec		 mov	 ebp, esp
  00003	83 ec 40	 sub	 esp, 64			; 00000040H
  00006	53		 push	 ebx
  00007	56		 push	 esi
  00008	57		 push	 edi

; 182  : 	validate_client_server_local_fn ();

  00009	e8 00 00 00 00	 call	 ?assert_client_server_local_fn@@YGHXZ ; assert_client_server_local_fn
  0000e	85 c0		 test	 eax, eax
  00010	75 18		 jne	 SHORT $LN2@set_server
  00012	a1 00 00 00 00	 mov	 eax, DWORD PTR ?__LINE__Var@?0??set_server_int_value@@YGXPAUENTITY@@W4INT_TYPES@@H@Z@4JA
  00017	83 c0 01	 add	 eax, 1
  0001a	50		 push	 eax
  0001b	68 00 00 00 00	 push	 OFFSET ??_C@_0FE@FNHMACFI@c?3?2users?2nhv90?2projects?2eech?2ap@
  00020	68 00 00 00 00	 push	 OFFSET ??_C@_0CB@CFOCLFOK@assert_client_server_local_fn?5?$CI@
  00025	e8 00 00 00 00	 call	 ?process_assert@@YGXPBD0H@Z ; process_assert
$LN2@set_server:

; 183  : 
; 184  : 	set_local_int_value (en, type, value);

  0002a	8b 45 10	 mov	 eax, DWORD PTR _value$[ebp]
  0002d	50		 push	 eax
  0002e	8b 4d 0c	 mov	 ecx, DWORD PTR _type$[ebp]
  00031	51		 push	 ecx
  00032	8b 55 08	 mov	 edx, DWORD PTR _en$[ebp]
  00035	52		 push	 edx
  00036	e8 00 00 00 00	 call	 ?set_local_int_value@@YGXPAUENTITY@@W4INT_TYPES@@H@Z ; set_local_int_value

; 185  : 
; 186  : 	validate_client_server_remote_fn ();

  0003b	e8 00 00 00 00	 call	 ?assert_client_server_remote_fn@@YGHXZ ; assert_client_server_remote_fn
  00040	85 c0		 test	 eax, eax
  00042	75 18		 jne	 SHORT $LN3@set_server
  00044	a1 00 00 00 00	 mov	 eax, DWORD PTR ?__LINE__Var@?0??set_server_int_value@@YGXPAUENTITY@@W4INT_TYPES@@H@Z@4JA
  00049	83 c0 05	 add	 eax, 5
  0004c	50		 push	 eax
  0004d	68 00 00 00 00	 push	 OFFSET ??_C@_0FE@FNHMACFI@c?3?2users?2nhv90?2projects?2eech?2ap@
  00052	68 00 00 00 00	 push	 OFFSET ??_C@_0CC@BNNNEGEG@assert_client_server_remote_fn?5@
  00057	e8 00 00 00 00	 call	 ?process_assert@@YGXPBD0H@Z ; process_assert
$LN3@set_server:

; 187  : 
; 188  : 	set_remote_int_value (en, type, value);

  0005c	8b 45 10	 mov	 eax, DWORD PTR _value$[ebp]
  0005f	50		 push	 eax
  00060	8b 4d 0c	 mov	 ecx, DWORD PTR _type$[ebp]
  00063	51		 push	 ecx
  00064	8b 55 08	 mov	 edx, DWORD PTR _en$[ebp]
  00067	52		 push	 edx
  00068	e8 00 00 00 00	 call	 ?set_remote_int_value@@YGXPAUENTITY@@W4INT_TYPES@@H@Z ; set_remote_int_value

; 189  : }

  0006d	5f		 pop	 edi
  0006e	5e		 pop	 esi
  0006f	5b		 pop	 ebx
  00070	8b e5		 mov	 esp, ebp
  00072	5d		 pop	 ebp
  00073	c2 0c 00	 ret	 12			; 0000000cH
?set_server_int_value@@YGXPAUENTITY@@W4INT_TYPES@@H@Z ENDP ; set_server_int_value
_TEXT	ENDS
; Function compile flags: /Odtp /ZI
; File c:\users\nhv90\projects\eech\aphavoc\source\entity\special\effect\soundeff\se_int.c
;	COMDAT ?set_remote_int_value@@YGXPAUENTITY@@W4INT_TYPES@@H@Z
_TEXT	SEGMENT
_en$ = 8						; size = 4
_type$ = 12						; size = 4
_value$ = 16						; size = 4
?set_remote_int_value@@YGXPAUENTITY@@W4INT_TYPES@@H@Z PROC ; set_remote_int_value, COMDAT

; 166  : {

  00000	55		 push	 ebp
  00001	8b ec		 mov	 ebp, esp
  00003	83 ec 40	 sub	 esp, 64			; 00000040H
  00006	53		 push	 ebx
  00007	56		 push	 esi
  00008	57		 push	 edi

; 167  : 	#if DEBUG_MODULE
; 168  : 
; 169  : 	debug_log_entity_args (ENTITY_DEBUG_REMOTE, ENTITY_DEBUG_INT_VALUE, en, type, value);
; 170  : 
; 171  : 	#endif
; 172  : 
; 173  : 	transmit_entity_comms_message (ENTITY_COMMS_INT_VALUE, en, type, value);

  00009	8b 45 10	 mov	 eax, DWORD PTR _value$[ebp]
  0000c	50		 push	 eax
  0000d	8b 4d 0c	 mov	 ecx, DWORD PTR _type$[ebp]
  00010	51		 push	 ecx
  00011	8b 55 08	 mov	 edx, DWORD PTR _en$[ebp]
  00014	52		 push	 edx
  00015	6a 17		 push	 23			; 00000017H
  00017	e8 00 00 00 00	 call	 ?transmit_entity_comms_message@@YAXW4ENTITY_COMMS_MESSAGES@@PAUENTITY@@ZZ ; transmit_entity_comms_message
  0001c	83 c4 10	 add	 esp, 16			; 00000010H

; 174  : }

  0001f	5f		 pop	 edi
  00020	5e		 pop	 esi
  00021	5b		 pop	 ebx
  00022	8b e5		 mov	 esp, ebp
  00024	5d		 pop	 ebp
  00025	c2 0c 00	 ret	 12			; 0000000cH
?set_remote_int_value@@YGXPAUENTITY@@W4INT_TYPES@@H@Z ENDP ; set_remote_int_value
_TEXT	ENDS
; Function compile flags: /Odtp /ZI
; File c:\users\nhv90\projects\eech\aphavoc\source\entity\special\effect\soundeff\se_int.c
;	COMDAT ?set_local_int_value@@YGXPAUENTITY@@W4INT_TYPES@@H@Z
_TEXT	SEGMENT
tv155 = -72						; size = 4
tv65 = -72						; size = 4
_raw$ = -4						; size = 4
_en$ = 8						; size = 4
_type$ = 12						; size = 4
_value$ = 16						; size = 4
?set_local_int_value@@YGXPAUENTITY@@W4INT_TYPES@@H@Z PROC ; set_local_int_value, COMDAT

; 80   : {

  00000	55		 push	 ebp
  00001	8b ec		 mov	 ebp, esp
  00003	83 ec 48	 sub	 esp, 72			; 00000048H
  00006	53		 push	 ebx
  00007	56		 push	 esi
  00008	57		 push	 edi

; 81   : 	sound_effect
; 82   : 		*raw;
; 83   : 
; 84   : 	#if DEBUG_MODULE
; 85   : 
; 86   : 	debug_log_entity_args (ENTITY_DEBUG_LOCAL, ENTITY_DEBUG_INT_VALUE, en, type, value);
; 87   : 
; 88   : 	#endif
; 89   : 
; 90   : 	raw = (sound_effect *) get_local_entity_data (en);

  00009	8b 45 08	 mov	 eax, DWORD PTR _en$[ebp]
  0000c	8b 48 04	 mov	 ecx, DWORD PTR [eax+4]
  0000f	89 4d fc	 mov	 DWORD PTR _raw$[ebp], ecx

; 91   : 
; 92   : 	switch (type)

  00012	8b 45 0c	 mov	 eax, DWORD PTR _type$[ebp]
  00015	89 45 b8	 mov	 DWORD PTR tv65[ebp], eax
  00018	8b 4d b8	 mov	 ecx, DWORD PTR tv65[ebp]
  0001b	81 e9 bb 00 00
	00		 sub	 ecx, 187		; 000000bbH
  00021	89 4d b8	 mov	 DWORD PTR tv65[ebp], ecx
  00024	83 7d b8 36	 cmp	 DWORD PTR tv65[ebp], 54	; 00000036H
  00028	0f 87 f3 00 00
	00		 ja	 $LN11@set_local_
  0002e	8b 55 b8	 mov	 edx, DWORD PTR tv65[ebp]
  00031	0f b6 82 00 00
	00 00		 movzx	 eax, BYTE PTR $LN15@set_local_[edx]
  00038	ff 24 85 00 00
	00 00		 jmp	 DWORD PTR $LN16@set_local_[eax*4]
$LN4@set_local_:

; 93   : 	{
; 94   : 		////////////////////////////////////////
; 95   : 		case INT_TYPE_SIDE:
; 96   : 		////////////////////////////////////////
; 97   : 		{
; 98   : 			raw->side = value;

  0003f	8b 45 10	 mov	 eax, DWORD PTR _value$[ebp]
  00042	83 e0 03	 and	 eax, 3
  00045	8b 4d fc	 mov	 ecx, DWORD PTR _raw$[ebp]
  00048	8b 51 40	 mov	 edx, DWORD PTR [ecx+64]
  0004b	83 e2 fc	 and	 edx, -4			; fffffffcH
  0004e	0b d0		 or	 edx, eax
  00050	8b 45 fc	 mov	 eax, DWORD PTR _raw$[ebp]
  00053	89 50 40	 mov	 DWORD PTR [eax+64], edx

; 99   : 
; 100  : 			break;

  00056	e9 38 01 00 00	 jmp	 $LN1@set_local_
$LN5@set_local_:

; 101  : 		}
; 102  : 		////////////////////////////////////////
; 103  : 		case INT_TYPE_SOUND_CHANNEL:
; 104  : 		////////////////////////////////////////
; 105  : 		{
; 106  : 			raw->sound_channel = value;

  0005b	8b 45 10	 mov	 eax, DWORD PTR _value$[ebp]
  0005e	83 e0 0f	 and	 eax, 15			; 0000000fH
  00061	c1 e0 02	 shl	 eax, 2
  00064	8b 4d fc	 mov	 ecx, DWORD PTR _raw$[ebp]
  00067	8b 51 40	 mov	 edx, DWORD PTR [ecx+64]
  0006a	83 e2 c3	 and	 edx, -61		; ffffffc3H
  0006d	0b d0		 or	 edx, eax
  0006f	8b 45 fc	 mov	 eax, DWORD PTR _raw$[ebp]
  00072	89 50 40	 mov	 DWORD PTR [eax+64], edx

; 107  : 
; 108  : 			break;

  00075	e9 19 01 00 00	 jmp	 $LN1@set_local_
$LN6@set_local_:

; 109  : 		}
; 110  : 		////////////////////////////////////////
; 111  : 		case INT_TYPE_SOUND_EFFECT_LOOPING:
; 112  : 		////////////////////////////////////////
; 113  : 		{
; 114  : 			raw->looping = value;

  0007a	8b 45 10	 mov	 eax, DWORD PTR _value$[ebp]
  0007d	83 e0 01	 and	 eax, 1
  00080	c1 e0 09	 shl	 eax, 9
  00083	8b 4d fc	 mov	 ecx, DWORD PTR _raw$[ebp]
  00086	8b 51 40	 mov	 edx, DWORD PTR [ecx+64]
  00089	81 e2 ff fd ff
	ff		 and	 edx, -513		; fffffdffH
  0008f	0b d0		 or	 edx, eax
  00091	8b 45 fc	 mov	 eax, DWORD PTR _raw$[ebp]
  00094	89 50 40	 mov	 DWORD PTR [eax+64], edx

; 115  : 
; 116  : 			break;

  00097	e9 f7 00 00 00	 jmp	 $LN1@set_local_
$LN7@set_local_:

; 117  : 		}
; 118  : 		////////////////////////////////////////
; 119  : 		case INT_TYPE_SOUND_EFFECT_PANNING:
; 120  : 		////////////////////////////////////////
; 121  : 		{
; 122  : 			raw->panning = value;

  0009c	8b 45 10	 mov	 eax, DWORD PTR _value$[ebp]
  0009f	83 e0 01	 and	 eax, 1
  000a2	c1 e0 0a	 shl	 eax, 10			; 0000000aH
  000a5	8b 4d fc	 mov	 ecx, DWORD PTR _raw$[ebp]
  000a8	8b 51 40	 mov	 edx, DWORD PTR [ecx+64]
  000ab	81 e2 ff fb ff
	ff		 and	 edx, -1025		; fffffbffH
  000b1	0b d0		 or	 edx, eax
  000b3	8b 45 fc	 mov	 eax, DWORD PTR _raw$[ebp]
  000b6	89 50 40	 mov	 DWORD PTR [eax+64], edx

; 123  : 
; 124  : 			break;

  000b9	e9 d5 00 00 00	 jmp	 $LN1@set_local_
$LN8@set_local_:

; 125  : 		}
; 126  : 		////////////////////////////////////////
; 127  : 		case INT_TYPE_SOUND_EFFECT_SEQUENCE_COUNT:
; 128  : 		////////////////////////////////////////
; 129  : 		{
; 130  : 			raw->sound_effect_sequence_count = value;

  000be	8b 45 10	 mov	 eax, DWORD PTR _value$[ebp]
  000c1	83 e0 0f	 and	 eax, 15			; 0000000fH
  000c4	c1 e0 0b	 shl	 eax, 11			; 0000000bH
  000c7	8b 4d fc	 mov	 ecx, DWORD PTR _raw$[ebp]
  000ca	8b 51 40	 mov	 edx, DWORD PTR [ecx+64]
  000cd	81 e2 ff 87 ff
	ff		 and	 edx, -30721		; ffff87ffH
  000d3	0b d0		 or	 edx, eax
  000d5	8b 45 fc	 mov	 eax, DWORD PTR _raw$[ebp]
  000d8	89 50 40	 mov	 DWORD PTR [eax+64], edx

; 131  : 
; 132  : 			break;

  000db	e9 b3 00 00 00	 jmp	 $LN1@set_local_
$LN9@set_local_:

; 133  : 		}
; 134  : 		////////////////////////////////////////
; 135  : 		case INT_TYPE_SOUND_LOCALITY:
; 136  : 		////////////////////////////////////////
; 137  : 		{
; 138  : 			raw->sound_locality = value;

  000e0	8b 45 10	 mov	 eax, DWORD PTR _value$[ebp]
  000e3	83 e0 03	 and	 eax, 3
  000e6	c1 e0 06	 shl	 eax, 6
  000e9	8b 4d fc	 mov	 ecx, DWORD PTR _raw$[ebp]
  000ec	8b 51 40	 mov	 edx, DWORD PTR [ecx+64]
  000ef	81 e2 3f ff ff
	ff		 and	 edx, -193		; ffffff3fH
  000f5	0b d0		 or	 edx, eax
  000f7	8b 45 fc	 mov	 eax, DWORD PTR _raw$[ebp]
  000fa	89 50 40	 mov	 DWORD PTR [eax+64], edx

; 139  : 
; 140  : 			break;

  000fd	e9 91 00 00 00	 jmp	 $LN1@set_local_
$LN10@set_local_:

; 141  : 		}
; 142  : 		////////////////////////////////////////
; 143  : 		case INT_TYPE_VALID_SOUND_EFFECT:
; 144  : 		////////////////////////////////////////
; 145  : 		{
; 146  : 			raw->valid_sound_effect = value;

  00102	8b 45 10	 mov	 eax, DWORD PTR _value$[ebp]
  00105	83 e0 01	 and	 eax, 1
  00108	c1 e0 08	 shl	 eax, 8
  0010b	8b 4d fc	 mov	 ecx, DWORD PTR _raw$[ebp]
  0010e	8b 51 40	 mov	 edx, DWORD PTR [ecx+64]
  00111	81 e2 ff fe ff
	ff		 and	 edx, -257		; fffffeffH
  00117	0b d0		 or	 edx, eax
  00119	8b 45 fc	 mov	 eax, DWORD PTR _raw$[ebp]
  0011c	89 50 40	 mov	 DWORD PTR [eax+64], edx

; 147  : 
; 148  : 			break;

  0011f	eb 72		 jmp	 SHORT $LN1@set_local_
$LN11@set_local_:

; 149  : 		}
; 150  : 		////////////////////////////////////////
; 151  : 		default:
; 152  : 		////////////////////////////////////////
; 153  : 		{
; 154  : 			debug_fatal_invalid_int_type (en, type);

  00121	83 7d 08 00	 cmp	 DWORD PTR _en$[ebp], 0
  00125	74 0a		 je	 SHORT $LN13@set_local_
  00127	8b 45 08	 mov	 eax, DWORD PTR _en$[ebp]
  0012a	8b 08		 mov	 ecx, DWORD PTR [eax]
  0012c	89 4d b8	 mov	 DWORD PTR tv155[ebp], ecx
  0012f	eb 21		 jmp	 SHORT $LN14@set_local_
$LN13@set_local_:
  00131	8b 15 00 00 00
	00		 mov	 edx, DWORD PTR ?__LINE__Var@?0??set_local_int_value@@YGXPAUENTITY@@W4INT_TYPES@@H@Z@4JA
  00137	83 c2 4a	 add	 edx, 74			; 0000004aH
  0013a	52		 push	 edx
  0013b	68 00 00 00 00	 push	 OFFSET ??_C@_0FE@FNHMACFI@c?3?2users?2nhv90?2projects?2eech?2ap@
  00140	a1 00 00 00 00	 mov	 eax, DWORD PTR ?null_entity_pointer_message@@3PBDB ; null_entity_pointer_message
  00145	50		 push	 eax
  00146	e8 00 00 00 00	 call	 ?process_assert@@YGXPBD0H@Z ; process_assert
  0014b	c7 45 b8 00 00
	00 00		 mov	 DWORD PTR tv155[ebp], 0
$LN14@set_local_:
  00152	8b 0d 00 00 00
	00		 mov	 ecx, DWORD PTR ?__LINE__Var@?0??set_local_int_value@@YGXPAUENTITY@@W4INT_TYPES@@H@Z@4JA
  00158	83 c1 4a	 add	 ecx, 74			; 0000004aH
  0015b	51		 push	 ecx
  0015c	68 00 00 00 00	 push	 OFFSET ??_C@_0FE@FNHMACFI@c?3?2users?2nhv90?2projects?2eech?2ap@
  00161	6b 55 0c 14	 imul	 edx, DWORD PTR _type$[ebp], 20
  00165	8b 82 00 00 00
	00		 mov	 eax, DWORD PTR ?int_type_database@@3PAUINT_TYPE_DATA@@A[edx]
  0016b	50		 push	 eax
  0016c	8b 4d 08	 mov	 ecx, DWORD PTR _en$[ebp]
  0016f	2b 0d 00 00 00
	00		 sub	 ecx, DWORD PTR ?entities@@3PAUENTITY@@A ; entities
  00175	c1 f9 04	 sar	 ecx, 4
  00178	51		 push	 ecx
  00179	6b 55 b8 0c	 imul	 edx, DWORD PTR tv155[ebp], 12
  0017d	8b 82 00 00 00
	00		 mov	 eax, DWORD PTR ?entity_type_database@@3PAUENTITY_TYPE_DATA@@A[edx]
  00183	50		 push	 eax
  00184	8b 0d 00 00 00
	00		 mov	 ecx, DWORD PTR ?debug_fatal_invalid_int_type_message@@3PBDB ; debug_fatal_invalid_int_type_message
  0018a	51		 push	 ecx
  0018b	e8 00 00 00 00	 call	 ?debug_fatal@@YAXPBDZZ	; debug_fatal
  00190	83 c4 18	 add	 esp, 24			; 00000018H
$LN1@set_local_:

; 155  : 
; 156  : 			break;
; 157  : 		}
; 158  : 	}
; 159  : }

  00193	5f		 pop	 edi
  00194	5e		 pop	 esi
  00195	5b		 pop	 ebx
  00196	8b e5		 mov	 esp, ebp
  00198	5d		 pop	 ebp
  00199	c2 0c 00	 ret	 12			; 0000000cH
$LN16@set_local_:
  0019c	00 00 00 00	 DD	 $LN4@set_local_
  001a0	00 00 00 00	 DD	 $LN5@set_local_
  001a4	00 00 00 00	 DD	 $LN6@set_local_
  001a8	00 00 00 00	 DD	 $LN7@set_local_
  001ac	00 00 00 00	 DD	 $LN8@set_local_
  001b0	00 00 00 00	 DD	 $LN9@set_local_
  001b4	00 00 00 00	 DD	 $LN10@set_local_
  001b8	00 00 00 00	 DD	 $LN11@set_local_
$LN15@set_local_:
  001bc	00		 DB	 0
  001bd	07		 DB	 7
  001be	07		 DB	 7
  001bf	07		 DB	 7
  001c0	07		 DB	 7
  001c1	01		 DB	 1
  001c2	07		 DB	 7
  001c3	02		 DB	 2
  001c4	03		 DB	 3
  001c5	07		 DB	 7
  001c6	04		 DB	 4
  001c7	07		 DB	 7
  001c8	05		 DB	 5
  001c9	07		 DB	 7
  001ca	07		 DB	 7
  001cb	07		 DB	 7
  001cc	07		 DB	 7
  001cd	07		 DB	 7
  001ce	07		 DB	 7
  001cf	07		 DB	 7
  001d0	07		 DB	 7
  001d1	07		 DB	 7
  001d2	07		 DB	 7
  001d3	07		 DB	 7
  001d4	07		 DB	 7
  001d5	07		 DB	 7
  001d6	07		 DB	 7
  001d7	07		 DB	 7
  001d8	07		 DB	 7
  001d9	07		 DB	 7
  001da	07		 DB	 7
  001db	07		 DB	 7
  001dc	07		 DB	 7
  001dd	07		 DB	 7
  001de	07		 DB	 7
  001df	07		 DB	 7
  001e0	07		 DB	 7
  001e1	07		 DB	 7
  001e2	07		 DB	 7
  001e3	07		 DB	 7
  001e4	07		 DB	 7
  001e5	07		 DB	 7
  001e6	07		 DB	 7
  001e7	07		 DB	 7
  001e8	07		 DB	 7
  001e9	07		 DB	 7
  001ea	07		 DB	 7
  001eb	07		 DB	 7
  001ec	07		 DB	 7
  001ed	07		 DB	 7
  001ee	07		 DB	 7
  001ef	07		 DB	 7
  001f0	07		 DB	 7
  001f1	07		 DB	 7
  001f2	06		 DB	 6
?set_local_int_value@@YGXPAUENTITY@@W4INT_TYPES@@H@Z ENDP ; set_local_int_value
_TEXT	ENDS
; Function compile flags: /Odtp /ZI
; File c:\users\nhv90\projects\eech\aphavoc\source\entity\special\effect\soundeff\se_int.c
;	COMDAT ?overload_sound_effect_int_value_functions@@YGXXZ
_TEXT	SEGMENT
?overload_sound_effect_int_value_functions@@YGXXZ PROC	; overload_sound_effect_int_value_functions, COMDAT

; 323  : {

  00000	55		 push	 ebp
  00001	8b ec		 mov	 ebp, esp
  00003	83 ec 40	 sub	 esp, 64			; 00000040H
  00006	53		 push	 ebx
  00007	56		 push	 esi
  00008	57		 push	 edi

; 324  : 	fn_get_local_entity_int_value				[ENTITY_TYPE_SOUND_EFFECT][INT_TYPE_MAXIMUM_VOLUME]									= get_local_int_value;

  00009	b8 5c 04 00 00	 mov	 eax, 1116		; 0000045cH
  0000e	c1 e0 05	 shl	 eax, 5
  00011	b9 04 00 00 00	 mov	 ecx, 4
  00016	69 d1 84 00 00
	00		 imul	 edx, ecx, 132
  0001c	c7 84 10 00 00
	00 00 00 00 00
	00		 mov	 DWORD PTR ?fn_get_local_entity_int_value@@3PAY0BBH@P6GHPAUENTITY@@W4INT_TYPES@@@ZA[eax+edx], OFFSET ?get_local_int_value@@YGHPAUENTITY@@W4INT_TYPES@@@Z ; get_local_int_value

; 325  : 
; 326  : 	fn_set_local_entity_raw_int_value		[ENTITY_TYPE_SOUND_EFFECT][INT_TYPE_SIDE]									= set_local_int_value;

  00027	b8 5c 04 00 00	 mov	 eax, 1116		; 0000045cH
  0002c	c1 e0 05	 shl	 eax, 5
  0002f	b9 04 00 00 00	 mov	 ecx, 4
  00034	69 d1 bb 00 00
	00		 imul	 edx, ecx, 187
  0003a	c7 84 10 00 00
	00 00 00 00 00
	00		 mov	 DWORD PTR ?fn_set_local_entity_raw_int_value@@3PAY0BBH@P6GXPAUENTITY@@W4INT_TYPES@@H@ZA[eax+edx], OFFSET ?set_local_int_value@@YGXPAUENTITY@@W4INT_TYPES@@H@Z ; set_local_int_value

; 327  : 	fn_set_local_entity_int_value				[ENTITY_TYPE_SOUND_EFFECT][INT_TYPE_SIDE]									= set_local_int_value;

  00045	b8 5c 04 00 00	 mov	 eax, 1116		; 0000045cH
  0004a	c1 e0 05	 shl	 eax, 5
  0004d	b9 04 00 00 00	 mov	 ecx, 4
  00052	69 d1 bb 00 00
	00		 imul	 edx, ecx, 187
  00058	c7 84 10 00 00
	00 00 00 00 00
	00		 mov	 DWORD PTR ?fn_set_local_entity_int_value@@3PAY0BBH@P6GXPAUENTITY@@W4INT_TYPES@@H@ZA[eax+edx], OFFSET ?set_local_int_value@@YGXPAUENTITY@@W4INT_TYPES@@H@Z ; set_local_int_value

; 328  : 	fn_set_client_server_entity_int_value	[ENTITY_TYPE_SOUND_EFFECT][INT_TYPE_SIDE][COMMS_MODEL_SERVER]		= set_server_int_value;

  00063	b8 b8 08 00 00	 mov	 eax, 2232		; 000008b8H
  00068	c1 e0 05	 shl	 eax, 5
  0006b	b9 08 00 00 00	 mov	 ecx, 8
  00070	69 d1 bb 00 00
	00		 imul	 edx, ecx, 187
  00076	8d 84 10 00 00
	00 00		 lea	 eax, DWORD PTR ?fn_set_client_server_entity_int_value@@3PAY1BBH@1P6GXPAUENTITY@@W4INT_TYPES@@H@ZA[eax+edx]
  0007d	b9 04 00 00 00	 mov	 ecx, 4
  00082	6b d1 00	 imul	 edx, ecx, 0
  00085	c7 04 10 00 00
	00 00		 mov	 DWORD PTR [eax+edx], OFFSET ?set_server_int_value@@YGXPAUENTITY@@W4INT_TYPES@@H@Z ; set_server_int_value

; 329  : 	fn_set_client_server_entity_int_value	[ENTITY_TYPE_SOUND_EFFECT][INT_TYPE_SIDE][COMMS_MODEL_CLIENT]		= set_client_int_value;

  0008c	b8 b8 08 00 00	 mov	 eax, 2232		; 000008b8H
  00091	c1 e0 05	 shl	 eax, 5
  00094	b9 08 00 00 00	 mov	 ecx, 8
  00099	69 d1 bb 00 00
	00		 imul	 edx, ecx, 187
  0009f	8d 84 10 00 00
	00 00		 lea	 eax, DWORD PTR ?fn_set_client_server_entity_int_value@@3PAY1BBH@1P6GXPAUENTITY@@W4INT_TYPES@@H@ZA[eax+edx]
  000a6	b9 04 00 00 00	 mov	 ecx, 4
  000ab	c1 e1 00	 shl	 ecx, 0
  000ae	c7 04 08 00 00
	00 00		 mov	 DWORD PTR [eax+ecx], OFFSET ?set_client_int_value@@YGXPAUENTITY@@W4INT_TYPES@@H@Z ; set_client_int_value

; 330  : 	fn_get_local_entity_int_value				[ENTITY_TYPE_SOUND_EFFECT][INT_TYPE_SIDE]									= get_local_int_value;

  000b5	b8 5c 04 00 00	 mov	 eax, 1116		; 0000045cH
  000ba	c1 e0 05	 shl	 eax, 5
  000bd	b9 04 00 00 00	 mov	 ecx, 4
  000c2	69 d1 bb 00 00
	00		 imul	 edx, ecx, 187
  000c8	c7 84 10 00 00
	00 00 00 00 00
	00		 mov	 DWORD PTR ?fn_get_local_entity_int_value@@3PAY0BBH@P6GHPAUENTITY@@W4INT_TYPES@@@ZA[eax+edx], OFFSET ?get_local_int_value@@YGHPAUENTITY@@W4INT_TYPES@@@Z ; get_local_int_value

; 331  : 
; 332  : 	fn_set_local_entity_raw_int_value		[ENTITY_TYPE_SOUND_EFFECT][INT_TYPE_SOUND_CHANNEL]										= set_local_int_value;

  000d3	b8 5c 04 00 00	 mov	 eax, 1116		; 0000045cH
  000d8	c1 e0 05	 shl	 eax, 5
  000db	b9 04 00 00 00	 mov	 ecx, 4
  000e0	69 d1 c0 00 00
	00		 imul	 edx, ecx, 192
  000e6	c7 84 10 00 00
	00 00 00 00 00
	00		 mov	 DWORD PTR ?fn_set_local_entity_raw_int_value@@3PAY0BBH@P6GXPAUENTITY@@W4INT_TYPES@@H@ZA[eax+edx], OFFSET ?set_local_int_value@@YGXPAUENTITY@@W4INT_TYPES@@H@Z ; set_local_int_value

; 333  : 	fn_set_local_entity_int_value				[ENTITY_TYPE_SOUND_EFFECT][INT_TYPE_SOUND_CHANNEL]										= set_local_int_value;

  000f1	b8 5c 04 00 00	 mov	 eax, 1116		; 0000045cH
  000f6	c1 e0 05	 shl	 eax, 5
  000f9	b9 04 00 00 00	 mov	 ecx, 4
  000fe	69 d1 c0 00 00
	00		 imul	 edx, ecx, 192
  00104	c7 84 10 00 00
	00 00 00 00 00
	00		 mov	 DWORD PTR ?fn_set_local_entity_int_value@@3PAY0BBH@P6GXPAUENTITY@@W4INT_TYPES@@H@ZA[eax+edx], OFFSET ?set_local_int_value@@YGXPAUENTITY@@W4INT_TYPES@@H@Z ; set_local_int_value

; 334  : 	fn_set_client_server_entity_int_value	[ENTITY_TYPE_SOUND_EFFECT][INT_TYPE_SOUND_CHANNEL][COMMS_MODEL_SERVER]			= set_server_int_value;

  0010f	b8 b8 08 00 00	 mov	 eax, 2232		; 000008b8H
  00114	c1 e0 05	 shl	 eax, 5
  00117	b9 08 00 00 00	 mov	 ecx, 8
  0011c	69 d1 c0 00 00
	00		 imul	 edx, ecx, 192
  00122	8d 84 10 00 00
	00 00		 lea	 eax, DWORD PTR ?fn_set_client_server_entity_int_value@@3PAY1BBH@1P6GXPAUENTITY@@W4INT_TYPES@@H@ZA[eax+edx]
  00129	b9 04 00 00 00	 mov	 ecx, 4
  0012e	6b d1 00	 imul	 edx, ecx, 0
  00131	c7 04 10 00 00
	00 00		 mov	 DWORD PTR [eax+edx], OFFSET ?set_server_int_value@@YGXPAUENTITY@@W4INT_TYPES@@H@Z ; set_server_int_value

; 335  : 	fn_set_client_server_entity_int_value	[ENTITY_TYPE_SOUND_EFFECT][INT_TYPE_SOUND_CHANNEL][COMMS_MODEL_CLIENT]			= set_client_int_value;

  00138	b8 b8 08 00 00	 mov	 eax, 2232		; 000008b8H
  0013d	c1 e0 05	 shl	 eax, 5
  00140	b9 08 00 00 00	 mov	 ecx, 8
  00145	69 d1 c0 00 00
	00		 imul	 edx, ecx, 192
  0014b	8d 84 10 00 00
	00 00		 lea	 eax, DWORD PTR ?fn_set_client_server_entity_int_value@@3PAY1BBH@1P6GXPAUENTITY@@W4INT_TYPES@@H@ZA[eax+edx]
  00152	b9 04 00 00 00	 mov	 ecx, 4
  00157	c1 e1 00	 shl	 ecx, 0
  0015a	c7 04 08 00 00
	00 00		 mov	 DWORD PTR [eax+ecx], OFFSET ?set_client_int_value@@YGXPAUENTITY@@W4INT_TYPES@@H@Z ; set_client_int_value

; 336  : 	fn_get_local_entity_int_value				[ENTITY_TYPE_SOUND_EFFECT][INT_TYPE_SOUND_CHANNEL]										= get_local_int_value;

  00161	b8 5c 04 00 00	 mov	 eax, 1116		; 0000045cH
  00166	c1 e0 05	 shl	 eax, 5
  00169	b9 04 00 00 00	 mov	 ecx, 4
  0016e	69 d1 c0 00 00
	00		 imul	 edx, ecx, 192
  00174	c7 84 10 00 00
	00 00 00 00 00
	00		 mov	 DWORD PTR ?fn_get_local_entity_int_value@@3PAY0BBH@P6GHPAUENTITY@@W4INT_TYPES@@@ZA[eax+edx], OFFSET ?get_local_int_value@@YGHPAUENTITY@@W4INT_TYPES@@@Z ; get_local_int_value

; 337  : 
; 338  : 	fn_set_local_entity_raw_int_value		[ENTITY_TYPE_SOUND_EFFECT][INT_TYPE_SOUND_EFFECT_LOOPING]							= set_local_int_value;

  0017f	b8 5c 04 00 00	 mov	 eax, 1116		; 0000045cH
  00184	c1 e0 05	 shl	 eax, 5
  00187	b9 04 00 00 00	 mov	 ecx, 4
  0018c	69 d1 c2 00 00
	00		 imul	 edx, ecx, 194
  00192	c7 84 10 00 00
	00 00 00 00 00
	00		 mov	 DWORD PTR ?fn_set_local_entity_raw_int_value@@3PAY0BBH@P6GXPAUENTITY@@W4INT_TYPES@@H@ZA[eax+edx], OFFSET ?set_local_int_value@@YGXPAUENTITY@@W4INT_TYPES@@H@Z ; set_local_int_value

; 339  : 	fn_set_local_entity_int_value				[ENTITY_TYPE_SOUND_EFFECT][INT_TYPE_SOUND_EFFECT_LOOPING]							= set_local_int_value;

  0019d	b8 5c 04 00 00	 mov	 eax, 1116		; 0000045cH
  001a2	c1 e0 05	 shl	 eax, 5
  001a5	b9 04 00 00 00	 mov	 ecx, 4
  001aa	69 d1 c2 00 00
	00		 imul	 edx, ecx, 194
  001b0	c7 84 10 00 00
	00 00 00 00 00
	00		 mov	 DWORD PTR ?fn_set_local_entity_int_value@@3PAY0BBH@P6GXPAUENTITY@@W4INT_TYPES@@H@ZA[eax+edx], OFFSET ?set_local_int_value@@YGXPAUENTITY@@W4INT_TYPES@@H@Z ; set_local_int_value

; 340  : 	fn_set_client_server_entity_int_value	[ENTITY_TYPE_SOUND_EFFECT][INT_TYPE_SOUND_EFFECT_LOOPING][COMMS_MODEL_SERVER]	= set_server_int_value;

  001bb	b8 b8 08 00 00	 mov	 eax, 2232		; 000008b8H
  001c0	c1 e0 05	 shl	 eax, 5
  001c3	b9 08 00 00 00	 mov	 ecx, 8
  001c8	69 d1 c2 00 00
	00		 imul	 edx, ecx, 194
  001ce	8d 84 10 00 00
	00 00		 lea	 eax, DWORD PTR ?fn_set_client_server_entity_int_value@@3PAY1BBH@1P6GXPAUENTITY@@W4INT_TYPES@@H@ZA[eax+edx]
  001d5	b9 04 00 00 00	 mov	 ecx, 4
  001da	6b d1 00	 imul	 edx, ecx, 0
  001dd	c7 04 10 00 00
	00 00		 mov	 DWORD PTR [eax+edx], OFFSET ?set_server_int_value@@YGXPAUENTITY@@W4INT_TYPES@@H@Z ; set_server_int_value

; 341  : 	fn_set_client_server_entity_int_value	[ENTITY_TYPE_SOUND_EFFECT][INT_TYPE_SOUND_EFFECT_LOOPING][COMMS_MODEL_CLIENT]	= set_client_int_value;

  001e4	b8 b8 08 00 00	 mov	 eax, 2232		; 000008b8H
  001e9	c1 e0 05	 shl	 eax, 5
  001ec	b9 08 00 00 00	 mov	 ecx, 8
  001f1	69 d1 c2 00 00
	00		 imul	 edx, ecx, 194
  001f7	8d 84 10 00 00
	00 00		 lea	 eax, DWORD PTR ?fn_set_client_server_entity_int_value@@3PAY1BBH@1P6GXPAUENTITY@@W4INT_TYPES@@H@ZA[eax+edx]
  001fe	b9 04 00 00 00	 mov	 ecx, 4
  00203	c1 e1 00	 shl	 ecx, 0
  00206	c7 04 08 00 00
	00 00		 mov	 DWORD PTR [eax+ecx], OFFSET ?set_client_int_value@@YGXPAUENTITY@@W4INT_TYPES@@H@Z ; set_client_int_value

; 342  : 	fn_get_local_entity_int_value				[ENTITY_TYPE_SOUND_EFFECT][INT_TYPE_SOUND_EFFECT_LOOPING]							= get_local_int_value;

  0020d	b8 5c 04 00 00	 mov	 eax, 1116		; 0000045cH
  00212	c1 e0 05	 shl	 eax, 5
  00215	b9 04 00 00 00	 mov	 ecx, 4
  0021a	69 d1 c2 00 00
	00		 imul	 edx, ecx, 194
  00220	c7 84 10 00 00
	00 00 00 00 00
	00		 mov	 DWORD PTR ?fn_get_local_entity_int_value@@3PAY0BBH@P6GHPAUENTITY@@W4INT_TYPES@@@ZA[eax+edx], OFFSET ?get_local_int_value@@YGHPAUENTITY@@W4INT_TYPES@@@Z ; get_local_int_value

; 343  : 
; 344  : 	fn_set_local_entity_raw_int_value		[ENTITY_TYPE_SOUND_EFFECT][INT_TYPE_SOUND_EFFECT_PANNING]							= set_local_int_value;

  0022b	b8 5c 04 00 00	 mov	 eax, 1116		; 0000045cH
  00230	c1 e0 05	 shl	 eax, 5
  00233	b9 04 00 00 00	 mov	 ecx, 4
  00238	69 d1 c3 00 00
	00		 imul	 edx, ecx, 195
  0023e	c7 84 10 00 00
	00 00 00 00 00
	00		 mov	 DWORD PTR ?fn_set_local_entity_raw_int_value@@3PAY0BBH@P6GXPAUENTITY@@W4INT_TYPES@@H@ZA[eax+edx], OFFSET ?set_local_int_value@@YGXPAUENTITY@@W4INT_TYPES@@H@Z ; set_local_int_value

; 345  : 	fn_set_local_entity_int_value				[ENTITY_TYPE_SOUND_EFFECT][INT_TYPE_SOUND_EFFECT_PANNING]							= set_local_int_value;

  00249	b8 5c 04 00 00	 mov	 eax, 1116		; 0000045cH
  0024e	c1 e0 05	 shl	 eax, 5
  00251	b9 04 00 00 00	 mov	 ecx, 4
  00256	69 d1 c3 00 00
	00		 imul	 edx, ecx, 195
  0025c	c7 84 10 00 00
	00 00 00 00 00
	00		 mov	 DWORD PTR ?fn_set_local_entity_int_value@@3PAY0BBH@P6GXPAUENTITY@@W4INT_TYPES@@H@ZA[eax+edx], OFFSET ?set_local_int_value@@YGXPAUENTITY@@W4INT_TYPES@@H@Z ; set_local_int_value

; 346  : 	fn_set_client_server_entity_int_value	[ENTITY_TYPE_SOUND_EFFECT][INT_TYPE_SOUND_EFFECT_PANNING][COMMS_MODEL_SERVER]	= set_server_int_value;

  00267	b8 b8 08 00 00	 mov	 eax, 2232		; 000008b8H
  0026c	c1 e0 05	 shl	 eax, 5
  0026f	b9 08 00 00 00	 mov	 ecx, 8
  00274	69 d1 c3 00 00
	00		 imul	 edx, ecx, 195
  0027a	8d 84 10 00 00
	00 00		 lea	 eax, DWORD PTR ?fn_set_client_server_entity_int_value@@3PAY1BBH@1P6GXPAUENTITY@@W4INT_TYPES@@H@ZA[eax+edx]
  00281	b9 04 00 00 00	 mov	 ecx, 4
  00286	6b d1 00	 imul	 edx, ecx, 0
  00289	c7 04 10 00 00
	00 00		 mov	 DWORD PTR [eax+edx], OFFSET ?set_server_int_value@@YGXPAUENTITY@@W4INT_TYPES@@H@Z ; set_server_int_value

; 347  : 	fn_set_client_server_entity_int_value	[ENTITY_TYPE_SOUND_EFFECT][INT_TYPE_SOUND_EFFECT_PANNING][COMMS_MODEL_CLIENT]	= set_client_int_value;

  00290	b8 b8 08 00 00	 mov	 eax, 2232		; 000008b8H
  00295	c1 e0 05	 shl	 eax, 5
  00298	b9 08 00 00 00	 mov	 ecx, 8
  0029d	69 d1 c3 00 00
	00		 imul	 edx, ecx, 195
  002a3	8d 84 10 00 00
	00 00		 lea	 eax, DWORD PTR ?fn_set_client_server_entity_int_value@@3PAY1BBH@1P6GXPAUENTITY@@W4INT_TYPES@@H@ZA[eax+edx]
  002aa	b9 04 00 00 00	 mov	 ecx, 4
  002af	c1 e1 00	 shl	 ecx, 0
  002b2	c7 04 08 00 00
	00 00		 mov	 DWORD PTR [eax+ecx], OFFSET ?set_client_int_value@@YGXPAUENTITY@@W4INT_TYPES@@H@Z ; set_client_int_value

; 348  : 	fn_get_local_entity_int_value				[ENTITY_TYPE_SOUND_EFFECT][INT_TYPE_SOUND_EFFECT_PANNING]							= get_local_int_value;

  002b9	b8 5c 04 00 00	 mov	 eax, 1116		; 0000045cH
  002be	c1 e0 05	 shl	 eax, 5
  002c1	b9 04 00 00 00	 mov	 ecx, 4
  002c6	69 d1 c3 00 00
	00		 imul	 edx, ecx, 195
  002cc	c7 84 10 00 00
	00 00 00 00 00
	00		 mov	 DWORD PTR ?fn_get_local_entity_int_value@@3PAY0BBH@P6GHPAUENTITY@@W4INT_TYPES@@@ZA[eax+edx], OFFSET ?get_local_int_value@@YGHPAUENTITY@@W4INT_TYPES@@@Z ; get_local_int_value

; 349  : 
; 350  : 	fn_get_local_entity_int_value				[ENTITY_TYPE_SOUND_EFFECT][INT_TYPE_SOUND_EFFECT_RATE]								= get_local_int_value;

  002d7	b8 5c 04 00 00	 mov	 eax, 1116		; 0000045cH
  002dc	c1 e0 05	 shl	 eax, 5
  002df	b9 04 00 00 00	 mov	 ecx, 4
  002e4	69 d1 c4 00 00
	00		 imul	 edx, ecx, 196
  002ea	c7 84 10 00 00
	00 00 00 00 00
	00		 mov	 DWORD PTR ?fn_get_local_entity_int_value@@3PAY0BBH@P6GHPAUENTITY@@W4INT_TYPES@@@ZA[eax+edx], OFFSET ?get_local_int_value@@YGHPAUENTITY@@W4INT_TYPES@@@Z ; get_local_int_value

; 351  : 
; 352  : 	fn_set_local_entity_raw_int_value		[ENTITY_TYPE_SOUND_EFFECT][INT_TYPE_SOUND_EFFECT_SEQUENCE_COUNT]								= set_local_int_value;

  002f5	b8 5c 04 00 00	 mov	 eax, 1116		; 0000045cH
  002fa	c1 e0 05	 shl	 eax, 5
  002fd	b9 04 00 00 00	 mov	 ecx, 4
  00302	69 d1 c5 00 00
	00		 imul	 edx, ecx, 197
  00308	c7 84 10 00 00
	00 00 00 00 00
	00		 mov	 DWORD PTR ?fn_set_local_entity_raw_int_value@@3PAY0BBH@P6GXPAUENTITY@@W4INT_TYPES@@H@ZA[eax+edx], OFFSET ?set_local_int_value@@YGXPAUENTITY@@W4INT_TYPES@@H@Z ; set_local_int_value

; 353  : 	fn_set_local_entity_int_value				[ENTITY_TYPE_SOUND_EFFECT][INT_TYPE_SOUND_EFFECT_SEQUENCE_COUNT]								= set_local_int_value;

  00313	b8 5c 04 00 00	 mov	 eax, 1116		; 0000045cH
  00318	c1 e0 05	 shl	 eax, 5
  0031b	b9 04 00 00 00	 mov	 ecx, 4
  00320	69 d1 c5 00 00
	00		 imul	 edx, ecx, 197
  00326	c7 84 10 00 00
	00 00 00 00 00
	00		 mov	 DWORD PTR ?fn_set_local_entity_int_value@@3PAY0BBH@P6GXPAUENTITY@@W4INT_TYPES@@H@ZA[eax+edx], OFFSET ?set_local_int_value@@YGXPAUENTITY@@W4INT_TYPES@@H@Z ; set_local_int_value

; 354  : 	fn_set_client_server_entity_int_value	[ENTITY_TYPE_SOUND_EFFECT][INT_TYPE_SOUND_EFFECT_SEQUENCE_COUNT][COMMS_MODEL_SERVER]	= set_server_int_value;

  00331	b8 b8 08 00 00	 mov	 eax, 2232		; 000008b8H
  00336	c1 e0 05	 shl	 eax, 5
  00339	b9 08 00 00 00	 mov	 ecx, 8
  0033e	69 d1 c5 00 00
	00		 imul	 edx, ecx, 197
  00344	8d 84 10 00 00
	00 00		 lea	 eax, DWORD PTR ?fn_set_client_server_entity_int_value@@3PAY1BBH@1P6GXPAUENTITY@@W4INT_TYPES@@H@ZA[eax+edx]
  0034b	b9 04 00 00 00	 mov	 ecx, 4
  00350	6b d1 00	 imul	 edx, ecx, 0
  00353	c7 04 10 00 00
	00 00		 mov	 DWORD PTR [eax+edx], OFFSET ?set_server_int_value@@YGXPAUENTITY@@W4INT_TYPES@@H@Z ; set_server_int_value

; 355  : 	fn_set_client_server_entity_int_value	[ENTITY_TYPE_SOUND_EFFECT][INT_TYPE_SOUND_EFFECT_SEQUENCE_COUNT][COMMS_MODEL_CLIENT]	= set_client_int_value;

  0035a	b8 b8 08 00 00	 mov	 eax, 2232		; 000008b8H
  0035f	c1 e0 05	 shl	 eax, 5
  00362	b9 08 00 00 00	 mov	 ecx, 8
  00367	69 d1 c5 00 00
	00		 imul	 edx, ecx, 197
  0036d	8d 84 10 00 00
	00 00		 lea	 eax, DWORD PTR ?fn_set_client_server_entity_int_value@@3PAY1BBH@1P6GXPAUENTITY@@W4INT_TYPES@@H@ZA[eax+edx]
  00374	b9 04 00 00 00	 mov	 ecx, 4
  00379	c1 e1 00	 shl	 ecx, 0
  0037c	c7 04 08 00 00
	00 00		 mov	 DWORD PTR [eax+ecx], OFFSET ?set_client_int_value@@YGXPAUENTITY@@W4INT_TYPES@@H@Z ; set_client_int_value

; 356  : 	fn_get_local_entity_int_value				[ENTITY_TYPE_SOUND_EFFECT][INT_TYPE_SOUND_EFFECT_SEQUENCE_COUNT]								= get_local_int_value;

  00383	b8 5c 04 00 00	 mov	 eax, 1116		; 0000045cH
  00388	c1 e0 05	 shl	 eax, 5
  0038b	b9 04 00 00 00	 mov	 ecx, 4
  00390	69 d1 c5 00 00
	00		 imul	 edx, ecx, 197
  00396	c7 84 10 00 00
	00 00 00 00 00
	00		 mov	 DWORD PTR ?fn_get_local_entity_int_value@@3PAY0BBH@P6GHPAUENTITY@@W4INT_TYPES@@@ZA[eax+edx], OFFSET ?get_local_int_value@@YGHPAUENTITY@@W4INT_TYPES@@@Z ; get_local_int_value

; 357  : 
; 358  : 	fn_set_local_entity_raw_int_value		[ENTITY_TYPE_SOUND_EFFECT][INT_TYPE_SOUND_LOCALITY]									= set_local_int_value;

  003a1	b8 5c 04 00 00	 mov	 eax, 1116		; 0000045cH
  003a6	c1 e0 05	 shl	 eax, 5
  003a9	b9 04 00 00 00	 mov	 ecx, 4
  003ae	69 d1 c7 00 00
	00		 imul	 edx, ecx, 199
  003b4	c7 84 10 00 00
	00 00 00 00 00
	00		 mov	 DWORD PTR ?fn_set_local_entity_raw_int_value@@3PAY0BBH@P6GXPAUENTITY@@W4INT_TYPES@@H@ZA[eax+edx], OFFSET ?set_local_int_value@@YGXPAUENTITY@@W4INT_TYPES@@H@Z ; set_local_int_value

; 359  : 	fn_set_local_entity_int_value				[ENTITY_TYPE_SOUND_EFFECT][INT_TYPE_SOUND_LOCALITY]									= set_local_int_value;

  003bf	b8 5c 04 00 00	 mov	 eax, 1116		; 0000045cH
  003c4	c1 e0 05	 shl	 eax, 5
  003c7	b9 04 00 00 00	 mov	 ecx, 4
  003cc	69 d1 c7 00 00
	00		 imul	 edx, ecx, 199
  003d2	c7 84 10 00 00
	00 00 00 00 00
	00		 mov	 DWORD PTR ?fn_set_local_entity_int_value@@3PAY0BBH@P6GXPAUENTITY@@W4INT_TYPES@@H@ZA[eax+edx], OFFSET ?set_local_int_value@@YGXPAUENTITY@@W4INT_TYPES@@H@Z ; set_local_int_value

; 360  : 	fn_set_client_server_entity_int_value	[ENTITY_TYPE_SOUND_EFFECT][INT_TYPE_SOUND_LOCALITY][COMMS_MODEL_SERVER]			= set_server_int_value;

  003dd	b8 b8 08 00 00	 mov	 eax, 2232		; 000008b8H
  003e2	c1 e0 05	 shl	 eax, 5
  003e5	b9 08 00 00 00	 mov	 ecx, 8
  003ea	69 d1 c7 00 00
	00		 imul	 edx, ecx, 199
  003f0	8d 84 10 00 00
	00 00		 lea	 eax, DWORD PTR ?fn_set_client_server_entity_int_value@@3PAY1BBH@1P6GXPAUENTITY@@W4INT_TYPES@@H@ZA[eax+edx]
  003f7	b9 04 00 00 00	 mov	 ecx, 4
  003fc	6b d1 00	 imul	 edx, ecx, 0
  003ff	c7 04 10 00 00
	00 00		 mov	 DWORD PTR [eax+edx], OFFSET ?set_server_int_value@@YGXPAUENTITY@@W4INT_TYPES@@H@Z ; set_server_int_value

; 361  : 	fn_set_client_server_entity_int_value	[ENTITY_TYPE_SOUND_EFFECT][INT_TYPE_SOUND_LOCALITY][COMMS_MODEL_CLIENT]			= set_client_int_value;

  00406	b8 b8 08 00 00	 mov	 eax, 2232		; 000008b8H
  0040b	c1 e0 05	 shl	 eax, 5
  0040e	b9 08 00 00 00	 mov	 ecx, 8
  00413	69 d1 c7 00 00
	00		 imul	 edx, ecx, 199
  00419	8d 84 10 00 00
	00 00		 lea	 eax, DWORD PTR ?fn_set_client_server_entity_int_value@@3PAY1BBH@1P6GXPAUENTITY@@W4INT_TYPES@@H@ZA[eax+edx]
  00420	b9 04 00 00 00	 mov	 ecx, 4
  00425	c1 e1 00	 shl	 ecx, 0
  00428	c7 04 08 00 00
	00 00		 mov	 DWORD PTR [eax+ecx], OFFSET ?set_client_int_value@@YGXPAUENTITY@@W4INT_TYPES@@H@Z ; set_client_int_value

; 362  : 	fn_get_local_entity_int_value				[ENTITY_TYPE_SOUND_EFFECT][INT_TYPE_SOUND_LOCALITY]									= get_local_int_value;

  0042f	b8 5c 04 00 00	 mov	 eax, 1116		; 0000045cH
  00434	c1 e0 05	 shl	 eax, 5
  00437	b9 04 00 00 00	 mov	 ecx, 4
  0043c	69 d1 c7 00 00
	00		 imul	 edx, ecx, 199
  00442	c7 84 10 00 00
	00 00 00 00 00
	00		 mov	 DWORD PTR ?fn_get_local_entity_int_value@@3PAY0BBH@P6GHPAUENTITY@@W4INT_TYPES@@@ZA[eax+edx], OFFSET ?get_local_int_value@@YGHPAUENTITY@@W4INT_TYPES@@@Z ; get_local_int_value

; 363  : 
; 364  : 	fn_set_local_entity_raw_int_value		[ENTITY_TYPE_SOUND_EFFECT][INT_TYPE_VALID_SOUND_EFFECT]								= set_local_int_value;

  0044d	b8 5c 04 00 00	 mov	 eax, 1116		; 0000045cH
  00452	c1 e0 05	 shl	 eax, 5
  00455	b9 04 00 00 00	 mov	 ecx, 4
  0045a	69 d1 f1 00 00
	00		 imul	 edx, ecx, 241
  00460	c7 84 10 00 00
	00 00 00 00 00
	00		 mov	 DWORD PTR ?fn_set_local_entity_raw_int_value@@3PAY0BBH@P6GXPAUENTITY@@W4INT_TYPES@@H@ZA[eax+edx], OFFSET ?set_local_int_value@@YGXPAUENTITY@@W4INT_TYPES@@H@Z ; set_local_int_value

; 365  : 	fn_set_local_entity_int_value				[ENTITY_TYPE_SOUND_EFFECT][INT_TYPE_VALID_SOUND_EFFECT]								= set_local_int_value;

  0046b	b8 5c 04 00 00	 mov	 eax, 1116		; 0000045cH
  00470	c1 e0 05	 shl	 eax, 5
  00473	b9 04 00 00 00	 mov	 ecx, 4
  00478	69 d1 f1 00 00
	00		 imul	 edx, ecx, 241
  0047e	c7 84 10 00 00
	00 00 00 00 00
	00		 mov	 DWORD PTR ?fn_set_local_entity_int_value@@3PAY0BBH@P6GXPAUENTITY@@W4INT_TYPES@@H@ZA[eax+edx], OFFSET ?set_local_int_value@@YGXPAUENTITY@@W4INT_TYPES@@H@Z ; set_local_int_value

; 366  : 	fn_set_client_server_entity_int_value	[ENTITY_TYPE_SOUND_EFFECT][INT_TYPE_VALID_SOUND_EFFECT][COMMS_MODEL_SERVER]	= set_server_int_value;

  00489	b8 b8 08 00 00	 mov	 eax, 2232		; 000008b8H
  0048e	c1 e0 05	 shl	 eax, 5
  00491	b9 08 00 00 00	 mov	 ecx, 8
  00496	69 d1 f1 00 00
	00		 imul	 edx, ecx, 241
  0049c	8d 84 10 00 00
	00 00		 lea	 eax, DWORD PTR ?fn_set_client_server_entity_int_value@@3PAY1BBH@1P6GXPAUENTITY@@W4INT_TYPES@@H@ZA[eax+edx]
  004a3	b9 04 00 00 00	 mov	 ecx, 4
  004a8	6b d1 00	 imul	 edx, ecx, 0
  004ab	c7 04 10 00 00
	00 00		 mov	 DWORD PTR [eax+edx], OFFSET ?set_server_int_value@@YGXPAUENTITY@@W4INT_TYPES@@H@Z ; set_server_int_value

; 367  : 	fn_set_client_server_entity_int_value	[ENTITY_TYPE_SOUND_EFFECT][INT_TYPE_VALID_SOUND_EFFECT][COMMS_MODEL_CLIENT]	= set_client_int_value;

  004b2	b8 b8 08 00 00	 mov	 eax, 2232		; 000008b8H
  004b7	c1 e0 05	 shl	 eax, 5
  004ba	b9 08 00 00 00	 mov	 ecx, 8
  004bf	69 d1 f1 00 00
	00		 imul	 edx, ecx, 241
  004c5	8d 84 10 00 00
	00 00		 lea	 eax, DWORD PTR ?fn_set_client_server_entity_int_value@@3PAY1BBH@1P6GXPAUENTITY@@W4INT_TYPES@@H@ZA[eax+edx]
  004cc	b9 04 00 00 00	 mov	 ecx, 4
  004d1	c1 e1 00	 shl	 ecx, 0
  004d4	c7 04 08 00 00
	00 00		 mov	 DWORD PTR [eax+ecx], OFFSET ?set_client_int_value@@YGXPAUENTITY@@W4INT_TYPES@@H@Z ; set_client_int_value

; 368  : 	fn_get_local_entity_int_value				[ENTITY_TYPE_SOUND_EFFECT][INT_TYPE_VALID_SOUND_EFFECT]								= get_local_int_value;

  004db	b8 5c 04 00 00	 mov	 eax, 1116		; 0000045cH
  004e0	c1 e0 05	 shl	 eax, 5
  004e3	b9 04 00 00 00	 mov	 ecx, 4
  004e8	69 d1 f1 00 00
	00		 imul	 edx, ecx, 241
  004ee	c7 84 10 00 00
	00 00 00 00 00
	00		 mov	 DWORD PTR ?fn_get_local_entity_int_value@@3PAY0BBH@P6GHPAUENTITY@@W4INT_TYPES@@@ZA[eax+edx], OFFSET ?get_local_int_value@@YGHPAUENTITY@@W4INT_TYPES@@@Z ; get_local_int_value

; 369  : }

  004f9	5f		 pop	 edi
  004fa	5e		 pop	 esi
  004fb	5b		 pop	 ebx
  004fc	8b e5		 mov	 esp, ebp
  004fe	5d		 pop	 ebp
  004ff	c3		 ret	 0
?overload_sound_effect_int_value_functions@@YGXXZ ENDP	; overload_sound_effect_int_value_functions
_TEXT	ENDS
END
