; Listing generated by Microsoft (R) Optimizing Compiler Version 19.16.27045.0 

	TITLE	C:\Users\nhv90\Projects\eech\aphavoc\source\ai\highlevl\setup.c
	.686P
	.XMM
	include listing.inc
	.model	flat

INCLUDELIB MSVCRTD
INCLUDELIB OLDNAMES

PUBLIC	?setup_campaign@@YGXXZ				; setup_campaign
PUBLIC	??$max@M@std@@YGABMABM0@Z			; std::max<float>
PUBLIC	??$min@H@std@@YGABHABH0@Z			; std::min<int>
PUBLIC	??_C@_02DKCKIIND@?$CFs@				; `string'
PUBLIC	?__LINE__Var@?0??setup_campaign@@YGXXZ@4JA	; `setup_campaign'::`1'::__LINE__Var
PUBLIC	??_C@_0EA@FHICADLG@c?3?2users?2nhv90?2projects?2eech?2ap@ ; `string'
PUBLIC	??_C@_0CJ@DMBLBJBK@get_comms_model?5?$CI?$CJ?5?$DN?$DN?5COMMS_MOD@ ; `string'
PUBLIC	??_C@_0BG@EFCJJKAA@get_session_entity?5?$CI?$CJ@ ; `string'
PUBLIC	??_C@_05BINPNAAL@force@				; `string'
PUBLIC	?__LINE__Var@?0??create_force_campaign_objectives@@YGXPAUENTITY@@@Z@4JA ; `create_force_campaign_objectives'::`1'::__LINE__Var
PUBLIC	??_C@_0DE@EAENNJPB@SETUP?3?5No?5potential?5campaign?5ob@ ; `string'
PUBLIC	??_C@_0CI@MPBEOMJD@SETUP?3?5No?5sector?5importance?5for@ ; `string'
PUBLIC	??_C@_0BN@PCECFODK@Side?5?$CFs?5Objective?5?3?9?5?$CFs?5?$CI?$CFs?$CJ@ ; `string'
PUBLIC	??_C@_0BD@FEEMDEPI@invalid?5comparator@		; `string'
PUBLIC	??_C@_0GK@JMBMHIBC@c?3?2program?5files?5?$CIx86?$CJ?2microsof@ ; `string'
PUBLIC	??_C@_1NE@FKBPBJEB@?$AAc?$AA?3?$AA?2?$AAp?$AAr?$AAo?$AAg?$AAr?$AAa?$AAm?$AA?5?$AAf?$AAi?$AAl?$AAe@ ; `string'
PUBLIC	??_C@_1BC@ICCOKLEG@?$AAs?$AAt?$AAd?$AA?3?$AA?3?$AAm?$AAa?$AAx@ ; `string'
PUBLIC	??_C@_1CK@NDNHPKPI@?$AA?$CC?$AAi?$AAn?$AAv?$AAa?$AAl?$AAi?$AAd?$AA?5?$AAc?$AAo?$AAm?$AAp?$AAa?$AAr@ ; `string'
PUBLIC	??_C@_1BC@BLAPCBGI@?$AAs?$AAt?$AAd?$AA?3?$AA?3?$AAm?$AAi?$AAn@ ; `string'
PUBLIC	__real@0000000000000000
PUBLIC	__real@3f00002000400080
PUBLIC	__real@447a0000
EXTRN	__imp___invalid_parameter:PROC
EXTRN	__imp___CrtDbgReport:PROC
EXTRN	?process_assert@@YGXPBD0H@Z:PROC		; process_assert
EXTRN	?debug_fatal@@YAXPBDZZ:PROC			; debug_fatal
EXTRN	?debug_log@@YAXPBDZZ:PROC			; debug_log
EXTRN	?malloc_heap_memory@@YGPAXI@Z:PROC		; malloc_heap_memory
EXTRN	?free_mem@@YGXPAX@Z:PROC			; free_mem
EXTRN	?insert_local_entity_into_parents_child_list@@YGXPAUENTITY@@W4LIST_TYPES@@00@Z:PROC ; insert_local_entity_into_parents_child_list
EXTRN	?quicksort_entity_list@@YGXPAPAUENTITY@@HPAM@Z:PROC ; quicksort_entity_list
EXTRN	?get_closest_keysite@@YGPAUENTITY@@HW4ENTITY_SIDES@@PAUVEC3D@@MPAMPAU1@@Z:PROC ; get_closest_keysite
EXTRN	?initialise_order_of_battle@@YGXXZ:PROC		; initialise_order_of_battle
EXTRN	?random_number_seed@@3HA:DWORD			; random_number_seed
EXTRN	?null_entity_pointer_message@@3PBDB:DWORD	; null_entity_pointer_message
EXTRN	?entity_side_short_names@@3PAPBDA:BYTE		; entity_side_short_names
EXTRN	?system_comms_model@@3W4COMMS_MODEL_TYPES@@A:DWORD ; system_comms_model
EXTRN	?overload_invalid_list_type_message@@3PBDB:DWORD ; overload_invalid_list_type_message
EXTRN	?fn_get_local_entity_first_child@@3PAY0CN@P6GPAUENTITY@@PAU1@W4LIST_TYPES@@@ZA:BYTE ; fn_get_local_entity_first_child
EXTRN	?fn_get_local_entity_child_succ@@3PAY0CN@P6GPAUENTITY@@PAU1@W4LIST_TYPES@@@ZA:BYTE ; fn_get_local_entity_child_succ
EXTRN	?overload_invalid_int_type_message@@3PBDB:DWORD	; overload_invalid_int_type_message
EXTRN	?fn_get_local_entity_int_value@@3PAY0BBH@P6GHPAUENTITY@@W4INT_TYPES@@@ZA:BYTE ; fn_get_local_entity_int_value
EXTRN	?overload_invalid_string_type_message@@3PBDB:DWORD ; overload_invalid_string_type_message
EXTRN	?fn_get_local_entity_string@@3PAY0N@P6GPBDPAUENTITY@@W4STRING_TYPES@@@ZA:BYTE ; fn_get_local_entity_string
EXTRN	?overload_invalid_vec3d_type_message@@3PBDB:DWORD ; overload_invalid_vec3d_type_message
EXTRN	?fn_get_local_entity_vec3d_ptr@@3PAY0BI@P6GPAUVEC3D@@PAUENTITY@@W4VEC3D_TYPES@@@ZA:BYTE ; fn_get_local_entity_vec3d_ptr
EXTRN	?session_entity@@3PAUENTITY@@A:DWORD		; session_entity
EXTRN	__fltused:DWORD
;	COMDAT __real@447a0000
CONST	SEGMENT
__real@447a0000 DD 0447a0000r			; 1000
CONST	ENDS
;	COMDAT __real@3f00002000400080
CONST	SEGMENT
__real@3f00002000400080 DQ 03f00002000400080r	; 3.05185e-05
CONST	ENDS
;	COMDAT __real@0000000000000000
CONST	SEGMENT
__real@0000000000000000 DQ 00000000000000000r	; 0
CONST	ENDS
;	COMDAT ??_C@_1BC@BLAPCBGI@?$AAs?$AAt?$AAd?$AA?3?$AA?3?$AAm?$AAi?$AAn@
CONST	SEGMENT
??_C@_1BC@BLAPCBGI@?$AAs?$AAt?$AAd?$AA?3?$AA?3?$AAm?$AAi?$AAn@ DB 's', 00H
	DB	't', 00H, 'd', 00H, ':', 00H, ':', 00H, 'm', 00H, 'i', 00H, 'n'
	DB	00H, 00H, 00H				; `string'
CONST	ENDS
;	COMDAT ??_C@_1CK@NDNHPKPI@?$AA?$CC?$AAi?$AAn?$AAv?$AAa?$AAl?$AAi?$AAd?$AA?5?$AAc?$AAo?$AAm?$AAp?$AAa?$AAr@
CONST	SEGMENT
??_C@_1CK@NDNHPKPI@?$AA?$CC?$AAi?$AAn?$AAv?$AAa?$AAl?$AAi?$AAd?$AA?5?$AAc?$AAo?$AAm?$AAp?$AAa?$AAr@ DB '"'
	DB	00H, 'i', 00H, 'n', 00H, 'v', 00H, 'a', 00H, 'l', 00H, 'i', 00H
	DB	'd', 00H, ' ', 00H, 'c', 00H, 'o', 00H, 'm', 00H, 'p', 00H, 'a'
	DB	00H, 'r', 00H, 'a', 00H, 't', 00H, 'o', 00H, 'r', 00H, '"', 00H
	DB	00H, 00H					; `string'
CONST	ENDS
;	COMDAT ??_C@_1BC@ICCOKLEG@?$AAs?$AAt?$AAd?$AA?3?$AA?3?$AAm?$AAa?$AAx@
CONST	SEGMENT
??_C@_1BC@ICCOKLEG@?$AAs?$AAt?$AAd?$AA?3?$AA?3?$AAm?$AAa?$AAx@ DB 's', 00H
	DB	't', 00H, 'd', 00H, ':', 00H, ':', 00H, 'm', 00H, 'a', 00H, 'x'
	DB	00H, 00H, 00H				; `string'
CONST	ENDS
;	COMDAT ??_C@_1NE@FKBPBJEB@?$AAc?$AA?3?$AA?2?$AAp?$AAr?$AAo?$AAg?$AAr?$AAa?$AAm?$AA?5?$AAf?$AAi?$AAl?$AAe@
CONST	SEGMENT
??_C@_1NE@FKBPBJEB@?$AAc?$AA?3?$AA?2?$AAp?$AAr?$AAo?$AAg?$AAr?$AAa?$AAm?$AA?5?$AAf?$AAi?$AAl?$AAe@ DB 'c'
	DB	00H, ':', 00H, '\', 00H, 'p', 00H, 'r', 00H, 'o', 00H, 'g', 00H
	DB	'r', 00H, 'a', 00H, 'm', 00H, ' ', 00H, 'f', 00H, 'i', 00H, 'l'
	DB	00H, 'e', 00H, 's', 00H, ' ', 00H, '(', 00H, 'x', 00H, '8', 00H
	DB	'6', 00H, ')', 00H, '\', 00H, 'm', 00H, 'i', 00H, 'c', 00H, 'r'
	DB	00H, 'o', 00H, 's', 00H, 'o', 00H, 'f', 00H, 't', 00H, ' ', 00H
	DB	'v', 00H, 'i', 00H, 's', 00H, 'u', 00H, 'a', 00H, 'l', 00H, ' '
	DB	00H, 's', 00H, 't', 00H, 'u', 00H, 'd', 00H, 'i', 00H, 'o', 00H
	DB	'\', 00H, '2', 00H, '0', 00H, '1', 00H, '7', 00H, '\', 00H, 'c'
	DB	00H, 'o', 00H, 'm', 00H, 'm', 00H, 'u', 00H, 'n', 00H, 'i', 00H
	DB	't', 00H, 'y', 00H, '\', 00H, 'v', 00H, 'c', 00H, '\', 00H, 't'
	DB	00H, 'o', 00H, 'o', 00H, 'l', 00H, 's', 00H, '\', 00H, 'm', 00H
	DB	's', 00H, 'v', 00H, 'c', 00H, '\', 00H, '1', 00H, '4', 00H, '.'
	DB	00H, '1', 00H, '6', 00H, '.', 00H, '2', 00H, '7', 00H, '0', 00H
	DB	'2', 00H, '3', 00H, '\', 00H, 'i', 00H, 'n', 00H, 'c', 00H, 'l'
	DB	00H, 'u', 00H, 'd', 00H, 'e', 00H, '\', 00H, 'a', 00H, 'l', 00H
	DB	'g', 00H, 'o', 00H, 'r', 00H, 'i', 00H, 't', 00H, 'h', 00H, 'm'
	DB	00H, 00H, 00H				; `string'
CONST	ENDS
;	COMDAT ??_C@_0GK@JMBMHIBC@c?3?2program?5files?5?$CIx86?$CJ?2microsof@
CONST	SEGMENT
??_C@_0GK@JMBMHIBC@c?3?2program?5files?5?$CIx86?$CJ?2microsof@ DB 'c:\pro'
	DB	'gram files (x86)\microsoft visual studio\2017\community\vc\to'
	DB	'ols\msvc\14.16.27023\include\algorithm', 00H ; `string'
CONST	ENDS
;	COMDAT ??_C@_0BD@FEEMDEPI@invalid?5comparator@
CONST	SEGMENT
??_C@_0BD@FEEMDEPI@invalid?5comparator@ DB 'invalid comparator', 00H ; `string'
CONST	ENDS
;	COMDAT ??_C@_0BN@PCECFODK@Side?5?$CFs?5Objective?5?3?9?5?$CFs?5?$CI?$CFs?$CJ@
CONST	SEGMENT
??_C@_0BN@PCECFODK@Side?5?$CFs?5Objective?5?3?9?5?$CFs?5?$CI?$CFs?$CJ@ DB 'S'
	DB	'ide %s Objective :- %s (%s)', 00H		; `string'
CONST	ENDS
;	COMDAT ??_C@_0CI@MPBEOMJD@SETUP?3?5No?5sector?5importance?5for@
CONST	SEGMENT
??_C@_0CI@MPBEOMJD@SETUP?3?5No?5sector?5importance?5for@ DB 'SETUP: No se'
	DB	'ctor importance for side %s', 00H		; `string'
CONST	ENDS
;	COMDAT ??_C@_0DE@EAENNJPB@SETUP?3?5No?5potential?5campaign?5ob@
CONST	SEGMENT
??_C@_0DE@EAENNJPB@SETUP?3?5No?5potential?5campaign?5ob@ DB 'SETUP: No po'
	DB	'tential campaign objectives for side %s', 00H ; `string'
CONST	ENDS
;	COMDAT ?__LINE__Var@?0??create_force_campaign_objectives@@YGXPAUENTITY@@@Z@4JA
_DATA	SEGMENT
?__LINE__Var@?0??create_force_campaign_objectives@@YGXPAUENTITY@@@Z@4JA DD 07fH ; `create_force_campaign_objectives'::`1'::__LINE__Var
_DATA	ENDS
;	COMDAT ??_C@_05BINPNAAL@force@
CONST	SEGMENT
??_C@_05BINPNAAL@force@ DB 'force', 00H			; `string'
CONST	ENDS
;	COMDAT ??_C@_0BG@EFCJJKAA@get_session_entity?5?$CI?$CJ@
CONST	SEGMENT
??_C@_0BG@EFCJJKAA@get_session_entity?5?$CI?$CJ@ DB 'get_session_entity ('
	DB	')', 00H					; `string'
CONST	ENDS
;	COMDAT ??_C@_0CJ@DMBLBJBK@get_comms_model?5?$CI?$CJ?5?$DN?$DN?5COMMS_MOD@
CONST	SEGMENT
??_C@_0CJ@DMBLBJBK@get_comms_model?5?$CI?$CJ?5?$DN?$DN?5COMMS_MOD@ DB 'ge'
	DB	't_comms_model () == COMMS_MODEL_SERVER', 00H ; `string'
CONST	ENDS
;	COMDAT ??_C@_0EA@FHICADLG@c?3?2users?2nhv90?2projects?2eech?2ap@
CONST	SEGMENT
??_C@_0EA@FHICADLG@c?3?2users?2nhv90?2projects?2eech?2ap@ DB 'c:\users\nh'
	DB	'v90\projects\eech\aphavoc\source\ai\highlevl\setup.c', 00H ; `string'
CONST	ENDS
;	COMDAT ?__LINE__Var@?0??setup_campaign@@YGXXZ@4JA
_DATA	SEGMENT
?__LINE__Var@?0??setup_campaign@@YGXXZ@4JA DD 05cH	; `setup_campaign'::`1'::__LINE__Var
_DATA	ENDS
;	COMDAT ??_C@_02DKCKIIND@?$CFs@
CONST	SEGMENT
??_C@_02DKCKIIND@?$CFs@ DB '%s', 00H			; `string'
CONST	ENDS
; Function compile flags: /Odtp /ZI
; File c:\program files (x86)\microsoft visual studio\2017\community\vc\tools\msvc\14.16.27023\include\algorithm
;	COMDAT ??$min@H@std@@YGABHABH0@Z
_TEXT	SEGMENT
__Left$ = 8						; size = 4
__Right$ = 12						; size = 4
??$min@H@std@@YGABHABH0@Z PROC				; std::min<int>, COMDAT

; 5427 : 	{	// return smaller of _Left and _Right

  00000	55		 push	 ebp
  00001	8b ec		 mov	 ebp, esp
  00003	83 ec 40	 sub	 esp, 64			; 00000040H
  00006	53		 push	 ebx
  00007	56		 push	 esi
  00008	57		 push	 edi

; 5428 : 	if (_Right < _Left)

  00009	8b 45 0c	 mov	 eax, DWORD PTR __Right$[ebp]
  0000c	8b 4d 08	 mov	 ecx, DWORD PTR __Left$[ebp]
  0000f	8b 10		 mov	 edx, DWORD PTR [eax]
  00011	3b 11		 cmp	 edx, DWORD PTR [ecx]
  00013	7d 61		 jge	 SHORT $LN8@min
$LN4@min:

; 5429 : 		{
; 5430 : 		_STL_ASSERT(!(_Left < _Right), "invalid comparator");

  00015	8b 45 08	 mov	 eax, DWORD PTR __Left$[ebp]
  00018	8b 4d 0c	 mov	 ecx, DWORD PTR __Right$[ebp]
  0001b	8b 10		 mov	 edx, DWORD PTR [eax]
  0001d	3b 11		 cmp	 edx, DWORD PTR [ecx]
  0001f	7c 02		 jl	 SHORT $LN7@min
  00021	eb 4a		 jmp	 SHORT $LN2@min
$LN7@min:
  00023	68 00 00 00 00	 push	 OFFSET ??_C@_0BD@FEEMDEPI@invalid?5comparator@
  00028	68 00 00 00 00	 push	 OFFSET ??_C@_02DKCKIIND@?$CFs@
  0002d	6a 00		 push	 0
  0002f	68 36 15 00 00	 push	 5430			; 00001536H
  00034	68 00 00 00 00	 push	 OFFSET ??_C@_0GK@JMBMHIBC@c?3?2program?5files?5?$CIx86?$CJ?2microsof@
  00039	6a 02		 push	 2
  0003b	ff 15 00 00 00
	00		 call	 DWORD PTR __imp___CrtDbgReport
  00041	83 c4 18	 add	 esp, 24			; 00000018H
  00044	83 f8 01	 cmp	 eax, 1
  00047	75 01		 jne	 SHORT $LN12@min
  00049	cc		 int	 3
$LN12@min:
  0004a	6a 00		 push	 0
  0004c	68 36 15 00 00	 push	 5430			; 00001536H
  00051	68 00 00 00 00	 push	 OFFSET ??_C@_1NE@FKBPBJEB@?$AAc?$AA?3?$AA?2?$AAp?$AAr?$AAo?$AAg?$AAr?$AAa?$AAm?$AA?5?$AAf?$AAi?$AAl?$AAe@
  00056	68 00 00 00 00	 push	 OFFSET ??_C@_1BC@BLAPCBGI@?$AAs?$AAt?$AAd?$AA?3?$AA?3?$AAm?$AAi?$AAn@
  0005b	68 00 00 00 00	 push	 OFFSET ??_C@_1CK@NDNHPKPI@?$AA?$CC?$AAi?$AAn?$AAv?$AAa?$AAl?$AAi?$AAd?$AA?5?$AAc?$AAo?$AAm?$AAp?$AAa?$AAr@
  00060	ff 15 00 00 00
	00		 call	 DWORD PTR __imp___invalid_parameter
  00066	83 c4 14	 add	 esp, 20			; 00000014H
  00069	33 c0		 xor	 eax, eax
  0006b	75 b6		 jne	 SHORT $LN7@min
$LN2@min:
  0006d	33 c0		 xor	 eax, eax
  0006f	75 a4		 jne	 SHORT $LN4@min

; 5431 : 		return (_Right);

  00071	8b 45 0c	 mov	 eax, DWORD PTR __Right$[ebp]
  00074	eb 03		 jmp	 SHORT $LN11@min
$LN8@min:

; 5432 : 		}
; 5433 : 
; 5434 : 	return (_Left);

  00076	8b 45 08	 mov	 eax, DWORD PTR __Left$[ebp]
$LN11@min:

; 5435 : 	}

  00079	5f		 pop	 edi
  0007a	5e		 pop	 esi
  0007b	5b		 pop	 ebx
  0007c	8b e5		 mov	 esp, ebp
  0007e	5d		 pop	 ebp
  0007f	c2 08 00	 ret	 8
??$min@H@std@@YGABHABH0@Z ENDP				; std::min<int>
_TEXT	ENDS
; Function compile flags: /Odtp /ZI
; File c:\program files (x86)\microsoft visual studio\2017\community\vc\tools\msvc\14.16.27023\include\algorithm
;	COMDAT ??$max@M@std@@YGABMABM0@Z
_TEXT	SEGMENT
__Left$ = 8						; size = 4
__Right$ = 12						; size = 4
??$max@M@std@@YGABMABM0@Z PROC				; std::max<float>, COMDAT

; 5387 : 	{	// return larger of _Left and _Right

  00000	55		 push	 ebp
  00001	8b ec		 mov	 ebp, esp
  00003	83 ec 40	 sub	 esp, 64			; 00000040H
  00006	53		 push	 ebx
  00007	56		 push	 esi
  00008	57		 push	 edi

; 5388 : 	if (_Left < _Right)

  00009	8b 45 0c	 mov	 eax, DWORD PTR __Right$[ebp]
  0000c	8b 4d 08	 mov	 ecx, DWORD PTR __Left$[ebp]
  0000f	f3 0f 10 00	 movss	 xmm0, DWORD PTR [eax]
  00013	0f 2f 01	 comiss	 xmm0, DWORD PTR [ecx]
  00016	76 64		 jbe	 SHORT $LN8@max
$LN4@max:

; 5389 : 		{
; 5390 : 		_STL_ASSERT(!(_Right < _Left), "invalid comparator");

  00018	8b 45 08	 mov	 eax, DWORD PTR __Left$[ebp]
  0001b	8b 4d 0c	 mov	 ecx, DWORD PTR __Right$[ebp]
  0001e	f3 0f 10 00	 movss	 xmm0, DWORD PTR [eax]
  00022	0f 2f 01	 comiss	 xmm0, DWORD PTR [ecx]
  00025	77 02		 ja	 SHORT $LN9@max
  00027	eb 4a		 jmp	 SHORT $LN6@max
$LN9@max:
  00029	68 00 00 00 00	 push	 OFFSET ??_C@_0BD@FEEMDEPI@invalid?5comparator@
  0002e	68 00 00 00 00	 push	 OFFSET ??_C@_02DKCKIIND@?$CFs@
  00033	6a 00		 push	 0
  00035	68 0e 15 00 00	 push	 5390			; 0000150eH
  0003a	68 00 00 00 00	 push	 OFFSET ??_C@_0GK@JMBMHIBC@c?3?2program?5files?5?$CIx86?$CJ?2microsof@
  0003f	6a 02		 push	 2
  00041	ff 15 00 00 00
	00		 call	 DWORD PTR __imp___CrtDbgReport
  00047	83 c4 18	 add	 esp, 24			; 00000018H
  0004a	83 f8 01	 cmp	 eax, 1
  0004d	75 01		 jne	 SHORT $LN12@max
  0004f	cc		 int	 3
$LN12@max:
  00050	6a 00		 push	 0
  00052	68 0e 15 00 00	 push	 5390			; 0000150eH
  00057	68 00 00 00 00	 push	 OFFSET ??_C@_1NE@FKBPBJEB@?$AAc?$AA?3?$AA?2?$AAp?$AAr?$AAo?$AAg?$AAr?$AAa?$AAm?$AA?5?$AAf?$AAi?$AAl?$AAe@
  0005c	68 00 00 00 00	 push	 OFFSET ??_C@_1BC@ICCOKLEG@?$AAs?$AAt?$AAd?$AA?3?$AA?3?$AAm?$AAa?$AAx@
  00061	68 00 00 00 00	 push	 OFFSET ??_C@_1CK@NDNHPKPI@?$AA?$CC?$AAi?$AAn?$AAv?$AAa?$AAl?$AAi?$AAd?$AA?5?$AAc?$AAo?$AAm?$AAp?$AAa?$AAr@
  00066	ff 15 00 00 00
	00		 call	 DWORD PTR __imp___invalid_parameter
  0006c	83 c4 14	 add	 esp, 20			; 00000014H
  0006f	33 c0		 xor	 eax, eax
  00071	75 b6		 jne	 SHORT $LN9@max
$LN6@max:
  00073	33 c0		 xor	 eax, eax
  00075	75 a1		 jne	 SHORT $LN4@max

; 5391 : 		return (_Right);

  00077	8b 45 0c	 mov	 eax, DWORD PTR __Right$[ebp]
  0007a	eb 03		 jmp	 SHORT $LN1@max
$LN8@max:

; 5392 : 		}
; 5393 : 
; 5394 : 	return (_Left);

  0007c	8b 45 08	 mov	 eax, DWORD PTR __Left$[ebp]
$LN1@max:

; 5395 : 	}

  0007f	5f		 pop	 edi
  00080	5e		 pop	 esi
  00081	5b		 pop	 ebx
  00082	8b e5		 mov	 esp, ebp
  00084	5d		 pop	 ebp
  00085	c2 08 00	 ret	 8
??$max@M@std@@YGABMABM0@Z ENDP				; std::max<float>
_TEXT	ENDS
; Function compile flags: /Odtp /ZI
; File c:\users\nhv90\projects\eech\aphavoc\source\ai\highlevl\setup.c
;	COMDAT ?create_force_campaign_objectives@@YGXPAUENTITY@@@Z
_TEXT	SEGMENT
tv528 = -128						; size = 4
tv520 = -124						; size = 4
tv501 = -120						; size = 4
tv435 = -120						; size = 4
tv415 = -120						; size = 4
tv381 = -120						; size = 4
tv358 = -120						; size = 4
tv339 = -120						; size = 4
tv320 = -120						; size = 4
tv300 = -120						; size = 4
tv278 = -120						; size = 4
tv247 = -120						; size = 4
tv227 = -120						; size = 4
tv205 = -120						; size = 4
tv186 = -120						; size = 4
tv167 = -120						; size = 4
tv145 = -120						; size = 4
tv93 = -120						; size = 4
tv493 = -116						; size = 4
tv427 = -116						; size = 4
tv407 = -116						; size = 4
tv373 = -116						; size = 4
tv351 = -116						; size = 4
tv332 = -116						; size = 4
tv312 = -116						; size = 4
tv292 = -116						; size = 4
tv270 = -116						; size = 4
tv239 = -116						; size = 4
tv219 = -116						; size = 4
tv198 = -116						; size = 4
tv179 = -116						; size = 4
tv159 = -116						; size = 4
tv137 = -116						; size = 4
tv85 = -116						; size = 4
$T1 = -112						; size = 4
_pos$2 = -44						; size = 4
_actual_range$3 = -40					; size = 4
_rating$ = -36						; size = 4
_highest$ = -32						; size = 4
_target_side$ = -28					; size = 4
_side$ = -24						; size = 4
_count$ = -20						; size = 4
_loop$ = -16						; size = 4
_list$ = -12						; size = 4
_target_force$ = -8					; size = 4
_keysite$ = -4						; size = 4
_force$ = 8						; size = 4
?create_force_campaign_objectives@@YGXPAUENTITY@@@Z PROC ; create_force_campaign_objectives, COMDAT

; 127  : {

  00000	55		 push	 ebp
  00001	8b ec		 mov	 ebp, esp
  00003	81 ec 80 00 00
	00		 sub	 esp, 128		; 00000080H
  00009	53		 push	 ebx
  0000a	56		 push	 esi
  0000b	57		 push	 edi

; 128  : 	entity
; 129  : 		*keysite,
; 130  : 		*target_force,
; 131  : 		**list;
; 132  : 
; 133  : 	int
; 134  : 		loop,
; 135  : 		count,
; 136  : 		side,
; 137  : 		target_side;
; 138  : 
; 139  : 	float
; 140  : 		highest,
; 141  : 		*rating;
; 142  : 
; 143  : 	ASSERT (get_comms_model () == COMMS_MODEL_SERVER);

  0000c	83 3d 00 00 00
	00 00		 cmp	 DWORD PTR ?system_comms_model@@3W4COMMS_MODEL_TYPES@@A, 0 ; system_comms_model
  00013	74 18		 je	 SHORT $LN19@create_for
  00015	a1 00 00 00 00	 mov	 eax, DWORD PTR ?__LINE__Var@?0??create_force_campaign_objectives@@YGXPAUENTITY@@@Z@4JA
  0001a	83 c0 10	 add	 eax, 16			; 00000010H
  0001d	50		 push	 eax
  0001e	68 00 00 00 00	 push	 OFFSET ??_C@_0EA@FHICADLG@c?3?2users?2nhv90?2projects?2eech?2ap@
  00023	68 00 00 00 00	 push	 OFFSET ??_C@_0CJ@DMBLBJBK@get_comms_model?5?$CI?$CJ?5?$DN?$DN?5COMMS_MOD@
  00028	e8 00 00 00 00	 call	 ?process_assert@@YGXPBD0H@Z ; process_assert
$LN19@create_for:

; 144  : 
; 145  : 	ASSERT (get_session_entity ());

  0002d	83 3d 00 00 00
	00 00		 cmp	 DWORD PTR ?session_entity@@3PAUENTITY@@A, 0 ; session_entity
  00034	75 18		 jne	 SHORT $LN20@create_for
  00036	a1 00 00 00 00	 mov	 eax, DWORD PTR ?__LINE__Var@?0??create_force_campaign_objectives@@YGXPAUENTITY@@@Z@4JA
  0003b	83 c0 12	 add	 eax, 18			; 00000012H
  0003e	50		 push	 eax
  0003f	68 00 00 00 00	 push	 OFFSET ??_C@_0EA@FHICADLG@c?3?2users?2nhv90?2projects?2eech?2ap@
  00044	68 00 00 00 00	 push	 OFFSET ??_C@_0BG@EFCJJKAA@get_session_entity?5?$CI?$CJ@
  00049	e8 00 00 00 00	 call	 ?process_assert@@YGXPBD0H@Z ; process_assert
$LN20@create_for:

; 146  : 
; 147  : 	ASSERT (force);

  0004e	83 7d 08 00	 cmp	 DWORD PTR _force$[ebp], 0
  00052	75 18		 jne	 SHORT $LN21@create_for
  00054	a1 00 00 00 00	 mov	 eax, DWORD PTR ?__LINE__Var@?0??create_force_campaign_objectives@@YGXPAUENTITY@@@Z@4JA
  00059	83 c0 14	 add	 eax, 20			; 00000014H
  0005c	50		 push	 eax
  0005d	68 00 00 00 00	 push	 OFFSET ??_C@_0EA@FHICADLG@c?3?2users?2nhv90?2projects?2eech?2ap@
  00062	68 00 00 00 00	 push	 OFFSET ??_C@_05BINPNAAL@force@
  00067	e8 00 00 00 00	 call	 ?process_assert@@YGXPBD0H@Z ; process_assert
$LN21@create_for:

; 148  : 
; 149  : 	side = get_local_entity_int_value (force, INT_TYPE_SIDE);

  0006c	83 7d 08 00	 cmp	 DWORD PTR _force$[ebp], 0
  00070	74 0a		 je	 SHORT $LN31@create_for
  00072	8b 45 08	 mov	 eax, DWORD PTR _force$[ebp]
  00075	8b 08		 mov	 ecx, DWORD PTR [eax]
  00077	89 4d 8c	 mov	 DWORD PTR tv85[ebp], ecx
  0007a	eb 21		 jmp	 SHORT $LN32@create_for
$LN31@create_for:
  0007c	8b 15 00 00 00
	00		 mov	 edx, DWORD PTR ?__LINE__Var@?0??create_force_campaign_objectives@@YGXPAUENTITY@@@Z@4JA
  00082	83 c2 16	 add	 edx, 22			; 00000016H
  00085	52		 push	 edx
  00086	68 00 00 00 00	 push	 OFFSET ??_C@_0EA@FHICADLG@c?3?2users?2nhv90?2projects?2eech?2ap@
  0008b	a1 00 00 00 00	 mov	 eax, DWORD PTR ?null_entity_pointer_message@@3PBDB ; null_entity_pointer_message
  00090	50		 push	 eax
  00091	e8 00 00 00 00	 call	 ?process_assert@@YGXPBD0H@Z ; process_assert
  00096	c7 45 8c 00 00
	00 00		 mov	 DWORD PTR tv85[ebp], 0
$LN32@create_for:
  0009d	b9 01 00 00 00	 mov	 ecx, 1
  000a2	85 c9		 test	 ecx, ecx
  000a4	74 09		 je	 SHORT $LN33@create_for
  000a6	c7 45 88 bb 00
	00 00		 mov	 DWORD PTR tv93[ebp], 187 ; 000000bbH
  000ad	eb 21		 jmp	 SHORT $LN34@create_for
$LN33@create_for:
  000af	8b 15 00 00 00
	00		 mov	 edx, DWORD PTR ?__LINE__Var@?0??create_force_campaign_objectives@@YGXPAUENTITY@@@Z@4JA
  000b5	83 c2 16	 add	 edx, 22			; 00000016H
  000b8	52		 push	 edx
  000b9	68 00 00 00 00	 push	 OFFSET ??_C@_0EA@FHICADLG@c?3?2users?2nhv90?2projects?2eech?2ap@
  000be	a1 00 00 00 00	 mov	 eax, DWORD PTR ?overload_invalid_int_type_message@@3PBDB ; overload_invalid_int_type_message
  000c3	50		 push	 eax
  000c4	e8 00 00 00 00	 call	 ?process_assert@@YGXPBD0H@Z ; process_assert
  000c9	c7 45 88 00 00
	00 00		 mov	 DWORD PTR tv93[ebp], 0
$LN34@create_for:
  000d0	68 bb 00 00 00	 push	 187			; 000000bbH
  000d5	8b 4d 08	 mov	 ecx, DWORD PTR _force$[ebp]
  000d8	51		 push	 ecx
  000d9	69 55 8c 5c 04
	00 00		 imul	 edx, DWORD PTR tv85[ebp], 1116
  000e0	8b 45 88	 mov	 eax, DWORD PTR tv93[ebp]
  000e3	8b 8c 82 00 00
	00 00		 mov	 ecx, DWORD PTR ?fn_get_local_entity_int_value@@3PAY0BBH@P6GHPAUENTITY@@W4INT_TYPES@@@ZA[edx+eax*4]
  000ea	ff d1		 call	 ecx
  000ec	89 45 e8	 mov	 DWORD PTR _side$[ebp], eax

; 150  : 
; 151  : 	//
; 152  : 	// count up potential objective keysites
; 153  : 	//
; 154  : 
; 155  : 	count = 0;

  000ef	c7 45 ec 00 00
	00 00		 mov	 DWORD PTR _count$[ebp], 0

; 156  : 
; 157  : 	target_force = get_local_entity_first_child (get_session_entity (), LIST_TYPE_FORCE);

  000f6	83 3d 00 00 00
	00 00		 cmp	 DWORD PTR ?session_entity@@3PAUENTITY@@A, 0 ; session_entity
  000fd	74 0c		 je	 SHORT $LN35@create_for
  000ff	a1 00 00 00 00	 mov	 eax, DWORD PTR ?session_entity@@3PAUENTITY@@A ; session_entity
  00104	8b 08		 mov	 ecx, DWORD PTR [eax]
  00106	89 4d 8c	 mov	 DWORD PTR tv137[ebp], ecx
  00109	eb 21		 jmp	 SHORT $LN36@create_for
$LN35@create_for:
  0010b	8b 15 00 00 00
	00		 mov	 edx, DWORD PTR ?__LINE__Var@?0??create_force_campaign_objectives@@YGXPAUENTITY@@@Z@4JA
  00111	83 c2 1e	 add	 edx, 30			; 0000001eH
  00114	52		 push	 edx
  00115	68 00 00 00 00	 push	 OFFSET ??_C@_0EA@FHICADLG@c?3?2users?2nhv90?2projects?2eech?2ap@
  0011a	a1 00 00 00 00	 mov	 eax, DWORD PTR ?null_entity_pointer_message@@3PBDB ; null_entity_pointer_message
  0011f	50		 push	 eax
  00120	e8 00 00 00 00	 call	 ?process_assert@@YGXPBD0H@Z ; process_assert
  00125	c7 45 8c 00 00
	00 00		 mov	 DWORD PTR tv137[ebp], 0
$LN36@create_for:
  0012c	b9 01 00 00 00	 mov	 ecx, 1
  00131	85 c9		 test	 ecx, ecx
  00133	74 09		 je	 SHORT $LN37@create_for
  00135	c7 45 88 0e 00
	00 00		 mov	 DWORD PTR tv145[ebp], 14 ; 0000000eH
  0013c	eb 21		 jmp	 SHORT $LN38@create_for
$LN37@create_for:
  0013e	8b 15 00 00 00
	00		 mov	 edx, DWORD PTR ?__LINE__Var@?0??create_force_campaign_objectives@@YGXPAUENTITY@@@Z@4JA
  00144	83 c2 1e	 add	 edx, 30			; 0000001eH
  00147	52		 push	 edx
  00148	68 00 00 00 00	 push	 OFFSET ??_C@_0EA@FHICADLG@c?3?2users?2nhv90?2projects?2eech?2ap@
  0014d	a1 00 00 00 00	 mov	 eax, DWORD PTR ?overload_invalid_list_type_message@@3PBDB ; overload_invalid_list_type_message
  00152	50		 push	 eax
  00153	e8 00 00 00 00	 call	 ?process_assert@@YGXPBD0H@Z ; process_assert
  00158	c7 45 88 00 00
	00 00		 mov	 DWORD PTR tv145[ebp], 0
$LN38@create_for:
  0015f	6a 0e		 push	 14			; 0000000eH
  00161	8b 0d 00 00 00
	00		 mov	 ecx, DWORD PTR ?session_entity@@3PAUENTITY@@A ; session_entity
  00167	51		 push	 ecx
  00168	69 55 8c b4 00
	00 00		 imul	 edx, DWORD PTR tv137[ebp], 180
  0016f	8b 45 88	 mov	 eax, DWORD PTR tv145[ebp]
  00172	8b 8c 82 00 00
	00 00		 mov	 ecx, DWORD PTR ?fn_get_local_entity_first_child@@3PAY0CN@P6GPAUENTITY@@PAU1@W4LIST_TYPES@@@ZA[edx+eax*4]
  00179	ff d1		 call	 ecx
  0017b	89 45 f8	 mov	 DWORD PTR _target_force$[ebp], eax
$LN2@create_for:

; 158  : 
; 159  : 	while (target_force)

  0017e	83 7d f8 00	 cmp	 DWORD PTR _target_force$[ebp], 0
  00182	0f 84 a2 02 00
	00		 je	 $LN3@create_for

; 160  : 	{
; 161  : 		if (target_force != force)

  00188	8b 45 f8	 mov	 eax, DWORD PTR _target_force$[ebp]
  0018b	3b 45 08	 cmp	 eax, DWORD PTR _force$[ebp]
  0018e	0f 84 11 02 00
	00		 je	 $LN5@create_for

; 162  : 		{
; 163  : 			keysite = get_local_entity_first_child (target_force, LIST_TYPE_KEYSITE_FORCE);

  00194	83 7d f8 00	 cmp	 DWORD PTR _target_force$[ebp], 0
  00198	74 0a		 je	 SHORT $LN39@create_for
  0019a	8b 45 f8	 mov	 eax, DWORD PTR _target_force$[ebp]
  0019d	8b 08		 mov	 ecx, DWORD PTR [eax]
  0019f	89 4d 8c	 mov	 DWORD PTR tv159[ebp], ecx
  001a2	eb 21		 jmp	 SHORT $LN40@create_for
$LN39@create_for:
  001a4	8b 15 00 00 00
	00		 mov	 edx, DWORD PTR ?__LINE__Var@?0??create_force_campaign_objectives@@YGXPAUENTITY@@@Z@4JA
  001aa	83 c2 24	 add	 edx, 36			; 00000024H
  001ad	52		 push	 edx
  001ae	68 00 00 00 00	 push	 OFFSET ??_C@_0EA@FHICADLG@c?3?2users?2nhv90?2projects?2eech?2ap@
  001b3	a1 00 00 00 00	 mov	 eax, DWORD PTR ?null_entity_pointer_message@@3PBDB ; null_entity_pointer_message
  001b8	50		 push	 eax
  001b9	e8 00 00 00 00	 call	 ?process_assert@@YGXPBD0H@Z ; process_assert
  001be	c7 45 8c 00 00
	00 00		 mov	 DWORD PTR tv159[ebp], 0
$LN40@create_for:
  001c5	b9 01 00 00 00	 mov	 ecx, 1
  001ca	85 c9		 test	 ecx, ecx
  001cc	74 09		 je	 SHORT $LN41@create_for
  001ce	c7 45 88 15 00
	00 00		 mov	 DWORD PTR tv167[ebp], 21 ; 00000015H
  001d5	eb 21		 jmp	 SHORT $LN42@create_for
$LN41@create_for:
  001d7	8b 15 00 00 00
	00		 mov	 edx, DWORD PTR ?__LINE__Var@?0??create_force_campaign_objectives@@YGXPAUENTITY@@@Z@4JA
  001dd	83 c2 24	 add	 edx, 36			; 00000024H
  001e0	52		 push	 edx
  001e1	68 00 00 00 00	 push	 OFFSET ??_C@_0EA@FHICADLG@c?3?2users?2nhv90?2projects?2eech?2ap@
  001e6	a1 00 00 00 00	 mov	 eax, DWORD PTR ?overload_invalid_list_type_message@@3PBDB ; overload_invalid_list_type_message
  001eb	50		 push	 eax
  001ec	e8 00 00 00 00	 call	 ?process_assert@@YGXPBD0H@Z ; process_assert
  001f1	c7 45 88 00 00
	00 00		 mov	 DWORD PTR tv167[ebp], 0
$LN42@create_for:
  001f8	6a 15		 push	 21			; 00000015H
  001fa	8b 4d f8	 mov	 ecx, DWORD PTR _target_force$[ebp]
  001fd	51		 push	 ecx
  001fe	69 55 8c b4 00
	00 00		 imul	 edx, DWORD PTR tv159[ebp], 180
  00205	8b 45 88	 mov	 eax, DWORD PTR tv167[ebp]
  00208	8b 8c 82 00 00
	00 00		 mov	 ecx, DWORD PTR ?fn_get_local_entity_first_child@@3PAY0CN@P6GPAUENTITY@@PAU1@W4LIST_TYPES@@@ZA[edx+eax*4]
  0020f	ff d1		 call	 ecx
  00211	89 45 fc	 mov	 DWORD PTR _keysite$[ebp], eax
$LN4@create_for:

; 164  : 
; 165  : 			while (keysite)

  00214	83 7d fc 00	 cmp	 DWORD PTR _keysite$[ebp], 0
  00218	0f 84 87 01 00
	00		 je	 $LN5@create_for

; 166  : 			{
; 167  : 				if (get_local_entity_int_value (keysite, INT_TYPE_POTENTIAL_CAMPAIGN_OBJECTIVE))

  0021e	83 7d fc 00	 cmp	 DWORD PTR _keysite$[ebp], 0
  00222	74 0a		 je	 SHORT $LN43@create_for
  00224	8b 45 fc	 mov	 eax, DWORD PTR _keysite$[ebp]
  00227	8b 08		 mov	 ecx, DWORD PTR [eax]
  00229	89 4d 8c	 mov	 DWORD PTR tv179[ebp], ecx
  0022c	eb 1d		 jmp	 SHORT $LN44@create_for
$LN43@create_for:
  0022e	68 a7 00 00 00	 push	 167			; 000000a7H
  00233	68 00 00 00 00	 push	 OFFSET ??_C@_0EA@FHICADLG@c?3?2users?2nhv90?2projects?2eech?2ap@
  00238	8b 15 00 00 00
	00		 mov	 edx, DWORD PTR ?null_entity_pointer_message@@3PBDB ; null_entity_pointer_message
  0023e	52		 push	 edx
  0023f	e8 00 00 00 00	 call	 ?process_assert@@YGXPBD0H@Z ; process_assert
  00244	c7 45 8c 00 00
	00 00		 mov	 DWORD PTR tv179[ebp], 0
$LN44@create_for:
  0024b	b8 01 00 00 00	 mov	 eax, 1
  00250	85 c0		 test	 eax, eax
  00252	74 09		 je	 SHORT $LN45@create_for
  00254	c7 45 88 a2 00
	00 00		 mov	 DWORD PTR tv186[ebp], 162 ; 000000a2H
  0025b	eb 1d		 jmp	 SHORT $LN46@create_for
$LN45@create_for:
  0025d	68 a7 00 00 00	 push	 167			; 000000a7H
  00262	68 00 00 00 00	 push	 OFFSET ??_C@_0EA@FHICADLG@c?3?2users?2nhv90?2projects?2eech?2ap@
  00267	8b 0d 00 00 00
	00		 mov	 ecx, DWORD PTR ?overload_invalid_int_type_message@@3PBDB ; overload_invalid_int_type_message
  0026d	51		 push	 ecx
  0026e	e8 00 00 00 00	 call	 ?process_assert@@YGXPBD0H@Z ; process_assert
  00273	c7 45 88 00 00
	00 00		 mov	 DWORD PTR tv186[ebp], 0
$LN46@create_for:
  0027a	68 a2 00 00 00	 push	 162			; 000000a2H
  0027f	8b 55 fc	 mov	 edx, DWORD PTR _keysite$[ebp]
  00282	52		 push	 edx
  00283	69 45 8c 5c 04
	00 00		 imul	 eax, DWORD PTR tv179[ebp], 1116
  0028a	8b 4d 88	 mov	 ecx, DWORD PTR tv186[ebp]
  0028d	8b 94 88 00 00
	00 00		 mov	 edx, DWORD PTR ?fn_get_local_entity_int_value@@3PAY0BBH@P6GHPAUENTITY@@W4INT_TYPES@@@ZA[eax+ecx*4]
  00294	ff d2		 call	 edx
  00296	85 c0		 test	 eax, eax
  00298	0f 84 82 00 00
	00		 je	 $LN24@create_for

; 168  : 				{
; 169  : 					if (get_local_entity_int_value (keysite, INT_TYPE_IN_USE))

  0029e	83 7d fc 00	 cmp	 DWORD PTR _keysite$[ebp], 0
  002a2	74 0a		 je	 SHORT $LN47@create_for
  002a4	8b 45 fc	 mov	 eax, DWORD PTR _keysite$[ebp]
  002a7	8b 08		 mov	 ecx, DWORD PTR [eax]
  002a9	89 4d 8c	 mov	 DWORD PTR tv198[ebp], ecx
  002ac	eb 1d		 jmp	 SHORT $LN48@create_for
$LN47@create_for:
  002ae	68 a9 00 00 00	 push	 169			; 000000a9H
  002b3	68 00 00 00 00	 push	 OFFSET ??_C@_0EA@FHICADLG@c?3?2users?2nhv90?2projects?2eech?2ap@
  002b8	8b 15 00 00 00
	00		 mov	 edx, DWORD PTR ?null_entity_pointer_message@@3PBDB ; null_entity_pointer_message
  002be	52		 push	 edx
  002bf	e8 00 00 00 00	 call	 ?process_assert@@YGXPBD0H@Z ; process_assert
  002c4	c7 45 8c 00 00
	00 00		 mov	 DWORD PTR tv198[ebp], 0
$LN48@create_for:
  002cb	b8 01 00 00 00	 mov	 eax, 1
  002d0	85 c0		 test	 eax, eax
  002d2	74 09		 je	 SHORT $LN49@create_for
  002d4	c7 45 88 6d 00
	00 00		 mov	 DWORD PTR tv205[ebp], 109 ; 0000006dH
  002db	eb 1d		 jmp	 SHORT $LN50@create_for
$LN49@create_for:
  002dd	68 a9 00 00 00	 push	 169			; 000000a9H
  002e2	68 00 00 00 00	 push	 OFFSET ??_C@_0EA@FHICADLG@c?3?2users?2nhv90?2projects?2eech?2ap@
  002e7	8b 0d 00 00 00
	00		 mov	 ecx, DWORD PTR ?overload_invalid_int_type_message@@3PBDB ; overload_invalid_int_type_message
  002ed	51		 push	 ecx
  002ee	e8 00 00 00 00	 call	 ?process_assert@@YGXPBD0H@Z ; process_assert
  002f3	c7 45 88 00 00
	00 00		 mov	 DWORD PTR tv205[ebp], 0
$LN50@create_for:
  002fa	6a 6d		 push	 109			; 0000006dH
  002fc	8b 55 fc	 mov	 edx, DWORD PTR _keysite$[ebp]
  002ff	52		 push	 edx
  00300	69 45 8c 5c 04
	00 00		 imul	 eax, DWORD PTR tv198[ebp], 1116
  00307	8b 4d 88	 mov	 ecx, DWORD PTR tv205[ebp]
  0030a	8b 94 88 00 00
	00 00		 mov	 edx, DWORD PTR ?fn_get_local_entity_int_value@@3PAY0BBH@P6GHPAUENTITY@@W4INT_TYPES@@@ZA[eax+ecx*4]
  00311	ff d2		 call	 edx
  00313	85 c0		 test	 eax, eax
  00315	74 09		 je	 SHORT $LN24@create_for

; 170  : 					{
; 171  : 						count ++;

  00317	8b 45 ec	 mov	 eax, DWORD PTR _count$[ebp]
  0031a	83 c0 01	 add	 eax, 1
  0031d	89 45 ec	 mov	 DWORD PTR _count$[ebp], eax
$LN24@create_for:

; 172  : 					}
; 173  : 				}
; 174  : 
; 175  : 				keysite = get_local_entity_child_succ (keysite, LIST_TYPE_KEYSITE_FORCE);

  00320	83 7d fc 00	 cmp	 DWORD PTR _keysite$[ebp], 0
  00324	74 0a		 je	 SHORT $LN51@create_for
  00326	8b 45 fc	 mov	 eax, DWORD PTR _keysite$[ebp]
  00329	8b 08		 mov	 ecx, DWORD PTR [eax]
  0032b	89 4d 8c	 mov	 DWORD PTR tv219[ebp], ecx
  0032e	eb 21		 jmp	 SHORT $LN52@create_for
$LN51@create_for:
  00330	8b 15 00 00 00
	00		 mov	 edx, DWORD PTR ?__LINE__Var@?0??create_force_campaign_objectives@@YGXPAUENTITY@@@Z@4JA
  00336	83 c2 30	 add	 edx, 48			; 00000030H
  00339	52		 push	 edx
  0033a	68 00 00 00 00	 push	 OFFSET ??_C@_0EA@FHICADLG@c?3?2users?2nhv90?2projects?2eech?2ap@
  0033f	a1 00 00 00 00	 mov	 eax, DWORD PTR ?null_entity_pointer_message@@3PBDB ; null_entity_pointer_message
  00344	50		 push	 eax
  00345	e8 00 00 00 00	 call	 ?process_assert@@YGXPBD0H@Z ; process_assert
  0034a	c7 45 8c 00 00
	00 00		 mov	 DWORD PTR tv219[ebp], 0
$LN52@create_for:
  00351	b9 01 00 00 00	 mov	 ecx, 1
  00356	85 c9		 test	 ecx, ecx
  00358	74 09		 je	 SHORT $LN53@create_for
  0035a	c7 45 88 15 00
	00 00		 mov	 DWORD PTR tv227[ebp], 21 ; 00000015H
  00361	eb 21		 jmp	 SHORT $LN54@create_for
$LN53@create_for:
  00363	8b 15 00 00 00
	00		 mov	 edx, DWORD PTR ?__LINE__Var@?0??create_force_campaign_objectives@@YGXPAUENTITY@@@Z@4JA
  00369	83 c2 30	 add	 edx, 48			; 00000030H
  0036c	52		 push	 edx
  0036d	68 00 00 00 00	 push	 OFFSET ??_C@_0EA@FHICADLG@c?3?2users?2nhv90?2projects?2eech?2ap@
  00372	a1 00 00 00 00	 mov	 eax, DWORD PTR ?overload_invalid_list_type_message@@3PBDB ; overload_invalid_list_type_message
  00377	50		 push	 eax
  00378	e8 00 00 00 00	 call	 ?process_assert@@YGXPBD0H@Z ; process_assert
  0037d	c7 45 88 00 00
	00 00		 mov	 DWORD PTR tv227[ebp], 0
$LN54@create_for:
  00384	6a 15		 push	 21			; 00000015H
  00386	8b 4d fc	 mov	 ecx, DWORD PTR _keysite$[ebp]
  00389	51		 push	 ecx
  0038a	69 55 8c b4 00
	00 00		 imul	 edx, DWORD PTR tv219[ebp], 180
  00391	8b 45 88	 mov	 eax, DWORD PTR tv227[ebp]
  00394	8b 8c 82 00 00
	00 00		 mov	 ecx, DWORD PTR ?fn_get_local_entity_child_succ@@3PAY0CN@P6GPAUENTITY@@PAU1@W4LIST_TYPES@@@ZA[edx+eax*4]
  0039b	ff d1		 call	 ecx
  0039d	89 45 fc	 mov	 DWORD PTR _keysite$[ebp], eax

; 176  : 			}

  003a0	e9 6f fe ff ff	 jmp	 $LN4@create_for
$LN5@create_for:

; 177  : 		}
; 178  : 
; 179  : 		target_force = get_local_entity_child_succ (target_force, LIST_TYPE_FORCE);

  003a5	83 7d f8 00	 cmp	 DWORD PTR _target_force$[ebp], 0
  003a9	74 0a		 je	 SHORT $LN55@create_for
  003ab	8b 45 f8	 mov	 eax, DWORD PTR _target_force$[ebp]
  003ae	8b 08		 mov	 ecx, DWORD PTR [eax]
  003b0	89 4d 8c	 mov	 DWORD PTR tv239[ebp], ecx
  003b3	eb 21		 jmp	 SHORT $LN56@create_for
$LN55@create_for:
  003b5	8b 15 00 00 00
	00		 mov	 edx, DWORD PTR ?__LINE__Var@?0??create_force_campaign_objectives@@YGXPAUENTITY@@@Z@4JA
  003bb	83 c2 34	 add	 edx, 52			; 00000034H
  003be	52		 push	 edx
  003bf	68 00 00 00 00	 push	 OFFSET ??_C@_0EA@FHICADLG@c?3?2users?2nhv90?2projects?2eech?2ap@
  003c4	a1 00 00 00 00	 mov	 eax, DWORD PTR ?null_entity_pointer_message@@3PBDB ; null_entity_pointer_message
  003c9	50		 push	 eax
  003ca	e8 00 00 00 00	 call	 ?process_assert@@YGXPBD0H@Z ; process_assert
  003cf	c7 45 8c 00 00
	00 00		 mov	 DWORD PTR tv239[ebp], 0
$LN56@create_for:
  003d6	b9 01 00 00 00	 mov	 ecx, 1
  003db	85 c9		 test	 ecx, ecx
  003dd	74 09		 je	 SHORT $LN57@create_for
  003df	c7 45 88 0e 00
	00 00		 mov	 DWORD PTR tv247[ebp], 14 ; 0000000eH
  003e6	eb 21		 jmp	 SHORT $LN58@create_for
$LN57@create_for:
  003e8	8b 15 00 00 00
	00		 mov	 edx, DWORD PTR ?__LINE__Var@?0??create_force_campaign_objectives@@YGXPAUENTITY@@@Z@4JA
  003ee	83 c2 34	 add	 edx, 52			; 00000034H
  003f1	52		 push	 edx
  003f2	68 00 00 00 00	 push	 OFFSET ??_C@_0EA@FHICADLG@c?3?2users?2nhv90?2projects?2eech?2ap@
  003f7	a1 00 00 00 00	 mov	 eax, DWORD PTR ?overload_invalid_list_type_message@@3PBDB ; overload_invalid_list_type_message
  003fc	50		 push	 eax
  003fd	e8 00 00 00 00	 call	 ?process_assert@@YGXPBD0H@Z ; process_assert
  00402	c7 45 88 00 00
	00 00		 mov	 DWORD PTR tv247[ebp], 0
$LN58@create_for:
  00409	6a 0e		 push	 14			; 0000000eH
  0040b	8b 4d f8	 mov	 ecx, DWORD PTR _target_force$[ebp]
  0040e	51		 push	 ecx
  0040f	69 55 8c b4 00
	00 00		 imul	 edx, DWORD PTR tv239[ebp], 180
  00416	8b 45 88	 mov	 eax, DWORD PTR tv247[ebp]
  00419	8b 8c 82 00 00
	00 00		 mov	 ecx, DWORD PTR ?fn_get_local_entity_child_succ@@3PAY0CN@P6GPAUENTITY@@PAU1@W4LIST_TYPES@@@ZA[edx+eax*4]
  00420	ff d1		 call	 ecx
  00422	89 45 f8	 mov	 DWORD PTR _target_force$[ebp], eax

; 180  : 	}

  00425	e9 54 fd ff ff	 jmp	 $LN2@create_for
$LN3@create_for:

; 181  : 
; 182  : 	if (count == 0)

  0042a	83 7d ec 00	 cmp	 DWORD PTR _count$[ebp], 0
  0042e	75 18		 jne	 SHORT $LN25@create_for

; 183  : 	{
; 184  : 		debug_fatal ("SETUP: No potential campaign objectives for side %s", entity_side_short_names [side]);

  00430	8b 45 e8	 mov	 eax, DWORD PTR _side$[ebp]
  00433	8b 0c 85 00 00
	00 00		 mov	 ecx, DWORD PTR ?entity_side_short_names@@3PAPBDA[eax*4]
  0043a	51		 push	 ecx
  0043b	68 00 00 00 00	 push	 OFFSET ??_C@_0DE@EAENNJPB@SETUP?3?5No?5potential?5campaign?5ob@
  00440	e8 00 00 00 00	 call	 ?debug_fatal@@YAXPBDZZ	; debug_fatal
  00445	83 c4 08	 add	 esp, 8
$LN25@create_for:

; 185  : 	}
; 186  : 
; 187  : 	//
; 188  : 	// construct the list and rate each keysite according to sector importance
; 189  : 	//
; 190  : 
; 191  : 	list = (entity **) malloc_heap_mem (sizeof (entity *) * count);

  00448	8b 45 ec	 mov	 eax, DWORD PTR _count$[ebp]
  0044b	c1 e0 02	 shl	 eax, 2
  0044e	50		 push	 eax
  0044f	e8 00 00 00 00	 call	 ?malloc_heap_memory@@YGPAXI@Z ; malloc_heap_memory
  00454	89 45 f4	 mov	 DWORD PTR _list$[ebp], eax

; 192  : 
; 193  : 	rating = (float*)malloc_heap_mem (sizeof (float) * count);

  00457	8b 45 ec	 mov	 eax, DWORD PTR _count$[ebp]
  0045a	c1 e0 02	 shl	 eax, 2
  0045d	50		 push	 eax
  0045e	e8 00 00 00 00	 call	 ?malloc_heap_memory@@YGPAXI@Z ; malloc_heap_memory
  00463	89 45 dc	 mov	 DWORD PTR _rating$[ebp], eax

; 194  : 
; 195  : 	highest = 0.0;

  00466	0f 57 c0	 xorps	 xmm0, xmm0
  00469	f3 0f 11 45 e0	 movss	 DWORD PTR _highest$[ebp], xmm0

; 196  : 
; 197  : 	count = 0;

  0046e	c7 45 ec 00 00
	00 00		 mov	 DWORD PTR _count$[ebp], 0

; 198  : 
; 199  : 	target_force = get_local_entity_first_child (get_session_entity (), LIST_TYPE_FORCE);

  00475	83 3d 00 00 00
	00 00		 cmp	 DWORD PTR ?session_entity@@3PAUENTITY@@A, 0 ; session_entity
  0047c	74 0c		 je	 SHORT $LN59@create_for
  0047e	a1 00 00 00 00	 mov	 eax, DWORD PTR ?session_entity@@3PAUENTITY@@A ; session_entity
  00483	8b 08		 mov	 ecx, DWORD PTR [eax]
  00485	89 4d 8c	 mov	 DWORD PTR tv270[ebp], ecx
  00488	eb 21		 jmp	 SHORT $LN60@create_for
$LN59@create_for:
  0048a	8b 15 00 00 00
	00		 mov	 edx, DWORD PTR ?__LINE__Var@?0??create_force_campaign_objectives@@YGXPAUENTITY@@@Z@4JA
  00490	83 c2 48	 add	 edx, 72			; 00000048H
  00493	52		 push	 edx
  00494	68 00 00 00 00	 push	 OFFSET ??_C@_0EA@FHICADLG@c?3?2users?2nhv90?2projects?2eech?2ap@
  00499	a1 00 00 00 00	 mov	 eax, DWORD PTR ?null_entity_pointer_message@@3PBDB ; null_entity_pointer_message
  0049e	50		 push	 eax
  0049f	e8 00 00 00 00	 call	 ?process_assert@@YGXPBD0H@Z ; process_assert
  004a4	c7 45 8c 00 00
	00 00		 mov	 DWORD PTR tv270[ebp], 0
$LN60@create_for:
  004ab	b9 01 00 00 00	 mov	 ecx, 1
  004b0	85 c9		 test	 ecx, ecx
  004b2	74 09		 je	 SHORT $LN61@create_for
  004b4	c7 45 88 0e 00
	00 00		 mov	 DWORD PTR tv278[ebp], 14 ; 0000000eH
  004bb	eb 21		 jmp	 SHORT $LN62@create_for
$LN61@create_for:
  004bd	8b 15 00 00 00
	00		 mov	 edx, DWORD PTR ?__LINE__Var@?0??create_force_campaign_objectives@@YGXPAUENTITY@@@Z@4JA
  004c3	83 c2 48	 add	 edx, 72			; 00000048H
  004c6	52		 push	 edx
  004c7	68 00 00 00 00	 push	 OFFSET ??_C@_0EA@FHICADLG@c?3?2users?2nhv90?2projects?2eech?2ap@
  004cc	a1 00 00 00 00	 mov	 eax, DWORD PTR ?overload_invalid_list_type_message@@3PBDB ; overload_invalid_list_type_message
  004d1	50		 push	 eax
  004d2	e8 00 00 00 00	 call	 ?process_assert@@YGXPBD0H@Z ; process_assert
  004d7	c7 45 88 00 00
	00 00		 mov	 DWORD PTR tv278[ebp], 0
$LN62@create_for:
  004de	6a 0e		 push	 14			; 0000000eH
  004e0	8b 0d 00 00 00
	00		 mov	 ecx, DWORD PTR ?session_entity@@3PAUENTITY@@A ; session_entity
  004e6	51		 push	 ecx
  004e7	69 55 8c b4 00
	00 00		 imul	 edx, DWORD PTR tv270[ebp], 180
  004ee	8b 45 88	 mov	 eax, DWORD PTR tv278[ebp]
  004f1	8b 8c 82 00 00
	00 00		 mov	 ecx, DWORD PTR ?fn_get_local_entity_first_child@@3PAY0CN@P6GPAUENTITY@@PAU1@W4LIST_TYPES@@@ZA[edx+eax*4]
  004f8	ff d1		 call	 ecx
  004fa	89 45 f8	 mov	 DWORD PTR _target_force$[ebp], eax
$LN6@create_for:

; 200  : 
; 201  : 	while (target_force)

  004fd	83 7d f8 00	 cmp	 DWORD PTR _target_force$[ebp], 0
  00501	0f 84 03 04 00
	00		 je	 $LN7@create_for

; 202  : 	{
; 203  : 		if (target_force != force)

  00507	8b 45 f8	 mov	 eax, DWORD PTR _target_force$[ebp]
  0050a	3b 45 08	 cmp	 eax, DWORD PTR _force$[ebp]
  0050d	0f 84 72 03 00
	00		 je	 $LN9@create_for

; 204  : 		{
; 205  : 			target_side = get_local_entity_int_value (target_force, INT_TYPE_SIDE);

  00513	83 7d f8 00	 cmp	 DWORD PTR _target_force$[ebp], 0
  00517	74 0a		 je	 SHORT $LN63@create_for
  00519	8b 45 f8	 mov	 eax, DWORD PTR _target_force$[ebp]
  0051c	8b 08		 mov	 ecx, DWORD PTR [eax]
  0051e	89 4d 8c	 mov	 DWORD PTR tv292[ebp], ecx
  00521	eb 21		 jmp	 SHORT $LN64@create_for
$LN63@create_for:
  00523	8b 15 00 00 00
	00		 mov	 edx, DWORD PTR ?__LINE__Var@?0??create_force_campaign_objectives@@YGXPAUENTITY@@@Z@4JA
  00529	83 c2 4e	 add	 edx, 78			; 0000004eH
  0052c	52		 push	 edx
  0052d	68 00 00 00 00	 push	 OFFSET ??_C@_0EA@FHICADLG@c?3?2users?2nhv90?2projects?2eech?2ap@
  00532	a1 00 00 00 00	 mov	 eax, DWORD PTR ?null_entity_pointer_message@@3PBDB ; null_entity_pointer_message
  00537	50		 push	 eax
  00538	e8 00 00 00 00	 call	 ?process_assert@@YGXPBD0H@Z ; process_assert
  0053d	c7 45 8c 00 00
	00 00		 mov	 DWORD PTR tv292[ebp], 0
$LN64@create_for:
  00544	b9 01 00 00 00	 mov	 ecx, 1
  00549	85 c9		 test	 ecx, ecx
  0054b	74 09		 je	 SHORT $LN65@create_for
  0054d	c7 45 88 bb 00
	00 00		 mov	 DWORD PTR tv300[ebp], 187 ; 000000bbH
  00554	eb 21		 jmp	 SHORT $LN66@create_for
$LN65@create_for:
  00556	8b 15 00 00 00
	00		 mov	 edx, DWORD PTR ?__LINE__Var@?0??create_force_campaign_objectives@@YGXPAUENTITY@@@Z@4JA
  0055c	83 c2 4e	 add	 edx, 78			; 0000004eH
  0055f	52		 push	 edx
  00560	68 00 00 00 00	 push	 OFFSET ??_C@_0EA@FHICADLG@c?3?2users?2nhv90?2projects?2eech?2ap@
  00565	a1 00 00 00 00	 mov	 eax, DWORD PTR ?overload_invalid_int_type_message@@3PBDB ; overload_invalid_int_type_message
  0056a	50		 push	 eax
  0056b	e8 00 00 00 00	 call	 ?process_assert@@YGXPBD0H@Z ; process_assert
  00570	c7 45 88 00 00
	00 00		 mov	 DWORD PTR tv300[ebp], 0
$LN66@create_for:
  00577	68 bb 00 00 00	 push	 187			; 000000bbH
  0057c	8b 4d f8	 mov	 ecx, DWORD PTR _target_force$[ebp]
  0057f	51		 push	 ecx
  00580	69 55 8c 5c 04
	00 00		 imul	 edx, DWORD PTR tv292[ebp], 1116
  00587	8b 45 88	 mov	 eax, DWORD PTR tv300[ebp]
  0058a	8b 8c 82 00 00
	00 00		 mov	 ecx, DWORD PTR ?fn_get_local_entity_int_value@@3PAY0BBH@P6GHPAUENTITY@@W4INT_TYPES@@@ZA[edx+eax*4]
  00591	ff d1		 call	 ecx
  00593	89 45 e4	 mov	 DWORD PTR _target_side$[ebp], eax

; 206  : 
; 207  : 			keysite = get_local_entity_first_child (target_force, LIST_TYPE_KEYSITE_FORCE);

  00596	83 7d f8 00	 cmp	 DWORD PTR _target_force$[ebp], 0
  0059a	74 0a		 je	 SHORT $LN67@create_for
  0059c	8b 45 f8	 mov	 eax, DWORD PTR _target_force$[ebp]
  0059f	8b 08		 mov	 ecx, DWORD PTR [eax]
  005a1	89 4d 8c	 mov	 DWORD PTR tv312[ebp], ecx
  005a4	eb 21		 jmp	 SHORT $LN68@create_for
$LN67@create_for:
  005a6	8b 15 00 00 00
	00		 mov	 edx, DWORD PTR ?__LINE__Var@?0??create_force_campaign_objectives@@YGXPAUENTITY@@@Z@4JA
  005ac	83 c2 50	 add	 edx, 80			; 00000050H
  005af	52		 push	 edx
  005b0	68 00 00 00 00	 push	 OFFSET ??_C@_0EA@FHICADLG@c?3?2users?2nhv90?2projects?2eech?2ap@
  005b5	a1 00 00 00 00	 mov	 eax, DWORD PTR ?null_entity_pointer_message@@3PBDB ; null_entity_pointer_message
  005ba	50		 push	 eax
  005bb	e8 00 00 00 00	 call	 ?process_assert@@YGXPBD0H@Z ; process_assert
  005c0	c7 45 8c 00 00
	00 00		 mov	 DWORD PTR tv312[ebp], 0
$LN68@create_for:
  005c7	b9 01 00 00 00	 mov	 ecx, 1
  005cc	85 c9		 test	 ecx, ecx
  005ce	74 09		 je	 SHORT $LN69@create_for
  005d0	c7 45 88 15 00
	00 00		 mov	 DWORD PTR tv320[ebp], 21 ; 00000015H
  005d7	eb 21		 jmp	 SHORT $LN70@create_for
$LN69@create_for:
  005d9	8b 15 00 00 00
	00		 mov	 edx, DWORD PTR ?__LINE__Var@?0??create_force_campaign_objectives@@YGXPAUENTITY@@@Z@4JA
  005df	83 c2 50	 add	 edx, 80			; 00000050H
  005e2	52		 push	 edx
  005e3	68 00 00 00 00	 push	 OFFSET ??_C@_0EA@FHICADLG@c?3?2users?2nhv90?2projects?2eech?2ap@
  005e8	a1 00 00 00 00	 mov	 eax, DWORD PTR ?overload_invalid_list_type_message@@3PBDB ; overload_invalid_list_type_message
  005ed	50		 push	 eax
  005ee	e8 00 00 00 00	 call	 ?process_assert@@YGXPBD0H@Z ; process_assert
  005f3	c7 45 88 00 00
	00 00		 mov	 DWORD PTR tv320[ebp], 0
$LN70@create_for:
  005fa	6a 15		 push	 21			; 00000015H
  005fc	8b 4d f8	 mov	 ecx, DWORD PTR _target_force$[ebp]
  005ff	51		 push	 ecx
  00600	69 55 8c b4 00
	00 00		 imul	 edx, DWORD PTR tv312[ebp], 180
  00607	8b 45 88	 mov	 eax, DWORD PTR tv320[ebp]
  0060a	8b 8c 82 00 00
	00 00		 mov	 ecx, DWORD PTR ?fn_get_local_entity_first_child@@3PAY0CN@P6GPAUENTITY@@PAU1@W4LIST_TYPES@@@ZA[edx+eax*4]
  00611	ff d1		 call	 ecx
  00613	89 45 fc	 mov	 DWORD PTR _keysite$[ebp], eax
$LN8@create_for:

; 208  : 
; 209  : 			while (keysite)

  00616	83 7d fc 00	 cmp	 DWORD PTR _keysite$[ebp], 0
  0061a	0f 84 65 02 00
	00		 je	 $LN9@create_for

; 210  : 			{
; 211  : 				if (get_local_entity_int_value (keysite, INT_TYPE_POTENTIAL_CAMPAIGN_OBJECTIVE))

  00620	83 7d fc 00	 cmp	 DWORD PTR _keysite$[ebp], 0
  00624	74 0a		 je	 SHORT $LN71@create_for
  00626	8b 45 fc	 mov	 eax, DWORD PTR _keysite$[ebp]
  00629	8b 08		 mov	 ecx, DWORD PTR [eax]
  0062b	89 4d 8c	 mov	 DWORD PTR tv332[ebp], ecx
  0062e	eb 1d		 jmp	 SHORT $LN72@create_for
$LN71@create_for:
  00630	68 d3 00 00 00	 push	 211			; 000000d3H
  00635	68 00 00 00 00	 push	 OFFSET ??_C@_0EA@FHICADLG@c?3?2users?2nhv90?2projects?2eech?2ap@
  0063a	8b 15 00 00 00
	00		 mov	 edx, DWORD PTR ?null_entity_pointer_message@@3PBDB ; null_entity_pointer_message
  00640	52		 push	 edx
  00641	e8 00 00 00 00	 call	 ?process_assert@@YGXPBD0H@Z ; process_assert
  00646	c7 45 8c 00 00
	00 00		 mov	 DWORD PTR tv332[ebp], 0
$LN72@create_for:
  0064d	b8 01 00 00 00	 mov	 eax, 1
  00652	85 c0		 test	 eax, eax
  00654	74 09		 je	 SHORT $LN73@create_for
  00656	c7 45 88 a2 00
	00 00		 mov	 DWORD PTR tv339[ebp], 162 ; 000000a2H
  0065d	eb 1d		 jmp	 SHORT $LN74@create_for
$LN73@create_for:
  0065f	68 d3 00 00 00	 push	 211			; 000000d3H
  00664	68 00 00 00 00	 push	 OFFSET ??_C@_0EA@FHICADLG@c?3?2users?2nhv90?2projects?2eech?2ap@
  00669	8b 0d 00 00 00
	00		 mov	 ecx, DWORD PTR ?overload_invalid_int_type_message@@3PBDB ; overload_invalid_int_type_message
  0066f	51		 push	 ecx
  00670	e8 00 00 00 00	 call	 ?process_assert@@YGXPBD0H@Z ; process_assert
  00675	c7 45 88 00 00
	00 00		 mov	 DWORD PTR tv339[ebp], 0
$LN74@create_for:
  0067c	68 a2 00 00 00	 push	 162			; 000000a2H
  00681	8b 55 fc	 mov	 edx, DWORD PTR _keysite$[ebp]
  00684	52		 push	 edx
  00685	69 45 8c 5c 04
	00 00		 imul	 eax, DWORD PTR tv332[ebp], 1116
  0068c	8b 4d 88	 mov	 ecx, DWORD PTR tv339[ebp]
  0068f	8b 94 88 00 00
	00 00		 mov	 edx, DWORD PTR ?fn_get_local_entity_int_value@@3PAY0BBH@P6GHPAUENTITY@@W4INT_TYPES@@@ZA[eax+ecx*4]
  00696	ff d2		 call	 edx
  00698	85 c0		 test	 eax, eax
  0069a	0f 84 60 01 00
	00		 je	 $LN28@create_for

; 212  : 				{
; 213  : 					if (get_local_entity_int_value (keysite, INT_TYPE_IN_USE))

  006a0	83 7d fc 00	 cmp	 DWORD PTR _keysite$[ebp], 0
  006a4	74 0a		 je	 SHORT $LN75@create_for
  006a6	8b 45 fc	 mov	 eax, DWORD PTR _keysite$[ebp]
  006a9	8b 08		 mov	 ecx, DWORD PTR [eax]
  006ab	89 4d 8c	 mov	 DWORD PTR tv351[ebp], ecx
  006ae	eb 1d		 jmp	 SHORT $LN76@create_for
$LN75@create_for:
  006b0	68 d5 00 00 00	 push	 213			; 000000d5H
  006b5	68 00 00 00 00	 push	 OFFSET ??_C@_0EA@FHICADLG@c?3?2users?2nhv90?2projects?2eech?2ap@
  006ba	8b 15 00 00 00
	00		 mov	 edx, DWORD PTR ?null_entity_pointer_message@@3PBDB ; null_entity_pointer_message
  006c0	52		 push	 edx
  006c1	e8 00 00 00 00	 call	 ?process_assert@@YGXPBD0H@Z ; process_assert
  006c6	c7 45 8c 00 00
	00 00		 mov	 DWORD PTR tv351[ebp], 0
$LN76@create_for:
  006cd	b8 01 00 00 00	 mov	 eax, 1
  006d2	85 c0		 test	 eax, eax
  006d4	74 09		 je	 SHORT $LN77@create_for
  006d6	c7 45 88 6d 00
	00 00		 mov	 DWORD PTR tv358[ebp], 109 ; 0000006dH
  006dd	eb 1d		 jmp	 SHORT $LN78@create_for
$LN77@create_for:
  006df	68 d5 00 00 00	 push	 213			; 000000d5H
  006e4	68 00 00 00 00	 push	 OFFSET ??_C@_0EA@FHICADLG@c?3?2users?2nhv90?2projects?2eech?2ap@
  006e9	8b 0d 00 00 00
	00		 mov	 ecx, DWORD PTR ?overload_invalid_int_type_message@@3PBDB ; overload_invalid_int_type_message
  006ef	51		 push	 ecx
  006f0	e8 00 00 00 00	 call	 ?process_assert@@YGXPBD0H@Z ; process_assert
  006f5	c7 45 88 00 00
	00 00		 mov	 DWORD PTR tv358[ebp], 0
$LN78@create_for:
  006fc	6a 6d		 push	 109			; 0000006dH
  006fe	8b 55 fc	 mov	 edx, DWORD PTR _keysite$[ebp]
  00701	52		 push	 edx
  00702	69 45 8c 5c 04
	00 00		 imul	 eax, DWORD PTR tv351[ebp], 1116
  00709	8b 4d 88	 mov	 ecx, DWORD PTR tv358[ebp]
  0070c	8b 94 88 00 00
	00 00		 mov	 edx, DWORD PTR ?fn_get_local_entity_int_value@@3PAY0BBH@P6GHPAUENTITY@@W4INT_TYPES@@@ZA[eax+ecx*4]
  00713	ff d2		 call	 edx
  00715	85 c0		 test	 eax, eax
  00717	0f 84 e3 00 00
	00		 je	 $LN28@create_for

; 214  : 					{
; 215  : 						float
; 216  : 							actual_range;
; 217  : 	
; 218  : 						vec3d
; 219  : 							*pos;
; 220  : 	
; 221  : 						list [count] = keysite;

  0071d	8b 45 ec	 mov	 eax, DWORD PTR _count$[ebp]
  00720	8b 4d f4	 mov	 ecx, DWORD PTR _list$[ebp]
  00723	8b 55 fc	 mov	 edx, DWORD PTR _keysite$[ebp]
  00726	89 14 81	 mov	 DWORD PTR [ecx+eax*4], edx

; 222  : 	
; 223  : 						pos = get_local_entity_vec3d_ptr (keysite, VEC3D_TYPE_POSITION);

  00729	83 7d fc 00	 cmp	 DWORD PTR _keysite$[ebp], 0
  0072d	74 0a		 je	 SHORT $LN79@create_for
  0072f	8b 45 fc	 mov	 eax, DWORD PTR _keysite$[ebp]
  00732	8b 08		 mov	 ecx, DWORD PTR [eax]
  00734	89 4d 8c	 mov	 DWORD PTR tv373[ebp], ecx
  00737	eb 21		 jmp	 SHORT $LN80@create_for
$LN79@create_for:
  00739	8b 15 00 00 00
	00		 mov	 edx, DWORD PTR ?__LINE__Var@?0??create_force_campaign_objectives@@YGXPAUENTITY@@@Z@4JA
  0073f	83 c2 60	 add	 edx, 96			; 00000060H
  00742	52		 push	 edx
  00743	68 00 00 00 00	 push	 OFFSET ??_C@_0EA@FHICADLG@c?3?2users?2nhv90?2projects?2eech?2ap@
  00748	a1 00 00 00 00	 mov	 eax, DWORD PTR ?null_entity_pointer_message@@3PBDB ; null_entity_pointer_message
  0074d	50		 push	 eax
  0074e	e8 00 00 00 00	 call	 ?process_assert@@YGXPBD0H@Z ; process_assert
  00753	c7 45 8c 00 00
	00 00		 mov	 DWORD PTR tv373[ebp], 0
$LN80@create_for:
  0075a	b9 01 00 00 00	 mov	 ecx, 1
  0075f	85 c9		 test	 ecx, ecx
  00761	74 09		 je	 SHORT $LN81@create_for
  00763	c7 45 88 08 00
	00 00		 mov	 DWORD PTR tv381[ebp], 8
  0076a	eb 21		 jmp	 SHORT $LN82@create_for
$LN81@create_for:
  0076c	8b 15 00 00 00
	00		 mov	 edx, DWORD PTR ?__LINE__Var@?0??create_force_campaign_objectives@@YGXPAUENTITY@@@Z@4JA
  00772	83 c2 60	 add	 edx, 96			; 00000060H
  00775	52		 push	 edx
  00776	68 00 00 00 00	 push	 OFFSET ??_C@_0EA@FHICADLG@c?3?2users?2nhv90?2projects?2eech?2ap@
  0077b	a1 00 00 00 00	 mov	 eax, DWORD PTR ?overload_invalid_vec3d_type_message@@3PBDB ; overload_invalid_vec3d_type_message
  00780	50		 push	 eax
  00781	e8 00 00 00 00	 call	 ?process_assert@@YGXPBD0H@Z ; process_assert
  00786	c7 45 88 00 00
	00 00		 mov	 DWORD PTR tv381[ebp], 0
$LN82@create_for:
  0078d	6a 08		 push	 8
  0078f	8b 4d fc	 mov	 ecx, DWORD PTR _keysite$[ebp]
  00792	51		 push	 ecx
  00793	6b 55 8c 60	 imul	 edx, DWORD PTR tv373[ebp], 96
  00797	8b 45 88	 mov	 eax, DWORD PTR tv381[ebp]
  0079a	8b 8c 82 00 00
	00 00		 mov	 ecx, DWORD PTR ?fn_get_local_entity_vec3d_ptr@@3PAY0BI@P6GPAUVEC3D@@PAUENTITY@@W4VEC3D_TYPES@@@ZA[edx+eax*4]
  007a1	ff d1		 call	 ecx
  007a3	89 45 d4	 mov	 DWORD PTR _pos$2[ebp], eax

; 224  : 	
; 225  : 						get_closest_keysite (NUM_ENTITY_SUB_TYPE_KEYSITES, (entity_sides) target_side, pos, 1.0 * KILOMETRE, &actual_range, keysite);

  007a6	8b 45 fc	 mov	 eax, DWORD PTR _keysite$[ebp]
  007a9	50		 push	 eax
  007aa	8d 4d d8	 lea	 ecx, DWORD PTR _actual_range$3[ebp]
  007ad	51		 push	 ecx
  007ae	51		 push	 ecx
  007af	f3 0f 10 05 00
	00 00 00	 movss	 xmm0, DWORD PTR __real@447a0000
  007b7	f3 0f 11 04 24	 movss	 DWORD PTR [esp], xmm0
  007bc	8b 55 d4	 mov	 edx, DWORD PTR _pos$2[ebp]
  007bf	52		 push	 edx
  007c0	8b 45 e4	 mov	 eax, DWORD PTR _target_side$[ebp]
  007c3	50		 push	 eax
  007c4	6a 09		 push	 9
  007c6	e8 00 00 00 00	 call	 ?get_closest_keysite@@YGPAUENTITY@@HW4ENTITY_SIDES@@PAUVEC3D@@MPAMPAU1@@Z ; get_closest_keysite

; 226  : 	
; 227  : 						rating [count] = actual_range;

  007cb	8b 45 ec	 mov	 eax, DWORD PTR _count$[ebp]
  007ce	8b 4d dc	 mov	 ecx, DWORD PTR _rating$[ebp]
  007d1	f3 0f 10 45 d8	 movss	 xmm0, DWORD PTR _actual_range$3[ebp]
  007d6	f3 0f 11 04 81	 movss	 DWORD PTR [ecx+eax*4], xmm0

; 228  : 	
; 229  : 						highest = max (highest, rating [count]);

  007db	8b 45 ec	 mov	 eax, DWORD PTR _count$[ebp]
  007de	8b 4d dc	 mov	 ecx, DWORD PTR _rating$[ebp]
  007e1	8d 14 81	 lea	 edx, DWORD PTR [ecx+eax*4]
  007e4	52		 push	 edx
  007e5	8d 45 e0	 lea	 eax, DWORD PTR _highest$[ebp]
  007e8	50		 push	 eax
  007e9	e8 00 00 00 00	 call	 ??$max@M@std@@YGABMABM0@Z ; std::max<float>
  007ee	f3 0f 10 00	 movss	 xmm0, DWORD PTR [eax]
  007f2	f3 0f 11 45 e0	 movss	 DWORD PTR _highest$[ebp], xmm0

; 230  : 		
; 231  : 						count ++;

  007f7	8b 45 ec	 mov	 eax, DWORD PTR _count$[ebp]
  007fa	83 c0 01	 add	 eax, 1
  007fd	89 45 ec	 mov	 DWORD PTR _count$[ebp], eax
$LN28@create_for:

; 232  : 					}
; 233  : 				}
; 234  : 
; 235  : 				keysite = get_local_entity_child_succ (keysite, LIST_TYPE_KEYSITE_FORCE);

  00800	83 7d fc 00	 cmp	 DWORD PTR _keysite$[ebp], 0
  00804	74 0a		 je	 SHORT $LN83@create_for
  00806	8b 45 fc	 mov	 eax, DWORD PTR _keysite$[ebp]
  00809	8b 08		 mov	 ecx, DWORD PTR [eax]
  0080b	89 4d 8c	 mov	 DWORD PTR tv407[ebp], ecx
  0080e	eb 21		 jmp	 SHORT $LN84@create_for
$LN83@create_for:
  00810	8b 15 00 00 00
	00		 mov	 edx, DWORD PTR ?__LINE__Var@?0??create_force_campaign_objectives@@YGXPAUENTITY@@@Z@4JA
  00816	83 c2 6c	 add	 edx, 108		; 0000006cH
  00819	52		 push	 edx
  0081a	68 00 00 00 00	 push	 OFFSET ??_C@_0EA@FHICADLG@c?3?2users?2nhv90?2projects?2eech?2ap@
  0081f	a1 00 00 00 00	 mov	 eax, DWORD PTR ?null_entity_pointer_message@@3PBDB ; null_entity_pointer_message
  00824	50		 push	 eax
  00825	e8 00 00 00 00	 call	 ?process_assert@@YGXPBD0H@Z ; process_assert
  0082a	c7 45 8c 00 00
	00 00		 mov	 DWORD PTR tv407[ebp], 0
$LN84@create_for:
  00831	b9 01 00 00 00	 mov	 ecx, 1
  00836	85 c9		 test	 ecx, ecx
  00838	74 09		 je	 SHORT $LN85@create_for
  0083a	c7 45 88 15 00
	00 00		 mov	 DWORD PTR tv415[ebp], 21 ; 00000015H
  00841	eb 21		 jmp	 SHORT $LN86@create_for
$LN85@create_for:
  00843	8b 15 00 00 00
	00		 mov	 edx, DWORD PTR ?__LINE__Var@?0??create_force_campaign_objectives@@YGXPAUENTITY@@@Z@4JA
  00849	83 c2 6c	 add	 edx, 108		; 0000006cH
  0084c	52		 push	 edx
  0084d	68 00 00 00 00	 push	 OFFSET ??_C@_0EA@FHICADLG@c?3?2users?2nhv90?2projects?2eech?2ap@
  00852	a1 00 00 00 00	 mov	 eax, DWORD PTR ?overload_invalid_list_type_message@@3PBDB ; overload_invalid_list_type_message
  00857	50		 push	 eax
  00858	e8 00 00 00 00	 call	 ?process_assert@@YGXPBD0H@Z ; process_assert
  0085d	c7 45 88 00 00
	00 00		 mov	 DWORD PTR tv415[ebp], 0
$LN86@create_for:
  00864	6a 15		 push	 21			; 00000015H
  00866	8b 4d fc	 mov	 ecx, DWORD PTR _keysite$[ebp]
  00869	51		 push	 ecx
  0086a	69 55 8c b4 00
	00 00		 imul	 edx, DWORD PTR tv407[ebp], 180
  00871	8b 45 88	 mov	 eax, DWORD PTR tv415[ebp]
  00874	8b 8c 82 00 00
	00 00		 mov	 ecx, DWORD PTR ?fn_get_local_entity_child_succ@@3PAY0CN@P6GPAUENTITY@@PAU1@W4LIST_TYPES@@@ZA[edx+eax*4]
  0087b	ff d1		 call	 ecx
  0087d	89 45 fc	 mov	 DWORD PTR _keysite$[ebp], eax

; 236  : 			}

  00880	e9 91 fd ff ff	 jmp	 $LN8@create_for
$LN9@create_for:

; 237  : 		}
; 238  : 
; 239  : 		target_force = get_local_entity_child_succ (target_force, LIST_TYPE_FORCE);

  00885	83 7d f8 00	 cmp	 DWORD PTR _target_force$[ebp], 0
  00889	74 0a		 je	 SHORT $LN87@create_for
  0088b	8b 45 f8	 mov	 eax, DWORD PTR _target_force$[ebp]
  0088e	8b 08		 mov	 ecx, DWORD PTR [eax]
  00890	89 4d 8c	 mov	 DWORD PTR tv427[ebp], ecx
  00893	eb 21		 jmp	 SHORT $LN88@create_for
$LN87@create_for:
  00895	8b 15 00 00 00
	00		 mov	 edx, DWORD PTR ?__LINE__Var@?0??create_force_campaign_objectives@@YGXPAUENTITY@@@Z@4JA
  0089b	83 c2 70	 add	 edx, 112		; 00000070H
  0089e	52		 push	 edx
  0089f	68 00 00 00 00	 push	 OFFSET ??_C@_0EA@FHICADLG@c?3?2users?2nhv90?2projects?2eech?2ap@
  008a4	a1 00 00 00 00	 mov	 eax, DWORD PTR ?null_entity_pointer_message@@3PBDB ; null_entity_pointer_message
  008a9	50		 push	 eax
  008aa	e8 00 00 00 00	 call	 ?process_assert@@YGXPBD0H@Z ; process_assert
  008af	c7 45 8c 00 00
	00 00		 mov	 DWORD PTR tv427[ebp], 0
$LN88@create_for:
  008b6	b9 01 00 00 00	 mov	 ecx, 1
  008bb	85 c9		 test	 ecx, ecx
  008bd	74 09		 je	 SHORT $LN89@create_for
  008bf	c7 45 88 0e 00
	00 00		 mov	 DWORD PTR tv435[ebp], 14 ; 0000000eH
  008c6	eb 21		 jmp	 SHORT $LN90@create_for
$LN89@create_for:
  008c8	8b 15 00 00 00
	00		 mov	 edx, DWORD PTR ?__LINE__Var@?0??create_force_campaign_objectives@@YGXPAUENTITY@@@Z@4JA
  008ce	83 c2 70	 add	 edx, 112		; 00000070H
  008d1	52		 push	 edx
  008d2	68 00 00 00 00	 push	 OFFSET ??_C@_0EA@FHICADLG@c?3?2users?2nhv90?2projects?2eech?2ap@
  008d7	a1 00 00 00 00	 mov	 eax, DWORD PTR ?overload_invalid_list_type_message@@3PBDB ; overload_invalid_list_type_message
  008dc	50		 push	 eax
  008dd	e8 00 00 00 00	 call	 ?process_assert@@YGXPBD0H@Z ; process_assert
  008e2	c7 45 88 00 00
	00 00		 mov	 DWORD PTR tv435[ebp], 0
$LN90@create_for:
  008e9	6a 0e		 push	 14			; 0000000eH
  008eb	8b 4d f8	 mov	 ecx, DWORD PTR _target_force$[ebp]
  008ee	51		 push	 ecx
  008ef	69 55 8c b4 00
	00 00		 imul	 edx, DWORD PTR tv427[ebp], 180
  008f6	8b 45 88	 mov	 eax, DWORD PTR tv435[ebp]
  008f9	8b 8c 82 00 00
	00 00		 mov	 ecx, DWORD PTR ?fn_get_local_entity_child_succ@@3PAY0CN@P6GPAUENTITY@@PAU1@W4LIST_TYPES@@@ZA[edx+eax*4]
  00900	ff d1		 call	 ecx
  00902	89 45 f8	 mov	 DWORD PTR _target_force$[ebp], eax

; 240  : 	}

  00905	e9 f3 fb ff ff	 jmp	 $LN6@create_for
$LN7@create_for:

; 241  : 
; 242  : 	//
; 243  : 	// Normalise ratings
; 244  : 	//
; 245  : 
; 246  : 	if (highest == 0.0)

  0090a	f3 0f 5a 45 e0	 cvtss2sd xmm0, DWORD PTR _highest$[ebp]
  0090f	66 0f 2e 05 00
	00 00 00	 ucomisd xmm0, QWORD PTR __real@0000000000000000
  00917	9f		 lahf
  00918	f6 c4 44	 test	 ah, 68			; 00000044H
  0091b	7a 18		 jp	 SHORT $LN29@create_for

; 247  : 	{
; 248  : 		debug_fatal ("SETUP: No sector importance for side %s", entity_side_short_names [side]);

  0091d	8b 45 e8	 mov	 eax, DWORD PTR _side$[ebp]
  00920	8b 0c 85 00 00
	00 00		 mov	 ecx, DWORD PTR ?entity_side_short_names@@3PAPBDA[eax*4]
  00927	51		 push	 ecx
  00928	68 00 00 00 00	 push	 OFFSET ??_C@_0CI@MPBEOMJD@SETUP?3?5No?5sector?5importance?5for@
  0092d	e8 00 00 00 00	 call	 ?debug_fatal@@YAXPBDZZ	; debug_fatal
  00932	83 c4 08	 add	 esp, 8
$LN29@create_for:

; 249  : 	}
; 250  : 	
; 251  : 	for (loop = 0; loop < count; loop ++)

  00935	c7 45 f0 00 00
	00 00		 mov	 DWORD PTR _loop$[ebp], 0
  0093c	eb 09		 jmp	 SHORT $LN12@create_for
$LN10@create_for:
  0093e	8b 45 f0	 mov	 eax, DWORD PTR _loop$[ebp]
  00941	83 c0 01	 add	 eax, 1
  00944	89 45 f0	 mov	 DWORD PTR _loop$[ebp], eax
$LN12@create_for:
  00947	8b 45 f0	 mov	 eax, DWORD PTR _loop$[ebp]
  0094a	3b 45 ec	 cmp	 eax, DWORD PTR _count$[ebp]
  0094d	7d 1d		 jge	 SHORT $LN11@create_for

; 252  : 	{
; 253  : 		rating [loop] = rating [loop] / highest;

  0094f	8b 45 f0	 mov	 eax, DWORD PTR _loop$[ebp]
  00952	8b 4d dc	 mov	 ecx, DWORD PTR _rating$[ebp]
  00955	f3 0f 10 04 81	 movss	 xmm0, DWORD PTR [ecx+eax*4]
  0095a	f3 0f 5e 45 e0	 divss	 xmm0, DWORD PTR _highest$[ebp]
  0095f	8b 55 f0	 mov	 edx, DWORD PTR _loop$[ebp]
  00962	8b 45 dc	 mov	 eax, DWORD PTR _rating$[ebp]
  00965	f3 0f 11 04 90	 movss	 DWORD PTR [eax+edx*4], xmm0

; 254  : 	}

  0096a	eb d2		 jmp	 SHORT $LN10@create_for
$LN11@create_for:

; 255  : 
; 256  : 	//
; 257  : 	// obligatory random factor
; 258  : 	//
; 259  : 
; 260  : 	for (loop = 0; loop < count; loop ++)

  0096c	c7 45 f0 00 00
	00 00		 mov	 DWORD PTR _loop$[ebp], 0
  00973	eb 09		 jmp	 SHORT $LN15@create_for
$LN13@create_for:
  00975	8b 45 f0	 mov	 eax, DWORD PTR _loop$[ebp]
  00978	83 c0 01	 add	 eax, 1
  0097b	89 45 f0	 mov	 DWORD PTR _loop$[ebp], eax
$LN15@create_for:
  0097e	8b 45 f0	 mov	 eax, DWORD PTR _loop$[ebp]
  00981	3b 45 ec	 cmp	 eax, DWORD PTR _count$[ebp]
  00984	7d 4f		 jge	 SHORT $LN14@create_for

; 261  : 	{
; 262  : 		rating [loop] += frand1 ();

  00986	69 05 00 00 00
	00 6d 4e c6 41	 imul	 eax, DWORD PTR ?random_number_seed@@3HA, 1103515245 ; random_number_seed
  00990	05 39 30 00 00	 add	 eax, 12345		; 00003039H
  00995	a3 00 00 00 00	 mov	 DWORD PTR ?random_number_seed@@3HA, eax ; random_number_seed
  0099a	8b 0d 00 00 00
	00		 mov	 ecx, DWORD PTR ?random_number_seed@@3HA ; random_number_seed
  009a0	c1 f9 10	 sar	 ecx, 16			; 00000010H
  009a3	81 e1 ff 7f 00
	00		 and	 ecx, 32767		; 00007fffH
  009a9	f2 0f 2a c1	 cvtsi2sd xmm0, ecx
  009ad	f2 0f 59 05 00
	00 00 00	 mulsd	 xmm0, QWORD PTR __real@3f00002000400080
  009b5	8b 55 f0	 mov	 edx, DWORD PTR _loop$[ebp]
  009b8	8b 45 dc	 mov	 eax, DWORD PTR _rating$[ebp]
  009bb	f3 0f 5a 0c 90	 cvtss2sd xmm1, DWORD PTR [eax+edx*4]
  009c0	f2 0f 58 c8	 addsd	 xmm1, xmm0
  009c4	f2 0f 5a c1	 cvtsd2ss xmm0, xmm1
  009c8	8b 4d f0	 mov	 ecx, DWORD PTR _loop$[ebp]
  009cb	8b 55 dc	 mov	 edx, DWORD PTR _rating$[ebp]
  009ce	f3 0f 11 04 8a	 movss	 DWORD PTR [edx+ecx*4], xmm0

; 263  : 	}

  009d3	eb a0		 jmp	 SHORT $LN13@create_for
$LN14@create_for:

; 264  : 
; 265  : 	//
; 266  : 	// sort the list
; 267  : 	//
; 268  : 
; 269  : 	quicksort_entity_list (list, count, rating);

  009d5	8b 45 dc	 mov	 eax, DWORD PTR _rating$[ebp]
  009d8	50		 push	 eax
  009d9	8b 4d ec	 mov	 ecx, DWORD PTR _count$[ebp]
  009dc	51		 push	 ecx
  009dd	8b 55 f4	 mov	 edx, DWORD PTR _list$[ebp]
  009e0	52		 push	 edx
  009e1	e8 00 00 00 00	 call	 ?quicksort_entity_list@@YGXPAPAUENTITY@@HPAM@Z ; quicksort_entity_list

; 270  : 
; 271  : 	//
; 272  : 	// now find the best N targets and link them into the force
; 273  : 	//
; 274  : 
; 275  : 	count = min (count, NUMBER_OF_CAMPAIGN_OBJECTIVES_PER_SIDE);

  009e6	c7 45 90 05 00
	00 00		 mov	 DWORD PTR $T1[ebp], 5
  009ed	8d 45 90	 lea	 eax, DWORD PTR $T1[ebp]
  009f0	50		 push	 eax
  009f1	8d 4d ec	 lea	 ecx, DWORD PTR _count$[ebp]
  009f4	51		 push	 ecx
  009f5	e8 00 00 00 00	 call	 ??$min@H@std@@YGABHABH0@Z ; std::min<int>
  009fa	8b 10		 mov	 edx, DWORD PTR [eax]
  009fc	89 55 ec	 mov	 DWORD PTR _count$[ebp], edx

; 276  : 
; 277  : 	for (loop = 0; loop < count; loop ++)

  009ff	c7 45 f0 00 00
	00 00		 mov	 DWORD PTR _loop$[ebp], 0
  00a06	eb 09		 jmp	 SHORT $LN18@create_for
$LN16@create_for:
  00a08	8b 45 f0	 mov	 eax, DWORD PTR _loop$[ebp]
  00a0b	83 c0 01	 add	 eax, 1
  00a0e	89 45 f0	 mov	 DWORD PTR _loop$[ebp], eax
$LN18@create_for:
  00a11	8b 45 f0	 mov	 eax, DWORD PTR _loop$[ebp]
  00a14	3b 45 ec	 cmp	 eax, DWORD PTR _count$[ebp]
  00a17	0f 8d 58 01 00
	00		 jge	 $LN17@create_for

; 278  : 	{
; 279  : 		insert_local_entity_into_parents_child_list (list [loop], LIST_TYPE_CAMPAIGN_OBJECTIVE, force, NULL);

  00a1d	6a 00		 push	 0
  00a1f	8b 45 08	 mov	 eax, DWORD PTR _force$[ebp]
  00a22	50		 push	 eax
  00a23	6a 05		 push	 5
  00a25	8b 4d f0	 mov	 ecx, DWORD PTR _loop$[ebp]
  00a28	8b 55 f4	 mov	 edx, DWORD PTR _list$[ebp]
  00a2b	8b 04 8a	 mov	 eax, DWORD PTR [edx+ecx*4]
  00a2e	50		 push	 eax
  00a2f	e8 00 00 00 00	 call	 ?insert_local_entity_into_parents_child_list@@YGXPAUENTITY@@W4LIST_TYPES@@00@Z ; insert_local_entity_into_parents_child_list

; 280  : 
; 281  : 		debug_log ("Side %s Objective :- %s (%s)", entity_side_short_names [side],

  00a34	8b 45 f0	 mov	 eax, DWORD PTR _loop$[ebp]
  00a37	8b 4d f4	 mov	 ecx, DWORD PTR _list$[ebp]
  00a3a	83 3c 81 00	 cmp	 DWORD PTR [ecx+eax*4], 0
  00a3e	74 10		 je	 SHORT $LN91@create_for
  00a40	8b 55 f0	 mov	 edx, DWORD PTR _loop$[ebp]
  00a43	8b 45 f4	 mov	 eax, DWORD PTR _list$[ebp]
  00a46	8b 0c 90	 mov	 ecx, DWORD PTR [eax+edx*4]
  00a49	8b 11		 mov	 edx, DWORD PTR [ecx]
  00a4b	89 55 8c	 mov	 DWORD PTR tv493[ebp], edx
  00a4e	eb 23		 jmp	 SHORT $LN92@create_for
$LN91@create_for:
  00a50	a1 00 00 00 00	 mov	 eax, DWORD PTR ?__LINE__Var@?0??create_force_campaign_objectives@@YGXPAUENTITY@@@Z@4JA
  00a55	05 9c 00 00 00	 add	 eax, 156		; 0000009cH
  00a5a	50		 push	 eax
  00a5b	68 00 00 00 00	 push	 OFFSET ??_C@_0EA@FHICADLG@c?3?2users?2nhv90?2projects?2eech?2ap@
  00a60	8b 0d 00 00 00
	00		 mov	 ecx, DWORD PTR ?null_entity_pointer_message@@3PBDB ; null_entity_pointer_message
  00a66	51		 push	 ecx
  00a67	e8 00 00 00 00	 call	 ?process_assert@@YGXPBD0H@Z ; process_assert
  00a6c	c7 45 8c 00 00
	00 00		 mov	 DWORD PTR tv493[ebp], 0
$LN92@create_for:
  00a73	ba 01 00 00 00	 mov	 edx, 1
  00a78	85 d2		 test	 edx, edx
  00a7a	74 09		 je	 SHORT $LN93@create_for
  00a7c	c7 45 88 03 00
	00 00		 mov	 DWORD PTR tv501[ebp], 3
  00a83	eb 23		 jmp	 SHORT $LN94@create_for
$LN93@create_for:
  00a85	a1 00 00 00 00	 mov	 eax, DWORD PTR ?__LINE__Var@?0??create_force_campaign_objectives@@YGXPAUENTITY@@@Z@4JA
  00a8a	05 9c 00 00 00	 add	 eax, 156		; 0000009cH
  00a8f	50		 push	 eax
  00a90	68 00 00 00 00	 push	 OFFSET ??_C@_0EA@FHICADLG@c?3?2users?2nhv90?2projects?2eech?2ap@
  00a95	8b 0d 00 00 00
	00		 mov	 ecx, DWORD PTR ?overload_invalid_string_type_message@@3PBDB ; overload_invalid_string_type_message
  00a9b	51		 push	 ecx
  00a9c	e8 00 00 00 00	 call	 ?process_assert@@YGXPBD0H@Z ; process_assert
  00aa1	c7 45 88 00 00
	00 00		 mov	 DWORD PTR tv501[ebp], 0
$LN94@create_for:
  00aa8	8b 55 f0	 mov	 edx, DWORD PTR _loop$[ebp]
  00aab	8b 45 f4	 mov	 eax, DWORD PTR _list$[ebp]
  00aae	83 3c 90 00	 cmp	 DWORD PTR [eax+edx*4], 0
  00ab2	74 10		 je	 SHORT $LN95@create_for
  00ab4	8b 4d f0	 mov	 ecx, DWORD PTR _loop$[ebp]
  00ab7	8b 55 f4	 mov	 edx, DWORD PTR _list$[ebp]
  00aba	8b 04 8a	 mov	 eax, DWORD PTR [edx+ecx*4]
  00abd	8b 08		 mov	 ecx, DWORD PTR [eax]
  00abf	89 4d 84	 mov	 DWORD PTR tv520[ebp], ecx
  00ac2	eb 24		 jmp	 SHORT $LN96@create_for
$LN95@create_for:
  00ac4	8b 15 00 00 00
	00		 mov	 edx, DWORD PTR ?__LINE__Var@?0??create_force_campaign_objectives@@YGXPAUENTITY@@@Z@4JA
  00aca	81 c2 9b 00 00
	00		 add	 edx, 155		; 0000009bH
  00ad0	52		 push	 edx
  00ad1	68 00 00 00 00	 push	 OFFSET ??_C@_0EA@FHICADLG@c?3?2users?2nhv90?2projects?2eech?2ap@
  00ad6	a1 00 00 00 00	 mov	 eax, DWORD PTR ?null_entity_pointer_message@@3PBDB ; null_entity_pointer_message
  00adb	50		 push	 eax
  00adc	e8 00 00 00 00	 call	 ?process_assert@@YGXPBD0H@Z ; process_assert
  00ae1	c7 45 84 00 00
	00 00		 mov	 DWORD PTR tv520[ebp], 0
$LN96@create_for:
  00ae8	b9 01 00 00 00	 mov	 ecx, 1
  00aed	85 c9		 test	 ecx, ecx
  00aef	74 09		 je	 SHORT $LN97@create_for
  00af1	c7 45 80 07 00
	00 00		 mov	 DWORD PTR tv528[ebp], 7
  00af8	eb 24		 jmp	 SHORT $LN98@create_for
$LN97@create_for:
  00afa	8b 15 00 00 00
	00		 mov	 edx, DWORD PTR ?__LINE__Var@?0??create_force_campaign_objectives@@YGXPAUENTITY@@@Z@4JA
  00b00	81 c2 9b 00 00
	00		 add	 edx, 155		; 0000009bH
  00b06	52		 push	 edx
  00b07	68 00 00 00 00	 push	 OFFSET ??_C@_0EA@FHICADLG@c?3?2users?2nhv90?2projects?2eech?2ap@
  00b0c	a1 00 00 00 00	 mov	 eax, DWORD PTR ?overload_invalid_string_type_message@@3PBDB ; overload_invalid_string_type_message
  00b11	50		 push	 eax
  00b12	e8 00 00 00 00	 call	 ?process_assert@@YGXPBD0H@Z ; process_assert
  00b17	c7 45 80 00 00
	00 00		 mov	 DWORD PTR tv528[ebp], 0
$LN98@create_for:
  00b1e	6a 03		 push	 3
  00b20	8b 4d f0	 mov	 ecx, DWORD PTR _loop$[ebp]
  00b23	8b 55 f4	 mov	 edx, DWORD PTR _list$[ebp]
  00b26	8b 04 8a	 mov	 eax, DWORD PTR [edx+ecx*4]
  00b29	50		 push	 eax
  00b2a	6b 4d 8c 34	 imul	 ecx, DWORD PTR tv493[ebp], 52
  00b2e	8b 55 88	 mov	 edx, DWORD PTR tv501[ebp]
  00b31	8b 84 91 00 00
	00 00		 mov	 eax, DWORD PTR ?fn_get_local_entity_string@@3PAY0N@P6GPBDPAUENTITY@@W4STRING_TYPES@@@ZA[ecx+edx*4]
  00b38	ff d0		 call	 eax
  00b3a	50		 push	 eax
  00b3b	6a 07		 push	 7
  00b3d	8b 4d f0	 mov	 ecx, DWORD PTR _loop$[ebp]
  00b40	8b 55 f4	 mov	 edx, DWORD PTR _list$[ebp]
  00b43	8b 04 8a	 mov	 eax, DWORD PTR [edx+ecx*4]
  00b46	50		 push	 eax
  00b47	6b 4d 84 34	 imul	 ecx, DWORD PTR tv520[ebp], 52
  00b4b	8b 55 80	 mov	 edx, DWORD PTR tv528[ebp]
  00b4e	8b 84 91 00 00
	00 00		 mov	 eax, DWORD PTR ?fn_get_local_entity_string@@3PAY0N@P6GPBDPAUENTITY@@W4STRING_TYPES@@@ZA[ecx+edx*4]
  00b55	ff d0		 call	 eax
  00b57	50		 push	 eax
  00b58	8b 4d e8	 mov	 ecx, DWORD PTR _side$[ebp]
  00b5b	8b 14 8d 00 00
	00 00		 mov	 edx, DWORD PTR ?entity_side_short_names@@3PAPBDA[ecx*4]
  00b62	52		 push	 edx
  00b63	68 00 00 00 00	 push	 OFFSET ??_C@_0BN@PCECFODK@Side?5?$CFs?5Objective?5?3?9?5?$CFs?5?$CI?$CFs?$CJ@
  00b68	e8 00 00 00 00	 call	 ?debug_log@@YAXPBDZZ	; debug_log
  00b6d	83 c4 10	 add	 esp, 16			; 00000010H

; 282  : 						get_local_entity_string (list [loop], STRING_TYPE_KEYSITE_NAME),
; 283  : 						get_local_entity_string (list [loop], STRING_TYPE_FULL_NAME));
; 284  : 	}

  00b70	e9 93 fe ff ff	 jmp	 $LN16@create_for
$LN17@create_for:

; 285  : 
; 286  : 	free_mem (list);

  00b75	8b 45 f4	 mov	 eax, DWORD PTR _list$[ebp]
  00b78	50		 push	 eax
  00b79	e8 00 00 00 00	 call	 ?free_mem@@YGXPAX@Z	; free_mem

; 287  : 
; 288  : 	free_mem (rating);

  00b7e	8b 45 dc	 mov	 eax, DWORD PTR _rating$[ebp]
  00b81	50		 push	 eax
  00b82	e8 00 00 00 00	 call	 ?free_mem@@YGXPAX@Z	; free_mem

; 289  : }

  00b87	5f		 pop	 edi
  00b88	5e		 pop	 esi
  00b89	5b		 pop	 ebx
  00b8a	8b e5		 mov	 esp, ebp
  00b8c	5d		 pop	 ebp
  00b8d	c2 04 00	 ret	 4
?create_force_campaign_objectives@@YGXPAUENTITY@@@Z ENDP ; create_force_campaign_objectives
_TEXT	ENDS
; Function compile flags: /Odtp /ZI
; File c:\users\nhv90\projects\eech\aphavoc\source\ai\highlevl\setup.c
;	COMDAT ?setup_campaign@@YGXXZ
_TEXT	SEGMENT
tv147 = -76						; size = 4
tv88 = -76						; size = 4
tv139 = -72						; size = 4
tv80 = -72						; size = 4
_force$ = -4						; size = 4
?setup_campaign@@YGXXZ PROC				; setup_campaign, COMDAT

; 92   : {

  00000	55		 push	 ebp
  00001	8b ec		 mov	 ebp, esp
  00003	83 ec 4c	 sub	 esp, 76			; 0000004cH
  00006	53		 push	 ebx
  00007	56		 push	 esi
  00008	57		 push	 edi

; 93   : 	entity
; 94   : 		*force;
; 95   : 		
; 96   : 	ASSERT (get_comms_model () == COMMS_MODEL_SERVER);

  00009	83 3d 00 00 00
	00 00		 cmp	 DWORD PTR ?system_comms_model@@3W4COMMS_MODEL_TYPES@@A, 0 ; system_comms_model
  00010	74 18		 je	 SHORT $LN4@setup_camp
  00012	a1 00 00 00 00	 mov	 eax, DWORD PTR ?__LINE__Var@?0??setup_campaign@@YGXXZ@4JA
  00017	83 c0 04	 add	 eax, 4
  0001a	50		 push	 eax
  0001b	68 00 00 00 00	 push	 OFFSET ??_C@_0EA@FHICADLG@c?3?2users?2nhv90?2projects?2eech?2ap@
  00020	68 00 00 00 00	 push	 OFFSET ??_C@_0CJ@DMBLBJBK@get_comms_model?5?$CI?$CJ?5?$DN?$DN?5COMMS_MOD@
  00025	e8 00 00 00 00	 call	 ?process_assert@@YGXPBD0H@Z ; process_assert
$LN4@setup_camp:

; 97   : 
; 98   : 	ASSERT (get_session_entity ());

  0002a	83 3d 00 00 00
	00 00		 cmp	 DWORD PTR ?session_entity@@3PAUENTITY@@A, 0 ; session_entity
  00031	75 18		 jne	 SHORT $LN5@setup_camp
  00033	a1 00 00 00 00	 mov	 eax, DWORD PTR ?__LINE__Var@?0??setup_campaign@@YGXXZ@4JA
  00038	83 c0 06	 add	 eax, 6
  0003b	50		 push	 eax
  0003c	68 00 00 00 00	 push	 OFFSET ??_C@_0EA@FHICADLG@c?3?2users?2nhv90?2projects?2eech?2ap@
  00041	68 00 00 00 00	 push	 OFFSET ??_C@_0BG@EFCJJKAA@get_session_entity?5?$CI?$CJ@
  00046	e8 00 00 00 00	 call	 ?process_assert@@YGXPBD0H@Z ; process_assert
$LN5@setup_camp:

; 99   : 
; 100  : 	//
; 101  : 	// Create force overall campaign objectives
; 102  : 	//
; 103  : 
; 104  : 	force = get_local_entity_first_child (get_session_entity (), LIST_TYPE_FORCE);

  0004b	83 3d 00 00 00
	00 00		 cmp	 DWORD PTR ?session_entity@@3PAUENTITY@@A, 0 ; session_entity
  00052	74 0c		 je	 SHORT $LN8@setup_camp
  00054	a1 00 00 00 00	 mov	 eax, DWORD PTR ?session_entity@@3PAUENTITY@@A ; session_entity
  00059	8b 08		 mov	 ecx, DWORD PTR [eax]
  0005b	89 4d b8	 mov	 DWORD PTR tv80[ebp], ecx
  0005e	eb 21		 jmp	 SHORT $LN9@setup_camp
$LN8@setup_camp:
  00060	8b 15 00 00 00
	00		 mov	 edx, DWORD PTR ?__LINE__Var@?0??setup_campaign@@YGXXZ@4JA
  00066	83 c2 0c	 add	 edx, 12			; 0000000cH
  00069	52		 push	 edx
  0006a	68 00 00 00 00	 push	 OFFSET ??_C@_0EA@FHICADLG@c?3?2users?2nhv90?2projects?2eech?2ap@
  0006f	a1 00 00 00 00	 mov	 eax, DWORD PTR ?null_entity_pointer_message@@3PBDB ; null_entity_pointer_message
  00074	50		 push	 eax
  00075	e8 00 00 00 00	 call	 ?process_assert@@YGXPBD0H@Z ; process_assert
  0007a	c7 45 b8 00 00
	00 00		 mov	 DWORD PTR tv80[ebp], 0
$LN9@setup_camp:
  00081	b9 01 00 00 00	 mov	 ecx, 1
  00086	85 c9		 test	 ecx, ecx
  00088	74 09		 je	 SHORT $LN10@setup_camp
  0008a	c7 45 b4 0e 00
	00 00		 mov	 DWORD PTR tv88[ebp], 14	; 0000000eH
  00091	eb 21		 jmp	 SHORT $LN11@setup_camp
$LN10@setup_camp:
  00093	8b 15 00 00 00
	00		 mov	 edx, DWORD PTR ?__LINE__Var@?0??setup_campaign@@YGXXZ@4JA
  00099	83 c2 0c	 add	 edx, 12			; 0000000cH
  0009c	52		 push	 edx
  0009d	68 00 00 00 00	 push	 OFFSET ??_C@_0EA@FHICADLG@c?3?2users?2nhv90?2projects?2eech?2ap@
  000a2	a1 00 00 00 00	 mov	 eax, DWORD PTR ?overload_invalid_list_type_message@@3PBDB ; overload_invalid_list_type_message
  000a7	50		 push	 eax
  000a8	e8 00 00 00 00	 call	 ?process_assert@@YGXPBD0H@Z ; process_assert
  000ad	c7 45 b4 00 00
	00 00		 mov	 DWORD PTR tv88[ebp], 0
$LN11@setup_camp:
  000b4	6a 0e		 push	 14			; 0000000eH
  000b6	8b 0d 00 00 00
	00		 mov	 ecx, DWORD PTR ?session_entity@@3PAUENTITY@@A ; session_entity
  000bc	51		 push	 ecx
  000bd	69 55 b8 b4 00
	00 00		 imul	 edx, DWORD PTR tv80[ebp], 180
  000c4	8b 45 b4	 mov	 eax, DWORD PTR tv88[ebp]
  000c7	8b 8c 82 00 00
	00 00		 mov	 ecx, DWORD PTR ?fn_get_local_entity_first_child@@3PAY0CN@P6GPAUENTITY@@PAU1@W4LIST_TYPES@@@ZA[edx+eax*4]
  000ce	ff d1		 call	 ecx
  000d0	89 45 fc	 mov	 DWORD PTR _force$[ebp], eax

; 105  : 
; 106  : 	ASSERT (force);

  000d3	83 7d fc 00	 cmp	 DWORD PTR _force$[ebp], 0
  000d7	75 18		 jne	 SHORT $LN2@setup_camp
  000d9	a1 00 00 00 00	 mov	 eax, DWORD PTR ?__LINE__Var@?0??setup_campaign@@YGXXZ@4JA
  000de	83 c0 0e	 add	 eax, 14			; 0000000eH
  000e1	50		 push	 eax
  000e2	68 00 00 00 00	 push	 OFFSET ??_C@_0EA@FHICADLG@c?3?2users?2nhv90?2projects?2eech?2ap@
  000e7	68 00 00 00 00	 push	 OFFSET ??_C@_05BINPNAAL@force@
  000ec	e8 00 00 00 00	 call	 ?process_assert@@YGXPBD0H@Z ; process_assert
$LN2@setup_camp:

; 107  : 
; 108  : 	while (force)

  000f1	83 7d fc 00	 cmp	 DWORD PTR _force$[ebp], 0
  000f5	0f 84 8e 00 00
	00		 je	 $LN3@setup_camp

; 109  : 	{
; 110  : 		create_force_campaign_objectives (force);

  000fb	8b 45 fc	 mov	 eax, DWORD PTR _force$[ebp]
  000fe	50		 push	 eax
  000ff	e8 00 00 00 00	 call	 ?create_force_campaign_objectives@@YGXPAUENTITY@@@Z ; create_force_campaign_objectives

; 111  : 
; 112  : 		force = get_local_entity_child_succ (force, LIST_TYPE_FORCE);

  00104	83 7d fc 00	 cmp	 DWORD PTR _force$[ebp], 0
  00108	74 0a		 je	 SHORT $LN12@setup_camp
  0010a	8b 45 fc	 mov	 eax, DWORD PTR _force$[ebp]
  0010d	8b 08		 mov	 ecx, DWORD PTR [eax]
  0010f	89 4d b8	 mov	 DWORD PTR tv139[ebp], ecx
  00112	eb 21		 jmp	 SHORT $LN13@setup_camp
$LN12@setup_camp:
  00114	8b 15 00 00 00
	00		 mov	 edx, DWORD PTR ?__LINE__Var@?0??setup_campaign@@YGXXZ@4JA
  0011a	83 c2 14	 add	 edx, 20			; 00000014H
  0011d	52		 push	 edx
  0011e	68 00 00 00 00	 push	 OFFSET ??_C@_0EA@FHICADLG@c?3?2users?2nhv90?2projects?2eech?2ap@
  00123	a1 00 00 00 00	 mov	 eax, DWORD PTR ?null_entity_pointer_message@@3PBDB ; null_entity_pointer_message
  00128	50		 push	 eax
  00129	e8 00 00 00 00	 call	 ?process_assert@@YGXPBD0H@Z ; process_assert
  0012e	c7 45 b8 00 00
	00 00		 mov	 DWORD PTR tv139[ebp], 0
$LN13@setup_camp:
  00135	b9 01 00 00 00	 mov	 ecx, 1
  0013a	85 c9		 test	 ecx, ecx
  0013c	74 09		 je	 SHORT $LN14@setup_camp
  0013e	c7 45 b4 0e 00
	00 00		 mov	 DWORD PTR tv147[ebp], 14 ; 0000000eH
  00145	eb 21		 jmp	 SHORT $LN15@setup_camp
$LN14@setup_camp:
  00147	8b 15 00 00 00
	00		 mov	 edx, DWORD PTR ?__LINE__Var@?0??setup_campaign@@YGXXZ@4JA
  0014d	83 c2 14	 add	 edx, 20			; 00000014H
  00150	52		 push	 edx
  00151	68 00 00 00 00	 push	 OFFSET ??_C@_0EA@FHICADLG@c?3?2users?2nhv90?2projects?2eech?2ap@
  00156	a1 00 00 00 00	 mov	 eax, DWORD PTR ?overload_invalid_list_type_message@@3PBDB ; overload_invalid_list_type_message
  0015b	50		 push	 eax
  0015c	e8 00 00 00 00	 call	 ?process_assert@@YGXPBD0H@Z ; process_assert
  00161	c7 45 b4 00 00
	00 00		 mov	 DWORD PTR tv147[ebp], 0
$LN15@setup_camp:
  00168	6a 0e		 push	 14			; 0000000eH
  0016a	8b 4d fc	 mov	 ecx, DWORD PTR _force$[ebp]
  0016d	51		 push	 ecx
  0016e	69 55 b8 b4 00
	00 00		 imul	 edx, DWORD PTR tv139[ebp], 180
  00175	8b 45 b4	 mov	 eax, DWORD PTR tv147[ebp]
  00178	8b 8c 82 00 00
	00 00		 mov	 ecx, DWORD PTR ?fn_get_local_entity_child_succ@@3PAY0CN@P6GPAUENTITY@@PAU1@W4LIST_TYPES@@@ZA[edx+eax*4]
  0017f	ff d1		 call	 ecx
  00181	89 45 fc	 mov	 DWORD PTR _force$[ebp], eax

; 113  : 	}

  00184	e9 68 ff ff ff	 jmp	 $LN2@setup_camp
$LN3@setup_camp:

; 114  : 
; 115  : 	//
; 116  : 	// Setup Order Of Battle
; 117  : 	//
; 118  : 
; 119  : 	initialise_order_of_battle ();

  00189	e8 00 00 00 00	 call	 ?initialise_order_of_battle@@YGXXZ ; initialise_order_of_battle

; 120  : }

  0018e	5f		 pop	 edi
  0018f	5e		 pop	 esi
  00190	5b		 pop	 ebx
  00191	8b e5		 mov	 esp, ebp
  00193	5d		 pop	 ebp
  00194	c3		 ret	 0
?setup_campaign@@YGXXZ ENDP				; setup_campaign
_TEXT	ENDS
END
