; Listing generated by Microsoft (R) Optimizing Compiler Version 19.16.27045.0 

	TITLE	C:\Users\nhv90\Projects\eech\aphavoc\source\entity\fixed\segment\sg_int.c
	.686P
	.XMM
	include listing.inc
	.model	flat

INCLUDELIB MSVCRTD
INCLUDELIB OLDNAMES

PUBLIC	?overload_segment_int_value_functions@@YGXXZ	; overload_segment_int_value_functions
PUBLIC	?__LINE__Var@?0??set_local_int_value@@YGXPAUENTITY@@W4INT_TYPES@@H@Z@4JA ; `set_local_int_value'::`1'::__LINE__Var
PUBLIC	??_C@_0EK@NBJKPJMG@c?3?2users?2nhv90?2projects?2eech?2ap@ ; `string'
PUBLIC	?__LINE__Var@?0??set_server_int_value@@YGXPAUENTITY@@W4INT_TYPES@@H@Z@4JA ; `set_server_int_value'::`1'::__LINE__Var
PUBLIC	??_C@_0CB@CFOCLFOK@assert_client_server_local_fn?5?$CI@ ; `string'
PUBLIC	??_C@_0CC@BNNNEGEG@assert_client_server_remote_fn?5@ ; `string'
PUBLIC	?__LINE__Var@?0??set_client_int_value@@YGXPAUENTITY@@W4INT_TYPES@@H@Z@4JA ; `set_client_int_value'::`1'::__LINE__Var
PUBLIC	?__LINE__Var@?0??get_local_int_value@@YGHPAUENTITY@@W4INT_TYPES@@@Z@4JA ; `get_local_int_value'::`1'::__LINE__Var
EXTRN	?process_assert@@YGXPBD0H@Z:PROC		; process_assert
EXTRN	?debug_fatal@@YAXPBDZZ:PROC			; debug_fatal
EXTRN	?transmit_entity_comms_message@@YAXW4ENTITY_COMMS_MESSAGES@@PAUENTITY@@ZZ:PROC ; transmit_entity_comms_message
EXTRN	?assert_client_server_local_fn@@YGHXZ:PROC	; assert_client_server_local_fn
EXTRN	?assert_client_server_remote_fn@@YGHXZ:PROC	; assert_client_server_remote_fn
EXTRN	?null_entity_pointer_message@@3PBDB:DWORD	; null_entity_pointer_message
EXTRN	?entity_type_database@@3PAUENTITY_TYPE_DATA@@A:BYTE ; entity_type_database
EXTRN	?system_comms_data_flow@@3W4COMMS_DATA_FLOW_TYPES@@A:DWORD ; system_comms_data_flow
EXTRN	?int_type_database@@3PAUINT_TYPE_DATA@@A:BYTE	; int_type_database
EXTRN	?debug_fatal_invalid_int_type_message@@3PBDB:DWORD ; debug_fatal_invalid_int_type_message
EXTRN	?fn_set_local_entity_raw_int_value@@3PAY0BBH@P6GXPAUENTITY@@W4INT_TYPES@@H@ZA:BYTE ; fn_set_local_entity_raw_int_value
EXTRN	?fn_set_local_entity_int_value@@3PAY0BBH@P6GXPAUENTITY@@W4INT_TYPES@@H@ZA:BYTE ; fn_set_local_entity_int_value
EXTRN	?fn_set_client_server_entity_int_value@@3PAY1BBH@1P6GXPAUENTITY@@W4INT_TYPES@@H@ZA:BYTE ; fn_set_client_server_entity_int_value
EXTRN	?fn_get_local_entity_int_value@@3PAY0BBH@P6GHPAUENTITY@@W4INT_TYPES@@@ZA:BYTE ; fn_get_local_entity_int_value
EXTRN	?entities@@3PAUENTITY@@A:DWORD			; entities
EXTRN	?segment_database@@3PAUBRIDGE_SEGMENT_DATA@@A:BYTE ; segment_database
;	COMDAT ?__LINE__Var@?0??get_local_int_value@@YGHPAUENTITY@@W4INT_TYPES@@@Z@4JA
_DATA	SEGMENT
?__LINE__Var@?0??get_local_int_value@@YGHPAUENTITY@@W4INT_TYPES@@@Z@4JA DD 0b0H ; `get_local_int_value'::`1'::__LINE__Var
_DATA	ENDS
;	COMDAT ?__LINE__Var@?0??set_client_int_value@@YGXPAUENTITY@@W4INT_TYPES@@H@Z@4JA
_DATA	SEGMENT
?__LINE__Var@?0??set_client_int_value@@YGXPAUENTITY@@W4INT_TYPES@@H@Z@4JA DD 09cH ; `set_client_int_value'::`1'::__LINE__Var
_DATA	ENDS
;	COMDAT ??_C@_0CC@BNNNEGEG@assert_client_server_remote_fn?5@
CONST	SEGMENT
??_C@_0CC@BNNNEGEG@assert_client_server_remote_fn?5@ DB 'assert_client_se'
	DB	'rver_remote_fn ()', 00H			; `string'
CONST	ENDS
;	COMDAT ??_C@_0CB@CFOCLFOK@assert_client_server_local_fn?5?$CI@
CONST	SEGMENT
??_C@_0CB@CFOCLFOK@assert_client_server_local_fn?5?$CI@ DB 'assert_client'
	DB	'_server_local_fn ()', 00H			; `string'
CONST	ENDS
;	COMDAT ?__LINE__Var@?0??set_server_int_value@@YGXPAUENTITY@@W4INT_TYPES@@H@Z@4JA
_DATA	SEGMENT
?__LINE__Var@?0??set_server_int_value@@YGXPAUENTITY@@W4INT_TYPES@@H@Z@4JA DD 08dH ; `set_server_int_value'::`1'::__LINE__Var
_DATA	ENDS
;	COMDAT ??_C@_0EK@NBJKPJMG@c?3?2users?2nhv90?2projects?2eech?2ap@
CONST	SEGMENT
??_C@_0EK@NBJKPJMG@c?3?2users?2nhv90?2projects?2eech?2ap@ DB 'c:\users\nh'
	DB	'v90\projects\eech\aphavoc\source\entity\fixed\segment\sg_int.'
	DB	'c', 00H					; `string'
CONST	ENDS
;	COMDAT ?__LINE__Var@?0??set_local_int_value@@YGXPAUENTITY@@W4INT_TYPES@@H@Z@4JA
_DATA	SEGMENT
?__LINE__Var@?0??set_local_int_value@@YGXPAUENTITY@@W4INT_TYPES@@H@Z@4JA DD 050H ; `set_local_int_value'::`1'::__LINE__Var
_DATA	ENDS
; Function compile flags: /Odtp /ZI
; File c:\users\nhv90\projects\eech\aphavoc\source\entity\fixed\segment\sg_int.c
;	COMDAT ?get_local_int_value@@YGHPAUENTITY@@W4INT_TYPES@@@Z
_TEXT	SEGMENT
tv92 = -76						; size = 4
tv65 = -76						; size = 4
_value$ = -8						; size = 4
_raw$ = -4						; size = 4
_en$ = 8						; size = 4
_type$ = 12						; size = 4
?get_local_int_value@@YGHPAUENTITY@@W4INT_TYPES@@@Z PROC ; get_local_int_value, COMDAT

; 176  : {

  00000	55		 push	 ebp
  00001	8b ec		 mov	 ebp, esp
  00003	83 ec 4c	 sub	 esp, 76			; 0000004cH
  00006	53		 push	 ebx
  00007	56		 push	 esi
  00008	57		 push	 edi

; 177  : 	segment
; 178  : 		*raw;
; 179  : 
; 180  : 	int
; 181  : 		value;
; 182  : 
; 183  : 	raw = (segment *) get_local_entity_data (en);

  00009	8b 45 08	 mov	 eax, DWORD PTR _en$[ebp]
  0000c	8b 48 04	 mov	 ecx, DWORD PTR [eax+4]
  0000f	89 4d fc	 mov	 DWORD PTR _raw$[ebp], ecx

; 184  : 
; 185  : 	switch (type)

  00012	8b 45 0c	 mov	 eax, DWORD PTR _type$[ebp]
  00015	89 45 b4	 mov	 DWORD PTR tv65[ebp], eax
  00018	8b 4d b4	 mov	 ecx, DWORD PTR tv65[ebp]
  0001b	83 e9 0f	 sub	 ecx, 15			; 0000000fH
  0001e	89 4d b4	 mov	 DWORD PTR tv65[ebp], ecx
  00021	81 7d b4 ed 00
	00 00		 cmp	 DWORD PTR tv65[ebp], 237 ; 000000edH
  00028	0f 87 84 00 00
	00		 ja	 $LN12@get_local_
  0002e	8b 55 b4	 mov	 edx, DWORD PTR tv65[ebp]
  00031	0f b6 82 00 00
	00 00		 movzx	 eax, BYTE PTR $LN16@get_local_[edx]
  00038	ff 24 85 00 00
	00 00		 jmp	 DWORD PTR $LN17@get_local_[eax*4]
$LN4@get_local_:

; 186  : 	{
; 187  : 		////////////////////////////////////////
; 188  : 		case INT_TYPE_BRIDGE_SEGMENT_TYPE:
; 189  : 		////////////////////////////////////////
; 190  : 		{
; 191  : 			value = raw->bridge_segment_type;

  0003f	8b 45 fc	 mov	 eax, DWORD PTR _raw$[ebp]
  00042	8b 48 58	 mov	 ecx, DWORD PTR [eax+88]
  00045	89 4d f8	 mov	 DWORD PTR _value$[ebp], ecx

; 192  : 
; 193  : 			break;

  00048	e9 d7 00 00 00	 jmp	 $LN2@get_local_
$LN5@get_local_:

; 194  : 		}
; 195  : 		////////////////////////////////////////
; 196  : 		case INT_TYPE_DAMAGE_LEVEL:
; 197  : 		////////////////////////////////////////
; 198  : 		{
; 199  : 			value = raw->damage_level;

  0004d	8b 45 fc	 mov	 eax, DWORD PTR _raw$[ebp]
  00050	8b 48 5c	 mov	 ecx, DWORD PTR [eax+92]
  00053	89 4d f8	 mov	 DWORD PTR _value$[ebp], ecx

; 200  : 
; 201  : 			break;

  00056	e9 c9 00 00 00	 jmp	 $LN2@get_local_
$LN6@get_local_:

; 202  : 		}
; 203  : 		////////////////////////////////////////
; 204  : 		case INT_TYPE_EXPLOSIVE_POWER:
; 205  : 		////////////////////////////////////////
; 206  : 		{
; 207  : 			value = EXPLOSIVE_POWER_LOW;

  0005b	c7 45 f8 01 00
	00 00		 mov	 DWORD PTR _value$[ebp], 1

; 208  : 
; 209  : 			break;

  00062	e9 bd 00 00 00	 jmp	 $LN2@get_local_
$LN7@get_local_:

; 210  : 		}
; 211  : 		////////////////////////////////////////
; 212  : 		case INT_TYPE_EXPLOSIVE_QUALITY:
; 213  : 		////////////////////////////////////////
; 214  : 		{
; 215  : 			value = EXPLOSIVE_QUALITY_DUST;

  00067	c7 45 f8 01 00
	00 00		 mov	 DWORD PTR _value$[ebp], 1

; 216  : 
; 217  : 			break;

  0006e	e9 b1 00 00 00	 jmp	 $LN2@get_local_
$LN8@get_local_:

; 218  : 		}
; 219  : 		////////////////////////////////////////
; 220  : 		case INT_TYPE_TARGET_SYMBOL_TYPE:
; 221  : 		////////////////////////////////////////
; 222  : 		{
; 223  : 			value = TARGET_SYMBOL_STRUCTURE;

  00073	c7 45 f8 07 00
	00 00		 mov	 DWORD PTR _value$[ebp], 7

; 224  : 
; 225  : 			break;

  0007a	e9 a5 00 00 00	 jmp	 $LN2@get_local_
$LN9@get_local_:

; 226  : 		}
; 227  : 		////////////////////////////////////////
; 228  : 		case INT_TYPE_TARGET_TYPE:
; 229  : 		////////////////////////////////////////
; 230  : 		{
; 231  : 			value = segment_database[raw->bridge_segment_type].target_type;

  0007f	8b 45 fc	 mov	 eax, DWORD PTR _raw$[ebp]
  00082	6b 48 58 28	 imul	 ecx, DWORD PTR [eax+88], 40
  00086	8b 91 20 00 00
	00		 mov	 edx, DWORD PTR ?segment_database@@3PAUBRIDGE_SEGMENT_DATA@@A[ecx+32]
  0008c	89 55 f8	 mov	 DWORD PTR _value$[ebp], edx

; 232  : 
; 233  : 			break;

  0008f	e9 90 00 00 00	 jmp	 $LN2@get_local_
$LN10@get_local_:

; 234  : 		}
; 235  : 		////////////////////////////////////////
; 236  : 		case INT_TYPE_TASK_TARGET_TYPE:
; 237  : 		////////////////////////////////////////
; 238  : 		{
; 239  : 			value = TASK_TARGET_TYPE_BRIDGE;

  00094	c7 45 f8 10 00
	00 00		 mov	 DWORD PTR _value$[ebp], 16 ; 00000010H

; 240  : 
; 241  : 			break;

  0009b	e9 84 00 00 00	 jmp	 $LN2@get_local_
$LN11@get_local_:

; 242  : 		}
; 243  : 		////////////////////////////////////////
; 244  : 		case INT_TYPE_WARHEAD_EFFECTIVE_CLASS:
; 245  : 		////////////////////////////////////////
; 246  : 		{
; 247  : 			value = segment_database[raw->bridge_segment_type].warhead_effective_class;

  000a0	8b 45 fc	 mov	 eax, DWORD PTR _raw$[ebp]
  000a3	6b 48 58 28	 imul	 ecx, DWORD PTR [eax+88], 40
  000a7	8b 91 24 00 00
	00		 mov	 edx, DWORD PTR ?segment_database@@3PAUBRIDGE_SEGMENT_DATA@@A[ecx+36]
  000ad	89 55 f8	 mov	 DWORD PTR _value$[ebp], edx

; 248  : 
; 249  : 			break;

  000b0	eb 72		 jmp	 SHORT $LN2@get_local_
$LN12@get_local_:

; 250  : 		}
; 251  : 		////////////////////////////////////////
; 252  : 		default:
; 253  : 		////////////////////////////////////////
; 254  : 		{
; 255  : 			debug_fatal_invalid_int_type (en, type);

  000b2	83 7d 08 00	 cmp	 DWORD PTR _en$[ebp], 0
  000b6	74 0a		 je	 SHORT $LN14@get_local_
  000b8	8b 45 08	 mov	 eax, DWORD PTR _en$[ebp]
  000bb	8b 08		 mov	 ecx, DWORD PTR [eax]
  000bd	89 4d b4	 mov	 DWORD PTR tv92[ebp], ecx
  000c0	eb 21		 jmp	 SHORT $LN15@get_local_
$LN14@get_local_:
  000c2	8b 15 00 00 00
	00		 mov	 edx, DWORD PTR ?__LINE__Var@?0??get_local_int_value@@YGHPAUENTITY@@W4INT_TYPES@@@Z@4JA
  000c8	83 c2 4f	 add	 edx, 79			; 0000004fH
  000cb	52		 push	 edx
  000cc	68 00 00 00 00	 push	 OFFSET ??_C@_0EK@NBJKPJMG@c?3?2users?2nhv90?2projects?2eech?2ap@
  000d1	a1 00 00 00 00	 mov	 eax, DWORD PTR ?null_entity_pointer_message@@3PBDB ; null_entity_pointer_message
  000d6	50		 push	 eax
  000d7	e8 00 00 00 00	 call	 ?process_assert@@YGXPBD0H@Z ; process_assert
  000dc	c7 45 b4 00 00
	00 00		 mov	 DWORD PTR tv92[ebp], 0
$LN15@get_local_:
  000e3	8b 0d 00 00 00
	00		 mov	 ecx, DWORD PTR ?__LINE__Var@?0??get_local_int_value@@YGHPAUENTITY@@W4INT_TYPES@@@Z@4JA
  000e9	83 c1 4f	 add	 ecx, 79			; 0000004fH
  000ec	51		 push	 ecx
  000ed	68 00 00 00 00	 push	 OFFSET ??_C@_0EK@NBJKPJMG@c?3?2users?2nhv90?2projects?2eech?2ap@
  000f2	6b 55 0c 14	 imul	 edx, DWORD PTR _type$[ebp], 20
  000f6	8b 82 00 00 00
	00		 mov	 eax, DWORD PTR ?int_type_database@@3PAUINT_TYPE_DATA@@A[edx]
  000fc	50		 push	 eax
  000fd	8b 4d 08	 mov	 ecx, DWORD PTR _en$[ebp]
  00100	2b 0d 00 00 00
	00		 sub	 ecx, DWORD PTR ?entities@@3PAUENTITY@@A ; entities
  00106	c1 f9 04	 sar	 ecx, 4
  00109	51		 push	 ecx
  0010a	6b 55 b4 0c	 imul	 edx, DWORD PTR tv92[ebp], 12
  0010e	8b 82 00 00 00
	00		 mov	 eax, DWORD PTR ?entity_type_database@@3PAUENTITY_TYPE_DATA@@A[edx]
  00114	50		 push	 eax
  00115	8b 0d 00 00 00
	00		 mov	 ecx, DWORD PTR ?debug_fatal_invalid_int_type_message@@3PBDB ; debug_fatal_invalid_int_type_message
  0011b	51		 push	 ecx
  0011c	e8 00 00 00 00	 call	 ?debug_fatal@@YAXPBDZZ	; debug_fatal
  00121	83 c4 18	 add	 esp, 24			; 00000018H
$LN2@get_local_:

; 256  : 
; 257  : 			break;
; 258  : 		}
; 259  : 	}
; 260  : 
; 261  : 	return (value);

  00124	8b 45 f8	 mov	 eax, DWORD PTR _value$[ebp]

; 262  : }

  00127	5f		 pop	 edi
  00128	5e		 pop	 esi
  00129	5b		 pop	 ebx
  0012a	8b e5		 mov	 esp, ebp
  0012c	5d		 pop	 ebp
  0012d	c2 08 00	 ret	 8
$LN17@get_local_:
  00130	00 00 00 00	 DD	 $LN4@get_local_
  00134	00 00 00 00	 DD	 $LN5@get_local_
  00138	00 00 00 00	 DD	 $LN6@get_local_
  0013c	00 00 00 00	 DD	 $LN7@get_local_
  00140	00 00 00 00	 DD	 $LN8@get_local_
  00144	00 00 00 00	 DD	 $LN9@get_local_
  00148	00 00 00 00	 DD	 $LN10@get_local_
  0014c	00 00 00 00	 DD	 $LN11@get_local_
  00150	00 00 00 00	 DD	 $LN12@get_local_
$LN16@get_local_:
  00154	00		 DB	 0
  00155	08		 DB	 8
  00156	08		 DB	 8
  00157	08		 DB	 8
  00158	08		 DB	 8
  00159	08		 DB	 8
  0015a	08		 DB	 8
  0015b	08		 DB	 8
  0015c	08		 DB	 8
  0015d	08		 DB	 8
  0015e	08		 DB	 8
  0015f	08		 DB	 8
  00160	08		 DB	 8
  00161	08		 DB	 8
  00162	08		 DB	 8
  00163	08		 DB	 8
  00164	08		 DB	 8
  00165	08		 DB	 8
  00166	08		 DB	 8
  00167	08		 DB	 8
  00168	08		 DB	 8
  00169	08		 DB	 8
  0016a	01		 DB	 1
  0016b	08		 DB	 8
  0016c	08		 DB	 8
  0016d	08		 DB	 8
  0016e	08		 DB	 8
  0016f	08		 DB	 8
  00170	08		 DB	 8
  00171	08		 DB	 8
  00172	08		 DB	 8
  00173	08		 DB	 8
  00174	08		 DB	 8
  00175	08		 DB	 8
  00176	08		 DB	 8
  00177	08		 DB	 8
  00178	08		 DB	 8
  00179	08		 DB	 8
  0017a	08		 DB	 8
  0017b	02		 DB	 2
  0017c	03		 DB	 3
  0017d	08		 DB	 8
  0017e	08		 DB	 8
  0017f	08		 DB	 8
  00180	08		 DB	 8
  00181	08		 DB	 8
  00182	08		 DB	 8
  00183	08		 DB	 8
  00184	08		 DB	 8
  00185	08		 DB	 8
  00186	08		 DB	 8
  00187	08		 DB	 8
  00188	08		 DB	 8
  00189	08		 DB	 8
  0018a	08		 DB	 8
  0018b	08		 DB	 8
  0018c	08		 DB	 8
  0018d	08		 DB	 8
  0018e	08		 DB	 8
  0018f	08		 DB	 8
  00190	08		 DB	 8
  00191	08		 DB	 8
  00192	08		 DB	 8
  00193	08		 DB	 8
  00194	08		 DB	 8
  00195	08		 DB	 8
  00196	08		 DB	 8
  00197	08		 DB	 8
  00198	08		 DB	 8
  00199	08		 DB	 8
  0019a	08		 DB	 8
  0019b	08		 DB	 8
  0019c	08		 DB	 8
  0019d	08		 DB	 8
  0019e	08		 DB	 8
  0019f	08		 DB	 8
  001a0	08		 DB	 8
  001a1	08		 DB	 8
  001a2	08		 DB	 8
  001a3	08		 DB	 8
  001a4	08		 DB	 8
  001a5	08		 DB	 8
  001a6	08		 DB	 8
  001a7	08		 DB	 8
  001a8	08		 DB	 8
  001a9	08		 DB	 8
  001aa	08		 DB	 8
  001ab	08		 DB	 8
  001ac	08		 DB	 8
  001ad	08		 DB	 8
  001ae	08		 DB	 8
  001af	08		 DB	 8
  001b0	08		 DB	 8
  001b1	08		 DB	 8
  001b2	08		 DB	 8
  001b3	08		 DB	 8
  001b4	08		 DB	 8
  001b5	08		 DB	 8
  001b6	08		 DB	 8
  001b7	08		 DB	 8
  001b8	08		 DB	 8
  001b9	08		 DB	 8
  001ba	08		 DB	 8
  001bb	08		 DB	 8
  001bc	08		 DB	 8
  001bd	08		 DB	 8
  001be	08		 DB	 8
  001bf	08		 DB	 8
  001c0	08		 DB	 8
  001c1	08		 DB	 8
  001c2	08		 DB	 8
  001c3	08		 DB	 8
  001c4	08		 DB	 8
  001c5	08		 DB	 8
  001c6	08		 DB	 8
  001c7	08		 DB	 8
  001c8	08		 DB	 8
  001c9	08		 DB	 8
  001ca	08		 DB	 8
  001cb	08		 DB	 8
  001cc	08		 DB	 8
  001cd	08		 DB	 8
  001ce	08		 DB	 8
  001cf	08		 DB	 8
  001d0	08		 DB	 8
  001d1	08		 DB	 8
  001d2	08		 DB	 8
  001d3	08		 DB	 8
  001d4	08		 DB	 8
  001d5	08		 DB	 8
  001d6	08		 DB	 8
  001d7	08		 DB	 8
  001d8	08		 DB	 8
  001d9	08		 DB	 8
  001da	08		 DB	 8
  001db	08		 DB	 8
  001dc	08		 DB	 8
  001dd	08		 DB	 8
  001de	08		 DB	 8
  001df	08		 DB	 8
  001e0	08		 DB	 8
  001e1	08		 DB	 8
  001e2	08		 DB	 8
  001e3	08		 DB	 8
  001e4	08		 DB	 8
  001e5	08		 DB	 8
  001e6	08		 DB	 8
  001e7	08		 DB	 8
  001e8	08		 DB	 8
  001e9	08		 DB	 8
  001ea	08		 DB	 8
  001eb	08		 DB	 8
  001ec	08		 DB	 8
  001ed	08		 DB	 8
  001ee	08		 DB	 8
  001ef	08		 DB	 8
  001f0	08		 DB	 8
  001f1	08		 DB	 8
  001f2	08		 DB	 8
  001f3	08		 DB	 8
  001f4	08		 DB	 8
  001f5	08		 DB	 8
  001f6	08		 DB	 8
  001f7	08		 DB	 8
  001f8	08		 DB	 8
  001f9	08		 DB	 8
  001fa	08		 DB	 8
  001fb	08		 DB	 8
  001fc	08		 DB	 8
  001fd	08		 DB	 8
  001fe	08		 DB	 8
  001ff	08		 DB	 8
  00200	08		 DB	 8
  00201	08		 DB	 8
  00202	08		 DB	 8
  00203	08		 DB	 8
  00204	08		 DB	 8
  00205	08		 DB	 8
  00206	08		 DB	 8
  00207	08		 DB	 8
  00208	08		 DB	 8
  00209	08		 DB	 8
  0020a	08		 DB	 8
  0020b	08		 DB	 8
  0020c	08		 DB	 8
  0020d	08		 DB	 8
  0020e	08		 DB	 8
  0020f	08		 DB	 8
  00210	08		 DB	 8
  00211	08		 DB	 8
  00212	08		 DB	 8
  00213	08		 DB	 8
  00214	08		 DB	 8
  00215	08		 DB	 8
  00216	08		 DB	 8
  00217	08		 DB	 8
  00218	08		 DB	 8
  00219	08		 DB	 8
  0021a	04		 DB	 4
  0021b	05		 DB	 5
  0021c	08		 DB	 8
  0021d	08		 DB	 8
  0021e	08		 DB	 8
  0021f	08		 DB	 8
  00220	08		 DB	 8
  00221	08		 DB	 8
  00222	08		 DB	 8
  00223	08		 DB	 8
  00224	08		 DB	 8
  00225	08		 DB	 8
  00226	08		 DB	 8
  00227	08		 DB	 8
  00228	08		 DB	 8
  00229	08		 DB	 8
  0022a	08		 DB	 8
  0022b	06		 DB	 6
  0022c	08		 DB	 8
  0022d	08		 DB	 8
  0022e	08		 DB	 8
  0022f	08		 DB	 8
  00230	08		 DB	 8
  00231	08		 DB	 8
  00232	08		 DB	 8
  00233	08		 DB	 8
  00234	08		 DB	 8
  00235	08		 DB	 8
  00236	08		 DB	 8
  00237	08		 DB	 8
  00238	08		 DB	 8
  00239	08		 DB	 8
  0023a	08		 DB	 8
  0023b	08		 DB	 8
  0023c	08		 DB	 8
  0023d	08		 DB	 8
  0023e	08		 DB	 8
  0023f	08		 DB	 8
  00240	08		 DB	 8
  00241	07		 DB	 7
?get_local_int_value@@YGHPAUENTITY@@W4INT_TYPES@@@Z ENDP ; get_local_int_value
_TEXT	ENDS
; Function compile flags: /Odtp /ZI
; File c:\users\nhv90\projects\eech\aphavoc\source\entity\fixed\segment\sg_int.c
;	COMDAT ?set_client_int_value@@YGXPAUENTITY@@W4INT_TYPES@@H@Z
_TEXT	SEGMENT
_en$ = 8						; size = 4
_type$ = 12						; size = 4
_value$ = 16						; size = 4
?set_client_int_value@@YGXPAUENTITY@@W4INT_TYPES@@H@Z PROC ; set_client_int_value, COMDAT

; 156  : {

  00000	55		 push	 ebp
  00001	8b ec		 mov	 ebp, esp
  00003	83 ec 40	 sub	 esp, 64			; 00000040H
  00006	53		 push	 ebx
  00007	56		 push	 esi
  00008	57		 push	 edi

; 157  : 	if (get_comms_data_flow () == COMMS_DATA_FLOW_TX)

  00009	83 3d 00 00 00
	00 00		 cmp	 DWORD PTR ?system_comms_data_flow@@3W4COMMS_DATA_FLOW_TYPES@@A, 0 ; system_comms_data_flow
  00010	75 34		 jne	 SHORT $LN2@set_client

; 158  : 	{
; 159  : 		validate_client_server_remote_fn ();

  00012	e8 00 00 00 00	 call	 ?assert_client_server_remote_fn@@YGHXZ ; assert_client_server_remote_fn
  00017	85 c0		 test	 eax, eax
  00019	75 18		 jne	 SHORT $LN4@set_client
  0001b	a1 00 00 00 00	 mov	 eax, DWORD PTR ?__LINE__Var@?0??set_client_int_value@@YGXPAUENTITY@@W4INT_TYPES@@H@Z@4JA
  00020	83 c0 03	 add	 eax, 3
  00023	50		 push	 eax
  00024	68 00 00 00 00	 push	 OFFSET ??_C@_0EK@NBJKPJMG@c?3?2users?2nhv90?2projects?2eech?2ap@
  00029	68 00 00 00 00	 push	 OFFSET ??_C@_0CC@BNNNEGEG@assert_client_server_remote_fn?5@
  0002e	e8 00 00 00 00	 call	 ?process_assert@@YGXPBD0H@Z ; process_assert
$LN4@set_client:

; 160  : 
; 161  : 		set_remote_int_value (en, type, value);

  00033	8b 45 10	 mov	 eax, DWORD PTR _value$[ebp]
  00036	50		 push	 eax
  00037	8b 4d 0c	 mov	 ecx, DWORD PTR _type$[ebp]
  0003a	51		 push	 ecx
  0003b	8b 55 08	 mov	 edx, DWORD PTR _en$[ebp]
  0003e	52		 push	 edx
  0003f	e8 00 00 00 00	 call	 ?set_remote_int_value@@YGXPAUENTITY@@W4INT_TYPES@@H@Z ; set_remote_int_value

; 162  : 	}
; 163  : 	else

  00044	eb 32		 jmp	 SHORT $LN1@set_client
$LN2@set_client:

; 164  : 	{
; 165  : 		validate_client_server_local_fn ();

  00046	e8 00 00 00 00	 call	 ?assert_client_server_local_fn@@YGHXZ ; assert_client_server_local_fn
  0004b	85 c0		 test	 eax, eax
  0004d	75 18		 jne	 SHORT $LN5@set_client
  0004f	a1 00 00 00 00	 mov	 eax, DWORD PTR ?__LINE__Var@?0??set_client_int_value@@YGXPAUENTITY@@W4INT_TYPES@@H@Z@4JA
  00054	83 c0 09	 add	 eax, 9
  00057	50		 push	 eax
  00058	68 00 00 00 00	 push	 OFFSET ??_C@_0EK@NBJKPJMG@c?3?2users?2nhv90?2projects?2eech?2ap@
  0005d	68 00 00 00 00	 push	 OFFSET ??_C@_0CB@CFOCLFOK@assert_client_server_local_fn?5?$CI@
  00062	e8 00 00 00 00	 call	 ?process_assert@@YGXPBD0H@Z ; process_assert
$LN5@set_client:

; 166  : 
; 167  : 		set_local_int_value (en, type, value);

  00067	8b 45 10	 mov	 eax, DWORD PTR _value$[ebp]
  0006a	50		 push	 eax
  0006b	8b 4d 0c	 mov	 ecx, DWORD PTR _type$[ebp]
  0006e	51		 push	 ecx
  0006f	8b 55 08	 mov	 edx, DWORD PTR _en$[ebp]
  00072	52		 push	 edx
  00073	e8 00 00 00 00	 call	 ?set_local_int_value@@YGXPAUENTITY@@W4INT_TYPES@@H@Z ; set_local_int_value
$LN1@set_client:

; 168  : 	}
; 169  : }

  00078	5f		 pop	 edi
  00079	5e		 pop	 esi
  0007a	5b		 pop	 ebx
  0007b	8b e5		 mov	 esp, ebp
  0007d	5d		 pop	 ebp
  0007e	c2 0c 00	 ret	 12			; 0000000cH
?set_client_int_value@@YGXPAUENTITY@@W4INT_TYPES@@H@Z ENDP ; set_client_int_value
_TEXT	ENDS
; Function compile flags: /Odtp /ZI
; File c:\users\nhv90\projects\eech\aphavoc\source\entity\fixed\segment\sg_int.c
;	COMDAT ?set_server_int_value@@YGXPAUENTITY@@W4INT_TYPES@@H@Z
_TEXT	SEGMENT
_en$ = 8						; size = 4
_type$ = 12						; size = 4
_value$ = 16						; size = 4
?set_server_int_value@@YGXPAUENTITY@@W4INT_TYPES@@H@Z PROC ; set_server_int_value, COMDAT

; 141  : {

  00000	55		 push	 ebp
  00001	8b ec		 mov	 ebp, esp
  00003	83 ec 40	 sub	 esp, 64			; 00000040H
  00006	53		 push	 ebx
  00007	56		 push	 esi
  00008	57		 push	 edi

; 142  : 	validate_client_server_local_fn ();

  00009	e8 00 00 00 00	 call	 ?assert_client_server_local_fn@@YGHXZ ; assert_client_server_local_fn
  0000e	85 c0		 test	 eax, eax
  00010	75 18		 jne	 SHORT $LN2@set_server
  00012	a1 00 00 00 00	 mov	 eax, DWORD PTR ?__LINE__Var@?0??set_server_int_value@@YGXPAUENTITY@@W4INT_TYPES@@H@Z@4JA
  00017	83 c0 01	 add	 eax, 1
  0001a	50		 push	 eax
  0001b	68 00 00 00 00	 push	 OFFSET ??_C@_0EK@NBJKPJMG@c?3?2users?2nhv90?2projects?2eech?2ap@
  00020	68 00 00 00 00	 push	 OFFSET ??_C@_0CB@CFOCLFOK@assert_client_server_local_fn?5?$CI@
  00025	e8 00 00 00 00	 call	 ?process_assert@@YGXPBD0H@Z ; process_assert
$LN2@set_server:

; 143  : 
; 144  : 	set_local_int_value (en, type, value);

  0002a	8b 45 10	 mov	 eax, DWORD PTR _value$[ebp]
  0002d	50		 push	 eax
  0002e	8b 4d 0c	 mov	 ecx, DWORD PTR _type$[ebp]
  00031	51		 push	 ecx
  00032	8b 55 08	 mov	 edx, DWORD PTR _en$[ebp]
  00035	52		 push	 edx
  00036	e8 00 00 00 00	 call	 ?set_local_int_value@@YGXPAUENTITY@@W4INT_TYPES@@H@Z ; set_local_int_value

; 145  : 
; 146  : 	validate_client_server_remote_fn ();

  0003b	e8 00 00 00 00	 call	 ?assert_client_server_remote_fn@@YGHXZ ; assert_client_server_remote_fn
  00040	85 c0		 test	 eax, eax
  00042	75 18		 jne	 SHORT $LN3@set_server
  00044	a1 00 00 00 00	 mov	 eax, DWORD PTR ?__LINE__Var@?0??set_server_int_value@@YGXPAUENTITY@@W4INT_TYPES@@H@Z@4JA
  00049	83 c0 05	 add	 eax, 5
  0004c	50		 push	 eax
  0004d	68 00 00 00 00	 push	 OFFSET ??_C@_0EK@NBJKPJMG@c?3?2users?2nhv90?2projects?2eech?2ap@
  00052	68 00 00 00 00	 push	 OFFSET ??_C@_0CC@BNNNEGEG@assert_client_server_remote_fn?5@
  00057	e8 00 00 00 00	 call	 ?process_assert@@YGXPBD0H@Z ; process_assert
$LN3@set_server:

; 147  : 
; 148  : 	set_remote_int_value (en, type, value);

  0005c	8b 45 10	 mov	 eax, DWORD PTR _value$[ebp]
  0005f	50		 push	 eax
  00060	8b 4d 0c	 mov	 ecx, DWORD PTR _type$[ebp]
  00063	51		 push	 ecx
  00064	8b 55 08	 mov	 edx, DWORD PTR _en$[ebp]
  00067	52		 push	 edx
  00068	e8 00 00 00 00	 call	 ?set_remote_int_value@@YGXPAUENTITY@@W4INT_TYPES@@H@Z ; set_remote_int_value

; 149  : }

  0006d	5f		 pop	 edi
  0006e	5e		 pop	 esi
  0006f	5b		 pop	 ebx
  00070	8b e5		 mov	 esp, ebp
  00072	5d		 pop	 ebp
  00073	c2 0c 00	 ret	 12			; 0000000cH
?set_server_int_value@@YGXPAUENTITY@@W4INT_TYPES@@H@Z ENDP ; set_server_int_value
_TEXT	ENDS
; Function compile flags: /Odtp /ZI
; File c:\users\nhv90\projects\eech\aphavoc\source\entity\fixed\segment\sg_int.c
;	COMDAT ?set_remote_int_value@@YGXPAUENTITY@@W4INT_TYPES@@H@Z
_TEXT	SEGMENT
_en$ = 8						; size = 4
_type$ = 12						; size = 4
_value$ = 16						; size = 4
?set_remote_int_value@@YGXPAUENTITY@@W4INT_TYPES@@H@Z PROC ; set_remote_int_value, COMDAT

; 126  : {

  00000	55		 push	 ebp
  00001	8b ec		 mov	 ebp, esp
  00003	83 ec 40	 sub	 esp, 64			; 00000040H
  00006	53		 push	 ebx
  00007	56		 push	 esi
  00008	57		 push	 edi

; 127  : 	#if DEBUG_MODULE
; 128  : 
; 129  : 	debug_log_entity_args (ENTITY_DEBUG_REMOTE, ENTITY_DEBUG_INT_VALUE, en, type, value);
; 130  : 
; 131  : 	#endif
; 132  : 
; 133  : 	transmit_entity_comms_message (ENTITY_COMMS_INT_VALUE, en, type, value);

  00009	8b 45 10	 mov	 eax, DWORD PTR _value$[ebp]
  0000c	50		 push	 eax
  0000d	8b 4d 0c	 mov	 ecx, DWORD PTR _type$[ebp]
  00010	51		 push	 ecx
  00011	8b 55 08	 mov	 edx, DWORD PTR _en$[ebp]
  00014	52		 push	 edx
  00015	6a 17		 push	 23			; 00000017H
  00017	e8 00 00 00 00	 call	 ?transmit_entity_comms_message@@YAXW4ENTITY_COMMS_MESSAGES@@PAUENTITY@@ZZ ; transmit_entity_comms_message
  0001c	83 c4 10	 add	 esp, 16			; 00000010H

; 134  : }

  0001f	5f		 pop	 edi
  00020	5e		 pop	 esi
  00021	5b		 pop	 ebx
  00022	8b e5		 mov	 esp, ebp
  00024	5d		 pop	 ebp
  00025	c2 0c 00	 ret	 12			; 0000000cH
?set_remote_int_value@@YGXPAUENTITY@@W4INT_TYPES@@H@Z ENDP ; set_remote_int_value
_TEXT	ENDS
; Function compile flags: /Odtp /ZI
; File c:\users\nhv90\projects\eech\aphavoc\source\entity\fixed\segment\sg_int.c
;	COMDAT ?set_local_int_value@@YGXPAUENTITY@@W4INT_TYPES@@H@Z
_TEXT	SEGMENT
tv84 = -72						; size = 4
tv65 = -72						; size = 4
_raw$ = -4						; size = 4
_en$ = 8						; size = 4
_type$ = 12						; size = 4
_value$ = 16						; size = 4
?set_local_int_value@@YGXPAUENTITY@@W4INT_TYPES@@H@Z PROC ; set_local_int_value, COMDAT

; 80   : {

  00000	55		 push	 ebp
  00001	8b ec		 mov	 ebp, esp
  00003	83 ec 48	 sub	 esp, 72			; 00000048H
  00006	53		 push	 ebx
  00007	56		 push	 esi
  00008	57		 push	 edi

; 81   : 	segment
; 82   : 		*raw;
; 83   : 
; 84   : 	#if DEBUG_MODULE
; 85   : 
; 86   : 	debug_log_entity_args (ENTITY_DEBUG_LOCAL, ENTITY_DEBUG_INT_VALUE, en, type, value);
; 87   : 
; 88   : 	#endif
; 89   : 
; 90   : 	raw = (segment *) get_local_entity_data (en);

  00009	8b 45 08	 mov	 eax, DWORD PTR _en$[ebp]
  0000c	8b 48 04	 mov	 ecx, DWORD PTR [eax+4]
  0000f	89 4d fc	 mov	 DWORD PTR _raw$[ebp], ecx

; 91   : 
; 92   : 	switch (type)

  00012	8b 45 0c	 mov	 eax, DWORD PTR _type$[ebp]
  00015	89 45 b8	 mov	 DWORD PTR tv65[ebp], eax
  00018	83 7d b8 0f	 cmp	 DWORD PTR tv65[ebp], 15	; 0000000fH
  0001c	74 08		 je	 SHORT $LN4@set_local_
  0001e	83 7d b8 25	 cmp	 DWORD PTR tv65[ebp], 37	; 00000025H
  00022	74 0d		 je	 SHORT $LN5@set_local_
  00024	eb 16		 jmp	 SHORT $LN6@set_local_
$LN4@set_local_:

; 93   : 	{
; 94   : 		////////////////////////////////////////
; 95   : 		case INT_TYPE_BRIDGE_SEGMENT_TYPE:
; 96   : 		////////////////////////////////////////
; 97   : 		{
; 98   : 			raw->bridge_segment_type = value;

  00026	8b 45 fc	 mov	 eax, DWORD PTR _raw$[ebp]
  00029	8b 4d 10	 mov	 ecx, DWORD PTR _value$[ebp]
  0002c	89 48 58	 mov	 DWORD PTR [eax+88], ecx

; 99   : 
; 100  : 			break;

  0002f	eb 7d		 jmp	 SHORT $LN1@set_local_
$LN5@set_local_:

; 101  : 		}
; 102  : 		////////////////////////////////////////
; 103  : 		case INT_TYPE_DAMAGE_LEVEL:
; 104  : 		////////////////////////////////////////
; 105  : 		{
; 106  : 			raw->damage_level = value;

  00031	8b 45 fc	 mov	 eax, DWORD PTR _raw$[ebp]
  00034	8b 4d 10	 mov	 ecx, DWORD PTR _value$[ebp]
  00037	89 48 5c	 mov	 DWORD PTR [eax+92], ecx

; 107  : 
; 108  : 			break;

  0003a	eb 72		 jmp	 SHORT $LN1@set_local_
$LN6@set_local_:

; 109  : 		}
; 110  : 		////////////////////////////////////////
; 111  : 		default:
; 112  : 		////////////////////////////////////////
; 113  : 		{
; 114  : 			debug_fatal_invalid_int_type (en, type);

  0003c	83 7d 08 00	 cmp	 DWORD PTR _en$[ebp], 0
  00040	74 0a		 je	 SHORT $LN8@set_local_
  00042	8b 45 08	 mov	 eax, DWORD PTR _en$[ebp]
  00045	8b 08		 mov	 ecx, DWORD PTR [eax]
  00047	89 4d b8	 mov	 DWORD PTR tv84[ebp], ecx
  0004a	eb 21		 jmp	 SHORT $LN9@set_local_
$LN8@set_local_:
  0004c	8b 15 00 00 00
	00		 mov	 edx, DWORD PTR ?__LINE__Var@?0??set_local_int_value@@YGXPAUENTITY@@W4INT_TYPES@@H@Z@4JA
  00052	83 c2 22	 add	 edx, 34			; 00000022H
  00055	52		 push	 edx
  00056	68 00 00 00 00	 push	 OFFSET ??_C@_0EK@NBJKPJMG@c?3?2users?2nhv90?2projects?2eech?2ap@
  0005b	a1 00 00 00 00	 mov	 eax, DWORD PTR ?null_entity_pointer_message@@3PBDB ; null_entity_pointer_message
  00060	50		 push	 eax
  00061	e8 00 00 00 00	 call	 ?process_assert@@YGXPBD0H@Z ; process_assert
  00066	c7 45 b8 00 00
	00 00		 mov	 DWORD PTR tv84[ebp], 0
$LN9@set_local_:
  0006d	8b 0d 00 00 00
	00		 mov	 ecx, DWORD PTR ?__LINE__Var@?0??set_local_int_value@@YGXPAUENTITY@@W4INT_TYPES@@H@Z@4JA
  00073	83 c1 22	 add	 ecx, 34			; 00000022H
  00076	51		 push	 ecx
  00077	68 00 00 00 00	 push	 OFFSET ??_C@_0EK@NBJKPJMG@c?3?2users?2nhv90?2projects?2eech?2ap@
  0007c	6b 55 0c 14	 imul	 edx, DWORD PTR _type$[ebp], 20
  00080	8b 82 00 00 00
	00		 mov	 eax, DWORD PTR ?int_type_database@@3PAUINT_TYPE_DATA@@A[edx]
  00086	50		 push	 eax
  00087	8b 4d 08	 mov	 ecx, DWORD PTR _en$[ebp]
  0008a	2b 0d 00 00 00
	00		 sub	 ecx, DWORD PTR ?entities@@3PAUENTITY@@A ; entities
  00090	c1 f9 04	 sar	 ecx, 4
  00093	51		 push	 ecx
  00094	6b 55 b8 0c	 imul	 edx, DWORD PTR tv84[ebp], 12
  00098	8b 82 00 00 00
	00		 mov	 eax, DWORD PTR ?entity_type_database@@3PAUENTITY_TYPE_DATA@@A[edx]
  0009e	50		 push	 eax
  0009f	8b 0d 00 00 00
	00		 mov	 ecx, DWORD PTR ?debug_fatal_invalid_int_type_message@@3PBDB ; debug_fatal_invalid_int_type_message
  000a5	51		 push	 ecx
  000a6	e8 00 00 00 00	 call	 ?debug_fatal@@YAXPBDZZ	; debug_fatal
  000ab	83 c4 18	 add	 esp, 24			; 00000018H
$LN1@set_local_:

; 115  : 
; 116  : 			break;
; 117  : 		}
; 118  : 	}
; 119  : }

  000ae	5f		 pop	 edi
  000af	5e		 pop	 esi
  000b0	5b		 pop	 ebx
  000b1	8b e5		 mov	 esp, ebp
  000b3	5d		 pop	 ebp
  000b4	c2 0c 00	 ret	 12			; 0000000cH
?set_local_int_value@@YGXPAUENTITY@@W4INT_TYPES@@H@Z ENDP ; set_local_int_value
_TEXT	ENDS
; Function compile flags: /Odtp /ZI
; File c:\users\nhv90\projects\eech\aphavoc\source\entity\fixed\segment\sg_int.c
;	COMDAT ?overload_segment_int_value_functions@@YGXXZ
_TEXT	SEGMENT
?overload_segment_int_value_functions@@YGXXZ PROC	; overload_segment_int_value_functions, COMDAT

; 269  : {

  00000	55		 push	 ebp
  00001	8b ec		 mov	 ebp, esp
  00003	83 ec 40	 sub	 esp, 64			; 00000040H
  00006	53		 push	 ebx
  00007	56		 push	 esi
  00008	57		 push	 edi

; 270  : 	fn_set_local_entity_raw_int_value		[ENTITY_TYPE_SEGMENT][INT_TYPE_BRIDGE_SEGMENT_TYPE]							= set_local_int_value;

  00009	b8 5c 04 00 00	 mov	 eax, 1116		; 0000045cH
  0000e	6b c8 1a	 imul	 ecx, eax, 26
  00011	ba 04 00 00 00	 mov	 edx, 4
  00016	6b c2 0f	 imul	 eax, edx, 15
  00019	c7 84 01 00 00
	00 00 00 00 00
	00		 mov	 DWORD PTR ?fn_set_local_entity_raw_int_value@@3PAY0BBH@P6GXPAUENTITY@@W4INT_TYPES@@H@ZA[ecx+eax], OFFSET ?set_local_int_value@@YGXPAUENTITY@@W4INT_TYPES@@H@Z ; set_local_int_value

; 271  : 	fn_set_local_entity_int_value				[ENTITY_TYPE_SEGMENT][INT_TYPE_BRIDGE_SEGMENT_TYPE]							= set_local_int_value;

  00024	b8 5c 04 00 00	 mov	 eax, 1116		; 0000045cH
  00029	6b c8 1a	 imul	 ecx, eax, 26
  0002c	ba 04 00 00 00	 mov	 edx, 4
  00031	6b c2 0f	 imul	 eax, edx, 15
  00034	c7 84 01 00 00
	00 00 00 00 00
	00		 mov	 DWORD PTR ?fn_set_local_entity_int_value@@3PAY0BBH@P6GXPAUENTITY@@W4INT_TYPES@@H@ZA[ecx+eax], OFFSET ?set_local_int_value@@YGXPAUENTITY@@W4INT_TYPES@@H@Z ; set_local_int_value

; 272  : 	fn_set_client_server_entity_int_value	[ENTITY_TYPE_SEGMENT][INT_TYPE_BRIDGE_SEGMENT_TYPE][COMMS_MODEL_SERVER]	= set_server_int_value;

  0003f	b8 b8 08 00 00	 mov	 eax, 2232		; 000008b8H
  00044	6b c8 1a	 imul	 ecx, eax, 26
  00047	ba 08 00 00 00	 mov	 edx, 8
  0004c	6b c2 0f	 imul	 eax, edx, 15
  0004f	8d 8c 01 00 00
	00 00		 lea	 ecx, DWORD PTR ?fn_set_client_server_entity_int_value@@3PAY1BBH@1P6GXPAUENTITY@@W4INT_TYPES@@H@ZA[ecx+eax]
  00056	ba 04 00 00 00	 mov	 edx, 4
  0005b	6b c2 00	 imul	 eax, edx, 0
  0005e	c7 04 01 00 00
	00 00		 mov	 DWORD PTR [ecx+eax], OFFSET ?set_server_int_value@@YGXPAUENTITY@@W4INT_TYPES@@H@Z ; set_server_int_value

; 273  : 	fn_set_client_server_entity_int_value	[ENTITY_TYPE_SEGMENT][INT_TYPE_BRIDGE_SEGMENT_TYPE][COMMS_MODEL_CLIENT]	= set_client_int_value;

  00065	b8 b8 08 00 00	 mov	 eax, 2232		; 000008b8H
  0006a	6b c8 1a	 imul	 ecx, eax, 26
  0006d	ba 08 00 00 00	 mov	 edx, 8
  00072	6b c2 0f	 imul	 eax, edx, 15
  00075	8d 8c 01 00 00
	00 00		 lea	 ecx, DWORD PTR ?fn_set_client_server_entity_int_value@@3PAY1BBH@1P6GXPAUENTITY@@W4INT_TYPES@@H@ZA[ecx+eax]
  0007c	ba 04 00 00 00	 mov	 edx, 4
  00081	c1 e2 00	 shl	 edx, 0
  00084	c7 04 11 00 00
	00 00		 mov	 DWORD PTR [ecx+edx], OFFSET ?set_client_int_value@@YGXPAUENTITY@@W4INT_TYPES@@H@Z ; set_client_int_value

; 274  : 	fn_get_local_entity_int_value				[ENTITY_TYPE_SEGMENT][INT_TYPE_BRIDGE_SEGMENT_TYPE]							= get_local_int_value;

  0008b	b8 5c 04 00 00	 mov	 eax, 1116		; 0000045cH
  00090	6b c8 1a	 imul	 ecx, eax, 26
  00093	ba 04 00 00 00	 mov	 edx, 4
  00098	6b c2 0f	 imul	 eax, edx, 15
  0009b	c7 84 01 00 00
	00 00 00 00 00
	00		 mov	 DWORD PTR ?fn_get_local_entity_int_value@@3PAY0BBH@P6GHPAUENTITY@@W4INT_TYPES@@@ZA[ecx+eax], OFFSET ?get_local_int_value@@YGHPAUENTITY@@W4INT_TYPES@@@Z ; get_local_int_value

; 275  : 
; 276  : 	fn_set_local_entity_raw_int_value		[ENTITY_TYPE_SEGMENT][INT_TYPE_DAMAGE_LEVEL]										= set_local_int_value;

  000a6	b8 5c 04 00 00	 mov	 eax, 1116		; 0000045cH
  000ab	6b c8 1a	 imul	 ecx, eax, 26
  000ae	ba 04 00 00 00	 mov	 edx, 4
  000b3	6b c2 25	 imul	 eax, edx, 37
  000b6	c7 84 01 00 00
	00 00 00 00 00
	00		 mov	 DWORD PTR ?fn_set_local_entity_raw_int_value@@3PAY0BBH@P6GXPAUENTITY@@W4INT_TYPES@@H@ZA[ecx+eax], OFFSET ?set_local_int_value@@YGXPAUENTITY@@W4INT_TYPES@@H@Z ; set_local_int_value

; 277  : 	fn_set_local_entity_int_value				[ENTITY_TYPE_SEGMENT][INT_TYPE_DAMAGE_LEVEL]										= set_local_int_value;

  000c1	b8 5c 04 00 00	 mov	 eax, 1116		; 0000045cH
  000c6	6b c8 1a	 imul	 ecx, eax, 26
  000c9	ba 04 00 00 00	 mov	 edx, 4
  000ce	6b c2 25	 imul	 eax, edx, 37
  000d1	c7 84 01 00 00
	00 00 00 00 00
	00		 mov	 DWORD PTR ?fn_set_local_entity_int_value@@3PAY0BBH@P6GXPAUENTITY@@W4INT_TYPES@@H@ZA[ecx+eax], OFFSET ?set_local_int_value@@YGXPAUENTITY@@W4INT_TYPES@@H@Z ; set_local_int_value

; 278  : 	fn_set_client_server_entity_int_value	[ENTITY_TYPE_SEGMENT][INT_TYPE_DAMAGE_LEVEL][COMMS_MODEL_SERVER]			= set_server_int_value;

  000dc	b8 b8 08 00 00	 mov	 eax, 2232		; 000008b8H
  000e1	6b c8 1a	 imul	 ecx, eax, 26
  000e4	ba 08 00 00 00	 mov	 edx, 8
  000e9	6b c2 25	 imul	 eax, edx, 37
  000ec	8d 8c 01 00 00
	00 00		 lea	 ecx, DWORD PTR ?fn_set_client_server_entity_int_value@@3PAY1BBH@1P6GXPAUENTITY@@W4INT_TYPES@@H@ZA[ecx+eax]
  000f3	ba 04 00 00 00	 mov	 edx, 4
  000f8	6b c2 00	 imul	 eax, edx, 0
  000fb	c7 04 01 00 00
	00 00		 mov	 DWORD PTR [ecx+eax], OFFSET ?set_server_int_value@@YGXPAUENTITY@@W4INT_TYPES@@H@Z ; set_server_int_value

; 279  : 	fn_set_client_server_entity_int_value	[ENTITY_TYPE_SEGMENT][INT_TYPE_DAMAGE_LEVEL][COMMS_MODEL_CLIENT]			= set_client_int_value;

  00102	b8 b8 08 00 00	 mov	 eax, 2232		; 000008b8H
  00107	6b c8 1a	 imul	 ecx, eax, 26
  0010a	ba 08 00 00 00	 mov	 edx, 8
  0010f	6b c2 25	 imul	 eax, edx, 37
  00112	8d 8c 01 00 00
	00 00		 lea	 ecx, DWORD PTR ?fn_set_client_server_entity_int_value@@3PAY1BBH@1P6GXPAUENTITY@@W4INT_TYPES@@H@ZA[ecx+eax]
  00119	ba 04 00 00 00	 mov	 edx, 4
  0011e	c1 e2 00	 shl	 edx, 0
  00121	c7 04 11 00 00
	00 00		 mov	 DWORD PTR [ecx+edx], OFFSET ?set_client_int_value@@YGXPAUENTITY@@W4INT_TYPES@@H@Z ; set_client_int_value

; 280  : 	fn_get_local_entity_int_value				[ENTITY_TYPE_SEGMENT][INT_TYPE_DAMAGE_LEVEL]										= get_local_int_value;

  00128	b8 5c 04 00 00	 mov	 eax, 1116		; 0000045cH
  0012d	6b c8 1a	 imul	 ecx, eax, 26
  00130	ba 04 00 00 00	 mov	 edx, 4
  00135	6b c2 25	 imul	 eax, edx, 37
  00138	c7 84 01 00 00
	00 00 00 00 00
	00		 mov	 DWORD PTR ?fn_get_local_entity_int_value@@3PAY0BBH@P6GHPAUENTITY@@W4INT_TYPES@@@ZA[ecx+eax], OFFSET ?get_local_int_value@@YGHPAUENTITY@@W4INT_TYPES@@@Z ; get_local_int_value

; 281  : 
; 282  : 	fn_get_local_entity_int_value				[ENTITY_TYPE_SEGMENT][INT_TYPE_EXPLOSIVE_POWER]									= get_local_int_value;

  00143	b8 5c 04 00 00	 mov	 eax, 1116		; 0000045cH
  00148	6b c8 1a	 imul	 ecx, eax, 26
  0014b	ba 04 00 00 00	 mov	 edx, 4
  00150	6b c2 36	 imul	 eax, edx, 54
  00153	c7 84 01 00 00
	00 00 00 00 00
	00		 mov	 DWORD PTR ?fn_get_local_entity_int_value@@3PAY0BBH@P6GHPAUENTITY@@W4INT_TYPES@@@ZA[ecx+eax], OFFSET ?get_local_int_value@@YGHPAUENTITY@@W4INT_TYPES@@@Z ; get_local_int_value

; 283  : 
; 284  : 	fn_get_local_entity_int_value				[ENTITY_TYPE_SEGMENT][INT_TYPE_EXPLOSIVE_QUALITY]								= get_local_int_value;

  0015e	b8 5c 04 00 00	 mov	 eax, 1116		; 0000045cH
  00163	6b c8 1a	 imul	 ecx, eax, 26
  00166	ba 04 00 00 00	 mov	 edx, 4
  0016b	6b c2 37	 imul	 eax, edx, 55
  0016e	c7 84 01 00 00
	00 00 00 00 00
	00		 mov	 DWORD PTR ?fn_get_local_entity_int_value@@3PAY0BBH@P6GHPAUENTITY@@W4INT_TYPES@@@ZA[ecx+eax], OFFSET ?get_local_int_value@@YGHPAUENTITY@@W4INT_TYPES@@@Z ; get_local_int_value

; 285  : 
; 286  : 	fn_get_local_entity_int_value				[ENTITY_TYPE_SEGMENT][INT_TYPE_TARGET_SYMBOL_TYPE]								= get_local_int_value;

  00179	b8 5c 04 00 00	 mov	 eax, 1116		; 0000045cH
  0017e	6b c8 1a	 imul	 ecx, eax, 26
  00181	ba 04 00 00 00	 mov	 edx, 4
  00186	69 c2 d5 00 00
	00		 imul	 eax, edx, 213
  0018c	c7 84 01 00 00
	00 00 00 00 00
	00		 mov	 DWORD PTR ?fn_get_local_entity_int_value@@3PAY0BBH@P6GHPAUENTITY@@W4INT_TYPES@@@ZA[ecx+eax], OFFSET ?get_local_int_value@@YGHPAUENTITY@@W4INT_TYPES@@@Z ; get_local_int_value

; 287  : 
; 288  : 	fn_get_local_entity_int_value				[ENTITY_TYPE_SEGMENT][INT_TYPE_TARGET_TYPE]										= get_local_int_value;

  00197	b8 5c 04 00 00	 mov	 eax, 1116		; 0000045cH
  0019c	6b c8 1a	 imul	 ecx, eax, 26
  0019f	ba 04 00 00 00	 mov	 edx, 4
  001a4	69 c2 d6 00 00
	00		 imul	 eax, edx, 214
  001aa	c7 84 01 00 00
	00 00 00 00 00
	00		 mov	 DWORD PTR ?fn_get_local_entity_int_value@@3PAY0BBH@P6GHPAUENTITY@@W4INT_TYPES@@@ZA[ecx+eax], OFFSET ?get_local_int_value@@YGHPAUENTITY@@W4INT_TYPES@@@Z ; get_local_int_value

; 289  : 
; 290  : 	fn_get_local_entity_int_value				[ENTITY_TYPE_SEGMENT][INT_TYPE_TASK_TARGET_TYPE]								= get_local_int_value;

  001b5	b8 5c 04 00 00	 mov	 eax, 1116		; 0000045cH
  001ba	6b c8 1a	 imul	 ecx, eax, 26
  001bd	ba 04 00 00 00	 mov	 edx, 4
  001c2	69 c2 e6 00 00
	00		 imul	 eax, edx, 230
  001c8	c7 84 01 00 00
	00 00 00 00 00
	00		 mov	 DWORD PTR ?fn_get_local_entity_int_value@@3PAY0BBH@P6GHPAUENTITY@@W4INT_TYPES@@@ZA[ecx+eax], OFFSET ?get_local_int_value@@YGHPAUENTITY@@W4INT_TYPES@@@Z ; get_local_int_value

; 291  : 
; 292  : 	fn_get_local_entity_int_value				[ENTITY_TYPE_SEGMENT][INT_TYPE_WARHEAD_EFFECTIVE_CLASS]						= get_local_int_value;

  001d3	b8 5c 04 00 00	 mov	 eax, 1116		; 0000045cH
  001d8	6b c8 1a	 imul	 ecx, eax, 26
  001db	ba 04 00 00 00	 mov	 edx, 4
  001e0	69 c2 fc 00 00
	00		 imul	 eax, edx, 252
  001e6	c7 84 01 00 00
	00 00 00 00 00
	00		 mov	 DWORD PTR ?fn_get_local_entity_int_value@@3PAY0BBH@P6GHPAUENTITY@@W4INT_TYPES@@@ZA[ecx+eax], OFFSET ?get_local_int_value@@YGHPAUENTITY@@W4INT_TYPES@@@Z ; get_local_int_value

; 293  : }

  001f1	5f		 pop	 edi
  001f2	5e		 pop	 esi
  001f3	5b		 pop	 ebx
  001f4	8b e5		 mov	 esp, ebp
  001f6	5d		 pop	 ebp
  001f7	c3		 ret	 0
?overload_segment_int_value_functions@@YGXXZ ENDP	; overload_segment_int_value_functions
_TEXT	ENDS
END
