; Listing generated by Microsoft (R) Optimizing Compiler Version 19.16.27045.0 

	TITLE	C:\Users\nhv90\Projects\eech\aphavoc\source\entity\mobile\vehicle\ship\sh_creat.c
	.686P
	.XMM
	include listing.inc
	.model	flat

INCLUDELIB MSVCRTD
INCLUDELIB OLDNAMES

PUBLIC	?overload_ship_vehicle_create_functions@@YGXXZ	; overload_ship_vehicle_create_functions
PUBLIC	?create_client_server_entity_ship@@YGPAUENTITY@@HHPAU1@PAUVEC3D@@@Z ; create_client_server_entity_ship
PUBLIC	?create_local_entity_ship@@YGPAUENTITY@@HHPAU1@PAUVEC3D@@@Z ; create_local_entity_ship
PUBLIC	?__LINE__Var@?0??create_local@@YGPAUENTITY@@W4ENTITY_TYPES@@HPAD@Z@4JA ; `create_local'::`1'::__LINE__Var
PUBLIC	??_C@_0FC@KBMKMIJK@c?3?2users?2nhv90?2projects?2eech?2ap@ ; `string'
PUBLIC	??_C@_0CL@OOPHFNJI@assert_local_create_entity_inde@ ; `string'
PUBLIC	??_C@_0BL@DJJKEKPA@raw?9?$DOvh?4member_link?4parent@ ; `string'
PUBLIC	??_C@_0EI@DJAOJDPN@get_local_entity_type?5?$CIraw?9?$DOvh?4@ ; `string'
PUBLIC	??_C@_0CI@PIKALLKJ@raw?9?$DOvh?4mob?4side?5?$CB?$DN?5ENTITY_SIDE@ ; `string'
PUBLIC	??_C@_0DF@HPCMHJPO@entity_sub_type_vehicle_valid?5?$CI@ ; `string'
PUBLIC	??_C@_0DG@BJPIFHJB@weapon_config_type_valid?5?$CIraw?9?$DO@ ; `string'
PUBLIC	?__LINE__Var@?0??create_remote@@YGPAUENTITY@@W4ENTITY_TYPES@@HPAD@Z@4JA ; `create_remote'::`1'::__LINE__Var
PUBLIC	??_C@_0CM@DHBIKIGD@assert_remote_create_entity_ind@ ; `string'
PUBLIC	?__LINE__Var@?0??create_server@@YGPAUENTITY@@W4ENTITY_TYPES@@HPAD@Z@4JA ; `create_server'::`1'::__LINE__Var
PUBLIC	??_C@_0CB@CFOCLFOK@assert_client_server_local_fn?5?$CI@ ; `string'
PUBLIC	??_C@_0CC@BNNNEGEG@assert_client_server_remote_fn?5@ ; `string'
PUBLIC	?__LINE__Var@?0??create_client@@YGPAUENTITY@@W4ENTITY_TYPES@@HPAD@Z@4JA ; `create_client'::`1'::__LINE__Var
PUBLIC	?__LINE__Var@?0??create_client_server_entity_ship@@YGPAUENTITY@@HHPAU2@PAUVEC3D@@@Z@4JA ; `create_client_server_entity_ship'::`1'::__LINE__Var
PUBLIC	??_C@_0CI@NLFHFOLH@get_comms_model?$CI?$CJ?5?$DN?$DN?5COMMS_MODE@ ; `string'
PUBLIC	?__LINE__Var@?0??create_local_entity_ship@@YGPAUENTITY@@HHPAU2@PAUVEC3D@@@Z@4JA ; `create_local_entity_ship'::`1'::__LINE__Var
PUBLIC	__real@3f00002000400080
PUBLIC	__real@3f800000
PUBLIC	__real@bf800000
EXTRN	_memset:PROC
EXTRN	?process_assert@@YGXPBD0H@Z:PROC		; process_assert
EXTRN	?malloc_fast_memory@@YGPAXI@Z:PROC		; malloc_fast_memory
EXTRN	?get_identity_matrix3x3@@YGXQAY02M@Z:PROC	; get_identity_matrix3x3
EXTRN	?construct_3d_object@@YGPAUOBJECT_3D_INSTANCE@@H@Z:PROC ; construct_3d_object
EXTRN	?find_object_3d_sub_object@@YG?AW4SUB_OBJECT_SEARCH_RESULT_TYPES@@PAUOBJECT_3D_SUB_OBJECT_SEARCH_DATA@@@Z:PROC ; find_object_3d_sub_object
EXTRN	?set_local_entity_attributes@@YGXPAUENTITY@@PAD@Z:PROC ; set_local_entity_attributes
EXTRN	?insert_local_entity_into_parents_child_list@@YGXPAUENTITY@@W4LIST_TYPES@@00@Z:PROC ; insert_local_entity_into_parents_child_list
EXTRN	?create_local_entity@@YAPAUENTITY@@W4ENTITY_TYPES@@HZZ:PROC ; create_local_entity
EXTRN	?create_client_server_entity@@YAPAUENTITY@@W4ENTITY_TYPES@@HZZ:PROC ; create_client_server_entity
EXTRN	?transmit_entity_comms_message@@YAXW4ENTITY_COMMS_MESSAGES@@PAUENTITY@@ZZ:PROC ; transmit_entity_comms_message
EXTRN	?assert_client_server_local_fn@@YGHXZ:PROC	; assert_client_server_local_fn
EXTRN	?assert_client_server_remote_fn@@YGHXZ:PROC	; assert_client_server_remote_fn
EXTRN	?assert_local_create_entity_index@@YGHH@Z:PROC	; assert_local_create_entity_index
EXTRN	?assert_remote_create_entity_index@@YGHH@Z:PROC	; assert_remote_create_entity_index
EXTRN	?get_free_entity@@YGPAUENTITY@@H@Z:PROC		; get_free_entity
EXTRN	?load_local_entity_weapon_config@@YGXPAUENTITY@@@Z:PROC ; load_local_entity_weapon_config
EXTRN	?set_ship_vehicle_id_number@@YGXPAUENTITY@@@Z:PROC ; set_ship_vehicle_id_number
EXTRN	?attach_ship_meta_smoke_lists@@YGXPAUENTITY@@@Z:PROC ; attach_ship_meta_smoke_lists
EXTRN	?get_local_entity_view_list_pred@@YGPAUENTITY@@PAU1@@Z:PROC ; get_local_entity_view_list_pred
EXTRN	?create_client_server_sound_effect_entity@@YGPAUENTITY@@PAU1@W4ENTITY_SIDES@@HW4SOUND_CHANNEL_TYPES@@W4SOUND_LOCALITY_TYPES@@PAUVEC3D@@MMHHHPAH@Z:PROC ; create_client_server_sound_effect_entity
EXTRN	?get_local_force_entity@@YGPAUENTITY@@W4ENTITY_SIDES@@@Z:PROC ; get_local_force_entity
EXTRN	?add_to_force_info@@YGXPAUENTITY@@0@Z:PROC	; add_to_force_info
EXTRN	?get_local_sector_entity@@YGPAUENTITY@@PAUVEC3D@@@Z:PROC ; get_local_sector_entity
EXTRN	?random_number_seed@@3HA:DWORD			; random_number_seed
EXTRN	?null_entity_pointer_message@@3PBDB:DWORD	; null_entity_pointer_message
EXTRN	?system_comms_model@@3W4COMMS_MODEL_TYPES@@A:DWORD ; system_comms_model
EXTRN	?system_comms_data_flow@@3W4COMMS_DATA_FLOW_TYPES@@A:DWORD ; system_comms_data_flow
EXTRN	?world_map@@3UWORLD_MAP_DATA@@A:BYTE		; world_map
EXTRN	?fn_create_local_entity@@3PAP6GPAUENTITY@@W4ENTITY_TYPES@@HPAD@ZA:BYTE ; fn_create_local_entity
EXTRN	?fn_create_client_server_entity@@3PAY01P6GPAUENTITY@@W4ENTITY_TYPES@@HPAD@ZA:BYTE ; fn_create_client_server_entity
EXTRN	?overload_invalid_int_type_message@@3PBDB:DWORD	; overload_invalid_int_type_message
EXTRN	?fn_get_local_entity_int_value@@3PAY0BBH@P6GHPAUENTITY@@W4INT_TYPES@@@ZA:BYTE ; fn_get_local_entity_int_value
EXTRN	?entities@@3PAUENTITY@@A:DWORD			; entities
EXTRN	?vehicle_database@@3PAUVEHICLE_DATA@@A:BYTE	; vehicle_database
EXTRN	?camera_entity@@3PAUENTITY@@A:DWORD		; camera_entity
EXTRN	?group_database@@3PAUGROUP_DATA@@A:BYTE		; group_database
EXTRN	?update_entity@@3PAUENTITY@@A:DWORD		; update_entity
EXTRN	__fltused:DWORD
;	COMDAT __real@bf800000
CONST	SEGMENT
__real@bf800000 DD 0bf800000r			; -1
CONST	ENDS
;	COMDAT __real@3f800000
CONST	SEGMENT
__real@3f800000 DD 03f800000r			; 1
CONST	ENDS
;	COMDAT __real@3f00002000400080
CONST	SEGMENT
__real@3f00002000400080 DQ 03f00002000400080r	; 3.05185e-05
CONST	ENDS
;	COMDAT ?__LINE__Var@?0??create_local_entity_ship@@YGPAUENTITY@@HHPAU2@PAUVEC3D@@@Z@4JA
_DATA	SEGMENT
?__LINE__Var@?0??create_local_entity_ship@@YGPAUENTITY@@HHPAU2@PAUVEC3D@@@Z@4JA DD 0202H ; `create_local_entity_ship'::`1'::__LINE__Var
_DATA	ENDS
;	COMDAT ??_C@_0CI@NLFHFOLH@get_comms_model?$CI?$CJ?5?$DN?$DN?5COMMS_MODE@
CONST	SEGMENT
??_C@_0CI@NLFHFOLH@get_comms_model?$CI?$CJ?5?$DN?$DN?5COMMS_MODE@ DB 'get'
	DB	'_comms_model() == COMMS_MODEL_SERVER', 00H	; `string'
CONST	ENDS
;	COMDAT ?__LINE__Var@?0??create_client_server_entity_ship@@YGPAUENTITY@@HHPAU2@PAUVEC3D@@@Z@4JA
_DATA	SEGMENT
?__LINE__Var@?0??create_client_server_entity_ship@@YGPAUENTITY@@HHPAU2@PAUVEC3D@@@Z@4JA DD 01a7H ; `create_client_server_entity_ship'::`1'::__LINE__Var
_DATA	ENDS
;	COMDAT ?__LINE__Var@?0??create_client@@YGPAUENTITY@@W4ENTITY_TYPES@@HPAD@Z@4JA
_DATA	SEGMENT
?__LINE__Var@?0??create_client@@YGPAUENTITY@@W4ENTITY_TYPES@@HPAD@Z@4JA DD 0181H ; `create_client'::`1'::__LINE__Var
_DATA	ENDS
;	COMDAT ??_C@_0CC@BNNNEGEG@assert_client_server_remote_fn?5@
CONST	SEGMENT
??_C@_0CC@BNNNEGEG@assert_client_server_remote_fn?5@ DB 'assert_client_se'
	DB	'rver_remote_fn ()', 00H			; `string'
CONST	ENDS
;	COMDAT ??_C@_0CB@CFOCLFOK@assert_client_server_local_fn?5?$CI@
CONST	SEGMENT
??_C@_0CB@CFOCLFOK@assert_client_server_local_fn?5?$CI@ DB 'assert_client'
	DB	'_server_local_fn ()', 00H			; `string'
CONST	ENDS
;	COMDAT ?__LINE__Var@?0??create_server@@YGPAUENTITY@@W4ENTITY_TYPES@@HPAD@Z@4JA
_DATA	SEGMENT
?__LINE__Var@?0??create_server@@YGPAUENTITY@@W4ENTITY_TYPES@@HPAD@Z@4JA DD 016aH ; `create_server'::`1'::__LINE__Var
_DATA	ENDS
;	COMDAT ??_C@_0CM@DHBIKIGD@assert_remote_create_entity_ind@
CONST	SEGMENT
??_C@_0CM@DHBIKIGD@assert_remote_create_entity_ind@ DB 'assert_remote_cre'
	DB	'ate_entity_index ((index))', 00H		; `string'
CONST	ENDS
;	COMDAT ?__LINE__Var@?0??create_remote@@YGPAUENTITY@@W4ENTITY_TYPES@@HPAD@Z@4JA
_DATA	SEGMENT
?__LINE__Var@?0??create_remote@@YGPAUENTITY@@W4ENTITY_TYPES@@HPAD@Z@4JA DD 0157H ; `create_remote'::`1'::__LINE__Var
_DATA	ENDS
;	COMDAT ??_C@_0DG@BJPIFHJB@weapon_config_type_valid?5?$CIraw?9?$DO@
CONST	SEGMENT
??_C@_0DG@BJPIFHJB@weapon_config_type_valid?5?$CIraw?9?$DO@ DB 'weapon_co'
	DB	'nfig_type_valid (raw->vh.weapon_config_type)', 00H ; `string'
CONST	ENDS
;	COMDAT ??_C@_0DF@HPCMHJPO@entity_sub_type_vehicle_valid?5?$CI@
CONST	SEGMENT
??_C@_0DF@HPCMHJPO@entity_sub_type_vehicle_valid?5?$CI@ DB 'entity_sub_ty'
	DB	'pe_vehicle_valid (raw->vh.mob.sub_type)', 00H ; `string'
CONST	ENDS
;	COMDAT ??_C@_0CI@PIKALLKJ@raw?9?$DOvh?4mob?4side?5?$CB?$DN?5ENTITY_SIDE@
CONST	SEGMENT
??_C@_0CI@PIKALLKJ@raw?9?$DOvh?4mob?4side?5?$CB?$DN?5ENTITY_SIDE@ DB 'raw'
	DB	'->vh.mob.side != ENTITY_SIDE_NEUTRAL', 00H	; `string'
CONST	ENDS
;	COMDAT ??_C@_0EI@DJAOJDPN@get_local_entity_type?5?$CIraw?9?$DOvh?4@
CONST	SEGMENT
??_C@_0EI@DJAOJDPN@get_local_entity_type?5?$CIraw?9?$DOvh?4@ DB 'get_loca'
	DB	'l_entity_type (raw->vh.member_link.parent) == ENTITY_TYPE_GRO'
	DB	'UP', 00H					; `string'
CONST	ENDS
;	COMDAT ??_C@_0BL@DJJKEKPA@raw?9?$DOvh?4member_link?4parent@
CONST	SEGMENT
??_C@_0BL@DJJKEKPA@raw?9?$DOvh?4member_link?4parent@ DB 'raw->vh.member_l'
	DB	'ink.parent', 00H				; `string'
CONST	ENDS
;	COMDAT ??_C@_0CL@OOPHFNJI@assert_local_create_entity_inde@
CONST	SEGMENT
??_C@_0CL@OOPHFNJI@assert_local_create_entity_inde@ DB 'assert_local_crea'
	DB	'te_entity_index ((index))', 00H		; `string'
CONST	ENDS
;	COMDAT ??_C@_0FC@KBMKMIJK@c?3?2users?2nhv90?2projects?2eech?2ap@
CONST	SEGMENT
??_C@_0FC@KBMKMIJK@c?3?2users?2nhv90?2projects?2eech?2ap@ DB 'c:\users\nh'
	DB	'v90\projects\eech\aphavoc\source\entity\mobile\vehicle\ship\s'
	DB	'h_creat.c', 00H				; `string'
CONST	ENDS
;	COMDAT ?__LINE__Var@?0??create_local@@YGPAUENTITY@@W4ENTITY_TYPES@@HPAD@Z@4JA
_DATA	SEGMENT
?__LINE__Var@?0??create_local@@YGPAUENTITY@@W4ENTITY_TYPES@@HPAD@Z@4JA DD 050H ; `create_local'::`1'::__LINE__Var
_DATA	ENDS
; Function compile flags: /Odtp /ZI
; File c:\users\nhv90\projects\eech\aphavoc\source\entity\mobile\vehicle\ship\sh_creat.c
;	COMDAT ?create_client@@YGPAUENTITY@@W4ENTITY_TYPES@@HPAD@Z
_TEXT	SEGMENT
_en$ = -4						; size = 4
_type$ = 8						; size = 4
_index$ = 12						; size = 4
_pargs$ = 16						; size = 4
?create_client@@YGPAUENTITY@@W4ENTITY_TYPES@@HPAD@Z PROC ; create_client, COMDAT

; 385  : {

  00000	55		 push	 ebp
  00001	8b ec		 mov	 ebp, esp
  00003	83 ec 44	 sub	 esp, 68			; 00000044H
  00006	53		 push	 ebx
  00007	56		 push	 esi
  00008	57		 push	 edi

; 386  : 	entity
; 387  : 		*en;
; 388  : 
; 389  : 	if (get_comms_data_flow () == COMMS_DATA_FLOW_TX)

  00009	83 3d 00 00 00
	00 00		 cmp	 DWORD PTR ?system_comms_data_flow@@3W4COMMS_DATA_FLOW_TYPES@@A, 0 ; system_comms_data_flow
  00010	75 37		 jne	 SHORT $LN2@create_cli

; 390  : 	{
; 391  : 		validate_client_server_remote_fn ();

  00012	e8 00 00 00 00	 call	 ?assert_client_server_remote_fn@@YGHXZ ; assert_client_server_remote_fn
  00017	85 c0		 test	 eax, eax
  00019	75 18		 jne	 SHORT $LN4@create_cli
  0001b	a1 00 00 00 00	 mov	 eax, DWORD PTR ?__LINE__Var@?0??create_client@@YGPAUENTITY@@W4ENTITY_TYPES@@HPAD@Z@4JA
  00020	83 c0 06	 add	 eax, 6
  00023	50		 push	 eax
  00024	68 00 00 00 00	 push	 OFFSET ??_C@_0FC@KBMKMIJK@c?3?2users?2nhv90?2projects?2eech?2ap@
  00029	68 00 00 00 00	 push	 OFFSET ??_C@_0CC@BNNNEGEG@assert_client_server_remote_fn?5@
  0002e	e8 00 00 00 00	 call	 ?process_assert@@YGXPBD0H@Z ; process_assert
$LN4@create_cli:

; 392  : 
; 393  : 		en = create_remote (type, index, pargs);

  00033	8b 45 10	 mov	 eax, DWORD PTR _pargs$[ebp]
  00036	50		 push	 eax
  00037	8b 4d 0c	 mov	 ecx, DWORD PTR _index$[ebp]
  0003a	51		 push	 ecx
  0003b	8b 55 08	 mov	 edx, DWORD PTR _type$[ebp]
  0003e	52		 push	 edx
  0003f	e8 00 00 00 00	 call	 ?create_remote@@YGPAUENTITY@@W4ENTITY_TYPES@@HPAD@Z ; create_remote
  00044	89 45 fc	 mov	 DWORD PTR _en$[ebp], eax

; 394  : 	}
; 395  : 	else

  00047	eb 35		 jmp	 SHORT $LN3@create_cli
$LN2@create_cli:

; 396  : 	{
; 397  : 		validate_client_server_local_fn ();

  00049	e8 00 00 00 00	 call	 ?assert_client_server_local_fn@@YGHXZ ; assert_client_server_local_fn
  0004e	85 c0		 test	 eax, eax
  00050	75 18		 jne	 SHORT $LN5@create_cli
  00052	a1 00 00 00 00	 mov	 eax, DWORD PTR ?__LINE__Var@?0??create_client@@YGPAUENTITY@@W4ENTITY_TYPES@@HPAD@Z@4JA
  00057	83 c0 0c	 add	 eax, 12			; 0000000cH
  0005a	50		 push	 eax
  0005b	68 00 00 00 00	 push	 OFFSET ??_C@_0FC@KBMKMIJK@c?3?2users?2nhv90?2projects?2eech?2ap@
  00060	68 00 00 00 00	 push	 OFFSET ??_C@_0CB@CFOCLFOK@assert_client_server_local_fn?5?$CI@
  00065	e8 00 00 00 00	 call	 ?process_assert@@YGXPBD0H@Z ; process_assert
$LN5@create_cli:

; 398  : 
; 399  : 		en = create_local (type, index, pargs);

  0006a	8b 45 10	 mov	 eax, DWORD PTR _pargs$[ebp]
  0006d	50		 push	 eax
  0006e	8b 4d 0c	 mov	 ecx, DWORD PTR _index$[ebp]
  00071	51		 push	 ecx
  00072	8b 55 08	 mov	 edx, DWORD PTR _type$[ebp]
  00075	52		 push	 edx
  00076	e8 00 00 00 00	 call	 ?create_local@@YGPAUENTITY@@W4ENTITY_TYPES@@HPAD@Z ; create_local
  0007b	89 45 fc	 mov	 DWORD PTR _en$[ebp], eax
$LN3@create_cli:

; 400  : 	}
; 401  : 
; 402  : 	return (en);

  0007e	8b 45 fc	 mov	 eax, DWORD PTR _en$[ebp]

; 403  : }

  00081	5f		 pop	 edi
  00082	5e		 pop	 esi
  00083	5b		 pop	 ebx
  00084	8b e5		 mov	 esp, ebp
  00086	5d		 pop	 ebp
  00087	c2 0c 00	 ret	 12			; 0000000cH
?create_client@@YGPAUENTITY@@W4ENTITY_TYPES@@HPAD@Z ENDP ; create_client
_TEXT	ENDS
; Function compile flags: /Odtp /ZI
; File c:\users\nhv90\projects\eech\aphavoc\source\entity\mobile\vehicle\ship\sh_creat.c
;	COMDAT ?create_server@@YGPAUENTITY@@W4ENTITY_TYPES@@HPAD@Z
_TEXT	SEGMENT
_en$ = -4						; size = 4
_type$ = 8						; size = 4
_index$ = 12						; size = 4
_pargs$ = 16						; size = 4
?create_server@@YGPAUENTITY@@W4ENTITY_TYPES@@HPAD@Z PROC ; create_server, COMDAT

; 362  : {

  00000	55		 push	 ebp
  00001	8b ec		 mov	 ebp, esp
  00003	83 ec 44	 sub	 esp, 68			; 00000044H
  00006	53		 push	 ebx
  00007	56		 push	 esi
  00008	57		 push	 edi

; 363  : 	entity
; 364  : 		*en;
; 365  : 
; 366  : 	validate_client_server_local_fn ();

  00009	e8 00 00 00 00	 call	 ?assert_client_server_local_fn@@YGHXZ ; assert_client_server_local_fn
  0000e	85 c0		 test	 eax, eax
  00010	75 18		 jne	 SHORT $LN2@create_ser
  00012	a1 00 00 00 00	 mov	 eax, DWORD PTR ?__LINE__Var@?0??create_server@@YGPAUENTITY@@W4ENTITY_TYPES@@HPAD@Z@4JA
  00017	83 c0 04	 add	 eax, 4
  0001a	50		 push	 eax
  0001b	68 00 00 00 00	 push	 OFFSET ??_C@_0FC@KBMKMIJK@c?3?2users?2nhv90?2projects?2eech?2ap@
  00020	68 00 00 00 00	 push	 OFFSET ??_C@_0CB@CFOCLFOK@assert_client_server_local_fn?5?$CI@
  00025	e8 00 00 00 00	 call	 ?process_assert@@YGXPBD0H@Z ; process_assert
$LN2@create_ser:

; 367  : 
; 368  : 	en = create_local (type, index, pargs);

  0002a	8b 45 10	 mov	 eax, DWORD PTR _pargs$[ebp]
  0002d	50		 push	 eax
  0002e	8b 4d 0c	 mov	 ecx, DWORD PTR _index$[ebp]
  00031	51		 push	 ecx
  00032	8b 55 08	 mov	 edx, DWORD PTR _type$[ebp]
  00035	52		 push	 edx
  00036	e8 00 00 00 00	 call	 ?create_local@@YGPAUENTITY@@W4ENTITY_TYPES@@HPAD@Z ; create_local
  0003b	89 45 fc	 mov	 DWORD PTR _en$[ebp], eax

; 369  : 
; 370  : 	if (en)

  0003e	83 7d fc 00	 cmp	 DWORD PTR _en$[ebp], 0
  00042	74 3b		 je	 SHORT $LN3@create_ser

; 371  : 	{
; 372  : 		validate_client_server_remote_fn ();

  00044	e8 00 00 00 00	 call	 ?assert_client_server_remote_fn@@YGHXZ ; assert_client_server_remote_fn
  00049	85 c0		 test	 eax, eax
  0004b	75 18		 jne	 SHORT $LN4@create_ser
  0004d	a1 00 00 00 00	 mov	 eax, DWORD PTR ?__LINE__Var@?0??create_server@@YGPAUENTITY@@W4ENTITY_TYPES@@HPAD@Z@4JA
  00052	83 c0 0a	 add	 eax, 10			; 0000000aH
  00055	50		 push	 eax
  00056	68 00 00 00 00	 push	 OFFSET ??_C@_0FC@KBMKMIJK@c?3?2users?2nhv90?2projects?2eech?2ap@
  0005b	68 00 00 00 00	 push	 OFFSET ??_C@_0CC@BNNNEGEG@assert_client_server_remote_fn?5@
  00060	e8 00 00 00 00	 call	 ?process_assert@@YGXPBD0H@Z ; process_assert
$LN4@create_ser:

; 373  : 
; 374  : 		create_remote (type, get_local_entity_index (en), pargs);

  00065	8b 45 10	 mov	 eax, DWORD PTR _pargs$[ebp]
  00068	50		 push	 eax
  00069	8b 4d fc	 mov	 ecx, DWORD PTR _en$[ebp]
  0006c	2b 0d 00 00 00
	00		 sub	 ecx, DWORD PTR ?entities@@3PAUENTITY@@A ; entities
  00072	c1 f9 04	 sar	 ecx, 4
  00075	51		 push	 ecx
  00076	8b 55 08	 mov	 edx, DWORD PTR _type$[ebp]
  00079	52		 push	 edx
  0007a	e8 00 00 00 00	 call	 ?create_remote@@YGPAUENTITY@@W4ENTITY_TYPES@@HPAD@Z ; create_remote
$LN3@create_ser:

; 375  : 	}
; 376  : 
; 377  : 	return (en);

  0007f	8b 45 fc	 mov	 eax, DWORD PTR _en$[ebp]

; 378  : }

  00082	5f		 pop	 edi
  00083	5e		 pop	 esi
  00084	5b		 pop	 ebx
  00085	8b e5		 mov	 esp, ebp
  00087	5d		 pop	 ebp
  00088	c2 0c 00	 ret	 12			; 0000000cH
?create_server@@YGPAUENTITY@@W4ENTITY_TYPES@@HPAD@Z ENDP ; create_server
_TEXT	ENDS
; Function compile flags: /Odtp /ZI
; File c:\users\nhv90\projects\eech\aphavoc\source\entity\mobile\vehicle\ship\sh_creat.c
;	COMDAT ?create_remote@@YGPAUENTITY@@W4ENTITY_TYPES@@HPAD@Z
_TEXT	SEGMENT
_type$ = 8						; size = 4
_index$ = 12						; size = 4
_pargs$ = 16						; size = 4
?create_remote@@YGPAUENTITY@@W4ENTITY_TYPES@@HPAD@Z PROC ; create_remote, COMDAT

; 343  : {

  00000	55		 push	 ebp
  00001	8b ec		 mov	 ebp, esp
  00003	83 ec 40	 sub	 esp, 64			; 00000040H
  00006	53		 push	 ebx
  00007	56		 push	 esi
  00008	57		 push	 edi

; 344  : 	validate_remote_create_entity_index (index);

  00009	8b 45 0c	 mov	 eax, DWORD PTR _index$[ebp]
  0000c	50		 push	 eax
  0000d	e8 00 00 00 00	 call	 ?assert_remote_create_entity_index@@YGHH@Z ; assert_remote_create_entity_index
  00012	85 c0		 test	 eax, eax
  00014	75 18		 jne	 SHORT $LN2@create_rem
  00016	a1 00 00 00 00	 mov	 eax, DWORD PTR ?__LINE__Var@?0??create_remote@@YGPAUENTITY@@W4ENTITY_TYPES@@HPAD@Z@4JA
  0001b	83 c0 01	 add	 eax, 1
  0001e	50		 push	 eax
  0001f	68 00 00 00 00	 push	 OFFSET ??_C@_0FC@KBMKMIJK@c?3?2users?2nhv90?2projects?2eech?2ap@
  00024	68 00 00 00 00	 push	 OFFSET ??_C@_0CM@DHBIKIGD@assert_remote_create_entity_ind@
  00029	e8 00 00 00 00	 call	 ?process_assert@@YGXPBD0H@Z ; process_assert
$LN2@create_rem:

; 345  : 
; 346  : 	#if DEBUG_MODULE
; 347  : 
; 348  : 	debug_log_entity_args (ENTITY_DEBUG_REMOTE, ENTITY_DEBUG_CREATE, NULL, type, index);
; 349  : 
; 350  : 	#endif
; 351  : 
; 352  : 	transmit_entity_comms_message (ENTITY_COMMS_CREATE, NULL, type, index, pargs);

  0002e	8b 45 10	 mov	 eax, DWORD PTR _pargs$[ebp]
  00031	50		 push	 eax
  00032	8b 4d 0c	 mov	 ecx, DWORD PTR _index$[ebp]
  00035	51		 push	 ecx
  00036	8b 55 08	 mov	 edx, DWORD PTR _type$[ebp]
  00039	52		 push	 edx
  0003a	6a 00		 push	 0
  0003c	6a 08		 push	 8
  0003e	e8 00 00 00 00	 call	 ?transmit_entity_comms_message@@YAXW4ENTITY_COMMS_MESSAGES@@PAUENTITY@@ZZ ; transmit_entity_comms_message
  00043	83 c4 14	 add	 esp, 20			; 00000014H

; 353  : 
; 354  : 	return (NULL);

  00046	33 c0		 xor	 eax, eax

; 355  : }

  00048	5f		 pop	 edi
  00049	5e		 pop	 esi
  0004a	5b		 pop	 ebx
  0004b	8b e5		 mov	 esp, ebp
  0004d	5d		 pop	 ebp
  0004e	c2 0c 00	 ret	 12			; 0000000cH
?create_remote@@YGPAUENTITY@@W4ENTITY_TYPES@@HPAD@Z ENDP ; create_remote
_TEXT	ENDS
; Function compile flags: /Odtp /ZI
; File c:\users\nhv90\projects\eech\aphavoc\source\entity\mobile\vehicle\ship\sh_creat.c
;	COMDAT ?create_local@@YGPAUENTITY@@W4ENTITY_TYPES@@HPAD@Z
_TEXT	SEGMENT
tv243 = -144						; size = 4
tv285 = -140						; size = 4
tv234 = -140						; size = 4
tv277 = -136						; size = 4
tv226 = -136						; size = 4
tv199 = -136						; size = 4
_search$1 = -68						; size = 56
_group_sub_type$ = -12					; size = 4
_raw$ = -8						; size = 4
_en$ = -4						; size = 4
_type$ = 8						; size = 4
_index$ = 12						; size = 4
_pargs$ = 16						; size = 4
?create_local@@YGPAUENTITY@@W4ENTITY_TYPES@@HPAD@Z PROC	; create_local, COMDAT

; 80   : {

  00000	55		 push	 ebp
  00001	8b ec		 mov	 ebp, esp
  00003	81 ec 90 00 00
	00		 sub	 esp, 144		; 00000090H
  00009	53		 push	 ebx
  0000a	56		 push	 esi
  0000b	57		 push	 edi

; 81   : 	entity
; 82   : 		*en;
; 83   : 
; 84   : 	ship_vehicle
; 85   : 		*raw;
; 86   : 
; 87   : 	entity_sub_types
; 88   : 		group_sub_type;
; 89   : 
; 90   : 	////////////////////////////////////////
; 91   :   	//
; 92   :   	// VALIDATE
; 93   :   	//
; 94   : 	////////////////////////////////////////
; 95   : 
; 96   : 	validate_local_create_entity_index (index);

  0000c	8b 45 0c	 mov	 eax, DWORD PTR _index$[ebp]
  0000f	50		 push	 eax
  00010	e8 00 00 00 00	 call	 ?assert_local_create_entity_index@@YGHH@Z ; assert_local_create_entity_index
  00015	85 c0		 test	 eax, eax
  00017	75 18		 jne	 SHORT $LN2@create_loc
  00019	a1 00 00 00 00	 mov	 eax, DWORD PTR ?__LINE__Var@?0??create_local@@YGPAUENTITY@@W4ENTITY_TYPES@@HPAD@Z@4JA
  0001e	83 c0 10	 add	 eax, 16			; 00000010H
  00021	50		 push	 eax
  00022	68 00 00 00 00	 push	 OFFSET ??_C@_0FC@KBMKMIJK@c?3?2users?2nhv90?2projects?2eech?2ap@
  00027	68 00 00 00 00	 push	 OFFSET ??_C@_0CL@OOPHFNJI@assert_local_create_entity_inde@
  0002c	e8 00 00 00 00	 call	 ?process_assert@@YGXPBD0H@Z ; process_assert
$LN2@create_loc:

; 97   : 
; 98   : 	#if DEBUG_MODULE
; 99   : 
; 100  : 	debug_log_entity_args (ENTITY_DEBUG_LOCAL, ENTITY_DEBUG_CREATE, NULL, type, index);
; 101  : 
; 102  : 	#endif
; 103  : 
; 104  : 	en = get_free_entity (index);

  00031	8b 45 0c	 mov	 eax, DWORD PTR _index$[ebp]
  00034	50		 push	 eax
  00035	e8 00 00 00 00	 call	 ?get_free_entity@@YGPAUENTITY@@H@Z ; get_free_entity
  0003a	89 45 fc	 mov	 DWORD PTR _en$[ebp], eax

; 105  : 
; 106  : 	if (en)

  0003d	83 7d fc 00	 cmp	 DWORD PTR _en$[ebp], 0
  00041	0f 84 cd 05 00
	00		 je	 $LN3@create_loc

; 107  : 	{
; 108  : 
; 109  : 		////////////////////////////////////////
; 110  :    	//
; 111  :    	// MALLOC ENTITY DATA
; 112  :    	//
; 113  : 		////////////////////////////////////////
; 114  : 
; 115  : 		set_local_entity_type (en, type);

  00047	8b 45 fc	 mov	 eax, DWORD PTR _en$[ebp]
  0004a	8b 4d 08	 mov	 ecx, DWORD PTR _type$[ebp]
  0004d	89 08		 mov	 DWORD PTR [eax], ecx

; 116  : 
; 117  : 		raw = (ship_vehicle *) malloc_fast_mem (sizeof (ship_vehicle));

  0004f	68 78 01 00 00	 push	 376			; 00000178H
  00054	e8 00 00 00 00	 call	 ?malloc_fast_memory@@YGPAXI@Z ; malloc_fast_memory
  00059	89 45 f8	 mov	 DWORD PTR _raw$[ebp], eax

; 118  : 
; 119  : 		set_local_entity_data (en, raw);

  0005c	8b 45 fc	 mov	 eax, DWORD PTR _en$[ebp]
  0005f	8b 4d f8	 mov	 ecx, DWORD PTR _raw$[ebp]
  00062	89 48 04	 mov	 DWORD PTR [eax+4], ecx

; 120  : 
; 121  : 		////////////////////////////////////////
; 122  :    	//
; 123  :    	// INITIALISE ALL ENTITY DATA TO 'WORKING' DEFAULT VALUES
; 124  : 		//
; 125  : 		// DO NOT USE ACCESS FUNCTIONS
; 126  : 		//
; 127  : 		// DO NOT USE RANDOM VALUES
; 128  : 		//
; 129  : 		////////////////////////////////////////
; 130  : 
; 131  : 		memset (raw, 0, sizeof (ship_vehicle));

  00065	68 78 01 00 00	 push	 376			; 00000178H
  0006a	6a 00		 push	 0
  0006c	8b 45 f8	 mov	 eax, DWORD PTR _raw$[ebp]
  0006f	50		 push	 eax
  00070	e8 00 00 00 00	 call	 _memset
  00075	83 c4 0c	 add	 esp, 12			; 0000000cH

; 132  : 
; 133  : 		//
; 134  : 		// mobile
; 135  : 		//
; 136  : 
; 137  : 		raw->vh.mob.sub_type = ENTITY_SUB_TYPE_UNINITIALISED;

  00078	8b 45 f8	 mov	 eax, DWORD PTR _raw$[ebp]
  0007b	c7 00 ff ff ff
	ff		 mov	 DWORD PTR [eax], -1

; 138  : 
; 139  : 		raw->vh.mob.position.x = MID_MAP_X;

  00081	8b 45 f8	 mov	 eax, DWORD PTR _raw$[ebp]
  00084	f3 0f 10 05 30
	00 00 00	 movss	 xmm0, DWORD PTR ?world_map@@3UWORLD_MAP_DATA@@A+48
  0008c	f3 0f 11 40 04	 movss	 DWORD PTR [eax+4], xmm0

; 140  : 		raw->vh.mob.position.y = MID_MAP_Y;

  00091	8b 45 f8	 mov	 eax, DWORD PTR _raw$[ebp]
  00094	f3 0f 10 05 34
	00 00 00	 movss	 xmm0, DWORD PTR ?world_map@@3UWORLD_MAP_DATA@@A+52
  0009c	f3 0f 11 40 08	 movss	 DWORD PTR [eax+8], xmm0

; 141  : 		raw->vh.mob.position.z = MID_MAP_Z;

  000a1	8b 45 f8	 mov	 eax, DWORD PTR _raw$[ebp]
  000a4	f3 0f 10 05 38
	00 00 00	 movss	 xmm0, DWORD PTR ?world_map@@3UWORLD_MAP_DATA@@A+56
  000ac	f3 0f 11 40 0c	 movss	 DWORD PTR [eax+12], xmm0

; 142  : 
; 143  : 		get_identity_matrix3x3 (raw->vh.mob.attitude);

  000b1	8b 45 f8	 mov	 eax, DWORD PTR _raw$[ebp]
  000b4	83 c0 10	 add	 eax, 16			; 00000010H
  000b7	50		 push	 eax
  000b8	e8 00 00 00 00	 call	 ?get_identity_matrix3x3@@YGXQAY02M@Z ; get_identity_matrix3x3

; 144  : 
; 145  : 		raw->vh.mob.alive = TRUE;

  000bd	8b 45 f8	 mov	 eax, DWORD PTR _raw$[ebp]
  000c0	8b 48 7c	 mov	 ecx, DWORD PTR [eax+124]
  000c3	83 c9 01	 or	 ecx, 1
  000c6	8b 55 f8	 mov	 edx, DWORD PTR _raw$[ebp]
  000c9	89 4a 7c	 mov	 DWORD PTR [edx+124], ecx

; 146  : 
; 147  : 		raw->vh.mob.side = ENTITY_SIDE_UNINITIALISED;

  000cc	8b 45 f8	 mov	 eax, DWORD PTR _raw$[ebp]
  000cf	8b 48 7c	 mov	 ecx, DWORD PTR [eax+124]
  000d2	83 c9 06	 or	 ecx, 6
  000d5	8b 55 f8	 mov	 edx, DWORD PTR _raw$[ebp]
  000d8	89 4a 7c	 mov	 DWORD PTR [edx+124], ecx

; 148  : 
; 149  : 		raw->vh.operational_state = OPERATIONAL_STATE_UNKNOWN;

  000db	8b 45 f8	 mov	 eax, DWORD PTR _raw$[ebp]
  000de	8b 88 24 01 00
	00		 mov	 ecx, DWORD PTR [eax+292]
  000e4	81 e1 1f fc ff
	ff		 and	 ecx, -993		; fffffc1fH
  000ea	8b 55 f8	 mov	 edx, DWORD PTR _raw$[ebp]
  000ed	89 8a 24 01 00
	00		 mov	 DWORD PTR [edx+292], ecx

; 150  : 
; 151  : 		//
; 152  : 		// vehicle
; 153  : 		//
; 154  : 
; 155  : 		raw->vh.object_3d_shape = OBJECT_3D_INVALID_OBJECT_INDEX;

  000f3	8b 45 f8	 mov	 eax, DWORD PTR _raw$[ebp]
  000f6	c7 80 80 00 00
	00 00 00 00 00	 mov	 DWORD PTR [eax+128], 0

; 156  : 
; 157  : 		raw->vh.weapon_config_type = WEAPON_CONFIG_TYPE_UNINITIALISED;

  00100	8b 45 f8	 mov	 eax, DWORD PTR _raw$[ebp]
  00103	c7 80 14 01 00
	00 ff ff ff ff	 mov	 DWORD PTR [eax+276], -1

; 158  : 
; 159  : 		raw->vh.selected_weapon = ENTITY_SUB_TYPE_WEAPON_NO_WEAPON;

  0010d	8b 45 f8	 mov	 eax, DWORD PTR _raw$[ebp]
  00110	c7 80 1c 01 00
	00 00 00 00 00	 mov	 DWORD PTR [eax+284], 0

; 160  : 
; 161  : 		raw->vh.weapon_vector.x = 0.0;

  0011a	8b 45 f8	 mov	 eax, DWORD PTR _raw$[ebp]
  0011d	0f 57 c0	 xorps	 xmm0, xmm0
  00120	f3 0f 11 80 34
	01 00 00	 movss	 DWORD PTR [eax+308], xmm0

; 162  : 		raw->vh.weapon_vector.y = 0.0;

  00128	8b 45 f8	 mov	 eax, DWORD PTR _raw$[ebp]
  0012b	0f 57 c0	 xorps	 xmm0, xmm0
  0012e	f3 0f 11 80 38
	01 00 00	 movss	 DWORD PTR [eax+312], xmm0

; 163  : 		raw->vh.weapon_vector.z = 1.0;

  00136	8b 45 f8	 mov	 eax, DWORD PTR _raw$[ebp]
  00139	f3 0f 10 05 00
	00 00 00	 movss	 xmm0, DWORD PTR __real@3f800000
  00141	f3 0f 11 80 3c
	01 00 00	 movss	 DWORD PTR [eax+316], xmm0

; 164  : 
; 165  : 		raw->vh.weapon_to_target_vector.x = 0.0;

  00149	8b 45 f8	 mov	 eax, DWORD PTR _raw$[ebp]
  0014c	0f 57 c0	 xorps	 xmm0, xmm0
  0014f	f3 0f 11 80 40
	01 00 00	 movss	 DWORD PTR [eax+320], xmm0

; 166  : 		raw->vh.weapon_to_target_vector.y = 0.0;

  00157	8b 45 f8	 mov	 eax, DWORD PTR _raw$[ebp]
  0015a	0f 57 c0	 xorps	 xmm0, xmm0
  0015d	f3 0f 11 80 44
	01 00 00	 movss	 DWORD PTR [eax+324], xmm0

; 167  : 		raw->vh.weapon_to_target_vector.z = -1.0;

  00165	8b 45 f8	 mov	 eax, DWORD PTR _raw$[ebp]
  00168	f3 0f 10 05 00
	00 00 00	 movss	 xmm0, DWORD PTR __real@bf800000
  00170	f3 0f 11 80 48
	01 00 00	 movss	 DWORD PTR [eax+328], xmm0

; 168  : 
; 169  : 		raw->vh.loading_door_state = VEHICLE_LOADING_DOORS_CLOSED_FLOAT_VALUE;

  00178	8b 45 f8	 mov	 eax, DWORD PTR _raw$[ebp]
  0017b	0f 57 c0	 xorps	 xmm0, xmm0
  0017e	f3 0f 11 80 f0
	00 00 00	 movss	 DWORD PTR [eax+240], xmm0

; 170  : 
; 171  : 		//
; 172  : 		// ship
; 173  : 		//
; 174  : 
; 175  : 		////////////////////////////////////////
; 176  : 		//
; 177  : 		// OVERWRITE DEFAULT VALUES WITH GIVEN ATTRIBUTES
; 178  : 		//
; 179  : 		////////////////////////////////////////
; 180  : 
; 181  : 		set_local_entity_attributes (en, pargs);

  00186	8b 45 10	 mov	 eax, DWORD PTR _pargs$[ebp]
  00189	50		 push	 eax
  0018a	8b 4d fc	 mov	 ecx, DWORD PTR _en$[ebp]
  0018d	51		 push	 ecx
  0018e	e8 00 00 00 00	 call	 ?set_local_entity_attributes@@YGXPAUENTITY@@PAD@Z ; set_local_entity_attributes

; 182  : 
; 183  : 		////////////////////////////////////////
; 184  : 		//
; 185  : 		// CHECK MANDATORY ATTRIBUTES HAVE BEEN GIVEN
; 186  : 		//
; 187  : 		////////////////////////////////////////
; 188  : 
; 189  : 		ASSERT (raw->vh.member_link.parent);

  00193	8b 45 f8	 mov	 eax, DWORD PTR _raw$[ebp]
  00196	83 b8 b8 00 00
	00 00		 cmp	 DWORD PTR [eax+184], 0
  0019d	75 18		 jne	 SHORT $LN4@create_loc
  0019f	a1 00 00 00 00	 mov	 eax, DWORD PTR ?__LINE__Var@?0??create_local@@YGPAUENTITY@@W4ENTITY_TYPES@@HPAD@Z@4JA
  001a4	83 c0 6d	 add	 eax, 109		; 0000006dH
  001a7	50		 push	 eax
  001a8	68 00 00 00 00	 push	 OFFSET ??_C@_0FC@KBMKMIJK@c?3?2users?2nhv90?2projects?2eech?2ap@
  001ad	68 00 00 00 00	 push	 OFFSET ??_C@_0BL@DJJKEKPA@raw?9?$DOvh?4member_link?4parent@
  001b2	e8 00 00 00 00	 call	 ?process_assert@@YGXPBD0H@Z ; process_assert
$LN4@create_loc:

; 190  : 
; 191  : 		ASSERT (get_local_entity_type (raw->vh.member_link.parent) == ENTITY_TYPE_GROUP);

  001b7	8b 45 f8	 mov	 eax, DWORD PTR _raw$[ebp]
  001ba	83 b8 b8 00 00
	00 00		 cmp	 DWORD PTR [eax+184], 0
  001c1	74 13		 je	 SHORT $LN19@create_loc
  001c3	8b 4d f8	 mov	 ecx, DWORD PTR _raw$[ebp]
  001c6	8b 91 b8 00 00
	00		 mov	 edx, DWORD PTR [ecx+184]
  001cc	8b 02		 mov	 eax, DWORD PTR [edx]
  001ce	89 85 78 ff ff
	ff		 mov	 DWORD PTR tv199[ebp], eax
  001d4	eb 25		 jmp	 SHORT $LN20@create_loc
$LN19@create_loc:
  001d6	8b 0d 00 00 00
	00		 mov	 ecx, DWORD PTR ?__LINE__Var@?0??create_local@@YGPAUENTITY@@W4ENTITY_TYPES@@HPAD@Z@4JA
  001dc	83 c1 6f	 add	 ecx, 111		; 0000006fH
  001df	51		 push	 ecx
  001e0	68 00 00 00 00	 push	 OFFSET ??_C@_0FC@KBMKMIJK@c?3?2users?2nhv90?2projects?2eech?2ap@
  001e5	8b 15 00 00 00
	00		 mov	 edx, DWORD PTR ?null_entity_pointer_message@@3PBDB ; null_entity_pointer_message
  001eb	52		 push	 edx
  001ec	e8 00 00 00 00	 call	 ?process_assert@@YGXPBD0H@Z ; process_assert
  001f1	c7 85 78 ff ff
	ff 00 00 00 00	 mov	 DWORD PTR tv199[ebp], 0
$LN20@create_loc:
  001fb	83 bd 78 ff ff
	ff 0c		 cmp	 DWORD PTR tv199[ebp], 12 ; 0000000cH
  00202	74 18		 je	 SHORT $LN5@create_loc
  00204	a1 00 00 00 00	 mov	 eax, DWORD PTR ?__LINE__Var@?0??create_local@@YGPAUENTITY@@W4ENTITY_TYPES@@HPAD@Z@4JA
  00209	83 c0 6f	 add	 eax, 111		; 0000006fH
  0020c	50		 push	 eax
  0020d	68 00 00 00 00	 push	 OFFSET ??_C@_0FC@KBMKMIJK@c?3?2users?2nhv90?2projects?2eech?2ap@
  00212	68 00 00 00 00	 push	 OFFSET ??_C@_0EI@DJAOJDPN@get_local_entity_type?5?$CIraw?9?$DOvh?4@
  00217	e8 00 00 00 00	 call	 ?process_assert@@YGXPBD0H@Z ; process_assert
$LN5@create_loc:

; 192  : 
; 193  : 		////////////////////////////////////////
; 194  : 		//
; 195  : 		// RESOLVE DEFAULT VALUES
; 196  : 		//
; 197  : 		////////////////////////////////////////
; 198  : 
; 199  : 		//
; 200  : 		// side
; 201  : 		//
; 202  : 
; 203  : 		if (raw->vh.mob.side == ENTITY_SIDE_UNINITIALISED)

  0021c	8b 45 f8	 mov	 eax, DWORD PTR _raw$[ebp]
  0021f	8b 48 7c	 mov	 ecx, DWORD PTR [eax+124]
  00222	d1 e9		 shr	 ecx, 1
  00224	83 e1 03	 and	 ecx, 3
  00227	83 f9 03	 cmp	 ecx, 3
  0022a	0f 85 c8 00 00
	00		 jne	 $LN6@create_loc

; 204  : 		{
; 205  : 			raw->vh.mob.side = get_local_entity_int_value (raw->vh.member_link.parent, INT_TYPE_SIDE);

  00230	8b 45 f8	 mov	 eax, DWORD PTR _raw$[ebp]
  00233	83 b8 b8 00 00
	00 00		 cmp	 DWORD PTR [eax+184], 0
  0023a	74 13		 je	 SHORT $LN21@create_loc
  0023c	8b 4d f8	 mov	 ecx, DWORD PTR _raw$[ebp]
  0023f	8b 91 b8 00 00
	00		 mov	 edx, DWORD PTR [ecx+184]
  00245	8b 02		 mov	 eax, DWORD PTR [edx]
  00247	89 85 78 ff ff
	ff		 mov	 DWORD PTR tv226[ebp], eax
  0024d	eb 25		 jmp	 SHORT $LN22@create_loc
$LN21@create_loc:
  0024f	8b 0d 00 00 00
	00		 mov	 ecx, DWORD PTR ?__LINE__Var@?0??create_local@@YGPAUENTITY@@W4ENTITY_TYPES@@HPAD@Z@4JA
  00255	83 c1 7d	 add	 ecx, 125		; 0000007dH
  00258	51		 push	 ecx
  00259	68 00 00 00 00	 push	 OFFSET ??_C@_0FC@KBMKMIJK@c?3?2users?2nhv90?2projects?2eech?2ap@
  0025e	8b 15 00 00 00
	00		 mov	 edx, DWORD PTR ?null_entity_pointer_message@@3PBDB ; null_entity_pointer_message
  00264	52		 push	 edx
  00265	e8 00 00 00 00	 call	 ?process_assert@@YGXPBD0H@Z ; process_assert
  0026a	c7 85 78 ff ff
	ff 00 00 00 00	 mov	 DWORD PTR tv226[ebp], 0
$LN22@create_loc:
  00274	b8 01 00 00 00	 mov	 eax, 1
  00279	85 c0		 test	 eax, eax
  0027b	74 0c		 je	 SHORT $LN23@create_loc
  0027d	c7 85 74 ff ff
	ff bb 00 00 00	 mov	 DWORD PTR tv234[ebp], 187 ; 000000bbH
  00287	eb 25		 jmp	 SHORT $LN24@create_loc
$LN23@create_loc:
  00289	8b 0d 00 00 00
	00		 mov	 ecx, DWORD PTR ?__LINE__Var@?0??create_local@@YGPAUENTITY@@W4ENTITY_TYPES@@HPAD@Z@4JA
  0028f	83 c1 7d	 add	 ecx, 125		; 0000007dH
  00292	51		 push	 ecx
  00293	68 00 00 00 00	 push	 OFFSET ??_C@_0FC@KBMKMIJK@c?3?2users?2nhv90?2projects?2eech?2ap@
  00298	8b 15 00 00 00
	00		 mov	 edx, DWORD PTR ?overload_invalid_int_type_message@@3PBDB ; overload_invalid_int_type_message
  0029e	52		 push	 edx
  0029f	e8 00 00 00 00	 call	 ?process_assert@@YGXPBD0H@Z ; process_assert
  002a4	c7 85 74 ff ff
	ff 00 00 00 00	 mov	 DWORD PTR tv234[ebp], 0
$LN24@create_loc:
  002ae	68 bb 00 00 00	 push	 187			; 000000bbH
  002b3	8b 45 f8	 mov	 eax, DWORD PTR _raw$[ebp]
  002b6	8b 88 b8 00 00
	00		 mov	 ecx, DWORD PTR [eax+184]
  002bc	51		 push	 ecx
  002bd	69 95 78 ff ff
	ff 5c 04 00 00	 imul	 edx, DWORD PTR tv226[ebp], 1116
  002c7	8b 85 74 ff ff
	ff		 mov	 eax, DWORD PTR tv234[ebp]
  002cd	8b 8c 82 00 00
	00 00		 mov	 ecx, DWORD PTR ?fn_get_local_entity_int_value@@3PAY0BBH@P6GHPAUENTITY@@W4INT_TYPES@@@ZA[edx+eax*4]
  002d4	ff d1		 call	 ecx
  002d6	89 85 70 ff ff
	ff		 mov	 DWORD PTR tv243[ebp], eax
  002dc	8b 95 70 ff ff
	ff		 mov	 edx, DWORD PTR tv243[ebp]
  002e2	83 e2 03	 and	 edx, 3
  002e5	d1 e2		 shl	 edx, 1
  002e7	8b 45 f8	 mov	 eax, DWORD PTR _raw$[ebp]
  002ea	8b 48 7c	 mov	 ecx, DWORD PTR [eax+124]
  002ed	83 e1 f9	 and	 ecx, -7			; fffffff9H
  002f0	0b ca		 or	 ecx, edx
  002f2	8b 55 f8	 mov	 edx, DWORD PTR _raw$[ebp]
  002f5	89 4a 7c	 mov	 DWORD PTR [edx+124], ecx
$LN6@create_loc:

; 206  : 		}
; 207  : 
; 208  : 		ASSERT (raw->vh.mob.side != ENTITY_SIDE_NEUTRAL);

  002f8	8b 45 f8	 mov	 eax, DWORD PTR _raw$[ebp]
  002fb	8b 48 7c	 mov	 ecx, DWORD PTR [eax+124]
  002fe	d1 e9		 shr	 ecx, 1
  00300	83 e1 03	 and	 ecx, 3
  00303	75 1a		 jne	 SHORT $LN7@create_loc
  00305	a1 00 00 00 00	 mov	 eax, DWORD PTR ?__LINE__Var@?0??create_local@@YGPAUENTITY@@W4ENTITY_TYPES@@HPAD@Z@4JA
  0030a	05 80 00 00 00	 add	 eax, 128		; 00000080H
  0030f	50		 push	 eax
  00310	68 00 00 00 00	 push	 OFFSET ??_C@_0FC@KBMKMIJK@c?3?2users?2nhv90?2projects?2eech?2ap@
  00315	68 00 00 00 00	 push	 OFFSET ??_C@_0CI@PIKALLKJ@raw?9?$DOvh?4mob?4side?5?$CB?$DN?5ENTITY_SIDE@
  0031a	e8 00 00 00 00	 call	 ?process_assert@@YGXPBD0H@Z ; process_assert
$LN7@create_loc:

; 209  : 
; 210  : 		//
; 211  : 		// sub_type
; 212  : 		//
; 213  : 
; 214  : 		if (raw->vh.mob.sub_type == ENTITY_SUB_TYPE_UNINITIALISED)

  0031f	8b 45 f8	 mov	 eax, DWORD PTR _raw$[ebp]
  00322	83 38 ff	 cmp	 DWORD PTR [eax], -1
  00325	0f 85 dc 00 00
	00		 jne	 $LN10@create_loc

; 215  : 		{
; 216  : 			group_sub_type = get_local_entity_int_value (raw->vh.member_link.parent, INT_TYPE_ENTITY_SUB_TYPE);

  0032b	8b 45 f8	 mov	 eax, DWORD PTR _raw$[ebp]
  0032e	83 b8 b8 00 00
	00 00		 cmp	 DWORD PTR [eax+184], 0
  00335	74 13		 je	 SHORT $LN25@create_loc
  00337	8b 4d f8	 mov	 ecx, DWORD PTR _raw$[ebp]
  0033a	8b 91 b8 00 00
	00		 mov	 edx, DWORD PTR [ecx+184]
  00340	8b 02		 mov	 eax, DWORD PTR [edx]
  00342	89 85 78 ff ff
	ff		 mov	 DWORD PTR tv277[ebp], eax
  00348	eb 28		 jmp	 SHORT $LN26@create_loc
$LN25@create_loc:
  0034a	8b 0d 00 00 00
	00		 mov	 ecx, DWORD PTR ?__LINE__Var@?0??create_local@@YGPAUENTITY@@W4ENTITY_TYPES@@HPAD@Z@4JA
  00350	81 c1 88 00 00
	00		 add	 ecx, 136		; 00000088H
  00356	51		 push	 ecx
  00357	68 00 00 00 00	 push	 OFFSET ??_C@_0FC@KBMKMIJK@c?3?2users?2nhv90?2projects?2eech?2ap@
  0035c	8b 15 00 00 00
	00		 mov	 edx, DWORD PTR ?null_entity_pointer_message@@3PBDB ; null_entity_pointer_message
  00362	52		 push	 edx
  00363	e8 00 00 00 00	 call	 ?process_assert@@YGXPBD0H@Z ; process_assert
  00368	c7 85 78 ff ff
	ff 00 00 00 00	 mov	 DWORD PTR tv277[ebp], 0
$LN26@create_loc:
  00372	b8 01 00 00 00	 mov	 eax, 1
  00377	85 c0		 test	 eax, eax
  00379	74 0c		 je	 SHORT $LN27@create_loc
  0037b	c7 85 74 ff ff
	ff 34 00 00 00	 mov	 DWORD PTR tv285[ebp], 52 ; 00000034H
  00385	eb 28		 jmp	 SHORT $LN28@create_loc
$LN27@create_loc:
  00387	8b 0d 00 00 00
	00		 mov	 ecx, DWORD PTR ?__LINE__Var@?0??create_local@@YGPAUENTITY@@W4ENTITY_TYPES@@HPAD@Z@4JA
  0038d	81 c1 88 00 00
	00		 add	 ecx, 136		; 00000088H
  00393	51		 push	 ecx
  00394	68 00 00 00 00	 push	 OFFSET ??_C@_0FC@KBMKMIJK@c?3?2users?2nhv90?2projects?2eech?2ap@
  00399	8b 15 00 00 00
	00		 mov	 edx, DWORD PTR ?overload_invalid_int_type_message@@3PBDB ; overload_invalid_int_type_message
  0039f	52		 push	 edx
  003a0	e8 00 00 00 00	 call	 ?process_assert@@YGXPBD0H@Z ; process_assert
  003a5	c7 85 74 ff ff
	ff 00 00 00 00	 mov	 DWORD PTR tv285[ebp], 0
$LN28@create_loc:
  003af	6a 34		 push	 52			; 00000034H
  003b1	8b 45 f8	 mov	 eax, DWORD PTR _raw$[ebp]
  003b4	8b 88 b8 00 00
	00		 mov	 ecx, DWORD PTR [eax+184]
  003ba	51		 push	 ecx
  003bb	69 95 78 ff ff
	ff 5c 04 00 00	 imul	 edx, DWORD PTR tv277[ebp], 1116
  003c5	8b 85 74 ff ff
	ff		 mov	 eax, DWORD PTR tv285[ebp]
  003cb	8b 8c 82 00 00
	00 00		 mov	 ecx, DWORD PTR ?fn_get_local_entity_int_value@@3PAY0BBH@P6GHPAUENTITY@@W4INT_TYPES@@@ZA[edx+eax*4]
  003d2	ff d1		 call	 ecx
  003d4	89 45 f4	 mov	 DWORD PTR _group_sub_type$[ebp], eax

; 217  : 
; 218  : 			if (raw->vh.mob.side == ENTITY_SIDE_BLUE_FORCE)

  003d7	8b 45 f8	 mov	 eax, DWORD PTR _raw$[ebp]
  003da	8b 48 7c	 mov	 ecx, DWORD PTR [eax+124]
  003dd	d1 e9		 shr	 ecx, 1
  003df	83 e1 03	 and	 ecx, 3
  003e2	83 f9 01	 cmp	 ecx, 1
  003e5	75 11		 jne	 SHORT $LN9@create_loc

; 219  : 			{
; 220  : 				raw->vh.mob.sub_type = group_database[group_sub_type].default_blue_force_sub_type;

  003e7	6b 45 f4 64	 imul	 eax, DWORD PTR _group_sub_type$[ebp], 100
  003eb	8b 4d f8	 mov	 ecx, DWORD PTR _raw$[ebp]
  003ee	8b 90 20 00 00
	00		 mov	 edx, DWORD PTR ?group_database@@3PAUGROUP_DATA@@A[eax+32]
  003f4	89 11		 mov	 DWORD PTR [ecx], edx

; 221  : 			}
; 222  : 			else

  003f6	eb 0f		 jmp	 SHORT $LN10@create_loc
$LN9@create_loc:

; 223  : 			{
; 224  : 				raw->vh.mob.sub_type = group_database[group_sub_type].default_red_force_sub_type;

  003f8	6b 45 f4 64	 imul	 eax, DWORD PTR _group_sub_type$[ebp], 100
  003fc	8b 4d f8	 mov	 ecx, DWORD PTR _raw$[ebp]
  003ff	8b 90 24 00 00
	00		 mov	 edx, DWORD PTR ?group_database@@3PAUGROUP_DATA@@A[eax+36]
  00405	89 11		 mov	 DWORD PTR [ecx], edx
$LN10@create_loc:

; 225  : 			}
; 226  : 		}
; 227  : 
; 228  : 		ASSERT (entity_sub_type_vehicle_valid (raw->vh.mob.sub_type));

  00407	8b 45 f8	 mov	 eax, DWORD PTR _raw$[ebp]
  0040a	83 38 00	 cmp	 DWORD PTR [eax], 0
  0040d	7c 08		 jl	 SHORT $LN12@create_loc
  0040f	8b 45 f8	 mov	 eax, DWORD PTR _raw$[ebp]
  00412	83 38 26	 cmp	 DWORD PTR [eax], 38	; 00000026H
  00415	7c 1a		 jl	 SHORT $LN11@create_loc
$LN12@create_loc:
  00417	a1 00 00 00 00	 mov	 eax, DWORD PTR ?__LINE__Var@?0??create_local@@YGPAUENTITY@@W4ENTITY_TYPES@@HPAD@Z@4JA
  0041c	05 94 00 00 00	 add	 eax, 148		; 00000094H
  00421	50		 push	 eax
  00422	68 00 00 00 00	 push	 OFFSET ??_C@_0FC@KBMKMIJK@c?3?2users?2nhv90?2projects?2eech?2ap@
  00427	68 00 00 00 00	 push	 OFFSET ??_C@_0DF@HPCMHJPO@entity_sub_type_vehicle_valid?5?$CI@
  0042c	e8 00 00 00 00	 call	 ?process_assert@@YGXPBD0H@Z ; process_assert
$LN11@create_loc:

; 229  : 
; 230  : 		//
; 231  : 		// 3D shape
; 232  : 		//
; 233  : 
; 234  : 		if (raw->vh.object_3d_shape == OBJECT_3D_INVALID_OBJECT_INDEX)

  00431	8b 45 f8	 mov	 eax, DWORD PTR _raw$[ebp]
  00434	83 b8 80 00 00
	00 00		 cmp	 DWORD PTR [eax+128], 0
  0043b	75 18		 jne	 SHORT $LN13@create_loc

; 235  : 		{
; 236  : 			raw->vh.object_3d_shape = vehicle_database[raw->vh.mob.sub_type].default_3d_shape;

  0043d	8b 45 f8	 mov	 eax, DWORD PTR _raw$[ebp]
  00440	69 08 bc 00 00
	00		 imul	 ecx, DWORD PTR [eax], 188
  00446	8b 55 f8	 mov	 edx, DWORD PTR _raw$[ebp]
  00449	8b 81 10 00 00
	00		 mov	 eax, DWORD PTR ?vehicle_database@@3PAUVEHICLE_DATA@@A[ecx+16]
  0044f	89 82 80 00 00
	00		 mov	 DWORD PTR [edx+128], eax
$LN13@create_loc:

; 237  : 		}
; 238  : 
; 239  : 		//
; 240  : 		// weapon config
; 241  : 		//
; 242  : 
; 243  : 		if (raw->vh.weapon_config_type == WEAPON_CONFIG_TYPE_UNINITIALISED)

  00455	8b 45 f8	 mov	 eax, DWORD PTR _raw$[ebp]
  00458	83 b8 14 01 00
	00 ff		 cmp	 DWORD PTR [eax+276], -1
  0045f	75 18		 jne	 SHORT $LN14@create_loc

; 244  : 		{
; 245  : 			raw->vh.weapon_config_type = vehicle_database[raw->vh.mob.sub_type].default_weapon_config_type;

  00461	8b 45 f8	 mov	 eax, DWORD PTR _raw$[ebp]
  00464	69 08 bc 00 00
	00		 imul	 ecx, DWORD PTR [eax], 188
  0046a	8b 55 f8	 mov	 edx, DWORD PTR _raw$[ebp]
  0046d	8b 81 18 00 00
	00		 mov	 eax, DWORD PTR ?vehicle_database@@3PAUVEHICLE_DATA@@A[ecx+24]
  00473	89 82 14 01 00
	00		 mov	 DWORD PTR [edx+276], eax
$LN14@create_loc:

; 246  : 		}
; 247  : 
; 248  : 		ASSERT (weapon_config_type_valid (raw->vh.weapon_config_type));

  00479	8b 45 f8	 mov	 eax, DWORD PTR _raw$[ebp]
  0047c	83 b8 14 01 00
	00 00		 cmp	 DWORD PTR [eax+276], 0
  00483	7c 0f		 jl	 SHORT $LN16@create_loc
  00485	8b 45 f8	 mov	 eax, DWORD PTR _raw$[ebp]
  00488	81 b8 14 01 00
	00 cc 02 00 00	 cmp	 DWORD PTR [eax+276], 716 ; 000002ccH
  00492	7c 1a		 jl	 SHORT $LN15@create_loc
$LN16@create_loc:
  00494	a1 00 00 00 00	 mov	 eax, DWORD PTR ?__LINE__Var@?0??create_local@@YGPAUENTITY@@W4ENTITY_TYPES@@HPAD@Z@4JA
  00499	05 a8 00 00 00	 add	 eax, 168		; 000000a8H
  0049e	50		 push	 eax
  0049f	68 00 00 00 00	 push	 OFFSET ??_C@_0FC@KBMKMIJK@c?3?2users?2nhv90?2projects?2eech?2ap@
  004a4	68 00 00 00 00	 push	 OFFSET ??_C@_0DG@BJPIFHJB@weapon_config_type_valid?5?$CIraw?9?$DO@
  004a9	e8 00 00 00 00	 call	 ?process_assert@@YGXPBD0H@Z ; process_assert
$LN15@create_loc:

; 249  : 
; 250  : 		//
; 251  : 		// damage levels
; 252  : 		//
; 253  : 
; 254  : 		raw->vh.damage_level = vehicle_database[raw->vh.mob.sub_type].initial_damage_level;

  004ae	8b 45 f8	 mov	 eax, DWORD PTR _raw$[ebp]
  004b1	69 08 bc 00 00
	00		 imul	 ecx, DWORD PTR [eax], 188
  004b7	8b 55 f8	 mov	 edx, DWORD PTR _raw$[ebp]
  004ba	8b 81 a8 00 00
	00		 mov	 eax, DWORD PTR ?vehicle_database@@3PAUVEHICLE_DATA@@A[ecx+168]
  004c0	89 82 2c 01 00
	00		 mov	 DWORD PTR [edx+300], eax

; 255  : 
; 256  : 		//
; 257  : 		// radar dish rotation (ok to use a random number as this is for visual effect only)
; 258  : 		//
; 259  : 
; 260  : 		raw->vh.radar_rotation_state = frand1 ();

  004c6	69 05 00 00 00
	00 6d 4e c6 41	 imul	 eax, DWORD PTR ?random_number_seed@@3HA, 1103515245 ; random_number_seed
  004d0	05 39 30 00 00	 add	 eax, 12345		; 00003039H
  004d5	a3 00 00 00 00	 mov	 DWORD PTR ?random_number_seed@@3HA, eax ; random_number_seed
  004da	8b 0d 00 00 00
	00		 mov	 ecx, DWORD PTR ?random_number_seed@@3HA ; random_number_seed
  004e0	c1 f9 10	 sar	 ecx, 16			; 00000010H
  004e3	81 e1 ff 7f 00
	00		 and	 ecx, 32767		; 00007fffH
  004e9	f2 0f 2a c1	 cvtsi2sd xmm0, ecx
  004ed	f2 0f 59 05 00
	00 00 00	 mulsd	 xmm0, QWORD PTR __real@3f00002000400080
  004f5	f2 0f 5a c0	 cvtsd2ss xmm0, xmm0
  004f9	8b 55 f8	 mov	 edx, DWORD PTR _raw$[ebp]
  004fc	f3 0f 11 82 f4
	00 00 00	 movss	 DWORD PTR [edx+244], xmm0

; 261  : 
; 262  : 		////////////////////////////////////////
; 263  : 		//
; 264  : 		// BUILD COMPONENTS
; 265  : 		//
; 266  : 		////////////////////////////////////////
; 267  : 
; 268  : 		//
; 269  : 		// 3D object
; 270  : 		//
; 271  : 
; 272  : 		raw->vh.inst3d = construct_3d_object (raw->vh.object_3d_shape);

  00504	8b 45 f8	 mov	 eax, DWORD PTR _raw$[ebp]
  00507	8b 88 80 00 00
	00		 mov	 ecx, DWORD PTR [eax+128]
  0050d	51		 push	 ecx
  0050e	e8 00 00 00 00	 call	 ?construct_3d_object@@YGPAUOBJECT_3D_INSTANCE@@H@Z ; construct_3d_object
  00513	8b 55 f8	 mov	 edx, DWORD PTR _raw$[ebp]
  00516	89 82 84 00 00
	00		 mov	 DWORD PTR [edx+132], eax

; 273  : 
; 274  : 		//
; 275  : 		// Turn off any waypoint route lines
; 276  : 		//
; 277  : 
; 278  : 		{
; 279  : 
; 280  : 			//
; 281  : 			// Remove the waypoint route objects
; 282  : 			//
; 283  : 
; 284  : 			object_3d_sub_object_search_data
; 285  : 				search;
; 286  : 
; 287  : 			search.search_object = raw->vh.inst3d;

  0051c	8b 45 f8	 mov	 eax, DWORD PTR _raw$[ebp]
  0051f	8b 88 84 00 00
	00		 mov	 ecx, DWORD PTR [eax+132]
  00525	89 4d bc	 mov	 DWORD PTR _search$1[ebp], ecx

; 288  : 			search.search_depth = 0;

  00528	c7 45 c4 00 00
	00 00		 mov	 DWORD PTR _search$1[ebp+8], 0

; 289  : 			search.sub_object_index = OBJECT_3D_SUB_OBJECT_WAYPOINT_ROUTES;

  0052f	c7 45 c8 33 00
	00 00		 mov	 DWORD PTR _search$1[ebp+12], 51 ; 00000033H

; 290  : 
; 291  : 			if ( find_object_3d_sub_object ( &search ) == SUB_OBJECT_SEARCH_RESULT_OBJECT_FOUND )

  00536	8d 45 bc	 lea	 eax, DWORD PTR _search$1[ebp]
  00539	50		 push	 eax
  0053a	e8 00 00 00 00	 call	 ?find_object_3d_sub_object@@YG?AW4SUB_OBJECT_SEARCH_RESULT_TYPES@@PAUOBJECT_3D_SUB_OBJECT_SEARCH_DATA@@@Z ; find_object_3d_sub_object
  0053f	83 f8 01	 cmp	 eax, 1
  00542	75 0f		 jne	 SHORT $LN17@create_loc

; 292  : 			{
; 293  : 
; 294  : 				search.result_sub_object->visible_object = FALSE;

  00544	8b 45 c0	 mov	 eax, DWORD PTR _search$1[ebp+4]
  00547	8b 48 08	 mov	 ecx, DWORD PTR [eax+8]
  0054a	83 e1 fe	 and	 ecx, -2			; fffffffeH
  0054d	8b 55 c0	 mov	 edx, DWORD PTR _search$1[ebp+4]
  00550	89 4a 08	 mov	 DWORD PTR [edx+8], ecx
$LN17@create_loc:

; 295  : 			}
; 296  : 		}
; 297  : 
; 298  : 		set_ship_vehicle_id_number (en);

  00553	8b 45 fc	 mov	 eax, DWORD PTR _en$[ebp]
  00556	50		 push	 eax
  00557	e8 00 00 00 00	 call	 ?set_ship_vehicle_id_number@@YGXPAUENTITY@@@Z ; set_ship_vehicle_id_number

; 299  : 
; 300  : 		//
; 301  : 		// weapon config
; 302  : 		//
; 303  : 
; 304  : 		raw->vh.weapon_package_status_array = (weapon_package_status *) malloc_fast_mem (SIZE_WEAPON_PACKAGE_STATUS_ARRAY);

  0055c	68 00 02 00 00	 push	 512			; 00000200H
  00561	e8 00 00 00 00	 call	 ?malloc_fast_memory@@YGPAXI@Z ; malloc_fast_memory
  00566	8b 4d f8	 mov	 ecx, DWORD PTR _raw$[ebp]
  00569	89 81 18 01 00
	00		 mov	 DWORD PTR [ecx+280], eax

; 305  : 
; 306  : 		memset (raw->vh.weapon_package_status_array, 0, SIZE_WEAPON_PACKAGE_STATUS_ARRAY);

  0056f	68 00 02 00 00	 push	 512			; 00000200H
  00574	6a 00		 push	 0
  00576	8b 45 f8	 mov	 eax, DWORD PTR _raw$[ebp]
  00579	8b 88 18 01 00
	00		 mov	 ecx, DWORD PTR [eax+280]
  0057f	51		 push	 ecx
  00580	e8 00 00 00 00	 call	 _memset
  00585	83 c4 0c	 add	 esp, 12			; 0000000cH

; 307  : 
; 308  : 		load_local_entity_weapon_config (en);

  00588	8b 45 fc	 mov	 eax, DWORD PTR _en$[ebp]
  0058b	50		 push	 eax
  0058c	e8 00 00 00 00	 call	 ?load_local_entity_weapon_config@@YGXPAUENTITY@@@Z ; load_local_entity_weapon_config

; 309  : 
; 310  : 		//
; 311  : 		// update force info
; 312  : 		//
; 313  : 
; 314  : 		add_to_force_info (get_local_force_entity ((entity_sides) raw->vh.mob.side), en);

  00591	8b 45 fc	 mov	 eax, DWORD PTR _en$[ebp]
  00594	50		 push	 eax
  00595	8b 4d f8	 mov	 ecx, DWORD PTR _raw$[ebp]
  00598	8b 51 7c	 mov	 edx, DWORD PTR [ecx+124]
  0059b	d1 ea		 shr	 edx, 1
  0059d	83 e2 03	 and	 edx, 3
  005a0	52		 push	 edx
  005a1	e8 00 00 00 00	 call	 ?get_local_force_entity@@YGPAUENTITY@@W4ENTITY_SIDES@@@Z ; get_local_force_entity
  005a6	50		 push	 eax
  005a7	e8 00 00 00 00	 call	 ?add_to_force_info@@YGXPAUENTITY@@0@Z ; add_to_force_info

; 315  : 
; 316  : 		////////////////////////////////////////
; 317  : 		//
; 318  : 		// LINK INTO SYSTEM
; 319  : 		//
; 320  : 		////////////////////////////////////////
; 321  : 
; 322  : 		insert_local_entity_into_parents_child_list (en, LIST_TYPE_MEMBER, raw->vh.member_link.parent, raw->vh.member_link.child_pred);

  005ac	8b 45 f8	 mov	 eax, DWORD PTR _raw$[ebp]
  005af	8b 88 c0 00 00
	00		 mov	 ecx, DWORD PTR [eax+192]
  005b5	51		 push	 ecx
  005b6	8b 55 f8	 mov	 edx, DWORD PTR _raw$[ebp]
  005b9	8b 82 b8 00 00
	00		 mov	 eax, DWORD PTR [edx+184]
  005bf	50		 push	 eax
  005c0	6a 19		 push	 25			; 00000019H
  005c2	8b 4d fc	 mov	 ecx, DWORD PTR _en$[ebp]
  005c5	51		 push	 ecx
  005c6	e8 00 00 00 00	 call	 ?insert_local_entity_into_parents_child_list@@YGXPAUENTITY@@W4LIST_TYPES@@00@Z ; insert_local_entity_into_parents_child_list

; 323  : 
; 324  : 		//
; 325  : 		// insert into LIST_TYPE_MEMBER before LIST_TYPE_VIEW
; 326  : 		//
; 327  : 
; 328  : 		insert_local_entity_into_parents_child_list (en, LIST_TYPE_VIEW, get_camera_entity (), get_local_entity_view_list_pred (en));

  005cb	8b 45 fc	 mov	 eax, DWORD PTR _en$[ebp]
  005ce	50		 push	 eax
  005cf	e8 00 00 00 00	 call	 ?get_local_entity_view_list_pred@@YGPAUENTITY@@PAU1@@Z ; get_local_entity_view_list_pred
  005d4	50		 push	 eax
  005d5	8b 0d 00 00 00
	00		 mov	 ecx, DWORD PTR ?camera_entity@@3PAUENTITY@@A ; camera_entity
  005db	51		 push	 ecx
  005dc	6a 2a		 push	 42			; 0000002aH
  005de	8b 55 fc	 mov	 edx, DWORD PTR _en$[ebp]
  005e1	52		 push	 edx
  005e2	e8 00 00 00 00	 call	 ?insert_local_entity_into_parents_child_list@@YGXPAUENTITY@@W4LIST_TYPES@@00@Z ; insert_local_entity_into_parents_child_list

; 329  : 
; 330  : 		insert_local_entity_into_parents_child_list (en, LIST_TYPE_SECTOR, get_local_sector_entity (&raw->vh.mob.position), NULL);

  005e7	6a 00		 push	 0
  005e9	8b 45 f8	 mov	 eax, DWORD PTR _raw$[ebp]
  005ec	83 c0 04	 add	 eax, 4
  005ef	50		 push	 eax
  005f0	e8 00 00 00 00	 call	 ?get_local_sector_entity@@YGPAUENTITY@@PAUVEC3D@@@Z ; get_local_sector_entity
  005f5	50		 push	 eax
  005f6	6a 21		 push	 33			; 00000021H
  005f8	8b 4d fc	 mov	 ecx, DWORD PTR _en$[ebp]
  005fb	51		 push	 ecx
  005fc	e8 00 00 00 00	 call	 ?insert_local_entity_into_parents_child_list@@YGXPAUENTITY@@W4LIST_TYPES@@00@Z ; insert_local_entity_into_parents_child_list

; 331  : 
; 332  : 		insert_local_entity_into_parents_child_list (en, LIST_TYPE_UPDATE, get_update_entity (), NULL);

  00601	6a 00		 push	 0
  00603	a1 00 00 00 00	 mov	 eax, DWORD PTR ?update_entity@@3PAUENTITY@@A ; update_entity
  00608	50		 push	 eax
  00609	6a 29		 push	 41			; 00000029H
  0060b	8b 4d fc	 mov	 ecx, DWORD PTR _en$[ebp]
  0060e	51		 push	 ecx
  0060f	e8 00 00 00 00	 call	 ?insert_local_entity_into_parents_child_list@@YGXPAUENTITY@@W4LIST_TYPES@@00@Z ; insert_local_entity_into_parents_child_list
$LN3@create_loc:

; 333  : 	}
; 334  : 
; 335  : 	return (en);

  00614	8b 45 fc	 mov	 eax, DWORD PTR _en$[ebp]

; 336  : }

  00617	5f		 pop	 edi
  00618	5e		 pop	 esi
  00619	5b		 pop	 ebx
  0061a	8b e5		 mov	 esp, ebp
  0061c	5d		 pop	 ebp
  0061d	c2 0c 00	 ret	 12			; 0000000cH
?create_local@@YGPAUENTITY@@W4ENTITY_TYPES@@HPAD@Z ENDP	; create_local
_TEXT	ENDS
; Function compile flags: /Odtp /ZI
; File c:\users\nhv90\projects\eech\aphavoc\source\entity\mobile\vehicle\ship\sh_creat.c
;	COMDAT ?create_local_entity_ship@@YGPAUENTITY@@HHPAU1@PAUVEC3D@@@Z
_TEXT	SEGMENT
_new_entity$ = -4					; size = 4
_index$ = 8						; size = 4
_sub_type$ = 12						; size = 4
_group$ = 16						; size = 4
_position$ = 20						; size = 4
?create_local_entity_ship@@YGPAUENTITY@@HHPAU1@PAUVEC3D@@@Z PROC ; create_local_entity_ship, COMDAT

; 514  : {

  00000	55		 push	 ebp
  00001	8b ec		 mov	 ebp, esp
  00003	83 ec 44	 sub	 esp, 68			; 00000044H
  00006	53		 push	 ebx
  00007	56		 push	 esi
  00008	57		 push	 edi

; 515  : 	entity
; 516  : 		*new_entity;
; 517  : 
; 518  : 	ASSERT (get_comms_model() == COMMS_MODEL_SERVER);

  00009	83 3d 00 00 00
	00 00		 cmp	 DWORD PTR ?system_comms_model@@3W4COMMS_MODEL_TYPES@@A, 0 ; system_comms_model
  00010	74 18		 je	 SHORT $LN2@create_loc
  00012	a1 00 00 00 00	 mov	 eax, DWORD PTR ?__LINE__Var@?0??create_local_entity_ship@@YGPAUENTITY@@HHPAU2@PAUVEC3D@@@Z@4JA
  00017	83 c0 04	 add	 eax, 4
  0001a	50		 push	 eax
  0001b	68 00 00 00 00	 push	 OFFSET ??_C@_0FC@KBMKMIJK@c?3?2users?2nhv90?2projects?2eech?2ap@
  00020	68 00 00 00 00	 push	 OFFSET ??_C@_0CI@NLFHFOLH@get_comms_model?$CI?$CJ?5?$DN?$DN?5COMMS_MODE@
  00025	e8 00 00 00 00	 call	 ?process_assert@@YGXPBD0H@Z ; process_assert
$LN2@create_loc:

; 519  : 
; 520  : 	//
; 521  : 	// create ship entity
; 522  : 	//
; 523  : 
; 524  : 	new_entity = create_local_entity

  0002a	6a 00		 push	 0
  0002c	8b 45 14	 mov	 eax, DWORD PTR _position$[ebp]
  0002f	f3 0f 10 40 08	 movss	 xmm0, DWORD PTR [eax+8]
  00034	f3 0f 5a c0	 cvtss2sd xmm0, xmm0
  00038	83 ec 08	 sub	 esp, 8
  0003b	f2 0f 11 04 24	 movsd	 QWORD PTR [esp], xmm0
  00040	8b 4d 14	 mov	 ecx, DWORD PTR _position$[ebp]
  00043	f3 0f 10 41 04	 movss	 xmm0, DWORD PTR [ecx+4]
  00048	f3 0f 5a c0	 cvtss2sd xmm0, xmm0
  0004c	83 ec 08	 sub	 esp, 8
  0004f	f2 0f 11 04 24	 movsd	 QWORD PTR [esp], xmm0
  00054	8b 55 14	 mov	 edx, DWORD PTR _position$[ebp]
  00057	f3 0f 10 02	 movss	 xmm0, DWORD PTR [edx]
  0005b	f3 0f 5a c0	 cvtss2sd xmm0, xmm0
  0005f	83 ec 08	 sub	 esp, 8
  00062	f2 0f 11 04 24	 movsd	 QWORD PTR [esp], xmm0
  00067	6a 08		 push	 8
  00069	6a 09		 push	 9
  0006b	8b 45 0c	 mov	 eax, DWORD PTR _sub_type$[ebp]
  0006e	50		 push	 eax
  0006f	6a 34		 push	 52			; 00000034H
  00071	6a 05		 push	 5
  00073	8b 4d 10	 mov	 ecx, DWORD PTR _group$[ebp]
  00076	51		 push	 ecx
  00077	6a 19		 push	 25			; 00000019H
  00079	6a 06		 push	 6
  0007b	8b 55 08	 mov	 edx, DWORD PTR _index$[ebp]
  0007e	52		 push	 edx
  0007f	6a 1c		 push	 28			; 0000001cH
  00081	e8 00 00 00 00	 call	 ?create_local_entity@@YAPAUENTITY@@W4ENTITY_TYPES@@HZZ ; create_local_entity
  00086	83 c4 44	 add	 esp, 68			; 00000044H
  00089	89 45 fc	 mov	 DWORD PTR _new_entity$[ebp], eax

; 525  : 	(
; 526  : 		ENTITY_TYPE_SHIP_VEHICLE,
; 527  : 		index,
; 528  : 		ENTITY_ATTR_PARENT (LIST_TYPE_MEMBER, group),
; 529  : 		ENTITY_ATTR_INT_VALUE (INT_TYPE_ENTITY_SUB_TYPE, sub_type),
; 530  : 		ENTITY_ATTR_VEC3D (VEC3D_TYPE_POSITION, position->x, position->y, position->z),
; 531  : 		ENTITY_ATTR_END
; 532  : 	);
; 533  : 
; 534  : 	//
; 535  : 	// create and attach special effects
; 536  : 	//
; 537  : 
; 538  : 	//
; 539  : 	//
; 540  : 	//
; 541  : 
; 542  : 	return new_entity;

  0008c	8b 45 fc	 mov	 eax, DWORD PTR _new_entity$[ebp]

; 543  : }

  0008f	5f		 pop	 edi
  00090	5e		 pop	 esi
  00091	5b		 pop	 ebx
  00092	8b e5		 mov	 esp, ebp
  00094	5d		 pop	 ebp
  00095	c2 10 00	 ret	 16			; 00000010H
?create_local_entity_ship@@YGPAUENTITY@@HHPAU1@PAUVEC3D@@@Z ENDP ; create_local_entity_ship
_TEXT	ENDS
; Function compile flags: /Odtp /ZI
; File c:\users\nhv90\projects\eech\aphavoc\source\entity\mobile\vehicle\ship\sh_creat.c
;	COMDAT ?create_client_server_entity_ship@@YGPAUENTITY@@HHPAU1@PAUVEC3D@@@Z
_TEXT	SEGMENT
_sample_index$ = -8					; size = 4
_new_entity$ = -4					; size = 4
_index$ = 8						; size = 4
_sub_type$ = 12						; size = 4
_group$ = 16						; size = 4
_position$ = 20						; size = 4
?create_client_server_entity_ship@@YGPAUENTITY@@HHPAU1@PAUVEC3D@@@Z PROC ; create_client_server_entity_ship, COMDAT

; 423  : {

  00000	55		 push	 ebp
  00001	8b ec		 mov	 ebp, esp
  00003	83 ec 48	 sub	 esp, 72			; 00000048H
  00006	53		 push	 ebx
  00007	56		 push	 esi
  00008	57		 push	 edi

; 424  : 	entity
; 425  : 		*new_entity;
; 426  : 
; 427  : 	sound_sample_indices
; 428  : 		sample_index;
; 429  : 
; 430  : 	ASSERT (get_comms_model() == COMMS_MODEL_SERVER);

  00009	83 3d 00 00 00
	00 00		 cmp	 DWORD PTR ?system_comms_model@@3W4COMMS_MODEL_TYPES@@A, 0 ; system_comms_model
  00010	74 18		 je	 SHORT $LN2@create_cli
  00012	a1 00 00 00 00	 mov	 eax, DWORD PTR ?__LINE__Var@?0??create_client_server_entity_ship@@YGPAUENTITY@@HHPAU2@PAUVEC3D@@@Z@4JA
  00017	83 c0 07	 add	 eax, 7
  0001a	50		 push	 eax
  0001b	68 00 00 00 00	 push	 OFFSET ??_C@_0FC@KBMKMIJK@c?3?2users?2nhv90?2projects?2eech?2ap@
  00020	68 00 00 00 00	 push	 OFFSET ??_C@_0CI@NLFHFOLH@get_comms_model?$CI?$CJ?5?$DN?$DN?5COMMS_MODE@
  00025	e8 00 00 00 00	 call	 ?process_assert@@YGXPBD0H@Z ; process_assert
$LN2@create_cli:

; 431  : 
; 432  : 	//
; 433  : 	// create ship entity
; 434  : 	//
; 435  : 
; 436  : 	new_entity = create_client_server_entity

  0002a	6a 00		 push	 0
  0002c	8b 45 14	 mov	 eax, DWORD PTR _position$[ebp]
  0002f	f3 0f 10 40 08	 movss	 xmm0, DWORD PTR [eax+8]
  00034	f3 0f 5a c0	 cvtss2sd xmm0, xmm0
  00038	83 ec 08	 sub	 esp, 8
  0003b	f2 0f 11 04 24	 movsd	 QWORD PTR [esp], xmm0
  00040	8b 4d 14	 mov	 ecx, DWORD PTR _position$[ebp]
  00043	f3 0f 10 41 04	 movss	 xmm0, DWORD PTR [ecx+4]
  00048	f3 0f 5a c0	 cvtss2sd xmm0, xmm0
  0004c	83 ec 08	 sub	 esp, 8
  0004f	f2 0f 11 04 24	 movsd	 QWORD PTR [esp], xmm0
  00054	8b 55 14	 mov	 edx, DWORD PTR _position$[ebp]
  00057	f3 0f 10 02	 movss	 xmm0, DWORD PTR [edx]
  0005b	f3 0f 5a c0	 cvtss2sd xmm0, xmm0
  0005f	83 ec 08	 sub	 esp, 8
  00062	f2 0f 11 04 24	 movsd	 QWORD PTR [esp], xmm0
  00067	6a 08		 push	 8
  00069	6a 09		 push	 9
  0006b	8b 45 0c	 mov	 eax, DWORD PTR _sub_type$[ebp]
  0006e	50		 push	 eax
  0006f	6a 34		 push	 52			; 00000034H
  00071	6a 05		 push	 5
  00073	8b 4d 10	 mov	 ecx, DWORD PTR _group$[ebp]
  00076	51		 push	 ecx
  00077	6a 19		 push	 25			; 00000019H
  00079	6a 06		 push	 6
  0007b	8b 55 08	 mov	 edx, DWORD PTR _index$[ebp]
  0007e	52		 push	 edx
  0007f	6a 1c		 push	 28			; 0000001cH
  00081	e8 00 00 00 00	 call	 ?create_client_server_entity@@YAPAUENTITY@@W4ENTITY_TYPES@@HZZ ; create_client_server_entity
  00086	83 c4 44	 add	 esp, 68			; 00000044H
  00089	89 45 fc	 mov	 DWORD PTR _new_entity$[ebp], eax

; 437  : 	(
; 438  : 		ENTITY_TYPE_SHIP_VEHICLE,
; 439  : 		index,
; 440  : 		ENTITY_ATTR_PARENT (LIST_TYPE_MEMBER, group),
; 441  : 		ENTITY_ATTR_INT_VALUE (INT_TYPE_ENTITY_SUB_TYPE, sub_type),
; 442  : 		ENTITY_ATTR_VEC3D (VEC3D_TYPE_POSITION, position->x, position->y, position->z),
; 443  : 		ENTITY_ATTR_END
; 444  : 	);
; 445  : 
; 446  : 	//
; 447  : 	// create and attach special effects
; 448  : 	//
; 449  : 
; 450  : 	//
; 451  : 	// ship wakes
; 452  : 	//
; 453  : 
; 454  : 	attach_ship_meta_smoke_lists (new_entity);

  0008c	8b 45 fc	 mov	 eax, DWORD PTR _new_entity$[ebp]
  0008f	50		 push	 eax
  00090	e8 00 00 00 00	 call	 ?attach_ship_meta_smoke_lists@@YGXPAUENTITY@@@Z ; attach_ship_meta_smoke_lists

; 455  : 
; 456  : 	//
; 457  : 	// sound effects
; 458  : 	//
; 459  : 
; 460  : 	sample_index = vehicle_database [sub_type].idle_sound_effect;

  00095	69 45 0c bc 00
	00 00		 imul	 eax, DWORD PTR _sub_type$[ebp], 188
  0009c	8b 88 b4 00 00
	00		 mov	 ecx, DWORD PTR ?vehicle_database@@3PAUVEHICLE_DATA@@A[eax+180]
  000a2	89 4d f8	 mov	 DWORD PTR _sample_index$[ebp], ecx

; 461  : 
; 462  : 	if (sample_index != SOUND_SAMPLE_INDEX_NONE)

  000a5	83 7d f8 00	 cmp	 DWORD PTR _sample_index$[ebp], 0
  000a9	74 39		 je	 SHORT $LN3@create_cli

; 463  : 	{
; 464  : 		create_client_server_sound_effect_entity

  000ab	8d 45 f8	 lea	 eax, DWORD PTR _sample_index$[ebp]
  000ae	50		 push	 eax
  000af	6a 01		 push	 1
  000b1	6a 01		 push	 1
  000b3	6a 01		 push	 1
  000b5	51		 push	 ecx
  000b6	f3 0f 10 05 00
	00 00 00	 movss	 xmm0, DWORD PTR __real@3f800000
  000be	f3 0f 11 04 24	 movss	 DWORD PTR [esp], xmm0
  000c3	51		 push	 ecx
  000c4	f3 0f 10 05 00
	00 00 00	 movss	 xmm0, DWORD PTR __real@3f800000
  000cc	f3 0f 11 04 24	 movss	 DWORD PTR [esp], xmm0
  000d1	6a 00		 push	 0
  000d3	6a 00		 push	 0
  000d5	6a 00		 push	 0
  000d7	6a 15		 push	 21			; 00000015H
  000d9	6a 00		 push	 0
  000db	8b 4d fc	 mov	 ecx, DWORD PTR _new_entity$[ebp]
  000de	51		 push	 ecx
  000df	e8 00 00 00 00	 call	 ?create_client_server_sound_effect_entity@@YGPAUENTITY@@PAU1@W4ENTITY_SIDES@@HW4SOUND_CHANNEL_TYPES@@W4SOUND_LOCALITY_TYPES@@PAUVEC3D@@MMHHHPAH@Z ; create_client_server_sound_effect_entity
$LN3@create_cli:

; 465  : 		(
; 466  : 			new_entity,
; 467  : 			ENTITY_SIDE_NEUTRAL,
; 468  : 			ENTITY_SUB_TYPE_EFFECT_SOUND_ENGINE_LOOPING1,
; 469  : 			SOUND_CHANNEL_SOUND_EFFECT,
; 470  : 			SOUND_LOCALITY_ALL,
; 471  : 			NULL,												// position
; 472  : 			1.0,												// amplification
; 473  : 			1.0,												// Werewolf pitch
; 474  : 			TRUE,												// valid sound effect
; 475  : 			TRUE,												// looping
; 476  : 			1,													// sample count
; 477  : 			&sample_index									// sample index list
; 478  : 		);
; 479  : 	}
; 480  : 
; 481  : 	sample_index = vehicle_database [sub_type].moving_sound_effect;

  000e4	69 45 0c bc 00
	00 00		 imul	 eax, DWORD PTR _sub_type$[ebp], 188
  000eb	8b 88 b8 00 00
	00		 mov	 ecx, DWORD PTR ?vehicle_database@@3PAUVEHICLE_DATA@@A[eax+184]
  000f1	89 4d f8	 mov	 DWORD PTR _sample_index$[ebp], ecx

; 482  : 
; 483  : 	if (sample_index != SOUND_SAMPLE_INDEX_NONE)

  000f4	83 7d f8 00	 cmp	 DWORD PTR _sample_index$[ebp], 0
  000f8	74 39		 je	 SHORT $LN4@create_cli

; 484  : 	{
; 485  : 		create_client_server_sound_effect_entity

  000fa	8d 45 f8	 lea	 eax, DWORD PTR _sample_index$[ebp]
  000fd	50		 push	 eax
  000fe	6a 01		 push	 1
  00100	6a 01		 push	 1
  00102	6a 00		 push	 0
  00104	51		 push	 ecx
  00105	f3 0f 10 05 00
	00 00 00	 movss	 xmm0, DWORD PTR __real@3f800000
  0010d	f3 0f 11 04 24	 movss	 DWORD PTR [esp], xmm0
  00112	51		 push	 ecx
  00113	f3 0f 10 05 00
	00 00 00	 movss	 xmm0, DWORD PTR __real@3f800000
  0011b	f3 0f 11 04 24	 movss	 DWORD PTR [esp], xmm0
  00120	6a 00		 push	 0
  00122	6a 00		 push	 0
  00124	6a 00		 push	 0
  00126	6a 16		 push	 22			; 00000016H
  00128	6a 00		 push	 0
  0012a	8b 4d fc	 mov	 ecx, DWORD PTR _new_entity$[ebp]
  0012d	51		 push	 ecx
  0012e	e8 00 00 00 00	 call	 ?create_client_server_sound_effect_entity@@YGPAUENTITY@@PAU1@W4ENTITY_SIDES@@HW4SOUND_CHANNEL_TYPES@@W4SOUND_LOCALITY_TYPES@@PAUVEC3D@@MMHHHPAH@Z ; create_client_server_sound_effect_entity
$LN4@create_cli:

; 486  : 		(
; 487  : 			new_entity,
; 488  : 			ENTITY_SIDE_NEUTRAL,
; 489  : 			ENTITY_SUB_TYPE_EFFECT_SOUND_ENGINE_LOOPING2,
; 490  : 			SOUND_CHANNEL_SOUND_EFFECT,
; 491  : 			SOUND_LOCALITY_ALL,
; 492  : 			NULL,												// position
; 493  : 			1.0,												// amplification
; 494  : 			1.0,												// Werewolf pitch
; 495  : 			FALSE,											// valid sound effect
; 496  : 			TRUE,												// looping
; 497  : 			1,													// sample count
; 498  : 			&sample_index									// sample index list
; 499  : 		);
; 500  : 	}
; 501  : 
; 502  : 	//
; 503  : 	//
; 504  : 	//
; 505  : 
; 506  : 	return new_entity;

  00133	8b 45 fc	 mov	 eax, DWORD PTR _new_entity$[ebp]

; 507  : }

  00136	5f		 pop	 edi
  00137	5e		 pop	 esi
  00138	5b		 pop	 ebx
  00139	8b e5		 mov	 esp, ebp
  0013b	5d		 pop	 ebp
  0013c	c2 10 00	 ret	 16			; 00000010H
?create_client_server_entity_ship@@YGPAUENTITY@@HHPAU1@PAUVEC3D@@@Z ENDP ; create_client_server_entity_ship
_TEXT	ENDS
; Function compile flags: /Odtp /ZI
; File c:\users\nhv90\projects\eech\aphavoc\source\entity\mobile\vehicle\ship\sh_creat.c
;	COMDAT ?overload_ship_vehicle_create_functions@@YGXXZ
_TEXT	SEGMENT
?overload_ship_vehicle_create_functions@@YGXXZ PROC	; overload_ship_vehicle_create_functions, COMDAT

; 410  : {

  00000	55		 push	 ebp
  00001	8b ec		 mov	 ebp, esp
  00003	83 ec 40	 sub	 esp, 64			; 00000040H
  00006	53		 push	 ebx
  00007	56		 push	 esi
  00008	57		 push	 edi

; 411  : 	fn_create_local_entity[ENTITY_TYPE_SHIP_VEHICLE]		  								= create_local;

  00009	b8 04 00 00 00	 mov	 eax, 4
  0000e	6b c8 1c	 imul	 ecx, eax, 28
  00011	c7 81 00 00 00
	00 00 00 00 00	 mov	 DWORD PTR ?fn_create_local_entity@@3PAP6GPAUENTITY@@W4ENTITY_TYPES@@HPAD@ZA[ecx], OFFSET ?create_local@@YGPAUENTITY@@W4ENTITY_TYPES@@HPAD@Z ; create_local

; 412  : 
; 413  : 	fn_create_client_server_entity[ENTITY_TYPE_SHIP_VEHICLE][COMMS_MODEL_SERVER]	= create_server;

  0001b	b8 08 00 00 00	 mov	 eax, 8
  00020	6b c8 1c	 imul	 ecx, eax, 28
  00023	ba 04 00 00 00	 mov	 edx, 4
  00028	6b c2 00	 imul	 eax, edx, 0
  0002b	c7 84 01 00 00
	00 00 00 00 00
	00		 mov	 DWORD PTR ?fn_create_client_server_entity@@3PAY01P6GPAUENTITY@@W4ENTITY_TYPES@@HPAD@ZA[ecx+eax], OFFSET ?create_server@@YGPAUENTITY@@W4ENTITY_TYPES@@HPAD@Z ; create_server

; 414  : 
; 415  : 	fn_create_client_server_entity[ENTITY_TYPE_SHIP_VEHICLE][COMMS_MODEL_CLIENT]	= create_client;

  00036	b8 08 00 00 00	 mov	 eax, 8
  0003b	6b c8 1c	 imul	 ecx, eax, 28
  0003e	ba 04 00 00 00	 mov	 edx, 4
  00043	c1 e2 00	 shl	 edx, 0
  00046	c7 84 11 00 00
	00 00 00 00 00
	00		 mov	 DWORD PTR ?fn_create_client_server_entity@@3PAY01P6GPAUENTITY@@W4ENTITY_TYPES@@HPAD@ZA[ecx+edx], OFFSET ?create_client@@YGPAUENTITY@@W4ENTITY_TYPES@@HPAD@Z ; create_client

; 416  : }

  00051	5f		 pop	 edi
  00052	5e		 pop	 esi
  00053	5b		 pop	 ebx
  00054	8b e5		 mov	 esp, ebp
  00056	5d		 pop	 ebp
  00057	c3		 ret	 0
?overload_ship_vehicle_create_functions@@YGXXZ ENDP	; overload_ship_vehicle_create_functions
_TEXT	ENDS
END
