; Listing generated by Microsoft (R) Optimizing Compiler Version 19.16.27045.0 

	TITLE	C:\Users\nhv90\Projects\eech\aphavoc\source\entity\mobile\vehicle\ship\sh_dstry.c
	.686P
	.XMM
	include listing.inc
	.model	flat

INCLUDELIB MSVCRTD
INCLUDELIB OLDNAMES

PUBLIC	?overload_ship_vehicle_destroy_functions@@YGXXZ	; overload_ship_vehicle_destroy_functions
PUBLIC	?__LINE__Var@?0??destroy_local@@YGXPAUENTITY@@@Z@4JA ; `destroy_local'::`1'::__LINE__Var
PUBLIC	??_C@_0FC@BANICOIG@c?3?2users?2nhv90?2projects?2eech?2ap@ ; `string'
PUBLIC	?__LINE__Var@?0??destroy_server@@YGXPAUENTITY@@@Z@4JA ; `destroy_server'::`1'::__LINE__Var
PUBLIC	??_C@_0CC@BNNNEGEG@assert_client_server_remote_fn?5@ ; `string'
PUBLIC	??_C@_0CB@CFOCLFOK@assert_client_server_local_fn?5?$CI@ ; `string'
PUBLIC	?__LINE__Var@?0??destroy_client@@YGXPAUENTITY@@@Z@4JA ; `destroy_client'::`1'::__LINE__Var
PUBLIC	?__LINE__Var@?0??destroy_server_family@@YGXPAUENTITY@@@Z@4JA ; `destroy_server_family'::`1'::__LINE__Var
PUBLIC	?__LINE__Var@?0??kill_local@@YGXPAUENTITY@@@Z@4JA ; `kill_local'::`1'::__LINE__Var
PUBLIC	??_C@_05MGJOOGAJ@group@				; `string'
PUBLIC	?__LINE__Var@?0??kill_server@@YGXPAUENTITY@@@Z@4JA ; `kill_server'::`1'::__LINE__Var
PUBLIC	?__LINE__Var@?0??kill_client@@YGXPAUENTITY@@@Z@4JA ; `kill_client'::`1'::__LINE__Var
EXTRN	?process_assert@@YGXPBD0H@Z:PROC		; process_assert
EXTRN	?free_mem@@YGXPAX@Z:PROC			; free_mem
EXTRN	?destruct_3d_object@@YGXPAUOBJECT_3D_INSTANCE@@@Z:PROC ; destruct_3d_object
EXTRN	?destroy_system_sound_effect@@YGXPAUSYSTEM_SOUND_EFFECT@@@Z:PROC ; destroy_system_sound_effect
EXTRN	?notify_local_entity@@YAHW4ENTITY_MESSAGES@@PAUENTITY@@1ZZ:PROC ; notify_local_entity
EXTRN	?delete_local_entity_from_parents_child_list@@YGXPAUENTITY@@W4LIST_TYPES@@@Z:PROC ; delete_local_entity_from_parents_child_list
EXTRN	?unlink_local_entity_children@@YGXPAUENTITY@@W4LIST_TYPES@@@Z:PROC ; unlink_local_entity_children
EXTRN	?destroy_local_entity@@YGXPAUENTITY@@@Z:PROC	; destroy_local_entity
EXTRN	?destroy_local_entity_children@@YGXPAUENTITY@@W4LIST_TYPES@@@Z:PROC ; destroy_local_entity_children
EXTRN	?destroy_client_server_entity_children@@YGXPAUENTITY@@W4LIST_TYPES@@@Z:PROC ; destroy_client_server_entity_children
EXTRN	?transmit_entity_comms_message@@YAXW4ENTITY_COMMS_MESSAGES@@PAUENTITY@@ZZ:PROC ; transmit_entity_comms_message
EXTRN	?assert_client_server_local_fn@@YGHXZ:PROC	; assert_client_server_local_fn
EXTRN	?assert_client_server_remote_fn@@YGHXZ:PROC	; assert_client_server_remote_fn
EXTRN	?set_free_entity@@YGXPAUENTITY@@@Z:PROC		; set_free_entity
EXTRN	?damage_ship_3d_object@@YGXPAUENTITY@@@Z:PROC	; damage_ship_3d_object
EXTRN	?create_client_server_object_killed_explosion_effect@@YGXPAUENTITY@@@Z:PROC ; create_client_server_object_killed_explosion_effect
EXTRN	?kill_local_entity_sound_type@@YGXPAUENTITY@@H@Z:PROC ; kill_local_entity_sound_type
EXTRN	?destroy_local_sound_effects@@YGXPAUENTITY@@@Z:PROC ; destroy_local_sound_effects
EXTRN	?destroy_client_server_sound_effects@@YGXPAUENTITY@@@Z:PROC ; destroy_client_server_sound_effects
EXTRN	?get_local_force_entity@@YGPAUENTITY@@W4ENTITY_SIDES@@@Z:PROC ; get_local_force_entity
EXTRN	?remove_from_force_info@@YGXPAUENTITY@@0@Z:PROC	; remove_from_force_info
EXTRN	?destroy_debug_entity_landing_route_check@@YGXPAUENTITY@@@Z:PROC ; destroy_debug_entity_landing_route_check
EXTRN	?release_mobile_entity_landing_locks@@YGXPAUENTITY@@@Z:PROC ; release_mobile_entity_landing_locks
EXTRN	?remove_mobile_values_from_sector@@YGXPAUENTITY@@0@Z:PROC ; remove_mobile_values_from_sector
EXTRN	?get_local_group_primary_task@@YGPAUENTITY@@PAU1@@Z:PROC ; get_local_group_primary_task
EXTRN	?notify_campaign_screen@@YGHW4CAMPAIGN_SCREEN_MESSAGES@@PAUENTITY@@@Z:PROC ; notify_campaign_screen
EXTRN	?write_tacview_unit_event@@YGXPAUENTITY@@W4tacview_event_type@@0@Z:PROC ; write_tacview_unit_event
EXTRN	?null_entity_pointer_message@@3PBDB:DWORD	; null_entity_pointer_message
EXTRN	?system_comms_model@@3W4COMMS_MODEL_TYPES@@A:DWORD ; system_comms_model
EXTRN	?system_comms_data_flow@@3W4COMMS_DATA_FLOW_TYPES@@A:DWORD ; system_comms_data_flow
EXTRN	?overload_invalid_list_type_message@@3PBDB:DWORD ; overload_invalid_list_type_message
EXTRN	?fn_get_local_entity_first_child@@3PAY0CN@P6GPAUENTITY@@PAU1@W4LIST_TYPES@@@ZA:BYTE ; fn_get_local_entity_first_child
EXTRN	?fn_get_local_entity_parent@@3PAY0CN@P6GPAUENTITY@@PAU1@W4LIST_TYPES@@@ZA:BYTE ; fn_get_local_entity_parent
EXTRN	?fn_get_local_entity_child_succ@@3PAY0CN@P6GPAUENTITY@@PAU1@W4LIST_TYPES@@@ZA:BYTE ; fn_get_local_entity_child_succ
EXTRN	?fn_destroy_local_entity@@3PAP6GXPAUENTITY@@@ZA:BYTE ; fn_destroy_local_entity
EXTRN	?fn_destroy_client_server_entity@@3PAY01P6GXPAUENTITY@@@ZA:BYTE ; fn_destroy_client_server_entity
EXTRN	?fn_destroy_local_entity_family@@3PAP6GXPAUENTITY@@@ZA:BYTE ; fn_destroy_local_entity_family
EXTRN	?fn_destroy_client_server_entity_family@@3PAY01P6GXPAUENTITY@@@ZA:BYTE ; fn_destroy_client_server_entity_family
EXTRN	?fn_kill_local_entity@@3PAP6GXPAUENTITY@@@ZA:BYTE ; fn_kill_local_entity
EXTRN	?fn_kill_client_server_entity@@3PAY01P6GXPAUENTITY@@@ZA:BYTE ; fn_kill_client_server_entity
EXTRN	?overload_invalid_int_type_message@@3PBDB:DWORD	; overload_invalid_int_type_message
EXTRN	?fn_set_local_entity_int_value@@3PAY0BBH@P6GXPAUENTITY@@W4INT_TYPES@@H@ZA:BYTE ; fn_set_local_entity_int_value
EXTRN	?fn_get_local_entity_int_value@@3PAY0BBH@P6GHPAUENTITY@@W4INT_TYPES@@@ZA:BYTE ; fn_get_local_entity_int_value
EXTRN	?tacview_log_file@@3PAU_iobuf@@A:DWORD		; tacview_log_file
;	COMDAT ?__LINE__Var@?0??kill_client@@YGXPAUENTITY@@@Z@4JA
_DATA	SEGMENT
?__LINE__Var@?0??kill_client@@YGXPAUENTITY@@@Z@4JA DD 025aH ; `kill_client'::`1'::__LINE__Var
_DATA	ENDS
;	COMDAT ?__LINE__Var@?0??kill_server@@YGXPAUENTITY@@@Z@4JA
_DATA	SEGMENT
?__LINE__Var@?0??kill_server@@YGXPAUENTITY@@@Z@4JA DD 0243H ; `kill_server'::`1'::__LINE__Var
_DATA	ENDS
;	COMDAT ??_C@_05MGJOOGAJ@group@
CONST	SEGMENT
??_C@_05MGJOOGAJ@group@ DB 'group', 00H			; `string'
CONST	ENDS
;	COMDAT ?__LINE__Var@?0??kill_local@@YGXPAUENTITY@@@Z@4JA
_DATA	SEGMENT
?__LINE__Var@?0??kill_local@@YGXPAUENTITY@@@Z@4JA DD 012eH ; `kill_local'::`1'::__LINE__Var
_DATA	ENDS
;	COMDAT ?__LINE__Var@?0??destroy_server_family@@YGXPAUENTITY@@@Z@4JA
_DATA	SEGMENT
?__LINE__Var@?0??destroy_server_family@@YGXPAUENTITY@@@Z@4JA DD 0112H ; `destroy_server_family'::`1'::__LINE__Var
_DATA	ENDS
;	COMDAT ?__LINE__Var@?0??destroy_client@@YGXPAUENTITY@@@Z@4JA
_DATA	SEGMENT
?__LINE__Var@?0??destroy_client@@YGXPAUENTITY@@@Z@4JA DD 0edH ; `destroy_client'::`1'::__LINE__Var
_DATA	ENDS
;	COMDAT ??_C@_0CB@CFOCLFOK@assert_client_server_local_fn?5?$CI@
CONST	SEGMENT
??_C@_0CB@CFOCLFOK@assert_client_server_local_fn?5?$CI@ DB 'assert_client'
	DB	'_server_local_fn ()', 00H			; `string'
CONST	ENDS
;	COMDAT ??_C@_0CC@BNNNEGEG@assert_client_server_remote_fn?5@
CONST	SEGMENT
??_C@_0CC@BNNNEGEG@assert_client_server_remote_fn?5@ DB 'assert_client_se'
	DB	'rver_remote_fn ()', 00H			; `string'
CONST	ENDS
;	COMDAT ?__LINE__Var@?0??destroy_server@@YGXPAUENTITY@@@Z@4JA
_DATA	SEGMENT
?__LINE__Var@?0??destroy_server@@YGXPAUENTITY@@@Z@4JA DD 0d6H ; `destroy_server'::`1'::__LINE__Var
_DATA	ENDS
;	COMDAT ??_C@_0FC@BANICOIG@c?3?2users?2nhv90?2projects?2eech?2ap@
CONST	SEGMENT
??_C@_0FC@BANICOIG@c?3?2users?2nhv90?2projects?2eech?2ap@ DB 'c:\users\nh'
	DB	'v90\projects\eech\aphavoc\source\entity\mobile\vehicle\ship\s'
	DB	'h_dstry.c', 00H				; `string'
CONST	ENDS
;	COMDAT ?__LINE__Var@?0??destroy_local@@YGXPAUENTITY@@@Z@4JA
_DATA	SEGMENT
?__LINE__Var@?0??destroy_local@@YGXPAUENTITY@@@Z@4JA DD 054H ; `destroy_local'::`1'::__LINE__Var
_DATA	ENDS
; Function compile flags: /Odtp /ZI
; File c:\users\nhv90\projects\eech\aphavoc\source\entity\mobile\vehicle\ship\sh_dstry.c
;	COMDAT ?kill_client@@YGXPAUENTITY@@@Z
_TEXT	SEGMENT
tv84 = -68						; size = 4
_en$ = 8						; size = 4
?kill_client@@YGXPAUENTITY@@@Z PROC			; kill_client, COMDAT

; 602  : {

  00000	55		 push	 ebp
  00001	8b ec		 mov	 ebp, esp
  00003	83 ec 44	 sub	 esp, 68			; 00000044H
  00006	53		 push	 ebx
  00007	56		 push	 esi
  00008	57		 push	 edi

; 603  : 	if (get_comms_data_flow () == COMMS_DATA_FLOW_TX)

  00009	83 3d 00 00 00
	00 00		 cmp	 DWORD PTR ?system_comms_data_flow@@3W4COMMS_DATA_FLOW_TYPES@@A, 0 ; system_comms_data_flow
  00010	75 2c		 jne	 SHORT $LN2@kill_clien

; 604  : 	{
; 605  : 		validate_client_server_remote_fn ();

  00012	e8 00 00 00 00	 call	 ?assert_client_server_remote_fn@@YGHXZ ; assert_client_server_remote_fn
  00017	85 c0		 test	 eax, eax
  00019	75 18		 jne	 SHORT $LN4@kill_clien
  0001b	a1 00 00 00 00	 mov	 eax, DWORD PTR ?__LINE__Var@?0??kill_client@@YGXPAUENTITY@@@Z@4JA
  00020	83 c0 03	 add	 eax, 3
  00023	50		 push	 eax
  00024	68 00 00 00 00	 push	 OFFSET ??_C@_0FC@BANICOIG@c?3?2users?2nhv90?2projects?2eech?2ap@
  00029	68 00 00 00 00	 push	 OFFSET ??_C@_0CC@BNNNEGEG@assert_client_server_remote_fn?5@
  0002e	e8 00 00 00 00	 call	 ?process_assert@@YGXPBD0H@Z ; process_assert
$LN4@kill_clien:

; 606  : 
; 607  : 		kill_remote (en);

  00033	8b 45 08	 mov	 eax, DWORD PTR _en$[ebp]
  00036	50		 push	 eax
  00037	e8 00 00 00 00	 call	 ?kill_remote@@YGXPAUENTITY@@@Z ; kill_remote

; 608  : 	}
; 609  : 	else

  0003c	eb 62		 jmp	 SHORT $LN1@kill_clien
$LN2@kill_clien:

; 610  : 	{
; 611  : 		validate_client_server_local_fn ();

  0003e	e8 00 00 00 00	 call	 ?assert_client_server_local_fn@@YGHXZ ; assert_client_server_local_fn
  00043	85 c0		 test	 eax, eax
  00045	75 18		 jne	 SHORT $LN5@kill_clien
  00047	a1 00 00 00 00	 mov	 eax, DWORD PTR ?__LINE__Var@?0??kill_client@@YGXPAUENTITY@@@Z@4JA
  0004c	83 c0 09	 add	 eax, 9
  0004f	50		 push	 eax
  00050	68 00 00 00 00	 push	 OFFSET ??_C@_0FC@BANICOIG@c?3?2users?2nhv90?2projects?2eech?2ap@
  00055	68 00 00 00 00	 push	 OFFSET ??_C@_0CB@CFOCLFOK@assert_client_server_local_fn?5?$CI@
  0005a	e8 00 00 00 00	 call	 ?process_assert@@YGXPBD0H@Z ; process_assert
$LN5@kill_clien:

; 612  : 
; 613  : 		//
; 614  : 		// kill local using 'full' function
; 615  : 		//
; 616  : 
; 617  : 		kill_local_entity (en);

  0005f	83 7d 08 00	 cmp	 DWORD PTR _en$[ebp], 0
  00063	74 0a		 je	 SHORT $LN7@kill_clien
  00065	8b 45 08	 mov	 eax, DWORD PTR _en$[ebp]
  00068	8b 08		 mov	 ecx, DWORD PTR [eax]
  0006a	89 4d bc	 mov	 DWORD PTR tv84[ebp], ecx
  0006d	eb 21		 jmp	 SHORT $LN8@kill_clien
$LN7@kill_clien:
  0006f	8b 15 00 00 00
	00		 mov	 edx, DWORD PTR ?__LINE__Var@?0??kill_client@@YGXPAUENTITY@@@Z@4JA
  00075	83 c2 0f	 add	 edx, 15			; 0000000fH
  00078	52		 push	 edx
  00079	68 00 00 00 00	 push	 OFFSET ??_C@_0FC@BANICOIG@c?3?2users?2nhv90?2projects?2eech?2ap@
  0007e	a1 00 00 00 00	 mov	 eax, DWORD PTR ?null_entity_pointer_message@@3PBDB ; null_entity_pointer_message
  00083	50		 push	 eax
  00084	e8 00 00 00 00	 call	 ?process_assert@@YGXPBD0H@Z ; process_assert
  00089	c7 45 bc 00 00
	00 00		 mov	 DWORD PTR tv84[ebp], 0
$LN8@kill_clien:
  00090	8b 4d 08	 mov	 ecx, DWORD PTR _en$[ebp]
  00093	51		 push	 ecx
  00094	8b 55 bc	 mov	 edx, DWORD PTR tv84[ebp]
  00097	8b 04 95 00 00
	00 00		 mov	 eax, DWORD PTR ?fn_kill_local_entity@@3PAP6GXPAUENTITY@@@ZA[edx*4]
  0009e	ff d0		 call	 eax
$LN1@kill_clien:

; 618  : 	}
; 619  : }

  000a0	5f		 pop	 edi
  000a1	5e		 pop	 esi
  000a2	5b		 pop	 ebx
  000a3	8b e5		 mov	 esp, ebp
  000a5	5d		 pop	 ebp
  000a6	c2 04 00	 ret	 4
?kill_client@@YGXPAUENTITY@@@Z ENDP			; kill_client
_TEXT	ENDS
; Function compile flags: /Odtp /ZI
; File c:\users\nhv90\projects\eech\aphavoc\source\entity\mobile\vehicle\ship\sh_dstry.c
;	COMDAT ?kill_server@@YGXPAUENTITY@@@Z
_TEXT	SEGMENT
tv83 = -68						; size = 4
_en$ = 8						; size = 4
?kill_server@@YGXPAUENTITY@@@Z PROC			; kill_server, COMDAT

; 579  : {

  00000	55		 push	 ebp
  00001	8b ec		 mov	 ebp, esp
  00003	83 ec 44	 sub	 esp, 68			; 00000044H
  00006	53		 push	 ebx
  00007	56		 push	 esi
  00008	57		 push	 edi

; 580  : 	//
; 581  : 	// kill remote entity first (keeping local entity valid)
; 582  : 	//
; 583  : 
; 584  : 	validate_client_server_remote_fn ();

  00009	e8 00 00 00 00	 call	 ?assert_client_server_remote_fn@@YGHXZ ; assert_client_server_remote_fn
  0000e	85 c0		 test	 eax, eax
  00010	75 18		 jne	 SHORT $LN2@kill_serve
  00012	a1 00 00 00 00	 mov	 eax, DWORD PTR ?__LINE__Var@?0??kill_server@@YGXPAUENTITY@@@Z@4JA
  00017	83 c0 05	 add	 eax, 5
  0001a	50		 push	 eax
  0001b	68 00 00 00 00	 push	 OFFSET ??_C@_0FC@BANICOIG@c?3?2users?2nhv90?2projects?2eech?2ap@
  00020	68 00 00 00 00	 push	 OFFSET ??_C@_0CC@BNNNEGEG@assert_client_server_remote_fn?5@
  00025	e8 00 00 00 00	 call	 ?process_assert@@YGXPBD0H@Z ; process_assert
$LN2@kill_serve:

; 585  : 
; 586  : 	kill_remote (en);

  0002a	8b 45 08	 mov	 eax, DWORD PTR _en$[ebp]
  0002d	50		 push	 eax
  0002e	e8 00 00 00 00	 call	 ?kill_remote@@YGXPAUENTITY@@@Z ; kill_remote

; 587  : 
; 588  : 	validate_client_server_local_fn ();

  00033	e8 00 00 00 00	 call	 ?assert_client_server_local_fn@@YGHXZ ; assert_client_server_local_fn
  00038	85 c0		 test	 eax, eax
  0003a	75 18		 jne	 SHORT $LN3@kill_serve
  0003c	a1 00 00 00 00	 mov	 eax, DWORD PTR ?__LINE__Var@?0??kill_server@@YGXPAUENTITY@@@Z@4JA
  00041	83 c0 09	 add	 eax, 9
  00044	50		 push	 eax
  00045	68 00 00 00 00	 push	 OFFSET ??_C@_0FC@BANICOIG@c?3?2users?2nhv90?2projects?2eech?2ap@
  0004a	68 00 00 00 00	 push	 OFFSET ??_C@_0CB@CFOCLFOK@assert_client_server_local_fn?5?$CI@
  0004f	e8 00 00 00 00	 call	 ?process_assert@@YGXPBD0H@Z ; process_assert
$LN3@kill_serve:

; 589  : 
; 590  : 	//
; 591  : 	// kill local using 'full' function
; 592  : 	//
; 593  : 
; 594  : 	kill_local_entity (en);

  00054	83 7d 08 00	 cmp	 DWORD PTR _en$[ebp], 0
  00058	74 0a		 je	 SHORT $LN5@kill_serve
  0005a	8b 45 08	 mov	 eax, DWORD PTR _en$[ebp]
  0005d	8b 08		 mov	 ecx, DWORD PTR [eax]
  0005f	89 4d bc	 mov	 DWORD PTR tv83[ebp], ecx
  00062	eb 21		 jmp	 SHORT $LN6@kill_serve
$LN5@kill_serve:
  00064	8b 15 00 00 00
	00		 mov	 edx, DWORD PTR ?__LINE__Var@?0??kill_server@@YGXPAUENTITY@@@Z@4JA
  0006a	83 c2 0f	 add	 edx, 15			; 0000000fH
  0006d	52		 push	 edx
  0006e	68 00 00 00 00	 push	 OFFSET ??_C@_0FC@BANICOIG@c?3?2users?2nhv90?2projects?2eech?2ap@
  00073	a1 00 00 00 00	 mov	 eax, DWORD PTR ?null_entity_pointer_message@@3PBDB ; null_entity_pointer_message
  00078	50		 push	 eax
  00079	e8 00 00 00 00	 call	 ?process_assert@@YGXPBD0H@Z ; process_assert
  0007e	c7 45 bc 00 00
	00 00		 mov	 DWORD PTR tv83[ebp], 0
$LN6@kill_serve:
  00085	8b 4d 08	 mov	 ecx, DWORD PTR _en$[ebp]
  00088	51		 push	 ecx
  00089	8b 55 bc	 mov	 edx, DWORD PTR tv83[ebp]
  0008c	8b 04 95 00 00
	00 00		 mov	 eax, DWORD PTR ?fn_kill_local_entity@@3PAP6GXPAUENTITY@@@ZA[edx*4]
  00093	ff d0		 call	 eax

; 595  : }

  00095	5f		 pop	 edi
  00096	5e		 pop	 esi
  00097	5b		 pop	 ebx
  00098	8b e5		 mov	 esp, ebp
  0009a	5d		 pop	 ebp
  0009b	c2 04 00	 ret	 4
?kill_server@@YGXPAUENTITY@@@Z ENDP			; kill_server
_TEXT	ENDS
; Function compile flags: /Odtp /ZI
; File c:\users\nhv90\projects\eech\aphavoc\source\entity\mobile\vehicle\ship\sh_dstry.c
;	COMDAT ?kill_remote@@YGXPAUENTITY@@@Z
_TEXT	SEGMENT
_en$ = 8						; size = 4
?kill_remote@@YGXPAUENTITY@@@Z PROC			; kill_remote, COMDAT

; 564  : {

  00000	55		 push	 ebp
  00001	8b ec		 mov	 ebp, esp
  00003	83 ec 40	 sub	 esp, 64			; 00000040H
  00006	53		 push	 ebx
  00007	56		 push	 esi
  00008	57		 push	 edi

; 565  : 	#if DEBUG_MODULE >= 2
; 566  : 
; 567  : 	debug_log_entity_args (ENTITY_DEBUG_REMOTE, ENTITY_DEBUG_KILL, en);
; 568  : 
; 569  : 	#endif
; 570  : 
; 571  : 	transmit_entity_comms_message (ENTITY_COMMS_KILL, en);

  00009	8b 45 08	 mov	 eax, DWORD PTR _en$[ebp]
  0000c	50		 push	 eax
  0000d	6a 18		 push	 24			; 00000018H
  0000f	e8 00 00 00 00	 call	 ?transmit_entity_comms_message@@YAXW4ENTITY_COMMS_MESSAGES@@PAUENTITY@@ZZ ; transmit_entity_comms_message
  00014	83 c4 08	 add	 esp, 8

; 572  : }

  00017	5f		 pop	 edi
  00018	5e		 pop	 esi
  00019	5b		 pop	 ebx
  0001a	8b e5		 mov	 esp, ebp
  0001c	5d		 pop	 ebp
  0001d	c2 04 00	 ret	 4
?kill_remote@@YGXPAUENTITY@@@Z ENDP			; kill_remote
_TEXT	ENDS
; Function compile flags: /Odtp /ZI
; File c:\users\nhv90\projects\eech\aphavoc\source\entity\mobile\vehicle\ship\sh_dstry.c
;	COMDAT ?kill_local@@YGXPAUENTITY@@@Z
_TEXT	SEGMENT
tv417 = -96						; size = 4
tv396 = -96						; size = 4
tv373 = -96						; size = 4
tv352 = -96						; size = 4
tv331 = -96						; size = 4
tv310 = -96						; size = 4
tv289 = -96						; size = 4
tv245 = -96						; size = 4
tv217 = -96						; size = 4
tv190 = -96						; size = 4
tv169 = -96						; size = 4
tv130 = -96						; size = 4
tv76 = -96						; size = 4
tv436 = -92						; size = 4
tv409 = -92						; size = 4
tv388 = -92						; size = 4
tv365 = -92						; size = 4
tv344 = -92						; size = 4
tv323 = -92						; size = 4
tv302 = -92						; size = 4
tv281 = -92						; size = 4
tv237 = -92						; size = 4
tv229 = -92						; size = 4
tv209 = -92						; size = 4
tv182 = -92						; size = 4
tv161 = -92						; size = 4
tv90 = -92						; size = 4
tv69 = -92						; size = 4
_raw$ = -24						; size = 4
_destroy_task$ = -20					; size = 4
_keysite$ = -16						; size = 4
_group$ = -12						; size = 4
_task$ = -8						; size = 4
_losses$ = -4						; size = 4
_en$ = 8						; size = 4
?kill_local@@YGXPAUENTITY@@@Z PROC			; kill_local, COMDAT

; 302  : {

  00000	55		 push	 ebp
  00001	8b ec		 mov	 ebp, esp
  00003	83 ec 60	 sub	 esp, 96			; 00000060H
  00006	53		 push	 ebx
  00007	56		 push	 esi
  00008	57		 push	 edi

; 303  : 
; 304  : 	int
; 305  : 		losses;
; 306  : 
; 307  : 	entity
; 308  : 		*task,
; 309  : 		*group,
; 310  : 		*keysite,
; 311  : 		*destroy_task;
; 312  : 
; 313  : 	ship_vehicle
; 314  : 		*raw;
; 315  : 
; 316  : 	////////////////////////////////////////
; 317  : 	//
; 318  : 	// PRE-AMBLE
; 319  : 	//
; 320  : 	////////////////////////////////////////
; 321  : 
; 322  : 	#if DEBUG_MODULE >= 2
; 323  : 
; 324  : 	debug_log_entity_args (ENTITY_DEBUG_LOCAL, ENTITY_DEBUG_KILL, en);
; 325  : 
; 326  : 	#endif
; 327  : 
; 328  : 	if (!get_local_entity_int_value (en, INT_TYPE_ALIVE))

  00009	83 7d 08 00	 cmp	 DWORD PTR _en$[ebp], 0
  0000d	74 0a		 je	 SHORT $LN17@kill_local
  0000f	8b 45 08	 mov	 eax, DWORD PTR _en$[ebp]
  00012	8b 08		 mov	 ecx, DWORD PTR [eax]
  00014	89 4d a4	 mov	 DWORD PTR tv69[ebp], ecx
  00017	eb 1d		 jmp	 SHORT $LN18@kill_local
$LN17@kill_local:
  00019	68 48 01 00 00	 push	 328			; 00000148H
  0001e	68 00 00 00 00	 push	 OFFSET ??_C@_0FC@BANICOIG@c?3?2users?2nhv90?2projects?2eech?2ap@
  00023	8b 15 00 00 00
	00		 mov	 edx, DWORD PTR ?null_entity_pointer_message@@3PBDB ; null_entity_pointer_message
  00029	52		 push	 edx
  0002a	e8 00 00 00 00	 call	 ?process_assert@@YGXPBD0H@Z ; process_assert
  0002f	c7 45 a4 00 00
	00 00		 mov	 DWORD PTR tv69[ebp], 0
$LN18@kill_local:
  00036	b8 01 00 00 00	 mov	 eax, 1
  0003b	85 c0		 test	 eax, eax
  0003d	74 09		 je	 SHORT $LN19@kill_local
  0003f	c7 45 a0 07 00
	00 00		 mov	 DWORD PTR tv76[ebp], 7
  00046	eb 1d		 jmp	 SHORT $LN20@kill_local
$LN19@kill_local:
  00048	68 48 01 00 00	 push	 328			; 00000148H
  0004d	68 00 00 00 00	 push	 OFFSET ??_C@_0FC@BANICOIG@c?3?2users?2nhv90?2projects?2eech?2ap@
  00052	8b 0d 00 00 00
	00		 mov	 ecx, DWORD PTR ?overload_invalid_int_type_message@@3PBDB ; overload_invalid_int_type_message
  00058	51		 push	 ecx
  00059	e8 00 00 00 00	 call	 ?process_assert@@YGXPBD0H@Z ; process_assert
  0005e	c7 45 a0 00 00
	00 00		 mov	 DWORD PTR tv76[ebp], 0
$LN20@kill_local:
  00065	6a 07		 push	 7
  00067	8b 55 08	 mov	 edx, DWORD PTR _en$[ebp]
  0006a	52		 push	 edx
  0006b	69 45 a4 5c 04
	00 00		 imul	 eax, DWORD PTR tv69[ebp], 1116
  00072	8b 4d a0	 mov	 ecx, DWORD PTR tv76[ebp]
  00075	8b 94 88 00 00
	00 00		 mov	 edx, DWORD PTR ?fn_get_local_entity_int_value@@3PAY0BBH@P6GHPAUENTITY@@W4INT_TYPES@@@ZA[eax+ecx*4]
  0007c	ff d2		 call	 edx
  0007e	85 c0		 test	 eax, eax
  00080	75 05		 jne	 SHORT $LN6@kill_local

; 329  : 	{
; 330  : 		return;

  00082	e9 6a 08 00 00	 jmp	 $LN1@kill_local
$LN6@kill_local:

; 331  : 	}
; 332  : 
; 333  : 	raw = (ship_vehicle *) get_local_entity_data (en);

  00087	8b 45 08	 mov	 eax, DWORD PTR _en$[ebp]
  0008a	8b 48 04	 mov	 ecx, DWORD PTR [eax+4]
  0008d	89 4d e8	 mov	 DWORD PTR _raw$[ebp], ecx

; 334  : 
; 335  : 	group = get_local_entity_parent (en, LIST_TYPE_MEMBER);

  00090	83 7d 08 00	 cmp	 DWORD PTR _en$[ebp], 0
  00094	74 0a		 je	 SHORT $LN21@kill_local
  00096	8b 45 08	 mov	 eax, DWORD PTR _en$[ebp]
  00099	8b 08		 mov	 ecx, DWORD PTR [eax]
  0009b	89 4d a4	 mov	 DWORD PTR tv90[ebp], ecx
  0009e	eb 21		 jmp	 SHORT $LN22@kill_local
$LN21@kill_local:
  000a0	8b 15 00 00 00
	00		 mov	 edx, DWORD PTR ?__LINE__Var@?0??kill_local@@YGXPAUENTITY@@@Z@4JA
  000a6	83 c2 21	 add	 edx, 33			; 00000021H
  000a9	52		 push	 edx
  000aa	68 00 00 00 00	 push	 OFFSET ??_C@_0FC@BANICOIG@c?3?2users?2nhv90?2projects?2eech?2ap@
  000af	a1 00 00 00 00	 mov	 eax, DWORD PTR ?null_entity_pointer_message@@3PBDB ; null_entity_pointer_message
  000b4	50		 push	 eax
  000b5	e8 00 00 00 00	 call	 ?process_assert@@YGXPBD0H@Z ; process_assert
  000ba	c7 45 a4 00 00
	00 00		 mov	 DWORD PTR tv90[ebp], 0
$LN22@kill_local:
  000c1	b9 01 00 00 00	 mov	 ecx, 1
  000c6	85 c9		 test	 ecx, ecx
  000c8	74 09		 je	 SHORT $LN23@kill_local
  000ca	c7 45 a0 19 00
	00 00		 mov	 DWORD PTR tv130[ebp], 25 ; 00000019H
  000d1	eb 21		 jmp	 SHORT $LN24@kill_local
$LN23@kill_local:
  000d3	8b 15 00 00 00
	00		 mov	 edx, DWORD PTR ?__LINE__Var@?0??kill_local@@YGXPAUENTITY@@@Z@4JA
  000d9	83 c2 21	 add	 edx, 33			; 00000021H
  000dc	52		 push	 edx
  000dd	68 00 00 00 00	 push	 OFFSET ??_C@_0FC@BANICOIG@c?3?2users?2nhv90?2projects?2eech?2ap@
  000e2	a1 00 00 00 00	 mov	 eax, DWORD PTR ?overload_invalid_list_type_message@@3PBDB ; overload_invalid_list_type_message
  000e7	50		 push	 eax
  000e8	e8 00 00 00 00	 call	 ?process_assert@@YGXPBD0H@Z ; process_assert
  000ed	c7 45 a0 00 00
	00 00		 mov	 DWORD PTR tv130[ebp], 0
$LN24@kill_local:
  000f4	6a 19		 push	 25			; 00000019H
  000f6	8b 4d 08	 mov	 ecx, DWORD PTR _en$[ebp]
  000f9	51		 push	 ecx
  000fa	69 55 a4 b4 00
	00 00		 imul	 edx, DWORD PTR tv90[ebp], 180
  00101	8b 45 a0	 mov	 eax, DWORD PTR tv130[ebp]
  00104	8b 8c 82 00 00
	00 00		 mov	 ecx, DWORD PTR ?fn_get_local_entity_parent@@3PAY0CN@P6GPAUENTITY@@PAU1@W4LIST_TYPES@@@ZA[edx+eax*4]
  0010b	ff d1		 call	 ecx
  0010d	89 45 f4	 mov	 DWORD PTR _group$[ebp], eax

; 336  : 
; 337  : 	ASSERT (group);

  00110	83 7d f4 00	 cmp	 DWORD PTR _group$[ebp], 0
  00114	75 18		 jne	 SHORT $LN7@kill_local
  00116	a1 00 00 00 00	 mov	 eax, DWORD PTR ?__LINE__Var@?0??kill_local@@YGXPAUENTITY@@@Z@4JA
  0011b	83 c0 23	 add	 eax, 35			; 00000023H
  0011e	50		 push	 eax
  0011f	68 00 00 00 00	 push	 OFFSET ??_C@_0FC@BANICOIG@c?3?2users?2nhv90?2projects?2eech?2ap@
  00124	68 00 00 00 00	 push	 OFFSET ??_C@_05MGJOOGAJ@group@
  00129	e8 00 00 00 00	 call	 ?process_assert@@YGXPBD0H@Z ; process_assert
$LN7@kill_local:

; 338  : 
; 339  : 	keysite = NULL;

  0012e	c7 45 f0 00 00
	00 00		 mov	 DWORD PTR _keysite$[ebp], 0

; 340  : 
; 341  : 	if (tacview_is_logging())

  00135	83 3d 00 00 00
	00 00		 cmp	 DWORD PTR ?tacview_log_file@@3PAU_iobuf@@A, 0 ; tacview_log_file
  0013c	74 0d		 je	 SHORT $LN8@kill_local

; 342  : 		write_tacview_unit_event(en, TACVIEW_UNIT_DESTROYED, NULL);

  0013e	6a 00		 push	 0
  00140	6a 01		 push	 1
  00142	8b 45 08	 mov	 eax, DWORD PTR _en$[ebp]
  00145	50		 push	 eax
  00146	e8 00 00 00 00	 call	 ?write_tacview_unit_event@@YGXPAUENTITY@@W4tacview_event_type@@0@Z ; write_tacview_unit_event
$LN8@kill_local:

; 343  : 
; 344  : 	//
; 345  : 	// update force info
; 346  : 	//
; 347  : 
; 348  : 	remove_from_force_info (get_local_force_entity ((entity_sides) raw->vh.mob.side), en);

  0014b	8b 45 08	 mov	 eax, DWORD PTR _en$[ebp]
  0014e	50		 push	 eax
  0014f	8b 4d e8	 mov	 ecx, DWORD PTR _raw$[ebp]
  00152	8b 51 7c	 mov	 edx, DWORD PTR [ecx+124]
  00155	d1 ea		 shr	 edx, 1
  00157	83 e2 03	 and	 edx, 3
  0015a	52		 push	 edx
  0015b	e8 00 00 00 00	 call	 ?get_local_force_entity@@YGPAUENTITY@@W4ENTITY_SIDES@@@Z ; get_local_force_entity
  00160	50		 push	 eax
  00161	e8 00 00 00 00	 call	 ?remove_from_force_info@@YGXPAUENTITY@@0@Z ; remove_from_force_info

; 349  : 
; 350  : 	////////////////////////////////////////
; 351  : 	//
; 352  : 	// VALIDATE
; 353  : 	//
; 354  : 	////////////////////////////////////////
; 355  : 
; 356  : 	////////////////////////////////////////
; 357  : 	//
; 358  : 	// DESTROY COMPONENTS
; 359  : 	//
; 360  : 	////////////////////////////////////////
; 361  : 
; 362  : 	if (get_comms_model () == COMMS_MODEL_SERVER)

  00166	83 3d 00 00 00
	00 00		 cmp	 DWORD PTR ?system_comms_model@@3W4COMMS_MODEL_TYPES@@A, 0 ; system_comms_model
  0016d	0f 85 81 02 00
	00		 jne	 $LN9@kill_local

; 363  : 	{
; 364  : 		task = get_local_entity_first_child (en, LIST_TYPE_TASK_DEPENDENT);

  00173	83 7d 08 00	 cmp	 DWORD PTR _en$[ebp], 0
  00177	74 0a		 je	 SHORT $LN25@kill_local
  00179	8b 45 08	 mov	 eax, DWORD PTR _en$[ebp]
  0017c	8b 08		 mov	 ecx, DWORD PTR [eax]
  0017e	89 4d a4	 mov	 DWORD PTR tv161[ebp], ecx
  00181	eb 21		 jmp	 SHORT $LN26@kill_local
$LN25@kill_local:
  00183	8b 15 00 00 00
	00		 mov	 edx, DWORD PTR ?__LINE__Var@?0??kill_local@@YGXPAUENTITY@@@Z@4JA
  00189	83 c2 3e	 add	 edx, 62			; 0000003eH
  0018c	52		 push	 edx
  0018d	68 00 00 00 00	 push	 OFFSET ??_C@_0FC@BANICOIG@c?3?2users?2nhv90?2projects?2eech?2ap@
  00192	a1 00 00 00 00	 mov	 eax, DWORD PTR ?null_entity_pointer_message@@3PBDB ; null_entity_pointer_message
  00197	50		 push	 eax
  00198	e8 00 00 00 00	 call	 ?process_assert@@YGXPBD0H@Z ; process_assert
  0019d	c7 45 a4 00 00
	00 00		 mov	 DWORD PTR tv161[ebp], 0
$LN26@kill_local:
  001a4	b9 01 00 00 00	 mov	 ecx, 1
  001a9	85 c9		 test	 ecx, ecx
  001ab	74 09		 je	 SHORT $LN27@kill_local
  001ad	c7 45 a0 27 00
	00 00		 mov	 DWORD PTR tv169[ebp], 39 ; 00000027H
  001b4	eb 21		 jmp	 SHORT $LN28@kill_local
$LN27@kill_local:
  001b6	8b 15 00 00 00
	00		 mov	 edx, DWORD PTR ?__LINE__Var@?0??kill_local@@YGXPAUENTITY@@@Z@4JA
  001bc	83 c2 3e	 add	 edx, 62			; 0000003eH
  001bf	52		 push	 edx
  001c0	68 00 00 00 00	 push	 OFFSET ??_C@_0FC@BANICOIG@c?3?2users?2nhv90?2projects?2eech?2ap@
  001c5	a1 00 00 00 00	 mov	 eax, DWORD PTR ?overload_invalid_list_type_message@@3PBDB ; overload_invalid_list_type_message
  001ca	50		 push	 eax
  001cb	e8 00 00 00 00	 call	 ?process_assert@@YGXPBD0H@Z ; process_assert
  001d0	c7 45 a0 00 00
	00 00		 mov	 DWORD PTR tv169[ebp], 0
$LN28@kill_local:
  001d7	6a 27		 push	 39			; 00000027H
  001d9	8b 4d 08	 mov	 ecx, DWORD PTR _en$[ebp]
  001dc	51		 push	 ecx
  001dd	69 55 a4 b4 00
	00 00		 imul	 edx, DWORD PTR tv161[ebp], 180
  001e4	8b 45 a0	 mov	 eax, DWORD PTR tv169[ebp]
  001e7	8b 8c 82 00 00
	00 00		 mov	 ecx, DWORD PTR ?fn_get_local_entity_first_child@@3PAY0CN@P6GPAUENTITY@@PAU1@W4LIST_TYPES@@@ZA[edx+eax*4]
  001ee	ff d1		 call	 ecx
  001f0	89 45 f8	 mov	 DWORD PTR _task$[ebp], eax
$LN2@kill_local:

; 365  : 
; 366  : 		while (task)

  001f3	83 7d f8 00	 cmp	 DWORD PTR _task$[ebp], 0
  001f7	0f 84 a7 00 00
	00		 je	 $LN3@kill_local

; 367  : 		{
; 368  : 			destroy_task = task;

  001fd	8b 45 f8	 mov	 eax, DWORD PTR _task$[ebp]
  00200	89 45 ec	 mov	 DWORD PTR _destroy_task$[ebp], eax

; 369  : 
; 370  : 			task = get_local_entity_child_succ (task, LIST_TYPE_TASK_DEPENDENT);

  00203	83 7d f8 00	 cmp	 DWORD PTR _task$[ebp], 0
  00207	74 0a		 je	 SHORT $LN29@kill_local
  00209	8b 45 f8	 mov	 eax, DWORD PTR _task$[ebp]
  0020c	8b 08		 mov	 ecx, DWORD PTR [eax]
  0020e	89 4d a4	 mov	 DWORD PTR tv182[ebp], ecx
  00211	eb 21		 jmp	 SHORT $LN30@kill_local
$LN29@kill_local:
  00213	8b 15 00 00 00
	00		 mov	 edx, DWORD PTR ?__LINE__Var@?0??kill_local@@YGXPAUENTITY@@@Z@4JA
  00219	83 c2 44	 add	 edx, 68			; 00000044H
  0021c	52		 push	 edx
  0021d	68 00 00 00 00	 push	 OFFSET ??_C@_0FC@BANICOIG@c?3?2users?2nhv90?2projects?2eech?2ap@
  00222	a1 00 00 00 00	 mov	 eax, DWORD PTR ?null_entity_pointer_message@@3PBDB ; null_entity_pointer_message
  00227	50		 push	 eax
  00228	e8 00 00 00 00	 call	 ?process_assert@@YGXPBD0H@Z ; process_assert
  0022d	c7 45 a4 00 00
	00 00		 mov	 DWORD PTR tv182[ebp], 0
$LN30@kill_local:
  00234	b9 01 00 00 00	 mov	 ecx, 1
  00239	85 c9		 test	 ecx, ecx
  0023b	74 09		 je	 SHORT $LN31@kill_local
  0023d	c7 45 a0 27 00
	00 00		 mov	 DWORD PTR tv190[ebp], 39 ; 00000027H
  00244	eb 21		 jmp	 SHORT $LN32@kill_local
$LN31@kill_local:
  00246	8b 15 00 00 00
	00		 mov	 edx, DWORD PTR ?__LINE__Var@?0??kill_local@@YGXPAUENTITY@@@Z@4JA
  0024c	83 c2 44	 add	 edx, 68			; 00000044H
  0024f	52		 push	 edx
  00250	68 00 00 00 00	 push	 OFFSET ??_C@_0FC@BANICOIG@c?3?2users?2nhv90?2projects?2eech?2ap@
  00255	a1 00 00 00 00	 mov	 eax, DWORD PTR ?overload_invalid_list_type_message@@3PBDB ; overload_invalid_list_type_message
  0025a	50		 push	 eax
  0025b	e8 00 00 00 00	 call	 ?process_assert@@YGXPBD0H@Z ; process_assert
  00260	c7 45 a0 00 00
	00 00		 mov	 DWORD PTR tv190[ebp], 0
$LN32@kill_local:
  00267	6a 27		 push	 39			; 00000027H
  00269	8b 4d f8	 mov	 ecx, DWORD PTR _task$[ebp]
  0026c	51		 push	 ecx
  0026d	69 55 a4 b4 00
	00 00		 imul	 edx, DWORD PTR tv182[ebp], 180
  00274	8b 45 a0	 mov	 eax, DWORD PTR tv190[ebp]
  00277	8b 8c 82 00 00
	00 00		 mov	 ecx, DWORD PTR ?fn_get_local_entity_child_succ@@3PAY0CN@P6GPAUENTITY@@PAU1@W4LIST_TYPES@@@ZA[edx+eax*4]
  0027e	ff d1		 call	 ecx
  00280	89 45 f8	 mov	 DWORD PTR _task$[ebp], eax

; 371  : 
; 372  : 			if (destroy_task->type == ENTITY_TYPE_TASK)

  00283	8b 45 ec	 mov	 eax, DWORD PTR _destroy_task$[ebp]
  00286	83 38 22	 cmp	 DWORD PTR [eax], 34	; 00000022H
  00289	75 14		 jne	 SHORT $LN10@kill_local

; 373  : 			{
; 374  : 				#if DEBUG_MODULE
; 375  : 
; 376  : 				debug_log ("SH_DSTRY: killing ship, notifying task %s complete", entity_sub_type_task_names [get_local_entity_int_value (destroy_task, INT_TYPE_ENTITY_SUB_TYPE)]);
; 377  : 
; 378  : 				#endif
; 379  : 
; 380  : 				notify_local_entity (ENTITY_MESSAGE_TASK_COMPLETED, destroy_task, en, TASK_TERMINATED_OBJECTIVE_MESSAGE);

  0028b	6a 04		 push	 4
  0028d	8b 45 08	 mov	 eax, DWORD PTR _en$[ebp]
  00290	50		 push	 eax
  00291	8b 4d ec	 mov	 ecx, DWORD PTR _destroy_task$[ebp]
  00294	51		 push	 ecx
  00295	6a 32		 push	 50			; 00000032H
  00297	e8 00 00 00 00	 call	 ?notify_local_entity@@YAHW4ENTITY_MESSAGES@@PAUENTITY@@1ZZ ; notify_local_entity
  0029c	83 c4 10	 add	 esp, 16			; 00000010H
$LN10@kill_local:

; 381  : 			}
; 382  : 		}

  0029f	e9 4f ff ff ff	 jmp	 $LN2@kill_local
$LN3@kill_local:

; 383  : 
; 384  : 		//
; 385  : 		// Release landing lock (if any)
; 386  : 		//
; 387  : 
; 388  : 		release_mobile_entity_landing_locks (en);

  002a4	8b 45 08	 mov	 eax, DWORD PTR _en$[ebp]
  002a7	50		 push	 eax
  002a8	e8 00 00 00 00	 call	 ?release_mobile_entity_landing_locks@@YGXPAUENTITY@@@Z ; release_mobile_entity_landing_locks

; 389  : 
; 390  : 		////////////////////////////////////////
; 391  : 		//
; 392  : 		// UNLINK FROM SYSTEM
; 393  : 		//
; 394  : 		////////////////////////////////////////
; 395  : 
; 396  : 		//
; 397  : 		// Destroy keysite entity if ship is carrier
; 398  : 		//
; 399  : 
; 400  : 		keysite = get_local_entity_first_child (en, LIST_TYPE_MOVEMENT_DEPENDENT);

  002ad	83 7d 08 00	 cmp	 DWORD PTR _en$[ebp], 0
  002b1	74 0a		 je	 SHORT $LN33@kill_local
  002b3	8b 45 08	 mov	 eax, DWORD PTR _en$[ebp]
  002b6	8b 08		 mov	 ecx, DWORD PTR [eax]
  002b8	89 4d a4	 mov	 DWORD PTR tv209[ebp], ecx
  002bb	eb 21		 jmp	 SHORT $LN34@kill_local
$LN33@kill_local:
  002bd	8b 15 00 00 00
	00		 mov	 edx, DWORD PTR ?__LINE__Var@?0??kill_local@@YGXPAUENTITY@@@Z@4JA
  002c3	83 c2 62	 add	 edx, 98			; 00000062H
  002c6	52		 push	 edx
  002c7	68 00 00 00 00	 push	 OFFSET ??_C@_0FC@BANICOIG@c?3?2users?2nhv90?2projects?2eech?2ap@
  002cc	a1 00 00 00 00	 mov	 eax, DWORD PTR ?null_entity_pointer_message@@3PBDB ; null_entity_pointer_message
  002d1	50		 push	 eax
  002d2	e8 00 00 00 00	 call	 ?process_assert@@YGXPBD0H@Z ; process_assert
  002d7	c7 45 a4 00 00
	00 00		 mov	 DWORD PTR tv209[ebp], 0
$LN34@kill_local:
  002de	b9 01 00 00 00	 mov	 ecx, 1
  002e3	85 c9		 test	 ecx, ecx
  002e5	74 09		 je	 SHORT $LN35@kill_local
  002e7	c7 45 a0 1a 00
	00 00		 mov	 DWORD PTR tv217[ebp], 26 ; 0000001aH
  002ee	eb 21		 jmp	 SHORT $LN36@kill_local
$LN35@kill_local:
  002f0	8b 15 00 00 00
	00		 mov	 edx, DWORD PTR ?__LINE__Var@?0??kill_local@@YGXPAUENTITY@@@Z@4JA
  002f6	83 c2 62	 add	 edx, 98			; 00000062H
  002f9	52		 push	 edx
  002fa	68 00 00 00 00	 push	 OFFSET ??_C@_0FC@BANICOIG@c?3?2users?2nhv90?2projects?2eech?2ap@
  002ff	a1 00 00 00 00	 mov	 eax, DWORD PTR ?overload_invalid_list_type_message@@3PBDB ; overload_invalid_list_type_message
  00304	50		 push	 eax
  00305	e8 00 00 00 00	 call	 ?process_assert@@YGXPBD0H@Z ; process_assert
  0030a	c7 45 a0 00 00
	00 00		 mov	 DWORD PTR tv217[ebp], 0
$LN36@kill_local:
  00311	6a 1a		 push	 26			; 0000001aH
  00313	8b 4d 08	 mov	 ecx, DWORD PTR _en$[ebp]
  00316	51		 push	 ecx
  00317	69 55 a4 b4 00
	00 00		 imul	 edx, DWORD PTR tv209[ebp], 180
  0031e	8b 45 a0	 mov	 eax, DWORD PTR tv217[ebp]
  00321	8b 8c 82 00 00
	00 00		 mov	 ecx, DWORD PTR ?fn_get_local_entity_first_child@@3PAY0CN@P6GPAUENTITY@@PAU1@W4LIST_TYPES@@@ZA[edx+eax*4]
  00328	ff d1		 call	 ecx
  0032a	89 45 f0	 mov	 DWORD PTR _keysite$[ebp], eax
$LN4@kill_local:

; 401  : 
; 402  : 		while (keysite)

  0032d	83 7d f0 00	 cmp	 DWORD PTR _keysite$[ebp], 0
  00331	0f 84 bd 00 00
	00		 je	 $LN9@kill_local

; 403  : 		{
; 404  : 			if (get_local_entity_type (keysite) == ENTITY_TYPE_KEYSITE)

  00337	83 7d f0 00	 cmp	 DWORD PTR _keysite$[ebp], 0
  0033b	74 0a		 je	 SHORT $LN37@kill_local
  0033d	8b 45 f0	 mov	 eax, DWORD PTR _keysite$[ebp]
  00340	8b 08		 mov	 ecx, DWORD PTR [eax]
  00342	89 4d a4	 mov	 DWORD PTR tv229[ebp], ecx
  00345	eb 1d		 jmp	 SHORT $LN38@kill_local
$LN37@kill_local:
  00347	68 94 01 00 00	 push	 404			; 00000194H
  0034c	68 00 00 00 00	 push	 OFFSET ??_C@_0FC@BANICOIG@c?3?2users?2nhv90?2projects?2eech?2ap@
  00351	8b 15 00 00 00
	00		 mov	 edx, DWORD PTR ?null_entity_pointer_message@@3PBDB ; null_entity_pointer_message
  00357	52		 push	 edx
  00358	e8 00 00 00 00	 call	 ?process_assert@@YGXPBD0H@Z ; process_assert
  0035d	c7 45 a4 00 00
	00 00		 mov	 DWORD PTR tv229[ebp], 0
$LN38@kill_local:
  00364	83 7d a4 0f	 cmp	 DWORD PTR tv229[ebp], 15 ; 0000000fH
  00368	75 05		 jne	 SHORT $LN11@kill_local

; 405  : 			{
; 406  : 				break;

  0036a	e9 85 00 00 00	 jmp	 $LN9@kill_local
$LN11@kill_local:

; 407  : 			}
; 408  : 
; 409  : 			keysite = get_local_entity_child_succ (keysite, LIST_TYPE_MOVEMENT_DEPENDENT);

  0036f	83 7d f0 00	 cmp	 DWORD PTR _keysite$[ebp], 0
  00373	74 0a		 je	 SHORT $LN39@kill_local
  00375	8b 45 f0	 mov	 eax, DWORD PTR _keysite$[ebp]
  00378	8b 08		 mov	 ecx, DWORD PTR [eax]
  0037a	89 4d a4	 mov	 DWORD PTR tv237[ebp], ecx
  0037d	eb 21		 jmp	 SHORT $LN40@kill_local
$LN39@kill_local:
  0037f	8b 15 00 00 00
	00		 mov	 edx, DWORD PTR ?__LINE__Var@?0??kill_local@@YGXPAUENTITY@@@Z@4JA
  00385	83 c2 6b	 add	 edx, 107		; 0000006bH
  00388	52		 push	 edx
  00389	68 00 00 00 00	 push	 OFFSET ??_C@_0FC@BANICOIG@c?3?2users?2nhv90?2projects?2eech?2ap@
  0038e	a1 00 00 00 00	 mov	 eax, DWORD PTR ?null_entity_pointer_message@@3PBDB ; null_entity_pointer_message
  00393	50		 push	 eax
  00394	e8 00 00 00 00	 call	 ?process_assert@@YGXPBD0H@Z ; process_assert
  00399	c7 45 a4 00 00
	00 00		 mov	 DWORD PTR tv237[ebp], 0
$LN40@kill_local:
  003a0	b9 01 00 00 00	 mov	 ecx, 1
  003a5	85 c9		 test	 ecx, ecx
  003a7	74 09		 je	 SHORT $LN41@kill_local
  003a9	c7 45 a0 1a 00
	00 00		 mov	 DWORD PTR tv245[ebp], 26 ; 0000001aH
  003b0	eb 21		 jmp	 SHORT $LN42@kill_local
$LN41@kill_local:
  003b2	8b 15 00 00 00
	00		 mov	 edx, DWORD PTR ?__LINE__Var@?0??kill_local@@YGXPAUENTITY@@@Z@4JA
  003b8	83 c2 6b	 add	 edx, 107		; 0000006bH
  003bb	52		 push	 edx
  003bc	68 00 00 00 00	 push	 OFFSET ??_C@_0FC@BANICOIG@c?3?2users?2nhv90?2projects?2eech?2ap@
  003c1	a1 00 00 00 00	 mov	 eax, DWORD PTR ?overload_invalid_list_type_message@@3PBDB ; overload_invalid_list_type_message
  003c6	50		 push	 eax
  003c7	e8 00 00 00 00	 call	 ?process_assert@@YGXPBD0H@Z ; process_assert
  003cc	c7 45 a0 00 00
	00 00		 mov	 DWORD PTR tv245[ebp], 0
$LN42@kill_local:
  003d3	6a 1a		 push	 26			; 0000001aH
  003d5	8b 4d f0	 mov	 ecx, DWORD PTR _keysite$[ebp]
  003d8	51		 push	 ecx
  003d9	69 55 a4 b4 00
	00 00		 imul	 edx, DWORD PTR tv237[ebp], 180
  003e0	8b 45 a0	 mov	 eax, DWORD PTR tv245[ebp]
  003e3	8b 8c 82 00 00
	00 00		 mov	 ecx, DWORD PTR ?fn_get_local_entity_child_succ@@3PAY0CN@P6GPAUENTITY@@PAU1@W4LIST_TYPES@@@ZA[edx+eax*4]
  003ea	ff d1		 call	 ecx
  003ec	89 45 f0	 mov	 DWORD PTR _keysite$[ebp], eax

; 410  : 		}

  003ef	e9 39 ff ff ff	 jmp	 $LN4@kill_local
$LN9@kill_local:

; 411  : 	}
; 412  : 
; 413  : 	//
; 414  : 	// ship_vehicle
; 415  : 	//
; 416  : 
; 417  : 	//
; 418  : 	// vehicle
; 419  : 	//
; 420  : 
; 421  : 	unlink_local_entity_children (en, LIST_TYPE_TASK_DEPENDENT);

  003f4	6a 27		 push	 39			; 00000027H
  003f6	8b 45 08	 mov	 eax, DWORD PTR _en$[ebp]
  003f9	50		 push	 eax
  003fa	e8 00 00 00 00	 call	 ?unlink_local_entity_children@@YGXPAUENTITY@@W4LIST_TYPES@@@Z ; unlink_local_entity_children

; 422  : 
; 423  : 	unlink_local_entity_children (en, LIST_TYPE_MOVEMENT_DEPENDENT);

  003ff	6a 1a		 push	 26			; 0000001aH
  00401	8b 45 08	 mov	 eax, DWORD PTR _en$[ebp]
  00404	50		 push	 eax
  00405	e8 00 00 00 00	 call	 ?unlink_local_entity_children@@YGXPAUENTITY@@W4LIST_TYPES@@@Z ; unlink_local_entity_children

; 424  : 
; 425  : 	delete_local_entity_from_parents_child_list (en, LIST_TYPE_MEMBER);

  0040a	6a 19		 push	 25			; 00000019H
  0040c	8b 45 08	 mov	 eax, DWORD PTR _en$[ebp]
  0040f	50		 push	 eax
  00410	e8 00 00 00 00	 call	 ?delete_local_entity_from_parents_child_list@@YGXPAUENTITY@@W4LIST_TYPES@@@Z ; delete_local_entity_from_parents_child_list

; 426  : 
; 427  : 	delete_local_entity_from_parents_child_list (en, LIST_TYPE_MOVEMENT_DEPENDENT);

  00415	6a 1a		 push	 26			; 0000001aH
  00417	8b 45 08	 mov	 eax, DWORD PTR _en$[ebp]
  0041a	50		 push	 eax
  0041b	e8 00 00 00 00	 call	 ?delete_local_entity_from_parents_child_list@@YGXPAUENTITY@@W4LIST_TYPES@@@Z ; delete_local_entity_from_parents_child_list

; 428  : 
; 429  : 	delete_local_entity_from_parents_child_list (en, LIST_TYPE_FOLLOWER);

  00420	6a 0d		 push	 13			; 0000000dH
  00422	8b 45 08	 mov	 eax, DWORD PTR _en$[ebp]
  00425	50		 push	 eax
  00426	e8 00 00 00 00	 call	 ?delete_local_entity_from_parents_child_list@@YGXPAUENTITY@@W4LIST_TYPES@@@Z ; delete_local_entity_from_parents_child_list

; 430  : 
; 431  : 	// gunship_target_link
; 432  : 
; 433  : 	// member_link
; 434  : 
; 435  : 	// view_link
; 436  : 
; 437  : 	delete_local_entity_from_parents_child_list (en, LIST_TYPE_TAKEOFF_QUEUE);

  0042b	6a 25		 push	 37			; 00000025H
  0042d	8b 45 08	 mov	 eax, DWORD PTR _en$[ebp]
  00430	50		 push	 eax
  00431	e8 00 00 00 00	 call	 ?delete_local_entity_from_parents_child_list@@YGXPAUENTITY@@W4LIST_TYPES@@@Z ; delete_local_entity_from_parents_child_list

; 438  : 
; 439  : 	//
; 440  : 	// mobile
; 441  : 	//
; 442  : 
; 443  : 	//
; 444  : 	// kill weapon sound effects
; 445  : 	//
; 446  : 
; 447  : 	kill_local_entity_sound_type (en, ENTITY_SUB_TYPE_EFFECT_SOUND_CHAIN_GUN);

  00436	6a 10		 push	 16			; 00000010H
  00438	8b 45 08	 mov	 eax, DWORD PTR _en$[ebp]
  0043b	50		 push	 eax
  0043c	e8 00 00 00 00	 call	 ?kill_local_entity_sound_type@@YGXPAUENTITY@@H@Z ; kill_local_entity_sound_type

; 448  : 
; 449  : 	//
; 450  : 	// kill engine sound effects
; 451  : 	//
; 452  : 
; 453  : 	kill_local_entity_sound_type (en, ENTITY_SUB_TYPE_EFFECT_SOUND_ENGINE_LOOPING1);

  00441	6a 15		 push	 21			; 00000015H
  00443	8b 45 08	 mov	 eax, DWORD PTR _en$[ebp]
  00446	50		 push	 eax
  00447	e8 00 00 00 00	 call	 ?kill_local_entity_sound_type@@YGXPAUENTITY@@H@Z ; kill_local_entity_sound_type

; 454  : 	kill_local_entity_sound_type (en, ENTITY_SUB_TYPE_EFFECT_SOUND_ENGINE_LOOPING2);

  0044c	6a 16		 push	 22			; 00000016H
  0044e	8b 45 08	 mov	 eax, DWORD PTR _en$[ebp]
  00451	50		 push	 eax
  00452	e8 00 00 00 00	 call	 ?kill_local_entity_sound_type@@YGXPAUENTITY@@H@Z ; kill_local_entity_sound_type

; 455  : 
; 456  : 	unlink_local_entity_children (en, LIST_TYPE_TARGET);

  00457	6a 26		 push	 38			; 00000026H
  00459	8b 45 08	 mov	 eax, DWORD PTR _en$[ebp]
  0045c	50		 push	 eax
  0045d	e8 00 00 00 00	 call	 ?unlink_local_entity_children@@YGXPAUENTITY@@W4LIST_TYPES@@@Z ; unlink_local_entity_children

; 457  : 
; 458  : 	delete_local_entity_from_parents_child_list (en, LIST_TYPE_PADLOCK);

  00462	6a 1b		 push	 27			; 0000001bH
  00464	8b 45 08	 mov	 eax, DWORD PTR _en$[ebp]
  00467	50		 push	 eax
  00468	e8 00 00 00 00	 call	 ?delete_local_entity_from_parents_child_list@@YGXPAUENTITY@@W4LIST_TYPES@@@Z ; delete_local_entity_from_parents_child_list

; 459  : 
; 460  : 	// sector_link
; 461  : 
; 462  : 	delete_local_entity_from_parents_child_list (en, LIST_TYPE_TARGET);

  0046d	6a 26		 push	 38			; 00000026H
  0046f	8b 45 08	 mov	 eax, DWORD PTR _en$[ebp]
  00472	50		 push	 eax
  00473	e8 00 00 00 00	 call	 ?delete_local_entity_from_parents_child_list@@YGXPAUENTITY@@W4LIST_TYPES@@@Z ; delete_local_entity_from_parents_child_list

; 463  : 
; 464  : 	// update_link
; 465  : 
; 466  : 	set_local_entity_int_value (en, INT_TYPE_OPERATIONAL_STATE, OPERATIONAL_STATE_STOPPED);

  00478	83 7d 08 00	 cmp	 DWORD PTR _en$[ebp], 0
  0047c	74 0a		 je	 SHORT $LN43@kill_local
  0047e	8b 45 08	 mov	 eax, DWORD PTR _en$[ebp]
  00481	8b 08		 mov	 ecx, DWORD PTR [eax]
  00483	89 4d a4	 mov	 DWORD PTR tv281[ebp], ecx
  00486	eb 24		 jmp	 SHORT $LN44@kill_local
$LN43@kill_local:
  00488	8b 15 00 00 00
	00		 mov	 edx, DWORD PTR ?__LINE__Var@?0??kill_local@@YGXPAUENTITY@@@Z@4JA
  0048e	81 c2 a4 00 00
	00		 add	 edx, 164		; 000000a4H
  00494	52		 push	 edx
  00495	68 00 00 00 00	 push	 OFFSET ??_C@_0FC@BANICOIG@c?3?2users?2nhv90?2projects?2eech?2ap@
  0049a	a1 00 00 00 00	 mov	 eax, DWORD PTR ?null_entity_pointer_message@@3PBDB ; null_entity_pointer_message
  0049f	50		 push	 eax
  004a0	e8 00 00 00 00	 call	 ?process_assert@@YGXPBD0H@Z ; process_assert
  004a5	c7 45 a4 00 00
	00 00		 mov	 DWORD PTR tv281[ebp], 0
$LN44@kill_local:
  004ac	b9 01 00 00 00	 mov	 ecx, 1
  004b1	85 c9		 test	 ecx, ecx
  004b3	74 09		 je	 SHORT $LN45@kill_local
  004b5	c7 45 a0 97 00
	00 00		 mov	 DWORD PTR tv289[ebp], 151 ; 00000097H
  004bc	eb 24		 jmp	 SHORT $LN46@kill_local
$LN45@kill_local:
  004be	8b 15 00 00 00
	00		 mov	 edx, DWORD PTR ?__LINE__Var@?0??kill_local@@YGXPAUENTITY@@@Z@4JA
  004c4	81 c2 a4 00 00
	00		 add	 edx, 164		; 000000a4H
  004ca	52		 push	 edx
  004cb	68 00 00 00 00	 push	 OFFSET ??_C@_0FC@BANICOIG@c?3?2users?2nhv90?2projects?2eech?2ap@
  004d0	a1 00 00 00 00	 mov	 eax, DWORD PTR ?overload_invalid_int_type_message@@3PBDB ; overload_invalid_int_type_message
  004d5	50		 push	 eax
  004d6	e8 00 00 00 00	 call	 ?process_assert@@YGXPBD0H@Z ; process_assert
  004db	c7 45 a0 00 00
	00 00		 mov	 DWORD PTR tv289[ebp], 0
$LN46@kill_local:
  004e2	6a 08		 push	 8
  004e4	68 97 00 00 00	 push	 151			; 00000097H
  004e9	8b 4d 08	 mov	 ecx, DWORD PTR _en$[ebp]
  004ec	51		 push	 ecx
  004ed	69 55 a4 5c 04
	00 00		 imul	 edx, DWORD PTR tv281[ebp], 1116
  004f4	8b 45 a0	 mov	 eax, DWORD PTR tv289[ebp]
  004f7	8b 8c 82 00 00
	00 00		 mov	 ecx, DWORD PTR ?fn_set_local_entity_int_value@@3PAY0BBH@P6GXPAUENTITY@@W4INT_TYPES@@H@ZA[edx+eax*4]
  004fe	ff d1		 call	 ecx

; 467  : 
; 468  : 	////////////////////////////////////////
; 469  : 	//
; 470  : 	// KILL
; 471  : 	//
; 472  : 	////////////////////////////////////////
; 473  : 
; 474  : 	// must be done before alive flag set
; 475  : 	remove_mobile_values_from_sector (get_local_entity_parent (en, LIST_TYPE_SECTOR), en);

  00500	83 7d 08 00	 cmp	 DWORD PTR _en$[ebp], 0
  00504	74 0a		 je	 SHORT $LN47@kill_local
  00506	8b 45 08	 mov	 eax, DWORD PTR _en$[ebp]
  00509	8b 08		 mov	 ecx, DWORD PTR [eax]
  0050b	89 4d a4	 mov	 DWORD PTR tv302[ebp], ecx
  0050e	eb 24		 jmp	 SHORT $LN48@kill_local
$LN47@kill_local:
  00510	8b 15 00 00 00
	00		 mov	 edx, DWORD PTR ?__LINE__Var@?0??kill_local@@YGXPAUENTITY@@@Z@4JA
  00516	81 c2 ad 00 00
	00		 add	 edx, 173		; 000000adH
  0051c	52		 push	 edx
  0051d	68 00 00 00 00	 push	 OFFSET ??_C@_0FC@BANICOIG@c?3?2users?2nhv90?2projects?2eech?2ap@
  00522	a1 00 00 00 00	 mov	 eax, DWORD PTR ?null_entity_pointer_message@@3PBDB ; null_entity_pointer_message
  00527	50		 push	 eax
  00528	e8 00 00 00 00	 call	 ?process_assert@@YGXPBD0H@Z ; process_assert
  0052d	c7 45 a4 00 00
	00 00		 mov	 DWORD PTR tv302[ebp], 0
$LN48@kill_local:
  00534	b9 01 00 00 00	 mov	 ecx, 1
  00539	85 c9		 test	 ecx, ecx
  0053b	74 09		 je	 SHORT $LN49@kill_local
  0053d	c7 45 a0 21 00
	00 00		 mov	 DWORD PTR tv310[ebp], 33 ; 00000021H
  00544	eb 24		 jmp	 SHORT $LN50@kill_local
$LN49@kill_local:
  00546	8b 15 00 00 00
	00		 mov	 edx, DWORD PTR ?__LINE__Var@?0??kill_local@@YGXPAUENTITY@@@Z@4JA
  0054c	81 c2 ad 00 00
	00		 add	 edx, 173		; 000000adH
  00552	52		 push	 edx
  00553	68 00 00 00 00	 push	 OFFSET ??_C@_0FC@BANICOIG@c?3?2users?2nhv90?2projects?2eech?2ap@
  00558	a1 00 00 00 00	 mov	 eax, DWORD PTR ?overload_invalid_list_type_message@@3PBDB ; overload_invalid_list_type_message
  0055d	50		 push	 eax
  0055e	e8 00 00 00 00	 call	 ?process_assert@@YGXPBD0H@Z ; process_assert
  00563	c7 45 a0 00 00
	00 00		 mov	 DWORD PTR tv310[ebp], 0
$LN50@kill_local:
  0056a	8b 4d 08	 mov	 ecx, DWORD PTR _en$[ebp]
  0056d	51		 push	 ecx
  0056e	6a 21		 push	 33			; 00000021H
  00570	8b 55 08	 mov	 edx, DWORD PTR _en$[ebp]
  00573	52		 push	 edx
  00574	69 45 a4 b4 00
	00 00		 imul	 eax, DWORD PTR tv302[ebp], 180
  0057b	8b 4d a0	 mov	 ecx, DWORD PTR tv310[ebp]
  0057e	8b 94 88 00 00
	00 00		 mov	 edx, DWORD PTR ?fn_get_local_entity_parent@@3PAY0CN@P6GPAUENTITY@@PAU1@W4LIST_TYPES@@@ZA[eax+ecx*4]
  00585	ff d2		 call	 edx
  00587	50		 push	 eax
  00588	e8 00 00 00 00	 call	 ?remove_mobile_values_from_sector@@YGXPAUENTITY@@0@Z ; remove_mobile_values_from_sector

; 476  : 
; 477  : 	set_local_entity_int_value (en, INT_TYPE_ALIVE, FALSE);

  0058d	83 7d 08 00	 cmp	 DWORD PTR _en$[ebp], 0
  00591	74 0a		 je	 SHORT $LN51@kill_local
  00593	8b 45 08	 mov	 eax, DWORD PTR _en$[ebp]
  00596	8b 08		 mov	 ecx, DWORD PTR [eax]
  00598	89 4d a4	 mov	 DWORD PTR tv323[ebp], ecx
  0059b	eb 24		 jmp	 SHORT $LN52@kill_local
$LN51@kill_local:
  0059d	8b 15 00 00 00
	00		 mov	 edx, DWORD PTR ?__LINE__Var@?0??kill_local@@YGXPAUENTITY@@@Z@4JA
  005a3	81 c2 af 00 00
	00		 add	 edx, 175		; 000000afH
  005a9	52		 push	 edx
  005aa	68 00 00 00 00	 push	 OFFSET ??_C@_0FC@BANICOIG@c?3?2users?2nhv90?2projects?2eech?2ap@
  005af	a1 00 00 00 00	 mov	 eax, DWORD PTR ?null_entity_pointer_message@@3PBDB ; null_entity_pointer_message
  005b4	50		 push	 eax
  005b5	e8 00 00 00 00	 call	 ?process_assert@@YGXPBD0H@Z ; process_assert
  005ba	c7 45 a4 00 00
	00 00		 mov	 DWORD PTR tv323[ebp], 0
$LN52@kill_local:
  005c1	b9 01 00 00 00	 mov	 ecx, 1
  005c6	85 c9		 test	 ecx, ecx
  005c8	74 09		 je	 SHORT $LN53@kill_local
  005ca	c7 45 a0 07 00
	00 00		 mov	 DWORD PTR tv331[ebp], 7
  005d1	eb 24		 jmp	 SHORT $LN54@kill_local
$LN53@kill_local:
  005d3	8b 15 00 00 00
	00		 mov	 edx, DWORD PTR ?__LINE__Var@?0??kill_local@@YGXPAUENTITY@@@Z@4JA
  005d9	81 c2 af 00 00
	00		 add	 edx, 175		; 000000afH
  005df	52		 push	 edx
  005e0	68 00 00 00 00	 push	 OFFSET ??_C@_0FC@BANICOIG@c?3?2users?2nhv90?2projects?2eech?2ap@
  005e5	a1 00 00 00 00	 mov	 eax, DWORD PTR ?overload_invalid_int_type_message@@3PBDB ; overload_invalid_int_type_message
  005ea	50		 push	 eax
  005eb	e8 00 00 00 00	 call	 ?process_assert@@YGXPBD0H@Z ; process_assert
  005f0	c7 45 a0 00 00
	00 00		 mov	 DWORD PTR tv331[ebp], 0
$LN54@kill_local:
  005f7	6a 00		 push	 0
  005f9	6a 07		 push	 7
  005fb	8b 4d 08	 mov	 ecx, DWORD PTR _en$[ebp]
  005fe	51		 push	 ecx
  005ff	69 55 a4 5c 04
	00 00		 imul	 edx, DWORD PTR tv323[ebp], 1116
  00606	8b 45 a0	 mov	 eax, DWORD PTR tv331[ebp]
  00609	8b 8c 82 00 00
	00 00		 mov	 ecx, DWORD PTR ?fn_set_local_entity_int_value@@3PAY0BBH@P6GXPAUENTITY@@W4INT_TYPES@@H@ZA[edx+eax*4]
  00610	ff d1		 call	 ecx

; 478  : 
; 479  : 	damage_ship_3d_object (en);

  00612	8b 45 08	 mov	 eax, DWORD PTR _en$[ebp]
  00615	50		 push	 eax
  00616	e8 00 00 00 00	 call	 ?damage_ship_3d_object@@YGXPAUENTITY@@@Z ; damage_ship_3d_object

; 480  : 
; 481  : 	//
; 482  : 	// group losses
; 483  : 	//
; 484  : 
; 485  : 	losses = get_local_entity_int_value (group, INT_TYPE_LOSSES);

  0061b	83 7d f4 00	 cmp	 DWORD PTR _group$[ebp], 0
  0061f	74 0a		 je	 SHORT $LN55@kill_local
  00621	8b 45 f4	 mov	 eax, DWORD PTR _group$[ebp]
  00624	8b 08		 mov	 ecx, DWORD PTR [eax]
  00626	89 4d a4	 mov	 DWORD PTR tv344[ebp], ecx
  00629	eb 24		 jmp	 SHORT $LN56@kill_local
$LN55@kill_local:
  0062b	8b 15 00 00 00
	00		 mov	 edx, DWORD PTR ?__LINE__Var@?0??kill_local@@YGXPAUENTITY@@@Z@4JA
  00631	81 c2 b7 00 00
	00		 add	 edx, 183		; 000000b7H
  00637	52		 push	 edx
  00638	68 00 00 00 00	 push	 OFFSET ??_C@_0FC@BANICOIG@c?3?2users?2nhv90?2projects?2eech?2ap@
  0063d	a1 00 00 00 00	 mov	 eax, DWORD PTR ?null_entity_pointer_message@@3PBDB ; null_entity_pointer_message
  00642	50		 push	 eax
  00643	e8 00 00 00 00	 call	 ?process_assert@@YGXPBD0H@Z ; process_assert
  00648	c7 45 a4 00 00
	00 00		 mov	 DWORD PTR tv344[ebp], 0
$LN56@kill_local:
  0064f	b9 01 00 00 00	 mov	 ecx, 1
  00654	85 c9		 test	 ecx, ecx
  00656	74 09		 je	 SHORT $LN57@kill_local
  00658	c7 45 a0 7f 00
	00 00		 mov	 DWORD PTR tv352[ebp], 127 ; 0000007fH
  0065f	eb 24		 jmp	 SHORT $LN58@kill_local
$LN57@kill_local:
  00661	8b 15 00 00 00
	00		 mov	 edx, DWORD PTR ?__LINE__Var@?0??kill_local@@YGXPAUENTITY@@@Z@4JA
  00667	81 c2 b7 00 00
	00		 add	 edx, 183		; 000000b7H
  0066d	52		 push	 edx
  0066e	68 00 00 00 00	 push	 OFFSET ??_C@_0FC@BANICOIG@c?3?2users?2nhv90?2projects?2eech?2ap@
  00673	a1 00 00 00 00	 mov	 eax, DWORD PTR ?overload_invalid_int_type_message@@3PBDB ; overload_invalid_int_type_message
  00678	50		 push	 eax
  00679	e8 00 00 00 00	 call	 ?process_assert@@YGXPBD0H@Z ; process_assert
  0067e	c7 45 a0 00 00
	00 00		 mov	 DWORD PTR tv352[ebp], 0
$LN58@kill_local:
  00685	6a 7f		 push	 127			; 0000007fH
  00687	8b 4d f4	 mov	 ecx, DWORD PTR _group$[ebp]
  0068a	51		 push	 ecx
  0068b	69 55 a4 5c 04
	00 00		 imul	 edx, DWORD PTR tv344[ebp], 1116
  00692	8b 45 a0	 mov	 eax, DWORD PTR tv352[ebp]
  00695	8b 8c 82 00 00
	00 00		 mov	 ecx, DWORD PTR ?fn_get_local_entity_int_value@@3PAY0BBH@P6GHPAUENTITY@@W4INT_TYPES@@@ZA[edx+eax*4]
  0069c	ff d1		 call	 ecx
  0069e	89 45 fc	 mov	 DWORD PTR _losses$[ebp], eax

; 486  : 
; 487  : 	losses ++;

  006a1	8b 45 fc	 mov	 eax, DWORD PTR _losses$[ebp]
  006a4	83 c0 01	 add	 eax, 1
  006a7	89 45 fc	 mov	 DWORD PTR _losses$[ebp], eax

; 488  : 
; 489  : 	set_local_entity_int_value (group, INT_TYPE_LOSSES, losses);

  006aa	83 7d f4 00	 cmp	 DWORD PTR _group$[ebp], 0
  006ae	74 0a		 je	 SHORT $LN59@kill_local
  006b0	8b 45 f4	 mov	 eax, DWORD PTR _group$[ebp]
  006b3	8b 08		 mov	 ecx, DWORD PTR [eax]
  006b5	89 4d a4	 mov	 DWORD PTR tv365[ebp], ecx
  006b8	eb 24		 jmp	 SHORT $LN60@kill_local
$LN59@kill_local:
  006ba	8b 15 00 00 00
	00		 mov	 edx, DWORD PTR ?__LINE__Var@?0??kill_local@@YGXPAUENTITY@@@Z@4JA
  006c0	81 c2 bb 00 00
	00		 add	 edx, 187		; 000000bbH
  006c6	52		 push	 edx
  006c7	68 00 00 00 00	 push	 OFFSET ??_C@_0FC@BANICOIG@c?3?2users?2nhv90?2projects?2eech?2ap@
  006cc	a1 00 00 00 00	 mov	 eax, DWORD PTR ?null_entity_pointer_message@@3PBDB ; null_entity_pointer_message
  006d1	50		 push	 eax
  006d2	e8 00 00 00 00	 call	 ?process_assert@@YGXPBD0H@Z ; process_assert
  006d7	c7 45 a4 00 00
	00 00		 mov	 DWORD PTR tv365[ebp], 0
$LN60@kill_local:
  006de	b9 01 00 00 00	 mov	 ecx, 1
  006e3	85 c9		 test	 ecx, ecx
  006e5	74 09		 je	 SHORT $LN61@kill_local
  006e7	c7 45 a0 7f 00
	00 00		 mov	 DWORD PTR tv373[ebp], 127 ; 0000007fH
  006ee	eb 24		 jmp	 SHORT $LN62@kill_local
$LN61@kill_local:
  006f0	8b 15 00 00 00
	00		 mov	 edx, DWORD PTR ?__LINE__Var@?0??kill_local@@YGXPAUENTITY@@@Z@4JA
  006f6	81 c2 bb 00 00
	00		 add	 edx, 187		; 000000bbH
  006fc	52		 push	 edx
  006fd	68 00 00 00 00	 push	 OFFSET ??_C@_0FC@BANICOIG@c?3?2users?2nhv90?2projects?2eech?2ap@
  00702	a1 00 00 00 00	 mov	 eax, DWORD PTR ?overload_invalid_int_type_message@@3PBDB ; overload_invalid_int_type_message
  00707	50		 push	 eax
  00708	e8 00 00 00 00	 call	 ?process_assert@@YGXPBD0H@Z ; process_assert
  0070d	c7 45 a0 00 00
	00 00		 mov	 DWORD PTR tv373[ebp], 0
$LN62@kill_local:
  00714	8b 4d fc	 mov	 ecx, DWORD PTR _losses$[ebp]
  00717	51		 push	 ecx
  00718	6a 7f		 push	 127			; 0000007fH
  0071a	8b 55 f4	 mov	 edx, DWORD PTR _group$[ebp]
  0071d	52		 push	 edx
  0071e	69 45 a4 5c 04
	00 00		 imul	 eax, DWORD PTR tv365[ebp], 1116
  00725	8b 4d a0	 mov	 ecx, DWORD PTR tv373[ebp]
  00728	8b 94 88 00 00
	00 00		 mov	 edx, DWORD PTR ?fn_set_local_entity_int_value@@3PAY0BBH@P6GXPAUENTITY@@W4INT_TYPES@@H@ZA[eax+ecx*4]
  0072f	ff d2		 call	 edx

; 490  : 
; 491  : 	//
; 492  : 	// task losses
; 493  : 	//
; 494  : 
; 495  : 	task = get_local_group_primary_task (group);

  00731	8b 45 f4	 mov	 eax, DWORD PTR _group$[ebp]
  00734	50		 push	 eax
  00735	e8 00 00 00 00	 call	 ?get_local_group_primary_task@@YGPAUENTITY@@PAU1@@Z ; get_local_group_primary_task
  0073a	89 45 f8	 mov	 DWORD PTR _task$[ebp], eax

; 496  : 
; 497  : 	if (task)

  0073d	83 7d f8 00	 cmp	 DWORD PTR _task$[ebp], 0
  00741	0f 84 16 01 00
	00		 je	 $LN12@kill_local

; 498  : 	{
; 499  : 		losses = get_local_entity_int_value (task, INT_TYPE_LOSSES);

  00747	83 7d f8 00	 cmp	 DWORD PTR _task$[ebp], 0
  0074b	74 0a		 je	 SHORT $LN63@kill_local
  0074d	8b 45 f8	 mov	 eax, DWORD PTR _task$[ebp]
  00750	8b 08		 mov	 ecx, DWORD PTR [eax]
  00752	89 4d a4	 mov	 DWORD PTR tv388[ebp], ecx
  00755	eb 24		 jmp	 SHORT $LN64@kill_local
$LN63@kill_local:
  00757	8b 15 00 00 00
	00		 mov	 edx, DWORD PTR ?__LINE__Var@?0??kill_local@@YGXPAUENTITY@@@Z@4JA
  0075d	81 c2 c5 00 00
	00		 add	 edx, 197		; 000000c5H
  00763	52		 push	 edx
  00764	68 00 00 00 00	 push	 OFFSET ??_C@_0FC@BANICOIG@c?3?2users?2nhv90?2projects?2eech?2ap@
  00769	a1 00 00 00 00	 mov	 eax, DWORD PTR ?null_entity_pointer_message@@3PBDB ; null_entity_pointer_message
  0076e	50		 push	 eax
  0076f	e8 00 00 00 00	 call	 ?process_assert@@YGXPBD0H@Z ; process_assert
  00774	c7 45 a4 00 00
	00 00		 mov	 DWORD PTR tv388[ebp], 0
$LN64@kill_local:
  0077b	b9 01 00 00 00	 mov	 ecx, 1
  00780	85 c9		 test	 ecx, ecx
  00782	74 09		 je	 SHORT $LN65@kill_local
  00784	c7 45 a0 7f 00
	00 00		 mov	 DWORD PTR tv396[ebp], 127 ; 0000007fH
  0078b	eb 24		 jmp	 SHORT $LN66@kill_local
$LN65@kill_local:
  0078d	8b 15 00 00 00
	00		 mov	 edx, DWORD PTR ?__LINE__Var@?0??kill_local@@YGXPAUENTITY@@@Z@4JA
  00793	81 c2 c5 00 00
	00		 add	 edx, 197		; 000000c5H
  00799	52		 push	 edx
  0079a	68 00 00 00 00	 push	 OFFSET ??_C@_0FC@BANICOIG@c?3?2users?2nhv90?2projects?2eech?2ap@
  0079f	a1 00 00 00 00	 mov	 eax, DWORD PTR ?overload_invalid_int_type_message@@3PBDB ; overload_invalid_int_type_message
  007a4	50		 push	 eax
  007a5	e8 00 00 00 00	 call	 ?process_assert@@YGXPBD0H@Z ; process_assert
  007aa	c7 45 a0 00 00
	00 00		 mov	 DWORD PTR tv396[ebp], 0
$LN66@kill_local:
  007b1	6a 7f		 push	 127			; 0000007fH
  007b3	8b 4d f8	 mov	 ecx, DWORD PTR _task$[ebp]
  007b6	51		 push	 ecx
  007b7	69 55 a4 5c 04
	00 00		 imul	 edx, DWORD PTR tv388[ebp], 1116
  007be	8b 45 a0	 mov	 eax, DWORD PTR tv396[ebp]
  007c1	8b 8c 82 00 00
	00 00		 mov	 ecx, DWORD PTR ?fn_get_local_entity_int_value@@3PAY0BBH@P6GHPAUENTITY@@W4INT_TYPES@@@ZA[edx+eax*4]
  007c8	ff d1		 call	 ecx
  007ca	89 45 fc	 mov	 DWORD PTR _losses$[ebp], eax

; 500  : 
; 501  : 		losses ++;

  007cd	8b 45 fc	 mov	 eax, DWORD PTR _losses$[ebp]
  007d0	83 c0 01	 add	 eax, 1
  007d3	89 45 fc	 mov	 DWORD PTR _losses$[ebp], eax

; 502  : 
; 503  : 		set_local_entity_int_value (task, INT_TYPE_LOSSES, losses);

  007d6	83 7d f8 00	 cmp	 DWORD PTR _task$[ebp], 0
  007da	74 0a		 je	 SHORT $LN67@kill_local
  007dc	8b 45 f8	 mov	 eax, DWORD PTR _task$[ebp]
  007df	8b 08		 mov	 ecx, DWORD PTR [eax]
  007e1	89 4d a4	 mov	 DWORD PTR tv409[ebp], ecx
  007e4	eb 24		 jmp	 SHORT $LN68@kill_local
$LN67@kill_local:
  007e6	8b 15 00 00 00
	00		 mov	 edx, DWORD PTR ?__LINE__Var@?0??kill_local@@YGXPAUENTITY@@@Z@4JA
  007ec	81 c2 c9 00 00
	00		 add	 edx, 201		; 000000c9H
  007f2	52		 push	 edx
  007f3	68 00 00 00 00	 push	 OFFSET ??_C@_0FC@BANICOIG@c?3?2users?2nhv90?2projects?2eech?2ap@
  007f8	a1 00 00 00 00	 mov	 eax, DWORD PTR ?null_entity_pointer_message@@3PBDB ; null_entity_pointer_message
  007fd	50		 push	 eax
  007fe	e8 00 00 00 00	 call	 ?process_assert@@YGXPBD0H@Z ; process_assert
  00803	c7 45 a4 00 00
	00 00		 mov	 DWORD PTR tv409[ebp], 0
$LN68@kill_local:
  0080a	b9 01 00 00 00	 mov	 ecx, 1
  0080f	85 c9		 test	 ecx, ecx
  00811	74 09		 je	 SHORT $LN69@kill_local
  00813	c7 45 a0 7f 00
	00 00		 mov	 DWORD PTR tv417[ebp], 127 ; 0000007fH
  0081a	eb 24		 jmp	 SHORT $LN70@kill_local
$LN69@kill_local:
  0081c	8b 15 00 00 00
	00		 mov	 edx, DWORD PTR ?__LINE__Var@?0??kill_local@@YGXPAUENTITY@@@Z@4JA
  00822	81 c2 c9 00 00
	00		 add	 edx, 201		; 000000c9H
  00828	52		 push	 edx
  00829	68 00 00 00 00	 push	 OFFSET ??_C@_0FC@BANICOIG@c?3?2users?2nhv90?2projects?2eech?2ap@
  0082e	a1 00 00 00 00	 mov	 eax, DWORD PTR ?overload_invalid_int_type_message@@3PBDB ; overload_invalid_int_type_message
  00833	50		 push	 eax
  00834	e8 00 00 00 00	 call	 ?process_assert@@YGXPBD0H@Z ; process_assert
  00839	c7 45 a0 00 00
	00 00		 mov	 DWORD PTR tv417[ebp], 0
$LN70@kill_local:
  00840	8b 4d fc	 mov	 ecx, DWORD PTR _losses$[ebp]
  00843	51		 push	 ecx
  00844	6a 7f		 push	 127			; 0000007fH
  00846	8b 55 f8	 mov	 edx, DWORD PTR _task$[ebp]
  00849	52		 push	 edx
  0084a	69 45 a4 5c 04
	00 00		 imul	 eax, DWORD PTR tv409[ebp], 1116
  00851	8b 4d a0	 mov	 ecx, DWORD PTR tv417[ebp]
  00854	8b 94 88 00 00
	00 00		 mov	 edx, DWORD PTR ?fn_set_local_entity_int_value@@3PAY0BBH@P6GXPAUENTITY@@W4INT_TYPES@@H@ZA[eax+ecx*4]
  0085b	ff d2		 call	 edx
$LN12@kill_local:

; 504  : 	}
; 505  : 
; 506  : 	//
; 507  : 	// Notify Campaign Screen
; 508  : 	//
; 509  : 
; 510  : 	notify_campaign_screen (CAMPAIGN_SCREEN_GROUP_REMOVE_MEMBER, group);

  0085d	8b 45 f4	 mov	 eax, DWORD PTR _group$[ebp]
  00860	50		 push	 eax
  00861	6a 08		 push	 8
  00863	e8 00 00 00 00	 call	 ?notify_campaign_screen@@YGHW4CAMPAIGN_SCREEN_MESSAGES@@PAUENTITY@@@Z ; notify_campaign_screen

; 511  : 
; 512  : 	if (get_comms_model () == COMMS_MODEL_SERVER)

  00868	83 3d 00 00 00
	00 00		 cmp	 DWORD PTR ?system_comms_model@@3W4COMMS_MODEL_TYPES@@A, 0 ; system_comms_model
  0086f	75 65		 jne	 SHORT $LN13@kill_local

; 513  : 	{
; 514  : 		//
; 515  : 		// Notify the GROUP that the mobile has been killed  (N.B. must be done AFTER mobile is unlinked from member list)
; 516  : 		//
; 517  : 
; 518  : 		notify_local_entity (ENTITY_MESSAGE_MOBILE_KILLED, group, en);

  00871	8b 45 08	 mov	 eax, DWORD PTR _en$[ebp]
  00874	50		 push	 eax
  00875	8b 4d f4	 mov	 ecx, DWORD PTR _group$[ebp]
  00878	51		 push	 ecx
  00879	6a 28		 push	 40			; 00000028H
  0087b	e8 00 00 00 00	 call	 ?notify_local_entity@@YAHW4ENTITY_MESSAGES@@PAUENTITY@@1ZZ ; notify_local_entity
  00880	83 c4 0c	 add	 esp, 12			; 0000000cH

; 519  : 
; 520  : 		//
; 521  : 		// Kill the keysite if ship is the carrier (N.B. must be done AFTER ships alive flag cleared)
; 522  : 		//
; 523  : 
; 524  : 		if (keysite)

  00883	83 7d f0 00	 cmp	 DWORD PTR _keysite$[ebp], 0
  00887	74 4d		 je	 SHORT $LN13@kill_local

; 525  : 		{
; 526  : 			kill_client_server_entity (keysite);

  00889	83 7d f0 00	 cmp	 DWORD PTR _keysite$[ebp], 0
  0088d	74 0a		 je	 SHORT $LN71@kill_local
  0088f	8b 45 f0	 mov	 eax, DWORD PTR _keysite$[ebp]
  00892	8b 08		 mov	 ecx, DWORD PTR [eax]
  00894	89 4d a4	 mov	 DWORD PTR tv436[ebp], ecx
  00897	eb 24		 jmp	 SHORT $LN72@kill_local
$LN71@kill_local:
  00899	8b 15 00 00 00
	00		 mov	 edx, DWORD PTR ?__LINE__Var@?0??kill_local@@YGXPAUENTITY@@@Z@4JA
  0089f	81 c2 e0 00 00
	00		 add	 edx, 224		; 000000e0H
  008a5	52		 push	 edx
  008a6	68 00 00 00 00	 push	 OFFSET ??_C@_0FC@BANICOIG@c?3?2users?2nhv90?2projects?2eech?2ap@
  008ab	a1 00 00 00 00	 mov	 eax, DWORD PTR ?null_entity_pointer_message@@3PBDB ; null_entity_pointer_message
  008b0	50		 push	 eax
  008b1	e8 00 00 00 00	 call	 ?process_assert@@YGXPBD0H@Z ; process_assert
  008b6	c7 45 a4 00 00
	00 00		 mov	 DWORD PTR tv436[ebp], 0
$LN72@kill_local:
  008bd	8b 4d f0	 mov	 ecx, DWORD PTR _keysite$[ebp]
  008c0	51		 push	 ecx
  008c1	8b 15 00 00 00
	00		 mov	 edx, DWORD PTR ?system_comms_model@@3W4COMMS_MODEL_TYPES@@A ; system_comms_model
  008c7	c1 e2 02	 shl	 edx, 2
  008ca	8b 45 a4	 mov	 eax, DWORD PTR tv436[ebp]
  008cd	8b 8c c2 00 00
	00 00		 mov	 ecx, DWORD PTR ?fn_kill_client_server_entity@@3PAY01P6GXPAUENTITY@@@ZA[edx+eax*8]
  008d4	ff d1		 call	 ecx
$LN13@kill_local:

; 527  : 		}
; 528  : 	}
; 529  : 
; 530  : 	////////////////////////////////////////
; 531  : 	//
; 532  : 	// SPECIAL EFFECTS
; 533  : 	//
; 534  : 	////////////////////////////////////////
; 535  : 
; 536  : 	if (get_comms_model () == COMMS_MODEL_SERVER)

  008d6	83 3d 00 00 00
	00 00		 cmp	 DWORD PTR ?system_comms_model@@3W4COMMS_MODEL_TYPES@@A, 0 ; system_comms_model
  008dd	75 09		 jne	 SHORT $LN15@kill_local

; 537  : 	{
; 538  : 		create_client_server_object_killed_explosion_effect (en);

  008df	8b 45 08	 mov	 eax, DWORD PTR _en$[ebp]
  008e2	50		 push	 eax
  008e3	e8 00 00 00 00	 call	 ?create_client_server_object_killed_explosion_effect@@YGXPAUENTITY@@@Z ; create_client_server_object_killed_explosion_effect
$LN15@kill_local:

; 539  : 	}
; 540  : 
; 541  : 	#if LANDING_ROUTE_CHECK
; 542  : 
; 543  : 	destroy_debug_entity_landing_route_check (en);

  008e8	8b 45 08	 mov	 eax, DWORD PTR _en$[ebp]
  008eb	50		 push	 eax
  008ec	e8 00 00 00 00	 call	 ?destroy_debug_entity_landing_route_check@@YGXPAUENTITY@@@Z ; destroy_debug_entity_landing_route_check
$LN1@kill_local:

; 544  : 
; 545  : 	#endif
; 546  : 
; 547  : 	/////////////////////////////////////////////////////////////////
; 548  : 	//
; 549  : 	// SPECIAL_EFFECT_HOOK FOR BEING_DESTROYED
; 550  : 	//
; 551  : 	/////////////////////////////////////////////////////////////////
; 552  : 
; 553  : 	/////////////////////////////////////////////////////////////////
; 554  : 	//
; 555  : 	//
; 556  : 	/////////////////////////////////////////////////////////////////
; 557  : }

  008f1	5f		 pop	 edi
  008f2	5e		 pop	 esi
  008f3	5b		 pop	 ebx
  008f4	8b e5		 mov	 esp, ebp
  008f6	5d		 pop	 ebp
  008f7	c2 04 00	 ret	 4
?kill_local@@YGXPAUENTITY@@@Z ENDP			; kill_local
_TEXT	ENDS
; Function compile flags: /Odtp /ZI
; File c:\users\nhv90\projects\eech\aphavoc\source\entity\mobile\vehicle\ship\sh_dstry.c
;	COMDAT ?destroy_client_family@@YGXPAUENTITY@@@Z
_TEXT	SEGMENT
_en$ = 8						; size = 4
?destroy_client_family@@YGXPAUENTITY@@@Z PROC		; destroy_client_family, COMDAT

; 287  : {

  00000	55		 push	 ebp
  00001	8b ec		 mov	 ebp, esp
  00003	83 ec 40	 sub	 esp, 64			; 00000040H
  00006	53		 push	 ebx
  00007	56		 push	 esi
  00008	57		 push	 edi

; 288  : 	#if DEBUG_MODULE >= 2
; 289  : 
; 290  : 	debug_log_entity_args (ENTITY_DEBUG_REMOTE, ENTITY_DEBUG_DESTROY_FAMILY, en);
; 291  : 
; 292  : 	#endif
; 293  : 
; 294  : 	transmit_entity_comms_message (ENTITY_COMMS_DESTROY_FAMILY, en);

  00009	8b 45 08	 mov	 eax, DWORD PTR _en$[ebp]
  0000c	50		 push	 eax
  0000d	6a 13		 push	 19			; 00000013H
  0000f	e8 00 00 00 00	 call	 ?transmit_entity_comms_message@@YAXW4ENTITY_COMMS_MESSAGES@@PAUENTITY@@ZZ ; transmit_entity_comms_message
  00014	83 c4 08	 add	 esp, 8

; 295  : }

  00017	5f		 pop	 edi
  00018	5e		 pop	 esi
  00019	5b		 pop	 ebx
  0001a	8b e5		 mov	 esp, ebp
  0001c	5d		 pop	 ebp
  0001d	c2 04 00	 ret	 4
?destroy_client_family@@YGXPAUENTITY@@@Z ENDP		; destroy_client_family
_TEXT	ENDS
; Function compile flags: /Odtp /ZI
; File c:\users\nhv90\projects\eech\aphavoc\source\entity\mobile\vehicle\ship\sh_dstry.c
;	COMDAT ?destroy_server_family@@YGXPAUENTITY@@@Z
_TEXT	SEGMENT
tv73 = -68						; size = 4
_en$ = 8						; size = 4
?destroy_server_family@@YGXPAUENTITY@@@Z PROC		; destroy_server_family, COMDAT

; 274  : {

  00000	55		 push	 ebp
  00001	8b ec		 mov	 ebp, esp
  00003	83 ec 44	 sub	 esp, 68			; 00000044H
  00006	53		 push	 ebx
  00007	56		 push	 esi
  00008	57		 push	 edi

; 275  : 	destroy_client_server_entity_children (en, LIST_TYPE_MOVEMENT_DEPENDENT);

  00009	6a 1a		 push	 26			; 0000001aH
  0000b	8b 45 08	 mov	 eax, DWORD PTR _en$[ebp]
  0000e	50		 push	 eax
  0000f	e8 00 00 00 00	 call	 ?destroy_client_server_entity_children@@YGXPAUENTITY@@W4LIST_TYPES@@@Z ; destroy_client_server_entity_children

; 276  : 
; 277  : 	destroy_client_server_sound_effects (en);

  00014	8b 45 08	 mov	 eax, DWORD PTR _en$[ebp]
  00017	50		 push	 eax
  00018	e8 00 00 00 00	 call	 ?destroy_client_server_sound_effects@@YGXPAUENTITY@@@Z ; destroy_client_server_sound_effects

; 278  : 
; 279  : 	destroy_client_server_entity (en);

  0001d	83 7d 08 00	 cmp	 DWORD PTR _en$[ebp], 0
  00021	74 0a		 je	 SHORT $LN3@destroy_se
  00023	8b 45 08	 mov	 eax, DWORD PTR _en$[ebp]
  00026	8b 08		 mov	 ecx, DWORD PTR [eax]
  00028	89 4d bc	 mov	 DWORD PTR tv73[ebp], ecx
  0002b	eb 21		 jmp	 SHORT $LN4@destroy_se
$LN3@destroy_se:
  0002d	8b 15 00 00 00
	00		 mov	 edx, DWORD PTR ?__LINE__Var@?0??destroy_server_family@@YGXPAUENTITY@@@Z@4JA
  00033	83 c2 05	 add	 edx, 5
  00036	52		 push	 edx
  00037	68 00 00 00 00	 push	 OFFSET ??_C@_0FC@BANICOIG@c?3?2users?2nhv90?2projects?2eech?2ap@
  0003c	a1 00 00 00 00	 mov	 eax, DWORD PTR ?null_entity_pointer_message@@3PBDB ; null_entity_pointer_message
  00041	50		 push	 eax
  00042	e8 00 00 00 00	 call	 ?process_assert@@YGXPBD0H@Z ; process_assert
  00047	c7 45 bc 00 00
	00 00		 mov	 DWORD PTR tv73[ebp], 0
$LN4@destroy_se:
  0004e	8b 4d 08	 mov	 ecx, DWORD PTR _en$[ebp]
  00051	51		 push	 ecx
  00052	8b 15 00 00 00
	00		 mov	 edx, DWORD PTR ?system_comms_model@@3W4COMMS_MODEL_TYPES@@A ; system_comms_model
  00058	c1 e2 02	 shl	 edx, 2
  0005b	8b 45 bc	 mov	 eax, DWORD PTR tv73[ebp]
  0005e	8b 8c c2 00 00
	00 00		 mov	 ecx, DWORD PTR ?fn_destroy_client_server_entity@@3PAY01P6GXPAUENTITY@@@ZA[edx+eax*8]
  00065	ff d1		 call	 ecx

; 280  : }

  00067	5f		 pop	 edi
  00068	5e		 pop	 esi
  00069	5b		 pop	 ebx
  0006a	8b e5		 mov	 esp, ebp
  0006c	5d		 pop	 ebp
  0006d	c2 04 00	 ret	 4
?destroy_server_family@@YGXPAUENTITY@@@Z ENDP		; destroy_server_family
_TEXT	ENDS
; Function compile flags: /Odtp /ZI
; File c:\users\nhv90\projects\eech\aphavoc\source\entity\mobile\vehicle\ship\sh_dstry.c
;	COMDAT ?destroy_local_family@@YGXPAUENTITY@@@Z
_TEXT	SEGMENT
_en$ = 8						; size = 4
?destroy_local_family@@YGXPAUENTITY@@@Z PROC		; destroy_local_family, COMDAT

; 261  : {

  00000	55		 push	 ebp
  00001	8b ec		 mov	 ebp, esp
  00003	83 ec 40	 sub	 esp, 64			; 00000040H
  00006	53		 push	 ebx
  00007	56		 push	 esi
  00008	57		 push	 edi

; 262  : 	destroy_local_entity_children (en, LIST_TYPE_MOVEMENT_DEPENDENT);

  00009	6a 1a		 push	 26			; 0000001aH
  0000b	8b 45 08	 mov	 eax, DWORD PTR _en$[ebp]
  0000e	50		 push	 eax
  0000f	e8 00 00 00 00	 call	 ?destroy_local_entity_children@@YGXPAUENTITY@@W4LIST_TYPES@@@Z ; destroy_local_entity_children

; 263  : 
; 264  : 	destroy_local_sound_effects (en);

  00014	8b 45 08	 mov	 eax, DWORD PTR _en$[ebp]
  00017	50		 push	 eax
  00018	e8 00 00 00 00	 call	 ?destroy_local_sound_effects@@YGXPAUENTITY@@@Z ; destroy_local_sound_effects

; 265  : 
; 266  : 	destroy_local_entity (en);

  0001d	8b 45 08	 mov	 eax, DWORD PTR _en$[ebp]
  00020	50		 push	 eax
  00021	e8 00 00 00 00	 call	 ?destroy_local_entity@@YGXPAUENTITY@@@Z ; destroy_local_entity

; 267  : }

  00026	5f		 pop	 edi
  00027	5e		 pop	 esi
  00028	5b		 pop	 ebx
  00029	8b e5		 mov	 esp, ebp
  0002b	5d		 pop	 ebp
  0002c	c2 04 00	 ret	 4
?destroy_local_family@@YGXPAUENTITY@@@Z ENDP		; destroy_local_family
_TEXT	ENDS
; Function compile flags: /Odtp /ZI
; File c:\users\nhv90\projects\eech\aphavoc\source\entity\mobile\vehicle\ship\sh_dstry.c
;	COMDAT ?destroy_client@@YGXPAUENTITY@@@Z
_TEXT	SEGMENT
_en$ = 8						; size = 4
?destroy_client@@YGXPAUENTITY@@@Z PROC			; destroy_client, COMDAT

; 237  : {

  00000	55		 push	 ebp
  00001	8b ec		 mov	 ebp, esp
  00003	83 ec 40	 sub	 esp, 64			; 00000040H
  00006	53		 push	 ebx
  00007	56		 push	 esi
  00008	57		 push	 edi

; 238  : 	if (get_comms_data_flow () == COMMS_DATA_FLOW_TX)

  00009	83 3d 00 00 00
	00 00		 cmp	 DWORD PTR ?system_comms_data_flow@@3W4COMMS_DATA_FLOW_TYPES@@A, 0 ; system_comms_data_flow
  00010	75 2c		 jne	 SHORT $LN2@destroy_cl

; 239  : 	{
; 240  : 		validate_client_server_remote_fn ();

  00012	e8 00 00 00 00	 call	 ?assert_client_server_remote_fn@@YGHXZ ; assert_client_server_remote_fn
  00017	85 c0		 test	 eax, eax
  00019	75 18		 jne	 SHORT $LN4@destroy_cl
  0001b	a1 00 00 00 00	 mov	 eax, DWORD PTR ?__LINE__Var@?0??destroy_client@@YGXPAUENTITY@@@Z@4JA
  00020	83 c0 03	 add	 eax, 3
  00023	50		 push	 eax
  00024	68 00 00 00 00	 push	 OFFSET ??_C@_0FC@BANICOIG@c?3?2users?2nhv90?2projects?2eech?2ap@
  00029	68 00 00 00 00	 push	 OFFSET ??_C@_0CC@BNNNEGEG@assert_client_server_remote_fn?5@
  0002e	e8 00 00 00 00	 call	 ?process_assert@@YGXPBD0H@Z ; process_assert
$LN4@destroy_cl:

; 241  : 
; 242  : 		destroy_remote (en);

  00033	8b 45 08	 mov	 eax, DWORD PTR _en$[ebp]
  00036	50		 push	 eax
  00037	e8 00 00 00 00	 call	 ?destroy_remote@@YGXPAUENTITY@@@Z ; destroy_remote

; 243  : 	}
; 244  : 	else

  0003c	eb 2a		 jmp	 SHORT $LN1@destroy_cl
$LN2@destroy_cl:

; 245  : 	{
; 246  : 		validate_client_server_local_fn ();

  0003e	e8 00 00 00 00	 call	 ?assert_client_server_local_fn@@YGHXZ ; assert_client_server_local_fn
  00043	85 c0		 test	 eax, eax
  00045	75 18		 jne	 SHORT $LN5@destroy_cl
  00047	a1 00 00 00 00	 mov	 eax, DWORD PTR ?__LINE__Var@?0??destroy_client@@YGXPAUENTITY@@@Z@4JA
  0004c	83 c0 09	 add	 eax, 9
  0004f	50		 push	 eax
  00050	68 00 00 00 00	 push	 OFFSET ??_C@_0FC@BANICOIG@c?3?2users?2nhv90?2projects?2eech?2ap@
  00055	68 00 00 00 00	 push	 OFFSET ??_C@_0CB@CFOCLFOK@assert_client_server_local_fn?5?$CI@
  0005a	e8 00 00 00 00	 call	 ?process_assert@@YGXPBD0H@Z ; process_assert
$LN5@destroy_cl:

; 247  : 
; 248  : 		//
; 249  : 		// destroy local using 'full' function
; 250  : 		//
; 251  : 
; 252  : 		destroy_local_entity (en);

  0005f	8b 45 08	 mov	 eax, DWORD PTR _en$[ebp]
  00062	50		 push	 eax
  00063	e8 00 00 00 00	 call	 ?destroy_local_entity@@YGXPAUENTITY@@@Z ; destroy_local_entity
$LN1@destroy_cl:

; 253  : 	}
; 254  : }

  00068	5f		 pop	 edi
  00069	5e		 pop	 esi
  0006a	5b		 pop	 ebx
  0006b	8b e5		 mov	 esp, ebp
  0006d	5d		 pop	 ebp
  0006e	c2 04 00	 ret	 4
?destroy_client@@YGXPAUENTITY@@@Z ENDP			; destroy_client
_TEXT	ENDS
; Function compile flags: /Odtp /ZI
; File c:\users\nhv90\projects\eech\aphavoc\source\entity\mobile\vehicle\ship\sh_dstry.c
;	COMDAT ?destroy_server@@YGXPAUENTITY@@@Z
_TEXT	SEGMENT
_en$ = 8						; size = 4
?destroy_server@@YGXPAUENTITY@@@Z PROC			; destroy_server, COMDAT

; 214  : {

  00000	55		 push	 ebp
  00001	8b ec		 mov	 ebp, esp
  00003	83 ec 40	 sub	 esp, 64			; 00000040H
  00006	53		 push	 ebx
  00007	56		 push	 esi
  00008	57		 push	 edi

; 215  : 	//
; 216  : 	// destroy remote entity first (keeping local entity valid)
; 217  : 	//
; 218  : 
; 219  : 	validate_client_server_remote_fn ();

  00009	e8 00 00 00 00	 call	 ?assert_client_server_remote_fn@@YGHXZ ; assert_client_server_remote_fn
  0000e	85 c0		 test	 eax, eax
  00010	75 18		 jne	 SHORT $LN2@destroy_se
  00012	a1 00 00 00 00	 mov	 eax, DWORD PTR ?__LINE__Var@?0??destroy_server@@YGXPAUENTITY@@@Z@4JA
  00017	83 c0 05	 add	 eax, 5
  0001a	50		 push	 eax
  0001b	68 00 00 00 00	 push	 OFFSET ??_C@_0FC@BANICOIG@c?3?2users?2nhv90?2projects?2eech?2ap@
  00020	68 00 00 00 00	 push	 OFFSET ??_C@_0CC@BNNNEGEG@assert_client_server_remote_fn?5@
  00025	e8 00 00 00 00	 call	 ?process_assert@@YGXPBD0H@Z ; process_assert
$LN2@destroy_se:

; 220  : 
; 221  : 	destroy_remote (en);

  0002a	8b 45 08	 mov	 eax, DWORD PTR _en$[ebp]
  0002d	50		 push	 eax
  0002e	e8 00 00 00 00	 call	 ?destroy_remote@@YGXPAUENTITY@@@Z ; destroy_remote

; 222  : 
; 223  : 	validate_client_server_local_fn ();

  00033	e8 00 00 00 00	 call	 ?assert_client_server_local_fn@@YGHXZ ; assert_client_server_local_fn
  00038	85 c0		 test	 eax, eax
  0003a	75 18		 jne	 SHORT $LN3@destroy_se
  0003c	a1 00 00 00 00	 mov	 eax, DWORD PTR ?__LINE__Var@?0??destroy_server@@YGXPAUENTITY@@@Z@4JA
  00041	83 c0 09	 add	 eax, 9
  00044	50		 push	 eax
  00045	68 00 00 00 00	 push	 OFFSET ??_C@_0FC@BANICOIG@c?3?2users?2nhv90?2projects?2eech?2ap@
  0004a	68 00 00 00 00	 push	 OFFSET ??_C@_0CB@CFOCLFOK@assert_client_server_local_fn?5?$CI@
  0004f	e8 00 00 00 00	 call	 ?process_assert@@YGXPBD0H@Z ; process_assert
$LN3@destroy_se:

; 224  : 
; 225  : 	//
; 226  : 	// destroy local using 'full' function
; 227  : 	//
; 228  : 
; 229  : 	destroy_local_entity (en);

  00054	8b 45 08	 mov	 eax, DWORD PTR _en$[ebp]
  00057	50		 push	 eax
  00058	e8 00 00 00 00	 call	 ?destroy_local_entity@@YGXPAUENTITY@@@Z ; destroy_local_entity

; 230  : }

  0005d	5f		 pop	 edi
  0005e	5e		 pop	 esi
  0005f	5b		 pop	 ebx
  00060	8b e5		 mov	 esp, ebp
  00062	5d		 pop	 ebp
  00063	c2 04 00	 ret	 4
?destroy_server@@YGXPAUENTITY@@@Z ENDP			; destroy_server
_TEXT	ENDS
; Function compile flags: /Odtp /ZI
; File c:\users\nhv90\projects\eech\aphavoc\source\entity\mobile\vehicle\ship\sh_dstry.c
;	COMDAT ?destroy_remote@@YGXPAUENTITY@@@Z
_TEXT	SEGMENT
_en$ = 8						; size = 4
?destroy_remote@@YGXPAUENTITY@@@Z PROC			; destroy_remote, COMDAT

; 199  : {

  00000	55		 push	 ebp
  00001	8b ec		 mov	 ebp, esp
  00003	83 ec 40	 sub	 esp, 64			; 00000040H
  00006	53		 push	 ebx
  00007	56		 push	 esi
  00008	57		 push	 edi

; 200  : 	#if DEBUG_MODULE >= 2
; 201  : 
; 202  : 	debug_log_entity_args (ENTITY_DEBUG_REMOTE, ENTITY_DEBUG_DESTROY, en);
; 203  : 
; 204  : 	#endif
; 205  : 
; 206  : 	transmit_entity_comms_message (ENTITY_COMMS_DESTROY, en);

  00009	8b 45 08	 mov	 eax, DWORD PTR _en$[ebp]
  0000c	50		 push	 eax
  0000d	6a 12		 push	 18			; 00000012H
  0000f	e8 00 00 00 00	 call	 ?transmit_entity_comms_message@@YAXW4ENTITY_COMMS_MESSAGES@@PAUENTITY@@ZZ ; transmit_entity_comms_message
  00014	83 c4 08	 add	 esp, 8

; 207  : }

  00017	5f		 pop	 edi
  00018	5e		 pop	 esi
  00019	5b		 pop	 ebx
  0001a	8b e5		 mov	 esp, ebp
  0001c	5d		 pop	 ebp
  0001d	c2 04 00	 ret	 4
?destroy_remote@@YGXPAUENTITY@@@Z ENDP			; destroy_remote
_TEXT	ENDS
; Function compile flags: /Odtp /ZI
; File c:\users\nhv90\projects\eech\aphavoc\source\entity\mobile\vehicle\ship\sh_dstry.c
;	COMDAT ?destroy_local@@YGXPAUENTITY@@@Z
_TEXT	SEGMENT
tv79 = -76						; size = 4
tv71 = -72						; size = 4
_raw$ = -4						; size = 4
_en$ = 8						; size = 4
?destroy_local@@YGXPAUENTITY@@@Z PROC			; destroy_local, COMDAT

; 84   : {

  00000	55		 push	 ebp
  00001	8b ec		 mov	 ebp, esp
  00003	83 ec 4c	 sub	 esp, 76			; 0000004cH
  00006	53		 push	 ebx
  00007	56		 push	 esi
  00008	57		 push	 edi

; 85   : 
; 86   : 	ship_vehicle
; 87   : 		*raw;
; 88   : 
; 89   : 	////////////////////////////////////////
; 90   : 	//
; 91   : 	// PRE-AMBLE
; 92   : 	//
; 93   : 	////////////////////////////////////////
; 94   : 
; 95   : 	#if DEBUG_MODULE >= 2
; 96   : 
; 97   : 	debug_log_entity_args (ENTITY_DEBUG_LOCAL, ENTITY_DEBUG_DESTROY, en);
; 98   : 
; 99   : 	#endif
; 100  : 
; 101  : 	raw = (ship_vehicle *) get_local_entity_data (en);

  00009	8b 45 08	 mov	 eax, DWORD PTR _en$[ebp]
  0000c	8b 48 04	 mov	 ecx, DWORD PTR [eax+4]
  0000f	89 4d fc	 mov	 DWORD PTR _raw$[ebp], ecx

; 102  : 
; 103  : 	set_local_entity_int_value (en, INT_TYPE_ALIVE, FALSE);

  00012	83 7d 08 00	 cmp	 DWORD PTR _en$[ebp], 0
  00016	74 0a		 je	 SHORT $LN4@destroy_lo
  00018	8b 45 08	 mov	 eax, DWORD PTR _en$[ebp]
  0001b	8b 08		 mov	 ecx, DWORD PTR [eax]
  0001d	89 4d b8	 mov	 DWORD PTR tv71[ebp], ecx
  00020	eb 21		 jmp	 SHORT $LN5@destroy_lo
$LN4@destroy_lo:
  00022	8b 15 00 00 00
	00		 mov	 edx, DWORD PTR ?__LINE__Var@?0??destroy_local@@YGXPAUENTITY@@@Z@4JA
  00028	83 c2 13	 add	 edx, 19			; 00000013H
  0002b	52		 push	 edx
  0002c	68 00 00 00 00	 push	 OFFSET ??_C@_0FC@BANICOIG@c?3?2users?2nhv90?2projects?2eech?2ap@
  00031	a1 00 00 00 00	 mov	 eax, DWORD PTR ?null_entity_pointer_message@@3PBDB ; null_entity_pointer_message
  00036	50		 push	 eax
  00037	e8 00 00 00 00	 call	 ?process_assert@@YGXPBD0H@Z ; process_assert
  0003c	c7 45 b8 00 00
	00 00		 mov	 DWORD PTR tv71[ebp], 0
$LN5@destroy_lo:
  00043	b9 01 00 00 00	 mov	 ecx, 1
  00048	85 c9		 test	 ecx, ecx
  0004a	74 09		 je	 SHORT $LN6@destroy_lo
  0004c	c7 45 b4 07 00
	00 00		 mov	 DWORD PTR tv79[ebp], 7
  00053	eb 21		 jmp	 SHORT $LN7@destroy_lo
$LN6@destroy_lo:
  00055	8b 15 00 00 00
	00		 mov	 edx, DWORD PTR ?__LINE__Var@?0??destroy_local@@YGXPAUENTITY@@@Z@4JA
  0005b	83 c2 13	 add	 edx, 19			; 00000013H
  0005e	52		 push	 edx
  0005f	68 00 00 00 00	 push	 OFFSET ??_C@_0FC@BANICOIG@c?3?2users?2nhv90?2projects?2eech?2ap@
  00064	a1 00 00 00 00	 mov	 eax, DWORD PTR ?overload_invalid_int_type_message@@3PBDB ; overload_invalid_int_type_message
  00069	50		 push	 eax
  0006a	e8 00 00 00 00	 call	 ?process_assert@@YGXPBD0H@Z ; process_assert
  0006f	c7 45 b4 00 00
	00 00		 mov	 DWORD PTR tv79[ebp], 0
$LN7@destroy_lo:
  00076	6a 00		 push	 0
  00078	6a 07		 push	 7
  0007a	8b 4d 08	 mov	 ecx, DWORD PTR _en$[ebp]
  0007d	51		 push	 ecx
  0007e	69 55 b8 5c 04
	00 00		 imul	 edx, DWORD PTR tv71[ebp], 1116
  00085	8b 45 b4	 mov	 eax, DWORD PTR tv79[ebp]
  00088	8b 8c 82 00 00
	00 00		 mov	 ecx, DWORD PTR ?fn_set_local_entity_int_value@@3PAY0BBH@P6GXPAUENTITY@@W4INT_TYPES@@H@ZA[edx+eax*4]
  0008f	ff d1		 call	 ecx

; 104  : 
; 105  : 	////////////////////////////////////////
; 106  : 	//
; 107  : 	// VALIDATE
; 108  : 	//
; 109  : 	////////////////////////////////////////
; 110  : 
; 111  : 	////////////////////////////////////////
; 112  : 	//
; 113  : 	// DESTROY COMPONENTS
; 114  : 	//
; 115  : 	////////////////////////////////////////
; 116  : 
; 117  : 	destruct_3d_object (raw->vh.inst3d);

  00091	8b 45 fc	 mov	 eax, DWORD PTR _raw$[ebp]
  00094	8b 88 84 00 00
	00		 mov	 ecx, DWORD PTR [eax+132]
  0009a	51		 push	 ecx
  0009b	e8 00 00 00 00	 call	 ?destruct_3d_object@@YGXPAUOBJECT_3D_INSTANCE@@@Z ; destruct_3d_object

; 118  : 
; 119  : 	free_mem (raw->vh.weapon_package_status_array);

  000a0	8b 45 fc	 mov	 eax, DWORD PTR _raw$[ebp]
  000a3	8b 88 18 01 00
	00		 mov	 ecx, DWORD PTR [eax+280]
  000a9	51		 push	 ecx
  000aa	e8 00 00 00 00	 call	 ?free_mem@@YGXPAX@Z	; free_mem

; 120  : 
; 121  : 	if (raw->vh.sound_effect_data)

  000af	8b 45 fc	 mov	 eax, DWORD PTR _raw$[ebp]
  000b2	83 b8 20 01 00
	00 00		 cmp	 DWORD PTR [eax+288], 0
  000b9	74 0f		 je	 SHORT $LN2@destroy_lo

; 122  : 	{
; 123  : 
; 124  : 		destroy_system_sound_effect (raw->vh.sound_effect_data);

  000bb	8b 45 fc	 mov	 eax, DWORD PTR _raw$[ebp]
  000be	8b 88 20 01 00
	00		 mov	 ecx, DWORD PTR [eax+288]
  000c4	51		 push	 ecx
  000c5	e8 00 00 00 00	 call	 ?destroy_system_sound_effect@@YGXPAUSYSTEM_SOUND_EFFECT@@@Z ; destroy_system_sound_effect
$LN2@destroy_lo:

; 125  : 	}
; 126  : 
; 127  : 	////////////////////////////////////////
; 128  : 	//
; 129  : 	// UNLINK FROM SYSTEM
; 130  : 	//
; 131  : 	////////////////////////////////////////
; 132  : 
; 133  : 	//
; 134  : 	// ship_vehicle
; 135  : 	//
; 136  : 
; 137  : 	//
; 138  : 	// vehicle
; 139  : 	//
; 140  : 
; 141  : 	unlink_local_entity_children (en, LIST_TYPE_TASK_DEPENDENT);

  000ca	6a 27		 push	 39			; 00000027H
  000cc	8b 45 08	 mov	 eax, DWORD PTR _en$[ebp]
  000cf	50		 push	 eax
  000d0	e8 00 00 00 00	 call	 ?unlink_local_entity_children@@YGXPAUENTITY@@W4LIST_TYPES@@@Z ; unlink_local_entity_children

; 142  : 
; 143  : 	unlink_local_entity_children (en, LIST_TYPE_LAUNCHED_WEAPON);

  000d5	6a 18		 push	 24			; 00000018H
  000d7	8b 45 08	 mov	 eax, DWORD PTR _en$[ebp]
  000da	50		 push	 eax
  000db	e8 00 00 00 00	 call	 ?unlink_local_entity_children@@YGXPAUENTITY@@W4LIST_TYPES@@@Z ; unlink_local_entity_children

; 144  : 
; 145  : 	unlink_local_entity_children (en, LIST_TYPE_MOVEMENT_DEPENDENT);

  000e0	6a 1a		 push	 26			; 0000001aH
  000e2	8b 45 08	 mov	 eax, DWORD PTR _en$[ebp]
  000e5	50		 push	 eax
  000e6	e8 00 00 00 00	 call	 ?unlink_local_entity_children@@YGXPAUENTITY@@W4LIST_TYPES@@@Z ; unlink_local_entity_children

; 146  : 
; 147  : 	delete_local_entity_from_parents_child_list (en, LIST_TYPE_MOVEMENT_DEPENDENT);

  000eb	6a 1a		 push	 26			; 0000001aH
  000ed	8b 45 08	 mov	 eax, DWORD PTR _en$[ebp]
  000f0	50		 push	 eax
  000f1	e8 00 00 00 00	 call	 ?delete_local_entity_from_parents_child_list@@YGXPAUENTITY@@W4LIST_TYPES@@@Z ; delete_local_entity_from_parents_child_list

; 148  : 
; 149  : 	delete_local_entity_from_parents_child_list (en, LIST_TYPE_FOLLOWER);

  000f6	6a 0d		 push	 13			; 0000000dH
  000f8	8b 45 08	 mov	 eax, DWORD PTR _en$[ebp]
  000fb	50		 push	 eax
  000fc	e8 00 00 00 00	 call	 ?delete_local_entity_from_parents_child_list@@YGXPAUENTITY@@W4LIST_TYPES@@@Z ; delete_local_entity_from_parents_child_list

; 150  : 
; 151  : 	delete_local_entity_from_parents_child_list (en, LIST_TYPE_DESIGNATED_TARGET); // Jabberwock 031107 Designated targets

  00101	6a 0a		 push	 10			; 0000000aH
  00103	8b 45 08	 mov	 eax, DWORD PTR _en$[ebp]
  00106	50		 push	 eax
  00107	e8 00 00 00 00	 call	 ?delete_local_entity_from_parents_child_list@@YGXPAUENTITY@@W4LIST_TYPES@@@Z ; delete_local_entity_from_parents_child_list

; 152  : 
; 153  : 	delete_local_entity_from_parents_child_list (en, LIST_TYPE_GUNSHIP_TARGET);

  0010c	6a 12		 push	 18			; 00000012H
  0010e	8b 45 08	 mov	 eax, DWORD PTR _en$[ebp]
  00111	50		 push	 eax
  00112	e8 00 00 00 00	 call	 ?delete_local_entity_from_parents_child_list@@YGXPAUENTITY@@W4LIST_TYPES@@@Z ; delete_local_entity_from_parents_child_list

; 154  : 
; 155  : 	delete_local_entity_from_parents_child_list (en, LIST_TYPE_MEMBER);

  00117	6a 19		 push	 25			; 00000019H
  00119	8b 45 08	 mov	 eax, DWORD PTR _en$[ebp]
  0011c	50		 push	 eax
  0011d	e8 00 00 00 00	 call	 ?delete_local_entity_from_parents_child_list@@YGXPAUENTITY@@W4LIST_TYPES@@@Z ; delete_local_entity_from_parents_child_list

; 156  : 
; 157  : 	delete_local_entity_from_parents_child_list (en, LIST_TYPE_VIEW);

  00122	6a 2a		 push	 42			; 0000002aH
  00124	8b 45 08	 mov	 eax, DWORD PTR _en$[ebp]
  00127	50		 push	 eax
  00128	e8 00 00 00 00	 call	 ?delete_local_entity_from_parents_child_list@@YGXPAUENTITY@@W4LIST_TYPES@@@Z ; delete_local_entity_from_parents_child_list

; 158  : 
; 159  : 	delete_local_entity_from_parents_child_list (en, LIST_TYPE_TAKEOFF_QUEUE);

  0012d	6a 25		 push	 37			; 00000025H
  0012f	8b 45 08	 mov	 eax, DWORD PTR _en$[ebp]
  00132	50		 push	 eax
  00133	e8 00 00 00 00	 call	 ?delete_local_entity_from_parents_child_list@@YGXPAUENTITY@@W4LIST_TYPES@@@Z ; delete_local_entity_from_parents_child_list

; 160  : 
; 161  : 	//
; 162  : 	// mobile
; 163  : 	//
; 164  : 
; 165  : 	unlink_local_entity_children (en, LIST_TYPE_SPECIAL_EFFECT);

  00138	6a 24		 push	 36			; 00000024H
  0013a	8b 45 08	 mov	 eax, DWORD PTR _en$[ebp]
  0013d	50		 push	 eax
  0013e	e8 00 00 00 00	 call	 ?unlink_local_entity_children@@YGXPAUENTITY@@W4LIST_TYPES@@@Z ; unlink_local_entity_children

; 166  : 
; 167  : 	unlink_local_entity_children (en, LIST_TYPE_TARGET);

  00143	6a 26		 push	 38			; 00000026H
  00145	8b 45 08	 mov	 eax, DWORD PTR _en$[ebp]
  00148	50		 push	 eax
  00149	e8 00 00 00 00	 call	 ?unlink_local_entity_children@@YGXPAUENTITY@@W4LIST_TYPES@@@Z ; unlink_local_entity_children

; 168  : 
; 169  : 	delete_local_entity_from_parents_child_list (en, LIST_TYPE_PADLOCK);

  0014e	6a 1b		 push	 27			; 0000001bH
  00150	8b 45 08	 mov	 eax, DWORD PTR _en$[ebp]
  00153	50		 push	 eax
  00154	e8 00 00 00 00	 call	 ?delete_local_entity_from_parents_child_list@@YGXPAUENTITY@@W4LIST_TYPES@@@Z ; delete_local_entity_from_parents_child_list

; 170  : 
; 171  : 	delete_local_entity_from_parents_child_list (en, LIST_TYPE_SECTOR);

  00159	6a 21		 push	 33			; 00000021H
  0015b	8b 45 08	 mov	 eax, DWORD PTR _en$[ebp]
  0015e	50		 push	 eax
  0015f	e8 00 00 00 00	 call	 ?delete_local_entity_from_parents_child_list@@YGXPAUENTITY@@W4LIST_TYPES@@@Z ; delete_local_entity_from_parents_child_list

; 172  : 
; 173  : 	delete_local_entity_from_parents_child_list (en, LIST_TYPE_TARGET);

  00164	6a 26		 push	 38			; 00000026H
  00166	8b 45 08	 mov	 eax, DWORD PTR _en$[ebp]
  00169	50		 push	 eax
  0016a	e8 00 00 00 00	 call	 ?delete_local_entity_from_parents_child_list@@YGXPAUENTITY@@W4LIST_TYPES@@@Z ; delete_local_entity_from_parents_child_list

; 174  : 
; 175  : 	delete_local_entity_from_parents_child_list (en, LIST_TYPE_UPDATE);

  0016f	6a 29		 push	 41			; 00000029H
  00171	8b 45 08	 mov	 eax, DWORD PTR _en$[ebp]
  00174	50		 push	 eax
  00175	e8 00 00 00 00	 call	 ?delete_local_entity_from_parents_child_list@@YGXPAUENTITY@@W4LIST_TYPES@@@Z ; delete_local_entity_from_parents_child_list

; 176  : 
; 177  : 	#if LANDING_ROUTE_CHECK
; 178  : 
; 179  : 	destroy_debug_entity_landing_route_check (en);

  0017a	8b 45 08	 mov	 eax, DWORD PTR _en$[ebp]
  0017d	50		 push	 eax
  0017e	e8 00 00 00 00	 call	 ?destroy_debug_entity_landing_route_check@@YGXPAUENTITY@@@Z ; destroy_debug_entity_landing_route_check

; 180  : 
; 181  : 	#endif
; 182  : 
; 183  : 	////////////////////////////////////////
; 184  : 	//
; 185  : 	// FREE ENTITY DATA
; 186  : 	//
; 187  : 	////////////////////////////////////////
; 188  : 
; 189  : 	free_mem (raw);

  00183	8b 45 fc	 mov	 eax, DWORD PTR _raw$[ebp]
  00186	50		 push	 eax
  00187	e8 00 00 00 00	 call	 ?free_mem@@YGXPAX@Z	; free_mem

; 190  : 
; 191  : 	set_free_entity (en);

  0018c	8b 45 08	 mov	 eax, DWORD PTR _en$[ebp]
  0018f	50		 push	 eax
  00190	e8 00 00 00 00	 call	 ?set_free_entity@@YGXPAUENTITY@@@Z ; set_free_entity

; 192  : }

  00195	5f		 pop	 edi
  00196	5e		 pop	 esi
  00197	5b		 pop	 ebx
  00198	8b e5		 mov	 esp, ebp
  0019a	5d		 pop	 ebp
  0019b	c2 04 00	 ret	 4
?destroy_local@@YGXPAUENTITY@@@Z ENDP			; destroy_local
_TEXT	ENDS
; Function compile flags: /Odtp /ZI
; File c:\users\nhv90\projects\eech\aphavoc\source\entity\mobile\vehicle\ship\sh_dstry.c
;	COMDAT ?overload_ship_vehicle_destroy_functions@@YGXXZ
_TEXT	SEGMENT
?overload_ship_vehicle_destroy_functions@@YGXXZ PROC	; overload_ship_vehicle_destroy_functions, COMDAT

; 626  : {

  00000	55		 push	 ebp
  00001	8b ec		 mov	 ebp, esp
  00003	83 ec 40	 sub	 esp, 64			; 00000040H
  00006	53		 push	 ebx
  00007	56		 push	 esi
  00008	57		 push	 edi

; 627  : 	fn_destroy_local_entity						[ENTITY_TYPE_SHIP_VEHICLE]								= destroy_local;

  00009	b8 04 00 00 00	 mov	 eax, 4
  0000e	6b c8 1c	 imul	 ecx, eax, 28
  00011	c7 81 00 00 00
	00 00 00 00 00	 mov	 DWORD PTR ?fn_destroy_local_entity@@3PAP6GXPAUENTITY@@@ZA[ecx], OFFSET ?destroy_local@@YGXPAUENTITY@@@Z ; destroy_local

; 628  : 	fn_destroy_client_server_entity			[ENTITY_TYPE_SHIP_VEHICLE][COMMS_MODEL_SERVER]	= destroy_server;

  0001b	b8 08 00 00 00	 mov	 eax, 8
  00020	6b c8 1c	 imul	 ecx, eax, 28
  00023	ba 04 00 00 00	 mov	 edx, 4
  00028	6b c2 00	 imul	 eax, edx, 0
  0002b	c7 84 01 00 00
	00 00 00 00 00
	00		 mov	 DWORD PTR ?fn_destroy_client_server_entity@@3PAY01P6GXPAUENTITY@@@ZA[ecx+eax], OFFSET ?destroy_server@@YGXPAUENTITY@@@Z ; destroy_server

; 629  : 	fn_destroy_client_server_entity			[ENTITY_TYPE_SHIP_VEHICLE][COMMS_MODEL_CLIENT]	= destroy_client;

  00036	b8 08 00 00 00	 mov	 eax, 8
  0003b	6b c8 1c	 imul	 ecx, eax, 28
  0003e	ba 04 00 00 00	 mov	 edx, 4
  00043	c1 e2 00	 shl	 edx, 0
  00046	c7 84 11 00 00
	00 00 00 00 00
	00		 mov	 DWORD PTR ?fn_destroy_client_server_entity@@3PAY01P6GXPAUENTITY@@@ZA[ecx+edx], OFFSET ?destroy_client@@YGXPAUENTITY@@@Z ; destroy_client

; 630  : 
; 631  : 	fn_destroy_local_entity_family			[ENTITY_TYPE_SHIP_VEHICLE]								= destroy_local_family;

  00051	b8 04 00 00 00	 mov	 eax, 4
  00056	6b c8 1c	 imul	 ecx, eax, 28
  00059	c7 81 00 00 00
	00 00 00 00 00	 mov	 DWORD PTR ?fn_destroy_local_entity_family@@3PAP6GXPAUENTITY@@@ZA[ecx], OFFSET ?destroy_local_family@@YGXPAUENTITY@@@Z ; destroy_local_family

; 632  : 	fn_destroy_client_server_entity_family	[ENTITY_TYPE_SHIP_VEHICLE][COMMS_MODEL_SERVER]	= destroy_server_family;

  00063	b8 08 00 00 00	 mov	 eax, 8
  00068	6b c8 1c	 imul	 ecx, eax, 28
  0006b	ba 04 00 00 00	 mov	 edx, 4
  00070	6b c2 00	 imul	 eax, edx, 0
  00073	c7 84 01 00 00
	00 00 00 00 00
	00		 mov	 DWORD PTR ?fn_destroy_client_server_entity_family@@3PAY01P6GXPAUENTITY@@@ZA[ecx+eax], OFFSET ?destroy_server_family@@YGXPAUENTITY@@@Z ; destroy_server_family

; 633  : 	fn_destroy_client_server_entity_family	[ENTITY_TYPE_SHIP_VEHICLE][COMMS_MODEL_CLIENT]	= destroy_client_family;

  0007e	b8 08 00 00 00	 mov	 eax, 8
  00083	6b c8 1c	 imul	 ecx, eax, 28
  00086	ba 04 00 00 00	 mov	 edx, 4
  0008b	c1 e2 00	 shl	 edx, 0
  0008e	c7 84 11 00 00
	00 00 00 00 00
	00		 mov	 DWORD PTR ?fn_destroy_client_server_entity_family@@3PAY01P6GXPAUENTITY@@@ZA[ecx+edx], OFFSET ?destroy_client_family@@YGXPAUENTITY@@@Z ; destroy_client_family

; 634  : 
; 635  : 	fn_kill_local_entity							[ENTITY_TYPE_SHIP_VEHICLE]								= kill_local;

  00099	b8 04 00 00 00	 mov	 eax, 4
  0009e	6b c8 1c	 imul	 ecx, eax, 28
  000a1	c7 81 00 00 00
	00 00 00 00 00	 mov	 DWORD PTR ?fn_kill_local_entity@@3PAP6GXPAUENTITY@@@ZA[ecx], OFFSET ?kill_local@@YGXPAUENTITY@@@Z ; kill_local

; 636  : 	fn_kill_client_server_entity				[ENTITY_TYPE_SHIP_VEHICLE][COMMS_MODEL_SERVER]	= kill_server;

  000ab	b8 08 00 00 00	 mov	 eax, 8
  000b0	6b c8 1c	 imul	 ecx, eax, 28
  000b3	ba 04 00 00 00	 mov	 edx, 4
  000b8	6b c2 00	 imul	 eax, edx, 0
  000bb	c7 84 01 00 00
	00 00 00 00 00
	00		 mov	 DWORD PTR ?fn_kill_client_server_entity@@3PAY01P6GXPAUENTITY@@@ZA[ecx+eax], OFFSET ?kill_server@@YGXPAUENTITY@@@Z ; kill_server

; 637  : 	fn_kill_client_server_entity				[ENTITY_TYPE_SHIP_VEHICLE][COMMS_MODEL_CLIENT]	= kill_client;

  000c6	b8 08 00 00 00	 mov	 eax, 8
  000cb	6b c8 1c	 imul	 ecx, eax, 28
  000ce	ba 04 00 00 00	 mov	 edx, 4
  000d3	c1 e2 00	 shl	 edx, 0
  000d6	c7 84 11 00 00
	00 00 00 00 00
	00		 mov	 DWORD PTR ?fn_kill_client_server_entity@@3PAY01P6GXPAUENTITY@@@ZA[ecx+edx], OFFSET ?kill_client@@YGXPAUENTITY@@@Z ; kill_client

; 638  : }

  000e1	5f		 pop	 edi
  000e2	5e		 pop	 esi
  000e3	5b		 pop	 ebx
  000e4	8b e5		 mov	 esp, ebp
  000e6	5d		 pop	 ebp
  000e7	c3		 ret	 0
?overload_ship_vehicle_destroy_functions@@YGXXZ ENDP	; overload_ship_vehicle_destroy_functions
_TEXT	ENDS
END
