; Listing generated by Microsoft (R) Optimizing Compiler Version 19.16.27045.0 

	TITLE	C:\Users\nhv90\Projects\eech\aphavoc\source\entity\mobile\vehicle\ship\sh_float.c
	.686P
	.XMM
	include listing.inc
	.model	flat

INCLUDELIB MSVCRTD
INCLUDELIB OLDNAMES

PUBLIC	?overload_ship_vehicle_float_value_functions@@YGXXZ ; overload_ship_vehicle_float_value_functions
PUBLIC	??$max@M@std@@YGABMABM0@Z			; std::max<float>
PUBLIC	??$max@N@std@@YGABNABN0@Z			; std::max<double>
PUBLIC	??_C@_02DKCKIIND@?$CFs@				; `string'
PUBLIC	?__LINE__Var@?0??get_local_float_value@@YGMPAUENTITY@@W4FLOAT_TYPES@@@Z@4JA ; `get_local_float_value'::`1'::__LINE__Var
PUBLIC	??_C@_0FC@HPFAACAL@c?3?2users?2nhv90?2projects?2eech?2ap@ ; `string'
PUBLIC	??_C@_0BD@FEEMDEPI@invalid?5comparator@		; `string'
PUBLIC	??_C@_0GK@JMBMHIBC@c?3?2program?5files?5?$CIx86?$CJ?2microsof@ ; `string'
PUBLIC	??_C@_1NE@FKBPBJEB@?$AAc?$AA?3?$AA?2?$AAp?$AAr?$AAo?$AAg?$AAr?$AAa?$AAm?$AA?5?$AAf?$AAi?$AAl?$AAe@ ; `string'
PUBLIC	??_C@_1BC@ICCOKLEG@?$AAs?$AAt?$AAd?$AA?3?$AA?3?$AAm?$AAa?$AAx@ ; `string'
PUBLIC	??_C@_1CK@NDNHPKPI@?$AA?$CC?$AAi?$AAn?$AAv?$AAa?$AAl?$AAi?$AAd?$AA?5?$AAc?$AAo?$AAm?$AAp?$AAa?$AAr@ ; `string'
PUBLIC	__real@4000000000000000
PUBLIC	__real@4049000000000000
EXTRN	__imp___invalid_parameter:PROC
EXTRN	__imp___CrtDbgReport:PROC
EXTRN	?process_assert@@YGXPBD0H@Z:PROC		; process_assert
EXTRN	?debug_fatal@@YAXPBDZZ:PROC			; debug_fatal
EXTRN	?get_object_3d_bounding_box_without_lines@@YGPAUOBJECT_3D_BOUNDS@@H@Z:PROC ; get_object_3d_bounding_box_without_lines
EXTRN	?null_entity_pointer_message@@3PBDB:DWORD	; null_entity_pointer_message
EXTRN	?entity_type_database@@3PAUENTITY_TYPE_DATA@@A:BYTE ; entity_type_database
EXTRN	?float_type_database@@3PAUFLOAT_TYPE_DATA@@A:BYTE ; float_type_database
EXTRN	?debug_fatal_invalid_float_type_message@@3PBDB:DWORD ; debug_fatal_invalid_float_type_message
EXTRN	?fn_get_local_entity_float_value@@3PAY0KP@P6GMPAUENTITY@@W4FLOAT_TYPES@@@ZA:BYTE ; fn_get_local_entity_float_value
EXTRN	?entities@@3PAUENTITY@@A:DWORD			; entities
EXTRN	__fltused:DWORD
;	COMDAT __real@4049000000000000
CONST	SEGMENT
__real@4049000000000000 DQ 04049000000000000r	; 50
CONST	ENDS
;	COMDAT __real@4000000000000000
CONST	SEGMENT
__real@4000000000000000 DQ 04000000000000000r	; 2
CONST	ENDS
;	COMDAT ??_C@_1CK@NDNHPKPI@?$AA?$CC?$AAi?$AAn?$AAv?$AAa?$AAl?$AAi?$AAd?$AA?5?$AAc?$AAo?$AAm?$AAp?$AAa?$AAr@
CONST	SEGMENT
??_C@_1CK@NDNHPKPI@?$AA?$CC?$AAi?$AAn?$AAv?$AAa?$AAl?$AAi?$AAd?$AA?5?$AAc?$AAo?$AAm?$AAp?$AAa?$AAr@ DB '"'
	DB	00H, 'i', 00H, 'n', 00H, 'v', 00H, 'a', 00H, 'l', 00H, 'i', 00H
	DB	'd', 00H, ' ', 00H, 'c', 00H, 'o', 00H, 'm', 00H, 'p', 00H, 'a'
	DB	00H, 'r', 00H, 'a', 00H, 't', 00H, 'o', 00H, 'r', 00H, '"', 00H
	DB	00H, 00H					; `string'
CONST	ENDS
;	COMDAT ??_C@_1BC@ICCOKLEG@?$AAs?$AAt?$AAd?$AA?3?$AA?3?$AAm?$AAa?$AAx@
CONST	SEGMENT
??_C@_1BC@ICCOKLEG@?$AAs?$AAt?$AAd?$AA?3?$AA?3?$AAm?$AAa?$AAx@ DB 's', 00H
	DB	't', 00H, 'd', 00H, ':', 00H, ':', 00H, 'm', 00H, 'a', 00H, 'x'
	DB	00H, 00H, 00H				; `string'
CONST	ENDS
;	COMDAT ??_C@_1NE@FKBPBJEB@?$AAc?$AA?3?$AA?2?$AAp?$AAr?$AAo?$AAg?$AAr?$AAa?$AAm?$AA?5?$AAf?$AAi?$AAl?$AAe@
CONST	SEGMENT
??_C@_1NE@FKBPBJEB@?$AAc?$AA?3?$AA?2?$AAp?$AAr?$AAo?$AAg?$AAr?$AAa?$AAm?$AA?5?$AAf?$AAi?$AAl?$AAe@ DB 'c'
	DB	00H, ':', 00H, '\', 00H, 'p', 00H, 'r', 00H, 'o', 00H, 'g', 00H
	DB	'r', 00H, 'a', 00H, 'm', 00H, ' ', 00H, 'f', 00H, 'i', 00H, 'l'
	DB	00H, 'e', 00H, 's', 00H, ' ', 00H, '(', 00H, 'x', 00H, '8', 00H
	DB	'6', 00H, ')', 00H, '\', 00H, 'm', 00H, 'i', 00H, 'c', 00H, 'r'
	DB	00H, 'o', 00H, 's', 00H, 'o', 00H, 'f', 00H, 't', 00H, ' ', 00H
	DB	'v', 00H, 'i', 00H, 's', 00H, 'u', 00H, 'a', 00H, 'l', 00H, ' '
	DB	00H, 's', 00H, 't', 00H, 'u', 00H, 'd', 00H, 'i', 00H, 'o', 00H
	DB	'\', 00H, '2', 00H, '0', 00H, '1', 00H, '7', 00H, '\', 00H, 'c'
	DB	00H, 'o', 00H, 'm', 00H, 'm', 00H, 'u', 00H, 'n', 00H, 'i', 00H
	DB	't', 00H, 'y', 00H, '\', 00H, 'v', 00H, 'c', 00H, '\', 00H, 't'
	DB	00H, 'o', 00H, 'o', 00H, 'l', 00H, 's', 00H, '\', 00H, 'm', 00H
	DB	's', 00H, 'v', 00H, 'c', 00H, '\', 00H, '1', 00H, '4', 00H, '.'
	DB	00H, '1', 00H, '6', 00H, '.', 00H, '2', 00H, '7', 00H, '0', 00H
	DB	'2', 00H, '3', 00H, '\', 00H, 'i', 00H, 'n', 00H, 'c', 00H, 'l'
	DB	00H, 'u', 00H, 'd', 00H, 'e', 00H, '\', 00H, 'a', 00H, 'l', 00H
	DB	'g', 00H, 'o', 00H, 'r', 00H, 'i', 00H, 't', 00H, 'h', 00H, 'm'
	DB	00H, 00H, 00H				; `string'
CONST	ENDS
;	COMDAT ??_C@_0GK@JMBMHIBC@c?3?2program?5files?5?$CIx86?$CJ?2microsof@
CONST	SEGMENT
??_C@_0GK@JMBMHIBC@c?3?2program?5files?5?$CIx86?$CJ?2microsof@ DB 'c:\pro'
	DB	'gram files (x86)\microsoft visual studio\2017\community\vc\to'
	DB	'ols\msvc\14.16.27023\include\algorithm', 00H ; `string'
CONST	ENDS
;	COMDAT ??_C@_0BD@FEEMDEPI@invalid?5comparator@
CONST	SEGMENT
??_C@_0BD@FEEMDEPI@invalid?5comparator@ DB 'invalid comparator', 00H ; `string'
CONST	ENDS
;	COMDAT ??_C@_0FC@HPFAACAL@c?3?2users?2nhv90?2projects?2eech?2ap@
CONST	SEGMENT
??_C@_0FC@HPFAACAL@c?3?2users?2nhv90?2projects?2eech?2ap@ DB 'c:\users\nh'
	DB	'v90\projects\eech\aphavoc\source\entity\mobile\vehicle\ship\s'
	DB	'h_float.c', 00H				; `string'
CONST	ENDS
;	COMDAT ?__LINE__Var@?0??get_local_float_value@@YGMPAUENTITY@@W4FLOAT_TYPES@@@Z@4JA
_DATA	SEGMENT
?__LINE__Var@?0??get_local_float_value@@YGMPAUENTITY@@W4FLOAT_TYPES@@@Z@4JA DD 0a0H ; `get_local_float_value'::`1'::__LINE__Var
_DATA	ENDS
;	COMDAT ??_C@_02DKCKIIND@?$CFs@
CONST	SEGMENT
??_C@_02DKCKIIND@?$CFs@ DB '%s', 00H			; `string'
CONST	ENDS
; Function compile flags: /Odtp /ZI
; File c:\program files (x86)\microsoft visual studio\2017\community\vc\tools\msvc\14.16.27023\include\algorithm
;	COMDAT ??$max@N@std@@YGABNABN0@Z
_TEXT	SEGMENT
__Left$ = 8						; size = 4
__Right$ = 12						; size = 4
??$max@N@std@@YGABNABN0@Z PROC				; std::max<double>, COMDAT

; 5387 : 	{	// return larger of _Left and _Right

  00000	55		 push	 ebp
  00001	8b ec		 mov	 ebp, esp
  00003	83 ec 40	 sub	 esp, 64			; 00000040H
  00006	53		 push	 ebx
  00007	56		 push	 esi
  00008	57		 push	 edi

; 5388 : 	if (_Left < _Right)

  00009	8b 45 0c	 mov	 eax, DWORD PTR __Right$[ebp]
  0000c	8b 4d 08	 mov	 ecx, DWORD PTR __Left$[ebp]
  0000f	f2 0f 10 00	 movsd	 xmm0, QWORD PTR [eax]
  00013	66 0f 2f 01	 comisd	 xmm0, QWORD PTR [ecx]
  00017	76 65		 jbe	 SHORT $LN8@max
$LN4@max:

; 5389 : 		{
; 5390 : 		_STL_ASSERT(!(_Right < _Left), "invalid comparator");

  00019	8b 45 08	 mov	 eax, DWORD PTR __Left$[ebp]
  0001c	8b 4d 0c	 mov	 ecx, DWORD PTR __Right$[ebp]
  0001f	f2 0f 10 00	 movsd	 xmm0, QWORD PTR [eax]
  00023	66 0f 2f 01	 comisd	 xmm0, QWORD PTR [ecx]
  00027	77 02		 ja	 SHORT $LN9@max
  00029	eb 4a		 jmp	 SHORT $LN6@max
$LN9@max:
  0002b	68 00 00 00 00	 push	 OFFSET ??_C@_0BD@FEEMDEPI@invalid?5comparator@
  00030	68 00 00 00 00	 push	 OFFSET ??_C@_02DKCKIIND@?$CFs@
  00035	6a 00		 push	 0
  00037	68 0e 15 00 00	 push	 5390			; 0000150eH
  0003c	68 00 00 00 00	 push	 OFFSET ??_C@_0GK@JMBMHIBC@c?3?2program?5files?5?$CIx86?$CJ?2microsof@
  00041	6a 02		 push	 2
  00043	ff 15 00 00 00
	00		 call	 DWORD PTR __imp___CrtDbgReport
  00049	83 c4 18	 add	 esp, 24			; 00000018H
  0004c	83 f8 01	 cmp	 eax, 1
  0004f	75 01		 jne	 SHORT $LN12@max
  00051	cc		 int	 3
$LN12@max:
  00052	6a 00		 push	 0
  00054	68 0e 15 00 00	 push	 5390			; 0000150eH
  00059	68 00 00 00 00	 push	 OFFSET ??_C@_1NE@FKBPBJEB@?$AAc?$AA?3?$AA?2?$AAp?$AAr?$AAo?$AAg?$AAr?$AAa?$AAm?$AA?5?$AAf?$AAi?$AAl?$AAe@
  0005e	68 00 00 00 00	 push	 OFFSET ??_C@_1BC@ICCOKLEG@?$AAs?$AAt?$AAd?$AA?3?$AA?3?$AAm?$AAa?$AAx@
  00063	68 00 00 00 00	 push	 OFFSET ??_C@_1CK@NDNHPKPI@?$AA?$CC?$AAi?$AAn?$AAv?$AAa?$AAl?$AAi?$AAd?$AA?5?$AAc?$AAo?$AAm?$AAp?$AAa?$AAr@
  00068	ff 15 00 00 00
	00		 call	 DWORD PTR __imp___invalid_parameter
  0006e	83 c4 14	 add	 esp, 20			; 00000014H
  00071	33 c0		 xor	 eax, eax
  00073	75 b6		 jne	 SHORT $LN9@max
$LN6@max:
  00075	33 c0		 xor	 eax, eax
  00077	75 a0		 jne	 SHORT $LN4@max

; 5391 : 		return (_Right);

  00079	8b 45 0c	 mov	 eax, DWORD PTR __Right$[ebp]
  0007c	eb 03		 jmp	 SHORT $LN1@max
$LN8@max:

; 5392 : 		}
; 5393 : 
; 5394 : 	return (_Left);

  0007e	8b 45 08	 mov	 eax, DWORD PTR __Left$[ebp]
$LN1@max:

; 5395 : 	}

  00081	5f		 pop	 edi
  00082	5e		 pop	 esi
  00083	5b		 pop	 ebx
  00084	8b e5		 mov	 esp, ebp
  00086	5d		 pop	 ebp
  00087	c2 08 00	 ret	 8
??$max@N@std@@YGABNABN0@Z ENDP				; std::max<double>
_TEXT	ENDS
; Function compile flags: /Odtp /ZI
; File c:\program files (x86)\microsoft visual studio\2017\community\vc\tools\msvc\14.16.27023\include\algorithm
;	COMDAT ??$max@M@std@@YGABMABM0@Z
_TEXT	SEGMENT
__Left$ = 8						; size = 4
__Right$ = 12						; size = 4
??$max@M@std@@YGABMABM0@Z PROC				; std::max<float>, COMDAT

; 5387 : 	{	// return larger of _Left and _Right

  00000	55		 push	 ebp
  00001	8b ec		 mov	 ebp, esp
  00003	83 ec 40	 sub	 esp, 64			; 00000040H
  00006	53		 push	 ebx
  00007	56		 push	 esi
  00008	57		 push	 edi

; 5388 : 	if (_Left < _Right)

  00009	8b 45 0c	 mov	 eax, DWORD PTR __Right$[ebp]
  0000c	8b 4d 08	 mov	 ecx, DWORD PTR __Left$[ebp]
  0000f	f3 0f 10 00	 movss	 xmm0, DWORD PTR [eax]
  00013	0f 2f 01	 comiss	 xmm0, DWORD PTR [ecx]
  00016	76 64		 jbe	 SHORT $LN8@max
$LN4@max:

; 5389 : 		{
; 5390 : 		_STL_ASSERT(!(_Right < _Left), "invalid comparator");

  00018	8b 45 08	 mov	 eax, DWORD PTR __Left$[ebp]
  0001b	8b 4d 0c	 mov	 ecx, DWORD PTR __Right$[ebp]
  0001e	f3 0f 10 00	 movss	 xmm0, DWORD PTR [eax]
  00022	0f 2f 01	 comiss	 xmm0, DWORD PTR [ecx]
  00025	77 02		 ja	 SHORT $LN9@max
  00027	eb 4a		 jmp	 SHORT $LN6@max
$LN9@max:
  00029	68 00 00 00 00	 push	 OFFSET ??_C@_0BD@FEEMDEPI@invalid?5comparator@
  0002e	68 00 00 00 00	 push	 OFFSET ??_C@_02DKCKIIND@?$CFs@
  00033	6a 00		 push	 0
  00035	68 0e 15 00 00	 push	 5390			; 0000150eH
  0003a	68 00 00 00 00	 push	 OFFSET ??_C@_0GK@JMBMHIBC@c?3?2program?5files?5?$CIx86?$CJ?2microsof@
  0003f	6a 02		 push	 2
  00041	ff 15 00 00 00
	00		 call	 DWORD PTR __imp___CrtDbgReport
  00047	83 c4 18	 add	 esp, 24			; 00000018H
  0004a	83 f8 01	 cmp	 eax, 1
  0004d	75 01		 jne	 SHORT $LN12@max
  0004f	cc		 int	 3
$LN12@max:
  00050	6a 00		 push	 0
  00052	68 0e 15 00 00	 push	 5390			; 0000150eH
  00057	68 00 00 00 00	 push	 OFFSET ??_C@_1NE@FKBPBJEB@?$AAc?$AA?3?$AA?2?$AAp?$AAr?$AAo?$AAg?$AAr?$AAa?$AAm?$AA?5?$AAf?$AAi?$AAl?$AAe@
  0005c	68 00 00 00 00	 push	 OFFSET ??_C@_1BC@ICCOKLEG@?$AAs?$AAt?$AAd?$AA?3?$AA?3?$AAm?$AAa?$AAx@
  00061	68 00 00 00 00	 push	 OFFSET ??_C@_1CK@NDNHPKPI@?$AA?$CC?$AAi?$AAn?$AAv?$AAa?$AAl?$AAi?$AAd?$AA?5?$AAc?$AAo?$AAm?$AAp?$AAa?$AAr@
  00066	ff 15 00 00 00
	00		 call	 DWORD PTR __imp___invalid_parameter
  0006c	83 c4 14	 add	 esp, 20			; 00000014H
  0006f	33 c0		 xor	 eax, eax
  00071	75 b6		 jne	 SHORT $LN9@max
$LN6@max:
  00073	33 c0		 xor	 eax, eax
  00075	75 a1		 jne	 SHORT $LN4@max

; 5391 : 		return (_Right);

  00077	8b 45 0c	 mov	 eax, DWORD PTR __Right$[ebp]
  0007a	eb 03		 jmp	 SHORT $LN1@max
$LN8@max:

; 5392 : 		}
; 5393 : 
; 5394 : 	return (_Left);

  0007c	8b 45 08	 mov	 eax, DWORD PTR __Left$[ebp]
$LN1@max:

; 5395 : 	}

  0007f	5f		 pop	 edi
  00080	5e		 pop	 esi
  00081	5b		 pop	 ebx
  00082	8b e5		 mov	 esp, ebp
  00084	5d		 pop	 ebp
  00085	c2 08 00	 ret	 8
??$max@M@std@@YGABMABM0@Z ENDP				; std::max<float>
_TEXT	ENDS
; Function compile flags: /Odtp /ZI
; File c:\users\nhv90\projects\eech\aphavoc\source\entity\mobile\vehicle\ship\sh_float.c
;	COMDAT ?get_local_float_value@@YGMPAUENTITY@@W4FLOAT_TYPES@@@Z
_TEXT	SEGMENT
tv135 = -104						; size = 4
tv65 = -104						; size = 4
$T1 = -100						; size = 8
$T2 = -92						; size = 8
_bounding_box$3 = -20					; size = 4
_bounding_box$4 = -16					; size = 4
_length$5 = -12						; size = 4
_value$ = -8						; size = 4
_raw$ = -4						; size = 4
_en$ = 8						; size = 4
_type$ = 12						; size = 4
?get_local_float_value@@YGMPAUENTITY@@W4FLOAT_TYPES@@@Z PROC ; get_local_float_value, COMDAT

; 160  : {

  00000	55		 push	 ebp
  00001	8b ec		 mov	 ebp, esp
  00003	83 ec 68	 sub	 esp, 104		; 00000068H
  00006	53		 push	 ebx
  00007	56		 push	 esi
  00008	57		 push	 edi

; 161  : 	ship_vehicle
; 162  : 		*raw;
; 163  : 
; 164  : 	float
; 165  : 		value;
; 166  : 
; 167  : 	raw = (ship_vehicle *) get_local_entity_data (en);

  00009	8b 45 08	 mov	 eax, DWORD PTR _en$[ebp]
  0000c	8b 48 04	 mov	 ecx, DWORD PTR [eax+4]
  0000f	89 4d fc	 mov	 DWORD PTR _raw$[ebp], ecx

; 168  : 
; 169  : 	switch (type)

  00012	8b 45 0c	 mov	 eax, DWORD PTR _type$[ebp]
  00015	89 45 98	 mov	 DWORD PTR tv65[ebp], eax
  00018	83 7d 98 0f	 cmp	 DWORD PTR tv65[ebp], 15	; 0000000fH
  0001c	74 0b		 je	 SHORT $LN4@get_local_
  0001e	83 7d 98 28	 cmp	 DWORD PTR tv65[ebp], 40	; 00000028H
  00022	74 6d		 je	 SHORT $LN5@get_local_
  00024	e9 89 00 00 00	 jmp	 $LN6@get_local_
$LN4@get_local_:

; 170  : 	{
; 171  : 		////////////////////////////////////////
; 172  : 		case FLOAT_TYPE_AVOIDANCE_RADIUS:
; 173  : 		////////////////////////////////////////
; 174  : 		{
; 175  : 
; 176  : 			float
; 177  : 				length;
; 178  : 
; 179  : 			object_3d_bounds
; 180  : 				*bounding_box;
; 181  : 
; 182  : 			bounding_box = get_object_3d_bounding_box_without_lines (raw->vh.object_3d_shape);

  00029	8b 45 fc	 mov	 eax, DWORD PTR _raw$[ebp]
  0002c	8b 88 80 00 00
	00		 mov	 ecx, DWORD PTR [eax+128]
  00032	51		 push	 ecx
  00033	e8 00 00 00 00	 call	 ?get_object_3d_bounding_box_without_lines@@YGPAUOBJECT_3D_BOUNDS@@H@Z ; get_object_3d_bounding_box_without_lines
  00038	89 45 f0	 mov	 DWORD PTR _bounding_box$4[ebp], eax

; 183  : 
; 184  : 			length = max (bounding_box->zmax, bounding_box->xmax);

  0003b	8b 45 f0	 mov	 eax, DWORD PTR _bounding_box$4[ebp]
  0003e	83 c0 04	 add	 eax, 4
  00041	50		 push	 eax
  00042	8b 4d f0	 mov	 ecx, DWORD PTR _bounding_box$4[ebp]
  00045	83 c1 14	 add	 ecx, 20			; 00000014H
  00048	51		 push	 ecx
  00049	e8 00 00 00 00	 call	 ??$max@M@std@@YGABMABM0@Z ; std::max<float>
  0004e	f3 0f 10 00	 movss	 xmm0, DWORD PTR [eax]
  00052	f3 0f 11 45 f4	 movss	 DWORD PTR _length$5[ebp], xmm0

; 185  : 
; 186  : 			value = max (50.0, (2.0 * length));

  00057	f3 0f 5a 45 f4	 cvtss2sd xmm0, DWORD PTR _length$5[ebp]
  0005c	f2 0f 59 05 00
	00 00 00	 mulsd	 xmm0, QWORD PTR __real@4000000000000000
  00064	f2 0f 11 45 a4	 movsd	 QWORD PTR $T2[ebp], xmm0
  00069	f2 0f 10 05 00
	00 00 00	 movsd	 xmm0, QWORD PTR __real@4049000000000000
  00071	f2 0f 11 45 9c	 movsd	 QWORD PTR $T1[ebp], xmm0
  00076	8d 45 a4	 lea	 eax, DWORD PTR $T2[ebp]
  00079	50		 push	 eax
  0007a	8d 4d 9c	 lea	 ecx, DWORD PTR $T1[ebp]
  0007d	51		 push	 ecx
  0007e	e8 00 00 00 00	 call	 ??$max@N@std@@YGABNABN0@Z ; std::max<double>
  00083	f2 0f 5a 00	 cvtsd2ss xmm0, QWORD PTR [eax]
  00087	f3 0f 11 45 f8	 movss	 DWORD PTR _value$[ebp], xmm0

; 187  : 
; 188  : 			break;

  0008c	e9 93 00 00 00	 jmp	 $LN2@get_local_
$LN5@get_local_:

; 189  : 		}
; 190  : 		////////////////////////////////////////
; 191  : 		case FLOAT_TYPE_FIXED_STRUCTURE_HEIGHT:
; 192  : 		////////////////////////////////////////
; 193  : 		{
; 194  : 			object_3d_bounds
; 195  : 				*bounding_box;
; 196  : 
; 197  : 			bounding_box = get_object_3d_bounding_box_without_lines (raw->vh.object_3d_shape);

  00091	8b 45 fc	 mov	 eax, DWORD PTR _raw$[ebp]
  00094	8b 88 80 00 00
	00		 mov	 ecx, DWORD PTR [eax+128]
  0009a	51		 push	 ecx
  0009b	e8 00 00 00 00	 call	 ?get_object_3d_bounding_box_without_lines@@YGPAUOBJECT_3D_BOUNDS@@H@Z ; get_object_3d_bounding_box_without_lines
  000a0	89 45 ec	 mov	 DWORD PTR _bounding_box$3[ebp], eax

; 198  : 
; 199  : 			value = bounding_box->ymax;

  000a3	8b 45 ec	 mov	 eax, DWORD PTR _bounding_box$3[ebp]
  000a6	f3 0f 10 40 0c	 movss	 xmm0, DWORD PTR [eax+12]
  000ab	f3 0f 11 45 f8	 movss	 DWORD PTR _value$[ebp], xmm0

; 200  : 
; 201  : 			break;

  000b0	eb 72		 jmp	 SHORT $LN2@get_local_
$LN6@get_local_:

; 202  : 		}
; 203  : 		////////////////////////////////////////
; 204  : 		default:
; 205  : 		////////////////////////////////////////
; 206  : 		{
; 207  : 			debug_fatal_invalid_float_type (en, type);

  000b2	83 7d 08 00	 cmp	 DWORD PTR _en$[ebp], 0
  000b6	74 0a		 je	 SHORT $LN8@get_local_
  000b8	8b 45 08	 mov	 eax, DWORD PTR _en$[ebp]
  000bb	8b 08		 mov	 ecx, DWORD PTR [eax]
  000bd	89 4d 98	 mov	 DWORD PTR tv135[ebp], ecx
  000c0	eb 21		 jmp	 SHORT $LN9@get_local_
$LN8@get_local_:
  000c2	8b 15 00 00 00
	00		 mov	 edx, DWORD PTR ?__LINE__Var@?0??get_local_float_value@@YGMPAUENTITY@@W4FLOAT_TYPES@@@Z@4JA
  000c8	83 c2 2f	 add	 edx, 47			; 0000002fH
  000cb	52		 push	 edx
  000cc	68 00 00 00 00	 push	 OFFSET ??_C@_0FC@HPFAACAL@c?3?2users?2nhv90?2projects?2eech?2ap@
  000d1	a1 00 00 00 00	 mov	 eax, DWORD PTR ?null_entity_pointer_message@@3PBDB ; null_entity_pointer_message
  000d6	50		 push	 eax
  000d7	e8 00 00 00 00	 call	 ?process_assert@@YGXPBD0H@Z ; process_assert
  000dc	c7 45 98 00 00
	00 00		 mov	 DWORD PTR tv135[ebp], 0
$LN9@get_local_:
  000e3	8b 0d 00 00 00
	00		 mov	 ecx, DWORD PTR ?__LINE__Var@?0??get_local_float_value@@YGMPAUENTITY@@W4FLOAT_TYPES@@@Z@4JA
  000e9	83 c1 2f	 add	 ecx, 47			; 0000002fH
  000ec	51		 push	 ecx
  000ed	68 00 00 00 00	 push	 OFFSET ??_C@_0FC@HPFAACAL@c?3?2users?2nhv90?2projects?2eech?2ap@
  000f2	6b 55 0c 18	 imul	 edx, DWORD PTR _type$[ebp], 24
  000f6	8b 82 00 00 00
	00		 mov	 eax, DWORD PTR ?float_type_database@@3PAUFLOAT_TYPE_DATA@@A[edx]
  000fc	50		 push	 eax
  000fd	8b 4d 08	 mov	 ecx, DWORD PTR _en$[ebp]
  00100	2b 0d 00 00 00
	00		 sub	 ecx, DWORD PTR ?entities@@3PAUENTITY@@A ; entities
  00106	c1 f9 04	 sar	 ecx, 4
  00109	51		 push	 ecx
  0010a	6b 55 98 0c	 imul	 edx, DWORD PTR tv135[ebp], 12
  0010e	8b 82 00 00 00
	00		 mov	 eax, DWORD PTR ?entity_type_database@@3PAUENTITY_TYPE_DATA@@A[edx]
  00114	50		 push	 eax
  00115	8b 0d 00 00 00
	00		 mov	 ecx, DWORD PTR ?debug_fatal_invalid_float_type_message@@3PBDB ; debug_fatal_invalid_float_type_message
  0011b	51		 push	 ecx
  0011c	e8 00 00 00 00	 call	 ?debug_fatal@@YAXPBDZZ	; debug_fatal
  00121	83 c4 18	 add	 esp, 24			; 00000018H
$LN2@get_local_:

; 208  : 
; 209  : 			break;
; 210  : 		}
; 211  : 	}
; 212  : 
; 213  : 	return (value);

  00124	d9 45 f8	 fld	 DWORD PTR _value$[ebp]

; 214  : }

  00127	5f		 pop	 edi
  00128	5e		 pop	 esi
  00129	5b		 pop	 ebx
  0012a	8b e5		 mov	 esp, ebp
  0012c	5d		 pop	 ebp
  0012d	c2 08 00	 ret	 8
?get_local_float_value@@YGMPAUENTITY@@W4FLOAT_TYPES@@@Z ENDP ; get_local_float_value
_TEXT	ENDS
; Function compile flags: /Odtp /ZI
; File c:\users\nhv90\projects\eech\aphavoc\source\entity\mobile\vehicle\ship\sh_float.c
;	COMDAT ?overload_ship_vehicle_float_value_functions@@YGXXZ
_TEXT	SEGMENT
?overload_ship_vehicle_float_value_functions@@YGXXZ PROC ; overload_ship_vehicle_float_value_functions, COMDAT

; 221  : {

  00000	55		 push	 ebp
  00001	8b ec		 mov	 ebp, esp
  00003	83 ec 40	 sub	 esp, 64			; 00000040H
  00006	53		 push	 ebx
  00007	56		 push	 esi
  00008	57		 push	 edi

; 222  : 
; 223  : 	fn_get_local_entity_float_value				[ENTITY_TYPE_SHIP_VEHICLE][FLOAT_TYPE_AVOIDANCE_RADIUS]								= get_local_float_value;

  00009	b8 bc 02 00 00	 mov	 eax, 700		; 000002bcH
  0000e	6b c8 1c	 imul	 ecx, eax, 28
  00011	ba 04 00 00 00	 mov	 edx, 4
  00016	6b c2 0f	 imul	 eax, edx, 15
  00019	c7 84 01 00 00
	00 00 00 00 00
	00		 mov	 DWORD PTR ?fn_get_local_entity_float_value@@3PAY0KP@P6GMPAUENTITY@@W4FLOAT_TYPES@@@ZA[ecx+eax], OFFSET ?get_local_float_value@@YGMPAUENTITY@@W4FLOAT_TYPES@@@Z ; get_local_float_value

; 224  : 	fn_get_local_entity_float_value				[ENTITY_TYPE_SHIP_VEHICLE][FLOAT_TYPE_FIXED_STRUCTURE_HEIGHT]						= get_local_float_value;

  00024	b8 bc 02 00 00	 mov	 eax, 700		; 000002bcH
  00029	6b c8 1c	 imul	 ecx, eax, 28
  0002c	ba 04 00 00 00	 mov	 edx, 4
  00031	6b c2 28	 imul	 eax, edx, 40
  00034	c7 84 01 00 00
	00 00 00 00 00
	00		 mov	 DWORD PTR ?fn_get_local_entity_float_value@@3PAY0KP@P6GMPAUENTITY@@W4FLOAT_TYPES@@@ZA[ecx+eax], OFFSET ?get_local_float_value@@YGMPAUENTITY@@W4FLOAT_TYPES@@@Z ; get_local_float_value

; 225  : }

  0003f	5f		 pop	 edi
  00040	5e		 pop	 esi
  00041	5b		 pop	 ebx
  00042	8b e5		 mov	 esp, ebp
  00044	5d		 pop	 ebp
  00045	c3		 ret	 0
?overload_ship_vehicle_float_value_functions@@YGXXZ ENDP ; overload_ship_vehicle_float_value_functions
_TEXT	ENDS
END
