; Listing generated by Microsoft (R) Optimizing Compiler Version 19.16.27045.0 

	TITLE	C:\Users\nhv90\Projects\eech\aphavoc\source\entity\mobile\vehicle\ship\ship.c
	.686P
	.XMM
	include listing.inc
	.model	flat

INCLUDELIB MSVCRTD
INCLUDELIB OLDNAMES

PUBLIC	?attach_ship_meta_smoke_lists@@YGXPAUENTITY@@@Z	; attach_ship_meta_smoke_lists
PUBLIC	?pack_ship_meta_smoke_lists@@YGXPAUENTITY@@W4PACK_MODES@@@Z ; pack_ship_meta_smoke_lists
PUBLIC	?unpack_ship_meta_smoke_lists@@YGXPAUENTITY@@W4PACK_MODES@@@Z ; unpack_ship_meta_smoke_lists
PUBLIC	?__LINE__Var@?0??pack_ship_meta_smoke_lists@@YGXPAUENTITY@@W4PACK_MODES@@@Z@4JA ; `pack_ship_meta_smoke_lists'::`1'::__LINE__Var
PUBLIC	??_C@_0EO@GEIEDHND@c?3?2users?2nhv90?2projects?2eech?2ap@ ; `string'
PUBLIC	??_C@_0P@KGPELPEG@special_effect@		; `string'
PUBLIC	??_C@_0BI@MBKKNMHC@packed_indices?5?$DN?$DN?5count@ ; `string'
PUBLIC	?__LINE__Var@?0??unpack_ship_meta_smoke_lists@@YGXPAUENTITY@@W4PACK_MODES@@@Z@4JA ; `unpack_ship_meta_smoke_lists'::`1'::__LINE__Var
EXTRN	?process_assert@@YGXPBD0H@Z:PROC		; process_assert
EXTRN	?malloc_fast_memory@@YGPAXI@Z:PROC		; malloc_fast_memory
EXTRN	?free_mem@@YGXPAX@Z:PROC			; free_mem
EXTRN	?register_attach_meta_smoke_list_to_object@@YGXPAUENTITY@@HHPAHH@Z:PROC ; register_attach_meta_smoke_list_to_object
EXTRN	?pack_entity_safe_index@@YGXH@Z:PROC		; pack_entity_safe_index
EXTRN	?unpack_entity_safe_index@@YGHXZ:PROC		; unpack_entity_safe_index
EXTRN	?count_sub_object_type_depth@@YGHPAUOBJECT_3D_INSTANCE@@H@Z:PROC ; count_sub_object_type_depth
EXTRN	?count_entities_in_meta_smoke_list@@YGHW4META_SMOKE_LIST_TYPES@@@Z:PROC ; count_entities_in_meta_smoke_list
EXTRN	?attach_local_meta_smoke_lists_to_object@@YGHPAUENTITY@@W4META_SMOKE_LIST_TYPES@@HPAH@Z:PROC ; attach_local_meta_smoke_lists_to_object
EXTRN	?null_entity_pointer_message@@3PBDB:DWORD	; null_entity_pointer_message
EXTRN	?overload_invalid_list_type_message@@3PBDB:DWORD ; overload_invalid_list_type_message
EXTRN	?fn_get_local_entity_first_child@@3PAY0CN@P6GPAUENTITY@@PAU1@W4LIST_TYPES@@@ZA:BYTE ; fn_get_local_entity_first_child
EXTRN	?fn_get_local_entity_child_succ@@3PAY0CN@P6GPAUENTITY@@PAU1@W4LIST_TYPES@@@ZA:BYTE ; fn_get_local_entity_child_succ
EXTRN	?overload_invalid_int_type_message@@3PBDB:DWORD	; overload_invalid_int_type_message
EXTRN	?fn_get_local_entity_int_value@@3PAY0BBH@P6GHPAUENTITY@@W4INT_TYPES@@@ZA:BYTE ; fn_get_local_entity_int_value
EXTRN	?overload_invalid_ptr_type_message@@3PBDB:DWORD	; overload_invalid_ptr_type_message
EXTRN	?fn_get_local_entity_ptr_value@@3PAY0BE@P6GPAXPAUENTITY@@W4PTR_TYPES@@@ZA:BYTE ; fn_get_local_entity_ptr_value
EXTRN	?entities@@3PAUENTITY@@A:DWORD			; entities
EXTRN	?effect_database@@3QBUEFFECT_DATA@@B:BYTE	; effect_database
;	COMDAT ?__LINE__Var@?0??unpack_ship_meta_smoke_lists@@YGXPAUENTITY@@W4PACK_MODES@@@Z@4JA
_DATA	SEGMENT
?__LINE__Var@?0??unpack_ship_meta_smoke_lists@@YGXPAUENTITY@@W4PACK_MODES@@@Z@4JA DD 012fH ; `unpack_ship_meta_smoke_lists'::`1'::__LINE__Var
_DATA	ENDS
;	COMDAT ??_C@_0BI@MBKKNMHC@packed_indices?5?$DN?$DN?5count@
CONST	SEGMENT
??_C@_0BI@MBKKNMHC@packed_indices?5?$DN?$DN?5count@ DB 'packed_indices =='
	DB	' count', 00H				; `string'
CONST	ENDS
;	COMDAT ??_C@_0P@KGPELPEG@special_effect@
CONST	SEGMENT
??_C@_0P@KGPELPEG@special_effect@ DB 'special_effect', 00H ; `string'
CONST	ENDS
;	COMDAT ??_C@_0EO@GEIEDHND@c?3?2users?2nhv90?2projects?2eech?2ap@
CONST	SEGMENT
??_C@_0EO@GEIEDHND@c?3?2users?2nhv90?2projects?2eech?2ap@ DB 'c:\users\nh'
	DB	'v90\projects\eech\aphavoc\source\entity\mobile\vehicle\ship\s'
	DB	'hip.c', 00H					; `string'
CONST	ENDS
;	COMDAT ?__LINE__Var@?0??pack_ship_meta_smoke_lists@@YGXPAUENTITY@@W4PACK_MODES@@@Z@4JA
_DATA	SEGMENT
?__LINE__Var@?0??pack_ship_meta_smoke_lists@@YGXPAUENTITY@@W4PACK_MODES@@@Z@4JA DD 0b1H ; `pack_ship_meta_smoke_lists'::`1'::__LINE__Var
_DATA	ENDS
_DATA	SEGMENT
?attached_meta_smoke_list_table@@3PAUATTACHED_META_SMOKE_LIST_TABLE@@A DD 08H ; attached_meta_smoke_list_table
	DD	010bH
	DD	0ffffffffH
	DD	09H
	DD	0108H
	DD	0ffffffffH
	DD	0ffffffffH
	DD	0ffffffffH
	DD	0ffffffffH
_DATA	ENDS
; Function compile flags: /Odtp /ZI
; File c:\users\nhv90\projects\eech\aphavoc\source\entity\mobile\vehicle\ship\ship.c
;	COMDAT ?unpack_ship_meta_smoke_lists@@YGXPAUENTITY@@W4PACK_MODES@@@Z
_TEXT	SEGMENT
tv129 = -104						; size = 4
tv76 = -104						; size = 4
tv89 = -100						; size = 4
tv69 = -100						; size = 4
_attachment_point$ = -32				; size = 4
_type$ = -28						; size = 4
_entity_index_list$ = -24				; size = 4
_point$ = -20						; size = 4
_count$ = -16						; size = 4
_loop$ = -12						; size = 4
_item$ = -8						; size = 4
_inst3d$ = -4						; size = 4
_en$ = 8						; size = 4
_mode$ = 12						; size = 4
?unpack_ship_meta_smoke_lists@@YGXPAUENTITY@@W4PACK_MODES@@@Z PROC ; unpack_ship_meta_smoke_lists, COMDAT

; 303  : {

  00000	55		 push	 ebp
  00001	8b ec		 mov	 ebp, esp
  00003	83 ec 68	 sub	 esp, 104		; 00000068H
  00006	53		 push	 ebx
  00007	56		 push	 esi
  00008	57		 push	 edi

; 304  : 	object_3d_instance
; 305  : 		*inst3d;
; 306  : 
; 307  : 	int
; 308  : 		item,
; 309  : 		loop,
; 310  : 		count,
; 311  : 		point,
; 312  : 		*entity_index_list;
; 313  : 
; 314  : 	meta_smoke_list_types
; 315  : 		type;
; 316  : 
; 317  : 	object_3d_sub_object_index_numbers
; 318  : 		attachment_point;
; 319  : 
; 320  : 	if (get_local_entity_int_value (en, INT_TYPE_ALIVE))

  00009	83 7d 08 00	 cmp	 DWORD PTR _en$[ebp], 0
  0000d	74 0a		 je	 SHORT $LN20@unpack_shi
  0000f	8b 45 08	 mov	 eax, DWORD PTR _en$[ebp]
  00012	8b 08		 mov	 ecx, DWORD PTR [eax]
  00014	89 4d 9c	 mov	 DWORD PTR tv69[ebp], ecx
  00017	eb 1d		 jmp	 SHORT $LN21@unpack_shi
$LN20@unpack_shi:
  00019	68 40 01 00 00	 push	 320			; 00000140H
  0001e	68 00 00 00 00	 push	 OFFSET ??_C@_0EO@GEIEDHND@c?3?2users?2nhv90?2projects?2eech?2ap@
  00023	8b 15 00 00 00
	00		 mov	 edx, DWORD PTR ?null_entity_pointer_message@@3PBDB ; null_entity_pointer_message
  00029	52		 push	 edx
  0002a	e8 00 00 00 00	 call	 ?process_assert@@YGXPBD0H@Z ; process_assert
  0002f	c7 45 9c 00 00
	00 00		 mov	 DWORD PTR tv69[ebp], 0
$LN21@unpack_shi:
  00036	b8 01 00 00 00	 mov	 eax, 1
  0003b	85 c0		 test	 eax, eax
  0003d	74 09		 je	 SHORT $LN22@unpack_shi
  0003f	c7 45 98 07 00
	00 00		 mov	 DWORD PTR tv76[ebp], 7
  00046	eb 1d		 jmp	 SHORT $LN23@unpack_shi
$LN22@unpack_shi:
  00048	68 40 01 00 00	 push	 320			; 00000140H
  0004d	68 00 00 00 00	 push	 OFFSET ??_C@_0EO@GEIEDHND@c?3?2users?2nhv90?2projects?2eech?2ap@
  00052	8b 0d 00 00 00
	00		 mov	 ecx, DWORD PTR ?overload_invalid_int_type_message@@3PBDB ; overload_invalid_int_type_message
  00058	51		 push	 ecx
  00059	e8 00 00 00 00	 call	 ?process_assert@@YGXPBD0H@Z ; process_assert
  0005e	c7 45 98 00 00
	00 00		 mov	 DWORD PTR tv76[ebp], 0
$LN23@unpack_shi:
  00065	6a 07		 push	 7
  00067	8b 55 08	 mov	 edx, DWORD PTR _en$[ebp]
  0006a	52		 push	 edx
  0006b	69 45 9c 5c 04
	00 00		 imul	 eax, DWORD PTR tv69[ebp], 1116
  00072	8b 4d 98	 mov	 ecx, DWORD PTR tv76[ebp]
  00075	8b 94 88 00 00
	00 00		 mov	 edx, DWORD PTR ?fn_get_local_entity_int_value@@3PAY0BBH@P6GHPAUENTITY@@W4INT_TYPES@@@ZA[eax+ecx*4]
  0007c	ff d2		 call	 edx
  0007e	85 c0		 test	 eax, eax
  00080	0f 84 a2 01 00
	00		 je	 $LN1@unpack_shi

; 321  : 	{
; 322  : 		inst3d = (object_3d_instance *) get_local_entity_ptr_value (en, PTR_TYPE_INSTANCE_3D_OBJECT);

  00086	83 7d 08 00	 cmp	 DWORD PTR _en$[ebp], 0
  0008a	74 0a		 je	 SHORT $LN24@unpack_shi
  0008c	8b 45 08	 mov	 eax, DWORD PTR _en$[ebp]
  0008f	8b 08		 mov	 ecx, DWORD PTR [eax]
  00091	89 4d 9c	 mov	 DWORD PTR tv89[ebp], ecx
  00094	eb 21		 jmp	 SHORT $LN25@unpack_shi
$LN24@unpack_shi:
  00096	8b 15 00 00 00
	00		 mov	 edx, DWORD PTR ?__LINE__Var@?0??unpack_ship_meta_smoke_lists@@YGXPAUENTITY@@W4PACK_MODES@@@Z@4JA
  0009c	83 c2 13	 add	 edx, 19			; 00000013H
  0009f	52		 push	 edx
  000a0	68 00 00 00 00	 push	 OFFSET ??_C@_0EO@GEIEDHND@c?3?2users?2nhv90?2projects?2eech?2ap@
  000a5	a1 00 00 00 00	 mov	 eax, DWORD PTR ?null_entity_pointer_message@@3PBDB ; null_entity_pointer_message
  000aa	50		 push	 eax
  000ab	e8 00 00 00 00	 call	 ?process_assert@@YGXPBD0H@Z ; process_assert
  000b0	c7 45 9c 00 00
	00 00		 mov	 DWORD PTR tv89[ebp], 0
$LN25@unpack_shi:
  000b7	b9 01 00 00 00	 mov	 ecx, 1
  000bc	85 c9		 test	 ecx, ecx
  000be	74 09		 je	 SHORT $LN26@unpack_shi
  000c0	c7 45 98 02 00
	00 00		 mov	 DWORD PTR tv129[ebp], 2
  000c7	eb 21		 jmp	 SHORT $LN27@unpack_shi
$LN26@unpack_shi:
  000c9	8b 15 00 00 00
	00		 mov	 edx, DWORD PTR ?__LINE__Var@?0??unpack_ship_meta_smoke_lists@@YGXPAUENTITY@@W4PACK_MODES@@@Z@4JA
  000cf	83 c2 13	 add	 edx, 19			; 00000013H
  000d2	52		 push	 edx
  000d3	68 00 00 00 00	 push	 OFFSET ??_C@_0EO@GEIEDHND@c?3?2users?2nhv90?2projects?2eech?2ap@
  000d8	a1 00 00 00 00	 mov	 eax, DWORD PTR ?overload_invalid_ptr_type_message@@3PBDB ; overload_invalid_ptr_type_message
  000dd	50		 push	 eax
  000de	e8 00 00 00 00	 call	 ?process_assert@@YGXPBD0H@Z ; process_assert
  000e3	c7 45 98 00 00
	00 00		 mov	 DWORD PTR tv129[ebp], 0
$LN27@unpack_shi:
  000ea	6a 02		 push	 2
  000ec	8b 4d 08	 mov	 ecx, DWORD PTR _en$[ebp]
  000ef	51		 push	 ecx
  000f0	6b 55 9c 50	 imul	 edx, DWORD PTR tv89[ebp], 80
  000f4	8b 45 98	 mov	 eax, DWORD PTR tv129[ebp]
  000f7	8b 8c 82 00 00
	00 00		 mov	 ecx, DWORD PTR ?fn_get_local_entity_ptr_value@@3PAY0BE@P6GPAXPAUENTITY@@W4PTR_TYPES@@@ZA[edx+eax*4]
  000fe	ff d1		 call	 ecx
  00100	89 45 fc	 mov	 DWORD PTR _inst3d$[ebp], eax

; 323  : 
; 324  : 		if (inst3d)

  00103	83 7d fc 00	 cmp	 DWORD PTR _inst3d$[ebp], 0
  00107	0f 84 1b 01 00
	00		 je	 $LN1@unpack_shi

; 325  : 		{
; 326  : 			#if DEBUG_MODULE
; 327  : 
; 328  : 			debug_log ("SHIP : Unpacking smoke for %s ( %d )", vehicle_database [get_local_entity_int_value (en, INT_TYPE_ENTITY_SUB_TYPE)].full_name, en);
; 329  : 
; 330  : 			#endif
; 331  : 
; 332  : 			item = 0;

  0010d	c7 45 f8 00 00
	00 00		 mov	 DWORD PTR _item$[ebp], 0
$LN2@unpack_shi:

; 333  : 
; 334  : 			while (TRUE)

  00114	b8 01 00 00 00	 mov	 eax, 1
  00119	85 c0		 test	 eax, eax
  0011b	0f 84 07 01 00
	00		 je	 $LN1@unpack_shi

; 335  : 			{
; 336  : 				type = attached_meta_smoke_list_table [item].type;

  00121	6b 45 f8 0c	 imul	 eax, DWORD PTR _item$[ebp], 12
  00125	8b 88 00 00 00
	00		 mov	 ecx, DWORD PTR ?attached_meta_smoke_list_table@@3PAUATTACHED_META_SMOKE_LIST_TABLE@@A[eax]
  0012b	89 4d e4	 mov	 DWORD PTR _type$[ebp], ecx

; 337  : 
; 338  : 				if (type == -1)

  0012e	83 7d e4 ff	 cmp	 DWORD PTR _type$[ebp], -1
  00132	75 0a		 jne	 SHORT $LN12@unpack_shi

; 339  : 				{
; 340  : 					break;

  00134	e9 ef 00 00 00	 jmp	 $LN1@unpack_shi

; 341  : 				}
; 342  : 				else

  00139	e9 dc 00 00 00	 jmp	 $LN13@unpack_shi
$LN12@unpack_shi:

; 343  : 				{				
; 344  : 					for (point = 0; point < MAX_META_SMOKE_LIST_ATTACHMENT_POINTS; point ++)

  0013e	c7 45 ec 00 00
	00 00		 mov	 DWORD PTR _point$[ebp], 0
  00145	eb 09		 jmp	 SHORT $LN6@unpack_shi
$LN4@unpack_shi:
  00147	8b 45 ec	 mov	 eax, DWORD PTR _point$[ebp]
  0014a	83 c0 01	 add	 eax, 1
  0014d	89 45 ec	 mov	 DWORD PTR _point$[ebp], eax
$LN6@unpack_shi:
  00150	83 7d ec 02	 cmp	 DWORD PTR _point$[ebp], 2
  00154	0f 8d c0 00 00
	00		 jge	 $LN13@unpack_shi

; 345  : 					{
; 346  : 						attachment_point = attached_meta_smoke_list_table [item].attachment_point [point];

  0015a	6b 45 f8 0c	 imul	 eax, DWORD PTR _item$[ebp], 12
  0015e	8b 4d ec	 mov	 ecx, DWORD PTR _point$[ebp]
  00161	8b 94 88 04 00
	00 00		 mov	 edx, DWORD PTR ?attached_meta_smoke_list_table@@3PAUATTACHED_META_SMOKE_LIST_TABLE@@A[eax+ecx*4+4]
  00168	89 55 e0	 mov	 DWORD PTR _attachment_point$[ebp], edx

; 347  : 
; 348  : 						if (attachment_point == -1)

  0016b	83 7d e0 ff	 cmp	 DWORD PTR _attachment_point$[ebp], -1
  0016f	75 0a		 jne	 SHORT $LN14@unpack_shi

; 349  : 						{
; 350  : 							break;

  00171	e9 a4 00 00 00	 jmp	 $LN13@unpack_shi

; 351  : 						}
; 352  : 						else

  00176	e9 9a 00 00 00	 jmp	 $LN15@unpack_shi
$LN14@unpack_shi:

; 353  : 						{				
; 354  : 							count = count_sub_object_type_depth (inst3d, attachment_point);

  0017b	8b 45 e0	 mov	 eax, DWORD PTR _attachment_point$[ebp]
  0017e	50		 push	 eax
  0017f	8b 4d fc	 mov	 ecx, DWORD PTR _inst3d$[ebp]
  00182	51		 push	 ecx
  00183	e8 00 00 00 00	 call	 ?count_sub_object_type_depth@@YGHPAUOBJECT_3D_INSTANCE@@H@Z ; count_sub_object_type_depth
  00188	89 45 f0	 mov	 DWORD PTR _count$[ebp], eax

; 355  : 
; 356  : 							if (count >0)

  0018b	83 7d f0 00	 cmp	 DWORD PTR _count$[ebp], 0
  0018f	0f 8e 80 00 00
	00		 jle	 $LN15@unpack_shi

; 357  : 							{
; 358  : 								count *= count_entities_in_meta_smoke_list (type);						

  00195	8b 45 e4	 mov	 eax, DWORD PTR _type$[ebp]
  00198	50		 push	 eax
  00199	e8 00 00 00 00	 call	 ?count_entities_in_meta_smoke_list@@YGHW4META_SMOKE_LIST_TYPES@@@Z ; count_entities_in_meta_smoke_list
  0019e	0f af 45 f0	 imul	 eax, DWORD PTR _count$[ebp]
  001a2	89 45 f0	 mov	 DWORD PTR _count$[ebp], eax

; 359  : 
; 360  : 								entity_index_list = (int *) malloc_fast_mem (sizeof (int) * count);

  001a5	8b 45 f0	 mov	 eax, DWORD PTR _count$[ebp]
  001a8	c1 e0 02	 shl	 eax, 2
  001ab	50		 push	 eax
  001ac	e8 00 00 00 00	 call	 ?malloc_fast_memory@@YGPAXI@Z ; malloc_fast_memory
  001b1	89 45 e8	 mov	 DWORD PTR _entity_index_list$[ebp], eax

; 361  : 
; 362  : 								for (loop = 0; loop < count; loop ++)

  001b4	c7 45 f4 00 00
	00 00		 mov	 DWORD PTR _loop$[ebp], 0
  001bb	eb 09		 jmp	 SHORT $LN9@unpack_shi
$LN7@unpack_shi:
  001bd	8b 45 f4	 mov	 eax, DWORD PTR _loop$[ebp]
  001c0	83 c0 01	 add	 eax, 1
  001c3	89 45 f4	 mov	 DWORD PTR _loop$[ebp], eax
$LN9@unpack_shi:
  001c6	8b 45 f4	 mov	 eax, DWORD PTR _loop$[ebp]
  001c9	3b 45 f0	 cmp	 eax, DWORD PTR _count$[ebp]
  001cc	7d 25		 jge	 SHORT $LN8@unpack_shi

; 363  : 								{
; 364  : 									if (mode == PACK_MODE_SERVER_SESSION)

  001ce	83 7d 0c 00	 cmp	 DWORD PTR _mode$[ebp], 0
  001d2	75 0f		 jne	 SHORT $LN17@unpack_shi

; 365  : 									{
; 366  : 										entity_index_list [loop] = ENTITY_INDEX_DONT_CARE;

  001d4	8b 45 f4	 mov	 eax, DWORD PTR _loop$[ebp]
  001d7	8b 4d e8	 mov	 ecx, DWORD PTR _entity_index_list$[ebp]
  001da	c7 04 81 ff ff
	ff ff		 mov	 DWORD PTR [ecx+eax*4], -1

; 367  : 									}
; 368  : 									else

  001e1	eb 0e		 jmp	 SHORT $LN18@unpack_shi
$LN17@unpack_shi:

; 369  : 									{
; 370  : 										entity_index_list [loop] = unpack_entity_safe_index ();

  001e3	e8 00 00 00 00	 call	 ?unpack_entity_safe_index@@YGHXZ ; unpack_entity_safe_index
  001e8	8b 4d f4	 mov	 ecx, DWORD PTR _loop$[ebp]
  001eb	8b 55 e8	 mov	 edx, DWORD PTR _entity_index_list$[ebp]
  001ee	89 04 8a	 mov	 DWORD PTR [edx+ecx*4], eax
$LN18@unpack_shi:

; 371  : 									}
; 372  : 
; 373  : 									#if DEBUG_MODULE
; 374  : 
; 375  : 									debug_log ("ROUTED : Index %d = %d", loop, entity_index_list [loop]);
; 376  : 
; 377  : 									#endif
; 378  : 								}

  001f1	eb ca		 jmp	 SHORT $LN7@unpack_shi
$LN8@unpack_shi:

; 379  : 
; 380  : 								//attach_local_meta_smoke_lists_to_object (en, type, attachment_point, entity_index_list);
; 381  : 
; 382  : 								register_attach_meta_smoke_list_to_object (en, type, attachment_point, entity_index_list, count);

  001f3	8b 45 f0	 mov	 eax, DWORD PTR _count$[ebp]
  001f6	50		 push	 eax
  001f7	8b 4d e8	 mov	 ecx, DWORD PTR _entity_index_list$[ebp]
  001fa	51		 push	 ecx
  001fb	8b 55 e0	 mov	 edx, DWORD PTR _attachment_point$[ebp]
  001fe	52		 push	 edx
  001ff	8b 45 e4	 mov	 eax, DWORD PTR _type$[ebp]
  00202	50		 push	 eax
  00203	8b 4d 08	 mov	 ecx, DWORD PTR _en$[ebp]
  00206	51		 push	 ecx
  00207	e8 00 00 00 00	 call	 ?register_attach_meta_smoke_list_to_object@@YGXPAUENTITY@@HHPAHH@Z ; register_attach_meta_smoke_list_to_object

; 383  : 
; 384  : 								free_mem (entity_index_list);

  0020c	8b 45 e8	 mov	 eax, DWORD PTR _entity_index_list$[ebp]
  0020f	50		 push	 eax
  00210	e8 00 00 00 00	 call	 ?free_mem@@YGXPAX@Z	; free_mem
$LN15@unpack_shi:

; 385  : 							}
; 386  : 						}
; 387  : 					}

  00215	e9 2d ff ff ff	 jmp	 $LN4@unpack_shi
$LN13@unpack_shi:

; 388  : 				}
; 389  : 
; 390  : 				item ++;

  0021a	8b 45 f8	 mov	 eax, DWORD PTR _item$[ebp]
  0021d	83 c0 01	 add	 eax, 1
  00220	89 45 f8	 mov	 DWORD PTR _item$[ebp], eax

; 391  : 			}

  00223	e9 ec fe ff ff	 jmp	 $LN2@unpack_shi
$LN1@unpack_shi:

; 392  : 		}
; 393  : 	}
; 394  : }

  00228	5f		 pop	 edi
  00229	5e		 pop	 esi
  0022a	5b		 pop	 ebx
  0022b	8b e5		 mov	 esp, ebp
  0022d	5d		 pop	 ebp
  0022e	c2 08 00	 ret	 8
?unpack_ship_meta_smoke_lists@@YGXPAUENTITY@@W4PACK_MODES@@@Z ENDP ; unpack_ship_meta_smoke_lists
_TEXT	ENDS
; Function compile flags: /Odtp /ZI
; File c:\users\nhv90\projects\eech\aphavoc\source\entity\mobile\vehicle\ship\ship.c
;	COMDAT ?pack_ship_meta_smoke_lists@@YGXPAUENTITY@@W4PACK_MODES@@@Z
_TEXT	SEGMENT
tv248 = -108						; size = 4
tv228 = -108						; size = 4
tv200 = -108						; size = 4
tv151 = -108						; size = 4
tv130 = -108						; size = 4
tv77 = -108						; size = 4
tv240 = -104						; size = 4
tv220 = -104						; size = 4
tv193 = -104						; size = 4
tv143 = -104						; size = 4
tv90 = -104						; size = 4
tv70 = -104						; size = 4
_type$ = -36						; size = 4
_attachment_point$ = -32				; size = 4
_special_effect$ = -28					; size = 4
_packed_indices$ = -24					; size = 4
_point$ = -20						; size = 4
_count$ = -16						; size = 4
_loop$ = -12						; size = 4
_item$ = -8						; size = 4
_inst3d$ = -4						; size = 4
_en$ = 8						; size = 4
_mode$ = 12						; size = 4
?pack_ship_meta_smoke_lists@@YGXPAUENTITY@@W4PACK_MODES@@@Z PROC ; pack_ship_meta_smoke_lists, COMDAT

; 177  : {

  00000	55		 push	 ebp
  00001	8b ec		 mov	 ebp, esp
  00003	83 ec 6c	 sub	 esp, 108		; 0000006cH
  00006	53		 push	 ebx
  00007	56		 push	 esi
  00008	57		 push	 edi

; 178  : 	object_3d_instance
; 179  : 		*inst3d;
; 180  : 
; 181  : 	int
; 182  : 		item,
; 183  : 		loop,
; 184  : 		count,
; 185  : 		point,
; 186  : 		packed_indices;
; 187  : 
; 188  : 	entity
; 189  : 		*special_effect;
; 190  : 
; 191  : 	object_3d_sub_object_index_numbers
; 192  : 		attachment_point;
; 193  : 
; 194  : 	meta_smoke_list_types
; 195  : 		type;
; 196  : 
; 197  : 	if (mode == PACK_MODE_SERVER_SESSION)

  00009	83 7d 0c 00	 cmp	 DWORD PTR _mode$[ebp], 0
  0000d	75 05		 jne	 SHORT $LN12@pack_ship_

; 198  : 	{
; 199  : 		//
; 200  : 		// no need to pack indices as the server can use "ENTITY_INDEX_DONT_CARE"s when unpacking
; 201  : 		//
; 202  : 
; 203  : 		return;

  0000f	e9 55 04 00 00	 jmp	 $LN1@pack_ship_
$LN12@pack_ship_:

; 204  : 	}
; 205  : 
; 206  : 	if (get_local_entity_int_value (en, INT_TYPE_ALIVE))

  00014	83 7d 08 00	 cmp	 DWORD PTR _en$[ebp], 0
  00018	74 0a		 je	 SHORT $LN25@pack_ship_
  0001a	8b 45 08	 mov	 eax, DWORD PTR _en$[ebp]
  0001d	8b 08		 mov	 ecx, DWORD PTR [eax]
  0001f	89 4d 98	 mov	 DWORD PTR tv70[ebp], ecx
  00022	eb 1d		 jmp	 SHORT $LN26@pack_ship_
$LN25@pack_ship_:
  00024	68 ce 00 00 00	 push	 206			; 000000ceH
  00029	68 00 00 00 00	 push	 OFFSET ??_C@_0EO@GEIEDHND@c?3?2users?2nhv90?2projects?2eech?2ap@
  0002e	8b 15 00 00 00
	00		 mov	 edx, DWORD PTR ?null_entity_pointer_message@@3PBDB ; null_entity_pointer_message
  00034	52		 push	 edx
  00035	e8 00 00 00 00	 call	 ?process_assert@@YGXPBD0H@Z ; process_assert
  0003a	c7 45 98 00 00
	00 00		 mov	 DWORD PTR tv70[ebp], 0
$LN26@pack_ship_:
  00041	b8 01 00 00 00	 mov	 eax, 1
  00046	85 c0		 test	 eax, eax
  00048	74 09		 je	 SHORT $LN27@pack_ship_
  0004a	c7 45 94 07 00
	00 00		 mov	 DWORD PTR tv77[ebp], 7
  00051	eb 1d		 jmp	 SHORT $LN28@pack_ship_
$LN27@pack_ship_:
  00053	68 ce 00 00 00	 push	 206			; 000000ceH
  00058	68 00 00 00 00	 push	 OFFSET ??_C@_0EO@GEIEDHND@c?3?2users?2nhv90?2projects?2eech?2ap@
  0005d	8b 0d 00 00 00
	00		 mov	 ecx, DWORD PTR ?overload_invalid_int_type_message@@3PBDB ; overload_invalid_int_type_message
  00063	51		 push	 ecx
  00064	e8 00 00 00 00	 call	 ?process_assert@@YGXPBD0H@Z ; process_assert
  00069	c7 45 94 00 00
	00 00		 mov	 DWORD PTR tv77[ebp], 0
$LN28@pack_ship_:
  00070	6a 07		 push	 7
  00072	8b 55 08	 mov	 edx, DWORD PTR _en$[ebp]
  00075	52		 push	 edx
  00076	69 45 98 5c 04
	00 00		 imul	 eax, DWORD PTR tv70[ebp], 1116
  0007d	8b 4d 94	 mov	 ecx, DWORD PTR tv77[ebp]
  00080	8b 94 88 00 00
	00 00		 mov	 edx, DWORD PTR ?fn_get_local_entity_int_value@@3PAY0BBH@P6GHPAUENTITY@@W4INT_TYPES@@@ZA[eax+ecx*4]
  00087	ff d2		 call	 edx
  00089	85 c0		 test	 eax, eax
  0008b	0f 84 d8 03 00
	00		 je	 $LN1@pack_ship_

; 207  : 	{
; 208  : 		inst3d = (object_3d_instance *) get_local_entity_ptr_value (en, PTR_TYPE_INSTANCE_3D_OBJECT);

  00091	83 7d 08 00	 cmp	 DWORD PTR _en$[ebp], 0
  00095	74 0a		 je	 SHORT $LN29@pack_ship_
  00097	8b 45 08	 mov	 eax, DWORD PTR _en$[ebp]
  0009a	8b 08		 mov	 ecx, DWORD PTR [eax]
  0009c	89 4d 98	 mov	 DWORD PTR tv90[ebp], ecx
  0009f	eb 21		 jmp	 SHORT $LN30@pack_ship_
$LN29@pack_ship_:
  000a1	8b 15 00 00 00
	00		 mov	 edx, DWORD PTR ?__LINE__Var@?0??pack_ship_meta_smoke_lists@@YGXPAUENTITY@@W4PACK_MODES@@@Z@4JA
  000a7	83 c2 1f	 add	 edx, 31			; 0000001fH
  000aa	52		 push	 edx
  000ab	68 00 00 00 00	 push	 OFFSET ??_C@_0EO@GEIEDHND@c?3?2users?2nhv90?2projects?2eech?2ap@
  000b0	a1 00 00 00 00	 mov	 eax, DWORD PTR ?null_entity_pointer_message@@3PBDB ; null_entity_pointer_message
  000b5	50		 push	 eax
  000b6	e8 00 00 00 00	 call	 ?process_assert@@YGXPBD0H@Z ; process_assert
  000bb	c7 45 98 00 00
	00 00		 mov	 DWORD PTR tv90[ebp], 0
$LN30@pack_ship_:
  000c2	b9 01 00 00 00	 mov	 ecx, 1
  000c7	85 c9		 test	 ecx, ecx
  000c9	74 09		 je	 SHORT $LN31@pack_ship_
  000cb	c7 45 94 02 00
	00 00		 mov	 DWORD PTR tv130[ebp], 2
  000d2	eb 21		 jmp	 SHORT $LN32@pack_ship_
$LN31@pack_ship_:
  000d4	8b 15 00 00 00
	00		 mov	 edx, DWORD PTR ?__LINE__Var@?0??pack_ship_meta_smoke_lists@@YGXPAUENTITY@@W4PACK_MODES@@@Z@4JA
  000da	83 c2 1f	 add	 edx, 31			; 0000001fH
  000dd	52		 push	 edx
  000de	68 00 00 00 00	 push	 OFFSET ??_C@_0EO@GEIEDHND@c?3?2users?2nhv90?2projects?2eech?2ap@
  000e3	a1 00 00 00 00	 mov	 eax, DWORD PTR ?overload_invalid_ptr_type_message@@3PBDB ; overload_invalid_ptr_type_message
  000e8	50		 push	 eax
  000e9	e8 00 00 00 00	 call	 ?process_assert@@YGXPBD0H@Z ; process_assert
  000ee	c7 45 94 00 00
	00 00		 mov	 DWORD PTR tv130[ebp], 0
$LN32@pack_ship_:
  000f5	6a 02		 push	 2
  000f7	8b 4d 08	 mov	 ecx, DWORD PTR _en$[ebp]
  000fa	51		 push	 ecx
  000fb	6b 55 98 50	 imul	 edx, DWORD PTR tv90[ebp], 80
  000ff	8b 45 94	 mov	 eax, DWORD PTR tv130[ebp]
  00102	8b 8c 82 00 00
	00 00		 mov	 ecx, DWORD PTR ?fn_get_local_entity_ptr_value@@3PAY0BE@P6GPAXPAUENTITY@@W4PTR_TYPES@@@ZA[edx+eax*4]
  00109	ff d1		 call	 ecx
  0010b	89 45 fc	 mov	 DWORD PTR _inst3d$[ebp], eax

; 209  : 
; 210  : 		if (inst3d)

  0010e	83 7d fc 00	 cmp	 DWORD PTR _inst3d$[ebp], 0
  00112	0f 84 51 03 00
	00		 je	 $LN1@pack_ship_

; 211  : 		{
; 212  : 			#if DEBUG_MODULE
; 213  : 
; 214  : 			debug_log ("SHIP : Packing smoke for %s ( %d )", vehicle_database [get_local_entity_int_value (en, INT_TYPE_ENTITY_SUB_TYPE)].full_name, en);
; 215  : 
; 216  : 			#endif
; 217  : 
; 218  : 			item = 0;

  00118	c7 45 f8 00 00
	00 00		 mov	 DWORD PTR _item$[ebp], 0

; 219  : 
; 220  : 			special_effect = get_local_entity_first_child (en, LIST_TYPE_SPECIAL_EFFECT);

  0011f	83 7d 08 00	 cmp	 DWORD PTR _en$[ebp], 0
  00123	74 0a		 je	 SHORT $LN33@pack_ship_
  00125	8b 45 08	 mov	 eax, DWORD PTR _en$[ebp]
  00128	8b 08		 mov	 ecx, DWORD PTR [eax]
  0012a	89 4d 98	 mov	 DWORD PTR tv143[ebp], ecx
  0012d	eb 21		 jmp	 SHORT $LN34@pack_ship_
$LN33@pack_ship_:
  0012f	8b 15 00 00 00
	00		 mov	 edx, DWORD PTR ?__LINE__Var@?0??pack_ship_meta_smoke_lists@@YGXPAUENTITY@@W4PACK_MODES@@@Z@4JA
  00135	83 c2 2b	 add	 edx, 43			; 0000002bH
  00138	52		 push	 edx
  00139	68 00 00 00 00	 push	 OFFSET ??_C@_0EO@GEIEDHND@c?3?2users?2nhv90?2projects?2eech?2ap@
  0013e	a1 00 00 00 00	 mov	 eax, DWORD PTR ?null_entity_pointer_message@@3PBDB ; null_entity_pointer_message
  00143	50		 push	 eax
  00144	e8 00 00 00 00	 call	 ?process_assert@@YGXPBD0H@Z ; process_assert
  00149	c7 45 98 00 00
	00 00		 mov	 DWORD PTR tv143[ebp], 0
$LN34@pack_ship_:
  00150	b9 01 00 00 00	 mov	 ecx, 1
  00155	85 c9		 test	 ecx, ecx
  00157	74 09		 je	 SHORT $LN35@pack_ship_
  00159	c7 45 94 24 00
	00 00		 mov	 DWORD PTR tv151[ebp], 36 ; 00000024H
  00160	eb 21		 jmp	 SHORT $LN36@pack_ship_
$LN35@pack_ship_:
  00162	8b 15 00 00 00
	00		 mov	 edx, DWORD PTR ?__LINE__Var@?0??pack_ship_meta_smoke_lists@@YGXPAUENTITY@@W4PACK_MODES@@@Z@4JA
  00168	83 c2 2b	 add	 edx, 43			; 0000002bH
  0016b	52		 push	 edx
  0016c	68 00 00 00 00	 push	 OFFSET ??_C@_0EO@GEIEDHND@c?3?2users?2nhv90?2projects?2eech?2ap@
  00171	a1 00 00 00 00	 mov	 eax, DWORD PTR ?overload_invalid_list_type_message@@3PBDB ; overload_invalid_list_type_message
  00176	50		 push	 eax
  00177	e8 00 00 00 00	 call	 ?process_assert@@YGXPBD0H@Z ; process_assert
  0017c	c7 45 94 00 00
	00 00		 mov	 DWORD PTR tv151[ebp], 0
$LN36@pack_ship_:
  00183	6a 24		 push	 36			; 00000024H
  00185	8b 4d 08	 mov	 ecx, DWORD PTR _en$[ebp]
  00188	51		 push	 ecx
  00189	69 55 98 b4 00
	00 00		 imul	 edx, DWORD PTR tv143[ebp], 180
  00190	8b 45 94	 mov	 eax, DWORD PTR tv151[ebp]
  00193	8b 8c 82 00 00
	00 00		 mov	 ecx, DWORD PTR ?fn_get_local_entity_first_child@@3PAY0CN@P6GPAUENTITY@@PAU1@W4LIST_TYPES@@@ZA[edx+eax*4]
  0019a	ff d1		 call	 ecx
  0019c	89 45 e4	 mov	 DWORD PTR _special_effect$[ebp], eax
$LN2@pack_ship_:

; 221  : 
; 222  : 			while (TRUE)

  0019f	b8 01 00 00 00	 mov	 eax, 1
  001a4	85 c0		 test	 eax, eax
  001a6	0f 84 bd 02 00
	00		 je	 $LN1@pack_ship_

; 223  : 			{
; 224  : 				type = attached_meta_smoke_list_table [item].type;

  001ac	6b 45 f8 0c	 imul	 eax, DWORD PTR _item$[ebp], 12
  001b0	8b 88 00 00 00
	00		 mov	 ecx, DWORD PTR ?attached_meta_smoke_list_table@@3PAUATTACHED_META_SMOKE_LIST_TABLE@@A[eax]
  001b6	89 4d dc	 mov	 DWORD PTR _type$[ebp], ecx

; 225  : 
; 226  : 				if (type == -1)

  001b9	83 7d dc ff	 cmp	 DWORD PTR _type$[ebp], -1
  001bd	75 0a		 jne	 SHORT $LN15@pack_ship_

; 227  : 				{
; 228  : 					break;

  001bf	e9 a5 02 00 00	 jmp	 $LN1@pack_ship_

; 229  : 				}
; 230  : 				else

  001c4	e9 92 02 00 00	 jmp	 $LN16@pack_ship_
$LN15@pack_ship_:

; 231  : 				{
; 232  : 					count = 0;

  001c9	c7 45 f0 00 00
	00 00		 mov	 DWORD PTR _count$[ebp], 0

; 233  : 
; 234  : 					for (point = 0; point < MAX_META_SMOKE_LIST_ATTACHMENT_POINTS; point ++)

  001d0	c7 45 ec 00 00
	00 00		 mov	 DWORD PTR _point$[ebp], 0
  001d7	eb 09		 jmp	 SHORT $LN6@pack_ship_
$LN4@pack_ship_:
  001d9	8b 45 ec	 mov	 eax, DWORD PTR _point$[ebp]
  001dc	83 c0 01	 add	 eax, 1
  001df	89 45 ec	 mov	 DWORD PTR _point$[ebp], eax
$LN6@pack_ship_:
  001e2	83 7d ec 02	 cmp	 DWORD PTR _point$[ebp], 2
  001e6	7d 30		 jge	 SHORT $LN5@pack_ship_

; 235  : 					{
; 236  : 						attachment_point = attached_meta_smoke_list_table [item].attachment_point [point];

  001e8	6b 45 f8 0c	 imul	 eax, DWORD PTR _item$[ebp], 12
  001ec	8b 4d ec	 mov	 ecx, DWORD PTR _point$[ebp]
  001ef	8b 94 88 04 00
	00 00		 mov	 edx, DWORD PTR ?attached_meta_smoke_list_table@@3PAUATTACHED_META_SMOKE_LIST_TABLE@@A[eax+ecx*4+4]
  001f6	89 55 e0	 mov	 DWORD PTR _attachment_point$[ebp], edx

; 237  : 
; 238  : 						if (attachment_point == -1)

  001f9	83 7d e0 ff	 cmp	 DWORD PTR _attachment_point$[ebp], -1
  001fd	75 04		 jne	 SHORT $LN17@pack_ship_

; 239  : 						{
; 240  : 							break;

  001ff	eb 17		 jmp	 SHORT $LN5@pack_ship_

; 241  : 						}
; 242  : 						else

  00201	eb 13		 jmp	 SHORT $LN18@pack_ship_
$LN17@pack_ship_:

; 243  : 						{
; 244  : 							count += count_sub_object_type_depth (inst3d, attachment_point);

  00203	8b 45 e0	 mov	 eax, DWORD PTR _attachment_point$[ebp]
  00206	50		 push	 eax
  00207	8b 4d fc	 mov	 ecx, DWORD PTR _inst3d$[ebp]
  0020a	51		 push	 ecx
  0020b	e8 00 00 00 00	 call	 ?count_sub_object_type_depth@@YGHPAUOBJECT_3D_INSTANCE@@H@Z ; count_sub_object_type_depth
  00210	03 45 f0	 add	 eax, DWORD PTR _count$[ebp]
  00213	89 45 f0	 mov	 DWORD PTR _count$[ebp], eax
$LN18@pack_ship_:

; 245  : 						}
; 246  : 					}

  00216	eb c1		 jmp	 SHORT $LN4@pack_ship_
$LN5@pack_ship_:

; 247  : 
; 248  : 					count *= count_entities_in_meta_smoke_list (type);

  00218	8b 45 dc	 mov	 eax, DWORD PTR _type$[ebp]
  0021b	50		 push	 eax
  0021c	e8 00 00 00 00	 call	 ?count_entities_in_meta_smoke_list@@YGHW4META_SMOKE_LIST_TYPES@@@Z ; count_entities_in_meta_smoke_list
  00221	0f af 45 f0	 imul	 eax, DWORD PTR _count$[ebp]
  00225	89 45 f0	 mov	 DWORD PTR _count$[ebp], eax

; 249  : 
; 250  : 					if (count > 0)

  00228	83 7d f0 00	 cmp	 DWORD PTR _count$[ebp], 0
  0022c	0f 8e 29 02 00
	00		 jle	 $LN16@pack_ship_

; 251  : 					{
; 252  : 						packed_indices = 0;

  00232	c7 45 e8 00 00
	00 00		 mov	 DWORD PTR _packed_indices$[ebp], 0

; 253  : 
; 254  : 						for (loop = 0 ; loop < count ; loop ++)

  00239	c7 45 f4 00 00
	00 00		 mov	 DWORD PTR _loop$[ebp], 0
  00240	eb 09		 jmp	 SHORT $LN9@pack_ship_
$LN7@pack_ship_:
  00242	8b 45 f4	 mov	 eax, DWORD PTR _loop$[ebp]
  00245	83 c0 01	 add	 eax, 1
  00248	89 45 f4	 mov	 DWORD PTR _loop$[ebp], eax
$LN9@pack_ship_:
  0024b	8b 45 f4	 mov	 eax, DWORD PTR _loop$[ebp]
  0024e	3b 45 f0	 cmp	 eax, DWORD PTR _count$[ebp]
  00251	0f 8d e4 01 00
	00		 jge	 $LN8@pack_ship_
$LN10@pack_ship_:

; 255  : 						{
; 256  : 							while (TRUE)

  00257	b8 01 00 00 00	 mov	 eax, 1
  0025c	85 c0		 test	 eax, eax
  0025e	0f 84 d2 01 00
	00		 je	 $LN11@pack_ship_

; 257  : 							{
; 258  : 								ASSERT (special_effect);

  00264	83 7d e4 00	 cmp	 DWORD PTR _special_effect$[ebp], 0
  00268	75 18		 jne	 SHORT $LN20@pack_ship_
  0026a	a1 00 00 00 00	 mov	 eax, DWORD PTR ?__LINE__Var@?0??pack_ship_meta_smoke_lists@@YGXPAUENTITY@@W4PACK_MODES@@@Z@4JA
  0026f	83 c0 51	 add	 eax, 81			; 00000051H
  00272	50		 push	 eax
  00273	68 00 00 00 00	 push	 OFFSET ??_C@_0EO@GEIEDHND@c?3?2users?2nhv90?2projects?2eech?2ap@
  00278	68 00 00 00 00	 push	 OFFSET ??_C@_0P@KGPELPEG@special_effect@
  0027d	e8 00 00 00 00	 call	 ?process_assert@@YGXPBD0H@Z ; process_assert
$LN20@pack_ship_:

; 259  : 
; 260  : 								if (special_effect->type == ENTITY_TYPE_SMOKE_LIST)

  00282	8b 45 e4	 mov	 eax, DWORD PTR _special_effect$[ebp]
  00285	83 38 1f	 cmp	 DWORD PTR [eax], 31	; 0000001fH
  00288	0f 85 23 01 00
	00		 jne	 $LN21@pack_ship_

; 261  : 								{
; 262  : 									if (effect_database [get_local_entity_int_value (special_effect, INT_TYPE_ENTITY_SUB_TYPE)].constructed_locally)

  0028e	83 7d e4 00	 cmp	 DWORD PTR _special_effect$[ebp], 0
  00292	74 0a		 je	 SHORT $LN37@pack_ship_
  00294	8b 45 e4	 mov	 eax, DWORD PTR _special_effect$[ebp]
  00297	8b 08		 mov	 ecx, DWORD PTR [eax]
  00299	89 4d 98	 mov	 DWORD PTR tv193[ebp], ecx
  0029c	eb 1d		 jmp	 SHORT $LN38@pack_ship_
$LN37@pack_ship_:
  0029e	68 06 01 00 00	 push	 262			; 00000106H
  002a3	68 00 00 00 00	 push	 OFFSET ??_C@_0EO@GEIEDHND@c?3?2users?2nhv90?2projects?2eech?2ap@
  002a8	8b 15 00 00 00
	00		 mov	 edx, DWORD PTR ?null_entity_pointer_message@@3PBDB ; null_entity_pointer_message
  002ae	52		 push	 edx
  002af	e8 00 00 00 00	 call	 ?process_assert@@YGXPBD0H@Z ; process_assert
  002b4	c7 45 98 00 00
	00 00		 mov	 DWORD PTR tv193[ebp], 0
$LN38@pack_ship_:
  002bb	b8 01 00 00 00	 mov	 eax, 1
  002c0	85 c0		 test	 eax, eax
  002c2	74 09		 je	 SHORT $LN39@pack_ship_
  002c4	c7 45 94 34 00
	00 00		 mov	 DWORD PTR tv200[ebp], 52 ; 00000034H
  002cb	eb 1d		 jmp	 SHORT $LN40@pack_ship_
$LN39@pack_ship_:
  002cd	68 06 01 00 00	 push	 262			; 00000106H
  002d2	68 00 00 00 00	 push	 OFFSET ??_C@_0EO@GEIEDHND@c?3?2users?2nhv90?2projects?2eech?2ap@
  002d7	8b 0d 00 00 00
	00		 mov	 ecx, DWORD PTR ?overload_invalid_int_type_message@@3PBDB ; overload_invalid_int_type_message
  002dd	51		 push	 ecx
  002de	e8 00 00 00 00	 call	 ?process_assert@@YGXPBD0H@Z ; process_assert
  002e3	c7 45 94 00 00
	00 00		 mov	 DWORD PTR tv200[ebp], 0
$LN40@pack_ship_:
  002ea	6a 34		 push	 52			; 00000034H
  002ec	8b 55 e4	 mov	 edx, DWORD PTR _special_effect$[ebp]
  002ef	52		 push	 edx
  002f0	69 45 98 5c 04
	00 00		 imul	 eax, DWORD PTR tv193[ebp], 1116
  002f7	8b 4d 94	 mov	 ecx, DWORD PTR tv200[ebp]
  002fa	8b 94 88 00 00
	00 00		 mov	 edx, DWORD PTR ?fn_get_local_entity_int_value@@3PAY0BBH@P6GHPAUENTITY@@W4INT_TYPES@@@ZA[eax+ecx*4]
  00301	ff d2		 call	 edx
  00303	83 3c 85 00 00
	00 00 00	 cmp	 DWORD PTR ?effect_database@@3QBUEFFECT_DATA@@B[eax*4], 0
  0030b	0f 84 a0 00 00
	00		 je	 $LN21@pack_ship_

; 263  : 									{
; 264  : 										pack_entity_safe_index (get_local_entity_index (special_effect));

  00311	8b 45 e4	 mov	 eax, DWORD PTR _special_effect$[ebp]
  00314	2b 05 00 00 00
	00		 sub	 eax, DWORD PTR ?entities@@3PAUENTITY@@A ; entities
  0031a	c1 f8 04	 sar	 eax, 4
  0031d	50		 push	 eax
  0031e	e8 00 00 00 00	 call	 ?pack_entity_safe_index@@YGXH@Z ; pack_entity_safe_index

; 265  : 	
; 266  : 										#if DEBUG_MODULE
; 267  : 	
; 268  : 										debug_log ("SHIP : Index %d = %d", packed_indices, get_local_entity_index (special_effect));
; 269  : 	
; 270  : 										#endif
; 271  : 	
; 272  : 										packed_indices ++;

  00323	8b 45 e8	 mov	 eax, DWORD PTR _packed_indices$[ebp]
  00326	83 c0 01	 add	 eax, 1
  00329	89 45 e8	 mov	 DWORD PTR _packed_indices$[ebp], eax

; 273  : 
; 274  : 										special_effect = get_local_entity_child_succ (special_effect, LIST_TYPE_SPECIAL_EFFECT);

  0032c	83 7d e4 00	 cmp	 DWORD PTR _special_effect$[ebp], 0
  00330	74 0a		 je	 SHORT $LN41@pack_ship_
  00332	8b 45 e4	 mov	 eax, DWORD PTR _special_effect$[ebp]
  00335	8b 08		 mov	 ecx, DWORD PTR [eax]
  00337	89 4d 98	 mov	 DWORD PTR tv220[ebp], ecx
  0033a	eb 21		 jmp	 SHORT $LN42@pack_ship_
$LN41@pack_ship_:
  0033c	8b 15 00 00 00
	00		 mov	 edx, DWORD PTR ?__LINE__Var@?0??pack_ship_meta_smoke_lists@@YGXPAUENTITY@@W4PACK_MODES@@@Z@4JA
  00342	83 c2 61	 add	 edx, 97			; 00000061H
  00345	52		 push	 edx
  00346	68 00 00 00 00	 push	 OFFSET ??_C@_0EO@GEIEDHND@c?3?2users?2nhv90?2projects?2eech?2ap@
  0034b	a1 00 00 00 00	 mov	 eax, DWORD PTR ?null_entity_pointer_message@@3PBDB ; null_entity_pointer_message
  00350	50		 push	 eax
  00351	e8 00 00 00 00	 call	 ?process_assert@@YGXPBD0H@Z ; process_assert
  00356	c7 45 98 00 00
	00 00		 mov	 DWORD PTR tv220[ebp], 0
$LN42@pack_ship_:
  0035d	b9 01 00 00 00	 mov	 ecx, 1
  00362	85 c9		 test	 ecx, ecx
  00364	74 09		 je	 SHORT $LN43@pack_ship_
  00366	c7 45 94 24 00
	00 00		 mov	 DWORD PTR tv228[ebp], 36 ; 00000024H
  0036d	eb 21		 jmp	 SHORT $LN44@pack_ship_
$LN43@pack_ship_:
  0036f	8b 15 00 00 00
	00		 mov	 edx, DWORD PTR ?__LINE__Var@?0??pack_ship_meta_smoke_lists@@YGXPAUENTITY@@W4PACK_MODES@@@Z@4JA
  00375	83 c2 61	 add	 edx, 97			; 00000061H
  00378	52		 push	 edx
  00379	68 00 00 00 00	 push	 OFFSET ??_C@_0EO@GEIEDHND@c?3?2users?2nhv90?2projects?2eech?2ap@
  0037e	a1 00 00 00 00	 mov	 eax, DWORD PTR ?overload_invalid_list_type_message@@3PBDB ; overload_invalid_list_type_message
  00383	50		 push	 eax
  00384	e8 00 00 00 00	 call	 ?process_assert@@YGXPBD0H@Z ; process_assert
  00389	c7 45 94 00 00
	00 00		 mov	 DWORD PTR tv228[ebp], 0
$LN44@pack_ship_:
  00390	6a 24		 push	 36			; 00000024H
  00392	8b 4d e4	 mov	 ecx, DWORD PTR _special_effect$[ebp]
  00395	51		 push	 ecx
  00396	69 55 98 b4 00
	00 00		 imul	 edx, DWORD PTR tv220[ebp], 180
  0039d	8b 45 94	 mov	 eax, DWORD PTR tv228[ebp]
  003a0	8b 8c 82 00 00
	00 00		 mov	 ecx, DWORD PTR ?fn_get_local_entity_child_succ@@3PAY0CN@P6GPAUENTITY@@PAU1@W4LIST_TYPES@@@ZA[edx+eax*4]
  003a7	ff d1		 call	 ecx
  003a9	89 45 e4	 mov	 DWORD PTR _special_effect$[ebp], eax

; 275  : 
; 276  : 										break;

  003ac	e9 85 00 00 00	 jmp	 $LN11@pack_ship_
$LN21@pack_ship_:

; 277  : 									}
; 278  : 								}
; 279  : 	
; 280  : 								special_effect = get_local_entity_child_succ (special_effect, LIST_TYPE_SPECIAL_EFFECT);

  003b1	83 7d e4 00	 cmp	 DWORD PTR _special_effect$[ebp], 0
  003b5	74 0a		 je	 SHORT $LN45@pack_ship_
  003b7	8b 45 e4	 mov	 eax, DWORD PTR _special_effect$[ebp]
  003ba	8b 08		 mov	 ecx, DWORD PTR [eax]
  003bc	89 4d 98	 mov	 DWORD PTR tv240[ebp], ecx
  003bf	eb 21		 jmp	 SHORT $LN46@pack_ship_
$LN45@pack_ship_:
  003c1	8b 15 00 00 00
	00		 mov	 edx, DWORD PTR ?__LINE__Var@?0??pack_ship_meta_smoke_lists@@YGXPAUENTITY@@W4PACK_MODES@@@Z@4JA
  003c7	83 c2 67	 add	 edx, 103		; 00000067H
  003ca	52		 push	 edx
  003cb	68 00 00 00 00	 push	 OFFSET ??_C@_0EO@GEIEDHND@c?3?2users?2nhv90?2projects?2eech?2ap@
  003d0	a1 00 00 00 00	 mov	 eax, DWORD PTR ?null_entity_pointer_message@@3PBDB ; null_entity_pointer_message
  003d5	50		 push	 eax
  003d6	e8 00 00 00 00	 call	 ?process_assert@@YGXPBD0H@Z ; process_assert
  003db	c7 45 98 00 00
	00 00		 mov	 DWORD PTR tv240[ebp], 0
$LN46@pack_ship_:
  003e2	b9 01 00 00 00	 mov	 ecx, 1
  003e7	85 c9		 test	 ecx, ecx
  003e9	74 09		 je	 SHORT $LN47@pack_ship_
  003eb	c7 45 94 24 00
	00 00		 mov	 DWORD PTR tv248[ebp], 36 ; 00000024H
  003f2	eb 21		 jmp	 SHORT $LN48@pack_ship_
$LN47@pack_ship_:
  003f4	8b 15 00 00 00
	00		 mov	 edx, DWORD PTR ?__LINE__Var@?0??pack_ship_meta_smoke_lists@@YGXPAUENTITY@@W4PACK_MODES@@@Z@4JA
  003fa	83 c2 67	 add	 edx, 103		; 00000067H
  003fd	52		 push	 edx
  003fe	68 00 00 00 00	 push	 OFFSET ??_C@_0EO@GEIEDHND@c?3?2users?2nhv90?2projects?2eech?2ap@
  00403	a1 00 00 00 00	 mov	 eax, DWORD PTR ?overload_invalid_list_type_message@@3PBDB ; overload_invalid_list_type_message
  00408	50		 push	 eax
  00409	e8 00 00 00 00	 call	 ?process_assert@@YGXPBD0H@Z ; process_assert
  0040e	c7 45 94 00 00
	00 00		 mov	 DWORD PTR tv248[ebp], 0
$LN48@pack_ship_:
  00415	6a 24		 push	 36			; 00000024H
  00417	8b 4d e4	 mov	 ecx, DWORD PTR _special_effect$[ebp]
  0041a	51		 push	 ecx
  0041b	69 55 98 b4 00
	00 00		 imul	 edx, DWORD PTR tv240[ebp], 180
  00422	8b 45 94	 mov	 eax, DWORD PTR tv248[ebp]
  00425	8b 8c 82 00 00
	00 00		 mov	 ecx, DWORD PTR ?fn_get_local_entity_child_succ@@3PAY0CN@P6GPAUENTITY@@PAU1@W4LIST_TYPES@@@ZA[edx+eax*4]
  0042c	ff d1		 call	 ecx
  0042e	89 45 e4	 mov	 DWORD PTR _special_effect$[ebp], eax

; 281  : 							}

  00431	e9 21 fe ff ff	 jmp	 $LN10@pack_ship_
$LN11@pack_ship_:

; 282  : 						}

  00436	e9 07 fe ff ff	 jmp	 $LN7@pack_ship_
$LN8@pack_ship_:

; 283  : 
; 284  : 						//
; 285  : 						// check to make sure that only vehicle wake smoke lists are being sent across ( and also the right amount of them )
; 286  : 						//
; 287  : 
; 288  : 						ASSERT (packed_indices == count);

  0043b	8b 45 e8	 mov	 eax, DWORD PTR _packed_indices$[ebp]
  0043e	3b 45 f0	 cmp	 eax, DWORD PTR _count$[ebp]
  00441	74 18		 je	 SHORT $LN16@pack_ship_
  00443	a1 00 00 00 00	 mov	 eax, DWORD PTR ?__LINE__Var@?0??pack_ship_meta_smoke_lists@@YGXPAUENTITY@@W4PACK_MODES@@@Z@4JA
  00448	83 c0 6f	 add	 eax, 111		; 0000006fH
  0044b	50		 push	 eax
  0044c	68 00 00 00 00	 push	 OFFSET ??_C@_0EO@GEIEDHND@c?3?2users?2nhv90?2projects?2eech?2ap@
  00451	68 00 00 00 00	 push	 OFFSET ??_C@_0BI@MBKKNMHC@packed_indices?5?$DN?$DN?5count@
  00456	e8 00 00 00 00	 call	 ?process_assert@@YGXPBD0H@Z ; process_assert
$LN16@pack_ship_:

; 289  : 					}
; 290  : 				}
; 291  : 
; 292  : 				item ++;

  0045b	8b 45 f8	 mov	 eax, DWORD PTR _item$[ebp]
  0045e	83 c0 01	 add	 eax, 1
  00461	89 45 f8	 mov	 DWORD PTR _item$[ebp], eax

; 293  : 			}

  00464	e9 36 fd ff ff	 jmp	 $LN2@pack_ship_
$LN1@pack_ship_:

; 294  : 		}
; 295  : 	}
; 296  : }

  00469	5f		 pop	 edi
  0046a	5e		 pop	 esi
  0046b	5b		 pop	 ebx
  0046c	8b e5		 mov	 esp, ebp
  0046e	5d		 pop	 ebp
  0046f	c2 08 00	 ret	 8
?pack_ship_meta_smoke_lists@@YGXPAUENTITY@@W4PACK_MODES@@@Z ENDP ; pack_ship_meta_smoke_lists
_TEXT	ENDS
; Function compile flags: /Odtp /ZI
; File c:\users\nhv90\projects\eech\aphavoc\source\entity\mobile\vehicle\ship\ship.c
;	COMDAT ?attach_ship_meta_smoke_lists@@YGXPAUENTITY@@@Z
_TEXT	SEGMENT
_type$ = -16						; size = 4
_attachment_point$ = -12				; size = 4
_point$ = -8						; size = 4
_item$ = -4						; size = 4
_en$ = 8						; size = 4
?attach_ship_meta_smoke_lists@@YGXPAUENTITY@@@Z PROC	; attach_ship_meta_smoke_lists, COMDAT

; 132  : {

  00000	55		 push	 ebp
  00001	8b ec		 mov	 ebp, esp
  00003	83 ec 50	 sub	 esp, 80			; 00000050H
  00006	53		 push	 ebx
  00007	56		 push	 esi
  00008	57		 push	 edi

; 133  : 	int
; 134  : 		item,
; 135  : 		point;
; 136  : 
; 137  : 	object_3d_sub_object_index_numbers
; 138  : 		attachment_point;
; 139  : 
; 140  : 	meta_smoke_list_types
; 141  : 		type;
; 142  : 
; 143  : 	item = 0;

  00009	c7 45 fc 00 00
	00 00		 mov	 DWORD PTR _item$[ebp], 0
$LN2@attach_shi:

; 144  : 
; 145  : 	while (TRUE)

  00010	b8 01 00 00 00	 mov	 eax, 1
  00015	85 c0		 test	 eax, eax
  00017	74 68		 je	 SHORT $LN1@attach_shi

; 146  : 	{
; 147  : 		type = attached_meta_smoke_list_table [item].type;

  00019	6b 45 fc 0c	 imul	 eax, DWORD PTR _item$[ebp], 12
  0001d	8b 88 00 00 00
	00		 mov	 ecx, DWORD PTR ?attached_meta_smoke_list_table@@3PAUATTACHED_META_SMOKE_LIST_TABLE@@A[eax]
  00023	89 4d f0	 mov	 DWORD PTR _type$[ebp], ecx

; 148  : 
; 149  : 		if (type == -1)

  00026	83 7d f0 ff	 cmp	 DWORD PTR _type$[ebp], -1
  0002a	75 04		 jne	 SHORT $LN7@attach_shi

; 150  : 		{
; 151  : 			break;

  0002c	eb 53		 jmp	 SHORT $LN1@attach_shi

; 152  : 		}
; 153  : 		else

  0002e	eb 46		 jmp	 SHORT $LN8@attach_shi
$LN7@attach_shi:

; 154  : 		{
; 155  : 			for (point = 0; point < MAX_META_SMOKE_LIST_ATTACHMENT_POINTS; point ++)

  00030	c7 45 f8 00 00
	00 00		 mov	 DWORD PTR _point$[ebp], 0
  00037	eb 09		 jmp	 SHORT $LN6@attach_shi
$LN4@attach_shi:
  00039	8b 45 f8	 mov	 eax, DWORD PTR _point$[ebp]
  0003c	83 c0 01	 add	 eax, 1
  0003f	89 45 f8	 mov	 DWORD PTR _point$[ebp], eax
$LN6@attach_shi:
  00042	83 7d f8 02	 cmp	 DWORD PTR _point$[ebp], 2
  00046	7d 2e		 jge	 SHORT $LN8@attach_shi

; 156  : 			{
; 157  : 				attachment_point = attached_meta_smoke_list_table [item].attachment_point [point];

  00048	6b 45 fc 0c	 imul	 eax, DWORD PTR _item$[ebp], 12
  0004c	8b 4d f8	 mov	 ecx, DWORD PTR _point$[ebp]
  0004f	8b 94 88 04 00
	00 00		 mov	 edx, DWORD PTR ?attached_meta_smoke_list_table@@3PAUATTACHED_META_SMOKE_LIST_TABLE@@A[eax+ecx*4+4]
  00056	89 55 f4	 mov	 DWORD PTR _attachment_point$[ebp], edx

; 158  : 
; 159  : 				if (attachment_point == -1)

  00059	83 7d f4 ff	 cmp	 DWORD PTR _attachment_point$[ebp], -1
  0005d	75 02		 jne	 SHORT $LN9@attach_shi

; 160  : 				{
; 161  : 					break;

  0005f	eb 15		 jmp	 SHORT $LN8@attach_shi
$LN9@attach_shi:

; 162  : 				}
; 163  : 
; 164  : 				attach_local_meta_smoke_lists_to_object (en, type, attachment_point, NULL);

  00061	6a 00		 push	 0
  00063	8b 45 f4	 mov	 eax, DWORD PTR _attachment_point$[ebp]
  00066	50		 push	 eax
  00067	8b 4d f0	 mov	 ecx, DWORD PTR _type$[ebp]
  0006a	51		 push	 ecx
  0006b	8b 55 08	 mov	 edx, DWORD PTR _en$[ebp]
  0006e	52		 push	 edx
  0006f	e8 00 00 00 00	 call	 ?attach_local_meta_smoke_lists_to_object@@YGHPAUENTITY@@W4META_SMOKE_LIST_TYPES@@HPAH@Z ; attach_local_meta_smoke_lists_to_object

; 165  : 			}

  00074	eb c3		 jmp	 SHORT $LN4@attach_shi
$LN8@attach_shi:

; 166  : 		}
; 167  : 
; 168  : 		item ++;

  00076	8b 45 fc	 mov	 eax, DWORD PTR _item$[ebp]
  00079	83 c0 01	 add	 eax, 1
  0007c	89 45 fc	 mov	 DWORD PTR _item$[ebp], eax

; 169  : 	}

  0007f	eb 8f		 jmp	 SHORT $LN2@attach_shi
$LN1@attach_shi:

; 170  : }

  00081	5f		 pop	 edi
  00082	5e		 pop	 esi
  00083	5b		 pop	 ebx
  00084	8b e5		 mov	 esp, ebp
  00086	5d		 pop	 ebp
  00087	c2 04 00	 ret	 4
?attach_ship_meta_smoke_lists@@YGXPAUENTITY@@@Z ENDP	; attach_ship_meta_smoke_lists
_TEXT	ENDS
END
