; Listing generated by Microsoft (R) Optimizing Compiler Version 19.16.27045.0 

	TITLE	C:\Users\nhv90\Projects\eech\aphavoc\source\entity\special\effect\smokelst\sl_dstry.c
	.686P
	.XMM
	include listing.inc
	.model	flat

INCLUDELIB MSVCRTD
INCLUDELIB OLDNAMES

PUBLIC	?overload_smoke_list_destroy_functions@@YGXXZ	; overload_smoke_list_destroy_functions
PUBLIC	?__LINE__Var@?0??destroy_server@@YGXPAUENTITY@@@Z@4JA ; `destroy_server'::`1'::__LINE__Var
PUBLIC	??_C@_0FG@BBFNFKCC@c?3?2users?2nhv90?2projects?2eech?2ap@ ; `string'
PUBLIC	??_C@_0CC@BNNNEGEG@assert_client_server_remote_fn?5@ ; `string'
PUBLIC	??_C@_0CB@CFOCLFOK@assert_client_server_local_fn?5?$CI@ ; `string'
PUBLIC	?__LINE__Var@?0??destroy_client@@YGXPAUENTITY@@@Z@4JA ; `destroy_client'::`1'::__LINE__Var
EXTRN	?process_assert@@YGXPBD0H@Z:PROC		; process_assert
EXTRN	?free_mem@@YGXPAX@Z:PROC			; free_mem
EXTRN	?delete_local_entity_from_parents_child_list@@YGXPAUENTITY@@W4LIST_TYPES@@@Z:PROC ; delete_local_entity_from_parents_child_list
EXTRN	?destroy_local_entity@@YGXPAUENTITY@@@Z:PROC	; destroy_local_entity
EXTRN	?transmit_entity_comms_message@@YAXW4ENTITY_COMMS_MESSAGES@@PAUENTITY@@ZZ:PROC ; transmit_entity_comms_message
EXTRN	?assert_client_server_local_fn@@YGHXZ:PROC	; assert_client_server_local_fn
EXTRN	?assert_client_server_remote_fn@@YGHXZ:PROC	; assert_client_server_remote_fn
EXTRN	?set_free_local_entity@@YGXPAUENTITY@@@Z:PROC	; set_free_local_entity
EXTRN	?set_free_entity@@YGXPAUENTITY@@@Z:PROC		; set_free_entity
EXTRN	?command_line_downwash@@3HA:DWORD		; command_line_downwash
EXTRN	?system_comms_data_flow@@3W4COMMS_DATA_FLOW_TYPES@@A:DWORD ; system_comms_data_flow
EXTRN	?fn_destroy_local_entity@@3PAP6GXPAUENTITY@@@ZA:BYTE ; fn_destroy_local_entity
EXTRN	?fn_destroy_client_server_entity@@3PAY01P6GXPAUENTITY@@@ZA:BYTE ; fn_destroy_client_server_entity
EXTRN	?fn_destroy_local_entity_family@@3PAP6GXPAUENTITY@@@ZA:BYTE ; fn_destroy_local_entity_family
EXTRN	?fn_destroy_client_server_entity_family@@3PAY01P6GXPAUENTITY@@@ZA:BYTE ; fn_destroy_client_server_entity_family
EXTRN	?fn_kill_local_entity@@3PAP6GXPAUENTITY@@@ZA:BYTE ; fn_kill_local_entity
EXTRN	?fn_kill_client_server_entity@@3PAY01P6GXPAUENTITY@@@ZA:BYTE ; fn_kill_client_server_entity
EXTRN	?start_of_local_entity_heap@@3HA:DWORD		; start_of_local_entity_heap
EXTRN	?entities@@3PAUENTITY@@A:DWORD			; entities
;	COMDAT ?__LINE__Var@?0??destroy_client@@YGXPAUENTITY@@@Z@4JA
_DATA	SEGMENT
?__LINE__Var@?0??destroy_client@@YGXPAUENTITY@@@Z@4JA DD 0d1H ; `destroy_client'::`1'::__LINE__Var
_DATA	ENDS
;	COMDAT ??_C@_0CB@CFOCLFOK@assert_client_server_local_fn?5?$CI@
CONST	SEGMENT
??_C@_0CB@CFOCLFOK@assert_client_server_local_fn?5?$CI@ DB 'assert_client'
	DB	'_server_local_fn ()', 00H			; `string'
CONST	ENDS
;	COMDAT ??_C@_0CC@BNNNEGEG@assert_client_server_remote_fn?5@
CONST	SEGMENT
??_C@_0CC@BNNNEGEG@assert_client_server_remote_fn?5@ DB 'assert_client_se'
	DB	'rver_remote_fn ()', 00H			; `string'
CONST	ENDS
;	COMDAT ??_C@_0FG@BBFNFKCC@c?3?2users?2nhv90?2projects?2eech?2ap@
CONST	SEGMENT
??_C@_0FG@BBFNFKCC@c?3?2users?2nhv90?2projects?2eech?2ap@ DB 'c:\users\nh'
	DB	'v90\projects\eech\aphavoc\source\entity\special\effect\smokel'
	DB	'st\sl_dstry.c', 00H				; `string'
CONST	ENDS
;	COMDAT ?__LINE__Var@?0??destroy_server@@YGXPAUENTITY@@@Z@4JA
_DATA	SEGMENT
?__LINE__Var@?0??destroy_server@@YGXPAUENTITY@@@Z@4JA DD 0aaH ; `destroy_server'::`1'::__LINE__Var
_DATA	ENDS
; Function compile flags: /Odtp /ZI
; File c:\users\nhv90\projects\eech\aphavoc\source\entity\special\effect\smokelst\sl_dstry.c
;	COMDAT ?destroy_client@@YGXPAUENTITY@@@Z
_TEXT	SEGMENT
_en$ = 8						; size = 4
?destroy_client@@YGXPAUENTITY@@@Z PROC			; destroy_client, COMDAT

; 209  : {

  00000	55		 push	 ebp
  00001	8b ec		 mov	 ebp, esp
  00003	83 ec 40	 sub	 esp, 64			; 00000040H
  00006	53		 push	 ebx
  00007	56		 push	 esi
  00008	57		 push	 edi

; 210  : 	//Xhit: If this is a local entity only then call the destroy local entity. (030428)
; 211  : 	//VJ 030608 if downwash	
; 212  : 	if( command_line_downwash )

  00009	83 3d 00 00 00
	00 00		 cmp	 DWORD PTR ?command_line_downwash@@3HA, 0 ; command_line_downwash
  00010	74 1f		 je	 SHORT $LN2@destroy_cl

; 213  : 	{
; 214  : 		if ( get_local_entity_index( en ) >= start_of_local_entity_heap)

  00012	8b 45 08	 mov	 eax, DWORD PTR _en$[ebp]
  00015	2b 05 00 00 00
	00		 sub	 eax, DWORD PTR ?entities@@3PAUENTITY@@A ; entities
  0001b	c1 f8 04	 sar	 eax, 4
  0001e	3b 05 00 00 00
	00		 cmp	 eax, DWORD PTR ?start_of_local_entity_heap@@3HA ; start_of_local_entity_heap
  00024	7c 09		 jl	 SHORT $LN4@destroy_cl

; 215  : 		{
; 216  : 			destroy_local_entity(en);	

  00026	8b 45 08	 mov	 eax, DWORD PTR _en$[ebp]
  00029	50		 push	 eax
  0002a	e8 00 00 00 00	 call	 ?destroy_local_entity@@YGXPAUENTITY@@@Z ; destroy_local_entity
$LN4@destroy_cl:

; 217  : 		} 
; 218  : 	}	
; 219  : 	else

  0002f	eb 5f		 jmp	 SHORT $LN1@destroy_cl
$LN2@destroy_cl:

; 220  : 	{
; 221  : 		if (get_comms_data_flow () == COMMS_DATA_FLOW_TX)

  00031	83 3d 00 00 00
	00 00		 cmp	 DWORD PTR ?system_comms_data_flow@@3W4COMMS_DATA_FLOW_TYPES@@A, 0 ; system_comms_data_flow
  00038	75 2c		 jne	 SHORT $LN5@destroy_cl

; 222  : 		{
; 223  : 			validate_client_server_remote_fn ();

  0003a	e8 00 00 00 00	 call	 ?assert_client_server_remote_fn@@YGHXZ ; assert_client_server_remote_fn
  0003f	85 c0		 test	 eax, eax
  00041	75 18		 jne	 SHORT $LN7@destroy_cl
  00043	a1 00 00 00 00	 mov	 eax, DWORD PTR ?__LINE__Var@?0??destroy_client@@YGXPAUENTITY@@@Z@4JA
  00048	83 c0 0e	 add	 eax, 14			; 0000000eH
  0004b	50		 push	 eax
  0004c	68 00 00 00 00	 push	 OFFSET ??_C@_0FG@BBFNFKCC@c?3?2users?2nhv90?2projects?2eech?2ap@
  00051	68 00 00 00 00	 push	 OFFSET ??_C@_0CC@BNNNEGEG@assert_client_server_remote_fn?5@
  00056	e8 00 00 00 00	 call	 ?process_assert@@YGXPBD0H@Z ; process_assert
$LN7@destroy_cl:

; 224  : 		
; 225  : 			destroy_remote (en);

  0005b	8b 45 08	 mov	 eax, DWORD PTR _en$[ebp]
  0005e	50		 push	 eax
  0005f	e8 00 00 00 00	 call	 ?destroy_remote@@YGXPAUENTITY@@@Z ; destroy_remote

; 226  : 		}
; 227  : 		else

  00064	eb 2a		 jmp	 SHORT $LN1@destroy_cl
$LN5@destroy_cl:

; 228  : 		{
; 229  : 			validate_client_server_local_fn ();

  00066	e8 00 00 00 00	 call	 ?assert_client_server_local_fn@@YGHXZ ; assert_client_server_local_fn
  0006b	85 c0		 test	 eax, eax
  0006d	75 18		 jne	 SHORT $LN8@destroy_cl
  0006f	a1 00 00 00 00	 mov	 eax, DWORD PTR ?__LINE__Var@?0??destroy_client@@YGXPAUENTITY@@@Z@4JA
  00074	83 c0 14	 add	 eax, 20			; 00000014H
  00077	50		 push	 eax
  00078	68 00 00 00 00	 push	 OFFSET ??_C@_0FG@BBFNFKCC@c?3?2users?2nhv90?2projects?2eech?2ap@
  0007d	68 00 00 00 00	 push	 OFFSET ??_C@_0CB@CFOCLFOK@assert_client_server_local_fn?5?$CI@
  00082	e8 00 00 00 00	 call	 ?process_assert@@YGXPBD0H@Z ; process_assert
$LN8@destroy_cl:

; 230  : 	
; 231  : 			//
; 232  : 			// destroy local using 'full' function
; 233  : 			//
; 234  : 	
; 235  : 			destroy_local_entity (en);

  00087	8b 45 08	 mov	 eax, DWORD PTR _en$[ebp]
  0008a	50		 push	 eax
  0008b	e8 00 00 00 00	 call	 ?destroy_local_entity@@YGXPAUENTITY@@@Z ; destroy_local_entity
$LN1@destroy_cl:

; 236  : 		}
; 237  : 	}
; 238  : }

  00090	5f		 pop	 edi
  00091	5e		 pop	 esi
  00092	5b		 pop	 ebx
  00093	8b e5		 mov	 esp, ebp
  00095	5d		 pop	 ebp
  00096	c2 04 00	 ret	 4
?destroy_client@@YGXPAUENTITY@@@Z ENDP			; destroy_client
_TEXT	ENDS
; Function compile flags: /Odtp /ZI
; File c:\users\nhv90\projects\eech\aphavoc\source\entity\special\effect\smokelst\sl_dstry.c
;	COMDAT ?destroy_server@@YGXPAUENTITY@@@Z
_TEXT	SEGMENT
_en$ = 8						; size = 4
?destroy_server@@YGXPAUENTITY@@@Z PROC			; destroy_server, COMDAT

; 170  : {

  00000	55		 push	 ebp
  00001	8b ec		 mov	 ebp, esp
  00003	83 ec 40	 sub	 esp, 64			; 00000040H
  00006	53		 push	 ebx
  00007	56		 push	 esi
  00008	57		 push	 edi

; 171  : 	//Xhit: Only send destroy entity to remote if this is not a local only created entity. (030428)
; 172  : 	//VJ 030508 if downwash 
; 173  : 	if (command_line_downwash)

  00009	83 3d 00 00 00
	00 00		 cmp	 DWORD PTR ?command_line_downwash@@3HA, 0 ; command_line_downwash
  00010	74 61		 je	 SHORT $LN2@destroy_se

; 174  : 	{
; 175  : 		if(get_local_entity_index( en ) < start_of_local_entity_heap)

  00012	8b 45 08	 mov	 eax, DWORD PTR _en$[ebp]
  00015	2b 05 00 00 00
	00		 sub	 eax, DWORD PTR ?entities@@3PAUENTITY@@A ; entities
  0001b	c1 f8 04	 sar	 eax, 4
  0001e	3b 05 00 00 00
	00		 cmp	 eax, DWORD PTR ?start_of_local_entity_heap@@3HA ; start_of_local_entity_heap
  00024	7d 4b		 jge	 SHORT $LN4@destroy_se

; 176  : 		{
; 177  : 			//
; 178  : 			// destroy remote entity first (keeping local entity valid)
; 179  : 			//
; 180  : 	
; 181  : 			validate_client_server_remote_fn ();

  00026	e8 00 00 00 00	 call	 ?assert_client_server_remote_fn@@YGHXZ ; assert_client_server_remote_fn
  0002b	85 c0		 test	 eax, eax
  0002d	75 18		 jne	 SHORT $LN5@destroy_se
  0002f	a1 00 00 00 00	 mov	 eax, DWORD PTR ?__LINE__Var@?0??destroy_server@@YGXPAUENTITY@@@Z@4JA
  00034	83 c0 0b	 add	 eax, 11			; 0000000bH
  00037	50		 push	 eax
  00038	68 00 00 00 00	 push	 OFFSET ??_C@_0FG@BBFNFKCC@c?3?2users?2nhv90?2projects?2eech?2ap@
  0003d	68 00 00 00 00	 push	 OFFSET ??_C@_0CC@BNNNEGEG@assert_client_server_remote_fn?5@
  00042	e8 00 00 00 00	 call	 ?process_assert@@YGXPBD0H@Z ; process_assert
$LN5@destroy_se:

; 182  : 	
; 183  : 			destroy_remote (en);

  00047	8b 45 08	 mov	 eax, DWORD PTR _en$[ebp]
  0004a	50		 push	 eax
  0004b	e8 00 00 00 00	 call	 ?destroy_remote@@YGXPAUENTITY@@@Z ; destroy_remote

; 184  : 	
; 185  : 			validate_client_server_local_fn ();

  00050	e8 00 00 00 00	 call	 ?assert_client_server_local_fn@@YGHXZ ; assert_client_server_local_fn
  00055	85 c0		 test	 eax, eax
  00057	75 18		 jne	 SHORT $LN4@destroy_se
  00059	a1 00 00 00 00	 mov	 eax, DWORD PTR ?__LINE__Var@?0??destroy_server@@YGXPAUENTITY@@@Z@4JA
  0005e	83 c0 0f	 add	 eax, 15			; 0000000fH
  00061	50		 push	 eax
  00062	68 00 00 00 00	 push	 OFFSET ??_C@_0FG@BBFNFKCC@c?3?2users?2nhv90?2projects?2eech?2ap@
  00067	68 00 00 00 00	 push	 OFFSET ??_C@_0CB@CFOCLFOK@assert_client_server_local_fn?5?$CI@
  0006c	e8 00 00 00 00	 call	 ?process_assert@@YGXPBD0H@Z ; process_assert
$LN4@destroy_se:

; 186  : 		}
; 187  : 	}
; 188  : 	else

  00071	eb 4b		 jmp	 SHORT $LN3@destroy_se
$LN2@destroy_se:

; 189  : 	{
; 190  : 		validate_client_server_remote_fn ();

  00073	e8 00 00 00 00	 call	 ?assert_client_server_remote_fn@@YGHXZ ; assert_client_server_remote_fn
  00078	85 c0		 test	 eax, eax
  0007a	75 18		 jne	 SHORT $LN7@destroy_se
  0007c	a1 00 00 00 00	 mov	 eax, DWORD PTR ?__LINE__Var@?0??destroy_server@@YGXPAUENTITY@@@Z@4JA
  00081	83 c0 14	 add	 eax, 20			; 00000014H
  00084	50		 push	 eax
  00085	68 00 00 00 00	 push	 OFFSET ??_C@_0FG@BBFNFKCC@c?3?2users?2nhv90?2projects?2eech?2ap@
  0008a	68 00 00 00 00	 push	 OFFSET ??_C@_0CC@BNNNEGEG@assert_client_server_remote_fn?5@
  0008f	e8 00 00 00 00	 call	 ?process_assert@@YGXPBD0H@Z ; process_assert
$LN7@destroy_se:

; 191  : 
; 192  : 		destroy_remote (en);

  00094	8b 45 08	 mov	 eax, DWORD PTR _en$[ebp]
  00097	50		 push	 eax
  00098	e8 00 00 00 00	 call	 ?destroy_remote@@YGXPAUENTITY@@@Z ; destroy_remote

; 193  : 
; 194  : 		validate_client_server_local_fn ();

  0009d	e8 00 00 00 00	 call	 ?assert_client_server_local_fn@@YGHXZ ; assert_client_server_local_fn
  000a2	85 c0		 test	 eax, eax
  000a4	75 18		 jne	 SHORT $LN3@destroy_se
  000a6	a1 00 00 00 00	 mov	 eax, DWORD PTR ?__LINE__Var@?0??destroy_server@@YGXPAUENTITY@@@Z@4JA
  000ab	83 c0 18	 add	 eax, 24			; 00000018H
  000ae	50		 push	 eax
  000af	68 00 00 00 00	 push	 OFFSET ??_C@_0FG@BBFNFKCC@c?3?2users?2nhv90?2projects?2eech?2ap@
  000b4	68 00 00 00 00	 push	 OFFSET ??_C@_0CB@CFOCLFOK@assert_client_server_local_fn?5?$CI@
  000b9	e8 00 00 00 00	 call	 ?process_assert@@YGXPBD0H@Z ; process_assert
$LN3@destroy_se:

; 195  : 	}	
; 196  : 
; 197  : 	//
; 198  : 	// destroy local using 'full' function
; 199  : 	//
; 200  : 
; 201  : 	destroy_local_entity (en);

  000be	8b 45 08	 mov	 eax, DWORD PTR _en$[ebp]
  000c1	50		 push	 eax
  000c2	e8 00 00 00 00	 call	 ?destroy_local_entity@@YGXPAUENTITY@@@Z ; destroy_local_entity

; 202  : }

  000c7	5f		 pop	 edi
  000c8	5e		 pop	 esi
  000c9	5b		 pop	 ebx
  000ca	8b e5		 mov	 esp, ebp
  000cc	5d		 pop	 ebp
  000cd	c2 04 00	 ret	 4
?destroy_server@@YGXPAUENTITY@@@Z ENDP			; destroy_server
_TEXT	ENDS
; Function compile flags: /Odtp /ZI
; File c:\users\nhv90\projects\eech\aphavoc\source\entity\special\effect\smokelst\sl_dstry.c
;	COMDAT ?destroy_remote@@YGXPAUENTITY@@@Z
_TEXT	SEGMENT
_en$ = 8						; size = 4
?destroy_remote@@YGXPAUENTITY@@@Z PROC			; destroy_remote, COMDAT

; 155  : {

  00000	55		 push	 ebp
  00001	8b ec		 mov	 ebp, esp
  00003	83 ec 40	 sub	 esp, 64			; 00000040H
  00006	53		 push	 ebx
  00007	56		 push	 esi
  00008	57		 push	 edi

; 156  : 	#if DEBUG_MODULE
; 157  : 
; 158  : 	debug_log_entity_args (ENTITY_DEBUG_REMOTE, ENTITY_DEBUG_DESTROY, en);
; 159  : 
; 160  : 	#endif
; 161  : 
; 162  : 	transmit_entity_comms_message (ENTITY_COMMS_DESTROY, en);

  00009	8b 45 08	 mov	 eax, DWORD PTR _en$[ebp]
  0000c	50		 push	 eax
  0000d	6a 12		 push	 18			; 00000012H
  0000f	e8 00 00 00 00	 call	 ?transmit_entity_comms_message@@YAXW4ENTITY_COMMS_MESSAGES@@PAUENTITY@@ZZ ; transmit_entity_comms_message
  00014	83 c4 08	 add	 esp, 8

; 163  : }

  00017	5f		 pop	 edi
  00018	5e		 pop	 esi
  00019	5b		 pop	 ebx
  0001a	8b e5		 mov	 esp, ebp
  0001c	5d		 pop	 ebp
  0001d	c2 04 00	 ret	 4
?destroy_remote@@YGXPAUENTITY@@@Z ENDP			; destroy_remote
_TEXT	ENDS
; Function compile flags: /Odtp /ZI
; File c:\users\nhv90\projects\eech\aphavoc\source\entity\special\effect\smokelst\sl_dstry.c
;	COMDAT ?destroy_local@@YGXPAUENTITY@@@Z
_TEXT	SEGMENT
_raw$ = -4						; size = 4
_en$ = 8						; size = 4
?destroy_local@@YGXPAUENTITY@@@Z PROC			; destroy_local, COMDAT

; 80   : {

  00000	55		 push	 ebp
  00001	8b ec		 mov	 ebp, esp
  00003	83 ec 44	 sub	 esp, 68			; 00000044H
  00006	53		 push	 ebx
  00007	56		 push	 esi
  00008	57		 push	 edi

; 81   : 	smoke_list
; 82   : 		*raw;
; 83   : 
; 84   : 	////////////////////////////////////////
; 85   : 	//
; 86   : 	// PRE-AMBLE
; 87   : 	//
; 88   : 	////////////////////////////////////////
; 89   : 
; 90   : 	#if DEBUG_MODULE
; 91   : 
; 92   : 	debug_log_entity_args (ENTITY_DEBUG_LOCAL, ENTITY_DEBUG_DESTROY, en);
; 93   : 
; 94   : 	#endif
; 95   : 
; 96   : 	raw = (smoke_list *) get_local_entity_data (en);

  00009	8b 45 08	 mov	 eax, DWORD PTR _en$[ebp]
  0000c	8b 48 04	 mov	 ecx, DWORD PTR [eax+4]
  0000f	89 4d fc	 mov	 DWORD PTR _raw$[ebp], ecx

; 97   : 
; 98   : 	////////////////////////////////////////
; 99   : 	//
; 100  : 	// VALIDATE
; 101  : 	//
; 102  : 	////////////////////////////////////////
; 103  : 
; 104  : 	////////////////////////////////////////
; 105  : 	//
; 106  : 	// DESTROY COMPONENTS
; 107  : 	//
; 108  : 	////////////////////////////////////////
; 109  : 
; 110  : 	free_mem (raw->valid);

  00012	8b 45 fc	 mov	 eax, DWORD PTR _raw$[ebp]
  00015	8b 48 7c	 mov	 ecx, DWORD PTR [eax+124]
  00018	51		 push	 ecx
  00019	e8 00 00 00 00	 call	 ?free_mem@@YGXPAX@Z	; free_mem

; 111  : 
; 112  : 	free_mem (raw->position);

  0001e	8b 45 fc	 mov	 eax, DWORD PTR _raw$[ebp]
  00021	8b 48 70	 mov	 ecx, DWORD PTR [eax+112]
  00024	51		 push	 ecx
  00025	e8 00 00 00 00	 call	 ?free_mem@@YGXPAX@Z	; free_mem

; 113  : 
; 114  : 	free_mem (raw->motion_vector);

  0002a	8b 45 fc	 mov	 eax, DWORD PTR _raw$[ebp]
  0002d	8b 48 6c	 mov	 ecx, DWORD PTR [eax+108]
  00030	51		 push	 ecx
  00031	e8 00 00 00 00	 call	 ?free_mem@@YGXPAX@Z	; free_mem

; 115  : 
; 116  : 	free_mem (raw->start_rotation);

  00036	8b 45 fc	 mov	 eax, DWORD PTR _raw$[ebp]
  00039	8b 48 74	 mov	 ecx, DWORD PTR [eax+116]
  0003c	51		 push	 ecx
  0003d	e8 00 00 00 00	 call	 ?free_mem@@YGXPAX@Z	; free_mem

; 117  : 
; 118  : 	////////////////////////////////////////
; 119  : 	//
; 120  : 	// UNLINK FROM SYSTEM
; 121  : 	//
; 122  : 	////////////////////////////////////////
; 123  : 
; 124  : 	delete_local_entity_from_parents_child_list (en, LIST_TYPE_UPDATE);

  00042	6a 29		 push	 41			; 00000029H
  00044	8b 45 08	 mov	 eax, DWORD PTR _en$[ebp]
  00047	50		 push	 eax
  00048	e8 00 00 00 00	 call	 ?delete_local_entity_from_parents_child_list@@YGXPAUENTITY@@W4LIST_TYPES@@@Z ; delete_local_entity_from_parents_child_list

; 125  : 
; 126  : 	delete_local_entity_from_parents_child_list (en, LIST_TYPE_SECTOR);

  0004d	6a 21		 push	 33			; 00000021H
  0004f	8b 45 08	 mov	 eax, DWORD PTR _en$[ebp]
  00052	50		 push	 eax
  00053	e8 00 00 00 00	 call	 ?delete_local_entity_from_parents_child_list@@YGXPAUENTITY@@W4LIST_TYPES@@@Z ; delete_local_entity_from_parents_child_list

; 127  : 
; 128  : 	delete_local_entity_from_parents_child_list (en, LIST_TYPE_SPECIAL_EFFECT);

  00058	6a 24		 push	 36			; 00000024H
  0005a	8b 45 08	 mov	 eax, DWORD PTR _en$[ebp]
  0005d	50		 push	 eax
  0005e	e8 00 00 00 00	 call	 ?delete_local_entity_from_parents_child_list@@YGXPAUENTITY@@W4LIST_TYPES@@@Z ; delete_local_entity_from_parents_child_list

; 129  : 
; 130  : 	////////////////////////////////////////
; 131  : 	//
; 132  : 	// FREE ENTITY DATA
; 133  : 	//
; 134  : 	////////////////////////////////////////
; 135  : 
; 136  : 	free_mem (raw);

  00063	8b 45 fc	 mov	 eax, DWORD PTR _raw$[ebp]
  00066	50		 push	 eax
  00067	e8 00 00 00 00	 call	 ?free_mem@@YGXPAX@Z	; free_mem

; 137  : 
; 138  : 	//Xhit. If this is a local only entity then set it free using the local entity heap function. (030428)
; 139  : 	//VJ 030608 if downwash	
; 140  : 	if( command_line_downwash && get_local_entity_index( en ) >= start_of_local_entity_heap)

  0006c	83 3d 00 00 00
	00 00		 cmp	 DWORD PTR ?command_line_downwash@@3HA, 0 ; command_line_downwash
  00073	74 1f		 je	 SHORT $LN2@destroy_lo
  00075	8b 45 08	 mov	 eax, DWORD PTR _en$[ebp]
  00078	2b 05 00 00 00
	00		 sub	 eax, DWORD PTR ?entities@@3PAUENTITY@@A ; entities
  0007e	c1 f8 04	 sar	 eax, 4
  00081	3b 05 00 00 00
	00		 cmp	 eax, DWORD PTR ?start_of_local_entity_heap@@3HA ; start_of_local_entity_heap
  00087	7c 0b		 jl	 SHORT $LN2@destroy_lo

; 141  : 	{
; 142  : 		set_free_local_entity (en);

  00089	8b 45 08	 mov	 eax, DWORD PTR _en$[ebp]
  0008c	50		 push	 eax
  0008d	e8 00 00 00 00	 call	 ?set_free_local_entity@@YGXPAUENTITY@@@Z ; set_free_local_entity

; 143  : 	}
; 144  : 	else

  00092	eb 09		 jmp	 SHORT $LN1@destroy_lo
$LN2@destroy_lo:

; 145  : 	{
; 146  : 		set_free_entity (en);

  00094	8b 45 08	 mov	 eax, DWORD PTR _en$[ebp]
  00097	50		 push	 eax
  00098	e8 00 00 00 00	 call	 ?set_free_entity@@YGXPAUENTITY@@@Z ; set_free_entity
$LN1@destroy_lo:

; 147  : 	}
; 148  : }

  0009d	5f		 pop	 edi
  0009e	5e		 pop	 esi
  0009f	5b		 pop	 ebx
  000a0	8b e5		 mov	 esp, ebp
  000a2	5d		 pop	 ebp
  000a3	c2 04 00	 ret	 4
?destroy_local@@YGXPAUENTITY@@@Z ENDP			; destroy_local
_TEXT	ENDS
; Function compile flags: /Odtp /ZI
; File c:\users\nhv90\projects\eech\aphavoc\source\entity\special\effect\smokelst\sl_dstry.c
;	COMDAT ?overload_smoke_list_destroy_functions@@YGXXZ
_TEXT	SEGMENT
?overload_smoke_list_destroy_functions@@YGXXZ PROC	; overload_smoke_list_destroy_functions, COMDAT

; 245  : {

  00000	55		 push	 ebp
  00001	8b ec		 mov	 ebp, esp
  00003	83 ec 40	 sub	 esp, 64			; 00000040H
  00006	53		 push	 ebx
  00007	56		 push	 esi
  00008	57		 push	 edi

; 246  : 	fn_destroy_local_entity						[ENTITY_TYPE_SMOKE_LIST]							= destroy_local;

  00009	b8 04 00 00 00	 mov	 eax, 4
  0000e	6b c8 1f	 imul	 ecx, eax, 31
  00011	c7 81 00 00 00
	00 00 00 00 00	 mov	 DWORD PTR ?fn_destroy_local_entity@@3PAP6GXPAUENTITY@@@ZA[ecx], OFFSET ?destroy_local@@YGXPAUENTITY@@@Z ; destroy_local

; 247  : 	fn_destroy_client_server_entity			[ENTITY_TYPE_SMOKE_LIST][COMMS_MODEL_SERVER]	= destroy_server;

  0001b	b8 08 00 00 00	 mov	 eax, 8
  00020	6b c8 1f	 imul	 ecx, eax, 31
  00023	ba 04 00 00 00	 mov	 edx, 4
  00028	6b c2 00	 imul	 eax, edx, 0
  0002b	c7 84 01 00 00
	00 00 00 00 00
	00		 mov	 DWORD PTR ?fn_destroy_client_server_entity@@3PAY01P6GXPAUENTITY@@@ZA[ecx+eax], OFFSET ?destroy_server@@YGXPAUENTITY@@@Z ; destroy_server

; 248  : 	fn_destroy_client_server_entity			[ENTITY_TYPE_SMOKE_LIST][COMMS_MODEL_CLIENT]	= destroy_client;

  00036	b8 08 00 00 00	 mov	 eax, 8
  0003b	6b c8 1f	 imul	 ecx, eax, 31
  0003e	ba 04 00 00 00	 mov	 edx, 4
  00043	c1 e2 00	 shl	 edx, 0
  00046	c7 84 11 00 00
	00 00 00 00 00
	00		 mov	 DWORD PTR ?fn_destroy_client_server_entity@@3PAY01P6GXPAUENTITY@@@ZA[ecx+edx], OFFSET ?destroy_client@@YGXPAUENTITY@@@Z ; destroy_client

; 249  : 
; 250  : 	fn_destroy_local_entity_family			[ENTITY_TYPE_SMOKE_LIST]							= destroy_local;

  00051	b8 04 00 00 00	 mov	 eax, 4
  00056	6b c8 1f	 imul	 ecx, eax, 31
  00059	c7 81 00 00 00
	00 00 00 00 00	 mov	 DWORD PTR ?fn_destroy_local_entity_family@@3PAP6GXPAUENTITY@@@ZA[ecx], OFFSET ?destroy_local@@YGXPAUENTITY@@@Z ; destroy_local

; 251  : 	fn_destroy_client_server_entity_family	[ENTITY_TYPE_SMOKE_LIST][COMMS_MODEL_SERVER]	= destroy_server;

  00063	b8 08 00 00 00	 mov	 eax, 8
  00068	6b c8 1f	 imul	 ecx, eax, 31
  0006b	ba 04 00 00 00	 mov	 edx, 4
  00070	6b c2 00	 imul	 eax, edx, 0
  00073	c7 84 01 00 00
	00 00 00 00 00
	00		 mov	 DWORD PTR ?fn_destroy_client_server_entity_family@@3PAY01P6GXPAUENTITY@@@ZA[ecx+eax], OFFSET ?destroy_server@@YGXPAUENTITY@@@Z ; destroy_server

; 252  : 	fn_destroy_client_server_entity_family	[ENTITY_TYPE_SMOKE_LIST][COMMS_MODEL_CLIENT]	= destroy_client;

  0007e	b8 08 00 00 00	 mov	 eax, 8
  00083	6b c8 1f	 imul	 ecx, eax, 31
  00086	ba 04 00 00 00	 mov	 edx, 4
  0008b	c1 e2 00	 shl	 edx, 0
  0008e	c7 84 11 00 00
	00 00 00 00 00
	00		 mov	 DWORD PTR ?fn_destroy_client_server_entity_family@@3PAY01P6GXPAUENTITY@@@ZA[ecx+edx], OFFSET ?destroy_client@@YGXPAUENTITY@@@Z ; destroy_client

; 253  : 
; 254  : 	fn_kill_local_entity							[ENTITY_TYPE_SMOKE_LIST]							= destroy_local;

  00099	b8 04 00 00 00	 mov	 eax, 4
  0009e	6b c8 1f	 imul	 ecx, eax, 31
  000a1	c7 81 00 00 00
	00 00 00 00 00	 mov	 DWORD PTR ?fn_kill_local_entity@@3PAP6GXPAUENTITY@@@ZA[ecx], OFFSET ?destroy_local@@YGXPAUENTITY@@@Z ; destroy_local

; 255  : 	fn_kill_client_server_entity				[ENTITY_TYPE_SMOKE_LIST][COMMS_MODEL_SERVER]	= destroy_server;

  000ab	b8 08 00 00 00	 mov	 eax, 8
  000b0	6b c8 1f	 imul	 ecx, eax, 31
  000b3	ba 04 00 00 00	 mov	 edx, 4
  000b8	6b c2 00	 imul	 eax, edx, 0
  000bb	c7 84 01 00 00
	00 00 00 00 00
	00		 mov	 DWORD PTR ?fn_kill_client_server_entity@@3PAY01P6GXPAUENTITY@@@ZA[ecx+eax], OFFSET ?destroy_server@@YGXPAUENTITY@@@Z ; destroy_server

; 256  : 	fn_kill_client_server_entity				[ENTITY_TYPE_SMOKE_LIST][COMMS_MODEL_CLIENT]	= destroy_client;

  000c6	b8 08 00 00 00	 mov	 eax, 8
  000cb	6b c8 1f	 imul	 ecx, eax, 31
  000ce	ba 04 00 00 00	 mov	 edx, 4
  000d3	c1 e2 00	 shl	 edx, 0
  000d6	c7 84 11 00 00
	00 00 00 00 00
	00		 mov	 DWORD PTR ?fn_kill_client_server_entity@@3PAY01P6GXPAUENTITY@@@ZA[ecx+edx], OFFSET ?destroy_client@@YGXPAUENTITY@@@Z ; destroy_client

; 257  : }

  000e1	5f		 pop	 edi
  000e2	5e		 pop	 esi
  000e3	5b		 pop	 ebx
  000e4	8b e5		 mov	 esp, ebp
  000e6	5d		 pop	 ebp
  000e7	c3		 ret	 0
?overload_smoke_list_destroy_functions@@YGXXZ ENDP	; overload_smoke_list_destroy_functions
_TEXT	ENDS
END
