; Listing generated by Microsoft (R) Optimizing Compiler Version 19.16.27045.0 

	TITLE	C:\Users\nhv90\Projects\eech\aphavoc\source\entity\special\effect\smokelst\sl_int.c
	.686P
	.XMM
	include listing.inc
	.model	flat

INCLUDELIB MSVCRTD
INCLUDELIB OLDNAMES

PUBLIC	?overload_smoke_list_int_value_functions@@YGXXZ	; overload_smoke_list_int_value_functions
PUBLIC	?__LINE__Var@?0??set_local_int_value@@YGXPAUENTITY@@W4INT_TYPES@@H@Z@4JA ; `set_local_int_value'::`1'::__LINE__Var
PUBLIC	??_C@_0FE@MPKHLPPF@c?3?2users?2nhv90?2projects?2eech?2ap@ ; `string'
PUBLIC	?__LINE__Var@?0??set_server_int_value@@YGXPAUENTITY@@W4INT_TYPES@@H@Z@4JA ; `set_server_int_value'::`1'::__LINE__Var
PUBLIC	??_C@_0CB@CFOCLFOK@assert_client_server_local_fn?5?$CI@ ; `string'
PUBLIC	??_C@_0CC@BNNNEGEG@assert_client_server_remote_fn?5@ ; `string'
PUBLIC	?__LINE__Var@?0??set_client_int_value@@YGXPAUENTITY@@W4INT_TYPES@@H@Z@4JA ; `set_client_int_value'::`1'::__LINE__Var
PUBLIC	?__LINE__Var@?0??get_local_int_value@@YGHPAUENTITY@@W4INT_TYPES@@@Z@4JA ; `get_local_int_value'::`1'::__LINE__Var
EXTRN	?process_assert@@YGXPBD0H@Z:PROC		; process_assert
EXTRN	?debug_fatal@@YAXPBDZZ:PROC			; debug_fatal
EXTRN	?transmit_entity_comms_message@@YAXW4ENTITY_COMMS_MESSAGES@@PAUENTITY@@ZZ:PROC ; transmit_entity_comms_message
EXTRN	?assert_client_server_local_fn@@YGHXZ:PROC	; assert_client_server_local_fn
EXTRN	?assert_client_server_remote_fn@@YGHXZ:PROC	; assert_client_server_remote_fn
EXTRN	?null_entity_pointer_message@@3PBDB:DWORD	; null_entity_pointer_message
EXTRN	?entity_type_database@@3PAUENTITY_TYPE_DATA@@A:BYTE ; entity_type_database
EXTRN	?system_comms_data_flow@@3W4COMMS_DATA_FLOW_TYPES@@A:DWORD ; system_comms_data_flow
EXTRN	?int_type_database@@3PAUINT_TYPE_DATA@@A:BYTE	; int_type_database
EXTRN	?debug_fatal_invalid_int_type_message@@3PBDB:DWORD ; debug_fatal_invalid_int_type_message
EXTRN	?fn_set_local_entity_raw_int_value@@3PAY0BBH@P6GXPAUENTITY@@W4INT_TYPES@@H@ZA:BYTE ; fn_set_local_entity_raw_int_value
EXTRN	?fn_set_local_entity_int_value@@3PAY0BBH@P6GXPAUENTITY@@W4INT_TYPES@@H@ZA:BYTE ; fn_set_local_entity_int_value
EXTRN	?fn_set_client_server_entity_int_value@@3PAY1BBH@1P6GXPAUENTITY@@W4INT_TYPES@@H@ZA:BYTE ; fn_set_client_server_entity_int_value
EXTRN	?fn_get_local_entity_int_value@@3PAY0BBH@P6GHPAUENTITY@@W4INT_TYPES@@@ZA:BYTE ; fn_get_local_entity_int_value
EXTRN	?entities@@3PAUENTITY@@A:DWORD			; entities
;	COMDAT ?__LINE__Var@?0??get_local_int_value@@YGHPAUENTITY@@W4INT_TYPES@@@Z@4JA
_DATA	SEGMENT
?__LINE__Var@?0??get_local_int_value@@YGHPAUENTITY@@W4INT_TYPES@@@Z@4JA DD 0b9H ; `get_local_int_value'::`1'::__LINE__Var
_DATA	ENDS
;	COMDAT ?__LINE__Var@?0??set_client_int_value@@YGXPAUENTITY@@W4INT_TYPES@@H@Z@4JA
_DATA	SEGMENT
?__LINE__Var@?0??set_client_int_value@@YGXPAUENTITY@@W4INT_TYPES@@H@Z@4JA DD 0a5H ; `set_client_int_value'::`1'::__LINE__Var
_DATA	ENDS
;	COMDAT ??_C@_0CC@BNNNEGEG@assert_client_server_remote_fn?5@
CONST	SEGMENT
??_C@_0CC@BNNNEGEG@assert_client_server_remote_fn?5@ DB 'assert_client_se'
	DB	'rver_remote_fn ()', 00H			; `string'
CONST	ENDS
;	COMDAT ??_C@_0CB@CFOCLFOK@assert_client_server_local_fn?5?$CI@
CONST	SEGMENT
??_C@_0CB@CFOCLFOK@assert_client_server_local_fn?5?$CI@ DB 'assert_client'
	DB	'_server_local_fn ()', 00H			; `string'
CONST	ENDS
;	COMDAT ?__LINE__Var@?0??set_server_int_value@@YGXPAUENTITY@@W4INT_TYPES@@H@Z@4JA
_DATA	SEGMENT
?__LINE__Var@?0??set_server_int_value@@YGXPAUENTITY@@W4INT_TYPES@@H@Z@4JA DD 096H ; `set_server_int_value'::`1'::__LINE__Var
_DATA	ENDS
;	COMDAT ??_C@_0FE@MPKHLPPF@c?3?2users?2nhv90?2projects?2eech?2ap@
CONST	SEGMENT
??_C@_0FE@MPKHLPPF@c?3?2users?2nhv90?2projects?2eech?2ap@ DB 'c:\users\nh'
	DB	'v90\projects\eech\aphavoc\source\entity\special\effect\smokel'
	DB	'st\sl_int.c', 00H				; `string'
CONST	ENDS
;	COMDAT ?__LINE__Var@?0??set_local_int_value@@YGXPAUENTITY@@W4INT_TYPES@@H@Z@4JA
_DATA	SEGMENT
?__LINE__Var@?0??set_local_int_value@@YGXPAUENTITY@@W4INT_TYPES@@H@Z@4JA DD 050H ; `set_local_int_value'::`1'::__LINE__Var
_DATA	ENDS
; Function compile flags: /Odtp /ZI
; File c:\users\nhv90\projects\eech\aphavoc\source\entity\special\effect\smokelst\sl_int.c
;	COMDAT ?get_local_int_value@@YGHPAUENTITY@@W4INT_TYPES@@@Z
_TEXT	SEGMENT
tv88 = -76						; size = 4
tv65 = -76						; size = 4
_value$ = -8						; size = 4
_raw$ = -4						; size = 4
_en$ = 8						; size = 4
_type$ = 12						; size = 4
?get_local_int_value@@YGHPAUENTITY@@W4INT_TYPES@@@Z PROC ; get_local_int_value, COMDAT

; 185  : {

  00000	55		 push	 ebp
  00001	8b ec		 mov	 ebp, esp
  00003	83 ec 4c	 sub	 esp, 76			; 0000004cH
  00006	53		 push	 ebx
  00007	56		 push	 esi
  00008	57		 push	 edi

; 186  : 	smoke_list
; 187  : 		*raw;
; 188  : 
; 189  : 	int
; 190  : 		value;
; 191  : 
; 192  : 	raw = (smoke_list *) get_local_entity_data (en);

  00009	8b 45 08	 mov	 eax, DWORD PTR _en$[ebp]
  0000c	8b 48 04	 mov	 ecx, DWORD PTR [eax+4]
  0000f	89 4d fc	 mov	 DWORD PTR _raw$[ebp], ecx

; 193  : 
; 194  : 	switch (type)

  00012	8b 45 0c	 mov	 eax, DWORD PTR _type$[ebp]
  00015	89 45 b4	 mov	 DWORD PTR tv65[ebp], eax
  00018	83 7d b4 1d	 cmp	 DWORD PTR tv65[ebp], 29	; 0000001dH
  0001c	74 30		 je	 SHORT $LN6@get_local_
  0001e	83 7d b4 66	 cmp	 DWORD PTR tv65[ebp], 102 ; 00000066H
  00022	74 0b		 je	 SHORT $LN4@get_local_
  00024	81 7d b4 bd 00
	00 00		 cmp	 DWORD PTR tv65[ebp], 189 ; 000000bdH
  0002b	74 16		 je	 SHORT $LN5@get_local_
  0002d	eb 2b		 jmp	 SHORT $LN7@get_local_
$LN4@get_local_:

; 195  : 	{
; 196  : 		////////////////////////////////////////
; 197  : 		case INT_TYPE_INFINITE_GENERATOR:
; 198  : 		////////////////////////////////////////
; 199  : 		{
; 200  : 			value = raw->infinite_generator;

  0002f	8b 45 fc	 mov	 eax, DWORD PTR _raw$[ebp]
  00032	8b 48 4c	 mov	 ecx, DWORD PTR [eax+76]
  00035	c1 e9 0f	 shr	 ecx, 15			; 0000000fH
  00038	83 e1 01	 and	 ecx, 1
  0003b	89 4d f8	 mov	 DWORD PTR _value$[ebp], ecx

; 201  : 
; 202  : 			break;

  0003e	e9 89 00 00 00	 jmp	 $LN2@get_local_
$LN5@get_local_:

; 203  : 		}
; 204  : 		////////////////////////////////////////
; 205  : 		case INT_TYPE_SMOKE_TYPE:
; 206  : 		////////////////////////////////////////
; 207  : 		{
; 208  : 			value = raw->smoke_type;

  00043	8b 45 fc	 mov	 eax, DWORD PTR _raw$[ebp]
  00046	8b 48 28	 mov	 ecx, DWORD PTR [eax+40]
  00049	89 4d f8	 mov	 DWORD PTR _value$[ebp], ecx

; 209  : 
; 210  : 			break;

  0004c	eb 7e		 jmp	 SHORT $LN2@get_local_
$LN6@get_local_:

; 211  : 		}
; 212  : 		////////////////////////////////////////
; 213  : 		//Xhit: added for downwash effect. (030328)
; 214  : 		case INT_TYPE_COLOUR_ALPHA:
; 215  : 		////////////////////////////////////////
; 216  : 		{
; 217  : 			value = raw->alpha_percentage;

  0004e	8b 45 fc	 mov	 eax, DWORD PTR _raw$[ebp]
  00051	0f b6 48 48	 movzx	 ecx, BYTE PTR [eax+72]
  00055	89 4d f8	 mov	 DWORD PTR _value$[ebp], ecx

; 218  : 
; 219  : 			break;

  00058	eb 72		 jmp	 SHORT $LN2@get_local_
$LN7@get_local_:

; 220  : 		}
; 221  : 		////////////////////////////////////////
; 222  : 		default:
; 223  : 		////////////////////////////////////////
; 224  : 		{
; 225  : 			debug_fatal_invalid_int_type (en, type);

  0005a	83 7d 08 00	 cmp	 DWORD PTR _en$[ebp], 0
  0005e	74 0a		 je	 SHORT $LN9@get_local_
  00060	8b 45 08	 mov	 eax, DWORD PTR _en$[ebp]
  00063	8b 08		 mov	 ecx, DWORD PTR [eax]
  00065	89 4d b4	 mov	 DWORD PTR tv88[ebp], ecx
  00068	eb 21		 jmp	 SHORT $LN10@get_local_
$LN9@get_local_:
  0006a	8b 15 00 00 00
	00		 mov	 edx, DWORD PTR ?__LINE__Var@?0??get_local_int_value@@YGHPAUENTITY@@W4INT_TYPES@@@Z@4JA
  00070	83 c2 28	 add	 edx, 40			; 00000028H
  00073	52		 push	 edx
  00074	68 00 00 00 00	 push	 OFFSET ??_C@_0FE@MPKHLPPF@c?3?2users?2nhv90?2projects?2eech?2ap@
  00079	a1 00 00 00 00	 mov	 eax, DWORD PTR ?null_entity_pointer_message@@3PBDB ; null_entity_pointer_message
  0007e	50		 push	 eax
  0007f	e8 00 00 00 00	 call	 ?process_assert@@YGXPBD0H@Z ; process_assert
  00084	c7 45 b4 00 00
	00 00		 mov	 DWORD PTR tv88[ebp], 0
$LN10@get_local_:
  0008b	8b 0d 00 00 00
	00		 mov	 ecx, DWORD PTR ?__LINE__Var@?0??get_local_int_value@@YGHPAUENTITY@@W4INT_TYPES@@@Z@4JA
  00091	83 c1 28	 add	 ecx, 40			; 00000028H
  00094	51		 push	 ecx
  00095	68 00 00 00 00	 push	 OFFSET ??_C@_0FE@MPKHLPPF@c?3?2users?2nhv90?2projects?2eech?2ap@
  0009a	6b 55 0c 14	 imul	 edx, DWORD PTR _type$[ebp], 20
  0009e	8b 82 00 00 00
	00		 mov	 eax, DWORD PTR ?int_type_database@@3PAUINT_TYPE_DATA@@A[edx]
  000a4	50		 push	 eax
  000a5	8b 4d 08	 mov	 ecx, DWORD PTR _en$[ebp]
  000a8	2b 0d 00 00 00
	00		 sub	 ecx, DWORD PTR ?entities@@3PAUENTITY@@A ; entities
  000ae	c1 f9 04	 sar	 ecx, 4
  000b1	51		 push	 ecx
  000b2	6b 55 b4 0c	 imul	 edx, DWORD PTR tv88[ebp], 12
  000b6	8b 82 00 00 00
	00		 mov	 eax, DWORD PTR ?entity_type_database@@3PAUENTITY_TYPE_DATA@@A[edx]
  000bc	50		 push	 eax
  000bd	8b 0d 00 00 00
	00		 mov	 ecx, DWORD PTR ?debug_fatal_invalid_int_type_message@@3PBDB ; debug_fatal_invalid_int_type_message
  000c3	51		 push	 ecx
  000c4	e8 00 00 00 00	 call	 ?debug_fatal@@YAXPBDZZ	; debug_fatal
  000c9	83 c4 18	 add	 esp, 24			; 00000018H
$LN2@get_local_:

; 226  : 
; 227  : 			break;
; 228  : 		}
; 229  : 	}
; 230  : 
; 231  : 	return (value);

  000cc	8b 45 f8	 mov	 eax, DWORD PTR _value$[ebp]

; 232  : }

  000cf	5f		 pop	 edi
  000d0	5e		 pop	 esi
  000d1	5b		 pop	 ebx
  000d2	8b e5		 mov	 esp, ebp
  000d4	5d		 pop	 ebp
  000d5	c2 08 00	 ret	 8
?get_local_int_value@@YGHPAUENTITY@@W4INT_TYPES@@@Z ENDP ; get_local_int_value
_TEXT	ENDS
; Function compile flags: /Odtp /ZI
; File c:\users\nhv90\projects\eech\aphavoc\source\entity\special\effect\smokelst\sl_int.c
;	COMDAT ?set_client_int_value@@YGXPAUENTITY@@W4INT_TYPES@@H@Z
_TEXT	SEGMENT
_en$ = 8						; size = 4
_type$ = 12						; size = 4
_value$ = 16						; size = 4
?set_client_int_value@@YGXPAUENTITY@@W4INT_TYPES@@H@Z PROC ; set_client_int_value, COMDAT

; 165  : {

  00000	55		 push	 ebp
  00001	8b ec		 mov	 ebp, esp
  00003	83 ec 40	 sub	 esp, 64			; 00000040H
  00006	53		 push	 ebx
  00007	56		 push	 esi
  00008	57		 push	 edi

; 166  : 	if (get_comms_data_flow () == COMMS_DATA_FLOW_TX)

  00009	83 3d 00 00 00
	00 00		 cmp	 DWORD PTR ?system_comms_data_flow@@3W4COMMS_DATA_FLOW_TYPES@@A, 0 ; system_comms_data_flow
  00010	75 34		 jne	 SHORT $LN2@set_client

; 167  : 	{
; 168  : 		validate_client_server_remote_fn ();

  00012	e8 00 00 00 00	 call	 ?assert_client_server_remote_fn@@YGHXZ ; assert_client_server_remote_fn
  00017	85 c0		 test	 eax, eax
  00019	75 18		 jne	 SHORT $LN4@set_client
  0001b	a1 00 00 00 00	 mov	 eax, DWORD PTR ?__LINE__Var@?0??set_client_int_value@@YGXPAUENTITY@@W4INT_TYPES@@H@Z@4JA
  00020	83 c0 03	 add	 eax, 3
  00023	50		 push	 eax
  00024	68 00 00 00 00	 push	 OFFSET ??_C@_0FE@MPKHLPPF@c?3?2users?2nhv90?2projects?2eech?2ap@
  00029	68 00 00 00 00	 push	 OFFSET ??_C@_0CC@BNNNEGEG@assert_client_server_remote_fn?5@
  0002e	e8 00 00 00 00	 call	 ?process_assert@@YGXPBD0H@Z ; process_assert
$LN4@set_client:

; 169  : 
; 170  : 		set_remote_int_value (en, type, value);

  00033	8b 45 10	 mov	 eax, DWORD PTR _value$[ebp]
  00036	50		 push	 eax
  00037	8b 4d 0c	 mov	 ecx, DWORD PTR _type$[ebp]
  0003a	51		 push	 ecx
  0003b	8b 55 08	 mov	 edx, DWORD PTR _en$[ebp]
  0003e	52		 push	 edx
  0003f	e8 00 00 00 00	 call	 ?set_remote_int_value@@YGXPAUENTITY@@W4INT_TYPES@@H@Z ; set_remote_int_value

; 171  : 	}
; 172  : 	else

  00044	eb 32		 jmp	 SHORT $LN1@set_client
$LN2@set_client:

; 173  : 	{
; 174  : 		validate_client_server_local_fn ();

  00046	e8 00 00 00 00	 call	 ?assert_client_server_local_fn@@YGHXZ ; assert_client_server_local_fn
  0004b	85 c0		 test	 eax, eax
  0004d	75 18		 jne	 SHORT $LN5@set_client
  0004f	a1 00 00 00 00	 mov	 eax, DWORD PTR ?__LINE__Var@?0??set_client_int_value@@YGXPAUENTITY@@W4INT_TYPES@@H@Z@4JA
  00054	83 c0 09	 add	 eax, 9
  00057	50		 push	 eax
  00058	68 00 00 00 00	 push	 OFFSET ??_C@_0FE@MPKHLPPF@c?3?2users?2nhv90?2projects?2eech?2ap@
  0005d	68 00 00 00 00	 push	 OFFSET ??_C@_0CB@CFOCLFOK@assert_client_server_local_fn?5?$CI@
  00062	e8 00 00 00 00	 call	 ?process_assert@@YGXPBD0H@Z ; process_assert
$LN5@set_client:

; 175  : 
; 176  : 		set_local_int_value (en, type, value);

  00067	8b 45 10	 mov	 eax, DWORD PTR _value$[ebp]
  0006a	50		 push	 eax
  0006b	8b 4d 0c	 mov	 ecx, DWORD PTR _type$[ebp]
  0006e	51		 push	 ecx
  0006f	8b 55 08	 mov	 edx, DWORD PTR _en$[ebp]
  00072	52		 push	 edx
  00073	e8 00 00 00 00	 call	 ?set_local_int_value@@YGXPAUENTITY@@W4INT_TYPES@@H@Z ; set_local_int_value
$LN1@set_client:

; 177  : 	}
; 178  : }

  00078	5f		 pop	 edi
  00079	5e		 pop	 esi
  0007a	5b		 pop	 ebx
  0007b	8b e5		 mov	 esp, ebp
  0007d	5d		 pop	 ebp
  0007e	c2 0c 00	 ret	 12			; 0000000cH
?set_client_int_value@@YGXPAUENTITY@@W4INT_TYPES@@H@Z ENDP ; set_client_int_value
_TEXT	ENDS
; Function compile flags: /Odtp /ZI
; File c:\users\nhv90\projects\eech\aphavoc\source\entity\special\effect\smokelst\sl_int.c
;	COMDAT ?set_server_int_value@@YGXPAUENTITY@@W4INT_TYPES@@H@Z
_TEXT	SEGMENT
_en$ = 8						; size = 4
_type$ = 12						; size = 4
_value$ = 16						; size = 4
?set_server_int_value@@YGXPAUENTITY@@W4INT_TYPES@@H@Z PROC ; set_server_int_value, COMDAT

; 150  : {

  00000	55		 push	 ebp
  00001	8b ec		 mov	 ebp, esp
  00003	83 ec 40	 sub	 esp, 64			; 00000040H
  00006	53		 push	 ebx
  00007	56		 push	 esi
  00008	57		 push	 edi

; 151  : 	validate_client_server_local_fn ();

  00009	e8 00 00 00 00	 call	 ?assert_client_server_local_fn@@YGHXZ ; assert_client_server_local_fn
  0000e	85 c0		 test	 eax, eax
  00010	75 18		 jne	 SHORT $LN2@set_server
  00012	a1 00 00 00 00	 mov	 eax, DWORD PTR ?__LINE__Var@?0??set_server_int_value@@YGXPAUENTITY@@W4INT_TYPES@@H@Z@4JA
  00017	83 c0 01	 add	 eax, 1
  0001a	50		 push	 eax
  0001b	68 00 00 00 00	 push	 OFFSET ??_C@_0FE@MPKHLPPF@c?3?2users?2nhv90?2projects?2eech?2ap@
  00020	68 00 00 00 00	 push	 OFFSET ??_C@_0CB@CFOCLFOK@assert_client_server_local_fn?5?$CI@
  00025	e8 00 00 00 00	 call	 ?process_assert@@YGXPBD0H@Z ; process_assert
$LN2@set_server:

; 152  : 
; 153  : 	set_local_int_value (en, type, value);

  0002a	8b 45 10	 mov	 eax, DWORD PTR _value$[ebp]
  0002d	50		 push	 eax
  0002e	8b 4d 0c	 mov	 ecx, DWORD PTR _type$[ebp]
  00031	51		 push	 ecx
  00032	8b 55 08	 mov	 edx, DWORD PTR _en$[ebp]
  00035	52		 push	 edx
  00036	e8 00 00 00 00	 call	 ?set_local_int_value@@YGXPAUENTITY@@W4INT_TYPES@@H@Z ; set_local_int_value

; 154  : 
; 155  : 	validate_client_server_remote_fn ();

  0003b	e8 00 00 00 00	 call	 ?assert_client_server_remote_fn@@YGHXZ ; assert_client_server_remote_fn
  00040	85 c0		 test	 eax, eax
  00042	75 18		 jne	 SHORT $LN3@set_server
  00044	a1 00 00 00 00	 mov	 eax, DWORD PTR ?__LINE__Var@?0??set_server_int_value@@YGXPAUENTITY@@W4INT_TYPES@@H@Z@4JA
  00049	83 c0 05	 add	 eax, 5
  0004c	50		 push	 eax
  0004d	68 00 00 00 00	 push	 OFFSET ??_C@_0FE@MPKHLPPF@c?3?2users?2nhv90?2projects?2eech?2ap@
  00052	68 00 00 00 00	 push	 OFFSET ??_C@_0CC@BNNNEGEG@assert_client_server_remote_fn?5@
  00057	e8 00 00 00 00	 call	 ?process_assert@@YGXPBD0H@Z ; process_assert
$LN3@set_server:

; 156  : 
; 157  : 	set_remote_int_value (en, type, value);

  0005c	8b 45 10	 mov	 eax, DWORD PTR _value$[ebp]
  0005f	50		 push	 eax
  00060	8b 4d 0c	 mov	 ecx, DWORD PTR _type$[ebp]
  00063	51		 push	 ecx
  00064	8b 55 08	 mov	 edx, DWORD PTR _en$[ebp]
  00067	52		 push	 edx
  00068	e8 00 00 00 00	 call	 ?set_remote_int_value@@YGXPAUENTITY@@W4INT_TYPES@@H@Z ; set_remote_int_value

; 158  : }

  0006d	5f		 pop	 edi
  0006e	5e		 pop	 esi
  0006f	5b		 pop	 ebx
  00070	8b e5		 mov	 esp, ebp
  00072	5d		 pop	 ebp
  00073	c2 0c 00	 ret	 12			; 0000000cH
?set_server_int_value@@YGXPAUENTITY@@W4INT_TYPES@@H@Z ENDP ; set_server_int_value
_TEXT	ENDS
; Function compile flags: /Odtp /ZI
; File c:\users\nhv90\projects\eech\aphavoc\source\entity\special\effect\smokelst\sl_int.c
;	COMDAT ?set_remote_int_value@@YGXPAUENTITY@@W4INT_TYPES@@H@Z
_TEXT	SEGMENT
_en$ = 8						; size = 4
_type$ = 12						; size = 4
_value$ = 16						; size = 4
?set_remote_int_value@@YGXPAUENTITY@@W4INT_TYPES@@H@Z PROC ; set_remote_int_value, COMDAT

; 135  : {

  00000	55		 push	 ebp
  00001	8b ec		 mov	 ebp, esp
  00003	83 ec 40	 sub	 esp, 64			; 00000040H
  00006	53		 push	 ebx
  00007	56		 push	 esi
  00008	57		 push	 edi

; 136  : 	#if DEBUG_MODULE
; 137  : 
; 138  : 	debug_log_entity_args (ENTITY_DEBUG_REMOTE, ENTITY_DEBUG_INT_VALUE, en, type, value);
; 139  : 
; 140  : 	#endif
; 141  : 
; 142  : 	transmit_entity_comms_message (ENTITY_COMMS_INT_VALUE, en, type, value);

  00009	8b 45 10	 mov	 eax, DWORD PTR _value$[ebp]
  0000c	50		 push	 eax
  0000d	8b 4d 0c	 mov	 ecx, DWORD PTR _type$[ebp]
  00010	51		 push	 ecx
  00011	8b 55 08	 mov	 edx, DWORD PTR _en$[ebp]
  00014	52		 push	 edx
  00015	6a 17		 push	 23			; 00000017H
  00017	e8 00 00 00 00	 call	 ?transmit_entity_comms_message@@YAXW4ENTITY_COMMS_MESSAGES@@PAUENTITY@@ZZ ; transmit_entity_comms_message
  0001c	83 c4 10	 add	 esp, 16			; 00000010H

; 143  : }

  0001f	5f		 pop	 edi
  00020	5e		 pop	 esi
  00021	5b		 pop	 ebx
  00022	8b e5		 mov	 esp, ebp
  00024	5d		 pop	 ebp
  00025	c2 0c 00	 ret	 12			; 0000000cH
?set_remote_int_value@@YGXPAUENTITY@@W4INT_TYPES@@H@Z ENDP ; set_remote_int_value
_TEXT	ENDS
; Function compile flags: /Odtp /ZI
; File c:\users\nhv90\projects\eech\aphavoc\source\entity\special\effect\smokelst\sl_int.c
;	COMDAT ?set_local_int_value@@YGXPAUENTITY@@W4INT_TYPES@@H@Z
_TEXT	SEGMENT
tv90 = -72						; size = 4
tv65 = -72						; size = 4
_raw$ = -4						; size = 4
_en$ = 8						; size = 4
_type$ = 12						; size = 4
_value$ = 16						; size = 4
?set_local_int_value@@YGXPAUENTITY@@W4INT_TYPES@@H@Z PROC ; set_local_int_value, COMDAT

; 80   : {

  00000	55		 push	 ebp
  00001	8b ec		 mov	 ebp, esp
  00003	83 ec 48	 sub	 esp, 72			; 00000048H
  00006	53		 push	 ebx
  00007	56		 push	 esi
  00008	57		 push	 edi

; 81   : 	smoke_list
; 82   : 		*raw;
; 83   : 
; 84   : 	#if DEBUG_MODULE
; 85   : 
; 86   : 	debug_log_entity_args (ENTITY_DEBUG_LOCAL, ENTITY_DEBUG_INT_VALUE, en, type, value);
; 87   : 
; 88   : 	#endif
; 89   : 
; 90   : 	raw = (smoke_list *) get_local_entity_data (en);

  00009	8b 45 08	 mov	 eax, DWORD PTR _en$[ebp]
  0000c	8b 48 04	 mov	 ecx, DWORD PTR [eax+4]
  0000f	89 4d fc	 mov	 DWORD PTR _raw$[ebp], ecx

; 91   : 
; 92   : 	switch (type)

  00012	8b 45 0c	 mov	 eax, DWORD PTR _type$[ebp]
  00015	89 45 b8	 mov	 DWORD PTR tv65[ebp], eax
  00018	83 7d b8 1d	 cmp	 DWORD PTR tv65[ebp], 29	; 0000001dH
  0001c	74 3e		 je	 SHORT $LN6@set_local_
  0001e	83 7d b8 66	 cmp	 DWORD PTR tv65[ebp], 102 ; 00000066H
  00022	74 0b		 je	 SHORT $LN4@set_local_
  00024	81 7d b8 bd 00
	00 00		 cmp	 DWORD PTR tv65[ebp], 189 ; 000000bdH
  0002b	74 24		 je	 SHORT $LN5@set_local_
  0002d	eb 38		 jmp	 SHORT $LN7@set_local_
$LN4@set_local_:

; 93   : 	{
; 94   : 		////////////////////////////////////////
; 95   : 		case INT_TYPE_INFINITE_GENERATOR:
; 96   : 		////////////////////////////////////////
; 97   : 		{
; 98   : 			raw->infinite_generator = value;

  0002f	8b 45 10	 mov	 eax, DWORD PTR _value$[ebp]
  00032	83 e0 01	 and	 eax, 1
  00035	c1 e0 0f	 shl	 eax, 15			; 0000000fH
  00038	8b 4d fc	 mov	 ecx, DWORD PTR _raw$[ebp]
  0003b	8b 51 4c	 mov	 edx, DWORD PTR [ecx+76]
  0003e	81 e2 ff 7f ff
	ff		 and	 edx, -32769		; ffff7fffH
  00044	0b d0		 or	 edx, eax
  00046	8b 45 fc	 mov	 eax, DWORD PTR _raw$[ebp]
  00049	89 50 4c	 mov	 DWORD PTR [eax+76], edx

; 99   : 
; 100  : 			break;

  0004c	e9 88 00 00 00	 jmp	 $LN1@set_local_
$LN5@set_local_:

; 101  : 		}
; 102  : 		////////////////////////////////////////
; 103  : 		case INT_TYPE_SMOKE_TYPE:
; 104  : 		////////////////////////////////////////
; 105  : 		{
; 106  : 			raw->smoke_type = (smoke_list_types) value;

  00051	8b 45 fc	 mov	 eax, DWORD PTR _raw$[ebp]
  00054	8b 4d 10	 mov	 ecx, DWORD PTR _value$[ebp]
  00057	89 48 28	 mov	 DWORD PTR [eax+40], ecx

; 107  : 
; 108  : 			break;

  0005a	eb 7d		 jmp	 SHORT $LN1@set_local_
$LN6@set_local_:

; 109  : 		}
; 110  : 		////////////////////////////////////////
; 111  : 		// Xhit: added for downwash effect. (030328)
; 112  : 		case INT_TYPE_COLOUR_ALPHA:
; 113  : 		////////////////////////////////////////
; 114  : 		{
; 115  : 			raw->alpha_percentage = value;

  0005c	8b 45 fc	 mov	 eax, DWORD PTR _raw$[ebp]
  0005f	8a 4d 10	 mov	 cl, BYTE PTR _value$[ebp]
  00062	88 48 48	 mov	 BYTE PTR [eax+72], cl

; 116  : 
; 117  : 			break;

  00065	eb 72		 jmp	 SHORT $LN1@set_local_
$LN7@set_local_:

; 118  : 		}
; 119  : 		////////////////////////////////////////
; 120  : 		default:
; 121  : 		////////////////////////////////////////
; 122  : 		{
; 123  : 			debug_fatal_invalid_int_type (en, type);

  00067	83 7d 08 00	 cmp	 DWORD PTR _en$[ebp], 0
  0006b	74 0a		 je	 SHORT $LN9@set_local_
  0006d	8b 45 08	 mov	 eax, DWORD PTR _en$[ebp]
  00070	8b 08		 mov	 ecx, DWORD PTR [eax]
  00072	89 4d b8	 mov	 DWORD PTR tv90[ebp], ecx
  00075	eb 21		 jmp	 SHORT $LN10@set_local_
$LN9@set_local_:
  00077	8b 15 00 00 00
	00		 mov	 edx, DWORD PTR ?__LINE__Var@?0??set_local_int_value@@YGXPAUENTITY@@W4INT_TYPES@@H@Z@4JA
  0007d	83 c2 2b	 add	 edx, 43			; 0000002bH
  00080	52		 push	 edx
  00081	68 00 00 00 00	 push	 OFFSET ??_C@_0FE@MPKHLPPF@c?3?2users?2nhv90?2projects?2eech?2ap@
  00086	a1 00 00 00 00	 mov	 eax, DWORD PTR ?null_entity_pointer_message@@3PBDB ; null_entity_pointer_message
  0008b	50		 push	 eax
  0008c	e8 00 00 00 00	 call	 ?process_assert@@YGXPBD0H@Z ; process_assert
  00091	c7 45 b8 00 00
	00 00		 mov	 DWORD PTR tv90[ebp], 0
$LN10@set_local_:
  00098	8b 0d 00 00 00
	00		 mov	 ecx, DWORD PTR ?__LINE__Var@?0??set_local_int_value@@YGXPAUENTITY@@W4INT_TYPES@@H@Z@4JA
  0009e	83 c1 2b	 add	 ecx, 43			; 0000002bH
  000a1	51		 push	 ecx
  000a2	68 00 00 00 00	 push	 OFFSET ??_C@_0FE@MPKHLPPF@c?3?2users?2nhv90?2projects?2eech?2ap@
  000a7	6b 55 0c 14	 imul	 edx, DWORD PTR _type$[ebp], 20
  000ab	8b 82 00 00 00
	00		 mov	 eax, DWORD PTR ?int_type_database@@3PAUINT_TYPE_DATA@@A[edx]
  000b1	50		 push	 eax
  000b2	8b 4d 08	 mov	 ecx, DWORD PTR _en$[ebp]
  000b5	2b 0d 00 00 00
	00		 sub	 ecx, DWORD PTR ?entities@@3PAUENTITY@@A ; entities
  000bb	c1 f9 04	 sar	 ecx, 4
  000be	51		 push	 ecx
  000bf	6b 55 b8 0c	 imul	 edx, DWORD PTR tv90[ebp], 12
  000c3	8b 82 00 00 00
	00		 mov	 eax, DWORD PTR ?entity_type_database@@3PAUENTITY_TYPE_DATA@@A[edx]
  000c9	50		 push	 eax
  000ca	8b 0d 00 00 00
	00		 mov	 ecx, DWORD PTR ?debug_fatal_invalid_int_type_message@@3PBDB ; debug_fatal_invalid_int_type_message
  000d0	51		 push	 ecx
  000d1	e8 00 00 00 00	 call	 ?debug_fatal@@YAXPBDZZ	; debug_fatal
  000d6	83 c4 18	 add	 esp, 24			; 00000018H
$LN1@set_local_:

; 124  : 
; 125  : 			break;
; 126  : 		}
; 127  : 	}
; 128  : }

  000d9	5f		 pop	 edi
  000da	5e		 pop	 esi
  000db	5b		 pop	 ebx
  000dc	8b e5		 mov	 esp, ebp
  000de	5d		 pop	 ebp
  000df	c2 0c 00	 ret	 12			; 0000000cH
?set_local_int_value@@YGXPAUENTITY@@W4INT_TYPES@@H@Z ENDP ; set_local_int_value
_TEXT	ENDS
; Function compile flags: /Odtp /ZI
; File c:\users\nhv90\projects\eech\aphavoc\source\entity\special\effect\smokelst\sl_int.c
;	COMDAT ?overload_smoke_list_int_value_functions@@YGXXZ
_TEXT	SEGMENT
?overload_smoke_list_int_value_functions@@YGXXZ PROC	; overload_smoke_list_int_value_functions, COMDAT

; 239  : {

  00000	55		 push	 ebp
  00001	8b ec		 mov	 ebp, esp
  00003	83 ec 40	 sub	 esp, 64			; 00000040H
  00006	53		 push	 ebx
  00007	56		 push	 esi
  00008	57		 push	 edi

; 240  : 	fn_set_local_entity_raw_int_value		[ENTITY_TYPE_SMOKE_LIST][INT_TYPE_INFINITE_GENERATOR]								= set_local_int_value;

  00009	b8 5c 04 00 00	 mov	 eax, 1116		; 0000045cH
  0000e	6b c8 1f	 imul	 ecx, eax, 31
  00011	ba 04 00 00 00	 mov	 edx, 4
  00016	6b c2 66	 imul	 eax, edx, 102
  00019	c7 84 01 00 00
	00 00 00 00 00
	00		 mov	 DWORD PTR ?fn_set_local_entity_raw_int_value@@3PAY0BBH@P6GXPAUENTITY@@W4INT_TYPES@@H@ZA[ecx+eax], OFFSET ?set_local_int_value@@YGXPAUENTITY@@W4INT_TYPES@@H@Z ; set_local_int_value

; 241  : 	fn_set_local_entity_int_value				[ENTITY_TYPE_SMOKE_LIST][INT_TYPE_INFINITE_GENERATOR]								= set_local_int_value;

  00024	b8 5c 04 00 00	 mov	 eax, 1116		; 0000045cH
  00029	6b c8 1f	 imul	 ecx, eax, 31
  0002c	ba 04 00 00 00	 mov	 edx, 4
  00031	6b c2 66	 imul	 eax, edx, 102
  00034	c7 84 01 00 00
	00 00 00 00 00
	00		 mov	 DWORD PTR ?fn_set_local_entity_int_value@@3PAY0BBH@P6GXPAUENTITY@@W4INT_TYPES@@H@ZA[ecx+eax], OFFSET ?set_local_int_value@@YGXPAUENTITY@@W4INT_TYPES@@H@Z ; set_local_int_value

; 242  : 	fn_set_client_server_entity_int_value	[ENTITY_TYPE_SMOKE_LIST][INT_TYPE_INFINITE_GENERATOR][COMMS_MODEL_SERVER]	= set_server_int_value;

  0003f	b8 b8 08 00 00	 mov	 eax, 2232		; 000008b8H
  00044	6b c8 1f	 imul	 ecx, eax, 31
  00047	ba 08 00 00 00	 mov	 edx, 8
  0004c	6b c2 66	 imul	 eax, edx, 102
  0004f	8d 8c 01 00 00
	00 00		 lea	 ecx, DWORD PTR ?fn_set_client_server_entity_int_value@@3PAY1BBH@1P6GXPAUENTITY@@W4INT_TYPES@@H@ZA[ecx+eax]
  00056	ba 04 00 00 00	 mov	 edx, 4
  0005b	6b c2 00	 imul	 eax, edx, 0
  0005e	c7 04 01 00 00
	00 00		 mov	 DWORD PTR [ecx+eax], OFFSET ?set_server_int_value@@YGXPAUENTITY@@W4INT_TYPES@@H@Z ; set_server_int_value

; 243  : 	fn_set_client_server_entity_int_value	[ENTITY_TYPE_SMOKE_LIST][INT_TYPE_INFINITE_GENERATOR][COMMS_MODEL_CLIENT]	= set_client_int_value;

  00065	b8 b8 08 00 00	 mov	 eax, 2232		; 000008b8H
  0006a	6b c8 1f	 imul	 ecx, eax, 31
  0006d	ba 08 00 00 00	 mov	 edx, 8
  00072	6b c2 66	 imul	 eax, edx, 102
  00075	8d 8c 01 00 00
	00 00		 lea	 ecx, DWORD PTR ?fn_set_client_server_entity_int_value@@3PAY1BBH@1P6GXPAUENTITY@@W4INT_TYPES@@H@ZA[ecx+eax]
  0007c	ba 04 00 00 00	 mov	 edx, 4
  00081	c1 e2 00	 shl	 edx, 0
  00084	c7 04 11 00 00
	00 00		 mov	 DWORD PTR [ecx+edx], OFFSET ?set_client_int_value@@YGXPAUENTITY@@W4INT_TYPES@@H@Z ; set_client_int_value

; 244  : 	fn_get_local_entity_int_value				[ENTITY_TYPE_SMOKE_LIST][INT_TYPE_INFINITE_GENERATOR]								= get_local_int_value;

  0008b	b8 5c 04 00 00	 mov	 eax, 1116		; 0000045cH
  00090	6b c8 1f	 imul	 ecx, eax, 31
  00093	ba 04 00 00 00	 mov	 edx, 4
  00098	6b c2 66	 imul	 eax, edx, 102
  0009b	c7 84 01 00 00
	00 00 00 00 00
	00		 mov	 DWORD PTR ?fn_get_local_entity_int_value@@3PAY0BBH@P6GHPAUENTITY@@W4INT_TYPES@@@ZA[ecx+eax], OFFSET ?get_local_int_value@@YGHPAUENTITY@@W4INT_TYPES@@@Z ; get_local_int_value

; 245  : 
; 246  : 	fn_set_local_entity_raw_int_value		[ENTITY_TYPE_SMOKE_LIST][INT_TYPE_SMOKE_TYPE]										= set_local_int_value;

  000a6	b8 5c 04 00 00	 mov	 eax, 1116		; 0000045cH
  000ab	6b c8 1f	 imul	 ecx, eax, 31
  000ae	ba 04 00 00 00	 mov	 edx, 4
  000b3	69 c2 bd 00 00
	00		 imul	 eax, edx, 189
  000b9	c7 84 01 00 00
	00 00 00 00 00
	00		 mov	 DWORD PTR ?fn_set_local_entity_raw_int_value@@3PAY0BBH@P6GXPAUENTITY@@W4INT_TYPES@@H@ZA[ecx+eax], OFFSET ?set_local_int_value@@YGXPAUENTITY@@W4INT_TYPES@@H@Z ; set_local_int_value

; 247  : 	fn_set_local_entity_int_value				[ENTITY_TYPE_SMOKE_LIST][INT_TYPE_SMOKE_TYPE]										= set_local_int_value;

  000c4	b8 5c 04 00 00	 mov	 eax, 1116		; 0000045cH
  000c9	6b c8 1f	 imul	 ecx, eax, 31
  000cc	ba 04 00 00 00	 mov	 edx, 4
  000d1	69 c2 bd 00 00
	00		 imul	 eax, edx, 189
  000d7	c7 84 01 00 00
	00 00 00 00 00
	00		 mov	 DWORD PTR ?fn_set_local_entity_int_value@@3PAY0BBH@P6GXPAUENTITY@@W4INT_TYPES@@H@ZA[ecx+eax], OFFSET ?set_local_int_value@@YGXPAUENTITY@@W4INT_TYPES@@H@Z ; set_local_int_value

; 248  : 	fn_set_client_server_entity_int_value	[ENTITY_TYPE_SMOKE_LIST][INT_TYPE_SMOKE_TYPE][COMMS_MODEL_SERVER]				= set_server_int_value;

  000e2	b8 b8 08 00 00	 mov	 eax, 2232		; 000008b8H
  000e7	6b c8 1f	 imul	 ecx, eax, 31
  000ea	ba 08 00 00 00	 mov	 edx, 8
  000ef	69 c2 bd 00 00
	00		 imul	 eax, edx, 189
  000f5	8d 8c 01 00 00
	00 00		 lea	 ecx, DWORD PTR ?fn_set_client_server_entity_int_value@@3PAY1BBH@1P6GXPAUENTITY@@W4INT_TYPES@@H@ZA[ecx+eax]
  000fc	ba 04 00 00 00	 mov	 edx, 4
  00101	6b c2 00	 imul	 eax, edx, 0
  00104	c7 04 01 00 00
	00 00		 mov	 DWORD PTR [ecx+eax], OFFSET ?set_server_int_value@@YGXPAUENTITY@@W4INT_TYPES@@H@Z ; set_server_int_value

; 249  : 	fn_set_client_server_entity_int_value	[ENTITY_TYPE_SMOKE_LIST][INT_TYPE_SMOKE_TYPE][COMMS_MODEL_CLIENT]				= set_client_int_value;

  0010b	b8 b8 08 00 00	 mov	 eax, 2232		; 000008b8H
  00110	6b c8 1f	 imul	 ecx, eax, 31
  00113	ba 08 00 00 00	 mov	 edx, 8
  00118	69 c2 bd 00 00
	00		 imul	 eax, edx, 189
  0011e	8d 8c 01 00 00
	00 00		 lea	 ecx, DWORD PTR ?fn_set_client_server_entity_int_value@@3PAY1BBH@1P6GXPAUENTITY@@W4INT_TYPES@@H@ZA[ecx+eax]
  00125	ba 04 00 00 00	 mov	 edx, 4
  0012a	c1 e2 00	 shl	 edx, 0
  0012d	c7 04 11 00 00
	00 00		 mov	 DWORD PTR [ecx+edx], OFFSET ?set_client_int_value@@YGXPAUENTITY@@W4INT_TYPES@@H@Z ; set_client_int_value

; 250  : 	fn_get_local_entity_int_value				[ENTITY_TYPE_SMOKE_LIST][INT_TYPE_SMOKE_TYPE]										= get_local_int_value;

  00134	b8 5c 04 00 00	 mov	 eax, 1116		; 0000045cH
  00139	6b c8 1f	 imul	 ecx, eax, 31
  0013c	ba 04 00 00 00	 mov	 edx, 4
  00141	69 c2 bd 00 00
	00		 imul	 eax, edx, 189
  00147	c7 84 01 00 00
	00 00 00 00 00
	00		 mov	 DWORD PTR ?fn_get_local_entity_int_value@@3PAY0BBH@P6GHPAUENTITY@@W4INT_TYPES@@@ZA[ecx+eax], OFFSET ?get_local_int_value@@YGHPAUENTITY@@W4INT_TYPES@@@Z ; get_local_int_value

; 251  : 
; 252  : 	fn_set_local_entity_raw_int_value		[ENTITY_TYPE_SMOKE_LIST][INT_TYPE_COLOUR_ALPHA]										= set_local_int_value;

  00152	b8 5c 04 00 00	 mov	 eax, 1116		; 0000045cH
  00157	6b c8 1f	 imul	 ecx, eax, 31
  0015a	ba 04 00 00 00	 mov	 edx, 4
  0015f	6b c2 1d	 imul	 eax, edx, 29
  00162	c7 84 01 00 00
	00 00 00 00 00
	00		 mov	 DWORD PTR ?fn_set_local_entity_raw_int_value@@3PAY0BBH@P6GXPAUENTITY@@W4INT_TYPES@@H@ZA[ecx+eax], OFFSET ?set_local_int_value@@YGXPAUENTITY@@W4INT_TYPES@@H@Z ; set_local_int_value

; 253  : 	fn_set_local_entity_int_value				[ENTITY_TYPE_SMOKE_LIST][INT_TYPE_COLOUR_ALPHA]										= set_local_int_value;

  0016d	b8 5c 04 00 00	 mov	 eax, 1116		; 0000045cH
  00172	6b c8 1f	 imul	 ecx, eax, 31
  00175	ba 04 00 00 00	 mov	 edx, 4
  0017a	6b c2 1d	 imul	 eax, edx, 29
  0017d	c7 84 01 00 00
	00 00 00 00 00
	00		 mov	 DWORD PTR ?fn_set_local_entity_int_value@@3PAY0BBH@P6GXPAUENTITY@@W4INT_TYPES@@H@ZA[ecx+eax], OFFSET ?set_local_int_value@@YGXPAUENTITY@@W4INT_TYPES@@H@Z ; set_local_int_value

; 254  : 	fn_set_client_server_entity_int_value	[ENTITY_TYPE_SMOKE_LIST][INT_TYPE_COLOUR_ALPHA][COMMS_MODEL_SERVER]				= set_server_int_value;

  00188	b8 b8 08 00 00	 mov	 eax, 2232		; 000008b8H
  0018d	6b c8 1f	 imul	 ecx, eax, 31
  00190	ba 08 00 00 00	 mov	 edx, 8
  00195	6b c2 1d	 imul	 eax, edx, 29
  00198	8d 8c 01 00 00
	00 00		 lea	 ecx, DWORD PTR ?fn_set_client_server_entity_int_value@@3PAY1BBH@1P6GXPAUENTITY@@W4INT_TYPES@@H@ZA[ecx+eax]
  0019f	ba 04 00 00 00	 mov	 edx, 4
  001a4	6b c2 00	 imul	 eax, edx, 0
  001a7	c7 04 01 00 00
	00 00		 mov	 DWORD PTR [ecx+eax], OFFSET ?set_server_int_value@@YGXPAUENTITY@@W4INT_TYPES@@H@Z ; set_server_int_value

; 255  : 	fn_set_client_server_entity_int_value	[ENTITY_TYPE_SMOKE_LIST][INT_TYPE_COLOUR_ALPHA][COMMS_MODEL_CLIENT]				= set_client_int_value;

  001ae	b8 b8 08 00 00	 mov	 eax, 2232		; 000008b8H
  001b3	6b c8 1f	 imul	 ecx, eax, 31
  001b6	ba 08 00 00 00	 mov	 edx, 8
  001bb	6b c2 1d	 imul	 eax, edx, 29
  001be	8d 8c 01 00 00
	00 00		 lea	 ecx, DWORD PTR ?fn_set_client_server_entity_int_value@@3PAY1BBH@1P6GXPAUENTITY@@W4INT_TYPES@@H@ZA[ecx+eax]
  001c5	ba 04 00 00 00	 mov	 edx, 4
  001ca	c1 e2 00	 shl	 edx, 0
  001cd	c7 04 11 00 00
	00 00		 mov	 DWORD PTR [ecx+edx], OFFSET ?set_client_int_value@@YGXPAUENTITY@@W4INT_TYPES@@H@Z ; set_client_int_value

; 256  : 	fn_get_local_entity_int_value				[ENTITY_TYPE_SMOKE_LIST][INT_TYPE_COLOUR_ALPHA]										= get_local_int_value;

  001d4	b8 5c 04 00 00	 mov	 eax, 1116		; 0000045cH
  001d9	6b c8 1f	 imul	 ecx, eax, 31
  001dc	ba 04 00 00 00	 mov	 edx, 4
  001e1	6b c2 1d	 imul	 eax, edx, 29
  001e4	c7 84 01 00 00
	00 00 00 00 00
	00		 mov	 DWORD PTR ?fn_get_local_entity_int_value@@3PAY0BBH@P6GHPAUENTITY@@W4INT_TYPES@@@ZA[ecx+eax], OFFSET ?get_local_int_value@@YGHPAUENTITY@@W4INT_TYPES@@@Z ; get_local_int_value

; 257  : }

  001ef	5f		 pop	 edi
  001f0	5e		 pop	 esi
  001f1	5b		 pop	 ebx
  001f2	8b e5		 mov	 esp, ebp
  001f4	5d		 pop	 ebp
  001f5	c3		 ret	 0
?overload_smoke_list_int_value_functions@@YGXXZ ENDP	; overload_smoke_list_int_value_functions
_TEXT	ENDS
END
