; Listing generated by Microsoft (R) Optimizing Compiler Version 19.16.27045.0 

	TITLE	C:\Users\nhv90\Projects\eech\aphavoc\source\entity\special\effect\smokelst\sl_meta.c
	.686P
	.XMM
	include listing.inc
	.model	flat

INCLUDELIB MSVCRTD
INCLUDELIB OLDNAMES

PUBLIC	?meta_smoke_list_database@@3PAUMETA_SMOKE_LIST_DATA@@A ; meta_smoke_list_database
PUBLIC	?meta_smoke_list_names@@3PAPBDA			; meta_smoke_list_names
PUBLIC	??_C@_04OKGDLNCL@NONE@				; `string'
PUBLIC	??_C@_0BF@DKHMMEJE@GENERIC_ROCKET_TRAIL@	; `string'
PUBLIC	??_C@_0BD@HLCGKKJL@SMALL_ROCKET_TRAIL@		; `string'
PUBLIC	??_C@_0BC@PBJIKEAI@DECOY_FLARE_TRAIL@		; `string'
PUBLIC	??_C@_0O@OPMHECKH@INFINITE_FIRE@		; `string'
PUBLIC	??_C@_0BE@FLJPIFEP@FIRE_SHORT_DURATION@		; `string'
PUBLIC	??_C@_0BK@NAADIBAL@SMALL_FIRE_SHORT_DURATION@	; `string'
PUBLIC	??_C@_0BD@NKDNIJB@VEHICLE_DUST_TRAIL@		; `string'
PUBLIC	??_C@_0P@BHNIHGJN@REAR_SHIP_WAKE@		; `string'
PUBLIC	??_C@_0BA@ELCFALHP@FRONT_SHIP_WAKE@		; `string'
PUBLIC	??_C@_0BG@CCFDEFEI@AIRCRAFT_LIGHT_DAMAGE@	; `string'
PUBLIC	??_C@_0BH@MOEONBMB@AIRCRAFT_MEDIUM_DAMAGE@	; `string'
PUBLIC	??_C@_0BG@MHHNPOBA@AIRCRAFT_HEAVY_DAMAGE@	; `string'
PUBLIC	??_C@_0BP@KHFBJJBE@AIRCRAFT_SMALL_TOUCHDOWN_TRAIL@ ; `string'
PUBLIC	??_C@_0BP@PIKMKDPG@AIRCRAFT_LARGE_TOUCHDOWN_TRAIL@ ; `string'
_BSS	SEGMENT
?meta_smoke_list_database@@3PAUMETA_SMOKE_LIST_DATA@@A DB 08acH DUP (?) ; meta_smoke_list_database
_BSS	ENDS
;	COMDAT ??_C@_0BP@PIKMKDPG@AIRCRAFT_LARGE_TOUCHDOWN_TRAIL@
CONST	SEGMENT
??_C@_0BP@PIKMKDPG@AIRCRAFT_LARGE_TOUCHDOWN_TRAIL@ DB 'AIRCRAFT_LARGE_TOU'
	DB	'CHDOWN_TRAIL', 00H				; `string'
CONST	ENDS
;	COMDAT ??_C@_0BP@KHFBJJBE@AIRCRAFT_SMALL_TOUCHDOWN_TRAIL@
CONST	SEGMENT
??_C@_0BP@KHFBJJBE@AIRCRAFT_SMALL_TOUCHDOWN_TRAIL@ DB 'AIRCRAFT_SMALL_TOU'
	DB	'CHDOWN_TRAIL', 00H				; `string'
CONST	ENDS
;	COMDAT ??_C@_0BG@MHHNPOBA@AIRCRAFT_HEAVY_DAMAGE@
CONST	SEGMENT
??_C@_0BG@MHHNPOBA@AIRCRAFT_HEAVY_DAMAGE@ DB 'AIRCRAFT_HEAVY_DAMAGE', 00H ; `string'
CONST	ENDS
;	COMDAT ??_C@_0BH@MOEONBMB@AIRCRAFT_MEDIUM_DAMAGE@
CONST	SEGMENT
??_C@_0BH@MOEONBMB@AIRCRAFT_MEDIUM_DAMAGE@ DB 'AIRCRAFT_MEDIUM_DAMAGE', 00H ; `string'
CONST	ENDS
;	COMDAT ??_C@_0BG@CCFDEFEI@AIRCRAFT_LIGHT_DAMAGE@
CONST	SEGMENT
??_C@_0BG@CCFDEFEI@AIRCRAFT_LIGHT_DAMAGE@ DB 'AIRCRAFT_LIGHT_DAMAGE', 00H ; `string'
CONST	ENDS
;	COMDAT ??_C@_0BA@ELCFALHP@FRONT_SHIP_WAKE@
CONST	SEGMENT
??_C@_0BA@ELCFALHP@FRONT_SHIP_WAKE@ DB 'FRONT_SHIP_WAKE', 00H ; `string'
CONST	ENDS
;	COMDAT ??_C@_0P@BHNIHGJN@REAR_SHIP_WAKE@
CONST	SEGMENT
??_C@_0P@BHNIHGJN@REAR_SHIP_WAKE@ DB 'REAR_SHIP_WAKE', 00H ; `string'
CONST	ENDS
;	COMDAT ??_C@_0BD@NKDNIJB@VEHICLE_DUST_TRAIL@
CONST	SEGMENT
??_C@_0BD@NKDNIJB@VEHICLE_DUST_TRAIL@ DB 'VEHICLE_DUST_TRAIL', 00H ; `string'
CONST	ENDS
;	COMDAT ??_C@_0BK@NAADIBAL@SMALL_FIRE_SHORT_DURATION@
CONST	SEGMENT
??_C@_0BK@NAADIBAL@SMALL_FIRE_SHORT_DURATION@ DB 'SMALL_FIRE_SHORT_DURATI'
	DB	'ON', 00H					; `string'
CONST	ENDS
;	COMDAT ??_C@_0BE@FLJPIFEP@FIRE_SHORT_DURATION@
CONST	SEGMENT
??_C@_0BE@FLJPIFEP@FIRE_SHORT_DURATION@ DB 'FIRE_SHORT_DURATION', 00H ; `string'
CONST	ENDS
;	COMDAT ??_C@_0O@OPMHECKH@INFINITE_FIRE@
CONST	SEGMENT
??_C@_0O@OPMHECKH@INFINITE_FIRE@ DB 'INFINITE_FIRE', 00H ; `string'
CONST	ENDS
;	COMDAT ??_C@_0BC@PBJIKEAI@DECOY_FLARE_TRAIL@
CONST	SEGMENT
??_C@_0BC@PBJIKEAI@DECOY_FLARE_TRAIL@ DB 'DECOY_FLARE_TRAIL', 00H ; `string'
CONST	ENDS
;	COMDAT ??_C@_0BD@HLCGKKJL@SMALL_ROCKET_TRAIL@
CONST	SEGMENT
??_C@_0BD@HLCGKKJL@SMALL_ROCKET_TRAIL@ DB 'SMALL_ROCKET_TRAIL', 00H ; `string'
CONST	ENDS
;	COMDAT ??_C@_0BF@DKHMMEJE@GENERIC_ROCKET_TRAIL@
CONST	SEGMENT
??_C@_0BF@DKHMMEJE@GENERIC_ROCKET_TRAIL@ DB 'GENERIC_ROCKET_TRAIL', 00H ; `string'
CONST	ENDS
;	COMDAT ??_C@_04OKGDLNCL@NONE@
CONST	SEGMENT
??_C@_04OKGDLNCL@NONE@ DB 'NONE', 00H			; `string'
CONST	ENDS
_DATA	SEGMENT
?meta_smoke_list_names@@3PAPBDA DD FLAT:??_C@_04OKGDLNCL@NONE@ ; meta_smoke_list_names
	DD	FLAT:??_C@_0BF@DKHMMEJE@GENERIC_ROCKET_TRAIL@
	DD	FLAT:??_C@_0BD@HLCGKKJL@SMALL_ROCKET_TRAIL@
	DD	FLAT:??_C@_0BC@PBJIKEAI@DECOY_FLARE_TRAIL@
	DD	FLAT:??_C@_0O@OPMHECKH@INFINITE_FIRE@
	DD	FLAT:??_C@_0BE@FLJPIFEP@FIRE_SHORT_DURATION@
	DD	FLAT:??_C@_0BK@NAADIBAL@SMALL_FIRE_SHORT_DURATION@
	DD	FLAT:??_C@_0BD@NKDNIJB@VEHICLE_DUST_TRAIL@
	DD	FLAT:??_C@_0P@BHNIHGJN@REAR_SHIP_WAKE@
	DD	FLAT:??_C@_0BA@ELCFALHP@FRONT_SHIP_WAKE@
	DD	FLAT:??_C@_0BG@CCFDEFEI@AIRCRAFT_LIGHT_DAMAGE@
	DD	FLAT:??_C@_0BH@MOEONBMB@AIRCRAFT_MEDIUM_DAMAGE@
	DD	FLAT:??_C@_0BG@MHHNPOBA@AIRCRAFT_HEAVY_DAMAGE@
	DD	FLAT:??_C@_0BP@KHFBJJBE@AIRCRAFT_SMALL_TOUCHDOWN_TRAIL@
	DD	FLAT:??_C@_0BP@PIKMKDPG@AIRCRAFT_LARGE_TOUCHDOWN_TRAIL@
	DD	00H
_DATA	ENDS
PUBLIC	___local_stdio_printf_options
PUBLIC	___local_stdio_scanf_options
PUBLIC	__vfprintf_l
PUBLIC	_fprintf
PUBLIC	__vsscanf_l
PUBLIC	_sscanf
PUBLIC	?strchr@@YAPADQADH@Z				; strchr
PUBLIC	?create_client_server_meta_smoke_list_sub_object_offset@@YGHW4META_SMOKE_LIST_TYPES@@PAUENTITY@@HH@Z ; create_client_server_meta_smoke_list_sub_object_offset
PUBLIC	?create_client_server_meta_smoke_list_specified_offset@@YGHW4META_SMOKE_LIST_TYPES@@PAUENTITY@@PAUVEC3D@@@Z ; create_client_server_meta_smoke_list_specified_offset
PUBLIC	?create_meta_smoke_list_sub_object_offset@@YGHW4META_SMOKE_LIST_TYPES@@PAUENTITY@@HHPAH@Z ; create_meta_smoke_list_sub_object_offset
PUBLIC	?create_meta_smoke_list_specified_offset@@YGHW4META_SMOKE_LIST_TYPES@@PAUENTITY@@PAUVEC3D@@PAH@Z ; create_meta_smoke_list_specified_offset
PUBLIC	?create_meta_smoke_list_trails@@YGHPAUMETA_SMOKE_LIST_COMPONENT@@PAUENTITY@@PAUVEC3D@@MPAH@Z ; create_meta_smoke_list_trails
PUBLIC	?count_entities_in_meta_smoke_list@@YGHW4META_SMOKE_LIST_TYPES@@@Z ; count_entities_in_meta_smoke_list
PUBLIC	?initialise_meta_smoke_list_database@@YGXXZ	; initialise_meta_smoke_list_database
PUBLIC	?deinitialise_meta_smoke_list_database@@YGXXZ	; deinitialise_meta_smoke_list_database
PUBLIC	?get_meta_smoke_type_by_name@@YGHPBD@Z		; get_meta_smoke_type_by_name
PUBLIC	?_OptionsStorage@?1??__local_stdio_printf_options@@9@4_KA ; `__local_stdio_printf_options'::`2'::_OptionsStorage
PUBLIC	?_OptionsStorage@?1??__local_stdio_scanf_options@@9@4_KA ; `__local_stdio_scanf_options'::`2'::_OptionsStorage
PUBLIC	?__LINE__Var@?0??create_client_server_meta_smoke_list_sub_object_offset@@YGHW4META_SMOKE_LIST_TYPES@@PAUENTITY@@HH@Z@4JA ; `create_client_server_meta_smoke_list_sub_object_offset'::`1'::__LINE__Var
PUBLIC	??_C@_0FF@KGHFBLGA@c?3?2users?2nhv90?2projects?2eech?2ap@ ; `string'
PUBLIC	??_C@_0CJ@DMBLBJBK@get_comms_model?5?$CI?$CJ?5?$DN?$DN?5COMMS_MOD@ ; `string'
PUBLIC	??_C@_05IOMEMJEC@count@				; `string'
PUBLIC	?__LINE__Var@?0??create_meta_smoke_list_sub_object_offset@@YGHW4META_SMOKE_LIST_TYPES@@PAUENTITY@@HHPAH@Z@4JA ; `create_meta_smoke_list_sub_object_offset'::`1'::__LINE__Var
PUBLIC	??_C@_0CB@KJIIBBKN@type?5?$DO?5META_SMOKE_LIST_TYPE_NON@ ; `string'
PUBLIC	??_C@_0CB@IACMPAIK@type?5?$DM?5NUM_META_SMOKE_LIST_TYPE@ ; `string'
PUBLIC	??_C@_0DF@NCEPCJGL@CREATE?5META?5SMOKE?5LIST?5?3?5CLIENT@ ; `string'
PUBLIC	??_C@_0CM@KHDNCPIE@META?5SMOKE?5LIST?5?3?5Unknown?5compo@ ; `string'
PUBLIC	?__LINE__Var@?0??create_client_server_meta_smoke_list_specified_offset@@YGHW4META_SMOKE_LIST_TYPES@@PAUENTITY@@PAUVEC3D@@@Z@4JA ; `create_client_server_meta_smoke_list_specified_offset'::`1'::__LINE__Var
PUBLIC	?__LINE__Var@?0??create_meta_smoke_list_specified_offset@@YGHW4META_SMOKE_LIST_TYPES@@PAUENTITY@@PAUVEC3D@@PAH@Z@4JA ; `create_meta_smoke_list_specified_offset'::`1'::__LINE__Var
PUBLIC	??_C@_06MLKDMCBD@parent@			; `string'
PUBLIC	?__LINE__Var@?0??create_meta_smoke_list_sprites@@YGHPAUMETA_SMOKE_LIST_COMPONENT@@PAUENTITY@@PAUVEC3D@@PAH@Z@4JA ; `create_meta_smoke_list_sprites'::`1'::__LINE__Var
PUBLIC	?__LINE__Var@?0??create_meta_smoke_list_trails@@YGHPAUMETA_SMOKE_LIST_COMPONENT@@PAUENTITY@@PAUVEC3D@@MPAH@Z@4JA ; `create_meta_smoke_list_trails'::`1'::__LINE__Var
PUBLIC	??_C@_0CH@MFEDIHNN@smoke_list_component?9?$DOtrail_cou@ ; `string'
PUBLIC	??_C@_03PCBNCGFH@pos@				; `string'
PUBLIC	?__LINE__Var@?0??count_entities_in_meta_smoke_list@@YGHW4META_SMOKE_LIST_TYPES@@@Z@4JA ; `count_entities_in_meta_smoke_list'::`1'::__LINE__Var
PUBLIC	?__LINE__Var@?0??export_meta_smoke_list_database@@YGXXZ@4JA ; `export_meta_smoke_list_database'::`1'::__LINE__Var
PUBLIC	??_C@_01NOFIACDB@w@				; `string'
PUBLIC	??_C@_0N@EACFBDEN@METASMOK?4CSV@		; `string'
PUBLIC	??_C@_0O@FMKDHNOO@META_SMOKE?$DL2?6@		; `string'
PUBLIC	??_C@_0PM@GAFJBACC@?$CDMeta?5Smoke?5index?$DLMeta?5Smoke?5na@ ; `string'
PUBLIC	??_C@_06DNKIIADA@?$CFi?$DL?$CFs?6@		; `string'
PUBLIC	??_C@_0CK@KJIELJEA@SPRITES?$DL?$CFs?$DL?$CFi?$DL?$CFi?$DL?$CFi?$DL?$CFi?$DL?$CFi?$DL?$CFf?$DL?$CFf@ ; `string'
PUBLIC	??_C@_0BN@CMNFFAGL@TRAILS?$DL?$CFs?$DL?$CFs?$DL?$CFi?$DL?$CFi?$DL?$CFf?$DL?$CFf?$DL?$CFf?6@ ; `string'
PUBLIC	??_C@_05MAJJAKPI@FALSE@				; `string'
PUBLIC	?__LINE__Var@?0??import_meta_smoke_list_database@@YGXXZ@4JA ; `import_meta_smoke_list_database'::`1'::__LINE__Var
PUBLIC	??_C@_01KDCPPGHE@r@				; `string'
PUBLIC	??_C@_07NFKMHHIJ@SPRITES@			; `string'
PUBLIC	??_C@_06JPNGFIKE@TRAILS@			; `string'
PUBLIC	??_C@_02IKAHHCAI@?$CFi@				; `string'
PUBLIC	??_C@_0EG@LPMCBKDE@meta_smoke?9?$DOnumber_of_component@ ; `string'
PUBLIC	??_C@_0BO@EBBNJJGL@?$CFi?$DL?$CFi?$DL?$CFi?$DL?$CFi?$DL?$CFi?$DL?$CFf?$DL?$CFf?$DL?$CFf?$DL?$CFf?$DL?$CFi@ ; `string'
PUBLIC	??_C@_0P@HFNDJNOI@?$CFi?$DL?$CFi?$DL?$CFf?$DL?$CFf?$DL?$CFf@ ; `string'
PUBLIC	__real@0000000000000000
PUBLIC	__real@3ca3d70a
PUBLIC	__real@3d23d70a
PUBLIC	__real@3d4ccccd
PUBLIC	__real@3d75c28f
PUBLIC	__real@3da3d70a
PUBLIC	__real@3dcccccd
PUBLIC	__real@3e4ccccd
PUBLIC	__real@3f000000
PUBLIC	__real@3f0ccccd
PUBLIC	__real@3f19999a
PUBLIC	__real@3f400000
PUBLIC	__real@3f800000
PUBLIC	__real@3f99999a
PUBLIC	__real@3fc00000
PUBLIC	__real@40000000
PUBLIC	__real@40200000
PUBLIC	__real@40400000
PUBLIC	__real@40800000
PUBLIC	__real@40900000
PUBLIC	__real@40a00000
PUBLIC	__real@41000000
PUBLIC	__real@41080000
PUBLIC	__real@41200000
PUBLIC	__real@41480000
PUBLIC	__real@420c0000
PUBLIC	__real@42700000
PUBLIC	__real@43340000
EXTRN	__imp__fgets:PROC
EXTRN	__imp____stdio_common_vfprintf:PROC
EXTRN	__imp____stdio_common_vsscanf:PROC
EXTRN	_strchr:PROC
EXTRN	_strcmp:PROC
EXTRN	__imp___stricmp:PROC
EXTRN	?process_assert@@YGXPBD0H@Z:PROC		; process_assert
EXTRN	?debug_fatal@@YAXPBDZZ:PROC			; debug_fatal
EXTRN	?file_exist@@YGHPBD@Z:PROC			; file_exist
EXTRN	?safe_fopen@@YGPAU_iobuf@@PBD0@Z:PROC		; safe_fopen
EXTRN	?safe_fclose@@YGHPAU_iobuf@@@Z:PROC		; safe_fclose
EXTRN	?malloc_fast_memory@@YGPAXI@Z:PROC		; malloc_fast_memory
EXTRN	?free_mem@@YGXPAX@Z:PROC			; free_mem
EXTRN	?get_3d_vector_magnitude@@YGMPBUVEC3D@@@Z:PROC	; get_3d_vector_magnitude
EXTRN	?add_new_animation@@YGHPAD@Z:PROC		; add_new_animation
EXTRN	?find_object_3d_sub_object_from_sub_object@@YG?AW4SUB_OBJECT_SEARCH_RESULT_TYPES@@PAUOBJECT_3D_SUB_OBJECT_SEARCH_DATA@@0@Z:PROC ; find_object_3d_sub_object_from_sub_object
EXTRN	?create_local_entity@@YAPAUENTITY@@W4ENTITY_TYPES@@HZZ:PROC ; create_local_entity
EXTRN	?transmit_entity_comms_message@@YAXW4ENTITY_COMMS_MESSAGES@@PAUENTITY@@ZZ:PROC ; transmit_entity_comms_message
EXTRN	?get_sub_object_relative_position@@YGHPAUOBJECT_3D_INSTANCE@@HHPAUVEC3D@@PAUOBJECT_3D_SUB_OBJECT_SEARCH_DATA@@@Z:PROC ; get_sub_object_relative_position
EXTRN	?get_smoke_type_by_name@@YGHPBD@Z:PROC		; get_smoke_type_by_name
EXTRN	?texture_animation_names@@3PAPBDA:DWORD		; texture_animation_names
EXTRN	?entity_sub_type_effect_names@@3PAPBDA:BYTE	; entity_sub_type_effect_names
EXTRN	?null_entity_pointer_message@@3PBDB:DWORD	; null_entity_pointer_message
EXTRN	?system_comms_model@@3W4COMMS_MODEL_TYPES@@A:DWORD ; system_comms_model
EXTRN	?system_comms_data_flow@@3W4COMMS_DATA_FLOW_TYPES@@A:DWORD ; system_comms_data_flow
EXTRN	?force_local_entity_create_stack_attributes@@3HA:DWORD ; force_local_entity_create_stack_attributes
EXTRN	?overload_invalid_ptr_type_message@@3PBDB:DWORD	; overload_invalid_ptr_type_message
EXTRN	?fn_get_local_entity_ptr_value@@3PAY0BE@P6GPAXPAUENTITY@@W4PTR_TYPES@@@ZA:BYTE ; fn_get_local_entity_ptr_value
EXTRN	?fn_update_client_server_entity@@3PAY01P6GXPAUENTITY@@@ZA:BYTE ; fn_update_client_server_entity
EXTRN	?overload_invalid_vec3d_type_message@@3PBDB:DWORD ; overload_invalid_vec3d_type_message
EXTRN	?fn_set_local_entity_vec3d@@3PAY0BI@P6GXPAUENTITY@@W4VEC3D_TYPES@@PAUVEC3D@@@ZA:BYTE ; fn_set_local_entity_vec3d
EXTRN	?fn_get_local_entity_vec3d_ptr@@3PAY0BI@P6GPAUVEC3D@@PAUENTITY@@W4VEC3D_TYPES@@@ZA:BYTE ; fn_get_local_entity_vec3d_ptr
EXTRN	?entities@@3PAUENTITY@@A:DWORD			; entities
EXTRN	?weapon_database@@3PAUWEAPON_DATA@@A:BYTE	; weapon_database
EXTRN	?smoke_list_types_names@@3PAPADA:DWORD		; smoke_list_types_names
EXTRN	?smoke_list_database@@3PAUSMOKE_LIST_DATA@@A:DWORD ; smoke_list_database
EXTRN	__fltused:DWORD
;	COMDAT ?_OptionsStorage@?1??__local_stdio_printf_options@@9@4_KA
_BSS	SEGMENT
?_OptionsStorage@?1??__local_stdio_printf_options@@9@4_KA DQ 01H DUP (?) ; `__local_stdio_printf_options'::`2'::_OptionsStorage
_BSS	ENDS
;	COMDAT ?_OptionsStorage@?1??__local_stdio_scanf_options@@9@4_KA
_BSS	SEGMENT
?_OptionsStorage@?1??__local_stdio_scanf_options@@9@4_KA DQ 01H DUP (?) ; `__local_stdio_scanf_options'::`2'::_OptionsStorage
_BSS	ENDS
;	COMDAT __real@43340000
CONST	SEGMENT
__real@43340000 DD 043340000r			; 180
CONST	ENDS
;	COMDAT __real@42700000
CONST	SEGMENT
__real@42700000 DD 042700000r			; 60
CONST	ENDS
;	COMDAT __real@420c0000
CONST	SEGMENT
__real@420c0000 DD 0420c0000r			; 35
CONST	ENDS
;	COMDAT __real@41480000
CONST	SEGMENT
__real@41480000 DD 041480000r			; 12.5
CONST	ENDS
;	COMDAT __real@41200000
CONST	SEGMENT
__real@41200000 DD 041200000r			; 10
CONST	ENDS
;	COMDAT __real@41080000
CONST	SEGMENT
__real@41080000 DD 041080000r			; 8.5
CONST	ENDS
;	COMDAT __real@41000000
CONST	SEGMENT
__real@41000000 DD 041000000r			; 8
CONST	ENDS
;	COMDAT __real@40a00000
CONST	SEGMENT
__real@40a00000 DD 040a00000r			; 5
CONST	ENDS
;	COMDAT __real@40900000
CONST	SEGMENT
__real@40900000 DD 040900000r			; 4.5
CONST	ENDS
;	COMDAT __real@40800000
CONST	SEGMENT
__real@40800000 DD 040800000r			; 4
CONST	ENDS
;	COMDAT __real@40400000
CONST	SEGMENT
__real@40400000 DD 040400000r			; 3
CONST	ENDS
;	COMDAT __real@40200000
CONST	SEGMENT
__real@40200000 DD 040200000r			; 2.5
CONST	ENDS
;	COMDAT __real@40000000
CONST	SEGMENT
__real@40000000 DD 040000000r			; 2
CONST	ENDS
;	COMDAT __real@3fc00000
CONST	SEGMENT
__real@3fc00000 DD 03fc00000r			; 1.5
CONST	ENDS
;	COMDAT __real@3f99999a
CONST	SEGMENT
__real@3f99999a DD 03f99999ar			; 1.2
CONST	ENDS
;	COMDAT __real@3f800000
CONST	SEGMENT
__real@3f800000 DD 03f800000r			; 1
CONST	ENDS
;	COMDAT __real@3f400000
CONST	SEGMENT
__real@3f400000 DD 03f400000r			; 0.75
CONST	ENDS
;	COMDAT __real@3f19999a
CONST	SEGMENT
__real@3f19999a DD 03f19999ar			; 0.6
CONST	ENDS
;	COMDAT __real@3f0ccccd
CONST	SEGMENT
__real@3f0ccccd DD 03f0ccccdr			; 0.55
CONST	ENDS
;	COMDAT __real@3f000000
CONST	SEGMENT
__real@3f000000 DD 03f000000r			; 0.5
CONST	ENDS
;	COMDAT __real@3e4ccccd
CONST	SEGMENT
__real@3e4ccccd DD 03e4ccccdr			; 0.2
CONST	ENDS
;	COMDAT __real@3dcccccd
CONST	SEGMENT
__real@3dcccccd DD 03dcccccdr			; 0.1
CONST	ENDS
;	COMDAT __real@3da3d70a
CONST	SEGMENT
__real@3da3d70a DD 03da3d70ar			; 0.08
CONST	ENDS
;	COMDAT __real@3d75c28f
CONST	SEGMENT
__real@3d75c28f DD 03d75c28fr			; 0.06
CONST	ENDS
;	COMDAT __real@3d4ccccd
CONST	SEGMENT
__real@3d4ccccd DD 03d4ccccdr			; 0.05
CONST	ENDS
;	COMDAT __real@3d23d70a
CONST	SEGMENT
__real@3d23d70a DD 03d23d70ar			; 0.04
CONST	ENDS
;	COMDAT __real@3ca3d70a
CONST	SEGMENT
__real@3ca3d70a DD 03ca3d70ar			; 0.02
CONST	ENDS
;	COMDAT __real@0000000000000000
CONST	SEGMENT
__real@0000000000000000 DQ 00000000000000000r	; 0
CONST	ENDS
;	COMDAT ??_C@_0P@HFNDJNOI@?$CFi?$DL?$CFi?$DL?$CFf?$DL?$CFf?$DL?$CFf@
CONST	SEGMENT
??_C@_0P@HFNDJNOI@?$CFi?$DL?$CFi?$DL?$CFf?$DL?$CFf?$DL?$CFf@ DB '%i;%i;%f'
	DB	';%f;%f', 00H				; `string'
CONST	ENDS
;	COMDAT ??_C@_0BO@EBBNJJGL@?$CFi?$DL?$CFi?$DL?$CFi?$DL?$CFi?$DL?$CFi?$DL?$CFf?$DL?$CFf?$DL?$CFf?$DL?$CFf?$DL?$CFi@
CONST	SEGMENT
??_C@_0BO@EBBNJJGL@?$CFi?$DL?$CFi?$DL?$CFi?$DL?$CFi?$DL?$CFi?$DL?$CFf?$DL?$CFf?$DL?$CFf?$DL?$CFf?$DL?$CFi@ DB '%'
	DB	'i;%i;%i;%i;%i;%f;%f;%f;%f;%i', 00H		; `string'
CONST	ENDS
;	COMDAT ??_C@_0EG@LPMCBKDE@meta_smoke?9?$DOnumber_of_component@
CONST	SEGMENT
??_C@_0EG@LPMCBKDE@meta_smoke?9?$DOnumber_of_component@ DB 'meta_smoke->n'
	DB	'umber_of_components < MAX_COMPONENTS_PER_META_SMOKE_LIST', 00H ; `string'
CONST	ENDS
;	COMDAT ??_C@_02IKAHHCAI@?$CFi@
CONST	SEGMENT
??_C@_02IKAHHCAI@?$CFi@ DB '%i', 00H			; `string'
CONST	ENDS
;	COMDAT ??_C@_06JPNGFIKE@TRAILS@
CONST	SEGMENT
??_C@_06JPNGFIKE@TRAILS@ DB 'TRAILS', 00H		; `string'
CONST	ENDS
;	COMDAT ??_C@_07NFKMHHIJ@SPRITES@
CONST	SEGMENT
??_C@_07NFKMHHIJ@SPRITES@ DB 'SPRITES', 00H		; `string'
CONST	ENDS
;	COMDAT ??_C@_01KDCPPGHE@r@
CONST	SEGMENT
??_C@_01KDCPPGHE@r@ DB 'r', 00H				; `string'
CONST	ENDS
;	COMDAT ?__LINE__Var@?0??import_meta_smoke_list_database@@YGXXZ@4JA
_DATA	SEGMENT
?__LINE__Var@?0??import_meta_smoke_list_database@@YGXXZ@4JA DD 0318H ; `import_meta_smoke_list_database'::`1'::__LINE__Var
_DATA	ENDS
;	COMDAT ??_C@_05MAJJAKPI@FALSE@
CONST	SEGMENT
??_C@_05MAJJAKPI@FALSE@ DB 'FALSE', 00H			; `string'
CONST	ENDS
;	COMDAT ??_C@_0BN@CMNFFAGL@TRAILS?$DL?$CFs?$DL?$CFs?$DL?$CFi?$DL?$CFi?$DL?$CFf?$DL?$CFf?$DL?$CFf?6@
CONST	SEGMENT
??_C@_0BN@CMNFFAGL@TRAILS?$DL?$CFs?$DL?$CFs?$DL?$CFi?$DL?$CFi?$DL?$CFf?$DL?$CFf?$DL?$CFf?6@ DB 'T'
	DB	'RAILS;%s;%s;%i;%i;%f;%f;%f', 0aH, 00H	; `string'
CONST	ENDS
;	COMDAT ??_C@_0CK@KJIELJEA@SPRITES?$DL?$CFs?$DL?$CFi?$DL?$CFi?$DL?$CFi?$DL?$CFi?$DL?$CFi?$DL?$CFf?$DL?$CFf@
CONST	SEGMENT
??_C@_0CK@KJIELJEA@SPRITES?$DL?$CFs?$DL?$CFi?$DL?$CFi?$DL?$CFi?$DL?$CFi?$DL?$CFi?$DL?$CFf?$DL?$CFf@ DB 'S'
	DB	'PRITES;%s;%i;%i;%i;%i;%i;%f;%f;%f;%f;%i', 0aH, 00H ; `string'
CONST	ENDS
;	COMDAT ??_C@_06DNKIIADA@?$CFi?$DL?$CFs?6@
CONST	SEGMENT
??_C@_06DNKIIADA@?$CFi?$DL?$CFs?6@ DB '%i;%s', 0aH, 00H	; `string'
CONST	ENDS
;	COMDAT ??_C@_0PM@GAFJBACC@?$CDMeta?5Smoke?5index?$DLMeta?5Smoke?5na@
CONST	SEGMENT
??_C@_0PM@GAFJBACC@?$CDMeta?5Smoke?5index?$DLMeta?5Smoke?5na@ DB '#Meta S'
	DB	'moke index;Meta Smoke name', 0aH, '#SPRITES;Animated texture;'
	DB	'Sprite count;Color (red;green;blue;alpha);Animation frequency'
	DB	';Lifetime;Scale;Rotation rate;Additive', 0aH, '#TRAILS;Trail '
	DB	'type;Effect;Trail count;Infinite;Generator lifetime;Frequency'
	DB	';Smoke lifetime', 0aH, 00H			; `string'
CONST	ENDS
;	COMDAT ??_C@_0O@FMKDHNOO@META_SMOKE?$DL2?6@
CONST	SEGMENT
??_C@_0O@FMKDHNOO@META_SMOKE?$DL2?6@ DB 'META_SMOKE;2', 0aH, 00H ; `string'
CONST	ENDS
;	COMDAT ??_C@_0N@EACFBDEN@METASMOK?4CSV@
CONST	SEGMENT
??_C@_0N@EACFBDEN@METASMOK?4CSV@ DB 'METASMOK.CSV', 00H	; `string'
CONST	ENDS
;	COMDAT ??_C@_01NOFIACDB@w@
CONST	SEGMENT
??_C@_01NOFIACDB@w@ DB 'w', 00H				; `string'
CONST	ENDS
;	COMDAT ?__LINE__Var@?0??export_meta_smoke_list_database@@YGXXZ@4JA
_DATA	SEGMENT
?__LINE__Var@?0??export_meta_smoke_list_database@@YGXXZ@4JA DD 02d6H ; `export_meta_smoke_list_database'::`1'::__LINE__Var
_DATA	ENDS
;	COMDAT ?__LINE__Var@?0??count_entities_in_meta_smoke_list@@YGHW4META_SMOKE_LIST_TYPES@@@Z@4JA
_DATA	SEGMENT
?__LINE__Var@?0??count_entities_in_meta_smoke_list@@YGHW4META_SMOKE_LIST_TYPES@@@Z@4JA DD 0276H ; `count_entities_in_meta_smoke_list'::`1'::__LINE__Var
_DATA	ENDS
;	COMDAT ??_C@_03PCBNCGFH@pos@
CONST	SEGMENT
??_C@_03PCBNCGFH@pos@ DB 'pos', 00H			; `string'
CONST	ENDS
;	COMDAT ??_C@_0CH@MFEDIHNN@smoke_list_component?9?$DOtrail_cou@
CONST	SEGMENT
??_C@_0CH@MFEDIHNN@smoke_list_component?9?$DOtrail_cou@ DB 'smoke_list_co'
	DB	'mponent->trail_count == 1', 00H		; `string'
CONST	ENDS
;	COMDAT ?__LINE__Var@?0??create_meta_smoke_list_trails@@YGHPAUMETA_SMOKE_LIST_COMPONENT@@PAUENTITY@@PAUVEC3D@@MPAH@Z@4JA
_DATA	SEGMENT
?__LINE__Var@?0??create_meta_smoke_list_trails@@YGHPAUMETA_SMOKE_LIST_COMPONENT@@PAUENTITY@@PAUVEC3D@@MPAH@Z@4JA DD 020fH ; `create_meta_smoke_list_trails'::`1'::__LINE__Var
_DATA	ENDS
;	COMDAT ?__LINE__Var@?0??create_meta_smoke_list_sprites@@YGHPAUMETA_SMOKE_LIST_COMPONENT@@PAUENTITY@@PAUVEC3D@@PAH@Z@4JA
_DATA	SEGMENT
?__LINE__Var@?0??create_meta_smoke_list_sprites@@YGHPAUMETA_SMOKE_LIST_COMPONENT@@PAUENTITY@@PAUVEC3D@@PAH@Z@4JA DD 01bdH ; `create_meta_smoke_list_sprites'::`1'::__LINE__Var
_DATA	ENDS
;	COMDAT ??_C@_06MLKDMCBD@parent@
CONST	SEGMENT
??_C@_06MLKDMCBD@parent@ DB 'parent', 00H		; `string'
CONST	ENDS
;	COMDAT ?__LINE__Var@?0??create_meta_smoke_list_specified_offset@@YGHW4META_SMOKE_LIST_TYPES@@PAUENTITY@@PAUVEC3D@@PAH@Z@4JA
_DATA	SEGMENT
?__LINE__Var@?0??create_meta_smoke_list_specified_offset@@YGHW4META_SMOKE_LIST_TYPES@@PAUENTITY@@PAUVEC3D@@PAH@Z@4JA DD 015fH ; `create_meta_smoke_list_specified_offset'::`1'::__LINE__Var
_DATA	ENDS
;	COMDAT ?__LINE__Var@?0??create_client_server_meta_smoke_list_specified_offset@@YGHW4META_SMOKE_LIST_TYPES@@PAUENTITY@@PAUVEC3D@@@Z@4JA
_DATA	SEGMENT
?__LINE__Var@?0??create_client_server_meta_smoke_list_specified_offset@@YGHW4META_SMOKE_LIST_TYPES@@PAUENTITY@@PAUVEC3D@@@Z@4JA DD 0122H ; `create_client_server_meta_smoke_list_specified_offset'::`1'::__LINE__Var
_DATA	ENDS
;	COMDAT ??_C@_0CM@KHDNCPIE@META?5SMOKE?5LIST?5?3?5Unknown?5compo@
CONST	SEGMENT
??_C@_0CM@KHDNCPIE@META?5SMOKE?5LIST?5?3?5Unknown?5compo@ DB 'META SMOKE '
	DB	'LIST : Unknown component type %d', 00H	; `string'
CONST	ENDS
;	COMDAT ??_C@_0DF@NCEPCJGL@CREATE?5META?5SMOKE?5LIST?5?3?5CLIENT@
CONST	SEGMENT
??_C@_0DF@NCEPCJGL@CREATE?5META?5SMOKE?5LIST?5?3?5CLIENT@ DB 'CREATE META'
	DB	' SMOKE LIST : CLIENT creating in t/x mode', 00H ; `string'
CONST	ENDS
;	COMDAT ??_C@_0CB@IACMPAIK@type?5?$DM?5NUM_META_SMOKE_LIST_TYPE@
CONST	SEGMENT
??_C@_0CB@IACMPAIK@type?5?$DM?5NUM_META_SMOKE_LIST_TYPE@ DB 'type < NUM_M'
	DB	'ETA_SMOKE_LIST_TYPES', 00H			; `string'
CONST	ENDS
;	COMDAT ??_C@_0CB@KJIIBBKN@type?5?$DO?5META_SMOKE_LIST_TYPE_NON@
CONST	SEGMENT
??_C@_0CB@KJIIBBKN@type?5?$DO?5META_SMOKE_LIST_TYPE_NON@ DB 'type > META_'
	DB	'SMOKE_LIST_TYPE_NONE', 00H			; `string'
CONST	ENDS
;	COMDAT ?__LINE__Var@?0??create_meta_smoke_list_sub_object_offset@@YGHW4META_SMOKE_LIST_TYPES@@PAUENTITY@@HHPAH@Z@4JA
_DATA	SEGMENT
?__LINE__Var@?0??create_meta_smoke_list_sub_object_offset@@YGHW4META_SMOKE_LIST_TYPES@@PAUENTITY@@HHPAH@Z@4JA DD 097H ; `create_meta_smoke_list_sub_object_offset'::`1'::__LINE__Var
_DATA	ENDS
;	COMDAT ??_C@_05IOMEMJEC@count@
CONST	SEGMENT
??_C@_05IOMEMJEC@count@ DB 'count', 00H			; `string'
CONST	ENDS
;	COMDAT ??_C@_0CJ@DMBLBJBK@get_comms_model?5?$CI?$CJ?5?$DN?$DN?5COMMS_MOD@
CONST	SEGMENT
??_C@_0CJ@DMBLBJBK@get_comms_model?5?$CI?$CJ?5?$DN?$DN?5COMMS_MOD@ DB 'ge'
	DB	't_comms_model () == COMMS_MODEL_SERVER', 00H ; `string'
CONST	ENDS
;	COMDAT ??_C@_0FF@KGHFBLGA@c?3?2users?2nhv90?2projects?2eech?2ap@
CONST	SEGMENT
??_C@_0FF@KGHFBLGA@c?3?2users?2nhv90?2projects?2eech?2ap@ DB 'c:\users\nh'
	DB	'v90\projects\eech\aphavoc\source\entity\special\effect\smokel'
	DB	'st\sl_meta.c', 00H				; `string'
CONST	ENDS
;	COMDAT ?__LINE__Var@?0??create_client_server_meta_smoke_list_sub_object_offset@@YGHW4META_SMOKE_LIST_TYPES@@PAUENTITY@@HH@Z@4JA
_DATA	SEGMENT
?__LINE__Var@?0??create_client_server_meta_smoke_list_sub_object_offset@@YGHW4META_SMOKE_LIST_TYPES@@PAUENTITY@@HH@Z@4JA DD 05dH ; `create_client_server_meta_smoke_list_sub_object_offset'::`1'::__LINE__Var
_DATA	ENDS
; Function compile flags: /Odtp /ZI
; File c:\users\nhv90\projects\eech\aphavoc\source\entity\special\effect\smokelst\sl_meta.c
;	COMDAT ?import_meta_smoke_list_database@@YGXXZ
_TEXT	SEGMENT
tv199 = -2428						; size = 4
tv193 = -2428						; size = 4
tv187 = -2428						; size = 4
tv181 = -2428						; size = 4
tv200 = -2424						; size = 4
tv194 = -2424						; size = 4
tv188 = -2424						; size = 4
tv182 = -2424						; size = 4
tv154 = -2424						; size = 4
tv204 = -2421						; size = 1
_additive$ = -2100					; size = 4
_alpha$ = -2096						; size = 4
_blue$ = -2092						; size = 4
_green$ = -2088						; size = 4
_red$ = -2084						; size = 4
_co$ = -2080						; size = 4
_meta_smoke$ = -2076					; size = 4
_type$ = -2072						; size = 4
_count$ = -2068						; size = 4
_effect$ = -2064					; size = 4
_name$ = -2060						; size = 4
_ptr$ = -2056						; size = 4
_buf$ = -2052						; size = 2048
_file$ = -4						; size = 4
?import_meta_smoke_list_database@@YGXXZ PROC		; import_meta_smoke_list_database, COMDAT

; 792  : {

  00000	55		 push	 ebp
  00001	8b ec		 mov	 ebp, esp
  00003	81 ec 7c 09 00
	00		 sub	 esp, 2428		; 0000097cH
  00009	53		 push	 ebx
  0000a	56		 push	 esi
  0000b	57		 push	 edi

; 793  : 	FILE
; 794  : 		*file;
; 795  : 	char
; 796  : 		buf[2048],
; 797  : 		*ptr,
; 798  : 		*name,
; 799  : 		*effect;
; 800  : 	int
; 801  : 		count,
; 802  : 		type;
; 803  : 	meta_smoke_list_data
; 804  : 		*meta_smoke;
; 805  : 	meta_smoke_list_component
; 806  : 		*co;
; 807  : 	int
; 808  : 		red,
; 809  : 		green,
; 810  : 		blue,
; 811  : 		alpha,
; 812  : 		additive;
; 813  : 
; 814  : 	file = safe_fopen(META_SMOKE_LIST_DATABASE_FILENAME, "r");

  0000c	68 00 00 00 00	 push	 OFFSET ??_C@_01KDCPPGHE@r@
  00011	68 00 00 00 00	 push	 OFFSET ??_C@_0N@EACFBDEN@METASMOK?4CSV@
  00016	e8 00 00 00 00	 call	 ?safe_fopen@@YGPAU_iobuf@@PBD0@Z ; safe_fopen
  0001b	89 45 fc	 mov	 DWORD PTR _file$[ebp], eax

; 815  : 	fgets(buf, sizeof (buf), file);

  0001e	8b 45 fc	 mov	 eax, DWORD PTR _file$[ebp]
  00021	50		 push	 eax
  00022	68 00 08 00 00	 push	 2048			; 00000800H
  00027	8d 8d fc f7 ff
	ff		 lea	 ecx, DWORD PTR _buf$[ebp]
  0002d	51		 push	 ecx
  0002e	ff 15 00 00 00
	00		 call	 DWORD PTR __imp__fgets
  00034	83 c4 0c	 add	 esp, 12			; 0000000cH

; 816  : 	if (!strcmp(buf, "META_SMOKE;2\n"))

  00037	68 00 00 00 00	 push	 OFFSET ??_C@_0O@FMKDHNOO@META_SMOKE?$DL2?6@
  0003c	8d 85 fc f7 ff
	ff		 lea	 eax, DWORD PTR _buf$[ebp]
  00042	50		 push	 eax
  00043	e8 00 00 00 00	 call	 _strcmp
  00048	83 c4 08	 add	 esp, 8
  0004b	85 c0		 test	 eax, eax
  0004d	0f 85 80 05 00
	00		 jne	 $LN9@import_met
$LN2@import_met:

; 817  : 	{
; 818  : 		while (fgets(buf, sizeof (buf), file))

  00053	8b 45 fc	 mov	 eax, DWORD PTR _file$[ebp]
  00056	50		 push	 eax
  00057	68 00 08 00 00	 push	 2048			; 00000800H
  0005c	8d 8d fc f7 ff
	ff		 lea	 ecx, DWORD PTR _buf$[ebp]
  00062	51		 push	 ecx
  00063	ff 15 00 00 00
	00		 call	 DWORD PTR __imp__fgets
  00069	83 c4 0c	 add	 esp, 12			; 0000000cH
  0006c	85 c0		 test	 eax, eax
  0006e	0f 84 5f 05 00
	00		 je	 $LN9@import_met

; 819  : 		{
; 820  : 			ptr = strchr(buf, '#');

  00074	6a 23		 push	 35			; 00000023H
  00076	8d 85 fc f7 ff
	ff		 lea	 eax, DWORD PTR _buf$[ebp]
  0007c	50		 push	 eax
  0007d	e8 00 00 00 00	 call	 ?strchr@@YAPADQADH@Z	; strchr
  00082	83 c4 08	 add	 esp, 8
  00085	89 85 f8 f7 ff
	ff		 mov	 DWORD PTR _ptr$[ebp], eax

; 821  : 			if (ptr)

  0008b	83 bd f8 f7 ff
	ff 00		 cmp	 DWORD PTR _ptr$[ebp], 0
  00092	74 09		 je	 SHORT $LN10@import_met

; 822  : 			{
; 823  : 				*ptr = '\0';

  00094	8b 85 f8 f7 ff
	ff		 mov	 eax, DWORD PTR _ptr$[ebp]
  0009a	c6 00 00	 mov	 BYTE PTR [eax], 0
$LN10@import_met:

; 824  : 			}
; 825  : 			ptr = strchr(buf, ';');

  0009d	6a 3b		 push	 59			; 0000003bH
  0009f	8d 85 fc f7 ff
	ff		 lea	 eax, DWORD PTR _buf$[ebp]
  000a5	50		 push	 eax
  000a6	e8 00 00 00 00	 call	 ?strchr@@YAPADQADH@Z	; strchr
  000ab	83 c4 08	 add	 esp, 8
  000ae	89 85 f8 f7 ff
	ff		 mov	 DWORD PTR _ptr$[ebp], eax

; 826  : 			if (!ptr)

  000b4	83 bd f8 f7 ff
	ff 00		 cmp	 DWORD PTR _ptr$[ebp], 0
  000bb	75 02		 jne	 SHORT $LN11@import_met

; 827  : 			{
; 828  : 				continue;

  000bd	eb 94		 jmp	 SHORT $LN2@import_met
$LN11@import_met:

; 829  : 			}
; 830  : 			*ptr = '\0';

  000bf	8b 85 f8 f7 ff
	ff		 mov	 eax, DWORD PTR _ptr$[ebp]
  000c5	c6 00 00	 mov	 BYTE PTR [eax], 0

; 831  : 
; 832  : 			type = NUM_SMOKE_LIST_COMPONENT_TYPES;

  000c8	c7 85 e8 f7 ff
	ff 03 00 00 00	 mov	 DWORD PTR _type$[ebp], 3

; 833  : 			if (!strcmp(buf, "SPRITES"))

  000d2	68 00 00 00 00	 push	 OFFSET ??_C@_07NFKMHHIJ@SPRITES@
  000d7	8d 85 fc f7 ff
	ff		 lea	 eax, DWORD PTR _buf$[ebp]
  000dd	50		 push	 eax
  000de	e8 00 00 00 00	 call	 _strcmp
  000e3	83 c4 08	 add	 esp, 8
  000e6	85 c0		 test	 eax, eax
  000e8	75 0c		 jne	 SHORT $LN12@import_met

; 834  : 			{
; 835  : 				type = SMOKE_LIST_SPRITES;

  000ea	c7 85 e8 f7 ff
	ff 01 00 00 00	 mov	 DWORD PTR _type$[ebp], 1
  000f4	eb 22		 jmp	 SHORT $LN13@import_met
$LN12@import_met:

; 836  : 			}
; 837  : 			else if (!strcmp(buf, "TRAILS"))

  000f6	68 00 00 00 00	 push	 OFFSET ??_C@_06JPNGFIKE@TRAILS@
  000fb	8d 85 fc f7 ff
	ff		 lea	 eax, DWORD PTR _buf$[ebp]
  00101	50		 push	 eax
  00102	e8 00 00 00 00	 call	 _strcmp
  00107	83 c4 08	 add	 esp, 8
  0010a	85 c0		 test	 eax, eax
  0010c	75 0a		 jne	 SHORT $LN13@import_met

; 838  : 			{
; 839  : 				type = SMOKE_LIST_TRAILS;

  0010e	c7 85 e8 f7 ff
	ff 02 00 00 00	 mov	 DWORD PTR _type$[ebp], 2
$LN13@import_met:

; 840  : 			}
; 841  : 
; 842  : 			if (type == NUM_SMOKE_LIST_COMPONENT_TYPES)

  00118	83 bd e8 f7 ff
	ff 03		 cmp	 DWORD PTR _type$[ebp], 3
  0011f	75 67		 jne	 SHORT $LN15@import_met

; 843  : 			{
; 844  : 				meta_smoke = NULL;

  00121	c7 85 e4 f7 ff
	ff 00 00 00 00	 mov	 DWORD PTR _meta_smoke$[ebp], 0

; 845  : 				if (sscanf(buf, "%i", &count) != 1 || count < 0 || count >= NUM_META_SMOKE_LIST_TYPES)

  0012b	8d 85 ec f7 ff
	ff		 lea	 eax, DWORD PTR _count$[ebp]
  00131	50		 push	 eax
  00132	68 00 00 00 00	 push	 OFFSET ??_C@_02IKAHHCAI@?$CFi@
  00137	8d 8d fc f7 ff
	ff		 lea	 ecx, DWORD PTR _buf$[ebp]
  0013d	51		 push	 ecx
  0013e	e8 00 00 00 00	 call	 _sscanf
  00143	83 c4 0c	 add	 esp, 12			; 0000000cH
  00146	83 f8 01	 cmp	 eax, 1
  00149	75 12		 jne	 SHORT $LN18@import_met
  0014b	83 bd ec f7 ff
	ff 00		 cmp	 DWORD PTR _count$[ebp], 0
  00152	7c 09		 jl	 SHORT $LN18@import_met
  00154	83 bd ec f7 ff
	ff 0f		 cmp	 DWORD PTR _count$[ebp], 15 ; 0000000fH
  0015b	7c 05		 jl	 SHORT $LN17@import_met
$LN18@import_met:

; 846  : 				{
; 847  : 					continue;

  0015d	e9 f1 fe ff ff	 jmp	 $LN2@import_met
$LN17@import_met:

; 848  : 				}
; 849  : 				meta_smoke = &meta_smoke_list_database[count];

  00162	69 85 ec f7 ff
	ff 94 00 00 00	 imul	 eax, DWORD PTR _count$[ebp], 148
  0016c	05 00 00 00 00	 add	 eax, OFFSET ?meta_smoke_list_database@@3PAUMETA_SMOKE_LIST_DATA@@A ; meta_smoke_list_database
  00171	89 85 e4 f7 ff
	ff		 mov	 DWORD PTR _meta_smoke$[ebp], eax

; 850  : 				meta_smoke->number_of_components = 0;

  00177	8b 85 e4 f7 ff
	ff		 mov	 eax, DWORD PTR _meta_smoke$[ebp]
  0017d	c7 00 00 00 00
	00		 mov	 DWORD PTR [eax], 0

; 851  : 			}
; 852  : 			else

  00183	e9 46 04 00 00	 jmp	 $LN16@import_met
$LN15@import_met:

; 853  : 			{
; 854  : 				if (!meta_smoke)

  00188	83 bd e4 f7 ff
	ff 00		 cmp	 DWORD PTR _meta_smoke$[ebp], 0
  0018f	75 05		 jne	 SHORT $LN19@import_met

; 855  : 				{
; 856  : 					continue;

  00191	e9 bd fe ff ff	 jmp	 $LN2@import_met
$LN19@import_met:

; 857  : 				}
; 858  : 
; 859  : 				name = ptr + 1;

  00196	8b 85 f8 f7 ff
	ff		 mov	 eax, DWORD PTR _ptr$[ebp]
  0019c	83 c0 01	 add	 eax, 1
  0019f	89 85 f4 f7 ff
	ff		 mov	 DWORD PTR _name$[ebp], eax

; 860  : 				ptr = strchr(name, ';');

  001a5	6a 3b		 push	 59			; 0000003bH
  001a7	8b 85 f4 f7 ff
	ff		 mov	 eax, DWORD PTR _name$[ebp]
  001ad	50		 push	 eax
  001ae	e8 00 00 00 00	 call	 ?strchr@@YAPADQADH@Z	; strchr
  001b3	83 c4 08	 add	 esp, 8
  001b6	89 85 f8 f7 ff
	ff		 mov	 DWORD PTR _ptr$[ebp], eax

; 861  : 				if (!ptr)

  001bc	83 bd f8 f7 ff
	ff 00		 cmp	 DWORD PTR _ptr$[ebp], 0
  001c3	75 05		 jne	 SHORT $LN20@import_met

; 862  : 				{
; 863  : 					continue;

  001c5	e9 89 fe ff ff	 jmp	 $LN2@import_met
$LN20@import_met:

; 864  : 				}
; 865  : 				*ptr = 0;

  001ca	8b 85 f8 f7 ff
	ff		 mov	 eax, DWORD PTR _ptr$[ebp]
  001d0	c6 00 00	 mov	 BYTE PTR [eax], 0

; 866  : 
; 867  : 				ASSERT (meta_smoke->number_of_components < MAX_COMPONENTS_PER_META_SMOKE_LIST);

  001d3	8b 85 e4 f7 ff
	ff		 mov	 eax, DWORD PTR _meta_smoke$[ebp]
  001d9	83 38 04	 cmp	 DWORD PTR [eax], 4
  001dc	7c 18		 jl	 SHORT $LN21@import_met
  001de	a1 00 00 00 00	 mov	 eax, DWORD PTR ?__LINE__Var@?0??import_meta_smoke_list_database@@YGXXZ@4JA
  001e3	83 c0 4b	 add	 eax, 75			; 0000004bH
  001e6	50		 push	 eax
  001e7	68 00 00 00 00	 push	 OFFSET ??_C@_0FF@KGHFBLGA@c?3?2users?2nhv90?2projects?2eech?2ap@
  001ec	68 00 00 00 00	 push	 OFFSET ??_C@_0EG@LPMCBKDE@meta_smoke?9?$DOnumber_of_component@
  001f1	e8 00 00 00 00	 call	 ?process_assert@@YGXPBD0H@Z ; process_assert
$LN21@import_met:

; 868  : 				co = &meta_smoke->component[meta_smoke->number_of_components];

  001f6	8b 85 e4 f7 ff
	ff		 mov	 eax, DWORD PTR _meta_smoke$[ebp]
  001fc	6b 08 24	 imul	 ecx, DWORD PTR [eax], 36
  001ff	8b 95 e4 f7 ff
	ff		 mov	 edx, DWORD PTR _meta_smoke$[ebp]
  00205	8d 44 0a 04	 lea	 eax, DWORD PTR [edx+ecx+4]
  00209	89 85 e0 f7 ff
	ff		 mov	 DWORD PTR _co$[ebp], eax

; 869  : 				switch (type)

  0020f	8b 85 e8 f7 ff
	ff		 mov	 eax, DWORD PTR _type$[ebp]
  00215	89 85 88 f6 ff
	ff		 mov	 DWORD PTR tv154[ebp], eax
  0021b	83 bd 88 f6 ff
	ff 01		 cmp	 DWORD PTR tv154[ebp], 1
  00222	74 12		 je	 SHORT $LN22@import_met
  00224	83 bd 88 f6 ff
	ff 02		 cmp	 DWORD PTR tv154[ebp], 2
  0022b	0f 84 30 02 00
	00		 je	 $LN24@import_met
  00231	e9 75 03 00 00	 jmp	 $LN30@import_met
$LN22@import_met:

; 870  : 				{
; 871  : 				case SMOKE_LIST_SPRITES:
; 872  : 					{
; 873  : 						if (sscanf(ptr + 1,
; 874  : 							"%i;"
; 875  : 							"%i;%i;%i;%i;"
; 876  : 							"%f;%f;%f;%f;"
; 877  : 							"%i",
; 878  : 							&co->sprite_count,
; 879  : 							&red, &green, &blue, &alpha,
; 880  : 							&co->animation_frequency, &co->lifetime, &co->scale, &co->rotation_rate,
; 881  : 							&additive) != 9)

  00236	8d 85 cc f7 ff
	ff		 lea	 eax, DWORD PTR _additive$[ebp]
  0023c	50		 push	 eax
  0023d	8b 8d e0 f7 ff
	ff		 mov	 ecx, DWORD PTR _co$[ebp]
  00243	83 c1 1c	 add	 ecx, 28			; 0000001cH
  00246	51		 push	 ecx
  00247	8b 95 e0 f7 ff
	ff		 mov	 edx, DWORD PTR _co$[ebp]
  0024d	83 c2 18	 add	 edx, 24			; 00000018H
  00250	52		 push	 edx
  00251	8b 85 e0 f7 ff
	ff		 mov	 eax, DWORD PTR _co$[ebp]
  00257	83 c0 14	 add	 eax, 20			; 00000014H
  0025a	50		 push	 eax
  0025b	8b 8d e0 f7 ff
	ff		 mov	 ecx, DWORD PTR _co$[ebp]
  00261	83 c1 10	 add	 ecx, 16			; 00000010H
  00264	51		 push	 ecx
  00265	8d 95 d0 f7 ff
	ff		 lea	 edx, DWORD PTR _alpha$[ebp]
  0026b	52		 push	 edx
  0026c	8d 85 d4 f7 ff
	ff		 lea	 eax, DWORD PTR _blue$[ebp]
  00272	50		 push	 eax
  00273	8d 8d d8 f7 ff
	ff		 lea	 ecx, DWORD PTR _green$[ebp]
  00279	51		 push	 ecx
  0027a	8d 95 dc f7 ff
	ff		 lea	 edx, DWORD PTR _red$[ebp]
  00280	52		 push	 edx
  00281	8b 85 e0 f7 ff
	ff		 mov	 eax, DWORD PTR _co$[ebp]
  00287	83 c0 08	 add	 eax, 8
  0028a	50		 push	 eax
  0028b	68 00 00 00 00	 push	 OFFSET ??_C@_0BO@EBBNJJGL@?$CFi?$DL?$CFi?$DL?$CFi?$DL?$CFi?$DL?$CFi?$DL?$CFf?$DL?$CFf?$DL?$CFf?$DL?$CFf?$DL?$CFi@
  00290	8b 8d f8 f7 ff
	ff		 mov	 ecx, DWORD PTR _ptr$[ebp]
  00296	83 c1 01	 add	 ecx, 1
  00299	51		 push	 ecx
  0029a	e8 00 00 00 00	 call	 _sscanf
  0029f	83 c4 30	 add	 esp, 48			; 00000030H
  002a2	83 f8 09	 cmp	 eax, 9
  002a5	74 05		 je	 SHORT $LN23@import_met

; 882  : 						{
; 883  : 							continue;

  002a7	e9 a7 fd ff ff	 jmp	 $LN2@import_met
$LN23@import_met:

; 884  : 						}
; 885  : 						co->animated_texture = (texture_animation_indices)add_new_animation(name);

  002ac	8b 85 f4 f7 ff
	ff		 mov	 eax, DWORD PTR _name$[ebp]
  002b2	50		 push	 eax
  002b3	e8 00 00 00 00	 call	 ?add_new_animation@@YGHPAD@Z ; add_new_animation
  002b8	8b 8d e0 f7 ff
	ff		 mov	 ecx, DWORD PTR _co$[ebp]
  002be	89 41 04	 mov	 DWORD PTR [ecx+4], eax

; 886  : 						co->red = (unsigned char)bound (red, 0, 255);

  002c1	83 bd dc f7 ff
	ff 00		 cmp	 DWORD PTR _red$[ebp], 0
  002c8	7d 0c		 jge	 SHORT $LN35@import_met
  002ca	c7 85 88 f6 ff
	ff 00 00 00 00	 mov	 DWORD PTR tv182[ebp], 0
  002d4	eb 30		 jmp	 SHORT $LN36@import_met
$LN35@import_met:
  002d6	81 bd dc f7 ff
	ff ff 00 00 00	 cmp	 DWORD PTR _red$[ebp], 255 ; 000000ffH
  002e0	7e 0c		 jle	 SHORT $LN33@import_met
  002e2	c7 85 84 f6 ff
	ff ff 00 00 00	 mov	 DWORD PTR tv181[ebp], 255 ; 000000ffH
  002ec	eb 0c		 jmp	 SHORT $LN34@import_met
$LN33@import_met:
  002ee	8b 85 dc f7 ff
	ff		 mov	 eax, DWORD PTR _red$[ebp]
  002f4	89 85 84 f6 ff
	ff		 mov	 DWORD PTR tv181[ebp], eax
$LN34@import_met:
  002fa	8b 8d 84 f6 ff
	ff		 mov	 ecx, DWORD PTR tv181[ebp]
  00300	89 8d 88 f6 ff
	ff		 mov	 DWORD PTR tv182[ebp], ecx
$LN36@import_met:
  00306	8b 95 e0 f7 ff
	ff		 mov	 edx, DWORD PTR _co$[ebp]
  0030c	8a 85 88 f6 ff
	ff		 mov	 al, BYTE PTR tv182[ebp]
  00312	88 42 0c	 mov	 BYTE PTR [edx+12], al

; 887  : 						co->green = (unsigned char)bound (green, 0, 255);

  00315	83 bd d8 f7 ff
	ff 00		 cmp	 DWORD PTR _green$[ebp], 0
  0031c	7d 0c		 jge	 SHORT $LN39@import_met
  0031e	c7 85 88 f6 ff
	ff 00 00 00 00	 mov	 DWORD PTR tv188[ebp], 0
  00328	eb 30		 jmp	 SHORT $LN40@import_met
$LN39@import_met:
  0032a	81 bd d8 f7 ff
	ff ff 00 00 00	 cmp	 DWORD PTR _green$[ebp], 255 ; 000000ffH
  00334	7e 0c		 jle	 SHORT $LN37@import_met
  00336	c7 85 84 f6 ff
	ff ff 00 00 00	 mov	 DWORD PTR tv187[ebp], 255 ; 000000ffH
  00340	eb 0c		 jmp	 SHORT $LN38@import_met
$LN37@import_met:
  00342	8b 85 d8 f7 ff
	ff		 mov	 eax, DWORD PTR _green$[ebp]
  00348	89 85 84 f6 ff
	ff		 mov	 DWORD PTR tv187[ebp], eax
$LN38@import_met:
  0034e	8b 8d 84 f6 ff
	ff		 mov	 ecx, DWORD PTR tv187[ebp]
  00354	89 8d 88 f6 ff
	ff		 mov	 DWORD PTR tv188[ebp], ecx
$LN40@import_met:
  0035a	8b 95 e0 f7 ff
	ff		 mov	 edx, DWORD PTR _co$[ebp]
  00360	8a 85 88 f6 ff
	ff		 mov	 al, BYTE PTR tv188[ebp]
  00366	88 42 0d	 mov	 BYTE PTR [edx+13], al

; 888  : 						co->blue = (unsigned char)bound (blue, 0, 255);

  00369	83 bd d4 f7 ff
	ff 00		 cmp	 DWORD PTR _blue$[ebp], 0
  00370	7d 0c		 jge	 SHORT $LN43@import_met
  00372	c7 85 88 f6 ff
	ff 00 00 00 00	 mov	 DWORD PTR tv194[ebp], 0
  0037c	eb 30		 jmp	 SHORT $LN44@import_met
$LN43@import_met:
  0037e	81 bd d4 f7 ff
	ff ff 00 00 00	 cmp	 DWORD PTR _blue$[ebp], 255 ; 000000ffH
  00388	7e 0c		 jle	 SHORT $LN41@import_met
  0038a	c7 85 84 f6 ff
	ff ff 00 00 00	 mov	 DWORD PTR tv193[ebp], 255 ; 000000ffH
  00394	eb 0c		 jmp	 SHORT $LN42@import_met
$LN41@import_met:
  00396	8b 85 d4 f7 ff
	ff		 mov	 eax, DWORD PTR _blue$[ebp]
  0039c	89 85 84 f6 ff
	ff		 mov	 DWORD PTR tv193[ebp], eax
$LN42@import_met:
  003a2	8b 8d 84 f6 ff
	ff		 mov	 ecx, DWORD PTR tv193[ebp]
  003a8	89 8d 88 f6 ff
	ff		 mov	 DWORD PTR tv194[ebp], ecx
$LN44@import_met:
  003ae	8b 95 e0 f7 ff
	ff		 mov	 edx, DWORD PTR _co$[ebp]
  003b4	8a 85 88 f6 ff
	ff		 mov	 al, BYTE PTR tv194[ebp]
  003ba	88 42 0e	 mov	 BYTE PTR [edx+14], al

; 889  : 						co->alpha = (unsigned char)bound (alpha, 0, 255);

  003bd	83 bd d0 f7 ff
	ff 00		 cmp	 DWORD PTR _alpha$[ebp], 0
  003c4	7d 0c		 jge	 SHORT $LN47@import_met
  003c6	c7 85 88 f6 ff
	ff 00 00 00 00	 mov	 DWORD PTR tv200[ebp], 0
  003d0	eb 30		 jmp	 SHORT $LN48@import_met
$LN47@import_met:
  003d2	81 bd d0 f7 ff
	ff ff 00 00 00	 cmp	 DWORD PTR _alpha$[ebp], 255 ; 000000ffH
  003dc	7e 0c		 jle	 SHORT $LN45@import_met
  003de	c7 85 84 f6 ff
	ff ff 00 00 00	 mov	 DWORD PTR tv199[ebp], 255 ; 000000ffH
  003e8	eb 0c		 jmp	 SHORT $LN46@import_met
$LN45@import_met:
  003ea	8b 85 d0 f7 ff
	ff		 mov	 eax, DWORD PTR _alpha$[ebp]
  003f0	89 85 84 f6 ff
	ff		 mov	 DWORD PTR tv199[ebp], eax
$LN46@import_met:
  003f6	8b 8d 84 f6 ff
	ff		 mov	 ecx, DWORD PTR tv199[ebp]
  003fc	89 8d 88 f6 ff
	ff		 mov	 DWORD PTR tv200[ebp], ecx
$LN48@import_met:
  00402	8b 95 e0 f7 ff
	ff		 mov	 edx, DWORD PTR _co$[ebp]
  00408	8a 85 88 f6 ff
	ff		 mov	 al, BYTE PTR tv200[ebp]
  0040e	88 42 0f	 mov	 BYTE PTR [edx+15], al

; 890  : 						co->additive = additive != 0;

  00411	83 bd cc f7 ff
	ff 00		 cmp	 DWORD PTR _additive$[ebp], 0
  00418	74 09		 je	 SHORT $LN49@import_met
  0041a	c6 85 8b f6 ff
	ff 01		 mov	 BYTE PTR tv204[ebp], 1
  00421	eb 07		 jmp	 SHORT $LN50@import_met
$LN49@import_met:
  00423	c6 85 8b f6 ff
	ff 00		 mov	 BYTE PTR tv204[ebp], 0
$LN50@import_met:
  0042a	8a 85 8b f6 ff
	ff		 mov	 al, BYTE PTR tv204[ebp]
  00430	24 01		 and	 al, 1
  00432	8b 8d e0 f7 ff
	ff		 mov	 ecx, DWORD PTR _co$[ebp]
  00438	8a 51 20	 mov	 dl, BYTE PTR [ecx+32]
  0043b	80 e2 fe	 and	 dl, 254			; 000000feH
  0043e	0a d0		 or	 dl, al
  00440	8b 85 e0 f7 ff
	ff		 mov	 eax, DWORD PTR _co$[ebp]
  00446	88 50 20	 mov	 BYTE PTR [eax+32], dl

; 891  : 						meta_smoke->number_of_components++;

  00449	8b 85 e4 f7 ff
	ff		 mov	 eax, DWORD PTR _meta_smoke$[ebp]
  0044f	8b 08		 mov	 ecx, DWORD PTR [eax]
  00451	83 c1 01	 add	 ecx, 1
  00454	8b 95 e4 f7 ff
	ff		 mov	 edx, DWORD PTR _meta_smoke$[ebp]
  0045a	89 0a		 mov	 DWORD PTR [edx], ecx

; 892  : 						break;

  0045c	e9 6d 01 00 00	 jmp	 $LN16@import_met
$LN24@import_met:

; 893  : 					}
; 894  : 				case SMOKE_LIST_TRAILS:
; 895  : 					{
; 896  : 						effect = ptr + 1;

  00461	8b 85 f8 f7 ff
	ff		 mov	 eax, DWORD PTR _ptr$[ebp]
  00467	83 c0 01	 add	 eax, 1
  0046a	89 85 f0 f7 ff
	ff		 mov	 DWORD PTR _effect$[ebp], eax

; 897  : 						ptr = strchr(effect, ';');

  00470	6a 3b		 push	 59			; 0000003bH
  00472	8b 85 f0 f7 ff
	ff		 mov	 eax, DWORD PTR _effect$[ebp]
  00478	50		 push	 eax
  00479	e8 00 00 00 00	 call	 ?strchr@@YAPADQADH@Z	; strchr
  0047e	83 c4 08	 add	 esp, 8
  00481	89 85 f8 f7 ff
	ff		 mov	 DWORD PTR _ptr$[ebp], eax

; 898  : 						if (!ptr)

  00487	83 bd f8 f7 ff
	ff 00		 cmp	 DWORD PTR _ptr$[ebp], 0
  0048e	75 05		 jne	 SHORT $LN25@import_met

; 899  : 						{
; 900  : 							continue;

  00490	e9 be fb ff ff	 jmp	 $LN2@import_met
$LN25@import_met:

; 901  : 						}
; 902  : 						*ptr = '\0';

  00495	8b 85 f8 f7 ff
	ff		 mov	 eax, DWORD PTR _ptr$[ebp]
  0049b	c6 00 00	 mov	 BYTE PTR [eax], 0

; 903  : 						count = get_smoke_type_by_name(name);

  0049e	8b 85 f4 f7 ff
	ff		 mov	 eax, DWORD PTR _name$[ebp]
  004a4	50		 push	 eax
  004a5	e8 00 00 00 00	 call	 ?get_smoke_type_by_name@@YGHPBD@Z ; get_smoke_type_by_name
  004aa	89 85 ec f7 ff
	ff		 mov	 DWORD PTR _count$[ebp], eax

; 904  : 						if (count < 0)

  004b0	83 bd ec f7 ff
	ff 00		 cmp	 DWORD PTR _count$[ebp], 0
  004b7	7d 05		 jge	 SHORT $LN26@import_met

; 905  : 						{
; 906  : 							continue;

  004b9	e9 95 fb ff ff	 jmp	 $LN2@import_met
$LN26@import_met:

; 907  : 						}
; 908  : 						co->trail_type = (smoke_list_types)count;

  004be	8b 85 e0 f7 ff
	ff		 mov	 eax, DWORD PTR _co$[ebp]
  004c4	8b 8d ec f7 ff
	ff		 mov	 ecx, DWORD PTR _count$[ebp]
  004ca	89 48 08	 mov	 DWORD PTR [eax+8], ecx

; 909  : 						co->entity_sub_type = -1;

  004cd	8b 85 e0 f7 ff
	ff		 mov	 eax, DWORD PTR _co$[ebp]
  004d3	c7 40 0c ff ff
	ff ff		 mov	 DWORD PTR [eax+12], -1

; 910  : 						for (count = ENTITY_SUB_TYPE_EFFECT_PARTICLE; count < NUM_ENTITY_SUB_TYPE_EFFECTS; count++)

  004da	c7 85 ec f7 ff
	ff 00 00 00 00	 mov	 DWORD PTR _count$[ebp], 0
  004e4	eb 0f		 jmp	 SHORT $LN8@import_met
$LN6@import_met:
  004e6	8b 85 ec f7 ff
	ff		 mov	 eax, DWORD PTR _count$[ebp]
  004ec	83 c0 01	 add	 eax, 1
  004ef	89 85 ec f7 ff
	ff		 mov	 DWORD PTR _count$[ebp], eax
$LN8@import_met:
  004f5	83 bd ec f7 ff
	ff 2e		 cmp	 DWORD PTR _count$[ebp], 46 ; 0000002eH
  004fc	7d 34		 jge	 SHORT $LN7@import_met

; 911  : 						{
; 912  : 							if (!strcmp(effect, entity_sub_type_effect_names[count]))

  004fe	8b 85 ec f7 ff
	ff		 mov	 eax, DWORD PTR _count$[ebp]
  00504	8b 0c 85 00 00
	00 00		 mov	 ecx, DWORD PTR ?entity_sub_type_effect_names@@3PAPBDA[eax*4]
  0050b	51		 push	 ecx
  0050c	8b 95 f0 f7 ff
	ff		 mov	 edx, DWORD PTR _effect$[ebp]
  00512	52		 push	 edx
  00513	e8 00 00 00 00	 call	 _strcmp
  00518	83 c4 08	 add	 esp, 8
  0051b	85 c0		 test	 eax, eax
  0051d	75 11		 jne	 SHORT $LN27@import_met

; 913  : 							{
; 914  : 								co->entity_sub_type = count;

  0051f	8b 85 e0 f7 ff
	ff		 mov	 eax, DWORD PTR _co$[ebp]
  00525	8b 8d ec f7 ff
	ff		 mov	 ecx, DWORD PTR _count$[ebp]
  0052b	89 48 0c	 mov	 DWORD PTR [eax+12], ecx

; 915  : 								break;

  0052e	eb 02		 jmp	 SHORT $LN7@import_met
$LN27@import_met:

; 916  : 							}
; 917  : 						}

  00530	eb b4		 jmp	 SHORT $LN6@import_met
$LN7@import_met:

; 918  : 						if (co->entity_sub_type < 0)

  00532	8b 85 e0 f7 ff
	ff		 mov	 eax, DWORD PTR _co$[ebp]
  00538	83 78 0c 00	 cmp	 DWORD PTR [eax+12], 0
  0053c	7d 05		 jge	 SHORT $LN28@import_met

; 919  : 						{
; 920  : 							continue;

  0053e	e9 10 fb ff ff	 jmp	 $LN2@import_met
$LN28@import_met:

; 921  : 						}
; 922  : 						if (sscanf(ptr + 1,
; 923  : 							"%i;%i;"
; 924  : 							"%f;%f;%f",
; 925  : 							&co->trail_count, &co->infinite,
; 926  : 							&co->generator_lifetime, &co->frequency, &co->smoke_lifetime) != 5)

  00543	8b 85 e0 f7 ff
	ff		 mov	 eax, DWORD PTR _co$[ebp]
  00549	83 c0 1c	 add	 eax, 28			; 0000001cH
  0054c	50		 push	 eax
  0054d	8b 8d e0 f7 ff
	ff		 mov	 ecx, DWORD PTR _co$[ebp]
  00553	83 c1 18	 add	 ecx, 24			; 00000018H
  00556	51		 push	 ecx
  00557	8b 95 e0 f7 ff
	ff		 mov	 edx, DWORD PTR _co$[ebp]
  0055d	83 c2 14	 add	 edx, 20			; 00000014H
  00560	52		 push	 edx
  00561	8b 85 e0 f7 ff
	ff		 mov	 eax, DWORD PTR _co$[ebp]
  00567	83 c0 10	 add	 eax, 16			; 00000010H
  0056a	50		 push	 eax
  0056b	8b 8d e0 f7 ff
	ff		 mov	 ecx, DWORD PTR _co$[ebp]
  00571	83 c1 04	 add	 ecx, 4
  00574	51		 push	 ecx
  00575	68 00 00 00 00	 push	 OFFSET ??_C@_0P@HFNDJNOI@?$CFi?$DL?$CFi?$DL?$CFf?$DL?$CFf?$DL?$CFf@
  0057a	8b 95 f8 f7 ff
	ff		 mov	 edx, DWORD PTR _ptr$[ebp]
  00580	83 c2 01	 add	 edx, 1
  00583	52		 push	 edx
  00584	e8 00 00 00 00	 call	 _sscanf
  00589	83 c4 1c	 add	 esp, 28			; 0000001cH
  0058c	83 f8 05	 cmp	 eax, 5
  0058f	74 05		 je	 SHORT $LN29@import_met

; 927  : 						{
; 928  : 							continue;

  00591	e9 bd fa ff ff	 jmp	 $LN2@import_met
$LN29@import_met:

; 929  : 						}
; 930  : 						meta_smoke->number_of_components++;

  00596	8b 85 e4 f7 ff
	ff		 mov	 eax, DWORD PTR _meta_smoke$[ebp]
  0059c	8b 08		 mov	 ecx, DWORD PTR [eax]
  0059e	83 c1 01	 add	 ecx, 1
  005a1	8b 95 e4 f7 ff
	ff		 mov	 edx, DWORD PTR _meta_smoke$[ebp]
  005a7	89 0a		 mov	 DWORD PTR [edx], ecx

; 931  : 						break;

  005a9	eb 23		 jmp	 SHORT $LN16@import_met
$LN30@import_met:

; 932  : 					}
; 933  : 				default:
; 934  : 					ASSERT(FALSE);

  005ab	b8 01 00 00 00	 mov	 eax, 1
  005b0	85 c0		 test	 eax, eax
  005b2	74 1a		 je	 SHORT $LN16@import_met
  005b4	a1 00 00 00 00	 mov	 eax, DWORD PTR ?__LINE__Var@?0??import_meta_smoke_list_database@@YGXXZ@4JA
  005b9	05 8e 00 00 00	 add	 eax, 142		; 0000008eH
  005be	50		 push	 eax
  005bf	68 00 00 00 00	 push	 OFFSET ??_C@_0FF@KGHFBLGA@c?3?2users?2nhv90?2projects?2eech?2ap@
  005c4	68 00 00 00 00	 push	 OFFSET ??_C@_05MAJJAKPI@FALSE@
  005c9	e8 00 00 00 00	 call	 ?process_assert@@YGXPBD0H@Z ; process_assert
$LN16@import_met:

; 935  : 				};
; 936  : 			}
; 937  : 		}

  005ce	e9 80 fa ff ff	 jmp	 $LN2@import_met
$LN9@import_met:

; 938  : 	}
; 939  : 	safe_fclose (file);

  005d3	8b 45 fc	 mov	 eax, DWORD PTR _file$[ebp]
  005d6	50		 push	 eax
  005d7	e8 00 00 00 00	 call	 ?safe_fclose@@YGHPAU_iobuf@@@Z ; safe_fclose

; 940  : }

  005dc	5f		 pop	 edi
  005dd	5e		 pop	 esi
  005de	5b		 pop	 ebx
  005df	8b e5		 mov	 esp, ebp
  005e1	5d		 pop	 ebp
  005e2	c3		 ret	 0
?import_meta_smoke_list_database@@YGXXZ ENDP		; import_meta_smoke_list_database
_TEXT	ENDS
; Function compile flags: /Odtp /ZI
; File c:\users\nhv90\projects\eech\aphavoc\source\entity\special\effect\smokelst\sl_meta.c
;	COMDAT ?export_meta_smoke_list_database@@YGXXZ
_TEXT	SEGMENT
tv88 = -88						; size = 4
_co$ = -20						; size = 4
_meta_smoke$ = -16					; size = 4
_count2$ = -12						; size = 4
_count1$ = -8						; size = 4
_file$ = -4						; size = 4
?export_meta_smoke_list_database@@YGXXZ PROC		; export_meta_smoke_list_database, COMDAT

; 726  : {

  00000	55		 push	 ebp
  00001	8b ec		 mov	 ebp, esp
  00003	83 ec 58	 sub	 esp, 88			; 00000058H
  00006	53		 push	 ebx
  00007	56		 push	 esi
  00008	57		 push	 edi

; 727  : 	FILE
; 728  : 		*file;
; 729  : 	int
; 730  : 		count1,
; 731  : 		count2;
; 732  : 	const meta_smoke_list_data
; 733  : 		*meta_smoke;
; 734  : 	const meta_smoke_list_component
; 735  : 		*co;
; 736  : 
; 737  : 	file = safe_fopen (META_SMOKE_LIST_DATABASE_FILENAME, "w");

  00009	68 00 00 00 00	 push	 OFFSET ??_C@_01NOFIACDB@w@
  0000e	68 00 00 00 00	 push	 OFFSET ??_C@_0N@EACFBDEN@METASMOK?4CSV@
  00013	e8 00 00 00 00	 call	 ?safe_fopen@@YGPAU_iobuf@@PBD0@Z ; safe_fopen
  00018	89 45 fc	 mov	 DWORD PTR _file$[ebp], eax

; 738  : 	fprintf (file, "META_SMOKE;2\n");

  0001b	68 00 00 00 00	 push	 OFFSET ??_C@_0O@FMKDHNOO@META_SMOKE?$DL2?6@
  00020	8b 45 fc	 mov	 eax, DWORD PTR _file$[ebp]
  00023	50		 push	 eax
  00024	e8 00 00 00 00	 call	 _fprintf
  00029	83 c4 08	 add	 esp, 8

; 739  : 	fprintf (file,

  0002c	68 00 00 00 00	 push	 OFFSET ??_C@_0PM@GAFJBACC@?$CDMeta?5Smoke?5index?$DLMeta?5Smoke?5na@
  00031	8b 45 fc	 mov	 eax, DWORD PTR _file$[ebp]
  00034	50		 push	 eax
  00035	e8 00 00 00 00	 call	 _fprintf
  0003a	83 c4 08	 add	 esp, 8

; 740  : 		"#Meta Smoke index;Meta Smoke name\n"
; 741  : 		"#SPRITES;Animated texture;Sprite count;"
; 742  : 			"Color (red;green;blue;alpha);"
; 743  : 			"Animation frequency;Lifetime;Scale;Rotation rate;"
; 744  : 			"Additive\n"
; 745  : 		"#TRAILS;Trail type;"
; 746  : 			"Effect;"
; 747  : 			"Trail count;Infinite;"
; 748  : 			"Generator lifetime;Frequency;Smoke lifetime\n"
; 749  : 		);
; 750  : 	for (count1 = 1; count1 < NUM_META_SMOKE_LIST_TYPES; count1++)

  0003d	c7 45 f8 01 00
	00 00		 mov	 DWORD PTR _count1$[ebp], 1
  00044	eb 09		 jmp	 SHORT $LN4@export_met
$LN2@export_met:
  00046	8b 45 f8	 mov	 eax, DWORD PTR _count1$[ebp]
  00049	83 c0 01	 add	 eax, 1
  0004c	89 45 f8	 mov	 DWORD PTR _count1$[ebp], eax
$LN4@export_met:
  0004f	83 7d f8 0f	 cmp	 DWORD PTR _count1$[ebp], 15 ; 0000000fH
  00053	0f 8d ad 01 00
	00		 jge	 $LN3@export_met

; 751  : 	{
; 752  : 		meta_smoke = &meta_smoke_list_database[count1];

  00059	69 45 f8 94 00
	00 00		 imul	 eax, DWORD PTR _count1$[ebp], 148
  00060	05 00 00 00 00	 add	 eax, OFFSET ?meta_smoke_list_database@@3PAUMETA_SMOKE_LIST_DATA@@A ; meta_smoke_list_database
  00065	89 45 f0	 mov	 DWORD PTR _meta_smoke$[ebp], eax

; 753  : 		fprintf(file,

  00068	8b 45 f8	 mov	 eax, DWORD PTR _count1$[ebp]
  0006b	8b 0c 85 00 00
	00 00		 mov	 ecx, DWORD PTR ?meta_smoke_list_names@@3PAPBDA[eax*4]
  00072	51		 push	 ecx
  00073	8b 55 f8	 mov	 edx, DWORD PTR _count1$[ebp]
  00076	52		 push	 edx
  00077	68 00 00 00 00	 push	 OFFSET ??_C@_06DNKIIADA@?$CFi?$DL?$CFs?6@
  0007c	8b 45 fc	 mov	 eax, DWORD PTR _file$[ebp]
  0007f	50		 push	 eax
  00080	e8 00 00 00 00	 call	 _fprintf
  00085	83 c4 10	 add	 esp, 16			; 00000010H

; 754  : 			"%i;%s\n",
; 755  : 			count1, meta_smoke_list_names[count1]);
; 756  : 		for (count2 = 0; count2 < meta_smoke->number_of_components; count2++)

  00088	c7 45 f4 00 00
	00 00		 mov	 DWORD PTR _count2$[ebp], 0
  0008f	eb 09		 jmp	 SHORT $LN7@export_met
$LN5@export_met:
  00091	8b 45 f4	 mov	 eax, DWORD PTR _count2$[ebp]
  00094	83 c0 01	 add	 eax, 1
  00097	89 45 f4	 mov	 DWORD PTR _count2$[ebp], eax
$LN7@export_met:
  0009a	8b 45 f0	 mov	 eax, DWORD PTR _meta_smoke$[ebp]
  0009d	8b 4d f4	 mov	 ecx, DWORD PTR _count2$[ebp]
  000a0	3b 08		 cmp	 ecx, DWORD PTR [eax]
  000a2	0f 8d 59 01 00
	00		 jge	 $LN6@export_met

; 757  : 		{
; 758  : 			co = &meta_smoke->component[count2];

  000a8	6b 45 f4 24	 imul	 eax, DWORD PTR _count2$[ebp], 36
  000ac	8b 4d f0	 mov	 ecx, DWORD PTR _meta_smoke$[ebp]
  000af	8d 54 01 04	 lea	 edx, DWORD PTR [ecx+eax+4]
  000b3	89 55 ec	 mov	 DWORD PTR _co$[ebp], edx

; 759  : 			switch (co->type)

  000b6	8b 45 ec	 mov	 eax, DWORD PTR _co$[ebp]
  000b9	8b 08		 mov	 ecx, DWORD PTR [eax]
  000bb	89 4d a8	 mov	 DWORD PTR tv88[ebp], ecx
  000be	83 7d a8 01	 cmp	 DWORD PTR tv88[ebp], 1
  000c2	74 0f		 je	 SHORT $LN10@export_met
  000c4	83 7d a8 02	 cmp	 DWORD PTR tv88[ebp], 2
  000c8	0f 84 9f 00 00
	00		 je	 $LN11@export_met
  000ce	e9 08 01 00 00	 jmp	 $LN12@export_met
$LN10@export_met:

; 760  : 			{
; 761  : 			case SMOKE_LIST_SPRITES:
; 762  : 				fprintf (file,

  000d3	8b 45 ec	 mov	 eax, DWORD PTR _co$[ebp]
  000d6	8a 48 20	 mov	 cl, BYTE PTR [eax+32]
  000d9	80 e1 01	 and	 cl, 1
  000dc	0f b6 d1	 movzx	 edx, cl
  000df	52		 push	 edx
  000e0	8b 45 ec	 mov	 eax, DWORD PTR _co$[ebp]
  000e3	f3 0f 5a 40 1c	 cvtss2sd xmm0, DWORD PTR [eax+28]
  000e8	83 ec 08	 sub	 esp, 8
  000eb	f2 0f 11 04 24	 movsd	 QWORD PTR [esp], xmm0
  000f0	8b 4d ec	 mov	 ecx, DWORD PTR _co$[ebp]
  000f3	f3 0f 5a 41 18	 cvtss2sd xmm0, DWORD PTR [ecx+24]
  000f8	83 ec 08	 sub	 esp, 8
  000fb	f2 0f 11 04 24	 movsd	 QWORD PTR [esp], xmm0
  00100	8b 55 ec	 mov	 edx, DWORD PTR _co$[ebp]
  00103	f3 0f 5a 42 14	 cvtss2sd xmm0, DWORD PTR [edx+20]
  00108	83 ec 08	 sub	 esp, 8
  0010b	f2 0f 11 04 24	 movsd	 QWORD PTR [esp], xmm0
  00110	8b 45 ec	 mov	 eax, DWORD PTR _co$[ebp]
  00113	f3 0f 5a 40 10	 cvtss2sd xmm0, DWORD PTR [eax+16]
  00118	83 ec 08	 sub	 esp, 8
  0011b	f2 0f 11 04 24	 movsd	 QWORD PTR [esp], xmm0
  00120	8b 4d ec	 mov	 ecx, DWORD PTR _co$[ebp]
  00123	0f b6 51 0f	 movzx	 edx, BYTE PTR [ecx+15]
  00127	52		 push	 edx
  00128	8b 45 ec	 mov	 eax, DWORD PTR _co$[ebp]
  0012b	0f b6 48 0e	 movzx	 ecx, BYTE PTR [eax+14]
  0012f	51		 push	 ecx
  00130	8b 55 ec	 mov	 edx, DWORD PTR _co$[ebp]
  00133	0f b6 42 0d	 movzx	 eax, BYTE PTR [edx+13]
  00137	50		 push	 eax
  00138	8b 4d ec	 mov	 ecx, DWORD PTR _co$[ebp]
  0013b	0f b6 51 0c	 movzx	 edx, BYTE PTR [ecx+12]
  0013f	52		 push	 edx
  00140	8b 45 ec	 mov	 eax, DWORD PTR _co$[ebp]
  00143	8b 48 08	 mov	 ecx, DWORD PTR [eax+8]
  00146	51		 push	 ecx
  00147	8b 55 ec	 mov	 edx, DWORD PTR _co$[ebp]
  0014a	8b 42 04	 mov	 eax, DWORD PTR [edx+4]
  0014d	8b 0d 00 00 00
	00		 mov	 ecx, DWORD PTR ?texture_animation_names@@3PAPBDA ; texture_animation_names
  00153	8b 14 81	 mov	 edx, DWORD PTR [ecx+eax*4]
  00156	52		 push	 edx
  00157	68 00 00 00 00	 push	 OFFSET ??_C@_0CK@KJIELJEA@SPRITES?$DL?$CFs?$DL?$CFi?$DL?$CFi?$DL?$CFi?$DL?$CFi?$DL?$CFi?$DL?$CFf?$DL?$CFf@
  0015c	8b 45 fc	 mov	 eax, DWORD PTR _file$[ebp]
  0015f	50		 push	 eax
  00160	e8 00 00 00 00	 call	 _fprintf
  00165	83 c4 44	 add	 esp, 68			; 00000044H

; 763  : 					"SPRITES;%s;%i;"
; 764  : 					"%i;%i;%i;%i;"
; 765  : 					"%f;%f;%f;%f;"
; 766  : 					"%i\n",
; 767  : 					texture_animation_names[co->animated_texture], co->sprite_count,
; 768  : 					co->red, co->green, co->blue, co->alpha,
; 769  : 					co->animation_frequency, co->lifetime, co->scale, co->rotation_rate,
; 770  : 					co->additive);
; 771  : 				break;

  00168	e9 8f 00 00 00	 jmp	 $LN8@export_met
$LN11@export_met:

; 772  : 			case SMOKE_LIST_TRAILS:
; 773  : 				fprintf (file,

  0016d	8b 45 ec	 mov	 eax, DWORD PTR _co$[ebp]
  00170	f3 0f 5a 40 1c	 cvtss2sd xmm0, DWORD PTR [eax+28]
  00175	83 ec 08	 sub	 esp, 8
  00178	f2 0f 11 04 24	 movsd	 QWORD PTR [esp], xmm0
  0017d	8b 4d ec	 mov	 ecx, DWORD PTR _co$[ebp]
  00180	f3 0f 5a 41 18	 cvtss2sd xmm0, DWORD PTR [ecx+24]
  00185	83 ec 08	 sub	 esp, 8
  00188	f2 0f 11 04 24	 movsd	 QWORD PTR [esp], xmm0
  0018d	8b 55 ec	 mov	 edx, DWORD PTR _co$[ebp]
  00190	f3 0f 5a 42 14	 cvtss2sd xmm0, DWORD PTR [edx+20]
  00195	83 ec 08	 sub	 esp, 8
  00198	f2 0f 11 04 24	 movsd	 QWORD PTR [esp], xmm0
  0019d	8b 45 ec	 mov	 eax, DWORD PTR _co$[ebp]
  001a0	8b 48 10	 mov	 ecx, DWORD PTR [eax+16]
  001a3	51		 push	 ecx
  001a4	8b 55 ec	 mov	 edx, DWORD PTR _co$[ebp]
  001a7	8b 42 04	 mov	 eax, DWORD PTR [edx+4]
  001aa	50		 push	 eax
  001ab	8b 4d ec	 mov	 ecx, DWORD PTR _co$[ebp]
  001ae	8b 51 0c	 mov	 edx, DWORD PTR [ecx+12]
  001b1	8b 04 95 00 00
	00 00		 mov	 eax, DWORD PTR ?entity_sub_type_effect_names@@3PAPBDA[edx*4]
  001b8	50		 push	 eax
  001b9	8b 4d ec	 mov	 ecx, DWORD PTR _co$[ebp]
  001bc	8b 51 08	 mov	 edx, DWORD PTR [ecx+8]
  001bf	a1 00 00 00 00	 mov	 eax, DWORD PTR ?smoke_list_types_names@@3PAPADA ; smoke_list_types_names
  001c4	8b 0c 90	 mov	 ecx, DWORD PTR [eax+edx*4]
  001c7	51		 push	 ecx
  001c8	68 00 00 00 00	 push	 OFFSET ??_C@_0BN@CMNFFAGL@TRAILS?$DL?$CFs?$DL?$CFs?$DL?$CFi?$DL?$CFi?$DL?$CFf?$DL?$CFf?$DL?$CFf?6@
  001cd	8b 55 fc	 mov	 edx, DWORD PTR _file$[ebp]
  001d0	52		 push	 edx
  001d1	e8 00 00 00 00	 call	 _fprintf
  001d6	83 c4 30	 add	 esp, 48			; 00000030H

; 774  : 					"TRAILS;%s;"
; 775  : 					"%s;"
; 776  : 					"%i;%i;"
; 777  : 					"%f;%f;%f\n",
; 778  : 					smoke_list_types_names[co->trail_type],
; 779  : 					entity_sub_type_effect_names[co->entity_sub_type],
; 780  : 					co->trail_count, co->infinite,
; 781  : 					co->generator_lifetime, co->frequency, co->smoke_lifetime);
; 782  : 				break;

  001d9	eb 21		 jmp	 SHORT $LN8@export_met
$LN12@export_met:

; 783  : 			default:
; 784  : 				ASSERT(FALSE);

  001db	b8 01 00 00 00	 mov	 eax, 1
  001e0	85 c0		 test	 eax, eax
  001e2	74 18		 je	 SHORT $LN13@export_met
  001e4	a1 00 00 00 00	 mov	 eax, DWORD PTR ?__LINE__Var@?0??export_meta_smoke_list_database@@YGXXZ@4JA
  001e9	83 c0 3a	 add	 eax, 58			; 0000003aH
  001ec	50		 push	 eax
  001ed	68 00 00 00 00	 push	 OFFSET ??_C@_0FF@KGHFBLGA@c?3?2users?2nhv90?2projects?2eech?2ap@
  001f2	68 00 00 00 00	 push	 OFFSET ??_C@_05MAJJAKPI@FALSE@
  001f7	e8 00 00 00 00	 call	 ?process_assert@@YGXPBD0H@Z ; process_assert
$LN13@export_met:
$LN8@export_met:

; 785  : 			}
; 786  : 		}

  001fc	e9 90 fe ff ff	 jmp	 $LN5@export_met
$LN6@export_met:

; 787  : 	}

  00201	e9 40 fe ff ff	 jmp	 $LN2@export_met
$LN3@export_met:

; 788  : 	safe_fclose (file);

  00206	8b 45 fc	 mov	 eax, DWORD PTR _file$[ebp]
  00209	50		 push	 eax
  0020a	e8 00 00 00 00	 call	 ?safe_fclose@@YGHPAU_iobuf@@@Z ; safe_fclose

; 789  : }

  0020f	5f		 pop	 edi
  00210	5e		 pop	 esi
  00211	5b		 pop	 ebx
  00212	8b e5		 mov	 esp, ebp
  00214	5d		 pop	 ebp
  00215	c3		 ret	 0
?export_meta_smoke_list_database@@YGXXZ ENDP		; export_meta_smoke_list_database
_TEXT	ENDS
; Function compile flags: /Odtp /ZI
; File c:\users\nhv90\projects\eech\aphavoc\source\entity\special\effect\smokelst\sl_meta.c
;	COMDAT ?get_meta_smoke_type_by_name@@YGHPBD@Z
_TEXT	SEGMENT
_count$ = -4						; size = 4
_name$ = 8						; size = 4
?get_meta_smoke_type_by_name@@YGHPBD@Z PROC		; get_meta_smoke_type_by_name, COMDAT

; 704  : {

  00000	55		 push	 ebp
  00001	8b ec		 mov	 ebp, esp
  00003	83 ec 44	 sub	 esp, 68			; 00000044H
  00006	53		 push	 ebx
  00007	56		 push	 esi
  00008	57		 push	 edi

; 705  : 	int
; 706  : 		count;
; 707  : 
; 708  : 	for ( count = 0; meta_smoke_list_names[count]; count++ )

  00009	c7 45 fc 00 00
	00 00		 mov	 DWORD PTR _count$[ebp], 0
  00010	eb 09		 jmp	 SHORT $LN4@get_meta_s
$LN2@get_meta_s:
  00012	8b 45 fc	 mov	 eax, DWORD PTR _count$[ebp]
  00015	83 c0 01	 add	 eax, 1
  00018	89 45 fc	 mov	 DWORD PTR _count$[ebp], eax
$LN4@get_meta_s:
  0001b	8b 45 fc	 mov	 eax, DWORD PTR _count$[ebp]
  0001e	83 3c 85 00 00
	00 00 00	 cmp	 DWORD PTR ?meta_smoke_list_names@@3PAPBDA[eax*4], 0
  00026	74 23		 je	 SHORT $LN3@get_meta_s

; 709  : 	{
; 710  : 		if ( !stricmp ( name, meta_smoke_list_names[count] ) )

  00028	8b 45 fc	 mov	 eax, DWORD PTR _count$[ebp]
  0002b	8b 0c 85 00 00
	00 00		 mov	 ecx, DWORD PTR ?meta_smoke_list_names@@3PAPBDA[eax*4]
  00032	51		 push	 ecx
  00033	8b 55 08	 mov	 edx, DWORD PTR _name$[ebp]
  00036	52		 push	 edx
  00037	ff 15 00 00 00
	00		 call	 DWORD PTR __imp___stricmp
  0003d	83 c4 08	 add	 esp, 8
  00040	85 c0		 test	 eax, eax
  00042	75 05		 jne	 SHORT $LN5@get_meta_s

; 711  : 		{
; 712  : 			return count;

  00044	8b 45 fc	 mov	 eax, DWORD PTR _count$[ebp]
  00047	eb 05		 jmp	 SHORT $LN1@get_meta_s
$LN5@get_meta_s:

; 713  : 		}
; 714  : 	}

  00049	eb c7		 jmp	 SHORT $LN2@get_meta_s
$LN3@get_meta_s:

; 715  : 
; 716  : 	return -1;

  0004b	83 c8 ff	 or	 eax, -1
$LN1@get_meta_s:

; 717  : }

  0004e	5f		 pop	 edi
  0004f	5e		 pop	 esi
  00050	5b		 pop	 ebx
  00051	8b e5		 mov	 esp, ebp
  00053	5d		 pop	 ebp
  00054	c2 04 00	 ret	 4
?get_meta_smoke_type_by_name@@YGHPBD@Z ENDP		; get_meta_smoke_type_by_name
_TEXT	ENDS
; Function compile flags: /Odtp /ZI
; File c:\users\nhv90\projects\eech\aphavoc\source\entity\special\effect\smokelst\sl_meta.c
;	COMDAT ?create_meta_smoke_list_sprites@@YGHPAUMETA_SMOKE_LIST_COMPONENT@@PAUENTITY@@PAUVEC3D@@PAH@Z
_TEXT	SEGMENT
tv91 = -104						; size = 4
tv83 = -100						; size = 4
_new_entity$ = -32					; size = 4
_loop$ = -28						; size = 4
_count$ = -24						; size = 4
_texture$ = -20						; size = 4
_scale$ = -16						; size = 4
_lifetime$ = -12					; size = 4
_animation_frequency$ = -8				; size = 4
_pos$ = -4						; size = 4
_smoke_list_component$ = 8				; size = 4
_parent$ = 12						; size = 4
_relative_position$ = 16				; size = 4
_entity_index_list$ = 20				; size = 4
?create_meta_smoke_list_sprites@@YGHPAUMETA_SMOKE_LIST_COMPONENT@@PAUENTITY@@PAUVEC3D@@PAH@Z PROC ; create_meta_smoke_list_sprites, COMDAT

; 445  : {

  00000	55		 push	 ebp
  00001	8b ec		 mov	 ebp, esp
  00003	83 ec 68	 sub	 esp, 104		; 00000068H
  00006	53		 push	 ebx
  00007	56		 push	 esi
  00008	57		 push	 edi

; 446  : 	vec3d
; 447  : 		*pos;
; 448  : 
; 449  : 	float
; 450  : 		animation_frequency,
; 451  : 		lifetime,
; 452  : 		scale;
; 453  : 
; 454  : 	texture_animation_indices
; 455  : 		texture;
; 456  : 
; 457  : 	int
; 458  : 		count,
; 459  : 		loop;
; 460  : 
; 461  : 	entity
; 462  : 		*new_entity;
; 463  : 
; 464  : 	ASSERT (parent);

  00009	83 7d 0c 00	 cmp	 DWORD PTR _parent$[ebp], 0
  0000d	75 18		 jne	 SHORT $LN5@create_met
  0000f	a1 00 00 00 00	 mov	 eax, DWORD PTR ?__LINE__Var@?0??create_meta_smoke_list_sprites@@YGHPAUMETA_SMOKE_LIST_COMPONENT@@PAUENTITY@@PAUVEC3D@@PAH@Z@4JA
  00014	83 c0 13	 add	 eax, 19			; 00000013H
  00017	50		 push	 eax
  00018	68 00 00 00 00	 push	 OFFSET ??_C@_0FF@KGHFBLGA@c?3?2users?2nhv90?2projects?2eech?2ap@
  0001d	68 00 00 00 00	 push	 OFFSET ??_C@_06MLKDMCBD@parent@
  00022	e8 00 00 00 00	 call	 ?process_assert@@YGXPBD0H@Z ; process_assert
$LN5@create_met:

; 465  : 
; 466  : 	//
; 467  : 	// determine constants
; 468  : 	//
; 469  : 
; 470  : 	texture = smoke_list_component->animated_texture;

  00027	8b 45 08	 mov	 eax, DWORD PTR _smoke_list_component$[ebp]
  0002a	8b 48 04	 mov	 ecx, DWORD PTR [eax+4]
  0002d	89 4d ec	 mov	 DWORD PTR _texture$[ebp], ecx

; 471  : 
; 472  : 	count = smoke_list_component->sprite_count;

  00030	8b 45 08	 mov	 eax, DWORD PTR _smoke_list_component$[ebp]
  00033	8b 48 08	 mov	 ecx, DWORD PTR [eax+8]
  00036	89 4d e8	 mov	 DWORD PTR _count$[ebp], ecx

; 473  : 
; 474  : 	if ( count < 1 )

  00039	83 7d e8 01	 cmp	 DWORD PTR _count$[ebp], 1
  0003d	7d 07		 jge	 SHORT $LN6@create_met

; 475  : 	{
; 476  : 		return 0;

  0003f	33 c0		 xor	 eax, eax
  00041	e9 2e 02 00 00	 jmp	 $LN1@create_met
$LN6@create_met:

; 477  : 	}
; 478  : 
; 479  : 	scale = smoke_list_component->scale;

  00046	8b 45 08	 mov	 eax, DWORD PTR _smoke_list_component$[ebp]
  00049	f3 0f 10 40 18	 movss	 xmm0, DWORD PTR [eax+24]
  0004e	f3 0f 11 45 f0	 movss	 DWORD PTR _scale$[ebp], xmm0

; 480  : 
; 481  : 	lifetime = smoke_list_component->lifetime;

  00053	8b 45 08	 mov	 eax, DWORD PTR _smoke_list_component$[ebp]
  00056	f3 0f 10 40 14	 movss	 xmm0, DWORD PTR [eax+20]
  0005b	f3 0f 11 45 f4	 movss	 DWORD PTR _lifetime$[ebp], xmm0

; 482  : 
; 483  : 	animation_frequency = smoke_list_component->animation_frequency;

  00060	8b 45 08	 mov	 eax, DWORD PTR _smoke_list_component$[ebp]
  00063	f3 0f 10 40 10	 movss	 xmm0, DWORD PTR [eax+16]
  00068	f3 0f 11 45 f8	 movss	 DWORD PTR _animation_frequency$[ebp], xmm0

; 484  : 
; 485  : 	for ( loop = 0 ; loop < count ; loop ++ )

  0006d	c7 45 e4 00 00
	00 00		 mov	 DWORD PTR _loop$[ebp], 0
  00074	eb 09		 jmp	 SHORT $LN4@create_met
$LN2@create_met:
  00076	8b 45 e4	 mov	 eax, DWORD PTR _loop$[ebp]
  00079	83 c0 01	 add	 eax, 1
  0007c	89 45 e4	 mov	 DWORD PTR _loop$[ebp], eax
$LN4@create_met:
  0007f	8b 45 e4	 mov	 eax, DWORD PTR _loop$[ebp]
  00082	3b 45 e8	 cmp	 eax, DWORD PTR _count$[ebp]
  00085	0f 8d e6 01 00
	00		 jge	 $LN3@create_met

; 486  : 	{
; 487  : 		//
; 488  : 		// create each individual element
; 489  : 		//
; 490  : 
; 491  : 		pos = get_local_entity_vec3d_ptr( parent, VEC3D_TYPE_POSITION );

  0008b	83 7d 0c 00	 cmp	 DWORD PTR _parent$[ebp], 0
  0008f	74 0a		 je	 SHORT $LN8@create_met
  00091	8b 45 0c	 mov	 eax, DWORD PTR _parent$[ebp]
  00094	8b 08		 mov	 ecx, DWORD PTR [eax]
  00096	89 4d 9c	 mov	 DWORD PTR tv83[ebp], ecx
  00099	eb 21		 jmp	 SHORT $LN9@create_met
$LN8@create_met:
  0009b	8b 15 00 00 00
	00		 mov	 edx, DWORD PTR ?__LINE__Var@?0??create_meta_smoke_list_sprites@@YGHPAUMETA_SMOKE_LIST_COMPONENT@@PAUENTITY@@PAUVEC3D@@PAH@Z@4JA
  000a1	83 c2 2e	 add	 edx, 46			; 0000002eH
  000a4	52		 push	 edx
  000a5	68 00 00 00 00	 push	 OFFSET ??_C@_0FF@KGHFBLGA@c?3?2users?2nhv90?2projects?2eech?2ap@
  000aa	a1 00 00 00 00	 mov	 eax, DWORD PTR ?null_entity_pointer_message@@3PBDB ; null_entity_pointer_message
  000af	50		 push	 eax
  000b0	e8 00 00 00 00	 call	 ?process_assert@@YGXPBD0H@Z ; process_assert
  000b5	c7 45 9c 00 00
	00 00		 mov	 DWORD PTR tv83[ebp], 0
$LN9@create_met:
  000bc	b9 01 00 00 00	 mov	 ecx, 1
  000c1	85 c9		 test	 ecx, ecx
  000c3	74 09		 je	 SHORT $LN10@create_met
  000c5	c7 45 98 08 00
	00 00		 mov	 DWORD PTR tv91[ebp], 8
  000cc	eb 21		 jmp	 SHORT $LN11@create_met
$LN10@create_met:
  000ce	8b 15 00 00 00
	00		 mov	 edx, DWORD PTR ?__LINE__Var@?0??create_meta_smoke_list_sprites@@YGHPAUMETA_SMOKE_LIST_COMPONENT@@PAUENTITY@@PAUVEC3D@@PAH@Z@4JA
  000d4	83 c2 2e	 add	 edx, 46			; 0000002eH
  000d7	52		 push	 edx
  000d8	68 00 00 00 00	 push	 OFFSET ??_C@_0FF@KGHFBLGA@c?3?2users?2nhv90?2projects?2eech?2ap@
  000dd	a1 00 00 00 00	 mov	 eax, DWORD PTR ?overload_invalid_vec3d_type_message@@3PBDB ; overload_invalid_vec3d_type_message
  000e2	50		 push	 eax
  000e3	e8 00 00 00 00	 call	 ?process_assert@@YGXPBD0H@Z ; process_assert
  000e8	c7 45 98 00 00
	00 00		 mov	 DWORD PTR tv91[ebp], 0
$LN11@create_met:
  000ef	6a 08		 push	 8
  000f1	8b 4d 0c	 mov	 ecx, DWORD PTR _parent$[ebp]
  000f4	51		 push	 ecx
  000f5	6b 55 9c 60	 imul	 edx, DWORD PTR tv83[ebp], 96
  000f9	8b 45 98	 mov	 eax, DWORD PTR tv91[ebp]
  000fc	8b 8c 82 00 00
	00 00		 mov	 ecx, DWORD PTR ?fn_get_local_entity_vec3d_ptr@@3PAY0BI@P6GPAUVEC3D@@PAUENTITY@@W4VEC3D_TYPES@@@ZA[edx+eax*4]
  00103	ff d1		 call	 ecx
  00105	89 45 fc	 mov	 DWORD PTR _pos$[ebp], eax

; 492  : 
; 493  : 		new_entity = create_local_entity

  00108	6a 00		 push	 0
  0010a	8b 45 10	 mov	 eax, DWORD PTR _relative_position$[ebp]
  0010d	f3 0f 10 40 08	 movss	 xmm0, DWORD PTR [eax+8]
  00112	f3 0f 5a c0	 cvtss2sd xmm0, xmm0
  00116	83 ec 08	 sub	 esp, 8
  00119	f2 0f 11 04 24	 movsd	 QWORD PTR [esp], xmm0
  0011e	8b 4d 10	 mov	 ecx, DWORD PTR _relative_position$[ebp]
  00121	f3 0f 10 41 04	 movss	 xmm0, DWORD PTR [ecx+4]
  00126	f3 0f 5a c0	 cvtss2sd xmm0, xmm0
  0012a	83 ec 08	 sub	 esp, 8
  0012d	f2 0f 11 04 24	 movsd	 QWORD PTR [esp], xmm0
  00132	8b 55 10	 mov	 edx, DWORD PTR _relative_position$[ebp]
  00135	f3 0f 10 02	 movss	 xmm0, DWORD PTR [edx]
  00139	f3 0f 5a c0	 cvtss2sd xmm0, xmm0
  0013d	83 ec 08	 sub	 esp, 8
  00140	f2 0f 11 04 24	 movsd	 QWORD PTR [esp], xmm0
  00145	6a 09		 push	 9
  00147	6a 09		 push	 9
  00149	8b 45 fc	 mov	 eax, DWORD PTR _pos$[ebp]
  0014c	f3 0f 10 40 08	 movss	 xmm0, DWORD PTR [eax+8]
  00151	f3 0f 5a c0	 cvtss2sd xmm0, xmm0
  00155	83 ec 08	 sub	 esp, 8
  00158	f2 0f 11 04 24	 movsd	 QWORD PTR [esp], xmm0
  0015d	8b 4d fc	 mov	 ecx, DWORD PTR _pos$[ebp]
  00160	f3 0f 10 41 04	 movss	 xmm0, DWORD PTR [ecx+4]
  00165	f3 0f 5a c0	 cvtss2sd xmm0, xmm0
  00169	83 ec 08	 sub	 esp, 8
  0016c	f2 0f 11 04 24	 movsd	 QWORD PTR [esp], xmm0
  00171	8b 55 fc	 mov	 edx, DWORD PTR _pos$[ebp]
  00174	f3 0f 10 02	 movss	 xmm0, DWORD PTR [edx]
  00178	f3 0f 5a c0	 cvtss2sd xmm0, xmm0
  0017c	83 ec 08	 sub	 esp, 8
  0017f	f2 0f 11 04 24	 movsd	 QWORD PTR [esp], xmm0
  00184	6a 08		 push	 8
  00186	6a 09		 push	 9
  00188	f3 0f 5a 45 f8	 cvtss2sd xmm0, DWORD PTR _animation_frequency$[ebp]
  0018d	83 ec 08	 sub	 esp, 8
  00190	f2 0f 11 04 24	 movsd	 QWORD PTR [esp], xmm0
  00195	6a 0b		 push	 11			; 0000000bH
  00197	6a 04		 push	 4
  00199	f3 0f 5a 45 f4	 cvtss2sd xmm0, DWORD PTR _lifetime$[ebp]
  0019e	83 ec 08	 sub	 esp, 8
  001a1	f2 0f 11 04 24	 movsd	 QWORD PTR [esp], xmm0
  001a6	6a 7b		 push	 123			; 0000007bH
  001a8	6a 04		 push	 4
  001aa	f3 0f 5a 45 f0	 cvtss2sd xmm0, DWORD PTR _scale$[ebp]
  001af	83 ec 08	 sub	 esp, 8
  001b2	f2 0f 11 04 24	 movsd	 QWORD PTR [esp], xmm0
  001b7	6a 24		 push	 36			; 00000024H
  001b9	6a 04		 push	 4
  001bb	f3 0f 5a 45 f0	 cvtss2sd xmm0, DWORD PTR _scale$[ebp]
  001c0	83 ec 08	 sub	 esp, 8
  001c3	f2 0f 11 04 24	 movsd	 QWORD PTR [esp], xmm0
  001c8	6a 7c		 push	 124			; 0000007cH
  001ca	6a 04		 push	 4
  001cc	8b 45 08	 mov	 eax, DWORD PTR _smoke_list_component$[ebp]
  001cf	f3 0f 10 40 1c	 movss	 xmm0, DWORD PTR [eax+28]
  001d4	f3 0f 5a c0	 cvtss2sd xmm0, xmm0
  001d8	83 ec 08	 sub	 esp, 8
  001db	f2 0f 11 04 24	 movsd	 QWORD PTR [esp], xmm0
  001e0	6a 4d		 push	 77			; 0000004dH
  001e2	6a 04		 push	 4
  001e4	8b 4d 08	 mov	 ecx, DWORD PTR _smoke_list_component$[ebp]
  001e7	8a 51 20	 mov	 dl, BYTE PTR [ecx+32]
  001ea	80 e2 01	 and	 dl, 1
  001ed	0f b6 c2	 movzx	 eax, dl
  001f0	50		 push	 eax
  001f1	6a 00		 push	 0
  001f3	6a 05		 push	 5
  001f5	8b 4d 08	 mov	 ecx, DWORD PTR _smoke_list_component$[ebp]
  001f8	0f b6 51 0f	 movzx	 edx, BYTE PTR [ecx+15]
  001fc	52		 push	 edx
  001fd	6a 1d		 push	 29			; 0000001dH
  001ff	6a 05		 push	 5
  00201	8b 45 08	 mov	 eax, DWORD PTR _smoke_list_component$[ebp]
  00204	0f b6 48 0e	 movzx	 ecx, BYTE PTR [eax+14]
  00208	51		 push	 ecx
  00209	6a 1e		 push	 30			; 0000001eH
  0020b	6a 05		 push	 5
  0020d	8b 55 08	 mov	 edx, DWORD PTR _smoke_list_component$[ebp]
  00210	0f b6 42 0d	 movzx	 eax, BYTE PTR [edx+13]
  00214	50		 push	 eax
  00215	6a 1f		 push	 31			; 0000001fH
  00217	6a 05		 push	 5
  00219	8b 4d 08	 mov	 ecx, DWORD PTR _smoke_list_component$[ebp]
  0021c	0f b6 51 0c	 movzx	 edx, BYTE PTR [ecx+12]
  00220	52		 push	 edx
  00221	6a 20		 push	 32			; 00000020H
  00223	6a 05		 push	 5
  00225	8b 45 ec	 mov	 eax, DWORD PTR _texture$[ebp]
  00228	50		 push	 eax
  00229	6a 08		 push	 8
  0022b	6a 05		 push	 5
  0022d	8b 4d 0c	 mov	 ecx, DWORD PTR _parent$[ebp]
  00230	51		 push	 ecx
  00231	6a 29		 push	 41			; 00000029H
  00233	6a 03		 push	 3
  00235	8b 55 0c	 mov	 edx, DWORD PTR _parent$[ebp]
  00238	52		 push	 edx
  00239	6a 24		 push	 36			; 00000024H
  0023b	6a 06		 push	 6
  0023d	8b 45 e4	 mov	 eax, DWORD PTR _loop$[ebp]
  00240	8b 4d 14	 mov	 ecx, DWORD PTR _entity_index_list$[ebp]
  00243	8b 14 81	 mov	 edx, DWORD PTR [ecx+eax*4]
  00246	52		 push	 edx
  00247	6a 21		 push	 33			; 00000021H
  00249	e8 00 00 00 00	 call	 ?create_local_entity@@YAPAUENTITY@@W4ENTITY_TYPES@@HZZ ; create_local_entity
  0024e	81 c4 fc 00 00
	00		 add	 esp, 252		; 000000fcH
  00254	89 45 e0	 mov	 DWORD PTR _new_entity$[ebp], eax

; 494  : 		(
; 495  : 			ENTITY_TYPE_SPRITE,
; 496  : 			entity_index_list[ loop ],
; 497  : 			ENTITY_ATTR_PARENT (LIST_TYPE_SPECIAL_EFFECT, parent),
; 498  : 			ENTITY_ATTR_CHILD_PRED (LIST_TYPE_UPDATE, parent),
; 499  : 			ENTITY_ATTR_INT_VALUE (INT_TYPE_ANIMATED_TEXTURE, texture),
; 500  : 			ENTITY_ATTR_INT_VALUE (INT_TYPE_COLOUR_RED, smoke_list_component->red),
; 501  : 			ENTITY_ATTR_INT_VALUE (INT_TYPE_COLOUR_GREEN, smoke_list_component->green),
; 502  : 			ENTITY_ATTR_INT_VALUE (INT_TYPE_COLOUR_BLUE, smoke_list_component->blue),
; 503  : 			ENTITY_ATTR_INT_VALUE (INT_TYPE_COLOUR_ALPHA, smoke_list_component->alpha),
; 504  : 			ENTITY_ATTR_INT_VALUE (INT_TYPE_ADDITIVE, smoke_list_component->additive),
; 505  : 			ENTITY_ATTR_FLOAT_VALUE (FLOAT_TYPE_MAX_TURN_RATE, smoke_list_component->rotation_rate),
; 506  : 			ENTITY_ATTR_FLOAT_VALUE (FLOAT_TYPE_START_SCALE, scale),
; 507  : 			ENTITY_ATTR_FLOAT_VALUE (FLOAT_TYPE_END_SCALE, scale),
; 508  : 			ENTITY_ATTR_FLOAT_VALUE (FLOAT_TYPE_SPRITE_LIFETIME, lifetime),
; 509  : 			ENTITY_ATTR_FLOAT_VALUE (FLOAT_TYPE_ANIMATION_FREQUENCY, animation_frequency),
; 510  : 			ENTITY_ATTR_VEC3D (VEC3D_TYPE_POSITION, pos->x, pos->y, pos->z),
; 511  : 			ENTITY_ATTR_VEC3D (VEC3D_TYPE_RELATIVE_POSITION, relative_position->x, relative_position->y, relative_position->z),
; 512  : 			ENTITY_ATTR_END
; 513  : 		);
; 514  : 
; 515  : 		entity_index_list[ loop ] = get_local_entity_index( new_entity );

  00257	8b 45 e0	 mov	 eax, DWORD PTR _new_entity$[ebp]
  0025a	2b 05 00 00 00
	00		 sub	 eax, DWORD PTR ?entities@@3PAUENTITY@@A ; entities
  00260	c1 f8 04	 sar	 eax, 4
  00263	8b 4d e4	 mov	 ecx, DWORD PTR _loop$[ebp]
  00266	8b 55 14	 mov	 edx, DWORD PTR _entity_index_list$[ebp]
  00269	89 04 8a	 mov	 DWORD PTR [edx+ecx*4], eax

; 516  : 
; 517  : 	}

  0026c	e9 05 fe ff ff	 jmp	 $LN2@create_met
$LN3@create_met:

; 518  : 
; 519  : 	return count;

  00271	8b 45 e8	 mov	 eax, DWORD PTR _count$[ebp]
$LN1@create_met:

; 520  : }

  00274	5f		 pop	 edi
  00275	5e		 pop	 esi
  00276	5b		 pop	 ebx
  00277	8b e5		 mov	 esp, ebp
  00279	5d		 pop	 ebp
  0027a	c2 10 00	 ret	 16			; 00000010H
?create_meta_smoke_list_sprites@@YGHPAUMETA_SMOKE_LIST_COMPONENT@@PAUENTITY@@PAUVEC3D@@PAH@Z ENDP ; create_meta_smoke_list_sprites
_TEXT	ENDS
; Function compile flags: /Odtp /ZI
; File c:\users\nhv90\projects\eech\aphavoc\source\entity\special\effect\smokelst\sl_meta.c
;	COMDAT ?deinitialise_meta_smoke_list_database@@YGXXZ
_TEXT	SEGMENT
?deinitialise_meta_smoke_list_database@@YGXXZ PROC	; deinitialise_meta_smoke_list_database, COMDAT

; 1475 : {

  00000	55		 push	 ebp
  00001	8b ec		 mov	 ebp, esp
  00003	83 ec 40	 sub	 esp, 64			; 00000040H
  00006	53		 push	 ebx
  00007	56		 push	 esi
  00008	57		 push	 edi

; 1476 : }

  00009	5f		 pop	 edi
  0000a	5e		 pop	 esi
  0000b	5b		 pop	 ebx
  0000c	8b e5		 mov	 esp, ebp
  0000e	5d		 pop	 ebp
  0000f	c3		 ret	 0
?deinitialise_meta_smoke_list_database@@YGXXZ ENDP	; deinitialise_meta_smoke_list_database
_TEXT	ENDS
; Function compile flags: /Odtp /ZI
; File c:\users\nhv90\projects\eech\aphavoc\source\entity\special\effect\smokelst\sl_meta.c
;	COMDAT ?initialise_meta_smoke_list_database@@YGXXZ
_TEXT	SEGMENT
_smoke_list_info$ = -4					; size = 4
?initialise_meta_smoke_list_database@@YGXXZ PROC	; initialise_meta_smoke_list_database, COMDAT

; 948  : {

  00000	55		 push	 ebp
  00001	8b ec		 mov	 ebp, esp
  00003	83 ec 44	 sub	 esp, 68			; 00000044H
  00006	53		 push	 ebx
  00007	56		 push	 esi
  00008	57		 push	 edi

; 949  : 
; 950  : 	meta_smoke_list_component
; 951  : 		*smoke_list_info;
; 952  : 
; 953  : 	//////////////////////////////////////////////////////////////////////////////////////////////////////////////////////////////
; 954  : 	//
; 955  : 	// GENERIC ROCKET TRAIL
; 956  : 	//
; 957  : 	//////////////////////////////////////////////////////////////////////////////////////////////////////////////////////////////
; 958  : 
; 959  : 	meta_smoke_list_database[ META_SMOKE_LIST_TYPE_GENERIC_ROCKET_TRAIL ].number_of_components = 3;

  00009	b8 94 00 00 00	 mov	 eax, 148		; 00000094H
  0000e	c1 e0 00	 shl	 eax, 0
  00011	c7 80 00 00 00
	00 03 00 00 00	 mov	 DWORD PTR ?meta_smoke_list_database@@3PAUMETA_SMOKE_LIST_DATA@@A[eax], 3

; 960  : 
; 961  : 	//
; 962  : 	// component 0
; 963  : 	//
; 964  : 
; 965  : 	smoke_list_info = &(meta_smoke_list_database[ META_SMOKE_LIST_TYPE_GENERIC_ROCKET_TRAIL ].component[ 0 ]);

  0001b	b8 94 00 00 00	 mov	 eax, 148		; 00000094H
  00020	c1 e0 00	 shl	 eax, 0
  00023	b9 24 00 00 00	 mov	 ecx, 36			; 00000024H
  00028	6b d1 00	 imul	 edx, ecx, 0
  0002b	8d 84 10 04 00
	00 00		 lea	 eax, DWORD PTR ?meta_smoke_list_database@@3PAUMETA_SMOKE_LIST_DATA@@A[eax+edx+4]
  00032	89 45 fc	 mov	 DWORD PTR _smoke_list_info$[ebp], eax

; 966  : 
; 967  : 	smoke_list_info->type 						=	SMOKE_LIST_TRAILS;

  00035	8b 45 fc	 mov	 eax, DWORD PTR _smoke_list_info$[ebp]
  00038	c7 00 02 00 00
	00		 mov	 DWORD PTR [eax], 2

; 968  : 
; 969  : 	smoke_list_info->trail_type	 			=	SMOKE_LIST_TYPE_GREY_TRAIL;

  0003e	8b 45 fc	 mov	 eax, DWORD PTR _smoke_list_info$[ebp]
  00041	c7 40 08 00 00
	00 00		 mov	 DWORD PTR [eax+8], 0

; 970  : 
; 971  : 	smoke_list_info->entity_sub_type			=	ENTITY_SUB_TYPE_EFFECT_SMOKE_LIST_MISSILE_TRAIL;

  00048	8b 45 fc	 mov	 eax, DWORD PTR _smoke_list_info$[ebp]
  0004b	c7 40 0c 07 00
	00 00		 mov	 DWORD PTR [eax+12], 7

; 972  : 
; 973  : 	smoke_list_info->trail_count	 			=	1;

  00052	8b 45 fc	 mov	 eax, DWORD PTR _smoke_list_info$[ebp]
  00055	c7 40 04 01 00
	00 00		 mov	 DWORD PTR [eax+4], 1

; 974  : 
; 975  : 	smoke_list_info->infinite 					=	FALSE;

  0005c	8b 45 fc	 mov	 eax, DWORD PTR _smoke_list_info$[ebp]
  0005f	c7 40 10 00 00
	00 00		 mov	 DWORD PTR [eax+16], 0

; 976  : 
; 977  : 	smoke_list_info->generator_lifetime 	=	10.0;

  00066	8b 45 fc	 mov	 eax, DWORD PTR _smoke_list_info$[ebp]
  00069	f3 0f 10 05 00
	00 00 00	 movss	 xmm0, DWORD PTR __real@41200000
  00071	f3 0f 11 40 14	 movss	 DWORD PTR [eax+20], xmm0

; 978  : 	smoke_list_info->frequency 				=	0.05;

  00076	8b 45 fc	 mov	 eax, DWORD PTR _smoke_list_info$[ebp]
  00079	f3 0f 10 05 00
	00 00 00	 movss	 xmm0, DWORD PTR __real@3d4ccccd
  00081	f3 0f 11 40 18	 movss	 DWORD PTR [eax+24], xmm0

; 979  : 	smoke_list_info->smoke_lifetime 			=	4.0;

  00086	8b 45 fc	 mov	 eax, DWORD PTR _smoke_list_info$[ebp]
  00089	f3 0f 10 05 00
	00 00 00	 movss	 xmm0, DWORD PTR __real@40800000
  00091	f3 0f 11 40 1c	 movss	 DWORD PTR [eax+28], xmm0

; 980  : 
; 981  : 	//
; 982  : 	// component 1
; 983  : 	//
; 984  : 
; 985  : 	smoke_list_info = &(meta_smoke_list_database[ META_SMOKE_LIST_TYPE_GENERIC_ROCKET_TRAIL ].component[ 1 ]);

  00096	b8 94 00 00 00	 mov	 eax, 148		; 00000094H
  0009b	c1 e0 00	 shl	 eax, 0
  0009e	b9 24 00 00 00	 mov	 ecx, 36			; 00000024H
  000a3	c1 e1 00	 shl	 ecx, 0
  000a6	8d 94 08 04 00
	00 00		 lea	 edx, DWORD PTR ?meta_smoke_list_database@@3PAUMETA_SMOKE_LIST_DATA@@A[eax+ecx+4]
  000ad	89 55 fc	 mov	 DWORD PTR _smoke_list_info$[ebp], edx

; 986  : 
; 987  : 	smoke_list_info->type 						=	SMOKE_LIST_TRAILS;

  000b0	8b 45 fc	 mov	 eax, DWORD PTR _smoke_list_info$[ebp]
  000b3	c7 00 02 00 00
	00		 mov	 DWORD PTR [eax], 2

; 988  : 
; 989  : 	smoke_list_info->trail_type	 			=	SMOKE_LIST_TYPE_ADDITIVE_TRAIL;

  000b9	8b 45 fc	 mov	 eax, DWORD PTR _smoke_list_info$[ebp]
  000bc	c7 40 08 02 00
	00 00		 mov	 DWORD PTR [eax+8], 2

; 990  : 
; 991  : 	smoke_list_info->entity_sub_type			=	ENTITY_SUB_TYPE_EFFECT_SMOKE_LIST_MISSILE_TRAIL;

  000c3	8b 45 fc	 mov	 eax, DWORD PTR _smoke_list_info$[ebp]
  000c6	c7 40 0c 07 00
	00 00		 mov	 DWORD PTR [eax+12], 7

; 992  : 
; 993  : 	smoke_list_info->trail_count	 			=	1;

  000cd	8b 45 fc	 mov	 eax, DWORD PTR _smoke_list_info$[ebp]
  000d0	c7 40 04 01 00
	00 00		 mov	 DWORD PTR [eax+4], 1

; 994  : 
; 995  : 	smoke_list_info->infinite 					=	FALSE;

  000d7	8b 45 fc	 mov	 eax, DWORD PTR _smoke_list_info$[ebp]
  000da	c7 40 10 00 00
	00 00		 mov	 DWORD PTR [eax+16], 0

; 996  : 
; 997  : 	smoke_list_info->generator_lifetime 	=	10.0;

  000e1	8b 45 fc	 mov	 eax, DWORD PTR _smoke_list_info$[ebp]
  000e4	f3 0f 10 05 00
	00 00 00	 movss	 xmm0, DWORD PTR __real@41200000
  000ec	f3 0f 11 40 14	 movss	 DWORD PTR [eax+20], xmm0

; 998  : 	smoke_list_info->frequency 				=	0.05;

  000f1	8b 45 fc	 mov	 eax, DWORD PTR _smoke_list_info$[ebp]
  000f4	f3 0f 10 05 00
	00 00 00	 movss	 xmm0, DWORD PTR __real@3d4ccccd
  000fc	f3 0f 11 40 18	 movss	 DWORD PTR [eax+24], xmm0

; 999  : 	smoke_list_info->smoke_lifetime 			=	0.6;

  00101	8b 45 fc	 mov	 eax, DWORD PTR _smoke_list_info$[ebp]
  00104	f3 0f 10 05 00
	00 00 00	 movss	 xmm0, DWORD PTR __real@3f19999a
  0010c	f3 0f 11 40 1c	 movss	 DWORD PTR [eax+28], xmm0

; 1000 : 
; 1001 : 	//
; 1002 : 	// component 2
; 1003 : 	//
; 1004 : 
; 1005 : 	smoke_list_info = &(meta_smoke_list_database[ META_SMOKE_LIST_TYPE_GENERIC_ROCKET_TRAIL ].component[ 2 ]);

  00111	b8 94 00 00 00	 mov	 eax, 148		; 00000094H
  00116	c1 e0 00	 shl	 eax, 0
  00119	b9 24 00 00 00	 mov	 ecx, 36			; 00000024H
  0011e	d1 e1		 shl	 ecx, 1
  00120	8d 94 08 04 00
	00 00		 lea	 edx, DWORD PTR ?meta_smoke_list_database@@3PAUMETA_SMOKE_LIST_DATA@@A[eax+ecx+4]
  00127	89 55 fc	 mov	 DWORD PTR _smoke_list_info$[ebp], edx

; 1006 : 
; 1007 : 	smoke_list_info->type 						=	SMOKE_LIST_SPRITES;

  0012a	8b 45 fc	 mov	 eax, DWORD PTR _smoke_list_info$[ebp]
  0012d	c7 00 01 00 00
	00		 mov	 DWORD PTR [eax], 1

; 1008 : 
; 1009 : 	smoke_list_info->animated_texture		=	TEXTURE_ANIMATION_INDEX_MISSILE_FLARE;

  00133	8b 45 fc	 mov	 eax, DWORD PTR _smoke_list_info$[ebp]
  00136	c7 40 04 61 00
	00 00		 mov	 DWORD PTR [eax+4], 97	; 00000061H

; 1010 : 
; 1011 : 	smoke_list_info->sprite_count	 			=	1;

  0013d	8b 45 fc	 mov	 eax, DWORD PTR _smoke_list_info$[ebp]
  00140	c7 40 08 01 00
	00 00		 mov	 DWORD PTR [eax+8], 1

; 1012 : 
; 1013 : 	smoke_list_info->red 						=	255;

  00147	8b 45 fc	 mov	 eax, DWORD PTR _smoke_list_info$[ebp]
  0014a	c6 40 0c ff	 mov	 BYTE PTR [eax+12], 255	; 000000ffH

; 1014 : 	smoke_list_info->green 						=	255;

  0014e	8b 45 fc	 mov	 eax, DWORD PTR _smoke_list_info$[ebp]
  00151	c6 40 0d ff	 mov	 BYTE PTR [eax+13], 255	; 000000ffH

; 1015 : 	smoke_list_info->blue 						=	255;

  00155	8b 45 fc	 mov	 eax, DWORD PTR _smoke_list_info$[ebp]
  00158	c6 40 0e ff	 mov	 BYTE PTR [eax+14], 255	; 000000ffH

; 1016 : 	smoke_list_info->alpha 						=	255;

  0015c	8b 45 fc	 mov	 eax, DWORD PTR _smoke_list_info$[ebp]
  0015f	c6 40 0f ff	 mov	 BYTE PTR [eax+15], 255	; 000000ffH

; 1017 : 
; 1018 : 	smoke_list_info->animation_frequency 	=	0.1;

  00163	8b 45 fc	 mov	 eax, DWORD PTR _smoke_list_info$[ebp]
  00166	f3 0f 10 05 00
	00 00 00	 movss	 xmm0, DWORD PTR __real@3dcccccd
  0016e	f3 0f 11 40 10	 movss	 DWORD PTR [eax+16], xmm0

; 1019 : 
; 1020 : 	smoke_list_info->lifetime 					=	1.5;

  00173	8b 45 fc	 mov	 eax, DWORD PTR _smoke_list_info$[ebp]
  00176	f3 0f 10 05 00
	00 00 00	 movss	 xmm0, DWORD PTR __real@3fc00000
  0017e	f3 0f 11 40 14	 movss	 DWORD PTR [eax+20], xmm0

; 1021 : 
; 1022 : 	smoke_list_info->scale 						=	3.0;

  00183	8b 45 fc	 mov	 eax, DWORD PTR _smoke_list_info$[ebp]
  00186	f3 0f 10 05 00
	00 00 00	 movss	 xmm0, DWORD PTR __real@40400000
  0018e	f3 0f 11 40 18	 movss	 DWORD PTR [eax+24], xmm0

; 1023 : 
; 1024 : 	smoke_list_info->rotation_rate 	=	1.0;

  00193	8b 45 fc	 mov	 eax, DWORD PTR _smoke_list_info$[ebp]
  00196	f3 0f 10 05 00
	00 00 00	 movss	 xmm0, DWORD PTR __real@3f800000
  0019e	f3 0f 11 40 1c	 movss	 DWORD PTR [eax+28], xmm0

; 1025 : 
; 1026 : 	smoke_list_info->additive 					=	TRUE;

  001a3	8b 45 fc	 mov	 eax, DWORD PTR _smoke_list_info$[ebp]
  001a6	8a 48 20	 mov	 cl, BYTE PTR [eax+32]
  001a9	80 c9 01	 or	 cl, 1
  001ac	8b 55 fc	 mov	 edx, DWORD PTR _smoke_list_info$[ebp]
  001af	88 4a 20	 mov	 BYTE PTR [edx+32], cl

; 1027 : 
; 1028 : 	//////////////////////////////////////////////////////////////////////////////////////////////////////////////////////////////
; 1029 : 	//
; 1030 : 	// SMALL ROCKET TRAIL
; 1031 : 	//
; 1032 : 	//////////////////////////////////////////////////////////////////////////////////////////////////////////////////////////////
; 1033 : 
; 1034 : 	meta_smoke_list_database[ META_SMOKE_LIST_TYPE_SMALL_ROCKET_TRAIL ].number_of_components = 1;

  001b2	b8 94 00 00 00	 mov	 eax, 148		; 00000094H
  001b7	d1 e0		 shl	 eax, 1
  001b9	c7 80 00 00 00
	00 01 00 00 00	 mov	 DWORD PTR ?meta_smoke_list_database@@3PAUMETA_SMOKE_LIST_DATA@@A[eax], 1

; 1035 : 
; 1036 : 	//
; 1037 : 	// component 0
; 1038 : 	//
; 1039 : 
; 1040 : 	smoke_list_info = &(meta_smoke_list_database[ META_SMOKE_LIST_TYPE_SMALL_ROCKET_TRAIL ].component[ 0 ]);

  001c3	b8 94 00 00 00	 mov	 eax, 148		; 00000094H
  001c8	d1 e0		 shl	 eax, 1
  001ca	b9 24 00 00 00	 mov	 ecx, 36			; 00000024H
  001cf	6b d1 00	 imul	 edx, ecx, 0
  001d2	8d 84 10 04 00
	00 00		 lea	 eax, DWORD PTR ?meta_smoke_list_database@@3PAUMETA_SMOKE_LIST_DATA@@A[eax+edx+4]
  001d9	89 45 fc	 mov	 DWORD PTR _smoke_list_info$[ebp], eax

; 1041 : 
; 1042 : 	smoke_list_info->type 						=	SMOKE_LIST_TRAILS;

  001dc	8b 45 fc	 mov	 eax, DWORD PTR _smoke_list_info$[ebp]
  001df	c7 00 02 00 00
	00		 mov	 DWORD PTR [eax], 2

; 1043 : 
; 1044 : 	smoke_list_info->trail_type	 			=	SMOKE_LIST_TYPE_GREY_TRAIL;

  001e5	8b 45 fc	 mov	 eax, DWORD PTR _smoke_list_info$[ebp]
  001e8	c7 40 08 00 00
	00 00		 mov	 DWORD PTR [eax+8], 0

; 1045 : 
; 1046 : 	smoke_list_info->entity_sub_type			=	ENTITY_SUB_TYPE_EFFECT_SMOKE_LIST_MISSILE_TRAIL;

  001ef	8b 45 fc	 mov	 eax, DWORD PTR _smoke_list_info$[ebp]
  001f2	c7 40 0c 07 00
	00 00		 mov	 DWORD PTR [eax+12], 7

; 1047 : 
; 1048 : 	smoke_list_info->trail_count	 			=	1;

  001f9	8b 45 fc	 mov	 eax, DWORD PTR _smoke_list_info$[ebp]
  001fc	c7 40 04 01 00
	00 00		 mov	 DWORD PTR [eax+4], 1

; 1049 : 
; 1050 : 	smoke_list_info->infinite 					=	FALSE;

  00203	8b 45 fc	 mov	 eax, DWORD PTR _smoke_list_info$[ebp]
  00206	c7 40 10 00 00
	00 00		 mov	 DWORD PTR [eax+16], 0

; 1051 : 
; 1052 : 	smoke_list_info->generator_lifetime 	=	3.0;

  0020d	8b 45 fc	 mov	 eax, DWORD PTR _smoke_list_info$[ebp]
  00210	f3 0f 10 05 00
	00 00 00	 movss	 xmm0, DWORD PTR __real@40400000
  00218	f3 0f 11 40 14	 movss	 DWORD PTR [eax+20], xmm0

; 1053 : 	smoke_list_info->frequency 				=	0.08;

  0021d	8b 45 fc	 mov	 eax, DWORD PTR _smoke_list_info$[ebp]
  00220	f3 0f 10 05 00
	00 00 00	 movss	 xmm0, DWORD PTR __real@3da3d70a
  00228	f3 0f 11 40 18	 movss	 DWORD PTR [eax+24], xmm0

; 1054 : 	smoke_list_info->smoke_lifetime 			=	3.0;

  0022d	8b 45 fc	 mov	 eax, DWORD PTR _smoke_list_info$[ebp]
  00230	f3 0f 10 05 00
	00 00 00	 movss	 xmm0, DWORD PTR __real@40400000
  00238	f3 0f 11 40 1c	 movss	 DWORD PTR [eax+28], xmm0

; 1055 : 
; 1056 : 	//////////////////////////////////////////////////////////////////////////////////////////////////////////////////////////////
; 1057 : 	//
; 1058 : 	// DECOY FLARE TRAIL
; 1059 : 	//
; 1060 : 	//////////////////////////////////////////////////////////////////////////////////////////////////////////////////////////////
; 1061 : 
; 1062 : 	meta_smoke_list_database[ META_SMOKE_LIST_TYPE_DECOY_FLARE_TRAIL ].number_of_components = 3;

  0023d	b8 94 00 00 00	 mov	 eax, 148		; 00000094H
  00242	6b c8 03	 imul	 ecx, eax, 3
  00245	c7 81 00 00 00
	00 03 00 00 00	 mov	 DWORD PTR ?meta_smoke_list_database@@3PAUMETA_SMOKE_LIST_DATA@@A[ecx], 3

; 1063 : 
; 1064 : 	//
; 1065 : 	// component 0
; 1066 : 	//
; 1067 : 
; 1068 : 	smoke_list_info = &(meta_smoke_list_database[ META_SMOKE_LIST_TYPE_DECOY_FLARE_TRAIL ].component[ 0 ]);

  0024f	b8 94 00 00 00	 mov	 eax, 148		; 00000094H
  00254	6b c8 03	 imul	 ecx, eax, 3
  00257	ba 24 00 00 00	 mov	 edx, 36			; 00000024H
  0025c	6b c2 00	 imul	 eax, edx, 0
  0025f	8d 8c 01 04 00
	00 00		 lea	 ecx, DWORD PTR ?meta_smoke_list_database@@3PAUMETA_SMOKE_LIST_DATA@@A[ecx+eax+4]
  00266	89 4d fc	 mov	 DWORD PTR _smoke_list_info$[ebp], ecx

; 1069 : 
; 1070 : 	smoke_list_info->type 						=	SMOKE_LIST_TRAILS;

  00269	8b 45 fc	 mov	 eax, DWORD PTR _smoke_list_info$[ebp]
  0026c	c7 00 02 00 00
	00		 mov	 DWORD PTR [eax], 2

; 1071 : 
; 1072 : 	smoke_list_info->trail_type	 			=	SMOKE_LIST_TYPE_WHITE_TRAIL;

  00272	8b 45 fc	 mov	 eax, DWORD PTR _smoke_list_info$[ebp]
  00275	c7 40 08 01 00
	00 00		 mov	 DWORD PTR [eax+8], 1

; 1073 : 
; 1074 : 	smoke_list_info->entity_sub_type			=	ENTITY_SUB_TYPE_EFFECT_SMOKE_LIST_MISSILE_TRAIL;

  0027c	8b 45 fc	 mov	 eax, DWORD PTR _smoke_list_info$[ebp]
  0027f	c7 40 0c 07 00
	00 00		 mov	 DWORD PTR [eax+12], 7

; 1075 : 
; 1076 : 	smoke_list_info->trail_count	 			=	1;

  00286	8b 45 fc	 mov	 eax, DWORD PTR _smoke_list_info$[ebp]
  00289	c7 40 04 01 00
	00 00		 mov	 DWORD PTR [eax+4], 1

; 1077 : 
; 1078 : 	smoke_list_info->infinite 					=	FALSE;

  00290	8b 45 fc	 mov	 eax, DWORD PTR _smoke_list_info$[ebp]
  00293	c7 40 10 00 00
	00 00		 mov	 DWORD PTR [eax+16], 0

; 1079 : 
; 1080 : 	smoke_list_info->generator_lifetime 	=	8.0;

  0029a	8b 45 fc	 mov	 eax, DWORD PTR _smoke_list_info$[ebp]
  0029d	f3 0f 10 05 00
	00 00 00	 movss	 xmm0, DWORD PTR __real@41000000
  002a5	f3 0f 11 40 14	 movss	 DWORD PTR [eax+20], xmm0

; 1081 : 	smoke_list_info->frequency 				=	0.05;

  002aa	8b 45 fc	 mov	 eax, DWORD PTR _smoke_list_info$[ebp]
  002ad	f3 0f 10 05 00
	00 00 00	 movss	 xmm0, DWORD PTR __real@3d4ccccd
  002b5	f3 0f 11 40 18	 movss	 DWORD PTR [eax+24], xmm0

; 1082 : 	smoke_list_info->smoke_lifetime 			=	3.0;

  002ba	8b 45 fc	 mov	 eax, DWORD PTR _smoke_list_info$[ebp]
  002bd	f3 0f 10 05 00
	00 00 00	 movss	 xmm0, DWORD PTR __real@40400000
  002c5	f3 0f 11 40 1c	 movss	 DWORD PTR [eax+28], xmm0

; 1083 : 
; 1084 : 	//
; 1085 : 	// component 1
; 1086 : 	//
; 1087 : 
; 1088 : 	smoke_list_info = &(meta_smoke_list_database[ META_SMOKE_LIST_TYPE_DECOY_FLARE_TRAIL ].component[ 1 ]);

  002ca	b8 94 00 00 00	 mov	 eax, 148		; 00000094H
  002cf	6b c8 03	 imul	 ecx, eax, 3
  002d2	ba 24 00 00 00	 mov	 edx, 36			; 00000024H
  002d7	c1 e2 00	 shl	 edx, 0
  002da	8d 84 11 04 00
	00 00		 lea	 eax, DWORD PTR ?meta_smoke_list_database@@3PAUMETA_SMOKE_LIST_DATA@@A[ecx+edx+4]
  002e1	89 45 fc	 mov	 DWORD PTR _smoke_list_info$[ebp], eax

; 1089 : 
; 1090 : 	smoke_list_info->type 						=	SMOKE_LIST_TRAILS;

  002e4	8b 45 fc	 mov	 eax, DWORD PTR _smoke_list_info$[ebp]
  002e7	c7 00 02 00 00
	00		 mov	 DWORD PTR [eax], 2

; 1091 : 
; 1092 : 	smoke_list_info->trail_type	 			=	SMOKE_LIST_TYPE_ADDITIVE_TRAIL;

  002ed	8b 45 fc	 mov	 eax, DWORD PTR _smoke_list_info$[ebp]
  002f0	c7 40 08 02 00
	00 00		 mov	 DWORD PTR [eax+8], 2

; 1093 : 
; 1094 : 	smoke_list_info->entity_sub_type			=	ENTITY_SUB_TYPE_EFFECT_SMOKE_LIST_MISSILE_TRAIL;

  002f7	8b 45 fc	 mov	 eax, DWORD PTR _smoke_list_info$[ebp]
  002fa	c7 40 0c 07 00
	00 00		 mov	 DWORD PTR [eax+12], 7

; 1095 : 
; 1096 : 	smoke_list_info->trail_count	 			=	1;

  00301	8b 45 fc	 mov	 eax, DWORD PTR _smoke_list_info$[ebp]
  00304	c7 40 04 01 00
	00 00		 mov	 DWORD PTR [eax+4], 1

; 1097 : 
; 1098 : 	smoke_list_info->infinite 					=	FALSE;

  0030b	8b 45 fc	 mov	 eax, DWORD PTR _smoke_list_info$[ebp]
  0030e	c7 40 10 00 00
	00 00		 mov	 DWORD PTR [eax+16], 0

; 1099 : 
; 1100 : 	smoke_list_info->generator_lifetime 	=	8.0;

  00315	8b 45 fc	 mov	 eax, DWORD PTR _smoke_list_info$[ebp]
  00318	f3 0f 10 05 00
	00 00 00	 movss	 xmm0, DWORD PTR __real@41000000
  00320	f3 0f 11 40 14	 movss	 DWORD PTR [eax+20], xmm0

; 1101 : 	smoke_list_info->frequency 				=	0.05;

  00325	8b 45 fc	 mov	 eax, DWORD PTR _smoke_list_info$[ebp]
  00328	f3 0f 10 05 00
	00 00 00	 movss	 xmm0, DWORD PTR __real@3d4ccccd
  00330	f3 0f 11 40 18	 movss	 DWORD PTR [eax+24], xmm0

; 1102 : 	smoke_list_info->smoke_lifetime 			=	1.2;

  00335	8b 45 fc	 mov	 eax, DWORD PTR _smoke_list_info$[ebp]
  00338	f3 0f 10 05 00
	00 00 00	 movss	 xmm0, DWORD PTR __real@3f99999a
  00340	f3 0f 11 40 1c	 movss	 DWORD PTR [eax+28], xmm0

; 1103 : 
; 1104 : 	//
; 1105 : 	// component 2
; 1106 : 	//
; 1107 : 
; 1108 : 	smoke_list_info = &(meta_smoke_list_database[ META_SMOKE_LIST_TYPE_DECOY_FLARE_TRAIL ].component[ 2 ]);

  00345	b8 94 00 00 00	 mov	 eax, 148		; 00000094H
  0034a	6b c8 03	 imul	 ecx, eax, 3
  0034d	ba 24 00 00 00	 mov	 edx, 36			; 00000024H
  00352	d1 e2		 shl	 edx, 1
  00354	8d 84 11 04 00
	00 00		 lea	 eax, DWORD PTR ?meta_smoke_list_database@@3PAUMETA_SMOKE_LIST_DATA@@A[ecx+edx+4]
  0035b	89 45 fc	 mov	 DWORD PTR _smoke_list_info$[ebp], eax

; 1109 : 
; 1110 : 	smoke_list_info->type 						=	SMOKE_LIST_SPRITES;

  0035e	8b 45 fc	 mov	 eax, DWORD PTR _smoke_list_info$[ebp]
  00361	c7 00 01 00 00
	00		 mov	 DWORD PTR [eax], 1

; 1111 : 
; 1112 : 	smoke_list_info->animated_texture		=	TEXTURE_ANIMATION_INDEX_FLARE;

  00367	8b 45 fc	 mov	 eax, DWORD PTR _smoke_list_info$[ebp]
  0036a	c7 40 04 5b 00
	00 00		 mov	 DWORD PTR [eax+4], 91	; 0000005bH

; 1113 : 
; 1114 : 	smoke_list_info->sprite_count	 			=	1;

  00371	8b 45 fc	 mov	 eax, DWORD PTR _smoke_list_info$[ebp]
  00374	c7 40 08 01 00
	00 00		 mov	 DWORD PTR [eax+8], 1

; 1115 : 
; 1116 : 	smoke_list_info->red 						=	255;

  0037b	8b 45 fc	 mov	 eax, DWORD PTR _smoke_list_info$[ebp]
  0037e	c6 40 0c ff	 mov	 BYTE PTR [eax+12], 255	; 000000ffH

; 1117 : 	smoke_list_info->green 						=	255;

  00382	8b 45 fc	 mov	 eax, DWORD PTR _smoke_list_info$[ebp]
  00385	c6 40 0d ff	 mov	 BYTE PTR [eax+13], 255	; 000000ffH

; 1118 : 	smoke_list_info->blue 						=	255;

  00389	8b 45 fc	 mov	 eax, DWORD PTR _smoke_list_info$[ebp]
  0038c	c6 40 0e ff	 mov	 BYTE PTR [eax+14], 255	; 000000ffH

; 1119 : 	smoke_list_info->alpha 						=	255;

  00390	8b 45 fc	 mov	 eax, DWORD PTR _smoke_list_info$[ebp]
  00393	c6 40 0f ff	 mov	 BYTE PTR [eax+15], 255	; 000000ffH

; 1120 : 
; 1121 : 	smoke_list_info->animation_frequency 	=	0.1;

  00397	8b 45 fc	 mov	 eax, DWORD PTR _smoke_list_info$[ebp]
  0039a	f3 0f 10 05 00
	00 00 00	 movss	 xmm0, DWORD PTR __real@3dcccccd
  003a2	f3 0f 11 40 10	 movss	 DWORD PTR [eax+16], xmm0

; 1122 : 
; 1123 : 	smoke_list_info->lifetime 					=	5.0;

  003a7	8b 45 fc	 mov	 eax, DWORD PTR _smoke_list_info$[ebp]
  003aa	f3 0f 10 05 00
	00 00 00	 movss	 xmm0, DWORD PTR __real@40a00000
  003b2	f3 0f 11 40 14	 movss	 DWORD PTR [eax+20], xmm0

; 1124 : 
; 1125 : 	smoke_list_info->scale 						=	12.5;

  003b7	8b 45 fc	 mov	 eax, DWORD PTR _smoke_list_info$[ebp]
  003ba	f3 0f 10 05 00
	00 00 00	 movss	 xmm0, DWORD PTR __real@41480000
  003c2	f3 0f 11 40 18	 movss	 DWORD PTR [eax+24], xmm0

; 1126 : 
; 1127 : 	smoke_list_info->rotation_rate 	=	1.0;

  003c7	8b 45 fc	 mov	 eax, DWORD PTR _smoke_list_info$[ebp]
  003ca	f3 0f 10 05 00
	00 00 00	 movss	 xmm0, DWORD PTR __real@3f800000
  003d2	f3 0f 11 40 1c	 movss	 DWORD PTR [eax+28], xmm0

; 1128 : 
; 1129 : 	smoke_list_info->additive 					=	TRUE;

  003d7	8b 45 fc	 mov	 eax, DWORD PTR _smoke_list_info$[ebp]
  003da	8a 48 20	 mov	 cl, BYTE PTR [eax+32]
  003dd	80 c9 01	 or	 cl, 1
  003e0	8b 55 fc	 mov	 edx, DWORD PTR _smoke_list_info$[ebp]
  003e3	88 4a 20	 mov	 BYTE PTR [edx+32], cl

; 1130 : 
; 1131 : 	//////////////////////////////////////////////////////////////////////////////////////////////////////////////////////////////
; 1132 : 	//
; 1133 : 	// INFINITE FIRE
; 1134 : 	//
; 1135 : 	//////////////////////////////////////////////////////////////////////////////////////////////////////////////////////////////
; 1136 : 
; 1137 : 	meta_smoke_list_database[ META_SMOKE_LIST_TYPE_INFINITE_FIRE ].number_of_components = 1;

  003e6	b8 94 00 00 00	 mov	 eax, 148		; 00000094H
  003eb	c1 e0 02	 shl	 eax, 2
  003ee	c7 80 00 00 00
	00 01 00 00 00	 mov	 DWORD PTR ?meta_smoke_list_database@@3PAUMETA_SMOKE_LIST_DATA@@A[eax], 1

; 1138 : 
; 1139 : 	//
; 1140 : 	// component 0
; 1141 : 	//
; 1142 : 
; 1143 : 	smoke_list_info = &(meta_smoke_list_database[ META_SMOKE_LIST_TYPE_INFINITE_FIRE ].component[ 0 ]);

  003f8	b8 94 00 00 00	 mov	 eax, 148		; 00000094H
  003fd	c1 e0 02	 shl	 eax, 2
  00400	b9 24 00 00 00	 mov	 ecx, 36			; 00000024H
  00405	6b d1 00	 imul	 edx, ecx, 0
  00408	8d 84 10 04 00
	00 00		 lea	 eax, DWORD PTR ?meta_smoke_list_database@@3PAUMETA_SMOKE_LIST_DATA@@A[eax+edx+4]
  0040f	89 45 fc	 mov	 DWORD PTR _smoke_list_info$[ebp], eax

; 1144 : 
; 1145 : 	smoke_list_info->type 						=	SMOKE_LIST_TRAILS;

  00412	8b 45 fc	 mov	 eax, DWORD PTR _smoke_list_info$[ebp]
  00415	c7 00 02 00 00
	00		 mov	 DWORD PTR [eax], 2

; 1146 : 
; 1147 : 	smoke_list_info->trail_type	 			=	SMOKE_LIST_TYPE_FIRE;

  0041b	8b 45 fc	 mov	 eax, DWORD PTR _smoke_list_info$[ebp]
  0041e	c7 40 08 04 00
	00 00		 mov	 DWORD PTR [eax+8], 4

; 1148 : 
; 1149 : 	smoke_list_info->entity_sub_type			=	ENTITY_SUB_TYPE_EFFECT_SMOKE_LIST_FIRE;

  00425	8b 45 fc	 mov	 eax, DWORD PTR _smoke_list_info$[ebp]
  00428	c7 40 0c 04 00
	00 00		 mov	 DWORD PTR [eax+12], 4

; 1150 : 
; 1151 : 	smoke_list_info->trail_count	 			=	1;

  0042f	8b 45 fc	 mov	 eax, DWORD PTR _smoke_list_info$[ebp]
  00432	c7 40 04 01 00
	00 00		 mov	 DWORD PTR [eax+4], 1

; 1152 : 
; 1153 : 	smoke_list_info->infinite 					=	TRUE;

  00439	8b 45 fc	 mov	 eax, DWORD PTR _smoke_list_info$[ebp]
  0043c	c7 40 10 01 00
	00 00		 mov	 DWORD PTR [eax+16], 1

; 1154 : 
; 1155 : 	smoke_list_info->generator_lifetime 	=	INFINITE_SMOKE_ON;

  00443	8b 45 fc	 mov	 eax, DWORD PTR _smoke_list_info$[ebp]
  00446	f3 0f 10 05 00
	00 00 00	 movss	 xmm0, DWORD PTR __real@3f800000
  0044e	f3 0f 11 40 14	 movss	 DWORD PTR [eax+20], xmm0

; 1156 : 	smoke_list_info->frequency 				=	0.75;

  00453	8b 45 fc	 mov	 eax, DWORD PTR _smoke_list_info$[ebp]
  00456	f3 0f 10 05 00
	00 00 00	 movss	 xmm0, DWORD PTR __real@3f400000
  0045e	f3 0f 11 40 18	 movss	 DWORD PTR [eax+24], xmm0

; 1157 : 	smoke_list_info->smoke_lifetime 			=	8.5;

  00463	8b 45 fc	 mov	 eax, DWORD PTR _smoke_list_info$[ebp]
  00466	f3 0f 10 05 00
	00 00 00	 movss	 xmm0, DWORD PTR __real@41080000
  0046e	f3 0f 11 40 1c	 movss	 DWORD PTR [eax+28], xmm0

; 1158 : 
; 1159 : 	//////////////////////////////////////////////////////////////////////////////////////////////////////////////////////////////
; 1160 : 	//
; 1161 : 	// FIRE ( SHORT DURATION )
; 1162 : 	//
; 1163 : 	//////////////////////////////////////////////////////////////////////////////////////////////////////////////////////////////
; 1164 : 
; 1165 : 	meta_smoke_list_database[ META_SMOKE_LIST_TYPE_FIRE_SHORT_DURATION ].number_of_components = 1;

  00473	b8 94 00 00 00	 mov	 eax, 148		; 00000094H
  00478	6b c8 05	 imul	 ecx, eax, 5
  0047b	c7 81 00 00 00
	00 01 00 00 00	 mov	 DWORD PTR ?meta_smoke_list_database@@3PAUMETA_SMOKE_LIST_DATA@@A[ecx], 1

; 1166 : 
; 1167 : 	//
; 1168 : 	// component 0
; 1169 : 	//
; 1170 : 
; 1171 : 	smoke_list_info = &(meta_smoke_list_database[ META_SMOKE_LIST_TYPE_FIRE_SHORT_DURATION ].component[ 0 ]);

  00485	b8 94 00 00 00	 mov	 eax, 148		; 00000094H
  0048a	6b c8 05	 imul	 ecx, eax, 5
  0048d	ba 24 00 00 00	 mov	 edx, 36			; 00000024H
  00492	6b c2 00	 imul	 eax, edx, 0
  00495	8d 8c 01 04 00
	00 00		 lea	 ecx, DWORD PTR ?meta_smoke_list_database@@3PAUMETA_SMOKE_LIST_DATA@@A[ecx+eax+4]
  0049c	89 4d fc	 mov	 DWORD PTR _smoke_list_info$[ebp], ecx

; 1172 : 
; 1173 : 	smoke_list_info->type 						=	SMOKE_LIST_TRAILS;

  0049f	8b 45 fc	 mov	 eax, DWORD PTR _smoke_list_info$[ebp]
  004a2	c7 00 02 00 00
	00		 mov	 DWORD PTR [eax], 2

; 1174 : 
; 1175 : 	smoke_list_info->trail_type	 			=	SMOKE_LIST_TYPE_FIRE;

  004a8	8b 45 fc	 mov	 eax, DWORD PTR _smoke_list_info$[ebp]
  004ab	c7 40 08 04 00
	00 00		 mov	 DWORD PTR [eax+8], 4

; 1176 : 
; 1177 : 	smoke_list_info->entity_sub_type			=	ENTITY_SUB_TYPE_EFFECT_SMOKE_LIST_FIRE;

  004b2	8b 45 fc	 mov	 eax, DWORD PTR _smoke_list_info$[ebp]
  004b5	c7 40 0c 04 00
	00 00		 mov	 DWORD PTR [eax+12], 4

; 1178 : 
; 1179 : 	smoke_list_info->trail_count	 			=	1;

  004bc	8b 45 fc	 mov	 eax, DWORD PTR _smoke_list_info$[ebp]
  004bf	c7 40 04 01 00
	00 00		 mov	 DWORD PTR [eax+4], 1

; 1180 : 
; 1181 : 	smoke_list_info->infinite 					=	FALSE;

  004c6	8b 45 fc	 mov	 eax, DWORD PTR _smoke_list_info$[ebp]
  004c9	c7 40 10 00 00
	00 00		 mov	 DWORD PTR [eax+16], 0

; 1182 : 
; 1183 : 	smoke_list_info->generator_lifetime 	=	180.0;

  004d0	8b 45 fc	 mov	 eax, DWORD PTR _smoke_list_info$[ebp]
  004d3	f3 0f 10 05 00
	00 00 00	 movss	 xmm0, DWORD PTR __real@43340000
  004db	f3 0f 11 40 14	 movss	 DWORD PTR [eax+20], xmm0

; 1184 : 	smoke_list_info->frequency 				=	0.5;

  004e0	8b 45 fc	 mov	 eax, DWORD PTR _smoke_list_info$[ebp]
  004e3	f3 0f 10 05 00
	00 00 00	 movss	 xmm0, DWORD PTR __real@3f000000
  004eb	f3 0f 11 40 18	 movss	 DWORD PTR [eax+24], xmm0

; 1185 : 	smoke_list_info->smoke_lifetime 			=	8.5;

  004f0	8b 45 fc	 mov	 eax, DWORD PTR _smoke_list_info$[ebp]
  004f3	f3 0f 10 05 00
	00 00 00	 movss	 xmm0, DWORD PTR __real@41080000
  004fb	f3 0f 11 40 1c	 movss	 DWORD PTR [eax+28], xmm0

; 1186 : 
; 1187 : 	//////////////////////////////////////////////////////////////////////////////////////////////////////////////////////////////
; 1188 : 	//
; 1189 : 	// SMALL FIRE ( SHORT DURATION )
; 1190 : 	//
; 1191 : 	//////////////////////////////////////////////////////////////////////////////////////////////////////////////////////////////
; 1192 : 
; 1193 : 	meta_smoke_list_database[ META_SMOKE_LIST_TYPE_SMALL_FIRE_SHORT_DURATION ].number_of_components = 1;

  00500	b8 94 00 00 00	 mov	 eax, 148		; 00000094H
  00505	6b c8 06	 imul	 ecx, eax, 6
  00508	c7 81 00 00 00
	00 01 00 00 00	 mov	 DWORD PTR ?meta_smoke_list_database@@3PAUMETA_SMOKE_LIST_DATA@@A[ecx], 1

; 1194 : 
; 1195 : 	//
; 1196 : 	// component 0
; 1197 : 	//
; 1198 : 
; 1199 : 	smoke_list_info = &(meta_smoke_list_database[ META_SMOKE_LIST_TYPE_SMALL_FIRE_SHORT_DURATION ].component[ 0 ]);

  00512	b8 94 00 00 00	 mov	 eax, 148		; 00000094H
  00517	6b c8 06	 imul	 ecx, eax, 6
  0051a	ba 24 00 00 00	 mov	 edx, 36			; 00000024H
  0051f	6b c2 00	 imul	 eax, edx, 0
  00522	8d 8c 01 04 00
	00 00		 lea	 ecx, DWORD PTR ?meta_smoke_list_database@@3PAUMETA_SMOKE_LIST_DATA@@A[ecx+eax+4]
  00529	89 4d fc	 mov	 DWORD PTR _smoke_list_info$[ebp], ecx

; 1200 : 
; 1201 : 	smoke_list_info->type 						=	SMOKE_LIST_TRAILS;

  0052c	8b 45 fc	 mov	 eax, DWORD PTR _smoke_list_info$[ebp]
  0052f	c7 00 02 00 00
	00		 mov	 DWORD PTR [eax], 2

; 1202 : 
; 1203 : 	smoke_list_info->trail_type	 			=	SMOKE_LIST_TYPE_SMALL_FIRE;

  00535	8b 45 fc	 mov	 eax, DWORD PTR _smoke_list_info$[ebp]
  00538	c7 40 08 05 00
	00 00		 mov	 DWORD PTR [eax+8], 5

; 1204 : 
; 1205 : 	smoke_list_info->entity_sub_type			=	ENTITY_SUB_TYPE_EFFECT_SMOKE_LIST_FIRE;

  0053f	8b 45 fc	 mov	 eax, DWORD PTR _smoke_list_info$[ebp]
  00542	c7 40 0c 04 00
	00 00		 mov	 DWORD PTR [eax+12], 4

; 1206 : 
; 1207 : 	smoke_list_info->trail_count	 			=	1;

  00549	8b 45 fc	 mov	 eax, DWORD PTR _smoke_list_info$[ebp]
  0054c	c7 40 04 01 00
	00 00		 mov	 DWORD PTR [eax+4], 1

; 1208 : 
; 1209 : 	smoke_list_info->infinite 					=	FALSE;

  00553	8b 45 fc	 mov	 eax, DWORD PTR _smoke_list_info$[ebp]
  00556	c7 40 10 00 00
	00 00		 mov	 DWORD PTR [eax+16], 0

; 1210 : 
; 1211 : 	smoke_list_info->generator_lifetime 	=	60.0;

  0055d	8b 45 fc	 mov	 eax, DWORD PTR _smoke_list_info$[ebp]
  00560	f3 0f 10 05 00
	00 00 00	 movss	 xmm0, DWORD PTR __real@42700000
  00568	f3 0f 11 40 14	 movss	 DWORD PTR [eax+20], xmm0

; 1212 : 	smoke_list_info->frequency 				=	0.2;

  0056d	8b 45 fc	 mov	 eax, DWORD PTR _smoke_list_info$[ebp]
  00570	f3 0f 10 05 00
	00 00 00	 movss	 xmm0, DWORD PTR __real@3e4ccccd
  00578	f3 0f 11 40 18	 movss	 DWORD PTR [eax+24], xmm0

; 1213 : 	smoke_list_info->smoke_lifetime 			=	4.5;

  0057d	8b 45 fc	 mov	 eax, DWORD PTR _smoke_list_info$[ebp]
  00580	f3 0f 10 05 00
	00 00 00	 movss	 xmm0, DWORD PTR __real@40900000
  00588	f3 0f 11 40 1c	 movss	 DWORD PTR [eax+28], xmm0

; 1214 : 
; 1215 : 	//////////////////////////////////////////////////////////////////////////////////////////////////////////////////////////////
; 1216 : 	//
; 1217 : 	// VEHICLE DUST TRAIL
; 1218 : 	//
; 1219 : 	//////////////////////////////////////////////////////////////////////////////////////////////////////////////////////////////
; 1220 : 
; 1221 : 	meta_smoke_list_database[ META_SMOKE_LIST_TYPE_VEHICLE_DUST_TRAIL ].number_of_components = 1;

  0058d	b8 94 00 00 00	 mov	 eax, 148		; 00000094H
  00592	6b c8 07	 imul	 ecx, eax, 7
  00595	c7 81 00 00 00
	00 01 00 00 00	 mov	 DWORD PTR ?meta_smoke_list_database@@3PAUMETA_SMOKE_LIST_DATA@@A[ecx], 1

; 1222 : 
; 1223 : 	//
; 1224 : 	// component 0
; 1225 : 	//
; 1226 : 
; 1227 : 	smoke_list_info = &(meta_smoke_list_database[ META_SMOKE_LIST_TYPE_VEHICLE_DUST_TRAIL ].component[ 0 ]);

  0059f	b8 94 00 00 00	 mov	 eax, 148		; 00000094H
  005a4	6b c8 07	 imul	 ecx, eax, 7
  005a7	ba 24 00 00 00	 mov	 edx, 36			; 00000024H
  005ac	6b c2 00	 imul	 eax, edx, 0
  005af	8d 8c 01 04 00
	00 00		 lea	 ecx, DWORD PTR ?meta_smoke_list_database@@3PAUMETA_SMOKE_LIST_DATA@@A[ecx+eax+4]
  005b6	89 4d fc	 mov	 DWORD PTR _smoke_list_info$[ebp], ecx

; 1228 : 
; 1229 : 	smoke_list_info->type 						=	SMOKE_LIST_TRAILS;

  005b9	8b 45 fc	 mov	 eax, DWORD PTR _smoke_list_info$[ebp]
  005bc	c7 00 02 00 00
	00		 mov	 DWORD PTR [eax], 2

; 1230 : 
; 1231 : 	smoke_list_info->trail_type	 			=	SMOKE_LIST_TYPE_DUST_TRAIL_1;

  005c2	8b 45 fc	 mov	 eax, DWORD PTR _smoke_list_info$[ebp]
  005c5	c7 40 08 0b 00
	00 00		 mov	 DWORD PTR [eax+8], 11	; 0000000bH

; 1232 : 
; 1233 : 	smoke_list_info->entity_sub_type			=	ENTITY_SUB_TYPE_EFFECT_SMOKE_LIST_VEHICLE_WAKE;

  005cc	8b 45 fc	 mov	 eax, DWORD PTR _smoke_list_info$[ebp]
  005cf	c7 40 0c 09 00
	00 00		 mov	 DWORD PTR [eax+12], 9

; 1234 : 
; 1235 : 	smoke_list_info->trail_count	 			=	1;

  005d6	8b 45 fc	 mov	 eax, DWORD PTR _smoke_list_info$[ebp]
  005d9	c7 40 04 01 00
	00 00		 mov	 DWORD PTR [eax+4], 1

; 1236 : 
; 1237 : 	smoke_list_info->infinite 					=	TRUE;

  005e0	8b 45 fc	 mov	 eax, DWORD PTR _smoke_list_info$[ebp]
  005e3	c7 40 10 01 00
	00 00		 mov	 DWORD PTR [eax+16], 1

; 1238 : 
; 1239 : 	smoke_list_info->generator_lifetime 	=	INFINITE_SMOKE_OFF;

  005ea	8b 45 fc	 mov	 eax, DWORD PTR _smoke_list_info$[ebp]
  005ed	0f 57 c0	 xorps	 xmm0, xmm0
  005f0	f3 0f 11 40 14	 movss	 DWORD PTR [eax+20], xmm0

; 1240 : 	smoke_list_info->frequency 				=	0.1;

  005f5	8b 45 fc	 mov	 eax, DWORD PTR _smoke_list_info$[ebp]
  005f8	f3 0f 10 05 00
	00 00 00	 movss	 xmm0, DWORD PTR __real@3dcccccd
  00600	f3 0f 11 40 18	 movss	 DWORD PTR [eax+24], xmm0

; 1241 : 	smoke_list_info->smoke_lifetime 			=	0.75;

  00605	8b 45 fc	 mov	 eax, DWORD PTR _smoke_list_info$[ebp]
  00608	f3 0f 10 05 00
	00 00 00	 movss	 xmm0, DWORD PTR __real@3f400000
  00610	f3 0f 11 40 1c	 movss	 DWORD PTR [eax+28], xmm0

; 1242 : 
; 1243 : 	//////////////////////////////////////////////////////////////////////////////////////////////////////////////////////////////
; 1244 : 	//
; 1245 : 	// REAR SHIP WAKE
; 1246 : 	//
; 1247 : 	//////////////////////////////////////////////////////////////////////////////////////////////////////////////////////////////
; 1248 : 
; 1249 : 	meta_smoke_list_database[ META_SMOKE_LIST_TYPE_REAR_SHIP_WAKE ].number_of_components = 1;

  00615	b8 94 00 00 00	 mov	 eax, 148		; 00000094H
  0061a	c1 e0 03	 shl	 eax, 3
  0061d	c7 80 00 00 00
	00 01 00 00 00	 mov	 DWORD PTR ?meta_smoke_list_database@@3PAUMETA_SMOKE_LIST_DATA@@A[eax], 1

; 1250 : 
; 1251 : 	//
; 1252 : 	// component 0
; 1253 : 	//
; 1254 : 
; 1255 : 	smoke_list_info = &(meta_smoke_list_database[ META_SMOKE_LIST_TYPE_REAR_SHIP_WAKE ].component[ 0 ]);

  00627	b8 94 00 00 00	 mov	 eax, 148		; 00000094H
  0062c	c1 e0 03	 shl	 eax, 3
  0062f	b9 24 00 00 00	 mov	 ecx, 36			; 00000024H
  00634	6b d1 00	 imul	 edx, ecx, 0
  00637	8d 84 10 04 00
	00 00		 lea	 eax, DWORD PTR ?meta_smoke_list_database@@3PAUMETA_SMOKE_LIST_DATA@@A[eax+edx+4]
  0063e	89 45 fc	 mov	 DWORD PTR _smoke_list_info$[ebp], eax

; 1256 : 
; 1257 : 	smoke_list_info->type 						=	SMOKE_LIST_TRAILS;

  00641	8b 45 fc	 mov	 eax, DWORD PTR _smoke_list_info$[ebp]
  00644	c7 00 02 00 00
	00		 mov	 DWORD PTR [eax], 2

; 1258 : 
; 1259 : 	smoke_list_info->trail_type	 			=	SMOKE_LIST_TYPE_REAR_SHIP_WAKE;

  0064a	8b 45 fc	 mov	 eax, DWORD PTR _smoke_list_info$[ebp]
  0064d	c7 40 08 0d 00
	00 00		 mov	 DWORD PTR [eax+8], 13	; 0000000dH

; 1260 : 
; 1261 : 	smoke_list_info->entity_sub_type			=	ENTITY_SUB_TYPE_EFFECT_SMOKE_LIST_VEHICLE_WAKE;

  00654	8b 45 fc	 mov	 eax, DWORD PTR _smoke_list_info$[ebp]
  00657	c7 40 0c 09 00
	00 00		 mov	 DWORD PTR [eax+12], 9

; 1262 : 
; 1263 : 	smoke_list_info->trail_count	 			=	1;

  0065e	8b 45 fc	 mov	 eax, DWORD PTR _smoke_list_info$[ebp]
  00661	c7 40 04 01 00
	00 00		 mov	 DWORD PTR [eax+4], 1

; 1264 : 
; 1265 : 	smoke_list_info->infinite 					=	TRUE;

  00668	8b 45 fc	 mov	 eax, DWORD PTR _smoke_list_info$[ebp]
  0066b	c7 40 10 01 00
	00 00		 mov	 DWORD PTR [eax+16], 1

; 1266 : 
; 1267 : 	smoke_list_info->generator_lifetime 	=	INFINITE_SMOKE_OFF;

  00672	8b 45 fc	 mov	 eax, DWORD PTR _smoke_list_info$[ebp]
  00675	0f 57 c0	 xorps	 xmm0, xmm0
  00678	f3 0f 11 40 14	 movss	 DWORD PTR [eax+20], xmm0

; 1268 : 	smoke_list_info->frequency 				=	1.0;

  0067d	8b 45 fc	 mov	 eax, DWORD PTR _smoke_list_info$[ebp]
  00680	f3 0f 10 05 00
	00 00 00	 movss	 xmm0, DWORD PTR __real@3f800000
  00688	f3 0f 11 40 18	 movss	 DWORD PTR [eax+24], xmm0

; 1269 : 	smoke_list_info->smoke_lifetime 			=	35.0;

  0068d	8b 45 fc	 mov	 eax, DWORD PTR _smoke_list_info$[ebp]
  00690	f3 0f 10 05 00
	00 00 00	 movss	 xmm0, DWORD PTR __real@420c0000
  00698	f3 0f 11 40 1c	 movss	 DWORD PTR [eax+28], xmm0

; 1270 : 
; 1271 : 	//////////////////////////////////////////////////////////////////////////////////////////////////////////////////////////////
; 1272 : 	//
; 1273 : 	// FRONT SHIP WAKE
; 1274 : 	//
; 1275 : 	//////////////////////////////////////////////////////////////////////////////////////////////////////////////////////////////
; 1276 : 
; 1277 : 	meta_smoke_list_database[ META_SMOKE_LIST_TYPE_FRONT_SHIP_WAKE ].number_of_components = 1;

  0069d	b8 94 00 00 00	 mov	 eax, 148		; 00000094H
  006a2	6b c8 09	 imul	 ecx, eax, 9
  006a5	c7 81 00 00 00
	00 01 00 00 00	 mov	 DWORD PTR ?meta_smoke_list_database@@3PAUMETA_SMOKE_LIST_DATA@@A[ecx], 1

; 1278 : 
; 1279 : 	//
; 1280 : 	// component 0
; 1281 : 	//
; 1282 : 
; 1283 : 	smoke_list_info = &(meta_smoke_list_database[ META_SMOKE_LIST_TYPE_FRONT_SHIP_WAKE ].component[ 0 ]);

  006af	b8 94 00 00 00	 mov	 eax, 148		; 00000094H
  006b4	6b c8 09	 imul	 ecx, eax, 9
  006b7	ba 24 00 00 00	 mov	 edx, 36			; 00000024H
  006bc	6b c2 00	 imul	 eax, edx, 0
  006bf	8d 8c 01 04 00
	00 00		 lea	 ecx, DWORD PTR ?meta_smoke_list_database@@3PAUMETA_SMOKE_LIST_DATA@@A[ecx+eax+4]
  006c6	89 4d fc	 mov	 DWORD PTR _smoke_list_info$[ebp], ecx

; 1284 : 
; 1285 : 	smoke_list_info->type 						=	SMOKE_LIST_TRAILS;

  006c9	8b 45 fc	 mov	 eax, DWORD PTR _smoke_list_info$[ebp]
  006cc	c7 00 02 00 00
	00		 mov	 DWORD PTR [eax], 2

; 1286 : 
; 1287 : 	smoke_list_info->trail_type	 			=	SMOKE_LIST_TYPE_FRONT_SHIP_WAKE;

  006d2	8b 45 fc	 mov	 eax, DWORD PTR _smoke_list_info$[ebp]
  006d5	c7 40 08 0e 00
	00 00		 mov	 DWORD PTR [eax+8], 14	; 0000000eH

; 1288 : 
; 1289 : 	smoke_list_info->entity_sub_type			=	ENTITY_SUB_TYPE_EFFECT_SMOKE_LIST_VEHICLE_WAKE;

  006dc	8b 45 fc	 mov	 eax, DWORD PTR _smoke_list_info$[ebp]
  006df	c7 40 0c 09 00
	00 00		 mov	 DWORD PTR [eax+12], 9

; 1290 : 
; 1291 : 	smoke_list_info->trail_count	 			=	1;

  006e6	8b 45 fc	 mov	 eax, DWORD PTR _smoke_list_info$[ebp]
  006e9	c7 40 04 01 00
	00 00		 mov	 DWORD PTR [eax+4], 1

; 1292 : 
; 1293 : 	smoke_list_info->infinite 					=	TRUE;

  006f0	8b 45 fc	 mov	 eax, DWORD PTR _smoke_list_info$[ebp]
  006f3	c7 40 10 01 00
	00 00		 mov	 DWORD PTR [eax+16], 1

; 1294 : 
; 1295 : 	smoke_list_info->generator_lifetime 	=	INFINITE_SMOKE_OFF;

  006fa	8b 45 fc	 mov	 eax, DWORD PTR _smoke_list_info$[ebp]
  006fd	0f 57 c0	 xorps	 xmm0, xmm0
  00700	f3 0f 11 40 14	 movss	 DWORD PTR [eax+20], xmm0

; 1296 : 	smoke_list_info->frequency 				=	1.0;

  00705	8b 45 fc	 mov	 eax, DWORD PTR _smoke_list_info$[ebp]
  00708	f3 0f 10 05 00
	00 00 00	 movss	 xmm0, DWORD PTR __real@3f800000
  00710	f3 0f 11 40 18	 movss	 DWORD PTR [eax+24], xmm0

; 1297 : 	smoke_list_info->smoke_lifetime 			=	35.0;

  00715	8b 45 fc	 mov	 eax, DWORD PTR _smoke_list_info$[ebp]
  00718	f3 0f 10 05 00
	00 00 00	 movss	 xmm0, DWORD PTR __real@420c0000
  00720	f3 0f 11 40 1c	 movss	 DWORD PTR [eax+28], xmm0

; 1298 : 
; 1299 : 	//////////////////////////////////////////////////////////////////////////////////////////////////////////////////////////////
; 1300 : 	//
; 1301 : 	// AIRCRAFT LIGHT DAMAGE
; 1302 : 	//
; 1303 : 	//////////////////////////////////////////////////////////////////////////////////////////////////////////////////////////////
; 1304 : 
; 1305 : 	meta_smoke_list_database[ META_SMOKE_LIST_TYPE_AIRCRAFT_LIGHT_DAMAGE ].number_of_components = 1;

  00725	b8 94 00 00 00	 mov	 eax, 148		; 00000094H
  0072a	6b c8 0a	 imul	 ecx, eax, 10
  0072d	c7 81 00 00 00
	00 01 00 00 00	 mov	 DWORD PTR ?meta_smoke_list_database@@3PAUMETA_SMOKE_LIST_DATA@@A[ecx], 1

; 1306 : 
; 1307 : 	//
; 1308 : 	// component 0
; 1309 : 	//
; 1310 : 
; 1311 : 	smoke_list_info = &(meta_smoke_list_database[ META_SMOKE_LIST_TYPE_AIRCRAFT_LIGHT_DAMAGE ].component[ 0 ]);

  00737	b8 94 00 00 00	 mov	 eax, 148		; 00000094H
  0073c	6b c8 0a	 imul	 ecx, eax, 10
  0073f	ba 24 00 00 00	 mov	 edx, 36			; 00000024H
  00744	6b c2 00	 imul	 eax, edx, 0
  00747	8d 8c 01 04 00
	00 00		 lea	 ecx, DWORD PTR ?meta_smoke_list_database@@3PAUMETA_SMOKE_LIST_DATA@@A[ecx+eax+4]
  0074e	89 4d fc	 mov	 DWORD PTR _smoke_list_info$[ebp], ecx

; 1312 : 
; 1313 : 	smoke_list_info->type 						=	SMOKE_LIST_TRAILS;

  00751	8b 45 fc	 mov	 eax, DWORD PTR _smoke_list_info$[ebp]
  00754	c7 00 02 00 00
	00		 mov	 DWORD PTR [eax], 2

; 1314 : 
; 1315 : 	smoke_list_info->trail_type	 			=	SMOKE_LIST_TYPE_AIRCRAFT_LIGHT_DAMAGE_TRAIL;

  0075a	8b 45 fc	 mov	 eax, DWORD PTR _smoke_list_info$[ebp]
  0075d	c7 40 08 0f 00
	00 00		 mov	 DWORD PTR [eax+8], 15	; 0000000fH

; 1316 : 
; 1317 : 	smoke_list_info->entity_sub_type			=	ENTITY_SUB_TYPE_EFFECT_SMOKE_LIST_LIGHT_DAMAGE;

  00764	8b 45 fc	 mov	 eax, DWORD PTR _smoke_list_info$[ebp]
  00767	c7 40 0c 05 00
	00 00		 mov	 DWORD PTR [eax+12], 5

; 1318 : 
; 1319 : 	smoke_list_info->trail_count	 			=	1;

  0076e	8b 45 fc	 mov	 eax, DWORD PTR _smoke_list_info$[ebp]
  00771	c7 40 04 01 00
	00 00		 mov	 DWORD PTR [eax+4], 1

; 1320 : 
; 1321 : 	smoke_list_info->infinite 					=	TRUE;

  00778	8b 45 fc	 mov	 eax, DWORD PTR _smoke_list_info$[ebp]
  0077b	c7 40 10 01 00
	00 00		 mov	 DWORD PTR [eax+16], 1

; 1322 : 
; 1323 : 	smoke_list_info->generator_lifetime 	=	INFINITE_SMOKE_OFF;

  00782	8b 45 fc	 mov	 eax, DWORD PTR _smoke_list_info$[ebp]
  00785	0f 57 c0	 xorps	 xmm0, xmm0
  00788	f3 0f 11 40 14	 movss	 DWORD PTR [eax+20], xmm0

; 1324 : 	smoke_list_info->frequency 				=	0.06;

  0078d	8b 45 fc	 mov	 eax, DWORD PTR _smoke_list_info$[ebp]
  00790	f3 0f 10 05 00
	00 00 00	 movss	 xmm0, DWORD PTR __real@3d75c28f
  00798	f3 0f 11 40 18	 movss	 DWORD PTR [eax+24], xmm0

; 1325 : 	smoke_list_info->smoke_lifetime 			=	2.0;

  0079d	8b 45 fc	 mov	 eax, DWORD PTR _smoke_list_info$[ebp]
  007a0	f3 0f 10 05 00
	00 00 00	 movss	 xmm0, DWORD PTR __real@40000000
  007a8	f3 0f 11 40 1c	 movss	 DWORD PTR [eax+28], xmm0

; 1326 : 
; 1327 : 	//////////////////////////////////////////////////////////////////////////////////////////////////////////////////////////////
; 1328 : 	//
; 1329 : 	// AIRCRAFT MEDIUM DAMAGE
; 1330 : 	//
; 1331 : 	//////////////////////////////////////////////////////////////////////////////////////////////////////////////////////////////
; 1332 : 
; 1333 : 	meta_smoke_list_database[ META_SMOKE_LIST_TYPE_AIRCRAFT_MEDIUM_DAMAGE ].number_of_components = 1;

  007ad	b8 94 00 00 00	 mov	 eax, 148		; 00000094H
  007b2	6b c8 0b	 imul	 ecx, eax, 11
  007b5	c7 81 00 00 00
	00 01 00 00 00	 mov	 DWORD PTR ?meta_smoke_list_database@@3PAUMETA_SMOKE_LIST_DATA@@A[ecx], 1

; 1334 : 
; 1335 : 	//
; 1336 : 	// component 0
; 1337 : 	//
; 1338 : 
; 1339 : 	smoke_list_info = &(meta_smoke_list_database[ META_SMOKE_LIST_TYPE_AIRCRAFT_MEDIUM_DAMAGE ].component[ 0 ]);

  007bf	b8 94 00 00 00	 mov	 eax, 148		; 00000094H
  007c4	6b c8 0b	 imul	 ecx, eax, 11
  007c7	ba 24 00 00 00	 mov	 edx, 36			; 00000024H
  007cc	6b c2 00	 imul	 eax, edx, 0
  007cf	8d 8c 01 04 00
	00 00		 lea	 ecx, DWORD PTR ?meta_smoke_list_database@@3PAUMETA_SMOKE_LIST_DATA@@A[ecx+eax+4]
  007d6	89 4d fc	 mov	 DWORD PTR _smoke_list_info$[ebp], ecx

; 1340 : 
; 1341 : 	smoke_list_info->type 						=	SMOKE_LIST_TRAILS;

  007d9	8b 45 fc	 mov	 eax, DWORD PTR _smoke_list_info$[ebp]
  007dc	c7 00 02 00 00
	00		 mov	 DWORD PTR [eax], 2

; 1342 : 
; 1343 : 	smoke_list_info->trail_type	 			=	SMOKE_LIST_TYPE_AIRCRAFT_MEDIUM_DAMAGE_TRAIL;

  007e2	8b 45 fc	 mov	 eax, DWORD PTR _smoke_list_info$[ebp]
  007e5	c7 40 08 10 00
	00 00		 mov	 DWORD PTR [eax+8], 16	; 00000010H

; 1344 : 
; 1345 : 	smoke_list_info->entity_sub_type			=	ENTITY_SUB_TYPE_EFFECT_SMOKE_LIST_MEDIUM_DAMAGE;

  007ec	8b 45 fc	 mov	 eax, DWORD PTR _smoke_list_info$[ebp]
  007ef	c7 40 0c 06 00
	00 00		 mov	 DWORD PTR [eax+12], 6

; 1346 : 
; 1347 : 	smoke_list_info->trail_count	 			=	1;

  007f6	8b 45 fc	 mov	 eax, DWORD PTR _smoke_list_info$[ebp]
  007f9	c7 40 04 01 00
	00 00		 mov	 DWORD PTR [eax+4], 1

; 1348 : 
; 1349 : 	smoke_list_info->infinite 					=	TRUE;

  00800	8b 45 fc	 mov	 eax, DWORD PTR _smoke_list_info$[ebp]
  00803	c7 40 10 01 00
	00 00		 mov	 DWORD PTR [eax+16], 1

; 1350 : 
; 1351 : 	smoke_list_info->generator_lifetime 	=	INFINITE_SMOKE_OFF;

  0080a	8b 45 fc	 mov	 eax, DWORD PTR _smoke_list_info$[ebp]
  0080d	0f 57 c0	 xorps	 xmm0, xmm0
  00810	f3 0f 11 40 14	 movss	 DWORD PTR [eax+20], xmm0

; 1352 : 	smoke_list_info->frequency 				=	0.06;

  00815	8b 45 fc	 mov	 eax, DWORD PTR _smoke_list_info$[ebp]
  00818	f3 0f 10 05 00
	00 00 00	 movss	 xmm0, DWORD PTR __real@3d75c28f
  00820	f3 0f 11 40 18	 movss	 DWORD PTR [eax+24], xmm0

; 1353 : 	smoke_list_info->smoke_lifetime 			=	2.0;

  00825	8b 45 fc	 mov	 eax, DWORD PTR _smoke_list_info$[ebp]
  00828	f3 0f 10 05 00
	00 00 00	 movss	 xmm0, DWORD PTR __real@40000000
  00830	f3 0f 11 40 1c	 movss	 DWORD PTR [eax+28], xmm0

; 1354 : 
; 1355 : 	//////////////////////////////////////////////////////////////////////////////////////////////////////////////////////////////
; 1356 : 	//
; 1357 : 	// AIRCRAFT HEAVY DAMAGE
; 1358 : 	//
; 1359 : 	//////////////////////////////////////////////////////////////////////////////////////////////////////////////////////////////
; 1360 : 
; 1361 : 	meta_smoke_list_database[ META_SMOKE_LIST_TYPE_AIRCRAFT_HEAVY_DAMAGE ].number_of_components = 2;

  00835	b8 94 00 00 00	 mov	 eax, 148		; 00000094H
  0083a	6b c8 0c	 imul	 ecx, eax, 12
  0083d	c7 81 00 00 00
	00 02 00 00 00	 mov	 DWORD PTR ?meta_smoke_list_database@@3PAUMETA_SMOKE_LIST_DATA@@A[ecx], 2

; 1362 : 
; 1363 : 	//
; 1364 : 	// component 0
; 1365 : 	//
; 1366 : 
; 1367 : 	smoke_list_info = &(meta_smoke_list_database[ META_SMOKE_LIST_TYPE_AIRCRAFT_HEAVY_DAMAGE ].component[ 0 ]);

  00847	b8 94 00 00 00	 mov	 eax, 148		; 00000094H
  0084c	6b c8 0c	 imul	 ecx, eax, 12
  0084f	ba 24 00 00 00	 mov	 edx, 36			; 00000024H
  00854	6b c2 00	 imul	 eax, edx, 0
  00857	8d 8c 01 04 00
	00 00		 lea	 ecx, DWORD PTR ?meta_smoke_list_database@@3PAUMETA_SMOKE_LIST_DATA@@A[ecx+eax+4]
  0085e	89 4d fc	 mov	 DWORD PTR _smoke_list_info$[ebp], ecx

; 1368 : 
; 1369 : 	smoke_list_info->type 						=	SMOKE_LIST_TRAILS;

  00861	8b 45 fc	 mov	 eax, DWORD PTR _smoke_list_info$[ebp]
  00864	c7 00 02 00 00
	00		 mov	 DWORD PTR [eax], 2

; 1370 : 
; 1371 : 	smoke_list_info->trail_type	 			=	SMOKE_LIST_TYPE_AIRCRAFT_HEAVY_DAMAGE_TRAIL;

  0086a	8b 45 fc	 mov	 eax, DWORD PTR _smoke_list_info$[ebp]
  0086d	c7 40 08 11 00
	00 00		 mov	 DWORD PTR [eax+8], 17	; 00000011H

; 1372 : 
; 1373 : 	smoke_list_info->entity_sub_type			=	ENTITY_SUB_TYPE_EFFECT_SMOKE_LIST_HEAVY_DAMAGE;

  00874	8b 45 fc	 mov	 eax, DWORD PTR _smoke_list_info$[ebp]
  00877	c7 40 0c 08 00
	00 00		 mov	 DWORD PTR [eax+12], 8

; 1374 : 
; 1375 : 	smoke_list_info->trail_count	 			=	1;

  0087e	8b 45 fc	 mov	 eax, DWORD PTR _smoke_list_info$[ebp]
  00881	c7 40 04 01 00
	00 00		 mov	 DWORD PTR [eax+4], 1

; 1376 : 
; 1377 : 	smoke_list_info->infinite 					=	TRUE;

  00888	8b 45 fc	 mov	 eax, DWORD PTR _smoke_list_info$[ebp]
  0088b	c7 40 10 01 00
	00 00		 mov	 DWORD PTR [eax+16], 1

; 1378 : 
; 1379 : 	smoke_list_info->generator_lifetime 	=	INFINITE_SMOKE_OFF;

  00892	8b 45 fc	 mov	 eax, DWORD PTR _smoke_list_info$[ebp]
  00895	0f 57 c0	 xorps	 xmm0, xmm0
  00898	f3 0f 11 40 14	 movss	 DWORD PTR [eax+20], xmm0

; 1380 : 	smoke_list_info->frequency 				=	0.06;

  0089d	8b 45 fc	 mov	 eax, DWORD PTR _smoke_list_info$[ebp]
  008a0	f3 0f 10 05 00
	00 00 00	 movss	 xmm0, DWORD PTR __real@3d75c28f
  008a8	f3 0f 11 40 18	 movss	 DWORD PTR [eax+24], xmm0

; 1381 : 	smoke_list_info->smoke_lifetime 			=	2.5;

  008ad	8b 45 fc	 mov	 eax, DWORD PTR _smoke_list_info$[ebp]
  008b0	f3 0f 10 05 00
	00 00 00	 movss	 xmm0, DWORD PTR __real@40200000
  008b8	f3 0f 11 40 1c	 movss	 DWORD PTR [eax+28], xmm0

; 1382 : 
; 1383 : 	//
; 1384 : 	// component 1
; 1385 : 	//
; 1386 : 
; 1387 : 	smoke_list_info = &(meta_smoke_list_database[ META_SMOKE_LIST_TYPE_AIRCRAFT_HEAVY_DAMAGE ].component[ 1 ]);

  008bd	b8 94 00 00 00	 mov	 eax, 148		; 00000094H
  008c2	6b c8 0c	 imul	 ecx, eax, 12
  008c5	ba 24 00 00 00	 mov	 edx, 36			; 00000024H
  008ca	c1 e2 00	 shl	 edx, 0
  008cd	8d 84 11 04 00
	00 00		 lea	 eax, DWORD PTR ?meta_smoke_list_database@@3PAUMETA_SMOKE_LIST_DATA@@A[ecx+edx+4]
  008d4	89 45 fc	 mov	 DWORD PTR _smoke_list_info$[ebp], eax

; 1388 : 
; 1389 : 	smoke_list_info->type 						=	SMOKE_LIST_TRAILS;

  008d7	8b 45 fc	 mov	 eax, DWORD PTR _smoke_list_info$[ebp]
  008da	c7 00 02 00 00
	00		 mov	 DWORD PTR [eax], 2

; 1390 : 
; 1391 : 	smoke_list_info->trail_type	 			=	SMOKE_LIST_TYPE_AIRCRAFT_ADDITIVE_DAMAGE_TRAIL;

  008e0	8b 45 fc	 mov	 eax, DWORD PTR _smoke_list_info$[ebp]
  008e3	c7 40 08 12 00
	00 00		 mov	 DWORD PTR [eax+8], 18	; 00000012H

; 1392 : 
; 1393 : 	smoke_list_info->entity_sub_type			=	ENTITY_SUB_TYPE_EFFECT_SMOKE_LIST_HEAVY_DAMAGE;

  008ea	8b 45 fc	 mov	 eax, DWORD PTR _smoke_list_info$[ebp]
  008ed	c7 40 0c 08 00
	00 00		 mov	 DWORD PTR [eax+12], 8

; 1394 : 
; 1395 : 	smoke_list_info->trail_count	 			=	1;

  008f4	8b 45 fc	 mov	 eax, DWORD PTR _smoke_list_info$[ebp]
  008f7	c7 40 04 01 00
	00 00		 mov	 DWORD PTR [eax+4], 1

; 1396 : 
; 1397 : 	smoke_list_info->infinite 					=	TRUE;

  008fe	8b 45 fc	 mov	 eax, DWORD PTR _smoke_list_info$[ebp]
  00901	c7 40 10 01 00
	00 00		 mov	 DWORD PTR [eax+16], 1

; 1398 : 
; 1399 : 	smoke_list_info->generator_lifetime 	=	INFINITE_SMOKE_OFF;

  00908	8b 45 fc	 mov	 eax, DWORD PTR _smoke_list_info$[ebp]
  0090b	0f 57 c0	 xorps	 xmm0, xmm0
  0090e	f3 0f 11 40 14	 movss	 DWORD PTR [eax+20], xmm0

; 1400 : 	smoke_list_info->frequency 				=	0.05;

  00913	8b 45 fc	 mov	 eax, DWORD PTR _smoke_list_info$[ebp]
  00916	f3 0f 10 05 00
	00 00 00	 movss	 xmm0, DWORD PTR __real@3d4ccccd
  0091e	f3 0f 11 40 18	 movss	 DWORD PTR [eax+24], xmm0

; 1401 : 	smoke_list_info->smoke_lifetime 			=	0.55;

  00923	8b 45 fc	 mov	 eax, DWORD PTR _smoke_list_info$[ebp]
  00926	f3 0f 10 05 00
	00 00 00	 movss	 xmm0, DWORD PTR __real@3f0ccccd
  0092e	f3 0f 11 40 1c	 movss	 DWORD PTR [eax+28], xmm0

; 1402 : 
; 1403 : 	//////////////////////////////////////////////////////////////////////////////////////////////////////////////////////////////
; 1404 : 	//
; 1405 : 	// AIRCRAFT_SMALL_TOUCHDOWN_TRAIL
; 1406 : 	//
; 1407 : 	//////////////////////////////////////////////////////////////////////////////////////////////////////////////////////////////
; 1408 : 
; 1409 : 	meta_smoke_list_database[ META_SMOKE_LIST_TYPE_AIRCRAFT_SMALL_TOUCHDOWN_TRAIL ].number_of_components = 1;

  00933	b8 94 00 00 00	 mov	 eax, 148		; 00000094H
  00938	6b c8 0d	 imul	 ecx, eax, 13
  0093b	c7 81 00 00 00
	00 01 00 00 00	 mov	 DWORD PTR ?meta_smoke_list_database@@3PAUMETA_SMOKE_LIST_DATA@@A[ecx], 1

; 1410 : 
; 1411 : 	//
; 1412 : 	// component 0
; 1413 : 	//
; 1414 : 
; 1415 : 	smoke_list_info = &(meta_smoke_list_database[ META_SMOKE_LIST_TYPE_AIRCRAFT_SMALL_TOUCHDOWN_TRAIL ].component[ 0 ]);

  00945	b8 94 00 00 00	 mov	 eax, 148		; 00000094H
  0094a	6b c8 0d	 imul	 ecx, eax, 13
  0094d	ba 24 00 00 00	 mov	 edx, 36			; 00000024H
  00952	6b c2 00	 imul	 eax, edx, 0
  00955	8d 8c 01 04 00
	00 00		 lea	 ecx, DWORD PTR ?meta_smoke_list_database@@3PAUMETA_SMOKE_LIST_DATA@@A[ecx+eax+4]
  0095c	89 4d fc	 mov	 DWORD PTR _smoke_list_info$[ebp], ecx

; 1416 : 
; 1417 : 	smoke_list_info->type 						=	SMOKE_LIST_TRAILS;

  0095f	8b 45 fc	 mov	 eax, DWORD PTR _smoke_list_info$[ebp]
  00962	c7 00 02 00 00
	00		 mov	 DWORD PTR [eax], 2

; 1418 : 
; 1419 : 	smoke_list_info->trail_type	 			=	SMOKE_LIST_TYPE_AIRCRAFT_SMALL_TOUCHDOWN_TRAIL;

  00968	8b 45 fc	 mov	 eax, DWORD PTR _smoke_list_info$[ebp]
  0096b	c7 40 08 13 00
	00 00		 mov	 DWORD PTR [eax+8], 19	; 00000013H

; 1420 : 
; 1421 : 	smoke_list_info->entity_sub_type			=	ENTITY_SUB_TYPE_EFFECT_SMOKE_LIST_FIRE;

  00972	8b 45 fc	 mov	 eax, DWORD PTR _smoke_list_info$[ebp]
  00975	c7 40 0c 04 00
	00 00		 mov	 DWORD PTR [eax+12], 4

; 1422 : 
; 1423 : 	smoke_list_info->trail_count	 			=	1;

  0097c	8b 45 fc	 mov	 eax, DWORD PTR _smoke_list_info$[ebp]
  0097f	c7 40 04 01 00
	00 00		 mov	 DWORD PTR [eax+4], 1

; 1424 : 
; 1425 : 	smoke_list_info->infinite 					=	FALSE;

  00986	8b 45 fc	 mov	 eax, DWORD PTR _smoke_list_info$[ebp]
  00989	c7 40 10 00 00
	00 00		 mov	 DWORD PTR [eax+16], 0

; 1426 : 
; 1427 : 	smoke_list_info->generator_lifetime 	=	1.0;

  00990	8b 45 fc	 mov	 eax, DWORD PTR _smoke_list_info$[ebp]
  00993	f3 0f 10 05 00
	00 00 00	 movss	 xmm0, DWORD PTR __real@3f800000
  0099b	f3 0f 11 40 14	 movss	 DWORD PTR [eax+20], xmm0

; 1428 : 	smoke_list_info->frequency 				=	0.02;

  009a0	8b 45 fc	 mov	 eax, DWORD PTR _smoke_list_info$[ebp]
  009a3	f3 0f 10 05 00
	00 00 00	 movss	 xmm0, DWORD PTR __real@3ca3d70a
  009ab	f3 0f 11 40 18	 movss	 DWORD PTR [eax+24], xmm0

; 1429 : 	smoke_list_info->smoke_lifetime 			=	2.5;

  009b0	8b 45 fc	 mov	 eax, DWORD PTR _smoke_list_info$[ebp]
  009b3	f3 0f 10 05 00
	00 00 00	 movss	 xmm0, DWORD PTR __real@40200000
  009bb	f3 0f 11 40 1c	 movss	 DWORD PTR [eax+28], xmm0

; 1430 : 
; 1431 : 	//////////////////////////////////////////////////////////////////////////////////////////////////////////////////////////////
; 1432 : 	//
; 1433 : 	// AIRCRAFT_LARGE_TOUCHDOWN_TRAIL
; 1434 : 	//
; 1435 : 	//////////////////////////////////////////////////////////////////////////////////////////////////////////////////////////////
; 1436 : 
; 1437 : 	meta_smoke_list_database[ META_SMOKE_LIST_TYPE_AIRCRAFT_LARGE_TOUCHDOWN_TRAIL ].number_of_components = 1;

  009c0	b8 94 00 00 00	 mov	 eax, 148		; 00000094H
  009c5	6b c8 0e	 imul	 ecx, eax, 14
  009c8	c7 81 00 00 00
	00 01 00 00 00	 mov	 DWORD PTR ?meta_smoke_list_database@@3PAUMETA_SMOKE_LIST_DATA@@A[ecx], 1

; 1438 : 
; 1439 : 	//
; 1440 : 	// component 0
; 1441 : 	//
; 1442 : 
; 1443 : 	smoke_list_info = &(meta_smoke_list_database[ META_SMOKE_LIST_TYPE_AIRCRAFT_LARGE_TOUCHDOWN_TRAIL ].component[ 0 ]);

  009d2	b8 94 00 00 00	 mov	 eax, 148		; 00000094H
  009d7	6b c8 0e	 imul	 ecx, eax, 14
  009da	ba 24 00 00 00	 mov	 edx, 36			; 00000024H
  009df	6b c2 00	 imul	 eax, edx, 0
  009e2	8d 8c 01 04 00
	00 00		 lea	 ecx, DWORD PTR ?meta_smoke_list_database@@3PAUMETA_SMOKE_LIST_DATA@@A[ecx+eax+4]
  009e9	89 4d fc	 mov	 DWORD PTR _smoke_list_info$[ebp], ecx

; 1444 : 
; 1445 : 	smoke_list_info->type 						=	SMOKE_LIST_TRAILS;

  009ec	8b 45 fc	 mov	 eax, DWORD PTR _smoke_list_info$[ebp]
  009ef	c7 00 02 00 00
	00		 mov	 DWORD PTR [eax], 2

; 1446 : 
; 1447 : 	smoke_list_info->trail_type	 			=	SMOKE_LIST_TYPE_AIRCRAFT_LARGE_TOUCHDOWN_TRAIL;

  009f5	8b 45 fc	 mov	 eax, DWORD PTR _smoke_list_info$[ebp]
  009f8	c7 40 08 14 00
	00 00		 mov	 DWORD PTR [eax+8], 20	; 00000014H

; 1448 : 
; 1449 : 	smoke_list_info->entity_sub_type			=	ENTITY_SUB_TYPE_EFFECT_SMOKE_LIST_FIRE;

  009ff	8b 45 fc	 mov	 eax, DWORD PTR _smoke_list_info$[ebp]
  00a02	c7 40 0c 04 00
	00 00		 mov	 DWORD PTR [eax+12], 4

; 1450 : 
; 1451 : 	smoke_list_info->trail_count	 			=	1;

  00a09	8b 45 fc	 mov	 eax, DWORD PTR _smoke_list_info$[ebp]
  00a0c	c7 40 04 01 00
	00 00		 mov	 DWORD PTR [eax+4], 1

; 1452 : 
; 1453 : 	smoke_list_info->infinite 					=	FALSE;

  00a13	8b 45 fc	 mov	 eax, DWORD PTR _smoke_list_info$[ebp]
  00a16	c7 40 10 00 00
	00 00		 mov	 DWORD PTR [eax+16], 0

; 1454 : 
; 1455 : 	smoke_list_info->generator_lifetime 	=	1.0;

  00a1d	8b 45 fc	 mov	 eax, DWORD PTR _smoke_list_info$[ebp]
  00a20	f3 0f 10 05 00
	00 00 00	 movss	 xmm0, DWORD PTR __real@3f800000
  00a28	f3 0f 11 40 14	 movss	 DWORD PTR [eax+20], xmm0

; 1456 : 	smoke_list_info->frequency 				=	0.04;

  00a2d	8b 45 fc	 mov	 eax, DWORD PTR _smoke_list_info$[ebp]
  00a30	f3 0f 10 05 00
	00 00 00	 movss	 xmm0, DWORD PTR __real@3d23d70a
  00a38	f3 0f 11 40 18	 movss	 DWORD PTR [eax+24], xmm0

; 1457 : 	smoke_list_info->smoke_lifetime 			=	4.5;

  00a3d	8b 45 fc	 mov	 eax, DWORD PTR _smoke_list_info$[ebp]
  00a40	f3 0f 10 05 00
	00 00 00	 movss	 xmm0, DWORD PTR __real@40900000
  00a48	f3 0f 11 40 1c	 movss	 DWORD PTR [eax+28], xmm0

; 1458 : 
; 1459 : 	// 23OCT11 Casm Meta Smoke database import/export
; 1460 : 	if (file_exist (META_SMOKE_LIST_DATABASE_FILENAME))

  00a4d	68 00 00 00 00	 push	 OFFSET ??_C@_0N@EACFBDEN@METASMOK?4CSV@
  00a52	e8 00 00 00 00	 call	 ?file_exist@@YGHPBD@Z	; file_exist
  00a57	85 c0		 test	 eax, eax
  00a59	74 07		 je	 SHORT $LN2@initialise

; 1461 : 	{
; 1462 : 		import_meta_smoke_list_database ();

  00a5b	e8 00 00 00 00	 call	 ?import_meta_smoke_list_database@@YGXXZ ; import_meta_smoke_list_database

; 1463 : 	}
; 1464 : 	else

  00a60	eb 05		 jmp	 SHORT $LN3@initialise
$LN2@initialise:

; 1465 : 	{
; 1466 : 		export_meta_smoke_list_database ();

  00a62	e8 00 00 00 00	 call	 ?export_meta_smoke_list_database@@YGXXZ ; export_meta_smoke_list_database
$LN3@initialise:

; 1467 : 	}
; 1468 : }

  00a67	5f		 pop	 edi
  00a68	5e		 pop	 esi
  00a69	5b		 pop	 ebx
  00a6a	8b e5		 mov	 esp, ebp
  00a6c	5d		 pop	 ebp
  00a6d	c3		 ret	 0
?initialise_meta_smoke_list_database@@YGXXZ ENDP	; initialise_meta_smoke_list_database
_TEXT	ENDS
; Function compile flags: /Odtp /ZI
; File c:\users\nhv90\projects\eech\aphavoc\source\entity\special\effect\smokelst\sl_meta.c
;	COMDAT ?count_entities_in_meta_smoke_list@@YGHW4META_SMOKE_LIST_TYPES@@@Z
_TEXT	SEGMENT
tv85 = -84						; size = 4
_smoke_list_component$ = -16				; size = 4
_num_components$ = -12					; size = 4
_index_counter$ = -8					; size = 4
_comp$ = -4						; size = 4
_type$ = 8						; size = 4
?count_entities_in_meta_smoke_list@@YGHW4META_SMOKE_LIST_TYPES@@@Z PROC ; count_entities_in_meta_smoke_list, COMDAT

; 630  : {

  00000	55		 push	 ebp
  00001	8b ec		 mov	 ebp, esp
  00003	83 ec 54	 sub	 esp, 84			; 00000054H
  00006	53		 push	 ebx
  00007	56		 push	 esi
  00008	57		 push	 edi

; 631  : 	int
; 632  : 		comp,
; 633  : 		index_counter,
; 634  : 		num_components;
; 635  : 
; 636  : 	meta_smoke_list_component
; 637  : 		*smoke_list_component;
; 638  : 
; 639  : 
; 640  : 	ASSERT (type > META_SMOKE_LIST_TYPE_NONE);

  00009	83 7d 08 00	 cmp	 DWORD PTR _type$[ebp], 0
  0000d	7f 18		 jg	 SHORT $LN7@count_enti
  0000f	a1 00 00 00 00	 mov	 eax, DWORD PTR ?__LINE__Var@?0??count_entities_in_meta_smoke_list@@YGHW4META_SMOKE_LIST_TYPES@@@Z@4JA
  00014	83 c0 0a	 add	 eax, 10			; 0000000aH
  00017	50		 push	 eax
  00018	68 00 00 00 00	 push	 OFFSET ??_C@_0FF@KGHFBLGA@c?3?2users?2nhv90?2projects?2eech?2ap@
  0001d	68 00 00 00 00	 push	 OFFSET ??_C@_0CB@KJIIBBKN@type?5?$DO?5META_SMOKE_LIST_TYPE_NON@
  00022	e8 00 00 00 00	 call	 ?process_assert@@YGXPBD0H@Z ; process_assert
$LN7@count_enti:

; 641  : 
; 642  : 	ASSERT (type < NUM_META_SMOKE_LIST_TYPES );

  00027	83 7d 08 0f	 cmp	 DWORD PTR _type$[ebp], 15 ; 0000000fH
  0002b	7c 18		 jl	 SHORT $LN8@count_enti
  0002d	a1 00 00 00 00	 mov	 eax, DWORD PTR ?__LINE__Var@?0??count_entities_in_meta_smoke_list@@YGHW4META_SMOKE_LIST_TYPES@@@Z@4JA
  00032	83 c0 0c	 add	 eax, 12			; 0000000cH
  00035	50		 push	 eax
  00036	68 00 00 00 00	 push	 OFFSET ??_C@_0FF@KGHFBLGA@c?3?2users?2nhv90?2projects?2eech?2ap@
  0003b	68 00 00 00 00	 push	 OFFSET ??_C@_0CB@IACMPAIK@type?5?$DM?5NUM_META_SMOKE_LIST_TYPE@
  00040	e8 00 00 00 00	 call	 ?process_assert@@YGXPBD0H@Z ; process_assert
$LN8@count_enti:

; 643  : 
; 644  : 	index_counter = 0;

  00045	c7 45 f8 00 00
	00 00		 mov	 DWORD PTR _index_counter$[ebp], 0

; 645  : 
; 646  : 	num_components = meta_smoke_list_database[ type ].number_of_components;

  0004c	69 45 08 94 00
	00 00		 imul	 eax, DWORD PTR _type$[ebp], 148
  00053	8b 88 00 00 00
	00		 mov	 ecx, DWORD PTR ?meta_smoke_list_database@@3PAUMETA_SMOKE_LIST_DATA@@A[eax]
  00059	89 4d f4	 mov	 DWORD PTR _num_components$[ebp], ecx

; 647  : 
; 648  : 	for ( comp = 0 ; comp < num_components ; comp ++ )

  0005c	c7 45 fc 00 00
	00 00		 mov	 DWORD PTR _comp$[ebp], 0
  00063	eb 09		 jmp	 SHORT $LN4@count_enti
$LN2@count_enti:
  00065	8b 45 fc	 mov	 eax, DWORD PTR _comp$[ebp]
  00068	83 c0 01	 add	 eax, 1
  0006b	89 45 fc	 mov	 DWORD PTR _comp$[ebp], eax
$LN4@count_enti:
  0006e	8b 45 fc	 mov	 eax, DWORD PTR _comp$[ebp]
  00071	3b 45 f4	 cmp	 eax, DWORD PTR _num_components$[ebp]
  00074	7d 64		 jge	 SHORT $LN3@count_enti

; 649  : 	{
; 650  : 
; 651  : 		smoke_list_component = &(meta_smoke_list_database[ type ].component[ comp ]);

  00076	69 45 08 94 00
	00 00		 imul	 eax, DWORD PTR _type$[ebp], 148
  0007d	6b 4d fc 24	 imul	 ecx, DWORD PTR _comp$[ebp], 36
  00081	8d 94 08 04 00
	00 00		 lea	 edx, DWORD PTR ?meta_smoke_list_database@@3PAUMETA_SMOKE_LIST_DATA@@A[eax+ecx+4]
  00088	89 55 f0	 mov	 DWORD PTR _smoke_list_component$[ebp], edx

; 652  : 
; 653  : 		switch ( smoke_list_component->type )

  0008b	8b 45 f0	 mov	 eax, DWORD PTR _smoke_list_component$[ebp]
  0008e	8b 08		 mov	 ecx, DWORD PTR [eax]
  00090	89 4d ac	 mov	 DWORD PTR tv85[ebp], ecx
  00093	83 7d ac 00	 cmp	 DWORD PTR tv85[ebp], 0
  00097	74 0e		 je	 SHORT $LN9@count_enti
  00099	83 7d ac 01	 cmp	 DWORD PTR tv85[ebp], 1
  0009d	74 0a		 je	 SHORT $LN10@count_enti
  0009f	83 7d ac 02	 cmp	 DWORD PTR tv85[ebp], 2
  000a3	74 12		 je	 SHORT $LN11@count_enti
  000a5	eb 1e		 jmp	 SHORT $LN12@count_enti
$LN9@count_enti:

; 654  : 		{
; 655  : 			case SMOKE_LIST_NONE:
; 656  : 			{
; 657  : 				break;

  000a7	eb 2f		 jmp	 SHORT $LN5@count_enti
$LN10@count_enti:

; 658  : 			}
; 659  : 			case SMOKE_LIST_SPRITES:
; 660  : 			{
; 661  : 				index_counter += smoke_list_component->sprite_count;

  000a9	8b 45 f0	 mov	 eax, DWORD PTR _smoke_list_component$[ebp]
  000ac	8b 4d f8	 mov	 ecx, DWORD PTR _index_counter$[ebp]
  000af	03 48 08	 add	 ecx, DWORD PTR [eax+8]
  000b2	89 4d f8	 mov	 DWORD PTR _index_counter$[ebp], ecx

; 662  : 
; 663  : 				break;

  000b5	eb 21		 jmp	 SHORT $LN5@count_enti
$LN11@count_enti:

; 664  : 			}
; 665  : 			case SMOKE_LIST_TRAILS:
; 666  : 			{
; 667  : 				index_counter += smoke_list_component->trail_count;

  000b7	8b 45 f0	 mov	 eax, DWORD PTR _smoke_list_component$[ebp]
  000ba	8b 4d f8	 mov	 ecx, DWORD PTR _index_counter$[ebp]
  000bd	03 48 04	 add	 ecx, DWORD PTR [eax+4]
  000c0	89 4d f8	 mov	 DWORD PTR _index_counter$[ebp], ecx

; 668  : 
; 669  : 				break;

  000c3	eb 13		 jmp	 SHORT $LN5@count_enti
$LN12@count_enti:

; 670  : 			}
; 671  : 			default:
; 672  : 			{
; 673  : 				debug_fatal("META SMOKE LIST : Unknown component type %d", smoke_list_component->type );

  000c5	8b 45 f0	 mov	 eax, DWORD PTR _smoke_list_component$[ebp]
  000c8	8b 08		 mov	 ecx, DWORD PTR [eax]
  000ca	51		 push	 ecx
  000cb	68 00 00 00 00	 push	 OFFSET ??_C@_0CM@KHDNCPIE@META?5SMOKE?5LIST?5?3?5Unknown?5compo@
  000d0	e8 00 00 00 00	 call	 ?debug_fatal@@YAXPBDZZ	; debug_fatal
  000d5	83 c4 08	 add	 esp, 8
$LN5@count_enti:

; 674  : 			}
; 675  : 		}
; 676  : 	}

  000d8	eb 8b		 jmp	 SHORT $LN2@count_enti
$LN3@count_enti:

; 677  : 
; 678  : 	return index_counter;

  000da	8b 45 f8	 mov	 eax, DWORD PTR _index_counter$[ebp]

; 679  : }

  000dd	5f		 pop	 edi
  000de	5e		 pop	 esi
  000df	5b		 pop	 ebx
  000e0	8b e5		 mov	 esp, ebp
  000e2	5d		 pop	 ebp
  000e3	c2 04 00	 ret	 4
?count_entities_in_meta_smoke_list@@YGHW4META_SMOKE_LIST_TYPES@@@Z ENDP ; count_entities_in_meta_smoke_list
_TEXT	ENDS
; Function compile flags: /Odtp /ZI
; File c:\users\nhv90\projects\eech\aphavoc\source\entity\special\effect\smokelst\sl_meta.c
;	COMDAT ?create_meta_smoke_list_trails@@YGHPAUMETA_SMOKE_LIST_COMPONENT@@PAUENTITY@@PAUVEC3D@@MPAH@Z
_TEXT	SEGMENT
tv236 = -92						; size = 4
tv87 = -92						; size = 4
tv252 = -88						; size = 4
tv228 = -88						; size = 4
tv79 = -88						; size = 4
_raw$1 = -20						; size = 4
_pos$ = -16						; size = 4
_effect_list_parent$ = -12				; size = 4
_new_entity$ = -8					; size = 4
_lifetime$ = -4						; size = 4
_smoke_list_component$ = 8				; size = 4
_parent$ = 12						; size = 4
_relative_position$ = 16				; size = 4
_width_adjustment$ = 20					; size = 4
_entity_index_list$ = 24				; size = 4
?create_meta_smoke_list_trails@@YGHPAUMETA_SMOKE_LIST_COMPONENT@@PAUENTITY@@PAUVEC3D@@MPAH@Z PROC ; create_meta_smoke_list_trails, COMDAT

; 527  : {

  00000	55		 push	 ebp
  00001	8b ec		 mov	 ebp, esp
  00003	83 ec 5c	 sub	 esp, 92			; 0000005cH
  00006	53		 push	 ebx
  00007	56		 push	 esi
  00008	57		 push	 edi

; 528  : 	float
; 529  : 		lifetime = 0.0;

  00009	0f 57 c0	 xorps	 xmm0, xmm0
  0000c	f3 0f 11 45 fc	 movss	 DWORD PTR _lifetime$[ebp], xmm0

; 530  : 
; 531  : 	entity
; 532  : 		*new_entity,
; 533  : 		*effect_list_parent;
; 534  : 
; 535  : 	vec3d
; 536  : 		*pos;
; 537  : 
; 538  : 	if ( smoke_list_component->trail_count < 1 )

  00011	8b 45 08	 mov	 eax, DWORD PTR _smoke_list_component$[ebp]
  00014	83 78 04 01	 cmp	 DWORD PTR [eax+4], 1
  00018	7d 07		 jge	 SHORT $LN2@create_met

; 539  : 	{
; 540  : 		return 0;

  0001a	33 c0		 xor	 eax, eax
  0001c	e9 57 03 00 00	 jmp	 $LN1@create_met
$LN2@create_met:

; 541  : 	}
; 542  : 
; 543  : 	ASSERT (smoke_list_component->trail_count == 1 );

  00021	8b 45 08	 mov	 eax, DWORD PTR _smoke_list_component$[ebp]
  00024	83 78 04 01	 cmp	 DWORD PTR [eax+4], 1
  00028	74 18		 je	 SHORT $LN3@create_met
  0002a	a1 00 00 00 00	 mov	 eax, DWORD PTR ?__LINE__Var@?0??create_meta_smoke_list_trails@@YGHPAUMETA_SMOKE_LIST_COMPONENT@@PAUENTITY@@PAUVEC3D@@MPAH@Z@4JA
  0002f	83 c0 10	 add	 eax, 16			; 00000010H
  00032	50		 push	 eax
  00033	68 00 00 00 00	 push	 OFFSET ??_C@_0FF@KGHFBLGA@c?3?2users?2nhv90?2projects?2eech?2ap@
  00038	68 00 00 00 00	 push	 OFFSET ??_C@_0CH@MFEDIHNN@smoke_list_component?9?$DOtrail_cou@
  0003d	e8 00 00 00 00	 call	 ?process_assert@@YGXPBD0H@Z ; process_assert
$LN3@create_met:

; 544  : 
; 545  : 	//
; 546  : 	// create trail entity
; 547  : 	//
; 548  : 
; 549  : 	if (parent)

  00042	83 7d 0c 00	 cmp	 DWORD PTR _parent$[ebp], 0
  00046	74 7f		 je	 SHORT $LN4@create_met

; 550  : 	{
; 551  : 		pos = get_local_entity_vec3d_ptr( parent, VEC3D_TYPE_POSITION );

  00048	83 7d 0c 00	 cmp	 DWORD PTR _parent$[ebp], 0
  0004c	74 0a		 je	 SHORT $LN14@create_met
  0004e	8b 45 0c	 mov	 eax, DWORD PTR _parent$[ebp]
  00051	8b 08		 mov	 ecx, DWORD PTR [eax]
  00053	89 4d a8	 mov	 DWORD PTR tv79[ebp], ecx
  00056	eb 21		 jmp	 SHORT $LN15@create_met
$LN14@create_met:
  00058	8b 15 00 00 00
	00		 mov	 edx, DWORD PTR ?__LINE__Var@?0??create_meta_smoke_list_trails@@YGHPAUMETA_SMOKE_LIST_COMPONENT@@PAUENTITY@@PAUVEC3D@@MPAH@Z@4JA
  0005e	83 c2 18	 add	 edx, 24			; 00000018H
  00061	52		 push	 edx
  00062	68 00 00 00 00	 push	 OFFSET ??_C@_0FF@KGHFBLGA@c?3?2users?2nhv90?2projects?2eech?2ap@
  00067	a1 00 00 00 00	 mov	 eax, DWORD PTR ?null_entity_pointer_message@@3PBDB ; null_entity_pointer_message
  0006c	50		 push	 eax
  0006d	e8 00 00 00 00	 call	 ?process_assert@@YGXPBD0H@Z ; process_assert
  00072	c7 45 a8 00 00
	00 00		 mov	 DWORD PTR tv79[ebp], 0
$LN15@create_met:
  00079	b9 01 00 00 00	 mov	 ecx, 1
  0007e	85 c9		 test	 ecx, ecx
  00080	74 09		 je	 SHORT $LN16@create_met
  00082	c7 45 a4 08 00
	00 00		 mov	 DWORD PTR tv87[ebp], 8
  00089	eb 21		 jmp	 SHORT $LN17@create_met
$LN16@create_met:
  0008b	8b 15 00 00 00
	00		 mov	 edx, DWORD PTR ?__LINE__Var@?0??create_meta_smoke_list_trails@@YGHPAUMETA_SMOKE_LIST_COMPONENT@@PAUENTITY@@PAUVEC3D@@MPAH@Z@4JA
  00091	83 c2 18	 add	 edx, 24			; 00000018H
  00094	52		 push	 edx
  00095	68 00 00 00 00	 push	 OFFSET ??_C@_0FF@KGHFBLGA@c?3?2users?2nhv90?2projects?2eech?2ap@
  0009a	a1 00 00 00 00	 mov	 eax, DWORD PTR ?overload_invalid_vec3d_type_message@@3PBDB ; overload_invalid_vec3d_type_message
  0009f	50		 push	 eax
  000a0	e8 00 00 00 00	 call	 ?process_assert@@YGXPBD0H@Z ; process_assert
  000a5	c7 45 a4 00 00
	00 00		 mov	 DWORD PTR tv87[ebp], 0
$LN17@create_met:
  000ac	6a 08		 push	 8
  000ae	8b 4d 0c	 mov	 ecx, DWORD PTR _parent$[ebp]
  000b1	51		 push	 ecx
  000b2	6b 55 a8 60	 imul	 edx, DWORD PTR tv79[ebp], 96
  000b6	8b 45 a4	 mov	 eax, DWORD PTR tv87[ebp]
  000b9	8b 8c 82 00 00
	00 00		 mov	 ecx, DWORD PTR ?fn_get_local_entity_vec3d_ptr@@3PAY0BI@P6GPAUVEC3D@@PAUENTITY@@W4VEC3D_TYPES@@@ZA[edx+eax*4]
  000c0	ff d1		 call	 ecx
  000c2	89 45 f0	 mov	 DWORD PTR _pos$[ebp], eax

; 552  : 	}
; 553  : 	else

  000c5	eb 24		 jmp	 SHORT $LN6@create_met
$LN4@create_met:

; 554  : 	{
; 555  : 		//
; 556  : 		// if no parent is specified, the relative position is used as the absolute position
; 557  : 		//
; 558  : 
; 559  : 		pos = relative_position;

  000c7	8b 45 10	 mov	 eax, DWORD PTR _relative_position$[ebp]
  000ca	89 45 f0	 mov	 DWORD PTR _pos$[ebp], eax

; 560  : 
; 561  : 		ASSERT (pos);

  000cd	83 7d f0 00	 cmp	 DWORD PTR _pos$[ebp], 0
  000d1	75 18		 jne	 SHORT $LN6@create_met
  000d3	a1 00 00 00 00	 mov	 eax, DWORD PTR ?__LINE__Var@?0??create_meta_smoke_list_trails@@YGHPAUMETA_SMOKE_LIST_COMPONENT@@PAUENTITY@@PAUVEC3D@@MPAH@Z@4JA
  000d8	83 c0 22	 add	 eax, 34			; 00000022H
  000db	50		 push	 eax
  000dc	68 00 00 00 00	 push	 OFFSET ??_C@_0FF@KGHFBLGA@c?3?2users?2nhv90?2projects?2eech?2ap@
  000e1	68 00 00 00 00	 push	 OFFSET ??_C@_03PCBNCGFH@pos@
  000e6	e8 00 00 00 00	 call	 ?process_assert@@YGXPBD0H@Z ; process_assert
$LN6@create_met:

; 562  : 	}
; 563  : 
; 564  : 	if (width_adjustment != 0.0)

  000eb	f3 0f 5a 45 14	 cvtss2sd xmm0, DWORD PTR _width_adjustment$[ebp]
  000f0	66 0f 2e 05 00
	00 00 00	 ucomisd xmm0, QWORD PTR __real@0000000000000000
  000f8	9f		 lahf
  000f9	f6 c4 44	 test	 ah, 68			; 00000044H
  000fc	7b 1d		 jnp	 SHORT $LN7@create_met

; 565  : 	{
; 566  : 		width_adjustment -= smoke_list_database [smoke_list_component->trail_type].radius_start;

  000fe	8b 45 08	 mov	 eax, DWORD PTR _smoke_list_component$[ebp]
  00101	6b 48 08 44	 imul	 ecx, DWORD PTR [eax+8], 68
  00105	8b 15 00 00 00
	00		 mov	 edx, DWORD PTR ?smoke_list_database@@3PAUSMOKE_LIST_DATA@@A ; smoke_list_database
  0010b	f3 0f 10 45 14	 movss	 xmm0, DWORD PTR _width_adjustment$[ebp]
  00110	f3 0f 5c 44 0a
	04		 subss	 xmm0, DWORD PTR [edx+ecx+4]
  00116	f3 0f 11 45 14	 movss	 DWORD PTR _width_adjustment$[ebp], xmm0
$LN7@create_met:

; 567  : 	}
; 568  : 
; 569  : 	//
; 570  : 	// some smoke lists should not be linked to a parent, even though a parent entity is passed across ( for position ref etc.. )
; 571  : 	//
; 572  : 
; 573  : 	if (smoke_list_database [smoke_list_component->trail_type].lock_to_parent)

  0011b	8b 45 08	 mov	 eax, DWORD PTR _smoke_list_component$[ebp]
  0011e	6b 48 08 44	 imul	 ecx, DWORD PTR [eax+8], 68
  00122	8b 15 00 00 00
	00		 mov	 edx, DWORD PTR ?smoke_list_database@@3PAUSMOKE_LIST_DATA@@A ; smoke_list_database
  00128	66 8b 44 0a 40	 mov	 ax, WORD PTR [edx+ecx+64]
  0012d	66 c1 e8 04	 shr	 ax, 4
  00131	66 83 e0 01	 and	 ax, 1
  00135	0f b7 c8	 movzx	 ecx, ax
  00138	85 c9		 test	 ecx, ecx
  0013a	74 08		 je	 SHORT $LN8@create_met

; 574  : 	{
; 575  : 		effect_list_parent = parent;

  0013c	8b 45 0c	 mov	 eax, DWORD PTR _parent$[ebp]
  0013f	89 45 f4	 mov	 DWORD PTR _effect_list_parent$[ebp], eax

; 576  : 	}
; 577  : 	else

  00142	eb 07		 jmp	 SHORT $LN9@create_met
$LN8@create_met:

; 578  : 	{
; 579  : 		effect_list_parent = NULL;

  00144	c7 45 f4 00 00
	00 00		 mov	 DWORD PTR _effect_list_parent$[ebp], 0
$LN9@create_met:

; 580  : 	}
; 581  : 
; 582  : 	// arneh - let rockets generate smoke only as long as the rocket engine burns
; 583  : 	if (parent && parent->type == ENTITY_TYPE_WEAPON)

  0014b	83 7d 0c 00	 cmp	 DWORD PTR _parent$[ebp], 0
  0014f	74 27		 je	 SHORT $LN10@create_met
  00151	8b 45 0c	 mov	 eax, DWORD PTR _parent$[ebp]
  00154	83 38 25	 cmp	 DWORD PTR [eax], 37	; 00000025H
  00157	75 1f		 jne	 SHORT $LN10@create_met

; 584  : 	{
; 585  : 		weapon* raw = (weapon *) get_local_entity_data (parent);

  00159	8b 45 0c	 mov	 eax, DWORD PTR _parent$[ebp]
  0015c	8b 48 04	 mov	 ecx, DWORD PTR [eax+4]
  0015f	89 4d ec	 mov	 DWORD PTR _raw$1[ebp], ecx

; 586  : 		lifetime = weapon_database[raw->mob.sub_type].burn_time;

  00162	8b 45 ec	 mov	 eax, DWORD PTR _raw$1[ebp]
  00165	69 08 e0 00 00
	00		 imul	 ecx, DWORD PTR [eax], 224
  0016b	f3 0f 10 81 b4
	00 00 00	 movss	 xmm0, DWORD PTR ?weapon_database@@3PAUWEAPON_DATA@@A[ecx+180]
  00173	f3 0f 11 45 fc	 movss	 DWORD PTR _lifetime$[ebp], xmm0
$LN10@create_met:

; 587  : 	}
; 588  : 
; 589  : 	if (lifetime == 0.0)

  00178	f3 0f 5a 45 fc	 cvtss2sd xmm0, DWORD PTR _lifetime$[ebp]
  0017d	66 0f 2e 05 00
	00 00 00	 ucomisd xmm0, QWORD PTR __real@0000000000000000
  00185	9f		 lahf
  00186	f6 c4 44	 test	 ah, 68			; 00000044H
  00189	7a 0d		 jp	 SHORT $LN11@create_met

; 590  : 		lifetime = smoke_list_component->generator_lifetime;

  0018b	8b 45 08	 mov	 eax, DWORD PTR _smoke_list_component$[ebp]
  0018e	f3 0f 10 40 14	 movss	 xmm0, DWORD PTR [eax+20]
  00193	f3 0f 11 45 fc	 movss	 DWORD PTR _lifetime$[ebp], xmm0
$LN11@create_met:

; 591  : 
; 592  : 	//
; 593  : 	// create entity
; 594  : 	//
; 595  : 
; 596  : 	new_entity = create_local_entity

  00198	6a 00		 push	 0
  0019a	8b 45 f0	 mov	 eax, DWORD PTR _pos$[ebp]
  0019d	f3 0f 10 40 08	 movss	 xmm0, DWORD PTR [eax+8]
  001a2	f3 0f 5a c0	 cvtss2sd xmm0, xmm0
  001a6	83 ec 08	 sub	 esp, 8
  001a9	f2 0f 11 04 24	 movsd	 QWORD PTR [esp], xmm0
  001ae	8b 4d f0	 mov	 ecx, DWORD PTR _pos$[ebp]
  001b1	f3 0f 10 41 04	 movss	 xmm0, DWORD PTR [ecx+4]
  001b6	f3 0f 5a c0	 cvtss2sd xmm0, xmm0
  001ba	83 ec 08	 sub	 esp, 8
  001bd	f2 0f 11 04 24	 movsd	 QWORD PTR [esp], xmm0
  001c2	8b 55 f0	 mov	 edx, DWORD PTR _pos$[ebp]
  001c5	f3 0f 10 02	 movss	 xmm0, DWORD PTR [edx]
  001c9	f3 0f 5a c0	 cvtss2sd xmm0, xmm0
  001cd	83 ec 08	 sub	 esp, 8
  001d0	f2 0f 11 04 24	 movsd	 QWORD PTR [esp], xmm0
  001d5	6a 08		 push	 8
  001d7	6a 09		 push	 9
  001d9	f3 0f 5a 45 14	 cvtss2sd xmm0, DWORD PTR _width_adjustment$[ebp]
  001de	83 ec 08	 sub	 esp, 8
  001e1	f2 0f 11 04 24	 movsd	 QWORD PTR [esp], xmm0
  001e6	68 9f 00 00 00	 push	 159			; 0000009fH
  001eb	6a 04		 push	 4
  001ed	8b 45 08	 mov	 eax, DWORD PTR _smoke_list_component$[ebp]
  001f0	f3 0f 10 40 1c	 movss	 xmm0, DWORD PTR [eax+28]
  001f5	f3 0f 5a c0	 cvtss2sd xmm0, xmm0
  001f9	83 ec 08	 sub	 esp, 8
  001fc	f2 0f 11 04 24	 movsd	 QWORD PTR [esp], xmm0
  00201	6a 76		 push	 118			; 00000076H
  00203	6a 04		 push	 4
  00205	8b 4d 08	 mov	 ecx, DWORD PTR _smoke_list_component$[ebp]
  00208	f3 0f 10 41 18	 movss	 xmm0, DWORD PTR [ecx+24]
  0020d	f3 0f 5a c0	 cvtss2sd xmm0, xmm0
  00211	83 ec 08	 sub	 esp, 8
  00214	f2 0f 11 04 24	 movsd	 QWORD PTR [esp], xmm0
  00219	6a 2d		 push	 45			; 0000002dH
  0021b	6a 04		 push	 4
  0021d	f3 0f 5a 45 fc	 cvtss2sd xmm0, DWORD PTR _lifetime$[ebp]
  00222	83 ec 08	 sub	 esp, 8
  00225	f2 0f 11 04 24	 movsd	 QWORD PTR [esp], xmm0
  0022a	6a 32		 push	 50			; 00000032H
  0022c	6a 04		 push	 4
  0022e	8b 55 08	 mov	 edx, DWORD PTR _smoke_list_component$[ebp]
  00231	8b 42 10	 mov	 eax, DWORD PTR [edx+16]
  00234	50		 push	 eax
  00235	6a 66		 push	 102			; 00000066H
  00237	6a 05		 push	 5
  00239	8b 4d 08	 mov	 ecx, DWORD PTR _smoke_list_component$[ebp]
  0023c	8b 51 0c	 mov	 edx, DWORD PTR [ecx+12]
  0023f	52		 push	 edx
  00240	6a 34		 push	 52			; 00000034H
  00242	6a 05		 push	 5
  00244	8b 45 08	 mov	 eax, DWORD PTR _smoke_list_component$[ebp]
  00247	8b 48 08	 mov	 ecx, DWORD PTR [eax+8]
  0024a	51		 push	 ecx
  0024b	68 bd 00 00 00	 push	 189			; 000000bdH
  00250	6a 05		 push	 5
  00252	8b 55 f4	 mov	 edx, DWORD PTR _effect_list_parent$[ebp]
  00255	52		 push	 edx
  00256	6a 29		 push	 41			; 00000029H
  00258	6a 03		 push	 3
  0025a	8b 45 f4	 mov	 eax, DWORD PTR _effect_list_parent$[ebp]
  0025d	50		 push	 eax
  0025e	6a 24		 push	 36			; 00000024H
  00260	6a 06		 push	 6
  00262	b9 04 00 00 00	 mov	 ecx, 4
  00267	6b d1 00	 imul	 edx, ecx, 0
  0026a	8b 45 18	 mov	 eax, DWORD PTR _entity_index_list$[ebp]
  0026d	8b 0c 10	 mov	 ecx, DWORD PTR [eax+edx]
  00270	51		 push	 ecx
  00271	6a 1f		 push	 31			; 0000001fH
  00273	e8 00 00 00 00	 call	 ?create_local_entity@@YAPAUENTITY@@W4ENTITY_TYPES@@HZZ ; create_local_entity
  00278	81 c4 a8 00 00
	00		 add	 esp, 168		; 000000a8H
  0027e	89 45 f8	 mov	 DWORD PTR _new_entity$[ebp], eax

; 597  : 	(
; 598  : 		ENTITY_TYPE_SMOKE_LIST,
; 599  : 		entity_index_list[ 0 ],
; 600  : 		ENTITY_ATTR_PARENT (LIST_TYPE_SPECIAL_EFFECT, effect_list_parent),
; 601  : 		ENTITY_ATTR_CHILD_PRED (LIST_TYPE_UPDATE, effect_list_parent),
; 602  :      	ENTITY_ATTR_INT_VALUE (INT_TYPE_SMOKE_TYPE, smoke_list_component->trail_type),
; 603  :      	ENTITY_ATTR_INT_VALUE (INT_TYPE_ENTITY_SUB_TYPE, smoke_list_component->entity_sub_type),
; 604  : 		ENTITY_ATTR_INT_VALUE (INT_TYPE_INFINITE_GENERATOR, smoke_list_component->infinite),
; 605  :      	ENTITY_ATTR_FLOAT_VALUE (FLOAT_TYPE_GENERATOR_LIFETIME, lifetime),
; 606  : 		ENTITY_ATTR_FLOAT_VALUE (FLOAT_TYPE_FREQUENCY, smoke_list_component->frequency),
; 607  : 		ENTITY_ATTR_FLOAT_VALUE (FLOAT_TYPE_SMOKE_LIFETIME, smoke_list_component->smoke_lifetime),
; 608  : 		ENTITY_ATTR_FLOAT_VALUE (FLOAT_TYPE_WIDTH_ADJUSTMENT, width_adjustment),
; 609  : 		ENTITY_ATTR_VEC3D (VEC3D_TYPE_POSITION, pos->x, pos->y, pos->z),
; 610  : 		ENTITY_ATTR_END
; 611  : 	);
; 612  : 
; 613  : 	if (parent && relative_position)

  00281	83 7d 0c 00	 cmp	 DWORD PTR _parent$[ebp], 0
  00285	0f 84 84 00 00
	00		 je	 $LN12@create_met
  0028b	83 7d 10 00	 cmp	 DWORD PTR _relative_position$[ebp], 0
  0028f	74 7e		 je	 SHORT $LN12@create_met

; 614  : 	{
; 615  : 		set_local_entity_vec3d (new_entity, VEC3D_TYPE_RELATIVE_POSITION, relative_position);

  00291	83 7d f8 00	 cmp	 DWORD PTR _new_entity$[ebp], 0
  00295	74 0a		 je	 SHORT $LN18@create_met
  00297	8b 45 f8	 mov	 eax, DWORD PTR _new_entity$[ebp]
  0029a	8b 08		 mov	 ecx, DWORD PTR [eax]
  0029c	89 4d a8	 mov	 DWORD PTR tv228[ebp], ecx
  0029f	eb 21		 jmp	 SHORT $LN19@create_met
$LN18@create_met:
  002a1	8b 15 00 00 00
	00		 mov	 edx, DWORD PTR ?__LINE__Var@?0??create_meta_smoke_list_trails@@YGHPAUMETA_SMOKE_LIST_COMPONENT@@PAUENTITY@@PAUVEC3D@@MPAH@Z@4JA
  002a7	83 c2 58	 add	 edx, 88			; 00000058H
  002aa	52		 push	 edx
  002ab	68 00 00 00 00	 push	 OFFSET ??_C@_0FF@KGHFBLGA@c?3?2users?2nhv90?2projects?2eech?2ap@
  002b0	a1 00 00 00 00	 mov	 eax, DWORD PTR ?null_entity_pointer_message@@3PBDB ; null_entity_pointer_message
  002b5	50		 push	 eax
  002b6	e8 00 00 00 00	 call	 ?process_assert@@YGXPBD0H@Z ; process_assert
  002bb	c7 45 a8 00 00
	00 00		 mov	 DWORD PTR tv228[ebp], 0
$LN19@create_met:
  002c2	b9 01 00 00 00	 mov	 ecx, 1
  002c7	85 c9		 test	 ecx, ecx
  002c9	74 09		 je	 SHORT $LN20@create_met
  002cb	c7 45 a4 09 00
	00 00		 mov	 DWORD PTR tv236[ebp], 9
  002d2	eb 21		 jmp	 SHORT $LN21@create_met
$LN20@create_met:
  002d4	8b 15 00 00 00
	00		 mov	 edx, DWORD PTR ?__LINE__Var@?0??create_meta_smoke_list_trails@@YGHPAUMETA_SMOKE_LIST_COMPONENT@@PAUENTITY@@PAUVEC3D@@MPAH@Z@4JA
  002da	83 c2 58	 add	 edx, 88			; 00000058H
  002dd	52		 push	 edx
  002de	68 00 00 00 00	 push	 OFFSET ??_C@_0FF@KGHFBLGA@c?3?2users?2nhv90?2projects?2eech?2ap@
  002e3	a1 00 00 00 00	 mov	 eax, DWORD PTR ?overload_invalid_vec3d_type_message@@3PBDB ; overload_invalid_vec3d_type_message
  002e8	50		 push	 eax
  002e9	e8 00 00 00 00	 call	 ?process_assert@@YGXPBD0H@Z ; process_assert
  002ee	c7 45 a4 00 00
	00 00		 mov	 DWORD PTR tv236[ebp], 0
$LN21@create_met:
  002f5	8b 4d 10	 mov	 ecx, DWORD PTR _relative_position$[ebp]
  002f8	51		 push	 ecx
  002f9	6a 09		 push	 9
  002fb	8b 55 f8	 mov	 edx, DWORD PTR _new_entity$[ebp]
  002fe	52		 push	 edx
  002ff	6b 45 a8 60	 imul	 eax, DWORD PTR tv228[ebp], 96
  00303	8b 4d a4	 mov	 ecx, DWORD PTR tv236[ebp]
  00306	8b 94 88 00 00
	00 00		 mov	 edx, DWORD PTR ?fn_set_local_entity_vec3d@@3PAY0BI@P6GXPAUENTITY@@W4VEC3D_TYPES@@PAUVEC3D@@@ZA[eax+ecx*4]
  0030d	ff d2		 call	 edx
$LN12@create_met:

; 616  : 	}
; 617  : 
; 618  : 	entity_index_list[ 0 ] = get_local_entity_index( new_entity );

  0030f	8b 45 f8	 mov	 eax, DWORD PTR _new_entity$[ebp]
  00312	2b 05 00 00 00
	00		 sub	 eax, DWORD PTR ?entities@@3PAUENTITY@@A ; entities
  00318	c1 f8 04	 sar	 eax, 4
  0031b	b9 04 00 00 00	 mov	 ecx, 4
  00320	6b d1 00	 imul	 edx, ecx, 0
  00323	8b 4d 18	 mov	 ecx, DWORD PTR _entity_index_list$[ebp]
  00326	89 04 11	 mov	 DWORD PTR [ecx+edx], eax

; 619  : 
; 620  : 	update_client_server_entity( new_entity );

  00329	83 7d f8 00	 cmp	 DWORD PTR _new_entity$[ebp], 0
  0032d	74 0a		 je	 SHORT $LN22@create_met
  0032f	8b 45 f8	 mov	 eax, DWORD PTR _new_entity$[ebp]
  00332	8b 08		 mov	 ecx, DWORD PTR [eax]
  00334	89 4d a8	 mov	 DWORD PTR tv252[ebp], ecx
  00337	eb 21		 jmp	 SHORT $LN23@create_met
$LN22@create_met:
  00339	8b 15 00 00 00
	00		 mov	 edx, DWORD PTR ?__LINE__Var@?0??create_meta_smoke_list_trails@@YGHPAUMETA_SMOKE_LIST_COMPONENT@@PAUENTITY@@PAUVEC3D@@MPAH@Z@4JA
  0033f	83 c2 5d	 add	 edx, 93			; 0000005dH
  00342	52		 push	 edx
  00343	68 00 00 00 00	 push	 OFFSET ??_C@_0FF@KGHFBLGA@c?3?2users?2nhv90?2projects?2eech?2ap@
  00348	a1 00 00 00 00	 mov	 eax, DWORD PTR ?null_entity_pointer_message@@3PBDB ; null_entity_pointer_message
  0034d	50		 push	 eax
  0034e	e8 00 00 00 00	 call	 ?process_assert@@YGXPBD0H@Z ; process_assert
  00353	c7 45 a8 00 00
	00 00		 mov	 DWORD PTR tv252[ebp], 0
$LN23@create_met:
  0035a	8b 4d f8	 mov	 ecx, DWORD PTR _new_entity$[ebp]
  0035d	51		 push	 ecx
  0035e	8b 15 00 00 00
	00		 mov	 edx, DWORD PTR ?system_comms_model@@3W4COMMS_MODEL_TYPES@@A ; system_comms_model
  00364	c1 e2 02	 shl	 edx, 2
  00367	8b 45 a8	 mov	 eax, DWORD PTR tv252[ebp]
  0036a	8b 8c c2 00 00
	00 00		 mov	 ecx, DWORD PTR ?fn_update_client_server_entity@@3PAY01P6GXPAUENTITY@@@ZA[edx+eax*8]
  00371	ff d1		 call	 ecx

; 621  : 
; 622  : 	return 1;

  00373	b8 01 00 00 00	 mov	 eax, 1
$LN1@create_met:

; 623  : }

  00378	5f		 pop	 edi
  00379	5e		 pop	 esi
  0037a	5b		 pop	 ebx
  0037b	8b e5		 mov	 esp, ebp
  0037d	5d		 pop	 ebp
  0037e	c2 14 00	 ret	 20			; 00000014H
?create_meta_smoke_list_trails@@YGHPAUMETA_SMOKE_LIST_COMPONENT@@PAUENTITY@@PAUVEC3D@@MPAH@Z ENDP ; create_meta_smoke_list_trails
_TEXT	ENDS
; Function compile flags: /Odtp /ZI
; File c:\users\nhv90\projects\eech\aphavoc\source\entity\special\effect\smokelst\sl_meta.c
;	COMDAT ?create_meta_smoke_list_specified_offset@@YGHW4META_SMOKE_LIST_TYPES@@PAUENTITY@@PAUVEC3D@@PAH@Z
_TEXT	SEGMENT
tv129 = -100						; size = 4
_relative_position$ = -32				; size = 12
_smoke_list_component$ = -20				; size = 4
_num_components$ = -16					; size = 4
_index_counter$ = -12					; size = 4
_save_attr$ = -8					; size = 4
_comp$ = -4						; size = 4
_type$ = 8						; size = 4
_parent$ = 12						; size = 4
_relative_offset$ = 16					; size = 4
_entity_index_list$ = 20				; size = 4
?create_meta_smoke_list_specified_offset@@YGHW4META_SMOKE_LIST_TYPES@@PAUENTITY@@PAUVEC3D@@PAH@Z PROC ; create_meta_smoke_list_specified_offset, COMDAT

; 351  : {

  00000	55		 push	 ebp
  00001	8b ec		 mov	 ebp, esp
  00003	83 ec 64	 sub	 esp, 100		; 00000064H
  00006	53		 push	 ebx
  00007	56		 push	 esi
  00008	57		 push	 edi

; 352  : 	int
; 353  : 		comp,
; 354  : 		save_attr,
; 355  : 		index_counter,
; 356  : 		num_components;
; 357  : 
; 358  : 	meta_smoke_list_component
; 359  : 		*smoke_list_component;
; 360  : 
; 361  : 	vec3d
; 362  : 		relative_position;
; 363  : 
; 364  : 	ASSERT (type > META_SMOKE_LIST_TYPE_NONE);

  00009	83 7d 08 00	 cmp	 DWORD PTR _type$[ebp], 0
  0000d	7f 18		 jg	 SHORT $LN7@create_met
  0000f	a1 00 00 00 00	 mov	 eax, DWORD PTR ?__LINE__Var@?0??create_meta_smoke_list_specified_offset@@YGHW4META_SMOKE_LIST_TYPES@@PAUENTITY@@PAUVEC3D@@PAH@Z@4JA
  00014	83 c0 0d	 add	 eax, 13			; 0000000dH
  00017	50		 push	 eax
  00018	68 00 00 00 00	 push	 OFFSET ??_C@_0FF@KGHFBLGA@c?3?2users?2nhv90?2projects?2eech?2ap@
  0001d	68 00 00 00 00	 push	 OFFSET ??_C@_0CB@KJIIBBKN@type?5?$DO?5META_SMOKE_LIST_TYPE_NON@
  00022	e8 00 00 00 00	 call	 ?process_assert@@YGXPBD0H@Z ; process_assert
$LN7@create_met:

; 365  : 
; 366  : 	ASSERT (type < NUM_META_SMOKE_LIST_TYPES );

  00027	83 7d 08 0f	 cmp	 DWORD PTR _type$[ebp], 15 ; 0000000fH
  0002b	7c 18		 jl	 SHORT $LN8@create_met
  0002d	a1 00 00 00 00	 mov	 eax, DWORD PTR ?__LINE__Var@?0??create_meta_smoke_list_specified_offset@@YGHW4META_SMOKE_LIST_TYPES@@PAUENTITY@@PAUVEC3D@@PAH@Z@4JA
  00032	83 c0 0f	 add	 eax, 15			; 0000000fH
  00035	50		 push	 eax
  00036	68 00 00 00 00	 push	 OFFSET ??_C@_0FF@KGHFBLGA@c?3?2users?2nhv90?2projects?2eech?2ap@
  0003b	68 00 00 00 00	 push	 OFFSET ??_C@_0CB@IACMPAIK@type?5?$DM?5NUM_META_SMOKE_LIST_TYPE@
  00040	e8 00 00 00 00	 call	 ?process_assert@@YGXPBD0H@Z ; process_assert
$LN8@create_met:

; 367  : 
; 368  : 	index_counter = 0;

  00045	c7 45 f4 00 00
	00 00		 mov	 DWORD PTR _index_counter$[ebp], 0

; 369  : 
; 370  : 	save_attr = force_local_entity_create_stack_attributes;

  0004c	a1 00 00 00 00	 mov	 eax, DWORD PTR ?force_local_entity_create_stack_attributes@@3HA ; force_local_entity_create_stack_attributes
  00051	89 45 f8	 mov	 DWORD PTR _save_attr$[ebp], eax

; 371  : 
; 372  : 	if (get_comms_data_flow () == COMMS_DATA_FLOW_RX)

  00054	83 3d 00 00 00
	00 01		 cmp	 DWORD PTR ?system_comms_data_flow@@3W4COMMS_DATA_FLOW_TYPES@@A, 1 ; system_comms_data_flow
  0005b	75 0c		 jne	 SHORT $LN9@create_met

; 373  : 	{
; 374  : 		set_force_local_entity_create_stack_attributes (TRUE);

  0005d	c7 05 00 00 00
	00 01 00 00 00	 mov	 DWORD PTR ?force_local_entity_create_stack_attributes@@3HA, 1 ; force_local_entity_create_stack_attributes

; 375  : 	}
; 376  : 	else

  00067	eb 16		 jmp	 SHORT $LN11@create_met
$LN9@create_met:

; 377  : 	{
; 378  : 		if (get_comms_model () == COMMS_MODEL_CLIENT)

  00069	83 3d 00 00 00
	00 01		 cmp	 DWORD PTR ?system_comms_model@@3W4COMMS_MODEL_TYPES@@A, 1 ; system_comms_model
  00070	75 0d		 jne	 SHORT $LN11@create_met

; 379  : 		{
; 380  : 			debug_fatal ("CREATE META SMOKE LIST : CLIENT creating in t/x mode");

  00072	68 00 00 00 00	 push	 OFFSET ??_C@_0DF@NCEPCJGL@CREATE?5META?5SMOKE?5LIST?5?3?5CLIENT@
  00077	e8 00 00 00 00	 call	 ?debug_fatal@@YAXPBDZZ	; debug_fatal
  0007c	83 c4 04	 add	 esp, 4
$LN11@create_met:

; 381  : 		}
; 382  : 	}
; 383  : 
; 384  : 	if (relative_offset)

  0007f	83 7d 10 00	 cmp	 DWORD PTR _relative_offset$[ebp], 0
  00083	74 28		 je	 SHORT $LN12@create_met

; 385  : 	{
; 386  : 		relative_position.x = relative_offset->x;

  00085	8b 45 10	 mov	 eax, DWORD PTR _relative_offset$[ebp]
  00088	f3 0f 10 00	 movss	 xmm0, DWORD PTR [eax]
  0008c	f3 0f 11 45 e0	 movss	 DWORD PTR _relative_position$[ebp], xmm0

; 387  : 		relative_position.y = relative_offset->y;

  00091	8b 45 10	 mov	 eax, DWORD PTR _relative_offset$[ebp]
  00094	f3 0f 10 40 04	 movss	 xmm0, DWORD PTR [eax+4]
  00099	f3 0f 11 45 e4	 movss	 DWORD PTR _relative_position$[ebp+4], xmm0

; 388  : 		relative_position.z = relative_offset->z;

  0009e	8b 45 10	 mov	 eax, DWORD PTR _relative_offset$[ebp]
  000a1	f3 0f 10 40 08	 movss	 xmm0, DWORD PTR [eax+8]
  000a6	f3 0f 11 45 e8	 movss	 DWORD PTR _relative_position$[ebp+8], xmm0

; 389  : 	}
; 390  : 	else

  000ab	eb 36		 jmp	 SHORT $LN13@create_met
$LN12@create_met:

; 391  : 	{
; 392  : 		//
; 393  : 		// shouldn't have no parent and no position
; 394  : 		//
; 395  : 
; 396  : 		ASSERT (parent);

  000ad	83 7d 0c 00	 cmp	 DWORD PTR _parent$[ebp], 0
  000b1	75 18		 jne	 SHORT $LN14@create_met
  000b3	a1 00 00 00 00	 mov	 eax, DWORD PTR ?__LINE__Var@?0??create_meta_smoke_list_specified_offset@@YGHW4META_SMOKE_LIST_TYPES@@PAUENTITY@@PAUVEC3D@@PAH@Z@4JA
  000b8	83 c0 2d	 add	 eax, 45			; 0000002dH
  000bb	50		 push	 eax
  000bc	68 00 00 00 00	 push	 OFFSET ??_C@_0FF@KGHFBLGA@c?3?2users?2nhv90?2projects?2eech?2ap@
  000c1	68 00 00 00 00	 push	 OFFSET ??_C@_06MLKDMCBD@parent@
  000c6	e8 00 00 00 00	 call	 ?process_assert@@YGXPBD0H@Z ; process_assert
$LN14@create_met:

; 397  : 
; 398  : 		relative_position.x = 0.0;

  000cb	0f 57 c0	 xorps	 xmm0, xmm0
  000ce	f3 0f 11 45 e0	 movss	 DWORD PTR _relative_position$[ebp], xmm0

; 399  : 		relative_position.y = 0.0;

  000d3	0f 57 c0	 xorps	 xmm0, xmm0
  000d6	f3 0f 11 45 e4	 movss	 DWORD PTR _relative_position$[ebp+4], xmm0

; 400  : 		relative_position.z = 0.0;

  000db	0f 57 c0	 xorps	 xmm0, xmm0
  000de	f3 0f 11 45 e8	 movss	 DWORD PTR _relative_position$[ebp+8], xmm0
$LN13@create_met:

; 401  : 	}
; 402  : 
; 403  : 	num_components = meta_smoke_list_database[ type ].number_of_components;

  000e3	69 45 08 94 00
	00 00		 imul	 eax, DWORD PTR _type$[ebp], 148
  000ea	8b 88 00 00 00
	00		 mov	 ecx, DWORD PTR ?meta_smoke_list_database@@3PAUMETA_SMOKE_LIST_DATA@@A[eax]
  000f0	89 4d f0	 mov	 DWORD PTR _num_components$[ebp], ecx

; 404  : 
; 405  : 	for ( comp = 0 ; comp < num_components ; comp ++ )

  000f3	c7 45 fc 00 00
	00 00		 mov	 DWORD PTR _comp$[ebp], 0
  000fa	eb 09		 jmp	 SHORT $LN4@create_met
$LN2@create_met:
  000fc	8b 45 fc	 mov	 eax, DWORD PTR _comp$[ebp]
  000ff	83 c0 01	 add	 eax, 1
  00102	89 45 fc	 mov	 DWORD PTR _comp$[ebp], eax
$LN4@create_met:
  00105	8b 45 fc	 mov	 eax, DWORD PTR _comp$[ebp]
  00108	3b 45 f0	 cmp	 eax, DWORD PTR _num_components$[ebp]
  0010b	0f 8d 9a 00 00
	00		 jge	 $LN3@create_met

; 406  : 	{
; 407  : 
; 408  : 		smoke_list_component = &(meta_smoke_list_database[ type ].component[ comp ]);

  00111	69 45 08 94 00
	00 00		 imul	 eax, DWORD PTR _type$[ebp], 148
  00118	6b 4d fc 24	 imul	 ecx, DWORD PTR _comp$[ebp], 36
  0011c	8d 94 08 04 00
	00 00		 lea	 edx, DWORD PTR ?meta_smoke_list_database@@3PAUMETA_SMOKE_LIST_DATA@@A[eax+ecx+4]
  00123	89 55 ec	 mov	 DWORD PTR _smoke_list_component$[ebp], edx

; 409  : 
; 410  : 		switch ( smoke_list_component->type )

  00126	8b 45 ec	 mov	 eax, DWORD PTR _smoke_list_component$[ebp]
  00129	8b 08		 mov	 ecx, DWORD PTR [eax]
  0012b	89 4d 9c	 mov	 DWORD PTR tv129[ebp], ecx
  0012e	83 7d 9c 00	 cmp	 DWORD PTR tv129[ebp], 0
  00132	74 0e		 je	 SHORT $LN15@create_met
  00134	83 7d 9c 01	 cmp	 DWORD PTR tv129[ebp], 1
  00138	74 0a		 je	 SHORT $LN16@create_met
  0013a	83 7d 9c 02	 cmp	 DWORD PTR tv129[ebp], 2
  0013e	74 27		 je	 SHORT $LN17@create_met
  00140	eb 51		 jmp	 SHORT $LN18@create_met
$LN15@create_met:

; 411  : 		{
; 412  : 			case SMOKE_LIST_NONE:
; 413  : 			{
; 414  : 				break;

  00142	eb 62		 jmp	 SHORT $LN5@create_met
$LN16@create_met:

; 415  : 			}
; 416  : 			case SMOKE_LIST_SPRITES:
; 417  : 			{
; 418  : 				index_counter += create_meta_smoke_list_sprites( smoke_list_component, parent, &relative_position, &entity_index_list[ index_counter ] );

  00144	8b 45 f4	 mov	 eax, DWORD PTR _index_counter$[ebp]
  00147	8b 4d 14	 mov	 ecx, DWORD PTR _entity_index_list$[ebp]
  0014a	8d 14 81	 lea	 edx, DWORD PTR [ecx+eax*4]
  0014d	52		 push	 edx
  0014e	8d 45 e0	 lea	 eax, DWORD PTR _relative_position$[ebp]
  00151	50		 push	 eax
  00152	8b 4d 0c	 mov	 ecx, DWORD PTR _parent$[ebp]
  00155	51		 push	 ecx
  00156	8b 55 ec	 mov	 edx, DWORD PTR _smoke_list_component$[ebp]
  00159	52		 push	 edx
  0015a	e8 00 00 00 00	 call	 ?create_meta_smoke_list_sprites@@YGHPAUMETA_SMOKE_LIST_COMPONENT@@PAUENTITY@@PAUVEC3D@@PAH@Z ; create_meta_smoke_list_sprites
  0015f	03 45 f4	 add	 eax, DWORD PTR _index_counter$[ebp]
  00162	89 45 f4	 mov	 DWORD PTR _index_counter$[ebp], eax

; 419  : 
; 420  : 				break;

  00165	eb 3f		 jmp	 SHORT $LN5@create_met
$LN17@create_met:

; 421  : 			}
; 422  : 			case SMOKE_LIST_TRAILS:
; 423  : 			{
; 424  : 				index_counter += create_meta_smoke_list_trails( smoke_list_component, parent, &relative_position, 0.0, &entity_index_list[ index_counter ] );

  00167	8b 45 f4	 mov	 eax, DWORD PTR _index_counter$[ebp]
  0016a	8b 4d 14	 mov	 ecx, DWORD PTR _entity_index_list$[ebp]
  0016d	8d 14 81	 lea	 edx, DWORD PTR [ecx+eax*4]
  00170	52		 push	 edx
  00171	51		 push	 ecx
  00172	0f 57 c0	 xorps	 xmm0, xmm0
  00175	f3 0f 11 04 24	 movss	 DWORD PTR [esp], xmm0
  0017a	8d 45 e0	 lea	 eax, DWORD PTR _relative_position$[ebp]
  0017d	50		 push	 eax
  0017e	8b 4d 0c	 mov	 ecx, DWORD PTR _parent$[ebp]
  00181	51		 push	 ecx
  00182	8b 55 ec	 mov	 edx, DWORD PTR _smoke_list_component$[ebp]
  00185	52		 push	 edx
  00186	e8 00 00 00 00	 call	 ?create_meta_smoke_list_trails@@YGHPAUMETA_SMOKE_LIST_COMPONENT@@PAUENTITY@@PAUVEC3D@@MPAH@Z ; create_meta_smoke_list_trails
  0018b	03 45 f4	 add	 eax, DWORD PTR _index_counter$[ebp]
  0018e	89 45 f4	 mov	 DWORD PTR _index_counter$[ebp], eax

; 425  : 
; 426  : 				break;

  00191	eb 13		 jmp	 SHORT $LN5@create_met
$LN18@create_met:

; 427  : 			}
; 428  : 			default:
; 429  : 			{
; 430  : 				debug_fatal("META SMOKE LIST : Unknown component type %d", smoke_list_component->type );

  00193	8b 45 ec	 mov	 eax, DWORD PTR _smoke_list_component$[ebp]
  00196	8b 08		 mov	 ecx, DWORD PTR [eax]
  00198	51		 push	 ecx
  00199	68 00 00 00 00	 push	 OFFSET ??_C@_0CM@KHDNCPIE@META?5SMOKE?5LIST?5?3?5Unknown?5compo@
  0019e	e8 00 00 00 00	 call	 ?debug_fatal@@YAXPBDZZ	; debug_fatal
  001a3	83 c4 08	 add	 esp, 8
$LN5@create_met:

; 431  : 			}
; 432  : 		}
; 433  : 	}

  001a6	e9 51 ff ff ff	 jmp	 $LN2@create_met
$LN3@create_met:

; 434  : 
; 435  : 	set_force_local_entity_create_stack_attributes (save_attr);

  001ab	8b 45 f8	 mov	 eax, DWORD PTR _save_attr$[ebp]
  001ae	a3 00 00 00 00	 mov	 DWORD PTR ?force_local_entity_create_stack_attributes@@3HA, eax ; force_local_entity_create_stack_attributes

; 436  : 
; 437  : 	return index_counter;

  001b3	8b 45 f4	 mov	 eax, DWORD PTR _index_counter$[ebp]

; 438  : }

  001b6	5f		 pop	 edi
  001b7	5e		 pop	 esi
  001b8	5b		 pop	 ebx
  001b9	8b e5		 mov	 esp, ebp
  001bb	5d		 pop	 ebp
  001bc	c2 10 00	 ret	 16			; 00000010H
?create_meta_smoke_list_specified_offset@@YGHW4META_SMOKE_LIST_TYPES@@PAUENTITY@@PAUVEC3D@@PAH@Z ENDP ; create_meta_smoke_list_specified_offset
_TEXT	ENDS
; Function compile flags: /Odtp /ZI
; File c:\users\nhv90\projects\eech\aphavoc\source\entity\special\effect\smokelst\sl_meta.c
;	COMDAT ?create_meta_smoke_list_sub_object_offset@@YGHW4META_SMOKE_LIST_TYPES@@PAUENTITY@@HHPAH@Z
_TEXT	SEGMENT
tv93 = -236						; size = 4
tv194 = -232						; size = 4
tv85 = -232						; size = 4
_effect_width_search$1 = -164				; size = 56
_effect_position_search$2 = -108			; size = 56
_inst3d$3 = -52						; size = 4
_smoke_list_component$ = -48				; size = 4
_width_adjustment$ = -44				; size = 4
_relative_position$ = -40				; size = 12
_width_position$ = -28					; size = 12
_num_components$ = -16					; size = 4
_index_counter$ = -12					; size = 4
_save_attr$ = -8					; size = 4
_comp$ = -4						; size = 4
_type$ = 8						; size = 4
_parent$ = 12						; size = 4
_sub_object_type$ = 16					; size = 4
_sub_object_depth$ = 20					; size = 4
_entity_index_list$ = 24				; size = 4
?create_meta_smoke_list_sub_object_offset@@YGHW4META_SMOKE_LIST_TYPES@@PAUENTITY@@HHPAH@Z PROC ; create_meta_smoke_list_sub_object_offset, COMDAT

; 151  : {

  00000	55		 push	 ebp
  00001	8b ec		 mov	 ebp, esp
  00003	81 ec ec 00 00
	00		 sub	 esp, 236		; 000000ecH
  00009	53		 push	 ebx
  0000a	56		 push	 esi
  0000b	57		 push	 edi

; 152  : 	int
; 153  : 		comp,
; 154  : 		save_attr,
; 155  : 		index_counter,
; 156  : 		num_components;
; 157  : 
; 158  : 	vec3d
; 159  : 		width_position,
; 160  : 		relative_position;
; 161  : 
; 162  : 	float
; 163  : 		width_adjustment;
; 164  : 
; 165  : 	meta_smoke_list_component
; 166  : 		*smoke_list_component;
; 167  : 
; 168  : 	ASSERT (type > META_SMOKE_LIST_TYPE_NONE);

  0000c	83 7d 08 00	 cmp	 DWORD PTR _type$[ebp], 0
  00010	7f 18		 jg	 SHORT $LN7@create_met
  00012	a1 00 00 00 00	 mov	 eax, DWORD PTR ?__LINE__Var@?0??create_meta_smoke_list_sub_object_offset@@YGHW4META_SMOKE_LIST_TYPES@@PAUENTITY@@HHPAH@Z@4JA
  00017	83 c0 11	 add	 eax, 17			; 00000011H
  0001a	50		 push	 eax
  0001b	68 00 00 00 00	 push	 OFFSET ??_C@_0FF@KGHFBLGA@c?3?2users?2nhv90?2projects?2eech?2ap@
  00020	68 00 00 00 00	 push	 OFFSET ??_C@_0CB@KJIIBBKN@type?5?$DO?5META_SMOKE_LIST_TYPE_NON@
  00025	e8 00 00 00 00	 call	 ?process_assert@@YGXPBD0H@Z ; process_assert
$LN7@create_met:

; 169  : 
; 170  : 	ASSERT (type < NUM_META_SMOKE_LIST_TYPES );

  0002a	83 7d 08 0f	 cmp	 DWORD PTR _type$[ebp], 15 ; 0000000fH
  0002e	7c 18		 jl	 SHORT $LN8@create_met
  00030	a1 00 00 00 00	 mov	 eax, DWORD PTR ?__LINE__Var@?0??create_meta_smoke_list_sub_object_offset@@YGHW4META_SMOKE_LIST_TYPES@@PAUENTITY@@HHPAH@Z@4JA
  00035	83 c0 13	 add	 eax, 19			; 00000013H
  00038	50		 push	 eax
  00039	68 00 00 00 00	 push	 OFFSET ??_C@_0FF@KGHFBLGA@c?3?2users?2nhv90?2projects?2eech?2ap@
  0003e	68 00 00 00 00	 push	 OFFSET ??_C@_0CB@IACMPAIK@type?5?$DM?5NUM_META_SMOKE_LIST_TYPE@
  00043	e8 00 00 00 00	 call	 ?process_assert@@YGXPBD0H@Z ; process_assert
$LN8@create_met:

; 171  : 
; 172  : 	index_counter = 0;

  00048	c7 45 f4 00 00
	00 00		 mov	 DWORD PTR _index_counter$[ebp], 0

; 173  : 
; 174  : 	width_adjustment = 0.0;

  0004f	0f 57 c0	 xorps	 xmm0, xmm0
  00052	f3 0f 11 45 d4	 movss	 DWORD PTR _width_adjustment$[ebp], xmm0

; 175  : 
; 176  : 	save_attr = force_local_entity_create_stack_attributes;

  00057	a1 00 00 00 00	 mov	 eax, DWORD PTR ?force_local_entity_create_stack_attributes@@3HA ; force_local_entity_create_stack_attributes
  0005c	89 45 f8	 mov	 DWORD PTR _save_attr$[ebp], eax

; 177  : 
; 178  : 	if (get_comms_data_flow () == COMMS_DATA_FLOW_RX)

  0005f	83 3d 00 00 00
	00 01		 cmp	 DWORD PTR ?system_comms_data_flow@@3W4COMMS_DATA_FLOW_TYPES@@A, 1 ; system_comms_data_flow
  00066	75 0c		 jne	 SHORT $LN9@create_met

; 179  : 	{
; 180  : 		set_force_local_entity_create_stack_attributes (TRUE);

  00068	c7 05 00 00 00
	00 01 00 00 00	 mov	 DWORD PTR ?force_local_entity_create_stack_attributes@@3HA, 1 ; force_local_entity_create_stack_attributes

; 181  : 	}
; 182  : 	else

  00072	eb 16		 jmp	 SHORT $LN11@create_met
$LN9@create_met:

; 183  : 	{
; 184  : 		if (get_comms_model () == COMMS_MODEL_CLIENT)

  00074	83 3d 00 00 00
	00 01		 cmp	 DWORD PTR ?system_comms_model@@3W4COMMS_MODEL_TYPES@@A, 1 ; system_comms_model
  0007b	75 0d		 jne	 SHORT $LN11@create_met

; 185  : 		{
; 186  : 			debug_fatal ("CREATE META SMOKE LIST : CLIENT creating in t/x mode");

  0007d	68 00 00 00 00	 push	 OFFSET ??_C@_0DF@NCEPCJGL@CREATE?5META?5SMOKE?5LIST?5?3?5CLIENT@
  00082	e8 00 00 00 00	 call	 ?debug_fatal@@YAXPBDZZ	; debug_fatal
  00087	83 c4 04	 add	 esp, 4
$LN11@create_met:

; 187  : 		}
; 188  : 	}
; 189  : 
; 190  : 	//
; 191  : 	// find the offset to the parent ( if necessary )
; 192  : 	//
; 193  : 
; 194  : 	relative_position.x = 0.0;

  0008a	0f 57 c0	 xorps	 xmm0, xmm0
  0008d	f3 0f 11 45 d8	 movss	 DWORD PTR _relative_position$[ebp], xmm0

; 195  : 	relative_position.y = 0.0;

  00092	0f 57 c0	 xorps	 xmm0, xmm0
  00095	f3 0f 11 45 dc	 movss	 DWORD PTR _relative_position$[ebp+4], xmm0

; 196  : 	relative_position.z = 0.0;

  0009a	0f 57 c0	 xorps	 xmm0, xmm0
  0009d	f3 0f 11 45 e0	 movss	 DWORD PTR _relative_position$[ebp+8], xmm0

; 197  : 
; 198  : 	if ((parent) && (sub_object_type != OBJECT_3D_INVALID_SUB_OBJECT_INDEX))

  000a2	83 7d 0c 00	 cmp	 DWORD PTR _parent$[ebp], 0
  000a6	0f 84 25 01 00
	00		 je	 $LN13@create_met
  000ac	83 7d 10 00	 cmp	 DWORD PTR _sub_object_type$[ebp], 0
  000b0	0f 84 1b 01 00
	00		 je	 $LN13@create_met

; 199  : 	{
; 200  : 		object_3d_instance
; 201  : 			*inst3d;
; 202  : 
; 203  : 		object_3d_sub_object_search_data
; 204  : 			effect_position_search,
; 205  : 			effect_width_search;
; 206  : 
; 207  : 		inst3d = (object_3d_instance *) get_local_entity_ptr_value (parent, PTR_TYPE_INSTANCE_3D_OBJECT);

  000b6	83 7d 0c 00	 cmp	 DWORD PTR _parent$[ebp], 0
  000ba	74 0d		 je	 SHORT $LN22@create_met
  000bc	8b 45 0c	 mov	 eax, DWORD PTR _parent$[ebp]
  000bf	8b 08		 mov	 ecx, DWORD PTR [eax]
  000c1	89 8d 18 ff ff
	ff		 mov	 DWORD PTR tv85[ebp], ecx
  000c7	eb 24		 jmp	 SHORT $LN23@create_met
$LN22@create_met:
  000c9	8b 15 00 00 00
	00		 mov	 edx, DWORD PTR ?__LINE__Var@?0??create_meta_smoke_list_sub_object_offset@@YGHW4META_SMOKE_LIST_TYPES@@PAUENTITY@@HHPAH@Z@4JA
  000cf	83 c2 38	 add	 edx, 56			; 00000038H
  000d2	52		 push	 edx
  000d3	68 00 00 00 00	 push	 OFFSET ??_C@_0FF@KGHFBLGA@c?3?2users?2nhv90?2projects?2eech?2ap@
  000d8	a1 00 00 00 00	 mov	 eax, DWORD PTR ?null_entity_pointer_message@@3PBDB ; null_entity_pointer_message
  000dd	50		 push	 eax
  000de	e8 00 00 00 00	 call	 ?process_assert@@YGXPBD0H@Z ; process_assert
  000e3	c7 85 18 ff ff
	ff 00 00 00 00	 mov	 DWORD PTR tv85[ebp], 0
$LN23@create_met:
  000ed	b9 01 00 00 00	 mov	 ecx, 1
  000f2	85 c9		 test	 ecx, ecx
  000f4	74 0c		 je	 SHORT $LN24@create_met
  000f6	c7 85 14 ff ff
	ff 02 00 00 00	 mov	 DWORD PTR tv93[ebp], 2
  00100	eb 24		 jmp	 SHORT $LN25@create_met
$LN24@create_met:
  00102	8b 15 00 00 00
	00		 mov	 edx, DWORD PTR ?__LINE__Var@?0??create_meta_smoke_list_sub_object_offset@@YGHW4META_SMOKE_LIST_TYPES@@PAUENTITY@@HHPAH@Z@4JA
  00108	83 c2 38	 add	 edx, 56			; 00000038H
  0010b	52		 push	 edx
  0010c	68 00 00 00 00	 push	 OFFSET ??_C@_0FF@KGHFBLGA@c?3?2users?2nhv90?2projects?2eech?2ap@
  00111	a1 00 00 00 00	 mov	 eax, DWORD PTR ?overload_invalid_ptr_type_message@@3PBDB ; overload_invalid_ptr_type_message
  00116	50		 push	 eax
  00117	e8 00 00 00 00	 call	 ?process_assert@@YGXPBD0H@Z ; process_assert
  0011c	c7 85 14 ff ff
	ff 00 00 00 00	 mov	 DWORD PTR tv93[ebp], 0
$LN25@create_met:
  00126	6a 02		 push	 2
  00128	8b 4d 0c	 mov	 ecx, DWORD PTR _parent$[ebp]
  0012b	51		 push	 ecx
  0012c	6b 95 18 ff ff
	ff 50		 imul	 edx, DWORD PTR tv85[ebp], 80
  00133	8b 85 14 ff ff
	ff		 mov	 eax, DWORD PTR tv93[ebp]
  00139	8b 8c 82 00 00
	00 00		 mov	 ecx, DWORD PTR ?fn_get_local_entity_ptr_value@@3PAY0BE@P6GPAXPAUENTITY@@W4PTR_TYPES@@@ZA[edx+eax*4]
  00140	ff d1		 call	 ecx
  00142	89 45 cc	 mov	 DWORD PTR _inst3d$3[ebp], eax

; 208  : 
; 209  : 		if (inst3d)

  00145	83 7d cc 00	 cmp	 DWORD PTR _inst3d$3[ebp], 0
  00149	0f 84 82 00 00
	00		 je	 $LN13@create_met

; 210  : 		{
; 211  : 			//
; 212  : 			// locate attachment position on parent entity
; 213  : 			//
; 214  : 
; 215  : 			if (get_sub_object_relative_position (inst3d, sub_object_type, sub_object_depth, &relative_position, &effect_position_search))

  0014f	8d 45 94	 lea	 eax, DWORD PTR _effect_position_search$2[ebp]
  00152	50		 push	 eax
  00153	8d 4d d8	 lea	 ecx, DWORD PTR _relative_position$[ebp]
  00156	51		 push	 ecx
  00157	8b 55 14	 mov	 edx, DWORD PTR _sub_object_depth$[ebp]
  0015a	52		 push	 edx
  0015b	8b 45 10	 mov	 eax, DWORD PTR _sub_object_type$[ebp]
  0015e	50		 push	 eax
  0015f	8b 4d cc	 mov	 ecx, DWORD PTR _inst3d$3[ebp]
  00162	51		 push	 ecx
  00163	e8 00 00 00 00	 call	 ?get_sub_object_relative_position@@YGHPAUOBJECT_3D_INSTANCE@@HHPAUVEC3D@@PAUOBJECT_3D_SUB_OBJECT_SEARCH_DATA@@@Z ; get_sub_object_relative_position
  00168	85 c0		 test	 eax, eax
  0016a	74 65		 je	 SHORT $LN16@create_met

; 216  : 			{
; 217  : 				//
; 218  : 				// search from attachment position to find a width position, and add it to the smoke
; 219  : 				//
; 220  : 
; 221  : 				effect_width_search.search_depth = 0;

  0016c	c7 85 64 ff ff
	ff 00 00 00 00	 mov	 DWORD PTR _effect_width_search$1[ebp+8], 0

; 222  : 				effect_width_search.sub_object_index = OBJECT_3D_SUB_OBJECT_EFFECT_WIDTH_POSITION;

  00176	c7 85 68 ff ff
	ff 09 01 00 00	 mov	 DWORD PTR _effect_width_search$1[ebp+12], 265 ; 00000109H

; 223  : 
; 224  : 				if (find_object_3d_sub_object_from_sub_object ( &effect_position_search, &effect_width_search) == SUB_OBJECT_SEARCH_RESULT_OBJECT_FOUND)

  00180	8d 85 5c ff ff
	ff		 lea	 eax, DWORD PTR _effect_width_search$1[ebp]
  00186	50		 push	 eax
  00187	8d 4d 94	 lea	 ecx, DWORD PTR _effect_position_search$2[ebp]
  0018a	51		 push	 ecx
  0018b	e8 00 00 00 00	 call	 ?find_object_3d_sub_object_from_sub_object@@YG?AW4SUB_OBJECT_SEARCH_RESULT_TYPES@@PAUOBJECT_3D_SUB_OBJECT_SEARCH_DATA@@0@Z ; find_object_3d_sub_object_from_sub_object
  00190	83 f8 01	 cmp	 eax, 1
  00193	75 3c		 jne	 SHORT $LN16@create_met

; 225  : 				{
; 226  : 					width_position.x = effect_width_search.result_sub_object->relative_position.x;

  00195	8b 85 60 ff ff
	ff		 mov	 eax, DWORD PTR _effect_width_search$1[ebp+4]
  0019b	f3 0f 10 40 0c	 movss	 xmm0, DWORD PTR [eax+12]
  001a0	f3 0f 11 45 e4	 movss	 DWORD PTR _width_position$[ebp], xmm0

; 227  : 					width_position.y = effect_width_search.result_sub_object->relative_position.y;

  001a5	8b 85 60 ff ff
	ff		 mov	 eax, DWORD PTR _effect_width_search$1[ebp+4]
  001ab	f3 0f 10 40 10	 movss	 xmm0, DWORD PTR [eax+16]
  001b0	f3 0f 11 45 e8	 movss	 DWORD PTR _width_position$[ebp+4], xmm0

; 228  : 					width_position.z = effect_width_search.result_sub_object->relative_position.z;

  001b5	8b 85 60 ff ff
	ff		 mov	 eax, DWORD PTR _effect_width_search$1[ebp+4]
  001bb	f3 0f 10 40 14	 movss	 xmm0, DWORD PTR [eax+20]
  001c0	f3 0f 11 45 ec	 movss	 DWORD PTR _width_position$[ebp+8], xmm0

; 229  : 
; 230  : 					width_adjustment = get_3d_vector_magnitude( &width_position );

  001c5	8d 45 e4	 lea	 eax, DWORD PTR _width_position$[ebp]
  001c8	50		 push	 eax
  001c9	e8 00 00 00 00	 call	 ?get_3d_vector_magnitude@@YGMPBUVEC3D@@@Z ; get_3d_vector_magnitude
  001ce	d9 5d d4	 fstp	 DWORD PTR _width_adjustment$[ebp]
$LN16@create_met:
$LN13@create_met:

; 231  : 
; 232  : 					#if DEBUG_MODULE
; 233  : 
; 234  : 					debug_log("SL_META : Found effect width at depth %d : width_adjustment = %f", sub_object_depth, width_adjustment);
; 235  : 
; 236  : 					#endif
; 237  : 				}
; 238  : 			}
; 239  : 		}
; 240  : 		else
; 241  : 		{
; 242  : 			//
; 243  : 			// parent does not have a 3d instance ( possibly construct a temporary one )
; 244  : 			//
; 245  : 		}
; 246  : 	}
; 247  : 
; 248  : 	num_components = meta_smoke_list_database[ type ].number_of_components;

  001d1	69 45 08 94 00
	00 00		 imul	 eax, DWORD PTR _type$[ebp], 148
  001d8	8b 88 00 00 00
	00		 mov	 ecx, DWORD PTR ?meta_smoke_list_database@@3PAUMETA_SMOKE_LIST_DATA@@A[eax]
  001de	89 4d f0	 mov	 DWORD PTR _num_components$[ebp], ecx

; 249  : 
; 250  : 	for ( comp = 0 ; comp < num_components ; comp ++ )

  001e1	c7 45 fc 00 00
	00 00		 mov	 DWORD PTR _comp$[ebp], 0
  001e8	eb 09		 jmp	 SHORT $LN4@create_met
$LN2@create_met:
  001ea	8b 45 fc	 mov	 eax, DWORD PTR _comp$[ebp]
  001ed	83 c0 01	 add	 eax, 1
  001f0	89 45 fc	 mov	 DWORD PTR _comp$[ebp], eax
$LN4@create_met:
  001f3	8b 45 fc	 mov	 eax, DWORD PTR _comp$[ebp]
  001f6	3b 45 f0	 cmp	 eax, DWORD PTR _num_components$[ebp]
  001f9	0f 8d a8 00 00
	00		 jge	 $LN3@create_met

; 251  : 	{
; 252  : 
; 253  : 		smoke_list_component = &(meta_smoke_list_database[ type ].component[ comp ]);

  001ff	69 45 08 94 00
	00 00		 imul	 eax, DWORD PTR _type$[ebp], 148
  00206	6b 4d fc 24	 imul	 ecx, DWORD PTR _comp$[ebp], 36
  0020a	8d 94 08 04 00
	00 00		 lea	 edx, DWORD PTR ?meta_smoke_list_database@@3PAUMETA_SMOKE_LIST_DATA@@A[eax+ecx+4]
  00211	89 55 d0	 mov	 DWORD PTR _smoke_list_component$[ebp], edx

; 254  : 
; 255  : 		switch ( smoke_list_component->type )

  00214	8b 45 d0	 mov	 eax, DWORD PTR _smoke_list_component$[ebp]
  00217	8b 08		 mov	 ecx, DWORD PTR [eax]
  00219	89 8d 18 ff ff
	ff		 mov	 DWORD PTR tv194[ebp], ecx
  0021f	83 bd 18 ff ff
	ff 00		 cmp	 DWORD PTR tv194[ebp], 0
  00226	74 14		 je	 SHORT $LN17@create_met
  00228	83 bd 18 ff ff
	ff 01		 cmp	 DWORD PTR tv194[ebp], 1
  0022f	74 0d		 je	 SHORT $LN18@create_met
  00231	83 bd 18 ff ff
	ff 02		 cmp	 DWORD PTR tv194[ebp], 2
  00238	74 27		 je	 SHORT $LN19@create_met
  0023a	eb 53		 jmp	 SHORT $LN20@create_met
$LN17@create_met:

; 256  : 		{
; 257  : 			case SMOKE_LIST_NONE:
; 258  : 			{
; 259  : 				break;

  0023c	eb 64		 jmp	 SHORT $LN5@create_met
$LN18@create_met:

; 260  : 			}
; 261  : 			case SMOKE_LIST_SPRITES:
; 262  : 			{
; 263  : 				index_counter += create_meta_smoke_list_sprites( smoke_list_component, parent, &relative_position, &entity_index_list[ index_counter ] );

  0023e	8b 45 f4	 mov	 eax, DWORD PTR _index_counter$[ebp]
  00241	8b 4d 18	 mov	 ecx, DWORD PTR _entity_index_list$[ebp]
  00244	8d 14 81	 lea	 edx, DWORD PTR [ecx+eax*4]
  00247	52		 push	 edx
  00248	8d 45 d8	 lea	 eax, DWORD PTR _relative_position$[ebp]
  0024b	50		 push	 eax
  0024c	8b 4d 0c	 mov	 ecx, DWORD PTR _parent$[ebp]
  0024f	51		 push	 ecx
  00250	8b 55 d0	 mov	 edx, DWORD PTR _smoke_list_component$[ebp]
  00253	52		 push	 edx
  00254	e8 00 00 00 00	 call	 ?create_meta_smoke_list_sprites@@YGHPAUMETA_SMOKE_LIST_COMPONENT@@PAUENTITY@@PAUVEC3D@@PAH@Z ; create_meta_smoke_list_sprites
  00259	03 45 f4	 add	 eax, DWORD PTR _index_counter$[ebp]
  0025c	89 45 f4	 mov	 DWORD PTR _index_counter$[ebp], eax

; 264  : 
; 265  : 				break;

  0025f	eb 41		 jmp	 SHORT $LN5@create_met
$LN19@create_met:

; 266  : 			}
; 267  : 			case SMOKE_LIST_TRAILS:
; 268  : 			{
; 269  : 				index_counter += create_meta_smoke_list_trails( smoke_list_component, parent, &relative_position, width_adjustment, &entity_index_list[ index_counter ] );

  00261	8b 45 f4	 mov	 eax, DWORD PTR _index_counter$[ebp]
  00264	8b 4d 18	 mov	 ecx, DWORD PTR _entity_index_list$[ebp]
  00267	8d 14 81	 lea	 edx, DWORD PTR [ecx+eax*4]
  0026a	52		 push	 edx
  0026b	51		 push	 ecx
  0026c	f3 0f 10 45 d4	 movss	 xmm0, DWORD PTR _width_adjustment$[ebp]
  00271	f3 0f 11 04 24	 movss	 DWORD PTR [esp], xmm0
  00276	8d 45 d8	 lea	 eax, DWORD PTR _relative_position$[ebp]
  00279	50		 push	 eax
  0027a	8b 4d 0c	 mov	 ecx, DWORD PTR _parent$[ebp]
  0027d	51		 push	 ecx
  0027e	8b 55 d0	 mov	 edx, DWORD PTR _smoke_list_component$[ebp]
  00281	52		 push	 edx
  00282	e8 00 00 00 00	 call	 ?create_meta_smoke_list_trails@@YGHPAUMETA_SMOKE_LIST_COMPONENT@@PAUENTITY@@PAUVEC3D@@MPAH@Z ; create_meta_smoke_list_trails
  00287	03 45 f4	 add	 eax, DWORD PTR _index_counter$[ebp]
  0028a	89 45 f4	 mov	 DWORD PTR _index_counter$[ebp], eax

; 270  : 
; 271  : 				break;

  0028d	eb 13		 jmp	 SHORT $LN5@create_met
$LN20@create_met:

; 272  : 			}
; 273  : 			default:
; 274  : 			{
; 275  : 				debug_fatal("META SMOKE LIST : Unknown component type %d", smoke_list_component->type );

  0028f	8b 45 d0	 mov	 eax, DWORD PTR _smoke_list_component$[ebp]
  00292	8b 08		 mov	 ecx, DWORD PTR [eax]
  00294	51		 push	 ecx
  00295	68 00 00 00 00	 push	 OFFSET ??_C@_0CM@KHDNCPIE@META?5SMOKE?5LIST?5?3?5Unknown?5compo@
  0029a	e8 00 00 00 00	 call	 ?debug_fatal@@YAXPBDZZ	; debug_fatal
  0029f	83 c4 08	 add	 esp, 8
$LN5@create_met:

; 276  : 			}
; 277  : 		}
; 278  : 	}

  002a2	e9 43 ff ff ff	 jmp	 $LN2@create_met
$LN3@create_met:

; 279  : 
; 280  : 	set_force_local_entity_create_stack_attributes (save_attr);

  002a7	8b 45 f8	 mov	 eax, DWORD PTR _save_attr$[ebp]
  002aa	a3 00 00 00 00	 mov	 DWORD PTR ?force_local_entity_create_stack_attributes@@3HA, eax ; force_local_entity_create_stack_attributes

; 281  : 
; 282  : 	return index_counter;

  002af	8b 45 f4	 mov	 eax, DWORD PTR _index_counter$[ebp]

; 283  : }

  002b2	5f		 pop	 edi
  002b3	5e		 pop	 esi
  002b4	5b		 pop	 ebx
  002b5	8b e5		 mov	 esp, ebp
  002b7	5d		 pop	 ebp
  002b8	c2 14 00	 ret	 20			; 00000014H
?create_meta_smoke_list_sub_object_offset@@YGHW4META_SMOKE_LIST_TYPES@@PAUENTITY@@HHPAH@Z ENDP ; create_meta_smoke_list_sub_object_offset
_TEXT	ENDS
; Function compile flags: /Odtp /ZI
; File c:\users\nhv90\projects\eech\aphavoc\source\entity\special\effect\smokelst\sl_meta.c
;	COMDAT ?create_client_server_meta_smoke_list_specified_offset@@YGHW4META_SMOKE_LIST_TYPES@@PAUENTITY@@PAUVEC3D@@@Z
_TEXT	SEGMENT
_entity_index_list$ = -12				; size = 4
_count$ = -8						; size = 4
_loop$ = -4						; size = 4
_type$ = 8						; size = 4
_parent$ = 12						; size = 4
_relative_offset$ = 16					; size = 4
?create_client_server_meta_smoke_list_specified_offset@@YGHW4META_SMOKE_LIST_TYPES@@PAUENTITY@@PAUVEC3D@@@Z PROC ; create_client_server_meta_smoke_list_specified_offset, COMDAT

; 290  : {

  00000	55		 push	 ebp
  00001	8b ec		 mov	 ebp, esp
  00003	83 ec 4c	 sub	 esp, 76			; 0000004cH
  00006	53		 push	 ebx
  00007	56		 push	 esi
  00008	57		 push	 edi

; 291  : 	int
; 292  : 		loop,
; 293  : 		count,
; 294  : 		*entity_index_list;
; 295  : 
; 296  : 	//
; 297  : 	// N.B. if parent is NULL then relative offset is taken to be the absolute position
; 298  : 	//
; 299  : 
; 300  : 	ASSERT (get_comms_model () == COMMS_MODEL_SERVER);

  00009	83 3d 00 00 00
	00 00		 cmp	 DWORD PTR ?system_comms_model@@3W4COMMS_MODEL_TYPES@@A, 0 ; system_comms_model
  00010	74 18		 je	 SHORT $LN5@create_cli
  00012	a1 00 00 00 00	 mov	 eax, DWORD PTR ?__LINE__Var@?0??create_client_server_meta_smoke_list_specified_offset@@YGHW4META_SMOKE_LIST_TYPES@@PAUENTITY@@PAUVEC3D@@@Z@4JA
  00017	83 c0 0a	 add	 eax, 10			; 0000000aH
  0001a	50		 push	 eax
  0001b	68 00 00 00 00	 push	 OFFSET ??_C@_0FF@KGHFBLGA@c?3?2users?2nhv90?2projects?2eech?2ap@
  00020	68 00 00 00 00	 push	 OFFSET ??_C@_0CJ@DMBLBJBK@get_comms_model?5?$CI?$CJ?5?$DN?$DN?5COMMS_MOD@
  00025	e8 00 00 00 00	 call	 ?process_assert@@YGXPBD0H@Z ; process_assert
$LN5@create_cli:

; 301  : 
; 302  : 	//
; 303  : 	// create an array of entity index numbers and fill them all with ENTITY_INDEX_DONT_CARE
; 304  : 	//
; 305  : 
; 306  : 	count = count_entities_in_meta_smoke_list (type);

  0002a	8b 45 08	 mov	 eax, DWORD PTR _type$[ebp]
  0002d	50		 push	 eax
  0002e	e8 00 00 00 00	 call	 ?count_entities_in_meta_smoke_list@@YGHW4META_SMOKE_LIST_TYPES@@@Z ; count_entities_in_meta_smoke_list
  00033	89 45 f8	 mov	 DWORD PTR _count$[ebp], eax

; 307  : 
; 308  : 	ASSERT (count);

  00036	83 7d f8 00	 cmp	 DWORD PTR _count$[ebp], 0
  0003a	75 18		 jne	 SHORT $LN6@create_cli
  0003c	a1 00 00 00 00	 mov	 eax, DWORD PTR ?__LINE__Var@?0??create_client_server_meta_smoke_list_specified_offset@@YGHW4META_SMOKE_LIST_TYPES@@PAUENTITY@@PAUVEC3D@@@Z@4JA
  00041	83 c0 12	 add	 eax, 18			; 00000012H
  00044	50		 push	 eax
  00045	68 00 00 00 00	 push	 OFFSET ??_C@_0FF@KGHFBLGA@c?3?2users?2nhv90?2projects?2eech?2ap@
  0004a	68 00 00 00 00	 push	 OFFSET ??_C@_05IOMEMJEC@count@
  0004f	e8 00 00 00 00	 call	 ?process_assert@@YGXPBD0H@Z ; process_assert
$LN6@create_cli:

; 309  : 
; 310  : 	entity_index_list = (int *) malloc_fast_mem (sizeof (int) * count);

  00054	8b 45 f8	 mov	 eax, DWORD PTR _count$[ebp]
  00057	c1 e0 02	 shl	 eax, 2
  0005a	50		 push	 eax
  0005b	e8 00 00 00 00	 call	 ?malloc_fast_memory@@YGPAXI@Z ; malloc_fast_memory
  00060	89 45 f4	 mov	 DWORD PTR _entity_index_list$[ebp], eax

; 311  : 
; 312  : 	for ( loop = 0 ; loop < count ; loop ++ )

  00063	c7 45 fc 00 00
	00 00		 mov	 DWORD PTR _loop$[ebp], 0
  0006a	eb 09		 jmp	 SHORT $LN4@create_cli
$LN2@create_cli:
  0006c	8b 45 fc	 mov	 eax, DWORD PTR _loop$[ebp]
  0006f	83 c0 01	 add	 eax, 1
  00072	89 45 fc	 mov	 DWORD PTR _loop$[ebp], eax
$LN4@create_cli:
  00075	8b 45 fc	 mov	 eax, DWORD PTR _loop$[ebp]
  00078	3b 45 f8	 cmp	 eax, DWORD PTR _count$[ebp]
  0007b	7d 0f		 jge	 SHORT $LN3@create_cli

; 313  : 	{
; 314  : 		entity_index_list [loop] = ENTITY_INDEX_DONT_CARE;

  0007d	8b 45 fc	 mov	 eax, DWORD PTR _loop$[ebp]
  00080	8b 4d f4	 mov	 ecx, DWORD PTR _entity_index_list$[ebp]
  00083	c7 04 81 ff ff
	ff ff		 mov	 DWORD PTR [ecx+eax*4], -1

; 315  : 	}

  0008a	eb e0		 jmp	 SHORT $LN2@create_cli
$LN3@create_cli:

; 316  : 
; 317  : 	//
; 318  : 	// call the create function which will create the entities on the server, and also fill in the entity index list
; 319  : 	//
; 320  : 
; 321  : 	create_meta_smoke_list_specified_offset (type, parent, relative_offset, entity_index_list);

  0008c	8b 45 f4	 mov	 eax, DWORD PTR _entity_index_list$[ebp]
  0008f	50		 push	 eax
  00090	8b 4d 10	 mov	 ecx, DWORD PTR _relative_offset$[ebp]
  00093	51		 push	 ecx
  00094	8b 55 0c	 mov	 edx, DWORD PTR _parent$[ebp]
  00097	52		 push	 edx
  00098	8b 45 08	 mov	 eax, DWORD PTR _type$[ebp]
  0009b	50		 push	 eax
  0009c	e8 00 00 00 00	 call	 ?create_meta_smoke_list_specified_offset@@YGHW4META_SMOKE_LIST_TYPES@@PAUENTITY@@PAUVEC3D@@PAH@Z ; create_meta_smoke_list_specified_offset

; 322  : 
; 323  : 	//
; 324  : 	// now notify the clients to create same smoke list and pass them the list of indices to use
; 325  : 	//
; 326  : 
; 327  : 	transmit_entity_comms_message

  000a1	8b 45 f4	 mov	 eax, DWORD PTR _entity_index_list$[ebp]
  000a4	50		 push	 eax
  000a5	8b 4d 10	 mov	 ecx, DWORD PTR _relative_offset$[ebp]
  000a8	51		 push	 ecx
  000a9	8b 55 0c	 mov	 edx, DWORD PTR _parent$[ebp]
  000ac	52		 push	 edx
  000ad	8b 45 08	 mov	 eax, DWORD PTR _type$[ebp]
  000b0	50		 push	 eax
  000b1	6a 00		 push	 0
  000b3	6a 0a		 push	 10			; 0000000aH
  000b5	e8 00 00 00 00	 call	 ?transmit_entity_comms_message@@YAXW4ENTITY_COMMS_MESSAGES@@PAUENTITY@@ZZ ; transmit_entity_comms_message
  000ba	83 c4 18	 add	 esp, 24			; 00000018H

; 328  : 	(
; 329  : 		ENTITY_COMMS_CREATE_META_SMOKE_LIST_SPECIFIED_OFFSET,
; 330  : 		NULL,
; 331  : 		type,
; 332  : 		parent,
; 333  : 		relative_offset,
; 334  : 		entity_index_list
; 335  : 	);
; 336  : 
; 337  : 	//
; 338  : 	//
; 339  : 	//
; 340  : 
; 341  : 	free_mem (entity_index_list);

  000bd	8b 45 f4	 mov	 eax, DWORD PTR _entity_index_list$[ebp]
  000c0	50		 push	 eax
  000c1	e8 00 00 00 00	 call	 ?free_mem@@YGXPAX@Z	; free_mem

; 342  : 
; 343  : 	return count;

  000c6	8b 45 f8	 mov	 eax, DWORD PTR _count$[ebp]

; 344  : }

  000c9	5f		 pop	 edi
  000ca	5e		 pop	 esi
  000cb	5b		 pop	 ebx
  000cc	8b e5		 mov	 esp, ebp
  000ce	5d		 pop	 ebp
  000cf	c2 0c 00	 ret	 12			; 0000000cH
?create_client_server_meta_smoke_list_specified_offset@@YGHW4META_SMOKE_LIST_TYPES@@PAUENTITY@@PAUVEC3D@@@Z ENDP ; create_client_server_meta_smoke_list_specified_offset
_TEXT	ENDS
; Function compile flags: /Odtp /ZI
; File c:\users\nhv90\projects\eech\aphavoc\source\entity\special\effect\smokelst\sl_meta.c
;	COMDAT ?create_client_server_meta_smoke_list_sub_object_offset@@YGHW4META_SMOKE_LIST_TYPES@@PAUENTITY@@HH@Z
_TEXT	SEGMENT
_entity_index_list$ = -12				; size = 4
_count$ = -8						; size = 4
_loop$ = -4						; size = 4
_type$ = 8						; size = 4
_parent$ = 12						; size = 4
_sub_object_type$ = 16					; size = 4
_sub_object_depth$ = 20					; size = 4
?create_client_server_meta_smoke_list_sub_object_offset@@YGHW4META_SMOKE_LIST_TYPES@@PAUENTITY@@HH@Z PROC ; create_client_server_meta_smoke_list_sub_object_offset, COMDAT

; 93   : {

  00000	55		 push	 ebp
  00001	8b ec		 mov	 ebp, esp
  00003	83 ec 4c	 sub	 esp, 76			; 0000004cH
  00006	53		 push	 ebx
  00007	56		 push	 esi
  00008	57		 push	 edi

; 94   : 	int
; 95   : 		loop,
; 96   : 		count,
; 97   : 		*entity_index_list;
; 98   : 
; 99   : 	ASSERT (get_comms_model () == COMMS_MODEL_SERVER);

  00009	83 3d 00 00 00
	00 00		 cmp	 DWORD PTR ?system_comms_model@@3W4COMMS_MODEL_TYPES@@A, 0 ; system_comms_model
  00010	74 18		 je	 SHORT $LN5@create_cli
  00012	a1 00 00 00 00	 mov	 eax, DWORD PTR ?__LINE__Var@?0??create_client_server_meta_smoke_list_sub_object_offset@@YGHW4META_SMOKE_LIST_TYPES@@PAUENTITY@@HH@Z@4JA
  00017	83 c0 06	 add	 eax, 6
  0001a	50		 push	 eax
  0001b	68 00 00 00 00	 push	 OFFSET ??_C@_0FF@KGHFBLGA@c?3?2users?2nhv90?2projects?2eech?2ap@
  00020	68 00 00 00 00	 push	 OFFSET ??_C@_0CJ@DMBLBJBK@get_comms_model?5?$CI?$CJ?5?$DN?$DN?5COMMS_MOD@
  00025	e8 00 00 00 00	 call	 ?process_assert@@YGXPBD0H@Z ; process_assert
$LN5@create_cli:

; 100  : 
; 101  : 	//
; 102  : 	// create an array of entity index numbers and fill them all with ENTITY_INDEX_DONT_CARE
; 103  : 	//
; 104  : 
; 105  : 	count = count_entities_in_meta_smoke_list (type);

  0002a	8b 45 08	 mov	 eax, DWORD PTR _type$[ebp]
  0002d	50		 push	 eax
  0002e	e8 00 00 00 00	 call	 ?count_entities_in_meta_smoke_list@@YGHW4META_SMOKE_LIST_TYPES@@@Z ; count_entities_in_meta_smoke_list
  00033	89 45 f8	 mov	 DWORD PTR _count$[ebp], eax

; 106  : 
; 107  : 	ASSERT (count);

  00036	83 7d f8 00	 cmp	 DWORD PTR _count$[ebp], 0
  0003a	75 18		 jne	 SHORT $LN6@create_cli
  0003c	a1 00 00 00 00	 mov	 eax, DWORD PTR ?__LINE__Var@?0??create_client_server_meta_smoke_list_sub_object_offset@@YGHW4META_SMOKE_LIST_TYPES@@PAUENTITY@@HH@Z@4JA
  00041	83 c0 0e	 add	 eax, 14			; 0000000eH
  00044	50		 push	 eax
  00045	68 00 00 00 00	 push	 OFFSET ??_C@_0FF@KGHFBLGA@c?3?2users?2nhv90?2projects?2eech?2ap@
  0004a	68 00 00 00 00	 push	 OFFSET ??_C@_05IOMEMJEC@count@
  0004f	e8 00 00 00 00	 call	 ?process_assert@@YGXPBD0H@Z ; process_assert
$LN6@create_cli:

; 108  : 
; 109  : 	entity_index_list = (int *) malloc_fast_mem (sizeof (int) * count);

  00054	8b 45 f8	 mov	 eax, DWORD PTR _count$[ebp]
  00057	c1 e0 02	 shl	 eax, 2
  0005a	50		 push	 eax
  0005b	e8 00 00 00 00	 call	 ?malloc_fast_memory@@YGPAXI@Z ; malloc_fast_memory
  00060	89 45 f4	 mov	 DWORD PTR _entity_index_list$[ebp], eax

; 110  : 
; 111  : 	for ( loop = 0 ; loop < count ; loop ++ )

  00063	c7 45 fc 00 00
	00 00		 mov	 DWORD PTR _loop$[ebp], 0
  0006a	eb 09		 jmp	 SHORT $LN4@create_cli
$LN2@create_cli:
  0006c	8b 45 fc	 mov	 eax, DWORD PTR _loop$[ebp]
  0006f	83 c0 01	 add	 eax, 1
  00072	89 45 fc	 mov	 DWORD PTR _loop$[ebp], eax
$LN4@create_cli:
  00075	8b 45 fc	 mov	 eax, DWORD PTR _loop$[ebp]
  00078	3b 45 f8	 cmp	 eax, DWORD PTR _count$[ebp]
  0007b	7d 0f		 jge	 SHORT $LN3@create_cli

; 112  : 	{
; 113  : 		entity_index_list [loop] = ENTITY_INDEX_DONT_CARE;

  0007d	8b 45 fc	 mov	 eax, DWORD PTR _loop$[ebp]
  00080	8b 4d f4	 mov	 ecx, DWORD PTR _entity_index_list$[ebp]
  00083	c7 04 81 ff ff
	ff ff		 mov	 DWORD PTR [ecx+eax*4], -1

; 114  : 	}

  0008a	eb e0		 jmp	 SHORT $LN2@create_cli
$LN3@create_cli:

; 115  : 
; 116  : 	//
; 117  : 	// call the create function which will create the entities on the server, and also fill in the entity index list
; 118  : 	//
; 119  : 
; 120  : 	create_meta_smoke_list_sub_object_offset (type, parent, sub_object_type, sub_object_depth, entity_index_list);

  0008c	8b 45 f4	 mov	 eax, DWORD PTR _entity_index_list$[ebp]
  0008f	50		 push	 eax
  00090	8b 4d 14	 mov	 ecx, DWORD PTR _sub_object_depth$[ebp]
  00093	51		 push	 ecx
  00094	8b 55 10	 mov	 edx, DWORD PTR _sub_object_type$[ebp]
  00097	52		 push	 edx
  00098	8b 45 0c	 mov	 eax, DWORD PTR _parent$[ebp]
  0009b	50		 push	 eax
  0009c	8b 4d 08	 mov	 ecx, DWORD PTR _type$[ebp]
  0009f	51		 push	 ecx
  000a0	e8 00 00 00 00	 call	 ?create_meta_smoke_list_sub_object_offset@@YGHW4META_SMOKE_LIST_TYPES@@PAUENTITY@@HHPAH@Z ; create_meta_smoke_list_sub_object_offset

; 121  : 
; 122  : 	//
; 123  : 	// now notify the clients to create same smoke list and pass them the list of indices to use
; 124  : 	//
; 125  : 
; 126  : 	transmit_entity_comms_message

  000a5	8b 45 f4	 mov	 eax, DWORD PTR _entity_index_list$[ebp]
  000a8	50		 push	 eax
  000a9	8b 4d 14	 mov	 ecx, DWORD PTR _sub_object_depth$[ebp]
  000ac	51		 push	 ecx
  000ad	8b 55 10	 mov	 edx, DWORD PTR _sub_object_type$[ebp]
  000b0	52		 push	 edx
  000b1	8b 45 0c	 mov	 eax, DWORD PTR _parent$[ebp]
  000b4	50		 push	 eax
  000b5	8b 4d 08	 mov	 ecx, DWORD PTR _type$[ebp]
  000b8	51		 push	 ecx
  000b9	6a 00		 push	 0
  000bb	6a 0b		 push	 11			; 0000000bH
  000bd	e8 00 00 00 00	 call	 ?transmit_entity_comms_message@@YAXW4ENTITY_COMMS_MESSAGES@@PAUENTITY@@ZZ ; transmit_entity_comms_message
  000c2	83 c4 1c	 add	 esp, 28			; 0000001cH

; 127  : 	(
; 128  : 		ENTITY_COMMS_CREATE_META_SMOKE_LIST_SUB_OBJECT_OFFSET,
; 129  : 		NULL,
; 130  : 		type,
; 131  : 		parent,
; 132  : 		sub_object_type,
; 133  : 		sub_object_depth,
; 134  : 		entity_index_list
; 135  : 	);
; 136  : 
; 137  : 	//
; 138  : 	//
; 139  : 	//
; 140  : 
; 141  : 	free_mem (entity_index_list);

  000c5	8b 45 f4	 mov	 eax, DWORD PTR _entity_index_list$[ebp]
  000c8	50		 push	 eax
  000c9	e8 00 00 00 00	 call	 ?free_mem@@YGXPAX@Z	; free_mem

; 142  : 
; 143  : 	return count;

  000ce	8b 45 f8	 mov	 eax, DWORD PTR _count$[ebp]

; 144  : }

  000d1	5f		 pop	 edi
  000d2	5e		 pop	 esi
  000d3	5b		 pop	 ebx
  000d4	8b e5		 mov	 esp, ebp
  000d6	5d		 pop	 ebp
  000d7	c2 10 00	 ret	 16			; 00000010H
?create_client_server_meta_smoke_list_sub_object_offset@@YGHW4META_SMOKE_LIST_TYPES@@PAUENTITY@@HH@Z ENDP ; create_client_server_meta_smoke_list_sub_object_offset
_TEXT	ENDS
; Function compile flags: /Odtp /ZI
; File c:\program files (x86)\windows kits\10\include\10.0.18362.0\ucrt\string.h
;	COMDAT ?strchr@@YAPADQADH@Z
_TEXT	SEGMENT
__String$ = 8						; size = 4
__Ch$ = 12						; size = 4
?strchr@@YAPADQADH@Z PROC				; strchr, COMDAT

; 505  :     {

  00000	55		 push	 ebp
  00001	8b ec		 mov	 ebp, esp
  00003	83 ec 40	 sub	 esp, 64			; 00000040H
  00006	53		 push	 ebx
  00007	56		 push	 esi
  00008	57		 push	 edi

; 506  :         return const_cast<char*>(strchr(static_cast<char const*>(_String), _Ch));

  00009	8b 45 0c	 mov	 eax, DWORD PTR __Ch$[ebp]
  0000c	50		 push	 eax
  0000d	8b 4d 08	 mov	 ecx, DWORD PTR __String$[ebp]
  00010	51		 push	 ecx
  00011	e8 00 00 00 00	 call	 _strchr
  00016	83 c4 08	 add	 esp, 8

; 507  :     }

  00019	5f		 pop	 edi
  0001a	5e		 pop	 esi
  0001b	5b		 pop	 ebx
  0001c	8b e5		 mov	 esp, ebp
  0001e	5d		 pop	 ebp
  0001f	c3		 ret	 0
?strchr@@YAPADQADH@Z ENDP				; strchr
_TEXT	ENDS
; Function compile flags: /Odtp /ZI
; File c:\program files (x86)\windows kits\10\include\10.0.18362.0\ucrt\stdio.h
;	COMDAT _sscanf
_TEXT	SEGMENT
__ArgList$ = -8						; size = 4
__Result$ = -4						; size = 4
__Buffer$ = 8						; size = 4
__Format$ = 12						; size = 4
_sscanf	PROC						; COMDAT

; 2270 :     {

  00000	55		 push	 ebp
  00001	8b ec		 mov	 ebp, esp
  00003	83 ec 4c	 sub	 esp, 76			; 0000004cH
  00006	53		 push	 ebx
  00007	56		 push	 esi
  00008	57		 push	 edi

; 2271 :         int _Result;
; 2272 :         va_list _ArgList;
; 2273 :         __crt_va_start(_ArgList, _Format);

  00009	8d 45 10	 lea	 eax, DWORD PTR __Format$[ebp+4]
  0000c	89 45 f8	 mov	 DWORD PTR __ArgList$[ebp], eax

; 2274 :         _Result = _vsscanf_l(_Buffer, _Format, NULL, _ArgList);

  0000f	8b 45 f8	 mov	 eax, DWORD PTR __ArgList$[ebp]
  00012	50		 push	 eax
  00013	6a 00		 push	 0
  00015	8b 4d 0c	 mov	 ecx, DWORD PTR __Format$[ebp]
  00018	51		 push	 ecx
  00019	8b 55 08	 mov	 edx, DWORD PTR __Buffer$[ebp]
  0001c	52		 push	 edx
  0001d	e8 00 00 00 00	 call	 __vsscanf_l
  00022	83 c4 10	 add	 esp, 16			; 00000010H
  00025	89 45 fc	 mov	 DWORD PTR __Result$[ebp], eax

; 2275 :         __crt_va_end(_ArgList);

  00028	c7 45 f8 00 00
	00 00		 mov	 DWORD PTR __ArgList$[ebp], 0

; 2276 :         return _Result;

  0002f	8b 45 fc	 mov	 eax, DWORD PTR __Result$[ebp]

; 2277 :     }

  00032	5f		 pop	 edi
  00033	5e		 pop	 esi
  00034	5b		 pop	 ebx
  00035	8b e5		 mov	 esp, ebp
  00037	5d		 pop	 ebp
  00038	c3		 ret	 0
_sscanf	ENDP
_TEXT	ENDS
; Function compile flags: /Odtp /ZI
; File c:\program files (x86)\windows kits\10\include\10.0.18362.0\ucrt\stdio.h
;	COMDAT __vsscanf_l
_TEXT	SEGMENT
__Buffer$ = 8						; size = 4
__Format$ = 12						; size = 4
__Locale$ = 16						; size = 4
__ArgList$ = 20						; size = 4
__vsscanf_l PROC					; COMDAT

; 2175 :     {

  00000	55		 push	 ebp
  00001	8b ec		 mov	 ebp, esp
  00003	83 ec 40	 sub	 esp, 64			; 00000040H
  00006	53		 push	 ebx
  00007	56		 push	 esi
  00008	57		 push	 edi

; 2176 :         return __stdio_common_vsscanf(

  00009	8b 45 14	 mov	 eax, DWORD PTR __ArgList$[ebp]
  0000c	50		 push	 eax
  0000d	8b 4d 10	 mov	 ecx, DWORD PTR __Locale$[ebp]
  00010	51		 push	 ecx
  00011	8b 55 0c	 mov	 edx, DWORD PTR __Format$[ebp]
  00014	52		 push	 edx
  00015	6a ff		 push	 -1
  00017	8b 45 08	 mov	 eax, DWORD PTR __Buffer$[ebp]
  0001a	50		 push	 eax
  0001b	e8 00 00 00 00	 call	 ___local_stdio_scanf_options
  00020	8b 48 04	 mov	 ecx, DWORD PTR [eax+4]
  00023	51		 push	 ecx
  00024	8b 10		 mov	 edx, DWORD PTR [eax]
  00026	52		 push	 edx
  00027	ff 15 00 00 00
	00		 call	 DWORD PTR __imp____stdio_common_vsscanf
  0002d	83 c4 1c	 add	 esp, 28			; 0000001cH

; 2177 :             _CRT_INTERNAL_LOCAL_SCANF_OPTIONS,
; 2178 :             _Buffer, (size_t)-1, _Format, _Locale, _ArgList);
; 2179 :     }

  00030	5f		 pop	 edi
  00031	5e		 pop	 esi
  00032	5b		 pop	 ebx
  00033	8b e5		 mov	 esp, ebp
  00035	5d		 pop	 ebp
  00036	c3		 ret	 0
__vsscanf_l ENDP
_TEXT	ENDS
; Function compile flags: /Odtp /ZI
; File c:\program files (x86)\windows kits\10\include\10.0.18362.0\ucrt\stdio.h
;	COMDAT _fprintf
_TEXT	SEGMENT
__ArgList$ = -8						; size = 4
__Result$ = -4						; size = 4
__Stream$ = 8						; size = 4
__Format$ = 12						; size = 4
_fprintf PROC						; COMDAT

; 835  :     {

  00000	55		 push	 ebp
  00001	8b ec		 mov	 ebp, esp
  00003	83 ec 4c	 sub	 esp, 76			; 0000004cH
  00006	53		 push	 ebx
  00007	56		 push	 esi
  00008	57		 push	 edi

; 836  :         int _Result;
; 837  :         va_list _ArgList;
; 838  :         __crt_va_start(_ArgList, _Format);

  00009	8d 45 10	 lea	 eax, DWORD PTR __Format$[ebp+4]
  0000c	89 45 f8	 mov	 DWORD PTR __ArgList$[ebp], eax

; 839  :         _Result = _vfprintf_l(_Stream, _Format, NULL, _ArgList);

  0000f	8b 45 f8	 mov	 eax, DWORD PTR __ArgList$[ebp]
  00012	50		 push	 eax
  00013	6a 00		 push	 0
  00015	8b 4d 0c	 mov	 ecx, DWORD PTR __Format$[ebp]
  00018	51		 push	 ecx
  00019	8b 55 08	 mov	 edx, DWORD PTR __Stream$[ebp]
  0001c	52		 push	 edx
  0001d	e8 00 00 00 00	 call	 __vfprintf_l
  00022	83 c4 10	 add	 esp, 16			; 00000010H
  00025	89 45 fc	 mov	 DWORD PTR __Result$[ebp], eax

; 840  :         __crt_va_end(_ArgList);

  00028	c7 45 f8 00 00
	00 00		 mov	 DWORD PTR __ArgList$[ebp], 0

; 841  :         return _Result;

  0002f	8b 45 fc	 mov	 eax, DWORD PTR __Result$[ebp]

; 842  :     }

  00032	5f		 pop	 edi
  00033	5e		 pop	 esi
  00034	5b		 pop	 ebx
  00035	8b e5		 mov	 esp, ebp
  00037	5d		 pop	 ebp
  00038	c3		 ret	 0
_fprintf ENDP
_TEXT	ENDS
; Function compile flags: /Odtp /ZI
; File c:\program files (x86)\windows kits\10\include\10.0.18362.0\ucrt\stdio.h
;	COMDAT __vfprintf_l
_TEXT	SEGMENT
__Stream$ = 8						; size = 4
__Format$ = 12						; size = 4
__Locale$ = 16						; size = 4
__ArgList$ = 20						; size = 4
__vfprintf_l PROC					; COMDAT

; 642  :     {

  00000	55		 push	 ebp
  00001	8b ec		 mov	 ebp, esp
  00003	83 ec 40	 sub	 esp, 64			; 00000040H
  00006	53		 push	 ebx
  00007	56		 push	 esi
  00008	57		 push	 edi

; 643  :         return __stdio_common_vfprintf(_CRT_INTERNAL_LOCAL_PRINTF_OPTIONS, _Stream, _Format, _Locale, _ArgList);

  00009	8b 45 14	 mov	 eax, DWORD PTR __ArgList$[ebp]
  0000c	50		 push	 eax
  0000d	8b 4d 10	 mov	 ecx, DWORD PTR __Locale$[ebp]
  00010	51		 push	 ecx
  00011	8b 55 0c	 mov	 edx, DWORD PTR __Format$[ebp]
  00014	52		 push	 edx
  00015	8b 45 08	 mov	 eax, DWORD PTR __Stream$[ebp]
  00018	50		 push	 eax
  00019	e8 00 00 00 00	 call	 ___local_stdio_printf_options
  0001e	8b 48 04	 mov	 ecx, DWORD PTR [eax+4]
  00021	51		 push	 ecx
  00022	8b 10		 mov	 edx, DWORD PTR [eax]
  00024	52		 push	 edx
  00025	ff 15 00 00 00
	00		 call	 DWORD PTR __imp____stdio_common_vfprintf
  0002b	83 c4 18	 add	 esp, 24			; 00000018H

; 644  :     }

  0002e	5f		 pop	 edi
  0002f	5e		 pop	 esi
  00030	5b		 pop	 ebx
  00031	8b e5		 mov	 esp, ebp
  00033	5d		 pop	 ebp
  00034	c3		 ret	 0
__vfprintf_l ENDP
_TEXT	ENDS
; Function compile flags: /Odtp /ZI
; File c:\program files (x86)\windows kits\10\include\10.0.18362.0\ucrt\corecrt_stdio_config.h
;	COMDAT ___local_stdio_scanf_options
_TEXT	SEGMENT
___local_stdio_scanf_options PROC			; COMDAT

; 96   :     {

  00000	55		 push	 ebp
  00001	8b ec		 mov	 ebp, esp
  00003	83 ec 40	 sub	 esp, 64			; 00000040H
  00006	53		 push	 ebx
  00007	56		 push	 esi
  00008	57		 push	 edi

; 97   :         static unsigned __int64 _OptionsStorage;
; 98   :         return &_OptionsStorage;

  00009	b8 00 00 00 00	 mov	 eax, OFFSET ?_OptionsStorage@?1??__local_stdio_scanf_options@@9@4_KA ; `__local_stdio_scanf_options'::`2'::_OptionsStorage

; 99   :     }

  0000e	5f		 pop	 edi
  0000f	5e		 pop	 esi
  00010	5b		 pop	 ebx
  00011	8b e5		 mov	 esp, ebp
  00013	5d		 pop	 ebp
  00014	c3		 ret	 0
___local_stdio_scanf_options ENDP
_TEXT	ENDS
; Function compile flags: /Odtp /ZI
; File c:\program files (x86)\windows kits\10\include\10.0.18362.0\ucrt\corecrt_stdio_config.h
;	COMDAT ___local_stdio_printf_options
_TEXT	SEGMENT
___local_stdio_printf_options PROC			; COMDAT

; 86   :     {

  00000	55		 push	 ebp
  00001	8b ec		 mov	 ebp, esp
  00003	83 ec 40	 sub	 esp, 64			; 00000040H
  00006	53		 push	 ebx
  00007	56		 push	 esi
  00008	57		 push	 edi

; 87   :         static unsigned __int64 _OptionsStorage;
; 88   :         return &_OptionsStorage;

  00009	b8 00 00 00 00	 mov	 eax, OFFSET ?_OptionsStorage@?1??__local_stdio_printf_options@@9@4_KA ; `__local_stdio_printf_options'::`2'::_OptionsStorage

; 89   :     }

  0000e	5f		 pop	 edi
  0000f	5e		 pop	 esi
  00010	5b		 pop	 ebx
  00011	8b e5		 mov	 esp, ebp
  00013	5d		 pop	 ebp
  00014	c3		 ret	 0
___local_stdio_printf_options ENDP
_TEXT	ENDS
END
