; Listing generated by Microsoft (R) Optimizing Compiler Version 19.16.27045.0 

	TITLE	C:\Users\nhv90\Projects\eech\aphavoc\source\entity\fixed\scenic\sn_draw.c
	.686P
	.XMM
	include listing.inc
	.model	flat

INCLUDELIB MSVCRTD
INCLUDELIB OLDNAMES

PUBLIC	?overload_scenic_draw_functions@@YGXXZ		; overload_scenic_draw_functions
PUBLIC	?__LINE__Var@?0??draw_local_3d_object@@YGXPAUENTITY@@M@Z@4JA ; `draw_local_3d_object'::`1'::__LINE__Var
PUBLIC	??_C@_0EK@IIMHFMJD@c?3?2users?2nhv90?2projects?2eech?2ap@ ; `string'
PUBLIC	__real@0000000000000000
EXTRN	_memcpy:PROC
EXTRN	?process_assert@@YGXPBD0H@Z:PROC		; process_assert
EXTRN	?get_3d_transformation_matrix@@YGXQAY02MMMM@Z:PROC ; get_3d_transformation_matrix
EXTRN	?get_3d_transformation_matrix_from_face_normal_and_heading@@YGXQAY02MPBUVEC3D@@M@Z:PROC ; get_3d_transformation_matrix_from_face_normal_and_heading
EXTRN	?get_object_shadow_polygon_object@@YGHH@Z:PROC	; get_object_shadow_polygon_object
EXTRN	?insert_zbiased_object_into_3d_scene@@YGXW4OBJECT_3D_DRAWING_TYPES@@PAXM@Z:PROC ; insert_zbiased_object_into_3d_scene
EXTRN	?construct_temporary_3d_object@@YGPAUOBJECT_3D_INSTANCE@@HH@Z:PROC ; construct_temporary_3d_object
EXTRN	?get_3d_terrain_face_normal@@YGXPAUVEC3D@@MM@Z:PROC ; get_3d_terrain_face_normal
EXTRN	?null_entity_pointer_message@@3PBDB:DWORD	; null_entity_pointer_message
EXTRN	?fn_draw_local_entity_3d_object@@3PAP6GXPAUENTITY@@M@ZA:BYTE ; fn_draw_local_entity_3d_object
EXTRN	?overload_invalid_int_type_message@@3PBDB:DWORD	; overload_invalid_int_type_message
EXTRN	?fn_get_local_entity_int_value@@3PAY0BBH@P6GHPAUENTITY@@W4INT_TYPES@@@ZA:BYTE ; fn_get_local_entity_int_value
EXTRN	?fixed_database@@3QBUFIXED_DATA@@B:BYTE		; fixed_database
EXTRN	?session_entity@@3PAUENTITY@@A:DWORD		; session_entity
EXTRN	__fltused:DWORD
;	COMDAT __real@0000000000000000
CONST	SEGMENT
__real@0000000000000000 DQ 00000000000000000r	; 0
CONST	ENDS
;	COMDAT ??_C@_0EK@IIMHFMJD@c?3?2users?2nhv90?2projects?2eech?2ap@
CONST	SEGMENT
??_C@_0EK@IIMHFMJD@c?3?2users?2nhv90?2projects?2eech?2ap@ DB 'c:\users\nh'
	DB	'v90\projects\eech\aphavoc\source\entity\fixed\scenic\sn_draw.'
	DB	'c', 00H					; `string'
CONST	ENDS
;	COMDAT ?__LINE__Var@?0??draw_local_3d_object@@YGXPAUENTITY@@M@Z@4JA
_DATA	SEGMENT
?__LINE__Var@?0??draw_local_3d_object@@YGXPAUENTITY@@M@Z@4JA DD 050H ; `draw_local_3d_object'::`1'::__LINE__Var
_DATA	ENDS
; Function compile flags: /Odtp /ZI
; File c:\users\nhv90\projects\eech\aphavoc\source\entity\fixed\scenic\sn_draw.c
;	COMDAT ?draw_local_3d_object@@YGXPAUENTITY@@M@Z
_TEXT	SEGMENT
tv161 = -96						; size = 4
tv170 = -92						; size = 4
tv153 = -92						; size = 4
_day_segment_type$ = -24				; size = 4
_face_normal$ = -20					; size = 12
_inst3d$ = -8						; size = 4
_raw$ = -4						; size = 4
_en$ = 8						; size = 4
_range$ = 12						; size = 4
?draw_local_3d_object@@YGXPAUENTITY@@M@Z PROC		; draw_local_3d_object, COMDAT

; 80   : {

  00000	55		 push	 ebp
  00001	8b ec		 mov	 ebp, esp
  00003	83 ec 60	 sub	 esp, 96			; 00000060H
  00006	53		 push	 ebx
  00007	56		 push	 esi
  00008	57		 push	 edi

; 81   : 	scenic
; 82   : 		*raw;
; 83   : 
; 84   : 	object_3d_instance
; 85   : 		*inst3d;
; 86   : 
; 87   : 	vec3d
; 88   : 		face_normal;
; 89   : 
; 90   : 	day_segment_types
; 91   : 		day_segment_type;
; 92   : 
; 93   : 	raw = (scenic *) get_local_entity_data (en);

  00009	8b 45 08	 mov	 eax, DWORD PTR _en$[ebp]
  0000c	8b 48 04	 mov	 ecx, DWORD PTR [eax+4]
  0000f	89 4d fc	 mov	 DWORD PTR _raw$[ebp], ecx

; 94   : 
; 95   : 	inst3d = construct_temporary_3d_object (raw->fix.object_3d_shape, FALSE);

  00012	6a 00		 push	 0
  00014	8b 45 fc	 mov	 eax, DWORD PTR _raw$[ebp]
  00017	8b 48 38	 mov	 ecx, DWORD PTR [eax+56]
  0001a	c1 e9 08	 shr	 ecx, 8
  0001d	81 e1 ff 0f 00
	00		 and	 ecx, 4095		; 00000fffH
  00023	51		 push	 ecx
  00024	e8 00 00 00 00	 call	 ?construct_temporary_3d_object@@YGPAUOBJECT_3D_INSTANCE@@HH@Z ; construct_temporary_3d_object
  00029	89 45 f8	 mov	 DWORD PTR _inst3d$[ebp], eax

; 96   : 
; 97   : 	if (inst3d)

  0002c	83 7d f8 00	 cmp	 DWORD PTR _inst3d$[ebp], 0
  00030	0f 84 c1 01 00
	00		 je	 $LN2@draw_local

; 98   : 	{
; 99   : 		memcpy (&inst3d->vp.position, &raw->fix.position, sizeof (vec3d));

  00036	6a 0c		 push	 12			; 0000000cH
  00038	8b 45 fc	 mov	 eax, DWORD PTR _raw$[ebp]
  0003b	50		 push	 eax
  0003c	8b 4d f8	 mov	 ecx, DWORD PTR _inst3d$[ebp]
  0003f	83 c1 08	 add	 ecx, 8
  00042	51		 push	 ecx
  00043	e8 00 00 00 00	 call	 _memcpy
  00048	83 c4 0c	 add	 esp, 12			; 0000000cH

; 100  : 
; 101  : 		if (fixed_database[raw->fix.sub_type].align_with_terrain)

  0004b	8b 45 fc	 mov	 eax, DWORD PTR _raw$[ebp]
  0004e	8b 48 38	 mov	 ecx, DWORD PTR [eax+56]
  00051	81 e1 ff 00 00
	00		 and	 ecx, 255		; 000000ffH
  00057	c1 e1 04	 shl	 ecx, 4
  0005a	83 b9 04 00 00
	00 00		 cmp	 DWORD PTR ?fixed_database@@3QBUFIXED_DATA@@B[ecx+4], 0
  00061	74 44		 je	 SHORT $LN3@draw_local

; 102  : 		{
; 103  : 			get_3d_terrain_face_normal (&face_normal, raw->fix.position.x, raw->fix.position.z);

  00063	8b 45 fc	 mov	 eax, DWORD PTR _raw$[ebp]
  00066	51		 push	 ecx
  00067	f3 0f 10 40 08	 movss	 xmm0, DWORD PTR [eax+8]
  0006c	f3 0f 11 04 24	 movss	 DWORD PTR [esp], xmm0
  00071	8b 4d fc	 mov	 ecx, DWORD PTR _raw$[ebp]
  00074	51		 push	 ecx
  00075	f3 0f 10 01	 movss	 xmm0, DWORD PTR [ecx]
  00079	f3 0f 11 04 24	 movss	 DWORD PTR [esp], xmm0
  0007e	8d 55 ec	 lea	 edx, DWORD PTR _face_normal$[ebp]
  00081	52		 push	 edx
  00082	e8 00 00 00 00	 call	 ?get_3d_terrain_face_normal@@YGXPAUVEC3D@@MM@Z ; get_3d_terrain_face_normal

; 104  : 
; 105  : 			get_3d_transformation_matrix_from_face_normal_and_heading (inst3d->vp.attitude, &face_normal, raw->fix.heading);

  00087	8b 45 fc	 mov	 eax, DWORD PTR _raw$[ebp]
  0008a	51		 push	 ecx
  0008b	f3 0f 10 40 3c	 movss	 xmm0, DWORD PTR [eax+60]
  00090	f3 0f 11 04 24	 movss	 DWORD PTR [esp], xmm0
  00095	8d 4d ec	 lea	 ecx, DWORD PTR _face_normal$[ebp]
  00098	51		 push	 ecx
  00099	8b 55 f8	 mov	 edx, DWORD PTR _inst3d$[ebp]
  0009c	83 c2 14	 add	 edx, 20			; 00000014H
  0009f	52		 push	 edx
  000a0	e8 00 00 00 00	 call	 ?get_3d_transformation_matrix_from_face_normal_and_heading@@YGXQAY02MPBUVEC3D@@M@Z ; get_3d_transformation_matrix_from_face_normal_and_heading

; 106  : 		}
; 107  : 		else

  000a5	eb 42		 jmp	 SHORT $LN5@draw_local
$LN3@draw_local:

; 108  : 		{
; 109  : 			if (raw->fix.heading != 0.0)

  000a7	8b 45 fc	 mov	 eax, DWORD PTR _raw$[ebp]
  000aa	f3 0f 5a 40 3c	 cvtss2sd xmm0, DWORD PTR [eax+60]
  000af	66 0f 2e 05 00
	00 00 00	 ucomisd xmm0, QWORD PTR __real@0000000000000000
  000b7	9f		 lahf
  000b8	f6 c4 44	 test	 ah, 68			; 00000044H
  000bb	7b 2c		 jnp	 SHORT $LN5@draw_local

; 110  : 			{
; 111  : 				get_3d_transformation_matrix (inst3d->vp.attitude, raw->fix.heading, 0.0, 0.0);

  000bd	51		 push	 ecx
  000be	0f 57 c0	 xorps	 xmm0, xmm0
  000c1	f3 0f 11 04 24	 movss	 DWORD PTR [esp], xmm0
  000c6	51		 push	 ecx
  000c7	0f 57 c0	 xorps	 xmm0, xmm0
  000ca	f3 0f 11 04 24	 movss	 DWORD PTR [esp], xmm0
  000cf	8b 45 fc	 mov	 eax, DWORD PTR _raw$[ebp]
  000d2	51		 push	 ecx
  000d3	f3 0f 10 40 3c	 movss	 xmm0, DWORD PTR [eax+60]
  000d8	f3 0f 11 04 24	 movss	 DWORD PTR [esp], xmm0
  000dd	8b 4d f8	 mov	 ecx, DWORD PTR _inst3d$[ebp]
  000e0	83 c1 14	 add	 ecx, 20			; 00000014H
  000e3	51		 push	 ecx
  000e4	e8 00 00 00 00	 call	 ?get_3d_transformation_matrix@@YGXQAY02MMMM@Z ; get_3d_transformation_matrix
$LN5@draw_local:

; 112  : 			}
; 113  : 		}
; 114  : 
; 115  : 		day_segment_type = (day_segment_types) get_local_entity_int_value (get_session_entity (), INT_TYPE_DAY_SEGMENT_TYPE);

  000e9	83 3d 00 00 00
	00 00		 cmp	 DWORD PTR ?session_entity@@3PAUENTITY@@A, 0 ; session_entity
  000f0	74 0c		 je	 SHORT $LN9@draw_local
  000f2	a1 00 00 00 00	 mov	 eax, DWORD PTR ?session_entity@@3PAUENTITY@@A ; session_entity
  000f7	8b 08		 mov	 ecx, DWORD PTR [eax]
  000f9	89 4d a4	 mov	 DWORD PTR tv153[ebp], ecx
  000fc	eb 21		 jmp	 SHORT $LN10@draw_local
$LN9@draw_local:
  000fe	8b 15 00 00 00
	00		 mov	 edx, DWORD PTR ?__LINE__Var@?0??draw_local_3d_object@@YGXPAUENTITY@@M@Z@4JA
  00104	83 c2 23	 add	 edx, 35			; 00000023H
  00107	52		 push	 edx
  00108	68 00 00 00 00	 push	 OFFSET ??_C@_0EK@IIMHFMJD@c?3?2users?2nhv90?2projects?2eech?2ap@
  0010d	a1 00 00 00 00	 mov	 eax, DWORD PTR ?null_entity_pointer_message@@3PBDB ; null_entity_pointer_message
  00112	50		 push	 eax
  00113	e8 00 00 00 00	 call	 ?process_assert@@YGXPBD0H@Z ; process_assert
  00118	c7 45 a4 00 00
	00 00		 mov	 DWORD PTR tv153[ebp], 0
$LN10@draw_local:
  0011f	b9 01 00 00 00	 mov	 ecx, 1
  00124	85 c9		 test	 ecx, ecx
  00126	74 09		 je	 SHORT $LN11@draw_local
  00128	c7 45 a0 27 00
	00 00		 mov	 DWORD PTR tv161[ebp], 39 ; 00000027H
  0012f	eb 21		 jmp	 SHORT $LN12@draw_local
$LN11@draw_local:
  00131	8b 15 00 00 00
	00		 mov	 edx, DWORD PTR ?__LINE__Var@?0??draw_local_3d_object@@YGXPAUENTITY@@M@Z@4JA
  00137	83 c2 23	 add	 edx, 35			; 00000023H
  0013a	52		 push	 edx
  0013b	68 00 00 00 00	 push	 OFFSET ??_C@_0EK@IIMHFMJD@c?3?2users?2nhv90?2projects?2eech?2ap@
  00140	a1 00 00 00 00	 mov	 eax, DWORD PTR ?overload_invalid_int_type_message@@3PBDB ; overload_invalid_int_type_message
  00145	50		 push	 eax
  00146	e8 00 00 00 00	 call	 ?process_assert@@YGXPBD0H@Z ; process_assert
  0014b	c7 45 a0 00 00
	00 00		 mov	 DWORD PTR tv161[ebp], 0
$LN12@draw_local:
  00152	6a 27		 push	 39			; 00000027H
  00154	8b 0d 00 00 00
	00		 mov	 ecx, DWORD PTR ?session_entity@@3PAUENTITY@@A ; session_entity
  0015a	51		 push	 ecx
  0015b	69 55 a4 5c 04
	00 00		 imul	 edx, DWORD PTR tv153[ebp], 1116
  00162	8b 45 a0	 mov	 eax, DWORD PTR tv161[ebp]
  00165	8b 8c 82 00 00
	00 00		 mov	 ecx, DWORD PTR ?fn_get_local_entity_int_value@@3PAY0BBH@P6GHPAUENTITY@@W4INT_TYPES@@@ZA[edx+eax*4]
  0016c	ff d1		 call	 ecx
  0016e	89 45 e8	 mov	 DWORD PTR _day_segment_type$[ebp], eax

; 116  : 
; 117  : 		inst3d->object_sprite_lights = ((day_segment_type == DAY_SEGMENT_TYPE_NIGHT) || (day_segment_type == DAY_SEGMENT_TYPE_DUSK));

  00171	83 7d e8 03	 cmp	 DWORD PTR _day_segment_type$[ebp], 3
  00175	74 0f		 je	 SHORT $LN13@draw_local
  00177	83 7d e8 02	 cmp	 DWORD PTR _day_segment_type$[ebp], 2
  0017b	74 09		 je	 SHORT $LN13@draw_local
  0017d	c7 45 a4 00 00
	00 00		 mov	 DWORD PTR tv170[ebp], 0
  00184	eb 07		 jmp	 SHORT $LN14@draw_local
$LN13@draw_local:
  00186	c7 45 a4 01 00
	00 00		 mov	 DWORD PTR tv170[ebp], 1
$LN14@draw_local:
  0018d	8b 45 a4	 mov	 eax, DWORD PTR tv170[ebp]
  00190	83 e0 01	 and	 eax, 1
  00193	c1 e0 0c	 shl	 eax, 12			; 0000000cH
  00196	8b 4d f8	 mov	 ecx, DWORD PTR _inst3d$[ebp]
  00199	8b 51 50	 mov	 edx, DWORD PTR [ecx+80]
  0019c	81 e2 ff ef ff
	ff		 and	 edx, -4097		; ffffefffH
  001a2	0b d0		 or	 edx, eax
  001a4	8b 45 f8	 mov	 eax, DWORD PTR _inst3d$[ebp]
  001a7	89 50 50	 mov	 DWORD PTR [eax+80], edx

; 118  : 
; 119  : 		if ( get_object_shadow_polygon_object ( raw->fix.object_3d_shape ) )

  001aa	8b 45 fc	 mov	 eax, DWORD PTR _raw$[ebp]
  001ad	8b 48 38	 mov	 ecx, DWORD PTR [eax+56]
  001b0	c1 e9 08	 shr	 ecx, 8
  001b3	81 e1 ff 0f 00
	00		 and	 ecx, 4095		; 00000fffH
  001b9	51		 push	 ecx
  001ba	e8 00 00 00 00	 call	 ?get_object_shadow_polygon_object@@YGHH@Z ; get_object_shadow_polygon_object
  001bf	85 c0		 test	 eax, eax
  001c1	74 11		 je	 SHORT $LN6@draw_local

; 120  : 		{
; 121  : 			inst3d->object_has_shadow = TRUE;

  001c3	8b 45 f8	 mov	 eax, DWORD PTR _inst3d$[ebp]
  001c6	8b 48 50	 mov	 ecx, DWORD PTR [eax+80]
  001c9	83 c9 04	 or	 ecx, 4
  001cc	8b 55 f8	 mov	 edx, DWORD PTR _inst3d$[ebp]
  001cf	89 4a 50	 mov	 DWORD PTR [edx+80], ecx

; 122  : 		}
; 123  : 		else

  001d2	eb 0f		 jmp	 SHORT $LN7@draw_local
$LN6@draw_local:

; 124  : 		{
; 125  : 			inst3d->object_has_shadow = FALSE;

  001d4	8b 45 f8	 mov	 eax, DWORD PTR _inst3d$[ebp]
  001d7	8b 48 50	 mov	 ecx, DWORD PTR [eax+80]
  001da	83 e1 fb	 and	 ecx, -5			; fffffffbH
  001dd	8b 55 f8	 mov	 edx, DWORD PTR _inst3d$[ebp]
  001e0	89 4a 50	 mov	 DWORD PTR [edx+80], ecx
$LN7@draw_local:

; 126  : 		}
; 127  : 
; 128  : 		insert_object_into_3d_scene (OBJECT_3D_DRAW_TYPE_OBJECT, inst3d);

  001e3	51		 push	 ecx
  001e4	0f 57 c0	 xorps	 xmm0, xmm0
  001e7	f3 0f 11 04 24	 movss	 DWORD PTR [esp], xmm0
  001ec	8b 45 f8	 mov	 eax, DWORD PTR _inst3d$[ebp]
  001ef	50		 push	 eax
  001f0	6a 01		 push	 1
  001f2	e8 00 00 00 00	 call	 ?insert_zbiased_object_into_3d_scene@@YGXW4OBJECT_3D_DRAWING_TYPES@@PAXM@Z ; insert_zbiased_object_into_3d_scene
$LN2@draw_local:

; 129  : 	}
; 130  : }

  001f7	5f		 pop	 edi
  001f8	5e		 pop	 esi
  001f9	5b		 pop	 ebx
  001fa	8b e5		 mov	 esp, ebp
  001fc	5d		 pop	 ebp
  001fd	c2 08 00	 ret	 8
?draw_local_3d_object@@YGXPAUENTITY@@M@Z ENDP		; draw_local_3d_object
_TEXT	ENDS
; Function compile flags: /Odtp /ZI
; File c:\users\nhv90\projects\eech\aphavoc\source\entity\fixed\scenic\sn_draw.c
;	COMDAT ?overload_scenic_draw_functions@@YGXXZ
_TEXT	SEGMENT
?overload_scenic_draw_functions@@YGXXZ PROC		; overload_scenic_draw_functions, COMDAT

; 137  : {

  00000	55		 push	 ebp
  00001	8b ec		 mov	 ebp, esp
  00003	83 ec 40	 sub	 esp, 64			; 00000040H
  00006	53		 push	 ebx
  00007	56		 push	 esi
  00008	57		 push	 edi

; 138  : 	fn_draw_local_entity_3d_object[ENTITY_TYPE_SCENIC]	= draw_local_3d_object;

  00009	b8 04 00 00 00	 mov	 eax, 4
  0000e	6b c8 18	 imul	 ecx, eax, 24
  00011	c7 81 00 00 00
	00 00 00 00 00	 mov	 DWORD PTR ?fn_draw_local_entity_3d_object@@3PAP6GXPAUENTITY@@M@ZA[ecx], OFFSET ?draw_local_3d_object@@YGXPAUENTITY@@M@Z ; draw_local_3d_object

; 139  : }

  0001b	5f		 pop	 edi
  0001c	5e		 pop	 esi
  0001d	5b		 pop	 ebx
  0001e	8b e5		 mov	 esp, ebp
  00020	5d		 pop	 ebp
  00021	c3		 ret	 0
?overload_scenic_draw_functions@@YGXXZ ENDP		; overload_scenic_draw_functions
_TEXT	ENDS
END
