; Listing generated by Microsoft (R) Optimizing Compiler Version 19.16.27045.0 

	TITLE	C:\Users\nhv90\Projects\eech\aphavoc\source\entity\fixed\scenic\sn_msgs.c
	.686P
	.XMM
	include listing.inc
	.model	flat

INCLUDELIB MSVCRTD
INCLUDELIB OLDNAMES

PUBLIC	?overload_scenic_message_responses@@YGXXZ	; overload_scenic_message_responses
PUBLIC	?__LINE__Var@?0??response_to_collision@@YGHW4ENTITY_MESSAGES@@PAUENTITY@@1PAD@Z@4JA ; `response_to_collision'::`1'::__LINE__Var
PUBLIC	??_C@_0EK@NGCBKIBC@c?3?2users?2nhv90?2projects?2eech?2ap@ ; `string'
PUBLIC	__real@3fe0000000000000
EXTRN	?process_assert@@YGXPBD0H@Z:PROC		; process_assert
EXTRN	?transmit_entity_comms_message@@YAXW4ENTITY_COMMS_MESSAGES@@PAUENTITY@@ZZ:PROC ; transmit_entity_comms_message
EXTRN	?overload_fixed_message_responses@@YGXW4ENTITY_TYPES@@@Z:PROC ; overload_fixed_message_responses
EXTRN	?damage_client_server_entity@@YGHPAUENTITY@@0M@Z:PROC ; damage_client_server_entity
EXTRN	?get_current_player_log@@YGPAUPLAYER_LOG_TYPE@@XZ:PROC ; get_current_player_log
EXTRN	?inc_player_log_kills@@YGXHPAUPLAYER_LOG_TYPE@@PAUENTITY@@@Z:PROC ; inc_player_log_kills
EXTRN	?null_entity_pointer_message@@3PBDB:DWORD	; null_entity_pointer_message
EXTRN	?global_options@@3UGLOBAL_OPTIONS_DATA@@A:BYTE	; global_options
EXTRN	?system_comms_model@@3W4COMMS_MODEL_TYPES@@A:DWORD ; system_comms_model
EXTRN	?message_responses@@3PAY0GB@P6GHW4ENTITY_MESSAGES@@PAUENTITY@@1PAD@ZA:BYTE ; message_responses
EXTRN	?overload_invalid_list_type_message@@3PBDB:DWORD ; overload_invalid_list_type_message
EXTRN	?fn_get_local_entity_parent@@3PAY0CN@P6GPAUENTITY@@PAU1@W4LIST_TYPES@@@ZA:BYTE ; fn_get_local_entity_parent
EXTRN	?fn_kill_client_server_entity@@3PAY01P6GXPAUENTITY@@@ZA:BYTE ; fn_kill_client_server_entity
EXTRN	?overload_invalid_float_type_message@@3PBDB:DWORD ; overload_invalid_float_type_message
EXTRN	?fn_get_local_entity_float_value@@3PAY0KP@P6GMPAUENTITY@@W4FLOAT_TYPES@@@ZA:BYTE ; fn_get_local_entity_float_value
EXTRN	?overload_invalid_int_type_message@@3PBDB:DWORD	; overload_invalid_int_type_message
EXTRN	?fn_get_local_entity_int_value@@3PAY0BBH@P6GHPAUENTITY@@W4INT_TYPES@@@ZA:BYTE ; fn_get_local_entity_int_value
EXTRN	__fltused:DWORD
;	COMDAT __real@3fe0000000000000
CONST	SEGMENT
__real@3fe0000000000000 DQ 03fe0000000000000r	; 0.5
CONST	ENDS
;	COMDAT ??_C@_0EK@NGCBKIBC@c?3?2users?2nhv90?2projects?2eech?2ap@
CONST	SEGMENT
??_C@_0EK@NGCBKIBC@c?3?2users?2nhv90?2projects?2eech?2ap@ DB 'c:\users\nh'
	DB	'v90\projects\eech\aphavoc\source\entity\fixed\scenic\sn_msgs.'
	DB	'c', 00H					; `string'
CONST	ENDS
;	COMDAT ?__LINE__Var@?0??response_to_collision@@YGHW4ENTITY_MESSAGES@@PAUENTITY@@1PAD@Z@4JA
_DATA	SEGMENT
?__LINE__Var@?0??response_to_collision@@YGHW4ENTITY_MESSAGES@@PAUENTITY@@1PAD@Z@4JA DD 050H ; `response_to_collision'::`1'::__LINE__Var
_DATA	ENDS
; Function compile flags: /Odtp /ZI
; File c:\users\nhv90\projects\eech\aphavoc\source\entity\fixed\scenic\sn_msgs.c
;	COMDAT ?response_to_collision@@YGHW4ENTITY_MESSAGES@@PAUENTITY@@1PAD@Z
_TEXT	SEGMENT
tv273 = -92						; size = 8
tv207 = -84						; size = 4
tv184 = -84						; size = 4
tv164 = -84						; size = 4
tv144 = -84						; size = 4
tv89 = -84						; size = 4
tv223 = -80						; size = 4
tv200 = -80						; size = 4
tv177 = -80						; size = 4
tv157 = -80						; size = 4
tv136 = -80						; size = 4
tv81 = -80						; size = 4
tv73 = -80						; size = 4
_damage_modifier$ = -12					; size = 4
_total_damage_level$ = -8				; size = 4
_aggressor$ = -4					; size = 4
_message$ = 8						; size = 4
_receiver$ = 12						; size = 4
_sender$ = 16						; size = 4
_pargs$ = 20						; size = 4
?response_to_collision@@YGHW4ENTITY_MESSAGES@@PAUENTITY@@1PAD@Z PROC ; response_to_collision, COMDAT

; 80   : {

  00000	55		 push	 ebp
  00001	8b ec		 mov	 ebp, esp
  00003	83 ec 5c	 sub	 esp, 92			; 0000005cH
  00006	53		 push	 ebx
  00007	56		 push	 esi
  00008	57		 push	 edi

; 81   : 	entity
; 82   : 		*aggressor;
; 83   : 
; 84   : 	int
; 85   : 		total_damage_level;
; 86   : 
; 87   : 	float
; 88   : 		damage_modifier;
; 89   : 
; 90   : 	#if DEBUG_MODULE
; 91   : 
; 92   : 	debug_log_entity_message (message, receiver, sender, pargs);
; 93   : 
; 94   : 	#endif
; 95   : 
; 96   : 	damage_modifier = va_arg (pargs, double);

  00009	8b 45 14	 mov	 eax, DWORD PTR _pargs$[ebp]
  0000c	83 c0 08	 add	 eax, 8
  0000f	89 45 14	 mov	 DWORD PTR _pargs$[ebp], eax
  00012	8b 4d 14	 mov	 ecx, DWORD PTR _pargs$[ebp]
  00015	f2 0f 5a 41 f8	 cvtsd2ss xmm0, QWORD PTR [ecx-8]
  0001a	f3 0f 11 45 f4	 movss	 DWORD PTR _damage_modifier$[ebp], xmm0

; 97   : 
; 98   : 	if (sender)

  0001f	83 7d 10 00	 cmp	 DWORD PTR _sender$[ebp], 0
  00023	0f 84 be 00 00
	00		 je	 $LN2@response_t

; 99   : 	{
; 100  : 		if (get_local_entity_type (sender) == ENTITY_TYPE_WEAPON)

  00029	83 7d 10 00	 cmp	 DWORD PTR _sender$[ebp], 0
  0002d	74 0a		 je	 SHORT $LN13@response_t
  0002f	8b 45 10	 mov	 eax, DWORD PTR _sender$[ebp]
  00032	8b 08		 mov	 ecx, DWORD PTR [eax]
  00034	89 4d b0	 mov	 DWORD PTR tv73[ebp], ecx
  00037	eb 1a		 jmp	 SHORT $LN14@response_t
$LN13@response_t:
  00039	6a 64		 push	 100			; 00000064H
  0003b	68 00 00 00 00	 push	 OFFSET ??_C@_0EK@NGCBKIBC@c?3?2users?2nhv90?2projects?2eech?2ap@
  00040	8b 15 00 00 00
	00		 mov	 edx, DWORD PTR ?null_entity_pointer_message@@3PBDB ; null_entity_pointer_message
  00046	52		 push	 edx
  00047	e8 00 00 00 00	 call	 ?process_assert@@YGXPBD0H@Z ; process_assert
  0004c	c7 45 b0 00 00
	00 00		 mov	 DWORD PTR tv73[ebp], 0
$LN14@response_t:
  00053	83 7d b0 25	 cmp	 DWORD PTR tv73[ebp], 37	; 00000025H
  00057	0f 85 82 00 00
	00		 jne	 $LN4@response_t

; 101  : 		{
; 102  : 			aggressor = get_local_entity_parent (sender, LIST_TYPE_LAUNCHED_WEAPON);

  0005d	83 7d 10 00	 cmp	 DWORD PTR _sender$[ebp], 0
  00061	74 0a		 je	 SHORT $LN15@response_t
  00063	8b 45 10	 mov	 eax, DWORD PTR _sender$[ebp]
  00066	8b 08		 mov	 ecx, DWORD PTR [eax]
  00068	89 4d b0	 mov	 DWORD PTR tv81[ebp], ecx
  0006b	eb 21		 jmp	 SHORT $LN16@response_t
$LN15@response_t:
  0006d	8b 15 00 00 00
	00		 mov	 edx, DWORD PTR ?__LINE__Var@?0??response_to_collision@@YGHW4ENTITY_MESSAGES@@PAUENTITY@@1PAD@Z@4JA
  00073	83 c2 16	 add	 edx, 22			; 00000016H
  00076	52		 push	 edx
  00077	68 00 00 00 00	 push	 OFFSET ??_C@_0EK@NGCBKIBC@c?3?2users?2nhv90?2projects?2eech?2ap@
  0007c	a1 00 00 00 00	 mov	 eax, DWORD PTR ?null_entity_pointer_message@@3PBDB ; null_entity_pointer_message
  00081	50		 push	 eax
  00082	e8 00 00 00 00	 call	 ?process_assert@@YGXPBD0H@Z ; process_assert
  00087	c7 45 b0 00 00
	00 00		 mov	 DWORD PTR tv81[ebp], 0
$LN16@response_t:
  0008e	b9 01 00 00 00	 mov	 ecx, 1
  00093	85 c9		 test	 ecx, ecx
  00095	74 09		 je	 SHORT $LN17@response_t
  00097	c7 45 ac 18 00
	00 00		 mov	 DWORD PTR tv89[ebp], 24	; 00000018H
  0009e	eb 21		 jmp	 SHORT $LN18@response_t
$LN17@response_t:
  000a0	8b 15 00 00 00
	00		 mov	 edx, DWORD PTR ?__LINE__Var@?0??response_to_collision@@YGHW4ENTITY_MESSAGES@@PAUENTITY@@1PAD@Z@4JA
  000a6	83 c2 16	 add	 edx, 22			; 00000016H
  000a9	52		 push	 edx
  000aa	68 00 00 00 00	 push	 OFFSET ??_C@_0EK@NGCBKIBC@c?3?2users?2nhv90?2projects?2eech?2ap@
  000af	a1 00 00 00 00	 mov	 eax, DWORD PTR ?overload_invalid_list_type_message@@3PBDB ; overload_invalid_list_type_message
  000b4	50		 push	 eax
  000b5	e8 00 00 00 00	 call	 ?process_assert@@YGXPBD0H@Z ; process_assert
  000ba	c7 45 ac 00 00
	00 00		 mov	 DWORD PTR tv89[ebp], 0
$LN18@response_t:
  000c1	6a 18		 push	 24			; 00000018H
  000c3	8b 4d 10	 mov	 ecx, DWORD PTR _sender$[ebp]
  000c6	51		 push	 ecx
  000c7	69 55 b0 b4 00
	00 00		 imul	 edx, DWORD PTR tv81[ebp], 180
  000ce	8b 45 ac	 mov	 eax, DWORD PTR tv89[ebp]
  000d1	8b 8c 82 00 00
	00 00		 mov	 ecx, DWORD PTR ?fn_get_local_entity_parent@@3PAY0CN@P6GPAUENTITY@@PAU1@W4LIST_TYPES@@@ZA[edx+eax*4]
  000d8	ff d1		 call	 ecx
  000da	89 45 fc	 mov	 DWORD PTR _aggressor$[ebp], eax

; 103  : 		}
; 104  : 		else

  000dd	eb 06		 jmp	 SHORT $LN5@response_t
$LN4@response_t:

; 105  : 		{
; 106  : 			aggressor = sender;

  000df	8b 45 10	 mov	 eax, DWORD PTR _sender$[ebp]
  000e2	89 45 fc	 mov	 DWORD PTR _aggressor$[ebp], eax
$LN5@response_t:

; 107  : 		}
; 108  : 	}
; 109  : 	else

  000e5	eb 07		 jmp	 SHORT $LN3@response_t
$LN2@response_t:

; 110  : 	{
; 111  : 		aggressor = NULL;

  000e7	c7 45 fc 00 00
	00 00		 mov	 DWORD PTR _aggressor$[ebp], 0
$LN3@response_t:

; 112  : 	}
; 113  : 
; 114  : 	damage_client_server_entity (receiver, sender, damage_modifier);

  000ee	51		 push	 ecx
  000ef	f3 0f 10 45 f4	 movss	 xmm0, DWORD PTR _damage_modifier$[ebp]
  000f4	f3 0f 11 04 24	 movss	 DWORD PTR [esp], xmm0
  000f9	8b 45 10	 mov	 eax, DWORD PTR _sender$[ebp]
  000fc	50		 push	 eax
  000fd	8b 4d 0c	 mov	 ecx, DWORD PTR _receiver$[ebp]
  00100	51		 push	 ecx
  00101	e8 00 00 00 00	 call	 ?damage_client_server_entity@@YGHPAUENTITY@@0M@Z ; damage_client_server_entity

; 115  : 
; 116  : 	total_damage_level = get_local_entity_int_value (receiver, INT_TYPE_DAMAGE_LEVEL);

  00106	83 7d 0c 00	 cmp	 DWORD PTR _receiver$[ebp], 0
  0010a	74 0a		 je	 SHORT $LN19@response_t
  0010c	8b 45 0c	 mov	 eax, DWORD PTR _receiver$[ebp]
  0010f	8b 08		 mov	 ecx, DWORD PTR [eax]
  00111	89 4d b0	 mov	 DWORD PTR tv136[ebp], ecx
  00114	eb 21		 jmp	 SHORT $LN20@response_t
$LN19@response_t:
  00116	8b 15 00 00 00
	00		 mov	 edx, DWORD PTR ?__LINE__Var@?0??response_to_collision@@YGHW4ENTITY_MESSAGES@@PAUENTITY@@1PAD@Z@4JA
  0011c	83 c2 24	 add	 edx, 36			; 00000024H
  0011f	52		 push	 edx
  00120	68 00 00 00 00	 push	 OFFSET ??_C@_0EK@NGCBKIBC@c?3?2users?2nhv90?2projects?2eech?2ap@
  00125	a1 00 00 00 00	 mov	 eax, DWORD PTR ?null_entity_pointer_message@@3PBDB ; null_entity_pointer_message
  0012a	50		 push	 eax
  0012b	e8 00 00 00 00	 call	 ?process_assert@@YGXPBD0H@Z ; process_assert
  00130	c7 45 b0 00 00
	00 00		 mov	 DWORD PTR tv136[ebp], 0
$LN20@response_t:
  00137	b9 01 00 00 00	 mov	 ecx, 1
  0013c	85 c9		 test	 ecx, ecx
  0013e	74 09		 je	 SHORT $LN21@response_t
  00140	c7 45 ac 25 00
	00 00		 mov	 DWORD PTR tv144[ebp], 37 ; 00000025H
  00147	eb 21		 jmp	 SHORT $LN22@response_t
$LN21@response_t:
  00149	8b 15 00 00 00
	00		 mov	 edx, DWORD PTR ?__LINE__Var@?0??response_to_collision@@YGHW4ENTITY_MESSAGES@@PAUENTITY@@1PAD@Z@4JA
  0014f	83 c2 24	 add	 edx, 36			; 00000024H
  00152	52		 push	 edx
  00153	68 00 00 00 00	 push	 OFFSET ??_C@_0EK@NGCBKIBC@c?3?2users?2nhv90?2projects?2eech?2ap@
  00158	a1 00 00 00 00	 mov	 eax, DWORD PTR ?overload_invalid_int_type_message@@3PBDB ; overload_invalid_int_type_message
  0015d	50		 push	 eax
  0015e	e8 00 00 00 00	 call	 ?process_assert@@YGXPBD0H@Z ; process_assert
  00163	c7 45 ac 00 00
	00 00		 mov	 DWORD PTR tv144[ebp], 0
$LN22@response_t:
  0016a	6a 25		 push	 37			; 00000025H
  0016c	8b 4d 0c	 mov	 ecx, DWORD PTR _receiver$[ebp]
  0016f	51		 push	 ecx
  00170	69 55 b0 5c 04
	00 00		 imul	 edx, DWORD PTR tv136[ebp], 1116
  00177	8b 45 ac	 mov	 eax, DWORD PTR tv144[ebp]
  0017a	8b 8c 82 00 00
	00 00		 mov	 ecx, DWORD PTR ?fn_get_local_entity_int_value@@3PAY0BBH@P6GHPAUENTITY@@W4INT_TYPES@@@ZA[edx+eax*4]
  00181	ff d1		 call	 ecx
  00183	89 45 f8	 mov	 DWORD PTR _total_damage_level$[ebp], eax

; 117  : 
; 118  : 	if (total_damage_level <= 0)

  00186	83 7d f8 00	 cmp	 DWORD PTR _total_damage_level$[ebp], 0
  0018a	0f 8f fa 01 00
	00		 jg	 $LN6@response_t

; 119  : 	{
; 120  : 		if (aggressor)

  00190	83 7d fc 00	 cmp	 DWORD PTR _aggressor$[ebp], 0
  00194	0f 84 a6 01 00
	00		 je	 $LN11@response_t

; 121  : 		{
; 122  : 			if (get_local_entity_float_value (receiver, FLOAT_TYPE_FIXED_OBJECT_IMPORTANCE) >= 0.5)

  0019a	83 7d 0c 00	 cmp	 DWORD PTR _receiver$[ebp], 0
  0019e	74 0a		 je	 SHORT $LN23@response_t
  001a0	8b 45 0c	 mov	 eax, DWORD PTR _receiver$[ebp]
  001a3	8b 08		 mov	 ecx, DWORD PTR [eax]
  001a5	89 4d b0	 mov	 DWORD PTR tv157[ebp], ecx
  001a8	eb 1a		 jmp	 SHORT $LN24@response_t
$LN23@response_t:
  001aa	6a 7a		 push	 122			; 0000007aH
  001ac	68 00 00 00 00	 push	 OFFSET ??_C@_0EK@NGCBKIBC@c?3?2users?2nhv90?2projects?2eech?2ap@
  001b1	8b 15 00 00 00
	00		 mov	 edx, DWORD PTR ?null_entity_pointer_message@@3PBDB ; null_entity_pointer_message
  001b7	52		 push	 edx
  001b8	e8 00 00 00 00	 call	 ?process_assert@@YGXPBD0H@Z ; process_assert
  001bd	c7 45 b0 00 00
	00 00		 mov	 DWORD PTR tv157[ebp], 0
$LN24@response_t:
  001c4	b8 01 00 00 00	 mov	 eax, 1
  001c9	85 c0		 test	 eax, eax
  001cb	74 09		 je	 SHORT $LN25@response_t
  001cd	c7 45 ac 27 00
	00 00		 mov	 DWORD PTR tv164[ebp], 39 ; 00000027H
  001d4	eb 1a		 jmp	 SHORT $LN26@response_t
$LN25@response_t:
  001d6	6a 7a		 push	 122			; 0000007aH
  001d8	68 00 00 00 00	 push	 OFFSET ??_C@_0EK@NGCBKIBC@c?3?2users?2nhv90?2projects?2eech?2ap@
  001dd	8b 0d 00 00 00
	00		 mov	 ecx, DWORD PTR ?overload_invalid_float_type_message@@3PBDB ; overload_invalid_float_type_message
  001e3	51		 push	 ecx
  001e4	e8 00 00 00 00	 call	 ?process_assert@@YGXPBD0H@Z ; process_assert
  001e9	c7 45 ac 00 00
	00 00		 mov	 DWORD PTR tv164[ebp], 0
$LN26@response_t:
  001f0	6a 27		 push	 39			; 00000027H
  001f2	8b 55 0c	 mov	 edx, DWORD PTR _receiver$[ebp]
  001f5	52		 push	 edx
  001f6	69 45 b0 bc 02
	00 00		 imul	 eax, DWORD PTR tv157[ebp], 700
  001fd	8b 4d ac	 mov	 ecx, DWORD PTR tv164[ebp]
  00200	8b 94 88 00 00
	00 00		 mov	 edx, DWORD PTR ?fn_get_local_entity_float_value@@3PAY0KP@P6GMPAUENTITY@@W4FLOAT_TYPES@@@ZA[eax+ecx*4]
  00207	ff d2		 call	 edx
  00209	dd 5d a4	 fstp	 QWORD PTR tv273[ebp]
  0020c	f2 0f 10 45 a4	 movsd	 xmm0, QWORD PTR tv273[ebp]
  00211	66 0f 2f 05 00
	00 00 00	 comisd	 xmm0, QWORD PTR __real@3fe0000000000000
  00219	0f 82 21 01 00
	00		 jb	 $LN11@response_t

; 123  : 			{
; 124  : 				if (get_local_entity_int_value (aggressor, INT_TYPE_PLAYER) == ENTITY_PLAYER_LOCAL)

  0021f	83 7d fc 00	 cmp	 DWORD PTR _aggressor$[ebp], 0
  00223	74 0a		 je	 SHORT $LN27@response_t
  00225	8b 45 fc	 mov	 eax, DWORD PTR _aggressor$[ebp]
  00228	8b 08		 mov	 ecx, DWORD PTR [eax]
  0022a	89 4d b0	 mov	 DWORD PTR tv177[ebp], ecx
  0022d	eb 1a		 jmp	 SHORT $LN28@response_t
$LN27@response_t:
  0022f	6a 7c		 push	 124			; 0000007cH
  00231	68 00 00 00 00	 push	 OFFSET ??_C@_0EK@NGCBKIBC@c?3?2users?2nhv90?2projects?2eech?2ap@
  00236	8b 15 00 00 00
	00		 mov	 edx, DWORD PTR ?null_entity_pointer_message@@3PBDB ; null_entity_pointer_message
  0023c	52		 push	 edx
  0023d	e8 00 00 00 00	 call	 ?process_assert@@YGXPBD0H@Z ; process_assert
  00242	c7 45 b0 00 00
	00 00		 mov	 DWORD PTR tv177[ebp], 0
$LN28@response_t:
  00249	b8 01 00 00 00	 mov	 eax, 1
  0024e	85 c0		 test	 eax, eax
  00250	74 09		 je	 SHORT $LN29@response_t
  00252	c7 45 ac 9c 00
	00 00		 mov	 DWORD PTR tv184[ebp], 156 ; 0000009cH
  00259	eb 1a		 jmp	 SHORT $LN30@response_t
$LN29@response_t:
  0025b	6a 7c		 push	 124			; 0000007cH
  0025d	68 00 00 00 00	 push	 OFFSET ??_C@_0EK@NGCBKIBC@c?3?2users?2nhv90?2projects?2eech?2ap@
  00262	8b 0d 00 00 00
	00		 mov	 ecx, DWORD PTR ?overload_invalid_int_type_message@@3PBDB ; overload_invalid_int_type_message
  00268	51		 push	 ecx
  00269	e8 00 00 00 00	 call	 ?process_assert@@YGXPBD0H@Z ; process_assert
  0026e	c7 45 ac 00 00
	00 00		 mov	 DWORD PTR tv184[ebp], 0
$LN30@response_t:
  00275	68 9c 00 00 00	 push	 156			; 0000009cH
  0027a	8b 55 fc	 mov	 edx, DWORD PTR _aggressor$[ebp]
  0027d	52		 push	 edx
  0027e	69 45 b0 5c 04
	00 00		 imul	 eax, DWORD PTR tv177[ebp], 1116
  00285	8b 4d ac	 mov	 ecx, DWORD PTR tv184[ebp]
  00288	8b 94 88 00 00
	00 00		 mov	 edx, DWORD PTR ?fn_get_local_entity_int_value@@3PAY0BBH@P6GHPAUENTITY@@W4INT_TYPES@@@ZA[eax+ecx*4]
  0028f	ff d2		 call	 edx
  00291	83 f8 01	 cmp	 eax, 1
  00294	75 1b		 jne	 SHORT $LN9@response_t

; 125  : 				{
; 126  : 					inc_player_log_kills (get_global_gunship_side (), get_current_player_log (), receiver);

  00296	8b 45 0c	 mov	 eax, DWORD PTR _receiver$[ebp]
  00299	50		 push	 eax
  0029a	e8 00 00 00 00	 call	 ?get_current_player_log@@YGPAUPLAYER_LOG_TYPE@@XZ ; get_current_player_log
  0029f	50		 push	 eax
  002a0	8b 0d 08 00 00
	00		 mov	 ecx, DWORD PTR ?global_options@@3UGLOBAL_OPTIONS_DATA@@A+8
  002a6	51		 push	 ecx
  002a7	e8 00 00 00 00	 call	 ?inc_player_log_kills@@YGXHPAUPLAYER_LOG_TYPE@@PAUENTITY@@@Z ; inc_player_log_kills
  002ac	e9 8f 00 00 00	 jmp	 $LN11@response_t
$LN9@response_t:

; 127  : 				}
; 128  : 				else if (get_local_entity_int_value (aggressor, INT_TYPE_PLAYER) == ENTITY_PLAYER_REMOTE)

  002b1	83 7d fc 00	 cmp	 DWORD PTR _aggressor$[ebp], 0
  002b5	74 0a		 je	 SHORT $LN31@response_t
  002b7	8b 45 fc	 mov	 eax, DWORD PTR _aggressor$[ebp]
  002ba	8b 08		 mov	 ecx, DWORD PTR [eax]
  002bc	89 4d b0	 mov	 DWORD PTR tv200[ebp], ecx
  002bf	eb 1d		 jmp	 SHORT $LN32@response_t
$LN31@response_t:
  002c1	68 80 00 00 00	 push	 128			; 00000080H
  002c6	68 00 00 00 00	 push	 OFFSET ??_C@_0EK@NGCBKIBC@c?3?2users?2nhv90?2projects?2eech?2ap@
  002cb	8b 15 00 00 00
	00		 mov	 edx, DWORD PTR ?null_entity_pointer_message@@3PBDB ; null_entity_pointer_message
  002d1	52		 push	 edx
  002d2	e8 00 00 00 00	 call	 ?process_assert@@YGXPBD0H@Z ; process_assert
  002d7	c7 45 b0 00 00
	00 00		 mov	 DWORD PTR tv200[ebp], 0
$LN32@response_t:
  002de	b8 01 00 00 00	 mov	 eax, 1
  002e3	85 c0		 test	 eax, eax
  002e5	74 09		 je	 SHORT $LN33@response_t
  002e7	c7 45 ac 9c 00
	00 00		 mov	 DWORD PTR tv207[ebp], 156 ; 0000009cH
  002ee	eb 1d		 jmp	 SHORT $LN34@response_t
$LN33@response_t:
  002f0	68 80 00 00 00	 push	 128			; 00000080H
  002f5	68 00 00 00 00	 push	 OFFSET ??_C@_0EK@NGCBKIBC@c?3?2users?2nhv90?2projects?2eech?2ap@
  002fa	8b 0d 00 00 00
	00		 mov	 ecx, DWORD PTR ?overload_invalid_int_type_message@@3PBDB ; overload_invalid_int_type_message
  00300	51		 push	 ecx
  00301	e8 00 00 00 00	 call	 ?process_assert@@YGXPBD0H@Z ; process_assert
  00306	c7 45 ac 00 00
	00 00		 mov	 DWORD PTR tv207[ebp], 0
$LN34@response_t:
  0030d	68 9c 00 00 00	 push	 156			; 0000009cH
  00312	8b 55 fc	 mov	 edx, DWORD PTR _aggressor$[ebp]
  00315	52		 push	 edx
  00316	69 45 b0 5c 04
	00 00		 imul	 eax, DWORD PTR tv200[ebp], 1116
  0031d	8b 4d ac	 mov	 ecx, DWORD PTR tv207[ebp]
  00320	8b 94 88 00 00
	00 00		 mov	 edx, DWORD PTR ?fn_get_local_entity_int_value@@3PAY0BBH@P6GHPAUENTITY@@W4INT_TYPES@@@ZA[eax+ecx*4]
  00327	ff d2		 call	 edx
  00329	83 f8 02	 cmp	 eax, 2
  0032c	75 12		 jne	 SHORT $LN11@response_t

; 129  : 				{
; 130  : 					transmit_entity_comms_message (ENTITY_COMMS_PLAYER_KILL, aggressor, receiver);

  0032e	8b 45 0c	 mov	 eax, DWORD PTR _receiver$[ebp]
  00331	50		 push	 eax
  00332	8b 4d fc	 mov	 ecx, DWORD PTR _aggressor$[ebp]
  00335	51		 push	 ecx
  00336	6a 25		 push	 37			; 00000025H
  00338	e8 00 00 00 00	 call	 ?transmit_entity_comms_message@@YAXW4ENTITY_COMMS_MESSAGES@@PAUENTITY@@ZZ ; transmit_entity_comms_message
  0033d	83 c4 0c	 add	 esp, 12			; 0000000cH
$LN11@response_t:

; 131  : 				}
; 132  : 			}
; 133  : 		}
; 134  : 
; 135  : 		kill_client_server_entity (receiver);

  00340	83 7d 0c 00	 cmp	 DWORD PTR _receiver$[ebp], 0
  00344	74 0a		 je	 SHORT $LN35@response_t
  00346	8b 45 0c	 mov	 eax, DWORD PTR _receiver$[ebp]
  00349	8b 08		 mov	 ecx, DWORD PTR [eax]
  0034b	89 4d b0	 mov	 DWORD PTR tv223[ebp], ecx
  0034e	eb 21		 jmp	 SHORT $LN36@response_t
$LN35@response_t:
  00350	8b 15 00 00 00
	00		 mov	 edx, DWORD PTR ?__LINE__Var@?0??response_to_collision@@YGHW4ENTITY_MESSAGES@@PAUENTITY@@1PAD@Z@4JA
  00356	83 c2 37	 add	 edx, 55			; 00000037H
  00359	52		 push	 edx
  0035a	68 00 00 00 00	 push	 OFFSET ??_C@_0EK@NGCBKIBC@c?3?2users?2nhv90?2projects?2eech?2ap@
  0035f	a1 00 00 00 00	 mov	 eax, DWORD PTR ?null_entity_pointer_message@@3PBDB ; null_entity_pointer_message
  00364	50		 push	 eax
  00365	e8 00 00 00 00	 call	 ?process_assert@@YGXPBD0H@Z ; process_assert
  0036a	c7 45 b0 00 00
	00 00		 mov	 DWORD PTR tv223[ebp], 0
$LN36@response_t:
  00371	8b 4d 0c	 mov	 ecx, DWORD PTR _receiver$[ebp]
  00374	51		 push	 ecx
  00375	8b 15 00 00 00
	00		 mov	 edx, DWORD PTR ?system_comms_model@@3W4COMMS_MODEL_TYPES@@A ; system_comms_model
  0037b	c1 e2 02	 shl	 edx, 2
  0037e	8b 45 b0	 mov	 eax, DWORD PTR tv223[ebp]
  00381	8b 8c c2 00 00
	00 00		 mov	 ecx, DWORD PTR ?fn_kill_client_server_entity@@3PAY01P6GXPAUENTITY@@@ZA[edx+eax*8]
  00388	ff d1		 call	 ecx
$LN6@response_t:

; 136  : 	}
; 137  : 
; 138  : 	return (TRUE);

  0038a	b8 01 00 00 00	 mov	 eax, 1

; 139  : }

  0038f	5f		 pop	 edi
  00390	5e		 pop	 esi
  00391	5b		 pop	 ebx
  00392	8b e5		 mov	 esp, ebp
  00394	5d		 pop	 ebp
  00395	c2 10 00	 ret	 16			; 00000010H
?response_to_collision@@YGHW4ENTITY_MESSAGES@@PAUENTITY@@1PAD@Z ENDP ; response_to_collision
_TEXT	ENDS
; Function compile flags: /Odtp /ZI
; File c:\users\nhv90\projects\eech\aphavoc\source\entity\fixed\scenic\sn_msgs.c
;	COMDAT ?overload_scenic_message_responses@@YGXXZ
_TEXT	SEGMENT
?overload_scenic_message_responses@@YGXXZ PROC		; overload_scenic_message_responses, COMDAT

; 206  : {

  00000	55		 push	 ebp
  00001	8b ec		 mov	 ebp, esp
  00003	83 ec 40	 sub	 esp, 64			; 00000040H
  00006	53		 push	 ebx
  00007	56		 push	 esi
  00008	57		 push	 edi

; 207  : 	overload_fixed_message_responses (ENTITY_TYPE_SCENIC);

  00009	6a 18		 push	 24			; 00000018H
  0000b	e8 00 00 00 00	 call	 ?overload_fixed_message_responses@@YGXW4ENTITY_TYPES@@@Z ; overload_fixed_message_responses

; 208  : 
; 209  : 	message_responses[ENTITY_TYPE_SCENIC][ENTITY_MESSAGE_COLLISION]			= response_to_collision;

  00010	b8 84 01 00 00	 mov	 eax, 388		; 00000184H
  00015	6b c8 18	 imul	 ecx, eax, 24
  00018	ba 04 00 00 00	 mov	 edx, 4
  0001d	6b c2 07	 imul	 eax, edx, 7
  00020	c7 84 01 00 00
	00 00 00 00 00
	00		 mov	 DWORD PTR ?message_responses@@3PAY0GB@P6GHW4ENTITY_MESSAGES@@PAUENTITY@@1PAD@ZA[ecx+eax], OFFSET ?response_to_collision@@YGHW4ENTITY_MESSAGES@@PAUENTITY@@1PAD@Z ; response_to_collision

; 210  : 
; 211  : 	#if DEBUG_MODULE
; 212  : 
; 213  : 	message_responses[ENTITY_TYPE_SCENIC][ENTITY_MESSAGE_LINK_CHILD]		= response_to_link_child;
; 214  : 
; 215  : 	message_responses[ENTITY_TYPE_SCENIC][ENTITY_MESSAGE_UNLINK_CHILD]	= response_to_unlink_child;
; 216  : 
; 217  : 	message_responses[ENTITY_TYPE_SCENIC][ENTITY_MESSAGE_LINK_PARENT]		= response_to_link_parent;
; 218  : 
; 219  : 	message_responses[ENTITY_TYPE_SCENIC][ENTITY_MESSAGE_UNLINK_PARENT]	= response_to_unlink_parent;
; 220  : 
; 221  : 	#endif
; 222  : }

  0002b	5f		 pop	 edi
  0002c	5e		 pop	 esi
  0002d	5b		 pop	 ebx
  0002e	8b e5		 mov	 esp, ebp
  00030	5d		 pop	 ebp
  00031	c3		 ret	 0
?overload_scenic_message_responses@@YGXXZ ENDP		; overload_scenic_message_responses
_TEXT	ENDS
END
