; Listing generated by Microsoft (R) Optimizing Compiler Version 19.16.27045.0 

	TITLE	C:\Users\nhv90\Projects\eech\aphavoc\source\entity\special\effect\soundeff\soundeff.c
	.686P
	.XMM
	include listing.inc
	.model	flat

INCLUDELIB MSVCRTD
INCLUDELIB OLDNAMES

PUBLIC	?pause_local_entity_sound_type@@YGHPAUENTITY@@HM@Z ; pause_local_entity_sound_type
PUBLIC	?resume_local_entity_sound_type@@YGHPAUENTITY@@H@Z ; resume_local_entity_sound_type
PUBLIC	?pause_client_server_entity_sound_type@@YGHPAUENTITY@@HM@Z ; pause_client_server_entity_sound_type
PUBLIC	?resume_client_server_entity_sound_type@@YGHPAUENTITY@@H@Z ; resume_client_server_entity_sound_type
PUBLIC	?kill_local_entity_sound_type@@YGXPAUENTITY@@H@Z ; kill_local_entity_sound_type
PUBLIC	?kill_client_server_entity_sound_type@@YGXPAUENTITY@@H@Z ; kill_client_server_entity_sound_type
PUBLIC	?destroy_local_sound_effects@@YGXPAUENTITY@@@Z	; destroy_local_sound_effects
PUBLIC	?destroy_client_server_sound_effects@@YGXPAUENTITY@@@Z ; destroy_client_server_sound_effects
PUBLIC	?pause_local_continuous_weapon_sound_effect@@YGXPAUENTITY@@H@Z ; pause_local_continuous_weapon_sound_effect
PUBLIC	?pause_client_server_continuous_weapon_sound_effect@@YGXPAUENTITY@@H@Z ; pause_client_server_continuous_weapon_sound_effect
PUBLIC	?resume_client_server_continuous_weapon_sound_effect@@YGHPAUENTITY@@H@Z ; resume_client_server_continuous_weapon_sound_effect
PUBLIC	?get_local_entity_sound_type_valid@@YGHPAUENTITY@@H@Z ; get_local_entity_sound_type_valid
PUBLIC	?create_local_sound_effect_entity@@YGPAUENTITY@@HPAU1@W4ENTITY_SIDES@@HW4SOUND_CHANNEL_TYPES@@W4SOUND_LOCALITY_TYPES@@PAUVEC3D@@MMHHHPAH@Z ; create_local_sound_effect_entity
PUBLIC	?create_client_server_sound_effect_entity@@YGPAUENTITY@@PAU1@W4ENTITY_SIDES@@HW4SOUND_CHANNEL_TYPES@@W4SOUND_LOCALITY_TYPES@@PAUVEC3D@@MMHHHPAH@Z ; create_client_server_sound_effect_entity
PUBLIC	??$min@M@std@@YGABMABM0@Z			; std::min<float>
PUBLIC	??_C@_02DKCKIIND@?$CFs@				; `string'
PUBLIC	?__LINE__Var@?0??pause_local_entity_sound_type@@YGHPAUENTITY@@HM@Z@4JA ; `pause_local_entity_sound_type'::`1'::__LINE__Var
PUBLIC	??_C@_0FG@NJPAEEKF@c?3?2users?2nhv90?2projects?2eech?2ap@ ; `string'
PUBLIC	?__LINE__Var@?0??resume_local_entity_sound_type@@YGHPAUENTITY@@H@Z@4JA ; `resume_local_entity_sound_type'::`1'::__LINE__Var
PUBLIC	?__LINE__Var@?0??kill_local_entity_sound_type@@YGXPAUENTITY@@H@Z@4JA ; `kill_local_entity_sound_type'::`1'::__LINE__Var
PUBLIC	?__LINE__Var@?0??kill_client_server_entity_sound_type@@YGXPAUENTITY@@H@Z@4JA ; `kill_client_server_entity_sound_type'::`1'::__LINE__Var
PUBLIC	?__LINE__Var@?0??destroy_local_sound_effects@@YGXPAUENTITY@@@Z@4JA ; `destroy_local_sound_effects'::`1'::__LINE__Var
PUBLIC	?__LINE__Var@?0??destroy_client_server_sound_effects@@YGXPAUENTITY@@@Z@4JA ; `destroy_client_server_sound_effects'::`1'::__LINE__Var
PUBLIC	?__LINE__Var@?0??pause_local_continuous_weapon_sound_effect@@YGXPAUENTITY@@H@Z@4JA ; `pause_local_continuous_weapon_sound_effect'::`1'::__LINE__Var
PUBLIC	??_C@_02LFNMGJAP@en@				; `string'
PUBLIC	?__LINE__Var@?0??pause_client_server_continuous_weapon_sound_effect@@YGXPAUENTITY@@H@Z@4JA ; `pause_client_server_continuous_weapon_sound_effect'::`1'::__LINE__Var
PUBLIC	??_C@_0EM@ENNAMAMD@?$CIget_comms_model?5?$CI?$CJ?5?$DN?$DN?5COMMS_MO@ ; `string'
PUBLIC	?__LINE__Var@?0??resume_client_server_continuous_weapon_sound_effect@@YGHPAUENTITY@@H@Z@4JA ; `resume_client_server_continuous_weapon_sound_effect'::`1'::__LINE__Var
PUBLIC	??_C@_0CJ@DMBLBJBK@get_comms_model?5?$CI?$CJ?5?$DN?$DN?5COMMS_MOD@ ; `string'
PUBLIC	?__LINE__Var@?0??get_local_entity_sound_type_valid@@YGHPAUENTITY@@H@Z@4JA ; `get_local_entity_sound_type_valid'::`1'::__LINE__Var
PUBLIC	?__LINE__Var@?0??set_local_sound_effect_sample_indices@@YGXPAUENTITY@@HPAH@Z@4JA ; `set_local_sound_effect_sample_indices'::`1'::__LINE__Var
PUBLIC	??_C@_09DMMLFBJB@count?5?$DO?50@		; `string'
PUBLIC	??_C@_07OKCKIPNN@indices@			; `string'
PUBLIC	??_C@_0BD@NEFDAPA@?$CBraw?9?$DOeffect_index@	; `string'
PUBLIC	??_C@_0CK@JOAMDBNJ@indices?5?$FLloop?$FN?5?$CB?$DN?5SOUND_SAMPLE_@ ; `string'
PUBLIC	??_C@_0DP@JBMLCDPK@SOUNDEFF?5?3?5Sound?5effect?5rate?5in@ ; `string'
PUBLIC	??_C@_0BM@MEFKDNKM@raw?9?$DOeffect_lifetime?5?$DM?540?40@ ; `string'
PUBLIC	?__LINE__Var@?0??create_local_sound_effect_entity@@YGPAUENTITY@@HPAU2@W4ENTITY_SIDES@@HW4SOUND_CHANNEL_TYPES@@W4SOUND_LOCALITY_TYPES@@PAUVEC3D@@MMHHHPAH@Z@4JA ; `create_local_sound_effect_entity'::`1'::__LINE__Var
PUBLIC	??_C@_06MLKDMCBD@parent@			; `string'
PUBLIC	?__LINE__Var@?0??create_client_server_sound_effect_entity@@YGPAUENTITY@@PAU2@W4ENTITY_SIDES@@HW4SOUND_CHANNEL_TYPES@@W4SOUND_LOCALITY_TYPES@@PAUVEC3D@@MMHHHPAH@Z@4JA ; `create_client_server_sound_effect_entity'::`1'::__LINE__Var
PUBLIC	??_C@_0BI@PLFJLGPL@side?5?$DM?5NUM_ENTITY_SIDES@ ; `string'
PUBLIC	?__LINE__Var@?0??adjust_radio_message_amplification@@YGMMPAUVEC3D@@@Z@4JA ; `adjust_radio_message_amplification'::`1'::__LINE__Var
PUBLIC	??_C@_03PCBNCGFH@pos@				; `string'
PUBLIC	??_C@_0BD@FEEMDEPI@invalid?5comparator@		; `string'
PUBLIC	??_C@_0GK@JMBMHIBC@c?3?2program?5files?5?$CIx86?$CJ?2microsof@ ; `string'
PUBLIC	??_C@_1NE@FKBPBJEB@?$AAc?$AA?3?$AA?2?$AAp?$AAr?$AAo?$AAg?$AAr?$AAa?$AAm?$AA?5?$AAf?$AAi?$AAl?$AAe@ ; `string'
PUBLIC	??_C@_1BC@BLAPCBGI@?$AAs?$AAt?$AAd?$AA?3?$AA?3?$AAm?$AAi?$AAn@ ; `string'
PUBLIC	??_C@_1CK@NDNHPKPI@?$AA?$CC?$AAi?$AAn?$AAv?$AAa?$AAl?$AAi?$AAd?$AA?5?$AAc?$AAo?$AAm?$AAp?$AAa?$AAr@ ; `string'
PUBLIC	__real@00000000
PUBLIC	__real@0000000000000000
PUBLIC	__real@3f000000
PUBLIC	__real@3f800000
PUBLIC	__real@4044000000000000
PUBLIC	__real@42200000
PUBLIC	__real@447a0000
PUBLIC	__real@47e86c00
PUBLIC	__real@47ea6000
EXTRN	__imp___invalid_parameter:PROC
EXTRN	_memcpy:PROC
EXTRN	__imp___CrtDbgReport:PROC
EXTRN	?process_assert@@YGXPBD0H@Z:PROC		; process_assert
EXTRN	?debug_log@@YAXPBDZZ:PROC			; debug_log
EXTRN	?malloc_fast_memory@@YGPAXI@Z:PROC		; malloc_fast_memory
EXTRN	?get_approx_3d_range@@YGMPBUVEC3D@@0@Z:PROC	; get_approx_3d_range
EXTRN	?insert_local_entity_into_parents_child_list@@YGXPAUENTITY@@W4LIST_TYPES@@00@Z:PROC ; insert_local_entity_into_parents_child_list
EXTRN	?create_local_entity@@YAPAUENTITY@@W4ENTITY_TYPES@@HZZ:PROC ; create_local_entity
EXTRN	?destroy_local_entity@@YGXPAUENTITY@@@Z:PROC	; destroy_local_entity
EXTRN	?transmit_entity_comms_message@@YAXW4ENTITY_COMMS_MESSAGES@@PAUENTITY@@ZZ:PROC ; transmit_entity_comms_message
EXTRN	?null_entity_pointer_message@@3PBDB:DWORD	; null_entity_pointer_message
EXTRN	?global_options@@3UGLOBAL_OPTIONS_DATA@@A:BYTE	; global_options
EXTRN	?application_sound_effects@@3PAUSOUND_EFFECT_INFORMATION@@A:BYTE ; application_sound_effects
EXTRN	?system_comms_model@@3W4COMMS_MODEL_TYPES@@A:DWORD ; system_comms_model
EXTRN	?system_comms_data_flow@@3W4COMMS_DATA_FLOW_TYPES@@A:DWORD ; system_comms_data_flow
EXTRN	?world_map@@3UWORLD_MAP_DATA@@A:BYTE		; world_map
EXTRN	?overload_invalid_list_type_message@@3PBDB:DWORD ; overload_invalid_list_type_message
EXTRN	?fn_get_local_entity_first_child@@3PAY0CN@P6GPAUENTITY@@PAU1@W4LIST_TYPES@@@ZA:BYTE ; fn_get_local_entity_first_child
EXTRN	?fn_get_local_entity_parent@@3PAY0CN@P6GPAUENTITY@@PAU1@W4LIST_TYPES@@@ZA:BYTE ; fn_get_local_entity_parent
EXTRN	?fn_get_local_entity_child_succ@@3PAY0CN@P6GPAUENTITY@@PAU1@W4LIST_TYPES@@@ZA:BYTE ; fn_get_local_entity_child_succ
EXTRN	?force_local_entity_create_stack_attributes@@3HA:DWORD ; force_local_entity_create_stack_attributes
EXTRN	?fn_destroy_client_server_entity_family@@3PAY01P6GXPAUENTITY@@@ZA:BYTE ; fn_destroy_client_server_entity_family
EXTRN	?fn_kill_local_entity@@3PAP6GXPAUENTITY@@@ZA:BYTE ; fn_kill_local_entity
EXTRN	?fn_kill_client_server_entity@@3PAY01P6GXPAUENTITY@@@ZA:BYTE ; fn_kill_client_server_entity
EXTRN	?overload_invalid_float_type_message@@3PBDB:DWORD ; overload_invalid_float_type_message
EXTRN	?fn_set_local_entity_float_value@@3PAY0KP@P6GXPAUENTITY@@W4FLOAT_TYPES@@M@ZA:BYTE ; fn_set_local_entity_float_value
EXTRN	?fn_play_local_entity_sound@@3PAP6GXPAUENTITY@@PAUVIEWPOINT@@M@ZA:BYTE ; fn_play_local_entity_sound
EXTRN	?overload_invalid_vec3d_type_message@@3PBDB:DWORD ; overload_invalid_vec3d_type_message
EXTRN	?fn_get_local_entity_vec3d_ptr@@3PAY0BI@P6GPAUVEC3D@@PAUENTITY@@W4VEC3D_TYPES@@@ZA:BYTE ; fn_get_local_entity_vec3d_ptr
EXTRN	?entities@@3PAUENTITY@@A:DWORD			; entities
EXTRN	?weapon_database@@3PAUWEAPON_DATA@@A:BYTE	; weapon_database
EXTRN	?gunship_entity@@3PAUENTITY@@A:DWORD		; gunship_entity
EXTRN	?session_entity@@3PAUENTITY@@A:DWORD		; session_entity
EXTRN	?update_entity@@3PAUENTITY@@A:DWORD		; update_entity
EXTRN	?main_vp@@3UVIEWPOINT@@A:BYTE			; main_vp
EXTRN	__fltused:DWORD
;	COMDAT __real@47ea6000
CONST	SEGMENT
__real@47ea6000 DD 047ea6000r			; 120000
CONST	ENDS
;	COMDAT __real@47e86c00
CONST	SEGMENT
__real@47e86c00 DD 047e86c00r			; 119000
CONST	ENDS
;	COMDAT __real@447a0000
CONST	SEGMENT
__real@447a0000 DD 0447a0000r			; 1000
CONST	ENDS
;	COMDAT __real@42200000
CONST	SEGMENT
__real@42200000 DD 042200000r			; 40
CONST	ENDS
;	COMDAT __real@4044000000000000
CONST	SEGMENT
__real@4044000000000000 DQ 04044000000000000r	; 40
CONST	ENDS
;	COMDAT __real@3f800000
CONST	SEGMENT
__real@3f800000 DD 03f800000r			; 1
CONST	ENDS
;	COMDAT __real@3f000000
CONST	SEGMENT
__real@3f000000 DD 03f000000r			; 0.5
CONST	ENDS
;	COMDAT __real@0000000000000000
CONST	SEGMENT
__real@0000000000000000 DQ 00000000000000000r	; 0
CONST	ENDS
;	COMDAT __real@00000000
CONST	SEGMENT
__real@00000000 DD 000000000r			; 0
CONST	ENDS
;	COMDAT ??_C@_1CK@NDNHPKPI@?$AA?$CC?$AAi?$AAn?$AAv?$AAa?$AAl?$AAi?$AAd?$AA?5?$AAc?$AAo?$AAm?$AAp?$AAa?$AAr@
CONST	SEGMENT
??_C@_1CK@NDNHPKPI@?$AA?$CC?$AAi?$AAn?$AAv?$AAa?$AAl?$AAi?$AAd?$AA?5?$AAc?$AAo?$AAm?$AAp?$AAa?$AAr@ DB '"'
	DB	00H, 'i', 00H, 'n', 00H, 'v', 00H, 'a', 00H, 'l', 00H, 'i', 00H
	DB	'd', 00H, ' ', 00H, 'c', 00H, 'o', 00H, 'm', 00H, 'p', 00H, 'a'
	DB	00H, 'r', 00H, 'a', 00H, 't', 00H, 'o', 00H, 'r', 00H, '"', 00H
	DB	00H, 00H					; `string'
CONST	ENDS
;	COMDAT ??_C@_1BC@BLAPCBGI@?$AAs?$AAt?$AAd?$AA?3?$AA?3?$AAm?$AAi?$AAn@
CONST	SEGMENT
??_C@_1BC@BLAPCBGI@?$AAs?$AAt?$AAd?$AA?3?$AA?3?$AAm?$AAi?$AAn@ DB 's', 00H
	DB	't', 00H, 'd', 00H, ':', 00H, ':', 00H, 'm', 00H, 'i', 00H, 'n'
	DB	00H, 00H, 00H				; `string'
CONST	ENDS
;	COMDAT ??_C@_1NE@FKBPBJEB@?$AAc?$AA?3?$AA?2?$AAp?$AAr?$AAo?$AAg?$AAr?$AAa?$AAm?$AA?5?$AAf?$AAi?$AAl?$AAe@
CONST	SEGMENT
??_C@_1NE@FKBPBJEB@?$AAc?$AA?3?$AA?2?$AAp?$AAr?$AAo?$AAg?$AAr?$AAa?$AAm?$AA?5?$AAf?$AAi?$AAl?$AAe@ DB 'c'
	DB	00H, ':', 00H, '\', 00H, 'p', 00H, 'r', 00H, 'o', 00H, 'g', 00H
	DB	'r', 00H, 'a', 00H, 'm', 00H, ' ', 00H, 'f', 00H, 'i', 00H, 'l'
	DB	00H, 'e', 00H, 's', 00H, ' ', 00H, '(', 00H, 'x', 00H, '8', 00H
	DB	'6', 00H, ')', 00H, '\', 00H, 'm', 00H, 'i', 00H, 'c', 00H, 'r'
	DB	00H, 'o', 00H, 's', 00H, 'o', 00H, 'f', 00H, 't', 00H, ' ', 00H
	DB	'v', 00H, 'i', 00H, 's', 00H, 'u', 00H, 'a', 00H, 'l', 00H, ' '
	DB	00H, 's', 00H, 't', 00H, 'u', 00H, 'd', 00H, 'i', 00H, 'o', 00H
	DB	'\', 00H, '2', 00H, '0', 00H, '1', 00H, '7', 00H, '\', 00H, 'c'
	DB	00H, 'o', 00H, 'm', 00H, 'm', 00H, 'u', 00H, 'n', 00H, 'i', 00H
	DB	't', 00H, 'y', 00H, '\', 00H, 'v', 00H, 'c', 00H, '\', 00H, 't'
	DB	00H, 'o', 00H, 'o', 00H, 'l', 00H, 's', 00H, '\', 00H, 'm', 00H
	DB	's', 00H, 'v', 00H, 'c', 00H, '\', 00H, '1', 00H, '4', 00H, '.'
	DB	00H, '1', 00H, '6', 00H, '.', 00H, '2', 00H, '7', 00H, '0', 00H
	DB	'2', 00H, '3', 00H, '\', 00H, 'i', 00H, 'n', 00H, 'c', 00H, 'l'
	DB	00H, 'u', 00H, 'd', 00H, 'e', 00H, '\', 00H, 'a', 00H, 'l', 00H
	DB	'g', 00H, 'o', 00H, 'r', 00H, 'i', 00H, 't', 00H, 'h', 00H, 'm'
	DB	00H, 00H, 00H				; `string'
CONST	ENDS
;	COMDAT ??_C@_0GK@JMBMHIBC@c?3?2program?5files?5?$CIx86?$CJ?2microsof@
CONST	SEGMENT
??_C@_0GK@JMBMHIBC@c?3?2program?5files?5?$CIx86?$CJ?2microsof@ DB 'c:\pro'
	DB	'gram files (x86)\microsoft visual studio\2017\community\vc\to'
	DB	'ols\msvc\14.16.27023\include\algorithm', 00H ; `string'
CONST	ENDS
;	COMDAT ??_C@_0BD@FEEMDEPI@invalid?5comparator@
CONST	SEGMENT
??_C@_0BD@FEEMDEPI@invalid?5comparator@ DB 'invalid comparator', 00H ; `string'
CONST	ENDS
;	COMDAT ??_C@_03PCBNCGFH@pos@
CONST	SEGMENT
??_C@_03PCBNCGFH@pos@ DB 'pos', 00H			; `string'
CONST	ENDS
;	COMDAT ?__LINE__Var@?0??adjust_radio_message_amplification@@YGMMPAUVEC3D@@@Z@4JA
_DATA	SEGMENT
?__LINE__Var@?0??adjust_radio_message_amplification@@YGMMPAUVEC3D@@@Z@4JA DD 02f4H ; `adjust_radio_message_amplification'::`1'::__LINE__Var
_DATA	ENDS
;	COMDAT ??_C@_0BI@PLFJLGPL@side?5?$DM?5NUM_ENTITY_SIDES@
CONST	SEGMENT
??_C@_0BI@PLFJLGPL@side?5?$DM?5NUM_ENTITY_SIDES@ DB 'side < NUM_ENTITY_SI'
	DB	'DES', 00H					; `string'
CONST	ENDS
;	COMDAT ?__LINE__Var@?0??create_client_server_sound_effect_entity@@YGPAUENTITY@@PAU2@W4ENTITY_SIDES@@HW4SOUND_CHANNEL_TYPES@@W4SOUND_LOCALITY_TYPES@@PAUVEC3D@@MMHHHPAH@Z@4JA
_DATA	SEGMENT
?__LINE__Var@?0??create_client_server_sound_effect_entity@@YGPAUENTITY@@PAU2@W4ENTITY_SIDES@@HW4SOUND_CHANNEL_TYPES@@W4SOUND_LOCALITY_TYPES@@PAUVEC3D@@MMHHHPAH@Z@4JA DD 02c0H ; `create_client_server_sound_effect_entity'::`1'::__LINE__Var
_DATA	ENDS
;	COMDAT ??_C@_06MLKDMCBD@parent@
CONST	SEGMENT
??_C@_06MLKDMCBD@parent@ DB 'parent', 00H		; `string'
CONST	ENDS
;	COMDAT ?__LINE__Var@?0??create_local_sound_effect_entity@@YGPAUENTITY@@HPAU2@W4ENTITY_SIDES@@HW4SOUND_CHANNEL_TYPES@@W4SOUND_LOCALITY_TYPES@@PAUVEC3D@@MMHHHPAH@Z@4JA
_DATA	SEGMENT
?__LINE__Var@?0??create_local_sound_effect_entity@@YGPAUENTITY@@HPAU2@W4ENTITY_SIDES@@HW4SOUND_CHANNEL_TYPES@@W4SOUND_LOCALITY_TYPES@@PAUVEC3D@@MMHHHPAH@Z@4JA DD 022cH ; `create_local_sound_effect_entity'::`1'::__LINE__Var
_DATA	ENDS
;	COMDAT ??_C@_0BM@MEFKDNKM@raw?9?$DOeffect_lifetime?5?$DM?540?40@
CONST	SEGMENT
??_C@_0BM@MEFKDNKM@raw?9?$DOeffect_lifetime?5?$DM?540?40@ DB 'raw->effect'
	DB	'_lifetime < 40.0', 00H			; `string'
CONST	ENDS
;	COMDAT ??_C@_0DP@JBMLCDPK@SOUNDEFF?5?3?5Sound?5effect?5rate?5in@
CONST	SEGMENT
??_C@_0DP@JBMLCDPK@SOUNDEFF?5?3?5Sound?5effect?5rate?5in@ DB 'SOUNDEFF : '
	DB	'Sound effect rate invalid ( index = %s, rate = %d )', 00H ; `string'
CONST	ENDS
;	COMDAT ??_C@_0CK@JOAMDBNJ@indices?5?$FLloop?$FN?5?$CB?$DN?5SOUND_SAMPLE_@
CONST	SEGMENT
??_C@_0CK@JOAMDBNJ@indices?5?$FLloop?$FN?5?$CB?$DN?5SOUND_SAMPLE_@ DB 'in'
	DB	'dices [loop] != SOUND_SAMPLE_INDEX_NONE', 00H ; `string'
CONST	ENDS
;	COMDAT ??_C@_0BD@NEFDAPA@?$CBraw?9?$DOeffect_index@
CONST	SEGMENT
??_C@_0BD@NEFDAPA@?$CBraw?9?$DOeffect_index@ DB '!raw->effect_index', 00H ; `string'
CONST	ENDS
;	COMDAT ??_C@_07OKCKIPNN@indices@
CONST	SEGMENT
??_C@_07OKCKIPNN@indices@ DB 'indices', 00H		; `string'
CONST	ENDS
;	COMDAT ??_C@_09DMMLFBJB@count?5?$DO?50@
CONST	SEGMENT
??_C@_09DMMLFBJB@count?5?$DO?50@ DB 'count > 0', 00H	; `string'
CONST	ENDS
;	COMDAT ?__LINE__Var@?0??set_local_sound_effect_sample_indices@@YGXPAUENTITY@@HPAH@Z@4JA
_DATA	SEGMENT
?__LINE__Var@?0??set_local_sound_effect_sample_indices@@YGXPAUENTITY@@HPAH@Z@4JA DD 01daH ; `set_local_sound_effect_sample_indices'::`1'::__LINE__Var
_DATA	ENDS
;	COMDAT ?__LINE__Var@?0??get_local_entity_sound_type_valid@@YGHPAUENTITY@@H@Z@4JA
_DATA	SEGMENT
?__LINE__Var@?0??get_local_entity_sound_type_valid@@YGHPAUENTITY@@H@Z@4JA DD 01baH ; `get_local_entity_sound_type_valid'::`1'::__LINE__Var
_DATA	ENDS
;	COMDAT ??_C@_0CJ@DMBLBJBK@get_comms_model?5?$CI?$CJ?5?$DN?$DN?5COMMS_MOD@
CONST	SEGMENT
??_C@_0CJ@DMBLBJBK@get_comms_model?5?$CI?$CJ?5?$DN?$DN?5COMMS_MOD@ DB 'ge'
	DB	't_comms_model () == COMMS_MODEL_SERVER', 00H ; `string'
CONST	ENDS
;	COMDAT ?__LINE__Var@?0??resume_client_server_continuous_weapon_sound_effect@@YGHPAUENTITY@@H@Z@4JA
_DATA	SEGMENT
?__LINE__Var@?0??resume_client_server_continuous_weapon_sound_effect@@YGHPAUENTITY@@H@Z@4JA DD 01a1H ; `resume_client_server_continuous_weapon_sound_effect'::`1'::__LINE__Var
_DATA	ENDS
;	COMDAT ??_C@_0EM@ENNAMAMD@?$CIget_comms_model?5?$CI?$CJ?5?$DN?$DN?5COMMS_MO@
CONST	SEGMENT
??_C@_0EM@ENNAMAMD@?$CIget_comms_model?5?$CI?$CJ?5?$DN?$DN?5COMMS_MO@ DB '('
	DB	'get_comms_model () == COMMS_MODEL_SERVER) || (en == get_gunsh'
	DB	'ip_entity ())', 00H				; `string'
CONST	ENDS
;	COMDAT ?__LINE__Var@?0??pause_client_server_continuous_weapon_sound_effect@@YGXPAUENTITY@@H@Z@4JA
_DATA	SEGMENT
?__LINE__Var@?0??pause_client_server_continuous_weapon_sound_effect@@YGXPAUENTITY@@H@Z@4JA DD 018fH ; `pause_client_server_continuous_weapon_sound_effect'::`1'::__LINE__Var
_DATA	ENDS
;	COMDAT ??_C@_02LFNMGJAP@en@
CONST	SEGMENT
??_C@_02LFNMGJAP@en@ DB 'en', 00H			; `string'
CONST	ENDS
;	COMDAT ?__LINE__Var@?0??pause_local_continuous_weapon_sound_effect@@YGXPAUENTITY@@H@Z@4JA
_DATA	SEGMENT
?__LINE__Var@?0??pause_local_continuous_weapon_sound_effect@@YGXPAUENTITY@@H@Z@4JA DD 0173H ; `pause_local_continuous_weapon_sound_effect'::`1'::__LINE__Var
_DATA	ENDS
;	COMDAT ?__LINE__Var@?0??destroy_client_server_sound_effects@@YGXPAUENTITY@@@Z@4JA
_DATA	SEGMENT
?__LINE__Var@?0??destroy_client_server_sound_effects@@YGXPAUENTITY@@@Z@4JA DD 015aH ; `destroy_client_server_sound_effects'::`1'::__LINE__Var
_DATA	ENDS
;	COMDAT ?__LINE__Var@?0??destroy_local_sound_effects@@YGXPAUENTITY@@@Z@4JA
_DATA	SEGMENT
?__LINE__Var@?0??destroy_local_sound_effects@@YGXPAUENTITY@@@Z@4JA DD 0141H ; `destroy_local_sound_effects'::`1'::__LINE__Var
_DATA	ENDS
;	COMDAT ?__LINE__Var@?0??kill_client_server_entity_sound_type@@YGXPAUENTITY@@H@Z@4JA
_DATA	SEGMENT
?__LINE__Var@?0??kill_client_server_entity_sound_type@@YGXPAUENTITY@@H@Z@4JA DD 011cH ; `kill_client_server_entity_sound_type'::`1'::__LINE__Var
_DATA	ENDS
;	COMDAT ?__LINE__Var@?0??kill_local_entity_sound_type@@YGXPAUENTITY@@H@Z@4JA
_DATA	SEGMENT
?__LINE__Var@?0??kill_local_entity_sound_type@@YGXPAUENTITY@@H@Z@4JA DD 0f7H ; `kill_local_entity_sound_type'::`1'::__LINE__Var
_DATA	ENDS
;	COMDAT ?__LINE__Var@?0??resume_local_entity_sound_type@@YGHPAUENTITY@@H@Z@4JA
_DATA	SEGMENT
?__LINE__Var@?0??resume_local_entity_sound_type@@YGHPAUENTITY@@H@Z@4JA DD 088H ; `resume_local_entity_sound_type'::`1'::__LINE__Var
_DATA	ENDS
;	COMDAT ??_C@_0FG@NJPAEEKF@c?3?2users?2nhv90?2projects?2eech?2ap@
CONST	SEGMENT
??_C@_0FG@NJPAEEKF@c?3?2users?2nhv90?2projects?2eech?2ap@ DB 'c:\users\nh'
	DB	'v90\projects\eech\aphavoc\source\entity\special\effect\sounde'
	DB	'ff\soundeff.c', 00H				; `string'
CONST	ENDS
;	COMDAT ?__LINE__Var@?0??pause_local_entity_sound_type@@YGHPAUENTITY@@HM@Z@4JA
_DATA	SEGMENT
?__LINE__Var@?0??pause_local_entity_sound_type@@YGHPAUENTITY@@HM@Z@4JA DD 058H ; `pause_local_entity_sound_type'::`1'::__LINE__Var
_DATA	ENDS
;	COMDAT ??_C@_02DKCKIIND@?$CFs@
CONST	SEGMENT
??_C@_02DKCKIIND@?$CFs@ DB '%s', 00H			; `string'
CONST	ENDS
; Function compile flags: /Odtp /ZI
; File c:\program files (x86)\microsoft visual studio\2017\community\vc\tools\msvc\14.16.27023\include\algorithm
;	COMDAT ??$min@M@std@@YGABMABM0@Z
_TEXT	SEGMENT
__Left$ = 8						; size = 4
__Right$ = 12						; size = 4
??$min@M@std@@YGABMABM0@Z PROC				; std::min<float>, COMDAT

; 5427 : 	{	// return smaller of _Left and _Right

  00000	55		 push	 ebp
  00001	8b ec		 mov	 ebp, esp
  00003	83 ec 40	 sub	 esp, 64			; 00000040H
  00006	53		 push	 ebx
  00007	56		 push	 esi
  00008	57		 push	 edi

; 5428 : 	if (_Right < _Left)

  00009	8b 45 08	 mov	 eax, DWORD PTR __Left$[ebp]
  0000c	8b 4d 0c	 mov	 ecx, DWORD PTR __Right$[ebp]
  0000f	f3 0f 10 00	 movss	 xmm0, DWORD PTR [eax]
  00013	0f 2f 01	 comiss	 xmm0, DWORD PTR [ecx]
  00016	76 64		 jbe	 SHORT $LN8@min
$LN4@min:

; 5429 : 		{
; 5430 : 		_STL_ASSERT(!(_Left < _Right), "invalid comparator");

  00018	8b 45 0c	 mov	 eax, DWORD PTR __Right$[ebp]
  0001b	8b 4d 08	 mov	 ecx, DWORD PTR __Left$[ebp]
  0001e	f3 0f 10 00	 movss	 xmm0, DWORD PTR [eax]
  00022	0f 2f 01	 comiss	 xmm0, DWORD PTR [ecx]
  00025	77 02		 ja	 SHORT $LN9@min
  00027	eb 4a		 jmp	 SHORT $LN6@min
$LN9@min:
  00029	68 00 00 00 00	 push	 OFFSET ??_C@_0BD@FEEMDEPI@invalid?5comparator@
  0002e	68 00 00 00 00	 push	 OFFSET ??_C@_02DKCKIIND@?$CFs@
  00033	6a 00		 push	 0
  00035	68 36 15 00 00	 push	 5430			; 00001536H
  0003a	68 00 00 00 00	 push	 OFFSET ??_C@_0GK@JMBMHIBC@c?3?2program?5files?5?$CIx86?$CJ?2microsof@
  0003f	6a 02		 push	 2
  00041	ff 15 00 00 00
	00		 call	 DWORD PTR __imp___CrtDbgReport
  00047	83 c4 18	 add	 esp, 24			; 00000018H
  0004a	83 f8 01	 cmp	 eax, 1
  0004d	75 01		 jne	 SHORT $LN12@min
  0004f	cc		 int	 3
$LN12@min:
  00050	6a 00		 push	 0
  00052	68 36 15 00 00	 push	 5430			; 00001536H
  00057	68 00 00 00 00	 push	 OFFSET ??_C@_1NE@FKBPBJEB@?$AAc?$AA?3?$AA?2?$AAp?$AAr?$AAo?$AAg?$AAr?$AAa?$AAm?$AA?5?$AAf?$AAi?$AAl?$AAe@
  0005c	68 00 00 00 00	 push	 OFFSET ??_C@_1BC@BLAPCBGI@?$AAs?$AAt?$AAd?$AA?3?$AA?3?$AAm?$AAi?$AAn@
  00061	68 00 00 00 00	 push	 OFFSET ??_C@_1CK@NDNHPKPI@?$AA?$CC?$AAi?$AAn?$AAv?$AAa?$AAl?$AAi?$AAd?$AA?5?$AAc?$AAo?$AAm?$AAp?$AAa?$AAr@
  00066	ff 15 00 00 00
	00		 call	 DWORD PTR __imp___invalid_parameter
  0006c	83 c4 14	 add	 esp, 20			; 00000014H
  0006f	33 c0		 xor	 eax, eax
  00071	75 b6		 jne	 SHORT $LN9@min
$LN6@min:
  00073	33 c0		 xor	 eax, eax
  00075	75 a1		 jne	 SHORT $LN4@min

; 5431 : 		return (_Right);

  00077	8b 45 0c	 mov	 eax, DWORD PTR __Right$[ebp]
  0007a	eb 03		 jmp	 SHORT $LN1@min
$LN8@min:

; 5432 : 		}
; 5433 : 
; 5434 : 	return (_Left);

  0007c	8b 45 08	 mov	 eax, DWORD PTR __Left$[ebp]
$LN1@min:

; 5435 : 	}

  0007f	5f		 pop	 edi
  00080	5e		 pop	 esi
  00081	5b		 pop	 ebx
  00082	8b e5		 mov	 esp, ebp
  00084	5d		 pop	 ebp
  00085	c2 08 00	 ret	 8
??$min@M@std@@YGABMABM0@Z ENDP				; std::min<float>
_TEXT	ENDS
; Function compile flags: /Odtp /ZI
; File c:\users\nhv90\projects\eech\aphavoc\source\entity\special\effect\soundeff\soundeff.c
;	COMDAT ?adjust_radio_message_amplification@@YGMMPAUVEC3D@@@Z
_TEXT	SEGMENT
tv86 = -80						; size = 4
tv154 = -76						; size = 4
tv78 = -76						; size = 4
_range$ = -8						; size = 4
_d$ = -4						; size = 4
_amp$ = 8						; size = 4
_pos$ = 12						; size = 4
?adjust_radio_message_amplification@@YGMMPAUVEC3D@@@Z PROC ; adjust_radio_message_amplification, COMDAT

; 756  : {

  00000	55		 push	 ebp
  00001	8b ec		 mov	 ebp, esp
  00003	83 ec 50	 sub	 esp, 80			; 00000050H
  00006	53		 push	 ebx
  00007	56		 push	 esi
  00008	57		 push	 edi

; 757  : 	float
; 758  : 		d,
; 759  : 		range;
; 760  : 
; 761  : 	if (!get_gunship_entity ())

  00009	83 3d 00 00 00
	00 00		 cmp	 DWORD PTR ?gunship_entity@@3PAUENTITY@@A, 0 ; gunship_entity
  00010	75 08		 jne	 SHORT $LN2@adjust_rad

; 762  : 	{
; 763  : 		return amp;

  00012	d9 45 08	 fld	 DWORD PTR _amp$[ebp]
  00015	e9 fe 00 00 00	 jmp	 $LN1@adjust_rad
$LN2@adjust_rad:

; 764  : 	}
; 765  : 
; 766  : 	ASSERT (pos);

  0001a	83 7d 0c 00	 cmp	 DWORD PTR _pos$[ebp], 0
  0001e	75 18		 jne	 SHORT $LN3@adjust_rad
  00020	a1 00 00 00 00	 mov	 eax, DWORD PTR ?__LINE__Var@?0??adjust_radio_message_amplification@@YGMMPAUVEC3D@@@Z@4JA
  00025	83 c0 0a	 add	 eax, 10			; 0000000aH
  00028	50		 push	 eax
  00029	68 00 00 00 00	 push	 OFFSET ??_C@_0FG@NJPAEEKF@c?3?2users?2nhv90?2projects?2eech?2ap@
  0002e	68 00 00 00 00	 push	 OFFSET ??_C@_03PCBNCGFH@pos@
  00033	e8 00 00 00 00	 call	 ?process_assert@@YGXPBD0H@Z ; process_assert
$LN3@adjust_rad:

; 767  : 
; 768  : 	range = get_approx_3d_range (get_local_entity_vec3d_ptr (get_gunship_entity (), VEC3D_TYPE_POSITION), pos);

  00038	83 3d 00 00 00
	00 00		 cmp	 DWORD PTR ?gunship_entity@@3PAUENTITY@@A, 0 ; gunship_entity
  0003f	74 0c		 je	 SHORT $LN7@adjust_rad
  00041	a1 00 00 00 00	 mov	 eax, DWORD PTR ?gunship_entity@@3PAUENTITY@@A ; gunship_entity
  00046	8b 08		 mov	 ecx, DWORD PTR [eax]
  00048	89 4d b4	 mov	 DWORD PTR tv78[ebp], ecx
  0004b	eb 21		 jmp	 SHORT $LN8@adjust_rad
$LN7@adjust_rad:
  0004d	8b 15 00 00 00
	00		 mov	 edx, DWORD PTR ?__LINE__Var@?0??adjust_radio_message_amplification@@YGMMPAUVEC3D@@@Z@4JA
  00053	83 c2 0c	 add	 edx, 12			; 0000000cH
  00056	52		 push	 edx
  00057	68 00 00 00 00	 push	 OFFSET ??_C@_0FG@NJPAEEKF@c?3?2users?2nhv90?2projects?2eech?2ap@
  0005c	a1 00 00 00 00	 mov	 eax, DWORD PTR ?null_entity_pointer_message@@3PBDB ; null_entity_pointer_message
  00061	50		 push	 eax
  00062	e8 00 00 00 00	 call	 ?process_assert@@YGXPBD0H@Z ; process_assert
  00067	c7 45 b4 00 00
	00 00		 mov	 DWORD PTR tv78[ebp], 0
$LN8@adjust_rad:
  0006e	b9 01 00 00 00	 mov	 ecx, 1
  00073	85 c9		 test	 ecx, ecx
  00075	74 09		 je	 SHORT $LN9@adjust_rad
  00077	c7 45 b0 08 00
	00 00		 mov	 DWORD PTR tv86[ebp], 8
  0007e	eb 21		 jmp	 SHORT $LN10@adjust_rad
$LN9@adjust_rad:
  00080	8b 15 00 00 00
	00		 mov	 edx, DWORD PTR ?__LINE__Var@?0??adjust_radio_message_amplification@@YGMMPAUVEC3D@@@Z@4JA
  00086	83 c2 0c	 add	 edx, 12			; 0000000cH
  00089	52		 push	 edx
  0008a	68 00 00 00 00	 push	 OFFSET ??_C@_0FG@NJPAEEKF@c?3?2users?2nhv90?2projects?2eech?2ap@
  0008f	a1 00 00 00 00	 mov	 eax, DWORD PTR ?overload_invalid_vec3d_type_message@@3PBDB ; overload_invalid_vec3d_type_message
  00094	50		 push	 eax
  00095	e8 00 00 00 00	 call	 ?process_assert@@YGXPBD0H@Z ; process_assert
  0009a	c7 45 b0 00 00
	00 00		 mov	 DWORD PTR tv86[ebp], 0
$LN10@adjust_rad:
  000a1	8b 4d 0c	 mov	 ecx, DWORD PTR _pos$[ebp]
  000a4	51		 push	 ecx
  000a5	6a 08		 push	 8
  000a7	8b 15 00 00 00
	00		 mov	 edx, DWORD PTR ?gunship_entity@@3PAUENTITY@@A ; gunship_entity
  000ad	52		 push	 edx
  000ae	6b 45 b4 60	 imul	 eax, DWORD PTR tv78[ebp], 96
  000b2	8b 4d b0	 mov	 ecx, DWORD PTR tv86[ebp]
  000b5	8b 94 88 00 00
	00 00		 mov	 edx, DWORD PTR ?fn_get_local_entity_vec3d_ptr@@3PAY0BI@P6GPAUVEC3D@@PAUENTITY@@W4VEC3D_TYPES@@@ZA[eax+ecx*4]
  000bc	ff d2		 call	 edx
  000be	50		 push	 eax
  000bf	e8 00 00 00 00	 call	 ?get_approx_3d_range@@YGMPBUVEC3D@@0@Z ; get_approx_3d_range
  000c4	d9 5d f8	 fstp	 DWORD PTR _range$[ebp]

; 769  : 
; 770  : 	if (range > 120 * KILOMETRE)

  000c7	f3 0f 10 45 f8	 movss	 xmm0, DWORD PTR _range$[ebp]
  000cc	0f 2f 05 00 00
	00 00		 comiss	 xmm0, DWORD PTR __real@47ea6000
  000d3	76 04		 jbe	 SHORT $LN4@adjust_rad

; 771  : 	{
; 772  : 		return 0.0;

  000d5	d9 ee		 fldz
  000d7	eb 3f		 jmp	 SHORT $LN1@adjust_rad
$LN4@adjust_rad:

; 773  : 	}
; 774  : 
; 775  : 	if (range < 1 * KILOMETRE)

  000d9	f3 0f 10 05 00
	00 00 00	 movss	 xmm0, DWORD PTR __real@447a0000
  000e1	0f 2f 45 f8	 comiss	 xmm0, DWORD PTR _range$[ebp]
  000e5	76 05		 jbe	 SHORT $LN5@adjust_rad

; 776  : 	{
; 777  : 		return amp;

  000e7	d9 45 08	 fld	 DWORD PTR _amp$[ebp]
  000ea	eb 2c		 jmp	 SHORT $LN1@adjust_rad
$LN5@adjust_rad:

; 778  : 	}
; 779  : 
; 780  : 	d = ((120 * KILOMETRE) - range) / ((120 * KILOMETRE) - (1 * KILOMETRE));

  000ec	f3 0f 10 05 00
	00 00 00	 movss	 xmm0, DWORD PTR __real@47ea6000
  000f4	f3 0f 5c 45 f8	 subss	 xmm0, DWORD PTR _range$[ebp]
  000f9	f3 0f 5e 05 00
	00 00 00	 divss	 xmm0, DWORD PTR __real@47e86c00
  00101	f3 0f 11 45 fc	 movss	 DWORD PTR _d$[ebp], xmm0

; 781  : 
; 782  : 	return (d * amp);

  00106	f3 0f 10 45 fc	 movss	 xmm0, DWORD PTR _d$[ebp]
  0010b	f3 0f 59 45 08	 mulss	 xmm0, DWORD PTR _amp$[ebp]
  00110	f3 0f 11 45 b4	 movss	 DWORD PTR tv154[ebp], xmm0
  00115	d9 45 b4	 fld	 DWORD PTR tv154[ebp]
$LN1@adjust_rad:

; 783  : }

  00118	5f		 pop	 edi
  00119	5e		 pop	 esi
  0011a	5b		 pop	 ebx
  0011b	8b e5		 mov	 esp, ebp
  0011d	5d		 pop	 ebp
  0011e	c2 08 00	 ret	 8
?adjust_radio_message_amplification@@YGMMPAUVEC3D@@@Z ENDP ; adjust_radio_message_amplification
_TEXT	ENDS
; Function compile flags: /Odtp /ZI
; File c:\users\nhv90\projects\eech\aphavoc\source\entity\special\effect\soundeff\soundeff.c
;	COMDAT ?set_local_sound_effect_sample_indices@@YGXPAUENTITY@@HPAH@Z
_TEXT	SEGMENT
$T1 = -84						; size = 4
_size$2 = -16						; size = 4
_rate$3 = -12						; size = 4
_loop$ = -8						; size = 4
_raw$ = -4						; size = 4
_en$ = 8						; size = 4
_count$ = 12						; size = 4
_indices$ = 16						; size = 4
?set_local_sound_effect_sample_indices@@YGXPAUENTITY@@HPAH@Z PROC ; set_local_sound_effect_sample_indices, COMDAT

; 474  : {

  00000	55		 push	 ebp
  00001	8b ec		 mov	 ebp, esp
  00003	83 ec 54	 sub	 esp, 84			; 00000054H
  00006	53		 push	 ebx
  00007	56		 push	 esi
  00008	57		 push	 edi

; 475  : 	sound_effect
; 476  : 		*raw;
; 477  : 
; 478  : 	int
; 479  : 		loop;
; 480  : 
; 481  : 	ASSERT (en);

  00009	83 7d 08 00	 cmp	 DWORD PTR _en$[ebp], 0
  0000d	75 18		 jne	 SHORT $LN5@set_local_
  0000f	a1 00 00 00 00	 mov	 eax, DWORD PTR ?__LINE__Var@?0??set_local_sound_effect_sample_indices@@YGXPAUENTITY@@HPAH@Z@4JA
  00014	83 c0 07	 add	 eax, 7
  00017	50		 push	 eax
  00018	68 00 00 00 00	 push	 OFFSET ??_C@_0FG@NJPAEEKF@c?3?2users?2nhv90?2projects?2eech?2ap@
  0001d	68 00 00 00 00	 push	 OFFSET ??_C@_02LFNMGJAP@en@
  00022	e8 00 00 00 00	 call	 ?process_assert@@YGXPBD0H@Z ; process_assert
$LN5@set_local_:

; 482  : 
; 483  : 	ASSERT (count > 0);

  00027	83 7d 0c 00	 cmp	 DWORD PTR _count$[ebp], 0
  0002b	7f 18		 jg	 SHORT $LN6@set_local_
  0002d	a1 00 00 00 00	 mov	 eax, DWORD PTR ?__LINE__Var@?0??set_local_sound_effect_sample_indices@@YGXPAUENTITY@@HPAH@Z@4JA
  00032	83 c0 09	 add	 eax, 9
  00035	50		 push	 eax
  00036	68 00 00 00 00	 push	 OFFSET ??_C@_0FG@NJPAEEKF@c?3?2users?2nhv90?2projects?2eech?2ap@
  0003b	68 00 00 00 00	 push	 OFFSET ??_C@_09DMMLFBJB@count?5?$DO?50@
  00040	e8 00 00 00 00	 call	 ?process_assert@@YGXPBD0H@Z ; process_assert
$LN6@set_local_:

; 484  : 
; 485  : 	ASSERT (indices);

  00045	83 7d 10 00	 cmp	 DWORD PTR _indices$[ebp], 0
  00049	75 18		 jne	 SHORT $LN7@set_local_
  0004b	a1 00 00 00 00	 mov	 eax, DWORD PTR ?__LINE__Var@?0??set_local_sound_effect_sample_indices@@YGXPAUENTITY@@HPAH@Z@4JA
  00050	83 c0 0b	 add	 eax, 11			; 0000000bH
  00053	50		 push	 eax
  00054	68 00 00 00 00	 push	 OFFSET ??_C@_0FG@NJPAEEKF@c?3?2users?2nhv90?2projects?2eech?2ap@
  00059	68 00 00 00 00	 push	 OFFSET ??_C@_07OKCKIPNN@indices@
  0005e	e8 00 00 00 00	 call	 ?process_assert@@YGXPBD0H@Z ; process_assert
$LN7@set_local_:

; 486  : 
; 487  : 	raw = (sound_effect *) get_local_entity_data (en);

  00063	8b 45 08	 mov	 eax, DWORD PTR _en$[ebp]
  00066	8b 48 04	 mov	 ecx, DWORD PTR [eax+4]
  00069	89 4d fc	 mov	 DWORD PTR _raw$[ebp], ecx

; 488  : 
; 489  : 	ASSERT (!raw->effect_index);

  0006c	8b 45 fc	 mov	 eax, DWORD PTR _raw$[ebp]
  0006f	83 78 28 00	 cmp	 DWORD PTR [eax+40], 0
  00073	74 18		 je	 SHORT $LN8@set_local_
  00075	a1 00 00 00 00	 mov	 eax, DWORD PTR ?__LINE__Var@?0??set_local_sound_effect_sample_indices@@YGXPAUENTITY@@HPAH@Z@4JA
  0007a	83 c0 0f	 add	 eax, 15			; 0000000fH
  0007d	50		 push	 eax
  0007e	68 00 00 00 00	 push	 OFFSET ??_C@_0FG@NJPAEEKF@c?3?2users?2nhv90?2projects?2eech?2ap@
  00083	68 00 00 00 00	 push	 OFFSET ??_C@_0BD@NEFDAPA@?$CBraw?9?$DOeffect_index@
  00088	e8 00 00 00 00	 call	 ?process_assert@@YGXPBD0H@Z ; process_assert
$LN8@set_local_:

; 490  : 
; 491  : 	//
; 492  : 	// copy sample indices
; 493  : 	//
; 494  : 
; 495  : 	raw->sound_effect_sequence_count = count;

  0008d	8b 45 0c	 mov	 eax, DWORD PTR _count$[ebp]
  00090	83 e0 0f	 and	 eax, 15			; 0000000fH
  00093	c1 e0 0b	 shl	 eax, 11			; 0000000bH
  00096	8b 4d fc	 mov	 ecx, DWORD PTR _raw$[ebp]
  00099	8b 51 40	 mov	 edx, DWORD PTR [ecx+64]
  0009c	81 e2 ff 87 ff
	ff		 and	 edx, -30721		; ffff87ffH
  000a2	0b d0		 or	 edx, eax
  000a4	8b 45 fc	 mov	 eax, DWORD PTR _raw$[ebp]
  000a7	89 50 40	 mov	 DWORD PTR [eax+64], edx

; 496  : 
; 497  : 	raw->effect_index = (sound_sample_indices *) malloc_fast_mem (sizeof (sound_sample_indices) * count);	

  000aa	8b 45 0c	 mov	 eax, DWORD PTR _count$[ebp]
  000ad	c1 e0 02	 shl	 eax, 2
  000b0	50		 push	 eax
  000b1	e8 00 00 00 00	 call	 ?malloc_fast_memory@@YGPAXI@Z ; malloc_fast_memory
  000b6	8b 4d fc	 mov	 ecx, DWORD PTR _raw$[ebp]
  000b9	89 41 28	 mov	 DWORD PTR [ecx+40], eax

; 498  : 	
; 499  : 	memcpy (raw->effect_index, indices, sizeof (sound_sample_indices) * count);

  000bc	8b 45 0c	 mov	 eax, DWORD PTR _count$[ebp]
  000bf	c1 e0 02	 shl	 eax, 2
  000c2	50		 push	 eax
  000c3	8b 4d 10	 mov	 ecx, DWORD PTR _indices$[ebp]
  000c6	51		 push	 ecx
  000c7	8b 55 fc	 mov	 edx, DWORD PTR _raw$[ebp]
  000ca	8b 42 28	 mov	 eax, DWORD PTR [edx+40]
  000cd	50		 push	 eax
  000ce	e8 00 00 00 00	 call	 _memcpy
  000d3	83 c4 0c	 add	 esp, 12			; 0000000cH

; 500  : 
; 501  : 	//
; 502  : 	// determine playing time
; 503  : 	//
; 504  : 
; 505  : 	raw->effect_lifetime = 0;

  000d6	8b 45 fc	 mov	 eax, DWORD PTR _raw$[ebp]
  000d9	0f 57 c0	 xorps	 xmm0, xmm0
  000dc	f3 0f 11 40 34	 movss	 DWORD PTR [eax+52], xmm0

; 506  : 
; 507  : 	if (!raw->looping)

  000e1	8b 45 fc	 mov	 eax, DWORD PTR _raw$[ebp]
  000e4	8b 48 40	 mov	 ecx, DWORD PTR [eax+64]
  000e7	c1 e9 09	 shr	 ecx, 9
  000ea	83 e1 01	 and	 ecx, 1
  000ed	0f 85 23 01 00
	00		 jne	 $LN9@set_local_

; 508  : 	{
; 509  : 		float
; 510  : 			rate,
; 511  : 			size;
; 512  : 
; 513  : 		for (loop = 0; loop < count; loop ++)

  000f3	c7 45 f8 00 00
	00 00		 mov	 DWORD PTR _loop$[ebp], 0
  000fa	eb 09		 jmp	 SHORT $LN4@set_local_
$LN2@set_local_:
  000fc	8b 45 f8	 mov	 eax, DWORD PTR _loop$[ebp]
  000ff	83 c0 01	 add	 eax, 1
  00102	89 45 f8	 mov	 DWORD PTR _loop$[ebp], eax
$LN4@set_local_:
  00105	8b 45 f8	 mov	 eax, DWORD PTR _loop$[ebp]
  00108	3b 45 0c	 cmp	 eax, DWORD PTR _count$[ebp]
  0010b	0f 8d b2 00 00
	00		 jge	 $LN3@set_local_

; 514  : 		{
; 515  : 			ASSERT (indices [loop] != SOUND_SAMPLE_INDEX_NONE);

  00111	8b 45 f8	 mov	 eax, DWORD PTR _loop$[ebp]
  00114	8b 4d 10	 mov	 ecx, DWORD PTR _indices$[ebp]
  00117	83 3c 81 00	 cmp	 DWORD PTR [ecx+eax*4], 0
  0011b	75 18		 jne	 SHORT $LN10@set_local_
  0011d	a1 00 00 00 00	 mov	 eax, DWORD PTR ?__LINE__Var@?0??set_local_sound_effect_sample_indices@@YGXPAUENTITY@@HPAH@Z@4JA
  00122	83 c0 29	 add	 eax, 41			; 00000029H
  00125	50		 push	 eax
  00126	68 00 00 00 00	 push	 OFFSET ??_C@_0FG@NJPAEEKF@c?3?2users?2nhv90?2projects?2eech?2ap@
  0012b	68 00 00 00 00	 push	 OFFSET ??_C@_0CK@JOAMDBNJ@indices?5?$FLloop?$FN?5?$CB?$DN?5SOUND_SAMPLE_@
  00130	e8 00 00 00 00	 call	 ?process_assert@@YGXPBD0H@Z ; process_assert
$LN10@set_local_:

; 516  : 
; 517  : 			rate = (float)(application_sound_effects [indices [loop]].rate);

  00135	8b 45 f8	 mov	 eax, DWORD PTR _loop$[ebp]
  00138	8b 4d 10	 mov	 ecx, DWORD PTR _indices$[ebp]
  0013b	8b 14 81	 mov	 edx, DWORD PTR [ecx+eax*4]
  0013e	c1 e2 05	 shl	 edx, 5
  00141	f3 0f 2a 82 08
	00 00 00	 cvtsi2ss xmm0, DWORD PTR ?application_sound_effects@@3PAUSOUND_EFFECT_INFORMATION@@A[edx+8]
  00149	f3 0f 11 45 f4	 movss	 DWORD PTR _rate$3[ebp], xmm0

; 518  : 			size = (float)(application_sound_effects [indices [loop]].size);

  0014e	8b 45 f8	 mov	 eax, DWORD PTR _loop$[ebp]
  00151	8b 4d 10	 mov	 ecx, DWORD PTR _indices$[ebp]
  00154	8b 14 81	 mov	 edx, DWORD PTR [ecx+eax*4]
  00157	c1 e2 05	 shl	 edx, 5
  0015a	f3 0f 2a 82 0c
	00 00 00	 cvtsi2ss xmm0, DWORD PTR ?application_sound_effects@@3PAUSOUND_EFFECT_INFORMATION@@A[edx+12]
  00162	f3 0f 11 45 f0	 movss	 DWORD PTR _size$2[ebp], xmm0

; 519  : 
; 520  : 			if (rate <= 0.0)

  00167	f3 0f 5a 45 f4	 cvtss2sd xmm0, DWORD PTR _rate$3[ebp]
  0016c	0f 57 c9	 xorps	 xmm1, xmm1
  0016f	66 0f 2f c8	 comisd	 xmm1, xmm0
  00173	72 2f		 jb	 SHORT $LN11@set_local_

; 521  : 			{
; 522  : 				debug_log ("SOUNDEFF : Sound effect rate invalid ( index = %s, rate = %d )", application_sound_effects [indices [loop]].name, rate);

  00175	f3 0f 5a 45 f4	 cvtss2sd xmm0, DWORD PTR _rate$3[ebp]
  0017a	83 ec 08	 sub	 esp, 8
  0017d	f2 0f 11 04 24	 movsd	 QWORD PTR [esp], xmm0
  00182	8b 45 f8	 mov	 eax, DWORD PTR _loop$[ebp]
  00185	8b 4d 10	 mov	 ecx, DWORD PTR _indices$[ebp]
  00188	8b 14 81	 mov	 edx, DWORD PTR [ecx+eax*4]
  0018b	c1 e2 05	 shl	 edx, 5
  0018e	8b 82 00 00 00
	00		 mov	 eax, DWORD PTR ?application_sound_effects@@3PAUSOUND_EFFECT_INFORMATION@@A[edx]
  00194	50		 push	 eax
  00195	68 00 00 00 00	 push	 OFFSET ??_C@_0DP@JBMLCDPK@SOUNDEFF?5?3?5Sound?5effect?5rate?5in@
  0019a	e8 00 00 00 00	 call	 ?debug_log@@YAXPBDZZ	; debug_log
  0019f	83 c4 10	 add	 esp, 16			; 00000010H

; 523  : 			}
; 524  : 			else

  001a2	eb 1a		 jmp	 SHORT $LN12@set_local_
$LN11@set_local_:

; 525  : 			{
; 526  : 				raw->effect_lifetime += (size / rate);

  001a4	f3 0f 10 45 f0	 movss	 xmm0, DWORD PTR _size$2[ebp]
  001a9	f3 0f 5e 45 f4	 divss	 xmm0, DWORD PTR _rate$3[ebp]
  001ae	8b 45 fc	 mov	 eax, DWORD PTR _raw$[ebp]
  001b1	f3 0f 58 40 34	 addss	 xmm0, DWORD PTR [eax+52]
  001b6	8b 4d fc	 mov	 ecx, DWORD PTR _raw$[ebp]
  001b9	f3 0f 11 41 34	 movss	 DWORD PTR [ecx+52], xmm0
$LN12@set_local_:

; 527  : 			}
; 528  : 		}

  001be	e9 39 ff ff ff	 jmp	 $LN2@set_local_
$LN3@set_local_:

; 529  : 
; 530  : 		ASSERT (raw->effect_lifetime < 40.0);

  001c3	8b 45 fc	 mov	 eax, DWORD PTR _raw$[ebp]
  001c6	f3 0f 5a 40 34	 cvtss2sd xmm0, DWORD PTR [eax+52]
  001cb	f2 0f 10 0d 00
	00 00 00	 movsd	 xmm1, QWORD PTR __real@4044000000000000
  001d3	66 0f 2f c8	 comisd	 xmm1, xmm0
  001d7	77 18		 ja	 SHORT $LN13@set_local_
  001d9	a1 00 00 00 00	 mov	 eax, DWORD PTR ?__LINE__Var@?0??set_local_sound_effect_sample_indices@@YGXPAUENTITY@@HPAH@Z@4JA
  001de	83 c0 38	 add	 eax, 56			; 00000038H
  001e1	50		 push	 eax
  001e2	68 00 00 00 00	 push	 OFFSET ??_C@_0FG@NJPAEEKF@c?3?2users?2nhv90?2projects?2eech?2ap@
  001e7	68 00 00 00 00	 push	 OFFSET ??_C@_0BM@MEFKDNKM@raw?9?$DOeffect_lifetime?5?$DM?540?40@
  001ec	e8 00 00 00 00	 call	 ?process_assert@@YGXPBD0H@Z ; process_assert
$LN13@set_local_:

; 531  : 
; 532  : 		raw->effect_lifetime = min (raw->effect_lifetime, 40.0f);

  001f1	f3 0f 10 05 00
	00 00 00	 movss	 xmm0, DWORD PTR __real@42200000
  001f9	f3 0f 11 45 ac	 movss	 DWORD PTR $T1[ebp], xmm0
  001fe	8d 45 ac	 lea	 eax, DWORD PTR $T1[ebp]
  00201	50		 push	 eax
  00202	8b 4d fc	 mov	 ecx, DWORD PTR _raw$[ebp]
  00205	83 c1 34	 add	 ecx, 52			; 00000034H
  00208	51		 push	 ecx
  00209	e8 00 00 00 00	 call	 ??$min@M@std@@YGABMABM0@Z ; std::min<float>
  0020e	8b 55 fc	 mov	 edx, DWORD PTR _raw$[ebp]
  00211	8b 00		 mov	 eax, DWORD PTR [eax]
  00213	89 42 34	 mov	 DWORD PTR [edx+52], eax
$LN9@set_local_:

; 533  : 	}
; 534  : }

  00216	5f		 pop	 edi
  00217	5e		 pop	 esi
  00218	5b		 pop	 ebx
  00219	8b e5		 mov	 esp, ebp
  0021b	5d		 pop	 ebp
  0021c	c2 0c 00	 ret	 12			; 0000000cH
?set_local_sound_effect_sample_indices@@YGXPAUENTITY@@HPAH@Z ENDP ; set_local_sound_effect_sample_indices
_TEXT	ENDS
; Function compile flags: /Odtp /ZI
; File c:\users\nhv90\projects\eech\aphavoc\source\entity\special\effect\soundeff\soundeff.c
;	COMDAT ?create_client_server_sound_effect_entity@@YGPAUENTITY@@PAU1@W4ENTITY_SIDES@@HW4SOUND_CHANNEL_TYPES@@W4SOUND_LOCALITY_TYPES@@PAUVEC3D@@MMHHHPAH@Z
_TEXT	SEGMENT
tv137 = -72						; size = 4
_en$ = -4						; size = 4
_parent$ = 8						; size = 4
_side$ = 12						; size = 4
_sub_type$ = 16						; size = 4
_channel$ = 20						; size = 4
_locality$ = 24						; size = 4
_position$ = 28						; size = 4
_amp$ = 32						; size = 4
_pitch$ = 36						; size = 4
_valid$ = 40						; size = 4
_looping$ = 44						; size = 4
_sample_count$ = 48					; size = 4
_sample_indices$ = 52					; size = 4
?create_client_server_sound_effect_entity@@YGPAUENTITY@@PAU1@W4ENTITY_SIDES@@HW4SOUND_CHANNEL_TYPES@@W4SOUND_LOCALITY_TYPES@@PAUVEC3D@@MMHHHPAH@Z PROC ; create_client_server_sound_effect_entity, COMDAT

; 704  : {

  00000	55		 push	 ebp
  00001	8b ec		 mov	 ebp, esp
  00003	83 ec 48	 sub	 esp, 72			; 00000048H
  00006	53		 push	 ebx
  00007	56		 push	 esi
  00008	57		 push	 edi

; 705  : 	entity
; 706  : 		*en;
; 707  : 
; 708  : 	ASSERT (get_comms_model () == COMMS_MODEL_SERVER);

  00009	83 3d 00 00 00
	00 00		 cmp	 DWORD PTR ?system_comms_model@@3W4COMMS_MODEL_TYPES@@A, 0 ; system_comms_model
  00010	74 18		 je	 SHORT $LN2@create_cli
  00012	a1 00 00 00 00	 mov	 eax, DWORD PTR ?__LINE__Var@?0??create_client_server_sound_effect_entity@@YGPAUENTITY@@PAU2@W4ENTITY_SIDES@@HW4SOUND_CHANNEL_TYPES@@W4SOUND_LOCALITY_TYPES@@PAUVEC3D@@MMHHHPAH@Z@4JA
  00017	83 c0 04	 add	 eax, 4
  0001a	50		 push	 eax
  0001b	68 00 00 00 00	 push	 OFFSET ??_C@_0FG@NJPAEEKF@c?3?2users?2nhv90?2projects?2eech?2ap@
  00020	68 00 00 00 00	 push	 OFFSET ??_C@_0CJ@DMBLBJBK@get_comms_model?5?$CI?$CJ?5?$DN?$DN?5COMMS_MOD@
  00025	e8 00 00 00 00	 call	 ?process_assert@@YGXPBD0H@Z ; process_assert
$LN2@create_cli:

; 709  : 
; 710  : 	ASSERT (side < NUM_ENTITY_SIDES);

  0002a	83 7d 0c 03	 cmp	 DWORD PTR _side$[ebp], 3
  0002e	7c 18		 jl	 SHORT $LN3@create_cli
  00030	a1 00 00 00 00	 mov	 eax, DWORD PTR ?__LINE__Var@?0??create_client_server_sound_effect_entity@@YGPAUENTITY@@PAU2@W4ENTITY_SIDES@@HW4SOUND_CHANNEL_TYPES@@W4SOUND_LOCALITY_TYPES@@PAUVEC3D@@MMHHHPAH@Z@4JA
  00035	83 c0 06	 add	 eax, 6
  00038	50		 push	 eax
  00039	68 00 00 00 00	 push	 OFFSET ??_C@_0FG@NJPAEEKF@c?3?2users?2nhv90?2projects?2eech?2ap@
  0003e	68 00 00 00 00	 push	 OFFSET ??_C@_0BI@PLFJLGPL@side?5?$DM?5NUM_ENTITY_SIDES@
  00043	e8 00 00 00 00	 call	 ?process_assert@@YGXPBD0H@Z ; process_assert
$LN3@create_cli:

; 711  : 
; 712  : 	en = create_local_sound_effect_entity

  00048	8b 45 34	 mov	 eax, DWORD PTR _sample_indices$[ebp]
  0004b	50		 push	 eax
  0004c	8b 4d 30	 mov	 ecx, DWORD PTR _sample_count$[ebp]
  0004f	51		 push	 ecx
  00050	8b 55 2c	 mov	 edx, DWORD PTR _looping$[ebp]
  00053	52		 push	 edx
  00054	8b 45 28	 mov	 eax, DWORD PTR _valid$[ebp]
  00057	50		 push	 eax
  00058	51		 push	 ecx
  00059	f3 0f 10 45 24	 movss	 xmm0, DWORD PTR _pitch$[ebp]
  0005e	f3 0f 11 04 24	 movss	 DWORD PTR [esp], xmm0
  00063	51		 push	 ecx
  00064	f3 0f 10 45 20	 movss	 xmm0, DWORD PTR _amp$[ebp]
  00069	f3 0f 11 04 24	 movss	 DWORD PTR [esp], xmm0
  0006e	8b 4d 1c	 mov	 ecx, DWORD PTR _position$[ebp]
  00071	51		 push	 ecx
  00072	8b 55 18	 mov	 edx, DWORD PTR _locality$[ebp]
  00075	52		 push	 edx
  00076	8b 45 14	 mov	 eax, DWORD PTR _channel$[ebp]
  00079	50		 push	 eax
  0007a	8b 4d 10	 mov	 ecx, DWORD PTR _sub_type$[ebp]
  0007d	51		 push	 ecx
  0007e	8b 55 0c	 mov	 edx, DWORD PTR _side$[ebp]
  00081	52		 push	 edx
  00082	8b 45 08	 mov	 eax, DWORD PTR _parent$[ebp]
  00085	50		 push	 eax
  00086	6a ff		 push	 -1
  00088	e8 00 00 00 00	 call	 ?create_local_sound_effect_entity@@YGPAUENTITY@@HPAU1@W4ENTITY_SIDES@@HW4SOUND_CHANNEL_TYPES@@W4SOUND_LOCALITY_TYPES@@PAUVEC3D@@MMHHHPAH@Z ; create_local_sound_effect_entity
  0008d	89 45 fc	 mov	 DWORD PTR _en$[ebp], eax

; 713  : 	(
; 714  : 		ENTITY_INDEX_DONT_CARE,
; 715  : 		parent,
; 716  : 		side,
; 717  : 		sub_type,
; 718  : 		channel,
; 719  : 		locality,
; 720  : 		position,
; 721  : 		amp,
; 722  : 		pitch,
; 723  : 		valid,
; 724  : 		looping,
; 725  : 		sample_count,
; 726  : 		sample_indices
; 727  : 	);
; 728  : 
; 729  : 	transmit_entity_comms_message

  00090	83 7d fc 00	 cmp	 DWORD PTR _en$[ebp], 0
  00094	74 11		 je	 SHORT $LN5@create_cli
  00096	8b 45 fc	 mov	 eax, DWORD PTR _en$[ebp]
  00099	2b 05 00 00 00
	00		 sub	 eax, DWORD PTR ?entities@@3PAUENTITY@@A ; entities
  0009f	c1 f8 04	 sar	 eax, 4
  000a2	89 45 b8	 mov	 DWORD PTR tv137[ebp], eax
  000a5	eb 07		 jmp	 SHORT $LN6@create_cli
$LN5@create_cli:
  000a7	c7 45 b8 ff ff
	ff ff		 mov	 DWORD PTR tv137[ebp], -1
$LN6@create_cli:
  000ae	8b 4d 34	 mov	 ecx, DWORD PTR _sample_indices$[ebp]
  000b1	51		 push	 ecx
  000b2	8b 55 30	 mov	 edx, DWORD PTR _sample_count$[ebp]
  000b5	52		 push	 edx
  000b6	8b 45 2c	 mov	 eax, DWORD PTR _looping$[ebp]
  000b9	50		 push	 eax
  000ba	8b 4d 28	 mov	 ecx, DWORD PTR _valid$[ebp]
  000bd	51		 push	 ecx
  000be	f3 0f 5a 45 24	 cvtss2sd xmm0, DWORD PTR _pitch$[ebp]
  000c3	83 ec 08	 sub	 esp, 8
  000c6	f2 0f 11 04 24	 movsd	 QWORD PTR [esp], xmm0
  000cb	f3 0f 5a 45 20	 cvtss2sd xmm0, DWORD PTR _amp$[ebp]
  000d0	83 ec 08	 sub	 esp, 8
  000d3	f2 0f 11 04 24	 movsd	 QWORD PTR [esp], xmm0
  000d8	8b 55 1c	 mov	 edx, DWORD PTR _position$[ebp]
  000db	52		 push	 edx
  000dc	8b 45 18	 mov	 eax, DWORD PTR _locality$[ebp]
  000df	50		 push	 eax
  000e0	8b 4d 14	 mov	 ecx, DWORD PTR _channel$[ebp]
  000e3	51		 push	 ecx
  000e4	8b 55 10	 mov	 edx, DWORD PTR _sub_type$[ebp]
  000e7	52		 push	 edx
  000e8	8b 45 0c	 mov	 eax, DWORD PTR _side$[ebp]
  000eb	50		 push	 eax
  000ec	8b 4d 08	 mov	 ecx, DWORD PTR _parent$[ebp]
  000ef	51		 push	 ecx
  000f0	8b 55 b8	 mov	 edx, DWORD PTR tv137[ebp]
  000f3	52		 push	 edx
  000f4	6a 00		 push	 0
  000f6	6a 0c		 push	 12			; 0000000cH
  000f8	e8 00 00 00 00	 call	 ?transmit_entity_comms_message@@YAXW4ENTITY_COMMS_MESSAGES@@PAUENTITY@@ZZ ; transmit_entity_comms_message
  000fd	83 c4 44	 add	 esp, 68			; 00000044H

; 730  : 	(
; 731  : 		ENTITY_COMMS_CREATE_SOUND_EFFECT,
; 732  : 		NULL,
; 733  : 		get_local_entity_safe_index (en),
; 734  : 		parent,
; 735  : 		side,
; 736  : 		sub_type,
; 737  : 		channel,
; 738  : 		locality,
; 739  : 		position,
; 740  : 		amp,
; 741  : 		pitch,
; 742  : 		valid,
; 743  : 		looping,
; 744  : 		sample_count,
; 745  : 		sample_indices
; 746  : 	);
; 747  : 
; 748  : 	return en;

  00100	8b 45 fc	 mov	 eax, DWORD PTR _en$[ebp]

; 749  : }

  00103	5f		 pop	 edi
  00104	5e		 pop	 esi
  00105	5b		 pop	 ebx
  00106	8b e5		 mov	 esp, ebp
  00108	5d		 pop	 ebp
  00109	c2 30 00	 ret	 48			; 00000030H
?create_client_server_sound_effect_entity@@YGPAUENTITY@@PAU1@W4ENTITY_SIDES@@HW4SOUND_CHANNEL_TYPES@@W4SOUND_LOCALITY_TYPES@@PAUVEC3D@@MMHHHPAH@Z ENDP ; create_client_server_sound_effect_entity
_TEXT	ENDS
; Function compile flags: /Odtp /ZI
; File c:\users\nhv90\projects\eech\aphavoc\source\entity\special\effect\soundeff\soundeff.c
;	COMDAT ?create_local_sound_effect_entity@@YGPAUENTITY@@HPAU1@W4ENTITY_SIDES@@HW4SOUND_CHANNEL_TYPES@@W4SOUND_LOCALITY_TYPES@@PAUVEC3D@@MMHHHPAH@Z
_TEXT	SEGMENT
tv88 = -96						; size = 4
tv128 = -92						; size = 4
tv80 = -92						; size = 4
_create_stack_attributes$ = -24				; size = 4
_panning$ = -20						; size = 4
_pos$ = -16						; size = 12
_en$ = -4						; size = 4
_index$ = 8						; size = 4
_parent$ = 12						; size = 4
_side$ = 16						; size = 4
_sub_type$ = 20						; size = 4
_channel$ = 24						; size = 4
_locality$ = 28						; size = 4
_position$ = 32						; size = 4
_amp$ = 36						; size = 4
_pitch$ = 40						; size = 4
_valid$ = 44						; size = 4
_looping$ = 48						; size = 4
_sample_count$ = 52					; size = 4
_sample_indices$ = 56					; size = 4
?create_local_sound_effect_entity@@YGPAUENTITY@@HPAU1@W4ENTITY_SIDES@@HW4SOUND_CHANNEL_TYPES@@W4SOUND_LOCALITY_TYPES@@PAUVEC3D@@MMHHHPAH@Z PROC ; create_local_sound_effect_entity, COMDAT

; 556  : {

  00000	55		 push	 ebp
  00001	8b ec		 mov	 ebp, esp
  00003	83 ec 60	 sub	 esp, 96			; 00000060H
  00006	53		 push	 ebx
  00007	56		 push	 esi
  00008	57		 push	 edi

; 557  : 	entity
; 558  : 		*en;
; 559  : 
; 560  : 	vec3d
; 561  : 		pos;
; 562  : 
; 563  : 	int
; 564  : 		panning,
; 565  : 		create_stack_attributes;
; 566  : 
; 567  : 	ASSERT (parent);

  00009	83 7d 0c 00	 cmp	 DWORD PTR _parent$[ebp], 0
  0000d	75 18		 jne	 SHORT $LN4@create_loc
  0000f	a1 00 00 00 00	 mov	 eax, DWORD PTR ?__LINE__Var@?0??create_local_sound_effect_entity@@YGPAUENTITY@@HPAU2@W4ENTITY_SIDES@@HW4SOUND_CHANNEL_TYPES@@W4SOUND_LOCALITY_TYPES@@PAUVEC3D@@MMHHHPAH@Z@4JA
  00014	83 c0 0b	 add	 eax, 11			; 0000000bH
  00017	50		 push	 eax
  00018	68 00 00 00 00	 push	 OFFSET ??_C@_0FG@NJPAEEKF@c?3?2users?2nhv90?2projects?2eech?2ap@
  0001d	68 00 00 00 00	 push	 OFFSET ??_C@_06MLKDMCBD@parent@
  00022	e8 00 00 00 00	 call	 ?process_assert@@YGXPBD0H@Z ; process_assert
$LN4@create_loc:

; 568  : 
; 569  : 	create_stack_attributes = force_local_entity_create_stack_attributes;

  00027	a1 00 00 00 00	 mov	 eax, DWORD PTR ?force_local_entity_create_stack_attributes@@3HA ; force_local_entity_create_stack_attributes
  0002c	89 45 e8	 mov	 DWORD PTR _create_stack_attributes$[ebp], eax

; 570  : 
; 571  : 	if (pitch == 0.0)   //Werewolf 4 Feb 2006

  0002f	f3 0f 5a 45 28	 cvtss2sd xmm0, DWORD PTR _pitch$[ebp]
  00034	66 0f 2e 05 00
	00 00 00	 ucomisd xmm0, QWORD PTR __real@0000000000000000
  0003c	9f		 lahf
  0003d	f6 c4 44	 test	 ah, 68			; 00000044H
  00040	7a 0d		 jp	 SHORT $LN5@create_loc

; 572  : 	{
; 573  : 		pitch = 1.0;  // If pitch is unset, use a sane default value

  00042	f3 0f 10 05 00
	00 00 00	 movss	 xmm0, DWORD PTR __real@3f800000
  0004a	f3 0f 11 45 28	 movss	 DWORD PTR _pitch$[ebp], xmm0
$LN5@create_loc:

; 574  : 	}
; 575  : 
; 576  : 	if (get_comms_data_flow () == COMMS_DATA_FLOW_RX)

  0004f	83 3d 00 00 00
	00 01		 cmp	 DWORD PTR ?system_comms_data_flow@@3W4COMMS_DATA_FLOW_TYPES@@A, 1 ; system_comms_data_flow
  00056	75 0a		 jne	 SHORT $LN6@create_loc

; 577  : 	{
; 578  : 		set_force_local_entity_create_stack_attributes (TRUE);

  00058	c7 05 00 00 00
	00 01 00 00 00	 mov	 DWORD PTR ?force_local_entity_create_stack_attributes@@3HA, 1 ; force_local_entity_create_stack_attributes
$LN6@create_loc:

; 579  : 	}
; 580  : 
; 581  : 	panning = TRUE;

  00062	c7 45 ec 01 00
	00 00		 mov	 DWORD PTR _panning$[ebp], 1

; 582  : 
; 583  : 	if (position)

  00069	83 7d 20 00	 cmp	 DWORD PTR _position$[ebp], 0
  0006d	74 19		 je	 SHORT $LN7@create_loc

; 584  : 	{
; 585  : 		pos = *position;

  0006f	8b 45 20	 mov	 eax, DWORD PTR _position$[ebp]
  00072	8b 08		 mov	 ecx, DWORD PTR [eax]
  00074	89 4d f0	 mov	 DWORD PTR _pos$[ebp], ecx
  00077	8b 50 04	 mov	 edx, DWORD PTR [eax+4]
  0007a	89 55 f4	 mov	 DWORD PTR _pos$[ebp+4], edx
  0007d	8b 40 08	 mov	 eax, DWORD PTR [eax+8]
  00080	89 45 f8	 mov	 DWORD PTR _pos$[ebp+8], eax

; 586  : 	}
; 587  : 	else

  00083	e9 c7 00 00 00	 jmp	 $LN10@create_loc
$LN7@create_loc:

; 588  : 	{
; 589  : 		position = get_local_entity_vec3d_ptr (parent, VEC3D_TYPE_POSITION);

  00088	83 7d 0c 00	 cmp	 DWORD PTR _parent$[ebp], 0
  0008c	74 0a		 je	 SHORT $LN18@create_loc
  0008e	8b 45 0c	 mov	 eax, DWORD PTR _parent$[ebp]
  00091	8b 08		 mov	 ecx, DWORD PTR [eax]
  00093	89 4d a4	 mov	 DWORD PTR tv80[ebp], ecx
  00096	eb 21		 jmp	 SHORT $LN19@create_loc
$LN18@create_loc:
  00098	8b 15 00 00 00
	00		 mov	 edx, DWORD PTR ?__LINE__Var@?0??create_local_sound_effect_entity@@YGPAUENTITY@@HPAU2@W4ENTITY_SIDES@@HW4SOUND_CHANNEL_TYPES@@W4SOUND_LOCALITY_TYPES@@PAUVEC3D@@MMHHHPAH@Z@4JA
  0009e	83 c2 21	 add	 edx, 33			; 00000021H
  000a1	52		 push	 edx
  000a2	68 00 00 00 00	 push	 OFFSET ??_C@_0FG@NJPAEEKF@c?3?2users?2nhv90?2projects?2eech?2ap@
  000a7	a1 00 00 00 00	 mov	 eax, DWORD PTR ?null_entity_pointer_message@@3PBDB ; null_entity_pointer_message
  000ac	50		 push	 eax
  000ad	e8 00 00 00 00	 call	 ?process_assert@@YGXPBD0H@Z ; process_assert
  000b2	c7 45 a4 00 00
	00 00		 mov	 DWORD PTR tv80[ebp], 0
$LN19@create_loc:
  000b9	b9 01 00 00 00	 mov	 ecx, 1
  000be	85 c9		 test	 ecx, ecx
  000c0	74 09		 je	 SHORT $LN20@create_loc
  000c2	c7 45 a0 08 00
	00 00		 mov	 DWORD PTR tv88[ebp], 8
  000c9	eb 21		 jmp	 SHORT $LN21@create_loc
$LN20@create_loc:
  000cb	8b 15 00 00 00
	00		 mov	 edx, DWORD PTR ?__LINE__Var@?0??create_local_sound_effect_entity@@YGPAUENTITY@@HPAU2@W4ENTITY_SIDES@@HW4SOUND_CHANNEL_TYPES@@W4SOUND_LOCALITY_TYPES@@PAUVEC3D@@MMHHHPAH@Z@4JA
  000d1	83 c2 21	 add	 edx, 33			; 00000021H
  000d4	52		 push	 edx
  000d5	68 00 00 00 00	 push	 OFFSET ??_C@_0FG@NJPAEEKF@c?3?2users?2nhv90?2projects?2eech?2ap@
  000da	a1 00 00 00 00	 mov	 eax, DWORD PTR ?overload_invalid_vec3d_type_message@@3PBDB ; overload_invalid_vec3d_type_message
  000df	50		 push	 eax
  000e0	e8 00 00 00 00	 call	 ?process_assert@@YGXPBD0H@Z ; process_assert
  000e5	c7 45 a0 00 00
	00 00		 mov	 DWORD PTR tv88[ebp], 0
$LN21@create_loc:
  000ec	6a 08		 push	 8
  000ee	8b 4d 0c	 mov	 ecx, DWORD PTR _parent$[ebp]
  000f1	51		 push	 ecx
  000f2	6b 55 a4 60	 imul	 edx, DWORD PTR tv80[ebp], 96
  000f6	8b 45 a0	 mov	 eax, DWORD PTR tv88[ebp]
  000f9	8b 8c 82 00 00
	00 00		 mov	 ecx, DWORD PTR ?fn_get_local_entity_vec3d_ptr@@3PAY0BI@P6GPAUVEC3D@@PAUENTITY@@W4VEC3D_TYPES@@@ZA[edx+eax*4]
  00100	ff d1		 call	 ecx
  00102	89 45 20	 mov	 DWORD PTR _position$[ebp], eax

; 590  : 
; 591  : 		if (position)

  00105	83 7d 20 00	 cmp	 DWORD PTR _position$[ebp], 0
  00109	74 16		 je	 SHORT $LN9@create_loc

; 592  : 		{
; 593  : 			pos = *position;

  0010b	8b 45 20	 mov	 eax, DWORD PTR _position$[ebp]
  0010e	8b 08		 mov	 ecx, DWORD PTR [eax]
  00110	89 4d f0	 mov	 DWORD PTR _pos$[ebp], ecx
  00113	8b 50 04	 mov	 edx, DWORD PTR [eax+4]
  00116	89 55 f4	 mov	 DWORD PTR _pos$[ebp+4], edx
  00119	8b 40 08	 mov	 eax, DWORD PTR [eax+8]
  0011c	89 45 f8	 mov	 DWORD PTR _pos$[ebp+8], eax

; 594  : 		}
; 595  : 		else

  0011f	eb 2e		 jmp	 SHORT $LN10@create_loc
$LN9@create_loc:

; 596  : 		{
; 597  : 			pos.x = MID_MAP_X;

  00121	f3 0f 10 05 30
	00 00 00	 movss	 xmm0, DWORD PTR ?world_map@@3UWORLD_MAP_DATA@@A+48
  00129	f3 0f 11 45 f0	 movss	 DWORD PTR _pos$[ebp], xmm0

; 598  : 			pos.y = MID_MAP_Y;

  0012e	f3 0f 10 05 34
	00 00 00	 movss	 xmm0, DWORD PTR ?world_map@@3UWORLD_MAP_DATA@@A+52
  00136	f3 0f 11 45 f4	 movss	 DWORD PTR _pos$[ebp+4], xmm0

; 599  : 			pos.z = MID_MAP_Z;

  0013b	f3 0f 10 05 38
	00 00 00	 movss	 xmm0, DWORD PTR ?world_map@@3UWORLD_MAP_DATA@@A+56
  00143	f3 0f 11 45 f8	 movss	 DWORD PTR _pos$[ebp+8], xmm0

; 600  : 
; 601  : 			panning = FALSE;

  00148	c7 45 ec 00 00
	00 00		 mov	 DWORD PTR _panning$[ebp], 0
$LN10@create_loc:

; 602  : 		}
; 603  : 	}
; 604  : 
; 605  : 	//
; 606  : 	// special cases for speech
; 607  : 	//
; 608  : 	
; 609  : 	switch (sub_type)

  0014f	8b 45 14	 mov	 eax, DWORD PTR _sub_type$[ebp]
  00152	89 45 a4	 mov	 DWORD PTR tv128[ebp], eax
  00155	83 7d a4 13	 cmp	 DWORD PTR tv128[ebp], 19 ; 00000013H
  00159	74 42		 je	 SHORT $LN14@create_loc
  0015b	83 7d a4 1e	 cmp	 DWORD PTR tv128[ebp], 30 ; 0000001eH
  0015f	74 08		 je	 SHORT $LN11@create_loc
  00161	83 7d a4 28	 cmp	 DWORD PTR tv128[ebp], 40 ; 00000028H
  00165	74 36		 je	 SHORT $LN14@create_loc
  00167	eb 5d		 jmp	 SHORT $LN2@create_loc
$LN11@create_loc:

; 610  : 	{
; 611  : 		case ENTITY_SUB_TYPE_EFFECT_SOUND_RADIO_MESSAGE:
; 612  : 		{
; 613  : 			if (get_global_gunship_side () == side)

  00169	a1 08 00 00 00	 mov	 eax, DWORD PTR ?global_options@@3UGLOBAL_OPTIONS_DATA@@A+8
  0016e	3b 45 10	 cmp	 eax, DWORD PTR _side$[ebp]
  00171	75 19		 jne	 SHORT $LN12@create_loc

; 614  : 			{
; 615  : 				amp = adjust_radio_message_amplification (amp, &pos);

  00173	8d 45 f0	 lea	 eax, DWORD PTR _pos$[ebp]
  00176	50		 push	 eax
  00177	51		 push	 ecx
  00178	f3 0f 10 45 24	 movss	 xmm0, DWORD PTR _amp$[ebp]
  0017d	f3 0f 11 04 24	 movss	 DWORD PTR [esp], xmm0
  00182	e8 00 00 00 00	 call	 ?adjust_radio_message_amplification@@YGMMPAUVEC3D@@@Z ; adjust_radio_message_amplification
  00187	d9 5d 24	 fstp	 DWORD PTR _amp$[ebp]

; 616  : 			}
; 617  : 			else

  0018a	eb 08		 jmp	 SHORT $LN13@create_loc
$LN12@create_loc:

; 618  : 			{	
; 619  : 				amp = 0.0;

  0018c	0f 57 c0	 xorps	 xmm0, xmm0
  0018f	f3 0f 11 45 24	 movss	 DWORD PTR _amp$[ebp], xmm0
$LN13@create_loc:

; 620  : 			}
; 621  : 
; 622  : 			panning = FALSE;

  00194	c7 45 ec 00 00
	00 00		 mov	 DWORD PTR _panning$[ebp], 0

; 623  : 
; 624  : 			break;

  0019b	eb 29		 jmp	 SHORT $LN2@create_loc
$LN14@create_loc:

; 625  : 		}
; 626  : 
; 627  : 		case ENTITY_SUB_TYPE_EFFECT_SOUND_CPG_MESSAGE:
; 628  : 		case ENTITY_SUB_TYPE_EFFECT_SOUND_WARNING_MESSAGE:
; 629  : 		{
; 630  : 			if (parent == get_gunship_entity ())

  0019d	8b 45 0c	 mov	 eax, DWORD PTR _parent$[ebp]
  001a0	3b 05 00 00 00
	00		 cmp	 eax, DWORD PTR ?gunship_entity@@3PAUENTITY@@A ; gunship_entity
  001a6	75 0f		 jne	 SHORT $LN15@create_loc

; 631  : 			{
; 632  : 				amp = 1.0;

  001a8	f3 0f 10 05 00
	00 00 00	 movss	 xmm0, DWORD PTR __real@3f800000
  001b0	f3 0f 11 45 24	 movss	 DWORD PTR _amp$[ebp], xmm0

; 633  : 			}
; 634  : 			else

  001b5	eb 08		 jmp	 SHORT $LN16@create_loc
$LN15@create_loc:

; 635  : 			{
; 636  : 				amp = 0.0;

  001b7	0f 57 c0	 xorps	 xmm0, xmm0
  001ba	f3 0f 11 45 24	 movss	 DWORD PTR _amp$[ebp], xmm0
$LN16@create_loc:

; 637  : 			}
; 638  : 
; 639  : 			panning = FALSE;

  001bf	c7 45 ec 00 00
	00 00		 mov	 DWORD PTR _panning$[ebp], 0
$LN2@create_loc:

; 640  : 
; 641  : 			break;
; 642  : 		}
; 643  : 	}
; 644  : 
; 645  : 	//
; 646  : 	// create sound
; 647  : 	//
; 648  : 
; 649  : 	en = create_local_entity

  001c6	6a 00		 push	 0
  001c8	f3 0f 5a 45 28	 cvtss2sd xmm0, DWORD PTR _pitch$[ebp]
  001cd	83 ec 08	 sub	 esp, 8
  001d0	f2 0f 11 04 24	 movsd	 QWORD PTR [esp], xmm0
  001d5	6a 0a		 push	 10			; 0000000aH
  001d7	6a 04		 push	 4
  001d9	f3 0f 5a 45 24	 cvtss2sd xmm0, DWORD PTR _amp$[ebp]
  001de	83 ec 08	 sub	 esp, 8
  001e1	f2 0f 11 04 24	 movsd	 QWORD PTR [esp], xmm0
  001e6	6a 09		 push	 9
  001e8	6a 04		 push	 4
  001ea	8b 45 2c	 mov	 eax, DWORD PTR _valid$[ebp]
  001ed	50		 push	 eax
  001ee	68 f1 00 00 00	 push	 241			; 000000f1H
  001f3	6a 05		 push	 5
  001f5	8b 4d 1c	 mov	 ecx, DWORD PTR _locality$[ebp]
  001f8	51		 push	 ecx
  001f9	68 c7 00 00 00	 push	 199			; 000000c7H
  001fe	6a 05		 push	 5
  00200	8b 55 ec	 mov	 edx, DWORD PTR _panning$[ebp]
  00203	52		 push	 edx
  00204	68 c3 00 00 00	 push	 195			; 000000c3H
  00209	6a 05		 push	 5
  0020b	8b 45 30	 mov	 eax, DWORD PTR _looping$[ebp]
  0020e	50		 push	 eax
  0020f	68 c2 00 00 00	 push	 194			; 000000c2H
  00214	6a 05		 push	 5
  00216	8b 4d 18	 mov	 ecx, DWORD PTR _channel$[ebp]
  00219	51		 push	 ecx
  0021a	68 c0 00 00 00	 push	 192			; 000000c0H
  0021f	6a 05		 push	 5
  00221	f3 0f 5a 45 f8	 cvtss2sd xmm0, DWORD PTR _pos$[ebp+8]
  00226	83 ec 08	 sub	 esp, 8
  00229	f2 0f 11 04 24	 movsd	 QWORD PTR [esp], xmm0
  0022e	f3 0f 5a 45 f4	 cvtss2sd xmm0, DWORD PTR _pos$[ebp+4]
  00233	83 ec 08	 sub	 esp, 8
  00236	f2 0f 11 04 24	 movsd	 QWORD PTR [esp], xmm0
  0023b	f3 0f 5a 45 f0	 cvtss2sd xmm0, DWORD PTR _pos$[ebp]
  00240	83 ec 08	 sub	 esp, 8
  00243	f2 0f 11 04 24	 movsd	 QWORD PTR [esp], xmm0
  00248	6a 08		 push	 8
  0024a	6a 09		 push	 9
  0024c	8b 55 0c	 mov	 edx, DWORD PTR _parent$[ebp]
  0024f	52		 push	 edx
  00250	6a 24		 push	 36			; 00000024H
  00252	6a 06		 push	 6
  00254	8b 45 14	 mov	 eax, DWORD PTR _sub_type$[ebp]
  00257	50		 push	 eax
  00258	6a 34		 push	 52			; 00000034H
  0025a	6a 05		 push	 5
  0025c	8b 4d 08	 mov	 ecx, DWORD PTR _index$[ebp]
  0025f	51		 push	 ecx
  00260	6a 20		 push	 32			; 00000020H
  00262	e8 00 00 00 00	 call	 ?create_local_entity@@YAPAUENTITY@@W4ENTITY_TYPES@@HZZ ; create_local_entity
  00267	81 c4 a0 00 00
	00		 add	 esp, 160		; 000000a0H
  0026d	89 45 fc	 mov	 DWORD PTR _en$[ebp], eax

; 650  : 	(
; 651  : 		ENTITY_TYPE_SOUND_EFFECT,
; 652  : 		index,
; 653  : 		ENTITY_ATTR_INT_VALUE (INT_TYPE_ENTITY_SUB_TYPE, sub_type),
; 654  : 		ENTITY_ATTR_PARENT (LIST_TYPE_SPECIAL_EFFECT, parent),
; 655  : 		ENTITY_ATTR_VEC3D (VEC3D_TYPE_POSITION, pos.x, pos.y, pos.z),
; 656  : 		ENTITY_ATTR_INT_VALUE (INT_TYPE_SOUND_CHANNEL, channel),
; 657  : 		ENTITY_ATTR_INT_VALUE (INT_TYPE_SOUND_EFFECT_LOOPING, looping),
; 658  : 		ENTITY_ATTR_INT_VALUE (INT_TYPE_SOUND_EFFECT_PANNING, panning),
; 659  : 		ENTITY_ATTR_INT_VALUE (INT_TYPE_SOUND_LOCALITY, locality),
; 660  : 		ENTITY_ATTR_INT_VALUE (INT_TYPE_VALID_SOUND_EFFECT, valid),
; 661  : 		ENTITY_ATTR_FLOAT_VALUE (FLOAT_TYPE_AMPLIFICATION, amp),
; 662  : 		ENTITY_ATTR_FLOAT_VALUE (FLOAT_TYPE_SOUNDPITCH, pitch),
; 663  : 		ENTITY_ATTR_END
; 664  : 	);
; 665  : 
; 666  : 	set_local_sound_effect_sample_indices (en, sample_count, sample_indices);

  00270	8b 45 38	 mov	 eax, DWORD PTR _sample_indices$[ebp]
  00273	50		 push	 eax
  00274	8b 4d 34	 mov	 ecx, DWORD PTR _sample_count$[ebp]
  00277	51		 push	 ecx
  00278	8b 55 fc	 mov	 edx, DWORD PTR _en$[ebp]
  0027b	52		 push	 edx
  0027c	e8 00 00 00 00	 call	 ?set_local_sound_effect_sample_indices@@YGXPAUENTITY@@HPAH@Z ; set_local_sound_effect_sample_indices

; 667  : 
; 668  : 	#if DEBUG_MODULE
; 669  : 
; 670  : 	debug_log ("SOUNDEFF : created effect %s (%d), parent %s (%d), next %d, looping %d, valid %d",
; 671  : 							application_sound_effects [sample_indices [0]].name,
; 672  : 							get_local_entity_index (en),
; 673  : 							get_local_entity_type_name (parent),
; 674  : 							get_local_entity_index (parent),
; 675  : 							looping,
; 676  : 							valid);
; 677  : 
; 678  : 	#endif
; 679  : 
; 680  : 	set_force_local_entity_create_stack_attributes (create_stack_attributes);

  00281	8b 45 e8	 mov	 eax, DWORD PTR _create_stack_attributes$[ebp]
  00284	a3 00 00 00 00	 mov	 DWORD PTR ?force_local_entity_create_stack_attributes@@3HA, eax ; force_local_entity_create_stack_attributes

; 681  : 
; 682  : 	return en;

  00289	8b 45 fc	 mov	 eax, DWORD PTR _en$[ebp]

; 683  : }

  0028c	5f		 pop	 edi
  0028d	5e		 pop	 esi
  0028e	5b		 pop	 ebx
  0028f	8b e5		 mov	 esp, ebp
  00291	5d		 pop	 ebp
  00292	c2 34 00	 ret	 52			; 00000034H
?create_local_sound_effect_entity@@YGPAUENTITY@@HPAU1@W4ENTITY_SIDES@@HW4SOUND_CHANNEL_TYPES@@W4SOUND_LOCALITY_TYPES@@PAUVEC3D@@MMHHHPAH@Z ENDP ; create_local_sound_effect_entity
_TEXT	ENDS
; Function compile flags: /Odtp /ZI
; File c:\users\nhv90\projects\eech\aphavoc\source\entity\special\effect\soundeff\soundeff.c
;	COMDAT ?get_local_entity_sound_type_valid@@YGHPAUENTITY@@H@Z
_TEXT	SEGMENT
tv145 = -80						; size = 4
tv78 = -80						; size = 4
tv137 = -76						; size = 4
tv90 = -76						; size = 4
tv70 = -76						; size = 4
_raw$ = -8						; size = 4
_spec$ = -4						; size = 4
_en$ = 8						; size = 4
_type$ = 12						; size = 4
?get_local_entity_sound_type_valid@@YGHPAUENTITY@@H@Z PROC ; get_local_entity_sound_type_valid, COMDAT

; 442  : {

  00000	55		 push	 ebp
  00001	8b ec		 mov	 ebp, esp
  00003	83 ec 50	 sub	 esp, 80			; 00000050H
  00006	53		 push	 ebx
  00007	56		 push	 esi
  00008	57		 push	 edi

; 443  : 	entity
; 444  : 		*spec;
; 445  : 
; 446  : 	sound_effect
; 447  : 		*raw;
; 448  : 
; 449  : 	spec = get_local_entity_first_child (en, LIST_TYPE_SPECIAL_EFFECT);

  00009	83 7d 08 00	 cmp	 DWORD PTR _en$[ebp], 0
  0000d	74 0a		 je	 SHORT $LN7@get_local_
  0000f	8b 45 08	 mov	 eax, DWORD PTR _en$[ebp]
  00012	8b 08		 mov	 ecx, DWORD PTR [eax]
  00014	89 4d b4	 mov	 DWORD PTR tv70[ebp], ecx
  00017	eb 21		 jmp	 SHORT $LN8@get_local_
$LN7@get_local_:
  00019	8b 15 00 00 00
	00		 mov	 edx, DWORD PTR ?__LINE__Var@?0??get_local_entity_sound_type_valid@@YGHPAUENTITY@@H@Z@4JA
  0001f	83 c2 07	 add	 edx, 7
  00022	52		 push	 edx
  00023	68 00 00 00 00	 push	 OFFSET ??_C@_0FG@NJPAEEKF@c?3?2users?2nhv90?2projects?2eech?2ap@
  00028	a1 00 00 00 00	 mov	 eax, DWORD PTR ?null_entity_pointer_message@@3PBDB ; null_entity_pointer_message
  0002d	50		 push	 eax
  0002e	e8 00 00 00 00	 call	 ?process_assert@@YGXPBD0H@Z ; process_assert
  00033	c7 45 b4 00 00
	00 00		 mov	 DWORD PTR tv70[ebp], 0
$LN8@get_local_:
  0003a	b9 01 00 00 00	 mov	 ecx, 1
  0003f	85 c9		 test	 ecx, ecx
  00041	74 09		 je	 SHORT $LN9@get_local_
  00043	c7 45 b0 24 00
	00 00		 mov	 DWORD PTR tv78[ebp], 36	; 00000024H
  0004a	eb 21		 jmp	 SHORT $LN10@get_local_
$LN9@get_local_:
  0004c	8b 15 00 00 00
	00		 mov	 edx, DWORD PTR ?__LINE__Var@?0??get_local_entity_sound_type_valid@@YGHPAUENTITY@@H@Z@4JA
  00052	83 c2 07	 add	 edx, 7
  00055	52		 push	 edx
  00056	68 00 00 00 00	 push	 OFFSET ??_C@_0FG@NJPAEEKF@c?3?2users?2nhv90?2projects?2eech?2ap@
  0005b	a1 00 00 00 00	 mov	 eax, DWORD PTR ?overload_invalid_list_type_message@@3PBDB ; overload_invalid_list_type_message
  00060	50		 push	 eax
  00061	e8 00 00 00 00	 call	 ?process_assert@@YGXPBD0H@Z ; process_assert
  00066	c7 45 b0 00 00
	00 00		 mov	 DWORD PTR tv78[ebp], 0
$LN10@get_local_:
  0006d	6a 24		 push	 36			; 00000024H
  0006f	8b 4d 08	 mov	 ecx, DWORD PTR _en$[ebp]
  00072	51		 push	 ecx
  00073	69 55 b4 b4 00
	00 00		 imul	 edx, DWORD PTR tv70[ebp], 180
  0007a	8b 45 b0	 mov	 eax, DWORD PTR tv78[ebp]
  0007d	8b 8c 82 00 00
	00 00		 mov	 ecx, DWORD PTR ?fn_get_local_entity_first_child@@3PAY0CN@P6GPAUENTITY@@PAU1@W4LIST_TYPES@@@ZA[edx+eax*4]
  00084	ff d1		 call	 ecx
  00086	89 45 fc	 mov	 DWORD PTR _spec$[ebp], eax
$LN2@get_local_:

; 450  : 	
; 451  : 	while (spec)

  00089	83 7d fc 00	 cmp	 DWORD PTR _spec$[ebp], 0
  0008d	0f 84 dc 00 00
	00		 je	 $LN3@get_local_

; 452  : 	{
; 453  : 		if (get_local_entity_type (spec) == ENTITY_TYPE_SOUND_EFFECT)

  00093	83 7d fc 00	 cmp	 DWORD PTR _spec$[ebp], 0
  00097	74 0a		 je	 SHORT $LN11@get_local_
  00099	8b 45 fc	 mov	 eax, DWORD PTR _spec$[ebp]
  0009c	8b 08		 mov	 ecx, DWORD PTR [eax]
  0009e	89 4d b4	 mov	 DWORD PTR tv90[ebp], ecx
  000a1	eb 1d		 jmp	 SHORT $LN12@get_local_
$LN11@get_local_:
  000a3	68 c5 01 00 00	 push	 453			; 000001c5H
  000a8	68 00 00 00 00	 push	 OFFSET ??_C@_0FG@NJPAEEKF@c?3?2users?2nhv90?2projects?2eech?2ap@
  000ad	8b 15 00 00 00
	00		 mov	 edx, DWORD PTR ?null_entity_pointer_message@@3PBDB ; null_entity_pointer_message
  000b3	52		 push	 edx
  000b4	e8 00 00 00 00	 call	 ?process_assert@@YGXPBD0H@Z ; process_assert
  000b9	c7 45 b4 00 00
	00 00		 mov	 DWORD PTR tv90[ebp], 0
$LN12@get_local_:
  000c0	83 7d b4 20	 cmp	 DWORD PTR tv90[ebp], 32	; 00000020H
  000c4	75 24		 jne	 SHORT $LN4@get_local_

; 454  : 		{
; 455  : 			raw = (sound_effect *) get_local_entity_data (spec);

  000c6	8b 45 fc	 mov	 eax, DWORD PTR _spec$[ebp]
  000c9	8b 48 04	 mov	 ecx, DWORD PTR [eax+4]
  000cc	89 4d f8	 mov	 DWORD PTR _raw$[ebp], ecx

; 456  : 
; 457  : 			if (raw->eff.sub_type == type)

  000cf	8b 45 f8	 mov	 eax, DWORD PTR _raw$[ebp]
  000d2	8b 08		 mov	 ecx, DWORD PTR [eax]
  000d4	3b 4d 0c	 cmp	 ecx, DWORD PTR _type$[ebp]
  000d7	75 11		 jne	 SHORT $LN4@get_local_

; 458  : 			{
; 459  : 				return (raw->valid_sound_effect);

  000d9	8b 45 f8	 mov	 eax, DWORD PTR _raw$[ebp]
  000dc	8b 40 40	 mov	 eax, DWORD PTR [eax+64]
  000df	c1 e8 08	 shr	 eax, 8
  000e2	83 e0 01	 and	 eax, 1
  000e5	e9 87 00 00 00	 jmp	 $LN1@get_local_
$LN4@get_local_:

; 460  : 			}
; 461  : 		}
; 462  : 
; 463  : 		spec = get_local_entity_child_succ (spec, LIST_TYPE_SPECIAL_EFFECT);

  000ea	83 7d fc 00	 cmp	 DWORD PTR _spec$[ebp], 0
  000ee	74 0a		 je	 SHORT $LN13@get_local_
  000f0	8b 45 fc	 mov	 eax, DWORD PTR _spec$[ebp]
  000f3	8b 08		 mov	 ecx, DWORD PTR [eax]
  000f5	89 4d b4	 mov	 DWORD PTR tv137[ebp], ecx
  000f8	eb 21		 jmp	 SHORT $LN14@get_local_
$LN13@get_local_:
  000fa	8b 15 00 00 00
	00		 mov	 edx, DWORD PTR ?__LINE__Var@?0??get_local_entity_sound_type_valid@@YGHPAUENTITY@@H@Z@4JA
  00100	83 c2 15	 add	 edx, 21			; 00000015H
  00103	52		 push	 edx
  00104	68 00 00 00 00	 push	 OFFSET ??_C@_0FG@NJPAEEKF@c?3?2users?2nhv90?2projects?2eech?2ap@
  00109	a1 00 00 00 00	 mov	 eax, DWORD PTR ?null_entity_pointer_message@@3PBDB ; null_entity_pointer_message
  0010e	50		 push	 eax
  0010f	e8 00 00 00 00	 call	 ?process_assert@@YGXPBD0H@Z ; process_assert
  00114	c7 45 b4 00 00
	00 00		 mov	 DWORD PTR tv137[ebp], 0
$LN14@get_local_:
  0011b	b9 01 00 00 00	 mov	 ecx, 1
  00120	85 c9		 test	 ecx, ecx
  00122	74 09		 je	 SHORT $LN15@get_local_
  00124	c7 45 b0 24 00
	00 00		 mov	 DWORD PTR tv145[ebp], 36 ; 00000024H
  0012b	eb 21		 jmp	 SHORT $LN16@get_local_
$LN15@get_local_:
  0012d	8b 15 00 00 00
	00		 mov	 edx, DWORD PTR ?__LINE__Var@?0??get_local_entity_sound_type_valid@@YGHPAUENTITY@@H@Z@4JA
  00133	83 c2 15	 add	 edx, 21			; 00000015H
  00136	52		 push	 edx
  00137	68 00 00 00 00	 push	 OFFSET ??_C@_0FG@NJPAEEKF@c?3?2users?2nhv90?2projects?2eech?2ap@
  0013c	a1 00 00 00 00	 mov	 eax, DWORD PTR ?overload_invalid_list_type_message@@3PBDB ; overload_invalid_list_type_message
  00141	50		 push	 eax
  00142	e8 00 00 00 00	 call	 ?process_assert@@YGXPBD0H@Z ; process_assert
  00147	c7 45 b0 00 00
	00 00		 mov	 DWORD PTR tv145[ebp], 0
$LN16@get_local_:
  0014e	6a 24		 push	 36			; 00000024H
  00150	8b 4d fc	 mov	 ecx, DWORD PTR _spec$[ebp]
  00153	51		 push	 ecx
  00154	69 55 b4 b4 00
	00 00		 imul	 edx, DWORD PTR tv137[ebp], 180
  0015b	8b 45 b0	 mov	 eax, DWORD PTR tv145[ebp]
  0015e	8b 8c 82 00 00
	00 00		 mov	 ecx, DWORD PTR ?fn_get_local_entity_child_succ@@3PAY0CN@P6GPAUENTITY@@PAU1@W4LIST_TYPES@@@ZA[edx+eax*4]
  00165	ff d1		 call	 ecx
  00167	89 45 fc	 mov	 DWORD PTR _spec$[ebp], eax

; 464  : 	}

  0016a	e9 1a ff ff ff	 jmp	 $LN2@get_local_
$LN3@get_local_:

; 465  : 
; 466  : 	return FALSE;

  0016f	33 c0		 xor	 eax, eax
$LN1@get_local_:

; 467  : }

  00171	5f		 pop	 edi
  00172	5e		 pop	 esi
  00173	5b		 pop	 ebx
  00174	8b e5		 mov	 esp, ebp
  00176	5d		 pop	 ebp
  00177	c2 08 00	 ret	 8
?get_local_entity_sound_type_valid@@YGHPAUENTITY@@H@Z ENDP ; get_local_entity_sound_type_valid
_TEXT	ENDS
; Function compile flags: /Odtp /ZI
; File c:\users\nhv90\projects\eech\aphavoc\source\entity\special\effect\soundeff\soundeff.c
;	COMDAT ?resume_client_server_continuous_weapon_sound_effect@@YGHPAUENTITY@@H@Z
_TEXT	SEGMENT
_effect_sub_type$ = -4					; size = 4
_en$ = 8						; size = 4
_weapon_sub_type$ = 12					; size = 4
?resume_client_server_continuous_weapon_sound_effect@@YGHPAUENTITY@@H@Z PROC ; resume_client_server_continuous_weapon_sound_effect, COMDAT

; 417  : {

  00000	55		 push	 ebp
  00001	8b ec		 mov	 ebp, esp
  00003	83 ec 44	 sub	 esp, 68			; 00000044H
  00006	53		 push	 ebx
  00007	56		 push	 esi
  00008	57		 push	 edi

; 418  : 	entity_sub_types
; 419  : 		effect_sub_type;
; 420  : 
; 421  : 	ASSERT (en);

  00009	83 7d 08 00	 cmp	 DWORD PTR _en$[ebp], 0
  0000d	75 18		 jne	 SHORT $LN2@resume_cli
  0000f	a1 00 00 00 00	 mov	 eax, DWORD PTR ?__LINE__Var@?0??resume_client_server_continuous_weapon_sound_effect@@YGHPAUENTITY@@H@Z@4JA
  00014	83 c0 04	 add	 eax, 4
  00017	50		 push	 eax
  00018	68 00 00 00 00	 push	 OFFSET ??_C@_0FG@NJPAEEKF@c?3?2users?2nhv90?2projects?2eech?2ap@
  0001d	68 00 00 00 00	 push	 OFFSET ??_C@_02LFNMGJAP@en@
  00022	e8 00 00 00 00	 call	 ?process_assert@@YGXPBD0H@Z ; process_assert
$LN2@resume_cli:

; 422  : 
; 423  : 	ASSERT (get_comms_model () == COMMS_MODEL_SERVER);

  00027	83 3d 00 00 00
	00 00		 cmp	 DWORD PTR ?system_comms_model@@3W4COMMS_MODEL_TYPES@@A, 0 ; system_comms_model
  0002e	74 18		 je	 SHORT $LN3@resume_cli
  00030	a1 00 00 00 00	 mov	 eax, DWORD PTR ?__LINE__Var@?0??resume_client_server_continuous_weapon_sound_effect@@YGHPAUENTITY@@H@Z@4JA
  00035	83 c0 06	 add	 eax, 6
  00038	50		 push	 eax
  00039	68 00 00 00 00	 push	 OFFSET ??_C@_0FG@NJPAEEKF@c?3?2users?2nhv90?2projects?2eech?2ap@
  0003e	68 00 00 00 00	 push	 OFFSET ??_C@_0CJ@DMBLBJBK@get_comms_model?5?$CI?$CJ?5?$DN?$DN?5COMMS_MOD@
  00043	e8 00 00 00 00	 call	 ?process_assert@@YGXPBD0H@Z ; process_assert
$LN3@resume_cli:

; 424  : 
; 425  : 	effect_sub_type = weapon_database [weapon_sub_type].launch_sound_effect_sub_type;

  00048	69 45 0c e0 00
	00 00		 imul	 eax, DWORD PTR _weapon_sub_type$[ebp], 224
  0004f	8b 88 2c 00 00
	00		 mov	 ecx, DWORD PTR ?weapon_database@@3PAUWEAPON_DATA@@A[eax+44]
  00055	89 4d fc	 mov	 DWORD PTR _effect_sub_type$[ebp], ecx

; 426  : 
; 427  : 	if (effect_sub_type == ENTITY_SUB_TYPE_EFFECT_SOUND_MISC)

  00058	83 7d fc 1a	 cmp	 DWORD PTR _effect_sub_type$[ebp], 26 ; 0000001aH
  0005c	75 06		 jne	 SHORT $LN4@resume_cli

; 428  : 	{
; 429  : 		return 0;

  0005e	33 c0		 xor	 eax, eax
  00060	eb 0f		 jmp	 SHORT $LN1@resume_cli

; 430  : 	}
; 431  : 	else

  00062	eb 0d		 jmp	 SHORT $LN1@resume_cli
$LN4@resume_cli:

; 432  : 	{
; 433  : 		return (resume_client_server_entity_sound_type (en, effect_sub_type));

  00064	8b 45 fc	 mov	 eax, DWORD PTR _effect_sub_type$[ebp]
  00067	50		 push	 eax
  00068	8b 4d 08	 mov	 ecx, DWORD PTR _en$[ebp]
  0006b	51		 push	 ecx
  0006c	e8 00 00 00 00	 call	 ?resume_client_server_entity_sound_type@@YGHPAUENTITY@@H@Z ; resume_client_server_entity_sound_type
$LN1@resume_cli:

; 434  : 	}
; 435  : }

  00071	5f		 pop	 edi
  00072	5e		 pop	 esi
  00073	5b		 pop	 ebx
  00074	8b e5		 mov	 esp, ebp
  00076	5d		 pop	 ebp
  00077	c2 08 00	 ret	 8
?resume_client_server_continuous_weapon_sound_effect@@YGHPAUENTITY@@H@Z ENDP ; resume_client_server_continuous_weapon_sound_effect
_TEXT	ENDS
; Function compile flags: /Odtp /ZI
; File c:\users\nhv90\projects\eech\aphavoc\source\entity\special\effect\soundeff\soundeff.c
;	COMDAT ?pause_client_server_continuous_weapon_sound_effect@@YGXPAUENTITY@@H@Z
_TEXT	SEGMENT
_en$ = 8						; size = 4
_weapon_sub_type$ = 12					; size = 4
?pause_client_server_continuous_weapon_sound_effect@@YGXPAUENTITY@@H@Z PROC ; pause_client_server_continuous_weapon_sound_effect, COMDAT

; 399  : {

  00000	55		 push	 ebp
  00001	8b ec		 mov	 ebp, esp
  00003	83 ec 40	 sub	 esp, 64			; 00000040H
  00006	53		 push	 ebx
  00007	56		 push	 esi
  00008	57		 push	 edi

; 400  : 	ASSERT (en);

  00009	83 7d 08 00	 cmp	 DWORD PTR _en$[ebp], 0
  0000d	75 18		 jne	 SHORT $LN2@pause_clie
  0000f	a1 00 00 00 00	 mov	 eax, DWORD PTR ?__LINE__Var@?0??pause_client_server_continuous_weapon_sound_effect@@YGXPAUENTITY@@H@Z@4JA
  00014	83 c0 01	 add	 eax, 1
  00017	50		 push	 eax
  00018	68 00 00 00 00	 push	 OFFSET ??_C@_0FG@NJPAEEKF@c?3?2users?2nhv90?2projects?2eech?2ap@
  0001d	68 00 00 00 00	 push	 OFFSET ??_C@_02LFNMGJAP@en@
  00022	e8 00 00 00 00	 call	 ?process_assert@@YGXPBD0H@Z ; process_assert
$LN2@pause_clie:

; 401  : 
; 402  : 	ASSERT ((get_comms_model () == COMMS_MODEL_SERVER) || (en == get_gunship_entity ()));

  00027	83 3d 00 00 00
	00 00		 cmp	 DWORD PTR ?system_comms_model@@3W4COMMS_MODEL_TYPES@@A, 0 ; system_comms_model
  0002e	74 23		 je	 SHORT $LN3@pause_clie
  00030	8b 45 08	 mov	 eax, DWORD PTR _en$[ebp]
  00033	3b 05 00 00 00
	00		 cmp	 eax, DWORD PTR ?gunship_entity@@3PAUENTITY@@A ; gunship_entity
  00039	74 18		 je	 SHORT $LN3@pause_clie
  0003b	a1 00 00 00 00	 mov	 eax, DWORD PTR ?__LINE__Var@?0??pause_client_server_continuous_weapon_sound_effect@@YGXPAUENTITY@@H@Z@4JA
  00040	83 c0 03	 add	 eax, 3
  00043	50		 push	 eax
  00044	68 00 00 00 00	 push	 OFFSET ??_C@_0FG@NJPAEEKF@c?3?2users?2nhv90?2projects?2eech?2ap@
  00049	68 00 00 00 00	 push	 OFFSET ??_C@_0EM@ENNAMAMD@?$CIget_comms_model?5?$CI?$CJ?5?$DN?$DN?5COMMS_MO@
  0004e	e8 00 00 00 00	 call	 ?process_assert@@YGXPBD0H@Z ; process_assert
$LN3@pause_clie:

; 403  : 
; 404  : 	if (weapon_sub_type != ENTITY_SUB_TYPE_WEAPON_NO_WEAPON)

  00053	83 7d 0c 00	 cmp	 DWORD PTR _weapon_sub_type$[ebp], 0
  00057	74 1f		 je	 SHORT $LN1@pause_clie

; 405  : 	{
; 406  : 		pause_local_continuous_weapon_sound_effect (en, weapon_sub_type);

  00059	8b 45 0c	 mov	 eax, DWORD PTR _weapon_sub_type$[ebp]
  0005c	50		 push	 eax
  0005d	8b 4d 08	 mov	 ecx, DWORD PTR _en$[ebp]
  00060	51		 push	 ecx
  00061	e8 00 00 00 00	 call	 ?pause_local_continuous_weapon_sound_effect@@YGXPAUENTITY@@H@Z ; pause_local_continuous_weapon_sound_effect

; 407  : 
; 408  : 		transmit_entity_comms_message (ENTITY_COMMS_PAUSE_WEAPON_SOUND_TYPE, en, weapon_sub_type);

  00066	8b 45 0c	 mov	 eax, DWORD PTR _weapon_sub_type$[ebp]
  00069	50		 push	 eax
  0006a	8b 4d 08	 mov	 ecx, DWORD PTR _en$[ebp]
  0006d	51		 push	 ecx
  0006e	6a 1e		 push	 30			; 0000001eH
  00070	e8 00 00 00 00	 call	 ?transmit_entity_comms_message@@YAXW4ENTITY_COMMS_MESSAGES@@PAUENTITY@@ZZ ; transmit_entity_comms_message
  00075	83 c4 0c	 add	 esp, 12			; 0000000cH
$LN1@pause_clie:

; 409  : 	}
; 410  : }

  00078	5f		 pop	 edi
  00079	5e		 pop	 esi
  0007a	5b		 pop	 ebx
  0007b	8b e5		 mov	 esp, ebp
  0007d	5d		 pop	 ebp
  0007e	c2 08 00	 ret	 8
?pause_client_server_continuous_weapon_sound_effect@@YGXPAUENTITY@@H@Z ENDP ; pause_client_server_continuous_weapon_sound_effect
_TEXT	ENDS
; Function compile flags: /Odtp /ZI
; File c:\users\nhv90\projects\eech\aphavoc\source\entity\special\effect\soundeff\soundeff.c
;	COMDAT ?pause_local_continuous_weapon_sound_effect@@YGXPAUENTITY@@H@Z
_TEXT	SEGMENT
tv84 = -76						; size = 4
tv76 = -72						; size = 4
_effect_sub_type$ = -4					; size = 4
_en$ = 8						; size = 4
_weapon_sub_type$ = 12					; size = 4
?pause_local_continuous_weapon_sound_effect@@YGXPAUENTITY@@H@Z PROC ; pause_local_continuous_weapon_sound_effect, COMDAT

; 371  : {

  00000	55		 push	 ebp
  00001	8b ec		 mov	 ebp, esp
  00003	83 ec 4c	 sub	 esp, 76			; 0000004cH
  00006	53		 push	 ebx
  00007	56		 push	 esi
  00008	57		 push	 edi

; 372  : 	entity_sub_types
; 373  : 		effect_sub_type;
; 374  : 
; 375  : 	ASSERT (en);

  00009	83 7d 08 00	 cmp	 DWORD PTR _en$[ebp], 0
  0000d	75 18		 jne	 SHORT $LN2@pause_loca
  0000f	a1 00 00 00 00	 mov	 eax, DWORD PTR ?__LINE__Var@?0??pause_local_continuous_weapon_sound_effect@@YGXPAUENTITY@@H@Z@4JA
  00014	83 c0 04	 add	 eax, 4
  00017	50		 push	 eax
  00018	68 00 00 00 00	 push	 OFFSET ??_C@_0FG@NJPAEEKF@c?3?2users?2nhv90?2projects?2eech?2ap@
  0001d	68 00 00 00 00	 push	 OFFSET ??_C@_02LFNMGJAP@en@
  00022	e8 00 00 00 00	 call	 ?process_assert@@YGXPBD0H@Z ; process_assert
$LN2@pause_loca:

; 376  : 
; 377  : 	//
; 378  : 	// reset burst timer so that it can fire next time round
; 379  : 	//
; 380  : 	
; 381  : 	if (get_comms_model () == COMMS_MODEL_SERVER)

  00027	83 3d 00 00 00
	00 00		 cmp	 DWORD PTR ?system_comms_model@@3W4COMMS_MODEL_TYPES@@A, 0 ; system_comms_model
  0002e	0f 85 89 00 00
	00		 jne	 $LN3@pause_loca

; 382  : 	{
; 383  : 		set_local_entity_float_value (en, FLOAT_TYPE_WEAPON_BURST_TIMER, 0.0);

  00034	83 7d 08 00	 cmp	 DWORD PTR _en$[ebp], 0
  00038	74 0a		 je	 SHORT $LN6@pause_loca
  0003a	8b 45 08	 mov	 eax, DWORD PTR _en$[ebp]
  0003d	8b 08		 mov	 ecx, DWORD PTR [eax]
  0003f	89 4d b8	 mov	 DWORD PTR tv76[ebp], ecx
  00042	eb 21		 jmp	 SHORT $LN7@pause_loca
$LN6@pause_loca:
  00044	8b 15 00 00 00
	00		 mov	 edx, DWORD PTR ?__LINE__Var@?0??pause_local_continuous_weapon_sound_effect@@YGXPAUENTITY@@H@Z@4JA
  0004a	83 c2 0c	 add	 edx, 12			; 0000000cH
  0004d	52		 push	 edx
  0004e	68 00 00 00 00	 push	 OFFSET ??_C@_0FG@NJPAEEKF@c?3?2users?2nhv90?2projects?2eech?2ap@
  00053	a1 00 00 00 00	 mov	 eax, DWORD PTR ?null_entity_pointer_message@@3PBDB ; null_entity_pointer_message
  00058	50		 push	 eax
  00059	e8 00 00 00 00	 call	 ?process_assert@@YGXPBD0H@Z ; process_assert
  0005e	c7 45 b8 00 00
	00 00		 mov	 DWORD PTR tv76[ebp], 0
$LN7@pause_loca:
  00065	b9 01 00 00 00	 mov	 ecx, 1
  0006a	85 c9		 test	 ecx, ecx
  0006c	74 09		 je	 SHORT $LN8@pause_loca
  0006e	c7 45 b4 96 00
	00 00		 mov	 DWORD PTR tv84[ebp], 150 ; 00000096H
  00075	eb 21		 jmp	 SHORT $LN9@pause_loca
$LN8@pause_loca:
  00077	8b 15 00 00 00
	00		 mov	 edx, DWORD PTR ?__LINE__Var@?0??pause_local_continuous_weapon_sound_effect@@YGXPAUENTITY@@H@Z@4JA
  0007d	83 c2 0c	 add	 edx, 12			; 0000000cH
  00080	52		 push	 edx
  00081	68 00 00 00 00	 push	 OFFSET ??_C@_0FG@NJPAEEKF@c?3?2users?2nhv90?2projects?2eech?2ap@
  00086	a1 00 00 00 00	 mov	 eax, DWORD PTR ?overload_invalid_float_type_message@@3PBDB ; overload_invalid_float_type_message
  0008b	50		 push	 eax
  0008c	e8 00 00 00 00	 call	 ?process_assert@@YGXPBD0H@Z ; process_assert
  00091	c7 45 b4 00 00
	00 00		 mov	 DWORD PTR tv84[ebp], 0
$LN9@pause_loca:
  00098	51		 push	 ecx
  00099	0f 57 c0	 xorps	 xmm0, xmm0
  0009c	f3 0f 11 04 24	 movss	 DWORD PTR [esp], xmm0
  000a1	68 96 00 00 00	 push	 150			; 00000096H
  000a6	8b 4d 08	 mov	 ecx, DWORD PTR _en$[ebp]
  000a9	51		 push	 ecx
  000aa	69 55 b8 bc 02
	00 00		 imul	 edx, DWORD PTR tv76[ebp], 700
  000b1	8b 45 b4	 mov	 eax, DWORD PTR tv84[ebp]
  000b4	8b 8c 82 00 00
	00 00		 mov	 ecx, DWORD PTR ?fn_set_local_entity_float_value@@3PAY0KP@P6GXPAUENTITY@@W4FLOAT_TYPES@@M@ZA[edx+eax*4]
  000bb	ff d1		 call	 ecx
$LN3@pause_loca:

; 384  : 	}
; 385  : 
; 386  : 	effect_sub_type = weapon_database [weapon_sub_type].launch_sound_effect_sub_type;

  000bd	69 45 0c e0 00
	00 00		 imul	 eax, DWORD PTR _weapon_sub_type$[ebp], 224
  000c4	8b 88 2c 00 00
	00		 mov	 ecx, DWORD PTR ?weapon_database@@3PAUWEAPON_DATA@@A[eax+44]
  000ca	89 4d fc	 mov	 DWORD PTR _effect_sub_type$[ebp], ecx

; 387  : 
; 388  : 	if (effect_sub_type != ENTITY_SUB_TYPE_EFFECT_SOUND_MISC)

  000cd	83 7d fc 1a	 cmp	 DWORD PTR _effect_sub_type$[ebp], 26 ; 0000001aH
  000d1	74 1b		 je	 SHORT $LN4@pause_loca

; 389  : 	{
; 390  : 		pause_local_entity_sound_type (en, effect_sub_type, 0.5);

  000d3	51		 push	 ecx
  000d4	f3 0f 10 05 00
	00 00 00	 movss	 xmm0, DWORD PTR __real@3f000000
  000dc	f3 0f 11 04 24	 movss	 DWORD PTR [esp], xmm0
  000e1	8b 45 fc	 mov	 eax, DWORD PTR _effect_sub_type$[ebp]
  000e4	50		 push	 eax
  000e5	8b 4d 08	 mov	 ecx, DWORD PTR _en$[ebp]
  000e8	51		 push	 ecx
  000e9	e8 00 00 00 00	 call	 ?pause_local_entity_sound_type@@YGHPAUENTITY@@HM@Z ; pause_local_entity_sound_type
$LN4@pause_loca:

; 391  : 	}
; 392  : }

  000ee	5f		 pop	 edi
  000ef	5e		 pop	 esi
  000f0	5b		 pop	 ebx
  000f1	8b e5		 mov	 esp, ebp
  000f3	5d		 pop	 ebp
  000f4	c2 08 00	 ret	 8
?pause_local_continuous_weapon_sound_effect@@YGXPAUENTITY@@H@Z ENDP ; pause_local_continuous_weapon_sound_effect
_TEXT	ENDS
; Function compile flags: /Odtp /ZI
; File c:\users\nhv90\projects\eech\aphavoc\source\entity\special\effect\soundeff\soundeff.c
;	COMDAT ?destroy_client_server_sound_effects@@YGXPAUENTITY@@@Z
_TEXT	SEGMENT
tv131 = -80						; size = 4
tv78 = -80						; size = 4
tv150 = -76						; size = 4
tv142 = -76						; size = 4
tv91 = -76						; size = 4
tv70 = -76						; size = 4
_next$ = -8						; size = 4
_spec$ = -4						; size = 4
_en$ = 8						; size = 4
?destroy_client_server_sound_effects@@YGXPAUENTITY@@@Z PROC ; destroy_client_server_sound_effects, COMDAT

; 346  : {

  00000	55		 push	 ebp
  00001	8b ec		 mov	 ebp, esp
  00003	83 ec 50	 sub	 esp, 80			; 00000050H
  00006	53		 push	 ebx
  00007	56		 push	 esi
  00008	57		 push	 edi

; 347  : 	entity
; 348  : 		*spec,
; 349  : 		*next;
; 350  : 
; 351  : 	spec = get_local_entity_first_child (en, LIST_TYPE_SPECIAL_EFFECT);

  00009	83 7d 08 00	 cmp	 DWORD PTR _en$[ebp], 0
  0000d	74 0a		 je	 SHORT $LN6@destroy_cl
  0000f	8b 45 08	 mov	 eax, DWORD PTR _en$[ebp]
  00012	8b 08		 mov	 ecx, DWORD PTR [eax]
  00014	89 4d b4	 mov	 DWORD PTR tv70[ebp], ecx
  00017	eb 21		 jmp	 SHORT $LN7@destroy_cl
$LN6@destroy_cl:
  00019	8b 15 00 00 00
	00		 mov	 edx, DWORD PTR ?__LINE__Var@?0??destroy_client_server_sound_effects@@YGXPAUENTITY@@@Z@4JA
  0001f	83 c2 05	 add	 edx, 5
  00022	52		 push	 edx
  00023	68 00 00 00 00	 push	 OFFSET ??_C@_0FG@NJPAEEKF@c?3?2users?2nhv90?2projects?2eech?2ap@
  00028	a1 00 00 00 00	 mov	 eax, DWORD PTR ?null_entity_pointer_message@@3PBDB ; null_entity_pointer_message
  0002d	50		 push	 eax
  0002e	e8 00 00 00 00	 call	 ?process_assert@@YGXPBD0H@Z ; process_assert
  00033	c7 45 b4 00 00
	00 00		 mov	 DWORD PTR tv70[ebp], 0
$LN7@destroy_cl:
  0003a	b9 01 00 00 00	 mov	 ecx, 1
  0003f	85 c9		 test	 ecx, ecx
  00041	74 09		 je	 SHORT $LN8@destroy_cl
  00043	c7 45 b0 24 00
	00 00		 mov	 DWORD PTR tv78[ebp], 36	; 00000024H
  0004a	eb 21		 jmp	 SHORT $LN9@destroy_cl
$LN8@destroy_cl:
  0004c	8b 15 00 00 00
	00		 mov	 edx, DWORD PTR ?__LINE__Var@?0??destroy_client_server_sound_effects@@YGXPAUENTITY@@@Z@4JA
  00052	83 c2 05	 add	 edx, 5
  00055	52		 push	 edx
  00056	68 00 00 00 00	 push	 OFFSET ??_C@_0FG@NJPAEEKF@c?3?2users?2nhv90?2projects?2eech?2ap@
  0005b	a1 00 00 00 00	 mov	 eax, DWORD PTR ?overload_invalid_list_type_message@@3PBDB ; overload_invalid_list_type_message
  00060	50		 push	 eax
  00061	e8 00 00 00 00	 call	 ?process_assert@@YGXPBD0H@Z ; process_assert
  00066	c7 45 b0 00 00
	00 00		 mov	 DWORD PTR tv78[ebp], 0
$LN9@destroy_cl:
  0006d	6a 24		 push	 36			; 00000024H
  0006f	8b 4d 08	 mov	 ecx, DWORD PTR _en$[ebp]
  00072	51		 push	 ecx
  00073	69 55 b4 b4 00
	00 00		 imul	 edx, DWORD PTR tv70[ebp], 180
  0007a	8b 45 b0	 mov	 eax, DWORD PTR tv78[ebp]
  0007d	8b 8c 82 00 00
	00 00		 mov	 ecx, DWORD PTR ?fn_get_local_entity_first_child@@3PAY0CN@P6GPAUENTITY@@PAU1@W4LIST_TYPES@@@ZA[edx+eax*4]
  00084	ff d1		 call	 ecx
  00086	89 45 fc	 mov	 DWORD PTR _spec$[ebp], eax
$LN2@destroy_cl:

; 352  : 	
; 353  : 	while (spec)

  00089	83 7d fc 00	 cmp	 DWORD PTR _spec$[ebp], 0
  0008d	0f 84 08 01 00
	00		 je	 $LN1@destroy_cl

; 354  : 	{
; 355  : 		next = get_local_entity_child_succ (spec, LIST_TYPE_SPECIAL_EFFECT);

  00093	83 7d fc 00	 cmp	 DWORD PTR _spec$[ebp], 0
  00097	74 0a		 je	 SHORT $LN10@destroy_cl
  00099	8b 45 fc	 mov	 eax, DWORD PTR _spec$[ebp]
  0009c	8b 08		 mov	 ecx, DWORD PTR [eax]
  0009e	89 4d b4	 mov	 DWORD PTR tv91[ebp], ecx
  000a1	eb 21		 jmp	 SHORT $LN11@destroy_cl
$LN10@destroy_cl:
  000a3	8b 15 00 00 00
	00		 mov	 edx, DWORD PTR ?__LINE__Var@?0??destroy_client_server_sound_effects@@YGXPAUENTITY@@@Z@4JA
  000a9	83 c2 09	 add	 edx, 9
  000ac	52		 push	 edx
  000ad	68 00 00 00 00	 push	 OFFSET ??_C@_0FG@NJPAEEKF@c?3?2users?2nhv90?2projects?2eech?2ap@
  000b2	a1 00 00 00 00	 mov	 eax, DWORD PTR ?null_entity_pointer_message@@3PBDB ; null_entity_pointer_message
  000b7	50		 push	 eax
  000b8	e8 00 00 00 00	 call	 ?process_assert@@YGXPBD0H@Z ; process_assert
  000bd	c7 45 b4 00 00
	00 00		 mov	 DWORD PTR tv91[ebp], 0
$LN11@destroy_cl:
  000c4	b9 01 00 00 00	 mov	 ecx, 1
  000c9	85 c9		 test	 ecx, ecx
  000cb	74 09		 je	 SHORT $LN12@destroy_cl
  000cd	c7 45 b0 24 00
	00 00		 mov	 DWORD PTR tv131[ebp], 36 ; 00000024H
  000d4	eb 21		 jmp	 SHORT $LN13@destroy_cl
$LN12@destroy_cl:
  000d6	8b 15 00 00 00
	00		 mov	 edx, DWORD PTR ?__LINE__Var@?0??destroy_client_server_sound_effects@@YGXPAUENTITY@@@Z@4JA
  000dc	83 c2 09	 add	 edx, 9
  000df	52		 push	 edx
  000e0	68 00 00 00 00	 push	 OFFSET ??_C@_0FG@NJPAEEKF@c?3?2users?2nhv90?2projects?2eech?2ap@
  000e5	a1 00 00 00 00	 mov	 eax, DWORD PTR ?overload_invalid_list_type_message@@3PBDB ; overload_invalid_list_type_message
  000ea	50		 push	 eax
  000eb	e8 00 00 00 00	 call	 ?process_assert@@YGXPBD0H@Z ; process_assert
  000f0	c7 45 b0 00 00
	00 00		 mov	 DWORD PTR tv131[ebp], 0
$LN13@destroy_cl:
  000f7	6a 24		 push	 36			; 00000024H
  000f9	8b 4d fc	 mov	 ecx, DWORD PTR _spec$[ebp]
  000fc	51		 push	 ecx
  000fd	69 55 b4 b4 00
	00 00		 imul	 edx, DWORD PTR tv91[ebp], 180
  00104	8b 45 b0	 mov	 eax, DWORD PTR tv131[ebp]
  00107	8b 8c 82 00 00
	00 00		 mov	 ecx, DWORD PTR ?fn_get_local_entity_child_succ@@3PAY0CN@P6GPAUENTITY@@PAU1@W4LIST_TYPES@@@ZA[edx+eax*4]
  0010e	ff d1		 call	 ecx
  00110	89 45 f8	 mov	 DWORD PTR _next$[ebp], eax

; 356  : 
; 357  : 		if (get_local_entity_type (spec) == ENTITY_TYPE_SOUND_EFFECT)

  00113	83 7d fc 00	 cmp	 DWORD PTR _spec$[ebp], 0
  00117	74 0a		 je	 SHORT $LN14@destroy_cl
  00119	8b 45 fc	 mov	 eax, DWORD PTR _spec$[ebp]
  0011c	8b 08		 mov	 ecx, DWORD PTR [eax]
  0011e	89 4d b4	 mov	 DWORD PTR tv142[ebp], ecx
  00121	eb 1d		 jmp	 SHORT $LN15@destroy_cl
$LN14@destroy_cl:
  00123	68 65 01 00 00	 push	 357			; 00000165H
  00128	68 00 00 00 00	 push	 OFFSET ??_C@_0FG@NJPAEEKF@c?3?2users?2nhv90?2projects?2eech?2ap@
  0012d	8b 15 00 00 00
	00		 mov	 edx, DWORD PTR ?null_entity_pointer_message@@3PBDB ; null_entity_pointer_message
  00133	52		 push	 edx
  00134	e8 00 00 00 00	 call	 ?process_assert@@YGXPBD0H@Z ; process_assert
  00139	c7 45 b4 00 00
	00 00		 mov	 DWORD PTR tv142[ebp], 0
$LN15@destroy_cl:
  00140	83 7d b4 20	 cmp	 DWORD PTR tv142[ebp], 32 ; 00000020H
  00144	75 4a		 jne	 SHORT $LN4@destroy_cl

; 358  : 		{
; 359  : 			destroy_client_server_entity_family (spec);

  00146	83 7d fc 00	 cmp	 DWORD PTR _spec$[ebp], 0
  0014a	74 0a		 je	 SHORT $LN16@destroy_cl
  0014c	8b 45 fc	 mov	 eax, DWORD PTR _spec$[ebp]
  0014f	8b 08		 mov	 ecx, DWORD PTR [eax]
  00151	89 4d b4	 mov	 DWORD PTR tv150[ebp], ecx
  00154	eb 21		 jmp	 SHORT $LN17@destroy_cl
$LN16@destroy_cl:
  00156	8b 15 00 00 00
	00		 mov	 edx, DWORD PTR ?__LINE__Var@?0??destroy_client_server_sound_effects@@YGXPAUENTITY@@@Z@4JA
  0015c	83 c2 0d	 add	 edx, 13			; 0000000dH
  0015f	52		 push	 edx
  00160	68 00 00 00 00	 push	 OFFSET ??_C@_0FG@NJPAEEKF@c?3?2users?2nhv90?2projects?2eech?2ap@
  00165	a1 00 00 00 00	 mov	 eax, DWORD PTR ?null_entity_pointer_message@@3PBDB ; null_entity_pointer_message
  0016a	50		 push	 eax
  0016b	e8 00 00 00 00	 call	 ?process_assert@@YGXPBD0H@Z ; process_assert
  00170	c7 45 b4 00 00
	00 00		 mov	 DWORD PTR tv150[ebp], 0
$LN17@destroy_cl:
  00177	8b 4d fc	 mov	 ecx, DWORD PTR _spec$[ebp]
  0017a	51		 push	 ecx
  0017b	8b 15 00 00 00
	00		 mov	 edx, DWORD PTR ?system_comms_model@@3W4COMMS_MODEL_TYPES@@A ; system_comms_model
  00181	c1 e2 02	 shl	 edx, 2
  00184	8b 45 b4	 mov	 eax, DWORD PTR tv150[ebp]
  00187	8b 8c c2 00 00
	00 00		 mov	 ecx, DWORD PTR ?fn_destroy_client_server_entity_family@@3PAY01P6GXPAUENTITY@@@ZA[edx+eax*8]
  0018e	ff d1		 call	 ecx
$LN4@destroy_cl:

; 360  : 		}
; 361  : 
; 362  : 		spec = next;

  00190	8b 45 f8	 mov	 eax, DWORD PTR _next$[ebp]
  00193	89 45 fc	 mov	 DWORD PTR _spec$[ebp], eax

; 363  : 	}

  00196	e9 ee fe ff ff	 jmp	 $LN2@destroy_cl
$LN1@destroy_cl:

; 364  : }

  0019b	5f		 pop	 edi
  0019c	5e		 pop	 esi
  0019d	5b		 pop	 ebx
  0019e	8b e5		 mov	 esp, ebp
  001a0	5d		 pop	 ebp
  001a1	c2 04 00	 ret	 4
?destroy_client_server_sound_effects@@YGXPAUENTITY@@@Z ENDP ; destroy_client_server_sound_effects
_TEXT	ENDS
; Function compile flags: /Odtp /ZI
; File c:\users\nhv90\projects\eech\aphavoc\source\entity\special\effect\soundeff\soundeff.c
;	COMDAT ?destroy_local_sound_effects@@YGXPAUENTITY@@@Z
_TEXT	SEGMENT
tv131 = -80						; size = 4
tv78 = -80						; size = 4
tv142 = -76						; size = 4
tv91 = -76						; size = 4
tv70 = -76						; size = 4
_next$ = -8						; size = 4
_spec$ = -4						; size = 4
_en$ = 8						; size = 4
?destroy_local_sound_effects@@YGXPAUENTITY@@@Z PROC	; destroy_local_sound_effects, COMDAT

; 321  : {

  00000	55		 push	 ebp
  00001	8b ec		 mov	 ebp, esp
  00003	83 ec 50	 sub	 esp, 80			; 00000050H
  00006	53		 push	 ebx
  00007	56		 push	 esi
  00008	57		 push	 edi

; 322  : 	entity
; 323  : 		*spec,
; 324  : 		*next;
; 325  : 
; 326  : 	spec = get_local_entity_first_child (en, LIST_TYPE_SPECIAL_EFFECT);

  00009	83 7d 08 00	 cmp	 DWORD PTR _en$[ebp], 0
  0000d	74 0a		 je	 SHORT $LN6@destroy_lo
  0000f	8b 45 08	 mov	 eax, DWORD PTR _en$[ebp]
  00012	8b 08		 mov	 ecx, DWORD PTR [eax]
  00014	89 4d b4	 mov	 DWORD PTR tv70[ebp], ecx
  00017	eb 21		 jmp	 SHORT $LN7@destroy_lo
$LN6@destroy_lo:
  00019	8b 15 00 00 00
	00		 mov	 edx, DWORD PTR ?__LINE__Var@?0??destroy_local_sound_effects@@YGXPAUENTITY@@@Z@4JA
  0001f	83 c2 05	 add	 edx, 5
  00022	52		 push	 edx
  00023	68 00 00 00 00	 push	 OFFSET ??_C@_0FG@NJPAEEKF@c?3?2users?2nhv90?2projects?2eech?2ap@
  00028	a1 00 00 00 00	 mov	 eax, DWORD PTR ?null_entity_pointer_message@@3PBDB ; null_entity_pointer_message
  0002d	50		 push	 eax
  0002e	e8 00 00 00 00	 call	 ?process_assert@@YGXPBD0H@Z ; process_assert
  00033	c7 45 b4 00 00
	00 00		 mov	 DWORD PTR tv70[ebp], 0
$LN7@destroy_lo:
  0003a	b9 01 00 00 00	 mov	 ecx, 1
  0003f	85 c9		 test	 ecx, ecx
  00041	74 09		 je	 SHORT $LN8@destroy_lo
  00043	c7 45 b0 24 00
	00 00		 mov	 DWORD PTR tv78[ebp], 36	; 00000024H
  0004a	eb 21		 jmp	 SHORT $LN9@destroy_lo
$LN8@destroy_lo:
  0004c	8b 15 00 00 00
	00		 mov	 edx, DWORD PTR ?__LINE__Var@?0??destroy_local_sound_effects@@YGXPAUENTITY@@@Z@4JA
  00052	83 c2 05	 add	 edx, 5
  00055	52		 push	 edx
  00056	68 00 00 00 00	 push	 OFFSET ??_C@_0FG@NJPAEEKF@c?3?2users?2nhv90?2projects?2eech?2ap@
  0005b	a1 00 00 00 00	 mov	 eax, DWORD PTR ?overload_invalid_list_type_message@@3PBDB ; overload_invalid_list_type_message
  00060	50		 push	 eax
  00061	e8 00 00 00 00	 call	 ?process_assert@@YGXPBD0H@Z ; process_assert
  00066	c7 45 b0 00 00
	00 00		 mov	 DWORD PTR tv78[ebp], 0
$LN9@destroy_lo:
  0006d	6a 24		 push	 36			; 00000024H
  0006f	8b 4d 08	 mov	 ecx, DWORD PTR _en$[ebp]
  00072	51		 push	 ecx
  00073	69 55 b4 b4 00
	00 00		 imul	 edx, DWORD PTR tv70[ebp], 180
  0007a	8b 45 b0	 mov	 eax, DWORD PTR tv78[ebp]
  0007d	8b 8c 82 00 00
	00 00		 mov	 ecx, DWORD PTR ?fn_get_local_entity_first_child@@3PAY0CN@P6GPAUENTITY@@PAU1@W4LIST_TYPES@@@ZA[edx+eax*4]
  00084	ff d1		 call	 ecx
  00086	89 45 fc	 mov	 DWORD PTR _spec$[ebp], eax
$LN2@destroy_lo:

; 327  : 	
; 328  : 	while (spec)

  00089	83 7d fc 00	 cmp	 DWORD PTR _spec$[ebp], 0
  0008d	0f 84 c7 00 00
	00		 je	 $LN1@destroy_lo

; 329  : 	{
; 330  : 		next = get_local_entity_child_succ (spec, LIST_TYPE_SPECIAL_EFFECT);

  00093	83 7d fc 00	 cmp	 DWORD PTR _spec$[ebp], 0
  00097	74 0a		 je	 SHORT $LN10@destroy_lo
  00099	8b 45 fc	 mov	 eax, DWORD PTR _spec$[ebp]
  0009c	8b 08		 mov	 ecx, DWORD PTR [eax]
  0009e	89 4d b4	 mov	 DWORD PTR tv91[ebp], ecx
  000a1	eb 21		 jmp	 SHORT $LN11@destroy_lo
$LN10@destroy_lo:
  000a3	8b 15 00 00 00
	00		 mov	 edx, DWORD PTR ?__LINE__Var@?0??destroy_local_sound_effects@@YGXPAUENTITY@@@Z@4JA
  000a9	83 c2 09	 add	 edx, 9
  000ac	52		 push	 edx
  000ad	68 00 00 00 00	 push	 OFFSET ??_C@_0FG@NJPAEEKF@c?3?2users?2nhv90?2projects?2eech?2ap@
  000b2	a1 00 00 00 00	 mov	 eax, DWORD PTR ?null_entity_pointer_message@@3PBDB ; null_entity_pointer_message
  000b7	50		 push	 eax
  000b8	e8 00 00 00 00	 call	 ?process_assert@@YGXPBD0H@Z ; process_assert
  000bd	c7 45 b4 00 00
	00 00		 mov	 DWORD PTR tv91[ebp], 0
$LN11@destroy_lo:
  000c4	b9 01 00 00 00	 mov	 ecx, 1
  000c9	85 c9		 test	 ecx, ecx
  000cb	74 09		 je	 SHORT $LN12@destroy_lo
  000cd	c7 45 b0 24 00
	00 00		 mov	 DWORD PTR tv131[ebp], 36 ; 00000024H
  000d4	eb 21		 jmp	 SHORT $LN13@destroy_lo
$LN12@destroy_lo:
  000d6	8b 15 00 00 00
	00		 mov	 edx, DWORD PTR ?__LINE__Var@?0??destroy_local_sound_effects@@YGXPAUENTITY@@@Z@4JA
  000dc	83 c2 09	 add	 edx, 9
  000df	52		 push	 edx
  000e0	68 00 00 00 00	 push	 OFFSET ??_C@_0FG@NJPAEEKF@c?3?2users?2nhv90?2projects?2eech?2ap@
  000e5	a1 00 00 00 00	 mov	 eax, DWORD PTR ?overload_invalid_list_type_message@@3PBDB ; overload_invalid_list_type_message
  000ea	50		 push	 eax
  000eb	e8 00 00 00 00	 call	 ?process_assert@@YGXPBD0H@Z ; process_assert
  000f0	c7 45 b0 00 00
	00 00		 mov	 DWORD PTR tv131[ebp], 0
$LN13@destroy_lo:
  000f7	6a 24		 push	 36			; 00000024H
  000f9	8b 4d fc	 mov	 ecx, DWORD PTR _spec$[ebp]
  000fc	51		 push	 ecx
  000fd	69 55 b4 b4 00
	00 00		 imul	 edx, DWORD PTR tv91[ebp], 180
  00104	8b 45 b0	 mov	 eax, DWORD PTR tv131[ebp]
  00107	8b 8c 82 00 00
	00 00		 mov	 ecx, DWORD PTR ?fn_get_local_entity_child_succ@@3PAY0CN@P6GPAUENTITY@@PAU1@W4LIST_TYPES@@@ZA[edx+eax*4]
  0010e	ff d1		 call	 ecx
  00110	89 45 f8	 mov	 DWORD PTR _next$[ebp], eax

; 331  : 
; 332  : 		if (get_local_entity_type (spec) == ENTITY_TYPE_SOUND_EFFECT)

  00113	83 7d fc 00	 cmp	 DWORD PTR _spec$[ebp], 0
  00117	74 0a		 je	 SHORT $LN14@destroy_lo
  00119	8b 45 fc	 mov	 eax, DWORD PTR _spec$[ebp]
  0011c	8b 08		 mov	 ecx, DWORD PTR [eax]
  0011e	89 4d b4	 mov	 DWORD PTR tv142[ebp], ecx
  00121	eb 1d		 jmp	 SHORT $LN15@destroy_lo
$LN14@destroy_lo:
  00123	68 4c 01 00 00	 push	 332			; 0000014cH
  00128	68 00 00 00 00	 push	 OFFSET ??_C@_0FG@NJPAEEKF@c?3?2users?2nhv90?2projects?2eech?2ap@
  0012d	8b 15 00 00 00
	00		 mov	 edx, DWORD PTR ?null_entity_pointer_message@@3PBDB ; null_entity_pointer_message
  00133	52		 push	 edx
  00134	e8 00 00 00 00	 call	 ?process_assert@@YGXPBD0H@Z ; process_assert
  00139	c7 45 b4 00 00
	00 00		 mov	 DWORD PTR tv142[ebp], 0
$LN15@destroy_lo:
  00140	83 7d b4 20	 cmp	 DWORD PTR tv142[ebp], 32 ; 00000020H
  00144	75 09		 jne	 SHORT $LN4@destroy_lo

; 333  : 		{
; 334  : 			destroy_local_entity (spec);

  00146	8b 45 fc	 mov	 eax, DWORD PTR _spec$[ebp]
  00149	50		 push	 eax
  0014a	e8 00 00 00 00	 call	 ?destroy_local_entity@@YGXPAUENTITY@@@Z ; destroy_local_entity
$LN4@destroy_lo:

; 335  : 		}
; 336  : 
; 337  : 		spec = next;

  0014f	8b 45 f8	 mov	 eax, DWORD PTR _next$[ebp]
  00152	89 45 fc	 mov	 DWORD PTR _spec$[ebp], eax

; 338  : 	}

  00155	e9 2f ff ff ff	 jmp	 $LN2@destroy_lo
$LN1@destroy_lo:

; 339  : }

  0015a	5f		 pop	 edi
  0015b	5e		 pop	 esi
  0015c	5b		 pop	 ebx
  0015d	8b e5		 mov	 esp, ebp
  0015f	5d		 pop	 ebp
  00160	c2 04 00	 ret	 4
?destroy_local_sound_effects@@YGXPAUENTITY@@@Z ENDP	; destroy_local_sound_effects
_TEXT	ENDS
; Function compile flags: /Odtp /ZI
; File c:\users\nhv90\projects\eech\aphavoc\source\entity\special\effect\soundeff\soundeff.c
;	COMDAT ?kill_client_server_entity_sound_type@@YGXPAUENTITY@@H@Z
_TEXT	SEGMENT
tv131 = -84						; size = 4
tv78 = -84						; size = 4
tv154 = -80						; size = 4
tv142 = -80						; size = 4
tv91 = -80						; size = 4
tv70 = -80						; size = 4
_raw$ = -12						; size = 4
_next$ = -8						; size = 4
_spec$ = -4						; size = 4
_en$ = 8						; size = 4
_type$ = 12						; size = 4
?kill_client_server_entity_sound_type@@YGXPAUENTITY@@H@Z PROC ; kill_client_server_entity_sound_type, COMDAT

; 284  : {

  00000	55		 push	 ebp
  00001	8b ec		 mov	 ebp, esp
  00003	83 ec 54	 sub	 esp, 84			; 00000054H
  00006	53		 push	 ebx
  00007	56		 push	 esi
  00008	57		 push	 edi

; 285  : 	entity
; 286  : 		*spec,
; 287  : 		*next;
; 288  : 
; 289  : 	sound_effect
; 290  : 		*raw;
; 291  : 
; 292  : 	spec = get_local_entity_first_child (en, LIST_TYPE_SPECIAL_EFFECT);

  00009	83 7d 08 00	 cmp	 DWORD PTR _en$[ebp], 0
  0000d	74 0a		 je	 SHORT $LN7@kill_clien
  0000f	8b 45 08	 mov	 eax, DWORD PTR _en$[ebp]
  00012	8b 08		 mov	 ecx, DWORD PTR [eax]
  00014	89 4d b0	 mov	 DWORD PTR tv70[ebp], ecx
  00017	eb 21		 jmp	 SHORT $LN8@kill_clien
$LN7@kill_clien:
  00019	8b 15 00 00 00
	00		 mov	 edx, DWORD PTR ?__LINE__Var@?0??kill_client_server_entity_sound_type@@YGXPAUENTITY@@H@Z@4JA
  0001f	83 c2 08	 add	 edx, 8
  00022	52		 push	 edx
  00023	68 00 00 00 00	 push	 OFFSET ??_C@_0FG@NJPAEEKF@c?3?2users?2nhv90?2projects?2eech?2ap@
  00028	a1 00 00 00 00	 mov	 eax, DWORD PTR ?null_entity_pointer_message@@3PBDB ; null_entity_pointer_message
  0002d	50		 push	 eax
  0002e	e8 00 00 00 00	 call	 ?process_assert@@YGXPBD0H@Z ; process_assert
  00033	c7 45 b0 00 00
	00 00		 mov	 DWORD PTR tv70[ebp], 0
$LN8@kill_clien:
  0003a	b9 01 00 00 00	 mov	 ecx, 1
  0003f	85 c9		 test	 ecx, ecx
  00041	74 09		 je	 SHORT $LN9@kill_clien
  00043	c7 45 ac 24 00
	00 00		 mov	 DWORD PTR tv78[ebp], 36	; 00000024H
  0004a	eb 21		 jmp	 SHORT $LN10@kill_clien
$LN9@kill_clien:
  0004c	8b 15 00 00 00
	00		 mov	 edx, DWORD PTR ?__LINE__Var@?0??kill_client_server_entity_sound_type@@YGXPAUENTITY@@H@Z@4JA
  00052	83 c2 08	 add	 edx, 8
  00055	52		 push	 edx
  00056	68 00 00 00 00	 push	 OFFSET ??_C@_0FG@NJPAEEKF@c?3?2users?2nhv90?2projects?2eech?2ap@
  0005b	a1 00 00 00 00	 mov	 eax, DWORD PTR ?overload_invalid_list_type_message@@3PBDB ; overload_invalid_list_type_message
  00060	50		 push	 eax
  00061	e8 00 00 00 00	 call	 ?process_assert@@YGXPBD0H@Z ; process_assert
  00066	c7 45 ac 00 00
	00 00		 mov	 DWORD PTR tv78[ebp], 0
$LN10@kill_clien:
  0006d	6a 24		 push	 36			; 00000024H
  0006f	8b 4d 08	 mov	 ecx, DWORD PTR _en$[ebp]
  00072	51		 push	 ecx
  00073	69 55 b0 b4 00
	00 00		 imul	 edx, DWORD PTR tv70[ebp], 180
  0007a	8b 45 ac	 mov	 eax, DWORD PTR tv78[ebp]
  0007d	8b 8c 82 00 00
	00 00		 mov	 ecx, DWORD PTR ?fn_get_local_entity_first_child@@3PAY0CN@P6GPAUENTITY@@PAU1@W4LIST_TYPES@@@ZA[edx+eax*4]
  00084	ff d1		 call	 ecx
  00086	89 45 fc	 mov	 DWORD PTR _spec$[ebp], eax
$LN2@kill_clien:

; 293  : 	
; 294  : 	while (spec)

  00089	83 7d fc 00	 cmp	 DWORD PTR _spec$[ebp], 0
  0008d	0f 84 1b 01 00
	00		 je	 $LN1@kill_clien

; 295  : 	{
; 296  : 		next = get_local_entity_child_succ (spec, LIST_TYPE_SPECIAL_EFFECT);

  00093	83 7d fc 00	 cmp	 DWORD PTR _spec$[ebp], 0
  00097	74 0a		 je	 SHORT $LN11@kill_clien
  00099	8b 45 fc	 mov	 eax, DWORD PTR _spec$[ebp]
  0009c	8b 08		 mov	 ecx, DWORD PTR [eax]
  0009e	89 4d b0	 mov	 DWORD PTR tv91[ebp], ecx
  000a1	eb 21		 jmp	 SHORT $LN12@kill_clien
$LN11@kill_clien:
  000a3	8b 15 00 00 00
	00		 mov	 edx, DWORD PTR ?__LINE__Var@?0??kill_client_server_entity_sound_type@@YGXPAUENTITY@@H@Z@4JA
  000a9	83 c2 0c	 add	 edx, 12			; 0000000cH
  000ac	52		 push	 edx
  000ad	68 00 00 00 00	 push	 OFFSET ??_C@_0FG@NJPAEEKF@c?3?2users?2nhv90?2projects?2eech?2ap@
  000b2	a1 00 00 00 00	 mov	 eax, DWORD PTR ?null_entity_pointer_message@@3PBDB ; null_entity_pointer_message
  000b7	50		 push	 eax
  000b8	e8 00 00 00 00	 call	 ?process_assert@@YGXPBD0H@Z ; process_assert
  000bd	c7 45 b0 00 00
	00 00		 mov	 DWORD PTR tv91[ebp], 0
$LN12@kill_clien:
  000c4	b9 01 00 00 00	 mov	 ecx, 1
  000c9	85 c9		 test	 ecx, ecx
  000cb	74 09		 je	 SHORT $LN13@kill_clien
  000cd	c7 45 ac 24 00
	00 00		 mov	 DWORD PTR tv131[ebp], 36 ; 00000024H
  000d4	eb 21		 jmp	 SHORT $LN14@kill_clien
$LN13@kill_clien:
  000d6	8b 15 00 00 00
	00		 mov	 edx, DWORD PTR ?__LINE__Var@?0??kill_client_server_entity_sound_type@@YGXPAUENTITY@@H@Z@4JA
  000dc	83 c2 0c	 add	 edx, 12			; 0000000cH
  000df	52		 push	 edx
  000e0	68 00 00 00 00	 push	 OFFSET ??_C@_0FG@NJPAEEKF@c?3?2users?2nhv90?2projects?2eech?2ap@
  000e5	a1 00 00 00 00	 mov	 eax, DWORD PTR ?overload_invalid_list_type_message@@3PBDB ; overload_invalid_list_type_message
  000ea	50		 push	 eax
  000eb	e8 00 00 00 00	 call	 ?process_assert@@YGXPBD0H@Z ; process_assert
  000f0	c7 45 ac 00 00
	00 00		 mov	 DWORD PTR tv131[ebp], 0
$LN14@kill_clien:
  000f7	6a 24		 push	 36			; 00000024H
  000f9	8b 4d fc	 mov	 ecx, DWORD PTR _spec$[ebp]
  000fc	51		 push	 ecx
  000fd	69 55 b0 b4 00
	00 00		 imul	 edx, DWORD PTR tv91[ebp], 180
  00104	8b 45 ac	 mov	 eax, DWORD PTR tv131[ebp]
  00107	8b 8c 82 00 00
	00 00		 mov	 ecx, DWORD PTR ?fn_get_local_entity_child_succ@@3PAY0CN@P6GPAUENTITY@@PAU1@W4LIST_TYPES@@@ZA[edx+eax*4]
  0010e	ff d1		 call	 ecx
  00110	89 45 f8	 mov	 DWORD PTR _next$[ebp], eax

; 297  : 
; 298  : 		if (get_local_entity_type (spec) == ENTITY_TYPE_SOUND_EFFECT)

  00113	83 7d fc 00	 cmp	 DWORD PTR _spec$[ebp], 0
  00117	74 0a		 je	 SHORT $LN15@kill_clien
  00119	8b 45 fc	 mov	 eax, DWORD PTR _spec$[ebp]
  0011c	8b 08		 mov	 ecx, DWORD PTR [eax]
  0011e	89 4d b0	 mov	 DWORD PTR tv142[ebp], ecx
  00121	eb 1d		 jmp	 SHORT $LN16@kill_clien
$LN15@kill_clien:
  00123	68 2a 01 00 00	 push	 298			; 0000012aH
  00128	68 00 00 00 00	 push	 OFFSET ??_C@_0FG@NJPAEEKF@c?3?2users?2nhv90?2projects?2eech?2ap@
  0012d	8b 15 00 00 00
	00		 mov	 edx, DWORD PTR ?null_entity_pointer_message@@3PBDB ; null_entity_pointer_message
  00133	52		 push	 edx
  00134	e8 00 00 00 00	 call	 ?process_assert@@YGXPBD0H@Z ; process_assert
  00139	c7 45 b0 00 00
	00 00		 mov	 DWORD PTR tv142[ebp], 0
$LN16@kill_clien:
  00140	83 7d b0 20	 cmp	 DWORD PTR tv142[ebp], 32 ; 00000020H
  00144	75 5d		 jne	 SHORT $LN4@kill_clien

; 299  : 		{
; 300  : 			raw = (sound_effect *) get_local_entity_data (spec);

  00146	8b 45 fc	 mov	 eax, DWORD PTR _spec$[ebp]
  00149	8b 48 04	 mov	 ecx, DWORD PTR [eax+4]
  0014c	89 4d f4	 mov	 DWORD PTR _raw$[ebp], ecx

; 301  : 
; 302  : 			if (raw->eff.sub_type == type)

  0014f	8b 45 f4	 mov	 eax, DWORD PTR _raw$[ebp]
  00152	8b 08		 mov	 ecx, DWORD PTR [eax]
  00154	3b 4d 0c	 cmp	 ecx, DWORD PTR _type$[ebp]
  00157	75 4a		 jne	 SHORT $LN4@kill_clien

; 303  : 			{
; 304  : 				//
; 305  : 				// "kill" sound
; 306  : 				//
; 307  : 
; 308  : 				kill_client_server_entity (spec);

  00159	83 7d fc 00	 cmp	 DWORD PTR _spec$[ebp], 0
  0015d	74 0a		 je	 SHORT $LN17@kill_clien
  0015f	8b 45 fc	 mov	 eax, DWORD PTR _spec$[ebp]
  00162	8b 08		 mov	 ecx, DWORD PTR [eax]
  00164	89 4d b0	 mov	 DWORD PTR tv154[ebp], ecx
  00167	eb 21		 jmp	 SHORT $LN18@kill_clien
$LN17@kill_clien:
  00169	8b 15 00 00 00
	00		 mov	 edx, DWORD PTR ?__LINE__Var@?0??kill_client_server_entity_sound_type@@YGXPAUENTITY@@H@Z@4JA
  0016f	83 c2 18	 add	 edx, 24			; 00000018H
  00172	52		 push	 edx
  00173	68 00 00 00 00	 push	 OFFSET ??_C@_0FG@NJPAEEKF@c?3?2users?2nhv90?2projects?2eech?2ap@
  00178	a1 00 00 00 00	 mov	 eax, DWORD PTR ?null_entity_pointer_message@@3PBDB ; null_entity_pointer_message
  0017d	50		 push	 eax
  0017e	e8 00 00 00 00	 call	 ?process_assert@@YGXPBD0H@Z ; process_assert
  00183	c7 45 b0 00 00
	00 00		 mov	 DWORD PTR tv154[ebp], 0
$LN18@kill_clien:
  0018a	8b 4d fc	 mov	 ecx, DWORD PTR _spec$[ebp]
  0018d	51		 push	 ecx
  0018e	8b 15 00 00 00
	00		 mov	 edx, DWORD PTR ?system_comms_model@@3W4COMMS_MODEL_TYPES@@A ; system_comms_model
  00194	c1 e2 02	 shl	 edx, 2
  00197	8b 45 b0	 mov	 eax, DWORD PTR tv154[ebp]
  0019a	8b 8c c2 00 00
	00 00		 mov	 ecx, DWORD PTR ?fn_kill_client_server_entity@@3PAY01P6GXPAUENTITY@@@ZA[edx+eax*8]
  001a1	ff d1		 call	 ecx
$LN4@kill_clien:

; 309  : 			}
; 310  : 		}
; 311  : 
; 312  : 		spec = next;

  001a3	8b 45 f8	 mov	 eax, DWORD PTR _next$[ebp]
  001a6	89 45 fc	 mov	 DWORD PTR _spec$[ebp], eax

; 313  : 	}

  001a9	e9 db fe ff ff	 jmp	 $LN2@kill_clien
$LN1@kill_clien:

; 314  : }

  001ae	5f		 pop	 edi
  001af	5e		 pop	 esi
  001b0	5b		 pop	 ebx
  001b1	8b e5		 mov	 esp, ebp
  001b3	5d		 pop	 ebp
  001b4	c2 08 00	 ret	 8
?kill_client_server_entity_sound_type@@YGXPAUENTITY@@H@Z ENDP ; kill_client_server_entity_sound_type
_TEXT	ENDS
; Function compile flags: /Odtp /ZI
; File c:\users\nhv90\projects\eech\aphavoc\source\entity\special\effect\soundeff\soundeff.c
;	COMDAT ?kill_local_entity_sound_type@@YGXPAUENTITY@@H@Z
_TEXT	SEGMENT
tv131 = -84						; size = 4
tv78 = -84						; size = 4
tv154 = -80						; size = 4
tv142 = -80						; size = 4
tv91 = -80						; size = 4
tv70 = -80						; size = 4
_raw$ = -12						; size = 4
_next$ = -8						; size = 4
_spec$ = -4						; size = 4
_en$ = 8						; size = 4
_type$ = 12						; size = 4
?kill_local_entity_sound_type@@YGXPAUENTITY@@H@Z PROC	; kill_local_entity_sound_type, COMDAT

; 247  : {

  00000	55		 push	 ebp
  00001	8b ec		 mov	 ebp, esp
  00003	83 ec 54	 sub	 esp, 84			; 00000054H
  00006	53		 push	 ebx
  00007	56		 push	 esi
  00008	57		 push	 edi

; 248  : 	entity
; 249  : 		*spec,
; 250  : 		*next;
; 251  : 
; 252  : 	sound_effect
; 253  : 		*raw;
; 254  : 
; 255  : 	spec = get_local_entity_first_child (en, LIST_TYPE_SPECIAL_EFFECT);

  00009	83 7d 08 00	 cmp	 DWORD PTR _en$[ebp], 0
  0000d	74 0a		 je	 SHORT $LN7@kill_local
  0000f	8b 45 08	 mov	 eax, DWORD PTR _en$[ebp]
  00012	8b 08		 mov	 ecx, DWORD PTR [eax]
  00014	89 4d b0	 mov	 DWORD PTR tv70[ebp], ecx
  00017	eb 21		 jmp	 SHORT $LN8@kill_local
$LN7@kill_local:
  00019	8b 15 00 00 00
	00		 mov	 edx, DWORD PTR ?__LINE__Var@?0??kill_local_entity_sound_type@@YGXPAUENTITY@@H@Z@4JA
  0001f	83 c2 08	 add	 edx, 8
  00022	52		 push	 edx
  00023	68 00 00 00 00	 push	 OFFSET ??_C@_0FG@NJPAEEKF@c?3?2users?2nhv90?2projects?2eech?2ap@
  00028	a1 00 00 00 00	 mov	 eax, DWORD PTR ?null_entity_pointer_message@@3PBDB ; null_entity_pointer_message
  0002d	50		 push	 eax
  0002e	e8 00 00 00 00	 call	 ?process_assert@@YGXPBD0H@Z ; process_assert
  00033	c7 45 b0 00 00
	00 00		 mov	 DWORD PTR tv70[ebp], 0
$LN8@kill_local:
  0003a	b9 01 00 00 00	 mov	 ecx, 1
  0003f	85 c9		 test	 ecx, ecx
  00041	74 09		 je	 SHORT $LN9@kill_local
  00043	c7 45 ac 24 00
	00 00		 mov	 DWORD PTR tv78[ebp], 36	; 00000024H
  0004a	eb 21		 jmp	 SHORT $LN10@kill_local
$LN9@kill_local:
  0004c	8b 15 00 00 00
	00		 mov	 edx, DWORD PTR ?__LINE__Var@?0??kill_local_entity_sound_type@@YGXPAUENTITY@@H@Z@4JA
  00052	83 c2 08	 add	 edx, 8
  00055	52		 push	 edx
  00056	68 00 00 00 00	 push	 OFFSET ??_C@_0FG@NJPAEEKF@c?3?2users?2nhv90?2projects?2eech?2ap@
  0005b	a1 00 00 00 00	 mov	 eax, DWORD PTR ?overload_invalid_list_type_message@@3PBDB ; overload_invalid_list_type_message
  00060	50		 push	 eax
  00061	e8 00 00 00 00	 call	 ?process_assert@@YGXPBD0H@Z ; process_assert
  00066	c7 45 ac 00 00
	00 00		 mov	 DWORD PTR tv78[ebp], 0
$LN10@kill_local:
  0006d	6a 24		 push	 36			; 00000024H
  0006f	8b 4d 08	 mov	 ecx, DWORD PTR _en$[ebp]
  00072	51		 push	 ecx
  00073	69 55 b0 b4 00
	00 00		 imul	 edx, DWORD PTR tv70[ebp], 180
  0007a	8b 45 ac	 mov	 eax, DWORD PTR tv78[ebp]
  0007d	8b 8c 82 00 00
	00 00		 mov	 ecx, DWORD PTR ?fn_get_local_entity_first_child@@3PAY0CN@P6GPAUENTITY@@PAU1@W4LIST_TYPES@@@ZA[edx+eax*4]
  00084	ff d1		 call	 ecx
  00086	89 45 fc	 mov	 DWORD PTR _spec$[ebp], eax
$LN2@kill_local:

; 256  : 	
; 257  : 	while (spec)

  00089	83 7d fc 00	 cmp	 DWORD PTR _spec$[ebp], 0
  0008d	0f 84 12 01 00
	00		 je	 $LN1@kill_local

; 258  : 	{
; 259  : 		next = get_local_entity_child_succ (spec, LIST_TYPE_SPECIAL_EFFECT);

  00093	83 7d fc 00	 cmp	 DWORD PTR _spec$[ebp], 0
  00097	74 0a		 je	 SHORT $LN11@kill_local
  00099	8b 45 fc	 mov	 eax, DWORD PTR _spec$[ebp]
  0009c	8b 08		 mov	 ecx, DWORD PTR [eax]
  0009e	89 4d b0	 mov	 DWORD PTR tv91[ebp], ecx
  000a1	eb 21		 jmp	 SHORT $LN12@kill_local
$LN11@kill_local:
  000a3	8b 15 00 00 00
	00		 mov	 edx, DWORD PTR ?__LINE__Var@?0??kill_local_entity_sound_type@@YGXPAUENTITY@@H@Z@4JA
  000a9	83 c2 0c	 add	 edx, 12			; 0000000cH
  000ac	52		 push	 edx
  000ad	68 00 00 00 00	 push	 OFFSET ??_C@_0FG@NJPAEEKF@c?3?2users?2nhv90?2projects?2eech?2ap@
  000b2	a1 00 00 00 00	 mov	 eax, DWORD PTR ?null_entity_pointer_message@@3PBDB ; null_entity_pointer_message
  000b7	50		 push	 eax
  000b8	e8 00 00 00 00	 call	 ?process_assert@@YGXPBD0H@Z ; process_assert
  000bd	c7 45 b0 00 00
	00 00		 mov	 DWORD PTR tv91[ebp], 0
$LN12@kill_local:
  000c4	b9 01 00 00 00	 mov	 ecx, 1
  000c9	85 c9		 test	 ecx, ecx
  000cb	74 09		 je	 SHORT $LN13@kill_local
  000cd	c7 45 ac 24 00
	00 00		 mov	 DWORD PTR tv131[ebp], 36 ; 00000024H
  000d4	eb 21		 jmp	 SHORT $LN14@kill_local
$LN13@kill_local:
  000d6	8b 15 00 00 00
	00		 mov	 edx, DWORD PTR ?__LINE__Var@?0??kill_local_entity_sound_type@@YGXPAUENTITY@@H@Z@4JA
  000dc	83 c2 0c	 add	 edx, 12			; 0000000cH
  000df	52		 push	 edx
  000e0	68 00 00 00 00	 push	 OFFSET ??_C@_0FG@NJPAEEKF@c?3?2users?2nhv90?2projects?2eech?2ap@
  000e5	a1 00 00 00 00	 mov	 eax, DWORD PTR ?overload_invalid_list_type_message@@3PBDB ; overload_invalid_list_type_message
  000ea	50		 push	 eax
  000eb	e8 00 00 00 00	 call	 ?process_assert@@YGXPBD0H@Z ; process_assert
  000f0	c7 45 ac 00 00
	00 00		 mov	 DWORD PTR tv131[ebp], 0
$LN14@kill_local:
  000f7	6a 24		 push	 36			; 00000024H
  000f9	8b 4d fc	 mov	 ecx, DWORD PTR _spec$[ebp]
  000fc	51		 push	 ecx
  000fd	69 55 b0 b4 00
	00 00		 imul	 edx, DWORD PTR tv91[ebp], 180
  00104	8b 45 ac	 mov	 eax, DWORD PTR tv131[ebp]
  00107	8b 8c 82 00 00
	00 00		 mov	 ecx, DWORD PTR ?fn_get_local_entity_child_succ@@3PAY0CN@P6GPAUENTITY@@PAU1@W4LIST_TYPES@@@ZA[edx+eax*4]
  0010e	ff d1		 call	 ecx
  00110	89 45 f8	 mov	 DWORD PTR _next$[ebp], eax

; 260  : 
; 261  : 		if (get_local_entity_type (spec) == ENTITY_TYPE_SOUND_EFFECT)

  00113	83 7d fc 00	 cmp	 DWORD PTR _spec$[ebp], 0
  00117	74 0a		 je	 SHORT $LN15@kill_local
  00119	8b 45 fc	 mov	 eax, DWORD PTR _spec$[ebp]
  0011c	8b 08		 mov	 ecx, DWORD PTR [eax]
  0011e	89 4d b0	 mov	 DWORD PTR tv142[ebp], ecx
  00121	eb 1d		 jmp	 SHORT $LN16@kill_local
$LN15@kill_local:
  00123	68 05 01 00 00	 push	 261			; 00000105H
  00128	68 00 00 00 00	 push	 OFFSET ??_C@_0FG@NJPAEEKF@c?3?2users?2nhv90?2projects?2eech?2ap@
  0012d	8b 15 00 00 00
	00		 mov	 edx, DWORD PTR ?null_entity_pointer_message@@3PBDB ; null_entity_pointer_message
  00133	52		 push	 edx
  00134	e8 00 00 00 00	 call	 ?process_assert@@YGXPBD0H@Z ; process_assert
  00139	c7 45 b0 00 00
	00 00		 mov	 DWORD PTR tv142[ebp], 0
$LN16@kill_local:
  00140	83 7d b0 20	 cmp	 DWORD PTR tv142[ebp], 32 ; 00000020H
  00144	75 54		 jne	 SHORT $LN4@kill_local

; 262  : 		{
; 263  : 			raw = (sound_effect *) get_local_entity_data (spec);

  00146	8b 45 fc	 mov	 eax, DWORD PTR _spec$[ebp]
  00149	8b 48 04	 mov	 ecx, DWORD PTR [eax+4]
  0014c	89 4d f4	 mov	 DWORD PTR _raw$[ebp], ecx

; 264  : 
; 265  : 			if (raw->eff.sub_type == type)

  0014f	8b 45 f4	 mov	 eax, DWORD PTR _raw$[ebp]
  00152	8b 08		 mov	 ecx, DWORD PTR [eax]
  00154	3b 4d 0c	 cmp	 ecx, DWORD PTR _type$[ebp]
  00157	75 41		 jne	 SHORT $LN4@kill_local

; 266  : 			{
; 267  : 				//
; 268  : 				// "kill" sound
; 269  : 				//
; 270  : 
; 271  : 				kill_local_entity (spec);

  00159	83 7d fc 00	 cmp	 DWORD PTR _spec$[ebp], 0
  0015d	74 0a		 je	 SHORT $LN17@kill_local
  0015f	8b 45 fc	 mov	 eax, DWORD PTR _spec$[ebp]
  00162	8b 08		 mov	 ecx, DWORD PTR [eax]
  00164	89 4d b0	 mov	 DWORD PTR tv154[ebp], ecx
  00167	eb 21		 jmp	 SHORT $LN18@kill_local
$LN17@kill_local:
  00169	8b 15 00 00 00
	00		 mov	 edx, DWORD PTR ?__LINE__Var@?0??kill_local_entity_sound_type@@YGXPAUENTITY@@H@Z@4JA
  0016f	83 c2 18	 add	 edx, 24			; 00000018H
  00172	52		 push	 edx
  00173	68 00 00 00 00	 push	 OFFSET ??_C@_0FG@NJPAEEKF@c?3?2users?2nhv90?2projects?2eech?2ap@
  00178	a1 00 00 00 00	 mov	 eax, DWORD PTR ?null_entity_pointer_message@@3PBDB ; null_entity_pointer_message
  0017d	50		 push	 eax
  0017e	e8 00 00 00 00	 call	 ?process_assert@@YGXPBD0H@Z ; process_assert
  00183	c7 45 b0 00 00
	00 00		 mov	 DWORD PTR tv154[ebp], 0
$LN18@kill_local:
  0018a	8b 4d fc	 mov	 ecx, DWORD PTR _spec$[ebp]
  0018d	51		 push	 ecx
  0018e	8b 55 b0	 mov	 edx, DWORD PTR tv154[ebp]
  00191	8b 04 95 00 00
	00 00		 mov	 eax, DWORD PTR ?fn_kill_local_entity@@3PAP6GXPAUENTITY@@@ZA[edx*4]
  00198	ff d0		 call	 eax
$LN4@kill_local:

; 272  : 			}
; 273  : 		}
; 274  : 
; 275  : 		spec = next;

  0019a	8b 45 f8	 mov	 eax, DWORD PTR _next$[ebp]
  0019d	89 45 fc	 mov	 DWORD PTR _spec$[ebp], eax

; 276  : 	}

  001a0	e9 e4 fe ff ff	 jmp	 $LN2@kill_local
$LN1@kill_local:

; 277  : }

  001a5	5f		 pop	 edi
  001a6	5e		 pop	 esi
  001a7	5b		 pop	 ebx
  001a8	8b e5		 mov	 esp, ebp
  001aa	5d		 pop	 ebp
  001ab	c2 08 00	 ret	 8
?kill_local_entity_sound_type@@YGXPAUENTITY@@H@Z ENDP	; kill_local_entity_sound_type
_TEXT	ENDS
; Function compile flags: /Odtp /ZI
; File c:\users\nhv90\projects\eech\aphavoc\source\entity\special\effect\soundeff\soundeff.c
;	COMDAT ?resume_client_server_entity_sound_type@@YGHPAUENTITY@@H@Z
_TEXT	SEGMENT
_count$ = -4						; size = 4
_en$ = 8						; size = 4
_type$ = 12						; size = 4
?resume_client_server_entity_sound_type@@YGHPAUENTITY@@H@Z PROC ; resume_client_server_entity_sound_type, COMDAT

; 231  : {

  00000	55		 push	 ebp
  00001	8b ec		 mov	 ebp, esp
  00003	83 ec 44	 sub	 esp, 68			; 00000044H
  00006	53		 push	 ebx
  00007	56		 push	 esi
  00008	57		 push	 edi

; 232  : 	int
; 233  : 		count;
; 234  : 
; 235  : 	count = resume_local_entity_sound_type (en, type);

  00009	8b 45 0c	 mov	 eax, DWORD PTR _type$[ebp]
  0000c	50		 push	 eax
  0000d	8b 4d 08	 mov	 ecx, DWORD PTR _en$[ebp]
  00010	51		 push	 ecx
  00011	e8 00 00 00 00	 call	 ?resume_local_entity_sound_type@@YGHPAUENTITY@@H@Z ; resume_local_entity_sound_type
  00016	89 45 fc	 mov	 DWORD PTR _count$[ebp], eax

; 236  : 
; 237  : 	transmit_entity_comms_message (ENTITY_COMMS_RESUME_SOUND_TYPE, en, type);

  00019	8b 45 0c	 mov	 eax, DWORD PTR _type$[ebp]
  0001c	50		 push	 eax
  0001d	8b 4d 08	 mov	 ecx, DWORD PTR _en$[ebp]
  00020	51		 push	 ecx
  00021	6a 2e		 push	 46			; 0000002eH
  00023	e8 00 00 00 00	 call	 ?transmit_entity_comms_message@@YAXW4ENTITY_COMMS_MESSAGES@@PAUENTITY@@ZZ ; transmit_entity_comms_message
  00028	83 c4 0c	 add	 esp, 12			; 0000000cH

; 238  : 
; 239  : 	return count;

  0002b	8b 45 fc	 mov	 eax, DWORD PTR _count$[ebp]

; 240  : }

  0002e	5f		 pop	 edi
  0002f	5e		 pop	 esi
  00030	5b		 pop	 ebx
  00031	8b e5		 mov	 esp, ebp
  00033	5d		 pop	 ebp
  00034	c2 08 00	 ret	 8
?resume_client_server_entity_sound_type@@YGHPAUENTITY@@H@Z ENDP ; resume_client_server_entity_sound_type
_TEXT	ENDS
; Function compile flags: /Odtp /ZI
; File c:\users\nhv90\projects\eech\aphavoc\source\entity\special\effect\soundeff\soundeff.c
;	COMDAT ?pause_client_server_entity_sound_type@@YGHPAUENTITY@@HM@Z
_TEXT	SEGMENT
_count$ = -4						; size = 4
_en$ = 8						; size = 4
_type$ = 12						; size = 4
_delay$ = 16						; size = 4
?pause_client_server_entity_sound_type@@YGHPAUENTITY@@HM@Z PROC ; pause_client_server_entity_sound_type, COMDAT

; 215  : {

  00000	55		 push	 ebp
  00001	8b ec		 mov	 ebp, esp
  00003	83 ec 44	 sub	 esp, 68			; 00000044H
  00006	53		 push	 ebx
  00007	56		 push	 esi
  00008	57		 push	 edi

; 216  : 	int
; 217  : 		count;
; 218  : 		
; 219  : 	count = pause_local_entity_sound_type (en, type, delay);

  00009	51		 push	 ecx
  0000a	f3 0f 10 45 10	 movss	 xmm0, DWORD PTR _delay$[ebp]
  0000f	f3 0f 11 04 24	 movss	 DWORD PTR [esp], xmm0
  00014	8b 45 0c	 mov	 eax, DWORD PTR _type$[ebp]
  00017	50		 push	 eax
  00018	8b 4d 08	 mov	 ecx, DWORD PTR _en$[ebp]
  0001b	51		 push	 ecx
  0001c	e8 00 00 00 00	 call	 ?pause_local_entity_sound_type@@YGHPAUENTITY@@HM@Z ; pause_local_entity_sound_type
  00021	89 45 fc	 mov	 DWORD PTR _count$[ebp], eax

; 220  : 
; 221  : 	transmit_entity_comms_message (ENTITY_COMMS_PAUSE_SOUND_TYPE, en, type, delay);

  00024	f3 0f 5a 45 10	 cvtss2sd xmm0, DWORD PTR _delay$[ebp]
  00029	83 ec 08	 sub	 esp, 8
  0002c	f2 0f 11 04 24	 movsd	 QWORD PTR [esp], xmm0
  00031	8b 45 0c	 mov	 eax, DWORD PTR _type$[ebp]
  00034	50		 push	 eax
  00035	8b 4d 08	 mov	 ecx, DWORD PTR _en$[ebp]
  00038	51		 push	 ecx
  00039	6a 1d		 push	 29			; 0000001dH
  0003b	e8 00 00 00 00	 call	 ?transmit_entity_comms_message@@YAXW4ENTITY_COMMS_MESSAGES@@PAUENTITY@@ZZ ; transmit_entity_comms_message
  00040	83 c4 14	 add	 esp, 20			; 00000014H

; 222  : 
; 223  : 	return count;

  00043	8b 45 fc	 mov	 eax, DWORD PTR _count$[ebp]

; 224  : }

  00046	5f		 pop	 edi
  00047	5e		 pop	 esi
  00048	5b		 pop	 ebx
  00049	8b e5		 mov	 esp, ebp
  0004b	5d		 pop	 ebp
  0004c	c2 0c 00	 ret	 12			; 0000000cH
?pause_client_server_entity_sound_type@@YGHPAUENTITY@@HM@Z ENDP ; pause_client_server_entity_sound_type
_TEXT	ENDS
; Function compile flags: /Odtp /ZI
; File c:\users\nhv90\projects\eech\aphavoc\source\entity\special\effect\soundeff\soundeff.c
;	COMDAT ?resume_local_entity_sound_type@@YGHPAUENTITY@@H@Z
_TEXT	SEGMENT
tv222 = -96						; size = 4
tv196 = -96						; size = 4
tv162 = -96						; size = 4
tv78 = -96						; size = 4
tv214 = -92						; size = 4
tv189 = -92						; size = 4
tv178 = -92						; size = 4
tv154 = -92						; size = 4
tv142 = -92						; size = 4
tv90 = -92						; size = 4
tv70 = -92						; size = 4
_range$1 = -24						; size = 4
_vp$2 = -20						; size = 4
_position$3 = -16					; size = 4
_count$ = -12						; size = 4
_raw$ = -8						; size = 4
_spec$ = -4						; size = 4
_en$ = 8						; size = 4
_type$ = 12						; size = 4
?resume_local_entity_sound_type@@YGHPAUENTITY@@H@Z PROC	; resume_local_entity_sound_type, COMDAT

; 136  : {

  00000	55		 push	 ebp
  00001	8b ec		 mov	 ebp, esp
  00003	83 ec 60	 sub	 esp, 96			; 00000060H
  00006	53		 push	 ebx
  00007	56		 push	 esi
  00008	57		 push	 edi

; 137  : 	entity
; 138  : 		*spec;
; 139  : 
; 140  : 	sound_effect
; 141  : 		*raw;
; 142  : 
; 143  : 	int
; 144  : 		count;
; 145  : 
; 146  : 	count = 0;

  00009	c7 45 f4 00 00
	00 00		 mov	 DWORD PTR _count$[ebp], 0

; 147  : 
; 148  : 	spec = get_local_entity_first_child (en, LIST_TYPE_SPECIAL_EFFECT);

  00010	83 7d 08 00	 cmp	 DWORD PTR _en$[ebp], 0
  00014	74 0a		 je	 SHORT $LN11@resume_loc
  00016	8b 45 08	 mov	 eax, DWORD PTR _en$[ebp]
  00019	8b 08		 mov	 ecx, DWORD PTR [eax]
  0001b	89 4d a4	 mov	 DWORD PTR tv70[ebp], ecx
  0001e	eb 21		 jmp	 SHORT $LN12@resume_loc
$LN11@resume_loc:
  00020	8b 15 00 00 00
	00		 mov	 edx, DWORD PTR ?__LINE__Var@?0??resume_local_entity_sound_type@@YGHPAUENTITY@@H@Z@4JA
  00026	83 c2 0c	 add	 edx, 12			; 0000000cH
  00029	52		 push	 edx
  0002a	68 00 00 00 00	 push	 OFFSET ??_C@_0FG@NJPAEEKF@c?3?2users?2nhv90?2projects?2eech?2ap@
  0002f	a1 00 00 00 00	 mov	 eax, DWORD PTR ?null_entity_pointer_message@@3PBDB ; null_entity_pointer_message
  00034	50		 push	 eax
  00035	e8 00 00 00 00	 call	 ?process_assert@@YGXPBD0H@Z ; process_assert
  0003a	c7 45 a4 00 00
	00 00		 mov	 DWORD PTR tv70[ebp], 0
$LN12@resume_loc:
  00041	b9 01 00 00 00	 mov	 ecx, 1
  00046	85 c9		 test	 ecx, ecx
  00048	74 09		 je	 SHORT $LN13@resume_loc
  0004a	c7 45 a0 24 00
	00 00		 mov	 DWORD PTR tv78[ebp], 36	; 00000024H
  00051	eb 21		 jmp	 SHORT $LN14@resume_loc
$LN13@resume_loc:
  00053	8b 15 00 00 00
	00		 mov	 edx, DWORD PTR ?__LINE__Var@?0??resume_local_entity_sound_type@@YGHPAUENTITY@@H@Z@4JA
  00059	83 c2 0c	 add	 edx, 12			; 0000000cH
  0005c	52		 push	 edx
  0005d	68 00 00 00 00	 push	 OFFSET ??_C@_0FG@NJPAEEKF@c?3?2users?2nhv90?2projects?2eech?2ap@
  00062	a1 00 00 00 00	 mov	 eax, DWORD PTR ?overload_invalid_list_type_message@@3PBDB ; overload_invalid_list_type_message
  00067	50		 push	 eax
  00068	e8 00 00 00 00	 call	 ?process_assert@@YGXPBD0H@Z ; process_assert
  0006d	c7 45 a0 00 00
	00 00		 mov	 DWORD PTR tv78[ebp], 0
$LN14@resume_loc:
  00074	6a 24		 push	 36			; 00000024H
  00076	8b 4d 08	 mov	 ecx, DWORD PTR _en$[ebp]
  00079	51		 push	 ecx
  0007a	69 55 a4 b4 00
	00 00		 imul	 edx, DWORD PTR tv70[ebp], 180
  00081	8b 45 a0	 mov	 eax, DWORD PTR tv78[ebp]
  00084	8b 8c 82 00 00
	00 00		 mov	 ecx, DWORD PTR ?fn_get_local_entity_first_child@@3PAY0CN@P6GPAUENTITY@@PAU1@W4LIST_TYPES@@@ZA[edx+eax*4]
  0008b	ff d1		 call	 ecx
  0008d	89 45 fc	 mov	 DWORD PTR _spec$[ebp], eax
$LN2@resume_loc:

; 149  : 	
; 150  : 	while (spec)

  00090	83 7d fc 00	 cmp	 DWORD PTR _spec$[ebp], 0
  00094	0f 84 cf 02 00
	00		 je	 $LN3@resume_loc

; 151  : 	{
; 152  : 		if (get_local_entity_type (spec) == ENTITY_TYPE_SOUND_EFFECT)

  0009a	83 7d fc 00	 cmp	 DWORD PTR _spec$[ebp], 0
  0009e	74 0a		 je	 SHORT $LN15@resume_loc
  000a0	8b 45 fc	 mov	 eax, DWORD PTR _spec$[ebp]
  000a3	8b 08		 mov	 ecx, DWORD PTR [eax]
  000a5	89 4d a4	 mov	 DWORD PTR tv90[ebp], ecx
  000a8	eb 1d		 jmp	 SHORT $LN16@resume_loc
$LN15@resume_loc:
  000aa	68 98 00 00 00	 push	 152			; 00000098H
  000af	68 00 00 00 00	 push	 OFFSET ??_C@_0FG@NJPAEEKF@c?3?2users?2nhv90?2projects?2eech?2ap@
  000b4	8b 15 00 00 00
	00		 mov	 edx, DWORD PTR ?null_entity_pointer_message@@3PBDB ; null_entity_pointer_message
  000ba	52		 push	 edx
  000bb	e8 00 00 00 00	 call	 ?process_assert@@YGXPBD0H@Z ; process_assert
  000c0	c7 45 a4 00 00
	00 00		 mov	 DWORD PTR tv90[ebp], 0
$LN16@resume_loc:
  000c7	83 7d a4 20	 cmp	 DWORD PTR tv90[ebp], 32	; 00000020H
  000cb	0f 85 13 02 00
	00		 jne	 $LN6@resume_loc

; 153  : 		{
; 154  : 			raw = (sound_effect *) get_local_entity_data (spec);

  000d1	8b 45 fc	 mov	 eax, DWORD PTR _spec$[ebp]
  000d4	8b 48 04	 mov	 ecx, DWORD PTR [eax+4]
  000d7	89 4d f8	 mov	 DWORD PTR _raw$[ebp], ecx

; 155  : 
; 156  : 			if (raw->eff.sub_type == type)

  000da	8b 45 f8	 mov	 eax, DWORD PTR _raw$[ebp]
  000dd	8b 08		 mov	 ecx, DWORD PTR [eax]
  000df	3b 4d 0c	 cmp	 ecx, DWORD PTR _type$[ebp]
  000e2	0f 85 fc 01 00
	00		 jne	 $LN6@resume_loc

; 157  : 			{
; 158  : 				//
; 159  : 				// "unpause" sound
; 160  : 				//
; 161  : 
; 162  : 				if (!raw->valid_sound_effect)

  000e8	8b 45 f8	 mov	 eax, DWORD PTR _raw$[ebp]
  000eb	8b 48 40	 mov	 ecx, DWORD PTR [eax+64]
  000ee	c1 e9 08	 shr	 ecx, 8
  000f1	83 e1 01	 and	 ecx, 1
  000f4	0f 85 ea 01 00
	00		 jne	 $LN6@resume_loc

; 163  : 				{
; 164  : 					//
; 165  : 					// set flag and start playing
; 166  : 					//
; 167  : 
; 168  : 					raw->valid_sound_effect = TRUE;

  000fa	8b 45 f8	 mov	 eax, DWORD PTR _raw$[ebp]
  000fd	8b 48 40	 mov	 ecx, DWORD PTR [eax+64]
  00100	81 c9 00 01 00
	00		 or	 ecx, 256		; 00000100H
  00106	8b 55 f8	 mov	 edx, DWORD PTR _raw$[ebp]
  00109	89 4a 40	 mov	 DWORD PTR [edx+64], ecx

; 169  : 	
; 170  : 					if (en == get_session_entity ())

  0010c	8b 45 08	 mov	 eax, DWORD PTR _en$[ebp]
  0010f	3b 05 00 00 00
	00		 cmp	 eax, DWORD PTR ?session_entity@@3PAUENTITY@@A ; session_entity
  00115	75 54		 jne	 SHORT $LN7@resume_loc

; 171  : 					{
; 172  : 						play_local_entity_sound (en, &main_vp, 0);

  00117	83 7d 08 00	 cmp	 DWORD PTR _en$[ebp], 0
  0011b	74 0a		 je	 SHORT $LN17@resume_loc
  0011d	8b 45 08	 mov	 eax, DWORD PTR _en$[ebp]
  00120	8b 08		 mov	 ecx, DWORD PTR [eax]
  00122	89 4d a4	 mov	 DWORD PTR tv142[ebp], ecx
  00125	eb 21		 jmp	 SHORT $LN18@resume_loc
$LN17@resume_loc:
  00127	8b 15 00 00 00
	00		 mov	 edx, DWORD PTR ?__LINE__Var@?0??resume_local_entity_sound_type@@YGHPAUENTITY@@H@Z@4JA
  0012d	83 c2 24	 add	 edx, 36			; 00000024H
  00130	52		 push	 edx
  00131	68 00 00 00 00	 push	 OFFSET ??_C@_0FG@NJPAEEKF@c?3?2users?2nhv90?2projects?2eech?2ap@
  00136	a1 00 00 00 00	 mov	 eax, DWORD PTR ?null_entity_pointer_message@@3PBDB ; null_entity_pointer_message
  0013b	50		 push	 eax
  0013c	e8 00 00 00 00	 call	 ?process_assert@@YGXPBD0H@Z ; process_assert
  00141	c7 45 a4 00 00
	00 00		 mov	 DWORD PTR tv142[ebp], 0
$LN18@resume_loc:
  00148	51		 push	 ecx
  00149	0f 57 c0	 xorps	 xmm0, xmm0
  0014c	f3 0f 11 04 24	 movss	 DWORD PTR [esp], xmm0
  00151	68 00 00 00 00	 push	 OFFSET ?main_vp@@3UVIEWPOINT@@A ; main_vp
  00156	8b 4d 08	 mov	 ecx, DWORD PTR _en$[ebp]
  00159	51		 push	 ecx
  0015a	8b 55 a4	 mov	 edx, DWORD PTR tv142[ebp]
  0015d	8b 04 95 00 00
	00 00		 mov	 eax, DWORD PTR ?fn_play_local_entity_sound@@3PAP6GXPAUENTITY@@PAUVIEWPOINT@@M@ZA[edx*4]
  00164	ff d0		 call	 eax

; 173  : 					}
; 174  : 					else

  00166	e9 e4 00 00 00	 jmp	 $LN8@resume_loc
$LN7@resume_loc:

; 175  : 					{
; 176  : 						vec3d
; 177  : 							*position;
; 178  : 	
; 179  : 						viewpoint
; 180  : 							*vp;
; 181  : 	
; 182  : 						float
; 183  : 							range;
; 184  : 	
; 185  : 						vp = &main_vp;

  0016b	c7 45 ec 00 00
	00 00		 mov	 DWORD PTR _vp$2[ebp], OFFSET ?main_vp@@3UVIEWPOINT@@A ; main_vp

; 186  : 	
; 187  : 						position = get_local_entity_vec3d_ptr (en, VEC3D_TYPE_POSITION);

  00172	83 7d 08 00	 cmp	 DWORD PTR _en$[ebp], 0
  00176	74 0a		 je	 SHORT $LN19@resume_loc
  00178	8b 45 08	 mov	 eax, DWORD PTR _en$[ebp]
  0017b	8b 08		 mov	 ecx, DWORD PTR [eax]
  0017d	89 4d a4	 mov	 DWORD PTR tv154[ebp], ecx
  00180	eb 21		 jmp	 SHORT $LN20@resume_loc
$LN19@resume_loc:
  00182	8b 15 00 00 00
	00		 mov	 edx, DWORD PTR ?__LINE__Var@?0??resume_local_entity_sound_type@@YGHPAUENTITY@@H@Z@4JA
  00188	83 c2 33	 add	 edx, 51			; 00000033H
  0018b	52		 push	 edx
  0018c	68 00 00 00 00	 push	 OFFSET ??_C@_0FG@NJPAEEKF@c?3?2users?2nhv90?2projects?2eech?2ap@
  00191	a1 00 00 00 00	 mov	 eax, DWORD PTR ?null_entity_pointer_message@@3PBDB ; null_entity_pointer_message
  00196	50		 push	 eax
  00197	e8 00 00 00 00	 call	 ?process_assert@@YGXPBD0H@Z ; process_assert
  0019c	c7 45 a4 00 00
	00 00		 mov	 DWORD PTR tv154[ebp], 0
$LN20@resume_loc:
  001a3	b9 01 00 00 00	 mov	 ecx, 1
  001a8	85 c9		 test	 ecx, ecx
  001aa	74 09		 je	 SHORT $LN21@resume_loc
  001ac	c7 45 a0 08 00
	00 00		 mov	 DWORD PTR tv162[ebp], 8
  001b3	eb 21		 jmp	 SHORT $LN22@resume_loc
$LN21@resume_loc:
  001b5	8b 15 00 00 00
	00		 mov	 edx, DWORD PTR ?__LINE__Var@?0??resume_local_entity_sound_type@@YGHPAUENTITY@@H@Z@4JA
  001bb	83 c2 33	 add	 edx, 51			; 00000033H
  001be	52		 push	 edx
  001bf	68 00 00 00 00	 push	 OFFSET ??_C@_0FG@NJPAEEKF@c?3?2users?2nhv90?2projects?2eech?2ap@
  001c4	a1 00 00 00 00	 mov	 eax, DWORD PTR ?overload_invalid_vec3d_type_message@@3PBDB ; overload_invalid_vec3d_type_message
  001c9	50		 push	 eax
  001ca	e8 00 00 00 00	 call	 ?process_assert@@YGXPBD0H@Z ; process_assert
  001cf	c7 45 a0 00 00
	00 00		 mov	 DWORD PTR tv162[ebp], 0
$LN22@resume_loc:
  001d6	6a 08		 push	 8
  001d8	8b 4d 08	 mov	 ecx, DWORD PTR _en$[ebp]
  001db	51		 push	 ecx
  001dc	6b 55 a4 60	 imul	 edx, DWORD PTR tv154[ebp], 96
  001e0	8b 45 a0	 mov	 eax, DWORD PTR tv162[ebp]
  001e3	8b 8c 82 00 00
	00 00		 mov	 ecx, DWORD PTR ?fn_get_local_entity_vec3d_ptr@@3PAY0BI@P6GPAUVEC3D@@PAUENTITY@@W4VEC3D_TYPES@@@ZA[edx+eax*4]
  001ea	ff d1		 call	 ecx
  001ec	89 45 f0	 mov	 DWORD PTR _position$3[ebp], eax

; 188  : 	
; 189  : 						range = get_approx_3d_range (&vp->position, position);

  001ef	8b 45 f0	 mov	 eax, DWORD PTR _position$3[ebp]
  001f2	50		 push	 eax
  001f3	8b 4d ec	 mov	 ecx, DWORD PTR _vp$2[ebp]
  001f6	51		 push	 ecx
  001f7	e8 00 00 00 00	 call	 ?get_approx_3d_range@@YGMPBUVEC3D@@0@Z ; get_approx_3d_range
  001fc	d9 5d e8	 fstp	 DWORD PTR _range$1[ebp]

; 190  : 	
; 191  : 						play_local_entity_sound (en, vp, range);

  001ff	83 7d 08 00	 cmp	 DWORD PTR _en$[ebp], 0
  00203	74 0a		 je	 SHORT $LN23@resume_loc
  00205	8b 45 08	 mov	 eax, DWORD PTR _en$[ebp]
  00208	8b 08		 mov	 ecx, DWORD PTR [eax]
  0020a	89 4d a4	 mov	 DWORD PTR tv178[ebp], ecx
  0020d	eb 21		 jmp	 SHORT $LN24@resume_loc
$LN23@resume_loc:
  0020f	8b 15 00 00 00
	00		 mov	 edx, DWORD PTR ?__LINE__Var@?0??resume_local_entity_sound_type@@YGHPAUENTITY@@H@Z@4JA
  00215	83 c2 37	 add	 edx, 55			; 00000037H
  00218	52		 push	 edx
  00219	68 00 00 00 00	 push	 OFFSET ??_C@_0FG@NJPAEEKF@c?3?2users?2nhv90?2projects?2eech?2ap@
  0021e	a1 00 00 00 00	 mov	 eax, DWORD PTR ?null_entity_pointer_message@@3PBDB ; null_entity_pointer_message
  00223	50		 push	 eax
  00224	e8 00 00 00 00	 call	 ?process_assert@@YGXPBD0H@Z ; process_assert
  00229	c7 45 a4 00 00
	00 00		 mov	 DWORD PTR tv178[ebp], 0
$LN24@resume_loc:
  00230	51		 push	 ecx
  00231	f3 0f 10 45 e8	 movss	 xmm0, DWORD PTR _range$1[ebp]
  00236	f3 0f 11 04 24	 movss	 DWORD PTR [esp], xmm0
  0023b	8b 4d ec	 mov	 ecx, DWORD PTR _vp$2[ebp]
  0023e	51		 push	 ecx
  0023f	8b 55 08	 mov	 edx, DWORD PTR _en$[ebp]
  00242	52		 push	 edx
  00243	8b 45 a4	 mov	 eax, DWORD PTR tv178[ebp]
  00246	8b 0c 85 00 00
	00 00		 mov	 ecx, DWORD PTR ?fn_play_local_entity_sound@@3PAP6GXPAUENTITY@@PAUVIEWPOINT@@M@ZA[eax*4]
  0024d	ff d1		 call	 ecx
$LN8@resume_loc:

; 192  : 					}
; 193  : 
; 194  : 					if (!get_local_entity_parent (spec, LIST_TYPE_UPDATE))

  0024f	83 7d fc 00	 cmp	 DWORD PTR _spec$[ebp], 0
  00253	74 0a		 je	 SHORT $LN25@resume_loc
  00255	8b 45 fc	 mov	 eax, DWORD PTR _spec$[ebp]
  00258	8b 08		 mov	 ecx, DWORD PTR [eax]
  0025a	89 4d a4	 mov	 DWORD PTR tv189[ebp], ecx
  0025d	eb 1d		 jmp	 SHORT $LN26@resume_loc
$LN25@resume_loc:
  0025f	68 c2 00 00 00	 push	 194			; 000000c2H
  00264	68 00 00 00 00	 push	 OFFSET ??_C@_0FG@NJPAEEKF@c?3?2users?2nhv90?2projects?2eech?2ap@
  00269	8b 15 00 00 00
	00		 mov	 edx, DWORD PTR ?null_entity_pointer_message@@3PBDB ; null_entity_pointer_message
  0026f	52		 push	 edx
  00270	e8 00 00 00 00	 call	 ?process_assert@@YGXPBD0H@Z ; process_assert
  00275	c7 45 a4 00 00
	00 00		 mov	 DWORD PTR tv189[ebp], 0
$LN26@resume_loc:
  0027c	b8 01 00 00 00	 mov	 eax, 1
  00281	85 c0		 test	 eax, eax
  00283	74 09		 je	 SHORT $LN27@resume_loc
  00285	c7 45 a0 29 00
	00 00		 mov	 DWORD PTR tv196[ebp], 41 ; 00000029H
  0028c	eb 1d		 jmp	 SHORT $LN28@resume_loc
$LN27@resume_loc:
  0028e	68 c2 00 00 00	 push	 194			; 000000c2H
  00293	68 00 00 00 00	 push	 OFFSET ??_C@_0FG@NJPAEEKF@c?3?2users?2nhv90?2projects?2eech?2ap@
  00298	8b 0d 00 00 00
	00		 mov	 ecx, DWORD PTR ?overload_invalid_list_type_message@@3PBDB ; overload_invalid_list_type_message
  0029e	51		 push	 ecx
  0029f	e8 00 00 00 00	 call	 ?process_assert@@YGXPBD0H@Z ; process_assert
  002a4	c7 45 a0 00 00
	00 00		 mov	 DWORD PTR tv196[ebp], 0
$LN28@resume_loc:
  002ab	6a 29		 push	 41			; 00000029H
  002ad	8b 55 fc	 mov	 edx, DWORD PTR _spec$[ebp]
  002b0	52		 push	 edx
  002b1	69 45 a4 b4 00
	00 00		 imul	 eax, DWORD PTR tv189[ebp], 180
  002b8	8b 4d a0	 mov	 ecx, DWORD PTR tv196[ebp]
  002bb	8b 94 88 00 00
	00 00		 mov	 edx, DWORD PTR ?fn_get_local_entity_parent@@3PAY0CN@P6GPAUENTITY@@PAU1@W4LIST_TYPES@@@ZA[eax+ecx*4]
  002c2	ff d2		 call	 edx
  002c4	85 c0		 test	 eax, eax
  002c6	75 13		 jne	 SHORT $LN9@resume_loc

; 195  : 					{
; 196  : 						insert_local_entity_into_parents_child_list (spec, LIST_TYPE_UPDATE, get_update_entity (), NULL);

  002c8	6a 00		 push	 0
  002ca	a1 00 00 00 00	 mov	 eax, DWORD PTR ?update_entity@@3PAUENTITY@@A ; update_entity
  002cf	50		 push	 eax
  002d0	6a 29		 push	 41			; 00000029H
  002d2	8b 4d fc	 mov	 ecx, DWORD PTR _spec$[ebp]
  002d5	51		 push	 ecx
  002d6	e8 00 00 00 00	 call	 ?insert_local_entity_into_parents_child_list@@YGXPAUENTITY@@W4LIST_TYPES@@00@Z ; insert_local_entity_into_parents_child_list
$LN9@resume_loc:

; 197  : 					}
; 198  : 
; 199  : 					count ++;

  002db	8b 45 f4	 mov	 eax, DWORD PTR _count$[ebp]
  002de	83 c0 01	 add	 eax, 1
  002e1	89 45 f4	 mov	 DWORD PTR _count$[ebp], eax
$LN6@resume_loc:

; 200  : 				}
; 201  : 			}
; 202  : 		}
; 203  : 
; 204  : 		spec = get_local_entity_child_succ (spec, LIST_TYPE_SPECIAL_EFFECT);

  002e4	83 7d fc 00	 cmp	 DWORD PTR _spec$[ebp], 0
  002e8	74 0a		 je	 SHORT $LN29@resume_loc
  002ea	8b 45 fc	 mov	 eax, DWORD PTR _spec$[ebp]
  002ed	8b 08		 mov	 ecx, DWORD PTR [eax]
  002ef	89 4d a4	 mov	 DWORD PTR tv214[ebp], ecx
  002f2	eb 21		 jmp	 SHORT $LN30@resume_loc
$LN29@resume_loc:
  002f4	8b 15 00 00 00
	00		 mov	 edx, DWORD PTR ?__LINE__Var@?0??resume_local_entity_sound_type@@YGHPAUENTITY@@H@Z@4JA
  002fa	83 c2 44	 add	 edx, 68			; 00000044H
  002fd	52		 push	 edx
  002fe	68 00 00 00 00	 push	 OFFSET ??_C@_0FG@NJPAEEKF@c?3?2users?2nhv90?2projects?2eech?2ap@
  00303	a1 00 00 00 00	 mov	 eax, DWORD PTR ?null_entity_pointer_message@@3PBDB ; null_entity_pointer_message
  00308	50		 push	 eax
  00309	e8 00 00 00 00	 call	 ?process_assert@@YGXPBD0H@Z ; process_assert
  0030e	c7 45 a4 00 00
	00 00		 mov	 DWORD PTR tv214[ebp], 0
$LN30@resume_loc:
  00315	b9 01 00 00 00	 mov	 ecx, 1
  0031a	85 c9		 test	 ecx, ecx
  0031c	74 09		 je	 SHORT $LN31@resume_loc
  0031e	c7 45 a0 24 00
	00 00		 mov	 DWORD PTR tv222[ebp], 36 ; 00000024H
  00325	eb 21		 jmp	 SHORT $LN32@resume_loc
$LN31@resume_loc:
  00327	8b 15 00 00 00
	00		 mov	 edx, DWORD PTR ?__LINE__Var@?0??resume_local_entity_sound_type@@YGHPAUENTITY@@H@Z@4JA
  0032d	83 c2 44	 add	 edx, 68			; 00000044H
  00330	52		 push	 edx
  00331	68 00 00 00 00	 push	 OFFSET ??_C@_0FG@NJPAEEKF@c?3?2users?2nhv90?2projects?2eech?2ap@
  00336	a1 00 00 00 00	 mov	 eax, DWORD PTR ?overload_invalid_list_type_message@@3PBDB ; overload_invalid_list_type_message
  0033b	50		 push	 eax
  0033c	e8 00 00 00 00	 call	 ?process_assert@@YGXPBD0H@Z ; process_assert
  00341	c7 45 a0 00 00
	00 00		 mov	 DWORD PTR tv222[ebp], 0
$LN32@resume_loc:
  00348	6a 24		 push	 36			; 00000024H
  0034a	8b 4d fc	 mov	 ecx, DWORD PTR _spec$[ebp]
  0034d	51		 push	 ecx
  0034e	69 55 a4 b4 00
	00 00		 imul	 edx, DWORD PTR tv214[ebp], 180
  00355	8b 45 a0	 mov	 eax, DWORD PTR tv222[ebp]
  00358	8b 8c 82 00 00
	00 00		 mov	 ecx, DWORD PTR ?fn_get_local_entity_child_succ@@3PAY0CN@P6GPAUENTITY@@PAU1@W4LIST_TYPES@@@ZA[edx+eax*4]
  0035f	ff d1		 call	 ecx
  00361	89 45 fc	 mov	 DWORD PTR _spec$[ebp], eax

; 205  : 	}

  00364	e9 27 fd ff ff	 jmp	 $LN2@resume_loc
$LN3@resume_loc:

; 206  : 
; 207  : 	return count;

  00369	8b 45 f4	 mov	 eax, DWORD PTR _count$[ebp]

; 208  : }

  0036c	5f		 pop	 edi
  0036d	5e		 pop	 esi
  0036e	5b		 pop	 ebx
  0036f	8b e5		 mov	 esp, ebp
  00371	5d		 pop	 ebp
  00372	c2 08 00	 ret	 8
?resume_local_entity_sound_type@@YGHPAUENTITY@@H@Z ENDP	; resume_local_entity_sound_type
_TEXT	ENDS
; Function compile flags: /Odtp /ZI
; File c:\users\nhv90\projects\eech\aphavoc\source\entity\special\effect\soundeff\soundeff.c
;	COMDAT ?pause_local_entity_sound_type@@YGHPAUENTITY@@HM@Z
_TEXT	SEGMENT
tv151 = -84						; size = 4
tv78 = -84						; size = 4
tv143 = -80						; size = 4
tv90 = -80						; size = 4
tv70 = -80						; size = 4
_count$ = -12						; size = 4
_raw$ = -8						; size = 4
_spec$ = -4						; size = 4
_en$ = 8						; size = 4
_type$ = 12						; size = 4
_delay$ = 16						; size = 4
?pause_local_entity_sound_type@@YGHPAUENTITY@@HM@Z PROC	; pause_local_entity_sound_type, COMDAT

; 88   : {

  00000	55		 push	 ebp
  00001	8b ec		 mov	 ebp, esp
  00003	83 ec 54	 sub	 esp, 84			; 00000054H
  00006	53		 push	 ebx
  00007	56		 push	 esi
  00008	57		 push	 edi

; 89   : 	entity
; 90   : 		*spec;
; 91   : 
; 92   : 	sound_effect
; 93   : 		*raw;
; 94   : 
; 95   : 	int
; 96   : 		count;
; 97   : 
; 98   : 	count = 0;

  00009	c7 45 f4 00 00
	00 00		 mov	 DWORD PTR _count$[ebp], 0

; 99   : 
; 100  : 	spec = get_local_entity_first_child (en, LIST_TYPE_SPECIAL_EFFECT);

  00010	83 7d 08 00	 cmp	 DWORD PTR _en$[ebp], 0
  00014	74 0a		 je	 SHORT $LN8@pause_loca
  00016	8b 45 08	 mov	 eax, DWORD PTR _en$[ebp]
  00019	8b 08		 mov	 ecx, DWORD PTR [eax]
  0001b	89 4d b0	 mov	 DWORD PTR tv70[ebp], ecx
  0001e	eb 21		 jmp	 SHORT $LN9@pause_loca
$LN8@pause_loca:
  00020	8b 15 00 00 00
	00		 mov	 edx, DWORD PTR ?__LINE__Var@?0??pause_local_entity_sound_type@@YGHPAUENTITY@@HM@Z@4JA
  00026	83 c2 0c	 add	 edx, 12			; 0000000cH
  00029	52		 push	 edx
  0002a	68 00 00 00 00	 push	 OFFSET ??_C@_0FG@NJPAEEKF@c?3?2users?2nhv90?2projects?2eech?2ap@
  0002f	a1 00 00 00 00	 mov	 eax, DWORD PTR ?null_entity_pointer_message@@3PBDB ; null_entity_pointer_message
  00034	50		 push	 eax
  00035	e8 00 00 00 00	 call	 ?process_assert@@YGXPBD0H@Z ; process_assert
  0003a	c7 45 b0 00 00
	00 00		 mov	 DWORD PTR tv70[ebp], 0
$LN9@pause_loca:
  00041	b9 01 00 00 00	 mov	 ecx, 1
  00046	85 c9		 test	 ecx, ecx
  00048	74 09		 je	 SHORT $LN10@pause_loca
  0004a	c7 45 ac 24 00
	00 00		 mov	 DWORD PTR tv78[ebp], 36	; 00000024H
  00051	eb 21		 jmp	 SHORT $LN11@pause_loca
$LN10@pause_loca:
  00053	8b 15 00 00 00
	00		 mov	 edx, DWORD PTR ?__LINE__Var@?0??pause_local_entity_sound_type@@YGHPAUENTITY@@HM@Z@4JA
  00059	83 c2 0c	 add	 edx, 12			; 0000000cH
  0005c	52		 push	 edx
  0005d	68 00 00 00 00	 push	 OFFSET ??_C@_0FG@NJPAEEKF@c?3?2users?2nhv90?2projects?2eech?2ap@
  00062	a1 00 00 00 00	 mov	 eax, DWORD PTR ?overload_invalid_list_type_message@@3PBDB ; overload_invalid_list_type_message
  00067	50		 push	 eax
  00068	e8 00 00 00 00	 call	 ?process_assert@@YGXPBD0H@Z ; process_assert
  0006d	c7 45 ac 00 00
	00 00		 mov	 DWORD PTR tv78[ebp], 0
$LN11@pause_loca:
  00074	6a 24		 push	 36			; 00000024H
  00076	8b 4d 08	 mov	 ecx, DWORD PTR _en$[ebp]
  00079	51		 push	 ecx
  0007a	69 55 b0 b4 00
	00 00		 imul	 edx, DWORD PTR tv70[ebp], 180
  00081	8b 45 ac	 mov	 eax, DWORD PTR tv78[ebp]
  00084	8b 8c 82 00 00
	00 00		 mov	 ecx, DWORD PTR ?fn_get_local_entity_first_child@@3PAY0CN@P6GPAUENTITY@@PAU1@W4LIST_TYPES@@@ZA[edx+eax*4]
  0008b	ff d1		 call	 ecx
  0008d	89 45 fc	 mov	 DWORD PTR _spec$[ebp], eax
$LN2@pause_loca:

; 101  : 	
; 102  : 	while (spec)

  00090	83 7d fc 00	 cmp	 DWORD PTR _spec$[ebp], 0
  00094	0f 84 fe 00 00
	00		 je	 $LN3@pause_loca

; 103  : 	{
; 104  : 		if (get_local_entity_type (spec) == ENTITY_TYPE_SOUND_EFFECT)

  0009a	83 7d fc 00	 cmp	 DWORD PTR _spec$[ebp], 0
  0009e	74 0a		 je	 SHORT $LN12@pause_loca
  000a0	8b 45 fc	 mov	 eax, DWORD PTR _spec$[ebp]
  000a3	8b 08		 mov	 ecx, DWORD PTR [eax]
  000a5	89 4d b0	 mov	 DWORD PTR tv90[ebp], ecx
  000a8	eb 1a		 jmp	 SHORT $LN13@pause_loca
$LN12@pause_loca:
  000aa	6a 68		 push	 104			; 00000068H
  000ac	68 00 00 00 00	 push	 OFFSET ??_C@_0FG@NJPAEEKF@c?3?2users?2nhv90?2projects?2eech?2ap@
  000b1	8b 15 00 00 00
	00		 mov	 edx, DWORD PTR ?null_entity_pointer_message@@3PBDB ; null_entity_pointer_message
  000b7	52		 push	 edx
  000b8	e8 00 00 00 00	 call	 ?process_assert@@YGXPBD0H@Z ; process_assert
  000bd	c7 45 b0 00 00
	00 00		 mov	 DWORD PTR tv90[ebp], 0
$LN13@pause_loca:
  000c4	83 7d b0 20	 cmp	 DWORD PTR tv90[ebp], 32	; 00000020H
  000c8	75 49		 jne	 SHORT $LN6@pause_loca

; 105  : 		{
; 106  : 			raw = (sound_effect *) get_local_entity_data (spec);

  000ca	8b 45 fc	 mov	 eax, DWORD PTR _spec$[ebp]
  000cd	8b 48 04	 mov	 ecx, DWORD PTR [eax+4]
  000d0	89 4d f8	 mov	 DWORD PTR _raw$[ebp], ecx

; 107  : 
; 108  : 			if (raw->eff.sub_type == type)

  000d3	8b 45 f8	 mov	 eax, DWORD PTR _raw$[ebp]
  000d6	8b 08		 mov	 ecx, DWORD PTR [eax]
  000d8	3b 4d 0c	 cmp	 ecx, DWORD PTR _type$[ebp]
  000db	75 36		 jne	 SHORT $LN6@pause_loca

; 109  : 			{
; 110  : 				//
; 111  : 				// "pause" sound
; 112  : 				//
; 113  : 
; 114  : 				if (raw->valid_sound_effect)

  000dd	8b 45 f8	 mov	 eax, DWORD PTR _raw$[ebp]
  000e0	8b 48 40	 mov	 ecx, DWORD PTR [eax+64]
  000e3	c1 e9 08	 shr	 ecx, 8
  000e6	83 e1 01	 and	 ecx, 1
  000e9	74 28		 je	 SHORT $LN6@pause_loca

; 115  : 				{
; 116  : 					raw->valid_sound_effect = FALSE;

  000eb	8b 45 f8	 mov	 eax, DWORD PTR _raw$[ebp]
  000ee	8b 48 40	 mov	 ecx, DWORD PTR [eax+64]
  000f1	81 e1 ff fe ff
	ff		 and	 ecx, -257		; fffffeffH
  000f7	8b 55 f8	 mov	 edx, DWORD PTR _raw$[ebp]
  000fa	89 4a 40	 mov	 DWORD PTR [edx+64], ecx

; 117  : 
; 118  : 					raw->valid_effect_lifetime = delay;

  000fd	8b 45 f8	 mov	 eax, DWORD PTR _raw$[ebp]
  00100	f3 0f 10 45 10	 movss	 xmm0, DWORD PTR _delay$[ebp]
  00105	f3 0f 11 40 38	 movss	 DWORD PTR [eax+56], xmm0

; 119  : 
; 120  : 					count ++;

  0010a	8b 45 f4	 mov	 eax, DWORD PTR _count$[ebp]
  0010d	83 c0 01	 add	 eax, 1
  00110	89 45 f4	 mov	 DWORD PTR _count$[ebp], eax
$LN6@pause_loca:

; 121  : 				}
; 122  : 			}
; 123  : 		}
; 124  : 
; 125  : 		spec = get_local_entity_child_succ (spec, LIST_TYPE_SPECIAL_EFFECT);

  00113	83 7d fc 00	 cmp	 DWORD PTR _spec$[ebp], 0
  00117	74 0a		 je	 SHORT $LN14@pause_loca
  00119	8b 45 fc	 mov	 eax, DWORD PTR _spec$[ebp]
  0011c	8b 08		 mov	 ecx, DWORD PTR [eax]
  0011e	89 4d b0	 mov	 DWORD PTR tv143[ebp], ecx
  00121	eb 21		 jmp	 SHORT $LN15@pause_loca
$LN14@pause_loca:
  00123	8b 15 00 00 00
	00		 mov	 edx, DWORD PTR ?__LINE__Var@?0??pause_local_entity_sound_type@@YGHPAUENTITY@@HM@Z@4JA
  00129	83 c2 25	 add	 edx, 37			; 00000025H
  0012c	52		 push	 edx
  0012d	68 00 00 00 00	 push	 OFFSET ??_C@_0FG@NJPAEEKF@c?3?2users?2nhv90?2projects?2eech?2ap@
  00132	a1 00 00 00 00	 mov	 eax, DWORD PTR ?null_entity_pointer_message@@3PBDB ; null_entity_pointer_message
  00137	50		 push	 eax
  00138	e8 00 00 00 00	 call	 ?process_assert@@YGXPBD0H@Z ; process_assert
  0013d	c7 45 b0 00 00
	00 00		 mov	 DWORD PTR tv143[ebp], 0
$LN15@pause_loca:
  00144	b9 01 00 00 00	 mov	 ecx, 1
  00149	85 c9		 test	 ecx, ecx
  0014b	74 09		 je	 SHORT $LN16@pause_loca
  0014d	c7 45 ac 24 00
	00 00		 mov	 DWORD PTR tv151[ebp], 36 ; 00000024H
  00154	eb 21		 jmp	 SHORT $LN17@pause_loca
$LN16@pause_loca:
  00156	8b 15 00 00 00
	00		 mov	 edx, DWORD PTR ?__LINE__Var@?0??pause_local_entity_sound_type@@YGHPAUENTITY@@HM@Z@4JA
  0015c	83 c2 25	 add	 edx, 37			; 00000025H
  0015f	52		 push	 edx
  00160	68 00 00 00 00	 push	 OFFSET ??_C@_0FG@NJPAEEKF@c?3?2users?2nhv90?2projects?2eech?2ap@
  00165	a1 00 00 00 00	 mov	 eax, DWORD PTR ?overload_invalid_list_type_message@@3PBDB ; overload_invalid_list_type_message
  0016a	50		 push	 eax
  0016b	e8 00 00 00 00	 call	 ?process_assert@@YGXPBD0H@Z ; process_assert
  00170	c7 45 ac 00 00
	00 00		 mov	 DWORD PTR tv151[ebp], 0
$LN17@pause_loca:
  00177	6a 24		 push	 36			; 00000024H
  00179	8b 4d fc	 mov	 ecx, DWORD PTR _spec$[ebp]
  0017c	51		 push	 ecx
  0017d	69 55 b0 b4 00
	00 00		 imul	 edx, DWORD PTR tv143[ebp], 180
  00184	8b 45 ac	 mov	 eax, DWORD PTR tv151[ebp]
  00187	8b 8c 82 00 00
	00 00		 mov	 ecx, DWORD PTR ?fn_get_local_entity_child_succ@@3PAY0CN@P6GPAUENTITY@@PAU1@W4LIST_TYPES@@@ZA[edx+eax*4]
  0018e	ff d1		 call	 ecx
  00190	89 45 fc	 mov	 DWORD PTR _spec$[ebp], eax

; 126  : 	}

  00193	e9 f8 fe ff ff	 jmp	 $LN2@pause_loca
$LN3@pause_loca:

; 127  : 
; 128  : 	return count;

  00198	8b 45 f4	 mov	 eax, DWORD PTR _count$[ebp]

; 129  : }

  0019b	5f		 pop	 edi
  0019c	5e		 pop	 esi
  0019d	5b		 pop	 ebx
  0019e	8b e5		 mov	 esp, ebp
  001a0	5d		 pop	 ebp
  001a1	c2 0c 00	 ret	 12			; 0000000cH
?pause_local_entity_sound_type@@YGHPAUENTITY@@HM@Z ENDP	; pause_local_entity_sound_type
_TEXT	ENDS
END
