; Listing generated by Microsoft (R) Optimizing Compiler Version 19.16.27045.0 

	TITLE	C:\Users\nhv90\Projects\eech\aphavoc\source\entity\special\effect\sprite\sp_float.c
	.686P
	.XMM
	include listing.inc
	.model	flat

INCLUDELIB MSVCRTD
INCLUDELIB OLDNAMES

PUBLIC	?overload_sprite_float_value_functions@@YGXXZ	; overload_sprite_float_value_functions
PUBLIC	?__LINE__Var@?0??set_local_float_value@@YGXPAUENTITY@@W4FLOAT_TYPES@@M@Z@4JA ; `set_local_float_value'::`1'::__LINE__Var
PUBLIC	??_C@_0FE@NPPDILBG@c?3?2users?2nhv90?2projects?2eech?2ap@ ; `string'
PUBLIC	?__LINE__Var@?0??set_server_float_value@@YGXPAUENTITY@@W4FLOAT_TYPES@@M@Z@4JA ; `set_server_float_value'::`1'::__LINE__Var
PUBLIC	??_C@_0CB@CFOCLFOK@assert_client_server_local_fn?5?$CI@ ; `string'
PUBLIC	??_C@_0CC@BNNNEGEG@assert_client_server_remote_fn?5@ ; `string'
PUBLIC	?__LINE__Var@?0??set_client_float_value@@YGXPAUENTITY@@W4FLOAT_TYPES@@M@Z@4JA ; `set_client_float_value'::`1'::__LINE__Var
PUBLIC	?__LINE__Var@?0??get_local_float_value@@YGMPAUENTITY@@W4FLOAT_TYPES@@@Z@4JA ; `get_local_float_value'::`1'::__LINE__Var
EXTRN	?process_assert@@YGXPBD0H@Z:PROC		; process_assert
EXTRN	?debug_fatal@@YAXPBDZZ:PROC			; debug_fatal
EXTRN	?transmit_entity_comms_message@@YAXW4ENTITY_COMMS_MESSAGES@@PAUENTITY@@ZZ:PROC ; transmit_entity_comms_message
EXTRN	?assert_client_server_local_fn@@YGHXZ:PROC	; assert_client_server_local_fn
EXTRN	?assert_client_server_remote_fn@@YGHXZ:PROC	; assert_client_server_remote_fn
EXTRN	?null_entity_pointer_message@@3PBDB:DWORD	; null_entity_pointer_message
EXTRN	?entity_type_database@@3PAUENTITY_TYPE_DATA@@A:BYTE ; entity_type_database
EXTRN	?system_comms_data_flow@@3W4COMMS_DATA_FLOW_TYPES@@A:DWORD ; system_comms_data_flow
EXTRN	?float_type_database@@3PAUFLOAT_TYPE_DATA@@A:BYTE ; float_type_database
EXTRN	?debug_fatal_invalid_float_type_message@@3PBDB:DWORD ; debug_fatal_invalid_float_type_message
EXTRN	?fn_set_local_entity_raw_float_value@@3PAY0KP@P6GXPAUENTITY@@W4FLOAT_TYPES@@M@ZA:BYTE ; fn_set_local_entity_raw_float_value
EXTRN	?fn_set_local_entity_float_value@@3PAY0KP@P6GXPAUENTITY@@W4FLOAT_TYPES@@M@ZA:BYTE ; fn_set_local_entity_float_value
EXTRN	?fn_set_client_server_entity_float_value@@3PAY1KP@1P6GXPAUENTITY@@W4FLOAT_TYPES@@M@ZA:BYTE ; fn_set_client_server_entity_float_value
EXTRN	?fn_get_local_entity_float_value@@3PAY0KP@P6GMPAUENTITY@@W4FLOAT_TYPES@@@ZA:BYTE ; fn_get_local_entity_float_value
EXTRN	?entities@@3PAUENTITY@@A:DWORD			; entities
EXTRN	__fltused:DWORD
;	COMDAT ?__LINE__Var@?0??get_local_float_value@@YGMPAUENTITY@@W4FLOAT_TYPES@@@Z@4JA
_DATA	SEGMENT
?__LINE__Var@?0??get_local_float_value@@YGMPAUENTITY@@W4FLOAT_TYPES@@@Z@4JA DD 0d0H ; `get_local_float_value'::`1'::__LINE__Var
_DATA	ENDS
;	COMDAT ?__LINE__Var@?0??set_client_float_value@@YGXPAUENTITY@@W4FLOAT_TYPES@@M@Z@4JA
_DATA	SEGMENT
?__LINE__Var@?0??set_client_float_value@@YGXPAUENTITY@@W4FLOAT_TYPES@@M@Z@4JA DD 0bcH ; `set_client_float_value'::`1'::__LINE__Var
_DATA	ENDS
;	COMDAT ??_C@_0CC@BNNNEGEG@assert_client_server_remote_fn?5@
CONST	SEGMENT
??_C@_0CC@BNNNEGEG@assert_client_server_remote_fn?5@ DB 'assert_client_se'
	DB	'rver_remote_fn ()', 00H			; `string'
CONST	ENDS
;	COMDAT ??_C@_0CB@CFOCLFOK@assert_client_server_local_fn?5?$CI@
CONST	SEGMENT
??_C@_0CB@CFOCLFOK@assert_client_server_local_fn?5?$CI@ DB 'assert_client'
	DB	'_server_local_fn ()', 00H			; `string'
CONST	ENDS
;	COMDAT ?__LINE__Var@?0??set_server_float_value@@YGXPAUENTITY@@W4FLOAT_TYPES@@M@Z@4JA
_DATA	SEGMENT
?__LINE__Var@?0??set_server_float_value@@YGXPAUENTITY@@W4FLOAT_TYPES@@M@Z@4JA DD 0adH ; `set_server_float_value'::`1'::__LINE__Var
_DATA	ENDS
;	COMDAT ??_C@_0FE@NPPDILBG@c?3?2users?2nhv90?2projects?2eech?2ap@
CONST	SEGMENT
??_C@_0FE@NPPDILBG@c?3?2users?2nhv90?2projects?2eech?2ap@ DB 'c:\users\nh'
	DB	'v90\projects\eech\aphavoc\source\entity\special\effect\sprite'
	DB	'\sp_float.c', 00H				; `string'
CONST	ENDS
;	COMDAT ?__LINE__Var@?0??set_local_float_value@@YGXPAUENTITY@@W4FLOAT_TYPES@@M@Z@4JA
_DATA	SEGMENT
?__LINE__Var@?0??set_local_float_value@@YGXPAUENTITY@@W4FLOAT_TYPES@@M@Z@4JA DD 050H ; `set_local_float_value'::`1'::__LINE__Var
_DATA	ENDS
; Function compile flags: /Odtp /ZI
; File c:\users\nhv90\projects\eech\aphavoc\source\entity\special\effect\sprite\sp_float.c
;	COMDAT ?get_local_float_value@@YGMPAUENTITY@@W4FLOAT_TYPES@@@Z
_TEXT	SEGMENT
tv88 = -76						; size = 4
tv65 = -76						; size = 4
_value$ = -8						; size = 4
_raw$ = -4						; size = 4
_en$ = 8						; size = 4
_type$ = 12						; size = 4
?get_local_float_value@@YGMPAUENTITY@@W4FLOAT_TYPES@@@Z PROC ; get_local_float_value, COMDAT

; 208  : {

  00000	55		 push	 ebp
  00001	8b ec		 mov	 ebp, esp
  00003	83 ec 4c	 sub	 esp, 76			; 0000004cH
  00006	53		 push	 ebx
  00007	56		 push	 esi
  00008	57		 push	 edi

; 209  : 	sprite
; 210  : 		*raw;
; 211  : 
; 212  : 	float
; 213  : 		value;
; 214  : 
; 215  : 	raw = (sprite *) get_local_entity_data (en);

  00009	8b 45 08	 mov	 eax, DWORD PTR _en$[ebp]
  0000c	8b 48 04	 mov	 ecx, DWORD PTR [eax+4]
  0000f	89 4d fc	 mov	 DWORD PTR _raw$[ebp], ecx

; 216  : 
; 217  : 	switch (type)

  00012	8b 45 0c	 mov	 eax, DWORD PTR _type$[ebp]
  00015	89 45 b4	 mov	 DWORD PTR tv65[ebp], eax
  00018	8b 4d b4	 mov	 ecx, DWORD PTR tv65[ebp]
  0001b	83 e9 0b	 sub	 ecx, 11			; 0000000bH
  0001e	89 4d b4	 mov	 DWORD PTR tv65[ebp], ecx
  00021	83 7d b4 71	 cmp	 DWORD PTR tv65[ebp], 113 ; 00000071H
  00025	77 7a		 ja	 SHORT $LN10@get_local_
  00027	8b 55 b4	 mov	 edx, DWORD PTR tv65[ebp]
  0002a	0f b6 82 00 00
	00 00		 movzx	 eax, BYTE PTR $LN14@get_local_[edx]
  00031	ff 24 85 00 00
	00 00		 jmp	 DWORD PTR $LN15@get_local_[eax*4]
$LN4@get_local_:

; 218  : 	{
; 219  : 		////////////////////////////////////////
; 220  : 		case FLOAT_TYPE_ANIMATION_FREQUENCY:
; 221  : 		////////////////////////////////////////
; 222  : 		{
; 223  : 			value = raw->animation_frequency;

  00038	8b 45 fc	 mov	 eax, DWORD PTR _raw$[ebp]
  0003b	f3 0f 10 40 28	 movss	 xmm0, DWORD PTR [eax+40]
  00040	f3 0f 11 45 f8	 movss	 DWORD PTR _value$[ebp], xmm0

; 224  : 
; 225  : 			break;

  00045	e9 c9 00 00 00	 jmp	 $LN2@get_local_
$LN5@get_local_:

; 226  : 		}
; 227  : 		////////////////////////////////////////
; 228  : 		case FLOAT_TYPE_MAX_TURN_RATE:
; 229  : 		////////////////////////////////////////
; 230  : 		{
; 231  : 			value = raw->rotation_rate;

  0004a	8b 45 fc	 mov	 eax, DWORD PTR _raw$[ebp]
  0004d	f3 0f 10 40 2c	 movss	 xmm0, DWORD PTR [eax+44]
  00052	f3 0f 11 45 f8	 movss	 DWORD PTR _value$[ebp], xmm0

; 232  : 
; 233  : 			break;

  00057	e9 b7 00 00 00	 jmp	 $LN2@get_local_
$LN6@get_local_:

; 234  : 		}
; 235  : 		////////////////////////////////////////
; 236  : 		case FLOAT_TYPE_EFFECT_LIFETIME:
; 237  : 		////////////////////////////////////////
; 238  : 		{
; 239  : 			value = raw->effect_lifetime;

  0005c	8b 45 fc	 mov	 eax, DWORD PTR _raw$[ebp]
  0005f	f3 0f 10 40 30	 movss	 xmm0, DWORD PTR [eax+48]
  00064	f3 0f 11 45 f8	 movss	 DWORD PTR _value$[ebp], xmm0

; 240  : 
; 241  : 			break;

  00069	e9 a5 00 00 00	 jmp	 $LN2@get_local_
$LN7@get_local_:

; 242  : 		}
; 243  : 		////////////////////////////////////////
; 244  : 		case FLOAT_TYPE_END_SCALE:
; 245  : 		////////////////////////////////////////
; 246  : 		{
; 247  : 			value = raw->end_scale;

  0006e	8b 45 fc	 mov	 eax, DWORD PTR _raw$[ebp]
  00071	f3 0f 10 40 3c	 movss	 xmm0, DWORD PTR [eax+60]
  00076	f3 0f 11 45 f8	 movss	 DWORD PTR _value$[ebp], xmm0

; 248  : 
; 249  : 			break;

  0007b	e9 93 00 00 00	 jmp	 $LN2@get_local_
$LN8@get_local_:

; 250  : 		}
; 251  : 		////////////////////////////////////////
; 252  : 		case FLOAT_TYPE_SPRITE_LIFETIME:
; 253  : 		////////////////////////////////////////
; 254  : 		{
; 255  : 			value = raw->sprite_lifetime;

  00080	8b 45 fc	 mov	 eax, DWORD PTR _raw$[ebp]
  00083	f3 0f 10 40 34	 movss	 xmm0, DWORD PTR [eax+52]
  00088	f3 0f 11 45 f8	 movss	 DWORD PTR _value$[ebp], xmm0

; 256  : 
; 257  : 			break;

  0008d	e9 81 00 00 00	 jmp	 $LN2@get_local_
$LN9@get_local_:

; 258  : 		}
; 259  : 		////////////////////////////////////////
; 260  : 		case FLOAT_TYPE_START_SCALE:
; 261  : 		////////////////////////////////////////
; 262  : 		{
; 263  : 			value = raw->start_scale;

  00092	8b 45 fc	 mov	 eax, DWORD PTR _raw$[ebp]
  00095	f3 0f 10 40 38	 movss	 xmm0, DWORD PTR [eax+56]
  0009a	f3 0f 11 45 f8	 movss	 DWORD PTR _value$[ebp], xmm0

; 264  : 
; 265  : 			break;

  0009f	eb 72		 jmp	 SHORT $LN2@get_local_
$LN10@get_local_:

; 266  : 		}
; 267  : 		////////////////////////////////////////
; 268  : 		default:
; 269  : 		////////////////////////////////////////
; 270  : 		{
; 271  : 			debug_fatal_invalid_float_type (en, type);

  000a1	83 7d 08 00	 cmp	 DWORD PTR _en$[ebp], 0
  000a5	74 0a		 je	 SHORT $LN12@get_local_
  000a7	8b 45 08	 mov	 eax, DWORD PTR _en$[ebp]
  000aa	8b 08		 mov	 ecx, DWORD PTR [eax]
  000ac	89 4d b4	 mov	 DWORD PTR tv88[ebp], ecx
  000af	eb 21		 jmp	 SHORT $LN13@get_local_
$LN12@get_local_:
  000b1	8b 15 00 00 00
	00		 mov	 edx, DWORD PTR ?__LINE__Var@?0??get_local_float_value@@YGMPAUENTITY@@W4FLOAT_TYPES@@@Z@4JA
  000b7	83 c2 3f	 add	 edx, 63			; 0000003fH
  000ba	52		 push	 edx
  000bb	68 00 00 00 00	 push	 OFFSET ??_C@_0FE@NPPDILBG@c?3?2users?2nhv90?2projects?2eech?2ap@
  000c0	a1 00 00 00 00	 mov	 eax, DWORD PTR ?null_entity_pointer_message@@3PBDB ; null_entity_pointer_message
  000c5	50		 push	 eax
  000c6	e8 00 00 00 00	 call	 ?process_assert@@YGXPBD0H@Z ; process_assert
  000cb	c7 45 b4 00 00
	00 00		 mov	 DWORD PTR tv88[ebp], 0
$LN13@get_local_:
  000d2	8b 0d 00 00 00
	00		 mov	 ecx, DWORD PTR ?__LINE__Var@?0??get_local_float_value@@YGMPAUENTITY@@W4FLOAT_TYPES@@@Z@4JA
  000d8	83 c1 3f	 add	 ecx, 63			; 0000003fH
  000db	51		 push	 ecx
  000dc	68 00 00 00 00	 push	 OFFSET ??_C@_0FE@NPPDILBG@c?3?2users?2nhv90?2projects?2eech?2ap@
  000e1	6b 55 0c 18	 imul	 edx, DWORD PTR _type$[ebp], 24
  000e5	8b 82 00 00 00
	00		 mov	 eax, DWORD PTR ?float_type_database@@3PAUFLOAT_TYPE_DATA@@A[edx]
  000eb	50		 push	 eax
  000ec	8b 4d 08	 mov	 ecx, DWORD PTR _en$[ebp]
  000ef	2b 0d 00 00 00
	00		 sub	 ecx, DWORD PTR ?entities@@3PAUENTITY@@A ; entities
  000f5	c1 f9 04	 sar	 ecx, 4
  000f8	51		 push	 ecx
  000f9	6b 55 b4 0c	 imul	 edx, DWORD PTR tv88[ebp], 12
  000fd	8b 82 00 00 00
	00		 mov	 eax, DWORD PTR ?entity_type_database@@3PAUENTITY_TYPE_DATA@@A[edx]
  00103	50		 push	 eax
  00104	8b 0d 00 00 00
	00		 mov	 ecx, DWORD PTR ?debug_fatal_invalid_float_type_message@@3PBDB ; debug_fatal_invalid_float_type_message
  0010a	51		 push	 ecx
  0010b	e8 00 00 00 00	 call	 ?debug_fatal@@YAXPBDZZ	; debug_fatal
  00110	83 c4 18	 add	 esp, 24			; 00000018H
$LN2@get_local_:

; 272  : 
; 273  : 			break;
; 274  : 		}
; 275  : 	}
; 276  : 
; 277  : 	return (value);

  00113	d9 45 f8	 fld	 DWORD PTR _value$[ebp]

; 278  : }

  00116	5f		 pop	 edi
  00117	5e		 pop	 esi
  00118	5b		 pop	 ebx
  00119	8b e5		 mov	 esp, ebp
  0011b	5d		 pop	 ebp
  0011c	c2 08 00	 ret	 8
  0011f	90		 npad	 1
$LN15@get_local_:
  00120	00 00 00 00	 DD	 $LN4@get_local_
  00124	00 00 00 00	 DD	 $LN6@get_local_
  00128	00 00 00 00	 DD	 $LN7@get_local_
  0012c	00 00 00 00	 DD	 $LN5@get_local_
  00130	00 00 00 00	 DD	 $LN8@get_local_
  00134	00 00 00 00	 DD	 $LN9@get_local_
  00138	00 00 00 00	 DD	 $LN10@get_local_
$LN14@get_local_:
  0013c	00		 DB	 0
  0013d	06		 DB	 6
  0013e	06		 DB	 6
  0013f	06		 DB	 6
  00140	06		 DB	 6
  00141	06		 DB	 6
  00142	06		 DB	 6
  00143	06		 DB	 6
  00144	06		 DB	 6
  00145	06		 DB	 6
  00146	06		 DB	 6
  00147	06		 DB	 6
  00148	06		 DB	 6
  00149	06		 DB	 6
  0014a	06		 DB	 6
  0014b	06		 DB	 6
  0014c	06		 DB	 6
  0014d	06		 DB	 6
  0014e	06		 DB	 6
  0014f	06		 DB	 6
  00150	06		 DB	 6
  00151	01		 DB	 1
  00152	06		 DB	 6
  00153	06		 DB	 6
  00154	06		 DB	 6
  00155	02		 DB	 2
  00156	06		 DB	 6
  00157	06		 DB	 6
  00158	06		 DB	 6
  00159	06		 DB	 6
  0015a	06		 DB	 6
  0015b	06		 DB	 6
  0015c	06		 DB	 6
  0015d	06		 DB	 6
  0015e	06		 DB	 6
  0015f	06		 DB	 6
  00160	06		 DB	 6
  00161	06		 DB	 6
  00162	06		 DB	 6
  00163	06		 DB	 6
  00164	06		 DB	 6
  00165	06		 DB	 6
  00166	06		 DB	 6
  00167	06		 DB	 6
  00168	06		 DB	 6
  00169	06		 DB	 6
  0016a	06		 DB	 6
  0016b	06		 DB	 6
  0016c	06		 DB	 6
  0016d	06		 DB	 6
  0016e	06		 DB	 6
  0016f	06		 DB	 6
  00170	06		 DB	 6
  00171	06		 DB	 6
  00172	06		 DB	 6
  00173	06		 DB	 6
  00174	06		 DB	 6
  00175	06		 DB	 6
  00176	06		 DB	 6
  00177	06		 DB	 6
  00178	06		 DB	 6
  00179	06		 DB	 6
  0017a	06		 DB	 6
  0017b	06		 DB	 6
  0017c	06		 DB	 6
  0017d	06		 DB	 6
  0017e	03		 DB	 3
  0017f	06		 DB	 6
  00180	06		 DB	 6
  00181	06		 DB	 6
  00182	06		 DB	 6
  00183	06		 DB	 6
  00184	06		 DB	 6
  00185	06		 DB	 6
  00186	06		 DB	 6
  00187	06		 DB	 6
  00188	06		 DB	 6
  00189	06		 DB	 6
  0018a	06		 DB	 6
  0018b	06		 DB	 6
  0018c	06		 DB	 6
  0018d	06		 DB	 6
  0018e	06		 DB	 6
  0018f	06		 DB	 6
  00190	06		 DB	 6
  00191	06		 DB	 6
  00192	06		 DB	 6
  00193	06		 DB	 6
  00194	06		 DB	 6
  00195	06		 DB	 6
  00196	06		 DB	 6
  00197	06		 DB	 6
  00198	06		 DB	 6
  00199	06		 DB	 6
  0019a	06		 DB	 6
  0019b	06		 DB	 6
  0019c	06		 DB	 6
  0019d	06		 DB	 6
  0019e	06		 DB	 6
  0019f	06		 DB	 6
  001a0	06		 DB	 6
  001a1	06		 DB	 6
  001a2	06		 DB	 6
  001a3	06		 DB	 6
  001a4	06		 DB	 6
  001a5	06		 DB	 6
  001a6	06		 DB	 6
  001a7	06		 DB	 6
  001a8	06		 DB	 6
  001a9	06		 DB	 6
  001aa	06		 DB	 6
  001ab	06		 DB	 6
  001ac	04		 DB	 4
  001ad	05		 DB	 5
?get_local_float_value@@YGMPAUENTITY@@W4FLOAT_TYPES@@@Z ENDP ; get_local_float_value
_TEXT	ENDS
; Function compile flags: /Odtp /ZI
; File c:\users\nhv90\projects\eech\aphavoc\source\entity\special\effect\sprite\sp_float.c
;	COMDAT ?set_client_float_value@@YGXPAUENTITY@@W4FLOAT_TYPES@@M@Z
_TEXT	SEGMENT
_en$ = 8						; size = 4
_type$ = 12						; size = 4
_value$ = 16						; size = 4
?set_client_float_value@@YGXPAUENTITY@@W4FLOAT_TYPES@@M@Z PROC ; set_client_float_value, COMDAT

; 188  : {

  00000	55		 push	 ebp
  00001	8b ec		 mov	 ebp, esp
  00003	83 ec 40	 sub	 esp, 64			; 00000040H
  00006	53		 push	 ebx
  00007	56		 push	 esi
  00008	57		 push	 edi

; 189  : 	if (get_comms_data_flow () == COMMS_DATA_FLOW_TX)

  00009	83 3d 00 00 00
	00 00		 cmp	 DWORD PTR ?system_comms_data_flow@@3W4COMMS_DATA_FLOW_TYPES@@A, 0 ; system_comms_data_flow
  00010	75 3b		 jne	 SHORT $LN2@set_client

; 190  : 	{
; 191  : 		validate_client_server_remote_fn ();

  00012	e8 00 00 00 00	 call	 ?assert_client_server_remote_fn@@YGHXZ ; assert_client_server_remote_fn
  00017	85 c0		 test	 eax, eax
  00019	75 18		 jne	 SHORT $LN4@set_client
  0001b	a1 00 00 00 00	 mov	 eax, DWORD PTR ?__LINE__Var@?0??set_client_float_value@@YGXPAUENTITY@@W4FLOAT_TYPES@@M@Z@4JA
  00020	83 c0 03	 add	 eax, 3
  00023	50		 push	 eax
  00024	68 00 00 00 00	 push	 OFFSET ??_C@_0FE@NPPDILBG@c?3?2users?2nhv90?2projects?2eech?2ap@
  00029	68 00 00 00 00	 push	 OFFSET ??_C@_0CC@BNNNEGEG@assert_client_server_remote_fn?5@
  0002e	e8 00 00 00 00	 call	 ?process_assert@@YGXPBD0H@Z ; process_assert
$LN4@set_client:

; 192  : 
; 193  : 		set_remote_float_value (en, type, value);

  00033	51		 push	 ecx
  00034	f3 0f 10 45 10	 movss	 xmm0, DWORD PTR _value$[ebp]
  00039	f3 0f 11 04 24	 movss	 DWORD PTR [esp], xmm0
  0003e	8b 45 0c	 mov	 eax, DWORD PTR _type$[ebp]
  00041	50		 push	 eax
  00042	8b 4d 08	 mov	 ecx, DWORD PTR _en$[ebp]
  00045	51		 push	 ecx
  00046	e8 00 00 00 00	 call	 ?set_remote_float_value@@YGXPAUENTITY@@W4FLOAT_TYPES@@M@Z ; set_remote_float_value

; 194  : 	}
; 195  : 	else

  0004b	eb 39		 jmp	 SHORT $LN3@set_client
$LN2@set_client:

; 196  : 	{
; 197  : 		validate_client_server_local_fn ();

  0004d	e8 00 00 00 00	 call	 ?assert_client_server_local_fn@@YGHXZ ; assert_client_server_local_fn
  00052	85 c0		 test	 eax, eax
  00054	75 18		 jne	 SHORT $LN5@set_client
  00056	a1 00 00 00 00	 mov	 eax, DWORD PTR ?__LINE__Var@?0??set_client_float_value@@YGXPAUENTITY@@W4FLOAT_TYPES@@M@Z@4JA
  0005b	83 c0 09	 add	 eax, 9
  0005e	50		 push	 eax
  0005f	68 00 00 00 00	 push	 OFFSET ??_C@_0FE@NPPDILBG@c?3?2users?2nhv90?2projects?2eech?2ap@
  00064	68 00 00 00 00	 push	 OFFSET ??_C@_0CB@CFOCLFOK@assert_client_server_local_fn?5?$CI@
  00069	e8 00 00 00 00	 call	 ?process_assert@@YGXPBD0H@Z ; process_assert
$LN5@set_client:

; 198  : 
; 199  : 		set_local_float_value (en, type, value);

  0006e	51		 push	 ecx
  0006f	f3 0f 10 45 10	 movss	 xmm0, DWORD PTR _value$[ebp]
  00074	f3 0f 11 04 24	 movss	 DWORD PTR [esp], xmm0
  00079	8b 45 0c	 mov	 eax, DWORD PTR _type$[ebp]
  0007c	50		 push	 eax
  0007d	8b 4d 08	 mov	 ecx, DWORD PTR _en$[ebp]
  00080	51		 push	 ecx
  00081	e8 00 00 00 00	 call	 ?set_local_float_value@@YGXPAUENTITY@@W4FLOAT_TYPES@@M@Z ; set_local_float_value
$LN3@set_client:

; 200  : 	}
; 201  : }

  00086	5f		 pop	 edi
  00087	5e		 pop	 esi
  00088	5b		 pop	 ebx
  00089	8b e5		 mov	 esp, ebp
  0008b	5d		 pop	 ebp
  0008c	c2 0c 00	 ret	 12			; 0000000cH
?set_client_float_value@@YGXPAUENTITY@@W4FLOAT_TYPES@@M@Z ENDP ; set_client_float_value
_TEXT	ENDS
; Function compile flags: /Odtp /ZI
; File c:\users\nhv90\projects\eech\aphavoc\source\entity\special\effect\sprite\sp_float.c
;	COMDAT ?set_server_float_value@@YGXPAUENTITY@@W4FLOAT_TYPES@@M@Z
_TEXT	SEGMENT
_en$ = 8						; size = 4
_type$ = 12						; size = 4
_value$ = 16						; size = 4
?set_server_float_value@@YGXPAUENTITY@@W4FLOAT_TYPES@@M@Z PROC ; set_server_float_value, COMDAT

; 173  : {

  00000	55		 push	 ebp
  00001	8b ec		 mov	 ebp, esp
  00003	83 ec 40	 sub	 esp, 64			; 00000040H
  00006	53		 push	 ebx
  00007	56		 push	 esi
  00008	57		 push	 edi

; 174  : 	validate_client_server_local_fn ();

  00009	e8 00 00 00 00	 call	 ?assert_client_server_local_fn@@YGHXZ ; assert_client_server_local_fn
  0000e	85 c0		 test	 eax, eax
  00010	75 18		 jne	 SHORT $LN2@set_server
  00012	a1 00 00 00 00	 mov	 eax, DWORD PTR ?__LINE__Var@?0??set_server_float_value@@YGXPAUENTITY@@W4FLOAT_TYPES@@M@Z@4JA
  00017	83 c0 01	 add	 eax, 1
  0001a	50		 push	 eax
  0001b	68 00 00 00 00	 push	 OFFSET ??_C@_0FE@NPPDILBG@c?3?2users?2nhv90?2projects?2eech?2ap@
  00020	68 00 00 00 00	 push	 OFFSET ??_C@_0CB@CFOCLFOK@assert_client_server_local_fn?5?$CI@
  00025	e8 00 00 00 00	 call	 ?process_assert@@YGXPBD0H@Z ; process_assert
$LN2@set_server:

; 175  : 
; 176  : 	set_local_float_value (en, type, value);

  0002a	51		 push	 ecx
  0002b	f3 0f 10 45 10	 movss	 xmm0, DWORD PTR _value$[ebp]
  00030	f3 0f 11 04 24	 movss	 DWORD PTR [esp], xmm0
  00035	8b 45 0c	 mov	 eax, DWORD PTR _type$[ebp]
  00038	50		 push	 eax
  00039	8b 4d 08	 mov	 ecx, DWORD PTR _en$[ebp]
  0003c	51		 push	 ecx
  0003d	e8 00 00 00 00	 call	 ?set_local_float_value@@YGXPAUENTITY@@W4FLOAT_TYPES@@M@Z ; set_local_float_value

; 177  : 
; 178  : 	validate_client_server_remote_fn ();

  00042	e8 00 00 00 00	 call	 ?assert_client_server_remote_fn@@YGHXZ ; assert_client_server_remote_fn
  00047	85 c0		 test	 eax, eax
  00049	75 18		 jne	 SHORT $LN3@set_server
  0004b	a1 00 00 00 00	 mov	 eax, DWORD PTR ?__LINE__Var@?0??set_server_float_value@@YGXPAUENTITY@@W4FLOAT_TYPES@@M@Z@4JA
  00050	83 c0 05	 add	 eax, 5
  00053	50		 push	 eax
  00054	68 00 00 00 00	 push	 OFFSET ??_C@_0FE@NPPDILBG@c?3?2users?2nhv90?2projects?2eech?2ap@
  00059	68 00 00 00 00	 push	 OFFSET ??_C@_0CC@BNNNEGEG@assert_client_server_remote_fn?5@
  0005e	e8 00 00 00 00	 call	 ?process_assert@@YGXPBD0H@Z ; process_assert
$LN3@set_server:

; 179  : 
; 180  : 	set_remote_float_value (en, type, value);

  00063	51		 push	 ecx
  00064	f3 0f 10 45 10	 movss	 xmm0, DWORD PTR _value$[ebp]
  00069	f3 0f 11 04 24	 movss	 DWORD PTR [esp], xmm0
  0006e	8b 45 0c	 mov	 eax, DWORD PTR _type$[ebp]
  00071	50		 push	 eax
  00072	8b 4d 08	 mov	 ecx, DWORD PTR _en$[ebp]
  00075	51		 push	 ecx
  00076	e8 00 00 00 00	 call	 ?set_remote_float_value@@YGXPAUENTITY@@W4FLOAT_TYPES@@M@Z ; set_remote_float_value

; 181  : }

  0007b	5f		 pop	 edi
  0007c	5e		 pop	 esi
  0007d	5b		 pop	 ebx
  0007e	8b e5		 mov	 esp, ebp
  00080	5d		 pop	 ebp
  00081	c2 0c 00	 ret	 12			; 0000000cH
?set_server_float_value@@YGXPAUENTITY@@W4FLOAT_TYPES@@M@Z ENDP ; set_server_float_value
_TEXT	ENDS
; Function compile flags: /Odtp /ZI
; File c:\users\nhv90\projects\eech\aphavoc\source\entity\special\effect\sprite\sp_float.c
;	COMDAT ?set_remote_float_value@@YGXPAUENTITY@@W4FLOAT_TYPES@@M@Z
_TEXT	SEGMENT
_en$ = 8						; size = 4
_type$ = 12						; size = 4
_value$ = 16						; size = 4
?set_remote_float_value@@YGXPAUENTITY@@W4FLOAT_TYPES@@M@Z PROC ; set_remote_float_value, COMDAT

; 158  : {

  00000	55		 push	 ebp
  00001	8b ec		 mov	 ebp, esp
  00003	83 ec 40	 sub	 esp, 64			; 00000040H
  00006	53		 push	 ebx
  00007	56		 push	 esi
  00008	57		 push	 edi

; 159  : 	#if DEBUG_MODULE
; 160  : 
; 161  : 	debug_log_entity_args (ENTITY_DEBUG_REMOTE, ENTITY_DEBUG_FLOAT_VALUE, en, type, value);
; 162  : 
; 163  : 	#endif
; 164  : 
; 165  : 	transmit_entity_comms_message (ENTITY_COMMS_FLOAT_VALUE, en, type, value);

  00009	f3 0f 5a 45 10	 cvtss2sd xmm0, DWORD PTR _value$[ebp]
  0000e	83 ec 08	 sub	 esp, 8
  00011	f2 0f 11 04 24	 movsd	 QWORD PTR [esp], xmm0
  00016	8b 45 0c	 mov	 eax, DWORD PTR _type$[ebp]
  00019	50		 push	 eax
  0001a	8b 4d 08	 mov	 ecx, DWORD PTR _en$[ebp]
  0001d	51		 push	 ecx
  0001e	6a 16		 push	 22			; 00000016H
  00020	e8 00 00 00 00	 call	 ?transmit_entity_comms_message@@YAXW4ENTITY_COMMS_MESSAGES@@PAUENTITY@@ZZ ; transmit_entity_comms_message
  00025	83 c4 14	 add	 esp, 20			; 00000014H

; 166  : }

  00028	5f		 pop	 edi
  00029	5e		 pop	 esi
  0002a	5b		 pop	 ebx
  0002b	8b e5		 mov	 esp, ebp
  0002d	5d		 pop	 ebp
  0002e	c2 0c 00	 ret	 12			; 0000000cH
?set_remote_float_value@@YGXPAUENTITY@@W4FLOAT_TYPES@@M@Z ENDP ; set_remote_float_value
_TEXT	ENDS
; Function compile flags: /Odtp /ZI
; File c:\users\nhv90\projects\eech\aphavoc\source\entity\special\effect\sprite\sp_float.c
;	COMDAT ?set_local_float_value@@YGXPAUENTITY@@W4FLOAT_TYPES@@M@Z
_TEXT	SEGMENT
tv88 = -72						; size = 4
tv65 = -72						; size = 4
_raw$ = -4						; size = 4
_en$ = 8						; size = 4
_type$ = 12						; size = 4
_value$ = 16						; size = 4
?set_local_float_value@@YGXPAUENTITY@@W4FLOAT_TYPES@@M@Z PROC ; set_local_float_value, COMDAT

; 80   : {

  00000	55		 push	 ebp
  00001	8b ec		 mov	 ebp, esp
  00003	83 ec 48	 sub	 esp, 72			; 00000048H
  00006	53		 push	 ebx
  00007	56		 push	 esi
  00008	57		 push	 edi

; 81   : 	sprite
; 82   : 		*raw;
; 83   : 
; 84   : 	#if DEBUG_MODULE
; 85   : 
; 86   : 	debug_log_entity_args (ENTITY_DEBUG_LOCAL, ENTITY_DEBUG_FLOAT_VALUE, en, type, value);
; 87   : 
; 88   : 	#endif
; 89   : 
; 90   : 	raw = (sprite *) get_local_entity_data (en);

  00009	8b 45 08	 mov	 eax, DWORD PTR _en$[ebp]
  0000c	8b 48 04	 mov	 ecx, DWORD PTR [eax+4]
  0000f	89 4d fc	 mov	 DWORD PTR _raw$[ebp], ecx

; 91   : 
; 92   : 	switch (type)

  00012	8b 45 0c	 mov	 eax, DWORD PTR _type$[ebp]
  00015	89 45 b8	 mov	 DWORD PTR tv65[ebp], eax
  00018	8b 4d b8	 mov	 ecx, DWORD PTR tv65[ebp]
  0001b	83 e9 0b	 sub	 ecx, 11			; 0000000bH
  0001e	89 4d b8	 mov	 DWORD PTR tv65[ebp], ecx
  00021	83 7d b8 71	 cmp	 DWORD PTR tv65[ebp], 113 ; 00000071H
  00025	77 7a		 ja	 SHORT $LN10@set_local_
  00027	8b 55 b8	 mov	 edx, DWORD PTR tv65[ebp]
  0002a	0f b6 82 00 00
	00 00		 movzx	 eax, BYTE PTR $LN14@set_local_[edx]
  00031	ff 24 85 00 00
	00 00		 jmp	 DWORD PTR $LN15@set_local_[eax*4]
$LN4@set_local_:

; 93   : 	{
; 94   : 		////////////////////////////////////////
; 95   : 		case FLOAT_TYPE_ANIMATION_FREQUENCY:
; 96   : 		////////////////////////////////////////
; 97   : 		{
; 98   : 			raw->animation_frequency = value;

  00038	8b 45 fc	 mov	 eax, DWORD PTR _raw$[ebp]
  0003b	f3 0f 10 45 10	 movss	 xmm0, DWORD PTR _value$[ebp]
  00040	f3 0f 11 40 28	 movss	 DWORD PTR [eax+40], xmm0

; 99   : 
; 100  : 			break;

  00045	e9 c9 00 00 00	 jmp	 $LN2@set_local_
$LN5@set_local_:

; 101  : 		}
; 102  : 		////////////////////////////////////////
; 103  : 		case FLOAT_TYPE_MAX_TURN_RATE:
; 104  : 		////////////////////////////////////////
; 105  : 		{
; 106  : 			raw->rotation_rate = value;

  0004a	8b 45 fc	 mov	 eax, DWORD PTR _raw$[ebp]
  0004d	f3 0f 10 45 10	 movss	 xmm0, DWORD PTR _value$[ebp]
  00052	f3 0f 11 40 2c	 movss	 DWORD PTR [eax+44], xmm0

; 107  : 
; 108  : 			break;

  00057	e9 b7 00 00 00	 jmp	 $LN2@set_local_
$LN6@set_local_:

; 109  : 		}
; 110  : 		////////////////////////////////////////
; 111  : 		case FLOAT_TYPE_EFFECT_LIFETIME:
; 112  : 		////////////////////////////////////////
; 113  : 		{
; 114  : 			raw->effect_lifetime = value;

  0005c	8b 45 fc	 mov	 eax, DWORD PTR _raw$[ebp]
  0005f	f3 0f 10 45 10	 movss	 xmm0, DWORD PTR _value$[ebp]
  00064	f3 0f 11 40 30	 movss	 DWORD PTR [eax+48], xmm0

; 115  : 
; 116  : 			break;

  00069	e9 a5 00 00 00	 jmp	 $LN2@set_local_
$LN7@set_local_:

; 117  : 		}
; 118  : 		////////////////////////////////////////
; 119  : 		case FLOAT_TYPE_END_SCALE:
; 120  : 		////////////////////////////////////////
; 121  : 		{
; 122  : 			raw->end_scale = value;

  0006e	8b 45 fc	 mov	 eax, DWORD PTR _raw$[ebp]
  00071	f3 0f 10 45 10	 movss	 xmm0, DWORD PTR _value$[ebp]
  00076	f3 0f 11 40 3c	 movss	 DWORD PTR [eax+60], xmm0

; 123  : 
; 124  : 			break;

  0007b	e9 93 00 00 00	 jmp	 $LN2@set_local_
$LN8@set_local_:

; 125  : 		}
; 126  : 		////////////////////////////////////////
; 127  : 		case FLOAT_TYPE_SPRITE_LIFETIME:
; 128  : 		////////////////////////////////////////
; 129  : 		{
; 130  : 			raw->sprite_lifetime = value;

  00080	8b 45 fc	 mov	 eax, DWORD PTR _raw$[ebp]
  00083	f3 0f 10 45 10	 movss	 xmm0, DWORD PTR _value$[ebp]
  00088	f3 0f 11 40 34	 movss	 DWORD PTR [eax+52], xmm0

; 131  : 
; 132  : 			break;

  0008d	e9 81 00 00 00	 jmp	 $LN2@set_local_
$LN9@set_local_:

; 133  : 		}
; 134  : 		////////////////////////////////////////
; 135  : 		case FLOAT_TYPE_START_SCALE:
; 136  : 		////////////////////////////////////////
; 137  : 		{
; 138  : 			raw->start_scale = value;

  00092	8b 45 fc	 mov	 eax, DWORD PTR _raw$[ebp]
  00095	f3 0f 10 45 10	 movss	 xmm0, DWORD PTR _value$[ebp]
  0009a	f3 0f 11 40 38	 movss	 DWORD PTR [eax+56], xmm0

; 139  : 
; 140  : 			break;

  0009f	eb 72		 jmp	 SHORT $LN2@set_local_
$LN10@set_local_:

; 141  : 		}
; 142  : 		////////////////////////////////////////
; 143  : 		default:
; 144  : 		////////////////////////////////////////
; 145  : 		{
; 146  : 			debug_fatal_invalid_float_type (en, type);

  000a1	83 7d 08 00	 cmp	 DWORD PTR _en$[ebp], 0
  000a5	74 0a		 je	 SHORT $LN12@set_local_
  000a7	8b 45 08	 mov	 eax, DWORD PTR _en$[ebp]
  000aa	8b 08		 mov	 ecx, DWORD PTR [eax]
  000ac	89 4d b8	 mov	 DWORD PTR tv88[ebp], ecx
  000af	eb 21		 jmp	 SHORT $LN13@set_local_
$LN12@set_local_:
  000b1	8b 15 00 00 00
	00		 mov	 edx, DWORD PTR ?__LINE__Var@?0??set_local_float_value@@YGXPAUENTITY@@W4FLOAT_TYPES@@M@Z@4JA
  000b7	83 c2 42	 add	 edx, 66			; 00000042H
  000ba	52		 push	 edx
  000bb	68 00 00 00 00	 push	 OFFSET ??_C@_0FE@NPPDILBG@c?3?2users?2nhv90?2projects?2eech?2ap@
  000c0	a1 00 00 00 00	 mov	 eax, DWORD PTR ?null_entity_pointer_message@@3PBDB ; null_entity_pointer_message
  000c5	50		 push	 eax
  000c6	e8 00 00 00 00	 call	 ?process_assert@@YGXPBD0H@Z ; process_assert
  000cb	c7 45 b8 00 00
	00 00		 mov	 DWORD PTR tv88[ebp], 0
$LN13@set_local_:
  000d2	8b 0d 00 00 00
	00		 mov	 ecx, DWORD PTR ?__LINE__Var@?0??set_local_float_value@@YGXPAUENTITY@@W4FLOAT_TYPES@@M@Z@4JA
  000d8	83 c1 42	 add	 ecx, 66			; 00000042H
  000db	51		 push	 ecx
  000dc	68 00 00 00 00	 push	 OFFSET ??_C@_0FE@NPPDILBG@c?3?2users?2nhv90?2projects?2eech?2ap@
  000e1	6b 55 0c 18	 imul	 edx, DWORD PTR _type$[ebp], 24
  000e5	8b 82 00 00 00
	00		 mov	 eax, DWORD PTR ?float_type_database@@3PAUFLOAT_TYPE_DATA@@A[edx]
  000eb	50		 push	 eax
  000ec	8b 4d 08	 mov	 ecx, DWORD PTR _en$[ebp]
  000ef	2b 0d 00 00 00
	00		 sub	 ecx, DWORD PTR ?entities@@3PAUENTITY@@A ; entities
  000f5	c1 f9 04	 sar	 ecx, 4
  000f8	51		 push	 ecx
  000f9	6b 55 b8 0c	 imul	 edx, DWORD PTR tv88[ebp], 12
  000fd	8b 82 00 00 00
	00		 mov	 eax, DWORD PTR ?entity_type_database@@3PAUENTITY_TYPE_DATA@@A[edx]
  00103	50		 push	 eax
  00104	8b 0d 00 00 00
	00		 mov	 ecx, DWORD PTR ?debug_fatal_invalid_float_type_message@@3PBDB ; debug_fatal_invalid_float_type_message
  0010a	51		 push	 ecx
  0010b	e8 00 00 00 00	 call	 ?debug_fatal@@YAXPBDZZ	; debug_fatal
  00110	83 c4 18	 add	 esp, 24			; 00000018H
$LN2@set_local_:

; 147  : 
; 148  : 			break;
; 149  : 		}
; 150  : 	}
; 151  : }

  00113	5f		 pop	 edi
  00114	5e		 pop	 esi
  00115	5b		 pop	 ebx
  00116	8b e5		 mov	 esp, ebp
  00118	5d		 pop	 ebp
  00119	c2 0c 00	 ret	 12			; 0000000cH
$LN15@set_local_:
  0011c	00 00 00 00	 DD	 $LN4@set_local_
  00120	00 00 00 00	 DD	 $LN6@set_local_
  00124	00 00 00 00	 DD	 $LN7@set_local_
  00128	00 00 00 00	 DD	 $LN5@set_local_
  0012c	00 00 00 00	 DD	 $LN8@set_local_
  00130	00 00 00 00	 DD	 $LN9@set_local_
  00134	00 00 00 00	 DD	 $LN10@set_local_
$LN14@set_local_:
  00138	00		 DB	 0
  00139	06		 DB	 6
  0013a	06		 DB	 6
  0013b	06		 DB	 6
  0013c	06		 DB	 6
  0013d	06		 DB	 6
  0013e	06		 DB	 6
  0013f	06		 DB	 6
  00140	06		 DB	 6
  00141	06		 DB	 6
  00142	06		 DB	 6
  00143	06		 DB	 6
  00144	06		 DB	 6
  00145	06		 DB	 6
  00146	06		 DB	 6
  00147	06		 DB	 6
  00148	06		 DB	 6
  00149	06		 DB	 6
  0014a	06		 DB	 6
  0014b	06		 DB	 6
  0014c	06		 DB	 6
  0014d	01		 DB	 1
  0014e	06		 DB	 6
  0014f	06		 DB	 6
  00150	06		 DB	 6
  00151	02		 DB	 2
  00152	06		 DB	 6
  00153	06		 DB	 6
  00154	06		 DB	 6
  00155	06		 DB	 6
  00156	06		 DB	 6
  00157	06		 DB	 6
  00158	06		 DB	 6
  00159	06		 DB	 6
  0015a	06		 DB	 6
  0015b	06		 DB	 6
  0015c	06		 DB	 6
  0015d	06		 DB	 6
  0015e	06		 DB	 6
  0015f	06		 DB	 6
  00160	06		 DB	 6
  00161	06		 DB	 6
  00162	06		 DB	 6
  00163	06		 DB	 6
  00164	06		 DB	 6
  00165	06		 DB	 6
  00166	06		 DB	 6
  00167	06		 DB	 6
  00168	06		 DB	 6
  00169	06		 DB	 6
  0016a	06		 DB	 6
  0016b	06		 DB	 6
  0016c	06		 DB	 6
  0016d	06		 DB	 6
  0016e	06		 DB	 6
  0016f	06		 DB	 6
  00170	06		 DB	 6
  00171	06		 DB	 6
  00172	06		 DB	 6
  00173	06		 DB	 6
  00174	06		 DB	 6
  00175	06		 DB	 6
  00176	06		 DB	 6
  00177	06		 DB	 6
  00178	06		 DB	 6
  00179	06		 DB	 6
  0017a	03		 DB	 3
  0017b	06		 DB	 6
  0017c	06		 DB	 6
  0017d	06		 DB	 6
  0017e	06		 DB	 6
  0017f	06		 DB	 6
  00180	06		 DB	 6
  00181	06		 DB	 6
  00182	06		 DB	 6
  00183	06		 DB	 6
  00184	06		 DB	 6
  00185	06		 DB	 6
  00186	06		 DB	 6
  00187	06		 DB	 6
  00188	06		 DB	 6
  00189	06		 DB	 6
  0018a	06		 DB	 6
  0018b	06		 DB	 6
  0018c	06		 DB	 6
  0018d	06		 DB	 6
  0018e	06		 DB	 6
  0018f	06		 DB	 6
  00190	06		 DB	 6
  00191	06		 DB	 6
  00192	06		 DB	 6
  00193	06		 DB	 6
  00194	06		 DB	 6
  00195	06		 DB	 6
  00196	06		 DB	 6
  00197	06		 DB	 6
  00198	06		 DB	 6
  00199	06		 DB	 6
  0019a	06		 DB	 6
  0019b	06		 DB	 6
  0019c	06		 DB	 6
  0019d	06		 DB	 6
  0019e	06		 DB	 6
  0019f	06		 DB	 6
  001a0	06		 DB	 6
  001a1	06		 DB	 6
  001a2	06		 DB	 6
  001a3	06		 DB	 6
  001a4	06		 DB	 6
  001a5	06		 DB	 6
  001a6	06		 DB	 6
  001a7	06		 DB	 6
  001a8	04		 DB	 4
  001a9	05		 DB	 5
?set_local_float_value@@YGXPAUENTITY@@W4FLOAT_TYPES@@M@Z ENDP ; set_local_float_value
_TEXT	ENDS
; Function compile flags: /Odtp /ZI
; File c:\users\nhv90\projects\eech\aphavoc\source\entity\special\effect\sprite\sp_float.c
;	COMDAT ?overload_sprite_float_value_functions@@YGXXZ
_TEXT	SEGMENT
?overload_sprite_float_value_functions@@YGXXZ PROC	; overload_sprite_float_value_functions, COMDAT

; 285  : {

  00000	55		 push	 ebp
  00001	8b ec		 mov	 ebp, esp
  00003	83 ec 40	 sub	 esp, 64			; 00000040H
  00006	53		 push	 ebx
  00007	56		 push	 esi
  00008	57		 push	 edi

; 286  : 	fn_set_local_entity_raw_float_value			[ENTITY_TYPE_SPRITE][FLOAT_TYPE_ANIMATION_FREQUENCY]								= set_local_float_value;

  00009	b8 bc 02 00 00	 mov	 eax, 700		; 000002bcH
  0000e	6b c8 21	 imul	 ecx, eax, 33
  00011	ba 04 00 00 00	 mov	 edx, 4
  00016	6b c2 0b	 imul	 eax, edx, 11
  00019	c7 84 01 00 00
	00 00 00 00 00
	00		 mov	 DWORD PTR ?fn_set_local_entity_raw_float_value@@3PAY0KP@P6GXPAUENTITY@@W4FLOAT_TYPES@@M@ZA[ecx+eax], OFFSET ?set_local_float_value@@YGXPAUENTITY@@W4FLOAT_TYPES@@M@Z ; set_local_float_value

; 287  : 	fn_set_local_entity_float_value				[ENTITY_TYPE_SPRITE][FLOAT_TYPE_ANIMATION_FREQUENCY]								= set_local_float_value;

  00024	b8 bc 02 00 00	 mov	 eax, 700		; 000002bcH
  00029	6b c8 21	 imul	 ecx, eax, 33
  0002c	ba 04 00 00 00	 mov	 edx, 4
  00031	6b c2 0b	 imul	 eax, edx, 11
  00034	c7 84 01 00 00
	00 00 00 00 00
	00		 mov	 DWORD PTR ?fn_set_local_entity_float_value@@3PAY0KP@P6GXPAUENTITY@@W4FLOAT_TYPES@@M@ZA[ecx+eax], OFFSET ?set_local_float_value@@YGXPAUENTITY@@W4FLOAT_TYPES@@M@Z ; set_local_float_value

; 288  : 	fn_set_client_server_entity_float_value	[ENTITY_TYPE_SPRITE][FLOAT_TYPE_ANIMATION_FREQUENCY][COMMS_MODEL_SERVER]	= set_server_float_value;

  0003f	b8 78 05 00 00	 mov	 eax, 1400		; 00000578H
  00044	6b c8 21	 imul	 ecx, eax, 33
  00047	ba 08 00 00 00	 mov	 edx, 8
  0004c	6b c2 0b	 imul	 eax, edx, 11
  0004f	8d 8c 01 00 00
	00 00		 lea	 ecx, DWORD PTR ?fn_set_client_server_entity_float_value@@3PAY1KP@1P6GXPAUENTITY@@W4FLOAT_TYPES@@M@ZA[ecx+eax]
  00056	ba 04 00 00 00	 mov	 edx, 4
  0005b	6b c2 00	 imul	 eax, edx, 0
  0005e	c7 04 01 00 00
	00 00		 mov	 DWORD PTR [ecx+eax], OFFSET ?set_server_float_value@@YGXPAUENTITY@@W4FLOAT_TYPES@@M@Z ; set_server_float_value

; 289  : 	fn_set_client_server_entity_float_value	[ENTITY_TYPE_SPRITE][FLOAT_TYPE_ANIMATION_FREQUENCY][COMMS_MODEL_CLIENT]	= set_client_float_value;

  00065	b8 78 05 00 00	 mov	 eax, 1400		; 00000578H
  0006a	6b c8 21	 imul	 ecx, eax, 33
  0006d	ba 08 00 00 00	 mov	 edx, 8
  00072	6b c2 0b	 imul	 eax, edx, 11
  00075	8d 8c 01 00 00
	00 00		 lea	 ecx, DWORD PTR ?fn_set_client_server_entity_float_value@@3PAY1KP@1P6GXPAUENTITY@@W4FLOAT_TYPES@@M@ZA[ecx+eax]
  0007c	ba 04 00 00 00	 mov	 edx, 4
  00081	c1 e2 00	 shl	 edx, 0
  00084	c7 04 11 00 00
	00 00		 mov	 DWORD PTR [ecx+edx], OFFSET ?set_client_float_value@@YGXPAUENTITY@@W4FLOAT_TYPES@@M@Z ; set_client_float_value

; 290  : 	fn_get_local_entity_float_value				[ENTITY_TYPE_SPRITE][FLOAT_TYPE_ANIMATION_FREQUENCY]								= get_local_float_value;

  0008b	b8 bc 02 00 00	 mov	 eax, 700		; 000002bcH
  00090	6b c8 21	 imul	 ecx, eax, 33
  00093	ba 04 00 00 00	 mov	 edx, 4
  00098	6b c2 0b	 imul	 eax, edx, 11
  0009b	c7 84 01 00 00
	00 00 00 00 00
	00		 mov	 DWORD PTR ?fn_get_local_entity_float_value@@3PAY0KP@P6GMPAUENTITY@@W4FLOAT_TYPES@@@ZA[ecx+eax], OFFSET ?get_local_float_value@@YGMPAUENTITY@@W4FLOAT_TYPES@@@Z ; get_local_float_value

; 291  : 
; 292  : 	fn_set_local_entity_raw_float_value			[ENTITY_TYPE_SPRITE][FLOAT_TYPE_EFFECT_LIFETIME]												= set_local_float_value;

  000a6	b8 bc 02 00 00	 mov	 eax, 700		; 000002bcH
  000ab	6b c8 21	 imul	 ecx, eax, 33
  000ae	ba 04 00 00 00	 mov	 edx, 4
  000b3	c1 e2 05	 shl	 edx, 5
  000b6	c7 84 11 00 00
	00 00 00 00 00
	00		 mov	 DWORD PTR ?fn_set_local_entity_raw_float_value@@3PAY0KP@P6GXPAUENTITY@@W4FLOAT_TYPES@@M@ZA[ecx+edx], OFFSET ?set_local_float_value@@YGXPAUENTITY@@W4FLOAT_TYPES@@M@Z ; set_local_float_value

; 293  : 	fn_set_local_entity_float_value				[ENTITY_TYPE_SPRITE][FLOAT_TYPE_EFFECT_LIFETIME]												= set_local_float_value;

  000c1	b8 bc 02 00 00	 mov	 eax, 700		; 000002bcH
  000c6	6b c8 21	 imul	 ecx, eax, 33
  000c9	ba 04 00 00 00	 mov	 edx, 4
  000ce	c1 e2 05	 shl	 edx, 5
  000d1	c7 84 11 00 00
	00 00 00 00 00
	00		 mov	 DWORD PTR ?fn_set_local_entity_float_value@@3PAY0KP@P6GXPAUENTITY@@W4FLOAT_TYPES@@M@ZA[ecx+edx], OFFSET ?set_local_float_value@@YGXPAUENTITY@@W4FLOAT_TYPES@@M@Z ; set_local_float_value

; 294  : 	fn_set_client_server_entity_float_value	[ENTITY_TYPE_SPRITE][FLOAT_TYPE_EFFECT_LIFETIME][COMMS_MODEL_SERVER]					= set_server_float_value;

  000dc	b8 78 05 00 00	 mov	 eax, 1400		; 00000578H
  000e1	6b c8 21	 imul	 ecx, eax, 33
  000e4	ba 08 00 00 00	 mov	 edx, 8
  000e9	c1 e2 05	 shl	 edx, 5
  000ec	8d 84 11 00 00
	00 00		 lea	 eax, DWORD PTR ?fn_set_client_server_entity_float_value@@3PAY1KP@1P6GXPAUENTITY@@W4FLOAT_TYPES@@M@ZA[ecx+edx]
  000f3	b9 04 00 00 00	 mov	 ecx, 4
  000f8	6b d1 00	 imul	 edx, ecx, 0
  000fb	c7 04 10 00 00
	00 00		 mov	 DWORD PTR [eax+edx], OFFSET ?set_server_float_value@@YGXPAUENTITY@@W4FLOAT_TYPES@@M@Z ; set_server_float_value

; 295  : 	fn_set_client_server_entity_float_value	[ENTITY_TYPE_SPRITE][FLOAT_TYPE_EFFECT_LIFETIME][COMMS_MODEL_CLIENT]					= set_client_float_value;

  00102	b8 78 05 00 00	 mov	 eax, 1400		; 00000578H
  00107	6b c8 21	 imul	 ecx, eax, 33
  0010a	ba 08 00 00 00	 mov	 edx, 8
  0010f	c1 e2 05	 shl	 edx, 5
  00112	8d 84 11 00 00
	00 00		 lea	 eax, DWORD PTR ?fn_set_client_server_entity_float_value@@3PAY1KP@1P6GXPAUENTITY@@W4FLOAT_TYPES@@M@ZA[ecx+edx]
  00119	b9 04 00 00 00	 mov	 ecx, 4
  0011e	c1 e1 00	 shl	 ecx, 0
  00121	c7 04 08 00 00
	00 00		 mov	 DWORD PTR [eax+ecx], OFFSET ?set_client_float_value@@YGXPAUENTITY@@W4FLOAT_TYPES@@M@Z ; set_client_float_value

; 296  : 	fn_get_local_entity_float_value				[ENTITY_TYPE_SPRITE][FLOAT_TYPE_EFFECT_LIFETIME]												= get_local_float_value;

  00128	b8 bc 02 00 00	 mov	 eax, 700		; 000002bcH
  0012d	6b c8 21	 imul	 ecx, eax, 33
  00130	ba 04 00 00 00	 mov	 edx, 4
  00135	c1 e2 05	 shl	 edx, 5
  00138	c7 84 11 00 00
	00 00 00 00 00
	00		 mov	 DWORD PTR ?fn_get_local_entity_float_value@@3PAY0KP@P6GMPAUENTITY@@W4FLOAT_TYPES@@@ZA[ecx+edx], OFFSET ?get_local_float_value@@YGMPAUENTITY@@W4FLOAT_TYPES@@@Z ; get_local_float_value

; 297  : 
; 298  : 	fn_set_local_entity_raw_float_value			[ENTITY_TYPE_SPRITE][FLOAT_TYPE_END_SCALE]													= set_local_float_value;

  00143	b8 bc 02 00 00	 mov	 eax, 700		; 000002bcH
  00148	6b c8 21	 imul	 ecx, eax, 33
  0014b	ba 04 00 00 00	 mov	 edx, 4
  00150	6b c2 24	 imul	 eax, edx, 36
  00153	c7 84 01 00 00
	00 00 00 00 00
	00		 mov	 DWORD PTR ?fn_set_local_entity_raw_float_value@@3PAY0KP@P6GXPAUENTITY@@W4FLOAT_TYPES@@M@ZA[ecx+eax], OFFSET ?set_local_float_value@@YGXPAUENTITY@@W4FLOAT_TYPES@@M@Z ; set_local_float_value

; 299  : 	fn_set_local_entity_float_value				[ENTITY_TYPE_SPRITE][FLOAT_TYPE_END_SCALE]													= set_local_float_value;

  0015e	b8 bc 02 00 00	 mov	 eax, 700		; 000002bcH
  00163	6b c8 21	 imul	 ecx, eax, 33
  00166	ba 04 00 00 00	 mov	 edx, 4
  0016b	6b c2 24	 imul	 eax, edx, 36
  0016e	c7 84 01 00 00
	00 00 00 00 00
	00		 mov	 DWORD PTR ?fn_set_local_entity_float_value@@3PAY0KP@P6GXPAUENTITY@@W4FLOAT_TYPES@@M@ZA[ecx+eax], OFFSET ?set_local_float_value@@YGXPAUENTITY@@W4FLOAT_TYPES@@M@Z ; set_local_float_value

; 300  : 	fn_set_client_server_entity_float_value	[ENTITY_TYPE_SPRITE][FLOAT_TYPE_END_SCALE][COMMS_MODEL_SERVER]						= set_server_float_value;

  00179	b8 78 05 00 00	 mov	 eax, 1400		; 00000578H
  0017e	6b c8 21	 imul	 ecx, eax, 33
  00181	ba 08 00 00 00	 mov	 edx, 8
  00186	6b c2 24	 imul	 eax, edx, 36
  00189	8d 8c 01 00 00
	00 00		 lea	 ecx, DWORD PTR ?fn_set_client_server_entity_float_value@@3PAY1KP@1P6GXPAUENTITY@@W4FLOAT_TYPES@@M@ZA[ecx+eax]
  00190	ba 04 00 00 00	 mov	 edx, 4
  00195	6b c2 00	 imul	 eax, edx, 0
  00198	c7 04 01 00 00
	00 00		 mov	 DWORD PTR [ecx+eax], OFFSET ?set_server_float_value@@YGXPAUENTITY@@W4FLOAT_TYPES@@M@Z ; set_server_float_value

; 301  : 	fn_set_client_server_entity_float_value	[ENTITY_TYPE_SPRITE][FLOAT_TYPE_END_SCALE][COMMS_MODEL_CLIENT]						= set_client_float_value;

  0019f	b8 78 05 00 00	 mov	 eax, 1400		; 00000578H
  001a4	6b c8 21	 imul	 ecx, eax, 33
  001a7	ba 08 00 00 00	 mov	 edx, 8
  001ac	6b c2 24	 imul	 eax, edx, 36
  001af	8d 8c 01 00 00
	00 00		 lea	 ecx, DWORD PTR ?fn_set_client_server_entity_float_value@@3PAY1KP@1P6GXPAUENTITY@@W4FLOAT_TYPES@@M@ZA[ecx+eax]
  001b6	ba 04 00 00 00	 mov	 edx, 4
  001bb	c1 e2 00	 shl	 edx, 0
  001be	c7 04 11 00 00
	00 00		 mov	 DWORD PTR [ecx+edx], OFFSET ?set_client_float_value@@YGXPAUENTITY@@W4FLOAT_TYPES@@M@Z ; set_client_float_value

; 302  : 	fn_get_local_entity_float_value				[ENTITY_TYPE_SPRITE][FLOAT_TYPE_END_SCALE]													= get_local_float_value;

  001c5	b8 bc 02 00 00	 mov	 eax, 700		; 000002bcH
  001ca	6b c8 21	 imul	 ecx, eax, 33
  001cd	ba 04 00 00 00	 mov	 edx, 4
  001d2	6b c2 24	 imul	 eax, edx, 36
  001d5	c7 84 01 00 00
	00 00 00 00 00
	00		 mov	 DWORD PTR ?fn_get_local_entity_float_value@@3PAY0KP@P6GMPAUENTITY@@W4FLOAT_TYPES@@@ZA[ecx+eax], OFFSET ?get_local_float_value@@YGMPAUENTITY@@W4FLOAT_TYPES@@@Z ; get_local_float_value

; 303  : 
; 304  : 	fn_set_local_entity_raw_float_value			[ENTITY_TYPE_SPRITE][FLOAT_TYPE_SPRITE_LIFETIME]									= set_local_float_value;

  001e0	b8 bc 02 00 00	 mov	 eax, 700		; 000002bcH
  001e5	6b c8 21	 imul	 ecx, eax, 33
  001e8	ba 04 00 00 00	 mov	 edx, 4
  001ed	6b c2 7b	 imul	 eax, edx, 123
  001f0	c7 84 01 00 00
	00 00 00 00 00
	00		 mov	 DWORD PTR ?fn_set_local_entity_raw_float_value@@3PAY0KP@P6GXPAUENTITY@@W4FLOAT_TYPES@@M@ZA[ecx+eax], OFFSET ?set_local_float_value@@YGXPAUENTITY@@W4FLOAT_TYPES@@M@Z ; set_local_float_value

; 305  : 	fn_set_local_entity_float_value				[ENTITY_TYPE_SPRITE][FLOAT_TYPE_SPRITE_LIFETIME]									= set_local_float_value;

  001fb	b8 bc 02 00 00	 mov	 eax, 700		; 000002bcH
  00200	6b c8 21	 imul	 ecx, eax, 33
  00203	ba 04 00 00 00	 mov	 edx, 4
  00208	6b c2 7b	 imul	 eax, edx, 123
  0020b	c7 84 01 00 00
	00 00 00 00 00
	00		 mov	 DWORD PTR ?fn_set_local_entity_float_value@@3PAY0KP@P6GXPAUENTITY@@W4FLOAT_TYPES@@M@ZA[ecx+eax], OFFSET ?set_local_float_value@@YGXPAUENTITY@@W4FLOAT_TYPES@@M@Z ; set_local_float_value

; 306  : 	fn_set_client_server_entity_float_value	[ENTITY_TYPE_SPRITE][FLOAT_TYPE_SPRITE_LIFETIME][COMMS_MODEL_SERVER]			= set_server_float_value;

  00216	b8 78 05 00 00	 mov	 eax, 1400		; 00000578H
  0021b	6b c8 21	 imul	 ecx, eax, 33
  0021e	ba 08 00 00 00	 mov	 edx, 8
  00223	6b c2 7b	 imul	 eax, edx, 123
  00226	8d 8c 01 00 00
	00 00		 lea	 ecx, DWORD PTR ?fn_set_client_server_entity_float_value@@3PAY1KP@1P6GXPAUENTITY@@W4FLOAT_TYPES@@M@ZA[ecx+eax]
  0022d	ba 04 00 00 00	 mov	 edx, 4
  00232	6b c2 00	 imul	 eax, edx, 0
  00235	c7 04 01 00 00
	00 00		 mov	 DWORD PTR [ecx+eax], OFFSET ?set_server_float_value@@YGXPAUENTITY@@W4FLOAT_TYPES@@M@Z ; set_server_float_value

; 307  : 	fn_set_client_server_entity_float_value	[ENTITY_TYPE_SPRITE][FLOAT_TYPE_SPRITE_LIFETIME][COMMS_MODEL_CLIENT]			= set_client_float_value;

  0023c	b8 78 05 00 00	 mov	 eax, 1400		; 00000578H
  00241	6b c8 21	 imul	 ecx, eax, 33
  00244	ba 08 00 00 00	 mov	 edx, 8
  00249	6b c2 7b	 imul	 eax, edx, 123
  0024c	8d 8c 01 00 00
	00 00		 lea	 ecx, DWORD PTR ?fn_set_client_server_entity_float_value@@3PAY1KP@1P6GXPAUENTITY@@W4FLOAT_TYPES@@M@ZA[ecx+eax]
  00253	ba 04 00 00 00	 mov	 edx, 4
  00258	c1 e2 00	 shl	 edx, 0
  0025b	c7 04 11 00 00
	00 00		 mov	 DWORD PTR [ecx+edx], OFFSET ?set_client_float_value@@YGXPAUENTITY@@W4FLOAT_TYPES@@M@Z ; set_client_float_value

; 308  : 	fn_get_local_entity_float_value				[ENTITY_TYPE_SPRITE][FLOAT_TYPE_SPRITE_LIFETIME]									= get_local_float_value;

  00262	b8 bc 02 00 00	 mov	 eax, 700		; 000002bcH
  00267	6b c8 21	 imul	 ecx, eax, 33
  0026a	ba 04 00 00 00	 mov	 edx, 4
  0026f	6b c2 7b	 imul	 eax, edx, 123
  00272	c7 84 01 00 00
	00 00 00 00 00
	00		 mov	 DWORD PTR ?fn_get_local_entity_float_value@@3PAY0KP@P6GMPAUENTITY@@W4FLOAT_TYPES@@@ZA[ecx+eax], OFFSET ?get_local_float_value@@YGMPAUENTITY@@W4FLOAT_TYPES@@@Z ; get_local_float_value

; 309  : 
; 310  : 	fn_set_local_entity_raw_float_value			[ENTITY_TYPE_SPRITE][FLOAT_TYPE_START_SCALE]													= set_local_float_value;

  0027d	b8 bc 02 00 00	 mov	 eax, 700		; 000002bcH
  00282	6b c8 21	 imul	 ecx, eax, 33
  00285	ba 04 00 00 00	 mov	 edx, 4
  0028a	6b c2 7c	 imul	 eax, edx, 124
  0028d	c7 84 01 00 00
	00 00 00 00 00
	00		 mov	 DWORD PTR ?fn_set_local_entity_raw_float_value@@3PAY0KP@P6GXPAUENTITY@@W4FLOAT_TYPES@@M@ZA[ecx+eax], OFFSET ?set_local_float_value@@YGXPAUENTITY@@W4FLOAT_TYPES@@M@Z ; set_local_float_value

; 311  : 	fn_set_local_entity_float_value				[ENTITY_TYPE_SPRITE][FLOAT_TYPE_START_SCALE]													= set_local_float_value;

  00298	b8 bc 02 00 00	 mov	 eax, 700		; 000002bcH
  0029d	6b c8 21	 imul	 ecx, eax, 33
  002a0	ba 04 00 00 00	 mov	 edx, 4
  002a5	6b c2 7c	 imul	 eax, edx, 124
  002a8	c7 84 01 00 00
	00 00 00 00 00
	00		 mov	 DWORD PTR ?fn_set_local_entity_float_value@@3PAY0KP@P6GXPAUENTITY@@W4FLOAT_TYPES@@M@ZA[ecx+eax], OFFSET ?set_local_float_value@@YGXPAUENTITY@@W4FLOAT_TYPES@@M@Z ; set_local_float_value

; 312  : 	fn_set_client_server_entity_float_value	[ENTITY_TYPE_SPRITE][FLOAT_TYPE_START_SCALE][COMMS_MODEL_SERVER]						= set_server_float_value;

  002b3	b8 78 05 00 00	 mov	 eax, 1400		; 00000578H
  002b8	6b c8 21	 imul	 ecx, eax, 33
  002bb	ba 08 00 00 00	 mov	 edx, 8
  002c0	6b c2 7c	 imul	 eax, edx, 124
  002c3	8d 8c 01 00 00
	00 00		 lea	 ecx, DWORD PTR ?fn_set_client_server_entity_float_value@@3PAY1KP@1P6GXPAUENTITY@@W4FLOAT_TYPES@@M@ZA[ecx+eax]
  002ca	ba 04 00 00 00	 mov	 edx, 4
  002cf	6b c2 00	 imul	 eax, edx, 0
  002d2	c7 04 01 00 00
	00 00		 mov	 DWORD PTR [ecx+eax], OFFSET ?set_server_float_value@@YGXPAUENTITY@@W4FLOAT_TYPES@@M@Z ; set_server_float_value

; 313  : 	fn_set_client_server_entity_float_value	[ENTITY_TYPE_SPRITE][FLOAT_TYPE_START_SCALE][COMMS_MODEL_CLIENT]						= set_client_float_value;

  002d9	b8 78 05 00 00	 mov	 eax, 1400		; 00000578H
  002de	6b c8 21	 imul	 ecx, eax, 33
  002e1	ba 08 00 00 00	 mov	 edx, 8
  002e6	6b c2 7c	 imul	 eax, edx, 124
  002e9	8d 8c 01 00 00
	00 00		 lea	 ecx, DWORD PTR ?fn_set_client_server_entity_float_value@@3PAY1KP@1P6GXPAUENTITY@@W4FLOAT_TYPES@@M@ZA[ecx+eax]
  002f0	ba 04 00 00 00	 mov	 edx, 4
  002f5	c1 e2 00	 shl	 edx, 0
  002f8	c7 04 11 00 00
	00 00		 mov	 DWORD PTR [ecx+edx], OFFSET ?set_client_float_value@@YGXPAUENTITY@@W4FLOAT_TYPES@@M@Z ; set_client_float_value

; 314  : 	fn_get_local_entity_float_value				[ENTITY_TYPE_SPRITE][FLOAT_TYPE_START_SCALE]													= get_local_float_value;

  002ff	b8 bc 02 00 00	 mov	 eax, 700		; 000002bcH
  00304	6b c8 21	 imul	 ecx, eax, 33
  00307	ba 04 00 00 00	 mov	 edx, 4
  0030c	6b c2 7c	 imul	 eax, edx, 124
  0030f	c7 84 01 00 00
	00 00 00 00 00
	00		 mov	 DWORD PTR ?fn_get_local_entity_float_value@@3PAY0KP@P6GMPAUENTITY@@W4FLOAT_TYPES@@@ZA[ecx+eax], OFFSET ?get_local_float_value@@YGMPAUENTITY@@W4FLOAT_TYPES@@@Z ; get_local_float_value

; 315  : }

  0031a	5f		 pop	 edi
  0031b	5e		 pop	 esi
  0031c	5b		 pop	 ebx
  0031d	8b e5		 mov	 esp, ebp
  0031f	5d		 pop	 ebp
  00320	c3		 ret	 0
?overload_sprite_float_value_functions@@YGXXZ ENDP	; overload_sprite_float_value_functions
_TEXT	ENDS
END
