; Listing generated by Microsoft (R) Optimizing Compiler Version 19.16.27045.0 

	TITLE	C:\Users\nhv90\Projects\eech\aphavoc\source\ui_menu\sessparm\sparm_sc.c
	.686P
	.XMM
	include listing.inc
	.model	flat

INCLUDELIB MSVCRTD
INCLUDELIB OLDNAMES

PUBLIC	?session_parameters_area@@3PAUUI_OBJECT@@A	; session_parameters_area
PUBLIC	?time_of_day_button@@3PAUUI_OBJECT@@A		; time_of_day_button
PUBLIC	?weather_button@@3PAUUI_OBJECT@@A		; weather_button
PUBLIC	?realism_inf_weapons_button@@3PAUUI_OBJECT@@A	; realism_inf_weapons_button
PUBLIC	?realism_inf_fuel_button@@3PAUUI_OBJECT@@A	; realism_inf_fuel_button
PUBLIC	?realism_suppress_ai_fire_button@@3PAUUI_OBJECT@@A ; realism_suppress_ai_fire_button
PUBLIC	?season_area@@3PAUUI_OBJECT@@A			; season_area
PUBLIC	?season_button@@3PAUUI_OBJECT@@A		; season_button
PUBLIC	?time_of_day_area@@3PAUUI_OBJECT@@A		; time_of_day_area
PUBLIC	?weather_area@@3PAUUI_OBJECT@@A			; weather_area
PUBLIC	?realism_inf_weapons_area@@3PAUUI_OBJECT@@A	; realism_inf_weapons_area
PUBLIC	?realism_inf_weapons_title@@3PAUUI_OBJECT@@A	; realism_inf_weapons_title
PUBLIC	?realism_inf_fuel_area@@3PAUUI_OBJECT@@A	; realism_inf_fuel_area
PUBLIC	?realism_inf_fuel_title@@3PAUUI_OBJECT@@A	; realism_inf_fuel_title
PUBLIC	?realism_collisions_area@@3PAUUI_OBJECT@@A	; realism_collisions_area
PUBLIC	?realism_collisions_button@@3PAUUI_OBJECT@@A	; realism_collisions_button
PUBLIC	?realism_weapons_damage_area@@3PAUUI_OBJECT@@A	; realism_weapons_damage_area
PUBLIC	?realism_weapons_damage_button@@3PAUUI_OBJECT@@A ; realism_weapons_damage_button
PUBLIC	?realism_suppress_ai_fire_area@@3PAUUI_OBJECT@@A ; realism_suppress_ai_fire_area
_BSS	SEGMENT
?session_parameters_area@@3PAUUI_OBJECT@@A DD 01H DUP (?) ; session_parameters_area
?time_of_day_button@@3PAUUI_OBJECT@@A DD 01H DUP (?)	; time_of_day_button
?weather_button@@3PAUUI_OBJECT@@A DD 01H DUP (?)	; weather_button
?realism_inf_weapons_button@@3PAUUI_OBJECT@@A DD 01H DUP (?) ; realism_inf_weapons_button
?realism_inf_fuel_button@@3PAUUI_OBJECT@@A DD 01H DUP (?) ; realism_inf_fuel_button
?realism_suppress_ai_fire_button@@3PAUUI_OBJECT@@A DD 01H DUP (?) ; realism_suppress_ai_fire_button
?season_area@@3PAUUI_OBJECT@@A DD 01H DUP (?)		; season_area
?season_button@@3PAUUI_OBJECT@@A DD 01H DUP (?)		; season_button
?time_of_day_area@@3PAUUI_OBJECT@@A DD 01H DUP (?)	; time_of_day_area
?weather_area@@3PAUUI_OBJECT@@A DD 01H DUP (?)		; weather_area
?realism_inf_weapons_area@@3PAUUI_OBJECT@@A DD 01H DUP (?) ; realism_inf_weapons_area
?realism_inf_weapons_title@@3PAUUI_OBJECT@@A DD 01H DUP (?) ; realism_inf_weapons_title
?realism_inf_fuel_area@@3PAUUI_OBJECT@@A DD 01H DUP (?)	; realism_inf_fuel_area
?realism_inf_fuel_title@@3PAUUI_OBJECT@@A DD 01H DUP (?) ; realism_inf_fuel_title
?realism_collisions_area@@3PAUUI_OBJECT@@A DD 01H DUP (?) ; realism_collisions_area
?realism_collisions_button@@3PAUUI_OBJECT@@A DD 01H DUP (?) ; realism_collisions_button
?realism_weapons_damage_area@@3PAUUI_OBJECT@@A DD 01H DUP (?) ; realism_weapons_damage_area
?realism_weapons_damage_button@@3PAUUI_OBJECT@@A DD 01H DUP (?) ; realism_weapons_damage_button
?realism_suppress_ai_fire_area@@3PAUUI_OBJECT@@A DD 01H DUP (?) ; realism_suppress_ai_fire_area
_BSS	ENDS
PUBLIC	___local_stdio_scanf_options
PUBLIC	__vsscanf_l
PUBLIC	_sscanf
PUBLIC	?notify_session_parameters@@YGXXZ		; notify_session_parameters
PUBLIC	?notify_clear_all_session_parameters@@YGXXZ	; notify_clear_all_session_parameters
PUBLIC	?process_host_session_setup_options@@YGXXZ	; process_host_session_setup_options
PUBLIC	?process_restore_session_setup_options@@YGXXZ	; process_restore_session_setup_options
PUBLIC	?define_session_parameter_objects@@YGXXZ	; define_session_parameter_objects
PUBLIC	?notify_time_of_day_function@@YGXPAUUI_OBJECT@@PAX@Z ; notify_time_of_day_function
PUBLIC	?notify_season_function@@YGXPAUUI_OBJECT@@PAX@Z	; notify_season_function
PUBLIC	?notify_weather_function@@YGXPAUUI_OBJECT@@PAX@Z ; notify_weather_function
PUBLIC	?notify_realism_inf_weapons_function@@YGXPAUUI_OBJECT@@PAX@Z ; notify_realism_inf_weapons_function
PUBLIC	?notify_realism_inf_fuel_function@@YGXPAUUI_OBJECT@@PAX@Z ; notify_realism_inf_fuel_function
PUBLIC	?notify_realism_collisions_function@@YGXPAUUI_OBJECT@@PAX@Z ; notify_realism_collisions_function
PUBLIC	?notify_realism_weapons_damage_function@@YGXPAUUI_OBJECT@@PAX@Z ; notify_realism_weapons_damage_function
PUBLIC	?notify_realism_suppress_ai_fire_function@@YGXPAUUI_OBJECT@@PAX@Z ; notify_realism_suppress_ai_fire_function
PUBLIC	?session_parameters_time_limit_input_function@@YGXPAUUI_OBJECT@@PAX@Z ; session_parameters_time_limit_input_function
PUBLIC	?session_parameters_kill_limit_input_function@@YGXPAUUI_OBJECT@@PAX@Z ; session_parameters_kill_limit_input_function
PUBLIC	?_OptionsStorage@?1??__local_stdio_scanf_options@@9@4_KA ; `__local_stdio_scanf_options'::`2'::_OptionsStorage
PUBLIC	??_C@_0FD@DGECAID@?$CD?$CD?$CDCUSTOM?5TEXTURE?5STARTUP?3?5spar@ ; `string'
PUBLIC	??_C@_03GCDBBDDL@Off@				; `string'
PUBLIC	??_C@_02IAAGKKDJ@On@				; `string'
PUBLIC	??_C@_07NPCGECPI@Passive@			; `string'
PUBLIC	??_C@_07IDNGOJIN@Hostile@			; `string'
PUBLIC	??_C@_07MCAEODGB@Default@			; `string'
PUBLIC	??_C@_06NALKMBEE@Summer@			; `string'
PUBLIC	??_C@_06DKFAEFHC@Winter@			; `string'
PUBLIC	??_C@_06CEECHCOA@Desert@			; `string'
PUBLIC	??_C@_06BEOPDEGP@Random@			; `string'
PUBLIC	??_C@_04LNPEFOPB@Dawn@				; `string'
PUBLIC	??_C@_06HKKLINL@Midday@				; `string'
PUBLIC	??_C@_09ILILHJG@Afternoon@			; `string'
PUBLIC	??_C@_04BIPBMCKA@Dusk@				; `string'
PUBLIC	??_C@_08ILMMEOKB@Midnight@			; `string'
PUBLIC	??_C@_08DMMJCAML@Variable@			; `string'
PUBLIC	??_C@_04PCFBEJFA@Good@				; `string'
PUBLIC	??_C@_04DHPLNOLG@Fair@				; `string'
PUBLIC	??_C@_04DMAJLHBF@Poor@				; `string'
PUBLIC	??_C@_06ENLKNGPJ@Season@			; `string'
PUBLIC	??_C@_00CNPNBAHC@@				; `string'
PUBLIC	??_C@_0M@FFOELDDC@Time?5Of?5Day@		; `string'
PUBLIC	??_C@_07HOMNOOKI@Weather@			; `string'
PUBLIC	??_C@_0M@OAOKKMLA@Environment@			; `string'
PUBLIC	??_C@_0BB@HCEPBHEJ@Infinite?5Weapons@		; `string'
PUBLIC	??_C@_0O@BMJIBDDH@Infinite?5Fuel@		; `string'
PUBLIC	??_C@_0L@OEIJOBGL@Collisions@			; `string'
PUBLIC	??_C@_0P@DKHJFDGI@Weapons?5Damage@		; `string'
PUBLIC	??_C@_0DM@IIFOGEHC@?$CD?$CD?$CDCUSTOM?5TEXTURE?5STARTUP?3?5spar@ ; `string'
PUBLIC	??_C@_02DPKJAMEF@?$CFd@				; `string'
PUBLIC	??_C@_0EI@IEMDHCOG@c?3?2users?2nhv90?2projects?2eech?2ap@ ; `string'
PUBLIC	??_C@_0CF@HKCNLHMH@SPARM_SC?3?5Invalid?5weather?5setti@ ; `string'
PUBLIC	?__LINE__Var@?0??process_session_setup_time_of_day_options@@YGXW4SESSION_TIME_OF_DAY_SETTINGS@@@Z@4JA ; `process_session_setup_time_of_day_options'::`1'::__LINE__Var
PUBLIC	??_C@_0CJ@HAKIIPDH@SPARM_SC?3?5Invalid?5time?5of?5day?5s@ ; `string'
PUBLIC	?__LINE__Var@?0??process_host_session_setup_options@@YGXXZ@4JA ; `process_host_session_setup_options'::`1'::__LINE__Var
PUBLIC	??_C@_0BG@EFCJJKAA@get_session_entity?5?$CI?$CJ@ ; `string'
PUBLIC	?__LINE__Var@?0??process_restore_session_setup_options@@YGXXZ@4JA ; `process_restore_session_setup_options'::`1'::__LINE__Var
PUBLIC	__real@3d7df3b6
PUBLIC	__real@3d99999a
PUBLIC	__real@3eaa7efa
PUBLIC	__real@3f018937
PUBLIC	__real@3f0872b0
PUBLIC	__real@3f088659
PUBLIC	__real@3f18d4fe
PUBLIC	__real@3f70624de0000000
PUBLIC	__real@3f800000
PUBLIC	__real@3fa999999999999a
PUBLIC	__real@3fa99999a0000000
PUBLIC	__real@3fadb22d00000000
PUBLIC	__real@3fc22d0e60000000
PUBLIC	__real@3fc24dd300000000
PUBLIC	__real@3fd70a3d80000000
PUBLIC	__real@3fddd2f1a0000000
PUBLIC	__real@3fe31a9fc0000000
PUBLIC	__real@3fe451eb80000000
PUBLIC	__real@3fe472b020000000
PUBLIC	__real@3ff0000000000000
EXTRN	__imp____stdio_common_vsscanf:PROC
EXTRN	__imp__atoi:PROC
EXTRN	__imp___itoa:PROC
EXTRN	_strlen:PROC
EXTRN	?process_assert@@YGXPBD0H@Z:PROC		; process_assert
EXTRN	?debug_fatal@@YAXPBDZZ:PROC			; debug_fatal
EXTRN	?debug_log@@YAXPBDZZ:PROC			; debug_log
EXTRN	?initialise_custom_map_info@@YGXXZ:PROC		; initialise_custom_map_info
EXTRN	?read_map_info_data@@YGXXZ:PROC			; read_map_info_data
EXTRN	?ui_force_update@@YGXXZ:PROC			; ui_force_update
EXTRN	?create_ui_object@@YAPAUUI_OBJECT@@HZZ:PROC	; create_ui_object
EXTRN	?set_toggle_button_off@@YGXPAUUI_OBJECT@@@Z:PROC ; set_toggle_button_off
EXTRN	?initialise_noisemaps@@YGXXZ:PROC		; initialise_noisemaps
EXTRN	?get_session_random_start_time_of_day@@YGMXZ:PROC ; get_session_random_start_time_of_day
EXTRN	?get_session_preset_time_of_day@@YGMW4SESSION_TIME_OF_DAY_SETTINGS@@@Z:PROC ; get_session_preset_time_of_day
EXTRN	?set_session_fixed_weather_mode@@YGXPAUENTITY@@W4WEATHERMODES@@@Z:PROC ; set_session_fixed_weather_mode
EXTRN	?set_session_random_weather_mode@@YGXPAUENTITY@@@Z:PROC ; set_session_random_weather_mode
EXTRN	?get_trans@@YGPBDPBD@Z:PROC			; get_trans
EXTRN	?preprocess_translation_object_size@@YGXPAUUI_OBJECT@@0PAPBDHW4RESIZE_UI_OBJECT_TYPES@@@Z:PROC ; preprocess_translation_object_size
EXTRN	?current_map_info@@3UCUSTOM_MAP_INFO@@A:BYTE	; current_map_info
EXTRN	?fn_set_ui_object_x_end@@3PAP6GXPAUUI_OBJECT@@M@ZA:BYTE ; fn_set_ui_object_x_end
EXTRN	?fn_set_ui_object_virtual_y@@3PAP6GXPAUUI_OBJECT@@M@ZA:BYTE ; fn_set_ui_object_virtual_y
EXTRN	?fn_set_ui_object_virtual_x_size@@3PAP6GXPAUUI_OBJECT@@M@ZA:BYTE ; fn_set_ui_object_virtual_x_size
EXTRN	?fn_get_ui_object_virtual_x_size@@3PAP6GMPAUUI_OBJECT@@@ZA:BYTE ; fn_get_ui_object_virtual_x_size
EXTRN	?fn_set_ui_object_virtual_y_size@@3PAP6GXPAUUI_OBJECT@@M@ZA:BYTE ; fn_set_ui_object_virtual_y_size
EXTRN	?fn_set_ui_object_drawable@@3PAP6GXPAUUI_OBJECT@@H@ZA:BYTE ; fn_set_ui_object_drawable
EXTRN	?fn_get_ui_object_item_number@@3PAP6GHPAUUI_OBJECT@@@ZA:BYTE ; fn_get_ui_object_item_number
EXTRN	?fn_set_ui_object_highlightable@@3PAP6GXPAUUI_OBJECT@@H@ZA:BYTE ; fn_set_ui_object_highlightable
EXTRN	?fn_set_ui_object_notify_on@@3PAP6GXPAUUI_OBJECT@@W4NOTIFY_TYPES@@@ZA:BYTE ; fn_set_ui_object_notify_on
EXTRN	?fn_set_ui_object_text@@3PAP6GXPAUUI_OBJECT@@PBD@ZA:BYTE ; fn_set_ui_object_text
EXTRN	?fn_get_ui_object_text@@3PAP6GPBDPAUUI_OBJECT@@@ZA:BYTE ; fn_get_ui_object_text
EXTRN	?fn_set_ui_object_font_colour_end@@3PAP6GXPAUUI_OBJECT@@DDDD@ZA:BYTE ; fn_set_ui_object_font_colour_end
EXTRN	?ui_option_title_text_colour@@3UREAL_COLOUR@@A:DWORD ; ui_option_title_text_colour
EXTRN	?ui_option_text_default_colour@@3UREAL_COLOUR@@A:DWORD ; ui_option_text_default_colour
EXTRN	?ui_option_text_hilite_colour@@3UREAL_COLOUR@@A:DWORD ; ui_option_text_hilite_colour
EXTRN	?null_entity_pointer_message@@3PBDB:DWORD	; null_entity_pointer_message
EXTRN	?global_options@@3UGLOBAL_OPTIONS_DATA@@A:BYTE	; global_options
EXTRN	?overload_invalid_float_type_message@@3PBDB:DWORD ; overload_invalid_float_type_message
EXTRN	?fn_set_local_entity_float_value@@3PAY0KP@P6GXPAUENTITY@@W4FLOAT_TYPES@@M@ZA:BYTE ; fn_set_local_entity_float_value
EXTRN	?fn_get_local_entity_float_value@@3PAY0KP@P6GMPAUENTITY@@W4FLOAT_TYPES@@@ZA:BYTE ; fn_get_local_entity_float_value
EXTRN	?overload_invalid_int_type_message@@3PBDB:DWORD	; overload_invalid_int_type_message
EXTRN	?fn_set_local_entity_int_value@@3PAY0BBH@P6GXPAUENTITY@@W4INT_TYPES@@H@ZA:BYTE ; fn_set_local_entity_int_value
EXTRN	?fn_get_local_entity_int_value@@3PAY0BBH@P6GHPAUENTITY@@W4INT_TYPES@@@ZA:BYTE ; fn_get_local_entity_int_value
EXTRN	?session_entity@@3PAUENTITY@@A:DWORD		; session_entity
EXTRN	?options_box_small@@3PAUTEXTURE_GRAPHIC@@A:DWORD ; options_box_small
EXTRN	?options_box_medium@@3PAUTEXTURE_GRAPHIC@@A:DWORD ; options_box_medium
EXTRN	?options_box_large@@3PAUTEXTURE_GRAPHIC@@A:DWORD ; options_box_large
EXTRN	?game_type@@3W4GAME_TYPES@@A:DWORD		; game_type
EXTRN	?session_briefing_overlay@@3PAUUI_OBJECT@@A:DWORD ; session_briefing_overlay
EXTRN	?session_screen@@3PAUUI_OBJECT@@A:DWORD		; session_screen
EXTRN	?current_game_session@@3PAUSESSION_LIST_DATA_TYPE@@A:DWORD ; current_game_session
EXTRN	__fltused:DWORD
;	COMDAT ?_OptionsStorage@?1??__local_stdio_scanf_options@@9@4_KA
_BSS	SEGMENT
?_OptionsStorage@?1??__local_stdio_scanf_options@@9@4_KA DQ 01H DUP (?) ; `__local_stdio_scanf_options'::`2'::_OptionsStorage
_BSS	ENDS
_BSS	SEGMENT
?boolean_text@@3PAPBDA DD 02H DUP (?)			; boolean_text
?suppress_ai_fire_text@@3PAPBDA DD 02H DUP (?)		; suppress_ai_fire_text
?time_of_day_text@@3PAPBDA DD 06H DUP (?)		; time_of_day_text
?weather_text@@3PAPBDA DD 04H DUP (?)			; weather_text
?season_text@@3PAPBDA DD 04H DUP (?)			; season_text
_BSS	ENDS
;	COMDAT __real@3ff0000000000000
CONST	SEGMENT
__real@3ff0000000000000 DQ 03ff0000000000000r	; 1
CONST	ENDS
;	COMDAT __real@3fe472b020000000
CONST	SEGMENT
__real@3fe472b020000000 DQ 03fe472b020000000r	; 0.639
CONST	ENDS
;	COMDAT __real@3fe451eb80000000
CONST	SEGMENT
__real@3fe451eb80000000 DQ 03fe451eb80000000r	; 0.635
CONST	ENDS
;	COMDAT __real@3fe31a9fc0000000
CONST	SEGMENT
__real@3fe31a9fc0000000 DQ 03fe31a9fc0000000r	; 0.597
CONST	ENDS
;	COMDAT __real@3fddd2f1a0000000
CONST	SEGMENT
__real@3fddd2f1a0000000 DQ 03fddd2f1a0000000r	; 0.466
CONST	ENDS
;	COMDAT __real@3fd70a3d80000000
CONST	SEGMENT
__real@3fd70a3d80000000 DQ 03fd70a3d80000000r	; 0.36
CONST	ENDS
;	COMDAT __real@3fc24dd300000000
CONST	SEGMENT
__real@3fc24dd300000000 DQ 03fc24dd300000000r	; 0.143
CONST	ENDS
;	COMDAT __real@3fc22d0e60000000
CONST	SEGMENT
__real@3fc22d0e60000000 DQ 03fc22d0e60000000r	; 0.142
CONST	ENDS
;	COMDAT __real@3fadb22d00000000
CONST	SEGMENT
__real@3fadb22d00000000 DQ 03fadb22d00000000r	; 0.058
CONST	ENDS
;	COMDAT __real@3fa99999a0000000
CONST	SEGMENT
__real@3fa99999a0000000 DQ 03fa99999a0000000r	; 0.05
CONST	ENDS
;	COMDAT __real@3fa999999999999a
CONST	SEGMENT
__real@3fa999999999999a DQ 03fa999999999999ar	; 0.05
CONST	ENDS
;	COMDAT __real@3f800000
CONST	SEGMENT
__real@3f800000 DD 03f800000r			; 1
CONST	ENDS
;	COMDAT __real@3f70624de0000000
CONST	SEGMENT
__real@3f70624de0000000 DQ 03f70624de0000000r	; 0.004
CONST	ENDS
;	COMDAT __real@3f18d4fe
CONST	SEGMENT
__real@3f18d4fe DD 03f18d4fer			; 0.597
CONST	ENDS
;	COMDAT __real@3f088659
CONST	SEGMENT
__real@3f088659 DD 03f088659r			; 0.5333
CONST	ENDS
;	COMDAT __real@3f0872b0
CONST	SEGMENT
__real@3f0872b0 DD 03f0872b0r			; 0.533
CONST	ENDS
;	COMDAT __real@3f018937
CONST	SEGMENT
__real@3f018937 DD 03f018937r			; 0.506
CONST	ENDS
;	COMDAT __real@3eaa7efa
CONST	SEGMENT
__real@3eaa7efa DD 03eaa7efar			; 0.333
CONST	ENDS
;	COMDAT __real@3d99999a
CONST	SEGMENT
__real@3d99999a DD 03d99999ar			; 0.075
CONST	ENDS
;	COMDAT __real@3d7df3b6
CONST	SEGMENT
__real@3d7df3b6 DD 03d7df3b6r			; 0.062
CONST	ENDS
;	COMDAT ?__LINE__Var@?0??process_restore_session_setup_options@@YGXXZ@4JA
_DATA	SEGMENT
?__LINE__Var@?0??process_restore_session_setup_options@@YGXXZ@4JA DD 068dH ; `process_restore_session_setup_options'::`1'::__LINE__Var
_DATA	ENDS
;	COMDAT ??_C@_0BG@EFCJJKAA@get_session_entity?5?$CI?$CJ@
CONST	SEGMENT
??_C@_0BG@EFCJJKAA@get_session_entity?5?$CI?$CJ@ DB 'get_session_entity ('
	DB	')', 00H					; `string'
CONST	ENDS
;	COMDAT ?__LINE__Var@?0??process_host_session_setup_options@@YGXXZ@4JA
_DATA	SEGMENT
?__LINE__Var@?0??process_host_session_setup_options@@YGXXZ@4JA DD 0640H ; `process_host_session_setup_options'::`1'::__LINE__Var
_DATA	ENDS
;	COMDAT ??_C@_0CJ@HAKIIPDH@SPARM_SC?3?5Invalid?5time?5of?5day?5s@
CONST	SEGMENT
??_C@_0CJ@HAKIIPDH@SPARM_SC?3?5Invalid?5time?5of?5day?5s@ DB 'SPARM_SC: I'
	DB	'nvalid time of day setting %d', 00H		; `string'
CONST	ENDS
;	COMDAT ?__LINE__Var@?0??process_session_setup_time_of_day_options@@YGXW4SESSION_TIME_OF_DAY_SETTINGS@@@Z@4JA
_DATA	SEGMENT
?__LINE__Var@?0??process_session_setup_time_of_day_options@@YGXW4SESSION_TIME_OF_DAY_SETTINGS@@@Z@4JA DD 0611H ; `process_session_setup_time_of_day_options'::`1'::__LINE__Var
_DATA	ENDS
;	COMDAT ??_C@_0CF@HKCNLHMH@SPARM_SC?3?5Invalid?5weather?5setti@
CONST	SEGMENT
??_C@_0CF@HKCNLHMH@SPARM_SC?3?5Invalid?5weather?5setti@ DB 'SPARM_SC: Inv'
	DB	'alid weather setting %d', 00H		; `string'
CONST	ENDS
;	COMDAT ??_C@_0EI@IEMDHCOG@c?3?2users?2nhv90?2projects?2eech?2ap@
CONST	SEGMENT
??_C@_0EI@IEMDHCOG@c?3?2users?2nhv90?2projects?2eech?2ap@ DB 'c:\users\nh'
	DB	'v90\projects\eech\aphavoc\source\ui_menu\sessparm\sparm_sc.c', 00H ; `string'
CONST	ENDS
;	COMDAT ??_C@_02DPKJAMEF@?$CFd@
CONST	SEGMENT
??_C@_02DPKJAMEF@?$CFd@ DB '%d', 00H			; `string'
CONST	ENDS
;	COMDAT ??_C@_0DM@IIFOGEHC@?$CD?$CD?$CDCUSTOM?5TEXTURE?5STARTUP?3?5spar@
CONST	SEGMENT
??_C@_0DM@IIFOGEHC@?$CD?$CD?$CDCUSTOM?5TEXTURE?5STARTUP?3?5spar@ DB '###C'
	DB	'USTOM TEXTURE STARTUP: sparm_sc: notify_season_function', 00H ; `string'
CONST	ENDS
;	COMDAT ??_C@_0P@DKHJFDGI@Weapons?5Damage@
CONST	SEGMENT
??_C@_0P@DKHJFDGI@Weapons?5Damage@ DB 'Weapons Damage', 00H ; `string'
CONST	ENDS
;	COMDAT ??_C@_0L@OEIJOBGL@Collisions@
CONST	SEGMENT
??_C@_0L@OEIJOBGL@Collisions@ DB 'Collisions', 00H	; `string'
CONST	ENDS
;	COMDAT ??_C@_0O@BMJIBDDH@Infinite?5Fuel@
CONST	SEGMENT
??_C@_0O@BMJIBDDH@Infinite?5Fuel@ DB 'Infinite Fuel', 00H ; `string'
CONST	ENDS
;	COMDAT ??_C@_0BB@HCEPBHEJ@Infinite?5Weapons@
CONST	SEGMENT
??_C@_0BB@HCEPBHEJ@Infinite?5Weapons@ DB 'Infinite Weapons', 00H ; `string'
CONST	ENDS
;	COMDAT ??_C@_0M@OAOKKMLA@Environment@
CONST	SEGMENT
??_C@_0M@OAOKKMLA@Environment@ DB 'Environment', 00H	; `string'
CONST	ENDS
;	COMDAT ??_C@_07HOMNOOKI@Weather@
CONST	SEGMENT
??_C@_07HOMNOOKI@Weather@ DB 'Weather', 00H		; `string'
CONST	ENDS
;	COMDAT ??_C@_0M@FFOELDDC@Time?5Of?5Day@
CONST	SEGMENT
??_C@_0M@FFOELDDC@Time?5Of?5Day@ DB 'Time Of Day', 00H	; `string'
CONST	ENDS
;	COMDAT ??_C@_00CNPNBAHC@@
CONST	SEGMENT
??_C@_00CNPNBAHC@@ DB 00H				; `string'
CONST	ENDS
;	COMDAT ??_C@_06ENLKNGPJ@Season@
CONST	SEGMENT
??_C@_06ENLKNGPJ@Season@ DB 'Season', 00H		; `string'
CONST	ENDS
;	COMDAT ??_C@_04DMAJLHBF@Poor@
CONST	SEGMENT
??_C@_04DMAJLHBF@Poor@ DB 'Poor', 00H			; `string'
CONST	ENDS
;	COMDAT ??_C@_04DHPLNOLG@Fair@
CONST	SEGMENT
??_C@_04DHPLNOLG@Fair@ DB 'Fair', 00H			; `string'
CONST	ENDS
;	COMDAT ??_C@_04PCFBEJFA@Good@
CONST	SEGMENT
??_C@_04PCFBEJFA@Good@ DB 'Good', 00H			; `string'
CONST	ENDS
;	COMDAT ??_C@_08DMMJCAML@Variable@
CONST	SEGMENT
??_C@_08DMMJCAML@Variable@ DB 'Variable', 00H		; `string'
CONST	ENDS
;	COMDAT ??_C@_08ILMMEOKB@Midnight@
CONST	SEGMENT
??_C@_08ILMMEOKB@Midnight@ DB 'Midnight', 00H		; `string'
CONST	ENDS
;	COMDAT ??_C@_04BIPBMCKA@Dusk@
CONST	SEGMENT
??_C@_04BIPBMCKA@Dusk@ DB 'Dusk', 00H			; `string'
CONST	ENDS
;	COMDAT ??_C@_09ILILHJG@Afternoon@
CONST	SEGMENT
??_C@_09ILILHJG@Afternoon@ DB 'Afternoon', 00H		; `string'
CONST	ENDS
;	COMDAT ??_C@_06HKKLINL@Midday@
CONST	SEGMENT
??_C@_06HKKLINL@Midday@ DB 'Midday', 00H		; `string'
CONST	ENDS
;	COMDAT ??_C@_04LNPEFOPB@Dawn@
CONST	SEGMENT
??_C@_04LNPEFOPB@Dawn@ DB 'Dawn', 00H			; `string'
CONST	ENDS
;	COMDAT ??_C@_06BEOPDEGP@Random@
CONST	SEGMENT
??_C@_06BEOPDEGP@Random@ DB 'Random', 00H		; `string'
CONST	ENDS
;	COMDAT ??_C@_06CEECHCOA@Desert@
CONST	SEGMENT
??_C@_06CEECHCOA@Desert@ DB 'Desert', 00H		; `string'
CONST	ENDS
;	COMDAT ??_C@_06DKFAEFHC@Winter@
CONST	SEGMENT
??_C@_06DKFAEFHC@Winter@ DB 'Winter', 00H		; `string'
CONST	ENDS
;	COMDAT ??_C@_06NALKMBEE@Summer@
CONST	SEGMENT
??_C@_06NALKMBEE@Summer@ DB 'Summer', 00H		; `string'
CONST	ENDS
;	COMDAT ??_C@_07MCAEODGB@Default@
CONST	SEGMENT
??_C@_07MCAEODGB@Default@ DB 'Default', 00H		; `string'
CONST	ENDS
;	COMDAT ??_C@_07IDNGOJIN@Hostile@
CONST	SEGMENT
??_C@_07IDNGOJIN@Hostile@ DB 'Hostile', 00H		; `string'
CONST	ENDS
;	COMDAT ??_C@_07NPCGECPI@Passive@
CONST	SEGMENT
??_C@_07NPCGECPI@Passive@ DB 'Passive', 00H		; `string'
CONST	ENDS
;	COMDAT ??_C@_02IAAGKKDJ@On@
CONST	SEGMENT
??_C@_02IAAGKKDJ@On@ DB 'On', 00H			; `string'
CONST	ENDS
;	COMDAT ??_C@_03GCDBBDDL@Off@
CONST	SEGMENT
??_C@_03GCDBBDDL@Off@ DB 'Off', 00H			; `string'
CONST	ENDS
;	COMDAT ??_C@_0FD@DGECAID@?$CD?$CD?$CDCUSTOM?5TEXTURE?5STARTUP?3?5spar@
CONST	SEGMENT
??_C@_0FD@DGECAID@?$CD?$CD?$CDCUSTOM?5TEXTURE?5STARTUP?3?5spar@ DB '###CU'
	DB	'STOM TEXTURE STARTUP: sparm_sc: notify_session_parameters: re'
	DB	'ad_map_info_data', 00H			; `string'
CONST	ENDS
; Function compile flags: /Odtp /ZI
; File c:\users\nhv90\projects\eech\aphavoc\source\ui_menu\sessparm\sparm_sc.c
;	COMDAT ?process_sessparm_boolean_objects@@YGXPAUUI_OBJECT@@000QAPBDH@Z
_TEXT	SEGMENT
_new_size$ = -8						; size = 4
_old_size$ = -4						; size = 4
_title_box_obj$ = 8					; size = 4
_title_text_obj$ = 12					; size = 4
_button_box_obj$ = 16					; size = 4
_button_obj$ = 20					; size = 4
_button_text$ = 24					; size = 4
_num_strings$ = 28					; size = 4
?process_sessparm_boolean_objects@@YGXPAUUI_OBJECT@@000QAPBDH@Z PROC ; process_sessparm_boolean_objects, COMDAT

; 1769 : {

  00000	55		 push	 ebp
  00001	8b ec		 mov	 ebp, esp
  00003	83 ec 48	 sub	 esp, 72			; 00000048H
  00006	53		 push	 ebx
  00007	56		 push	 esi
  00008	57		 push	 edi

; 1770 : 	float
; 1771 : 		old_size,
; 1772 : 		new_size;
; 1773 : 
; 1774 : 	// process button objects
; 1775 : 
; 1776 : 	if (get_global_current_language () != LANGUAGE_ENGLISH)

  00009	83 3d 04 00 00
	00 00		 cmp	 DWORD PTR ?global_options@@3UGLOBAL_OPTIONS_DATA@@A+4, 0
  00010	0f 84 20 01 00
	00		 je	 $LN2@process_se

; 1777 : 	{
; 1778 : 		old_size = get_ui_object_virtual_x_size (button_box_obj);

  00016	8b 45 10	 mov	 eax, DWORD PTR _button_box_obj$[ebp]
  00019	50		 push	 eax
  0001a	8b 4d 10	 mov	 ecx, DWORD PTR _button_box_obj$[ebp]
  0001d	8b 11		 mov	 edx, DWORD PTR [ecx]
  0001f	8b 04 95 00 00
	00 00		 mov	 eax, DWORD PTR ?fn_get_ui_object_virtual_x_size@@3PAP6GMPAUUI_OBJECT@@@ZA[edx*4]
  00026	ff d0		 call	 eax
  00028	d9 5d fc	 fstp	 DWORD PTR _old_size$[ebp]

; 1779 : 
; 1780 : 		preprocess_translation_object_size (button_box_obj, button_obj, button_text, num_strings, RESIZE_SESSPARM_CYCLE_BUTTON);

  0002b	6a 03		 push	 3
  0002d	8b 45 1c	 mov	 eax, DWORD PTR _num_strings$[ebp]
  00030	50		 push	 eax
  00031	8b 4d 18	 mov	 ecx, DWORD PTR _button_text$[ebp]
  00034	51		 push	 ecx
  00035	8b 55 14	 mov	 edx, DWORD PTR _button_obj$[ebp]
  00038	52		 push	 edx
  00039	8b 45 10	 mov	 eax, DWORD PTR _button_box_obj$[ebp]
  0003c	50		 push	 eax
  0003d	e8 00 00 00 00	 call	 ?preprocess_translation_object_size@@YGXPAUUI_OBJECT@@0PAPBDHW4RESIZE_UI_OBJECT_TYPES@@@Z ; preprocess_translation_object_size

; 1781 : 
; 1782 : 		new_size = get_ui_object_virtual_x_size (button_box_obj);

  00042	8b 45 10	 mov	 eax, DWORD PTR _button_box_obj$[ebp]
  00045	50		 push	 eax
  00046	8b 4d 10	 mov	 ecx, DWORD PTR _button_box_obj$[ebp]
  00049	8b 11		 mov	 edx, DWORD PTR [ecx]
  0004b	8b 04 95 00 00
	00 00		 mov	 eax, DWORD PTR ?fn_get_ui_object_virtual_x_size@@3PAP6GMPAUUI_OBJECT@@@ZA[edx*4]
  00052	ff d0		 call	 eax
  00054	d9 5d f8	 fstp	 DWORD PTR _new_size$[ebp]

; 1783 : 
; 1784 : 		set_ui_object_x_end (button_box_obj, (1.0 - new_size));

  00057	f3 0f 5a 45 f8	 cvtss2sd xmm0, DWORD PTR _new_size$[ebp]
  0005c	f2 0f 10 0d 00
	00 00 00	 movsd	 xmm1, QWORD PTR __real@3ff0000000000000
  00064	f2 0f 5c c8	 subsd	 xmm1, xmm0
  00068	f2 0f 5a c1	 cvtsd2ss xmm0, xmm1
  0006c	51		 push	 ecx
  0006d	f3 0f 11 04 24	 movss	 DWORD PTR [esp], xmm0
  00072	8b 45 10	 mov	 eax, DWORD PTR _button_box_obj$[ebp]
  00075	50		 push	 eax
  00076	8b 4d 10	 mov	 ecx, DWORD PTR _button_box_obj$[ebp]
  00079	8b 11		 mov	 edx, DWORD PTR [ecx]
  0007b	8b 04 95 00 00
	00 00		 mov	 eax, DWORD PTR ?fn_set_ui_object_x_end@@3PAP6GXPAUUI_OBJECT@@M@ZA[edx*4]
  00082	ff d0		 call	 eax

; 1785 : 
; 1786 : 		set_ui_object_virtual_x_size (button_obj, 1.0);

  00084	51		 push	 ecx
  00085	f3 0f 10 05 00
	00 00 00	 movss	 xmm0, DWORD PTR __real@3f800000
  0008d	f3 0f 11 04 24	 movss	 DWORD PTR [esp], xmm0
  00092	8b 45 14	 mov	 eax, DWORD PTR _button_obj$[ebp]
  00095	50		 push	 eax
  00096	8b 4d 14	 mov	 ecx, DWORD PTR _button_obj$[ebp]
  00099	8b 11		 mov	 edx, DWORD PTR [ecx]
  0009b	8b 04 95 00 00
	00 00		 mov	 eax, DWORD PTR ?fn_set_ui_object_virtual_x_size@@3PAP6GXPAUUI_OBJECT@@M@ZA[edx*4]
  000a2	ff d0		 call	 eax

; 1787 : 
; 1788 : 		set_ui_object_virtual_y_size (button_obj, 1.0);

  000a4	51		 push	 ecx
  000a5	f3 0f 10 05 00
	00 00 00	 movss	 xmm0, DWORD PTR __real@3f800000
  000ad	f3 0f 11 04 24	 movss	 DWORD PTR [esp], xmm0
  000b2	8b 45 14	 mov	 eax, DWORD PTR _button_obj$[ebp]
  000b5	50		 push	 eax
  000b6	8b 4d 14	 mov	 ecx, DWORD PTR _button_obj$[ebp]
  000b9	8b 11		 mov	 edx, DWORD PTR [ecx]
  000bb	8b 04 95 00 00
	00 00		 mov	 eax, DWORD PTR ?fn_set_ui_object_virtual_y_size@@3PAP6GXPAUUI_OBJECT@@M@ZA[edx*4]
  000c2	ff d0		 call	 eax

; 1789 : 
; 1790 : 
; 1791 : 		// process title objects
; 1792 : 
; 1793 : 		set_ui_object_virtual_x_size (title_box_obj, (1.0 - new_size - SETUP_BOX_GAP_WIDTH));

  000c4	f3 0f 5a 45 f8	 cvtss2sd xmm0, DWORD PTR _new_size$[ebp]
  000c9	f2 0f 10 0d 00
	00 00 00	 movsd	 xmm1, QWORD PTR __real@3ff0000000000000
  000d1	f2 0f 5c c8	 subsd	 xmm1, xmm0
  000d5	f2 0f 5c 0d 00
	00 00 00	 subsd	 xmm1, QWORD PTR __real@3f70624de0000000
  000dd	f2 0f 5a c1	 cvtsd2ss xmm0, xmm1
  000e1	51		 push	 ecx
  000e2	f3 0f 11 04 24	 movss	 DWORD PTR [esp], xmm0
  000e7	8b 45 08	 mov	 eax, DWORD PTR _title_box_obj$[ebp]
  000ea	50		 push	 eax
  000eb	8b 4d 08	 mov	 ecx, DWORD PTR _title_box_obj$[ebp]
  000ee	8b 11		 mov	 edx, DWORD PTR [ecx]
  000f0	8b 04 95 00 00
	00 00		 mov	 eax, DWORD PTR ?fn_set_ui_object_virtual_x_size@@3PAP6GXPAUUI_OBJECT@@M@ZA[edx*4]
  000f7	ff d0		 call	 eax

; 1794 : 
; 1795 : 		// not definite yet...
; 1796 : 		set_ui_object_x_end (title_text_obj, (1.0 - new_size - SETUP_BOX_GAP_WIDTH - 0.05));

  000f9	f3 0f 5a 45 f8	 cvtss2sd xmm0, DWORD PTR _new_size$[ebp]
  000fe	f2 0f 10 0d 00
	00 00 00	 movsd	 xmm1, QWORD PTR __real@3ff0000000000000
  00106	f2 0f 5c c8	 subsd	 xmm1, xmm0
  0010a	f2 0f 5c 0d 00
	00 00 00	 subsd	 xmm1, QWORD PTR __real@3f70624de0000000
  00112	f2 0f 5c 0d 00
	00 00 00	 subsd	 xmm1, QWORD PTR __real@3fa999999999999a
  0011a	f2 0f 5a c1	 cvtsd2ss xmm0, xmm1
  0011e	51		 push	 ecx
  0011f	f3 0f 11 04 24	 movss	 DWORD PTR [esp], xmm0
  00124	8b 45 0c	 mov	 eax, DWORD PTR _title_text_obj$[ebp]
  00127	50		 push	 eax
  00128	8b 4d 0c	 mov	 ecx, DWORD PTR _title_text_obj$[ebp]
  0012b	8b 11		 mov	 edx, DWORD PTR [ecx]
  0012d	8b 04 95 00 00
	00 00		 mov	 eax, DWORD PTR ?fn_set_ui_object_x_end@@3PAP6GXPAUUI_OBJECT@@M@ZA[edx*4]
  00134	ff d0		 call	 eax
$LN2@process_se:

; 1797 : 	}
; 1798 : }

  00136	5f		 pop	 edi
  00137	5e		 pop	 esi
  00138	5b		 pop	 ebx
  00139	8b e5		 mov	 esp, ebp
  0013b	5d		 pop	 ebp
  0013c	c2 18 00	 ret	 24			; 00000018H
?process_sessparm_boolean_objects@@YGXPAUUI_OBJECT@@000QAPBDH@Z ENDP ; process_sessparm_boolean_objects
_TEXT	ENDS
; Function compile flags: /Odtp /ZI
; File c:\users\nhv90\projects\eech\aphavoc\source\ui_menu\sessparm\sparm_sc.c
;	COMDAT ?process_sessparm_objects@@YGXPAUUI_OBJECT@@000QAPBDH@Z
_TEXT	SEGMENT
_new_size$ = -8						; size = 4
_old_size$ = -4						; size = 4
_title_box_obj$ = 8					; size = 4
_title_text_obj$ = 12					; size = 4
_button_box_obj$ = 16					; size = 4
_button_obj$ = 20					; size = 4
_button_text$ = 24					; size = 4
_num_strings$ = 28					; size = 4
?process_sessparm_objects@@YGXPAUUI_OBJECT@@000QAPBDH@Z PROC ; process_sessparm_objects, COMDAT

; 1739 : {

  00000	55		 push	 ebp
  00001	8b ec		 mov	 ebp, esp
  00003	83 ec 48	 sub	 esp, 72			; 00000048H
  00006	53		 push	 ebx
  00007	56		 push	 esi
  00008	57		 push	 edi

; 1740 : 	float
; 1741 : 		old_size,
; 1742 : 		new_size;
; 1743 : 
; 1744 : 	// process button objects
; 1745 : 
; 1746 : 	old_size = get_ui_object_virtual_x_size (button_box_obj);

  00009	8b 45 10	 mov	 eax, DWORD PTR _button_box_obj$[ebp]
  0000c	50		 push	 eax
  0000d	8b 4d 10	 mov	 ecx, DWORD PTR _button_box_obj$[ebp]
  00010	8b 11		 mov	 edx, DWORD PTR [ecx]
  00012	8b 04 95 00 00
	00 00		 mov	 eax, DWORD PTR ?fn_get_ui_object_virtual_x_size@@3PAP6GMPAUUI_OBJECT@@@ZA[edx*4]
  00019	ff d0		 call	 eax
  0001b	d9 5d fc	 fstp	 DWORD PTR _old_size$[ebp]

; 1747 : 
; 1748 : 	preprocess_translation_object_size (button_box_obj, button_obj, button_text, num_strings, RESIZE_SESSPARM_CYCLE_BUTTON);

  0001e	6a 03		 push	 3
  00020	8b 45 1c	 mov	 eax, DWORD PTR _num_strings$[ebp]
  00023	50		 push	 eax
  00024	8b 4d 18	 mov	 ecx, DWORD PTR _button_text$[ebp]
  00027	51		 push	 ecx
  00028	8b 55 14	 mov	 edx, DWORD PTR _button_obj$[ebp]
  0002b	52		 push	 edx
  0002c	8b 45 10	 mov	 eax, DWORD PTR _button_box_obj$[ebp]
  0002f	50		 push	 eax
  00030	e8 00 00 00 00	 call	 ?preprocess_translation_object_size@@YGXPAUUI_OBJECT@@0PAPBDHW4RESIZE_UI_OBJECT_TYPES@@@Z ; preprocess_translation_object_size

; 1749 : 
; 1750 : 	new_size = get_ui_object_virtual_x_size (button_box_obj);

  00035	8b 45 10	 mov	 eax, DWORD PTR _button_box_obj$[ebp]
  00038	50		 push	 eax
  00039	8b 4d 10	 mov	 ecx, DWORD PTR _button_box_obj$[ebp]
  0003c	8b 11		 mov	 edx, DWORD PTR [ecx]
  0003e	8b 04 95 00 00
	00 00		 mov	 eax, DWORD PTR ?fn_get_ui_object_virtual_x_size@@3PAP6GMPAUUI_OBJECT@@@ZA[edx*4]
  00045	ff d0		 call	 eax
  00047	d9 5d f8	 fstp	 DWORD PTR _new_size$[ebp]

; 1751 : 
; 1752 : 	set_ui_object_virtual_x_size (button_obj, 1.0);

  0004a	51		 push	 ecx
  0004b	f3 0f 10 05 00
	00 00 00	 movss	 xmm0, DWORD PTR __real@3f800000
  00053	f3 0f 11 04 24	 movss	 DWORD PTR [esp], xmm0
  00058	8b 45 14	 mov	 eax, DWORD PTR _button_obj$[ebp]
  0005b	50		 push	 eax
  0005c	8b 4d 14	 mov	 ecx, DWORD PTR _button_obj$[ebp]
  0005f	8b 11		 mov	 edx, DWORD PTR [ecx]
  00061	8b 04 95 00 00
	00 00		 mov	 eax, DWORD PTR ?fn_set_ui_object_virtual_x_size@@3PAP6GXPAUUI_OBJECT@@M@ZA[edx*4]
  00068	ff d0		 call	 eax

; 1753 : 
; 1754 : 	set_ui_object_virtual_y_size (button_obj, 1.0);

  0006a	51		 push	 ecx
  0006b	f3 0f 10 05 00
	00 00 00	 movss	 xmm0, DWORD PTR __real@3f800000
  00073	f3 0f 11 04 24	 movss	 DWORD PTR [esp], xmm0
  00078	8b 45 14	 mov	 eax, DWORD PTR _button_obj$[ebp]
  0007b	50		 push	 eax
  0007c	8b 4d 14	 mov	 ecx, DWORD PTR _button_obj$[ebp]
  0007f	8b 11		 mov	 edx, DWORD PTR [ecx]
  00081	8b 04 95 00 00
	00 00		 mov	 eax, DWORD PTR ?fn_set_ui_object_virtual_y_size@@3PAP6GXPAUUI_OBJECT@@M@ZA[edx*4]
  00088	ff d0		 call	 eax

; 1755 : 
; 1756 : 
; 1757 : 	// process title objects
; 1758 : 
; 1759 : 	set_ui_object_virtual_x_size (title_box_obj, (1.0 - new_size - SETUP_BOX_GAP_WIDTH));

  0008a	f3 0f 5a 45 f8	 cvtss2sd xmm0, DWORD PTR _new_size$[ebp]
  0008f	f2 0f 10 0d 00
	00 00 00	 movsd	 xmm1, QWORD PTR __real@3ff0000000000000
  00097	f2 0f 5c c8	 subsd	 xmm1, xmm0
  0009b	f2 0f 5c 0d 00
	00 00 00	 subsd	 xmm1, QWORD PTR __real@3f70624de0000000
  000a3	f2 0f 5a c1	 cvtsd2ss xmm0, xmm1
  000a7	51		 push	 ecx
  000a8	f3 0f 11 04 24	 movss	 DWORD PTR [esp], xmm0
  000ad	8b 45 08	 mov	 eax, DWORD PTR _title_box_obj$[ebp]
  000b0	50		 push	 eax
  000b1	8b 4d 08	 mov	 ecx, DWORD PTR _title_box_obj$[ebp]
  000b4	8b 11		 mov	 edx, DWORD PTR [ecx]
  000b6	8b 04 95 00 00
	00 00		 mov	 eax, DWORD PTR ?fn_set_ui_object_virtual_x_size@@3PAP6GXPAUUI_OBJECT@@M@ZA[edx*4]
  000bd	ff d0		 call	 eax

; 1760 : 
; 1761 : 	set_ui_object_x_end (title_text_obj, SETUP_BOX_TEXT_OFFSET_X - (new_size - old_size));

  000bf	f3 0f 10 45 f8	 movss	 xmm0, DWORD PTR _new_size$[ebp]
  000c4	f3 0f 5c 45 fc	 subss	 xmm0, DWORD PTR _old_size$[ebp]
  000c9	f3 0f 10 0d 00
	00 00 00	 movss	 xmm1, DWORD PTR __real@3f18d4fe
  000d1	f3 0f 5c c8	 subss	 xmm1, xmm0
  000d5	51		 push	 ecx
  000d6	f3 0f 11 0c 24	 movss	 DWORD PTR [esp], xmm1
  000db	8b 45 0c	 mov	 eax, DWORD PTR _title_text_obj$[ebp]
  000de	50		 push	 eax
  000df	8b 4d 0c	 mov	 ecx, DWORD PTR _title_text_obj$[ebp]
  000e2	8b 11		 mov	 edx, DWORD PTR [ecx]
  000e4	8b 04 95 00 00
	00 00		 mov	 eax, DWORD PTR ?fn_set_ui_object_x_end@@3PAP6GXPAUUI_OBJECT@@M@ZA[edx*4]
  000eb	ff d0		 call	 eax

; 1762 : }

  000ed	5f		 pop	 edi
  000ee	5e		 pop	 esi
  000ef	5b		 pop	 ebx
  000f0	8b e5		 mov	 esp, ebp
  000f2	5d		 pop	 ebp
  000f3	c2 18 00	 ret	 24			; 00000018H
?process_sessparm_objects@@YGXPAUUI_OBJECT@@000QAPBDH@Z ENDP ; process_sessparm_objects
_TEXT	ENDS
; Function compile flags: /Odtp /ZI
; File c:\users\nhv90\projects\eech\aphavoc\source\ui_menu\sessparm\sparm_sc.c
;	COMDAT ?process_session_setup_weather_options@@YGXW4SESSION_WEATHER_SETTINGS@@@Z
_TEXT	SEGMENT
tv77 = -72						; size = 4
tv70 = -68						; size = 4
tv64 = -68						; size = 4
_weather_setting$ = 8					; size = 4
?process_session_setup_weather_options@@YGXW4SESSION_WEATHER_SETTINGS@@@Z PROC ; process_session_setup_weather_options, COMDAT

; 1500 : {

  00000	55		 push	 ebp
  00001	8b ec		 mov	 ebp, esp
  00003	83 ec 48	 sub	 esp, 72			; 00000048H
  00006	53		 push	 ebx
  00007	56		 push	 esi
  00008	57		 push	 edi

; 1501 : 	switch (weather_setting)

  00009	8b 45 08	 mov	 eax, DWORD PTR _weather_setting$[ebp]
  0000c	89 45 bc	 mov	 DWORD PTR tv64[ebp], eax
  0000f	8b 4d bc	 mov	 ecx, DWORD PTR tv64[ebp]
  00012	83 e9 01	 sub	 ecx, 1
  00015	89 4d bc	 mov	 DWORD PTR tv64[ebp], ecx
  00018	83 7d bc 03	 cmp	 DWORD PTR tv64[ebp], 3
  0001c	0f 87 de 00 00
	00		 ja	 $LN11@process_se
  00022	8b 55 bc	 mov	 edx, DWORD PTR tv64[ebp]
  00025	ff 24 95 00 00
	00 00		 jmp	 DWORD PTR $LN17@process_se[edx*4]
$LN4@process_se:

; 1502 : 	{
; 1503 : 		case SESSION_WEATHER_RANDOM:
; 1504 : 		{
; 1505 : 			if (get_local_entity_int_value (get_session_entity (), INT_TYPE_LOCAL_WEATHER_MODEL) == TRUE)

  0002c	83 3d 00 00 00
	00 00		 cmp	 DWORD PTR ?session_entity@@3PAUENTITY@@A, 0 ; session_entity
  00033	74 0c		 je	 SHORT $LN13@process_se
  00035	a1 00 00 00 00	 mov	 eax, DWORD PTR ?session_entity@@3PAUENTITY@@A ; session_entity
  0003a	8b 08		 mov	 ecx, DWORD PTR [eax]
  0003c	89 4d bc	 mov	 DWORD PTR tv70[ebp], ecx
  0003f	eb 1d		 jmp	 SHORT $LN14@process_se
$LN13@process_se:
  00041	68 e1 05 00 00	 push	 1505			; 000005e1H
  00046	68 00 00 00 00	 push	 OFFSET ??_C@_0EI@IEMDHCOG@c?3?2users?2nhv90?2projects?2eech?2ap@
  0004b	8b 15 00 00 00
	00		 mov	 edx, DWORD PTR ?null_entity_pointer_message@@3PBDB ; null_entity_pointer_message
  00051	52		 push	 edx
  00052	e8 00 00 00 00	 call	 ?process_assert@@YGXPBD0H@Z ; process_assert
  00057	c7 45 bc 00 00
	00 00		 mov	 DWORD PTR tv70[ebp], 0
$LN14@process_se:
  0005e	b8 01 00 00 00	 mov	 eax, 1
  00063	85 c0		 test	 eax, eax
  00065	74 09		 je	 SHORT $LN15@process_se
  00067	c7 45 b8 7d 00
	00 00		 mov	 DWORD PTR tv77[ebp], 125 ; 0000007dH
  0006e	eb 1d		 jmp	 SHORT $LN16@process_se
$LN15@process_se:
  00070	68 e1 05 00 00	 push	 1505			; 000005e1H
  00075	68 00 00 00 00	 push	 OFFSET ??_C@_0EI@IEMDHCOG@c?3?2users?2nhv90?2projects?2eech?2ap@
  0007a	8b 0d 00 00 00
	00		 mov	 ecx, DWORD PTR ?overload_invalid_int_type_message@@3PBDB ; overload_invalid_int_type_message
  00080	51		 push	 ecx
  00081	e8 00 00 00 00	 call	 ?process_assert@@YGXPBD0H@Z ; process_assert
  00086	c7 45 b8 00 00
	00 00		 mov	 DWORD PTR tv77[ebp], 0
$LN16@process_se:
  0008d	6a 7d		 push	 125			; 0000007dH
  0008f	8b 15 00 00 00
	00		 mov	 edx, DWORD PTR ?session_entity@@3PAUENTITY@@A ; session_entity
  00095	52		 push	 edx
  00096	69 45 bc 5c 04
	00 00		 imul	 eax, DWORD PTR tv70[ebp], 1116
  0009d	8b 4d b8	 mov	 ecx, DWORD PTR tv77[ebp]
  000a0	8b 94 88 00 00
	00 00		 mov	 edx, DWORD PTR ?fn_get_local_entity_int_value@@3PAY0BBH@P6GHPAUENTITY@@W4INT_TYPES@@@ZA[eax+ecx*4]
  000a7	ff d2		 call	 edx
  000a9	83 f8 01	 cmp	 eax, 1
  000ac	75 0b		 jne	 SHORT $LN5@process_se

; 1506 : 			{
; 1507 : 				//
; 1508 : 				// (If local_weather_model is set to FALSE, it means the weather for this warzone has been specified in the
; 1509 : 				//		campaign file, and should not be changed)
; 1510 : 				//
; 1511 : 
; 1512 : 				set_session_random_weather_mode (get_session_entity ());

  000ae	a1 00 00 00 00	 mov	 eax, DWORD PTR ?session_entity@@3PAUENTITY@@A ; session_entity
  000b3	50		 push	 eax
  000b4	e8 00 00 00 00	 call	 ?set_session_random_weather_mode@@YGXPAUENTITY@@@Z ; set_session_random_weather_mode
$LN5@process_se:

; 1513 : 			}
; 1514 : 
; 1515 : 			break;

  000b9	eb 56		 jmp	 SHORT $LN1@process_se
$LN6@process_se:

; 1516 : 		}
; 1517 : 		case SESSION_WEATHER_GOOD:
; 1518 : 		{
; 1519 : 			set_session_fixed_weather_mode (get_session_entity (), WEATHERMODE_DRY);

  000bb	6a 01		 push	 1
  000bd	a1 00 00 00 00	 mov	 eax, DWORD PTR ?session_entity@@3PAUENTITY@@A ; session_entity
  000c2	50		 push	 eax
  000c3	e8 00 00 00 00	 call	 ?set_session_fixed_weather_mode@@YGXPAUENTITY@@W4WEATHERMODES@@@Z ; set_session_fixed_weather_mode

; 1520 : 
; 1521 : 			break;

  000c8	eb 47		 jmp	 SHORT $LN1@process_se
$LN7@process_se:

; 1522 : 		}
; 1523 : 		case SESSION_WEATHER_FAIR:
; 1524 : 		{
; 1525 : 			set_session_fixed_weather_mode (get_session_entity (), WEATHERMODE_LIGHT_RAIN);

  000ca	6a 02		 push	 2
  000cc	a1 00 00 00 00	 mov	 eax, DWORD PTR ?session_entity@@3PAUENTITY@@A ; session_entity
  000d1	50		 push	 eax
  000d2	e8 00 00 00 00	 call	 ?set_session_fixed_weather_mode@@YGXPAUENTITY@@W4WEATHERMODES@@@Z ; set_session_fixed_weather_mode

; 1526 : 
; 1527 : 			break;

  000d7	eb 38		 jmp	 SHORT $LN1@process_se
$LN8@process_se:

; 1528 : 		}
; 1529 : 		case SESSION_WEATHER_POOR:
; 1530 : 		{
; 1531 : 			//VJ 051014 link winter/summer to snow/rain
; 1532 : 			if (get_global_season() == SESSION_SEASON_WINTER)

  000d9	83 3d 14 04 00
	00 03		 cmp	 DWORD PTR ?current_map_info@@3UCUSTOM_MAP_INFO@@A+1044, 3
  000e0	75 0f		 jne	 SHORT $LN9@process_se

; 1533 : 				set_session_fixed_weather_mode (get_session_entity (), WEATHERMODE_SNOW);

  000e2	6a 04		 push	 4
  000e4	a1 00 00 00 00	 mov	 eax, DWORD PTR ?session_entity@@3PAUENTITY@@A ; session_entity
  000e9	50		 push	 eax
  000ea	e8 00 00 00 00	 call	 ?set_session_fixed_weather_mode@@YGXPAUENTITY@@W4WEATHERMODES@@@Z ; set_session_fixed_weather_mode

; 1534 : 			else

  000ef	eb 0d		 jmp	 SHORT $LN10@process_se
$LN9@process_se:

; 1535 : 				set_session_fixed_weather_mode (get_session_entity (), WEATHERMODE_HEAVY_RAIN);

  000f1	6a 03		 push	 3
  000f3	a1 00 00 00 00	 mov	 eax, DWORD PTR ?session_entity@@3PAUENTITY@@A ; session_entity
  000f8	50		 push	 eax
  000f9	e8 00 00 00 00	 call	 ?set_session_fixed_weather_mode@@YGXPAUENTITY@@W4WEATHERMODES@@@Z ; set_session_fixed_weather_mode
$LN10@process_se:

; 1536 : 
; 1537 : 			break;

  000fe	eb 11		 jmp	 SHORT $LN1@process_se
$LN11@process_se:

; 1538 : 		}
; 1539 : 		default:
; 1540 : 		{
; 1541 : 			debug_fatal ("SPARM_SC: Invalid weather setting %d", weather_setting);

  00100	8b 45 08	 mov	 eax, DWORD PTR _weather_setting$[ebp]
  00103	50		 push	 eax
  00104	68 00 00 00 00	 push	 OFFSET ??_C@_0CF@HKCNLHMH@SPARM_SC?3?5Invalid?5weather?5setti@
  00109	e8 00 00 00 00	 call	 ?debug_fatal@@YAXPBDZZ	; debug_fatal
  0010e	83 c4 08	 add	 esp, 8
$LN1@process_se:

; 1542 : 
; 1543 : 			break;
; 1544 : 		}
; 1545 : 	}
; 1546 : }

  00111	5f		 pop	 edi
  00112	5e		 pop	 esi
  00113	5b		 pop	 ebx
  00114	8b e5		 mov	 esp, ebp
  00116	5d		 pop	 ebp
  00117	c2 04 00	 ret	 4
  0011a	66 90		 npad	 2
$LN17@process_se:
  0011c	00 00 00 00	 DD	 $LN4@process_se
  00120	00 00 00 00	 DD	 $LN6@process_se
  00124	00 00 00 00	 DD	 $LN7@process_se
  00128	00 00 00 00	 DD	 $LN8@process_se
?process_session_setup_weather_options@@YGXW4SESSION_WEATHER_SETTINGS@@@Z ENDP ; process_session_setup_weather_options
_TEXT	ENDS
; Function compile flags: /Odtp /ZI
; File c:\users\nhv90\projects\eech\aphavoc\source\ui_menu\sessparm\sparm_sc.c
;	COMDAT ?process_session_setup_time_of_day_options@@YGXW4SESSION_TIME_OF_DAY_SETTINGS@@@Z
_TEXT	SEGMENT
tv139 = -80						; size = 4
tv78 = -80						; size = 4
tv131 = -76						; size = 4
tv84 = -76						; size = 4
tv70 = -76						; size = 4
_setup_time$ = -8					; size = 4
_session_time$ = -4					; size = 4
_time_of_day$ = 8					; size = 4
?process_session_setup_time_of_day_options@@YGXW4SESSION_TIME_OF_DAY_SETTINGS@@@Z PROC ; process_session_setup_time_of_day_options, COMDAT

; 1553 : {

  00000	55		 push	 ebp
  00001	8b ec		 mov	 ebp, esp
  00003	83 ec 50	 sub	 esp, 80			; 00000050H
  00006	53		 push	 ebx
  00007	56		 push	 esi
  00008	57		 push	 edi

; 1554 : 
; 1555 : 	float
; 1556 : 		session_time,
; 1557 : 		setup_time;
; 1558 : 
; 1559 : 	session_time = get_local_entity_float_value (get_session_entity (), FLOAT_TYPE_TIME_OF_DAY);

  00009	83 3d 00 00 00
	00 00		 cmp	 DWORD PTR ?session_entity@@3PAUENTITY@@A, 0 ; session_entity
  00010	74 0c		 je	 SHORT $LN8@process_se
  00012	a1 00 00 00 00	 mov	 eax, DWORD PTR ?session_entity@@3PAUENTITY@@A ; session_entity
  00017	8b 08		 mov	 ecx, DWORD PTR [eax]
  00019	89 4d b4	 mov	 DWORD PTR tv70[ebp], ecx
  0001c	eb 21		 jmp	 SHORT $LN9@process_se
$LN8@process_se:
  0001e	8b 15 00 00 00
	00		 mov	 edx, DWORD PTR ?__LINE__Var@?0??process_session_setup_time_of_day_options@@YGXW4SESSION_TIME_OF_DAY_SETTINGS@@@Z@4JA
  00024	83 c2 06	 add	 edx, 6
  00027	52		 push	 edx
  00028	68 00 00 00 00	 push	 OFFSET ??_C@_0EI@IEMDHCOG@c?3?2users?2nhv90?2projects?2eech?2ap@
  0002d	a1 00 00 00 00	 mov	 eax, DWORD PTR ?null_entity_pointer_message@@3PBDB ; null_entity_pointer_message
  00032	50		 push	 eax
  00033	e8 00 00 00 00	 call	 ?process_assert@@YGXPBD0H@Z ; process_assert
  00038	c7 45 b4 00 00
	00 00		 mov	 DWORD PTR tv70[ebp], 0
$LN9@process_se:
  0003f	b9 01 00 00 00	 mov	 ecx, 1
  00044	85 c9		 test	 ecx, ecx
  00046	74 09		 je	 SHORT $LN10@process_se
  00048	c7 45 b0 8e 00
	00 00		 mov	 DWORD PTR tv78[ebp], 142 ; 0000008eH
  0004f	eb 21		 jmp	 SHORT $LN11@process_se
$LN10@process_se:
  00051	8b 15 00 00 00
	00		 mov	 edx, DWORD PTR ?__LINE__Var@?0??process_session_setup_time_of_day_options@@YGXW4SESSION_TIME_OF_DAY_SETTINGS@@@Z@4JA
  00057	83 c2 06	 add	 edx, 6
  0005a	52		 push	 edx
  0005b	68 00 00 00 00	 push	 OFFSET ??_C@_0EI@IEMDHCOG@c?3?2users?2nhv90?2projects?2eech?2ap@
  00060	a1 00 00 00 00	 mov	 eax, DWORD PTR ?overload_invalid_float_type_message@@3PBDB ; overload_invalid_float_type_message
  00065	50		 push	 eax
  00066	e8 00 00 00 00	 call	 ?process_assert@@YGXPBD0H@Z ; process_assert
  0006b	c7 45 b0 00 00
	00 00		 mov	 DWORD PTR tv78[ebp], 0
$LN11@process_se:
  00072	68 8e 00 00 00	 push	 142			; 0000008eH
  00077	8b 0d 00 00 00
	00		 mov	 ecx, DWORD PTR ?session_entity@@3PAUENTITY@@A ; session_entity
  0007d	51		 push	 ecx
  0007e	69 55 b4 bc 02
	00 00		 imul	 edx, DWORD PTR tv70[ebp], 700
  00085	8b 45 b0	 mov	 eax, DWORD PTR tv78[ebp]
  00088	8b 8c 82 00 00
	00 00		 mov	 ecx, DWORD PTR ?fn_get_local_entity_float_value@@3PAY0KP@P6GMPAUENTITY@@W4FLOAT_TYPES@@@ZA[edx+eax*4]
  0008f	ff d1		 call	 ecx
  00091	d9 5d fc	 fstp	 DWORD PTR _session_time$[ebp]

; 1560 : 
; 1561 : 	switch (time_of_day)

  00094	8b 45 08	 mov	 eax, DWORD PTR _time_of_day$[ebp]
  00097	89 45 b4	 mov	 DWORD PTR tv84[ebp], eax
  0009a	83 7d b4 01	 cmp	 DWORD PTR tv84[ebp], 1
  0009e	74 0e		 je	 SHORT $LN4@process_se
  000a0	83 7d b4 01	 cmp	 DWORD PTR tv84[ebp], 1
  000a4	7e 20		 jle	 SHORT $LN6@process_se
  000a6	83 7d b4 06	 cmp	 DWORD PTR tv84[ebp], 6
  000aa	7e 0c		 jle	 SHORT $LN5@process_se
  000ac	eb 18		 jmp	 SHORT $LN6@process_se
$LN4@process_se:

; 1562 : 	{
; 1563 : 
; 1564 : 		case SESSION_TIME_RANDOM:
; 1565 : 		{
; 1566 : 			setup_time = get_session_random_start_time_of_day ();

  000ae	e8 00 00 00 00	 call	 ?get_session_random_start_time_of_day@@YGMXZ ; get_session_random_start_time_of_day
  000b3	d9 5d f8	 fstp	 DWORD PTR _setup_time$[ebp]

; 1567 : 
; 1568 : 			break;

  000b6	eb 1f		 jmp	 SHORT $LN2@process_se
$LN5@process_se:

; 1569 : 		}
; 1570 : 		case SESSION_TIME_DAWN:
; 1571 : 		case SESSION_TIME_MIDDAY:
; 1572 : 		case SESSION_TIME_AFTERNOON:
; 1573 : 		case SESSION_TIME_DUSK:
; 1574 : 		case SESSION_TIME_MIDNIGHT:
; 1575 : 		{
; 1576 : 			setup_time = get_session_preset_time_of_day (time_of_day);

  000b8	8b 45 08	 mov	 eax, DWORD PTR _time_of_day$[ebp]
  000bb	50		 push	 eax
  000bc	e8 00 00 00 00	 call	 ?get_session_preset_time_of_day@@YGMW4SESSION_TIME_OF_DAY_SETTINGS@@@Z ; get_session_preset_time_of_day
  000c1	d9 5d f8	 fstp	 DWORD PTR _setup_time$[ebp]

; 1577 : 
; 1578 : 			break;

  000c4	eb 11		 jmp	 SHORT $LN2@process_se
$LN6@process_se:

; 1579 : 		}
; 1580 : 		default:
; 1581 : 		{
; 1582 : 			debug_fatal ("SPARM_SC: Invalid time of day setting %d", time_of_day);

  000c6	8b 45 08	 mov	 eax, DWORD PTR _time_of_day$[ebp]
  000c9	50		 push	 eax
  000ca	68 00 00 00 00	 push	 OFFSET ??_C@_0CJ@HAKIIPDH@SPARM_SC?3?5Invalid?5time?5of?5day?5s@
  000cf	e8 00 00 00 00	 call	 ?debug_fatal@@YAXPBDZZ	; debug_fatal
  000d4	83 c4 08	 add	 esp, 8
$LN2@process_se:

; 1583 : 
; 1584 : 			break;
; 1585 : 		}
; 1586 : 	}
; 1587 : 
; 1588 : 	//
; 1589 : 	//
; 1590 : 	//
; 1591 : 
; 1592 : 	set_local_entity_float_value (get_session_entity (), FLOAT_TYPE_START_TIME, setup_time);

  000d7	83 3d 00 00 00
	00 00		 cmp	 DWORD PTR ?session_entity@@3PAUENTITY@@A, 0 ; session_entity
  000de	74 0c		 je	 SHORT $LN12@process_se
  000e0	a1 00 00 00 00	 mov	 eax, DWORD PTR ?session_entity@@3PAUENTITY@@A ; session_entity
  000e5	8b 08		 mov	 ecx, DWORD PTR [eax]
  000e7	89 4d b4	 mov	 DWORD PTR tv131[ebp], ecx
  000ea	eb 21		 jmp	 SHORT $LN13@process_se
$LN12@process_se:
  000ec	8b 15 00 00 00
	00		 mov	 edx, DWORD PTR ?__LINE__Var@?0??process_session_setup_time_of_day_options@@YGXW4SESSION_TIME_OF_DAY_SETTINGS@@@Z@4JA
  000f2	83 c2 27	 add	 edx, 39			; 00000027H
  000f5	52		 push	 edx
  000f6	68 00 00 00 00	 push	 OFFSET ??_C@_0EI@IEMDHCOG@c?3?2users?2nhv90?2projects?2eech?2ap@
  000fb	a1 00 00 00 00	 mov	 eax, DWORD PTR ?null_entity_pointer_message@@3PBDB ; null_entity_pointer_message
  00100	50		 push	 eax
  00101	e8 00 00 00 00	 call	 ?process_assert@@YGXPBD0H@Z ; process_assert
  00106	c7 45 b4 00 00
	00 00		 mov	 DWORD PTR tv131[ebp], 0
$LN13@process_se:
  0010d	b9 01 00 00 00	 mov	 ecx, 1
  00112	85 c9		 test	 ecx, ecx
  00114	74 09		 je	 SHORT $LN14@process_se
  00116	c7 45 b0 7d 00
	00 00		 mov	 DWORD PTR tv139[ebp], 125 ; 0000007dH
  0011d	eb 21		 jmp	 SHORT $LN15@process_se
$LN14@process_se:
  0011f	8b 15 00 00 00
	00		 mov	 edx, DWORD PTR ?__LINE__Var@?0??process_session_setup_time_of_day_options@@YGXW4SESSION_TIME_OF_DAY_SETTINGS@@@Z@4JA
  00125	83 c2 27	 add	 edx, 39			; 00000027H
  00128	52		 push	 edx
  00129	68 00 00 00 00	 push	 OFFSET ??_C@_0EI@IEMDHCOG@c?3?2users?2nhv90?2projects?2eech?2ap@
  0012e	a1 00 00 00 00	 mov	 eax, DWORD PTR ?overload_invalid_float_type_message@@3PBDB ; overload_invalid_float_type_message
  00133	50		 push	 eax
  00134	e8 00 00 00 00	 call	 ?process_assert@@YGXPBD0H@Z ; process_assert
  00139	c7 45 b0 00 00
	00 00		 mov	 DWORD PTR tv139[ebp], 0
$LN15@process_se:
  00140	51		 push	 ecx
  00141	f3 0f 10 45 f8	 movss	 xmm0, DWORD PTR _setup_time$[ebp]
  00146	f3 0f 11 04 24	 movss	 DWORD PTR [esp], xmm0
  0014b	6a 7d		 push	 125			; 0000007dH
  0014d	8b 0d 00 00 00
	00		 mov	 ecx, DWORD PTR ?session_entity@@3PAUENTITY@@A ; session_entity
  00153	51		 push	 ecx
  00154	69 55 b4 bc 02
	00 00		 imul	 edx, DWORD PTR tv131[ebp], 700
  0015b	8b 45 b0	 mov	 eax, DWORD PTR tv139[ebp]
  0015e	8b 8c 82 00 00
	00 00		 mov	 ecx, DWORD PTR ?fn_set_local_entity_float_value@@3PAY0KP@P6GXPAUENTITY@@W4FLOAT_TYPES@@M@ZA[edx+eax*4]
  00165	ff d1		 call	 ecx

; 1593 : }

  00167	5f		 pop	 edi
  00168	5e		 pop	 esi
  00169	5b		 pop	 ebx
  0016a	8b e5		 mov	 esp, ebp
  0016c	5d		 pop	 ebp
  0016d	c2 04 00	 ret	 4
?process_session_setup_time_of_day_options@@YGXW4SESSION_TIME_OF_DAY_SETTINGS@@@Z ENDP ; process_session_setup_time_of_day_options
_TEXT	ENDS
; Function compile flags: /Odtp /ZI
; File c:\users\nhv90\projects\eech\aphavoc\source\ui_menu\sessparm\sparm_sc.c
;	COMDAT ?session_parameters_bounded_input_function@@YGXPAUUI_OBJECT@@PAXHH@Z
_TEXT	SEGMENT
tv77 = -88						; size = 4
tv78 = -84						; size = 4
_val$ = -16						; size = 4
_buffer$ = -12						; size = 8
_text$ = -4						; size = 4
_obj$ = 8						; size = 4
_arg$ = 12						; size = 4
_minimum$ = 16						; size = 4
_maximum$ = 20						; size = 4
?session_parameters_bounded_input_function@@YGXPAUUI_OBJECT@@PAXHH@Z PROC ; session_parameters_bounded_input_function, COMDAT

; 1418 : {

  00000	55		 push	 ebp
  00001	8b ec		 mov	 ebp, esp
  00003	83 ec 58	 sub	 esp, 88			; 00000058H
  00006	53		 push	 ebx
  00007	56		 push	 esi
  00008	57		 push	 edi

; 1419 : 	const char
; 1420 : 		*text;
; 1421 : 	char
; 1422 : 		buffer[ 8 ];
; 1423 : 
; 1424 : 	int
; 1425 : 		val;
; 1426 : 
; 1427 : 	obj;
; 1428 : 	arg;
; 1429 : 
; 1430 : // set input object on
; 1431 : // get text
; 1432 : // clear input object
; 1433 : // set input object to off
; 1434 : // process text
; 1435 : // set text area to on
; 1436 : 
; 1437 : 	text = get_ui_object_text( obj );

  00009	8b 45 08	 mov	 eax, DWORD PTR _obj$[ebp]
  0000c	50		 push	 eax
  0000d	8b 4d 08	 mov	 ecx, DWORD PTR _obj$[ebp]
  00010	8b 11		 mov	 edx, DWORD PTR [ecx]
  00012	8b 04 95 00 00
	00 00		 mov	 eax, DWORD PTR ?fn_get_ui_object_text@@3PAP6GPBDPAUUI_OBJECT@@@ZA[edx*4]
  00019	ff d0		 call	 eax
  0001b	89 45 fc	 mov	 DWORD PTR _text$[ebp], eax

; 1438 : 
; 1439 : 	if ( ( text ) && ( strlen( text ) > 0 ) )

  0001e	83 7d fc 00	 cmp	 DWORD PTR _text$[ebp], 0
  00022	74 7b		 je	 SHORT $LN2@session_pa
  00024	8b 45 fc	 mov	 eax, DWORD PTR _text$[ebp]
  00027	50		 push	 eax
  00028	e8 00 00 00 00	 call	 _strlen
  0002d	83 c4 04	 add	 esp, 4
  00030	85 c0		 test	 eax, eax
  00032	76 6b		 jbe	 SHORT $LN2@session_pa

; 1440 : 	{
; 1441 : 		val = atoi ( text );

  00034	8b 45 fc	 mov	 eax, DWORD PTR _text$[ebp]
  00037	50		 push	 eax
  00038	ff 15 00 00 00
	00		 call	 DWORD PTR __imp__atoi
  0003e	83 c4 04	 add	 esp, 4
  00041	89 45 f0	 mov	 DWORD PTR _val$[ebp], eax

; 1442 : 
; 1443 : 		val = bound ( val, minimum, maximum );

  00044	8b 45 f0	 mov	 eax, DWORD PTR _val$[ebp]
  00047	3b 45 10	 cmp	 eax, DWORD PTR _minimum$[ebp]
  0004a	7d 08		 jge	 SHORT $LN6@session_pa
  0004c	8b 4d 10	 mov	 ecx, DWORD PTR _minimum$[ebp]
  0004f	89 4d ac	 mov	 DWORD PTR tv78[ebp], ecx
  00052	eb 1c		 jmp	 SHORT $LN7@session_pa
$LN6@session_pa:
  00054	8b 55 f0	 mov	 edx, DWORD PTR _val$[ebp]
  00057	3b 55 14	 cmp	 edx, DWORD PTR _maximum$[ebp]
  0005a	7e 08		 jle	 SHORT $LN4@session_pa
  0005c	8b 45 14	 mov	 eax, DWORD PTR _maximum$[ebp]
  0005f	89 45 a8	 mov	 DWORD PTR tv77[ebp], eax
  00062	eb 06		 jmp	 SHORT $LN5@session_pa
$LN4@session_pa:
  00064	8b 4d f0	 mov	 ecx, DWORD PTR _val$[ebp]
  00067	89 4d a8	 mov	 DWORD PTR tv77[ebp], ecx
$LN5@session_pa:
  0006a	8b 55 a8	 mov	 edx, DWORD PTR tv77[ebp]
  0006d	89 55 ac	 mov	 DWORD PTR tv78[ebp], edx
$LN7@session_pa:
  00070	8b 45 ac	 mov	 eax, DWORD PTR tv78[ebp]
  00073	89 45 f0	 mov	 DWORD PTR _val$[ebp], eax

; 1444 : 
; 1445 : 		itoa ( val, buffer, 10 );

  00076	6a 0a		 push	 10			; 0000000aH
  00078	8d 45 f4	 lea	 eax, DWORD PTR _buffer$[ebp]
  0007b	50		 push	 eax
  0007c	8b 4d f0	 mov	 ecx, DWORD PTR _val$[ebp]
  0007f	51		 push	 ecx
  00080	ff 15 00 00 00
	00		 call	 DWORD PTR __imp___itoa
  00086	83 c4 0c	 add	 esp, 12			; 0000000cH

; 1446 : 
; 1447 : 		set_ui_object_text ( obj, buffer );

  00089	8d 45 f4	 lea	 eax, DWORD PTR _buffer$[ebp]
  0008c	50		 push	 eax
  0008d	8b 4d 08	 mov	 ecx, DWORD PTR _obj$[ebp]
  00090	51		 push	 ecx
  00091	8b 55 08	 mov	 edx, DWORD PTR _obj$[ebp]
  00094	8b 02		 mov	 eax, DWORD PTR [edx]
  00096	8b 0c 85 00 00
	00 00		 mov	 ecx, DWORD PTR ?fn_set_ui_object_text@@3PAP6GXPAUUI_OBJECT@@PBD@ZA[eax*4]
  0009d	ff d1		 call	 ecx
$LN2@session_pa:

; 1448 : 	}
; 1449 : 
; 1450 : 	session_parameters_text_input_function ( obj, arg );

  0009f	8b 45 0c	 mov	 eax, DWORD PTR _arg$[ebp]
  000a2	50		 push	 eax
  000a3	8b 4d 08	 mov	 ecx, DWORD PTR _obj$[ebp]
  000a6	51		 push	 ecx
  000a7	e8 00 00 00 00	 call	 ?session_parameters_text_input_function@@YGXPAUUI_OBJECT@@PAX@Z ; session_parameters_text_input_function

; 1451 : }

  000ac	5f		 pop	 edi
  000ad	5e		 pop	 esi
  000ae	5b		 pop	 ebx
  000af	8b e5		 mov	 esp, ebp
  000b1	5d		 pop	 ebp
  000b2	c2 10 00	 ret	 16			; 00000010H
?session_parameters_bounded_input_function@@YGXPAUUI_OBJECT@@PAXHH@Z ENDP ; session_parameters_bounded_input_function
_TEXT	ENDS
; Function compile flags: /Odtp /ZI
; File c:\users\nhv90\projects\eech\aphavoc\source\ui_menu\sessparm\sparm_sc.c
;	COMDAT ?session_parameters_text_input_function@@YGXPAUUI_OBJECT@@PAX@Z
_TEXT	SEGMENT
_value$ = -12						; size = 4
_text_object$ = -8					; size = 4
_text$ = -4						; size = 4
_obj$ = 8						; size = 4
_arg$ = 12						; size = 4
?session_parameters_text_input_function@@YGXPAUUI_OBJECT@@PAX@Z PROC ; session_parameters_text_input_function, COMDAT

; 1323 : {

  00000	55		 push	 ebp
  00001	8b ec		 mov	 ebp, esp
  00003	83 ec 4c	 sub	 esp, 76			; 0000004cH
  00006	53		 push	 ebx
  00007	56		 push	 esi
  00008	57		 push	 edi

; 1324 : 
; 1325 : 	const char
; 1326 : 		*text;
; 1327 : 
; 1328 : 	ui_object
; 1329 : 		*text_object;
; 1330 : 
; 1331 : 	int
; 1332 : 		value;
; 1333 : 
; 1334 : 	obj;
; 1335 : 	arg;
; 1336 : 
; 1337 : 	text = get_ui_object_text ( obj );

  00009	8b 45 08	 mov	 eax, DWORD PTR _obj$[ebp]
  0000c	50		 push	 eax
  0000d	8b 4d 08	 mov	 ecx, DWORD PTR _obj$[ebp]
  00010	8b 11		 mov	 edx, DWORD PTR [ecx]
  00012	8b 04 95 00 00
	00 00		 mov	 eax, DWORD PTR ?fn_get_ui_object_text@@3PAP6GPBDPAUUI_OBJECT@@@ZA[edx*4]
  00019	ff d0		 call	 eax
  0001b	89 45 fc	 mov	 DWORD PTR _text$[ebp], eax

; 1338 : 
; 1339 : 	text_object = ( ui_object * ) get_ui_object_item_number ( obj );

  0001e	8b 45 08	 mov	 eax, DWORD PTR _obj$[ebp]
  00021	50		 push	 eax
  00022	8b 4d 08	 mov	 ecx, DWORD PTR _obj$[ebp]
  00025	8b 11		 mov	 edx, DWORD PTR [ecx]
  00027	8b 04 95 00 00
	00 00		 mov	 eax, DWORD PTR ?fn_get_ui_object_item_number@@3PAP6GHPAUUI_OBJECT@@@ZA[edx*4]
  0002e	ff d0		 call	 eax
  00030	89 45 f8	 mov	 DWORD PTR _text_object$[ebp], eax

; 1340 : 
; 1341 : 	if ( ( text ) && ( strlen ( text ) > 0 ) )

  00033	83 7d fc 00	 cmp	 DWORD PTR _text$[ebp], 0
  00037	74 28		 je	 SHORT $LN2@session_pa
  00039	8b 45 fc	 mov	 eax, DWORD PTR _text$[ebp]
  0003c	50		 push	 eax
  0003d	e8 00 00 00 00	 call	 _strlen
  00042	83 c4 04	 add	 esp, 4
  00045	85 c0		 test	 eax, eax
  00047	76 18		 jbe	 SHORT $LN2@session_pa

; 1342 : 	{
; 1343 : 
; 1344 : 		set_ui_object_text ( text_object, text );

  00049	8b 45 fc	 mov	 eax, DWORD PTR _text$[ebp]
  0004c	50		 push	 eax
  0004d	8b 4d f8	 mov	 ecx, DWORD PTR _text_object$[ebp]
  00050	51		 push	 ecx
  00051	8b 55 f8	 mov	 edx, DWORD PTR _text_object$[ebp]
  00054	8b 02		 mov	 eax, DWORD PTR [edx]
  00056	8b 0c 85 00 00
	00 00		 mov	 ecx, DWORD PTR ?fn_set_ui_object_text@@3PAP6GXPAUUI_OBJECT@@PBD@ZA[eax*4]
  0005d	ff d1		 call	 ecx

; 1345 : 	}
; 1346 : 	else

  0005f	eb 17		 jmp	 SHORT $LN3@session_pa
$LN2@session_pa:

; 1347 : 	{
; 1348 : 
; 1349 : 		set_ui_object_text ( text_object, "" );

  00061	68 00 00 00 00	 push	 OFFSET ??_C@_00CNPNBAHC@@
  00066	8b 45 f8	 mov	 eax, DWORD PTR _text_object$[ebp]
  00069	50		 push	 eax
  0006a	8b 4d f8	 mov	 ecx, DWORD PTR _text_object$[ebp]
  0006d	8b 11		 mov	 edx, DWORD PTR [ecx]
  0006f	8b 04 95 00 00
	00 00		 mov	 eax, DWORD PTR ?fn_set_ui_object_text@@3PAP6GXPAUUI_OBJECT@@PBD@ZA[edx*4]
  00076	ff d0		 call	 eax
$LN3@session_pa:

; 1350 : 	}
; 1351 : 
; 1352 : 	//
; 1353 : 	// Now put the value into global options
; 1354 : 	//
; 1355 : 
; 1356 : 	value = -1;

  00078	c7 45 f4 ff ff
	ff ff		 mov	 DWORD PTR _value$[ebp], -1

; 1357 : 
; 1358 : 	if ( strlen ( get_ui_object_text ( text_object ) ) > 0 )

  0007f	8b 45 f8	 mov	 eax, DWORD PTR _text_object$[ebp]
  00082	50		 push	 eax
  00083	8b 4d f8	 mov	 ecx, DWORD PTR _text_object$[ebp]
  00086	8b 11		 mov	 edx, DWORD PTR [ecx]
  00088	8b 04 95 00 00
	00 00		 mov	 eax, DWORD PTR ?fn_get_ui_object_text@@3PAP6GPBDPAUUI_OBJECT@@@ZA[edx*4]
  0008f	ff d0		 call	 eax
  00091	50		 push	 eax
  00092	e8 00 00 00 00	 call	 _strlen
  00097	83 c4 04	 add	 esp, 4
  0009a	85 c0		 test	 eax, eax
  0009c	76 24		 jbe	 SHORT $LN4@session_pa

; 1359 : 	{
; 1360 : 
; 1361 : 		sscanf ( get_ui_object_text ( text_object ), "%d", &value );

  0009e	8d 45 f4	 lea	 eax, DWORD PTR _value$[ebp]
  000a1	50		 push	 eax
  000a2	68 00 00 00 00	 push	 OFFSET ??_C@_02DPKJAMEF@?$CFd@
  000a7	8b 4d f8	 mov	 ecx, DWORD PTR _text_object$[ebp]
  000aa	51		 push	 ecx
  000ab	8b 55 f8	 mov	 edx, DWORD PTR _text_object$[ebp]
  000ae	8b 02		 mov	 eax, DWORD PTR [edx]
  000b0	8b 0c 85 00 00
	00 00		 mov	 ecx, DWORD PTR ?fn_get_ui_object_text@@3PAP6GPBDPAUUI_OBJECT@@@ZA[eax*4]
  000b7	ff d1		 call	 ecx
  000b9	50		 push	 eax
  000ba	e8 00 00 00 00	 call	 _sscanf
  000bf	83 c4 0c	 add	 esp, 12			; 0000000cH
$LN4@session_pa:

; 1362 : 	}
; 1363 : 
; 1364 : #if 0
; 1365 : 	switch ( get_ui_object_item_number ( text_object ) )
; 1366 : 	{
; 1367 : /*
; 1368 : 		case TEXT_INPUT_TIME_LIMIT:
; 1369 : 		{
; 1370 : 
; 1371 : 			if ( value >= 0 )
; 1372 : 			{
; 1373 : 
; 1374 : 				set_global_session_special_time_limit ( value );
; 1375 : 			}
; 1376 : 			else
; 1377 : 			{
; 1378 : 
; 1379 : 				set_global_session_special_time_limit ( 0 );
; 1380 : 			}
; 1381 : 
; 1382 : 			break;
; 1383 : 		}
; 1384 : 
; 1385 : 		case TEXT_INPUT_KILL_LIMIT:
; 1386 : 		{
; 1387 : 
; 1388 : 
; 1389 : 			sscanf ( get_ui_object_text ( text_object ), "%d", &value );
; 1390 : 
; 1391 : 			if ( value >= 0 )
; 1392 : 			{
; 1393 : 
; 1394 : 				set_global_session_special_kill_limit ( value );
; 1395 : 			}
; 1396 : 			else
; 1397 : 			{
; 1398 : 
; 1399 : 				set_global_session_special_kill_limit ( 0 );
; 1400 : 			}
; 1401 : 
; 1402 : 			break;
; 1403 : 		}
; 1404 : */
; 1405 : 	}
; 1406 : #endif
; 1407 : 
; 1408 : 	set_ui_object_drawable ( ( ui_object * ) get_ui_object_item_number ( obj ), TRUE );

  000c2	6a 01		 push	 1
  000c4	8b 45 08	 mov	 eax, DWORD PTR _obj$[ebp]
  000c7	50		 push	 eax
  000c8	8b 4d 08	 mov	 ecx, DWORD PTR _obj$[ebp]
  000cb	8b 11		 mov	 edx, DWORD PTR [ecx]
  000cd	8b 04 95 00 00
	00 00		 mov	 eax, DWORD PTR ?fn_get_ui_object_item_number@@3PAP6GHPAUUI_OBJECT@@@ZA[edx*4]
  000d4	ff d0		 call	 eax
  000d6	50		 push	 eax
  000d7	8b 4d 08	 mov	 ecx, DWORD PTR _obj$[ebp]
  000da	51		 push	 ecx
  000db	8b 55 08	 mov	 edx, DWORD PTR _obj$[ebp]
  000de	8b 02		 mov	 eax, DWORD PTR [edx]
  000e0	8b 0c 85 00 00
	00 00		 mov	 ecx, DWORD PTR ?fn_get_ui_object_item_number@@3PAP6GHPAUUI_OBJECT@@@ZA[eax*4]
  000e7	ff d1		 call	 ecx
  000e9	8b 10		 mov	 edx, DWORD PTR [eax]
  000eb	8b 04 95 00 00
	00 00		 mov	 eax, DWORD PTR ?fn_set_ui_object_drawable@@3PAP6GXPAUUI_OBJECT@@H@ZA[edx*4]
  000f2	ff d0		 call	 eax

; 1409 : 
; 1410 : 	ui_force_update ();

  000f4	e8 00 00 00 00	 call	 ?ui_force_update@@YGXXZ	; ui_force_update

; 1411 : }

  000f9	5f		 pop	 edi
  000fa	5e		 pop	 esi
  000fb	5b		 pop	 ebx
  000fc	8b e5		 mov	 esp, ebp
  000fe	5d		 pop	 ebp
  000ff	c2 08 00	 ret	 8
?session_parameters_text_input_function@@YGXPAUUI_OBJECT@@PAX@Z ENDP ; session_parameters_text_input_function
_TEXT	ENDS
; Function compile flags: /Odtp /ZI
; File c:\users\nhv90\projects\eech\aphavoc\source\ui_menu\sessparm\sparm_sc.c
;	COMDAT ?session_parameters_kill_limit_input_function@@YGXPAUUI_OBJECT@@PAX@Z
_TEXT	SEGMENT
_obj$ = 8						; size = 4
_arg$ = 12						; size = 4
?session_parameters_kill_limit_input_function@@YGXPAUUI_OBJECT@@PAX@Z PROC ; session_parameters_kill_limit_input_function, COMDAT

; 1471 : {

  00000	55		 push	 ebp
  00001	8b ec		 mov	 ebp, esp
  00003	83 ec 40	 sub	 esp, 64			; 00000040H
  00006	53		 push	 ebx
  00007	56		 push	 esi
  00008	57		 push	 edi

; 1472 : 	//
; 1473 : 	// max kills limit dependent only on number of bits used to store kills !
; 1474 : 	//
; 1475 : 
; 1476 : 	session_parameters_bounded_input_function ( obj, arg, 0, (1 << (NUM_KILLS_BITS - 1)) - 1 );

  00009	68 ff 07 00 00	 push	 2047			; 000007ffH
  0000e	6a 00		 push	 0
  00010	8b 45 0c	 mov	 eax, DWORD PTR _arg$[ebp]
  00013	50		 push	 eax
  00014	8b 4d 08	 mov	 ecx, DWORD PTR _obj$[ebp]
  00017	51		 push	 ecx
  00018	e8 00 00 00 00	 call	 ?session_parameters_bounded_input_function@@YGXPAUUI_OBJECT@@PAXHH@Z ; session_parameters_bounded_input_function

; 1477 : }

  0001d	5f		 pop	 edi
  0001e	5e		 pop	 esi
  0001f	5b		 pop	 ebx
  00020	8b e5		 mov	 esp, ebp
  00022	5d		 pop	 ebp
  00023	c2 08 00	 ret	 8
?session_parameters_kill_limit_input_function@@YGXPAUUI_OBJECT@@PAX@Z ENDP ; session_parameters_kill_limit_input_function
_TEXT	ENDS
; Function compile flags: /Odtp /ZI
; File c:\users\nhv90\projects\eech\aphavoc\source\ui_menu\sessparm\sparm_sc.c
;	COMDAT ?session_parameters_time_limit_input_function@@YGXPAUUI_OBJECT@@PAX@Z
_TEXT	SEGMENT
_obj$ = 8						; size = 4
_arg$ = 12						; size = 4
?session_parameters_time_limit_input_function@@YGXPAUUI_OBJECT@@PAX@Z PROC ; session_parameters_time_limit_input_function, COMDAT

; 1458 : {

  00000	55		 push	 ebp
  00001	8b ec		 mov	 ebp, esp
  00003	83 ec 40	 sub	 esp, 64			; 00000040H
  00006	53		 push	 ebx
  00007	56		 push	 esi
  00008	57		 push	 edi

; 1459 : 	//
; 1460 : 	// max time limit 60 minutes
; 1461 : 	//
; 1462 : 
; 1463 : 	session_parameters_bounded_input_function ( obj, arg, 0, 60 );

  00009	6a 3c		 push	 60			; 0000003cH
  0000b	6a 00		 push	 0
  0000d	8b 45 0c	 mov	 eax, DWORD PTR _arg$[ebp]
  00010	50		 push	 eax
  00011	8b 4d 08	 mov	 ecx, DWORD PTR _obj$[ebp]
  00014	51		 push	 ecx
  00015	e8 00 00 00 00	 call	 ?session_parameters_bounded_input_function@@YGXPAUUI_OBJECT@@PAXHH@Z ; session_parameters_bounded_input_function

; 1464 : }

  0001a	5f		 pop	 edi
  0001b	5e		 pop	 esi
  0001c	5b		 pop	 ebx
  0001d	8b e5		 mov	 esp, ebp
  0001f	5d		 pop	 ebp
  00020	c2 08 00	 ret	 8
?session_parameters_time_limit_input_function@@YGXPAUUI_OBJECT@@PAX@Z ENDP ; session_parameters_time_limit_input_function
_TEXT	ENDS
; Function compile flags: /Odtp /ZI
; File c:\users\nhv90\projects\eech\aphavoc\source\ui_menu\sessparm\sparm_sc.c
;	COMDAT ?notify_realism_suppress_ai_fire_function@@YGXPAUUI_OBJECT@@PAX@Z
_TEXT	SEGMENT
tv130 = -68						; size = 4
tv87 = -68						; size = 4
tv79 = -68						; size = 4
tv68 = -68						; size = 4
tv64 = -68						; size = 4
_obj$ = 8						; size = 4
_arg$ = 12						; size = 4
?notify_realism_suppress_ai_fire_function@@YGXPAUUI_OBJECT@@PAX@Z PROC ; notify_realism_suppress_ai_fire_function, COMDAT

; 1288 : {

  00000	55		 push	 ebp
  00001	8b ec		 mov	 ebp, esp
  00003	83 ec 44	 sub	 esp, 68			; 00000044H
  00006	53		 push	 ebx
  00007	56		 push	 esi
  00008	57		 push	 edi

; 1289 : 
; 1290 : 	switch ( get_game_type () )

  00009	a1 00 00 00 00	 mov	 eax, DWORD PTR ?game_type@@3W4GAME_TYPES@@A ; game_type
  0000e	89 45 bc	 mov	 DWORD PTR tv64[ebp], eax
  00011	83 7d bc 01	 cmp	 DWORD PTR tv64[ebp], 1
  00015	74 15		 je	 SHORT $LN4@notify_rea
  00017	83 7d bc 01	 cmp	 DWORD PTR tv64[ebp], 1
  0001b	0f 8e f2 00 00
	00		 jle	 $LN2@notify_rea
  00021	83 7d bc 03	 cmp	 DWORD PTR tv64[ebp], 3
  00025	7e 78		 jle	 SHORT $LN5@notify_rea
  00027	e9 e7 00 00 00	 jmp	 $LN2@notify_rea
$LN4@notify_rea:

; 1291 : 	{
; 1292 : 		case GAME_TYPE_FREE_FLIGHT:
; 1293 : 		{
; 1294 : 			set_global_session_free_flight_realism_suppress_ai_fire (!get_global_session_free_flight_realism_suppress_ai_fire ());

  0002c	a1 b0 01 00 00	 mov	 eax, DWORD PTR ?global_options@@3UGLOBAL_OPTIONS_DATA@@A+432
  00031	c1 e8 04	 shr	 eax, 4
  00034	83 e0 01	 and	 eax, 1
  00037	75 09		 jne	 SHORT $LN7@notify_rea
  00039	c7 45 bc 01 00
	00 00		 mov	 DWORD PTR tv68[ebp], 1
  00040	eb 07		 jmp	 SHORT $LN8@notify_rea
$LN7@notify_rea:
  00042	c7 45 bc 00 00
	00 00		 mov	 DWORD PTR tv68[ebp], 0
$LN8@notify_rea:
  00049	8b 4d bc	 mov	 ecx, DWORD PTR tv68[ebp]
  0004c	83 e1 01	 and	 ecx, 1
  0004f	c1 e1 04	 shl	 ecx, 4
  00052	8b 15 b0 01 00
	00		 mov	 edx, DWORD PTR ?global_options@@3UGLOBAL_OPTIONS_DATA@@A+432
  00058	83 e2 ef	 and	 edx, -17		; ffffffefH
  0005b	0b d1		 or	 edx, ecx
  0005d	89 15 b0 01 00
	00		 mov	 DWORD PTR ?global_options@@3UGLOBAL_OPTIONS_DATA@@A+432, edx

; 1295 : 
; 1296 : 			set_ui_object_text (obj, suppress_ai_fire_text [!get_global_session_free_flight_realism_suppress_ai_fire ()]);

  00063	a1 b0 01 00 00	 mov	 eax, DWORD PTR ?global_options@@3UGLOBAL_OPTIONS_DATA@@A+432
  00068	c1 e8 04	 shr	 eax, 4
  0006b	83 e0 01	 and	 eax, 1
  0006e	75 09		 jne	 SHORT $LN9@notify_rea
  00070	c7 45 bc 01 00
	00 00		 mov	 DWORD PTR tv79[ebp], 1
  00077	eb 07		 jmp	 SHORT $LN10@notify_rea
$LN9@notify_rea:
  00079	c7 45 bc 00 00
	00 00		 mov	 DWORD PTR tv79[ebp], 0
$LN10@notify_rea:
  00080	8b 4d bc	 mov	 ecx, DWORD PTR tv79[ebp]
  00083	8b 14 8d 00 00
	00 00		 mov	 edx, DWORD PTR ?suppress_ai_fire_text@@3PAPBDA[ecx*4]
  0008a	52		 push	 edx
  0008b	8b 45 08	 mov	 eax, DWORD PTR _obj$[ebp]
  0008e	50		 push	 eax
  0008f	8b 4d 08	 mov	 ecx, DWORD PTR _obj$[ebp]
  00092	8b 11		 mov	 edx, DWORD PTR [ecx]
  00094	8b 04 95 00 00
	00 00		 mov	 eax, DWORD PTR ?fn_set_ui_object_text@@3PAP6GXPAUUI_OBJECT@@PBD@ZA[edx*4]
  0009b	ff d0		 call	 eax

; 1297 : 
; 1298 : 			break;

  0009d	eb 74		 jmp	 SHORT $LN2@notify_rea
$LN5@notify_rea:

; 1299 : 		}
; 1300 : 
; 1301 : 		case GAME_TYPE_CAMPAIGN:
; 1302 : 		case GAME_TYPE_SKIRMISH:
; 1303 : 		{
; 1304 : 			set_global_session_campaign_realism_suppress_ai_fire (!get_global_session_campaign_realism_suppress_ai_fire ());

  0009f	a1 b0 01 00 00	 mov	 eax, DWORD PTR ?global_options@@3UGLOBAL_OPTIONS_DATA@@A+432
  000a4	c1 e8 09	 shr	 eax, 9
  000a7	83 e0 01	 and	 eax, 1
  000aa	75 09		 jne	 SHORT $LN11@notify_rea
  000ac	c7 45 bc 01 00
	00 00		 mov	 DWORD PTR tv87[ebp], 1
  000b3	eb 07		 jmp	 SHORT $LN12@notify_rea
$LN11@notify_rea:
  000b5	c7 45 bc 00 00
	00 00		 mov	 DWORD PTR tv87[ebp], 0
$LN12@notify_rea:
  000bc	8b 4d bc	 mov	 ecx, DWORD PTR tv87[ebp]
  000bf	83 e1 01	 and	 ecx, 1
  000c2	c1 e1 09	 shl	 ecx, 9
  000c5	8b 15 b0 01 00
	00		 mov	 edx, DWORD PTR ?global_options@@3UGLOBAL_OPTIONS_DATA@@A+432
  000cb	81 e2 ff fd ff
	ff		 and	 edx, -513		; fffffdffH
  000d1	0b d1		 or	 edx, ecx
  000d3	89 15 b0 01 00
	00		 mov	 DWORD PTR ?global_options@@3UGLOBAL_OPTIONS_DATA@@A+432, edx

; 1305 : 
; 1306 : 			set_ui_object_text (obj, suppress_ai_fire_text [!get_global_session_campaign_realism_suppress_ai_fire ()]);

  000d9	a1 b0 01 00 00	 mov	 eax, DWORD PTR ?global_options@@3UGLOBAL_OPTIONS_DATA@@A+432
  000de	c1 e8 09	 shr	 eax, 9
  000e1	83 e0 01	 and	 eax, 1
  000e4	75 09		 jne	 SHORT $LN13@notify_rea
  000e6	c7 45 bc 01 00
	00 00		 mov	 DWORD PTR tv130[ebp], 1
  000ed	eb 07		 jmp	 SHORT $LN14@notify_rea
$LN13@notify_rea:
  000ef	c7 45 bc 00 00
	00 00		 mov	 DWORD PTR tv130[ebp], 0
$LN14@notify_rea:
  000f6	8b 4d bc	 mov	 ecx, DWORD PTR tv130[ebp]
  000f9	8b 14 8d 00 00
	00 00		 mov	 edx, DWORD PTR ?suppress_ai_fire_text@@3PAPBDA[ecx*4]
  00100	52		 push	 edx
  00101	8b 45 08	 mov	 eax, DWORD PTR _obj$[ebp]
  00104	50		 push	 eax
  00105	8b 4d 08	 mov	 ecx, DWORD PTR _obj$[ebp]
  00108	8b 11		 mov	 edx, DWORD PTR [ecx]
  0010a	8b 04 95 00 00
	00 00		 mov	 eax, DWORD PTR ?fn_set_ui_object_text@@3PAP6GXPAUUI_OBJECT@@PBD@ZA[edx*4]
  00111	ff d0		 call	 eax
$LN2@notify_rea:

; 1307 : 
; 1308 : 			break;
; 1309 : 		}
; 1310 : 	}
; 1311 : 
; 1312 : 	// don't leave text selected
; 1313 : 
; 1314 : 	set_toggle_button_off (obj);

  00113	8b 45 08	 mov	 eax, DWORD PTR _obj$[ebp]
  00116	50		 push	 eax
  00117	e8 00 00 00 00	 call	 ?set_toggle_button_off@@YGXPAUUI_OBJECT@@@Z ; set_toggle_button_off

; 1315 : 
; 1316 : }

  0011c	5f		 pop	 edi
  0011d	5e		 pop	 esi
  0011e	5b		 pop	 ebx
  0011f	8b e5		 mov	 esp, ebp
  00121	5d		 pop	 ebp
  00122	c2 08 00	 ret	 8
?notify_realism_suppress_ai_fire_function@@YGXPAUUI_OBJECT@@PAX@Z ENDP ; notify_realism_suppress_ai_fire_function
_TEXT	ENDS
; Function compile flags: /Odtp /ZI
; File c:\users\nhv90\projects\eech\aphavoc\source\ui_menu\sessparm\sparm_sc.c
;	COMDAT ?notify_realism_weapons_damage_function@@YGXPAUUI_OBJECT@@PAX@Z
_TEXT	SEGMENT
tv130 = -68						; size = 4
tv87 = -68						; size = 4
tv79 = -68						; size = 4
tv68 = -68						; size = 4
tv64 = -68						; size = 4
_obj$ = 8						; size = 4
_arg$ = 12						; size = 4
?notify_realism_weapons_damage_function@@YGXPAUUI_OBJECT@@PAX@Z PROC ; notify_realism_weapons_damage_function, COMDAT

; 1253 : {

  00000	55		 push	 ebp
  00001	8b ec		 mov	 ebp, esp
  00003	83 ec 44	 sub	 esp, 68			; 00000044H
  00006	53		 push	 ebx
  00007	56		 push	 esi
  00008	57		 push	 edi

; 1254 : 
; 1255 : 	switch ( get_game_type () )

  00009	a1 00 00 00 00	 mov	 eax, DWORD PTR ?game_type@@3W4GAME_TYPES@@A ; game_type
  0000e	89 45 bc	 mov	 DWORD PTR tv64[ebp], eax
  00011	83 7d bc 01	 cmp	 DWORD PTR tv64[ebp], 1
  00015	74 15		 je	 SHORT $LN4@notify_rea
  00017	83 7d bc 01	 cmp	 DWORD PTR tv64[ebp], 1
  0001b	0f 8e f2 00 00
	00		 jle	 $LN2@notify_rea
  00021	83 7d bc 03	 cmp	 DWORD PTR tv64[ebp], 3
  00025	7e 78		 jle	 SHORT $LN5@notify_rea
  00027	e9 e7 00 00 00	 jmp	 $LN2@notify_rea
$LN4@notify_rea:

; 1256 : 	{
; 1257 : 		case GAME_TYPE_FREE_FLIGHT:
; 1258 : 		{
; 1259 : 			set_global_session_free_flight_realism_invulnerable_from_weapons (!get_global_session_free_flight_realism_invulnerable_from_weapons ());

  0002c	a1 b0 01 00 00	 mov	 eax, DWORD PTR ?global_options@@3UGLOBAL_OPTIONS_DATA@@A+432
  00031	c1 e8 02	 shr	 eax, 2
  00034	83 e0 01	 and	 eax, 1
  00037	75 09		 jne	 SHORT $LN7@notify_rea
  00039	c7 45 bc 01 00
	00 00		 mov	 DWORD PTR tv68[ebp], 1
  00040	eb 07		 jmp	 SHORT $LN8@notify_rea
$LN7@notify_rea:
  00042	c7 45 bc 00 00
	00 00		 mov	 DWORD PTR tv68[ebp], 0
$LN8@notify_rea:
  00049	8b 4d bc	 mov	 ecx, DWORD PTR tv68[ebp]
  0004c	83 e1 01	 and	 ecx, 1
  0004f	c1 e1 02	 shl	 ecx, 2
  00052	8b 15 b0 01 00
	00		 mov	 edx, DWORD PTR ?global_options@@3UGLOBAL_OPTIONS_DATA@@A+432
  00058	83 e2 fb	 and	 edx, -5			; fffffffbH
  0005b	0b d1		 or	 edx, ecx
  0005d	89 15 b0 01 00
	00		 mov	 DWORD PTR ?global_options@@3UGLOBAL_OPTIONS_DATA@@A+432, edx

; 1260 : 
; 1261 : 			set_ui_object_text (obj, boolean_text [!get_global_session_free_flight_realism_invulnerable_from_weapons ()]);

  00063	a1 b0 01 00 00	 mov	 eax, DWORD PTR ?global_options@@3UGLOBAL_OPTIONS_DATA@@A+432
  00068	c1 e8 02	 shr	 eax, 2
  0006b	83 e0 01	 and	 eax, 1
  0006e	75 09		 jne	 SHORT $LN9@notify_rea
  00070	c7 45 bc 01 00
	00 00		 mov	 DWORD PTR tv79[ebp], 1
  00077	eb 07		 jmp	 SHORT $LN10@notify_rea
$LN9@notify_rea:
  00079	c7 45 bc 00 00
	00 00		 mov	 DWORD PTR tv79[ebp], 0
$LN10@notify_rea:
  00080	8b 4d bc	 mov	 ecx, DWORD PTR tv79[ebp]
  00083	8b 14 8d 00 00
	00 00		 mov	 edx, DWORD PTR ?boolean_text@@3PAPBDA[ecx*4]
  0008a	52		 push	 edx
  0008b	8b 45 08	 mov	 eax, DWORD PTR _obj$[ebp]
  0008e	50		 push	 eax
  0008f	8b 4d 08	 mov	 ecx, DWORD PTR _obj$[ebp]
  00092	8b 11		 mov	 edx, DWORD PTR [ecx]
  00094	8b 04 95 00 00
	00 00		 mov	 eax, DWORD PTR ?fn_set_ui_object_text@@3PAP6GXPAUUI_OBJECT@@PBD@ZA[edx*4]
  0009b	ff d0		 call	 eax

; 1262 : 
; 1263 : 			break;

  0009d	eb 74		 jmp	 SHORT $LN2@notify_rea
$LN5@notify_rea:

; 1264 : 		}
; 1265 : 
; 1266 : 		case GAME_TYPE_CAMPAIGN:
; 1267 : 		case GAME_TYPE_SKIRMISH:
; 1268 : 		{
; 1269 : 			set_global_session_campaign_realism_invulnerable_from_weapons (!get_global_session_campaign_realism_invulnerable_from_weapons ());

  0009f	a1 b0 01 00 00	 mov	 eax, DWORD PTR ?global_options@@3UGLOBAL_OPTIONS_DATA@@A+432
  000a4	c1 e8 07	 shr	 eax, 7
  000a7	83 e0 01	 and	 eax, 1
  000aa	75 09		 jne	 SHORT $LN11@notify_rea
  000ac	c7 45 bc 01 00
	00 00		 mov	 DWORD PTR tv87[ebp], 1
  000b3	eb 07		 jmp	 SHORT $LN12@notify_rea
$LN11@notify_rea:
  000b5	c7 45 bc 00 00
	00 00		 mov	 DWORD PTR tv87[ebp], 0
$LN12@notify_rea:
  000bc	8b 4d bc	 mov	 ecx, DWORD PTR tv87[ebp]
  000bf	83 e1 01	 and	 ecx, 1
  000c2	c1 e1 07	 shl	 ecx, 7
  000c5	8b 15 b0 01 00
	00		 mov	 edx, DWORD PTR ?global_options@@3UGLOBAL_OPTIONS_DATA@@A+432
  000cb	81 e2 7f ff ff
	ff		 and	 edx, -129		; ffffff7fH
  000d1	0b d1		 or	 edx, ecx
  000d3	89 15 b0 01 00
	00		 mov	 DWORD PTR ?global_options@@3UGLOBAL_OPTIONS_DATA@@A+432, edx

; 1270 : 
; 1271 : 			set_ui_object_text (obj, boolean_text [!get_global_session_campaign_realism_invulnerable_from_weapons ()]);

  000d9	a1 b0 01 00 00	 mov	 eax, DWORD PTR ?global_options@@3UGLOBAL_OPTIONS_DATA@@A+432
  000de	c1 e8 07	 shr	 eax, 7
  000e1	83 e0 01	 and	 eax, 1
  000e4	75 09		 jne	 SHORT $LN13@notify_rea
  000e6	c7 45 bc 01 00
	00 00		 mov	 DWORD PTR tv130[ebp], 1
  000ed	eb 07		 jmp	 SHORT $LN14@notify_rea
$LN13@notify_rea:
  000ef	c7 45 bc 00 00
	00 00		 mov	 DWORD PTR tv130[ebp], 0
$LN14@notify_rea:
  000f6	8b 4d bc	 mov	 ecx, DWORD PTR tv130[ebp]
  000f9	8b 14 8d 00 00
	00 00		 mov	 edx, DWORD PTR ?boolean_text@@3PAPBDA[ecx*4]
  00100	52		 push	 edx
  00101	8b 45 08	 mov	 eax, DWORD PTR _obj$[ebp]
  00104	50		 push	 eax
  00105	8b 4d 08	 mov	 ecx, DWORD PTR _obj$[ebp]
  00108	8b 11		 mov	 edx, DWORD PTR [ecx]
  0010a	8b 04 95 00 00
	00 00		 mov	 eax, DWORD PTR ?fn_set_ui_object_text@@3PAP6GXPAUUI_OBJECT@@PBD@ZA[edx*4]
  00111	ff d0		 call	 eax
$LN2@notify_rea:

; 1272 : 
; 1273 : 			break;
; 1274 : 		}
; 1275 : 	}
; 1276 : 
; 1277 : 	// don't leave text selected
; 1278 : 
; 1279 : 	set_toggle_button_off (obj);

  00113	8b 45 08	 mov	 eax, DWORD PTR _obj$[ebp]
  00116	50		 push	 eax
  00117	e8 00 00 00 00	 call	 ?set_toggle_button_off@@YGXPAUUI_OBJECT@@@Z ; set_toggle_button_off

; 1280 : 
; 1281 : }

  0011c	5f		 pop	 edi
  0011d	5e		 pop	 esi
  0011e	5b		 pop	 ebx
  0011f	8b e5		 mov	 esp, ebp
  00121	5d		 pop	 ebp
  00122	c2 08 00	 ret	 8
?notify_realism_weapons_damage_function@@YGXPAUUI_OBJECT@@PAX@Z ENDP ; notify_realism_weapons_damage_function
_TEXT	ENDS
; Function compile flags: /Odtp /ZI
; File c:\users\nhv90\projects\eech\aphavoc\source\ui_menu\sessparm\sparm_sc.c
;	COMDAT ?notify_realism_collisions_function@@YGXPAUUI_OBJECT@@PAX@Z
_TEXT	SEGMENT
tv130 = -68						; size = 4
tv87 = -68						; size = 4
tv79 = -68						; size = 4
tv68 = -68						; size = 4
tv64 = -68						; size = 4
_obj$ = 8						; size = 4
_arg$ = 12						; size = 4
?notify_realism_collisions_function@@YGXPAUUI_OBJECT@@PAX@Z PROC ; notify_realism_collisions_function, COMDAT

; 1218 : {

  00000	55		 push	 ebp
  00001	8b ec		 mov	 ebp, esp
  00003	83 ec 44	 sub	 esp, 68			; 00000044H
  00006	53		 push	 ebx
  00007	56		 push	 esi
  00008	57		 push	 edi

; 1219 : 
; 1220 : 	switch ( get_game_type () )

  00009	a1 00 00 00 00	 mov	 eax, DWORD PTR ?game_type@@3W4GAME_TYPES@@A ; game_type
  0000e	89 45 bc	 mov	 DWORD PTR tv64[ebp], eax
  00011	83 7d bc 01	 cmp	 DWORD PTR tv64[ebp], 1
  00015	74 15		 je	 SHORT $LN4@notify_rea
  00017	83 7d bc 01	 cmp	 DWORD PTR tv64[ebp], 1
  0001b	0f 8e f2 00 00
	00		 jle	 $LN2@notify_rea
  00021	83 7d bc 03	 cmp	 DWORD PTR tv64[ebp], 3
  00025	7e 78		 jle	 SHORT $LN5@notify_rea
  00027	e9 e7 00 00 00	 jmp	 $LN2@notify_rea
$LN4@notify_rea:

; 1221 : 	{
; 1222 : 		case GAME_TYPE_FREE_FLIGHT:
; 1223 : 		{
; 1224 : 			set_global_session_free_flight_realism_invulnerable_from_collisions (!get_global_session_free_flight_realism_invulnerable_from_collisions ());

  0002c	a1 b0 01 00 00	 mov	 eax, DWORD PTR ?global_options@@3UGLOBAL_OPTIONS_DATA@@A+432
  00031	c1 e8 03	 shr	 eax, 3
  00034	83 e0 01	 and	 eax, 1
  00037	75 09		 jne	 SHORT $LN7@notify_rea
  00039	c7 45 bc 01 00
	00 00		 mov	 DWORD PTR tv68[ebp], 1
  00040	eb 07		 jmp	 SHORT $LN8@notify_rea
$LN7@notify_rea:
  00042	c7 45 bc 00 00
	00 00		 mov	 DWORD PTR tv68[ebp], 0
$LN8@notify_rea:
  00049	8b 4d bc	 mov	 ecx, DWORD PTR tv68[ebp]
  0004c	83 e1 01	 and	 ecx, 1
  0004f	c1 e1 03	 shl	 ecx, 3
  00052	8b 15 b0 01 00
	00		 mov	 edx, DWORD PTR ?global_options@@3UGLOBAL_OPTIONS_DATA@@A+432
  00058	83 e2 f7	 and	 edx, -9			; fffffff7H
  0005b	0b d1		 or	 edx, ecx
  0005d	89 15 b0 01 00
	00		 mov	 DWORD PTR ?global_options@@3UGLOBAL_OPTIONS_DATA@@A+432, edx

; 1225 : 
; 1226 : 			set_ui_object_text (obj, boolean_text [!get_global_session_free_flight_realism_invulnerable_from_collisions ()]);

  00063	a1 b0 01 00 00	 mov	 eax, DWORD PTR ?global_options@@3UGLOBAL_OPTIONS_DATA@@A+432
  00068	c1 e8 03	 shr	 eax, 3
  0006b	83 e0 01	 and	 eax, 1
  0006e	75 09		 jne	 SHORT $LN9@notify_rea
  00070	c7 45 bc 01 00
	00 00		 mov	 DWORD PTR tv79[ebp], 1
  00077	eb 07		 jmp	 SHORT $LN10@notify_rea
$LN9@notify_rea:
  00079	c7 45 bc 00 00
	00 00		 mov	 DWORD PTR tv79[ebp], 0
$LN10@notify_rea:
  00080	8b 4d bc	 mov	 ecx, DWORD PTR tv79[ebp]
  00083	8b 14 8d 00 00
	00 00		 mov	 edx, DWORD PTR ?boolean_text@@3PAPBDA[ecx*4]
  0008a	52		 push	 edx
  0008b	8b 45 08	 mov	 eax, DWORD PTR _obj$[ebp]
  0008e	50		 push	 eax
  0008f	8b 4d 08	 mov	 ecx, DWORD PTR _obj$[ebp]
  00092	8b 11		 mov	 edx, DWORD PTR [ecx]
  00094	8b 04 95 00 00
	00 00		 mov	 eax, DWORD PTR ?fn_set_ui_object_text@@3PAP6GXPAUUI_OBJECT@@PBD@ZA[edx*4]
  0009b	ff d0		 call	 eax

; 1227 : 
; 1228 : 			break;

  0009d	eb 74		 jmp	 SHORT $LN2@notify_rea
$LN5@notify_rea:

; 1229 : 		}
; 1230 : 
; 1231 : 		case GAME_TYPE_CAMPAIGN:
; 1232 : 		case GAME_TYPE_SKIRMISH:
; 1233 : 		{
; 1234 : 			set_global_session_campaign_realism_invulnerable_from_collisions (!get_global_session_campaign_realism_invulnerable_from_collisions ());

  0009f	a1 b0 01 00 00	 mov	 eax, DWORD PTR ?global_options@@3UGLOBAL_OPTIONS_DATA@@A+432
  000a4	c1 e8 08	 shr	 eax, 8
  000a7	83 e0 01	 and	 eax, 1
  000aa	75 09		 jne	 SHORT $LN11@notify_rea
  000ac	c7 45 bc 01 00
	00 00		 mov	 DWORD PTR tv87[ebp], 1
  000b3	eb 07		 jmp	 SHORT $LN12@notify_rea
$LN11@notify_rea:
  000b5	c7 45 bc 00 00
	00 00		 mov	 DWORD PTR tv87[ebp], 0
$LN12@notify_rea:
  000bc	8b 4d bc	 mov	 ecx, DWORD PTR tv87[ebp]
  000bf	83 e1 01	 and	 ecx, 1
  000c2	c1 e1 08	 shl	 ecx, 8
  000c5	8b 15 b0 01 00
	00		 mov	 edx, DWORD PTR ?global_options@@3UGLOBAL_OPTIONS_DATA@@A+432
  000cb	81 e2 ff fe ff
	ff		 and	 edx, -257		; fffffeffH
  000d1	0b d1		 or	 edx, ecx
  000d3	89 15 b0 01 00
	00		 mov	 DWORD PTR ?global_options@@3UGLOBAL_OPTIONS_DATA@@A+432, edx

; 1235 : 
; 1236 : 			set_ui_object_text (obj, boolean_text [!get_global_session_campaign_realism_invulnerable_from_collisions ()]);

  000d9	a1 b0 01 00 00	 mov	 eax, DWORD PTR ?global_options@@3UGLOBAL_OPTIONS_DATA@@A+432
  000de	c1 e8 08	 shr	 eax, 8
  000e1	83 e0 01	 and	 eax, 1
  000e4	75 09		 jne	 SHORT $LN13@notify_rea
  000e6	c7 45 bc 01 00
	00 00		 mov	 DWORD PTR tv130[ebp], 1
  000ed	eb 07		 jmp	 SHORT $LN14@notify_rea
$LN13@notify_rea:
  000ef	c7 45 bc 00 00
	00 00		 mov	 DWORD PTR tv130[ebp], 0
$LN14@notify_rea:
  000f6	8b 4d bc	 mov	 ecx, DWORD PTR tv130[ebp]
  000f9	8b 14 8d 00 00
	00 00		 mov	 edx, DWORD PTR ?boolean_text@@3PAPBDA[ecx*4]
  00100	52		 push	 edx
  00101	8b 45 08	 mov	 eax, DWORD PTR _obj$[ebp]
  00104	50		 push	 eax
  00105	8b 4d 08	 mov	 ecx, DWORD PTR _obj$[ebp]
  00108	8b 11		 mov	 edx, DWORD PTR [ecx]
  0010a	8b 04 95 00 00
	00 00		 mov	 eax, DWORD PTR ?fn_set_ui_object_text@@3PAP6GXPAUUI_OBJECT@@PBD@ZA[edx*4]
  00111	ff d0		 call	 eax
$LN2@notify_rea:

; 1237 : 
; 1238 : 			break;
; 1239 : 		}
; 1240 : 	}
; 1241 : 
; 1242 : 	// don't leave text selected
; 1243 : 
; 1244 : 	set_toggle_button_off (obj);

  00113	8b 45 08	 mov	 eax, DWORD PTR _obj$[ebp]
  00116	50		 push	 eax
  00117	e8 00 00 00 00	 call	 ?set_toggle_button_off@@YGXPAUUI_OBJECT@@@Z ; set_toggle_button_off

; 1245 : 
; 1246 : }

  0011c	5f		 pop	 edi
  0011d	5e		 pop	 esi
  0011e	5b		 pop	 ebx
  0011f	8b e5		 mov	 esp, ebp
  00121	5d		 pop	 ebp
  00122	c2 08 00	 ret	 8
?notify_realism_collisions_function@@YGXPAUUI_OBJECT@@PAX@Z ENDP ; notify_realism_collisions_function
_TEXT	ENDS
; Function compile flags: /Odtp /ZI
; File c:\users\nhv90\projects\eech\aphavoc\source\ui_menu\sessparm\sparm_sc.c
;	COMDAT ?notify_realism_inf_fuel_function@@YGXPAUUI_OBJECT@@PAX@Z
_TEXT	SEGMENT
tv85 = -68						; size = 4
tv68 = -68						; size = 4
tv64 = -68						; size = 4
_obj$ = 8						; size = 4
_arg$ = 12						; size = 4
?notify_realism_inf_fuel_function@@YGXPAUUI_OBJECT@@PAX@Z PROC ; notify_realism_inf_fuel_function, COMDAT

; 1183 : {

  00000	55		 push	 ebp
  00001	8b ec		 mov	 ebp, esp
  00003	83 ec 44	 sub	 esp, 68			; 00000044H
  00006	53		 push	 ebx
  00007	56		 push	 esi
  00008	57		 push	 edi

; 1184 : 
; 1185 : 	switch ( get_game_type () )

  00009	a1 00 00 00 00	 mov	 eax, DWORD PTR ?game_type@@3W4GAME_TYPES@@A ; game_type
  0000e	89 45 bc	 mov	 DWORD PTR tv64[ebp], eax
  00011	83 7d bc 01	 cmp	 DWORD PTR tv64[ebp], 1
  00015	74 15		 je	 SHORT $LN4@notify_rea
  00017	83 7d bc 01	 cmp	 DWORD PTR tv64[ebp], 1
  0001b	0f 8e c2 00 00
	00		 jle	 $LN2@notify_rea
  00021	83 7d bc 03	 cmp	 DWORD PTR tv64[ebp], 3
  00025	7e 60		 jle	 SHORT $LN5@notify_rea
  00027	e9 b7 00 00 00	 jmp	 $LN2@notify_rea
$LN4@notify_rea:

; 1186 : 	{
; 1187 : 		case GAME_TYPE_FREE_FLIGHT:
; 1188 : 		{
; 1189 : 			set_global_session_free_flight_realism_infinite_fuel (!get_global_session_free_flight_realism_infinite_fuel ());

  0002c	a1 b0 01 00 00	 mov	 eax, DWORD PTR ?global_options@@3UGLOBAL_OPTIONS_DATA@@A+432
  00031	d1 e8		 shr	 eax, 1
  00033	83 e0 01	 and	 eax, 1
  00036	75 09		 jne	 SHORT $LN7@notify_rea
  00038	c7 45 bc 01 00
	00 00		 mov	 DWORD PTR tv68[ebp], 1
  0003f	eb 07		 jmp	 SHORT $LN8@notify_rea
$LN7@notify_rea:
  00041	c7 45 bc 00 00
	00 00		 mov	 DWORD PTR tv68[ebp], 0
$LN8@notify_rea:
  00048	8b 4d bc	 mov	 ecx, DWORD PTR tv68[ebp]
  0004b	83 e1 01	 and	 ecx, 1
  0004e	d1 e1		 shl	 ecx, 1
  00050	8b 15 b0 01 00
	00		 mov	 edx, DWORD PTR ?global_options@@3UGLOBAL_OPTIONS_DATA@@A+432
  00056	83 e2 fd	 and	 edx, -3			; fffffffdH
  00059	0b d1		 or	 edx, ecx
  0005b	89 15 b0 01 00
	00		 mov	 DWORD PTR ?global_options@@3UGLOBAL_OPTIONS_DATA@@A+432, edx

; 1190 : 
; 1191 : 			set_ui_object_text (obj, boolean_text [get_global_session_free_flight_realism_infinite_fuel ()]);

  00061	a1 b0 01 00 00	 mov	 eax, DWORD PTR ?global_options@@3UGLOBAL_OPTIONS_DATA@@A+432
  00066	d1 e8		 shr	 eax, 1
  00068	83 e0 01	 and	 eax, 1
  0006b	8b 0c 85 00 00
	00 00		 mov	 ecx, DWORD PTR ?boolean_text@@3PAPBDA[eax*4]
  00072	51		 push	 ecx
  00073	8b 55 08	 mov	 edx, DWORD PTR _obj$[ebp]
  00076	52		 push	 edx
  00077	8b 45 08	 mov	 eax, DWORD PTR _obj$[ebp]
  0007a	8b 08		 mov	 ecx, DWORD PTR [eax]
  0007c	8b 14 8d 00 00
	00 00		 mov	 edx, DWORD PTR ?fn_set_ui_object_text@@3PAP6GXPAUUI_OBJECT@@PBD@ZA[ecx*4]
  00083	ff d2		 call	 edx

; 1192 : 
; 1193 : 			break;

  00085	eb 5c		 jmp	 SHORT $LN2@notify_rea
$LN5@notify_rea:

; 1194 : 		}
; 1195 : 
; 1196 : 		case GAME_TYPE_CAMPAIGN:
; 1197 : 		case GAME_TYPE_SKIRMISH:
; 1198 : 		{
; 1199 : 			set_global_session_campaign_realism_infinite_fuel (!get_global_session_campaign_realism_infinite_fuel ());

  00087	a1 b0 01 00 00	 mov	 eax, DWORD PTR ?global_options@@3UGLOBAL_OPTIONS_DATA@@A+432
  0008c	c1 e8 06	 shr	 eax, 6
  0008f	83 e0 01	 and	 eax, 1
  00092	75 09		 jne	 SHORT $LN9@notify_rea
  00094	c7 45 bc 01 00
	00 00		 mov	 DWORD PTR tv85[ebp], 1
  0009b	eb 07		 jmp	 SHORT $LN10@notify_rea
$LN9@notify_rea:
  0009d	c7 45 bc 00 00
	00 00		 mov	 DWORD PTR tv85[ebp], 0
$LN10@notify_rea:
  000a4	8b 4d bc	 mov	 ecx, DWORD PTR tv85[ebp]
  000a7	83 e1 01	 and	 ecx, 1
  000aa	c1 e1 06	 shl	 ecx, 6
  000ad	8b 15 b0 01 00
	00		 mov	 edx, DWORD PTR ?global_options@@3UGLOBAL_OPTIONS_DATA@@A+432
  000b3	83 e2 bf	 and	 edx, -65		; ffffffbfH
  000b6	0b d1		 or	 edx, ecx
  000b8	89 15 b0 01 00
	00		 mov	 DWORD PTR ?global_options@@3UGLOBAL_OPTIONS_DATA@@A+432, edx

; 1200 : 
; 1201 : 			set_ui_object_text (obj, boolean_text [get_global_session_campaign_realism_infinite_fuel ()]);

  000be	a1 b0 01 00 00	 mov	 eax, DWORD PTR ?global_options@@3UGLOBAL_OPTIONS_DATA@@A+432
  000c3	c1 e8 06	 shr	 eax, 6
  000c6	83 e0 01	 and	 eax, 1
  000c9	8b 0c 85 00 00
	00 00		 mov	 ecx, DWORD PTR ?boolean_text@@3PAPBDA[eax*4]
  000d0	51		 push	 ecx
  000d1	8b 55 08	 mov	 edx, DWORD PTR _obj$[ebp]
  000d4	52		 push	 edx
  000d5	8b 45 08	 mov	 eax, DWORD PTR _obj$[ebp]
  000d8	8b 08		 mov	 ecx, DWORD PTR [eax]
  000da	8b 14 8d 00 00
	00 00		 mov	 edx, DWORD PTR ?fn_set_ui_object_text@@3PAP6GXPAUUI_OBJECT@@PBD@ZA[ecx*4]
  000e1	ff d2		 call	 edx
$LN2@notify_rea:

; 1202 : 
; 1203 : 			break;
; 1204 : 		}
; 1205 : 	}
; 1206 : 
; 1207 : 	// don't leave text selected
; 1208 : 
; 1209 : 	set_toggle_button_off (obj);

  000e3	8b 45 08	 mov	 eax, DWORD PTR _obj$[ebp]
  000e6	50		 push	 eax
  000e7	e8 00 00 00 00	 call	 ?set_toggle_button_off@@YGXPAUUI_OBJECT@@@Z ; set_toggle_button_off

; 1210 : 
; 1211 : }

  000ec	5f		 pop	 edi
  000ed	5e		 pop	 esi
  000ee	5b		 pop	 ebx
  000ef	8b e5		 mov	 esp, ebp
  000f1	5d		 pop	 ebp
  000f2	c2 08 00	 ret	 8
?notify_realism_inf_fuel_function@@YGXPAUUI_OBJECT@@PAX@Z ENDP ; notify_realism_inf_fuel_function
_TEXT	ENDS
; Function compile flags: /Odtp /ZI
; File c:\users\nhv90\projects\eech\aphavoc\source\ui_menu\sessparm\sparm_sc.c
;	COMDAT ?notify_realism_inf_weapons_function@@YGXPAUUI_OBJECT@@PAX@Z
_TEXT	SEGMENT
tv82 = -68						; size = 4
tv67 = -68						; size = 4
tv64 = -68						; size = 4
_obj$ = 8						; size = 4
_arg$ = 12						; size = 4
?notify_realism_inf_weapons_function@@YGXPAUUI_OBJECT@@PAX@Z PROC ; notify_realism_inf_weapons_function, COMDAT

; 1148 : {

  00000	55		 push	 ebp
  00001	8b ec		 mov	 ebp, esp
  00003	83 ec 44	 sub	 esp, 68			; 00000044H
  00006	53		 push	 ebx
  00007	56		 push	 esi
  00008	57		 push	 edi

; 1149 : 
; 1150 : 	switch ( get_game_type () )

  00009	a1 00 00 00 00	 mov	 eax, DWORD PTR ?game_type@@3W4GAME_TYPES@@A ; game_type
  0000e	89 45 bc	 mov	 DWORD PTR tv64[ebp], eax
  00011	83 7d bc 01	 cmp	 DWORD PTR tv64[ebp], 1
  00015	74 15		 je	 SHORT $LN4@notify_rea
  00017	83 7d bc 01	 cmp	 DWORD PTR tv64[ebp], 1
  0001b	0f 8e bc 00 00
	00		 jle	 $LN2@notify_rea
  00021	83 7d bc 03	 cmp	 DWORD PTR tv64[ebp], 3
  00025	7e 5a		 jle	 SHORT $LN5@notify_rea
  00027	e9 b1 00 00 00	 jmp	 $LN2@notify_rea
$LN4@notify_rea:

; 1151 : 	{
; 1152 : 		case GAME_TYPE_FREE_FLIGHT:
; 1153 : 		{
; 1154 : 			set_global_session_free_flight_realism_infinite_weapons (!get_global_session_free_flight_realism_infinite_weapons ());

  0002c	a1 b0 01 00 00	 mov	 eax, DWORD PTR ?global_options@@3UGLOBAL_OPTIONS_DATA@@A+432
  00031	83 e0 01	 and	 eax, 1
  00034	75 09		 jne	 SHORT $LN7@notify_rea
  00036	c7 45 bc 01 00
	00 00		 mov	 DWORD PTR tv67[ebp], 1
  0003d	eb 07		 jmp	 SHORT $LN8@notify_rea
$LN7@notify_rea:
  0003f	c7 45 bc 00 00
	00 00		 mov	 DWORD PTR tv67[ebp], 0
$LN8@notify_rea:
  00046	8b 4d bc	 mov	 ecx, DWORD PTR tv67[ebp]
  00049	83 e1 01	 and	 ecx, 1
  0004c	8b 15 b0 01 00
	00		 mov	 edx, DWORD PTR ?global_options@@3UGLOBAL_OPTIONS_DATA@@A+432
  00052	83 e2 fe	 and	 edx, -2			; fffffffeH
  00055	0b d1		 or	 edx, ecx
  00057	89 15 b0 01 00
	00		 mov	 DWORD PTR ?global_options@@3UGLOBAL_OPTIONS_DATA@@A+432, edx

; 1155 : 
; 1156 : 			set_ui_object_text (obj, boolean_text [get_global_session_free_flight_realism_infinite_weapons ()]);

  0005d	a1 b0 01 00 00	 mov	 eax, DWORD PTR ?global_options@@3UGLOBAL_OPTIONS_DATA@@A+432
  00062	83 e0 01	 and	 eax, 1
  00065	8b 0c 85 00 00
	00 00		 mov	 ecx, DWORD PTR ?boolean_text@@3PAPBDA[eax*4]
  0006c	51		 push	 ecx
  0006d	8b 55 08	 mov	 edx, DWORD PTR _obj$[ebp]
  00070	52		 push	 edx
  00071	8b 45 08	 mov	 eax, DWORD PTR _obj$[ebp]
  00074	8b 08		 mov	 ecx, DWORD PTR [eax]
  00076	8b 14 8d 00 00
	00 00		 mov	 edx, DWORD PTR ?fn_set_ui_object_text@@3PAP6GXPAUUI_OBJECT@@PBD@ZA[ecx*4]
  0007d	ff d2		 call	 edx

; 1157 : 
; 1158 : 			break;

  0007f	eb 5c		 jmp	 SHORT $LN2@notify_rea
$LN5@notify_rea:

; 1159 : 		}
; 1160 : 
; 1161 : 		case GAME_TYPE_CAMPAIGN:
; 1162 : 		case GAME_TYPE_SKIRMISH:
; 1163 : 		{
; 1164 : 			set_global_session_campaign_realism_infinite_weapons (!get_global_session_campaign_realism_infinite_weapons ());

  00081	a1 b0 01 00 00	 mov	 eax, DWORD PTR ?global_options@@3UGLOBAL_OPTIONS_DATA@@A+432
  00086	c1 e8 05	 shr	 eax, 5
  00089	83 e0 01	 and	 eax, 1
  0008c	75 09		 jne	 SHORT $LN9@notify_rea
  0008e	c7 45 bc 01 00
	00 00		 mov	 DWORD PTR tv82[ebp], 1
  00095	eb 07		 jmp	 SHORT $LN10@notify_rea
$LN9@notify_rea:
  00097	c7 45 bc 00 00
	00 00		 mov	 DWORD PTR tv82[ebp], 0
$LN10@notify_rea:
  0009e	8b 4d bc	 mov	 ecx, DWORD PTR tv82[ebp]
  000a1	83 e1 01	 and	 ecx, 1
  000a4	c1 e1 05	 shl	 ecx, 5
  000a7	8b 15 b0 01 00
	00		 mov	 edx, DWORD PTR ?global_options@@3UGLOBAL_OPTIONS_DATA@@A+432
  000ad	83 e2 df	 and	 edx, -33		; ffffffdfH
  000b0	0b d1		 or	 edx, ecx
  000b2	89 15 b0 01 00
	00		 mov	 DWORD PTR ?global_options@@3UGLOBAL_OPTIONS_DATA@@A+432, edx

; 1165 : 
; 1166 : 			set_ui_object_text (obj, boolean_text [get_global_session_campaign_realism_infinite_weapons ()]);

  000b8	a1 b0 01 00 00	 mov	 eax, DWORD PTR ?global_options@@3UGLOBAL_OPTIONS_DATA@@A+432
  000bd	c1 e8 05	 shr	 eax, 5
  000c0	83 e0 01	 and	 eax, 1
  000c3	8b 0c 85 00 00
	00 00		 mov	 ecx, DWORD PTR ?boolean_text@@3PAPBDA[eax*4]
  000ca	51		 push	 ecx
  000cb	8b 55 08	 mov	 edx, DWORD PTR _obj$[ebp]
  000ce	52		 push	 edx
  000cf	8b 45 08	 mov	 eax, DWORD PTR _obj$[ebp]
  000d2	8b 08		 mov	 ecx, DWORD PTR [eax]
  000d4	8b 14 8d 00 00
	00 00		 mov	 edx, DWORD PTR ?fn_set_ui_object_text@@3PAP6GXPAUUI_OBJECT@@PBD@ZA[ecx*4]
  000db	ff d2		 call	 edx
$LN2@notify_rea:

; 1167 : 
; 1168 : 			break;
; 1169 : 		}
; 1170 : 	}
; 1171 : 
; 1172 : 	// don't leave text selected
; 1173 : 
; 1174 : 	set_toggle_button_off (obj);

  000dd	8b 45 08	 mov	 eax, DWORD PTR _obj$[ebp]
  000e0	50		 push	 eax
  000e1	e8 00 00 00 00	 call	 ?set_toggle_button_off@@YGXPAUUI_OBJECT@@@Z ; set_toggle_button_off

; 1175 : 
; 1176 : }

  000e6	5f		 pop	 edi
  000e7	5e		 pop	 esi
  000e8	5b		 pop	 ebx
  000e9	8b e5		 mov	 esp, ebp
  000eb	5d		 pop	 ebp
  000ec	c2 08 00	 ret	 8
?notify_realism_inf_weapons_function@@YGXPAUUI_OBJECT@@PAX@Z ENDP ; notify_realism_inf_weapons_function
_TEXT	ENDS
; Function compile flags: /Odtp /ZI
; File c:\users\nhv90\projects\eech\aphavoc\source\ui_menu\sessparm\sparm_sc.c
;	COMDAT ?notify_weather_function@@YGXPAUUI_OBJECT@@PAX@Z
_TEXT	SEGMENT
tv70 = -72						; size = 4
tv64 = -72						; size = 4
_weather$ = -4						; size = 4
_obj$ = 8						; size = 4
_arg$ = 12						; size = 4
?notify_weather_function@@YGXPAUUI_OBJECT@@PAX@Z PROC	; notify_weather_function, COMDAT

; 1087 : {

  00000	55		 push	 ebp
  00001	8b ec		 mov	 ebp, esp
  00003	83 ec 48	 sub	 esp, 72			; 00000048H
  00006	53		 push	 ebx
  00007	56		 push	 esi
  00008	57		 push	 edi

; 1088 : 	int
; 1089 : 		weather;
; 1090 : 
; 1091 : 	switch ( get_game_type () )

  00009	a1 00 00 00 00	 mov	 eax, DWORD PTR ?game_type@@3W4GAME_TYPES@@A ; game_type
  0000e	89 45 b8	 mov	 DWORD PTR tv64[ebp], eax
  00011	83 7d b8 01	 cmp	 DWORD PTR tv64[ebp], 1
  00015	74 0e		 je	 SHORT $LN6@notify_wea
  00017	83 7d b8 01	 cmp	 DWORD PTR tv64[ebp], 1
  0001b	7e 1a		 jle	 SHORT $LN2@notify_wea
  0001d	83 7d b8 03	 cmp	 DWORD PTR tv64[ebp], 3
  00021	7e 0c		 jle	 SHORT $LN7@notify_wea
  00023	eb 12		 jmp	 SHORT $LN2@notify_wea
$LN6@notify_wea:

; 1092 : 	{
; 1093 : 		case GAME_TYPE_FREE_FLIGHT:
; 1094 : 		{
; 1095 : 			weather = get_global_session_free_flight_weather ();

  00025	a1 a4 01 00 00	 mov	 eax, DWORD PTR ?global_options@@3UGLOBAL_OPTIONS_DATA@@A+420
  0002a	89 45 fc	 mov	 DWORD PTR _weather$[ebp], eax

; 1096 : 
; 1097 : 			break;

  0002d	eb 08		 jmp	 SHORT $LN2@notify_wea
$LN7@notify_wea:

; 1098 : 		}
; 1099 : 
; 1100 : 		case GAME_TYPE_CAMPAIGN:
; 1101 : 		case GAME_TYPE_SKIRMISH:
; 1102 : 		{
; 1103 : 			weather = get_global_session_campaign_weather ();

  0002f	a1 a8 01 00 00	 mov	 eax, DWORD PTR ?global_options@@3UGLOBAL_OPTIONS_DATA@@A+424
  00034	89 45 fc	 mov	 DWORD PTR _weather$[ebp], eax
$LN2@notify_wea:

; 1104 : 
; 1105 : 			break;
; 1106 : 		}
; 1107 : 	}
; 1108 : 
; 1109 : 	weather++;

  00037	8b 45 fc	 mov	 eax, DWORD PTR _weather$[ebp]
  0003a	83 c0 01	 add	 eax, 1
  0003d	89 45 fc	 mov	 DWORD PTR _weather$[ebp], eax

; 1110 : 
; 1111 : 	if (weather > SESSION_WEATHER_POOR)

  00040	83 7d fc 04	 cmp	 DWORD PTR _weather$[ebp], 4
  00044	7e 07		 jle	 SHORT $LN8@notify_wea

; 1112 : 	{
; 1113 : 		weather = SESSION_WEATHER_RANDOM;

  00046	c7 45 fc 01 00
	00 00		 mov	 DWORD PTR _weather$[ebp], 1
$LN8@notify_wea:

; 1114 : 	}
; 1115 : 
; 1116 : 	switch ( get_game_type () )

  0004d	a1 00 00 00 00	 mov	 eax, DWORD PTR ?game_type@@3W4GAME_TYPES@@A ; game_type
  00052	89 45 b8	 mov	 DWORD PTR tv70[ebp], eax
  00055	83 7d b8 01	 cmp	 DWORD PTR tv70[ebp], 1
  00059	74 0e		 je	 SHORT $LN9@notify_wea
  0005b	83 7d b8 01	 cmp	 DWORD PTR tv70[ebp], 1
  0005f	7e 58		 jle	 SHORT $LN4@notify_wea
  00061	83 7d b8 03	 cmp	 DWORD PTR tv70[ebp], 3
  00065	7e 2b		 jle	 SHORT $LN10@notify_wea
  00067	eb 50		 jmp	 SHORT $LN4@notify_wea
$LN9@notify_wea:

; 1117 : 	{
; 1118 : 		case GAME_TYPE_FREE_FLIGHT:
; 1119 : 		{
; 1120 : 			set_global_session_free_flight_weather ((enum SESSION_WEATHER_SETTINGS) weather);

  00069	8b 45 fc	 mov	 eax, DWORD PTR _weather$[ebp]
  0006c	a3 a4 01 00 00	 mov	 DWORD PTR ?global_options@@3UGLOBAL_OPTIONS_DATA@@A+420, eax

; 1121 : 
; 1122 : 			set_ui_object_text (obj, weather_text [get_global_session_free_flight_weather () - 1]);

  00071	a1 a4 01 00 00	 mov	 eax, DWORD PTR ?global_options@@3UGLOBAL_OPTIONS_DATA@@A+420
  00076	8b 0c 85 fc ff
	ff ff		 mov	 ecx, DWORD PTR ?weather_text@@3PAPBDA[eax*4-4]
  0007d	51		 push	 ecx
  0007e	8b 55 08	 mov	 edx, DWORD PTR _obj$[ebp]
  00081	52		 push	 edx
  00082	8b 45 08	 mov	 eax, DWORD PTR _obj$[ebp]
  00085	8b 08		 mov	 ecx, DWORD PTR [eax]
  00087	8b 14 8d 00 00
	00 00		 mov	 edx, DWORD PTR ?fn_set_ui_object_text@@3PAP6GXPAUUI_OBJECT@@PBD@ZA[ecx*4]
  0008e	ff d2		 call	 edx

; 1123 : 
; 1124 : 			break;

  00090	eb 27		 jmp	 SHORT $LN4@notify_wea
$LN10@notify_wea:

; 1125 : 		}
; 1126 : 
; 1127 : 		case GAME_TYPE_CAMPAIGN:
; 1128 : 		case GAME_TYPE_SKIRMISH:
; 1129 : 		{
; 1130 : 			set_global_session_campaign_weather ((enum SESSION_WEATHER_SETTINGS) weather);

  00092	8b 45 fc	 mov	 eax, DWORD PTR _weather$[ebp]
  00095	a3 a8 01 00 00	 mov	 DWORD PTR ?global_options@@3UGLOBAL_OPTIONS_DATA@@A+424, eax

; 1131 : 
; 1132 : 			set_ui_object_text (obj, weather_text [get_global_session_campaign_weather () - 1]);

  0009a	a1 a8 01 00 00	 mov	 eax, DWORD PTR ?global_options@@3UGLOBAL_OPTIONS_DATA@@A+424
  0009f	8b 0c 85 fc ff
	ff ff		 mov	 ecx, DWORD PTR ?weather_text@@3PAPBDA[eax*4-4]
  000a6	51		 push	 ecx
  000a7	8b 55 08	 mov	 edx, DWORD PTR _obj$[ebp]
  000aa	52		 push	 edx
  000ab	8b 45 08	 mov	 eax, DWORD PTR _obj$[ebp]
  000ae	8b 08		 mov	 ecx, DWORD PTR [eax]
  000b0	8b 14 8d 00 00
	00 00		 mov	 edx, DWORD PTR ?fn_set_ui_object_text@@3PAP6GXPAUUI_OBJECT@@PBD@ZA[ecx*4]
  000b7	ff d2		 call	 edx
$LN4@notify_wea:

; 1133 : 
; 1134 : 			break;
; 1135 : 		}
; 1136 : 	}
; 1137 : 
; 1138 : 	// don't leave text selected
; 1139 : 
; 1140 : 	set_toggle_button_off (obj);

  000b9	8b 45 08	 mov	 eax, DWORD PTR _obj$[ebp]
  000bc	50		 push	 eax
  000bd	e8 00 00 00 00	 call	 ?set_toggle_button_off@@YGXPAUUI_OBJECT@@@Z ; set_toggle_button_off

; 1141 : }

  000c2	5f		 pop	 edi
  000c3	5e		 pop	 esi
  000c4	5b		 pop	 ebx
  000c5	8b e5		 mov	 esp, ebp
  000c7	5d		 pop	 ebp
  000c8	c2 08 00	 ret	 8
?notify_weather_function@@YGXPAUUI_OBJECT@@PAX@Z ENDP	; notify_weather_function
_TEXT	ENDS
; Function compile flags: /Odtp /ZI
; File c:\users\nhv90\projects\eech\aphavoc\source\ui_menu\sessparm\sparm_sc.c
;	COMDAT ?notify_season_function@@YGXPAUUI_OBJECT@@PAX@Z
_TEXT	SEGMENT
_tod$ = -4						; size = 4
_obj$ = 8						; size = 4
_arg$ = 12						; size = 4
?notify_season_function@@YGXPAUUI_OBJECT@@PAX@Z PROC	; notify_season_function, COMDAT

; 994  : {

  00000	55		 push	 ebp
  00001	8b ec		 mov	 ebp, esp
  00003	83 ec 44	 sub	 esp, 68			; 00000044H
  00006	53		 push	 ebx
  00007	56		 push	 esi
  00008	57		 push	 edi

; 995  : 
; 996  : 	int
; 997  : 		tod;
; 998  : 
; 999  : 	tod = get_global_season ();

  00009	a1 14 04 00 00	 mov	 eax, DWORD PTR ?current_map_info@@3UCUSTOM_MAP_INFO@@A+1044
  0000e	89 45 fc	 mov	 DWORD PTR _tod$[ebp], eax

; 1000 : 
; 1001 : 	tod++;

  00011	8b 45 fc	 mov	 eax, DWORD PTR _tod$[ebp]
  00014	83 c0 01	 add	 eax, 1
  00017	89 45 fc	 mov	 DWORD PTR _tod$[ebp], eax

; 1002 : 	// skip deserts. they cannot be changed
; 1003 : 	if (tod == SESSION_SEASON_DESERT)

  0001a	83 7d fc 04	 cmp	 DWORD PTR _tod$[ebp], 4
  0001e	75 07		 jne	 SHORT $LN2@notify_sea

; 1004 : 		tod = SESSION_SEASON_SUMMER;

  00020	c7 45 fc 02 00
	00 00		 mov	 DWORD PTR _tod$[ebp], 2
$LN2@notify_sea:

; 1005 : 	if (tod == SESSION_SEASON_DEFAULT)

  00027	83 7d fc 01	 cmp	 DWORD PTR _tod$[ebp], 1
  0002b	75 07		 jne	 SHORT $LN3@notify_sea

; 1006 : 		tod = SESSION_SEASON_SUMMER;

  0002d	c7 45 fc 02 00
	00 00		 mov	 DWORD PTR _tod$[ebp], 2
$LN3@notify_sea:

; 1007 : 
; 1008 : 	set_global_season (tod);

  00034	8b 45 fc	 mov	 eax, DWORD PTR _tod$[ebp]
  00037	a3 14 04 00 00	 mov	 DWORD PTR ?current_map_info@@3UCUSTOM_MAP_INFO@@A+1044, eax

; 1009 : 
; 1010 : 	// this is totally the wrong place to call this, but it fixes bug with non-default seasons not working with noisemaps
; 1011 : 	initialise_noisemaps();

  0003c	e8 00 00 00 00	 call	 ?initialise_noisemaps@@YGXXZ ; initialise_noisemaps

; 1012 : 
; 1013 : 	set_ui_object_text (obj, season_text [get_global_season () - 1]);

  00041	a1 14 04 00 00	 mov	 eax, DWORD PTR ?current_map_info@@3UCUSTOM_MAP_INFO@@A+1044
  00046	8b 0c 85 fc ff
	ff ff		 mov	 ecx, DWORD PTR ?season_text@@3PAPBDA[eax*4-4]
  0004d	51		 push	 ecx
  0004e	8b 55 08	 mov	 edx, DWORD PTR _obj$[ebp]
  00051	52		 push	 edx
  00052	8b 45 08	 mov	 eax, DWORD PTR _obj$[ebp]
  00055	8b 08		 mov	 ecx, DWORD PTR [eax]
  00057	8b 14 8d 00 00
	00 00		 mov	 edx, DWORD PTR ?fn_set_ui_object_text@@3PAP6GXPAUUI_OBJECT@@PBD@ZA[ecx*4]
  0005e	ff d2		 call	 edx

; 1014 : 
; 1015 : 	set_toggle_button_off (obj);

  00060	8b 45 08	 mov	 eax, DWORD PTR _obj$[ebp]
  00063	50		 push	 eax
  00064	e8 00 00 00 00	 call	 ?set_toggle_button_off@@YGXPAUUI_OBJECT@@@Z ; set_toggle_button_off

; 1016 : 
; 1017 : //VJ 060319 further bug fixes
; 1018 : 	debug_log("###CUSTOM TEXTURE STARTUP: sparm_sc: notify_season_function");

  00069	68 00 00 00 00	 push	 OFFSET ??_C@_0DM@IIFOGEHC@?$CD?$CD?$CDCUSTOM?5TEXTURE?5STARTUP?3?5spar@
  0006e	e8 00 00 00 00	 call	 ?debug_log@@YAXPBDZZ	; debug_log
  00073	83 c4 04	 add	 esp, 4

; 1019 : }

  00076	5f		 pop	 edi
  00077	5e		 pop	 esi
  00078	5b		 pop	 ebx
  00079	8b e5		 mov	 esp, ebp
  0007b	5d		 pop	 ebp
  0007c	c2 08 00	 ret	 8
?notify_season_function@@YGXPAUUI_OBJECT@@PAX@Z ENDP	; notify_season_function
_TEXT	ENDS
; Function compile flags: /Odtp /ZI
; File c:\users\nhv90\projects\eech\aphavoc\source\ui_menu\sessparm\sparm_sc.c
;	COMDAT ?notify_time_of_day_function@@YGXPAUUI_OBJECT@@PAX@Z
_TEXT	SEGMENT
tv70 = -72						; size = 4
tv64 = -72						; size = 4
_tod$ = -4						; size = 4
_obj$ = 8						; size = 4
_arg$ = 12						; size = 4
?notify_time_of_day_function@@YGXPAUUI_OBJECT@@PAX@Z PROC ; notify_time_of_day_function, COMDAT

; 1026 : {

  00000	55		 push	 ebp
  00001	8b ec		 mov	 ebp, esp
  00003	83 ec 48	 sub	 esp, 72			; 00000048H
  00006	53		 push	 ebx
  00007	56		 push	 esi
  00008	57		 push	 edi

; 1027 : 	int
; 1028 : 		tod;
; 1029 : 
; 1030 : 	switch ( get_game_type () )

  00009	a1 00 00 00 00	 mov	 eax, DWORD PTR ?game_type@@3W4GAME_TYPES@@A ; game_type
  0000e	89 45 b8	 mov	 DWORD PTR tv64[ebp], eax
  00011	83 7d b8 01	 cmp	 DWORD PTR tv64[ebp], 1
  00015	74 0e		 je	 SHORT $LN6@notify_tim
  00017	83 7d b8 01	 cmp	 DWORD PTR tv64[ebp], 1
  0001b	7e 1a		 jle	 SHORT $LN2@notify_tim
  0001d	83 7d b8 03	 cmp	 DWORD PTR tv64[ebp], 3
  00021	7e 0c		 jle	 SHORT $LN7@notify_tim
  00023	eb 12		 jmp	 SHORT $LN2@notify_tim
$LN6@notify_tim:

; 1031 : 	{
; 1032 : 		case GAME_TYPE_FREE_FLIGHT:
; 1033 : 		{
; 1034 : 			tod = get_global_session_free_flight_time_of_day ();

  00025	a1 9c 01 00 00	 mov	 eax, DWORD PTR ?global_options@@3UGLOBAL_OPTIONS_DATA@@A+412
  0002a	89 45 fc	 mov	 DWORD PTR _tod$[ebp], eax

; 1035 : 
; 1036 : 			break;

  0002d	eb 08		 jmp	 SHORT $LN2@notify_tim
$LN7@notify_tim:

; 1037 : 		}
; 1038 : 
; 1039 : 		case GAME_TYPE_CAMPAIGN:
; 1040 : 		case GAME_TYPE_SKIRMISH:
; 1041 : 		{
; 1042 : 			tod = get_global_session_campaign_time_of_day ();

  0002f	a1 a0 01 00 00	 mov	 eax, DWORD PTR ?global_options@@3UGLOBAL_OPTIONS_DATA@@A+416
  00034	89 45 fc	 mov	 DWORD PTR _tod$[ebp], eax
$LN2@notify_tim:

; 1043 : 
; 1044 : 			break;
; 1045 : 		}
; 1046 : 	}
; 1047 : 
; 1048 : 	tod++;

  00037	8b 45 fc	 mov	 eax, DWORD PTR _tod$[ebp]
  0003a	83 c0 01	 add	 eax, 1
  0003d	89 45 fc	 mov	 DWORD PTR _tod$[ebp], eax

; 1049 : 
; 1050 : 	if (tod > SESSION_TIME_MIDNIGHT)

  00040	83 7d fc 06	 cmp	 DWORD PTR _tod$[ebp], 6
  00044	7e 07		 jle	 SHORT $LN8@notify_tim

; 1051 : 	{
; 1052 : 		tod = SESSION_TIME_RANDOM;

  00046	c7 45 fc 01 00
	00 00		 mov	 DWORD PTR _tod$[ebp], 1
$LN8@notify_tim:

; 1053 : 	}
; 1054 : 
; 1055 : 	switch ( get_game_type () )

  0004d	a1 00 00 00 00	 mov	 eax, DWORD PTR ?game_type@@3W4GAME_TYPES@@A ; game_type
  00052	89 45 b8	 mov	 DWORD PTR tv70[ebp], eax
  00055	83 7d b8 01	 cmp	 DWORD PTR tv70[ebp], 1
  00059	74 0e		 je	 SHORT $LN9@notify_tim
  0005b	83 7d b8 01	 cmp	 DWORD PTR tv70[ebp], 1
  0005f	7e 58		 jle	 SHORT $LN4@notify_tim
  00061	83 7d b8 03	 cmp	 DWORD PTR tv70[ebp], 3
  00065	7e 2b		 jle	 SHORT $LN10@notify_tim
  00067	eb 50		 jmp	 SHORT $LN4@notify_tim
$LN9@notify_tim:

; 1056 : 	{
; 1057 : 		case GAME_TYPE_FREE_FLIGHT:
; 1058 : 		{
; 1059 : 			set_global_session_free_flight_time_of_day ((enum SESSION_TIME_OF_DAY_SETTINGS) tod);

  00069	8b 45 fc	 mov	 eax, DWORD PTR _tod$[ebp]
  0006c	a3 9c 01 00 00	 mov	 DWORD PTR ?global_options@@3UGLOBAL_OPTIONS_DATA@@A+412, eax

; 1060 : 
; 1061 : 			set_ui_object_text (obj, time_of_day_text [get_global_session_free_flight_time_of_day () - 1]);

  00071	a1 9c 01 00 00	 mov	 eax, DWORD PTR ?global_options@@3UGLOBAL_OPTIONS_DATA@@A+412
  00076	8b 0c 85 fc ff
	ff ff		 mov	 ecx, DWORD PTR ?time_of_day_text@@3PAPBDA[eax*4-4]
  0007d	51		 push	 ecx
  0007e	8b 55 08	 mov	 edx, DWORD PTR _obj$[ebp]
  00081	52		 push	 edx
  00082	8b 45 08	 mov	 eax, DWORD PTR _obj$[ebp]
  00085	8b 08		 mov	 ecx, DWORD PTR [eax]
  00087	8b 14 8d 00 00
	00 00		 mov	 edx, DWORD PTR ?fn_set_ui_object_text@@3PAP6GXPAUUI_OBJECT@@PBD@ZA[ecx*4]
  0008e	ff d2		 call	 edx

; 1062 : 
; 1063 : 			break;

  00090	eb 27		 jmp	 SHORT $LN4@notify_tim
$LN10@notify_tim:

; 1064 : 		}
; 1065 : 
; 1066 : 		case GAME_TYPE_CAMPAIGN:
; 1067 : 		case GAME_TYPE_SKIRMISH:
; 1068 : 		{
; 1069 : 			set_global_session_campaign_time_of_day ((enum SESSION_TIME_OF_DAY_SETTINGS) tod);

  00092	8b 45 fc	 mov	 eax, DWORD PTR _tod$[ebp]
  00095	a3 a0 01 00 00	 mov	 DWORD PTR ?global_options@@3UGLOBAL_OPTIONS_DATA@@A+416, eax

; 1070 : 
; 1071 : 			set_ui_object_text (obj, time_of_day_text [get_global_session_campaign_time_of_day () - 1]);

  0009a	a1 a0 01 00 00	 mov	 eax, DWORD PTR ?global_options@@3UGLOBAL_OPTIONS_DATA@@A+416
  0009f	8b 0c 85 fc ff
	ff ff		 mov	 ecx, DWORD PTR ?time_of_day_text@@3PAPBDA[eax*4-4]
  000a6	51		 push	 ecx
  000a7	8b 55 08	 mov	 edx, DWORD PTR _obj$[ebp]
  000aa	52		 push	 edx
  000ab	8b 45 08	 mov	 eax, DWORD PTR _obj$[ebp]
  000ae	8b 08		 mov	 ecx, DWORD PTR [eax]
  000b0	8b 14 8d 00 00
	00 00		 mov	 edx, DWORD PTR ?fn_set_ui_object_text@@3PAP6GXPAUUI_OBJECT@@PBD@ZA[ecx*4]
  000b7	ff d2		 call	 edx
$LN4@notify_tim:

; 1072 : 
; 1073 : 			break;
; 1074 : 		}
; 1075 : 	}
; 1076 : 
; 1077 : 	// don't leave text selected
; 1078 : 
; 1079 : 	set_toggle_button_off (obj);

  000b9	8b 45 08	 mov	 eax, DWORD PTR _obj$[ebp]
  000bc	50		 push	 eax
  000bd	e8 00 00 00 00	 call	 ?set_toggle_button_off@@YGXPAUUI_OBJECT@@@Z ; set_toggle_button_off

; 1080 : }

  000c2	5f		 pop	 edi
  000c3	5e		 pop	 esi
  000c4	5b		 pop	 ebx
  000c5	8b e5		 mov	 esp, ebp
  000c7	5d		 pop	 ebp
  000c8	c2 08 00	 ret	 8
?notify_time_of_day_function@@YGXPAUUI_OBJECT@@PAX@Z ENDP ; notify_time_of_day_function
_TEXT	ENDS
; Function compile flags: /Odtp /ZI
; File c:\users\nhv90\projects\eech\aphavoc\source\ui_menu\sessparm\sparm_sc.c
;	COMDAT ?define_session_parameter_objects@@YGXXZ
_TEXT	SEGMENT
_y2$ = -28						; size = 4
_x2$ = -24						; size = 4
_y1$ = -20						; size = 4
_x1$ = -16						; size = 4
_button_box_obj$ = -12					; size = 4
_title_text_obj$ = -8					; size = 4
_title_box_obj$ = -4					; size = 4
?define_session_parameter_objects@@YGXXZ PROC		; define_session_parameter_objects, COMDAT

; 317  : {

  00000	55		 push	 ebp
  00001	8b ec		 mov	 ebp, esp
  00003	83 ec 5c	 sub	 esp, 92			; 0000005cH
  00006	53		 push	 ebx
  00007	56		 push	 esi
  00008	57		 push	 edi

; 318  : 	ui_object
; 319  : 		*title_box_obj,
; 320  : 		*title_text_obj,
; 321  : 		*button_box_obj;
; 322  : 
; 323  : 	float
; 324  : 		x1,
; 325  : 		y1,
; 326  : 		x2,
; 327  : 		y2;
; 328  : 
; 329  : 	boolean_text [0] = get_trans ("Off");

  00009	68 00 00 00 00	 push	 OFFSET ??_C@_03GCDBBDDL@Off@
  0000e	e8 00 00 00 00	 call	 ?get_trans@@YGPBDPBD@Z	; get_trans
  00013	b9 04 00 00 00	 mov	 ecx, 4
  00018	6b d1 00	 imul	 edx, ecx, 0
  0001b	89 82 00 00 00
	00		 mov	 DWORD PTR ?boolean_text@@3PAPBDA[edx], eax

; 330  : 	boolean_text [1] = get_trans ("On");

  00021	68 00 00 00 00	 push	 OFFSET ??_C@_02IAAGKKDJ@On@
  00026	e8 00 00 00 00	 call	 ?get_trans@@YGPBDPBD@Z	; get_trans
  0002b	b9 04 00 00 00	 mov	 ecx, 4
  00030	c1 e1 00	 shl	 ecx, 0
  00033	89 81 00 00 00
	00		 mov	 DWORD PTR ?boolean_text@@3PAPBDA[ecx], eax

; 331  : 
; 332  : 	suppress_ai_fire_text [0] = get_trans ("Passive");

  00039	68 00 00 00 00	 push	 OFFSET ??_C@_07NPCGECPI@Passive@
  0003e	e8 00 00 00 00	 call	 ?get_trans@@YGPBDPBD@Z	; get_trans
  00043	b9 04 00 00 00	 mov	 ecx, 4
  00048	6b d1 00	 imul	 edx, ecx, 0
  0004b	89 82 00 00 00
	00		 mov	 DWORD PTR ?suppress_ai_fire_text@@3PAPBDA[edx], eax

; 333  : 	suppress_ai_fire_text [1] = get_trans ("Hostile");

  00051	68 00 00 00 00	 push	 OFFSET ??_C@_07IDNGOJIN@Hostile@
  00056	e8 00 00 00 00	 call	 ?get_trans@@YGPBDPBD@Z	; get_trans
  0005b	b9 04 00 00 00	 mov	 ecx, 4
  00060	c1 e1 00	 shl	 ecx, 0
  00063	89 81 00 00 00
	00		 mov	 DWORD PTR ?suppress_ai_fire_text@@3PAPBDA[ecx], eax

; 334  : 
; 335  : 	season_text [0] = get_trans ("Default");

  00069	68 00 00 00 00	 push	 OFFSET ??_C@_07MCAEODGB@Default@
  0006e	e8 00 00 00 00	 call	 ?get_trans@@YGPBDPBD@Z	; get_trans
  00073	b9 04 00 00 00	 mov	 ecx, 4
  00078	6b d1 00	 imul	 edx, ecx, 0
  0007b	89 82 00 00 00
	00		 mov	 DWORD PTR ?season_text@@3PAPBDA[edx], eax

; 336  : 	season_text [1] = get_trans ("Summer");

  00081	68 00 00 00 00	 push	 OFFSET ??_C@_06NALKMBEE@Summer@
  00086	e8 00 00 00 00	 call	 ?get_trans@@YGPBDPBD@Z	; get_trans
  0008b	b9 04 00 00 00	 mov	 ecx, 4
  00090	c1 e1 00	 shl	 ecx, 0
  00093	89 81 00 00 00
	00		 mov	 DWORD PTR ?season_text@@3PAPBDA[ecx], eax

; 337  : 	season_text [2] = get_trans ("Winter");

  00099	68 00 00 00 00	 push	 OFFSET ??_C@_06DKFAEFHC@Winter@
  0009e	e8 00 00 00 00	 call	 ?get_trans@@YGPBDPBD@Z	; get_trans
  000a3	b9 04 00 00 00	 mov	 ecx, 4
  000a8	d1 e1		 shl	 ecx, 1
  000aa	89 81 00 00 00
	00		 mov	 DWORD PTR ?season_text@@3PAPBDA[ecx], eax

; 338  : 	season_text [3] = get_trans ("Desert");

  000b0	68 00 00 00 00	 push	 OFFSET ??_C@_06CEECHCOA@Desert@
  000b5	e8 00 00 00 00	 call	 ?get_trans@@YGPBDPBD@Z	; get_trans
  000ba	b9 04 00 00 00	 mov	 ecx, 4
  000bf	6b d1 03	 imul	 edx, ecx, 3
  000c2	89 82 00 00 00
	00		 mov	 DWORD PTR ?season_text@@3PAPBDA[edx], eax

; 339  : 
; 340  : 	time_of_day_text [0] = get_trans ("Random");

  000c8	68 00 00 00 00	 push	 OFFSET ??_C@_06BEOPDEGP@Random@
  000cd	e8 00 00 00 00	 call	 ?get_trans@@YGPBDPBD@Z	; get_trans
  000d2	b9 04 00 00 00	 mov	 ecx, 4
  000d7	6b d1 00	 imul	 edx, ecx, 0
  000da	89 82 00 00 00
	00		 mov	 DWORD PTR ?time_of_day_text@@3PAPBDA[edx], eax

; 341  : 	time_of_day_text [1] = get_trans ("Dawn");

  000e0	68 00 00 00 00	 push	 OFFSET ??_C@_04LNPEFOPB@Dawn@
  000e5	e8 00 00 00 00	 call	 ?get_trans@@YGPBDPBD@Z	; get_trans
  000ea	b9 04 00 00 00	 mov	 ecx, 4
  000ef	c1 e1 00	 shl	 ecx, 0
  000f2	89 81 00 00 00
	00		 mov	 DWORD PTR ?time_of_day_text@@3PAPBDA[ecx], eax

; 342  : 	time_of_day_text [2] = get_trans ("Midday");

  000f8	68 00 00 00 00	 push	 OFFSET ??_C@_06HKKLINL@Midday@
  000fd	e8 00 00 00 00	 call	 ?get_trans@@YGPBDPBD@Z	; get_trans
  00102	b9 04 00 00 00	 mov	 ecx, 4
  00107	d1 e1		 shl	 ecx, 1
  00109	89 81 00 00 00
	00		 mov	 DWORD PTR ?time_of_day_text@@3PAPBDA[ecx], eax

; 343  : 	time_of_day_text [3] = get_trans ("Afternoon");

  0010f	68 00 00 00 00	 push	 OFFSET ??_C@_09ILILHJG@Afternoon@
  00114	e8 00 00 00 00	 call	 ?get_trans@@YGPBDPBD@Z	; get_trans
  00119	b9 04 00 00 00	 mov	 ecx, 4
  0011e	6b d1 03	 imul	 edx, ecx, 3
  00121	89 82 00 00 00
	00		 mov	 DWORD PTR ?time_of_day_text@@3PAPBDA[edx], eax

; 344  : 	time_of_day_text [4] = get_trans ("Dusk");

  00127	68 00 00 00 00	 push	 OFFSET ??_C@_04BIPBMCKA@Dusk@
  0012c	e8 00 00 00 00	 call	 ?get_trans@@YGPBDPBD@Z	; get_trans
  00131	b9 04 00 00 00	 mov	 ecx, 4
  00136	c1 e1 02	 shl	 ecx, 2
  00139	89 81 00 00 00
	00		 mov	 DWORD PTR ?time_of_day_text@@3PAPBDA[ecx], eax

; 345  : 	time_of_day_text [5] = get_trans ("Midnight");

  0013f	68 00 00 00 00	 push	 OFFSET ??_C@_08ILMMEOKB@Midnight@
  00144	e8 00 00 00 00	 call	 ?get_trans@@YGPBDPBD@Z	; get_trans
  00149	b9 04 00 00 00	 mov	 ecx, 4
  0014e	6b d1 05	 imul	 edx, ecx, 5
  00151	89 82 00 00 00
	00		 mov	 DWORD PTR ?time_of_day_text@@3PAPBDA[edx], eax

; 346  : 
; 347  : 	weather_text [0] = get_trans ("Variable");

  00157	68 00 00 00 00	 push	 OFFSET ??_C@_08DMMJCAML@Variable@
  0015c	e8 00 00 00 00	 call	 ?get_trans@@YGPBDPBD@Z	; get_trans
  00161	b9 04 00 00 00	 mov	 ecx, 4
  00166	6b d1 00	 imul	 edx, ecx, 0
  00169	89 82 00 00 00
	00		 mov	 DWORD PTR ?weather_text@@3PAPBDA[edx], eax

; 348  : 	weather_text [1] = get_trans ("Good");

  0016f	68 00 00 00 00	 push	 OFFSET ??_C@_04PCFBEJFA@Good@
  00174	e8 00 00 00 00	 call	 ?get_trans@@YGPBDPBD@Z	; get_trans
  00179	b9 04 00 00 00	 mov	 ecx, 4
  0017e	c1 e1 00	 shl	 ecx, 0
  00181	89 81 00 00 00
	00		 mov	 DWORD PTR ?weather_text@@3PAPBDA[ecx], eax

; 349  : 	weather_text [2] = get_trans ("Fair");

  00187	68 00 00 00 00	 push	 OFFSET ??_C@_04DHPLNOLG@Fair@
  0018c	e8 00 00 00 00	 call	 ?get_trans@@YGPBDPBD@Z	; get_trans
  00191	b9 04 00 00 00	 mov	 ecx, 4
  00196	d1 e1		 shl	 ecx, 1
  00198	89 81 00 00 00
	00		 mov	 DWORD PTR ?weather_text@@3PAPBDA[ecx], eax

; 350  : 	weather_text [3] = get_trans ("Poor");

  0019e	68 00 00 00 00	 push	 OFFSET ??_C@_04DMAJLHBF@Poor@
  001a3	e8 00 00 00 00	 call	 ?get_trans@@YGPBDPBD@Z	; get_trans
  001a8	b9 04 00 00 00	 mov	 ecx, 4
  001ad	6b d1 03	 imul	 edx, ecx, 3
  001b0	89 82 00 00 00
	00		 mov	 DWORD PTR ?weather_text@@3PAPBDA[edx], eax

; 351  : 
; 352  : 	/////////////////////////////////////////////////////////////////
; 353  : 	// Session Setup Area
; 354  : 
; 355  : 	x1 = 0.0;

  001b6	0f 57 c0	 xorps	 xmm0, xmm0
  001b9	f3 0f 11 45 f0	 movss	 DWORD PTR _x1$[ebp], xmm0

; 356  : 	y1 = 0.0;

  001be	0f 57 c0	 xorps	 xmm0, xmm0
  001c1	f3 0f 11 45 ec	 movss	 DWORD PTR _y1$[ebp], xmm0

; 357  : 	x2 = 1.0;

  001c6	f3 0f 10 05 00
	00 00 00	 movss	 xmm0, DWORD PTR __real@3f800000
  001ce	f3 0f 11 45 e8	 movss	 DWORD PTR _x2$[ebp], xmm0

; 358  : 	y2 = 1.0;

  001d3	f3 0f 10 05 00
	00 00 00	 movss	 xmm0, DWORD PTR __real@3f800000
  001db	f3 0f 11 45 e4	 movss	 DWORD PTR _y2$[ebp], xmm0

; 359  : 
; 360  : 	session_parameters_area = create_ui_object

  001e0	6a 11		 push	 17			; 00000011H
  001e2	6a 00		 push	 0
  001e4	6a 16		 push	 22			; 00000016H
  001e6	6a 00		 push	 0
  001e8	6a 10		 push	 16			; 00000010H
  001ea	6a 01		 push	 1
  001ec	6a 07		 push	 7
  001ee	f3 0f 5a 45 e4	 cvtss2sd xmm0, DWORD PTR _y2$[ebp]
  001f3	83 ec 08	 sub	 esp, 8
  001f6	f2 0f 11 04 24	 movsd	 QWORD PTR [esp], xmm0
  001fb	f3 0f 5a 45 e8	 cvtss2sd xmm0, DWORD PTR _x2$[ebp]
  00200	83 ec 08	 sub	 esp, 8
  00203	f2 0f 11 04 24	 movsd	 QWORD PTR [esp], xmm0
  00208	6a 59		 push	 89			; 00000059H
  0020a	f3 0f 5a 45 ec	 cvtss2sd xmm0, DWORD PTR _y1$[ebp]
  0020f	83 ec 08	 sub	 esp, 8
  00212	f2 0f 11 04 24	 movsd	 QWORD PTR [esp], xmm0
  00217	f3 0f 5a 45 f0	 cvtss2sd xmm0, DWORD PTR _x1$[ebp]
  0021c	83 ec 08	 sub	 esp, 8
  0021f	f2 0f 11 04 24	 movsd	 QWORD PTR [esp], xmm0
  00224	6a 58		 push	 88			; 00000058H
  00226	a1 00 00 00 00	 mov	 eax, DWORD PTR ?session_screen@@3PAUUI_OBJECT@@A ; session_screen
  0022b	50		 push	 eax
  0022c	6a 32		 push	 50			; 00000032H
  0022e	6a 01		 push	 1
  00230	e8 00 00 00 00	 call	 ?create_ui_object@@YAPAUUI_OBJECT@@HZZ ; create_ui_object
  00235	83 c4 50	 add	 esp, 80			; 00000050H
  00238	a3 00 00 00 00	 mov	 DWORD PTR ?session_parameters_area@@3PAUUI_OBJECT@@A, eax ; session_parameters_area

; 361  : 			(
; 362  : 				UI_TYPE_AREA,
; 363  : 				UI_ATTR_PARENT (session_screen),
; 364  : 				UI_ATTR_VIRTUAL_POSITION (x1, y1),
; 365  : 				UI_ATTR_VIRTUAL_SIZE (x2, y2),
; 366  : 				UI_ATTR_CLEAR (TRUE),
; 367  : 				UI_ATTR_DRAWABLE (FALSE),
; 368  : 				UI_ATTR_FUNCTION (NOTIFY_TYPE_NONE),
; 369  : 				UI_ATTR_END
; 370  : 			);
; 371  : 
; 372  : 
; 373  : 	// areas and titles
; 374  : 
; 375  : //VJ 051011 add season summer/winter/desert button	==>
; 376  : 	/////////////////////////////////////////////////////////////////
; 377  : 	//Season
; 378  : 
; 379  : 	x1 = 0.506;

  0023d	f3 0f 10 05 00
	00 00 00	 movss	 xmm0, DWORD PTR __real@3f018937
  00245	f3 0f 11 45 f0	 movss	 DWORD PTR _x1$[ebp], xmm0

; 380  : 	y1 = 0.5333;

  0024a	f3 0f 10 05 00
	00 00 00	 movss	 xmm0, DWORD PTR __real@3f088659
  00252	f3 0f 11 45 ec	 movss	 DWORD PTR _y1$[ebp], xmm0

; 381  : 
; 382  : 	season_area = create_ui_object

  00257	6a 11		 push	 17			; 00000011H
  00259	6a 01		 push	 1
  0025b	6a 07		 push	 7
  0025d	83 ec 08	 sub	 esp, 8
  00260	f2 0f 10 05 00
	00 00 00	 movsd	 xmm0, QWORD PTR __real@3fadb22d00000000
  00268	f2 0f 11 04 24	 movsd	 QWORD PTR [esp], xmm0
  0026d	83 ec 08	 sub	 esp, 8
  00270	f2 0f 10 05 00
	00 00 00	 movsd	 xmm0, QWORD PTR __real@3fddd2f1a0000000
  00278	f2 0f 11 04 24	 movsd	 QWORD PTR [esp], xmm0
  0027d	6a 59		 push	 89			; 00000059H
  0027f	f3 0f 5a 45 ec	 cvtss2sd xmm0, DWORD PTR _y1$[ebp]
  00284	83 ec 08	 sub	 esp, 8
  00287	f2 0f 11 04 24	 movsd	 QWORD PTR [esp], xmm0
  0028c	f3 0f 5a 45 f0	 cvtss2sd xmm0, DWORD PTR _x1$[ebp]
  00291	83 ec 08	 sub	 esp, 8
  00294	f2 0f 11 04 24	 movsd	 QWORD PTR [esp], xmm0
  00299	6a 58		 push	 88			; 00000058H
  0029b	a1 00 00 00 00	 mov	 eax, DWORD PTR ?session_screen@@3PAUUI_OBJECT@@A ; session_screen
  002a0	50		 push	 eax
  002a1	6a 32		 push	 50			; 00000032H
  002a3	6a 01		 push	 1
  002a5	e8 00 00 00 00	 call	 ?create_ui_object@@YAPAUUI_OBJECT@@HZZ ; create_ui_object
  002aa	83 c4 40	 add	 esp, 64			; 00000040H
  002ad	a3 00 00 00 00	 mov	 DWORD PTR ?season_area@@3PAUUI_OBJECT@@A, eax ; season_area

; 383  : 								(
; 384  : 									UI_TYPE_AREA,
; 385  : 									UI_ATTR_PARENT (session_screen),
; 386  : 									UI_ATTR_VIRTUAL_POSITION (x1, y1),
; 387  : 									UI_ATTR_VIRTUAL_SIZE (SETUP_AREA_WIDTH, SETUP_AREA_HEIGHT),
; 388  : 									UI_ATTR_CLEAR (TRUE),
; 389  : 									UI_ATTR_END
; 390  : 								);
; 391  : 
; 392  : 	title_box_obj = create_ui_object

  002b2	6a 11		 push	 17			; 00000011H
  002b4	a1 00 00 00 00	 mov	 eax, DWORD PTR ?options_box_large@@3PAUTEXTURE_GRAPHIC@@A ; options_box_large
  002b9	50		 push	 eax
  002ba	6a 4c		 push	 76			; 0000004cH
  002bc	68 ff 00 00 00	 push	 255			; 000000ffH
  002c1	68 ff 00 00 00	 push	 255			; 000000ffH
  002c6	68 ff 00 00 00	 push	 255			; 000000ffH
  002cb	68 ff 00 00 00	 push	 255			; 000000ffH
  002d0	6a 0a		 push	 10			; 0000000aH
  002d2	6a 00		 push	 0
  002d4	68 ff 00 00 00	 push	 255			; 000000ffH
  002d9	68 ff 00 00 00	 push	 255			; 000000ffH
  002de	68 ff 00 00 00	 push	 255			; 000000ffH
  002e3	6a 0b		 push	 11			; 0000000bH
  002e5	83 ec 08	 sub	 esp, 8
  002e8	f2 0f 10 05 00
	00 00 00	 movsd	 xmm0, QWORD PTR __real@3ff0000000000000
  002f0	f2 0f 11 04 24	 movsd	 QWORD PTR [esp], xmm0
  002f5	83 ec 08	 sub	 esp, 8
  002f8	f2 0f 10 05 00
	00 00 00	 movsd	 xmm0, QWORD PTR __real@3fe451eb80000000
  00300	f2 0f 11 04 24	 movsd	 QWORD PTR [esp], xmm0
  00305	6a 59		 push	 89			; 00000059H
  00307	83 ec 08	 sub	 esp, 8
  0030a	0f 57 c0	 xorps	 xmm0, xmm0
  0030d	f2 0f 11 04 24	 movsd	 QWORD PTR [esp], xmm0
  00312	83 ec 08	 sub	 esp, 8
  00315	0f 57 c0	 xorps	 xmm0, xmm0
  00318	f2 0f 11 04 24	 movsd	 QWORD PTR [esp], xmm0
  0031d	6a 58		 push	 88			; 00000058H
  0031f	8b 0d 00 00 00
	00		 mov	 ecx, DWORD PTR ?season_area@@3PAUUI_OBJECT@@A ; season_area
  00325	51		 push	 ecx
  00326	6a 32		 push	 50			; 00000032H
  00328	6a 01		 push	 1
  0032a	e8 00 00 00 00	 call	 ?create_ui_object@@YAPAUUI_OBJECT@@HZZ ; create_ui_object
  0032f	83 c4 68	 add	 esp, 104		; 00000068H
  00332	89 45 fc	 mov	 DWORD PTR _title_box_obj$[ebp], eax

; 393  : 	(
; 394  : 		UI_TYPE_AREA,
; 395  : 		UI_ATTR_PARENT (season_area),
; 396  : 		UI_ATTR_VIRTUAL_POSITION (0, 0),
; 397  : 		UI_ATTR_VIRTUAL_SIZE (SETUP_BOX_WIDTH, SETUP_BOX_HEIGHT),
; 398  : 		UI_ATTR_COLOUR_START ( 255, 255, 255, 0 ),
; 399  : 		UI_ATTR_COLOUR_END ( 255, 255, 255, 255 ),
; 400  : 		UI_ATTR_TEXTURE_GRAPHIC (options_box_large),
; 401  : 		UI_ATTR_END
; 402  : 	);
; 403  : 
; 404  : 	title_text_obj = create_ui_object

  00335	6a 11		 push	 17			; 00000011H
  00337	68 00 00 00 00	 push	 OFFSET ??_C@_06ENLKNGPJ@Season@
  0033c	e8 00 00 00 00	 call	 ?get_trans@@YGPBDPBD@Z	; get_trans
  00341	50		 push	 eax
  00342	6a 4a		 push	 74			; 0000004aH
  00344	6a 02		 push	 2
  00346	6a 4b		 push	 75			; 0000004bH
  00348	83 ec 08	 sub	 esp, 8
  0034b	f2 0f 10 05 00
	00 00 00	 movsd	 xmm0, QWORD PTR __real@3fc24dd300000000
  00353	f2 0f 11 04 24	 movsd	 QWORD PTR [esp], xmm0
  00358	83 ec 08	 sub	 esp, 8
  0035b	f2 0f 10 05 00
	00 00 00	 movsd	 xmm0, QWORD PTR __real@3fe31a9fc0000000
  00363	f2 0f 11 04 24	 movsd	 QWORD PTR [esp], xmm0
  00368	6a 58		 push	 88			; 00000058H
  0036a	68 ff 00 00 00	 push	 255			; 000000ffH
  0036f	0f b6 05 00 00
	00 00		 movzx	 eax, BYTE PTR ?ui_option_title_text_colour@@3UREAL_COLOUR@@A
  00376	50		 push	 eax
  00377	0f b6 0d 01 00
	00 00		 movzx	 ecx, BYTE PTR ?ui_option_title_text_colour@@3UREAL_COLOUR@@A+1
  0037e	51		 push	 ecx
  0037f	0f b6 15 02 00
	00 00		 movzx	 edx, BYTE PTR ?ui_option_title_text_colour@@3UREAL_COLOUR@@A+2
  00386	52		 push	 edx
  00387	6a 14		 push	 20			; 00000014H
  00389	6a 00		 push	 0
  0038b	0f b6 05 00 00
	00 00		 movzx	 eax, BYTE PTR ?ui_option_title_text_colour@@3UREAL_COLOUR@@A
  00392	50		 push	 eax
  00393	0f b6 0d 01 00
	00 00		 movzx	 ecx, BYTE PTR ?ui_option_title_text_colour@@3UREAL_COLOUR@@A+1
  0039a	51		 push	 ecx
  0039b	0f b6 15 02 00
	00 00		 movzx	 edx, BYTE PTR ?ui_option_title_text_colour@@3UREAL_COLOUR@@A+2
  003a2	52		 push	 edx
  003a3	6a 15		 push	 21			; 00000015H
  003a5	6a 06		 push	 6
  003a7	6a 12		 push	 18			; 00000012H
  003a9	a1 00 00 00 00	 mov	 eax, DWORD PTR ?season_area@@3PAUUI_OBJECT@@A ; season_area
  003ae	50		 push	 eax
  003af	6a 32		 push	 50			; 00000032H
  003b1	6a 05		 push	 5
  003b3	e8 00 00 00 00	 call	 ?create_ui_object@@YAPAUUI_OBJECT@@HZZ ; create_ui_object
  003b8	83 c4 64	 add	 esp, 100		; 00000064H
  003bb	89 45 f8	 mov	 DWORD PTR _title_text_obj$[ebp], eax

; 405  : 	(
; 406  : 		UI_TYPE_TEXT,
; 407  : 		UI_ATTR_PARENT (season_area),
; 408  : 		UI_ATTR_FONT_TYPE (UI_FONT_THICK_ARIAL_18),
; 409  : 		UI_ATTR_FONT_COLOUR_START (ui_option_title_text_colour.r, ui_option_title_text_colour.g, ui_option_title_text_colour.b, 0),
; 410  : 		UI_ATTR_FONT_COLOUR_END (ui_option_title_text_colour.r, ui_option_title_text_colour.g, ui_option_title_text_colour.b, 255),
; 411  : 		UI_ATTR_VIRTUAL_POSITION (SETUP_BOX_TEXT_OFFSET_X, SETUP_BOX_TEXT_OFFSET_Y),
; 412  : 		UI_ATTR_TEXT_JUSTIFY (TEXT_JUSTIFY_RIGHT_CENTRE),
; 413  : 		UI_ATTR_TEXT (get_trans ("Season")),
; 414  : 		UI_ATTR_END
; 415  : 	);
; 416  : 
; 417  : 	// Season Button
; 418  : 
; 419  : 	button_box_obj = create_ui_object

  003be	6a 11		 push	 17			; 00000011H
  003c0	a1 00 00 00 00	 mov	 eax, DWORD PTR ?options_box_medium@@3PAUTEXTURE_GRAPHIC@@A ; options_box_medium
  003c5	50		 push	 eax
  003c6	6a 4c		 push	 76			; 0000004cH
  003c8	68 ff 00 00 00	 push	 255			; 000000ffH
  003cd	68 ff 00 00 00	 push	 255			; 000000ffH
  003d2	68 ff 00 00 00	 push	 255			; 000000ffH
  003d7	68 ff 00 00 00	 push	 255			; 000000ffH
  003dc	6a 0a		 push	 10			; 0000000aH
  003de	6a 00		 push	 0
  003e0	68 ff 00 00 00	 push	 255			; 000000ffH
  003e5	68 ff 00 00 00	 push	 255			; 000000ffH
  003ea	68 ff 00 00 00	 push	 255			; 000000ffH
  003ef	6a 0b		 push	 11			; 0000000bH
  003f1	83 ec 08	 sub	 esp, 8
  003f4	f2 0f 10 05 00
	00 00 00	 movsd	 xmm0, QWORD PTR __real@3ff0000000000000
  003fc	f2 0f 11 04 24	 movsd	 QWORD PTR [esp], xmm0
  00401	83 ec 08	 sub	 esp, 8
  00404	f2 0f 10 05 00
	00 00 00	 movsd	 xmm0, QWORD PTR __real@3fd70a3d80000000
  0040c	f2 0f 11 04 24	 movsd	 QWORD PTR [esp], xmm0
  00411	6a 59		 push	 89			; 00000059H
  00413	83 ec 08	 sub	 esp, 8
  00416	0f 57 c0	 xorps	 xmm0, xmm0
  00419	f2 0f 11 04 24	 movsd	 QWORD PTR [esp], xmm0
  0041e	83 ec 08	 sub	 esp, 8
  00421	f2 0f 10 05 00
	00 00 00	 movsd	 xmm0, QWORD PTR __real@3fe472b020000000
  00429	f2 0f 11 04 24	 movsd	 QWORD PTR [esp], xmm0
  0042e	6a 58		 push	 88			; 00000058H
  00430	8b 0d 00 00 00
	00		 mov	 ecx, DWORD PTR ?season_area@@3PAUUI_OBJECT@@A ; season_area
  00436	51		 push	 ecx
  00437	6a 32		 push	 50			; 00000032H
  00439	6a 01		 push	 1
  0043b	e8 00 00 00 00	 call	 ?create_ui_object@@YAPAUUI_OBJECT@@HZZ ; create_ui_object
  00440	83 c4 68	 add	 esp, 104		; 00000068H
  00443	89 45 f4	 mov	 DWORD PTR _button_box_obj$[ebp], eax

; 420  : 	(
; 421  : 		UI_TYPE_AREA,
; 422  : 		UI_ATTR_PARENT (season_area),
; 423  : 		UI_ATTR_VIRTUAL_POSITION (SETUP_BOX_WIDTH + SETUP_BOX_GAP_WIDTH, 0),
; 424  : 		UI_ATTR_VIRTUAL_SIZE (SETUP_BOX_MEDIUM_WIDTH, SETUP_BOX_HEIGHT),
; 425  : 		UI_ATTR_COLOUR_START ( 255, 255, 255, 0 ),
; 426  : 		UI_ATTR_COLOUR_END ( 255, 255, 255, 255 ),
; 427  : 		UI_ATTR_TEXTURE_GRAPHIC (options_box_medium),
; 428  : 		UI_ATTR_END
; 429  : 	);
; 430  : 
; 431  : 	season_button = create_ui_object

  00446	6a 11		 push	 17			; 00000011H
  00448	68 00 00 00 00	 push	 OFFSET ?notify_season_function@@YGXPAUUI_OBJECT@@PAX@Z ; notify_season_function
  0044d	6a 16		 push	 22			; 00000016H
  0044f	6a 01		 push	 1
  00451	6a 2f		 push	 47			; 0000002fH
  00453	6a 01		 push	 1
  00455	6a 07		 push	 7
  00457	6a 01		 push	 1
  00459	6a 1b		 push	 27			; 0000001bH
  0045b	68 ff 00 00 00	 push	 255			; 000000ffH
  00460	0f b6 05 00 00
	00 00		 movzx	 eax, BYTE PTR ?ui_option_text_hilite_colour@@3UREAL_COLOUR@@A
  00467	50		 push	 eax
  00468	0f b6 0d 01 00
	00 00		 movzx	 ecx, BYTE PTR ?ui_option_text_hilite_colour@@3UREAL_COLOUR@@A+1
  0046f	51		 push	 ecx
  00470	0f b6 15 02 00
	00 00		 movzx	 edx, BYTE PTR ?ui_option_text_hilite_colour@@3UREAL_COLOUR@@A+2
  00477	52		 push	 edx
  00478	6a 22		 push	 34			; 00000022H
  0047a	6a 00		 push	 0
  0047c	0f b6 05 00 00
	00 00		 movzx	 eax, BYTE PTR ?ui_option_text_hilite_colour@@3UREAL_COLOUR@@A
  00483	50		 push	 eax
  00484	0f b6 0d 01 00
	00 00		 movzx	 ecx, BYTE PTR ?ui_option_text_hilite_colour@@3UREAL_COLOUR@@A+1
  0048b	51		 push	 ecx
  0048c	0f b6 15 02 00
	00 00		 movzx	 edx, BYTE PTR ?ui_option_text_hilite_colour@@3UREAL_COLOUR@@A+2
  00493	52		 push	 edx
  00494	6a 23		 push	 35			; 00000023H
  00496	68 ff 00 00 00	 push	 255			; 000000ffH
  0049b	0f b6 05 00 00
	00 00		 movzx	 eax, BYTE PTR ?ui_option_text_default_colour@@3UREAL_COLOUR@@A
  004a2	50		 push	 eax
  004a3	0f b6 0d 01 00
	00 00		 movzx	 ecx, BYTE PTR ?ui_option_text_default_colour@@3UREAL_COLOUR@@A+1
  004aa	51		 push	 ecx
  004ab	0f b6 15 02 00
	00 00		 movzx	 edx, BYTE PTR ?ui_option_text_default_colour@@3UREAL_COLOUR@@A+2
  004b2	52		 push	 edx
  004b3	6a 14		 push	 20			; 00000014H
  004b5	6a 00		 push	 0
  004b7	0f b6 05 00 00
	00 00		 movzx	 eax, BYTE PTR ?ui_option_text_default_colour@@3UREAL_COLOUR@@A
  004be	50		 push	 eax
  004bf	0f b6 0d 01 00
	00 00		 movzx	 ecx, BYTE PTR ?ui_option_text_default_colour@@3UREAL_COLOUR@@A+1
  004c6	51		 push	 ecx
  004c7	0f b6 15 02 00
	00 00		 movzx	 edx, BYTE PTR ?ui_option_text_default_colour@@3UREAL_COLOUR@@A+2
  004ce	52		 push	 edx
  004cf	6a 15		 push	 21			; 00000015H
  004d1	68 00 00 00 00	 push	 OFFSET ??_C@_00CNPNBAHC@@
  004d6	6a 4a		 push	 74			; 0000004aH
  004d8	6a 01		 push	 1
  004da	6a 4b		 push	 75			; 0000004bH
  004dc	83 ec 08	 sub	 esp, 8
  004df	f2 0f 10 05 00
	00 00 00	 movsd	 xmm0, QWORD PTR __real@3fc24dd300000000
  004e7	f2 0f 11 04 24	 movsd	 QWORD PTR [esp], xmm0
  004ec	83 ec 08	 sub	 esp, 8
  004ef	f2 0f 10 05 00
	00 00 00	 movsd	 xmm0, QWORD PTR __real@3fa99999a0000000
  004f7	f2 0f 11 04 24	 movsd	 QWORD PTR [esp], xmm0
  004fc	6a 58		 push	 88			; 00000058H
  004fe	6a 08		 push	 8
  00500	6a 12		 push	 18			; 00000012H
  00502	8b 45 f4	 mov	 eax, DWORD PTR _button_box_obj$[ebp]
  00505	50		 push	 eax
  00506	6a 32		 push	 50			; 00000032H
  00508	6a 05		 push	 5
  0050a	e8 00 00 00 00	 call	 ?create_ui_object@@YAPAUUI_OBJECT@@HZZ ; create_ui_object
  0050f	81 c4 ac 00 00
	00		 add	 esp, 172		; 000000acH
  00515	a3 00 00 00 00	 mov	 DWORD PTR ?season_button@@3PAUUI_OBJECT@@A, eax ; season_button

; 432  : 	(
; 433  : 		UI_TYPE_TEXT,
; 434  : 		UI_ATTR_PARENT (button_box_obj),
; 435  : 		UI_ATTR_FONT_TYPE (UI_FONT_THICK_ITALIC_ARIAL_18),
; 436  : 		UI_ATTR_VIRTUAL_POSITION (SETUP_BUTTON_TEXT_OFFSET_X, SETUP_BOX_TEXT_OFFSET_Y),
; 437  : 		UI_ATTR_TEXT_JUSTIFY (TEXT_JUSTIFY_LEFT_CENTRE),
; 438  : 		UI_ATTR_TEXT (""),
; 439  : 		UI_ATTR_FONT_COLOUR_START (ui_option_text_default_colour.r, ui_option_text_default_colour.g, ui_option_text_default_colour.b, 0),
; 440  : 		UI_ATTR_FONT_COLOUR_END (ui_option_text_default_colour.r, ui_option_text_default_colour.g, ui_option_text_default_colour.b, 255),
; 441  : 		UI_ATTR_HIGHLIGHTED_FONT_COLOUR_START (ui_option_text_hilite_colour.r, ui_option_text_hilite_colour.g, ui_option_text_hilite_colour.b, 0),
; 442  : 		UI_ATTR_HIGHLIGHTED_FONT_COLOUR_END (ui_option_text_hilite_colour.r, ui_option_text_hilite_colour.g, ui_option_text_hilite_colour.b, 255),
; 443  : 		UI_ATTR_HIGHLIGHTABLE (TRUE),
; 444  : 		UI_ATTR_CLEAR (TRUE),
; 445  : 		UI_ATTR_NOTIFY_ON (NOTIFY_TYPE_BUTTON_UP),
; 446  : 		UI_ATTR_FUNCTION (notify_season_function),
; 447  : 		UI_ATTR_END
; 448  : 	);
; 449  : 
; 450  : 	process_sessparm_objects (title_box_obj, title_text_obj, button_box_obj, season_button, season_text, 4);

  0051a	6a 04		 push	 4
  0051c	68 00 00 00 00	 push	 OFFSET ?season_text@@3PAPBDA
  00521	a1 00 00 00 00	 mov	 eax, DWORD PTR ?season_button@@3PAUUI_OBJECT@@A ; season_button
  00526	50		 push	 eax
  00527	8b 4d f4	 mov	 ecx, DWORD PTR _button_box_obj$[ebp]
  0052a	51		 push	 ecx
  0052b	8b 55 f8	 mov	 edx, DWORD PTR _title_text_obj$[ebp]
  0052e	52		 push	 edx
  0052f	8b 45 fc	 mov	 eax, DWORD PTR _title_box_obj$[ebp]
  00532	50		 push	 eax
  00533	e8 00 00 00 00	 call	 ?process_sessparm_objects@@YGXPAUUI_OBJECT@@000QAPBDH@Z ; process_sessparm_objects

; 451  : 
; 452  : 	/////////////////////////////////////////////////////////////////
; 453  : 	//Time of Day
; 454  : 
; 455  : 	y1 += OPTION_AREA_OFFSET_Y;

  00538	f3 0f 10 45 ec	 movss	 xmm0, DWORD PTR _y1$[ebp]
  0053d	f3 0f 58 05 00
	00 00 00	 addss	 xmm0, DWORD PTR __real@3d7df3b6
  00545	f3 0f 11 45 ec	 movss	 DWORD PTR _y1$[ebp], xmm0

; 456  : 
; 457  : 	time_of_day_area = create_ui_object

  0054a	6a 11		 push	 17			; 00000011H
  0054c	6a 01		 push	 1
  0054e	6a 07		 push	 7
  00550	83 ec 08	 sub	 esp, 8
  00553	f2 0f 10 05 00
	00 00 00	 movsd	 xmm0, QWORD PTR __real@3fadb22d00000000
  0055b	f2 0f 11 04 24	 movsd	 QWORD PTR [esp], xmm0
  00560	83 ec 08	 sub	 esp, 8
  00563	f2 0f 10 05 00
	00 00 00	 movsd	 xmm0, QWORD PTR __real@3fddd2f1a0000000
  0056b	f2 0f 11 04 24	 movsd	 QWORD PTR [esp], xmm0
  00570	6a 59		 push	 89			; 00000059H
  00572	f3 0f 5a 45 ec	 cvtss2sd xmm0, DWORD PTR _y1$[ebp]
  00577	83 ec 08	 sub	 esp, 8
  0057a	f2 0f 11 04 24	 movsd	 QWORD PTR [esp], xmm0
  0057f	f3 0f 5a 45 f0	 cvtss2sd xmm0, DWORD PTR _x1$[ebp]
  00584	83 ec 08	 sub	 esp, 8
  00587	f2 0f 11 04 24	 movsd	 QWORD PTR [esp], xmm0
  0058c	6a 58		 push	 88			; 00000058H
  0058e	a1 00 00 00 00	 mov	 eax, DWORD PTR ?session_screen@@3PAUUI_OBJECT@@A ; session_screen
  00593	50		 push	 eax
  00594	6a 32		 push	 50			; 00000032H
  00596	6a 01		 push	 1
  00598	e8 00 00 00 00	 call	 ?create_ui_object@@YAPAUUI_OBJECT@@HZZ ; create_ui_object
  0059d	83 c4 40	 add	 esp, 64			; 00000040H
  005a0	a3 00 00 00 00	 mov	 DWORD PTR ?time_of_day_area@@3PAUUI_OBJECT@@A, eax ; time_of_day_area

; 458  : 								(
; 459  : 									UI_TYPE_AREA,
; 460  : 									UI_ATTR_PARENT (session_screen),
; 461  : 									UI_ATTR_VIRTUAL_POSITION (x1, y1),
; 462  : 									UI_ATTR_VIRTUAL_SIZE (SETUP_AREA_WIDTH, SETUP_AREA_HEIGHT),
; 463  : 									UI_ATTR_CLEAR (TRUE),
; 464  : 									UI_ATTR_END
; 465  : 								);
; 466  : 
; 467  : 	title_box_obj = create_ui_object

  005a5	6a 11		 push	 17			; 00000011H
  005a7	a1 00 00 00 00	 mov	 eax, DWORD PTR ?options_box_large@@3PAUTEXTURE_GRAPHIC@@A ; options_box_large
  005ac	50		 push	 eax
  005ad	6a 4c		 push	 76			; 0000004cH
  005af	68 ff 00 00 00	 push	 255			; 000000ffH
  005b4	68 ff 00 00 00	 push	 255			; 000000ffH
  005b9	68 ff 00 00 00	 push	 255			; 000000ffH
  005be	68 ff 00 00 00	 push	 255			; 000000ffH
  005c3	6a 0a		 push	 10			; 0000000aH
  005c5	6a 00		 push	 0
  005c7	68 ff 00 00 00	 push	 255			; 000000ffH
  005cc	68 ff 00 00 00	 push	 255			; 000000ffH
  005d1	68 ff 00 00 00	 push	 255			; 000000ffH
  005d6	6a 0b		 push	 11			; 0000000bH
  005d8	83 ec 08	 sub	 esp, 8
  005db	f2 0f 10 05 00
	00 00 00	 movsd	 xmm0, QWORD PTR __real@3ff0000000000000
  005e3	f2 0f 11 04 24	 movsd	 QWORD PTR [esp], xmm0
  005e8	83 ec 08	 sub	 esp, 8
  005eb	f2 0f 10 05 00
	00 00 00	 movsd	 xmm0, QWORD PTR __real@3fe451eb80000000
  005f3	f2 0f 11 04 24	 movsd	 QWORD PTR [esp], xmm0
  005f8	6a 59		 push	 89			; 00000059H
  005fa	83 ec 08	 sub	 esp, 8
  005fd	0f 57 c0	 xorps	 xmm0, xmm0
  00600	f2 0f 11 04 24	 movsd	 QWORD PTR [esp], xmm0
  00605	83 ec 08	 sub	 esp, 8
  00608	0f 57 c0	 xorps	 xmm0, xmm0
  0060b	f2 0f 11 04 24	 movsd	 QWORD PTR [esp], xmm0
  00610	6a 58		 push	 88			; 00000058H
  00612	8b 0d 00 00 00
	00		 mov	 ecx, DWORD PTR ?time_of_day_area@@3PAUUI_OBJECT@@A ; time_of_day_area
  00618	51		 push	 ecx
  00619	6a 32		 push	 50			; 00000032H
  0061b	6a 01		 push	 1
  0061d	e8 00 00 00 00	 call	 ?create_ui_object@@YAPAUUI_OBJECT@@HZZ ; create_ui_object
  00622	83 c4 68	 add	 esp, 104		; 00000068H
  00625	89 45 fc	 mov	 DWORD PTR _title_box_obj$[ebp], eax

; 468  : 	(
; 469  : 		UI_TYPE_AREA,
; 470  : 		UI_ATTR_PARENT (time_of_day_area),
; 471  : 		UI_ATTR_VIRTUAL_POSITION (0, 0),
; 472  : 		UI_ATTR_VIRTUAL_SIZE (SETUP_BOX_WIDTH, SETUP_BOX_HEIGHT),
; 473  : 		UI_ATTR_COLOUR_START ( 255, 255, 255, 0 ),
; 474  : 		UI_ATTR_COLOUR_END ( 255, 255, 255, 255 ),
; 475  : 		UI_ATTR_TEXTURE_GRAPHIC (options_box_large),
; 476  : 		UI_ATTR_END
; 477  : 	);
; 478  : 
; 479  : 	title_text_obj = create_ui_object

  00628	6a 11		 push	 17			; 00000011H
  0062a	68 00 00 00 00	 push	 OFFSET ??_C@_0M@FFOELDDC@Time?5Of?5Day@
  0062f	e8 00 00 00 00	 call	 ?get_trans@@YGPBDPBD@Z	; get_trans
  00634	50		 push	 eax
  00635	6a 4a		 push	 74			; 0000004aH
  00637	6a 02		 push	 2
  00639	6a 4b		 push	 75			; 0000004bH
  0063b	83 ec 08	 sub	 esp, 8
  0063e	f2 0f 10 05 00
	00 00 00	 movsd	 xmm0, QWORD PTR __real@3fc24dd300000000
  00646	f2 0f 11 04 24	 movsd	 QWORD PTR [esp], xmm0
  0064b	83 ec 08	 sub	 esp, 8
  0064e	f2 0f 10 05 00
	00 00 00	 movsd	 xmm0, QWORD PTR __real@3fe31a9fc0000000
  00656	f2 0f 11 04 24	 movsd	 QWORD PTR [esp], xmm0
  0065b	6a 58		 push	 88			; 00000058H
  0065d	68 ff 00 00 00	 push	 255			; 000000ffH
  00662	0f b6 05 00 00
	00 00		 movzx	 eax, BYTE PTR ?ui_option_title_text_colour@@3UREAL_COLOUR@@A
  00669	50		 push	 eax
  0066a	0f b6 0d 01 00
	00 00		 movzx	 ecx, BYTE PTR ?ui_option_title_text_colour@@3UREAL_COLOUR@@A+1
  00671	51		 push	 ecx
  00672	0f b6 15 02 00
	00 00		 movzx	 edx, BYTE PTR ?ui_option_title_text_colour@@3UREAL_COLOUR@@A+2
  00679	52		 push	 edx
  0067a	6a 14		 push	 20			; 00000014H
  0067c	6a 00		 push	 0
  0067e	0f b6 05 00 00
	00 00		 movzx	 eax, BYTE PTR ?ui_option_title_text_colour@@3UREAL_COLOUR@@A
  00685	50		 push	 eax
  00686	0f b6 0d 01 00
	00 00		 movzx	 ecx, BYTE PTR ?ui_option_title_text_colour@@3UREAL_COLOUR@@A+1
  0068d	51		 push	 ecx
  0068e	0f b6 15 02 00
	00 00		 movzx	 edx, BYTE PTR ?ui_option_title_text_colour@@3UREAL_COLOUR@@A+2
  00695	52		 push	 edx
  00696	6a 15		 push	 21			; 00000015H
  00698	6a 06		 push	 6
  0069a	6a 12		 push	 18			; 00000012H
  0069c	a1 00 00 00 00	 mov	 eax, DWORD PTR ?time_of_day_area@@3PAUUI_OBJECT@@A ; time_of_day_area
  006a1	50		 push	 eax
  006a2	6a 32		 push	 50			; 00000032H
  006a4	6a 05		 push	 5
  006a6	e8 00 00 00 00	 call	 ?create_ui_object@@YAPAUUI_OBJECT@@HZZ ; create_ui_object
  006ab	83 c4 64	 add	 esp, 100		; 00000064H
  006ae	89 45 f8	 mov	 DWORD PTR _title_text_obj$[ebp], eax

; 480  : 	(
; 481  : 		UI_TYPE_TEXT,
; 482  : 		UI_ATTR_PARENT (time_of_day_area),
; 483  : 		UI_ATTR_FONT_TYPE (UI_FONT_THICK_ARIAL_18),
; 484  : 		UI_ATTR_FONT_COLOUR_START (ui_option_title_text_colour.r, ui_option_title_text_colour.g, ui_option_title_text_colour.b, 0),
; 485  : 		UI_ATTR_FONT_COLOUR_END (ui_option_title_text_colour.r, ui_option_title_text_colour.g, ui_option_title_text_colour.b, 255),
; 486  : 		UI_ATTR_VIRTUAL_POSITION (SETUP_BOX_TEXT_OFFSET_X, SETUP_BOX_TEXT_OFFSET_Y),
; 487  : 		UI_ATTR_TEXT_JUSTIFY (TEXT_JUSTIFY_RIGHT_CENTRE),
; 488  : 		UI_ATTR_TEXT (get_trans ("Time Of Day")),
; 489  : 		UI_ATTR_END
; 490  : 	);
; 491  : 
; 492  : 	// Time Of Day Button
; 493  : 
; 494  : 	button_box_obj = create_ui_object

  006b1	6a 11		 push	 17			; 00000011H
  006b3	a1 00 00 00 00	 mov	 eax, DWORD PTR ?options_box_medium@@3PAUTEXTURE_GRAPHIC@@A ; options_box_medium
  006b8	50		 push	 eax
  006b9	6a 4c		 push	 76			; 0000004cH
  006bb	68 ff 00 00 00	 push	 255			; 000000ffH
  006c0	68 ff 00 00 00	 push	 255			; 000000ffH
  006c5	68 ff 00 00 00	 push	 255			; 000000ffH
  006ca	68 ff 00 00 00	 push	 255			; 000000ffH
  006cf	6a 0a		 push	 10			; 0000000aH
  006d1	6a 00		 push	 0
  006d3	68 ff 00 00 00	 push	 255			; 000000ffH
  006d8	68 ff 00 00 00	 push	 255			; 000000ffH
  006dd	68 ff 00 00 00	 push	 255			; 000000ffH
  006e2	6a 0b		 push	 11			; 0000000bH
  006e4	83 ec 08	 sub	 esp, 8
  006e7	f2 0f 10 05 00
	00 00 00	 movsd	 xmm0, QWORD PTR __real@3ff0000000000000
  006ef	f2 0f 11 04 24	 movsd	 QWORD PTR [esp], xmm0
  006f4	83 ec 08	 sub	 esp, 8
  006f7	f2 0f 10 05 00
	00 00 00	 movsd	 xmm0, QWORD PTR __real@3fd70a3d80000000
  006ff	f2 0f 11 04 24	 movsd	 QWORD PTR [esp], xmm0
  00704	6a 59		 push	 89			; 00000059H
  00706	83 ec 08	 sub	 esp, 8
  00709	0f 57 c0	 xorps	 xmm0, xmm0
  0070c	f2 0f 11 04 24	 movsd	 QWORD PTR [esp], xmm0
  00711	83 ec 08	 sub	 esp, 8
  00714	f2 0f 10 05 00
	00 00 00	 movsd	 xmm0, QWORD PTR __real@3fe472b020000000
  0071c	f2 0f 11 04 24	 movsd	 QWORD PTR [esp], xmm0
  00721	6a 58		 push	 88			; 00000058H
  00723	8b 0d 00 00 00
	00		 mov	 ecx, DWORD PTR ?time_of_day_area@@3PAUUI_OBJECT@@A ; time_of_day_area
  00729	51		 push	 ecx
  0072a	6a 32		 push	 50			; 00000032H
  0072c	6a 01		 push	 1
  0072e	e8 00 00 00 00	 call	 ?create_ui_object@@YAPAUUI_OBJECT@@HZZ ; create_ui_object
  00733	83 c4 68	 add	 esp, 104		; 00000068H
  00736	89 45 f4	 mov	 DWORD PTR _button_box_obj$[ebp], eax

; 495  : 	(
; 496  : 		UI_TYPE_AREA,
; 497  : 		UI_ATTR_PARENT (time_of_day_area),
; 498  : 		UI_ATTR_VIRTUAL_POSITION (SETUP_BOX_WIDTH + SETUP_BOX_GAP_WIDTH, 0),
; 499  : 		UI_ATTR_VIRTUAL_SIZE (SETUP_BOX_MEDIUM_WIDTH, SETUP_BOX_HEIGHT),
; 500  : 		UI_ATTR_COLOUR_START ( 255, 255, 255, 0 ),
; 501  : 		UI_ATTR_COLOUR_END ( 255, 255, 255, 255 ),
; 502  : 		UI_ATTR_TEXTURE_GRAPHIC (options_box_medium),
; 503  : 		UI_ATTR_END
; 504  : 	);
; 505  : 
; 506  : 	time_of_day_button = create_ui_object

  00739	6a 11		 push	 17			; 00000011H
  0073b	68 00 00 00 00	 push	 OFFSET ?notify_time_of_day_function@@YGXPAUUI_OBJECT@@PAX@Z ; notify_time_of_day_function
  00740	6a 16		 push	 22			; 00000016H
  00742	6a 01		 push	 1
  00744	6a 2f		 push	 47			; 0000002fH
  00746	6a 01		 push	 1
  00748	6a 07		 push	 7
  0074a	6a 01		 push	 1
  0074c	6a 1b		 push	 27			; 0000001bH
  0074e	68 ff 00 00 00	 push	 255			; 000000ffH
  00753	0f b6 05 00 00
	00 00		 movzx	 eax, BYTE PTR ?ui_option_text_hilite_colour@@3UREAL_COLOUR@@A
  0075a	50		 push	 eax
  0075b	0f b6 0d 01 00
	00 00		 movzx	 ecx, BYTE PTR ?ui_option_text_hilite_colour@@3UREAL_COLOUR@@A+1
  00762	51		 push	 ecx
  00763	0f b6 15 02 00
	00 00		 movzx	 edx, BYTE PTR ?ui_option_text_hilite_colour@@3UREAL_COLOUR@@A+2
  0076a	52		 push	 edx
  0076b	6a 22		 push	 34			; 00000022H
  0076d	6a 00		 push	 0
  0076f	0f b6 05 00 00
	00 00		 movzx	 eax, BYTE PTR ?ui_option_text_hilite_colour@@3UREAL_COLOUR@@A
  00776	50		 push	 eax
  00777	0f b6 0d 01 00
	00 00		 movzx	 ecx, BYTE PTR ?ui_option_text_hilite_colour@@3UREAL_COLOUR@@A+1
  0077e	51		 push	 ecx
  0077f	0f b6 15 02 00
	00 00		 movzx	 edx, BYTE PTR ?ui_option_text_hilite_colour@@3UREAL_COLOUR@@A+2
  00786	52		 push	 edx
  00787	6a 23		 push	 35			; 00000023H
  00789	68 ff 00 00 00	 push	 255			; 000000ffH
  0078e	0f b6 05 00 00
	00 00		 movzx	 eax, BYTE PTR ?ui_option_text_default_colour@@3UREAL_COLOUR@@A
  00795	50		 push	 eax
  00796	0f b6 0d 01 00
	00 00		 movzx	 ecx, BYTE PTR ?ui_option_text_default_colour@@3UREAL_COLOUR@@A+1
  0079d	51		 push	 ecx
  0079e	0f b6 15 02 00
	00 00		 movzx	 edx, BYTE PTR ?ui_option_text_default_colour@@3UREAL_COLOUR@@A+2
  007a5	52		 push	 edx
  007a6	6a 14		 push	 20			; 00000014H
  007a8	6a 00		 push	 0
  007aa	0f b6 05 00 00
	00 00		 movzx	 eax, BYTE PTR ?ui_option_text_default_colour@@3UREAL_COLOUR@@A
  007b1	50		 push	 eax
  007b2	0f b6 0d 01 00
	00 00		 movzx	 ecx, BYTE PTR ?ui_option_text_default_colour@@3UREAL_COLOUR@@A+1
  007b9	51		 push	 ecx
  007ba	0f b6 15 02 00
	00 00		 movzx	 edx, BYTE PTR ?ui_option_text_default_colour@@3UREAL_COLOUR@@A+2
  007c1	52		 push	 edx
  007c2	6a 15		 push	 21			; 00000015H
  007c4	68 00 00 00 00	 push	 OFFSET ??_C@_00CNPNBAHC@@
  007c9	6a 4a		 push	 74			; 0000004aH
  007cb	6a 01		 push	 1
  007cd	6a 4b		 push	 75			; 0000004bH
  007cf	83 ec 08	 sub	 esp, 8
  007d2	f2 0f 10 05 00
	00 00 00	 movsd	 xmm0, QWORD PTR __real@3fc24dd300000000
  007da	f2 0f 11 04 24	 movsd	 QWORD PTR [esp], xmm0
  007df	83 ec 08	 sub	 esp, 8
  007e2	f2 0f 10 05 00
	00 00 00	 movsd	 xmm0, QWORD PTR __real@3fa99999a0000000
  007ea	f2 0f 11 04 24	 movsd	 QWORD PTR [esp], xmm0
  007ef	6a 58		 push	 88			; 00000058H
  007f1	6a 08		 push	 8
  007f3	6a 12		 push	 18			; 00000012H
  007f5	8b 45 f4	 mov	 eax, DWORD PTR _button_box_obj$[ebp]
  007f8	50		 push	 eax
  007f9	6a 32		 push	 50			; 00000032H
  007fb	6a 05		 push	 5
  007fd	e8 00 00 00 00	 call	 ?create_ui_object@@YAPAUUI_OBJECT@@HZZ ; create_ui_object
  00802	81 c4 ac 00 00
	00		 add	 esp, 172		; 000000acH
  00808	a3 00 00 00 00	 mov	 DWORD PTR ?time_of_day_button@@3PAUUI_OBJECT@@A, eax ; time_of_day_button

; 507  : 	(
; 508  : 		UI_TYPE_TEXT,
; 509  : 		UI_ATTR_PARENT (button_box_obj),
; 510  : 		UI_ATTR_FONT_TYPE (UI_FONT_THICK_ITALIC_ARIAL_18),
; 511  : 		UI_ATTR_VIRTUAL_POSITION (SETUP_BUTTON_TEXT_OFFSET_X, SETUP_BOX_TEXT_OFFSET_Y),
; 512  : 		UI_ATTR_TEXT_JUSTIFY (TEXT_JUSTIFY_LEFT_CENTRE),
; 513  : 		UI_ATTR_TEXT (""),
; 514  : 		UI_ATTR_FONT_COLOUR_START (ui_option_text_default_colour.r, ui_option_text_default_colour.g, ui_option_text_default_colour.b, 0),
; 515  : 		UI_ATTR_FONT_COLOUR_END (ui_option_text_default_colour.r, ui_option_text_default_colour.g, ui_option_text_default_colour.b, 255),
; 516  : 		UI_ATTR_HIGHLIGHTED_FONT_COLOUR_START (ui_option_text_hilite_colour.r, ui_option_text_hilite_colour.g, ui_option_text_hilite_colour.b, 0),
; 517  : 		UI_ATTR_HIGHLIGHTED_FONT_COLOUR_END (ui_option_text_hilite_colour.r, ui_option_text_hilite_colour.g, ui_option_text_hilite_colour.b, 255),
; 518  : 		UI_ATTR_HIGHLIGHTABLE (TRUE),
; 519  : 		UI_ATTR_CLEAR (TRUE),
; 520  : 		UI_ATTR_NOTIFY_ON (NOTIFY_TYPE_BUTTON_UP),
; 521  : 		UI_ATTR_FUNCTION (notify_time_of_day_function),
; 522  : 		UI_ATTR_END
; 523  : 	);
; 524  : 
; 525  : 	process_sessparm_objects (title_box_obj, title_text_obj, button_box_obj, time_of_day_button, time_of_day_text, 5);

  0080d	6a 05		 push	 5
  0080f	68 00 00 00 00	 push	 OFFSET ?time_of_day_text@@3PAPBDA
  00814	a1 00 00 00 00	 mov	 eax, DWORD PTR ?time_of_day_button@@3PAUUI_OBJECT@@A ; time_of_day_button
  00819	50		 push	 eax
  0081a	8b 4d f4	 mov	 ecx, DWORD PTR _button_box_obj$[ebp]
  0081d	51		 push	 ecx
  0081e	8b 55 f8	 mov	 edx, DWORD PTR _title_text_obj$[ebp]
  00821	52		 push	 edx
  00822	8b 45 fc	 mov	 eax, DWORD PTR _title_box_obj$[ebp]
  00825	50		 push	 eax
  00826	e8 00 00 00 00	 call	 ?process_sessparm_objects@@YGXPAUUI_OBJECT@@000QAPBDH@Z ; process_sessparm_objects

; 526  : 
; 527  : //VJ 051011 <== add season summer/winter/desert button
; 528  : 
; 529  : 	/////////////////////////////////////////////////////////////////
; 530  : 	//	Weather
; 531  : 
; 532  : 	y1 += OPTION_AREA_OFFSET_Y;

  0082b	f3 0f 10 45 ec	 movss	 xmm0, DWORD PTR _y1$[ebp]
  00830	f3 0f 58 05 00
	00 00 00	 addss	 xmm0, DWORD PTR __real@3d7df3b6
  00838	f3 0f 11 45 ec	 movss	 DWORD PTR _y1$[ebp], xmm0

; 533  : 
; 534  : 	weather_area = create_ui_object

  0083d	6a 11		 push	 17			; 00000011H
  0083f	6a 01		 push	 1
  00841	6a 07		 push	 7
  00843	83 ec 08	 sub	 esp, 8
  00846	f2 0f 10 05 00
	00 00 00	 movsd	 xmm0, QWORD PTR __real@3fadb22d00000000
  0084e	f2 0f 11 04 24	 movsd	 QWORD PTR [esp], xmm0
  00853	83 ec 08	 sub	 esp, 8
  00856	f2 0f 10 05 00
	00 00 00	 movsd	 xmm0, QWORD PTR __real@3fddd2f1a0000000
  0085e	f2 0f 11 04 24	 movsd	 QWORD PTR [esp], xmm0
  00863	6a 59		 push	 89			; 00000059H
  00865	f3 0f 5a 45 ec	 cvtss2sd xmm0, DWORD PTR _y1$[ebp]
  0086a	83 ec 08	 sub	 esp, 8
  0086d	f2 0f 11 04 24	 movsd	 QWORD PTR [esp], xmm0
  00872	f3 0f 5a 45 f0	 cvtss2sd xmm0, DWORD PTR _x1$[ebp]
  00877	83 ec 08	 sub	 esp, 8
  0087a	f2 0f 11 04 24	 movsd	 QWORD PTR [esp], xmm0
  0087f	6a 58		 push	 88			; 00000058H
  00881	a1 00 00 00 00	 mov	 eax, DWORD PTR ?session_screen@@3PAUUI_OBJECT@@A ; session_screen
  00886	50		 push	 eax
  00887	6a 32		 push	 50			; 00000032H
  00889	6a 01		 push	 1
  0088b	e8 00 00 00 00	 call	 ?create_ui_object@@YAPAUUI_OBJECT@@HZZ ; create_ui_object
  00890	83 c4 40	 add	 esp, 64			; 00000040H
  00893	a3 00 00 00 00	 mov	 DWORD PTR ?weather_area@@3PAUUI_OBJECT@@A, eax ; weather_area

; 535  : 								(
; 536  : 									UI_TYPE_AREA,
; 537  : 									UI_ATTR_PARENT (session_screen),
; 538  : 									UI_ATTR_VIRTUAL_POSITION (x1, y1),
; 539  : 									UI_ATTR_VIRTUAL_SIZE (SETUP_AREA_WIDTH, SETUP_AREA_HEIGHT),
; 540  : 									UI_ATTR_CLEAR (TRUE),
; 541  : 									UI_ATTR_END
; 542  : 								);
; 543  : 
; 544  : 	title_box_obj = create_ui_object

  00898	6a 11		 push	 17			; 00000011H
  0089a	a1 00 00 00 00	 mov	 eax, DWORD PTR ?options_box_large@@3PAUTEXTURE_GRAPHIC@@A ; options_box_large
  0089f	50		 push	 eax
  008a0	6a 4c		 push	 76			; 0000004cH
  008a2	68 ff 00 00 00	 push	 255			; 000000ffH
  008a7	68 ff 00 00 00	 push	 255			; 000000ffH
  008ac	68 ff 00 00 00	 push	 255			; 000000ffH
  008b1	68 ff 00 00 00	 push	 255			; 000000ffH
  008b6	6a 0a		 push	 10			; 0000000aH
  008b8	6a 00		 push	 0
  008ba	68 ff 00 00 00	 push	 255			; 000000ffH
  008bf	68 ff 00 00 00	 push	 255			; 000000ffH
  008c4	68 ff 00 00 00	 push	 255			; 000000ffH
  008c9	6a 0b		 push	 11			; 0000000bH
  008cb	83 ec 08	 sub	 esp, 8
  008ce	f2 0f 10 05 00
	00 00 00	 movsd	 xmm0, QWORD PTR __real@3ff0000000000000
  008d6	f2 0f 11 04 24	 movsd	 QWORD PTR [esp], xmm0
  008db	83 ec 08	 sub	 esp, 8
  008de	f2 0f 10 05 00
	00 00 00	 movsd	 xmm0, QWORD PTR __real@3fe451eb80000000
  008e6	f2 0f 11 04 24	 movsd	 QWORD PTR [esp], xmm0
  008eb	6a 59		 push	 89			; 00000059H
  008ed	83 ec 08	 sub	 esp, 8
  008f0	0f 57 c0	 xorps	 xmm0, xmm0
  008f3	f2 0f 11 04 24	 movsd	 QWORD PTR [esp], xmm0
  008f8	83 ec 08	 sub	 esp, 8
  008fb	0f 57 c0	 xorps	 xmm0, xmm0
  008fe	f2 0f 11 04 24	 movsd	 QWORD PTR [esp], xmm0
  00903	6a 58		 push	 88			; 00000058H
  00905	8b 0d 00 00 00
	00		 mov	 ecx, DWORD PTR ?weather_area@@3PAUUI_OBJECT@@A ; weather_area
  0090b	51		 push	 ecx
  0090c	6a 32		 push	 50			; 00000032H
  0090e	6a 01		 push	 1
  00910	e8 00 00 00 00	 call	 ?create_ui_object@@YAPAUUI_OBJECT@@HZZ ; create_ui_object
  00915	83 c4 68	 add	 esp, 104		; 00000068H
  00918	89 45 fc	 mov	 DWORD PTR _title_box_obj$[ebp], eax

; 545  : 	(
; 546  : 		UI_TYPE_AREA,
; 547  : 		UI_ATTR_PARENT (weather_area),
; 548  : 		UI_ATTR_VIRTUAL_POSITION (0, 0),
; 549  : 		UI_ATTR_VIRTUAL_SIZE (SETUP_BOX_WIDTH, SETUP_BOX_HEIGHT),
; 550  : 		UI_ATTR_COLOUR_START ( 255, 255, 255, 0 ),
; 551  : 		UI_ATTR_COLOUR_END ( 255, 255, 255, 255 ),
; 552  : 		UI_ATTR_TEXTURE_GRAPHIC (options_box_large),
; 553  : 		UI_ATTR_END
; 554  : 	);
; 555  : 
; 556  : 	title_text_obj = create_ui_object

  0091b	6a 11		 push	 17			; 00000011H
  0091d	68 00 00 00 00	 push	 OFFSET ??_C@_07HOMNOOKI@Weather@
  00922	e8 00 00 00 00	 call	 ?get_trans@@YGPBDPBD@Z	; get_trans
  00927	50		 push	 eax
  00928	6a 4a		 push	 74			; 0000004aH
  0092a	6a 02		 push	 2
  0092c	6a 4b		 push	 75			; 0000004bH
  0092e	83 ec 08	 sub	 esp, 8
  00931	f2 0f 10 05 00
	00 00 00	 movsd	 xmm0, QWORD PTR __real@3fc24dd300000000
  00939	f2 0f 11 04 24	 movsd	 QWORD PTR [esp], xmm0
  0093e	83 ec 08	 sub	 esp, 8
  00941	f2 0f 10 05 00
	00 00 00	 movsd	 xmm0, QWORD PTR __real@3fe31a9fc0000000
  00949	f2 0f 11 04 24	 movsd	 QWORD PTR [esp], xmm0
  0094e	6a 58		 push	 88			; 00000058H
  00950	68 ff 00 00 00	 push	 255			; 000000ffH
  00955	0f b6 05 00 00
	00 00		 movzx	 eax, BYTE PTR ?ui_option_title_text_colour@@3UREAL_COLOUR@@A
  0095c	50		 push	 eax
  0095d	0f b6 0d 01 00
	00 00		 movzx	 ecx, BYTE PTR ?ui_option_title_text_colour@@3UREAL_COLOUR@@A+1
  00964	51		 push	 ecx
  00965	0f b6 15 02 00
	00 00		 movzx	 edx, BYTE PTR ?ui_option_title_text_colour@@3UREAL_COLOUR@@A+2
  0096c	52		 push	 edx
  0096d	6a 14		 push	 20			; 00000014H
  0096f	6a 00		 push	 0
  00971	0f b6 05 00 00
	00 00		 movzx	 eax, BYTE PTR ?ui_option_title_text_colour@@3UREAL_COLOUR@@A
  00978	50		 push	 eax
  00979	0f b6 0d 01 00
	00 00		 movzx	 ecx, BYTE PTR ?ui_option_title_text_colour@@3UREAL_COLOUR@@A+1
  00980	51		 push	 ecx
  00981	0f b6 15 02 00
	00 00		 movzx	 edx, BYTE PTR ?ui_option_title_text_colour@@3UREAL_COLOUR@@A+2
  00988	52		 push	 edx
  00989	6a 15		 push	 21			; 00000015H
  0098b	6a 06		 push	 6
  0098d	6a 12		 push	 18			; 00000012H
  0098f	a1 00 00 00 00	 mov	 eax, DWORD PTR ?weather_area@@3PAUUI_OBJECT@@A ; weather_area
  00994	50		 push	 eax
  00995	6a 32		 push	 50			; 00000032H
  00997	6a 05		 push	 5
  00999	e8 00 00 00 00	 call	 ?create_ui_object@@YAPAUUI_OBJECT@@HZZ ; create_ui_object
  0099e	83 c4 64	 add	 esp, 100		; 00000064H
  009a1	89 45 f8	 mov	 DWORD PTR _title_text_obj$[ebp], eax

; 557  : 	(
; 558  : 		UI_TYPE_TEXT,
; 559  : 		UI_ATTR_PARENT (weather_area),
; 560  : 		UI_ATTR_FONT_TYPE (UI_FONT_THICK_ARIAL_18),
; 561  : 		UI_ATTR_FONT_COLOUR_START (ui_option_title_text_colour.r, ui_option_title_text_colour.g, ui_option_title_text_colour.b, 0),
; 562  : 		UI_ATTR_FONT_COLOUR_END (ui_option_title_text_colour.r, ui_option_title_text_colour.g, ui_option_title_text_colour.b, 255),
; 563  : 		UI_ATTR_VIRTUAL_POSITION (SETUP_BOX_TEXT_OFFSET_X, SETUP_BOX_TEXT_OFFSET_Y),
; 564  : 		UI_ATTR_TEXT_JUSTIFY (TEXT_JUSTIFY_RIGHT_CENTRE),
; 565  : 		UI_ATTR_TEXT (get_trans ("Weather")),
; 566  : 		UI_ATTR_END
; 567  : 	);
; 568  : 
; 569  : 
; 570  : 	// Weather Button
; 571  : 
; 572  : 	button_box_obj = create_ui_object

  009a4	6a 11		 push	 17			; 00000011H
  009a6	a1 00 00 00 00	 mov	 eax, DWORD PTR ?options_box_medium@@3PAUTEXTURE_GRAPHIC@@A ; options_box_medium
  009ab	50		 push	 eax
  009ac	6a 4c		 push	 76			; 0000004cH
  009ae	68 ff 00 00 00	 push	 255			; 000000ffH
  009b3	68 ff 00 00 00	 push	 255			; 000000ffH
  009b8	68 ff 00 00 00	 push	 255			; 000000ffH
  009bd	68 ff 00 00 00	 push	 255			; 000000ffH
  009c2	6a 0a		 push	 10			; 0000000aH
  009c4	6a 00		 push	 0
  009c6	68 ff 00 00 00	 push	 255			; 000000ffH
  009cb	68 ff 00 00 00	 push	 255			; 000000ffH
  009d0	68 ff 00 00 00	 push	 255			; 000000ffH
  009d5	6a 0b		 push	 11			; 0000000bH
  009d7	83 ec 08	 sub	 esp, 8
  009da	f2 0f 10 05 00
	00 00 00	 movsd	 xmm0, QWORD PTR __real@3ff0000000000000
  009e2	f2 0f 11 04 24	 movsd	 QWORD PTR [esp], xmm0
  009e7	83 ec 08	 sub	 esp, 8
  009ea	f2 0f 10 05 00
	00 00 00	 movsd	 xmm0, QWORD PTR __real@3fd70a3d80000000
  009f2	f2 0f 11 04 24	 movsd	 QWORD PTR [esp], xmm0
  009f7	6a 59		 push	 89			; 00000059H
  009f9	83 ec 08	 sub	 esp, 8
  009fc	0f 57 c0	 xorps	 xmm0, xmm0
  009ff	f2 0f 11 04 24	 movsd	 QWORD PTR [esp], xmm0
  00a04	83 ec 08	 sub	 esp, 8
  00a07	f2 0f 10 05 00
	00 00 00	 movsd	 xmm0, QWORD PTR __real@3fe472b020000000
  00a0f	f2 0f 11 04 24	 movsd	 QWORD PTR [esp], xmm0
  00a14	6a 58		 push	 88			; 00000058H
  00a16	8b 0d 00 00 00
	00		 mov	 ecx, DWORD PTR ?weather_area@@3PAUUI_OBJECT@@A ; weather_area
  00a1c	51		 push	 ecx
  00a1d	6a 32		 push	 50			; 00000032H
  00a1f	6a 01		 push	 1
  00a21	e8 00 00 00 00	 call	 ?create_ui_object@@YAPAUUI_OBJECT@@HZZ ; create_ui_object
  00a26	83 c4 68	 add	 esp, 104		; 00000068H
  00a29	89 45 f4	 mov	 DWORD PTR _button_box_obj$[ebp], eax

; 573  : 	(
; 574  : 		UI_TYPE_AREA,
; 575  : 		UI_ATTR_PARENT (weather_area),
; 576  : 		UI_ATTR_VIRTUAL_POSITION (SETUP_BOX_WIDTH + SETUP_BOX_GAP_WIDTH, 0),
; 577  : 		UI_ATTR_VIRTUAL_SIZE (SETUP_BOX_MEDIUM_WIDTH, SETUP_BOX_HEIGHT),
; 578  : 		UI_ATTR_COLOUR_START ( 255, 255, 255, 0 ),
; 579  : 		UI_ATTR_COLOUR_END ( 255, 255, 255, 255 ),
; 580  : 		UI_ATTR_TEXTURE_GRAPHIC (options_box_medium),
; 581  : 		UI_ATTR_END
; 582  : 	);
; 583  : 
; 584  : 	weather_button = create_ui_object

  00a2c	6a 11		 push	 17			; 00000011H
  00a2e	68 00 00 00 00	 push	 OFFSET ?notify_weather_function@@YGXPAUUI_OBJECT@@PAX@Z ; notify_weather_function
  00a33	6a 16		 push	 22			; 00000016H
  00a35	6a 01		 push	 1
  00a37	6a 2f		 push	 47			; 0000002fH
  00a39	6a 01		 push	 1
  00a3b	6a 07		 push	 7
  00a3d	6a 01		 push	 1
  00a3f	6a 1b		 push	 27			; 0000001bH
  00a41	68 ff 00 00 00	 push	 255			; 000000ffH
  00a46	0f b6 05 00 00
	00 00		 movzx	 eax, BYTE PTR ?ui_option_text_hilite_colour@@3UREAL_COLOUR@@A
  00a4d	50		 push	 eax
  00a4e	0f b6 0d 01 00
	00 00		 movzx	 ecx, BYTE PTR ?ui_option_text_hilite_colour@@3UREAL_COLOUR@@A+1
  00a55	51		 push	 ecx
  00a56	0f b6 15 02 00
	00 00		 movzx	 edx, BYTE PTR ?ui_option_text_hilite_colour@@3UREAL_COLOUR@@A+2
  00a5d	52		 push	 edx
  00a5e	6a 22		 push	 34			; 00000022H
  00a60	6a 00		 push	 0
  00a62	0f b6 05 00 00
	00 00		 movzx	 eax, BYTE PTR ?ui_option_text_hilite_colour@@3UREAL_COLOUR@@A
  00a69	50		 push	 eax
  00a6a	0f b6 0d 01 00
	00 00		 movzx	 ecx, BYTE PTR ?ui_option_text_hilite_colour@@3UREAL_COLOUR@@A+1
  00a71	51		 push	 ecx
  00a72	0f b6 15 02 00
	00 00		 movzx	 edx, BYTE PTR ?ui_option_text_hilite_colour@@3UREAL_COLOUR@@A+2
  00a79	52		 push	 edx
  00a7a	6a 23		 push	 35			; 00000023H
  00a7c	68 ff 00 00 00	 push	 255			; 000000ffH
  00a81	0f b6 05 00 00
	00 00		 movzx	 eax, BYTE PTR ?ui_option_text_default_colour@@3UREAL_COLOUR@@A
  00a88	50		 push	 eax
  00a89	0f b6 0d 01 00
	00 00		 movzx	 ecx, BYTE PTR ?ui_option_text_default_colour@@3UREAL_COLOUR@@A+1
  00a90	51		 push	 ecx
  00a91	0f b6 15 02 00
	00 00		 movzx	 edx, BYTE PTR ?ui_option_text_default_colour@@3UREAL_COLOUR@@A+2
  00a98	52		 push	 edx
  00a99	6a 14		 push	 20			; 00000014H
  00a9b	6a 00		 push	 0
  00a9d	0f b6 05 00 00
	00 00		 movzx	 eax, BYTE PTR ?ui_option_text_default_colour@@3UREAL_COLOUR@@A
  00aa4	50		 push	 eax
  00aa5	0f b6 0d 01 00
	00 00		 movzx	 ecx, BYTE PTR ?ui_option_text_default_colour@@3UREAL_COLOUR@@A+1
  00aac	51		 push	 ecx
  00aad	0f b6 15 02 00
	00 00		 movzx	 edx, BYTE PTR ?ui_option_text_default_colour@@3UREAL_COLOUR@@A+2
  00ab4	52		 push	 edx
  00ab5	6a 15		 push	 21			; 00000015H
  00ab7	68 00 00 00 00	 push	 OFFSET ??_C@_00CNPNBAHC@@
  00abc	6a 4a		 push	 74			; 0000004aH
  00abe	6a 01		 push	 1
  00ac0	6a 4b		 push	 75			; 0000004bH
  00ac2	83 ec 08	 sub	 esp, 8
  00ac5	f2 0f 10 05 00
	00 00 00	 movsd	 xmm0, QWORD PTR __real@3fc24dd300000000
  00acd	f2 0f 11 04 24	 movsd	 QWORD PTR [esp], xmm0
  00ad2	83 ec 08	 sub	 esp, 8
  00ad5	f2 0f 10 05 00
	00 00 00	 movsd	 xmm0, QWORD PTR __real@3fa99999a0000000
  00add	f2 0f 11 04 24	 movsd	 QWORD PTR [esp], xmm0
  00ae2	6a 58		 push	 88			; 00000058H
  00ae4	6a 08		 push	 8
  00ae6	6a 12		 push	 18			; 00000012H
  00ae8	8b 45 f4	 mov	 eax, DWORD PTR _button_box_obj$[ebp]
  00aeb	50		 push	 eax
  00aec	6a 32		 push	 50			; 00000032H
  00aee	6a 05		 push	 5
  00af0	e8 00 00 00 00	 call	 ?create_ui_object@@YAPAUUI_OBJECT@@HZZ ; create_ui_object
  00af5	81 c4 ac 00 00
	00		 add	 esp, 172		; 000000acH
  00afb	a3 00 00 00 00	 mov	 DWORD PTR ?weather_button@@3PAUUI_OBJECT@@A, eax ; weather_button

; 585  : 	(
; 586  : 		UI_TYPE_TEXT,
; 587  : 		UI_ATTR_PARENT (button_box_obj),
; 588  : 		UI_ATTR_FONT_TYPE (UI_FONT_THICK_ITALIC_ARIAL_18),
; 589  : 		UI_ATTR_VIRTUAL_POSITION (SETUP_BUTTON_TEXT_OFFSET_X, SETUP_BOX_TEXT_OFFSET_Y),
; 590  : 		UI_ATTR_TEXT_JUSTIFY (TEXT_JUSTIFY_LEFT_CENTRE),
; 591  : 		UI_ATTR_TEXT (""),
; 592  : 		UI_ATTR_FONT_COLOUR_START (ui_option_text_default_colour.r, ui_option_text_default_colour.g, ui_option_text_default_colour.b, 0),
; 593  : 		UI_ATTR_FONT_COLOUR_END (ui_option_text_default_colour.r, ui_option_text_default_colour.g, ui_option_text_default_colour.b, 255),
; 594  : 		UI_ATTR_HIGHLIGHTED_FONT_COLOUR_START (ui_option_text_hilite_colour.r, ui_option_text_hilite_colour.g, ui_option_text_hilite_colour.b, 0),
; 595  : 		UI_ATTR_HIGHLIGHTED_FONT_COLOUR_END (ui_option_text_hilite_colour.r, ui_option_text_hilite_colour.g, ui_option_text_hilite_colour.b, 255),
; 596  : 		UI_ATTR_HIGHLIGHTABLE (TRUE),
; 597  : 		UI_ATTR_CLEAR (TRUE),
; 598  : 		UI_ATTR_NOTIFY_ON (NOTIFY_TYPE_BUTTON_UP),
; 599  : 		UI_ATTR_FUNCTION (notify_weather_function),
; 600  : 		UI_ATTR_END
; 601  : 	);
; 602  : 
; 603  : 	process_sessparm_objects (title_box_obj, title_text_obj, button_box_obj, weather_button, weather_text, 4);

  00b00	6a 04		 push	 4
  00b02	68 00 00 00 00	 push	 OFFSET ?weather_text@@3PAPBDA
  00b07	a1 00 00 00 00	 mov	 eax, DWORD PTR ?weather_button@@3PAUUI_OBJECT@@A ; weather_button
  00b0c	50		 push	 eax
  00b0d	8b 4d f4	 mov	 ecx, DWORD PTR _button_box_obj$[ebp]
  00b10	51		 push	 ecx
  00b11	8b 55 f8	 mov	 edx, DWORD PTR _title_text_obj$[ebp]
  00b14	52		 push	 edx
  00b15	8b 45 fc	 mov	 eax, DWORD PTR _title_box_obj$[ebp]
  00b18	50		 push	 eax
  00b19	e8 00 00 00 00	 call	 ?process_sessparm_objects@@YGXPAUUI_OBJECT@@000QAPBDH@Z ; process_sessparm_objects

; 604  : 
; 605  : 	/////////////////////////////////////////////////////////////////
; 606  : 	//	Realism Suppress AI Fire
; 607  : 
; 608  : 	y1 += OPTION_AREA_OFFSET_Y;

  00b1e	f3 0f 10 45 ec	 movss	 xmm0, DWORD PTR _y1$[ebp]
  00b23	f3 0f 58 05 00
	00 00 00	 addss	 xmm0, DWORD PTR __real@3d7df3b6
  00b2b	f3 0f 11 45 ec	 movss	 DWORD PTR _y1$[ebp], xmm0

; 609  : 
; 610  : 	realism_suppress_ai_fire_area = create_ui_object

  00b30	6a 11		 push	 17			; 00000011H
  00b32	6a 01		 push	 1
  00b34	6a 07		 push	 7
  00b36	83 ec 08	 sub	 esp, 8
  00b39	f2 0f 10 05 00
	00 00 00	 movsd	 xmm0, QWORD PTR __real@3fadb22d00000000
  00b41	f2 0f 11 04 24	 movsd	 QWORD PTR [esp], xmm0
  00b46	83 ec 08	 sub	 esp, 8
  00b49	f2 0f 10 05 00
	00 00 00	 movsd	 xmm0, QWORD PTR __real@3fddd2f1a0000000
  00b51	f2 0f 11 04 24	 movsd	 QWORD PTR [esp], xmm0
  00b56	6a 59		 push	 89			; 00000059H
  00b58	f3 0f 5a 45 ec	 cvtss2sd xmm0, DWORD PTR _y1$[ebp]
  00b5d	83 ec 08	 sub	 esp, 8
  00b60	f2 0f 11 04 24	 movsd	 QWORD PTR [esp], xmm0
  00b65	f3 0f 5a 45 f0	 cvtss2sd xmm0, DWORD PTR _x1$[ebp]
  00b6a	83 ec 08	 sub	 esp, 8
  00b6d	f2 0f 11 04 24	 movsd	 QWORD PTR [esp], xmm0
  00b72	6a 58		 push	 88			; 00000058H
  00b74	a1 00 00 00 00	 mov	 eax, DWORD PTR ?session_screen@@3PAUUI_OBJECT@@A ; session_screen
  00b79	50		 push	 eax
  00b7a	6a 32		 push	 50			; 00000032H
  00b7c	6a 01		 push	 1
  00b7e	e8 00 00 00 00	 call	 ?create_ui_object@@YAPAUUI_OBJECT@@HZZ ; create_ui_object
  00b83	83 c4 40	 add	 esp, 64			; 00000040H
  00b86	a3 00 00 00 00	 mov	 DWORD PTR ?realism_suppress_ai_fire_area@@3PAUUI_OBJECT@@A, eax ; realism_suppress_ai_fire_area

; 611  : 								(
; 612  : 									UI_TYPE_AREA,
; 613  : 									UI_ATTR_PARENT (session_screen),
; 614  : 									UI_ATTR_VIRTUAL_POSITION (x1, y1),
; 615  : 									UI_ATTR_VIRTUAL_SIZE (SETUP_AREA_WIDTH, SETUP_AREA_HEIGHT),
; 616  : 									UI_ATTR_CLEAR (TRUE),
; 617  : 									UI_ATTR_END
; 618  : 								);
; 619  : 
; 620  : 	title_box_obj = create_ui_object

  00b8b	6a 11		 push	 17			; 00000011H
  00b8d	a1 00 00 00 00	 mov	 eax, DWORD PTR ?options_box_large@@3PAUTEXTURE_GRAPHIC@@A ; options_box_large
  00b92	50		 push	 eax
  00b93	6a 4c		 push	 76			; 0000004cH
  00b95	68 ff 00 00 00	 push	 255			; 000000ffH
  00b9a	68 ff 00 00 00	 push	 255			; 000000ffH
  00b9f	68 ff 00 00 00	 push	 255			; 000000ffH
  00ba4	68 ff 00 00 00	 push	 255			; 000000ffH
  00ba9	6a 0a		 push	 10			; 0000000aH
  00bab	6a 00		 push	 0
  00bad	68 ff 00 00 00	 push	 255			; 000000ffH
  00bb2	68 ff 00 00 00	 push	 255			; 000000ffH
  00bb7	68 ff 00 00 00	 push	 255			; 000000ffH
  00bbc	6a 0b		 push	 11			; 0000000bH
  00bbe	83 ec 08	 sub	 esp, 8
  00bc1	f2 0f 10 05 00
	00 00 00	 movsd	 xmm0, QWORD PTR __real@3ff0000000000000
  00bc9	f2 0f 11 04 24	 movsd	 QWORD PTR [esp], xmm0
  00bce	83 ec 08	 sub	 esp, 8
  00bd1	f2 0f 10 05 00
	00 00 00	 movsd	 xmm0, QWORD PTR __real@3fe451eb80000000
  00bd9	f2 0f 11 04 24	 movsd	 QWORD PTR [esp], xmm0
  00bde	6a 59		 push	 89			; 00000059H
  00be0	83 ec 08	 sub	 esp, 8
  00be3	0f 57 c0	 xorps	 xmm0, xmm0
  00be6	f2 0f 11 04 24	 movsd	 QWORD PTR [esp], xmm0
  00beb	83 ec 08	 sub	 esp, 8
  00bee	0f 57 c0	 xorps	 xmm0, xmm0
  00bf1	f2 0f 11 04 24	 movsd	 QWORD PTR [esp], xmm0
  00bf6	6a 58		 push	 88			; 00000058H
  00bf8	8b 0d 00 00 00
	00		 mov	 ecx, DWORD PTR ?realism_suppress_ai_fire_area@@3PAUUI_OBJECT@@A ; realism_suppress_ai_fire_area
  00bfe	51		 push	 ecx
  00bff	6a 32		 push	 50			; 00000032H
  00c01	6a 01		 push	 1
  00c03	e8 00 00 00 00	 call	 ?create_ui_object@@YAPAUUI_OBJECT@@HZZ ; create_ui_object
  00c08	83 c4 68	 add	 esp, 104		; 00000068H
  00c0b	89 45 fc	 mov	 DWORD PTR _title_box_obj$[ebp], eax

; 621  : 	(
; 622  : 		UI_TYPE_AREA,
; 623  : 		UI_ATTR_PARENT (realism_suppress_ai_fire_area),
; 624  : 		UI_ATTR_VIRTUAL_POSITION (0, 0),
; 625  : 		UI_ATTR_VIRTUAL_SIZE (SETUP_BOX_WIDTH, SETUP_BOX_HEIGHT),
; 626  : 		UI_ATTR_COLOUR_START ( 255, 255, 255, 0 ),
; 627  : 		UI_ATTR_COLOUR_END ( 255, 255, 255, 255 ),
; 628  : 		UI_ATTR_TEXTURE_GRAPHIC (options_box_large),
; 629  : 		UI_ATTR_END
; 630  : 	);
; 631  : 
; 632  : 	title_text_obj = create_ui_object

  00c0e	6a 11		 push	 17			; 00000011H
  00c10	68 00 00 00 00	 push	 OFFSET ??_C@_0M@OAOKKMLA@Environment@
  00c15	e8 00 00 00 00	 call	 ?get_trans@@YGPBDPBD@Z	; get_trans
  00c1a	50		 push	 eax
  00c1b	6a 4a		 push	 74			; 0000004aH
  00c1d	6a 02		 push	 2
  00c1f	6a 4b		 push	 75			; 0000004bH
  00c21	83 ec 08	 sub	 esp, 8
  00c24	f2 0f 10 05 00
	00 00 00	 movsd	 xmm0, QWORD PTR __real@3fc24dd300000000
  00c2c	f2 0f 11 04 24	 movsd	 QWORD PTR [esp], xmm0
  00c31	83 ec 08	 sub	 esp, 8
  00c34	f2 0f 10 05 00
	00 00 00	 movsd	 xmm0, QWORD PTR __real@3fe31a9fc0000000
  00c3c	f2 0f 11 04 24	 movsd	 QWORD PTR [esp], xmm0
  00c41	6a 58		 push	 88			; 00000058H
  00c43	68 ff 00 00 00	 push	 255			; 000000ffH
  00c48	0f b6 05 00 00
	00 00		 movzx	 eax, BYTE PTR ?ui_option_title_text_colour@@3UREAL_COLOUR@@A
  00c4f	50		 push	 eax
  00c50	0f b6 0d 01 00
	00 00		 movzx	 ecx, BYTE PTR ?ui_option_title_text_colour@@3UREAL_COLOUR@@A+1
  00c57	51		 push	 ecx
  00c58	0f b6 15 02 00
	00 00		 movzx	 edx, BYTE PTR ?ui_option_title_text_colour@@3UREAL_COLOUR@@A+2
  00c5f	52		 push	 edx
  00c60	6a 14		 push	 20			; 00000014H
  00c62	6a 00		 push	 0
  00c64	0f b6 05 00 00
	00 00		 movzx	 eax, BYTE PTR ?ui_option_title_text_colour@@3UREAL_COLOUR@@A
  00c6b	50		 push	 eax
  00c6c	0f b6 0d 01 00
	00 00		 movzx	 ecx, BYTE PTR ?ui_option_title_text_colour@@3UREAL_COLOUR@@A+1
  00c73	51		 push	 ecx
  00c74	0f b6 15 02 00
	00 00		 movzx	 edx, BYTE PTR ?ui_option_title_text_colour@@3UREAL_COLOUR@@A+2
  00c7b	52		 push	 edx
  00c7c	6a 15		 push	 21			; 00000015H
  00c7e	6a 06		 push	 6
  00c80	6a 12		 push	 18			; 00000012H
  00c82	a1 00 00 00 00	 mov	 eax, DWORD PTR ?realism_suppress_ai_fire_area@@3PAUUI_OBJECT@@A ; realism_suppress_ai_fire_area
  00c87	50		 push	 eax
  00c88	6a 32		 push	 50			; 00000032H
  00c8a	6a 05		 push	 5
  00c8c	e8 00 00 00 00	 call	 ?create_ui_object@@YAPAUUI_OBJECT@@HZZ ; create_ui_object
  00c91	83 c4 64	 add	 esp, 100		; 00000064H
  00c94	89 45 f8	 mov	 DWORD PTR _title_text_obj$[ebp], eax

; 633  : 	(
; 634  : 		UI_TYPE_TEXT,
; 635  : 		UI_ATTR_PARENT (realism_suppress_ai_fire_area),
; 636  : 		UI_ATTR_FONT_TYPE (UI_FONT_THICK_ARIAL_18),
; 637  : 		UI_ATTR_FONT_COLOUR_START (ui_option_title_text_colour.r, ui_option_title_text_colour.g, ui_option_title_text_colour.b, 0),
; 638  : 		UI_ATTR_FONT_COLOUR_END (ui_option_title_text_colour.r, ui_option_title_text_colour.g, ui_option_title_text_colour.b, 255),
; 639  : 		UI_ATTR_VIRTUAL_POSITION (SETUP_BOX_TEXT_OFFSET_X, SETUP_BOX_TEXT_OFFSET_Y),
; 640  : 		UI_ATTR_TEXT_JUSTIFY (TEXT_JUSTIFY_RIGHT_CENTRE),
; 641  : 		UI_ATTR_TEXT (get_trans ("Environment")),
; 642  : 		UI_ATTR_END
; 643  : 	);
; 644  : 
; 645  : 
; 646  : 	// Suppress AI Fire Button
; 647  : 
; 648  : 	button_box_obj = create_ui_object

  00c97	6a 11		 push	 17			; 00000011H
  00c99	a1 00 00 00 00	 mov	 eax, DWORD PTR ?options_box_small@@3PAUTEXTURE_GRAPHIC@@A ; options_box_small
  00c9e	50		 push	 eax
  00c9f	6a 4c		 push	 76			; 0000004cH
  00ca1	68 ff 00 00 00	 push	 255			; 000000ffH
  00ca6	68 ff 00 00 00	 push	 255			; 000000ffH
  00cab	68 ff 00 00 00	 push	 255			; 000000ffH
  00cb0	68 ff 00 00 00	 push	 255			; 000000ffH
  00cb5	6a 0a		 push	 10			; 0000000aH
  00cb7	6a 00		 push	 0
  00cb9	68 ff 00 00 00	 push	 255			; 000000ffH
  00cbe	68 ff 00 00 00	 push	 255			; 000000ffH
  00cc3	68 ff 00 00 00	 push	 255			; 000000ffH
  00cc8	6a 0b		 push	 11			; 0000000bH
  00cca	83 ec 08	 sub	 esp, 8
  00ccd	f2 0f 10 05 00
	00 00 00	 movsd	 xmm0, QWORD PTR __real@3ff0000000000000
  00cd5	f2 0f 11 04 24	 movsd	 QWORD PTR [esp], xmm0
  00cda	83 ec 08	 sub	 esp, 8
  00cdd	f2 0f 10 05 00
	00 00 00	 movsd	 xmm0, QWORD PTR __real@3fd70a3d80000000
  00ce5	f2 0f 11 04 24	 movsd	 QWORD PTR [esp], xmm0
  00cea	6a 59		 push	 89			; 00000059H
  00cec	83 ec 08	 sub	 esp, 8
  00cef	0f 57 c0	 xorps	 xmm0, xmm0
  00cf2	f2 0f 11 04 24	 movsd	 QWORD PTR [esp], xmm0
  00cf7	83 ec 08	 sub	 esp, 8
  00cfa	f2 0f 10 05 00
	00 00 00	 movsd	 xmm0, QWORD PTR __real@3fe472b020000000
  00d02	f2 0f 11 04 24	 movsd	 QWORD PTR [esp], xmm0
  00d07	6a 58		 push	 88			; 00000058H
  00d09	8b 0d 00 00 00
	00		 mov	 ecx, DWORD PTR ?realism_suppress_ai_fire_area@@3PAUUI_OBJECT@@A ; realism_suppress_ai_fire_area
  00d0f	51		 push	 ecx
  00d10	6a 32		 push	 50			; 00000032H
  00d12	6a 01		 push	 1
  00d14	e8 00 00 00 00	 call	 ?create_ui_object@@YAPAUUI_OBJECT@@HZZ ; create_ui_object
  00d19	83 c4 68	 add	 esp, 104		; 00000068H
  00d1c	89 45 f4	 mov	 DWORD PTR _button_box_obj$[ebp], eax

; 649  : 	(
; 650  : 		UI_TYPE_AREA,
; 651  : 		UI_ATTR_PARENT (realism_suppress_ai_fire_area),
; 652  : 		UI_ATTR_VIRTUAL_POSITION (SETUP_BOX_WIDTH + SETUP_BOX_GAP_WIDTH, 0),
; 653  : 		UI_ATTR_VIRTUAL_SIZE (SETUP_BOX_MEDIUM_WIDTH, SETUP_BOX_HEIGHT),
; 654  : 		UI_ATTR_COLOUR_START ( 255, 255, 255, 0 ),
; 655  : 		UI_ATTR_COLOUR_END ( 255, 255, 255, 255 ),
; 656  : 		UI_ATTR_TEXTURE_GRAPHIC (options_box_small),
; 657  : 		UI_ATTR_END
; 658  : 	);
; 659  : 
; 660  : 	realism_suppress_ai_fire_button = create_ui_object

  00d1f	6a 11		 push	 17			; 00000011H
  00d21	68 00 00 00 00	 push	 OFFSET ?notify_realism_suppress_ai_fire_function@@YGXPAUUI_OBJECT@@PAX@Z ; notify_realism_suppress_ai_fire_function
  00d26	6a 16		 push	 22			; 00000016H
  00d28	6a 01		 push	 1
  00d2a	6a 2f		 push	 47			; 0000002fH
  00d2c	6a 01		 push	 1
  00d2e	6a 07		 push	 7
  00d30	6a 01		 push	 1
  00d32	6a 1b		 push	 27			; 0000001bH
  00d34	68 ff 00 00 00	 push	 255			; 000000ffH
  00d39	0f b6 05 00 00
	00 00		 movzx	 eax, BYTE PTR ?ui_option_text_hilite_colour@@3UREAL_COLOUR@@A
  00d40	50		 push	 eax
  00d41	0f b6 0d 01 00
	00 00		 movzx	 ecx, BYTE PTR ?ui_option_text_hilite_colour@@3UREAL_COLOUR@@A+1
  00d48	51		 push	 ecx
  00d49	0f b6 15 02 00
	00 00		 movzx	 edx, BYTE PTR ?ui_option_text_hilite_colour@@3UREAL_COLOUR@@A+2
  00d50	52		 push	 edx
  00d51	6a 22		 push	 34			; 00000022H
  00d53	6a 00		 push	 0
  00d55	0f b6 05 00 00
	00 00		 movzx	 eax, BYTE PTR ?ui_option_text_hilite_colour@@3UREAL_COLOUR@@A
  00d5c	50		 push	 eax
  00d5d	0f b6 0d 01 00
	00 00		 movzx	 ecx, BYTE PTR ?ui_option_text_hilite_colour@@3UREAL_COLOUR@@A+1
  00d64	51		 push	 ecx
  00d65	0f b6 15 02 00
	00 00		 movzx	 edx, BYTE PTR ?ui_option_text_hilite_colour@@3UREAL_COLOUR@@A+2
  00d6c	52		 push	 edx
  00d6d	6a 23		 push	 35			; 00000023H
  00d6f	68 ff 00 00 00	 push	 255			; 000000ffH
  00d74	0f b6 05 00 00
	00 00		 movzx	 eax, BYTE PTR ?ui_option_text_default_colour@@3UREAL_COLOUR@@A
  00d7b	50		 push	 eax
  00d7c	0f b6 0d 01 00
	00 00		 movzx	 ecx, BYTE PTR ?ui_option_text_default_colour@@3UREAL_COLOUR@@A+1
  00d83	51		 push	 ecx
  00d84	0f b6 15 02 00
	00 00		 movzx	 edx, BYTE PTR ?ui_option_text_default_colour@@3UREAL_COLOUR@@A+2
  00d8b	52		 push	 edx
  00d8c	6a 14		 push	 20			; 00000014H
  00d8e	6a 00		 push	 0
  00d90	0f b6 05 00 00
	00 00		 movzx	 eax, BYTE PTR ?ui_option_text_default_colour@@3UREAL_COLOUR@@A
  00d97	50		 push	 eax
  00d98	0f b6 0d 01 00
	00 00		 movzx	 ecx, BYTE PTR ?ui_option_text_default_colour@@3UREAL_COLOUR@@A+1
  00d9f	51		 push	 ecx
  00da0	0f b6 15 02 00
	00 00		 movzx	 edx, BYTE PTR ?ui_option_text_default_colour@@3UREAL_COLOUR@@A+2
  00da7	52		 push	 edx
  00da8	6a 15		 push	 21			; 00000015H
  00daa	68 00 00 00 00	 push	 OFFSET ??_C@_00CNPNBAHC@@
  00daf	6a 4a		 push	 74			; 0000004aH
  00db1	6a 01		 push	 1
  00db3	6a 4b		 push	 75			; 0000004bH
  00db5	83 ec 08	 sub	 esp, 8
  00db8	f2 0f 10 05 00
	00 00 00	 movsd	 xmm0, QWORD PTR __real@3fc24dd300000000
  00dc0	f2 0f 11 04 24	 movsd	 QWORD PTR [esp], xmm0
  00dc5	83 ec 08	 sub	 esp, 8
  00dc8	f2 0f 10 05 00
	00 00 00	 movsd	 xmm0, QWORD PTR __real@3fa99999a0000000
  00dd0	f2 0f 11 04 24	 movsd	 QWORD PTR [esp], xmm0
  00dd5	6a 58		 push	 88			; 00000058H
  00dd7	6a 08		 push	 8
  00dd9	6a 12		 push	 18			; 00000012H
  00ddb	8b 45 f4	 mov	 eax, DWORD PTR _button_box_obj$[ebp]
  00dde	50		 push	 eax
  00ddf	6a 32		 push	 50			; 00000032H
  00de1	6a 05		 push	 5
  00de3	e8 00 00 00 00	 call	 ?create_ui_object@@YAPAUUI_OBJECT@@HZZ ; create_ui_object
  00de8	81 c4 ac 00 00
	00		 add	 esp, 172		; 000000acH
  00dee	a3 00 00 00 00	 mov	 DWORD PTR ?realism_suppress_ai_fire_button@@3PAUUI_OBJECT@@A, eax ; realism_suppress_ai_fire_button

; 661  : 	(
; 662  : 		UI_TYPE_TEXT,
; 663  : 		UI_ATTR_PARENT (button_box_obj),
; 664  : 		UI_ATTR_FONT_TYPE (UI_FONT_THICK_ITALIC_ARIAL_18),
; 665  : 		UI_ATTR_VIRTUAL_POSITION (SETUP_BUTTON_TEXT_OFFSET_X, SETUP_BOX_TEXT_OFFSET_Y),
; 666  : 		UI_ATTR_TEXT_JUSTIFY (TEXT_JUSTIFY_LEFT_CENTRE),
; 667  : 		UI_ATTR_TEXT (""),
; 668  : 		UI_ATTR_FONT_COLOUR_START (ui_option_text_default_colour.r, ui_option_text_default_colour.g, ui_option_text_default_colour.b, 0),
; 669  : 		UI_ATTR_FONT_COLOUR_END (ui_option_text_default_colour.r, ui_option_text_default_colour.g, ui_option_text_default_colour.b, 255),
; 670  : 		UI_ATTR_HIGHLIGHTED_FONT_COLOUR_START (ui_option_text_hilite_colour.r, ui_option_text_hilite_colour.g, ui_option_text_hilite_colour.b, 0),
; 671  : 		UI_ATTR_HIGHLIGHTED_FONT_COLOUR_END (ui_option_text_hilite_colour.r, ui_option_text_hilite_colour.g, ui_option_text_hilite_colour.b, 255),
; 672  : 		UI_ATTR_HIGHLIGHTABLE (TRUE),
; 673  : 		UI_ATTR_CLEAR (TRUE),
; 674  : 		UI_ATTR_NOTIFY_ON (NOTIFY_TYPE_BUTTON_UP),
; 675  : 		UI_ATTR_FUNCTION (notify_realism_suppress_ai_fire_function),
; 676  : 		UI_ATTR_END
; 677  : 	);
; 678  : 
; 679  : 	process_sessparm_boolean_objects (title_box_obj, title_text_obj, button_box_obj, realism_suppress_ai_fire_button, suppress_ai_fire_text, 2);

  00df3	6a 02		 push	 2
  00df5	68 00 00 00 00	 push	 OFFSET ?suppress_ai_fire_text@@3PAPBDA
  00dfa	a1 00 00 00 00	 mov	 eax, DWORD PTR ?realism_suppress_ai_fire_button@@3PAUUI_OBJECT@@A ; realism_suppress_ai_fire_button
  00dff	50		 push	 eax
  00e00	8b 4d f4	 mov	 ecx, DWORD PTR _button_box_obj$[ebp]
  00e03	51		 push	 ecx
  00e04	8b 55 f8	 mov	 edx, DWORD PTR _title_text_obj$[ebp]
  00e07	52		 push	 edx
  00e08	8b 45 fc	 mov	 eax, DWORD PTR _title_box_obj$[ebp]
  00e0b	50		 push	 eax
  00e0c	e8 00 00 00 00	 call	 ?process_sessparm_boolean_objects@@YGXPAUUI_OBJECT@@000QAPBDH@Z ; process_sessparm_boolean_objects

; 680  : 
; 681  : 	/////////////////////////////////////////////////////////////////
; 682  : 	//	Realism Infinite Weapons
; 683  : 
; 684  : 	y1 += OPTION_AREA_OFFSET_Y;

  00e11	f3 0f 10 45 ec	 movss	 xmm0, DWORD PTR _y1$[ebp]
  00e16	f3 0f 58 05 00
	00 00 00	 addss	 xmm0, DWORD PTR __real@3d7df3b6
  00e1e	f3 0f 11 45 ec	 movss	 DWORD PTR _y1$[ebp], xmm0

; 685  : 
; 686  : 	realism_inf_weapons_area = create_ui_object

  00e23	6a 11		 push	 17			; 00000011H
  00e25	6a 01		 push	 1
  00e27	6a 07		 push	 7
  00e29	83 ec 08	 sub	 esp, 8
  00e2c	f2 0f 10 05 00
	00 00 00	 movsd	 xmm0, QWORD PTR __real@3fadb22d00000000
  00e34	f2 0f 11 04 24	 movsd	 QWORD PTR [esp], xmm0
  00e39	83 ec 08	 sub	 esp, 8
  00e3c	f2 0f 10 05 00
	00 00 00	 movsd	 xmm0, QWORD PTR __real@3fddd2f1a0000000
  00e44	f2 0f 11 04 24	 movsd	 QWORD PTR [esp], xmm0
  00e49	6a 59		 push	 89			; 00000059H
  00e4b	f3 0f 5a 45 ec	 cvtss2sd xmm0, DWORD PTR _y1$[ebp]
  00e50	83 ec 08	 sub	 esp, 8
  00e53	f2 0f 11 04 24	 movsd	 QWORD PTR [esp], xmm0
  00e58	f3 0f 5a 45 f0	 cvtss2sd xmm0, DWORD PTR _x1$[ebp]
  00e5d	83 ec 08	 sub	 esp, 8
  00e60	f2 0f 11 04 24	 movsd	 QWORD PTR [esp], xmm0
  00e65	6a 58		 push	 88			; 00000058H
  00e67	a1 00 00 00 00	 mov	 eax, DWORD PTR ?session_screen@@3PAUUI_OBJECT@@A ; session_screen
  00e6c	50		 push	 eax
  00e6d	6a 32		 push	 50			; 00000032H
  00e6f	6a 01		 push	 1
  00e71	e8 00 00 00 00	 call	 ?create_ui_object@@YAPAUUI_OBJECT@@HZZ ; create_ui_object
  00e76	83 c4 40	 add	 esp, 64			; 00000040H
  00e79	a3 00 00 00 00	 mov	 DWORD PTR ?realism_inf_weapons_area@@3PAUUI_OBJECT@@A, eax ; realism_inf_weapons_area

; 687  : 								(
; 688  : 									UI_TYPE_AREA,
; 689  : 									UI_ATTR_PARENT (session_screen),
; 690  : 									UI_ATTR_VIRTUAL_POSITION (x1, y1),
; 691  : 									UI_ATTR_VIRTUAL_SIZE (SETUP_AREA_WIDTH, SETUP_AREA_HEIGHT),
; 692  : 									UI_ATTR_CLEAR (TRUE),
; 693  : 									UI_ATTR_END
; 694  : 								);
; 695  : 
; 696  : 
; 697  : 	title_box_obj = create_ui_object

  00e7e	6a 11		 push	 17			; 00000011H
  00e80	a1 00 00 00 00	 mov	 eax, DWORD PTR ?options_box_large@@3PAUTEXTURE_GRAPHIC@@A ; options_box_large
  00e85	50		 push	 eax
  00e86	6a 4c		 push	 76			; 0000004cH
  00e88	68 ff 00 00 00	 push	 255			; 000000ffH
  00e8d	68 ff 00 00 00	 push	 255			; 000000ffH
  00e92	68 ff 00 00 00	 push	 255			; 000000ffH
  00e97	68 ff 00 00 00	 push	 255			; 000000ffH
  00e9c	6a 0a		 push	 10			; 0000000aH
  00e9e	6a 00		 push	 0
  00ea0	68 ff 00 00 00	 push	 255			; 000000ffH
  00ea5	68 ff 00 00 00	 push	 255			; 000000ffH
  00eaa	68 ff 00 00 00	 push	 255			; 000000ffH
  00eaf	6a 0b		 push	 11			; 0000000bH
  00eb1	83 ec 08	 sub	 esp, 8
  00eb4	f2 0f 10 05 00
	00 00 00	 movsd	 xmm0, QWORD PTR __real@3ff0000000000000
  00ebc	f2 0f 11 04 24	 movsd	 QWORD PTR [esp], xmm0
  00ec1	83 ec 08	 sub	 esp, 8
  00ec4	f2 0f 10 05 00
	00 00 00	 movsd	 xmm0, QWORD PTR __real@3fe451eb80000000
  00ecc	f2 0f 11 04 24	 movsd	 QWORD PTR [esp], xmm0
  00ed1	6a 59		 push	 89			; 00000059H
  00ed3	83 ec 08	 sub	 esp, 8
  00ed6	0f 57 c0	 xorps	 xmm0, xmm0
  00ed9	f2 0f 11 04 24	 movsd	 QWORD PTR [esp], xmm0
  00ede	83 ec 08	 sub	 esp, 8
  00ee1	0f 57 c0	 xorps	 xmm0, xmm0
  00ee4	f2 0f 11 04 24	 movsd	 QWORD PTR [esp], xmm0
  00ee9	6a 58		 push	 88			; 00000058H
  00eeb	8b 0d 00 00 00
	00		 mov	 ecx, DWORD PTR ?realism_inf_weapons_area@@3PAUUI_OBJECT@@A ; realism_inf_weapons_area
  00ef1	51		 push	 ecx
  00ef2	6a 32		 push	 50			; 00000032H
  00ef4	6a 01		 push	 1
  00ef6	e8 00 00 00 00	 call	 ?create_ui_object@@YAPAUUI_OBJECT@@HZZ ; create_ui_object
  00efb	83 c4 68	 add	 esp, 104		; 00000068H
  00efe	89 45 fc	 mov	 DWORD PTR _title_box_obj$[ebp], eax

; 698  : 	(
; 699  : 		UI_TYPE_AREA,
; 700  : 		UI_ATTR_PARENT (realism_inf_weapons_area),
; 701  : 		UI_ATTR_VIRTUAL_POSITION (0, 0),
; 702  : 		UI_ATTR_VIRTUAL_SIZE (SETUP_BOX_WIDTH, SETUP_BOX_HEIGHT),
; 703  : 		UI_ATTR_COLOUR_START ( 255, 255, 255, 0 ),
; 704  : 		UI_ATTR_COLOUR_END ( 255, 255, 255, 255 ),
; 705  : 		UI_ATTR_TEXTURE_GRAPHIC (options_box_large),
; 706  : 		UI_ATTR_END
; 707  : 	);
; 708  : 
; 709  : 	title_text_obj = realism_inf_weapons_title = create_ui_object

  00f01	6a 11		 push	 17			; 00000011H
  00f03	68 00 00 00 00	 push	 OFFSET ??_C@_0BB@HCEPBHEJ@Infinite?5Weapons@
  00f08	e8 00 00 00 00	 call	 ?get_trans@@YGPBDPBD@Z	; get_trans
  00f0d	50		 push	 eax
  00f0e	6a 4a		 push	 74			; 0000004aH
  00f10	6a 02		 push	 2
  00f12	6a 4b		 push	 75			; 0000004bH
  00f14	83 ec 08	 sub	 esp, 8
  00f17	f2 0f 10 05 00
	00 00 00	 movsd	 xmm0, QWORD PTR __real@3fc24dd300000000
  00f1f	f2 0f 11 04 24	 movsd	 QWORD PTR [esp], xmm0
  00f24	83 ec 08	 sub	 esp, 8
  00f27	f2 0f 10 05 00
	00 00 00	 movsd	 xmm0, QWORD PTR __real@3fe31a9fc0000000
  00f2f	f2 0f 11 04 24	 movsd	 QWORD PTR [esp], xmm0
  00f34	6a 58		 push	 88			; 00000058H
  00f36	68 ff 00 00 00	 push	 255			; 000000ffH
  00f3b	0f b6 05 00 00
	00 00		 movzx	 eax, BYTE PTR ?ui_option_title_text_colour@@3UREAL_COLOUR@@A
  00f42	50		 push	 eax
  00f43	0f b6 0d 01 00
	00 00		 movzx	 ecx, BYTE PTR ?ui_option_title_text_colour@@3UREAL_COLOUR@@A+1
  00f4a	51		 push	 ecx
  00f4b	0f b6 15 02 00
	00 00		 movzx	 edx, BYTE PTR ?ui_option_title_text_colour@@3UREAL_COLOUR@@A+2
  00f52	52		 push	 edx
  00f53	6a 14		 push	 20			; 00000014H
  00f55	6a 00		 push	 0
  00f57	0f b6 05 00 00
	00 00		 movzx	 eax, BYTE PTR ?ui_option_title_text_colour@@3UREAL_COLOUR@@A
  00f5e	50		 push	 eax
  00f5f	0f b6 0d 01 00
	00 00		 movzx	 ecx, BYTE PTR ?ui_option_title_text_colour@@3UREAL_COLOUR@@A+1
  00f66	51		 push	 ecx
  00f67	0f b6 15 02 00
	00 00		 movzx	 edx, BYTE PTR ?ui_option_title_text_colour@@3UREAL_COLOUR@@A+2
  00f6e	52		 push	 edx
  00f6f	6a 15		 push	 21			; 00000015H
  00f71	6a 06		 push	 6
  00f73	6a 12		 push	 18			; 00000012H
  00f75	a1 00 00 00 00	 mov	 eax, DWORD PTR ?realism_inf_weapons_area@@3PAUUI_OBJECT@@A ; realism_inf_weapons_area
  00f7a	50		 push	 eax
  00f7b	6a 32		 push	 50			; 00000032H
  00f7d	6a 05		 push	 5
  00f7f	e8 00 00 00 00	 call	 ?create_ui_object@@YAPAUUI_OBJECT@@HZZ ; create_ui_object
  00f84	83 c4 64	 add	 esp, 100		; 00000064H
  00f87	a3 00 00 00 00	 mov	 DWORD PTR ?realism_inf_weapons_title@@3PAUUI_OBJECT@@A, eax ; realism_inf_weapons_title
  00f8c	8b 0d 00 00 00
	00		 mov	 ecx, DWORD PTR ?realism_inf_weapons_title@@3PAUUI_OBJECT@@A ; realism_inf_weapons_title
  00f92	89 4d f8	 mov	 DWORD PTR _title_text_obj$[ebp], ecx

; 710  : 	(
; 711  : 		UI_TYPE_TEXT,
; 712  : 		UI_ATTR_PARENT (realism_inf_weapons_area),
; 713  : 		UI_ATTR_FONT_TYPE (UI_FONT_THICK_ARIAL_18),
; 714  : 		UI_ATTR_FONT_COLOUR_START (ui_option_title_text_colour.r, ui_option_title_text_colour.g, ui_option_title_text_colour.b, 0),
; 715  : 		UI_ATTR_FONT_COLOUR_END (ui_option_title_text_colour.r, ui_option_title_text_colour.g, ui_option_title_text_colour.b, 255),
; 716  : 		UI_ATTR_VIRTUAL_POSITION (SETUP_BOX_TEXT_OFFSET_X, SETUP_BOX_TEXT_OFFSET_Y),
; 717  : 		UI_ATTR_TEXT_JUSTIFY (TEXT_JUSTIFY_RIGHT_CENTRE),
; 718  : 		UI_ATTR_TEXT (get_trans ("Infinite Weapons")),
; 719  : 		UI_ATTR_END
; 720  : 	);
; 721  : 
; 722  : 
; 723  : 	// Infinite Weapons Button
; 724  : 
; 725  : 	button_box_obj = create_ui_object

  00f95	6a 11		 push	 17			; 00000011H
  00f97	a1 00 00 00 00	 mov	 eax, DWORD PTR ?options_box_small@@3PAUTEXTURE_GRAPHIC@@A ; options_box_small
  00f9c	50		 push	 eax
  00f9d	6a 4c		 push	 76			; 0000004cH
  00f9f	68 ff 00 00 00	 push	 255			; 000000ffH
  00fa4	68 ff 00 00 00	 push	 255			; 000000ffH
  00fa9	68 ff 00 00 00	 push	 255			; 000000ffH
  00fae	68 ff 00 00 00	 push	 255			; 000000ffH
  00fb3	6a 0a		 push	 10			; 0000000aH
  00fb5	6a 00		 push	 0
  00fb7	68 ff 00 00 00	 push	 255			; 000000ffH
  00fbc	68 ff 00 00 00	 push	 255			; 000000ffH
  00fc1	68 ff 00 00 00	 push	 255			; 000000ffH
  00fc6	6a 0b		 push	 11			; 0000000bH
  00fc8	83 ec 08	 sub	 esp, 8
  00fcb	f2 0f 10 05 00
	00 00 00	 movsd	 xmm0, QWORD PTR __real@3ff0000000000000
  00fd3	f2 0f 11 04 24	 movsd	 QWORD PTR [esp], xmm0
  00fd8	83 ec 08	 sub	 esp, 8
  00fdb	f2 0f 10 05 00
	00 00 00	 movsd	 xmm0, QWORD PTR __real@3fc22d0e60000000
  00fe3	f2 0f 11 04 24	 movsd	 QWORD PTR [esp], xmm0
  00fe8	6a 59		 push	 89			; 00000059H
  00fea	83 ec 08	 sub	 esp, 8
  00fed	0f 57 c0	 xorps	 xmm0, xmm0
  00ff0	f2 0f 11 04 24	 movsd	 QWORD PTR [esp], xmm0
  00ff5	83 ec 08	 sub	 esp, 8
  00ff8	f2 0f 10 05 00
	00 00 00	 movsd	 xmm0, QWORD PTR __real@3fe472b020000000
  01000	f2 0f 11 04 24	 movsd	 QWORD PTR [esp], xmm0
  01005	6a 58		 push	 88			; 00000058H
  01007	8b 0d 00 00 00
	00		 mov	 ecx, DWORD PTR ?realism_inf_weapons_area@@3PAUUI_OBJECT@@A ; realism_inf_weapons_area
  0100d	51		 push	 ecx
  0100e	6a 32		 push	 50			; 00000032H
  01010	6a 01		 push	 1
  01012	e8 00 00 00 00	 call	 ?create_ui_object@@YAPAUUI_OBJECT@@HZZ ; create_ui_object
  01017	83 c4 68	 add	 esp, 104		; 00000068H
  0101a	89 45 f4	 mov	 DWORD PTR _button_box_obj$[ebp], eax

; 726  : 	(
; 727  : 		UI_TYPE_AREA,
; 728  : 		UI_ATTR_PARENT (realism_inf_weapons_area),
; 729  : 		UI_ATTR_VIRTUAL_POSITION (SETUP_BOX_WIDTH + SETUP_BOX_GAP_WIDTH, 0),
; 730  : 		UI_ATTR_VIRTUAL_SIZE (SETUP_BOX_SMALL_WIDTH, SETUP_BOX_HEIGHT),
; 731  : 		UI_ATTR_COLOUR_START ( 255, 255, 255, 0 ),
; 732  : 		UI_ATTR_COLOUR_END ( 255, 255, 255, 255 ),
; 733  : 		UI_ATTR_TEXTURE_GRAPHIC (options_box_small),
; 734  : 		UI_ATTR_END
; 735  : 	);
; 736  : 
; 737  : 	realism_inf_weapons_button = create_ui_object

  0101d	6a 11		 push	 17			; 00000011H
  0101f	68 00 00 00 00	 push	 OFFSET ?notify_realism_inf_weapons_function@@YGXPAUUI_OBJECT@@PAX@Z ; notify_realism_inf_weapons_function
  01024	6a 16		 push	 22			; 00000016H
  01026	6a 01		 push	 1
  01028	6a 2f		 push	 47			; 0000002fH
  0102a	6a 01		 push	 1
  0102c	6a 07		 push	 7
  0102e	6a 01		 push	 1
  01030	6a 1b		 push	 27			; 0000001bH
  01032	68 ff 00 00 00	 push	 255			; 000000ffH
  01037	0f b6 05 00 00
	00 00		 movzx	 eax, BYTE PTR ?ui_option_text_hilite_colour@@3UREAL_COLOUR@@A
  0103e	50		 push	 eax
  0103f	0f b6 0d 01 00
	00 00		 movzx	 ecx, BYTE PTR ?ui_option_text_hilite_colour@@3UREAL_COLOUR@@A+1
  01046	51		 push	 ecx
  01047	0f b6 15 02 00
	00 00		 movzx	 edx, BYTE PTR ?ui_option_text_hilite_colour@@3UREAL_COLOUR@@A+2
  0104e	52		 push	 edx
  0104f	6a 22		 push	 34			; 00000022H
  01051	6a 00		 push	 0
  01053	0f b6 05 00 00
	00 00		 movzx	 eax, BYTE PTR ?ui_option_text_hilite_colour@@3UREAL_COLOUR@@A
  0105a	50		 push	 eax
  0105b	0f b6 0d 01 00
	00 00		 movzx	 ecx, BYTE PTR ?ui_option_text_hilite_colour@@3UREAL_COLOUR@@A+1
  01062	51		 push	 ecx
  01063	0f b6 15 02 00
	00 00		 movzx	 edx, BYTE PTR ?ui_option_text_hilite_colour@@3UREAL_COLOUR@@A+2
  0106a	52		 push	 edx
  0106b	6a 23		 push	 35			; 00000023H
  0106d	68 ff 00 00 00	 push	 255			; 000000ffH
  01072	0f b6 05 00 00
	00 00		 movzx	 eax, BYTE PTR ?ui_option_text_default_colour@@3UREAL_COLOUR@@A
  01079	50		 push	 eax
  0107a	0f b6 0d 01 00
	00 00		 movzx	 ecx, BYTE PTR ?ui_option_text_default_colour@@3UREAL_COLOUR@@A+1
  01081	51		 push	 ecx
  01082	0f b6 15 02 00
	00 00		 movzx	 edx, BYTE PTR ?ui_option_text_default_colour@@3UREAL_COLOUR@@A+2
  01089	52		 push	 edx
  0108a	6a 14		 push	 20			; 00000014H
  0108c	6a 00		 push	 0
  0108e	0f b6 05 00 00
	00 00		 movzx	 eax, BYTE PTR ?ui_option_text_default_colour@@3UREAL_COLOUR@@A
  01095	50		 push	 eax
  01096	0f b6 0d 01 00
	00 00		 movzx	 ecx, BYTE PTR ?ui_option_text_default_colour@@3UREAL_COLOUR@@A+1
  0109d	51		 push	 ecx
  0109e	0f b6 15 02 00
	00 00		 movzx	 edx, BYTE PTR ?ui_option_text_default_colour@@3UREAL_COLOUR@@A+2
  010a5	52		 push	 edx
  010a6	6a 15		 push	 21			; 00000015H
  010a8	68 00 00 00 00	 push	 OFFSET ??_C@_00CNPNBAHC@@
  010ad	6a 4a		 push	 74			; 0000004aH
  010af	6a 01		 push	 1
  010b1	6a 4b		 push	 75			; 0000004bH
  010b3	83 ec 08	 sub	 esp, 8
  010b6	f2 0f 10 05 00
	00 00 00	 movsd	 xmm0, QWORD PTR __real@3fc24dd300000000
  010be	f2 0f 11 04 24	 movsd	 QWORD PTR [esp], xmm0
  010c3	83 ec 08	 sub	 esp, 8
  010c6	f2 0f 10 05 00
	00 00 00	 movsd	 xmm0, QWORD PTR __real@3fa99999a0000000
  010ce	f2 0f 11 04 24	 movsd	 QWORD PTR [esp], xmm0
  010d3	6a 58		 push	 88			; 00000058H
  010d5	6a 08		 push	 8
  010d7	6a 12		 push	 18			; 00000012H
  010d9	8b 45 f4	 mov	 eax, DWORD PTR _button_box_obj$[ebp]
  010dc	50		 push	 eax
  010dd	6a 32		 push	 50			; 00000032H
  010df	6a 05		 push	 5
  010e1	e8 00 00 00 00	 call	 ?create_ui_object@@YAPAUUI_OBJECT@@HZZ ; create_ui_object
  010e6	81 c4 ac 00 00
	00		 add	 esp, 172		; 000000acH
  010ec	a3 00 00 00 00	 mov	 DWORD PTR ?realism_inf_weapons_button@@3PAUUI_OBJECT@@A, eax ; realism_inf_weapons_button

; 738  : 	(
; 739  : 		UI_TYPE_TEXT,
; 740  : 		UI_ATTR_PARENT (button_box_obj),
; 741  : 		UI_ATTR_FONT_TYPE (UI_FONT_THICK_ITALIC_ARIAL_18),
; 742  : 		UI_ATTR_VIRTUAL_POSITION (SETUP_BUTTON_TEXT_OFFSET_X, SETUP_BOX_TEXT_OFFSET_Y),
; 743  : 		UI_ATTR_TEXT_JUSTIFY (TEXT_JUSTIFY_LEFT_CENTRE),
; 744  : 		UI_ATTR_TEXT (""),
; 745  : 		UI_ATTR_FONT_COLOUR_START (ui_option_text_default_colour.r, ui_option_text_default_colour.g, ui_option_text_default_colour.b, 0),
; 746  : 		UI_ATTR_FONT_COLOUR_END (ui_option_text_default_colour.r, ui_option_text_default_colour.g, ui_option_text_default_colour.b, 255),
; 747  : 		UI_ATTR_HIGHLIGHTED_FONT_COLOUR_START (ui_option_text_hilite_colour.r, ui_option_text_hilite_colour.g, ui_option_text_hilite_colour.b, 0),
; 748  : 		UI_ATTR_HIGHLIGHTED_FONT_COLOUR_END (ui_option_text_hilite_colour.r, ui_option_text_hilite_colour.g, ui_option_text_hilite_colour.b, 255),
; 749  : 		UI_ATTR_HIGHLIGHTABLE (TRUE),
; 750  : 		UI_ATTR_CLEAR (TRUE),
; 751  : 		UI_ATTR_NOTIFY_ON (NOTIFY_TYPE_BUTTON_UP),
; 752  : 		UI_ATTR_FUNCTION (notify_realism_inf_weapons_function),
; 753  : 		UI_ATTR_END
; 754  : 	);
; 755  : 
; 756  : 	process_sessparm_boolean_objects (title_box_obj, title_text_obj, button_box_obj, realism_inf_weapons_button, boolean_text, 2);

  010f1	6a 02		 push	 2
  010f3	68 00 00 00 00	 push	 OFFSET ?boolean_text@@3PAPBDA
  010f8	a1 00 00 00 00	 mov	 eax, DWORD PTR ?realism_inf_weapons_button@@3PAUUI_OBJECT@@A ; realism_inf_weapons_button
  010fd	50		 push	 eax
  010fe	8b 4d f4	 mov	 ecx, DWORD PTR _button_box_obj$[ebp]
  01101	51		 push	 ecx
  01102	8b 55 f8	 mov	 edx, DWORD PTR _title_text_obj$[ebp]
  01105	52		 push	 edx
  01106	8b 45 fc	 mov	 eax, DWORD PTR _title_box_obj$[ebp]
  01109	50		 push	 eax
  0110a	e8 00 00 00 00	 call	 ?process_sessparm_boolean_objects@@YGXPAUUI_OBJECT@@000QAPBDH@Z ; process_sessparm_boolean_objects

; 757  : 
; 758  : 	/////////////////////////////////////////////////////////////////
; 759  : 	//	Realism Infinite Fuel
; 760  : 
; 761  : 	y1 += OPTION_AREA_OFFSET_Y;

  0110f	f3 0f 10 45 ec	 movss	 xmm0, DWORD PTR _y1$[ebp]
  01114	f3 0f 58 05 00
	00 00 00	 addss	 xmm0, DWORD PTR __real@3d7df3b6
  0111c	f3 0f 11 45 ec	 movss	 DWORD PTR _y1$[ebp], xmm0

; 762  : 
; 763  : 	realism_inf_fuel_area = create_ui_object

  01121	6a 11		 push	 17			; 00000011H
  01123	6a 01		 push	 1
  01125	6a 07		 push	 7
  01127	83 ec 08	 sub	 esp, 8
  0112a	f2 0f 10 05 00
	00 00 00	 movsd	 xmm0, QWORD PTR __real@3fadb22d00000000
  01132	f2 0f 11 04 24	 movsd	 QWORD PTR [esp], xmm0
  01137	83 ec 08	 sub	 esp, 8
  0113a	f2 0f 10 05 00
	00 00 00	 movsd	 xmm0, QWORD PTR __real@3fddd2f1a0000000
  01142	f2 0f 11 04 24	 movsd	 QWORD PTR [esp], xmm0
  01147	6a 59		 push	 89			; 00000059H
  01149	f3 0f 5a 45 ec	 cvtss2sd xmm0, DWORD PTR _y1$[ebp]
  0114e	83 ec 08	 sub	 esp, 8
  01151	f2 0f 11 04 24	 movsd	 QWORD PTR [esp], xmm0
  01156	f3 0f 5a 45 f0	 cvtss2sd xmm0, DWORD PTR _x1$[ebp]
  0115b	83 ec 08	 sub	 esp, 8
  0115e	f2 0f 11 04 24	 movsd	 QWORD PTR [esp], xmm0
  01163	6a 58		 push	 88			; 00000058H
  01165	a1 00 00 00 00	 mov	 eax, DWORD PTR ?session_screen@@3PAUUI_OBJECT@@A ; session_screen
  0116a	50		 push	 eax
  0116b	6a 32		 push	 50			; 00000032H
  0116d	6a 01		 push	 1
  0116f	e8 00 00 00 00	 call	 ?create_ui_object@@YAPAUUI_OBJECT@@HZZ ; create_ui_object
  01174	83 c4 40	 add	 esp, 64			; 00000040H
  01177	a3 00 00 00 00	 mov	 DWORD PTR ?realism_inf_fuel_area@@3PAUUI_OBJECT@@A, eax ; realism_inf_fuel_area

; 764  : 								(
; 765  : 									UI_TYPE_AREA,
; 766  : 									UI_ATTR_PARENT (session_screen),
; 767  : 									UI_ATTR_VIRTUAL_POSITION (x1, y1),
; 768  : 									UI_ATTR_VIRTUAL_SIZE (SETUP_AREA_WIDTH, SETUP_AREA_HEIGHT),
; 769  : 									UI_ATTR_CLEAR (TRUE),
; 770  : 									UI_ATTR_END
; 771  : 								);
; 772  : 
; 773  : 	title_box_obj = create_ui_object

  0117c	6a 11		 push	 17			; 00000011H
  0117e	a1 00 00 00 00	 mov	 eax, DWORD PTR ?options_box_large@@3PAUTEXTURE_GRAPHIC@@A ; options_box_large
  01183	50		 push	 eax
  01184	6a 4c		 push	 76			; 0000004cH
  01186	68 ff 00 00 00	 push	 255			; 000000ffH
  0118b	68 ff 00 00 00	 push	 255			; 000000ffH
  01190	68 ff 00 00 00	 push	 255			; 000000ffH
  01195	68 ff 00 00 00	 push	 255			; 000000ffH
  0119a	6a 0a		 push	 10			; 0000000aH
  0119c	6a 00		 push	 0
  0119e	68 ff 00 00 00	 push	 255			; 000000ffH
  011a3	68 ff 00 00 00	 push	 255			; 000000ffH
  011a8	68 ff 00 00 00	 push	 255			; 000000ffH
  011ad	6a 0b		 push	 11			; 0000000bH
  011af	83 ec 08	 sub	 esp, 8
  011b2	f2 0f 10 05 00
	00 00 00	 movsd	 xmm0, QWORD PTR __real@3ff0000000000000
  011ba	f2 0f 11 04 24	 movsd	 QWORD PTR [esp], xmm0
  011bf	83 ec 08	 sub	 esp, 8
  011c2	f2 0f 10 05 00
	00 00 00	 movsd	 xmm0, QWORD PTR __real@3fe451eb80000000
  011ca	f2 0f 11 04 24	 movsd	 QWORD PTR [esp], xmm0
  011cf	6a 59		 push	 89			; 00000059H
  011d1	83 ec 08	 sub	 esp, 8
  011d4	0f 57 c0	 xorps	 xmm0, xmm0
  011d7	f2 0f 11 04 24	 movsd	 QWORD PTR [esp], xmm0
  011dc	83 ec 08	 sub	 esp, 8
  011df	0f 57 c0	 xorps	 xmm0, xmm0
  011e2	f2 0f 11 04 24	 movsd	 QWORD PTR [esp], xmm0
  011e7	6a 58		 push	 88			; 00000058H
  011e9	8b 0d 00 00 00
	00		 mov	 ecx, DWORD PTR ?realism_inf_fuel_area@@3PAUUI_OBJECT@@A ; realism_inf_fuel_area
  011ef	51		 push	 ecx
  011f0	6a 32		 push	 50			; 00000032H
  011f2	6a 01		 push	 1
  011f4	e8 00 00 00 00	 call	 ?create_ui_object@@YAPAUUI_OBJECT@@HZZ ; create_ui_object
  011f9	83 c4 68	 add	 esp, 104		; 00000068H
  011fc	89 45 fc	 mov	 DWORD PTR _title_box_obj$[ebp], eax

; 774  : 	(
; 775  : 		UI_TYPE_AREA,
; 776  : 		UI_ATTR_PARENT (realism_inf_fuel_area),
; 777  : 		UI_ATTR_VIRTUAL_POSITION (0, 0),
; 778  : 		UI_ATTR_VIRTUAL_SIZE (SETUP_BOX_WIDTH, SETUP_BOX_HEIGHT),
; 779  : 		UI_ATTR_COLOUR_START ( 255, 255, 255, 0 ),
; 780  : 		UI_ATTR_COLOUR_END ( 255, 255, 255, 255 ),
; 781  : 		UI_ATTR_TEXTURE_GRAPHIC (options_box_large),
; 782  : 		UI_ATTR_END
; 783  : 	);
; 784  : 
; 785  : 	title_text_obj = realism_inf_fuel_title = create_ui_object

  011ff	6a 11		 push	 17			; 00000011H
  01201	68 00 00 00 00	 push	 OFFSET ??_C@_0O@BMJIBDDH@Infinite?5Fuel@
  01206	e8 00 00 00 00	 call	 ?get_trans@@YGPBDPBD@Z	; get_trans
  0120b	50		 push	 eax
  0120c	6a 4a		 push	 74			; 0000004aH
  0120e	6a 02		 push	 2
  01210	6a 4b		 push	 75			; 0000004bH
  01212	83 ec 08	 sub	 esp, 8
  01215	f2 0f 10 05 00
	00 00 00	 movsd	 xmm0, QWORD PTR __real@3fc24dd300000000
  0121d	f2 0f 11 04 24	 movsd	 QWORD PTR [esp], xmm0
  01222	83 ec 08	 sub	 esp, 8
  01225	f2 0f 10 05 00
	00 00 00	 movsd	 xmm0, QWORD PTR __real@3fe31a9fc0000000
  0122d	f2 0f 11 04 24	 movsd	 QWORD PTR [esp], xmm0
  01232	6a 58		 push	 88			; 00000058H
  01234	68 ff 00 00 00	 push	 255			; 000000ffH
  01239	0f b6 05 00 00
	00 00		 movzx	 eax, BYTE PTR ?ui_option_title_text_colour@@3UREAL_COLOUR@@A
  01240	50		 push	 eax
  01241	0f b6 0d 01 00
	00 00		 movzx	 ecx, BYTE PTR ?ui_option_title_text_colour@@3UREAL_COLOUR@@A+1
  01248	51		 push	 ecx
  01249	0f b6 15 02 00
	00 00		 movzx	 edx, BYTE PTR ?ui_option_title_text_colour@@3UREAL_COLOUR@@A+2
  01250	52		 push	 edx
  01251	6a 14		 push	 20			; 00000014H
  01253	6a 00		 push	 0
  01255	0f b6 05 00 00
	00 00		 movzx	 eax, BYTE PTR ?ui_option_title_text_colour@@3UREAL_COLOUR@@A
  0125c	50		 push	 eax
  0125d	0f b6 0d 01 00
	00 00		 movzx	 ecx, BYTE PTR ?ui_option_title_text_colour@@3UREAL_COLOUR@@A+1
  01264	51		 push	 ecx
  01265	0f b6 15 02 00
	00 00		 movzx	 edx, BYTE PTR ?ui_option_title_text_colour@@3UREAL_COLOUR@@A+2
  0126c	52		 push	 edx
  0126d	6a 15		 push	 21			; 00000015H
  0126f	6a 06		 push	 6
  01271	6a 12		 push	 18			; 00000012H
  01273	a1 00 00 00 00	 mov	 eax, DWORD PTR ?realism_inf_fuel_area@@3PAUUI_OBJECT@@A ; realism_inf_fuel_area
  01278	50		 push	 eax
  01279	6a 32		 push	 50			; 00000032H
  0127b	6a 05		 push	 5
  0127d	e8 00 00 00 00	 call	 ?create_ui_object@@YAPAUUI_OBJECT@@HZZ ; create_ui_object
  01282	83 c4 64	 add	 esp, 100		; 00000064H
  01285	a3 00 00 00 00	 mov	 DWORD PTR ?realism_inf_fuel_title@@3PAUUI_OBJECT@@A, eax ; realism_inf_fuel_title
  0128a	8b 0d 00 00 00
	00		 mov	 ecx, DWORD PTR ?realism_inf_fuel_title@@3PAUUI_OBJECT@@A ; realism_inf_fuel_title
  01290	89 4d f8	 mov	 DWORD PTR _title_text_obj$[ebp], ecx

; 786  : 	(
; 787  : 		UI_TYPE_TEXT,
; 788  : 		UI_ATTR_PARENT (realism_inf_fuel_area),
; 789  : 		UI_ATTR_FONT_TYPE (UI_FONT_THICK_ARIAL_18),
; 790  : 		UI_ATTR_FONT_COLOUR_START (ui_option_title_text_colour.r, ui_option_title_text_colour.g, ui_option_title_text_colour.b, 0),
; 791  : 		UI_ATTR_FONT_COLOUR_END (ui_option_title_text_colour.r, ui_option_title_text_colour.g, ui_option_title_text_colour.b, 255),
; 792  : 		UI_ATTR_VIRTUAL_POSITION (SETUP_BOX_TEXT_OFFSET_X, SETUP_BOX_TEXT_OFFSET_Y),
; 793  : 		UI_ATTR_TEXT_JUSTIFY (TEXT_JUSTIFY_RIGHT_CENTRE),
; 794  : 		UI_ATTR_TEXT (get_trans ("Infinite Fuel")),
; 795  : 		UI_ATTR_END
; 796  : 	);
; 797  : 
; 798  : 
; 799  : 	// Infinite Fuel Button
; 800  : 
; 801  : 	button_box_obj = create_ui_object

  01293	6a 11		 push	 17			; 00000011H
  01295	a1 00 00 00 00	 mov	 eax, DWORD PTR ?options_box_small@@3PAUTEXTURE_GRAPHIC@@A ; options_box_small
  0129a	50		 push	 eax
  0129b	6a 4c		 push	 76			; 0000004cH
  0129d	68 ff 00 00 00	 push	 255			; 000000ffH
  012a2	68 ff 00 00 00	 push	 255			; 000000ffH
  012a7	68 ff 00 00 00	 push	 255			; 000000ffH
  012ac	68 ff 00 00 00	 push	 255			; 000000ffH
  012b1	6a 0a		 push	 10			; 0000000aH
  012b3	6a 00		 push	 0
  012b5	68 ff 00 00 00	 push	 255			; 000000ffH
  012ba	68 ff 00 00 00	 push	 255			; 000000ffH
  012bf	68 ff 00 00 00	 push	 255			; 000000ffH
  012c4	6a 0b		 push	 11			; 0000000bH
  012c6	83 ec 08	 sub	 esp, 8
  012c9	f2 0f 10 05 00
	00 00 00	 movsd	 xmm0, QWORD PTR __real@3ff0000000000000
  012d1	f2 0f 11 04 24	 movsd	 QWORD PTR [esp], xmm0
  012d6	83 ec 08	 sub	 esp, 8
  012d9	f2 0f 10 05 00
	00 00 00	 movsd	 xmm0, QWORD PTR __real@3fc22d0e60000000
  012e1	f2 0f 11 04 24	 movsd	 QWORD PTR [esp], xmm0
  012e6	6a 59		 push	 89			; 00000059H
  012e8	83 ec 08	 sub	 esp, 8
  012eb	0f 57 c0	 xorps	 xmm0, xmm0
  012ee	f2 0f 11 04 24	 movsd	 QWORD PTR [esp], xmm0
  012f3	83 ec 08	 sub	 esp, 8
  012f6	f2 0f 10 05 00
	00 00 00	 movsd	 xmm0, QWORD PTR __real@3fe472b020000000
  012fe	f2 0f 11 04 24	 movsd	 QWORD PTR [esp], xmm0
  01303	6a 58		 push	 88			; 00000058H
  01305	8b 0d 00 00 00
	00		 mov	 ecx, DWORD PTR ?realism_inf_fuel_area@@3PAUUI_OBJECT@@A ; realism_inf_fuel_area
  0130b	51		 push	 ecx
  0130c	6a 32		 push	 50			; 00000032H
  0130e	6a 01		 push	 1
  01310	e8 00 00 00 00	 call	 ?create_ui_object@@YAPAUUI_OBJECT@@HZZ ; create_ui_object
  01315	83 c4 68	 add	 esp, 104		; 00000068H
  01318	89 45 f4	 mov	 DWORD PTR _button_box_obj$[ebp], eax

; 802  : 	(
; 803  : 		UI_TYPE_AREA,
; 804  : 		UI_ATTR_PARENT (realism_inf_fuel_area),
; 805  : 		UI_ATTR_VIRTUAL_POSITION (SETUP_BOX_WIDTH + SETUP_BOX_GAP_WIDTH, 0),
; 806  : 		UI_ATTR_VIRTUAL_SIZE (SETUP_BOX_SMALL_WIDTH, SETUP_BOX_HEIGHT),
; 807  : 		UI_ATTR_COLOUR_START ( 255, 255, 255, 0 ),
; 808  : 		UI_ATTR_COLOUR_END ( 255, 255, 255, 255 ),
; 809  : 		UI_ATTR_TEXTURE_GRAPHIC (options_box_small),
; 810  : 		UI_ATTR_END
; 811  : 	);
; 812  : 
; 813  : 	realism_inf_fuel_button = create_ui_object

  0131b	6a 11		 push	 17			; 00000011H
  0131d	68 00 00 00 00	 push	 OFFSET ?notify_realism_inf_fuel_function@@YGXPAUUI_OBJECT@@PAX@Z ; notify_realism_inf_fuel_function
  01322	6a 16		 push	 22			; 00000016H
  01324	6a 01		 push	 1
  01326	6a 2f		 push	 47			; 0000002fH
  01328	6a 01		 push	 1
  0132a	6a 07		 push	 7
  0132c	6a 01		 push	 1
  0132e	6a 1b		 push	 27			; 0000001bH
  01330	68 ff 00 00 00	 push	 255			; 000000ffH
  01335	0f b6 05 00 00
	00 00		 movzx	 eax, BYTE PTR ?ui_option_text_hilite_colour@@3UREAL_COLOUR@@A
  0133c	50		 push	 eax
  0133d	0f b6 0d 01 00
	00 00		 movzx	 ecx, BYTE PTR ?ui_option_text_hilite_colour@@3UREAL_COLOUR@@A+1
  01344	51		 push	 ecx
  01345	0f b6 15 02 00
	00 00		 movzx	 edx, BYTE PTR ?ui_option_text_hilite_colour@@3UREAL_COLOUR@@A+2
  0134c	52		 push	 edx
  0134d	6a 22		 push	 34			; 00000022H
  0134f	6a 00		 push	 0
  01351	0f b6 05 00 00
	00 00		 movzx	 eax, BYTE PTR ?ui_option_text_hilite_colour@@3UREAL_COLOUR@@A
  01358	50		 push	 eax
  01359	0f b6 0d 01 00
	00 00		 movzx	 ecx, BYTE PTR ?ui_option_text_hilite_colour@@3UREAL_COLOUR@@A+1
  01360	51		 push	 ecx
  01361	0f b6 15 02 00
	00 00		 movzx	 edx, BYTE PTR ?ui_option_text_hilite_colour@@3UREAL_COLOUR@@A+2
  01368	52		 push	 edx
  01369	6a 23		 push	 35			; 00000023H
  0136b	68 ff 00 00 00	 push	 255			; 000000ffH
  01370	0f b6 05 00 00
	00 00		 movzx	 eax, BYTE PTR ?ui_option_text_default_colour@@3UREAL_COLOUR@@A
  01377	50		 push	 eax
  01378	0f b6 0d 01 00
	00 00		 movzx	 ecx, BYTE PTR ?ui_option_text_default_colour@@3UREAL_COLOUR@@A+1
  0137f	51		 push	 ecx
  01380	0f b6 15 02 00
	00 00		 movzx	 edx, BYTE PTR ?ui_option_text_default_colour@@3UREAL_COLOUR@@A+2
  01387	52		 push	 edx
  01388	6a 14		 push	 20			; 00000014H
  0138a	6a 00		 push	 0
  0138c	0f b6 05 00 00
	00 00		 movzx	 eax, BYTE PTR ?ui_option_text_default_colour@@3UREAL_COLOUR@@A
  01393	50		 push	 eax
  01394	0f b6 0d 01 00
	00 00		 movzx	 ecx, BYTE PTR ?ui_option_text_default_colour@@3UREAL_COLOUR@@A+1
  0139b	51		 push	 ecx
  0139c	0f b6 15 02 00
	00 00		 movzx	 edx, BYTE PTR ?ui_option_text_default_colour@@3UREAL_COLOUR@@A+2
  013a3	52		 push	 edx
  013a4	6a 15		 push	 21			; 00000015H
  013a6	68 00 00 00 00	 push	 OFFSET ??_C@_00CNPNBAHC@@
  013ab	6a 4a		 push	 74			; 0000004aH
  013ad	6a 01		 push	 1
  013af	6a 4b		 push	 75			; 0000004bH
  013b1	83 ec 08	 sub	 esp, 8
  013b4	f2 0f 10 05 00
	00 00 00	 movsd	 xmm0, QWORD PTR __real@3fc24dd300000000
  013bc	f2 0f 11 04 24	 movsd	 QWORD PTR [esp], xmm0
  013c1	83 ec 08	 sub	 esp, 8
  013c4	f2 0f 10 05 00
	00 00 00	 movsd	 xmm0, QWORD PTR __real@3fa99999a0000000
  013cc	f2 0f 11 04 24	 movsd	 QWORD PTR [esp], xmm0
  013d1	6a 58		 push	 88			; 00000058H
  013d3	6a 08		 push	 8
  013d5	6a 12		 push	 18			; 00000012H
  013d7	8b 45 f4	 mov	 eax, DWORD PTR _button_box_obj$[ebp]
  013da	50		 push	 eax
  013db	6a 32		 push	 50			; 00000032H
  013dd	6a 05		 push	 5
  013df	e8 00 00 00 00	 call	 ?create_ui_object@@YAPAUUI_OBJECT@@HZZ ; create_ui_object
  013e4	81 c4 ac 00 00
	00		 add	 esp, 172		; 000000acH
  013ea	a3 00 00 00 00	 mov	 DWORD PTR ?realism_inf_fuel_button@@3PAUUI_OBJECT@@A, eax ; realism_inf_fuel_button

; 814  : 	(
; 815  : 		UI_TYPE_TEXT,
; 816  : 		UI_ATTR_PARENT (button_box_obj),
; 817  : 		UI_ATTR_FONT_TYPE (UI_FONT_THICK_ITALIC_ARIAL_18),
; 818  : 		UI_ATTR_VIRTUAL_POSITION (SETUP_BUTTON_TEXT_OFFSET_X, SETUP_BOX_TEXT_OFFSET_Y),
; 819  : 		UI_ATTR_TEXT_JUSTIFY (TEXT_JUSTIFY_LEFT_CENTRE),
; 820  : 		UI_ATTR_TEXT (""),
; 821  : 		UI_ATTR_FONT_COLOUR_START (ui_option_text_default_colour.r, ui_option_text_default_colour.g, ui_option_text_default_colour.b, 0),
; 822  : 		UI_ATTR_FONT_COLOUR_END (ui_option_text_default_colour.r, ui_option_text_default_colour.g, ui_option_text_default_colour.b, 255),
; 823  : 		UI_ATTR_HIGHLIGHTED_FONT_COLOUR_START (ui_option_text_hilite_colour.r, ui_option_text_hilite_colour.g, ui_option_text_hilite_colour.b, 0),
; 824  : 		UI_ATTR_HIGHLIGHTED_FONT_COLOUR_END (ui_option_text_hilite_colour.r, ui_option_text_hilite_colour.g, ui_option_text_hilite_colour.b, 255),
; 825  : 		UI_ATTR_HIGHLIGHTABLE (TRUE),
; 826  : 		UI_ATTR_CLEAR (TRUE),
; 827  : 		UI_ATTR_NOTIFY_ON (NOTIFY_TYPE_BUTTON_UP),
; 828  : 		UI_ATTR_FUNCTION (notify_realism_inf_fuel_function),
; 829  : 		UI_ATTR_END
; 830  : 	);
; 831  : 
; 832  : 	process_sessparm_boolean_objects (title_box_obj, title_text_obj, button_box_obj, realism_inf_fuel_button, boolean_text, 2);

  013ef	6a 02		 push	 2
  013f1	68 00 00 00 00	 push	 OFFSET ?boolean_text@@3PAPBDA
  013f6	a1 00 00 00 00	 mov	 eax, DWORD PTR ?realism_inf_fuel_button@@3PAUUI_OBJECT@@A ; realism_inf_fuel_button
  013fb	50		 push	 eax
  013fc	8b 4d f4	 mov	 ecx, DWORD PTR _button_box_obj$[ebp]
  013ff	51		 push	 ecx
  01400	8b 55 f8	 mov	 edx, DWORD PTR _title_text_obj$[ebp]
  01403	52		 push	 edx
  01404	8b 45 fc	 mov	 eax, DWORD PTR _title_box_obj$[ebp]
  01407	50		 push	 eax
  01408	e8 00 00 00 00	 call	 ?process_sessparm_boolean_objects@@YGXPAUUI_OBJECT@@000QAPBDH@Z ; process_sessparm_boolean_objects

; 833  : 
; 834  : 	/////////////////////////////////////////////////////////////////
; 835  : 	//	Realism Collisions
; 836  : 
; 837  : 	y1 += OPTION_AREA_OFFSET_Y;

  0140d	f3 0f 10 45 ec	 movss	 xmm0, DWORD PTR _y1$[ebp]
  01412	f3 0f 58 05 00
	00 00 00	 addss	 xmm0, DWORD PTR __real@3d7df3b6
  0141a	f3 0f 11 45 ec	 movss	 DWORD PTR _y1$[ebp], xmm0

; 838  : 
; 839  : 	realism_collisions_area = create_ui_object

  0141f	6a 11		 push	 17			; 00000011H
  01421	6a 01		 push	 1
  01423	6a 07		 push	 7
  01425	83 ec 08	 sub	 esp, 8
  01428	f2 0f 10 05 00
	00 00 00	 movsd	 xmm0, QWORD PTR __real@3fadb22d00000000
  01430	f2 0f 11 04 24	 movsd	 QWORD PTR [esp], xmm0
  01435	83 ec 08	 sub	 esp, 8
  01438	f2 0f 10 05 00
	00 00 00	 movsd	 xmm0, QWORD PTR __real@3fddd2f1a0000000
  01440	f2 0f 11 04 24	 movsd	 QWORD PTR [esp], xmm0
  01445	6a 59		 push	 89			; 00000059H
  01447	f3 0f 5a 45 ec	 cvtss2sd xmm0, DWORD PTR _y1$[ebp]
  0144c	83 ec 08	 sub	 esp, 8
  0144f	f2 0f 11 04 24	 movsd	 QWORD PTR [esp], xmm0
  01454	f3 0f 5a 45 f0	 cvtss2sd xmm0, DWORD PTR _x1$[ebp]
  01459	83 ec 08	 sub	 esp, 8
  0145c	f2 0f 11 04 24	 movsd	 QWORD PTR [esp], xmm0
  01461	6a 58		 push	 88			; 00000058H
  01463	a1 00 00 00 00	 mov	 eax, DWORD PTR ?session_screen@@3PAUUI_OBJECT@@A ; session_screen
  01468	50		 push	 eax
  01469	6a 32		 push	 50			; 00000032H
  0146b	6a 01		 push	 1
  0146d	e8 00 00 00 00	 call	 ?create_ui_object@@YAPAUUI_OBJECT@@HZZ ; create_ui_object
  01472	83 c4 40	 add	 esp, 64			; 00000040H
  01475	a3 00 00 00 00	 mov	 DWORD PTR ?realism_collisions_area@@3PAUUI_OBJECT@@A, eax ; realism_collisions_area

; 840  : 								(
; 841  : 									UI_TYPE_AREA,
; 842  : 									UI_ATTR_PARENT (session_screen),
; 843  : 									UI_ATTR_VIRTUAL_POSITION (x1, y1),
; 844  : 									UI_ATTR_VIRTUAL_SIZE (SETUP_AREA_WIDTH, SETUP_AREA_HEIGHT),
; 845  : 									UI_ATTR_CLEAR (TRUE),
; 846  : 									UI_ATTR_END
; 847  : 								);
; 848  : 
; 849  : 	title_box_obj = create_ui_object

  0147a	6a 11		 push	 17			; 00000011H
  0147c	a1 00 00 00 00	 mov	 eax, DWORD PTR ?options_box_large@@3PAUTEXTURE_GRAPHIC@@A ; options_box_large
  01481	50		 push	 eax
  01482	6a 4c		 push	 76			; 0000004cH
  01484	68 ff 00 00 00	 push	 255			; 000000ffH
  01489	68 ff 00 00 00	 push	 255			; 000000ffH
  0148e	68 ff 00 00 00	 push	 255			; 000000ffH
  01493	68 ff 00 00 00	 push	 255			; 000000ffH
  01498	6a 0a		 push	 10			; 0000000aH
  0149a	6a 00		 push	 0
  0149c	68 ff 00 00 00	 push	 255			; 000000ffH
  014a1	68 ff 00 00 00	 push	 255			; 000000ffH
  014a6	68 ff 00 00 00	 push	 255			; 000000ffH
  014ab	6a 0b		 push	 11			; 0000000bH
  014ad	83 ec 08	 sub	 esp, 8
  014b0	f2 0f 10 05 00
	00 00 00	 movsd	 xmm0, QWORD PTR __real@3ff0000000000000
  014b8	f2 0f 11 04 24	 movsd	 QWORD PTR [esp], xmm0
  014bd	83 ec 08	 sub	 esp, 8
  014c0	f2 0f 10 05 00
	00 00 00	 movsd	 xmm0, QWORD PTR __real@3fe451eb80000000
  014c8	f2 0f 11 04 24	 movsd	 QWORD PTR [esp], xmm0
  014cd	6a 59		 push	 89			; 00000059H
  014cf	83 ec 08	 sub	 esp, 8
  014d2	0f 57 c0	 xorps	 xmm0, xmm0
  014d5	f2 0f 11 04 24	 movsd	 QWORD PTR [esp], xmm0
  014da	83 ec 08	 sub	 esp, 8
  014dd	0f 57 c0	 xorps	 xmm0, xmm0
  014e0	f2 0f 11 04 24	 movsd	 QWORD PTR [esp], xmm0
  014e5	6a 58		 push	 88			; 00000058H
  014e7	8b 0d 00 00 00
	00		 mov	 ecx, DWORD PTR ?realism_collisions_area@@3PAUUI_OBJECT@@A ; realism_collisions_area
  014ed	51		 push	 ecx
  014ee	6a 32		 push	 50			; 00000032H
  014f0	6a 01		 push	 1
  014f2	e8 00 00 00 00	 call	 ?create_ui_object@@YAPAUUI_OBJECT@@HZZ ; create_ui_object
  014f7	83 c4 68	 add	 esp, 104		; 00000068H
  014fa	89 45 fc	 mov	 DWORD PTR _title_box_obj$[ebp], eax

; 850  : 	(
; 851  : 		UI_TYPE_AREA,
; 852  : 		UI_ATTR_PARENT (realism_collisions_area),
; 853  : 		UI_ATTR_VIRTUAL_POSITION (0, 0),
; 854  : 		UI_ATTR_VIRTUAL_SIZE (SETUP_BOX_WIDTH, SETUP_BOX_HEIGHT),
; 855  : 		UI_ATTR_COLOUR_START ( 255, 255, 255, 0 ),
; 856  : 		UI_ATTR_COLOUR_END ( 255, 255, 255, 255 ),
; 857  : 		UI_ATTR_TEXTURE_GRAPHIC (options_box_large),
; 858  : 		UI_ATTR_END
; 859  : 	);
; 860  : 
; 861  : 	title_text_obj = create_ui_object

  014fd	6a 11		 push	 17			; 00000011H
  014ff	68 00 00 00 00	 push	 OFFSET ??_C@_0L@OEIJOBGL@Collisions@
  01504	e8 00 00 00 00	 call	 ?get_trans@@YGPBDPBD@Z	; get_trans
  01509	50		 push	 eax
  0150a	6a 4a		 push	 74			; 0000004aH
  0150c	6a 02		 push	 2
  0150e	6a 4b		 push	 75			; 0000004bH
  01510	83 ec 08	 sub	 esp, 8
  01513	f2 0f 10 05 00
	00 00 00	 movsd	 xmm0, QWORD PTR __real@3fc24dd300000000
  0151b	f2 0f 11 04 24	 movsd	 QWORD PTR [esp], xmm0
  01520	83 ec 08	 sub	 esp, 8
  01523	f2 0f 10 05 00
	00 00 00	 movsd	 xmm0, QWORD PTR __real@3fe31a9fc0000000
  0152b	f2 0f 11 04 24	 movsd	 QWORD PTR [esp], xmm0
  01530	6a 58		 push	 88			; 00000058H
  01532	68 ff 00 00 00	 push	 255			; 000000ffH
  01537	0f b6 05 00 00
	00 00		 movzx	 eax, BYTE PTR ?ui_option_title_text_colour@@3UREAL_COLOUR@@A
  0153e	50		 push	 eax
  0153f	0f b6 0d 01 00
	00 00		 movzx	 ecx, BYTE PTR ?ui_option_title_text_colour@@3UREAL_COLOUR@@A+1
  01546	51		 push	 ecx
  01547	0f b6 15 02 00
	00 00		 movzx	 edx, BYTE PTR ?ui_option_title_text_colour@@3UREAL_COLOUR@@A+2
  0154e	52		 push	 edx
  0154f	6a 14		 push	 20			; 00000014H
  01551	6a 00		 push	 0
  01553	0f b6 05 00 00
	00 00		 movzx	 eax, BYTE PTR ?ui_option_title_text_colour@@3UREAL_COLOUR@@A
  0155a	50		 push	 eax
  0155b	0f b6 0d 01 00
	00 00		 movzx	 ecx, BYTE PTR ?ui_option_title_text_colour@@3UREAL_COLOUR@@A+1
  01562	51		 push	 ecx
  01563	0f b6 15 02 00
	00 00		 movzx	 edx, BYTE PTR ?ui_option_title_text_colour@@3UREAL_COLOUR@@A+2
  0156a	52		 push	 edx
  0156b	6a 15		 push	 21			; 00000015H
  0156d	6a 06		 push	 6
  0156f	6a 12		 push	 18			; 00000012H
  01571	a1 00 00 00 00	 mov	 eax, DWORD PTR ?realism_collisions_area@@3PAUUI_OBJECT@@A ; realism_collisions_area
  01576	50		 push	 eax
  01577	6a 32		 push	 50			; 00000032H
  01579	6a 05		 push	 5
  0157b	e8 00 00 00 00	 call	 ?create_ui_object@@YAPAUUI_OBJECT@@HZZ ; create_ui_object
  01580	83 c4 64	 add	 esp, 100		; 00000064H
  01583	89 45 f8	 mov	 DWORD PTR _title_text_obj$[ebp], eax

; 862  : 	(
; 863  : 		UI_TYPE_TEXT,
; 864  : 		UI_ATTR_PARENT (realism_collisions_area),
; 865  : 		UI_ATTR_FONT_TYPE (UI_FONT_THICK_ARIAL_18),
; 866  : 		UI_ATTR_FONT_COLOUR_START (ui_option_title_text_colour.r, ui_option_title_text_colour.g, ui_option_title_text_colour.b, 0),
; 867  : 		UI_ATTR_FONT_COLOUR_END (ui_option_title_text_colour.r, ui_option_title_text_colour.g, ui_option_title_text_colour.b, 255),
; 868  : 		UI_ATTR_VIRTUAL_POSITION (SETUP_BOX_TEXT_OFFSET_X, SETUP_BOX_TEXT_OFFSET_Y),
; 869  : 		UI_ATTR_TEXT_JUSTIFY (TEXT_JUSTIFY_RIGHT_CENTRE),
; 870  : 		UI_ATTR_TEXT (get_trans ("Collisions")),
; 871  : 		UI_ATTR_END
; 872  : 	);
; 873  : 
; 874  : 
; 875  : 	// Collisions Button
; 876  : 
; 877  : 	button_box_obj = create_ui_object

  01586	6a 11		 push	 17			; 00000011H
  01588	a1 00 00 00 00	 mov	 eax, DWORD PTR ?options_box_small@@3PAUTEXTURE_GRAPHIC@@A ; options_box_small
  0158d	50		 push	 eax
  0158e	6a 4c		 push	 76			; 0000004cH
  01590	68 ff 00 00 00	 push	 255			; 000000ffH
  01595	68 ff 00 00 00	 push	 255			; 000000ffH
  0159a	68 ff 00 00 00	 push	 255			; 000000ffH
  0159f	68 ff 00 00 00	 push	 255			; 000000ffH
  015a4	6a 0a		 push	 10			; 0000000aH
  015a6	6a 00		 push	 0
  015a8	68 ff 00 00 00	 push	 255			; 000000ffH
  015ad	68 ff 00 00 00	 push	 255			; 000000ffH
  015b2	68 ff 00 00 00	 push	 255			; 000000ffH
  015b7	6a 0b		 push	 11			; 0000000bH
  015b9	83 ec 08	 sub	 esp, 8
  015bc	f2 0f 10 05 00
	00 00 00	 movsd	 xmm0, QWORD PTR __real@3ff0000000000000
  015c4	f2 0f 11 04 24	 movsd	 QWORD PTR [esp], xmm0
  015c9	83 ec 08	 sub	 esp, 8
  015cc	f2 0f 10 05 00
	00 00 00	 movsd	 xmm0, QWORD PTR __real@3fc22d0e60000000
  015d4	f2 0f 11 04 24	 movsd	 QWORD PTR [esp], xmm0
  015d9	6a 59		 push	 89			; 00000059H
  015db	83 ec 08	 sub	 esp, 8
  015de	0f 57 c0	 xorps	 xmm0, xmm0
  015e1	f2 0f 11 04 24	 movsd	 QWORD PTR [esp], xmm0
  015e6	83 ec 08	 sub	 esp, 8
  015e9	f2 0f 10 05 00
	00 00 00	 movsd	 xmm0, QWORD PTR __real@3fe472b020000000
  015f1	f2 0f 11 04 24	 movsd	 QWORD PTR [esp], xmm0
  015f6	6a 58		 push	 88			; 00000058H
  015f8	8b 0d 00 00 00
	00		 mov	 ecx, DWORD PTR ?realism_collisions_area@@3PAUUI_OBJECT@@A ; realism_collisions_area
  015fe	51		 push	 ecx
  015ff	6a 32		 push	 50			; 00000032H
  01601	6a 01		 push	 1
  01603	e8 00 00 00 00	 call	 ?create_ui_object@@YAPAUUI_OBJECT@@HZZ ; create_ui_object
  01608	83 c4 68	 add	 esp, 104		; 00000068H
  0160b	89 45 f4	 mov	 DWORD PTR _button_box_obj$[ebp], eax

; 878  : 	(
; 879  : 		UI_TYPE_AREA,
; 880  : 		UI_ATTR_PARENT (realism_collisions_area),
; 881  : 		UI_ATTR_VIRTUAL_POSITION (SETUP_BOX_WIDTH + SETUP_BOX_GAP_WIDTH, 0),
; 882  : 		UI_ATTR_VIRTUAL_SIZE (SETUP_BOX_SMALL_WIDTH, SETUP_BOX_HEIGHT),
; 883  : 		UI_ATTR_COLOUR_START ( 255, 255, 255, 0 ),
; 884  : 		UI_ATTR_COLOUR_END ( 255, 255, 255, 255 ),
; 885  : 		UI_ATTR_TEXTURE_GRAPHIC (options_box_small),
; 886  : 		UI_ATTR_END
; 887  : 	);
; 888  : 
; 889  : 	realism_collisions_button = create_ui_object

  0160e	6a 11		 push	 17			; 00000011H
  01610	68 00 00 00 00	 push	 OFFSET ?notify_realism_collisions_function@@YGXPAUUI_OBJECT@@PAX@Z ; notify_realism_collisions_function
  01615	6a 16		 push	 22			; 00000016H
  01617	6a 01		 push	 1
  01619	6a 2f		 push	 47			; 0000002fH
  0161b	6a 01		 push	 1
  0161d	6a 07		 push	 7
  0161f	6a 01		 push	 1
  01621	6a 1b		 push	 27			; 0000001bH
  01623	68 ff 00 00 00	 push	 255			; 000000ffH
  01628	0f b6 05 00 00
	00 00		 movzx	 eax, BYTE PTR ?ui_option_text_hilite_colour@@3UREAL_COLOUR@@A
  0162f	50		 push	 eax
  01630	0f b6 0d 01 00
	00 00		 movzx	 ecx, BYTE PTR ?ui_option_text_hilite_colour@@3UREAL_COLOUR@@A+1
  01637	51		 push	 ecx
  01638	0f b6 15 02 00
	00 00		 movzx	 edx, BYTE PTR ?ui_option_text_hilite_colour@@3UREAL_COLOUR@@A+2
  0163f	52		 push	 edx
  01640	6a 22		 push	 34			; 00000022H
  01642	6a 00		 push	 0
  01644	0f b6 05 00 00
	00 00		 movzx	 eax, BYTE PTR ?ui_option_text_hilite_colour@@3UREAL_COLOUR@@A
  0164b	50		 push	 eax
  0164c	0f b6 0d 01 00
	00 00		 movzx	 ecx, BYTE PTR ?ui_option_text_hilite_colour@@3UREAL_COLOUR@@A+1
  01653	51		 push	 ecx
  01654	0f b6 15 02 00
	00 00		 movzx	 edx, BYTE PTR ?ui_option_text_hilite_colour@@3UREAL_COLOUR@@A+2
  0165b	52		 push	 edx
  0165c	6a 23		 push	 35			; 00000023H
  0165e	68 ff 00 00 00	 push	 255			; 000000ffH
  01663	0f b6 05 00 00
	00 00		 movzx	 eax, BYTE PTR ?ui_option_text_default_colour@@3UREAL_COLOUR@@A
  0166a	50		 push	 eax
  0166b	0f b6 0d 01 00
	00 00		 movzx	 ecx, BYTE PTR ?ui_option_text_default_colour@@3UREAL_COLOUR@@A+1
  01672	51		 push	 ecx
  01673	0f b6 15 02 00
	00 00		 movzx	 edx, BYTE PTR ?ui_option_text_default_colour@@3UREAL_COLOUR@@A+2
  0167a	52		 push	 edx
  0167b	6a 14		 push	 20			; 00000014H
  0167d	6a 00		 push	 0
  0167f	0f b6 05 00 00
	00 00		 movzx	 eax, BYTE PTR ?ui_option_text_default_colour@@3UREAL_COLOUR@@A
  01686	50		 push	 eax
  01687	0f b6 0d 01 00
	00 00		 movzx	 ecx, BYTE PTR ?ui_option_text_default_colour@@3UREAL_COLOUR@@A+1
  0168e	51		 push	 ecx
  0168f	0f b6 15 02 00
	00 00		 movzx	 edx, BYTE PTR ?ui_option_text_default_colour@@3UREAL_COLOUR@@A+2
  01696	52		 push	 edx
  01697	6a 15		 push	 21			; 00000015H
  01699	68 00 00 00 00	 push	 OFFSET ??_C@_00CNPNBAHC@@
  0169e	6a 4a		 push	 74			; 0000004aH
  016a0	6a 01		 push	 1
  016a2	6a 4b		 push	 75			; 0000004bH
  016a4	83 ec 08	 sub	 esp, 8
  016a7	f2 0f 10 05 00
	00 00 00	 movsd	 xmm0, QWORD PTR __real@3fc24dd300000000
  016af	f2 0f 11 04 24	 movsd	 QWORD PTR [esp], xmm0
  016b4	83 ec 08	 sub	 esp, 8
  016b7	f2 0f 10 05 00
	00 00 00	 movsd	 xmm0, QWORD PTR __real@3fa99999a0000000
  016bf	f2 0f 11 04 24	 movsd	 QWORD PTR [esp], xmm0
  016c4	6a 58		 push	 88			; 00000058H
  016c6	6a 08		 push	 8
  016c8	6a 12		 push	 18			; 00000012H
  016ca	8b 45 f4	 mov	 eax, DWORD PTR _button_box_obj$[ebp]
  016cd	50		 push	 eax
  016ce	6a 32		 push	 50			; 00000032H
  016d0	6a 05		 push	 5
  016d2	e8 00 00 00 00	 call	 ?create_ui_object@@YAPAUUI_OBJECT@@HZZ ; create_ui_object
  016d7	81 c4 ac 00 00
	00		 add	 esp, 172		; 000000acH
  016dd	a3 00 00 00 00	 mov	 DWORD PTR ?realism_collisions_button@@3PAUUI_OBJECT@@A, eax ; realism_collisions_button

; 890  : 	(
; 891  : 		UI_TYPE_TEXT,
; 892  : 		UI_ATTR_PARENT (button_box_obj),
; 893  : 		UI_ATTR_FONT_TYPE (UI_FONT_THICK_ITALIC_ARIAL_18),
; 894  : 		UI_ATTR_VIRTUAL_POSITION (SETUP_BUTTON_TEXT_OFFSET_X, SETUP_BOX_TEXT_OFFSET_Y),
; 895  : 		UI_ATTR_TEXT_JUSTIFY (TEXT_JUSTIFY_LEFT_CENTRE),
; 896  : 		UI_ATTR_TEXT (""),
; 897  : 		UI_ATTR_FONT_COLOUR_START (ui_option_text_default_colour.r, ui_option_text_default_colour.g, ui_option_text_default_colour.b, 0),
; 898  : 		UI_ATTR_FONT_COLOUR_END (ui_option_text_default_colour.r, ui_option_text_default_colour.g, ui_option_text_default_colour.b, 255),
; 899  : 		UI_ATTR_HIGHLIGHTED_FONT_COLOUR_START (ui_option_text_hilite_colour.r, ui_option_text_hilite_colour.g, ui_option_text_hilite_colour.b, 0),
; 900  : 		UI_ATTR_HIGHLIGHTED_FONT_COLOUR_END (ui_option_text_hilite_colour.r, ui_option_text_hilite_colour.g, ui_option_text_hilite_colour.b, 255),
; 901  : 		UI_ATTR_HIGHLIGHTABLE (TRUE),
; 902  : 		UI_ATTR_CLEAR (TRUE),
; 903  : 		UI_ATTR_NOTIFY_ON (NOTIFY_TYPE_BUTTON_UP),
; 904  : 		UI_ATTR_FUNCTION (notify_realism_collisions_function),
; 905  : 		UI_ATTR_END
; 906  : 	);
; 907  : 
; 908  : 	process_sessparm_boolean_objects (title_box_obj, title_text_obj, button_box_obj, realism_collisions_button, boolean_text, 2);

  016e2	6a 02		 push	 2
  016e4	68 00 00 00 00	 push	 OFFSET ?boolean_text@@3PAPBDA
  016e9	a1 00 00 00 00	 mov	 eax, DWORD PTR ?realism_collisions_button@@3PAUUI_OBJECT@@A ; realism_collisions_button
  016ee	50		 push	 eax
  016ef	8b 4d f4	 mov	 ecx, DWORD PTR _button_box_obj$[ebp]
  016f2	51		 push	 ecx
  016f3	8b 55 f8	 mov	 edx, DWORD PTR _title_text_obj$[ebp]
  016f6	52		 push	 edx
  016f7	8b 45 fc	 mov	 eax, DWORD PTR _title_box_obj$[ebp]
  016fa	50		 push	 eax
  016fb	e8 00 00 00 00	 call	 ?process_sessparm_boolean_objects@@YGXPAUUI_OBJECT@@000QAPBDH@Z ; process_sessparm_boolean_objects

; 909  : 
; 910  : 	/////////////////////////////////////////////////////////////////
; 911  : 	//	Realism Weapons Damage
; 912  : 
; 913  : 	y1 += OPTION_AREA_OFFSET_Y;

  01700	f3 0f 10 45 ec	 movss	 xmm0, DWORD PTR _y1$[ebp]
  01705	f3 0f 58 05 00
	00 00 00	 addss	 xmm0, DWORD PTR __real@3d7df3b6
  0170d	f3 0f 11 45 ec	 movss	 DWORD PTR _y1$[ebp], xmm0

; 914  : 
; 915  : 	realism_weapons_damage_area = create_ui_object

  01712	6a 11		 push	 17			; 00000011H
  01714	6a 01		 push	 1
  01716	6a 07		 push	 7
  01718	83 ec 08	 sub	 esp, 8
  0171b	f2 0f 10 05 00
	00 00 00	 movsd	 xmm0, QWORD PTR __real@3fadb22d00000000
  01723	f2 0f 11 04 24	 movsd	 QWORD PTR [esp], xmm0
  01728	83 ec 08	 sub	 esp, 8
  0172b	f2 0f 10 05 00
	00 00 00	 movsd	 xmm0, QWORD PTR __real@3fddd2f1a0000000
  01733	f2 0f 11 04 24	 movsd	 QWORD PTR [esp], xmm0
  01738	6a 59		 push	 89			; 00000059H
  0173a	f3 0f 5a 45 ec	 cvtss2sd xmm0, DWORD PTR _y1$[ebp]
  0173f	83 ec 08	 sub	 esp, 8
  01742	f2 0f 11 04 24	 movsd	 QWORD PTR [esp], xmm0
  01747	f3 0f 5a 45 f0	 cvtss2sd xmm0, DWORD PTR _x1$[ebp]
  0174c	83 ec 08	 sub	 esp, 8
  0174f	f2 0f 11 04 24	 movsd	 QWORD PTR [esp], xmm0
  01754	6a 58		 push	 88			; 00000058H
  01756	a1 00 00 00 00	 mov	 eax, DWORD PTR ?session_screen@@3PAUUI_OBJECT@@A ; session_screen
  0175b	50		 push	 eax
  0175c	6a 32		 push	 50			; 00000032H
  0175e	6a 01		 push	 1
  01760	e8 00 00 00 00	 call	 ?create_ui_object@@YAPAUUI_OBJECT@@HZZ ; create_ui_object
  01765	83 c4 40	 add	 esp, 64			; 00000040H
  01768	a3 00 00 00 00	 mov	 DWORD PTR ?realism_weapons_damage_area@@3PAUUI_OBJECT@@A, eax ; realism_weapons_damage_area

; 916  : 								(
; 917  : 									UI_TYPE_AREA,
; 918  : 									UI_ATTR_PARENT (session_screen),
; 919  : 									UI_ATTR_VIRTUAL_POSITION (x1, y1),
; 920  : 									UI_ATTR_VIRTUAL_SIZE (SETUP_AREA_WIDTH, SETUP_AREA_HEIGHT),
; 921  : 									UI_ATTR_CLEAR (TRUE),
; 922  : 									UI_ATTR_END
; 923  : 								);
; 924  : 
; 925  : 	title_box_obj = create_ui_object

  0176d	6a 11		 push	 17			; 00000011H
  0176f	a1 00 00 00 00	 mov	 eax, DWORD PTR ?options_box_large@@3PAUTEXTURE_GRAPHIC@@A ; options_box_large
  01774	50		 push	 eax
  01775	6a 4c		 push	 76			; 0000004cH
  01777	68 ff 00 00 00	 push	 255			; 000000ffH
  0177c	68 ff 00 00 00	 push	 255			; 000000ffH
  01781	68 ff 00 00 00	 push	 255			; 000000ffH
  01786	68 ff 00 00 00	 push	 255			; 000000ffH
  0178b	6a 0a		 push	 10			; 0000000aH
  0178d	6a 00		 push	 0
  0178f	68 ff 00 00 00	 push	 255			; 000000ffH
  01794	68 ff 00 00 00	 push	 255			; 000000ffH
  01799	68 ff 00 00 00	 push	 255			; 000000ffH
  0179e	6a 0b		 push	 11			; 0000000bH
  017a0	83 ec 08	 sub	 esp, 8
  017a3	f2 0f 10 05 00
	00 00 00	 movsd	 xmm0, QWORD PTR __real@3ff0000000000000
  017ab	f2 0f 11 04 24	 movsd	 QWORD PTR [esp], xmm0
  017b0	83 ec 08	 sub	 esp, 8
  017b3	f2 0f 10 05 00
	00 00 00	 movsd	 xmm0, QWORD PTR __real@3fe451eb80000000
  017bb	f2 0f 11 04 24	 movsd	 QWORD PTR [esp], xmm0
  017c0	6a 59		 push	 89			; 00000059H
  017c2	83 ec 08	 sub	 esp, 8
  017c5	0f 57 c0	 xorps	 xmm0, xmm0
  017c8	f2 0f 11 04 24	 movsd	 QWORD PTR [esp], xmm0
  017cd	83 ec 08	 sub	 esp, 8
  017d0	0f 57 c0	 xorps	 xmm0, xmm0
  017d3	f2 0f 11 04 24	 movsd	 QWORD PTR [esp], xmm0
  017d8	6a 58		 push	 88			; 00000058H
  017da	8b 0d 00 00 00
	00		 mov	 ecx, DWORD PTR ?realism_weapons_damage_area@@3PAUUI_OBJECT@@A ; realism_weapons_damage_area
  017e0	51		 push	 ecx
  017e1	6a 32		 push	 50			; 00000032H
  017e3	6a 01		 push	 1
  017e5	e8 00 00 00 00	 call	 ?create_ui_object@@YAPAUUI_OBJECT@@HZZ ; create_ui_object
  017ea	83 c4 68	 add	 esp, 104		; 00000068H
  017ed	89 45 fc	 mov	 DWORD PTR _title_box_obj$[ebp], eax

; 926  : 	(
; 927  : 		UI_TYPE_AREA,
; 928  : 		UI_ATTR_PARENT (realism_weapons_damage_area),
; 929  : 		UI_ATTR_VIRTUAL_POSITION (0, 0),
; 930  : 		UI_ATTR_VIRTUAL_SIZE (SETUP_BOX_WIDTH, SETUP_BOX_HEIGHT),
; 931  : 		UI_ATTR_COLOUR_START ( 255, 255, 255, 0 ),
; 932  : 		UI_ATTR_COLOUR_END ( 255, 255, 255, 255 ),
; 933  : 		UI_ATTR_TEXTURE_GRAPHIC (options_box_large),
; 934  : 		UI_ATTR_END
; 935  : 	);
; 936  : 
; 937  : 	title_text_obj = create_ui_object

  017f0	6a 11		 push	 17			; 00000011H
  017f2	68 00 00 00 00	 push	 OFFSET ??_C@_0P@DKHJFDGI@Weapons?5Damage@
  017f7	e8 00 00 00 00	 call	 ?get_trans@@YGPBDPBD@Z	; get_trans
  017fc	50		 push	 eax
  017fd	6a 4a		 push	 74			; 0000004aH
  017ff	6a 02		 push	 2
  01801	6a 4b		 push	 75			; 0000004bH
  01803	83 ec 08	 sub	 esp, 8
  01806	f2 0f 10 05 00
	00 00 00	 movsd	 xmm0, QWORD PTR __real@3fc24dd300000000
  0180e	f2 0f 11 04 24	 movsd	 QWORD PTR [esp], xmm0
  01813	83 ec 08	 sub	 esp, 8
  01816	f2 0f 10 05 00
	00 00 00	 movsd	 xmm0, QWORD PTR __real@3fe31a9fc0000000
  0181e	f2 0f 11 04 24	 movsd	 QWORD PTR [esp], xmm0
  01823	6a 58		 push	 88			; 00000058H
  01825	68 ff 00 00 00	 push	 255			; 000000ffH
  0182a	0f b6 05 00 00
	00 00		 movzx	 eax, BYTE PTR ?ui_option_title_text_colour@@3UREAL_COLOUR@@A
  01831	50		 push	 eax
  01832	0f b6 0d 01 00
	00 00		 movzx	 ecx, BYTE PTR ?ui_option_title_text_colour@@3UREAL_COLOUR@@A+1
  01839	51		 push	 ecx
  0183a	0f b6 15 02 00
	00 00		 movzx	 edx, BYTE PTR ?ui_option_title_text_colour@@3UREAL_COLOUR@@A+2
  01841	52		 push	 edx
  01842	6a 14		 push	 20			; 00000014H
  01844	6a 00		 push	 0
  01846	0f b6 05 00 00
	00 00		 movzx	 eax, BYTE PTR ?ui_option_title_text_colour@@3UREAL_COLOUR@@A
  0184d	50		 push	 eax
  0184e	0f b6 0d 01 00
	00 00		 movzx	 ecx, BYTE PTR ?ui_option_title_text_colour@@3UREAL_COLOUR@@A+1
  01855	51		 push	 ecx
  01856	0f b6 15 02 00
	00 00		 movzx	 edx, BYTE PTR ?ui_option_title_text_colour@@3UREAL_COLOUR@@A+2
  0185d	52		 push	 edx
  0185e	6a 15		 push	 21			; 00000015H
  01860	6a 06		 push	 6
  01862	6a 12		 push	 18			; 00000012H
  01864	a1 00 00 00 00	 mov	 eax, DWORD PTR ?realism_weapons_damage_area@@3PAUUI_OBJECT@@A ; realism_weapons_damage_area
  01869	50		 push	 eax
  0186a	6a 32		 push	 50			; 00000032H
  0186c	6a 05		 push	 5
  0186e	e8 00 00 00 00	 call	 ?create_ui_object@@YAPAUUI_OBJECT@@HZZ ; create_ui_object
  01873	83 c4 64	 add	 esp, 100		; 00000064H
  01876	89 45 f8	 mov	 DWORD PTR _title_text_obj$[ebp], eax

; 938  : 	(
; 939  : 		UI_TYPE_TEXT,
; 940  : 		UI_ATTR_PARENT (realism_weapons_damage_area),
; 941  : 		UI_ATTR_FONT_TYPE (UI_FONT_THICK_ARIAL_18),
; 942  : 		UI_ATTR_FONT_COLOUR_START (ui_option_title_text_colour.r, ui_option_title_text_colour.g, ui_option_title_text_colour.b, 0),
; 943  : 		UI_ATTR_FONT_COLOUR_END (ui_option_title_text_colour.r, ui_option_title_text_colour.g, ui_option_title_text_colour.b, 255),
; 944  : 		UI_ATTR_VIRTUAL_POSITION (SETUP_BOX_TEXT_OFFSET_X, SETUP_BOX_TEXT_OFFSET_Y),
; 945  : 		UI_ATTR_TEXT_JUSTIFY (TEXT_JUSTIFY_RIGHT_CENTRE),
; 946  : 		UI_ATTR_TEXT (get_trans ("Weapons Damage")),
; 947  : 		UI_ATTR_END
; 948  : 	);
; 949  : 
; 950  : 
; 951  : 	// Weapons Damage Button
; 952  : 
; 953  : 	button_box_obj = create_ui_object

  01879	6a 11		 push	 17			; 00000011H
  0187b	a1 00 00 00 00	 mov	 eax, DWORD PTR ?options_box_small@@3PAUTEXTURE_GRAPHIC@@A ; options_box_small
  01880	50		 push	 eax
  01881	6a 4c		 push	 76			; 0000004cH
  01883	68 ff 00 00 00	 push	 255			; 000000ffH
  01888	68 ff 00 00 00	 push	 255			; 000000ffH
  0188d	68 ff 00 00 00	 push	 255			; 000000ffH
  01892	68 ff 00 00 00	 push	 255			; 000000ffH
  01897	6a 0a		 push	 10			; 0000000aH
  01899	6a 00		 push	 0
  0189b	68 ff 00 00 00	 push	 255			; 000000ffH
  018a0	68 ff 00 00 00	 push	 255			; 000000ffH
  018a5	68 ff 00 00 00	 push	 255			; 000000ffH
  018aa	6a 0b		 push	 11			; 0000000bH
  018ac	83 ec 08	 sub	 esp, 8
  018af	f2 0f 10 05 00
	00 00 00	 movsd	 xmm0, QWORD PTR __real@3ff0000000000000
  018b7	f2 0f 11 04 24	 movsd	 QWORD PTR [esp], xmm0
  018bc	83 ec 08	 sub	 esp, 8
  018bf	f2 0f 10 05 00
	00 00 00	 movsd	 xmm0, QWORD PTR __real@3fc22d0e60000000
  018c7	f2 0f 11 04 24	 movsd	 QWORD PTR [esp], xmm0
  018cc	6a 59		 push	 89			; 00000059H
  018ce	83 ec 08	 sub	 esp, 8
  018d1	0f 57 c0	 xorps	 xmm0, xmm0
  018d4	f2 0f 11 04 24	 movsd	 QWORD PTR [esp], xmm0
  018d9	83 ec 08	 sub	 esp, 8
  018dc	f2 0f 10 05 00
	00 00 00	 movsd	 xmm0, QWORD PTR __real@3fe472b020000000
  018e4	f2 0f 11 04 24	 movsd	 QWORD PTR [esp], xmm0
  018e9	6a 58		 push	 88			; 00000058H
  018eb	8b 0d 00 00 00
	00		 mov	 ecx, DWORD PTR ?realism_weapons_damage_area@@3PAUUI_OBJECT@@A ; realism_weapons_damage_area
  018f1	51		 push	 ecx
  018f2	6a 32		 push	 50			; 00000032H
  018f4	6a 01		 push	 1
  018f6	e8 00 00 00 00	 call	 ?create_ui_object@@YAPAUUI_OBJECT@@HZZ ; create_ui_object
  018fb	83 c4 68	 add	 esp, 104		; 00000068H
  018fe	89 45 f4	 mov	 DWORD PTR _button_box_obj$[ebp], eax

; 954  : 	(
; 955  : 		UI_TYPE_AREA,
; 956  : 		UI_ATTR_PARENT (realism_weapons_damage_area),
; 957  : 		UI_ATTR_VIRTUAL_POSITION (SETUP_BOX_WIDTH + SETUP_BOX_GAP_WIDTH, 0),
; 958  : 		UI_ATTR_VIRTUAL_SIZE (SETUP_BOX_SMALL_WIDTH, SETUP_BOX_HEIGHT),
; 959  : 		UI_ATTR_COLOUR_START ( 255, 255, 255, 0 ),
; 960  : 		UI_ATTR_COLOUR_END ( 255, 255, 255, 255 ),
; 961  : 		UI_ATTR_TEXTURE_GRAPHIC (options_box_small),
; 962  : 		UI_ATTR_END
; 963  : 	);
; 964  : 
; 965  : 	realism_weapons_damage_button = create_ui_object

  01901	6a 11		 push	 17			; 00000011H
  01903	68 00 00 00 00	 push	 OFFSET ?notify_realism_weapons_damage_function@@YGXPAUUI_OBJECT@@PAX@Z ; notify_realism_weapons_damage_function
  01908	6a 16		 push	 22			; 00000016H
  0190a	6a 01		 push	 1
  0190c	6a 2f		 push	 47			; 0000002fH
  0190e	6a 01		 push	 1
  01910	6a 07		 push	 7
  01912	6a 01		 push	 1
  01914	6a 1b		 push	 27			; 0000001bH
  01916	68 ff 00 00 00	 push	 255			; 000000ffH
  0191b	0f b6 05 00 00
	00 00		 movzx	 eax, BYTE PTR ?ui_option_text_hilite_colour@@3UREAL_COLOUR@@A
  01922	50		 push	 eax
  01923	0f b6 0d 01 00
	00 00		 movzx	 ecx, BYTE PTR ?ui_option_text_hilite_colour@@3UREAL_COLOUR@@A+1
  0192a	51		 push	 ecx
  0192b	0f b6 15 02 00
	00 00		 movzx	 edx, BYTE PTR ?ui_option_text_hilite_colour@@3UREAL_COLOUR@@A+2
  01932	52		 push	 edx
  01933	6a 22		 push	 34			; 00000022H
  01935	6a 00		 push	 0
  01937	0f b6 05 00 00
	00 00		 movzx	 eax, BYTE PTR ?ui_option_text_hilite_colour@@3UREAL_COLOUR@@A
  0193e	50		 push	 eax
  0193f	0f b6 0d 01 00
	00 00		 movzx	 ecx, BYTE PTR ?ui_option_text_hilite_colour@@3UREAL_COLOUR@@A+1
  01946	51		 push	 ecx
  01947	0f b6 15 02 00
	00 00		 movzx	 edx, BYTE PTR ?ui_option_text_hilite_colour@@3UREAL_COLOUR@@A+2
  0194e	52		 push	 edx
  0194f	6a 23		 push	 35			; 00000023H
  01951	68 ff 00 00 00	 push	 255			; 000000ffH
  01956	0f b6 05 00 00
	00 00		 movzx	 eax, BYTE PTR ?ui_option_text_default_colour@@3UREAL_COLOUR@@A
  0195d	50		 push	 eax
  0195e	0f b6 0d 01 00
	00 00		 movzx	 ecx, BYTE PTR ?ui_option_text_default_colour@@3UREAL_COLOUR@@A+1
  01965	51		 push	 ecx
  01966	0f b6 15 02 00
	00 00		 movzx	 edx, BYTE PTR ?ui_option_text_default_colour@@3UREAL_COLOUR@@A+2
  0196d	52		 push	 edx
  0196e	6a 14		 push	 20			; 00000014H
  01970	6a 00		 push	 0
  01972	0f b6 05 00 00
	00 00		 movzx	 eax, BYTE PTR ?ui_option_text_default_colour@@3UREAL_COLOUR@@A
  01979	50		 push	 eax
  0197a	0f b6 0d 01 00
	00 00		 movzx	 ecx, BYTE PTR ?ui_option_text_default_colour@@3UREAL_COLOUR@@A+1
  01981	51		 push	 ecx
  01982	0f b6 15 02 00
	00 00		 movzx	 edx, BYTE PTR ?ui_option_text_default_colour@@3UREAL_COLOUR@@A+2
  01989	52		 push	 edx
  0198a	6a 15		 push	 21			; 00000015H
  0198c	68 00 00 00 00	 push	 OFFSET ??_C@_00CNPNBAHC@@
  01991	6a 4a		 push	 74			; 0000004aH
  01993	6a 01		 push	 1
  01995	6a 4b		 push	 75			; 0000004bH
  01997	83 ec 08	 sub	 esp, 8
  0199a	f2 0f 10 05 00
	00 00 00	 movsd	 xmm0, QWORD PTR __real@3fc24dd300000000
  019a2	f2 0f 11 04 24	 movsd	 QWORD PTR [esp], xmm0
  019a7	83 ec 08	 sub	 esp, 8
  019aa	f2 0f 10 05 00
	00 00 00	 movsd	 xmm0, QWORD PTR __real@3fa99999a0000000
  019b2	f2 0f 11 04 24	 movsd	 QWORD PTR [esp], xmm0
  019b7	6a 58		 push	 88			; 00000058H
  019b9	6a 08		 push	 8
  019bb	6a 12		 push	 18			; 00000012H
  019bd	8b 45 f4	 mov	 eax, DWORD PTR _button_box_obj$[ebp]
  019c0	50		 push	 eax
  019c1	6a 32		 push	 50			; 00000032H
  019c3	6a 05		 push	 5
  019c5	e8 00 00 00 00	 call	 ?create_ui_object@@YAPAUUI_OBJECT@@HZZ ; create_ui_object
  019ca	81 c4 ac 00 00
	00		 add	 esp, 172		; 000000acH
  019d0	a3 00 00 00 00	 mov	 DWORD PTR ?realism_weapons_damage_button@@3PAUUI_OBJECT@@A, eax ; realism_weapons_damage_button

; 966  : 	(
; 967  : 		UI_TYPE_TEXT,
; 968  : 		UI_ATTR_PARENT (button_box_obj),
; 969  : 		UI_ATTR_FONT_TYPE (UI_FONT_THICK_ITALIC_ARIAL_18),
; 970  : 		UI_ATTR_VIRTUAL_POSITION (SETUP_BUTTON_TEXT_OFFSET_X, SETUP_BOX_TEXT_OFFSET_Y),
; 971  : 		UI_ATTR_TEXT_JUSTIFY (TEXT_JUSTIFY_LEFT_CENTRE),
; 972  : 		UI_ATTR_TEXT (""),
; 973  : 		UI_ATTR_FONT_COLOUR_START (ui_option_text_default_colour.r, ui_option_text_default_colour.g, ui_option_text_default_colour.b, 0),
; 974  : 		UI_ATTR_FONT_COLOUR_END (ui_option_text_default_colour.r, ui_option_text_default_colour.g, ui_option_text_default_colour.b, 255),
; 975  : 		UI_ATTR_HIGHLIGHTED_FONT_COLOUR_START (ui_option_text_hilite_colour.r, ui_option_text_hilite_colour.g, ui_option_text_hilite_colour.b, 0),
; 976  : 		UI_ATTR_HIGHLIGHTED_FONT_COLOUR_END (ui_option_text_hilite_colour.r, ui_option_text_hilite_colour.g, ui_option_text_hilite_colour.b, 255),
; 977  : 		UI_ATTR_HIGHLIGHTABLE (TRUE),
; 978  : 		UI_ATTR_CLEAR (TRUE),
; 979  : 		UI_ATTR_NOTIFY_ON (NOTIFY_TYPE_BUTTON_UP),
; 980  : 		UI_ATTR_FUNCTION (notify_realism_weapons_damage_function),
; 981  : 		UI_ATTR_END
; 982  : 	);
; 983  : 
; 984  : 	process_sessparm_boolean_objects (title_box_obj, title_text_obj, button_box_obj, realism_weapons_damage_button, boolean_text, 2);

  019d5	6a 02		 push	 2
  019d7	68 00 00 00 00	 push	 OFFSET ?boolean_text@@3PAPBDA
  019dc	a1 00 00 00 00	 mov	 eax, DWORD PTR ?realism_weapons_damage_button@@3PAUUI_OBJECT@@A ; realism_weapons_damage_button
  019e1	50		 push	 eax
  019e2	8b 4d f4	 mov	 ecx, DWORD PTR _button_box_obj$[ebp]
  019e5	51		 push	 ecx
  019e6	8b 55 f8	 mov	 edx, DWORD PTR _title_text_obj$[ebp]
  019e9	52		 push	 edx
  019ea	8b 45 fc	 mov	 eax, DWORD PTR _title_box_obj$[ebp]
  019ed	50		 push	 eax
  019ee	e8 00 00 00 00	 call	 ?process_sessparm_boolean_objects@@YGXPAUUI_OBJECT@@000QAPBDH@Z ; process_sessparm_boolean_objects

; 985  : 
; 986  : 	notify_clear_all_session_parameters ();

  019f3	e8 00 00 00 00	 call	 ?notify_clear_all_session_parameters@@YGXXZ ; notify_clear_all_session_parameters

; 987  : }

  019f8	5f		 pop	 edi
  019f9	5e		 pop	 esi
  019fa	5b		 pop	 ebx
  019fb	8b e5		 mov	 esp, ebp
  019fd	5d		 pop	 ebp
  019fe	c3		 ret	 0
?define_session_parameter_objects@@YGXXZ ENDP		; define_session_parameter_objects
_TEXT	ENDS
; Function compile flags: /Odtp /ZI
; File c:\users\nhv90\projects\eech\aphavoc\source\ui_menu\sessparm\sparm_sc.c
;	COMDAT ?process_restore_session_setup_options@@YGXXZ
_TEXT	SEGMENT
tv203 = -80						; size = 4
tv181 = -80						; size = 4
tv159 = -80						; size = 4
tv138 = -80						; size = 4
tv84 = -80						; size = 4
tv195 = -76						; size = 4
tv173 = -76						; size = 4
tv151 = -76						; size = 4
tv130 = -76						; size = 4
tv76 = -76						; size = 4
tv69 = -76						; size = 4
_time_of_day$ = -8					; size = 4
_weather_setting$ = -4					; size = 4
?process_restore_session_setup_options@@YGXXZ PROC	; process_restore_session_setup_options, COMDAT

; 1677 : {

  00000	55		 push	 ebp
  00001	8b ec		 mov	 ebp, esp
  00003	83 ec 50	 sub	 esp, 80			; 00000050H
  00006	53		 push	 ebx
  00007	56		 push	 esi
  00008	57		 push	 edi

; 1678 : 	session_weather_settings
; 1679 : 		weather_setting;
; 1680 : 
; 1681 : 	session_time_of_day_settings
; 1682 : 		time_of_day;
; 1683 : 
; 1684 : //VJ 051011 add season summer/winter/desert button
; 1685 : 	//session_season_settings
; 1686 : 		//season_setting;
; 1687 : 
; 1688 : 	ASSERT (get_session_entity ());

  00009	83 3d 00 00 00
	00 00		 cmp	 DWORD PTR ?session_entity@@3PAUENTITY@@A, 0 ; session_entity
  00010	75 18		 jne	 SHORT $LN4@process_re
  00012	a1 00 00 00 00	 mov	 eax, DWORD PTR ?__LINE__Var@?0??process_restore_session_setup_options@@YGXXZ@4JA
  00017	83 c0 0b	 add	 eax, 11			; 0000000bH
  0001a	50		 push	 eax
  0001b	68 00 00 00 00	 push	 OFFSET ??_C@_0EI@IEMDHCOG@c?3?2users?2nhv90?2projects?2eech?2ap@
  00020	68 00 00 00 00	 push	 OFFSET ??_C@_0BG@EFCJJKAA@get_session_entity?5?$CI?$CJ@
  00025	e8 00 00 00 00	 call	 ?process_assert@@YGXPBD0H@Z ; process_assert
$LN4@process_re:

; 1689 : 
; 1690 : 	weather_setting = SESSION_WEATHER_RANDOM;

  0002a	c7 45 fc 01 00
	00 00		 mov	 DWORD PTR _weather_setting$[ebp], 1

; 1691 : 
; 1692 : 	time_of_day = SESSION_TIME_RANDOM;

  00031	c7 45 f8 01 00
	00 00		 mov	 DWORD PTR _time_of_day$[ebp], 1

; 1693 : 
; 1694 : 	switch (get_game_type ())

  00038	a1 00 00 00 00	 mov	 eax, DWORD PTR ?game_type@@3W4GAME_TYPES@@A ; game_type
  0003d	89 45 b4	 mov	 DWORD PTR tv69[ebp], eax
  00040	83 7d b4 01	 cmp	 DWORD PTR tv69[ebp], 1
  00044	74 05		 je	 SHORT $LN5@process_re
  00046	e9 eb 02 00 00	 jmp	 $LN6@process_re
$LN5@process_re:

; 1695 : 	{
; 1696 : 
; 1697 : 		case GAME_TYPE_FREE_FLIGHT:
; 1698 : 		{
; 1699 : 
; 1700 : 			set_local_entity_int_value (get_session_entity (), INT_TYPE_INFINITE_FUEL, get_global_session_free_flight_realism_infinite_fuel());

  0004b	83 3d 00 00 00
	00 00		 cmp	 DWORD PTR ?session_entity@@3PAUENTITY@@A, 0 ; session_entity
  00052	74 0c		 je	 SHORT $LN8@process_re
  00054	a1 00 00 00 00	 mov	 eax, DWORD PTR ?session_entity@@3PAUENTITY@@A ; session_entity
  00059	8b 08		 mov	 ecx, DWORD PTR [eax]
  0005b	89 4d b4	 mov	 DWORD PTR tv76[ebp], ecx
  0005e	eb 21		 jmp	 SHORT $LN9@process_re
$LN8@process_re:
  00060	8b 15 00 00 00
	00		 mov	 edx, DWORD PTR ?__LINE__Var@?0??process_restore_session_setup_options@@YGXXZ@4JA
  00066	83 c2 17	 add	 edx, 23			; 00000017H
  00069	52		 push	 edx
  0006a	68 00 00 00 00	 push	 OFFSET ??_C@_0EI@IEMDHCOG@c?3?2users?2nhv90?2projects?2eech?2ap@
  0006f	a1 00 00 00 00	 mov	 eax, DWORD PTR ?null_entity_pointer_message@@3PBDB ; null_entity_pointer_message
  00074	50		 push	 eax
  00075	e8 00 00 00 00	 call	 ?process_assert@@YGXPBD0H@Z ; process_assert
  0007a	c7 45 b4 00 00
	00 00		 mov	 DWORD PTR tv76[ebp], 0
$LN9@process_re:
  00081	b9 01 00 00 00	 mov	 ecx, 1
  00086	85 c9		 test	 ecx, ecx
  00088	74 09		 je	 SHORT $LN10@process_re
  0008a	c7 45 b0 65 00
	00 00		 mov	 DWORD PTR tv84[ebp], 101 ; 00000065H
  00091	eb 21		 jmp	 SHORT $LN11@process_re
$LN10@process_re:
  00093	8b 15 00 00 00
	00		 mov	 edx, DWORD PTR ?__LINE__Var@?0??process_restore_session_setup_options@@YGXXZ@4JA
  00099	83 c2 17	 add	 edx, 23			; 00000017H
  0009c	52		 push	 edx
  0009d	68 00 00 00 00	 push	 OFFSET ??_C@_0EI@IEMDHCOG@c?3?2users?2nhv90?2projects?2eech?2ap@
  000a2	a1 00 00 00 00	 mov	 eax, DWORD PTR ?overload_invalid_int_type_message@@3PBDB ; overload_invalid_int_type_message
  000a7	50		 push	 eax
  000a8	e8 00 00 00 00	 call	 ?process_assert@@YGXPBD0H@Z ; process_assert
  000ad	c7 45 b0 00 00
	00 00		 mov	 DWORD PTR tv84[ebp], 0
$LN11@process_re:
  000b4	8b 0d b0 01 00
	00		 mov	 ecx, DWORD PTR ?global_options@@3UGLOBAL_OPTIONS_DATA@@A+432
  000ba	d1 e9		 shr	 ecx, 1
  000bc	83 e1 01	 and	 ecx, 1
  000bf	51		 push	 ecx
  000c0	6a 65		 push	 101			; 00000065H
  000c2	8b 15 00 00 00
	00		 mov	 edx, DWORD PTR ?session_entity@@3PAUENTITY@@A ; session_entity
  000c8	52		 push	 edx
  000c9	69 45 b4 5c 04
	00 00		 imul	 eax, DWORD PTR tv76[ebp], 1116
  000d0	8b 4d b0	 mov	 ecx, DWORD PTR tv84[ebp]
  000d3	8b 94 88 00 00
	00 00		 mov	 edx, DWORD PTR ?fn_set_local_entity_int_value@@3PAY0BBH@P6GXPAUENTITY@@W4INT_TYPES@@H@ZA[eax+ecx*4]
  000da	ff d2		 call	 edx

; 1701 : 			set_local_entity_int_value (get_session_entity (), INT_TYPE_INFINITE_WEAPONS, get_global_session_free_flight_realism_infinite_weapons());

  000dc	83 3d 00 00 00
	00 00		 cmp	 DWORD PTR ?session_entity@@3PAUENTITY@@A, 0 ; session_entity
  000e3	74 0c		 je	 SHORT $LN12@process_re
  000e5	a1 00 00 00 00	 mov	 eax, DWORD PTR ?session_entity@@3PAUENTITY@@A ; session_entity
  000ea	8b 08		 mov	 ecx, DWORD PTR [eax]
  000ec	89 4d b4	 mov	 DWORD PTR tv130[ebp], ecx
  000ef	eb 21		 jmp	 SHORT $LN13@process_re
$LN12@process_re:
  000f1	8b 15 00 00 00
	00		 mov	 edx, DWORD PTR ?__LINE__Var@?0??process_restore_session_setup_options@@YGXXZ@4JA
  000f7	83 c2 18	 add	 edx, 24			; 00000018H
  000fa	52		 push	 edx
  000fb	68 00 00 00 00	 push	 OFFSET ??_C@_0EI@IEMDHCOG@c?3?2users?2nhv90?2projects?2eech?2ap@
  00100	a1 00 00 00 00	 mov	 eax, DWORD PTR ?null_entity_pointer_message@@3PBDB ; null_entity_pointer_message
  00105	50		 push	 eax
  00106	e8 00 00 00 00	 call	 ?process_assert@@YGXPBD0H@Z ; process_assert
  0010b	c7 45 b4 00 00
	00 00		 mov	 DWORD PTR tv130[ebp], 0
$LN13@process_re:
  00112	b9 01 00 00 00	 mov	 ecx, 1
  00117	85 c9		 test	 ecx, ecx
  00119	74 09		 je	 SHORT $LN14@process_re
  0011b	c7 45 b0 67 00
	00 00		 mov	 DWORD PTR tv138[ebp], 103 ; 00000067H
  00122	eb 21		 jmp	 SHORT $LN15@process_re
$LN14@process_re:
  00124	8b 15 00 00 00
	00		 mov	 edx, DWORD PTR ?__LINE__Var@?0??process_restore_session_setup_options@@YGXXZ@4JA
  0012a	83 c2 18	 add	 edx, 24			; 00000018H
  0012d	52		 push	 edx
  0012e	68 00 00 00 00	 push	 OFFSET ??_C@_0EI@IEMDHCOG@c?3?2users?2nhv90?2projects?2eech?2ap@
  00133	a1 00 00 00 00	 mov	 eax, DWORD PTR ?overload_invalid_int_type_message@@3PBDB ; overload_invalid_int_type_message
  00138	50		 push	 eax
  00139	e8 00 00 00 00	 call	 ?process_assert@@YGXPBD0H@Z ; process_assert
  0013e	c7 45 b0 00 00
	00 00		 mov	 DWORD PTR tv138[ebp], 0
$LN15@process_re:
  00145	8b 0d b0 01 00
	00		 mov	 ecx, DWORD PTR ?global_options@@3UGLOBAL_OPTIONS_DATA@@A+432
  0014b	83 e1 01	 and	 ecx, 1
  0014e	51		 push	 ecx
  0014f	6a 67		 push	 103			; 00000067H
  00151	8b 15 00 00 00
	00		 mov	 edx, DWORD PTR ?session_entity@@3PAUENTITY@@A ; session_entity
  00157	52		 push	 edx
  00158	69 45 b4 5c 04
	00 00		 imul	 eax, DWORD PTR tv130[ebp], 1116
  0015f	8b 4d b0	 mov	 ecx, DWORD PTR tv138[ebp]
  00162	8b 94 88 00 00
	00 00		 mov	 edx, DWORD PTR ?fn_set_local_entity_int_value@@3PAY0BBH@P6GXPAUENTITY@@W4INT_TYPES@@H@ZA[eax+ecx*4]
  00169	ff d2		 call	 edx

; 1702 : 			set_local_entity_int_value (get_session_entity (), INT_TYPE_INVULNERABLE_FROM_COLLISIONS, get_global_session_free_flight_realism_invulnerable_from_collisions());

  0016b	83 3d 00 00 00
	00 00		 cmp	 DWORD PTR ?session_entity@@3PAUENTITY@@A, 0 ; session_entity
  00172	74 0c		 je	 SHORT $LN16@process_re
  00174	a1 00 00 00 00	 mov	 eax, DWORD PTR ?session_entity@@3PAUENTITY@@A ; session_entity
  00179	8b 08		 mov	 ecx, DWORD PTR [eax]
  0017b	89 4d b4	 mov	 DWORD PTR tv151[ebp], ecx
  0017e	eb 21		 jmp	 SHORT $LN17@process_re
$LN16@process_re:
  00180	8b 15 00 00 00
	00		 mov	 edx, DWORD PTR ?__LINE__Var@?0??process_restore_session_setup_options@@YGXXZ@4JA
  00186	83 c2 19	 add	 edx, 25			; 00000019H
  00189	52		 push	 edx
  0018a	68 00 00 00 00	 push	 OFFSET ??_C@_0EI@IEMDHCOG@c?3?2users?2nhv90?2projects?2eech?2ap@
  0018f	a1 00 00 00 00	 mov	 eax, DWORD PTR ?null_entity_pointer_message@@3PBDB ; null_entity_pointer_message
  00194	50		 push	 eax
  00195	e8 00 00 00 00	 call	 ?process_assert@@YGXPBD0H@Z ; process_assert
  0019a	c7 45 b4 00 00
	00 00		 mov	 DWORD PTR tv151[ebp], 0
$LN17@process_re:
  001a1	b9 01 00 00 00	 mov	 ecx, 1
  001a6	85 c9		 test	 ecx, ecx
  001a8	74 09		 je	 SHORT $LN18@process_re
  001aa	c7 45 b0 6b 00
	00 00		 mov	 DWORD PTR tv159[ebp], 107 ; 0000006bH
  001b1	eb 21		 jmp	 SHORT $LN19@process_re
$LN18@process_re:
  001b3	8b 15 00 00 00
	00		 mov	 edx, DWORD PTR ?__LINE__Var@?0??process_restore_session_setup_options@@YGXXZ@4JA
  001b9	83 c2 19	 add	 edx, 25			; 00000019H
  001bc	52		 push	 edx
  001bd	68 00 00 00 00	 push	 OFFSET ??_C@_0EI@IEMDHCOG@c?3?2users?2nhv90?2projects?2eech?2ap@
  001c2	a1 00 00 00 00	 mov	 eax, DWORD PTR ?overload_invalid_int_type_message@@3PBDB ; overload_invalid_int_type_message
  001c7	50		 push	 eax
  001c8	e8 00 00 00 00	 call	 ?process_assert@@YGXPBD0H@Z ; process_assert
  001cd	c7 45 b0 00 00
	00 00		 mov	 DWORD PTR tv159[ebp], 0
$LN19@process_re:
  001d4	8b 0d b0 01 00
	00		 mov	 ecx, DWORD PTR ?global_options@@3UGLOBAL_OPTIONS_DATA@@A+432
  001da	c1 e9 03	 shr	 ecx, 3
  001dd	83 e1 01	 and	 ecx, 1
  001e0	51		 push	 ecx
  001e1	6a 6b		 push	 107			; 0000006bH
  001e3	8b 15 00 00 00
	00		 mov	 edx, DWORD PTR ?session_entity@@3PAUENTITY@@A ; session_entity
  001e9	52		 push	 edx
  001ea	69 45 b4 5c 04
	00 00		 imul	 eax, DWORD PTR tv151[ebp], 1116
  001f1	8b 4d b0	 mov	 ecx, DWORD PTR tv159[ebp]
  001f4	8b 94 88 00 00
	00 00		 mov	 edx, DWORD PTR ?fn_set_local_entity_int_value@@3PAY0BBH@P6GXPAUENTITY@@W4INT_TYPES@@H@ZA[eax+ecx*4]
  001fb	ff d2		 call	 edx

; 1703 : 			set_local_entity_int_value (get_session_entity (), INT_TYPE_INVULNERABLE_FROM_WEAPONS, get_global_session_free_flight_realism_invulnerable_from_weapons());

  001fd	83 3d 00 00 00
	00 00		 cmp	 DWORD PTR ?session_entity@@3PAUENTITY@@A, 0 ; session_entity
  00204	74 0c		 je	 SHORT $LN20@process_re
  00206	a1 00 00 00 00	 mov	 eax, DWORD PTR ?session_entity@@3PAUENTITY@@A ; session_entity
  0020b	8b 08		 mov	 ecx, DWORD PTR [eax]
  0020d	89 4d b4	 mov	 DWORD PTR tv173[ebp], ecx
  00210	eb 21		 jmp	 SHORT $LN21@process_re
$LN20@process_re:
  00212	8b 15 00 00 00
	00		 mov	 edx, DWORD PTR ?__LINE__Var@?0??process_restore_session_setup_options@@YGXXZ@4JA
  00218	83 c2 1a	 add	 edx, 26			; 0000001aH
  0021b	52		 push	 edx
  0021c	68 00 00 00 00	 push	 OFFSET ??_C@_0EI@IEMDHCOG@c?3?2users?2nhv90?2projects?2eech?2ap@
  00221	a1 00 00 00 00	 mov	 eax, DWORD PTR ?null_entity_pointer_message@@3PBDB ; null_entity_pointer_message
  00226	50		 push	 eax
  00227	e8 00 00 00 00	 call	 ?process_assert@@YGXPBD0H@Z ; process_assert
  0022c	c7 45 b4 00 00
	00 00		 mov	 DWORD PTR tv173[ebp], 0
$LN21@process_re:
  00233	b9 01 00 00 00	 mov	 ecx, 1
  00238	85 c9		 test	 ecx, ecx
  0023a	74 09		 je	 SHORT $LN22@process_re
  0023c	c7 45 b0 6c 00
	00 00		 mov	 DWORD PTR tv181[ebp], 108 ; 0000006cH
  00243	eb 21		 jmp	 SHORT $LN23@process_re
$LN22@process_re:
  00245	8b 15 00 00 00
	00		 mov	 edx, DWORD PTR ?__LINE__Var@?0??process_restore_session_setup_options@@YGXXZ@4JA
  0024b	83 c2 1a	 add	 edx, 26			; 0000001aH
  0024e	52		 push	 edx
  0024f	68 00 00 00 00	 push	 OFFSET ??_C@_0EI@IEMDHCOG@c?3?2users?2nhv90?2projects?2eech?2ap@
  00254	a1 00 00 00 00	 mov	 eax, DWORD PTR ?overload_invalid_int_type_message@@3PBDB ; overload_invalid_int_type_message
  00259	50		 push	 eax
  0025a	e8 00 00 00 00	 call	 ?process_assert@@YGXPBD0H@Z ; process_assert
  0025f	c7 45 b0 00 00
	00 00		 mov	 DWORD PTR tv181[ebp], 0
$LN23@process_re:
  00266	8b 0d b0 01 00
	00		 mov	 ecx, DWORD PTR ?global_options@@3UGLOBAL_OPTIONS_DATA@@A+432
  0026c	c1 e9 02	 shr	 ecx, 2
  0026f	83 e1 01	 and	 ecx, 1
  00272	51		 push	 ecx
  00273	6a 6c		 push	 108			; 0000006cH
  00275	8b 15 00 00 00
	00		 mov	 edx, DWORD PTR ?session_entity@@3PAUENTITY@@A ; session_entity
  0027b	52		 push	 edx
  0027c	69 45 b4 5c 04
	00 00		 imul	 eax, DWORD PTR tv173[ebp], 1116
  00283	8b 4d b0	 mov	 ecx, DWORD PTR tv181[ebp]
  00286	8b 94 88 00 00
	00 00		 mov	 edx, DWORD PTR ?fn_set_local_entity_int_value@@3PAY0BBH@P6GXPAUENTITY@@W4INT_TYPES@@H@ZA[eax+ecx*4]
  0028d	ff d2		 call	 edx

; 1704 : 			set_local_entity_int_value (get_session_entity (), INT_TYPE_SUPPRESS_AI_FIRE, get_global_session_free_flight_realism_suppress_ai_fire());

  0028f	83 3d 00 00 00
	00 00		 cmp	 DWORD PTR ?session_entity@@3PAUENTITY@@A, 0 ; session_entity
  00296	74 0c		 je	 SHORT $LN24@process_re
  00298	a1 00 00 00 00	 mov	 eax, DWORD PTR ?session_entity@@3PAUENTITY@@A ; session_entity
  0029d	8b 08		 mov	 ecx, DWORD PTR [eax]
  0029f	89 4d b4	 mov	 DWORD PTR tv195[ebp], ecx
  002a2	eb 21		 jmp	 SHORT $LN25@process_re
$LN24@process_re:
  002a4	8b 15 00 00 00
	00		 mov	 edx, DWORD PTR ?__LINE__Var@?0??process_restore_session_setup_options@@YGXXZ@4JA
  002aa	83 c2 1b	 add	 edx, 27			; 0000001bH
  002ad	52		 push	 edx
  002ae	68 00 00 00 00	 push	 OFFSET ??_C@_0EI@IEMDHCOG@c?3?2users?2nhv90?2projects?2eech?2ap@
  002b3	a1 00 00 00 00	 mov	 eax, DWORD PTR ?null_entity_pointer_message@@3PBDB ; null_entity_pointer_message
  002b8	50		 push	 eax
  002b9	e8 00 00 00 00	 call	 ?process_assert@@YGXPBD0H@Z ; process_assert
  002be	c7 45 b4 00 00
	00 00		 mov	 DWORD PTR tv195[ebp], 0
$LN25@process_re:
  002c5	b9 01 00 00 00	 mov	 ecx, 1
  002ca	85 c9		 test	 ecx, ecx
  002cc	74 09		 je	 SHORT $LN26@process_re
  002ce	c7 45 b0 d0 00
	00 00		 mov	 DWORD PTR tv203[ebp], 208 ; 000000d0H
  002d5	eb 21		 jmp	 SHORT $LN27@process_re
$LN26@process_re:
  002d7	8b 15 00 00 00
	00		 mov	 edx, DWORD PTR ?__LINE__Var@?0??process_restore_session_setup_options@@YGXXZ@4JA
  002dd	83 c2 1b	 add	 edx, 27			; 0000001bH
  002e0	52		 push	 edx
  002e1	68 00 00 00 00	 push	 OFFSET ??_C@_0EI@IEMDHCOG@c?3?2users?2nhv90?2projects?2eech?2ap@
  002e6	a1 00 00 00 00	 mov	 eax, DWORD PTR ?overload_invalid_int_type_message@@3PBDB ; overload_invalid_int_type_message
  002eb	50		 push	 eax
  002ec	e8 00 00 00 00	 call	 ?process_assert@@YGXPBD0H@Z ; process_assert
  002f1	c7 45 b0 00 00
	00 00		 mov	 DWORD PTR tv203[ebp], 0
$LN27@process_re:
  002f8	8b 0d b0 01 00
	00		 mov	 ecx, DWORD PTR ?global_options@@3UGLOBAL_OPTIONS_DATA@@A+432
  002fe	c1 e9 04	 shr	 ecx, 4
  00301	83 e1 01	 and	 ecx, 1
  00304	51		 push	 ecx
  00305	68 d0 00 00 00	 push	 208			; 000000d0H
  0030a	8b 15 00 00 00
	00		 mov	 edx, DWORD PTR ?session_entity@@3PAUENTITY@@A ; session_entity
  00310	52		 push	 edx
  00311	69 45 b4 5c 04
	00 00		 imul	 eax, DWORD PTR tv195[ebp], 1116
  00318	8b 4d b0	 mov	 ecx, DWORD PTR tv203[ebp]
  0031b	8b 94 88 00 00
	00 00		 mov	 edx, DWORD PTR ?fn_set_local_entity_int_value@@3PAY0BBH@P6GXPAUENTITY@@W4INT_TYPES@@H@ZA[eax+ecx*4]
  00322	ff d2		 call	 edx

; 1705 : 
; 1706 : 			weather_setting = get_global_session_free_flight_weather();

  00324	a1 a4 01 00 00	 mov	 eax, DWORD PTR ?global_options@@3UGLOBAL_OPTIONS_DATA@@A+420
  00329	89 45 fc	 mov	 DWORD PTR _weather_setting$[ebp], eax

; 1707 : 			time_of_day = get_global_session_free_flight_time_of_day();

  0032c	a1 9c 01 00 00	 mov	 eax, DWORD PTR ?global_options@@3UGLOBAL_OPTIONS_DATA@@A+412
  00331	89 45 f8	 mov	 DWORD PTR _time_of_day$[ebp], eax

; 1708 : //VJ 051011 add season summer/winter/desert button
; 1709 : //			season_setting = get_global_season();
; 1710 : 
; 1711 : 			break;

  00334	eb 02		 jmp	 SHORT $LN2@process_re
$LN6@process_re:

; 1712 : 		}
; 1713 : 
; 1714 : 		default:
; 1715 : 		{
; 1716 : 
; 1717 : 			return;

  00336	eb 12		 jmp	 SHORT $LN1@process_re
$LN2@process_re:

; 1718 : 		}
; 1719 : 	}
; 1720 : 
; 1721 : 	//
; 1722 : 	// set weather
; 1723 : 	//
; 1724 : 
; 1725 : 	process_session_setup_weather_options (weather_setting);

  00338	8b 45 fc	 mov	 eax, DWORD PTR _weather_setting$[ebp]
  0033b	50		 push	 eax
  0033c	e8 00 00 00 00	 call	 ?process_session_setup_weather_options@@YGXW4SESSION_WEATHER_SETTINGS@@@Z ; process_session_setup_weather_options

; 1726 : 
; 1727 : 	//
; 1728 : 	// set time of day
; 1729 : 	//
; 1730 : 
; 1731 : 	process_session_setup_time_of_day_options (time_of_day);

  00341	8b 45 f8	 mov	 eax, DWORD PTR _time_of_day$[ebp]
  00344	50		 push	 eax
  00345	e8 00 00 00 00	 call	 ?process_session_setup_time_of_day_options@@YGXW4SESSION_TIME_OF_DAY_SETTINGS@@@Z ; process_session_setup_time_of_day_options
$LN1@process_re:

; 1732 : }

  0034a	5f		 pop	 edi
  0034b	5e		 pop	 esi
  0034c	5b		 pop	 ebx
  0034d	8b e5		 mov	 esp, ebp
  0034f	5d		 pop	 ebp
  00350	c3		 ret	 0
?process_restore_session_setup_options@@YGXXZ ENDP	; process_restore_session_setup_options
_TEXT	ENDS
; Function compile flags: /Odtp /ZI
; File c:\users\nhv90\projects\eech\aphavoc\source\ui_menu\sessparm\sparm_sc.c
;	COMDAT ?process_host_session_setup_options@@YGXXZ
_TEXT	SEGMENT
tv313 = -80						; size = 4
tv291 = -80						; size = 4
tv269 = -80						; size = 4
tv248 = -80						; size = 4
tv226 = -80						; size = 4
tv204 = -80						; size = 4
tv182 = -80						; size = 4
tv160 = -80						; size = 4
tv138 = -80						; size = 4
tv84 = -80						; size = 4
tv305 = -76						; size = 4
tv283 = -76						; size = 4
tv261 = -76						; size = 4
tv240 = -76						; size = 4
tv218 = -76						; size = 4
tv196 = -76						; size = 4
tv174 = -76						; size = 4
tv152 = -76						; size = 4
tv130 = -76						; size = 4
tv76 = -76						; size = 4
tv69 = -76						; size = 4
_time_of_day$ = -8					; size = 4
_weather_setting$ = -4					; size = 4
?process_host_session_setup_options@@YGXXZ PROC		; process_host_session_setup_options, COMDAT

; 1600 : {

  00000	55		 push	 ebp
  00001	8b ec		 mov	 ebp, esp
  00003	83 ec 50	 sub	 esp, 80			; 00000050H
  00006	53		 push	 ebx
  00007	56		 push	 esi
  00008	57		 push	 edi

; 1601 : 	session_weather_settings
; 1602 : 		weather_setting;
; 1603 : 
; 1604 : 	session_time_of_day_settings
; 1605 : 		time_of_day;
; 1606 : 
; 1607 : //VJ 051011 add season summer/winter/desert button
; 1608 : 	//session_season_settings
; 1609 : 		//season_setting;
; 1610 : 
; 1611 : 	ASSERT (get_session_entity ());

  00009	83 3d 00 00 00
	00 00		 cmp	 DWORD PTR ?session_entity@@3PAUENTITY@@A, 0 ; session_entity
  00010	75 18		 jne	 SHORT $LN4@process_ho
  00012	a1 00 00 00 00	 mov	 eax, DWORD PTR ?__LINE__Var@?0??process_host_session_setup_options@@YGXXZ@4JA
  00017	83 c0 0b	 add	 eax, 11			; 0000000bH
  0001a	50		 push	 eax
  0001b	68 00 00 00 00	 push	 OFFSET ??_C@_0EI@IEMDHCOG@c?3?2users?2nhv90?2projects?2eech?2ap@
  00020	68 00 00 00 00	 push	 OFFSET ??_C@_0BG@EFCJJKAA@get_session_entity?5?$CI?$CJ@
  00025	e8 00 00 00 00	 call	 ?process_assert@@YGXPBD0H@Z ; process_assert
$LN4@process_ho:

; 1612 : 
; 1613 : 	weather_setting = SESSION_WEATHER_RANDOM;

  0002a	c7 45 fc 01 00
	00 00		 mov	 DWORD PTR _weather_setting$[ebp], 1

; 1614 : 
; 1615 : 	time_of_day = SESSION_TIME_RANDOM;

  00031	c7 45 f8 01 00
	00 00		 mov	 DWORD PTR _time_of_day$[ebp], 1

; 1616 : 
; 1617 : //VJ 060304 changed to default season
; 1618 : 	//season_setting = SESSION_SEASON_DEFAULT;
; 1619 : 
; 1620 : 	switch (get_game_type ())

  00038	a1 00 00 00 00	 mov	 eax, DWORD PTR ?game_type@@3W4GAME_TYPES@@A ; game_type
  0003d	89 45 b4	 mov	 DWORD PTR tv69[ebp], eax
  00040	83 7d b4 01	 cmp	 DWORD PTR tv69[ebp], 1
  00044	0f 84 07 03 00
	00		 je	 $LN6@process_ho
  0004a	83 7d b4 01	 cmp	 DWORD PTR tv69[ebp], 1
  0004e	0f 8e e6 05 00
	00		 jle	 $LN2@process_ho
  00054	83 7d b4 03	 cmp	 DWORD PTR tv69[ebp], 3
  00058	7e 05		 jle	 SHORT $LN5@process_ho
  0005a	e9 db 05 00 00	 jmp	 $LN2@process_ho
$LN5@process_ho:

; 1621 : 	{
; 1622 : 
; 1623 : 		case GAME_TYPE_CAMPAIGN:
; 1624 : 		case GAME_TYPE_SKIRMISH:
; 1625 : 		{
; 1626 : 
; 1627 : 			set_local_entity_int_value (get_session_entity (), INT_TYPE_INFINITE_FUEL, get_global_session_campaign_realism_infinite_fuel());

  0005f	83 3d 00 00 00
	00 00		 cmp	 DWORD PTR ?session_entity@@3PAUENTITY@@A, 0 ; session_entity
  00066	74 0c		 je	 SHORT $LN8@process_ho
  00068	a1 00 00 00 00	 mov	 eax, DWORD PTR ?session_entity@@3PAUENTITY@@A ; session_entity
  0006d	8b 08		 mov	 ecx, DWORD PTR [eax]
  0006f	89 4d b4	 mov	 DWORD PTR tv76[ebp], ecx
  00072	eb 21		 jmp	 SHORT $LN9@process_ho
$LN8@process_ho:
  00074	8b 15 00 00 00
	00		 mov	 edx, DWORD PTR ?__LINE__Var@?0??process_host_session_setup_options@@YGXXZ@4JA
  0007a	83 c2 1b	 add	 edx, 27			; 0000001bH
  0007d	52		 push	 edx
  0007e	68 00 00 00 00	 push	 OFFSET ??_C@_0EI@IEMDHCOG@c?3?2users?2nhv90?2projects?2eech?2ap@
  00083	a1 00 00 00 00	 mov	 eax, DWORD PTR ?null_entity_pointer_message@@3PBDB ; null_entity_pointer_message
  00088	50		 push	 eax
  00089	e8 00 00 00 00	 call	 ?process_assert@@YGXPBD0H@Z ; process_assert
  0008e	c7 45 b4 00 00
	00 00		 mov	 DWORD PTR tv76[ebp], 0
$LN9@process_ho:
  00095	b9 01 00 00 00	 mov	 ecx, 1
  0009a	85 c9		 test	 ecx, ecx
  0009c	74 09		 je	 SHORT $LN10@process_ho
  0009e	c7 45 b0 65 00
	00 00		 mov	 DWORD PTR tv84[ebp], 101 ; 00000065H
  000a5	eb 21		 jmp	 SHORT $LN11@process_ho
$LN10@process_ho:
  000a7	8b 15 00 00 00
	00		 mov	 edx, DWORD PTR ?__LINE__Var@?0??process_host_session_setup_options@@YGXXZ@4JA
  000ad	83 c2 1b	 add	 edx, 27			; 0000001bH
  000b0	52		 push	 edx
  000b1	68 00 00 00 00	 push	 OFFSET ??_C@_0EI@IEMDHCOG@c?3?2users?2nhv90?2projects?2eech?2ap@
  000b6	a1 00 00 00 00	 mov	 eax, DWORD PTR ?overload_invalid_int_type_message@@3PBDB ; overload_invalid_int_type_message
  000bb	50		 push	 eax
  000bc	e8 00 00 00 00	 call	 ?process_assert@@YGXPBD0H@Z ; process_assert
  000c1	c7 45 b0 00 00
	00 00		 mov	 DWORD PTR tv84[ebp], 0
$LN11@process_ho:
  000c8	8b 0d b0 01 00
	00		 mov	 ecx, DWORD PTR ?global_options@@3UGLOBAL_OPTIONS_DATA@@A+432
  000ce	c1 e9 06	 shr	 ecx, 6
  000d1	83 e1 01	 and	 ecx, 1
  000d4	51		 push	 ecx
  000d5	6a 65		 push	 101			; 00000065H
  000d7	8b 15 00 00 00
	00		 mov	 edx, DWORD PTR ?session_entity@@3PAUENTITY@@A ; session_entity
  000dd	52		 push	 edx
  000de	69 45 b4 5c 04
	00 00		 imul	 eax, DWORD PTR tv76[ebp], 1116
  000e5	8b 4d b0	 mov	 ecx, DWORD PTR tv84[ebp]
  000e8	8b 94 88 00 00
	00 00		 mov	 edx, DWORD PTR ?fn_set_local_entity_int_value@@3PAY0BBH@P6GXPAUENTITY@@W4INT_TYPES@@H@ZA[eax+ecx*4]
  000ef	ff d2		 call	 edx

; 1628 : 			set_local_entity_int_value (get_session_entity (), INT_TYPE_INFINITE_WEAPONS, get_global_session_campaign_realism_infinite_weapons());

  000f1	83 3d 00 00 00
	00 00		 cmp	 DWORD PTR ?session_entity@@3PAUENTITY@@A, 0 ; session_entity
  000f8	74 0c		 je	 SHORT $LN12@process_ho
  000fa	a1 00 00 00 00	 mov	 eax, DWORD PTR ?session_entity@@3PAUENTITY@@A ; session_entity
  000ff	8b 08		 mov	 ecx, DWORD PTR [eax]
  00101	89 4d b4	 mov	 DWORD PTR tv130[ebp], ecx
  00104	eb 21		 jmp	 SHORT $LN13@process_ho
$LN12@process_ho:
  00106	8b 15 00 00 00
	00		 mov	 edx, DWORD PTR ?__LINE__Var@?0??process_host_session_setup_options@@YGXXZ@4JA
  0010c	83 c2 1c	 add	 edx, 28			; 0000001cH
  0010f	52		 push	 edx
  00110	68 00 00 00 00	 push	 OFFSET ??_C@_0EI@IEMDHCOG@c?3?2users?2nhv90?2projects?2eech?2ap@
  00115	a1 00 00 00 00	 mov	 eax, DWORD PTR ?null_entity_pointer_message@@3PBDB ; null_entity_pointer_message
  0011a	50		 push	 eax
  0011b	e8 00 00 00 00	 call	 ?process_assert@@YGXPBD0H@Z ; process_assert
  00120	c7 45 b4 00 00
	00 00		 mov	 DWORD PTR tv130[ebp], 0
$LN13@process_ho:
  00127	b9 01 00 00 00	 mov	 ecx, 1
  0012c	85 c9		 test	 ecx, ecx
  0012e	74 09		 je	 SHORT $LN14@process_ho
  00130	c7 45 b0 67 00
	00 00		 mov	 DWORD PTR tv138[ebp], 103 ; 00000067H
  00137	eb 21		 jmp	 SHORT $LN15@process_ho
$LN14@process_ho:
  00139	8b 15 00 00 00
	00		 mov	 edx, DWORD PTR ?__LINE__Var@?0??process_host_session_setup_options@@YGXXZ@4JA
  0013f	83 c2 1c	 add	 edx, 28			; 0000001cH
  00142	52		 push	 edx
  00143	68 00 00 00 00	 push	 OFFSET ??_C@_0EI@IEMDHCOG@c?3?2users?2nhv90?2projects?2eech?2ap@
  00148	a1 00 00 00 00	 mov	 eax, DWORD PTR ?overload_invalid_int_type_message@@3PBDB ; overload_invalid_int_type_message
  0014d	50		 push	 eax
  0014e	e8 00 00 00 00	 call	 ?process_assert@@YGXPBD0H@Z ; process_assert
  00153	c7 45 b0 00 00
	00 00		 mov	 DWORD PTR tv138[ebp], 0
$LN15@process_ho:
  0015a	8b 0d b0 01 00
	00		 mov	 ecx, DWORD PTR ?global_options@@3UGLOBAL_OPTIONS_DATA@@A+432
  00160	c1 e9 05	 shr	 ecx, 5
  00163	83 e1 01	 and	 ecx, 1
  00166	51		 push	 ecx
  00167	6a 67		 push	 103			; 00000067H
  00169	8b 15 00 00 00
	00		 mov	 edx, DWORD PTR ?session_entity@@3PAUENTITY@@A ; session_entity
  0016f	52		 push	 edx
  00170	69 45 b4 5c 04
	00 00		 imul	 eax, DWORD PTR tv130[ebp], 1116
  00177	8b 4d b0	 mov	 ecx, DWORD PTR tv138[ebp]
  0017a	8b 94 88 00 00
	00 00		 mov	 edx, DWORD PTR ?fn_set_local_entity_int_value@@3PAY0BBH@P6GXPAUENTITY@@W4INT_TYPES@@H@ZA[eax+ecx*4]
  00181	ff d2		 call	 edx

; 1629 : 			set_local_entity_int_value (get_session_entity (), INT_TYPE_INVULNERABLE_FROM_COLLISIONS, get_global_session_campaign_realism_invulnerable_from_collisions());

  00183	83 3d 00 00 00
	00 00		 cmp	 DWORD PTR ?session_entity@@3PAUENTITY@@A, 0 ; session_entity
  0018a	74 0c		 je	 SHORT $LN16@process_ho
  0018c	a1 00 00 00 00	 mov	 eax, DWORD PTR ?session_entity@@3PAUENTITY@@A ; session_entity
  00191	8b 08		 mov	 ecx, DWORD PTR [eax]
  00193	89 4d b4	 mov	 DWORD PTR tv152[ebp], ecx
  00196	eb 21		 jmp	 SHORT $LN17@process_ho
$LN16@process_ho:
  00198	8b 15 00 00 00
	00		 mov	 edx, DWORD PTR ?__LINE__Var@?0??process_host_session_setup_options@@YGXXZ@4JA
  0019e	83 c2 1d	 add	 edx, 29			; 0000001dH
  001a1	52		 push	 edx
  001a2	68 00 00 00 00	 push	 OFFSET ??_C@_0EI@IEMDHCOG@c?3?2users?2nhv90?2projects?2eech?2ap@
  001a7	a1 00 00 00 00	 mov	 eax, DWORD PTR ?null_entity_pointer_message@@3PBDB ; null_entity_pointer_message
  001ac	50		 push	 eax
  001ad	e8 00 00 00 00	 call	 ?process_assert@@YGXPBD0H@Z ; process_assert
  001b2	c7 45 b4 00 00
	00 00		 mov	 DWORD PTR tv152[ebp], 0
$LN17@process_ho:
  001b9	b9 01 00 00 00	 mov	 ecx, 1
  001be	85 c9		 test	 ecx, ecx
  001c0	74 09		 je	 SHORT $LN18@process_ho
  001c2	c7 45 b0 6b 00
	00 00		 mov	 DWORD PTR tv160[ebp], 107 ; 0000006bH
  001c9	eb 21		 jmp	 SHORT $LN19@process_ho
$LN18@process_ho:
  001cb	8b 15 00 00 00
	00		 mov	 edx, DWORD PTR ?__LINE__Var@?0??process_host_session_setup_options@@YGXXZ@4JA
  001d1	83 c2 1d	 add	 edx, 29			; 0000001dH
  001d4	52		 push	 edx
  001d5	68 00 00 00 00	 push	 OFFSET ??_C@_0EI@IEMDHCOG@c?3?2users?2nhv90?2projects?2eech?2ap@
  001da	a1 00 00 00 00	 mov	 eax, DWORD PTR ?overload_invalid_int_type_message@@3PBDB ; overload_invalid_int_type_message
  001df	50		 push	 eax
  001e0	e8 00 00 00 00	 call	 ?process_assert@@YGXPBD0H@Z ; process_assert
  001e5	c7 45 b0 00 00
	00 00		 mov	 DWORD PTR tv160[ebp], 0
$LN19@process_ho:
  001ec	8b 0d b0 01 00
	00		 mov	 ecx, DWORD PTR ?global_options@@3UGLOBAL_OPTIONS_DATA@@A+432
  001f2	c1 e9 08	 shr	 ecx, 8
  001f5	83 e1 01	 and	 ecx, 1
  001f8	51		 push	 ecx
  001f9	6a 6b		 push	 107			; 0000006bH
  001fb	8b 15 00 00 00
	00		 mov	 edx, DWORD PTR ?session_entity@@3PAUENTITY@@A ; session_entity
  00201	52		 push	 edx
  00202	69 45 b4 5c 04
	00 00		 imul	 eax, DWORD PTR tv152[ebp], 1116
  00209	8b 4d b0	 mov	 ecx, DWORD PTR tv160[ebp]
  0020c	8b 94 88 00 00
	00 00		 mov	 edx, DWORD PTR ?fn_set_local_entity_int_value@@3PAY0BBH@P6GXPAUENTITY@@W4INT_TYPES@@H@ZA[eax+ecx*4]
  00213	ff d2		 call	 edx

; 1630 : 			set_local_entity_int_value (get_session_entity (), INT_TYPE_INVULNERABLE_FROM_WEAPONS, get_global_session_campaign_realism_invulnerable_from_weapons());

  00215	83 3d 00 00 00
	00 00		 cmp	 DWORD PTR ?session_entity@@3PAUENTITY@@A, 0 ; session_entity
  0021c	74 0c		 je	 SHORT $LN20@process_ho
  0021e	a1 00 00 00 00	 mov	 eax, DWORD PTR ?session_entity@@3PAUENTITY@@A ; session_entity
  00223	8b 08		 mov	 ecx, DWORD PTR [eax]
  00225	89 4d b4	 mov	 DWORD PTR tv174[ebp], ecx
  00228	eb 21		 jmp	 SHORT $LN21@process_ho
$LN20@process_ho:
  0022a	8b 15 00 00 00
	00		 mov	 edx, DWORD PTR ?__LINE__Var@?0??process_host_session_setup_options@@YGXXZ@4JA
  00230	83 c2 1e	 add	 edx, 30			; 0000001eH
  00233	52		 push	 edx
  00234	68 00 00 00 00	 push	 OFFSET ??_C@_0EI@IEMDHCOG@c?3?2users?2nhv90?2projects?2eech?2ap@
  00239	a1 00 00 00 00	 mov	 eax, DWORD PTR ?null_entity_pointer_message@@3PBDB ; null_entity_pointer_message
  0023e	50		 push	 eax
  0023f	e8 00 00 00 00	 call	 ?process_assert@@YGXPBD0H@Z ; process_assert
  00244	c7 45 b4 00 00
	00 00		 mov	 DWORD PTR tv174[ebp], 0
$LN21@process_ho:
  0024b	b9 01 00 00 00	 mov	 ecx, 1
  00250	85 c9		 test	 ecx, ecx
  00252	74 09		 je	 SHORT $LN22@process_ho
  00254	c7 45 b0 6c 00
	00 00		 mov	 DWORD PTR tv182[ebp], 108 ; 0000006cH
  0025b	eb 21		 jmp	 SHORT $LN23@process_ho
$LN22@process_ho:
  0025d	8b 15 00 00 00
	00		 mov	 edx, DWORD PTR ?__LINE__Var@?0??process_host_session_setup_options@@YGXXZ@4JA
  00263	83 c2 1e	 add	 edx, 30			; 0000001eH
  00266	52		 push	 edx
  00267	68 00 00 00 00	 push	 OFFSET ??_C@_0EI@IEMDHCOG@c?3?2users?2nhv90?2projects?2eech?2ap@
  0026c	a1 00 00 00 00	 mov	 eax, DWORD PTR ?overload_invalid_int_type_message@@3PBDB ; overload_invalid_int_type_message
  00271	50		 push	 eax
  00272	e8 00 00 00 00	 call	 ?process_assert@@YGXPBD0H@Z ; process_assert
  00277	c7 45 b0 00 00
	00 00		 mov	 DWORD PTR tv182[ebp], 0
$LN23@process_ho:
  0027e	8b 0d b0 01 00
	00		 mov	 ecx, DWORD PTR ?global_options@@3UGLOBAL_OPTIONS_DATA@@A+432
  00284	c1 e9 07	 shr	 ecx, 7
  00287	83 e1 01	 and	 ecx, 1
  0028a	51		 push	 ecx
  0028b	6a 6c		 push	 108			; 0000006cH
  0028d	8b 15 00 00 00
	00		 mov	 edx, DWORD PTR ?session_entity@@3PAUENTITY@@A ; session_entity
  00293	52		 push	 edx
  00294	69 45 b4 5c 04
	00 00		 imul	 eax, DWORD PTR tv174[ebp], 1116
  0029b	8b 4d b0	 mov	 ecx, DWORD PTR tv182[ebp]
  0029e	8b 94 88 00 00
	00 00		 mov	 edx, DWORD PTR ?fn_set_local_entity_int_value@@3PAY0BBH@P6GXPAUENTITY@@W4INT_TYPES@@H@ZA[eax+ecx*4]
  002a5	ff d2		 call	 edx

; 1631 : 			set_local_entity_int_value (get_session_entity (), INT_TYPE_SUPPRESS_AI_FIRE, get_global_session_campaign_realism_suppress_ai_fire());

  002a7	83 3d 00 00 00
	00 00		 cmp	 DWORD PTR ?session_entity@@3PAUENTITY@@A, 0 ; session_entity
  002ae	74 0c		 je	 SHORT $LN24@process_ho
  002b0	a1 00 00 00 00	 mov	 eax, DWORD PTR ?session_entity@@3PAUENTITY@@A ; session_entity
  002b5	8b 08		 mov	 ecx, DWORD PTR [eax]
  002b7	89 4d b4	 mov	 DWORD PTR tv196[ebp], ecx
  002ba	eb 21		 jmp	 SHORT $LN25@process_ho
$LN24@process_ho:
  002bc	8b 15 00 00 00
	00		 mov	 edx, DWORD PTR ?__LINE__Var@?0??process_host_session_setup_options@@YGXXZ@4JA
  002c2	83 c2 1f	 add	 edx, 31			; 0000001fH
  002c5	52		 push	 edx
  002c6	68 00 00 00 00	 push	 OFFSET ??_C@_0EI@IEMDHCOG@c?3?2users?2nhv90?2projects?2eech?2ap@
  002cb	a1 00 00 00 00	 mov	 eax, DWORD PTR ?null_entity_pointer_message@@3PBDB ; null_entity_pointer_message
  002d0	50		 push	 eax
  002d1	e8 00 00 00 00	 call	 ?process_assert@@YGXPBD0H@Z ; process_assert
  002d6	c7 45 b4 00 00
	00 00		 mov	 DWORD PTR tv196[ebp], 0
$LN25@process_ho:
  002dd	b9 01 00 00 00	 mov	 ecx, 1
  002e2	85 c9		 test	 ecx, ecx
  002e4	74 09		 je	 SHORT $LN26@process_ho
  002e6	c7 45 b0 d0 00
	00 00		 mov	 DWORD PTR tv204[ebp], 208 ; 000000d0H
  002ed	eb 21		 jmp	 SHORT $LN27@process_ho
$LN26@process_ho:
  002ef	8b 15 00 00 00
	00		 mov	 edx, DWORD PTR ?__LINE__Var@?0??process_host_session_setup_options@@YGXXZ@4JA
  002f5	83 c2 1f	 add	 edx, 31			; 0000001fH
  002f8	52		 push	 edx
  002f9	68 00 00 00 00	 push	 OFFSET ??_C@_0EI@IEMDHCOG@c?3?2users?2nhv90?2projects?2eech?2ap@
  002fe	a1 00 00 00 00	 mov	 eax, DWORD PTR ?overload_invalid_int_type_message@@3PBDB ; overload_invalid_int_type_message
  00303	50		 push	 eax
  00304	e8 00 00 00 00	 call	 ?process_assert@@YGXPBD0H@Z ; process_assert
  00309	c7 45 b0 00 00
	00 00		 mov	 DWORD PTR tv204[ebp], 0
$LN27@process_ho:
  00310	8b 0d b0 01 00
	00		 mov	 ecx, DWORD PTR ?global_options@@3UGLOBAL_OPTIONS_DATA@@A+432
  00316	c1 e9 09	 shr	 ecx, 9
  00319	83 e1 01	 and	 ecx, 1
  0031c	51		 push	 ecx
  0031d	68 d0 00 00 00	 push	 208			; 000000d0H
  00322	8b 15 00 00 00
	00		 mov	 edx, DWORD PTR ?session_entity@@3PAUENTITY@@A ; session_entity
  00328	52		 push	 edx
  00329	69 45 b4 5c 04
	00 00		 imul	 eax, DWORD PTR tv196[ebp], 1116
  00330	8b 4d b0	 mov	 ecx, DWORD PTR tv204[ebp]
  00333	8b 94 88 00 00
	00 00		 mov	 edx, DWORD PTR ?fn_set_local_entity_int_value@@3PAY0BBH@P6GXPAUENTITY@@W4INT_TYPES@@H@ZA[eax+ecx*4]
  0033a	ff d2		 call	 edx

; 1632 : 
; 1633 : 			weather_setting = get_global_session_campaign_weather();

  0033c	a1 a8 01 00 00	 mov	 eax, DWORD PTR ?global_options@@3UGLOBAL_OPTIONS_DATA@@A+424
  00341	89 45 fc	 mov	 DWORD PTR _weather_setting$[ebp], eax

; 1634 : 			time_of_day = get_global_session_campaign_time_of_day();

  00344	a1 a0 01 00 00	 mov	 eax, DWORD PTR ?global_options@@3UGLOBAL_OPTIONS_DATA@@A+416
  00349	89 45 f8	 mov	 DWORD PTR _time_of_day$[ebp], eax

; 1635 : //VJ 051011 add season summer/winter/desert button
; 1636 : 			//season_setting = get_global_season();
; 1637 : 
; 1638 : 			break;

  0034c	e9 e9 02 00 00	 jmp	 $LN2@process_ho
$LN6@process_ho:

; 1639 : 		}
; 1640 : 
; 1641 : 		case GAME_TYPE_FREE_FLIGHT:
; 1642 : 		{
; 1643 : 
; 1644 : 			set_local_entity_int_value (get_session_entity (), INT_TYPE_INFINITE_FUEL, get_global_session_free_flight_realism_infinite_fuel());

  00351	83 3d 00 00 00
	00 00		 cmp	 DWORD PTR ?session_entity@@3PAUENTITY@@A, 0 ; session_entity
  00358	74 0c		 je	 SHORT $LN28@process_ho
  0035a	a1 00 00 00 00	 mov	 eax, DWORD PTR ?session_entity@@3PAUENTITY@@A ; session_entity
  0035f	8b 08		 mov	 ecx, DWORD PTR [eax]
  00361	89 4d b4	 mov	 DWORD PTR tv218[ebp], ecx
  00364	eb 21		 jmp	 SHORT $LN29@process_ho
$LN28@process_ho:
  00366	8b 15 00 00 00
	00		 mov	 edx, DWORD PTR ?__LINE__Var@?0??process_host_session_setup_options@@YGXXZ@4JA
  0036c	83 c2 2c	 add	 edx, 44			; 0000002cH
  0036f	52		 push	 edx
  00370	68 00 00 00 00	 push	 OFFSET ??_C@_0EI@IEMDHCOG@c?3?2users?2nhv90?2projects?2eech?2ap@
  00375	a1 00 00 00 00	 mov	 eax, DWORD PTR ?null_entity_pointer_message@@3PBDB ; null_entity_pointer_message
  0037a	50		 push	 eax
  0037b	e8 00 00 00 00	 call	 ?process_assert@@YGXPBD0H@Z ; process_assert
  00380	c7 45 b4 00 00
	00 00		 mov	 DWORD PTR tv218[ebp], 0
$LN29@process_ho:
  00387	b9 01 00 00 00	 mov	 ecx, 1
  0038c	85 c9		 test	 ecx, ecx
  0038e	74 09		 je	 SHORT $LN30@process_ho
  00390	c7 45 b0 65 00
	00 00		 mov	 DWORD PTR tv226[ebp], 101 ; 00000065H
  00397	eb 21		 jmp	 SHORT $LN31@process_ho
$LN30@process_ho:
  00399	8b 15 00 00 00
	00		 mov	 edx, DWORD PTR ?__LINE__Var@?0??process_host_session_setup_options@@YGXXZ@4JA
  0039f	83 c2 2c	 add	 edx, 44			; 0000002cH
  003a2	52		 push	 edx
  003a3	68 00 00 00 00	 push	 OFFSET ??_C@_0EI@IEMDHCOG@c?3?2users?2nhv90?2projects?2eech?2ap@
  003a8	a1 00 00 00 00	 mov	 eax, DWORD PTR ?overload_invalid_int_type_message@@3PBDB ; overload_invalid_int_type_message
  003ad	50		 push	 eax
  003ae	e8 00 00 00 00	 call	 ?process_assert@@YGXPBD0H@Z ; process_assert
  003b3	c7 45 b0 00 00
	00 00		 mov	 DWORD PTR tv226[ebp], 0
$LN31@process_ho:
  003ba	8b 0d b0 01 00
	00		 mov	 ecx, DWORD PTR ?global_options@@3UGLOBAL_OPTIONS_DATA@@A+432
  003c0	d1 e9		 shr	 ecx, 1
  003c2	83 e1 01	 and	 ecx, 1
  003c5	51		 push	 ecx
  003c6	6a 65		 push	 101			; 00000065H
  003c8	8b 15 00 00 00
	00		 mov	 edx, DWORD PTR ?session_entity@@3PAUENTITY@@A ; session_entity
  003ce	52		 push	 edx
  003cf	69 45 b4 5c 04
	00 00		 imul	 eax, DWORD PTR tv218[ebp], 1116
  003d6	8b 4d b0	 mov	 ecx, DWORD PTR tv226[ebp]
  003d9	8b 94 88 00 00
	00 00		 mov	 edx, DWORD PTR ?fn_set_local_entity_int_value@@3PAY0BBH@P6GXPAUENTITY@@W4INT_TYPES@@H@ZA[eax+ecx*4]
  003e0	ff d2		 call	 edx

; 1645 : 			set_local_entity_int_value (get_session_entity (), INT_TYPE_INFINITE_WEAPONS, get_global_session_free_flight_realism_infinite_weapons());

  003e2	83 3d 00 00 00
	00 00		 cmp	 DWORD PTR ?session_entity@@3PAUENTITY@@A, 0 ; session_entity
  003e9	74 0c		 je	 SHORT $LN32@process_ho
  003eb	a1 00 00 00 00	 mov	 eax, DWORD PTR ?session_entity@@3PAUENTITY@@A ; session_entity
  003f0	8b 08		 mov	 ecx, DWORD PTR [eax]
  003f2	89 4d b4	 mov	 DWORD PTR tv240[ebp], ecx
  003f5	eb 21		 jmp	 SHORT $LN33@process_ho
$LN32@process_ho:
  003f7	8b 15 00 00 00
	00		 mov	 edx, DWORD PTR ?__LINE__Var@?0??process_host_session_setup_options@@YGXXZ@4JA
  003fd	83 c2 2d	 add	 edx, 45			; 0000002dH
  00400	52		 push	 edx
  00401	68 00 00 00 00	 push	 OFFSET ??_C@_0EI@IEMDHCOG@c?3?2users?2nhv90?2projects?2eech?2ap@
  00406	a1 00 00 00 00	 mov	 eax, DWORD PTR ?null_entity_pointer_message@@3PBDB ; null_entity_pointer_message
  0040b	50		 push	 eax
  0040c	e8 00 00 00 00	 call	 ?process_assert@@YGXPBD0H@Z ; process_assert
  00411	c7 45 b4 00 00
	00 00		 mov	 DWORD PTR tv240[ebp], 0
$LN33@process_ho:
  00418	b9 01 00 00 00	 mov	 ecx, 1
  0041d	85 c9		 test	 ecx, ecx
  0041f	74 09		 je	 SHORT $LN34@process_ho
  00421	c7 45 b0 67 00
	00 00		 mov	 DWORD PTR tv248[ebp], 103 ; 00000067H
  00428	eb 21		 jmp	 SHORT $LN35@process_ho
$LN34@process_ho:
  0042a	8b 15 00 00 00
	00		 mov	 edx, DWORD PTR ?__LINE__Var@?0??process_host_session_setup_options@@YGXXZ@4JA
  00430	83 c2 2d	 add	 edx, 45			; 0000002dH
  00433	52		 push	 edx
  00434	68 00 00 00 00	 push	 OFFSET ??_C@_0EI@IEMDHCOG@c?3?2users?2nhv90?2projects?2eech?2ap@
  00439	a1 00 00 00 00	 mov	 eax, DWORD PTR ?overload_invalid_int_type_message@@3PBDB ; overload_invalid_int_type_message
  0043e	50		 push	 eax
  0043f	e8 00 00 00 00	 call	 ?process_assert@@YGXPBD0H@Z ; process_assert
  00444	c7 45 b0 00 00
	00 00		 mov	 DWORD PTR tv248[ebp], 0
$LN35@process_ho:
  0044b	8b 0d b0 01 00
	00		 mov	 ecx, DWORD PTR ?global_options@@3UGLOBAL_OPTIONS_DATA@@A+432
  00451	83 e1 01	 and	 ecx, 1
  00454	51		 push	 ecx
  00455	6a 67		 push	 103			; 00000067H
  00457	8b 15 00 00 00
	00		 mov	 edx, DWORD PTR ?session_entity@@3PAUENTITY@@A ; session_entity
  0045d	52		 push	 edx
  0045e	69 45 b4 5c 04
	00 00		 imul	 eax, DWORD PTR tv240[ebp], 1116
  00465	8b 4d b0	 mov	 ecx, DWORD PTR tv248[ebp]
  00468	8b 94 88 00 00
	00 00		 mov	 edx, DWORD PTR ?fn_set_local_entity_int_value@@3PAY0BBH@P6GXPAUENTITY@@W4INT_TYPES@@H@ZA[eax+ecx*4]
  0046f	ff d2		 call	 edx

; 1646 : 			set_local_entity_int_value (get_session_entity (), INT_TYPE_INVULNERABLE_FROM_COLLISIONS, get_global_session_free_flight_realism_invulnerable_from_collisions());

  00471	83 3d 00 00 00
	00 00		 cmp	 DWORD PTR ?session_entity@@3PAUENTITY@@A, 0 ; session_entity
  00478	74 0c		 je	 SHORT $LN36@process_ho
  0047a	a1 00 00 00 00	 mov	 eax, DWORD PTR ?session_entity@@3PAUENTITY@@A ; session_entity
  0047f	8b 08		 mov	 ecx, DWORD PTR [eax]
  00481	89 4d b4	 mov	 DWORD PTR tv261[ebp], ecx
  00484	eb 21		 jmp	 SHORT $LN37@process_ho
$LN36@process_ho:
  00486	8b 15 00 00 00
	00		 mov	 edx, DWORD PTR ?__LINE__Var@?0??process_host_session_setup_options@@YGXXZ@4JA
  0048c	83 c2 2e	 add	 edx, 46			; 0000002eH
  0048f	52		 push	 edx
  00490	68 00 00 00 00	 push	 OFFSET ??_C@_0EI@IEMDHCOG@c?3?2users?2nhv90?2projects?2eech?2ap@
  00495	a1 00 00 00 00	 mov	 eax, DWORD PTR ?null_entity_pointer_message@@3PBDB ; null_entity_pointer_message
  0049a	50		 push	 eax
  0049b	e8 00 00 00 00	 call	 ?process_assert@@YGXPBD0H@Z ; process_assert
  004a0	c7 45 b4 00 00
	00 00		 mov	 DWORD PTR tv261[ebp], 0
$LN37@process_ho:
  004a7	b9 01 00 00 00	 mov	 ecx, 1
  004ac	85 c9		 test	 ecx, ecx
  004ae	74 09		 je	 SHORT $LN38@process_ho
  004b0	c7 45 b0 6b 00
	00 00		 mov	 DWORD PTR tv269[ebp], 107 ; 0000006bH
  004b7	eb 21		 jmp	 SHORT $LN39@process_ho
$LN38@process_ho:
  004b9	8b 15 00 00 00
	00		 mov	 edx, DWORD PTR ?__LINE__Var@?0??process_host_session_setup_options@@YGXXZ@4JA
  004bf	83 c2 2e	 add	 edx, 46			; 0000002eH
  004c2	52		 push	 edx
  004c3	68 00 00 00 00	 push	 OFFSET ??_C@_0EI@IEMDHCOG@c?3?2users?2nhv90?2projects?2eech?2ap@
  004c8	a1 00 00 00 00	 mov	 eax, DWORD PTR ?overload_invalid_int_type_message@@3PBDB ; overload_invalid_int_type_message
  004cd	50		 push	 eax
  004ce	e8 00 00 00 00	 call	 ?process_assert@@YGXPBD0H@Z ; process_assert
  004d3	c7 45 b0 00 00
	00 00		 mov	 DWORD PTR tv269[ebp], 0
$LN39@process_ho:
  004da	8b 0d b0 01 00
	00		 mov	 ecx, DWORD PTR ?global_options@@3UGLOBAL_OPTIONS_DATA@@A+432
  004e0	c1 e9 03	 shr	 ecx, 3
  004e3	83 e1 01	 and	 ecx, 1
  004e6	51		 push	 ecx
  004e7	6a 6b		 push	 107			; 0000006bH
  004e9	8b 15 00 00 00
	00		 mov	 edx, DWORD PTR ?session_entity@@3PAUENTITY@@A ; session_entity
  004ef	52		 push	 edx
  004f0	69 45 b4 5c 04
	00 00		 imul	 eax, DWORD PTR tv261[ebp], 1116
  004f7	8b 4d b0	 mov	 ecx, DWORD PTR tv269[ebp]
  004fa	8b 94 88 00 00
	00 00		 mov	 edx, DWORD PTR ?fn_set_local_entity_int_value@@3PAY0BBH@P6GXPAUENTITY@@W4INT_TYPES@@H@ZA[eax+ecx*4]
  00501	ff d2		 call	 edx

; 1647 : 			set_local_entity_int_value (get_session_entity (), INT_TYPE_INVULNERABLE_FROM_WEAPONS, get_global_session_free_flight_realism_invulnerable_from_weapons());

  00503	83 3d 00 00 00
	00 00		 cmp	 DWORD PTR ?session_entity@@3PAUENTITY@@A, 0 ; session_entity
  0050a	74 0c		 je	 SHORT $LN40@process_ho
  0050c	a1 00 00 00 00	 mov	 eax, DWORD PTR ?session_entity@@3PAUENTITY@@A ; session_entity
  00511	8b 08		 mov	 ecx, DWORD PTR [eax]
  00513	89 4d b4	 mov	 DWORD PTR tv283[ebp], ecx
  00516	eb 21		 jmp	 SHORT $LN41@process_ho
$LN40@process_ho:
  00518	8b 15 00 00 00
	00		 mov	 edx, DWORD PTR ?__LINE__Var@?0??process_host_session_setup_options@@YGXXZ@4JA
  0051e	83 c2 2f	 add	 edx, 47			; 0000002fH
  00521	52		 push	 edx
  00522	68 00 00 00 00	 push	 OFFSET ??_C@_0EI@IEMDHCOG@c?3?2users?2nhv90?2projects?2eech?2ap@
  00527	a1 00 00 00 00	 mov	 eax, DWORD PTR ?null_entity_pointer_message@@3PBDB ; null_entity_pointer_message
  0052c	50		 push	 eax
  0052d	e8 00 00 00 00	 call	 ?process_assert@@YGXPBD0H@Z ; process_assert
  00532	c7 45 b4 00 00
	00 00		 mov	 DWORD PTR tv283[ebp], 0
$LN41@process_ho:
  00539	b9 01 00 00 00	 mov	 ecx, 1
  0053e	85 c9		 test	 ecx, ecx
  00540	74 09		 je	 SHORT $LN42@process_ho
  00542	c7 45 b0 6c 00
	00 00		 mov	 DWORD PTR tv291[ebp], 108 ; 0000006cH
  00549	eb 21		 jmp	 SHORT $LN43@process_ho
$LN42@process_ho:
  0054b	8b 15 00 00 00
	00		 mov	 edx, DWORD PTR ?__LINE__Var@?0??process_host_session_setup_options@@YGXXZ@4JA
  00551	83 c2 2f	 add	 edx, 47			; 0000002fH
  00554	52		 push	 edx
  00555	68 00 00 00 00	 push	 OFFSET ??_C@_0EI@IEMDHCOG@c?3?2users?2nhv90?2projects?2eech?2ap@
  0055a	a1 00 00 00 00	 mov	 eax, DWORD PTR ?overload_invalid_int_type_message@@3PBDB ; overload_invalid_int_type_message
  0055f	50		 push	 eax
  00560	e8 00 00 00 00	 call	 ?process_assert@@YGXPBD0H@Z ; process_assert
  00565	c7 45 b0 00 00
	00 00		 mov	 DWORD PTR tv291[ebp], 0
$LN43@process_ho:
  0056c	8b 0d b0 01 00
	00		 mov	 ecx, DWORD PTR ?global_options@@3UGLOBAL_OPTIONS_DATA@@A+432
  00572	c1 e9 02	 shr	 ecx, 2
  00575	83 e1 01	 and	 ecx, 1
  00578	51		 push	 ecx
  00579	6a 6c		 push	 108			; 0000006cH
  0057b	8b 15 00 00 00
	00		 mov	 edx, DWORD PTR ?session_entity@@3PAUENTITY@@A ; session_entity
  00581	52		 push	 edx
  00582	69 45 b4 5c 04
	00 00		 imul	 eax, DWORD PTR tv283[ebp], 1116
  00589	8b 4d b0	 mov	 ecx, DWORD PTR tv291[ebp]
  0058c	8b 94 88 00 00
	00 00		 mov	 edx, DWORD PTR ?fn_set_local_entity_int_value@@3PAY0BBH@P6GXPAUENTITY@@W4INT_TYPES@@H@ZA[eax+ecx*4]
  00593	ff d2		 call	 edx

; 1648 : 			set_local_entity_int_value (get_session_entity (), INT_TYPE_SUPPRESS_AI_FIRE, get_global_session_free_flight_realism_suppress_ai_fire());

  00595	83 3d 00 00 00
	00 00		 cmp	 DWORD PTR ?session_entity@@3PAUENTITY@@A, 0 ; session_entity
  0059c	74 0c		 je	 SHORT $LN44@process_ho
  0059e	a1 00 00 00 00	 mov	 eax, DWORD PTR ?session_entity@@3PAUENTITY@@A ; session_entity
  005a3	8b 08		 mov	 ecx, DWORD PTR [eax]
  005a5	89 4d b4	 mov	 DWORD PTR tv305[ebp], ecx
  005a8	eb 21		 jmp	 SHORT $LN45@process_ho
$LN44@process_ho:
  005aa	8b 15 00 00 00
	00		 mov	 edx, DWORD PTR ?__LINE__Var@?0??process_host_session_setup_options@@YGXXZ@4JA
  005b0	83 c2 30	 add	 edx, 48			; 00000030H
  005b3	52		 push	 edx
  005b4	68 00 00 00 00	 push	 OFFSET ??_C@_0EI@IEMDHCOG@c?3?2users?2nhv90?2projects?2eech?2ap@
  005b9	a1 00 00 00 00	 mov	 eax, DWORD PTR ?null_entity_pointer_message@@3PBDB ; null_entity_pointer_message
  005be	50		 push	 eax
  005bf	e8 00 00 00 00	 call	 ?process_assert@@YGXPBD0H@Z ; process_assert
  005c4	c7 45 b4 00 00
	00 00		 mov	 DWORD PTR tv305[ebp], 0
$LN45@process_ho:
  005cb	b9 01 00 00 00	 mov	 ecx, 1
  005d0	85 c9		 test	 ecx, ecx
  005d2	74 09		 je	 SHORT $LN46@process_ho
  005d4	c7 45 b0 d0 00
	00 00		 mov	 DWORD PTR tv313[ebp], 208 ; 000000d0H
  005db	eb 21		 jmp	 SHORT $LN47@process_ho
$LN46@process_ho:
  005dd	8b 15 00 00 00
	00		 mov	 edx, DWORD PTR ?__LINE__Var@?0??process_host_session_setup_options@@YGXXZ@4JA
  005e3	83 c2 30	 add	 edx, 48			; 00000030H
  005e6	52		 push	 edx
  005e7	68 00 00 00 00	 push	 OFFSET ??_C@_0EI@IEMDHCOG@c?3?2users?2nhv90?2projects?2eech?2ap@
  005ec	a1 00 00 00 00	 mov	 eax, DWORD PTR ?overload_invalid_int_type_message@@3PBDB ; overload_invalid_int_type_message
  005f1	50		 push	 eax
  005f2	e8 00 00 00 00	 call	 ?process_assert@@YGXPBD0H@Z ; process_assert
  005f7	c7 45 b0 00 00
	00 00		 mov	 DWORD PTR tv313[ebp], 0
$LN47@process_ho:
  005fe	8b 0d b0 01 00
	00		 mov	 ecx, DWORD PTR ?global_options@@3UGLOBAL_OPTIONS_DATA@@A+432
  00604	c1 e9 04	 shr	 ecx, 4
  00607	83 e1 01	 and	 ecx, 1
  0060a	51		 push	 ecx
  0060b	68 d0 00 00 00	 push	 208			; 000000d0H
  00610	8b 15 00 00 00
	00		 mov	 edx, DWORD PTR ?session_entity@@3PAUENTITY@@A ; session_entity
  00616	52		 push	 edx
  00617	69 45 b4 5c 04
	00 00		 imul	 eax, DWORD PTR tv305[ebp], 1116
  0061e	8b 4d b0	 mov	 ecx, DWORD PTR tv313[ebp]
  00621	8b 94 88 00 00
	00 00		 mov	 edx, DWORD PTR ?fn_set_local_entity_int_value@@3PAY0BBH@P6GXPAUENTITY@@W4INT_TYPES@@H@ZA[eax+ecx*4]
  00628	ff d2		 call	 edx

; 1649 : 
; 1650 : 			weather_setting = get_global_session_free_flight_weather();

  0062a	a1 a4 01 00 00	 mov	 eax, DWORD PTR ?global_options@@3UGLOBAL_OPTIONS_DATA@@A+420
  0062f	89 45 fc	 mov	 DWORD PTR _weather_setting$[ebp], eax

; 1651 : 			time_of_day = get_global_session_free_flight_time_of_day();

  00632	a1 9c 01 00 00	 mov	 eax, DWORD PTR ?global_options@@3UGLOBAL_OPTIONS_DATA@@A+412
  00637	89 45 f8	 mov	 DWORD PTR _time_of_day$[ebp], eax
$LN2@process_ho:

; 1652 : //VJ 051011 add season summer/winter/desert button
; 1653 : 			//season_setting = get_global_season();
; 1654 : 
; 1655 : 			break;
; 1656 : 		}
; 1657 : 	}
; 1658 : 
; 1659 : 	//
; 1660 : 	// set weather
; 1661 : 	//
; 1662 : 
; 1663 : 	process_session_setup_weather_options (weather_setting);

  0063a	8b 45 fc	 mov	 eax, DWORD PTR _weather_setting$[ebp]
  0063d	50		 push	 eax
  0063e	e8 00 00 00 00	 call	 ?process_session_setup_weather_options@@YGXW4SESSION_WEATHER_SETTINGS@@@Z ; process_session_setup_weather_options

; 1664 : 
; 1665 : 	//
; 1666 : 	// set time of day
; 1667 : 	//
; 1668 : 
; 1669 : 	process_session_setup_time_of_day_options (time_of_day);

  00643	8b 45 f8	 mov	 eax, DWORD PTR _time_of_day$[ebp]
  00646	50		 push	 eax
  00647	e8 00 00 00 00	 call	 ?process_session_setup_time_of_day_options@@YGXW4SESSION_TIME_OF_DAY_SETTINGS@@@Z ; process_session_setup_time_of_day_options

; 1670 : }

  0064c	5f		 pop	 edi
  0064d	5e		 pop	 esi
  0064e	5b		 pop	 ebx
  0064f	8b e5		 mov	 esp, ebp
  00651	5d		 pop	 ebp
  00652	c3		 ret	 0
?process_host_session_setup_options@@YGXXZ ENDP		; process_host_session_setup_options
_TEXT	ENDS
; Function compile flags: /Odtp /ZI
; File c:\users\nhv90\projects\eech\aphavoc\source\ui_menu\sessparm\sparm_sc.c
;	COMDAT ?notify_clear_all_session_parameters@@YGXXZ
_TEXT	SEGMENT
?notify_clear_all_session_parameters@@YGXXZ PROC	; notify_clear_all_session_parameters, COMDAT

; 298  : {

  00000	55		 push	 ebp
  00001	8b ec		 mov	 ebp, esp
  00003	83 ec 40	 sub	 esp, 64			; 00000040H
  00006	53		 push	 ebx
  00007	56		 push	 esi
  00008	57		 push	 edi

; 299  : 	set_ui_object_drawable (session_parameters_area, FALSE);

  00009	6a 00		 push	 0
  0000b	a1 00 00 00 00	 mov	 eax, DWORD PTR ?session_parameters_area@@3PAUUI_OBJECT@@A ; session_parameters_area
  00010	50		 push	 eax
  00011	8b 0d 00 00 00
	00		 mov	 ecx, DWORD PTR ?session_parameters_area@@3PAUUI_OBJECT@@A ; session_parameters_area
  00017	8b 11		 mov	 edx, DWORD PTR [ecx]
  00019	8b 04 95 00 00
	00 00		 mov	 eax, DWORD PTR ?fn_set_ui_object_drawable@@3PAP6GXPAUUI_OBJECT@@H@ZA[edx*4]
  00020	ff d0		 call	 eax

; 300  : 	set_ui_object_drawable (session_briefing_overlay, FALSE);

  00022	6a 00		 push	 0
  00024	a1 00 00 00 00	 mov	 eax, DWORD PTR ?session_briefing_overlay@@3PAUUI_OBJECT@@A ; session_briefing_overlay
  00029	50		 push	 eax
  0002a	8b 0d 00 00 00
	00		 mov	 ecx, DWORD PTR ?session_briefing_overlay@@3PAUUI_OBJECT@@A ; session_briefing_overlay
  00030	8b 11		 mov	 edx, DWORD PTR [ecx]
  00032	8b 04 95 00 00
	00 00		 mov	 eax, DWORD PTR ?fn_set_ui_object_drawable@@3PAP6GXPAUUI_OBJECT@@H@ZA[edx*4]
  00039	ff d0		 call	 eax

; 301  : 	set_ui_object_drawable (time_of_day_area, FALSE);

  0003b	6a 00		 push	 0
  0003d	a1 00 00 00 00	 mov	 eax, DWORD PTR ?time_of_day_area@@3PAUUI_OBJECT@@A ; time_of_day_area
  00042	50		 push	 eax
  00043	8b 0d 00 00 00
	00		 mov	 ecx, DWORD PTR ?time_of_day_area@@3PAUUI_OBJECT@@A ; time_of_day_area
  00049	8b 11		 mov	 edx, DWORD PTR [ecx]
  0004b	8b 04 95 00 00
	00 00		 mov	 eax, DWORD PTR ?fn_set_ui_object_drawable@@3PAP6GXPAUUI_OBJECT@@H@ZA[edx*4]
  00052	ff d0		 call	 eax

; 302  : 	set_ui_object_drawable (season_area, FALSE);

  00054	6a 00		 push	 0
  00056	a1 00 00 00 00	 mov	 eax, DWORD PTR ?season_area@@3PAUUI_OBJECT@@A ; season_area
  0005b	50		 push	 eax
  0005c	8b 0d 00 00 00
	00		 mov	 ecx, DWORD PTR ?season_area@@3PAUUI_OBJECT@@A ; season_area
  00062	8b 11		 mov	 edx, DWORD PTR [ecx]
  00064	8b 04 95 00 00
	00 00		 mov	 eax, DWORD PTR ?fn_set_ui_object_drawable@@3PAP6GXPAUUI_OBJECT@@H@ZA[edx*4]
  0006b	ff d0		 call	 eax

; 303  : 	set_ui_object_drawable (weather_area, FALSE);

  0006d	6a 00		 push	 0
  0006f	a1 00 00 00 00	 mov	 eax, DWORD PTR ?weather_area@@3PAUUI_OBJECT@@A ; weather_area
  00074	50		 push	 eax
  00075	8b 0d 00 00 00
	00		 mov	 ecx, DWORD PTR ?weather_area@@3PAUUI_OBJECT@@A ; weather_area
  0007b	8b 11		 mov	 edx, DWORD PTR [ecx]
  0007d	8b 04 95 00 00
	00 00		 mov	 eax, DWORD PTR ?fn_set_ui_object_drawable@@3PAP6GXPAUUI_OBJECT@@H@ZA[edx*4]
  00084	ff d0		 call	 eax

; 304  : 	set_ui_object_drawable (realism_inf_weapons_area, FALSE);

  00086	6a 00		 push	 0
  00088	a1 00 00 00 00	 mov	 eax, DWORD PTR ?realism_inf_weapons_area@@3PAUUI_OBJECT@@A ; realism_inf_weapons_area
  0008d	50		 push	 eax
  0008e	8b 0d 00 00 00
	00		 mov	 ecx, DWORD PTR ?realism_inf_weapons_area@@3PAUUI_OBJECT@@A ; realism_inf_weapons_area
  00094	8b 11		 mov	 edx, DWORD PTR [ecx]
  00096	8b 04 95 00 00
	00 00		 mov	 eax, DWORD PTR ?fn_set_ui_object_drawable@@3PAP6GXPAUUI_OBJECT@@H@ZA[edx*4]
  0009d	ff d0		 call	 eax

; 305  : 	set_ui_object_drawable (realism_inf_fuel_area, FALSE);

  0009f	6a 00		 push	 0
  000a1	a1 00 00 00 00	 mov	 eax, DWORD PTR ?realism_inf_fuel_area@@3PAUUI_OBJECT@@A ; realism_inf_fuel_area
  000a6	50		 push	 eax
  000a7	8b 0d 00 00 00
	00		 mov	 ecx, DWORD PTR ?realism_inf_fuel_area@@3PAUUI_OBJECT@@A ; realism_inf_fuel_area
  000ad	8b 11		 mov	 edx, DWORD PTR [ecx]
  000af	8b 04 95 00 00
	00 00		 mov	 eax, DWORD PTR ?fn_set_ui_object_drawable@@3PAP6GXPAUUI_OBJECT@@H@ZA[edx*4]
  000b6	ff d0		 call	 eax

; 306  : 	set_ui_object_drawable (realism_collisions_area, FALSE);

  000b8	6a 00		 push	 0
  000ba	a1 00 00 00 00	 mov	 eax, DWORD PTR ?realism_collisions_area@@3PAUUI_OBJECT@@A ; realism_collisions_area
  000bf	50		 push	 eax
  000c0	8b 0d 00 00 00
	00		 mov	 ecx, DWORD PTR ?realism_collisions_area@@3PAUUI_OBJECT@@A ; realism_collisions_area
  000c6	8b 11		 mov	 edx, DWORD PTR [ecx]
  000c8	8b 04 95 00 00
	00 00		 mov	 eax, DWORD PTR ?fn_set_ui_object_drawable@@3PAP6GXPAUUI_OBJECT@@H@ZA[edx*4]
  000cf	ff d0		 call	 eax

; 307  : 	set_ui_object_drawable (realism_weapons_damage_area, FALSE);

  000d1	6a 00		 push	 0
  000d3	a1 00 00 00 00	 mov	 eax, DWORD PTR ?realism_weapons_damage_area@@3PAUUI_OBJECT@@A ; realism_weapons_damage_area
  000d8	50		 push	 eax
  000d9	8b 0d 00 00 00
	00		 mov	 ecx, DWORD PTR ?realism_weapons_damage_area@@3PAUUI_OBJECT@@A ; realism_weapons_damage_area
  000df	8b 11		 mov	 edx, DWORD PTR [ecx]
  000e1	8b 04 95 00 00
	00 00		 mov	 eax, DWORD PTR ?fn_set_ui_object_drawable@@3PAP6GXPAUUI_OBJECT@@H@ZA[edx*4]
  000e8	ff d0		 call	 eax

; 308  : 	set_ui_object_drawable (realism_suppress_ai_fire_area, FALSE);

  000ea	6a 00		 push	 0
  000ec	a1 00 00 00 00	 mov	 eax, DWORD PTR ?realism_suppress_ai_fire_area@@3PAUUI_OBJECT@@A ; realism_suppress_ai_fire_area
  000f1	50		 push	 eax
  000f2	8b 0d 00 00 00
	00		 mov	 ecx, DWORD PTR ?realism_suppress_ai_fire_area@@3PAUUI_OBJECT@@A ; realism_suppress_ai_fire_area
  000f8	8b 11		 mov	 edx, DWORD PTR [ecx]
  000fa	8b 04 95 00 00
	00 00		 mov	 eax, DWORD PTR ?fn_set_ui_object_drawable@@3PAP6GXPAUUI_OBJECT@@H@ZA[edx*4]
  00101	ff d0		 call	 eax

; 309  : }

  00103	5f		 pop	 edi
  00104	5e		 pop	 esi
  00105	5b		 pop	 ebx
  00106	8b e5		 mov	 esp, ebp
  00108	5d		 pop	 ebp
  00109	c3		 ret	 0
?notify_clear_all_session_parameters@@YGXXZ ENDP	; notify_clear_all_session_parameters
_TEXT	ENDS
; Function compile flags: /Odtp /ZI
; File c:\users\nhv90\projects\eech\aphavoc\source\ui_menu\sessparm\sparm_sc.c
;	COMDAT ?notify_session_parameters@@YGXXZ
_TEXT	SEGMENT
tv287 = -72						; size = 4
tv270 = -72						; size = 4
tv224 = -72						; size = 4
tv138 = -72						; size = 4
_y$ = -4						; size = 4
?notify_session_parameters@@YGXXZ PROC			; notify_session_parameters, COMDAT

; 147  : {

  00000	55		 push	 ebp
  00001	8b ec		 mov	 ebp, esp
  00003	83 ec 48	 sub	 esp, 72			; 00000048H
  00006	53		 push	 ebx
  00007	56		 push	 esi
  00008	57		 push	 edi

; 148  : 	float
; 149  : 		y;
; 150  : 
; 151  : 	notify_clear_all_session_parameters ();

  00009	e8 00 00 00 00	 call	 ?notify_clear_all_session_parameters@@YGXXZ ; notify_clear_all_session_parameters

; 152  : 
; 153  : 	//VJ 051227 reading map inof data for automatic custom map
; 154  : 	// function declared in textuser.c
; 155  : 	debug_log("###CUSTOM TEXTURE STARTUP: sparm_sc: notify_session_parameters: read_map_info_data");

  0000e	68 00 00 00 00	 push	 OFFSET ??_C@_0FD@DGECAID@?$CD?$CD?$CDCUSTOM?5TEXTURE?5STARTUP?3?5spar@
  00013	e8 00 00 00 00	 call	 ?debug_log@@YAXPBDZZ	; debug_log
  00018	83 c4 04	 add	 esp, 4

; 156  : 
; 157  : 	//VJ 080215 add initialize to avoid being stuck on season first selected campaign
; 158  : 	initialise_custom_map_info();

  0001b	e8 00 00 00 00	 call	 ?initialise_custom_map_info@@YGXXZ ; initialise_custom_map_info

; 159  : 
; 160  : 	// 15JUN09 Casm setting season information for saved game
; 161  : 	set_global_season (get_current_game_session()->season);

  00020	a1 00 00 00 00	 mov	 eax, DWORD PTR ?current_game_session@@3PAUSESSION_LIST_DATA_TYPE@@A ; current_game_session
  00025	8b 88 9c 02 00
	00		 mov	 ecx, DWORD PTR [eax+668]
  0002b	89 0d 14 04 00
	00		 mov	 DWORD PTR ?current_map_info@@3UCUSTOM_MAP_INFO@@A+1044, ecx

; 162  : 
; 163  : 	read_map_info_data();

  00031	e8 00 00 00 00	 call	 ?read_map_info_data@@YGXXZ ; read_map_info_data

; 164  : 
; 165  : 	//
; 166  : 	// Set the button states
; 167  : 	//
; 168  : 
; 169  : 	//VJ 051227 set season info with map_info structure
; 170  : 	set_global_season( current_map_info.season );

  00036	a1 14 04 00 00	 mov	 eax, DWORD PTR ?current_map_info@@3UCUSTOM_MAP_INFO@@A+1044
  0003b	a3 14 04 00 00	 mov	 DWORD PTR ?current_map_info@@3UCUSTOM_MAP_INFO@@A+1044, eax

; 171  : 	initialise_noisemaps();

  00040	e8 00 00 00 00	 call	 ?initialise_noisemaps@@YGXXZ ; initialise_noisemaps

; 172  : 
; 173  : 	if (get_current_game_session()->type == SESSION_LIST_TYPE_RESTORE)

  00045	a1 00 00 00 00	 mov	 eax, DWORD PTR ?current_game_session@@3PAUSESSION_LIST_DATA_TYPE@@A ; current_game_session
  0004a	83 78 08 04	 cmp	 DWORD PTR [eax+8], 4
  0004e	75 05		 jne	 SHORT $LN4@notify_ses

; 174  : 	{
; 175  : 		return;

  00050	e9 4c 06 00 00	 jmp	 $LN1@notify_ses
$LN4@notify_ses:

; 176  : 	}
; 177  : 
; 178  : 	if (current_map_info.season != SESSION_SEASON_SUMMER && current_map_info.season != SESSION_SEASON_WINTER)

  00055	83 3d 14 04 00
	00 02		 cmp	 DWORD PTR ?current_map_info@@3UCUSTOM_MAP_INFO@@A+1044, 2
  0005c	74 6e		 je	 SHORT $LN5@notify_ses
  0005e	83 3d 14 04 00
	00 03		 cmp	 DWORD PTR ?current_map_info@@3UCUSTOM_MAP_INFO@@A+1044, 3
  00065	74 65		 je	 SHORT $LN5@notify_ses

; 179  : 	{
; 180  : 		set_ui_object_highlightable (season_button, FALSE);

  00067	6a 00		 push	 0
  00069	a1 00 00 00 00	 mov	 eax, DWORD PTR ?season_button@@3PAUUI_OBJECT@@A ; season_button
  0006e	50		 push	 eax
  0006f	8b 0d 00 00 00
	00		 mov	 ecx, DWORD PTR ?season_button@@3PAUUI_OBJECT@@A ; season_button
  00075	8b 11		 mov	 edx, DWORD PTR [ecx]
  00077	8b 04 95 00 00
	00 00		 mov	 eax, DWORD PTR ?fn_set_ui_object_highlightable@@3PAP6GXPAUUI_OBJECT@@H@ZA[edx*4]
  0007e	ff d0		 call	 eax

; 181  : 
; 182  : 		set_ui_object_font_colour_end (season_button, ui_option_text_default_colour.r, ui_option_text_default_colour.g, ui_option_text_default_colour.b, 127);

  00080	6a 7f		 push	 127			; 0000007fH
  00082	0f b6 05 00 00
	00 00		 movzx	 eax, BYTE PTR ?ui_option_text_default_colour@@3UREAL_COLOUR@@A
  00089	50		 push	 eax
  0008a	0f b6 0d 01 00
	00 00		 movzx	 ecx, BYTE PTR ?ui_option_text_default_colour@@3UREAL_COLOUR@@A+1
  00091	51		 push	 ecx
  00092	0f b6 15 02 00
	00 00		 movzx	 edx, BYTE PTR ?ui_option_text_default_colour@@3UREAL_COLOUR@@A+2
  00099	52		 push	 edx
  0009a	a1 00 00 00 00	 mov	 eax, DWORD PTR ?season_button@@3PAUUI_OBJECT@@A ; season_button
  0009f	50		 push	 eax
  000a0	8b 0d 00 00 00
	00		 mov	 ecx, DWORD PTR ?season_button@@3PAUUI_OBJECT@@A ; season_button
  000a6	8b 11		 mov	 edx, DWORD PTR [ecx]
  000a8	8b 04 95 00 00
	00 00		 mov	 eax, DWORD PTR ?fn_set_ui_object_font_colour_end@@3PAP6GXPAUUI_OBJECT@@DDDD@ZA[edx*4]
  000af	ff d0		 call	 eax

; 183  : 
; 184  : 		set_ui_object_notify_on (season_button, NOTIFY_TYPE_NONE);

  000b1	6a 00		 push	 0
  000b3	a1 00 00 00 00	 mov	 eax, DWORD PTR ?season_button@@3PAUUI_OBJECT@@A ; season_button
  000b8	50		 push	 eax
  000b9	8b 0d 00 00 00
	00		 mov	 ecx, DWORD PTR ?season_button@@3PAUUI_OBJECT@@A ; season_button
  000bf	8b 11		 mov	 edx, DWORD PTR [ecx]
  000c1	8b 04 95 00 00
	00 00		 mov	 eax, DWORD PTR ?fn_set_ui_object_notify_on@@3PAP6GXPAUUI_OBJECT@@W4NOTIFY_TYPES@@@ZA[edx*4]
  000c8	ff d0		 call	 eax

; 185  : 	}
; 186  : 	else

  000ca	eb 66		 jmp	 SHORT $LN6@notify_ses
$LN5@notify_ses:

; 187  : 	{
; 188  : 		set_ui_object_highlightable (season_button, TRUE);

  000cc	6a 01		 push	 1
  000ce	a1 00 00 00 00	 mov	 eax, DWORD PTR ?season_button@@3PAUUI_OBJECT@@A ; season_button
  000d3	50		 push	 eax
  000d4	8b 0d 00 00 00
	00		 mov	 ecx, DWORD PTR ?season_button@@3PAUUI_OBJECT@@A ; season_button
  000da	8b 11		 mov	 edx, DWORD PTR [ecx]
  000dc	8b 04 95 00 00
	00 00		 mov	 eax, DWORD PTR ?fn_set_ui_object_highlightable@@3PAP6GXPAUUI_OBJECT@@H@ZA[edx*4]
  000e3	ff d0		 call	 eax

; 189  : 
; 190  : 		set_ui_object_font_colour_end (season_button, ui_option_text_default_colour.r, ui_option_text_default_colour.g, ui_option_text_default_colour.b, 255);

  000e5	68 ff 00 00 00	 push	 255			; 000000ffH
  000ea	0f b6 05 00 00
	00 00		 movzx	 eax, BYTE PTR ?ui_option_text_default_colour@@3UREAL_COLOUR@@A
  000f1	50		 push	 eax
  000f2	0f b6 0d 01 00
	00 00		 movzx	 ecx, BYTE PTR ?ui_option_text_default_colour@@3UREAL_COLOUR@@A+1
  000f9	51		 push	 ecx
  000fa	0f b6 15 02 00
	00 00		 movzx	 edx, BYTE PTR ?ui_option_text_default_colour@@3UREAL_COLOUR@@A+2
  00101	52		 push	 edx
  00102	a1 00 00 00 00	 mov	 eax, DWORD PTR ?season_button@@3PAUUI_OBJECT@@A ; season_button
  00107	50		 push	 eax
  00108	8b 0d 00 00 00
	00		 mov	 ecx, DWORD PTR ?season_button@@3PAUUI_OBJECT@@A ; season_button
  0010e	8b 11		 mov	 edx, DWORD PTR [ecx]
  00110	8b 04 95 00 00
	00 00		 mov	 eax, DWORD PTR ?fn_set_ui_object_font_colour_end@@3PAP6GXPAUUI_OBJECT@@DDDD@ZA[edx*4]
  00117	ff d0		 call	 eax

; 191  : 
; 192  : 		set_ui_object_notify_on (season_button, NOTIFY_TYPE_BUTTON_DOWN);

  00119	6a 02		 push	 2
  0011b	a1 00 00 00 00	 mov	 eax, DWORD PTR ?season_button@@3PAUUI_OBJECT@@A ; season_button
  00120	50		 push	 eax
  00121	8b 0d 00 00 00
	00		 mov	 ecx, DWORD PTR ?season_button@@3PAUUI_OBJECT@@A ; season_button
  00127	8b 11		 mov	 edx, DWORD PTR [ecx]
  00129	8b 04 95 00 00
	00 00		 mov	 eax, DWORD PTR ?fn_set_ui_object_notify_on@@3PAP6GXPAUUI_OBJECT@@W4NOTIFY_TYPES@@@ZA[edx*4]
  00130	ff d0		 call	 eax
$LN6@notify_ses:

; 193  : 	}
; 194  : 
; 195  : 	switch ( get_game_type () )

  00132	a1 00 00 00 00	 mov	 eax, DWORD PTR ?game_type@@3W4GAME_TYPES@@A ; game_type
  00137	89 45 b8	 mov	 DWORD PTR tv138[ebp], eax
  0013a	83 7d b8 01	 cmp	 DWORD PTR tv138[ebp], 1
  0013e	74 19		 je	 SHORT $LN7@notify_ses
  00140	83 7d b8 01	 cmp	 DWORD PTR tv138[ebp], 1
  00144	0f 8e 57 05 00
	00		 jle	 $LN2@notify_ses
  0014a	83 7d b8 03	 cmp	 DWORD PTR tv138[ebp], 3
  0014e	0f 8e e6 03 00
	00		 jle	 $LN8@notify_ses
  00154	e9 48 05 00 00	 jmp	 $LN2@notify_ses
$LN7@notify_ses:

; 196  : 	{
; 197  : 
; 198  : 		case GAME_TYPE_FREE_FLIGHT:
; 199  : 		{
; 200  : //VJ 051011 add season summer/winter/desert button
; 201  : 			y = 0.333;

  00159	f3 0f 10 05 00
	00 00 00	 movss	 xmm0, DWORD PTR __real@3eaa7efa
  00161	f3 0f 11 45 fc	 movss	 DWORD PTR _y$[ebp], xmm0

; 202  : 			set_ui_object_virtual_y (season_area, y);

  00166	51		 push	 ecx
  00167	f3 0f 10 45 fc	 movss	 xmm0, DWORD PTR _y$[ebp]
  0016c	f3 0f 11 04 24	 movss	 DWORD PTR [esp], xmm0
  00171	a1 00 00 00 00	 mov	 eax, DWORD PTR ?season_area@@3PAUUI_OBJECT@@A ; season_area
  00176	50		 push	 eax
  00177	8b 0d 00 00 00
	00		 mov	 ecx, DWORD PTR ?season_area@@3PAUUI_OBJECT@@A ; season_area
  0017d	8b 11		 mov	 edx, DWORD PTR [ecx]
  0017f	8b 04 95 00 00
	00 00		 mov	 eax, DWORD PTR ?fn_set_ui_object_virtual_y@@3PAP6GXPAUUI_OBJECT@@M@ZA[edx*4]
  00186	ff d0		 call	 eax

; 203  : 			set_ui_object_text (season_button, season_text [get_global_season () - 1]);

  00188	a1 14 04 00 00	 mov	 eax, DWORD PTR ?current_map_info@@3UCUSTOM_MAP_INFO@@A+1044
  0018d	8b 0c 85 fc ff
	ff ff		 mov	 ecx, DWORD PTR ?season_text@@3PAPBDA[eax*4-4]
  00194	51		 push	 ecx
  00195	8b 15 00 00 00
	00		 mov	 edx, DWORD PTR ?season_button@@3PAUUI_OBJECT@@A ; season_button
  0019b	52		 push	 edx
  0019c	a1 00 00 00 00	 mov	 eax, DWORD PTR ?season_button@@3PAUUI_OBJECT@@A ; season_button
  001a1	8b 08		 mov	 ecx, DWORD PTR [eax]
  001a3	8b 14 8d 00 00
	00 00		 mov	 edx, DWORD PTR ?fn_set_ui_object_text@@3PAP6GXPAUUI_OBJECT@@PBD@ZA[ecx*4]
  001aa	ff d2		 call	 edx

; 204  : 
; 205  : 			y += OPTION_AREA_OFFSET_Y;

  001ac	f3 0f 10 45 fc	 movss	 xmm0, DWORD PTR _y$[ebp]
  001b1	f3 0f 58 05 00
	00 00 00	 addss	 xmm0, DWORD PTR __real@3d7df3b6
  001b9	f3 0f 11 45 fc	 movss	 DWORD PTR _y$[ebp], xmm0

; 206  : 			set_ui_object_virtual_y (time_of_day_area, y);

  001be	51		 push	 ecx
  001bf	f3 0f 10 45 fc	 movss	 xmm0, DWORD PTR _y$[ebp]
  001c4	f3 0f 11 04 24	 movss	 DWORD PTR [esp], xmm0
  001c9	a1 00 00 00 00	 mov	 eax, DWORD PTR ?time_of_day_area@@3PAUUI_OBJECT@@A ; time_of_day_area
  001ce	50		 push	 eax
  001cf	8b 0d 00 00 00
	00		 mov	 ecx, DWORD PTR ?time_of_day_area@@3PAUUI_OBJECT@@A ; time_of_day_area
  001d5	8b 11		 mov	 edx, DWORD PTR [ecx]
  001d7	8b 04 95 00 00
	00 00		 mov	 eax, DWORD PTR ?fn_set_ui_object_virtual_y@@3PAP6GXPAUUI_OBJECT@@M@ZA[edx*4]
  001de	ff d0		 call	 eax

; 207  : 			set_ui_object_text (time_of_day_button, time_of_day_text [get_global_session_free_flight_time_of_day () - 1]);

  001e0	a1 9c 01 00 00	 mov	 eax, DWORD PTR ?global_options@@3UGLOBAL_OPTIONS_DATA@@A+412
  001e5	8b 0c 85 fc ff
	ff ff		 mov	 ecx, DWORD PTR ?time_of_day_text@@3PAPBDA[eax*4-4]
  001ec	51		 push	 ecx
  001ed	8b 15 00 00 00
	00		 mov	 edx, DWORD PTR ?time_of_day_button@@3PAUUI_OBJECT@@A ; time_of_day_button
  001f3	52		 push	 edx
  001f4	a1 00 00 00 00	 mov	 eax, DWORD PTR ?time_of_day_button@@3PAUUI_OBJECT@@A ; time_of_day_button
  001f9	8b 08		 mov	 ecx, DWORD PTR [eax]
  001fb	8b 14 8d 00 00
	00 00		 mov	 edx, DWORD PTR ?fn_set_ui_object_text@@3PAP6GXPAUUI_OBJECT@@PBD@ZA[ecx*4]
  00202	ff d2		 call	 edx

; 208  : 
; 209  : 			y += OPTION_AREA_OFFSET_Y;

  00204	f3 0f 10 45 fc	 movss	 xmm0, DWORD PTR _y$[ebp]
  00209	f3 0f 58 05 00
	00 00 00	 addss	 xmm0, DWORD PTR __real@3d7df3b6
  00211	f3 0f 11 45 fc	 movss	 DWORD PTR _y$[ebp], xmm0

; 210  : 			set_ui_object_virtual_y (weather_area, y);

  00216	51		 push	 ecx
  00217	f3 0f 10 45 fc	 movss	 xmm0, DWORD PTR _y$[ebp]
  0021c	f3 0f 11 04 24	 movss	 DWORD PTR [esp], xmm0
  00221	a1 00 00 00 00	 mov	 eax, DWORD PTR ?weather_area@@3PAUUI_OBJECT@@A ; weather_area
  00226	50		 push	 eax
  00227	8b 0d 00 00 00
	00		 mov	 ecx, DWORD PTR ?weather_area@@3PAUUI_OBJECT@@A ; weather_area
  0022d	8b 11		 mov	 edx, DWORD PTR [ecx]
  0022f	8b 04 95 00 00
	00 00		 mov	 eax, DWORD PTR ?fn_set_ui_object_virtual_y@@3PAP6GXPAUUI_OBJECT@@M@ZA[edx*4]
  00236	ff d0		 call	 eax

; 211  : 			set_ui_object_text (weather_button, weather_text [get_global_session_free_flight_weather () - 1]);

  00238	a1 a4 01 00 00	 mov	 eax, DWORD PTR ?global_options@@3UGLOBAL_OPTIONS_DATA@@A+420
  0023d	8b 0c 85 fc ff
	ff ff		 mov	 ecx, DWORD PTR ?weather_text@@3PAPBDA[eax*4-4]
  00244	51		 push	 ecx
  00245	8b 15 00 00 00
	00		 mov	 edx, DWORD PTR ?weather_button@@3PAUUI_OBJECT@@A ; weather_button
  0024b	52		 push	 edx
  0024c	a1 00 00 00 00	 mov	 eax, DWORD PTR ?weather_button@@3PAUUI_OBJECT@@A ; weather_button
  00251	8b 08		 mov	 ecx, DWORD PTR [eax]
  00253	8b 14 8d 00 00
	00 00		 mov	 edx, DWORD PTR ?fn_set_ui_object_text@@3PAP6GXPAUUI_OBJECT@@PBD@ZA[ecx*4]
  0025a	ff d2		 call	 edx

; 212  : 
; 213  : 			y += OPTION_AREA_OFFSET_Y;

  0025c	f3 0f 10 45 fc	 movss	 xmm0, DWORD PTR _y$[ebp]
  00261	f3 0f 58 05 00
	00 00 00	 addss	 xmm0, DWORD PTR __real@3d7df3b6
  00269	f3 0f 11 45 fc	 movss	 DWORD PTR _y$[ebp], xmm0

; 214  : 			set_ui_object_virtual_y (realism_suppress_ai_fire_area, y);

  0026e	51		 push	 ecx
  0026f	f3 0f 10 45 fc	 movss	 xmm0, DWORD PTR _y$[ebp]
  00274	f3 0f 11 04 24	 movss	 DWORD PTR [esp], xmm0
  00279	a1 00 00 00 00	 mov	 eax, DWORD PTR ?realism_suppress_ai_fire_area@@3PAUUI_OBJECT@@A ; realism_suppress_ai_fire_area
  0027e	50		 push	 eax
  0027f	8b 0d 00 00 00
	00		 mov	 ecx, DWORD PTR ?realism_suppress_ai_fire_area@@3PAUUI_OBJECT@@A ; realism_suppress_ai_fire_area
  00285	8b 11		 mov	 edx, DWORD PTR [ecx]
  00287	8b 04 95 00 00
	00 00		 mov	 eax, DWORD PTR ?fn_set_ui_object_virtual_y@@3PAP6GXPAUUI_OBJECT@@M@ZA[edx*4]
  0028e	ff d0		 call	 eax

; 215  : 			set_ui_object_text (realism_suppress_ai_fire_button, suppress_ai_fire_text [!get_global_session_free_flight_realism_suppress_ai_fire ()]);

  00290	a1 b0 01 00 00	 mov	 eax, DWORD PTR ?global_options@@3UGLOBAL_OPTIONS_DATA@@A+432
  00295	c1 e8 04	 shr	 eax, 4
  00298	83 e0 01	 and	 eax, 1
  0029b	75 09		 jne	 SHORT $LN10@notify_ses
  0029d	c7 45 b8 01 00
	00 00		 mov	 DWORD PTR tv224[ebp], 1
  002a4	eb 07		 jmp	 SHORT $LN11@notify_ses
$LN10@notify_ses:
  002a6	c7 45 b8 00 00
	00 00		 mov	 DWORD PTR tv224[ebp], 0
$LN11@notify_ses:
  002ad	8b 4d b8	 mov	 ecx, DWORD PTR tv224[ebp]
  002b0	8b 14 8d 00 00
	00 00		 mov	 edx, DWORD PTR ?suppress_ai_fire_text@@3PAPBDA[ecx*4]
  002b7	52		 push	 edx
  002b8	a1 00 00 00 00	 mov	 eax, DWORD PTR ?realism_suppress_ai_fire_button@@3PAUUI_OBJECT@@A ; realism_suppress_ai_fire_button
  002bd	50		 push	 eax
  002be	8b 0d 00 00 00
	00		 mov	 ecx, DWORD PTR ?realism_suppress_ai_fire_button@@3PAUUI_OBJECT@@A ; realism_suppress_ai_fire_button
  002c4	8b 11		 mov	 edx, DWORD PTR [ecx]
  002c6	8b 04 95 00 00
	00 00		 mov	 eax, DWORD PTR ?fn_set_ui_object_text@@3PAP6GXPAUUI_OBJECT@@PBD@ZA[edx*4]
  002cd	ff d0		 call	 eax

; 216  : 
; 217  : 			y += SETUP_DIVIDER_HEIGHT;

  002cf	f3 0f 10 45 fc	 movss	 xmm0, DWORD PTR _y$[ebp]
  002d4	f3 0f 58 05 00
	00 00 00	 addss	 xmm0, DWORD PTR __real@3d99999a
  002dc	f3 0f 11 45 fc	 movss	 DWORD PTR _y$[ebp], xmm0

; 218  : 			set_ui_object_virtual_y (realism_inf_weapons_area, y);

  002e1	51		 push	 ecx
  002e2	f3 0f 10 45 fc	 movss	 xmm0, DWORD PTR _y$[ebp]
  002e7	f3 0f 11 04 24	 movss	 DWORD PTR [esp], xmm0
  002ec	a1 00 00 00 00	 mov	 eax, DWORD PTR ?realism_inf_weapons_area@@3PAUUI_OBJECT@@A ; realism_inf_weapons_area
  002f1	50		 push	 eax
  002f2	8b 0d 00 00 00
	00		 mov	 ecx, DWORD PTR ?realism_inf_weapons_area@@3PAUUI_OBJECT@@A ; realism_inf_weapons_area
  002f8	8b 11		 mov	 edx, DWORD PTR [ecx]
  002fa	8b 04 95 00 00
	00 00		 mov	 eax, DWORD PTR ?fn_set_ui_object_virtual_y@@3PAP6GXPAUUI_OBJECT@@M@ZA[edx*4]
  00301	ff d0		 call	 eax

; 219  : 			set_ui_object_text (realism_inf_weapons_button, boolean_text [get_global_session_free_flight_realism_infinite_weapons ()]);

  00303	a1 b0 01 00 00	 mov	 eax, DWORD PTR ?global_options@@3UGLOBAL_OPTIONS_DATA@@A+432
  00308	83 e0 01	 and	 eax, 1
  0030b	8b 0c 85 00 00
	00 00		 mov	 ecx, DWORD PTR ?boolean_text@@3PAPBDA[eax*4]
  00312	51		 push	 ecx
  00313	8b 15 00 00 00
	00		 mov	 edx, DWORD PTR ?realism_inf_weapons_button@@3PAUUI_OBJECT@@A ; realism_inf_weapons_button
  00319	52		 push	 edx
  0031a	a1 00 00 00 00	 mov	 eax, DWORD PTR ?realism_inf_weapons_button@@3PAUUI_OBJECT@@A ; realism_inf_weapons_button
  0031f	8b 08		 mov	 ecx, DWORD PTR [eax]
  00321	8b 14 8d 00 00
	00 00		 mov	 edx, DWORD PTR ?fn_set_ui_object_text@@3PAP6GXPAUUI_OBJECT@@PBD@ZA[ecx*4]
  00328	ff d2		 call	 edx

; 220  : 
; 221  : 			y += OPTION_AREA_OFFSET_Y;

  0032a	f3 0f 10 45 fc	 movss	 xmm0, DWORD PTR _y$[ebp]
  0032f	f3 0f 58 05 00
	00 00 00	 addss	 xmm0, DWORD PTR __real@3d7df3b6
  00337	f3 0f 11 45 fc	 movss	 DWORD PTR _y$[ebp], xmm0

; 222  : 			set_ui_object_virtual_y (realism_inf_fuel_area, y);

  0033c	51		 push	 ecx
  0033d	f3 0f 10 45 fc	 movss	 xmm0, DWORD PTR _y$[ebp]
  00342	f3 0f 11 04 24	 movss	 DWORD PTR [esp], xmm0
  00347	a1 00 00 00 00	 mov	 eax, DWORD PTR ?realism_inf_fuel_area@@3PAUUI_OBJECT@@A ; realism_inf_fuel_area
  0034c	50		 push	 eax
  0034d	8b 0d 00 00 00
	00		 mov	 ecx, DWORD PTR ?realism_inf_fuel_area@@3PAUUI_OBJECT@@A ; realism_inf_fuel_area
  00353	8b 11		 mov	 edx, DWORD PTR [ecx]
  00355	8b 04 95 00 00
	00 00		 mov	 eax, DWORD PTR ?fn_set_ui_object_virtual_y@@3PAP6GXPAUUI_OBJECT@@M@ZA[edx*4]
  0035c	ff d0		 call	 eax

; 223  : 			set_ui_object_text (realism_inf_fuel_button, boolean_text [get_global_session_free_flight_realism_infinite_fuel ()]);

  0035e	a1 b0 01 00 00	 mov	 eax, DWORD PTR ?global_options@@3UGLOBAL_OPTIONS_DATA@@A+432
  00363	d1 e8		 shr	 eax, 1
  00365	83 e0 01	 and	 eax, 1
  00368	8b 0c 85 00 00
	00 00		 mov	 ecx, DWORD PTR ?boolean_text@@3PAPBDA[eax*4]
  0036f	51		 push	 ecx
  00370	8b 15 00 00 00
	00		 mov	 edx, DWORD PTR ?realism_inf_fuel_button@@3PAUUI_OBJECT@@A ; realism_inf_fuel_button
  00376	52		 push	 edx
  00377	a1 00 00 00 00	 mov	 eax, DWORD PTR ?realism_inf_fuel_button@@3PAUUI_OBJECT@@A ; realism_inf_fuel_button
  0037c	8b 08		 mov	 ecx, DWORD PTR [eax]
  0037e	8b 14 8d 00 00
	00 00		 mov	 edx, DWORD PTR ?fn_set_ui_object_text@@3PAP6GXPAUUI_OBJECT@@PBD@ZA[ecx*4]
  00385	ff d2		 call	 edx

; 224  : 
; 225  : 			y += OPTION_AREA_OFFSET_Y;

  00387	f3 0f 10 45 fc	 movss	 xmm0, DWORD PTR _y$[ebp]
  0038c	f3 0f 58 05 00
	00 00 00	 addss	 xmm0, DWORD PTR __real@3d7df3b6
  00394	f3 0f 11 45 fc	 movss	 DWORD PTR _y$[ebp], xmm0

; 226  : 			set_ui_object_virtual_y (realism_collisions_area, y);

  00399	51		 push	 ecx
  0039a	f3 0f 10 45 fc	 movss	 xmm0, DWORD PTR _y$[ebp]
  0039f	f3 0f 11 04 24	 movss	 DWORD PTR [esp], xmm0
  003a4	a1 00 00 00 00	 mov	 eax, DWORD PTR ?realism_collisions_area@@3PAUUI_OBJECT@@A ; realism_collisions_area
  003a9	50		 push	 eax
  003aa	8b 0d 00 00 00
	00		 mov	 ecx, DWORD PTR ?realism_collisions_area@@3PAUUI_OBJECT@@A ; realism_collisions_area
  003b0	8b 11		 mov	 edx, DWORD PTR [ecx]
  003b2	8b 04 95 00 00
	00 00		 mov	 eax, DWORD PTR ?fn_set_ui_object_virtual_y@@3PAP6GXPAUUI_OBJECT@@M@ZA[edx*4]
  003b9	ff d0		 call	 eax

; 227  : 			set_ui_object_text (realism_collisions_button, boolean_text [!get_global_session_free_flight_realism_invulnerable_from_collisions ()]);

  003bb	a1 b0 01 00 00	 mov	 eax, DWORD PTR ?global_options@@3UGLOBAL_OPTIONS_DATA@@A+432
  003c0	c1 e8 03	 shr	 eax, 3
  003c3	83 e0 01	 and	 eax, 1
  003c6	75 09		 jne	 SHORT $LN12@notify_ses
  003c8	c7 45 b8 01 00
	00 00		 mov	 DWORD PTR tv270[ebp], 1
  003cf	eb 07		 jmp	 SHORT $LN13@notify_ses
$LN12@notify_ses:
  003d1	c7 45 b8 00 00
	00 00		 mov	 DWORD PTR tv270[ebp], 0
$LN13@notify_ses:
  003d8	8b 4d b8	 mov	 ecx, DWORD PTR tv270[ebp]
  003db	8b 14 8d 00 00
	00 00		 mov	 edx, DWORD PTR ?boolean_text@@3PAPBDA[ecx*4]
  003e2	52		 push	 edx
  003e3	a1 00 00 00 00	 mov	 eax, DWORD PTR ?realism_collisions_button@@3PAUUI_OBJECT@@A ; realism_collisions_button
  003e8	50		 push	 eax
  003e9	8b 0d 00 00 00
	00		 mov	 ecx, DWORD PTR ?realism_collisions_button@@3PAUUI_OBJECT@@A ; realism_collisions_button
  003ef	8b 11		 mov	 edx, DWORD PTR [ecx]
  003f1	8b 04 95 00 00
	00 00		 mov	 eax, DWORD PTR ?fn_set_ui_object_text@@3PAP6GXPAUUI_OBJECT@@PBD@ZA[edx*4]
  003f8	ff d0		 call	 eax

; 228  : 
; 229  : 			y += OPTION_AREA_OFFSET_Y;

  003fa	f3 0f 10 45 fc	 movss	 xmm0, DWORD PTR _y$[ebp]
  003ff	f3 0f 58 05 00
	00 00 00	 addss	 xmm0, DWORD PTR __real@3d7df3b6
  00407	f3 0f 11 45 fc	 movss	 DWORD PTR _y$[ebp], xmm0

; 230  : 			set_ui_object_virtual_y (realism_weapons_damage_area, y);

  0040c	51		 push	 ecx
  0040d	f3 0f 10 45 fc	 movss	 xmm0, DWORD PTR _y$[ebp]
  00412	f3 0f 11 04 24	 movss	 DWORD PTR [esp], xmm0
  00417	a1 00 00 00 00	 mov	 eax, DWORD PTR ?realism_weapons_damage_area@@3PAUUI_OBJECT@@A ; realism_weapons_damage_area
  0041c	50		 push	 eax
  0041d	8b 0d 00 00 00
	00		 mov	 ecx, DWORD PTR ?realism_weapons_damage_area@@3PAUUI_OBJECT@@A ; realism_weapons_damage_area
  00423	8b 11		 mov	 edx, DWORD PTR [ecx]
  00425	8b 04 95 00 00
	00 00		 mov	 eax, DWORD PTR ?fn_set_ui_object_virtual_y@@3PAP6GXPAUUI_OBJECT@@M@ZA[edx*4]
  0042c	ff d0		 call	 eax

; 231  : 			set_ui_object_text (realism_weapons_damage_button, boolean_text [!get_global_session_free_flight_realism_invulnerable_from_weapons ()]);

  0042e	a1 b0 01 00 00	 mov	 eax, DWORD PTR ?global_options@@3UGLOBAL_OPTIONS_DATA@@A+432
  00433	c1 e8 02	 shr	 eax, 2
  00436	83 e0 01	 and	 eax, 1
  00439	75 09		 jne	 SHORT $LN14@notify_ses
  0043b	c7 45 b8 01 00
	00 00		 mov	 DWORD PTR tv287[ebp], 1
  00442	eb 07		 jmp	 SHORT $LN15@notify_ses
$LN14@notify_ses:
  00444	c7 45 b8 00 00
	00 00		 mov	 DWORD PTR tv287[ebp], 0
$LN15@notify_ses:
  0044b	8b 4d b8	 mov	 ecx, DWORD PTR tv287[ebp]
  0044e	8b 14 8d 00 00
	00 00		 mov	 edx, DWORD PTR ?boolean_text@@3PAPBDA[ecx*4]
  00455	52		 push	 edx
  00456	a1 00 00 00 00	 mov	 eax, DWORD PTR ?realism_weapons_damage_button@@3PAUUI_OBJECT@@A ; realism_weapons_damage_button
  0045b	50		 push	 eax
  0045c	8b 0d 00 00 00
	00		 mov	 ecx, DWORD PTR ?realism_weapons_damage_button@@3PAUUI_OBJECT@@A ; realism_weapons_damage_button
  00462	8b 11		 mov	 edx, DWORD PTR [ecx]
  00464	8b 04 95 00 00
	00 00		 mov	 eax, DWORD PTR ?fn_set_ui_object_text@@3PAP6GXPAUUI_OBJECT@@PBD@ZA[edx*4]
  0046b	ff d0		 call	 eax

; 232  : 
; 233  : 			set_ui_object_drawable (time_of_day_area, TRUE);

  0046d	6a 01		 push	 1
  0046f	a1 00 00 00 00	 mov	 eax, DWORD PTR ?time_of_day_area@@3PAUUI_OBJECT@@A ; time_of_day_area
  00474	50		 push	 eax
  00475	8b 0d 00 00 00
	00		 mov	 ecx, DWORD PTR ?time_of_day_area@@3PAUUI_OBJECT@@A ; time_of_day_area
  0047b	8b 11		 mov	 edx, DWORD PTR [ecx]
  0047d	8b 04 95 00 00
	00 00		 mov	 eax, DWORD PTR ?fn_set_ui_object_drawable@@3PAP6GXPAUUI_OBJECT@@H@ZA[edx*4]
  00484	ff d0		 call	 eax

; 234  : 			set_ui_object_drawable (season_area, TRUE);

  00486	6a 01		 push	 1
  00488	a1 00 00 00 00	 mov	 eax, DWORD PTR ?season_area@@3PAUUI_OBJECT@@A ; season_area
  0048d	50		 push	 eax
  0048e	8b 0d 00 00 00
	00		 mov	 ecx, DWORD PTR ?season_area@@3PAUUI_OBJECT@@A ; season_area
  00494	8b 11		 mov	 edx, DWORD PTR [ecx]
  00496	8b 04 95 00 00
	00 00		 mov	 eax, DWORD PTR ?fn_set_ui_object_drawable@@3PAP6GXPAUUI_OBJECT@@H@ZA[edx*4]
  0049d	ff d0		 call	 eax

; 235  : 			set_ui_object_drawable (weather_area, TRUE);

  0049f	6a 01		 push	 1
  004a1	a1 00 00 00 00	 mov	 eax, DWORD PTR ?weather_area@@3PAUUI_OBJECT@@A ; weather_area
  004a6	50		 push	 eax
  004a7	8b 0d 00 00 00
	00		 mov	 ecx, DWORD PTR ?weather_area@@3PAUUI_OBJECT@@A ; weather_area
  004ad	8b 11		 mov	 edx, DWORD PTR [ecx]
  004af	8b 04 95 00 00
	00 00		 mov	 eax, DWORD PTR ?fn_set_ui_object_drawable@@3PAP6GXPAUUI_OBJECT@@H@ZA[edx*4]
  004b6	ff d0		 call	 eax

; 236  : 			set_ui_object_drawable (realism_inf_weapons_area, TRUE);

  004b8	6a 01		 push	 1
  004ba	a1 00 00 00 00	 mov	 eax, DWORD PTR ?realism_inf_weapons_area@@3PAUUI_OBJECT@@A ; realism_inf_weapons_area
  004bf	50		 push	 eax
  004c0	8b 0d 00 00 00
	00		 mov	 ecx, DWORD PTR ?realism_inf_weapons_area@@3PAUUI_OBJECT@@A ; realism_inf_weapons_area
  004c6	8b 11		 mov	 edx, DWORD PTR [ecx]
  004c8	8b 04 95 00 00
	00 00		 mov	 eax, DWORD PTR ?fn_set_ui_object_drawable@@3PAP6GXPAUUI_OBJECT@@H@ZA[edx*4]
  004cf	ff d0		 call	 eax

; 237  : 			set_ui_object_drawable (realism_inf_fuel_area, TRUE);

  004d1	6a 01		 push	 1
  004d3	a1 00 00 00 00	 mov	 eax, DWORD PTR ?realism_inf_fuel_area@@3PAUUI_OBJECT@@A ; realism_inf_fuel_area
  004d8	50		 push	 eax
  004d9	8b 0d 00 00 00
	00		 mov	 ecx, DWORD PTR ?realism_inf_fuel_area@@3PAUUI_OBJECT@@A ; realism_inf_fuel_area
  004df	8b 11		 mov	 edx, DWORD PTR [ecx]
  004e1	8b 04 95 00 00
	00 00		 mov	 eax, DWORD PTR ?fn_set_ui_object_drawable@@3PAP6GXPAUUI_OBJECT@@H@ZA[edx*4]
  004e8	ff d0		 call	 eax

; 238  : 			set_ui_object_drawable (realism_collisions_area, TRUE);

  004ea	6a 01		 push	 1
  004ec	a1 00 00 00 00	 mov	 eax, DWORD PTR ?realism_collisions_area@@3PAUUI_OBJECT@@A ; realism_collisions_area
  004f1	50		 push	 eax
  004f2	8b 0d 00 00 00
	00		 mov	 ecx, DWORD PTR ?realism_collisions_area@@3PAUUI_OBJECT@@A ; realism_collisions_area
  004f8	8b 11		 mov	 edx, DWORD PTR [ecx]
  004fa	8b 04 95 00 00
	00 00		 mov	 eax, DWORD PTR ?fn_set_ui_object_drawable@@3PAP6GXPAUUI_OBJECT@@H@ZA[edx*4]
  00501	ff d0		 call	 eax

; 239  : 			set_ui_object_drawable (realism_weapons_damage_area, TRUE);

  00503	6a 01		 push	 1
  00505	a1 00 00 00 00	 mov	 eax, DWORD PTR ?realism_weapons_damage_area@@3PAUUI_OBJECT@@A ; realism_weapons_damage_area
  0050a	50		 push	 eax
  0050b	8b 0d 00 00 00
	00		 mov	 ecx, DWORD PTR ?realism_weapons_damage_area@@3PAUUI_OBJECT@@A ; realism_weapons_damage_area
  00511	8b 11		 mov	 edx, DWORD PTR [ecx]
  00513	8b 04 95 00 00
	00 00		 mov	 eax, DWORD PTR ?fn_set_ui_object_drawable@@3PAP6GXPAUUI_OBJECT@@H@ZA[edx*4]
  0051a	ff d0		 call	 eax

; 240  : 			set_ui_object_drawable (realism_suppress_ai_fire_area, TRUE);

  0051c	6a 01		 push	 1
  0051e	a1 00 00 00 00	 mov	 eax, DWORD PTR ?realism_suppress_ai_fire_area@@3PAUUI_OBJECT@@A ; realism_suppress_ai_fire_area
  00523	50		 push	 eax
  00524	8b 0d 00 00 00
	00		 mov	 ecx, DWORD PTR ?realism_suppress_ai_fire_area@@3PAUUI_OBJECT@@A ; realism_suppress_ai_fire_area
  0052a	8b 11		 mov	 edx, DWORD PTR [ecx]
  0052c	8b 04 95 00 00
	00 00		 mov	 eax, DWORD PTR ?fn_set_ui_object_drawable@@3PAP6GXPAUUI_OBJECT@@H@ZA[edx*4]
  00533	ff d0		 call	 eax

; 241  : 
; 242  : 			break;

  00535	e9 67 01 00 00	 jmp	 $LN2@notify_ses
$LN8@notify_ses:

; 243  : 		}
; 244  : 
; 245  : 		case GAME_TYPE_CAMPAIGN:
; 246  : 		case GAME_TYPE_SKIRMISH:
; 247  : 		{
; 248  : 	//VJ 051011 add season summer/winter/desert button
; 249  : 			y = 0.533;

  0053a	f3 0f 10 05 00
	00 00 00	 movss	 xmm0, DWORD PTR __real@3f0872b0
  00542	f3 0f 11 45 fc	 movss	 DWORD PTR _y$[ebp], xmm0

; 250  : 			set_ui_object_virtual_y (season_area, y);

  00547	51		 push	 ecx
  00548	f3 0f 10 45 fc	 movss	 xmm0, DWORD PTR _y$[ebp]
  0054d	f3 0f 11 04 24	 movss	 DWORD PTR [esp], xmm0
  00552	a1 00 00 00 00	 mov	 eax, DWORD PTR ?season_area@@3PAUUI_OBJECT@@A ; season_area
  00557	50		 push	 eax
  00558	8b 0d 00 00 00
	00		 mov	 ecx, DWORD PTR ?season_area@@3PAUUI_OBJECT@@A ; season_area
  0055e	8b 11		 mov	 edx, DWORD PTR [ecx]
  00560	8b 04 95 00 00
	00 00		 mov	 eax, DWORD PTR ?fn_set_ui_object_virtual_y@@3PAP6GXPAUUI_OBJECT@@M@ZA[edx*4]
  00567	ff d0		 call	 eax

; 251  : 			set_ui_object_text (season_button, season_text [get_global_season () - 1]);

  00569	a1 14 04 00 00	 mov	 eax, DWORD PTR ?current_map_info@@3UCUSTOM_MAP_INFO@@A+1044
  0056e	8b 0c 85 fc ff
	ff ff		 mov	 ecx, DWORD PTR ?season_text@@3PAPBDA[eax*4-4]
  00575	51		 push	 ecx
  00576	8b 15 00 00 00
	00		 mov	 edx, DWORD PTR ?season_button@@3PAUUI_OBJECT@@A ; season_button
  0057c	52		 push	 edx
  0057d	a1 00 00 00 00	 mov	 eax, DWORD PTR ?season_button@@3PAUUI_OBJECT@@A ; season_button
  00582	8b 08		 mov	 ecx, DWORD PTR [eax]
  00584	8b 14 8d 00 00
	00 00		 mov	 edx, DWORD PTR ?fn_set_ui_object_text@@3PAP6GXPAUUI_OBJECT@@PBD@ZA[ecx*4]
  0058b	ff d2		 call	 edx

; 252  : 
; 253  : 			y += OPTION_AREA_OFFSET_Y;

  0058d	f3 0f 10 45 fc	 movss	 xmm0, DWORD PTR _y$[ebp]
  00592	f3 0f 58 05 00
	00 00 00	 addss	 xmm0, DWORD PTR __real@3d7df3b6
  0059a	f3 0f 11 45 fc	 movss	 DWORD PTR _y$[ebp], xmm0

; 254  : 			set_ui_object_virtual_y (time_of_day_area, y);

  0059f	51		 push	 ecx
  005a0	f3 0f 10 45 fc	 movss	 xmm0, DWORD PTR _y$[ebp]
  005a5	f3 0f 11 04 24	 movss	 DWORD PTR [esp], xmm0
  005aa	a1 00 00 00 00	 mov	 eax, DWORD PTR ?time_of_day_area@@3PAUUI_OBJECT@@A ; time_of_day_area
  005af	50		 push	 eax
  005b0	8b 0d 00 00 00
	00		 mov	 ecx, DWORD PTR ?time_of_day_area@@3PAUUI_OBJECT@@A ; time_of_day_area
  005b6	8b 11		 mov	 edx, DWORD PTR [ecx]
  005b8	8b 04 95 00 00
	00 00		 mov	 eax, DWORD PTR ?fn_set_ui_object_virtual_y@@3PAP6GXPAUUI_OBJECT@@M@ZA[edx*4]
  005bf	ff d0		 call	 eax

; 255  : 			set_ui_object_text (time_of_day_button, time_of_day_text [get_global_session_campaign_time_of_day () - 1]);

  005c1	a1 a0 01 00 00	 mov	 eax, DWORD PTR ?global_options@@3UGLOBAL_OPTIONS_DATA@@A+416
  005c6	8b 0c 85 fc ff
	ff ff		 mov	 ecx, DWORD PTR ?time_of_day_text@@3PAPBDA[eax*4-4]
  005cd	51		 push	 ecx
  005ce	8b 15 00 00 00
	00		 mov	 edx, DWORD PTR ?time_of_day_button@@3PAUUI_OBJECT@@A ; time_of_day_button
  005d4	52		 push	 edx
  005d5	a1 00 00 00 00	 mov	 eax, DWORD PTR ?time_of_day_button@@3PAUUI_OBJECT@@A ; time_of_day_button
  005da	8b 08		 mov	 ecx, DWORD PTR [eax]
  005dc	8b 14 8d 00 00
	00 00		 mov	 edx, DWORD PTR ?fn_set_ui_object_text@@3PAP6GXPAUUI_OBJECT@@PBD@ZA[ecx*4]
  005e3	ff d2		 call	 edx

; 256  : 
; 257  : 			y += OPTION_AREA_OFFSET_Y;

  005e5	f3 0f 10 45 fc	 movss	 xmm0, DWORD PTR _y$[ebp]
  005ea	f3 0f 58 05 00
	00 00 00	 addss	 xmm0, DWORD PTR __real@3d7df3b6
  005f2	f3 0f 11 45 fc	 movss	 DWORD PTR _y$[ebp], xmm0

; 258  : 			set_ui_object_virtual_y (weather_area, y);

  005f7	51		 push	 ecx
  005f8	f3 0f 10 45 fc	 movss	 xmm0, DWORD PTR _y$[ebp]
  005fd	f3 0f 11 04 24	 movss	 DWORD PTR [esp], xmm0
  00602	a1 00 00 00 00	 mov	 eax, DWORD PTR ?weather_area@@3PAUUI_OBJECT@@A ; weather_area
  00607	50		 push	 eax
  00608	8b 0d 00 00 00
	00		 mov	 ecx, DWORD PTR ?weather_area@@3PAUUI_OBJECT@@A ; weather_area
  0060e	8b 11		 mov	 edx, DWORD PTR [ecx]
  00610	8b 04 95 00 00
	00 00		 mov	 eax, DWORD PTR ?fn_set_ui_object_virtual_y@@3PAP6GXPAUUI_OBJECT@@M@ZA[edx*4]
  00617	ff d0		 call	 eax

; 259  : 			set_ui_object_text (weather_button, weather_text [get_global_session_campaign_weather () - 1]);

  00619	a1 a8 01 00 00	 mov	 eax, DWORD PTR ?global_options@@3UGLOBAL_OPTIONS_DATA@@A+424
  0061e	8b 0c 85 fc ff
	ff ff		 mov	 ecx, DWORD PTR ?weather_text@@3PAPBDA[eax*4-4]
  00625	51		 push	 ecx
  00626	8b 15 00 00 00
	00		 mov	 edx, DWORD PTR ?weather_button@@3PAUUI_OBJECT@@A ; weather_button
  0062c	52		 push	 edx
  0062d	a1 00 00 00 00	 mov	 eax, DWORD PTR ?weather_button@@3PAUUI_OBJECT@@A ; weather_button
  00632	8b 08		 mov	 ecx, DWORD PTR [eax]
  00634	8b 14 8d 00 00
	00 00		 mov	 edx, DWORD PTR ?fn_set_ui_object_text@@3PAP6GXPAUUI_OBJECT@@PBD@ZA[ecx*4]
  0063b	ff d2		 call	 edx

; 260  : 
; 261  : 			set_ui_object_drawable (session_briefing_overlay, TRUE);

  0063d	6a 01		 push	 1
  0063f	a1 00 00 00 00	 mov	 eax, DWORD PTR ?session_briefing_overlay@@3PAUUI_OBJECT@@A ; session_briefing_overlay
  00644	50		 push	 eax
  00645	8b 0d 00 00 00
	00		 mov	 ecx, DWORD PTR ?session_briefing_overlay@@3PAUUI_OBJECT@@A ; session_briefing_overlay
  0064b	8b 11		 mov	 edx, DWORD PTR [ecx]
  0064d	8b 04 95 00 00
	00 00		 mov	 eax, DWORD PTR ?fn_set_ui_object_drawable@@3PAP6GXPAUUI_OBJECT@@H@ZA[edx*4]
  00654	ff d0		 call	 eax

; 262  : 			set_ui_object_drawable (time_of_day_area, TRUE);

  00656	6a 01		 push	 1
  00658	a1 00 00 00 00	 mov	 eax, DWORD PTR ?time_of_day_area@@3PAUUI_OBJECT@@A ; time_of_day_area
  0065d	50		 push	 eax
  0065e	8b 0d 00 00 00
	00		 mov	 ecx, DWORD PTR ?time_of_day_area@@3PAUUI_OBJECT@@A ; time_of_day_area
  00664	8b 11		 mov	 edx, DWORD PTR [ecx]
  00666	8b 04 95 00 00
	00 00		 mov	 eax, DWORD PTR ?fn_set_ui_object_drawable@@3PAP6GXPAUUI_OBJECT@@H@ZA[edx*4]
  0066d	ff d0		 call	 eax

; 263  : 			set_ui_object_drawable (season_area, TRUE);

  0066f	6a 01		 push	 1
  00671	a1 00 00 00 00	 mov	 eax, DWORD PTR ?season_area@@3PAUUI_OBJECT@@A ; season_area
  00676	50		 push	 eax
  00677	8b 0d 00 00 00
	00		 mov	 ecx, DWORD PTR ?season_area@@3PAUUI_OBJECT@@A ; season_area
  0067d	8b 11		 mov	 edx, DWORD PTR [ecx]
  0067f	8b 04 95 00 00
	00 00		 mov	 eax, DWORD PTR ?fn_set_ui_object_drawable@@3PAP6GXPAUUI_OBJECT@@H@ZA[edx*4]
  00686	ff d0		 call	 eax

; 264  : 			set_ui_object_drawable (weather_area, TRUE);

  00688	6a 01		 push	 1
  0068a	a1 00 00 00 00	 mov	 eax, DWORD PTR ?weather_area@@3PAUUI_OBJECT@@A ; weather_area
  0068f	50		 push	 eax
  00690	8b 0d 00 00 00
	00		 mov	 ecx, DWORD PTR ?weather_area@@3PAUUI_OBJECT@@A ; weather_area
  00696	8b 11		 mov	 edx, DWORD PTR [ecx]
  00698	8b 04 95 00 00
	00 00		 mov	 eax, DWORD PTR ?fn_set_ui_object_drawable@@3PAP6GXPAUUI_OBJECT@@H@ZA[edx*4]
  0069f	ff d0		 call	 eax
$LN2@notify_ses:
$LN1@notify_ses:

; 265  : 
; 266  : 			break;
; 267  : 		}
; 268  : 	}
; 269  : 
; 270  : 	#if DEMO_VERSION
; 271  : 
; 272  : 		set_ui_object_font_colour_end (realism_inf_fuel_title, ui_option_title_text_colour.r, ui_option_title_text_colour.g, ui_option_title_text_colour.b, 127);
; 273  : 
; 274  : 		set_ui_object_highlightable (realism_inf_fuel_button, FALSE);
; 275  : 
; 276  : 		set_ui_object_font_colour_end (realism_inf_fuel_button, ui_option_text_default_colour.r, ui_option_text_default_colour.g, ui_option_text_default_colour.b, 127);
; 277  : 
; 278  : 		set_ui_object_notify_on (realism_inf_fuel_button, NOTIFY_TYPE_NONE);
; 279  : 
; 280  : 
; 281  : 		set_ui_object_font_colour_end (realism_inf_weapons_title, ui_option_title_text_colour.r, ui_option_title_text_colour.g, ui_option_title_text_colour.b, 127);
; 282  : 
; 283  : 		set_ui_object_highlightable (realism_inf_weapons_button, FALSE);
; 284  : 
; 285  : 		set_ui_object_font_colour_end (realism_inf_weapons_button, ui_option_text_default_colour.r, ui_option_text_default_colour.g, ui_option_text_default_colour.b, 127);
; 286  : 
; 287  : 		set_ui_object_notify_on (realism_inf_weapons_button, NOTIFY_TYPE_NONE);
; 288  : 
; 289  : 	#endif
; 290  : 
; 291  : }

  006a1	5f		 pop	 edi
  006a2	5e		 pop	 esi
  006a3	5b		 pop	 ebx
  006a4	8b e5		 mov	 esp, ebp
  006a6	5d		 pop	 ebp
  006a7	c3		 ret	 0
?notify_session_parameters@@YGXXZ ENDP			; notify_session_parameters
_TEXT	ENDS
; Function compile flags: /Odtp /ZI
; File c:\program files (x86)\windows kits\10\include\10.0.18362.0\ucrt\stdio.h
;	COMDAT _sscanf
_TEXT	SEGMENT
__ArgList$ = -8						; size = 4
__Result$ = -4						; size = 4
__Buffer$ = 8						; size = 4
__Format$ = 12						; size = 4
_sscanf	PROC						; COMDAT

; 2270 :     {

  00000	55		 push	 ebp
  00001	8b ec		 mov	 ebp, esp
  00003	83 ec 4c	 sub	 esp, 76			; 0000004cH
  00006	53		 push	 ebx
  00007	56		 push	 esi
  00008	57		 push	 edi

; 2271 :         int _Result;
; 2272 :         va_list _ArgList;
; 2273 :         __crt_va_start(_ArgList, _Format);

  00009	8d 45 10	 lea	 eax, DWORD PTR __Format$[ebp+4]
  0000c	89 45 f8	 mov	 DWORD PTR __ArgList$[ebp], eax

; 2274 :         _Result = _vsscanf_l(_Buffer, _Format, NULL, _ArgList);

  0000f	8b 45 f8	 mov	 eax, DWORD PTR __ArgList$[ebp]
  00012	50		 push	 eax
  00013	6a 00		 push	 0
  00015	8b 4d 0c	 mov	 ecx, DWORD PTR __Format$[ebp]
  00018	51		 push	 ecx
  00019	8b 55 08	 mov	 edx, DWORD PTR __Buffer$[ebp]
  0001c	52		 push	 edx
  0001d	e8 00 00 00 00	 call	 __vsscanf_l
  00022	83 c4 10	 add	 esp, 16			; 00000010H
  00025	89 45 fc	 mov	 DWORD PTR __Result$[ebp], eax

; 2275 :         __crt_va_end(_ArgList);

  00028	c7 45 f8 00 00
	00 00		 mov	 DWORD PTR __ArgList$[ebp], 0

; 2276 :         return _Result;

  0002f	8b 45 fc	 mov	 eax, DWORD PTR __Result$[ebp]

; 2277 :     }

  00032	5f		 pop	 edi
  00033	5e		 pop	 esi
  00034	5b		 pop	 ebx
  00035	8b e5		 mov	 esp, ebp
  00037	5d		 pop	 ebp
  00038	c3		 ret	 0
_sscanf	ENDP
_TEXT	ENDS
; Function compile flags: /Odtp /ZI
; File c:\program files (x86)\windows kits\10\include\10.0.18362.0\ucrt\stdio.h
;	COMDAT __vsscanf_l
_TEXT	SEGMENT
__Buffer$ = 8						; size = 4
__Format$ = 12						; size = 4
__Locale$ = 16						; size = 4
__ArgList$ = 20						; size = 4
__vsscanf_l PROC					; COMDAT

; 2175 :     {

  00000	55		 push	 ebp
  00001	8b ec		 mov	 ebp, esp
  00003	83 ec 40	 sub	 esp, 64			; 00000040H
  00006	53		 push	 ebx
  00007	56		 push	 esi
  00008	57		 push	 edi

; 2176 :         return __stdio_common_vsscanf(

  00009	8b 45 14	 mov	 eax, DWORD PTR __ArgList$[ebp]
  0000c	50		 push	 eax
  0000d	8b 4d 10	 mov	 ecx, DWORD PTR __Locale$[ebp]
  00010	51		 push	 ecx
  00011	8b 55 0c	 mov	 edx, DWORD PTR __Format$[ebp]
  00014	52		 push	 edx
  00015	6a ff		 push	 -1
  00017	8b 45 08	 mov	 eax, DWORD PTR __Buffer$[ebp]
  0001a	50		 push	 eax
  0001b	e8 00 00 00 00	 call	 ___local_stdio_scanf_options
  00020	8b 48 04	 mov	 ecx, DWORD PTR [eax+4]
  00023	51		 push	 ecx
  00024	8b 10		 mov	 edx, DWORD PTR [eax]
  00026	52		 push	 edx
  00027	ff 15 00 00 00
	00		 call	 DWORD PTR __imp____stdio_common_vsscanf
  0002d	83 c4 1c	 add	 esp, 28			; 0000001cH

; 2177 :             _CRT_INTERNAL_LOCAL_SCANF_OPTIONS,
; 2178 :             _Buffer, (size_t)-1, _Format, _Locale, _ArgList);
; 2179 :     }

  00030	5f		 pop	 edi
  00031	5e		 pop	 esi
  00032	5b		 pop	 ebx
  00033	8b e5		 mov	 esp, ebp
  00035	5d		 pop	 ebp
  00036	c3		 ret	 0
__vsscanf_l ENDP
_TEXT	ENDS
; Function compile flags: /Odtp /ZI
; File c:\program files (x86)\windows kits\10\include\10.0.18362.0\ucrt\corecrt_stdio_config.h
;	COMDAT ___local_stdio_scanf_options
_TEXT	SEGMENT
___local_stdio_scanf_options PROC			; COMDAT

; 96   :     {

  00000	55		 push	 ebp
  00001	8b ec		 mov	 ebp, esp
  00003	83 ec 40	 sub	 esp, 64			; 00000040H
  00006	53		 push	 ebx
  00007	56		 push	 esi
  00008	57		 push	 edi

; 97   :         static unsigned __int64 _OptionsStorage;
; 98   :         return &_OptionsStorage;

  00009	b8 00 00 00 00	 mov	 eax, OFFSET ?_OptionsStorage@?1??__local_stdio_scanf_options@@9@4_KA ; `__local_stdio_scanf_options'::`2'::_OptionsStorage

; 99   :     }

  0000e	5f		 pop	 edi
  0000f	5e		 pop	 esi
  00010	5b		 pop	 ebx
  00011	8b e5		 mov	 esp, ebp
  00013	5d		 pop	 ebp
  00014	c3		 ret	 0
___local_stdio_scanf_options ENDP
_TEXT	ENDS
END
