; Listing generated by Microsoft (R) Optimizing Compiler Version 19.16.27045.0 

	TITLE	C:\Users\nhv90\Projects\eech\aphavoc\source\entity\special\effect\soundeff\spch_hdg.c
	.686P
	.XMM
	include listing.inc
	.model	flat

INCLUDELIB MSVCRTD
INCLUDELIB OLDNAMES

PUBLIC	?initialise_speech_headings_data@@YGXXZ		; initialise_speech_headings_data
EXTRN	?initialise_sample_index_array@@YGXW4speech_array_types@@W4speech_originator_types@@H@Z:PROC ; initialise_sample_index_array
EXTRN	?initialise_speech_data@@YGXW4speech_array_types@@W4speech_originator_types@@HHH@Z:PROC ; initialise_speech_data
; Function compile flags: /Odtp /ZI
; File c:\users\nhv90\projects\eech\aphavoc\source\entity\special\effect\soundeff\spch_hdg.c
;	COMDAT ?initialise_speech_headings_data@@YGXXZ
_TEXT	SEGMENT
_max_items$ = -12					; size = 4
_o$ = -8						; size = 4
_a$ = -4						; size = 4
?initialise_speech_headings_data@@YGXXZ PROC		; initialise_speech_headings_data, COMDAT

; 77   : {

  00000	55		 push	 ebp
  00001	8b ec		 mov	 ebp, esp
  00003	83 ec 4c	 sub	 esp, 76			; 0000004cH
  00006	53		 push	 ebx
  00007	56		 push	 esi
  00008	57		 push	 edi

; 78   : 	speech_array_types
; 79   : 		a = SPEECH_ARRAY_HEADINGS;

  00009	c7 45 fc 01 00
	00 00		 mov	 DWORD PTR _a$[ebp], 1

; 80   : 
; 81   : 	speech_originator_types
; 82   : 		o;
; 83   : 
; 84   : 	int
; 85   : 		max_items = NUM_SPEECH_HEADINGS;

  00010	c7 45 f4 0c 00
	00 00		 mov	 DWORD PTR _max_items$[ebp], 12 ; 0000000cH

; 86   : 
; 87   : 	//
; 88   : 	// SYSTEM
; 89   : 	//
; 90   : 	{				
; 91   : 		o = SPEECH_ORIGINATOR_SYSTEM;

  00017	c7 45 f8 00 00
	00 00		 mov	 DWORD PTR _o$[ebp], 0

; 92   : 	
; 93   : 		initialise_sample_index_array (a, o, max_items);

  0001e	8b 45 f4	 mov	 eax, DWORD PTR _max_items$[ebp]
  00021	50		 push	 eax
  00022	8b 4d f8	 mov	 ecx, DWORD PTR _o$[ebp]
  00025	51		 push	 ecx
  00026	8b 55 fc	 mov	 edx, DWORD PTR _a$[ebp]
  00029	52		 push	 edx
  0002a	e8 00 00 00 00	 call	 ?initialise_sample_index_array@@YGXW4speech_array_types@@W4speech_originator_types@@H@Z ; initialise_sample_index_array

; 94   : 	}
; 95   : 
; 96   : 	//
; 97   : 	// CO PILOT
; 98   : 	//
; 99   : 	{	
; 100  : 		o = SPEECH_ORIGINATOR_CO_PILOT;

  0002f	c7 45 f8 01 00
	00 00		 mov	 DWORD PTR _o$[ebp], 1

; 101  : 		
; 102  : 		initialise_sample_index_array (a, o, max_items);

  00036	8b 45 f4	 mov	 eax, DWORD PTR _max_items$[ebp]
  00039	50		 push	 eax
  0003a	8b 4d f8	 mov	 ecx, DWORD PTR _o$[ebp]
  0003d	51		 push	 ecx
  0003e	8b 55 fc	 mov	 edx, DWORD PTR _a$[ebp]
  00041	52		 push	 edx
  00042	e8 00 00 00 00	 call	 ?initialise_sample_index_array@@YGXW4speech_array_types@@W4speech_originator_types@@H@Z ; initialise_sample_index_array

; 103  : 
; 104  : 		initialise_speech_data (a, o, SPEECH_HEADING_ONE_O_CLOCK, 		SOUND_SAMPLE_INDEX_SPEECH_US_CPG_CLOCK_01, SOUND_SAMPLE_INDEX_SPEECH_CIS_CPG_CLOCK_01);

  00047	68 2a 07 00 00	 push	 1834			; 0000072aH
  0004c	68 75 06 00 00	 push	 1653			; 00000675H
  00051	6a 00		 push	 0
  00053	8b 45 f8	 mov	 eax, DWORD PTR _o$[ebp]
  00056	50		 push	 eax
  00057	8b 4d fc	 mov	 ecx, DWORD PTR _a$[ebp]
  0005a	51		 push	 ecx
  0005b	e8 00 00 00 00	 call	 ?initialise_speech_data@@YGXW4speech_array_types@@W4speech_originator_types@@HHH@Z ; initialise_speech_data

; 105  : 		initialise_speech_data (a, o, SPEECH_HEADING_TWO_O_CLOCK, 		SOUND_SAMPLE_INDEX_SPEECH_US_CPG_CLOCK_02, SOUND_SAMPLE_INDEX_SPEECH_CIS_CPG_CLOCK_02);

  00060	68 2b 07 00 00	 push	 1835			; 0000072bH
  00065	68 76 06 00 00	 push	 1654			; 00000676H
  0006a	6a 01		 push	 1
  0006c	8b 45 f8	 mov	 eax, DWORD PTR _o$[ebp]
  0006f	50		 push	 eax
  00070	8b 4d fc	 mov	 ecx, DWORD PTR _a$[ebp]
  00073	51		 push	 ecx
  00074	e8 00 00 00 00	 call	 ?initialise_speech_data@@YGXW4speech_array_types@@W4speech_originator_types@@HHH@Z ; initialise_speech_data

; 106  : 		initialise_speech_data (a, o, SPEECH_HEADING_THREE_O_CLOCK, 	SOUND_SAMPLE_INDEX_SPEECH_US_CPG_CLOCK_03, SOUND_SAMPLE_INDEX_SPEECH_CIS_CPG_CLOCK_03);

  00079	68 2c 07 00 00	 push	 1836			; 0000072cH
  0007e	68 77 06 00 00	 push	 1655			; 00000677H
  00083	6a 02		 push	 2
  00085	8b 45 f8	 mov	 eax, DWORD PTR _o$[ebp]
  00088	50		 push	 eax
  00089	8b 4d fc	 mov	 ecx, DWORD PTR _a$[ebp]
  0008c	51		 push	 ecx
  0008d	e8 00 00 00 00	 call	 ?initialise_speech_data@@YGXW4speech_array_types@@W4speech_originator_types@@HHH@Z ; initialise_speech_data

; 107  : 		initialise_speech_data (a, o, SPEECH_HEADING_FOUR_O_CLOCK, 		SOUND_SAMPLE_INDEX_SPEECH_US_CPG_CLOCK_04, SOUND_SAMPLE_INDEX_SPEECH_CIS_CPG_CLOCK_04);

  00092	68 2d 07 00 00	 push	 1837			; 0000072dH
  00097	68 78 06 00 00	 push	 1656			; 00000678H
  0009c	6a 03		 push	 3
  0009e	8b 45 f8	 mov	 eax, DWORD PTR _o$[ebp]
  000a1	50		 push	 eax
  000a2	8b 4d fc	 mov	 ecx, DWORD PTR _a$[ebp]
  000a5	51		 push	 ecx
  000a6	e8 00 00 00 00	 call	 ?initialise_speech_data@@YGXW4speech_array_types@@W4speech_originator_types@@HHH@Z ; initialise_speech_data

; 108  : 		initialise_speech_data (a, o, SPEECH_HEADING_FIVE_O_CLOCK, 		SOUND_SAMPLE_INDEX_SPEECH_US_CPG_CLOCK_05, SOUND_SAMPLE_INDEX_SPEECH_CIS_CPG_CLOCK_05);

  000ab	68 2e 07 00 00	 push	 1838			; 0000072eH
  000b0	68 79 06 00 00	 push	 1657			; 00000679H
  000b5	6a 04		 push	 4
  000b7	8b 45 f8	 mov	 eax, DWORD PTR _o$[ebp]
  000ba	50		 push	 eax
  000bb	8b 4d fc	 mov	 ecx, DWORD PTR _a$[ebp]
  000be	51		 push	 ecx
  000bf	e8 00 00 00 00	 call	 ?initialise_speech_data@@YGXW4speech_array_types@@W4speech_originator_types@@HHH@Z ; initialise_speech_data

; 109  : 		initialise_speech_data (a, o, SPEECH_HEADING_SIX_O_CLOCK, 		SOUND_SAMPLE_INDEX_SPEECH_US_CPG_CLOCK_06, SOUND_SAMPLE_INDEX_SPEECH_CIS_CPG_CLOCK_06);

  000c4	68 2f 07 00 00	 push	 1839			; 0000072fH
  000c9	68 7a 06 00 00	 push	 1658			; 0000067aH
  000ce	6a 05		 push	 5
  000d0	8b 45 f8	 mov	 eax, DWORD PTR _o$[ebp]
  000d3	50		 push	 eax
  000d4	8b 4d fc	 mov	 ecx, DWORD PTR _a$[ebp]
  000d7	51		 push	 ecx
  000d8	e8 00 00 00 00	 call	 ?initialise_speech_data@@YGXW4speech_array_types@@W4speech_originator_types@@HHH@Z ; initialise_speech_data

; 110  : 		initialise_speech_data (a, o, SPEECH_HEADING_SEVEN_O_CLOCK, 	SOUND_SAMPLE_INDEX_SPEECH_US_CPG_CLOCK_07, SOUND_SAMPLE_INDEX_SPEECH_CIS_CPG_CLOCK_07);

  000dd	68 30 07 00 00	 push	 1840			; 00000730H
  000e2	68 7b 06 00 00	 push	 1659			; 0000067bH
  000e7	6a 06		 push	 6
  000e9	8b 45 f8	 mov	 eax, DWORD PTR _o$[ebp]
  000ec	50		 push	 eax
  000ed	8b 4d fc	 mov	 ecx, DWORD PTR _a$[ebp]
  000f0	51		 push	 ecx
  000f1	e8 00 00 00 00	 call	 ?initialise_speech_data@@YGXW4speech_array_types@@W4speech_originator_types@@HHH@Z ; initialise_speech_data

; 111  : 		initialise_speech_data (a, o, SPEECH_HEADING_EIGHT_O_CLOCK, 	SOUND_SAMPLE_INDEX_SPEECH_US_CPG_CLOCK_08, SOUND_SAMPLE_INDEX_SPEECH_CIS_CPG_CLOCK_08);

  000f6	68 31 07 00 00	 push	 1841			; 00000731H
  000fb	68 7c 06 00 00	 push	 1660			; 0000067cH
  00100	6a 07		 push	 7
  00102	8b 45 f8	 mov	 eax, DWORD PTR _o$[ebp]
  00105	50		 push	 eax
  00106	8b 4d fc	 mov	 ecx, DWORD PTR _a$[ebp]
  00109	51		 push	 ecx
  0010a	e8 00 00 00 00	 call	 ?initialise_speech_data@@YGXW4speech_array_types@@W4speech_originator_types@@HHH@Z ; initialise_speech_data

; 112  : 		initialise_speech_data (a, o, SPEECH_HEADING_NINE_O_CLOCK, 		SOUND_SAMPLE_INDEX_SPEECH_US_CPG_CLOCK_09, SOUND_SAMPLE_INDEX_SPEECH_CIS_CPG_CLOCK_09);

  0010f	68 32 07 00 00	 push	 1842			; 00000732H
  00114	68 7d 06 00 00	 push	 1661			; 0000067dH
  00119	6a 08		 push	 8
  0011b	8b 45 f8	 mov	 eax, DWORD PTR _o$[ebp]
  0011e	50		 push	 eax
  0011f	8b 4d fc	 mov	 ecx, DWORD PTR _a$[ebp]
  00122	51		 push	 ecx
  00123	e8 00 00 00 00	 call	 ?initialise_speech_data@@YGXW4speech_array_types@@W4speech_originator_types@@HHH@Z ; initialise_speech_data

; 113  : 		initialise_speech_data (a, o, SPEECH_HEADING_TEN_O_CLOCK, 		SOUND_SAMPLE_INDEX_SPEECH_US_CPG_CLOCK_10, SOUND_SAMPLE_INDEX_SPEECH_CIS_CPG_CLOCK_10);

  00128	68 33 07 00 00	 push	 1843			; 00000733H
  0012d	68 7e 06 00 00	 push	 1662			; 0000067eH
  00132	6a 09		 push	 9
  00134	8b 45 f8	 mov	 eax, DWORD PTR _o$[ebp]
  00137	50		 push	 eax
  00138	8b 4d fc	 mov	 ecx, DWORD PTR _a$[ebp]
  0013b	51		 push	 ecx
  0013c	e8 00 00 00 00	 call	 ?initialise_speech_data@@YGXW4speech_array_types@@W4speech_originator_types@@HHH@Z ; initialise_speech_data

; 114  : 		initialise_speech_data (a, o, SPEECH_HEADING_ELEVEN_O_CLOCK, 	SOUND_SAMPLE_INDEX_SPEECH_US_CPG_CLOCK_11, SOUND_SAMPLE_INDEX_SPEECH_CIS_CPG_CLOCK_11);

  00141	68 34 07 00 00	 push	 1844			; 00000734H
  00146	68 7f 06 00 00	 push	 1663			; 0000067fH
  0014b	6a 0a		 push	 10			; 0000000aH
  0014d	8b 45 f8	 mov	 eax, DWORD PTR _o$[ebp]
  00150	50		 push	 eax
  00151	8b 4d fc	 mov	 ecx, DWORD PTR _a$[ebp]
  00154	51		 push	 ecx
  00155	e8 00 00 00 00	 call	 ?initialise_speech_data@@YGXW4speech_array_types@@W4speech_originator_types@@HHH@Z ; initialise_speech_data

; 115  : 		initialise_speech_data (a, o, SPEECH_HEADING_TWELVE_O_CLOCK, 	SOUND_SAMPLE_INDEX_SPEECH_US_CPG_CLOCK_12, SOUND_SAMPLE_INDEX_SPEECH_CIS_CPG_CLOCK_12);

  0015a	68 35 07 00 00	 push	 1845			; 00000735H
  0015f	68 80 06 00 00	 push	 1664			; 00000680H
  00164	6a 0b		 push	 11			; 0000000bH
  00166	8b 45 f8	 mov	 eax, DWORD PTR _o$[ebp]
  00169	50		 push	 eax
  0016a	8b 4d fc	 mov	 ecx, DWORD PTR _a$[ebp]
  0016d	51		 push	 ecx
  0016e	e8 00 00 00 00	 call	 ?initialise_speech_data@@YGXW4speech_array_types@@W4speech_originator_types@@HHH@Z ; initialise_speech_data

; 116  : 	}
; 117  : 
; 118  : 	//
; 119  : 	// WINGMAN 
; 120  : 	//
; 121  : 	{	
; 122  : 		o = SPEECH_ORIGINATOR_WINGMAN1;

  00173	c7 45 f8 02 00
	00 00		 mov	 DWORD PTR _o$[ebp], 2

; 123  : 		
; 124  : 		initialise_sample_index_array (a, o, max_items);

  0017a	8b 45 f4	 mov	 eax, DWORD PTR _max_items$[ebp]
  0017d	50		 push	 eax
  0017e	8b 4d f8	 mov	 ecx, DWORD PTR _o$[ebp]
  00181	51		 push	 ecx
  00182	8b 55 fc	 mov	 edx, DWORD PTR _a$[ebp]
  00185	52		 push	 edx
  00186	e8 00 00 00 00	 call	 ?initialise_sample_index_array@@YGXW4speech_array_types@@W4speech_originator_types@@H@Z ; initialise_sample_index_array

; 125  : 
; 126  : 		#if !DEMO_VERSION
; 127  : 
; 128  : 		initialise_speech_data (a, o, SPEECH_HEADING_ONE_O_CLOCK, 		SOUND_SAMPLE_INDEX_SPEECH_US_WINGMAN1_CLOCK_01, SOUND_SAMPLE_INDEX_SPEECH_CIS_WINGMAN1_CLOCK_01);

  0018b	68 c8 02 00 00	 push	 712			; 000002c8H
  00190	68 fe 01 00 00	 push	 510			; 000001feH
  00195	6a 00		 push	 0
  00197	8b 45 f8	 mov	 eax, DWORD PTR _o$[ebp]
  0019a	50		 push	 eax
  0019b	8b 4d fc	 mov	 ecx, DWORD PTR _a$[ebp]
  0019e	51		 push	 ecx
  0019f	e8 00 00 00 00	 call	 ?initialise_speech_data@@YGXW4speech_array_types@@W4speech_originator_types@@HHH@Z ; initialise_speech_data

; 129  : 		initialise_speech_data (a, o, SPEECH_HEADING_TWO_O_CLOCK, 		SOUND_SAMPLE_INDEX_SPEECH_US_WINGMAN1_CLOCK_02, SOUND_SAMPLE_INDEX_SPEECH_CIS_WINGMAN1_CLOCK_02);

  001a4	68 c9 02 00 00	 push	 713			; 000002c9H
  001a9	68 ff 01 00 00	 push	 511			; 000001ffH
  001ae	6a 01		 push	 1
  001b0	8b 45 f8	 mov	 eax, DWORD PTR _o$[ebp]
  001b3	50		 push	 eax
  001b4	8b 4d fc	 mov	 ecx, DWORD PTR _a$[ebp]
  001b7	51		 push	 ecx
  001b8	e8 00 00 00 00	 call	 ?initialise_speech_data@@YGXW4speech_array_types@@W4speech_originator_types@@HHH@Z ; initialise_speech_data

; 130  : 		initialise_speech_data (a, o, SPEECH_HEADING_THREE_O_CLOCK, 	SOUND_SAMPLE_INDEX_SPEECH_US_WINGMAN1_CLOCK_03, SOUND_SAMPLE_INDEX_SPEECH_CIS_WINGMAN1_CLOCK_03);

  001bd	68 ca 02 00 00	 push	 714			; 000002caH
  001c2	68 00 02 00 00	 push	 512			; 00000200H
  001c7	6a 02		 push	 2
  001c9	8b 45 f8	 mov	 eax, DWORD PTR _o$[ebp]
  001cc	50		 push	 eax
  001cd	8b 4d fc	 mov	 ecx, DWORD PTR _a$[ebp]
  001d0	51		 push	 ecx
  001d1	e8 00 00 00 00	 call	 ?initialise_speech_data@@YGXW4speech_array_types@@W4speech_originator_types@@HHH@Z ; initialise_speech_data

; 131  : 		initialise_speech_data (a, o, SPEECH_HEADING_FOUR_O_CLOCK, 		SOUND_SAMPLE_INDEX_SPEECH_US_WINGMAN1_CLOCK_04, SOUND_SAMPLE_INDEX_SPEECH_CIS_WINGMAN1_CLOCK_04);

  001d6	68 cb 02 00 00	 push	 715			; 000002cbH
  001db	68 01 02 00 00	 push	 513			; 00000201H
  001e0	6a 03		 push	 3
  001e2	8b 45 f8	 mov	 eax, DWORD PTR _o$[ebp]
  001e5	50		 push	 eax
  001e6	8b 4d fc	 mov	 ecx, DWORD PTR _a$[ebp]
  001e9	51		 push	 ecx
  001ea	e8 00 00 00 00	 call	 ?initialise_speech_data@@YGXW4speech_array_types@@W4speech_originator_types@@HHH@Z ; initialise_speech_data

; 132  : 		initialise_speech_data (a, o, SPEECH_HEADING_FIVE_O_CLOCK, 		SOUND_SAMPLE_INDEX_SPEECH_US_WINGMAN1_CLOCK_05, SOUND_SAMPLE_INDEX_SPEECH_CIS_WINGMAN1_CLOCK_05);

  001ef	68 cc 02 00 00	 push	 716			; 000002ccH
  001f4	68 02 02 00 00	 push	 514			; 00000202H
  001f9	6a 04		 push	 4
  001fb	8b 45 f8	 mov	 eax, DWORD PTR _o$[ebp]
  001fe	50		 push	 eax
  001ff	8b 4d fc	 mov	 ecx, DWORD PTR _a$[ebp]
  00202	51		 push	 ecx
  00203	e8 00 00 00 00	 call	 ?initialise_speech_data@@YGXW4speech_array_types@@W4speech_originator_types@@HHH@Z ; initialise_speech_data

; 133  : 		initialise_speech_data (a, o, SPEECH_HEADING_SIX_O_CLOCK, 		SOUND_SAMPLE_INDEX_SPEECH_US_WINGMAN1_CLOCK_06, SOUND_SAMPLE_INDEX_SPEECH_CIS_WINGMAN1_CLOCK_06);

  00208	68 cd 02 00 00	 push	 717			; 000002cdH
  0020d	68 03 02 00 00	 push	 515			; 00000203H
  00212	6a 05		 push	 5
  00214	8b 45 f8	 mov	 eax, DWORD PTR _o$[ebp]
  00217	50		 push	 eax
  00218	8b 4d fc	 mov	 ecx, DWORD PTR _a$[ebp]
  0021b	51		 push	 ecx
  0021c	e8 00 00 00 00	 call	 ?initialise_speech_data@@YGXW4speech_array_types@@W4speech_originator_types@@HHH@Z ; initialise_speech_data

; 134  : 		initialise_speech_data (a, o, SPEECH_HEADING_SEVEN_O_CLOCK, 	SOUND_SAMPLE_INDEX_SPEECH_US_WINGMAN1_CLOCK_07, SOUND_SAMPLE_INDEX_SPEECH_CIS_WINGMAN1_CLOCK_07);

  00221	68 ce 02 00 00	 push	 718			; 000002ceH
  00226	68 04 02 00 00	 push	 516			; 00000204H
  0022b	6a 06		 push	 6
  0022d	8b 45 f8	 mov	 eax, DWORD PTR _o$[ebp]
  00230	50		 push	 eax
  00231	8b 4d fc	 mov	 ecx, DWORD PTR _a$[ebp]
  00234	51		 push	 ecx
  00235	e8 00 00 00 00	 call	 ?initialise_speech_data@@YGXW4speech_array_types@@W4speech_originator_types@@HHH@Z ; initialise_speech_data

; 135  : 		initialise_speech_data (a, o, SPEECH_HEADING_EIGHT_O_CLOCK, 	SOUND_SAMPLE_INDEX_SPEECH_US_WINGMAN1_CLOCK_08, SOUND_SAMPLE_INDEX_SPEECH_CIS_WINGMAN1_CLOCK_08);

  0023a	68 cf 02 00 00	 push	 719			; 000002cfH
  0023f	68 05 02 00 00	 push	 517			; 00000205H
  00244	6a 07		 push	 7
  00246	8b 45 f8	 mov	 eax, DWORD PTR _o$[ebp]
  00249	50		 push	 eax
  0024a	8b 4d fc	 mov	 ecx, DWORD PTR _a$[ebp]
  0024d	51		 push	 ecx
  0024e	e8 00 00 00 00	 call	 ?initialise_speech_data@@YGXW4speech_array_types@@W4speech_originator_types@@HHH@Z ; initialise_speech_data

; 136  : 		initialise_speech_data (a, o, SPEECH_HEADING_NINE_O_CLOCK, 		SOUND_SAMPLE_INDEX_SPEECH_US_WINGMAN1_CLOCK_09, SOUND_SAMPLE_INDEX_SPEECH_CIS_WINGMAN1_CLOCK_09);

  00253	68 d0 02 00 00	 push	 720			; 000002d0H
  00258	68 06 02 00 00	 push	 518			; 00000206H
  0025d	6a 08		 push	 8
  0025f	8b 45 f8	 mov	 eax, DWORD PTR _o$[ebp]
  00262	50		 push	 eax
  00263	8b 4d fc	 mov	 ecx, DWORD PTR _a$[ebp]
  00266	51		 push	 ecx
  00267	e8 00 00 00 00	 call	 ?initialise_speech_data@@YGXW4speech_array_types@@W4speech_originator_types@@HHH@Z ; initialise_speech_data

; 137  : 		initialise_speech_data (a, o, SPEECH_HEADING_TEN_O_CLOCK, 		SOUND_SAMPLE_INDEX_SPEECH_US_WINGMAN1_CLOCK_10, SOUND_SAMPLE_INDEX_SPEECH_CIS_WINGMAN1_CLOCK_10);

  0026c	68 d1 02 00 00	 push	 721			; 000002d1H
  00271	68 07 02 00 00	 push	 519			; 00000207H
  00276	6a 09		 push	 9
  00278	8b 45 f8	 mov	 eax, DWORD PTR _o$[ebp]
  0027b	50		 push	 eax
  0027c	8b 4d fc	 mov	 ecx, DWORD PTR _a$[ebp]
  0027f	51		 push	 ecx
  00280	e8 00 00 00 00	 call	 ?initialise_speech_data@@YGXW4speech_array_types@@W4speech_originator_types@@HHH@Z ; initialise_speech_data

; 138  : 		initialise_speech_data (a, o, SPEECH_HEADING_ELEVEN_O_CLOCK, 	SOUND_SAMPLE_INDEX_SPEECH_US_WINGMAN1_CLOCK_11, SOUND_SAMPLE_INDEX_SPEECH_CIS_WINGMAN1_CLOCK_11);

  00285	68 d2 02 00 00	 push	 722			; 000002d2H
  0028a	68 08 02 00 00	 push	 520			; 00000208H
  0028f	6a 0a		 push	 10			; 0000000aH
  00291	8b 45 f8	 mov	 eax, DWORD PTR _o$[ebp]
  00294	50		 push	 eax
  00295	8b 4d fc	 mov	 ecx, DWORD PTR _a$[ebp]
  00298	51		 push	 ecx
  00299	e8 00 00 00 00	 call	 ?initialise_speech_data@@YGXW4speech_array_types@@W4speech_originator_types@@HHH@Z ; initialise_speech_data

; 139  : 		initialise_speech_data (a, o, SPEECH_HEADING_TWELVE_O_CLOCK, 	SOUND_SAMPLE_INDEX_SPEECH_US_WINGMAN1_CLOCK_12, SOUND_SAMPLE_INDEX_SPEECH_CIS_WINGMAN1_CLOCK_12);

  0029e	68 d3 02 00 00	 push	 723			; 000002d3H
  002a3	68 09 02 00 00	 push	 521			; 00000209H
  002a8	6a 0b		 push	 11			; 0000000bH
  002aa	8b 45 f8	 mov	 eax, DWORD PTR _o$[ebp]
  002ad	50		 push	 eax
  002ae	8b 4d fc	 mov	 ecx, DWORD PTR _a$[ebp]
  002b1	51		 push	 ecx
  002b2	e8 00 00 00 00	 call	 ?initialise_speech_data@@YGXW4speech_array_types@@W4speech_originator_types@@HHH@Z ; initialise_speech_data

; 140  : 
; 141  : 		#endif
; 142  : 	}
; 143  : 
; 144  : 	{
; 145  : 		o = SPEECH_ORIGINATOR_WINGMAN2;

  002b7	c7 45 f8 03 00
	00 00		 mov	 DWORD PTR _o$[ebp], 3

; 146  : 		
; 147  : 		initialise_sample_index_array (a, o, max_items);

  002be	8b 45 f4	 mov	 eax, DWORD PTR _max_items$[ebp]
  002c1	50		 push	 eax
  002c2	8b 4d f8	 mov	 ecx, DWORD PTR _o$[ebp]
  002c5	51		 push	 ecx
  002c6	8b 55 fc	 mov	 edx, DWORD PTR _a$[ebp]
  002c9	52		 push	 edx
  002ca	e8 00 00 00 00	 call	 ?initialise_sample_index_array@@YGXW4speech_array_types@@W4speech_originator_types@@H@Z ; initialise_sample_index_array

; 148  : 
; 149  : 		#if !DEMO_VERSION
; 150  : 
; 151  : 		initialise_speech_data (a, o, SPEECH_HEADING_ONE_O_CLOCK, 		SOUND_SAMPLE_INDEX_SPEECH_US_WINGMAN2_CLOCK_01, SOUND_SAMPLE_INDEX_SPEECH_CIS_WINGMAN2_CLOCK_01);

  002cf	68 5c 04 00 00	 push	 1116			; 0000045cH
  002d4	68 92 03 00 00	 push	 914			; 00000392H
  002d9	6a 00		 push	 0
  002db	8b 45 f8	 mov	 eax, DWORD PTR _o$[ebp]
  002de	50		 push	 eax
  002df	8b 4d fc	 mov	 ecx, DWORD PTR _a$[ebp]
  002e2	51		 push	 ecx
  002e3	e8 00 00 00 00	 call	 ?initialise_speech_data@@YGXW4speech_array_types@@W4speech_originator_types@@HHH@Z ; initialise_speech_data

; 152  : 		initialise_speech_data (a, o, SPEECH_HEADING_TWO_O_CLOCK, 		SOUND_SAMPLE_INDEX_SPEECH_US_WINGMAN2_CLOCK_02, SOUND_SAMPLE_INDEX_SPEECH_CIS_WINGMAN2_CLOCK_02);

  002e8	68 5d 04 00 00	 push	 1117			; 0000045dH
  002ed	68 93 03 00 00	 push	 915			; 00000393H
  002f2	6a 01		 push	 1
  002f4	8b 45 f8	 mov	 eax, DWORD PTR _o$[ebp]
  002f7	50		 push	 eax
  002f8	8b 4d fc	 mov	 ecx, DWORD PTR _a$[ebp]
  002fb	51		 push	 ecx
  002fc	e8 00 00 00 00	 call	 ?initialise_speech_data@@YGXW4speech_array_types@@W4speech_originator_types@@HHH@Z ; initialise_speech_data

; 153  : 		initialise_speech_data (a, o, SPEECH_HEADING_THREE_O_CLOCK, 	SOUND_SAMPLE_INDEX_SPEECH_US_WINGMAN2_CLOCK_03, SOUND_SAMPLE_INDEX_SPEECH_CIS_WINGMAN2_CLOCK_03);

  00301	68 5e 04 00 00	 push	 1118			; 0000045eH
  00306	68 94 03 00 00	 push	 916			; 00000394H
  0030b	6a 02		 push	 2
  0030d	8b 45 f8	 mov	 eax, DWORD PTR _o$[ebp]
  00310	50		 push	 eax
  00311	8b 4d fc	 mov	 ecx, DWORD PTR _a$[ebp]
  00314	51		 push	 ecx
  00315	e8 00 00 00 00	 call	 ?initialise_speech_data@@YGXW4speech_array_types@@W4speech_originator_types@@HHH@Z ; initialise_speech_data

; 154  : 		initialise_speech_data (a, o, SPEECH_HEADING_FOUR_O_CLOCK, 		SOUND_SAMPLE_INDEX_SPEECH_US_WINGMAN2_CLOCK_04, SOUND_SAMPLE_INDEX_SPEECH_CIS_WINGMAN2_CLOCK_04);

  0031a	68 5f 04 00 00	 push	 1119			; 0000045fH
  0031f	68 95 03 00 00	 push	 917			; 00000395H
  00324	6a 03		 push	 3
  00326	8b 45 f8	 mov	 eax, DWORD PTR _o$[ebp]
  00329	50		 push	 eax
  0032a	8b 4d fc	 mov	 ecx, DWORD PTR _a$[ebp]
  0032d	51		 push	 ecx
  0032e	e8 00 00 00 00	 call	 ?initialise_speech_data@@YGXW4speech_array_types@@W4speech_originator_types@@HHH@Z ; initialise_speech_data

; 155  : 		initialise_speech_data (a, o, SPEECH_HEADING_FIVE_O_CLOCK, 		SOUND_SAMPLE_INDEX_SPEECH_US_WINGMAN2_CLOCK_05, SOUND_SAMPLE_INDEX_SPEECH_CIS_WINGMAN2_CLOCK_05);

  00333	68 60 04 00 00	 push	 1120			; 00000460H
  00338	68 96 03 00 00	 push	 918			; 00000396H
  0033d	6a 04		 push	 4
  0033f	8b 45 f8	 mov	 eax, DWORD PTR _o$[ebp]
  00342	50		 push	 eax
  00343	8b 4d fc	 mov	 ecx, DWORD PTR _a$[ebp]
  00346	51		 push	 ecx
  00347	e8 00 00 00 00	 call	 ?initialise_speech_data@@YGXW4speech_array_types@@W4speech_originator_types@@HHH@Z ; initialise_speech_data

; 156  : 		initialise_speech_data (a, o, SPEECH_HEADING_SIX_O_CLOCK, 		SOUND_SAMPLE_INDEX_SPEECH_US_WINGMAN2_CLOCK_06, SOUND_SAMPLE_INDEX_SPEECH_CIS_WINGMAN2_CLOCK_06);

  0034c	68 61 04 00 00	 push	 1121			; 00000461H
  00351	68 97 03 00 00	 push	 919			; 00000397H
  00356	6a 05		 push	 5
  00358	8b 45 f8	 mov	 eax, DWORD PTR _o$[ebp]
  0035b	50		 push	 eax
  0035c	8b 4d fc	 mov	 ecx, DWORD PTR _a$[ebp]
  0035f	51		 push	 ecx
  00360	e8 00 00 00 00	 call	 ?initialise_speech_data@@YGXW4speech_array_types@@W4speech_originator_types@@HHH@Z ; initialise_speech_data

; 157  : 		initialise_speech_data (a, o, SPEECH_HEADING_SEVEN_O_CLOCK, 	SOUND_SAMPLE_INDEX_SPEECH_US_WINGMAN2_CLOCK_07, SOUND_SAMPLE_INDEX_SPEECH_CIS_WINGMAN2_CLOCK_07);

  00365	68 62 04 00 00	 push	 1122			; 00000462H
  0036a	68 98 03 00 00	 push	 920			; 00000398H
  0036f	6a 06		 push	 6
  00371	8b 45 f8	 mov	 eax, DWORD PTR _o$[ebp]
  00374	50		 push	 eax
  00375	8b 4d fc	 mov	 ecx, DWORD PTR _a$[ebp]
  00378	51		 push	 ecx
  00379	e8 00 00 00 00	 call	 ?initialise_speech_data@@YGXW4speech_array_types@@W4speech_originator_types@@HHH@Z ; initialise_speech_data

; 158  : 		initialise_speech_data (a, o, SPEECH_HEADING_EIGHT_O_CLOCK, 	SOUND_SAMPLE_INDEX_SPEECH_US_WINGMAN2_CLOCK_08, SOUND_SAMPLE_INDEX_SPEECH_CIS_WINGMAN2_CLOCK_08);

  0037e	68 63 04 00 00	 push	 1123			; 00000463H
  00383	68 99 03 00 00	 push	 921			; 00000399H
  00388	6a 07		 push	 7
  0038a	8b 45 f8	 mov	 eax, DWORD PTR _o$[ebp]
  0038d	50		 push	 eax
  0038e	8b 4d fc	 mov	 ecx, DWORD PTR _a$[ebp]
  00391	51		 push	 ecx
  00392	e8 00 00 00 00	 call	 ?initialise_speech_data@@YGXW4speech_array_types@@W4speech_originator_types@@HHH@Z ; initialise_speech_data

; 159  : 		initialise_speech_data (a, o, SPEECH_HEADING_NINE_O_CLOCK, 		SOUND_SAMPLE_INDEX_SPEECH_US_WINGMAN2_CLOCK_09, SOUND_SAMPLE_INDEX_SPEECH_CIS_WINGMAN2_CLOCK_09);

  00397	68 64 04 00 00	 push	 1124			; 00000464H
  0039c	68 9a 03 00 00	 push	 922			; 0000039aH
  003a1	6a 08		 push	 8
  003a3	8b 45 f8	 mov	 eax, DWORD PTR _o$[ebp]
  003a6	50		 push	 eax
  003a7	8b 4d fc	 mov	 ecx, DWORD PTR _a$[ebp]
  003aa	51		 push	 ecx
  003ab	e8 00 00 00 00	 call	 ?initialise_speech_data@@YGXW4speech_array_types@@W4speech_originator_types@@HHH@Z ; initialise_speech_data

; 160  : 		initialise_speech_data (a, o, SPEECH_HEADING_TEN_O_CLOCK, 		SOUND_SAMPLE_INDEX_SPEECH_US_WINGMAN2_CLOCK_10, SOUND_SAMPLE_INDEX_SPEECH_CIS_WINGMAN2_CLOCK_10);

  003b0	68 65 04 00 00	 push	 1125			; 00000465H
  003b5	68 9b 03 00 00	 push	 923			; 0000039bH
  003ba	6a 09		 push	 9
  003bc	8b 45 f8	 mov	 eax, DWORD PTR _o$[ebp]
  003bf	50		 push	 eax
  003c0	8b 4d fc	 mov	 ecx, DWORD PTR _a$[ebp]
  003c3	51		 push	 ecx
  003c4	e8 00 00 00 00	 call	 ?initialise_speech_data@@YGXW4speech_array_types@@W4speech_originator_types@@HHH@Z ; initialise_speech_data

; 161  : 		initialise_speech_data (a, o, SPEECH_HEADING_ELEVEN_O_CLOCK, 	SOUND_SAMPLE_INDEX_SPEECH_US_WINGMAN2_CLOCK_11, SOUND_SAMPLE_INDEX_SPEECH_CIS_WINGMAN2_CLOCK_11);

  003c9	68 66 04 00 00	 push	 1126			; 00000466H
  003ce	68 9c 03 00 00	 push	 924			; 0000039cH
  003d3	6a 0a		 push	 10			; 0000000aH
  003d5	8b 45 f8	 mov	 eax, DWORD PTR _o$[ebp]
  003d8	50		 push	 eax
  003d9	8b 4d fc	 mov	 ecx, DWORD PTR _a$[ebp]
  003dc	51		 push	 ecx
  003dd	e8 00 00 00 00	 call	 ?initialise_speech_data@@YGXW4speech_array_types@@W4speech_originator_types@@HHH@Z ; initialise_speech_data

; 162  : 		initialise_speech_data (a, o, SPEECH_HEADING_TWELVE_O_CLOCK, 	SOUND_SAMPLE_INDEX_SPEECH_US_WINGMAN2_CLOCK_12, SOUND_SAMPLE_INDEX_SPEECH_CIS_WINGMAN2_CLOCK_12);

  003e2	68 67 04 00 00	 push	 1127			; 00000467H
  003e7	68 9d 03 00 00	 push	 925			; 0000039dH
  003ec	6a 0b		 push	 11			; 0000000bH
  003ee	8b 45 f8	 mov	 eax, DWORD PTR _o$[ebp]
  003f1	50		 push	 eax
  003f2	8b 4d fc	 mov	 ecx, DWORD PTR _a$[ebp]
  003f5	51		 push	 ecx
  003f6	e8 00 00 00 00	 call	 ?initialise_speech_data@@YGXW4speech_array_types@@W4speech_originator_types@@HHH@Z ; initialise_speech_data

; 163  : 
; 164  : 		#endif
; 165  : 	}
; 166  : 
; 167  : 	//
; 168  : 	// AIR TRAFFIC CONTROLLER
; 169  : 	//
; 170  : 	{	
; 171  : 		o = SPEECH_ORIGINATOR_AIR_TRAFFIC_CONTROLLER;

  003fb	c7 45 f8 04 00
	00 00		 mov	 DWORD PTR _o$[ebp], 4

; 172  : 		
; 173  : 		initialise_sample_index_array (a, o, max_items);

  00402	8b 45 f4	 mov	 eax, DWORD PTR _max_items$[ebp]
  00405	50		 push	 eax
  00406	8b 4d f8	 mov	 ecx, DWORD PTR _o$[ebp]
  00409	51		 push	 ecx
  0040a	8b 55 fc	 mov	 edx, DWORD PTR _a$[ebp]
  0040d	52		 push	 edx
  0040e	e8 00 00 00 00	 call	 ?initialise_sample_index_array@@YGXW4speech_array_types@@W4speech_originator_types@@H@Z ; initialise_sample_index_array

; 174  : 	}
; 175  : 
; 176  : 	//
; 177  : 	// FORWARD AIR CONTROLLER 
; 178  : 	//
; 179  : 	{	
; 180  : 		o = SPEECH_ORIGINATOR_FORWARD_AIR_CONTROLLER;

  00413	c7 45 f8 05 00
	00 00		 mov	 DWORD PTR _o$[ebp], 5

; 181  : 		
; 182  : 		initialise_sample_index_array (a, o, max_items);

  0041a	8b 45 f4	 mov	 eax, DWORD PTR _max_items$[ebp]
  0041d	50		 push	 eax
  0041e	8b 4d f8	 mov	 ecx, DWORD PTR _o$[ebp]
  00421	51		 push	 ecx
  00422	8b 55 fc	 mov	 edx, DWORD PTR _a$[ebp]
  00425	52		 push	 edx
  00426	e8 00 00 00 00	 call	 ?initialise_sample_index_array@@YGXW4speech_array_types@@W4speech_originator_types@@H@Z ; initialise_sample_index_array

; 183  : 	}
; 184  : 
; 185  : 	//
; 186  : 	// GROUND CONTROLLER
; 187  : 	//
; 188  : 	{	
; 189  : 		o = SPEECH_ORIGINATOR_GROUND_CONTROLLER;

  0042b	c7 45 f8 06 00
	00 00		 mov	 DWORD PTR _o$[ebp], 6

; 190  : 		
; 191  : 		initialise_sample_index_array (a, o, max_items);

  00432	8b 45 f4	 mov	 eax, DWORD PTR _max_items$[ebp]
  00435	50		 push	 eax
  00436	8b 4d f8	 mov	 ecx, DWORD PTR _o$[ebp]
  00439	51		 push	 ecx
  0043a	8b 55 fc	 mov	 edx, DWORD PTR _a$[ebp]
  0043d	52		 push	 edx
  0043e	e8 00 00 00 00	 call	 ?initialise_sample_index_array@@YGXW4speech_array_types@@W4speech_originator_types@@H@Z ; initialise_sample_index_array

; 192  : 
; 193  : 		#if !DEMO_VERSION
; 194  : 
; 195  : 		initialise_speech_data (a, o, SPEECH_HEADING_ONE_O_CLOCK, 		SOUND_SAMPLE_INDEX_SPEECH_US_GC_CLOCK_01, SOUND_SAMPLE_INDEX_SPEECH_CIS_GC_CLOCK_01);

  00443	68 b3 01 00 00	 push	 435			; 000001b3H
  00448	68 71 01 00 00	 push	 369			; 00000171H
  0044d	6a 00		 push	 0
  0044f	8b 45 f8	 mov	 eax, DWORD PTR _o$[ebp]
  00452	50		 push	 eax
  00453	8b 4d fc	 mov	 ecx, DWORD PTR _a$[ebp]
  00456	51		 push	 ecx
  00457	e8 00 00 00 00	 call	 ?initialise_speech_data@@YGXW4speech_array_types@@W4speech_originator_types@@HHH@Z ; initialise_speech_data

; 196  : 		initialise_speech_data (a, o, SPEECH_HEADING_TWO_O_CLOCK, 		SOUND_SAMPLE_INDEX_SPEECH_US_GC_CLOCK_02, SOUND_SAMPLE_INDEX_SPEECH_CIS_GC_CLOCK_02);

  0045c	68 b4 01 00 00	 push	 436			; 000001b4H
  00461	68 72 01 00 00	 push	 370			; 00000172H
  00466	6a 01		 push	 1
  00468	8b 45 f8	 mov	 eax, DWORD PTR _o$[ebp]
  0046b	50		 push	 eax
  0046c	8b 4d fc	 mov	 ecx, DWORD PTR _a$[ebp]
  0046f	51		 push	 ecx
  00470	e8 00 00 00 00	 call	 ?initialise_speech_data@@YGXW4speech_array_types@@W4speech_originator_types@@HHH@Z ; initialise_speech_data

; 197  : 		initialise_speech_data (a, o, SPEECH_HEADING_THREE_O_CLOCK, 	SOUND_SAMPLE_INDEX_SPEECH_US_GC_CLOCK_03, SOUND_SAMPLE_INDEX_SPEECH_CIS_GC_CLOCK_03);

  00475	68 b5 01 00 00	 push	 437			; 000001b5H
  0047a	68 73 01 00 00	 push	 371			; 00000173H
  0047f	6a 02		 push	 2
  00481	8b 45 f8	 mov	 eax, DWORD PTR _o$[ebp]
  00484	50		 push	 eax
  00485	8b 4d fc	 mov	 ecx, DWORD PTR _a$[ebp]
  00488	51		 push	 ecx
  00489	e8 00 00 00 00	 call	 ?initialise_speech_data@@YGXW4speech_array_types@@W4speech_originator_types@@HHH@Z ; initialise_speech_data

; 198  : 		initialise_speech_data (a, o, SPEECH_HEADING_FOUR_O_CLOCK, 		SOUND_SAMPLE_INDEX_SPEECH_US_GC_CLOCK_04, SOUND_SAMPLE_INDEX_SPEECH_CIS_GC_CLOCK_04);

  0048e	68 b6 01 00 00	 push	 438			; 000001b6H
  00493	68 74 01 00 00	 push	 372			; 00000174H
  00498	6a 03		 push	 3
  0049a	8b 45 f8	 mov	 eax, DWORD PTR _o$[ebp]
  0049d	50		 push	 eax
  0049e	8b 4d fc	 mov	 ecx, DWORD PTR _a$[ebp]
  004a1	51		 push	 ecx
  004a2	e8 00 00 00 00	 call	 ?initialise_speech_data@@YGXW4speech_array_types@@W4speech_originator_types@@HHH@Z ; initialise_speech_data

; 199  : 		initialise_speech_data (a, o, SPEECH_HEADING_FIVE_O_CLOCK, 		SOUND_SAMPLE_INDEX_SPEECH_US_GC_CLOCK_05, SOUND_SAMPLE_INDEX_SPEECH_CIS_GC_CLOCK_05);

  004a7	68 b7 01 00 00	 push	 439			; 000001b7H
  004ac	68 75 01 00 00	 push	 373			; 00000175H
  004b1	6a 04		 push	 4
  004b3	8b 45 f8	 mov	 eax, DWORD PTR _o$[ebp]
  004b6	50		 push	 eax
  004b7	8b 4d fc	 mov	 ecx, DWORD PTR _a$[ebp]
  004ba	51		 push	 ecx
  004bb	e8 00 00 00 00	 call	 ?initialise_speech_data@@YGXW4speech_array_types@@W4speech_originator_types@@HHH@Z ; initialise_speech_data

; 200  : 		initialise_speech_data (a, o, SPEECH_HEADING_SIX_O_CLOCK, 		SOUND_SAMPLE_INDEX_SPEECH_US_GC_CLOCK_06, SOUND_SAMPLE_INDEX_SPEECH_CIS_GC_CLOCK_06);

  004c0	68 b8 01 00 00	 push	 440			; 000001b8H
  004c5	68 76 01 00 00	 push	 374			; 00000176H
  004ca	6a 05		 push	 5
  004cc	8b 45 f8	 mov	 eax, DWORD PTR _o$[ebp]
  004cf	50		 push	 eax
  004d0	8b 4d fc	 mov	 ecx, DWORD PTR _a$[ebp]
  004d3	51		 push	 ecx
  004d4	e8 00 00 00 00	 call	 ?initialise_speech_data@@YGXW4speech_array_types@@W4speech_originator_types@@HHH@Z ; initialise_speech_data

; 201  : 		initialise_speech_data (a, o, SPEECH_HEADING_SEVEN_O_CLOCK, 	SOUND_SAMPLE_INDEX_SPEECH_US_GC_CLOCK_07, SOUND_SAMPLE_INDEX_SPEECH_CIS_GC_CLOCK_07);

  004d9	68 b9 01 00 00	 push	 441			; 000001b9H
  004de	68 77 01 00 00	 push	 375			; 00000177H
  004e3	6a 06		 push	 6
  004e5	8b 45 f8	 mov	 eax, DWORD PTR _o$[ebp]
  004e8	50		 push	 eax
  004e9	8b 4d fc	 mov	 ecx, DWORD PTR _a$[ebp]
  004ec	51		 push	 ecx
  004ed	e8 00 00 00 00	 call	 ?initialise_speech_data@@YGXW4speech_array_types@@W4speech_originator_types@@HHH@Z ; initialise_speech_data

; 202  : 		initialise_speech_data (a, o, SPEECH_HEADING_EIGHT_O_CLOCK, 	SOUND_SAMPLE_INDEX_SPEECH_US_GC_CLOCK_08, SOUND_SAMPLE_INDEX_SPEECH_CIS_GC_CLOCK_08);

  004f2	68 ba 01 00 00	 push	 442			; 000001baH
  004f7	68 78 01 00 00	 push	 376			; 00000178H
  004fc	6a 07		 push	 7
  004fe	8b 45 f8	 mov	 eax, DWORD PTR _o$[ebp]
  00501	50		 push	 eax
  00502	8b 4d fc	 mov	 ecx, DWORD PTR _a$[ebp]
  00505	51		 push	 ecx
  00506	e8 00 00 00 00	 call	 ?initialise_speech_data@@YGXW4speech_array_types@@W4speech_originator_types@@HHH@Z ; initialise_speech_data

; 203  : 		initialise_speech_data (a, o, SPEECH_HEADING_NINE_O_CLOCK, 		SOUND_SAMPLE_INDEX_SPEECH_US_GC_CLOCK_09, SOUND_SAMPLE_INDEX_SPEECH_CIS_GC_CLOCK_09);

  0050b	68 bb 01 00 00	 push	 443			; 000001bbH
  00510	68 79 01 00 00	 push	 377			; 00000179H
  00515	6a 08		 push	 8
  00517	8b 45 f8	 mov	 eax, DWORD PTR _o$[ebp]
  0051a	50		 push	 eax
  0051b	8b 4d fc	 mov	 ecx, DWORD PTR _a$[ebp]
  0051e	51		 push	 ecx
  0051f	e8 00 00 00 00	 call	 ?initialise_speech_data@@YGXW4speech_array_types@@W4speech_originator_types@@HHH@Z ; initialise_speech_data

; 204  : 		initialise_speech_data (a, o, SPEECH_HEADING_TEN_O_CLOCK, 		SOUND_SAMPLE_INDEX_SPEECH_US_GC_CLOCK_10, SOUND_SAMPLE_INDEX_SPEECH_CIS_GC_CLOCK_10);

  00524	68 bc 01 00 00	 push	 444			; 000001bcH
  00529	68 7a 01 00 00	 push	 378			; 0000017aH
  0052e	6a 09		 push	 9
  00530	8b 45 f8	 mov	 eax, DWORD PTR _o$[ebp]
  00533	50		 push	 eax
  00534	8b 4d fc	 mov	 ecx, DWORD PTR _a$[ebp]
  00537	51		 push	 ecx
  00538	e8 00 00 00 00	 call	 ?initialise_speech_data@@YGXW4speech_array_types@@W4speech_originator_types@@HHH@Z ; initialise_speech_data

; 205  : 		initialise_speech_data (a, o, SPEECH_HEADING_ELEVEN_O_CLOCK, 	SOUND_SAMPLE_INDEX_SPEECH_US_GC_CLOCK_11, SOUND_SAMPLE_INDEX_SPEECH_CIS_GC_CLOCK_11);

  0053d	68 bd 01 00 00	 push	 445			; 000001bdH
  00542	68 7b 01 00 00	 push	 379			; 0000017bH
  00547	6a 0a		 push	 10			; 0000000aH
  00549	8b 45 f8	 mov	 eax, DWORD PTR _o$[ebp]
  0054c	50		 push	 eax
  0054d	8b 4d fc	 mov	 ecx, DWORD PTR _a$[ebp]
  00550	51		 push	 ecx
  00551	e8 00 00 00 00	 call	 ?initialise_speech_data@@YGXW4speech_array_types@@W4speech_originator_types@@HHH@Z ; initialise_speech_data

; 206  : 		initialise_speech_data (a, o, SPEECH_HEADING_TWELVE_O_CLOCK, 	SOUND_SAMPLE_INDEX_SPEECH_US_GC_CLOCK_12, SOUND_SAMPLE_INDEX_SPEECH_CIS_GC_CLOCK_12);

  00556	68 be 01 00 00	 push	 446			; 000001beH
  0055b	68 7c 01 00 00	 push	 380			; 0000017cH
  00560	6a 0b		 push	 11			; 0000000bH
  00562	8b 45 f8	 mov	 eax, DWORD PTR _o$[ebp]
  00565	50		 push	 eax
  00566	8b 4d fc	 mov	 ecx, DWORD PTR _a$[ebp]
  00569	51		 push	 ecx
  0056a	e8 00 00 00 00	 call	 ?initialise_speech_data@@YGXW4speech_array_types@@W4speech_originator_types@@HHH@Z ; initialise_speech_data

; 207  : 
; 208  : 		#endif
; 209  : 	}
; 210  : }

  0056f	5f		 pop	 edi
  00570	5e		 pop	 esi
  00571	5b		 pop	 ebx
  00572	8b e5		 mov	 esp, ebp
  00574	5d		 pop	 ebp
  00575	c3		 ret	 0
?initialise_speech_headings_data@@YGXXZ ENDP		; initialise_speech_headings_data
_TEXT	ENDS
END
