; Listing generated by Microsoft (R) Optimizing Compiler Version 19.16.27045.0 

	TITLE	C:\Users\nhv90\Projects\eech\aphavoc\source\entity\special\effect\soundeff\spch_atc.c
	.686P
	.XMM
	include listing.inc
	.model	flat

INCLUDELIB MSVCRTD
INCLUDELIB OLDNAMES

PUBLIC	?initialise_speech_atc_data@@YGXXZ		; initialise_speech_atc_data
EXTRN	?initialise_sample_index_array@@YGXW4speech_array_types@@W4speech_originator_types@@H@Z:PROC ; initialise_sample_index_array
EXTRN	?initialise_speech_data@@YGXW4speech_array_types@@W4speech_originator_types@@HHH@Z:PROC ; initialise_speech_data
; Function compile flags: /Odtp /ZI
; File c:\users\nhv90\projects\eech\aphavoc\source\entity\special\effect\soundeff\spch_atc.c
;	COMDAT ?initialise_speech_atc_data@@YGXXZ
_TEXT	SEGMENT
_max_items$ = -12					; size = 4
_o$ = -8						; size = 4
_a$ = -4						; size = 4
?initialise_speech_atc_data@@YGXXZ PROC			; initialise_speech_atc_data, COMDAT

; 77   : {

  00000	55		 push	 ebp
  00001	8b ec		 mov	 ebp, esp
  00003	83 ec 4c	 sub	 esp, 76			; 0000004cH
  00006	53		 push	 ebx
  00007	56		 push	 esi
  00008	57		 push	 edi

; 78   : 	speech_array_types
; 79   : 		a = SPEECH_ARRAY_ATC_MESSAGES;

  00009	c7 45 fc 04 00
	00 00		 mov	 DWORD PTR _a$[ebp], 4

; 80   : 
; 81   : 	speech_originator_types
; 82   : 		o;
; 83   : 
; 84   : 	int
; 85   : 		max_items = NUM_SPEECH_ATC_MESSAGES;

  00010	c7 45 f4 0c 00
	00 00		 mov	 DWORD PTR _max_items$[ebp], 12 ; 0000000cH

; 86   : 
; 87   : 	//
; 88   : 	// AIR TRAFFIC CONTROLLER
; 89   : 	//
; 90   : 	{	
; 91   : 		o = SPEECH_ORIGINATOR_AIR_TRAFFIC_CONTROLLER;

  00017	c7 45 f8 04 00
	00 00		 mov	 DWORD PTR _o$[ebp], 4

; 92   : 		
; 93   : 		initialise_sample_index_array (a, o, max_items);

  0001e	8b 45 f4	 mov	 eax, DWORD PTR _max_items$[ebp]
  00021	50		 push	 eax
  00022	8b 4d f8	 mov	 ecx, DWORD PTR _o$[ebp]
  00025	51		 push	 ecx
  00026	8b 55 fc	 mov	 edx, DWORD PTR _a$[ebp]
  00029	52		 push	 edx
  0002a	e8 00 00 00 00	 call	 ?initialise_sample_index_array@@YGXW4speech_array_types@@W4speech_originator_types@@H@Z ; initialise_sample_index_array

; 94   : 
; 95   : 		#if !DEMO_VERSION
; 96   : 
; 97   : 		initialise_speech_data (a, o, SPEECH_ATC_INTRODUCTION, 						SOUND_SAMPLE_INDEX_SPEECH_US_ATC_ATC_01, SOUND_SAMPLE_INDEX_SPEECH_CIS_ATC_ATC_01);

  0002f	68 e5 00 00 00	 push	 229			; 000000e5H
  00034	6a 6f		 push	 111			; 0000006fH
  00036	6a 00		 push	 0
  00038	8b 45 f8	 mov	 eax, DWORD PTR _o$[ebp]
  0003b	50		 push	 eax
  0003c	8b 4d fc	 mov	 ecx, DWORD PTR _a$[ebp]
  0003f	51		 push	 ecx
  00040	e8 00 00 00 00	 call	 ?initialise_speech_data@@YGXW4speech_array_types@@W4speech_originator_types@@HHH@Z ; initialise_speech_data

; 98   : 		initialise_speech_data (a, o, SPEECH_ATC_CLEAR_FOR_TAKEOFF1, 				SOUND_SAMPLE_INDEX_SPEECH_US_ATC_ATC_02, SOUND_SAMPLE_INDEX_SPEECH_CIS_ATC_ATC_02);

  00045	68 e6 00 00 00	 push	 230			; 000000e6H
  0004a	6a 70		 push	 112			; 00000070H
  0004c	6a 01		 push	 1
  0004e	8b 45 f8	 mov	 eax, DWORD PTR _o$[ebp]
  00051	50		 push	 eax
  00052	8b 4d fc	 mov	 ecx, DWORD PTR _a$[ebp]
  00055	51		 push	 ecx
  00056	e8 00 00 00 00	 call	 ?initialise_speech_data@@YGXW4speech_array_types@@W4speech_originator_types@@HHH@Z ; initialise_speech_data

; 99   : 		initialise_speech_data (a, o, SPEECH_ATC_PROCEED_TO_HOLDING_ROUTE, 		SOUND_SAMPLE_INDEX_SPEECH_US_ATC_ATC_03, SOUND_SAMPLE_INDEX_SPEECH_CIS_ATC_ATC_03);

  0005b	68 e7 00 00 00	 push	 231			; 000000e7H
  00060	6a 71		 push	 113			; 00000071H
  00062	6a 02		 push	 2
  00064	8b 45 f8	 mov	 eax, DWORD PTR _o$[ebp]
  00067	50		 push	 eax
  00068	8b 4d fc	 mov	 ecx, DWORD PTR _a$[ebp]
  0006b	51		 push	 ecx
  0006c	e8 00 00 00 00	 call	 ?initialise_speech_data@@YGXW4speech_array_types@@W4speech_originator_types@@HHH@Z ; initialise_speech_data

; 100  : 		initialise_speech_data (a, o, SPEECH_ATC_CLEAR_FOR_LANDING, 				SOUND_SAMPLE_INDEX_SPEECH_US_ATC_ATC_04, SOUND_SAMPLE_INDEX_SPEECH_CIS_ATC_ATC_04);

  00071	68 e8 00 00 00	 push	 232			; 000000e8H
  00076	6a 72		 push	 114			; 00000072H
  00078	6a 03		 push	 3
  0007a	8b 45 f8	 mov	 eax, DWORD PTR _o$[ebp]
  0007d	50		 push	 eax
  0007e	8b 4d fc	 mov	 ecx, DWORD PTR _a$[ebp]
  00081	51		 push	 ecx
  00082	e8 00 00 00 00	 call	 ?initialise_speech_data@@YGXW4speech_array_types@@W4speech_originator_types@@HHH@Z ; initialise_speech_data

; 101  : 		initialise_speech_data (a, o, SPEECH_ATC_WINDS, 								SOUND_SAMPLE_INDEX_SPEECH_US_ATC_ATC_05, SOUND_SAMPLE_INDEX_SPEECH_CIS_ATC_ATC_05);

  00087	68 e9 00 00 00	 push	 233			; 000000e9H
  0008c	6a 73		 push	 115			; 00000073H
  0008e	6a 04		 push	 4
  00090	8b 45 f8	 mov	 eax, DWORD PTR _o$[ebp]
  00093	50		 push	 eax
  00094	8b 4d fc	 mov	 ecx, DWORD PTR _a$[ebp]
  00097	51		 push	 ecx
  00098	e8 00 00 00 00	 call	 ?initialise_speech_data@@YGXW4speech_array_types@@W4speech_originator_types@@HHH@Z ; initialise_speech_data

; 102  : 		initialise_speech_data (a, o, SPEECH_ATC_AT, 									SOUND_SAMPLE_INDEX_SPEECH_US_ATC_ATC_06, SOUND_SAMPLE_INDEX_SPEECH_CIS_ATC_ATC_06);

  0009d	68 ea 00 00 00	 push	 234			; 000000eaH
  000a2	6a 74		 push	 116			; 00000074H
  000a4	6a 05		 push	 5
  000a6	8b 45 f8	 mov	 eax, DWORD PTR _o$[ebp]
  000a9	50		 push	 eax
  000aa	8b 4d fc	 mov	 ecx, DWORD PTR _a$[ebp]
  000ad	51		 push	 ecx
  000ae	e8 00 00 00 00	 call	 ?initialise_speech_data@@YGXW4speech_array_types@@W4speech_originator_types@@HHH@Z ; initialise_speech_data

; 103  : 		initialise_speech_data (a, o, SPEECH_ATC_AT_5_KNOTS, 							SOUND_SAMPLE_INDEX_SPEECH_US_ATC_ATC_07, SOUND_SAMPLE_INDEX_SPEECH_CIS_ATC_ATC_07);

  000b3	68 eb 00 00 00	 push	 235			; 000000ebH
  000b8	6a 75		 push	 117			; 00000075H
  000ba	6a 06		 push	 6
  000bc	8b 45 f8	 mov	 eax, DWORD PTR _o$[ebp]
  000bf	50		 push	 eax
  000c0	8b 4d fc	 mov	 ecx, DWORD PTR _a$[ebp]
  000c3	51		 push	 ecx
  000c4	e8 00 00 00 00	 call	 ?initialise_speech_data@@YGXW4speech_array_types@@W4speech_originator_types@@HHH@Z ; initialise_speech_data

; 104  : 		initialise_speech_data (a, o, SPEECH_ATC_AT_10_KNOTS, 						SOUND_SAMPLE_INDEX_SPEECH_US_ATC_ATC_08, SOUND_SAMPLE_INDEX_SPEECH_CIS_ATC_ATC_08);

  000c9	68 ec 00 00 00	 push	 236			; 000000ecH
  000ce	6a 76		 push	 118			; 00000076H
  000d0	6a 07		 push	 7
  000d2	8b 45 f8	 mov	 eax, DWORD PTR _o$[ebp]
  000d5	50		 push	 eax
  000d6	8b 4d fc	 mov	 ecx, DWORD PTR _a$[ebp]
  000d9	51		 push	 ecx
  000da	e8 00 00 00 00	 call	 ?initialise_speech_data@@YGXW4speech_array_types@@W4speech_originator_types@@HHH@Z ; initialise_speech_data

; 105  : 		initialise_speech_data (a, o, SPEECH_ATC_AT_15_KNOTS, 						SOUND_SAMPLE_INDEX_SPEECH_US_ATC_ATC_09, SOUND_SAMPLE_INDEX_SPEECH_CIS_ATC_ATC_09);

  000df	68 ed 00 00 00	 push	 237			; 000000edH
  000e4	6a 77		 push	 119			; 00000077H
  000e6	6a 08		 push	 8
  000e8	8b 45 f8	 mov	 eax, DWORD PTR _o$[ebp]
  000eb	50		 push	 eax
  000ec	8b 4d fc	 mov	 ecx, DWORD PTR _a$[ebp]
  000ef	51		 push	 ecx
  000f0	e8 00 00 00 00	 call	 ?initialise_speech_data@@YGXW4speech_array_types@@W4speech_originator_types@@HHH@Z ; initialise_speech_data

; 106  : 		initialise_speech_data (a, o, SPEECH_ATC_AT_20_KNOTS, 						SOUND_SAMPLE_INDEX_SPEECH_US_ATC_ATC_10, SOUND_SAMPLE_INDEX_SPEECH_CIS_ATC_ATC_10);

  000f5	68 ee 00 00 00	 push	 238			; 000000eeH
  000fa	6a 78		 push	 120			; 00000078H
  000fc	6a 09		 push	 9
  000fe	8b 45 f8	 mov	 eax, DWORD PTR _o$[ebp]
  00101	50		 push	 eax
  00102	8b 4d fc	 mov	 ecx, DWORD PTR _a$[ebp]
  00105	51		 push	 ecx
  00106	e8 00 00 00 00	 call	 ?initialise_speech_data@@YGXW4speech_array_types@@W4speech_originator_types@@HHH@Z ; initialise_speech_data

; 107  : 		initialise_speech_data (a, o, SPEECH_ATC_AT_25_KNOTS, 						SOUND_SAMPLE_INDEX_SPEECH_US_ATC_ATC_11, SOUND_SAMPLE_INDEX_SPEECH_CIS_ATC_ATC_11);

  0010b	68 ef 00 00 00	 push	 239			; 000000efH
  00110	6a 79		 push	 121			; 00000079H
  00112	6a 0a		 push	 10			; 0000000aH
  00114	8b 45 f8	 mov	 eax, DWORD PTR _o$[ebp]
  00117	50		 push	 eax
  00118	8b 4d fc	 mov	 ecx, DWORD PTR _a$[ebp]
  0011b	51		 push	 ecx
  0011c	e8 00 00 00 00	 call	 ?initialise_speech_data@@YGXW4speech_array_types@@W4speech_originator_types@@HHH@Z ; initialise_speech_data

; 108  : 		initialise_speech_data (a, o, SPEECH_ATC_AT_30_KNOTS, 						SOUND_SAMPLE_INDEX_SPEECH_US_ATC_ATC_12, SOUND_SAMPLE_INDEX_SPEECH_CIS_ATC_ATC_12);

  00121	68 f0 00 00 00	 push	 240			; 000000f0H
  00126	6a 7a		 push	 122			; 0000007aH
  00128	6a 0b		 push	 11			; 0000000bH
  0012a	8b 45 f8	 mov	 eax, DWORD PTR _o$[ebp]
  0012d	50		 push	 eax
  0012e	8b 4d fc	 mov	 ecx, DWORD PTR _a$[ebp]
  00131	51		 push	 ecx
  00132	e8 00 00 00 00	 call	 ?initialise_speech_data@@YGXW4speech_array_types@@W4speech_originator_types@@HHH@Z ; initialise_speech_data

; 109  : 
; 110  : 		#endif
; 111  : 	}
; 112  : }

  00137	5f		 pop	 edi
  00138	5e		 pop	 esi
  00139	5b		 pop	 ebx
  0013a	8b e5		 mov	 esp, ebp
  0013c	5d		 pop	 ebp
  0013d	c3		 ret	 0
?initialise_speech_atc_data@@YGXXZ ENDP			; initialise_speech_atc_data
_TEXT	ENDS
END
