; Listing generated by Microsoft (R) Optimizing Compiler Version 19.16.27045.0 

	TITLE	C:\Users\nhv90\Projects\eech\aphavoc\source\entity\special\effect\soundeff\spch_sys.c
	.686P
	.XMM
	include listing.inc
	.model	flat

INCLUDELIB MSVCRTD
INCLUDELIB OLDNAMES

PUBLIC	?initialise_speech_system_data@@YGXXZ		; initialise_speech_system_data
EXTRN	?initialise_sample_index_array@@YGXW4speech_array_types@@W4speech_originator_types@@H@Z:PROC ; initialise_sample_index_array
EXTRN	?initialise_speech_data@@YGXW4speech_array_types@@W4speech_originator_types@@HHH@Z:PROC ; initialise_speech_data
; Function compile flags: /Odtp /ZI
; File c:\users\nhv90\projects\eech\aphavoc\source\entity\special\effect\soundeff\spch_sys.c
;	COMDAT ?initialise_speech_system_data@@YGXXZ
_TEXT	SEGMENT
_max_items$ = -12					; size = 4
_o$ = -8						; size = 4
_a$ = -4						; size = 4
?initialise_speech_system_data@@YGXXZ PROC		; initialise_speech_system_data, COMDAT

; 77   : {

  00000	55		 push	 ebp
  00001	8b ec		 mov	 ebp, esp
  00003	83 ec 4c	 sub	 esp, 76			; 0000004cH
  00006	53		 push	 ebx
  00007	56		 push	 esi
  00008	57		 push	 edi

; 78   : 	speech_array_types
; 79   : 		a = SPEECH_ARRAY_SYSTEM_MESSAGES;

  00009	c7 45 fc 08 00
	00 00		 mov	 DWORD PTR _a$[ebp], 8

; 80   : 
; 81   : 	speech_originator_types
; 82   : 		o;
; 83   : 
; 84   : 	int
; 85   : 		max_items = NUM_SPEECH_SYSTEM_MESSAGES;

  00010	c7 45 f4 2b 00
	00 00		 mov	 DWORD PTR _max_items$[ebp], 43 ; 0000002bH

; 86   : 
; 87   : 	//
; 88   : 	// SYSTEM
; 89   : 	//
; 90   : 	{	
; 91   : 		o = SPEECH_ORIGINATOR_SYSTEM;

  00017	c7 45 f8 00 00
	00 00		 mov	 DWORD PTR _o$[ebp], 0

; 92   : 		
; 93   : 		initialise_sample_index_array (a, o, max_items);

  0001e	8b 45 f4	 mov	 eax, DWORD PTR _max_items$[ebp]
  00021	50		 push	 eax
  00022	8b 4d f8	 mov	 ecx, DWORD PTR _o$[ebp]
  00025	51		 push	 ecx
  00026	8b 55 fc	 mov	 edx, DWORD PTR _a$[ebp]
  00029	52		 push	 edx
  0002a	e8 00 00 00 00	 call	 ?initialise_sample_index_array@@YGXW4speech_array_types@@W4speech_originator_types@@H@Z ; initialise_sample_index_array

; 94   : 
; 95   : 		initialise_speech_data (a, o, SPEECH_SYSTEM_RADAR_FAILURE, 								SOUND_SAMPLE_INDEX_SPEECH_US_SYSTEM_WARN_01, SOUND_SAMPLE_INDEX_SPEECH_CIS_SYSTEM_WARN_01);

  0002f	68 04 06 00 00	 push	 1540			; 00000604H
  00034	68 d9 05 00 00	 push	 1497			; 000005d9H
  00039	6a 00		 push	 0
  0003b	8b 45 f8	 mov	 eax, DWORD PTR _o$[ebp]
  0003e	50		 push	 eax
  0003f	8b 4d fc	 mov	 ecx, DWORD PTR _a$[ebp]
  00042	51		 push	 ecx
  00043	e8 00 00 00 00	 call	 ?initialise_speech_data@@YGXW4speech_array_types@@W4speech_originator_types@@HHH@Z ; initialise_speech_data

; 96   : 		initialise_speech_data (a, o, SPEECH_SYSTEM_FLIR_FAILURE, 								SOUND_SAMPLE_INDEX_SPEECH_US_SYSTEM_WARN_02, SOUND_SAMPLE_INDEX_SPEECH_CIS_SYSTEM_WARN_02);

  00048	68 05 06 00 00	 push	 1541			; 00000605H
  0004d	68 da 05 00 00	 push	 1498			; 000005daH
  00052	6a 01		 push	 1
  00054	8b 45 f8	 mov	 eax, DWORD PTR _o$[ebp]
  00057	50		 push	 eax
  00058	8b 4d fc	 mov	 ecx, DWORD PTR _a$[ebp]
  0005b	51		 push	 ecx
  0005c	e8 00 00 00 00	 call	 ?initialise_speech_data@@YGXW4speech_array_types@@W4speech_originator_types@@HHH@Z ; initialise_speech_data

; 97   : 		initialise_speech_data (a, o, SPEECH_SYSTEM_DTV_FAILURE, 								SOUND_SAMPLE_INDEX_SPEECH_US_SYSTEM_WARN_03, SOUND_SAMPLE_INDEX_NONE);

  00061	6a 00		 push	 0
  00063	68 db 05 00 00	 push	 1499			; 000005dbH
  00068	6a 02		 push	 2
  0006a	8b 45 f8	 mov	 eax, DWORD PTR _o$[ebp]
  0006d	50		 push	 eax
  0006e	8b 4d fc	 mov	 ecx, DWORD PTR _a$[ebp]
  00071	51		 push	 ecx
  00072	e8 00 00 00 00	 call	 ?initialise_speech_data@@YGXW4speech_array_types@@W4speech_originator_types@@HHH@Z ; initialise_speech_data

; 98   : 		initialise_speech_data (a, o, SPEECH_SYSTEM_LLLTV_FAILURE, 								SOUND_SAMPLE_INDEX_NONE, 							SOUND_SAMPLE_INDEX_SPEECH_CIS_SYSTEM_WARN_04);

  00077	68 07 06 00 00	 push	 1543			; 00000607H
  0007c	6a 00		 push	 0
  0007e	6a 03		 push	 3
  00080	8b 45 f8	 mov	 eax, DWORD PTR _o$[ebp]
  00083	50		 push	 eax
  00084	8b 4d fc	 mov	 ecx, DWORD PTR _a$[ebp]
  00087	51		 push	 ecx
  00088	e8 00 00 00 00	 call	 ?initialise_speech_data@@YGXW4speech_array_types@@W4speech_originator_types@@HHH@Z ; initialise_speech_data

; 99   : 		initialise_speech_data (a, o, SPEECH_SYSTEM_DVO_FAILURE, 								SOUND_SAMPLE_INDEX_SPEECH_US_SYSTEM_WARN_05, SOUND_SAMPLE_INDEX_NONE);

  0008d	6a 00		 push	 0
  0008f	68 dd 05 00 00	 push	 1501			; 000005ddH
  00094	6a 04		 push	 4
  00096	8b 45 f8	 mov	 eax, DWORD PTR _o$[ebp]
  00099	50		 push	 eax
  0009a	8b 4d fc	 mov	 ecx, DWORD PTR _a$[ebp]
  0009d	51		 push	 ecx
  0009e	e8 00 00 00 00	 call	 ?initialise_speech_data@@YGXW4speech_array_types@@W4speech_originator_types@@HHH@Z ; initialise_speech_data

; 100  : 		initialise_speech_data (a, o, SPEECH_SYSTEM_PERISCOPE_DAMAGED, 						SOUND_SAMPLE_INDEX_NONE, 							SOUND_SAMPLE_INDEX_SPEECH_CIS_SYSTEM_WARN_06);

  000a3	68 09 06 00 00	 push	 1545			; 00000609H
  000a8	6a 00		 push	 0
  000aa	6a 05		 push	 5
  000ac	8b 45 f8	 mov	 eax, DWORD PTR _o$[ebp]
  000af	50		 push	 eax
  000b0	8b 4d fc	 mov	 ecx, DWORD PTR _a$[ebp]
  000b3	51		 push	 ecx
  000b4	e8 00 00 00 00	 call	 ?initialise_speech_data@@YGXW4speech_array_types@@W4speech_originator_types@@HHH@Z ; initialise_speech_data

; 101  : 		initialise_speech_data (a, o, SPEECH_SYSTEM_LASER_DESIGNATOR_FAILURE, 				SOUND_SAMPLE_INDEX_SPEECH_US_SYSTEM_WARN_07, SOUND_SAMPLE_INDEX_SPEECH_CIS_SYSTEM_WARN_07);

  000b9	68 0a 06 00 00	 push	 1546			; 0000060aH
  000be	68 df 05 00 00	 push	 1503			; 000005dfH
  000c3	6a 06		 push	 6
  000c5	8b 45 f8	 mov	 eax, DWORD PTR _o$[ebp]
  000c8	50		 push	 eax
  000c9	8b 4d fc	 mov	 ecx, DWORD PTR _a$[ebp]
  000cc	51		 push	 ecx
  000cd	e8 00 00 00 00	 call	 ?initialise_speech_data@@YGXW4speech_array_types@@W4speech_originator_types@@HHH@Z ; initialise_speech_data

; 102  : 		initialise_speech_data (a, o, SPEECH_SYSTEM_LASER_RANGE_FINDER_FAILURE, 			SOUND_SAMPLE_INDEX_SPEECH_US_SYSTEM_WARN_08, SOUND_SAMPLE_INDEX_SPEECH_CIS_SYSTEM_WARN_08);

  000d2	68 0b 06 00 00	 push	 1547			; 0000060bH
  000d7	68 e0 05 00 00	 push	 1504			; 000005e0H
  000dc	6a 07		 push	 7
  000de	8b 45 f8	 mov	 eax, DWORD PTR _o$[ebp]
  000e1	50		 push	 eax
  000e2	8b 4d fc	 mov	 ecx, DWORD PTR _a$[ebp]
  000e5	51		 push	 ecx
  000e6	e8 00 00 00 00	 call	 ?initialise_speech_data@@YGXW4speech_array_types@@W4speech_originator_types@@HHH@Z ; initialise_speech_data

; 103  : 		initialise_speech_data (a, o, SPEECH_SYSTEM_RADAR_JAMMER_FAILURE, 					SOUND_SAMPLE_INDEX_SPEECH_US_SYSTEM_WARN_09, SOUND_SAMPLE_INDEX_SPEECH_CIS_SYSTEM_WARN_09);

  000eb	68 0c 06 00 00	 push	 1548			; 0000060cH
  000f0	68 e1 05 00 00	 push	 1505			; 000005e1H
  000f5	6a 08		 push	 8
  000f7	8b 45 f8	 mov	 eax, DWORD PTR _o$[ebp]
  000fa	50		 push	 eax
  000fb	8b 4d fc	 mov	 ecx, DWORD PTR _a$[ebp]
  000fe	51		 push	 ecx
  000ff	e8 00 00 00 00	 call	 ?initialise_speech_data@@YGXW4speech_array_types@@W4speech_originator_types@@HHH@Z ; initialise_speech_data

; 104  : 		initialise_speech_data (a, o, SPEECH_SYSTEM_IR_JAMMER_FAILURE, 						SOUND_SAMPLE_INDEX_SPEECH_US_SYSTEM_WARN_10, SOUND_SAMPLE_INDEX_SPEECH_CIS_SYSTEM_WARN_10);

  00104	68 0d 06 00 00	 push	 1549			; 0000060dH
  00109	68 e2 05 00 00	 push	 1506			; 000005e2H
  0010e	6a 09		 push	 9
  00110	8b 45 f8	 mov	 eax, DWORD PTR _o$[ebp]
  00113	50		 push	 eax
  00114	8b 4d fc	 mov	 ecx, DWORD PTR _a$[ebp]
  00117	51		 push	 ecx
  00118	e8 00 00 00 00	 call	 ?initialise_speech_data@@YGXW4speech_array_types@@W4speech_originator_types@@HHH@Z ; initialise_speech_data

; 105  : 		initialise_speech_data (a, o, SPEECH_SYSTEM_NAV_COMPUTER_FAILURE, 					SOUND_SAMPLE_INDEX_SPEECH_US_SYSTEM_WARN_11, SOUND_SAMPLE_INDEX_SPEECH_CIS_SYSTEM_WARN_11);

  0011d	68 0e 06 00 00	 push	 1550			; 0000060eH
  00122	68 e3 05 00 00	 push	 1507			; 000005e3H
  00127	6a 0a		 push	 10			; 0000000aH
  00129	8b 45 f8	 mov	 eax, DWORD PTR _o$[ebp]
  0012c	50		 push	 eax
  0012d	8b 4d fc	 mov	 ecx, DWORD PTR _a$[ebp]
  00130	51		 push	 ecx
  00131	e8 00 00 00 00	 call	 ?initialise_speech_data@@YGXW4speech_array_types@@W4speech_originator_types@@HHH@Z ; initialise_speech_data

; 106  : 		initialise_speech_data (a, o, SPEECH_SYSTEM_COMMS_FAILURE, 								SOUND_SAMPLE_INDEX_SPEECH_US_SYSTEM_WARN_12, SOUND_SAMPLE_INDEX_SPEECH_CIS_SYSTEM_WARN_12);

  00136	68 0f 06 00 00	 push	 1551			; 0000060fH
  0013b	68 e4 05 00 00	 push	 1508			; 000005e4H
  00140	6a 0b		 push	 11			; 0000000bH
  00142	8b 45 f8	 mov	 eax, DWORD PTR _o$[ebp]
  00145	50		 push	 eax
  00146	8b 4d fc	 mov	 ecx, DWORD PTR _a$[ebp]
  00149	51		 push	 ecx
  0014a	e8 00 00 00 00	 call	 ?initialise_speech_data@@YGXW4speech_array_types@@W4speech_originator_types@@HHH@Z ; initialise_speech_data

; 107  : 		initialise_speech_data (a, o, SPEECH_SYSTEM_RADAR_WARNING_FAILURE, 					SOUND_SAMPLE_INDEX_SPEECH_US_SYSTEM_WARN_13, SOUND_SAMPLE_INDEX_SPEECH_CIS_SYSTEM_WARN_13);

  0014f	68 10 06 00 00	 push	 1552			; 00000610H
  00154	68 e5 05 00 00	 push	 1509			; 000005e5H
  00159	6a 0c		 push	 12			; 0000000cH
  0015b	8b 45 f8	 mov	 eax, DWORD PTR _o$[ebp]
  0015e	50		 push	 eax
  0015f	8b 4d fc	 mov	 ecx, DWORD PTR _a$[ebp]
  00162	51		 push	 ecx
  00163	e8 00 00 00 00	 call	 ?initialise_speech_data@@YGXW4speech_array_types@@W4speech_originator_types@@HHH@Z ; initialise_speech_data

; 108  : 		initialise_speech_data (a, o, SPEECH_SYSTEM_IHADSS_FAILURE, 							SOUND_SAMPLE_INDEX_SPEECH_US_SYSTEM_WARN_14, SOUND_SAMPLE_INDEX_NONE);

  00168	6a 00		 push	 0
  0016a	68 e6 05 00 00	 push	 1510			; 000005e6H
  0016f	6a 0d		 push	 13			; 0000000dH
  00171	8b 45 f8	 mov	 eax, DWORD PTR _o$[ebp]
  00174	50		 push	 eax
  00175	8b 4d fc	 mov	 ecx, DWORD PTR _a$[ebp]
  00178	51		 push	 ecx
  00179	e8 00 00 00 00	 call	 ?initialise_speech_data@@YGXW4speech_array_types@@W4speech_originator_types@@HHH@Z ; initialise_speech_data

; 109  : 		initialise_speech_data (a, o, SPEECH_SYSTEM_HIDSS_FAILURE, 								SOUND_SAMPLE_INDEX_SPEECH_US_SYSTEM_WARN_15, SOUND_SAMPLE_INDEX_NONE);

  0017e	6a 00		 push	 0
  00180	68 e7 05 00 00	 push	 1511			; 000005e7H
  00185	6a 0e		 push	 14			; 0000000eH
  00187	8b 45 f8	 mov	 eax, DWORD PTR _o$[ebp]
  0018a	50		 push	 eax
  0018b	8b 4d fc	 mov	 ecx, DWORD PTR _a$[ebp]
  0018e	51		 push	 ecx
  0018f	e8 00 00 00 00	 call	 ?initialise_speech_data@@YGXW4speech_array_types@@W4speech_originator_types@@HHH@Z ; initialise_speech_data

; 110  : 		initialise_speech_data (a, o, SPEECH_SYSTEM_HUD_FAILURE, 								SOUND_SAMPLE_INDEX_NONE, 							SOUND_SAMPLE_INDEX_SPEECH_CIS_SYSTEM_WARN_16);

  00194	68 13 06 00 00	 push	 1555			; 00000613H
  00199	6a 00		 push	 0
  0019b	6a 0f		 push	 15			; 0000000fH
  0019d	8b 45 f8	 mov	 eax, DWORD PTR _o$[ebp]
  001a0	50		 push	 eax
  001a1	8b 4d fc	 mov	 ecx, DWORD PTR _a$[ebp]
  001a4	51		 push	 ecx
  001a5	e8 00 00 00 00	 call	 ?initialise_speech_data@@YGXW4speech_array_types@@W4speech_originator_types@@HHH@Z ; initialise_speech_data

; 111  : 		initialise_speech_data (a, o, SPEECH_SYSTEM_HELMET_MOUNTED_SIGHT_FAILURE, 			SOUND_SAMPLE_INDEX_NONE, 							SOUND_SAMPLE_INDEX_SPEECH_CIS_SYSTEM_WARN_17);

  001aa	68 14 06 00 00	 push	 1556			; 00000614H
  001af	6a 00		 push	 0
  001b1	6a 10		 push	 16			; 00000010H
  001b3	8b 45 f8	 mov	 eax, DWORD PTR _o$[ebp]
  001b6	50		 push	 eax
  001b7	8b 4d fc	 mov	 ecx, DWORD PTR _a$[ebp]
  001ba	51		 push	 ecx
  001bb	e8 00 00 00 00	 call	 ?initialise_speech_data@@YGXW4speech_array_types@@W4speech_originator_types@@HHH@Z ; initialise_speech_data

; 112  : 		initialise_speech_data (a, o, SPEECH_SYSTEM_MFD_FAILURE, 								SOUND_SAMPLE_INDEX_SPEECH_US_SYSTEM_WARN_18, SOUND_SAMPLE_INDEX_SPEECH_CIS_SYSTEM_WARN_18);

  001c0	68 15 06 00 00	 push	 1557			; 00000615H
  001c5	68 ea 05 00 00	 push	 1514			; 000005eaH
  001ca	6a 11		 push	 17			; 00000011H
  001cc	8b 45 f8	 mov	 eax, DWORD PTR _o$[ebp]
  001cf	50		 push	 eax
  001d0	8b 4d fc	 mov	 ecx, DWORD PTR _a$[ebp]
  001d3	51		 push	 ecx
  001d4	e8 00 00 00 00	 call	 ?initialise_speech_data@@YGXW4speech_array_types@@W4speech_originator_types@@HHH@Z ; initialise_speech_data

; 113  : //		initialise_speech_data (a, o, SPEECH_SYSTEM_DISPLAY_FAILURE, 							SOUND_SAMPLE_INDEX_SPEECH_US_SYSTEM_WARN_19, SOUND_SAMPLE_INDEX_SPEECH_CIS_SYSTEM_WARN_19);
; 114  : 		initialise_speech_data (a, o, SPEECH_SYSTEM_TV_DISPLAY_FAILURE, 						SOUND_SAMPLE_INDEX_NONE, 							SOUND_SAMPLE_INDEX_SPEECH_CIS_SYSTEM_WARN_20);

  001d9	68 17 06 00 00	 push	 1559			; 00000617H
  001de	6a 00		 push	 0
  001e0	6a 13		 push	 19			; 00000013H
  001e2	8b 45 f8	 mov	 eax, DWORD PTR _o$[ebp]
  001e5	50		 push	 eax
  001e6	8b 4d fc	 mov	 ecx, DWORD PTR _a$[ebp]
  001e9	51		 push	 ecx
  001ea	e8 00 00 00 00	 call	 ?initialise_speech_data@@YGXW4speech_array_types@@W4speech_originator_types@@HHH@Z ; initialise_speech_data

; 115  : 		initialise_speech_data (a, o, SPEECH_SYSTEM_THREAT_WARNING_DISPLAY_FAILURE, 		SOUND_SAMPLE_INDEX_NONE, 							SOUND_SAMPLE_INDEX_SPEECH_CIS_SYSTEM_WARN_21);

  001ef	68 18 06 00 00	 push	 1560			; 00000618H
  001f4	6a 00		 push	 0
  001f6	6a 14		 push	 20			; 00000014H
  001f8	8b 45 f8	 mov	 eax, DWORD PTR _o$[ebp]
  001fb	50		 push	 eax
  001fc	8b 4d fc	 mov	 ecx, DWORD PTR _a$[ebp]
  001ff	51		 push	 ecx
  00200	e8 00 00 00 00	 call	 ?initialise_speech_data@@YGXW4speech_array_types@@W4speech_originator_types@@HHH@Z ; initialise_speech_data

; 116  : 		initialise_speech_data (a, o, SPEECH_SYSTEM_PNVS_FAILURE, 								SOUND_SAMPLE_INDEX_SPEECH_US_SYSTEM_WARN_22, SOUND_SAMPLE_INDEX_NONE);

  00205	6a 00		 push	 0
  00207	68 ee 05 00 00	 push	 1518			; 000005eeH
  0020c	6a 15		 push	 21			; 00000015H
  0020e	8b 45 f8	 mov	 eax, DWORD PTR _o$[ebp]
  00211	50		 push	 eax
  00212	8b 4d fc	 mov	 ecx, DWORD PTR _a$[ebp]
  00215	51		 push	 ecx
  00216	e8 00 00 00 00	 call	 ?initialise_speech_data@@YGXW4speech_array_types@@W4speech_originator_types@@HHH@Z ; initialise_speech_data

; 117  : 		initialise_speech_data (a, o, SPEECH_SYSTEM_NIGHT_VISION_GOGGLES_FAILURE, 			SOUND_SAMPLE_INDEX_NONE, 							SOUND_SAMPLE_INDEX_SPEECH_CIS_SYSTEM_WARN_23);

  0021b	68 1a 06 00 00	 push	 1562			; 0000061aH
  00220	6a 00		 push	 0
  00222	6a 16		 push	 22			; 00000016H
  00224	8b 45 f8	 mov	 eax, DWORD PTR _o$[ebp]
  00227	50		 push	 eax
  00228	8b 4d fc	 mov	 ecx, DWORD PTR _a$[ebp]
  0022b	51		 push	 ecx
  0022c	e8 00 00 00 00	 call	 ?initialise_speech_data@@YGXW4speech_array_types@@W4speech_originator_types@@HHH@Z ; initialise_speech_data

; 118  : 		initialise_speech_data (a, o, SPEECH_SYSTEM_GUN_JAMMED, 									SOUND_SAMPLE_INDEX_SPEECH_US_SYSTEM_WARN_24, SOUND_SAMPLE_INDEX_SPEECH_CIS_SYSTEM_WARN_24);

  00231	68 1b 06 00 00	 push	 1563			; 0000061bH
  00236	68 f0 05 00 00	 push	 1520			; 000005f0H
  0023b	6a 17		 push	 23			; 00000017H
  0023d	8b 45 f8	 mov	 eax, DWORD PTR _o$[ebp]
  00240	50		 push	 eax
  00241	8b 4d fc	 mov	 ecx, DWORD PTR _a$[ebp]
  00244	51		 push	 ecx
  00245	e8 00 00 00 00	 call	 ?initialise_speech_data@@YGXW4speech_array_types@@W4speech_originator_types@@HHH@Z ; initialise_speech_data

; 119  : 		initialise_speech_data (a, o, SPEECH_SYSTEM_HARDPOINT_DAMAGED, 						SOUND_SAMPLE_INDEX_SPEECH_US_SYSTEM_WARN_25, SOUND_SAMPLE_INDEX_SPEECH_CIS_SYSTEM_WARN_25);

  0024a	68 1c 06 00 00	 push	 1564			; 0000061cH
  0024f	68 f1 05 00 00	 push	 1521			; 000005f1H
  00254	6a 18		 push	 24			; 00000018H
  00256	8b 45 f8	 mov	 eax, DWORD PTR _o$[ebp]
  00259	50		 push	 eax
  0025a	8b 4d fc	 mov	 ecx, DWORD PTR _a$[ebp]
  0025d	51		 push	 ecx
  0025e	e8 00 00 00 00	 call	 ?initialise_speech_data@@YGXW4speech_array_types@@W4speech_originator_types@@HHH@Z ; initialise_speech_data

; 120  : 		initialise_speech_data (a, o, SPEECH_SYSTEM_CHAFF_DISPENSER_DAMAGED, 				SOUND_SAMPLE_INDEX_SPEECH_US_SYSTEM_WARN_26, SOUND_SAMPLE_INDEX_SPEECH_CIS_SYSTEM_WARN_26);

  00263	68 1d 06 00 00	 push	 1565			; 0000061dH
  00268	68 f2 05 00 00	 push	 1522			; 000005f2H
  0026d	6a 19		 push	 25			; 00000019H
  0026f	8b 45 f8	 mov	 eax, DWORD PTR _o$[ebp]
  00272	50		 push	 eax
  00273	8b 4d fc	 mov	 ecx, DWORD PTR _a$[ebp]
  00276	51		 push	 ecx
  00277	e8 00 00 00 00	 call	 ?initialise_speech_data@@YGXW4speech_array_types@@W4speech_originator_types@@HHH@Z ; initialise_speech_data

; 121  : 		initialise_speech_data (a, o, SPEECH_SYSTEM_FLARE_DISPENSER_DAMAGED, 				SOUND_SAMPLE_INDEX_SPEECH_US_SYSTEM_WARN_27, SOUND_SAMPLE_INDEX_SPEECH_CIS_SYSTEM_WARN_27);

  0027c	68 1e 06 00 00	 push	 1566			; 0000061eH
  00281	68 f3 05 00 00	 push	 1523			; 000005f3H
  00286	6a 1a		 push	 26			; 0000001aH
  00288	8b 45 f8	 mov	 eax, DWORD PTR _o$[ebp]
  0028b	50		 push	 eax
  0028c	8b 4d fc	 mov	 ecx, DWORD PTR _a$[ebp]
  0028f	51		 push	 ecx
  00290	e8 00 00 00 00	 call	 ?initialise_speech_data@@YGXW4speech_array_types@@W4speech_originator_types@@HHH@Z ; initialise_speech_data

; 122  : 		initialise_speech_data (a, o, SPEECH_SYSTEM_MAIN_ROTOR_DAMAGED, 						SOUND_SAMPLE_INDEX_SPEECH_US_SYSTEM_WARN_28, SOUND_SAMPLE_INDEX_SPEECH_CIS_SYSTEM_WARN_28);

  00295	68 1f 06 00 00	 push	 1567			; 0000061fH
  0029a	68 f4 05 00 00	 push	 1524			; 000005f4H
  0029f	6a 1b		 push	 27			; 0000001bH
  002a1	8b 45 f8	 mov	 eax, DWORD PTR _o$[ebp]
  002a4	50		 push	 eax
  002a5	8b 4d fc	 mov	 ecx, DWORD PTR _a$[ebp]
  002a8	51		 push	 ecx
  002a9	e8 00 00 00 00	 call	 ?initialise_speech_data@@YGXW4speech_array_types@@W4speech_originator_types@@HHH@Z ; initialise_speech_data

; 123  : 		initialise_speech_data (a, o, SPEECH_SYSTEM_TAIL_ROTOR_DAMAGED, 						SOUND_SAMPLE_INDEX_SPEECH_US_SYSTEM_WARN_29, SOUND_SAMPLE_INDEX_SPEECH_CIS_SYSTEM_WARN_29);

  002ae	68 20 06 00 00	 push	 1568			; 00000620H
  002b3	68 f5 05 00 00	 push	 1525			; 000005f5H
  002b8	6a 1c		 push	 28			; 0000001cH
  002ba	8b 45 f8	 mov	 eax, DWORD PTR _o$[ebp]
  002bd	50		 push	 eax
  002be	8b 4d fc	 mov	 ecx, DWORD PTR _a$[ebp]
  002c1	51		 push	 ecx
  002c2	e8 00 00 00 00	 call	 ?initialise_speech_data@@YGXW4speech_array_types@@W4speech_originator_types@@HHH@Z ; initialise_speech_data

; 124  : 		initialise_speech_data (a, o, SPEECH_SYSTEM_LEFT_ENGINE_FAILURE, 						SOUND_SAMPLE_INDEX_SPEECH_US_SYSTEM_WARN_30, SOUND_SAMPLE_INDEX_SPEECH_CIS_SYSTEM_WARN_30);

  002c7	68 21 06 00 00	 push	 1569			; 00000621H
  002cc	68 f6 05 00 00	 push	 1526			; 000005f6H
  002d1	6a 1d		 push	 29			; 0000001dH
  002d3	8b 45 f8	 mov	 eax, DWORD PTR _o$[ebp]
  002d6	50		 push	 eax
  002d7	8b 4d fc	 mov	 ecx, DWORD PTR _a$[ebp]
  002da	51		 push	 ecx
  002db	e8 00 00 00 00	 call	 ?initialise_speech_data@@YGXW4speech_array_types@@W4speech_originator_types@@HHH@Z ; initialise_speech_data

; 125  : 		initialise_speech_data (a, o, SPEECH_SYSTEM_RIGHT_ENGINE_FAILURE, 					SOUND_SAMPLE_INDEX_SPEECH_US_SYSTEM_WARN_31, SOUND_SAMPLE_INDEX_SPEECH_CIS_SYSTEM_WARN_31);

  002e0	68 22 06 00 00	 push	 1570			; 00000622H
  002e5	68 f7 05 00 00	 push	 1527			; 000005f7H
  002ea	6a 1e		 push	 30			; 0000001eH
  002ec	8b 45 f8	 mov	 eax, DWORD PTR _o$[ebp]
  002ef	50		 push	 eax
  002f0	8b 4d fc	 mov	 ecx, DWORD PTR _a$[ebp]
  002f3	51		 push	 ecx
  002f4	e8 00 00 00 00	 call	 ?initialise_speech_data@@YGXW4speech_array_types@@W4speech_originator_types@@HHH@Z ; initialise_speech_data

; 126  : 		initialise_speech_data (a, o, SPEECH_SYSTEM_LEFT_ENGINE_FIRE, 							SOUND_SAMPLE_INDEX_SPEECH_US_SYSTEM_WARN_32, SOUND_SAMPLE_INDEX_SPEECH_CIS_SYSTEM_WARN_32);

  002f9	68 23 06 00 00	 push	 1571			; 00000623H
  002fe	68 f8 05 00 00	 push	 1528			; 000005f8H
  00303	6a 1f		 push	 31			; 0000001fH
  00305	8b 45 f8	 mov	 eax, DWORD PTR _o$[ebp]
  00308	50		 push	 eax
  00309	8b 4d fc	 mov	 ecx, DWORD PTR _a$[ebp]
  0030c	51		 push	 ecx
  0030d	e8 00 00 00 00	 call	 ?initialise_speech_data@@YGXW4speech_array_types@@W4speech_originator_types@@HHH@Z ; initialise_speech_data

; 127  : 		initialise_speech_data (a, o, SPEECH_SYSTEM_RIGHT_ENGINE_FIRE, 						SOUND_SAMPLE_INDEX_SPEECH_US_SYSTEM_WARN_33, SOUND_SAMPLE_INDEX_SPEECH_CIS_SYSTEM_WARN_33);

  00312	68 24 06 00 00	 push	 1572			; 00000624H
  00317	68 f9 05 00 00	 push	 1529			; 000005f9H
  0031c	6a 20		 push	 32			; 00000020H
  0031e	8b 45 f8	 mov	 eax, DWORD PTR _o$[ebp]
  00321	50		 push	 eax
  00322	8b 4d fc	 mov	 ecx, DWORD PTR _a$[ebp]
  00325	51		 push	 ecx
  00326	e8 00 00 00 00	 call	 ?initialise_speech_data@@YGXW4speech_array_types@@W4speech_originator_types@@HHH@Z ; initialise_speech_data

; 128  : 		initialise_speech_data (a, o, SPEECH_SYSTEM_HYDRAULIC_PRESSURE_FAILURE, 			SOUND_SAMPLE_INDEX_SPEECH_US_SYSTEM_WARN_34, SOUND_SAMPLE_INDEX_SPEECH_CIS_SYSTEM_WARN_34);

  0032b	68 25 06 00 00	 push	 1573			; 00000625H
  00330	68 fa 05 00 00	 push	 1530			; 000005faH
  00335	6a 21		 push	 33			; 00000021H
  00337	8b 45 f8	 mov	 eax, DWORD PTR _o$[ebp]
  0033a	50		 push	 eax
  0033b	8b 4d fc	 mov	 ecx, DWORD PTR _a$[ebp]
  0033e	51		 push	 ecx
  0033f	e8 00 00 00 00	 call	 ?initialise_speech_data@@YGXW4speech_array_types@@W4speech_originator_types@@HHH@Z ; initialise_speech_data

; 129  : 		initialise_speech_data (a, o, SPEECH_SYSTEM_STABILISER_DAMAGED, 						SOUND_SAMPLE_INDEX_SPEECH_US_SYSTEM_WARN_35, SOUND_SAMPLE_INDEX_SPEECH_CIS_SYSTEM_WARN_35);

  00344	68 26 06 00 00	 push	 1574			; 00000626H
  00349	68 fb 05 00 00	 push	 1531			; 000005fbH
  0034e	6a 22		 push	 34			; 00000022H
  00350	8b 45 f8	 mov	 eax, DWORD PTR _o$[ebp]
  00353	50		 push	 eax
  00354	8b 4d fc	 mov	 ecx, DWORD PTR _a$[ebp]
  00357	51		 push	 ecx
  00358	e8 00 00 00 00	 call	 ?initialise_speech_data@@YGXW4speech_array_types@@W4speech_originator_types@@HHH@Z ; initialise_speech_data

; 130  : 		initialise_speech_data (a, o, SPEECH_SYSTEM_FUEL_LEAK, 									SOUND_SAMPLE_INDEX_SPEECH_US_SYSTEM_WARN_36, SOUND_SAMPLE_INDEX_SPEECH_CIS_SYSTEM_WARN_36);

  0035d	68 27 06 00 00	 push	 1575			; 00000627H
  00362	68 fc 05 00 00	 push	 1532			; 000005fcH
  00367	6a 23		 push	 35			; 00000023H
  00369	8b 45 f8	 mov	 eax, DWORD PTR _o$[ebp]
  0036c	50		 push	 eax
  0036d	8b 4d fc	 mov	 ecx, DWORD PTR _a$[ebp]
  00370	51		 push	 ecx
  00371	e8 00 00 00 00	 call	 ?initialise_speech_data@@YGXW4speech_array_types@@W4speech_originator_types@@HHH@Z ; initialise_speech_data

; 131  : 		initialise_speech_data (a, o, SPEECH_SYSTEM_LOW_ENGINE_OIL_PRESSURE, 				SOUND_SAMPLE_INDEX_SPEECH_US_SYSTEM_WARN_37, SOUND_SAMPLE_INDEX_SPEECH_CIS_SYSTEM_WARN_37);

  00376	68 28 06 00 00	 push	 1576			; 00000628H
  0037b	68 fd 05 00 00	 push	 1533			; 000005fdH
  00380	6a 24		 push	 36			; 00000024H
  00382	8b 45 f8	 mov	 eax, DWORD PTR _o$[ebp]
  00385	50		 push	 eax
  00386	8b 4d fc	 mov	 ecx, DWORD PTR _a$[ebp]
  00389	51		 push	 ecx
  0038a	e8 00 00 00 00	 call	 ?initialise_speech_data@@YGXW4speech_array_types@@W4speech_originator_types@@HHH@Z ; initialise_speech_data

; 132  : 		initialise_speech_data (a, o, SPEECH_SYSTEM_HIGH_ENGINE_OIL_TEMPERATURE, 			SOUND_SAMPLE_INDEX_SPEECH_US_SYSTEM_WARN_38, SOUND_SAMPLE_INDEX_SPEECH_CIS_SYSTEM_WARN_38);

  0038f	68 29 06 00 00	 push	 1577			; 00000629H
  00394	68 fe 05 00 00	 push	 1534			; 000005feH
  00399	6a 25		 push	 37			; 00000025H
  0039b	8b 45 f8	 mov	 eax, DWORD PTR _o$[ebp]
  0039e	50		 push	 eax
  0039f	8b 4d fc	 mov	 ecx, DWORD PTR _a$[ebp]
  003a2	51		 push	 ecx
  003a3	e8 00 00 00 00	 call	 ?initialise_speech_data@@YGXW4speech_array_types@@W4speech_originator_types@@HHH@Z ; initialise_speech_data

; 133  : 		initialise_speech_data (a, o, SPEECH_SYSTEM_GEAR_DAMAGED, 								SOUND_SAMPLE_INDEX_SPEECH_US_SYSTEM_WARN_39, SOUND_SAMPLE_INDEX_SPEECH_CIS_SYSTEM_WARN_39);

  003a8	68 2a 06 00 00	 push	 1578			; 0000062aH
  003ad	68 ff 05 00 00	 push	 1535			; 000005ffH
  003b2	6a 26		 push	 38			; 00000026H
  003b4	8b 45 f8	 mov	 eax, DWORD PTR _o$[ebp]
  003b7	50		 push	 eax
  003b8	8b 4d fc	 mov	 ecx, DWORD PTR _a$[ebp]
  003bb	51		 push	 ecx
  003bc	e8 00 00 00 00	 call	 ?initialise_speech_data@@YGXW4speech_array_types@@W4speech_originator_types@@HHH@Z ; initialise_speech_data

; 134  : 		initialise_speech_data (a, o, SPEECH_SYSTEM_FUEL_LOW, 									SOUND_SAMPLE_INDEX_SPEECH_US_SYSTEM_WARN_40, SOUND_SAMPLE_INDEX_SPEECH_CIS_SYSTEM_WARN_40);

  003c1	68 2b 06 00 00	 push	 1579			; 0000062bH
  003c6	68 00 06 00 00	 push	 1536			; 00000600H
  003cb	6a 27		 push	 39			; 00000027H
  003cd	8b 45 f8	 mov	 eax, DWORD PTR _o$[ebp]
  003d0	50		 push	 eax
  003d1	8b 4d fc	 mov	 ecx, DWORD PTR _a$[ebp]
  003d4	51		 push	 ecx
  003d5	e8 00 00 00 00	 call	 ?initialise_speech_data@@YGXW4speech_array_types@@W4speech_originator_types@@HHH@Z ; initialise_speech_data

; 135  : 		initialise_speech_data (a, o, SPEECH_SYSTEM_ENGINE_OVERTORQUE, 						SOUND_SAMPLE_INDEX_SPEECH_US_SYSTEM_WARN_41, SOUND_SAMPLE_INDEX_SPEECH_CIS_SYSTEM_WARN_41);

  003da	68 2c 06 00 00	 push	 1580			; 0000062cH
  003df	68 01 06 00 00	 push	 1537			; 00000601H
  003e4	6a 28		 push	 40			; 00000028H
  003e6	8b 45 f8	 mov	 eax, DWORD PTR _o$[ebp]
  003e9	50		 push	 eax
  003ea	8b 4d fc	 mov	 ecx, DWORD PTR _a$[ebp]
  003ed	51		 push	 ecx
  003ee	e8 00 00 00 00	 call	 ?initialise_speech_data@@YGXW4speech_array_types@@W4speech_originator_types@@HHH@Z ; initialise_speech_data

; 136  : 		initialise_speech_data (a, o, SPEECH_SYSTEM_LOW_ROTOR_RPM, 								SOUND_SAMPLE_INDEX_SPEECH_US_SYSTEM_WARN_42, SOUND_SAMPLE_INDEX_SPEECH_CIS_SYSTEM_WARN_42);

  003f3	68 2d 06 00 00	 push	 1581			; 0000062dH
  003f8	68 02 06 00 00	 push	 1538			; 00000602H
  003fd	6a 29		 push	 41			; 00000029H
  003ff	8b 45 f8	 mov	 eax, DWORD PTR _o$[ebp]
  00402	50		 push	 eax
  00403	8b 4d fc	 mov	 ecx, DWORD PTR _a$[ebp]
  00406	51		 push	 ecx
  00407	e8 00 00 00 00	 call	 ?initialise_speech_data@@YGXW4speech_array_types@@W4speech_originator_types@@HHH@Z ; initialise_speech_data

; 137  : 		initialise_speech_data (a, o, SPEECH_SYSTEM_ROTOR_OVERSPEED, 							SOUND_SAMPLE_INDEX_SPEECH_US_SYSTEM_WARN_43, SOUND_SAMPLE_INDEX_SPEECH_CIS_SYSTEM_WARN_43);

  0040c	68 2e 06 00 00	 push	 1582			; 0000062eH
  00411	68 03 06 00 00	 push	 1539			; 00000603H
  00416	6a 2a		 push	 42			; 0000002aH
  00418	8b 45 f8	 mov	 eax, DWORD PTR _o$[ebp]
  0041b	50		 push	 eax
  0041c	8b 4d fc	 mov	 ecx, DWORD PTR _a$[ebp]
  0041f	51		 push	 ecx
  00420	e8 00 00 00 00	 call	 ?initialise_speech_data@@YGXW4speech_array_types@@W4speech_originator_types@@HHH@Z ; initialise_speech_data

; 138  : 	}
; 139  : }

  00425	5f		 pop	 edi
  00426	5e		 pop	 esi
  00427	5b		 pop	 ebx
  00428	8b e5		 mov	 esp, ebp
  0042a	5d		 pop	 ebp
  0042b	c3		 ret	 0
?initialise_speech_system_data@@YGXXZ ENDP		; initialise_speech_system_data
_TEXT	ENDS
END
