; Listing generated by Microsoft (R) Optimizing Compiler Version 19.16.27045.0 

	TITLE	C:\Users\nhv90\Projects\eech\aphavoc\source\entity\special\effect\soundeff\spch_gc.c
	.686P
	.XMM
	include listing.inc
	.model	flat

INCLUDELIB MSVCRTD
INCLUDELIB OLDNAMES

PUBLIC	?initialise_speech_gc_data@@YGXXZ		; initialise_speech_gc_data
EXTRN	?initialise_sample_index_array@@YGXW4speech_array_types@@W4speech_originator_types@@H@Z:PROC ; initialise_sample_index_array
EXTRN	?initialise_speech_data@@YGXW4speech_array_types@@W4speech_originator_types@@HHH@Z:PROC ; initialise_speech_data
; Function compile flags: /Odtp /ZI
; File c:\users\nhv90\projects\eech\aphavoc\source\entity\special\effect\soundeff\spch_gc.c
;	COMDAT ?initialise_speech_gc_data@@YGXXZ
_TEXT	SEGMENT
_max_items$ = -12					; size = 4
_o$ = -8						; size = 4
_a$ = -4						; size = 4
?initialise_speech_gc_data@@YGXXZ PROC			; initialise_speech_gc_data, COMDAT

; 77   : {

  00000	55		 push	 ebp
  00001	8b ec		 mov	 ebp, esp
  00003	83 ec 4c	 sub	 esp, 76			; 0000004cH
  00006	53		 push	 ebx
  00007	56		 push	 esi
  00008	57		 push	 edi

; 78   : 	speech_array_types
; 79   : 		a = SPEECH_ARRAY_GC_MESSAGES;

  00009	c7 45 fc 05 00
	00 00		 mov	 DWORD PTR _a$[ebp], 5

; 80   : 
; 81   : 	speech_originator_types
; 82   : 		o;
; 83   : 
; 84   : 	int
; 85   : 		max_items = NUM_SPEECH_GC_MESSAGES;

  00010	c7 45 f4 0c 00
	00 00		 mov	 DWORD PTR _max_items$[ebp], 12 ; 0000000cH

; 86   : 
; 87   : 	//
; 88   : 	// GROUND CONTROLLER
; 89   : 	//
; 90   : 	{	
; 91   : 		o = SPEECH_ORIGINATOR_GROUND_CONTROLLER;

  00017	c7 45 f8 06 00
	00 00		 mov	 DWORD PTR _o$[ebp], 6

; 92   : 		
; 93   : 		initialise_sample_index_array (a, o, max_items);

  0001e	8b 45 f4	 mov	 eax, DWORD PTR _max_items$[ebp]
  00021	50		 push	 eax
  00022	8b 4d f8	 mov	 ecx, DWORD PTR _o$[ebp]
  00025	51		 push	 ecx
  00026	8b 55 fc	 mov	 edx, DWORD PTR _a$[ebp]
  00029	52		 push	 edx
  0002a	e8 00 00 00 00	 call	 ?initialise_sample_index_array@@YGXW4speech_array_types@@W4speech_originator_types@@H@Z ; initialise_sample_index_array

; 94   : 
; 95   : 		#if !DEMO_VERSION
; 96   : 
; 97   : 		initialise_speech_data (a, o, SPEECH_GC_INTRODUCTION, 							SOUND_SAMPLE_INDEX_SPEECH_US_GC_GC_01, SOUND_SAMPLE_INDEX_SPEECH_CIS_GC_GC_01);

  0002f	68 bf 01 00 00	 push	 447			; 000001bfH
  00034	68 7d 01 00 00	 push	 381			; 0000017dH
  00039	6a 00		 push	 0
  0003b	8b 45 f8	 mov	 eax, DWORD PTR _o$[ebp]
  0003e	50		 push	 eax
  0003f	8b 4d fc	 mov	 ecx, DWORD PTR _a$[ebp]
  00042	51		 push	 ecx
  00043	e8 00 00 00 00	 call	 ?initialise_speech_data@@YGXW4speech_array_types@@W4speech_originator_types@@HHH@Z ; initialise_speech_data

; 98   : 		initialise_speech_data (a, o, SPEECH_GC_REQUEST_SUPPORT_AT, 					SOUND_SAMPLE_INDEX_SPEECH_US_GC_GC_02, SOUND_SAMPLE_INDEX_SPEECH_CIS_GC_GC_02);

  00048	68 c0 01 00 00	 push	 448			; 000001c0H
  0004d	68 7e 01 00 00	 push	 382			; 0000017eH
  00052	6a 01		 push	 1
  00054	8b 45 f8	 mov	 eax, DWORD PTR _o$[ebp]
  00057	50		 push	 eax
  00058	8b 4d fc	 mov	 ecx, DWORD PTR _a$[ebp]
  0005b	51		 push	 ecx
  0005c	e8 00 00 00 00	 call	 ?initialise_speech_data@@YGXW4speech_array_types@@W4speech_originator_types@@HHH@Z ; initialise_speech_data

; 99   : 		initialise_speech_data (a, o, SPEECH_GC_PINNED_DOWN_AT, 							SOUND_SAMPLE_INDEX_SPEECH_US_GC_GC_03, SOUND_SAMPLE_INDEX_SPEECH_CIS_GC_GC_03);

  00061	68 c1 01 00 00	 push	 449			; 000001c1H
  00066	68 7f 01 00 00	 push	 383			; 0000017fH
  0006b	6a 02		 push	 2
  0006d	8b 45 f8	 mov	 eax, DWORD PTR _o$[ebp]
  00070	50		 push	 eax
  00071	8b 4d fc	 mov	 ecx, DWORD PTR _a$[ebp]
  00074	51		 push	 ecx
  00075	e8 00 00 00 00	 call	 ?initialise_speech_data@@YGXW4speech_array_types@@W4speech_originator_types@@HHH@Z ; initialise_speech_data

; 100  : 		initialise_speech_data (a, o, SPEECH_GC_NEED_AIR_SUPPORT_AT, 					SOUND_SAMPLE_INDEX_SPEECH_US_GC_GC_04, SOUND_SAMPLE_INDEX_SPEECH_CIS_GC_GC_04);

  0007a	68 c2 01 00 00	 push	 450			; 000001c2H
  0007f	68 80 01 00 00	 push	 384			; 00000180H
  00084	6a 03		 push	 3
  00086	8b 45 f8	 mov	 eax, DWORD PTR _o$[ebp]
  00089	50		 push	 eax
  0008a	8b 4d fc	 mov	 ecx, DWORD PTR _a$[ebp]
  0008d	51		 push	 ecx
  0008e	e8 00 00 00 00	 call	 ?initialise_speech_data@@YGXW4speech_array_types@@W4speech_originator_types@@HHH@Z ; initialise_speech_data

; 101  : 		initialise_speech_data (a, o, SPEECH_GC_UNDER_HEAVY_FIRE, 						SOUND_SAMPLE_INDEX_SPEECH_US_GC_GC_05, SOUND_SAMPLE_INDEX_SPEECH_CIS_GC_GC_05);

  00093	68 c3 01 00 00	 push	 451			; 000001c3H
  00098	68 81 01 00 00	 push	 385			; 00000181H
  0009d	6a 04		 push	 4
  0009f	8b 45 f8	 mov	 eax, DWORD PTR _o$[ebp]
  000a2	50		 push	 eax
  000a3	8b 4d fc	 mov	 ecx, DWORD PTR _a$[ebp]
  000a6	51		 push	 ecx
  000a7	e8 00 00 00 00	 call	 ?initialise_speech_data@@YGXW4speech_array_types@@W4speech_originator_types@@HHH@Z ; initialise_speech_data

; 102  : 		initialise_speech_data (a, o, SPEECH_GC_INCOMING_ENEMY_AIRCRAFT_HEADING, 	SOUND_SAMPLE_INDEX_SPEECH_US_GC_GC_06, SOUND_SAMPLE_INDEX_SPEECH_CIS_GC_GC_06);

  000ac	68 c4 01 00 00	 push	 452			; 000001c4H
  000b1	68 82 01 00 00	 push	 386			; 00000182H
  000b6	6a 05		 push	 5
  000b8	8b 45 f8	 mov	 eax, DWORD PTR _o$[ebp]
  000bb	50		 push	 eax
  000bc	8b 4d fc	 mov	 ecx, DWORD PTR _a$[ebp]
  000bf	51		 push	 ecx
  000c0	e8 00 00 00 00	 call	 ?initialise_speech_data@@YGXW4speech_array_types@@W4speech_originator_types@@HHH@Z ; initialise_speech_data

; 103  : 		initialise_speech_data (a, o, SPEECH_GC_INCOMING_ENEMY_GROUND_UNITS_AT, 	SOUND_SAMPLE_INDEX_SPEECH_US_GC_GC_07, SOUND_SAMPLE_INDEX_SPEECH_CIS_GC_GC_07);

  000c5	68 c5 01 00 00	 push	 453			; 000001c5H
  000ca	68 83 01 00 00	 push	 387			; 00000183H
  000cf	6a 06		 push	 6
  000d1	8b 45 f8	 mov	 eax, DWORD PTR _o$[ebp]
  000d4	50		 push	 eax
  000d5	8b 4d fc	 mov	 ecx, DWORD PTR _a$[ebp]
  000d8	51		 push	 ecx
  000d9	e8 00 00 00 00	 call	 ?initialise_speech_data@@YGXW4speech_array_types@@W4speech_originator_types@@HHH@Z ; initialise_speech_data

; 104  : 		initialise_speech_data (a, o, SPEECH_GC_ADVANCING_TO, 							SOUND_SAMPLE_INDEX_SPEECH_US_GC_GC_08, SOUND_SAMPLE_INDEX_SPEECH_CIS_GC_GC_08);

  000de	68 c6 01 00 00	 push	 454			; 000001c6H
  000e3	68 84 01 00 00	 push	 388			; 00000184H
  000e8	6a 07		 push	 7
  000ea	8b 45 f8	 mov	 eax, DWORD PTR _o$[ebp]
  000ed	50		 push	 eax
  000ee	8b 4d fc	 mov	 ecx, DWORD PTR _a$[ebp]
  000f1	51		 push	 ecx
  000f2	e8 00 00 00 00	 call	 ?initialise_speech_data@@YGXW4speech_array_types@@W4speech_originator_types@@HHH@Z ; initialise_speech_data

; 105  : 		initialise_speech_data (a, o, SPEECH_GC_RETREATING_TO, 							SOUND_SAMPLE_INDEX_SPEECH_US_GC_GC_09, SOUND_SAMPLE_INDEX_SPEECH_CIS_GC_GC_09);

  000f7	68 c7 01 00 00	 push	 455			; 000001c7H
  000fc	68 85 01 00 00	 push	 389			; 00000185H
  00101	6a 08		 push	 8
  00103	8b 45 f8	 mov	 eax, DWORD PTR _o$[ebp]
  00106	50		 push	 eax
  00107	8b 4d fc	 mov	 ecx, DWORD PTR _a$[ebp]
  0010a	51		 push	 ecx
  0010b	e8 00 00 00 00	 call	 ?initialise_speech_data@@YGXW4speech_array_types@@W4speech_originator_types@@HHH@Z ; initialise_speech_data

; 106  : 		initialise_speech_data (a, o, SPEECH_GC_FIRE_MISSION_RECEIVED, 				SOUND_SAMPLE_INDEX_SPEECH_US_GC_GC_10, SOUND_SAMPLE_INDEX_SPEECH_CIS_GC_GC_10);

  00110	68 c8 01 00 00	 push	 456			; 000001c8H
  00115	68 86 01 00 00	 push	 390			; 00000186H
  0011a	6a 09		 push	 9
  0011c	8b 45 f8	 mov	 eax, DWORD PTR _o$[ebp]
  0011f	50		 push	 eax
  00120	8b 4d fc	 mov	 ecx, DWORD PTR _a$[ebp]
  00123	51		 push	 ecx
  00124	e8 00 00 00 00	 call	 ?initialise_speech_data@@YGXW4speech_array_types@@W4speech_originator_types@@HHH@Z ; initialise_speech_data

; 107  : 		initialise_speech_data (a, o, SPEECH_GC_ARTILLERY_SHIFTING_POSITION, 		SOUND_SAMPLE_INDEX_SPEECH_US_GC_GC_11, SOUND_SAMPLE_INDEX_SPEECH_CIS_GC_GC_11);

  00129	68 c9 01 00 00	 push	 457			; 000001c9H
  0012e	68 87 01 00 00	 push	 391			; 00000187H
  00133	6a 0a		 push	 10			; 0000000aH
  00135	8b 45 f8	 mov	 eax, DWORD PTR _o$[ebp]
  00138	50		 push	 eax
  00139	8b 4d fc	 mov	 ecx, DWORD PTR _a$[ebp]
  0013c	51		 push	 ecx
  0013d	e8 00 00 00 00	 call	 ?initialise_speech_data@@YGXW4speech_array_types@@W4speech_originator_types@@HHH@Z ; initialise_speech_data

; 108  : 		initialise_speech_data (a, o, SPEECH_GC_ARTILLERY_BUSY, 							SOUND_SAMPLE_INDEX_SPEECH_US_GC_GC_12, SOUND_SAMPLE_INDEX_SPEECH_CIS_GC_GC_12);

  00142	68 ca 01 00 00	 push	 458			; 000001caH
  00147	68 88 01 00 00	 push	 392			; 00000188H
  0014c	6a 0b		 push	 11			; 0000000bH
  0014e	8b 45 f8	 mov	 eax, DWORD PTR _o$[ebp]
  00151	50		 push	 eax
  00152	8b 4d fc	 mov	 ecx, DWORD PTR _a$[ebp]
  00155	51		 push	 ecx
  00156	e8 00 00 00 00	 call	 ?initialise_speech_data@@YGXW4speech_array_types@@W4speech_originator_types@@HHH@Z ; initialise_speech_data

; 109  : 
; 110  : 		#endif
; 111  : 	}
; 112  : }

  0015b	5f		 pop	 edi
  0015c	5e		 pop	 esi
  0015d	5b		 pop	 ebx
  0015e	8b e5		 mov	 esp, ebp
  00160	5d		 pop	 ebp
  00161	c3		 ret	 0
?initialise_speech_gc_data@@YGXXZ ENDP			; initialise_speech_gc_data
_TEXT	ENDS
END
