; Listing generated by Microsoft (R) Optimizing Compiler Version 19.16.27045.0 

	TITLE	C:\Users\nhv90\Projects\eech\aphavoc\source\entity\special\effect\soundeff\spch_cal.c
	.686P
	.XMM
	include listing.inc
	.model	flat

INCLUDELIB MSVCRTD
INCLUDELIB OLDNAMES

PUBLIC	?initialise_speech_callsign_data@@YGXXZ		; initialise_speech_callsign_data
EXTRN	?initialise_sample_index_array@@YGXW4speech_array_types@@W4speech_originator_types@@H@Z:PROC ; initialise_sample_index_array
EXTRN	?initialise_speech_data@@YGXW4speech_array_types@@W4speech_originator_types@@HHH@Z:PROC ; initialise_speech_data
; Function compile flags: /Odtp /ZI
; File c:\users\nhv90\projects\eech\aphavoc\source\entity\special\effect\soundeff\spch_cal.c
;	COMDAT ?initialise_speech_callsign_data@@YGXXZ
_TEXT	SEGMENT
_max_items$ = -12					; size = 4
_o$ = -8						; size = 4
_a$ = -4						; size = 4
?initialise_speech_callsign_data@@YGXXZ PROC		; initialise_speech_callsign_data, COMDAT

; 77   : {

  00000	55		 push	 ebp
  00001	8b ec		 mov	 ebp, esp
  00003	83 ec 4c	 sub	 esp, 76			; 0000004cH
  00006	53		 push	 ebx
  00007	56		 push	 esi
  00008	57		 push	 edi

; 78   : 	speech_array_types
; 79   : 		a = SPEECH_ARRAY_CALLSIGNS;

  00009	c7 45 fc 03 00
	00 00		 mov	 DWORD PTR _a$[ebp], 3

; 80   : 
; 81   : 	speech_originator_types
; 82   : 		o;
; 83   : 
; 84   : 	int
; 85   : 		max_items = NUM_GROUP_CALLSIGNS;

  00010	c7 45 f4 5a 00
	00 00		 mov	 DWORD PTR _max_items$[ebp], 90 ; 0000005aH

; 86   : 
; 87   : 	//
; 88   : 	// SYSTEM
; 89   : 	//
; 90   : 	{				
; 91   : 		o = SPEECH_ORIGINATOR_SYSTEM;

  00017	c7 45 f8 00 00
	00 00		 mov	 DWORD PTR _o$[ebp], 0

; 92   : 	
; 93   : 		initialise_sample_index_array (a, o, max_items);

  0001e	8b 45 f4	 mov	 eax, DWORD PTR _max_items$[ebp]
  00021	50		 push	 eax
  00022	8b 4d f8	 mov	 ecx, DWORD PTR _o$[ebp]
  00025	51		 push	 ecx
  00026	8b 55 fc	 mov	 edx, DWORD PTR _a$[ebp]
  00029	52		 push	 edx
  0002a	e8 00 00 00 00	 call	 ?initialise_sample_index_array@@YGXW4speech_array_types@@W4speech_originator_types@@H@Z ; initialise_sample_index_array

; 94   : 	}
; 95   : 
; 96   : 	//
; 97   : 	// CO PILOT
; 98   : 	//
; 99   : 	{	
; 100  : 		o = SPEECH_ORIGINATOR_CO_PILOT;

  0002f	c7 45 f8 01 00
	00 00		 mov	 DWORD PTR _o$[ebp], 1

; 101  : 		
; 102  : 		initialise_sample_index_array (a, o, max_items);

  00036	8b 45 f4	 mov	 eax, DWORD PTR _max_items$[ebp]
  00039	50		 push	 eax
  0003a	8b 4d f8	 mov	 ecx, DWORD PTR _o$[ebp]
  0003d	51		 push	 ecx
  0003e	8b 55 fc	 mov	 edx, DWORD PTR _a$[ebp]
  00041	52		 push	 edx
  00042	e8 00 00 00 00	 call	 ?initialise_sample_index_array@@YGXW4speech_array_types@@W4speech_originator_types@@H@Z ; initialise_sample_index_array

; 103  : 	}
; 104  : 
; 105  : 	//
; 106  : 	// WINGMAN 
; 107  : 	//
; 108  : 	{	
; 109  : 		o = SPEECH_ORIGINATOR_WINGMAN1;

  00047	c7 45 f8 02 00
	00 00		 mov	 DWORD PTR _o$[ebp], 2

; 110  : 		
; 111  : 		initialise_sample_index_array (a, o, max_items);

  0004e	8b 45 f4	 mov	 eax, DWORD PTR _max_items$[ebp]
  00051	50		 push	 eax
  00052	8b 4d f8	 mov	 ecx, DWORD PTR _o$[ebp]
  00055	51		 push	 ecx
  00056	8b 55 fc	 mov	 edx, DWORD PTR _a$[ebp]
  00059	52		 push	 edx
  0005a	e8 00 00 00 00	 call	 ?initialise_sample_index_array@@YGXW4speech_array_types@@W4speech_originator_types@@H@Z ; initialise_sample_index_array

; 112  : 
; 113  : 		#if !DEMO_VERSION
; 114  : 
; 115  : 		initialise_speech_data (a, o, GROUP_CALLSIGN_ANGEL, 				SOUND_SAMPLE_INDEX_SPEECH_US_WINGMAN1_ANGEL, SOUND_SAMPLE_INDEX_SPEECH_CIS_WINGMAN1_ANGEL);

  0005f	68 be 02 00 00	 push	 702			; 000002beH
  00064	68 f4 01 00 00	 push	 500			; 000001f4H
  00069	6a 00		 push	 0
  0006b	8b 45 f8	 mov	 eax, DWORD PTR _o$[ebp]
  0006e	50		 push	 eax
  0006f	8b 4d fc	 mov	 ecx, DWORD PTR _a$[ebp]
  00072	51		 push	 ecx
  00073	e8 00 00 00 00	 call	 ?initialise_speech_data@@YGXW4speech_array_types@@W4speech_originator_types@@HHH@Z ; initialise_speech_data

; 116  : 		initialise_speech_data (a, o, GROUP_CALLSIGN_APOLLO, 				SOUND_SAMPLE_INDEX_SPEECH_US_WINGMAN1_APOLLO, SOUND_SAMPLE_INDEX_SPEECH_CIS_WINGMAN1_APOLLO);

  00078	68 bf 02 00 00	 push	 703			; 000002bfH
  0007d	68 f5 01 00 00	 push	 501			; 000001f5H
  00082	6a 01		 push	 1
  00084	8b 45 f8	 mov	 eax, DWORD PTR _o$[ebp]
  00087	50		 push	 eax
  00088	8b 4d fc	 mov	 ecx, DWORD PTR _a$[ebp]
  0008b	51		 push	 ecx
  0008c	e8 00 00 00 00	 call	 ?initialise_speech_data@@YGXW4speech_array_types@@W4speech_originator_types@@HHH@Z ; initialise_speech_data

; 117  : 		initialise_speech_data (a, o, GROUP_CALLSIGN_ARCHER, 				SOUND_SAMPLE_INDEX_SPEECH_US_WINGMAN1_ARCHER, SOUND_SAMPLE_INDEX_SPEECH_CIS_WINGMAN1_ARCHER);

  00091	68 c0 02 00 00	 push	 704			; 000002c0H
  00096	68 f6 01 00 00	 push	 502			; 000001f6H
  0009b	6a 02		 push	 2
  0009d	8b 45 f8	 mov	 eax, DWORD PTR _o$[ebp]
  000a0	50		 push	 eax
  000a1	8b 4d fc	 mov	 ecx, DWORD PTR _a$[ebp]
  000a4	51		 push	 ecx
  000a5	e8 00 00 00 00	 call	 ?initialise_speech_data@@YGXW4speech_array_types@@W4speech_originator_types@@HHH@Z ; initialise_speech_data

; 118  : 		initialise_speech_data (a, o, GROUP_CALLSIGN_BANSHEE, 			SOUND_SAMPLE_INDEX_SPEECH_US_WINGMAN1_BANSHEE, SOUND_SAMPLE_INDEX_SPEECH_CIS_WINGMAN1_BANSHEE);

  000aa	68 c1 02 00 00	 push	 705			; 000002c1H
  000af	68 f7 01 00 00	 push	 503			; 000001f7H
  000b4	6a 03		 push	 3
  000b6	8b 45 f8	 mov	 eax, DWORD PTR _o$[ebp]
  000b9	50		 push	 eax
  000ba	8b 4d fc	 mov	 ecx, DWORD PTR _a$[ebp]
  000bd	51		 push	 ecx
  000be	e8 00 00 00 00	 call	 ?initialise_speech_data@@YGXW4speech_array_types@@W4speech_originator_types@@HHH@Z ; initialise_speech_data

; 119  : 		initialise_speech_data (a, o, GROUP_CALLSIGN_BLOODHOUND, 		SOUND_SAMPLE_INDEX_SPEECH_US_WINGMAN1_BLOODHOU, SOUND_SAMPLE_INDEX_SPEECH_CIS_WINGMAN1_BLOODHOU);

  000c3	68 c3 02 00 00	 push	 707			; 000002c3H
  000c8	68 f9 01 00 00	 push	 505			; 000001f9H
  000cd	6a 04		 push	 4
  000cf	8b 45 f8	 mov	 eax, DWORD PTR _o$[ebp]
  000d2	50		 push	 eax
  000d3	8b 4d fc	 mov	 ecx, DWORD PTR _a$[ebp]
  000d6	51		 push	 ecx
  000d7	e8 00 00 00 00	 call	 ?initialise_speech_data@@YGXW4speech_array_types@@W4speech_originator_types@@HHH@Z ; initialise_speech_data

; 120  : 		initialise_speech_data (a, o, GROUP_CALLSIGN_BULLDOG, 			SOUND_SAMPLE_INDEX_SPEECH_US_WINGMAN1_BULLDOG, SOUND_SAMPLE_INDEX_SPEECH_CIS_WINGMAN1_BULLDOG);

  000dc	68 c4 02 00 00	 push	 708			; 000002c4H
  000e1	68 fa 01 00 00	 push	 506			; 000001faH
  000e6	6a 05		 push	 5
  000e8	8b 45 f8	 mov	 eax, DWORD PTR _o$[ebp]
  000eb	50		 push	 eax
  000ec	8b 4d fc	 mov	 ecx, DWORD PTR _a$[ebp]
  000ef	51		 push	 ecx
  000f0	e8 00 00 00 00	 call	 ?initialise_speech_data@@YGXW4speech_array_types@@W4speech_originator_types@@HHH@Z ; initialise_speech_data

; 121  : 		initialise_speech_data (a, o, GROUP_CALLSIGN_CHARGER, 			SOUND_SAMPLE_INDEX_SPEECH_US_WINGMAN1_CHARGER, SOUND_SAMPLE_INDEX_SPEECH_CIS_WINGMAN1_CHARGER);

  000f5	68 c5 02 00 00	 push	 709			; 000002c5H
  000fa	68 fb 01 00 00	 push	 507			; 000001fbH
  000ff	6a 06		 push	 6
  00101	8b 45 f8	 mov	 eax, DWORD PTR _o$[ebp]
  00104	50		 push	 eax
  00105	8b 4d fc	 mov	 ecx, DWORD PTR _a$[ebp]
  00108	51		 push	 ecx
  00109	e8 00 00 00 00	 call	 ?initialise_speech_data@@YGXW4speech_array_types@@W4speech_originator_types@@HHH@Z ; initialise_speech_data

; 122  : 		initialise_speech_data (a, o, GROUP_CALLSIGN_CHEETAH, 			SOUND_SAMPLE_INDEX_SPEECH_US_WINGMAN1_CHEETAH, SOUND_SAMPLE_INDEX_SPEECH_CIS_WINGMAN1_CHEETAH);

  0010e	68 c6 02 00 00	 push	 710			; 000002c6H
  00113	68 fc 01 00 00	 push	 508			; 000001fcH
  00118	6a 07		 push	 7
  0011a	8b 45 f8	 mov	 eax, DWORD PTR _o$[ebp]
  0011d	50		 push	 eax
  0011e	8b 4d fc	 mov	 ecx, DWORD PTR _a$[ebp]
  00121	51		 push	 ecx
  00122	e8 00 00 00 00	 call	 ?initialise_speech_data@@YGXW4speech_array_types@@W4speech_originator_types@@HHH@Z ; initialise_speech_data

; 123  : 		initialise_speech_data (a, o, GROUP_CALLSIGN_CHIEFTAIN, 			SOUND_SAMPLE_INDEX_SPEECH_US_WINGMAN1_CHIEFTAI, SOUND_SAMPLE_INDEX_SPEECH_CIS_WINGMAN1_CHIEFTAI);

  00127	68 c7 02 00 00	 push	 711			; 000002c7H
  0012c	68 fd 01 00 00	 push	 509			; 000001fdH
  00131	6a 08		 push	 8
  00133	8b 45 f8	 mov	 eax, DWORD PTR _o$[ebp]
  00136	50		 push	 eax
  00137	8b 4d fc	 mov	 ecx, DWORD PTR _a$[ebp]
  0013a	51		 push	 ecx
  0013b	e8 00 00 00 00	 call	 ?initialise_speech_data@@YGXW4speech_array_types@@W4speech_originator_types@@HHH@Z ; initialise_speech_data

; 124  : 		initialise_speech_data (a, o, GROUP_CALLSIGN_COBRA, 				SOUND_SAMPLE_INDEX_SPEECH_US_WINGMAN1_COBRA, SOUND_SAMPLE_INDEX_SPEECH_CIS_WINGMAN1_COBRA);

  00140	68 d4 02 00 00	 push	 724			; 000002d4H
  00145	68 0a 02 00 00	 push	 522			; 0000020aH
  0014a	6a 09		 push	 9
  0014c	8b 45 f8	 mov	 eax, DWORD PTR _o$[ebp]
  0014f	50		 push	 eax
  00150	8b 4d fc	 mov	 ecx, DWORD PTR _a$[ebp]
  00153	51		 push	 ecx
  00154	e8 00 00 00 00	 call	 ?initialise_speech_data@@YGXW4speech_array_types@@W4speech_originator_types@@HHH@Z ; initialise_speech_data

; 125  : 		initialise_speech_data (a, o, GROUP_CALLSIGN_COMET, 				SOUND_SAMPLE_INDEX_SPEECH_US_WINGMAN1_COMET, SOUND_SAMPLE_INDEX_SPEECH_CIS_WINGMAN1_COMET);

  00159	68 d5 02 00 00	 push	 725			; 000002d5H
  0015e	68 0b 02 00 00	 push	 523			; 0000020bH
  00163	6a 0a		 push	 10			; 0000000aH
  00165	8b 45 f8	 mov	 eax, DWORD PTR _o$[ebp]
  00168	50		 push	 eax
  00169	8b 4d fc	 mov	 ecx, DWORD PTR _a$[ebp]
  0016c	51		 push	 ecx
  0016d	e8 00 00 00 00	 call	 ?initialise_speech_data@@YGXW4speech_array_types@@W4speech_originator_types@@HHH@Z ; initialise_speech_data

; 126  : 		initialise_speech_data (a, o, GROUP_CALLSIGN_CONDOR, 				SOUND_SAMPLE_INDEX_SPEECH_US_WINGMAN1_CONDOR, SOUND_SAMPLE_INDEX_SPEECH_CIS_WINGMAN1_CONDOR);

  00172	68 d6 02 00 00	 push	 726			; 000002d6H
  00177	68 0c 02 00 00	 push	 524			; 0000020cH
  0017c	6a 0b		 push	 11			; 0000000bH
  0017e	8b 45 f8	 mov	 eax, DWORD PTR _o$[ebp]
  00181	50		 push	 eax
  00182	8b 4d fc	 mov	 ecx, DWORD PTR _a$[ebp]
  00185	51		 push	 ecx
  00186	e8 00 00 00 00	 call	 ?initialise_speech_data@@YGXW4speech_array_types@@W4speech_originator_types@@HHH@Z ; initialise_speech_data

; 127  : 		initialise_speech_data (a, o, GROUP_CALLSIGN_COUGAR, 				SOUND_SAMPLE_INDEX_SPEECH_US_WINGMAN1_COUGAR, SOUND_SAMPLE_INDEX_SPEECH_CIS_WINGMAN1_COUGAR);

  0018b	68 d7 02 00 00	 push	 727			; 000002d7H
  00190	68 0d 02 00 00	 push	 525			; 0000020dH
  00195	6a 0c		 push	 12			; 0000000cH
  00197	8b 45 f8	 mov	 eax, DWORD PTR _o$[ebp]
  0019a	50		 push	 eax
  0019b	8b 4d fc	 mov	 ecx, DWORD PTR _a$[ebp]
  0019e	51		 push	 ecx
  0019f	e8 00 00 00 00	 call	 ?initialise_speech_data@@YGXW4speech_array_types@@W4speech_originator_types@@HHH@Z ; initialise_speech_data

; 128  : 		initialise_speech_data (a, o, GROUP_CALLSIGN_COWBOY, 				SOUND_SAMPLE_INDEX_SPEECH_US_WINGMAN1_COWBOY, SOUND_SAMPLE_INDEX_SPEECH_CIS_WINGMAN1_COWBOY);

  001a4	68 d8 02 00 00	 push	 728			; 000002d8H
  001a9	68 0e 02 00 00	 push	 526			; 0000020eH
  001ae	6a 0d		 push	 13			; 0000000dH
  001b0	8b 45 f8	 mov	 eax, DWORD PTR _o$[ebp]
  001b3	50		 push	 eax
  001b4	8b 4d fc	 mov	 ecx, DWORD PTR _a$[ebp]
  001b7	51		 push	 ecx
  001b8	e8 00 00 00 00	 call	 ?initialise_speech_data@@YGXW4speech_array_types@@W4speech_originator_types@@HHH@Z ; initialise_speech_data

; 129  : 		initialise_speech_data (a, o, GROUP_CALLSIGN_DARKHORSE, 			SOUND_SAMPLE_INDEX_SPEECH_US_WINGMAN1_DARKHORS, SOUND_SAMPLE_INDEX_SPEECH_CIS_WINGMAN1_DARKHORS);

  001bd	68 d9 02 00 00	 push	 729			; 000002d9H
  001c2	68 0f 02 00 00	 push	 527			; 0000020fH
  001c7	6a 0e		 push	 14			; 0000000eH
  001c9	8b 45 f8	 mov	 eax, DWORD PTR _o$[ebp]
  001cc	50		 push	 eax
  001cd	8b 4d fc	 mov	 ecx, DWORD PTR _a$[ebp]
  001d0	51		 push	 ecx
  001d1	e8 00 00 00 00	 call	 ?initialise_speech_data@@YGXW4speech_array_types@@W4speech_originator_types@@HHH@Z ; initialise_speech_data

; 130  : 		initialise_speech_data (a, o, GROUP_CALLSIGN_DEMON, 				SOUND_SAMPLE_INDEX_SPEECH_US_WINGMAN1_DEMON, SOUND_SAMPLE_INDEX_SPEECH_CIS_WINGMAN1_DEMON);

  001d6	68 da 02 00 00	 push	 730			; 000002daH
  001db	68 10 02 00 00	 push	 528			; 00000210H
  001e0	6a 0f		 push	 15			; 0000000fH
  001e2	8b 45 f8	 mov	 eax, DWORD PTR _o$[ebp]
  001e5	50		 push	 eax
  001e6	8b 4d fc	 mov	 ecx, DWORD PTR _a$[ebp]
  001e9	51		 push	 ecx
  001ea	e8 00 00 00 00	 call	 ?initialise_speech_data@@YGXW4speech_array_types@@W4speech_originator_types@@HHH@Z ; initialise_speech_data

; 131  : 		initialise_speech_data (a, o, GROUP_CALLSIGN_DODGER, 				SOUND_SAMPLE_INDEX_SPEECH_US_WINGMAN1_DODGER, SOUND_SAMPLE_INDEX_SPEECH_CIS_WINGMAN1_DODGER);

  001ef	68 db 02 00 00	 push	 731			; 000002dbH
  001f4	68 11 02 00 00	 push	 529			; 00000211H
  001f9	6a 10		 push	 16			; 00000010H
  001fb	8b 45 f8	 mov	 eax, DWORD PTR _o$[ebp]
  001fe	50		 push	 eax
  001ff	8b 4d fc	 mov	 ecx, DWORD PTR _a$[ebp]
  00202	51		 push	 ecx
  00203	e8 00 00 00 00	 call	 ?initialise_speech_data@@YGXW4speech_array_types@@W4speech_originator_types@@HHH@Z ; initialise_speech_data

; 132  : 		initialise_speech_data (a, o, GROUP_CALLSIGN_DRAGON, 				SOUND_SAMPLE_INDEX_SPEECH_US_WINGMAN1_DRAGON, SOUND_SAMPLE_INDEX_SPEECH_CIS_WINGMAN1_DRAGON);

  00208	68 dc 02 00 00	 push	 732			; 000002dcH
  0020d	68 12 02 00 00	 push	 530			; 00000212H
  00212	6a 11		 push	 17			; 00000011H
  00214	8b 45 f8	 mov	 eax, DWORD PTR _o$[ebp]
  00217	50		 push	 eax
  00218	8b 4d fc	 mov	 ecx, DWORD PTR _a$[ebp]
  0021b	51		 push	 ecx
  0021c	e8 00 00 00 00	 call	 ?initialise_speech_data@@YGXW4speech_array_types@@W4speech_originator_types@@HHH@Z ; initialise_speech_data

; 133  : 		initialise_speech_data (a, o, GROUP_CALLSIGN_EAGLE, 				SOUND_SAMPLE_INDEX_SPEECH_US_WINGMAN1_EAGLE, SOUND_SAMPLE_INDEX_SPEECH_CIS_WINGMAN1_EAGLE);

  00221	68 dd 02 00 00	 push	 733			; 000002ddH
  00226	68 13 02 00 00	 push	 531			; 00000213H
  0022b	6a 12		 push	 18			; 00000012H
  0022d	8b 45 f8	 mov	 eax, DWORD PTR _o$[ebp]
  00230	50		 push	 eax
  00231	8b 4d fc	 mov	 ecx, DWORD PTR _a$[ebp]
  00234	51		 push	 ecx
  00235	e8 00 00 00 00	 call	 ?initialise_speech_data@@YGXW4speech_array_types@@W4speech_originator_types@@HHH@Z ; initialise_speech_data

; 134  : 		initialise_speech_data (a, o, GROUP_CALLSIGN_EIGHTBALL, 			SOUND_SAMPLE_INDEX_SPEECH_US_WINGMAN1_EIGHTBAL, SOUND_SAMPLE_INDEX_SPEECH_CIS_WINGMAN1_EIGHTBAL);

  0023a	68 de 02 00 00	 push	 734			; 000002deH
  0023f	68 14 02 00 00	 push	 532			; 00000214H
  00244	6a 13		 push	 19			; 00000013H
  00246	8b 45 f8	 mov	 eax, DWORD PTR _o$[ebp]
  00249	50		 push	 eax
  0024a	8b 4d fc	 mov	 ecx, DWORD PTR _a$[ebp]
  0024d	51		 push	 ecx
  0024e	e8 00 00 00 00	 call	 ?initialise_speech_data@@YGXW4speech_array_types@@W4speech_originator_types@@HHH@Z ; initialise_speech_data

; 135  : 		initialise_speech_data (a, o, GROUP_CALLSIGN_FARSIGHT, 			SOUND_SAMPLE_INDEX_SPEECH_US_WINGMAN1_FARSIGHT, SOUND_SAMPLE_INDEX_SPEECH_CIS_WINGMAN1_FARSIGHT);

  00253	68 df 02 00 00	 push	 735			; 000002dfH
  00258	68 15 02 00 00	 push	 533			; 00000215H
  0025d	6a 14		 push	 20			; 00000014H
  0025f	8b 45 f8	 mov	 eax, DWORD PTR _o$[ebp]
  00262	50		 push	 eax
  00263	8b 4d fc	 mov	 ecx, DWORD PTR _a$[ebp]
  00266	51		 push	 ecx
  00267	e8 00 00 00 00	 call	 ?initialise_speech_data@@YGXW4speech_array_types@@W4speech_originator_types@@HHH@Z ; initialise_speech_data

; 136  : 		initialise_speech_data (a, o, GROUP_CALLSIGN_FIREBALL, 			SOUND_SAMPLE_INDEX_SPEECH_US_WINGMAN1_FIREBALL, SOUND_SAMPLE_INDEX_SPEECH_CIS_WINGMAN1_FIREBALL);

  0026c	68 e0 02 00 00	 push	 736			; 000002e0H
  00271	68 16 02 00 00	 push	 534			; 00000216H
  00276	6a 15		 push	 21			; 00000015H
  00278	8b 45 f8	 mov	 eax, DWORD PTR _o$[ebp]
  0027b	50		 push	 eax
  0027c	8b 4d fc	 mov	 ecx, DWORD PTR _a$[ebp]
  0027f	51		 push	 ecx
  00280	e8 00 00 00 00	 call	 ?initialise_speech_data@@YGXW4speech_array_types@@W4speech_originator_types@@HHH@Z ; initialise_speech_data

; 137  : 		initialise_speech_data (a, o, GROUP_CALLSIGN_FIREBIRD, 			SOUND_SAMPLE_INDEX_SPEECH_US_WINGMAN1_FIREBIRD, SOUND_SAMPLE_INDEX_SPEECH_CIS_WINGMAN1_FIREBIRD);

  00285	68 e1 02 00 00	 push	 737			; 000002e1H
  0028a	68 17 02 00 00	 push	 535			; 00000217H
  0028f	6a 16		 push	 22			; 00000016H
  00291	8b 45 f8	 mov	 eax, DWORD PTR _o$[ebp]
  00294	50		 push	 eax
  00295	8b 4d fc	 mov	 ecx, DWORD PTR _a$[ebp]
  00298	51		 push	 ecx
  00299	e8 00 00 00 00	 call	 ?initialise_speech_data@@YGXW4speech_array_types@@W4speech_originator_types@@HHH@Z ; initialise_speech_data

; 138  : 		initialise_speech_data (a, o, GROUP_CALLSIGN_FIREFOX, 			SOUND_SAMPLE_INDEX_SPEECH_US_WINGMAN1_FIREFOX, SOUND_SAMPLE_INDEX_SPEECH_CIS_WINGMAN1_FIREFOX);

  0029e	68 e2 02 00 00	 push	 738			; 000002e2H
  002a3	68 18 02 00 00	 push	 536			; 00000218H
  002a8	6a 17		 push	 23			; 00000017H
  002aa	8b 45 f8	 mov	 eax, DWORD PTR _o$[ebp]
  002ad	50		 push	 eax
  002ae	8b 4d fc	 mov	 ecx, DWORD PTR _a$[ebp]
  002b1	51		 push	 ecx
  002b2	e8 00 00 00 00	 call	 ?initialise_speech_data@@YGXW4speech_array_types@@W4speech_originator_types@@HHH@Z ; initialise_speech_data

; 139  : 		initialise_speech_data (a, o, GROUP_CALLSIGN_FREELANCER, 		SOUND_SAMPLE_INDEX_SPEECH_US_WINGMAN1_FREELANC, SOUND_SAMPLE_INDEX_SPEECH_CIS_WINGMAN1_FREELANC);

  002b7	68 e3 02 00 00	 push	 739			; 000002e3H
  002bc	68 19 02 00 00	 push	 537			; 00000219H
  002c1	6a 18		 push	 24			; 00000018H
  002c3	8b 45 f8	 mov	 eax, DWORD PTR _o$[ebp]
  002c6	50		 push	 eax
  002c7	8b 4d fc	 mov	 ecx, DWORD PTR _a$[ebp]
  002ca	51		 push	 ecx
  002cb	e8 00 00 00 00	 call	 ?initialise_speech_data@@YGXW4speech_array_types@@W4speech_originator_types@@HHH@Z ; initialise_speech_data

; 140  : 		initialise_speech_data (a, o, GROUP_CALLSIGN_GATOR, 				SOUND_SAMPLE_INDEX_SPEECH_US_WINGMAN1_GATOR, SOUND_SAMPLE_INDEX_SPEECH_CIS_WINGMAN1_GATOR);

  002d0	68 e4 02 00 00	 push	 740			; 000002e4H
  002d5	68 1a 02 00 00	 push	 538			; 0000021aH
  002da	6a 19		 push	 25			; 00000019H
  002dc	8b 45 f8	 mov	 eax, DWORD PTR _o$[ebp]
  002df	50		 push	 eax
  002e0	8b 4d fc	 mov	 ecx, DWORD PTR _a$[ebp]
  002e3	51		 push	 ecx
  002e4	e8 00 00 00 00	 call	 ?initialise_speech_data@@YGXW4speech_array_types@@W4speech_originator_types@@HHH@Z ; initialise_speech_data

; 141  : 		initialise_speech_data (a, o, GROUP_CALLSIGN_GAUNTLET, 			SOUND_SAMPLE_INDEX_SPEECH_US_WINGMAN1_GAUNTLET, SOUND_SAMPLE_INDEX_SPEECH_CIS_WINGMAN1_GAUNTLET);

  002e9	68 e5 02 00 00	 push	 741			; 000002e5H
  002ee	68 1b 02 00 00	 push	 539			; 0000021bH
  002f3	6a 1a		 push	 26			; 0000001aH
  002f5	8b 45 f8	 mov	 eax, DWORD PTR _o$[ebp]
  002f8	50		 push	 eax
  002f9	8b 4d fc	 mov	 ecx, DWORD PTR _a$[ebp]
  002fc	51		 push	 ecx
  002fd	e8 00 00 00 00	 call	 ?initialise_speech_data@@YGXW4speech_array_types@@W4speech_originator_types@@HHH@Z ; initialise_speech_data

; 142  : 		initialise_speech_data (a, o, GROUP_CALLSIGN_GHOSTRIDER, 		SOUND_SAMPLE_INDEX_SPEECH_US_WINGMAN1_GHOSTRID, SOUND_SAMPLE_INDEX_SPEECH_CIS_WINGMAN1_GHOSTRID);

  00302	68 e6 02 00 00	 push	 742			; 000002e6H
  00307	68 1c 02 00 00	 push	 540			; 0000021cH
  0030c	6a 1b		 push	 27			; 0000001bH
  0030e	8b 45 f8	 mov	 eax, DWORD PTR _o$[ebp]
  00311	50		 push	 eax
  00312	8b 4d fc	 mov	 ecx, DWORD PTR _a$[ebp]
  00315	51		 push	 ecx
  00316	e8 00 00 00 00	 call	 ?initialise_speech_data@@YGXW4speech_array_types@@W4speech_originator_types@@HHH@Z ; initialise_speech_data

; 143  : 		initialise_speech_data (a, o, GROUP_CALLSIGN_GLADIATOR, 			SOUND_SAMPLE_INDEX_SPEECH_US_WINGMAN1_GLADIATO, SOUND_SAMPLE_INDEX_SPEECH_CIS_WINGMAN1_GLADIATO);

  0031b	68 e7 02 00 00	 push	 743			; 000002e7H
  00320	68 1d 02 00 00	 push	 541			; 0000021dH
  00325	6a 1c		 push	 28			; 0000001cH
  00327	8b 45 f8	 mov	 eax, DWORD PTR _o$[ebp]
  0032a	50		 push	 eax
  0032b	8b 4d fc	 mov	 ecx, DWORD PTR _a$[ebp]
  0032e	51		 push	 ecx
  0032f	e8 00 00 00 00	 call	 ?initialise_speech_data@@YGXW4speech_array_types@@W4speech_originator_types@@HHH@Z ; initialise_speech_data

; 144  : 		initialise_speech_data (a, o, GROUP_CALLSIGN_GOLIATH, 			SOUND_SAMPLE_INDEX_SPEECH_US_WINGMAN1_GOLIATH, SOUND_SAMPLE_INDEX_SPEECH_CIS_WINGMAN1_GOLIATH);

  00334	68 e8 02 00 00	 push	 744			; 000002e8H
  00339	68 1e 02 00 00	 push	 542			; 0000021eH
  0033e	6a 1d		 push	 29			; 0000001dH
  00340	8b 45 f8	 mov	 eax, DWORD PTR _o$[ebp]
  00343	50		 push	 eax
  00344	8b 4d fc	 mov	 ecx, DWORD PTR _a$[ebp]
  00347	51		 push	 ecx
  00348	e8 00 00 00 00	 call	 ?initialise_speech_data@@YGXW4speech_array_types@@W4speech_originator_types@@HHH@Z ; initialise_speech_data

; 145  : 		initialise_speech_data (a, o, GROUP_CALLSIGN_GOOSE, 				SOUND_SAMPLE_INDEX_SPEECH_US_WINGMAN1_GOOSE, SOUND_SAMPLE_INDEX_SPEECH_CIS_WINGMAN1_GOOSE);

  0034d	68 e9 02 00 00	 push	 745			; 000002e9H
  00352	68 1f 02 00 00	 push	 543			; 0000021fH
  00357	6a 1e		 push	 30			; 0000001eH
  00359	8b 45 f8	 mov	 eax, DWORD PTR _o$[ebp]
  0035c	50		 push	 eax
  0035d	8b 4d fc	 mov	 ecx, DWORD PTR _a$[ebp]
  00360	51		 push	 ecx
  00361	e8 00 00 00 00	 call	 ?initialise_speech_data@@YGXW4speech_array_types@@W4speech_originator_types@@HHH@Z ; initialise_speech_data

; 146  : 		initialise_speech_data (a, o, GROUP_CALLSIGN_HAWKEYE, 			SOUND_SAMPLE_INDEX_SPEECH_US_WINGMAN1_HAWKEYE, SOUND_SAMPLE_INDEX_SPEECH_CIS_WINGMAN1_HAWKEYE);

  00366	68 ec 02 00 00	 push	 748			; 000002ecH
  0036b	68 22 02 00 00	 push	 546			; 00000222H
  00370	6a 1f		 push	 31			; 0000001fH
  00372	8b 45 f8	 mov	 eax, DWORD PTR _o$[ebp]
  00375	50		 push	 eax
  00376	8b 4d fc	 mov	 ecx, DWORD PTR _a$[ebp]
  00379	51		 push	 ecx
  0037a	e8 00 00 00 00	 call	 ?initialise_speech_data@@YGXW4speech_array_types@@W4speech_originator_types@@HHH@Z ; initialise_speech_data

; 147  : 		initialise_speech_data (a, o, GROUP_CALLSIGN_HELLCAT, 			SOUND_SAMPLE_INDEX_SPEECH_US_WINGMAN1_HELLCAT, SOUND_SAMPLE_INDEX_SPEECH_CIS_WINGMAN1_HELLCAT);

  0037f	68 ed 02 00 00	 push	 749			; 000002edH
  00384	68 23 02 00 00	 push	 547			; 00000223H
  00389	6a 20		 push	 32			; 00000020H
  0038b	8b 45 f8	 mov	 eax, DWORD PTR _o$[ebp]
  0038e	50		 push	 eax
  0038f	8b 4d fc	 mov	 ecx, DWORD PTR _a$[ebp]
  00392	51		 push	 ecx
  00393	e8 00 00 00 00	 call	 ?initialise_speech_data@@YGXW4speech_array_types@@W4speech_originator_types@@HHH@Z ; initialise_speech_data

; 148  : 		initialise_speech_data (a, o, GROUP_CALLSIGN_HUNTER, 				SOUND_SAMPLE_INDEX_SPEECH_US_WINGMAN1_HUNTER, SOUND_SAMPLE_INDEX_SPEECH_CIS_WINGMAN1_HUNTER);

  00398	68 ee 02 00 00	 push	 750			; 000002eeH
  0039d	68 24 02 00 00	 push	 548			; 00000224H
  003a2	6a 21		 push	 33			; 00000021H
  003a4	8b 45 f8	 mov	 eax, DWORD PTR _o$[ebp]
  003a7	50		 push	 eax
  003a8	8b 4d fc	 mov	 ecx, DWORD PTR _a$[ebp]
  003ab	51		 push	 ecx
  003ac	e8 00 00 00 00	 call	 ?initialise_speech_data@@YGXW4speech_array_types@@W4speech_originator_types@@HHH@Z ; initialise_speech_data

; 149  : 		initialise_speech_data (a, o, GROUP_CALLSIGN_JAGUAR, 				SOUND_SAMPLE_INDEX_SPEECH_US_WINGMAN1_JAGUAR, SOUND_SAMPLE_INDEX_SPEECH_CIS_WINGMAN1_JAGUAR);

  003b1	68 ef 02 00 00	 push	 751			; 000002efH
  003b6	68 25 02 00 00	 push	 549			; 00000225H
  003bb	6a 22		 push	 34			; 00000022H
  003bd	8b 45 f8	 mov	 eax, DWORD PTR _o$[ebp]
  003c0	50		 push	 eax
  003c1	8b 4d fc	 mov	 ecx, DWORD PTR _a$[ebp]
  003c4	51		 push	 ecx
  003c5	e8 00 00 00 00	 call	 ?initialise_speech_data@@YGXW4speech_array_types@@W4speech_originator_types@@HHH@Z ; initialise_speech_data

; 150  : 		initialise_speech_data (a, o, GROUP_CALLSIGN_JESTER, 				SOUND_SAMPLE_INDEX_SPEECH_US_WINGMAN1_JESTER, SOUND_SAMPLE_INDEX_SPEECH_CIS_WINGMAN1_JESTER);

  003ca	68 f0 02 00 00	 push	 752			; 000002f0H
  003cf	68 26 02 00 00	 push	 550			; 00000226H
  003d4	6a 23		 push	 35			; 00000023H
  003d6	8b 45 f8	 mov	 eax, DWORD PTR _o$[ebp]
  003d9	50		 push	 eax
  003da	8b 4d fc	 mov	 ecx, DWORD PTR _a$[ebp]
  003dd	51		 push	 ecx
  003de	e8 00 00 00 00	 call	 ?initialise_speech_data@@YGXW4speech_array_types@@W4speech_originator_types@@HHH@Z ; initialise_speech_data

; 151  : 		initialise_speech_data (a, o, GROUP_CALLSIGN_JUPITER, 			SOUND_SAMPLE_INDEX_SPEECH_US_WINGMAN1_JUPITER, SOUND_SAMPLE_INDEX_SPEECH_CIS_WINGMAN1_JUPITER);

  003e3	68 f2 02 00 00	 push	 754			; 000002f2H
  003e8	68 28 02 00 00	 push	 552			; 00000228H
  003ed	6a 24		 push	 36			; 00000024H
  003ef	8b 45 f8	 mov	 eax, DWORD PTR _o$[ebp]
  003f2	50		 push	 eax
  003f3	8b 4d fc	 mov	 ecx, DWORD PTR _a$[ebp]
  003f6	51		 push	 ecx
  003f7	e8 00 00 00 00	 call	 ?initialise_speech_data@@YGXW4speech_array_types@@W4speech_originator_types@@HHH@Z ; initialise_speech_data

; 152  : 		initialise_speech_data (a, o, GROUP_CALLSIGN_JUGGERNAUT, 		SOUND_SAMPLE_INDEX_SPEECH_US_WINGMAN1_JUGGERNA, SOUND_SAMPLE_INDEX_SPEECH_CIS_WINGMAN1_JUGGERNA);

  003fc	68 f1 02 00 00	 push	 753			; 000002f1H
  00401	68 27 02 00 00	 push	 551			; 00000227H
  00406	6a 25		 push	 37			; 00000025H
  00408	8b 45 f8	 mov	 eax, DWORD PTR _o$[ebp]
  0040b	50		 push	 eax
  0040c	8b 4d fc	 mov	 ecx, DWORD PTR _a$[ebp]
  0040f	51		 push	 ecx
  00410	e8 00 00 00 00	 call	 ?initialise_speech_data@@YGXW4speech_array_types@@W4speech_originator_types@@HHH@Z ; initialise_speech_data

; 153  : 		initialise_speech_data (a, o, GROUP_CALLSIGN_KESTREL, 			SOUND_SAMPLE_INDEX_SPEECH_US_WINGMAN1_KESTREL, SOUND_SAMPLE_INDEX_SPEECH_CIS_WINGMAN1_KESTREL);

  00415	68 f3 02 00 00	 push	 755			; 000002f3H
  0041a	68 29 02 00 00	 push	 553			; 00000229H
  0041f	6a 26		 push	 38			; 00000026H
  00421	8b 45 f8	 mov	 eax, DWORD PTR _o$[ebp]
  00424	50		 push	 eax
  00425	8b 4d fc	 mov	 ecx, DWORD PTR _a$[ebp]
  00428	51		 push	 ecx
  00429	e8 00 00 00 00	 call	 ?initialise_speech_data@@YGXW4speech_array_types@@W4speech_originator_types@@HHH@Z ; initialise_speech_data

; 154  : 		initialise_speech_data (a, o, GROUP_CALLSIGN_LANCER, 				SOUND_SAMPLE_INDEX_SPEECH_US_WINGMAN1_LANCER, SOUND_SAMPLE_INDEX_SPEECH_CIS_WINGMAN1_LANCER);

  0042e	68 f6 02 00 00	 push	 758			; 000002f6H
  00433	68 2c 02 00 00	 push	 556			; 0000022cH
  00438	6a 27		 push	 39			; 00000027H
  0043a	8b 45 f8	 mov	 eax, DWORD PTR _o$[ebp]
  0043d	50		 push	 eax
  0043e	8b 4d fc	 mov	 ecx, DWORD PTR _a$[ebp]
  00441	51		 push	 ecx
  00442	e8 00 00 00 00	 call	 ?initialise_speech_data@@YGXW4speech_array_types@@W4speech_originator_types@@HHH@Z ; initialise_speech_data

; 155  : 		initialise_speech_data (a, o, GROUP_CALLSIGN_LIMA, 				SOUND_SAMPLE_INDEX_SPEECH_US_WINGMAN1_LIMA, SOUND_SAMPLE_INDEX_SPEECH_CIS_WINGMAN1_LIMA);

  00447	68 f7 02 00 00	 push	 759			; 000002f7H
  0044c	68 2d 02 00 00	 push	 557			; 0000022dH
  00451	6a 28		 push	 40			; 00000028H
  00453	8b 45 f8	 mov	 eax, DWORD PTR _o$[ebp]
  00456	50		 push	 eax
  00457	8b 4d fc	 mov	 ecx, DWORD PTR _a$[ebp]
  0045a	51		 push	 ecx
  0045b	e8 00 00 00 00	 call	 ?initialise_speech_data@@YGXW4speech_array_types@@W4speech_originator_types@@HHH@Z ; initialise_speech_data

; 156  : 		initialise_speech_data (a, o, GROUP_CALLSIGN_MANIAC, 				SOUND_SAMPLE_INDEX_SPEECH_US_WINGMAN1_MANIAC, SOUND_SAMPLE_INDEX_SPEECH_CIS_WINGMAN1_MANIAC);

  00460	68 f8 02 00 00	 push	 760			; 000002f8H
  00465	68 2e 02 00 00	 push	 558			; 0000022eH
  0046a	6a 29		 push	 41			; 00000029H
  0046c	8b 45 f8	 mov	 eax, DWORD PTR _o$[ebp]
  0046f	50		 push	 eax
  00470	8b 4d fc	 mov	 ecx, DWORD PTR _a$[ebp]
  00473	51		 push	 ecx
  00474	e8 00 00 00 00	 call	 ?initialise_speech_data@@YGXW4speech_array_types@@W4speech_originator_types@@HHH@Z ; initialise_speech_data

; 157  : 		initialise_speech_data (a, o, GROUP_CALLSIGN_MANTIS, 				SOUND_SAMPLE_INDEX_SPEECH_US_WINGMAN1_MANTIS, SOUND_SAMPLE_INDEX_SPEECH_CIS_WINGMAN1_MANTIS);

  00479	68 f9 02 00 00	 push	 761			; 000002f9H
  0047e	68 2f 02 00 00	 push	 559			; 0000022fH
  00483	6a 2a		 push	 42			; 0000002aH
  00485	8b 45 f8	 mov	 eax, DWORD PTR _o$[ebp]
  00488	50		 push	 eax
  00489	8b 4d fc	 mov	 ecx, DWORD PTR _a$[ebp]
  0048c	51		 push	 ecx
  0048d	e8 00 00 00 00	 call	 ?initialise_speech_data@@YGXW4speech_array_types@@W4speech_originator_types@@HHH@Z ; initialise_speech_data

; 158  : 		initialise_speech_data (a, o, GROUP_CALLSIGN_MAULER, 				SOUND_SAMPLE_INDEX_SPEECH_US_WINGMAN1_MAULER, SOUND_SAMPLE_INDEX_SPEECH_CIS_WINGMAN1_MAULER);

  00492	68 fa 02 00 00	 push	 762			; 000002faH
  00497	68 30 02 00 00	 push	 560			; 00000230H
  0049c	6a 2b		 push	 43			; 0000002bH
  0049e	8b 45 f8	 mov	 eax, DWORD PTR _o$[ebp]
  004a1	50		 push	 eax
  004a2	8b 4d fc	 mov	 ecx, DWORD PTR _a$[ebp]
  004a5	51		 push	 ecx
  004a6	e8 00 00 00 00	 call	 ?initialise_speech_data@@YGXW4speech_array_types@@W4speech_originator_types@@HHH@Z ; initialise_speech_data

; 159  : 		initialise_speech_data (a, o, GROUP_CALLSIGN_MERCURY, 			SOUND_SAMPLE_INDEX_SPEECH_US_WINGMAN1_MERCURY, SOUND_SAMPLE_INDEX_SPEECH_CIS_WINGMAN1_MERCURY);

  004ab	68 fb 02 00 00	 push	 763			; 000002fbH
  004b0	68 31 02 00 00	 push	 561			; 00000231H
  004b5	6a 2c		 push	 44			; 0000002cH
  004b7	8b 45 f8	 mov	 eax, DWORD PTR _o$[ebp]
  004ba	50		 push	 eax
  004bb	8b 4d fc	 mov	 ecx, DWORD PTR _a$[ebp]
  004be	51		 push	 ecx
  004bf	e8 00 00 00 00	 call	 ?initialise_speech_data@@YGXW4speech_array_types@@W4speech_originator_types@@HHH@Z ; initialise_speech_data

; 160  : 		initialise_speech_data (a, o, GROUP_CALLSIGN_MERLIN, 				SOUND_SAMPLE_INDEX_SPEECH_US_WINGMAN1_MERLIN, SOUND_SAMPLE_INDEX_SPEECH_CIS_WINGMAN1_MERLIN);

  004c4	68 fc 02 00 00	 push	 764			; 000002fcH
  004c9	68 32 02 00 00	 push	 562			; 00000232H
  004ce	6a 2d		 push	 45			; 0000002dH
  004d0	8b 45 f8	 mov	 eax, DWORD PTR _o$[ebp]
  004d3	50		 push	 eax
  004d4	8b 4d fc	 mov	 ecx, DWORD PTR _a$[ebp]
  004d7	51		 push	 ecx
  004d8	e8 00 00 00 00	 call	 ?initialise_speech_data@@YGXW4speech_array_types@@W4speech_originator_types@@HHH@Z ; initialise_speech_data

; 161  : 		initialise_speech_data (a, o, GROUP_CALLSIGN_MILKMAN, 			SOUND_SAMPLE_INDEX_SPEECH_US_WINGMAN1_MILKMAN, SOUND_SAMPLE_INDEX_SPEECH_CIS_WINGMAN1_MILKMAN);

  004dd	68 fd 02 00 00	 push	 765			; 000002fdH
  004e2	68 33 02 00 00	 push	 563			; 00000233H
  004e7	6a 2e		 push	 46			; 0000002eH
  004e9	8b 45 f8	 mov	 eax, DWORD PTR _o$[ebp]
  004ec	50		 push	 eax
  004ed	8b 4d fc	 mov	 ecx, DWORD PTR _a$[ebp]
  004f0	51		 push	 ecx
  004f1	e8 00 00 00 00	 call	 ?initialise_speech_data@@YGXW4speech_array_types@@W4speech_originator_types@@HHH@Z ; initialise_speech_data

; 162  : 		initialise_speech_data (a, o, GROUP_CALLSIGN_MUSTANG, 			SOUND_SAMPLE_INDEX_SPEECH_US_WINGMAN1_MUSTANG, SOUND_SAMPLE_INDEX_SPEECH_CIS_WINGMAN1_MUSTANG);

  004f6	68 fe 02 00 00	 push	 766			; 000002feH
  004fb	68 34 02 00 00	 push	 564			; 00000234H
  00500	6a 2f		 push	 47			; 0000002fH
  00502	8b 45 f8	 mov	 eax, DWORD PTR _o$[ebp]
  00505	50		 push	 eax
  00506	8b 4d fc	 mov	 ecx, DWORD PTR _a$[ebp]
  00509	51		 push	 ecx
  0050a	e8 00 00 00 00	 call	 ?initialise_speech_data@@YGXW4speech_array_types@@W4speech_originator_types@@HHH@Z ; initialise_speech_data

; 163  : 		initialise_speech_data (a, o, GROUP_CALLSIGN_NIGHTMARE, 			SOUND_SAMPLE_INDEX_SPEECH_US_WINGMAN1_NIGHTMAR, SOUND_SAMPLE_INDEX_SPEECH_CIS_WINGMAN1_NIGHTMAR);

  0050f	68 ff 02 00 00	 push	 767			; 000002ffH
  00514	68 35 02 00 00	 push	 565			; 00000235H
  00519	6a 30		 push	 48			; 00000030H
  0051b	8b 45 f8	 mov	 eax, DWORD PTR _o$[ebp]
  0051e	50		 push	 eax
  0051f	8b 4d fc	 mov	 ecx, DWORD PTR _a$[ebp]
  00522	51		 push	 ecx
  00523	e8 00 00 00 00	 call	 ?initialise_speech_data@@YGXW4speech_array_types@@W4speech_originator_types@@HHH@Z ; initialise_speech_data

; 164  : 		initialise_speech_data (a, o, GROUP_CALLSIGN_PANTHER, 			SOUND_SAMPLE_INDEX_SPEECH_US_WINGMAN1_PANTHER, SOUND_SAMPLE_INDEX_SPEECH_CIS_WINGMAN1_PANTHER);

  00528	68 00 03 00 00	 push	 768			; 00000300H
  0052d	68 36 02 00 00	 push	 566			; 00000236H
  00532	6a 31		 push	 49			; 00000031H
  00534	8b 45 f8	 mov	 eax, DWORD PTR _o$[ebp]
  00537	50		 push	 eax
  00538	8b 4d fc	 mov	 ecx, DWORD PTR _a$[ebp]
  0053b	51		 push	 ecx
  0053c	e8 00 00 00 00	 call	 ?initialise_speech_data@@YGXW4speech_array_types@@W4speech_originator_types@@HHH@Z ; initialise_speech_data

; 165  : 		initialise_speech_data (a, o, GROUP_CALLSIGN_PATRIOT, 			SOUND_SAMPLE_INDEX_SPEECH_US_WINGMAN1_PATRIOT, SOUND_SAMPLE_INDEX_SPEECH_CIS_WINGMAN1_PATRIOT);

  00541	68 01 03 00 00	 push	 769			; 00000301H
  00546	68 37 02 00 00	 push	 567			; 00000237H
  0054b	6a 32		 push	 50			; 00000032H
  0054d	8b 45 f8	 mov	 eax, DWORD PTR _o$[ebp]
  00550	50		 push	 eax
  00551	8b 4d fc	 mov	 ecx, DWORD PTR _a$[ebp]
  00554	51		 push	 ecx
  00555	e8 00 00 00 00	 call	 ?initialise_speech_data@@YGXW4speech_array_types@@W4speech_originator_types@@HHH@Z ; initialise_speech_data

; 166  : 		initialise_speech_data (a, o, GROUP_CALLSIGN_PHANTOM, 			SOUND_SAMPLE_INDEX_SPEECH_US_WINGMAN1_PHANTOM, SOUND_SAMPLE_INDEX_SPEECH_CIS_WINGMAN1_PHANTOM);

  0055a	68 02 03 00 00	 push	 770			; 00000302H
  0055f	68 38 02 00 00	 push	 568			; 00000238H
  00564	6a 33		 push	 51			; 00000033H
  00566	8b 45 f8	 mov	 eax, DWORD PTR _o$[ebp]
  00569	50		 push	 eax
  0056a	8b 4d fc	 mov	 ecx, DWORD PTR _a$[ebp]
  0056d	51		 push	 ecx
  0056e	e8 00 00 00 00	 call	 ?initialise_speech_data@@YGXW4speech_array_types@@W4speech_originator_types@@HHH@Z ; initialise_speech_data

; 167  : 		initialise_speech_data (a, o, GROUP_CALLSIGN_PHOENIX, 			SOUND_SAMPLE_INDEX_SPEECH_US_WINGMAN1_PHOENIX, SOUND_SAMPLE_INDEX_SPEECH_CIS_WINGMAN1_PHOENIX);

  00573	68 03 03 00 00	 push	 771			; 00000303H
  00578	68 39 02 00 00	 push	 569			; 00000239H
  0057d	6a 34		 push	 52			; 00000034H
  0057f	8b 45 f8	 mov	 eax, DWORD PTR _o$[ebp]
  00582	50		 push	 eax
  00583	8b 4d fc	 mov	 ecx, DWORD PTR _a$[ebp]
  00586	51		 push	 ecx
  00587	e8 00 00 00 00	 call	 ?initialise_speech_data@@YGXW4speech_array_types@@W4speech_originator_types@@HHH@Z ; initialise_speech_data

; 168  : 		initialise_speech_data (a, o, GROUP_CALLSIGN_PREACHER, 			SOUND_SAMPLE_INDEX_SPEECH_US_WINGMAN1_PREACHER, SOUND_SAMPLE_INDEX_SPEECH_CIS_WINGMAN1_PREACHER);

  0058c	68 04 03 00 00	 push	 772			; 00000304H
  00591	68 3a 02 00 00	 push	 570			; 0000023aH
  00596	6a 35		 push	 53			; 00000035H
  00598	8b 45 f8	 mov	 eax, DWORD PTR _o$[ebp]
  0059b	50		 push	 eax
  0059c	8b 4d fc	 mov	 ecx, DWORD PTR _a$[ebp]
  0059f	51		 push	 ecx
  005a0	e8 00 00 00 00	 call	 ?initialise_speech_data@@YGXW4speech_array_types@@W4speech_originator_types@@HHH@Z ; initialise_speech_data

; 169  : 		initialise_speech_data (a, o, GROUP_CALLSIGN_PYTHON, 				SOUND_SAMPLE_INDEX_SPEECH_US_WINGMAN1_PYTHON, SOUND_SAMPLE_INDEX_SPEECH_CIS_WINGMAN1_PYTHON);

  005a5	68 05 03 00 00	 push	 773			; 00000305H
  005aa	68 3b 02 00 00	 push	 571			; 0000023bH
  005af	6a 36		 push	 54			; 00000036H
  005b1	8b 45 f8	 mov	 eax, DWORD PTR _o$[ebp]
  005b4	50		 push	 eax
  005b5	8b 4d fc	 mov	 ecx, DWORD PTR _a$[ebp]
  005b8	51		 push	 ecx
  005b9	e8 00 00 00 00	 call	 ?initialise_speech_data@@YGXW4speech_array_types@@W4speech_originator_types@@HHH@Z ; initialise_speech_data

; 170  : 		initialise_speech_data (a, o, GROUP_CALLSIGN_RAPTOR, 				SOUND_SAMPLE_INDEX_SPEECH_US_WINGMAN1_RAPTOR, SOUND_SAMPLE_INDEX_SPEECH_CIS_WINGMAN1_RAPTOR);

  005be	68 07 03 00 00	 push	 775			; 00000307H
  005c3	68 3d 02 00 00	 push	 573			; 0000023dH
  005c8	6a 37		 push	 55			; 00000037H
  005ca	8b 45 f8	 mov	 eax, DWORD PTR _o$[ebp]
  005cd	50		 push	 eax
  005ce	8b 4d fc	 mov	 ecx, DWORD PTR _a$[ebp]
  005d1	51		 push	 ecx
  005d2	e8 00 00 00 00	 call	 ?initialise_speech_data@@YGXW4speech_array_types@@W4speech_originator_types@@HHH@Z ; initialise_speech_data

; 171  : 		initialise_speech_data (a, o, GROUP_CALLSIGN_RATTLESNAKE, 		SOUND_SAMPLE_INDEX_SPEECH_US_WINGMAN1_RATTLESN, SOUND_SAMPLE_INDEX_SPEECH_CIS_WINGMAN1_RATTLESN);

  005d7	68 08 03 00 00	 push	 776			; 00000308H
  005dc	68 3e 02 00 00	 push	 574			; 0000023eH
  005e1	6a 38		 push	 56			; 00000038H
  005e3	8b 45 f8	 mov	 eax, DWORD PTR _o$[ebp]
  005e6	50		 push	 eax
  005e7	8b 4d fc	 mov	 ecx, DWORD PTR _a$[ebp]
  005ea	51		 push	 ecx
  005eb	e8 00 00 00 00	 call	 ?initialise_speech_data@@YGXW4speech_array_types@@W4speech_originator_types@@HHH@Z ; initialise_speech_data

; 172  : 		initialise_speech_data (a, o, GROUP_CALLSIGN_RAZORBACK, 			SOUND_SAMPLE_INDEX_SPEECH_US_WINGMAN1_RAZORBAC, SOUND_SAMPLE_INDEX_SPEECH_CIS_WINGMAN1_RAZORBAC);

  005f0	68 09 03 00 00	 push	 777			; 00000309H
  005f5	68 3f 02 00 00	 push	 575			; 0000023fH
  005fa	6a 39		 push	 57			; 00000039H
  005fc	8b 45 f8	 mov	 eax, DWORD PTR _o$[ebp]
  005ff	50		 push	 eax
  00600	8b 4d fc	 mov	 ecx, DWORD PTR _a$[ebp]
  00603	51		 push	 ecx
  00604	e8 00 00 00 00	 call	 ?initialise_speech_data@@YGXW4speech_array_types@@W4speech_originator_types@@HHH@Z ; initialise_speech_data

; 173  : 		initialise_speech_data (a, o, GROUP_CALLSIGN_RAZORWORKS, 		SOUND_SAMPLE_INDEX_SPEECH_US_WINGMAN1_RAZORWOR, SOUND_SAMPLE_INDEX_SPEECH_CIS_WINGMAN1_RAZORWOR);

  00609	68 0a 03 00 00	 push	 778			; 0000030aH
  0060e	68 40 02 00 00	 push	 576			; 00000240H
  00613	6a 3a		 push	 58			; 0000003aH
  00615	8b 45 f8	 mov	 eax, DWORD PTR _o$[ebp]
  00618	50		 push	 eax
  00619	8b 4d fc	 mov	 ecx, DWORD PTR _a$[ebp]
  0061c	51		 push	 ecx
  0061d	e8 00 00 00 00	 call	 ?initialise_speech_data@@YGXW4speech_array_types@@W4speech_originator_types@@HHH@Z ; initialise_speech_data

; 174  : 		initialise_speech_data (a, o, GROUP_CALLSIGN_REAPER, 				SOUND_SAMPLE_INDEX_SPEECH_US_WINGMAN1_REAPER, SOUND_SAMPLE_INDEX_SPEECH_CIS_WINGMAN1_REAPER);

  00622	68 0b 03 00 00	 push	 779			; 0000030bH
  00627	68 41 02 00 00	 push	 577			; 00000241H
  0062c	6a 3b		 push	 59			; 0000003bH
  0062e	8b 45 f8	 mov	 eax, DWORD PTR _o$[ebp]
  00631	50		 push	 eax
  00632	8b 4d fc	 mov	 ecx, DWORD PTR _a$[ebp]
  00635	51		 push	 ecx
  00636	e8 00 00 00 00	 call	 ?initialise_speech_data@@YGXW4speech_array_types@@W4speech_originator_types@@HHH@Z ; initialise_speech_data

; 175  : 		initialise_speech_data (a, o, GROUP_CALLSIGN_RENEGADE, 			SOUND_SAMPLE_INDEX_SPEECH_US_WINGMAN1_RENEGADE, SOUND_SAMPLE_INDEX_SPEECH_CIS_WINGMAN1_RENEGADE);

  0063b	68 0c 03 00 00	 push	 780			; 0000030cH
  00640	68 42 02 00 00	 push	 578			; 00000242H
  00645	6a 3c		 push	 60			; 0000003cH
  00647	8b 45 f8	 mov	 eax, DWORD PTR _o$[ebp]
  0064a	50		 push	 eax
  0064b	8b 4d fc	 mov	 ecx, DWORD PTR _a$[ebp]
  0064e	51		 push	 ecx
  0064f	e8 00 00 00 00	 call	 ?initialise_speech_data@@YGXW4speech_array_types@@W4speech_originator_types@@HHH@Z ; initialise_speech_data

; 176  : 		initialise_speech_data (a, o, GROUP_CALLSIGN_SABRE, 				SOUND_SAMPLE_INDEX_SPEECH_US_WINGMAN1_SABRE, SOUND_SAMPLE_INDEX_SPEECH_CIS_WINGMAN1_SABRE);

  00654	68 0d 03 00 00	 push	 781			; 0000030dH
  00659	68 43 02 00 00	 push	 579			; 00000243H
  0065e	6a 3d		 push	 61			; 0000003dH
  00660	8b 45 f8	 mov	 eax, DWORD PTR _o$[ebp]
  00663	50		 push	 eax
  00664	8b 4d fc	 mov	 ecx, DWORD PTR _a$[ebp]
  00667	51		 push	 ecx
  00668	e8 00 00 00 00	 call	 ?initialise_speech_data@@YGXW4speech_array_types@@W4speech_originator_types@@HHH@Z ; initialise_speech_data

; 177  : 		initialise_speech_data (a, o, GROUP_CALLSIGN_SAVAGE, 				SOUND_SAMPLE_INDEX_SPEECH_US_WINGMAN1_SAVAGE, SOUND_SAMPLE_INDEX_SPEECH_CIS_WINGMAN1_SAVAGE);

  0066d	68 0e 03 00 00	 push	 782			; 0000030eH
  00672	68 44 02 00 00	 push	 580			; 00000244H
  00677	6a 3e		 push	 62			; 0000003eH
  00679	8b 45 f8	 mov	 eax, DWORD PTR _o$[ebp]
  0067c	50		 push	 eax
  0067d	8b 4d fc	 mov	 ecx, DWORD PTR _a$[ebp]
  00680	51		 push	 ecx
  00681	e8 00 00 00 00	 call	 ?initialise_speech_data@@YGXW4speech_array_types@@W4speech_originator_types@@HHH@Z ; initialise_speech_data

; 178  : 		initialise_speech_data (a, o, GROUP_CALLSIGN_SHADOW, 				SOUND_SAMPLE_INDEX_SPEECH_US_WINGMAN1_SHADOW, SOUND_SAMPLE_INDEX_SPEECH_CIS_WINGMAN1_SHADOW);

  00686	68 0f 03 00 00	 push	 783			; 0000030fH
  0068b	68 45 02 00 00	 push	 581			; 00000245H
  00690	6a 3f		 push	 63			; 0000003fH
  00692	8b 45 f8	 mov	 eax, DWORD PTR _o$[ebp]
  00695	50		 push	 eax
  00696	8b 4d fc	 mov	 ecx, DWORD PTR _a$[ebp]
  00699	51		 push	 ecx
  0069a	e8 00 00 00 00	 call	 ?initialise_speech_data@@YGXW4speech_array_types@@W4speech_originator_types@@HHH@Z ; initialise_speech_data

; 179  : 		initialise_speech_data (a, o, GROUP_CALLSIGN_SHERIFF, 			SOUND_SAMPLE_INDEX_SPEECH_US_WINGMAN1_SHERIFF, SOUND_SAMPLE_INDEX_SPEECH_CIS_WINGMAN1_SHERIFF);

  0069f	68 10 03 00 00	 push	 784			; 00000310H
  006a4	68 46 02 00 00	 push	 582			; 00000246H
  006a9	6a 40		 push	 64			; 00000040H
  006ab	8b 45 f8	 mov	 eax, DWORD PTR _o$[ebp]
  006ae	50		 push	 eax
  006af	8b 4d fc	 mov	 ecx, DWORD PTR _a$[ebp]
  006b2	51		 push	 ecx
  006b3	e8 00 00 00 00	 call	 ?initialise_speech_data@@YGXW4speech_array_types@@W4speech_originator_types@@HHH@Z ; initialise_speech_data

; 180  : 		initialise_speech_data (a, o, GROUP_CALLSIGN_SHOGUN, 				SOUND_SAMPLE_INDEX_SPEECH_US_WINGMAN1_SHOGUN, SOUND_SAMPLE_INDEX_SPEECH_CIS_WINGMAN1_SHOGUN);

  006b8	68 11 03 00 00	 push	 785			; 00000311H
  006bd	68 47 02 00 00	 push	 583			; 00000247H
  006c2	6a 41		 push	 65			; 00000041H
  006c4	8b 45 f8	 mov	 eax, DWORD PTR _o$[ebp]
  006c7	50		 push	 eax
  006c8	8b 4d fc	 mov	 ecx, DWORD PTR _a$[ebp]
  006cb	51		 push	 ecx
  006cc	e8 00 00 00 00	 call	 ?initialise_speech_data@@YGXW4speech_array_types@@W4speech_originator_types@@HHH@Z ; initialise_speech_data

; 181  : 		initialise_speech_data (a, o, GROUP_CALLSIGN_SNOWBALL, 			SOUND_SAMPLE_INDEX_SPEECH_US_WINGMAN1_SNOWBALL, SOUND_SAMPLE_INDEX_SPEECH_CIS_WINGMAN1_SNOWBALL);

  006d1	68 12 03 00 00	 push	 786			; 00000312H
  006d6	68 48 02 00 00	 push	 584			; 00000248H
  006db	6a 42		 push	 66			; 00000042H
  006dd	8b 45 f8	 mov	 eax, DWORD PTR _o$[ebp]
  006e0	50		 push	 eax
  006e1	8b 4d fc	 mov	 ecx, DWORD PTR _a$[ebp]
  006e4	51		 push	 ecx
  006e5	e8 00 00 00 00	 call	 ?initialise_speech_data@@YGXW4speech_array_types@@W4speech_originator_types@@HHH@Z ; initialise_speech_data

; 182  : 		initialise_speech_data (a, o, GROUP_CALLSIGN_SPARTAKUS, 			SOUND_SAMPLE_INDEX_SPEECH_US_WINGMAN1_SPARTACU, SOUND_SAMPLE_INDEX_SPEECH_CIS_WINGMAN1_SPARTACU);

  006ea	68 13 03 00 00	 push	 787			; 00000313H
  006ef	68 49 02 00 00	 push	 585			; 00000249H
  006f4	6a 43		 push	 67			; 00000043H
  006f6	8b 45 f8	 mov	 eax, DWORD PTR _o$[ebp]
  006f9	50		 push	 eax
  006fa	8b 4d fc	 mov	 ecx, DWORD PTR _a$[ebp]
  006fd	51		 push	 ecx
  006fe	e8 00 00 00 00	 call	 ?initialise_speech_data@@YGXW4speech_array_types@@W4speech_originator_types@@HHH@Z ; initialise_speech_data

; 183  : 		initialise_speech_data (a, o, GROUP_CALLSIGN_SPECTRUM, 			SOUND_SAMPLE_INDEX_SPEECH_US_WINGMAN1_SPECTRUM, SOUND_SAMPLE_INDEX_SPEECH_CIS_WINGMAN1_SPECTRUM);

  00703	68 14 03 00 00	 push	 788			; 00000314H
  00708	68 4a 02 00 00	 push	 586			; 0000024aH
  0070d	6a 44		 push	 68			; 00000044H
  0070f	8b 45 f8	 mov	 eax, DWORD PTR _o$[ebp]
  00712	50		 push	 eax
  00713	8b 4d fc	 mov	 ecx, DWORD PTR _a$[ebp]
  00716	51		 push	 ecx
  00717	e8 00 00 00 00	 call	 ?initialise_speech_data@@YGXW4speech_array_types@@W4speech_originator_types@@HHH@Z ; initialise_speech_data

; 184  : 		initialise_speech_data (a, o, GROUP_CALLSIGN_STALKER, 			SOUND_SAMPLE_INDEX_SPEECH_US_WINGMAN1_STALKER, SOUND_SAMPLE_INDEX_SPEECH_CIS_WINGMAN1_STALKER);

  0071c	68 16 03 00 00	 push	 790			; 00000316H
  00721	68 4c 02 00 00	 push	 588			; 0000024cH
  00726	6a 45		 push	 69			; 00000045H
  00728	8b 45 f8	 mov	 eax, DWORD PTR _o$[ebp]
  0072b	50		 push	 eax
  0072c	8b 4d fc	 mov	 ecx, DWORD PTR _a$[ebp]
  0072f	51		 push	 ecx
  00730	e8 00 00 00 00	 call	 ?initialise_speech_data@@YGXW4speech_array_types@@W4speech_originator_types@@HHH@Z ; initialise_speech_data

; 185  : 		initialise_speech_data (a, o, GROUP_CALLSIGN_STINGRAY, 			SOUND_SAMPLE_INDEX_SPEECH_US_WINGMAN1_STINGRAY, SOUND_SAMPLE_INDEX_SPEECH_CIS_WINGMAN1_STINGRAY);

  00735	68 17 03 00 00	 push	 791			; 00000317H
  0073a	68 4d 02 00 00	 push	 589			; 0000024dH
  0073f	6a 46		 push	 70			; 00000046H
  00741	8b 45 f8	 mov	 eax, DWORD PTR _o$[ebp]
  00744	50		 push	 eax
  00745	8b 4d fc	 mov	 ecx, DWORD PTR _a$[ebp]
  00748	51		 push	 ecx
  00749	e8 00 00 00 00	 call	 ?initialise_speech_data@@YGXW4speech_array_types@@W4speech_originator_types@@HHH@Z ; initialise_speech_data

; 186  : 		initialise_speech_data (a, o, GROUP_CALLSIGN_STRIKER, 			SOUND_SAMPLE_INDEX_SPEECH_US_WINGMAN1_STRIKER, SOUND_SAMPLE_INDEX_SPEECH_CIS_WINGMAN1_STRIKER);

  0074e	68 18 03 00 00	 push	 792			; 00000318H
  00753	68 4e 02 00 00	 push	 590			; 0000024eH
  00758	6a 47		 push	 71			; 00000047H
  0075a	8b 45 f8	 mov	 eax, DWORD PTR _o$[ebp]
  0075d	50		 push	 eax
  0075e	8b 4d fc	 mov	 ecx, DWORD PTR _a$[ebp]
  00761	51		 push	 ecx
  00762	e8 00 00 00 00	 call	 ?initialise_speech_data@@YGXW4speech_array_types@@W4speech_originator_types@@HHH@Z ; initialise_speech_data

; 187  : 		initialise_speech_data (a, o, GROUP_CALLSIGN_SUNDOWN, 			SOUND_SAMPLE_INDEX_SPEECH_US_WINGMAN1_SUNDOWN, SOUND_SAMPLE_INDEX_SPEECH_CIS_WINGMAN1_SUNDOWN);

  00767	68 19 03 00 00	 push	 793			; 00000319H
  0076c	68 4f 02 00 00	 push	 591			; 0000024fH
  00771	6a 48		 push	 72			; 00000048H
  00773	8b 45 f8	 mov	 eax, DWORD PTR _o$[ebp]
  00776	50		 push	 eax
  00777	8b 4d fc	 mov	 ecx, DWORD PTR _a$[ebp]
  0077a	51		 push	 ecx
  0077b	e8 00 00 00 00	 call	 ?initialise_speech_data@@YGXW4speech_array_types@@W4speech_originator_types@@HHH@Z ; initialise_speech_data

; 188  : 		initialise_speech_data (a, o, GROUP_CALLSIGN_SWAMP_FOX, 			SOUND_SAMPLE_INDEX_SPEECH_US_WINGMAN1_SWAMPFOX, SOUND_SAMPLE_INDEX_SPEECH_CIS_WINGMAN1_SWAMPFOX);

  00780	68 1a 03 00 00	 push	 794			; 0000031aH
  00785	68 50 02 00 00	 push	 592			; 00000250H
  0078a	6a 49		 push	 73			; 00000049H
  0078c	8b 45 f8	 mov	 eax, DWORD PTR _o$[ebp]
  0078f	50		 push	 eax
  00790	8b 4d fc	 mov	 ecx, DWORD PTR _a$[ebp]
  00793	51		 push	 ecx
  00794	e8 00 00 00 00	 call	 ?initialise_speech_data@@YGXW4speech_array_types@@W4speech_originator_types@@HHH@Z ; initialise_speech_data

; 189  : 		initialise_speech_data (a, o, GROUP_CALLSIGN_TEMPEST, 			SOUND_SAMPLE_INDEX_SPEECH_US_WINGMAN1_TEMPEST, SOUND_SAMPLE_INDEX_SPEECH_CIS_WINGMAN1_TEMPEST);

  00799	68 1b 03 00 00	 push	 795			; 0000031bH
  0079e	68 51 02 00 00	 push	 593			; 00000251H
  007a3	6a 4a		 push	 74			; 0000004aH
  007a5	8b 45 f8	 mov	 eax, DWORD PTR _o$[ebp]
  007a8	50		 push	 eax
  007a9	8b 4d fc	 mov	 ecx, DWORD PTR _a$[ebp]
  007ac	51		 push	 ecx
  007ad	e8 00 00 00 00	 call	 ?initialise_speech_data@@YGXW4speech_array_types@@W4speech_originator_types@@HHH@Z ; initialise_speech_data

; 190  : 		initialise_speech_data (a, o, GROUP_CALLSIGN_TIGER_SHARK, 		SOUND_SAMPLE_INDEX_SPEECH_US_WINGMAN1_TIGERSHA, SOUND_SAMPLE_INDEX_SPEECH_CIS_WINGMAN1_TIGERSHA);

  007b2	68 1c 03 00 00	 push	 796			; 0000031cH
  007b7	68 52 02 00 00	 push	 594			; 00000252H
  007bc	6a 4b		 push	 75			; 0000004bH
  007be	8b 45 f8	 mov	 eax, DWORD PTR _o$[ebp]
  007c1	50		 push	 eax
  007c2	8b 4d fc	 mov	 ecx, DWORD PTR _a$[ebp]
  007c5	51		 push	 ecx
  007c6	e8 00 00 00 00	 call	 ?initialise_speech_data@@YGXW4speech_array_types@@W4speech_originator_types@@HHH@Z ; initialise_speech_data

; 191  : 		initialise_speech_data (a, o, GROUP_CALLSIGN_TOUCHDOWN, 			SOUND_SAMPLE_INDEX_SPEECH_US_WINGMAN1_TOUCHDOW, SOUND_SAMPLE_INDEX_SPEECH_CIS_WINGMAN1_TOUCHDOW);

  007cb	68 1d 03 00 00	 push	 797			; 0000031dH
  007d0	68 53 02 00 00	 push	 595			; 00000253H
  007d5	6a 4c		 push	 76			; 0000004cH
  007d7	8b 45 f8	 mov	 eax, DWORD PTR _o$[ebp]
  007da	50		 push	 eax
  007db	8b 4d fc	 mov	 ecx, DWORD PTR _a$[ebp]
  007de	51		 push	 ecx
  007df	e8 00 00 00 00	 call	 ?initialise_speech_data@@YGXW4speech_array_types@@W4speech_originator_types@@HHH@Z ; initialise_speech_data

; 192  : 		initialise_speech_data (a, o, GROUP_CALLSIGN_VAMPIRE, 			SOUND_SAMPLE_INDEX_SPEECH_US_WINGMAN1_VAMPIRE, SOUND_SAMPLE_INDEX_SPEECH_CIS_WINGMAN1_VAMPIRE);

  007e4	68 1e 03 00 00	 push	 798			; 0000031eH
  007e9	68 54 02 00 00	 push	 596			; 00000254H
  007ee	6a 4d		 push	 77			; 0000004dH
  007f0	8b 45 f8	 mov	 eax, DWORD PTR _o$[ebp]
  007f3	50		 push	 eax
  007f4	8b 4d fc	 mov	 ecx, DWORD PTR _a$[ebp]
  007f7	51		 push	 ecx
  007f8	e8 00 00 00 00	 call	 ?initialise_speech_data@@YGXW4speech_array_types@@W4speech_originator_types@@HHH@Z ; initialise_speech_data

; 193  : 		initialise_speech_data (a, o, GROUP_CALLSIGN_VERTIGO, 			SOUND_SAMPLE_INDEX_SPEECH_US_WINGMAN1_VERTIGO, SOUND_SAMPLE_INDEX_SPEECH_CIS_WINGMAN1_VERTIGO);

  007fd	68 1f 03 00 00	 push	 799			; 0000031fH
  00802	68 55 02 00 00	 push	 597			; 00000255H
  00807	6a 4e		 push	 78			; 0000004eH
  00809	8b 45 f8	 mov	 eax, DWORD PTR _o$[ebp]
  0080c	50		 push	 eax
  0080d	8b 4d fc	 mov	 ecx, DWORD PTR _a$[ebp]
  00810	51		 push	 ecx
  00811	e8 00 00 00 00	 call	 ?initialise_speech_data@@YGXW4speech_array_types@@W4speech_originator_types@@HHH@Z ; initialise_speech_data

; 194  : 		initialise_speech_data (a, o, GROUP_CALLSIGN_VIGILANTE, 			SOUND_SAMPLE_INDEX_SPEECH_US_WINGMAN1_VIGILANT, SOUND_SAMPLE_INDEX_SPEECH_CIS_WINGMAN1_VIGILANT);

  00816	68 20 03 00 00	 push	 800			; 00000320H
  0081b	68 56 02 00 00	 push	 598			; 00000256H
  00820	6a 4f		 push	 79			; 0000004fH
  00822	8b 45 f8	 mov	 eax, DWORD PTR _o$[ebp]
  00825	50		 push	 eax
  00826	8b 4d fc	 mov	 ecx, DWORD PTR _a$[ebp]
  00829	51		 push	 ecx
  0082a	e8 00 00 00 00	 call	 ?initialise_speech_data@@YGXW4speech_array_types@@W4speech_originator_types@@HHH@Z ; initialise_speech_data

; 195  : 		initialise_speech_data (a, o, GROUP_CALLSIGN_VIKING, 				SOUND_SAMPLE_INDEX_SPEECH_US_WINGMAN1_VIKING, SOUND_SAMPLE_INDEX_SPEECH_CIS_WINGMAN1_VIKING);

  0082f	68 21 03 00 00	 push	 801			; 00000321H
  00834	68 57 02 00 00	 push	 599			; 00000257H
  00839	6a 50		 push	 80			; 00000050H
  0083b	8b 45 f8	 mov	 eax, DWORD PTR _o$[ebp]
  0083e	50		 push	 eax
  0083f	8b 4d fc	 mov	 ecx, DWORD PTR _a$[ebp]
  00842	51		 push	 ecx
  00843	e8 00 00 00 00	 call	 ?initialise_speech_data@@YGXW4speech_array_types@@W4speech_originator_types@@HHH@Z ; initialise_speech_data

; 196  : 		initialise_speech_data (a, o, GROUP_CALLSIGN_VIPER, 				SOUND_SAMPLE_INDEX_SPEECH_US_WINGMAN1_VIPER, SOUND_SAMPLE_INDEX_SPEECH_CIS_WINGMAN1_VIPER);

  00848	68 22 03 00 00	 push	 802			; 00000322H
  0084d	68 58 02 00 00	 push	 600			; 00000258H
  00852	6a 51		 push	 81			; 00000051H
  00854	8b 45 f8	 mov	 eax, DWORD PTR _o$[ebp]
  00857	50		 push	 eax
  00858	8b 4d fc	 mov	 ecx, DWORD PTR _a$[ebp]
  0085b	51		 push	 ecx
  0085c	e8 00 00 00 00	 call	 ?initialise_speech_data@@YGXW4speech_array_types@@W4speech_originator_types@@HHH@Z ; initialise_speech_data

; 197  : 		initialise_speech_data (a, o, GROUP_CALLSIGN_VOODOO, 				SOUND_SAMPLE_INDEX_SPEECH_US_WINGMAN1_VOODOO, SOUND_SAMPLE_INDEX_SPEECH_CIS_WINGMAN1_VOODOO);

  00861	68 23 03 00 00	 push	 803			; 00000323H
  00866	68 59 02 00 00	 push	 601			; 00000259H
  0086b	6a 52		 push	 82			; 00000052H
  0086d	8b 45 f8	 mov	 eax, DWORD PTR _o$[ebp]
  00870	50		 push	 eax
  00871	8b 4d fc	 mov	 ecx, DWORD PTR _a$[ebp]
  00874	51		 push	 ecx
  00875	e8 00 00 00 00	 call	 ?initialise_speech_data@@YGXW4speech_array_types@@W4speech_originator_types@@HHH@Z ; initialise_speech_data

; 198  : 		initialise_speech_data (a, o, GROUP_CALLSIGN_VULCAN, 				SOUND_SAMPLE_INDEX_SPEECH_US_WINGMAN1_VULCAN, SOUND_SAMPLE_INDEX_SPEECH_CIS_WINGMAN1_VULCAN);

  0087a	68 24 03 00 00	 push	 804			; 00000324H
  0087f	68 5a 02 00 00	 push	 602			; 0000025aH
  00884	6a 53		 push	 83			; 00000053H
  00886	8b 45 f8	 mov	 eax, DWORD PTR _o$[ebp]
  00889	50		 push	 eax
  0088a	8b 4d fc	 mov	 ecx, DWORD PTR _a$[ebp]
  0088d	51		 push	 ecx
  0088e	e8 00 00 00 00	 call	 ?initialise_speech_data@@YGXW4speech_array_types@@W4speech_originator_types@@HHH@Z ; initialise_speech_data

; 199  : 		initialise_speech_data (a, o, GROUP_CALLSIGN_VULTURE, 			SOUND_SAMPLE_INDEX_SPEECH_US_WINGMAN1_VULTURE, SOUND_SAMPLE_INDEX_SPEECH_CIS_WINGMAN1_VULTURE);

  00893	68 25 03 00 00	 push	 805			; 00000325H
  00898	68 5b 02 00 00	 push	 603			; 0000025bH
  0089d	6a 54		 push	 84			; 00000054H
  0089f	8b 45 f8	 mov	 eax, DWORD PTR _o$[ebp]
  008a2	50		 push	 eax
  008a3	8b 4d fc	 mov	 ecx, DWORD PTR _a$[ebp]
  008a6	51		 push	 ecx
  008a7	e8 00 00 00 00	 call	 ?initialise_speech_data@@YGXW4speech_array_types@@W4speech_originator_types@@HHH@Z ; initialise_speech_data

; 200  : 		initialise_speech_data (a, o, GROUP_CALLSIGN_WARLOCK, 			SOUND_SAMPLE_INDEX_SPEECH_US_WINGMAN1_WARLOCK, SOUND_SAMPLE_INDEX_SPEECH_CIS_WINGMAN1_WARLOCK);

  008ac	68 26 03 00 00	 push	 806			; 00000326H
  008b1	68 5c 02 00 00	 push	 604			; 0000025cH
  008b6	6a 55		 push	 85			; 00000055H
  008b8	8b 45 f8	 mov	 eax, DWORD PTR _o$[ebp]
  008bb	50		 push	 eax
  008bc	8b 4d fc	 mov	 ecx, DWORD PTR _a$[ebp]
  008bf	51		 push	 ecx
  008c0	e8 00 00 00 00	 call	 ?initialise_speech_data@@YGXW4speech_array_types@@W4speech_originator_types@@HHH@Z ; initialise_speech_data

; 201  : 		initialise_speech_data (a, o, GROUP_CALLSIGN_WARLORD, 			SOUND_SAMPLE_INDEX_SPEECH_US_WINGMAN1_WARLORD, SOUND_SAMPLE_INDEX_SPEECH_CIS_WINGMAN1_WARLORD);

  008c5	68 27 03 00 00	 push	 807			; 00000327H
  008ca	68 5d 02 00 00	 push	 605			; 0000025dH
  008cf	6a 56		 push	 86			; 00000056H
  008d1	8b 45 f8	 mov	 eax, DWORD PTR _o$[ebp]
  008d4	50		 push	 eax
  008d5	8b 4d fc	 mov	 ecx, DWORD PTR _a$[ebp]
  008d8	51		 push	 ecx
  008d9	e8 00 00 00 00	 call	 ?initialise_speech_data@@YGXW4speech_array_types@@W4speech_originator_types@@HHH@Z ; initialise_speech_data

; 202  : 		initialise_speech_data (a, o, GROUP_CALLSIGN_WARRIOR, 			SOUND_SAMPLE_INDEX_SPEECH_US_WINGMAN1_WARRIOR, SOUND_SAMPLE_INDEX_SPEECH_CIS_WINGMAN1_WARRIOR);

  008de	68 28 03 00 00	 push	 808			; 00000328H
  008e3	68 5e 02 00 00	 push	 606			; 0000025eH
  008e8	6a 57		 push	 87			; 00000057H
  008ea	8b 45 f8	 mov	 eax, DWORD PTR _o$[ebp]
  008ed	50		 push	 eax
  008ee	8b 4d fc	 mov	 ecx, DWORD PTR _a$[ebp]
  008f1	51		 push	 ecx
  008f2	e8 00 00 00 00	 call	 ?initialise_speech_data@@YGXW4speech_array_types@@W4speech_originator_types@@HHH@Z ; initialise_speech_data

; 203  : 		initialise_speech_data (a, o, GROUP_CALLSIGN_WILDCAT, 			SOUND_SAMPLE_INDEX_SPEECH_US_WINGMAN1_WILDCAT, SOUND_SAMPLE_INDEX_SPEECH_CIS_WINGMAN1_WILDCAT);

  008f7	68 29 03 00 00	 push	 809			; 00000329H
  008fc	68 5f 02 00 00	 push	 607			; 0000025fH
  00901	6a 58		 push	 88			; 00000058H
  00903	8b 45 f8	 mov	 eax, DWORD PTR _o$[ebp]
  00906	50		 push	 eax
  00907	8b 4d fc	 mov	 ecx, DWORD PTR _a$[ebp]
  0090a	51		 push	 ecx
  0090b	e8 00 00 00 00	 call	 ?initialise_speech_data@@YGXW4speech_array_types@@W4speech_originator_types@@HHH@Z ; initialise_speech_data

; 204  : 		initialise_speech_data (a, o, GROUP_CALLSIGN_WOLFPACK, 			SOUND_SAMPLE_INDEX_SPEECH_US_WINGMAN1_WOLFPACK, SOUND_SAMPLE_INDEX_SPEECH_CIS_WINGMAN1_WOLFPACK);

  00910	68 2a 03 00 00	 push	 810			; 0000032aH
  00915	68 60 02 00 00	 push	 608			; 00000260H
  0091a	6a 59		 push	 89			; 00000059H
  0091c	8b 45 f8	 mov	 eax, DWORD PTR _o$[ebp]
  0091f	50		 push	 eax
  00920	8b 4d fc	 mov	 ecx, DWORD PTR _a$[ebp]
  00923	51		 push	 ecx
  00924	e8 00 00 00 00	 call	 ?initialise_speech_data@@YGXW4speech_array_types@@W4speech_originator_types@@HHH@Z ; initialise_speech_data

; 205  : 
; 206  : 		#endif
; 207  : 	}
; 208  : 
; 209  : 	{	
; 210  : 		o = SPEECH_ORIGINATOR_WINGMAN2;

  00929	c7 45 f8 03 00
	00 00		 mov	 DWORD PTR _o$[ebp], 3

; 211  : 		
; 212  : 		initialise_sample_index_array (a, o, max_items);

  00930	8b 45 f4	 mov	 eax, DWORD PTR _max_items$[ebp]
  00933	50		 push	 eax
  00934	8b 4d f8	 mov	 ecx, DWORD PTR _o$[ebp]
  00937	51		 push	 ecx
  00938	8b 55 fc	 mov	 edx, DWORD PTR _a$[ebp]
  0093b	52		 push	 edx
  0093c	e8 00 00 00 00	 call	 ?initialise_sample_index_array@@YGXW4speech_array_types@@W4speech_originator_types@@H@Z ; initialise_sample_index_array

; 213  : 
; 214  : 		#if !DEMO_VERSION
; 215  : 
; 216  : 		initialise_speech_data (a, o, GROUP_CALLSIGN_ANGEL, 				SOUND_SAMPLE_INDEX_SPEECH_US_WINGMAN2_ANGEL, SOUND_SAMPLE_INDEX_SPEECH_CIS_WINGMAN2_ANGEL);

  00941	68 52 04 00 00	 push	 1106			; 00000452H
  00946	68 88 03 00 00	 push	 904			; 00000388H
  0094b	6a 00		 push	 0
  0094d	8b 45 f8	 mov	 eax, DWORD PTR _o$[ebp]
  00950	50		 push	 eax
  00951	8b 4d fc	 mov	 ecx, DWORD PTR _a$[ebp]
  00954	51		 push	 ecx
  00955	e8 00 00 00 00	 call	 ?initialise_speech_data@@YGXW4speech_array_types@@W4speech_originator_types@@HHH@Z ; initialise_speech_data

; 217  : 		initialise_speech_data (a, o, GROUP_CALLSIGN_APOLLO, 				SOUND_SAMPLE_INDEX_SPEECH_US_WINGMAN2_APOLLO, SOUND_SAMPLE_INDEX_SPEECH_CIS_WINGMAN2_APOLLO);

  0095a	68 53 04 00 00	 push	 1107			; 00000453H
  0095f	68 89 03 00 00	 push	 905			; 00000389H
  00964	6a 01		 push	 1
  00966	8b 45 f8	 mov	 eax, DWORD PTR _o$[ebp]
  00969	50		 push	 eax
  0096a	8b 4d fc	 mov	 ecx, DWORD PTR _a$[ebp]
  0096d	51		 push	 ecx
  0096e	e8 00 00 00 00	 call	 ?initialise_speech_data@@YGXW4speech_array_types@@W4speech_originator_types@@HHH@Z ; initialise_speech_data

; 218  : 		initialise_speech_data (a, o, GROUP_CALLSIGN_ARCHER, 				SOUND_SAMPLE_INDEX_SPEECH_US_WINGMAN2_ARCHER, SOUND_SAMPLE_INDEX_SPEECH_CIS_WINGMAN2_ARCHER);

  00973	68 54 04 00 00	 push	 1108			; 00000454H
  00978	68 8a 03 00 00	 push	 906			; 0000038aH
  0097d	6a 02		 push	 2
  0097f	8b 45 f8	 mov	 eax, DWORD PTR _o$[ebp]
  00982	50		 push	 eax
  00983	8b 4d fc	 mov	 ecx, DWORD PTR _a$[ebp]
  00986	51		 push	 ecx
  00987	e8 00 00 00 00	 call	 ?initialise_speech_data@@YGXW4speech_array_types@@W4speech_originator_types@@HHH@Z ; initialise_speech_data

; 219  : 		initialise_speech_data (a, o, GROUP_CALLSIGN_BANSHEE, 			SOUND_SAMPLE_INDEX_SPEECH_US_WINGMAN2_BANSHEE, SOUND_SAMPLE_INDEX_SPEECH_CIS_WINGMAN2_BANSHEE);

  0098c	68 55 04 00 00	 push	 1109			; 00000455H
  00991	68 8b 03 00 00	 push	 907			; 0000038bH
  00996	6a 03		 push	 3
  00998	8b 45 f8	 mov	 eax, DWORD PTR _o$[ebp]
  0099b	50		 push	 eax
  0099c	8b 4d fc	 mov	 ecx, DWORD PTR _a$[ebp]
  0099f	51		 push	 ecx
  009a0	e8 00 00 00 00	 call	 ?initialise_speech_data@@YGXW4speech_array_types@@W4speech_originator_types@@HHH@Z ; initialise_speech_data

; 220  : 		initialise_speech_data (a, o, GROUP_CALLSIGN_BLOODHOUND, 		SOUND_SAMPLE_INDEX_SPEECH_US_WINGMAN2_BLOODHOU, SOUND_SAMPLE_INDEX_SPEECH_CIS_WINGMAN2_BLOODHOU);

  009a5	68 57 04 00 00	 push	 1111			; 00000457H
  009aa	68 8d 03 00 00	 push	 909			; 0000038dH
  009af	6a 04		 push	 4
  009b1	8b 45 f8	 mov	 eax, DWORD PTR _o$[ebp]
  009b4	50		 push	 eax
  009b5	8b 4d fc	 mov	 ecx, DWORD PTR _a$[ebp]
  009b8	51		 push	 ecx
  009b9	e8 00 00 00 00	 call	 ?initialise_speech_data@@YGXW4speech_array_types@@W4speech_originator_types@@HHH@Z ; initialise_speech_data

; 221  : 		initialise_speech_data (a, o, GROUP_CALLSIGN_BULLDOG, 			SOUND_SAMPLE_INDEX_SPEECH_US_WINGMAN2_BULLDOG, SOUND_SAMPLE_INDEX_SPEECH_CIS_WINGMAN2_BULLDOG);

  009be	68 58 04 00 00	 push	 1112			; 00000458H
  009c3	68 8e 03 00 00	 push	 910			; 0000038eH
  009c8	6a 05		 push	 5
  009ca	8b 45 f8	 mov	 eax, DWORD PTR _o$[ebp]
  009cd	50		 push	 eax
  009ce	8b 4d fc	 mov	 ecx, DWORD PTR _a$[ebp]
  009d1	51		 push	 ecx
  009d2	e8 00 00 00 00	 call	 ?initialise_speech_data@@YGXW4speech_array_types@@W4speech_originator_types@@HHH@Z ; initialise_speech_data

; 222  : 		initialise_speech_data (a, o, GROUP_CALLSIGN_CHARGER, 			SOUND_SAMPLE_INDEX_SPEECH_US_WINGMAN2_CHARGER, SOUND_SAMPLE_INDEX_SPEECH_CIS_WINGMAN2_CHARGER);

  009d7	68 59 04 00 00	 push	 1113			; 00000459H
  009dc	68 8f 03 00 00	 push	 911			; 0000038fH
  009e1	6a 06		 push	 6
  009e3	8b 45 f8	 mov	 eax, DWORD PTR _o$[ebp]
  009e6	50		 push	 eax
  009e7	8b 4d fc	 mov	 ecx, DWORD PTR _a$[ebp]
  009ea	51		 push	 ecx
  009eb	e8 00 00 00 00	 call	 ?initialise_speech_data@@YGXW4speech_array_types@@W4speech_originator_types@@HHH@Z ; initialise_speech_data

; 223  : 		initialise_speech_data (a, o, GROUP_CALLSIGN_CHEETAH, 			SOUND_SAMPLE_INDEX_SPEECH_US_WINGMAN2_CHEETAH, SOUND_SAMPLE_INDEX_SPEECH_CIS_WINGMAN2_CHEETAH);

  009f0	68 5a 04 00 00	 push	 1114			; 0000045aH
  009f5	68 90 03 00 00	 push	 912			; 00000390H
  009fa	6a 07		 push	 7
  009fc	8b 45 f8	 mov	 eax, DWORD PTR _o$[ebp]
  009ff	50		 push	 eax
  00a00	8b 4d fc	 mov	 ecx, DWORD PTR _a$[ebp]
  00a03	51		 push	 ecx
  00a04	e8 00 00 00 00	 call	 ?initialise_speech_data@@YGXW4speech_array_types@@W4speech_originator_types@@HHH@Z ; initialise_speech_data

; 224  : 		initialise_speech_data (a, o, GROUP_CALLSIGN_CHIEFTAIN, 			SOUND_SAMPLE_INDEX_SPEECH_US_WINGMAN2_CHIEFTAI, SOUND_SAMPLE_INDEX_SPEECH_CIS_WINGMAN2_CHIEFTAI);

  00a09	68 5b 04 00 00	 push	 1115			; 0000045bH
  00a0e	68 91 03 00 00	 push	 913			; 00000391H
  00a13	6a 08		 push	 8
  00a15	8b 45 f8	 mov	 eax, DWORD PTR _o$[ebp]
  00a18	50		 push	 eax
  00a19	8b 4d fc	 mov	 ecx, DWORD PTR _a$[ebp]
  00a1c	51		 push	 ecx
  00a1d	e8 00 00 00 00	 call	 ?initialise_speech_data@@YGXW4speech_array_types@@W4speech_originator_types@@HHH@Z ; initialise_speech_data

; 225  : 		initialise_speech_data (a, o, GROUP_CALLSIGN_COBRA, 				SOUND_SAMPLE_INDEX_SPEECH_US_WINGMAN2_COBRA, SOUND_SAMPLE_INDEX_SPEECH_CIS_WINGMAN2_COBRA);

  00a22	68 68 04 00 00	 push	 1128			; 00000468H
  00a27	68 9e 03 00 00	 push	 926			; 0000039eH
  00a2c	6a 09		 push	 9
  00a2e	8b 45 f8	 mov	 eax, DWORD PTR _o$[ebp]
  00a31	50		 push	 eax
  00a32	8b 4d fc	 mov	 ecx, DWORD PTR _a$[ebp]
  00a35	51		 push	 ecx
  00a36	e8 00 00 00 00	 call	 ?initialise_speech_data@@YGXW4speech_array_types@@W4speech_originator_types@@HHH@Z ; initialise_speech_data

; 226  : 		initialise_speech_data (a, o, GROUP_CALLSIGN_COMET, 				SOUND_SAMPLE_INDEX_SPEECH_US_WINGMAN2_COMET, SOUND_SAMPLE_INDEX_SPEECH_CIS_WINGMAN2_COMET);

  00a3b	68 69 04 00 00	 push	 1129			; 00000469H
  00a40	68 9f 03 00 00	 push	 927			; 0000039fH
  00a45	6a 0a		 push	 10			; 0000000aH
  00a47	8b 45 f8	 mov	 eax, DWORD PTR _o$[ebp]
  00a4a	50		 push	 eax
  00a4b	8b 4d fc	 mov	 ecx, DWORD PTR _a$[ebp]
  00a4e	51		 push	 ecx
  00a4f	e8 00 00 00 00	 call	 ?initialise_speech_data@@YGXW4speech_array_types@@W4speech_originator_types@@HHH@Z ; initialise_speech_data

; 227  : 		initialise_speech_data (a, o, GROUP_CALLSIGN_CONDOR, 				SOUND_SAMPLE_INDEX_SPEECH_US_WINGMAN2_CONDOR, SOUND_SAMPLE_INDEX_SPEECH_CIS_WINGMAN2_CONDOR);

  00a54	68 6a 04 00 00	 push	 1130			; 0000046aH
  00a59	68 a0 03 00 00	 push	 928			; 000003a0H
  00a5e	6a 0b		 push	 11			; 0000000bH
  00a60	8b 45 f8	 mov	 eax, DWORD PTR _o$[ebp]
  00a63	50		 push	 eax
  00a64	8b 4d fc	 mov	 ecx, DWORD PTR _a$[ebp]
  00a67	51		 push	 ecx
  00a68	e8 00 00 00 00	 call	 ?initialise_speech_data@@YGXW4speech_array_types@@W4speech_originator_types@@HHH@Z ; initialise_speech_data

; 228  : 		initialise_speech_data (a, o, GROUP_CALLSIGN_COUGAR, 				SOUND_SAMPLE_INDEX_SPEECH_US_WINGMAN2_COUGAR, SOUND_SAMPLE_INDEX_SPEECH_CIS_WINGMAN2_COUGAR);

  00a6d	68 6b 04 00 00	 push	 1131			; 0000046bH
  00a72	68 a1 03 00 00	 push	 929			; 000003a1H
  00a77	6a 0c		 push	 12			; 0000000cH
  00a79	8b 45 f8	 mov	 eax, DWORD PTR _o$[ebp]
  00a7c	50		 push	 eax
  00a7d	8b 4d fc	 mov	 ecx, DWORD PTR _a$[ebp]
  00a80	51		 push	 ecx
  00a81	e8 00 00 00 00	 call	 ?initialise_speech_data@@YGXW4speech_array_types@@W4speech_originator_types@@HHH@Z ; initialise_speech_data

; 229  : 		initialise_speech_data (a, o, GROUP_CALLSIGN_COWBOY, 				SOUND_SAMPLE_INDEX_SPEECH_US_WINGMAN2_COWBOY, SOUND_SAMPLE_INDEX_SPEECH_CIS_WINGMAN2_COWBOY);

  00a86	68 6c 04 00 00	 push	 1132			; 0000046cH
  00a8b	68 a2 03 00 00	 push	 930			; 000003a2H
  00a90	6a 0d		 push	 13			; 0000000dH
  00a92	8b 45 f8	 mov	 eax, DWORD PTR _o$[ebp]
  00a95	50		 push	 eax
  00a96	8b 4d fc	 mov	 ecx, DWORD PTR _a$[ebp]
  00a99	51		 push	 ecx
  00a9a	e8 00 00 00 00	 call	 ?initialise_speech_data@@YGXW4speech_array_types@@W4speech_originator_types@@HHH@Z ; initialise_speech_data

; 230  : 		initialise_speech_data (a, o, GROUP_CALLSIGN_DARKHORSE, 			SOUND_SAMPLE_INDEX_SPEECH_US_WINGMAN2_DARKHORS, SOUND_SAMPLE_INDEX_SPEECH_CIS_WINGMAN2_DARKHORS);

  00a9f	68 6d 04 00 00	 push	 1133			; 0000046dH
  00aa4	68 a3 03 00 00	 push	 931			; 000003a3H
  00aa9	6a 0e		 push	 14			; 0000000eH
  00aab	8b 45 f8	 mov	 eax, DWORD PTR _o$[ebp]
  00aae	50		 push	 eax
  00aaf	8b 4d fc	 mov	 ecx, DWORD PTR _a$[ebp]
  00ab2	51		 push	 ecx
  00ab3	e8 00 00 00 00	 call	 ?initialise_speech_data@@YGXW4speech_array_types@@W4speech_originator_types@@HHH@Z ; initialise_speech_data

; 231  : 		initialise_speech_data (a, o, GROUP_CALLSIGN_DEMON, 				SOUND_SAMPLE_INDEX_SPEECH_US_WINGMAN2_DEMON, SOUND_SAMPLE_INDEX_SPEECH_CIS_WINGMAN2_DEMON);

  00ab8	68 6e 04 00 00	 push	 1134			; 0000046eH
  00abd	68 a4 03 00 00	 push	 932			; 000003a4H
  00ac2	6a 0f		 push	 15			; 0000000fH
  00ac4	8b 45 f8	 mov	 eax, DWORD PTR _o$[ebp]
  00ac7	50		 push	 eax
  00ac8	8b 4d fc	 mov	 ecx, DWORD PTR _a$[ebp]
  00acb	51		 push	 ecx
  00acc	e8 00 00 00 00	 call	 ?initialise_speech_data@@YGXW4speech_array_types@@W4speech_originator_types@@HHH@Z ; initialise_speech_data

; 232  : 		initialise_speech_data (a, o, GROUP_CALLSIGN_DODGER, 				SOUND_SAMPLE_INDEX_SPEECH_US_WINGMAN2_DODGER, SOUND_SAMPLE_INDEX_SPEECH_CIS_WINGMAN2_DODGER);

  00ad1	68 6f 04 00 00	 push	 1135			; 0000046fH
  00ad6	68 a5 03 00 00	 push	 933			; 000003a5H
  00adb	6a 10		 push	 16			; 00000010H
  00add	8b 45 f8	 mov	 eax, DWORD PTR _o$[ebp]
  00ae0	50		 push	 eax
  00ae1	8b 4d fc	 mov	 ecx, DWORD PTR _a$[ebp]
  00ae4	51		 push	 ecx
  00ae5	e8 00 00 00 00	 call	 ?initialise_speech_data@@YGXW4speech_array_types@@W4speech_originator_types@@HHH@Z ; initialise_speech_data

; 233  : 		initialise_speech_data (a, o, GROUP_CALLSIGN_DRAGON, 				SOUND_SAMPLE_INDEX_SPEECH_US_WINGMAN2_DRAGON, SOUND_SAMPLE_INDEX_SPEECH_CIS_WINGMAN2_DRAGON);

  00aea	68 70 04 00 00	 push	 1136			; 00000470H
  00aef	68 a6 03 00 00	 push	 934			; 000003a6H
  00af4	6a 11		 push	 17			; 00000011H
  00af6	8b 45 f8	 mov	 eax, DWORD PTR _o$[ebp]
  00af9	50		 push	 eax
  00afa	8b 4d fc	 mov	 ecx, DWORD PTR _a$[ebp]
  00afd	51		 push	 ecx
  00afe	e8 00 00 00 00	 call	 ?initialise_speech_data@@YGXW4speech_array_types@@W4speech_originator_types@@HHH@Z ; initialise_speech_data

; 234  : 		initialise_speech_data (a, o, GROUP_CALLSIGN_EAGLE, 				SOUND_SAMPLE_INDEX_SPEECH_US_WINGMAN2_EAGLE, SOUND_SAMPLE_INDEX_SPEECH_CIS_WINGMAN2_EAGLE);

  00b03	68 71 04 00 00	 push	 1137			; 00000471H
  00b08	68 a7 03 00 00	 push	 935			; 000003a7H
  00b0d	6a 12		 push	 18			; 00000012H
  00b0f	8b 45 f8	 mov	 eax, DWORD PTR _o$[ebp]
  00b12	50		 push	 eax
  00b13	8b 4d fc	 mov	 ecx, DWORD PTR _a$[ebp]
  00b16	51		 push	 ecx
  00b17	e8 00 00 00 00	 call	 ?initialise_speech_data@@YGXW4speech_array_types@@W4speech_originator_types@@HHH@Z ; initialise_speech_data

; 235  : 		initialise_speech_data (a, o, GROUP_CALLSIGN_EIGHTBALL, 			SOUND_SAMPLE_INDEX_SPEECH_US_WINGMAN2_EIGHTBAL, SOUND_SAMPLE_INDEX_SPEECH_CIS_WINGMAN2_EIGHTBAL);

  00b1c	68 72 04 00 00	 push	 1138			; 00000472H
  00b21	68 a8 03 00 00	 push	 936			; 000003a8H
  00b26	6a 13		 push	 19			; 00000013H
  00b28	8b 45 f8	 mov	 eax, DWORD PTR _o$[ebp]
  00b2b	50		 push	 eax
  00b2c	8b 4d fc	 mov	 ecx, DWORD PTR _a$[ebp]
  00b2f	51		 push	 ecx
  00b30	e8 00 00 00 00	 call	 ?initialise_speech_data@@YGXW4speech_array_types@@W4speech_originator_types@@HHH@Z ; initialise_speech_data

; 236  : 		initialise_speech_data (a, o, GROUP_CALLSIGN_FARSIGHT, 			SOUND_SAMPLE_INDEX_SPEECH_US_WINGMAN2_FARSIGHT, SOUND_SAMPLE_INDEX_SPEECH_CIS_WINGMAN2_FARSIGHT);

  00b35	68 73 04 00 00	 push	 1139			; 00000473H
  00b3a	68 a9 03 00 00	 push	 937			; 000003a9H
  00b3f	6a 14		 push	 20			; 00000014H
  00b41	8b 45 f8	 mov	 eax, DWORD PTR _o$[ebp]
  00b44	50		 push	 eax
  00b45	8b 4d fc	 mov	 ecx, DWORD PTR _a$[ebp]
  00b48	51		 push	 ecx
  00b49	e8 00 00 00 00	 call	 ?initialise_speech_data@@YGXW4speech_array_types@@W4speech_originator_types@@HHH@Z ; initialise_speech_data

; 237  : 		initialise_speech_data (a, o, GROUP_CALLSIGN_FIREBALL, 			SOUND_SAMPLE_INDEX_SPEECH_US_WINGMAN2_FIREBALL, SOUND_SAMPLE_INDEX_SPEECH_CIS_WINGMAN2_FIREBALL);

  00b4e	68 74 04 00 00	 push	 1140			; 00000474H
  00b53	68 aa 03 00 00	 push	 938			; 000003aaH
  00b58	6a 15		 push	 21			; 00000015H
  00b5a	8b 45 f8	 mov	 eax, DWORD PTR _o$[ebp]
  00b5d	50		 push	 eax
  00b5e	8b 4d fc	 mov	 ecx, DWORD PTR _a$[ebp]
  00b61	51		 push	 ecx
  00b62	e8 00 00 00 00	 call	 ?initialise_speech_data@@YGXW4speech_array_types@@W4speech_originator_types@@HHH@Z ; initialise_speech_data

; 238  : 		initialise_speech_data (a, o, GROUP_CALLSIGN_FIREBIRD, 			SOUND_SAMPLE_INDEX_SPEECH_US_WINGMAN2_FIREBIRD, SOUND_SAMPLE_INDEX_SPEECH_CIS_WINGMAN2_FIREBIRD);

  00b67	68 75 04 00 00	 push	 1141			; 00000475H
  00b6c	68 ab 03 00 00	 push	 939			; 000003abH
  00b71	6a 16		 push	 22			; 00000016H
  00b73	8b 45 f8	 mov	 eax, DWORD PTR _o$[ebp]
  00b76	50		 push	 eax
  00b77	8b 4d fc	 mov	 ecx, DWORD PTR _a$[ebp]
  00b7a	51		 push	 ecx
  00b7b	e8 00 00 00 00	 call	 ?initialise_speech_data@@YGXW4speech_array_types@@W4speech_originator_types@@HHH@Z ; initialise_speech_data

; 239  : 		initialise_speech_data (a, o, GROUP_CALLSIGN_FIREFOX, 			SOUND_SAMPLE_INDEX_SPEECH_US_WINGMAN2_FIREFOX, SOUND_SAMPLE_INDEX_SPEECH_CIS_WINGMAN2_FIREFOX);

  00b80	68 76 04 00 00	 push	 1142			; 00000476H
  00b85	68 ac 03 00 00	 push	 940			; 000003acH
  00b8a	6a 17		 push	 23			; 00000017H
  00b8c	8b 45 f8	 mov	 eax, DWORD PTR _o$[ebp]
  00b8f	50		 push	 eax
  00b90	8b 4d fc	 mov	 ecx, DWORD PTR _a$[ebp]
  00b93	51		 push	 ecx
  00b94	e8 00 00 00 00	 call	 ?initialise_speech_data@@YGXW4speech_array_types@@W4speech_originator_types@@HHH@Z ; initialise_speech_data

; 240  : 		initialise_speech_data (a, o, GROUP_CALLSIGN_FREELANCER, 		SOUND_SAMPLE_INDEX_SPEECH_US_WINGMAN2_FREELANC, SOUND_SAMPLE_INDEX_SPEECH_CIS_WINGMAN2_FREELANC);

  00b99	68 77 04 00 00	 push	 1143			; 00000477H
  00b9e	68 ad 03 00 00	 push	 941			; 000003adH
  00ba3	6a 18		 push	 24			; 00000018H
  00ba5	8b 45 f8	 mov	 eax, DWORD PTR _o$[ebp]
  00ba8	50		 push	 eax
  00ba9	8b 4d fc	 mov	 ecx, DWORD PTR _a$[ebp]
  00bac	51		 push	 ecx
  00bad	e8 00 00 00 00	 call	 ?initialise_speech_data@@YGXW4speech_array_types@@W4speech_originator_types@@HHH@Z ; initialise_speech_data

; 241  : 		initialise_speech_data (a, o, GROUP_CALLSIGN_GATOR, 				SOUND_SAMPLE_INDEX_SPEECH_US_WINGMAN2_GATOR, SOUND_SAMPLE_INDEX_SPEECH_CIS_WINGMAN2_GATOR);

  00bb2	68 78 04 00 00	 push	 1144			; 00000478H
  00bb7	68 ae 03 00 00	 push	 942			; 000003aeH
  00bbc	6a 19		 push	 25			; 00000019H
  00bbe	8b 45 f8	 mov	 eax, DWORD PTR _o$[ebp]
  00bc1	50		 push	 eax
  00bc2	8b 4d fc	 mov	 ecx, DWORD PTR _a$[ebp]
  00bc5	51		 push	 ecx
  00bc6	e8 00 00 00 00	 call	 ?initialise_speech_data@@YGXW4speech_array_types@@W4speech_originator_types@@HHH@Z ; initialise_speech_data

; 242  : 		initialise_speech_data (a, o, GROUP_CALLSIGN_GAUNTLET, 			SOUND_SAMPLE_INDEX_SPEECH_US_WINGMAN2_GAUNTLET, SOUND_SAMPLE_INDEX_SPEECH_CIS_WINGMAN2_GAUNTLET);

  00bcb	68 79 04 00 00	 push	 1145			; 00000479H
  00bd0	68 af 03 00 00	 push	 943			; 000003afH
  00bd5	6a 1a		 push	 26			; 0000001aH
  00bd7	8b 45 f8	 mov	 eax, DWORD PTR _o$[ebp]
  00bda	50		 push	 eax
  00bdb	8b 4d fc	 mov	 ecx, DWORD PTR _a$[ebp]
  00bde	51		 push	 ecx
  00bdf	e8 00 00 00 00	 call	 ?initialise_speech_data@@YGXW4speech_array_types@@W4speech_originator_types@@HHH@Z ; initialise_speech_data

; 243  : 		initialise_speech_data (a, o, GROUP_CALLSIGN_GHOSTRIDER, 		SOUND_SAMPLE_INDEX_SPEECH_US_WINGMAN2_GHOSTRID, SOUND_SAMPLE_INDEX_SPEECH_CIS_WINGMAN2_GHOSTRID);

  00be4	68 7a 04 00 00	 push	 1146			; 0000047aH
  00be9	68 b0 03 00 00	 push	 944			; 000003b0H
  00bee	6a 1b		 push	 27			; 0000001bH
  00bf0	8b 45 f8	 mov	 eax, DWORD PTR _o$[ebp]
  00bf3	50		 push	 eax
  00bf4	8b 4d fc	 mov	 ecx, DWORD PTR _a$[ebp]
  00bf7	51		 push	 ecx
  00bf8	e8 00 00 00 00	 call	 ?initialise_speech_data@@YGXW4speech_array_types@@W4speech_originator_types@@HHH@Z ; initialise_speech_data

; 244  : 		initialise_speech_data (a, o, GROUP_CALLSIGN_GLADIATOR, 			SOUND_SAMPLE_INDEX_SPEECH_US_WINGMAN2_GLADIATO, SOUND_SAMPLE_INDEX_SPEECH_CIS_WINGMAN2_GLADIATO);

  00bfd	68 7b 04 00 00	 push	 1147			; 0000047bH
  00c02	68 b1 03 00 00	 push	 945			; 000003b1H
  00c07	6a 1c		 push	 28			; 0000001cH
  00c09	8b 45 f8	 mov	 eax, DWORD PTR _o$[ebp]
  00c0c	50		 push	 eax
  00c0d	8b 4d fc	 mov	 ecx, DWORD PTR _a$[ebp]
  00c10	51		 push	 ecx
  00c11	e8 00 00 00 00	 call	 ?initialise_speech_data@@YGXW4speech_array_types@@W4speech_originator_types@@HHH@Z ; initialise_speech_data

; 245  : 		initialise_speech_data (a, o, GROUP_CALLSIGN_GOLIATH, 			SOUND_SAMPLE_INDEX_SPEECH_US_WINGMAN2_GOLIATH, SOUND_SAMPLE_INDEX_SPEECH_CIS_WINGMAN2_GOLIATH);

  00c16	68 7c 04 00 00	 push	 1148			; 0000047cH
  00c1b	68 b2 03 00 00	 push	 946			; 000003b2H
  00c20	6a 1d		 push	 29			; 0000001dH
  00c22	8b 45 f8	 mov	 eax, DWORD PTR _o$[ebp]
  00c25	50		 push	 eax
  00c26	8b 4d fc	 mov	 ecx, DWORD PTR _a$[ebp]
  00c29	51		 push	 ecx
  00c2a	e8 00 00 00 00	 call	 ?initialise_speech_data@@YGXW4speech_array_types@@W4speech_originator_types@@HHH@Z ; initialise_speech_data

; 246  : 		initialise_speech_data (a, o, GROUP_CALLSIGN_GOOSE, 				SOUND_SAMPLE_INDEX_SPEECH_US_WINGMAN2_GOOSE, SOUND_SAMPLE_INDEX_SPEECH_CIS_WINGMAN2_GOOSE);

  00c2f	68 7d 04 00 00	 push	 1149			; 0000047dH
  00c34	68 b3 03 00 00	 push	 947			; 000003b3H
  00c39	6a 1e		 push	 30			; 0000001eH
  00c3b	8b 45 f8	 mov	 eax, DWORD PTR _o$[ebp]
  00c3e	50		 push	 eax
  00c3f	8b 4d fc	 mov	 ecx, DWORD PTR _a$[ebp]
  00c42	51		 push	 ecx
  00c43	e8 00 00 00 00	 call	 ?initialise_speech_data@@YGXW4speech_array_types@@W4speech_originator_types@@HHH@Z ; initialise_speech_data

; 247  : 		initialise_speech_data (a, o, GROUP_CALLSIGN_HAWKEYE, 			SOUND_SAMPLE_INDEX_SPEECH_US_WINGMAN2_HAWKEYE, SOUND_SAMPLE_INDEX_SPEECH_CIS_WINGMAN2_HAWKEYE);

  00c48	68 80 04 00 00	 push	 1152			; 00000480H
  00c4d	68 b6 03 00 00	 push	 950			; 000003b6H
  00c52	6a 1f		 push	 31			; 0000001fH
  00c54	8b 45 f8	 mov	 eax, DWORD PTR _o$[ebp]
  00c57	50		 push	 eax
  00c58	8b 4d fc	 mov	 ecx, DWORD PTR _a$[ebp]
  00c5b	51		 push	 ecx
  00c5c	e8 00 00 00 00	 call	 ?initialise_speech_data@@YGXW4speech_array_types@@W4speech_originator_types@@HHH@Z ; initialise_speech_data

; 248  : 		initialise_speech_data (a, o, GROUP_CALLSIGN_HELLCAT, 			SOUND_SAMPLE_INDEX_SPEECH_US_WINGMAN2_HELLCAT, SOUND_SAMPLE_INDEX_SPEECH_CIS_WINGMAN2_HELLCAT);

  00c61	68 81 04 00 00	 push	 1153			; 00000481H
  00c66	68 b7 03 00 00	 push	 951			; 000003b7H
  00c6b	6a 20		 push	 32			; 00000020H
  00c6d	8b 45 f8	 mov	 eax, DWORD PTR _o$[ebp]
  00c70	50		 push	 eax
  00c71	8b 4d fc	 mov	 ecx, DWORD PTR _a$[ebp]
  00c74	51		 push	 ecx
  00c75	e8 00 00 00 00	 call	 ?initialise_speech_data@@YGXW4speech_array_types@@W4speech_originator_types@@HHH@Z ; initialise_speech_data

; 249  : 		initialise_speech_data (a, o, GROUP_CALLSIGN_HUNTER, 				SOUND_SAMPLE_INDEX_SPEECH_US_WINGMAN2_HUNTER, SOUND_SAMPLE_INDEX_SPEECH_CIS_WINGMAN2_HUNTER);

  00c7a	68 82 04 00 00	 push	 1154			; 00000482H
  00c7f	68 b8 03 00 00	 push	 952			; 000003b8H
  00c84	6a 21		 push	 33			; 00000021H
  00c86	8b 45 f8	 mov	 eax, DWORD PTR _o$[ebp]
  00c89	50		 push	 eax
  00c8a	8b 4d fc	 mov	 ecx, DWORD PTR _a$[ebp]
  00c8d	51		 push	 ecx
  00c8e	e8 00 00 00 00	 call	 ?initialise_speech_data@@YGXW4speech_array_types@@W4speech_originator_types@@HHH@Z ; initialise_speech_data

; 250  : 		initialise_speech_data (a, o, GROUP_CALLSIGN_JAGUAR, 				SOUND_SAMPLE_INDEX_SPEECH_US_WINGMAN2_JAGUAR, SOUND_SAMPLE_INDEX_SPEECH_CIS_WINGMAN2_JAGUAR);

  00c93	68 83 04 00 00	 push	 1155			; 00000483H
  00c98	68 b9 03 00 00	 push	 953			; 000003b9H
  00c9d	6a 22		 push	 34			; 00000022H
  00c9f	8b 45 f8	 mov	 eax, DWORD PTR _o$[ebp]
  00ca2	50		 push	 eax
  00ca3	8b 4d fc	 mov	 ecx, DWORD PTR _a$[ebp]
  00ca6	51		 push	 ecx
  00ca7	e8 00 00 00 00	 call	 ?initialise_speech_data@@YGXW4speech_array_types@@W4speech_originator_types@@HHH@Z ; initialise_speech_data

; 251  : 		initialise_speech_data (a, o, GROUP_CALLSIGN_JESTER, 				SOUND_SAMPLE_INDEX_SPEECH_US_WINGMAN2_JESTER, SOUND_SAMPLE_INDEX_SPEECH_CIS_WINGMAN2_JESTER);

  00cac	68 84 04 00 00	 push	 1156			; 00000484H
  00cb1	68 ba 03 00 00	 push	 954			; 000003baH
  00cb6	6a 23		 push	 35			; 00000023H
  00cb8	8b 45 f8	 mov	 eax, DWORD PTR _o$[ebp]
  00cbb	50		 push	 eax
  00cbc	8b 4d fc	 mov	 ecx, DWORD PTR _a$[ebp]
  00cbf	51		 push	 ecx
  00cc0	e8 00 00 00 00	 call	 ?initialise_speech_data@@YGXW4speech_array_types@@W4speech_originator_types@@HHH@Z ; initialise_speech_data

; 252  : 		initialise_speech_data (a, o, GROUP_CALLSIGN_JUPITER, 			SOUND_SAMPLE_INDEX_SPEECH_US_WINGMAN2_JUPITER, SOUND_SAMPLE_INDEX_SPEECH_CIS_WINGMAN2_JUPITER);

  00cc5	68 86 04 00 00	 push	 1158			; 00000486H
  00cca	68 bc 03 00 00	 push	 956			; 000003bcH
  00ccf	6a 24		 push	 36			; 00000024H
  00cd1	8b 45 f8	 mov	 eax, DWORD PTR _o$[ebp]
  00cd4	50		 push	 eax
  00cd5	8b 4d fc	 mov	 ecx, DWORD PTR _a$[ebp]
  00cd8	51		 push	 ecx
  00cd9	e8 00 00 00 00	 call	 ?initialise_speech_data@@YGXW4speech_array_types@@W4speech_originator_types@@HHH@Z ; initialise_speech_data

; 253  : 		initialise_speech_data (a, o, GROUP_CALLSIGN_JUGGERNAUT, 		SOUND_SAMPLE_INDEX_SPEECH_US_WINGMAN2_JUGGERNA, SOUND_SAMPLE_INDEX_SPEECH_CIS_WINGMAN2_JUGGERNA);

  00cde	68 85 04 00 00	 push	 1157			; 00000485H
  00ce3	68 bb 03 00 00	 push	 955			; 000003bbH
  00ce8	6a 25		 push	 37			; 00000025H
  00cea	8b 45 f8	 mov	 eax, DWORD PTR _o$[ebp]
  00ced	50		 push	 eax
  00cee	8b 4d fc	 mov	 ecx, DWORD PTR _a$[ebp]
  00cf1	51		 push	 ecx
  00cf2	e8 00 00 00 00	 call	 ?initialise_speech_data@@YGXW4speech_array_types@@W4speech_originator_types@@HHH@Z ; initialise_speech_data

; 254  : 		initialise_speech_data (a, o, GROUP_CALLSIGN_KESTREL, 			SOUND_SAMPLE_INDEX_SPEECH_US_WINGMAN2_KESTREL, SOUND_SAMPLE_INDEX_SPEECH_CIS_WINGMAN2_KESTREL);

  00cf7	68 87 04 00 00	 push	 1159			; 00000487H
  00cfc	68 bd 03 00 00	 push	 957			; 000003bdH
  00d01	6a 26		 push	 38			; 00000026H
  00d03	8b 45 f8	 mov	 eax, DWORD PTR _o$[ebp]
  00d06	50		 push	 eax
  00d07	8b 4d fc	 mov	 ecx, DWORD PTR _a$[ebp]
  00d0a	51		 push	 ecx
  00d0b	e8 00 00 00 00	 call	 ?initialise_speech_data@@YGXW4speech_array_types@@W4speech_originator_types@@HHH@Z ; initialise_speech_data

; 255  : 		initialise_speech_data (a, o, GROUP_CALLSIGN_LANCER, 				SOUND_SAMPLE_INDEX_SPEECH_US_WINGMAN2_LANCER, SOUND_SAMPLE_INDEX_SPEECH_CIS_WINGMAN2_LANCER);

  00d10	68 8a 04 00 00	 push	 1162			; 0000048aH
  00d15	68 c0 03 00 00	 push	 960			; 000003c0H
  00d1a	6a 27		 push	 39			; 00000027H
  00d1c	8b 45 f8	 mov	 eax, DWORD PTR _o$[ebp]
  00d1f	50		 push	 eax
  00d20	8b 4d fc	 mov	 ecx, DWORD PTR _a$[ebp]
  00d23	51		 push	 ecx
  00d24	e8 00 00 00 00	 call	 ?initialise_speech_data@@YGXW4speech_array_types@@W4speech_originator_types@@HHH@Z ; initialise_speech_data

; 256  : 		initialise_speech_data (a, o, GROUP_CALLSIGN_LIMA, 				SOUND_SAMPLE_INDEX_SPEECH_US_WINGMAN2_LIMA, SOUND_SAMPLE_INDEX_SPEECH_CIS_WINGMAN2_LIMA);

  00d29	68 8b 04 00 00	 push	 1163			; 0000048bH
  00d2e	68 c1 03 00 00	 push	 961			; 000003c1H
  00d33	6a 28		 push	 40			; 00000028H
  00d35	8b 45 f8	 mov	 eax, DWORD PTR _o$[ebp]
  00d38	50		 push	 eax
  00d39	8b 4d fc	 mov	 ecx, DWORD PTR _a$[ebp]
  00d3c	51		 push	 ecx
  00d3d	e8 00 00 00 00	 call	 ?initialise_speech_data@@YGXW4speech_array_types@@W4speech_originator_types@@HHH@Z ; initialise_speech_data

; 257  : 		initialise_speech_data (a, o, GROUP_CALLSIGN_MANIAC, 				SOUND_SAMPLE_INDEX_SPEECH_US_WINGMAN2_MANIAC, SOUND_SAMPLE_INDEX_SPEECH_CIS_WINGMAN2_MANIAC);

  00d42	68 8c 04 00 00	 push	 1164			; 0000048cH
  00d47	68 c2 03 00 00	 push	 962			; 000003c2H
  00d4c	6a 29		 push	 41			; 00000029H
  00d4e	8b 45 f8	 mov	 eax, DWORD PTR _o$[ebp]
  00d51	50		 push	 eax
  00d52	8b 4d fc	 mov	 ecx, DWORD PTR _a$[ebp]
  00d55	51		 push	 ecx
  00d56	e8 00 00 00 00	 call	 ?initialise_speech_data@@YGXW4speech_array_types@@W4speech_originator_types@@HHH@Z ; initialise_speech_data

; 258  : 		initialise_speech_data (a, o, GROUP_CALLSIGN_MANTIS, 				SOUND_SAMPLE_INDEX_SPEECH_US_WINGMAN2_MANTIS, SOUND_SAMPLE_INDEX_SPEECH_CIS_WINGMAN2_MANTIS);

  00d5b	68 8d 04 00 00	 push	 1165			; 0000048dH
  00d60	68 c3 03 00 00	 push	 963			; 000003c3H
  00d65	6a 2a		 push	 42			; 0000002aH
  00d67	8b 45 f8	 mov	 eax, DWORD PTR _o$[ebp]
  00d6a	50		 push	 eax
  00d6b	8b 4d fc	 mov	 ecx, DWORD PTR _a$[ebp]
  00d6e	51		 push	 ecx
  00d6f	e8 00 00 00 00	 call	 ?initialise_speech_data@@YGXW4speech_array_types@@W4speech_originator_types@@HHH@Z ; initialise_speech_data

; 259  : 		initialise_speech_data (a, o, GROUP_CALLSIGN_MAULER, 				SOUND_SAMPLE_INDEX_SPEECH_US_WINGMAN2_MAULER, SOUND_SAMPLE_INDEX_SPEECH_CIS_WINGMAN2_MAULER);

  00d74	68 8e 04 00 00	 push	 1166			; 0000048eH
  00d79	68 c4 03 00 00	 push	 964			; 000003c4H
  00d7e	6a 2b		 push	 43			; 0000002bH
  00d80	8b 45 f8	 mov	 eax, DWORD PTR _o$[ebp]
  00d83	50		 push	 eax
  00d84	8b 4d fc	 mov	 ecx, DWORD PTR _a$[ebp]
  00d87	51		 push	 ecx
  00d88	e8 00 00 00 00	 call	 ?initialise_speech_data@@YGXW4speech_array_types@@W4speech_originator_types@@HHH@Z ; initialise_speech_data

; 260  : 		initialise_speech_data (a, o, GROUP_CALLSIGN_MERCURY, 			SOUND_SAMPLE_INDEX_SPEECH_US_WINGMAN2_MERCURY, SOUND_SAMPLE_INDEX_SPEECH_CIS_WINGMAN2_MERCURY);

  00d8d	68 8f 04 00 00	 push	 1167			; 0000048fH
  00d92	68 c5 03 00 00	 push	 965			; 000003c5H
  00d97	6a 2c		 push	 44			; 0000002cH
  00d99	8b 45 f8	 mov	 eax, DWORD PTR _o$[ebp]
  00d9c	50		 push	 eax
  00d9d	8b 4d fc	 mov	 ecx, DWORD PTR _a$[ebp]
  00da0	51		 push	 ecx
  00da1	e8 00 00 00 00	 call	 ?initialise_speech_data@@YGXW4speech_array_types@@W4speech_originator_types@@HHH@Z ; initialise_speech_data

; 261  : 		initialise_speech_data (a, o, GROUP_CALLSIGN_MERLIN, 				SOUND_SAMPLE_INDEX_SPEECH_US_WINGMAN2_MERLIN, SOUND_SAMPLE_INDEX_SPEECH_CIS_WINGMAN2_MERLIN);

  00da6	68 90 04 00 00	 push	 1168			; 00000490H
  00dab	68 c6 03 00 00	 push	 966			; 000003c6H
  00db0	6a 2d		 push	 45			; 0000002dH
  00db2	8b 45 f8	 mov	 eax, DWORD PTR _o$[ebp]
  00db5	50		 push	 eax
  00db6	8b 4d fc	 mov	 ecx, DWORD PTR _a$[ebp]
  00db9	51		 push	 ecx
  00dba	e8 00 00 00 00	 call	 ?initialise_speech_data@@YGXW4speech_array_types@@W4speech_originator_types@@HHH@Z ; initialise_speech_data

; 262  : 		initialise_speech_data (a, o, GROUP_CALLSIGN_MILKMAN, 			SOUND_SAMPLE_INDEX_SPEECH_US_WINGMAN2_MILKMAN, SOUND_SAMPLE_INDEX_SPEECH_CIS_WINGMAN2_MILKMAN);

  00dbf	68 91 04 00 00	 push	 1169			; 00000491H
  00dc4	68 c7 03 00 00	 push	 967			; 000003c7H
  00dc9	6a 2e		 push	 46			; 0000002eH
  00dcb	8b 45 f8	 mov	 eax, DWORD PTR _o$[ebp]
  00dce	50		 push	 eax
  00dcf	8b 4d fc	 mov	 ecx, DWORD PTR _a$[ebp]
  00dd2	51		 push	 ecx
  00dd3	e8 00 00 00 00	 call	 ?initialise_speech_data@@YGXW4speech_array_types@@W4speech_originator_types@@HHH@Z ; initialise_speech_data

; 263  : 		initialise_speech_data (a, o, GROUP_CALLSIGN_MUSTANG, 			SOUND_SAMPLE_INDEX_SPEECH_US_WINGMAN2_MUSTANG, SOUND_SAMPLE_INDEX_SPEECH_CIS_WINGMAN2_MUSTANG);

  00dd8	68 92 04 00 00	 push	 1170			; 00000492H
  00ddd	68 c8 03 00 00	 push	 968			; 000003c8H
  00de2	6a 2f		 push	 47			; 0000002fH
  00de4	8b 45 f8	 mov	 eax, DWORD PTR _o$[ebp]
  00de7	50		 push	 eax
  00de8	8b 4d fc	 mov	 ecx, DWORD PTR _a$[ebp]
  00deb	51		 push	 ecx
  00dec	e8 00 00 00 00	 call	 ?initialise_speech_data@@YGXW4speech_array_types@@W4speech_originator_types@@HHH@Z ; initialise_speech_data

; 264  : 		initialise_speech_data (a, o, GROUP_CALLSIGN_NIGHTMARE, 			SOUND_SAMPLE_INDEX_SPEECH_US_WINGMAN2_NIGHTMAR, SOUND_SAMPLE_INDEX_SPEECH_CIS_WINGMAN2_NIGHTMAR);

  00df1	68 93 04 00 00	 push	 1171			; 00000493H
  00df6	68 c9 03 00 00	 push	 969			; 000003c9H
  00dfb	6a 30		 push	 48			; 00000030H
  00dfd	8b 45 f8	 mov	 eax, DWORD PTR _o$[ebp]
  00e00	50		 push	 eax
  00e01	8b 4d fc	 mov	 ecx, DWORD PTR _a$[ebp]
  00e04	51		 push	 ecx
  00e05	e8 00 00 00 00	 call	 ?initialise_speech_data@@YGXW4speech_array_types@@W4speech_originator_types@@HHH@Z ; initialise_speech_data

; 265  : 		initialise_speech_data (a, o, GROUP_CALLSIGN_PANTHER, 			SOUND_SAMPLE_INDEX_SPEECH_US_WINGMAN2_PANTHER, SOUND_SAMPLE_INDEX_SPEECH_CIS_WINGMAN2_PANTHER);

  00e0a	68 94 04 00 00	 push	 1172			; 00000494H
  00e0f	68 ca 03 00 00	 push	 970			; 000003caH
  00e14	6a 31		 push	 49			; 00000031H
  00e16	8b 45 f8	 mov	 eax, DWORD PTR _o$[ebp]
  00e19	50		 push	 eax
  00e1a	8b 4d fc	 mov	 ecx, DWORD PTR _a$[ebp]
  00e1d	51		 push	 ecx
  00e1e	e8 00 00 00 00	 call	 ?initialise_speech_data@@YGXW4speech_array_types@@W4speech_originator_types@@HHH@Z ; initialise_speech_data

; 266  : 		initialise_speech_data (a, o, GROUP_CALLSIGN_PATRIOT, 			SOUND_SAMPLE_INDEX_SPEECH_US_WINGMAN2_PATRIOT, SOUND_SAMPLE_INDEX_SPEECH_CIS_WINGMAN2_PATRIOT);

  00e23	68 95 04 00 00	 push	 1173			; 00000495H
  00e28	68 cb 03 00 00	 push	 971			; 000003cbH
  00e2d	6a 32		 push	 50			; 00000032H
  00e2f	8b 45 f8	 mov	 eax, DWORD PTR _o$[ebp]
  00e32	50		 push	 eax
  00e33	8b 4d fc	 mov	 ecx, DWORD PTR _a$[ebp]
  00e36	51		 push	 ecx
  00e37	e8 00 00 00 00	 call	 ?initialise_speech_data@@YGXW4speech_array_types@@W4speech_originator_types@@HHH@Z ; initialise_speech_data

; 267  : 		initialise_speech_data (a, o, GROUP_CALLSIGN_PHANTOM, 			SOUND_SAMPLE_INDEX_SPEECH_US_WINGMAN2_PHANTOM, SOUND_SAMPLE_INDEX_SPEECH_CIS_WINGMAN2_PHANTOM);

  00e3c	68 96 04 00 00	 push	 1174			; 00000496H
  00e41	68 cc 03 00 00	 push	 972			; 000003ccH
  00e46	6a 33		 push	 51			; 00000033H
  00e48	8b 45 f8	 mov	 eax, DWORD PTR _o$[ebp]
  00e4b	50		 push	 eax
  00e4c	8b 4d fc	 mov	 ecx, DWORD PTR _a$[ebp]
  00e4f	51		 push	 ecx
  00e50	e8 00 00 00 00	 call	 ?initialise_speech_data@@YGXW4speech_array_types@@W4speech_originator_types@@HHH@Z ; initialise_speech_data

; 268  : 		initialise_speech_data (a, o, GROUP_CALLSIGN_PHOENIX, 			SOUND_SAMPLE_INDEX_SPEECH_US_WINGMAN2_PHOENIX, SOUND_SAMPLE_INDEX_SPEECH_CIS_WINGMAN2_PHOENIX);

  00e55	68 97 04 00 00	 push	 1175			; 00000497H
  00e5a	68 cd 03 00 00	 push	 973			; 000003cdH
  00e5f	6a 34		 push	 52			; 00000034H
  00e61	8b 45 f8	 mov	 eax, DWORD PTR _o$[ebp]
  00e64	50		 push	 eax
  00e65	8b 4d fc	 mov	 ecx, DWORD PTR _a$[ebp]
  00e68	51		 push	 ecx
  00e69	e8 00 00 00 00	 call	 ?initialise_speech_data@@YGXW4speech_array_types@@W4speech_originator_types@@HHH@Z ; initialise_speech_data

; 269  : 		initialise_speech_data (a, o, GROUP_CALLSIGN_PREACHER, 			SOUND_SAMPLE_INDEX_SPEECH_US_WINGMAN2_PREACHER, SOUND_SAMPLE_INDEX_SPEECH_CIS_WINGMAN2_PREACHER);

  00e6e	68 98 04 00 00	 push	 1176			; 00000498H
  00e73	68 ce 03 00 00	 push	 974			; 000003ceH
  00e78	6a 35		 push	 53			; 00000035H
  00e7a	8b 45 f8	 mov	 eax, DWORD PTR _o$[ebp]
  00e7d	50		 push	 eax
  00e7e	8b 4d fc	 mov	 ecx, DWORD PTR _a$[ebp]
  00e81	51		 push	 ecx
  00e82	e8 00 00 00 00	 call	 ?initialise_speech_data@@YGXW4speech_array_types@@W4speech_originator_types@@HHH@Z ; initialise_speech_data

; 270  : 		initialise_speech_data (a, o, GROUP_CALLSIGN_PYTHON, 				SOUND_SAMPLE_INDEX_SPEECH_US_WINGMAN2_PYTHON, SOUND_SAMPLE_INDEX_SPEECH_CIS_WINGMAN2_PYTHON);

  00e87	68 99 04 00 00	 push	 1177			; 00000499H
  00e8c	68 cf 03 00 00	 push	 975			; 000003cfH
  00e91	6a 36		 push	 54			; 00000036H
  00e93	8b 45 f8	 mov	 eax, DWORD PTR _o$[ebp]
  00e96	50		 push	 eax
  00e97	8b 4d fc	 mov	 ecx, DWORD PTR _a$[ebp]
  00e9a	51		 push	 ecx
  00e9b	e8 00 00 00 00	 call	 ?initialise_speech_data@@YGXW4speech_array_types@@W4speech_originator_types@@HHH@Z ; initialise_speech_data

; 271  : 		initialise_speech_data (a, o, GROUP_CALLSIGN_RAPTOR, 				SOUND_SAMPLE_INDEX_SPEECH_US_WINGMAN2_RAPTOR, SOUND_SAMPLE_INDEX_SPEECH_CIS_WINGMAN2_RAPTOR);

  00ea0	68 9b 04 00 00	 push	 1179			; 0000049bH
  00ea5	68 d1 03 00 00	 push	 977			; 000003d1H
  00eaa	6a 37		 push	 55			; 00000037H
  00eac	8b 45 f8	 mov	 eax, DWORD PTR _o$[ebp]
  00eaf	50		 push	 eax
  00eb0	8b 4d fc	 mov	 ecx, DWORD PTR _a$[ebp]
  00eb3	51		 push	 ecx
  00eb4	e8 00 00 00 00	 call	 ?initialise_speech_data@@YGXW4speech_array_types@@W4speech_originator_types@@HHH@Z ; initialise_speech_data

; 272  : 		initialise_speech_data (a, o, GROUP_CALLSIGN_RATTLESNAKE, 		SOUND_SAMPLE_INDEX_SPEECH_US_WINGMAN2_RATTLESN, SOUND_SAMPLE_INDEX_SPEECH_CIS_WINGMAN2_RATTLESN);

  00eb9	68 9c 04 00 00	 push	 1180			; 0000049cH
  00ebe	68 d2 03 00 00	 push	 978			; 000003d2H
  00ec3	6a 38		 push	 56			; 00000038H
  00ec5	8b 45 f8	 mov	 eax, DWORD PTR _o$[ebp]
  00ec8	50		 push	 eax
  00ec9	8b 4d fc	 mov	 ecx, DWORD PTR _a$[ebp]
  00ecc	51		 push	 ecx
  00ecd	e8 00 00 00 00	 call	 ?initialise_speech_data@@YGXW4speech_array_types@@W4speech_originator_types@@HHH@Z ; initialise_speech_data

; 273  : 		initialise_speech_data (a, o, GROUP_CALLSIGN_RAZORBACK, 			SOUND_SAMPLE_INDEX_SPEECH_US_WINGMAN2_RAZORBAC, SOUND_SAMPLE_INDEX_SPEECH_CIS_WINGMAN2_RAZORBAC);

  00ed2	68 9d 04 00 00	 push	 1181			; 0000049dH
  00ed7	68 d3 03 00 00	 push	 979			; 000003d3H
  00edc	6a 39		 push	 57			; 00000039H
  00ede	8b 45 f8	 mov	 eax, DWORD PTR _o$[ebp]
  00ee1	50		 push	 eax
  00ee2	8b 4d fc	 mov	 ecx, DWORD PTR _a$[ebp]
  00ee5	51		 push	 ecx
  00ee6	e8 00 00 00 00	 call	 ?initialise_speech_data@@YGXW4speech_array_types@@W4speech_originator_types@@HHH@Z ; initialise_speech_data

; 274  : 		initialise_speech_data (a, o, GROUP_CALLSIGN_RAZORWORKS, 		SOUND_SAMPLE_INDEX_SPEECH_US_WINGMAN2_RAZORWOR, SOUND_SAMPLE_INDEX_SPEECH_CIS_WINGMAN2_RAZORWOR);

  00eeb	68 9e 04 00 00	 push	 1182			; 0000049eH
  00ef0	68 d4 03 00 00	 push	 980			; 000003d4H
  00ef5	6a 3a		 push	 58			; 0000003aH
  00ef7	8b 45 f8	 mov	 eax, DWORD PTR _o$[ebp]
  00efa	50		 push	 eax
  00efb	8b 4d fc	 mov	 ecx, DWORD PTR _a$[ebp]
  00efe	51		 push	 ecx
  00eff	e8 00 00 00 00	 call	 ?initialise_speech_data@@YGXW4speech_array_types@@W4speech_originator_types@@HHH@Z ; initialise_speech_data

; 275  : 		initialise_speech_data (a, o, GROUP_CALLSIGN_REAPER, 				SOUND_SAMPLE_INDEX_SPEECH_US_WINGMAN2_REAPER, SOUND_SAMPLE_INDEX_SPEECH_CIS_WINGMAN2_REAPER);

  00f04	68 9f 04 00 00	 push	 1183			; 0000049fH
  00f09	68 d5 03 00 00	 push	 981			; 000003d5H
  00f0e	6a 3b		 push	 59			; 0000003bH
  00f10	8b 45 f8	 mov	 eax, DWORD PTR _o$[ebp]
  00f13	50		 push	 eax
  00f14	8b 4d fc	 mov	 ecx, DWORD PTR _a$[ebp]
  00f17	51		 push	 ecx
  00f18	e8 00 00 00 00	 call	 ?initialise_speech_data@@YGXW4speech_array_types@@W4speech_originator_types@@HHH@Z ; initialise_speech_data

; 276  : 		initialise_speech_data (a, o, GROUP_CALLSIGN_RENEGADE, 			SOUND_SAMPLE_INDEX_SPEECH_US_WINGMAN2_RENEGADE, SOUND_SAMPLE_INDEX_SPEECH_CIS_WINGMAN2_RENEGADE);

  00f1d	68 a0 04 00 00	 push	 1184			; 000004a0H
  00f22	68 d6 03 00 00	 push	 982			; 000003d6H
  00f27	6a 3c		 push	 60			; 0000003cH
  00f29	8b 45 f8	 mov	 eax, DWORD PTR _o$[ebp]
  00f2c	50		 push	 eax
  00f2d	8b 4d fc	 mov	 ecx, DWORD PTR _a$[ebp]
  00f30	51		 push	 ecx
  00f31	e8 00 00 00 00	 call	 ?initialise_speech_data@@YGXW4speech_array_types@@W4speech_originator_types@@HHH@Z ; initialise_speech_data

; 277  : 		initialise_speech_data (a, o, GROUP_CALLSIGN_SABRE, 				SOUND_SAMPLE_INDEX_SPEECH_US_WINGMAN2_SABRE, SOUND_SAMPLE_INDEX_SPEECH_CIS_WINGMAN2_SABRE);

  00f36	68 a1 04 00 00	 push	 1185			; 000004a1H
  00f3b	68 d7 03 00 00	 push	 983			; 000003d7H
  00f40	6a 3d		 push	 61			; 0000003dH
  00f42	8b 45 f8	 mov	 eax, DWORD PTR _o$[ebp]
  00f45	50		 push	 eax
  00f46	8b 4d fc	 mov	 ecx, DWORD PTR _a$[ebp]
  00f49	51		 push	 ecx
  00f4a	e8 00 00 00 00	 call	 ?initialise_speech_data@@YGXW4speech_array_types@@W4speech_originator_types@@HHH@Z ; initialise_speech_data

; 278  : 		initialise_speech_data (a, o, GROUP_CALLSIGN_SAVAGE, 				SOUND_SAMPLE_INDEX_SPEECH_US_WINGMAN2_SAVAGE, SOUND_SAMPLE_INDEX_SPEECH_CIS_WINGMAN2_SAVAGE);

  00f4f	68 a2 04 00 00	 push	 1186			; 000004a2H
  00f54	68 d8 03 00 00	 push	 984			; 000003d8H
  00f59	6a 3e		 push	 62			; 0000003eH
  00f5b	8b 45 f8	 mov	 eax, DWORD PTR _o$[ebp]
  00f5e	50		 push	 eax
  00f5f	8b 4d fc	 mov	 ecx, DWORD PTR _a$[ebp]
  00f62	51		 push	 ecx
  00f63	e8 00 00 00 00	 call	 ?initialise_speech_data@@YGXW4speech_array_types@@W4speech_originator_types@@HHH@Z ; initialise_speech_data

; 279  : 		initialise_speech_data (a, o, GROUP_CALLSIGN_SHADOW, 				SOUND_SAMPLE_INDEX_SPEECH_US_WINGMAN2_SHADOW, SOUND_SAMPLE_INDEX_SPEECH_CIS_WINGMAN2_SHADOW);

  00f68	68 a3 04 00 00	 push	 1187			; 000004a3H
  00f6d	68 d9 03 00 00	 push	 985			; 000003d9H
  00f72	6a 3f		 push	 63			; 0000003fH
  00f74	8b 45 f8	 mov	 eax, DWORD PTR _o$[ebp]
  00f77	50		 push	 eax
  00f78	8b 4d fc	 mov	 ecx, DWORD PTR _a$[ebp]
  00f7b	51		 push	 ecx
  00f7c	e8 00 00 00 00	 call	 ?initialise_speech_data@@YGXW4speech_array_types@@W4speech_originator_types@@HHH@Z ; initialise_speech_data

; 280  : 		initialise_speech_data (a, o, GROUP_CALLSIGN_SHERIFF, 			SOUND_SAMPLE_INDEX_SPEECH_US_WINGMAN2_SHERIFF, SOUND_SAMPLE_INDEX_SPEECH_CIS_WINGMAN2_SHERIFF);

  00f81	68 a4 04 00 00	 push	 1188			; 000004a4H
  00f86	68 da 03 00 00	 push	 986			; 000003daH
  00f8b	6a 40		 push	 64			; 00000040H
  00f8d	8b 45 f8	 mov	 eax, DWORD PTR _o$[ebp]
  00f90	50		 push	 eax
  00f91	8b 4d fc	 mov	 ecx, DWORD PTR _a$[ebp]
  00f94	51		 push	 ecx
  00f95	e8 00 00 00 00	 call	 ?initialise_speech_data@@YGXW4speech_array_types@@W4speech_originator_types@@HHH@Z ; initialise_speech_data

; 281  : 		initialise_speech_data (a, o, GROUP_CALLSIGN_SHOGUN, 				SOUND_SAMPLE_INDEX_SPEECH_US_WINGMAN2_SHOGUN, SOUND_SAMPLE_INDEX_SPEECH_CIS_WINGMAN2_SHOGUN);

  00f9a	68 a5 04 00 00	 push	 1189			; 000004a5H
  00f9f	68 db 03 00 00	 push	 987			; 000003dbH
  00fa4	6a 41		 push	 65			; 00000041H
  00fa6	8b 45 f8	 mov	 eax, DWORD PTR _o$[ebp]
  00fa9	50		 push	 eax
  00faa	8b 4d fc	 mov	 ecx, DWORD PTR _a$[ebp]
  00fad	51		 push	 ecx
  00fae	e8 00 00 00 00	 call	 ?initialise_speech_data@@YGXW4speech_array_types@@W4speech_originator_types@@HHH@Z ; initialise_speech_data

; 282  : 		initialise_speech_data (a, o, GROUP_CALLSIGN_SNOWBALL, 			SOUND_SAMPLE_INDEX_SPEECH_US_WINGMAN2_SNOWBALL, SOUND_SAMPLE_INDEX_SPEECH_CIS_WINGMAN2_SNOWBALL);

  00fb3	68 a6 04 00 00	 push	 1190			; 000004a6H
  00fb8	68 dc 03 00 00	 push	 988			; 000003dcH
  00fbd	6a 42		 push	 66			; 00000042H
  00fbf	8b 45 f8	 mov	 eax, DWORD PTR _o$[ebp]
  00fc2	50		 push	 eax
  00fc3	8b 4d fc	 mov	 ecx, DWORD PTR _a$[ebp]
  00fc6	51		 push	 ecx
  00fc7	e8 00 00 00 00	 call	 ?initialise_speech_data@@YGXW4speech_array_types@@W4speech_originator_types@@HHH@Z ; initialise_speech_data

; 283  : 		initialise_speech_data (a, o, GROUP_CALLSIGN_SPARTAKUS, 			SOUND_SAMPLE_INDEX_SPEECH_US_WINGMAN2_SPARTACU, SOUND_SAMPLE_INDEX_SPEECH_CIS_WINGMAN2_SPARTACU);

  00fcc	68 a7 04 00 00	 push	 1191			; 000004a7H
  00fd1	68 dd 03 00 00	 push	 989			; 000003ddH
  00fd6	6a 43		 push	 67			; 00000043H
  00fd8	8b 45 f8	 mov	 eax, DWORD PTR _o$[ebp]
  00fdb	50		 push	 eax
  00fdc	8b 4d fc	 mov	 ecx, DWORD PTR _a$[ebp]
  00fdf	51		 push	 ecx
  00fe0	e8 00 00 00 00	 call	 ?initialise_speech_data@@YGXW4speech_array_types@@W4speech_originator_types@@HHH@Z ; initialise_speech_data

; 284  : 		initialise_speech_data (a, o, GROUP_CALLSIGN_SPECTRUM, 			SOUND_SAMPLE_INDEX_SPEECH_US_WINGMAN2_SPECTRUM, SOUND_SAMPLE_INDEX_SPEECH_CIS_WINGMAN2_SPECTRUM);

  00fe5	68 a8 04 00 00	 push	 1192			; 000004a8H
  00fea	68 de 03 00 00	 push	 990			; 000003deH
  00fef	6a 44		 push	 68			; 00000044H
  00ff1	8b 45 f8	 mov	 eax, DWORD PTR _o$[ebp]
  00ff4	50		 push	 eax
  00ff5	8b 4d fc	 mov	 ecx, DWORD PTR _a$[ebp]
  00ff8	51		 push	 ecx
  00ff9	e8 00 00 00 00	 call	 ?initialise_speech_data@@YGXW4speech_array_types@@W4speech_originator_types@@HHH@Z ; initialise_speech_data

; 285  : 		initialise_speech_data (a, o, GROUP_CALLSIGN_STALKER, 			SOUND_SAMPLE_INDEX_SPEECH_US_WINGMAN2_STALKER, SOUND_SAMPLE_INDEX_SPEECH_CIS_WINGMAN2_STALKER);

  00ffe	68 aa 04 00 00	 push	 1194			; 000004aaH
  01003	68 e0 03 00 00	 push	 992			; 000003e0H
  01008	6a 45		 push	 69			; 00000045H
  0100a	8b 45 f8	 mov	 eax, DWORD PTR _o$[ebp]
  0100d	50		 push	 eax
  0100e	8b 4d fc	 mov	 ecx, DWORD PTR _a$[ebp]
  01011	51		 push	 ecx
  01012	e8 00 00 00 00	 call	 ?initialise_speech_data@@YGXW4speech_array_types@@W4speech_originator_types@@HHH@Z ; initialise_speech_data

; 286  : 		initialise_speech_data (a, o, GROUP_CALLSIGN_STINGRAY, 			SOUND_SAMPLE_INDEX_SPEECH_US_WINGMAN2_STINGRAY, SOUND_SAMPLE_INDEX_SPEECH_CIS_WINGMAN2_STINGRAY);

  01017	68 ab 04 00 00	 push	 1195			; 000004abH
  0101c	68 e1 03 00 00	 push	 993			; 000003e1H
  01021	6a 46		 push	 70			; 00000046H
  01023	8b 45 f8	 mov	 eax, DWORD PTR _o$[ebp]
  01026	50		 push	 eax
  01027	8b 4d fc	 mov	 ecx, DWORD PTR _a$[ebp]
  0102a	51		 push	 ecx
  0102b	e8 00 00 00 00	 call	 ?initialise_speech_data@@YGXW4speech_array_types@@W4speech_originator_types@@HHH@Z ; initialise_speech_data

; 287  : 		initialise_speech_data (a, o, GROUP_CALLSIGN_STRIKER, 			SOUND_SAMPLE_INDEX_SPEECH_US_WINGMAN2_STRIKER, SOUND_SAMPLE_INDEX_SPEECH_CIS_WINGMAN2_STRIKER);

  01030	68 ac 04 00 00	 push	 1196			; 000004acH
  01035	68 e2 03 00 00	 push	 994			; 000003e2H
  0103a	6a 47		 push	 71			; 00000047H
  0103c	8b 45 f8	 mov	 eax, DWORD PTR _o$[ebp]
  0103f	50		 push	 eax
  01040	8b 4d fc	 mov	 ecx, DWORD PTR _a$[ebp]
  01043	51		 push	 ecx
  01044	e8 00 00 00 00	 call	 ?initialise_speech_data@@YGXW4speech_array_types@@W4speech_originator_types@@HHH@Z ; initialise_speech_data

; 288  : 		initialise_speech_data (a, o, GROUP_CALLSIGN_SUNDOWN, 			SOUND_SAMPLE_INDEX_SPEECH_US_WINGMAN2_SUNDOWN, SOUND_SAMPLE_INDEX_SPEECH_CIS_WINGMAN2_SUNDOWN);

  01049	68 ad 04 00 00	 push	 1197			; 000004adH
  0104e	68 e3 03 00 00	 push	 995			; 000003e3H
  01053	6a 48		 push	 72			; 00000048H
  01055	8b 45 f8	 mov	 eax, DWORD PTR _o$[ebp]
  01058	50		 push	 eax
  01059	8b 4d fc	 mov	 ecx, DWORD PTR _a$[ebp]
  0105c	51		 push	 ecx
  0105d	e8 00 00 00 00	 call	 ?initialise_speech_data@@YGXW4speech_array_types@@W4speech_originator_types@@HHH@Z ; initialise_speech_data

; 289  : 		initialise_speech_data (a, o, GROUP_CALLSIGN_SWAMP_FOX, 			SOUND_SAMPLE_INDEX_SPEECH_US_WINGMAN2_SWAMPFOX, SOUND_SAMPLE_INDEX_SPEECH_CIS_WINGMAN2_SWAMPFOX);

  01062	68 ae 04 00 00	 push	 1198			; 000004aeH
  01067	68 e4 03 00 00	 push	 996			; 000003e4H
  0106c	6a 49		 push	 73			; 00000049H
  0106e	8b 45 f8	 mov	 eax, DWORD PTR _o$[ebp]
  01071	50		 push	 eax
  01072	8b 4d fc	 mov	 ecx, DWORD PTR _a$[ebp]
  01075	51		 push	 ecx
  01076	e8 00 00 00 00	 call	 ?initialise_speech_data@@YGXW4speech_array_types@@W4speech_originator_types@@HHH@Z ; initialise_speech_data

; 290  : 		initialise_speech_data (a, o, GROUP_CALLSIGN_TEMPEST, 			SOUND_SAMPLE_INDEX_SPEECH_US_WINGMAN2_TEMPEST, SOUND_SAMPLE_INDEX_SPEECH_CIS_WINGMAN2_TEMPEST);

  0107b	68 af 04 00 00	 push	 1199			; 000004afH
  01080	68 e5 03 00 00	 push	 997			; 000003e5H
  01085	6a 4a		 push	 74			; 0000004aH
  01087	8b 45 f8	 mov	 eax, DWORD PTR _o$[ebp]
  0108a	50		 push	 eax
  0108b	8b 4d fc	 mov	 ecx, DWORD PTR _a$[ebp]
  0108e	51		 push	 ecx
  0108f	e8 00 00 00 00	 call	 ?initialise_speech_data@@YGXW4speech_array_types@@W4speech_originator_types@@HHH@Z ; initialise_speech_data

; 291  : 		initialise_speech_data (a, o, GROUP_CALLSIGN_TIGER_SHARK, 		SOUND_SAMPLE_INDEX_SPEECH_US_WINGMAN2_TIGERSHA, SOUND_SAMPLE_INDEX_SPEECH_CIS_WINGMAN2_TIGERSHA);

  01094	68 b0 04 00 00	 push	 1200			; 000004b0H
  01099	68 e6 03 00 00	 push	 998			; 000003e6H
  0109e	6a 4b		 push	 75			; 0000004bH
  010a0	8b 45 f8	 mov	 eax, DWORD PTR _o$[ebp]
  010a3	50		 push	 eax
  010a4	8b 4d fc	 mov	 ecx, DWORD PTR _a$[ebp]
  010a7	51		 push	 ecx
  010a8	e8 00 00 00 00	 call	 ?initialise_speech_data@@YGXW4speech_array_types@@W4speech_originator_types@@HHH@Z ; initialise_speech_data

; 292  : 		initialise_speech_data (a, o, GROUP_CALLSIGN_TOUCHDOWN, 			SOUND_SAMPLE_INDEX_SPEECH_US_WINGMAN2_TOUCHDOW, SOUND_SAMPLE_INDEX_SPEECH_CIS_WINGMAN2_TOUCHDOW);

  010ad	68 b1 04 00 00	 push	 1201			; 000004b1H
  010b2	68 e7 03 00 00	 push	 999			; 000003e7H
  010b7	6a 4c		 push	 76			; 0000004cH
  010b9	8b 45 f8	 mov	 eax, DWORD PTR _o$[ebp]
  010bc	50		 push	 eax
  010bd	8b 4d fc	 mov	 ecx, DWORD PTR _a$[ebp]
  010c0	51		 push	 ecx
  010c1	e8 00 00 00 00	 call	 ?initialise_speech_data@@YGXW4speech_array_types@@W4speech_originator_types@@HHH@Z ; initialise_speech_data

; 293  : 		initialise_speech_data (a, o, GROUP_CALLSIGN_VAMPIRE, 			SOUND_SAMPLE_INDEX_SPEECH_US_WINGMAN2_VAMPIRE, SOUND_SAMPLE_INDEX_SPEECH_CIS_WINGMAN2_VAMPIRE);

  010c6	68 b2 04 00 00	 push	 1202			; 000004b2H
  010cb	68 e8 03 00 00	 push	 1000			; 000003e8H
  010d0	6a 4d		 push	 77			; 0000004dH
  010d2	8b 45 f8	 mov	 eax, DWORD PTR _o$[ebp]
  010d5	50		 push	 eax
  010d6	8b 4d fc	 mov	 ecx, DWORD PTR _a$[ebp]
  010d9	51		 push	 ecx
  010da	e8 00 00 00 00	 call	 ?initialise_speech_data@@YGXW4speech_array_types@@W4speech_originator_types@@HHH@Z ; initialise_speech_data

; 294  : 		initialise_speech_data (a, o, GROUP_CALLSIGN_VERTIGO, 			SOUND_SAMPLE_INDEX_SPEECH_US_WINGMAN2_VERTIGO, SOUND_SAMPLE_INDEX_SPEECH_CIS_WINGMAN2_VERTIGO);

  010df	68 b3 04 00 00	 push	 1203			; 000004b3H
  010e4	68 e9 03 00 00	 push	 1001			; 000003e9H
  010e9	6a 4e		 push	 78			; 0000004eH
  010eb	8b 45 f8	 mov	 eax, DWORD PTR _o$[ebp]
  010ee	50		 push	 eax
  010ef	8b 4d fc	 mov	 ecx, DWORD PTR _a$[ebp]
  010f2	51		 push	 ecx
  010f3	e8 00 00 00 00	 call	 ?initialise_speech_data@@YGXW4speech_array_types@@W4speech_originator_types@@HHH@Z ; initialise_speech_data

; 295  : 		initialise_speech_data (a, o, GROUP_CALLSIGN_VIGILANTE, 			SOUND_SAMPLE_INDEX_SPEECH_US_WINGMAN2_VIGILANT, SOUND_SAMPLE_INDEX_SPEECH_CIS_WINGMAN2_VIGILANT);

  010f8	68 b4 04 00 00	 push	 1204			; 000004b4H
  010fd	68 ea 03 00 00	 push	 1002			; 000003eaH
  01102	6a 4f		 push	 79			; 0000004fH
  01104	8b 45 f8	 mov	 eax, DWORD PTR _o$[ebp]
  01107	50		 push	 eax
  01108	8b 4d fc	 mov	 ecx, DWORD PTR _a$[ebp]
  0110b	51		 push	 ecx
  0110c	e8 00 00 00 00	 call	 ?initialise_speech_data@@YGXW4speech_array_types@@W4speech_originator_types@@HHH@Z ; initialise_speech_data

; 296  : 		initialise_speech_data (a, o, GROUP_CALLSIGN_VIKING, 				SOUND_SAMPLE_INDEX_SPEECH_US_WINGMAN2_VIKING, SOUND_SAMPLE_INDEX_SPEECH_CIS_WINGMAN2_VIKING);

  01111	68 b5 04 00 00	 push	 1205			; 000004b5H
  01116	68 eb 03 00 00	 push	 1003			; 000003ebH
  0111b	6a 50		 push	 80			; 00000050H
  0111d	8b 45 f8	 mov	 eax, DWORD PTR _o$[ebp]
  01120	50		 push	 eax
  01121	8b 4d fc	 mov	 ecx, DWORD PTR _a$[ebp]
  01124	51		 push	 ecx
  01125	e8 00 00 00 00	 call	 ?initialise_speech_data@@YGXW4speech_array_types@@W4speech_originator_types@@HHH@Z ; initialise_speech_data

; 297  : 		initialise_speech_data (a, o, GROUP_CALLSIGN_VIPER, 				SOUND_SAMPLE_INDEX_SPEECH_US_WINGMAN2_VIPER, SOUND_SAMPLE_INDEX_SPEECH_CIS_WINGMAN2_VIPER);

  0112a	68 b6 04 00 00	 push	 1206			; 000004b6H
  0112f	68 ec 03 00 00	 push	 1004			; 000003ecH
  01134	6a 51		 push	 81			; 00000051H
  01136	8b 45 f8	 mov	 eax, DWORD PTR _o$[ebp]
  01139	50		 push	 eax
  0113a	8b 4d fc	 mov	 ecx, DWORD PTR _a$[ebp]
  0113d	51		 push	 ecx
  0113e	e8 00 00 00 00	 call	 ?initialise_speech_data@@YGXW4speech_array_types@@W4speech_originator_types@@HHH@Z ; initialise_speech_data

; 298  : 		initialise_speech_data (a, o, GROUP_CALLSIGN_VOODOO, 				SOUND_SAMPLE_INDEX_SPEECH_US_WINGMAN2_VOODOO, SOUND_SAMPLE_INDEX_SPEECH_CIS_WINGMAN2_VOODOO);

  01143	68 b7 04 00 00	 push	 1207			; 000004b7H
  01148	68 ed 03 00 00	 push	 1005			; 000003edH
  0114d	6a 52		 push	 82			; 00000052H
  0114f	8b 45 f8	 mov	 eax, DWORD PTR _o$[ebp]
  01152	50		 push	 eax
  01153	8b 4d fc	 mov	 ecx, DWORD PTR _a$[ebp]
  01156	51		 push	 ecx
  01157	e8 00 00 00 00	 call	 ?initialise_speech_data@@YGXW4speech_array_types@@W4speech_originator_types@@HHH@Z ; initialise_speech_data

; 299  : 		initialise_speech_data (a, o, GROUP_CALLSIGN_VULCAN, 				SOUND_SAMPLE_INDEX_SPEECH_US_WINGMAN2_VULCAN, SOUND_SAMPLE_INDEX_SPEECH_CIS_WINGMAN2_VULCAN);

  0115c	68 b8 04 00 00	 push	 1208			; 000004b8H
  01161	68 ee 03 00 00	 push	 1006			; 000003eeH
  01166	6a 53		 push	 83			; 00000053H
  01168	8b 45 f8	 mov	 eax, DWORD PTR _o$[ebp]
  0116b	50		 push	 eax
  0116c	8b 4d fc	 mov	 ecx, DWORD PTR _a$[ebp]
  0116f	51		 push	 ecx
  01170	e8 00 00 00 00	 call	 ?initialise_speech_data@@YGXW4speech_array_types@@W4speech_originator_types@@HHH@Z ; initialise_speech_data

; 300  : 		initialise_speech_data (a, o, GROUP_CALLSIGN_VULTURE, 			SOUND_SAMPLE_INDEX_SPEECH_US_WINGMAN2_VULTURE, SOUND_SAMPLE_INDEX_SPEECH_CIS_WINGMAN2_VULTURE);

  01175	68 b9 04 00 00	 push	 1209			; 000004b9H
  0117a	68 ef 03 00 00	 push	 1007			; 000003efH
  0117f	6a 54		 push	 84			; 00000054H
  01181	8b 45 f8	 mov	 eax, DWORD PTR _o$[ebp]
  01184	50		 push	 eax
  01185	8b 4d fc	 mov	 ecx, DWORD PTR _a$[ebp]
  01188	51		 push	 ecx
  01189	e8 00 00 00 00	 call	 ?initialise_speech_data@@YGXW4speech_array_types@@W4speech_originator_types@@HHH@Z ; initialise_speech_data

; 301  : 		initialise_speech_data (a, o, GROUP_CALLSIGN_WARLOCK, 			SOUND_SAMPLE_INDEX_SPEECH_US_WINGMAN2_WARLOCK, SOUND_SAMPLE_INDEX_SPEECH_CIS_WINGMAN2_WARLOCK);

  0118e	68 ba 04 00 00	 push	 1210			; 000004baH
  01193	68 f0 03 00 00	 push	 1008			; 000003f0H
  01198	6a 55		 push	 85			; 00000055H
  0119a	8b 45 f8	 mov	 eax, DWORD PTR _o$[ebp]
  0119d	50		 push	 eax
  0119e	8b 4d fc	 mov	 ecx, DWORD PTR _a$[ebp]
  011a1	51		 push	 ecx
  011a2	e8 00 00 00 00	 call	 ?initialise_speech_data@@YGXW4speech_array_types@@W4speech_originator_types@@HHH@Z ; initialise_speech_data

; 302  : 		initialise_speech_data (a, o, GROUP_CALLSIGN_WARLORD, 			SOUND_SAMPLE_INDEX_SPEECH_US_WINGMAN2_WARLORD, SOUND_SAMPLE_INDEX_SPEECH_CIS_WINGMAN2_WARLORD);

  011a7	68 bb 04 00 00	 push	 1211			; 000004bbH
  011ac	68 f1 03 00 00	 push	 1009			; 000003f1H
  011b1	6a 56		 push	 86			; 00000056H
  011b3	8b 45 f8	 mov	 eax, DWORD PTR _o$[ebp]
  011b6	50		 push	 eax
  011b7	8b 4d fc	 mov	 ecx, DWORD PTR _a$[ebp]
  011ba	51		 push	 ecx
  011bb	e8 00 00 00 00	 call	 ?initialise_speech_data@@YGXW4speech_array_types@@W4speech_originator_types@@HHH@Z ; initialise_speech_data

; 303  : 		initialise_speech_data (a, o, GROUP_CALLSIGN_WARRIOR, 			SOUND_SAMPLE_INDEX_SPEECH_US_WINGMAN2_WARRIOR, SOUND_SAMPLE_INDEX_SPEECH_CIS_WINGMAN2_WARRIOR);

  011c0	68 bc 04 00 00	 push	 1212			; 000004bcH
  011c5	68 f2 03 00 00	 push	 1010			; 000003f2H
  011ca	6a 57		 push	 87			; 00000057H
  011cc	8b 45 f8	 mov	 eax, DWORD PTR _o$[ebp]
  011cf	50		 push	 eax
  011d0	8b 4d fc	 mov	 ecx, DWORD PTR _a$[ebp]
  011d3	51		 push	 ecx
  011d4	e8 00 00 00 00	 call	 ?initialise_speech_data@@YGXW4speech_array_types@@W4speech_originator_types@@HHH@Z ; initialise_speech_data

; 304  : 		initialise_speech_data (a, o, GROUP_CALLSIGN_WILDCAT, 			SOUND_SAMPLE_INDEX_SPEECH_US_WINGMAN2_WILDCAT, SOUND_SAMPLE_INDEX_SPEECH_CIS_WINGMAN2_WILDCAT);

  011d9	68 bd 04 00 00	 push	 1213			; 000004bdH
  011de	68 f3 03 00 00	 push	 1011			; 000003f3H
  011e3	6a 58		 push	 88			; 00000058H
  011e5	8b 45 f8	 mov	 eax, DWORD PTR _o$[ebp]
  011e8	50		 push	 eax
  011e9	8b 4d fc	 mov	 ecx, DWORD PTR _a$[ebp]
  011ec	51		 push	 ecx
  011ed	e8 00 00 00 00	 call	 ?initialise_speech_data@@YGXW4speech_array_types@@W4speech_originator_types@@HHH@Z ; initialise_speech_data

; 305  : 		initialise_speech_data (a, o, GROUP_CALLSIGN_WOLFPACK, 			SOUND_SAMPLE_INDEX_SPEECH_US_WINGMAN2_WOLFPACK, SOUND_SAMPLE_INDEX_SPEECH_CIS_WINGMAN2_WOLFPACK);

  011f2	68 be 04 00 00	 push	 1214			; 000004beH
  011f7	68 f4 03 00 00	 push	 1012			; 000003f4H
  011fc	6a 59		 push	 89			; 00000059H
  011fe	8b 45 f8	 mov	 eax, DWORD PTR _o$[ebp]
  01201	50		 push	 eax
  01202	8b 4d fc	 mov	 ecx, DWORD PTR _a$[ebp]
  01205	51		 push	 ecx
  01206	e8 00 00 00 00	 call	 ?initialise_speech_data@@YGXW4speech_array_types@@W4speech_originator_types@@HHH@Z ; initialise_speech_data

; 306  : 
; 307  : 		#endif
; 308  : 	}
; 309  : 
; 310  : 	//
; 311  : 	// AIR TRAFFIC CONTROLLER
; 312  : 	//
; 313  : 	{	
; 314  : 		o = SPEECH_ORIGINATOR_AIR_TRAFFIC_CONTROLLER;

  0120b	c7 45 f8 04 00
	00 00		 mov	 DWORD PTR _o$[ebp], 4

; 315  : 		
; 316  : 		initialise_sample_index_array (a, o, max_items);

  01212	8b 45 f4	 mov	 eax, DWORD PTR _max_items$[ebp]
  01215	50		 push	 eax
  01216	8b 4d f8	 mov	 ecx, DWORD PTR _o$[ebp]
  01219	51		 push	 ecx
  0121a	8b 55 fc	 mov	 edx, DWORD PTR _a$[ebp]
  0121d	52		 push	 edx
  0121e	e8 00 00 00 00	 call	 ?initialise_sample_index_array@@YGXW4speech_array_types@@W4speech_originator_types@@H@Z ; initialise_sample_index_array

; 317  : 
; 318  : 		#if !DEMO_VERSION
; 319  : 
; 320  : 		initialise_speech_data (a, o, GROUP_CALLSIGN_ANGEL, 				SOUND_SAMPLE_INDEX_SPEECH_US_ATC_ANGEL, SOUND_SAMPLE_INDEX_SPEECH_CIS_ATC_ANGEL);

  01223	68 e2 00 00 00	 push	 226			; 000000e2H
  01228	6a 6c		 push	 108			; 0000006cH
  0122a	6a 00		 push	 0
  0122c	8b 45 f8	 mov	 eax, DWORD PTR _o$[ebp]
  0122f	50		 push	 eax
  01230	8b 4d fc	 mov	 ecx, DWORD PTR _a$[ebp]
  01233	51		 push	 ecx
  01234	e8 00 00 00 00	 call	 ?initialise_speech_data@@YGXW4speech_array_types@@W4speech_originator_types@@HHH@Z ; initialise_speech_data

; 321  : 		initialise_speech_data (a, o, GROUP_CALLSIGN_APOLLO, 				SOUND_SAMPLE_INDEX_SPEECH_US_ATC_APOLLO, SOUND_SAMPLE_INDEX_SPEECH_CIS_ATC_APOLLO);

  01239	68 e3 00 00 00	 push	 227			; 000000e3H
  0123e	6a 6d		 push	 109			; 0000006dH
  01240	6a 01		 push	 1
  01242	8b 45 f8	 mov	 eax, DWORD PTR _o$[ebp]
  01245	50		 push	 eax
  01246	8b 4d fc	 mov	 ecx, DWORD PTR _a$[ebp]
  01249	51		 push	 ecx
  0124a	e8 00 00 00 00	 call	 ?initialise_speech_data@@YGXW4speech_array_types@@W4speech_originator_types@@HHH@Z ; initialise_speech_data

; 322  : 		initialise_speech_data (a, o, GROUP_CALLSIGN_ARCHER, 				SOUND_SAMPLE_INDEX_SPEECH_US_ATC_ARCHER, SOUND_SAMPLE_INDEX_SPEECH_CIS_ATC_ARCHER);

  0124f	68 e4 00 00 00	 push	 228			; 000000e4H
  01254	6a 6e		 push	 110			; 0000006eH
  01256	6a 02		 push	 2
  01258	8b 45 f8	 mov	 eax, DWORD PTR _o$[ebp]
  0125b	50		 push	 eax
  0125c	8b 4d fc	 mov	 ecx, DWORD PTR _a$[ebp]
  0125f	51		 push	 ecx
  01260	e8 00 00 00 00	 call	 ?initialise_speech_data@@YGXW4speech_array_types@@W4speech_originator_types@@HHH@Z ; initialise_speech_data

; 323  : 		initialise_speech_data (a, o, GROUP_CALLSIGN_BANSHEE, 			SOUND_SAMPLE_INDEX_SPEECH_US_ATC_BANSHEE, SOUND_SAMPLE_INDEX_SPEECH_CIS_ATC_BANSHEE);

  01265	68 f1 00 00 00	 push	 241			; 000000f1H
  0126a	6a 7b		 push	 123			; 0000007bH
  0126c	6a 03		 push	 3
  0126e	8b 45 f8	 mov	 eax, DWORD PTR _o$[ebp]
  01271	50		 push	 eax
  01272	8b 4d fc	 mov	 ecx, DWORD PTR _a$[ebp]
  01275	51		 push	 ecx
  01276	e8 00 00 00 00	 call	 ?initialise_speech_data@@YGXW4speech_array_types@@W4speech_originator_types@@HHH@Z ; initialise_speech_data

; 324  : 		initialise_speech_data (a, o, GROUP_CALLSIGN_BLOODHOUND, 		SOUND_SAMPLE_INDEX_SPEECH_US_ATC_BLOODHOU, SOUND_SAMPLE_INDEX_SPEECH_CIS_ATC_BLOODHOU);

  0127b	68 f3 00 00 00	 push	 243			; 000000f3H
  01280	6a 7d		 push	 125			; 0000007dH
  01282	6a 04		 push	 4
  01284	8b 45 f8	 mov	 eax, DWORD PTR _o$[ebp]
  01287	50		 push	 eax
  01288	8b 4d fc	 mov	 ecx, DWORD PTR _a$[ebp]
  0128b	51		 push	 ecx
  0128c	e8 00 00 00 00	 call	 ?initialise_speech_data@@YGXW4speech_array_types@@W4speech_originator_types@@HHH@Z ; initialise_speech_data

; 325  : 		initialise_speech_data (a, o, GROUP_CALLSIGN_BULLDOG, 			SOUND_SAMPLE_INDEX_SPEECH_US_ATC_BULLDOG, SOUND_SAMPLE_INDEX_SPEECH_CIS_ATC_BULLDOG);

  01291	68 f4 00 00 00	 push	 244			; 000000f4H
  01296	6a 7e		 push	 126			; 0000007eH
  01298	6a 05		 push	 5
  0129a	8b 45 f8	 mov	 eax, DWORD PTR _o$[ebp]
  0129d	50		 push	 eax
  0129e	8b 4d fc	 mov	 ecx, DWORD PTR _a$[ebp]
  012a1	51		 push	 ecx
  012a2	e8 00 00 00 00	 call	 ?initialise_speech_data@@YGXW4speech_array_types@@W4speech_originator_types@@HHH@Z ; initialise_speech_data

; 326  : 		initialise_speech_data (a, o, GROUP_CALLSIGN_CHARGER, 			SOUND_SAMPLE_INDEX_SPEECH_US_ATC_CHARGER, SOUND_SAMPLE_INDEX_SPEECH_CIS_ATC_CHARGER);

  012a7	68 f5 00 00 00	 push	 245			; 000000f5H
  012ac	6a 7f		 push	 127			; 0000007fH
  012ae	6a 06		 push	 6
  012b0	8b 45 f8	 mov	 eax, DWORD PTR _o$[ebp]
  012b3	50		 push	 eax
  012b4	8b 4d fc	 mov	 ecx, DWORD PTR _a$[ebp]
  012b7	51		 push	 ecx
  012b8	e8 00 00 00 00	 call	 ?initialise_speech_data@@YGXW4speech_array_types@@W4speech_originator_types@@HHH@Z ; initialise_speech_data

; 327  : 		initialise_speech_data (a, o, GROUP_CALLSIGN_CHEETAH, 			SOUND_SAMPLE_INDEX_SPEECH_US_ATC_CHEETAH, SOUND_SAMPLE_INDEX_SPEECH_CIS_ATC_CHEETAH);

  012bd	68 f6 00 00 00	 push	 246			; 000000f6H
  012c2	68 80 00 00 00	 push	 128			; 00000080H
  012c7	6a 07		 push	 7
  012c9	8b 45 f8	 mov	 eax, DWORD PTR _o$[ebp]
  012cc	50		 push	 eax
  012cd	8b 4d fc	 mov	 ecx, DWORD PTR _a$[ebp]
  012d0	51		 push	 ecx
  012d1	e8 00 00 00 00	 call	 ?initialise_speech_data@@YGXW4speech_array_types@@W4speech_originator_types@@HHH@Z ; initialise_speech_data

; 328  : 		initialise_speech_data (a, o, GROUP_CALLSIGN_CHIEFTAIN, 			SOUND_SAMPLE_INDEX_SPEECH_US_ATC_CHIEFTAI, SOUND_SAMPLE_INDEX_SPEECH_CIS_ATC_CHIEFTAI);

  012d6	68 f7 00 00 00	 push	 247			; 000000f7H
  012db	68 81 00 00 00	 push	 129			; 00000081H
  012e0	6a 08		 push	 8
  012e2	8b 45 f8	 mov	 eax, DWORD PTR _o$[ebp]
  012e5	50		 push	 eax
  012e6	8b 4d fc	 mov	 ecx, DWORD PTR _a$[ebp]
  012e9	51		 push	 ecx
  012ea	e8 00 00 00 00	 call	 ?initialise_speech_data@@YGXW4speech_array_types@@W4speech_originator_types@@HHH@Z ; initialise_speech_data

; 329  : 		initialise_speech_data (a, o, GROUP_CALLSIGN_COBRA, 				SOUND_SAMPLE_INDEX_SPEECH_US_ATC_COBRA, SOUND_SAMPLE_INDEX_SPEECH_CIS_ATC_COBRA);

  012ef	68 f8 00 00 00	 push	 248			; 000000f8H
  012f4	68 82 00 00 00	 push	 130			; 00000082H
  012f9	6a 09		 push	 9
  012fb	8b 45 f8	 mov	 eax, DWORD PTR _o$[ebp]
  012fe	50		 push	 eax
  012ff	8b 4d fc	 mov	 ecx, DWORD PTR _a$[ebp]
  01302	51		 push	 ecx
  01303	e8 00 00 00 00	 call	 ?initialise_speech_data@@YGXW4speech_array_types@@W4speech_originator_types@@HHH@Z ; initialise_speech_data

; 330  : 		initialise_speech_data (a, o, GROUP_CALLSIGN_COMET, 				SOUND_SAMPLE_INDEX_SPEECH_US_ATC_COMET, SOUND_SAMPLE_INDEX_SPEECH_CIS_ATC_COMET);

  01308	68 f9 00 00 00	 push	 249			; 000000f9H
  0130d	68 83 00 00 00	 push	 131			; 00000083H
  01312	6a 0a		 push	 10			; 0000000aH
  01314	8b 45 f8	 mov	 eax, DWORD PTR _o$[ebp]
  01317	50		 push	 eax
  01318	8b 4d fc	 mov	 ecx, DWORD PTR _a$[ebp]
  0131b	51		 push	 ecx
  0131c	e8 00 00 00 00	 call	 ?initialise_speech_data@@YGXW4speech_array_types@@W4speech_originator_types@@HHH@Z ; initialise_speech_data

; 331  : 		initialise_speech_data (a, o, GROUP_CALLSIGN_CONDOR, 				SOUND_SAMPLE_INDEX_SPEECH_US_ATC_CONDOR, SOUND_SAMPLE_INDEX_SPEECH_CIS_ATC_CONDOR);

  01321	68 fa 00 00 00	 push	 250			; 000000faH
  01326	68 84 00 00 00	 push	 132			; 00000084H
  0132b	6a 0b		 push	 11			; 0000000bH
  0132d	8b 45 f8	 mov	 eax, DWORD PTR _o$[ebp]
  01330	50		 push	 eax
  01331	8b 4d fc	 mov	 ecx, DWORD PTR _a$[ebp]
  01334	51		 push	 ecx
  01335	e8 00 00 00 00	 call	 ?initialise_speech_data@@YGXW4speech_array_types@@W4speech_originator_types@@HHH@Z ; initialise_speech_data

; 332  : 		initialise_speech_data (a, o, GROUP_CALLSIGN_COUGAR, 				SOUND_SAMPLE_INDEX_SPEECH_US_ATC_COUGAR, SOUND_SAMPLE_INDEX_SPEECH_CIS_ATC_COUGAR);

  0133a	68 fb 00 00 00	 push	 251			; 000000fbH
  0133f	68 85 00 00 00	 push	 133			; 00000085H
  01344	6a 0c		 push	 12			; 0000000cH
  01346	8b 45 f8	 mov	 eax, DWORD PTR _o$[ebp]
  01349	50		 push	 eax
  0134a	8b 4d fc	 mov	 ecx, DWORD PTR _a$[ebp]
  0134d	51		 push	 ecx
  0134e	e8 00 00 00 00	 call	 ?initialise_speech_data@@YGXW4speech_array_types@@W4speech_originator_types@@HHH@Z ; initialise_speech_data

; 333  : 		initialise_speech_data (a, o, GROUP_CALLSIGN_COWBOY, 				SOUND_SAMPLE_INDEX_SPEECH_US_ATC_COWBOY, SOUND_SAMPLE_INDEX_SPEECH_CIS_ATC_COWBOY);

  01353	68 fc 00 00 00	 push	 252			; 000000fcH
  01358	68 86 00 00 00	 push	 134			; 00000086H
  0135d	6a 0d		 push	 13			; 0000000dH
  0135f	8b 45 f8	 mov	 eax, DWORD PTR _o$[ebp]
  01362	50		 push	 eax
  01363	8b 4d fc	 mov	 ecx, DWORD PTR _a$[ebp]
  01366	51		 push	 ecx
  01367	e8 00 00 00 00	 call	 ?initialise_speech_data@@YGXW4speech_array_types@@W4speech_originator_types@@HHH@Z ; initialise_speech_data

; 334  : 		initialise_speech_data (a, o, GROUP_CALLSIGN_DARKHORSE, 			SOUND_SAMPLE_INDEX_SPEECH_US_ATC_DARKHORS, SOUND_SAMPLE_INDEX_SPEECH_CIS_ATC_DARKHORS);

  0136c	68 fd 00 00 00	 push	 253			; 000000fdH
  01371	68 87 00 00 00	 push	 135			; 00000087H
  01376	6a 0e		 push	 14			; 0000000eH
  01378	8b 45 f8	 mov	 eax, DWORD PTR _o$[ebp]
  0137b	50		 push	 eax
  0137c	8b 4d fc	 mov	 ecx, DWORD PTR _a$[ebp]
  0137f	51		 push	 ecx
  01380	e8 00 00 00 00	 call	 ?initialise_speech_data@@YGXW4speech_array_types@@W4speech_originator_types@@HHH@Z ; initialise_speech_data

; 335  : 		initialise_speech_data (a, o, GROUP_CALLSIGN_DEMON, 				SOUND_SAMPLE_INDEX_SPEECH_US_ATC_DEMON, SOUND_SAMPLE_INDEX_SPEECH_CIS_ATC_DEMON);

  01385	68 fe 00 00 00	 push	 254			; 000000feH
  0138a	68 88 00 00 00	 push	 136			; 00000088H
  0138f	6a 0f		 push	 15			; 0000000fH
  01391	8b 45 f8	 mov	 eax, DWORD PTR _o$[ebp]
  01394	50		 push	 eax
  01395	8b 4d fc	 mov	 ecx, DWORD PTR _a$[ebp]
  01398	51		 push	 ecx
  01399	e8 00 00 00 00	 call	 ?initialise_speech_data@@YGXW4speech_array_types@@W4speech_originator_types@@HHH@Z ; initialise_speech_data

; 336  : 		initialise_speech_data (a, o, GROUP_CALLSIGN_DODGER, 				SOUND_SAMPLE_INDEX_SPEECH_US_ATC_DODGER, SOUND_SAMPLE_INDEX_SPEECH_CIS_ATC_DODGER);

  0139e	68 ff 00 00 00	 push	 255			; 000000ffH
  013a3	68 89 00 00 00	 push	 137			; 00000089H
  013a8	6a 10		 push	 16			; 00000010H
  013aa	8b 45 f8	 mov	 eax, DWORD PTR _o$[ebp]
  013ad	50		 push	 eax
  013ae	8b 4d fc	 mov	 ecx, DWORD PTR _a$[ebp]
  013b1	51		 push	 ecx
  013b2	e8 00 00 00 00	 call	 ?initialise_speech_data@@YGXW4speech_array_types@@W4speech_originator_types@@HHH@Z ; initialise_speech_data

; 337  : 		initialise_speech_data (a, o, GROUP_CALLSIGN_DRAGON, 				SOUND_SAMPLE_INDEX_SPEECH_US_ATC_DRAGON, SOUND_SAMPLE_INDEX_SPEECH_CIS_ATC_DRAGON);

  013b7	68 00 01 00 00	 push	 256			; 00000100H
  013bc	68 8a 00 00 00	 push	 138			; 0000008aH
  013c1	6a 11		 push	 17			; 00000011H
  013c3	8b 45 f8	 mov	 eax, DWORD PTR _o$[ebp]
  013c6	50		 push	 eax
  013c7	8b 4d fc	 mov	 ecx, DWORD PTR _a$[ebp]
  013ca	51		 push	 ecx
  013cb	e8 00 00 00 00	 call	 ?initialise_speech_data@@YGXW4speech_array_types@@W4speech_originator_types@@HHH@Z ; initialise_speech_data

; 338  : 		initialise_speech_data (a, o, GROUP_CALLSIGN_EAGLE, 				SOUND_SAMPLE_INDEX_SPEECH_US_ATC_EAGLE, SOUND_SAMPLE_INDEX_SPEECH_CIS_ATC_EAGLE);

  013d0	68 01 01 00 00	 push	 257			; 00000101H
  013d5	68 8b 00 00 00	 push	 139			; 0000008bH
  013da	6a 12		 push	 18			; 00000012H
  013dc	8b 45 f8	 mov	 eax, DWORD PTR _o$[ebp]
  013df	50		 push	 eax
  013e0	8b 4d fc	 mov	 ecx, DWORD PTR _a$[ebp]
  013e3	51		 push	 ecx
  013e4	e8 00 00 00 00	 call	 ?initialise_speech_data@@YGXW4speech_array_types@@W4speech_originator_types@@HHH@Z ; initialise_speech_data

; 339  : 		initialise_speech_data (a, o, GROUP_CALLSIGN_EIGHTBALL, 			SOUND_SAMPLE_INDEX_SPEECH_US_ATC_EIGHTBAL, SOUND_SAMPLE_INDEX_SPEECH_CIS_ATC_EIGHTBAL);

  013e9	68 02 01 00 00	 push	 258			; 00000102H
  013ee	68 8c 00 00 00	 push	 140			; 0000008cH
  013f3	6a 13		 push	 19			; 00000013H
  013f5	8b 45 f8	 mov	 eax, DWORD PTR _o$[ebp]
  013f8	50		 push	 eax
  013f9	8b 4d fc	 mov	 ecx, DWORD PTR _a$[ebp]
  013fc	51		 push	 ecx
  013fd	e8 00 00 00 00	 call	 ?initialise_speech_data@@YGXW4speech_array_types@@W4speech_originator_types@@HHH@Z ; initialise_speech_data

; 340  : 		initialise_speech_data (a, o, GROUP_CALLSIGN_FARSIGHT, 			SOUND_SAMPLE_INDEX_SPEECH_US_ATC_FARSIGHT, SOUND_SAMPLE_INDEX_SPEECH_CIS_ATC_FARSIGHT);

  01402	68 03 01 00 00	 push	 259			; 00000103H
  01407	68 8d 00 00 00	 push	 141			; 0000008dH
  0140c	6a 14		 push	 20			; 00000014H
  0140e	8b 45 f8	 mov	 eax, DWORD PTR _o$[ebp]
  01411	50		 push	 eax
  01412	8b 4d fc	 mov	 ecx, DWORD PTR _a$[ebp]
  01415	51		 push	 ecx
  01416	e8 00 00 00 00	 call	 ?initialise_speech_data@@YGXW4speech_array_types@@W4speech_originator_types@@HHH@Z ; initialise_speech_data

; 341  : 		initialise_speech_data (a, o, GROUP_CALLSIGN_FIREBALL, 			SOUND_SAMPLE_INDEX_SPEECH_US_ATC_FIREBALL, SOUND_SAMPLE_INDEX_SPEECH_CIS_ATC_FIREBALL);

  0141b	68 04 01 00 00	 push	 260			; 00000104H
  01420	68 8e 00 00 00	 push	 142			; 0000008eH
  01425	6a 15		 push	 21			; 00000015H
  01427	8b 45 f8	 mov	 eax, DWORD PTR _o$[ebp]
  0142a	50		 push	 eax
  0142b	8b 4d fc	 mov	 ecx, DWORD PTR _a$[ebp]
  0142e	51		 push	 ecx
  0142f	e8 00 00 00 00	 call	 ?initialise_speech_data@@YGXW4speech_array_types@@W4speech_originator_types@@HHH@Z ; initialise_speech_data

; 342  : 		initialise_speech_data (a, o, GROUP_CALLSIGN_FIREBIRD, 			SOUND_SAMPLE_INDEX_SPEECH_US_ATC_FIREBIRD, SOUND_SAMPLE_INDEX_SPEECH_CIS_ATC_FIREBIRD);

  01434	68 05 01 00 00	 push	 261			; 00000105H
  01439	68 8f 00 00 00	 push	 143			; 0000008fH
  0143e	6a 16		 push	 22			; 00000016H
  01440	8b 45 f8	 mov	 eax, DWORD PTR _o$[ebp]
  01443	50		 push	 eax
  01444	8b 4d fc	 mov	 ecx, DWORD PTR _a$[ebp]
  01447	51		 push	 ecx
  01448	e8 00 00 00 00	 call	 ?initialise_speech_data@@YGXW4speech_array_types@@W4speech_originator_types@@HHH@Z ; initialise_speech_data

; 343  : 		initialise_speech_data (a, o, GROUP_CALLSIGN_FIREFOX, 			SOUND_SAMPLE_INDEX_SPEECH_US_ATC_FIREFOX, SOUND_SAMPLE_INDEX_SPEECH_CIS_ATC_FIREFOX);

  0144d	68 06 01 00 00	 push	 262			; 00000106H
  01452	68 90 00 00 00	 push	 144			; 00000090H
  01457	6a 17		 push	 23			; 00000017H
  01459	8b 45 f8	 mov	 eax, DWORD PTR _o$[ebp]
  0145c	50		 push	 eax
  0145d	8b 4d fc	 mov	 ecx, DWORD PTR _a$[ebp]
  01460	51		 push	 ecx
  01461	e8 00 00 00 00	 call	 ?initialise_speech_data@@YGXW4speech_array_types@@W4speech_originator_types@@HHH@Z ; initialise_speech_data

; 344  : 		initialise_speech_data (a, o, GROUP_CALLSIGN_FREELANCER, 		SOUND_SAMPLE_INDEX_SPEECH_US_ATC_FREELANC, SOUND_SAMPLE_INDEX_SPEECH_CIS_ATC_FREELANC);

  01466	68 07 01 00 00	 push	 263			; 00000107H
  0146b	68 91 00 00 00	 push	 145			; 00000091H
  01470	6a 18		 push	 24			; 00000018H
  01472	8b 45 f8	 mov	 eax, DWORD PTR _o$[ebp]
  01475	50		 push	 eax
  01476	8b 4d fc	 mov	 ecx, DWORD PTR _a$[ebp]
  01479	51		 push	 ecx
  0147a	e8 00 00 00 00	 call	 ?initialise_speech_data@@YGXW4speech_array_types@@W4speech_originator_types@@HHH@Z ; initialise_speech_data

; 345  : 		initialise_speech_data (a, o, GROUP_CALLSIGN_GATOR, 				SOUND_SAMPLE_INDEX_SPEECH_US_ATC_GATOR, SOUND_SAMPLE_INDEX_SPEECH_CIS_ATC_GATOR);

  0147f	68 08 01 00 00	 push	 264			; 00000108H
  01484	68 92 00 00 00	 push	 146			; 00000092H
  01489	6a 19		 push	 25			; 00000019H
  0148b	8b 45 f8	 mov	 eax, DWORD PTR _o$[ebp]
  0148e	50		 push	 eax
  0148f	8b 4d fc	 mov	 ecx, DWORD PTR _a$[ebp]
  01492	51		 push	 ecx
  01493	e8 00 00 00 00	 call	 ?initialise_speech_data@@YGXW4speech_array_types@@W4speech_originator_types@@HHH@Z ; initialise_speech_data

; 346  : 		initialise_speech_data (a, o, GROUP_CALLSIGN_GAUNTLET, 			SOUND_SAMPLE_INDEX_SPEECH_US_ATC_GAUNTLET, SOUND_SAMPLE_INDEX_SPEECH_CIS_ATC_GAUNTLET);

  01498	68 09 01 00 00	 push	 265			; 00000109H
  0149d	68 93 00 00 00	 push	 147			; 00000093H
  014a2	6a 1a		 push	 26			; 0000001aH
  014a4	8b 45 f8	 mov	 eax, DWORD PTR _o$[ebp]
  014a7	50		 push	 eax
  014a8	8b 4d fc	 mov	 ecx, DWORD PTR _a$[ebp]
  014ab	51		 push	 ecx
  014ac	e8 00 00 00 00	 call	 ?initialise_speech_data@@YGXW4speech_array_types@@W4speech_originator_types@@HHH@Z ; initialise_speech_data

; 347  : 		initialise_speech_data (a, o, GROUP_CALLSIGN_GHOSTRIDER, 		SOUND_SAMPLE_INDEX_SPEECH_US_ATC_GHOSTRID, SOUND_SAMPLE_INDEX_SPEECH_CIS_ATC_GHOSTRID);

  014b1	68 0a 01 00 00	 push	 266			; 0000010aH
  014b6	68 94 00 00 00	 push	 148			; 00000094H
  014bb	6a 1b		 push	 27			; 0000001bH
  014bd	8b 45 f8	 mov	 eax, DWORD PTR _o$[ebp]
  014c0	50		 push	 eax
  014c1	8b 4d fc	 mov	 ecx, DWORD PTR _a$[ebp]
  014c4	51		 push	 ecx
  014c5	e8 00 00 00 00	 call	 ?initialise_speech_data@@YGXW4speech_array_types@@W4speech_originator_types@@HHH@Z ; initialise_speech_data

; 348  : 		initialise_speech_data (a, o, GROUP_CALLSIGN_GLADIATOR, 			SOUND_SAMPLE_INDEX_SPEECH_US_ATC_GLADIATO, SOUND_SAMPLE_INDEX_SPEECH_CIS_ATC_GLADIATO);

  014ca	68 0b 01 00 00	 push	 267			; 0000010bH
  014cf	68 95 00 00 00	 push	 149			; 00000095H
  014d4	6a 1c		 push	 28			; 0000001cH
  014d6	8b 45 f8	 mov	 eax, DWORD PTR _o$[ebp]
  014d9	50		 push	 eax
  014da	8b 4d fc	 mov	 ecx, DWORD PTR _a$[ebp]
  014dd	51		 push	 ecx
  014de	e8 00 00 00 00	 call	 ?initialise_speech_data@@YGXW4speech_array_types@@W4speech_originator_types@@HHH@Z ; initialise_speech_data

; 349  : 		initialise_speech_data (a, o, GROUP_CALLSIGN_GOLIATH, 			SOUND_SAMPLE_INDEX_SPEECH_US_ATC_GOLIATH, SOUND_SAMPLE_INDEX_SPEECH_CIS_ATC_GOLIATH);

  014e3	68 0c 01 00 00	 push	 268			; 0000010cH
  014e8	68 96 00 00 00	 push	 150			; 00000096H
  014ed	6a 1d		 push	 29			; 0000001dH
  014ef	8b 45 f8	 mov	 eax, DWORD PTR _o$[ebp]
  014f2	50		 push	 eax
  014f3	8b 4d fc	 mov	 ecx, DWORD PTR _a$[ebp]
  014f6	51		 push	 ecx
  014f7	e8 00 00 00 00	 call	 ?initialise_speech_data@@YGXW4speech_array_types@@W4speech_originator_types@@HHH@Z ; initialise_speech_data

; 350  : 		initialise_speech_data (a, o, GROUP_CALLSIGN_GOOSE, 				SOUND_SAMPLE_INDEX_SPEECH_US_ATC_GOOSE, SOUND_SAMPLE_INDEX_SPEECH_CIS_ATC_GOOSE);

  014fc	68 0d 01 00 00	 push	 269			; 0000010dH
  01501	68 97 00 00 00	 push	 151			; 00000097H
  01506	6a 1e		 push	 30			; 0000001eH
  01508	8b 45 f8	 mov	 eax, DWORD PTR _o$[ebp]
  0150b	50		 push	 eax
  0150c	8b 4d fc	 mov	 ecx, DWORD PTR _a$[ebp]
  0150f	51		 push	 ecx
  01510	e8 00 00 00 00	 call	 ?initialise_speech_data@@YGXW4speech_array_types@@W4speech_originator_types@@HHH@Z ; initialise_speech_data

; 351  : 		initialise_speech_data (a, o, GROUP_CALLSIGN_HAWKEYE, 			SOUND_SAMPLE_INDEX_SPEECH_US_ATC_HAWKEYE, SOUND_SAMPLE_INDEX_SPEECH_CIS_ATC_HAWKEYE);

  01515	68 0e 01 00 00	 push	 270			; 0000010eH
  0151a	68 98 00 00 00	 push	 152			; 00000098H
  0151f	6a 1f		 push	 31			; 0000001fH
  01521	8b 45 f8	 mov	 eax, DWORD PTR _o$[ebp]
  01524	50		 push	 eax
  01525	8b 4d fc	 mov	 ecx, DWORD PTR _a$[ebp]
  01528	51		 push	 ecx
  01529	e8 00 00 00 00	 call	 ?initialise_speech_data@@YGXW4speech_array_types@@W4speech_originator_types@@HHH@Z ; initialise_speech_data

; 352  : 		initialise_speech_data (a, o, GROUP_CALLSIGN_HELLCAT, 			SOUND_SAMPLE_INDEX_SPEECH_US_ATC_HELLCAT, SOUND_SAMPLE_INDEX_SPEECH_CIS_ATC_HELLCAT);

  0152e	68 0f 01 00 00	 push	 271			; 0000010fH
  01533	68 99 00 00 00	 push	 153			; 00000099H
  01538	6a 20		 push	 32			; 00000020H
  0153a	8b 45 f8	 mov	 eax, DWORD PTR _o$[ebp]
  0153d	50		 push	 eax
  0153e	8b 4d fc	 mov	 ecx, DWORD PTR _a$[ebp]
  01541	51		 push	 ecx
  01542	e8 00 00 00 00	 call	 ?initialise_speech_data@@YGXW4speech_array_types@@W4speech_originator_types@@HHH@Z ; initialise_speech_data

; 353  : 		initialise_speech_data (a, o, GROUP_CALLSIGN_HUNTER, 				SOUND_SAMPLE_INDEX_SPEECH_US_ATC_HUNTER, SOUND_SAMPLE_INDEX_SPEECH_CIS_ATC_HUNTER);

  01547	68 10 01 00 00	 push	 272			; 00000110H
  0154c	68 9a 00 00 00	 push	 154			; 0000009aH
  01551	6a 21		 push	 33			; 00000021H
  01553	8b 45 f8	 mov	 eax, DWORD PTR _o$[ebp]
  01556	50		 push	 eax
  01557	8b 4d fc	 mov	 ecx, DWORD PTR _a$[ebp]
  0155a	51		 push	 ecx
  0155b	e8 00 00 00 00	 call	 ?initialise_speech_data@@YGXW4speech_array_types@@W4speech_originator_types@@HHH@Z ; initialise_speech_data

; 354  : 		initialise_speech_data (a, o, GROUP_CALLSIGN_JAGUAR, 				SOUND_SAMPLE_INDEX_SPEECH_US_ATC_JAGUAR, SOUND_SAMPLE_INDEX_SPEECH_CIS_ATC_JAGUAR);

  01560	68 11 01 00 00	 push	 273			; 00000111H
  01565	68 9b 00 00 00	 push	 155			; 0000009bH
  0156a	6a 22		 push	 34			; 00000022H
  0156c	8b 45 f8	 mov	 eax, DWORD PTR _o$[ebp]
  0156f	50		 push	 eax
  01570	8b 4d fc	 mov	 ecx, DWORD PTR _a$[ebp]
  01573	51		 push	 ecx
  01574	e8 00 00 00 00	 call	 ?initialise_speech_data@@YGXW4speech_array_types@@W4speech_originator_types@@HHH@Z ; initialise_speech_data

; 355  : 		initialise_speech_data (a, o, GROUP_CALLSIGN_JESTER, 				SOUND_SAMPLE_INDEX_SPEECH_US_ATC_JESTER, SOUND_SAMPLE_INDEX_SPEECH_CIS_ATC_JESTER);

  01579	68 12 01 00 00	 push	 274			; 00000112H
  0157e	68 9c 00 00 00	 push	 156			; 0000009cH
  01583	6a 23		 push	 35			; 00000023H
  01585	8b 45 f8	 mov	 eax, DWORD PTR _o$[ebp]
  01588	50		 push	 eax
  01589	8b 4d fc	 mov	 ecx, DWORD PTR _a$[ebp]
  0158c	51		 push	 ecx
  0158d	e8 00 00 00 00	 call	 ?initialise_speech_data@@YGXW4speech_array_types@@W4speech_originator_types@@HHH@Z ; initialise_speech_data

; 356  : 		initialise_speech_data (a, o, GROUP_CALLSIGN_JUPITER, 			SOUND_SAMPLE_INDEX_SPEECH_US_ATC_JUPITER, SOUND_SAMPLE_INDEX_SPEECH_CIS_ATC_JUPITER);

  01592	68 14 01 00 00	 push	 276			; 00000114H
  01597	68 9e 00 00 00	 push	 158			; 0000009eH
  0159c	6a 24		 push	 36			; 00000024H
  0159e	8b 45 f8	 mov	 eax, DWORD PTR _o$[ebp]
  015a1	50		 push	 eax
  015a2	8b 4d fc	 mov	 ecx, DWORD PTR _a$[ebp]
  015a5	51		 push	 ecx
  015a6	e8 00 00 00 00	 call	 ?initialise_speech_data@@YGXW4speech_array_types@@W4speech_originator_types@@HHH@Z ; initialise_speech_data

; 357  : 		initialise_speech_data (a, o, GROUP_CALLSIGN_JUGGERNAUT, 		SOUND_SAMPLE_INDEX_SPEECH_US_ATC_JUGGERNA, SOUND_SAMPLE_INDEX_SPEECH_CIS_ATC_JUGGERNA);

  015ab	68 13 01 00 00	 push	 275			; 00000113H
  015b0	68 9d 00 00 00	 push	 157			; 0000009dH
  015b5	6a 25		 push	 37			; 00000025H
  015b7	8b 45 f8	 mov	 eax, DWORD PTR _o$[ebp]
  015ba	50		 push	 eax
  015bb	8b 4d fc	 mov	 ecx, DWORD PTR _a$[ebp]
  015be	51		 push	 ecx
  015bf	e8 00 00 00 00	 call	 ?initialise_speech_data@@YGXW4speech_array_types@@W4speech_originator_types@@HHH@Z ; initialise_speech_data

; 358  : 		initialise_speech_data (a, o, GROUP_CALLSIGN_KESTREL, 			SOUND_SAMPLE_INDEX_SPEECH_US_ATC_KESTREL, SOUND_SAMPLE_INDEX_SPEECH_CIS_ATC_KESTREL);

  015c4	68 15 01 00 00	 push	 277			; 00000115H
  015c9	68 9f 00 00 00	 push	 159			; 0000009fH
  015ce	6a 26		 push	 38			; 00000026H
  015d0	8b 45 f8	 mov	 eax, DWORD PTR _o$[ebp]
  015d3	50		 push	 eax
  015d4	8b 4d fc	 mov	 ecx, DWORD PTR _a$[ebp]
  015d7	51		 push	 ecx
  015d8	e8 00 00 00 00	 call	 ?initialise_speech_data@@YGXW4speech_array_types@@W4speech_originator_types@@HHH@Z ; initialise_speech_data

; 359  : 		initialise_speech_data (a, o, GROUP_CALLSIGN_LANCER, 				SOUND_SAMPLE_INDEX_SPEECH_US_ATC_LANCER, SOUND_SAMPLE_INDEX_SPEECH_CIS_ATC_LANCER);

  015dd	68 18 01 00 00	 push	 280			; 00000118H
  015e2	68 a2 00 00 00	 push	 162			; 000000a2H
  015e7	6a 27		 push	 39			; 00000027H
  015e9	8b 45 f8	 mov	 eax, DWORD PTR _o$[ebp]
  015ec	50		 push	 eax
  015ed	8b 4d fc	 mov	 ecx, DWORD PTR _a$[ebp]
  015f0	51		 push	 ecx
  015f1	e8 00 00 00 00	 call	 ?initialise_speech_data@@YGXW4speech_array_types@@W4speech_originator_types@@HHH@Z ; initialise_speech_data

; 360  : 		initialise_speech_data (a, o, GROUP_CALLSIGN_LIMA, 				SOUND_SAMPLE_INDEX_SPEECH_US_ATC_LIMA, SOUND_SAMPLE_INDEX_SPEECH_CIS_ATC_LIMA);

  015f6	68 19 01 00 00	 push	 281			; 00000119H
  015fb	68 a3 00 00 00	 push	 163			; 000000a3H
  01600	6a 28		 push	 40			; 00000028H
  01602	8b 45 f8	 mov	 eax, DWORD PTR _o$[ebp]
  01605	50		 push	 eax
  01606	8b 4d fc	 mov	 ecx, DWORD PTR _a$[ebp]
  01609	51		 push	 ecx
  0160a	e8 00 00 00 00	 call	 ?initialise_speech_data@@YGXW4speech_array_types@@W4speech_originator_types@@HHH@Z ; initialise_speech_data

; 361  : 		initialise_speech_data (a, o, GROUP_CALLSIGN_MANIAC, 				SOUND_SAMPLE_INDEX_SPEECH_US_ATC_MANIAC, SOUND_SAMPLE_INDEX_SPEECH_CIS_ATC_MANIAC);

  0160f	68 1a 01 00 00	 push	 282			; 0000011aH
  01614	68 a4 00 00 00	 push	 164			; 000000a4H
  01619	6a 29		 push	 41			; 00000029H
  0161b	8b 45 f8	 mov	 eax, DWORD PTR _o$[ebp]
  0161e	50		 push	 eax
  0161f	8b 4d fc	 mov	 ecx, DWORD PTR _a$[ebp]
  01622	51		 push	 ecx
  01623	e8 00 00 00 00	 call	 ?initialise_speech_data@@YGXW4speech_array_types@@W4speech_originator_types@@HHH@Z ; initialise_speech_data

; 362  : 		initialise_speech_data (a, o, GROUP_CALLSIGN_MANTIS, 				SOUND_SAMPLE_INDEX_SPEECH_US_ATC_MANTIS, SOUND_SAMPLE_INDEX_SPEECH_CIS_ATC_MANTIS);

  01628	68 1b 01 00 00	 push	 283			; 0000011bH
  0162d	68 a5 00 00 00	 push	 165			; 000000a5H
  01632	6a 2a		 push	 42			; 0000002aH
  01634	8b 45 f8	 mov	 eax, DWORD PTR _o$[ebp]
  01637	50		 push	 eax
  01638	8b 4d fc	 mov	 ecx, DWORD PTR _a$[ebp]
  0163b	51		 push	 ecx
  0163c	e8 00 00 00 00	 call	 ?initialise_speech_data@@YGXW4speech_array_types@@W4speech_originator_types@@HHH@Z ; initialise_speech_data

; 363  : 		initialise_speech_data (a, o, GROUP_CALLSIGN_MAULER, 				SOUND_SAMPLE_INDEX_SPEECH_US_ATC_MAULER, SOUND_SAMPLE_INDEX_SPEECH_CIS_ATC_MAULER);

  01641	68 1c 01 00 00	 push	 284			; 0000011cH
  01646	68 a6 00 00 00	 push	 166			; 000000a6H
  0164b	6a 2b		 push	 43			; 0000002bH
  0164d	8b 45 f8	 mov	 eax, DWORD PTR _o$[ebp]
  01650	50		 push	 eax
  01651	8b 4d fc	 mov	 ecx, DWORD PTR _a$[ebp]
  01654	51		 push	 ecx
  01655	e8 00 00 00 00	 call	 ?initialise_speech_data@@YGXW4speech_array_types@@W4speech_originator_types@@HHH@Z ; initialise_speech_data

; 364  : 		initialise_speech_data (a, o, GROUP_CALLSIGN_MERCURY, 			SOUND_SAMPLE_INDEX_SPEECH_US_ATC_MERCURY, SOUND_SAMPLE_INDEX_SPEECH_CIS_ATC_MERCURY);

  0165a	68 1d 01 00 00	 push	 285			; 0000011dH
  0165f	68 a7 00 00 00	 push	 167			; 000000a7H
  01664	6a 2c		 push	 44			; 0000002cH
  01666	8b 45 f8	 mov	 eax, DWORD PTR _o$[ebp]
  01669	50		 push	 eax
  0166a	8b 4d fc	 mov	 ecx, DWORD PTR _a$[ebp]
  0166d	51		 push	 ecx
  0166e	e8 00 00 00 00	 call	 ?initialise_speech_data@@YGXW4speech_array_types@@W4speech_originator_types@@HHH@Z ; initialise_speech_data

; 365  : 		initialise_speech_data (a, o, GROUP_CALLSIGN_MERLIN, 				SOUND_SAMPLE_INDEX_SPEECH_US_ATC_MERLIN, SOUND_SAMPLE_INDEX_SPEECH_CIS_ATC_MERLIN);

  01673	68 1e 01 00 00	 push	 286			; 0000011eH
  01678	68 a8 00 00 00	 push	 168			; 000000a8H
  0167d	6a 2d		 push	 45			; 0000002dH
  0167f	8b 45 f8	 mov	 eax, DWORD PTR _o$[ebp]
  01682	50		 push	 eax
  01683	8b 4d fc	 mov	 ecx, DWORD PTR _a$[ebp]
  01686	51		 push	 ecx
  01687	e8 00 00 00 00	 call	 ?initialise_speech_data@@YGXW4speech_array_types@@W4speech_originator_types@@HHH@Z ; initialise_speech_data

; 366  : 		initialise_speech_data (a, o, GROUP_CALLSIGN_MILKMAN, 			SOUND_SAMPLE_INDEX_SPEECH_US_ATC_MILKMAN, SOUND_SAMPLE_INDEX_SPEECH_CIS_ATC_MILKMAN);

  0168c	68 1f 01 00 00	 push	 287			; 0000011fH
  01691	68 a9 00 00 00	 push	 169			; 000000a9H
  01696	6a 2e		 push	 46			; 0000002eH
  01698	8b 45 f8	 mov	 eax, DWORD PTR _o$[ebp]
  0169b	50		 push	 eax
  0169c	8b 4d fc	 mov	 ecx, DWORD PTR _a$[ebp]
  0169f	51		 push	 ecx
  016a0	e8 00 00 00 00	 call	 ?initialise_speech_data@@YGXW4speech_array_types@@W4speech_originator_types@@HHH@Z ; initialise_speech_data

; 367  : 		initialise_speech_data (a, o, GROUP_CALLSIGN_MUSTANG, 			SOUND_SAMPLE_INDEX_SPEECH_US_ATC_MUSTANG, SOUND_SAMPLE_INDEX_SPEECH_CIS_ATC_MUSTANG);

  016a5	68 20 01 00 00	 push	 288			; 00000120H
  016aa	68 aa 00 00 00	 push	 170			; 000000aaH
  016af	6a 2f		 push	 47			; 0000002fH
  016b1	8b 45 f8	 mov	 eax, DWORD PTR _o$[ebp]
  016b4	50		 push	 eax
  016b5	8b 4d fc	 mov	 ecx, DWORD PTR _a$[ebp]
  016b8	51		 push	 ecx
  016b9	e8 00 00 00 00	 call	 ?initialise_speech_data@@YGXW4speech_array_types@@W4speech_originator_types@@HHH@Z ; initialise_speech_data

; 368  : 		initialise_speech_data (a, o, GROUP_CALLSIGN_NIGHTMARE, 			SOUND_SAMPLE_INDEX_SPEECH_US_ATC_NIGHTMAR, SOUND_SAMPLE_INDEX_SPEECH_CIS_ATC_NIGHTMAR);

  016be	68 21 01 00 00	 push	 289			; 00000121H
  016c3	68 ab 00 00 00	 push	 171			; 000000abH
  016c8	6a 30		 push	 48			; 00000030H
  016ca	8b 45 f8	 mov	 eax, DWORD PTR _o$[ebp]
  016cd	50		 push	 eax
  016ce	8b 4d fc	 mov	 ecx, DWORD PTR _a$[ebp]
  016d1	51		 push	 ecx
  016d2	e8 00 00 00 00	 call	 ?initialise_speech_data@@YGXW4speech_array_types@@W4speech_originator_types@@HHH@Z ; initialise_speech_data

; 369  : 		initialise_speech_data (a, o, GROUP_CALLSIGN_PANTHER, 			SOUND_SAMPLE_INDEX_SPEECH_US_ATC_PANTHER, SOUND_SAMPLE_INDEX_SPEECH_CIS_ATC_PANTHER);

  016d7	68 22 01 00 00	 push	 290			; 00000122H
  016dc	68 ac 00 00 00	 push	 172			; 000000acH
  016e1	6a 31		 push	 49			; 00000031H
  016e3	8b 45 f8	 mov	 eax, DWORD PTR _o$[ebp]
  016e6	50		 push	 eax
  016e7	8b 4d fc	 mov	 ecx, DWORD PTR _a$[ebp]
  016ea	51		 push	 ecx
  016eb	e8 00 00 00 00	 call	 ?initialise_speech_data@@YGXW4speech_array_types@@W4speech_originator_types@@HHH@Z ; initialise_speech_data

; 370  : 		initialise_speech_data (a, o, GROUP_CALLSIGN_PATRIOT, 			SOUND_SAMPLE_INDEX_SPEECH_US_ATC_PATRIOT, SOUND_SAMPLE_INDEX_SPEECH_CIS_ATC_PATRIOT);

  016f0	68 23 01 00 00	 push	 291			; 00000123H
  016f5	68 ad 00 00 00	 push	 173			; 000000adH
  016fa	6a 32		 push	 50			; 00000032H
  016fc	8b 45 f8	 mov	 eax, DWORD PTR _o$[ebp]
  016ff	50		 push	 eax
  01700	8b 4d fc	 mov	 ecx, DWORD PTR _a$[ebp]
  01703	51		 push	 ecx
  01704	e8 00 00 00 00	 call	 ?initialise_speech_data@@YGXW4speech_array_types@@W4speech_originator_types@@HHH@Z ; initialise_speech_data

; 371  : 		initialise_speech_data (a, o, GROUP_CALLSIGN_PHANTOM, 			SOUND_SAMPLE_INDEX_SPEECH_US_ATC_PHANTOM, SOUND_SAMPLE_INDEX_SPEECH_CIS_ATC_PHANTOM);

  01709	68 24 01 00 00	 push	 292			; 00000124H
  0170e	68 ae 00 00 00	 push	 174			; 000000aeH
  01713	6a 33		 push	 51			; 00000033H
  01715	8b 45 f8	 mov	 eax, DWORD PTR _o$[ebp]
  01718	50		 push	 eax
  01719	8b 4d fc	 mov	 ecx, DWORD PTR _a$[ebp]
  0171c	51		 push	 ecx
  0171d	e8 00 00 00 00	 call	 ?initialise_speech_data@@YGXW4speech_array_types@@W4speech_originator_types@@HHH@Z ; initialise_speech_data

; 372  : 		initialise_speech_data (a, o, GROUP_CALLSIGN_PHOENIX, 			SOUND_SAMPLE_INDEX_SPEECH_US_ATC_PHOENIX, SOUND_SAMPLE_INDEX_SPEECH_CIS_ATC_PHOENIX);

  01722	68 25 01 00 00	 push	 293			; 00000125H
  01727	68 af 00 00 00	 push	 175			; 000000afH
  0172c	6a 34		 push	 52			; 00000034H
  0172e	8b 45 f8	 mov	 eax, DWORD PTR _o$[ebp]
  01731	50		 push	 eax
  01732	8b 4d fc	 mov	 ecx, DWORD PTR _a$[ebp]
  01735	51		 push	 ecx
  01736	e8 00 00 00 00	 call	 ?initialise_speech_data@@YGXW4speech_array_types@@W4speech_originator_types@@HHH@Z ; initialise_speech_data

; 373  : 		initialise_speech_data (a, o, GROUP_CALLSIGN_PREACHER, 			SOUND_SAMPLE_INDEX_SPEECH_US_ATC_PREACHER, SOUND_SAMPLE_INDEX_SPEECH_CIS_ATC_PREACHER);

  0173b	68 26 01 00 00	 push	 294			; 00000126H
  01740	68 b0 00 00 00	 push	 176			; 000000b0H
  01745	6a 35		 push	 53			; 00000035H
  01747	8b 45 f8	 mov	 eax, DWORD PTR _o$[ebp]
  0174a	50		 push	 eax
  0174b	8b 4d fc	 mov	 ecx, DWORD PTR _a$[ebp]
  0174e	51		 push	 ecx
  0174f	e8 00 00 00 00	 call	 ?initialise_speech_data@@YGXW4speech_array_types@@W4speech_originator_types@@HHH@Z ; initialise_speech_data

; 374  : 		initialise_speech_data (a, o, GROUP_CALLSIGN_PYTHON, 				SOUND_SAMPLE_INDEX_SPEECH_US_ATC_PYTHON, SOUND_SAMPLE_INDEX_SPEECH_CIS_ATC_PYTHON);

  01754	68 27 01 00 00	 push	 295			; 00000127H
  01759	68 b1 00 00 00	 push	 177			; 000000b1H
  0175e	6a 36		 push	 54			; 00000036H
  01760	8b 45 f8	 mov	 eax, DWORD PTR _o$[ebp]
  01763	50		 push	 eax
  01764	8b 4d fc	 mov	 ecx, DWORD PTR _a$[ebp]
  01767	51		 push	 ecx
  01768	e8 00 00 00 00	 call	 ?initialise_speech_data@@YGXW4speech_array_types@@W4speech_originator_types@@HHH@Z ; initialise_speech_data

; 375  : 		initialise_speech_data (a, o, GROUP_CALLSIGN_RAPTOR, 				SOUND_SAMPLE_INDEX_SPEECH_US_ATC_RAPTOR, SOUND_SAMPLE_INDEX_SPEECH_CIS_ATC_RAPTOR);

  0176d	68 29 01 00 00	 push	 297			; 00000129H
  01772	68 b3 00 00 00	 push	 179			; 000000b3H
  01777	6a 37		 push	 55			; 00000037H
  01779	8b 45 f8	 mov	 eax, DWORD PTR _o$[ebp]
  0177c	50		 push	 eax
  0177d	8b 4d fc	 mov	 ecx, DWORD PTR _a$[ebp]
  01780	51		 push	 ecx
  01781	e8 00 00 00 00	 call	 ?initialise_speech_data@@YGXW4speech_array_types@@W4speech_originator_types@@HHH@Z ; initialise_speech_data

; 376  : 		initialise_speech_data (a, o, GROUP_CALLSIGN_RATTLESNAKE, 		SOUND_SAMPLE_INDEX_SPEECH_US_ATC_RATTLESN, SOUND_SAMPLE_INDEX_SPEECH_CIS_ATC_RATTLESN);

  01786	68 2a 01 00 00	 push	 298			; 0000012aH
  0178b	68 b4 00 00 00	 push	 180			; 000000b4H
  01790	6a 38		 push	 56			; 00000038H
  01792	8b 45 f8	 mov	 eax, DWORD PTR _o$[ebp]
  01795	50		 push	 eax
  01796	8b 4d fc	 mov	 ecx, DWORD PTR _a$[ebp]
  01799	51		 push	 ecx
  0179a	e8 00 00 00 00	 call	 ?initialise_speech_data@@YGXW4speech_array_types@@W4speech_originator_types@@HHH@Z ; initialise_speech_data

; 377  : 		initialise_speech_data (a, o, GROUP_CALLSIGN_RAZORBACK, 			SOUND_SAMPLE_INDEX_SPEECH_US_ATC_RAZORBAC, SOUND_SAMPLE_INDEX_SPEECH_CIS_ATC_RAZORBAC);

  0179f	68 2b 01 00 00	 push	 299			; 0000012bH
  017a4	68 b5 00 00 00	 push	 181			; 000000b5H
  017a9	6a 39		 push	 57			; 00000039H
  017ab	8b 45 f8	 mov	 eax, DWORD PTR _o$[ebp]
  017ae	50		 push	 eax
  017af	8b 4d fc	 mov	 ecx, DWORD PTR _a$[ebp]
  017b2	51		 push	 ecx
  017b3	e8 00 00 00 00	 call	 ?initialise_speech_data@@YGXW4speech_array_types@@W4speech_originator_types@@HHH@Z ; initialise_speech_data

; 378  : 		initialise_speech_data (a, o, GROUP_CALLSIGN_RAZORWORKS, 		SOUND_SAMPLE_INDEX_SPEECH_US_ATC_RAZORWOR, SOUND_SAMPLE_INDEX_SPEECH_CIS_ATC_RAZORWOR);

  017b8	68 2c 01 00 00	 push	 300			; 0000012cH
  017bd	68 b6 00 00 00	 push	 182			; 000000b6H
  017c2	6a 3a		 push	 58			; 0000003aH
  017c4	8b 45 f8	 mov	 eax, DWORD PTR _o$[ebp]
  017c7	50		 push	 eax
  017c8	8b 4d fc	 mov	 ecx, DWORD PTR _a$[ebp]
  017cb	51		 push	 ecx
  017cc	e8 00 00 00 00	 call	 ?initialise_speech_data@@YGXW4speech_array_types@@W4speech_originator_types@@HHH@Z ; initialise_speech_data

; 379  : 		initialise_speech_data (a, o, GROUP_CALLSIGN_REAPER, 				SOUND_SAMPLE_INDEX_SPEECH_US_ATC_REAPER, SOUND_SAMPLE_INDEX_SPEECH_CIS_ATC_REAPER);

  017d1	68 2d 01 00 00	 push	 301			; 0000012dH
  017d6	68 b7 00 00 00	 push	 183			; 000000b7H
  017db	6a 3b		 push	 59			; 0000003bH
  017dd	8b 45 f8	 mov	 eax, DWORD PTR _o$[ebp]
  017e0	50		 push	 eax
  017e1	8b 4d fc	 mov	 ecx, DWORD PTR _a$[ebp]
  017e4	51		 push	 ecx
  017e5	e8 00 00 00 00	 call	 ?initialise_speech_data@@YGXW4speech_array_types@@W4speech_originator_types@@HHH@Z ; initialise_speech_data

; 380  : 		initialise_speech_data (a, o, GROUP_CALLSIGN_RENEGADE, 			SOUND_SAMPLE_INDEX_SPEECH_US_ATC_RENEGADE, SOUND_SAMPLE_INDEX_SPEECH_CIS_ATC_RENEGADE);

  017ea	68 2e 01 00 00	 push	 302			; 0000012eH
  017ef	68 b8 00 00 00	 push	 184			; 000000b8H
  017f4	6a 3c		 push	 60			; 0000003cH
  017f6	8b 45 f8	 mov	 eax, DWORD PTR _o$[ebp]
  017f9	50		 push	 eax
  017fa	8b 4d fc	 mov	 ecx, DWORD PTR _a$[ebp]
  017fd	51		 push	 ecx
  017fe	e8 00 00 00 00	 call	 ?initialise_speech_data@@YGXW4speech_array_types@@W4speech_originator_types@@HHH@Z ; initialise_speech_data

; 381  : 		initialise_speech_data (a, o, GROUP_CALLSIGN_SABRE, 				SOUND_SAMPLE_INDEX_SPEECH_US_ATC_SABRE, SOUND_SAMPLE_INDEX_SPEECH_CIS_ATC_SABRE);

  01803	68 2f 01 00 00	 push	 303			; 0000012fH
  01808	68 b9 00 00 00	 push	 185			; 000000b9H
  0180d	6a 3d		 push	 61			; 0000003dH
  0180f	8b 45 f8	 mov	 eax, DWORD PTR _o$[ebp]
  01812	50		 push	 eax
  01813	8b 4d fc	 mov	 ecx, DWORD PTR _a$[ebp]
  01816	51		 push	 ecx
  01817	e8 00 00 00 00	 call	 ?initialise_speech_data@@YGXW4speech_array_types@@W4speech_originator_types@@HHH@Z ; initialise_speech_data

; 382  : 		initialise_speech_data (a, o, GROUP_CALLSIGN_SAVAGE, 				SOUND_SAMPLE_INDEX_SPEECH_US_ATC_SAVAGE, SOUND_SAMPLE_INDEX_SPEECH_CIS_ATC_SAVAGE);

  0181c	68 30 01 00 00	 push	 304			; 00000130H
  01821	68 ba 00 00 00	 push	 186			; 000000baH
  01826	6a 3e		 push	 62			; 0000003eH
  01828	8b 45 f8	 mov	 eax, DWORD PTR _o$[ebp]
  0182b	50		 push	 eax
  0182c	8b 4d fc	 mov	 ecx, DWORD PTR _a$[ebp]
  0182f	51		 push	 ecx
  01830	e8 00 00 00 00	 call	 ?initialise_speech_data@@YGXW4speech_array_types@@W4speech_originator_types@@HHH@Z ; initialise_speech_data

; 383  : 		initialise_speech_data (a, o, GROUP_CALLSIGN_SHADOW, 				SOUND_SAMPLE_INDEX_SPEECH_US_ATC_SHADOW, SOUND_SAMPLE_INDEX_SPEECH_CIS_ATC_SHADOW);

  01835	68 31 01 00 00	 push	 305			; 00000131H
  0183a	68 bb 00 00 00	 push	 187			; 000000bbH
  0183f	6a 3f		 push	 63			; 0000003fH
  01841	8b 45 f8	 mov	 eax, DWORD PTR _o$[ebp]
  01844	50		 push	 eax
  01845	8b 4d fc	 mov	 ecx, DWORD PTR _a$[ebp]
  01848	51		 push	 ecx
  01849	e8 00 00 00 00	 call	 ?initialise_speech_data@@YGXW4speech_array_types@@W4speech_originator_types@@HHH@Z ; initialise_speech_data

; 384  : 		initialise_speech_data (a, o, GROUP_CALLSIGN_SHERIFF, 			SOUND_SAMPLE_INDEX_SPEECH_US_ATC_SHERIFF, SOUND_SAMPLE_INDEX_SPEECH_CIS_ATC_SHERIFF);

  0184e	68 32 01 00 00	 push	 306			; 00000132H
  01853	68 bc 00 00 00	 push	 188			; 000000bcH
  01858	6a 40		 push	 64			; 00000040H
  0185a	8b 45 f8	 mov	 eax, DWORD PTR _o$[ebp]
  0185d	50		 push	 eax
  0185e	8b 4d fc	 mov	 ecx, DWORD PTR _a$[ebp]
  01861	51		 push	 ecx
  01862	e8 00 00 00 00	 call	 ?initialise_speech_data@@YGXW4speech_array_types@@W4speech_originator_types@@HHH@Z ; initialise_speech_data

; 385  : 		initialise_speech_data (a, o, GROUP_CALLSIGN_SHOGUN, 				SOUND_SAMPLE_INDEX_SPEECH_US_ATC_SHOGUN, SOUND_SAMPLE_INDEX_SPEECH_CIS_ATC_SHOGUN);

  01867	68 33 01 00 00	 push	 307			; 00000133H
  0186c	68 bd 00 00 00	 push	 189			; 000000bdH
  01871	6a 41		 push	 65			; 00000041H
  01873	8b 45 f8	 mov	 eax, DWORD PTR _o$[ebp]
  01876	50		 push	 eax
  01877	8b 4d fc	 mov	 ecx, DWORD PTR _a$[ebp]
  0187a	51		 push	 ecx
  0187b	e8 00 00 00 00	 call	 ?initialise_speech_data@@YGXW4speech_array_types@@W4speech_originator_types@@HHH@Z ; initialise_speech_data

; 386  : 		initialise_speech_data (a, o, GROUP_CALLSIGN_SNOWBALL, 			SOUND_SAMPLE_INDEX_SPEECH_US_ATC_SNOWBALL, SOUND_SAMPLE_INDEX_SPEECH_CIS_ATC_SNOWBALL);

  01880	68 34 01 00 00	 push	 308			; 00000134H
  01885	68 be 00 00 00	 push	 190			; 000000beH
  0188a	6a 42		 push	 66			; 00000042H
  0188c	8b 45 f8	 mov	 eax, DWORD PTR _o$[ebp]
  0188f	50		 push	 eax
  01890	8b 4d fc	 mov	 ecx, DWORD PTR _a$[ebp]
  01893	51		 push	 ecx
  01894	e8 00 00 00 00	 call	 ?initialise_speech_data@@YGXW4speech_array_types@@W4speech_originator_types@@HHH@Z ; initialise_speech_data

; 387  : 		initialise_speech_data (a, o, GROUP_CALLSIGN_SPARTAKUS, 			SOUND_SAMPLE_INDEX_SPEECH_US_ATC_SPARTACU, SOUND_SAMPLE_INDEX_SPEECH_CIS_ATC_SPARTACU);

  01899	68 35 01 00 00	 push	 309			; 00000135H
  0189e	68 bf 00 00 00	 push	 191			; 000000bfH
  018a3	6a 43		 push	 67			; 00000043H
  018a5	8b 45 f8	 mov	 eax, DWORD PTR _o$[ebp]
  018a8	50		 push	 eax
  018a9	8b 4d fc	 mov	 ecx, DWORD PTR _a$[ebp]
  018ac	51		 push	 ecx
  018ad	e8 00 00 00 00	 call	 ?initialise_speech_data@@YGXW4speech_array_types@@W4speech_originator_types@@HHH@Z ; initialise_speech_data

; 388  : 		initialise_speech_data (a, o, GROUP_CALLSIGN_SPECTRUM, 			SOUND_SAMPLE_INDEX_SPEECH_US_ATC_SPECTRUM, SOUND_SAMPLE_INDEX_SPEECH_CIS_ATC_SPECTRUM);

  018b2	68 36 01 00 00	 push	 310			; 00000136H
  018b7	68 c0 00 00 00	 push	 192			; 000000c0H
  018bc	6a 44		 push	 68			; 00000044H
  018be	8b 45 f8	 mov	 eax, DWORD PTR _o$[ebp]
  018c1	50		 push	 eax
  018c2	8b 4d fc	 mov	 ecx, DWORD PTR _a$[ebp]
  018c5	51		 push	 ecx
  018c6	e8 00 00 00 00	 call	 ?initialise_speech_data@@YGXW4speech_array_types@@W4speech_originator_types@@HHH@Z ; initialise_speech_data

; 389  : 		initialise_speech_data (a, o, GROUP_CALLSIGN_STALKER, 			SOUND_SAMPLE_INDEX_SPEECH_US_ATC_STALKER, SOUND_SAMPLE_INDEX_SPEECH_CIS_ATC_STALKER);

  018cb	68 38 01 00 00	 push	 312			; 00000138H
  018d0	68 c2 00 00 00	 push	 194			; 000000c2H
  018d5	6a 45		 push	 69			; 00000045H
  018d7	8b 45 f8	 mov	 eax, DWORD PTR _o$[ebp]
  018da	50		 push	 eax
  018db	8b 4d fc	 mov	 ecx, DWORD PTR _a$[ebp]
  018de	51		 push	 ecx
  018df	e8 00 00 00 00	 call	 ?initialise_speech_data@@YGXW4speech_array_types@@W4speech_originator_types@@HHH@Z ; initialise_speech_data

; 390  : 		initialise_speech_data (a, o, GROUP_CALLSIGN_STINGRAY, 			SOUND_SAMPLE_INDEX_SPEECH_US_ATC_STINGRAY, SOUND_SAMPLE_INDEX_SPEECH_CIS_ATC_STINGRAY);

  018e4	68 39 01 00 00	 push	 313			; 00000139H
  018e9	68 c3 00 00 00	 push	 195			; 000000c3H
  018ee	6a 46		 push	 70			; 00000046H
  018f0	8b 45 f8	 mov	 eax, DWORD PTR _o$[ebp]
  018f3	50		 push	 eax
  018f4	8b 4d fc	 mov	 ecx, DWORD PTR _a$[ebp]
  018f7	51		 push	 ecx
  018f8	e8 00 00 00 00	 call	 ?initialise_speech_data@@YGXW4speech_array_types@@W4speech_originator_types@@HHH@Z ; initialise_speech_data

; 391  : 		initialise_speech_data (a, o, GROUP_CALLSIGN_STRIKER, 			SOUND_SAMPLE_INDEX_SPEECH_US_ATC_STRIKER, SOUND_SAMPLE_INDEX_SPEECH_CIS_ATC_STRIKER);

  018fd	68 3a 01 00 00	 push	 314			; 0000013aH
  01902	68 c4 00 00 00	 push	 196			; 000000c4H
  01907	6a 47		 push	 71			; 00000047H
  01909	8b 45 f8	 mov	 eax, DWORD PTR _o$[ebp]
  0190c	50		 push	 eax
  0190d	8b 4d fc	 mov	 ecx, DWORD PTR _a$[ebp]
  01910	51		 push	 ecx
  01911	e8 00 00 00 00	 call	 ?initialise_speech_data@@YGXW4speech_array_types@@W4speech_originator_types@@HHH@Z ; initialise_speech_data

; 392  : 		initialise_speech_data (a, o, GROUP_CALLSIGN_SUNDOWN, 			SOUND_SAMPLE_INDEX_SPEECH_US_ATC_SUNDOWN, SOUND_SAMPLE_INDEX_SPEECH_CIS_ATC_SUNDOWN);

  01916	68 3b 01 00 00	 push	 315			; 0000013bH
  0191b	68 c5 00 00 00	 push	 197			; 000000c5H
  01920	6a 48		 push	 72			; 00000048H
  01922	8b 45 f8	 mov	 eax, DWORD PTR _o$[ebp]
  01925	50		 push	 eax
  01926	8b 4d fc	 mov	 ecx, DWORD PTR _a$[ebp]
  01929	51		 push	 ecx
  0192a	e8 00 00 00 00	 call	 ?initialise_speech_data@@YGXW4speech_array_types@@W4speech_originator_types@@HHH@Z ; initialise_speech_data

; 393  : 		initialise_speech_data (a, o, GROUP_CALLSIGN_SWAMP_FOX, 			SOUND_SAMPLE_INDEX_SPEECH_US_ATC_SWAMPFOX, SOUND_SAMPLE_INDEX_SPEECH_CIS_ATC_SWAMPFOX);

  0192f	68 3c 01 00 00	 push	 316			; 0000013cH
  01934	68 c6 00 00 00	 push	 198			; 000000c6H
  01939	6a 49		 push	 73			; 00000049H
  0193b	8b 45 f8	 mov	 eax, DWORD PTR _o$[ebp]
  0193e	50		 push	 eax
  0193f	8b 4d fc	 mov	 ecx, DWORD PTR _a$[ebp]
  01942	51		 push	 ecx
  01943	e8 00 00 00 00	 call	 ?initialise_speech_data@@YGXW4speech_array_types@@W4speech_originator_types@@HHH@Z ; initialise_speech_data

; 394  : 		initialise_speech_data (a, o, GROUP_CALLSIGN_TEMPEST, 			SOUND_SAMPLE_INDEX_SPEECH_US_ATC_TEMPEST, SOUND_SAMPLE_INDEX_SPEECH_CIS_ATC_TEMPEST);

  01948	68 3d 01 00 00	 push	 317			; 0000013dH
  0194d	68 c7 00 00 00	 push	 199			; 000000c7H
  01952	6a 4a		 push	 74			; 0000004aH
  01954	8b 45 f8	 mov	 eax, DWORD PTR _o$[ebp]
  01957	50		 push	 eax
  01958	8b 4d fc	 mov	 ecx, DWORD PTR _a$[ebp]
  0195b	51		 push	 ecx
  0195c	e8 00 00 00 00	 call	 ?initialise_speech_data@@YGXW4speech_array_types@@W4speech_originator_types@@HHH@Z ; initialise_speech_data

; 395  : 		initialise_speech_data (a, o, GROUP_CALLSIGN_TIGER_SHARK, 		SOUND_SAMPLE_INDEX_SPEECH_US_ATC_TIGERSHA, SOUND_SAMPLE_INDEX_SPEECH_CIS_ATC_TIGERSHA);

  01961	68 3e 01 00 00	 push	 318			; 0000013eH
  01966	68 c8 00 00 00	 push	 200			; 000000c8H
  0196b	6a 4b		 push	 75			; 0000004bH
  0196d	8b 45 f8	 mov	 eax, DWORD PTR _o$[ebp]
  01970	50		 push	 eax
  01971	8b 4d fc	 mov	 ecx, DWORD PTR _a$[ebp]
  01974	51		 push	 ecx
  01975	e8 00 00 00 00	 call	 ?initialise_speech_data@@YGXW4speech_array_types@@W4speech_originator_types@@HHH@Z ; initialise_speech_data

; 396  : 		initialise_speech_data (a, o, GROUP_CALLSIGN_TOUCHDOWN, 			SOUND_SAMPLE_INDEX_SPEECH_US_ATC_TOUCHDOW, SOUND_SAMPLE_INDEX_SPEECH_CIS_ATC_TOUCHDOW);

  0197a	68 3f 01 00 00	 push	 319			; 0000013fH
  0197f	68 c9 00 00 00	 push	 201			; 000000c9H
  01984	6a 4c		 push	 76			; 0000004cH
  01986	8b 45 f8	 mov	 eax, DWORD PTR _o$[ebp]
  01989	50		 push	 eax
  0198a	8b 4d fc	 mov	 ecx, DWORD PTR _a$[ebp]
  0198d	51		 push	 ecx
  0198e	e8 00 00 00 00	 call	 ?initialise_speech_data@@YGXW4speech_array_types@@W4speech_originator_types@@HHH@Z ; initialise_speech_data

; 397  : 		initialise_speech_data (a, o, GROUP_CALLSIGN_VAMPIRE, 			SOUND_SAMPLE_INDEX_SPEECH_US_ATC_VAMPIRE, SOUND_SAMPLE_INDEX_SPEECH_CIS_ATC_VAMPIRE);

  01993	68 40 01 00 00	 push	 320			; 00000140H
  01998	68 ca 00 00 00	 push	 202			; 000000caH
  0199d	6a 4d		 push	 77			; 0000004dH
  0199f	8b 45 f8	 mov	 eax, DWORD PTR _o$[ebp]
  019a2	50		 push	 eax
  019a3	8b 4d fc	 mov	 ecx, DWORD PTR _a$[ebp]
  019a6	51		 push	 ecx
  019a7	e8 00 00 00 00	 call	 ?initialise_speech_data@@YGXW4speech_array_types@@W4speech_originator_types@@HHH@Z ; initialise_speech_data

; 398  : 		initialise_speech_data (a, o, GROUP_CALLSIGN_VERTIGO, 			SOUND_SAMPLE_INDEX_SPEECH_US_ATC_VERTIGO, SOUND_SAMPLE_INDEX_SPEECH_CIS_ATC_VERTIGO);

  019ac	68 41 01 00 00	 push	 321			; 00000141H
  019b1	68 cb 00 00 00	 push	 203			; 000000cbH
  019b6	6a 4e		 push	 78			; 0000004eH
  019b8	8b 45 f8	 mov	 eax, DWORD PTR _o$[ebp]
  019bb	50		 push	 eax
  019bc	8b 4d fc	 mov	 ecx, DWORD PTR _a$[ebp]
  019bf	51		 push	 ecx
  019c0	e8 00 00 00 00	 call	 ?initialise_speech_data@@YGXW4speech_array_types@@W4speech_originator_types@@HHH@Z ; initialise_speech_data

; 399  : 		initialise_speech_data (a, o, GROUP_CALLSIGN_VIGILANTE, 			SOUND_SAMPLE_INDEX_SPEECH_US_ATC_VIGILANT, SOUND_SAMPLE_INDEX_SPEECH_CIS_ATC_VIGILANT);

  019c5	68 42 01 00 00	 push	 322			; 00000142H
  019ca	68 cc 00 00 00	 push	 204			; 000000ccH
  019cf	6a 4f		 push	 79			; 0000004fH
  019d1	8b 45 f8	 mov	 eax, DWORD PTR _o$[ebp]
  019d4	50		 push	 eax
  019d5	8b 4d fc	 mov	 ecx, DWORD PTR _a$[ebp]
  019d8	51		 push	 ecx
  019d9	e8 00 00 00 00	 call	 ?initialise_speech_data@@YGXW4speech_array_types@@W4speech_originator_types@@HHH@Z ; initialise_speech_data

; 400  : 		initialise_speech_data (a, o, GROUP_CALLSIGN_VIKING, 				SOUND_SAMPLE_INDEX_SPEECH_US_ATC_VIKING, SOUND_SAMPLE_INDEX_SPEECH_CIS_ATC_VIKING);

  019de	68 43 01 00 00	 push	 323			; 00000143H
  019e3	68 cd 00 00 00	 push	 205			; 000000cdH
  019e8	6a 50		 push	 80			; 00000050H
  019ea	8b 45 f8	 mov	 eax, DWORD PTR _o$[ebp]
  019ed	50		 push	 eax
  019ee	8b 4d fc	 mov	 ecx, DWORD PTR _a$[ebp]
  019f1	51		 push	 ecx
  019f2	e8 00 00 00 00	 call	 ?initialise_speech_data@@YGXW4speech_array_types@@W4speech_originator_types@@HHH@Z ; initialise_speech_data

; 401  : 		initialise_speech_data (a, o, GROUP_CALLSIGN_VIPER, 				SOUND_SAMPLE_INDEX_SPEECH_US_ATC_VIPER, SOUND_SAMPLE_INDEX_SPEECH_CIS_ATC_VIPER);

  019f7	68 44 01 00 00	 push	 324			; 00000144H
  019fc	68 ce 00 00 00	 push	 206			; 000000ceH
  01a01	6a 51		 push	 81			; 00000051H
  01a03	8b 45 f8	 mov	 eax, DWORD PTR _o$[ebp]
  01a06	50		 push	 eax
  01a07	8b 4d fc	 mov	 ecx, DWORD PTR _a$[ebp]
  01a0a	51		 push	 ecx
  01a0b	e8 00 00 00 00	 call	 ?initialise_speech_data@@YGXW4speech_array_types@@W4speech_originator_types@@HHH@Z ; initialise_speech_data

; 402  : 		initialise_speech_data (a, o, GROUP_CALLSIGN_VOODOO, 				SOUND_SAMPLE_INDEX_SPEECH_US_ATC_VOODOO, SOUND_SAMPLE_INDEX_SPEECH_CIS_ATC_VOODOO);

  01a10	68 45 01 00 00	 push	 325			; 00000145H
  01a15	68 cf 00 00 00	 push	 207			; 000000cfH
  01a1a	6a 52		 push	 82			; 00000052H
  01a1c	8b 45 f8	 mov	 eax, DWORD PTR _o$[ebp]
  01a1f	50		 push	 eax
  01a20	8b 4d fc	 mov	 ecx, DWORD PTR _a$[ebp]
  01a23	51		 push	 ecx
  01a24	e8 00 00 00 00	 call	 ?initialise_speech_data@@YGXW4speech_array_types@@W4speech_originator_types@@HHH@Z ; initialise_speech_data

; 403  : 		initialise_speech_data (a, o, GROUP_CALLSIGN_VULCAN, 				SOUND_SAMPLE_INDEX_SPEECH_US_ATC_VULCAN, SOUND_SAMPLE_INDEX_SPEECH_CIS_ATC_VULCAN);

  01a29	68 46 01 00 00	 push	 326			; 00000146H
  01a2e	68 d0 00 00 00	 push	 208			; 000000d0H
  01a33	6a 53		 push	 83			; 00000053H
  01a35	8b 45 f8	 mov	 eax, DWORD PTR _o$[ebp]
  01a38	50		 push	 eax
  01a39	8b 4d fc	 mov	 ecx, DWORD PTR _a$[ebp]
  01a3c	51		 push	 ecx
  01a3d	e8 00 00 00 00	 call	 ?initialise_speech_data@@YGXW4speech_array_types@@W4speech_originator_types@@HHH@Z ; initialise_speech_data

; 404  : 		initialise_speech_data (a, o, GROUP_CALLSIGN_VULTURE, 			SOUND_SAMPLE_INDEX_SPEECH_US_ATC_VULTURE, SOUND_SAMPLE_INDEX_SPEECH_CIS_ATC_VULTURE);

  01a42	68 47 01 00 00	 push	 327			; 00000147H
  01a47	68 d1 00 00 00	 push	 209			; 000000d1H
  01a4c	6a 54		 push	 84			; 00000054H
  01a4e	8b 45 f8	 mov	 eax, DWORD PTR _o$[ebp]
  01a51	50		 push	 eax
  01a52	8b 4d fc	 mov	 ecx, DWORD PTR _a$[ebp]
  01a55	51		 push	 ecx
  01a56	e8 00 00 00 00	 call	 ?initialise_speech_data@@YGXW4speech_array_types@@W4speech_originator_types@@HHH@Z ; initialise_speech_data

; 405  : 		initialise_speech_data (a, o, GROUP_CALLSIGN_WARLOCK, 			SOUND_SAMPLE_INDEX_SPEECH_US_ATC_WARLOCK, SOUND_SAMPLE_INDEX_SPEECH_CIS_ATC_WARLOCK);

  01a5b	68 48 01 00 00	 push	 328			; 00000148H
  01a60	68 d2 00 00 00	 push	 210			; 000000d2H
  01a65	6a 55		 push	 85			; 00000055H
  01a67	8b 45 f8	 mov	 eax, DWORD PTR _o$[ebp]
  01a6a	50		 push	 eax
  01a6b	8b 4d fc	 mov	 ecx, DWORD PTR _a$[ebp]
  01a6e	51		 push	 ecx
  01a6f	e8 00 00 00 00	 call	 ?initialise_speech_data@@YGXW4speech_array_types@@W4speech_originator_types@@HHH@Z ; initialise_speech_data

; 406  : 		initialise_speech_data (a, o, GROUP_CALLSIGN_WARLORD, 			SOUND_SAMPLE_INDEX_SPEECH_US_ATC_WARLORD, SOUND_SAMPLE_INDEX_SPEECH_CIS_ATC_WARLORD);

  01a74	68 49 01 00 00	 push	 329			; 00000149H
  01a79	68 d3 00 00 00	 push	 211			; 000000d3H
  01a7e	6a 56		 push	 86			; 00000056H
  01a80	8b 45 f8	 mov	 eax, DWORD PTR _o$[ebp]
  01a83	50		 push	 eax
  01a84	8b 4d fc	 mov	 ecx, DWORD PTR _a$[ebp]
  01a87	51		 push	 ecx
  01a88	e8 00 00 00 00	 call	 ?initialise_speech_data@@YGXW4speech_array_types@@W4speech_originator_types@@HHH@Z ; initialise_speech_data

; 407  : 		initialise_speech_data (a, o, GROUP_CALLSIGN_WARRIOR, 			SOUND_SAMPLE_INDEX_SPEECH_US_ATC_WARRIOR, SOUND_SAMPLE_INDEX_SPEECH_CIS_ATC_WARRIOR);

  01a8d	68 4a 01 00 00	 push	 330			; 0000014aH
  01a92	68 d4 00 00 00	 push	 212			; 000000d4H
  01a97	6a 57		 push	 87			; 00000057H
  01a99	8b 45 f8	 mov	 eax, DWORD PTR _o$[ebp]
  01a9c	50		 push	 eax
  01a9d	8b 4d fc	 mov	 ecx, DWORD PTR _a$[ebp]
  01aa0	51		 push	 ecx
  01aa1	e8 00 00 00 00	 call	 ?initialise_speech_data@@YGXW4speech_array_types@@W4speech_originator_types@@HHH@Z ; initialise_speech_data

; 408  : 		initialise_speech_data (a, o, GROUP_CALLSIGN_WILDCAT, 			SOUND_SAMPLE_INDEX_SPEECH_US_ATC_WILDCAT, SOUND_SAMPLE_INDEX_SPEECH_CIS_ATC_WILDCAT);

  01aa6	68 4b 01 00 00	 push	 331			; 0000014bH
  01aab	68 d5 00 00 00	 push	 213			; 000000d5H
  01ab0	6a 58		 push	 88			; 00000058H
  01ab2	8b 45 f8	 mov	 eax, DWORD PTR _o$[ebp]
  01ab5	50		 push	 eax
  01ab6	8b 4d fc	 mov	 ecx, DWORD PTR _a$[ebp]
  01ab9	51		 push	 ecx
  01aba	e8 00 00 00 00	 call	 ?initialise_speech_data@@YGXW4speech_array_types@@W4speech_originator_types@@HHH@Z ; initialise_speech_data

; 409  : 		initialise_speech_data (a, o, GROUP_CALLSIGN_WOLFPACK, 			SOUND_SAMPLE_INDEX_SPEECH_US_ATC_WOLFPACK, SOUND_SAMPLE_INDEX_SPEECH_CIS_ATC_WOLFPACK);

  01abf	68 4c 01 00 00	 push	 332			; 0000014cH
  01ac4	68 d6 00 00 00	 push	 214			; 000000d6H
  01ac9	6a 59		 push	 89			; 00000059H
  01acb	8b 45 f8	 mov	 eax, DWORD PTR _o$[ebp]
  01ace	50		 push	 eax
  01acf	8b 4d fc	 mov	 ecx, DWORD PTR _a$[ebp]
  01ad2	51		 push	 ecx
  01ad3	e8 00 00 00 00	 call	 ?initialise_speech_data@@YGXW4speech_array_types@@W4speech_originator_types@@HHH@Z ; initialise_speech_data

; 410  : 
; 411  : 		#endif
; 412  : 	}
; 413  : 
; 414  : 	//
; 415  : 	// FORWARD AIR CONTROLLER 
; 416  : 	//
; 417  : 	{	
; 418  : 		o = SPEECH_ORIGINATOR_FORWARD_AIR_CONTROLLER;

  01ad8	c7 45 f8 05 00
	00 00		 mov	 DWORD PTR _o$[ebp], 5

; 419  : 		
; 420  : 		initialise_sample_index_array (a, o, max_items);

  01adf	8b 45 f4	 mov	 eax, DWORD PTR _max_items$[ebp]
  01ae2	50		 push	 eax
  01ae3	8b 4d f8	 mov	 ecx, DWORD PTR _o$[ebp]
  01ae6	51		 push	 ecx
  01ae7	8b 55 fc	 mov	 edx, DWORD PTR _a$[ebp]
  01aea	52		 push	 edx
  01aeb	e8 00 00 00 00	 call	 ?initialise_sample_index_array@@YGXW4speech_array_types@@W4speech_originator_types@@H@Z ; initialise_sample_index_array

; 421  : 
; 422  : 		#if !DEMO_VERSION
; 423  : 		
; 424  : 		initialise_speech_data (a, o, GROUP_CALLSIGN_ANGEL, 				SOUND_SAMPLE_INDEX_SPEECH_US_FAC_ANGEL, SOUND_SAMPLE_INDEX_SPEECH_CIS_FAC_ANGEL);

  01af0	68 74 05 00 00	 push	 1396			; 00000574H
  01af5	68 04 05 00 00	 push	 1284			; 00000504H
  01afa	6a 00		 push	 0
  01afc	8b 45 f8	 mov	 eax, DWORD PTR _o$[ebp]
  01aff	50		 push	 eax
  01b00	8b 4d fc	 mov	 ecx, DWORD PTR _a$[ebp]
  01b03	51		 push	 ecx
  01b04	e8 00 00 00 00	 call	 ?initialise_speech_data@@YGXW4speech_array_types@@W4speech_originator_types@@HHH@Z ; initialise_speech_data

; 425  : 		initialise_speech_data (a, o, GROUP_CALLSIGN_APOLLO, 				SOUND_SAMPLE_INDEX_SPEECH_US_FAC_APOLLO, SOUND_SAMPLE_INDEX_SPEECH_CIS_FAC_APOLLO);

  01b09	68 75 05 00 00	 push	 1397			; 00000575H
  01b0e	68 05 05 00 00	 push	 1285			; 00000505H
  01b13	6a 01		 push	 1
  01b15	8b 45 f8	 mov	 eax, DWORD PTR _o$[ebp]
  01b18	50		 push	 eax
  01b19	8b 4d fc	 mov	 ecx, DWORD PTR _a$[ebp]
  01b1c	51		 push	 ecx
  01b1d	e8 00 00 00 00	 call	 ?initialise_speech_data@@YGXW4speech_array_types@@W4speech_originator_types@@HHH@Z ; initialise_speech_data

; 426  : 		initialise_speech_data (a, o, GROUP_CALLSIGN_ARCHER, 				SOUND_SAMPLE_INDEX_SPEECH_US_FAC_ARCHER, SOUND_SAMPLE_INDEX_SPEECH_CIS_FAC_ARCHER);

  01b22	68 76 05 00 00	 push	 1398			; 00000576H
  01b27	68 06 05 00 00	 push	 1286			; 00000506H
  01b2c	6a 02		 push	 2
  01b2e	8b 45 f8	 mov	 eax, DWORD PTR _o$[ebp]
  01b31	50		 push	 eax
  01b32	8b 4d fc	 mov	 ecx, DWORD PTR _a$[ebp]
  01b35	51		 push	 ecx
  01b36	e8 00 00 00 00	 call	 ?initialise_speech_data@@YGXW4speech_array_types@@W4speech_originator_types@@HHH@Z ; initialise_speech_data

; 427  : 		initialise_speech_data (a, o, GROUP_CALLSIGN_BANSHEE, 			SOUND_SAMPLE_INDEX_SPEECH_US_FAC_BANSHEE, SOUND_SAMPLE_INDEX_SPEECH_CIS_FAC_BANSHEE);

  01b3b	68 77 05 00 00	 push	 1399			; 00000577H
  01b40	68 07 05 00 00	 push	 1287			; 00000507H
  01b45	6a 03		 push	 3
  01b47	8b 45 f8	 mov	 eax, DWORD PTR _o$[ebp]
  01b4a	50		 push	 eax
  01b4b	8b 4d fc	 mov	 ecx, DWORD PTR _a$[ebp]
  01b4e	51		 push	 ecx
  01b4f	e8 00 00 00 00	 call	 ?initialise_speech_data@@YGXW4speech_array_types@@W4speech_originator_types@@HHH@Z ; initialise_speech_data

; 428  : 		initialise_speech_data (a, o, GROUP_CALLSIGN_BLOODHOUND, 		SOUND_SAMPLE_INDEX_SPEECH_US_FAC_BLOODHOU, SOUND_SAMPLE_INDEX_SPEECH_CIS_FAC_BLOODHOU);

  01b54	68 79 05 00 00	 push	 1401			; 00000579H
  01b59	68 09 05 00 00	 push	 1289			; 00000509H
  01b5e	6a 04		 push	 4
  01b60	8b 45 f8	 mov	 eax, DWORD PTR _o$[ebp]
  01b63	50		 push	 eax
  01b64	8b 4d fc	 mov	 ecx, DWORD PTR _a$[ebp]
  01b67	51		 push	 ecx
  01b68	e8 00 00 00 00	 call	 ?initialise_speech_data@@YGXW4speech_array_types@@W4speech_originator_types@@HHH@Z ; initialise_speech_data

; 429  : 		initialise_speech_data (a, o, GROUP_CALLSIGN_BULLDOG, 			SOUND_SAMPLE_INDEX_SPEECH_US_FAC_BULLDOG, SOUND_SAMPLE_INDEX_SPEECH_CIS_FAC_BULLDOG);

  01b6d	68 7a 05 00 00	 push	 1402			; 0000057aH
  01b72	68 0a 05 00 00	 push	 1290			; 0000050aH
  01b77	6a 05		 push	 5
  01b79	8b 45 f8	 mov	 eax, DWORD PTR _o$[ebp]
  01b7c	50		 push	 eax
  01b7d	8b 4d fc	 mov	 ecx, DWORD PTR _a$[ebp]
  01b80	51		 push	 ecx
  01b81	e8 00 00 00 00	 call	 ?initialise_speech_data@@YGXW4speech_array_types@@W4speech_originator_types@@HHH@Z ; initialise_speech_data

; 430  : 		initialise_speech_data (a, o, GROUP_CALLSIGN_CHARGER, 			SOUND_SAMPLE_INDEX_SPEECH_US_FAC_CHARGER, SOUND_SAMPLE_INDEX_SPEECH_CIS_FAC_CHARGER);

  01b86	68 7b 05 00 00	 push	 1403			; 0000057bH
  01b8b	68 0b 05 00 00	 push	 1291			; 0000050bH
  01b90	6a 06		 push	 6
  01b92	8b 45 f8	 mov	 eax, DWORD PTR _o$[ebp]
  01b95	50		 push	 eax
  01b96	8b 4d fc	 mov	 ecx, DWORD PTR _a$[ebp]
  01b99	51		 push	 ecx
  01b9a	e8 00 00 00 00	 call	 ?initialise_speech_data@@YGXW4speech_array_types@@W4speech_originator_types@@HHH@Z ; initialise_speech_data

; 431  : 		initialise_speech_data (a, o, GROUP_CALLSIGN_CHEETAH, 			SOUND_SAMPLE_INDEX_SPEECH_US_FAC_CHEETAH, SOUND_SAMPLE_INDEX_SPEECH_CIS_FAC_CHEETAH);

  01b9f	68 7c 05 00 00	 push	 1404			; 0000057cH
  01ba4	68 0c 05 00 00	 push	 1292			; 0000050cH
  01ba9	6a 07		 push	 7
  01bab	8b 45 f8	 mov	 eax, DWORD PTR _o$[ebp]
  01bae	50		 push	 eax
  01baf	8b 4d fc	 mov	 ecx, DWORD PTR _a$[ebp]
  01bb2	51		 push	 ecx
  01bb3	e8 00 00 00 00	 call	 ?initialise_speech_data@@YGXW4speech_array_types@@W4speech_originator_types@@HHH@Z ; initialise_speech_data

; 432  : 		initialise_speech_data (a, o, GROUP_CALLSIGN_CHIEFTAIN, 			SOUND_SAMPLE_INDEX_SPEECH_US_FAC_CHIEFTAI, SOUND_SAMPLE_INDEX_SPEECH_CIS_FAC_CHIEFTAI);

  01bb8	68 7d 05 00 00	 push	 1405			; 0000057dH
  01bbd	68 0d 05 00 00	 push	 1293			; 0000050dH
  01bc2	6a 08		 push	 8
  01bc4	8b 45 f8	 mov	 eax, DWORD PTR _o$[ebp]
  01bc7	50		 push	 eax
  01bc8	8b 4d fc	 mov	 ecx, DWORD PTR _a$[ebp]
  01bcb	51		 push	 ecx
  01bcc	e8 00 00 00 00	 call	 ?initialise_speech_data@@YGXW4speech_array_types@@W4speech_originator_types@@HHH@Z ; initialise_speech_data

; 433  : 		initialise_speech_data (a, o, GROUP_CALLSIGN_COBRA, 				SOUND_SAMPLE_INDEX_SPEECH_US_FAC_COBRA, SOUND_SAMPLE_INDEX_SPEECH_CIS_FAC_COBRA);

  01bd1	68 7e 05 00 00	 push	 1406			; 0000057eH
  01bd6	68 0e 05 00 00	 push	 1294			; 0000050eH
  01bdb	6a 09		 push	 9
  01bdd	8b 45 f8	 mov	 eax, DWORD PTR _o$[ebp]
  01be0	50		 push	 eax
  01be1	8b 4d fc	 mov	 ecx, DWORD PTR _a$[ebp]
  01be4	51		 push	 ecx
  01be5	e8 00 00 00 00	 call	 ?initialise_speech_data@@YGXW4speech_array_types@@W4speech_originator_types@@HHH@Z ; initialise_speech_data

; 434  : 		initialise_speech_data (a, o, GROUP_CALLSIGN_COMET, 				SOUND_SAMPLE_INDEX_SPEECH_US_FAC_COMET, SOUND_SAMPLE_INDEX_SPEECH_CIS_FAC_COMET);

  01bea	68 7f 05 00 00	 push	 1407			; 0000057fH
  01bef	68 0f 05 00 00	 push	 1295			; 0000050fH
  01bf4	6a 0a		 push	 10			; 0000000aH
  01bf6	8b 45 f8	 mov	 eax, DWORD PTR _o$[ebp]
  01bf9	50		 push	 eax
  01bfa	8b 4d fc	 mov	 ecx, DWORD PTR _a$[ebp]
  01bfd	51		 push	 ecx
  01bfe	e8 00 00 00 00	 call	 ?initialise_speech_data@@YGXW4speech_array_types@@W4speech_originator_types@@HHH@Z ; initialise_speech_data

; 435  : 		initialise_speech_data (a, o, GROUP_CALLSIGN_CONDOR, 				SOUND_SAMPLE_INDEX_SPEECH_US_FAC_CONDOR, SOUND_SAMPLE_INDEX_SPEECH_CIS_FAC_CONDOR);

  01c03	68 80 05 00 00	 push	 1408			; 00000580H
  01c08	68 10 05 00 00	 push	 1296			; 00000510H
  01c0d	6a 0b		 push	 11			; 0000000bH
  01c0f	8b 45 f8	 mov	 eax, DWORD PTR _o$[ebp]
  01c12	50		 push	 eax
  01c13	8b 4d fc	 mov	 ecx, DWORD PTR _a$[ebp]
  01c16	51		 push	 ecx
  01c17	e8 00 00 00 00	 call	 ?initialise_speech_data@@YGXW4speech_array_types@@W4speech_originator_types@@HHH@Z ; initialise_speech_data

; 436  : 		initialise_speech_data (a, o, GROUP_CALLSIGN_COUGAR, 				SOUND_SAMPLE_INDEX_SPEECH_US_FAC_COUGAR, SOUND_SAMPLE_INDEX_SPEECH_CIS_FAC_COUGAR);

  01c1c	68 81 05 00 00	 push	 1409			; 00000581H
  01c21	68 11 05 00 00	 push	 1297			; 00000511H
  01c26	6a 0c		 push	 12			; 0000000cH
  01c28	8b 45 f8	 mov	 eax, DWORD PTR _o$[ebp]
  01c2b	50		 push	 eax
  01c2c	8b 4d fc	 mov	 ecx, DWORD PTR _a$[ebp]
  01c2f	51		 push	 ecx
  01c30	e8 00 00 00 00	 call	 ?initialise_speech_data@@YGXW4speech_array_types@@W4speech_originator_types@@HHH@Z ; initialise_speech_data

; 437  : 		initialise_speech_data (a, o, GROUP_CALLSIGN_COWBOY, 				SOUND_SAMPLE_INDEX_SPEECH_US_FAC_COWBOY, SOUND_SAMPLE_INDEX_SPEECH_CIS_FAC_COWBOY);

  01c35	68 82 05 00 00	 push	 1410			; 00000582H
  01c3a	68 12 05 00 00	 push	 1298			; 00000512H
  01c3f	6a 0d		 push	 13			; 0000000dH
  01c41	8b 45 f8	 mov	 eax, DWORD PTR _o$[ebp]
  01c44	50		 push	 eax
  01c45	8b 4d fc	 mov	 ecx, DWORD PTR _a$[ebp]
  01c48	51		 push	 ecx
  01c49	e8 00 00 00 00	 call	 ?initialise_speech_data@@YGXW4speech_array_types@@W4speech_originator_types@@HHH@Z ; initialise_speech_data

; 438  : 		initialise_speech_data (a, o, GROUP_CALLSIGN_DARKHORSE, 			SOUND_SAMPLE_INDEX_SPEECH_US_FAC_DARKHORS, SOUND_SAMPLE_INDEX_SPEECH_CIS_FAC_DARKHORS);

  01c4e	68 83 05 00 00	 push	 1411			; 00000583H
  01c53	68 13 05 00 00	 push	 1299			; 00000513H
  01c58	6a 0e		 push	 14			; 0000000eH
  01c5a	8b 45 f8	 mov	 eax, DWORD PTR _o$[ebp]
  01c5d	50		 push	 eax
  01c5e	8b 4d fc	 mov	 ecx, DWORD PTR _a$[ebp]
  01c61	51		 push	 ecx
  01c62	e8 00 00 00 00	 call	 ?initialise_speech_data@@YGXW4speech_array_types@@W4speech_originator_types@@HHH@Z ; initialise_speech_data

; 439  : 		initialise_speech_data (a, o, GROUP_CALLSIGN_DEMON, 				SOUND_SAMPLE_INDEX_SPEECH_US_FAC_DEMON, SOUND_SAMPLE_INDEX_SPEECH_CIS_FAC_DEMON);

  01c67	68 84 05 00 00	 push	 1412			; 00000584H
  01c6c	68 14 05 00 00	 push	 1300			; 00000514H
  01c71	6a 0f		 push	 15			; 0000000fH
  01c73	8b 45 f8	 mov	 eax, DWORD PTR _o$[ebp]
  01c76	50		 push	 eax
  01c77	8b 4d fc	 mov	 ecx, DWORD PTR _a$[ebp]
  01c7a	51		 push	 ecx
  01c7b	e8 00 00 00 00	 call	 ?initialise_speech_data@@YGXW4speech_array_types@@W4speech_originator_types@@HHH@Z ; initialise_speech_data

; 440  : 		initialise_speech_data (a, o, GROUP_CALLSIGN_DODGER, 				SOUND_SAMPLE_INDEX_SPEECH_US_FAC_DODGER, SOUND_SAMPLE_INDEX_SPEECH_CIS_FAC_DODGER);

  01c80	68 85 05 00 00	 push	 1413			; 00000585H
  01c85	68 15 05 00 00	 push	 1301			; 00000515H
  01c8a	6a 10		 push	 16			; 00000010H
  01c8c	8b 45 f8	 mov	 eax, DWORD PTR _o$[ebp]
  01c8f	50		 push	 eax
  01c90	8b 4d fc	 mov	 ecx, DWORD PTR _a$[ebp]
  01c93	51		 push	 ecx
  01c94	e8 00 00 00 00	 call	 ?initialise_speech_data@@YGXW4speech_array_types@@W4speech_originator_types@@HHH@Z ; initialise_speech_data

; 441  : 		initialise_speech_data (a, o, GROUP_CALLSIGN_DRAGON, 				SOUND_SAMPLE_INDEX_SPEECH_US_FAC_DRAGON, SOUND_SAMPLE_INDEX_SPEECH_CIS_FAC_DRAGON);

  01c99	68 86 05 00 00	 push	 1414			; 00000586H
  01c9e	68 16 05 00 00	 push	 1302			; 00000516H
  01ca3	6a 11		 push	 17			; 00000011H
  01ca5	8b 45 f8	 mov	 eax, DWORD PTR _o$[ebp]
  01ca8	50		 push	 eax
  01ca9	8b 4d fc	 mov	 ecx, DWORD PTR _a$[ebp]
  01cac	51		 push	 ecx
  01cad	e8 00 00 00 00	 call	 ?initialise_speech_data@@YGXW4speech_array_types@@W4speech_originator_types@@HHH@Z ; initialise_speech_data

; 442  : 		initialise_speech_data (a, o, GROUP_CALLSIGN_EAGLE, 				SOUND_SAMPLE_INDEX_SPEECH_US_FAC_EAGLE, SOUND_SAMPLE_INDEX_SPEECH_CIS_FAC_EAGLE);

  01cb2	68 87 05 00 00	 push	 1415			; 00000587H
  01cb7	68 17 05 00 00	 push	 1303			; 00000517H
  01cbc	6a 12		 push	 18			; 00000012H
  01cbe	8b 45 f8	 mov	 eax, DWORD PTR _o$[ebp]
  01cc1	50		 push	 eax
  01cc2	8b 4d fc	 mov	 ecx, DWORD PTR _a$[ebp]
  01cc5	51		 push	 ecx
  01cc6	e8 00 00 00 00	 call	 ?initialise_speech_data@@YGXW4speech_array_types@@W4speech_originator_types@@HHH@Z ; initialise_speech_data

; 443  : 		initialise_speech_data (a, o, GROUP_CALLSIGN_EIGHTBALL, 			SOUND_SAMPLE_INDEX_SPEECH_US_FAC_EIGHTBAL, SOUND_SAMPLE_INDEX_SPEECH_CIS_FAC_EIGHTBAL);

  01ccb	68 88 05 00 00	 push	 1416			; 00000588H
  01cd0	68 18 05 00 00	 push	 1304			; 00000518H
  01cd5	6a 13		 push	 19			; 00000013H
  01cd7	8b 45 f8	 mov	 eax, DWORD PTR _o$[ebp]
  01cda	50		 push	 eax
  01cdb	8b 4d fc	 mov	 ecx, DWORD PTR _a$[ebp]
  01cde	51		 push	 ecx
  01cdf	e8 00 00 00 00	 call	 ?initialise_speech_data@@YGXW4speech_array_types@@W4speech_originator_types@@HHH@Z ; initialise_speech_data

; 444  : 		initialise_speech_data (a, o, GROUP_CALLSIGN_FARSIGHT, 			SOUND_SAMPLE_INDEX_SPEECH_US_FAC_FARSIGHT, SOUND_SAMPLE_INDEX_SPEECH_CIS_FAC_FARSIGHT);

  01ce4	68 8f 05 00 00	 push	 1423			; 0000058fH
  01ce9	68 1f 05 00 00	 push	 1311			; 0000051fH
  01cee	6a 14		 push	 20			; 00000014H
  01cf0	8b 45 f8	 mov	 eax, DWORD PTR _o$[ebp]
  01cf3	50		 push	 eax
  01cf4	8b 4d fc	 mov	 ecx, DWORD PTR _a$[ebp]
  01cf7	51		 push	 ecx
  01cf8	e8 00 00 00 00	 call	 ?initialise_speech_data@@YGXW4speech_array_types@@W4speech_originator_types@@HHH@Z ; initialise_speech_data

; 445  : 		initialise_speech_data (a, o, GROUP_CALLSIGN_FIREBALL, 			SOUND_SAMPLE_INDEX_SPEECH_US_FAC_FIREBALL, SOUND_SAMPLE_INDEX_SPEECH_CIS_FAC_FIREBALL);

  01cfd	68 90 05 00 00	 push	 1424			; 00000590H
  01d02	68 20 05 00 00	 push	 1312			; 00000520H
  01d07	6a 15		 push	 21			; 00000015H
  01d09	8b 45 f8	 mov	 eax, DWORD PTR _o$[ebp]
  01d0c	50		 push	 eax
  01d0d	8b 4d fc	 mov	 ecx, DWORD PTR _a$[ebp]
  01d10	51		 push	 ecx
  01d11	e8 00 00 00 00	 call	 ?initialise_speech_data@@YGXW4speech_array_types@@W4speech_originator_types@@HHH@Z ; initialise_speech_data

; 446  : 		initialise_speech_data (a, o, GROUP_CALLSIGN_FIREBIRD, 			SOUND_SAMPLE_INDEX_SPEECH_US_FAC_FIREBIRD, SOUND_SAMPLE_INDEX_SPEECH_CIS_FAC_FIREBIRD);

  01d16	68 91 05 00 00	 push	 1425			; 00000591H
  01d1b	68 21 05 00 00	 push	 1313			; 00000521H
  01d20	6a 16		 push	 22			; 00000016H
  01d22	8b 45 f8	 mov	 eax, DWORD PTR _o$[ebp]
  01d25	50		 push	 eax
  01d26	8b 4d fc	 mov	 ecx, DWORD PTR _a$[ebp]
  01d29	51		 push	 ecx
  01d2a	e8 00 00 00 00	 call	 ?initialise_speech_data@@YGXW4speech_array_types@@W4speech_originator_types@@HHH@Z ; initialise_speech_data

; 447  : 		initialise_speech_data (a, o, GROUP_CALLSIGN_FIREFOX, 			SOUND_SAMPLE_INDEX_SPEECH_US_FAC_FIREFOX, SOUND_SAMPLE_INDEX_SPEECH_CIS_FAC_FIREFOX);

  01d2f	68 92 05 00 00	 push	 1426			; 00000592H
  01d34	68 22 05 00 00	 push	 1314			; 00000522H
  01d39	6a 17		 push	 23			; 00000017H
  01d3b	8b 45 f8	 mov	 eax, DWORD PTR _o$[ebp]
  01d3e	50		 push	 eax
  01d3f	8b 4d fc	 mov	 ecx, DWORD PTR _a$[ebp]
  01d42	51		 push	 ecx
  01d43	e8 00 00 00 00	 call	 ?initialise_speech_data@@YGXW4speech_array_types@@W4speech_originator_types@@HHH@Z ; initialise_speech_data

; 448  : 		initialise_speech_data (a, o, GROUP_CALLSIGN_FREELANCER, 		SOUND_SAMPLE_INDEX_SPEECH_US_FAC_FREELANC, SOUND_SAMPLE_INDEX_SPEECH_CIS_FAC_FREELANC);

  01d48	68 93 05 00 00	 push	 1427			; 00000593H
  01d4d	68 23 05 00 00	 push	 1315			; 00000523H
  01d52	6a 18		 push	 24			; 00000018H
  01d54	8b 45 f8	 mov	 eax, DWORD PTR _o$[ebp]
  01d57	50		 push	 eax
  01d58	8b 4d fc	 mov	 ecx, DWORD PTR _a$[ebp]
  01d5b	51		 push	 ecx
  01d5c	e8 00 00 00 00	 call	 ?initialise_speech_data@@YGXW4speech_array_types@@W4speech_originator_types@@HHH@Z ; initialise_speech_data

; 449  : 		initialise_speech_data (a, o, GROUP_CALLSIGN_GATOR, 				SOUND_SAMPLE_INDEX_SPEECH_US_FAC_GATOR, SOUND_SAMPLE_INDEX_SPEECH_CIS_FAC_GATOR);

  01d61	68 94 05 00 00	 push	 1428			; 00000594H
  01d66	68 24 05 00 00	 push	 1316			; 00000524H
  01d6b	6a 19		 push	 25			; 00000019H
  01d6d	8b 45 f8	 mov	 eax, DWORD PTR _o$[ebp]
  01d70	50		 push	 eax
  01d71	8b 4d fc	 mov	 ecx, DWORD PTR _a$[ebp]
  01d74	51		 push	 ecx
  01d75	e8 00 00 00 00	 call	 ?initialise_speech_data@@YGXW4speech_array_types@@W4speech_originator_types@@HHH@Z ; initialise_speech_data

; 450  : 		initialise_speech_data (a, o, GROUP_CALLSIGN_GAUNTLET, 			SOUND_SAMPLE_INDEX_SPEECH_US_FAC_GAUNTLET, SOUND_SAMPLE_INDEX_SPEECH_CIS_FAC_GAUNTLET);

  01d7a	68 95 05 00 00	 push	 1429			; 00000595H
  01d7f	68 25 05 00 00	 push	 1317			; 00000525H
  01d84	6a 1a		 push	 26			; 0000001aH
  01d86	8b 45 f8	 mov	 eax, DWORD PTR _o$[ebp]
  01d89	50		 push	 eax
  01d8a	8b 4d fc	 mov	 ecx, DWORD PTR _a$[ebp]
  01d8d	51		 push	 ecx
  01d8e	e8 00 00 00 00	 call	 ?initialise_speech_data@@YGXW4speech_array_types@@W4speech_originator_types@@HHH@Z ; initialise_speech_data

; 451  : 		initialise_speech_data (a, o, GROUP_CALLSIGN_GHOSTRIDER, 		SOUND_SAMPLE_INDEX_SPEECH_US_FAC_GHOSTRID, SOUND_SAMPLE_INDEX_SPEECH_CIS_FAC_GHOSTRID);

  01d93	68 96 05 00 00	 push	 1430			; 00000596H
  01d98	68 26 05 00 00	 push	 1318			; 00000526H
  01d9d	6a 1b		 push	 27			; 0000001bH
  01d9f	8b 45 f8	 mov	 eax, DWORD PTR _o$[ebp]
  01da2	50		 push	 eax
  01da3	8b 4d fc	 mov	 ecx, DWORD PTR _a$[ebp]
  01da6	51		 push	 ecx
  01da7	e8 00 00 00 00	 call	 ?initialise_speech_data@@YGXW4speech_array_types@@W4speech_originator_types@@HHH@Z ; initialise_speech_data

; 452  : 		initialise_speech_data (a, o, GROUP_CALLSIGN_GLADIATOR, 			SOUND_SAMPLE_INDEX_SPEECH_US_FAC_GLADIATO, SOUND_SAMPLE_INDEX_SPEECH_CIS_FAC_GLADIATO);

  01dac	68 97 05 00 00	 push	 1431			; 00000597H
  01db1	68 27 05 00 00	 push	 1319			; 00000527H
  01db6	6a 1c		 push	 28			; 0000001cH
  01db8	8b 45 f8	 mov	 eax, DWORD PTR _o$[ebp]
  01dbb	50		 push	 eax
  01dbc	8b 4d fc	 mov	 ecx, DWORD PTR _a$[ebp]
  01dbf	51		 push	 ecx
  01dc0	e8 00 00 00 00	 call	 ?initialise_speech_data@@YGXW4speech_array_types@@W4speech_originator_types@@HHH@Z ; initialise_speech_data

; 453  : 		initialise_speech_data (a, o, GROUP_CALLSIGN_GOLIATH, 			SOUND_SAMPLE_INDEX_SPEECH_US_FAC_GOLIATH, SOUND_SAMPLE_INDEX_SPEECH_CIS_FAC_GOLIATH);

  01dc5	68 98 05 00 00	 push	 1432			; 00000598H
  01dca	68 28 05 00 00	 push	 1320			; 00000528H
  01dcf	6a 1d		 push	 29			; 0000001dH
  01dd1	8b 45 f8	 mov	 eax, DWORD PTR _o$[ebp]
  01dd4	50		 push	 eax
  01dd5	8b 4d fc	 mov	 ecx, DWORD PTR _a$[ebp]
  01dd8	51		 push	 ecx
  01dd9	e8 00 00 00 00	 call	 ?initialise_speech_data@@YGXW4speech_array_types@@W4speech_originator_types@@HHH@Z ; initialise_speech_data

; 454  : 		initialise_speech_data (a, o, GROUP_CALLSIGN_GOOSE, 				SOUND_SAMPLE_INDEX_SPEECH_US_FAC_GOOSE, SOUND_SAMPLE_INDEX_SPEECH_CIS_FAC_GOOSE);

  01dde	68 99 05 00 00	 push	 1433			; 00000599H
  01de3	68 29 05 00 00	 push	 1321			; 00000529H
  01de8	6a 1e		 push	 30			; 0000001eH
  01dea	8b 45 f8	 mov	 eax, DWORD PTR _o$[ebp]
  01ded	50		 push	 eax
  01dee	8b 4d fc	 mov	 ecx, DWORD PTR _a$[ebp]
  01df1	51		 push	 ecx
  01df2	e8 00 00 00 00	 call	 ?initialise_speech_data@@YGXW4speech_array_types@@W4speech_originator_types@@HHH@Z ; initialise_speech_data

; 455  : 		initialise_speech_data (a, o, GROUP_CALLSIGN_HAWKEYE, 			SOUND_SAMPLE_INDEX_SPEECH_US_FAC_HAWKEYE, SOUND_SAMPLE_INDEX_SPEECH_CIS_FAC_HAWKEYE);

  01df7	68 9a 05 00 00	 push	 1434			; 0000059aH
  01dfc	68 2a 05 00 00	 push	 1322			; 0000052aH
  01e01	6a 1f		 push	 31			; 0000001fH
  01e03	8b 45 f8	 mov	 eax, DWORD PTR _o$[ebp]
  01e06	50		 push	 eax
  01e07	8b 4d fc	 mov	 ecx, DWORD PTR _a$[ebp]
  01e0a	51		 push	 ecx
  01e0b	e8 00 00 00 00	 call	 ?initialise_speech_data@@YGXW4speech_array_types@@W4speech_originator_types@@HHH@Z ; initialise_speech_data

; 456  : 		initialise_speech_data (a, o, GROUP_CALLSIGN_HELLCAT, 			SOUND_SAMPLE_INDEX_SPEECH_US_FAC_HELLCAT, SOUND_SAMPLE_INDEX_SPEECH_CIS_FAC_HELLCAT);

  01e10	68 9b 05 00 00	 push	 1435			; 0000059bH
  01e15	68 2b 05 00 00	 push	 1323			; 0000052bH
  01e1a	6a 20		 push	 32			; 00000020H
  01e1c	8b 45 f8	 mov	 eax, DWORD PTR _o$[ebp]
  01e1f	50		 push	 eax
  01e20	8b 4d fc	 mov	 ecx, DWORD PTR _a$[ebp]
  01e23	51		 push	 ecx
  01e24	e8 00 00 00 00	 call	 ?initialise_speech_data@@YGXW4speech_array_types@@W4speech_originator_types@@HHH@Z ; initialise_speech_data

; 457  : 		initialise_speech_data (a, o, GROUP_CALLSIGN_HUNTER, 				SOUND_SAMPLE_INDEX_SPEECH_US_FAC_HUNTER, SOUND_SAMPLE_INDEX_SPEECH_CIS_FAC_HUNTER);

  01e29	68 9c 05 00 00	 push	 1436			; 0000059cH
  01e2e	68 2c 05 00 00	 push	 1324			; 0000052cH
  01e33	6a 21		 push	 33			; 00000021H
  01e35	8b 45 f8	 mov	 eax, DWORD PTR _o$[ebp]
  01e38	50		 push	 eax
  01e39	8b 4d fc	 mov	 ecx, DWORD PTR _a$[ebp]
  01e3c	51		 push	 ecx
  01e3d	e8 00 00 00 00	 call	 ?initialise_speech_data@@YGXW4speech_array_types@@W4speech_originator_types@@HHH@Z ; initialise_speech_data

; 458  : 		initialise_speech_data (a, o, GROUP_CALLSIGN_JAGUAR, 				SOUND_SAMPLE_INDEX_SPEECH_US_FAC_JAGUAR, SOUND_SAMPLE_INDEX_SPEECH_CIS_FAC_JAGUAR);

  01e42	68 9d 05 00 00	 push	 1437			; 0000059dH
  01e47	68 2d 05 00 00	 push	 1325			; 0000052dH
  01e4c	6a 22		 push	 34			; 00000022H
  01e4e	8b 45 f8	 mov	 eax, DWORD PTR _o$[ebp]
  01e51	50		 push	 eax
  01e52	8b 4d fc	 mov	 ecx, DWORD PTR _a$[ebp]
  01e55	51		 push	 ecx
  01e56	e8 00 00 00 00	 call	 ?initialise_speech_data@@YGXW4speech_array_types@@W4speech_originator_types@@HHH@Z ; initialise_speech_data

; 459  : 		initialise_speech_data (a, o, GROUP_CALLSIGN_JESTER, 				SOUND_SAMPLE_INDEX_SPEECH_US_FAC_JESTER, SOUND_SAMPLE_INDEX_SPEECH_CIS_FAC_JESTER);

  01e5b	68 9e 05 00 00	 push	 1438			; 0000059eH
  01e60	68 2e 05 00 00	 push	 1326			; 0000052eH
  01e65	6a 23		 push	 35			; 00000023H
  01e67	8b 45 f8	 mov	 eax, DWORD PTR _o$[ebp]
  01e6a	50		 push	 eax
  01e6b	8b 4d fc	 mov	 ecx, DWORD PTR _a$[ebp]
  01e6e	51		 push	 ecx
  01e6f	e8 00 00 00 00	 call	 ?initialise_speech_data@@YGXW4speech_array_types@@W4speech_originator_types@@HHH@Z ; initialise_speech_data

; 460  : 		initialise_speech_data (a, o, GROUP_CALLSIGN_JUPITER, 			SOUND_SAMPLE_INDEX_SPEECH_US_FAC_JUPITER, SOUND_SAMPLE_INDEX_SPEECH_CIS_FAC_JUPITER);

  01e74	68 a0 05 00 00	 push	 1440			; 000005a0H
  01e79	68 30 05 00 00	 push	 1328			; 00000530H
  01e7e	6a 24		 push	 36			; 00000024H
  01e80	8b 45 f8	 mov	 eax, DWORD PTR _o$[ebp]
  01e83	50		 push	 eax
  01e84	8b 4d fc	 mov	 ecx, DWORD PTR _a$[ebp]
  01e87	51		 push	 ecx
  01e88	e8 00 00 00 00	 call	 ?initialise_speech_data@@YGXW4speech_array_types@@W4speech_originator_types@@HHH@Z ; initialise_speech_data

; 461  : 		initialise_speech_data (a, o, GROUP_CALLSIGN_JUGGERNAUT, 		SOUND_SAMPLE_INDEX_SPEECH_US_FAC_JUGGERNA, SOUND_SAMPLE_INDEX_SPEECH_CIS_FAC_JUGGERNA);

  01e8d	68 9f 05 00 00	 push	 1439			; 0000059fH
  01e92	68 2f 05 00 00	 push	 1327			; 0000052fH
  01e97	6a 25		 push	 37			; 00000025H
  01e99	8b 45 f8	 mov	 eax, DWORD PTR _o$[ebp]
  01e9c	50		 push	 eax
  01e9d	8b 4d fc	 mov	 ecx, DWORD PTR _a$[ebp]
  01ea0	51		 push	 ecx
  01ea1	e8 00 00 00 00	 call	 ?initialise_speech_data@@YGXW4speech_array_types@@W4speech_originator_types@@HHH@Z ; initialise_speech_data

; 462  : 		initialise_speech_data (a, o, GROUP_CALLSIGN_KESTREL, 			SOUND_SAMPLE_INDEX_SPEECH_US_FAC_KESTREL, SOUND_SAMPLE_INDEX_SPEECH_CIS_FAC_KESTREL);

  01ea6	68 a1 05 00 00	 push	 1441			; 000005a1H
  01eab	68 31 05 00 00	 push	 1329			; 00000531H
  01eb0	6a 26		 push	 38			; 00000026H
  01eb2	8b 45 f8	 mov	 eax, DWORD PTR _o$[ebp]
  01eb5	50		 push	 eax
  01eb6	8b 4d fc	 mov	 ecx, DWORD PTR _a$[ebp]
  01eb9	51		 push	 ecx
  01eba	e8 00 00 00 00	 call	 ?initialise_speech_data@@YGXW4speech_array_types@@W4speech_originator_types@@HHH@Z ; initialise_speech_data

; 463  : 		initialise_speech_data (a, o, GROUP_CALLSIGN_LANCER, 				SOUND_SAMPLE_INDEX_SPEECH_US_FAC_LANCER, SOUND_SAMPLE_INDEX_SPEECH_CIS_FAC_LANCER);

  01ebf	68 a4 05 00 00	 push	 1444			; 000005a4H
  01ec4	68 34 05 00 00	 push	 1332			; 00000534H
  01ec9	6a 27		 push	 39			; 00000027H
  01ecb	8b 45 f8	 mov	 eax, DWORD PTR _o$[ebp]
  01ece	50		 push	 eax
  01ecf	8b 4d fc	 mov	 ecx, DWORD PTR _a$[ebp]
  01ed2	51		 push	 ecx
  01ed3	e8 00 00 00 00	 call	 ?initialise_speech_data@@YGXW4speech_array_types@@W4speech_originator_types@@HHH@Z ; initialise_speech_data

; 464  : 		initialise_speech_data (a, o, GROUP_CALLSIGN_LIMA, 				SOUND_SAMPLE_INDEX_SPEECH_US_FAC_LIMA, SOUND_SAMPLE_INDEX_SPEECH_CIS_FAC_LIMA);

  01ed8	68 a5 05 00 00	 push	 1445			; 000005a5H
  01edd	68 35 05 00 00	 push	 1333			; 00000535H
  01ee2	6a 28		 push	 40			; 00000028H
  01ee4	8b 45 f8	 mov	 eax, DWORD PTR _o$[ebp]
  01ee7	50		 push	 eax
  01ee8	8b 4d fc	 mov	 ecx, DWORD PTR _a$[ebp]
  01eeb	51		 push	 ecx
  01eec	e8 00 00 00 00	 call	 ?initialise_speech_data@@YGXW4speech_array_types@@W4speech_originator_types@@HHH@Z ; initialise_speech_data

; 465  : 		initialise_speech_data (a, o, GROUP_CALLSIGN_MANIAC, 				SOUND_SAMPLE_INDEX_SPEECH_US_FAC_MANIAC, SOUND_SAMPLE_INDEX_SPEECH_CIS_FAC_MANIAC);

  01ef1	68 a6 05 00 00	 push	 1446			; 000005a6H
  01ef6	68 36 05 00 00	 push	 1334			; 00000536H
  01efb	6a 29		 push	 41			; 00000029H
  01efd	8b 45 f8	 mov	 eax, DWORD PTR _o$[ebp]
  01f00	50		 push	 eax
  01f01	8b 4d fc	 mov	 ecx, DWORD PTR _a$[ebp]
  01f04	51		 push	 ecx
  01f05	e8 00 00 00 00	 call	 ?initialise_speech_data@@YGXW4speech_array_types@@W4speech_originator_types@@HHH@Z ; initialise_speech_data

; 466  : 		initialise_speech_data (a, o, GROUP_CALLSIGN_MANTIS, 				SOUND_SAMPLE_INDEX_SPEECH_US_FAC_MANTIS, SOUND_SAMPLE_INDEX_SPEECH_CIS_FAC_MANTIS);

  01f0a	68 a7 05 00 00	 push	 1447			; 000005a7H
  01f0f	68 37 05 00 00	 push	 1335			; 00000537H
  01f14	6a 2a		 push	 42			; 0000002aH
  01f16	8b 45 f8	 mov	 eax, DWORD PTR _o$[ebp]
  01f19	50		 push	 eax
  01f1a	8b 4d fc	 mov	 ecx, DWORD PTR _a$[ebp]
  01f1d	51		 push	 ecx
  01f1e	e8 00 00 00 00	 call	 ?initialise_speech_data@@YGXW4speech_array_types@@W4speech_originator_types@@HHH@Z ; initialise_speech_data

; 467  : 		initialise_speech_data (a, o, GROUP_CALLSIGN_MAULER, 				SOUND_SAMPLE_INDEX_SPEECH_US_FAC_MAULER, SOUND_SAMPLE_INDEX_SPEECH_CIS_FAC_MAULER);

  01f23	68 a8 05 00 00	 push	 1448			; 000005a8H
  01f28	68 38 05 00 00	 push	 1336			; 00000538H
  01f2d	6a 2b		 push	 43			; 0000002bH
  01f2f	8b 45 f8	 mov	 eax, DWORD PTR _o$[ebp]
  01f32	50		 push	 eax
  01f33	8b 4d fc	 mov	 ecx, DWORD PTR _a$[ebp]
  01f36	51		 push	 ecx
  01f37	e8 00 00 00 00	 call	 ?initialise_speech_data@@YGXW4speech_array_types@@W4speech_originator_types@@HHH@Z ; initialise_speech_data

; 468  : 		initialise_speech_data (a, o, GROUP_CALLSIGN_MERCURY, 			SOUND_SAMPLE_INDEX_SPEECH_US_FAC_MERCURY, SOUND_SAMPLE_INDEX_SPEECH_CIS_FAC_MERCURY);

  01f3c	68 a9 05 00 00	 push	 1449			; 000005a9H
  01f41	68 39 05 00 00	 push	 1337			; 00000539H
  01f46	6a 2c		 push	 44			; 0000002cH
  01f48	8b 45 f8	 mov	 eax, DWORD PTR _o$[ebp]
  01f4b	50		 push	 eax
  01f4c	8b 4d fc	 mov	 ecx, DWORD PTR _a$[ebp]
  01f4f	51		 push	 ecx
  01f50	e8 00 00 00 00	 call	 ?initialise_speech_data@@YGXW4speech_array_types@@W4speech_originator_types@@HHH@Z ; initialise_speech_data

; 469  : 		initialise_speech_data (a, o, GROUP_CALLSIGN_MERLIN, 				SOUND_SAMPLE_INDEX_SPEECH_US_FAC_MERLIN, SOUND_SAMPLE_INDEX_SPEECH_CIS_FAC_MERLIN);

  01f55	68 aa 05 00 00	 push	 1450			; 000005aaH
  01f5a	68 3a 05 00 00	 push	 1338			; 0000053aH
  01f5f	6a 2d		 push	 45			; 0000002dH
  01f61	8b 45 f8	 mov	 eax, DWORD PTR _o$[ebp]
  01f64	50		 push	 eax
  01f65	8b 4d fc	 mov	 ecx, DWORD PTR _a$[ebp]
  01f68	51		 push	 ecx
  01f69	e8 00 00 00 00	 call	 ?initialise_speech_data@@YGXW4speech_array_types@@W4speech_originator_types@@HHH@Z ; initialise_speech_data

; 470  : 		initialise_speech_data (a, o, GROUP_CALLSIGN_MILKMAN, 			SOUND_SAMPLE_INDEX_SPEECH_US_FAC_MILKMAN, SOUND_SAMPLE_INDEX_SPEECH_CIS_FAC_MILKMAN);

  01f6e	68 ab 05 00 00	 push	 1451			; 000005abH
  01f73	68 3b 05 00 00	 push	 1339			; 0000053bH
  01f78	6a 2e		 push	 46			; 0000002eH
  01f7a	8b 45 f8	 mov	 eax, DWORD PTR _o$[ebp]
  01f7d	50		 push	 eax
  01f7e	8b 4d fc	 mov	 ecx, DWORD PTR _a$[ebp]
  01f81	51		 push	 ecx
  01f82	e8 00 00 00 00	 call	 ?initialise_speech_data@@YGXW4speech_array_types@@W4speech_originator_types@@HHH@Z ; initialise_speech_data

; 471  : 		initialise_speech_data (a, o, GROUP_CALLSIGN_MUSTANG, 			SOUND_SAMPLE_INDEX_SPEECH_US_FAC_MUSTANG, SOUND_SAMPLE_INDEX_SPEECH_CIS_FAC_MUSTANG);

  01f87	68 ac 05 00 00	 push	 1452			; 000005acH
  01f8c	68 3c 05 00 00	 push	 1340			; 0000053cH
  01f91	6a 2f		 push	 47			; 0000002fH
  01f93	8b 45 f8	 mov	 eax, DWORD PTR _o$[ebp]
  01f96	50		 push	 eax
  01f97	8b 4d fc	 mov	 ecx, DWORD PTR _a$[ebp]
  01f9a	51		 push	 ecx
  01f9b	e8 00 00 00 00	 call	 ?initialise_speech_data@@YGXW4speech_array_types@@W4speech_originator_types@@HHH@Z ; initialise_speech_data

; 472  : 		initialise_speech_data (a, o, GROUP_CALLSIGN_NIGHTMARE, 			SOUND_SAMPLE_INDEX_SPEECH_US_FAC_NIGHTMAR, SOUND_SAMPLE_INDEX_SPEECH_CIS_FAC_NIGHTMAR);

  01fa0	68 ad 05 00 00	 push	 1453			; 000005adH
  01fa5	68 3d 05 00 00	 push	 1341			; 0000053dH
  01faa	6a 30		 push	 48			; 00000030H
  01fac	8b 45 f8	 mov	 eax, DWORD PTR _o$[ebp]
  01faf	50		 push	 eax
  01fb0	8b 4d fc	 mov	 ecx, DWORD PTR _a$[ebp]
  01fb3	51		 push	 ecx
  01fb4	e8 00 00 00 00	 call	 ?initialise_speech_data@@YGXW4speech_array_types@@W4speech_originator_types@@HHH@Z ; initialise_speech_data

; 473  : 		initialise_speech_data (a, o, GROUP_CALLSIGN_PANTHER, 			SOUND_SAMPLE_INDEX_SPEECH_US_FAC_PANTHER, SOUND_SAMPLE_INDEX_SPEECH_CIS_FAC_PANTHER);

  01fb9	68 ae 05 00 00	 push	 1454			; 000005aeH
  01fbe	68 3e 05 00 00	 push	 1342			; 0000053eH
  01fc3	6a 31		 push	 49			; 00000031H
  01fc5	8b 45 f8	 mov	 eax, DWORD PTR _o$[ebp]
  01fc8	50		 push	 eax
  01fc9	8b 4d fc	 mov	 ecx, DWORD PTR _a$[ebp]
  01fcc	51		 push	 ecx
  01fcd	e8 00 00 00 00	 call	 ?initialise_speech_data@@YGXW4speech_array_types@@W4speech_originator_types@@HHH@Z ; initialise_speech_data

; 474  : 		initialise_speech_data (a, o, GROUP_CALLSIGN_PATRIOT, 			SOUND_SAMPLE_INDEX_SPEECH_US_FAC_PATRIOT, SOUND_SAMPLE_INDEX_SPEECH_CIS_FAC_PATRIOT);

  01fd2	68 af 05 00 00	 push	 1455			; 000005afH
  01fd7	68 3f 05 00 00	 push	 1343			; 0000053fH
  01fdc	6a 32		 push	 50			; 00000032H
  01fde	8b 45 f8	 mov	 eax, DWORD PTR _o$[ebp]
  01fe1	50		 push	 eax
  01fe2	8b 4d fc	 mov	 ecx, DWORD PTR _a$[ebp]
  01fe5	51		 push	 ecx
  01fe6	e8 00 00 00 00	 call	 ?initialise_speech_data@@YGXW4speech_array_types@@W4speech_originator_types@@HHH@Z ; initialise_speech_data

; 475  : 		initialise_speech_data (a, o, GROUP_CALLSIGN_PHANTOM, 			SOUND_SAMPLE_INDEX_SPEECH_US_FAC_PHANTOM, SOUND_SAMPLE_INDEX_SPEECH_CIS_FAC_PHANTOM);

  01feb	68 b0 05 00 00	 push	 1456			; 000005b0H
  01ff0	68 40 05 00 00	 push	 1344			; 00000540H
  01ff5	6a 33		 push	 51			; 00000033H
  01ff7	8b 45 f8	 mov	 eax, DWORD PTR _o$[ebp]
  01ffa	50		 push	 eax
  01ffb	8b 4d fc	 mov	 ecx, DWORD PTR _a$[ebp]
  01ffe	51		 push	 ecx
  01fff	e8 00 00 00 00	 call	 ?initialise_speech_data@@YGXW4speech_array_types@@W4speech_originator_types@@HHH@Z ; initialise_speech_data

; 476  : 		initialise_speech_data (a, o, GROUP_CALLSIGN_PHOENIX, 			SOUND_SAMPLE_INDEX_SPEECH_US_FAC_PHOENIX, SOUND_SAMPLE_INDEX_SPEECH_CIS_FAC_PHOENIX);

  02004	68 b1 05 00 00	 push	 1457			; 000005b1H
  02009	68 41 05 00 00	 push	 1345			; 00000541H
  0200e	6a 34		 push	 52			; 00000034H
  02010	8b 45 f8	 mov	 eax, DWORD PTR _o$[ebp]
  02013	50		 push	 eax
  02014	8b 4d fc	 mov	 ecx, DWORD PTR _a$[ebp]
  02017	51		 push	 ecx
  02018	e8 00 00 00 00	 call	 ?initialise_speech_data@@YGXW4speech_array_types@@W4speech_originator_types@@HHH@Z ; initialise_speech_data

; 477  : 		initialise_speech_data (a, o, GROUP_CALLSIGN_PREACHER, 			SOUND_SAMPLE_INDEX_SPEECH_US_FAC_PREACHER, SOUND_SAMPLE_INDEX_SPEECH_CIS_FAC_PREACHER);

  0201d	68 b2 05 00 00	 push	 1458			; 000005b2H
  02022	68 42 05 00 00	 push	 1346			; 00000542H
  02027	6a 35		 push	 53			; 00000035H
  02029	8b 45 f8	 mov	 eax, DWORD PTR _o$[ebp]
  0202c	50		 push	 eax
  0202d	8b 4d fc	 mov	 ecx, DWORD PTR _a$[ebp]
  02030	51		 push	 ecx
  02031	e8 00 00 00 00	 call	 ?initialise_speech_data@@YGXW4speech_array_types@@W4speech_originator_types@@HHH@Z ; initialise_speech_data

; 478  : 		initialise_speech_data (a, o, GROUP_CALLSIGN_PYTHON, 				SOUND_SAMPLE_INDEX_SPEECH_US_FAC_PYTHON, SOUND_SAMPLE_INDEX_SPEECH_CIS_FAC_PYTHON);

  02036	68 b3 05 00 00	 push	 1459			; 000005b3H
  0203b	68 43 05 00 00	 push	 1347			; 00000543H
  02040	6a 36		 push	 54			; 00000036H
  02042	8b 45 f8	 mov	 eax, DWORD PTR _o$[ebp]
  02045	50		 push	 eax
  02046	8b 4d fc	 mov	 ecx, DWORD PTR _a$[ebp]
  02049	51		 push	 ecx
  0204a	e8 00 00 00 00	 call	 ?initialise_speech_data@@YGXW4speech_array_types@@W4speech_originator_types@@HHH@Z ; initialise_speech_data

; 479  : 		initialise_speech_data (a, o, GROUP_CALLSIGN_RAPTOR, 				SOUND_SAMPLE_INDEX_SPEECH_US_FAC_RAPTOR, SOUND_SAMPLE_INDEX_SPEECH_CIS_FAC_RAPTOR);

  0204f	68 b5 05 00 00	 push	 1461			; 000005b5H
  02054	68 45 05 00 00	 push	 1349			; 00000545H
  02059	6a 37		 push	 55			; 00000037H
  0205b	8b 45 f8	 mov	 eax, DWORD PTR _o$[ebp]
  0205e	50		 push	 eax
  0205f	8b 4d fc	 mov	 ecx, DWORD PTR _a$[ebp]
  02062	51		 push	 ecx
  02063	e8 00 00 00 00	 call	 ?initialise_speech_data@@YGXW4speech_array_types@@W4speech_originator_types@@HHH@Z ; initialise_speech_data

; 480  : 		initialise_speech_data (a, o, GROUP_CALLSIGN_RATTLESNAKE, 		SOUND_SAMPLE_INDEX_SPEECH_US_FAC_RATTLESN, SOUND_SAMPLE_INDEX_SPEECH_CIS_FAC_RATTLESN);

  02068	68 b6 05 00 00	 push	 1462			; 000005b6H
  0206d	68 46 05 00 00	 push	 1350			; 00000546H
  02072	6a 38		 push	 56			; 00000038H
  02074	8b 45 f8	 mov	 eax, DWORD PTR _o$[ebp]
  02077	50		 push	 eax
  02078	8b 4d fc	 mov	 ecx, DWORD PTR _a$[ebp]
  0207b	51		 push	 ecx
  0207c	e8 00 00 00 00	 call	 ?initialise_speech_data@@YGXW4speech_array_types@@W4speech_originator_types@@HHH@Z ; initialise_speech_data

; 481  : 		initialise_speech_data (a, o, GROUP_CALLSIGN_RAZORBACK, 			SOUND_SAMPLE_INDEX_SPEECH_US_FAC_RAZORBAC, SOUND_SAMPLE_INDEX_SPEECH_CIS_FAC_RAZORBAC);

  02081	68 b7 05 00 00	 push	 1463			; 000005b7H
  02086	68 47 05 00 00	 push	 1351			; 00000547H
  0208b	6a 39		 push	 57			; 00000039H
  0208d	8b 45 f8	 mov	 eax, DWORD PTR _o$[ebp]
  02090	50		 push	 eax
  02091	8b 4d fc	 mov	 ecx, DWORD PTR _a$[ebp]
  02094	51		 push	 ecx
  02095	e8 00 00 00 00	 call	 ?initialise_speech_data@@YGXW4speech_array_types@@W4speech_originator_types@@HHH@Z ; initialise_speech_data

; 482  : 		initialise_speech_data (a, o, GROUP_CALLSIGN_RAZORWORKS, 		SOUND_SAMPLE_INDEX_SPEECH_US_FAC_RAZORWOR, SOUND_SAMPLE_INDEX_SPEECH_CIS_FAC_RAZORWOR);

  0209a	68 b8 05 00 00	 push	 1464			; 000005b8H
  0209f	68 48 05 00 00	 push	 1352			; 00000548H
  020a4	6a 3a		 push	 58			; 0000003aH
  020a6	8b 45 f8	 mov	 eax, DWORD PTR _o$[ebp]
  020a9	50		 push	 eax
  020aa	8b 4d fc	 mov	 ecx, DWORD PTR _a$[ebp]
  020ad	51		 push	 ecx
  020ae	e8 00 00 00 00	 call	 ?initialise_speech_data@@YGXW4speech_array_types@@W4speech_originator_types@@HHH@Z ; initialise_speech_data

; 483  : 		initialise_speech_data (a, o, GROUP_CALLSIGN_REAPER, 				SOUND_SAMPLE_INDEX_SPEECH_US_FAC_REAPER, SOUND_SAMPLE_INDEX_SPEECH_CIS_FAC_REAPER);

  020b3	68 b9 05 00 00	 push	 1465			; 000005b9H
  020b8	68 49 05 00 00	 push	 1353			; 00000549H
  020bd	6a 3b		 push	 59			; 0000003bH
  020bf	8b 45 f8	 mov	 eax, DWORD PTR _o$[ebp]
  020c2	50		 push	 eax
  020c3	8b 4d fc	 mov	 ecx, DWORD PTR _a$[ebp]
  020c6	51		 push	 ecx
  020c7	e8 00 00 00 00	 call	 ?initialise_speech_data@@YGXW4speech_array_types@@W4speech_originator_types@@HHH@Z ; initialise_speech_data

; 484  : 		initialise_speech_data (a, o, GROUP_CALLSIGN_RENEGADE, 			SOUND_SAMPLE_INDEX_SPEECH_US_FAC_RENEGADE, SOUND_SAMPLE_INDEX_SPEECH_CIS_FAC_RENEGADE);

  020cc	68 ba 05 00 00	 push	 1466			; 000005baH
  020d1	68 4a 05 00 00	 push	 1354			; 0000054aH
  020d6	6a 3c		 push	 60			; 0000003cH
  020d8	8b 45 f8	 mov	 eax, DWORD PTR _o$[ebp]
  020db	50		 push	 eax
  020dc	8b 4d fc	 mov	 ecx, DWORD PTR _a$[ebp]
  020df	51		 push	 ecx
  020e0	e8 00 00 00 00	 call	 ?initialise_speech_data@@YGXW4speech_array_types@@W4speech_originator_types@@HHH@Z ; initialise_speech_data

; 485  : 		initialise_speech_data (a, o, GROUP_CALLSIGN_SABRE, 				SOUND_SAMPLE_INDEX_SPEECH_US_FAC_SABRE, SOUND_SAMPLE_INDEX_SPEECH_CIS_FAC_SABRE);

  020e5	68 bb 05 00 00	 push	 1467			; 000005bbH
  020ea	68 4b 05 00 00	 push	 1355			; 0000054bH
  020ef	6a 3d		 push	 61			; 0000003dH
  020f1	8b 45 f8	 mov	 eax, DWORD PTR _o$[ebp]
  020f4	50		 push	 eax
  020f5	8b 4d fc	 mov	 ecx, DWORD PTR _a$[ebp]
  020f8	51		 push	 ecx
  020f9	e8 00 00 00 00	 call	 ?initialise_speech_data@@YGXW4speech_array_types@@W4speech_originator_types@@HHH@Z ; initialise_speech_data

; 486  : 		initialise_speech_data (a, o, GROUP_CALLSIGN_SAVAGE, 				SOUND_SAMPLE_INDEX_SPEECH_US_FAC_SAVAGE, SOUND_SAMPLE_INDEX_SPEECH_CIS_FAC_SAVAGE);

  020fe	68 bc 05 00 00	 push	 1468			; 000005bcH
  02103	68 4c 05 00 00	 push	 1356			; 0000054cH
  02108	6a 3e		 push	 62			; 0000003eH
  0210a	8b 45 f8	 mov	 eax, DWORD PTR _o$[ebp]
  0210d	50		 push	 eax
  0210e	8b 4d fc	 mov	 ecx, DWORD PTR _a$[ebp]
  02111	51		 push	 ecx
  02112	e8 00 00 00 00	 call	 ?initialise_speech_data@@YGXW4speech_array_types@@W4speech_originator_types@@HHH@Z ; initialise_speech_data

; 487  : 		initialise_speech_data (a, o, GROUP_CALLSIGN_SHADOW, 				SOUND_SAMPLE_INDEX_SPEECH_US_FAC_SHADOW, SOUND_SAMPLE_INDEX_SPEECH_CIS_FAC_SHADOW);

  02117	68 bd 05 00 00	 push	 1469			; 000005bdH
  0211c	68 4d 05 00 00	 push	 1357			; 0000054dH
  02121	6a 3f		 push	 63			; 0000003fH
  02123	8b 45 f8	 mov	 eax, DWORD PTR _o$[ebp]
  02126	50		 push	 eax
  02127	8b 4d fc	 mov	 ecx, DWORD PTR _a$[ebp]
  0212a	51		 push	 ecx
  0212b	e8 00 00 00 00	 call	 ?initialise_speech_data@@YGXW4speech_array_types@@W4speech_originator_types@@HHH@Z ; initialise_speech_data

; 488  : 		initialise_speech_data (a, o, GROUP_CALLSIGN_SHERIFF, 			SOUND_SAMPLE_INDEX_SPEECH_US_FAC_SHERIFF, SOUND_SAMPLE_INDEX_SPEECH_CIS_FAC_SHERIFF);

  02130	68 be 05 00 00	 push	 1470			; 000005beH
  02135	68 4e 05 00 00	 push	 1358			; 0000054eH
  0213a	6a 40		 push	 64			; 00000040H
  0213c	8b 45 f8	 mov	 eax, DWORD PTR _o$[ebp]
  0213f	50		 push	 eax
  02140	8b 4d fc	 mov	 ecx, DWORD PTR _a$[ebp]
  02143	51		 push	 ecx
  02144	e8 00 00 00 00	 call	 ?initialise_speech_data@@YGXW4speech_array_types@@W4speech_originator_types@@HHH@Z ; initialise_speech_data

; 489  : 		initialise_speech_data (a, o, GROUP_CALLSIGN_SHOGUN, 				SOUND_SAMPLE_INDEX_SPEECH_US_FAC_SHOGUN, SOUND_SAMPLE_INDEX_SPEECH_CIS_FAC_SHOGUN);

  02149	68 bf 05 00 00	 push	 1471			; 000005bfH
  0214e	68 4f 05 00 00	 push	 1359			; 0000054fH
  02153	6a 41		 push	 65			; 00000041H
  02155	8b 45 f8	 mov	 eax, DWORD PTR _o$[ebp]
  02158	50		 push	 eax
  02159	8b 4d fc	 mov	 ecx, DWORD PTR _a$[ebp]
  0215c	51		 push	 ecx
  0215d	e8 00 00 00 00	 call	 ?initialise_speech_data@@YGXW4speech_array_types@@W4speech_originator_types@@HHH@Z ; initialise_speech_data

; 490  : 		initialise_speech_data (a, o, GROUP_CALLSIGN_SNOWBALL, 			SOUND_SAMPLE_INDEX_SPEECH_US_FAC_SNOWBALL, SOUND_SAMPLE_INDEX_SPEECH_CIS_FAC_SNOWBALL);

  02162	68 c0 05 00 00	 push	 1472			; 000005c0H
  02167	68 50 05 00 00	 push	 1360			; 00000550H
  0216c	6a 42		 push	 66			; 00000042H
  0216e	8b 45 f8	 mov	 eax, DWORD PTR _o$[ebp]
  02171	50		 push	 eax
  02172	8b 4d fc	 mov	 ecx, DWORD PTR _a$[ebp]
  02175	51		 push	 ecx
  02176	e8 00 00 00 00	 call	 ?initialise_speech_data@@YGXW4speech_array_types@@W4speech_originator_types@@HHH@Z ; initialise_speech_data

; 491  : 		initialise_speech_data (a, o, GROUP_CALLSIGN_SPARTAKUS, 			SOUND_SAMPLE_INDEX_SPEECH_US_FAC_SPARTACU, SOUND_SAMPLE_INDEX_SPEECH_CIS_FAC_SPARTACU);

  0217b	68 c1 05 00 00	 push	 1473			; 000005c1H
  02180	68 51 05 00 00	 push	 1361			; 00000551H
  02185	6a 43		 push	 67			; 00000043H
  02187	8b 45 f8	 mov	 eax, DWORD PTR _o$[ebp]
  0218a	50		 push	 eax
  0218b	8b 4d fc	 mov	 ecx, DWORD PTR _a$[ebp]
  0218e	51		 push	 ecx
  0218f	e8 00 00 00 00	 call	 ?initialise_speech_data@@YGXW4speech_array_types@@W4speech_originator_types@@HHH@Z ; initialise_speech_data

; 492  : 		initialise_speech_data (a, o, GROUP_CALLSIGN_SPECTRUM, 			SOUND_SAMPLE_INDEX_SPEECH_US_FAC_SPECTRUM, SOUND_SAMPLE_INDEX_SPEECH_CIS_FAC_SPECTRUM);

  02194	68 c2 05 00 00	 push	 1474			; 000005c2H
  02199	68 52 05 00 00	 push	 1362			; 00000552H
  0219e	6a 44		 push	 68			; 00000044H
  021a0	8b 45 f8	 mov	 eax, DWORD PTR _o$[ebp]
  021a3	50		 push	 eax
  021a4	8b 4d fc	 mov	 ecx, DWORD PTR _a$[ebp]
  021a7	51		 push	 ecx
  021a8	e8 00 00 00 00	 call	 ?initialise_speech_data@@YGXW4speech_array_types@@W4speech_originator_types@@HHH@Z ; initialise_speech_data

; 493  : 		initialise_speech_data (a, o, GROUP_CALLSIGN_STALKER, 			SOUND_SAMPLE_INDEX_SPEECH_US_FAC_STALKER, SOUND_SAMPLE_INDEX_SPEECH_CIS_FAC_STALKER);

  021ad	68 c4 05 00 00	 push	 1476			; 000005c4H
  021b2	68 54 05 00 00	 push	 1364			; 00000554H
  021b7	6a 45		 push	 69			; 00000045H
  021b9	8b 45 f8	 mov	 eax, DWORD PTR _o$[ebp]
  021bc	50		 push	 eax
  021bd	8b 4d fc	 mov	 ecx, DWORD PTR _a$[ebp]
  021c0	51		 push	 ecx
  021c1	e8 00 00 00 00	 call	 ?initialise_speech_data@@YGXW4speech_array_types@@W4speech_originator_types@@HHH@Z ; initialise_speech_data

; 494  : 		initialise_speech_data (a, o, GROUP_CALLSIGN_STINGRAY, 			SOUND_SAMPLE_INDEX_SPEECH_US_FAC_STINGRAY, SOUND_SAMPLE_INDEX_SPEECH_CIS_FAC_STINGRAY);

  021c6	68 c5 05 00 00	 push	 1477			; 000005c5H
  021cb	68 55 05 00 00	 push	 1365			; 00000555H
  021d0	6a 46		 push	 70			; 00000046H
  021d2	8b 45 f8	 mov	 eax, DWORD PTR _o$[ebp]
  021d5	50		 push	 eax
  021d6	8b 4d fc	 mov	 ecx, DWORD PTR _a$[ebp]
  021d9	51		 push	 ecx
  021da	e8 00 00 00 00	 call	 ?initialise_speech_data@@YGXW4speech_array_types@@W4speech_originator_types@@HHH@Z ; initialise_speech_data

; 495  : 		initialise_speech_data (a, o, GROUP_CALLSIGN_STRIKER, 			SOUND_SAMPLE_INDEX_SPEECH_US_FAC_STRIKER, SOUND_SAMPLE_INDEX_SPEECH_CIS_FAC_STRIKER);

  021df	68 c6 05 00 00	 push	 1478			; 000005c6H
  021e4	68 56 05 00 00	 push	 1366			; 00000556H
  021e9	6a 47		 push	 71			; 00000047H
  021eb	8b 45 f8	 mov	 eax, DWORD PTR _o$[ebp]
  021ee	50		 push	 eax
  021ef	8b 4d fc	 mov	 ecx, DWORD PTR _a$[ebp]
  021f2	51		 push	 ecx
  021f3	e8 00 00 00 00	 call	 ?initialise_speech_data@@YGXW4speech_array_types@@W4speech_originator_types@@HHH@Z ; initialise_speech_data

; 496  : 		initialise_speech_data (a, o, GROUP_CALLSIGN_SUNDOWN, 			SOUND_SAMPLE_INDEX_SPEECH_US_FAC_SUNDOWN, SOUND_SAMPLE_INDEX_SPEECH_CIS_FAC_SUNDOWN);

  021f8	68 c7 05 00 00	 push	 1479			; 000005c7H
  021fd	68 57 05 00 00	 push	 1367			; 00000557H
  02202	6a 48		 push	 72			; 00000048H
  02204	8b 45 f8	 mov	 eax, DWORD PTR _o$[ebp]
  02207	50		 push	 eax
  02208	8b 4d fc	 mov	 ecx, DWORD PTR _a$[ebp]
  0220b	51		 push	 ecx
  0220c	e8 00 00 00 00	 call	 ?initialise_speech_data@@YGXW4speech_array_types@@W4speech_originator_types@@HHH@Z ; initialise_speech_data

; 497  : 		initialise_speech_data (a, o, GROUP_CALLSIGN_SWAMP_FOX, 			SOUND_SAMPLE_INDEX_SPEECH_US_FAC_SWAMPFOX, SOUND_SAMPLE_INDEX_SPEECH_CIS_FAC_SWAMPFOX);

  02211	68 c8 05 00 00	 push	 1480			; 000005c8H
  02216	68 58 05 00 00	 push	 1368			; 00000558H
  0221b	6a 49		 push	 73			; 00000049H
  0221d	8b 45 f8	 mov	 eax, DWORD PTR _o$[ebp]
  02220	50		 push	 eax
  02221	8b 4d fc	 mov	 ecx, DWORD PTR _a$[ebp]
  02224	51		 push	 ecx
  02225	e8 00 00 00 00	 call	 ?initialise_speech_data@@YGXW4speech_array_types@@W4speech_originator_types@@HHH@Z ; initialise_speech_data

; 498  : 		initialise_speech_data (a, o, GROUP_CALLSIGN_TEMPEST, 			SOUND_SAMPLE_INDEX_SPEECH_US_FAC_TEMPEST, SOUND_SAMPLE_INDEX_SPEECH_CIS_FAC_TEMPEST);

  0222a	68 c9 05 00 00	 push	 1481			; 000005c9H
  0222f	68 59 05 00 00	 push	 1369			; 00000559H
  02234	6a 4a		 push	 74			; 0000004aH
  02236	8b 45 f8	 mov	 eax, DWORD PTR _o$[ebp]
  02239	50		 push	 eax
  0223a	8b 4d fc	 mov	 ecx, DWORD PTR _a$[ebp]
  0223d	51		 push	 ecx
  0223e	e8 00 00 00 00	 call	 ?initialise_speech_data@@YGXW4speech_array_types@@W4speech_originator_types@@HHH@Z ; initialise_speech_data

; 499  : 		initialise_speech_data (a, o, GROUP_CALLSIGN_TIGER_SHARK, 		SOUND_SAMPLE_INDEX_SPEECH_US_FAC_TIGERSHA, SOUND_SAMPLE_INDEX_SPEECH_CIS_FAC_TIGERSHA);

  02243	68 ca 05 00 00	 push	 1482			; 000005caH
  02248	68 5a 05 00 00	 push	 1370			; 0000055aH
  0224d	6a 4b		 push	 75			; 0000004bH
  0224f	8b 45 f8	 mov	 eax, DWORD PTR _o$[ebp]
  02252	50		 push	 eax
  02253	8b 4d fc	 mov	 ecx, DWORD PTR _a$[ebp]
  02256	51		 push	 ecx
  02257	e8 00 00 00 00	 call	 ?initialise_speech_data@@YGXW4speech_array_types@@W4speech_originator_types@@HHH@Z ; initialise_speech_data

; 500  : 		initialise_speech_data (a, o, GROUP_CALLSIGN_TOUCHDOWN, 			SOUND_SAMPLE_INDEX_SPEECH_US_FAC_TOUCHDOW, SOUND_SAMPLE_INDEX_SPEECH_CIS_FAC_TOUCHDOW);

  0225c	68 cb 05 00 00	 push	 1483			; 000005cbH
  02261	68 5b 05 00 00	 push	 1371			; 0000055bH
  02266	6a 4c		 push	 76			; 0000004cH
  02268	8b 45 f8	 mov	 eax, DWORD PTR _o$[ebp]
  0226b	50		 push	 eax
  0226c	8b 4d fc	 mov	 ecx, DWORD PTR _a$[ebp]
  0226f	51		 push	 ecx
  02270	e8 00 00 00 00	 call	 ?initialise_speech_data@@YGXW4speech_array_types@@W4speech_originator_types@@HHH@Z ; initialise_speech_data

; 501  : 		initialise_speech_data (a, o, GROUP_CALLSIGN_VAMPIRE, 			SOUND_SAMPLE_INDEX_SPEECH_US_FAC_VAMPIRE, SOUND_SAMPLE_INDEX_SPEECH_CIS_FAC_VAMPIRE);

  02275	68 cc 05 00 00	 push	 1484			; 000005ccH
  0227a	68 5c 05 00 00	 push	 1372			; 0000055cH
  0227f	6a 4d		 push	 77			; 0000004dH
  02281	8b 45 f8	 mov	 eax, DWORD PTR _o$[ebp]
  02284	50		 push	 eax
  02285	8b 4d fc	 mov	 ecx, DWORD PTR _a$[ebp]
  02288	51		 push	 ecx
  02289	e8 00 00 00 00	 call	 ?initialise_speech_data@@YGXW4speech_array_types@@W4speech_originator_types@@HHH@Z ; initialise_speech_data

; 502  : 		initialise_speech_data (a, o, GROUP_CALLSIGN_VERTIGO, 			SOUND_SAMPLE_INDEX_SPEECH_US_FAC_VERTIGO, SOUND_SAMPLE_INDEX_SPEECH_CIS_FAC_VERTIGO);

  0228e	68 cd 05 00 00	 push	 1485			; 000005cdH
  02293	68 5d 05 00 00	 push	 1373			; 0000055dH
  02298	6a 4e		 push	 78			; 0000004eH
  0229a	8b 45 f8	 mov	 eax, DWORD PTR _o$[ebp]
  0229d	50		 push	 eax
  0229e	8b 4d fc	 mov	 ecx, DWORD PTR _a$[ebp]
  022a1	51		 push	 ecx
  022a2	e8 00 00 00 00	 call	 ?initialise_speech_data@@YGXW4speech_array_types@@W4speech_originator_types@@HHH@Z ; initialise_speech_data

; 503  : 		initialise_speech_data (a, o, GROUP_CALLSIGN_VIGILANTE, 			SOUND_SAMPLE_INDEX_SPEECH_US_FAC_VIGILANT, SOUND_SAMPLE_INDEX_SPEECH_CIS_FAC_VIGILANT);

  022a7	68 ce 05 00 00	 push	 1486			; 000005ceH
  022ac	68 5e 05 00 00	 push	 1374			; 0000055eH
  022b1	6a 4f		 push	 79			; 0000004fH
  022b3	8b 45 f8	 mov	 eax, DWORD PTR _o$[ebp]
  022b6	50		 push	 eax
  022b7	8b 4d fc	 mov	 ecx, DWORD PTR _a$[ebp]
  022ba	51		 push	 ecx
  022bb	e8 00 00 00 00	 call	 ?initialise_speech_data@@YGXW4speech_array_types@@W4speech_originator_types@@HHH@Z ; initialise_speech_data

; 504  : 		initialise_speech_data (a, o, GROUP_CALLSIGN_VIKING, 				SOUND_SAMPLE_INDEX_SPEECH_US_FAC_VIKING, SOUND_SAMPLE_INDEX_SPEECH_CIS_FAC_VIKING);

  022c0	68 cf 05 00 00	 push	 1487			; 000005cfH
  022c5	68 5f 05 00 00	 push	 1375			; 0000055fH
  022ca	6a 50		 push	 80			; 00000050H
  022cc	8b 45 f8	 mov	 eax, DWORD PTR _o$[ebp]
  022cf	50		 push	 eax
  022d0	8b 4d fc	 mov	 ecx, DWORD PTR _a$[ebp]
  022d3	51		 push	 ecx
  022d4	e8 00 00 00 00	 call	 ?initialise_speech_data@@YGXW4speech_array_types@@W4speech_originator_types@@HHH@Z ; initialise_speech_data

; 505  : 		initialise_speech_data (a, o, GROUP_CALLSIGN_VIPER, 				SOUND_SAMPLE_INDEX_SPEECH_US_FAC_VIPER, SOUND_SAMPLE_INDEX_SPEECH_CIS_FAC_VIPER);

  022d9	68 d0 05 00 00	 push	 1488			; 000005d0H
  022de	68 60 05 00 00	 push	 1376			; 00000560H
  022e3	6a 51		 push	 81			; 00000051H
  022e5	8b 45 f8	 mov	 eax, DWORD PTR _o$[ebp]
  022e8	50		 push	 eax
  022e9	8b 4d fc	 mov	 ecx, DWORD PTR _a$[ebp]
  022ec	51		 push	 ecx
  022ed	e8 00 00 00 00	 call	 ?initialise_speech_data@@YGXW4speech_array_types@@W4speech_originator_types@@HHH@Z ; initialise_speech_data

; 506  : 		initialise_speech_data (a, o, GROUP_CALLSIGN_VOODOO, 				SOUND_SAMPLE_INDEX_SPEECH_US_FAC_VOODOO, SOUND_SAMPLE_INDEX_SPEECH_CIS_FAC_VOODOO);

  022f2	68 d1 05 00 00	 push	 1489			; 000005d1H
  022f7	68 61 05 00 00	 push	 1377			; 00000561H
  022fc	6a 52		 push	 82			; 00000052H
  022fe	8b 45 f8	 mov	 eax, DWORD PTR _o$[ebp]
  02301	50		 push	 eax
  02302	8b 4d fc	 mov	 ecx, DWORD PTR _a$[ebp]
  02305	51		 push	 ecx
  02306	e8 00 00 00 00	 call	 ?initialise_speech_data@@YGXW4speech_array_types@@W4speech_originator_types@@HHH@Z ; initialise_speech_data

; 507  : 		initialise_speech_data (a, o, GROUP_CALLSIGN_VULCAN, 				SOUND_SAMPLE_INDEX_SPEECH_US_FAC_VULCAN, SOUND_SAMPLE_INDEX_SPEECH_CIS_FAC_VULCAN);

  0230b	68 d2 05 00 00	 push	 1490			; 000005d2H
  02310	68 62 05 00 00	 push	 1378			; 00000562H
  02315	6a 53		 push	 83			; 00000053H
  02317	8b 45 f8	 mov	 eax, DWORD PTR _o$[ebp]
  0231a	50		 push	 eax
  0231b	8b 4d fc	 mov	 ecx, DWORD PTR _a$[ebp]
  0231e	51		 push	 ecx
  0231f	e8 00 00 00 00	 call	 ?initialise_speech_data@@YGXW4speech_array_types@@W4speech_originator_types@@HHH@Z ; initialise_speech_data

; 508  : 		initialise_speech_data (a, o, GROUP_CALLSIGN_VULTURE, 			SOUND_SAMPLE_INDEX_SPEECH_US_FAC_VULTURE, SOUND_SAMPLE_INDEX_SPEECH_CIS_FAC_VULTURE);

  02324	68 d3 05 00 00	 push	 1491			; 000005d3H
  02329	68 63 05 00 00	 push	 1379			; 00000563H
  0232e	6a 54		 push	 84			; 00000054H
  02330	8b 45 f8	 mov	 eax, DWORD PTR _o$[ebp]
  02333	50		 push	 eax
  02334	8b 4d fc	 mov	 ecx, DWORD PTR _a$[ebp]
  02337	51		 push	 ecx
  02338	e8 00 00 00 00	 call	 ?initialise_speech_data@@YGXW4speech_array_types@@W4speech_originator_types@@HHH@Z ; initialise_speech_data

; 509  : 		initialise_speech_data (a, o, GROUP_CALLSIGN_WARLOCK, 			SOUND_SAMPLE_INDEX_SPEECH_US_FAC_WARLOCK, SOUND_SAMPLE_INDEX_SPEECH_CIS_FAC_WARLOCK);

  0233d	68 d4 05 00 00	 push	 1492			; 000005d4H
  02342	68 64 05 00 00	 push	 1380			; 00000564H
  02347	6a 55		 push	 85			; 00000055H
  02349	8b 45 f8	 mov	 eax, DWORD PTR _o$[ebp]
  0234c	50		 push	 eax
  0234d	8b 4d fc	 mov	 ecx, DWORD PTR _a$[ebp]
  02350	51		 push	 ecx
  02351	e8 00 00 00 00	 call	 ?initialise_speech_data@@YGXW4speech_array_types@@W4speech_originator_types@@HHH@Z ; initialise_speech_data

; 510  : 		initialise_speech_data (a, o, GROUP_CALLSIGN_WARLORD, 			SOUND_SAMPLE_INDEX_SPEECH_US_FAC_WARLORD, SOUND_SAMPLE_INDEX_SPEECH_CIS_FAC_WARLORD);

  02356	68 d5 05 00 00	 push	 1493			; 000005d5H
  0235b	68 65 05 00 00	 push	 1381			; 00000565H
  02360	6a 56		 push	 86			; 00000056H
  02362	8b 45 f8	 mov	 eax, DWORD PTR _o$[ebp]
  02365	50		 push	 eax
  02366	8b 4d fc	 mov	 ecx, DWORD PTR _a$[ebp]
  02369	51		 push	 ecx
  0236a	e8 00 00 00 00	 call	 ?initialise_speech_data@@YGXW4speech_array_types@@W4speech_originator_types@@HHH@Z ; initialise_speech_data

; 511  : 		initialise_speech_data (a, o, GROUP_CALLSIGN_WARRIOR, 			SOUND_SAMPLE_INDEX_SPEECH_US_FAC_WARRIOR, SOUND_SAMPLE_INDEX_SPEECH_CIS_FAC_WARRIOR);

  0236f	68 d6 05 00 00	 push	 1494			; 000005d6H
  02374	68 66 05 00 00	 push	 1382			; 00000566H
  02379	6a 57		 push	 87			; 00000057H
  0237b	8b 45 f8	 mov	 eax, DWORD PTR _o$[ebp]
  0237e	50		 push	 eax
  0237f	8b 4d fc	 mov	 ecx, DWORD PTR _a$[ebp]
  02382	51		 push	 ecx
  02383	e8 00 00 00 00	 call	 ?initialise_speech_data@@YGXW4speech_array_types@@W4speech_originator_types@@HHH@Z ; initialise_speech_data

; 512  : 		initialise_speech_data (a, o, GROUP_CALLSIGN_WILDCAT, 			SOUND_SAMPLE_INDEX_SPEECH_US_FAC_WILDCAT, SOUND_SAMPLE_INDEX_SPEECH_CIS_FAC_WILDCAT);

  02388	68 d7 05 00 00	 push	 1495			; 000005d7H
  0238d	68 67 05 00 00	 push	 1383			; 00000567H
  02392	6a 58		 push	 88			; 00000058H
  02394	8b 45 f8	 mov	 eax, DWORD PTR _o$[ebp]
  02397	50		 push	 eax
  02398	8b 4d fc	 mov	 ecx, DWORD PTR _a$[ebp]
  0239b	51		 push	 ecx
  0239c	e8 00 00 00 00	 call	 ?initialise_speech_data@@YGXW4speech_array_types@@W4speech_originator_types@@HHH@Z ; initialise_speech_data

; 513  : 		initialise_speech_data (a, o, GROUP_CALLSIGN_WOLFPACK, 			SOUND_SAMPLE_INDEX_SPEECH_US_FAC_WOLFPACK, SOUND_SAMPLE_INDEX_SPEECH_CIS_FAC_WOLFPACK);

  023a1	68 d8 05 00 00	 push	 1496			; 000005d8H
  023a6	68 68 05 00 00	 push	 1384			; 00000568H
  023ab	6a 59		 push	 89			; 00000059H
  023ad	8b 45 f8	 mov	 eax, DWORD PTR _o$[ebp]
  023b0	50		 push	 eax
  023b1	8b 4d fc	 mov	 ecx, DWORD PTR _a$[ebp]
  023b4	51		 push	 ecx
  023b5	e8 00 00 00 00	 call	 ?initialise_speech_data@@YGXW4speech_array_types@@W4speech_originator_types@@HHH@Z ; initialise_speech_data

; 514  : 
; 515  : 		#endif
; 516  : 	}
; 517  : 
; 518  : 	//
; 519  : 	// GROUND CONTROLLER
; 520  : 	//
; 521  : 	{	
; 522  : 		o = SPEECH_ORIGINATOR_GROUND_CONTROLLER;

  023ba	c7 45 f8 06 00
	00 00		 mov	 DWORD PTR _o$[ebp], 6

; 523  : 		
; 524  : 		initialise_sample_index_array (a, o, max_items);

  023c1	8b 45 f4	 mov	 eax, DWORD PTR _max_items$[ebp]
  023c4	50		 push	 eax
  023c5	8b 4d f8	 mov	 ecx, DWORD PTR _o$[ebp]
  023c8	51		 push	 ecx
  023c9	8b 55 fc	 mov	 edx, DWORD PTR _a$[ebp]
  023cc	52		 push	 edx
  023cd	e8 00 00 00 00	 call	 ?initialise_sample_index_array@@YGXW4speech_array_types@@W4speech_originator_types@@H@Z ; initialise_sample_index_array

; 525  : 	}
; 526  : }

  023d2	5f		 pop	 edi
  023d3	5e		 pop	 esi
  023d4	5b		 pop	 ebx
  023d5	8b e5		 mov	 esp, ebp
  023d7	5d		 pop	 ebp
  023d8	c3		 ret	 0
?initialise_speech_callsign_data@@YGXXZ ENDP		; initialise_speech_callsign_data
_TEXT	ENDS
END
