; Listing generated by Microsoft (R) Optimizing Compiler Version 19.16.27045.0 

	TITLE	C:\Users\nhv90\Projects\eech\aphavoc\source\entity\special\effect\soundeff\spch_wmn.c
	.686P
	.XMM
	include listing.inc
	.model	flat

INCLUDELIB MSVCRTD
INCLUDELIB OLDNAMES

PUBLIC	?initialise_speech_wingman_data@@YGXXZ		; initialise_speech_wingman_data
EXTRN	?initialise_sample_index_array@@YGXW4speech_array_types@@W4speech_originator_types@@H@Z:PROC ; initialise_sample_index_array
EXTRN	?initialise_speech_data@@YGXW4speech_array_types@@W4speech_originator_types@@HHH@Z:PROC ; initialise_speech_data
; Function compile flags: /Odtp /ZI
; File c:\users\nhv90\projects\eech\aphavoc\source\entity\special\effect\soundeff\spch_wmn.c
;	COMDAT ?initialise_speech_wingman_data@@YGXXZ
_TEXT	SEGMENT
_max_items$ = -12					; size = 4
_o$ = -8						; size = 4
_a$ = -4						; size = 4
?initialise_speech_wingman_data@@YGXXZ PROC		; initialise_speech_wingman_data, COMDAT

; 77   : {

  00000	55		 push	 ebp
  00001	8b ec		 mov	 ebp, esp
  00003	83 ec 4c	 sub	 esp, 76			; 0000004cH
  00006	53		 push	 ebx
  00007	56		 push	 esi
  00008	57		 push	 edi

; 78   : 	speech_array_types
; 79   : 		a = SPEECH_ARRAY_WINGMAN_MESSAGES;

  00009	c7 45 fc 07 00
	00 00		 mov	 DWORD PTR _a$[ebp], 7

; 80   : 
; 81   : 	speech_originator_types
; 82   : 		o;
; 83   : 
; 84   : 	int
; 85   : 		max_items = NUM_SPEECH_WINGMAN_MESSAGES;

  00010	c7 45 f4 3a 00
	00 00		 mov	 DWORD PTR _max_items$[ebp], 58 ; 0000003aH

; 86   : 
; 87   : 	//
; 88   : 	// WINGMAN
; 89   : 	//
; 90   : 	{	
; 91   : 		o = SPEECH_ORIGINATOR_WINGMAN1;

  00017	c7 45 f8 02 00
	00 00		 mov	 DWORD PTR _o$[ebp], 2

; 92   : 		
; 93   : 		initialise_sample_index_array (a, o, max_items);

  0001e	8b 45 f4	 mov	 eax, DWORD PTR _max_items$[ebp]
  00021	50		 push	 eax
  00022	8b 4d f8	 mov	 ecx, DWORD PTR _o$[ebp]
  00025	51		 push	 ecx
  00026	8b 55 fc	 mov	 edx, DWORD PTR _a$[ebp]
  00029	52		 push	 edx
  0002a	e8 00 00 00 00	 call	 ?initialise_sample_index_array@@YGXW4speech_array_types@@W4speech_originator_types@@H@Z ; initialise_sample_index_array

; 94   : 
; 95   : 		#if !DEMO_VERSION
; 96   : 
; 97   : 		initialise_speech_data (a, o, SPEECH_WINGMAN_INTRODUCTION, 												SOUND_SAMPLE_INDEX_SPEECH_US_WINGMAN1_WING_01, SOUND_SAMPLE_INDEX_SPEECH_CIS_WINGMAN1_WING_01);

  0002f	68 2b 03 00 00	 push	 811			; 0000032bH
  00034	68 61 02 00 00	 push	 609			; 00000261H
  00039	6a 00		 push	 0
  0003b	8b 45 f8	 mov	 eax, DWORD PTR _o$[ebp]
  0003e	50		 push	 eax
  0003f	8b 4d fc	 mov	 ecx, DWORD PTR _a$[ebp]
  00042	51		 push	 ecx
  00043	e8 00 00 00 00	 call	 ?initialise_speech_data@@YGXW4speech_array_types@@W4speech_originator_types@@HHH@Z ; initialise_speech_data

; 98   : 		initialise_speech_data (a, o, SPEECH_WINGMAN_NEGATIVE, 													SOUND_SAMPLE_INDEX_SPEECH_US_WINGMAN1_WING_02, SOUND_SAMPLE_INDEX_SPEECH_CIS_WINGMAN1_WING_02);

  00048	68 2c 03 00 00	 push	 812			; 0000032cH
  0004d	68 62 02 00 00	 push	 610			; 00000262H
  00052	6a 01		 push	 1
  00054	8b 45 f8	 mov	 eax, DWORD PTR _o$[ebp]
  00057	50		 push	 eax
  00058	8b 4d fc	 mov	 ecx, DWORD PTR _a$[ebp]
  0005b	51		 push	 ecx
  0005c	e8 00 00 00 00	 call	 ?initialise_speech_data@@YGXW4speech_array_types@@W4speech_originator_types@@HHH@Z ; initialise_speech_data

; 99   : 		initialise_speech_data (a, o, SPEECH_WINGMAN_AFFIRMATIVE, 												SOUND_SAMPLE_INDEX_SPEECH_US_WINGMAN1_WING_03, SOUND_SAMPLE_INDEX_SPEECH_CIS_WINGMAN1_WING_03);

  00061	68 2d 03 00 00	 push	 813			; 0000032dH
  00066	68 63 02 00 00	 push	 611			; 00000263H
  0006b	6a 02		 push	 2
  0006d	8b 45 f8	 mov	 eax, DWORD PTR _o$[ebp]
  00070	50		 push	 eax
  00071	8b 4d fc	 mov	 ecx, DWORD PTR _a$[ebp]
  00074	51		 push	 ecx
  00075	e8 00 00 00 00	 call	 ?initialise_speech_data@@YGXW4speech_array_types@@W4speech_originator_types@@HHH@Z ; initialise_speech_data

; 100  : 		initialise_speech_data (a, o, SPEECH_WINGMAN_AT_GRID, 													SOUND_SAMPLE_INDEX_SPEECH_US_WINGMAN1_WING_04, SOUND_SAMPLE_INDEX_SPEECH_CIS_WINGMAN1_WING_04);

  0007a	68 2e 03 00 00	 push	 814			; 0000032eH
  0007f	68 64 02 00 00	 push	 612			; 00000264H
  00084	6a 03		 push	 3
  00086	8b 45 f8	 mov	 eax, DWORD PTR _o$[ebp]
  00089	50		 push	 eax
  0008a	8b 4d fc	 mov	 ecx, DWORD PTR _a$[ebp]
  0008d	51		 push	 ecx
  0008e	e8 00 00 00 00	 call	 ?initialise_speech_data@@YGXW4speech_array_types@@W4speech_originator_types@@HHH@Z ; initialise_speech_data

; 101  : 		initialise_speech_data (a, o, SPEECH_WINGMAN_TALLY_SPOT, 												SOUND_SAMPLE_INDEX_SPEECH_US_WINGMAN1_WING_05, SOUND_SAMPLE_INDEX_SPEECH_CIS_WINGMAN1_WING_05);

  00093	68 2f 03 00 00	 push	 815			; 0000032fH
  00098	68 65 02 00 00	 push	 613			; 00000265H
  0009d	6a 04		 push	 4
  0009f	8b 45 f8	 mov	 eax, DWORD PTR _o$[ebp]
  000a2	50		 push	 eax
  000a3	8b 4d fc	 mov	 ecx, DWORD PTR _a$[ebp]
  000a6	51		 push	 ecx
  000a7	e8 00 00 00 00	 call	 ?initialise_speech_data@@YGXW4speech_array_types@@W4speech_originator_types@@HHH@Z ; initialise_speech_data

; 102  : 		initialise_speech_data (a, o, SPEECH_WINGMAN_TARGET_LASED, 												SOUND_SAMPLE_INDEX_SPEECH_US_WINGMAN1_WING_06, SOUND_SAMPLE_INDEX_SPEECH_CIS_WINGMAN1_WING_06);

  000ac	68 30 03 00 00	 push	 816			; 00000330H
  000b1	68 66 02 00 00	 push	 614			; 00000266H
  000b6	6a 05		 push	 5
  000b8	8b 45 f8	 mov	 eax, DWORD PTR _o$[ebp]
  000bb	50		 push	 eax
  000bc	8b 4d fc	 mov	 ecx, DWORD PTR _a$[ebp]
  000bf	51		 push	 ecx
  000c0	e8 00 00 00 00	 call	 ?initialise_speech_data@@YGXW4speech_array_types@@W4speech_originator_types@@HHH@Z ; initialise_speech_data

; 103  : 		initialise_speech_data (a, o, SPEECH_WINGMAN_EXECUTE_SPOT, 												SOUND_SAMPLE_INDEX_SPEECH_US_WINGMAN1_WING_07, SOUND_SAMPLE_INDEX_SPEECH_CIS_WINGMAN1_WING_07);

  000c5	68 31 03 00 00	 push	 817			; 00000331H
  000ca	68 67 02 00 00	 push	 615			; 00000267H
  000cf	6a 06		 push	 6
  000d1	8b 45 f8	 mov	 eax, DWORD PTR _o$[ebp]
  000d4	50		 push	 eax
  000d5	8b 4d fc	 mov	 ecx, DWORD PTR _a$[ebp]
  000d8	51		 push	 ecx
  000d9	e8 00 00 00 00	 call	 ?initialise_speech_data@@YGXW4speech_array_types@@W4speech_originator_types@@HHH@Z ; initialise_speech_data

; 104  : 		initialise_speech_data (a, o, SPEECH_WINGMAN_SPOT_ON, 													SOUND_SAMPLE_INDEX_SPEECH_US_WINGMAN1_WING_08, SOUND_SAMPLE_INDEX_SPEECH_CIS_WINGMAN1_WING_08);

  000de	68 32 03 00 00	 push	 818			; 00000332H
  000e3	68 68 02 00 00	 push	 616			; 00000268H
  000e8	6a 07		 push	 7
  000ea	8b 45 f8	 mov	 eax, DWORD PTR _o$[ebp]
  000ed	50		 push	 eax
  000ee	8b 4d fc	 mov	 ecx, DWORD PTR _a$[ebp]
  000f1	51		 push	 ecx
  000f2	e8 00 00 00 00	 call	 ?initialise_speech_data@@YGXW4speech_array_types@@W4speech_originator_types@@HHH@Z ; initialise_speech_data

; 105  : 		initialise_speech_data (a, o, SPEECH_WINGMAN_APPROACHING_ENGAGEMENT_AREA, 							SOUND_SAMPLE_INDEX_SPEECH_US_WINGMAN1_WING_09, SOUND_SAMPLE_INDEX_SPEECH_CIS_WINGMAN1_WING_09);

  000f7	68 33 03 00 00	 push	 819			; 00000333H
  000fc	68 69 02 00 00	 push	 617			; 00000269H
  00101	6a 08		 push	 8
  00103	8b 45 f8	 mov	 eax, DWORD PTR _o$[ebp]
  00106	50		 push	 eax
  00107	8b 4d fc	 mov	 ecx, DWORD PTR _a$[ebp]
  0010a	51		 push	 ecx
  0010b	e8 00 00 00 00	 call	 ?initialise_speech_data@@YGXW4speech_array_types@@W4speech_originator_types@@HHH@Z ; initialise_speech_data

; 106  : 		initialise_speech_data (a, o, SPEECH_WINGMAN_APPROACHING_BATTLE_POSITION, 							SOUND_SAMPLE_INDEX_SPEECH_US_WINGMAN1_WING_10, SOUND_SAMPLE_INDEX_SPEECH_CIS_WINGMAN1_WING_10);

  00110	68 34 03 00 00	 push	 820			; 00000334H
  00115	68 6a 02 00 00	 push	 618			; 0000026aH
  0011a	6a 09		 push	 9
  0011c	8b 45 f8	 mov	 eax, DWORD PTR _o$[ebp]
  0011f	50		 push	 eax
  00120	8b 4d fc	 mov	 ecx, DWORD PTR _a$[ebp]
  00123	51		 push	 ecx
  00124	e8 00 00 00 00	 call	 ?initialise_speech_data@@YGXW4speech_array_types@@W4speech_originator_types@@HHH@Z ; initialise_speech_data

; 107  : 		initialise_speech_data (a, o, SPEECH_WINGMAN_APPROACHING_RP, 											SOUND_SAMPLE_INDEX_SPEECH_US_WINGMAN1_WING_11, SOUND_SAMPLE_INDEX_SPEECH_CIS_WINGMAN1_WING_11);

  00129	68 35 03 00 00	 push	 821			; 00000335H
  0012e	68 6b 02 00 00	 push	 619			; 0000026bH
  00133	6a 0a		 push	 10			; 0000000aH
  00135	8b 45 f8	 mov	 eax, DWORD PTR _o$[ebp]
  00138	50		 push	 eax
  00139	8b 4d fc	 mov	 ecx, DWORD PTR _a$[ebp]
  0013c	51		 push	 ecx
  0013d	e8 00 00 00 00	 call	 ?initialise_speech_data@@YGXW4speech_array_types@@W4speech_originator_types@@HHH@Z ; initialise_speech_data

; 108  : 		initialise_speech_data (a, o, SPEECH_WINGMAN_MISSION_COMPLETE1, 										SOUND_SAMPLE_INDEX_SPEECH_US_WINGMAN1_WING_12, SOUND_SAMPLE_INDEX_SPEECH_CIS_WINGMAN1_WING_12);

  00142	68 36 03 00 00	 push	 822			; 00000336H
  00147	68 6c 02 00 00	 push	 620			; 0000026cH
  0014c	6a 0b		 push	 11			; 0000000bH
  0014e	8b 45 f8	 mov	 eax, DWORD PTR _o$[ebp]
  00151	50		 push	 eax
  00152	8b 4d fc	 mov	 ecx, DWORD PTR _a$[ebp]
  00155	51		 push	 ecx
  00156	e8 00 00 00 00	 call	 ?initialise_speech_data@@YGXW4speech_array_types@@W4speech_originator_types@@HHH@Z ; initialise_speech_data

; 109  : 		initialise_speech_data (a, o, SPEECH_WINGMAN_MISSION_COMPLETE2, 										SOUND_SAMPLE_INDEX_SPEECH_US_WINGMAN1_WING_13, SOUND_SAMPLE_INDEX_SPEECH_CIS_WINGMAN1_WING_13);

  0015b	68 37 03 00 00	 push	 823			; 00000337H
  00160	68 6d 02 00 00	 push	 621			; 0000026dH
  00165	6a 0c		 push	 12			; 0000000cH
  00167	8b 45 f8	 mov	 eax, DWORD PTR _o$[ebp]
  0016a	50		 push	 eax
  0016b	8b 4d fc	 mov	 ecx, DWORD PTR _a$[ebp]
  0016e	51		 push	 ecx
  0016f	e8 00 00 00 00	 call	 ?initialise_speech_data@@YGXW4speech_array_types@@W4speech_originator_types@@HHH@Z ; initialise_speech_data

; 110  : 		initialise_speech_data (a, o, SPEECH_WINGMAN_INCOMING, 													SOUND_SAMPLE_INDEX_SPEECH_US_WINGMAN1_WING_14, SOUND_SAMPLE_INDEX_SPEECH_CIS_WINGMAN1_WING_14);

  00174	68 38 03 00 00	 push	 824			; 00000338H
  00179	68 6e 02 00 00	 push	 622			; 0000026eH
  0017e	6a 0d		 push	 13			; 0000000dH
  00180	8b 45 f8	 mov	 eax, DWORD PTR _o$[ebp]
  00183	50		 push	 eax
  00184	8b 4d fc	 mov	 ecx, DWORD PTR _a$[ebp]
  00187	51		 push	 ecx
  00188	e8 00 00 00 00	 call	 ?initialise_speech_data@@YGXW4speech_array_types@@W4speech_originator_types@@HHH@Z ; initialise_speech_data

; 111  : 		initialise_speech_data (a, o, SPEECH_WINGMAN_INCOMING_MISSILE, 										SOUND_SAMPLE_INDEX_SPEECH_US_WINGMAN1_WING_15, SOUND_SAMPLE_INDEX_SPEECH_CIS_WINGMAN1_WING_15);

  0018d	68 39 03 00 00	 push	 825			; 00000339H
  00192	68 6f 02 00 00	 push	 623			; 0000026fH
  00197	6a 0e		 push	 14			; 0000000eH
  00199	8b 45 f8	 mov	 eax, DWORD PTR _o$[ebp]
  0019c	50		 push	 eax
  0019d	8b 4d fc	 mov	 ecx, DWORD PTR _a$[ebp]
  001a0	51		 push	 ecx
  001a1	e8 00 00 00 00	 call	 ?initialise_speech_data@@YGXW4speech_array_types@@W4speech_originator_types@@HHH@Z ; initialise_speech_data

; 112  : 		initialise_speech_data (a, o, SPEECH_WINGMAN_TAKING_HITS, 												SOUND_SAMPLE_INDEX_SPEECH_US_WINGMAN1_WING_16, SOUND_SAMPLE_INDEX_SPEECH_CIS_WINGMAN1_WING_16);

  001a6	68 3a 03 00 00	 push	 826			; 0000033aH
  001ab	68 70 02 00 00	 push	 624			; 00000270H
  001b0	6a 0f		 push	 15			; 0000000fH
  001b2	8b 45 f8	 mov	 eax, DWORD PTR _o$[ebp]
  001b5	50		 push	 eax
  001b6	8b 4d fc	 mov	 ecx, DWORD PTR _a$[ebp]
  001b9	51		 push	 ecx
  001ba	e8 00 00 00 00	 call	 ?initialise_speech_data@@YGXW4speech_array_types@@W4speech_originator_types@@HHH@Z ; initialise_speech_data

; 113  : 		initialise_speech_data (a, o, SPEECH_WINGMAN_GOING_DOWN, 												SOUND_SAMPLE_INDEX_SPEECH_US_WINGMAN1_WING_17, SOUND_SAMPLE_INDEX_SPEECH_CIS_WINGMAN1_WING_17);

  001bf	68 3b 03 00 00	 push	 827			; 0000033bH
  001c4	68 71 02 00 00	 push	 625			; 00000271H
  001c9	6a 10		 push	 16			; 00000010H
  001cb	8b 45 f8	 mov	 eax, DWORD PTR _o$[ebp]
  001ce	50		 push	 eax
  001cf	8b 4d fc	 mov	 ecx, DWORD PTR _a$[ebp]
  001d2	51		 push	 ecx
  001d3	e8 00 00 00 00	 call	 ?initialise_speech_data@@YGXW4speech_array_types@@W4speech_originator_types@@HHH@Z ; initialise_speech_data

; 114  : 		initialise_speech_data (a, o, SPEECH_WINGMAN_TARGET_HIT, 												SOUND_SAMPLE_INDEX_SPEECH_US_WINGMAN1_WING_18, SOUND_SAMPLE_INDEX_SPEECH_CIS_WINGMAN1_WING_18);

  001d8	68 3c 03 00 00	 push	 828			; 0000033cH
  001dd	68 72 02 00 00	 push	 626			; 00000272H
  001e2	6a 11		 push	 17			; 00000011H
  001e4	8b 45 f8	 mov	 eax, DWORD PTR _o$[ebp]
  001e7	50		 push	 eax
  001e8	8b 4d fc	 mov	 ecx, DWORD PTR _a$[ebp]
  001eb	51		 push	 ecx
  001ec	e8 00 00 00 00	 call	 ?initialise_speech_data@@YGXW4speech_array_types@@W4speech_originator_types@@HHH@Z ; initialise_speech_data

; 115  : 		initialise_speech_data (a, o, SPEECH_WINGMAN_TARGET_MISSED, 											SOUND_SAMPLE_INDEX_SPEECH_US_WINGMAN1_WING_19, SOUND_SAMPLE_INDEX_SPEECH_CIS_WINGMAN1_WING_19);

  001f1	68 3d 03 00 00	 push	 829			; 0000033dH
  001f6	68 73 02 00 00	 push	 627			; 00000273H
  001fb	6a 12		 push	 18			; 00000012H
  001fd	8b 45 f8	 mov	 eax, DWORD PTR _o$[ebp]
  00200	50		 push	 eax
  00201	8b 4d fc	 mov	 ecx, DWORD PTR _a$[ebp]
  00204	51		 push	 ecx
  00205	e8 00 00 00 00	 call	 ?initialise_speech_data@@YGXW4speech_array_types@@W4speech_originator_types@@HHH@Z ; initialise_speech_data

; 116  : 		initialise_speech_data (a, o, SPEECH_WINGMAN_TARGET_DESTROYED, 										SOUND_SAMPLE_INDEX_SPEECH_US_WINGMAN1_WING_20, SOUND_SAMPLE_INDEX_SPEECH_CIS_WINGMAN1_WING_20);

  0020a	68 3e 03 00 00	 push	 830			; 0000033eH
  0020f	68 74 02 00 00	 push	 628			; 00000274H
  00214	6a 13		 push	 19			; 00000013H
  00216	8b 45 f8	 mov	 eax, DWORD PTR _o$[ebp]
  00219	50		 push	 eax
  0021a	8b 4d fc	 mov	 ecx, DWORD PTR _a$[ebp]
  0021d	51		 push	 ecx
  0021e	e8 00 00 00 00	 call	 ?initialise_speech_data@@YGXW4speech_array_types@@W4speech_originator_types@@HHH@Z ; initialise_speech_data

; 117  : 		initialise_speech_data (a, o, SPEECH_WINGMAN_BOBBING_UP, 												SOUND_SAMPLE_INDEX_SPEECH_US_WINGMAN1_WING_21, SOUND_SAMPLE_INDEX_SPEECH_CIS_WINGMAN1_WING_21);

  00223	68 3f 03 00 00	 push	 831			; 0000033fH
  00228	68 75 02 00 00	 push	 629			; 00000275H
  0022d	6a 14		 push	 20			; 00000014H
  0022f	8b 45 f8	 mov	 eax, DWORD PTR _o$[ebp]
  00232	50		 push	 eax
  00233	8b 4d fc	 mov	 ecx, DWORD PTR _a$[ebp]
  00236	51		 push	 ecx
  00237	e8 00 00 00 00	 call	 ?initialise_speech_data@@YGXW4speech_array_types@@W4speech_originator_types@@HHH@Z ; initialise_speech_data

; 118  : 		initialise_speech_data (a, o, SPEECH_WINGMAN_ENGAGING_TARGET, 											SOUND_SAMPLE_INDEX_SPEECH_US_WINGMAN1_WING_22, SOUND_SAMPLE_INDEX_SPEECH_CIS_WINGMAN1_WING_22);

  0023c	68 40 03 00 00	 push	 832			; 00000340H
  00241	68 76 02 00 00	 push	 630			; 00000276H
  00246	6a 15		 push	 21			; 00000015H
  00248	8b 45 f8	 mov	 eax, DWORD PTR _o$[ebp]
  0024b	50		 push	 eax
  0024c	8b 4d fc	 mov	 ecx, DWORD PTR _a$[ebp]
  0024f	51		 push	 ecx
  00250	e8 00 00 00 00	 call	 ?initialise_speech_data@@YGXW4speech_array_types@@W4speech_originator_types@@HHH@Z ; initialise_speech_data

; 119  : 		initialise_speech_data (a, o, SPEECH_WINGMAN_ROGER_MAINTAINING_POSITION, 							SOUND_SAMPLE_INDEX_SPEECH_US_WINGMAN1_WING_23, SOUND_SAMPLE_INDEX_SPEECH_CIS_WINGMAN1_WING_23);

  00255	68 41 03 00 00	 push	 833			; 00000341H
  0025a	68 77 02 00 00	 push	 631			; 00000277H
  0025f	6a 16		 push	 22			; 00000016H
  00261	8b 45 f8	 mov	 eax, DWORD PTR _o$[ebp]
  00264	50		 push	 eax
  00265	8b 4d fc	 mov	 ecx, DWORD PTR _a$[ebp]
  00268	51		 push	 ecx
  00269	e8 00 00 00 00	 call	 ?initialise_speech_data@@YGXW4speech_array_types@@W4speech_originator_types@@HHH@Z ; initialise_speech_data

; 120  : 		initialise_speech_data (a, o, SPEECH_WINGMAN_ROGER_REJOINING_FORMATION, 							SOUND_SAMPLE_INDEX_SPEECH_US_WINGMAN1_WING_24, SOUND_SAMPLE_INDEX_SPEECH_CIS_WINGMAN1_WING_24);

  0026e	68 42 03 00 00	 push	 834			; 00000342H
  00273	68 78 02 00 00	 push	 632			; 00000278H
  00278	6a 17		 push	 23			; 00000017H
  0027a	8b 45 f8	 mov	 eax, DWORD PTR _o$[ebp]
  0027d	50		 push	 eax
  0027e	8b 4d fc	 mov	 ecx, DWORD PTR _a$[ebp]
  00281	51		 push	 ecx
  00282	e8 00 00 00 00	 call	 ?initialise_speech_data@@YGXW4speech_array_types@@W4speech_originator_types@@HHH@Z ; initialise_speech_data

; 121  : 		initialise_speech_data (a, o, SPEECH_WINGMAN_ROGER_BOBBING_UP, 										SOUND_SAMPLE_INDEX_SPEECH_US_WINGMAN1_WING_25, SOUND_SAMPLE_INDEX_SPEECH_CIS_WINGMAN1_WING_25);

  00287	68 43 03 00 00	 push	 835			; 00000343H
  0028c	68 79 02 00 00	 push	 633			; 00000279H
  00291	6a 18		 push	 24			; 00000018H
  00293	8b 45 f8	 mov	 eax, DWORD PTR _o$[ebp]
  00296	50		 push	 eax
  00297	8b 4d fc	 mov	 ecx, DWORD PTR _a$[ebp]
  0029a	51		 push	 ecx
  0029b	e8 00 00 00 00	 call	 ?initialise_speech_data@@YGXW4speech_array_types@@W4speech_originator_types@@HHH@Z ; initialise_speech_data

; 122  : 		initialise_speech_data (a, o, SPEECH_WINGMAN_ROGER_RETURNING_TO_BASE, 								SOUND_SAMPLE_INDEX_SPEECH_US_WINGMAN1_WING_26, SOUND_SAMPLE_INDEX_SPEECH_CIS_WINGMAN1_WING_26);

  002a0	68 44 03 00 00	 push	 836			; 00000344H
  002a5	68 7a 02 00 00	 push	 634			; 0000027aH
  002aa	6a 19		 push	 25			; 00000019H
  002ac	8b 45 f8	 mov	 eax, DWORD PTR _o$[ebp]
  002af	50		 push	 eax
  002b0	8b 4d fc	 mov	 ecx, DWORD PTR _a$[ebp]
  002b3	51		 push	 ecx
  002b4	e8 00 00 00 00	 call	 ?initialise_speech_data@@YGXW4speech_array_types@@W4speech_originator_types@@HHH@Z ; initialise_speech_data

; 123  : 		initialise_speech_data (a, o, SPEECH_WINGMAN_ROGER_WEAPONS_HOLD, 										SOUND_SAMPLE_INDEX_SPEECH_US_WINGMAN1_WING_27, SOUND_SAMPLE_INDEX_SPEECH_CIS_WINGMAN1_WING_27);

  002b9	68 45 03 00 00	 push	 837			; 00000345H
  002be	68 7b 02 00 00	 push	 635			; 0000027bH
  002c3	6a 1a		 push	 26			; 0000001aH
  002c5	8b 45 f8	 mov	 eax, DWORD PTR _o$[ebp]
  002c8	50		 push	 eax
  002c9	8b 4d fc	 mov	 ecx, DWORD PTR _a$[ebp]
  002cc	51		 push	 ecx
  002cd	e8 00 00 00 00	 call	 ?initialise_speech_data@@YGXW4speech_array_types@@W4speech_originator_types@@HHH@Z ; initialise_speech_data

; 124  : 		initialise_speech_data (a, o, SPEECH_WINGMAN_ROGER_WEAPONS_FREE, 										SOUND_SAMPLE_INDEX_SPEECH_US_WINGMAN1_WING_28, SOUND_SAMPLE_INDEX_SPEECH_CIS_WINGMAN1_WING_28);

  002d2	68 46 03 00 00	 push	 838			; 00000346H
  002d7	68 7c 02 00 00	 push	 636			; 0000027cH
  002dc	6a 1b		 push	 27			; 0000001bH
  002de	8b 45 f8	 mov	 eax, DWORD PTR _o$[ebp]
  002e1	50		 push	 eax
  002e2	8b 4d fc	 mov	 ecx, DWORD PTR _a$[ebp]
  002e5	51		 push	 ecx
  002e6	e8 00 00 00 00	 call	 ?initialise_speech_data@@YGXW4speech_array_types@@W4speech_originator_types@@HHH@Z ; initialise_speech_data

; 125  : 		initialise_speech_data (a, o, SPEECH_WINGMAN_ROGER_ENGAGING_TARGET, 									SOUND_SAMPLE_INDEX_SPEECH_US_WINGMAN1_WING_29, SOUND_SAMPLE_INDEX_SPEECH_CIS_WINGMAN1_WING_29);

  002eb	68 47 03 00 00	 push	 839			; 00000347H
  002f0	68 7d 02 00 00	 push	 637			; 0000027dH
  002f5	6a 1c		 push	 28			; 0000001cH
  002f7	8b 45 f8	 mov	 eax, DWORD PTR _o$[ebp]
  002fa	50		 push	 eax
  002fb	8b 4d fc	 mov	 ecx, DWORD PTR _a$[ebp]
  002fe	51		 push	 ecx
  002ff	e8 00 00 00 00	 call	 ?initialise_speech_data@@YGXW4speech_array_types@@W4speech_originator_types@@HHH@Z ; initialise_speech_data

; 126  : 		initialise_speech_data (a, o, SPEECH_WINGMAN_ROGER_COMING_TO_ASSIST, 								SOUND_SAMPLE_INDEX_SPEECH_US_WINGMAN1_WING_30, SOUND_SAMPLE_INDEX_SPEECH_CIS_WINGMAN1_WING_30);

  00304	68 48 03 00 00	 push	 840			; 00000348H
  00309	68 7e 02 00 00	 push	 638			; 0000027eH
  0030e	6a 1d		 push	 29			; 0000001dH
  00310	8b 45 f8	 mov	 eax, DWORD PTR _o$[ebp]
  00313	50		 push	 eax
  00314	8b 4d fc	 mov	 ecx, DWORD PTR _a$[ebp]
  00317	51		 push	 ecx
  00318	e8 00 00 00 00	 call	 ?initialise_speech_data@@YGXW4speech_array_types@@W4speech_originator_types@@HHH@Z ; initialise_speech_data

; 127  : 		initialise_speech_data (a, o, SPEECH_WINGMAN_ROGER_MOVING_INTO_ORDERED_POSITION, 				SOUND_SAMPLE_INDEX_SPEECH_US_WINGMAN1_WING_31, SOUND_SAMPLE_INDEX_SPEECH_CIS_WINGMAN1_WING_31);

  0031d	68 49 03 00 00	 push	 841			; 00000349H
  00322	68 7f 02 00 00	 push	 639			; 0000027fH
  00327	6a 1e		 push	 30			; 0000001eH
  00329	8b 45 f8	 mov	 eax, DWORD PTR _o$[ebp]
  0032c	50		 push	 eax
  0032d	8b 4d fc	 mov	 ecx, DWORD PTR _a$[ebp]
  00330	51		 push	 ecx
  00331	e8 00 00 00 00	 call	 ?initialise_speech_data@@YGXW4speech_array_types@@W4speech_originator_types@@HHH@Z ; initialise_speech_data

; 128  : 		initialise_speech_data (a, o, SPEECH_WINGMAN_WE_HAVE, 													SOUND_SAMPLE_INDEX_SPEECH_US_WINGMAN1_WING_32, SOUND_SAMPLE_INDEX_SPEECH_CIS_WINGMAN1_WING_32);

  00336	68 4a 03 00 00	 push	 842			; 0000034aH
  0033b	68 80 02 00 00	 push	 640			; 00000280H
  00340	6a 1f		 push	 31			; 0000001fH
  00342	8b 45 f8	 mov	 eax, DWORD PTR _o$[ebp]
  00345	50		 push	 eax
  00346	8b 4d fc	 mov	 ecx, DWORD PTR _a$[ebp]
  00349	51		 push	 ecx
  0034a	e8 00 00 00 00	 call	 ?initialise_speech_data@@YGXW4speech_array_types@@W4speech_originator_types@@HHH@Z ; initialise_speech_data

; 129  : 		initialise_speech_data (a, o, SPEECH_WINGMAN_AIR_TO_GROUND_MISSILES, 								SOUND_SAMPLE_INDEX_SPEECH_US_WINGMAN1_WING_33, SOUND_SAMPLE_INDEX_SPEECH_CIS_WINGMAN1_WING_33);

  0034f	68 4b 03 00 00	 push	 843			; 0000034bH
  00354	68 81 02 00 00	 push	 641			; 00000281H
  00359	6a 20		 push	 32			; 00000020H
  0035b	8b 45 f8	 mov	 eax, DWORD PTR _o$[ebp]
  0035e	50		 push	 eax
  0035f	8b 4d fc	 mov	 ecx, DWORD PTR _a$[ebp]
  00362	51		 push	 ecx
  00363	e8 00 00 00 00	 call	 ?initialise_speech_data@@YGXW4speech_array_types@@W4speech_originator_types@@HHH@Z ; initialise_speech_data

; 130  : 		initialise_speech_data (a, o, SPEECH_WINGMAN_AIR_TO_AIR_MISSILES, 									SOUND_SAMPLE_INDEX_SPEECH_US_WINGMAN1_WING_34, SOUND_SAMPLE_INDEX_SPEECH_CIS_WINGMAN1_WING_34);

  00368	68 4c 03 00 00	 push	 844			; 0000034cH
  0036d	68 82 02 00 00	 push	 642			; 00000282H
  00372	6a 21		 push	 33			; 00000021H
  00374	8b 45 f8	 mov	 eax, DWORD PTR _o$[ebp]
  00377	50		 push	 eax
  00378	8b 4d fc	 mov	 ecx, DWORD PTR _a$[ebp]
  0037b	51		 push	 ecx
  0037c	e8 00 00 00 00	 call	 ?initialise_speech_data@@YGXW4speech_array_types@@W4speech_originator_types@@HHH@Z ; initialise_speech_data

; 131  : 		initialise_speech_data (a, o, SPEECH_WINGMAN_PERCENT, 													SOUND_SAMPLE_INDEX_SPEECH_US_WINGMAN1_WING_35, SOUND_SAMPLE_INDEX_SPEECH_CIS_WINGMAN1_WING_35);

  00381	68 4d 03 00 00	 push	 845			; 0000034dH
  00386	68 83 02 00 00	 push	 643			; 00000283H
  0038b	6a 22		 push	 34			; 00000022H
  0038d	8b 45 f8	 mov	 eax, DWORD PTR _o$[ebp]
  00390	50		 push	 eax
  00391	8b 4d fc	 mov	 ecx, DWORD PTR _a$[ebp]
  00394	51		 push	 ecx
  00395	e8 00 00 00 00	 call	 ?initialise_speech_data@@YGXW4speech_array_types@@W4speech_originator_types@@HHH@Z ; initialise_speech_data

; 132  : 		initialise_speech_data (a, o, SPEECH_WINGMAN_ROCKETS, 													SOUND_SAMPLE_INDEX_SPEECH_US_WINGMAN1_WING_36, SOUND_SAMPLE_INDEX_SPEECH_CIS_WINGMAN1_WING_36);

  0039a	68 4e 03 00 00	 push	 846			; 0000034eH
  0039f	68 84 02 00 00	 push	 644			; 00000284H
  003a4	6a 23		 push	 35			; 00000023H
  003a6	8b 45 f8	 mov	 eax, DWORD PTR _o$[ebp]
  003a9	50		 push	 eax
  003aa	8b 4d fc	 mov	 ecx, DWORD PTR _a$[ebp]
  003ad	51		 push	 ecx
  003ae	e8 00 00 00 00	 call	 ?initialise_speech_data@@YGXW4speech_array_types@@W4speech_originator_types@@HHH@Z ; initialise_speech_data

; 133  : 		initialise_speech_data (a, o, SPEECH_WINGMAN_CANNON_AMMO, 												SOUND_SAMPLE_INDEX_SPEECH_US_WINGMAN1_WING_37, SOUND_SAMPLE_INDEX_SPEECH_CIS_WINGMAN1_WING_37);

  003b3	68 4f 03 00 00	 push	 847			; 0000034fH
  003b8	68 85 02 00 00	 push	 645			; 00000285H
  003bd	6a 24		 push	 36			; 00000024H
  003bf	8b 45 f8	 mov	 eax, DWORD PTR _o$[ebp]
  003c2	50		 push	 eax
  003c3	8b 4d fc	 mov	 ecx, DWORD PTR _a$[ebp]
  003c6	51		 push	 ecx
  003c7	e8 00 00 00 00	 call	 ?initialise_speech_data@@YGXW4speech_array_types@@W4speech_originator_types@@HHH@Z ; initialise_speech_data

; 134  : 		initialise_speech_data (a, o, SPEECH_WINGMAN_FULLY_MISSION_CAPABLE, 									SOUND_SAMPLE_INDEX_SPEECH_US_WINGMAN1_WING_38, SOUND_SAMPLE_INDEX_SPEECH_CIS_WINGMAN1_WING_38);

  003cc	68 50 03 00 00	 push	 848			; 00000350H
  003d1	68 86 02 00 00	 push	 646			; 00000286H
  003d6	6a 25		 push	 37			; 00000025H
  003d8	8b 45 f8	 mov	 eax, DWORD PTR _o$[ebp]
  003db	50		 push	 eax
  003dc	8b 4d fc	 mov	 ecx, DWORD PTR _a$[ebp]
  003df	51		 push	 ecx
  003e0	e8 00 00 00 00	 call	 ?initialise_speech_data@@YGXW4speech_array_types@@W4speech_originator_types@@HHH@Z ; initialise_speech_data

; 135  : 		initialise_speech_data (a, o, SPEECH_WINGMAN_MINOR_DAMAGE, 												SOUND_SAMPLE_INDEX_SPEECH_US_WINGMAN1_WING_39, SOUND_SAMPLE_INDEX_SPEECH_CIS_WINGMAN1_WING_39);

  003e5	68 51 03 00 00	 push	 849			; 00000351H
  003ea	68 87 02 00 00	 push	 647			; 00000287H
  003ef	6a 26		 push	 38			; 00000026H
  003f1	8b 45 f8	 mov	 eax, DWORD PTR _o$[ebp]
  003f4	50		 push	 eax
  003f5	8b 4d fc	 mov	 ecx, DWORD PTR _a$[ebp]
  003f8	51		 push	 ecx
  003f9	e8 00 00 00 00	 call	 ?initialise_speech_data@@YGXW4speech_array_types@@W4speech_originator_types@@HHH@Z ; initialise_speech_data

; 136  : 		initialise_speech_data (a, o, SPEECH_WINGMAN_SOME_DAMAGE, 												SOUND_SAMPLE_INDEX_SPEECH_US_WINGMAN1_WING_40, SOUND_SAMPLE_INDEX_SPEECH_CIS_WINGMAN1_WING_40);

  003fe	68 52 03 00 00	 push	 850			; 00000352H
  00403	68 88 02 00 00	 push	 648			; 00000288H
  00408	6a 27		 push	 39			; 00000027H
  0040a	8b 45 f8	 mov	 eax, DWORD PTR _o$[ebp]
  0040d	50		 push	 eax
  0040e	8b 4d fc	 mov	 ecx, DWORD PTR _a$[ebp]
  00411	51		 push	 ecx
  00412	e8 00 00 00 00	 call	 ?initialise_speech_data@@YGXW4speech_array_types@@W4speech_originator_types@@HHH@Z ; initialise_speech_data

; 137  : 		initialise_speech_data (a, o, SPEECH_WINGMAN_MAJOR_DAMAGE, 												SOUND_SAMPLE_INDEX_SPEECH_US_WINGMAN1_WING_41, SOUND_SAMPLE_INDEX_SPEECH_CIS_WINGMAN1_WING_41);

  00417	68 53 03 00 00	 push	 851			; 00000353H
  0041c	68 89 02 00 00	 push	 649			; 00000289H
  00421	6a 28		 push	 40			; 00000028H
  00423	8b 45 f8	 mov	 eax, DWORD PTR _o$[ebp]
  00426	50		 push	 eax
  00427	8b 4d fc	 mov	 ecx, DWORD PTR _a$[ebp]
  0042a	51		 push	 ecx
  0042b	e8 00 00 00 00	 call	 ?initialise_speech_data@@YGXW4speech_array_types@@W4speech_originator_types@@HHH@Z ; initialise_speech_data

; 138  : 		initialise_speech_data (a, o, SPEECH_WINGMAN_LAUNCHING_MISSILE, 										SOUND_SAMPLE_INDEX_SPEECH_US_WINGMAN1_WING_42, SOUND_SAMPLE_INDEX_SPEECH_CIS_WINGMAN1_WING_42);

  00430	68 54 03 00 00	 push	 852			; 00000354H
  00435	68 8a 02 00 00	 push	 650			; 0000028aH
  0043a	6a 29		 push	 41			; 00000029H
  0043c	8b 45 f8	 mov	 eax, DWORD PTR _o$[ebp]
  0043f	50		 push	 eax
  00440	8b 4d fc	 mov	 ecx, DWORD PTR _a$[ebp]
  00443	51		 push	 ecx
  00444	e8 00 00 00 00	 call	 ?initialise_speech_data@@YGXW4speech_array_types@@W4speech_originator_types@@HHH@Z ; initialise_speech_data

; 139  : 		initialise_speech_data (a, o, SPEECH_WINGMAN_MISSILE_AWAY, 												SOUND_SAMPLE_INDEX_SPEECH_US_WINGMAN1_WING_43, SOUND_SAMPLE_INDEX_SPEECH_CIS_WINGMAN1_WING_43);

  00449	68 55 03 00 00	 push	 853			; 00000355H
  0044e	68 8b 02 00 00	 push	 651			; 0000028bH
  00453	6a 2a		 push	 42			; 0000002aH
  00455	8b 45 f8	 mov	 eax, DWORD PTR _o$[ebp]
  00458	50		 push	 eax
  00459	8b 4d fc	 mov	 ecx, DWORD PTR _a$[ebp]
  0045c	51		 push	 ecx
  0045d	e8 00 00 00 00	 call	 ?initialise_speech_data@@YGXW4speech_array_types@@W4speech_originator_types@@HHH@Z ; initialise_speech_data

; 140  : 		initialise_speech_data (a, o, SPEECH_WINGMAN_FIRING_ROCKETS, 											SOUND_SAMPLE_INDEX_SPEECH_US_WINGMAN1_WING_44, SOUND_SAMPLE_INDEX_SPEECH_CIS_WINGMAN1_WING_44);

  00462	68 56 03 00 00	 push	 854			; 00000356H
  00467	68 8c 02 00 00	 push	 652			; 0000028cH
  0046c	6a 2b		 push	 43			; 0000002bH
  0046e	8b 45 f8	 mov	 eax, DWORD PTR _o$[ebp]
  00471	50		 push	 eax
  00472	8b 4d fc	 mov	 ecx, DWORD PTR _a$[ebp]
  00475	51		 push	 ecx
  00476	e8 00 00 00 00	 call	 ?initialise_speech_data@@YGXW4speech_array_types@@W4speech_originator_types@@HHH@Z ; initialise_speech_data

; 141  : 		initialise_speech_data (a, o, SPEECH_WINGMAN_ROCKETS_AWAY, 												SOUND_SAMPLE_INDEX_SPEECH_US_WINGMAN1_WING_45, SOUND_SAMPLE_INDEX_SPEECH_CIS_WINGMAN1_WING_45);

  0047b	68 57 03 00 00	 push	 855			; 00000357H
  00480	68 8d 02 00 00	 push	 653			; 0000028dH
  00485	6a 2c		 push	 44			; 0000002cH
  00487	8b 45 f8	 mov	 eax, DWORD PTR _o$[ebp]
  0048a	50		 push	 eax
  0048b	8b 4d fc	 mov	 ecx, DWORD PTR _a$[ebp]
  0048e	51		 push	 ecx
  0048f	e8 00 00 00 00	 call	 ?initialise_speech_data@@YGXW4speech_array_types@@W4speech_originator_types@@HHH@Z ; initialise_speech_data

; 142  : 		initialise_speech_data (a, o, SPEECH_WINGMAN_FIRING_CANNON, 											SOUND_SAMPLE_INDEX_SPEECH_US_WINGMAN1_WING_46, SOUND_SAMPLE_INDEX_SPEECH_CIS_WINGMAN1_WING_46);

  00494	68 58 03 00 00	 push	 856			; 00000358H
  00499	68 8e 02 00 00	 push	 654			; 0000028eH
  0049e	6a 2d		 push	 45			; 0000002dH
  004a0	8b 45 f8	 mov	 eax, DWORD PTR _o$[ebp]
  004a3	50		 push	 eax
  004a4	8b 4d fc	 mov	 ecx, DWORD PTR _a$[ebp]
  004a7	51		 push	 ecx
  004a8	e8 00 00 00 00	 call	 ?initialise_speech_data@@YGXW4speech_array_types@@W4speech_originator_types@@HHH@Z ; initialise_speech_data

; 143  : 		initialise_speech_data (a, o, SPEECH_WINGMAN_ENGAGING_WITH_CANNON, 									SOUND_SAMPLE_INDEX_SPEECH_US_WINGMAN1_WING_47, SOUND_SAMPLE_INDEX_SPEECH_CIS_WINGMAN1_WING_47);

  004ad	68 59 03 00 00	 push	 857			; 00000359H
  004b2	68 8f 02 00 00	 push	 655			; 0000028fH
  004b7	6a 2e		 push	 46			; 0000002eH
  004b9	8b 45 f8	 mov	 eax, DWORD PTR _o$[ebp]
  004bc	50		 push	 eax
  004bd	8b 4d fc	 mov	 ecx, DWORD PTR _a$[ebp]
  004c0	51		 push	 ecx
  004c1	e8 00 00 00 00	 call	 ?initialise_speech_data@@YGXW4speech_array_types@@W4speech_originator_types@@HHH@Z ; initialise_speech_data

; 144  : 		initialise_speech_data (a, o, SPEECH_WINGMAN_ACKNOWLEDGE, 												SOUND_SAMPLE_INDEX_SPEECH_US_WINGMAN1_WING_48, SOUND_SAMPLE_INDEX_SPEECH_CIS_WINGMAN1_WING_48);

  004c6	68 5a 03 00 00	 push	 858			; 0000035aH
  004cb	68 90 02 00 00	 push	 656			; 00000290H
  004d0	6a 2f		 push	 47			; 0000002fH
  004d2	8b 45 f8	 mov	 eax, DWORD PTR _o$[ebp]
  004d5	50		 push	 eax
  004d6	8b 4d fc	 mov	 ecx, DWORD PTR _a$[ebp]
  004d9	51		 push	 ecx
  004da	e8 00 00 00 00	 call	 ?initialise_speech_data@@YGXW4speech_array_types@@W4speech_originator_types@@HHH@Z ; initialise_speech_data

; 145  : 		initialise_speech_data (a, o, SPEECH_WINGMAN_UNABLE_TO_COMPLY, 										SOUND_SAMPLE_INDEX_SPEECH_US_WINGMAN1_WING_49, SOUND_SAMPLE_INDEX_SPEECH_CIS_WINGMAN1_WING_49);

  004df	68 5b 03 00 00	 push	 859			; 0000035bH
  004e4	68 91 02 00 00	 push	 657			; 00000291H
  004e9	6a 30		 push	 48			; 00000030H
  004eb	8b 45 f8	 mov	 eax, DWORD PTR _o$[ebp]
  004ee	50		 push	 eax
  004ef	8b 4d fc	 mov	 ecx, DWORD PTR _a$[ebp]
  004f2	51		 push	 ecx
  004f3	e8 00 00 00 00	 call	 ?initialise_speech_data@@YGXW4speech_array_types@@W4speech_originator_types@@HHH@Z ; initialise_speech_data

; 146  : 		initialise_speech_data (a, o, SPEECH_WINGMAN_REQUEST_PERMISSION_TO_LAND, 							SOUND_SAMPLE_INDEX_SPEECH_US_WINGMAN1_WING_50, SOUND_SAMPLE_INDEX_SPEECH_CIS_WINGMAN1_WING_50);

  004f8	68 5c 03 00 00	 push	 860			; 0000035cH
  004fd	68 92 02 00 00	 push	 658			; 00000292H
  00502	6a 31		 push	 49			; 00000031H
  00504	8b 45 f8	 mov	 eax, DWORD PTR _o$[ebp]
  00507	50		 push	 eax
  00508	8b 4d fc	 mov	 ecx, DWORD PTR _a$[ebp]
  0050b	51		 push	 ecx
  0050c	e8 00 00 00 00	 call	 ?initialise_speech_data@@YGXW4speech_array_types@@W4speech_originator_types@@HHH@Z ; initialise_speech_data

; 147  : 		initialise_speech_data (a, o, SPEECH_WINGMAN_REQUEST_PERMISSION_TO_TAKEOFF, 						SOUND_SAMPLE_INDEX_SPEECH_US_WINGMAN1_WING_51, SOUND_SAMPLE_INDEX_SPEECH_CIS_WINGMAN1_WING_51);

  00511	68 5d 03 00 00	 push	 861			; 0000035dH
  00516	68 93 02 00 00	 push	 659			; 00000293H
  0051b	6a 32		 push	 50			; 00000032H
  0051d	8b 45 f8	 mov	 eax, DWORD PTR _o$[ebp]
  00520	50		 push	 eax
  00521	8b 4d fc	 mov	 ecx, DWORD PTR _a$[ebp]
  00524	51		 push	 ecx
  00525	e8 00 00 00 00	 call	 ?initialise_speech_data@@YGXW4speech_array_types@@W4speech_originator_types@@HHH@Z ; initialise_speech_data

; 148  : 		initialise_speech_data (a, o, SPEECH_WINGMAN_TRANSMITTING_RECON_DATA, 								SOUND_SAMPLE_INDEX_SPEECH_US_WINGMAN1_WING_52, SOUND_SAMPLE_INDEX_SPEECH_CIS_WINGMAN1_WING_52);

  0052a	68 5e 03 00 00	 push	 862			; 0000035eH
  0052f	68 94 02 00 00	 push	 660			; 00000294H
  00534	6a 33		 push	 51			; 00000033H
  00536	8b 45 f8	 mov	 eax, DWORD PTR _o$[ebp]
  00539	50		 push	 eax
  0053a	8b 4d fc	 mov	 ecx, DWORD PTR _a$[ebp]
  0053d	51		 push	 ecx
  0053e	e8 00 00 00 00	 call	 ?initialise_speech_data@@YGXW4speech_array_types@@W4speech_originator_types@@HHH@Z ; initialise_speech_data

; 149  : 		initialise_speech_data (a, o, SPEECH_WINGMAN_SEEKING_COVER, 											SOUND_SAMPLE_INDEX_SPEECH_US_WINGMAN1_WING_53, SOUND_SAMPLE_INDEX_SPEECH_CIS_WINGMAN1_WING_53);

  00543	68 5f 03 00 00	 push	 863			; 0000035fH
  00548	68 95 02 00 00	 push	 661			; 00000295H
  0054d	6a 34		 push	 52			; 00000034H
  0054f	8b 45 f8	 mov	 eax, DWORD PTR _o$[ebp]
  00552	50		 push	 eax
  00553	8b 4d fc	 mov	 ecx, DWORD PTR _a$[ebp]
  00556	51		 push	 ecx
  00557	e8 00 00 00 00	 call	 ?initialise_speech_data@@YGXW4speech_array_types@@W4speech_originator_types@@HHH@Z ; initialise_speech_data

; 150  : 		initialise_speech_data (a, o, SPEECH_WINGMAN_FLYING_TO_COVER, 											SOUND_SAMPLE_INDEX_SPEECH_US_WINGMAN1_WING_54, SOUND_SAMPLE_INDEX_SPEECH_CIS_WINGMAN1_WING_54);

  0055c	68 60 03 00 00	 push	 864			; 00000360H
  00561	68 96 02 00 00	 push	 662			; 00000296H
  00566	6a 35		 push	 53			; 00000035H
  00568	8b 45 f8	 mov	 eax, DWORD PTR _o$[ebp]
  0056b	50		 push	 eax
  0056c	8b 4d fc	 mov	 ecx, DWORD PTR _a$[ebp]
  0056f	51		 push	 ecx
  00570	e8 00 00 00 00	 call	 ?initialise_speech_data@@YGXW4speech_array_types@@W4speech_originator_types@@HHH@Z ; initialise_speech_data

; 151  : 		initialise_speech_data (a, o, SPEECH_WINGMAN_IN_POSITION, 												SOUND_SAMPLE_INDEX_SPEECH_US_WINGMAN1_WING_55, SOUND_SAMPLE_INDEX_SPEECH_CIS_WINGMAN1_WING_55);

  00575	68 61 03 00 00	 push	 865			; 00000361H
  0057a	68 97 02 00 00	 push	 663			; 00000297H
  0057f	6a 36		 push	 54			; 00000036H
  00581	8b 45 f8	 mov	 eax, DWORD PTR _o$[ebp]
  00584	50		 push	 eax
  00585	8b 4d fc	 mov	 ecx, DWORD PTR _a$[ebp]
  00588	51		 push	 ecx
  00589	e8 00 00 00 00	 call	 ?initialise_speech_data@@YGXW4speech_array_types@@W4speech_originator_types@@HHH@Z ; initialise_speech_data

; 152  : 		initialise_speech_data (a, o, SPEECH_WINGMAN_UNDER_ATTACK_AIRCRAFT, 									SOUND_SAMPLE_INDEX_SPEECH_US_WINGMAN1_WING_56, SOUND_SAMPLE_INDEX_SPEECH_CIS_WINGMAN1_WING_56);

  0058e	68 62 03 00 00	 push	 866			; 00000362H
  00593	68 98 02 00 00	 push	 664			; 00000298H
  00598	6a 37		 push	 55			; 00000037H
  0059a	8b 45 f8	 mov	 eax, DWORD PTR _o$[ebp]
  0059d	50		 push	 eax
  0059e	8b 4d fc	 mov	 ecx, DWORD PTR _a$[ebp]
  005a1	51		 push	 ecx
  005a2	e8 00 00 00 00	 call	 ?initialise_speech_data@@YGXW4speech_array_types@@W4speech_originator_types@@HHH@Z ; initialise_speech_data

; 153  : 		initialise_speech_data (a, o, SPEECH_WINGMAN_UNDER_ATTACK_ARMOUR, 									SOUND_SAMPLE_INDEX_SPEECH_US_WINGMAN1_WING_57, SOUND_SAMPLE_INDEX_SPEECH_CIS_WINGMAN1_WING_57);

  005a7	68 63 03 00 00	 push	 867			; 00000363H
  005ac	68 99 02 00 00	 push	 665			; 00000299H
  005b1	6a 38		 push	 56			; 00000038H
  005b3	8b 45 f8	 mov	 eax, DWORD PTR _o$[ebp]
  005b6	50		 push	 eax
  005b7	8b 4d fc	 mov	 ecx, DWORD PTR _a$[ebp]
  005ba	51		 push	 ecx
  005bb	e8 00 00 00 00	 call	 ?initialise_speech_data@@YGXW4speech_array_types@@W4speech_originator_types@@HHH@Z ; initialise_speech_data

; 154  : 		initialise_speech_data (a, o, SPEECH_WINGMAN_REQUEST_ASSISTANCE, 										SOUND_SAMPLE_INDEX_SPEECH_US_WINGMAN1_WING_58, SOUND_SAMPLE_INDEX_SPEECH_CIS_WINGMAN1_WING_58);

  005c0	68 64 03 00 00	 push	 868			; 00000364H
  005c5	68 9a 02 00 00	 push	 666			; 0000029aH
  005ca	6a 39		 push	 57			; 00000039H
  005cc	8b 45 f8	 mov	 eax, DWORD PTR _o$[ebp]
  005cf	50		 push	 eax
  005d0	8b 4d fc	 mov	 ecx, DWORD PTR _a$[ebp]
  005d3	51		 push	 ecx
  005d4	e8 00 00 00 00	 call	 ?initialise_speech_data@@YGXW4speech_array_types@@W4speech_originator_types@@HHH@Z ; initialise_speech_data

; 155  : 
; 156  : 		#endif
; 157  : 	}
; 158  : 
; 159  : 	{	
; 160  : 		o = SPEECH_ORIGINATOR_WINGMAN2;

  005d9	c7 45 f8 03 00
	00 00		 mov	 DWORD PTR _o$[ebp], 3

; 161  : 		
; 162  : 		initialise_sample_index_array (a, o, max_items);

  005e0	8b 45 f4	 mov	 eax, DWORD PTR _max_items$[ebp]
  005e3	50		 push	 eax
  005e4	8b 4d f8	 mov	 ecx, DWORD PTR _o$[ebp]
  005e7	51		 push	 ecx
  005e8	8b 55 fc	 mov	 edx, DWORD PTR _a$[ebp]
  005eb	52		 push	 edx
  005ec	e8 00 00 00 00	 call	 ?initialise_sample_index_array@@YGXW4speech_array_types@@W4speech_originator_types@@H@Z ; initialise_sample_index_array

; 163  : 
; 164  : 		#if !DEMO_VERSION
; 165  : 
; 166  : 		initialise_speech_data (a, o, SPEECH_WINGMAN_INTRODUCTION, 												SOUND_SAMPLE_INDEX_SPEECH_US_WINGMAN2_WING_01, SOUND_SAMPLE_INDEX_SPEECH_CIS_WINGMAN2_WING_01);

  005f1	68 bf 04 00 00	 push	 1215			; 000004bfH
  005f6	68 f5 03 00 00	 push	 1013			; 000003f5H
  005fb	6a 00		 push	 0
  005fd	8b 45 f8	 mov	 eax, DWORD PTR _o$[ebp]
  00600	50		 push	 eax
  00601	8b 4d fc	 mov	 ecx, DWORD PTR _a$[ebp]
  00604	51		 push	 ecx
  00605	e8 00 00 00 00	 call	 ?initialise_speech_data@@YGXW4speech_array_types@@W4speech_originator_types@@HHH@Z ; initialise_speech_data

; 167  : 		initialise_speech_data (a, o, SPEECH_WINGMAN_NEGATIVE, 													SOUND_SAMPLE_INDEX_SPEECH_US_WINGMAN2_WING_02, SOUND_SAMPLE_INDEX_SPEECH_CIS_WINGMAN2_WING_02);

  0060a	68 c0 04 00 00	 push	 1216			; 000004c0H
  0060f	68 f6 03 00 00	 push	 1014			; 000003f6H
  00614	6a 01		 push	 1
  00616	8b 45 f8	 mov	 eax, DWORD PTR _o$[ebp]
  00619	50		 push	 eax
  0061a	8b 4d fc	 mov	 ecx, DWORD PTR _a$[ebp]
  0061d	51		 push	 ecx
  0061e	e8 00 00 00 00	 call	 ?initialise_speech_data@@YGXW4speech_array_types@@W4speech_originator_types@@HHH@Z ; initialise_speech_data

; 168  : 		initialise_speech_data (a, o, SPEECH_WINGMAN_AFFIRMATIVE, 												SOUND_SAMPLE_INDEX_SPEECH_US_WINGMAN2_WING_03, SOUND_SAMPLE_INDEX_SPEECH_CIS_WINGMAN2_WING_03);

  00623	68 c1 04 00 00	 push	 1217			; 000004c1H
  00628	68 f7 03 00 00	 push	 1015			; 000003f7H
  0062d	6a 02		 push	 2
  0062f	8b 45 f8	 mov	 eax, DWORD PTR _o$[ebp]
  00632	50		 push	 eax
  00633	8b 4d fc	 mov	 ecx, DWORD PTR _a$[ebp]
  00636	51		 push	 ecx
  00637	e8 00 00 00 00	 call	 ?initialise_speech_data@@YGXW4speech_array_types@@W4speech_originator_types@@HHH@Z ; initialise_speech_data

; 169  : 		initialise_speech_data (a, o, SPEECH_WINGMAN_AT_GRID, 													SOUND_SAMPLE_INDEX_SPEECH_US_WINGMAN2_WING_04, SOUND_SAMPLE_INDEX_SPEECH_CIS_WINGMAN2_WING_04);

  0063c	68 c2 04 00 00	 push	 1218			; 000004c2H
  00641	68 f8 03 00 00	 push	 1016			; 000003f8H
  00646	6a 03		 push	 3
  00648	8b 45 f8	 mov	 eax, DWORD PTR _o$[ebp]
  0064b	50		 push	 eax
  0064c	8b 4d fc	 mov	 ecx, DWORD PTR _a$[ebp]
  0064f	51		 push	 ecx
  00650	e8 00 00 00 00	 call	 ?initialise_speech_data@@YGXW4speech_array_types@@W4speech_originator_types@@HHH@Z ; initialise_speech_data

; 170  : 		initialise_speech_data (a, o, SPEECH_WINGMAN_TALLY_SPOT, 												SOUND_SAMPLE_INDEX_SPEECH_US_WINGMAN2_WING_05, SOUND_SAMPLE_INDEX_SPEECH_CIS_WINGMAN2_WING_05);

  00655	68 c3 04 00 00	 push	 1219			; 000004c3H
  0065a	68 f9 03 00 00	 push	 1017			; 000003f9H
  0065f	6a 04		 push	 4
  00661	8b 45 f8	 mov	 eax, DWORD PTR _o$[ebp]
  00664	50		 push	 eax
  00665	8b 4d fc	 mov	 ecx, DWORD PTR _a$[ebp]
  00668	51		 push	 ecx
  00669	e8 00 00 00 00	 call	 ?initialise_speech_data@@YGXW4speech_array_types@@W4speech_originator_types@@HHH@Z ; initialise_speech_data

; 171  : 		initialise_speech_data (a, o, SPEECH_WINGMAN_TARGET_LASED, 												SOUND_SAMPLE_INDEX_SPEECH_US_WINGMAN2_WING_06, SOUND_SAMPLE_INDEX_SPEECH_CIS_WINGMAN2_WING_06);

  0066e	68 c4 04 00 00	 push	 1220			; 000004c4H
  00673	68 fa 03 00 00	 push	 1018			; 000003faH
  00678	6a 05		 push	 5
  0067a	8b 45 f8	 mov	 eax, DWORD PTR _o$[ebp]
  0067d	50		 push	 eax
  0067e	8b 4d fc	 mov	 ecx, DWORD PTR _a$[ebp]
  00681	51		 push	 ecx
  00682	e8 00 00 00 00	 call	 ?initialise_speech_data@@YGXW4speech_array_types@@W4speech_originator_types@@HHH@Z ; initialise_speech_data

; 172  : 		initialise_speech_data (a, o, SPEECH_WINGMAN_EXECUTE_SPOT, 												SOUND_SAMPLE_INDEX_SPEECH_US_WINGMAN2_WING_07, SOUND_SAMPLE_INDEX_SPEECH_CIS_WINGMAN2_WING_07);

  00687	68 c5 04 00 00	 push	 1221			; 000004c5H
  0068c	68 fb 03 00 00	 push	 1019			; 000003fbH
  00691	6a 06		 push	 6
  00693	8b 45 f8	 mov	 eax, DWORD PTR _o$[ebp]
  00696	50		 push	 eax
  00697	8b 4d fc	 mov	 ecx, DWORD PTR _a$[ebp]
  0069a	51		 push	 ecx
  0069b	e8 00 00 00 00	 call	 ?initialise_speech_data@@YGXW4speech_array_types@@W4speech_originator_types@@HHH@Z ; initialise_speech_data

; 173  : 		initialise_speech_data (a, o, SPEECH_WINGMAN_SPOT_ON, 													SOUND_SAMPLE_INDEX_SPEECH_US_WINGMAN2_WING_08, SOUND_SAMPLE_INDEX_SPEECH_CIS_WINGMAN2_WING_08);

  006a0	68 c6 04 00 00	 push	 1222			; 000004c6H
  006a5	68 fc 03 00 00	 push	 1020			; 000003fcH
  006aa	6a 07		 push	 7
  006ac	8b 45 f8	 mov	 eax, DWORD PTR _o$[ebp]
  006af	50		 push	 eax
  006b0	8b 4d fc	 mov	 ecx, DWORD PTR _a$[ebp]
  006b3	51		 push	 ecx
  006b4	e8 00 00 00 00	 call	 ?initialise_speech_data@@YGXW4speech_array_types@@W4speech_originator_types@@HHH@Z ; initialise_speech_data

; 174  : 		initialise_speech_data (a, o, SPEECH_WINGMAN_APPROACHING_ENGAGEMENT_AREA, 							SOUND_SAMPLE_INDEX_SPEECH_US_WINGMAN2_WING_09, SOUND_SAMPLE_INDEX_SPEECH_CIS_WINGMAN2_WING_09);

  006b9	68 c7 04 00 00	 push	 1223			; 000004c7H
  006be	68 fd 03 00 00	 push	 1021			; 000003fdH
  006c3	6a 08		 push	 8
  006c5	8b 45 f8	 mov	 eax, DWORD PTR _o$[ebp]
  006c8	50		 push	 eax
  006c9	8b 4d fc	 mov	 ecx, DWORD PTR _a$[ebp]
  006cc	51		 push	 ecx
  006cd	e8 00 00 00 00	 call	 ?initialise_speech_data@@YGXW4speech_array_types@@W4speech_originator_types@@HHH@Z ; initialise_speech_data

; 175  : 		initialise_speech_data (a, o, SPEECH_WINGMAN_APPROACHING_BATTLE_POSITION, 							SOUND_SAMPLE_INDEX_SPEECH_US_WINGMAN2_WING_10, SOUND_SAMPLE_INDEX_SPEECH_CIS_WINGMAN2_WING_10);

  006d2	68 c8 04 00 00	 push	 1224			; 000004c8H
  006d7	68 fe 03 00 00	 push	 1022			; 000003feH
  006dc	6a 09		 push	 9
  006de	8b 45 f8	 mov	 eax, DWORD PTR _o$[ebp]
  006e1	50		 push	 eax
  006e2	8b 4d fc	 mov	 ecx, DWORD PTR _a$[ebp]
  006e5	51		 push	 ecx
  006e6	e8 00 00 00 00	 call	 ?initialise_speech_data@@YGXW4speech_array_types@@W4speech_originator_types@@HHH@Z ; initialise_speech_data

; 176  : 		initialise_speech_data (a, o, SPEECH_WINGMAN_APPROACHING_RP, 											SOUND_SAMPLE_INDEX_SPEECH_US_WINGMAN2_WING_11, SOUND_SAMPLE_INDEX_SPEECH_CIS_WINGMAN2_WING_11);

  006eb	68 c9 04 00 00	 push	 1225			; 000004c9H
  006f0	68 ff 03 00 00	 push	 1023			; 000003ffH
  006f5	6a 0a		 push	 10			; 0000000aH
  006f7	8b 45 f8	 mov	 eax, DWORD PTR _o$[ebp]
  006fa	50		 push	 eax
  006fb	8b 4d fc	 mov	 ecx, DWORD PTR _a$[ebp]
  006fe	51		 push	 ecx
  006ff	e8 00 00 00 00	 call	 ?initialise_speech_data@@YGXW4speech_array_types@@W4speech_originator_types@@HHH@Z ; initialise_speech_data

; 177  : 		initialise_speech_data (a, o, SPEECH_WINGMAN_MISSION_COMPLETE1, 										SOUND_SAMPLE_INDEX_SPEECH_US_WINGMAN2_WING_12, SOUND_SAMPLE_INDEX_SPEECH_CIS_WINGMAN2_WING_12);

  00704	68 ca 04 00 00	 push	 1226			; 000004caH
  00709	68 00 04 00 00	 push	 1024			; 00000400H
  0070e	6a 0b		 push	 11			; 0000000bH
  00710	8b 45 f8	 mov	 eax, DWORD PTR _o$[ebp]
  00713	50		 push	 eax
  00714	8b 4d fc	 mov	 ecx, DWORD PTR _a$[ebp]
  00717	51		 push	 ecx
  00718	e8 00 00 00 00	 call	 ?initialise_speech_data@@YGXW4speech_array_types@@W4speech_originator_types@@HHH@Z ; initialise_speech_data

; 178  : 		initialise_speech_data (a, o, SPEECH_WINGMAN_MISSION_COMPLETE2, 										SOUND_SAMPLE_INDEX_SPEECH_US_WINGMAN2_WING_13, SOUND_SAMPLE_INDEX_SPEECH_CIS_WINGMAN2_WING_13);

  0071d	68 cb 04 00 00	 push	 1227			; 000004cbH
  00722	68 01 04 00 00	 push	 1025			; 00000401H
  00727	6a 0c		 push	 12			; 0000000cH
  00729	8b 45 f8	 mov	 eax, DWORD PTR _o$[ebp]
  0072c	50		 push	 eax
  0072d	8b 4d fc	 mov	 ecx, DWORD PTR _a$[ebp]
  00730	51		 push	 ecx
  00731	e8 00 00 00 00	 call	 ?initialise_speech_data@@YGXW4speech_array_types@@W4speech_originator_types@@HHH@Z ; initialise_speech_data

; 179  : 		initialise_speech_data (a, o, SPEECH_WINGMAN_INCOMING, 													SOUND_SAMPLE_INDEX_SPEECH_US_WINGMAN2_WING_14, SOUND_SAMPLE_INDEX_SPEECH_CIS_WINGMAN2_WING_14);

  00736	68 cc 04 00 00	 push	 1228			; 000004ccH
  0073b	68 02 04 00 00	 push	 1026			; 00000402H
  00740	6a 0d		 push	 13			; 0000000dH
  00742	8b 45 f8	 mov	 eax, DWORD PTR _o$[ebp]
  00745	50		 push	 eax
  00746	8b 4d fc	 mov	 ecx, DWORD PTR _a$[ebp]
  00749	51		 push	 ecx
  0074a	e8 00 00 00 00	 call	 ?initialise_speech_data@@YGXW4speech_array_types@@W4speech_originator_types@@HHH@Z ; initialise_speech_data

; 180  : 		initialise_speech_data (a, o, SPEECH_WINGMAN_INCOMING_MISSILE, 										SOUND_SAMPLE_INDEX_SPEECH_US_WINGMAN2_WING_15, SOUND_SAMPLE_INDEX_SPEECH_CIS_WINGMAN2_WING_15);

  0074f	68 cd 04 00 00	 push	 1229			; 000004cdH
  00754	68 03 04 00 00	 push	 1027			; 00000403H
  00759	6a 0e		 push	 14			; 0000000eH
  0075b	8b 45 f8	 mov	 eax, DWORD PTR _o$[ebp]
  0075e	50		 push	 eax
  0075f	8b 4d fc	 mov	 ecx, DWORD PTR _a$[ebp]
  00762	51		 push	 ecx
  00763	e8 00 00 00 00	 call	 ?initialise_speech_data@@YGXW4speech_array_types@@W4speech_originator_types@@HHH@Z ; initialise_speech_data

; 181  : 		initialise_speech_data (a, o, SPEECH_WINGMAN_TAKING_HITS, 												SOUND_SAMPLE_INDEX_SPEECH_US_WINGMAN2_WING_16, SOUND_SAMPLE_INDEX_SPEECH_CIS_WINGMAN2_WING_16);

  00768	68 ce 04 00 00	 push	 1230			; 000004ceH
  0076d	68 04 04 00 00	 push	 1028			; 00000404H
  00772	6a 0f		 push	 15			; 0000000fH
  00774	8b 45 f8	 mov	 eax, DWORD PTR _o$[ebp]
  00777	50		 push	 eax
  00778	8b 4d fc	 mov	 ecx, DWORD PTR _a$[ebp]
  0077b	51		 push	 ecx
  0077c	e8 00 00 00 00	 call	 ?initialise_speech_data@@YGXW4speech_array_types@@W4speech_originator_types@@HHH@Z ; initialise_speech_data

; 182  : 		initialise_speech_data (a, o, SPEECH_WINGMAN_GOING_DOWN, 												SOUND_SAMPLE_INDEX_SPEECH_US_WINGMAN2_WING_17, SOUND_SAMPLE_INDEX_SPEECH_CIS_WINGMAN2_WING_17);

  00781	68 cf 04 00 00	 push	 1231			; 000004cfH
  00786	68 05 04 00 00	 push	 1029			; 00000405H
  0078b	6a 10		 push	 16			; 00000010H
  0078d	8b 45 f8	 mov	 eax, DWORD PTR _o$[ebp]
  00790	50		 push	 eax
  00791	8b 4d fc	 mov	 ecx, DWORD PTR _a$[ebp]
  00794	51		 push	 ecx
  00795	e8 00 00 00 00	 call	 ?initialise_speech_data@@YGXW4speech_array_types@@W4speech_originator_types@@HHH@Z ; initialise_speech_data

; 183  : 		initialise_speech_data (a, o, SPEECH_WINGMAN_TARGET_HIT, 												SOUND_SAMPLE_INDEX_SPEECH_US_WINGMAN2_WING_18, SOUND_SAMPLE_INDEX_SPEECH_CIS_WINGMAN2_WING_18);

  0079a	68 d0 04 00 00	 push	 1232			; 000004d0H
  0079f	68 06 04 00 00	 push	 1030			; 00000406H
  007a4	6a 11		 push	 17			; 00000011H
  007a6	8b 45 f8	 mov	 eax, DWORD PTR _o$[ebp]
  007a9	50		 push	 eax
  007aa	8b 4d fc	 mov	 ecx, DWORD PTR _a$[ebp]
  007ad	51		 push	 ecx
  007ae	e8 00 00 00 00	 call	 ?initialise_speech_data@@YGXW4speech_array_types@@W4speech_originator_types@@HHH@Z ; initialise_speech_data

; 184  : 		initialise_speech_data (a, o, SPEECH_WINGMAN_TARGET_MISSED, 											SOUND_SAMPLE_INDEX_SPEECH_US_WINGMAN2_WING_19, SOUND_SAMPLE_INDEX_SPEECH_CIS_WINGMAN2_WING_19);

  007b3	68 d1 04 00 00	 push	 1233			; 000004d1H
  007b8	68 07 04 00 00	 push	 1031			; 00000407H
  007bd	6a 12		 push	 18			; 00000012H
  007bf	8b 45 f8	 mov	 eax, DWORD PTR _o$[ebp]
  007c2	50		 push	 eax
  007c3	8b 4d fc	 mov	 ecx, DWORD PTR _a$[ebp]
  007c6	51		 push	 ecx
  007c7	e8 00 00 00 00	 call	 ?initialise_speech_data@@YGXW4speech_array_types@@W4speech_originator_types@@HHH@Z ; initialise_speech_data

; 185  : 		initialise_speech_data (a, o, SPEECH_WINGMAN_TARGET_DESTROYED, 										SOUND_SAMPLE_INDEX_SPEECH_US_WINGMAN2_WING_20, SOUND_SAMPLE_INDEX_SPEECH_CIS_WINGMAN2_WING_20);

  007cc	68 d2 04 00 00	 push	 1234			; 000004d2H
  007d1	68 08 04 00 00	 push	 1032			; 00000408H
  007d6	6a 13		 push	 19			; 00000013H
  007d8	8b 45 f8	 mov	 eax, DWORD PTR _o$[ebp]
  007db	50		 push	 eax
  007dc	8b 4d fc	 mov	 ecx, DWORD PTR _a$[ebp]
  007df	51		 push	 ecx
  007e0	e8 00 00 00 00	 call	 ?initialise_speech_data@@YGXW4speech_array_types@@W4speech_originator_types@@HHH@Z ; initialise_speech_data

; 186  : 		initialise_speech_data (a, o, SPEECH_WINGMAN_BOBBING_UP, 												SOUND_SAMPLE_INDEX_SPEECH_US_WINGMAN2_WING_21, SOUND_SAMPLE_INDEX_SPEECH_CIS_WINGMAN2_WING_21);

  007e5	68 d3 04 00 00	 push	 1235			; 000004d3H
  007ea	68 09 04 00 00	 push	 1033			; 00000409H
  007ef	6a 14		 push	 20			; 00000014H
  007f1	8b 45 f8	 mov	 eax, DWORD PTR _o$[ebp]
  007f4	50		 push	 eax
  007f5	8b 4d fc	 mov	 ecx, DWORD PTR _a$[ebp]
  007f8	51		 push	 ecx
  007f9	e8 00 00 00 00	 call	 ?initialise_speech_data@@YGXW4speech_array_types@@W4speech_originator_types@@HHH@Z ; initialise_speech_data

; 187  : 		initialise_speech_data (a, o, SPEECH_WINGMAN_ENGAGING_TARGET, 											SOUND_SAMPLE_INDEX_SPEECH_US_WINGMAN2_WING_22, SOUND_SAMPLE_INDEX_SPEECH_CIS_WINGMAN2_WING_22);

  007fe	68 d4 04 00 00	 push	 1236			; 000004d4H
  00803	68 0a 04 00 00	 push	 1034			; 0000040aH
  00808	6a 15		 push	 21			; 00000015H
  0080a	8b 45 f8	 mov	 eax, DWORD PTR _o$[ebp]
  0080d	50		 push	 eax
  0080e	8b 4d fc	 mov	 ecx, DWORD PTR _a$[ebp]
  00811	51		 push	 ecx
  00812	e8 00 00 00 00	 call	 ?initialise_speech_data@@YGXW4speech_array_types@@W4speech_originator_types@@HHH@Z ; initialise_speech_data

; 188  : 		initialise_speech_data (a, o, SPEECH_WINGMAN_ROGER_MAINTAINING_POSITION, 							SOUND_SAMPLE_INDEX_SPEECH_US_WINGMAN2_WING_23, SOUND_SAMPLE_INDEX_SPEECH_CIS_WINGMAN2_WING_23);

  00817	68 d5 04 00 00	 push	 1237			; 000004d5H
  0081c	68 0b 04 00 00	 push	 1035			; 0000040bH
  00821	6a 16		 push	 22			; 00000016H
  00823	8b 45 f8	 mov	 eax, DWORD PTR _o$[ebp]
  00826	50		 push	 eax
  00827	8b 4d fc	 mov	 ecx, DWORD PTR _a$[ebp]
  0082a	51		 push	 ecx
  0082b	e8 00 00 00 00	 call	 ?initialise_speech_data@@YGXW4speech_array_types@@W4speech_originator_types@@HHH@Z ; initialise_speech_data

; 189  : 		initialise_speech_data (a, o, SPEECH_WINGMAN_ROGER_REJOINING_FORMATION, 							SOUND_SAMPLE_INDEX_SPEECH_US_WINGMAN2_WING_24, SOUND_SAMPLE_INDEX_SPEECH_CIS_WINGMAN2_WING_24);

  00830	68 d6 04 00 00	 push	 1238			; 000004d6H
  00835	68 0c 04 00 00	 push	 1036			; 0000040cH
  0083a	6a 17		 push	 23			; 00000017H
  0083c	8b 45 f8	 mov	 eax, DWORD PTR _o$[ebp]
  0083f	50		 push	 eax
  00840	8b 4d fc	 mov	 ecx, DWORD PTR _a$[ebp]
  00843	51		 push	 ecx
  00844	e8 00 00 00 00	 call	 ?initialise_speech_data@@YGXW4speech_array_types@@W4speech_originator_types@@HHH@Z ; initialise_speech_data

; 190  : 		initialise_speech_data (a, o, SPEECH_WINGMAN_ROGER_BOBBING_UP, 										SOUND_SAMPLE_INDEX_SPEECH_US_WINGMAN2_WING_25, SOUND_SAMPLE_INDEX_SPEECH_CIS_WINGMAN2_WING_25);

  00849	68 d7 04 00 00	 push	 1239			; 000004d7H
  0084e	68 0d 04 00 00	 push	 1037			; 0000040dH
  00853	6a 18		 push	 24			; 00000018H
  00855	8b 45 f8	 mov	 eax, DWORD PTR _o$[ebp]
  00858	50		 push	 eax
  00859	8b 4d fc	 mov	 ecx, DWORD PTR _a$[ebp]
  0085c	51		 push	 ecx
  0085d	e8 00 00 00 00	 call	 ?initialise_speech_data@@YGXW4speech_array_types@@W4speech_originator_types@@HHH@Z ; initialise_speech_data

; 191  : 		initialise_speech_data (a, o, SPEECH_WINGMAN_ROGER_RETURNING_TO_BASE, 								SOUND_SAMPLE_INDEX_SPEECH_US_WINGMAN2_WING_26, SOUND_SAMPLE_INDEX_SPEECH_CIS_WINGMAN2_WING_26);

  00862	68 d8 04 00 00	 push	 1240			; 000004d8H
  00867	68 0e 04 00 00	 push	 1038			; 0000040eH
  0086c	6a 19		 push	 25			; 00000019H
  0086e	8b 45 f8	 mov	 eax, DWORD PTR _o$[ebp]
  00871	50		 push	 eax
  00872	8b 4d fc	 mov	 ecx, DWORD PTR _a$[ebp]
  00875	51		 push	 ecx
  00876	e8 00 00 00 00	 call	 ?initialise_speech_data@@YGXW4speech_array_types@@W4speech_originator_types@@HHH@Z ; initialise_speech_data

; 192  : 		initialise_speech_data (a, o, SPEECH_WINGMAN_ROGER_WEAPONS_HOLD, 										SOUND_SAMPLE_INDEX_SPEECH_US_WINGMAN2_WING_27, SOUND_SAMPLE_INDEX_SPEECH_CIS_WINGMAN2_WING_27);

  0087b	68 d9 04 00 00	 push	 1241			; 000004d9H
  00880	68 0f 04 00 00	 push	 1039			; 0000040fH
  00885	6a 1a		 push	 26			; 0000001aH
  00887	8b 45 f8	 mov	 eax, DWORD PTR _o$[ebp]
  0088a	50		 push	 eax
  0088b	8b 4d fc	 mov	 ecx, DWORD PTR _a$[ebp]
  0088e	51		 push	 ecx
  0088f	e8 00 00 00 00	 call	 ?initialise_speech_data@@YGXW4speech_array_types@@W4speech_originator_types@@HHH@Z ; initialise_speech_data

; 193  : 		initialise_speech_data (a, o, SPEECH_WINGMAN_ROGER_WEAPONS_FREE, 										SOUND_SAMPLE_INDEX_SPEECH_US_WINGMAN2_WING_28, SOUND_SAMPLE_INDEX_SPEECH_CIS_WINGMAN2_WING_28);

  00894	68 da 04 00 00	 push	 1242			; 000004daH
  00899	68 10 04 00 00	 push	 1040			; 00000410H
  0089e	6a 1b		 push	 27			; 0000001bH
  008a0	8b 45 f8	 mov	 eax, DWORD PTR _o$[ebp]
  008a3	50		 push	 eax
  008a4	8b 4d fc	 mov	 ecx, DWORD PTR _a$[ebp]
  008a7	51		 push	 ecx
  008a8	e8 00 00 00 00	 call	 ?initialise_speech_data@@YGXW4speech_array_types@@W4speech_originator_types@@HHH@Z ; initialise_speech_data

; 194  : 		initialise_speech_data (a, o, SPEECH_WINGMAN_ROGER_ENGAGING_TARGET, 									SOUND_SAMPLE_INDEX_SPEECH_US_WINGMAN2_WING_29, SOUND_SAMPLE_INDEX_SPEECH_CIS_WINGMAN2_WING_29);

  008ad	68 db 04 00 00	 push	 1243			; 000004dbH
  008b2	68 11 04 00 00	 push	 1041			; 00000411H
  008b7	6a 1c		 push	 28			; 0000001cH
  008b9	8b 45 f8	 mov	 eax, DWORD PTR _o$[ebp]
  008bc	50		 push	 eax
  008bd	8b 4d fc	 mov	 ecx, DWORD PTR _a$[ebp]
  008c0	51		 push	 ecx
  008c1	e8 00 00 00 00	 call	 ?initialise_speech_data@@YGXW4speech_array_types@@W4speech_originator_types@@HHH@Z ; initialise_speech_data

; 195  : 		initialise_speech_data (a, o, SPEECH_WINGMAN_ROGER_COMING_TO_ASSIST, 								SOUND_SAMPLE_INDEX_SPEECH_US_WINGMAN2_WING_30, SOUND_SAMPLE_INDEX_SPEECH_CIS_WINGMAN2_WING_30);

  008c6	68 dc 04 00 00	 push	 1244			; 000004dcH
  008cb	68 12 04 00 00	 push	 1042			; 00000412H
  008d0	6a 1d		 push	 29			; 0000001dH
  008d2	8b 45 f8	 mov	 eax, DWORD PTR _o$[ebp]
  008d5	50		 push	 eax
  008d6	8b 4d fc	 mov	 ecx, DWORD PTR _a$[ebp]
  008d9	51		 push	 ecx
  008da	e8 00 00 00 00	 call	 ?initialise_speech_data@@YGXW4speech_array_types@@W4speech_originator_types@@HHH@Z ; initialise_speech_data

; 196  : 		initialise_speech_data (a, o, SPEECH_WINGMAN_ROGER_MOVING_INTO_ORDERED_POSITION, 				SOUND_SAMPLE_INDEX_SPEECH_US_WINGMAN2_WING_31, SOUND_SAMPLE_INDEX_SPEECH_CIS_WINGMAN2_WING_31);

  008df	68 dd 04 00 00	 push	 1245			; 000004ddH
  008e4	68 13 04 00 00	 push	 1043			; 00000413H
  008e9	6a 1e		 push	 30			; 0000001eH
  008eb	8b 45 f8	 mov	 eax, DWORD PTR _o$[ebp]
  008ee	50		 push	 eax
  008ef	8b 4d fc	 mov	 ecx, DWORD PTR _a$[ebp]
  008f2	51		 push	 ecx
  008f3	e8 00 00 00 00	 call	 ?initialise_speech_data@@YGXW4speech_array_types@@W4speech_originator_types@@HHH@Z ; initialise_speech_data

; 197  : 		initialise_speech_data (a, o, SPEECH_WINGMAN_WE_HAVE, 													SOUND_SAMPLE_INDEX_SPEECH_US_WINGMAN2_WING_32, SOUND_SAMPLE_INDEX_SPEECH_CIS_WINGMAN2_WING_32);

  008f8	68 de 04 00 00	 push	 1246			; 000004deH
  008fd	68 14 04 00 00	 push	 1044			; 00000414H
  00902	6a 1f		 push	 31			; 0000001fH
  00904	8b 45 f8	 mov	 eax, DWORD PTR _o$[ebp]
  00907	50		 push	 eax
  00908	8b 4d fc	 mov	 ecx, DWORD PTR _a$[ebp]
  0090b	51		 push	 ecx
  0090c	e8 00 00 00 00	 call	 ?initialise_speech_data@@YGXW4speech_array_types@@W4speech_originator_types@@HHH@Z ; initialise_speech_data

; 198  : 		initialise_speech_data (a, o, SPEECH_WINGMAN_AIR_TO_GROUND_MISSILES, 								SOUND_SAMPLE_INDEX_SPEECH_US_WINGMAN2_WING_33, SOUND_SAMPLE_INDEX_SPEECH_CIS_WINGMAN2_WING_33);

  00911	68 df 04 00 00	 push	 1247			; 000004dfH
  00916	68 15 04 00 00	 push	 1045			; 00000415H
  0091b	6a 20		 push	 32			; 00000020H
  0091d	8b 45 f8	 mov	 eax, DWORD PTR _o$[ebp]
  00920	50		 push	 eax
  00921	8b 4d fc	 mov	 ecx, DWORD PTR _a$[ebp]
  00924	51		 push	 ecx
  00925	e8 00 00 00 00	 call	 ?initialise_speech_data@@YGXW4speech_array_types@@W4speech_originator_types@@HHH@Z ; initialise_speech_data

; 199  : 		initialise_speech_data (a, o, SPEECH_WINGMAN_AIR_TO_AIR_MISSILES, 									SOUND_SAMPLE_INDEX_SPEECH_US_WINGMAN2_WING_34, SOUND_SAMPLE_INDEX_SPEECH_CIS_WINGMAN2_WING_34);

  0092a	68 e0 04 00 00	 push	 1248			; 000004e0H
  0092f	68 16 04 00 00	 push	 1046			; 00000416H
  00934	6a 21		 push	 33			; 00000021H
  00936	8b 45 f8	 mov	 eax, DWORD PTR _o$[ebp]
  00939	50		 push	 eax
  0093a	8b 4d fc	 mov	 ecx, DWORD PTR _a$[ebp]
  0093d	51		 push	 ecx
  0093e	e8 00 00 00 00	 call	 ?initialise_speech_data@@YGXW4speech_array_types@@W4speech_originator_types@@HHH@Z ; initialise_speech_data

; 200  : 		initialise_speech_data (a, o, SPEECH_WINGMAN_PERCENT, 													SOUND_SAMPLE_INDEX_SPEECH_US_WINGMAN2_WING_35, SOUND_SAMPLE_INDEX_SPEECH_CIS_WINGMAN2_WING_35);

  00943	68 e1 04 00 00	 push	 1249			; 000004e1H
  00948	68 17 04 00 00	 push	 1047			; 00000417H
  0094d	6a 22		 push	 34			; 00000022H
  0094f	8b 45 f8	 mov	 eax, DWORD PTR _o$[ebp]
  00952	50		 push	 eax
  00953	8b 4d fc	 mov	 ecx, DWORD PTR _a$[ebp]
  00956	51		 push	 ecx
  00957	e8 00 00 00 00	 call	 ?initialise_speech_data@@YGXW4speech_array_types@@W4speech_originator_types@@HHH@Z ; initialise_speech_data

; 201  : 		initialise_speech_data (a, o, SPEECH_WINGMAN_ROCKETS, 													SOUND_SAMPLE_INDEX_SPEECH_US_WINGMAN2_WING_36, SOUND_SAMPLE_INDEX_SPEECH_CIS_WINGMAN2_WING_36);

  0095c	68 e2 04 00 00	 push	 1250			; 000004e2H
  00961	68 18 04 00 00	 push	 1048			; 00000418H
  00966	6a 23		 push	 35			; 00000023H
  00968	8b 45 f8	 mov	 eax, DWORD PTR _o$[ebp]
  0096b	50		 push	 eax
  0096c	8b 4d fc	 mov	 ecx, DWORD PTR _a$[ebp]
  0096f	51		 push	 ecx
  00970	e8 00 00 00 00	 call	 ?initialise_speech_data@@YGXW4speech_array_types@@W4speech_originator_types@@HHH@Z ; initialise_speech_data

; 202  : 		initialise_speech_data (a, o, SPEECH_WINGMAN_CANNON_AMMO, 												SOUND_SAMPLE_INDEX_NONE, 								SOUND_SAMPLE_INDEX_SPEECH_CIS_WINGMAN2_WING_37);

  00975	68 e3 04 00 00	 push	 1251			; 000004e3H
  0097a	6a 00		 push	 0
  0097c	6a 24		 push	 36			; 00000024H
  0097e	8b 45 f8	 mov	 eax, DWORD PTR _o$[ebp]
  00981	50		 push	 eax
  00982	8b 4d fc	 mov	 ecx, DWORD PTR _a$[ebp]
  00985	51		 push	 ecx
  00986	e8 00 00 00 00	 call	 ?initialise_speech_data@@YGXW4speech_array_types@@W4speech_originator_types@@HHH@Z ; initialise_speech_data

; 203  : 		initialise_speech_data (a, o, SPEECH_WINGMAN_FULLY_MISSION_CAPABLE, 									SOUND_SAMPLE_INDEX_SPEECH_US_WINGMAN2_WING_38, SOUND_SAMPLE_INDEX_SPEECH_CIS_WINGMAN2_WING_38);

  0098b	68 e4 04 00 00	 push	 1252			; 000004e4H
  00990	68 1a 04 00 00	 push	 1050			; 0000041aH
  00995	6a 25		 push	 37			; 00000025H
  00997	8b 45 f8	 mov	 eax, DWORD PTR _o$[ebp]
  0099a	50		 push	 eax
  0099b	8b 4d fc	 mov	 ecx, DWORD PTR _a$[ebp]
  0099e	51		 push	 ecx
  0099f	e8 00 00 00 00	 call	 ?initialise_speech_data@@YGXW4speech_array_types@@W4speech_originator_types@@HHH@Z ; initialise_speech_data

; 204  : 		initialise_speech_data (a, o, SPEECH_WINGMAN_MINOR_DAMAGE, 												SOUND_SAMPLE_INDEX_SPEECH_US_WINGMAN2_WING_39, SOUND_SAMPLE_INDEX_SPEECH_CIS_WINGMAN2_WING_39);

  009a4	68 e5 04 00 00	 push	 1253			; 000004e5H
  009a9	68 1b 04 00 00	 push	 1051			; 0000041bH
  009ae	6a 26		 push	 38			; 00000026H
  009b0	8b 45 f8	 mov	 eax, DWORD PTR _o$[ebp]
  009b3	50		 push	 eax
  009b4	8b 4d fc	 mov	 ecx, DWORD PTR _a$[ebp]
  009b7	51		 push	 ecx
  009b8	e8 00 00 00 00	 call	 ?initialise_speech_data@@YGXW4speech_array_types@@W4speech_originator_types@@HHH@Z ; initialise_speech_data

; 205  : 		initialise_speech_data (a, o, SPEECH_WINGMAN_SOME_DAMAGE, 												SOUND_SAMPLE_INDEX_SPEECH_US_WINGMAN2_WING_40, SOUND_SAMPLE_INDEX_SPEECH_CIS_WINGMAN2_WING_40);

  009bd	68 e6 04 00 00	 push	 1254			; 000004e6H
  009c2	68 1c 04 00 00	 push	 1052			; 0000041cH
  009c7	6a 27		 push	 39			; 00000027H
  009c9	8b 45 f8	 mov	 eax, DWORD PTR _o$[ebp]
  009cc	50		 push	 eax
  009cd	8b 4d fc	 mov	 ecx, DWORD PTR _a$[ebp]
  009d0	51		 push	 ecx
  009d1	e8 00 00 00 00	 call	 ?initialise_speech_data@@YGXW4speech_array_types@@W4speech_originator_types@@HHH@Z ; initialise_speech_data

; 206  : 		initialise_speech_data (a, o, SPEECH_WINGMAN_MAJOR_DAMAGE, 												SOUND_SAMPLE_INDEX_SPEECH_US_WINGMAN2_WING_41, SOUND_SAMPLE_INDEX_SPEECH_CIS_WINGMAN2_WING_41);

  009d6	68 e7 04 00 00	 push	 1255			; 000004e7H
  009db	68 1d 04 00 00	 push	 1053			; 0000041dH
  009e0	6a 28		 push	 40			; 00000028H
  009e2	8b 45 f8	 mov	 eax, DWORD PTR _o$[ebp]
  009e5	50		 push	 eax
  009e6	8b 4d fc	 mov	 ecx, DWORD PTR _a$[ebp]
  009e9	51		 push	 ecx
  009ea	e8 00 00 00 00	 call	 ?initialise_speech_data@@YGXW4speech_array_types@@W4speech_originator_types@@HHH@Z ; initialise_speech_data

; 207  : 		initialise_speech_data (a, o, SPEECH_WINGMAN_LAUNCHING_MISSILE, 										SOUND_SAMPLE_INDEX_SPEECH_US_WINGMAN2_WING_42, SOUND_SAMPLE_INDEX_SPEECH_CIS_WINGMAN2_WING_42);

  009ef	68 e8 04 00 00	 push	 1256			; 000004e8H
  009f4	68 1e 04 00 00	 push	 1054			; 0000041eH
  009f9	6a 29		 push	 41			; 00000029H
  009fb	8b 45 f8	 mov	 eax, DWORD PTR _o$[ebp]
  009fe	50		 push	 eax
  009ff	8b 4d fc	 mov	 ecx, DWORD PTR _a$[ebp]
  00a02	51		 push	 ecx
  00a03	e8 00 00 00 00	 call	 ?initialise_speech_data@@YGXW4speech_array_types@@W4speech_originator_types@@HHH@Z ; initialise_speech_data

; 208  : 		initialise_speech_data (a, o, SPEECH_WINGMAN_MISSILE_AWAY, 												SOUND_SAMPLE_INDEX_SPEECH_US_WINGMAN2_WING_43, SOUND_SAMPLE_INDEX_SPEECH_CIS_WINGMAN2_WING_43);

  00a08	68 e9 04 00 00	 push	 1257			; 000004e9H
  00a0d	68 1f 04 00 00	 push	 1055			; 0000041fH
  00a12	6a 2a		 push	 42			; 0000002aH
  00a14	8b 45 f8	 mov	 eax, DWORD PTR _o$[ebp]
  00a17	50		 push	 eax
  00a18	8b 4d fc	 mov	 ecx, DWORD PTR _a$[ebp]
  00a1b	51		 push	 ecx
  00a1c	e8 00 00 00 00	 call	 ?initialise_speech_data@@YGXW4speech_array_types@@W4speech_originator_types@@HHH@Z ; initialise_speech_data

; 209  : 		initialise_speech_data (a, o, SPEECH_WINGMAN_FIRING_ROCKETS, 											SOUND_SAMPLE_INDEX_SPEECH_US_WINGMAN2_WING_44, SOUND_SAMPLE_INDEX_SPEECH_CIS_WINGMAN2_WING_44);

  00a21	68 ea 04 00 00	 push	 1258			; 000004eaH
  00a26	68 20 04 00 00	 push	 1056			; 00000420H
  00a2b	6a 2b		 push	 43			; 0000002bH
  00a2d	8b 45 f8	 mov	 eax, DWORD PTR _o$[ebp]
  00a30	50		 push	 eax
  00a31	8b 4d fc	 mov	 ecx, DWORD PTR _a$[ebp]
  00a34	51		 push	 ecx
  00a35	e8 00 00 00 00	 call	 ?initialise_speech_data@@YGXW4speech_array_types@@W4speech_originator_types@@HHH@Z ; initialise_speech_data

; 210  : 		initialise_speech_data (a, o, SPEECH_WINGMAN_ROCKETS_AWAY, 												SOUND_SAMPLE_INDEX_SPEECH_US_WINGMAN2_WING_45, SOUND_SAMPLE_INDEX_SPEECH_CIS_WINGMAN2_WING_45);

  00a3a	68 eb 04 00 00	 push	 1259			; 000004ebH
  00a3f	68 21 04 00 00	 push	 1057			; 00000421H
  00a44	6a 2c		 push	 44			; 0000002cH
  00a46	8b 45 f8	 mov	 eax, DWORD PTR _o$[ebp]
  00a49	50		 push	 eax
  00a4a	8b 4d fc	 mov	 ecx, DWORD PTR _a$[ebp]
  00a4d	51		 push	 ecx
  00a4e	e8 00 00 00 00	 call	 ?initialise_speech_data@@YGXW4speech_array_types@@W4speech_originator_types@@HHH@Z ; initialise_speech_data

; 211  : 		initialise_speech_data (a, o, SPEECH_WINGMAN_FIRING_CANNON, 											SOUND_SAMPLE_INDEX_SPEECH_US_WINGMAN2_WING_46, SOUND_SAMPLE_INDEX_SPEECH_CIS_WINGMAN2_WING_46);

  00a53	68 ec 04 00 00	 push	 1260			; 000004ecH
  00a58	68 22 04 00 00	 push	 1058			; 00000422H
  00a5d	6a 2d		 push	 45			; 0000002dH
  00a5f	8b 45 f8	 mov	 eax, DWORD PTR _o$[ebp]
  00a62	50		 push	 eax
  00a63	8b 4d fc	 mov	 ecx, DWORD PTR _a$[ebp]
  00a66	51		 push	 ecx
  00a67	e8 00 00 00 00	 call	 ?initialise_speech_data@@YGXW4speech_array_types@@W4speech_originator_types@@HHH@Z ; initialise_speech_data

; 212  : 		initialise_speech_data (a, o, SPEECH_WINGMAN_ENGAGING_WITH_CANNON, 									SOUND_SAMPLE_INDEX_SPEECH_US_WINGMAN2_WING_47, SOUND_SAMPLE_INDEX_SPEECH_CIS_WINGMAN2_WING_47);

  00a6c	68 ed 04 00 00	 push	 1261			; 000004edH
  00a71	68 23 04 00 00	 push	 1059			; 00000423H
  00a76	6a 2e		 push	 46			; 0000002eH
  00a78	8b 45 f8	 mov	 eax, DWORD PTR _o$[ebp]
  00a7b	50		 push	 eax
  00a7c	8b 4d fc	 mov	 ecx, DWORD PTR _a$[ebp]
  00a7f	51		 push	 ecx
  00a80	e8 00 00 00 00	 call	 ?initialise_speech_data@@YGXW4speech_array_types@@W4speech_originator_types@@HHH@Z ; initialise_speech_data

; 213  : 		initialise_speech_data (a, o, SPEECH_WINGMAN_ACKNOWLEDGE, 												SOUND_SAMPLE_INDEX_SPEECH_US_WINGMAN2_WING_48, SOUND_SAMPLE_INDEX_SPEECH_CIS_WINGMAN2_WING_48);

  00a85	68 ee 04 00 00	 push	 1262			; 000004eeH
  00a8a	68 24 04 00 00	 push	 1060			; 00000424H
  00a8f	6a 2f		 push	 47			; 0000002fH
  00a91	8b 45 f8	 mov	 eax, DWORD PTR _o$[ebp]
  00a94	50		 push	 eax
  00a95	8b 4d fc	 mov	 ecx, DWORD PTR _a$[ebp]
  00a98	51		 push	 ecx
  00a99	e8 00 00 00 00	 call	 ?initialise_speech_data@@YGXW4speech_array_types@@W4speech_originator_types@@HHH@Z ; initialise_speech_data

; 214  : 		initialise_speech_data (a, o, SPEECH_WINGMAN_UNABLE_TO_COMPLY, 										SOUND_SAMPLE_INDEX_SPEECH_US_WINGMAN2_WING_49, SOUND_SAMPLE_INDEX_SPEECH_CIS_WINGMAN2_WING_49);

  00a9e	68 ef 04 00 00	 push	 1263			; 000004efH
  00aa3	68 25 04 00 00	 push	 1061			; 00000425H
  00aa8	6a 30		 push	 48			; 00000030H
  00aaa	8b 45 f8	 mov	 eax, DWORD PTR _o$[ebp]
  00aad	50		 push	 eax
  00aae	8b 4d fc	 mov	 ecx, DWORD PTR _a$[ebp]
  00ab1	51		 push	 ecx
  00ab2	e8 00 00 00 00	 call	 ?initialise_speech_data@@YGXW4speech_array_types@@W4speech_originator_types@@HHH@Z ; initialise_speech_data

; 215  : 		initialise_speech_data (a, o, SPEECH_WINGMAN_REQUEST_PERMISSION_TO_LAND, 							SOUND_SAMPLE_INDEX_SPEECH_US_WINGMAN2_WING_50, SOUND_SAMPLE_INDEX_SPEECH_CIS_WINGMAN2_WING_50);

  00ab7	68 f0 04 00 00	 push	 1264			; 000004f0H
  00abc	68 26 04 00 00	 push	 1062			; 00000426H
  00ac1	6a 31		 push	 49			; 00000031H
  00ac3	8b 45 f8	 mov	 eax, DWORD PTR _o$[ebp]
  00ac6	50		 push	 eax
  00ac7	8b 4d fc	 mov	 ecx, DWORD PTR _a$[ebp]
  00aca	51		 push	 ecx
  00acb	e8 00 00 00 00	 call	 ?initialise_speech_data@@YGXW4speech_array_types@@W4speech_originator_types@@HHH@Z ; initialise_speech_data

; 216  : 		initialise_speech_data (a, o, SPEECH_WINGMAN_REQUEST_PERMISSION_TO_TAKEOFF, 						SOUND_SAMPLE_INDEX_SPEECH_US_WINGMAN2_WING_51, SOUND_SAMPLE_INDEX_SPEECH_CIS_WINGMAN2_WING_51);

  00ad0	68 f1 04 00 00	 push	 1265			; 000004f1H
  00ad5	68 27 04 00 00	 push	 1063			; 00000427H
  00ada	6a 32		 push	 50			; 00000032H
  00adc	8b 45 f8	 mov	 eax, DWORD PTR _o$[ebp]
  00adf	50		 push	 eax
  00ae0	8b 4d fc	 mov	 ecx, DWORD PTR _a$[ebp]
  00ae3	51		 push	 ecx
  00ae4	e8 00 00 00 00	 call	 ?initialise_speech_data@@YGXW4speech_array_types@@W4speech_originator_types@@HHH@Z ; initialise_speech_data

; 217  : 		initialise_speech_data (a, o, SPEECH_WINGMAN_TRANSMITTING_RECON_DATA, 								SOUND_SAMPLE_INDEX_SPEECH_US_WINGMAN2_WING_52, SOUND_SAMPLE_INDEX_SPEECH_CIS_WINGMAN2_WING_52);

  00ae9	68 f2 04 00 00	 push	 1266			; 000004f2H
  00aee	68 28 04 00 00	 push	 1064			; 00000428H
  00af3	6a 33		 push	 51			; 00000033H
  00af5	8b 45 f8	 mov	 eax, DWORD PTR _o$[ebp]
  00af8	50		 push	 eax
  00af9	8b 4d fc	 mov	 ecx, DWORD PTR _a$[ebp]
  00afc	51		 push	 ecx
  00afd	e8 00 00 00 00	 call	 ?initialise_speech_data@@YGXW4speech_array_types@@W4speech_originator_types@@HHH@Z ; initialise_speech_data

; 218  : 		initialise_speech_data (a, o, SPEECH_WINGMAN_SEEKING_COVER, 											SOUND_SAMPLE_INDEX_SPEECH_US_WINGMAN2_WING_53, SOUND_SAMPLE_INDEX_SPEECH_CIS_WINGMAN2_WING_53);

  00b02	68 f3 04 00 00	 push	 1267			; 000004f3H
  00b07	68 29 04 00 00	 push	 1065			; 00000429H
  00b0c	6a 34		 push	 52			; 00000034H
  00b0e	8b 45 f8	 mov	 eax, DWORD PTR _o$[ebp]
  00b11	50		 push	 eax
  00b12	8b 4d fc	 mov	 ecx, DWORD PTR _a$[ebp]
  00b15	51		 push	 ecx
  00b16	e8 00 00 00 00	 call	 ?initialise_speech_data@@YGXW4speech_array_types@@W4speech_originator_types@@HHH@Z ; initialise_speech_data

; 219  : 		initialise_speech_data (a, o, SPEECH_WINGMAN_FLYING_TO_COVER, 											SOUND_SAMPLE_INDEX_SPEECH_US_WINGMAN2_WING_54, SOUND_SAMPLE_INDEX_SPEECH_CIS_WINGMAN2_WING_54);

  00b1b	68 f4 04 00 00	 push	 1268			; 000004f4H
  00b20	68 2a 04 00 00	 push	 1066			; 0000042aH
  00b25	6a 35		 push	 53			; 00000035H
  00b27	8b 45 f8	 mov	 eax, DWORD PTR _o$[ebp]
  00b2a	50		 push	 eax
  00b2b	8b 4d fc	 mov	 ecx, DWORD PTR _a$[ebp]
  00b2e	51		 push	 ecx
  00b2f	e8 00 00 00 00	 call	 ?initialise_speech_data@@YGXW4speech_array_types@@W4speech_originator_types@@HHH@Z ; initialise_speech_data

; 220  : 		initialise_speech_data (a, o, SPEECH_WINGMAN_IN_POSITION, 												SOUND_SAMPLE_INDEX_SPEECH_US_WINGMAN2_WING_55, SOUND_SAMPLE_INDEX_SPEECH_CIS_WINGMAN2_WING_55);

  00b34	68 f5 04 00 00	 push	 1269			; 000004f5H
  00b39	68 2b 04 00 00	 push	 1067			; 0000042bH
  00b3e	6a 36		 push	 54			; 00000036H
  00b40	8b 45 f8	 mov	 eax, DWORD PTR _o$[ebp]
  00b43	50		 push	 eax
  00b44	8b 4d fc	 mov	 ecx, DWORD PTR _a$[ebp]
  00b47	51		 push	 ecx
  00b48	e8 00 00 00 00	 call	 ?initialise_speech_data@@YGXW4speech_array_types@@W4speech_originator_types@@HHH@Z ; initialise_speech_data

; 221  : 		initialise_speech_data (a, o, SPEECH_WINGMAN_UNDER_ATTACK_AIRCRAFT, 									SOUND_SAMPLE_INDEX_SPEECH_US_WINGMAN2_WING_56, SOUND_SAMPLE_INDEX_SPEECH_CIS_WINGMAN2_WING_56);

  00b4d	68 f6 04 00 00	 push	 1270			; 000004f6H
  00b52	68 2c 04 00 00	 push	 1068			; 0000042cH
  00b57	6a 37		 push	 55			; 00000037H
  00b59	8b 45 f8	 mov	 eax, DWORD PTR _o$[ebp]
  00b5c	50		 push	 eax
  00b5d	8b 4d fc	 mov	 ecx, DWORD PTR _a$[ebp]
  00b60	51		 push	 ecx
  00b61	e8 00 00 00 00	 call	 ?initialise_speech_data@@YGXW4speech_array_types@@W4speech_originator_types@@HHH@Z ; initialise_speech_data

; 222  : 		initialise_speech_data (a, o, SPEECH_WINGMAN_UNDER_ATTACK_ARMOUR, 									SOUND_SAMPLE_INDEX_SPEECH_US_WINGMAN2_WING_57, SOUND_SAMPLE_INDEX_SPEECH_CIS_WINGMAN2_WING_57);

  00b66	68 f7 04 00 00	 push	 1271			; 000004f7H
  00b6b	68 2d 04 00 00	 push	 1069			; 0000042dH
  00b70	6a 38		 push	 56			; 00000038H
  00b72	8b 45 f8	 mov	 eax, DWORD PTR _o$[ebp]
  00b75	50		 push	 eax
  00b76	8b 4d fc	 mov	 ecx, DWORD PTR _a$[ebp]
  00b79	51		 push	 ecx
  00b7a	e8 00 00 00 00	 call	 ?initialise_speech_data@@YGXW4speech_array_types@@W4speech_originator_types@@HHH@Z ; initialise_speech_data

; 223  : 		initialise_speech_data (a, o, SPEECH_WINGMAN_REQUEST_ASSISTANCE, 										SOUND_SAMPLE_INDEX_SPEECH_US_WINGMAN2_WING_58, SOUND_SAMPLE_INDEX_SPEECH_CIS_WINGMAN2_WING_58);

  00b7f	68 f8 04 00 00	 push	 1272			; 000004f8H
  00b84	68 2e 04 00 00	 push	 1070			; 0000042eH
  00b89	6a 39		 push	 57			; 00000039H
  00b8b	8b 45 f8	 mov	 eax, DWORD PTR _o$[ebp]
  00b8e	50		 push	 eax
  00b8f	8b 4d fc	 mov	 ecx, DWORD PTR _a$[ebp]
  00b92	51		 push	 ecx
  00b93	e8 00 00 00 00	 call	 ?initialise_speech_data@@YGXW4speech_array_types@@W4speech_originator_types@@HHH@Z ; initialise_speech_data

; 224  : 
; 225  : 		#endif
; 226  : 	}
; 227  : }

  00b98	5f		 pop	 edi
  00b99	5e		 pop	 esi
  00b9a	5b		 pop	 ebx
  00b9b	8b e5		 mov	 esp, ebp
  00b9d	5d		 pop	 ebp
  00b9e	c3		 ret	 0
?initialise_speech_wingman_data@@YGXXZ ENDP		; initialise_speech_wingman_data
_TEXT	ENDS
END
