; Listing generated by Microsoft (R) Optimizing Compiler Version 19.16.27045.0 

	TITLE	C:\Users\nhv90\Projects\eech\aphavoc\source\entity\special\session\ss_dstry.c
	.686P
	.XMM
	include listing.inc
	.model	flat

INCLUDELIB MSVCRTD
INCLUDELIB OLDNAMES

PUBLIC	?overload_session_destroy_functions@@YGXXZ	; overload_session_destroy_functions
PUBLIC	?__LINE__Var@?0??destroy_local@@YGXPAUENTITY@@@Z@4JA ; `destroy_local'::`1'::__LINE__Var
PUBLIC	??_C@_0EO@KPGIKCO@c?3?2users?2nhv90?2projects?2eech?2ap@ ; `string'
PUBLIC	??_C@_0BN@MFFOLPHI@?$CBraw?9?$DOforce_root?4first_child@ ; `string'
PUBLIC	?__LINE__Var@?0??destroy_server@@YGXPAUENTITY@@@Z@4JA ; `destroy_server'::`1'::__LINE__Var
PUBLIC	??_C@_0CC@BNNNEGEG@assert_client_server_remote_fn?5@ ; `string'
PUBLIC	??_C@_0CB@CFOCLFOK@assert_client_server_local_fn?5?$CI@ ; `string'
PUBLIC	?__LINE__Var@?0??destroy_client@@YGXPAUENTITY@@@Z@4JA ; `destroy_client'::`1'::__LINE__Var
PUBLIC	?__LINE__Var@?0??destroy_server_family@@YGXPAUENTITY@@@Z@4JA ; `destroy_server_family'::`1'::__LINE__Var
EXTRN	?process_assert@@YGXPBD0H@Z:PROC		; process_assert
EXTRN	?free_mem@@YGXPAX@Z:PROC			; free_mem
EXTRN	?delete_local_entity_from_parents_child_list@@YGXPAUENTITY@@W4LIST_TYPES@@@Z:PROC ; delete_local_entity_from_parents_child_list
EXTRN	?unlink_local_entity_children@@YGXPAUENTITY@@W4LIST_TYPES@@@Z:PROC ; unlink_local_entity_children
EXTRN	?destroy_local_entity@@YGXPAUENTITY@@@Z:PROC	; destroy_local_entity
EXTRN	?destroy_local_entity_children@@YGXPAUENTITY@@W4LIST_TYPES@@@Z:PROC ; destroy_local_entity_children
EXTRN	?destroy_client_server_entity_children@@YGXPAUENTITY@@W4LIST_TYPES@@@Z:PROC ; destroy_client_server_entity_children
EXTRN	?transmit_entity_comms_message@@YAXW4ENTITY_COMMS_MESSAGES@@PAUENTITY@@ZZ:PROC ; transmit_entity_comms_message
EXTRN	?assert_client_server_local_fn@@YGHXZ:PROC	; assert_client_server_local_fn
EXTRN	?assert_client_server_remote_fn@@YGHXZ:PROC	; assert_client_server_remote_fn
EXTRN	?set_free_entity@@YGXPAUENTITY@@@Z:PROC		; set_free_entity
EXTRN	?destroy_local_sound_effects@@YGXPAUENTITY@@@Z:PROC ; destroy_local_sound_effects
EXTRN	?destroy_client_server_sound_effects@@YGXPAUENTITY@@@Z:PROC ; destroy_client_server_sound_effects
EXTRN	?set_session_entity@@YGXPAUENTITY@@@Z:PROC	; set_session_entity
EXTRN	?null_entity_pointer_message@@3PBDB:DWORD	; null_entity_pointer_message
EXTRN	?system_comms_model@@3W4COMMS_MODEL_TYPES@@A:DWORD ; system_comms_model
EXTRN	?system_comms_data_flow@@3W4COMMS_DATA_FLOW_TYPES@@A:DWORD ; system_comms_data_flow
EXTRN	?fn_destroy_local_entity@@3PAP6GXPAUENTITY@@@ZA:BYTE ; fn_destroy_local_entity
EXTRN	?fn_destroy_client_server_entity@@3PAY01P6GXPAUENTITY@@@ZA:BYTE ; fn_destroy_client_server_entity
EXTRN	?fn_destroy_local_entity_family@@3PAP6GXPAUENTITY@@@ZA:BYTE ; fn_destroy_local_entity_family
EXTRN	?fn_destroy_client_server_entity_family@@3PAY01P6GXPAUENTITY@@@ZA:BYTE ; fn_destroy_client_server_entity_family
EXTRN	?fn_kill_local_entity@@3PAP6GXPAUENTITY@@@ZA:BYTE ; fn_kill_local_entity
EXTRN	?fn_kill_client_server_entity@@3PAY01P6GXPAUENTITY@@@ZA:BYTE ; fn_kill_client_server_entity
;	COMDAT ?__LINE__Var@?0??destroy_server_family@@YGXPAUENTITY@@@Z@4JA
_DATA	SEGMENT
?__LINE__Var@?0??destroy_server_family@@YGXPAUENTITY@@@Z@4JA DD 0d7H ; `destroy_server_family'::`1'::__LINE__Var
_DATA	ENDS
;	COMDAT ?__LINE__Var@?0??destroy_client@@YGXPAUENTITY@@@Z@4JA
_DATA	SEGMENT
?__LINE__Var@?0??destroy_client@@YGXPAUENTITY@@@Z@4JA DD 0b2H ; `destroy_client'::`1'::__LINE__Var
_DATA	ENDS
;	COMDAT ??_C@_0CB@CFOCLFOK@assert_client_server_local_fn?5?$CI@
CONST	SEGMENT
??_C@_0CB@CFOCLFOK@assert_client_server_local_fn?5?$CI@ DB 'assert_client'
	DB	'_server_local_fn ()', 00H			; `string'
CONST	ENDS
;	COMDAT ??_C@_0CC@BNNNEGEG@assert_client_server_remote_fn?5@
CONST	SEGMENT
??_C@_0CC@BNNNEGEG@assert_client_server_remote_fn?5@ DB 'assert_client_se'
	DB	'rver_remote_fn ()', 00H			; `string'
CONST	ENDS
;	COMDAT ?__LINE__Var@?0??destroy_server@@YGXPAUENTITY@@@Z@4JA
_DATA	SEGMENT
?__LINE__Var@?0??destroy_server@@YGXPAUENTITY@@@Z@4JA DD 09bH ; `destroy_server'::`1'::__LINE__Var
_DATA	ENDS
;	COMDAT ??_C@_0BN@MFFOLPHI@?$CBraw?9?$DOforce_root?4first_child@
CONST	SEGMENT
??_C@_0BN@MFFOLPHI@?$CBraw?9?$DOforce_root?4first_child@ DB '!raw->force_'
	DB	'root.first_child', 00H			; `string'
CONST	ENDS
;	COMDAT ??_C@_0EO@KPGIKCO@c?3?2users?2nhv90?2projects?2eech?2ap@
CONST	SEGMENT
??_C@_0EO@KPGIKCO@c?3?2users?2nhv90?2projects?2eech?2ap@ DB 'c:\users\nhv'
	DB	'90\projects\eech\aphavoc\source\entity\special\session\ss_dst'
	DB	'ry.c', 00H					; `string'
CONST	ENDS
;	COMDAT ?__LINE__Var@?0??destroy_local@@YGXPAUENTITY@@@Z@4JA
_DATA	SEGMENT
?__LINE__Var@?0??destroy_local@@YGXPAUENTITY@@@Z@4JA DD 050H ; `destroy_local'::`1'::__LINE__Var
_DATA	ENDS
; Function compile flags: /Odtp /ZI
; File c:\users\nhv90\projects\eech\aphavoc\source\entity\special\session\ss_dstry.c
;	COMDAT ?destroy_client_family@@YGXPAUENTITY@@@Z
_TEXT	SEGMENT
_en$ = 8						; size = 4
?destroy_client_family@@YGXPAUENTITY@@@Z PROC		; destroy_client_family, COMDAT

; 228  : {

  00000	55		 push	 ebp
  00001	8b ec		 mov	 ebp, esp
  00003	83 ec 40	 sub	 esp, 64			; 00000040H
  00006	53		 push	 ebx
  00007	56		 push	 esi
  00008	57		 push	 edi

; 229  : 	#if DEBUG_MODULE
; 230  : 
; 231  : 	debug_log_entity_args (ENTITY_DEBUG_REMOTE, ENTITY_DEBUG_DESTROY_FAMILY, en);
; 232  : 
; 233  : 	#endif
; 234  : 
; 235  : 	transmit_entity_comms_message (ENTITY_COMMS_DESTROY_FAMILY, en);

  00009	8b 45 08	 mov	 eax, DWORD PTR _en$[ebp]
  0000c	50		 push	 eax
  0000d	6a 13		 push	 19			; 00000013H
  0000f	e8 00 00 00 00	 call	 ?transmit_entity_comms_message@@YAXW4ENTITY_COMMS_MESSAGES@@PAUENTITY@@ZZ ; transmit_entity_comms_message
  00014	83 c4 08	 add	 esp, 8

; 236  : }

  00017	5f		 pop	 edi
  00018	5e		 pop	 esi
  00019	5b		 pop	 ebx
  0001a	8b e5		 mov	 esp, ebp
  0001c	5d		 pop	 ebp
  0001d	c2 04 00	 ret	 4
?destroy_client_family@@YGXPAUENTITY@@@Z ENDP		; destroy_client_family
_TEXT	ENDS
; Function compile flags: /Odtp /ZI
; File c:\users\nhv90\projects\eech\aphavoc\source\entity\special\session\ss_dstry.c
;	COMDAT ?destroy_server_family@@YGXPAUENTITY@@@Z
_TEXT	SEGMENT
tv73 = -68						; size = 4
_en$ = 8						; size = 4
?destroy_server_family@@YGXPAUENTITY@@@Z PROC		; destroy_server_family, COMDAT

; 215  : {

  00000	55		 push	 ebp
  00001	8b ec		 mov	 ebp, esp
  00003	83 ec 44	 sub	 esp, 68			; 00000044H
  00006	53		 push	 ebx
  00007	56		 push	 esi
  00008	57		 push	 edi

; 216  : 	destroy_client_server_entity_children (en, LIST_TYPE_FORCE);

  00009	6a 0e		 push	 14			; 0000000eH
  0000b	8b 45 08	 mov	 eax, DWORD PTR _en$[ebp]
  0000e	50		 push	 eax
  0000f	e8 00 00 00 00	 call	 ?destroy_client_server_entity_children@@YGXPAUENTITY@@W4LIST_TYPES@@@Z ; destroy_client_server_entity_children

; 217  : 
; 218  : 	destroy_client_server_sound_effects (en);

  00014	8b 45 08	 mov	 eax, DWORD PTR _en$[ebp]
  00017	50		 push	 eax
  00018	e8 00 00 00 00	 call	 ?destroy_client_server_sound_effects@@YGXPAUENTITY@@@Z ; destroy_client_server_sound_effects

; 219  : 
; 220  : 	destroy_client_server_entity (en);

  0001d	83 7d 08 00	 cmp	 DWORD PTR _en$[ebp], 0
  00021	74 0a		 je	 SHORT $LN3@destroy_se
  00023	8b 45 08	 mov	 eax, DWORD PTR _en$[ebp]
  00026	8b 08		 mov	 ecx, DWORD PTR [eax]
  00028	89 4d bc	 mov	 DWORD PTR tv73[ebp], ecx
  0002b	eb 21		 jmp	 SHORT $LN4@destroy_se
$LN3@destroy_se:
  0002d	8b 15 00 00 00
	00		 mov	 edx, DWORD PTR ?__LINE__Var@?0??destroy_server_family@@YGXPAUENTITY@@@Z@4JA
  00033	83 c2 05	 add	 edx, 5
  00036	52		 push	 edx
  00037	68 00 00 00 00	 push	 OFFSET ??_C@_0EO@KPGIKCO@c?3?2users?2nhv90?2projects?2eech?2ap@
  0003c	a1 00 00 00 00	 mov	 eax, DWORD PTR ?null_entity_pointer_message@@3PBDB ; null_entity_pointer_message
  00041	50		 push	 eax
  00042	e8 00 00 00 00	 call	 ?process_assert@@YGXPBD0H@Z ; process_assert
  00047	c7 45 bc 00 00
	00 00		 mov	 DWORD PTR tv73[ebp], 0
$LN4@destroy_se:
  0004e	8b 4d 08	 mov	 ecx, DWORD PTR _en$[ebp]
  00051	51		 push	 ecx
  00052	8b 15 00 00 00
	00		 mov	 edx, DWORD PTR ?system_comms_model@@3W4COMMS_MODEL_TYPES@@A ; system_comms_model
  00058	c1 e2 02	 shl	 edx, 2
  0005b	8b 45 bc	 mov	 eax, DWORD PTR tv73[ebp]
  0005e	8b 8c c2 00 00
	00 00		 mov	 ecx, DWORD PTR ?fn_destroy_client_server_entity@@3PAY01P6GXPAUENTITY@@@ZA[edx+eax*8]
  00065	ff d1		 call	 ecx

; 221  : }

  00067	5f		 pop	 edi
  00068	5e		 pop	 esi
  00069	5b		 pop	 ebx
  0006a	8b e5		 mov	 esp, ebp
  0006c	5d		 pop	 ebp
  0006d	c2 04 00	 ret	 4
?destroy_server_family@@YGXPAUENTITY@@@Z ENDP		; destroy_server_family
_TEXT	ENDS
; Function compile flags: /Odtp /ZI
; File c:\users\nhv90\projects\eech\aphavoc\source\entity\special\session\ss_dstry.c
;	COMDAT ?destroy_local_family@@YGXPAUENTITY@@@Z
_TEXT	SEGMENT
_en$ = 8						; size = 4
?destroy_local_family@@YGXPAUENTITY@@@Z PROC		; destroy_local_family, COMDAT

; 202  : {

  00000	55		 push	 ebp
  00001	8b ec		 mov	 ebp, esp
  00003	83 ec 40	 sub	 esp, 64			; 00000040H
  00006	53		 push	 ebx
  00007	56		 push	 esi
  00008	57		 push	 edi

; 203  : 	destroy_local_entity_children (en, LIST_TYPE_FORCE);

  00009	6a 0e		 push	 14			; 0000000eH
  0000b	8b 45 08	 mov	 eax, DWORD PTR _en$[ebp]
  0000e	50		 push	 eax
  0000f	e8 00 00 00 00	 call	 ?destroy_local_entity_children@@YGXPAUENTITY@@W4LIST_TYPES@@@Z ; destroy_local_entity_children

; 204  : 
; 205  : 	destroy_local_sound_effects (en);

  00014	8b 45 08	 mov	 eax, DWORD PTR _en$[ebp]
  00017	50		 push	 eax
  00018	e8 00 00 00 00	 call	 ?destroy_local_sound_effects@@YGXPAUENTITY@@@Z ; destroy_local_sound_effects

; 206  : 
; 207  : 	destroy_local_entity (en);

  0001d	8b 45 08	 mov	 eax, DWORD PTR _en$[ebp]
  00020	50		 push	 eax
  00021	e8 00 00 00 00	 call	 ?destroy_local_entity@@YGXPAUENTITY@@@Z ; destroy_local_entity

; 208  : }

  00026	5f		 pop	 edi
  00027	5e		 pop	 esi
  00028	5b		 pop	 ebx
  00029	8b e5		 mov	 esp, ebp
  0002b	5d		 pop	 ebp
  0002c	c2 04 00	 ret	 4
?destroy_local_family@@YGXPAUENTITY@@@Z ENDP		; destroy_local_family
_TEXT	ENDS
; Function compile flags: /Odtp /ZI
; File c:\users\nhv90\projects\eech\aphavoc\source\entity\special\session\ss_dstry.c
;	COMDAT ?destroy_client@@YGXPAUENTITY@@@Z
_TEXT	SEGMENT
_en$ = 8						; size = 4
?destroy_client@@YGXPAUENTITY@@@Z PROC			; destroy_client, COMDAT

; 178  : {

  00000	55		 push	 ebp
  00001	8b ec		 mov	 ebp, esp
  00003	83 ec 40	 sub	 esp, 64			; 00000040H
  00006	53		 push	 ebx
  00007	56		 push	 esi
  00008	57		 push	 edi

; 179  : 	if (get_comms_data_flow () == COMMS_DATA_FLOW_TX)

  00009	83 3d 00 00 00
	00 00		 cmp	 DWORD PTR ?system_comms_data_flow@@3W4COMMS_DATA_FLOW_TYPES@@A, 0 ; system_comms_data_flow
  00010	75 2c		 jne	 SHORT $LN2@destroy_cl

; 180  : 	{
; 181  : 		validate_client_server_remote_fn ();

  00012	e8 00 00 00 00	 call	 ?assert_client_server_remote_fn@@YGHXZ ; assert_client_server_remote_fn
  00017	85 c0		 test	 eax, eax
  00019	75 18		 jne	 SHORT $LN4@destroy_cl
  0001b	a1 00 00 00 00	 mov	 eax, DWORD PTR ?__LINE__Var@?0??destroy_client@@YGXPAUENTITY@@@Z@4JA
  00020	83 c0 03	 add	 eax, 3
  00023	50		 push	 eax
  00024	68 00 00 00 00	 push	 OFFSET ??_C@_0EO@KPGIKCO@c?3?2users?2nhv90?2projects?2eech?2ap@
  00029	68 00 00 00 00	 push	 OFFSET ??_C@_0CC@BNNNEGEG@assert_client_server_remote_fn?5@
  0002e	e8 00 00 00 00	 call	 ?process_assert@@YGXPBD0H@Z ; process_assert
$LN4@destroy_cl:

; 182  : 
; 183  : 		destroy_remote (en);

  00033	8b 45 08	 mov	 eax, DWORD PTR _en$[ebp]
  00036	50		 push	 eax
  00037	e8 00 00 00 00	 call	 ?destroy_remote@@YGXPAUENTITY@@@Z ; destroy_remote

; 184  : 	}
; 185  : 	else

  0003c	eb 2a		 jmp	 SHORT $LN1@destroy_cl
$LN2@destroy_cl:

; 186  : 	{
; 187  : 		validate_client_server_local_fn ();

  0003e	e8 00 00 00 00	 call	 ?assert_client_server_local_fn@@YGHXZ ; assert_client_server_local_fn
  00043	85 c0		 test	 eax, eax
  00045	75 18		 jne	 SHORT $LN5@destroy_cl
  00047	a1 00 00 00 00	 mov	 eax, DWORD PTR ?__LINE__Var@?0??destroy_client@@YGXPAUENTITY@@@Z@4JA
  0004c	83 c0 09	 add	 eax, 9
  0004f	50		 push	 eax
  00050	68 00 00 00 00	 push	 OFFSET ??_C@_0EO@KPGIKCO@c?3?2users?2nhv90?2projects?2eech?2ap@
  00055	68 00 00 00 00	 push	 OFFSET ??_C@_0CB@CFOCLFOK@assert_client_server_local_fn?5?$CI@
  0005a	e8 00 00 00 00	 call	 ?process_assert@@YGXPBD0H@Z ; process_assert
$LN5@destroy_cl:

; 188  : 
; 189  : 		//
; 190  : 		// destroy local using 'full' function
; 191  : 		//
; 192  : 
; 193  : 		destroy_local_entity (en);

  0005f	8b 45 08	 mov	 eax, DWORD PTR _en$[ebp]
  00062	50		 push	 eax
  00063	e8 00 00 00 00	 call	 ?destroy_local_entity@@YGXPAUENTITY@@@Z ; destroy_local_entity
$LN1@destroy_cl:

; 194  : 	}
; 195  : }

  00068	5f		 pop	 edi
  00069	5e		 pop	 esi
  0006a	5b		 pop	 ebx
  0006b	8b e5		 mov	 esp, ebp
  0006d	5d		 pop	 ebp
  0006e	c2 04 00	 ret	 4
?destroy_client@@YGXPAUENTITY@@@Z ENDP			; destroy_client
_TEXT	ENDS
; Function compile flags: /Odtp /ZI
; File c:\users\nhv90\projects\eech\aphavoc\source\entity\special\session\ss_dstry.c
;	COMDAT ?destroy_server@@YGXPAUENTITY@@@Z
_TEXT	SEGMENT
_en$ = 8						; size = 4
?destroy_server@@YGXPAUENTITY@@@Z PROC			; destroy_server, COMDAT

; 155  : {

  00000	55		 push	 ebp
  00001	8b ec		 mov	 ebp, esp
  00003	83 ec 40	 sub	 esp, 64			; 00000040H
  00006	53		 push	 ebx
  00007	56		 push	 esi
  00008	57		 push	 edi

; 156  : 	//
; 157  : 	// destroy remote entity first (keeping local entity valid)
; 158  : 	//
; 159  : 
; 160  : 	validate_client_server_remote_fn ();

  00009	e8 00 00 00 00	 call	 ?assert_client_server_remote_fn@@YGHXZ ; assert_client_server_remote_fn
  0000e	85 c0		 test	 eax, eax
  00010	75 18		 jne	 SHORT $LN2@destroy_se
  00012	a1 00 00 00 00	 mov	 eax, DWORD PTR ?__LINE__Var@?0??destroy_server@@YGXPAUENTITY@@@Z@4JA
  00017	83 c0 05	 add	 eax, 5
  0001a	50		 push	 eax
  0001b	68 00 00 00 00	 push	 OFFSET ??_C@_0EO@KPGIKCO@c?3?2users?2nhv90?2projects?2eech?2ap@
  00020	68 00 00 00 00	 push	 OFFSET ??_C@_0CC@BNNNEGEG@assert_client_server_remote_fn?5@
  00025	e8 00 00 00 00	 call	 ?process_assert@@YGXPBD0H@Z ; process_assert
$LN2@destroy_se:

; 161  : 
; 162  : 	destroy_remote (en);

  0002a	8b 45 08	 mov	 eax, DWORD PTR _en$[ebp]
  0002d	50		 push	 eax
  0002e	e8 00 00 00 00	 call	 ?destroy_remote@@YGXPAUENTITY@@@Z ; destroy_remote

; 163  : 
; 164  : 	validate_client_server_local_fn ();

  00033	e8 00 00 00 00	 call	 ?assert_client_server_local_fn@@YGHXZ ; assert_client_server_local_fn
  00038	85 c0		 test	 eax, eax
  0003a	75 18		 jne	 SHORT $LN3@destroy_se
  0003c	a1 00 00 00 00	 mov	 eax, DWORD PTR ?__LINE__Var@?0??destroy_server@@YGXPAUENTITY@@@Z@4JA
  00041	83 c0 09	 add	 eax, 9
  00044	50		 push	 eax
  00045	68 00 00 00 00	 push	 OFFSET ??_C@_0EO@KPGIKCO@c?3?2users?2nhv90?2projects?2eech?2ap@
  0004a	68 00 00 00 00	 push	 OFFSET ??_C@_0CB@CFOCLFOK@assert_client_server_local_fn?5?$CI@
  0004f	e8 00 00 00 00	 call	 ?process_assert@@YGXPBD0H@Z ; process_assert
$LN3@destroy_se:

; 165  : 
; 166  : 	//
; 167  : 	// destroy local using 'full' function
; 168  : 	//
; 169  : 
; 170  : 	destroy_local_entity (en);

  00054	8b 45 08	 mov	 eax, DWORD PTR _en$[ebp]
  00057	50		 push	 eax
  00058	e8 00 00 00 00	 call	 ?destroy_local_entity@@YGXPAUENTITY@@@Z ; destroy_local_entity

; 171  : }

  0005d	5f		 pop	 edi
  0005e	5e		 pop	 esi
  0005f	5b		 pop	 ebx
  00060	8b e5		 mov	 esp, ebp
  00062	5d		 pop	 ebp
  00063	c2 04 00	 ret	 4
?destroy_server@@YGXPAUENTITY@@@Z ENDP			; destroy_server
_TEXT	ENDS
; Function compile flags: /Odtp /ZI
; File c:\users\nhv90\projects\eech\aphavoc\source\entity\special\session\ss_dstry.c
;	COMDAT ?destroy_remote@@YGXPAUENTITY@@@Z
_TEXT	SEGMENT
_en$ = 8						; size = 4
?destroy_remote@@YGXPAUENTITY@@@Z PROC			; destroy_remote, COMDAT

; 140  : {

  00000	55		 push	 ebp
  00001	8b ec		 mov	 ebp, esp
  00003	83 ec 40	 sub	 esp, 64			; 00000040H
  00006	53		 push	 ebx
  00007	56		 push	 esi
  00008	57		 push	 edi

; 141  : 	#if DEBUG_MODULE
; 142  : 
; 143  : 	debug_log_entity_args (ENTITY_DEBUG_REMOTE, ENTITY_DEBUG_DESTROY, en);
; 144  : 
; 145  : 	#endif
; 146  : 
; 147  : 	transmit_entity_comms_message (ENTITY_COMMS_DESTROY, en);

  00009	8b 45 08	 mov	 eax, DWORD PTR _en$[ebp]
  0000c	50		 push	 eax
  0000d	6a 12		 push	 18			; 00000012H
  0000f	e8 00 00 00 00	 call	 ?transmit_entity_comms_message@@YAXW4ENTITY_COMMS_MESSAGES@@PAUENTITY@@ZZ ; transmit_entity_comms_message
  00014	83 c4 08	 add	 esp, 8

; 148  : }

  00017	5f		 pop	 edi
  00018	5e		 pop	 esi
  00019	5b		 pop	 ebx
  0001a	8b e5		 mov	 esp, ebp
  0001c	5d		 pop	 ebp
  0001d	c2 04 00	 ret	 4
?destroy_remote@@YGXPAUENTITY@@@Z ENDP			; destroy_remote
_TEXT	ENDS
; Function compile flags: /Odtp /ZI
; File c:\users\nhv90\projects\eech\aphavoc\source\entity\special\session\ss_dstry.c
;	COMDAT ?destroy_local@@YGXPAUENTITY@@@Z
_TEXT	SEGMENT
_raw$ = -4						; size = 4
_en$ = 8						; size = 4
?destroy_local@@YGXPAUENTITY@@@Z PROC			; destroy_local, COMDAT

; 80   : {

  00000	55		 push	 ebp
  00001	8b ec		 mov	 ebp, esp
  00003	83 ec 44	 sub	 esp, 68			; 00000044H
  00006	53		 push	 ebx
  00007	56		 push	 esi
  00008	57		 push	 edi

; 81   : 	session
; 82   : 		*raw;
; 83   : 
; 84   : 	////////////////////////////////////////
; 85   : 	//
; 86   : 	// PRE-AMBLE
; 87   : 	//
; 88   : 	////////////////////////////////////////
; 89   : 
; 90   : 	#if DEBUG_MODULE
; 91   : 
; 92   : 	debug_log_entity_args (ENTITY_DEBUG_LOCAL, ENTITY_DEBUG_DESTROY, en);
; 93   : 
; 94   : 	#endif
; 95   : 
; 96   : 	raw = (session *) get_local_entity_data (en);

  00009	8b 45 08	 mov	 eax, DWORD PTR _en$[ebp]
  0000c	8b 48 04	 mov	 ecx, DWORD PTR [eax+4]
  0000f	89 4d fc	 mov	 DWORD PTR _raw$[ebp], ecx

; 97   : 
; 98   : 	////////////////////////////////////////
; 99   : 	//
; 100  : 	// VALIDATE
; 101  : 	//
; 102  : 	////////////////////////////////////////
; 103  : 
; 104  : 	ASSERT (!raw->force_root.first_child);

  00012	8b 45 fc	 mov	 eax, DWORD PTR _raw$[ebp]
  00015	83 78 04 00	 cmp	 DWORD PTR [eax+4], 0
  00019	74 18		 je	 SHORT $LN2@destroy_lo
  0001b	a1 00 00 00 00	 mov	 eax, DWORD PTR ?__LINE__Var@?0??destroy_local@@YGXPAUENTITY@@@Z@4JA
  00020	83 c0 18	 add	 eax, 24			; 00000018H
  00023	50		 push	 eax
  00024	68 00 00 00 00	 push	 OFFSET ??_C@_0EO@KPGIKCO@c?3?2users?2nhv90?2projects?2eech?2ap@
  00029	68 00 00 00 00	 push	 OFFSET ??_C@_0BN@MFFOLPHI@?$CBraw?9?$DOforce_root?4first_child@
  0002e	e8 00 00 00 00	 call	 ?process_assert@@YGXPBD0H@Z ; process_assert
$LN2@destroy_lo:

; 105  : 
; 106  : 	////////////////////////////////////////
; 107  : 	//
; 108  : 	// DESTROY COMPONENTS
; 109  : 	//
; 110  : 	////////////////////////////////////////
; 111  : 
; 112  : 	////////////////////////////////////////
; 113  : 	//
; 114  : 	// UNLINK FROM SYSTEM
; 115  : 	//
; 116  : 	////////////////////////////////////////
; 117  : 
; 118  : 	delete_local_entity_from_parents_child_list (en, LIST_TYPE_UPDATE);

  00033	6a 29		 push	 41			; 00000029H
  00035	8b 45 08	 mov	 eax, DWORD PTR _en$[ebp]
  00038	50		 push	 eax
  00039	e8 00 00 00 00	 call	 ?delete_local_entity_from_parents_child_list@@YGXPAUENTITY@@W4LIST_TYPES@@@Z ; delete_local_entity_from_parents_child_list

; 119  : 
; 120  : 	unlink_local_entity_children (en, LIST_TYPE_SPECIAL_EFFECT);

  0003e	6a 24		 push	 36			; 00000024H
  00040	8b 45 08	 mov	 eax, DWORD PTR _en$[ebp]
  00043	50		 push	 eax
  00044	e8 00 00 00 00	 call	 ?unlink_local_entity_children@@YGXPAUENTITY@@W4LIST_TYPES@@@Z ; unlink_local_entity_children

; 121  : 
; 122  : 	set_session_entity (NULL);

  00049	6a 00		 push	 0
  0004b	e8 00 00 00 00	 call	 ?set_session_entity@@YGXPAUENTITY@@@Z ; set_session_entity

; 123  : 
; 124  : 	////////////////////////////////////////
; 125  : 	//
; 126  : 	// FREE ENTITY DATA
; 127  : 	//
; 128  : 	////////////////////////////////////////
; 129  : 
; 130  : 	free_mem (raw);

  00050	8b 45 fc	 mov	 eax, DWORD PTR _raw$[ebp]
  00053	50		 push	 eax
  00054	e8 00 00 00 00	 call	 ?free_mem@@YGXPAX@Z	; free_mem

; 131  : 
; 132  : 	set_free_entity (en);

  00059	8b 45 08	 mov	 eax, DWORD PTR _en$[ebp]
  0005c	50		 push	 eax
  0005d	e8 00 00 00 00	 call	 ?set_free_entity@@YGXPAUENTITY@@@Z ; set_free_entity

; 133  : }

  00062	5f		 pop	 edi
  00063	5e		 pop	 esi
  00064	5b		 pop	 ebx
  00065	8b e5		 mov	 esp, ebp
  00067	5d		 pop	 ebp
  00068	c2 04 00	 ret	 4
?destroy_local@@YGXPAUENTITY@@@Z ENDP			; destroy_local
_TEXT	ENDS
; Function compile flags: /Odtp /ZI
; File c:\users\nhv90\projects\eech\aphavoc\source\entity\special\session\ss_dstry.c
;	COMDAT ?overload_session_destroy_functions@@YGXXZ
_TEXT	SEGMENT
?overload_session_destroy_functions@@YGXXZ PROC		; overload_session_destroy_functions, COMDAT

; 243  : {

  00000	55		 push	 ebp
  00001	8b ec		 mov	 ebp, esp
  00003	83 ec 40	 sub	 esp, 64			; 00000040H
  00006	53		 push	 ebx
  00007	56		 push	 esi
  00008	57		 push	 edi

; 244  : 	fn_destroy_local_entity						[ENTITY_TYPE_SESSION]							= destroy_local;

  00009	b8 04 00 00 00	 mov	 eax, 4
  0000e	6b c8 1b	 imul	 ecx, eax, 27
  00011	c7 81 00 00 00
	00 00 00 00 00	 mov	 DWORD PTR ?fn_destroy_local_entity@@3PAP6GXPAUENTITY@@@ZA[ecx], OFFSET ?destroy_local@@YGXPAUENTITY@@@Z ; destroy_local

; 245  : 	fn_destroy_client_server_entity			[ENTITY_TYPE_SESSION][COMMS_MODEL_SERVER]	= destroy_server;

  0001b	b8 08 00 00 00	 mov	 eax, 8
  00020	6b c8 1b	 imul	 ecx, eax, 27
  00023	ba 04 00 00 00	 mov	 edx, 4
  00028	6b c2 00	 imul	 eax, edx, 0
  0002b	c7 84 01 00 00
	00 00 00 00 00
	00		 mov	 DWORD PTR ?fn_destroy_client_server_entity@@3PAY01P6GXPAUENTITY@@@ZA[ecx+eax], OFFSET ?destroy_server@@YGXPAUENTITY@@@Z ; destroy_server

; 246  : 	fn_destroy_client_server_entity			[ENTITY_TYPE_SESSION][COMMS_MODEL_CLIENT]	= destroy_client;

  00036	b8 08 00 00 00	 mov	 eax, 8
  0003b	6b c8 1b	 imul	 ecx, eax, 27
  0003e	ba 04 00 00 00	 mov	 edx, 4
  00043	c1 e2 00	 shl	 edx, 0
  00046	c7 84 11 00 00
	00 00 00 00 00
	00		 mov	 DWORD PTR ?fn_destroy_client_server_entity@@3PAY01P6GXPAUENTITY@@@ZA[ecx+edx], OFFSET ?destroy_client@@YGXPAUENTITY@@@Z ; destroy_client

; 247  : 
; 248  : 	fn_destroy_local_entity_family			[ENTITY_TYPE_SESSION]							= destroy_local_family;

  00051	b8 04 00 00 00	 mov	 eax, 4
  00056	6b c8 1b	 imul	 ecx, eax, 27
  00059	c7 81 00 00 00
	00 00 00 00 00	 mov	 DWORD PTR ?fn_destroy_local_entity_family@@3PAP6GXPAUENTITY@@@ZA[ecx], OFFSET ?destroy_local_family@@YGXPAUENTITY@@@Z ; destroy_local_family

; 249  : 	fn_destroy_client_server_entity_family	[ENTITY_TYPE_SESSION][COMMS_MODEL_SERVER]	= destroy_server_family;

  00063	b8 08 00 00 00	 mov	 eax, 8
  00068	6b c8 1b	 imul	 ecx, eax, 27
  0006b	ba 04 00 00 00	 mov	 edx, 4
  00070	6b c2 00	 imul	 eax, edx, 0
  00073	c7 84 01 00 00
	00 00 00 00 00
	00		 mov	 DWORD PTR ?fn_destroy_client_server_entity_family@@3PAY01P6GXPAUENTITY@@@ZA[ecx+eax], OFFSET ?destroy_server_family@@YGXPAUENTITY@@@Z ; destroy_server_family

; 250  : 	fn_destroy_client_server_entity_family	[ENTITY_TYPE_SESSION][COMMS_MODEL_CLIENT]	= destroy_client_family;

  0007e	b8 08 00 00 00	 mov	 eax, 8
  00083	6b c8 1b	 imul	 ecx, eax, 27
  00086	ba 04 00 00 00	 mov	 edx, 4
  0008b	c1 e2 00	 shl	 edx, 0
  0008e	c7 84 11 00 00
	00 00 00 00 00
	00		 mov	 DWORD PTR ?fn_destroy_client_server_entity_family@@3PAY01P6GXPAUENTITY@@@ZA[ecx+edx], OFFSET ?destroy_client_family@@YGXPAUENTITY@@@Z ; destroy_client_family

; 251  : 
; 252  : 	fn_kill_local_entity							[ENTITY_TYPE_SESSION]							= destroy_local_family;

  00099	b8 04 00 00 00	 mov	 eax, 4
  0009e	6b c8 1b	 imul	 ecx, eax, 27
  000a1	c7 81 00 00 00
	00 00 00 00 00	 mov	 DWORD PTR ?fn_kill_local_entity@@3PAP6GXPAUENTITY@@@ZA[ecx], OFFSET ?destroy_local_family@@YGXPAUENTITY@@@Z ; destroy_local_family

; 253  : 	fn_kill_client_server_entity				[ENTITY_TYPE_SESSION][COMMS_MODEL_SERVER]	= destroy_server_family;

  000ab	b8 08 00 00 00	 mov	 eax, 8
  000b0	6b c8 1b	 imul	 ecx, eax, 27
  000b3	ba 04 00 00 00	 mov	 edx, 4
  000b8	6b c2 00	 imul	 eax, edx, 0
  000bb	c7 84 01 00 00
	00 00 00 00 00
	00		 mov	 DWORD PTR ?fn_kill_client_server_entity@@3PAY01P6GXPAUENTITY@@@ZA[ecx+eax], OFFSET ?destroy_server_family@@YGXPAUENTITY@@@Z ; destroy_server_family

; 254  : 	fn_kill_client_server_entity				[ENTITY_TYPE_SESSION][COMMS_MODEL_CLIENT]	= destroy_client_family;

  000c6	b8 08 00 00 00	 mov	 eax, 8
  000cb	6b c8 1b	 imul	 ecx, eax, 27
  000ce	ba 04 00 00 00	 mov	 edx, 4
  000d3	c1 e2 00	 shl	 edx, 0
  000d6	c7 84 11 00 00
	00 00 00 00 00
	00		 mov	 DWORD PTR ?fn_kill_client_server_entity@@3PAY01P6GXPAUENTITY@@@ZA[ecx+edx], OFFSET ?destroy_client_family@@YGXPAUENTITY@@@Z ; destroy_client_family

; 255  : }

  000e1	5f		 pop	 edi
  000e2	5e		 pop	 esi
  000e3	5b		 pop	 ebx
  000e4	8b e5		 mov	 esp, ebp
  000e6	5d		 pop	 ebp
  000e7	c3		 ret	 0
?overload_session_destroy_functions@@YGXXZ ENDP		; overload_session_destroy_functions
_TEXT	ENDS
END
