; Listing generated by Microsoft (R) Optimizing Compiler Version 19.16.27045.0 

	TITLE	C:\Users\nhv90\Projects\eech\aphavoc\source\entity\special\session\ss_float.c
	.686P
	.XMM
	include listing.inc
	.model	flat

INCLUDELIB MSVCRTD
INCLUDELIB OLDNAMES

PUBLIC	?overload_session_float_value_functions@@YGXXZ	; overload_session_float_value_functions
PUBLIC	?__LINE__Var@?0??set_local_float_value@@YGXPAUENTITY@@W4FLOAT_TYPES@@M@Z@4JA ; `set_local_float_value'::`1'::__LINE__Var
PUBLIC	??_C@_0EO@GFHOKGKD@c?3?2users?2nhv90?2projects?2eech?2ap@ ; `string'
PUBLIC	?__LINE__Var@?0??set_server_float_value@@YGXPAUENTITY@@W4FLOAT_TYPES@@M@Z@4JA ; `set_server_float_value'::`1'::__LINE__Var
PUBLIC	??_C@_0CB@CFOCLFOK@assert_client_server_local_fn?5?$CI@ ; `string'
PUBLIC	??_C@_0CC@BNNNEGEG@assert_client_server_remote_fn?5@ ; `string'
PUBLIC	?__LINE__Var@?0??set_client_float_value@@YGXPAUENTITY@@W4FLOAT_TYPES@@M@Z@4JA ; `set_client_float_value'::`1'::__LINE__Var
PUBLIC	?__LINE__Var@?0??get_local_float_value@@YGMPAUENTITY@@W4FLOAT_TYPES@@@Z@4JA ; `get_local_float_value'::`1'::__LINE__Var
EXTRN	?process_assert@@YGXPBD0H@Z:PROC		; process_assert
EXTRN	?debug_fatal@@YAXPBDZZ:PROC			; debug_fatal
EXTRN	?transmit_entity_comms_message@@YAXW4ENTITY_COMMS_MESSAGES@@PAUENTITY@@ZZ:PROC ; transmit_entity_comms_message
EXTRN	?assert_client_server_local_fn@@YGHXZ:PROC	; assert_client_server_local_fn
EXTRN	?assert_client_server_remote_fn@@YGHXZ:PROC	; assert_client_server_remote_fn
EXTRN	?calculate_session_time_of_day@@YGMPAUENTITY@@PAH@Z:PROC ; calculate_session_time_of_day
EXTRN	?get_day_segment_type@@YG?AW4DAY_SEGMENT_TYPES@@M@Z:PROC ; get_day_segment_type
EXTRN	?null_entity_pointer_message@@3PBDB:DWORD	; null_entity_pointer_message
EXTRN	?entity_type_database@@3PAUENTITY_TYPE_DATA@@A:BYTE ; entity_type_database
EXTRN	?system_comms_data_flow@@3W4COMMS_DATA_FLOW_TYPES@@A:DWORD ; system_comms_data_flow
EXTRN	?float_type_database@@3PAUFLOAT_TYPE_DATA@@A:BYTE ; float_type_database
EXTRN	?debug_fatal_invalid_float_type_message@@3PBDB:DWORD ; debug_fatal_invalid_float_type_message
EXTRN	?fn_set_local_entity_raw_float_value@@3PAY0KP@P6GXPAUENTITY@@W4FLOAT_TYPES@@M@ZA:BYTE ; fn_set_local_entity_raw_float_value
EXTRN	?fn_set_local_entity_float_value@@3PAY0KP@P6GXPAUENTITY@@W4FLOAT_TYPES@@M@ZA:BYTE ; fn_set_local_entity_float_value
EXTRN	?fn_set_client_server_entity_float_value@@3PAY1KP@1P6GXPAUENTITY@@W4FLOAT_TYPES@@M@ZA:BYTE ; fn_set_client_server_entity_float_value
EXTRN	?fn_get_local_entity_float_value@@3PAY0KP@P6GMPAUENTITY@@W4FLOAT_TYPES@@@ZA:BYTE ; fn_get_local_entity_float_value
EXTRN	?entities@@3PAUENTITY@@A:DWORD			; entities
EXTRN	__fltused:DWORD
;	COMDAT ?__LINE__Var@?0??get_local_float_value@@YGMPAUENTITY@@W4FLOAT_TYPES@@@Z@4JA
_DATA	SEGMENT
?__LINE__Var@?0??get_local_float_value@@YGMPAUENTITY@@W4FLOAT_TYPES@@@Z@4JA DD 0122H ; `get_local_float_value'::`1'::__LINE__Var
_DATA	ENDS
;	COMDAT ?__LINE__Var@?0??set_client_float_value@@YGXPAUENTITY@@W4FLOAT_TYPES@@M@Z@4JA
_DATA	SEGMENT
?__LINE__Var@?0??set_client_float_value@@YGXPAUENTITY@@W4FLOAT_TYPES@@M@Z@4JA DD 010eH ; `set_client_float_value'::`1'::__LINE__Var
_DATA	ENDS
;	COMDAT ??_C@_0CC@BNNNEGEG@assert_client_server_remote_fn?5@
CONST	SEGMENT
??_C@_0CC@BNNNEGEG@assert_client_server_remote_fn?5@ DB 'assert_client_se'
	DB	'rver_remote_fn ()', 00H			; `string'
CONST	ENDS
;	COMDAT ??_C@_0CB@CFOCLFOK@assert_client_server_local_fn?5?$CI@
CONST	SEGMENT
??_C@_0CB@CFOCLFOK@assert_client_server_local_fn?5?$CI@ DB 'assert_client'
	DB	'_server_local_fn ()', 00H			; `string'
CONST	ENDS
;	COMDAT ?__LINE__Var@?0??set_server_float_value@@YGXPAUENTITY@@W4FLOAT_TYPES@@M@Z@4JA
_DATA	SEGMENT
?__LINE__Var@?0??set_server_float_value@@YGXPAUENTITY@@W4FLOAT_TYPES@@M@Z@4JA DD 0ffH ; `set_server_float_value'::`1'::__LINE__Var
_DATA	ENDS
;	COMDAT ??_C@_0EO@GFHOKGKD@c?3?2users?2nhv90?2projects?2eech?2ap@
CONST	SEGMENT
??_C@_0EO@GFHOKGKD@c?3?2users?2nhv90?2projects?2eech?2ap@ DB 'c:\users\nh'
	DB	'v90\projects\eech\aphavoc\source\entity\special\session\ss_fl'
	DB	'oat.c', 00H					; `string'
CONST	ENDS
;	COMDAT ?__LINE__Var@?0??set_local_float_value@@YGXPAUENTITY@@W4FLOAT_TYPES@@M@Z@4JA
_DATA	SEGMENT
?__LINE__Var@?0??set_local_float_value@@YGXPAUENTITY@@W4FLOAT_TYPES@@M@Z@4JA DD 050H ; `set_local_float_value'::`1'::__LINE__Var
_DATA	ENDS
; Function compile flags: /Odtp /ZI
; File c:\users\nhv90\projects\eech\aphavoc\source\entity\special\session\ss_float.c
;	COMDAT ?get_local_float_value@@YGMPAUENTITY@@W4FLOAT_TYPES@@@Z
_TEXT	SEGMENT
tv133 = -76						; size = 4
tv65 = -76						; size = 4
_value$ = -8						; size = 4
_raw$ = -4						; size = 4
_en$ = 8						; size = 4
_type$ = 12						; size = 4
?get_local_float_value@@YGMPAUENTITY@@W4FLOAT_TYPES@@@Z PROC ; get_local_float_value, COMDAT

; 290  : {

  00000	55		 push	 ebp
  00001	8b ec		 mov	 ebp, esp
  00003	83 ec 4c	 sub	 esp, 76			; 0000004cH
  00006	53		 push	 ebx
  00007	56		 push	 esi
  00008	57		 push	 edi

; 291  : 	session
; 292  : 		*raw;
; 293  : 
; 294  : 	float
; 295  : 		value;
; 296  : 
; 297  : 	raw = (session *) get_local_entity_data (en);

  00009	8b 45 08	 mov	 eax, DWORD PTR _en$[ebp]
  0000c	8b 48 04	 mov	 ecx, DWORD PTR [eax+4]
  0000f	89 4d fc	 mov	 DWORD PTR _raw$[ebp], ecx

; 298  : 
; 299  : 	switch (type)

  00012	8b 45 0c	 mov	 eax, DWORD PTR _type$[ebp]
  00015	89 45 b4	 mov	 DWORD PTR tv65[ebp], eax
  00018	8b 4d b4	 mov	 ecx, DWORD PTR tv65[ebp]
  0001b	83 e9 23	 sub	 ecx, 35			; 00000023H
  0001e	89 4d b4	 mov	 DWORD PTR tv65[ebp], ecx
  00021	81 7d b4 80 00
	00 00		 cmp	 DWORD PTR tv65[ebp], 128 ; 00000080H
  00028	0f 87 4d 01 00
	00		 ja	 $LN21@get_local_
  0002e	8b 55 b4	 mov	 edx, DWORD PTR tv65[ebp]
  00031	0f b6 82 00 00
	00 00		 movzx	 eax, BYTE PTR $LN25@get_local_[edx]
  00038	ff 24 85 00 00
	00 00		 jmp	 DWORD PTR $LN26@get_local_[eax*4]
$LN4@get_local_:

; 300  : 	{
; 301  : 		////////////////////////////////////////
; 302  : 		case FLOAT_TYPE_ELAPSED_TIME:
; 303  : 		////////////////////////////////////////
; 304  : 		{
; 305  : 			value = raw->elapsed_time;

  0003f	8b 45 fc	 mov	 eax, DWORD PTR _raw$[ebp]
  00042	f3 0f 10 40 1c	 movss	 xmm0, DWORD PTR [eax+28]
  00047	f3 0f 11 45 f8	 movss	 DWORD PTR _value$[ebp], xmm0

; 306  : 
; 307  : 			break;

  0004c	e9 a2 01 00 00	 jmp	 $LN2@get_local_
$LN5@get_local_:

; 308  : 		}
; 309  : 		////////////////////////////////////////
; 310  : 		case FLOAT_TYPE_FOG_OF_WAR_MAXIMUM_VALUE:
; 311  : 		////////////////////////////////////////
; 312  : 		{
; 313  : 			value = raw->fog_of_war_maximum_value;

  00051	8b 45 fc	 mov	 eax, DWORD PTR _raw$[ebp]
  00054	f3 0f 10 40 2c	 movss	 xmm0, DWORD PTR [eax+44]
  00059	f3 0f 11 45 f8	 movss	 DWORD PTR _value$[ebp], xmm0

; 314  : 
; 315  : 			break;

  0005e	e9 90 01 00 00	 jmp	 $LN2@get_local_
$LN6@get_local_:

; 316  : 		}
; 317  : 		////////////////////////////////////////
; 318  : 		case FLOAT_TYPE_LIGHTNING_TIMER:
; 319  : 		////////////////////////////////////////
; 320  : 		{
; 321  : 			value = raw->lightning_timer;

  00063	8b 45 fc	 mov	 eax, DWORD PTR _raw$[ebp]
  00066	f3 0f 10 40 20	 movss	 xmm0, DWORD PTR [eax+32]
  0006b	f3 0f 11 45 f8	 movss	 DWORD PTR _value$[ebp], xmm0

; 322  : 
; 323  : 			break;

  00070	e9 7e 01 00 00	 jmp	 $LN2@get_local_
$LN7@get_local_:

; 324  : 		}
; 325  : 		////////////////////////////////////////
; 326  : 		case FLOAT_TYPE_POPULATION_X_MIN:
; 327  : 		////////////////////////////////////////
; 328  : 		{
; 329  : 			value = raw->population_x_min;

  00075	8b 45 fc	 mov	 eax, DWORD PTR _raw$[ebp]
  00078	f3 0f 10 80 94
	00 00 00	 movss	 xmm0, DWORD PTR [eax+148]
  00080	f3 0f 11 45 f8	 movss	 DWORD PTR _value$[ebp], xmm0

; 330  : 
; 331  : 			break;

  00085	e9 69 01 00 00	 jmp	 $LN2@get_local_
$LN8@get_local_:

; 332  : 		}
; 333  : 		////////////////////////////////////////
; 334  : 		case FLOAT_TYPE_POPULATION_X_MAX:
; 335  : 		////////////////////////////////////////
; 336  : 		{
; 337  : 			value = raw->population_x_max;

  0008a	8b 45 fc	 mov	 eax, DWORD PTR _raw$[ebp]
  0008d	f3 0f 10 80 98
	00 00 00	 movss	 xmm0, DWORD PTR [eax+152]
  00095	f3 0f 11 45 f8	 movss	 DWORD PTR _value$[ebp], xmm0

; 338  : 
; 339  : 			break;

  0009a	e9 54 01 00 00	 jmp	 $LN2@get_local_
$LN9@get_local_:

; 340  : 		}
; 341  : 		////////////////////////////////////////
; 342  : 		case FLOAT_TYPE_POPULATION_Z_MIN:
; 343  : 		////////////////////////////////////////
; 344  : 		{
; 345  : 			value = raw->population_z_min;

  0009f	8b 45 fc	 mov	 eax, DWORD PTR _raw$[ebp]
  000a2	f3 0f 10 80 9c
	00 00 00	 movss	 xmm0, DWORD PTR [eax+156]
  000aa	f3 0f 11 45 f8	 movss	 DWORD PTR _value$[ebp], xmm0

; 346  : 
; 347  : 			break;

  000af	e9 3f 01 00 00	 jmp	 $LN2@get_local_
$LN10@get_local_:

; 348  : 		}
; 349  : 		////////////////////////////////////////
; 350  : 		case FLOAT_TYPE_POPULATION_Z_MAX:
; 351  : 		////////////////////////////////////////
; 352  : 		{
; 353  : 			value = raw->population_z_max;

  000b4	8b 45 fc	 mov	 eax, DWORD PTR _raw$[ebp]
  000b7	f3 0f 10 80 a0
	00 00 00	 movss	 xmm0, DWORD PTR [eax+160]
  000bf	f3 0f 11 45 f8	 movss	 DWORD PTR _value$[ebp], xmm0

; 354  : 
; 355  : 			break;

  000c4	e9 2a 01 00 00	 jmp	 $LN2@get_local_
$LN11@get_local_:

; 356  : 		}
; 357  : 		////////////////////////////////////////
; 358  : 		case FLOAT_TYPE_START_TIME:
; 359  : 		////////////////////////////////////////
; 360  : 		{
; 361  : 			value = raw->start_time;

  000c9	8b 45 fc	 mov	 eax, DWORD PTR _raw$[ebp]
  000cc	f3 0f 10 40 18	 movss	 xmm0, DWORD PTR [eax+24]
  000d1	f3 0f 11 45 f8	 movss	 DWORD PTR _value$[ebp], xmm0

; 362  : 
; 363  : 			break;

  000d6	e9 18 01 00 00	 jmp	 $LN2@get_local_
$LN12@get_local_:

; 364  : 		}
; 365  : 		////////////////////////////////////////
; 366  : 		case FLOAT_TYPE_TIME_OF_DAY:
; 367  : 		////////////////////////////////////////
; 368  : 		{
; 369  : 			value = calculate_session_time_of_day (en, NULL);

  000db	6a 00		 push	 0
  000dd	8b 45 08	 mov	 eax, DWORD PTR _en$[ebp]
  000e0	50		 push	 eax
  000e1	e8 00 00 00 00	 call	 ?calculate_session_time_of_day@@YGMPAUENTITY@@PAH@Z ; calculate_session_time_of_day
  000e6	d9 5d f8	 fstp	 DWORD PTR _value$[ebp]

; 370  : 
; 371  : 			break;

  000e9	e9 05 01 00 00	 jmp	 $LN2@get_local_
$LN13@get_local_:

; 372  : 		}
; 373  : 		////////////////////////////////////////
; 374  : 		case FLOAT_TYPE_TIME_OF_DAY_ACCELERATION:
; 375  : 		////////////////////////////////////////
; 376  : 		{
; 377  : 			value = raw->time_of_day_acceleration;

  000ee	8b 45 fc	 mov	 eax, DWORD PTR _raw$[ebp]
  000f1	f3 0f 10 40 28	 movss	 xmm0, DWORD PTR [eax+40]
  000f6	f3 0f 11 45 f8	 movss	 DWORD PTR _value$[ebp], xmm0

; 378  : 
; 379  : 			break;

  000fb	e9 f3 00 00 00	 jmp	 $LN2@get_local_
$LN14@get_local_:

; 380  : 		}
; 381  : 		////////////////////////////////////////
; 382  : 		case FLOAT_TYPE_WEATHER_MODE_TRANSITIONAL_PERIOD:
; 383  : 		////////////////////////////////////////
; 384  : 		{
; 385  : 			value = raw->weather_mode_transitional_period;

  00100	8b 45 fc	 mov	 eax, DWORD PTR _raw$[ebp]
  00103	f3 0f 10 40 34	 movss	 xmm0, DWORD PTR [eax+52]
  00108	f3 0f 11 45 f8	 movss	 DWORD PTR _value$[ebp], xmm0

; 386  : 
; 387  : 			break;

  0010d	e9 e1 00 00 00	 jmp	 $LN2@get_local_
$LN15@get_local_:

; 388  : 		}
; 389  : 		////////////////////////////////////////
; 390  : 		case FLOAT_TYPE_WEATHER_MODE_TRANSITIONAL_STATUS:
; 391  : 		////////////////////////////////////////
; 392  : 		{
; 393  : 			value = raw->weather_mode_transitional_status;

  00112	8b 45 fc	 mov	 eax, DWORD PTR _raw$[ebp]
  00115	f3 0f 10 40 38	 movss	 xmm0, DWORD PTR [eax+56]
  0011a	f3 0f 11 45 f8	 movss	 DWORD PTR _value$[ebp], xmm0

; 394  : 
; 395  : 			break;

  0011f	e9 cf 00 00 00	 jmp	 $LN2@get_local_
$LN16@get_local_:

; 396  : 		}
; 397  : 		////////////////////////////////////////
; 398  : 		case FLOAT_TYPE_WEATHER_RADIUS:
; 399  : 		////////////////////////////////////////
; 400  : 		{
; 401  : 			value = raw->weather_radius;

  00124	8b 45 fc	 mov	 eax, DWORD PTR _raw$[ebp]
  00127	f3 0f 10 40 30	 movss	 xmm0, DWORD PTR [eax+48]
  0012c	f3 0f 11 45 f8	 movss	 DWORD PTR _value$[ebp], xmm0

; 402  : 
; 403  : 			break;

  00131	e9 bd 00 00 00	 jmp	 $LN2@get_local_
$LN17@get_local_:

; 404  : 		}
; 405  : 		////////////////////////////////////////
; 406  : 		case FLOAT_TYPE_WIND_EFFECT_RADIUS:
; 407  : 		////////////////////////////////////////
; 408  : 		{
; 409  : 			value = raw->wind_effect_radius;

  00136	8b 45 fc	 mov	 eax, DWORD PTR _raw$[ebp]
  00139	f3 0f 10 40 5c	 movss	 xmm0, DWORD PTR [eax+92]
  0013e	f3 0f 11 45 f8	 movss	 DWORD PTR _value$[ebp], xmm0

; 410  : 
; 411  : 			break;

  00143	e9 ab 00 00 00	 jmp	 $LN2@get_local_
$LN18@get_local_:

; 412  : 		}
; 413  : 		////////////////////////////////////////
; 414  : 		case FLOAT_TYPE_WIND_GUSTING_VALUE:
; 415  : 		////////////////////////////////////////
; 416  : 		{
; 417  : 			value = raw->wind_gusting_value;

  00148	8b 45 fc	 mov	 eax, DWORD PTR _raw$[ebp]
  0014b	f3 0f 10 40 60	 movss	 xmm0, DWORD PTR [eax+96]
  00150	f3 0f 11 45 f8	 movss	 DWORD PTR _value$[ebp], xmm0

; 418  : 
; 419  : 			break;

  00155	e9 99 00 00 00	 jmp	 $LN2@get_local_
$LN19@get_local_:

; 420  : 		}
; 421  : 		////////////////////////////////////////
; 422  : 		case FLOAT_TYPE_WIND_MAXIMUM_SPEED:
; 423  : 		////////////////////////////////////////
; 424  : 		{
; 425  : 			value = raw->wind_maximum_speed;

  0015a	8b 45 fc	 mov	 eax, DWORD PTR _raw$[ebp]
  0015d	f3 0f 10 40 68	 movss	 xmm0, DWORD PTR [eax+104]
  00162	f3 0f 11 45 f8	 movss	 DWORD PTR _value$[ebp], xmm0

; 426  : 
; 427  : 			break;

  00167	e9 87 00 00 00	 jmp	 $LN2@get_local_
$LN20@get_local_:

; 428  : 		}
; 429  : 		////////////////////////////////////////
; 430  : 		case FLOAT_TYPE_WIND_MINIMUM_SPEED:
; 431  : 		////////////////////////////////////////
; 432  : 		{
; 433  : 			value = raw->wind_minimum_speed;

  0016c	8b 45 fc	 mov	 eax, DWORD PTR _raw$[ebp]
  0016f	f3 0f 10 40 64	 movss	 xmm0, DWORD PTR [eax+100]
  00174	f3 0f 11 45 f8	 movss	 DWORD PTR _value$[ebp], xmm0

; 434  : 
; 435  : 			break;

  00179	eb 78		 jmp	 SHORT $LN2@get_local_
$LN21@get_local_:

; 436  : 		}
; 437  : 		////////////////////////////////////////
; 438  : 		default:
; 439  : 		////////////////////////////////////////
; 440  : 		{
; 441  : 			debug_fatal_invalid_float_type (en, type);

  0017b	83 7d 08 00	 cmp	 DWORD PTR _en$[ebp], 0
  0017f	74 0a		 je	 SHORT $LN23@get_local_
  00181	8b 45 08	 mov	 eax, DWORD PTR _en$[ebp]
  00184	8b 08		 mov	 ecx, DWORD PTR [eax]
  00186	89 4d b4	 mov	 DWORD PTR tv133[ebp], ecx
  00189	eb 24		 jmp	 SHORT $LN24@get_local_
$LN23@get_local_:
  0018b	8b 15 00 00 00
	00		 mov	 edx, DWORD PTR ?__LINE__Var@?0??get_local_float_value@@YGMPAUENTITY@@W4FLOAT_TYPES@@@Z@4JA
  00191	81 c2 97 00 00
	00		 add	 edx, 151		; 00000097H
  00197	52		 push	 edx
  00198	68 00 00 00 00	 push	 OFFSET ??_C@_0EO@GFHOKGKD@c?3?2users?2nhv90?2projects?2eech?2ap@
  0019d	a1 00 00 00 00	 mov	 eax, DWORD PTR ?null_entity_pointer_message@@3PBDB ; null_entity_pointer_message
  001a2	50		 push	 eax
  001a3	e8 00 00 00 00	 call	 ?process_assert@@YGXPBD0H@Z ; process_assert
  001a8	c7 45 b4 00 00
	00 00		 mov	 DWORD PTR tv133[ebp], 0
$LN24@get_local_:
  001af	8b 0d 00 00 00
	00		 mov	 ecx, DWORD PTR ?__LINE__Var@?0??get_local_float_value@@YGMPAUENTITY@@W4FLOAT_TYPES@@@Z@4JA
  001b5	81 c1 97 00 00
	00		 add	 ecx, 151		; 00000097H
  001bb	51		 push	 ecx
  001bc	68 00 00 00 00	 push	 OFFSET ??_C@_0EO@GFHOKGKD@c?3?2users?2nhv90?2projects?2eech?2ap@
  001c1	6b 55 0c 18	 imul	 edx, DWORD PTR _type$[ebp], 24
  001c5	8b 82 00 00 00
	00		 mov	 eax, DWORD PTR ?float_type_database@@3PAUFLOAT_TYPE_DATA@@A[edx]
  001cb	50		 push	 eax
  001cc	8b 4d 08	 mov	 ecx, DWORD PTR _en$[ebp]
  001cf	2b 0d 00 00 00
	00		 sub	 ecx, DWORD PTR ?entities@@3PAUENTITY@@A ; entities
  001d5	c1 f9 04	 sar	 ecx, 4
  001d8	51		 push	 ecx
  001d9	6b 55 b4 0c	 imul	 edx, DWORD PTR tv133[ebp], 12
  001dd	8b 82 00 00 00
	00		 mov	 eax, DWORD PTR ?entity_type_database@@3PAUENTITY_TYPE_DATA@@A[edx]
  001e3	50		 push	 eax
  001e4	8b 0d 00 00 00
	00		 mov	 ecx, DWORD PTR ?debug_fatal_invalid_float_type_message@@3PBDB ; debug_fatal_invalid_float_type_message
  001ea	51		 push	 ecx
  001eb	e8 00 00 00 00	 call	 ?debug_fatal@@YAXPBDZZ	; debug_fatal
  001f0	83 c4 18	 add	 esp, 24			; 00000018H
$LN2@get_local_:

; 442  : 
; 443  : 			break;
; 444  : 		}
; 445  : 	}
; 446  : 
; 447  : 	return (value);

  001f3	d9 45 f8	 fld	 DWORD PTR _value$[ebp]

; 448  : }

  001f6	5f		 pop	 edi
  001f7	5e		 pop	 esi
  001f8	5b		 pop	 ebx
  001f9	8b e5		 mov	 esp, ebp
  001fb	5d		 pop	 ebp
  001fc	c2 08 00	 ret	 8
  001ff	90		 npad	 1
$LN26@get_local_:
  00200	00 00 00 00	 DD	 $LN4@get_local_
  00204	00 00 00 00	 DD	 $LN5@get_local_
  00208	00 00 00 00	 DD	 $LN6@get_local_
  0020c	00 00 00 00	 DD	 $LN7@get_local_
  00210	00 00 00 00	 DD	 $LN8@get_local_
  00214	00 00 00 00	 DD	 $LN9@get_local_
  00218	00 00 00 00	 DD	 $LN10@get_local_
  0021c	00 00 00 00	 DD	 $LN11@get_local_
  00220	00 00 00 00	 DD	 $LN12@get_local_
  00224	00 00 00 00	 DD	 $LN13@get_local_
  00228	00 00 00 00	 DD	 $LN14@get_local_
  0022c	00 00 00 00	 DD	 $LN15@get_local_
  00230	00 00 00 00	 DD	 $LN16@get_local_
  00234	00 00 00 00	 DD	 $LN17@get_local_
  00238	00 00 00 00	 DD	 $LN18@get_local_
  0023c	00 00 00 00	 DD	 $LN19@get_local_
  00240	00 00 00 00	 DD	 $LN20@get_local_
  00244	00 00 00 00	 DD	 $LN21@get_local_
$LN25@get_local_:
  00248	00		 DB	 0
  00249	11		 DB	 17			; 00000011H
  0024a	11		 DB	 17			; 00000011H
  0024b	11		 DB	 17			; 00000011H
  0024c	11		 DB	 17			; 00000011H
  0024d	11		 DB	 17			; 00000011H
  0024e	11		 DB	 17			; 00000011H
  0024f	11		 DB	 17			; 00000011H
  00250	11		 DB	 17			; 00000011H
  00251	01		 DB	 1
  00252	11		 DB	 17			; 00000011H
  00253	11		 DB	 17			; 00000011H
  00254	11		 DB	 17			; 00000011H
  00255	11		 DB	 17			; 00000011H
  00256	11		 DB	 17			; 00000011H
  00257	11		 DB	 17			; 00000011H
  00258	11		 DB	 17			; 00000011H
  00259	11		 DB	 17			; 00000011H
  0025a	11		 DB	 17			; 00000011H
  0025b	11		 DB	 17			; 00000011H
  0025c	11		 DB	 17			; 00000011H
  0025d	11		 DB	 17			; 00000011H
  0025e	11		 DB	 17			; 00000011H
  0025f	11		 DB	 17			; 00000011H
  00260	11		 DB	 17			; 00000011H
  00261	11		 DB	 17			; 00000011H
  00262	11		 DB	 17			; 00000011H
  00263	02		 DB	 2
  00264	11		 DB	 17			; 00000011H
  00265	11		 DB	 17			; 00000011H
  00266	11		 DB	 17			; 00000011H
  00267	11		 DB	 17			; 00000011H
  00268	11		 DB	 17			; 00000011H
  00269	11		 DB	 17			; 00000011H
  0026a	11		 DB	 17			; 00000011H
  0026b	11		 DB	 17			; 00000011H
  0026c	11		 DB	 17			; 00000011H
  0026d	11		 DB	 17			; 00000011H
  0026e	11		 DB	 17			; 00000011H
  0026f	11		 DB	 17			; 00000011H
  00270	11		 DB	 17			; 00000011H
  00271	11		 DB	 17			; 00000011H
  00272	11		 DB	 17			; 00000011H
  00273	11		 DB	 17			; 00000011H
  00274	11		 DB	 17			; 00000011H
  00275	11		 DB	 17			; 00000011H
  00276	11		 DB	 17			; 00000011H
  00277	11		 DB	 17			; 00000011H
  00278	11		 DB	 17			; 00000011H
  00279	11		 DB	 17			; 00000011H
  0027a	11		 DB	 17			; 00000011H
  0027b	11		 DB	 17			; 00000011H
  0027c	03		 DB	 3
  0027d	04		 DB	 4
  0027e	05		 DB	 5
  0027f	06		 DB	 6
  00280	11		 DB	 17			; 00000011H
  00281	11		 DB	 17			; 00000011H
  00282	11		 DB	 17			; 00000011H
  00283	11		 DB	 17			; 00000011H
  00284	11		 DB	 17			; 00000011H
  00285	11		 DB	 17			; 00000011H
  00286	11		 DB	 17			; 00000011H
  00287	11		 DB	 17			; 00000011H
  00288	11		 DB	 17			; 00000011H
  00289	11		 DB	 17			; 00000011H
  0028a	11		 DB	 17			; 00000011H
  0028b	11		 DB	 17			; 00000011H
  0028c	11		 DB	 17			; 00000011H
  0028d	11		 DB	 17			; 00000011H
  0028e	11		 DB	 17			; 00000011H
  0028f	11		 DB	 17			; 00000011H
  00290	11		 DB	 17			; 00000011H
  00291	11		 DB	 17			; 00000011H
  00292	11		 DB	 17			; 00000011H
  00293	11		 DB	 17			; 00000011H
  00294	11		 DB	 17			; 00000011H
  00295	11		 DB	 17			; 00000011H
  00296	11		 DB	 17			; 00000011H
  00297	11		 DB	 17			; 00000011H
  00298	11		 DB	 17			; 00000011H
  00299	11		 DB	 17			; 00000011H
  0029a	11		 DB	 17			; 00000011H
  0029b	11		 DB	 17			; 00000011H
  0029c	11		 DB	 17			; 00000011H
  0029d	11		 DB	 17			; 00000011H
  0029e	11		 DB	 17			; 00000011H
  0029f	11		 DB	 17			; 00000011H
  002a0	11		 DB	 17			; 00000011H
  002a1	11		 DB	 17			; 00000011H
  002a2	07		 DB	 7
  002a3	11		 DB	 17			; 00000011H
  002a4	11		 DB	 17			; 00000011H
  002a5	11		 DB	 17			; 00000011H
  002a6	11		 DB	 17			; 00000011H
  002a7	11		 DB	 17			; 00000011H
  002a8	11		 DB	 17			; 00000011H
  002a9	11		 DB	 17			; 00000011H
  002aa	11		 DB	 17			; 00000011H
  002ab	11		 DB	 17			; 00000011H
  002ac	11		 DB	 17			; 00000011H
  002ad	11		 DB	 17			; 00000011H
  002ae	11		 DB	 17			; 00000011H
  002af	11		 DB	 17			; 00000011H
  002b0	11		 DB	 17			; 00000011H
  002b1	11		 DB	 17			; 00000011H
  002b2	11		 DB	 17			; 00000011H
  002b3	08		 DB	 8
  002b4	09		 DB	 9
  002b5	11		 DB	 17			; 00000011H
  002b6	11		 DB	 17			; 00000011H
  002b7	11		 DB	 17			; 00000011H
  002b8	11		 DB	 17			; 00000011H
  002b9	11		 DB	 17			; 00000011H
  002ba	11		 DB	 17			; 00000011H
  002bb	11		 DB	 17			; 00000011H
  002bc	11		 DB	 17			; 00000011H
  002bd	11		 DB	 17			; 00000011H
  002be	11		 DB	 17			; 00000011H
  002bf	11		 DB	 17			; 00000011H
  002c0	0a		 DB	 10			; 0000000aH
  002c1	0b		 DB	 11			; 0000000bH
  002c2	0c		 DB	 12			; 0000000cH
  002c3	11		 DB	 17			; 00000011H
  002c4	11		 DB	 17			; 00000011H
  002c5	0d		 DB	 13			; 0000000dH
  002c6	0e		 DB	 14			; 0000000eH
  002c7	0f		 DB	 15			; 0000000fH
  002c8	10		 DB	 16			; 00000010H
?get_local_float_value@@YGMPAUENTITY@@W4FLOAT_TYPES@@@Z ENDP ; get_local_float_value
_TEXT	ENDS
; Function compile flags: /Odtp /ZI
; File c:\users\nhv90\projects\eech\aphavoc\source\entity\special\session\ss_float.c
;	COMDAT ?set_client_float_value@@YGXPAUENTITY@@W4FLOAT_TYPES@@M@Z
_TEXT	SEGMENT
_en$ = 8						; size = 4
_type$ = 12						; size = 4
_value$ = 16						; size = 4
?set_client_float_value@@YGXPAUENTITY@@W4FLOAT_TYPES@@M@Z PROC ; set_client_float_value, COMDAT

; 270  : {

  00000	55		 push	 ebp
  00001	8b ec		 mov	 ebp, esp
  00003	83 ec 40	 sub	 esp, 64			; 00000040H
  00006	53		 push	 ebx
  00007	56		 push	 esi
  00008	57		 push	 edi

; 271  : 	if (get_comms_data_flow () == COMMS_DATA_FLOW_TX)

  00009	83 3d 00 00 00
	00 00		 cmp	 DWORD PTR ?system_comms_data_flow@@3W4COMMS_DATA_FLOW_TYPES@@A, 0 ; system_comms_data_flow
  00010	75 3b		 jne	 SHORT $LN2@set_client

; 272  : 	{
; 273  : 		validate_client_server_remote_fn ();

  00012	e8 00 00 00 00	 call	 ?assert_client_server_remote_fn@@YGHXZ ; assert_client_server_remote_fn
  00017	85 c0		 test	 eax, eax
  00019	75 18		 jne	 SHORT $LN4@set_client
  0001b	a1 00 00 00 00	 mov	 eax, DWORD PTR ?__LINE__Var@?0??set_client_float_value@@YGXPAUENTITY@@W4FLOAT_TYPES@@M@Z@4JA
  00020	83 c0 03	 add	 eax, 3
  00023	50		 push	 eax
  00024	68 00 00 00 00	 push	 OFFSET ??_C@_0EO@GFHOKGKD@c?3?2users?2nhv90?2projects?2eech?2ap@
  00029	68 00 00 00 00	 push	 OFFSET ??_C@_0CC@BNNNEGEG@assert_client_server_remote_fn?5@
  0002e	e8 00 00 00 00	 call	 ?process_assert@@YGXPBD0H@Z ; process_assert
$LN4@set_client:

; 274  : 
; 275  : 		set_remote_float_value (en, type, value);

  00033	51		 push	 ecx
  00034	f3 0f 10 45 10	 movss	 xmm0, DWORD PTR _value$[ebp]
  00039	f3 0f 11 04 24	 movss	 DWORD PTR [esp], xmm0
  0003e	8b 45 0c	 mov	 eax, DWORD PTR _type$[ebp]
  00041	50		 push	 eax
  00042	8b 4d 08	 mov	 ecx, DWORD PTR _en$[ebp]
  00045	51		 push	 ecx
  00046	e8 00 00 00 00	 call	 ?set_remote_float_value@@YGXPAUENTITY@@W4FLOAT_TYPES@@M@Z ; set_remote_float_value

; 276  : 	}
; 277  : 	else

  0004b	eb 39		 jmp	 SHORT $LN3@set_client
$LN2@set_client:

; 278  : 	{
; 279  : 		validate_client_server_local_fn ();

  0004d	e8 00 00 00 00	 call	 ?assert_client_server_local_fn@@YGHXZ ; assert_client_server_local_fn
  00052	85 c0		 test	 eax, eax
  00054	75 18		 jne	 SHORT $LN5@set_client
  00056	a1 00 00 00 00	 mov	 eax, DWORD PTR ?__LINE__Var@?0??set_client_float_value@@YGXPAUENTITY@@W4FLOAT_TYPES@@M@Z@4JA
  0005b	83 c0 09	 add	 eax, 9
  0005e	50		 push	 eax
  0005f	68 00 00 00 00	 push	 OFFSET ??_C@_0EO@GFHOKGKD@c?3?2users?2nhv90?2projects?2eech?2ap@
  00064	68 00 00 00 00	 push	 OFFSET ??_C@_0CB@CFOCLFOK@assert_client_server_local_fn?5?$CI@
  00069	e8 00 00 00 00	 call	 ?process_assert@@YGXPBD0H@Z ; process_assert
$LN5@set_client:

; 280  : 
; 281  : 		set_local_float_value (en, type, value);

  0006e	51		 push	 ecx
  0006f	f3 0f 10 45 10	 movss	 xmm0, DWORD PTR _value$[ebp]
  00074	f3 0f 11 04 24	 movss	 DWORD PTR [esp], xmm0
  00079	8b 45 0c	 mov	 eax, DWORD PTR _type$[ebp]
  0007c	50		 push	 eax
  0007d	8b 4d 08	 mov	 ecx, DWORD PTR _en$[ebp]
  00080	51		 push	 ecx
  00081	e8 00 00 00 00	 call	 ?set_local_float_value@@YGXPAUENTITY@@W4FLOAT_TYPES@@M@Z ; set_local_float_value
$LN3@set_client:

; 282  : 	}
; 283  : }

  00086	5f		 pop	 edi
  00087	5e		 pop	 esi
  00088	5b		 pop	 ebx
  00089	8b e5		 mov	 esp, ebp
  0008b	5d		 pop	 ebp
  0008c	c2 0c 00	 ret	 12			; 0000000cH
?set_client_float_value@@YGXPAUENTITY@@W4FLOAT_TYPES@@M@Z ENDP ; set_client_float_value
_TEXT	ENDS
; Function compile flags: /Odtp /ZI
; File c:\users\nhv90\projects\eech\aphavoc\source\entity\special\session\ss_float.c
;	COMDAT ?set_server_float_value@@YGXPAUENTITY@@W4FLOAT_TYPES@@M@Z
_TEXT	SEGMENT
_en$ = 8						; size = 4
_type$ = 12						; size = 4
_value$ = 16						; size = 4
?set_server_float_value@@YGXPAUENTITY@@W4FLOAT_TYPES@@M@Z PROC ; set_server_float_value, COMDAT

; 255  : {

  00000	55		 push	 ebp
  00001	8b ec		 mov	 ebp, esp
  00003	83 ec 40	 sub	 esp, 64			; 00000040H
  00006	53		 push	 ebx
  00007	56		 push	 esi
  00008	57		 push	 edi

; 256  : 	validate_client_server_local_fn ();

  00009	e8 00 00 00 00	 call	 ?assert_client_server_local_fn@@YGHXZ ; assert_client_server_local_fn
  0000e	85 c0		 test	 eax, eax
  00010	75 18		 jne	 SHORT $LN2@set_server
  00012	a1 00 00 00 00	 mov	 eax, DWORD PTR ?__LINE__Var@?0??set_server_float_value@@YGXPAUENTITY@@W4FLOAT_TYPES@@M@Z@4JA
  00017	83 c0 01	 add	 eax, 1
  0001a	50		 push	 eax
  0001b	68 00 00 00 00	 push	 OFFSET ??_C@_0EO@GFHOKGKD@c?3?2users?2nhv90?2projects?2eech?2ap@
  00020	68 00 00 00 00	 push	 OFFSET ??_C@_0CB@CFOCLFOK@assert_client_server_local_fn?5?$CI@
  00025	e8 00 00 00 00	 call	 ?process_assert@@YGXPBD0H@Z ; process_assert
$LN2@set_server:

; 257  : 
; 258  : 	set_local_float_value (en, type, value);

  0002a	51		 push	 ecx
  0002b	f3 0f 10 45 10	 movss	 xmm0, DWORD PTR _value$[ebp]
  00030	f3 0f 11 04 24	 movss	 DWORD PTR [esp], xmm0
  00035	8b 45 0c	 mov	 eax, DWORD PTR _type$[ebp]
  00038	50		 push	 eax
  00039	8b 4d 08	 mov	 ecx, DWORD PTR _en$[ebp]
  0003c	51		 push	 ecx
  0003d	e8 00 00 00 00	 call	 ?set_local_float_value@@YGXPAUENTITY@@W4FLOAT_TYPES@@M@Z ; set_local_float_value

; 259  : 
; 260  : 	validate_client_server_remote_fn ();

  00042	e8 00 00 00 00	 call	 ?assert_client_server_remote_fn@@YGHXZ ; assert_client_server_remote_fn
  00047	85 c0		 test	 eax, eax
  00049	75 18		 jne	 SHORT $LN3@set_server
  0004b	a1 00 00 00 00	 mov	 eax, DWORD PTR ?__LINE__Var@?0??set_server_float_value@@YGXPAUENTITY@@W4FLOAT_TYPES@@M@Z@4JA
  00050	83 c0 05	 add	 eax, 5
  00053	50		 push	 eax
  00054	68 00 00 00 00	 push	 OFFSET ??_C@_0EO@GFHOKGKD@c?3?2users?2nhv90?2projects?2eech?2ap@
  00059	68 00 00 00 00	 push	 OFFSET ??_C@_0CC@BNNNEGEG@assert_client_server_remote_fn?5@
  0005e	e8 00 00 00 00	 call	 ?process_assert@@YGXPBD0H@Z ; process_assert
$LN3@set_server:

; 261  : 
; 262  : 	set_remote_float_value (en, type, value);

  00063	51		 push	 ecx
  00064	f3 0f 10 45 10	 movss	 xmm0, DWORD PTR _value$[ebp]
  00069	f3 0f 11 04 24	 movss	 DWORD PTR [esp], xmm0
  0006e	8b 45 0c	 mov	 eax, DWORD PTR _type$[ebp]
  00071	50		 push	 eax
  00072	8b 4d 08	 mov	 ecx, DWORD PTR _en$[ebp]
  00075	51		 push	 ecx
  00076	e8 00 00 00 00	 call	 ?set_remote_float_value@@YGXPAUENTITY@@W4FLOAT_TYPES@@M@Z ; set_remote_float_value

; 263  : }

  0007b	5f		 pop	 edi
  0007c	5e		 pop	 esi
  0007d	5b		 pop	 ebx
  0007e	8b e5		 mov	 esp, ebp
  00080	5d		 pop	 ebp
  00081	c2 0c 00	 ret	 12			; 0000000cH
?set_server_float_value@@YGXPAUENTITY@@W4FLOAT_TYPES@@M@Z ENDP ; set_server_float_value
_TEXT	ENDS
; Function compile flags: /Odtp /ZI
; File c:\users\nhv90\projects\eech\aphavoc\source\entity\special\session\ss_float.c
;	COMDAT ?set_remote_float_value@@YGXPAUENTITY@@W4FLOAT_TYPES@@M@Z
_TEXT	SEGMENT
_en$ = 8						; size = 4
_type$ = 12						; size = 4
_value$ = 16						; size = 4
?set_remote_float_value@@YGXPAUENTITY@@W4FLOAT_TYPES@@M@Z PROC ; set_remote_float_value, COMDAT

; 240  : {

  00000	55		 push	 ebp
  00001	8b ec		 mov	 ebp, esp
  00003	83 ec 40	 sub	 esp, 64			; 00000040H
  00006	53		 push	 ebx
  00007	56		 push	 esi
  00008	57		 push	 edi

; 241  : 	#if DEBUG_MODULE
; 242  : 
; 243  : 	debug_log_entity_args (ENTITY_DEBUG_REMOTE, ENTITY_DEBUG_FLOAT_VALUE, en, type, value);
; 244  : 
; 245  : 	#endif
; 246  : 
; 247  : 	transmit_entity_comms_message (ENTITY_COMMS_FLOAT_VALUE, en, type, value);

  00009	f3 0f 5a 45 10	 cvtss2sd xmm0, DWORD PTR _value$[ebp]
  0000e	83 ec 08	 sub	 esp, 8
  00011	f2 0f 11 04 24	 movsd	 QWORD PTR [esp], xmm0
  00016	8b 45 0c	 mov	 eax, DWORD PTR _type$[ebp]
  00019	50		 push	 eax
  0001a	8b 4d 08	 mov	 ecx, DWORD PTR _en$[ebp]
  0001d	51		 push	 ecx
  0001e	6a 16		 push	 22			; 00000016H
  00020	e8 00 00 00 00	 call	 ?transmit_entity_comms_message@@YAXW4ENTITY_COMMS_MESSAGES@@PAUENTITY@@ZZ ; transmit_entity_comms_message
  00025	83 c4 14	 add	 esp, 20			; 00000014H

; 248  : }

  00028	5f		 pop	 edi
  00029	5e		 pop	 esi
  0002a	5b		 pop	 ebx
  0002b	8b e5		 mov	 esp, ebp
  0002d	5d		 pop	 ebp
  0002e	c2 0c 00	 ret	 12			; 0000000cH
?set_remote_float_value@@YGXPAUENTITY@@W4FLOAT_TYPES@@M@Z ENDP ; set_remote_float_value
_TEXT	ENDS
; Function compile flags: /Odtp /ZI
; File c:\users\nhv90\projects\eech\aphavoc\source\entity\special\session\ss_float.c
;	COMDAT ?set_local_float_value@@YGXPAUENTITY@@W4FLOAT_TYPES@@M@Z
_TEXT	SEGMENT
tv133 = -72						; size = 4
tv65 = -72						; size = 4
_raw$ = -4						; size = 4
_en$ = 8						; size = 4
_type$ = 12						; size = 4
_value$ = 16						; size = 4
?set_local_float_value@@YGXPAUENTITY@@W4FLOAT_TYPES@@M@Z PROC ; set_local_float_value, COMDAT

; 80   : {

  00000	55		 push	 ebp
  00001	8b ec		 mov	 ebp, esp
  00003	83 ec 48	 sub	 esp, 72			; 00000048H
  00006	53		 push	 ebx
  00007	56		 push	 esi
  00008	57		 push	 edi

; 81   : 	session
; 82   : 		*raw;
; 83   : 
; 84   : 	#if DEBUG_MODULE
; 85   : 
; 86   : 	debug_log_entity_args (ENTITY_DEBUG_LOCAL, ENTITY_DEBUG_FLOAT_VALUE, en, type, value);
; 87   : 
; 88   : 	#endif
; 89   : 
; 90   : 	raw = (session *) get_local_entity_data (en);

  00009	8b 45 08	 mov	 eax, DWORD PTR _en$[ebp]
  0000c	8b 48 04	 mov	 ecx, DWORD PTR [eax+4]
  0000f	89 4d fc	 mov	 DWORD PTR _raw$[ebp], ecx

; 91   : 
; 92   : 	switch (type)

  00012	8b 45 0c	 mov	 eax, DWORD PTR _type$[ebp]
  00015	89 45 b8	 mov	 DWORD PTR tv65[ebp], eax
  00018	8b 4d b8	 mov	 ecx, DWORD PTR tv65[ebp]
  0001b	83 e9 23	 sub	 ecx, 35			; 00000023H
  0001e	89 4d b8	 mov	 DWORD PTR tv65[ebp], ecx
  00021	81 7d b8 80 00
	00 00		 cmp	 DWORD PTR tv65[ebp], 128 ; 00000080H
  00028	0f 87 53 01 00
	00		 ja	 $LN20@set_local_
  0002e	8b 55 b8	 mov	 edx, DWORD PTR tv65[ebp]
  00031	0f b6 82 00 00
	00 00		 movzx	 eax, BYTE PTR $LN24@set_local_[edx]
  00038	ff 24 85 00 00
	00 00		 jmp	 DWORD PTR $LN25@set_local_[eax*4]
$LN4@set_local_:

; 93   : 	{
; 94   : 		////////////////////////////////////////
; 95   : 		case FLOAT_TYPE_ELAPSED_TIME:
; 96   : 		////////////////////////////////////////
; 97   : 		{
; 98   : 			raw->elapsed_time = value;

  0003f	8b 45 fc	 mov	 eax, DWORD PTR _raw$[ebp]
  00042	f3 0f 10 45 10	 movss	 xmm0, DWORD PTR _value$[ebp]
  00047	f3 0f 11 40 1c	 movss	 DWORD PTR [eax+28], xmm0

; 99   : 
; 100  : 			break;

  0004c	e9 a8 01 00 00	 jmp	 $LN2@set_local_
$LN5@set_local_:

; 101  : 		}
; 102  : 		////////////////////////////////////////
; 103  : 		case FLOAT_TYPE_FOG_OF_WAR_MAXIMUM_VALUE:
; 104  : 		////////////////////////////////////////
; 105  : 		{
; 106  : 			raw->fog_of_war_maximum_value = value;

  00051	8b 45 fc	 mov	 eax, DWORD PTR _raw$[ebp]
  00054	f3 0f 10 45 10	 movss	 xmm0, DWORD PTR _value$[ebp]
  00059	f3 0f 11 40 2c	 movss	 DWORD PTR [eax+44], xmm0

; 107  : 
; 108  : 			break;

  0005e	e9 96 01 00 00	 jmp	 $LN2@set_local_
$LN6@set_local_:

; 109  : 		}
; 110  : 		////////////////////////////////////////
; 111  : 		case FLOAT_TYPE_LIGHTNING_TIMER:
; 112  : 		////////////////////////////////////////
; 113  : 		{
; 114  : 			raw->lightning_timer = value;

  00063	8b 45 fc	 mov	 eax, DWORD PTR _raw$[ebp]
  00066	f3 0f 10 45 10	 movss	 xmm0, DWORD PTR _value$[ebp]
  0006b	f3 0f 11 40 20	 movss	 DWORD PTR [eax+32], xmm0

; 115  : 
; 116  : 			break;

  00070	e9 84 01 00 00	 jmp	 $LN2@set_local_
$LN7@set_local_:

; 117  : 		}
; 118  : 		////////////////////////////////////////
; 119  : 		case FLOAT_TYPE_POPULATION_X_MIN:
; 120  : 		////////////////////////////////////////
; 121  : 		{
; 122  : 			raw->population_x_min = value;

  00075	8b 45 fc	 mov	 eax, DWORD PTR _raw$[ebp]
  00078	f3 0f 10 45 10	 movss	 xmm0, DWORD PTR _value$[ebp]
  0007d	f3 0f 11 80 94
	00 00 00	 movss	 DWORD PTR [eax+148], xmm0

; 123  : 
; 124  : 			break;

  00085	e9 6f 01 00 00	 jmp	 $LN2@set_local_
$LN8@set_local_:

; 125  : 		}
; 126  : 		////////////////////////////////////////
; 127  : 		case FLOAT_TYPE_POPULATION_X_MAX:
; 128  : 		////////////////////////////////////////
; 129  : 		{
; 130  : 			raw->population_x_max = value;

  0008a	8b 45 fc	 mov	 eax, DWORD PTR _raw$[ebp]
  0008d	f3 0f 10 45 10	 movss	 xmm0, DWORD PTR _value$[ebp]
  00092	f3 0f 11 80 98
	00 00 00	 movss	 DWORD PTR [eax+152], xmm0

; 131  : 
; 132  : 			break;

  0009a	e9 5a 01 00 00	 jmp	 $LN2@set_local_
$LN9@set_local_:

; 133  : 		}
; 134  : 		////////////////////////////////////////
; 135  : 		case FLOAT_TYPE_POPULATION_Z_MIN:
; 136  : 		////////////////////////////////////////
; 137  : 		{
; 138  : 			raw->population_z_min = value;

  0009f	8b 45 fc	 mov	 eax, DWORD PTR _raw$[ebp]
  000a2	f3 0f 10 45 10	 movss	 xmm0, DWORD PTR _value$[ebp]
  000a7	f3 0f 11 80 9c
	00 00 00	 movss	 DWORD PTR [eax+156], xmm0

; 139  : 
; 140  : 			break;

  000af	e9 45 01 00 00	 jmp	 $LN2@set_local_
$LN10@set_local_:

; 141  : 		}
; 142  : 		////////////////////////////////////////
; 143  : 		case FLOAT_TYPE_POPULATION_Z_MAX:
; 144  : 		////////////////////////////////////////
; 145  : 		{
; 146  : 			raw->population_z_max = value;

  000b4	8b 45 fc	 mov	 eax, DWORD PTR _raw$[ebp]
  000b7	f3 0f 10 45 10	 movss	 xmm0, DWORD PTR _value$[ebp]
  000bc	f3 0f 11 80 a0
	00 00 00	 movss	 DWORD PTR [eax+160], xmm0

; 147  : 
; 148  : 			break;

  000c4	e9 30 01 00 00	 jmp	 $LN2@set_local_
$LN11@set_local_:

; 149  : 		}
; 150  : 		////////////////////////////////////////
; 151  : 		case FLOAT_TYPE_START_TIME:
; 152  : 		////////////////////////////////////////
; 153  : 		{
; 154  : 			raw->start_time = value;

  000c9	8b 45 fc	 mov	 eax, DWORD PTR _raw$[ebp]
  000cc	f3 0f 10 45 10	 movss	 xmm0, DWORD PTR _value$[ebp]
  000d1	f3 0f 11 40 18	 movss	 DWORD PTR [eax+24], xmm0

; 155  : 
; 156  : 			raw->day_segment_type = get_day_segment_type (value);

  000d6	51		 push	 ecx
  000d7	f3 0f 10 45 10	 movss	 xmm0, DWORD PTR _value$[ebp]
  000dc	f3 0f 11 04 24	 movss	 DWORD PTR [esp], xmm0
  000e1	e8 00 00 00 00	 call	 ?get_day_segment_type@@YG?AW4DAY_SEGMENT_TYPES@@M@Z ; get_day_segment_type
  000e6	8b 4d fc	 mov	 ecx, DWORD PTR _raw$[ebp]
  000e9	89 81 90 00 00
	00		 mov	 DWORD PTR [ecx+144], eax

; 157  : 
; 158  : 			break;

  000ef	e9 05 01 00 00	 jmp	 $LN2@set_local_
$LN12@set_local_:

; 159  : 		}
; 160  : 		////////////////////////////////////////
; 161  : 		case FLOAT_TYPE_TIME_OF_DAY_ACCELERATION:
; 162  : 		////////////////////////////////////////
; 163  : 		{
; 164  : 			raw->time_of_day_acceleration = value;

  000f4	8b 45 fc	 mov	 eax, DWORD PTR _raw$[ebp]
  000f7	f3 0f 10 45 10	 movss	 xmm0, DWORD PTR _value$[ebp]
  000fc	f3 0f 11 40 28	 movss	 DWORD PTR [eax+40], xmm0

; 165  : 
; 166  : 			break;

  00101	e9 f3 00 00 00	 jmp	 $LN2@set_local_
$LN13@set_local_:

; 167  : 		}
; 168  : 		////////////////////////////////////////
; 169  : 		case FLOAT_TYPE_WEATHER_MODE_TRANSITIONAL_PERIOD:
; 170  : 		////////////////////////////////////////
; 171  : 		{
; 172  : 			raw->weather_mode_transitional_period = value;

  00106	8b 45 fc	 mov	 eax, DWORD PTR _raw$[ebp]
  00109	f3 0f 10 45 10	 movss	 xmm0, DWORD PTR _value$[ebp]
  0010e	f3 0f 11 40 34	 movss	 DWORD PTR [eax+52], xmm0

; 173  : 
; 174  : 			break;

  00113	e9 e1 00 00 00	 jmp	 $LN2@set_local_
$LN14@set_local_:

; 175  : 		}
; 176  : 		////////////////////////////////////////
; 177  : 		case FLOAT_TYPE_WEATHER_MODE_TRANSITIONAL_STATUS:
; 178  : 		////////////////////////////////////////
; 179  : 		{
; 180  : 			raw->weather_mode_transitional_status = value;

  00118	8b 45 fc	 mov	 eax, DWORD PTR _raw$[ebp]
  0011b	f3 0f 10 45 10	 movss	 xmm0, DWORD PTR _value$[ebp]
  00120	f3 0f 11 40 38	 movss	 DWORD PTR [eax+56], xmm0

; 181  : 
; 182  : 			break;

  00125	e9 cf 00 00 00	 jmp	 $LN2@set_local_
$LN15@set_local_:

; 183  : 		}
; 184  : 		////////////////////////////////////////
; 185  : 		case FLOAT_TYPE_WEATHER_RADIUS:
; 186  : 		////////////////////////////////////////
; 187  : 		{
; 188  : 			raw->weather_radius = value;

  0012a	8b 45 fc	 mov	 eax, DWORD PTR _raw$[ebp]
  0012d	f3 0f 10 45 10	 movss	 xmm0, DWORD PTR _value$[ebp]
  00132	f3 0f 11 40 30	 movss	 DWORD PTR [eax+48], xmm0

; 189  : 
; 190  : 			break;

  00137	e9 bd 00 00 00	 jmp	 $LN2@set_local_
$LN16@set_local_:

; 191  : 		}
; 192  : 		////////////////////////////////////////
; 193  : 		case FLOAT_TYPE_WIND_EFFECT_RADIUS:
; 194  : 		////////////////////////////////////////
; 195  : 		{
; 196  : 			raw->wind_effect_radius = value;

  0013c	8b 45 fc	 mov	 eax, DWORD PTR _raw$[ebp]
  0013f	f3 0f 10 45 10	 movss	 xmm0, DWORD PTR _value$[ebp]
  00144	f3 0f 11 40 5c	 movss	 DWORD PTR [eax+92], xmm0

; 197  : 
; 198  : 			break;

  00149	e9 ab 00 00 00	 jmp	 $LN2@set_local_
$LN17@set_local_:

; 199  : 		}
; 200  : 		////////////////////////////////////////
; 201  : 		case FLOAT_TYPE_WIND_GUSTING_VALUE:
; 202  : 		////////////////////////////////////////
; 203  : 		{
; 204  : 			raw->wind_gusting_value = value;

  0014e	8b 45 fc	 mov	 eax, DWORD PTR _raw$[ebp]
  00151	f3 0f 10 45 10	 movss	 xmm0, DWORD PTR _value$[ebp]
  00156	f3 0f 11 40 60	 movss	 DWORD PTR [eax+96], xmm0

; 205  : 
; 206  : 			break;

  0015b	e9 99 00 00 00	 jmp	 $LN2@set_local_
$LN18@set_local_:

; 207  : 		}
; 208  : 		////////////////////////////////////////
; 209  : 		case FLOAT_TYPE_WIND_MAXIMUM_SPEED:
; 210  : 		////////////////////////////////////////
; 211  : 		{
; 212  : 			raw->wind_maximum_speed = value;

  00160	8b 45 fc	 mov	 eax, DWORD PTR _raw$[ebp]
  00163	f3 0f 10 45 10	 movss	 xmm0, DWORD PTR _value$[ebp]
  00168	f3 0f 11 40 68	 movss	 DWORD PTR [eax+104], xmm0

; 213  : 
; 214  : 			break;

  0016d	e9 87 00 00 00	 jmp	 $LN2@set_local_
$LN19@set_local_:

; 215  : 		}
; 216  : 		////////////////////////////////////////
; 217  : 		case FLOAT_TYPE_WIND_MINIMUM_SPEED:
; 218  : 		////////////////////////////////////////
; 219  : 		{
; 220  : 			raw->wind_minimum_speed = value;

  00172	8b 45 fc	 mov	 eax, DWORD PTR _raw$[ebp]
  00175	f3 0f 10 45 10	 movss	 xmm0, DWORD PTR _value$[ebp]
  0017a	f3 0f 11 40 64	 movss	 DWORD PTR [eax+100], xmm0

; 221  : 
; 222  : 			break;

  0017f	eb 78		 jmp	 SHORT $LN2@set_local_
$LN20@set_local_:

; 223  : 		}
; 224  : 		////////////////////////////////////////
; 225  : 		default:
; 226  : 		////////////////////////////////////////
; 227  : 		{
; 228  : 			debug_fatal_invalid_float_type (en, type);

  00181	83 7d 08 00	 cmp	 DWORD PTR _en$[ebp], 0
  00185	74 0a		 je	 SHORT $LN22@set_local_
  00187	8b 45 08	 mov	 eax, DWORD PTR _en$[ebp]
  0018a	8b 08		 mov	 ecx, DWORD PTR [eax]
  0018c	89 4d b8	 mov	 DWORD PTR tv133[ebp], ecx
  0018f	eb 24		 jmp	 SHORT $LN23@set_local_
$LN22@set_local_:
  00191	8b 15 00 00 00
	00		 mov	 edx, DWORD PTR ?__LINE__Var@?0??set_local_float_value@@YGXPAUENTITY@@W4FLOAT_TYPES@@M@Z@4JA
  00197	81 c2 94 00 00
	00		 add	 edx, 148		; 00000094H
  0019d	52		 push	 edx
  0019e	68 00 00 00 00	 push	 OFFSET ??_C@_0EO@GFHOKGKD@c?3?2users?2nhv90?2projects?2eech?2ap@
  001a3	a1 00 00 00 00	 mov	 eax, DWORD PTR ?null_entity_pointer_message@@3PBDB ; null_entity_pointer_message
  001a8	50		 push	 eax
  001a9	e8 00 00 00 00	 call	 ?process_assert@@YGXPBD0H@Z ; process_assert
  001ae	c7 45 b8 00 00
	00 00		 mov	 DWORD PTR tv133[ebp], 0
$LN23@set_local_:
  001b5	8b 0d 00 00 00
	00		 mov	 ecx, DWORD PTR ?__LINE__Var@?0??set_local_float_value@@YGXPAUENTITY@@W4FLOAT_TYPES@@M@Z@4JA
  001bb	81 c1 94 00 00
	00		 add	 ecx, 148		; 00000094H
  001c1	51		 push	 ecx
  001c2	68 00 00 00 00	 push	 OFFSET ??_C@_0EO@GFHOKGKD@c?3?2users?2nhv90?2projects?2eech?2ap@
  001c7	6b 55 0c 18	 imul	 edx, DWORD PTR _type$[ebp], 24
  001cb	8b 82 00 00 00
	00		 mov	 eax, DWORD PTR ?float_type_database@@3PAUFLOAT_TYPE_DATA@@A[edx]
  001d1	50		 push	 eax
  001d2	8b 4d 08	 mov	 ecx, DWORD PTR _en$[ebp]
  001d5	2b 0d 00 00 00
	00		 sub	 ecx, DWORD PTR ?entities@@3PAUENTITY@@A ; entities
  001db	c1 f9 04	 sar	 ecx, 4
  001de	51		 push	 ecx
  001df	6b 55 b8 0c	 imul	 edx, DWORD PTR tv133[ebp], 12
  001e3	8b 82 00 00 00
	00		 mov	 eax, DWORD PTR ?entity_type_database@@3PAUENTITY_TYPE_DATA@@A[edx]
  001e9	50		 push	 eax
  001ea	8b 0d 00 00 00
	00		 mov	 ecx, DWORD PTR ?debug_fatal_invalid_float_type_message@@3PBDB ; debug_fatal_invalid_float_type_message
  001f0	51		 push	 ecx
  001f1	e8 00 00 00 00	 call	 ?debug_fatal@@YAXPBDZZ	; debug_fatal
  001f6	83 c4 18	 add	 esp, 24			; 00000018H
$LN2@set_local_:

; 229  : 
; 230  : 			break;
; 231  : 		}
; 232  : 	}
; 233  : }

  001f9	5f		 pop	 edi
  001fa	5e		 pop	 esi
  001fb	5b		 pop	 ebx
  001fc	8b e5		 mov	 esp, ebp
  001fe	5d		 pop	 ebp
  001ff	c2 0c 00	 ret	 12			; 0000000cH
  00202	66 90		 npad	 2
$LN25@set_local_:
  00204	00 00 00 00	 DD	 $LN4@set_local_
  00208	00 00 00 00	 DD	 $LN5@set_local_
  0020c	00 00 00 00	 DD	 $LN6@set_local_
  00210	00 00 00 00	 DD	 $LN7@set_local_
  00214	00 00 00 00	 DD	 $LN8@set_local_
  00218	00 00 00 00	 DD	 $LN9@set_local_
  0021c	00 00 00 00	 DD	 $LN10@set_local_
  00220	00 00 00 00	 DD	 $LN11@set_local_
  00224	00 00 00 00	 DD	 $LN12@set_local_
  00228	00 00 00 00	 DD	 $LN13@set_local_
  0022c	00 00 00 00	 DD	 $LN14@set_local_
  00230	00 00 00 00	 DD	 $LN15@set_local_
  00234	00 00 00 00	 DD	 $LN16@set_local_
  00238	00 00 00 00	 DD	 $LN17@set_local_
  0023c	00 00 00 00	 DD	 $LN18@set_local_
  00240	00 00 00 00	 DD	 $LN19@set_local_
  00244	00 00 00 00	 DD	 $LN20@set_local_
$LN24@set_local_:
  00248	00		 DB	 0
  00249	10		 DB	 16			; 00000010H
  0024a	10		 DB	 16			; 00000010H
  0024b	10		 DB	 16			; 00000010H
  0024c	10		 DB	 16			; 00000010H
  0024d	10		 DB	 16			; 00000010H
  0024e	10		 DB	 16			; 00000010H
  0024f	10		 DB	 16			; 00000010H
  00250	10		 DB	 16			; 00000010H
  00251	01		 DB	 1
  00252	10		 DB	 16			; 00000010H
  00253	10		 DB	 16			; 00000010H
  00254	10		 DB	 16			; 00000010H
  00255	10		 DB	 16			; 00000010H
  00256	10		 DB	 16			; 00000010H
  00257	10		 DB	 16			; 00000010H
  00258	10		 DB	 16			; 00000010H
  00259	10		 DB	 16			; 00000010H
  0025a	10		 DB	 16			; 00000010H
  0025b	10		 DB	 16			; 00000010H
  0025c	10		 DB	 16			; 00000010H
  0025d	10		 DB	 16			; 00000010H
  0025e	10		 DB	 16			; 00000010H
  0025f	10		 DB	 16			; 00000010H
  00260	10		 DB	 16			; 00000010H
  00261	10		 DB	 16			; 00000010H
  00262	10		 DB	 16			; 00000010H
  00263	02		 DB	 2
  00264	10		 DB	 16			; 00000010H
  00265	10		 DB	 16			; 00000010H
  00266	10		 DB	 16			; 00000010H
  00267	10		 DB	 16			; 00000010H
  00268	10		 DB	 16			; 00000010H
  00269	10		 DB	 16			; 00000010H
  0026a	10		 DB	 16			; 00000010H
  0026b	10		 DB	 16			; 00000010H
  0026c	10		 DB	 16			; 00000010H
  0026d	10		 DB	 16			; 00000010H
  0026e	10		 DB	 16			; 00000010H
  0026f	10		 DB	 16			; 00000010H
  00270	10		 DB	 16			; 00000010H
  00271	10		 DB	 16			; 00000010H
  00272	10		 DB	 16			; 00000010H
  00273	10		 DB	 16			; 00000010H
  00274	10		 DB	 16			; 00000010H
  00275	10		 DB	 16			; 00000010H
  00276	10		 DB	 16			; 00000010H
  00277	10		 DB	 16			; 00000010H
  00278	10		 DB	 16			; 00000010H
  00279	10		 DB	 16			; 00000010H
  0027a	10		 DB	 16			; 00000010H
  0027b	10		 DB	 16			; 00000010H
  0027c	03		 DB	 3
  0027d	04		 DB	 4
  0027e	05		 DB	 5
  0027f	06		 DB	 6
  00280	10		 DB	 16			; 00000010H
  00281	10		 DB	 16			; 00000010H
  00282	10		 DB	 16			; 00000010H
  00283	10		 DB	 16			; 00000010H
  00284	10		 DB	 16			; 00000010H
  00285	10		 DB	 16			; 00000010H
  00286	10		 DB	 16			; 00000010H
  00287	10		 DB	 16			; 00000010H
  00288	10		 DB	 16			; 00000010H
  00289	10		 DB	 16			; 00000010H
  0028a	10		 DB	 16			; 00000010H
  0028b	10		 DB	 16			; 00000010H
  0028c	10		 DB	 16			; 00000010H
  0028d	10		 DB	 16			; 00000010H
  0028e	10		 DB	 16			; 00000010H
  0028f	10		 DB	 16			; 00000010H
  00290	10		 DB	 16			; 00000010H
  00291	10		 DB	 16			; 00000010H
  00292	10		 DB	 16			; 00000010H
  00293	10		 DB	 16			; 00000010H
  00294	10		 DB	 16			; 00000010H
  00295	10		 DB	 16			; 00000010H
  00296	10		 DB	 16			; 00000010H
  00297	10		 DB	 16			; 00000010H
  00298	10		 DB	 16			; 00000010H
  00299	10		 DB	 16			; 00000010H
  0029a	10		 DB	 16			; 00000010H
  0029b	10		 DB	 16			; 00000010H
  0029c	10		 DB	 16			; 00000010H
  0029d	10		 DB	 16			; 00000010H
  0029e	10		 DB	 16			; 00000010H
  0029f	10		 DB	 16			; 00000010H
  002a0	10		 DB	 16			; 00000010H
  002a1	10		 DB	 16			; 00000010H
  002a2	07		 DB	 7
  002a3	10		 DB	 16			; 00000010H
  002a4	10		 DB	 16			; 00000010H
  002a5	10		 DB	 16			; 00000010H
  002a6	10		 DB	 16			; 00000010H
  002a7	10		 DB	 16			; 00000010H
  002a8	10		 DB	 16			; 00000010H
  002a9	10		 DB	 16			; 00000010H
  002aa	10		 DB	 16			; 00000010H
  002ab	10		 DB	 16			; 00000010H
  002ac	10		 DB	 16			; 00000010H
  002ad	10		 DB	 16			; 00000010H
  002ae	10		 DB	 16			; 00000010H
  002af	10		 DB	 16			; 00000010H
  002b0	10		 DB	 16			; 00000010H
  002b1	10		 DB	 16			; 00000010H
  002b2	10		 DB	 16			; 00000010H
  002b3	10		 DB	 16			; 00000010H
  002b4	08		 DB	 8
  002b5	10		 DB	 16			; 00000010H
  002b6	10		 DB	 16			; 00000010H
  002b7	10		 DB	 16			; 00000010H
  002b8	10		 DB	 16			; 00000010H
  002b9	10		 DB	 16			; 00000010H
  002ba	10		 DB	 16			; 00000010H
  002bb	10		 DB	 16			; 00000010H
  002bc	10		 DB	 16			; 00000010H
  002bd	10		 DB	 16			; 00000010H
  002be	10		 DB	 16			; 00000010H
  002bf	10		 DB	 16			; 00000010H
  002c0	09		 DB	 9
  002c1	0a		 DB	 10			; 0000000aH
  002c2	0b		 DB	 11			; 0000000bH
  002c3	10		 DB	 16			; 00000010H
  002c4	10		 DB	 16			; 00000010H
  002c5	0c		 DB	 12			; 0000000cH
  002c6	0d		 DB	 13			; 0000000dH
  002c7	0e		 DB	 14			; 0000000eH
  002c8	0f		 DB	 15			; 0000000fH
?set_local_float_value@@YGXPAUENTITY@@W4FLOAT_TYPES@@M@Z ENDP ; set_local_float_value
_TEXT	ENDS
; Function compile flags: /Odtp /ZI
; File c:\users\nhv90\projects\eech\aphavoc\source\entity\special\session\ss_float.c
;	COMDAT ?overload_session_float_value_functions@@YGXXZ
_TEXT	SEGMENT
?overload_session_float_value_functions@@YGXXZ PROC	; overload_session_float_value_functions, COMDAT

; 455  : {

  00000	55		 push	 ebp
  00001	8b ec		 mov	 ebp, esp
  00003	83 ec 40	 sub	 esp, 64			; 00000040H
  00006	53		 push	 ebx
  00007	56		 push	 esi
  00008	57		 push	 edi

; 456  : 	fn_set_local_entity_raw_float_value			[ENTITY_TYPE_SESSION][FLOAT_TYPE_ELAPSED_TIME]							= set_local_float_value;

  00009	b8 bc 02 00 00	 mov	 eax, 700		; 000002bcH
  0000e	6b c8 1b	 imul	 ecx, eax, 27
  00011	ba 04 00 00 00	 mov	 edx, 4
  00016	6b c2 23	 imul	 eax, edx, 35
  00019	c7 84 01 00 00
	00 00 00 00 00
	00		 mov	 DWORD PTR ?fn_set_local_entity_raw_float_value@@3PAY0KP@P6GXPAUENTITY@@W4FLOAT_TYPES@@M@ZA[ecx+eax], OFFSET ?set_local_float_value@@YGXPAUENTITY@@W4FLOAT_TYPES@@M@Z ; set_local_float_value

; 457  : 	fn_set_local_entity_float_value				[ENTITY_TYPE_SESSION][FLOAT_TYPE_ELAPSED_TIME]						  	= set_local_float_value;

  00024	b8 bc 02 00 00	 mov	 eax, 700		; 000002bcH
  00029	6b c8 1b	 imul	 ecx, eax, 27
  0002c	ba 04 00 00 00	 mov	 edx, 4
  00031	6b c2 23	 imul	 eax, edx, 35
  00034	c7 84 01 00 00
	00 00 00 00 00
	00		 mov	 DWORD PTR ?fn_set_local_entity_float_value@@3PAY0KP@P6GXPAUENTITY@@W4FLOAT_TYPES@@M@ZA[ecx+eax], OFFSET ?set_local_float_value@@YGXPAUENTITY@@W4FLOAT_TYPES@@M@Z ; set_local_float_value

; 458  : 	fn_set_client_server_entity_float_value	[ENTITY_TYPE_SESSION][FLOAT_TYPE_ELAPSED_TIME][COMMS_MODEL_SERVER]	= set_server_float_value;

  0003f	b8 78 05 00 00	 mov	 eax, 1400		; 00000578H
  00044	6b c8 1b	 imul	 ecx, eax, 27
  00047	ba 08 00 00 00	 mov	 edx, 8
  0004c	6b c2 23	 imul	 eax, edx, 35
  0004f	8d 8c 01 00 00
	00 00		 lea	 ecx, DWORD PTR ?fn_set_client_server_entity_float_value@@3PAY1KP@1P6GXPAUENTITY@@W4FLOAT_TYPES@@M@ZA[ecx+eax]
  00056	ba 04 00 00 00	 mov	 edx, 4
  0005b	6b c2 00	 imul	 eax, edx, 0
  0005e	c7 04 01 00 00
	00 00		 mov	 DWORD PTR [ecx+eax], OFFSET ?set_server_float_value@@YGXPAUENTITY@@W4FLOAT_TYPES@@M@Z ; set_server_float_value

; 459  : 	fn_set_client_server_entity_float_value	[ENTITY_TYPE_SESSION][FLOAT_TYPE_ELAPSED_TIME][COMMS_MODEL_CLIENT]	= set_client_float_value;

  00065	b8 78 05 00 00	 mov	 eax, 1400		; 00000578H
  0006a	6b c8 1b	 imul	 ecx, eax, 27
  0006d	ba 08 00 00 00	 mov	 edx, 8
  00072	6b c2 23	 imul	 eax, edx, 35
  00075	8d 8c 01 00 00
	00 00		 lea	 ecx, DWORD PTR ?fn_set_client_server_entity_float_value@@3PAY1KP@1P6GXPAUENTITY@@W4FLOAT_TYPES@@M@ZA[ecx+eax]
  0007c	ba 04 00 00 00	 mov	 edx, 4
  00081	c1 e2 00	 shl	 edx, 0
  00084	c7 04 11 00 00
	00 00		 mov	 DWORD PTR [ecx+edx], OFFSET ?set_client_float_value@@YGXPAUENTITY@@W4FLOAT_TYPES@@M@Z ; set_client_float_value

; 460  : 	fn_get_local_entity_float_value				[ENTITY_TYPE_SESSION][FLOAT_TYPE_ELAPSED_TIME]							= get_local_float_value;

  0008b	b8 bc 02 00 00	 mov	 eax, 700		; 000002bcH
  00090	6b c8 1b	 imul	 ecx, eax, 27
  00093	ba 04 00 00 00	 mov	 edx, 4
  00098	6b c2 23	 imul	 eax, edx, 35
  0009b	c7 84 01 00 00
	00 00 00 00 00
	00		 mov	 DWORD PTR ?fn_get_local_entity_float_value@@3PAY0KP@P6GMPAUENTITY@@W4FLOAT_TYPES@@@ZA[ecx+eax], OFFSET ?get_local_float_value@@YGMPAUENTITY@@W4FLOAT_TYPES@@@Z ; get_local_float_value

; 461  : 
; 462  : 	fn_set_local_entity_raw_float_value			[ENTITY_TYPE_SESSION][FLOAT_TYPE_FOG_OF_WAR_MAXIMUM_VALUE]							= set_local_float_value;

  000a6	b8 bc 02 00 00	 mov	 eax, 700		; 000002bcH
  000ab	6b c8 1b	 imul	 ecx, eax, 27
  000ae	ba 04 00 00 00	 mov	 edx, 4
  000b3	6b c2 2c	 imul	 eax, edx, 44
  000b6	c7 84 01 00 00
	00 00 00 00 00
	00		 mov	 DWORD PTR ?fn_set_local_entity_raw_float_value@@3PAY0KP@P6GXPAUENTITY@@W4FLOAT_TYPES@@M@ZA[ecx+eax], OFFSET ?set_local_float_value@@YGXPAUENTITY@@W4FLOAT_TYPES@@M@Z ; set_local_float_value

; 463  : 	fn_set_local_entity_float_value				[ENTITY_TYPE_SESSION][FLOAT_TYPE_FOG_OF_WAR_MAXIMUM_VALUE]						  	= set_local_float_value;

  000c1	b8 bc 02 00 00	 mov	 eax, 700		; 000002bcH
  000c6	6b c8 1b	 imul	 ecx, eax, 27
  000c9	ba 04 00 00 00	 mov	 edx, 4
  000ce	6b c2 2c	 imul	 eax, edx, 44
  000d1	c7 84 01 00 00
	00 00 00 00 00
	00		 mov	 DWORD PTR ?fn_set_local_entity_float_value@@3PAY0KP@P6GXPAUENTITY@@W4FLOAT_TYPES@@M@ZA[ecx+eax], OFFSET ?set_local_float_value@@YGXPAUENTITY@@W4FLOAT_TYPES@@M@Z ; set_local_float_value

; 464  : 	fn_set_client_server_entity_float_value	[ENTITY_TYPE_SESSION][FLOAT_TYPE_FOG_OF_WAR_MAXIMUM_VALUE][COMMS_MODEL_SERVER]	= set_server_float_value;

  000dc	b8 78 05 00 00	 mov	 eax, 1400		; 00000578H
  000e1	6b c8 1b	 imul	 ecx, eax, 27
  000e4	ba 08 00 00 00	 mov	 edx, 8
  000e9	6b c2 2c	 imul	 eax, edx, 44
  000ec	8d 8c 01 00 00
	00 00		 lea	 ecx, DWORD PTR ?fn_set_client_server_entity_float_value@@3PAY1KP@1P6GXPAUENTITY@@W4FLOAT_TYPES@@M@ZA[ecx+eax]
  000f3	ba 04 00 00 00	 mov	 edx, 4
  000f8	6b c2 00	 imul	 eax, edx, 0
  000fb	c7 04 01 00 00
	00 00		 mov	 DWORD PTR [ecx+eax], OFFSET ?set_server_float_value@@YGXPAUENTITY@@W4FLOAT_TYPES@@M@Z ; set_server_float_value

; 465  : 	fn_set_client_server_entity_float_value	[ENTITY_TYPE_SESSION][FLOAT_TYPE_FOG_OF_WAR_MAXIMUM_VALUE][COMMS_MODEL_CLIENT]	= set_client_float_value;

  00102	b8 78 05 00 00	 mov	 eax, 1400		; 00000578H
  00107	6b c8 1b	 imul	 ecx, eax, 27
  0010a	ba 08 00 00 00	 mov	 edx, 8
  0010f	6b c2 2c	 imul	 eax, edx, 44
  00112	8d 8c 01 00 00
	00 00		 lea	 ecx, DWORD PTR ?fn_set_client_server_entity_float_value@@3PAY1KP@1P6GXPAUENTITY@@W4FLOAT_TYPES@@M@ZA[ecx+eax]
  00119	ba 04 00 00 00	 mov	 edx, 4
  0011e	c1 e2 00	 shl	 edx, 0
  00121	c7 04 11 00 00
	00 00		 mov	 DWORD PTR [ecx+edx], OFFSET ?set_client_float_value@@YGXPAUENTITY@@W4FLOAT_TYPES@@M@Z ; set_client_float_value

; 466  : 	fn_get_local_entity_float_value				[ENTITY_TYPE_SESSION][FLOAT_TYPE_FOG_OF_WAR_MAXIMUM_VALUE]							= get_local_float_value;

  00128	b8 bc 02 00 00	 mov	 eax, 700		; 000002bcH
  0012d	6b c8 1b	 imul	 ecx, eax, 27
  00130	ba 04 00 00 00	 mov	 edx, 4
  00135	6b c2 2c	 imul	 eax, edx, 44
  00138	c7 84 01 00 00
	00 00 00 00 00
	00		 mov	 DWORD PTR ?fn_get_local_entity_float_value@@3PAY0KP@P6GMPAUENTITY@@W4FLOAT_TYPES@@@ZA[ecx+eax], OFFSET ?get_local_float_value@@YGMPAUENTITY@@W4FLOAT_TYPES@@@Z ; get_local_float_value

; 467  : 
; 468  : 	fn_set_local_entity_raw_float_value			[ENTITY_TYPE_SESSION][FLOAT_TYPE_LIGHTNING_TIMER]								= set_local_float_value;

  00143	b8 bc 02 00 00	 mov	 eax, 700		; 000002bcH
  00148	6b c8 1b	 imul	 ecx, eax, 27
  0014b	ba 04 00 00 00	 mov	 edx, 4
  00150	6b c2 3e	 imul	 eax, edx, 62
  00153	c7 84 01 00 00
	00 00 00 00 00
	00		 mov	 DWORD PTR ?fn_set_local_entity_raw_float_value@@3PAY0KP@P6GXPAUENTITY@@W4FLOAT_TYPES@@M@ZA[ecx+eax], OFFSET ?set_local_float_value@@YGXPAUENTITY@@W4FLOAT_TYPES@@M@Z ; set_local_float_value

; 469  : 	fn_set_local_entity_float_value				[ENTITY_TYPE_SESSION][FLOAT_TYPE_LIGHTNING_TIMER]							  	= set_local_float_value;

  0015e	b8 bc 02 00 00	 mov	 eax, 700		; 000002bcH
  00163	6b c8 1b	 imul	 ecx, eax, 27
  00166	ba 04 00 00 00	 mov	 edx, 4
  0016b	6b c2 3e	 imul	 eax, edx, 62
  0016e	c7 84 01 00 00
	00 00 00 00 00
	00		 mov	 DWORD PTR ?fn_set_local_entity_float_value@@3PAY0KP@P6GXPAUENTITY@@W4FLOAT_TYPES@@M@ZA[ecx+eax], OFFSET ?set_local_float_value@@YGXPAUENTITY@@W4FLOAT_TYPES@@M@Z ; set_local_float_value

; 470  : 	fn_set_client_server_entity_float_value	[ENTITY_TYPE_SESSION][FLOAT_TYPE_LIGHTNING_TIMER][COMMS_MODEL_SERVER]	= set_server_float_value;

  00179	b8 78 05 00 00	 mov	 eax, 1400		; 00000578H
  0017e	6b c8 1b	 imul	 ecx, eax, 27
  00181	ba 08 00 00 00	 mov	 edx, 8
  00186	6b c2 3e	 imul	 eax, edx, 62
  00189	8d 8c 01 00 00
	00 00		 lea	 ecx, DWORD PTR ?fn_set_client_server_entity_float_value@@3PAY1KP@1P6GXPAUENTITY@@W4FLOAT_TYPES@@M@ZA[ecx+eax]
  00190	ba 04 00 00 00	 mov	 edx, 4
  00195	6b c2 00	 imul	 eax, edx, 0
  00198	c7 04 01 00 00
	00 00		 mov	 DWORD PTR [ecx+eax], OFFSET ?set_server_float_value@@YGXPAUENTITY@@W4FLOAT_TYPES@@M@Z ; set_server_float_value

; 471  : 	fn_set_client_server_entity_float_value	[ENTITY_TYPE_SESSION][FLOAT_TYPE_LIGHTNING_TIMER][COMMS_MODEL_CLIENT]	= set_client_float_value;

  0019f	b8 78 05 00 00	 mov	 eax, 1400		; 00000578H
  001a4	6b c8 1b	 imul	 ecx, eax, 27
  001a7	ba 08 00 00 00	 mov	 edx, 8
  001ac	6b c2 3e	 imul	 eax, edx, 62
  001af	8d 8c 01 00 00
	00 00		 lea	 ecx, DWORD PTR ?fn_set_client_server_entity_float_value@@3PAY1KP@1P6GXPAUENTITY@@W4FLOAT_TYPES@@M@ZA[ecx+eax]
  001b6	ba 04 00 00 00	 mov	 edx, 4
  001bb	c1 e2 00	 shl	 edx, 0
  001be	c7 04 11 00 00
	00 00		 mov	 DWORD PTR [ecx+edx], OFFSET ?set_client_float_value@@YGXPAUENTITY@@W4FLOAT_TYPES@@M@Z ; set_client_float_value

; 472  : 	fn_get_local_entity_float_value				[ENTITY_TYPE_SESSION][FLOAT_TYPE_LIGHTNING_TIMER]								= get_local_float_value;

  001c5	b8 bc 02 00 00	 mov	 eax, 700		; 000002bcH
  001ca	6b c8 1b	 imul	 ecx, eax, 27
  001cd	ba 04 00 00 00	 mov	 edx, 4
  001d2	6b c2 3e	 imul	 eax, edx, 62
  001d5	c7 84 01 00 00
	00 00 00 00 00
	00		 mov	 DWORD PTR ?fn_get_local_entity_float_value@@3PAY0KP@P6GMPAUENTITY@@W4FLOAT_TYPES@@@ZA[ecx+eax], OFFSET ?get_local_float_value@@YGMPAUENTITY@@W4FLOAT_TYPES@@@Z ; get_local_float_value

; 473  : 
; 474  : 	fn_set_local_entity_raw_float_value			[ENTITY_TYPE_SESSION][FLOAT_TYPE_POPULATION_X_MIN]								= set_local_float_value;

  001e0	b8 bc 02 00 00	 mov	 eax, 700		; 000002bcH
  001e5	6b c8 1b	 imul	 ecx, eax, 27
  001e8	ba 04 00 00 00	 mov	 edx, 4
  001ed	6b c2 57	 imul	 eax, edx, 87
  001f0	c7 84 01 00 00
	00 00 00 00 00
	00		 mov	 DWORD PTR ?fn_set_local_entity_raw_float_value@@3PAY0KP@P6GXPAUENTITY@@W4FLOAT_TYPES@@M@ZA[ecx+eax], OFFSET ?set_local_float_value@@YGXPAUENTITY@@W4FLOAT_TYPES@@M@Z ; set_local_float_value

; 475  : 	fn_set_local_entity_float_value				[ENTITY_TYPE_SESSION][FLOAT_TYPE_POPULATION_X_MIN]							  	= set_local_float_value;

  001fb	b8 bc 02 00 00	 mov	 eax, 700		; 000002bcH
  00200	6b c8 1b	 imul	 ecx, eax, 27
  00203	ba 04 00 00 00	 mov	 edx, 4
  00208	6b c2 57	 imul	 eax, edx, 87
  0020b	c7 84 01 00 00
	00 00 00 00 00
	00		 mov	 DWORD PTR ?fn_set_local_entity_float_value@@3PAY0KP@P6GXPAUENTITY@@W4FLOAT_TYPES@@M@ZA[ecx+eax], OFFSET ?set_local_float_value@@YGXPAUENTITY@@W4FLOAT_TYPES@@M@Z ; set_local_float_value

; 476  : 	fn_set_client_server_entity_float_value	[ENTITY_TYPE_SESSION][FLOAT_TYPE_POPULATION_X_MIN][COMMS_MODEL_SERVER]	= set_server_float_value;

  00216	b8 78 05 00 00	 mov	 eax, 1400		; 00000578H
  0021b	6b c8 1b	 imul	 ecx, eax, 27
  0021e	ba 08 00 00 00	 mov	 edx, 8
  00223	6b c2 57	 imul	 eax, edx, 87
  00226	8d 8c 01 00 00
	00 00		 lea	 ecx, DWORD PTR ?fn_set_client_server_entity_float_value@@3PAY1KP@1P6GXPAUENTITY@@W4FLOAT_TYPES@@M@ZA[ecx+eax]
  0022d	ba 04 00 00 00	 mov	 edx, 4
  00232	6b c2 00	 imul	 eax, edx, 0
  00235	c7 04 01 00 00
	00 00		 mov	 DWORD PTR [ecx+eax], OFFSET ?set_server_float_value@@YGXPAUENTITY@@W4FLOAT_TYPES@@M@Z ; set_server_float_value

; 477  : 	fn_set_client_server_entity_float_value	[ENTITY_TYPE_SESSION][FLOAT_TYPE_POPULATION_X_MIN][COMMS_MODEL_CLIENT]	= set_client_float_value;

  0023c	b8 78 05 00 00	 mov	 eax, 1400		; 00000578H
  00241	6b c8 1b	 imul	 ecx, eax, 27
  00244	ba 08 00 00 00	 mov	 edx, 8
  00249	6b c2 57	 imul	 eax, edx, 87
  0024c	8d 8c 01 00 00
	00 00		 lea	 ecx, DWORD PTR ?fn_set_client_server_entity_float_value@@3PAY1KP@1P6GXPAUENTITY@@W4FLOAT_TYPES@@M@ZA[ecx+eax]
  00253	ba 04 00 00 00	 mov	 edx, 4
  00258	c1 e2 00	 shl	 edx, 0
  0025b	c7 04 11 00 00
	00 00		 mov	 DWORD PTR [ecx+edx], OFFSET ?set_client_float_value@@YGXPAUENTITY@@W4FLOAT_TYPES@@M@Z ; set_client_float_value

; 478  : 	fn_get_local_entity_float_value				[ENTITY_TYPE_SESSION][FLOAT_TYPE_POPULATION_X_MIN]								= get_local_float_value;

  00262	b8 bc 02 00 00	 mov	 eax, 700		; 000002bcH
  00267	6b c8 1b	 imul	 ecx, eax, 27
  0026a	ba 04 00 00 00	 mov	 edx, 4
  0026f	6b c2 57	 imul	 eax, edx, 87
  00272	c7 84 01 00 00
	00 00 00 00 00
	00		 mov	 DWORD PTR ?fn_get_local_entity_float_value@@3PAY0KP@P6GMPAUENTITY@@W4FLOAT_TYPES@@@ZA[ecx+eax], OFFSET ?get_local_float_value@@YGMPAUENTITY@@W4FLOAT_TYPES@@@Z ; get_local_float_value

; 479  : 
; 480  : 	fn_set_local_entity_raw_float_value			[ENTITY_TYPE_SESSION][FLOAT_TYPE_POPULATION_X_MAX]								= set_local_float_value;

  0027d	b8 bc 02 00 00	 mov	 eax, 700		; 000002bcH
  00282	6b c8 1b	 imul	 ecx, eax, 27
  00285	ba 04 00 00 00	 mov	 edx, 4
  0028a	6b c2 58	 imul	 eax, edx, 88
  0028d	c7 84 01 00 00
	00 00 00 00 00
	00		 mov	 DWORD PTR ?fn_set_local_entity_raw_float_value@@3PAY0KP@P6GXPAUENTITY@@W4FLOAT_TYPES@@M@ZA[ecx+eax], OFFSET ?set_local_float_value@@YGXPAUENTITY@@W4FLOAT_TYPES@@M@Z ; set_local_float_value

; 481  : 	fn_set_local_entity_float_value				[ENTITY_TYPE_SESSION][FLOAT_TYPE_POPULATION_X_MAX]							  	= set_local_float_value;

  00298	b8 bc 02 00 00	 mov	 eax, 700		; 000002bcH
  0029d	6b c8 1b	 imul	 ecx, eax, 27
  002a0	ba 04 00 00 00	 mov	 edx, 4
  002a5	6b c2 58	 imul	 eax, edx, 88
  002a8	c7 84 01 00 00
	00 00 00 00 00
	00		 mov	 DWORD PTR ?fn_set_local_entity_float_value@@3PAY0KP@P6GXPAUENTITY@@W4FLOAT_TYPES@@M@ZA[ecx+eax], OFFSET ?set_local_float_value@@YGXPAUENTITY@@W4FLOAT_TYPES@@M@Z ; set_local_float_value

; 482  : 	fn_set_client_server_entity_float_value	[ENTITY_TYPE_SESSION][FLOAT_TYPE_POPULATION_X_MAX][COMMS_MODEL_SERVER]	= set_server_float_value;

  002b3	b8 78 05 00 00	 mov	 eax, 1400		; 00000578H
  002b8	6b c8 1b	 imul	 ecx, eax, 27
  002bb	ba 08 00 00 00	 mov	 edx, 8
  002c0	6b c2 58	 imul	 eax, edx, 88
  002c3	8d 8c 01 00 00
	00 00		 lea	 ecx, DWORD PTR ?fn_set_client_server_entity_float_value@@3PAY1KP@1P6GXPAUENTITY@@W4FLOAT_TYPES@@M@ZA[ecx+eax]
  002ca	ba 04 00 00 00	 mov	 edx, 4
  002cf	6b c2 00	 imul	 eax, edx, 0
  002d2	c7 04 01 00 00
	00 00		 mov	 DWORD PTR [ecx+eax], OFFSET ?set_server_float_value@@YGXPAUENTITY@@W4FLOAT_TYPES@@M@Z ; set_server_float_value

; 483  : 	fn_set_client_server_entity_float_value	[ENTITY_TYPE_SESSION][FLOAT_TYPE_POPULATION_X_MAX][COMMS_MODEL_CLIENT]	= set_client_float_value;

  002d9	b8 78 05 00 00	 mov	 eax, 1400		; 00000578H
  002de	6b c8 1b	 imul	 ecx, eax, 27
  002e1	ba 08 00 00 00	 mov	 edx, 8
  002e6	6b c2 58	 imul	 eax, edx, 88
  002e9	8d 8c 01 00 00
	00 00		 lea	 ecx, DWORD PTR ?fn_set_client_server_entity_float_value@@3PAY1KP@1P6GXPAUENTITY@@W4FLOAT_TYPES@@M@ZA[ecx+eax]
  002f0	ba 04 00 00 00	 mov	 edx, 4
  002f5	c1 e2 00	 shl	 edx, 0
  002f8	c7 04 11 00 00
	00 00		 mov	 DWORD PTR [ecx+edx], OFFSET ?set_client_float_value@@YGXPAUENTITY@@W4FLOAT_TYPES@@M@Z ; set_client_float_value

; 484  : 	fn_get_local_entity_float_value				[ENTITY_TYPE_SESSION][FLOAT_TYPE_POPULATION_X_MAX]								= get_local_float_value;

  002ff	b8 bc 02 00 00	 mov	 eax, 700		; 000002bcH
  00304	6b c8 1b	 imul	 ecx, eax, 27
  00307	ba 04 00 00 00	 mov	 edx, 4
  0030c	6b c2 58	 imul	 eax, edx, 88
  0030f	c7 84 01 00 00
	00 00 00 00 00
	00		 mov	 DWORD PTR ?fn_get_local_entity_float_value@@3PAY0KP@P6GMPAUENTITY@@W4FLOAT_TYPES@@@ZA[ecx+eax], OFFSET ?get_local_float_value@@YGMPAUENTITY@@W4FLOAT_TYPES@@@Z ; get_local_float_value

; 485  : 
; 486  : 	fn_set_local_entity_raw_float_value			[ENTITY_TYPE_SESSION][FLOAT_TYPE_POPULATION_Z_MIN]								= set_local_float_value;

  0031a	b8 bc 02 00 00	 mov	 eax, 700		; 000002bcH
  0031f	6b c8 1b	 imul	 ecx, eax, 27
  00322	ba 04 00 00 00	 mov	 edx, 4
  00327	6b c2 59	 imul	 eax, edx, 89
  0032a	c7 84 01 00 00
	00 00 00 00 00
	00		 mov	 DWORD PTR ?fn_set_local_entity_raw_float_value@@3PAY0KP@P6GXPAUENTITY@@W4FLOAT_TYPES@@M@ZA[ecx+eax], OFFSET ?set_local_float_value@@YGXPAUENTITY@@W4FLOAT_TYPES@@M@Z ; set_local_float_value

; 487  : 	fn_set_local_entity_float_value				[ENTITY_TYPE_SESSION][FLOAT_TYPE_POPULATION_Z_MIN]							  	= set_local_float_value;

  00335	b8 bc 02 00 00	 mov	 eax, 700		; 000002bcH
  0033a	6b c8 1b	 imul	 ecx, eax, 27
  0033d	ba 04 00 00 00	 mov	 edx, 4
  00342	6b c2 59	 imul	 eax, edx, 89
  00345	c7 84 01 00 00
	00 00 00 00 00
	00		 mov	 DWORD PTR ?fn_set_local_entity_float_value@@3PAY0KP@P6GXPAUENTITY@@W4FLOAT_TYPES@@M@ZA[ecx+eax], OFFSET ?set_local_float_value@@YGXPAUENTITY@@W4FLOAT_TYPES@@M@Z ; set_local_float_value

; 488  : 	fn_set_client_server_entity_float_value	[ENTITY_TYPE_SESSION][FLOAT_TYPE_POPULATION_Z_MIN][COMMS_MODEL_SERVER]	= set_server_float_value;

  00350	b8 78 05 00 00	 mov	 eax, 1400		; 00000578H
  00355	6b c8 1b	 imul	 ecx, eax, 27
  00358	ba 08 00 00 00	 mov	 edx, 8
  0035d	6b c2 59	 imul	 eax, edx, 89
  00360	8d 8c 01 00 00
	00 00		 lea	 ecx, DWORD PTR ?fn_set_client_server_entity_float_value@@3PAY1KP@1P6GXPAUENTITY@@W4FLOAT_TYPES@@M@ZA[ecx+eax]
  00367	ba 04 00 00 00	 mov	 edx, 4
  0036c	6b c2 00	 imul	 eax, edx, 0
  0036f	c7 04 01 00 00
	00 00		 mov	 DWORD PTR [ecx+eax], OFFSET ?set_server_float_value@@YGXPAUENTITY@@W4FLOAT_TYPES@@M@Z ; set_server_float_value

; 489  : 	fn_set_client_server_entity_float_value	[ENTITY_TYPE_SESSION][FLOAT_TYPE_POPULATION_Z_MIN][COMMS_MODEL_CLIENT]	= set_client_float_value;

  00376	b8 78 05 00 00	 mov	 eax, 1400		; 00000578H
  0037b	6b c8 1b	 imul	 ecx, eax, 27
  0037e	ba 08 00 00 00	 mov	 edx, 8
  00383	6b c2 59	 imul	 eax, edx, 89
  00386	8d 8c 01 00 00
	00 00		 lea	 ecx, DWORD PTR ?fn_set_client_server_entity_float_value@@3PAY1KP@1P6GXPAUENTITY@@W4FLOAT_TYPES@@M@ZA[ecx+eax]
  0038d	ba 04 00 00 00	 mov	 edx, 4
  00392	c1 e2 00	 shl	 edx, 0
  00395	c7 04 11 00 00
	00 00		 mov	 DWORD PTR [ecx+edx], OFFSET ?set_client_float_value@@YGXPAUENTITY@@W4FLOAT_TYPES@@M@Z ; set_client_float_value

; 490  : 	fn_get_local_entity_float_value				[ENTITY_TYPE_SESSION][FLOAT_TYPE_POPULATION_Z_MIN]								= get_local_float_value;

  0039c	b8 bc 02 00 00	 mov	 eax, 700		; 000002bcH
  003a1	6b c8 1b	 imul	 ecx, eax, 27
  003a4	ba 04 00 00 00	 mov	 edx, 4
  003a9	6b c2 59	 imul	 eax, edx, 89
  003ac	c7 84 01 00 00
	00 00 00 00 00
	00		 mov	 DWORD PTR ?fn_get_local_entity_float_value@@3PAY0KP@P6GMPAUENTITY@@W4FLOAT_TYPES@@@ZA[ecx+eax], OFFSET ?get_local_float_value@@YGMPAUENTITY@@W4FLOAT_TYPES@@@Z ; get_local_float_value

; 491  : 
; 492  : 	fn_set_local_entity_raw_float_value			[ENTITY_TYPE_SESSION][FLOAT_TYPE_POPULATION_Z_MAX]								= set_local_float_value;

  003b7	b8 bc 02 00 00	 mov	 eax, 700		; 000002bcH
  003bc	6b c8 1b	 imul	 ecx, eax, 27
  003bf	ba 04 00 00 00	 mov	 edx, 4
  003c4	6b c2 5a	 imul	 eax, edx, 90
  003c7	c7 84 01 00 00
	00 00 00 00 00
	00		 mov	 DWORD PTR ?fn_set_local_entity_raw_float_value@@3PAY0KP@P6GXPAUENTITY@@W4FLOAT_TYPES@@M@ZA[ecx+eax], OFFSET ?set_local_float_value@@YGXPAUENTITY@@W4FLOAT_TYPES@@M@Z ; set_local_float_value

; 493  : 	fn_set_local_entity_float_value				[ENTITY_TYPE_SESSION][FLOAT_TYPE_POPULATION_Z_MAX]							  	= set_local_float_value;

  003d2	b8 bc 02 00 00	 mov	 eax, 700		; 000002bcH
  003d7	6b c8 1b	 imul	 ecx, eax, 27
  003da	ba 04 00 00 00	 mov	 edx, 4
  003df	6b c2 5a	 imul	 eax, edx, 90
  003e2	c7 84 01 00 00
	00 00 00 00 00
	00		 mov	 DWORD PTR ?fn_set_local_entity_float_value@@3PAY0KP@P6GXPAUENTITY@@W4FLOAT_TYPES@@M@ZA[ecx+eax], OFFSET ?set_local_float_value@@YGXPAUENTITY@@W4FLOAT_TYPES@@M@Z ; set_local_float_value

; 494  : 	fn_set_client_server_entity_float_value	[ENTITY_TYPE_SESSION][FLOAT_TYPE_POPULATION_Z_MAX][COMMS_MODEL_SERVER]	= set_server_float_value;

  003ed	b8 78 05 00 00	 mov	 eax, 1400		; 00000578H
  003f2	6b c8 1b	 imul	 ecx, eax, 27
  003f5	ba 08 00 00 00	 mov	 edx, 8
  003fa	6b c2 5a	 imul	 eax, edx, 90
  003fd	8d 8c 01 00 00
	00 00		 lea	 ecx, DWORD PTR ?fn_set_client_server_entity_float_value@@3PAY1KP@1P6GXPAUENTITY@@W4FLOAT_TYPES@@M@ZA[ecx+eax]
  00404	ba 04 00 00 00	 mov	 edx, 4
  00409	6b c2 00	 imul	 eax, edx, 0
  0040c	c7 04 01 00 00
	00 00		 mov	 DWORD PTR [ecx+eax], OFFSET ?set_server_float_value@@YGXPAUENTITY@@W4FLOAT_TYPES@@M@Z ; set_server_float_value

; 495  : 	fn_set_client_server_entity_float_value	[ENTITY_TYPE_SESSION][FLOAT_TYPE_POPULATION_Z_MAX][COMMS_MODEL_CLIENT]	= set_client_float_value;

  00413	b8 78 05 00 00	 mov	 eax, 1400		; 00000578H
  00418	6b c8 1b	 imul	 ecx, eax, 27
  0041b	ba 08 00 00 00	 mov	 edx, 8
  00420	6b c2 5a	 imul	 eax, edx, 90
  00423	8d 8c 01 00 00
	00 00		 lea	 ecx, DWORD PTR ?fn_set_client_server_entity_float_value@@3PAY1KP@1P6GXPAUENTITY@@W4FLOAT_TYPES@@M@ZA[ecx+eax]
  0042a	ba 04 00 00 00	 mov	 edx, 4
  0042f	c1 e2 00	 shl	 edx, 0
  00432	c7 04 11 00 00
	00 00		 mov	 DWORD PTR [ecx+edx], OFFSET ?set_client_float_value@@YGXPAUENTITY@@W4FLOAT_TYPES@@M@Z ; set_client_float_value

; 496  : 	fn_get_local_entity_float_value				[ENTITY_TYPE_SESSION][FLOAT_TYPE_POPULATION_Z_MAX]								= get_local_float_value;

  00439	b8 bc 02 00 00	 mov	 eax, 700		; 000002bcH
  0043e	6b c8 1b	 imul	 ecx, eax, 27
  00441	ba 04 00 00 00	 mov	 edx, 4
  00446	6b c2 5a	 imul	 eax, edx, 90
  00449	c7 84 01 00 00
	00 00 00 00 00
	00		 mov	 DWORD PTR ?fn_get_local_entity_float_value@@3PAY0KP@P6GMPAUENTITY@@W4FLOAT_TYPES@@@ZA[ecx+eax], OFFSET ?get_local_float_value@@YGMPAUENTITY@@W4FLOAT_TYPES@@@Z ; get_local_float_value

; 497  : 
; 498  : 	fn_set_local_entity_raw_float_value			[ENTITY_TYPE_SESSION][FLOAT_TYPE_START_TIME]								= set_local_float_value;

  00454	b8 bc 02 00 00	 mov	 eax, 700		; 000002bcH
  00459	6b c8 1b	 imul	 ecx, eax, 27
  0045c	ba 04 00 00 00	 mov	 edx, 4
  00461	6b c2 7d	 imul	 eax, edx, 125
  00464	c7 84 01 00 00
	00 00 00 00 00
	00		 mov	 DWORD PTR ?fn_set_local_entity_raw_float_value@@3PAY0KP@P6GXPAUENTITY@@W4FLOAT_TYPES@@M@ZA[ecx+eax], OFFSET ?set_local_float_value@@YGXPAUENTITY@@W4FLOAT_TYPES@@M@Z ; set_local_float_value

; 499  : 	fn_set_local_entity_float_value				[ENTITY_TYPE_SESSION][FLOAT_TYPE_START_TIME]							  	= set_local_float_value;

  0046f	b8 bc 02 00 00	 mov	 eax, 700		; 000002bcH
  00474	6b c8 1b	 imul	 ecx, eax, 27
  00477	ba 04 00 00 00	 mov	 edx, 4
  0047c	6b c2 7d	 imul	 eax, edx, 125
  0047f	c7 84 01 00 00
	00 00 00 00 00
	00		 mov	 DWORD PTR ?fn_set_local_entity_float_value@@3PAY0KP@P6GXPAUENTITY@@W4FLOAT_TYPES@@M@ZA[ecx+eax], OFFSET ?set_local_float_value@@YGXPAUENTITY@@W4FLOAT_TYPES@@M@Z ; set_local_float_value

; 500  : 	fn_set_client_server_entity_float_value	[ENTITY_TYPE_SESSION][FLOAT_TYPE_START_TIME][COMMS_MODEL_SERVER]	= set_server_float_value;

  0048a	b8 78 05 00 00	 mov	 eax, 1400		; 00000578H
  0048f	6b c8 1b	 imul	 ecx, eax, 27
  00492	ba 08 00 00 00	 mov	 edx, 8
  00497	6b c2 7d	 imul	 eax, edx, 125
  0049a	8d 8c 01 00 00
	00 00		 lea	 ecx, DWORD PTR ?fn_set_client_server_entity_float_value@@3PAY1KP@1P6GXPAUENTITY@@W4FLOAT_TYPES@@M@ZA[ecx+eax]
  004a1	ba 04 00 00 00	 mov	 edx, 4
  004a6	6b c2 00	 imul	 eax, edx, 0
  004a9	c7 04 01 00 00
	00 00		 mov	 DWORD PTR [ecx+eax], OFFSET ?set_server_float_value@@YGXPAUENTITY@@W4FLOAT_TYPES@@M@Z ; set_server_float_value

; 501  : 	fn_set_client_server_entity_float_value	[ENTITY_TYPE_SESSION][FLOAT_TYPE_START_TIME][COMMS_MODEL_CLIENT]	= set_client_float_value;

  004b0	b8 78 05 00 00	 mov	 eax, 1400		; 00000578H
  004b5	6b c8 1b	 imul	 ecx, eax, 27
  004b8	ba 08 00 00 00	 mov	 edx, 8
  004bd	6b c2 7d	 imul	 eax, edx, 125
  004c0	8d 8c 01 00 00
	00 00		 lea	 ecx, DWORD PTR ?fn_set_client_server_entity_float_value@@3PAY1KP@1P6GXPAUENTITY@@W4FLOAT_TYPES@@M@ZA[ecx+eax]
  004c7	ba 04 00 00 00	 mov	 edx, 4
  004cc	c1 e2 00	 shl	 edx, 0
  004cf	c7 04 11 00 00
	00 00		 mov	 DWORD PTR [ecx+edx], OFFSET ?set_client_float_value@@YGXPAUENTITY@@W4FLOAT_TYPES@@M@Z ; set_client_float_value

; 502  : 	fn_get_local_entity_float_value				[ENTITY_TYPE_SESSION][FLOAT_TYPE_START_TIME]								= get_local_float_value;

  004d6	b8 bc 02 00 00	 mov	 eax, 700		; 000002bcH
  004db	6b c8 1b	 imul	 ecx, eax, 27
  004de	ba 04 00 00 00	 mov	 edx, 4
  004e3	6b c2 7d	 imul	 eax, edx, 125
  004e6	c7 84 01 00 00
	00 00 00 00 00
	00		 mov	 DWORD PTR ?fn_get_local_entity_float_value@@3PAY0KP@P6GMPAUENTITY@@W4FLOAT_TYPES@@@ZA[ecx+eax], OFFSET ?get_local_float_value@@YGMPAUENTITY@@W4FLOAT_TYPES@@@Z ; get_local_float_value

; 503  : 
; 504  : 	fn_get_local_entity_float_value				[ENTITY_TYPE_SESSION][FLOAT_TYPE_TIME_OF_DAY]							= get_local_float_value;

  004f1	b8 bc 02 00 00	 mov	 eax, 700		; 000002bcH
  004f6	6b c8 1b	 imul	 ecx, eax, 27
  004f9	ba 04 00 00 00	 mov	 edx, 4
  004fe	69 c2 8e 00 00
	00		 imul	 eax, edx, 142
  00504	c7 84 01 00 00
	00 00 00 00 00
	00		 mov	 DWORD PTR ?fn_get_local_entity_float_value@@3PAY0KP@P6GMPAUENTITY@@W4FLOAT_TYPES@@@ZA[ecx+eax], OFFSET ?get_local_float_value@@YGMPAUENTITY@@W4FLOAT_TYPES@@@Z ; get_local_float_value

; 505  : 
; 506  : 	fn_set_local_entity_raw_float_value			[ENTITY_TYPE_SESSION][FLOAT_TYPE_TIME_OF_DAY_ACCELERATION]						  		= set_local_float_value;

  0050f	b8 bc 02 00 00	 mov	 eax, 700		; 000002bcH
  00514	6b c8 1b	 imul	 ecx, eax, 27
  00517	ba 04 00 00 00	 mov	 edx, 4
  0051c	69 c2 8f 00 00
	00		 imul	 eax, edx, 143
  00522	c7 84 01 00 00
	00 00 00 00 00
	00		 mov	 DWORD PTR ?fn_set_local_entity_raw_float_value@@3PAY0KP@P6GXPAUENTITY@@W4FLOAT_TYPES@@M@ZA[ecx+eax], OFFSET ?set_local_float_value@@YGXPAUENTITY@@W4FLOAT_TYPES@@M@Z ; set_local_float_value

; 507  : 	fn_set_local_entity_float_value				[ENTITY_TYPE_SESSION][FLOAT_TYPE_TIME_OF_DAY_ACCELERATION]						 	 	= set_local_float_value;

  0052d	b8 bc 02 00 00	 mov	 eax, 700		; 000002bcH
  00532	6b c8 1b	 imul	 ecx, eax, 27
  00535	ba 04 00 00 00	 mov	 edx, 4
  0053a	69 c2 8f 00 00
	00		 imul	 eax, edx, 143
  00540	c7 84 01 00 00
	00 00 00 00 00
	00		 mov	 DWORD PTR ?fn_set_local_entity_float_value@@3PAY0KP@P6GXPAUENTITY@@W4FLOAT_TYPES@@M@ZA[ecx+eax], OFFSET ?set_local_float_value@@YGXPAUENTITY@@W4FLOAT_TYPES@@M@Z ; set_local_float_value

; 508  : 	fn_set_client_server_entity_float_value	[ENTITY_TYPE_SESSION][FLOAT_TYPE_TIME_OF_DAY_ACCELERATION][COMMS_MODEL_SERVER]	= set_server_float_value;

  0054b	b8 78 05 00 00	 mov	 eax, 1400		; 00000578H
  00550	6b c8 1b	 imul	 ecx, eax, 27
  00553	ba 08 00 00 00	 mov	 edx, 8
  00558	69 c2 8f 00 00
	00		 imul	 eax, edx, 143
  0055e	8d 8c 01 00 00
	00 00		 lea	 ecx, DWORD PTR ?fn_set_client_server_entity_float_value@@3PAY1KP@1P6GXPAUENTITY@@W4FLOAT_TYPES@@M@ZA[ecx+eax]
  00565	ba 04 00 00 00	 mov	 edx, 4
  0056a	6b c2 00	 imul	 eax, edx, 0
  0056d	c7 04 01 00 00
	00 00		 mov	 DWORD PTR [ecx+eax], OFFSET ?set_server_float_value@@YGXPAUENTITY@@W4FLOAT_TYPES@@M@Z ; set_server_float_value

; 509  : 	fn_set_client_server_entity_float_value	[ENTITY_TYPE_SESSION][FLOAT_TYPE_TIME_OF_DAY_ACCELERATION][COMMS_MODEL_CLIENT]	= set_client_float_value;

  00574	b8 78 05 00 00	 mov	 eax, 1400		; 00000578H
  00579	6b c8 1b	 imul	 ecx, eax, 27
  0057c	ba 08 00 00 00	 mov	 edx, 8
  00581	69 c2 8f 00 00
	00		 imul	 eax, edx, 143
  00587	8d 8c 01 00 00
	00 00		 lea	 ecx, DWORD PTR ?fn_set_client_server_entity_float_value@@3PAY1KP@1P6GXPAUENTITY@@W4FLOAT_TYPES@@M@ZA[ecx+eax]
  0058e	ba 04 00 00 00	 mov	 edx, 4
  00593	c1 e2 00	 shl	 edx, 0
  00596	c7 04 11 00 00
	00 00		 mov	 DWORD PTR [ecx+edx], OFFSET ?set_client_float_value@@YGXPAUENTITY@@W4FLOAT_TYPES@@M@Z ; set_client_float_value

; 510  : 	fn_get_local_entity_float_value				[ENTITY_TYPE_SESSION][FLOAT_TYPE_TIME_OF_DAY_ACCELERATION]								= get_local_float_value;

  0059d	b8 bc 02 00 00	 mov	 eax, 700		; 000002bcH
  005a2	6b c8 1b	 imul	 ecx, eax, 27
  005a5	ba 04 00 00 00	 mov	 edx, 4
  005aa	69 c2 8f 00 00
	00		 imul	 eax, edx, 143
  005b0	c7 84 01 00 00
	00 00 00 00 00
	00		 mov	 DWORD PTR ?fn_get_local_entity_float_value@@3PAY0KP@P6GMPAUENTITY@@W4FLOAT_TYPES@@@ZA[ecx+eax], OFFSET ?get_local_float_value@@YGMPAUENTITY@@W4FLOAT_TYPES@@@Z ; get_local_float_value

; 511  : 
; 512  : 	fn_set_local_entity_raw_float_value			[ENTITY_TYPE_SESSION][FLOAT_TYPE_WEATHER_MODE_TRANSITIONAL_PERIOD]							= set_local_float_value;

  005bb	b8 bc 02 00 00	 mov	 eax, 700		; 000002bcH
  005c0	6b c8 1b	 imul	 ecx, eax, 27
  005c3	ba 04 00 00 00	 mov	 edx, 4
  005c8	69 c2 9b 00 00
	00		 imul	 eax, edx, 155
  005ce	c7 84 01 00 00
	00 00 00 00 00
	00		 mov	 DWORD PTR ?fn_set_local_entity_raw_float_value@@3PAY0KP@P6GXPAUENTITY@@W4FLOAT_TYPES@@M@ZA[ecx+eax], OFFSET ?set_local_float_value@@YGXPAUENTITY@@W4FLOAT_TYPES@@M@Z ; set_local_float_value

; 513  : 	fn_set_local_entity_float_value				[ENTITY_TYPE_SESSION][FLOAT_TYPE_WEATHER_MODE_TRANSITIONAL_PERIOD]							= set_local_float_value;

  005d9	b8 bc 02 00 00	 mov	 eax, 700		; 000002bcH
  005de	6b c8 1b	 imul	 ecx, eax, 27
  005e1	ba 04 00 00 00	 mov	 edx, 4
  005e6	69 c2 9b 00 00
	00		 imul	 eax, edx, 155
  005ec	c7 84 01 00 00
	00 00 00 00 00
	00		 mov	 DWORD PTR ?fn_set_local_entity_float_value@@3PAY0KP@P6GXPAUENTITY@@W4FLOAT_TYPES@@M@ZA[ecx+eax], OFFSET ?set_local_float_value@@YGXPAUENTITY@@W4FLOAT_TYPES@@M@Z ; set_local_float_value

; 514  : 	fn_set_client_server_entity_float_value	[ENTITY_TYPE_SESSION][FLOAT_TYPE_WEATHER_MODE_TRANSITIONAL_PERIOD][COMMS_MODEL_SERVER]	= set_server_float_value;

  005f7	b8 78 05 00 00	 mov	 eax, 1400		; 00000578H
  005fc	6b c8 1b	 imul	 ecx, eax, 27
  005ff	ba 08 00 00 00	 mov	 edx, 8
  00604	69 c2 9b 00 00
	00		 imul	 eax, edx, 155
  0060a	8d 8c 01 00 00
	00 00		 lea	 ecx, DWORD PTR ?fn_set_client_server_entity_float_value@@3PAY1KP@1P6GXPAUENTITY@@W4FLOAT_TYPES@@M@ZA[ecx+eax]
  00611	ba 04 00 00 00	 mov	 edx, 4
  00616	6b c2 00	 imul	 eax, edx, 0
  00619	c7 04 01 00 00
	00 00		 mov	 DWORD PTR [ecx+eax], OFFSET ?set_server_float_value@@YGXPAUENTITY@@W4FLOAT_TYPES@@M@Z ; set_server_float_value

; 515  : 	fn_set_client_server_entity_float_value	[ENTITY_TYPE_SESSION][FLOAT_TYPE_WEATHER_MODE_TRANSITIONAL_PERIOD][COMMS_MODEL_CLIENT]	= set_client_float_value;

  00620	b8 78 05 00 00	 mov	 eax, 1400		; 00000578H
  00625	6b c8 1b	 imul	 ecx, eax, 27
  00628	ba 08 00 00 00	 mov	 edx, 8
  0062d	69 c2 9b 00 00
	00		 imul	 eax, edx, 155
  00633	8d 8c 01 00 00
	00 00		 lea	 ecx, DWORD PTR ?fn_set_client_server_entity_float_value@@3PAY1KP@1P6GXPAUENTITY@@W4FLOAT_TYPES@@M@ZA[ecx+eax]
  0063a	ba 04 00 00 00	 mov	 edx, 4
  0063f	c1 e2 00	 shl	 edx, 0
  00642	c7 04 11 00 00
	00 00		 mov	 DWORD PTR [ecx+edx], OFFSET ?set_client_float_value@@YGXPAUENTITY@@W4FLOAT_TYPES@@M@Z ; set_client_float_value

; 516  : 	fn_get_local_entity_float_value				[ENTITY_TYPE_SESSION][FLOAT_TYPE_WEATHER_MODE_TRANSITIONAL_PERIOD]							= get_local_float_value;

  00649	b8 bc 02 00 00	 mov	 eax, 700		; 000002bcH
  0064e	6b c8 1b	 imul	 ecx, eax, 27
  00651	ba 04 00 00 00	 mov	 edx, 4
  00656	69 c2 9b 00 00
	00		 imul	 eax, edx, 155
  0065c	c7 84 01 00 00
	00 00 00 00 00
	00		 mov	 DWORD PTR ?fn_get_local_entity_float_value@@3PAY0KP@P6GMPAUENTITY@@W4FLOAT_TYPES@@@ZA[ecx+eax], OFFSET ?get_local_float_value@@YGMPAUENTITY@@W4FLOAT_TYPES@@@Z ; get_local_float_value

; 517  : 
; 518  : 	fn_set_local_entity_raw_float_value			[ENTITY_TYPE_SESSION][FLOAT_TYPE_WEATHER_MODE_TRANSITIONAL_STATUS]							= set_local_float_value;

  00667	b8 bc 02 00 00	 mov	 eax, 700		; 000002bcH
  0066c	6b c8 1b	 imul	 ecx, eax, 27
  0066f	ba 04 00 00 00	 mov	 edx, 4
  00674	69 c2 9c 00 00
	00		 imul	 eax, edx, 156
  0067a	c7 84 01 00 00
	00 00 00 00 00
	00		 mov	 DWORD PTR ?fn_set_local_entity_raw_float_value@@3PAY0KP@P6GXPAUENTITY@@W4FLOAT_TYPES@@M@ZA[ecx+eax], OFFSET ?set_local_float_value@@YGXPAUENTITY@@W4FLOAT_TYPES@@M@Z ; set_local_float_value

; 519  : 	fn_set_local_entity_float_value				[ENTITY_TYPE_SESSION][FLOAT_TYPE_WEATHER_MODE_TRANSITIONAL_STATUS]							= set_local_float_value;

  00685	b8 bc 02 00 00	 mov	 eax, 700		; 000002bcH
  0068a	6b c8 1b	 imul	 ecx, eax, 27
  0068d	ba 04 00 00 00	 mov	 edx, 4
  00692	69 c2 9c 00 00
	00		 imul	 eax, edx, 156
  00698	c7 84 01 00 00
	00 00 00 00 00
	00		 mov	 DWORD PTR ?fn_set_local_entity_float_value@@3PAY0KP@P6GXPAUENTITY@@W4FLOAT_TYPES@@M@ZA[ecx+eax], OFFSET ?set_local_float_value@@YGXPAUENTITY@@W4FLOAT_TYPES@@M@Z ; set_local_float_value

; 520  : 	fn_set_client_server_entity_float_value	[ENTITY_TYPE_SESSION][FLOAT_TYPE_WEATHER_MODE_TRANSITIONAL_STATUS][COMMS_MODEL_SERVER]	= set_server_float_value;

  006a3	b8 78 05 00 00	 mov	 eax, 1400		; 00000578H
  006a8	6b c8 1b	 imul	 ecx, eax, 27
  006ab	ba 08 00 00 00	 mov	 edx, 8
  006b0	69 c2 9c 00 00
	00		 imul	 eax, edx, 156
  006b6	8d 8c 01 00 00
	00 00		 lea	 ecx, DWORD PTR ?fn_set_client_server_entity_float_value@@3PAY1KP@1P6GXPAUENTITY@@W4FLOAT_TYPES@@M@ZA[ecx+eax]
  006bd	ba 04 00 00 00	 mov	 edx, 4
  006c2	6b c2 00	 imul	 eax, edx, 0
  006c5	c7 04 01 00 00
	00 00		 mov	 DWORD PTR [ecx+eax], OFFSET ?set_server_float_value@@YGXPAUENTITY@@W4FLOAT_TYPES@@M@Z ; set_server_float_value

; 521  : 	fn_set_client_server_entity_float_value	[ENTITY_TYPE_SESSION][FLOAT_TYPE_WEATHER_MODE_TRANSITIONAL_STATUS][COMMS_MODEL_CLIENT]	= set_client_float_value;

  006cc	b8 78 05 00 00	 mov	 eax, 1400		; 00000578H
  006d1	6b c8 1b	 imul	 ecx, eax, 27
  006d4	ba 08 00 00 00	 mov	 edx, 8
  006d9	69 c2 9c 00 00
	00		 imul	 eax, edx, 156
  006df	8d 8c 01 00 00
	00 00		 lea	 ecx, DWORD PTR ?fn_set_client_server_entity_float_value@@3PAY1KP@1P6GXPAUENTITY@@W4FLOAT_TYPES@@M@ZA[ecx+eax]
  006e6	ba 04 00 00 00	 mov	 edx, 4
  006eb	c1 e2 00	 shl	 edx, 0
  006ee	c7 04 11 00 00
	00 00		 mov	 DWORD PTR [ecx+edx], OFFSET ?set_client_float_value@@YGXPAUENTITY@@W4FLOAT_TYPES@@M@Z ; set_client_float_value

; 522  : 	fn_get_local_entity_float_value				[ENTITY_TYPE_SESSION][FLOAT_TYPE_WEATHER_MODE_TRANSITIONAL_STATUS]							= get_local_float_value;

  006f5	b8 bc 02 00 00	 mov	 eax, 700		; 000002bcH
  006fa	6b c8 1b	 imul	 ecx, eax, 27
  006fd	ba 04 00 00 00	 mov	 edx, 4
  00702	69 c2 9c 00 00
	00		 imul	 eax, edx, 156
  00708	c7 84 01 00 00
	00 00 00 00 00
	00		 mov	 DWORD PTR ?fn_get_local_entity_float_value@@3PAY0KP@P6GMPAUENTITY@@W4FLOAT_TYPES@@@ZA[ecx+eax], OFFSET ?get_local_float_value@@YGMPAUENTITY@@W4FLOAT_TYPES@@@Z ; get_local_float_value

; 523  : 
; 524  : 	fn_set_local_entity_raw_float_value			[ENTITY_TYPE_SESSION][FLOAT_TYPE_WEATHER_RADIUS]							= set_local_float_value;

  00713	b8 bc 02 00 00	 mov	 eax, 700		; 000002bcH
  00718	6b c8 1b	 imul	 ecx, eax, 27
  0071b	ba 04 00 00 00	 mov	 edx, 4
  00720	69 c2 9d 00 00
	00		 imul	 eax, edx, 157
  00726	c7 84 01 00 00
	00 00 00 00 00
	00		 mov	 DWORD PTR ?fn_set_local_entity_raw_float_value@@3PAY0KP@P6GXPAUENTITY@@W4FLOAT_TYPES@@M@ZA[ecx+eax], OFFSET ?set_local_float_value@@YGXPAUENTITY@@W4FLOAT_TYPES@@M@Z ; set_local_float_value

; 525  : 	fn_set_local_entity_float_value				[ENTITY_TYPE_SESSION][FLOAT_TYPE_WEATHER_RADIUS]							= set_local_float_value;

  00731	b8 bc 02 00 00	 mov	 eax, 700		; 000002bcH
  00736	6b c8 1b	 imul	 ecx, eax, 27
  00739	ba 04 00 00 00	 mov	 edx, 4
  0073e	69 c2 9d 00 00
	00		 imul	 eax, edx, 157
  00744	c7 84 01 00 00
	00 00 00 00 00
	00		 mov	 DWORD PTR ?fn_set_local_entity_float_value@@3PAY0KP@P6GXPAUENTITY@@W4FLOAT_TYPES@@M@ZA[ecx+eax], OFFSET ?set_local_float_value@@YGXPAUENTITY@@W4FLOAT_TYPES@@M@Z ; set_local_float_value

; 526  : 	fn_set_client_server_entity_float_value	[ENTITY_TYPE_SESSION][FLOAT_TYPE_WEATHER_RADIUS][COMMS_MODEL_SERVER]	= set_server_float_value;

  0074f	b8 78 05 00 00	 mov	 eax, 1400		; 00000578H
  00754	6b c8 1b	 imul	 ecx, eax, 27
  00757	ba 08 00 00 00	 mov	 edx, 8
  0075c	69 c2 9d 00 00
	00		 imul	 eax, edx, 157
  00762	8d 8c 01 00 00
	00 00		 lea	 ecx, DWORD PTR ?fn_set_client_server_entity_float_value@@3PAY1KP@1P6GXPAUENTITY@@W4FLOAT_TYPES@@M@ZA[ecx+eax]
  00769	ba 04 00 00 00	 mov	 edx, 4
  0076e	6b c2 00	 imul	 eax, edx, 0
  00771	c7 04 01 00 00
	00 00		 mov	 DWORD PTR [ecx+eax], OFFSET ?set_server_float_value@@YGXPAUENTITY@@W4FLOAT_TYPES@@M@Z ; set_server_float_value

; 527  : 	fn_set_client_server_entity_float_value	[ENTITY_TYPE_SESSION][FLOAT_TYPE_WEATHER_RADIUS][COMMS_MODEL_CLIENT]	= set_client_float_value;

  00778	b8 78 05 00 00	 mov	 eax, 1400		; 00000578H
  0077d	6b c8 1b	 imul	 ecx, eax, 27
  00780	ba 08 00 00 00	 mov	 edx, 8
  00785	69 c2 9d 00 00
	00		 imul	 eax, edx, 157
  0078b	8d 8c 01 00 00
	00 00		 lea	 ecx, DWORD PTR ?fn_set_client_server_entity_float_value@@3PAY1KP@1P6GXPAUENTITY@@W4FLOAT_TYPES@@M@ZA[ecx+eax]
  00792	ba 04 00 00 00	 mov	 edx, 4
  00797	c1 e2 00	 shl	 edx, 0
  0079a	c7 04 11 00 00
	00 00		 mov	 DWORD PTR [ecx+edx], OFFSET ?set_client_float_value@@YGXPAUENTITY@@W4FLOAT_TYPES@@M@Z ; set_client_float_value

; 528  : 	fn_get_local_entity_float_value				[ENTITY_TYPE_SESSION][FLOAT_TYPE_WEATHER_RADIUS]							= get_local_float_value;

  007a1	b8 bc 02 00 00	 mov	 eax, 700		; 000002bcH
  007a6	6b c8 1b	 imul	 ecx, eax, 27
  007a9	ba 04 00 00 00	 mov	 edx, 4
  007ae	69 c2 9d 00 00
	00		 imul	 eax, edx, 157
  007b4	c7 84 01 00 00
	00 00 00 00 00
	00		 mov	 DWORD PTR ?fn_get_local_entity_float_value@@3PAY0KP@P6GMPAUENTITY@@W4FLOAT_TYPES@@@ZA[ecx+eax], OFFSET ?get_local_float_value@@YGMPAUENTITY@@W4FLOAT_TYPES@@@Z ; get_local_float_value

; 529  : 
; 530  : 	fn_set_local_entity_raw_float_value			[ENTITY_TYPE_SESSION][FLOAT_TYPE_WIND_EFFECT_RADIUS]								= set_local_float_value;

  007bf	b8 bc 02 00 00	 mov	 eax, 700		; 000002bcH
  007c4	6b c8 1b	 imul	 ecx, eax, 27
  007c7	ba 04 00 00 00	 mov	 edx, 4
  007cc	69 c2 a0 00 00
	00		 imul	 eax, edx, 160
  007d2	c7 84 01 00 00
	00 00 00 00 00
	00		 mov	 DWORD PTR ?fn_set_local_entity_raw_float_value@@3PAY0KP@P6GXPAUENTITY@@W4FLOAT_TYPES@@M@ZA[ecx+eax], OFFSET ?set_local_float_value@@YGXPAUENTITY@@W4FLOAT_TYPES@@M@Z ; set_local_float_value

; 531  : 	fn_set_local_entity_float_value				[ENTITY_TYPE_SESSION][FLOAT_TYPE_WIND_EFFECT_RADIUS]								= set_local_float_value;

  007dd	b8 bc 02 00 00	 mov	 eax, 700		; 000002bcH
  007e2	6b c8 1b	 imul	 ecx, eax, 27
  007e5	ba 04 00 00 00	 mov	 edx, 4
  007ea	69 c2 a0 00 00
	00		 imul	 eax, edx, 160
  007f0	c7 84 01 00 00
	00 00 00 00 00
	00		 mov	 DWORD PTR ?fn_set_local_entity_float_value@@3PAY0KP@P6GXPAUENTITY@@W4FLOAT_TYPES@@M@ZA[ecx+eax], OFFSET ?set_local_float_value@@YGXPAUENTITY@@W4FLOAT_TYPES@@M@Z ; set_local_float_value

; 532  : 	fn_set_client_server_entity_float_value	[ENTITY_TYPE_SESSION][FLOAT_TYPE_WIND_EFFECT_RADIUS][COMMS_MODEL_SERVER]	= set_server_float_value;

  007fb	b8 78 05 00 00	 mov	 eax, 1400		; 00000578H
  00800	6b c8 1b	 imul	 ecx, eax, 27
  00803	ba 08 00 00 00	 mov	 edx, 8
  00808	69 c2 a0 00 00
	00		 imul	 eax, edx, 160
  0080e	8d 8c 01 00 00
	00 00		 lea	 ecx, DWORD PTR ?fn_set_client_server_entity_float_value@@3PAY1KP@1P6GXPAUENTITY@@W4FLOAT_TYPES@@M@ZA[ecx+eax]
  00815	ba 04 00 00 00	 mov	 edx, 4
  0081a	6b c2 00	 imul	 eax, edx, 0
  0081d	c7 04 01 00 00
	00 00		 mov	 DWORD PTR [ecx+eax], OFFSET ?set_server_float_value@@YGXPAUENTITY@@W4FLOAT_TYPES@@M@Z ; set_server_float_value

; 533  : 	fn_set_client_server_entity_float_value	[ENTITY_TYPE_SESSION][FLOAT_TYPE_WIND_EFFECT_RADIUS][COMMS_MODEL_CLIENT]	= set_client_float_value;

  00824	b8 78 05 00 00	 mov	 eax, 1400		; 00000578H
  00829	6b c8 1b	 imul	 ecx, eax, 27
  0082c	ba 08 00 00 00	 mov	 edx, 8
  00831	69 c2 a0 00 00
	00		 imul	 eax, edx, 160
  00837	8d 8c 01 00 00
	00 00		 lea	 ecx, DWORD PTR ?fn_set_client_server_entity_float_value@@3PAY1KP@1P6GXPAUENTITY@@W4FLOAT_TYPES@@M@ZA[ecx+eax]
  0083e	ba 04 00 00 00	 mov	 edx, 4
  00843	c1 e2 00	 shl	 edx, 0
  00846	c7 04 11 00 00
	00 00		 mov	 DWORD PTR [ecx+edx], OFFSET ?set_client_float_value@@YGXPAUENTITY@@W4FLOAT_TYPES@@M@Z ; set_client_float_value

; 534  : 	fn_get_local_entity_float_value				[ENTITY_TYPE_SESSION][FLOAT_TYPE_WIND_EFFECT_RADIUS]								= get_local_float_value;

  0084d	b8 bc 02 00 00	 mov	 eax, 700		; 000002bcH
  00852	6b c8 1b	 imul	 ecx, eax, 27
  00855	ba 04 00 00 00	 mov	 edx, 4
  0085a	69 c2 a0 00 00
	00		 imul	 eax, edx, 160
  00860	c7 84 01 00 00
	00 00 00 00 00
	00		 mov	 DWORD PTR ?fn_get_local_entity_float_value@@3PAY0KP@P6GMPAUENTITY@@W4FLOAT_TYPES@@@ZA[ecx+eax], OFFSET ?get_local_float_value@@YGMPAUENTITY@@W4FLOAT_TYPES@@@Z ; get_local_float_value

; 535  : 
; 536  : 	fn_set_local_entity_raw_float_value			[ENTITY_TYPE_SESSION][FLOAT_TYPE_WIND_GUSTING_VALUE]								= set_local_float_value;

  0086b	b8 bc 02 00 00	 mov	 eax, 700		; 000002bcH
  00870	6b c8 1b	 imul	 ecx, eax, 27
  00873	ba 04 00 00 00	 mov	 edx, 4
  00878	69 c2 a1 00 00
	00		 imul	 eax, edx, 161
  0087e	c7 84 01 00 00
	00 00 00 00 00
	00		 mov	 DWORD PTR ?fn_set_local_entity_raw_float_value@@3PAY0KP@P6GXPAUENTITY@@W4FLOAT_TYPES@@M@ZA[ecx+eax], OFFSET ?set_local_float_value@@YGXPAUENTITY@@W4FLOAT_TYPES@@M@Z ; set_local_float_value

; 537  : 	fn_set_local_entity_float_value				[ENTITY_TYPE_SESSION][FLOAT_TYPE_WIND_GUSTING_VALUE]								= set_local_float_value;

  00889	b8 bc 02 00 00	 mov	 eax, 700		; 000002bcH
  0088e	6b c8 1b	 imul	 ecx, eax, 27
  00891	ba 04 00 00 00	 mov	 edx, 4
  00896	69 c2 a1 00 00
	00		 imul	 eax, edx, 161
  0089c	c7 84 01 00 00
	00 00 00 00 00
	00		 mov	 DWORD PTR ?fn_set_local_entity_float_value@@3PAY0KP@P6GXPAUENTITY@@W4FLOAT_TYPES@@M@ZA[ecx+eax], OFFSET ?set_local_float_value@@YGXPAUENTITY@@W4FLOAT_TYPES@@M@Z ; set_local_float_value

; 538  : 	fn_set_client_server_entity_float_value	[ENTITY_TYPE_SESSION][FLOAT_TYPE_WIND_GUSTING_VALUE][COMMS_MODEL_SERVER]	= set_server_float_value;

  008a7	b8 78 05 00 00	 mov	 eax, 1400		; 00000578H
  008ac	6b c8 1b	 imul	 ecx, eax, 27
  008af	ba 08 00 00 00	 mov	 edx, 8
  008b4	69 c2 a1 00 00
	00		 imul	 eax, edx, 161
  008ba	8d 8c 01 00 00
	00 00		 lea	 ecx, DWORD PTR ?fn_set_client_server_entity_float_value@@3PAY1KP@1P6GXPAUENTITY@@W4FLOAT_TYPES@@M@ZA[ecx+eax]
  008c1	ba 04 00 00 00	 mov	 edx, 4
  008c6	6b c2 00	 imul	 eax, edx, 0
  008c9	c7 04 01 00 00
	00 00		 mov	 DWORD PTR [ecx+eax], OFFSET ?set_server_float_value@@YGXPAUENTITY@@W4FLOAT_TYPES@@M@Z ; set_server_float_value

; 539  : 	fn_set_client_server_entity_float_value	[ENTITY_TYPE_SESSION][FLOAT_TYPE_WIND_GUSTING_VALUE][COMMS_MODEL_CLIENT]	= set_client_float_value;

  008d0	b8 78 05 00 00	 mov	 eax, 1400		; 00000578H
  008d5	6b c8 1b	 imul	 ecx, eax, 27
  008d8	ba 08 00 00 00	 mov	 edx, 8
  008dd	69 c2 a1 00 00
	00		 imul	 eax, edx, 161
  008e3	8d 8c 01 00 00
	00 00		 lea	 ecx, DWORD PTR ?fn_set_client_server_entity_float_value@@3PAY1KP@1P6GXPAUENTITY@@W4FLOAT_TYPES@@M@ZA[ecx+eax]
  008ea	ba 04 00 00 00	 mov	 edx, 4
  008ef	c1 e2 00	 shl	 edx, 0
  008f2	c7 04 11 00 00
	00 00		 mov	 DWORD PTR [ecx+edx], OFFSET ?set_client_float_value@@YGXPAUENTITY@@W4FLOAT_TYPES@@M@Z ; set_client_float_value

; 540  : 	fn_get_local_entity_float_value				[ENTITY_TYPE_SESSION][FLOAT_TYPE_WIND_GUSTING_VALUE]								= get_local_float_value;

  008f9	b8 bc 02 00 00	 mov	 eax, 700		; 000002bcH
  008fe	6b c8 1b	 imul	 ecx, eax, 27
  00901	ba 04 00 00 00	 mov	 edx, 4
  00906	69 c2 a1 00 00
	00		 imul	 eax, edx, 161
  0090c	c7 84 01 00 00
	00 00 00 00 00
	00		 mov	 DWORD PTR ?fn_get_local_entity_float_value@@3PAY0KP@P6GMPAUENTITY@@W4FLOAT_TYPES@@@ZA[ecx+eax], OFFSET ?get_local_float_value@@YGMPAUENTITY@@W4FLOAT_TYPES@@@Z ; get_local_float_value

; 541  : 
; 542  : 	fn_set_local_entity_raw_float_value			[ENTITY_TYPE_SESSION][FLOAT_TYPE_WIND_MAXIMUM_SPEED]								= set_local_float_value;

  00917	b8 bc 02 00 00	 mov	 eax, 700		; 000002bcH
  0091c	6b c8 1b	 imul	 ecx, eax, 27
  0091f	ba 04 00 00 00	 mov	 edx, 4
  00924	69 c2 a2 00 00
	00		 imul	 eax, edx, 162
  0092a	c7 84 01 00 00
	00 00 00 00 00
	00		 mov	 DWORD PTR ?fn_set_local_entity_raw_float_value@@3PAY0KP@P6GXPAUENTITY@@W4FLOAT_TYPES@@M@ZA[ecx+eax], OFFSET ?set_local_float_value@@YGXPAUENTITY@@W4FLOAT_TYPES@@M@Z ; set_local_float_value

; 543  : 	fn_set_local_entity_float_value				[ENTITY_TYPE_SESSION][FLOAT_TYPE_WIND_MAXIMUM_SPEED]								= set_local_float_value;

  00935	b8 bc 02 00 00	 mov	 eax, 700		; 000002bcH
  0093a	6b c8 1b	 imul	 ecx, eax, 27
  0093d	ba 04 00 00 00	 mov	 edx, 4
  00942	69 c2 a2 00 00
	00		 imul	 eax, edx, 162
  00948	c7 84 01 00 00
	00 00 00 00 00
	00		 mov	 DWORD PTR ?fn_set_local_entity_float_value@@3PAY0KP@P6GXPAUENTITY@@W4FLOAT_TYPES@@M@ZA[ecx+eax], OFFSET ?set_local_float_value@@YGXPAUENTITY@@W4FLOAT_TYPES@@M@Z ; set_local_float_value

; 544  : 	fn_set_client_server_entity_float_value	[ENTITY_TYPE_SESSION][FLOAT_TYPE_WIND_MAXIMUM_SPEED][COMMS_MODEL_SERVER]	= set_server_float_value;

  00953	b8 78 05 00 00	 mov	 eax, 1400		; 00000578H
  00958	6b c8 1b	 imul	 ecx, eax, 27
  0095b	ba 08 00 00 00	 mov	 edx, 8
  00960	69 c2 a2 00 00
	00		 imul	 eax, edx, 162
  00966	8d 8c 01 00 00
	00 00		 lea	 ecx, DWORD PTR ?fn_set_client_server_entity_float_value@@3PAY1KP@1P6GXPAUENTITY@@W4FLOAT_TYPES@@M@ZA[ecx+eax]
  0096d	ba 04 00 00 00	 mov	 edx, 4
  00972	6b c2 00	 imul	 eax, edx, 0
  00975	c7 04 01 00 00
	00 00		 mov	 DWORD PTR [ecx+eax], OFFSET ?set_server_float_value@@YGXPAUENTITY@@W4FLOAT_TYPES@@M@Z ; set_server_float_value

; 545  : 	fn_set_client_server_entity_float_value	[ENTITY_TYPE_SESSION][FLOAT_TYPE_WIND_MAXIMUM_SPEED][COMMS_MODEL_CLIENT]	= set_client_float_value;

  0097c	b8 78 05 00 00	 mov	 eax, 1400		; 00000578H
  00981	6b c8 1b	 imul	 ecx, eax, 27
  00984	ba 08 00 00 00	 mov	 edx, 8
  00989	69 c2 a2 00 00
	00		 imul	 eax, edx, 162
  0098f	8d 8c 01 00 00
	00 00		 lea	 ecx, DWORD PTR ?fn_set_client_server_entity_float_value@@3PAY1KP@1P6GXPAUENTITY@@W4FLOAT_TYPES@@M@ZA[ecx+eax]
  00996	ba 04 00 00 00	 mov	 edx, 4
  0099b	c1 e2 00	 shl	 edx, 0
  0099e	c7 04 11 00 00
	00 00		 mov	 DWORD PTR [ecx+edx], OFFSET ?set_client_float_value@@YGXPAUENTITY@@W4FLOAT_TYPES@@M@Z ; set_client_float_value

; 546  : 	fn_get_local_entity_float_value				[ENTITY_TYPE_SESSION][FLOAT_TYPE_WIND_MAXIMUM_SPEED]								= get_local_float_value;

  009a5	b8 bc 02 00 00	 mov	 eax, 700		; 000002bcH
  009aa	6b c8 1b	 imul	 ecx, eax, 27
  009ad	ba 04 00 00 00	 mov	 edx, 4
  009b2	69 c2 a2 00 00
	00		 imul	 eax, edx, 162
  009b8	c7 84 01 00 00
	00 00 00 00 00
	00		 mov	 DWORD PTR ?fn_get_local_entity_float_value@@3PAY0KP@P6GMPAUENTITY@@W4FLOAT_TYPES@@@ZA[ecx+eax], OFFSET ?get_local_float_value@@YGMPAUENTITY@@W4FLOAT_TYPES@@@Z ; get_local_float_value

; 547  : 
; 548  : 	fn_set_local_entity_raw_float_value			[ENTITY_TYPE_SESSION][FLOAT_TYPE_WIND_MINIMUM_SPEED]								= set_local_float_value;

  009c3	b8 bc 02 00 00	 mov	 eax, 700		; 000002bcH
  009c8	6b c8 1b	 imul	 ecx, eax, 27
  009cb	ba 04 00 00 00	 mov	 edx, 4
  009d0	69 c2 a3 00 00
	00		 imul	 eax, edx, 163
  009d6	c7 84 01 00 00
	00 00 00 00 00
	00		 mov	 DWORD PTR ?fn_set_local_entity_raw_float_value@@3PAY0KP@P6GXPAUENTITY@@W4FLOAT_TYPES@@M@ZA[ecx+eax], OFFSET ?set_local_float_value@@YGXPAUENTITY@@W4FLOAT_TYPES@@M@Z ; set_local_float_value

; 549  : 	fn_set_local_entity_float_value				[ENTITY_TYPE_SESSION][FLOAT_TYPE_WIND_MINIMUM_SPEED]								= set_local_float_value;

  009e1	b8 bc 02 00 00	 mov	 eax, 700		; 000002bcH
  009e6	6b c8 1b	 imul	 ecx, eax, 27
  009e9	ba 04 00 00 00	 mov	 edx, 4
  009ee	69 c2 a3 00 00
	00		 imul	 eax, edx, 163
  009f4	c7 84 01 00 00
	00 00 00 00 00
	00		 mov	 DWORD PTR ?fn_set_local_entity_float_value@@3PAY0KP@P6GXPAUENTITY@@W4FLOAT_TYPES@@M@ZA[ecx+eax], OFFSET ?set_local_float_value@@YGXPAUENTITY@@W4FLOAT_TYPES@@M@Z ; set_local_float_value

; 550  : 	fn_set_client_server_entity_float_value	[ENTITY_TYPE_SESSION][FLOAT_TYPE_WIND_MINIMUM_SPEED][COMMS_MODEL_SERVER]	= set_server_float_value;

  009ff	b8 78 05 00 00	 mov	 eax, 1400		; 00000578H
  00a04	6b c8 1b	 imul	 ecx, eax, 27
  00a07	ba 08 00 00 00	 mov	 edx, 8
  00a0c	69 c2 a3 00 00
	00		 imul	 eax, edx, 163
  00a12	8d 8c 01 00 00
	00 00		 lea	 ecx, DWORD PTR ?fn_set_client_server_entity_float_value@@3PAY1KP@1P6GXPAUENTITY@@W4FLOAT_TYPES@@M@ZA[ecx+eax]
  00a19	ba 04 00 00 00	 mov	 edx, 4
  00a1e	6b c2 00	 imul	 eax, edx, 0
  00a21	c7 04 01 00 00
	00 00		 mov	 DWORD PTR [ecx+eax], OFFSET ?set_server_float_value@@YGXPAUENTITY@@W4FLOAT_TYPES@@M@Z ; set_server_float_value

; 551  : 	fn_set_client_server_entity_float_value	[ENTITY_TYPE_SESSION][FLOAT_TYPE_WIND_MINIMUM_SPEED][COMMS_MODEL_CLIENT]	= set_client_float_value;

  00a28	b8 78 05 00 00	 mov	 eax, 1400		; 00000578H
  00a2d	6b c8 1b	 imul	 ecx, eax, 27
  00a30	ba 08 00 00 00	 mov	 edx, 8
  00a35	69 c2 a3 00 00
	00		 imul	 eax, edx, 163
  00a3b	8d 8c 01 00 00
	00 00		 lea	 ecx, DWORD PTR ?fn_set_client_server_entity_float_value@@3PAY1KP@1P6GXPAUENTITY@@W4FLOAT_TYPES@@M@ZA[ecx+eax]
  00a42	ba 04 00 00 00	 mov	 edx, 4
  00a47	c1 e2 00	 shl	 edx, 0
  00a4a	c7 04 11 00 00
	00 00		 mov	 DWORD PTR [ecx+edx], OFFSET ?set_client_float_value@@YGXPAUENTITY@@W4FLOAT_TYPES@@M@Z ; set_client_float_value

; 552  : 	fn_get_local_entity_float_value				[ENTITY_TYPE_SESSION][FLOAT_TYPE_WIND_MINIMUM_SPEED]								= get_local_float_value;

  00a51	b8 bc 02 00 00	 mov	 eax, 700		; 000002bcH
  00a56	6b c8 1b	 imul	 ecx, eax, 27
  00a59	ba 04 00 00 00	 mov	 edx, 4
  00a5e	69 c2 a3 00 00
	00		 imul	 eax, edx, 163
  00a64	c7 84 01 00 00
	00 00 00 00 00
	00		 mov	 DWORD PTR ?fn_get_local_entity_float_value@@3PAY0KP@P6GMPAUENTITY@@W4FLOAT_TYPES@@@ZA[ecx+eax], OFFSET ?get_local_float_value@@YGMPAUENTITY@@W4FLOAT_TYPES@@@Z ; get_local_float_value

; 553  : }

  00a6f	5f		 pop	 edi
  00a70	5e		 pop	 esi
  00a71	5b		 pop	 ebx
  00a72	8b e5		 mov	 esp, ebp
  00a74	5d		 pop	 ebp
  00a75	c3		 ret	 0
?overload_session_float_value_functions@@YGXXZ ENDP	; overload_session_float_value_functions
_TEXT	ENDS
END
