; Listing generated by Microsoft (R) Optimizing Compiler Version 19.16.27045.0 

	TITLE	C:\Users\nhv90\Projects\eech\aphavoc\source\entity\special\session\ss_funcs.c
	.686P
	.XMM
	include listing.inc
	.model	flat

INCLUDELIB MSVCRTD
INCLUDELIB OLDNAMES

PUBLIC	?overload_session_functions@@YGXXZ		; overload_session_functions
EXTRN	?set_session_entity@@YGXPAUENTITY@@@Z:PROC	; set_session_entity
EXTRN	?overload_session_create_functions@@YGXXZ:PROC	; overload_session_create_functions
EXTRN	?overload_session_destroy_functions@@YGXXZ:PROC	; overload_session_destroy_functions
EXTRN	?overload_session_float_value_functions@@YGXXZ:PROC ; overload_session_float_value_functions
EXTRN	?overload_session_int_value_functions@@YGXXZ:PROC ; overload_session_int_value_functions
EXTRN	?overload_session_list_functions@@YGXXZ:PROC	; overload_session_list_functions
EXTRN	?overload_session_pack_functions@@YGXXZ:PROC	; overload_session_pack_functions
EXTRN	?overload_session_update_functions@@YGXXZ:PROC	; overload_session_update_functions
EXTRN	?overload_session_vec3d_functions@@YGXXZ:PROC	; overload_session_vec3d_functions
; Function compile flags: /Odtp /ZI
; File c:\users\nhv90\projects\eech\aphavoc\source\entity\special\session\ss_funcs.c
;	COMDAT ?overload_session_functions@@YGXXZ
_TEXT	SEGMENT
?overload_session_functions@@YGXXZ PROC			; overload_session_functions, COMDAT

; 80   : {

  00000	55		 push	 ebp
  00001	8b ec		 mov	 ebp, esp
  00003	83 ec 40	 sub	 esp, 64			; 00000040H
  00006	53		 push	 ebx
  00007	56		 push	 esi
  00008	57		 push	 edi

; 81   : 	overload_session_create_functions ();

  00009	e8 00 00 00 00	 call	 ?overload_session_create_functions@@YGXXZ ; overload_session_create_functions

; 82   : 
; 83   : 	overload_session_destroy_functions ();

  0000e	e8 00 00 00 00	 call	 ?overload_session_destroy_functions@@YGXXZ ; overload_session_destroy_functions

; 84   : 
; 85   : 	overload_session_float_value_functions ();

  00013	e8 00 00 00 00	 call	 ?overload_session_float_value_functions@@YGXXZ ; overload_session_float_value_functions

; 86   : 
; 87   : 	overload_session_int_value_functions ();

  00018	e8 00 00 00 00	 call	 ?overload_session_int_value_functions@@YGXXZ ; overload_session_int_value_functions

; 88   : 
; 89   : 	overload_session_pack_functions ();

  0001d	e8 00 00 00 00	 call	 ?overload_session_pack_functions@@YGXXZ ; overload_session_pack_functions

; 90   : 
; 91   : 	overload_session_list_functions ();

  00022	e8 00 00 00 00	 call	 ?overload_session_list_functions@@YGXXZ ; overload_session_list_functions

; 92   : 
; 93   : 	overload_session_update_functions ();

  00027	e8 00 00 00 00	 call	 ?overload_session_update_functions@@YGXXZ ; overload_session_update_functions

; 94   : 
; 95   : 	overload_session_vec3d_functions ();

  0002c	e8 00 00 00 00	 call	 ?overload_session_vec3d_functions@@YGXXZ ; overload_session_vec3d_functions

; 96   : 
; 97   : 	set_session_entity (NULL);

  00031	6a 00		 push	 0
  00033	e8 00 00 00 00	 call	 ?set_session_entity@@YGXPAUENTITY@@@Z ; set_session_entity

; 98   : }

  00038	5f		 pop	 edi
  00039	5e		 pop	 esi
  0003a	5b		 pop	 ebx
  0003b	8b e5		 mov	 esp, ebp
  0003d	5d		 pop	 ebp
  0003e	c3		 ret	 0
?overload_session_functions@@YGXXZ ENDP			; overload_session_functions
_TEXT	ENDS
END
