; Listing generated by Microsoft (R) Optimizing Compiler Version 19.16.27045.0 

	TITLE	C:\Users\nhv90\Projects\eech\aphavoc\source\entity\special\session\ss_int.c
	.686P
	.XMM
	include listing.inc
	.model	flat

INCLUDELIB MSVCRTD
INCLUDELIB OLDNAMES

PUBLIC	?overload_session_int_value_functions@@YGXXZ	; overload_session_int_value_functions
PUBLIC	?__LINE__Var@?0??set_local_int_value@@YGXPAUENTITY@@W4INT_TYPES@@H@Z@4JA ; `set_local_int_value'::`1'::__LINE__Var
PUBLIC	??_C@_0EM@LAJMLFJL@c?3?2users?2nhv90?2projects?2eech?2ap@ ; `string'
PUBLIC	?__LINE__Var@?0??set_server_int_value@@YGXPAUENTITY@@W4INT_TYPES@@H@Z@4JA ; `set_server_int_value'::`1'::__LINE__Var
PUBLIC	??_C@_0CB@CFOCLFOK@assert_client_server_local_fn?5?$CI@ ; `string'
PUBLIC	??_C@_0CC@BNNNEGEG@assert_client_server_remote_fn?5@ ; `string'
PUBLIC	?__LINE__Var@?0??set_client_int_value@@YGXPAUENTITY@@W4INT_TYPES@@H@Z@4JA ; `set_client_int_value'::`1'::__LINE__Var
PUBLIC	?__LINE__Var@?0??get_local_int_value@@YGHPAUENTITY@@W4INT_TYPES@@@Z@4JA ; `get_local_int_value'::`1'::__LINE__Var
EXTRN	?process_assert@@YGXPBD0H@Z:PROC		; process_assert
EXTRN	?debug_fatal@@YAXPBDZZ:PROC			; debug_fatal
EXTRN	?get_connection_list_head@@YGPAUCONNECTION_LIST_TYPE@@XZ:PROC ; get_connection_list_head
EXTRN	?transmit_entity_comms_message@@YAXW4ENTITY_COMMS_MESSAGES@@PAUENTITY@@ZZ:PROC ; transmit_entity_comms_message
EXTRN	?assert_client_server_local_fn@@YGHXZ:PROC	; assert_client_server_local_fn
EXTRN	?assert_client_server_remote_fn@@YGHXZ:PROC	; assert_client_server_remote_fn
EXTRN	?calculate_session_time_of_day@@YGMPAUENTITY@@PAH@Z:PROC ; calculate_session_time_of_day
EXTRN	?command_line_cheats_on@@3HA:DWORD		; command_line_cheats_on
EXTRN	?null_entity_pointer_message@@3PBDB:DWORD	; null_entity_pointer_message
EXTRN	?entity_type_database@@3PAUENTITY_TYPE_DATA@@A:BYTE ; entity_type_database
EXTRN	?system_comms_data_flow@@3W4COMMS_DATA_FLOW_TYPES@@A:DWORD ; system_comms_data_flow
EXTRN	?int_type_database@@3PAUINT_TYPE_DATA@@A:BYTE	; int_type_database
EXTRN	?overload_invalid_int_type_message@@3PBDB:DWORD	; overload_invalid_int_type_message
EXTRN	?debug_fatal_invalid_int_type_message@@3PBDB:DWORD ; debug_fatal_invalid_int_type_message
EXTRN	?fn_set_local_entity_raw_int_value@@3PAY0BBH@P6GXPAUENTITY@@W4INT_TYPES@@H@ZA:BYTE ; fn_set_local_entity_raw_int_value
EXTRN	?fn_set_local_entity_int_value@@3PAY0BBH@P6GXPAUENTITY@@W4INT_TYPES@@H@ZA:BYTE ; fn_set_local_entity_int_value
EXTRN	?fn_set_client_server_entity_int_value@@3PAY1BBH@1P6GXPAUENTITY@@W4INT_TYPES@@H@ZA:BYTE ; fn_set_client_server_entity_int_value
EXTRN	?fn_get_local_entity_int_value@@3PAY0BBH@P6GHPAUENTITY@@W4INT_TYPES@@@ZA:BYTE ; fn_get_local_entity_int_value
EXTRN	?entities@@3PAUENTITY@@A:DWORD			; entities
EXTRN	__fltused:DWORD
;	COMDAT ?__LINE__Var@?0??get_local_int_value@@YGHPAUENTITY@@W4INT_TYPES@@@Z@4JA
_DATA	SEGMENT
?__LINE__Var@?0??get_local_int_value@@YGHPAUENTITY@@W4INT_TYPES@@@Z@4JA DD 0128H ; `get_local_int_value'::`1'::__LINE__Var
_DATA	ENDS
;	COMDAT ?__LINE__Var@?0??set_client_int_value@@YGXPAUENTITY@@W4INT_TYPES@@H@Z@4JA
_DATA	SEGMENT
?__LINE__Var@?0??set_client_int_value@@YGXPAUENTITY@@W4INT_TYPES@@H@Z@4JA DD 0114H ; `set_client_int_value'::`1'::__LINE__Var
_DATA	ENDS
;	COMDAT ??_C@_0CC@BNNNEGEG@assert_client_server_remote_fn?5@
CONST	SEGMENT
??_C@_0CC@BNNNEGEG@assert_client_server_remote_fn?5@ DB 'assert_client_se'
	DB	'rver_remote_fn ()', 00H			; `string'
CONST	ENDS
;	COMDAT ??_C@_0CB@CFOCLFOK@assert_client_server_local_fn?5?$CI@
CONST	SEGMENT
??_C@_0CB@CFOCLFOK@assert_client_server_local_fn?5?$CI@ DB 'assert_client'
	DB	'_server_local_fn ()', 00H			; `string'
CONST	ENDS
;	COMDAT ?__LINE__Var@?0??set_server_int_value@@YGXPAUENTITY@@W4INT_TYPES@@H@Z@4JA
_DATA	SEGMENT
?__LINE__Var@?0??set_server_int_value@@YGXPAUENTITY@@W4INT_TYPES@@H@Z@4JA DD 0105H ; `set_server_int_value'::`1'::__LINE__Var
_DATA	ENDS
;	COMDAT ??_C@_0EM@LAJMLFJL@c?3?2users?2nhv90?2projects?2eech?2ap@
CONST	SEGMENT
??_C@_0EM@LAJMLFJL@c?3?2users?2nhv90?2projects?2eech?2ap@ DB 'c:\users\nh'
	DB	'v90\projects\eech\aphavoc\source\entity\special\session\ss_in'
	DB	't.c', 00H					; `string'
CONST	ENDS
;	COMDAT ?__LINE__Var@?0??set_local_int_value@@YGXPAUENTITY@@W4INT_TYPES@@H@Z@4JA
_DATA	SEGMENT
?__LINE__Var@?0??set_local_int_value@@YGXPAUENTITY@@W4INT_TYPES@@H@Z@4JA DD 050H ; `set_local_int_value'::`1'::__LINE__Var
_DATA	ENDS
; Function compile flags: /Odtp /ZI
; File c:\users\nhv90\projects\eech\aphavoc\source\entity\special\session\ss_int.c
;	COMDAT ?get_local_int_value@@YGHPAUENTITY@@W4INT_TYPES@@@Z
_TEXT	SEGMENT
tv219 = -84						; size = 4
tv193 = -84						; size = 4
tv167 = -84						; size = 4
tv141 = -84						; size = 4
tv211 = -80						; size = 4
tv185 = -80						; size = 4
tv159 = -80						; size = 4
tv133 = -80						; size = 4
tv257 = -76						; size = 4
tv203 = -76						; size = 4
tv177 = -76						; size = 4
tv151 = -76						; size = 4
tv93 = -76						; size = 4
tv65 = -76						; size = 4
_value$ = -8						; size = 4
_raw$ = -4						; size = 4
_en$ = 8						; size = 4
_type$ = 12						; size = 4
?get_local_int_value@@YGHPAUENTITY@@W4INT_TYPES@@@Z PROC ; get_local_int_value, COMDAT

; 296  : {

  00000	55		 push	 ebp
  00001	8b ec		 mov	 ebp, esp
  00003	83 ec 54	 sub	 esp, 84			; 00000054H
  00006	53		 push	 ebx
  00007	56		 push	 esi
  00008	57		 push	 edi

; 297  : 	session
; 298  : 		*raw;
; 299  : 
; 300  : 	int
; 301  : 		value;
; 302  : 
; 303  : 	raw = (session *) get_local_entity_data (en);

  00009	8b 45 08	 mov	 eax, DWORD PTR _en$[ebp]
  0000c	8b 48 04	 mov	 ecx, DWORD PTR [eax+4]
  0000f	89 4d fc	 mov	 DWORD PTR _raw$[ebp], ecx

; 304  : 
; 305  : 	switch (type)

  00012	8b 45 0c	 mov	 eax, DWORD PTR _type$[ebp]
  00015	89 45 b4	 mov	 DWORD PTR tv65[ebp], eax
  00018	81 7d b4 12 01
	00 00		 cmp	 DWORD PTR tv65[ebp], 274 ; 00000112H
  0001f	7f 34		 jg	 SHORT $LN55@get_local_
  00021	81 7d b4 12 01
	00 00		 cmp	 DWORD PTR tv65[ebp], 274 ; 00000112H
  00028	0f 84 37 04 00
	00		 je	 $LN24@get_local_
  0002e	8b 4d b4	 mov	 ecx, DWORD PTR tv65[ebp]
  00031	83 e9 0b	 sub	 ecx, 11			; 0000000bH
  00034	89 4d b4	 mov	 DWORD PTR tv65[ebp], ecx
  00037	81 7d b4 ea 00
	00 00		 cmp	 DWORD PTR tv65[ebp], 234 ; 000000eaH
  0003e	0f 87 5a 04 00
	00		 ja	 $LN27@get_local_
  00044	8b 55 b4	 mov	 edx, DWORD PTR tv65[ebp]
  00047	0f b6 82 00 00
	00 00		 movzx	 eax, BYTE PTR $LN56@get_local_[edx]
  0004e	ff 24 85 00 00
	00 00		 jmp	 DWORD PTR $LN57@get_local_[eax*4]
$LN55@get_local_:
  00055	81 7d b4 13 01
	00 00		 cmp	 DWORD PTR tv65[ebp], 275 ; 00000113H
  0005c	0f 84 1a 04 00
	00		 je	 $LN25@get_local_
  00062	81 7d b4 14 01
	00 00		 cmp	 DWORD PTR tv65[ebp], 276 ; 00000114H
  00069	0f 84 1b 04 00
	00		 je	 $LN26@get_local_
  0006f	e9 2a 04 00 00	 jmp	 $LN27@get_local_
$LN4@get_local_:

; 306  : 	{
; 307  : 		////////////////////////////////////////
; 308  : 		case INT_TYPE_AUTO_ASSIGN_GUNSHIP:
; 309  : 		////////////////////////////////////////
; 310  : 		{
; 311  : 			value = raw->auto_assign_gunship;

  00074	8b 45 fc	 mov	 eax, DWORD PTR _raw$[ebp]
  00077	8b 88 a4 00 00
	00		 mov	 ecx, DWORD PTR [eax+164]
  0007d	c1 e9 11	 shr	 ecx, 17			; 00000011H
  00080	83 e1 01	 and	 ecx, 1
  00083	89 4d f8	 mov	 DWORD PTR _value$[ebp], ecx

; 312  : 
; 313  : 			break;

  00086	e9 8b 04 00 00	 jmp	 $LN2@get_local_
$LN5@get_local_:

; 314  : 		}
; 315  : 		////////////////////////////////////////
; 316  : 		case INT_TYPE_CAMPAIGN_MEDAL:
; 317  : 		////////////////////////////////////////
; 318  : 		{
; 319  : 			value = raw->campaign_medal;

  0008b	8b 45 fc	 mov	 eax, DWORD PTR _raw$[ebp]
  0008e	8b 88 a4 00 00
	00		 mov	 ecx, DWORD PTR [eax+164]
  00094	81 e1 ff ff 00
	00		 and	 ecx, 65535		; 0000ffffH
  0009a	89 4d f8	 mov	 DWORD PTR _value$[ebp], ecx

; 320  : 
; 321  : 			break;

  0009d	e9 74 04 00 00	 jmp	 $LN2@get_local_
$LN6@get_local_:

; 322  : 		}
; 323  : 		////////////////////////////////////////
; 324  : 		case INT_TYPE_CAMPAIGN_REQUIRES_APACHE_HAVOC:
; 325  : 		////////////////////////////////////////
; 326  : 		{
; 327  : 			value = raw->campaign_requires_apache_havoc;

  000a2	8b 45 fc	 mov	 eax, DWORD PTR _raw$[ebp]
  000a5	8b 88 a4 00 00
	00		 mov	 ecx, DWORD PTR [eax+164]
  000ab	c1 e9 10	 shr	 ecx, 16			; 00000010H
  000ae	83 e1 01	 and	 ecx, 1
  000b1	89 4d f8	 mov	 DWORD PTR _value$[ebp], ecx

; 328  : 
; 329  : 			break;

  000b4	e9 5d 04 00 00	 jmp	 $LN2@get_local_
$LN7@get_local_:

; 330  : 		}
; 331  : 		////////////////////////////////////////
; 332  : 		case INT_TYPE_CHEATS_ENABLED:
; 333  : 		////////////////////////////////////////
; 334  : 		{
; 335  : 			if (command_line_cheats_on)

  000b9	83 3d 00 00 00
	00 00		 cmp	 DWORD PTR ?command_line_cheats_on@@3HA, 0 ; command_line_cheats_on
  000c0	74 09		 je	 SHORT $LN8@get_local_

; 336  : 			{
; 337  : 				value = TRUE;

  000c2	c7 45 f8 01 00
	00 00		 mov	 DWORD PTR _value$[ebp], 1
  000c9	eb 24		 jmp	 SHORT $LN11@get_local_
$LN8@get_local_:

; 338  : 			}
; 339  : 			else if (get_connection_list_head ())

  000cb	e8 00 00 00 00	 call	 ?get_connection_list_head@@YGPAUCONNECTION_LIST_TYPE@@XZ ; get_connection_list_head
  000d0	85 c0		 test	 eax, eax
  000d2	74 09		 je	 SHORT $LN10@get_local_

; 340  : 			{
; 341  : 				value = FALSE;

  000d4	c7 45 f8 00 00
	00 00		 mov	 DWORD PTR _value$[ebp], 0

; 342  : 			}
; 343  : 			else

  000db	eb 12		 jmp	 SHORT $LN11@get_local_
$LN10@get_local_:

; 344  : 			{
; 345  : 				value = raw->cheats_enabled;

  000dd	8b 45 fc	 mov	 eax, DWORD PTR _raw$[ebp]
  000e0	8b 88 a4 00 00
	00		 mov	 ecx, DWORD PTR [eax+164]
  000e6	c1 e9 19	 shr	 ecx, 25			; 00000019H
  000e9	83 e1 01	 and	 ecx, 1
  000ec	89 4d f8	 mov	 DWORD PTR _value$[ebp], ecx
$LN11@get_local_:

; 346  : 			}
; 347  : 
; 348  : 			break;

  000ef	e9 22 04 00 00	 jmp	 $LN2@get_local_
$LN12@get_local_:

; 349  : 		}
; 350  : 		////////////////////////////////////////
; 351  : 		case INT_TYPE_DAY:
; 352  : 		////////////////////////////////////////
; 353  : 		{
; 354  : 			calculate_session_time_of_day (en, &value);

  000f4	8d 45 f8	 lea	 eax, DWORD PTR _value$[ebp]
  000f7	50		 push	 eax
  000f8	8b 4d 08	 mov	 ecx, DWORD PTR _en$[ebp]
  000fb	51		 push	 ecx
  000fc	e8 00 00 00 00	 call	 ?calculate_session_time_of_day@@YGMPAUENTITY@@PAH@Z ; calculate_session_time_of_day
  00101	dd d8		 fstp	 ST(0)

; 355  : 
; 356  : 			value += 1;

  00103	8b 45 f8	 mov	 eax, DWORD PTR _value$[ebp]
  00106	83 c0 01	 add	 eax, 1
  00109	89 45 f8	 mov	 DWORD PTR _value$[ebp], eax

; 357  : 
; 358  : 			break;

  0010c	e9 05 04 00 00	 jmp	 $LN2@get_local_
$LN13@get_local_:

; 359  : 		}
; 360  : 		////////////////////////////////////////
; 361  : 		case INT_TYPE_DAY_SEGMENT_TYPE:
; 362  : 		////////////////////////////////////////
; 363  : 		{
; 364  : 			value = raw->day_segment_type;

  00111	8b 45 fc	 mov	 eax, DWORD PTR _raw$[ebp]
  00114	8b 88 90 00 00
	00		 mov	 ecx, DWORD PTR [eax+144]
  0011a	89 4d f8	 mov	 DWORD PTR _value$[ebp], ecx

; 365  : 
; 366  : 			break;

  0011d	e9 f4 03 00 00	 jmp	 $LN2@get_local_
$LN14@get_local_:

; 367  : 		}
; 368  : 		////////////////////////////////////////
; 369  : 		case INT_TYPE_INFINITE_FUEL:
; 370  : 		////////////////////////////////////////
; 371  : 		{
; 372  : 			value = (raw->infinite_fuel && get_local_entity_int_value (en, INT_TYPE_CHEATS_ENABLED));

  00122	8b 45 fc	 mov	 eax, DWORD PTR _raw$[ebp]
  00125	8b 88 a4 00 00
	00		 mov	 ecx, DWORD PTR [eax+164]
  0012b	c1 e9 14	 shr	 ecx, 20			; 00000014H
  0012e	83 e1 01	 and	 ecx, 1
  00131	0f 84 8c 00 00
	00		 je	 $LN33@get_local_
  00137	83 7d 08 00	 cmp	 DWORD PTR _en$[ebp], 0
  0013b	74 0a		 je	 SHORT $LN29@get_local_
  0013d	8b 55 08	 mov	 edx, DWORD PTR _en$[ebp]
  00140	8b 02		 mov	 eax, DWORD PTR [edx]
  00142	89 45 b4	 mov	 DWORD PTR tv93[ebp], eax
  00145	eb 22		 jmp	 SHORT $LN30@get_local_
$LN29@get_local_:
  00147	8b 0d 00 00 00
	00		 mov	 ecx, DWORD PTR ?__LINE__Var@?0??get_local_int_value@@YGHPAUENTITY@@W4INT_TYPES@@@Z@4JA
  0014d	83 c1 4c	 add	 ecx, 76			; 0000004cH
  00150	51		 push	 ecx
  00151	68 00 00 00 00	 push	 OFFSET ??_C@_0EM@LAJMLFJL@c?3?2users?2nhv90?2projects?2eech?2ap@
  00156	8b 15 00 00 00
	00		 mov	 edx, DWORD PTR ?null_entity_pointer_message@@3PBDB ; null_entity_pointer_message
  0015c	52		 push	 edx
  0015d	e8 00 00 00 00	 call	 ?process_assert@@YGXPBD0H@Z ; process_assert
  00162	c7 45 b4 00 00
	00 00		 mov	 DWORD PTR tv93[ebp], 0
$LN30@get_local_:
  00169	b8 01 00 00 00	 mov	 eax, 1
  0016e	85 c0		 test	 eax, eax
  00170	74 09		 je	 SHORT $LN31@get_local_
  00172	c7 45 b0 17 00
	00 00		 mov	 DWORD PTR tv133[ebp], 23 ; 00000017H
  00179	eb 22		 jmp	 SHORT $LN32@get_local_
$LN31@get_local_:
  0017b	8b 0d 00 00 00
	00		 mov	 ecx, DWORD PTR ?__LINE__Var@?0??get_local_int_value@@YGHPAUENTITY@@W4INT_TYPES@@@Z@4JA
  00181	83 c1 4c	 add	 ecx, 76			; 0000004cH
  00184	51		 push	 ecx
  00185	68 00 00 00 00	 push	 OFFSET ??_C@_0EM@LAJMLFJL@c?3?2users?2nhv90?2projects?2eech?2ap@
  0018a	8b 15 00 00 00
	00		 mov	 edx, DWORD PTR ?overload_invalid_int_type_message@@3PBDB ; overload_invalid_int_type_message
  00190	52		 push	 edx
  00191	e8 00 00 00 00	 call	 ?process_assert@@YGXPBD0H@Z ; process_assert
  00196	c7 45 b0 00 00
	00 00		 mov	 DWORD PTR tv133[ebp], 0
$LN32@get_local_:
  0019d	6a 17		 push	 23			; 00000017H
  0019f	8b 45 08	 mov	 eax, DWORD PTR _en$[ebp]
  001a2	50		 push	 eax
  001a3	69 4d b4 5c 04
	00 00		 imul	 ecx, DWORD PTR tv93[ebp], 1116
  001aa	8b 55 b0	 mov	 edx, DWORD PTR tv133[ebp]
  001ad	8b 84 91 00 00
	00 00		 mov	 eax, DWORD PTR ?fn_get_local_entity_int_value@@3PAY0BBH@P6GHPAUENTITY@@W4INT_TYPES@@@ZA[ecx+edx*4]
  001b4	ff d0		 call	 eax
  001b6	85 c0		 test	 eax, eax
  001b8	74 09		 je	 SHORT $LN33@get_local_
  001ba	c7 45 ac 01 00
	00 00		 mov	 DWORD PTR tv141[ebp], 1
  001c1	eb 07		 jmp	 SHORT $LN34@get_local_
$LN33@get_local_:
  001c3	c7 45 ac 00 00
	00 00		 mov	 DWORD PTR tv141[ebp], 0
$LN34@get_local_:
  001ca	8b 4d ac	 mov	 ecx, DWORD PTR tv141[ebp]
  001cd	89 4d f8	 mov	 DWORD PTR _value$[ebp], ecx

; 373  : 
; 374  : 			break;

  001d0	e9 41 03 00 00	 jmp	 $LN2@get_local_
$LN15@get_local_:

; 375  : 		}
; 376  : 		////////////////////////////////////////
; 377  : 		case INT_TYPE_INFINITE_WEAPONS:
; 378  : 		////////////////////////////////////////
; 379  : 		{
; 380  : 			value = (raw->infinite_weapons && get_local_entity_int_value (en, INT_TYPE_CHEATS_ENABLED));

  001d5	8b 45 fc	 mov	 eax, DWORD PTR _raw$[ebp]
  001d8	8b 88 a4 00 00
	00		 mov	 ecx, DWORD PTR [eax+164]
  001de	c1 e9 15	 shr	 ecx, 21			; 00000015H
  001e1	83 e1 01	 and	 ecx, 1
  001e4	0f 84 8c 00 00
	00		 je	 $LN39@get_local_
  001ea	83 7d 08 00	 cmp	 DWORD PTR _en$[ebp], 0
  001ee	74 0a		 je	 SHORT $LN35@get_local_
  001f0	8b 55 08	 mov	 edx, DWORD PTR _en$[ebp]
  001f3	8b 02		 mov	 eax, DWORD PTR [edx]
  001f5	89 45 b4	 mov	 DWORD PTR tv151[ebp], eax
  001f8	eb 22		 jmp	 SHORT $LN36@get_local_
$LN35@get_local_:
  001fa	8b 0d 00 00 00
	00		 mov	 ecx, DWORD PTR ?__LINE__Var@?0??get_local_int_value@@YGHPAUENTITY@@W4INT_TYPES@@@Z@4JA
  00200	83 c1 54	 add	 ecx, 84			; 00000054H
  00203	51		 push	 ecx
  00204	68 00 00 00 00	 push	 OFFSET ??_C@_0EM@LAJMLFJL@c?3?2users?2nhv90?2projects?2eech?2ap@
  00209	8b 15 00 00 00
	00		 mov	 edx, DWORD PTR ?null_entity_pointer_message@@3PBDB ; null_entity_pointer_message
  0020f	52		 push	 edx
  00210	e8 00 00 00 00	 call	 ?process_assert@@YGXPBD0H@Z ; process_assert
  00215	c7 45 b4 00 00
	00 00		 mov	 DWORD PTR tv151[ebp], 0
$LN36@get_local_:
  0021c	b8 01 00 00 00	 mov	 eax, 1
  00221	85 c0		 test	 eax, eax
  00223	74 09		 je	 SHORT $LN37@get_local_
  00225	c7 45 b0 17 00
	00 00		 mov	 DWORD PTR tv159[ebp], 23 ; 00000017H
  0022c	eb 22		 jmp	 SHORT $LN38@get_local_
$LN37@get_local_:
  0022e	8b 0d 00 00 00
	00		 mov	 ecx, DWORD PTR ?__LINE__Var@?0??get_local_int_value@@YGHPAUENTITY@@W4INT_TYPES@@@Z@4JA
  00234	83 c1 54	 add	 ecx, 84			; 00000054H
  00237	51		 push	 ecx
  00238	68 00 00 00 00	 push	 OFFSET ??_C@_0EM@LAJMLFJL@c?3?2users?2nhv90?2projects?2eech?2ap@
  0023d	8b 15 00 00 00
	00		 mov	 edx, DWORD PTR ?overload_invalid_int_type_message@@3PBDB ; overload_invalid_int_type_message
  00243	52		 push	 edx
  00244	e8 00 00 00 00	 call	 ?process_assert@@YGXPBD0H@Z ; process_assert
  00249	c7 45 b0 00 00
	00 00		 mov	 DWORD PTR tv159[ebp], 0
$LN38@get_local_:
  00250	6a 17		 push	 23			; 00000017H
  00252	8b 45 08	 mov	 eax, DWORD PTR _en$[ebp]
  00255	50		 push	 eax
  00256	69 4d b4 5c 04
	00 00		 imul	 ecx, DWORD PTR tv151[ebp], 1116
  0025d	8b 55 b0	 mov	 edx, DWORD PTR tv159[ebp]
  00260	8b 84 91 00 00
	00 00		 mov	 eax, DWORD PTR ?fn_get_local_entity_int_value@@3PAY0BBH@P6GHPAUENTITY@@W4INT_TYPES@@@ZA[ecx+edx*4]
  00267	ff d0		 call	 eax
  00269	85 c0		 test	 eax, eax
  0026b	74 09		 je	 SHORT $LN39@get_local_
  0026d	c7 45 ac 01 00
	00 00		 mov	 DWORD PTR tv167[ebp], 1
  00274	eb 07		 jmp	 SHORT $LN40@get_local_
$LN39@get_local_:
  00276	c7 45 ac 00 00
	00 00		 mov	 DWORD PTR tv167[ebp], 0
$LN40@get_local_:
  0027d	8b 4d ac	 mov	 ecx, DWORD PTR tv167[ebp]
  00280	89 4d f8	 mov	 DWORD PTR _value$[ebp], ecx

; 381  : 
; 382  : 			break;

  00283	e9 8e 02 00 00	 jmp	 $LN2@get_local_
$LN16@get_local_:

; 383  : 		}
; 384  : 		////////////////////////////////////////
; 385  : 		case INT_TYPE_INVULNERABLE_FROM_COLLISIONS:
; 386  : 		////////////////////////////////////////
; 387  : 		{
; 388  : 			value = (raw->invulnerable_from_collisions && get_local_entity_int_value (en, INT_TYPE_CHEATS_ENABLED));

  00288	8b 45 fc	 mov	 eax, DWORD PTR _raw$[ebp]
  0028b	8b 88 a4 00 00
	00		 mov	 ecx, DWORD PTR [eax+164]
  00291	c1 e9 17	 shr	 ecx, 23			; 00000017H
  00294	83 e1 01	 and	 ecx, 1
  00297	0f 84 8c 00 00
	00		 je	 $LN45@get_local_
  0029d	83 7d 08 00	 cmp	 DWORD PTR _en$[ebp], 0
  002a1	74 0a		 je	 SHORT $LN41@get_local_
  002a3	8b 55 08	 mov	 edx, DWORD PTR _en$[ebp]
  002a6	8b 02		 mov	 eax, DWORD PTR [edx]
  002a8	89 45 b4	 mov	 DWORD PTR tv177[ebp], eax
  002ab	eb 22		 jmp	 SHORT $LN42@get_local_
$LN41@get_local_:
  002ad	8b 0d 00 00 00
	00		 mov	 ecx, DWORD PTR ?__LINE__Var@?0??get_local_int_value@@YGHPAUENTITY@@W4INT_TYPES@@@Z@4JA
  002b3	83 c1 5c	 add	 ecx, 92			; 0000005cH
  002b6	51		 push	 ecx
  002b7	68 00 00 00 00	 push	 OFFSET ??_C@_0EM@LAJMLFJL@c?3?2users?2nhv90?2projects?2eech?2ap@
  002bc	8b 15 00 00 00
	00		 mov	 edx, DWORD PTR ?null_entity_pointer_message@@3PBDB ; null_entity_pointer_message
  002c2	52		 push	 edx
  002c3	e8 00 00 00 00	 call	 ?process_assert@@YGXPBD0H@Z ; process_assert
  002c8	c7 45 b4 00 00
	00 00		 mov	 DWORD PTR tv177[ebp], 0
$LN42@get_local_:
  002cf	b8 01 00 00 00	 mov	 eax, 1
  002d4	85 c0		 test	 eax, eax
  002d6	74 09		 je	 SHORT $LN43@get_local_
  002d8	c7 45 b0 17 00
	00 00		 mov	 DWORD PTR tv185[ebp], 23 ; 00000017H
  002df	eb 22		 jmp	 SHORT $LN44@get_local_
$LN43@get_local_:
  002e1	8b 0d 00 00 00
	00		 mov	 ecx, DWORD PTR ?__LINE__Var@?0??get_local_int_value@@YGHPAUENTITY@@W4INT_TYPES@@@Z@4JA
  002e7	83 c1 5c	 add	 ecx, 92			; 0000005cH
  002ea	51		 push	 ecx
  002eb	68 00 00 00 00	 push	 OFFSET ??_C@_0EM@LAJMLFJL@c?3?2users?2nhv90?2projects?2eech?2ap@
  002f0	8b 15 00 00 00
	00		 mov	 edx, DWORD PTR ?overload_invalid_int_type_message@@3PBDB ; overload_invalid_int_type_message
  002f6	52		 push	 edx
  002f7	e8 00 00 00 00	 call	 ?process_assert@@YGXPBD0H@Z ; process_assert
  002fc	c7 45 b0 00 00
	00 00		 mov	 DWORD PTR tv185[ebp], 0
$LN44@get_local_:
  00303	6a 17		 push	 23			; 00000017H
  00305	8b 45 08	 mov	 eax, DWORD PTR _en$[ebp]
  00308	50		 push	 eax
  00309	69 4d b4 5c 04
	00 00		 imul	 ecx, DWORD PTR tv177[ebp], 1116
  00310	8b 55 b0	 mov	 edx, DWORD PTR tv185[ebp]
  00313	8b 84 91 00 00
	00 00		 mov	 eax, DWORD PTR ?fn_get_local_entity_int_value@@3PAY0BBH@P6GHPAUENTITY@@W4INT_TYPES@@@ZA[ecx+edx*4]
  0031a	ff d0		 call	 eax
  0031c	85 c0		 test	 eax, eax
  0031e	74 09		 je	 SHORT $LN45@get_local_
  00320	c7 45 ac 01 00
	00 00		 mov	 DWORD PTR tv193[ebp], 1
  00327	eb 07		 jmp	 SHORT $LN46@get_local_
$LN45@get_local_:
  00329	c7 45 ac 00 00
	00 00		 mov	 DWORD PTR tv193[ebp], 0
$LN46@get_local_:
  00330	8b 4d ac	 mov	 ecx, DWORD PTR tv193[ebp]
  00333	89 4d f8	 mov	 DWORD PTR _value$[ebp], ecx

; 389  : 
; 390  : 			break;

  00336	e9 db 01 00 00	 jmp	 $LN2@get_local_
$LN17@get_local_:

; 391  : 		}
; 392  : 		////////////////////////////////////////
; 393  : 		case INT_TYPE_INVULNERABLE_FROM_WEAPONS:
; 394  : 		////////////////////////////////////////
; 395  : 		{
; 396  : 			value = (raw->invulnerable_from_weapons && get_local_entity_int_value (en, INT_TYPE_CHEATS_ENABLED));

  0033b	8b 45 fc	 mov	 eax, DWORD PTR _raw$[ebp]
  0033e	8b 88 a4 00 00
	00		 mov	 ecx, DWORD PTR [eax+164]
  00344	c1 e9 18	 shr	 ecx, 24			; 00000018H
  00347	83 e1 01	 and	 ecx, 1
  0034a	0f 84 8c 00 00
	00		 je	 $LN51@get_local_
  00350	83 7d 08 00	 cmp	 DWORD PTR _en$[ebp], 0
  00354	74 0a		 je	 SHORT $LN47@get_local_
  00356	8b 55 08	 mov	 edx, DWORD PTR _en$[ebp]
  00359	8b 02		 mov	 eax, DWORD PTR [edx]
  0035b	89 45 b4	 mov	 DWORD PTR tv203[ebp], eax
  0035e	eb 22		 jmp	 SHORT $LN48@get_local_
$LN47@get_local_:
  00360	8b 0d 00 00 00
	00		 mov	 ecx, DWORD PTR ?__LINE__Var@?0??get_local_int_value@@YGHPAUENTITY@@W4INT_TYPES@@@Z@4JA
  00366	83 c1 64	 add	 ecx, 100		; 00000064H
  00369	51		 push	 ecx
  0036a	68 00 00 00 00	 push	 OFFSET ??_C@_0EM@LAJMLFJL@c?3?2users?2nhv90?2projects?2eech?2ap@
  0036f	8b 15 00 00 00
	00		 mov	 edx, DWORD PTR ?null_entity_pointer_message@@3PBDB ; null_entity_pointer_message
  00375	52		 push	 edx
  00376	e8 00 00 00 00	 call	 ?process_assert@@YGXPBD0H@Z ; process_assert
  0037b	c7 45 b4 00 00
	00 00		 mov	 DWORD PTR tv203[ebp], 0
$LN48@get_local_:
  00382	b8 01 00 00 00	 mov	 eax, 1
  00387	85 c0		 test	 eax, eax
  00389	74 09		 je	 SHORT $LN49@get_local_
  0038b	c7 45 b0 17 00
	00 00		 mov	 DWORD PTR tv211[ebp], 23 ; 00000017H
  00392	eb 22		 jmp	 SHORT $LN50@get_local_
$LN49@get_local_:
  00394	8b 0d 00 00 00
	00		 mov	 ecx, DWORD PTR ?__LINE__Var@?0??get_local_int_value@@YGHPAUENTITY@@W4INT_TYPES@@@Z@4JA
  0039a	83 c1 64	 add	 ecx, 100		; 00000064H
  0039d	51		 push	 ecx
  0039e	68 00 00 00 00	 push	 OFFSET ??_C@_0EM@LAJMLFJL@c?3?2users?2nhv90?2projects?2eech?2ap@
  003a3	8b 15 00 00 00
	00		 mov	 edx, DWORD PTR ?overload_invalid_int_type_message@@3PBDB ; overload_invalid_int_type_message
  003a9	52		 push	 edx
  003aa	e8 00 00 00 00	 call	 ?process_assert@@YGXPBD0H@Z ; process_assert
  003af	c7 45 b0 00 00
	00 00		 mov	 DWORD PTR tv211[ebp], 0
$LN50@get_local_:
  003b6	6a 17		 push	 23			; 00000017H
  003b8	8b 45 08	 mov	 eax, DWORD PTR _en$[ebp]
  003bb	50		 push	 eax
  003bc	69 4d b4 5c 04
	00 00		 imul	 ecx, DWORD PTR tv203[ebp], 1116
  003c3	8b 55 b0	 mov	 edx, DWORD PTR tv211[ebp]
  003c6	8b 84 91 00 00
	00 00		 mov	 eax, DWORD PTR ?fn_get_local_entity_int_value@@3PAY0BBH@P6GHPAUENTITY@@W4INT_TYPES@@@ZA[ecx+edx*4]
  003cd	ff d0		 call	 eax
  003cf	85 c0		 test	 eax, eax
  003d1	74 09		 je	 SHORT $LN51@get_local_
  003d3	c7 45 ac 01 00
	00 00		 mov	 DWORD PTR tv219[ebp], 1
  003da	eb 07		 jmp	 SHORT $LN52@get_local_
$LN51@get_local_:
  003dc	c7 45 ac 00 00
	00 00		 mov	 DWORD PTR tv219[ebp], 0
$LN52@get_local_:
  003e3	8b 4d ac	 mov	 ecx, DWORD PTR tv219[ebp]
  003e6	89 4d f8	 mov	 DWORD PTR _value$[ebp], ecx

; 397  : 
; 398  : 			break;

  003e9	e9 28 01 00 00	 jmp	 $LN2@get_local_
$LN18@get_local_:

; 399  : 		}
; 400  : 		////////////////////////////////////////
; 401  : 		case INT_TYPE_LOCAL_WEATHER_MODEL:
; 402  : 		////////////////////////////////////////
; 403  : 		{
; 404  : 			value = raw->local_weather_model;

  003ee	8b 45 fc	 mov	 eax, DWORD PTR _raw$[ebp]
  003f1	8b 88 a4 00 00
	00		 mov	 ecx, DWORD PTR [eax+164]
  003f7	c1 e9 1d	 shr	 ecx, 29			; 0000001dH
  003fa	83 e1 01	 and	 ecx, 1
  003fd	89 4d f8	 mov	 DWORD PTR _value$[ebp], ecx

; 405  : 
; 406  : 			break;

  00400	e9 11 01 00 00	 jmp	 $LN2@get_local_
$LN19@get_local_:

; 407  : 		}
; 408  : 		////////////////////////////////////////
; 409  : 		case INT_TYPE_SESSION_COMPLETE:
; 410  : 		////////////////////////////////////////
; 411  : 		{
; 412  : 			value = raw->session_complete;

  00405	8b 45 fc	 mov	 eax, DWORD PTR _raw$[ebp]
  00408	8b 88 a4 00 00
	00		 mov	 ecx, DWORD PTR [eax+164]
  0040e	c1 e9 12	 shr	 ecx, 18			; 00000012H
  00411	83 e1 03	 and	 ecx, 3
  00414	89 4d f8	 mov	 DWORD PTR _value$[ebp], ecx

; 413  : 
; 414  : 			break;

  00417	e9 fa 00 00 00	 jmp	 $LN2@get_local_
$LN20@get_local_:

; 415  : 		}
; 416  : 		////////////////////////////////////////
; 417  : 		case INT_TYPE_SKIP_NIGHT_TIME:
; 418  : 		////////////////////////////////////////
; 419  : 		{
; 420  : 			value = raw->skip_night_time;

  0041c	8b 45 fc	 mov	 eax, DWORD PTR _raw$[ebp]
  0041f	8b 88 a4 00 00
	00		 mov	 ecx, DWORD PTR [eax+164]
  00425	c1 e9 1a	 shr	 ecx, 26			; 0000001aH
  00428	83 e1 01	 and	 ecx, 1
  0042b	89 4d f8	 mov	 DWORD PTR _value$[ebp], ecx

; 421  : 
; 422  : 			break;

  0042e	e9 e3 00 00 00	 jmp	 $LN2@get_local_
$LN21@get_local_:

; 423  : 		}
; 424  : 		////////////////////////////////////////
; 425  : 		case INT_TYPE_SUPPRESS_AI_FIRE:
; 426  : 		////////////////////////////////////////
; 427  : 		{
; 428  : 			value = raw->suppress_ai_fire;

  00433	8b 45 fc	 mov	 eax, DWORD PTR _raw$[ebp]
  00436	8b 88 a4 00 00
	00		 mov	 ecx, DWORD PTR [eax+164]
  0043c	c1 e9 16	 shr	 ecx, 22			; 00000016H
  0043f	83 e1 01	 and	 ecx, 1
  00442	89 4d f8	 mov	 DWORD PTR _value$[ebp], ecx

; 429  : 
; 430  : 			break;

  00445	e9 cc 00 00 00	 jmp	 $LN2@get_local_
$LN22@get_local_:

; 431  : 		}
; 432  : 		////////////////////////////////////////
; 433  : 		case INT_TYPE_TARGET_WEATHER_MODE:
; 434  : 		////////////////////////////////////////
; 435  : 		{
; 436  : 			value = raw->target_weather_mode;

  0044a	8b 45 fc	 mov	 eax, DWORD PTR _raw$[ebp]
  0044d	8b 48 40	 mov	 ecx, DWORD PTR [eax+64]
  00450	89 4d f8	 mov	 DWORD PTR _value$[ebp], ecx

; 437  : 
; 438  : 			break;

  00453	e9 be 00 00 00	 jmp	 $LN2@get_local_
$LN23@get_local_:

; 439  : 		}
; 440  : 		////////////////////////////////////////
; 441  : 		case INT_TYPE_VERSION_NUMBER:
; 442  : 		////////////////////////////////////////
; 443  : 		{
; 444  : 			value = raw->version_number;

  00458	8b 45 fc	 mov	 eax, DWORD PTR _raw$[ebp]
  0045b	8b 08		 mov	 ecx, DWORD PTR [eax]
  0045d	89 4d f8	 mov	 DWORD PTR _value$[ebp], ecx

; 445  : 
; 446  : 			break;

  00460	e9 b1 00 00 00	 jmp	 $LN2@get_local_
$LN24@get_local_:

; 447  : 		}
; 448  : 		////////////////////////////////////////
; 449  : 		case INT_TYPE_WEATHER_INCREASING:
; 450  : 		////////////////////////////////////////
; 451  : 		{
; 452  : 			value = raw->weather_increasing;

  00465	8b 45 fc	 mov	 eax, DWORD PTR _raw$[ebp]
  00468	8b 88 a4 00 00
	00		 mov	 ecx, DWORD PTR [eax+164]
  0046e	c1 e9 1b	 shr	 ecx, 27			; 0000001bH
  00471	83 e1 01	 and	 ecx, 1
  00474	89 4d f8	 mov	 DWORD PTR _value$[ebp], ecx

; 453  : 
; 454  : 			break;

  00477	e9 9a 00 00 00	 jmp	 $LN2@get_local_
$LN25@get_local_:

; 455  : 		}
; 456  : 		////////////////////////////////////////
; 457  : 		case INT_TYPE_WEATHER_MODE:
; 458  : 		////////////////////////////////////////
; 459  : 		{
; 460  : 			value = raw->weather_mode;

  0047c	8b 45 fc	 mov	 eax, DWORD PTR _raw$[ebp]
  0047f	8b 48 3c	 mov	 ecx, DWORD PTR [eax+60]
  00482	89 4d f8	 mov	 DWORD PTR _value$[ebp], ecx

; 461  : 
; 462  : 			break;

  00485	e9 8c 00 00 00	 jmp	 $LN2@get_local_
$LN26@get_local_:

; 463  : 		}
; 464  : 		////////////////////////////////////////
; 465  : 		case INT_TYPE_WIND_INCREASING:
; 466  : 		////////////////////////////////////////
; 467  : 		{
; 468  : 			value = raw->wind_increasing;

  0048a	8b 45 fc	 mov	 eax, DWORD PTR _raw$[ebp]
  0048d	8b 88 a4 00 00
	00		 mov	 ecx, DWORD PTR [eax+164]
  00493	c1 e9 1c	 shr	 ecx, 28			; 0000001cH
  00496	83 e1 01	 and	 ecx, 1
  00499	89 4d f8	 mov	 DWORD PTR _value$[ebp], ecx

; 469  : 
; 470  : 			break;

  0049c	eb 78		 jmp	 SHORT $LN2@get_local_
$LN27@get_local_:

; 471  : 		}
; 472  : 		////////////////////////////////////////
; 473  : 		default:
; 474  : 		////////////////////////////////////////
; 475  : 		{
; 476  : 			debug_fatal_invalid_int_type (en, type);

  0049e	83 7d 08 00	 cmp	 DWORD PTR _en$[ebp], 0
  004a2	74 0a		 je	 SHORT $LN53@get_local_
  004a4	8b 45 08	 mov	 eax, DWORD PTR _en$[ebp]
  004a7	8b 08		 mov	 ecx, DWORD PTR [eax]
  004a9	89 4d b4	 mov	 DWORD PTR tv257[ebp], ecx
  004ac	eb 24		 jmp	 SHORT $LN54@get_local_
$LN53@get_local_:
  004ae	8b 15 00 00 00
	00		 mov	 edx, DWORD PTR ?__LINE__Var@?0??get_local_int_value@@YGHPAUENTITY@@W4INT_TYPES@@@Z@4JA
  004b4	81 c2 b4 00 00
	00		 add	 edx, 180		; 000000b4H
  004ba	52		 push	 edx
  004bb	68 00 00 00 00	 push	 OFFSET ??_C@_0EM@LAJMLFJL@c?3?2users?2nhv90?2projects?2eech?2ap@
  004c0	a1 00 00 00 00	 mov	 eax, DWORD PTR ?null_entity_pointer_message@@3PBDB ; null_entity_pointer_message
  004c5	50		 push	 eax
  004c6	e8 00 00 00 00	 call	 ?process_assert@@YGXPBD0H@Z ; process_assert
  004cb	c7 45 b4 00 00
	00 00		 mov	 DWORD PTR tv257[ebp], 0
$LN54@get_local_:
  004d2	8b 0d 00 00 00
	00		 mov	 ecx, DWORD PTR ?__LINE__Var@?0??get_local_int_value@@YGHPAUENTITY@@W4INT_TYPES@@@Z@4JA
  004d8	81 c1 b4 00 00
	00		 add	 ecx, 180		; 000000b4H
  004de	51		 push	 ecx
  004df	68 00 00 00 00	 push	 OFFSET ??_C@_0EM@LAJMLFJL@c?3?2users?2nhv90?2projects?2eech?2ap@
  004e4	6b 55 0c 14	 imul	 edx, DWORD PTR _type$[ebp], 20
  004e8	8b 82 00 00 00
	00		 mov	 eax, DWORD PTR ?int_type_database@@3PAUINT_TYPE_DATA@@A[edx]
  004ee	50		 push	 eax
  004ef	8b 4d 08	 mov	 ecx, DWORD PTR _en$[ebp]
  004f2	2b 0d 00 00 00
	00		 sub	 ecx, DWORD PTR ?entities@@3PAUENTITY@@A ; entities
  004f8	c1 f9 04	 sar	 ecx, 4
  004fb	51		 push	 ecx
  004fc	6b 55 b4 0c	 imul	 edx, DWORD PTR tv257[ebp], 12
  00500	8b 82 00 00 00
	00		 mov	 eax, DWORD PTR ?entity_type_database@@3PAUENTITY_TYPE_DATA@@A[edx]
  00506	50		 push	 eax
  00507	8b 0d 00 00 00
	00		 mov	 ecx, DWORD PTR ?debug_fatal_invalid_int_type_message@@3PBDB ; debug_fatal_invalid_int_type_message
  0050d	51		 push	 ecx
  0050e	e8 00 00 00 00	 call	 ?debug_fatal@@YAXPBDZZ	; debug_fatal
  00513	83 c4 18	 add	 esp, 24			; 00000018H
$LN2@get_local_:

; 477  : 
; 478  : 			break;
; 479  : 		}
; 480  : 	}
; 481  : 
; 482  : 	return (value);

  00516	8b 45 f8	 mov	 eax, DWORD PTR _value$[ebp]

; 483  : }

  00519	5f		 pop	 edi
  0051a	5e		 pop	 esi
  0051b	5b		 pop	 ebx
  0051c	8b e5		 mov	 esp, ebp
  0051e	5d		 pop	 ebp
  0051f	c2 08 00	 ret	 8
  00522	66 90		 npad	 2
$LN57@get_local_:
  00524	00 00 00 00	 DD	 $LN4@get_local_
  00528	00 00 00 00	 DD	 $LN5@get_local_
  0052c	00 00 00 00	 DD	 $LN6@get_local_
  00530	00 00 00 00	 DD	 $LN7@get_local_
  00534	00 00 00 00	 DD	 $LN12@get_local_
  00538	00 00 00 00	 DD	 $LN13@get_local_
  0053c	00 00 00 00	 DD	 $LN14@get_local_
  00540	00 00 00 00	 DD	 $LN15@get_local_
  00544	00 00 00 00	 DD	 $LN16@get_local_
  00548	00 00 00 00	 DD	 $LN17@get_local_
  0054c	00 00 00 00	 DD	 $LN18@get_local_
  00550	00 00 00 00	 DD	 $LN19@get_local_
  00554	00 00 00 00	 DD	 $LN20@get_local_
  00558	00 00 00 00	 DD	 $LN21@get_local_
  0055c	00 00 00 00	 DD	 $LN22@get_local_
  00560	00 00 00 00	 DD	 $LN23@get_local_
  00564	00 00 00 00	 DD	 $LN27@get_local_
$LN56@get_local_:
  00568	00		 DB	 0
  00569	10		 DB	 16			; 00000010H
  0056a	10		 DB	 16			; 00000010H
  0056b	10		 DB	 16			; 00000010H
  0056c	10		 DB	 16			; 00000010H
  0056d	10		 DB	 16			; 00000010H
  0056e	10		 DB	 16			; 00000010H
  0056f	10		 DB	 16			; 00000010H
  00570	10		 DB	 16			; 00000010H
  00571	10		 DB	 16			; 00000010H
  00572	01		 DB	 1
  00573	02		 DB	 2
  00574	03		 DB	 3
  00575	10		 DB	 16			; 00000010H
  00576	10		 DB	 16			; 00000010H
  00577	10		 DB	 16			; 00000010H
  00578	10		 DB	 16			; 00000010H
  00579	10		 DB	 16			; 00000010H
  0057a	10		 DB	 16			; 00000010H
  0057b	10		 DB	 16			; 00000010H
  0057c	10		 DB	 16			; 00000010H
  0057d	10		 DB	 16			; 00000010H
  0057e	10		 DB	 16			; 00000010H
  0057f	10		 DB	 16			; 00000010H
  00580	10		 DB	 16			; 00000010H
  00581	10		 DB	 16			; 00000010H
  00582	10		 DB	 16			; 00000010H
  00583	04		 DB	 4
  00584	05		 DB	 5
  00585	10		 DB	 16			; 00000010H
  00586	10		 DB	 16			; 00000010H
  00587	10		 DB	 16			; 00000010H
  00588	10		 DB	 16			; 00000010H
  00589	10		 DB	 16			; 00000010H
  0058a	10		 DB	 16			; 00000010H
  0058b	10		 DB	 16			; 00000010H
  0058c	10		 DB	 16			; 00000010H
  0058d	10		 DB	 16			; 00000010H
  0058e	10		 DB	 16			; 00000010H
  0058f	10		 DB	 16			; 00000010H
  00590	10		 DB	 16			; 00000010H
  00591	10		 DB	 16			; 00000010H
  00592	10		 DB	 16			; 00000010H
  00593	10		 DB	 16			; 00000010H
  00594	10		 DB	 16			; 00000010H
  00595	10		 DB	 16			; 00000010H
  00596	10		 DB	 16			; 00000010H
  00597	10		 DB	 16			; 00000010H
  00598	10		 DB	 16			; 00000010H
  00599	10		 DB	 16			; 00000010H
  0059a	10		 DB	 16			; 00000010H
  0059b	10		 DB	 16			; 00000010H
  0059c	10		 DB	 16			; 00000010H
  0059d	10		 DB	 16			; 00000010H
  0059e	10		 DB	 16			; 00000010H
  0059f	10		 DB	 16			; 00000010H
  005a0	10		 DB	 16			; 00000010H
  005a1	10		 DB	 16			; 00000010H
  005a2	10		 DB	 16			; 00000010H
  005a3	10		 DB	 16			; 00000010H
  005a4	10		 DB	 16			; 00000010H
  005a5	10		 DB	 16			; 00000010H
  005a6	10		 DB	 16			; 00000010H
  005a7	10		 DB	 16			; 00000010H
  005a8	10		 DB	 16			; 00000010H
  005a9	10		 DB	 16			; 00000010H
  005aa	10		 DB	 16			; 00000010H
  005ab	10		 DB	 16			; 00000010H
  005ac	10		 DB	 16			; 00000010H
  005ad	10		 DB	 16			; 00000010H
  005ae	10		 DB	 16			; 00000010H
  005af	10		 DB	 16			; 00000010H
  005b0	10		 DB	 16			; 00000010H
  005b1	10		 DB	 16			; 00000010H
  005b2	10		 DB	 16			; 00000010H
  005b3	10		 DB	 16			; 00000010H
  005b4	10		 DB	 16			; 00000010H
  005b5	10		 DB	 16			; 00000010H
  005b6	10		 DB	 16			; 00000010H
  005b7	10		 DB	 16			; 00000010H
  005b8	10		 DB	 16			; 00000010H
  005b9	10		 DB	 16			; 00000010H
  005ba	10		 DB	 16			; 00000010H
  005bb	10		 DB	 16			; 00000010H
  005bc	10		 DB	 16			; 00000010H
  005bd	10		 DB	 16			; 00000010H
  005be	10		 DB	 16			; 00000010H
  005bf	10		 DB	 16			; 00000010H
  005c0	10		 DB	 16			; 00000010H
  005c1	10		 DB	 16			; 00000010H
  005c2	06		 DB	 6
  005c3	10		 DB	 16			; 00000010H
  005c4	07		 DB	 7
  005c5	10		 DB	 16			; 00000010H
  005c6	10		 DB	 16			; 00000010H
  005c7	10		 DB	 16			; 00000010H
  005c8	08		 DB	 8
  005c9	09		 DB	 9
  005ca	10		 DB	 16			; 00000010H
  005cb	10		 DB	 16			; 00000010H
  005cc	10		 DB	 16			; 00000010H
  005cd	10		 DB	 16			; 00000010H
  005ce	10		 DB	 16			; 00000010H
  005cf	10		 DB	 16			; 00000010H
  005d0	10		 DB	 16			; 00000010H
  005d1	10		 DB	 16			; 00000010H
  005d2	10		 DB	 16			; 00000010H
  005d3	10		 DB	 16			; 00000010H
  005d4	10		 DB	 16			; 00000010H
  005d5	10		 DB	 16			; 00000010H
  005d6	10		 DB	 16			; 00000010H
  005d7	10		 DB	 16			; 00000010H
  005d8	10		 DB	 16			; 00000010H
  005d9	10		 DB	 16			; 00000010H
  005da	0a		 DB	 10			; 0000000aH
  005db	10		 DB	 16			; 00000010H
  005dc	10		 DB	 16			; 00000010H
  005dd	10		 DB	 16			; 00000010H
  005de	10		 DB	 16			; 00000010H
  005df	10		 DB	 16			; 00000010H
  005e0	10		 DB	 16			; 00000010H
  005e1	10		 DB	 16			; 00000010H
  005e2	10		 DB	 16			; 00000010H
  005e3	10		 DB	 16			; 00000010H
  005e4	10		 DB	 16			; 00000010H
  005e5	10		 DB	 16			; 00000010H
  005e6	10		 DB	 16			; 00000010H
  005e7	10		 DB	 16			; 00000010H
  005e8	10		 DB	 16			; 00000010H
  005e9	10		 DB	 16			; 00000010H
  005ea	10		 DB	 16			; 00000010H
  005eb	10		 DB	 16			; 00000010H
  005ec	10		 DB	 16			; 00000010H
  005ed	10		 DB	 16			; 00000010H
  005ee	10		 DB	 16			; 00000010H
  005ef	10		 DB	 16			; 00000010H
  005f0	10		 DB	 16			; 00000010H
  005f1	10		 DB	 16			; 00000010H
  005f2	10		 DB	 16			; 00000010H
  005f3	10		 DB	 16			; 00000010H
  005f4	10		 DB	 16			; 00000010H
  005f5	10		 DB	 16			; 00000010H
  005f6	10		 DB	 16			; 00000010H
  005f7	10		 DB	 16			; 00000010H
  005f8	10		 DB	 16			; 00000010H
  005f9	10		 DB	 16			; 00000010H
  005fa	10		 DB	 16			; 00000010H
  005fb	10		 DB	 16			; 00000010H
  005fc	10		 DB	 16			; 00000010H
  005fd	10		 DB	 16			; 00000010H
  005fe	10		 DB	 16			; 00000010H
  005ff	10		 DB	 16			; 00000010H
  00600	10		 DB	 16			; 00000010H
  00601	10		 DB	 16			; 00000010H
  00602	10		 DB	 16			; 00000010H
  00603	10		 DB	 16			; 00000010H
  00604	10		 DB	 16			; 00000010H
  00605	10		 DB	 16			; 00000010H
  00606	10		 DB	 16			; 00000010H
  00607	10		 DB	 16			; 00000010H
  00608	10		 DB	 16			; 00000010H
  00609	10		 DB	 16			; 00000010H
  0060a	10		 DB	 16			; 00000010H
  0060b	10		 DB	 16			; 00000010H
  0060c	10		 DB	 16			; 00000010H
  0060d	10		 DB	 16			; 00000010H
  0060e	10		 DB	 16			; 00000010H
  0060f	10		 DB	 16			; 00000010H
  00610	10		 DB	 16			; 00000010H
  00611	10		 DB	 16			; 00000010H
  00612	10		 DB	 16			; 00000010H
  00613	10		 DB	 16			; 00000010H
  00614	10		 DB	 16			; 00000010H
  00615	10		 DB	 16			; 00000010H
  00616	10		 DB	 16			; 00000010H
  00617	0b		 DB	 11			; 0000000bH
  00618	10		 DB	 16			; 00000010H
  00619	0c		 DB	 12			; 0000000cH
  0061a	10		 DB	 16			; 00000010H
  0061b	10		 DB	 16			; 00000010H
  0061c	10		 DB	 16			; 00000010H
  0061d	10		 DB	 16			; 00000010H
  0061e	10		 DB	 16			; 00000010H
  0061f	10		 DB	 16			; 00000010H
  00620	10		 DB	 16			; 00000010H
  00621	10		 DB	 16			; 00000010H
  00622	10		 DB	 16			; 00000010H
  00623	10		 DB	 16			; 00000010H
  00624	10		 DB	 16			; 00000010H
  00625	10		 DB	 16			; 00000010H
  00626	10		 DB	 16			; 00000010H
  00627	10		 DB	 16			; 00000010H
  00628	10		 DB	 16			; 00000010H
  00629	10		 DB	 16			; 00000010H
  0062a	10		 DB	 16			; 00000010H
  0062b	10		 DB	 16			; 00000010H
  0062c	10		 DB	 16			; 00000010H
  0062d	0d		 DB	 13			; 0000000dH
  0062e	10		 DB	 16			; 00000010H
  0062f	10		 DB	 16			; 00000010H
  00630	10		 DB	 16			; 00000010H
  00631	10		 DB	 16			; 00000010H
  00632	10		 DB	 16			; 00000010H
  00633	10		 DB	 16			; 00000010H
  00634	0e		 DB	 14			; 0000000eH
  00635	10		 DB	 16			; 00000010H
  00636	10		 DB	 16			; 00000010H
  00637	10		 DB	 16			; 00000010H
  00638	10		 DB	 16			; 00000010H
  00639	10		 DB	 16			; 00000010H
  0063a	10		 DB	 16			; 00000010H
  0063b	10		 DB	 16			; 00000010H
  0063c	10		 DB	 16			; 00000010H
  0063d	10		 DB	 16			; 00000010H
  0063e	10		 DB	 16			; 00000010H
  0063f	10		 DB	 16			; 00000010H
  00640	10		 DB	 16			; 00000010H
  00641	10		 DB	 16			; 00000010H
  00642	10		 DB	 16			; 00000010H
  00643	10		 DB	 16			; 00000010H
  00644	10		 DB	 16			; 00000010H
  00645	10		 DB	 16			; 00000010H
  00646	10		 DB	 16			; 00000010H
  00647	10		 DB	 16			; 00000010H
  00648	10		 DB	 16			; 00000010H
  00649	10		 DB	 16			; 00000010H
  0064a	10		 DB	 16			; 00000010H
  0064b	10		 DB	 16			; 00000010H
  0064c	10		 DB	 16			; 00000010H
  0064d	10		 DB	 16			; 00000010H
  0064e	10		 DB	 16			; 00000010H
  0064f	10		 DB	 16			; 00000010H
  00650	10		 DB	 16			; 00000010H
  00651	10		 DB	 16			; 00000010H
  00652	0f		 DB	 15			; 0000000fH
?get_local_int_value@@YGHPAUENTITY@@W4INT_TYPES@@@Z ENDP ; get_local_int_value
_TEXT	ENDS
; Function compile flags: /Odtp /ZI
; File c:\users\nhv90\projects\eech\aphavoc\source\entity\special\session\ss_int.c
;	COMDAT ?set_client_int_value@@YGXPAUENTITY@@W4INT_TYPES@@H@Z
_TEXT	SEGMENT
_en$ = 8						; size = 4
_type$ = 12						; size = 4
_value$ = 16						; size = 4
?set_client_int_value@@YGXPAUENTITY@@W4INT_TYPES@@H@Z PROC ; set_client_int_value, COMDAT

; 276  : {

  00000	55		 push	 ebp
  00001	8b ec		 mov	 ebp, esp
  00003	83 ec 40	 sub	 esp, 64			; 00000040H
  00006	53		 push	 ebx
  00007	56		 push	 esi
  00008	57		 push	 edi

; 277  : 	if (get_comms_data_flow () == COMMS_DATA_FLOW_TX)

  00009	83 3d 00 00 00
	00 00		 cmp	 DWORD PTR ?system_comms_data_flow@@3W4COMMS_DATA_FLOW_TYPES@@A, 0 ; system_comms_data_flow
  00010	75 34		 jne	 SHORT $LN2@set_client

; 278  : 	{
; 279  : 		validate_client_server_remote_fn ();

  00012	e8 00 00 00 00	 call	 ?assert_client_server_remote_fn@@YGHXZ ; assert_client_server_remote_fn
  00017	85 c0		 test	 eax, eax
  00019	75 18		 jne	 SHORT $LN4@set_client
  0001b	a1 00 00 00 00	 mov	 eax, DWORD PTR ?__LINE__Var@?0??set_client_int_value@@YGXPAUENTITY@@W4INT_TYPES@@H@Z@4JA
  00020	83 c0 03	 add	 eax, 3
  00023	50		 push	 eax
  00024	68 00 00 00 00	 push	 OFFSET ??_C@_0EM@LAJMLFJL@c?3?2users?2nhv90?2projects?2eech?2ap@
  00029	68 00 00 00 00	 push	 OFFSET ??_C@_0CC@BNNNEGEG@assert_client_server_remote_fn?5@
  0002e	e8 00 00 00 00	 call	 ?process_assert@@YGXPBD0H@Z ; process_assert
$LN4@set_client:

; 280  : 
; 281  : 		set_remote_int_value (en, type, value);

  00033	8b 45 10	 mov	 eax, DWORD PTR _value$[ebp]
  00036	50		 push	 eax
  00037	8b 4d 0c	 mov	 ecx, DWORD PTR _type$[ebp]
  0003a	51		 push	 ecx
  0003b	8b 55 08	 mov	 edx, DWORD PTR _en$[ebp]
  0003e	52		 push	 edx
  0003f	e8 00 00 00 00	 call	 ?set_remote_int_value@@YGXPAUENTITY@@W4INT_TYPES@@H@Z ; set_remote_int_value

; 282  : 	}
; 283  : 	else

  00044	eb 32		 jmp	 SHORT $LN1@set_client
$LN2@set_client:

; 284  : 	{
; 285  : 		validate_client_server_local_fn ();

  00046	e8 00 00 00 00	 call	 ?assert_client_server_local_fn@@YGHXZ ; assert_client_server_local_fn
  0004b	85 c0		 test	 eax, eax
  0004d	75 18		 jne	 SHORT $LN5@set_client
  0004f	a1 00 00 00 00	 mov	 eax, DWORD PTR ?__LINE__Var@?0??set_client_int_value@@YGXPAUENTITY@@W4INT_TYPES@@H@Z@4JA
  00054	83 c0 09	 add	 eax, 9
  00057	50		 push	 eax
  00058	68 00 00 00 00	 push	 OFFSET ??_C@_0EM@LAJMLFJL@c?3?2users?2nhv90?2projects?2eech?2ap@
  0005d	68 00 00 00 00	 push	 OFFSET ??_C@_0CB@CFOCLFOK@assert_client_server_local_fn?5?$CI@
  00062	e8 00 00 00 00	 call	 ?process_assert@@YGXPBD0H@Z ; process_assert
$LN5@set_client:

; 286  : 
; 287  : 		set_local_int_value (en, type, value);

  00067	8b 45 10	 mov	 eax, DWORD PTR _value$[ebp]
  0006a	50		 push	 eax
  0006b	8b 4d 0c	 mov	 ecx, DWORD PTR _type$[ebp]
  0006e	51		 push	 ecx
  0006f	8b 55 08	 mov	 edx, DWORD PTR _en$[ebp]
  00072	52		 push	 edx
  00073	e8 00 00 00 00	 call	 ?set_local_int_value@@YGXPAUENTITY@@W4INT_TYPES@@H@Z ; set_local_int_value
$LN1@set_client:

; 288  : 	}
; 289  : }

  00078	5f		 pop	 edi
  00079	5e		 pop	 esi
  0007a	5b		 pop	 ebx
  0007b	8b e5		 mov	 esp, ebp
  0007d	5d		 pop	 ebp
  0007e	c2 0c 00	 ret	 12			; 0000000cH
?set_client_int_value@@YGXPAUENTITY@@W4INT_TYPES@@H@Z ENDP ; set_client_int_value
_TEXT	ENDS
; Function compile flags: /Odtp /ZI
; File c:\users\nhv90\projects\eech\aphavoc\source\entity\special\session\ss_int.c
;	COMDAT ?set_server_int_value@@YGXPAUENTITY@@W4INT_TYPES@@H@Z
_TEXT	SEGMENT
_en$ = 8						; size = 4
_type$ = 12						; size = 4
_value$ = 16						; size = 4
?set_server_int_value@@YGXPAUENTITY@@W4INT_TYPES@@H@Z PROC ; set_server_int_value, COMDAT

; 261  : {

  00000	55		 push	 ebp
  00001	8b ec		 mov	 ebp, esp
  00003	83 ec 40	 sub	 esp, 64			; 00000040H
  00006	53		 push	 ebx
  00007	56		 push	 esi
  00008	57		 push	 edi

; 262  : 	validate_client_server_local_fn ();

  00009	e8 00 00 00 00	 call	 ?assert_client_server_local_fn@@YGHXZ ; assert_client_server_local_fn
  0000e	85 c0		 test	 eax, eax
  00010	75 18		 jne	 SHORT $LN2@set_server
  00012	a1 00 00 00 00	 mov	 eax, DWORD PTR ?__LINE__Var@?0??set_server_int_value@@YGXPAUENTITY@@W4INT_TYPES@@H@Z@4JA
  00017	83 c0 01	 add	 eax, 1
  0001a	50		 push	 eax
  0001b	68 00 00 00 00	 push	 OFFSET ??_C@_0EM@LAJMLFJL@c?3?2users?2nhv90?2projects?2eech?2ap@
  00020	68 00 00 00 00	 push	 OFFSET ??_C@_0CB@CFOCLFOK@assert_client_server_local_fn?5?$CI@
  00025	e8 00 00 00 00	 call	 ?process_assert@@YGXPBD0H@Z ; process_assert
$LN2@set_server:

; 263  : 
; 264  : 	set_local_int_value (en, type, value);

  0002a	8b 45 10	 mov	 eax, DWORD PTR _value$[ebp]
  0002d	50		 push	 eax
  0002e	8b 4d 0c	 mov	 ecx, DWORD PTR _type$[ebp]
  00031	51		 push	 ecx
  00032	8b 55 08	 mov	 edx, DWORD PTR _en$[ebp]
  00035	52		 push	 edx
  00036	e8 00 00 00 00	 call	 ?set_local_int_value@@YGXPAUENTITY@@W4INT_TYPES@@H@Z ; set_local_int_value

; 265  : 
; 266  : 	validate_client_server_remote_fn ();

  0003b	e8 00 00 00 00	 call	 ?assert_client_server_remote_fn@@YGHXZ ; assert_client_server_remote_fn
  00040	85 c0		 test	 eax, eax
  00042	75 18		 jne	 SHORT $LN3@set_server
  00044	a1 00 00 00 00	 mov	 eax, DWORD PTR ?__LINE__Var@?0??set_server_int_value@@YGXPAUENTITY@@W4INT_TYPES@@H@Z@4JA
  00049	83 c0 05	 add	 eax, 5
  0004c	50		 push	 eax
  0004d	68 00 00 00 00	 push	 OFFSET ??_C@_0EM@LAJMLFJL@c?3?2users?2nhv90?2projects?2eech?2ap@
  00052	68 00 00 00 00	 push	 OFFSET ??_C@_0CC@BNNNEGEG@assert_client_server_remote_fn?5@
  00057	e8 00 00 00 00	 call	 ?process_assert@@YGXPBD0H@Z ; process_assert
$LN3@set_server:

; 267  : 
; 268  : 	set_remote_int_value (en, type, value);

  0005c	8b 45 10	 mov	 eax, DWORD PTR _value$[ebp]
  0005f	50		 push	 eax
  00060	8b 4d 0c	 mov	 ecx, DWORD PTR _type$[ebp]
  00063	51		 push	 ecx
  00064	8b 55 08	 mov	 edx, DWORD PTR _en$[ebp]
  00067	52		 push	 edx
  00068	e8 00 00 00 00	 call	 ?set_remote_int_value@@YGXPAUENTITY@@W4INT_TYPES@@H@Z ; set_remote_int_value

; 269  : }

  0006d	5f		 pop	 edi
  0006e	5e		 pop	 esi
  0006f	5b		 pop	 ebx
  00070	8b e5		 mov	 esp, ebp
  00072	5d		 pop	 ebp
  00073	c2 0c 00	 ret	 12			; 0000000cH
?set_server_int_value@@YGXPAUENTITY@@W4INT_TYPES@@H@Z ENDP ; set_server_int_value
_TEXT	ENDS
; Function compile flags: /Odtp /ZI
; File c:\users\nhv90\projects\eech\aphavoc\source\entity\special\session\ss_int.c
;	COMDAT ?set_remote_int_value@@YGXPAUENTITY@@W4INT_TYPES@@H@Z
_TEXT	SEGMENT
_en$ = 8						; size = 4
_type$ = 12						; size = 4
_value$ = 16						; size = 4
?set_remote_int_value@@YGXPAUENTITY@@W4INT_TYPES@@H@Z PROC ; set_remote_int_value, COMDAT

; 246  : {

  00000	55		 push	 ebp
  00001	8b ec		 mov	 ebp, esp
  00003	83 ec 40	 sub	 esp, 64			; 00000040H
  00006	53		 push	 ebx
  00007	56		 push	 esi
  00008	57		 push	 edi

; 247  : 	#if DEBUG_MODULE
; 248  : 
; 249  : 	debug_log_entity_args (ENTITY_DEBUG_REMOTE, ENTITY_DEBUG_INT_VALUE, en, type, value);
; 250  : 
; 251  : 	#endif
; 252  : 
; 253  : 	transmit_entity_comms_message (ENTITY_COMMS_INT_VALUE, en, type, value);

  00009	8b 45 10	 mov	 eax, DWORD PTR _value$[ebp]
  0000c	50		 push	 eax
  0000d	8b 4d 0c	 mov	 ecx, DWORD PTR _type$[ebp]
  00010	51		 push	 ecx
  00011	8b 55 08	 mov	 edx, DWORD PTR _en$[ebp]
  00014	52		 push	 edx
  00015	6a 17		 push	 23			; 00000017H
  00017	e8 00 00 00 00	 call	 ?transmit_entity_comms_message@@YAXW4ENTITY_COMMS_MESSAGES@@PAUENTITY@@ZZ ; transmit_entity_comms_message
  0001c	83 c4 10	 add	 esp, 16			; 00000010H

; 254  : }

  0001f	5f		 pop	 edi
  00020	5e		 pop	 esi
  00021	5b		 pop	 ebx
  00022	8b e5		 mov	 esp, ebp
  00024	5d		 pop	 ebp
  00025	c2 0c 00	 ret	 12			; 0000000cH
?set_remote_int_value@@YGXPAUENTITY@@W4INT_TYPES@@H@Z ENDP ; set_remote_int_value
_TEXT	ENDS
; Function compile flags: /Odtp /ZI
; File c:\users\nhv90\projects\eech\aphavoc\source\entity\special\session\ss_int.c
;	COMDAT ?set_local_int_value@@YGXPAUENTITY@@W4INT_TYPES@@H@Z
_TEXT	SEGMENT
tv200 = -72						; size = 4
tv65 = -72						; size = 4
_raw$ = -4						; size = 4
_en$ = 8						; size = 4
_type$ = 12						; size = 4
_value$ = 16						; size = 4
?set_local_int_value@@YGXPAUENTITY@@W4INT_TYPES@@H@Z PROC ; set_local_int_value, COMDAT

; 80   : {

  00000	55		 push	 ebp
  00001	8b ec		 mov	 ebp, esp
  00003	83 ec 48	 sub	 esp, 72			; 00000048H
  00006	53		 push	 ebx
  00007	56		 push	 esi
  00008	57		 push	 edi

; 81   : 	session
; 82   : 		*raw;
; 83   : 
; 84   : 	#if DEBUG_MODULE
; 85   : 
; 86   : 	debug_log_entity_args (ENTITY_DEBUG_LOCAL, ENTITY_DEBUG_INT_VALUE, en, type, value);
; 87   : 
; 88   : 	#endif
; 89   : 
; 90   : 	raw = (session *) get_local_entity_data (en);

  00009	8b 45 08	 mov	 eax, DWORD PTR _en$[ebp]
  0000c	8b 48 04	 mov	 ecx, DWORD PTR [eax+4]
  0000f	89 4d fc	 mov	 DWORD PTR _raw$[ebp], ecx

; 91   : 
; 92   : 	switch (type)

  00012	8b 45 0c	 mov	 eax, DWORD PTR _type$[ebp]
  00015	89 45 b8	 mov	 DWORD PTR tv65[ebp], eax
  00018	81 7d b8 12 01
	00 00		 cmp	 DWORD PTR tv65[ebp], 274 ; 00000112H
  0001f	7f 34		 jg	 SHORT $LN25@set_local_
  00021	81 7d b8 12 01
	00 00		 cmp	 DWORD PTR tv65[ebp], 274 ; 00000112H
  00028	0f 84 40 02 00
	00		 je	 $LN18@set_local_
  0002e	8b 4d b8	 mov	 ecx, DWORD PTR tv65[ebp]
  00031	83 e9 0b	 sub	 ecx, 11			; 0000000bH
  00034	89 4d b8	 mov	 DWORD PTR tv65[ebp], ecx
  00037	81 7d b8 ea 00
	00 00		 cmp	 DWORD PTR tv65[ebp], 234 ; 000000eaH
  0003e	0f 87 85 02 00
	00		 ja	 $LN21@set_local_
  00044	8b 55 b8	 mov	 edx, DWORD PTR tv65[ebp]
  00047	0f b6 82 00 00
	00 00		 movzx	 eax, BYTE PTR $LN26@set_local_[edx]
  0004e	ff 24 85 00 00
	00 00		 jmp	 DWORD PTR $LN27@set_local_[eax*4]
$LN25@set_local_:
  00055	81 7d b8 13 01
	00 00		 cmp	 DWORD PTR tv65[ebp], 275 ; 00000113H
  0005c	0f 84 34 02 00
	00		 je	 $LN19@set_local_
  00062	81 7d b8 14 01
	00 00		 cmp	 DWORD PTR tv65[ebp], 276 ; 00000114H
  00069	0f 84 35 02 00
	00		 je	 $LN20@set_local_
  0006f	e9 55 02 00 00	 jmp	 $LN21@set_local_
$LN4@set_local_:

; 93   : 	{
; 94   : 		////////////////////////////////////////
; 95   : 		case INT_TYPE_AUTO_ASSIGN_GUNSHIP:
; 96   : 		////////////////////////////////////////
; 97   : 		{
; 98   : 			raw->auto_assign_gunship = value;

  00074	8b 45 10	 mov	 eax, DWORD PTR _value$[ebp]
  00077	83 e0 01	 and	 eax, 1
  0007a	c1 e0 11	 shl	 eax, 17			; 00000011H
  0007d	8b 4d fc	 mov	 ecx, DWORD PTR _raw$[ebp]
  00080	8b 91 a4 00 00
	00		 mov	 edx, DWORD PTR [ecx+164]
  00086	81 e2 ff ff fd
	ff		 and	 edx, -131073		; fffdffffH
  0008c	0b d0		 or	 edx, eax
  0008e	8b 45 fc	 mov	 eax, DWORD PTR _raw$[ebp]
  00091	89 90 a4 00 00
	00		 mov	 DWORD PTR [eax+164], edx

; 99   : 
; 100  : 			break;

  00097	e9 a5 02 00 00	 jmp	 $LN1@set_local_
$LN5@set_local_:

; 101  : 		}
; 102  : 		////////////////////////////////////////
; 103  : 		case INT_TYPE_CAMPAIGN_MEDAL:
; 104  : 		////////////////////////////////////////
; 105  : 		{
; 106  : 			raw->campaign_medal = value;

  0009c	8b 45 10	 mov	 eax, DWORD PTR _value$[ebp]
  0009f	25 ff ff 00 00	 and	 eax, 65535		; 0000ffffH
  000a4	8b 4d fc	 mov	 ecx, DWORD PTR _raw$[ebp]
  000a7	8b 91 a4 00 00
	00		 mov	 edx, DWORD PTR [ecx+164]
  000ad	81 e2 00 00 ff
	ff		 and	 edx, -65536		; ffff0000H
  000b3	0b d0		 or	 edx, eax
  000b5	8b 45 fc	 mov	 eax, DWORD PTR _raw$[ebp]
  000b8	89 90 a4 00 00
	00		 mov	 DWORD PTR [eax+164], edx

; 107  : 
; 108  : 			break;

  000be	e9 7e 02 00 00	 jmp	 $LN1@set_local_
$LN6@set_local_:

; 109  : 		}
; 110  : 		////////////////////////////////////////
; 111  : 		case INT_TYPE_CAMPAIGN_REQUIRES_APACHE_HAVOC:
; 112  : 		////////////////////////////////////////
; 113  : 		{
; 114  : 			raw->campaign_requires_apache_havoc = value;

  000c3	8b 45 10	 mov	 eax, DWORD PTR _value$[ebp]
  000c6	83 e0 01	 and	 eax, 1
  000c9	c1 e0 10	 shl	 eax, 16			; 00000010H
  000cc	8b 4d fc	 mov	 ecx, DWORD PTR _raw$[ebp]
  000cf	8b 91 a4 00 00
	00		 mov	 edx, DWORD PTR [ecx+164]
  000d5	81 e2 ff ff fe
	ff		 and	 edx, -65537		; fffeffffH
  000db	0b d0		 or	 edx, eax
  000dd	8b 45 fc	 mov	 eax, DWORD PTR _raw$[ebp]
  000e0	89 90 a4 00 00
	00		 mov	 DWORD PTR [eax+164], edx

; 115  : 
; 116  : 			break;

  000e6	e9 56 02 00 00	 jmp	 $LN1@set_local_
$LN7@set_local_:

; 117  : 		}
; 118  : 		////////////////////////////////////////
; 119  : 		case INT_TYPE_CHEATS_ENABLED:
; 120  : 		////////////////////////////////////////
; 121  : 		{
; 122  : 			raw->cheats_enabled = value;

  000eb	8b 45 10	 mov	 eax, DWORD PTR _value$[ebp]
  000ee	83 e0 01	 and	 eax, 1
  000f1	c1 e0 19	 shl	 eax, 25			; 00000019H
  000f4	8b 4d fc	 mov	 ecx, DWORD PTR _raw$[ebp]
  000f7	8b 91 a4 00 00
	00		 mov	 edx, DWORD PTR [ecx+164]
  000fd	81 e2 ff ff ff
	fd		 and	 edx, -33554433		; fdffffffH
  00103	0b d0		 or	 edx, eax
  00105	8b 45 fc	 mov	 eax, DWORD PTR _raw$[ebp]
  00108	89 90 a4 00 00
	00		 mov	 DWORD PTR [eax+164], edx

; 123  : 
; 124  : 			break;

  0010e	e9 2e 02 00 00	 jmp	 $LN1@set_local_
$LN8@set_local_:

; 125  : 		}
; 126  : 		////////////////////////////////////////
; 127  : 		case INT_TYPE_INFINITE_FUEL:
; 128  : 		////////////////////////////////////////
; 129  : 		{
; 130  : 			raw->infinite_fuel = value;

  00113	8b 45 10	 mov	 eax, DWORD PTR _value$[ebp]
  00116	83 e0 01	 and	 eax, 1
  00119	c1 e0 14	 shl	 eax, 20			; 00000014H
  0011c	8b 4d fc	 mov	 ecx, DWORD PTR _raw$[ebp]
  0011f	8b 91 a4 00 00
	00		 mov	 edx, DWORD PTR [ecx+164]
  00125	81 e2 ff ff ef
	ff		 and	 edx, -1048577		; ffefffffH
  0012b	0b d0		 or	 edx, eax
  0012d	8b 45 fc	 mov	 eax, DWORD PTR _raw$[ebp]
  00130	89 90 a4 00 00
	00		 mov	 DWORD PTR [eax+164], edx

; 131  : 
; 132  : 			break;

  00136	e9 06 02 00 00	 jmp	 $LN1@set_local_
$LN9@set_local_:

; 133  : 		}
; 134  : 		////////////////////////////////////////
; 135  : 		case INT_TYPE_INFINITE_WEAPONS:
; 136  : 		////////////////////////////////////////
; 137  : 		{
; 138  : 			raw->infinite_weapons = value;

  0013b	8b 45 10	 mov	 eax, DWORD PTR _value$[ebp]
  0013e	83 e0 01	 and	 eax, 1
  00141	c1 e0 15	 shl	 eax, 21			; 00000015H
  00144	8b 4d fc	 mov	 ecx, DWORD PTR _raw$[ebp]
  00147	8b 91 a4 00 00
	00		 mov	 edx, DWORD PTR [ecx+164]
  0014d	81 e2 ff ff df
	ff		 and	 edx, -2097153		; ffdfffffH
  00153	0b d0		 or	 edx, eax
  00155	8b 45 fc	 mov	 eax, DWORD PTR _raw$[ebp]
  00158	89 90 a4 00 00
	00		 mov	 DWORD PTR [eax+164], edx

; 139  : 
; 140  : 			break;

  0015e	e9 de 01 00 00	 jmp	 $LN1@set_local_
$LN10@set_local_:

; 141  : 		}
; 142  : 		////////////////////////////////////////
; 143  : 		case INT_TYPE_INVULNERABLE_FROM_COLLISIONS:
; 144  : 		////////////////////////////////////////
; 145  : 		{
; 146  : 			raw->invulnerable_from_collisions = value;

  00163	8b 45 10	 mov	 eax, DWORD PTR _value$[ebp]
  00166	83 e0 01	 and	 eax, 1
  00169	c1 e0 17	 shl	 eax, 23			; 00000017H
  0016c	8b 4d fc	 mov	 ecx, DWORD PTR _raw$[ebp]
  0016f	8b 91 a4 00 00
	00		 mov	 edx, DWORD PTR [ecx+164]
  00175	81 e2 ff ff 7f
	ff		 and	 edx, -8388609		; ff7fffffH
  0017b	0b d0		 or	 edx, eax
  0017d	8b 45 fc	 mov	 eax, DWORD PTR _raw$[ebp]
  00180	89 90 a4 00 00
	00		 mov	 DWORD PTR [eax+164], edx

; 147  : 
; 148  : 			break;

  00186	e9 b6 01 00 00	 jmp	 $LN1@set_local_
$LN11@set_local_:

; 149  : 		}
; 150  : 		////////////////////////////////////////
; 151  : 		case INT_TYPE_INVULNERABLE_FROM_WEAPONS:
; 152  : 		////////////////////////////////////////
; 153  : 		{
; 154  : 			raw->invulnerable_from_weapons = value;

  0018b	8b 45 10	 mov	 eax, DWORD PTR _value$[ebp]
  0018e	83 e0 01	 and	 eax, 1
  00191	c1 e0 18	 shl	 eax, 24			; 00000018H
  00194	8b 4d fc	 mov	 ecx, DWORD PTR _raw$[ebp]
  00197	8b 91 a4 00 00
	00		 mov	 edx, DWORD PTR [ecx+164]
  0019d	81 e2 ff ff ff
	fe		 and	 edx, -16777217		; feffffffH
  001a3	0b d0		 or	 edx, eax
  001a5	8b 45 fc	 mov	 eax, DWORD PTR _raw$[ebp]
  001a8	89 90 a4 00 00
	00		 mov	 DWORD PTR [eax+164], edx

; 155  : 
; 156  : 			break;

  001ae	e9 8e 01 00 00	 jmp	 $LN1@set_local_
$LN12@set_local_:

; 157  : 		}
; 158  : 		////////////////////////////////////////
; 159  : 		case INT_TYPE_LOCAL_WEATHER_MODEL:
; 160  : 		////////////////////////////////////////
; 161  : 		{
; 162  : 			raw->local_weather_model = value;

  001b3	8b 45 10	 mov	 eax, DWORD PTR _value$[ebp]
  001b6	83 e0 01	 and	 eax, 1
  001b9	c1 e0 1d	 shl	 eax, 29			; 0000001dH
  001bc	8b 4d fc	 mov	 ecx, DWORD PTR _raw$[ebp]
  001bf	8b 91 a4 00 00
	00		 mov	 edx, DWORD PTR [ecx+164]
  001c5	81 e2 ff ff ff
	df		 and	 edx, -536870913		; dfffffffH
  001cb	0b d0		 or	 edx, eax
  001cd	8b 45 fc	 mov	 eax, DWORD PTR _raw$[ebp]
  001d0	89 90 a4 00 00
	00		 mov	 DWORD PTR [eax+164], edx

; 163  : 
; 164  : 			break;

  001d6	e9 66 01 00 00	 jmp	 $LN1@set_local_
$LN13@set_local_:

; 165  : 		}
; 166  : 		////////////////////////////////////////
; 167  : 		case INT_TYPE_SESSION_COMPLETE:
; 168  : 		////////////////////////////////////////
; 169  : 		{
; 170  : 			raw->session_complete = value;

  001db	8b 45 10	 mov	 eax, DWORD PTR _value$[ebp]
  001de	83 e0 03	 and	 eax, 3
  001e1	c1 e0 12	 shl	 eax, 18			; 00000012H
  001e4	8b 4d fc	 mov	 ecx, DWORD PTR _raw$[ebp]
  001e7	8b 91 a4 00 00
	00		 mov	 edx, DWORD PTR [ecx+164]
  001ed	81 e2 ff ff f3
	ff		 and	 edx, -786433		; fff3ffffH
  001f3	0b d0		 or	 edx, eax
  001f5	8b 45 fc	 mov	 eax, DWORD PTR _raw$[ebp]
  001f8	89 90 a4 00 00
	00		 mov	 DWORD PTR [eax+164], edx

; 171  : 
; 172  : 			break;

  001fe	e9 3e 01 00 00	 jmp	 $LN1@set_local_
$LN14@set_local_:

; 173  : 		}
; 174  : 		////////////////////////////////////////
; 175  : 		case INT_TYPE_SKIP_NIGHT_TIME:
; 176  : 		////////////////////////////////////////
; 177  : 		{
; 178  : 			raw->skip_night_time = value;

  00203	8b 45 10	 mov	 eax, DWORD PTR _value$[ebp]
  00206	83 e0 01	 and	 eax, 1
  00209	c1 e0 1a	 shl	 eax, 26			; 0000001aH
  0020c	8b 4d fc	 mov	 ecx, DWORD PTR _raw$[ebp]
  0020f	8b 91 a4 00 00
	00		 mov	 edx, DWORD PTR [ecx+164]
  00215	81 e2 ff ff ff
	fb		 and	 edx, -67108865		; fbffffffH
  0021b	0b d0		 or	 edx, eax
  0021d	8b 45 fc	 mov	 eax, DWORD PTR _raw$[ebp]
  00220	89 90 a4 00 00
	00		 mov	 DWORD PTR [eax+164], edx

; 179  : 
; 180  : 			break;

  00226	e9 16 01 00 00	 jmp	 $LN1@set_local_
$LN15@set_local_:

; 181  : 		}
; 182  : 		////////////////////////////////////////
; 183  : 		case INT_TYPE_SUPPRESS_AI_FIRE:
; 184  : 		////////////////////////////////////////
; 185  : 		{
; 186  : 			raw->suppress_ai_fire = value;

  0022b	8b 45 10	 mov	 eax, DWORD PTR _value$[ebp]
  0022e	83 e0 01	 and	 eax, 1
  00231	c1 e0 16	 shl	 eax, 22			; 00000016H
  00234	8b 4d fc	 mov	 ecx, DWORD PTR _raw$[ebp]
  00237	8b 91 a4 00 00
	00		 mov	 edx, DWORD PTR [ecx+164]
  0023d	81 e2 ff ff bf
	ff		 and	 edx, -4194305		; ffbfffffH
  00243	0b d0		 or	 edx, eax
  00245	8b 45 fc	 mov	 eax, DWORD PTR _raw$[ebp]
  00248	89 90 a4 00 00
	00		 mov	 DWORD PTR [eax+164], edx

; 187  : 
; 188  : 			break;

  0024e	e9 ee 00 00 00	 jmp	 $LN1@set_local_
$LN16@set_local_:

; 189  : 		}
; 190  : 		////////////////////////////////////////
; 191  : 		case INT_TYPE_TARGET_WEATHER_MODE:
; 192  : 		////////////////////////////////////////
; 193  : 		{
; 194  : 			raw->target_weather_mode = (weathermodes) value;

  00253	8b 45 fc	 mov	 eax, DWORD PTR _raw$[ebp]
  00256	8b 4d 10	 mov	 ecx, DWORD PTR _value$[ebp]
  00259	89 48 40	 mov	 DWORD PTR [eax+64], ecx

; 195  : 
; 196  : 			break;

  0025c	e9 e0 00 00 00	 jmp	 $LN1@set_local_
$LN17@set_local_:

; 197  : 		}
; 198  : 		////////////////////////////////////////
; 199  : 		case INT_TYPE_VERSION_NUMBER:
; 200  : 		////////////////////////////////////////
; 201  : 		{
; 202  : 			raw->version_number = value;

  00261	8b 45 fc	 mov	 eax, DWORD PTR _raw$[ebp]
  00264	8b 4d 10	 mov	 ecx, DWORD PTR _value$[ebp]
  00267	89 08		 mov	 DWORD PTR [eax], ecx

; 203  : 
; 204  : 			break;

  00269	e9 d3 00 00 00	 jmp	 $LN1@set_local_
$LN18@set_local_:

; 205  : 		}
; 206  : 		////////////////////////////////////////
; 207  : 		case INT_TYPE_WEATHER_INCREASING:
; 208  : 		////////////////////////////////////////
; 209  : 		{
; 210  : 			raw->weather_increasing = value;

  0026e	8b 45 10	 mov	 eax, DWORD PTR _value$[ebp]
  00271	83 e0 01	 and	 eax, 1
  00274	c1 e0 1b	 shl	 eax, 27			; 0000001bH
  00277	8b 4d fc	 mov	 ecx, DWORD PTR _raw$[ebp]
  0027a	8b 91 a4 00 00
	00		 mov	 edx, DWORD PTR [ecx+164]
  00280	81 e2 ff ff ff
	f7		 and	 edx, -134217729		; f7ffffffH
  00286	0b d0		 or	 edx, eax
  00288	8b 45 fc	 mov	 eax, DWORD PTR _raw$[ebp]
  0028b	89 90 a4 00 00
	00		 mov	 DWORD PTR [eax+164], edx

; 211  : 
; 212  : 			break;

  00291	e9 ab 00 00 00	 jmp	 $LN1@set_local_
$LN19@set_local_:

; 213  : 		}
; 214  : 		////////////////////////////////////////
; 215  : 		case INT_TYPE_WEATHER_MODE:
; 216  : 		////////////////////////////////////////
; 217  : 		{
; 218  : 			raw->weather_mode = (weathermodes) value;

  00296	8b 45 fc	 mov	 eax, DWORD PTR _raw$[ebp]
  00299	8b 4d 10	 mov	 ecx, DWORD PTR _value$[ebp]
  0029c	89 48 3c	 mov	 DWORD PTR [eax+60], ecx

; 219  : 
; 220  : 			break;

  0029f	e9 9d 00 00 00	 jmp	 $LN1@set_local_
$LN20@set_local_:

; 221  : 		}
; 222  : 		////////////////////////////////////////
; 223  : 		case INT_TYPE_WIND_INCREASING:
; 224  : 		////////////////////////////////////////
; 225  : 		{
; 226  : 			raw->wind_increasing = value;

  002a4	8b 45 10	 mov	 eax, DWORD PTR _value$[ebp]
  002a7	83 e0 01	 and	 eax, 1
  002aa	c1 e0 1c	 shl	 eax, 28			; 0000001cH
  002ad	8b 4d fc	 mov	 ecx, DWORD PTR _raw$[ebp]
  002b0	8b 91 a4 00 00
	00		 mov	 edx, DWORD PTR [ecx+164]
  002b6	81 e2 ff ff ff
	ef		 and	 edx, -268435457		; efffffffH
  002bc	0b d0		 or	 edx, eax
  002be	8b 45 fc	 mov	 eax, DWORD PTR _raw$[ebp]
  002c1	89 90 a4 00 00
	00		 mov	 DWORD PTR [eax+164], edx

; 227  : 
; 228  : 			break;

  002c7	eb 78		 jmp	 SHORT $LN1@set_local_
$LN21@set_local_:

; 229  : 		}
; 230  : 		////////////////////////////////////////
; 231  : 		default:
; 232  : 		////////////////////////////////////////
; 233  : 		{
; 234  : 			debug_fatal_invalid_int_type (en, type);

  002c9	83 7d 08 00	 cmp	 DWORD PTR _en$[ebp], 0
  002cd	74 0a		 je	 SHORT $LN23@set_local_
  002cf	8b 45 08	 mov	 eax, DWORD PTR _en$[ebp]
  002d2	8b 08		 mov	 ecx, DWORD PTR [eax]
  002d4	89 4d b8	 mov	 DWORD PTR tv200[ebp], ecx
  002d7	eb 24		 jmp	 SHORT $LN24@set_local_
$LN23@set_local_:
  002d9	8b 15 00 00 00
	00		 mov	 edx, DWORD PTR ?__LINE__Var@?0??set_local_int_value@@YGXPAUENTITY@@W4INT_TYPES@@H@Z@4JA
  002df	81 c2 9a 00 00
	00		 add	 edx, 154		; 0000009aH
  002e5	52		 push	 edx
  002e6	68 00 00 00 00	 push	 OFFSET ??_C@_0EM@LAJMLFJL@c?3?2users?2nhv90?2projects?2eech?2ap@
  002eb	a1 00 00 00 00	 mov	 eax, DWORD PTR ?null_entity_pointer_message@@3PBDB ; null_entity_pointer_message
  002f0	50		 push	 eax
  002f1	e8 00 00 00 00	 call	 ?process_assert@@YGXPBD0H@Z ; process_assert
  002f6	c7 45 b8 00 00
	00 00		 mov	 DWORD PTR tv200[ebp], 0
$LN24@set_local_:
  002fd	8b 0d 00 00 00
	00		 mov	 ecx, DWORD PTR ?__LINE__Var@?0??set_local_int_value@@YGXPAUENTITY@@W4INT_TYPES@@H@Z@4JA
  00303	81 c1 9a 00 00
	00		 add	 ecx, 154		; 0000009aH
  00309	51		 push	 ecx
  0030a	68 00 00 00 00	 push	 OFFSET ??_C@_0EM@LAJMLFJL@c?3?2users?2nhv90?2projects?2eech?2ap@
  0030f	6b 55 0c 14	 imul	 edx, DWORD PTR _type$[ebp], 20
  00313	8b 82 00 00 00
	00		 mov	 eax, DWORD PTR ?int_type_database@@3PAUINT_TYPE_DATA@@A[edx]
  00319	50		 push	 eax
  0031a	8b 4d 08	 mov	 ecx, DWORD PTR _en$[ebp]
  0031d	2b 0d 00 00 00
	00		 sub	 ecx, DWORD PTR ?entities@@3PAUENTITY@@A ; entities
  00323	c1 f9 04	 sar	 ecx, 4
  00326	51		 push	 ecx
  00327	6b 55 b8 0c	 imul	 edx, DWORD PTR tv200[ebp], 12
  0032b	8b 82 00 00 00
	00		 mov	 eax, DWORD PTR ?entity_type_database@@3PAUENTITY_TYPE_DATA@@A[edx]
  00331	50		 push	 eax
  00332	8b 0d 00 00 00
	00		 mov	 ecx, DWORD PTR ?debug_fatal_invalid_int_type_message@@3PBDB ; debug_fatal_invalid_int_type_message
  00338	51		 push	 ecx
  00339	e8 00 00 00 00	 call	 ?debug_fatal@@YAXPBDZZ	; debug_fatal
  0033e	83 c4 18	 add	 esp, 24			; 00000018H
$LN1@set_local_:

; 235  : 
; 236  : 			break;
; 237  : 		}
; 238  : 	}
; 239  : }

  00341	5f		 pop	 edi
  00342	5e		 pop	 esi
  00343	5b		 pop	 ebx
  00344	8b e5		 mov	 esp, ebp
  00346	5d		 pop	 ebp
  00347	c2 0c 00	 ret	 12			; 0000000cH
  0034a	66 90		 npad	 2
$LN27@set_local_:
  0034c	00 00 00 00	 DD	 $LN4@set_local_
  00350	00 00 00 00	 DD	 $LN5@set_local_
  00354	00 00 00 00	 DD	 $LN6@set_local_
  00358	00 00 00 00	 DD	 $LN7@set_local_
  0035c	00 00 00 00	 DD	 $LN8@set_local_
  00360	00 00 00 00	 DD	 $LN9@set_local_
  00364	00 00 00 00	 DD	 $LN10@set_local_
  00368	00 00 00 00	 DD	 $LN11@set_local_
  0036c	00 00 00 00	 DD	 $LN12@set_local_
  00370	00 00 00 00	 DD	 $LN13@set_local_
  00374	00 00 00 00	 DD	 $LN14@set_local_
  00378	00 00 00 00	 DD	 $LN15@set_local_
  0037c	00 00 00 00	 DD	 $LN16@set_local_
  00380	00 00 00 00	 DD	 $LN17@set_local_
  00384	00 00 00 00	 DD	 $LN21@set_local_
$LN26@set_local_:
  00388	00		 DB	 0
  00389	0e		 DB	 14			; 0000000eH
  0038a	0e		 DB	 14			; 0000000eH
  0038b	0e		 DB	 14			; 0000000eH
  0038c	0e		 DB	 14			; 0000000eH
  0038d	0e		 DB	 14			; 0000000eH
  0038e	0e		 DB	 14			; 0000000eH
  0038f	0e		 DB	 14			; 0000000eH
  00390	0e		 DB	 14			; 0000000eH
  00391	0e		 DB	 14			; 0000000eH
  00392	01		 DB	 1
  00393	02		 DB	 2
  00394	03		 DB	 3
  00395	0e		 DB	 14			; 0000000eH
  00396	0e		 DB	 14			; 0000000eH
  00397	0e		 DB	 14			; 0000000eH
  00398	0e		 DB	 14			; 0000000eH
  00399	0e		 DB	 14			; 0000000eH
  0039a	0e		 DB	 14			; 0000000eH
  0039b	0e		 DB	 14			; 0000000eH
  0039c	0e		 DB	 14			; 0000000eH
  0039d	0e		 DB	 14			; 0000000eH
  0039e	0e		 DB	 14			; 0000000eH
  0039f	0e		 DB	 14			; 0000000eH
  003a0	0e		 DB	 14			; 0000000eH
  003a1	0e		 DB	 14			; 0000000eH
  003a2	0e		 DB	 14			; 0000000eH
  003a3	0e		 DB	 14			; 0000000eH
  003a4	0e		 DB	 14			; 0000000eH
  003a5	0e		 DB	 14			; 0000000eH
  003a6	0e		 DB	 14			; 0000000eH
  003a7	0e		 DB	 14			; 0000000eH
  003a8	0e		 DB	 14			; 0000000eH
  003a9	0e		 DB	 14			; 0000000eH
  003aa	0e		 DB	 14			; 0000000eH
  003ab	0e		 DB	 14			; 0000000eH
  003ac	0e		 DB	 14			; 0000000eH
  003ad	0e		 DB	 14			; 0000000eH
  003ae	0e		 DB	 14			; 0000000eH
  003af	0e		 DB	 14			; 0000000eH
  003b0	0e		 DB	 14			; 0000000eH
  003b1	0e		 DB	 14			; 0000000eH
  003b2	0e		 DB	 14			; 0000000eH
  003b3	0e		 DB	 14			; 0000000eH
  003b4	0e		 DB	 14			; 0000000eH
  003b5	0e		 DB	 14			; 0000000eH
  003b6	0e		 DB	 14			; 0000000eH
  003b7	0e		 DB	 14			; 0000000eH
  003b8	0e		 DB	 14			; 0000000eH
  003b9	0e		 DB	 14			; 0000000eH
  003ba	0e		 DB	 14			; 0000000eH
  003bb	0e		 DB	 14			; 0000000eH
  003bc	0e		 DB	 14			; 0000000eH
  003bd	0e		 DB	 14			; 0000000eH
  003be	0e		 DB	 14			; 0000000eH
  003bf	0e		 DB	 14			; 0000000eH
  003c0	0e		 DB	 14			; 0000000eH
  003c1	0e		 DB	 14			; 0000000eH
  003c2	0e		 DB	 14			; 0000000eH
  003c3	0e		 DB	 14			; 0000000eH
  003c4	0e		 DB	 14			; 0000000eH
  003c5	0e		 DB	 14			; 0000000eH
  003c6	0e		 DB	 14			; 0000000eH
  003c7	0e		 DB	 14			; 0000000eH
  003c8	0e		 DB	 14			; 0000000eH
  003c9	0e		 DB	 14			; 0000000eH
  003ca	0e		 DB	 14			; 0000000eH
  003cb	0e		 DB	 14			; 0000000eH
  003cc	0e		 DB	 14			; 0000000eH
  003cd	0e		 DB	 14			; 0000000eH
  003ce	0e		 DB	 14			; 0000000eH
  003cf	0e		 DB	 14			; 0000000eH
  003d0	0e		 DB	 14			; 0000000eH
  003d1	0e		 DB	 14			; 0000000eH
  003d2	0e		 DB	 14			; 0000000eH
  003d3	0e		 DB	 14			; 0000000eH
  003d4	0e		 DB	 14			; 0000000eH
  003d5	0e		 DB	 14			; 0000000eH
  003d6	0e		 DB	 14			; 0000000eH
  003d7	0e		 DB	 14			; 0000000eH
  003d8	0e		 DB	 14			; 0000000eH
  003d9	0e		 DB	 14			; 0000000eH
  003da	0e		 DB	 14			; 0000000eH
  003db	0e		 DB	 14			; 0000000eH
  003dc	0e		 DB	 14			; 0000000eH
  003dd	0e		 DB	 14			; 0000000eH
  003de	0e		 DB	 14			; 0000000eH
  003df	0e		 DB	 14			; 0000000eH
  003e0	0e		 DB	 14			; 0000000eH
  003e1	0e		 DB	 14			; 0000000eH
  003e2	04		 DB	 4
  003e3	0e		 DB	 14			; 0000000eH
  003e4	05		 DB	 5
  003e5	0e		 DB	 14			; 0000000eH
  003e6	0e		 DB	 14			; 0000000eH
  003e7	0e		 DB	 14			; 0000000eH
  003e8	06		 DB	 6
  003e9	07		 DB	 7
  003ea	0e		 DB	 14			; 0000000eH
  003eb	0e		 DB	 14			; 0000000eH
  003ec	0e		 DB	 14			; 0000000eH
  003ed	0e		 DB	 14			; 0000000eH
  003ee	0e		 DB	 14			; 0000000eH
  003ef	0e		 DB	 14			; 0000000eH
  003f0	0e		 DB	 14			; 0000000eH
  003f1	0e		 DB	 14			; 0000000eH
  003f2	0e		 DB	 14			; 0000000eH
  003f3	0e		 DB	 14			; 0000000eH
  003f4	0e		 DB	 14			; 0000000eH
  003f5	0e		 DB	 14			; 0000000eH
  003f6	0e		 DB	 14			; 0000000eH
  003f7	0e		 DB	 14			; 0000000eH
  003f8	0e		 DB	 14			; 0000000eH
  003f9	0e		 DB	 14			; 0000000eH
  003fa	08		 DB	 8
  003fb	0e		 DB	 14			; 0000000eH
  003fc	0e		 DB	 14			; 0000000eH
  003fd	0e		 DB	 14			; 0000000eH
  003fe	0e		 DB	 14			; 0000000eH
  003ff	0e		 DB	 14			; 0000000eH
  00400	0e		 DB	 14			; 0000000eH
  00401	0e		 DB	 14			; 0000000eH
  00402	0e		 DB	 14			; 0000000eH
  00403	0e		 DB	 14			; 0000000eH
  00404	0e		 DB	 14			; 0000000eH
  00405	0e		 DB	 14			; 0000000eH
  00406	0e		 DB	 14			; 0000000eH
  00407	0e		 DB	 14			; 0000000eH
  00408	0e		 DB	 14			; 0000000eH
  00409	0e		 DB	 14			; 0000000eH
  0040a	0e		 DB	 14			; 0000000eH
  0040b	0e		 DB	 14			; 0000000eH
  0040c	0e		 DB	 14			; 0000000eH
  0040d	0e		 DB	 14			; 0000000eH
  0040e	0e		 DB	 14			; 0000000eH
  0040f	0e		 DB	 14			; 0000000eH
  00410	0e		 DB	 14			; 0000000eH
  00411	0e		 DB	 14			; 0000000eH
  00412	0e		 DB	 14			; 0000000eH
  00413	0e		 DB	 14			; 0000000eH
  00414	0e		 DB	 14			; 0000000eH
  00415	0e		 DB	 14			; 0000000eH
  00416	0e		 DB	 14			; 0000000eH
  00417	0e		 DB	 14			; 0000000eH
  00418	0e		 DB	 14			; 0000000eH
  00419	0e		 DB	 14			; 0000000eH
  0041a	0e		 DB	 14			; 0000000eH
  0041b	0e		 DB	 14			; 0000000eH
  0041c	0e		 DB	 14			; 0000000eH
  0041d	0e		 DB	 14			; 0000000eH
  0041e	0e		 DB	 14			; 0000000eH
  0041f	0e		 DB	 14			; 0000000eH
  00420	0e		 DB	 14			; 0000000eH
  00421	0e		 DB	 14			; 0000000eH
  00422	0e		 DB	 14			; 0000000eH
  00423	0e		 DB	 14			; 0000000eH
  00424	0e		 DB	 14			; 0000000eH
  00425	0e		 DB	 14			; 0000000eH
  00426	0e		 DB	 14			; 0000000eH
  00427	0e		 DB	 14			; 0000000eH
  00428	0e		 DB	 14			; 0000000eH
  00429	0e		 DB	 14			; 0000000eH
  0042a	0e		 DB	 14			; 0000000eH
  0042b	0e		 DB	 14			; 0000000eH
  0042c	0e		 DB	 14			; 0000000eH
  0042d	0e		 DB	 14			; 0000000eH
  0042e	0e		 DB	 14			; 0000000eH
  0042f	0e		 DB	 14			; 0000000eH
  00430	0e		 DB	 14			; 0000000eH
  00431	0e		 DB	 14			; 0000000eH
  00432	0e		 DB	 14			; 0000000eH
  00433	0e		 DB	 14			; 0000000eH
  00434	0e		 DB	 14			; 0000000eH
  00435	0e		 DB	 14			; 0000000eH
  00436	0e		 DB	 14			; 0000000eH
  00437	09		 DB	 9
  00438	0e		 DB	 14			; 0000000eH
  00439	0a		 DB	 10			; 0000000aH
  0043a	0e		 DB	 14			; 0000000eH
  0043b	0e		 DB	 14			; 0000000eH
  0043c	0e		 DB	 14			; 0000000eH
  0043d	0e		 DB	 14			; 0000000eH
  0043e	0e		 DB	 14			; 0000000eH
  0043f	0e		 DB	 14			; 0000000eH
  00440	0e		 DB	 14			; 0000000eH
  00441	0e		 DB	 14			; 0000000eH
  00442	0e		 DB	 14			; 0000000eH
  00443	0e		 DB	 14			; 0000000eH
  00444	0e		 DB	 14			; 0000000eH
  00445	0e		 DB	 14			; 0000000eH
  00446	0e		 DB	 14			; 0000000eH
  00447	0e		 DB	 14			; 0000000eH
  00448	0e		 DB	 14			; 0000000eH
  00449	0e		 DB	 14			; 0000000eH
  0044a	0e		 DB	 14			; 0000000eH
  0044b	0e		 DB	 14			; 0000000eH
  0044c	0e		 DB	 14			; 0000000eH
  0044d	0b		 DB	 11			; 0000000bH
  0044e	0e		 DB	 14			; 0000000eH
  0044f	0e		 DB	 14			; 0000000eH
  00450	0e		 DB	 14			; 0000000eH
  00451	0e		 DB	 14			; 0000000eH
  00452	0e		 DB	 14			; 0000000eH
  00453	0e		 DB	 14			; 0000000eH
  00454	0c		 DB	 12			; 0000000cH
  00455	0e		 DB	 14			; 0000000eH
  00456	0e		 DB	 14			; 0000000eH
  00457	0e		 DB	 14			; 0000000eH
  00458	0e		 DB	 14			; 0000000eH
  00459	0e		 DB	 14			; 0000000eH
  0045a	0e		 DB	 14			; 0000000eH
  0045b	0e		 DB	 14			; 0000000eH
  0045c	0e		 DB	 14			; 0000000eH
  0045d	0e		 DB	 14			; 0000000eH
  0045e	0e		 DB	 14			; 0000000eH
  0045f	0e		 DB	 14			; 0000000eH
  00460	0e		 DB	 14			; 0000000eH
  00461	0e		 DB	 14			; 0000000eH
  00462	0e		 DB	 14			; 0000000eH
  00463	0e		 DB	 14			; 0000000eH
  00464	0e		 DB	 14			; 0000000eH
  00465	0e		 DB	 14			; 0000000eH
  00466	0e		 DB	 14			; 0000000eH
  00467	0e		 DB	 14			; 0000000eH
  00468	0e		 DB	 14			; 0000000eH
  00469	0e		 DB	 14			; 0000000eH
  0046a	0e		 DB	 14			; 0000000eH
  0046b	0e		 DB	 14			; 0000000eH
  0046c	0e		 DB	 14			; 0000000eH
  0046d	0e		 DB	 14			; 0000000eH
  0046e	0e		 DB	 14			; 0000000eH
  0046f	0e		 DB	 14			; 0000000eH
  00470	0e		 DB	 14			; 0000000eH
  00471	0e		 DB	 14			; 0000000eH
  00472	0d		 DB	 13			; 0000000dH
?set_local_int_value@@YGXPAUENTITY@@W4INT_TYPES@@H@Z ENDP ; set_local_int_value
_TEXT	ENDS
; Function compile flags: /Odtp /ZI
; File c:\users\nhv90\projects\eech\aphavoc\source\entity\special\session\ss_int.c
;	COMDAT ?overload_session_int_value_functions@@YGXXZ
_TEXT	SEGMENT
?overload_session_int_value_functions@@YGXXZ PROC	; overload_session_int_value_functions, COMDAT

; 490  : {

  00000	55		 push	 ebp
  00001	8b ec		 mov	 ebp, esp
  00003	83 ec 40	 sub	 esp, 64			; 00000040H
  00006	53		 push	 ebx
  00007	56		 push	 esi
  00008	57		 push	 edi

; 491  : 	fn_set_local_entity_raw_int_value		[ENTITY_TYPE_SESSION][INT_TYPE_AUTO_ASSIGN_GUNSHIP]													= set_local_int_value;

  00009	b8 5c 04 00 00	 mov	 eax, 1116		; 0000045cH
  0000e	6b c8 1b	 imul	 ecx, eax, 27
  00011	ba 04 00 00 00	 mov	 edx, 4
  00016	6b c2 0b	 imul	 eax, edx, 11
  00019	c7 84 01 00 00
	00 00 00 00 00
	00		 mov	 DWORD PTR ?fn_set_local_entity_raw_int_value@@3PAY0BBH@P6GXPAUENTITY@@W4INT_TYPES@@H@ZA[ecx+eax], OFFSET ?set_local_int_value@@YGXPAUENTITY@@W4INT_TYPES@@H@Z ; set_local_int_value

; 492  : 	fn_set_local_entity_int_value				[ENTITY_TYPE_SESSION][INT_TYPE_AUTO_ASSIGN_GUNSHIP]													= set_local_int_value;

  00024	b8 5c 04 00 00	 mov	 eax, 1116		; 0000045cH
  00029	6b c8 1b	 imul	 ecx, eax, 27
  0002c	ba 04 00 00 00	 mov	 edx, 4
  00031	6b c2 0b	 imul	 eax, edx, 11
  00034	c7 84 01 00 00
	00 00 00 00 00
	00		 mov	 DWORD PTR ?fn_set_local_entity_int_value@@3PAY0BBH@P6GXPAUENTITY@@W4INT_TYPES@@H@ZA[ecx+eax], OFFSET ?set_local_int_value@@YGXPAUENTITY@@W4INT_TYPES@@H@Z ; set_local_int_value

; 493  : 	fn_set_client_server_entity_int_value	[ENTITY_TYPE_SESSION][INT_TYPE_AUTO_ASSIGN_GUNSHIP][COMMS_MODEL_SERVER]						= set_server_int_value;

  0003f	b8 b8 08 00 00	 mov	 eax, 2232		; 000008b8H
  00044	6b c8 1b	 imul	 ecx, eax, 27
  00047	ba 08 00 00 00	 mov	 edx, 8
  0004c	6b c2 0b	 imul	 eax, edx, 11
  0004f	8d 8c 01 00 00
	00 00		 lea	 ecx, DWORD PTR ?fn_set_client_server_entity_int_value@@3PAY1BBH@1P6GXPAUENTITY@@W4INT_TYPES@@H@ZA[ecx+eax]
  00056	ba 04 00 00 00	 mov	 edx, 4
  0005b	6b c2 00	 imul	 eax, edx, 0
  0005e	c7 04 01 00 00
	00 00		 mov	 DWORD PTR [ecx+eax], OFFSET ?set_server_int_value@@YGXPAUENTITY@@W4INT_TYPES@@H@Z ; set_server_int_value

; 494  : 	fn_set_client_server_entity_int_value	[ENTITY_TYPE_SESSION][INT_TYPE_AUTO_ASSIGN_GUNSHIP][COMMS_MODEL_CLIENT]						= set_client_int_value;

  00065	b8 b8 08 00 00	 mov	 eax, 2232		; 000008b8H
  0006a	6b c8 1b	 imul	 ecx, eax, 27
  0006d	ba 08 00 00 00	 mov	 edx, 8
  00072	6b c2 0b	 imul	 eax, edx, 11
  00075	8d 8c 01 00 00
	00 00		 lea	 ecx, DWORD PTR ?fn_set_client_server_entity_int_value@@3PAY1BBH@1P6GXPAUENTITY@@W4INT_TYPES@@H@ZA[ecx+eax]
  0007c	ba 04 00 00 00	 mov	 edx, 4
  00081	c1 e2 00	 shl	 edx, 0
  00084	c7 04 11 00 00
	00 00		 mov	 DWORD PTR [ecx+edx], OFFSET ?set_client_int_value@@YGXPAUENTITY@@W4INT_TYPES@@H@Z ; set_client_int_value

; 495  : 	fn_get_local_entity_int_value				[ENTITY_TYPE_SESSION][INT_TYPE_AUTO_ASSIGN_GUNSHIP]													= get_local_int_value;

  0008b	b8 5c 04 00 00	 mov	 eax, 1116		; 0000045cH
  00090	6b c8 1b	 imul	 ecx, eax, 27
  00093	ba 04 00 00 00	 mov	 edx, 4
  00098	6b c2 0b	 imul	 eax, edx, 11
  0009b	c7 84 01 00 00
	00 00 00 00 00
	00		 mov	 DWORD PTR ?fn_get_local_entity_int_value@@3PAY0BBH@P6GHPAUENTITY@@W4INT_TYPES@@@ZA[ecx+eax], OFFSET ?get_local_int_value@@YGHPAUENTITY@@W4INT_TYPES@@@Z ; get_local_int_value

; 496  : 
; 497  : 	fn_set_local_entity_raw_int_value		[ENTITY_TYPE_SESSION][INT_TYPE_CAMPAIGN_MEDAL]													= set_local_int_value;

  000a6	b8 5c 04 00 00	 mov	 eax, 1116		; 0000045cH
  000ab	6b c8 1b	 imul	 ecx, eax, 27
  000ae	ba 04 00 00 00	 mov	 edx, 4
  000b3	6b c2 15	 imul	 eax, edx, 21
  000b6	c7 84 01 00 00
	00 00 00 00 00
	00		 mov	 DWORD PTR ?fn_set_local_entity_raw_int_value@@3PAY0BBH@P6GXPAUENTITY@@W4INT_TYPES@@H@ZA[ecx+eax], OFFSET ?set_local_int_value@@YGXPAUENTITY@@W4INT_TYPES@@H@Z ; set_local_int_value

; 498  : 	fn_set_local_entity_int_value				[ENTITY_TYPE_SESSION][INT_TYPE_CAMPAIGN_MEDAL]													= set_local_int_value;

  000c1	b8 5c 04 00 00	 mov	 eax, 1116		; 0000045cH
  000c6	6b c8 1b	 imul	 ecx, eax, 27
  000c9	ba 04 00 00 00	 mov	 edx, 4
  000ce	6b c2 15	 imul	 eax, edx, 21
  000d1	c7 84 01 00 00
	00 00 00 00 00
	00		 mov	 DWORD PTR ?fn_set_local_entity_int_value@@3PAY0BBH@P6GXPAUENTITY@@W4INT_TYPES@@H@ZA[ecx+eax], OFFSET ?set_local_int_value@@YGXPAUENTITY@@W4INT_TYPES@@H@Z ; set_local_int_value

; 499  : 	fn_set_client_server_entity_int_value	[ENTITY_TYPE_SESSION][INT_TYPE_CAMPAIGN_MEDAL][COMMS_MODEL_SERVER]						= set_server_int_value;

  000dc	b8 b8 08 00 00	 mov	 eax, 2232		; 000008b8H
  000e1	6b c8 1b	 imul	 ecx, eax, 27
  000e4	ba 08 00 00 00	 mov	 edx, 8
  000e9	6b c2 15	 imul	 eax, edx, 21
  000ec	8d 8c 01 00 00
	00 00		 lea	 ecx, DWORD PTR ?fn_set_client_server_entity_int_value@@3PAY1BBH@1P6GXPAUENTITY@@W4INT_TYPES@@H@ZA[ecx+eax]
  000f3	ba 04 00 00 00	 mov	 edx, 4
  000f8	6b c2 00	 imul	 eax, edx, 0
  000fb	c7 04 01 00 00
	00 00		 mov	 DWORD PTR [ecx+eax], OFFSET ?set_server_int_value@@YGXPAUENTITY@@W4INT_TYPES@@H@Z ; set_server_int_value

; 500  : 	fn_set_client_server_entity_int_value	[ENTITY_TYPE_SESSION][INT_TYPE_CAMPAIGN_MEDAL][COMMS_MODEL_CLIENT]						= set_client_int_value;

  00102	b8 b8 08 00 00	 mov	 eax, 2232		; 000008b8H
  00107	6b c8 1b	 imul	 ecx, eax, 27
  0010a	ba 08 00 00 00	 mov	 edx, 8
  0010f	6b c2 15	 imul	 eax, edx, 21
  00112	8d 8c 01 00 00
	00 00		 lea	 ecx, DWORD PTR ?fn_set_client_server_entity_int_value@@3PAY1BBH@1P6GXPAUENTITY@@W4INT_TYPES@@H@ZA[ecx+eax]
  00119	ba 04 00 00 00	 mov	 edx, 4
  0011e	c1 e2 00	 shl	 edx, 0
  00121	c7 04 11 00 00
	00 00		 mov	 DWORD PTR [ecx+edx], OFFSET ?set_client_int_value@@YGXPAUENTITY@@W4INT_TYPES@@H@Z ; set_client_int_value

; 501  : 	fn_get_local_entity_int_value				[ENTITY_TYPE_SESSION][INT_TYPE_CAMPAIGN_MEDAL]													= get_local_int_value;

  00128	b8 5c 04 00 00	 mov	 eax, 1116		; 0000045cH
  0012d	6b c8 1b	 imul	 ecx, eax, 27
  00130	ba 04 00 00 00	 mov	 edx, 4
  00135	6b c2 15	 imul	 eax, edx, 21
  00138	c7 84 01 00 00
	00 00 00 00 00
	00		 mov	 DWORD PTR ?fn_get_local_entity_int_value@@3PAY0BBH@P6GHPAUENTITY@@W4INT_TYPES@@@ZA[ecx+eax], OFFSET ?get_local_int_value@@YGHPAUENTITY@@W4INT_TYPES@@@Z ; get_local_int_value

; 502  : 
; 503  : 	fn_set_local_entity_raw_int_value		[ENTITY_TYPE_SESSION][INT_TYPE_CAMPAIGN_REQUIRES_APACHE_HAVOC]													= set_local_int_value;

  00143	b8 5c 04 00 00	 mov	 eax, 1116		; 0000045cH
  00148	6b c8 1b	 imul	 ecx, eax, 27
  0014b	ba 04 00 00 00	 mov	 edx, 4
  00150	6b c2 16	 imul	 eax, edx, 22
  00153	c7 84 01 00 00
	00 00 00 00 00
	00		 mov	 DWORD PTR ?fn_set_local_entity_raw_int_value@@3PAY0BBH@P6GXPAUENTITY@@W4INT_TYPES@@H@ZA[ecx+eax], OFFSET ?set_local_int_value@@YGXPAUENTITY@@W4INT_TYPES@@H@Z ; set_local_int_value

; 504  : 	fn_set_local_entity_int_value				[ENTITY_TYPE_SESSION][INT_TYPE_CAMPAIGN_REQUIRES_APACHE_HAVOC]													= set_local_int_value;

  0015e	b8 5c 04 00 00	 mov	 eax, 1116		; 0000045cH
  00163	6b c8 1b	 imul	 ecx, eax, 27
  00166	ba 04 00 00 00	 mov	 edx, 4
  0016b	6b c2 16	 imul	 eax, edx, 22
  0016e	c7 84 01 00 00
	00 00 00 00 00
	00		 mov	 DWORD PTR ?fn_set_local_entity_int_value@@3PAY0BBH@P6GXPAUENTITY@@W4INT_TYPES@@H@ZA[ecx+eax], OFFSET ?set_local_int_value@@YGXPAUENTITY@@W4INT_TYPES@@H@Z ; set_local_int_value

; 505  : 	fn_set_client_server_entity_int_value	[ENTITY_TYPE_SESSION][INT_TYPE_CAMPAIGN_REQUIRES_APACHE_HAVOC][COMMS_MODEL_SERVER]						= set_server_int_value;

  00179	b8 b8 08 00 00	 mov	 eax, 2232		; 000008b8H
  0017e	6b c8 1b	 imul	 ecx, eax, 27
  00181	ba 08 00 00 00	 mov	 edx, 8
  00186	6b c2 16	 imul	 eax, edx, 22
  00189	8d 8c 01 00 00
	00 00		 lea	 ecx, DWORD PTR ?fn_set_client_server_entity_int_value@@3PAY1BBH@1P6GXPAUENTITY@@W4INT_TYPES@@H@ZA[ecx+eax]
  00190	ba 04 00 00 00	 mov	 edx, 4
  00195	6b c2 00	 imul	 eax, edx, 0
  00198	c7 04 01 00 00
	00 00		 mov	 DWORD PTR [ecx+eax], OFFSET ?set_server_int_value@@YGXPAUENTITY@@W4INT_TYPES@@H@Z ; set_server_int_value

; 506  : 	fn_set_client_server_entity_int_value	[ENTITY_TYPE_SESSION][INT_TYPE_CAMPAIGN_REQUIRES_APACHE_HAVOC][COMMS_MODEL_CLIENT]						= set_client_int_value;

  0019f	b8 b8 08 00 00	 mov	 eax, 2232		; 000008b8H
  001a4	6b c8 1b	 imul	 ecx, eax, 27
  001a7	ba 08 00 00 00	 mov	 edx, 8
  001ac	6b c2 16	 imul	 eax, edx, 22
  001af	8d 8c 01 00 00
	00 00		 lea	 ecx, DWORD PTR ?fn_set_client_server_entity_int_value@@3PAY1BBH@1P6GXPAUENTITY@@W4INT_TYPES@@H@ZA[ecx+eax]
  001b6	ba 04 00 00 00	 mov	 edx, 4
  001bb	c1 e2 00	 shl	 edx, 0
  001be	c7 04 11 00 00
	00 00		 mov	 DWORD PTR [ecx+edx], OFFSET ?set_client_int_value@@YGXPAUENTITY@@W4INT_TYPES@@H@Z ; set_client_int_value

; 507  : 	fn_get_local_entity_int_value				[ENTITY_TYPE_SESSION][INT_TYPE_CAMPAIGN_REQUIRES_APACHE_HAVOC]													= get_local_int_value;

  001c5	b8 5c 04 00 00	 mov	 eax, 1116		; 0000045cH
  001ca	6b c8 1b	 imul	 ecx, eax, 27
  001cd	ba 04 00 00 00	 mov	 edx, 4
  001d2	6b c2 16	 imul	 eax, edx, 22
  001d5	c7 84 01 00 00
	00 00 00 00 00
	00		 mov	 DWORD PTR ?fn_get_local_entity_int_value@@3PAY0BBH@P6GHPAUENTITY@@W4INT_TYPES@@@ZA[ecx+eax], OFFSET ?get_local_int_value@@YGHPAUENTITY@@W4INT_TYPES@@@Z ; get_local_int_value

; 508  : 
; 509  : 	fn_set_local_entity_raw_int_value		[ENTITY_TYPE_SESSION][INT_TYPE_CHEATS_ENABLED]									= set_local_int_value;

  001e0	b8 5c 04 00 00	 mov	 eax, 1116		; 0000045cH
  001e5	6b c8 1b	 imul	 ecx, eax, 27
  001e8	ba 04 00 00 00	 mov	 edx, 4
  001ed	6b c2 17	 imul	 eax, edx, 23
  001f0	c7 84 01 00 00
	00 00 00 00 00
	00		 mov	 DWORD PTR ?fn_set_local_entity_raw_int_value@@3PAY0BBH@P6GXPAUENTITY@@W4INT_TYPES@@H@ZA[ecx+eax], OFFSET ?set_local_int_value@@YGXPAUENTITY@@W4INT_TYPES@@H@Z ; set_local_int_value

; 510  : 	fn_set_local_entity_int_value				[ENTITY_TYPE_SESSION][INT_TYPE_CHEATS_ENABLED]									= set_local_int_value;

  001fb	b8 5c 04 00 00	 mov	 eax, 1116		; 0000045cH
  00200	6b c8 1b	 imul	 ecx, eax, 27
  00203	ba 04 00 00 00	 mov	 edx, 4
  00208	6b c2 17	 imul	 eax, edx, 23
  0020b	c7 84 01 00 00
	00 00 00 00 00
	00		 mov	 DWORD PTR ?fn_set_local_entity_int_value@@3PAY0BBH@P6GXPAUENTITY@@W4INT_TYPES@@H@ZA[ecx+eax], OFFSET ?set_local_int_value@@YGXPAUENTITY@@W4INT_TYPES@@H@Z ; set_local_int_value

; 511  : 	fn_set_client_server_entity_int_value	[ENTITY_TYPE_SESSION][INT_TYPE_CHEATS_ENABLED][COMMS_MODEL_SERVER]		= set_server_int_value;

  00216	b8 b8 08 00 00	 mov	 eax, 2232		; 000008b8H
  0021b	6b c8 1b	 imul	 ecx, eax, 27
  0021e	ba 08 00 00 00	 mov	 edx, 8
  00223	6b c2 17	 imul	 eax, edx, 23
  00226	8d 8c 01 00 00
	00 00		 lea	 ecx, DWORD PTR ?fn_set_client_server_entity_int_value@@3PAY1BBH@1P6GXPAUENTITY@@W4INT_TYPES@@H@ZA[ecx+eax]
  0022d	ba 04 00 00 00	 mov	 edx, 4
  00232	6b c2 00	 imul	 eax, edx, 0
  00235	c7 04 01 00 00
	00 00		 mov	 DWORD PTR [ecx+eax], OFFSET ?set_server_int_value@@YGXPAUENTITY@@W4INT_TYPES@@H@Z ; set_server_int_value

; 512  : 	fn_set_client_server_entity_int_value	[ENTITY_TYPE_SESSION][INT_TYPE_CHEATS_ENABLED][COMMS_MODEL_CLIENT]		= set_client_int_value;

  0023c	b8 b8 08 00 00	 mov	 eax, 2232		; 000008b8H
  00241	6b c8 1b	 imul	 ecx, eax, 27
  00244	ba 08 00 00 00	 mov	 edx, 8
  00249	6b c2 17	 imul	 eax, edx, 23
  0024c	8d 8c 01 00 00
	00 00		 lea	 ecx, DWORD PTR ?fn_set_client_server_entity_int_value@@3PAY1BBH@1P6GXPAUENTITY@@W4INT_TYPES@@H@ZA[ecx+eax]
  00253	ba 04 00 00 00	 mov	 edx, 4
  00258	c1 e2 00	 shl	 edx, 0
  0025b	c7 04 11 00 00
	00 00		 mov	 DWORD PTR [ecx+edx], OFFSET ?set_client_int_value@@YGXPAUENTITY@@W4INT_TYPES@@H@Z ; set_client_int_value

; 513  : 	fn_get_local_entity_int_value				[ENTITY_TYPE_SESSION][INT_TYPE_CHEATS_ENABLED]									= get_local_int_value;

  00262	b8 5c 04 00 00	 mov	 eax, 1116		; 0000045cH
  00267	6b c8 1b	 imul	 ecx, eax, 27
  0026a	ba 04 00 00 00	 mov	 edx, 4
  0026f	6b c2 17	 imul	 eax, edx, 23
  00272	c7 84 01 00 00
	00 00 00 00 00
	00		 mov	 DWORD PTR ?fn_get_local_entity_int_value@@3PAY0BBH@P6GHPAUENTITY@@W4INT_TYPES@@@ZA[ecx+eax], OFFSET ?get_local_int_value@@YGHPAUENTITY@@W4INT_TYPES@@@Z ; get_local_int_value

; 514  : 
; 515  : 	fn_get_local_entity_int_value				[ENTITY_TYPE_SESSION][INT_TYPE_DAY]													= get_local_int_value;

  0027d	b8 5c 04 00 00	 mov	 eax, 1116		; 0000045cH
  00282	6b c8 1b	 imul	 ecx, eax, 27
  00285	ba 04 00 00 00	 mov	 edx, 4
  0028a	6b c2 26	 imul	 eax, edx, 38
  0028d	c7 84 01 00 00
	00 00 00 00 00
	00		 mov	 DWORD PTR ?fn_get_local_entity_int_value@@3PAY0BBH@P6GHPAUENTITY@@W4INT_TYPES@@@ZA[ecx+eax], OFFSET ?get_local_int_value@@YGHPAUENTITY@@W4INT_TYPES@@@Z ; get_local_int_value

; 516  : 
; 517  : 	fn_get_local_entity_int_value				[ENTITY_TYPE_SESSION][INT_TYPE_DAY_SEGMENT_TYPE]								= get_local_int_value;

  00298	b8 5c 04 00 00	 mov	 eax, 1116		; 0000045cH
  0029d	6b c8 1b	 imul	 ecx, eax, 27
  002a0	ba 04 00 00 00	 mov	 edx, 4
  002a5	6b c2 27	 imul	 eax, edx, 39
  002a8	c7 84 01 00 00
	00 00 00 00 00
	00		 mov	 DWORD PTR ?fn_get_local_entity_int_value@@3PAY0BBH@P6GHPAUENTITY@@W4INT_TYPES@@@ZA[ecx+eax], OFFSET ?get_local_int_value@@YGHPAUENTITY@@W4INT_TYPES@@@Z ; get_local_int_value

; 518  : 
; 519  : 	fn_set_local_entity_raw_int_value		[ENTITY_TYPE_SESSION][INT_TYPE_INFINITE_FUEL]				 					= set_local_int_value;

  002b3	b8 5c 04 00 00	 mov	 eax, 1116		; 0000045cH
  002b8	6b c8 1b	 imul	 ecx, eax, 27
  002bb	ba 04 00 00 00	 mov	 edx, 4
  002c0	6b c2 65	 imul	 eax, edx, 101
  002c3	c7 84 01 00 00
	00 00 00 00 00
	00		 mov	 DWORD PTR ?fn_set_local_entity_raw_int_value@@3PAY0BBH@P6GXPAUENTITY@@W4INT_TYPES@@H@ZA[ecx+eax], OFFSET ?set_local_int_value@@YGXPAUENTITY@@W4INT_TYPES@@H@Z ; set_local_int_value

; 520  : 	fn_set_local_entity_int_value				[ENTITY_TYPE_SESSION][INT_TYPE_INFINITE_FUEL]					  				= set_local_int_value;

  002ce	b8 5c 04 00 00	 mov	 eax, 1116		; 0000045cH
  002d3	6b c8 1b	 imul	 ecx, eax, 27
  002d6	ba 04 00 00 00	 mov	 edx, 4
  002db	6b c2 65	 imul	 eax, edx, 101
  002de	c7 84 01 00 00
	00 00 00 00 00
	00		 mov	 DWORD PTR ?fn_set_local_entity_int_value@@3PAY0BBH@P6GXPAUENTITY@@W4INT_TYPES@@H@ZA[ecx+eax], OFFSET ?set_local_int_value@@YGXPAUENTITY@@W4INT_TYPES@@H@Z ; set_local_int_value

; 521  : 	fn_set_client_server_entity_int_value	[ENTITY_TYPE_SESSION][INT_TYPE_INFINITE_FUEL][COMMS_MODEL_SERVER]			= set_server_int_value;

  002e9	b8 b8 08 00 00	 mov	 eax, 2232		; 000008b8H
  002ee	6b c8 1b	 imul	 ecx, eax, 27
  002f1	ba 08 00 00 00	 mov	 edx, 8
  002f6	6b c2 65	 imul	 eax, edx, 101
  002f9	8d 8c 01 00 00
	00 00		 lea	 ecx, DWORD PTR ?fn_set_client_server_entity_int_value@@3PAY1BBH@1P6GXPAUENTITY@@W4INT_TYPES@@H@ZA[ecx+eax]
  00300	ba 04 00 00 00	 mov	 edx, 4
  00305	6b c2 00	 imul	 eax, edx, 0
  00308	c7 04 01 00 00
	00 00		 mov	 DWORD PTR [ecx+eax], OFFSET ?set_server_int_value@@YGXPAUENTITY@@W4INT_TYPES@@H@Z ; set_server_int_value

; 522  : 	fn_set_client_server_entity_int_value	[ENTITY_TYPE_SESSION][INT_TYPE_INFINITE_FUEL][COMMS_MODEL_CLIENT]			= set_client_int_value;

  0030f	b8 b8 08 00 00	 mov	 eax, 2232		; 000008b8H
  00314	6b c8 1b	 imul	 ecx, eax, 27
  00317	ba 08 00 00 00	 mov	 edx, 8
  0031c	6b c2 65	 imul	 eax, edx, 101
  0031f	8d 8c 01 00 00
	00 00		 lea	 ecx, DWORD PTR ?fn_set_client_server_entity_int_value@@3PAY1BBH@1P6GXPAUENTITY@@W4INT_TYPES@@H@ZA[ecx+eax]
  00326	ba 04 00 00 00	 mov	 edx, 4
  0032b	c1 e2 00	 shl	 edx, 0
  0032e	c7 04 11 00 00
	00 00		 mov	 DWORD PTR [ecx+edx], OFFSET ?set_client_int_value@@YGXPAUENTITY@@W4INT_TYPES@@H@Z ; set_client_int_value

; 523  : 	fn_get_local_entity_int_value				[ENTITY_TYPE_SESSION][INT_TYPE_INFINITE_FUEL]							  		= get_local_int_value;

  00335	b8 5c 04 00 00	 mov	 eax, 1116		; 0000045cH
  0033a	6b c8 1b	 imul	 ecx, eax, 27
  0033d	ba 04 00 00 00	 mov	 edx, 4
  00342	6b c2 65	 imul	 eax, edx, 101
  00345	c7 84 01 00 00
	00 00 00 00 00
	00		 mov	 DWORD PTR ?fn_get_local_entity_int_value@@3PAY0BBH@P6GHPAUENTITY@@W4INT_TYPES@@@ZA[ecx+eax], OFFSET ?get_local_int_value@@YGHPAUENTITY@@W4INT_TYPES@@@Z ; get_local_int_value

; 524  : 
; 525  : 	fn_set_local_entity_raw_int_value		[ENTITY_TYPE_SESSION][INT_TYPE_INFINITE_WEAPONS]								= set_local_int_value;

  00350	b8 5c 04 00 00	 mov	 eax, 1116		; 0000045cH
  00355	6b c8 1b	 imul	 ecx, eax, 27
  00358	ba 04 00 00 00	 mov	 edx, 4
  0035d	6b c2 67	 imul	 eax, edx, 103
  00360	c7 84 01 00 00
	00 00 00 00 00
	00		 mov	 DWORD PTR ?fn_set_local_entity_raw_int_value@@3PAY0BBH@P6GXPAUENTITY@@W4INT_TYPES@@H@ZA[ecx+eax], OFFSET ?set_local_int_value@@YGXPAUENTITY@@W4INT_TYPES@@H@Z ; set_local_int_value

; 526  : 	fn_set_local_entity_int_value				[ENTITY_TYPE_SESSION][INT_TYPE_INFINITE_WEAPONS]								= set_local_int_value;

  0036b	b8 5c 04 00 00	 mov	 eax, 1116		; 0000045cH
  00370	6b c8 1b	 imul	 ecx, eax, 27
  00373	ba 04 00 00 00	 mov	 edx, 4
  00378	6b c2 67	 imul	 eax, edx, 103
  0037b	c7 84 01 00 00
	00 00 00 00 00
	00		 mov	 DWORD PTR ?fn_set_local_entity_int_value@@3PAY0BBH@P6GXPAUENTITY@@W4INT_TYPES@@H@ZA[ecx+eax], OFFSET ?set_local_int_value@@YGXPAUENTITY@@W4INT_TYPES@@H@Z ; set_local_int_value

; 527  : 	fn_set_client_server_entity_int_value	[ENTITY_TYPE_SESSION][INT_TYPE_INFINITE_WEAPONS][COMMS_MODEL_SERVER]		= set_server_int_value;

  00386	b8 b8 08 00 00	 mov	 eax, 2232		; 000008b8H
  0038b	6b c8 1b	 imul	 ecx, eax, 27
  0038e	ba 08 00 00 00	 mov	 edx, 8
  00393	6b c2 67	 imul	 eax, edx, 103
  00396	8d 8c 01 00 00
	00 00		 lea	 ecx, DWORD PTR ?fn_set_client_server_entity_int_value@@3PAY1BBH@1P6GXPAUENTITY@@W4INT_TYPES@@H@ZA[ecx+eax]
  0039d	ba 04 00 00 00	 mov	 edx, 4
  003a2	6b c2 00	 imul	 eax, edx, 0
  003a5	c7 04 01 00 00
	00 00		 mov	 DWORD PTR [ecx+eax], OFFSET ?set_server_int_value@@YGXPAUENTITY@@W4INT_TYPES@@H@Z ; set_server_int_value

; 528  : 	fn_set_client_server_entity_int_value	[ENTITY_TYPE_SESSION][INT_TYPE_INFINITE_WEAPONS][COMMS_MODEL_CLIENT]		= set_client_int_value;

  003ac	b8 b8 08 00 00	 mov	 eax, 2232		; 000008b8H
  003b1	6b c8 1b	 imul	 ecx, eax, 27
  003b4	ba 08 00 00 00	 mov	 edx, 8
  003b9	6b c2 67	 imul	 eax, edx, 103
  003bc	8d 8c 01 00 00
	00 00		 lea	 ecx, DWORD PTR ?fn_set_client_server_entity_int_value@@3PAY1BBH@1P6GXPAUENTITY@@W4INT_TYPES@@H@ZA[ecx+eax]
  003c3	ba 04 00 00 00	 mov	 edx, 4
  003c8	c1 e2 00	 shl	 edx, 0
  003cb	c7 04 11 00 00
	00 00		 mov	 DWORD PTR [ecx+edx], OFFSET ?set_client_int_value@@YGXPAUENTITY@@W4INT_TYPES@@H@Z ; set_client_int_value

; 529  : 	fn_get_local_entity_int_value				[ENTITY_TYPE_SESSION][INT_TYPE_INFINITE_WEAPONS]								= get_local_int_value;

  003d2	b8 5c 04 00 00	 mov	 eax, 1116		; 0000045cH
  003d7	6b c8 1b	 imul	 ecx, eax, 27
  003da	ba 04 00 00 00	 mov	 edx, 4
  003df	6b c2 67	 imul	 eax, edx, 103
  003e2	c7 84 01 00 00
	00 00 00 00 00
	00		 mov	 DWORD PTR ?fn_get_local_entity_int_value@@3PAY0BBH@P6GHPAUENTITY@@W4INT_TYPES@@@ZA[ecx+eax], OFFSET ?get_local_int_value@@YGHPAUENTITY@@W4INT_TYPES@@@Z ; get_local_int_value

; 530  : 
; 531  : 	fn_set_local_entity_raw_int_value		[ENTITY_TYPE_SESSION][INT_TYPE_INVULNERABLE_FROM_COLLISIONS]										= set_local_int_value;

  003ed	b8 5c 04 00 00	 mov	 eax, 1116		; 0000045cH
  003f2	6b c8 1b	 imul	 ecx, eax, 27
  003f5	ba 04 00 00 00	 mov	 edx, 4
  003fa	6b c2 6b	 imul	 eax, edx, 107
  003fd	c7 84 01 00 00
	00 00 00 00 00
	00		 mov	 DWORD PTR ?fn_set_local_entity_raw_int_value@@3PAY0BBH@P6GXPAUENTITY@@W4INT_TYPES@@H@ZA[ecx+eax], OFFSET ?set_local_int_value@@YGXPAUENTITY@@W4INT_TYPES@@H@Z ; set_local_int_value

; 532  : 	fn_set_local_entity_int_value				[ENTITY_TYPE_SESSION][INT_TYPE_INVULNERABLE_FROM_COLLISIONS]										= set_local_int_value;

  00408	b8 5c 04 00 00	 mov	 eax, 1116		; 0000045cH
  0040d	6b c8 1b	 imul	 ecx, eax, 27
  00410	ba 04 00 00 00	 mov	 edx, 4
  00415	6b c2 6b	 imul	 eax, edx, 107
  00418	c7 84 01 00 00
	00 00 00 00 00
	00		 mov	 DWORD PTR ?fn_set_local_entity_int_value@@3PAY0BBH@P6GXPAUENTITY@@W4INT_TYPES@@H@ZA[ecx+eax], OFFSET ?set_local_int_value@@YGXPAUENTITY@@W4INT_TYPES@@H@Z ; set_local_int_value

; 533  : 	fn_set_client_server_entity_int_value	[ENTITY_TYPE_SESSION][INT_TYPE_INVULNERABLE_FROM_COLLISIONS][COMMS_MODEL_SERVER]			= set_server_int_value;

  00423	b8 b8 08 00 00	 mov	 eax, 2232		; 000008b8H
  00428	6b c8 1b	 imul	 ecx, eax, 27
  0042b	ba 08 00 00 00	 mov	 edx, 8
  00430	6b c2 6b	 imul	 eax, edx, 107
  00433	8d 8c 01 00 00
	00 00		 lea	 ecx, DWORD PTR ?fn_set_client_server_entity_int_value@@3PAY1BBH@1P6GXPAUENTITY@@W4INT_TYPES@@H@ZA[ecx+eax]
  0043a	ba 04 00 00 00	 mov	 edx, 4
  0043f	6b c2 00	 imul	 eax, edx, 0
  00442	c7 04 01 00 00
	00 00		 mov	 DWORD PTR [ecx+eax], OFFSET ?set_server_int_value@@YGXPAUENTITY@@W4INT_TYPES@@H@Z ; set_server_int_value

; 534  : 	fn_set_client_server_entity_int_value	[ENTITY_TYPE_SESSION][INT_TYPE_INVULNERABLE_FROM_COLLISIONS][COMMS_MODEL_CLIENT]			= set_client_int_value;

  00449	b8 b8 08 00 00	 mov	 eax, 2232		; 000008b8H
  0044e	6b c8 1b	 imul	 ecx, eax, 27
  00451	ba 08 00 00 00	 mov	 edx, 8
  00456	6b c2 6b	 imul	 eax, edx, 107
  00459	8d 8c 01 00 00
	00 00		 lea	 ecx, DWORD PTR ?fn_set_client_server_entity_int_value@@3PAY1BBH@1P6GXPAUENTITY@@W4INT_TYPES@@H@ZA[ecx+eax]
  00460	ba 04 00 00 00	 mov	 edx, 4
  00465	c1 e2 00	 shl	 edx, 0
  00468	c7 04 11 00 00
	00 00		 mov	 DWORD PTR [ecx+edx], OFFSET ?set_client_int_value@@YGXPAUENTITY@@W4INT_TYPES@@H@Z ; set_client_int_value

; 535  : 	fn_get_local_entity_int_value				[ENTITY_TYPE_SESSION][INT_TYPE_INVULNERABLE_FROM_COLLISIONS]										= get_local_int_value;

  0046f	b8 5c 04 00 00	 mov	 eax, 1116		; 0000045cH
  00474	6b c8 1b	 imul	 ecx, eax, 27
  00477	ba 04 00 00 00	 mov	 edx, 4
  0047c	6b c2 6b	 imul	 eax, edx, 107
  0047f	c7 84 01 00 00
	00 00 00 00 00
	00		 mov	 DWORD PTR ?fn_get_local_entity_int_value@@3PAY0BBH@P6GHPAUENTITY@@W4INT_TYPES@@@ZA[ecx+eax], OFFSET ?get_local_int_value@@YGHPAUENTITY@@W4INT_TYPES@@@Z ; get_local_int_value

; 536  : 
; 537  : 	fn_set_local_entity_raw_int_value		[ENTITY_TYPE_SESSION][INT_TYPE_INVULNERABLE_FROM_WEAPONS]										= set_local_int_value;

  0048a	b8 5c 04 00 00	 mov	 eax, 1116		; 0000045cH
  0048f	6b c8 1b	 imul	 ecx, eax, 27
  00492	ba 04 00 00 00	 mov	 edx, 4
  00497	6b c2 6c	 imul	 eax, edx, 108
  0049a	c7 84 01 00 00
	00 00 00 00 00
	00		 mov	 DWORD PTR ?fn_set_local_entity_raw_int_value@@3PAY0BBH@P6GXPAUENTITY@@W4INT_TYPES@@H@ZA[ecx+eax], OFFSET ?set_local_int_value@@YGXPAUENTITY@@W4INT_TYPES@@H@Z ; set_local_int_value

; 538  : 	fn_set_local_entity_int_value				[ENTITY_TYPE_SESSION][INT_TYPE_INVULNERABLE_FROM_WEAPONS]										= set_local_int_value;

  004a5	b8 5c 04 00 00	 mov	 eax, 1116		; 0000045cH
  004aa	6b c8 1b	 imul	 ecx, eax, 27
  004ad	ba 04 00 00 00	 mov	 edx, 4
  004b2	6b c2 6c	 imul	 eax, edx, 108
  004b5	c7 84 01 00 00
	00 00 00 00 00
	00		 mov	 DWORD PTR ?fn_set_local_entity_int_value@@3PAY0BBH@P6GXPAUENTITY@@W4INT_TYPES@@H@ZA[ecx+eax], OFFSET ?set_local_int_value@@YGXPAUENTITY@@W4INT_TYPES@@H@Z ; set_local_int_value

; 539  : 	fn_set_client_server_entity_int_value	[ENTITY_TYPE_SESSION][INT_TYPE_INVULNERABLE_FROM_WEAPONS][COMMS_MODEL_SERVER]			= set_server_int_value;

  004c0	b8 b8 08 00 00	 mov	 eax, 2232		; 000008b8H
  004c5	6b c8 1b	 imul	 ecx, eax, 27
  004c8	ba 08 00 00 00	 mov	 edx, 8
  004cd	6b c2 6c	 imul	 eax, edx, 108
  004d0	8d 8c 01 00 00
	00 00		 lea	 ecx, DWORD PTR ?fn_set_client_server_entity_int_value@@3PAY1BBH@1P6GXPAUENTITY@@W4INT_TYPES@@H@ZA[ecx+eax]
  004d7	ba 04 00 00 00	 mov	 edx, 4
  004dc	6b c2 00	 imul	 eax, edx, 0
  004df	c7 04 01 00 00
	00 00		 mov	 DWORD PTR [ecx+eax], OFFSET ?set_server_int_value@@YGXPAUENTITY@@W4INT_TYPES@@H@Z ; set_server_int_value

; 540  : 	fn_set_client_server_entity_int_value	[ENTITY_TYPE_SESSION][INT_TYPE_INVULNERABLE_FROM_WEAPONS][COMMS_MODEL_CLIENT]			= set_client_int_value;

  004e6	b8 b8 08 00 00	 mov	 eax, 2232		; 000008b8H
  004eb	6b c8 1b	 imul	 ecx, eax, 27
  004ee	ba 08 00 00 00	 mov	 edx, 8
  004f3	6b c2 6c	 imul	 eax, edx, 108
  004f6	8d 8c 01 00 00
	00 00		 lea	 ecx, DWORD PTR ?fn_set_client_server_entity_int_value@@3PAY1BBH@1P6GXPAUENTITY@@W4INT_TYPES@@H@ZA[ecx+eax]
  004fd	ba 04 00 00 00	 mov	 edx, 4
  00502	c1 e2 00	 shl	 edx, 0
  00505	c7 04 11 00 00
	00 00		 mov	 DWORD PTR [ecx+edx], OFFSET ?set_client_int_value@@YGXPAUENTITY@@W4INT_TYPES@@H@Z ; set_client_int_value

; 541  : 	fn_get_local_entity_int_value				[ENTITY_TYPE_SESSION][INT_TYPE_INVULNERABLE_FROM_WEAPONS]										= get_local_int_value;

  0050c	b8 5c 04 00 00	 mov	 eax, 1116		; 0000045cH
  00511	6b c8 1b	 imul	 ecx, eax, 27
  00514	ba 04 00 00 00	 mov	 edx, 4
  00519	6b c2 6c	 imul	 eax, edx, 108
  0051c	c7 84 01 00 00
	00 00 00 00 00
	00		 mov	 DWORD PTR ?fn_get_local_entity_int_value@@3PAY0BBH@P6GHPAUENTITY@@W4INT_TYPES@@@ZA[ecx+eax], OFFSET ?get_local_int_value@@YGHPAUENTITY@@W4INT_TYPES@@@Z ; get_local_int_value

; 542  : 
; 543  : 	fn_set_local_entity_raw_int_value		[ENTITY_TYPE_SESSION][INT_TYPE_LOCAL_WEATHER_MODEL]							= set_local_int_value;

  00527	b8 5c 04 00 00	 mov	 eax, 1116		; 0000045cH
  0052c	6b c8 1b	 imul	 ecx, eax, 27
  0052f	ba 04 00 00 00	 mov	 edx, 4
  00534	6b c2 7d	 imul	 eax, edx, 125
  00537	c7 84 01 00 00
	00 00 00 00 00
	00		 mov	 DWORD PTR ?fn_set_local_entity_raw_int_value@@3PAY0BBH@P6GXPAUENTITY@@W4INT_TYPES@@H@ZA[ecx+eax], OFFSET ?set_local_int_value@@YGXPAUENTITY@@W4INT_TYPES@@H@Z ; set_local_int_value

; 544  : 	fn_set_local_entity_int_value				[ENTITY_TYPE_SESSION][INT_TYPE_LOCAL_WEATHER_MODEL]							= set_local_int_value;

  00542	b8 5c 04 00 00	 mov	 eax, 1116		; 0000045cH
  00547	6b c8 1b	 imul	 ecx, eax, 27
  0054a	ba 04 00 00 00	 mov	 edx, 4
  0054f	6b c2 7d	 imul	 eax, edx, 125
  00552	c7 84 01 00 00
	00 00 00 00 00
	00		 mov	 DWORD PTR ?fn_set_local_entity_int_value@@3PAY0BBH@P6GXPAUENTITY@@W4INT_TYPES@@H@ZA[ecx+eax], OFFSET ?set_local_int_value@@YGXPAUENTITY@@W4INT_TYPES@@H@Z ; set_local_int_value

; 545  : 	fn_set_client_server_entity_int_value	[ENTITY_TYPE_SESSION][INT_TYPE_LOCAL_WEATHER_MODEL][COMMS_MODEL_SERVER]	= set_server_int_value;

  0055d	b8 b8 08 00 00	 mov	 eax, 2232		; 000008b8H
  00562	6b c8 1b	 imul	 ecx, eax, 27
  00565	ba 08 00 00 00	 mov	 edx, 8
  0056a	6b c2 7d	 imul	 eax, edx, 125
  0056d	8d 8c 01 00 00
	00 00		 lea	 ecx, DWORD PTR ?fn_set_client_server_entity_int_value@@3PAY1BBH@1P6GXPAUENTITY@@W4INT_TYPES@@H@ZA[ecx+eax]
  00574	ba 04 00 00 00	 mov	 edx, 4
  00579	6b c2 00	 imul	 eax, edx, 0
  0057c	c7 04 01 00 00
	00 00		 mov	 DWORD PTR [ecx+eax], OFFSET ?set_server_int_value@@YGXPAUENTITY@@W4INT_TYPES@@H@Z ; set_server_int_value

; 546  : 	fn_set_client_server_entity_int_value	[ENTITY_TYPE_SESSION][INT_TYPE_LOCAL_WEATHER_MODEL][COMMS_MODEL_CLIENT]	= set_client_int_value;

  00583	b8 b8 08 00 00	 mov	 eax, 2232		; 000008b8H
  00588	6b c8 1b	 imul	 ecx, eax, 27
  0058b	ba 08 00 00 00	 mov	 edx, 8
  00590	6b c2 7d	 imul	 eax, edx, 125
  00593	8d 8c 01 00 00
	00 00		 lea	 ecx, DWORD PTR ?fn_set_client_server_entity_int_value@@3PAY1BBH@1P6GXPAUENTITY@@W4INT_TYPES@@H@ZA[ecx+eax]
  0059a	ba 04 00 00 00	 mov	 edx, 4
  0059f	c1 e2 00	 shl	 edx, 0
  005a2	c7 04 11 00 00
	00 00		 mov	 DWORD PTR [ecx+edx], OFFSET ?set_client_int_value@@YGXPAUENTITY@@W4INT_TYPES@@H@Z ; set_client_int_value

; 547  : 	fn_get_local_entity_int_value				[ENTITY_TYPE_SESSION][INT_TYPE_LOCAL_WEATHER_MODEL]							= get_local_int_value;

  005a9	b8 5c 04 00 00	 mov	 eax, 1116		; 0000045cH
  005ae	6b c8 1b	 imul	 ecx, eax, 27
  005b1	ba 04 00 00 00	 mov	 edx, 4
  005b6	6b c2 7d	 imul	 eax, edx, 125
  005b9	c7 84 01 00 00
	00 00 00 00 00
	00		 mov	 DWORD PTR ?fn_get_local_entity_int_value@@3PAY0BBH@P6GHPAUENTITY@@W4INT_TYPES@@@ZA[ecx+eax], OFFSET ?get_local_int_value@@YGHPAUENTITY@@W4INT_TYPES@@@Z ; get_local_int_value

; 548  : 
; 549  : 	fn_set_local_entity_raw_int_value		[ENTITY_TYPE_SESSION][INT_TYPE_SESSION_COMPLETE]								= set_local_int_value;

  005c4	b8 5c 04 00 00	 mov	 eax, 1116		; 0000045cH
  005c9	6b c8 1b	 imul	 ecx, eax, 27
  005cc	ba 04 00 00 00	 mov	 edx, 4
  005d1	69 c2 ba 00 00
	00		 imul	 eax, edx, 186
  005d7	c7 84 01 00 00
	00 00 00 00 00
	00		 mov	 DWORD PTR ?fn_set_local_entity_raw_int_value@@3PAY0BBH@P6GXPAUENTITY@@W4INT_TYPES@@H@ZA[ecx+eax], OFFSET ?set_local_int_value@@YGXPAUENTITY@@W4INT_TYPES@@H@Z ; set_local_int_value

; 550  : 	fn_set_local_entity_int_value				[ENTITY_TYPE_SESSION][INT_TYPE_SESSION_COMPLETE]								= set_local_int_value;

  005e2	b8 5c 04 00 00	 mov	 eax, 1116		; 0000045cH
  005e7	6b c8 1b	 imul	 ecx, eax, 27
  005ea	ba 04 00 00 00	 mov	 edx, 4
  005ef	69 c2 ba 00 00
	00		 imul	 eax, edx, 186
  005f5	c7 84 01 00 00
	00 00 00 00 00
	00		 mov	 DWORD PTR ?fn_set_local_entity_int_value@@3PAY0BBH@P6GXPAUENTITY@@W4INT_TYPES@@H@ZA[ecx+eax], OFFSET ?set_local_int_value@@YGXPAUENTITY@@W4INT_TYPES@@H@Z ; set_local_int_value

; 551  : 	fn_set_client_server_entity_int_value	[ENTITY_TYPE_SESSION][INT_TYPE_SESSION_COMPLETE][COMMS_MODEL_SERVER]		= set_server_int_value;

  00600	b8 b8 08 00 00	 mov	 eax, 2232		; 000008b8H
  00605	6b c8 1b	 imul	 ecx, eax, 27
  00608	ba 08 00 00 00	 mov	 edx, 8
  0060d	69 c2 ba 00 00
	00		 imul	 eax, edx, 186
  00613	8d 8c 01 00 00
	00 00		 lea	 ecx, DWORD PTR ?fn_set_client_server_entity_int_value@@3PAY1BBH@1P6GXPAUENTITY@@W4INT_TYPES@@H@ZA[ecx+eax]
  0061a	ba 04 00 00 00	 mov	 edx, 4
  0061f	6b c2 00	 imul	 eax, edx, 0
  00622	c7 04 01 00 00
	00 00		 mov	 DWORD PTR [ecx+eax], OFFSET ?set_server_int_value@@YGXPAUENTITY@@W4INT_TYPES@@H@Z ; set_server_int_value

; 552  : 	fn_set_client_server_entity_int_value	[ENTITY_TYPE_SESSION][INT_TYPE_SESSION_COMPLETE][COMMS_MODEL_CLIENT]		= set_client_int_value;

  00629	b8 b8 08 00 00	 mov	 eax, 2232		; 000008b8H
  0062e	6b c8 1b	 imul	 ecx, eax, 27
  00631	ba 08 00 00 00	 mov	 edx, 8
  00636	69 c2 ba 00 00
	00		 imul	 eax, edx, 186
  0063c	8d 8c 01 00 00
	00 00		 lea	 ecx, DWORD PTR ?fn_set_client_server_entity_int_value@@3PAY1BBH@1P6GXPAUENTITY@@W4INT_TYPES@@H@ZA[ecx+eax]
  00643	ba 04 00 00 00	 mov	 edx, 4
  00648	c1 e2 00	 shl	 edx, 0
  0064b	c7 04 11 00 00
	00 00		 mov	 DWORD PTR [ecx+edx], OFFSET ?set_client_int_value@@YGXPAUENTITY@@W4INT_TYPES@@H@Z ; set_client_int_value

; 553  : 	fn_get_local_entity_int_value				[ENTITY_TYPE_SESSION][INT_TYPE_SESSION_COMPLETE]								= get_local_int_value;

  00652	b8 5c 04 00 00	 mov	 eax, 1116		; 0000045cH
  00657	6b c8 1b	 imul	 ecx, eax, 27
  0065a	ba 04 00 00 00	 mov	 edx, 4
  0065f	69 c2 ba 00 00
	00		 imul	 eax, edx, 186
  00665	c7 84 01 00 00
	00 00 00 00 00
	00		 mov	 DWORD PTR ?fn_get_local_entity_int_value@@3PAY0BBH@P6GHPAUENTITY@@W4INT_TYPES@@@ZA[ecx+eax], OFFSET ?get_local_int_value@@YGHPAUENTITY@@W4INT_TYPES@@@Z ; get_local_int_value

; 554  : 
; 555  : 	fn_set_local_entity_raw_int_value		[ENTITY_TYPE_SESSION][INT_TYPE_SKIP_NIGHT_TIME]									= set_local_int_value;

  00670	b8 5c 04 00 00	 mov	 eax, 1116		; 0000045cH
  00675	6b c8 1b	 imul	 ecx, eax, 27
  00678	ba 04 00 00 00	 mov	 edx, 4
  0067d	69 c2 bc 00 00
	00		 imul	 eax, edx, 188
  00683	c7 84 01 00 00
	00 00 00 00 00
	00		 mov	 DWORD PTR ?fn_set_local_entity_raw_int_value@@3PAY0BBH@P6GXPAUENTITY@@W4INT_TYPES@@H@ZA[ecx+eax], OFFSET ?set_local_int_value@@YGXPAUENTITY@@W4INT_TYPES@@H@Z ; set_local_int_value

; 556  : 	fn_set_local_entity_int_value				[ENTITY_TYPE_SESSION][INT_TYPE_SKIP_NIGHT_TIME]									= set_local_int_value;

  0068e	b8 5c 04 00 00	 mov	 eax, 1116		; 0000045cH
  00693	6b c8 1b	 imul	 ecx, eax, 27
  00696	ba 04 00 00 00	 mov	 edx, 4
  0069b	69 c2 bc 00 00
	00		 imul	 eax, edx, 188
  006a1	c7 84 01 00 00
	00 00 00 00 00
	00		 mov	 DWORD PTR ?fn_set_local_entity_int_value@@3PAY0BBH@P6GXPAUENTITY@@W4INT_TYPES@@H@ZA[ecx+eax], OFFSET ?set_local_int_value@@YGXPAUENTITY@@W4INT_TYPES@@H@Z ; set_local_int_value

; 557  : 	fn_set_client_server_entity_int_value	[ENTITY_TYPE_SESSION][INT_TYPE_SKIP_NIGHT_TIME][COMMS_MODEL_SERVER]		= set_server_int_value;

  006ac	b8 b8 08 00 00	 mov	 eax, 2232		; 000008b8H
  006b1	6b c8 1b	 imul	 ecx, eax, 27
  006b4	ba 08 00 00 00	 mov	 edx, 8
  006b9	69 c2 bc 00 00
	00		 imul	 eax, edx, 188
  006bf	8d 8c 01 00 00
	00 00		 lea	 ecx, DWORD PTR ?fn_set_client_server_entity_int_value@@3PAY1BBH@1P6GXPAUENTITY@@W4INT_TYPES@@H@ZA[ecx+eax]
  006c6	ba 04 00 00 00	 mov	 edx, 4
  006cb	6b c2 00	 imul	 eax, edx, 0
  006ce	c7 04 01 00 00
	00 00		 mov	 DWORD PTR [ecx+eax], OFFSET ?set_server_int_value@@YGXPAUENTITY@@W4INT_TYPES@@H@Z ; set_server_int_value

; 558  : 	fn_set_client_server_entity_int_value	[ENTITY_TYPE_SESSION][INT_TYPE_SKIP_NIGHT_TIME][COMMS_MODEL_CLIENT]		= set_client_int_value;

  006d5	b8 b8 08 00 00	 mov	 eax, 2232		; 000008b8H
  006da	6b c8 1b	 imul	 ecx, eax, 27
  006dd	ba 08 00 00 00	 mov	 edx, 8
  006e2	69 c2 bc 00 00
	00		 imul	 eax, edx, 188
  006e8	8d 8c 01 00 00
	00 00		 lea	 ecx, DWORD PTR ?fn_set_client_server_entity_int_value@@3PAY1BBH@1P6GXPAUENTITY@@W4INT_TYPES@@H@ZA[ecx+eax]
  006ef	ba 04 00 00 00	 mov	 edx, 4
  006f4	c1 e2 00	 shl	 edx, 0
  006f7	c7 04 11 00 00
	00 00		 mov	 DWORD PTR [ecx+edx], OFFSET ?set_client_int_value@@YGXPAUENTITY@@W4INT_TYPES@@H@Z ; set_client_int_value

; 559  : 	fn_get_local_entity_int_value				[ENTITY_TYPE_SESSION][INT_TYPE_SKIP_NIGHT_TIME]									= get_local_int_value;

  006fe	b8 5c 04 00 00	 mov	 eax, 1116		; 0000045cH
  00703	6b c8 1b	 imul	 ecx, eax, 27
  00706	ba 04 00 00 00	 mov	 edx, 4
  0070b	69 c2 bc 00 00
	00		 imul	 eax, edx, 188
  00711	c7 84 01 00 00
	00 00 00 00 00
	00		 mov	 DWORD PTR ?fn_get_local_entity_int_value@@3PAY0BBH@P6GHPAUENTITY@@W4INT_TYPES@@@ZA[ecx+eax], OFFSET ?get_local_int_value@@YGHPAUENTITY@@W4INT_TYPES@@@Z ; get_local_int_value

; 560  : 
; 561  : 	fn_set_local_entity_raw_int_value		[ENTITY_TYPE_SESSION][INT_TYPE_SUPPRESS_AI_FIRE]								= set_local_int_value;

  0071c	b8 5c 04 00 00	 mov	 eax, 1116		; 0000045cH
  00721	6b c8 1b	 imul	 ecx, eax, 27
  00724	ba 04 00 00 00	 mov	 edx, 4
  00729	69 c2 d0 00 00
	00		 imul	 eax, edx, 208
  0072f	c7 84 01 00 00
	00 00 00 00 00
	00		 mov	 DWORD PTR ?fn_set_local_entity_raw_int_value@@3PAY0BBH@P6GXPAUENTITY@@W4INT_TYPES@@H@ZA[ecx+eax], OFFSET ?set_local_int_value@@YGXPAUENTITY@@W4INT_TYPES@@H@Z ; set_local_int_value

; 562  : 	fn_set_local_entity_int_value				[ENTITY_TYPE_SESSION][INT_TYPE_SUPPRESS_AI_FIRE]								= set_local_int_value;

  0073a	b8 5c 04 00 00	 mov	 eax, 1116		; 0000045cH
  0073f	6b c8 1b	 imul	 ecx, eax, 27
  00742	ba 04 00 00 00	 mov	 edx, 4
  00747	69 c2 d0 00 00
	00		 imul	 eax, edx, 208
  0074d	c7 84 01 00 00
	00 00 00 00 00
	00		 mov	 DWORD PTR ?fn_set_local_entity_int_value@@3PAY0BBH@P6GXPAUENTITY@@W4INT_TYPES@@H@ZA[ecx+eax], OFFSET ?set_local_int_value@@YGXPAUENTITY@@W4INT_TYPES@@H@Z ; set_local_int_value

; 563  : 	fn_set_client_server_entity_int_value	[ENTITY_TYPE_SESSION][INT_TYPE_SUPPRESS_AI_FIRE][COMMS_MODEL_SERVER]		= set_server_int_value;

  00758	b8 b8 08 00 00	 mov	 eax, 2232		; 000008b8H
  0075d	6b c8 1b	 imul	 ecx, eax, 27
  00760	ba 08 00 00 00	 mov	 edx, 8
  00765	69 c2 d0 00 00
	00		 imul	 eax, edx, 208
  0076b	8d 8c 01 00 00
	00 00		 lea	 ecx, DWORD PTR ?fn_set_client_server_entity_int_value@@3PAY1BBH@1P6GXPAUENTITY@@W4INT_TYPES@@H@ZA[ecx+eax]
  00772	ba 04 00 00 00	 mov	 edx, 4
  00777	6b c2 00	 imul	 eax, edx, 0
  0077a	c7 04 01 00 00
	00 00		 mov	 DWORD PTR [ecx+eax], OFFSET ?set_server_int_value@@YGXPAUENTITY@@W4INT_TYPES@@H@Z ; set_server_int_value

; 564  : 	fn_set_client_server_entity_int_value	[ENTITY_TYPE_SESSION][INT_TYPE_SUPPRESS_AI_FIRE][COMMS_MODEL_CLIENT]		= set_client_int_value;

  00781	b8 b8 08 00 00	 mov	 eax, 2232		; 000008b8H
  00786	6b c8 1b	 imul	 ecx, eax, 27
  00789	ba 08 00 00 00	 mov	 edx, 8
  0078e	69 c2 d0 00 00
	00		 imul	 eax, edx, 208
  00794	8d 8c 01 00 00
	00 00		 lea	 ecx, DWORD PTR ?fn_set_client_server_entity_int_value@@3PAY1BBH@1P6GXPAUENTITY@@W4INT_TYPES@@H@ZA[ecx+eax]
  0079b	ba 04 00 00 00	 mov	 edx, 4
  007a0	c1 e2 00	 shl	 edx, 0
  007a3	c7 04 11 00 00
	00 00		 mov	 DWORD PTR [ecx+edx], OFFSET ?set_client_int_value@@YGXPAUENTITY@@W4INT_TYPES@@H@Z ; set_client_int_value

; 565  : 	fn_get_local_entity_int_value				[ENTITY_TYPE_SESSION][INT_TYPE_SUPPRESS_AI_FIRE]								= get_local_int_value;

  007aa	b8 5c 04 00 00	 mov	 eax, 1116		; 0000045cH
  007af	6b c8 1b	 imul	 ecx, eax, 27
  007b2	ba 04 00 00 00	 mov	 edx, 4
  007b7	69 c2 d0 00 00
	00		 imul	 eax, edx, 208
  007bd	c7 84 01 00 00
	00 00 00 00 00
	00		 mov	 DWORD PTR ?fn_get_local_entity_int_value@@3PAY0BBH@P6GHPAUENTITY@@W4INT_TYPES@@@ZA[ecx+eax], OFFSET ?get_local_int_value@@YGHPAUENTITY@@W4INT_TYPES@@@Z ; get_local_int_value

; 566  : 
; 567  : 	fn_set_local_entity_raw_int_value		[ENTITY_TYPE_SESSION][INT_TYPE_TARGET_WEATHER_MODE]							= set_local_int_value;

  007c8	b8 5c 04 00 00	 mov	 eax, 1116		; 0000045cH
  007cd	6b c8 1b	 imul	 ecx, eax, 27
  007d0	ba 04 00 00 00	 mov	 edx, 4
  007d5	69 c2 d7 00 00
	00		 imul	 eax, edx, 215
  007db	c7 84 01 00 00
	00 00 00 00 00
	00		 mov	 DWORD PTR ?fn_set_local_entity_raw_int_value@@3PAY0BBH@P6GXPAUENTITY@@W4INT_TYPES@@H@ZA[ecx+eax], OFFSET ?set_local_int_value@@YGXPAUENTITY@@W4INT_TYPES@@H@Z ; set_local_int_value

; 568  : 	fn_set_local_entity_int_value				[ENTITY_TYPE_SESSION][INT_TYPE_TARGET_WEATHER_MODE]							= set_local_int_value;

  007e6	b8 5c 04 00 00	 mov	 eax, 1116		; 0000045cH
  007eb	6b c8 1b	 imul	 ecx, eax, 27
  007ee	ba 04 00 00 00	 mov	 edx, 4
  007f3	69 c2 d7 00 00
	00		 imul	 eax, edx, 215
  007f9	c7 84 01 00 00
	00 00 00 00 00
	00		 mov	 DWORD PTR ?fn_set_local_entity_int_value@@3PAY0BBH@P6GXPAUENTITY@@W4INT_TYPES@@H@ZA[ecx+eax], OFFSET ?set_local_int_value@@YGXPAUENTITY@@W4INT_TYPES@@H@Z ; set_local_int_value

; 569  : 	fn_set_client_server_entity_int_value	[ENTITY_TYPE_SESSION][INT_TYPE_TARGET_WEATHER_MODE][COMMS_MODEL_SERVER]	= set_server_int_value;

  00804	b8 b8 08 00 00	 mov	 eax, 2232		; 000008b8H
  00809	6b c8 1b	 imul	 ecx, eax, 27
  0080c	ba 08 00 00 00	 mov	 edx, 8
  00811	69 c2 d7 00 00
	00		 imul	 eax, edx, 215
  00817	8d 8c 01 00 00
	00 00		 lea	 ecx, DWORD PTR ?fn_set_client_server_entity_int_value@@3PAY1BBH@1P6GXPAUENTITY@@W4INT_TYPES@@H@ZA[ecx+eax]
  0081e	ba 04 00 00 00	 mov	 edx, 4
  00823	6b c2 00	 imul	 eax, edx, 0
  00826	c7 04 01 00 00
	00 00		 mov	 DWORD PTR [ecx+eax], OFFSET ?set_server_int_value@@YGXPAUENTITY@@W4INT_TYPES@@H@Z ; set_server_int_value

; 570  : 	fn_set_client_server_entity_int_value	[ENTITY_TYPE_SESSION][INT_TYPE_TARGET_WEATHER_MODE][COMMS_MODEL_CLIENT]	= set_client_int_value;

  0082d	b8 b8 08 00 00	 mov	 eax, 2232		; 000008b8H
  00832	6b c8 1b	 imul	 ecx, eax, 27
  00835	ba 08 00 00 00	 mov	 edx, 8
  0083a	69 c2 d7 00 00
	00		 imul	 eax, edx, 215
  00840	8d 8c 01 00 00
	00 00		 lea	 ecx, DWORD PTR ?fn_set_client_server_entity_int_value@@3PAY1BBH@1P6GXPAUENTITY@@W4INT_TYPES@@H@ZA[ecx+eax]
  00847	ba 04 00 00 00	 mov	 edx, 4
  0084c	c1 e2 00	 shl	 edx, 0
  0084f	c7 04 11 00 00
	00 00		 mov	 DWORD PTR [ecx+edx], OFFSET ?set_client_int_value@@YGXPAUENTITY@@W4INT_TYPES@@H@Z ; set_client_int_value

; 571  : 	fn_get_local_entity_int_value				[ENTITY_TYPE_SESSION][INT_TYPE_TARGET_WEATHER_MODE]							= get_local_int_value;

  00856	b8 5c 04 00 00	 mov	 eax, 1116		; 0000045cH
  0085b	6b c8 1b	 imul	 ecx, eax, 27
  0085e	ba 04 00 00 00	 mov	 edx, 4
  00863	69 c2 d7 00 00
	00		 imul	 eax, edx, 215
  00869	c7 84 01 00 00
	00 00 00 00 00
	00		 mov	 DWORD PTR ?fn_get_local_entity_int_value@@3PAY0BBH@P6GHPAUENTITY@@W4INT_TYPES@@@ZA[ecx+eax], OFFSET ?get_local_int_value@@YGHPAUENTITY@@W4INT_TYPES@@@Z ; get_local_int_value

; 572  : 
; 573  : 	fn_set_local_entity_raw_int_value		[ENTITY_TYPE_SESSION][INT_TYPE_VERSION_NUMBER]									= set_local_int_value;

  00874	b8 5c 04 00 00	 mov	 eax, 1116		; 0000045cH
  00879	6b c8 1b	 imul	 ecx, eax, 27
  0087c	ba 04 00 00 00	 mov	 edx, 4
  00881	69 c2 f5 00 00
	00		 imul	 eax, edx, 245
  00887	c7 84 01 00 00
	00 00 00 00 00
	00		 mov	 DWORD PTR ?fn_set_local_entity_raw_int_value@@3PAY0BBH@P6GXPAUENTITY@@W4INT_TYPES@@H@ZA[ecx+eax], OFFSET ?set_local_int_value@@YGXPAUENTITY@@W4INT_TYPES@@H@Z ; set_local_int_value

; 574  : 	fn_set_local_entity_int_value				[ENTITY_TYPE_SESSION][INT_TYPE_VERSION_NUMBER]									= set_local_int_value;

  00892	b8 5c 04 00 00	 mov	 eax, 1116		; 0000045cH
  00897	6b c8 1b	 imul	 ecx, eax, 27
  0089a	ba 04 00 00 00	 mov	 edx, 4
  0089f	69 c2 f5 00 00
	00		 imul	 eax, edx, 245
  008a5	c7 84 01 00 00
	00 00 00 00 00
	00		 mov	 DWORD PTR ?fn_set_local_entity_int_value@@3PAY0BBH@P6GXPAUENTITY@@W4INT_TYPES@@H@ZA[ecx+eax], OFFSET ?set_local_int_value@@YGXPAUENTITY@@W4INT_TYPES@@H@Z ; set_local_int_value

; 575  : 	fn_set_client_server_entity_int_value	[ENTITY_TYPE_SESSION][INT_TYPE_VERSION_NUMBER][COMMS_MODEL_SERVER]		= set_server_int_value;

  008b0	b8 b8 08 00 00	 mov	 eax, 2232		; 000008b8H
  008b5	6b c8 1b	 imul	 ecx, eax, 27
  008b8	ba 08 00 00 00	 mov	 edx, 8
  008bd	69 c2 f5 00 00
	00		 imul	 eax, edx, 245
  008c3	8d 8c 01 00 00
	00 00		 lea	 ecx, DWORD PTR ?fn_set_client_server_entity_int_value@@3PAY1BBH@1P6GXPAUENTITY@@W4INT_TYPES@@H@ZA[ecx+eax]
  008ca	ba 04 00 00 00	 mov	 edx, 4
  008cf	6b c2 00	 imul	 eax, edx, 0
  008d2	c7 04 01 00 00
	00 00		 mov	 DWORD PTR [ecx+eax], OFFSET ?set_server_int_value@@YGXPAUENTITY@@W4INT_TYPES@@H@Z ; set_server_int_value

; 576  : 	fn_set_client_server_entity_int_value	[ENTITY_TYPE_SESSION][INT_TYPE_VERSION_NUMBER][COMMS_MODEL_CLIENT]		= set_client_int_value;

  008d9	b8 b8 08 00 00	 mov	 eax, 2232		; 000008b8H
  008de	6b c8 1b	 imul	 ecx, eax, 27
  008e1	ba 08 00 00 00	 mov	 edx, 8
  008e6	69 c2 f5 00 00
	00		 imul	 eax, edx, 245
  008ec	8d 8c 01 00 00
	00 00		 lea	 ecx, DWORD PTR ?fn_set_client_server_entity_int_value@@3PAY1BBH@1P6GXPAUENTITY@@W4INT_TYPES@@H@ZA[ecx+eax]
  008f3	ba 04 00 00 00	 mov	 edx, 4
  008f8	c1 e2 00	 shl	 edx, 0
  008fb	c7 04 11 00 00
	00 00		 mov	 DWORD PTR [ecx+edx], OFFSET ?set_client_int_value@@YGXPAUENTITY@@W4INT_TYPES@@H@Z ; set_client_int_value

; 577  : 	fn_get_local_entity_int_value				[ENTITY_TYPE_SESSION][INT_TYPE_VERSION_NUMBER]									= get_local_int_value;

  00902	b8 5c 04 00 00	 mov	 eax, 1116		; 0000045cH
  00907	6b c8 1b	 imul	 ecx, eax, 27
  0090a	ba 04 00 00 00	 mov	 edx, 4
  0090f	69 c2 f5 00 00
	00		 imul	 eax, edx, 245
  00915	c7 84 01 00 00
	00 00 00 00 00
	00		 mov	 DWORD PTR ?fn_get_local_entity_int_value@@3PAY0BBH@P6GHPAUENTITY@@W4INT_TYPES@@@ZA[ecx+eax], OFFSET ?get_local_int_value@@YGHPAUENTITY@@W4INT_TYPES@@@Z ; get_local_int_value

; 578  : 
; 579  : 	fn_set_local_entity_raw_int_value		[ENTITY_TYPE_SESSION][INT_TYPE_WEATHER_INCREASING]								= set_local_int_value;

  00920	b8 5c 04 00 00	 mov	 eax, 1116		; 0000045cH
  00925	6b c8 1b	 imul	 ecx, eax, 27
  00928	ba 04 00 00 00	 mov	 edx, 4
  0092d	69 c2 12 01 00
	00		 imul	 eax, edx, 274
  00933	c7 84 01 00 00
	00 00 00 00 00
	00		 mov	 DWORD PTR ?fn_set_local_entity_raw_int_value@@3PAY0BBH@P6GXPAUENTITY@@W4INT_TYPES@@H@ZA[ecx+eax], OFFSET ?set_local_int_value@@YGXPAUENTITY@@W4INT_TYPES@@H@Z ; set_local_int_value

; 580  : 	fn_set_local_entity_int_value				[ENTITY_TYPE_SESSION][INT_TYPE_WEATHER_INCREASING]								= set_local_int_value;

  0093e	b8 5c 04 00 00	 mov	 eax, 1116		; 0000045cH
  00943	6b c8 1b	 imul	 ecx, eax, 27
  00946	ba 04 00 00 00	 mov	 edx, 4
  0094b	69 c2 12 01 00
	00		 imul	 eax, edx, 274
  00951	c7 84 01 00 00
	00 00 00 00 00
	00		 mov	 DWORD PTR ?fn_set_local_entity_int_value@@3PAY0BBH@P6GXPAUENTITY@@W4INT_TYPES@@H@ZA[ecx+eax], OFFSET ?set_local_int_value@@YGXPAUENTITY@@W4INT_TYPES@@H@Z ; set_local_int_value

; 581  : 	fn_set_client_server_entity_int_value	[ENTITY_TYPE_SESSION][INT_TYPE_WEATHER_INCREASING][COMMS_MODEL_SERVER]	= set_server_int_value;

  0095c	b8 b8 08 00 00	 mov	 eax, 2232		; 000008b8H
  00961	6b c8 1b	 imul	 ecx, eax, 27
  00964	ba 08 00 00 00	 mov	 edx, 8
  00969	69 c2 12 01 00
	00		 imul	 eax, edx, 274
  0096f	8d 8c 01 00 00
	00 00		 lea	 ecx, DWORD PTR ?fn_set_client_server_entity_int_value@@3PAY1BBH@1P6GXPAUENTITY@@W4INT_TYPES@@H@ZA[ecx+eax]
  00976	ba 04 00 00 00	 mov	 edx, 4
  0097b	6b c2 00	 imul	 eax, edx, 0
  0097e	c7 04 01 00 00
	00 00		 mov	 DWORD PTR [ecx+eax], OFFSET ?set_server_int_value@@YGXPAUENTITY@@W4INT_TYPES@@H@Z ; set_server_int_value

; 582  : 	fn_set_client_server_entity_int_value	[ENTITY_TYPE_SESSION][INT_TYPE_WEATHER_INCREASING][COMMS_MODEL_CLIENT]	= set_client_int_value;

  00985	b8 b8 08 00 00	 mov	 eax, 2232		; 000008b8H
  0098a	6b c8 1b	 imul	 ecx, eax, 27
  0098d	ba 08 00 00 00	 mov	 edx, 8
  00992	69 c2 12 01 00
	00		 imul	 eax, edx, 274
  00998	8d 8c 01 00 00
	00 00		 lea	 ecx, DWORD PTR ?fn_set_client_server_entity_int_value@@3PAY1BBH@1P6GXPAUENTITY@@W4INT_TYPES@@H@ZA[ecx+eax]
  0099f	ba 04 00 00 00	 mov	 edx, 4
  009a4	c1 e2 00	 shl	 edx, 0
  009a7	c7 04 11 00 00
	00 00		 mov	 DWORD PTR [ecx+edx], OFFSET ?set_client_int_value@@YGXPAUENTITY@@W4INT_TYPES@@H@Z ; set_client_int_value

; 583  : 	fn_get_local_entity_int_value				[ENTITY_TYPE_SESSION][INT_TYPE_WEATHER_INCREASING]								= get_local_int_value;

  009ae	b8 5c 04 00 00	 mov	 eax, 1116		; 0000045cH
  009b3	6b c8 1b	 imul	 ecx, eax, 27
  009b6	ba 04 00 00 00	 mov	 edx, 4
  009bb	69 c2 12 01 00
	00		 imul	 eax, edx, 274
  009c1	c7 84 01 00 00
	00 00 00 00 00
	00		 mov	 DWORD PTR ?fn_get_local_entity_int_value@@3PAY0BBH@P6GHPAUENTITY@@W4INT_TYPES@@@ZA[ecx+eax], OFFSET ?get_local_int_value@@YGHPAUENTITY@@W4INT_TYPES@@@Z ; get_local_int_value

; 584  : 
; 585  : 	fn_set_local_entity_raw_int_value		[ENTITY_TYPE_SESSION][INT_TYPE_WEATHER_MODE]										= set_local_int_value;

  009cc	b8 5c 04 00 00	 mov	 eax, 1116		; 0000045cH
  009d1	6b c8 1b	 imul	 ecx, eax, 27
  009d4	ba 04 00 00 00	 mov	 edx, 4
  009d9	69 c2 13 01 00
	00		 imul	 eax, edx, 275
  009df	c7 84 01 00 00
	00 00 00 00 00
	00		 mov	 DWORD PTR ?fn_set_local_entity_raw_int_value@@3PAY0BBH@P6GXPAUENTITY@@W4INT_TYPES@@H@ZA[ecx+eax], OFFSET ?set_local_int_value@@YGXPAUENTITY@@W4INT_TYPES@@H@Z ; set_local_int_value

; 586  : 	fn_set_local_entity_int_value				[ENTITY_TYPE_SESSION][INT_TYPE_WEATHER_MODE]										= set_local_int_value;

  009ea	b8 5c 04 00 00	 mov	 eax, 1116		; 0000045cH
  009ef	6b c8 1b	 imul	 ecx, eax, 27
  009f2	ba 04 00 00 00	 mov	 edx, 4
  009f7	69 c2 13 01 00
	00		 imul	 eax, edx, 275
  009fd	c7 84 01 00 00
	00 00 00 00 00
	00		 mov	 DWORD PTR ?fn_set_local_entity_int_value@@3PAY0BBH@P6GXPAUENTITY@@W4INT_TYPES@@H@ZA[ecx+eax], OFFSET ?set_local_int_value@@YGXPAUENTITY@@W4INT_TYPES@@H@Z ; set_local_int_value

; 587  : 	fn_set_client_server_entity_int_value	[ENTITY_TYPE_SESSION][INT_TYPE_WEATHER_MODE][COMMS_MODEL_SERVER]			= set_server_int_value;

  00a08	b8 b8 08 00 00	 mov	 eax, 2232		; 000008b8H
  00a0d	6b c8 1b	 imul	 ecx, eax, 27
  00a10	ba 08 00 00 00	 mov	 edx, 8
  00a15	69 c2 13 01 00
	00		 imul	 eax, edx, 275
  00a1b	8d 8c 01 00 00
	00 00		 lea	 ecx, DWORD PTR ?fn_set_client_server_entity_int_value@@3PAY1BBH@1P6GXPAUENTITY@@W4INT_TYPES@@H@ZA[ecx+eax]
  00a22	ba 04 00 00 00	 mov	 edx, 4
  00a27	6b c2 00	 imul	 eax, edx, 0
  00a2a	c7 04 01 00 00
	00 00		 mov	 DWORD PTR [ecx+eax], OFFSET ?set_server_int_value@@YGXPAUENTITY@@W4INT_TYPES@@H@Z ; set_server_int_value

; 588  : 	fn_set_client_server_entity_int_value	[ENTITY_TYPE_SESSION][INT_TYPE_WEATHER_MODE][COMMS_MODEL_CLIENT]			= set_client_int_value;

  00a31	b8 b8 08 00 00	 mov	 eax, 2232		; 000008b8H
  00a36	6b c8 1b	 imul	 ecx, eax, 27
  00a39	ba 08 00 00 00	 mov	 edx, 8
  00a3e	69 c2 13 01 00
	00		 imul	 eax, edx, 275
  00a44	8d 8c 01 00 00
	00 00		 lea	 ecx, DWORD PTR ?fn_set_client_server_entity_int_value@@3PAY1BBH@1P6GXPAUENTITY@@W4INT_TYPES@@H@ZA[ecx+eax]
  00a4b	ba 04 00 00 00	 mov	 edx, 4
  00a50	c1 e2 00	 shl	 edx, 0
  00a53	c7 04 11 00 00
	00 00		 mov	 DWORD PTR [ecx+edx], OFFSET ?set_client_int_value@@YGXPAUENTITY@@W4INT_TYPES@@H@Z ; set_client_int_value

; 589  : 	fn_get_local_entity_int_value				[ENTITY_TYPE_SESSION][INT_TYPE_WEATHER_MODE]										= get_local_int_value;

  00a5a	b8 5c 04 00 00	 mov	 eax, 1116		; 0000045cH
  00a5f	6b c8 1b	 imul	 ecx, eax, 27
  00a62	ba 04 00 00 00	 mov	 edx, 4
  00a67	69 c2 13 01 00
	00		 imul	 eax, edx, 275
  00a6d	c7 84 01 00 00
	00 00 00 00 00
	00		 mov	 DWORD PTR ?fn_get_local_entity_int_value@@3PAY0BBH@P6GHPAUENTITY@@W4INT_TYPES@@@ZA[ecx+eax], OFFSET ?get_local_int_value@@YGHPAUENTITY@@W4INT_TYPES@@@Z ; get_local_int_value

; 590  : 
; 591  : 	fn_set_local_entity_raw_int_value		[ENTITY_TYPE_SESSION][INT_TYPE_WIND_INCREASING]									= set_local_int_value;

  00a78	b8 5c 04 00 00	 mov	 eax, 1116		; 0000045cH
  00a7d	6b c8 1b	 imul	 ecx, eax, 27
  00a80	ba 04 00 00 00	 mov	 edx, 4
  00a85	69 c2 14 01 00
	00		 imul	 eax, edx, 276
  00a8b	c7 84 01 00 00
	00 00 00 00 00
	00		 mov	 DWORD PTR ?fn_set_local_entity_raw_int_value@@3PAY0BBH@P6GXPAUENTITY@@W4INT_TYPES@@H@ZA[ecx+eax], OFFSET ?set_local_int_value@@YGXPAUENTITY@@W4INT_TYPES@@H@Z ; set_local_int_value

; 592  : 	fn_set_local_entity_int_value				[ENTITY_TYPE_SESSION][INT_TYPE_WIND_INCREASING]									= set_local_int_value;

  00a96	b8 5c 04 00 00	 mov	 eax, 1116		; 0000045cH
  00a9b	6b c8 1b	 imul	 ecx, eax, 27
  00a9e	ba 04 00 00 00	 mov	 edx, 4
  00aa3	69 c2 14 01 00
	00		 imul	 eax, edx, 276
  00aa9	c7 84 01 00 00
	00 00 00 00 00
	00		 mov	 DWORD PTR ?fn_set_local_entity_int_value@@3PAY0BBH@P6GXPAUENTITY@@W4INT_TYPES@@H@ZA[ecx+eax], OFFSET ?set_local_int_value@@YGXPAUENTITY@@W4INT_TYPES@@H@Z ; set_local_int_value

; 593  : 	fn_set_client_server_entity_int_value	[ENTITY_TYPE_SESSION][INT_TYPE_WIND_INCREASING][COMMS_MODEL_SERVER]		= set_server_int_value;

  00ab4	b8 b8 08 00 00	 mov	 eax, 2232		; 000008b8H
  00ab9	6b c8 1b	 imul	 ecx, eax, 27
  00abc	ba 08 00 00 00	 mov	 edx, 8
  00ac1	69 c2 14 01 00
	00		 imul	 eax, edx, 276
  00ac7	8d 8c 01 00 00
	00 00		 lea	 ecx, DWORD PTR ?fn_set_client_server_entity_int_value@@3PAY1BBH@1P6GXPAUENTITY@@W4INT_TYPES@@H@ZA[ecx+eax]
  00ace	ba 04 00 00 00	 mov	 edx, 4
  00ad3	6b c2 00	 imul	 eax, edx, 0
  00ad6	c7 04 01 00 00
	00 00		 mov	 DWORD PTR [ecx+eax], OFFSET ?set_server_int_value@@YGXPAUENTITY@@W4INT_TYPES@@H@Z ; set_server_int_value

; 594  : 	fn_set_client_server_entity_int_value	[ENTITY_TYPE_SESSION][INT_TYPE_WIND_INCREASING][COMMS_MODEL_CLIENT]		= set_client_int_value;

  00add	b8 b8 08 00 00	 mov	 eax, 2232		; 000008b8H
  00ae2	6b c8 1b	 imul	 ecx, eax, 27
  00ae5	ba 08 00 00 00	 mov	 edx, 8
  00aea	69 c2 14 01 00
	00		 imul	 eax, edx, 276
  00af0	8d 8c 01 00 00
	00 00		 lea	 ecx, DWORD PTR ?fn_set_client_server_entity_int_value@@3PAY1BBH@1P6GXPAUENTITY@@W4INT_TYPES@@H@ZA[ecx+eax]
  00af7	ba 04 00 00 00	 mov	 edx, 4
  00afc	c1 e2 00	 shl	 edx, 0
  00aff	c7 04 11 00 00
	00 00		 mov	 DWORD PTR [ecx+edx], OFFSET ?set_client_int_value@@YGXPAUENTITY@@W4INT_TYPES@@H@Z ; set_client_int_value

; 595  : 	fn_get_local_entity_int_value				[ENTITY_TYPE_SESSION][INT_TYPE_WIND_INCREASING]									= get_local_int_value;

  00b06	b8 5c 04 00 00	 mov	 eax, 1116		; 0000045cH
  00b0b	6b c8 1b	 imul	 ecx, eax, 27
  00b0e	ba 04 00 00 00	 mov	 edx, 4
  00b13	69 c2 14 01 00
	00		 imul	 eax, edx, 276
  00b19	c7 84 01 00 00
	00 00 00 00 00
	00		 mov	 DWORD PTR ?fn_get_local_entity_int_value@@3PAY0BBH@P6GHPAUENTITY@@W4INT_TYPES@@@ZA[ecx+eax], OFFSET ?get_local_int_value@@YGHPAUENTITY@@W4INT_TYPES@@@Z ; get_local_int_value

; 596  : }

  00b24	5f		 pop	 edi
  00b25	5e		 pop	 esi
  00b26	5b		 pop	 ebx
  00b27	8b e5		 mov	 esp, ebp
  00b29	5d		 pop	 ebp
  00b2a	c3		 ret	 0
?overload_session_int_value_functions@@YGXXZ ENDP	; overload_session_int_value_functions
_TEXT	ENDS
END
