; Listing generated by Microsoft (R) Optimizing Compiler Version 19.16.27045.0 

	TITLE	C:\Users\nhv90\Projects\eech\aphavoc\source\entity\special\session\ss_msgs.c
	.686P
	.XMM
	include listing.inc
	.model	flat

INCLUDELIB MSVCRTD
INCLUDELIB OLDNAMES

PUBLIC	?overload_session_message_responses@@YGXXZ	; overload_session_message_responses
EXTRN	?message_responses@@3PAY0GB@P6GHW4ENTITY_MESSAGES@@PAUENTITY@@1PAD@ZA:BYTE ; message_responses
; Function compile flags: /Odtp /ZI
; File c:\users\nhv90\projects\eech\aphavoc\source\entity\special\session\ss_msgs.c
;	COMDAT ?response_to_unlink_child@@YGHW4ENTITY_MESSAGES@@PAUENTITY@@1PAD@Z
_TEXT	SEGMENT
_message$ = 8						; size = 4
_receiver$ = 12						; size = 4
_sender$ = 16						; size = 4
_pargs$ = 20						; size = 4
?response_to_unlink_child@@YGHW4ENTITY_MESSAGES@@PAUENTITY@@1PAD@Z PROC ; response_to_unlink_child, COMDAT

; 112  : {

  00000	55		 push	 ebp
  00001	8b ec		 mov	 ebp, esp
  00003	83 ec 40	 sub	 esp, 64			; 00000040H
  00006	53		 push	 ebx
  00007	56		 push	 esi
  00008	57		 push	 edi

; 113  : 
; 114  : 	#if DEBUG_MODULE
; 115  : 
; 116  : 	list_types
; 117  : 		list_type;
; 118  : 
; 119  : 	debug_log_entity_message (message, receiver, sender, pargs);
; 120  : 
; 121  : 	list_type = va_arg (pargs, list_types);
; 122  : 
; 123  : 	if (list_type == LIST_TYPE_AIR_TASK)
; 124  : 	{
; 125  : 
; 126  : 		debug_log ("SS_MSGS: removing task %d to air task list", sender);
; 127  : 	}
; 128  : 	else if (list_type == LIST_TYPE_ASSIGNED_AIR_TASK)
; 129  : 	{
; 130  : 
; 131  : 		debug_log ("SS_MSGS: removing task %d to assigned air task list", sender);
; 132  : 	}
; 133  : 
; 134  : 	#endif
; 135  : 
; 136  : 	return (TRUE);

  00009	b8 01 00 00 00	 mov	 eax, 1

; 137  : }

  0000e	5f		 pop	 edi
  0000f	5e		 pop	 esi
  00010	5b		 pop	 ebx
  00011	8b e5		 mov	 esp, ebp
  00013	5d		 pop	 ebp
  00014	c2 10 00	 ret	 16			; 00000010H
?response_to_unlink_child@@YGHW4ENTITY_MESSAGES@@PAUENTITY@@1PAD@Z ENDP ; response_to_unlink_child
_TEXT	ENDS
; Function compile flags: /Odtp /ZI
; File c:\users\nhv90\projects\eech\aphavoc\source\entity\special\session\ss_msgs.c
;	COMDAT ?response_to_link_child@@YGHW4ENTITY_MESSAGES@@PAUENTITY@@1PAD@Z
_TEXT	SEGMENT
_message$ = 8						; size = 4
_receiver$ = 12						; size = 4
_sender$ = 16						; size = 4
_pargs$ = 20						; size = 4
?response_to_link_child@@YGHW4ENTITY_MESSAGES@@PAUENTITY@@1PAD@Z PROC ; response_to_link_child, COMDAT

; 80   : {

  00000	55		 push	 ebp
  00001	8b ec		 mov	 ebp, esp
  00003	83 ec 40	 sub	 esp, 64			; 00000040H
  00006	53		 push	 ebx
  00007	56		 push	 esi
  00008	57		 push	 edi

; 81   : 
; 82   : 	#if DEBUG_MODULE
; 83   : 
; 84   : 	list_types
; 85   : 		list_type;
; 86   : 
; 87   : 	debug_log_entity_message (message, receiver, sender, pargs);
; 88   : 
; 89   : 	list_type = va_arg (pargs, list_types);
; 90   : 
; 91   : 	if (list_type == LIST_TYPE_AIR_TASK)
; 92   : 	{
; 93   : 
; 94   : 		debug_log ("SS_MSGS: adding task %d to air task list", sender);
; 95   : 	}
; 96   : 	else if (list_type == LIST_TYPE_ASSIGNED_AIR_TASK)
; 97   : 	{
; 98   : 
; 99   : 		debug_log ("SS_MSGS: adding task %d to assigned air task list", sender);
; 100  : 	}
; 101  : 
; 102  : 	#endif
; 103  : 
; 104  : 	return (TRUE);

  00009	b8 01 00 00 00	 mov	 eax, 1

; 105  : }

  0000e	5f		 pop	 edi
  0000f	5e		 pop	 esi
  00010	5b		 pop	 ebx
  00011	8b e5		 mov	 esp, ebp
  00013	5d		 pop	 ebp
  00014	c2 10 00	 ret	 16			; 00000010H
?response_to_link_child@@YGHW4ENTITY_MESSAGES@@PAUENTITY@@1PAD@Z ENDP ; response_to_link_child
_TEXT	ENDS
; Function compile flags: /Odtp /ZI
; File c:\users\nhv90\projects\eech\aphavoc\source\entity\special\session\ss_msgs.c
;	COMDAT ?overload_session_message_responses@@YGXXZ
_TEXT	SEGMENT
?overload_session_message_responses@@YGXXZ PROC		; overload_session_message_responses, COMDAT

; 174  : {

  00000	55		 push	 ebp
  00001	8b ec		 mov	 ebp, esp
  00003	83 ec 40	 sub	 esp, 64			; 00000040H
  00006	53		 push	 ebx
  00007	56		 push	 esi
  00008	57		 push	 edi

; 175  : 	#if DEBUG_MODULE
; 176  : 
; 177  : 	message_responses[ENTITY_TYPE_SESSION][ENTITY_MESSAGE_LINK_PARENT]	= response_to_link_parent;
; 178  : 
; 179  : 	message_responses[ENTITY_TYPE_SESSION][ENTITY_MESSAGE_UNLINK_PARENT]	= response_to_unlink_parent;
; 180  : 
; 181  : 	#endif
; 182  : 
; 183  : 	message_responses[ENTITY_TYPE_SESSION][ENTITY_MESSAGE_LINK_CHILD]		= response_to_link_child;

  00009	b8 84 01 00 00	 mov	 eax, 388		; 00000184H
  0000e	6b c8 1b	 imul	 ecx, eax, 27
  00011	ba 04 00 00 00	 mov	 edx, 4
  00016	6b c2 23	 imul	 eax, edx, 35
  00019	c7 84 01 00 00
	00 00 00 00 00
	00		 mov	 DWORD PTR ?message_responses@@3PAY0GB@P6GHW4ENTITY_MESSAGES@@PAUENTITY@@1PAD@ZA[ecx+eax], OFFSET ?response_to_link_child@@YGHW4ENTITY_MESSAGES@@PAUENTITY@@1PAD@Z ; response_to_link_child

; 184  : 
; 185  : 	message_responses[ENTITY_TYPE_SESSION][ENTITY_MESSAGE_UNLINK_CHILD]	= response_to_unlink_child;

  00024	b8 84 01 00 00	 mov	 eax, 388		; 00000184H
  00029	6b c8 1b	 imul	 ecx, eax, 27
  0002c	ba 04 00 00 00	 mov	 edx, 4
  00031	6b c2 37	 imul	 eax, edx, 55
  00034	c7 84 01 00 00
	00 00 00 00 00
	00		 mov	 DWORD PTR ?message_responses@@3PAY0GB@P6GHW4ENTITY_MESSAGES@@PAUENTITY@@1PAD@ZA[ecx+eax], OFFSET ?response_to_unlink_child@@YGHW4ENTITY_MESSAGES@@PAUENTITY@@1PAD@Z ; response_to_unlink_child

; 186  : }

  0003f	5f		 pop	 edi
  00040	5e		 pop	 esi
  00041	5b		 pop	 ebx
  00042	8b e5		 mov	 esp, ebp
  00044	5d		 pop	 ebp
  00045	c3		 ret	 0
?overload_session_message_responses@@YGXXZ ENDP		; overload_session_message_responses
_TEXT	ENDS
END
