; Listing generated by Microsoft (R) Optimizing Compiler Version 19.16.27045.0 

	TITLE	C:\Users\nhv90\Projects\eech\aphavoc\source\entity\special\session\ss_updt.c
	.686P
	.XMM
	include listing.inc
	.model	flat

INCLUDELIB MSVCRTD
INCLUDELIB OLDNAMES

PUBLIC	?overload_session_update_functions@@YGXXZ	; overload_session_update_functions
PUBLIC	?update_lightning_effect@@YGXPAUENTITY@@@Z	; update_lightning_effect
PUBLIC	?update_transitional_weather@@YGXPAUENTITY@@@Z	; update_transitional_weather
PUBLIC	?update_session_sound_effects@@YGXPAUENTITY@@@Z	; update_session_sound_effects
PUBLIC	?__LINE__Var@?0??update_time_of_day@@YGXPAUENTITY@@@Z@4JA ; `update_time_of_day'::`1'::__LINE__Var
PUBLIC	??_C@_0EN@MANBNJL@c?3?2users?2nhv90?2projects?2eech?2ap@ ; `string'
PUBLIC	??_C@_02LFNMGJAP@en@				; `string'
PUBLIC	?__LINE__Var@?0??update_time_of_day_resync@@YGXPAUENTITY@@@Z@4JA ; `update_time_of_day_resync'::`1'::__LINE__Var
PUBLIC	?__LINE__Var@?0??update_lightning_effect@@YGXPAUENTITY@@@Z@4JA ; `update_lightning_effect'::`1'::__LINE__Var
PUBLIC	?__LINE__Var@?0??update_transitional_weather@@YGXPAUENTITY@@@Z@4JA ; `update_transitional_weather'::`1'::__LINE__Var
PUBLIC	?__LINE__Var@?0??update_session_sound_effects@@YGXPAUENTITY@@@Z@4JA ; `update_session_sound_effects'::`1'::__LINE__Var
PUBLIC	??_C@_0BJ@KKEKKMPB@?$CIr?5?$DO?$DN?50?40?$CJ?5?$CG?$CG?5?$CIr?5?$DM?$DN?51?40?$CJ@ ; `string'
PUBLIC	__real@0000000000000000
PUBLIC	__real@3e99999a
PUBLIC	__real@3f00002000400080
PUBLIC	__real@3f800000
PUBLIC	__real@3fb999999999999a
PUBLIC	__real@3fd3333333333333
PUBLIC	__real@3fe0000000000000
PUBLIC	__real@3fe8000000000000
PUBLIC	__real@3feb333333333333
PUBLIC	__real@3ff0000000000000
PUBLIC	__real@4000000000000000
PUBLIC	__real@4034000000000000
PUBLIC	__real@4059000000000000
PUBLIC	__real@4066800000000000
PUBLIC	__real@4069000000000000
PUBLIC	__real@406b800000000000
PUBLIC	__real@4071800000000000
PUBLIC	__real@40b3880000000000
PUBLIC	__real@40bf400000000000
PUBLIC	__real@40f86a0000000000
PUBLIC	__real@40ff400000000000
PUBLIC	__real@42700000
PUBLIC	__real@459c4000
PUBLIC	__real@45fa0000
PUBLIC	__real@47a8c000
PUBLIC	__real@47c35000
PUBLIC	__real@47fa0000
PUBLIC	__xmm@80000000800000008000000080000000
EXTRN	_memset:PROC
EXTRN	?process_assert@@YGXPBD0H@Z:PROC		; process_assert
EXTRN	?normalise_any_3d_vector@@YGMPAUVEC3D@@@Z:PROC	; normalise_any_3d_vector
EXTRN	?set_3d_active_environment@@YGXPAUENV_3D@@@Z:PROC ; set_3d_active_environment
EXTRN	?get_3d_active_environment@@YGPAUENV_3D@@XZ:PROC ; get_3d_active_environment
EXTRN	?add_3d_lightning_strike@@YGXHMMM@Z:PROC	; add_3d_lightning_strike
EXTRN	?get_cloud_3d_base_height@@YGMXZ:PROC		; get_cloud_3d_base_height
EXTRN	?get_terrain_3d_types_in_sector@@YGHMM@Z:PROC	; get_terrain_3d_types_in_sector
EXTRN	?transmit_entity_comms_message@@YAXW4ENTITY_COMMS_MESSAGES@@PAUENTITY@@ZZ:PROC ; transmit_entity_comms_message
EXTRN	?create_client_server_sound_effect_entity@@YGPAUENTITY@@PAU1@W4ENTITY_SIDES@@HW4SOUND_CHANNEL_TYPES@@W4SOUND_LOCALITY_TYPES@@PAUVEC3D@@MMHHHPAH@Z:PROC ; create_client_server_sound_effect_entity
EXTRN	?get_local_sector_entity@@YGPAUENTITY@@PAUVEC3D@@@Z:PROC ; get_local_sector_entity
EXTRN	?calculate_session_time_of_day@@YGMPAUENTITY@@PAH@Z:PROC ; calculate_session_time_of_day
EXTRN	?get_day_segment_type@@YG?AW4DAY_SEGMENT_TYPES@@M@Z:PROC ; get_day_segment_type
EXTRN	?get_segment_time_of_day@@YGMW4DAY_SEGMENT_TYPES@@@Z:PROC ; get_segment_time_of_day
EXTRN	?get_session_weather_at_point@@YGXPAUVEC3D@@PAW4WEATHERMODES@@1PAM@Z:PROC ; get_session_weather_at_point
EXTRN	?get_session_wind_velocity_at_point@@YGMPAUVEC3D@@0@Z:PROC ; get_session_wind_velocity_at_point
EXTRN	?system_delta_time@@3MA:DWORD			; system_delta_time
EXTRN	?random_number_seed@@3HA:DWORD			; random_number_seed
EXTRN	?terrain_types_in_sector@@3PAHA:BYTE		; terrain_types_in_sector
EXTRN	?null_entity_pointer_message@@3PBDB:DWORD	; null_entity_pointer_message
EXTRN	?system_comms_model@@3W4COMMS_MODEL_TYPES@@A:DWORD ; system_comms_model
EXTRN	?world_map@@3UWORLD_MAP_DATA@@A:BYTE		; world_map
EXTRN	?overload_invalid_list_type_message@@3PBDB:DWORD ; overload_invalid_list_type_message
EXTRN	?fn_get_local_entity_first_child@@3PAY0CN@P6GPAUENTITY@@PAU1@W4LIST_TYPES@@@ZA:BYTE ; fn_get_local_entity_first_child
EXTRN	?fn_get_local_entity_child_succ@@3PAY0CN@P6GPAUENTITY@@PAU1@W4LIST_TYPES@@@ZA:BYTE ; fn_get_local_entity_child_succ
EXTRN	?overload_invalid_float_type_message@@3PBDB:DWORD ; overload_invalid_float_type_message
EXTRN	?fn_set_local_entity_float_value@@3PAY0KP@P6GXPAUENTITY@@W4FLOAT_TYPES@@M@ZA:BYTE ; fn_set_local_entity_float_value
EXTRN	?fn_set_client_server_entity_float_value@@3PAY1KP@1P6GXPAUENTITY@@W4FLOAT_TYPES@@M@ZA:BYTE ; fn_set_client_server_entity_float_value
EXTRN	?fn_get_local_entity_float_value@@3PAY0KP@P6GMPAUENTITY@@W4FLOAT_TYPES@@@ZA:BYTE ; fn_get_local_entity_float_value
EXTRN	?overload_invalid_int_type_message@@3PBDB:DWORD	; overload_invalid_int_type_message
EXTRN	?fn_get_local_entity_int_value@@3PAY0BBH@P6GHPAUENTITY@@W4INT_TYPES@@@ZA:BYTE ; fn_get_local_entity_int_value
EXTRN	?fn_update_client_server_entity@@3PAY01P6GXPAUENTITY@@@ZA:BYTE ; fn_update_client_server_entity
EXTRN	?overload_invalid_vec3d_type_message@@3PBDB:DWORD ; overload_invalid_vec3d_type_message
EXTRN	?fn_get_local_entity_vec3d_ptr@@3PAY0BI@P6GPAUVEC3D@@PAUENTITY@@W4VEC3D_TYPES@@@ZA:BYTE ; fn_get_local_entity_vec3d_ptr
EXTRN	?gunship_entity@@3PAUENTITY@@A:DWORD		; gunship_entity
EXTRN	?camera_entity@@3PAUENTITY@@A:DWORD		; camera_entity
EXTRN	?main_3d_env@@3PAUENV_3D@@A:DWORD		; main_3d_env
EXTRN	?in_cockpit@@3HA:DWORD				; in_cockpit
EXTRN	__fltused:DWORD
;	COMDAT __xmm@80000000800000008000000080000000
CONST	SEGMENT
__xmm@80000000800000008000000080000000 DB 00H, 00H, 00H, 080H, 00H, 00H, 00H
	DB	080H, 00H, 00H, 00H, 080H, 00H, 00H, 00H, 080H
CONST	ENDS
;	COMDAT __real@47fa0000
CONST	SEGMENT
__real@47fa0000 DD 047fa0000r			; 128000
CONST	ENDS
;	COMDAT __real@47c35000
CONST	SEGMENT
__real@47c35000 DD 047c35000r			; 100000
CONST	ENDS
;	COMDAT __real@47a8c000
CONST	SEGMENT
__real@47a8c000 DD 047a8c000r			; 86400
CONST	ENDS
;	COMDAT __real@45fa0000
CONST	SEGMENT
__real@45fa0000 DD 045fa0000r			; 8000
CONST	ENDS
;	COMDAT __real@459c4000
CONST	SEGMENT
__real@459c4000 DD 0459c4000r			; 5000
CONST	ENDS
;	COMDAT __real@42700000
CONST	SEGMENT
__real@42700000 DD 042700000r			; 60
CONST	ENDS
;	COMDAT __real@40ff400000000000
CONST	SEGMENT
__real@40ff400000000000 DQ 040ff400000000000r	; 128000
CONST	ENDS
;	COMDAT __real@40f86a0000000000
CONST	SEGMENT
__real@40f86a0000000000 DQ 040f86a0000000000r	; 100000
CONST	ENDS
;	COMDAT __real@40bf400000000000
CONST	SEGMENT
__real@40bf400000000000 DQ 040bf400000000000r	; 8000
CONST	ENDS
;	COMDAT __real@40b3880000000000
CONST	SEGMENT
__real@40b3880000000000 DQ 040b3880000000000r	; 5000
CONST	ENDS
;	COMDAT __real@4071800000000000
CONST	SEGMENT
__real@4071800000000000 DQ 04071800000000000r	; 280
CONST	ENDS
;	COMDAT __real@406b800000000000
CONST	SEGMENT
__real@406b800000000000 DQ 0406b800000000000r	; 220
CONST	ENDS
;	COMDAT __real@4069000000000000
CONST	SEGMENT
__real@4069000000000000 DQ 04069000000000000r	; 200
CONST	ENDS
;	COMDAT __real@4066800000000000
CONST	SEGMENT
__real@4066800000000000 DQ 04066800000000000r	; 180
CONST	ENDS
;	COMDAT __real@4059000000000000
CONST	SEGMENT
__real@4059000000000000 DQ 04059000000000000r	; 100
CONST	ENDS
;	COMDAT __real@4034000000000000
CONST	SEGMENT
__real@4034000000000000 DQ 04034000000000000r	; 20
CONST	ENDS
;	COMDAT __real@4000000000000000
CONST	SEGMENT
__real@4000000000000000 DQ 04000000000000000r	; 2
CONST	ENDS
;	COMDAT __real@3ff0000000000000
CONST	SEGMENT
__real@3ff0000000000000 DQ 03ff0000000000000r	; 1
CONST	ENDS
;	COMDAT __real@3feb333333333333
CONST	SEGMENT
__real@3feb333333333333 DQ 03feb333333333333r	; 0.85
CONST	ENDS
;	COMDAT __real@3fe8000000000000
CONST	SEGMENT
__real@3fe8000000000000 DQ 03fe8000000000000r	; 0.75
CONST	ENDS
;	COMDAT __real@3fe0000000000000
CONST	SEGMENT
__real@3fe0000000000000 DQ 03fe0000000000000r	; 0.5
CONST	ENDS
;	COMDAT __real@3fd3333333333333
CONST	SEGMENT
__real@3fd3333333333333 DQ 03fd3333333333333r	; 0.3
CONST	ENDS
;	COMDAT __real@3fb999999999999a
CONST	SEGMENT
__real@3fb999999999999a DQ 03fb999999999999ar	; 0.1
CONST	ENDS
;	COMDAT __real@3f800000
CONST	SEGMENT
__real@3f800000 DD 03f800000r			; 1
CONST	ENDS
;	COMDAT __real@3f00002000400080
CONST	SEGMENT
__real@3f00002000400080 DQ 03f00002000400080r	; 3.05185e-05
CONST	ENDS
;	COMDAT __real@3e99999a
CONST	SEGMENT
__real@3e99999a DD 03e99999ar			; 0.3
CONST	ENDS
;	COMDAT __real@0000000000000000
CONST	SEGMENT
__real@0000000000000000 DQ 00000000000000000r	; 0
CONST	ENDS
;	COMDAT ??_C@_0BJ@KKEKKMPB@?$CIr?5?$DO?$DN?50?40?$CJ?5?$CG?$CG?5?$CIr?5?$DM?$DN?51?40?$CJ@
CONST	SEGMENT
??_C@_0BJ@KKEKKMPB@?$CIr?5?$DO?$DN?50?40?$CJ?5?$CG?$CG?5?$CIr?5?$DM?$DN?51?40?$CJ@ DB '('
	DB	'r >= 0.0) && (r <= 1.0)', 00H		; `string'
CONST	ENDS
;	COMDAT ?__LINE__Var@?0??update_session_sound_effects@@YGXPAUENTITY@@@Z@4JA
_DATA	SEGMENT
?__LINE__Var@?0??update_session_sound_effects@@YGXPAUENTITY@@@Z@4JA DD 0217H ; `update_session_sound_effects'::`1'::__LINE__Var
_DATA	ENDS
;	COMDAT ?__LINE__Var@?0??update_transitional_weather@@YGXPAUENTITY@@@Z@4JA
_DATA	SEGMENT
?__LINE__Var@?0??update_transitional_weather@@YGXPAUENTITY@@@Z@4JA DD 012eH ; `update_transitional_weather'::`1'::__LINE__Var
_DATA	ENDS
;	COMDAT ?__LINE__Var@?0??update_lightning_effect@@YGXPAUENTITY@@@Z@4JA
_DATA	SEGMENT
?__LINE__Var@?0??update_lightning_effect@@YGXPAUENTITY@@@Z@4JA DD 0a0H ; `update_lightning_effect'::`1'::__LINE__Var
_DATA	ENDS
;	COMDAT ?__LINE__Var@?0??update_time_of_day_resync@@YGXPAUENTITY@@@Z@4JA
_DATA	SEGMENT
?__LINE__Var@?0??update_time_of_day_resync@@YGXPAUENTITY@@@Z@4JA DD 07fH ; `update_time_of_day_resync'::`1'::__LINE__Var
_DATA	ENDS
;	COMDAT ??_C@_02LFNMGJAP@en@
CONST	SEGMENT
??_C@_02LFNMGJAP@en@ DB 'en', 00H			; `string'
CONST	ENDS
;	COMDAT ??_C@_0EN@MANBNJL@c?3?2users?2nhv90?2projects?2eech?2ap@
CONST	SEGMENT
??_C@_0EN@MANBNJL@c?3?2users?2nhv90?2projects?2eech?2ap@ DB 'c:\users\nhv'
	DB	'90\projects\eech\aphavoc\source\entity\special\session\ss_upd'
	DB	't.c', 00H					; `string'
CONST	ENDS
;	COMDAT ?__LINE__Var@?0??update_time_of_day@@YGXPAUENTITY@@@Z@4JA
_DATA	SEGMENT
?__LINE__Var@?0??update_time_of_day@@YGXPAUENTITY@@@Z@4JA DD 050H ; `update_time_of_day'::`1'::__LINE__Var
_DATA	ENDS
; Function compile flags: /Odtp /ZI
; File c:\users\nhv90\projects\eech\aphavoc\source\entity\special\session\ss_updt.c
;	COMDAT ?update_client@@YGXPAUENTITY@@@Z
_TEXT	SEGMENT
_en$ = 8						; size = 4
?update_client@@YGXPAUENTITY@@@Z PROC			; update_client, COMDAT

; 929  : {

  00000	55		 push	 ebp
  00001	8b ec		 mov	 ebp, esp
  00003	83 ec 40	 sub	 esp, 64			; 00000040H
  00006	53		 push	 ebx
  00007	56		 push	 esi
  00008	57		 push	 edi

; 930  : 	update_time_of_day (en);

  00009	8b 45 08	 mov	 eax, DWORD PTR _en$[ebp]
  0000c	50		 push	 eax
  0000d	e8 00 00 00 00	 call	 ?update_time_of_day@@YGXPAUENTITY@@@Z ; update_time_of_day

; 931  : 
; 932  : 	update_transitional_weather (en);

  00012	8b 45 08	 mov	 eax, DWORD PTR _en$[ebp]
  00015	50		 push	 eax
  00016	e8 00 00 00 00	 call	 ?update_transitional_weather@@YGXPAUENTITY@@@Z ; update_transitional_weather

; 933  : 
; 934  : 	update_session_sound_effects (en);

  0001b	8b 45 08	 mov	 eax, DWORD PTR _en$[ebp]
  0001e	50		 push	 eax
  0001f	e8 00 00 00 00	 call	 ?update_session_sound_effects@@YGXPAUENTITY@@@Z ; update_session_sound_effects

; 935  : }

  00024	5f		 pop	 edi
  00025	5e		 pop	 esi
  00026	5b		 pop	 ebx
  00027	8b e5		 mov	 esp, ebp
  00029	5d		 pop	 ebp
  0002a	c2 04 00	 ret	 4
?update_client@@YGXPAUENTITY@@@Z ENDP			; update_client
_TEXT	ENDS
; Function compile flags: /Odtp /ZI
; File c:\users\nhv90\projects\eech\aphavoc\source\entity\special\session\ss_updt.c
;	COMDAT ?update_server@@YGXPAUENTITY@@@Z
_TEXT	SEGMENT
_en$ = 8						; size = 4
?update_server@@YGXPAUENTITY@@@Z PROC			; update_server, COMDAT

; 914  : {

  00000	55		 push	 ebp
  00001	8b ec		 mov	 ebp, esp
  00003	83 ec 40	 sub	 esp, 64			; 00000040H
  00006	53		 push	 ebx
  00007	56		 push	 esi
  00008	57		 push	 edi

; 915  : 	update_time_of_day (en);

  00009	8b 45 08	 mov	 eax, DWORD PTR _en$[ebp]
  0000c	50		 push	 eax
  0000d	e8 00 00 00 00	 call	 ?update_time_of_day@@YGXPAUENTITY@@@Z ; update_time_of_day

; 916  : 
; 917  : 	update_time_of_day_resync (en);

  00012	8b 45 08	 mov	 eax, DWORD PTR _en$[ebp]
  00015	50		 push	 eax
  00016	e8 00 00 00 00	 call	 ?update_time_of_day_resync@@YGXPAUENTITY@@@Z ; update_time_of_day_resync

; 918  : 
; 919  : 	update_transitional_weather (en);

  0001b	8b 45 08	 mov	 eax, DWORD PTR _en$[ebp]
  0001e	50		 push	 eax
  0001f	e8 00 00 00 00	 call	 ?update_transitional_weather@@YGXPAUENTITY@@@Z ; update_transitional_weather

; 920  : 
; 921  : 	update_session_sound_effects (en);

  00024	8b 45 08	 mov	 eax, DWORD PTR _en$[ebp]
  00027	50		 push	 eax
  00028	e8 00 00 00 00	 call	 ?update_session_sound_effects@@YGXPAUENTITY@@@Z ; update_session_sound_effects

; 922  : }

  0002d	5f		 pop	 edi
  0002e	5e		 pop	 esi
  0002f	5b		 pop	 ebx
  00030	8b e5		 mov	 esp, ebp
  00032	5d		 pop	 ebp
  00033	c2 04 00	 ret	 4
?update_server@@YGXPAUENTITY@@@Z ENDP			; update_server
_TEXT	ENDS
; Function compile flags: /Odtp /ZI
; File c:\users\nhv90\projects\eech\aphavoc\source\entity\special\session\ss_updt.c
;	COMDAT ?update_session_sound_effects@@YGXPAUENTITY@@@Z
_TEXT	SEGMENT
tv877 = -156						; size = 8
tv863 = -156						; size = 8
tv794 = -156						; size = 8
tv780 = -156						; size = 8
tv711 = -156						; size = 8
tv697 = -156						; size = 8
tv628 = -156						; size = 8
tv614 = -156						; size = 8
tv545 = -156						; size = 8
tv531 = -156						; size = 8
tv462 = -156						; size = 8
tv448 = -156						; size = 8
tv321 = -152						; size = 4
tv922 = -148						; size = 4
tv900 = -148						; size = 4
tv878 = -148						; size = 8
tv864 = -148						; size = 8
tv839 = -148						; size = 4
tv817 = -148						; size = 4
tv795 = -148						; size = 8
tv781 = -148						; size = 8
tv756 = -148						; size = 4
tv734 = -148						; size = 4
tv712 = -148						; size = 8
tv698 = -148						; size = 8
tv673 = -148						; size = 4
tv651 = -148						; size = 4
tv629 = -148						; size = 8
tv615 = -148						; size = 8
tv590 = -148						; size = 4
tv568 = -148						; size = 4
tv546 = -148						; size = 8
tv532 = -148						; size = 8
tv507 = -148						; size = 4
tv485 = -148						; size = 4
tv463 = -148						; size = 8
tv449 = -148						; size = 8
tv424 = -148						; size = 4
tv402 = -148						; size = 4
tv382 = -148						; size = 4
tv359 = -148						; size = 4
tv336 = -148						; size = 4
tv315 = -148						; size = 4
tv296 = -148						; size = 4
tv278 = -148						; size = 4
tv271 = -148						; size = 4
tv177 = -148						; size = 4
tv157 = -148						; size = 4
tv137 = -148						; size = 4
tv85 = -148						; size = 4
tv1041 = -144						; size = 4
tv914 = -144						; size = 4
tv892 = -144						; size = 4
tv831 = -144						; size = 4
tv809 = -144						; size = 4
tv748 = -144						; size = 4
tv726 = -144						; size = 4
tv665 = -144						; size = 4
tv643 = -144						; size = 4
tv582 = -144						; size = 4
tv560 = -144						; size = 4
tv499 = -144						; size = 4
tv477 = -144						; size = 4
tv416 = -144						; size = 4
tv394 = -144						; size = 4
tv374 = -144						; size = 4
tv351 = -144						; size = 4
tv328 = -144						; size = 4
tv308 = -144						; size = 4
tv288 = -144						; size = 4
tv279 = -144						; size = 4
tv272 = -144						; size = 4
tv169 = -144						; size = 4
tv149 = -144						; size = 4
tv129 = -144						; size = 4
tv77 = -144						; size = 4
_zpos$1 = -76						; size = 4
_xpos$2 = -72						; size = 4
_wind_speed$3 = -68					; size = 4
_r$4 = -64						; size = 4
_rain_sound_levels$ = -60				; size = 20
_heavy_wind_sound_level$ = -40				; size = 4
_light_wind_sound_level$ = -36				; size = 4
_value$ = -32						; size = 4
_trans$ = -28						; size = 4
_alt$ = -24						; size = 4
_target_weather_mode$ = -20				; size = 4
_current_weather_mode$ = -16				; size = 4
_camera_pos$ = -12					; size = 4
_spec$ = -8						; size = 4
_raw$ = -4						; size = 4
_en$ = 8						; size = 4
?update_session_sound_effects@@YGXPAUENTITY@@@Z PROC	; update_session_sound_effects, COMDAT

; 535  : {

  00000	55		 push	 ebp
  00001	8b ec		 mov	 ebp, esp
  00003	81 ec 9c 00 00
	00		 sub	 esp, 156		; 0000009cH
  00009	53		 push	 ebx
  0000a	56		 push	 esi
  0000b	57		 push	 edi

; 536  : 	session
; 537  : 		*raw;
; 538  : 
; 539  : 	entity
; 540  : 		*spec;
; 541  : 
; 542  : 	vec3d
; 543  : 		*camera_pos;
; 544  : 
; 545  : 	weathermodes
; 546  : 		current_weather_mode,
; 547  : 		target_weather_mode;
; 548  : 
; 549  : 	float
; 550  : 		alt,
; 551  : 		trans,
; 552  : 		value,
; 553  : 		light_wind_sound_level,
; 554  : 		heavy_wind_sound_level,
; 555  : 		rain_sound_levels [WEATHERMODE_LAST];
; 556  : 
; 557  : 	ASSERT (en);

  0000c	83 7d 08 00	 cmp	 DWORD PTR _en$[ebp], 0
  00010	75 18		 jne	 SHORT $LN6@update_ses
  00012	a1 00 00 00 00	 mov	 eax, DWORD PTR ?__LINE__Var@?0??update_session_sound_effects@@YGXPAUENTITY@@@Z@4JA
  00017	83 c0 16	 add	 eax, 22			; 00000016H
  0001a	50		 push	 eax
  0001b	68 00 00 00 00	 push	 OFFSET ??_C@_0EN@MANBNJL@c?3?2users?2nhv90?2projects?2eech?2ap@
  00020	68 00 00 00 00	 push	 OFFSET ??_C@_02LFNMGJAP@en@
  00025	e8 00 00 00 00	 call	 ?process_assert@@YGXPBD0H@Z ; process_assert
$LN6@update_ses:

; 558  : 
; 559  : 	raw = (session *) get_local_entity_data (en);

  0002a	8b 45 08	 mov	 eax, DWORD PTR _en$[ebp]
  0002d	8b 48 04	 mov	 ecx, DWORD PTR [eax+4]
  00030	89 4d fc	 mov	 DWORD PTR _raw$[ebp], ecx

; 560  : 
; 561  : 	if (in_cockpit)

  00033	83 3d 00 00 00
	00 00		 cmp	 DWORD PTR ?in_cockpit@@3HA, 0 ; in_cockpit
  0003a	0f 84 36 01 00
	00		 je	 $LN7@update_ses

; 562  : 	{
; 563  : 		camera_pos = get_local_entity_vec3d_ptr (get_gunship_entity (), VEC3D_TYPE_POSITION);

  00040	83 3d 00 00 00
	00 00		 cmp	 DWORD PTR ?gunship_entity@@3PAUENTITY@@A, 0 ; gunship_entity
  00047	74 0f		 je	 SHORT $LN66@update_ses
  00049	a1 00 00 00 00	 mov	 eax, DWORD PTR ?gunship_entity@@3PAUENTITY@@A ; gunship_entity
  0004e	8b 08		 mov	 ecx, DWORD PTR [eax]
  00050	89 8d 70 ff ff
	ff		 mov	 DWORD PTR tv77[ebp], ecx
  00056	eb 24		 jmp	 SHORT $LN67@update_ses
$LN66@update_ses:
  00058	8b 15 00 00 00
	00		 mov	 edx, DWORD PTR ?__LINE__Var@?0??update_session_sound_effects@@YGXPAUENTITY@@@Z@4JA
  0005e	83 c2 1c	 add	 edx, 28			; 0000001cH
  00061	52		 push	 edx
  00062	68 00 00 00 00	 push	 OFFSET ??_C@_0EN@MANBNJL@c?3?2users?2nhv90?2projects?2eech?2ap@
  00067	a1 00 00 00 00	 mov	 eax, DWORD PTR ?null_entity_pointer_message@@3PBDB ; null_entity_pointer_message
  0006c	50		 push	 eax
  0006d	e8 00 00 00 00	 call	 ?process_assert@@YGXPBD0H@Z ; process_assert
  00072	c7 85 70 ff ff
	ff 00 00 00 00	 mov	 DWORD PTR tv77[ebp], 0
$LN67@update_ses:
  0007c	b9 01 00 00 00	 mov	 ecx, 1
  00081	85 c9		 test	 ecx, ecx
  00083	74 0c		 je	 SHORT $LN68@update_ses
  00085	c7 85 6c ff ff
	ff 08 00 00 00	 mov	 DWORD PTR tv85[ebp], 8
  0008f	eb 24		 jmp	 SHORT $LN69@update_ses
$LN68@update_ses:
  00091	8b 15 00 00 00
	00		 mov	 edx, DWORD PTR ?__LINE__Var@?0??update_session_sound_effects@@YGXPAUENTITY@@@Z@4JA
  00097	83 c2 1c	 add	 edx, 28			; 0000001cH
  0009a	52		 push	 edx
  0009b	68 00 00 00 00	 push	 OFFSET ??_C@_0EN@MANBNJL@c?3?2users?2nhv90?2projects?2eech?2ap@
  000a0	a1 00 00 00 00	 mov	 eax, DWORD PTR ?overload_invalid_vec3d_type_message@@3PBDB ; overload_invalid_vec3d_type_message
  000a5	50		 push	 eax
  000a6	e8 00 00 00 00	 call	 ?process_assert@@YGXPBD0H@Z ; process_assert
  000ab	c7 85 6c ff ff
	ff 00 00 00 00	 mov	 DWORD PTR tv85[ebp], 0
$LN69@update_ses:
  000b5	6a 08		 push	 8
  000b7	8b 0d 00 00 00
	00		 mov	 ecx, DWORD PTR ?gunship_entity@@3PAUENTITY@@A ; gunship_entity
  000bd	51		 push	 ecx
  000be	6b 95 70 ff ff
	ff 60		 imul	 edx, DWORD PTR tv77[ebp], 96
  000c5	8b 85 6c ff ff
	ff		 mov	 eax, DWORD PTR tv85[ebp]
  000cb	8b 8c 82 00 00
	00 00		 mov	 ecx, DWORD PTR ?fn_get_local_entity_vec3d_ptr@@3PAY0BI@P6GPAUVEC3D@@PAUENTITY@@W4VEC3D_TYPES@@@ZA[edx+eax*4]
  000d2	ff d1		 call	 ecx
  000d4	89 45 f4	 mov	 DWORD PTR _camera_pos$[ebp], eax

; 564  : 
; 565  : 		alt = get_local_entity_float_value (get_gunship_entity (), FLOAT_TYPE_RADAR_ALTITUDE);

  000d7	83 3d 00 00 00
	00 00		 cmp	 DWORD PTR ?gunship_entity@@3PAUENTITY@@A, 0 ; gunship_entity
  000de	74 0f		 je	 SHORT $LN70@update_ses
  000e0	a1 00 00 00 00	 mov	 eax, DWORD PTR ?gunship_entity@@3PAUENTITY@@A ; gunship_entity
  000e5	8b 08		 mov	 ecx, DWORD PTR [eax]
  000e7	89 8d 70 ff ff
	ff		 mov	 DWORD PTR tv129[ebp], ecx
  000ed	eb 24		 jmp	 SHORT $LN71@update_ses
$LN70@update_ses:
  000ef	8b 15 00 00 00
	00		 mov	 edx, DWORD PTR ?__LINE__Var@?0??update_session_sound_effects@@YGXPAUENTITY@@@Z@4JA
  000f5	83 c2 1e	 add	 edx, 30			; 0000001eH
  000f8	52		 push	 edx
  000f9	68 00 00 00 00	 push	 OFFSET ??_C@_0EN@MANBNJL@c?3?2users?2nhv90?2projects?2eech?2ap@
  000fe	a1 00 00 00 00	 mov	 eax, DWORD PTR ?null_entity_pointer_message@@3PBDB ; null_entity_pointer_message
  00103	50		 push	 eax
  00104	e8 00 00 00 00	 call	 ?process_assert@@YGXPBD0H@Z ; process_assert
  00109	c7 85 70 ff ff
	ff 00 00 00 00	 mov	 DWORD PTR tv129[ebp], 0
$LN71@update_ses:
  00113	b9 01 00 00 00	 mov	 ecx, 1
  00118	85 c9		 test	 ecx, ecx
  0011a	74 0c		 je	 SHORT $LN72@update_ses
  0011c	c7 85 6c ff ff
	ff 68 00 00 00	 mov	 DWORD PTR tv137[ebp], 104 ; 00000068H
  00126	eb 24		 jmp	 SHORT $LN73@update_ses
$LN72@update_ses:
  00128	8b 15 00 00 00
	00		 mov	 edx, DWORD PTR ?__LINE__Var@?0??update_session_sound_effects@@YGXPAUENTITY@@@Z@4JA
  0012e	83 c2 1e	 add	 edx, 30			; 0000001eH
  00131	52		 push	 edx
  00132	68 00 00 00 00	 push	 OFFSET ??_C@_0EN@MANBNJL@c?3?2users?2nhv90?2projects?2eech?2ap@
  00137	a1 00 00 00 00	 mov	 eax, DWORD PTR ?overload_invalid_float_type_message@@3PBDB ; overload_invalid_float_type_message
  0013c	50		 push	 eax
  0013d	e8 00 00 00 00	 call	 ?process_assert@@YGXPBD0H@Z ; process_assert
  00142	c7 85 6c ff ff
	ff 00 00 00 00	 mov	 DWORD PTR tv137[ebp], 0
$LN73@update_ses:
  0014c	6a 68		 push	 104			; 00000068H
  0014e	8b 0d 00 00 00
	00		 mov	 ecx, DWORD PTR ?gunship_entity@@3PAUENTITY@@A ; gunship_entity
  00154	51		 push	 ecx
  00155	69 95 70 ff ff
	ff bc 02 00 00	 imul	 edx, DWORD PTR tv129[ebp], 700
  0015f	8b 85 6c ff ff
	ff		 mov	 eax, DWORD PTR tv137[ebp]
  00165	8b 8c 82 00 00
	00 00		 mov	 ecx, DWORD PTR ?fn_get_local_entity_float_value@@3PAY0KP@P6GMPAUENTITY@@W4FLOAT_TYPES@@@ZA[edx+eax*4]
  0016c	ff d1		 call	 ecx
  0016e	d9 5d e8	 fstp	 DWORD PTR _alt$[ebp]

; 566  : 	}
; 567  : 	else

  00171	e9 31 01 00 00	 jmp	 $LN8@update_ses
$LN7@update_ses:

; 568  : 	{
; 569  : 		camera_pos = get_local_entity_vec3d_ptr (get_camera_entity (), VEC3D_TYPE_POSITION);

  00176	83 3d 00 00 00
	00 00		 cmp	 DWORD PTR ?camera_entity@@3PAUENTITY@@A, 0 ; camera_entity
  0017d	74 0f		 je	 SHORT $LN74@update_ses
  0017f	a1 00 00 00 00	 mov	 eax, DWORD PTR ?camera_entity@@3PAUENTITY@@A ; camera_entity
  00184	8b 08		 mov	 ecx, DWORD PTR [eax]
  00186	89 8d 70 ff ff
	ff		 mov	 DWORD PTR tv149[ebp], ecx
  0018c	eb 24		 jmp	 SHORT $LN75@update_ses
$LN74@update_ses:
  0018e	8b 15 00 00 00
	00		 mov	 edx, DWORD PTR ?__LINE__Var@?0??update_session_sound_effects@@YGXPAUENTITY@@@Z@4JA
  00194	83 c2 22	 add	 edx, 34			; 00000022H
  00197	52		 push	 edx
  00198	68 00 00 00 00	 push	 OFFSET ??_C@_0EN@MANBNJL@c?3?2users?2nhv90?2projects?2eech?2ap@
  0019d	a1 00 00 00 00	 mov	 eax, DWORD PTR ?null_entity_pointer_message@@3PBDB ; null_entity_pointer_message
  001a2	50		 push	 eax
  001a3	e8 00 00 00 00	 call	 ?process_assert@@YGXPBD0H@Z ; process_assert
  001a8	c7 85 70 ff ff
	ff 00 00 00 00	 mov	 DWORD PTR tv149[ebp], 0
$LN75@update_ses:
  001b2	b9 01 00 00 00	 mov	 ecx, 1
  001b7	85 c9		 test	 ecx, ecx
  001b9	74 0c		 je	 SHORT $LN76@update_ses
  001bb	c7 85 6c ff ff
	ff 08 00 00 00	 mov	 DWORD PTR tv157[ebp], 8
  001c5	eb 24		 jmp	 SHORT $LN77@update_ses
$LN76@update_ses:
  001c7	8b 15 00 00 00
	00		 mov	 edx, DWORD PTR ?__LINE__Var@?0??update_session_sound_effects@@YGXPAUENTITY@@@Z@4JA
  001cd	83 c2 22	 add	 edx, 34			; 00000022H
  001d0	52		 push	 edx
  001d1	68 00 00 00 00	 push	 OFFSET ??_C@_0EN@MANBNJL@c?3?2users?2nhv90?2projects?2eech?2ap@
  001d6	a1 00 00 00 00	 mov	 eax, DWORD PTR ?overload_invalid_vec3d_type_message@@3PBDB ; overload_invalid_vec3d_type_message
  001db	50		 push	 eax
  001dc	e8 00 00 00 00	 call	 ?process_assert@@YGXPBD0H@Z ; process_assert
  001e1	c7 85 6c ff ff
	ff 00 00 00 00	 mov	 DWORD PTR tv157[ebp], 0
$LN77@update_ses:
  001eb	6a 08		 push	 8
  001ed	8b 0d 00 00 00
	00		 mov	 ecx, DWORD PTR ?camera_entity@@3PAUENTITY@@A ; camera_entity
  001f3	51		 push	 ecx
  001f4	6b 95 70 ff ff
	ff 60		 imul	 edx, DWORD PTR tv149[ebp], 96
  001fb	8b 85 6c ff ff
	ff		 mov	 eax, DWORD PTR tv157[ebp]
  00201	8b 8c 82 00 00
	00 00		 mov	 ecx, DWORD PTR ?fn_get_local_entity_vec3d_ptr@@3PAY0BI@P6GPAUVEC3D@@PAUENTITY@@W4VEC3D_TYPES@@@ZA[edx+eax*4]
  00208	ff d1		 call	 ecx
  0020a	89 45 f4	 mov	 DWORD PTR _camera_pos$[ebp], eax

; 570  : 
; 571  : 		alt = get_local_entity_float_value (get_camera_entity (), FLOAT_TYPE_RADAR_ALTITUDE);

  0020d	83 3d 00 00 00
	00 00		 cmp	 DWORD PTR ?camera_entity@@3PAUENTITY@@A, 0 ; camera_entity
  00214	74 0f		 je	 SHORT $LN78@update_ses
  00216	a1 00 00 00 00	 mov	 eax, DWORD PTR ?camera_entity@@3PAUENTITY@@A ; camera_entity
  0021b	8b 08		 mov	 ecx, DWORD PTR [eax]
  0021d	89 8d 70 ff ff
	ff		 mov	 DWORD PTR tv169[ebp], ecx
  00223	eb 24		 jmp	 SHORT $LN79@update_ses
$LN78@update_ses:
  00225	8b 15 00 00 00
	00		 mov	 edx, DWORD PTR ?__LINE__Var@?0??update_session_sound_effects@@YGXPAUENTITY@@@Z@4JA
  0022b	83 c2 24	 add	 edx, 36			; 00000024H
  0022e	52		 push	 edx
  0022f	68 00 00 00 00	 push	 OFFSET ??_C@_0EN@MANBNJL@c?3?2users?2nhv90?2projects?2eech?2ap@
  00234	a1 00 00 00 00	 mov	 eax, DWORD PTR ?null_entity_pointer_message@@3PBDB ; null_entity_pointer_message
  00239	50		 push	 eax
  0023a	e8 00 00 00 00	 call	 ?process_assert@@YGXPBD0H@Z ; process_assert
  0023f	c7 85 70 ff ff
	ff 00 00 00 00	 mov	 DWORD PTR tv169[ebp], 0
$LN79@update_ses:
  00249	b9 01 00 00 00	 mov	 ecx, 1
  0024e	85 c9		 test	 ecx, ecx
  00250	74 0c		 je	 SHORT $LN80@update_ses
  00252	c7 85 6c ff ff
	ff 68 00 00 00	 mov	 DWORD PTR tv177[ebp], 104 ; 00000068H
  0025c	eb 24		 jmp	 SHORT $LN81@update_ses
$LN80@update_ses:
  0025e	8b 15 00 00 00
	00		 mov	 edx, DWORD PTR ?__LINE__Var@?0??update_session_sound_effects@@YGXPAUENTITY@@@Z@4JA
  00264	83 c2 24	 add	 edx, 36			; 00000024H
  00267	52		 push	 edx
  00268	68 00 00 00 00	 push	 OFFSET ??_C@_0EN@MANBNJL@c?3?2users?2nhv90?2projects?2eech?2ap@
  0026d	a1 00 00 00 00	 mov	 eax, DWORD PTR ?overload_invalid_float_type_message@@3PBDB ; overload_invalid_float_type_message
  00272	50		 push	 eax
  00273	e8 00 00 00 00	 call	 ?process_assert@@YGXPBD0H@Z ; process_assert
  00278	c7 85 6c ff ff
	ff 00 00 00 00	 mov	 DWORD PTR tv177[ebp], 0
$LN81@update_ses:
  00282	6a 68		 push	 104			; 00000068H
  00284	8b 0d 00 00 00
	00		 mov	 ecx, DWORD PTR ?camera_entity@@3PAUENTITY@@A ; camera_entity
  0028a	51		 push	 ecx
  0028b	69 95 70 ff ff
	ff bc 02 00 00	 imul	 edx, DWORD PTR tv169[ebp], 700
  00295	8b 85 6c ff ff
	ff		 mov	 eax, DWORD PTR tv177[ebp]
  0029b	8b 8c 82 00 00
	00 00		 mov	 ecx, DWORD PTR ?fn_get_local_entity_float_value@@3PAY0KP@P6GMPAUENTITY@@W4FLOAT_TYPES@@@ZA[edx+eax*4]
  002a2	ff d1		 call	 ecx
  002a4	d9 5d e8	 fstp	 DWORD PTR _alt$[ebp]
$LN8@update_ses:

; 572  : 	}
; 573  : 
; 574  : 	//
; 575  : 	// rain
; 576  : 	//
; 577  : 
; 578  : 	memset (rain_sound_levels, 0, sizeof (float) * WEATHERMODE_LAST);

  002a7	6a 14		 push	 20			; 00000014H
  002a9	6a 00		 push	 0
  002ab	8d 45 c4	 lea	 eax, DWORD PTR _rain_sound_levels$[ebp]
  002ae	50		 push	 eax
  002af	e8 00 00 00 00	 call	 _memset
  002b4	83 c4 0c	 add	 esp, 12			; 0000000cH

; 579  : 
; 580  : 	if (camera_pos->y < get_cloud_3d_base_height ())

  002b7	e8 00 00 00 00	 call	 ?get_cloud_3d_base_height@@YGMXZ ; get_cloud_3d_base_height
  002bc	d9 9d 70 ff ff
	ff		 fstp	 DWORD PTR tv1041[ebp]
  002c2	f3 0f 10 85 70
	ff ff ff	 movss	 xmm0, DWORD PTR tv1041[ebp]
  002ca	8b 45 f4	 mov	 eax, DWORD PTR _camera_pos$[ebp]
  002cd	0f 2f 40 04	 comiss	 xmm0, DWORD PTR [eax+4]
  002d1	0f 86 f9 00 00
	00		 jbe	 $LN14@update_ses

; 581  : 	{
; 582  : 		if ((!in_cockpit) && (alt >= SESSION_RAIN_SOUND_EFFECT_ZERO_VOLUME_ALTITUDE))

  002d7	83 3d 00 00 00
	00 00		 cmp	 DWORD PTR ?in_cockpit@@3HA, 0 ; in_cockpit
  002de	75 14		 jne	 SHORT $LN10@update_ses
  002e0	f3 0f 5a 45 e8	 cvtss2sd xmm0, DWORD PTR _alt$[ebp]
  002e5	66 0f 2f 05 00
	00 00 00	 comisd	 xmm0, QWORD PTR __real@4066800000000000
  002ed	72 05		 jb	 SHORT $LN10@update_ses

; 583  : 		{
; 584  : 			//
; 585  : 			// rain should only make a sound when it hits either the cockpit, or the ground
; 586  : 			//
; 587  : 		}
; 588  : 		else

  002ef	e9 dc 00 00 00	 jmp	 $LN14@update_ses
$LN10@update_ses:

; 589  : 		{
; 590  : 			get_session_weather_at_point (camera_pos, &current_weather_mode, &target_weather_mode, &trans);

  002f4	8d 45 e4	 lea	 eax, DWORD PTR _trans$[ebp]
  002f7	50		 push	 eax
  002f8	8d 4d ec	 lea	 ecx, DWORD PTR _target_weather_mode$[ebp]
  002fb	51		 push	 ecx
  002fc	8d 55 f0	 lea	 edx, DWORD PTR _current_weather_mode$[ebp]
  002ff	52		 push	 edx
  00300	8b 45 f4	 mov	 eax, DWORD PTR _camera_pos$[ebp]
  00303	50		 push	 eax
  00304	e8 00 00 00 00	 call	 ?get_session_weather_at_point@@YGXPAUVEC3D@@PAW4WEATHERMODES@@1PAM@Z ; get_session_weather_at_point

; 591  : 
; 592  : 			if (target_weather_mode == current_weather_mode)

  00309	8b 45 ec	 mov	 eax, DWORD PTR _target_weather_mode$[ebp]
  0030c	3b 45 f0	 cmp	 eax, DWORD PTR _current_weather_mode$[ebp]
  0030f	75 24		 jne	 SHORT $LN12@update_ses

; 593  : 			{
; 594  : 				rain_sound_levels [target_weather_mode] = 1.0;

  00311	8b 45 ec	 mov	 eax, DWORD PTR _target_weather_mode$[ebp]
  00314	f3 0f 10 05 00
	00 00 00	 movss	 xmm0, DWORD PTR __real@3f800000
  0031c	f3 0f 11 44 85
	c4		 movss	 DWORD PTR _rain_sound_levels$[ebp+eax*4], xmm0

; 595  : 				rain_sound_levels [current_weather_mode] = 1.0;

  00322	8b 45 f0	 mov	 eax, DWORD PTR _current_weather_mode$[ebp]
  00325	f3 0f 10 05 00
	00 00 00	 movss	 xmm0, DWORD PTR __real@3f800000
  0032d	f3 0f 11 44 85
	c4		 movss	 DWORD PTR _rain_sound_levels$[ebp+eax*4], xmm0

; 596  : 			}
; 597  : 			else

  00333	eb 2c		 jmp	 SHORT $LN13@update_ses
$LN12@update_ses:

; 598  : 			{
; 599  : 				rain_sound_levels [target_weather_mode] = trans;

  00335	8b 45 ec	 mov	 eax, DWORD PTR _target_weather_mode$[ebp]
  00338	f3 0f 10 45 e4	 movss	 xmm0, DWORD PTR _trans$[ebp]
  0033d	f3 0f 11 44 85
	c4		 movss	 DWORD PTR _rain_sound_levels$[ebp+eax*4], xmm0

; 600  : 				rain_sound_levels [current_weather_mode] = (1.0 - trans);

  00343	f3 0f 5a 45 e4	 cvtss2sd xmm0, DWORD PTR _trans$[ebp]
  00348	f2 0f 10 0d 00
	00 00 00	 movsd	 xmm1, QWORD PTR __real@3ff0000000000000
  00350	f2 0f 5c c8	 subsd	 xmm1, xmm0
  00354	f2 0f 5a c1	 cvtsd2ss xmm0, xmm1
  00358	8b 45 f0	 mov	 eax, DWORD PTR _current_weather_mode$[ebp]
  0035b	f3 0f 11 44 85
	c4		 movss	 DWORD PTR _rain_sound_levels$[ebp+eax*4], xmm0
$LN13@update_ses:

; 601  : 			}
; 602  : 
; 603  : 			if (!in_cockpit)

  00361	83 3d 00 00 00
	00 00		 cmp	 DWORD PTR ?in_cockpit@@3HA, 0 ; in_cockpit
  00368	75 66		 jne	 SHORT $LN14@update_ses

; 604  : 			{
; 605  : 				rain_sound_levels [target_weather_mode] *= (1.0 - (alt / SESSION_RAIN_SOUND_EFFECT_ZERO_VOLUME_ALTITUDE));

  0036a	f3 0f 5a 45 e8	 cvtss2sd xmm0, DWORD PTR _alt$[ebp]
  0036f	f2 0f 5e 05 00
	00 00 00	 divsd	 xmm0, QWORD PTR __real@4066800000000000
  00377	f2 0f 10 0d 00
	00 00 00	 movsd	 xmm1, QWORD PTR __real@3ff0000000000000
  0037f	f2 0f 5c c8	 subsd	 xmm1, xmm0
  00383	8b 45 ec	 mov	 eax, DWORD PTR _target_weather_mode$[ebp]
  00386	f3 0f 5a 44 85
	c4		 cvtss2sd xmm0, DWORD PTR _rain_sound_levels$[ebp+eax*4]
  0038c	f2 0f 59 c1	 mulsd	 xmm0, xmm1
  00390	f2 0f 5a c0	 cvtsd2ss xmm0, xmm0
  00394	8b 4d ec	 mov	 ecx, DWORD PTR _target_weather_mode$[ebp]
  00397	f3 0f 11 44 8d
	c4		 movss	 DWORD PTR _rain_sound_levels$[ebp+ecx*4], xmm0

; 606  : 				rain_sound_levels [current_weather_mode] *= (1.0 - (alt / SESSION_RAIN_SOUND_EFFECT_ZERO_VOLUME_ALTITUDE));

  0039d	f3 0f 5a 45 e8	 cvtss2sd xmm0, DWORD PTR _alt$[ebp]
  003a2	f2 0f 5e 05 00
	00 00 00	 divsd	 xmm0, QWORD PTR __real@4066800000000000
  003aa	f2 0f 10 0d 00
	00 00 00	 movsd	 xmm1, QWORD PTR __real@3ff0000000000000
  003b2	f2 0f 5c c8	 subsd	 xmm1, xmm0
  003b6	8b 45 f0	 mov	 eax, DWORD PTR _current_weather_mode$[ebp]
  003b9	f3 0f 5a 44 85
	c4		 cvtss2sd xmm0, DWORD PTR _rain_sound_levels$[ebp+eax*4]
  003bf	f2 0f 59 c1	 mulsd	 xmm0, xmm1
  003c3	f2 0f 5a c0	 cvtsd2ss xmm0, xmm0
  003c7	8b 4d f0	 mov	 ecx, DWORD PTR _current_weather_mode$[ebp]
  003ca	f3 0f 11 44 8d
	c4		 movss	 DWORD PTR _rain_sound_levels$[ebp+ecx*4], xmm0
$LN14@update_ses:

; 607  : 			}
; 608  : 		}
; 609  : 	}
; 610  : 	
; 611  : 	//
; 612  : 	// wind
; 613  : 	//
; 614  : 	{
; 615  : 		float
; 616  : 			r,
; 617  : 			wind_speed;
; 618  : 	
; 619  : 		wind_speed = get_session_wind_velocity_at_point (camera_pos, NULL);

  003d0	6a 00		 push	 0
  003d2	8b 45 f4	 mov	 eax, DWORD PTR _camera_pos$[ebp]
  003d5	50		 push	 eax
  003d6	e8 00 00 00 00	 call	 ?get_session_wind_velocity_at_point@@YGMPAUVEC3D@@0@Z ; get_session_wind_velocity_at_point
  003db	d9 5d bc	 fstp	 DWORD PTR _wind_speed$3[ebp]

; 620  : 
; 621  : 		if (wind_speed <= raw->wind_minimum_speed)

  003de	8b 45 fc	 mov	 eax, DWORD PTR _raw$[ebp]
  003e1	f3 0f 10 40 64	 movss	 xmm0, DWORD PTR [eax+100]
  003e6	0f 2f 45 bc	 comiss	 xmm0, DWORD PTR _wind_speed$3[ebp]
  003ea	72 0a		 jb	 SHORT $LN15@update_ses

; 622  : 		{
; 623  : 			r = 0.0;

  003ec	0f 57 c0	 xorps	 xmm0, xmm0
  003ef	f3 0f 11 45 c0	 movss	 DWORD PTR _r$4[ebp], xmm0
  003f4	eb 43		 jmp	 SHORT $LN18@update_ses
$LN15@update_ses:

; 624  : 		}
; 625  : 		else if (wind_speed >= raw->wind_maximum_speed)

  003f6	8b 45 fc	 mov	 eax, DWORD PTR _raw$[ebp]
  003f9	f3 0f 10 45 bc	 movss	 xmm0, DWORD PTR _wind_speed$3[ebp]
  003fe	0f 2f 40 68	 comiss	 xmm0, DWORD PTR [eax+104]
  00402	72 0f		 jb	 SHORT $LN17@update_ses

; 626  : 		{
; 627  : 			r = 1.0;

  00404	f3 0f 10 05 00
	00 00 00	 movss	 xmm0, DWORD PTR __real@3f800000
  0040c	f3 0f 11 45 c0	 movss	 DWORD PTR _r$4[ebp], xmm0

; 628  : 		}
; 629  : 		else

  00411	eb 26		 jmp	 SHORT $LN18@update_ses
$LN17@update_ses:

; 630  : 		{
; 631  : 			r = (wind_speed - raw->wind_minimum_speed) / (raw->wind_maximum_speed - raw->wind_minimum_speed);

  00413	8b 45 fc	 mov	 eax, DWORD PTR _raw$[ebp]
  00416	f3 0f 10 45 bc	 movss	 xmm0, DWORD PTR _wind_speed$3[ebp]
  0041b	f3 0f 5c 40 64	 subss	 xmm0, DWORD PTR [eax+100]
  00420	8b 4d fc	 mov	 ecx, DWORD PTR _raw$[ebp]
  00423	8b 55 fc	 mov	 edx, DWORD PTR _raw$[ebp]
  00426	f3 0f 10 49 68	 movss	 xmm1, DWORD PTR [ecx+104]
  0042b	f3 0f 5c 4a 64	 subss	 xmm1, DWORD PTR [edx+100]
  00430	f3 0f 5e c1	 divss	 xmm0, xmm1
  00434	f3 0f 11 45 c0	 movss	 DWORD PTR _r$4[ebp], xmm0
$LN18@update_ses:

; 632  : 		}
; 633  : 		
; 634  : 		ASSERT ((r >= 0.0) && (r <= 1.0));

  00439	f3 0f 5a 45 c0	 cvtss2sd xmm0, DWORD PTR _r$4[ebp]
  0043e	66 0f 2f 05 00
	00 00 00	 comisd	 xmm0, QWORD PTR __real@0000000000000000
  00446	72 13		 jb	 SHORT $LN20@update_ses
  00448	f3 0f 5a 45 c0	 cvtss2sd xmm0, DWORD PTR _r$4[ebp]
  0044d	f2 0f 10 0d 00
	00 00 00	 movsd	 xmm1, QWORD PTR __real@3ff0000000000000
  00455	66 0f 2f c8	 comisd	 xmm1, xmm0
  00459	73 18		 jae	 SHORT $LN19@update_ses
$LN20@update_ses:
  0045b	a1 00 00 00 00	 mov	 eax, DWORD PTR ?__LINE__Var@?0??update_session_sound_effects@@YGXPAUENTITY@@@Z@4JA
  00460	83 c0 63	 add	 eax, 99			; 00000063H
  00463	50		 push	 eax
  00464	68 00 00 00 00	 push	 OFFSET ??_C@_0EN@MANBNJL@c?3?2users?2nhv90?2projects?2eech?2ap@
  00469	68 00 00 00 00	 push	 OFFSET ??_C@_0BJ@KKEKKMPB@?$CIr?5?$DO?$DN?50?40?$CJ?5?$CG?$CG?5?$CIr?5?$DM?$DN?51?40?$CJ@
  0046e	e8 00 00 00 00	 call	 ?process_assert@@YGXPBD0H@Z ; process_assert
$LN19@update_ses:

; 635  : 
; 636  : 		if (r == 0.0)

  00473	f3 0f 5a 45 c0	 cvtss2sd xmm0, DWORD PTR _r$4[ebp]
  00478	66 0f 2e 05 00
	00 00 00	 ucomisd xmm0, QWORD PTR __real@0000000000000000
  00480	9f		 lahf
  00481	f6 c4 44	 test	 ah, 68			; 00000044H
  00484	7a 12		 jp	 SHORT $LN21@update_ses

; 637  : 		{
; 638  : 			light_wind_sound_level = 0.0;

  00486	0f 57 c0	 xorps	 xmm0, xmm0
  00489	f3 0f 11 45 dc	 movss	 DWORD PTR _light_wind_sound_level$[ebp], xmm0

; 639  : 
; 640  : 			heavy_wind_sound_level = 0.0;

  0048e	0f 57 c0	 xorps	 xmm0, xmm0
  00491	f3 0f 11 45 d8	 movss	 DWORD PTR _heavy_wind_sound_level$[ebp], xmm0
  00496	eb 7b		 jmp	 SHORT $LN24@update_ses
$LN21@update_ses:

; 641  : 		}
; 642  : 		else if (r < 0.5)

  00498	f3 0f 5a 45 c0	 cvtss2sd xmm0, DWORD PTR _r$4[ebp]
  0049d	f2 0f 10 0d 00
	00 00 00	 movsd	 xmm1, QWORD PTR __real@3fe0000000000000
  004a5	66 0f 2f c8	 comisd	 xmm1, xmm0
  004a9	76 20		 jbe	 SHORT $LN23@update_ses

; 643  : 		{
; 644  : 			light_wind_sound_level = r * 2.0;

  004ab	f3 0f 5a 45 c0	 cvtss2sd xmm0, DWORD PTR _r$4[ebp]
  004b0	f2 0f 59 05 00
	00 00 00	 mulsd	 xmm0, QWORD PTR __real@4000000000000000
  004b8	f2 0f 5a c0	 cvtsd2ss xmm0, xmm0
  004bc	f3 0f 11 45 dc	 movss	 DWORD PTR _light_wind_sound_level$[ebp], xmm0

; 645  : 
; 646  : 			heavy_wind_sound_level = 0.0;

  004c1	0f 57 c0	 xorps	 xmm0, xmm0
  004c4	f3 0f 11 45 d8	 movss	 DWORD PTR _heavy_wind_sound_level$[ebp], xmm0

; 647  : 		}
; 648  : 		else

  004c9	eb 48		 jmp	 SHORT $LN24@update_ses
$LN23@update_ses:

; 649  : 		{
; 650  : 			light_wind_sound_level = 1.0 - ((r - 0.5) * 2.0);

  004cb	f3 0f 5a 45 c0	 cvtss2sd xmm0, DWORD PTR _r$4[ebp]
  004d0	f2 0f 5c 05 00
	00 00 00	 subsd	 xmm0, QWORD PTR __real@3fe0000000000000
  004d8	f2 0f 59 05 00
	00 00 00	 mulsd	 xmm0, QWORD PTR __real@4000000000000000
  004e0	f2 0f 10 0d 00
	00 00 00	 movsd	 xmm1, QWORD PTR __real@3ff0000000000000
  004e8	f2 0f 5c c8	 subsd	 xmm1, xmm0
  004ec	f2 0f 5a c1	 cvtsd2ss xmm0, xmm1
  004f0	f3 0f 11 45 dc	 movss	 DWORD PTR _light_wind_sound_level$[ebp], xmm0

; 651  : 
; 652  : 			heavy_wind_sound_level = (r - 0.5) * 2.0;

  004f5	f3 0f 5a 45 c0	 cvtss2sd xmm0, DWORD PTR _r$4[ebp]
  004fa	f2 0f 5c 05 00
	00 00 00	 subsd	 xmm0, QWORD PTR __real@3fe0000000000000
  00502	f2 0f 59 05 00
	00 00 00	 mulsd	 xmm0, QWORD PTR __real@4000000000000000
  0050a	f2 0f 5a c0	 cvtsd2ss xmm0, xmm0
  0050e	f3 0f 11 45 d8	 movss	 DWORD PTR _heavy_wind_sound_level$[ebp], xmm0
$LN24@update_ses:

; 653  : 		}
; 654  : 	}
; 655  : 
; 656  : 	//
; 657  : 	// terrain
; 658  : 	//
; 659  : 	{
; 660  : 		float
; 661  : 			xpos,
; 662  : 			zpos;
; 663  : 
; 664  : 		xpos = bound (camera_pos->x, MIN_MAP_X, MAX_MAP_X);

  00513	8b 45 f4	 mov	 eax, DWORD PTR _camera_pos$[ebp]
  00516	f3 0f 10 05 24
	00 00 00	 movss	 xmm0, DWORD PTR ?world_map@@3UWORLD_MAP_DATA@@A+36
  0051e	0f 2f 00	 comiss	 xmm0, DWORD PTR [eax]
  00521	76 12		 jbe	 SHORT $LN84@update_ses
  00523	f3 0f 10 05 24
	00 00 00	 movss	 xmm0, DWORD PTR ?world_map@@3UWORLD_MAP_DATA@@A+36
  0052b	f3 0f 11 85 70
	ff ff ff	 movss	 DWORD PTR tv272[ebp], xmm0
  00533	eb 41		 jmp	 SHORT $LN85@update_ses
$LN84@update_ses:
  00535	8b 4d f4	 mov	 ecx, DWORD PTR _camera_pos$[ebp]
  00538	f3 0f 10 01	 movss	 xmm0, DWORD PTR [ecx]
  0053c	0f 2f 05 3c 00
	00 00		 comiss	 xmm0, DWORD PTR ?world_map@@3UWORLD_MAP_DATA@@A+60
  00543	76 12		 jbe	 SHORT $LN82@update_ses
  00545	f3 0f 10 05 3c
	00 00 00	 movss	 xmm0, DWORD PTR ?world_map@@3UWORLD_MAP_DATA@@A+60
  0054d	f3 0f 11 85 6c
	ff ff ff	 movss	 DWORD PTR tv271[ebp], xmm0
  00555	eb 0f		 jmp	 SHORT $LN83@update_ses
$LN82@update_ses:
  00557	8b 55 f4	 mov	 edx, DWORD PTR _camera_pos$[ebp]
  0055a	f3 0f 10 02	 movss	 xmm0, DWORD PTR [edx]
  0055e	f3 0f 11 85 6c
	ff ff ff	 movss	 DWORD PTR tv271[ebp], xmm0
$LN83@update_ses:
  00566	f3 0f 10 85 6c
	ff ff ff	 movss	 xmm0, DWORD PTR tv271[ebp]
  0056e	f3 0f 11 85 70
	ff ff ff	 movss	 DWORD PTR tv272[ebp], xmm0
$LN85@update_ses:
  00576	f3 0f 10 85 70
	ff ff ff	 movss	 xmm0, DWORD PTR tv272[ebp]
  0057e	f3 0f 11 45 b8	 movss	 DWORD PTR _xpos$2[ebp], xmm0

; 665  : 		zpos = bound (camera_pos->z, MIN_MAP_Z, MAX_MAP_Z);

  00583	8b 45 f4	 mov	 eax, DWORD PTR _camera_pos$[ebp]
  00586	f3 0f 10 05 2c
	00 00 00	 movss	 xmm0, DWORD PTR ?world_map@@3UWORLD_MAP_DATA@@A+44
  0058e	0f 2f 40 08	 comiss	 xmm0, DWORD PTR [eax+8]
  00592	76 12		 jbe	 SHORT $LN88@update_ses
  00594	f3 0f 10 05 2c
	00 00 00	 movss	 xmm0, DWORD PTR ?world_map@@3UWORLD_MAP_DATA@@A+44
  0059c	f3 0f 11 85 70
	ff ff ff	 movss	 DWORD PTR tv279[ebp], xmm0
  005a4	eb 43		 jmp	 SHORT $LN89@update_ses
$LN88@update_ses:
  005a6	8b 4d f4	 mov	 ecx, DWORD PTR _camera_pos$[ebp]
  005a9	f3 0f 10 41 08	 movss	 xmm0, DWORD PTR [ecx+8]
  005ae	0f 2f 05 44 00
	00 00		 comiss	 xmm0, DWORD PTR ?world_map@@3UWORLD_MAP_DATA@@A+68
  005b5	76 12		 jbe	 SHORT $LN86@update_ses
  005b7	f3 0f 10 05 44
	00 00 00	 movss	 xmm0, DWORD PTR ?world_map@@3UWORLD_MAP_DATA@@A+68
  005bf	f3 0f 11 85 6c
	ff ff ff	 movss	 DWORD PTR tv278[ebp], xmm0
  005c7	eb 10		 jmp	 SHORT $LN87@update_ses
$LN86@update_ses:
  005c9	8b 55 f4	 mov	 edx, DWORD PTR _camera_pos$[ebp]
  005cc	f3 0f 10 42 08	 movss	 xmm0, DWORD PTR [edx+8]
  005d1	f3 0f 11 85 6c
	ff ff ff	 movss	 DWORD PTR tv278[ebp], xmm0
$LN87@update_ses:
  005d9	f3 0f 10 85 6c
	ff ff ff	 movss	 xmm0, DWORD PTR tv278[ebp]
  005e1	f3 0f 11 85 70
	ff ff ff	 movss	 DWORD PTR tv279[ebp], xmm0
$LN89@update_ses:
  005e9	f3 0f 10 85 70
	ff ff ff	 movss	 xmm0, DWORD PTR tv279[ebp]
  005f1	f3 0f 11 45 b4	 movss	 DWORD PTR _zpos$1[ebp], xmm0

; 666  : 		
; 667  : 		get_terrain_3d_types_in_sector (xpos, zpos);

  005f6	51		 push	 ecx
  005f7	f3 0f 10 45 b4	 movss	 xmm0, DWORD PTR _zpos$1[ebp]
  005fc	f3 0f 11 04 24	 movss	 DWORD PTR [esp], xmm0
  00601	51		 push	 ecx
  00602	f3 0f 10 45 b8	 movss	 xmm0, DWORD PTR _xpos$2[ebp]
  00607	f3 0f 11 04 24	 movss	 DWORD PTR [esp], xmm0
  0060c	e8 00 00 00 00	 call	 ?get_terrain_3d_types_in_sector@@YGHMM@Z ; get_terrain_3d_types_in_sector

; 668  : 	}
; 669  : 
; 670  : 	//
; 671  : 	// set new values
; 672  : 	//
; 673  : 
; 674  : 	spec = get_local_entity_first_child (en, LIST_TYPE_SPECIAL_EFFECT);

  00611	83 7d 08 00	 cmp	 DWORD PTR _en$[ebp], 0
  00615	74 0d		 je	 SHORT $LN90@update_ses
  00617	8b 45 08	 mov	 eax, DWORD PTR _en$[ebp]
  0061a	8b 08		 mov	 ecx, DWORD PTR [eax]
  0061c	89 8d 70 ff ff
	ff		 mov	 DWORD PTR tv288[ebp], ecx
  00622	eb 27		 jmp	 SHORT $LN91@update_ses
$LN90@update_ses:
  00624	8b 15 00 00 00
	00		 mov	 edx, DWORD PTR ?__LINE__Var@?0??update_session_sound_effects@@YGXPAUENTITY@@@Z@4JA
  0062a	81 c2 8b 00 00
	00		 add	 edx, 139		; 0000008bH
  00630	52		 push	 edx
  00631	68 00 00 00 00	 push	 OFFSET ??_C@_0EN@MANBNJL@c?3?2users?2nhv90?2projects?2eech?2ap@
  00636	a1 00 00 00 00	 mov	 eax, DWORD PTR ?null_entity_pointer_message@@3PBDB ; null_entity_pointer_message
  0063b	50		 push	 eax
  0063c	e8 00 00 00 00	 call	 ?process_assert@@YGXPBD0H@Z ; process_assert
  00641	c7 85 70 ff ff
	ff 00 00 00 00	 mov	 DWORD PTR tv288[ebp], 0
$LN91@update_ses:
  0064b	b9 01 00 00 00	 mov	 ecx, 1
  00650	85 c9		 test	 ecx, ecx
  00652	74 0c		 je	 SHORT $LN92@update_ses
  00654	c7 85 6c ff ff
	ff 24 00 00 00	 mov	 DWORD PTR tv296[ebp], 36 ; 00000024H
  0065e	eb 27		 jmp	 SHORT $LN93@update_ses
$LN92@update_ses:
  00660	8b 15 00 00 00
	00		 mov	 edx, DWORD PTR ?__LINE__Var@?0??update_session_sound_effects@@YGXPAUENTITY@@@Z@4JA
  00666	81 c2 8b 00 00
	00		 add	 edx, 139		; 0000008bH
  0066c	52		 push	 edx
  0066d	68 00 00 00 00	 push	 OFFSET ??_C@_0EN@MANBNJL@c?3?2users?2nhv90?2projects?2eech?2ap@
  00672	a1 00 00 00 00	 mov	 eax, DWORD PTR ?overload_invalid_list_type_message@@3PBDB ; overload_invalid_list_type_message
  00677	50		 push	 eax
  00678	e8 00 00 00 00	 call	 ?process_assert@@YGXPBD0H@Z ; process_assert
  0067d	c7 85 6c ff ff
	ff 00 00 00 00	 mov	 DWORD PTR tv296[ebp], 0
$LN93@update_ses:
  00687	6a 24		 push	 36			; 00000024H
  00689	8b 4d 08	 mov	 ecx, DWORD PTR _en$[ebp]
  0068c	51		 push	 ecx
  0068d	69 95 70 ff ff
	ff b4 00 00 00	 imul	 edx, DWORD PTR tv288[ebp], 180
  00697	8b 85 6c ff ff
	ff		 mov	 eax, DWORD PTR tv296[ebp]
  0069d	8b 8c 82 00 00
	00 00		 mov	 ecx, DWORD PTR ?fn_get_local_entity_first_child@@3PAY0CN@P6GPAUENTITY@@PAU1@W4LIST_TYPES@@@ZA[edx+eax*4]
  006a4	ff d1		 call	 ecx
  006a6	89 45 f8	 mov	 DWORD PTR _spec$[ebp], eax
$LN2@update_ses:

; 675  : 
; 676  : 	while (spec)

  006a9	83 7d f8 00	 cmp	 DWORD PTR _spec$[ebp], 0
  006ad	0f 84 39 15 00
	00		 je	 $LN3@update_ses

; 677  : 	{
; 678  : 		switch (get_local_entity_int_value (spec, INT_TYPE_ENTITY_SUB_TYPE))

  006b3	83 7d f8 00	 cmp	 DWORD PTR _spec$[ebp], 0
  006b7	74 0d		 je	 SHORT $LN94@update_ses
  006b9	8b 45 f8	 mov	 eax, DWORD PTR _spec$[ebp]
  006bc	8b 08		 mov	 ecx, DWORD PTR [eax]
  006be	89 8d 70 ff ff
	ff		 mov	 DWORD PTR tv308[ebp], ecx
  006c4	eb 20		 jmp	 SHORT $LN95@update_ses
$LN94@update_ses:
  006c6	68 a6 02 00 00	 push	 678			; 000002a6H
  006cb	68 00 00 00 00	 push	 OFFSET ??_C@_0EN@MANBNJL@c?3?2users?2nhv90?2projects?2eech?2ap@
  006d0	8b 15 00 00 00
	00		 mov	 edx, DWORD PTR ?null_entity_pointer_message@@3PBDB ; null_entity_pointer_message
  006d6	52		 push	 edx
  006d7	e8 00 00 00 00	 call	 ?process_assert@@YGXPBD0H@Z ; process_assert
  006dc	c7 85 70 ff ff
	ff 00 00 00 00	 mov	 DWORD PTR tv308[ebp], 0
$LN95@update_ses:
  006e6	b8 01 00 00 00	 mov	 eax, 1
  006eb	85 c0		 test	 eax, eax
  006ed	74 0c		 je	 SHORT $LN96@update_ses
  006ef	c7 85 6c ff ff
	ff 34 00 00 00	 mov	 DWORD PTR tv315[ebp], 52 ; 00000034H
  006f9	eb 20		 jmp	 SHORT $LN97@update_ses
$LN96@update_ses:
  006fb	68 a6 02 00 00	 push	 678			; 000002a6H
  00700	68 00 00 00 00	 push	 OFFSET ??_C@_0EN@MANBNJL@c?3?2users?2nhv90?2projects?2eech?2ap@
  00705	8b 0d 00 00 00
	00		 mov	 ecx, DWORD PTR ?overload_invalid_int_type_message@@3PBDB ; overload_invalid_int_type_message
  0070b	51		 push	 ecx
  0070c	e8 00 00 00 00	 call	 ?process_assert@@YGXPBD0H@Z ; process_assert
  00711	c7 85 6c ff ff
	ff 00 00 00 00	 mov	 DWORD PTR tv315[ebp], 0
$LN97@update_ses:
  0071b	6a 34		 push	 52			; 00000034H
  0071d	8b 55 f8	 mov	 edx, DWORD PTR _spec$[ebp]
  00720	52		 push	 edx
  00721	69 85 70 ff ff
	ff 5c 04 00 00	 imul	 eax, DWORD PTR tv308[ebp], 1116
  0072b	8b 8d 6c ff ff
	ff		 mov	 ecx, DWORD PTR tv315[ebp]
  00731	8b 94 88 00 00
	00 00		 mov	 edx, DWORD PTR ?fn_get_local_entity_int_value@@3PAY0BBH@P6GHPAUENTITY@@W4INT_TYPES@@@ZA[eax+ecx*4]
  00738	ff d2		 call	 edx
  0073a	89 85 68 ff ff
	ff		 mov	 DWORD PTR tv321[ebp], eax
  00740	8b 85 68 ff ff
	ff		 mov	 eax, DWORD PTR tv321[ebp]
  00746	83 e8 0a	 sub	 eax, 10			; 0000000aH
  00749	89 85 68 ff ff
	ff		 mov	 DWORD PTR tv321[ebp], eax
  0074f	83 bd 68 ff ff
	ff 23		 cmp	 DWORD PTR tv321[ebp], 35 ; 00000023H
  00756	0f 87 f3 13 00
	00		 ja	 $LN4@update_ses
  0075c	8b 8d 68 ff ff
	ff		 mov	 ecx, DWORD PTR tv321[ebp]
  00762	0f b6 91 00 00
	00 00		 movzx	 edx, BYTE PTR $LN214@update_ses[ecx]
  00769	ff 24 95 00 00
	00 00		 jmp	 DWORD PTR $LN215@update_ses[edx*4]
$LN25@update_ses:

; 679  : 		{
; 680  : 			case ENTITY_SUB_TYPE_EFFECT_SOUND_AMBIENT_LIGHT_RAIN:
; 681  : 			{
; 682  : 				set_local_entity_float_value (spec, FLOAT_TYPE_AMPLIFICATION, rain_sound_levels [WEATHERMODE_LIGHT_RAIN]);

  00770	83 7d f8 00	 cmp	 DWORD PTR _spec$[ebp], 0
  00774	74 0d		 je	 SHORT $LN98@update_ses
  00776	8b 45 f8	 mov	 eax, DWORD PTR _spec$[ebp]
  00779	8b 08		 mov	 ecx, DWORD PTR [eax]
  0077b	89 8d 70 ff ff
	ff		 mov	 DWORD PTR tv328[ebp], ecx
  00781	eb 27		 jmp	 SHORT $LN99@update_ses
$LN98@update_ses:
  00783	8b 15 00 00 00
	00		 mov	 edx, DWORD PTR ?__LINE__Var@?0??update_session_sound_effects@@YGXPAUENTITY@@@Z@4JA
  00789	81 c2 93 00 00
	00		 add	 edx, 147		; 00000093H
  0078f	52		 push	 edx
  00790	68 00 00 00 00	 push	 OFFSET ??_C@_0EN@MANBNJL@c?3?2users?2nhv90?2projects?2eech?2ap@
  00795	a1 00 00 00 00	 mov	 eax, DWORD PTR ?null_entity_pointer_message@@3PBDB ; null_entity_pointer_message
  0079a	50		 push	 eax
  0079b	e8 00 00 00 00	 call	 ?process_assert@@YGXPBD0H@Z ; process_assert
  007a0	c7 85 70 ff ff
	ff 00 00 00 00	 mov	 DWORD PTR tv328[ebp], 0
$LN99@update_ses:
  007aa	b9 01 00 00 00	 mov	 ecx, 1
  007af	85 c9		 test	 ecx, ecx
  007b1	74 0c		 je	 SHORT $LN100@update_ses
  007b3	c7 85 6c ff ff
	ff 09 00 00 00	 mov	 DWORD PTR tv336[ebp], 9
  007bd	eb 27		 jmp	 SHORT $LN101@update_ses
$LN100@update_ses:
  007bf	8b 15 00 00 00
	00		 mov	 edx, DWORD PTR ?__LINE__Var@?0??update_session_sound_effects@@YGXPAUENTITY@@@Z@4JA
  007c5	81 c2 93 00 00
	00		 add	 edx, 147		; 00000093H
  007cb	52		 push	 edx
  007cc	68 00 00 00 00	 push	 OFFSET ??_C@_0EN@MANBNJL@c?3?2users?2nhv90?2projects?2eech?2ap@
  007d1	a1 00 00 00 00	 mov	 eax, DWORD PTR ?overload_invalid_float_type_message@@3PBDB ; overload_invalid_float_type_message
  007d6	50		 push	 eax
  007d7	e8 00 00 00 00	 call	 ?process_assert@@YGXPBD0H@Z ; process_assert
  007dc	c7 85 6c ff ff
	ff 00 00 00 00	 mov	 DWORD PTR tv336[ebp], 0
$LN101@update_ses:
  007e6	b9 04 00 00 00	 mov	 ecx, 4
  007eb	d1 e1		 shl	 ecx, 1
  007ed	f3 0f 10 44 0d
	c4		 movss	 xmm0, DWORD PTR _rain_sound_levels$[ebp+ecx]
  007f3	51		 push	 ecx
  007f4	f3 0f 11 04 24	 movss	 DWORD PTR [esp], xmm0
  007f9	6a 09		 push	 9
  007fb	8b 55 f8	 mov	 edx, DWORD PTR _spec$[ebp]
  007fe	52		 push	 edx
  007ff	69 85 70 ff ff
	ff bc 02 00 00	 imul	 eax, DWORD PTR tv328[ebp], 700
  00809	8b 8d 6c ff ff
	ff		 mov	 ecx, DWORD PTR tv336[ebp]
  0080f	8b 94 88 00 00
	00 00		 mov	 edx, DWORD PTR ?fn_set_local_entity_float_value@@3PAY0KP@P6GXPAUENTITY@@W4FLOAT_TYPES@@M@ZA[eax+ecx*4]
  00816	ff d2		 call	 edx

; 683  : 
; 684  : 				break;

  00818	e9 32 13 00 00	 jmp	 $LN4@update_ses
$LN26@update_ses:

; 685  : 			}
; 686  : 			case ENTITY_SUB_TYPE_EFFECT_SOUND_AMBIENT_HEAVY_RAIN:
; 687  : 			{
; 688  : 				set_local_entity_float_value (spec, FLOAT_TYPE_AMPLIFICATION, rain_sound_levels [WEATHERMODE_HEAVY_RAIN]);

  0081d	83 7d f8 00	 cmp	 DWORD PTR _spec$[ebp], 0
  00821	74 0d		 je	 SHORT $LN102@update_ses
  00823	8b 45 f8	 mov	 eax, DWORD PTR _spec$[ebp]
  00826	8b 08		 mov	 ecx, DWORD PTR [eax]
  00828	89 8d 70 ff ff
	ff		 mov	 DWORD PTR tv351[ebp], ecx
  0082e	eb 27		 jmp	 SHORT $LN103@update_ses
$LN102@update_ses:
  00830	8b 15 00 00 00
	00		 mov	 edx, DWORD PTR ?__LINE__Var@?0??update_session_sound_effects@@YGXPAUENTITY@@@Z@4JA
  00836	81 c2 99 00 00
	00		 add	 edx, 153		; 00000099H
  0083c	52		 push	 edx
  0083d	68 00 00 00 00	 push	 OFFSET ??_C@_0EN@MANBNJL@c?3?2users?2nhv90?2projects?2eech?2ap@
  00842	a1 00 00 00 00	 mov	 eax, DWORD PTR ?null_entity_pointer_message@@3PBDB ; null_entity_pointer_message
  00847	50		 push	 eax
  00848	e8 00 00 00 00	 call	 ?process_assert@@YGXPBD0H@Z ; process_assert
  0084d	c7 85 70 ff ff
	ff 00 00 00 00	 mov	 DWORD PTR tv351[ebp], 0
$LN103@update_ses:
  00857	b9 01 00 00 00	 mov	 ecx, 1
  0085c	85 c9		 test	 ecx, ecx
  0085e	74 0c		 je	 SHORT $LN104@update_ses
  00860	c7 85 6c ff ff
	ff 09 00 00 00	 mov	 DWORD PTR tv359[ebp], 9
  0086a	eb 27		 jmp	 SHORT $LN105@update_ses
$LN104@update_ses:
  0086c	8b 15 00 00 00
	00		 mov	 edx, DWORD PTR ?__LINE__Var@?0??update_session_sound_effects@@YGXPAUENTITY@@@Z@4JA
  00872	81 c2 99 00 00
	00		 add	 edx, 153		; 00000099H
  00878	52		 push	 edx
  00879	68 00 00 00 00	 push	 OFFSET ??_C@_0EN@MANBNJL@c?3?2users?2nhv90?2projects?2eech?2ap@
  0087e	a1 00 00 00 00	 mov	 eax, DWORD PTR ?overload_invalid_float_type_message@@3PBDB ; overload_invalid_float_type_message
  00883	50		 push	 eax
  00884	e8 00 00 00 00	 call	 ?process_assert@@YGXPBD0H@Z ; process_assert
  00889	c7 85 6c ff ff
	ff 00 00 00 00	 mov	 DWORD PTR tv359[ebp], 0
$LN105@update_ses:
  00893	b9 04 00 00 00	 mov	 ecx, 4
  00898	6b d1 03	 imul	 edx, ecx, 3
  0089b	f3 0f 10 44 15
	c4		 movss	 xmm0, DWORD PTR _rain_sound_levels$[ebp+edx]
  008a1	51		 push	 ecx
  008a2	f3 0f 11 04 24	 movss	 DWORD PTR [esp], xmm0
  008a7	6a 09		 push	 9
  008a9	8b 45 f8	 mov	 eax, DWORD PTR _spec$[ebp]
  008ac	50		 push	 eax
  008ad	69 8d 70 ff ff
	ff bc 02 00 00	 imul	 ecx, DWORD PTR tv351[ebp], 700
  008b7	8b 95 6c ff ff
	ff		 mov	 edx, DWORD PTR tv359[ebp]
  008bd	8b 84 91 00 00
	00 00		 mov	 eax, DWORD PTR ?fn_set_local_entity_float_value@@3PAY0KP@P6GXPAUENTITY@@W4FLOAT_TYPES@@M@ZA[ecx+edx*4]
  008c4	ff d0		 call	 eax

; 689  : 
; 690  : 				break;

  008c6	e9 84 12 00 00	 jmp	 $LN4@update_ses
$LN27@update_ses:

; 691  : 			}
; 692  : 			case ENTITY_SUB_TYPE_EFFECT_SOUND_AMBIENT_LIGHT_WIND:
; 693  : 			{
; 694  : 				set_local_entity_float_value (spec, FLOAT_TYPE_AMPLIFICATION, light_wind_sound_level);

  008cb	83 7d f8 00	 cmp	 DWORD PTR _spec$[ebp], 0
  008cf	74 0d		 je	 SHORT $LN106@update_ses
  008d1	8b 45 f8	 mov	 eax, DWORD PTR _spec$[ebp]
  008d4	8b 08		 mov	 ecx, DWORD PTR [eax]
  008d6	89 8d 70 ff ff
	ff		 mov	 DWORD PTR tv374[ebp], ecx
  008dc	eb 27		 jmp	 SHORT $LN107@update_ses
$LN106@update_ses:
  008de	8b 15 00 00 00
	00		 mov	 edx, DWORD PTR ?__LINE__Var@?0??update_session_sound_effects@@YGXPAUENTITY@@@Z@4JA
  008e4	81 c2 9f 00 00
	00		 add	 edx, 159		; 0000009fH
  008ea	52		 push	 edx
  008eb	68 00 00 00 00	 push	 OFFSET ??_C@_0EN@MANBNJL@c?3?2users?2nhv90?2projects?2eech?2ap@
  008f0	a1 00 00 00 00	 mov	 eax, DWORD PTR ?null_entity_pointer_message@@3PBDB ; null_entity_pointer_message
  008f5	50		 push	 eax
  008f6	e8 00 00 00 00	 call	 ?process_assert@@YGXPBD0H@Z ; process_assert
  008fb	c7 85 70 ff ff
	ff 00 00 00 00	 mov	 DWORD PTR tv374[ebp], 0
$LN107@update_ses:
  00905	b9 01 00 00 00	 mov	 ecx, 1
  0090a	85 c9		 test	 ecx, ecx
  0090c	74 0c		 je	 SHORT $LN108@update_ses
  0090e	c7 85 6c ff ff
	ff 09 00 00 00	 mov	 DWORD PTR tv382[ebp], 9
  00918	eb 27		 jmp	 SHORT $LN109@update_ses
$LN108@update_ses:
  0091a	8b 15 00 00 00
	00		 mov	 edx, DWORD PTR ?__LINE__Var@?0??update_session_sound_effects@@YGXPAUENTITY@@@Z@4JA
  00920	81 c2 9f 00 00
	00		 add	 edx, 159		; 0000009fH
  00926	52		 push	 edx
  00927	68 00 00 00 00	 push	 OFFSET ??_C@_0EN@MANBNJL@c?3?2users?2nhv90?2projects?2eech?2ap@
  0092c	a1 00 00 00 00	 mov	 eax, DWORD PTR ?overload_invalid_float_type_message@@3PBDB ; overload_invalid_float_type_message
  00931	50		 push	 eax
  00932	e8 00 00 00 00	 call	 ?process_assert@@YGXPBD0H@Z ; process_assert
  00937	c7 85 6c ff ff
	ff 00 00 00 00	 mov	 DWORD PTR tv382[ebp], 0
$LN109@update_ses:
  00941	51		 push	 ecx
  00942	f3 0f 10 45 dc	 movss	 xmm0, DWORD PTR _light_wind_sound_level$[ebp]
  00947	f3 0f 11 04 24	 movss	 DWORD PTR [esp], xmm0
  0094c	6a 09		 push	 9
  0094e	8b 4d f8	 mov	 ecx, DWORD PTR _spec$[ebp]
  00951	51		 push	 ecx
  00952	69 95 70 ff ff
	ff bc 02 00 00	 imul	 edx, DWORD PTR tv374[ebp], 700
  0095c	8b 85 6c ff ff
	ff		 mov	 eax, DWORD PTR tv382[ebp]
  00962	8b 8c 82 00 00
	00 00		 mov	 ecx, DWORD PTR ?fn_set_local_entity_float_value@@3PAY0KP@P6GXPAUENTITY@@W4FLOAT_TYPES@@M@ZA[edx+eax*4]
  00969	ff d1		 call	 ecx

; 695  : 
; 696  : 				break;

  0096b	e9 df 11 00 00	 jmp	 $LN4@update_ses
$LN28@update_ses:

; 697  : 			}
; 698  : 			case ENTITY_SUB_TYPE_EFFECT_SOUND_AMBIENT_HEAVY_WIND:
; 699  : 			{
; 700  : 				set_local_entity_float_value (spec, FLOAT_TYPE_AMPLIFICATION, heavy_wind_sound_level);

  00970	83 7d f8 00	 cmp	 DWORD PTR _spec$[ebp], 0
  00974	74 0d		 je	 SHORT $LN110@update_ses
  00976	8b 45 f8	 mov	 eax, DWORD PTR _spec$[ebp]
  00979	8b 08		 mov	 ecx, DWORD PTR [eax]
  0097b	89 8d 70 ff ff
	ff		 mov	 DWORD PTR tv394[ebp], ecx
  00981	eb 27		 jmp	 SHORT $LN111@update_ses
$LN110@update_ses:
  00983	8b 15 00 00 00
	00		 mov	 edx, DWORD PTR ?__LINE__Var@?0??update_session_sound_effects@@YGXPAUENTITY@@@Z@4JA
  00989	81 c2 a5 00 00
	00		 add	 edx, 165		; 000000a5H
  0098f	52		 push	 edx
  00990	68 00 00 00 00	 push	 OFFSET ??_C@_0EN@MANBNJL@c?3?2users?2nhv90?2projects?2eech?2ap@
  00995	a1 00 00 00 00	 mov	 eax, DWORD PTR ?null_entity_pointer_message@@3PBDB ; null_entity_pointer_message
  0099a	50		 push	 eax
  0099b	e8 00 00 00 00	 call	 ?process_assert@@YGXPBD0H@Z ; process_assert
  009a0	c7 85 70 ff ff
	ff 00 00 00 00	 mov	 DWORD PTR tv394[ebp], 0
$LN111@update_ses:
  009aa	b9 01 00 00 00	 mov	 ecx, 1
  009af	85 c9		 test	 ecx, ecx
  009b1	74 0c		 je	 SHORT $LN112@update_ses
  009b3	c7 85 6c ff ff
	ff 09 00 00 00	 mov	 DWORD PTR tv402[ebp], 9
  009bd	eb 27		 jmp	 SHORT $LN113@update_ses
$LN112@update_ses:
  009bf	8b 15 00 00 00
	00		 mov	 edx, DWORD PTR ?__LINE__Var@?0??update_session_sound_effects@@YGXPAUENTITY@@@Z@4JA
  009c5	81 c2 a5 00 00
	00		 add	 edx, 165		; 000000a5H
  009cb	52		 push	 edx
  009cc	68 00 00 00 00	 push	 OFFSET ??_C@_0EN@MANBNJL@c?3?2users?2nhv90?2projects?2eech?2ap@
  009d1	a1 00 00 00 00	 mov	 eax, DWORD PTR ?overload_invalid_float_type_message@@3PBDB ; overload_invalid_float_type_message
  009d6	50		 push	 eax
  009d7	e8 00 00 00 00	 call	 ?process_assert@@YGXPBD0H@Z ; process_assert
  009dc	c7 85 6c ff ff
	ff 00 00 00 00	 mov	 DWORD PTR tv402[ebp], 0
$LN113@update_ses:
  009e6	51		 push	 ecx
  009e7	f3 0f 10 45 d8	 movss	 xmm0, DWORD PTR _heavy_wind_sound_level$[ebp]
  009ec	f3 0f 11 04 24	 movss	 DWORD PTR [esp], xmm0
  009f1	6a 09		 push	 9
  009f3	8b 4d f8	 mov	 ecx, DWORD PTR _spec$[ebp]
  009f6	51		 push	 ecx
  009f7	69 95 70 ff ff
	ff bc 02 00 00	 imul	 edx, DWORD PTR tv394[ebp], 700
  00a01	8b 85 6c ff ff
	ff		 mov	 eax, DWORD PTR tv402[ebp]
  00a07	8b 8c 82 00 00
	00 00		 mov	 ecx, DWORD PTR ?fn_set_local_entity_float_value@@3PAY0KP@P6GXPAUENTITY@@W4FLOAT_TYPES@@M@ZA[edx+eax*4]
  00a0e	ff d1		 call	 ecx

; 701  : 
; 702  : 				break;

  00a10	e9 3a 11 00 00	 jmp	 $LN4@update_ses
$LN29@update_ses:

; 703  : 			}
; 704  : 			case ENTITY_SUB_TYPE_EFFECT_SOUND_AMBIENT_SEA:
; 705  : 			{
; 706  : 				if (alt >= SESSION_TERRAIN_SOUND_EFFECT_ZERO_VOLUME_ALTITUDE)

  00a15	f3 0f 5a 45 e8	 cvtss2sd xmm0, DWORD PTR _alt$[ebp]
  00a1a	66 0f 2f 05 00
	00 00 00	 comisd	 xmm0, QWORD PTR __real@4071800000000000
  00a22	72 0d		 jb	 SHORT $LN30@update_ses

; 707  : 				{
; 708  : 					value = 0.0;

  00a24	0f 57 c0	 xorps	 xmm0, xmm0
  00a27	f3 0f 11 45 e0	 movss	 DWORD PTR _value$[ebp], xmm0

; 709  : 				}
; 710  : 				else

  00a2c	e9 1f 02 00 00	 jmp	 $LN34@update_ses
$LN30@update_ses:

; 711  : 				{
; 712  : 					value = get_local_entity_float_value (spec, FLOAT_TYPE_AMPLIFICATION);

  00a31	83 7d f8 00	 cmp	 DWORD PTR _spec$[ebp], 0
  00a35	74 0d		 je	 SHORT $LN114@update_ses
  00a37	8b 45 f8	 mov	 eax, DWORD PTR _spec$[ebp]
  00a3a	8b 08		 mov	 ecx, DWORD PTR [eax]
  00a3c	89 8d 70 ff ff
	ff		 mov	 DWORD PTR tv416[ebp], ecx
  00a42	eb 27		 jmp	 SHORT $LN115@update_ses
$LN114@update_ses:
  00a44	8b 15 00 00 00
	00		 mov	 edx, DWORD PTR ?__LINE__Var@?0??update_session_sound_effects@@YGXPAUENTITY@@@Z@4JA
  00a4a	81 c2 b1 00 00
	00		 add	 edx, 177		; 000000b1H
  00a50	52		 push	 edx
  00a51	68 00 00 00 00	 push	 OFFSET ??_C@_0EN@MANBNJL@c?3?2users?2nhv90?2projects?2eech?2ap@
  00a56	a1 00 00 00 00	 mov	 eax, DWORD PTR ?null_entity_pointer_message@@3PBDB ; null_entity_pointer_message
  00a5b	50		 push	 eax
  00a5c	e8 00 00 00 00	 call	 ?process_assert@@YGXPBD0H@Z ; process_assert
  00a61	c7 85 70 ff ff
	ff 00 00 00 00	 mov	 DWORD PTR tv416[ebp], 0
$LN115@update_ses:
  00a6b	b9 01 00 00 00	 mov	 ecx, 1
  00a70	85 c9		 test	 ecx, ecx
  00a72	74 0c		 je	 SHORT $LN116@update_ses
  00a74	c7 85 6c ff ff
	ff 09 00 00 00	 mov	 DWORD PTR tv424[ebp], 9
  00a7e	eb 27		 jmp	 SHORT $LN117@update_ses
$LN116@update_ses:
  00a80	8b 15 00 00 00
	00		 mov	 edx, DWORD PTR ?__LINE__Var@?0??update_session_sound_effects@@YGXPAUENTITY@@@Z@4JA
  00a86	81 c2 b1 00 00
	00		 add	 edx, 177		; 000000b1H
  00a8c	52		 push	 edx
  00a8d	68 00 00 00 00	 push	 OFFSET ??_C@_0EN@MANBNJL@c?3?2users?2nhv90?2projects?2eech?2ap@
  00a92	a1 00 00 00 00	 mov	 eax, DWORD PTR ?overload_invalid_float_type_message@@3PBDB ; overload_invalid_float_type_message
  00a97	50		 push	 eax
  00a98	e8 00 00 00 00	 call	 ?process_assert@@YGXPBD0H@Z ; process_assert
  00a9d	c7 85 6c ff ff
	ff 00 00 00 00	 mov	 DWORD PTR tv424[ebp], 0
$LN117@update_ses:
  00aa7	6a 09		 push	 9
  00aa9	8b 4d f8	 mov	 ecx, DWORD PTR _spec$[ebp]
  00aac	51		 push	 ecx
  00aad	69 95 70 ff ff
	ff bc 02 00 00	 imul	 edx, DWORD PTR tv416[ebp], 700
  00ab7	8b 85 6c ff ff
	ff		 mov	 eax, DWORD PTR tv424[ebp]
  00abd	8b 8c 82 00 00
	00 00		 mov	 ecx, DWORD PTR ?fn_get_local_entity_float_value@@3PAY0KP@P6GMPAUENTITY@@W4FLOAT_TYPES@@@ZA[edx+eax*4]
  00ac4	ff d1		 call	 ecx
  00ac6	d9 5d e0	 fstp	 DWORD PTR _value$[ebp]

; 713  : 	
; 714  : 
; 715  : 					if (terrain_types_in_sector [TERRAIN_TYPE_SEA])

  00ac9	b8 04 00 00 00	 mov	 eax, 4
  00ace	6b c8 07	 imul	 ecx, eax, 7
  00ad1	83 b9 00 00 00
	00 00		 cmp	 DWORD PTR ?terrain_types_in_sector@@3PAHA[ecx], 0
  00ad8	74 24		 je	 SHORT $LN32@update_ses

; 716  : 					{
; 717  : 						value += (0.5 * get_delta_time ());

  00ada	f3 0f 5a 05 00
	00 00 00	 cvtss2sd xmm0, DWORD PTR ?system_delta_time@@3MA
  00ae2	f2 0f 59 05 00
	00 00 00	 mulsd	 xmm0, QWORD PTR __real@3fe0000000000000
  00aea	f3 0f 5a 4d e0	 cvtss2sd xmm1, DWORD PTR _value$[ebp]
  00aef	f2 0f 58 c8	 addsd	 xmm1, xmm0
  00af3	f2 0f 5a c1	 cvtsd2ss xmm0, xmm1
  00af7	f3 0f 11 45 e0	 movss	 DWORD PTR _value$[ebp], xmm0

; 718  : 					}
; 719  : 					else

  00afc	eb 22		 jmp	 SHORT $LN33@update_ses
$LN32@update_ses:

; 720  : 					{
; 721  : 						value -= (0.5 * get_delta_time ());

  00afe	f3 0f 5a 05 00
	00 00 00	 cvtss2sd xmm0, DWORD PTR ?system_delta_time@@3MA
  00b06	f2 0f 59 05 00
	00 00 00	 mulsd	 xmm0, QWORD PTR __real@3fe0000000000000
  00b0e	f3 0f 5a 4d e0	 cvtss2sd xmm1, DWORD PTR _value$[ebp]
  00b13	f2 0f 5c c8	 subsd	 xmm1, xmm0
  00b17	f2 0f 5a c1	 cvtsd2ss xmm0, xmm1
  00b1b	f3 0f 11 45 e0	 movss	 DWORD PTR _value$[ebp], xmm0
$LN33@update_ses:

; 722  : 					}
; 723  : 
; 724  : 					value = bound (value, 0.0, 0.3);

  00b20	f3 0f 5a 45 e0	 cvtss2sd xmm0, DWORD PTR _value$[ebp]
  00b25	0f 57 c9	 xorps	 xmm1, xmm1
  00b28	66 0f 2f c8	 comisd	 xmm1, xmm0
  00b2c	76 0d		 jbe	 SHORT $LN120@update_ses
  00b2e	0f 57 c0	 xorps	 xmm0, xmm0
  00b31	f2 0f 11 85 6c
	ff ff ff	 movsd	 QWORD PTR tv449[ebp], xmm0
  00b39	eb 3e		 jmp	 SHORT $LN121@update_ses
$LN120@update_ses:
  00b3b	f3 0f 5a 45 e0	 cvtss2sd xmm0, DWORD PTR _value$[ebp]
  00b40	66 0f 2f 05 00
	00 00 00	 comisd	 xmm0, QWORD PTR __real@3fd3333333333333
  00b48	76 12		 jbe	 SHORT $LN118@update_ses
  00b4a	f2 0f 10 05 00
	00 00 00	 movsd	 xmm0, QWORD PTR __real@3fd3333333333333
  00b52	f2 0f 11 85 64
	ff ff ff	 movsd	 QWORD PTR tv448[ebp], xmm0
  00b5a	eb 0d		 jmp	 SHORT $LN119@update_ses
$LN118@update_ses:
  00b5c	f3 0f 5a 45 e0	 cvtss2sd xmm0, DWORD PTR _value$[ebp]
  00b61	f2 0f 11 85 64
	ff ff ff	 movsd	 QWORD PTR tv448[ebp], xmm0
$LN119@update_ses:
  00b69	f2 0f 10 85 64
	ff ff ff	 movsd	 xmm0, QWORD PTR tv448[ebp]
  00b71	f2 0f 11 85 6c
	ff ff ff	 movsd	 QWORD PTR tv449[ebp], xmm0
$LN121@update_ses:
  00b79	f2 0f 5a 85 6c
	ff ff ff	 cvtsd2ss xmm0, QWORD PTR tv449[ebp]
  00b81	f3 0f 11 45 e0	 movss	 DWORD PTR _value$[ebp], xmm0

; 725  : 
; 726  : 					value *= bound(1.0 - (alt / SESSION_TERRAIN_SOUND_EFFECT_ZERO_VOLUME_ALTITUDE), 0.0, 1.0);

  00b86	f3 0f 5a 45 e8	 cvtss2sd xmm0, DWORD PTR _alt$[ebp]
  00b8b	f2 0f 5e 05 00
	00 00 00	 divsd	 xmm0, QWORD PTR __real@4071800000000000
  00b93	f2 0f 10 0d 00
	00 00 00	 movsd	 xmm1, QWORD PTR __real@3ff0000000000000
  00b9b	f2 0f 5c c8	 subsd	 xmm1, xmm0
  00b9f	0f 57 c0	 xorps	 xmm0, xmm0
  00ba2	66 0f 2f c1	 comisd	 xmm0, xmm1
  00ba6	76 0d		 jbe	 SHORT $LN124@update_ses
  00ba8	0f 57 c0	 xorps	 xmm0, xmm0
  00bab	f2 0f 11 85 6c
	ff ff ff	 movsd	 QWORD PTR tv463[ebp], xmm0
  00bb3	eb 66		 jmp	 SHORT $LN125@update_ses
$LN124@update_ses:
  00bb5	f3 0f 5a 45 e8	 cvtss2sd xmm0, DWORD PTR _alt$[ebp]
  00bba	f2 0f 5e 05 00
	00 00 00	 divsd	 xmm0, QWORD PTR __real@4071800000000000
  00bc2	f2 0f 10 0d 00
	00 00 00	 movsd	 xmm1, QWORD PTR __real@3ff0000000000000
  00bca	f2 0f 5c c8	 subsd	 xmm1, xmm0
  00bce	66 0f 2f 0d 00
	00 00 00	 comisd	 xmm1, QWORD PTR __real@3ff0000000000000
  00bd6	76 12		 jbe	 SHORT $LN122@update_ses
  00bd8	f2 0f 10 05 00
	00 00 00	 movsd	 xmm0, QWORD PTR __real@3ff0000000000000
  00be0	f2 0f 11 85 64
	ff ff ff	 movsd	 QWORD PTR tv462[ebp], xmm0
  00be8	eb 21		 jmp	 SHORT $LN123@update_ses
$LN122@update_ses:
  00bea	f3 0f 5a 45 e8	 cvtss2sd xmm0, DWORD PTR _alt$[ebp]
  00bef	f2 0f 5e 05 00
	00 00 00	 divsd	 xmm0, QWORD PTR __real@4071800000000000
  00bf7	f2 0f 10 0d 00
	00 00 00	 movsd	 xmm1, QWORD PTR __real@3ff0000000000000
  00bff	f2 0f 5c c8	 subsd	 xmm1, xmm0
  00c03	f2 0f 11 8d 64
	ff ff ff	 movsd	 QWORD PTR tv462[ebp], xmm1
$LN123@update_ses:
  00c0b	f2 0f 10 85 64
	ff ff ff	 movsd	 xmm0, QWORD PTR tv462[ebp]
  00c13	f2 0f 11 85 6c
	ff ff ff	 movsd	 QWORD PTR tv463[ebp], xmm0
$LN125@update_ses:
  00c1b	f3 0f 5a 45 e0	 cvtss2sd xmm0, DWORD PTR _value$[ebp]
  00c20	f2 0f 59 85 6c
	ff ff ff	 mulsd	 xmm0, QWORD PTR tv463[ebp]
  00c28	f2 0f 5a c0	 cvtsd2ss xmm0, xmm0
  00c2c	f3 0f 11 45 e0	 movss	 DWORD PTR _value$[ebp], xmm0

; 727  : 
; 728  : 					if (in_cockpit)

  00c31	83 3d 00 00 00
	00 00		 cmp	 DWORD PTR ?in_cockpit@@3HA, 0 ; in_cockpit
  00c38	74 16		 je	 SHORT $LN34@update_ses

; 729  : 					{
; 730  : 						value *= 0.75;

  00c3a	f3 0f 5a 45 e0	 cvtss2sd xmm0, DWORD PTR _value$[ebp]
  00c3f	f2 0f 59 05 00
	00 00 00	 mulsd	 xmm0, QWORD PTR __real@3fe8000000000000
  00c47	f2 0f 5a c0	 cvtsd2ss xmm0, xmm0
  00c4b	f3 0f 11 45 e0	 movss	 DWORD PTR _value$[ebp], xmm0
$LN34@update_ses:

; 731  : 					}
; 732  : 				}
; 733  : 
; 734  : 				set_local_entity_float_value (spec, FLOAT_TYPE_AMPLIFICATION, value);

  00c50	83 7d f8 00	 cmp	 DWORD PTR _spec$[ebp], 0
  00c54	74 0d		 je	 SHORT $LN126@update_ses
  00c56	8b 45 f8	 mov	 eax, DWORD PTR _spec$[ebp]
  00c59	8b 08		 mov	 ecx, DWORD PTR [eax]
  00c5b	89 8d 70 ff ff
	ff		 mov	 DWORD PTR tv477[ebp], ecx
  00c61	eb 27		 jmp	 SHORT $LN127@update_ses
$LN126@update_ses:
  00c63	8b 15 00 00 00
	00		 mov	 edx, DWORD PTR ?__LINE__Var@?0??update_session_sound_effects@@YGXPAUENTITY@@@Z@4JA
  00c69	81 c2 c7 00 00
	00		 add	 edx, 199		; 000000c7H
  00c6f	52		 push	 edx
  00c70	68 00 00 00 00	 push	 OFFSET ??_C@_0EN@MANBNJL@c?3?2users?2nhv90?2projects?2eech?2ap@
  00c75	a1 00 00 00 00	 mov	 eax, DWORD PTR ?null_entity_pointer_message@@3PBDB ; null_entity_pointer_message
  00c7a	50		 push	 eax
  00c7b	e8 00 00 00 00	 call	 ?process_assert@@YGXPBD0H@Z ; process_assert
  00c80	c7 85 70 ff ff
	ff 00 00 00 00	 mov	 DWORD PTR tv477[ebp], 0
$LN127@update_ses:
  00c8a	b9 01 00 00 00	 mov	 ecx, 1
  00c8f	85 c9		 test	 ecx, ecx
  00c91	74 0c		 je	 SHORT $LN128@update_ses
  00c93	c7 85 6c ff ff
	ff 09 00 00 00	 mov	 DWORD PTR tv485[ebp], 9
  00c9d	eb 27		 jmp	 SHORT $LN129@update_ses
$LN128@update_ses:
  00c9f	8b 15 00 00 00
	00		 mov	 edx, DWORD PTR ?__LINE__Var@?0??update_session_sound_effects@@YGXPAUENTITY@@@Z@4JA
  00ca5	81 c2 c7 00 00
	00		 add	 edx, 199		; 000000c7H
  00cab	52		 push	 edx
  00cac	68 00 00 00 00	 push	 OFFSET ??_C@_0EN@MANBNJL@c?3?2users?2nhv90?2projects?2eech?2ap@
  00cb1	a1 00 00 00 00	 mov	 eax, DWORD PTR ?overload_invalid_float_type_message@@3PBDB ; overload_invalid_float_type_message
  00cb6	50		 push	 eax
  00cb7	e8 00 00 00 00	 call	 ?process_assert@@YGXPBD0H@Z ; process_assert
  00cbc	c7 85 6c ff ff
	ff 00 00 00 00	 mov	 DWORD PTR tv485[ebp], 0
$LN129@update_ses:
  00cc6	51		 push	 ecx
  00cc7	f3 0f 10 45 e0	 movss	 xmm0, DWORD PTR _value$[ebp]
  00ccc	f3 0f 11 04 24	 movss	 DWORD PTR [esp], xmm0
  00cd1	6a 09		 push	 9
  00cd3	8b 4d f8	 mov	 ecx, DWORD PTR _spec$[ebp]
  00cd6	51		 push	 ecx
  00cd7	69 95 70 ff ff
	ff bc 02 00 00	 imul	 edx, DWORD PTR tv477[ebp], 700
  00ce1	8b 85 6c ff ff
	ff		 mov	 eax, DWORD PTR tv485[ebp]
  00ce7	8b 8c 82 00 00
	00 00		 mov	 ecx, DWORD PTR ?fn_set_local_entity_float_value@@3PAY0KP@P6GXPAUENTITY@@W4FLOAT_TYPES@@M@ZA[edx+eax*4]
  00cee	ff d1		 call	 ecx

; 735  : 
; 736  : 				break;

  00cf0	e9 5a 0e 00 00	 jmp	 $LN4@update_ses
$LN35@update_ses:

; 737  : 			}
; 738  : 			case ENTITY_SUB_TYPE_EFFECT_SOUND_AMBIENT_JUNGLE:
; 739  : 			{
; 740  : 				if (alt >= SESSION_TERRAIN_SOUND_EFFECT_ZERO_VOLUME_ALTITUDE)

  00cf5	f3 0f 5a 45 e8	 cvtss2sd xmm0, DWORD PTR _alt$[ebp]
  00cfa	66 0f 2f 05 00
	00 00 00	 comisd	 xmm0, QWORD PTR __real@4071800000000000
  00d02	72 0d		 jb	 SHORT $LN36@update_ses

; 741  : 				{
; 742  : 					value = 0.0;

  00d04	0f 57 c0	 xorps	 xmm0, xmm0
  00d07	f3 0f 11 45 e0	 movss	 DWORD PTR _value$[ebp], xmm0

; 743  : 				}
; 744  : 				else

  00d0c	e9 1f 02 00 00	 jmp	 $LN40@update_ses
$LN36@update_ses:

; 745  : 				{
; 746  : 					value = get_local_entity_float_value (spec, FLOAT_TYPE_AMPLIFICATION);

  00d11	83 7d f8 00	 cmp	 DWORD PTR _spec$[ebp], 0
  00d15	74 0d		 je	 SHORT $LN130@update_ses
  00d17	8b 45 f8	 mov	 eax, DWORD PTR _spec$[ebp]
  00d1a	8b 08		 mov	 ecx, DWORD PTR [eax]
  00d1c	89 8d 70 ff ff
	ff		 mov	 DWORD PTR tv499[ebp], ecx
  00d22	eb 27		 jmp	 SHORT $LN131@update_ses
$LN130@update_ses:
  00d24	8b 15 00 00 00
	00		 mov	 edx, DWORD PTR ?__LINE__Var@?0??update_session_sound_effects@@YGXPAUENTITY@@@Z@4JA
  00d2a	81 c2 d3 00 00
	00		 add	 edx, 211		; 000000d3H
  00d30	52		 push	 edx
  00d31	68 00 00 00 00	 push	 OFFSET ??_C@_0EN@MANBNJL@c?3?2users?2nhv90?2projects?2eech?2ap@
  00d36	a1 00 00 00 00	 mov	 eax, DWORD PTR ?null_entity_pointer_message@@3PBDB ; null_entity_pointer_message
  00d3b	50		 push	 eax
  00d3c	e8 00 00 00 00	 call	 ?process_assert@@YGXPBD0H@Z ; process_assert
  00d41	c7 85 70 ff ff
	ff 00 00 00 00	 mov	 DWORD PTR tv499[ebp], 0
$LN131@update_ses:
  00d4b	b9 01 00 00 00	 mov	 ecx, 1
  00d50	85 c9		 test	 ecx, ecx
  00d52	74 0c		 je	 SHORT $LN132@update_ses
  00d54	c7 85 6c ff ff
	ff 09 00 00 00	 mov	 DWORD PTR tv507[ebp], 9
  00d5e	eb 27		 jmp	 SHORT $LN133@update_ses
$LN132@update_ses:
  00d60	8b 15 00 00 00
	00		 mov	 edx, DWORD PTR ?__LINE__Var@?0??update_session_sound_effects@@YGXPAUENTITY@@@Z@4JA
  00d66	81 c2 d3 00 00
	00		 add	 edx, 211		; 000000d3H
  00d6c	52		 push	 edx
  00d6d	68 00 00 00 00	 push	 OFFSET ??_C@_0EN@MANBNJL@c?3?2users?2nhv90?2projects?2eech?2ap@
  00d72	a1 00 00 00 00	 mov	 eax, DWORD PTR ?overload_invalid_float_type_message@@3PBDB ; overload_invalid_float_type_message
  00d77	50		 push	 eax
  00d78	e8 00 00 00 00	 call	 ?process_assert@@YGXPBD0H@Z ; process_assert
  00d7d	c7 85 6c ff ff
	ff 00 00 00 00	 mov	 DWORD PTR tv507[ebp], 0
$LN133@update_ses:
  00d87	6a 09		 push	 9
  00d89	8b 4d f8	 mov	 ecx, DWORD PTR _spec$[ebp]
  00d8c	51		 push	 ecx
  00d8d	69 95 70 ff ff
	ff bc 02 00 00	 imul	 edx, DWORD PTR tv499[ebp], 700
  00d97	8b 85 6c ff ff
	ff		 mov	 eax, DWORD PTR tv507[ebp]
  00d9d	8b 8c 82 00 00
	00 00		 mov	 ecx, DWORD PTR ?fn_get_local_entity_float_value@@3PAY0KP@P6GMPAUENTITY@@W4FLOAT_TYPES@@@ZA[edx+eax*4]
  00da4	ff d1		 call	 ecx
  00da6	d9 5d e0	 fstp	 DWORD PTR _value$[ebp]

; 747  : 
; 748  : 
; 749  : 					if (terrain_types_in_sector [TERRAIN_TYPE_FOREST_TOP])

  00da9	b8 04 00 00 00	 mov	 eax, 4
  00dae	6b c8 2e	 imul	 ecx, eax, 46
  00db1	83 b9 00 00 00
	00 00		 cmp	 DWORD PTR ?terrain_types_in_sector@@3PAHA[ecx], 0
  00db8	74 24		 je	 SHORT $LN38@update_ses

; 750  : 					{
; 751  : 						value += (0.5 * get_delta_time ());

  00dba	f3 0f 5a 05 00
	00 00 00	 cvtss2sd xmm0, DWORD PTR ?system_delta_time@@3MA
  00dc2	f2 0f 59 05 00
	00 00 00	 mulsd	 xmm0, QWORD PTR __real@3fe0000000000000
  00dca	f3 0f 5a 4d e0	 cvtss2sd xmm1, DWORD PTR _value$[ebp]
  00dcf	f2 0f 58 c8	 addsd	 xmm1, xmm0
  00dd3	f2 0f 5a c1	 cvtsd2ss xmm0, xmm1
  00dd7	f3 0f 11 45 e0	 movss	 DWORD PTR _value$[ebp], xmm0

; 752  : 					}
; 753  : 					else

  00ddc	eb 22		 jmp	 SHORT $LN39@update_ses
$LN38@update_ses:

; 754  : 					{
; 755  : 						value -= (0.5 * get_delta_time ());

  00dde	f3 0f 5a 05 00
	00 00 00	 cvtss2sd xmm0, DWORD PTR ?system_delta_time@@3MA
  00de6	f2 0f 59 05 00
	00 00 00	 mulsd	 xmm0, QWORD PTR __real@3fe0000000000000
  00dee	f3 0f 5a 4d e0	 cvtss2sd xmm1, DWORD PTR _value$[ebp]
  00df3	f2 0f 5c c8	 subsd	 xmm1, xmm0
  00df7	f2 0f 5a c1	 cvtsd2ss xmm0, xmm1
  00dfb	f3 0f 11 45 e0	 movss	 DWORD PTR _value$[ebp], xmm0
$LN39@update_ses:

; 756  : 					}
; 757  : 
; 758  : 					value = bound (value, 0.0, 0.3);

  00e00	f3 0f 5a 45 e0	 cvtss2sd xmm0, DWORD PTR _value$[ebp]
  00e05	0f 57 c9	 xorps	 xmm1, xmm1
  00e08	66 0f 2f c8	 comisd	 xmm1, xmm0
  00e0c	76 0d		 jbe	 SHORT $LN136@update_ses
  00e0e	0f 57 c0	 xorps	 xmm0, xmm0
  00e11	f2 0f 11 85 6c
	ff ff ff	 movsd	 QWORD PTR tv532[ebp], xmm0
  00e19	eb 3e		 jmp	 SHORT $LN137@update_ses
$LN136@update_ses:
  00e1b	f3 0f 5a 45 e0	 cvtss2sd xmm0, DWORD PTR _value$[ebp]
  00e20	66 0f 2f 05 00
	00 00 00	 comisd	 xmm0, QWORD PTR __real@3fd3333333333333
  00e28	76 12		 jbe	 SHORT $LN134@update_ses
  00e2a	f2 0f 10 05 00
	00 00 00	 movsd	 xmm0, QWORD PTR __real@3fd3333333333333
  00e32	f2 0f 11 85 64
	ff ff ff	 movsd	 QWORD PTR tv531[ebp], xmm0
  00e3a	eb 0d		 jmp	 SHORT $LN135@update_ses
$LN134@update_ses:
  00e3c	f3 0f 5a 45 e0	 cvtss2sd xmm0, DWORD PTR _value$[ebp]
  00e41	f2 0f 11 85 64
	ff ff ff	 movsd	 QWORD PTR tv531[ebp], xmm0
$LN135@update_ses:
  00e49	f2 0f 10 85 64
	ff ff ff	 movsd	 xmm0, QWORD PTR tv531[ebp]
  00e51	f2 0f 11 85 6c
	ff ff ff	 movsd	 QWORD PTR tv532[ebp], xmm0
$LN137@update_ses:
  00e59	f2 0f 5a 85 6c
	ff ff ff	 cvtsd2ss xmm0, QWORD PTR tv532[ebp]
  00e61	f3 0f 11 45 e0	 movss	 DWORD PTR _value$[ebp], xmm0

; 759  : 					value *= bound(1.0 - (alt / SESSION_TERRAIN_SOUND_EFFECT_ZERO_VOLUME_ALTITUDE), 0.0, 1.0);

  00e66	f3 0f 5a 45 e8	 cvtss2sd xmm0, DWORD PTR _alt$[ebp]
  00e6b	f2 0f 5e 05 00
	00 00 00	 divsd	 xmm0, QWORD PTR __real@4071800000000000
  00e73	f2 0f 10 0d 00
	00 00 00	 movsd	 xmm1, QWORD PTR __real@3ff0000000000000
  00e7b	f2 0f 5c c8	 subsd	 xmm1, xmm0
  00e7f	0f 57 c0	 xorps	 xmm0, xmm0
  00e82	66 0f 2f c1	 comisd	 xmm0, xmm1
  00e86	76 0d		 jbe	 SHORT $LN140@update_ses
  00e88	0f 57 c0	 xorps	 xmm0, xmm0
  00e8b	f2 0f 11 85 6c
	ff ff ff	 movsd	 QWORD PTR tv546[ebp], xmm0
  00e93	eb 66		 jmp	 SHORT $LN141@update_ses
$LN140@update_ses:
  00e95	f3 0f 5a 45 e8	 cvtss2sd xmm0, DWORD PTR _alt$[ebp]
  00e9a	f2 0f 5e 05 00
	00 00 00	 divsd	 xmm0, QWORD PTR __real@4071800000000000
  00ea2	f2 0f 10 0d 00
	00 00 00	 movsd	 xmm1, QWORD PTR __real@3ff0000000000000
  00eaa	f2 0f 5c c8	 subsd	 xmm1, xmm0
  00eae	66 0f 2f 0d 00
	00 00 00	 comisd	 xmm1, QWORD PTR __real@3ff0000000000000
  00eb6	76 12		 jbe	 SHORT $LN138@update_ses
  00eb8	f2 0f 10 05 00
	00 00 00	 movsd	 xmm0, QWORD PTR __real@3ff0000000000000
  00ec0	f2 0f 11 85 64
	ff ff ff	 movsd	 QWORD PTR tv545[ebp], xmm0
  00ec8	eb 21		 jmp	 SHORT $LN139@update_ses
$LN138@update_ses:
  00eca	f3 0f 5a 45 e8	 cvtss2sd xmm0, DWORD PTR _alt$[ebp]
  00ecf	f2 0f 5e 05 00
	00 00 00	 divsd	 xmm0, QWORD PTR __real@4071800000000000
  00ed7	f2 0f 10 0d 00
	00 00 00	 movsd	 xmm1, QWORD PTR __real@3ff0000000000000
  00edf	f2 0f 5c c8	 subsd	 xmm1, xmm0
  00ee3	f2 0f 11 8d 64
	ff ff ff	 movsd	 QWORD PTR tv545[ebp], xmm1
$LN139@update_ses:
  00eeb	f2 0f 10 85 64
	ff ff ff	 movsd	 xmm0, QWORD PTR tv545[ebp]
  00ef3	f2 0f 11 85 6c
	ff ff ff	 movsd	 QWORD PTR tv546[ebp], xmm0
$LN141@update_ses:
  00efb	f3 0f 5a 45 e0	 cvtss2sd xmm0, DWORD PTR _value$[ebp]
  00f00	f2 0f 59 85 6c
	ff ff ff	 mulsd	 xmm0, QWORD PTR tv546[ebp]
  00f08	f2 0f 5a c0	 cvtsd2ss xmm0, xmm0
  00f0c	f3 0f 11 45 e0	 movss	 DWORD PTR _value$[ebp], xmm0

; 760  : 
; 761  : 					if (in_cockpit)

  00f11	83 3d 00 00 00
	00 00		 cmp	 DWORD PTR ?in_cockpit@@3HA, 0 ; in_cockpit
  00f18	74 16		 je	 SHORT $LN40@update_ses

; 762  : 					{
; 763  : 						value *= 0.75;

  00f1a	f3 0f 5a 45 e0	 cvtss2sd xmm0, DWORD PTR _value$[ebp]
  00f1f	f2 0f 59 05 00
	00 00 00	 mulsd	 xmm0, QWORD PTR __real@3fe8000000000000
  00f27	f2 0f 5a c0	 cvtsd2ss xmm0, xmm0
  00f2b	f3 0f 11 45 e0	 movss	 DWORD PTR _value$[ebp], xmm0
$LN40@update_ses:

; 764  : 					}
; 765  : 				}
; 766  : 
; 767  : 				set_local_entity_float_value (spec, FLOAT_TYPE_AMPLIFICATION, value);

  00f30	83 7d f8 00	 cmp	 DWORD PTR _spec$[ebp], 0
  00f34	74 0d		 je	 SHORT $LN142@update_ses
  00f36	8b 45 f8	 mov	 eax, DWORD PTR _spec$[ebp]
  00f39	8b 08		 mov	 ecx, DWORD PTR [eax]
  00f3b	89 8d 70 ff ff
	ff		 mov	 DWORD PTR tv560[ebp], ecx
  00f41	eb 27		 jmp	 SHORT $LN143@update_ses
$LN142@update_ses:
  00f43	8b 15 00 00 00
	00		 mov	 edx, DWORD PTR ?__LINE__Var@?0??update_session_sound_effects@@YGXPAUENTITY@@@Z@4JA
  00f49	81 c2 e8 00 00
	00		 add	 edx, 232		; 000000e8H
  00f4f	52		 push	 edx
  00f50	68 00 00 00 00	 push	 OFFSET ??_C@_0EN@MANBNJL@c?3?2users?2nhv90?2projects?2eech?2ap@
  00f55	a1 00 00 00 00	 mov	 eax, DWORD PTR ?null_entity_pointer_message@@3PBDB ; null_entity_pointer_message
  00f5a	50		 push	 eax
  00f5b	e8 00 00 00 00	 call	 ?process_assert@@YGXPBD0H@Z ; process_assert
  00f60	c7 85 70 ff ff
	ff 00 00 00 00	 mov	 DWORD PTR tv560[ebp], 0
$LN143@update_ses:
  00f6a	b9 01 00 00 00	 mov	 ecx, 1
  00f6f	85 c9		 test	 ecx, ecx
  00f71	74 0c		 je	 SHORT $LN144@update_ses
  00f73	c7 85 6c ff ff
	ff 09 00 00 00	 mov	 DWORD PTR tv568[ebp], 9
  00f7d	eb 27		 jmp	 SHORT $LN145@update_ses
$LN144@update_ses:
  00f7f	8b 15 00 00 00
	00		 mov	 edx, DWORD PTR ?__LINE__Var@?0??update_session_sound_effects@@YGXPAUENTITY@@@Z@4JA
  00f85	81 c2 e8 00 00
	00		 add	 edx, 232		; 000000e8H
  00f8b	52		 push	 edx
  00f8c	68 00 00 00 00	 push	 OFFSET ??_C@_0EN@MANBNJL@c?3?2users?2nhv90?2projects?2eech?2ap@
  00f91	a1 00 00 00 00	 mov	 eax, DWORD PTR ?overload_invalid_float_type_message@@3PBDB ; overload_invalid_float_type_message
  00f96	50		 push	 eax
  00f97	e8 00 00 00 00	 call	 ?process_assert@@YGXPBD0H@Z ; process_assert
  00f9c	c7 85 6c ff ff
	ff 00 00 00 00	 mov	 DWORD PTR tv568[ebp], 0
$LN145@update_ses:
  00fa6	51		 push	 ecx
  00fa7	f3 0f 10 45 e0	 movss	 xmm0, DWORD PTR _value$[ebp]
  00fac	f3 0f 11 04 24	 movss	 DWORD PTR [esp], xmm0
  00fb1	6a 09		 push	 9
  00fb3	8b 4d f8	 mov	 ecx, DWORD PTR _spec$[ebp]
  00fb6	51		 push	 ecx
  00fb7	69 95 70 ff ff
	ff bc 02 00 00	 imul	 edx, DWORD PTR tv560[ebp], 700
  00fc1	8b 85 6c ff ff
	ff		 mov	 eax, DWORD PTR tv568[ebp]
  00fc7	8b 8c 82 00 00
	00 00		 mov	 ecx, DWORD PTR ?fn_set_local_entity_float_value@@3PAY0KP@P6GXPAUENTITY@@W4FLOAT_TYPES@@M@ZA[edx+eax*4]
  00fce	ff d1		 call	 ecx

; 768  : 
; 769  : 				break;

  00fd0	e9 7a 0b 00 00	 jmp	 $LN4@update_ses
$LN41@update_ses:

; 770  : 	        }
; 771  : 			case ENTITY_SUB_TYPE_EFFECT_SOUND_AMB1:
; 772  : 			{
; 773  : 				if (alt >= SESSION_TERRAIN_SOUND_EFFECT_ZERO_VOLUME_ALTITUDE)

  00fd5	f3 0f 5a 45 e8	 cvtss2sd xmm0, DWORD PTR _alt$[ebp]
  00fda	66 0f 2f 05 00
	00 00 00	 comisd	 xmm0, QWORD PTR __real@4071800000000000
  00fe2	72 0d		 jb	 SHORT $LN42@update_ses

; 774  : 				{
; 775  : 					value = 0.0;

  00fe4	0f 57 c0	 xorps	 xmm0, xmm0
  00fe7	f3 0f 11 45 e0	 movss	 DWORD PTR _value$[ebp], xmm0

; 776  : 				}
; 777  : 				else

  00fec	e9 1f 02 00 00	 jmp	 $LN46@update_ses
$LN42@update_ses:

; 778  : 				{
; 779  : 					value = get_local_entity_float_value (spec, FLOAT_TYPE_AMPLIFICATION);

  00ff1	83 7d f8 00	 cmp	 DWORD PTR _spec$[ebp], 0
  00ff5	74 0d		 je	 SHORT $LN146@update_ses
  00ff7	8b 45 f8	 mov	 eax, DWORD PTR _spec$[ebp]
  00ffa	8b 08		 mov	 ecx, DWORD PTR [eax]
  00ffc	89 8d 70 ff ff
	ff		 mov	 DWORD PTR tv582[ebp], ecx
  01002	eb 27		 jmp	 SHORT $LN147@update_ses
$LN146@update_ses:
  01004	8b 15 00 00 00
	00		 mov	 edx, DWORD PTR ?__LINE__Var@?0??update_session_sound_effects@@YGXPAUENTITY@@@Z@4JA
  0100a	81 c2 f4 00 00
	00		 add	 edx, 244		; 000000f4H
  01010	52		 push	 edx
  01011	68 00 00 00 00	 push	 OFFSET ??_C@_0EN@MANBNJL@c?3?2users?2nhv90?2projects?2eech?2ap@
  01016	a1 00 00 00 00	 mov	 eax, DWORD PTR ?null_entity_pointer_message@@3PBDB ; null_entity_pointer_message
  0101b	50		 push	 eax
  0101c	e8 00 00 00 00	 call	 ?process_assert@@YGXPBD0H@Z ; process_assert
  01021	c7 85 70 ff ff
	ff 00 00 00 00	 mov	 DWORD PTR tv582[ebp], 0
$LN147@update_ses:
  0102b	b9 01 00 00 00	 mov	 ecx, 1
  01030	85 c9		 test	 ecx, ecx
  01032	74 0c		 je	 SHORT $LN148@update_ses
  01034	c7 85 6c ff ff
	ff 09 00 00 00	 mov	 DWORD PTR tv590[ebp], 9
  0103e	eb 27		 jmp	 SHORT $LN149@update_ses
$LN148@update_ses:
  01040	8b 15 00 00 00
	00		 mov	 edx, DWORD PTR ?__LINE__Var@?0??update_session_sound_effects@@YGXPAUENTITY@@@Z@4JA
  01046	81 c2 f4 00 00
	00		 add	 edx, 244		; 000000f4H
  0104c	52		 push	 edx
  0104d	68 00 00 00 00	 push	 OFFSET ??_C@_0EN@MANBNJL@c?3?2users?2nhv90?2projects?2eech?2ap@
  01052	a1 00 00 00 00	 mov	 eax, DWORD PTR ?overload_invalid_float_type_message@@3PBDB ; overload_invalid_float_type_message
  01057	50		 push	 eax
  01058	e8 00 00 00 00	 call	 ?process_assert@@YGXPBD0H@Z ; process_assert
  0105d	c7 85 6c ff ff
	ff 00 00 00 00	 mov	 DWORD PTR tv590[ebp], 0
$LN149@update_ses:
  01067	6a 09		 push	 9
  01069	8b 4d f8	 mov	 ecx, DWORD PTR _spec$[ebp]
  0106c	51		 push	 ecx
  0106d	69 95 70 ff ff
	ff bc 02 00 00	 imul	 edx, DWORD PTR tv582[ebp], 700
  01077	8b 85 6c ff ff
	ff		 mov	 eax, DWORD PTR tv590[ebp]
  0107d	8b 8c 82 00 00
	00 00		 mov	 ecx, DWORD PTR ?fn_get_local_entity_float_value@@3PAY0KP@P6GMPAUENTITY@@W4FLOAT_TYPES@@@ZA[edx+eax*4]
  01084	ff d1		 call	 ecx
  01086	d9 5d e0	 fstp	 DWORD PTR _value$[ebp]

; 780  : 	
; 781  : 					if (terrain_types_in_sector [TERRAIN_TYPE_RIVER])

  01089	b8 04 00 00 00	 mov	 eax, 4
  0108e	c1 e0 00	 shl	 eax, 0
  01091	83 b8 00 00 00
	00 00		 cmp	 DWORD PTR ?terrain_types_in_sector@@3PAHA[eax], 0
  01098	74 24		 je	 SHORT $LN44@update_ses

; 782  : 					{
; 783  : 						value += (0.5 * get_delta_time ());

  0109a	f3 0f 5a 05 00
	00 00 00	 cvtss2sd xmm0, DWORD PTR ?system_delta_time@@3MA
  010a2	f2 0f 59 05 00
	00 00 00	 mulsd	 xmm0, QWORD PTR __real@3fe0000000000000
  010aa	f3 0f 5a 4d e0	 cvtss2sd xmm1, DWORD PTR _value$[ebp]
  010af	f2 0f 58 c8	 addsd	 xmm1, xmm0
  010b3	f2 0f 5a c1	 cvtsd2ss xmm0, xmm1
  010b7	f3 0f 11 45 e0	 movss	 DWORD PTR _value$[ebp], xmm0

; 784  : 					}
; 785  : 					else

  010bc	eb 22		 jmp	 SHORT $LN45@update_ses
$LN44@update_ses:

; 786  : 					{
; 787  : 						value -= (0.5 * get_delta_time ());

  010be	f3 0f 5a 05 00
	00 00 00	 cvtss2sd xmm0, DWORD PTR ?system_delta_time@@3MA
  010c6	f2 0f 59 05 00
	00 00 00	 mulsd	 xmm0, QWORD PTR __real@3fe0000000000000
  010ce	f3 0f 5a 4d e0	 cvtss2sd xmm1, DWORD PTR _value$[ebp]
  010d3	f2 0f 5c c8	 subsd	 xmm1, xmm0
  010d7	f2 0f 5a c1	 cvtsd2ss xmm0, xmm1
  010db	f3 0f 11 45 e0	 movss	 DWORD PTR _value$[ebp], xmm0
$LN45@update_ses:

; 788  : 					}
; 789  : 	
; 790  : 					value = bound (value, 0.0, 0.3);

  010e0	f3 0f 5a 45 e0	 cvtss2sd xmm0, DWORD PTR _value$[ebp]
  010e5	0f 57 c9	 xorps	 xmm1, xmm1
  010e8	66 0f 2f c8	 comisd	 xmm1, xmm0
  010ec	76 0d		 jbe	 SHORT $LN152@update_ses
  010ee	0f 57 c0	 xorps	 xmm0, xmm0
  010f1	f2 0f 11 85 6c
	ff ff ff	 movsd	 QWORD PTR tv615[ebp], xmm0
  010f9	eb 3e		 jmp	 SHORT $LN153@update_ses
$LN152@update_ses:
  010fb	f3 0f 5a 45 e0	 cvtss2sd xmm0, DWORD PTR _value$[ebp]
  01100	66 0f 2f 05 00
	00 00 00	 comisd	 xmm0, QWORD PTR __real@3fd3333333333333
  01108	76 12		 jbe	 SHORT $LN150@update_ses
  0110a	f2 0f 10 05 00
	00 00 00	 movsd	 xmm0, QWORD PTR __real@3fd3333333333333
  01112	f2 0f 11 85 64
	ff ff ff	 movsd	 QWORD PTR tv614[ebp], xmm0
  0111a	eb 0d		 jmp	 SHORT $LN151@update_ses
$LN150@update_ses:
  0111c	f3 0f 5a 45 e0	 cvtss2sd xmm0, DWORD PTR _value$[ebp]
  01121	f2 0f 11 85 64
	ff ff ff	 movsd	 QWORD PTR tv614[ebp], xmm0
$LN151@update_ses:
  01129	f2 0f 10 85 64
	ff ff ff	 movsd	 xmm0, QWORD PTR tv614[ebp]
  01131	f2 0f 11 85 6c
	ff ff ff	 movsd	 QWORD PTR tv615[ebp], xmm0
$LN153@update_ses:
  01139	f2 0f 5a 85 6c
	ff ff ff	 cvtsd2ss xmm0, QWORD PTR tv615[ebp]
  01141	f3 0f 11 45 e0	 movss	 DWORD PTR _value$[ebp], xmm0

; 791  : 
; 792  : 					value *= bound(1.0 - (alt / SESSION_TERRAIN_SOUND_EFFECT_ZERO_VOLUME_ALTITUDE), 0.0, 1.0);

  01146	f3 0f 5a 45 e8	 cvtss2sd xmm0, DWORD PTR _alt$[ebp]
  0114b	f2 0f 5e 05 00
	00 00 00	 divsd	 xmm0, QWORD PTR __real@4071800000000000
  01153	f2 0f 10 0d 00
	00 00 00	 movsd	 xmm1, QWORD PTR __real@3ff0000000000000
  0115b	f2 0f 5c c8	 subsd	 xmm1, xmm0
  0115f	0f 57 c0	 xorps	 xmm0, xmm0
  01162	66 0f 2f c1	 comisd	 xmm0, xmm1
  01166	76 0d		 jbe	 SHORT $LN156@update_ses
  01168	0f 57 c0	 xorps	 xmm0, xmm0
  0116b	f2 0f 11 85 6c
	ff ff ff	 movsd	 QWORD PTR tv629[ebp], xmm0
  01173	eb 66		 jmp	 SHORT $LN157@update_ses
$LN156@update_ses:
  01175	f3 0f 5a 45 e8	 cvtss2sd xmm0, DWORD PTR _alt$[ebp]
  0117a	f2 0f 5e 05 00
	00 00 00	 divsd	 xmm0, QWORD PTR __real@4071800000000000
  01182	f2 0f 10 0d 00
	00 00 00	 movsd	 xmm1, QWORD PTR __real@3ff0000000000000
  0118a	f2 0f 5c c8	 subsd	 xmm1, xmm0
  0118e	66 0f 2f 0d 00
	00 00 00	 comisd	 xmm1, QWORD PTR __real@3ff0000000000000
  01196	76 12		 jbe	 SHORT $LN154@update_ses
  01198	f2 0f 10 05 00
	00 00 00	 movsd	 xmm0, QWORD PTR __real@3ff0000000000000
  011a0	f2 0f 11 85 64
	ff ff ff	 movsd	 QWORD PTR tv628[ebp], xmm0
  011a8	eb 21		 jmp	 SHORT $LN155@update_ses
$LN154@update_ses:
  011aa	f3 0f 5a 45 e8	 cvtss2sd xmm0, DWORD PTR _alt$[ebp]
  011af	f2 0f 5e 05 00
	00 00 00	 divsd	 xmm0, QWORD PTR __real@4071800000000000
  011b7	f2 0f 10 0d 00
	00 00 00	 movsd	 xmm1, QWORD PTR __real@3ff0000000000000
  011bf	f2 0f 5c c8	 subsd	 xmm1, xmm0
  011c3	f2 0f 11 8d 64
	ff ff ff	 movsd	 QWORD PTR tv628[ebp], xmm1
$LN155@update_ses:
  011cb	f2 0f 10 85 64
	ff ff ff	 movsd	 xmm0, QWORD PTR tv628[ebp]
  011d3	f2 0f 11 85 6c
	ff ff ff	 movsd	 QWORD PTR tv629[ebp], xmm0
$LN157@update_ses:
  011db	f3 0f 5a 45 e0	 cvtss2sd xmm0, DWORD PTR _value$[ebp]
  011e0	f2 0f 59 85 6c
	ff ff ff	 mulsd	 xmm0, QWORD PTR tv629[ebp]
  011e8	f2 0f 5a c0	 cvtsd2ss xmm0, xmm0
  011ec	f3 0f 11 45 e0	 movss	 DWORD PTR _value$[ebp], xmm0

; 793  : 
; 794  : 					if (in_cockpit)

  011f1	83 3d 00 00 00
	00 00		 cmp	 DWORD PTR ?in_cockpit@@3HA, 0 ; in_cockpit
  011f8	74 16		 je	 SHORT $LN46@update_ses

; 795  : 					{
; 796  : 						value *= 0.75;

  011fa	f3 0f 5a 45 e0	 cvtss2sd xmm0, DWORD PTR _value$[ebp]
  011ff	f2 0f 59 05 00
	00 00 00	 mulsd	 xmm0, QWORD PTR __real@3fe8000000000000
  01207	f2 0f 5a c0	 cvtsd2ss xmm0, xmm0
  0120b	f3 0f 11 45 e0	 movss	 DWORD PTR _value$[ebp], xmm0
$LN46@update_ses:

; 797  : 					}
; 798  : 				}
; 799  : 
; 800  : 				set_local_entity_float_value (spec, FLOAT_TYPE_AMPLIFICATION, value);

  01210	83 7d f8 00	 cmp	 DWORD PTR _spec$[ebp], 0
  01214	74 0d		 je	 SHORT $LN158@update_ses
  01216	8b 45 f8	 mov	 eax, DWORD PTR _spec$[ebp]
  01219	8b 08		 mov	 ecx, DWORD PTR [eax]
  0121b	89 8d 70 ff ff
	ff		 mov	 DWORD PTR tv643[ebp], ecx
  01221	eb 27		 jmp	 SHORT $LN159@update_ses
$LN158@update_ses:
  01223	8b 15 00 00 00
	00		 mov	 edx, DWORD PTR ?__LINE__Var@?0??update_session_sound_effects@@YGXPAUENTITY@@@Z@4JA
  01229	81 c2 09 01 00
	00		 add	 edx, 265		; 00000109H
  0122f	52		 push	 edx
  01230	68 00 00 00 00	 push	 OFFSET ??_C@_0EN@MANBNJL@c?3?2users?2nhv90?2projects?2eech?2ap@
  01235	a1 00 00 00 00	 mov	 eax, DWORD PTR ?null_entity_pointer_message@@3PBDB ; null_entity_pointer_message
  0123a	50		 push	 eax
  0123b	e8 00 00 00 00	 call	 ?process_assert@@YGXPBD0H@Z ; process_assert
  01240	c7 85 70 ff ff
	ff 00 00 00 00	 mov	 DWORD PTR tv643[ebp], 0
$LN159@update_ses:
  0124a	b9 01 00 00 00	 mov	 ecx, 1
  0124f	85 c9		 test	 ecx, ecx
  01251	74 0c		 je	 SHORT $LN160@update_ses
  01253	c7 85 6c ff ff
	ff 09 00 00 00	 mov	 DWORD PTR tv651[ebp], 9
  0125d	eb 27		 jmp	 SHORT $LN161@update_ses
$LN160@update_ses:
  0125f	8b 15 00 00 00
	00		 mov	 edx, DWORD PTR ?__LINE__Var@?0??update_session_sound_effects@@YGXPAUENTITY@@@Z@4JA
  01265	81 c2 09 01 00
	00		 add	 edx, 265		; 00000109H
  0126b	52		 push	 edx
  0126c	68 00 00 00 00	 push	 OFFSET ??_C@_0EN@MANBNJL@c?3?2users?2nhv90?2projects?2eech?2ap@
  01271	a1 00 00 00 00	 mov	 eax, DWORD PTR ?overload_invalid_float_type_message@@3PBDB ; overload_invalid_float_type_message
  01276	50		 push	 eax
  01277	e8 00 00 00 00	 call	 ?process_assert@@YGXPBD0H@Z ; process_assert
  0127c	c7 85 6c ff ff
	ff 00 00 00 00	 mov	 DWORD PTR tv651[ebp], 0
$LN161@update_ses:
  01286	51		 push	 ecx
  01287	f3 0f 10 45 e0	 movss	 xmm0, DWORD PTR _value$[ebp]
  0128c	f3 0f 11 04 24	 movss	 DWORD PTR [esp], xmm0
  01291	6a 09		 push	 9
  01293	8b 4d f8	 mov	 ecx, DWORD PTR _spec$[ebp]
  01296	51		 push	 ecx
  01297	69 95 70 ff ff
	ff bc 02 00 00	 imul	 edx, DWORD PTR tv643[ebp], 700
  012a1	8b 85 6c ff ff
	ff		 mov	 eax, DWORD PTR tv651[ebp]
  012a7	8b 8c 82 00 00
	00 00		 mov	 ecx, DWORD PTR ?fn_set_local_entity_float_value@@3PAY0KP@P6GXPAUENTITY@@W4FLOAT_TYPES@@M@ZA[edx+eax*4]
  012ae	ff d1		 call	 ecx

; 801  : 
; 802  : 				break;

  012b0	e9 9a 08 00 00	 jmp	 $LN4@update_ses
$LN47@update_ses:

; 803  :             }
; 804  : 			case ENTITY_SUB_TYPE_EFFECT_SOUND_AMB2:
; 805  : 			{
; 806  : 				if (alt >= SESSION_TERRAIN_SOUND_EFFECT_ZERO_VOLUME_ALTITUDE)

  012b5	f3 0f 5a 45 e8	 cvtss2sd xmm0, DWORD PTR _alt$[ebp]
  012ba	66 0f 2f 05 00
	00 00 00	 comisd	 xmm0, QWORD PTR __real@4071800000000000
  012c2	72 0d		 jb	 SHORT $LN48@update_ses

; 807  : 				{
; 808  : 					value = 0.0;

  012c4	0f 57 c0	 xorps	 xmm0, xmm0
  012c7	f3 0f 11 45 e0	 movss	 DWORD PTR _value$[ebp], xmm0

; 809  : 				}
; 810  : 				else

  012cc	e9 1e 02 00 00	 jmp	 $LN52@update_ses
$LN48@update_ses:

; 811  : 				{
; 812  : 					value = get_local_entity_float_value (spec, FLOAT_TYPE_AMPLIFICATION);

  012d1	83 7d f8 00	 cmp	 DWORD PTR _spec$[ebp], 0
  012d5	74 0d		 je	 SHORT $LN162@update_ses
  012d7	8b 45 f8	 mov	 eax, DWORD PTR _spec$[ebp]
  012da	8b 08		 mov	 ecx, DWORD PTR [eax]
  012dc	89 8d 70 ff ff
	ff		 mov	 DWORD PTR tv665[ebp], ecx
  012e2	eb 27		 jmp	 SHORT $LN163@update_ses
$LN162@update_ses:
  012e4	8b 15 00 00 00
	00		 mov	 edx, DWORD PTR ?__LINE__Var@?0??update_session_sound_effects@@YGXPAUENTITY@@@Z@4JA
  012ea	81 c2 15 01 00
	00		 add	 edx, 277		; 00000115H
  012f0	52		 push	 edx
  012f1	68 00 00 00 00	 push	 OFFSET ??_C@_0EN@MANBNJL@c?3?2users?2nhv90?2projects?2eech?2ap@
  012f6	a1 00 00 00 00	 mov	 eax, DWORD PTR ?null_entity_pointer_message@@3PBDB ; null_entity_pointer_message
  012fb	50		 push	 eax
  012fc	e8 00 00 00 00	 call	 ?process_assert@@YGXPBD0H@Z ; process_assert
  01301	c7 85 70 ff ff
	ff 00 00 00 00	 mov	 DWORD PTR tv665[ebp], 0
$LN163@update_ses:
  0130b	b9 01 00 00 00	 mov	 ecx, 1
  01310	85 c9		 test	 ecx, ecx
  01312	74 0c		 je	 SHORT $LN164@update_ses
  01314	c7 85 6c ff ff
	ff 09 00 00 00	 mov	 DWORD PTR tv673[ebp], 9
  0131e	eb 27		 jmp	 SHORT $LN165@update_ses
$LN164@update_ses:
  01320	8b 15 00 00 00
	00		 mov	 edx, DWORD PTR ?__LINE__Var@?0??update_session_sound_effects@@YGXPAUENTITY@@@Z@4JA
  01326	81 c2 15 01 00
	00		 add	 edx, 277		; 00000115H
  0132c	52		 push	 edx
  0132d	68 00 00 00 00	 push	 OFFSET ??_C@_0EN@MANBNJL@c?3?2users?2nhv90?2projects?2eech?2ap@
  01332	a1 00 00 00 00	 mov	 eax, DWORD PTR ?overload_invalid_float_type_message@@3PBDB ; overload_invalid_float_type_message
  01337	50		 push	 eax
  01338	e8 00 00 00 00	 call	 ?process_assert@@YGXPBD0H@Z ; process_assert
  0133d	c7 85 6c ff ff
	ff 00 00 00 00	 mov	 DWORD PTR tv673[ebp], 0
$LN165@update_ses:
  01347	6a 09		 push	 9
  01349	8b 4d f8	 mov	 ecx, DWORD PTR _spec$[ebp]
  0134c	51		 push	 ecx
  0134d	69 95 70 ff ff
	ff bc 02 00 00	 imul	 edx, DWORD PTR tv665[ebp], 700
  01357	8b 85 6c ff ff
	ff		 mov	 eax, DWORD PTR tv673[ebp]
  0135d	8b 8c 82 00 00
	00 00		 mov	 ecx, DWORD PTR ?fn_get_local_entity_float_value@@3PAY0KP@P6GMPAUENTITY@@W4FLOAT_TYPES@@@ZA[edx+eax*4]
  01364	ff d1		 call	 ecx
  01366	d9 5d e0	 fstp	 DWORD PTR _value$[ebp]

; 813  : 	
; 814  : 					if (terrain_types_in_sector [TERRAIN_TYPE_RESERVOIR])

  01369	b8 04 00 00 00	 mov	 eax, 4
  0136e	d1 e0		 shl	 eax, 1
  01370	83 b8 00 00 00
	00 00		 cmp	 DWORD PTR ?terrain_types_in_sector@@3PAHA[eax], 0
  01377	74 24		 je	 SHORT $LN50@update_ses

; 815  : 					{
; 816  : 						value += (0.5 * get_delta_time ());

  01379	f3 0f 5a 05 00
	00 00 00	 cvtss2sd xmm0, DWORD PTR ?system_delta_time@@3MA
  01381	f2 0f 59 05 00
	00 00 00	 mulsd	 xmm0, QWORD PTR __real@3fe0000000000000
  01389	f3 0f 5a 4d e0	 cvtss2sd xmm1, DWORD PTR _value$[ebp]
  0138e	f2 0f 58 c8	 addsd	 xmm1, xmm0
  01392	f2 0f 5a c1	 cvtsd2ss xmm0, xmm1
  01396	f3 0f 11 45 e0	 movss	 DWORD PTR _value$[ebp], xmm0

; 817  : 					}
; 818  : 					else

  0139b	eb 22		 jmp	 SHORT $LN51@update_ses
$LN50@update_ses:

; 819  : 					{
; 820  : 						value -= (0.5 * get_delta_time ());

  0139d	f3 0f 5a 05 00
	00 00 00	 cvtss2sd xmm0, DWORD PTR ?system_delta_time@@3MA
  013a5	f2 0f 59 05 00
	00 00 00	 mulsd	 xmm0, QWORD PTR __real@3fe0000000000000
  013ad	f3 0f 5a 4d e0	 cvtss2sd xmm1, DWORD PTR _value$[ebp]
  013b2	f2 0f 5c c8	 subsd	 xmm1, xmm0
  013b6	f2 0f 5a c1	 cvtsd2ss xmm0, xmm1
  013ba	f3 0f 11 45 e0	 movss	 DWORD PTR _value$[ebp], xmm0
$LN51@update_ses:

; 821  : 					}
; 822  : 	
; 823  : 					value = bound (value, 0.0, 0.3);

  013bf	f3 0f 5a 45 e0	 cvtss2sd xmm0, DWORD PTR _value$[ebp]
  013c4	0f 57 c9	 xorps	 xmm1, xmm1
  013c7	66 0f 2f c8	 comisd	 xmm1, xmm0
  013cb	76 0d		 jbe	 SHORT $LN168@update_ses
  013cd	0f 57 c0	 xorps	 xmm0, xmm0
  013d0	f2 0f 11 85 6c
	ff ff ff	 movsd	 QWORD PTR tv698[ebp], xmm0
  013d8	eb 3e		 jmp	 SHORT $LN169@update_ses
$LN168@update_ses:
  013da	f3 0f 5a 45 e0	 cvtss2sd xmm0, DWORD PTR _value$[ebp]
  013df	66 0f 2f 05 00
	00 00 00	 comisd	 xmm0, QWORD PTR __real@3fd3333333333333
  013e7	76 12		 jbe	 SHORT $LN166@update_ses
  013e9	f2 0f 10 05 00
	00 00 00	 movsd	 xmm0, QWORD PTR __real@3fd3333333333333
  013f1	f2 0f 11 85 64
	ff ff ff	 movsd	 QWORD PTR tv697[ebp], xmm0
  013f9	eb 0d		 jmp	 SHORT $LN167@update_ses
$LN166@update_ses:
  013fb	f3 0f 5a 45 e0	 cvtss2sd xmm0, DWORD PTR _value$[ebp]
  01400	f2 0f 11 85 64
	ff ff ff	 movsd	 QWORD PTR tv697[ebp], xmm0
$LN167@update_ses:
  01408	f2 0f 10 85 64
	ff ff ff	 movsd	 xmm0, QWORD PTR tv697[ebp]
  01410	f2 0f 11 85 6c
	ff ff ff	 movsd	 QWORD PTR tv698[ebp], xmm0
$LN169@update_ses:
  01418	f2 0f 5a 85 6c
	ff ff ff	 cvtsd2ss xmm0, QWORD PTR tv698[ebp]
  01420	f3 0f 11 45 e0	 movss	 DWORD PTR _value$[ebp], xmm0

; 824  : 
; 825  : 					value *= bound(1.0 - (alt / SESSION_TERRAIN_SOUND_EFFECT_ZERO_VOLUME_ALTITUDE), 0.0, 1.0);

  01425	f3 0f 5a 45 e8	 cvtss2sd xmm0, DWORD PTR _alt$[ebp]
  0142a	f2 0f 5e 05 00
	00 00 00	 divsd	 xmm0, QWORD PTR __real@4071800000000000
  01432	f2 0f 10 0d 00
	00 00 00	 movsd	 xmm1, QWORD PTR __real@3ff0000000000000
  0143a	f2 0f 5c c8	 subsd	 xmm1, xmm0
  0143e	0f 57 c0	 xorps	 xmm0, xmm0
  01441	66 0f 2f c1	 comisd	 xmm0, xmm1
  01445	76 0d		 jbe	 SHORT $LN172@update_ses
  01447	0f 57 c0	 xorps	 xmm0, xmm0
  0144a	f2 0f 11 85 6c
	ff ff ff	 movsd	 QWORD PTR tv712[ebp], xmm0
  01452	eb 66		 jmp	 SHORT $LN173@update_ses
$LN172@update_ses:
  01454	f3 0f 5a 45 e8	 cvtss2sd xmm0, DWORD PTR _alt$[ebp]
  01459	f2 0f 5e 05 00
	00 00 00	 divsd	 xmm0, QWORD PTR __real@4071800000000000
  01461	f2 0f 10 0d 00
	00 00 00	 movsd	 xmm1, QWORD PTR __real@3ff0000000000000
  01469	f2 0f 5c c8	 subsd	 xmm1, xmm0
  0146d	66 0f 2f 0d 00
	00 00 00	 comisd	 xmm1, QWORD PTR __real@3ff0000000000000
  01475	76 12		 jbe	 SHORT $LN170@update_ses
  01477	f2 0f 10 05 00
	00 00 00	 movsd	 xmm0, QWORD PTR __real@3ff0000000000000
  0147f	f2 0f 11 85 64
	ff ff ff	 movsd	 QWORD PTR tv711[ebp], xmm0
  01487	eb 21		 jmp	 SHORT $LN171@update_ses
$LN170@update_ses:
  01489	f3 0f 5a 45 e8	 cvtss2sd xmm0, DWORD PTR _alt$[ebp]
  0148e	f2 0f 5e 05 00
	00 00 00	 divsd	 xmm0, QWORD PTR __real@4071800000000000
  01496	f2 0f 10 0d 00
	00 00 00	 movsd	 xmm1, QWORD PTR __real@3ff0000000000000
  0149e	f2 0f 5c c8	 subsd	 xmm1, xmm0
  014a2	f2 0f 11 8d 64
	ff ff ff	 movsd	 QWORD PTR tv711[ebp], xmm1
$LN171@update_ses:
  014aa	f2 0f 10 85 64
	ff ff ff	 movsd	 xmm0, QWORD PTR tv711[ebp]
  014b2	f2 0f 11 85 6c
	ff ff ff	 movsd	 QWORD PTR tv712[ebp], xmm0
$LN173@update_ses:
  014ba	f3 0f 5a 45 e0	 cvtss2sd xmm0, DWORD PTR _value$[ebp]
  014bf	f2 0f 59 85 6c
	ff ff ff	 mulsd	 xmm0, QWORD PTR tv712[ebp]
  014c7	f2 0f 5a c0	 cvtsd2ss xmm0, xmm0
  014cb	f3 0f 11 45 e0	 movss	 DWORD PTR _value$[ebp], xmm0

; 826  : 
; 827  : 					if (in_cockpit)

  014d0	83 3d 00 00 00
	00 00		 cmp	 DWORD PTR ?in_cockpit@@3HA, 0 ; in_cockpit
  014d7	74 16		 je	 SHORT $LN52@update_ses

; 828  : 					{
; 829  : 						value *= 0.75;

  014d9	f3 0f 5a 45 e0	 cvtss2sd xmm0, DWORD PTR _value$[ebp]
  014de	f2 0f 59 05 00
	00 00 00	 mulsd	 xmm0, QWORD PTR __real@3fe8000000000000
  014e6	f2 0f 5a c0	 cvtsd2ss xmm0, xmm0
  014ea	f3 0f 11 45 e0	 movss	 DWORD PTR _value$[ebp], xmm0
$LN52@update_ses:

; 830  : 					}
; 831  : 				}
; 832  : 
; 833  : 				set_local_entity_float_value (spec, FLOAT_TYPE_AMPLIFICATION, value);

  014ef	83 7d f8 00	 cmp	 DWORD PTR _spec$[ebp], 0
  014f3	74 0d		 je	 SHORT $LN174@update_ses
  014f5	8b 45 f8	 mov	 eax, DWORD PTR _spec$[ebp]
  014f8	8b 08		 mov	 ecx, DWORD PTR [eax]
  014fa	89 8d 70 ff ff
	ff		 mov	 DWORD PTR tv726[ebp], ecx
  01500	eb 27		 jmp	 SHORT $LN175@update_ses
$LN174@update_ses:
  01502	8b 15 00 00 00
	00		 mov	 edx, DWORD PTR ?__LINE__Var@?0??update_session_sound_effects@@YGXPAUENTITY@@@Z@4JA
  01508	81 c2 2a 01 00
	00		 add	 edx, 298		; 0000012aH
  0150e	52		 push	 edx
  0150f	68 00 00 00 00	 push	 OFFSET ??_C@_0EN@MANBNJL@c?3?2users?2nhv90?2projects?2eech?2ap@
  01514	a1 00 00 00 00	 mov	 eax, DWORD PTR ?null_entity_pointer_message@@3PBDB ; null_entity_pointer_message
  01519	50		 push	 eax
  0151a	e8 00 00 00 00	 call	 ?process_assert@@YGXPBD0H@Z ; process_assert
  0151f	c7 85 70 ff ff
	ff 00 00 00 00	 mov	 DWORD PTR tv726[ebp], 0
$LN175@update_ses:
  01529	b9 01 00 00 00	 mov	 ecx, 1
  0152e	85 c9		 test	 ecx, ecx
  01530	74 0c		 je	 SHORT $LN176@update_ses
  01532	c7 85 6c ff ff
	ff 09 00 00 00	 mov	 DWORD PTR tv734[ebp], 9
  0153c	eb 27		 jmp	 SHORT $LN177@update_ses
$LN176@update_ses:
  0153e	8b 15 00 00 00
	00		 mov	 edx, DWORD PTR ?__LINE__Var@?0??update_session_sound_effects@@YGXPAUENTITY@@@Z@4JA
  01544	81 c2 2a 01 00
	00		 add	 edx, 298		; 0000012aH
  0154a	52		 push	 edx
  0154b	68 00 00 00 00	 push	 OFFSET ??_C@_0EN@MANBNJL@c?3?2users?2nhv90?2projects?2eech?2ap@
  01550	a1 00 00 00 00	 mov	 eax, DWORD PTR ?overload_invalid_float_type_message@@3PBDB ; overload_invalid_float_type_message
  01555	50		 push	 eax
  01556	e8 00 00 00 00	 call	 ?process_assert@@YGXPBD0H@Z ; process_assert
  0155b	c7 85 6c ff ff
	ff 00 00 00 00	 mov	 DWORD PTR tv734[ebp], 0
$LN177@update_ses:
  01565	51		 push	 ecx
  01566	f3 0f 10 45 e0	 movss	 xmm0, DWORD PTR _value$[ebp]
  0156b	f3 0f 11 04 24	 movss	 DWORD PTR [esp], xmm0
  01570	6a 09		 push	 9
  01572	8b 4d f8	 mov	 ecx, DWORD PTR _spec$[ebp]
  01575	51		 push	 ecx
  01576	69 95 70 ff ff
	ff bc 02 00 00	 imul	 edx, DWORD PTR tv726[ebp], 700
  01580	8b 85 6c ff ff
	ff		 mov	 eax, DWORD PTR tv734[ebp]
  01586	8b 8c 82 00 00
	00 00		 mov	 ecx, DWORD PTR ?fn_set_local_entity_float_value@@3PAY0KP@P6GXPAUENTITY@@W4FLOAT_TYPES@@M@ZA[edx+eax*4]
  0158d	ff d1		 call	 ecx

; 834  : 
; 835  : 				break;

  0158f	e9 bb 05 00 00	 jmp	 $LN4@update_ses
$LN53@update_ses:

; 836  :             }
; 837  : 			case ENTITY_SUB_TYPE_EFFECT_SOUND_AMB3:
; 838  : 			{
; 839  : 				if (alt >= SESSION_TERRAIN_SOUND_EFFECT_ZERO_VOLUME_ALTITUDE)

  01594	f3 0f 5a 45 e8	 cvtss2sd xmm0, DWORD PTR _alt$[ebp]
  01599	66 0f 2f 05 00
	00 00 00	 comisd	 xmm0, QWORD PTR __real@4071800000000000
  015a1	72 0d		 jb	 SHORT $LN54@update_ses

; 840  : 				{
; 841  : 					value = 0.0;

  015a3	0f 57 c0	 xorps	 xmm0, xmm0
  015a6	f3 0f 11 45 e0	 movss	 DWORD PTR _value$[ebp], xmm0

; 842  : 				}
; 843  : 				else

  015ab	e9 1f 02 00 00	 jmp	 $LN58@update_ses
$LN54@update_ses:

; 844  : 				{
; 845  : 					value = get_local_entity_float_value (spec, FLOAT_TYPE_AMPLIFICATION);

  015b0	83 7d f8 00	 cmp	 DWORD PTR _spec$[ebp], 0
  015b4	74 0d		 je	 SHORT $LN178@update_ses
  015b6	8b 45 f8	 mov	 eax, DWORD PTR _spec$[ebp]
  015b9	8b 08		 mov	 ecx, DWORD PTR [eax]
  015bb	89 8d 70 ff ff
	ff		 mov	 DWORD PTR tv748[ebp], ecx
  015c1	eb 27		 jmp	 SHORT $LN179@update_ses
$LN178@update_ses:
  015c3	8b 15 00 00 00
	00		 mov	 edx, DWORD PTR ?__LINE__Var@?0??update_session_sound_effects@@YGXPAUENTITY@@@Z@4JA
  015c9	81 c2 36 01 00
	00		 add	 edx, 310		; 00000136H
  015cf	52		 push	 edx
  015d0	68 00 00 00 00	 push	 OFFSET ??_C@_0EN@MANBNJL@c?3?2users?2nhv90?2projects?2eech?2ap@
  015d5	a1 00 00 00 00	 mov	 eax, DWORD PTR ?null_entity_pointer_message@@3PBDB ; null_entity_pointer_message
  015da	50		 push	 eax
  015db	e8 00 00 00 00	 call	 ?process_assert@@YGXPBD0H@Z ; process_assert
  015e0	c7 85 70 ff ff
	ff 00 00 00 00	 mov	 DWORD PTR tv748[ebp], 0
$LN179@update_ses:
  015ea	b9 01 00 00 00	 mov	 ecx, 1
  015ef	85 c9		 test	 ecx, ecx
  015f1	74 0c		 je	 SHORT $LN180@update_ses
  015f3	c7 85 6c ff ff
	ff 09 00 00 00	 mov	 DWORD PTR tv756[ebp], 9
  015fd	eb 27		 jmp	 SHORT $LN181@update_ses
$LN180@update_ses:
  015ff	8b 15 00 00 00
	00		 mov	 edx, DWORD PTR ?__LINE__Var@?0??update_session_sound_effects@@YGXPAUENTITY@@@Z@4JA
  01605	81 c2 36 01 00
	00		 add	 edx, 310		; 00000136H
  0160b	52		 push	 edx
  0160c	68 00 00 00 00	 push	 OFFSET ??_C@_0EN@MANBNJL@c?3?2users?2nhv90?2projects?2eech?2ap@
  01611	a1 00 00 00 00	 mov	 eax, DWORD PTR ?overload_invalid_float_type_message@@3PBDB ; overload_invalid_float_type_message
  01616	50		 push	 eax
  01617	e8 00 00 00 00	 call	 ?process_assert@@YGXPBD0H@Z ; process_assert
  0161c	c7 85 6c ff ff
	ff 00 00 00 00	 mov	 DWORD PTR tv756[ebp], 0
$LN181@update_ses:
  01626	6a 09		 push	 9
  01628	8b 4d f8	 mov	 ecx, DWORD PTR _spec$[ebp]
  0162b	51		 push	 ecx
  0162c	69 95 70 ff ff
	ff bc 02 00 00	 imul	 edx, DWORD PTR tv748[ebp], 700
  01636	8b 85 6c ff ff
	ff		 mov	 eax, DWORD PTR tv756[ebp]
  0163c	8b 8c 82 00 00
	00 00		 mov	 ecx, DWORD PTR ?fn_get_local_entity_float_value@@3PAY0KP@P6GMPAUENTITY@@W4FLOAT_TYPES@@@ZA[edx+eax*4]
  01643	ff d1		 call	 ecx
  01645	d9 5d e0	 fstp	 DWORD PTR _value$[ebp]

; 846  : 	
; 847  : 					if (terrain_types_in_sector [TERRAIN_TYPE_ALTERED_LAND1])

  01648	b8 04 00 00 00	 mov	 eax, 4
  0164d	6b c8 15	 imul	 ecx, eax, 21
  01650	83 b9 00 00 00
	00 00		 cmp	 DWORD PTR ?terrain_types_in_sector@@3PAHA[ecx], 0
  01657	74 24		 je	 SHORT $LN56@update_ses

; 848  : 					{
; 849  : 						value += (0.5 * get_delta_time ());

  01659	f3 0f 5a 05 00
	00 00 00	 cvtss2sd xmm0, DWORD PTR ?system_delta_time@@3MA
  01661	f2 0f 59 05 00
	00 00 00	 mulsd	 xmm0, QWORD PTR __real@3fe0000000000000
  01669	f3 0f 5a 4d e0	 cvtss2sd xmm1, DWORD PTR _value$[ebp]
  0166e	f2 0f 58 c8	 addsd	 xmm1, xmm0
  01672	f2 0f 5a c1	 cvtsd2ss xmm0, xmm1
  01676	f3 0f 11 45 e0	 movss	 DWORD PTR _value$[ebp], xmm0

; 850  : 					}
; 851  : 					else

  0167b	eb 22		 jmp	 SHORT $LN57@update_ses
$LN56@update_ses:

; 852  : 					{
; 853  : 						value -= (0.5 * get_delta_time ());

  0167d	f3 0f 5a 05 00
	00 00 00	 cvtss2sd xmm0, DWORD PTR ?system_delta_time@@3MA
  01685	f2 0f 59 05 00
	00 00 00	 mulsd	 xmm0, QWORD PTR __real@3fe0000000000000
  0168d	f3 0f 5a 4d e0	 cvtss2sd xmm1, DWORD PTR _value$[ebp]
  01692	f2 0f 5c c8	 subsd	 xmm1, xmm0
  01696	f2 0f 5a c1	 cvtsd2ss xmm0, xmm1
  0169a	f3 0f 11 45 e0	 movss	 DWORD PTR _value$[ebp], xmm0
$LN57@update_ses:

; 854  : 					}
; 855  : 	
; 856  : 					value = bound (value, 0.0, 0.3);

  0169f	f3 0f 5a 45 e0	 cvtss2sd xmm0, DWORD PTR _value$[ebp]
  016a4	0f 57 c9	 xorps	 xmm1, xmm1
  016a7	66 0f 2f c8	 comisd	 xmm1, xmm0
  016ab	76 0d		 jbe	 SHORT $LN184@update_ses
  016ad	0f 57 c0	 xorps	 xmm0, xmm0
  016b0	f2 0f 11 85 6c
	ff ff ff	 movsd	 QWORD PTR tv781[ebp], xmm0
  016b8	eb 3e		 jmp	 SHORT $LN185@update_ses
$LN184@update_ses:
  016ba	f3 0f 5a 45 e0	 cvtss2sd xmm0, DWORD PTR _value$[ebp]
  016bf	66 0f 2f 05 00
	00 00 00	 comisd	 xmm0, QWORD PTR __real@3fd3333333333333
  016c7	76 12		 jbe	 SHORT $LN182@update_ses
  016c9	f2 0f 10 05 00
	00 00 00	 movsd	 xmm0, QWORD PTR __real@3fd3333333333333
  016d1	f2 0f 11 85 64
	ff ff ff	 movsd	 QWORD PTR tv780[ebp], xmm0
  016d9	eb 0d		 jmp	 SHORT $LN183@update_ses
$LN182@update_ses:
  016db	f3 0f 5a 45 e0	 cvtss2sd xmm0, DWORD PTR _value$[ebp]
  016e0	f2 0f 11 85 64
	ff ff ff	 movsd	 QWORD PTR tv780[ebp], xmm0
$LN183@update_ses:
  016e8	f2 0f 10 85 64
	ff ff ff	 movsd	 xmm0, QWORD PTR tv780[ebp]
  016f0	f2 0f 11 85 6c
	ff ff ff	 movsd	 QWORD PTR tv781[ebp], xmm0
$LN185@update_ses:
  016f8	f2 0f 5a 85 6c
	ff ff ff	 cvtsd2ss xmm0, QWORD PTR tv781[ebp]
  01700	f3 0f 11 45 e0	 movss	 DWORD PTR _value$[ebp], xmm0

; 857  : 
; 858  : 					value *= bound(1.0 - (alt / SESSION_TERRAIN_SOUND_EFFECT_ZERO_VOLUME_ALTITUDE), 0.0, 1.0);

  01705	f3 0f 5a 45 e8	 cvtss2sd xmm0, DWORD PTR _alt$[ebp]
  0170a	f2 0f 5e 05 00
	00 00 00	 divsd	 xmm0, QWORD PTR __real@4071800000000000
  01712	f2 0f 10 0d 00
	00 00 00	 movsd	 xmm1, QWORD PTR __real@3ff0000000000000
  0171a	f2 0f 5c c8	 subsd	 xmm1, xmm0
  0171e	0f 57 c0	 xorps	 xmm0, xmm0
  01721	66 0f 2f c1	 comisd	 xmm0, xmm1
  01725	76 0d		 jbe	 SHORT $LN188@update_ses
  01727	0f 57 c0	 xorps	 xmm0, xmm0
  0172a	f2 0f 11 85 6c
	ff ff ff	 movsd	 QWORD PTR tv795[ebp], xmm0
  01732	eb 66		 jmp	 SHORT $LN189@update_ses
$LN188@update_ses:
  01734	f3 0f 5a 45 e8	 cvtss2sd xmm0, DWORD PTR _alt$[ebp]
  01739	f2 0f 5e 05 00
	00 00 00	 divsd	 xmm0, QWORD PTR __real@4071800000000000
  01741	f2 0f 10 0d 00
	00 00 00	 movsd	 xmm1, QWORD PTR __real@3ff0000000000000
  01749	f2 0f 5c c8	 subsd	 xmm1, xmm0
  0174d	66 0f 2f 0d 00
	00 00 00	 comisd	 xmm1, QWORD PTR __real@3ff0000000000000
  01755	76 12		 jbe	 SHORT $LN186@update_ses
  01757	f2 0f 10 05 00
	00 00 00	 movsd	 xmm0, QWORD PTR __real@3ff0000000000000
  0175f	f2 0f 11 85 64
	ff ff ff	 movsd	 QWORD PTR tv794[ebp], xmm0
  01767	eb 21		 jmp	 SHORT $LN187@update_ses
$LN186@update_ses:
  01769	f3 0f 5a 45 e8	 cvtss2sd xmm0, DWORD PTR _alt$[ebp]
  0176e	f2 0f 5e 05 00
	00 00 00	 divsd	 xmm0, QWORD PTR __real@4071800000000000
  01776	f2 0f 10 0d 00
	00 00 00	 movsd	 xmm1, QWORD PTR __real@3ff0000000000000
  0177e	f2 0f 5c c8	 subsd	 xmm1, xmm0
  01782	f2 0f 11 8d 64
	ff ff ff	 movsd	 QWORD PTR tv794[ebp], xmm1
$LN187@update_ses:
  0178a	f2 0f 10 85 64
	ff ff ff	 movsd	 xmm0, QWORD PTR tv794[ebp]
  01792	f2 0f 11 85 6c
	ff ff ff	 movsd	 QWORD PTR tv795[ebp], xmm0
$LN189@update_ses:
  0179a	f3 0f 5a 45 e0	 cvtss2sd xmm0, DWORD PTR _value$[ebp]
  0179f	f2 0f 59 85 6c
	ff ff ff	 mulsd	 xmm0, QWORD PTR tv795[ebp]
  017a7	f2 0f 5a c0	 cvtsd2ss xmm0, xmm0
  017ab	f3 0f 11 45 e0	 movss	 DWORD PTR _value$[ebp], xmm0

; 859  : 
; 860  : 					if (in_cockpit)

  017b0	83 3d 00 00 00
	00 00		 cmp	 DWORD PTR ?in_cockpit@@3HA, 0 ; in_cockpit
  017b7	74 16		 je	 SHORT $LN58@update_ses

; 861  : 					{
; 862  : 						value *= 0.75;

  017b9	f3 0f 5a 45 e0	 cvtss2sd xmm0, DWORD PTR _value$[ebp]
  017be	f2 0f 59 05 00
	00 00 00	 mulsd	 xmm0, QWORD PTR __real@3fe8000000000000
  017c6	f2 0f 5a c0	 cvtsd2ss xmm0, xmm0
  017ca	f3 0f 11 45 e0	 movss	 DWORD PTR _value$[ebp], xmm0
$LN58@update_ses:

; 863  : 					}
; 864  : 				}
; 865  : 
; 866  : 				set_local_entity_float_value (spec, FLOAT_TYPE_AMPLIFICATION, value);

  017cf	83 7d f8 00	 cmp	 DWORD PTR _spec$[ebp], 0
  017d3	74 0d		 je	 SHORT $LN190@update_ses
  017d5	8b 45 f8	 mov	 eax, DWORD PTR _spec$[ebp]
  017d8	8b 08		 mov	 ecx, DWORD PTR [eax]
  017da	89 8d 70 ff ff
	ff		 mov	 DWORD PTR tv809[ebp], ecx
  017e0	eb 27		 jmp	 SHORT $LN191@update_ses
$LN190@update_ses:
  017e2	8b 15 00 00 00
	00		 mov	 edx, DWORD PTR ?__LINE__Var@?0??update_session_sound_effects@@YGXPAUENTITY@@@Z@4JA
  017e8	81 c2 4b 01 00
	00		 add	 edx, 331		; 0000014bH
  017ee	52		 push	 edx
  017ef	68 00 00 00 00	 push	 OFFSET ??_C@_0EN@MANBNJL@c?3?2users?2nhv90?2projects?2eech?2ap@
  017f4	a1 00 00 00 00	 mov	 eax, DWORD PTR ?null_entity_pointer_message@@3PBDB ; null_entity_pointer_message
  017f9	50		 push	 eax
  017fa	e8 00 00 00 00	 call	 ?process_assert@@YGXPBD0H@Z ; process_assert
  017ff	c7 85 70 ff ff
	ff 00 00 00 00	 mov	 DWORD PTR tv809[ebp], 0
$LN191@update_ses:
  01809	b9 01 00 00 00	 mov	 ecx, 1
  0180e	85 c9		 test	 ecx, ecx
  01810	74 0c		 je	 SHORT $LN192@update_ses
  01812	c7 85 6c ff ff
	ff 09 00 00 00	 mov	 DWORD PTR tv817[ebp], 9
  0181c	eb 27		 jmp	 SHORT $LN193@update_ses
$LN192@update_ses:
  0181e	8b 15 00 00 00
	00		 mov	 edx, DWORD PTR ?__LINE__Var@?0??update_session_sound_effects@@YGXPAUENTITY@@@Z@4JA
  01824	81 c2 4b 01 00
	00		 add	 edx, 331		; 0000014bH
  0182a	52		 push	 edx
  0182b	68 00 00 00 00	 push	 OFFSET ??_C@_0EN@MANBNJL@c?3?2users?2nhv90?2projects?2eech?2ap@
  01830	a1 00 00 00 00	 mov	 eax, DWORD PTR ?overload_invalid_float_type_message@@3PBDB ; overload_invalid_float_type_message
  01835	50		 push	 eax
  01836	e8 00 00 00 00	 call	 ?process_assert@@YGXPBD0H@Z ; process_assert
  0183b	c7 85 6c ff ff
	ff 00 00 00 00	 mov	 DWORD PTR tv817[ebp], 0
$LN193@update_ses:
  01845	51		 push	 ecx
  01846	f3 0f 10 45 e0	 movss	 xmm0, DWORD PTR _value$[ebp]
  0184b	f3 0f 11 04 24	 movss	 DWORD PTR [esp], xmm0
  01850	6a 09		 push	 9
  01852	8b 4d f8	 mov	 ecx, DWORD PTR _spec$[ebp]
  01855	51		 push	 ecx
  01856	69 95 70 ff ff
	ff bc 02 00 00	 imul	 edx, DWORD PTR tv809[ebp], 700
  01860	8b 85 6c ff ff
	ff		 mov	 eax, DWORD PTR tv817[ebp]
  01866	8b 8c 82 00 00
	00 00		 mov	 ecx, DWORD PTR ?fn_set_local_entity_float_value@@3PAY0KP@P6GXPAUENTITY@@W4FLOAT_TYPES@@M@ZA[edx+eax*4]
  0186d	ff d1		 call	 ecx

; 867  : 
; 868  : 				break;

  0186f	e9 db 02 00 00	 jmp	 $LN4@update_ses
$LN59@update_ses:

; 869  :             }
; 870  : 			case ENTITY_SUB_TYPE_EFFECT_SOUND_AMB4:
; 871  : 			{
; 872  : 				if (alt >= SESSION_TERRAIN_SOUND_EFFECT_ZERO_VOLUME_ALTITUDE)

  01874	f3 0f 5a 45 e8	 cvtss2sd xmm0, DWORD PTR _alt$[ebp]
  01879	66 0f 2f 05 00
	00 00 00	 comisd	 xmm0, QWORD PTR __real@4071800000000000
  01881	72 0d		 jb	 SHORT $LN60@update_ses

; 873  : 				{
; 874  : 					value = 0.0;

  01883	0f 57 c0	 xorps	 xmm0, xmm0
  01886	f3 0f 11 45 e0	 movss	 DWORD PTR _value$[ebp], xmm0

; 875  : 				}
; 876  : 				else

  0188b	e9 1f 02 00 00	 jmp	 $LN64@update_ses
$LN60@update_ses:

; 877  : 				{
; 878  : 					value = get_local_entity_float_value (spec, FLOAT_TYPE_AMPLIFICATION);

  01890	83 7d f8 00	 cmp	 DWORD PTR _spec$[ebp], 0
  01894	74 0d		 je	 SHORT $LN194@update_ses
  01896	8b 45 f8	 mov	 eax, DWORD PTR _spec$[ebp]
  01899	8b 08		 mov	 ecx, DWORD PTR [eax]
  0189b	89 8d 70 ff ff
	ff		 mov	 DWORD PTR tv831[ebp], ecx
  018a1	eb 27		 jmp	 SHORT $LN195@update_ses
$LN194@update_ses:
  018a3	8b 15 00 00 00
	00		 mov	 edx, DWORD PTR ?__LINE__Var@?0??update_session_sound_effects@@YGXPAUENTITY@@@Z@4JA
  018a9	81 c2 57 01 00
	00		 add	 edx, 343		; 00000157H
  018af	52		 push	 edx
  018b0	68 00 00 00 00	 push	 OFFSET ??_C@_0EN@MANBNJL@c?3?2users?2nhv90?2projects?2eech?2ap@
  018b5	a1 00 00 00 00	 mov	 eax, DWORD PTR ?null_entity_pointer_message@@3PBDB ; null_entity_pointer_message
  018ba	50		 push	 eax
  018bb	e8 00 00 00 00	 call	 ?process_assert@@YGXPBD0H@Z ; process_assert
  018c0	c7 85 70 ff ff
	ff 00 00 00 00	 mov	 DWORD PTR tv831[ebp], 0
$LN195@update_ses:
  018ca	b9 01 00 00 00	 mov	 ecx, 1
  018cf	85 c9		 test	 ecx, ecx
  018d1	74 0c		 je	 SHORT $LN196@update_ses
  018d3	c7 85 6c ff ff
	ff 09 00 00 00	 mov	 DWORD PTR tv839[ebp], 9
  018dd	eb 27		 jmp	 SHORT $LN197@update_ses
$LN196@update_ses:
  018df	8b 15 00 00 00
	00		 mov	 edx, DWORD PTR ?__LINE__Var@?0??update_session_sound_effects@@YGXPAUENTITY@@@Z@4JA
  018e5	81 c2 57 01 00
	00		 add	 edx, 343		; 00000157H
  018eb	52		 push	 edx
  018ec	68 00 00 00 00	 push	 OFFSET ??_C@_0EN@MANBNJL@c?3?2users?2nhv90?2projects?2eech?2ap@
  018f1	a1 00 00 00 00	 mov	 eax, DWORD PTR ?overload_invalid_float_type_message@@3PBDB ; overload_invalid_float_type_message
  018f6	50		 push	 eax
  018f7	e8 00 00 00 00	 call	 ?process_assert@@YGXPBD0H@Z ; process_assert
  018fc	c7 85 6c ff ff
	ff 00 00 00 00	 mov	 DWORD PTR tv839[ebp], 0
$LN197@update_ses:
  01906	6a 09		 push	 9
  01908	8b 4d f8	 mov	 ecx, DWORD PTR _spec$[ebp]
  0190b	51		 push	 ecx
  0190c	69 95 70 ff ff
	ff bc 02 00 00	 imul	 edx, DWORD PTR tv831[ebp], 700
  01916	8b 85 6c ff ff
	ff		 mov	 eax, DWORD PTR tv839[ebp]
  0191c	8b 8c 82 00 00
	00 00		 mov	 ecx, DWORD PTR ?fn_get_local_entity_float_value@@3PAY0KP@P6GMPAUENTITY@@W4FLOAT_TYPES@@@ZA[edx+eax*4]
  01923	ff d1		 call	 ecx
  01925	d9 5d e0	 fstp	 DWORD PTR _value$[ebp]

; 879  : 	
; 880  : 					if (terrain_types_in_sector [TERRAIN_TYPE_ALTERED_LAND2])

  01928	b8 04 00 00 00	 mov	 eax, 4
  0192d	6b c8 16	 imul	 ecx, eax, 22
  01930	83 b9 00 00 00
	00 00		 cmp	 DWORD PTR ?terrain_types_in_sector@@3PAHA[ecx], 0
  01937	74 24		 je	 SHORT $LN62@update_ses

; 881  : 					{
; 882  : 						value += (0.5 * get_delta_time ());

  01939	f3 0f 5a 05 00
	00 00 00	 cvtss2sd xmm0, DWORD PTR ?system_delta_time@@3MA
  01941	f2 0f 59 05 00
	00 00 00	 mulsd	 xmm0, QWORD PTR __real@3fe0000000000000
  01949	f3 0f 5a 4d e0	 cvtss2sd xmm1, DWORD PTR _value$[ebp]
  0194e	f2 0f 58 c8	 addsd	 xmm1, xmm0
  01952	f2 0f 5a c1	 cvtsd2ss xmm0, xmm1
  01956	f3 0f 11 45 e0	 movss	 DWORD PTR _value$[ebp], xmm0

; 883  : 					}
; 884  : 					else

  0195b	eb 22		 jmp	 SHORT $LN63@update_ses
$LN62@update_ses:

; 885  : 					{
; 886  : 						value -= (0.5 * get_delta_time ());

  0195d	f3 0f 5a 05 00
	00 00 00	 cvtss2sd xmm0, DWORD PTR ?system_delta_time@@3MA
  01965	f2 0f 59 05 00
	00 00 00	 mulsd	 xmm0, QWORD PTR __real@3fe0000000000000
  0196d	f3 0f 5a 4d e0	 cvtss2sd xmm1, DWORD PTR _value$[ebp]
  01972	f2 0f 5c c8	 subsd	 xmm1, xmm0
  01976	f2 0f 5a c1	 cvtsd2ss xmm0, xmm1
  0197a	f3 0f 11 45 e0	 movss	 DWORD PTR _value$[ebp], xmm0
$LN63@update_ses:

; 887  : 					}
; 888  : 	
; 889  : 					value = bound (value, 0.0, 0.3);

  0197f	f3 0f 5a 45 e0	 cvtss2sd xmm0, DWORD PTR _value$[ebp]
  01984	0f 57 c9	 xorps	 xmm1, xmm1
  01987	66 0f 2f c8	 comisd	 xmm1, xmm0
  0198b	76 0d		 jbe	 SHORT $LN200@update_ses
  0198d	0f 57 c0	 xorps	 xmm0, xmm0
  01990	f2 0f 11 85 6c
	ff ff ff	 movsd	 QWORD PTR tv864[ebp], xmm0
  01998	eb 3e		 jmp	 SHORT $LN201@update_ses
$LN200@update_ses:
  0199a	f3 0f 5a 45 e0	 cvtss2sd xmm0, DWORD PTR _value$[ebp]
  0199f	66 0f 2f 05 00
	00 00 00	 comisd	 xmm0, QWORD PTR __real@3fd3333333333333
  019a7	76 12		 jbe	 SHORT $LN198@update_ses
  019a9	f2 0f 10 05 00
	00 00 00	 movsd	 xmm0, QWORD PTR __real@3fd3333333333333
  019b1	f2 0f 11 85 64
	ff ff ff	 movsd	 QWORD PTR tv863[ebp], xmm0
  019b9	eb 0d		 jmp	 SHORT $LN199@update_ses
$LN198@update_ses:
  019bb	f3 0f 5a 45 e0	 cvtss2sd xmm0, DWORD PTR _value$[ebp]
  019c0	f2 0f 11 85 64
	ff ff ff	 movsd	 QWORD PTR tv863[ebp], xmm0
$LN199@update_ses:
  019c8	f2 0f 10 85 64
	ff ff ff	 movsd	 xmm0, QWORD PTR tv863[ebp]
  019d0	f2 0f 11 85 6c
	ff ff ff	 movsd	 QWORD PTR tv864[ebp], xmm0
$LN201@update_ses:
  019d8	f2 0f 5a 85 6c
	ff ff ff	 cvtsd2ss xmm0, QWORD PTR tv864[ebp]
  019e0	f3 0f 11 45 e0	 movss	 DWORD PTR _value$[ebp], xmm0

; 890  : 
; 891  : 					value *= bound(1.0 - (alt / SESSION_TERRAIN_SOUND_EFFECT_ZERO_VOLUME_ALTITUDE), 0.0, 1.0);

  019e5	f3 0f 5a 45 e8	 cvtss2sd xmm0, DWORD PTR _alt$[ebp]
  019ea	f2 0f 5e 05 00
	00 00 00	 divsd	 xmm0, QWORD PTR __real@4071800000000000
  019f2	f2 0f 10 0d 00
	00 00 00	 movsd	 xmm1, QWORD PTR __real@3ff0000000000000
  019fa	f2 0f 5c c8	 subsd	 xmm1, xmm0
  019fe	0f 57 c0	 xorps	 xmm0, xmm0
  01a01	66 0f 2f c1	 comisd	 xmm0, xmm1
  01a05	76 0d		 jbe	 SHORT $LN204@update_ses
  01a07	0f 57 c0	 xorps	 xmm0, xmm0
  01a0a	f2 0f 11 85 6c
	ff ff ff	 movsd	 QWORD PTR tv878[ebp], xmm0
  01a12	eb 66		 jmp	 SHORT $LN205@update_ses
$LN204@update_ses:
  01a14	f3 0f 5a 45 e8	 cvtss2sd xmm0, DWORD PTR _alt$[ebp]
  01a19	f2 0f 5e 05 00
	00 00 00	 divsd	 xmm0, QWORD PTR __real@4071800000000000
  01a21	f2 0f 10 0d 00
	00 00 00	 movsd	 xmm1, QWORD PTR __real@3ff0000000000000
  01a29	f2 0f 5c c8	 subsd	 xmm1, xmm0
  01a2d	66 0f 2f 0d 00
	00 00 00	 comisd	 xmm1, QWORD PTR __real@3ff0000000000000
  01a35	76 12		 jbe	 SHORT $LN202@update_ses
  01a37	f2 0f 10 05 00
	00 00 00	 movsd	 xmm0, QWORD PTR __real@3ff0000000000000
  01a3f	f2 0f 11 85 64
	ff ff ff	 movsd	 QWORD PTR tv877[ebp], xmm0
  01a47	eb 21		 jmp	 SHORT $LN203@update_ses
$LN202@update_ses:
  01a49	f3 0f 5a 45 e8	 cvtss2sd xmm0, DWORD PTR _alt$[ebp]
  01a4e	f2 0f 5e 05 00
	00 00 00	 divsd	 xmm0, QWORD PTR __real@4071800000000000
  01a56	f2 0f 10 0d 00
	00 00 00	 movsd	 xmm1, QWORD PTR __real@3ff0000000000000
  01a5e	f2 0f 5c c8	 subsd	 xmm1, xmm0
  01a62	f2 0f 11 8d 64
	ff ff ff	 movsd	 QWORD PTR tv877[ebp], xmm1
$LN203@update_ses:
  01a6a	f2 0f 10 85 64
	ff ff ff	 movsd	 xmm0, QWORD PTR tv877[ebp]
  01a72	f2 0f 11 85 6c
	ff ff ff	 movsd	 QWORD PTR tv878[ebp], xmm0
$LN205@update_ses:
  01a7a	f3 0f 5a 45 e0	 cvtss2sd xmm0, DWORD PTR _value$[ebp]
  01a7f	f2 0f 59 85 6c
	ff ff ff	 mulsd	 xmm0, QWORD PTR tv878[ebp]
  01a87	f2 0f 5a c0	 cvtsd2ss xmm0, xmm0
  01a8b	f3 0f 11 45 e0	 movss	 DWORD PTR _value$[ebp], xmm0

; 892  : 
; 893  : 					if (in_cockpit)

  01a90	83 3d 00 00 00
	00 00		 cmp	 DWORD PTR ?in_cockpit@@3HA, 0 ; in_cockpit
  01a97	74 16		 je	 SHORT $LN64@update_ses

; 894  : 					{
; 895  : 						value *= 0.75;

  01a99	f3 0f 5a 45 e0	 cvtss2sd xmm0, DWORD PTR _value$[ebp]
  01a9e	f2 0f 59 05 00
	00 00 00	 mulsd	 xmm0, QWORD PTR __real@3fe8000000000000
  01aa6	f2 0f 5a c0	 cvtsd2ss xmm0, xmm0
  01aaa	f3 0f 11 45 e0	 movss	 DWORD PTR _value$[ebp], xmm0
$LN64@update_ses:

; 896  : 					}
; 897  : 				}
; 898  : 
; 899  : 				set_local_entity_float_value (spec, FLOAT_TYPE_AMPLIFICATION, value);

  01aaf	83 7d f8 00	 cmp	 DWORD PTR _spec$[ebp], 0
  01ab3	74 0d		 je	 SHORT $LN206@update_ses
  01ab5	8b 45 f8	 mov	 eax, DWORD PTR _spec$[ebp]
  01ab8	8b 08		 mov	 ecx, DWORD PTR [eax]
  01aba	89 8d 70 ff ff
	ff		 mov	 DWORD PTR tv892[ebp], ecx
  01ac0	eb 27		 jmp	 SHORT $LN207@update_ses
$LN206@update_ses:
  01ac2	8b 15 00 00 00
	00		 mov	 edx, DWORD PTR ?__LINE__Var@?0??update_session_sound_effects@@YGXPAUENTITY@@@Z@4JA
  01ac8	81 c2 6c 01 00
	00		 add	 edx, 364		; 0000016cH
  01ace	52		 push	 edx
  01acf	68 00 00 00 00	 push	 OFFSET ??_C@_0EN@MANBNJL@c?3?2users?2nhv90?2projects?2eech?2ap@
  01ad4	a1 00 00 00 00	 mov	 eax, DWORD PTR ?null_entity_pointer_message@@3PBDB ; null_entity_pointer_message
  01ad9	50		 push	 eax
  01ada	e8 00 00 00 00	 call	 ?process_assert@@YGXPBD0H@Z ; process_assert
  01adf	c7 85 70 ff ff
	ff 00 00 00 00	 mov	 DWORD PTR tv892[ebp], 0
$LN207@update_ses:
  01ae9	b9 01 00 00 00	 mov	 ecx, 1
  01aee	85 c9		 test	 ecx, ecx
  01af0	74 0c		 je	 SHORT $LN208@update_ses
  01af2	c7 85 6c ff ff
	ff 09 00 00 00	 mov	 DWORD PTR tv900[ebp], 9
  01afc	eb 27		 jmp	 SHORT $LN209@update_ses
$LN208@update_ses:
  01afe	8b 15 00 00 00
	00		 mov	 edx, DWORD PTR ?__LINE__Var@?0??update_session_sound_effects@@YGXPAUENTITY@@@Z@4JA
  01b04	81 c2 6c 01 00
	00		 add	 edx, 364		; 0000016cH
  01b0a	52		 push	 edx
  01b0b	68 00 00 00 00	 push	 OFFSET ??_C@_0EN@MANBNJL@c?3?2users?2nhv90?2projects?2eech?2ap@
  01b10	a1 00 00 00 00	 mov	 eax, DWORD PTR ?overload_invalid_float_type_message@@3PBDB ; overload_invalid_float_type_message
  01b15	50		 push	 eax
  01b16	e8 00 00 00 00	 call	 ?process_assert@@YGXPBD0H@Z ; process_assert
  01b1b	c7 85 6c ff ff
	ff 00 00 00 00	 mov	 DWORD PTR tv900[ebp], 0
$LN209@update_ses:
  01b25	51		 push	 ecx
  01b26	f3 0f 10 45 e0	 movss	 xmm0, DWORD PTR _value$[ebp]
  01b2b	f3 0f 11 04 24	 movss	 DWORD PTR [esp], xmm0
  01b30	6a 09		 push	 9
  01b32	8b 4d f8	 mov	 ecx, DWORD PTR _spec$[ebp]
  01b35	51		 push	 ecx
  01b36	69 95 70 ff ff
	ff bc 02 00 00	 imul	 edx, DWORD PTR tv892[ebp], 700
  01b40	8b 85 6c ff ff
	ff		 mov	 eax, DWORD PTR tv900[ebp]
  01b46	8b 8c 82 00 00
	00 00		 mov	 ecx, DWORD PTR ?fn_set_local_entity_float_value@@3PAY0KP@P6GXPAUENTITY@@W4FLOAT_TYPES@@M@ZA[edx+eax*4]
  01b4d	ff d1		 call	 ecx
$LN4@update_ses:

; 900  : 
; 901  : 				break;
; 902  : 			}
; 903  : 		}
; 904  : 
; 905  : 		spec = get_local_entity_child_succ (spec, LIST_TYPE_SPECIAL_EFFECT);

  01b4f	83 7d f8 00	 cmp	 DWORD PTR _spec$[ebp], 0
  01b53	74 0d		 je	 SHORT $LN210@update_ses
  01b55	8b 45 f8	 mov	 eax, DWORD PTR _spec$[ebp]
  01b58	8b 08		 mov	 ecx, DWORD PTR [eax]
  01b5a	89 8d 70 ff ff
	ff		 mov	 DWORD PTR tv914[ebp], ecx
  01b60	eb 27		 jmp	 SHORT $LN211@update_ses
$LN210@update_ses:
  01b62	8b 15 00 00 00
	00		 mov	 edx, DWORD PTR ?__LINE__Var@?0??update_session_sound_effects@@YGXPAUENTITY@@@Z@4JA
  01b68	81 c2 72 01 00
	00		 add	 edx, 370		; 00000172H
  01b6e	52		 push	 edx
  01b6f	68 00 00 00 00	 push	 OFFSET ??_C@_0EN@MANBNJL@c?3?2users?2nhv90?2projects?2eech?2ap@
  01b74	a1 00 00 00 00	 mov	 eax, DWORD PTR ?null_entity_pointer_message@@3PBDB ; null_entity_pointer_message
  01b79	50		 push	 eax
  01b7a	e8 00 00 00 00	 call	 ?process_assert@@YGXPBD0H@Z ; process_assert
  01b7f	c7 85 70 ff ff
	ff 00 00 00 00	 mov	 DWORD PTR tv914[ebp], 0
$LN211@update_ses:
  01b89	b9 01 00 00 00	 mov	 ecx, 1
  01b8e	85 c9		 test	 ecx, ecx
  01b90	74 0c		 je	 SHORT $LN212@update_ses
  01b92	c7 85 6c ff ff
	ff 24 00 00 00	 mov	 DWORD PTR tv922[ebp], 36 ; 00000024H
  01b9c	eb 27		 jmp	 SHORT $LN213@update_ses
$LN212@update_ses:
  01b9e	8b 15 00 00 00
	00		 mov	 edx, DWORD PTR ?__LINE__Var@?0??update_session_sound_effects@@YGXPAUENTITY@@@Z@4JA
  01ba4	81 c2 72 01 00
	00		 add	 edx, 370		; 00000172H
  01baa	52		 push	 edx
  01bab	68 00 00 00 00	 push	 OFFSET ??_C@_0EN@MANBNJL@c?3?2users?2nhv90?2projects?2eech?2ap@
  01bb0	a1 00 00 00 00	 mov	 eax, DWORD PTR ?overload_invalid_list_type_message@@3PBDB ; overload_invalid_list_type_message
  01bb5	50		 push	 eax
  01bb6	e8 00 00 00 00	 call	 ?process_assert@@YGXPBD0H@Z ; process_assert
  01bbb	c7 85 6c ff ff
	ff 00 00 00 00	 mov	 DWORD PTR tv922[ebp], 0
$LN213@update_ses:
  01bc5	6a 24		 push	 36			; 00000024H
  01bc7	8b 4d f8	 mov	 ecx, DWORD PTR _spec$[ebp]
  01bca	51		 push	 ecx
  01bcb	69 95 70 ff ff
	ff b4 00 00 00	 imul	 edx, DWORD PTR tv914[ebp], 180
  01bd5	8b 85 6c ff ff
	ff		 mov	 eax, DWORD PTR tv922[ebp]
  01bdb	8b 8c 82 00 00
	00 00		 mov	 ecx, DWORD PTR ?fn_get_local_entity_child_succ@@3PAY0CN@P6GPAUENTITY@@PAU1@W4LIST_TYPES@@@ZA[edx+eax*4]
  01be2	ff d1		 call	 ecx
  01be4	89 45 f8	 mov	 DWORD PTR _spec$[ebp], eax

; 906  : 	}

  01be7	e9 bd ea ff ff	 jmp	 $LN2@update_ses
$LN3@update_ses:

; 907  : }

  01bec	5f		 pop	 edi
  01bed	5e		 pop	 esi
  01bee	5b		 pop	 ebx
  01bef	8b e5		 mov	 esp, ebp
  01bf1	5d		 pop	 ebp
  01bf2	c2 04 00	 ret	 4
  01bf5	0f 1f 00	 npad	 3
$LN215@update_ses:
  01bf8	00 00 00 00	 DD	 $LN26@update_ses
  01bfc	00 00 00 00	 DD	 $LN28@update_ses
  01c00	00 00 00 00	 DD	 $LN25@update_ses
  01c04	00 00 00 00	 DD	 $LN27@update_ses
  01c08	00 00 00 00	 DD	 $LN35@update_ses
  01c0c	00 00 00 00	 DD	 $LN29@update_ses
  01c10	00 00 00 00	 DD	 $LN41@update_ses
  01c14	00 00 00 00	 DD	 $LN47@update_ses
  01c18	00 00 00 00	 DD	 $LN53@update_ses
  01c1c	00 00 00 00	 DD	 $LN59@update_ses
  01c20	00 00 00 00	 DD	 $LN4@update_ses
$LN214@update_ses:
  01c24	00		 DB	 0
  01c25	01		 DB	 1
  01c26	02		 DB	 2
  01c27	03		 DB	 3
  01c28	04		 DB	 4
  01c29	05		 DB	 5
  01c2a	0a		 DB	 10			; 0000000aH
  01c2b	0a		 DB	 10			; 0000000aH
  01c2c	0a		 DB	 10			; 0000000aH
  01c2d	0a		 DB	 10			; 0000000aH
  01c2e	0a		 DB	 10			; 0000000aH
  01c2f	0a		 DB	 10			; 0000000aH
  01c30	0a		 DB	 10			; 0000000aH
  01c31	0a		 DB	 10			; 0000000aH
  01c32	0a		 DB	 10			; 0000000aH
  01c33	0a		 DB	 10			; 0000000aH
  01c34	0a		 DB	 10			; 0000000aH
  01c35	0a		 DB	 10			; 0000000aH
  01c36	0a		 DB	 10			; 0000000aH
  01c37	0a		 DB	 10			; 0000000aH
  01c38	0a		 DB	 10			; 0000000aH
  01c39	0a		 DB	 10			; 0000000aH
  01c3a	0a		 DB	 10			; 0000000aH
  01c3b	0a		 DB	 10			; 0000000aH
  01c3c	0a		 DB	 10			; 0000000aH
  01c3d	0a		 DB	 10			; 0000000aH
  01c3e	0a		 DB	 10			; 0000000aH
  01c3f	0a		 DB	 10			; 0000000aH
  01c40	0a		 DB	 10			; 0000000aH
  01c41	0a		 DB	 10			; 0000000aH
  01c42	0a		 DB	 10			; 0000000aH
  01c43	0a		 DB	 10			; 0000000aH
  01c44	06		 DB	 6
  01c45	07		 DB	 7
  01c46	08		 DB	 8
  01c47	09		 DB	 9
?update_session_sound_effects@@YGXPAUENTITY@@@Z ENDP	; update_session_sound_effects
_TEXT	ENDS
; Function compile flags: /Odtp /ZI
; File c:\users\nhv90\projects\eech\aphavoc\source\entity\special\session\ss_updt.c
;	COMDAT ?update_transitional_weather@@YGXPAUENTITY@@@Z
_TEXT	SEGMENT
tv147 = -80						; size = 4
tv95 = -80						; size = 4
tv139 = -76						; size = 4
tv87 = -76						; size = 4
_raw$ = -8						; size = 4
_camera_pos$ = -4					; size = 4
_en$ = 8						; size = 4
?update_transitional_weather@@YGXPAUENTITY@@@Z PROC	; update_transitional_weather, COMDAT

; 302  : {

  00000	55		 push	 ebp
  00001	8b ec		 mov	 ebp, esp
  00003	83 ec 50	 sub	 esp, 80			; 00000050H
  00006	53		 push	 ebx
  00007	56		 push	 esi
  00008	57		 push	 edi

; 303  : 	vec3d
; 304  : 		*camera_pos;
; 305  : 
; 306  : 	session
; 307  : 		*raw;
; 308  : 
; 309  : 	ASSERT (en);

  00009	83 7d 08 00	 cmp	 DWORD PTR _en$[ebp], 0
  0000d	75 18		 jne	 SHORT $LN4@update_tra
  0000f	a1 00 00 00 00	 mov	 eax, DWORD PTR ?__LINE__Var@?0??update_transitional_weather@@YGXPAUENTITY@@@Z@4JA
  00014	83 c0 07	 add	 eax, 7
  00017	50		 push	 eax
  00018	68 00 00 00 00	 push	 OFFSET ??_C@_0EN@MANBNJL@c?3?2users?2nhv90?2projects?2eech?2ap@
  0001d	68 00 00 00 00	 push	 OFFSET ??_C@_02LFNMGJAP@en@
  00022	e8 00 00 00 00	 call	 ?process_assert@@YGXPBD0H@Z ; process_assert
$LN4@update_tra:

; 310  : 
; 311  : 	raw = (session *) get_local_entity_data (en);

  00027	8b 45 08	 mov	 eax, DWORD PTR _en$[ebp]
  0002a	8b 48 04	 mov	 ecx, DWORD PTR [eax+4]
  0002d	89 4d f8	 mov	 DWORD PTR _raw$[ebp], ecx

; 312  : 
; 313  : 	if (raw->local_weather_model)

  00030	8b 45 f8	 mov	 eax, DWORD PTR _raw$[ebp]
  00033	8b 88 a4 00 00
	00		 mov	 ecx, DWORD PTR [eax+164]
  00039	c1 e9 1d	 shr	 ecx, 29			; 0000001dH
  0003c	83 e1 01	 and	 ecx, 1
  0003f	0f 84 9b 03 00
	00		 je	 $LN5@update_tra

; 314  : 	{
; 315  : 		//
; 316  : 		// local weather model
; 317  : 		//
; 318  : 
; 319  : 		if (raw->weather_radius == 0.0)

  00045	8b 45 f8	 mov	 eax, DWORD PTR _raw$[ebp]
  00048	f3 0f 5a 40 30	 cvtss2sd xmm0, DWORD PTR [eax+48]
  0004d	66 0f 2e 05 00
	00 00 00	 ucomisd xmm0, QWORD PTR __real@0000000000000000
  00055	9f		 lahf
  00056	f6 c4 44	 test	 ah, 68			; 00000044H
  00059	7a 29		 jp	 SHORT $LN7@update_tra

; 320  : 		{
; 321  : 			//
; 322  : 			// weather is fine all across the map
; 323  : 			//
; 324  : 	
; 325  : 			raw->weather_mode = WEATHERMODE_DRY;

  0005b	8b 45 f8	 mov	 eax, DWORD PTR _raw$[ebp]
  0005e	c7 40 3c 01 00
	00 00		 mov	 DWORD PTR [eax+60], 1

; 326  : 			raw->target_weather_mode = WEATHERMODE_DRY;

  00065	8b 45 f8	 mov	 eax, DWORD PTR _raw$[ebp]
  00068	c7 40 40 01 00
	00 00		 mov	 DWORD PTR [eax+64], 1

; 327  : 	
; 328  : 			raw->weather_mode_transitional_status = 1.0;

  0006f	8b 45 f8	 mov	 eax, DWORD PTR _raw$[ebp]
  00072	f3 0f 10 05 00
	00 00 00	 movss	 xmm0, DWORD PTR __real@3f800000
  0007a	f3 0f 11 40 38	 movss	 DWORD PTR [eax+56], xmm0

; 329  : 		}
; 330  : 		else

  0007f	e9 43 01 00 00	 jmp	 $LN8@update_tra
$LN7@update_tra:

; 331  : 		{
; 332  : 			//
; 333  : 			// there is some bad weather somewhere on the map
; 334  : 			//
; 335  : 
; 336  : 			if (in_cockpit)

  00084	83 3d 00 00 00
	00 00		 cmp	 DWORD PTR ?in_cockpit@@3HA, 0 ; in_cockpit
  0008b	0f 84 8a 00 00
	00		 je	 $LN9@update_tra

; 337  : 			{
; 338  : 				camera_pos = get_local_entity_vec3d_ptr (get_gunship_entity (), VEC3D_TYPE_POSITION);

  00091	83 3d 00 00 00
	00 00		 cmp	 DWORD PTR ?gunship_entity@@3PAUENTITY@@A, 0 ; gunship_entity
  00098	74 0c		 je	 SHORT $LN35@update_tra
  0009a	a1 00 00 00 00	 mov	 eax, DWORD PTR ?gunship_entity@@3PAUENTITY@@A ; gunship_entity
  0009f	8b 08		 mov	 ecx, DWORD PTR [eax]
  000a1	89 4d b4	 mov	 DWORD PTR tv87[ebp], ecx
  000a4	eb 21		 jmp	 SHORT $LN36@update_tra
$LN35@update_tra:
  000a6	8b 15 00 00 00
	00		 mov	 edx, DWORD PTR ?__LINE__Var@?0??update_transitional_weather@@YGXPAUENTITY@@@Z@4JA
  000ac	83 c2 24	 add	 edx, 36			; 00000024H
  000af	52		 push	 edx
  000b0	68 00 00 00 00	 push	 OFFSET ??_C@_0EN@MANBNJL@c?3?2users?2nhv90?2projects?2eech?2ap@
  000b5	a1 00 00 00 00	 mov	 eax, DWORD PTR ?null_entity_pointer_message@@3PBDB ; null_entity_pointer_message
  000ba	50		 push	 eax
  000bb	e8 00 00 00 00	 call	 ?process_assert@@YGXPBD0H@Z ; process_assert
  000c0	c7 45 b4 00 00
	00 00		 mov	 DWORD PTR tv87[ebp], 0
$LN36@update_tra:
  000c7	b9 01 00 00 00	 mov	 ecx, 1
  000cc	85 c9		 test	 ecx, ecx
  000ce	74 09		 je	 SHORT $LN37@update_tra
  000d0	c7 45 b0 08 00
	00 00		 mov	 DWORD PTR tv95[ebp], 8
  000d7	eb 21		 jmp	 SHORT $LN38@update_tra
$LN37@update_tra:
  000d9	8b 15 00 00 00
	00		 mov	 edx, DWORD PTR ?__LINE__Var@?0??update_transitional_weather@@YGXPAUENTITY@@@Z@4JA
  000df	83 c2 24	 add	 edx, 36			; 00000024H
  000e2	52		 push	 edx
  000e3	68 00 00 00 00	 push	 OFFSET ??_C@_0EN@MANBNJL@c?3?2users?2nhv90?2projects?2eech?2ap@
  000e8	a1 00 00 00 00	 mov	 eax, DWORD PTR ?overload_invalid_vec3d_type_message@@3PBDB ; overload_invalid_vec3d_type_message
  000ed	50		 push	 eax
  000ee	e8 00 00 00 00	 call	 ?process_assert@@YGXPBD0H@Z ; process_assert
  000f3	c7 45 b0 00 00
	00 00		 mov	 DWORD PTR tv95[ebp], 0
$LN38@update_tra:
  000fa	6a 08		 push	 8
  000fc	8b 0d 00 00 00
	00		 mov	 ecx, DWORD PTR ?gunship_entity@@3PAUENTITY@@A ; gunship_entity
  00102	51		 push	 ecx
  00103	6b 55 b4 60	 imul	 edx, DWORD PTR tv87[ebp], 96
  00107	8b 45 b0	 mov	 eax, DWORD PTR tv95[ebp]
  0010a	8b 8c 82 00 00
	00 00		 mov	 ecx, DWORD PTR ?fn_get_local_entity_vec3d_ptr@@3PAY0BI@P6GPAUVEC3D@@PAUENTITY@@W4VEC3D_TYPES@@@ZA[edx+eax*4]
  00111	ff d1		 call	 ecx
  00113	89 45 fc	 mov	 DWORD PTR _camera_pos$[ebp], eax

; 339  : 			}
; 340  : 			else

  00116	e9 85 00 00 00	 jmp	 $LN10@update_tra
$LN9@update_tra:

; 341  : 			{
; 342  : 				camera_pos = get_local_entity_vec3d_ptr (get_camera_entity (), VEC3D_TYPE_POSITION);

  0011b	83 3d 00 00 00
	00 00		 cmp	 DWORD PTR ?camera_entity@@3PAUENTITY@@A, 0 ; camera_entity
  00122	74 0c		 je	 SHORT $LN39@update_tra
  00124	a1 00 00 00 00	 mov	 eax, DWORD PTR ?camera_entity@@3PAUENTITY@@A ; camera_entity
  00129	8b 08		 mov	 ecx, DWORD PTR [eax]
  0012b	89 4d b4	 mov	 DWORD PTR tv139[ebp], ecx
  0012e	eb 21		 jmp	 SHORT $LN40@update_tra
$LN39@update_tra:
  00130	8b 15 00 00 00
	00		 mov	 edx, DWORD PTR ?__LINE__Var@?0??update_transitional_weather@@YGXPAUENTITY@@@Z@4JA
  00136	83 c2 28	 add	 edx, 40			; 00000028H
  00139	52		 push	 edx
  0013a	68 00 00 00 00	 push	 OFFSET ??_C@_0EN@MANBNJL@c?3?2users?2nhv90?2projects?2eech?2ap@
  0013f	a1 00 00 00 00	 mov	 eax, DWORD PTR ?null_entity_pointer_message@@3PBDB ; null_entity_pointer_message
  00144	50		 push	 eax
  00145	e8 00 00 00 00	 call	 ?process_assert@@YGXPBD0H@Z ; process_assert
  0014a	c7 45 b4 00 00
	00 00		 mov	 DWORD PTR tv139[ebp], 0
$LN40@update_tra:
  00151	b9 01 00 00 00	 mov	 ecx, 1
  00156	85 c9		 test	 ecx, ecx
  00158	74 09		 je	 SHORT $LN41@update_tra
  0015a	c7 45 b0 08 00
	00 00		 mov	 DWORD PTR tv147[ebp], 8
  00161	eb 21		 jmp	 SHORT $LN42@update_tra
$LN41@update_tra:
  00163	8b 15 00 00 00
	00		 mov	 edx, DWORD PTR ?__LINE__Var@?0??update_transitional_weather@@YGXPAUENTITY@@@Z@4JA
  00169	83 c2 28	 add	 edx, 40			; 00000028H
  0016c	52		 push	 edx
  0016d	68 00 00 00 00	 push	 OFFSET ??_C@_0EN@MANBNJL@c?3?2users?2nhv90?2projects?2eech?2ap@
  00172	a1 00 00 00 00	 mov	 eax, DWORD PTR ?overload_invalid_vec3d_type_message@@3PBDB ; overload_invalid_vec3d_type_message
  00177	50		 push	 eax
  00178	e8 00 00 00 00	 call	 ?process_assert@@YGXPBD0H@Z ; process_assert
  0017d	c7 45 b0 00 00
	00 00		 mov	 DWORD PTR tv147[ebp], 0
$LN42@update_tra:
  00184	6a 08		 push	 8
  00186	8b 0d 00 00 00
	00		 mov	 ecx, DWORD PTR ?camera_entity@@3PAUENTITY@@A ; camera_entity
  0018c	51		 push	 ecx
  0018d	6b 55 b4 60	 imul	 edx, DWORD PTR tv139[ebp], 96
  00191	8b 45 b0	 mov	 eax, DWORD PTR tv147[ebp]
  00194	8b 8c 82 00 00
	00 00		 mov	 ecx, DWORD PTR ?fn_get_local_entity_vec3d_ptr@@3PAY0BI@P6GPAUVEC3D@@PAUENTITY@@W4VEC3D_TYPES@@@ZA[edx+eax*4]
  0019b	ff d1		 call	 ecx
  0019d	89 45 fc	 mov	 DWORD PTR _camera_pos$[ebp], eax
$LN10@update_tra:

; 343  : 			}
; 344  : 
; 345  : 			get_session_weather_at_point (camera_pos, &(raw->weather_mode), &(raw->target_weather_mode), &(raw->weather_mode_transitional_status));

  001a0	8b 45 f8	 mov	 eax, DWORD PTR _raw$[ebp]
  001a3	83 c0 38	 add	 eax, 56			; 00000038H
  001a6	50		 push	 eax
  001a7	8b 4d f8	 mov	 ecx, DWORD PTR _raw$[ebp]
  001aa	83 c1 40	 add	 ecx, 64			; 00000040H
  001ad	51		 push	 ecx
  001ae	8b 55 f8	 mov	 edx, DWORD PTR _raw$[ebp]
  001b1	83 c2 3c	 add	 edx, 60			; 0000003cH
  001b4	52		 push	 edx
  001b5	8b 45 fc	 mov	 eax, DWORD PTR _camera_pos$[ebp]
  001b8	50		 push	 eax
  001b9	e8 00 00 00 00	 call	 ?get_session_weather_at_point@@YGXPAUVEC3D@@PAW4WEATHERMODES@@1PAM@Z ; get_session_weather_at_point

; 346  : 
; 347  : 			//
; 348  : 			// lightning effect
; 349  : 			//
; 350  : 
; 351  : 			update_lightning_effect (en);

  001be	8b 45 08	 mov	 eax, DWORD PTR _en$[ebp]
  001c1	50		 push	 eax
  001c2	e8 00 00 00 00	 call	 ?update_lightning_effect@@YGXPAUENTITY@@@Z ; update_lightning_effect
$LN8@update_tra:

; 352  : 		}
; 353  : 		
; 354  : 		//
; 355  : 		// move weather
; 356  : 		//
; 357  : 	
; 358  : 		raw->weather_position.x += (raw->weather_velocity.x * get_delta_time ());

  001c7	8b 45 f8	 mov	 eax, DWORD PTR _raw$[ebp]
  001ca	f3 0f 10 40 50	 movss	 xmm0, DWORD PTR [eax+80]
  001cf	f3 0f 59 05 00
	00 00 00	 mulss	 xmm0, DWORD PTR ?system_delta_time@@3MA
  001d7	8b 4d f8	 mov	 ecx, DWORD PTR _raw$[ebp]
  001da	f3 0f 58 41 44	 addss	 xmm0, DWORD PTR [ecx+68]
  001df	8b 55 f8	 mov	 edx, DWORD PTR _raw$[ebp]
  001e2	f3 0f 11 42 44	 movss	 DWORD PTR [edx+68], xmm0

; 359  : 		raw->weather_position.z += (raw->weather_velocity.z * get_delta_time ());

  001e7	8b 45 f8	 mov	 eax, DWORD PTR _raw$[ebp]
  001ea	f3 0f 10 40 58	 movss	 xmm0, DWORD PTR [eax+88]
  001ef	f3 0f 59 05 00
	00 00 00	 mulss	 xmm0, DWORD PTR ?system_delta_time@@3MA
  001f7	8b 4d f8	 mov	 ecx, DWORD PTR _raw$[ebp]
  001fa	f3 0f 58 41 4c	 addss	 xmm0, DWORD PTR [ecx+76]
  001ff	8b 55 f8	 mov	 edx, DWORD PTR _raw$[ebp]
  00202	f3 0f 11 42 4c	 movss	 DWORD PTR [edx+76], xmm0

; 360  : 	
; 361  : 		//
; 362  : 		// "bounce" weather of sides of map
; 363  : 		//
; 364  : 	
; 365  : 		if (raw->weather_position.x < MIN_MAP_X)

  00207	8b 45 f8	 mov	 eax, DWORD PTR _raw$[ebp]
  0020a	f3 0f 10 05 24
	00 00 00	 movss	 xmm0, DWORD PTR ?world_map@@3UWORLD_MAP_DATA@@A+36
  00212	0f 2f 40 44	 comiss	 xmm0, DWORD PTR [eax+68]
  00216	76 29		 jbe	 SHORT $LN11@update_tra

; 366  : 		{
; 367  : 			raw->weather_position.x = MIN_MAP_X;

  00218	8b 45 f8	 mov	 eax, DWORD PTR _raw$[ebp]
  0021b	f3 0f 10 05 24
	00 00 00	 movss	 xmm0, DWORD PTR ?world_map@@3UWORLD_MAP_DATA@@A+36
  00223	f3 0f 11 40 44	 movss	 DWORD PTR [eax+68], xmm0

; 368  : 	
; 369  : 			raw->weather_velocity.x = -raw->weather_velocity.x;

  00228	8b 45 f8	 mov	 eax, DWORD PTR _raw$[ebp]
  0022b	f3 0f 10 40 50	 movss	 xmm0, DWORD PTR [eax+80]
  00230	0f 57 05 00 00
	00 00		 xorps	 xmm0, DWORD PTR __xmm@80000000800000008000000080000000
  00237	8b 4d f8	 mov	 ecx, DWORD PTR _raw$[ebp]
  0023a	f3 0f 11 41 50	 movss	 DWORD PTR [ecx+80], xmm0
  0023f	eb 44		 jmp	 SHORT $LN13@update_tra
$LN11@update_tra:

; 370  : 		}
; 371  : 		else if (raw->weather_position.x >= MAX_MAP_X)

  00241	8b 45 f8	 mov	 eax, DWORD PTR _raw$[ebp]
  00244	f3 0f 10 40 44	 movss	 xmm0, DWORD PTR [eax+68]
  00249	0f 2f 05 3c 00
	00 00		 comiss	 xmm0, DWORD PTR ?world_map@@3UWORLD_MAP_DATA@@A+60
  00250	72 33		 jb	 SHORT $LN13@update_tra

; 372  : 		{
; 373  : 			raw->weather_position.x = MAX_MAP_X - 1.0;

  00252	f3 0f 5a 05 3c
	00 00 00	 cvtss2sd xmm0, DWORD PTR ?world_map@@3UWORLD_MAP_DATA@@A+60
  0025a	f2 0f 5c 05 00
	00 00 00	 subsd	 xmm0, QWORD PTR __real@3ff0000000000000
  00262	f2 0f 5a c0	 cvtsd2ss xmm0, xmm0
  00266	8b 45 f8	 mov	 eax, DWORD PTR _raw$[ebp]
  00269	f3 0f 11 40 44	 movss	 DWORD PTR [eax+68], xmm0

; 374  : 	
; 375  : 			raw->weather_velocity.x = -raw->weather_velocity.x;

  0026e	8b 45 f8	 mov	 eax, DWORD PTR _raw$[ebp]
  00271	f3 0f 10 40 50	 movss	 xmm0, DWORD PTR [eax+80]
  00276	0f 57 05 00 00
	00 00		 xorps	 xmm0, DWORD PTR __xmm@80000000800000008000000080000000
  0027d	8b 4d f8	 mov	 ecx, DWORD PTR _raw$[ebp]
  00280	f3 0f 11 41 50	 movss	 DWORD PTR [ecx+80], xmm0
$LN13@update_tra:

; 376  : 		}
; 377  : 	
; 378  : 		if (raw->weather_position.z < MIN_MAP_Z)

  00285	8b 45 f8	 mov	 eax, DWORD PTR _raw$[ebp]
  00288	f3 0f 10 05 2c
	00 00 00	 movss	 xmm0, DWORD PTR ?world_map@@3UWORLD_MAP_DATA@@A+44
  00290	0f 2f 40 4c	 comiss	 xmm0, DWORD PTR [eax+76]
  00294	76 29		 jbe	 SHORT $LN14@update_tra

; 379  : 		{
; 380  : 			raw->weather_position.z = MIN_MAP_Z;

  00296	8b 45 f8	 mov	 eax, DWORD PTR _raw$[ebp]
  00299	f3 0f 10 05 2c
	00 00 00	 movss	 xmm0, DWORD PTR ?world_map@@3UWORLD_MAP_DATA@@A+44
  002a1	f3 0f 11 40 4c	 movss	 DWORD PTR [eax+76], xmm0

; 381  : 	
; 382  : 			raw->weather_velocity.z = -raw->weather_velocity.z;

  002a6	8b 45 f8	 mov	 eax, DWORD PTR _raw$[ebp]
  002a9	f3 0f 10 40 58	 movss	 xmm0, DWORD PTR [eax+88]
  002ae	0f 57 05 00 00
	00 00		 xorps	 xmm0, DWORD PTR __xmm@80000000800000008000000080000000
  002b5	8b 4d f8	 mov	 ecx, DWORD PTR _raw$[ebp]
  002b8	f3 0f 11 41 58	 movss	 DWORD PTR [ecx+88], xmm0
  002bd	eb 44		 jmp	 SHORT $LN16@update_tra
$LN14@update_tra:

; 383  : 		}
; 384  : 		else if (raw->weather_position.z >= MAX_MAP_Z)

  002bf	8b 45 f8	 mov	 eax, DWORD PTR _raw$[ebp]
  002c2	f3 0f 10 40 4c	 movss	 xmm0, DWORD PTR [eax+76]
  002c7	0f 2f 05 44 00
	00 00		 comiss	 xmm0, DWORD PTR ?world_map@@3UWORLD_MAP_DATA@@A+68
  002ce	72 33		 jb	 SHORT $LN16@update_tra

; 385  : 		{
; 386  : 			raw->weather_position.z = MAX_MAP_Z - 1.0;

  002d0	f3 0f 5a 05 44
	00 00 00	 cvtss2sd xmm0, DWORD PTR ?world_map@@3UWORLD_MAP_DATA@@A+68
  002d8	f2 0f 5c 05 00
	00 00 00	 subsd	 xmm0, QWORD PTR __real@3ff0000000000000
  002e0	f2 0f 5a c0	 cvtsd2ss xmm0, xmm0
  002e4	8b 45 f8	 mov	 eax, DWORD PTR _raw$[ebp]
  002e7	f3 0f 11 40 4c	 movss	 DWORD PTR [eax+76], xmm0

; 387  : 	
; 388  : 			raw->weather_velocity.z = -raw->weather_velocity.z;

  002ec	8b 45 f8	 mov	 eax, DWORD PTR _raw$[ebp]
  002ef	f3 0f 10 40 58	 movss	 xmm0, DWORD PTR [eax+88]
  002f4	0f 57 05 00 00
	00 00		 xorps	 xmm0, DWORD PTR __xmm@80000000800000008000000080000000
  002fb	8b 4d f8	 mov	 ecx, DWORD PTR _raw$[ebp]
  002fe	f3 0f 11 41 58	 movss	 DWORD PTR [ecx+88], xmm0
$LN16@update_tra:

; 389  : 		}
; 390  : 
; 391  : 		//
; 392  : 		// expand / contract weather radius
; 393  : 		//
; 394  : 
; 395  : 		if (raw->weather_increasing)

  00303	8b 45 f8	 mov	 eax, DWORD PTR _raw$[ebp]
  00306	8b 88 a4 00 00
	00		 mov	 ecx, DWORD PTR [eax+164]
  0030c	c1 e9 1b	 shr	 ecx, 27			; 0000001bH
  0030f	83 e1 01	 and	 ecx, 1
  00312	74 64		 je	 SHORT $LN17@update_tra

; 396  : 		{
; 397  : 			raw->weather_radius += (WEATHER_EXPANSION_RATE * get_delta_time ());

  00314	f3 0f 5a 05 00
	00 00 00	 cvtss2sd xmm0, DWORD PTR ?system_delta_time@@3MA
  0031c	f2 0f 59 05 00
	00 00 00	 mulsd	 xmm0, QWORD PTR __real@4059000000000000
  00324	8b 45 f8	 mov	 eax, DWORD PTR _raw$[ebp]
  00327	f3 0f 5a 48 30	 cvtss2sd xmm1, DWORD PTR [eax+48]
  0032c	f2 0f 58 c8	 addsd	 xmm1, xmm0
  00330	f2 0f 5a c1	 cvtsd2ss xmm0, xmm1
  00334	8b 4d f8	 mov	 ecx, DWORD PTR _raw$[ebp]
  00337	f3 0f 11 41 30	 movss	 DWORD PTR [ecx+48], xmm0

; 398  : 
; 399  : 			if (raw->weather_radius > MAX_WEATHER_RADIUS)

  0033c	8b 45 f8	 mov	 eax, DWORD PTR _raw$[ebp]
  0033f	f3 0f 5a 40 30	 cvtss2sd xmm0, DWORD PTR [eax+48]
  00344	66 0f 2f 05 00
	00 00 00	 comisd	 xmm0, QWORD PTR __real@40f86a0000000000
  0034c	76 28		 jbe	 SHORT $LN19@update_tra

; 400  : 			{
; 401  : 				raw->weather_increasing = FALSE;

  0034e	8b 45 f8	 mov	 eax, DWORD PTR _raw$[ebp]
  00351	8b 88 a4 00 00
	00		 mov	 ecx, DWORD PTR [eax+164]
  00357	81 e1 ff ff ff
	f7		 and	 ecx, -134217729		; f7ffffffH
  0035d	8b 55 f8	 mov	 edx, DWORD PTR _raw$[ebp]
  00360	89 8a a4 00 00
	00		 mov	 DWORD PTR [edx+164], ecx

; 402  : 
; 403  : 				raw->weather_radius = MAX_WEATHER_RADIUS;

  00366	8b 45 f8	 mov	 eax, DWORD PTR _raw$[ebp]
  00369	f3 0f 10 05 00
	00 00 00	 movss	 xmm0, DWORD PTR __real@47c35000
  00371	f3 0f 11 40 30	 movss	 DWORD PTR [eax+48], xmm0
$LN19@update_tra:

; 404  : 			}
; 405  : 		}
; 406  : 		else

  00376	eb 66		 jmp	 SHORT $LN20@update_tra
$LN17@update_tra:

; 407  : 		{
; 408  : 			raw->weather_radius -= (WEATHER_EXPANSION_RATE * get_delta_time ());

  00378	f3 0f 5a 05 00
	00 00 00	 cvtss2sd xmm0, DWORD PTR ?system_delta_time@@3MA
  00380	f2 0f 59 05 00
	00 00 00	 mulsd	 xmm0, QWORD PTR __real@4059000000000000
  00388	8b 45 f8	 mov	 eax, DWORD PTR _raw$[ebp]
  0038b	f3 0f 5a 48 30	 cvtss2sd xmm1, DWORD PTR [eax+48]
  00390	f2 0f 5c c8	 subsd	 xmm1, xmm0
  00394	f2 0f 5a c1	 cvtsd2ss xmm0, xmm1
  00398	8b 4d f8	 mov	 ecx, DWORD PTR _raw$[ebp]
  0039b	f3 0f 11 41 30	 movss	 DWORD PTR [ecx+48], xmm0

; 409  : 
; 410  : 			if (raw->weather_radius < MIN_WEATHER_RADIUS)

  003a0	8b 45 f8	 mov	 eax, DWORD PTR _raw$[ebp]
  003a3	f3 0f 5a 40 30	 cvtss2sd xmm0, DWORD PTR [eax+48]
  003a8	f2 0f 10 0d 00
	00 00 00	 movsd	 xmm1, QWORD PTR __real@40b3880000000000
  003b0	66 0f 2f c8	 comisd	 xmm1, xmm0
  003b4	76 28		 jbe	 SHORT $LN20@update_tra

; 411  : 			{
; 412  : 				raw->weather_increasing = TRUE;

  003b6	8b 45 f8	 mov	 eax, DWORD PTR _raw$[ebp]
  003b9	8b 88 a4 00 00
	00		 mov	 ecx, DWORD PTR [eax+164]
  003bf	81 c9 00 00 00
	08		 or	 ecx, 134217728		; 08000000H
  003c5	8b 55 f8	 mov	 edx, DWORD PTR _raw$[ebp]
  003c8	89 8a a4 00 00
	00		 mov	 DWORD PTR [edx+164], ecx

; 413  : 
; 414  : 				raw->weather_radius = MIN_WEATHER_RADIUS;

  003ce	8b 45 f8	 mov	 eax, DWORD PTR _raw$[ebp]
  003d1	f3 0f 10 05 00
	00 00 00	 movss	 xmm0, DWORD PTR __real@459c4000
  003d9	f3 0f 11 40 30	 movss	 DWORD PTR [eax+48], xmm0
$LN20@update_tra:

; 415  : 			}
; 416  : 		}
; 417  : 	}
; 418  : 	else

  003de	eb 64		 jmp	 SHORT $LN22@update_tra
$LN5@update_tra:

; 419  : 	{
; 420  : 		//
; 421  : 		// global weather model
; 422  : 		//
; 423  : 			
; 424  : 		if (raw->weather_mode != raw->target_weather_mode)

  003e0	8b 45 f8	 mov	 eax, DWORD PTR _raw$[ebp]
  003e3	8b 4d f8	 mov	 ecx, DWORD PTR _raw$[ebp]
  003e6	8b 50 3c	 mov	 edx, DWORD PTR [eax+60]
  003e9	3b 51 40	 cmp	 edx, DWORD PTR [ecx+64]
  003ec	74 4b		 je	 SHORT $LN21@update_tra

; 425  : 		{
; 426  : 			raw->weather_mode_transitional_status += get_delta_time () / raw->weather_mode_transitional_period;

  003ee	8b 45 f8	 mov	 eax, DWORD PTR _raw$[ebp]
  003f1	f3 0f 10 05 00
	00 00 00	 movss	 xmm0, DWORD PTR ?system_delta_time@@3MA
  003f9	f3 0f 5e 40 34	 divss	 xmm0, DWORD PTR [eax+52]
  003fe	8b 4d f8	 mov	 ecx, DWORD PTR _raw$[ebp]
  00401	f3 0f 58 41 38	 addss	 xmm0, DWORD PTR [ecx+56]
  00406	8b 55 f8	 mov	 edx, DWORD PTR _raw$[ebp]
  00409	f3 0f 11 42 38	 movss	 DWORD PTR [edx+56], xmm0

; 427  : 	
; 428  : 			if (raw->weather_mode_transitional_status >= 1.0)

  0040e	8b 45 f8	 mov	 eax, DWORD PTR _raw$[ebp]
  00411	f3 0f 5a 40 38	 cvtss2sd xmm0, DWORD PTR [eax+56]
  00416	66 0f 2f 05 00
	00 00 00	 comisd	 xmm0, QWORD PTR __real@3ff0000000000000
  0041e	72 17		 jb	 SHORT $LN23@update_tra

; 429  : 			{
; 430  : 				raw->weather_mode = raw->target_weather_mode;

  00420	8b 45 f8	 mov	 eax, DWORD PTR _raw$[ebp]
  00423	8b 4d f8	 mov	 ecx, DWORD PTR _raw$[ebp]
  00426	8b 51 40	 mov	 edx, DWORD PTR [ecx+64]
  00429	89 50 3c	 mov	 DWORD PTR [eax+60], edx

; 431  : 	
; 432  : 				raw->weather_mode_transitional_status = 0.0;

  0042c	8b 45 f8	 mov	 eax, DWORD PTR _raw$[ebp]
  0042f	0f 57 c0	 xorps	 xmm0, xmm0
  00432	f3 0f 11 40 38	 movss	 DWORD PTR [eax+56], xmm0
$LN23@update_tra:

; 433  : 			}
; 434  : 		}
; 435  : 		else

  00437	eb 0b		 jmp	 SHORT $LN22@update_tra
$LN21@update_tra:

; 436  : 		{
; 437  : 			raw->weather_mode_transitional_status = 0.0;

  00439	8b 45 f8	 mov	 eax, DWORD PTR _raw$[ebp]
  0043c	0f 57 c0	 xorps	 xmm0, xmm0
  0043f	f3 0f 11 40 38	 movss	 DWORD PTR [eax+56], xmm0
$LN22@update_tra:

; 438  : 		}
; 439  : 	}
; 440  : 
; 441  : 	//
; 442  : 	// move wind
; 443  : 	//
; 444  : 	
; 445  : 	raw->wind_effect_position.x += (raw->wind_effect_velocity.x * get_delta_time ());

  00444	8b 45 f8	 mov	 eax, DWORD PTR _raw$[ebp]
  00447	f3 0f 10 80 84
	00 00 00	 movss	 xmm0, DWORD PTR [eax+132]
  0044f	f3 0f 59 05 00
	00 00 00	 mulss	 xmm0, DWORD PTR ?system_delta_time@@3MA
  00457	8b 4d f8	 mov	 ecx, DWORD PTR _raw$[ebp]
  0045a	f3 0f 58 41 78	 addss	 xmm0, DWORD PTR [ecx+120]
  0045f	8b 55 f8	 mov	 edx, DWORD PTR _raw$[ebp]
  00462	f3 0f 11 42 78	 movss	 DWORD PTR [edx+120], xmm0

; 446  : 	raw->wind_effect_position.z += (raw->wind_effect_velocity.z * get_delta_time ());

  00467	8b 45 f8	 mov	 eax, DWORD PTR _raw$[ebp]
  0046a	f3 0f 10 80 8c
	00 00 00	 movss	 xmm0, DWORD PTR [eax+140]
  00472	f3 0f 59 05 00
	00 00 00	 mulss	 xmm0, DWORD PTR ?system_delta_time@@3MA
  0047a	8b 4d f8	 mov	 ecx, DWORD PTR _raw$[ebp]
  0047d	f3 0f 58 81 80
	00 00 00	 addss	 xmm0, DWORD PTR [ecx+128]
  00485	8b 55 f8	 mov	 edx, DWORD PTR _raw$[ebp]
  00488	f3 0f 11 82 80
	00 00 00	 movss	 DWORD PTR [edx+128], xmm0

; 447  : 
; 448  : 	//
; 449  : 	// "bounce" wind_effect of sides of map
; 450  : 	//
; 451  : 
; 452  : 	if (raw->wind_effect_position.x < MIN_MAP_X)

  00490	8b 45 f8	 mov	 eax, DWORD PTR _raw$[ebp]
  00493	f3 0f 10 05 24
	00 00 00	 movss	 xmm0, DWORD PTR ?world_map@@3UWORLD_MAP_DATA@@A+36
  0049b	0f 2f 40 78	 comiss	 xmm0, DWORD PTR [eax+120]
  0049f	76 2f		 jbe	 SHORT $LN24@update_tra

; 453  : 	{
; 454  : 		raw->wind_effect_position.x = MIN_MAP_X;

  004a1	8b 45 f8	 mov	 eax, DWORD PTR _raw$[ebp]
  004a4	f3 0f 10 05 24
	00 00 00	 movss	 xmm0, DWORD PTR ?world_map@@3UWORLD_MAP_DATA@@A+36
  004ac	f3 0f 11 40 78	 movss	 DWORD PTR [eax+120], xmm0

; 455  : 
; 456  : 		raw->wind_effect_velocity.x = -raw->wind_effect_velocity.x;

  004b1	8b 45 f8	 mov	 eax, DWORD PTR _raw$[ebp]
  004b4	f3 0f 10 80 84
	00 00 00	 movss	 xmm0, DWORD PTR [eax+132]
  004bc	0f 57 05 00 00
	00 00		 xorps	 xmm0, DWORD PTR __xmm@80000000800000008000000080000000
  004c3	8b 4d f8	 mov	 ecx, DWORD PTR _raw$[ebp]
  004c6	f3 0f 11 81 84
	00 00 00	 movss	 DWORD PTR [ecx+132], xmm0
  004ce	eb 4a		 jmp	 SHORT $LN26@update_tra
$LN24@update_tra:

; 457  : 	}
; 458  : 	else if (raw->wind_effect_position.x >= MAX_MAP_X)

  004d0	8b 45 f8	 mov	 eax, DWORD PTR _raw$[ebp]
  004d3	f3 0f 10 40 78	 movss	 xmm0, DWORD PTR [eax+120]
  004d8	0f 2f 05 3c 00
	00 00		 comiss	 xmm0, DWORD PTR ?world_map@@3UWORLD_MAP_DATA@@A+60
  004df	72 39		 jb	 SHORT $LN26@update_tra

; 459  : 	{
; 460  : 		raw->wind_effect_position.x = MAX_MAP_X - 1.0;

  004e1	f3 0f 5a 05 3c
	00 00 00	 cvtss2sd xmm0, DWORD PTR ?world_map@@3UWORLD_MAP_DATA@@A+60
  004e9	f2 0f 5c 05 00
	00 00 00	 subsd	 xmm0, QWORD PTR __real@3ff0000000000000
  004f1	f2 0f 5a c0	 cvtsd2ss xmm0, xmm0
  004f5	8b 45 f8	 mov	 eax, DWORD PTR _raw$[ebp]
  004f8	f3 0f 11 40 78	 movss	 DWORD PTR [eax+120], xmm0

; 461  : 
; 462  : 		raw->wind_effect_velocity.x = -raw->wind_effect_velocity.x;

  004fd	8b 45 f8	 mov	 eax, DWORD PTR _raw$[ebp]
  00500	f3 0f 10 80 84
	00 00 00	 movss	 xmm0, DWORD PTR [eax+132]
  00508	0f 57 05 00 00
	00 00		 xorps	 xmm0, DWORD PTR __xmm@80000000800000008000000080000000
  0050f	8b 4d f8	 mov	 ecx, DWORD PTR _raw$[ebp]
  00512	f3 0f 11 81 84
	00 00 00	 movss	 DWORD PTR [ecx+132], xmm0
$LN26@update_tra:

; 463  : 	}
; 464  : 
; 465  : 	if (raw->wind_effect_position.z < MIN_MAP_Z)

  0051a	8b 45 f8	 mov	 eax, DWORD PTR _raw$[ebp]
  0051d	f3 0f 10 05 2c
	00 00 00	 movss	 xmm0, DWORD PTR ?world_map@@3UWORLD_MAP_DATA@@A+44
  00525	0f 2f 80 80 00
	00 00		 comiss	 xmm0, DWORD PTR [eax+128]
  0052c	76 32		 jbe	 SHORT $LN27@update_tra

; 466  : 	{
; 467  : 		raw->wind_effect_position.z = MIN_MAP_Z;

  0052e	8b 45 f8	 mov	 eax, DWORD PTR _raw$[ebp]
  00531	f3 0f 10 05 2c
	00 00 00	 movss	 xmm0, DWORD PTR ?world_map@@3UWORLD_MAP_DATA@@A+44
  00539	f3 0f 11 80 80
	00 00 00	 movss	 DWORD PTR [eax+128], xmm0

; 468  : 
; 469  : 		raw->wind_effect_velocity.z = -raw->wind_effect_velocity.z;

  00541	8b 45 f8	 mov	 eax, DWORD PTR _raw$[ebp]
  00544	f3 0f 10 80 8c
	00 00 00	 movss	 xmm0, DWORD PTR [eax+140]
  0054c	0f 57 05 00 00
	00 00		 xorps	 xmm0, DWORD PTR __xmm@80000000800000008000000080000000
  00553	8b 4d f8	 mov	 ecx, DWORD PTR _raw$[ebp]
  00556	f3 0f 11 81 8c
	00 00 00	 movss	 DWORD PTR [ecx+140], xmm0
  0055e	eb 50		 jmp	 SHORT $LN29@update_tra
$LN27@update_tra:

; 470  : 	}
; 471  : 	else if (raw->wind_effect_position.z >= MAX_MAP_Z)

  00560	8b 45 f8	 mov	 eax, DWORD PTR _raw$[ebp]
  00563	f3 0f 10 80 80
	00 00 00	 movss	 xmm0, DWORD PTR [eax+128]
  0056b	0f 2f 05 44 00
	00 00		 comiss	 xmm0, DWORD PTR ?world_map@@3UWORLD_MAP_DATA@@A+68
  00572	72 3c		 jb	 SHORT $LN29@update_tra

; 472  : 	{
; 473  : 		raw->wind_effect_position.z = MAX_MAP_Z - 1.0;

  00574	f3 0f 5a 05 44
	00 00 00	 cvtss2sd xmm0, DWORD PTR ?world_map@@3UWORLD_MAP_DATA@@A+68
  0057c	f2 0f 5c 05 00
	00 00 00	 subsd	 xmm0, QWORD PTR __real@3ff0000000000000
  00584	f2 0f 5a c0	 cvtsd2ss xmm0, xmm0
  00588	8b 45 f8	 mov	 eax, DWORD PTR _raw$[ebp]
  0058b	f3 0f 11 80 80
	00 00 00	 movss	 DWORD PTR [eax+128], xmm0

; 474  : 
; 475  : 		raw->wind_effect_velocity.z = -raw->wind_effect_velocity.z;

  00593	8b 45 f8	 mov	 eax, DWORD PTR _raw$[ebp]
  00596	f3 0f 10 80 8c
	00 00 00	 movss	 xmm0, DWORD PTR [eax+140]
  0059e	0f 57 05 00 00
	00 00		 xorps	 xmm0, DWORD PTR __xmm@80000000800000008000000080000000
  005a5	8b 4d f8	 mov	 ecx, DWORD PTR _raw$[ebp]
  005a8	f3 0f 11 81 8c
	00 00 00	 movss	 DWORD PTR [ecx+140], xmm0
$LN29@update_tra:

; 476  : 	}
; 477  : 
; 478  : 	//
; 479  : 	// increase gusting value
; 480  : 	//
; 481  : 
; 482  : 	raw->wind_gusting_value += (get_delta_time () * WIND_GUST_FREQUENCY);

  005b0	f3 0f 5a 05 00
	00 00 00	 cvtss2sd xmm0, DWORD PTR ?system_delta_time@@3MA
  005b8	f2 0f 59 05 00
	00 00 00	 mulsd	 xmm0, QWORD PTR __real@3fb999999999999a
  005c0	8b 45 f8	 mov	 eax, DWORD PTR _raw$[ebp]
  005c3	f3 0f 5a 48 60	 cvtss2sd xmm1, DWORD PTR [eax+96]
  005c8	f2 0f 58 c8	 addsd	 xmm1, xmm0
  005cc	f2 0f 5a c1	 cvtsd2ss xmm0, xmm1
  005d0	8b 4d f8	 mov	 ecx, DWORD PTR _raw$[ebp]
  005d3	f3 0f 11 41 60	 movss	 DWORD PTR [ecx+96], xmm0
$LN2@update_tra:

; 483  : 
; 484  : 	while (raw->wind_gusting_value >= 1.0)

  005d8	8b 45 f8	 mov	 eax, DWORD PTR _raw$[ebp]
  005db	f3 0f 5a 40 60	 cvtss2sd xmm0, DWORD PTR [eax+96]
  005e0	66 0f 2f 05 00
	00 00 00	 comisd	 xmm0, QWORD PTR __real@3ff0000000000000
  005e8	72 1e		 jb	 SHORT $LN3@update_tra

; 485  : 	{
; 486  : 		raw->wind_gusting_value -= 1.0;

  005ea	8b 45 f8	 mov	 eax, DWORD PTR _raw$[ebp]
  005ed	f3 0f 5a 40 60	 cvtss2sd xmm0, DWORD PTR [eax+96]
  005f2	f2 0f 5c 05 00
	00 00 00	 subsd	 xmm0, QWORD PTR __real@3ff0000000000000
  005fa	f2 0f 5a c0	 cvtsd2ss xmm0, xmm0
  005fe	8b 4d f8	 mov	 ecx, DWORD PTR _raw$[ebp]
  00601	f3 0f 11 41 60	 movss	 DWORD PTR [ecx+96], xmm0

; 487  : 	}

  00606	eb d0		 jmp	 SHORT $LN2@update_tra
$LN3@update_tra:

; 488  : 
; 489  : 	//
; 490  : 	// expand / contract wind_effect radius
; 491  : 	//
; 492  : 
; 493  : 	if (raw->wind_increasing)

  00608	8b 45 f8	 mov	 eax, DWORD PTR _raw$[ebp]
  0060b	8b 88 a4 00 00
	00		 mov	 ecx, DWORD PTR [eax+164]
  00611	c1 e9 1c	 shr	 ecx, 28			; 0000001cH
  00614	83 e1 01	 and	 ecx, 1
  00617	74 64		 je	 SHORT $LN30@update_tra

; 494  : 	{
; 495  : 		raw->wind_effect_radius += (WIND_EXPANSION_RATE * get_delta_time ());

  00619	f3 0f 5a 05 00
	00 00 00	 cvtss2sd xmm0, DWORD PTR ?system_delta_time@@3MA
  00621	f2 0f 59 05 00
	00 00 00	 mulsd	 xmm0, QWORD PTR __real@4069000000000000
  00629	8b 45 f8	 mov	 eax, DWORD PTR _raw$[ebp]
  0062c	f3 0f 5a 48 5c	 cvtss2sd xmm1, DWORD PTR [eax+92]
  00631	f2 0f 58 c8	 addsd	 xmm1, xmm0
  00635	f2 0f 5a c1	 cvtsd2ss xmm0, xmm1
  00639	8b 4d f8	 mov	 ecx, DWORD PTR _raw$[ebp]
  0063c	f3 0f 11 41 5c	 movss	 DWORD PTR [ecx+92], xmm0

; 496  : 
; 497  : 		if (raw->wind_effect_radius > MAX_WIND_RADIUS)

  00641	8b 45 f8	 mov	 eax, DWORD PTR _raw$[ebp]
  00644	f3 0f 5a 40 5c	 cvtss2sd xmm0, DWORD PTR [eax+92]
  00649	66 0f 2f 05 00
	00 00 00	 comisd	 xmm0, QWORD PTR __real@40ff400000000000
  00651	76 28		 jbe	 SHORT $LN32@update_tra

; 498  : 		{
; 499  : 			raw->wind_increasing = FALSE;

  00653	8b 45 f8	 mov	 eax, DWORD PTR _raw$[ebp]
  00656	8b 88 a4 00 00
	00		 mov	 ecx, DWORD PTR [eax+164]
  0065c	81 e1 ff ff ff
	ef		 and	 ecx, -268435457		; efffffffH
  00662	8b 55 f8	 mov	 edx, DWORD PTR _raw$[ebp]
  00665	89 8a a4 00 00
	00		 mov	 DWORD PTR [edx+164], ecx

; 500  : 
; 501  : 			raw->wind_effect_radius = MAX_WIND_RADIUS;

  0066b	8b 45 f8	 mov	 eax, DWORD PTR _raw$[ebp]
  0066e	f3 0f 10 05 00
	00 00 00	 movss	 xmm0, DWORD PTR __real@47fa0000
  00676	f3 0f 11 40 5c	 movss	 DWORD PTR [eax+92], xmm0
$LN32@update_tra:

; 502  : 		}
; 503  : 	}
; 504  : 	else

  0067b	eb 66		 jmp	 SHORT $LN33@update_tra
$LN30@update_tra:

; 505  : 	{
; 506  : 		raw->wind_effect_radius -= (WIND_EXPANSION_RATE * get_delta_time ());

  0067d	f3 0f 5a 05 00
	00 00 00	 cvtss2sd xmm0, DWORD PTR ?system_delta_time@@3MA
  00685	f2 0f 59 05 00
	00 00 00	 mulsd	 xmm0, QWORD PTR __real@4069000000000000
  0068d	8b 45 f8	 mov	 eax, DWORD PTR _raw$[ebp]
  00690	f3 0f 5a 48 5c	 cvtss2sd xmm1, DWORD PTR [eax+92]
  00695	f2 0f 5c c8	 subsd	 xmm1, xmm0
  00699	f2 0f 5a c1	 cvtsd2ss xmm0, xmm1
  0069d	8b 4d f8	 mov	 ecx, DWORD PTR _raw$[ebp]
  006a0	f3 0f 11 41 5c	 movss	 DWORD PTR [ecx+92], xmm0

; 507  : 
; 508  : 		if (raw->wind_effect_radius < MIN_WIND_RADIUS)

  006a5	8b 45 f8	 mov	 eax, DWORD PTR _raw$[ebp]
  006a8	f3 0f 5a 40 5c	 cvtss2sd xmm0, DWORD PTR [eax+92]
  006ad	f2 0f 10 0d 00
	00 00 00	 movsd	 xmm1, QWORD PTR __real@40bf400000000000
  006b5	66 0f 2f c8	 comisd	 xmm1, xmm0
  006b9	76 28		 jbe	 SHORT $LN33@update_tra

; 509  : 		{
; 510  : 			raw->wind_increasing = TRUE;

  006bb	8b 45 f8	 mov	 eax, DWORD PTR _raw$[ebp]
  006be	8b 88 a4 00 00
	00		 mov	 ecx, DWORD PTR [eax+164]
  006c4	81 c9 00 00 00
	10		 or	 ecx, 268435456		; 10000000H
  006ca	8b 55 f8	 mov	 edx, DWORD PTR _raw$[ebp]
  006cd	89 8a a4 00 00
	00		 mov	 DWORD PTR [edx+164], ecx

; 511  : 
; 512  : 			raw->wind_effect_radius = MIN_WIND_RADIUS;

  006d3	8b 45 f8	 mov	 eax, DWORD PTR _raw$[ebp]
  006d6	f3 0f 10 05 00
	00 00 00	 movss	 xmm0, DWORD PTR __real@45fa0000
  006de	f3 0f 11 40 5c	 movss	 DWORD PTR [eax+92], xmm0
$LN33@update_tra:

; 513  : 		}
; 514  : 	}
; 515  : 
; 516  : 	//
; 517  : 	// set wind direction
; 518  : 	//
; 519  : 
; 520  : 	raw->wind_direction_vector.x = raw->wind_effect_position.x - MID_MAP_X;

  006e3	8b 45 f8	 mov	 eax, DWORD PTR _raw$[ebp]
  006e6	f3 0f 10 40 78	 movss	 xmm0, DWORD PTR [eax+120]
  006eb	f3 0f 5c 05 30
	00 00 00	 subss	 xmm0, DWORD PTR ?world_map@@3UWORLD_MAP_DATA@@A+48
  006f3	8b 4d f8	 mov	 ecx, DWORD PTR _raw$[ebp]
  006f6	f3 0f 11 41 6c	 movss	 DWORD PTR [ecx+108], xmm0

; 521  : 	raw->wind_direction_vector.y = 0.0;

  006fb	8b 45 f8	 mov	 eax, DWORD PTR _raw$[ebp]
  006fe	0f 57 c0	 xorps	 xmm0, xmm0
  00701	f3 0f 11 40 70	 movss	 DWORD PTR [eax+112], xmm0

; 522  : 	raw->wind_direction_vector.z = raw->wind_effect_position.z - MID_MAP_Z;

  00706	8b 45 f8	 mov	 eax, DWORD PTR _raw$[ebp]
  00709	f3 0f 10 80 80
	00 00 00	 movss	 xmm0, DWORD PTR [eax+128]
  00711	f3 0f 5c 05 38
	00 00 00	 subss	 xmm0, DWORD PTR ?world_map@@3UWORLD_MAP_DATA@@A+56
  00719	8b 4d f8	 mov	 ecx, DWORD PTR _raw$[ebp]
  0071c	f3 0f 11 41 74	 movss	 DWORD PTR [ecx+116], xmm0

; 523  : 
; 524  : 	normalise_any_3d_vector (&raw->wind_direction_vector);

  00721	8b 45 f8	 mov	 eax, DWORD PTR _raw$[ebp]
  00724	83 c0 6c	 add	 eax, 108		; 0000006cH
  00727	50		 push	 eax
  00728	e8 00 00 00 00	 call	 ?normalise_any_3d_vector@@YGMPAUVEC3D@@@Z ; normalise_any_3d_vector
  0072d	dd d8		 fstp	 ST(0)

; 525  : }

  0072f	5f		 pop	 edi
  00730	5e		 pop	 esi
  00731	5b		 pop	 ebx
  00732	8b e5		 mov	 esp, ebp
  00734	5d		 pop	 ebp
  00735	c2 04 00	 ret	 4
?update_transitional_weather@@YGXPAUENTITY@@@Z ENDP	; update_transitional_weather
_TEXT	ENDS
; Function compile flags: /Odtp /ZI
; File c:\users\nhv90\projects\eech\aphavoc\source\entity\special\session\ss_updt.c
;	COMDAT ?update_lightning_effect@@YGXPAUENTITY@@@Z
_TEXT	SEGMENT
tv132 = -92						; size = 4
tv92 = -88						; size = 4
_sound_effect_index$1 = -20				; size = 4
_current_3d_env$2 = -16					; size = 4
_new_time$ = -12					; size = 4
_lightning_flag$ = -8					; size = 4
_raw$ = -4						; size = 4
_en$ = 8						; size = 4
?update_lightning_effect@@YGXPAUENTITY@@@Z PROC		; update_lightning_effect, COMDAT

; 160  : {

  00000	55		 push	 ebp
  00001	8b ec		 mov	 ebp, esp
  00003	83 ec 5c	 sub	 esp, 92			; 0000005cH
  00006	53		 push	 ebx
  00007	56		 push	 esi
  00008	57		 push	 edi

; 161  : 	session
; 162  : 		*raw;
; 163  : 
; 164  : 	int
; 165  : 		lightning_flag = FALSE;

  00009	c7 45 f8 00 00
	00 00		 mov	 DWORD PTR _lightning_flag$[ebp], 0

; 166  : 
; 167  : 	float
; 168  : 		new_time;
; 169  : 
; 170  : 	ASSERT (en);

  00010	83 7d 08 00	 cmp	 DWORD PTR _en$[ebp], 0
  00014	75 18		 jne	 SHORT $LN2@update_lig
  00016	a1 00 00 00 00	 mov	 eax, DWORD PTR ?__LINE__Var@?0??update_lightning_effect@@YGXPAUENTITY@@@Z@4JA
  0001b	83 c0 0a	 add	 eax, 10			; 0000000aH
  0001e	50		 push	 eax
  0001f	68 00 00 00 00	 push	 OFFSET ??_C@_0EN@MANBNJL@c?3?2users?2nhv90?2projects?2eech?2ap@
  00024	68 00 00 00 00	 push	 OFFSET ??_C@_02LFNMGJAP@en@
  00029	e8 00 00 00 00	 call	 ?process_assert@@YGXPBD0H@Z ; process_assert
$LN2@update_lig:

; 171  : 
; 172  : 	raw = (session *) get_local_entity_data (en);

  0002e	8b 45 08	 mov	 eax, DWORD PTR _en$[ebp]
  00031	8b 48 04	 mov	 ecx, DWORD PTR [eax+4]
  00034	89 4d fc	 mov	 DWORD PTR _raw$[ebp], ecx

; 173  : 
; 174  : 	if (get_comms_model () == COMMS_MODEL_SERVER)

  00037	83 3d 00 00 00
	00 00		 cmp	 DWORD PTR ?system_comms_model@@3W4COMMS_MODEL_TYPES@@A, 0 ; system_comms_model
  0003e	0f 85 0f 01 00
	00		 jne	 $LN3@update_lig

; 175  : 	{
; 176  : 		//
; 177  : 		// SERVER : decrease timer, if timer reaches zero create a strike, and reset timer (c/s)
; 178  : 		//
; 179  : 
; 180  : 		raw->lightning_timer -= get_delta_time ();

  00044	8b 45 fc	 mov	 eax, DWORD PTR _raw$[ebp]
  00047	f3 0f 10 40 20	 movss	 xmm0, DWORD PTR [eax+32]
  0004c	f3 0f 5c 05 00
	00 00 00	 subss	 xmm0, DWORD PTR ?system_delta_time@@3MA
  00054	8b 4d fc	 mov	 ecx, DWORD PTR _raw$[ebp]
  00057	f3 0f 11 41 20	 movss	 DWORD PTR [ecx+32], xmm0

; 181  : 
; 182  : 		if (raw->lightning_timer <= 0.0)

  0005c	8b 45 fc	 mov	 eax, DWORD PTR _raw$[ebp]
  0005f	f3 0f 5a 40 20	 cvtss2sd xmm0, DWORD PTR [eax+32]
  00064	0f 57 c9	 xorps	 xmm1, xmm1
  00067	66 0f 2f c8	 comisd	 xmm1, xmm0
  0006b	0f 82 e0 00 00
	00		 jb	 $LN5@update_lig

; 183  : 		{
; 184  : 			lightning_flag = TRUE;

  00071	c7 45 f8 01 00
	00 00		 mov	 DWORD PTR _lightning_flag$[ebp], 1

; 185  : 
; 186  : 			new_time = LIGHTNING_EFFECT_MINIMUM_TIMER + ((LIGHTNING_EFFECT_MAXIMUM_TIMER - LIGHTNING_EFFECT_MINIMUM_TIMER) * frand1 ());

  00078	69 05 00 00 00
	00 6d 4e c6 41	 imul	 eax, DWORD PTR ?random_number_seed@@3HA, 1103515245 ; random_number_seed
  00082	05 39 30 00 00	 add	 eax, 12345		; 00003039H
  00087	a3 00 00 00 00	 mov	 DWORD PTR ?random_number_seed@@3HA, eax ; random_number_seed
  0008c	8b 0d 00 00 00
	00		 mov	 ecx, DWORD PTR ?random_number_seed@@3HA ; random_number_seed
  00092	c1 f9 10	 sar	 ecx, 16			; 00000010H
  00095	81 e1 ff 7f 00
	00		 and	 ecx, 32767		; 00007fffH
  0009b	f2 0f 2a c1	 cvtsi2sd xmm0, ecx
  0009f	f2 0f 59 05 00
	00 00 00	 mulsd	 xmm0, QWORD PTR __real@3f00002000400080
  000a7	f2 0f 59 05 00
	00 00 00	 mulsd	 xmm0, QWORD PTR __real@406b800000000000
  000af	f2 0f 58 05 00
	00 00 00	 addsd	 xmm0, QWORD PTR __real@4034000000000000
  000b7	f2 0f 5a c0	 cvtsd2ss xmm0, xmm0
  000bb	f3 0f 11 45 f4	 movss	 DWORD PTR _new_time$[ebp], xmm0

; 187  : 
; 188  : 			#if DEBUG_MODULES
; 189  : 
; 190  : 			debug_log ("SS_UPDT : Set lightning timer %.2f", new_time);
; 191  : 
; 192  : 			#endif
; 193  : 
; 194  : 			set_client_server_entity_float_value (en, FLOAT_TYPE_LIGHTNING_TIMER, new_time);

  000c0	83 7d 08 00	 cmp	 DWORD PTR _en$[ebp], 0
  000c4	74 0a		 je	 SHORT $LN14@update_lig
  000c6	8b 45 08	 mov	 eax, DWORD PTR _en$[ebp]
  000c9	8b 08		 mov	 ecx, DWORD PTR [eax]
  000cb	89 4d a8	 mov	 DWORD PTR tv92[ebp], ecx
  000ce	eb 21		 jmp	 SHORT $LN15@update_lig
$LN14@update_lig:
  000d0	8b 15 00 00 00
	00		 mov	 edx, DWORD PTR ?__LINE__Var@?0??update_lightning_effect@@YGXPAUENTITY@@@Z@4JA
  000d6	83 c2 22	 add	 edx, 34			; 00000022H
  000d9	52		 push	 edx
  000da	68 00 00 00 00	 push	 OFFSET ??_C@_0EN@MANBNJL@c?3?2users?2nhv90?2projects?2eech?2ap@
  000df	a1 00 00 00 00	 mov	 eax, DWORD PTR ?null_entity_pointer_message@@3PBDB ; null_entity_pointer_message
  000e4	50		 push	 eax
  000e5	e8 00 00 00 00	 call	 ?process_assert@@YGXPBD0H@Z ; process_assert
  000ea	c7 45 a8 00 00
	00 00		 mov	 DWORD PTR tv92[ebp], 0
$LN15@update_lig:
  000f1	b9 01 00 00 00	 mov	 ecx, 1
  000f6	85 c9		 test	 ecx, ecx
  000f8	74 09		 je	 SHORT $LN16@update_lig
  000fa	c7 45 a4 3e 00
	00 00		 mov	 DWORD PTR tv132[ebp], 62 ; 0000003eH
  00101	eb 21		 jmp	 SHORT $LN17@update_lig
$LN16@update_lig:
  00103	8b 15 00 00 00
	00		 mov	 edx, DWORD PTR ?__LINE__Var@?0??update_lightning_effect@@YGXPAUENTITY@@@Z@4JA
  00109	83 c2 22	 add	 edx, 34			; 00000022H
  0010c	52		 push	 edx
  0010d	68 00 00 00 00	 push	 OFFSET ??_C@_0EN@MANBNJL@c?3?2users?2nhv90?2projects?2eech?2ap@
  00112	a1 00 00 00 00	 mov	 eax, DWORD PTR ?overload_invalid_float_type_message@@3PBDB ; overload_invalid_float_type_message
  00117	50		 push	 eax
  00118	e8 00 00 00 00	 call	 ?process_assert@@YGXPBD0H@Z ; process_assert
  0011d	c7 45 a4 00 00
	00 00		 mov	 DWORD PTR tv132[ebp], 0
$LN17@update_lig:
  00124	51		 push	 ecx
  00125	f3 0f 10 45 f4	 movss	 xmm0, DWORD PTR _new_time$[ebp]
  0012a	f3 0f 11 04 24	 movss	 DWORD PTR [esp], xmm0
  0012f	6a 3e		 push	 62			; 0000003eH
  00131	8b 4d 08	 mov	 ecx, DWORD PTR _en$[ebp]
  00134	51		 push	 ecx
  00135	69 55 a8 78 05
	00 00		 imul	 edx, DWORD PTR tv92[ebp], 1400
  0013c	8b 45 a4	 mov	 eax, DWORD PTR tv132[ebp]
  0013f	8d 8c c2 00 00
	00 00		 lea	 ecx, DWORD PTR ?fn_set_client_server_entity_float_value@@3PAY1KP@1P6GXPAUENTITY@@W4FLOAT_TYPES@@M@ZA[edx+eax*8]
  00146	8b 15 00 00 00
	00		 mov	 edx, DWORD PTR ?system_comms_model@@3W4COMMS_MODEL_TYPES@@A ; system_comms_model
  0014c	8b 04 91	 mov	 eax, DWORD PTR [ecx+edx*4]
  0014f	ff d0		 call	 eax
$LN5@update_lig:

; 195  : 		}
; 196  : 	}
; 197  : 	else

  00151	eb 4d		 jmp	 SHORT $LN7@update_lig
$LN3@update_lig:

; 198  : 	{
; 199  : 		//
; 200  : 		// CLIENT : decrease timer only if non-zero and create strike if zero reached ( new timer will be set by server )
; 201  : 		//
; 202  : 
; 203  : 		if (raw->lightning_timer > 0.0)

  00153	8b 45 fc	 mov	 eax, DWORD PTR _raw$[ebp]
  00156	f3 0f 5a 40 20	 cvtss2sd xmm0, DWORD PTR [eax+32]
  0015b	66 0f 2f 05 00
	00 00 00	 comisd	 xmm0, QWORD PTR __real@0000000000000000
  00163	76 3b		 jbe	 SHORT $LN7@update_lig

; 204  : 		{
; 205  : 			raw->lightning_timer -= get_delta_time ();

  00165	8b 45 fc	 mov	 eax, DWORD PTR _raw$[ebp]
  00168	f3 0f 10 40 20	 movss	 xmm0, DWORD PTR [eax+32]
  0016d	f3 0f 5c 05 00
	00 00 00	 subss	 xmm0, DWORD PTR ?system_delta_time@@3MA
  00175	8b 4d fc	 mov	 ecx, DWORD PTR _raw$[ebp]
  00178	f3 0f 11 41 20	 movss	 DWORD PTR [ecx+32], xmm0

; 206  : 
; 207  : 			if (raw->lightning_timer <= 0.0)

  0017d	8b 45 fc	 mov	 eax, DWORD PTR _raw$[ebp]
  00180	f3 0f 5a 40 20	 cvtss2sd xmm0, DWORD PTR [eax+32]
  00185	0f 57 c9	 xorps	 xmm1, xmm1
  00188	66 0f 2f c8	 comisd	 xmm1, xmm0
  0018c	72 12		 jb	 SHORT $LN7@update_lig

; 208  : 			{
; 209  : 				lightning_flag = TRUE;

  0018e	c7 45 f8 01 00
	00 00		 mov	 DWORD PTR _lightning_flag$[ebp], 1

; 210  : 
; 211  : 				raw->lightning_timer = 0.0;

  00195	8b 45 fc	 mov	 eax, DWORD PTR _raw$[ebp]
  00198	0f 57 c0	 xorps	 xmm0, xmm0
  0019b	f3 0f 11 40 20	 movss	 DWORD PTR [eax+32], xmm0
$LN7@update_lig:

; 212  : 			}
; 213  : 		}
; 214  : 	}
; 215  : 
; 216  : 	if (lightning_flag)

  001a0	83 7d f8 00	 cmp	 DWORD PTR _lightning_flag$[ebp], 0
  001a4	0f 84 b7 01 00
	00		 je	 $LN12@update_lig

; 217  : 	{
; 218  : 		//
; 219  : 		// create lightning
; 220  : 		//
; 221  : 
; 222  : 		env_3d
; 223  : 			*current_3d_env;
; 224  : 
; 225  : 		current_3d_env = get_3d_active_environment ();

  001aa	e8 00 00 00 00	 call	 ?get_3d_active_environment@@YGPAUENV_3D@@XZ ; get_3d_active_environment
  001af	89 45 f0	 mov	 DWORD PTR _current_3d_env$2[ebp], eax

; 226  : 
; 227  : 		if (current_3d_env == main_3d_env)

  001b2	8b 45 f0	 mov	 eax, DWORD PTR _current_3d_env$2[ebp]
  001b5	3b 05 00 00 00
	00		 cmp	 eax, DWORD PTR ?main_3d_env@@3PAUENV_3D@@A ; main_3d_env
  001bb	75 09		 jne	 SHORT $LN9@update_lig

; 228  : 		{
; 229  : 			current_3d_env = NULL;

  001bd	c7 45 f0 00 00
	00 00		 mov	 DWORD PTR _current_3d_env$2[ebp], 0

; 230  : 		}
; 231  : 		else

  001c4	eb 0b		 jmp	 SHORT $LN10@update_lig
$LN9@update_lig:

; 232  : 		{
; 233  : 			set_3d_active_environment (main_3d_env);

  001c6	a1 00 00 00 00	 mov	 eax, DWORD PTR ?main_3d_env@@3PAUENV_3D@@A ; main_3d_env
  001cb	50		 push	 eax
  001cc	e8 00 00 00 00	 call	 ?set_3d_active_environment@@YGXPAUENV_3D@@@Z ; set_3d_active_environment
$LN10@update_lig:

; 234  : 		}
; 235  : 		
; 236  : 		add_3d_lightning_strike (LIGHTNING_TYPE_CLOUD_BURST, 0.3, raw->weather_position.x, raw->weather_position.z);

  001d1	8b 45 fc	 mov	 eax, DWORD PTR _raw$[ebp]
  001d4	51		 push	 ecx
  001d5	f3 0f 10 40 4c	 movss	 xmm0, DWORD PTR [eax+76]
  001da	f3 0f 11 04 24	 movss	 DWORD PTR [esp], xmm0
  001df	8b 4d fc	 mov	 ecx, DWORD PTR _raw$[ebp]
  001e2	51		 push	 ecx
  001e3	f3 0f 10 41 44	 movss	 xmm0, DWORD PTR [ecx+68]
  001e8	f3 0f 11 04 24	 movss	 DWORD PTR [esp], xmm0
  001ed	51		 push	 ecx
  001ee	f3 0f 10 05 00
	00 00 00	 movss	 xmm0, DWORD PTR __real@3e99999a
  001f6	f3 0f 11 04 24	 movss	 DWORD PTR [esp], xmm0
  001fb	6a 01		 push	 1
  001fd	e8 00 00 00 00	 call	 ?add_3d_lightning_strike@@YGXHMMM@Z ; add_3d_lightning_strike

; 237  : 
; 238  : 		add_3d_lightning_strike (LIGHTNING_TYPE_FORKED_1, 0.3, raw->weather_position.x, raw->weather_position.z);

  00202	8b 45 fc	 mov	 eax, DWORD PTR _raw$[ebp]
  00205	51		 push	 ecx
  00206	f3 0f 10 40 4c	 movss	 xmm0, DWORD PTR [eax+76]
  0020b	f3 0f 11 04 24	 movss	 DWORD PTR [esp], xmm0
  00210	8b 4d fc	 mov	 ecx, DWORD PTR _raw$[ebp]
  00213	51		 push	 ecx
  00214	f3 0f 10 41 44	 movss	 xmm0, DWORD PTR [ecx+68]
  00219	f3 0f 11 04 24	 movss	 DWORD PTR [esp], xmm0
  0021e	51		 push	 ecx
  0021f	f3 0f 10 05 00
	00 00 00	 movss	 xmm0, DWORD PTR __real@3e99999a
  00227	f3 0f 11 04 24	 movss	 DWORD PTR [esp], xmm0
  0022c	6a 02		 push	 2
  0022e	e8 00 00 00 00	 call	 ?add_3d_lightning_strike@@YGXHMMM@Z ; add_3d_lightning_strike

; 239  : 
; 240  : 		if (current_3d_env)

  00233	83 7d f0 00	 cmp	 DWORD PTR _current_3d_env$2[ebp], 0
  00237	74 09		 je	 SHORT $LN11@update_lig

; 241  : 		{
; 242  : 			set_3d_active_environment (current_3d_env);

  00239	8b 45 f0	 mov	 eax, DWORD PTR _current_3d_env$2[ebp]
  0023c	50		 push	 eax
  0023d	e8 00 00 00 00	 call	 ?set_3d_active_environment@@YGXPAUENV_3D@@@Z ; set_3d_active_environment
$LN11@update_lig:

; 243  : 		}
; 244  : 
; 245  : 		if (get_comms_model () == COMMS_MODEL_SERVER)

  00242	83 3d 00 00 00
	00 00		 cmp	 DWORD PTR ?system_comms_model@@3W4COMMS_MODEL_TYPES@@A, 0 ; system_comms_model
  00249	0f 85 12 01 00
	00		 jne	 $LN12@update_lig

; 246  : 		{
; 247  : 			sound_sample_indices
; 248  : 				sound_effect_index;
; 249  : 
; 250  : 			//
; 251  : 			// lightning sound effect
; 252  : 			//
; 253  : 
; 254  : 			sound_effect_index = SOUND_SAMPLE_INDEX_AMBIENT_LIGHTNING;

  0024f	c7 45 ec 5e 00
	00 00		 mov	 DWORD PTR _sound_effect_index$1[ebp], 94 ; 0000005eH

; 255  : 
; 256  : 			create_client_server_sound_effect_entity

  00256	69 05 00 00 00
	00 6d 4e c6 41	 imul	 eax, DWORD PTR ?random_number_seed@@3HA, 1103515245 ; random_number_seed
  00260	05 39 30 00 00	 add	 eax, 12345		; 00003039H
  00265	a3 00 00 00 00	 mov	 DWORD PTR ?random_number_seed@@3HA, eax ; random_number_seed
  0026a	8d 4d ec	 lea	 ecx, DWORD PTR _sound_effect_index$1[ebp]
  0026d	51		 push	 ecx
  0026e	6a 01		 push	 1
  00270	6a 00		 push	 0
  00272	6a 01		 push	 1
  00274	8b 15 00 00 00
	00		 mov	 edx, DWORD PTR ?random_number_seed@@3HA ; random_number_seed
  0027a	c1 fa 10	 sar	 edx, 16			; 00000010H
  0027d	81 e2 ff 7f 00
	00		 and	 edx, 32767		; 00007fffH
  00283	f2 0f 2a c2	 cvtsi2sd xmm0, edx
  00287	f2 0f 59 05 00
	00 00 00	 mulsd	 xmm0, QWORD PTR __real@3f00002000400080
  0028f	f2 0f 59 05 00
	00 00 00	 mulsd	 xmm0, QWORD PTR __real@3fd3333333333333
  00297	f2 0f 58 05 00
	00 00 00	 addsd	 xmm0, QWORD PTR __real@3feb333333333333
  0029f	f2 0f 5a c0	 cvtsd2ss xmm0, xmm0
  002a3	51		 push	 ecx
  002a4	f3 0f 11 04 24	 movss	 DWORD PTR [esp], xmm0
  002a9	51		 push	 ecx
  002aa	f3 0f 10 05 00
	00 00 00	 movss	 xmm0, DWORD PTR __real@3f800000
  002b2	f3 0f 11 04 24	 movss	 DWORD PTR [esp], xmm0
  002b7	8b 45 fc	 mov	 eax, DWORD PTR _raw$[ebp]
  002ba	83 c0 44	 add	 eax, 68			; 00000044H
  002bd	50		 push	 eax
  002be	6a 00		 push	 0
  002c0	6a 00		 push	 0
  002c2	6a 1a		 push	 26			; 0000001aH
  002c4	6a 00		 push	 0
  002c6	8b 4d fc	 mov	 ecx, DWORD PTR _raw$[ebp]
  002c9	83 c1 44	 add	 ecx, 68			; 00000044H
  002cc	51		 push	 ecx
  002cd	e8 00 00 00 00	 call	 ?get_local_sector_entity@@YGPAUENTITY@@PAUVEC3D@@@Z ; get_local_sector_entity
  002d2	50		 push	 eax
  002d3	e8 00 00 00 00	 call	 ?create_client_server_sound_effect_entity@@YGPAUENTITY@@PAU1@W4ENTITY_SIDES@@HW4SOUND_CHANNEL_TYPES@@W4SOUND_LOCALITY_TYPES@@PAUVEC3D@@MMHHHPAH@Z ; create_client_server_sound_effect_entity

; 257  : 			(
; 258  : 				get_local_sector_entity (&(raw->weather_position)),
; 259  : 				ENTITY_SIDE_NEUTRAL,
; 260  : 				ENTITY_SUB_TYPE_EFFECT_SOUND_MISC,
; 261  : 				SOUND_CHANNEL_SOUND_EFFECT,
; 262  : 				SOUND_LOCALITY_ALL,
; 263  : 				&raw->weather_position,						// position
; 264  : 				1.0,												// amplification
; 265  : 				0.85+(0.3* frand1 ()), //pitch
; 266  : 				TRUE,												// valid sound effect
; 267  : 				FALSE,											// looping
; 268  : 				1,													// sample count
; 269  : 				&sound_effect_index							// sample index list
; 270  : 			);
; 271  : 
; 272  : 			//
; 273  : 			// thunder sound effect
; 274  : 			//
; 275  : 
; 276  : 			sound_effect_index = SOUND_SAMPLE_INDEX_AMBIENT_THUNDER;

  002d8	c7 45 ec 5d 00
	00 00		 mov	 DWORD PTR _sound_effect_index$1[ebp], 93 ; 0000005dH

; 277  : 
; 278  : 			create_client_server_sound_effect_entity

  002df	69 05 00 00 00
	00 6d 4e c6 41	 imul	 eax, DWORD PTR ?random_number_seed@@3HA, 1103515245 ; random_number_seed
  002e9	05 39 30 00 00	 add	 eax, 12345		; 00003039H
  002ee	a3 00 00 00 00	 mov	 DWORD PTR ?random_number_seed@@3HA, eax ; random_number_seed
  002f3	8d 4d ec	 lea	 ecx, DWORD PTR _sound_effect_index$1[ebp]
  002f6	51		 push	 ecx
  002f7	6a 01		 push	 1
  002f9	6a 00		 push	 0
  002fb	6a 01		 push	 1
  002fd	8b 15 00 00 00
	00		 mov	 edx, DWORD PTR ?random_number_seed@@3HA ; random_number_seed
  00303	c1 fa 10	 sar	 edx, 16			; 00000010H
  00306	81 e2 ff 7f 00
	00		 and	 edx, 32767		; 00007fffH
  0030c	f2 0f 2a c2	 cvtsi2sd xmm0, edx
  00310	f2 0f 59 05 00
	00 00 00	 mulsd	 xmm0, QWORD PTR __real@3f00002000400080
  00318	f2 0f 59 05 00
	00 00 00	 mulsd	 xmm0, QWORD PTR __real@3fd3333333333333
  00320	f2 0f 58 05 00
	00 00 00	 addsd	 xmm0, QWORD PTR __real@3feb333333333333
  00328	f2 0f 5a c0	 cvtsd2ss xmm0, xmm0
  0032c	51		 push	 ecx
  0032d	f3 0f 11 04 24	 movss	 DWORD PTR [esp], xmm0
  00332	51		 push	 ecx
  00333	f3 0f 10 05 00
	00 00 00	 movss	 xmm0, DWORD PTR __real@3f800000
  0033b	f3 0f 11 04 24	 movss	 DWORD PTR [esp], xmm0
  00340	8b 45 fc	 mov	 eax, DWORD PTR _raw$[ebp]
  00343	83 c0 44	 add	 eax, 68			; 00000044H
  00346	50		 push	 eax
  00347	6a 00		 push	 0
  00349	6a 00		 push	 0
  0034b	6a 1a		 push	 26			; 0000001aH
  0034d	6a 00		 push	 0
  0034f	8b 4d fc	 mov	 ecx, DWORD PTR _raw$[ebp]
  00352	83 c1 44	 add	 ecx, 68			; 00000044H
  00355	51		 push	 ecx
  00356	e8 00 00 00 00	 call	 ?get_local_sector_entity@@YGPAUENTITY@@PAUVEC3D@@@Z ; get_local_sector_entity
  0035b	50		 push	 eax
  0035c	e8 00 00 00 00	 call	 ?create_client_server_sound_effect_entity@@YGPAUENTITY@@PAU1@W4ENTITY_SIDES@@HW4SOUND_CHANNEL_TYPES@@W4SOUND_LOCALITY_TYPES@@PAUVEC3D@@MMHHHPAH@Z ; create_client_server_sound_effect_entity
$LN12@update_lig:

; 279  : 			(
; 280  : 				get_local_sector_entity (&(raw->weather_position)),
; 281  : 				ENTITY_SIDE_NEUTRAL,
; 282  : 				ENTITY_SUB_TYPE_EFFECT_SOUND_MISC,
; 283  : 				SOUND_CHANNEL_SOUND_EFFECT,
; 284  : 				SOUND_LOCALITY_ALL,
; 285  : 				&raw->weather_position,						// position
; 286  : 				1.0,												// amplification
; 287  : 				0.85+(0.3* frand1 ()), //pitch
; 288  : 				TRUE,												// valid sound effect
; 289  : 				FALSE,											// looping
; 290  : 				1,													// sample count
; 291  : 				&sound_effect_index							// sample index list
; 292  : 			);
; 293  : 		}
; 294  : 	}
; 295  : }

  00361	5f		 pop	 edi
  00362	5e		 pop	 esi
  00363	5b		 pop	 ebx
  00364	8b e5		 mov	 esp, ebp
  00366	5d		 pop	 ebp
  00367	c2 04 00	 ret	 4
?update_lightning_effect@@YGXPAUENTITY@@@Z ENDP		; update_lightning_effect
_TEXT	ENDS
; Function compile flags: /Odtp /ZI
; File c:\users\nhv90\projects\eech\aphavoc\source\entity\special\session\ss_updt.c
;	COMDAT ?update_time_of_day_resync@@YGXPAUENTITY@@@Z
_TEXT	SEGMENT
_raw$ = -4						; size = 4
_en$ = 8						; size = 4
?update_time_of_day_resync@@YGXPAUENTITY@@@Z PROC	; update_time_of_day_resync, COMDAT

; 127  : {

  00000	55		 push	 ebp
  00001	8b ec		 mov	 ebp, esp
  00003	83 ec 44	 sub	 esp, 68			; 00000044H
  00006	53		 push	 ebx
  00007	56		 push	 esi
  00008	57		 push	 edi

; 128  : 	session
; 129  : 		*raw;
; 130  : 		
; 131  : 	ASSERT (en);

  00009	83 7d 08 00	 cmp	 DWORD PTR _en$[ebp], 0
  0000d	75 18		 jne	 SHORT $LN2@update_tim
  0000f	a1 00 00 00 00	 mov	 eax, DWORD PTR ?__LINE__Var@?0??update_time_of_day_resync@@YGXPAUENTITY@@@Z@4JA
  00014	83 c0 04	 add	 eax, 4
  00017	50		 push	 eax
  00018	68 00 00 00 00	 push	 OFFSET ??_C@_0EN@MANBNJL@c?3?2users?2nhv90?2projects?2eech?2ap@
  0001d	68 00 00 00 00	 push	 OFFSET ??_C@_02LFNMGJAP@en@
  00022	e8 00 00 00 00	 call	 ?process_assert@@YGXPBD0H@Z ; process_assert
$LN2@update_tim:

; 132  : 
; 133  : 	raw = (session *) get_local_entity_data (en);

  00027	8b 45 08	 mov	 eax, DWORD PTR _en$[ebp]
  0002a	8b 48 04	 mov	 ecx, DWORD PTR [eax+4]
  0002d	89 4d fc	 mov	 DWORD PTR _raw$[ebp], ecx

; 134  : 
; 135  : 	raw->time_of_day_resync += get_delta_time ();

  00030	8b 45 fc	 mov	 eax, DWORD PTR _raw$[ebp]
  00033	f3 0f 10 40 24	 movss	 xmm0, DWORD PTR [eax+36]
  00038	f3 0f 58 05 00
	00 00 00	 addss	 xmm0, DWORD PTR ?system_delta_time@@3MA
  00040	8b 4d fc	 mov	 ecx, DWORD PTR _raw$[ebp]
  00043	f3 0f 11 41 24	 movss	 DWORD PTR [ecx+36], xmm0

; 136  : 
; 137  : 	if (raw->time_of_day_resync > SESSION_RESYNC_FREQUENCY)

  00048	8b 45 fc	 mov	 eax, DWORD PTR _raw$[ebp]
  0004b	f3 0f 10 40 24	 movss	 xmm0, DWORD PTR [eax+36]
  00050	0f 2f 05 00 00
	00 00		 comiss	 xmm0, DWORD PTR __real@42700000
  00057	76 19		 jbe	 SHORT $LN3@update_tim

; 138  : 	{
; 139  : 
; 140  : 		transmit_entity_comms_message (ENTITY_COMMS_UPDATE, en);

  00059	8b 45 08	 mov	 eax, DWORD PTR _en$[ebp]
  0005c	50		 push	 eax
  0005d	6a 3e		 push	 62			; 0000003eH
  0005f	e8 00 00 00 00	 call	 ?transmit_entity_comms_message@@YAXW4ENTITY_COMMS_MESSAGES@@PAUENTITY@@ZZ ; transmit_entity_comms_message
  00064	83 c4 08	 add	 esp, 8

; 141  : 
; 142  : 		raw->time_of_day_resync = 0.0;

  00067	8b 45 fc	 mov	 eax, DWORD PTR _raw$[ebp]
  0006a	0f 57 c0	 xorps	 xmm0, xmm0
  0006d	f3 0f 11 40 24	 movss	 DWORD PTR [eax+36], xmm0
$LN3@update_tim:

; 143  : 
; 144  : 		#if DEBUG_MODULE
; 145  : 
; 146  : 		debug_log ("SS_UPDT : Weather at %f, %f - radius %f", raw->weather_position.x, raw->weather_position.z, raw->weather_radius);
; 147  : 
; 148  : 		#endif
; 149  : 	}
; 150  : }

  00072	5f		 pop	 edi
  00073	5e		 pop	 esi
  00074	5b		 pop	 ebx
  00075	8b e5		 mov	 esp, ebp
  00077	5d		 pop	 ebp
  00078	c2 04 00	 ret	 4
?update_time_of_day_resync@@YGXPAUENTITY@@@Z ENDP	; update_time_of_day_resync
_TEXT	ENDS
; Function compile flags: /Odtp /ZI
; File c:\users\nhv90\projects\eech\aphavoc\source\entity\special\session\ss_updt.c
;	COMDAT ?update_time_of_day@@YGXPAUENTITY@@@Z
_TEXT	SEGMENT
tv167 = -80						; size = 4
tv193 = -76						; size = 4
tv181 = -76						; size = 4
tv177 = -76						; size = 4
tv161 = -76						; size = 4
_time_of_day$ = -8					; size = 4
_raw$ = -4						; size = 4
_en$ = 8						; size = 4
?update_time_of_day@@YGXPAUENTITY@@@Z PROC		; update_time_of_day, COMDAT

; 80   : {

  00000	55		 push	 ebp
  00001	8b ec		 mov	 ebp, esp
  00003	83 ec 50	 sub	 esp, 80			; 00000050H
  00006	53		 push	 ebx
  00007	56		 push	 esi
  00008	57		 push	 edi

; 81   : 	session
; 82   : 		*raw;
; 83   : 
; 84   : 	float
; 85   : 		time_of_day;
; 86   : 
; 87   : 	ASSERT (en);

  00009	83 7d 08 00	 cmp	 DWORD PTR _en$[ebp], 0
  0000d	75 18		 jne	 SHORT $LN2@update_tim
  0000f	a1 00 00 00 00	 mov	 eax, DWORD PTR ?__LINE__Var@?0??update_time_of_day@@YGXPAUENTITY@@@Z@4JA
  00014	83 c0 07	 add	 eax, 7
  00017	50		 push	 eax
  00018	68 00 00 00 00	 push	 OFFSET ??_C@_0EN@MANBNJL@c?3?2users?2nhv90?2projects?2eech?2ap@
  0001d	68 00 00 00 00	 push	 OFFSET ??_C@_02LFNMGJAP@en@
  00022	e8 00 00 00 00	 call	 ?process_assert@@YGXPBD0H@Z ; process_assert
$LN2@update_tim:

; 88   : 
; 89   : 	raw = (session *) get_local_entity_data (en);

  00027	8b 45 08	 mov	 eax, DWORD PTR _en$[ebp]
  0002a	8b 48 04	 mov	 ecx, DWORD PTR [eax+4]
  0002d	89 4d fc	 mov	 DWORD PTR _raw$[ebp], ecx

; 90   : 
; 91   : 	//
; 92   : 	// Time of day
; 93   : 	//
; 94   : 
; 95   : 	raw->elapsed_time += (get_delta_time () * raw->time_of_day_acceleration);

  00030	8b 45 fc	 mov	 eax, DWORD PTR _raw$[ebp]
  00033	f3 0f 10 05 00
	00 00 00	 movss	 xmm0, DWORD PTR ?system_delta_time@@3MA
  0003b	f3 0f 59 40 28	 mulss	 xmm0, DWORD PTR [eax+40]
  00040	8b 4d fc	 mov	 ecx, DWORD PTR _raw$[ebp]
  00043	f3 0f 58 41 1c	 addss	 xmm0, DWORD PTR [ecx+28]
  00048	8b 55 fc	 mov	 edx, DWORD PTR _raw$[ebp]
  0004b	f3 0f 11 42 1c	 movss	 DWORD PTR [edx+28], xmm0

; 96   : 
; 97   : 	time_of_day = calculate_session_time_of_day (en, NULL);

  00050	6a 00		 push	 0
  00052	8b 45 08	 mov	 eax, DWORD PTR _en$[ebp]
  00055	50		 push	 eax
  00056	e8 00 00 00 00	 call	 ?calculate_session_time_of_day@@YGMPAUENTITY@@PAH@Z ; calculate_session_time_of_day
  0005b	d9 5d f8	 fstp	 DWORD PTR _time_of_day$[ebp]

; 98   : 
; 99   : 	//
; 100  : 	// skip night-time for demos
; 101  : 	//
; 102  : 
; 103  : 	if (raw->skip_night_time)

  0005e	8b 45 fc	 mov	 eax, DWORD PTR _raw$[ebp]
  00061	8b 88 a4 00 00
	00		 mov	 ecx, DWORD PTR [eax+164]
  00067	c1 e9 1a	 shr	 ecx, 26			; 0000001aH
  0006a	83 e1 01	 and	 ecx, 1
  0006d	0f 84 a2 00 00
	00		 je	 $LN6@update_tim

; 104  : 	{
; 105  : 		if (time_of_day > get_segment_time_of_day (DAY_SEGMENT_TYPE_NIGHT))

  00073	6a 03		 push	 3
  00075	e8 00 00 00 00	 call	 ?get_segment_time_of_day@@YGMW4DAY_SEGMENT_TYPES@@@Z ; get_segment_time_of_day
  0007a	d9 5d b4	 fstp	 DWORD PTR tv161[ebp]
  0007d	f3 0f 10 45 f8	 movss	 xmm0, DWORD PTR _time_of_day$[ebp]
  00082	0f 2f 45 b4	 comiss	 xmm0, DWORD PTR tv161[ebp]
  00086	76 46		 jbe	 SHORT $LN4@update_tim

; 106  : 		{
; 107  : 			raw->elapsed_time += (ONE_DAY - time_of_day) + get_segment_time_of_day (DAY_SEGMENT_TYPE_DAWN);

  00088	f3 0f 10 05 00
	00 00 00	 movss	 xmm0, DWORD PTR __real@47a8c000
  00090	f3 0f 5c 45 f8	 subss	 xmm0, DWORD PTR _time_of_day$[ebp]
  00095	6a 00		 push	 0
  00097	f3 0f 11 45 b4	 movss	 DWORD PTR tv193[ebp], xmm0
  0009c	e8 00 00 00 00	 call	 ?get_segment_time_of_day@@YGMW4DAY_SEGMENT_TYPES@@@Z ; get_segment_time_of_day
  000a1	d9 5d b0	 fstp	 DWORD PTR tv167[ebp]
  000a4	f3 0f 10 45 b4	 movss	 xmm0, DWORD PTR tv193[ebp]
  000a9	f3 0f 58 45 b0	 addss	 xmm0, DWORD PTR tv167[ebp]
  000ae	8b 45 fc	 mov	 eax, DWORD PTR _raw$[ebp]
  000b1	f3 0f 58 40 1c	 addss	 xmm0, DWORD PTR [eax+28]
  000b6	8b 4d fc	 mov	 ecx, DWORD PTR _raw$[ebp]
  000b9	f3 0f 11 41 1c	 movss	 DWORD PTR [ecx+28], xmm0

; 108  : 
; 109  : 			time_of_day = calculate_session_time_of_day (en, NULL);

  000be	6a 00		 push	 0
  000c0	8b 45 08	 mov	 eax, DWORD PTR _en$[ebp]
  000c3	50		 push	 eax
  000c4	e8 00 00 00 00	 call	 ?calculate_session_time_of_day@@YGMPAUENTITY@@PAH@Z ; calculate_session_time_of_day
  000c9	d9 5d f8	 fstp	 DWORD PTR _time_of_day$[ebp]
  000cc	eb 47		 jmp	 SHORT $LN6@update_tim
$LN4@update_tim:

; 110  : 		}
; 111  : 		else if (time_of_day < get_segment_time_of_day (DAY_SEGMENT_TYPE_DAWN))

  000ce	6a 00		 push	 0
  000d0	e8 00 00 00 00	 call	 ?get_segment_time_of_day@@YGMW4DAY_SEGMENT_TYPES@@@Z ; get_segment_time_of_day
  000d5	d9 5d b4	 fstp	 DWORD PTR tv177[ebp]
  000d8	f3 0f 10 45 b4	 movss	 xmm0, DWORD PTR tv177[ebp]
  000dd	0f 2f 45 f8	 comiss	 xmm0, DWORD PTR _time_of_day$[ebp]
  000e1	76 32		 jbe	 SHORT $LN6@update_tim

; 112  : 		{
; 113  : 			raw->elapsed_time += get_segment_time_of_day (DAY_SEGMENT_TYPE_DAWN) - time_of_day;

  000e3	6a 00		 push	 0
  000e5	e8 00 00 00 00	 call	 ?get_segment_time_of_day@@YGMW4DAY_SEGMENT_TYPES@@@Z ; get_segment_time_of_day
  000ea	d9 5d b4	 fstp	 DWORD PTR tv181[ebp]
  000ed	f3 0f 10 45 b4	 movss	 xmm0, DWORD PTR tv181[ebp]
  000f2	f3 0f 5c 45 f8	 subss	 xmm0, DWORD PTR _time_of_day$[ebp]
  000f7	8b 45 fc	 mov	 eax, DWORD PTR _raw$[ebp]
  000fa	f3 0f 58 40 1c	 addss	 xmm0, DWORD PTR [eax+28]
  000ff	8b 4d fc	 mov	 ecx, DWORD PTR _raw$[ebp]
  00102	f3 0f 11 41 1c	 movss	 DWORD PTR [ecx+28], xmm0

; 114  : 
; 115  : 			time_of_day = calculate_session_time_of_day (en, NULL);

  00107	6a 00		 push	 0
  00109	8b 45 08	 mov	 eax, DWORD PTR _en$[ebp]
  0010c	50		 push	 eax
  0010d	e8 00 00 00 00	 call	 ?calculate_session_time_of_day@@YGMPAUENTITY@@PAH@Z ; calculate_session_time_of_day
  00112	d9 5d f8	 fstp	 DWORD PTR _time_of_day$[ebp]
$LN6@update_tim:

; 116  : 		}
; 117  : 	}
; 118  : 
; 119  : 	raw->day_segment_type = get_day_segment_type (time_of_day);

  00115	51		 push	 ecx
  00116	f3 0f 10 45 f8	 movss	 xmm0, DWORD PTR _time_of_day$[ebp]
  0011b	f3 0f 11 04 24	 movss	 DWORD PTR [esp], xmm0
  00120	e8 00 00 00 00	 call	 ?get_day_segment_type@@YG?AW4DAY_SEGMENT_TYPES@@M@Z ; get_day_segment_type
  00125	8b 4d fc	 mov	 ecx, DWORD PTR _raw$[ebp]
  00128	89 81 90 00 00
	00		 mov	 DWORD PTR [ecx+144], eax

; 120  : }

  0012e	5f		 pop	 edi
  0012f	5e		 pop	 esi
  00130	5b		 pop	 ebx
  00131	8b e5		 mov	 esp, ebp
  00133	5d		 pop	 ebp
  00134	c2 04 00	 ret	 4
?update_time_of_day@@YGXPAUENTITY@@@Z ENDP		; update_time_of_day
_TEXT	ENDS
; Function compile flags: /Odtp /ZI
; File c:\users\nhv90\projects\eech\aphavoc\source\entity\special\session\ss_updt.c
;	COMDAT ?overload_session_update_functions@@YGXXZ
_TEXT	SEGMENT
?overload_session_update_functions@@YGXXZ PROC		; overload_session_update_functions, COMDAT

; 942  : {

  00000	55		 push	 ebp
  00001	8b ec		 mov	 ebp, esp
  00003	83 ec 40	 sub	 esp, 64			; 00000040H
  00006	53		 push	 ebx
  00007	56		 push	 esi
  00008	57		 push	 edi

; 943  : 	fn_update_client_server_entity[ENTITY_TYPE_SESSION][COMMS_MODEL_SERVER]	= update_server;

  00009	b8 08 00 00 00	 mov	 eax, 8
  0000e	6b c8 1b	 imul	 ecx, eax, 27
  00011	ba 04 00 00 00	 mov	 edx, 4
  00016	6b c2 00	 imul	 eax, edx, 0
  00019	c7 84 01 00 00
	00 00 00 00 00
	00		 mov	 DWORD PTR ?fn_update_client_server_entity@@3PAY01P6GXPAUENTITY@@@ZA[ecx+eax], OFFSET ?update_server@@YGXPAUENTITY@@@Z ; update_server

; 944  : 
; 945  : 	fn_update_client_server_entity[ENTITY_TYPE_SESSION][COMMS_MODEL_CLIENT]	= update_client;

  00024	b8 08 00 00 00	 mov	 eax, 8
  00029	6b c8 1b	 imul	 ecx, eax, 27
  0002c	ba 04 00 00 00	 mov	 edx, 4
  00031	c1 e2 00	 shl	 edx, 0
  00034	c7 84 11 00 00
	00 00 00 00 00
	00		 mov	 DWORD PTR ?fn_update_client_server_entity@@3PAY01P6GXPAUENTITY@@@ZA[ecx+edx], OFFSET ?update_client@@YGXPAUENTITY@@@Z ; update_client

; 946  : }

  0003f	5f		 pop	 edi
  00040	5e		 pop	 esi
  00041	5b		 pop	 ebx
  00042	8b e5		 mov	 esp, ebp
  00044	5d		 pop	 ebp
  00045	c3		 ret	 0
?overload_session_update_functions@@YGXXZ ENDP		; overload_session_update_functions
_TEXT	ENDS
END
