; Listing generated by Microsoft (R) Optimizing Compiler Version 19.16.27045.0 

	TITLE	C:\Users\nhv90\Projects\eech\aphavoc\source\entity\special\session\ss_vec3d.c
	.686P
	.XMM
	include listing.inc
	.model	flat

INCLUDELIB MSVCRTD
INCLUDELIB OLDNAMES

PUBLIC	?overload_session_vec3d_functions@@YGXXZ	; overload_session_vec3d_functions
PUBLIC	?__LINE__Var@?0??set_local_vec3d@@YGXPAUENTITY@@W4VEC3D_TYPES@@PAUVEC3D@@@Z@4JA ; `set_local_vec3d'::`1'::__LINE__Var
PUBLIC	??_C@_0EO@OJFFNJBE@c?3?2users?2nhv90?2projects?2eech?2ap@ ; `string'
PUBLIC	??_C@_01MHEDDDHA@v@				; `string'
PUBLIC	?__LINE__Var@?0??set_remote_vec3d@@YGXPAUENTITY@@W4VEC3D_TYPES@@PAUVEC3D@@@Z@4JA ; `set_remote_vec3d'::`1'::__LINE__Var
PUBLIC	?__LINE__Var@?0??set_server_vec3d@@YGXPAUENTITY@@W4VEC3D_TYPES@@PAUVEC3D@@@Z@4JA ; `set_server_vec3d'::`1'::__LINE__Var
PUBLIC	??_C@_0CB@CFOCLFOK@assert_client_server_local_fn?5?$CI@ ; `string'
PUBLIC	??_C@_0CC@BNNNEGEG@assert_client_server_remote_fn?5@ ; `string'
PUBLIC	?__LINE__Var@?0??set_client_vec3d@@YGXPAUENTITY@@W4VEC3D_TYPES@@PAUVEC3D@@@Z@4JA ; `set_client_vec3d'::`1'::__LINE__Var
PUBLIC	?__LINE__Var@?0??get_local_vec3d@@YGXPAUENTITY@@W4VEC3D_TYPES@@PAUVEC3D@@@Z@4JA ; `get_local_vec3d'::`1'::__LINE__Var
PUBLIC	?__LINE__Var@?0??get_local_vec3d_ptr@@YGPAUVEC3D@@PAUENTITY@@W4VEC3D_TYPES@@@Z@4JA ; `get_local_vec3d_ptr'::`1'::__LINE__Var
EXTRN	?process_assert@@YGXPBD0H@Z:PROC		; process_assert
EXTRN	?debug_fatal@@YAXPBDZZ:PROC			; debug_fatal
EXTRN	?transmit_entity_comms_message@@YAXW4ENTITY_COMMS_MESSAGES@@PAUENTITY@@ZZ:PROC ; transmit_entity_comms_message
EXTRN	?assert_client_server_local_fn@@YGHXZ:PROC	; assert_client_server_local_fn
EXTRN	?assert_client_server_remote_fn@@YGHXZ:PROC	; assert_client_server_remote_fn
EXTRN	?null_entity_pointer_message@@3PBDB:DWORD	; null_entity_pointer_message
EXTRN	?entity_type_database@@3PAUENTITY_TYPE_DATA@@A:BYTE ; entity_type_database
EXTRN	?system_comms_data_flow@@3W4COMMS_DATA_FLOW_TYPES@@A:DWORD ; system_comms_data_flow
EXTRN	?vec3d_type_database@@3PAUVEC3D_TYPE_DATA@@A:BYTE ; vec3d_type_database
EXTRN	?debug_fatal_invalid_vec3d_type_message@@3PBDB:DWORD ; debug_fatal_invalid_vec3d_type_message
EXTRN	?fn_set_local_entity_vec3d@@3PAY0BI@P6GXPAUENTITY@@W4VEC3D_TYPES@@PAUVEC3D@@@ZA:BYTE ; fn_set_local_entity_vec3d
EXTRN	?fn_set_client_server_entity_vec3d@@3PAY1BI@1P6GXPAUENTITY@@W4VEC3D_TYPES@@PAUVEC3D@@@ZA:BYTE ; fn_set_client_server_entity_vec3d
EXTRN	?fn_get_local_entity_vec3d@@3PAY0BI@P6GXPAUENTITY@@W4VEC3D_TYPES@@PAUVEC3D@@@ZA:BYTE ; fn_get_local_entity_vec3d
EXTRN	?fn_get_local_entity_vec3d_ptr@@3PAY0BI@P6GPAUVEC3D@@PAUENTITY@@W4VEC3D_TYPES@@@ZA:BYTE ; fn_get_local_entity_vec3d_ptr
EXTRN	?entities@@3PAUENTITY@@A:DWORD			; entities
;	COMDAT ?__LINE__Var@?0??get_local_vec3d_ptr@@YGPAUVEC3D@@PAUENTITY@@W4VEC3D_TYPES@@@Z@4JA
_DATA	SEGMENT
?__LINE__Var@?0??get_local_vec3d_ptr@@YGPAUVEC3D@@PAUENTITY@@W4VEC3D_TYPES@@@Z@4JA DD 0112H ; `get_local_vec3d_ptr'::`1'::__LINE__Var
_DATA	ENDS
;	COMDAT ?__LINE__Var@?0??get_local_vec3d@@YGXPAUENTITY@@W4VEC3D_TYPES@@PAUVEC3D@@@Z@4JA
_DATA	SEGMENT
?__LINE__Var@?0??get_local_vec3d@@YGXPAUENTITY@@W4VEC3D_TYPES@@PAUVEC3D@@@Z@4JA DD 0d0H ; `get_local_vec3d'::`1'::__LINE__Var
_DATA	ENDS
;	COMDAT ?__LINE__Var@?0??set_client_vec3d@@YGXPAUENTITY@@W4VEC3D_TYPES@@PAUVEC3D@@@Z@4JA
_DATA	SEGMENT
?__LINE__Var@?0??set_client_vec3d@@YGXPAUENTITY@@W4VEC3D_TYPES@@PAUVEC3D@@@Z@4JA DD 0baH ; `set_client_vec3d'::`1'::__LINE__Var
_DATA	ENDS
;	COMDAT ??_C@_0CC@BNNNEGEG@assert_client_server_remote_fn?5@
CONST	SEGMENT
??_C@_0CC@BNNNEGEG@assert_client_server_remote_fn?5@ DB 'assert_client_se'
	DB	'rver_remote_fn ()', 00H			; `string'
CONST	ENDS
;	COMDAT ??_C@_0CB@CFOCLFOK@assert_client_server_local_fn?5?$CI@
CONST	SEGMENT
??_C@_0CB@CFOCLFOK@assert_client_server_local_fn?5?$CI@ DB 'assert_client'
	DB	'_server_local_fn ()', 00H			; `string'
CONST	ENDS
;	COMDAT ?__LINE__Var@?0??set_server_vec3d@@YGXPAUENTITY@@W4VEC3D_TYPES@@PAUVEC3D@@@Z@4JA
_DATA	SEGMENT
?__LINE__Var@?0??set_server_vec3d@@YGXPAUENTITY@@W4VEC3D_TYPES@@PAUVEC3D@@@Z@4JA DD 0a9H ; `set_server_vec3d'::`1'::__LINE__Var
_DATA	ENDS
;	COMDAT ?__LINE__Var@?0??set_remote_vec3d@@YGXPAUENTITY@@W4VEC3D_TYPES@@PAUVEC3D@@@Z@4JA
_DATA	SEGMENT
?__LINE__Var@?0??set_remote_vec3d@@YGXPAUENTITY@@W4VEC3D_TYPES@@PAUVEC3D@@@Z@4JA DD 098H ; `set_remote_vec3d'::`1'::__LINE__Var
_DATA	ENDS
;	COMDAT ??_C@_01MHEDDDHA@v@
CONST	SEGMENT
??_C@_01MHEDDDHA@v@ DB 'v', 00H				; `string'
CONST	ENDS
;	COMDAT ??_C@_0EO@OJFFNJBE@c?3?2users?2nhv90?2projects?2eech?2ap@
CONST	SEGMENT
??_C@_0EO@OJFFNJBE@c?3?2users?2nhv90?2projects?2eech?2ap@ DB 'c:\users\nh'
	DB	'v90\projects\eech\aphavoc\source\entity\special\session\ss_ve'
	DB	'c3d.c', 00H					; `string'
CONST	ENDS
;	COMDAT ?__LINE__Var@?0??set_local_vec3d@@YGXPAUENTITY@@W4VEC3D_TYPES@@PAUVEC3D@@@Z@4JA
_DATA	SEGMENT
?__LINE__Var@?0??set_local_vec3d@@YGXPAUENTITY@@W4VEC3D_TYPES@@PAUVEC3D@@@Z@4JA DD 050H ; `set_local_vec3d'::`1'::__LINE__Var
_DATA	ENDS
; Function compile flags: /Odtp /ZI
; File c:\users\nhv90\projects\eech\aphavoc\source\entity\special\session\ss_vec3d.c
;	COMDAT ?get_local_vec3d_ptr@@YGPAUVEC3D@@PAUENTITY@@W4VEC3D_TYPES@@@Z
_TEXT	SEGMENT
tv87 = -76						; size = 4
tv65 = -76						; size = 4
_v$ = -8						; size = 4
_raw$ = -4						; size = 4
_en$ = 8						; size = 4
_type$ = 12						; size = 4
?get_local_vec3d_ptr@@YGPAUVEC3D@@PAUENTITY@@W4VEC3D_TYPES@@@Z PROC ; get_local_vec3d_ptr, COMDAT

; 274  : {

  00000	55		 push	 ebp
  00001	8b ec		 mov	 ebp, esp
  00003	83 ec 4c	 sub	 esp, 76			; 0000004cH
  00006	53		 push	 ebx
  00007	56		 push	 esi
  00008	57		 push	 edi

; 275  : 	session
; 276  : 		*raw;
; 277  : 
; 278  : 	vec3d
; 279  : 		*v;
; 280  : 
; 281  : 	raw = (session *) get_local_entity_data (en);

  00009	8b 45 08	 mov	 eax, DWORD PTR _en$[ebp]
  0000c	8b 48 04	 mov	 ecx, DWORD PTR [eax+4]
  0000f	89 4d fc	 mov	 DWORD PTR _raw$[ebp], ecx

; 282  : 
; 283  : 	switch (type)

  00012	8b 45 0c	 mov	 eax, DWORD PTR _type$[ebp]
  00015	89 45 b4	 mov	 DWORD PTR tv65[ebp], eax
  00018	8b 4d b4	 mov	 ecx, DWORD PTR tv65[ebp]
  0001b	83 e9 0f	 sub	 ecx, 15			; 0000000fH
  0001e	89 4d b4	 mov	 DWORD PTR tv65[ebp], ecx
  00021	83 7d b4 04	 cmp	 DWORD PTR tv65[ebp], 4
  00025	77 4c		 ja	 SHORT $LN9@get_local_
  00027	8b 55 b4	 mov	 edx, DWORD PTR tv65[ebp]
  0002a	ff 24 95 00 00
	00 00		 jmp	 DWORD PTR $LN13@get_local_[edx*4]
$LN4@get_local_:

; 284  : 	{
; 285  : 		////////////////////////////////////////
; 286  : 		case VEC3D_TYPE_WEATHER_POSITION:
; 287  : 		////////////////////////////////////////
; 288  : 		{
; 289  : 			v = &raw->weather_position;

  00031	8b 45 fc	 mov	 eax, DWORD PTR _raw$[ebp]
  00034	83 c0 44	 add	 eax, 68			; 00000044H
  00037	89 45 f8	 mov	 DWORD PTR _v$[ebp], eax

; 290  : 
; 291  : 			break;

  0003a	e9 a6 00 00 00	 jmp	 $LN2@get_local_
$LN5@get_local_:

; 292  : 		}
; 293  : 		////////////////////////////////////////
; 294  : 		case VEC3D_TYPE_WEATHER_VELOCITY:
; 295  : 		////////////////////////////////////////
; 296  : 		{
; 297  : 			v = &raw->weather_velocity;

  0003f	8b 45 fc	 mov	 eax, DWORD PTR _raw$[ebp]
  00042	83 c0 50	 add	 eax, 80			; 00000050H
  00045	89 45 f8	 mov	 DWORD PTR _v$[ebp], eax

; 298  : 
; 299  : 			break;

  00048	e9 98 00 00 00	 jmp	 $LN2@get_local_
$LN6@get_local_:

; 300  : 		}
; 301  : 		////////////////////////////////////////
; 302  : 		case VEC3D_TYPE_WIND_DIRECTION_VECTOR:
; 303  : 		////////////////////////////////////////
; 304  : 		{
; 305  : 			v = &raw->wind_direction_vector;

  0004d	8b 45 fc	 mov	 eax, DWORD PTR _raw$[ebp]
  00050	83 c0 6c	 add	 eax, 108		; 0000006cH
  00053	89 45 f8	 mov	 DWORD PTR _v$[ebp], eax

; 306  : 
; 307  : 			break;

  00056	e9 8a 00 00 00	 jmp	 $LN2@get_local_
$LN7@get_local_:

; 308  : 		}
; 309  : 		////////////////////////////////////////
; 310  : 		case VEC3D_TYPE_WIND_EFFECT_POSITION:
; 311  : 		////////////////////////////////////////
; 312  : 		{
; 313  : 			v = &raw->wind_effect_position;

  0005b	8b 45 fc	 mov	 eax, DWORD PTR _raw$[ebp]
  0005e	83 c0 78	 add	 eax, 120		; 00000078H
  00061	89 45 f8	 mov	 DWORD PTR _v$[ebp], eax

; 314  : 
; 315  : 			break;

  00064	eb 7f		 jmp	 SHORT $LN2@get_local_
$LN8@get_local_:

; 316  : 		}
; 317  : 		////////////////////////////////////////
; 318  : 		case VEC3D_TYPE_WIND_EFFECT_VELOCITY:
; 319  : 		////////////////////////////////////////
; 320  : 		{
; 321  : 			v = &raw->wind_effect_velocity;

  00066	8b 45 fc	 mov	 eax, DWORD PTR _raw$[ebp]
  00069	05 84 00 00 00	 add	 eax, 132		; 00000084H
  0006e	89 45 f8	 mov	 DWORD PTR _v$[ebp], eax

; 322  : 
; 323  : 			break;

  00071	eb 72		 jmp	 SHORT $LN2@get_local_
$LN9@get_local_:

; 324  : 		}
; 325  : 		////////////////////////////////////////
; 326  : 		default:
; 327  : 		////////////////////////////////////////
; 328  : 		{
; 329  : 			debug_fatal_invalid_vec3d_type (en, type);

  00073	83 7d 08 00	 cmp	 DWORD PTR _en$[ebp], 0
  00077	74 0a		 je	 SHORT $LN11@get_local_
  00079	8b 45 08	 mov	 eax, DWORD PTR _en$[ebp]
  0007c	8b 08		 mov	 ecx, DWORD PTR [eax]
  0007e	89 4d b4	 mov	 DWORD PTR tv87[ebp], ecx
  00081	eb 21		 jmp	 SHORT $LN12@get_local_
$LN11@get_local_:
  00083	8b 15 00 00 00
	00		 mov	 edx, DWORD PTR ?__LINE__Var@?0??get_local_vec3d_ptr@@YGPAUVEC3D@@PAUENTITY@@W4VEC3D_TYPES@@@Z@4JA
  00089	83 c2 37	 add	 edx, 55			; 00000037H
  0008c	52		 push	 edx
  0008d	68 00 00 00 00	 push	 OFFSET ??_C@_0EO@OJFFNJBE@c?3?2users?2nhv90?2projects?2eech?2ap@
  00092	a1 00 00 00 00	 mov	 eax, DWORD PTR ?null_entity_pointer_message@@3PBDB ; null_entity_pointer_message
  00097	50		 push	 eax
  00098	e8 00 00 00 00	 call	 ?process_assert@@YGXPBD0H@Z ; process_assert
  0009d	c7 45 b4 00 00
	00 00		 mov	 DWORD PTR tv87[ebp], 0
$LN12@get_local_:
  000a4	8b 0d 00 00 00
	00		 mov	 ecx, DWORD PTR ?__LINE__Var@?0??get_local_vec3d_ptr@@YGPAUVEC3D@@PAUENTITY@@W4VEC3D_TYPES@@@Z@4JA
  000aa	83 c1 37	 add	 ecx, 55			; 00000037H
  000ad	51		 push	 ecx
  000ae	68 00 00 00 00	 push	 OFFSET ??_C@_0EO@OJFFNJBE@c?3?2users?2nhv90?2projects?2eech?2ap@
  000b3	6b 55 0c 0c	 imul	 edx, DWORD PTR _type$[ebp], 12
  000b7	8b 82 00 00 00
	00		 mov	 eax, DWORD PTR ?vec3d_type_database@@3PAUVEC3D_TYPE_DATA@@A[edx]
  000bd	50		 push	 eax
  000be	8b 4d 08	 mov	 ecx, DWORD PTR _en$[ebp]
  000c1	2b 0d 00 00 00
	00		 sub	 ecx, DWORD PTR ?entities@@3PAUENTITY@@A ; entities
  000c7	c1 f9 04	 sar	 ecx, 4
  000ca	51		 push	 ecx
  000cb	6b 55 b4 0c	 imul	 edx, DWORD PTR tv87[ebp], 12
  000cf	8b 82 00 00 00
	00		 mov	 eax, DWORD PTR ?entity_type_database@@3PAUENTITY_TYPE_DATA@@A[edx]
  000d5	50		 push	 eax
  000d6	8b 0d 00 00 00
	00		 mov	 ecx, DWORD PTR ?debug_fatal_invalid_vec3d_type_message@@3PBDB ; debug_fatal_invalid_vec3d_type_message
  000dc	51		 push	 ecx
  000dd	e8 00 00 00 00	 call	 ?debug_fatal@@YAXPBDZZ	; debug_fatal
  000e2	83 c4 18	 add	 esp, 24			; 00000018H
$LN2@get_local_:

; 330  : 
; 331  : 			break;
; 332  : 		}
; 333  : 	}
; 334  : 
; 335  : 	return (v);

  000e5	8b 45 f8	 mov	 eax, DWORD PTR _v$[ebp]

; 336  : }

  000e8	5f		 pop	 edi
  000e9	5e		 pop	 esi
  000ea	5b		 pop	 ebx
  000eb	8b e5		 mov	 esp, ebp
  000ed	5d		 pop	 ebp
  000ee	c2 08 00	 ret	 8
  000f1	0f 1f 00	 npad	 3
$LN13@get_local_:
  000f4	00 00 00 00	 DD	 $LN4@get_local_
  000f8	00 00 00 00	 DD	 $LN5@get_local_
  000fc	00 00 00 00	 DD	 $LN6@get_local_
  00100	00 00 00 00	 DD	 $LN7@get_local_
  00104	00 00 00 00	 DD	 $LN8@get_local_
?get_local_vec3d_ptr@@YGPAUVEC3D@@PAUENTITY@@W4VEC3D_TYPES@@@Z ENDP ; get_local_vec3d_ptr
_TEXT	ENDS
; Function compile flags: /Odtp /ZI
; File c:\users\nhv90\projects\eech\aphavoc\source\entity\special\session\ss_vec3d.c
;	COMDAT ?get_local_vec3d@@YGXPAUENTITY@@W4VEC3D_TYPES@@PAUVEC3D@@@Z
_TEXT	SEGMENT
tv129 = -72						; size = 4
tv70 = -72						; size = 4
_raw$ = -4						; size = 4
_en$ = 8						; size = 4
_type$ = 12						; size = 4
_v$ = 16						; size = 4
?get_local_vec3d@@YGXPAUENTITY@@W4VEC3D_TYPES@@PAUVEC3D@@@Z PROC ; get_local_vec3d, COMDAT

; 208  : {

  00000	55		 push	 ebp
  00001	8b ec		 mov	 ebp, esp
  00003	83 ec 48	 sub	 esp, 72			; 00000048H
  00006	53		 push	 ebx
  00007	56		 push	 esi
  00008	57		 push	 edi

; 209  : 	session
; 210  : 		*raw;
; 211  : 
; 212  : 	ASSERT (v);

  00009	83 7d 10 00	 cmp	 DWORD PTR _v$[ebp], 0
  0000d	75 18		 jne	 SHORT $LN4@get_local_
  0000f	a1 00 00 00 00	 mov	 eax, DWORD PTR ?__LINE__Var@?0??get_local_vec3d@@YGXPAUENTITY@@W4VEC3D_TYPES@@PAUVEC3D@@@Z@4JA
  00014	83 c0 04	 add	 eax, 4
  00017	50		 push	 eax
  00018	68 00 00 00 00	 push	 OFFSET ??_C@_0EO@OJFFNJBE@c?3?2users?2nhv90?2projects?2eech?2ap@
  0001d	68 00 00 00 00	 push	 OFFSET ??_C@_01MHEDDDHA@v@
  00022	e8 00 00 00 00	 call	 ?process_assert@@YGXPBD0H@Z ; process_assert
$LN4@get_local_:

; 213  : 
; 214  : 	raw = (session *) get_local_entity_data (en);

  00027	8b 45 08	 mov	 eax, DWORD PTR _en$[ebp]
  0002a	8b 48 04	 mov	 ecx, DWORD PTR [eax+4]
  0002d	89 4d fc	 mov	 DWORD PTR _raw$[ebp], ecx

; 215  : 
; 216  : 	switch (type)

  00030	8b 45 0c	 mov	 eax, DWORD PTR _type$[ebp]
  00033	89 45 b8	 mov	 DWORD PTR tv70[ebp], eax
  00036	8b 4d b8	 mov	 ecx, DWORD PTR tv70[ebp]
  00039	83 e9 0f	 sub	 ecx, 15			; 0000000fH
  0003c	89 4d b8	 mov	 DWORD PTR tv70[ebp], ecx
  0003f	83 7d b8 04	 cmp	 DWORD PTR tv70[ebp], 4
  00043	0f 87 9f 00 00
	00		 ja	 $LN10@get_local_
  00049	8b 55 b8	 mov	 edx, DWORD PTR tv70[ebp]
  0004c	ff 24 95 00 00
	00 00		 jmp	 DWORD PTR $LN14@get_local_[edx*4]
$LN5@get_local_:

; 217  : 	{
; 218  : 		////////////////////////////////////////
; 219  : 		case VEC3D_TYPE_WEATHER_POSITION:
; 220  : 		////////////////////////////////////////
; 221  : 		{
; 222  : 			*v = raw->weather_position;

  00053	8b 45 fc	 mov	 eax, DWORD PTR _raw$[ebp]
  00056	83 c0 44	 add	 eax, 68			; 00000044H
  00059	8b 4d 10	 mov	 ecx, DWORD PTR _v$[ebp]
  0005c	8b 10		 mov	 edx, DWORD PTR [eax]
  0005e	89 11		 mov	 DWORD PTR [ecx], edx
  00060	8b 50 04	 mov	 edx, DWORD PTR [eax+4]
  00063	89 51 04	 mov	 DWORD PTR [ecx+4], edx
  00066	8b 40 08	 mov	 eax, DWORD PTR [eax+8]
  00069	89 41 08	 mov	 DWORD PTR [ecx+8], eax

; 223  : 
; 224  : 			break;

  0006c	e9 e9 00 00 00	 jmp	 $LN1@get_local_
$LN6@get_local_:

; 225  : 		}
; 226  : 		////////////////////////////////////////
; 227  : 		case VEC3D_TYPE_WEATHER_VELOCITY:
; 228  : 		////////////////////////////////////////
; 229  : 		{
; 230  : 			*v = raw->weather_velocity;

  00071	8b 45 fc	 mov	 eax, DWORD PTR _raw$[ebp]
  00074	83 c0 50	 add	 eax, 80			; 00000050H
  00077	8b 4d 10	 mov	 ecx, DWORD PTR _v$[ebp]
  0007a	8b 10		 mov	 edx, DWORD PTR [eax]
  0007c	89 11		 mov	 DWORD PTR [ecx], edx
  0007e	8b 50 04	 mov	 edx, DWORD PTR [eax+4]
  00081	89 51 04	 mov	 DWORD PTR [ecx+4], edx
  00084	8b 40 08	 mov	 eax, DWORD PTR [eax+8]
  00087	89 41 08	 mov	 DWORD PTR [ecx+8], eax

; 231  : 
; 232  : 			break;

  0008a	e9 cb 00 00 00	 jmp	 $LN1@get_local_
$LN7@get_local_:

; 233  : 		}
; 234  : 		////////////////////////////////////////
; 235  : 		case VEC3D_TYPE_WIND_DIRECTION_VECTOR:
; 236  : 		////////////////////////////////////////
; 237  : 		{
; 238  : 			*v = raw->wind_direction_vector;

  0008f	8b 45 fc	 mov	 eax, DWORD PTR _raw$[ebp]
  00092	83 c0 6c	 add	 eax, 108		; 0000006cH
  00095	8b 4d 10	 mov	 ecx, DWORD PTR _v$[ebp]
  00098	8b 10		 mov	 edx, DWORD PTR [eax]
  0009a	89 11		 mov	 DWORD PTR [ecx], edx
  0009c	8b 50 04	 mov	 edx, DWORD PTR [eax+4]
  0009f	89 51 04	 mov	 DWORD PTR [ecx+4], edx
  000a2	8b 40 08	 mov	 eax, DWORD PTR [eax+8]
  000a5	89 41 08	 mov	 DWORD PTR [ecx+8], eax

; 239  : 
; 240  : 			break;

  000a8	e9 ad 00 00 00	 jmp	 $LN1@get_local_
$LN8@get_local_:

; 241  : 		}
; 242  : 		////////////////////////////////////////
; 243  : 		case VEC3D_TYPE_WIND_EFFECT_POSITION:
; 244  : 		////////////////////////////////////////
; 245  : 		{
; 246  : 			*v = raw->wind_effect_position;

  000ad	8b 45 fc	 mov	 eax, DWORD PTR _raw$[ebp]
  000b0	83 c0 78	 add	 eax, 120		; 00000078H
  000b3	8b 4d 10	 mov	 ecx, DWORD PTR _v$[ebp]
  000b6	8b 10		 mov	 edx, DWORD PTR [eax]
  000b8	89 11		 mov	 DWORD PTR [ecx], edx
  000ba	8b 50 04	 mov	 edx, DWORD PTR [eax+4]
  000bd	89 51 04	 mov	 DWORD PTR [ecx+4], edx
  000c0	8b 40 08	 mov	 eax, DWORD PTR [eax+8]
  000c3	89 41 08	 mov	 DWORD PTR [ecx+8], eax

; 247  : 
; 248  : 			break;

  000c6	e9 8f 00 00 00	 jmp	 $LN1@get_local_
$LN9@get_local_:

; 249  : 		}
; 250  : 		////////////////////////////////////////
; 251  : 		case VEC3D_TYPE_WIND_EFFECT_VELOCITY:
; 252  : 		////////////////////////////////////////
; 253  : 		{
; 254  : 			*v = raw->wind_effect_velocity;

  000cb	8b 45 fc	 mov	 eax, DWORD PTR _raw$[ebp]
  000ce	05 84 00 00 00	 add	 eax, 132		; 00000084H
  000d3	8b 4d 10	 mov	 ecx, DWORD PTR _v$[ebp]
  000d6	8b 10		 mov	 edx, DWORD PTR [eax]
  000d8	89 11		 mov	 DWORD PTR [ecx], edx
  000da	8b 50 04	 mov	 edx, DWORD PTR [eax+4]
  000dd	89 51 04	 mov	 DWORD PTR [ecx+4], edx
  000e0	8b 40 08	 mov	 eax, DWORD PTR [eax+8]
  000e3	89 41 08	 mov	 DWORD PTR [ecx+8], eax

; 255  : 
; 256  : 			break;

  000e6	eb 72		 jmp	 SHORT $LN1@get_local_
$LN10@get_local_:

; 257  : 		}
; 258  : 		////////////////////////////////////////
; 259  : 		default:
; 260  : 		////////////////////////////////////////
; 261  : 		{
; 262  : 			debug_fatal_invalid_vec3d_type (en, type);

  000e8	83 7d 08 00	 cmp	 DWORD PTR _en$[ebp], 0
  000ec	74 0a		 je	 SHORT $LN12@get_local_
  000ee	8b 45 08	 mov	 eax, DWORD PTR _en$[ebp]
  000f1	8b 08		 mov	 ecx, DWORD PTR [eax]
  000f3	89 4d b8	 mov	 DWORD PTR tv129[ebp], ecx
  000f6	eb 21		 jmp	 SHORT $LN13@get_local_
$LN12@get_local_:
  000f8	8b 15 00 00 00
	00		 mov	 edx, DWORD PTR ?__LINE__Var@?0??get_local_vec3d@@YGXPAUENTITY@@W4VEC3D_TYPES@@PAUVEC3D@@@Z@4JA
  000fe	83 c2 36	 add	 edx, 54			; 00000036H
  00101	52		 push	 edx
  00102	68 00 00 00 00	 push	 OFFSET ??_C@_0EO@OJFFNJBE@c?3?2users?2nhv90?2projects?2eech?2ap@
  00107	a1 00 00 00 00	 mov	 eax, DWORD PTR ?null_entity_pointer_message@@3PBDB ; null_entity_pointer_message
  0010c	50		 push	 eax
  0010d	e8 00 00 00 00	 call	 ?process_assert@@YGXPBD0H@Z ; process_assert
  00112	c7 45 b8 00 00
	00 00		 mov	 DWORD PTR tv129[ebp], 0
$LN13@get_local_:
  00119	8b 0d 00 00 00
	00		 mov	 ecx, DWORD PTR ?__LINE__Var@?0??get_local_vec3d@@YGXPAUENTITY@@W4VEC3D_TYPES@@PAUVEC3D@@@Z@4JA
  0011f	83 c1 36	 add	 ecx, 54			; 00000036H
  00122	51		 push	 ecx
  00123	68 00 00 00 00	 push	 OFFSET ??_C@_0EO@OJFFNJBE@c?3?2users?2nhv90?2projects?2eech?2ap@
  00128	6b 55 0c 0c	 imul	 edx, DWORD PTR _type$[ebp], 12
  0012c	8b 82 00 00 00
	00		 mov	 eax, DWORD PTR ?vec3d_type_database@@3PAUVEC3D_TYPE_DATA@@A[edx]
  00132	50		 push	 eax
  00133	8b 4d 08	 mov	 ecx, DWORD PTR _en$[ebp]
  00136	2b 0d 00 00 00
	00		 sub	 ecx, DWORD PTR ?entities@@3PAUENTITY@@A ; entities
  0013c	c1 f9 04	 sar	 ecx, 4
  0013f	51		 push	 ecx
  00140	6b 55 b8 0c	 imul	 edx, DWORD PTR tv129[ebp], 12
  00144	8b 82 00 00 00
	00		 mov	 eax, DWORD PTR ?entity_type_database@@3PAUENTITY_TYPE_DATA@@A[edx]
  0014a	50		 push	 eax
  0014b	8b 0d 00 00 00
	00		 mov	 ecx, DWORD PTR ?debug_fatal_invalid_vec3d_type_message@@3PBDB ; debug_fatal_invalid_vec3d_type_message
  00151	51		 push	 ecx
  00152	e8 00 00 00 00	 call	 ?debug_fatal@@YAXPBDZZ	; debug_fatal
  00157	83 c4 18	 add	 esp, 24			; 00000018H
$LN1@get_local_:

; 263  : 
; 264  : 			break;
; 265  : 		}
; 266  : 	}
; 267  : }

  0015a	5f		 pop	 edi
  0015b	5e		 pop	 esi
  0015c	5b		 pop	 ebx
  0015d	8b e5		 mov	 esp, ebp
  0015f	5d		 pop	 ebp
  00160	c2 0c 00	 ret	 12			; 0000000cH
  00163	90		 npad	 1
$LN14@get_local_:
  00164	00 00 00 00	 DD	 $LN5@get_local_
  00168	00 00 00 00	 DD	 $LN6@get_local_
  0016c	00 00 00 00	 DD	 $LN7@get_local_
  00170	00 00 00 00	 DD	 $LN8@get_local_
  00174	00 00 00 00	 DD	 $LN9@get_local_
?get_local_vec3d@@YGXPAUENTITY@@W4VEC3D_TYPES@@PAUVEC3D@@@Z ENDP ; get_local_vec3d
_TEXT	ENDS
; Function compile flags: /Odtp /ZI
; File c:\users\nhv90\projects\eech\aphavoc\source\entity\special\session\ss_vec3d.c
;	COMDAT ?set_client_vec3d@@YGXPAUENTITY@@W4VEC3D_TYPES@@PAUVEC3D@@@Z
_TEXT	SEGMENT
_en$ = 8						; size = 4
_type$ = 12						; size = 4
_v$ = 16						; size = 4
?set_client_vec3d@@YGXPAUENTITY@@W4VEC3D_TYPES@@PAUVEC3D@@@Z PROC ; set_client_vec3d, COMDAT

; 186  : {

  00000	55		 push	 ebp
  00001	8b ec		 mov	 ebp, esp
  00003	83 ec 40	 sub	 esp, 64			; 00000040H
  00006	53		 push	 ebx
  00007	56		 push	 esi
  00008	57		 push	 edi

; 187  : 	ASSERT (v);

  00009	83 7d 10 00	 cmp	 DWORD PTR _v$[ebp], 0
  0000d	75 18		 jne	 SHORT $LN2@set_client
  0000f	a1 00 00 00 00	 mov	 eax, DWORD PTR ?__LINE__Var@?0??set_client_vec3d@@YGXPAUENTITY@@W4VEC3D_TYPES@@PAUVEC3D@@@Z@4JA
  00014	83 c0 01	 add	 eax, 1
  00017	50		 push	 eax
  00018	68 00 00 00 00	 push	 OFFSET ??_C@_0EO@OJFFNJBE@c?3?2users?2nhv90?2projects?2eech?2ap@
  0001d	68 00 00 00 00	 push	 OFFSET ??_C@_01MHEDDDHA@v@
  00022	e8 00 00 00 00	 call	 ?process_assert@@YGXPBD0H@Z ; process_assert
$LN2@set_client:

; 188  : 
; 189  : 	if (get_comms_data_flow () == COMMS_DATA_FLOW_TX)

  00027	83 3d 00 00 00
	00 00		 cmp	 DWORD PTR ?system_comms_data_flow@@3W4COMMS_DATA_FLOW_TYPES@@A, 0 ; system_comms_data_flow
  0002e	75 34		 jne	 SHORT $LN3@set_client

; 190  : 	{
; 191  : 		validate_client_server_remote_fn ();

  00030	e8 00 00 00 00	 call	 ?assert_client_server_remote_fn@@YGHXZ ; assert_client_server_remote_fn
  00035	85 c0		 test	 eax, eax
  00037	75 18		 jne	 SHORT $LN5@set_client
  00039	a1 00 00 00 00	 mov	 eax, DWORD PTR ?__LINE__Var@?0??set_client_vec3d@@YGXPAUENTITY@@W4VEC3D_TYPES@@PAUVEC3D@@@Z@4JA
  0003e	83 c0 05	 add	 eax, 5
  00041	50		 push	 eax
  00042	68 00 00 00 00	 push	 OFFSET ??_C@_0EO@OJFFNJBE@c?3?2users?2nhv90?2projects?2eech?2ap@
  00047	68 00 00 00 00	 push	 OFFSET ??_C@_0CC@BNNNEGEG@assert_client_server_remote_fn?5@
  0004c	e8 00 00 00 00	 call	 ?process_assert@@YGXPBD0H@Z ; process_assert
$LN5@set_client:

; 192  : 
; 193  : 		set_remote_vec3d (en, type, v);

  00051	8b 45 10	 mov	 eax, DWORD PTR _v$[ebp]
  00054	50		 push	 eax
  00055	8b 4d 0c	 mov	 ecx, DWORD PTR _type$[ebp]
  00058	51		 push	 ecx
  00059	8b 55 08	 mov	 edx, DWORD PTR _en$[ebp]
  0005c	52		 push	 edx
  0005d	e8 00 00 00 00	 call	 ?set_remote_vec3d@@YGXPAUENTITY@@W4VEC3D_TYPES@@PAUVEC3D@@@Z ; set_remote_vec3d

; 194  : 	}
; 195  : 	else

  00062	eb 32		 jmp	 SHORT $LN1@set_client
$LN3@set_client:

; 196  : 	{
; 197  : 		validate_client_server_local_fn ();

  00064	e8 00 00 00 00	 call	 ?assert_client_server_local_fn@@YGHXZ ; assert_client_server_local_fn
  00069	85 c0		 test	 eax, eax
  0006b	75 18		 jne	 SHORT $LN6@set_client
  0006d	a1 00 00 00 00	 mov	 eax, DWORD PTR ?__LINE__Var@?0??set_client_vec3d@@YGXPAUENTITY@@W4VEC3D_TYPES@@PAUVEC3D@@@Z@4JA
  00072	83 c0 0b	 add	 eax, 11			; 0000000bH
  00075	50		 push	 eax
  00076	68 00 00 00 00	 push	 OFFSET ??_C@_0EO@OJFFNJBE@c?3?2users?2nhv90?2projects?2eech?2ap@
  0007b	68 00 00 00 00	 push	 OFFSET ??_C@_0CB@CFOCLFOK@assert_client_server_local_fn?5?$CI@
  00080	e8 00 00 00 00	 call	 ?process_assert@@YGXPBD0H@Z ; process_assert
$LN6@set_client:

; 198  : 
; 199  : 		set_local_vec3d (en, type, v);

  00085	8b 45 10	 mov	 eax, DWORD PTR _v$[ebp]
  00088	50		 push	 eax
  00089	8b 4d 0c	 mov	 ecx, DWORD PTR _type$[ebp]
  0008c	51		 push	 ecx
  0008d	8b 55 08	 mov	 edx, DWORD PTR _en$[ebp]
  00090	52		 push	 edx
  00091	e8 00 00 00 00	 call	 ?set_local_vec3d@@YGXPAUENTITY@@W4VEC3D_TYPES@@PAUVEC3D@@@Z ; set_local_vec3d
$LN1@set_client:

; 200  : 	}
; 201  : }

  00096	5f		 pop	 edi
  00097	5e		 pop	 esi
  00098	5b		 pop	 ebx
  00099	8b e5		 mov	 esp, ebp
  0009b	5d		 pop	 ebp
  0009c	c2 0c 00	 ret	 12			; 0000000cH
?set_client_vec3d@@YGXPAUENTITY@@W4VEC3D_TYPES@@PAUVEC3D@@@Z ENDP ; set_client_vec3d
_TEXT	ENDS
; Function compile flags: /Odtp /ZI
; File c:\users\nhv90\projects\eech\aphavoc\source\entity\special\session\ss_vec3d.c
;	COMDAT ?set_server_vec3d@@YGXPAUENTITY@@W4VEC3D_TYPES@@PAUVEC3D@@@Z
_TEXT	SEGMENT
_en$ = 8						; size = 4
_type$ = 12						; size = 4
_v$ = 16						; size = 4
?set_server_vec3d@@YGXPAUENTITY@@W4VEC3D_TYPES@@PAUVEC3D@@@Z PROC ; set_server_vec3d, COMDAT

; 169  : {

  00000	55		 push	 ebp
  00001	8b ec		 mov	 ebp, esp
  00003	83 ec 40	 sub	 esp, 64			; 00000040H
  00006	53		 push	 ebx
  00007	56		 push	 esi
  00008	57		 push	 edi

; 170  : 	ASSERT (v);

  00009	83 7d 10 00	 cmp	 DWORD PTR _v$[ebp], 0
  0000d	75 18		 jne	 SHORT $LN2@set_server
  0000f	a1 00 00 00 00	 mov	 eax, DWORD PTR ?__LINE__Var@?0??set_server_vec3d@@YGXPAUENTITY@@W4VEC3D_TYPES@@PAUVEC3D@@@Z@4JA
  00014	83 c0 01	 add	 eax, 1
  00017	50		 push	 eax
  00018	68 00 00 00 00	 push	 OFFSET ??_C@_0EO@OJFFNJBE@c?3?2users?2nhv90?2projects?2eech?2ap@
  0001d	68 00 00 00 00	 push	 OFFSET ??_C@_01MHEDDDHA@v@
  00022	e8 00 00 00 00	 call	 ?process_assert@@YGXPBD0H@Z ; process_assert
$LN2@set_server:

; 171  : 
; 172  : 	validate_client_server_local_fn ();

  00027	e8 00 00 00 00	 call	 ?assert_client_server_local_fn@@YGHXZ ; assert_client_server_local_fn
  0002c	85 c0		 test	 eax, eax
  0002e	75 18		 jne	 SHORT $LN3@set_server
  00030	a1 00 00 00 00	 mov	 eax, DWORD PTR ?__LINE__Var@?0??set_server_vec3d@@YGXPAUENTITY@@W4VEC3D_TYPES@@PAUVEC3D@@@Z@4JA
  00035	83 c0 03	 add	 eax, 3
  00038	50		 push	 eax
  00039	68 00 00 00 00	 push	 OFFSET ??_C@_0EO@OJFFNJBE@c?3?2users?2nhv90?2projects?2eech?2ap@
  0003e	68 00 00 00 00	 push	 OFFSET ??_C@_0CB@CFOCLFOK@assert_client_server_local_fn?5?$CI@
  00043	e8 00 00 00 00	 call	 ?process_assert@@YGXPBD0H@Z ; process_assert
$LN3@set_server:

; 173  : 
; 174  : 	set_local_vec3d (en, type, v);

  00048	8b 45 10	 mov	 eax, DWORD PTR _v$[ebp]
  0004b	50		 push	 eax
  0004c	8b 4d 0c	 mov	 ecx, DWORD PTR _type$[ebp]
  0004f	51		 push	 ecx
  00050	8b 55 08	 mov	 edx, DWORD PTR _en$[ebp]
  00053	52		 push	 edx
  00054	e8 00 00 00 00	 call	 ?set_local_vec3d@@YGXPAUENTITY@@W4VEC3D_TYPES@@PAUVEC3D@@@Z ; set_local_vec3d

; 175  : 
; 176  : 	validate_client_server_remote_fn ();

  00059	e8 00 00 00 00	 call	 ?assert_client_server_remote_fn@@YGHXZ ; assert_client_server_remote_fn
  0005e	85 c0		 test	 eax, eax
  00060	75 18		 jne	 SHORT $LN4@set_server
  00062	a1 00 00 00 00	 mov	 eax, DWORD PTR ?__LINE__Var@?0??set_server_vec3d@@YGXPAUENTITY@@W4VEC3D_TYPES@@PAUVEC3D@@@Z@4JA
  00067	83 c0 07	 add	 eax, 7
  0006a	50		 push	 eax
  0006b	68 00 00 00 00	 push	 OFFSET ??_C@_0EO@OJFFNJBE@c?3?2users?2nhv90?2projects?2eech?2ap@
  00070	68 00 00 00 00	 push	 OFFSET ??_C@_0CC@BNNNEGEG@assert_client_server_remote_fn?5@
  00075	e8 00 00 00 00	 call	 ?process_assert@@YGXPBD0H@Z ; process_assert
$LN4@set_server:

; 177  : 
; 178  : 	set_remote_vec3d (en, type, v);

  0007a	8b 45 10	 mov	 eax, DWORD PTR _v$[ebp]
  0007d	50		 push	 eax
  0007e	8b 4d 0c	 mov	 ecx, DWORD PTR _type$[ebp]
  00081	51		 push	 ecx
  00082	8b 55 08	 mov	 edx, DWORD PTR _en$[ebp]
  00085	52		 push	 edx
  00086	e8 00 00 00 00	 call	 ?set_remote_vec3d@@YGXPAUENTITY@@W4VEC3D_TYPES@@PAUVEC3D@@@Z ; set_remote_vec3d

; 179  : }

  0008b	5f		 pop	 edi
  0008c	5e		 pop	 esi
  0008d	5b		 pop	 ebx
  0008e	8b e5		 mov	 esp, ebp
  00090	5d		 pop	 ebp
  00091	c2 0c 00	 ret	 12			; 0000000cH
?set_server_vec3d@@YGXPAUENTITY@@W4VEC3D_TYPES@@PAUVEC3D@@@Z ENDP ; set_server_vec3d
_TEXT	ENDS
; Function compile flags: /Odtp /ZI
; File c:\users\nhv90\projects\eech\aphavoc\source\entity\special\session\ss_vec3d.c
;	COMDAT ?set_remote_vec3d@@YGXPAUENTITY@@W4VEC3D_TYPES@@PAUVEC3D@@@Z
_TEXT	SEGMENT
_en$ = 8						; size = 4
_type$ = 12						; size = 4
_v$ = 16						; size = 4
?set_remote_vec3d@@YGXPAUENTITY@@W4VEC3D_TYPES@@PAUVEC3D@@@Z PROC ; set_remote_vec3d, COMDAT

; 152  : {

  00000	55		 push	 ebp
  00001	8b ec		 mov	 ebp, esp
  00003	83 ec 40	 sub	 esp, 64			; 00000040H
  00006	53		 push	 ebx
  00007	56		 push	 esi
  00008	57		 push	 edi

; 153  : 	ASSERT (v);

  00009	83 7d 10 00	 cmp	 DWORD PTR _v$[ebp], 0
  0000d	75 18		 jne	 SHORT $LN2@set_remote
  0000f	a1 00 00 00 00	 mov	 eax, DWORD PTR ?__LINE__Var@?0??set_remote_vec3d@@YGXPAUENTITY@@W4VEC3D_TYPES@@PAUVEC3D@@@Z@4JA
  00014	83 c0 01	 add	 eax, 1
  00017	50		 push	 eax
  00018	68 00 00 00 00	 push	 OFFSET ??_C@_0EO@OJFFNJBE@c?3?2users?2nhv90?2projects?2eech?2ap@
  0001d	68 00 00 00 00	 push	 OFFSET ??_C@_01MHEDDDHA@v@
  00022	e8 00 00 00 00	 call	 ?process_assert@@YGXPBD0H@Z ; process_assert
$LN2@set_remote:

; 154  : 
; 155  : 	#if DEBUG_MODULE
; 156  : 
; 157  : 	debug_log_entity_args (ENTITY_DEBUG_REMOTE, ENTITY_DEBUG_VEC3D, en, type, v);
; 158  : 
; 159  : 	#endif
; 160  : 
; 161  : 	transmit_entity_comms_message (ENTITY_COMMS_VEC3D, en, type, v);

  00027	8b 45 10	 mov	 eax, DWORD PTR _v$[ebp]
  0002a	50		 push	 eax
  0002b	8b 4d 0c	 mov	 ecx, DWORD PTR _type$[ebp]
  0002e	51		 push	 ecx
  0002f	8b 55 08	 mov	 edx, DWORD PTR _en$[ebp]
  00032	52		 push	 edx
  00033	6a 42		 push	 66			; 00000042H
  00035	e8 00 00 00 00	 call	 ?transmit_entity_comms_message@@YAXW4ENTITY_COMMS_MESSAGES@@PAUENTITY@@ZZ ; transmit_entity_comms_message
  0003a	83 c4 10	 add	 esp, 16			; 00000010H

; 162  : }

  0003d	5f		 pop	 edi
  0003e	5e		 pop	 esi
  0003f	5b		 pop	 ebx
  00040	8b e5		 mov	 esp, ebp
  00042	5d		 pop	 ebp
  00043	c2 0c 00	 ret	 12			; 0000000cH
?set_remote_vec3d@@YGXPAUENTITY@@W4VEC3D_TYPES@@PAUVEC3D@@@Z ENDP ; set_remote_vec3d
_TEXT	ENDS
; Function compile flags: /Odtp /ZI
; File c:\users\nhv90\projects\eech\aphavoc\source\entity\special\session\ss_vec3d.c
;	COMDAT ?set_local_vec3d@@YGXPAUENTITY@@W4VEC3D_TYPES@@PAUVEC3D@@@Z
_TEXT	SEGMENT
tv129 = -72						; size = 4
tv70 = -72						; size = 4
_raw$ = -4						; size = 4
_en$ = 8						; size = 4
_type$ = 12						; size = 4
_v$ = 16						; size = 4
?set_local_vec3d@@YGXPAUENTITY@@W4VEC3D_TYPES@@PAUVEC3D@@@Z PROC ; set_local_vec3d, COMDAT

; 80   : {

  00000	55		 push	 ebp
  00001	8b ec		 mov	 ebp, esp
  00003	83 ec 48	 sub	 esp, 72			; 00000048H
  00006	53		 push	 ebx
  00007	56		 push	 esi
  00008	57		 push	 edi

; 81   : 	session
; 82   : 		*raw;
; 83   : 
; 84   : 	ASSERT (v);

  00009	83 7d 10 00	 cmp	 DWORD PTR _v$[ebp], 0
  0000d	75 18		 jne	 SHORT $LN4@set_local_
  0000f	a1 00 00 00 00	 mov	 eax, DWORD PTR ?__LINE__Var@?0??set_local_vec3d@@YGXPAUENTITY@@W4VEC3D_TYPES@@PAUVEC3D@@@Z@4JA
  00014	83 c0 04	 add	 eax, 4
  00017	50		 push	 eax
  00018	68 00 00 00 00	 push	 OFFSET ??_C@_0EO@OJFFNJBE@c?3?2users?2nhv90?2projects?2eech?2ap@
  0001d	68 00 00 00 00	 push	 OFFSET ??_C@_01MHEDDDHA@v@
  00022	e8 00 00 00 00	 call	 ?process_assert@@YGXPBD0H@Z ; process_assert
$LN4@set_local_:

; 85   : 
; 86   : 	#if DEBUG_MODULE
; 87   : 
; 88   : 	debug_log_entity_args (ENTITY_DEBUG_LOCAL, ENTITY_DEBUG_VEC3D, en, type, v);
; 89   : 
; 90   : 	#endif
; 91   : 
; 92   : 	raw = (session *) get_local_entity_data (en);

  00027	8b 45 08	 mov	 eax, DWORD PTR _en$[ebp]
  0002a	8b 48 04	 mov	 ecx, DWORD PTR [eax+4]
  0002d	89 4d fc	 mov	 DWORD PTR _raw$[ebp], ecx

; 93   : 
; 94   : 	switch (type)

  00030	8b 45 0c	 mov	 eax, DWORD PTR _type$[ebp]
  00033	89 45 b8	 mov	 DWORD PTR tv70[ebp], eax
  00036	8b 4d b8	 mov	 ecx, DWORD PTR tv70[ebp]
  00039	83 e9 0f	 sub	 ecx, 15			; 0000000fH
  0003c	89 4d b8	 mov	 DWORD PTR tv70[ebp], ecx
  0003f	83 7d b8 04	 cmp	 DWORD PTR tv70[ebp], 4
  00043	0f 87 9f 00 00
	00		 ja	 $LN10@set_local_
  00049	8b 55 b8	 mov	 edx, DWORD PTR tv70[ebp]
  0004c	ff 24 95 00 00
	00 00		 jmp	 DWORD PTR $LN14@set_local_[edx*4]
$LN5@set_local_:

; 95   : 	{
; 96   : 		////////////////////////////////////////
; 97   : 		case VEC3D_TYPE_WEATHER_POSITION:
; 98   : 		////////////////////////////////////////
; 99   : 		{
; 100  : 			raw->weather_position = *v;

  00053	8b 45 fc	 mov	 eax, DWORD PTR _raw$[ebp]
  00056	83 c0 44	 add	 eax, 68			; 00000044H
  00059	8b 4d 10	 mov	 ecx, DWORD PTR _v$[ebp]
  0005c	8b 11		 mov	 edx, DWORD PTR [ecx]
  0005e	89 10		 mov	 DWORD PTR [eax], edx
  00060	8b 51 04	 mov	 edx, DWORD PTR [ecx+4]
  00063	89 50 04	 mov	 DWORD PTR [eax+4], edx
  00066	8b 49 08	 mov	 ecx, DWORD PTR [ecx+8]
  00069	89 48 08	 mov	 DWORD PTR [eax+8], ecx

; 101  : 
; 102  : 			break;

  0006c	e9 e9 00 00 00	 jmp	 $LN1@set_local_
$LN6@set_local_:

; 103  : 		}
; 104  : 		////////////////////////////////////////
; 105  : 		case VEC3D_TYPE_WEATHER_VELOCITY:
; 106  : 		////////////////////////////////////////
; 107  : 		{
; 108  : 			raw->weather_velocity = *v;

  00071	8b 45 fc	 mov	 eax, DWORD PTR _raw$[ebp]
  00074	83 c0 50	 add	 eax, 80			; 00000050H
  00077	8b 4d 10	 mov	 ecx, DWORD PTR _v$[ebp]
  0007a	8b 11		 mov	 edx, DWORD PTR [ecx]
  0007c	89 10		 mov	 DWORD PTR [eax], edx
  0007e	8b 51 04	 mov	 edx, DWORD PTR [ecx+4]
  00081	89 50 04	 mov	 DWORD PTR [eax+4], edx
  00084	8b 49 08	 mov	 ecx, DWORD PTR [ecx+8]
  00087	89 48 08	 mov	 DWORD PTR [eax+8], ecx

; 109  : 
; 110  : 			break;

  0008a	e9 cb 00 00 00	 jmp	 $LN1@set_local_
$LN7@set_local_:

; 111  : 		}
; 112  : 		////////////////////////////////////////
; 113  : 		case VEC3D_TYPE_WIND_DIRECTION_VECTOR:
; 114  : 		////////////////////////////////////////
; 115  : 		{
; 116  : 			raw->wind_direction_vector = *v;

  0008f	8b 45 fc	 mov	 eax, DWORD PTR _raw$[ebp]
  00092	83 c0 6c	 add	 eax, 108		; 0000006cH
  00095	8b 4d 10	 mov	 ecx, DWORD PTR _v$[ebp]
  00098	8b 11		 mov	 edx, DWORD PTR [ecx]
  0009a	89 10		 mov	 DWORD PTR [eax], edx
  0009c	8b 51 04	 mov	 edx, DWORD PTR [ecx+4]
  0009f	89 50 04	 mov	 DWORD PTR [eax+4], edx
  000a2	8b 49 08	 mov	 ecx, DWORD PTR [ecx+8]
  000a5	89 48 08	 mov	 DWORD PTR [eax+8], ecx

; 117  : 
; 118  : 			break;

  000a8	e9 ad 00 00 00	 jmp	 $LN1@set_local_
$LN8@set_local_:

; 119  : 		}
; 120  : 		////////////////////////////////////////
; 121  : 		case VEC3D_TYPE_WIND_EFFECT_POSITION:
; 122  : 		////////////////////////////////////////
; 123  : 		{
; 124  : 			raw->wind_effect_position = *v;

  000ad	8b 45 fc	 mov	 eax, DWORD PTR _raw$[ebp]
  000b0	83 c0 78	 add	 eax, 120		; 00000078H
  000b3	8b 4d 10	 mov	 ecx, DWORD PTR _v$[ebp]
  000b6	8b 11		 mov	 edx, DWORD PTR [ecx]
  000b8	89 10		 mov	 DWORD PTR [eax], edx
  000ba	8b 51 04	 mov	 edx, DWORD PTR [ecx+4]
  000bd	89 50 04	 mov	 DWORD PTR [eax+4], edx
  000c0	8b 49 08	 mov	 ecx, DWORD PTR [ecx+8]
  000c3	89 48 08	 mov	 DWORD PTR [eax+8], ecx

; 125  : 
; 126  : 			break;

  000c6	e9 8f 00 00 00	 jmp	 $LN1@set_local_
$LN9@set_local_:

; 127  : 		}
; 128  : 		////////////////////////////////////////
; 129  : 		case VEC3D_TYPE_WIND_EFFECT_VELOCITY:
; 130  : 		////////////////////////////////////////
; 131  : 		{
; 132  : 			raw->wind_effect_velocity = *v;

  000cb	8b 45 fc	 mov	 eax, DWORD PTR _raw$[ebp]
  000ce	05 84 00 00 00	 add	 eax, 132		; 00000084H
  000d3	8b 4d 10	 mov	 ecx, DWORD PTR _v$[ebp]
  000d6	8b 11		 mov	 edx, DWORD PTR [ecx]
  000d8	89 10		 mov	 DWORD PTR [eax], edx
  000da	8b 51 04	 mov	 edx, DWORD PTR [ecx+4]
  000dd	89 50 04	 mov	 DWORD PTR [eax+4], edx
  000e0	8b 49 08	 mov	 ecx, DWORD PTR [ecx+8]
  000e3	89 48 08	 mov	 DWORD PTR [eax+8], ecx

; 133  : 
; 134  : 			break;

  000e6	eb 72		 jmp	 SHORT $LN1@set_local_
$LN10@set_local_:

; 135  : 		}
; 136  : 		////////////////////////////////////////
; 137  : 		default:
; 138  : 		////////////////////////////////////////
; 139  : 		{
; 140  : 			debug_fatal_invalid_vec3d_type (en, type);

  000e8	83 7d 08 00	 cmp	 DWORD PTR _en$[ebp], 0
  000ec	74 0a		 je	 SHORT $LN12@set_local_
  000ee	8b 45 08	 mov	 eax, DWORD PTR _en$[ebp]
  000f1	8b 08		 mov	 ecx, DWORD PTR [eax]
  000f3	89 4d b8	 mov	 DWORD PTR tv129[ebp], ecx
  000f6	eb 21		 jmp	 SHORT $LN13@set_local_
$LN12@set_local_:
  000f8	8b 15 00 00 00
	00		 mov	 edx, DWORD PTR ?__LINE__Var@?0??set_local_vec3d@@YGXPAUENTITY@@W4VEC3D_TYPES@@PAUVEC3D@@@Z@4JA
  000fe	83 c2 3c	 add	 edx, 60			; 0000003cH
  00101	52		 push	 edx
  00102	68 00 00 00 00	 push	 OFFSET ??_C@_0EO@OJFFNJBE@c?3?2users?2nhv90?2projects?2eech?2ap@
  00107	a1 00 00 00 00	 mov	 eax, DWORD PTR ?null_entity_pointer_message@@3PBDB ; null_entity_pointer_message
  0010c	50		 push	 eax
  0010d	e8 00 00 00 00	 call	 ?process_assert@@YGXPBD0H@Z ; process_assert
  00112	c7 45 b8 00 00
	00 00		 mov	 DWORD PTR tv129[ebp], 0
$LN13@set_local_:
  00119	8b 0d 00 00 00
	00		 mov	 ecx, DWORD PTR ?__LINE__Var@?0??set_local_vec3d@@YGXPAUENTITY@@W4VEC3D_TYPES@@PAUVEC3D@@@Z@4JA
  0011f	83 c1 3c	 add	 ecx, 60			; 0000003cH
  00122	51		 push	 ecx
  00123	68 00 00 00 00	 push	 OFFSET ??_C@_0EO@OJFFNJBE@c?3?2users?2nhv90?2projects?2eech?2ap@
  00128	6b 55 0c 0c	 imul	 edx, DWORD PTR _type$[ebp], 12
  0012c	8b 82 00 00 00
	00		 mov	 eax, DWORD PTR ?vec3d_type_database@@3PAUVEC3D_TYPE_DATA@@A[edx]
  00132	50		 push	 eax
  00133	8b 4d 08	 mov	 ecx, DWORD PTR _en$[ebp]
  00136	2b 0d 00 00 00
	00		 sub	 ecx, DWORD PTR ?entities@@3PAUENTITY@@A ; entities
  0013c	c1 f9 04	 sar	 ecx, 4
  0013f	51		 push	 ecx
  00140	6b 55 b8 0c	 imul	 edx, DWORD PTR tv129[ebp], 12
  00144	8b 82 00 00 00
	00		 mov	 eax, DWORD PTR ?entity_type_database@@3PAUENTITY_TYPE_DATA@@A[edx]
  0014a	50		 push	 eax
  0014b	8b 0d 00 00 00
	00		 mov	 ecx, DWORD PTR ?debug_fatal_invalid_vec3d_type_message@@3PBDB ; debug_fatal_invalid_vec3d_type_message
  00151	51		 push	 ecx
  00152	e8 00 00 00 00	 call	 ?debug_fatal@@YAXPBDZZ	; debug_fatal
  00157	83 c4 18	 add	 esp, 24			; 00000018H
$LN1@set_local_:

; 141  : 
; 142  : 			break;
; 143  : 		}
; 144  : 	}
; 145  : }

  0015a	5f		 pop	 edi
  0015b	5e		 pop	 esi
  0015c	5b		 pop	 ebx
  0015d	8b e5		 mov	 esp, ebp
  0015f	5d		 pop	 ebp
  00160	c2 0c 00	 ret	 12			; 0000000cH
  00163	90		 npad	 1
$LN14@set_local_:
  00164	00 00 00 00	 DD	 $LN5@set_local_
  00168	00 00 00 00	 DD	 $LN6@set_local_
  0016c	00 00 00 00	 DD	 $LN7@set_local_
  00170	00 00 00 00	 DD	 $LN8@set_local_
  00174	00 00 00 00	 DD	 $LN9@set_local_
?set_local_vec3d@@YGXPAUENTITY@@W4VEC3D_TYPES@@PAUVEC3D@@@Z ENDP ; set_local_vec3d
_TEXT	ENDS
; Function compile flags: /Odtp /ZI
; File c:\users\nhv90\projects\eech\aphavoc\source\entity\special\session\ss_vec3d.c
;	COMDAT ?overload_session_vec3d_functions@@YGXXZ
_TEXT	SEGMENT
?overload_session_vec3d_functions@@YGXXZ PROC		; overload_session_vec3d_functions, COMDAT

; 343  : {

  00000	55		 push	 ebp
  00001	8b ec		 mov	 ebp, esp
  00003	83 ec 40	 sub	 esp, 64			; 00000040H
  00006	53		 push	 ebx
  00007	56		 push	 esi
  00008	57		 push	 edi

; 344  : 	fn_set_local_entity_vec3d				[ENTITY_TYPE_SESSION][VEC3D_TYPE_WEATHER_POSITION]								= set_local_vec3d;

  00009	b8 60 00 00 00	 mov	 eax, 96			; 00000060H
  0000e	6b c8 1b	 imul	 ecx, eax, 27
  00011	ba 04 00 00 00	 mov	 edx, 4
  00016	6b c2 0f	 imul	 eax, edx, 15
  00019	c7 84 01 00 00
	00 00 00 00 00
	00		 mov	 DWORD PTR ?fn_set_local_entity_vec3d@@3PAY0BI@P6GXPAUENTITY@@W4VEC3D_TYPES@@PAUVEC3D@@@ZA[ecx+eax], OFFSET ?set_local_vec3d@@YGXPAUENTITY@@W4VEC3D_TYPES@@PAUVEC3D@@@Z ; set_local_vec3d

; 345  : 	fn_set_client_server_entity_vec3d	[ENTITY_TYPE_SESSION][VEC3D_TYPE_WEATHER_POSITION][COMMS_MODEL_SERVER]	= set_server_vec3d;

  00024	b8 c0 00 00 00	 mov	 eax, 192		; 000000c0H
  00029	6b c8 1b	 imul	 ecx, eax, 27
  0002c	ba 08 00 00 00	 mov	 edx, 8
  00031	6b c2 0f	 imul	 eax, edx, 15
  00034	8d 8c 01 00 00
	00 00		 lea	 ecx, DWORD PTR ?fn_set_client_server_entity_vec3d@@3PAY1BI@1P6GXPAUENTITY@@W4VEC3D_TYPES@@PAUVEC3D@@@ZA[ecx+eax]
  0003b	ba 04 00 00 00	 mov	 edx, 4
  00040	6b c2 00	 imul	 eax, edx, 0
  00043	c7 04 01 00 00
	00 00		 mov	 DWORD PTR [ecx+eax], OFFSET ?set_server_vec3d@@YGXPAUENTITY@@W4VEC3D_TYPES@@PAUVEC3D@@@Z ; set_server_vec3d

; 346  : 	fn_set_client_server_entity_vec3d	[ENTITY_TYPE_SESSION][VEC3D_TYPE_WEATHER_POSITION][COMMS_MODEL_CLIENT]	= set_client_vec3d;

  0004a	b8 c0 00 00 00	 mov	 eax, 192		; 000000c0H
  0004f	6b c8 1b	 imul	 ecx, eax, 27
  00052	ba 08 00 00 00	 mov	 edx, 8
  00057	6b c2 0f	 imul	 eax, edx, 15
  0005a	8d 8c 01 00 00
	00 00		 lea	 ecx, DWORD PTR ?fn_set_client_server_entity_vec3d@@3PAY1BI@1P6GXPAUENTITY@@W4VEC3D_TYPES@@PAUVEC3D@@@ZA[ecx+eax]
  00061	ba 04 00 00 00	 mov	 edx, 4
  00066	c1 e2 00	 shl	 edx, 0
  00069	c7 04 11 00 00
	00 00		 mov	 DWORD PTR [ecx+edx], OFFSET ?set_client_vec3d@@YGXPAUENTITY@@W4VEC3D_TYPES@@PAUVEC3D@@@Z ; set_client_vec3d

; 347  : 	fn_get_local_entity_vec3d				[ENTITY_TYPE_SESSION][VEC3D_TYPE_WEATHER_POSITION]							 	= get_local_vec3d;

  00070	b8 60 00 00 00	 mov	 eax, 96			; 00000060H
  00075	6b c8 1b	 imul	 ecx, eax, 27
  00078	ba 04 00 00 00	 mov	 edx, 4
  0007d	6b c2 0f	 imul	 eax, edx, 15
  00080	c7 84 01 00 00
	00 00 00 00 00
	00		 mov	 DWORD PTR ?fn_get_local_entity_vec3d@@3PAY0BI@P6GXPAUENTITY@@W4VEC3D_TYPES@@PAUVEC3D@@@ZA[ecx+eax], OFFSET ?get_local_vec3d@@YGXPAUENTITY@@W4VEC3D_TYPES@@PAUVEC3D@@@Z ; get_local_vec3d

; 348  : 	fn_get_local_entity_vec3d_ptr			[ENTITY_TYPE_SESSION][VEC3D_TYPE_WEATHER_POSITION]								= get_local_vec3d_ptr;

  0008b	b8 60 00 00 00	 mov	 eax, 96			; 00000060H
  00090	6b c8 1b	 imul	 ecx, eax, 27
  00093	ba 04 00 00 00	 mov	 edx, 4
  00098	6b c2 0f	 imul	 eax, edx, 15
  0009b	c7 84 01 00 00
	00 00 00 00 00
	00		 mov	 DWORD PTR ?fn_get_local_entity_vec3d_ptr@@3PAY0BI@P6GPAUVEC3D@@PAUENTITY@@W4VEC3D_TYPES@@@ZA[ecx+eax], OFFSET ?get_local_vec3d_ptr@@YGPAUVEC3D@@PAUENTITY@@W4VEC3D_TYPES@@@Z ; get_local_vec3d_ptr

; 349  : 
; 350  : 	fn_set_local_entity_vec3d				[ENTITY_TYPE_SESSION][VEC3D_TYPE_WEATHER_VELOCITY]								= set_local_vec3d;

  000a6	b8 60 00 00 00	 mov	 eax, 96			; 00000060H
  000ab	6b c8 1b	 imul	 ecx, eax, 27
  000ae	ba 04 00 00 00	 mov	 edx, 4
  000b3	c1 e2 04	 shl	 edx, 4
  000b6	c7 84 11 00 00
	00 00 00 00 00
	00		 mov	 DWORD PTR ?fn_set_local_entity_vec3d@@3PAY0BI@P6GXPAUENTITY@@W4VEC3D_TYPES@@PAUVEC3D@@@ZA[ecx+edx], OFFSET ?set_local_vec3d@@YGXPAUENTITY@@W4VEC3D_TYPES@@PAUVEC3D@@@Z ; set_local_vec3d

; 351  : 	fn_set_client_server_entity_vec3d	[ENTITY_TYPE_SESSION][VEC3D_TYPE_WEATHER_VELOCITY][COMMS_MODEL_SERVER]	= set_server_vec3d;

  000c1	b8 c0 00 00 00	 mov	 eax, 192		; 000000c0H
  000c6	6b c8 1b	 imul	 ecx, eax, 27
  000c9	ba 08 00 00 00	 mov	 edx, 8
  000ce	c1 e2 04	 shl	 edx, 4
  000d1	8d 84 11 00 00
	00 00		 lea	 eax, DWORD PTR ?fn_set_client_server_entity_vec3d@@3PAY1BI@1P6GXPAUENTITY@@W4VEC3D_TYPES@@PAUVEC3D@@@ZA[ecx+edx]
  000d8	b9 04 00 00 00	 mov	 ecx, 4
  000dd	6b d1 00	 imul	 edx, ecx, 0
  000e0	c7 04 10 00 00
	00 00		 mov	 DWORD PTR [eax+edx], OFFSET ?set_server_vec3d@@YGXPAUENTITY@@W4VEC3D_TYPES@@PAUVEC3D@@@Z ; set_server_vec3d

; 352  : 	fn_set_client_server_entity_vec3d	[ENTITY_TYPE_SESSION][VEC3D_TYPE_WEATHER_VELOCITY][COMMS_MODEL_CLIENT]	= set_client_vec3d;

  000e7	b8 c0 00 00 00	 mov	 eax, 192		; 000000c0H
  000ec	6b c8 1b	 imul	 ecx, eax, 27
  000ef	ba 08 00 00 00	 mov	 edx, 8
  000f4	c1 e2 04	 shl	 edx, 4
  000f7	8d 84 11 00 00
	00 00		 lea	 eax, DWORD PTR ?fn_set_client_server_entity_vec3d@@3PAY1BI@1P6GXPAUENTITY@@W4VEC3D_TYPES@@PAUVEC3D@@@ZA[ecx+edx]
  000fe	b9 04 00 00 00	 mov	 ecx, 4
  00103	c1 e1 00	 shl	 ecx, 0
  00106	c7 04 08 00 00
	00 00		 mov	 DWORD PTR [eax+ecx], OFFSET ?set_client_vec3d@@YGXPAUENTITY@@W4VEC3D_TYPES@@PAUVEC3D@@@Z ; set_client_vec3d

; 353  : 	fn_get_local_entity_vec3d				[ENTITY_TYPE_SESSION][VEC3D_TYPE_WEATHER_VELOCITY]							 	= get_local_vec3d;

  0010d	b8 60 00 00 00	 mov	 eax, 96			; 00000060H
  00112	6b c8 1b	 imul	 ecx, eax, 27
  00115	ba 04 00 00 00	 mov	 edx, 4
  0011a	c1 e2 04	 shl	 edx, 4
  0011d	c7 84 11 00 00
	00 00 00 00 00
	00		 mov	 DWORD PTR ?fn_get_local_entity_vec3d@@3PAY0BI@P6GXPAUENTITY@@W4VEC3D_TYPES@@PAUVEC3D@@@ZA[ecx+edx], OFFSET ?get_local_vec3d@@YGXPAUENTITY@@W4VEC3D_TYPES@@PAUVEC3D@@@Z ; get_local_vec3d

; 354  : 	fn_get_local_entity_vec3d_ptr			[ENTITY_TYPE_SESSION][VEC3D_TYPE_WEATHER_VELOCITY]								= get_local_vec3d_ptr;

  00128	b8 60 00 00 00	 mov	 eax, 96			; 00000060H
  0012d	6b c8 1b	 imul	 ecx, eax, 27
  00130	ba 04 00 00 00	 mov	 edx, 4
  00135	c1 e2 04	 shl	 edx, 4
  00138	c7 84 11 00 00
	00 00 00 00 00
	00		 mov	 DWORD PTR ?fn_get_local_entity_vec3d_ptr@@3PAY0BI@P6GPAUVEC3D@@PAUENTITY@@W4VEC3D_TYPES@@@ZA[ecx+edx], OFFSET ?get_local_vec3d_ptr@@YGPAUVEC3D@@PAUENTITY@@W4VEC3D_TYPES@@@Z ; get_local_vec3d_ptr

; 355  : 
; 356  : 	fn_set_local_entity_vec3d				[ENTITY_TYPE_SESSION][VEC3D_TYPE_WIND_DIRECTION_VECTOR]									= set_local_vec3d;

  00143	b8 60 00 00 00	 mov	 eax, 96			; 00000060H
  00148	6b c8 1b	 imul	 ecx, eax, 27
  0014b	ba 04 00 00 00	 mov	 edx, 4
  00150	6b c2 11	 imul	 eax, edx, 17
  00153	c7 84 01 00 00
	00 00 00 00 00
	00		 mov	 DWORD PTR ?fn_set_local_entity_vec3d@@3PAY0BI@P6GXPAUENTITY@@W4VEC3D_TYPES@@PAUVEC3D@@@ZA[ecx+eax], OFFSET ?set_local_vec3d@@YGXPAUENTITY@@W4VEC3D_TYPES@@PAUVEC3D@@@Z ; set_local_vec3d

; 357  : 	fn_set_client_server_entity_vec3d	[ENTITY_TYPE_SESSION][VEC3D_TYPE_WIND_DIRECTION_VECTOR][COMMS_MODEL_SERVER]		= set_server_vec3d;

  0015e	b8 c0 00 00 00	 mov	 eax, 192		; 000000c0H
  00163	6b c8 1b	 imul	 ecx, eax, 27
  00166	ba 08 00 00 00	 mov	 edx, 8
  0016b	6b c2 11	 imul	 eax, edx, 17
  0016e	8d 8c 01 00 00
	00 00		 lea	 ecx, DWORD PTR ?fn_set_client_server_entity_vec3d@@3PAY1BI@1P6GXPAUENTITY@@W4VEC3D_TYPES@@PAUVEC3D@@@ZA[ecx+eax]
  00175	ba 04 00 00 00	 mov	 edx, 4
  0017a	6b c2 00	 imul	 eax, edx, 0
  0017d	c7 04 01 00 00
	00 00		 mov	 DWORD PTR [ecx+eax], OFFSET ?set_server_vec3d@@YGXPAUENTITY@@W4VEC3D_TYPES@@PAUVEC3D@@@Z ; set_server_vec3d

; 358  : 	fn_set_client_server_entity_vec3d	[ENTITY_TYPE_SESSION][VEC3D_TYPE_WIND_DIRECTION_VECTOR][COMMS_MODEL_CLIENT]		= set_client_vec3d;

  00184	b8 c0 00 00 00	 mov	 eax, 192		; 000000c0H
  00189	6b c8 1b	 imul	 ecx, eax, 27
  0018c	ba 08 00 00 00	 mov	 edx, 8
  00191	6b c2 11	 imul	 eax, edx, 17
  00194	8d 8c 01 00 00
	00 00		 lea	 ecx, DWORD PTR ?fn_set_client_server_entity_vec3d@@3PAY1BI@1P6GXPAUENTITY@@W4VEC3D_TYPES@@PAUVEC3D@@@ZA[ecx+eax]
  0019b	ba 04 00 00 00	 mov	 edx, 4
  001a0	c1 e2 00	 shl	 edx, 0
  001a3	c7 04 11 00 00
	00 00		 mov	 DWORD PTR [ecx+edx], OFFSET ?set_client_vec3d@@YGXPAUENTITY@@W4VEC3D_TYPES@@PAUVEC3D@@@Z ; set_client_vec3d

; 359  : 	fn_get_local_entity_vec3d				[ENTITY_TYPE_SESSION][VEC3D_TYPE_WIND_DIRECTION_VECTOR]							 		= get_local_vec3d;

  001aa	b8 60 00 00 00	 mov	 eax, 96			; 00000060H
  001af	6b c8 1b	 imul	 ecx, eax, 27
  001b2	ba 04 00 00 00	 mov	 edx, 4
  001b7	6b c2 11	 imul	 eax, edx, 17
  001ba	c7 84 01 00 00
	00 00 00 00 00
	00		 mov	 DWORD PTR ?fn_get_local_entity_vec3d@@3PAY0BI@P6GXPAUENTITY@@W4VEC3D_TYPES@@PAUVEC3D@@@ZA[ecx+eax], OFFSET ?get_local_vec3d@@YGXPAUENTITY@@W4VEC3D_TYPES@@PAUVEC3D@@@Z ; get_local_vec3d

; 360  : 	fn_get_local_entity_vec3d_ptr			[ENTITY_TYPE_SESSION][VEC3D_TYPE_WIND_DIRECTION_VECTOR]									= get_local_vec3d_ptr;

  001c5	b8 60 00 00 00	 mov	 eax, 96			; 00000060H
  001ca	6b c8 1b	 imul	 ecx, eax, 27
  001cd	ba 04 00 00 00	 mov	 edx, 4
  001d2	6b c2 11	 imul	 eax, edx, 17
  001d5	c7 84 01 00 00
	00 00 00 00 00
	00		 mov	 DWORD PTR ?fn_get_local_entity_vec3d_ptr@@3PAY0BI@P6GPAUVEC3D@@PAUENTITY@@W4VEC3D_TYPES@@@ZA[ecx+eax], OFFSET ?get_local_vec3d_ptr@@YGPAUVEC3D@@PAUENTITY@@W4VEC3D_TYPES@@@Z ; get_local_vec3d_ptr

; 361  : 
; 362  : 	fn_set_local_entity_vec3d				[ENTITY_TYPE_SESSION][VEC3D_TYPE_WIND_EFFECT_POSITION]							= set_local_vec3d;

  001e0	b8 60 00 00 00	 mov	 eax, 96			; 00000060H
  001e5	6b c8 1b	 imul	 ecx, eax, 27
  001e8	ba 04 00 00 00	 mov	 edx, 4
  001ed	6b c2 12	 imul	 eax, edx, 18
  001f0	c7 84 01 00 00
	00 00 00 00 00
	00		 mov	 DWORD PTR ?fn_set_local_entity_vec3d@@3PAY0BI@P6GXPAUENTITY@@W4VEC3D_TYPES@@PAUVEC3D@@@ZA[ecx+eax], OFFSET ?set_local_vec3d@@YGXPAUENTITY@@W4VEC3D_TYPES@@PAUVEC3D@@@Z ; set_local_vec3d

; 363  : 	fn_set_client_server_entity_vec3d	[ENTITY_TYPE_SESSION][VEC3D_TYPE_WIND_EFFECT_POSITION][COMMS_MODEL_SERVER]	= set_server_vec3d;

  001fb	b8 c0 00 00 00	 mov	 eax, 192		; 000000c0H
  00200	6b c8 1b	 imul	 ecx, eax, 27
  00203	ba 08 00 00 00	 mov	 edx, 8
  00208	6b c2 12	 imul	 eax, edx, 18
  0020b	8d 8c 01 00 00
	00 00		 lea	 ecx, DWORD PTR ?fn_set_client_server_entity_vec3d@@3PAY1BI@1P6GXPAUENTITY@@W4VEC3D_TYPES@@PAUVEC3D@@@ZA[ecx+eax]
  00212	ba 04 00 00 00	 mov	 edx, 4
  00217	6b c2 00	 imul	 eax, edx, 0
  0021a	c7 04 01 00 00
	00 00		 mov	 DWORD PTR [ecx+eax], OFFSET ?set_server_vec3d@@YGXPAUENTITY@@W4VEC3D_TYPES@@PAUVEC3D@@@Z ; set_server_vec3d

; 364  : 	fn_set_client_server_entity_vec3d	[ENTITY_TYPE_SESSION][VEC3D_TYPE_WIND_EFFECT_POSITION][COMMS_MODEL_CLIENT]	= set_client_vec3d;

  00221	b8 c0 00 00 00	 mov	 eax, 192		; 000000c0H
  00226	6b c8 1b	 imul	 ecx, eax, 27
  00229	ba 08 00 00 00	 mov	 edx, 8
  0022e	6b c2 12	 imul	 eax, edx, 18
  00231	8d 8c 01 00 00
	00 00		 lea	 ecx, DWORD PTR ?fn_set_client_server_entity_vec3d@@3PAY1BI@1P6GXPAUENTITY@@W4VEC3D_TYPES@@PAUVEC3D@@@ZA[ecx+eax]
  00238	ba 04 00 00 00	 mov	 edx, 4
  0023d	c1 e2 00	 shl	 edx, 0
  00240	c7 04 11 00 00
	00 00		 mov	 DWORD PTR [ecx+edx], OFFSET ?set_client_vec3d@@YGXPAUENTITY@@W4VEC3D_TYPES@@PAUVEC3D@@@Z ; set_client_vec3d

; 365  : 	fn_get_local_entity_vec3d				[ENTITY_TYPE_SESSION][VEC3D_TYPE_WIND_EFFECT_POSITION]						 	= get_local_vec3d;

  00247	b8 60 00 00 00	 mov	 eax, 96			; 00000060H
  0024c	6b c8 1b	 imul	 ecx, eax, 27
  0024f	ba 04 00 00 00	 mov	 edx, 4
  00254	6b c2 12	 imul	 eax, edx, 18
  00257	c7 84 01 00 00
	00 00 00 00 00
	00		 mov	 DWORD PTR ?fn_get_local_entity_vec3d@@3PAY0BI@P6GXPAUENTITY@@W4VEC3D_TYPES@@PAUVEC3D@@@ZA[ecx+eax], OFFSET ?get_local_vec3d@@YGXPAUENTITY@@W4VEC3D_TYPES@@PAUVEC3D@@@Z ; get_local_vec3d

; 366  : 	fn_get_local_entity_vec3d_ptr			[ENTITY_TYPE_SESSION][VEC3D_TYPE_WIND_EFFECT_POSITION]							= get_local_vec3d_ptr;

  00262	b8 60 00 00 00	 mov	 eax, 96			; 00000060H
  00267	6b c8 1b	 imul	 ecx, eax, 27
  0026a	ba 04 00 00 00	 mov	 edx, 4
  0026f	6b c2 12	 imul	 eax, edx, 18
  00272	c7 84 01 00 00
	00 00 00 00 00
	00		 mov	 DWORD PTR ?fn_get_local_entity_vec3d_ptr@@3PAY0BI@P6GPAUVEC3D@@PAUENTITY@@W4VEC3D_TYPES@@@ZA[ecx+eax], OFFSET ?get_local_vec3d_ptr@@YGPAUVEC3D@@PAUENTITY@@W4VEC3D_TYPES@@@Z ; get_local_vec3d_ptr

; 367  : 
; 368  : 	fn_set_local_entity_vec3d				[ENTITY_TYPE_SESSION][VEC3D_TYPE_WIND_EFFECT_VELOCITY]							= set_local_vec3d;

  0027d	b8 60 00 00 00	 mov	 eax, 96			; 00000060H
  00282	6b c8 1b	 imul	 ecx, eax, 27
  00285	ba 04 00 00 00	 mov	 edx, 4
  0028a	6b c2 13	 imul	 eax, edx, 19
  0028d	c7 84 01 00 00
	00 00 00 00 00
	00		 mov	 DWORD PTR ?fn_set_local_entity_vec3d@@3PAY0BI@P6GXPAUENTITY@@W4VEC3D_TYPES@@PAUVEC3D@@@ZA[ecx+eax], OFFSET ?set_local_vec3d@@YGXPAUENTITY@@W4VEC3D_TYPES@@PAUVEC3D@@@Z ; set_local_vec3d

; 369  : 	fn_set_client_server_entity_vec3d	[ENTITY_TYPE_SESSION][VEC3D_TYPE_WIND_EFFECT_VELOCITY][COMMS_MODEL_SERVER]	= set_server_vec3d;

  00298	b8 c0 00 00 00	 mov	 eax, 192		; 000000c0H
  0029d	6b c8 1b	 imul	 ecx, eax, 27
  002a0	ba 08 00 00 00	 mov	 edx, 8
  002a5	6b c2 13	 imul	 eax, edx, 19
  002a8	8d 8c 01 00 00
	00 00		 lea	 ecx, DWORD PTR ?fn_set_client_server_entity_vec3d@@3PAY1BI@1P6GXPAUENTITY@@W4VEC3D_TYPES@@PAUVEC3D@@@ZA[ecx+eax]
  002af	ba 04 00 00 00	 mov	 edx, 4
  002b4	6b c2 00	 imul	 eax, edx, 0
  002b7	c7 04 01 00 00
	00 00		 mov	 DWORD PTR [ecx+eax], OFFSET ?set_server_vec3d@@YGXPAUENTITY@@W4VEC3D_TYPES@@PAUVEC3D@@@Z ; set_server_vec3d

; 370  : 	fn_set_client_server_entity_vec3d	[ENTITY_TYPE_SESSION][VEC3D_TYPE_WIND_EFFECT_VELOCITY][COMMS_MODEL_CLIENT]	= set_client_vec3d;

  002be	b8 c0 00 00 00	 mov	 eax, 192		; 000000c0H
  002c3	6b c8 1b	 imul	 ecx, eax, 27
  002c6	ba 08 00 00 00	 mov	 edx, 8
  002cb	6b c2 13	 imul	 eax, edx, 19
  002ce	8d 8c 01 00 00
	00 00		 lea	 ecx, DWORD PTR ?fn_set_client_server_entity_vec3d@@3PAY1BI@1P6GXPAUENTITY@@W4VEC3D_TYPES@@PAUVEC3D@@@ZA[ecx+eax]
  002d5	ba 04 00 00 00	 mov	 edx, 4
  002da	c1 e2 00	 shl	 edx, 0
  002dd	c7 04 11 00 00
	00 00		 mov	 DWORD PTR [ecx+edx], OFFSET ?set_client_vec3d@@YGXPAUENTITY@@W4VEC3D_TYPES@@PAUVEC3D@@@Z ; set_client_vec3d

; 371  : 	fn_get_local_entity_vec3d				[ENTITY_TYPE_SESSION][VEC3D_TYPE_WIND_EFFECT_VELOCITY]						 	= get_local_vec3d;

  002e4	b8 60 00 00 00	 mov	 eax, 96			; 00000060H
  002e9	6b c8 1b	 imul	 ecx, eax, 27
  002ec	ba 04 00 00 00	 mov	 edx, 4
  002f1	6b c2 13	 imul	 eax, edx, 19
  002f4	c7 84 01 00 00
	00 00 00 00 00
	00		 mov	 DWORD PTR ?fn_get_local_entity_vec3d@@3PAY0BI@P6GXPAUENTITY@@W4VEC3D_TYPES@@PAUVEC3D@@@ZA[ecx+eax], OFFSET ?get_local_vec3d@@YGXPAUENTITY@@W4VEC3D_TYPES@@PAUVEC3D@@@Z ; get_local_vec3d

; 372  : 	fn_get_local_entity_vec3d_ptr			[ENTITY_TYPE_SESSION][VEC3D_TYPE_WIND_EFFECT_VELOCITY]							= get_local_vec3d_ptr;

  002ff	b8 60 00 00 00	 mov	 eax, 96			; 00000060H
  00304	6b c8 1b	 imul	 ecx, eax, 27
  00307	ba 04 00 00 00	 mov	 edx, 4
  0030c	6b c2 13	 imul	 eax, edx, 19
  0030f	c7 84 01 00 00
	00 00 00 00 00
	00		 mov	 DWORD PTR ?fn_get_local_entity_vec3d_ptr@@3PAY0BI@P6GPAUVEC3D@@PAUENTITY@@W4VEC3D_TYPES@@@ZA[ecx+eax], OFFSET ?get_local_vec3d_ptr@@YGPAUVEC3D@@PAUENTITY@@W4VEC3D_TYPES@@@Z ; get_local_vec3d_ptr

; 373  : }

  0031a	5f		 pop	 edi
  0031b	5e		 pop	 esi
  0031c	5b		 pop	 ebx
  0031d	8b e5		 mov	 esp, ebp
  0031f	5d		 pop	 ebp
  00320	c3		 ret	 0
?overload_session_vec3d_functions@@YGXXZ ENDP		; overload_session_vec3d_functions
_TEXT	ENDS
END
