; Listing generated by Microsoft (R) Optimizing Compiler Version 19.16.27045.0 

	TITLE	C:\Users\nhv90\Projects\eech\aphavoc\source\entity\fixed\site\st_msgs.c
	.686P
	.XMM
	include listing.inc
	.model	flat

INCLUDELIB MSVCRTD
INCLUDELIB OLDNAMES

PUBLIC	?overload_site_message_responses@@YGXXZ		; overload_site_message_responses
PUBLIC	?__LINE__Var@?0??response_to_collision@@YGHW4ENTITY_MESSAGES@@PAUENTITY@@1PAD@Z@4JA ; `response_to_collision'::`1'::__LINE__Var
PUBLIC	??_C@_0EI@KIJDKDIJ@c?3?2users?2nhv90?2projects?2eech?2ap@ ; `string'
PUBLIC	??_C@_0CJ@DMBLBJBK@get_comms_model?5?$CI?$CJ?5?$DN?$DN?5COMMS_MOD@ ; `string'
PUBLIC	__real@3fe0000000000000
EXTRN	?process_assert@@YGXPBD0H@Z:PROC		; process_assert
EXTRN	?transmit_entity_comms_message@@YAXW4ENTITY_COMMS_MESSAGES@@PAUENTITY@@ZZ:PROC ; transmit_entity_comms_message
EXTRN	?overload_fixed_message_responses@@YGXW4ENTITY_TYPES@@@Z:PROC ; overload_fixed_message_responses
EXTRN	?damage_client_server_entity@@YGHPAUENTITY@@0M@Z:PROC ; damage_client_server_entity
EXTRN	?notify_keysite_structure_under_attack@@YGXPAUENTITY@@0@Z:PROC ; notify_keysite_structure_under_attack
EXTRN	?get_current_player_log@@YGPAUPLAYER_LOG_TYPE@@XZ:PROC ; get_current_player_log
EXTRN	?inc_player_log_kills@@YGXHPAUPLAYER_LOG_TYPE@@PAUENTITY@@@Z:PROC ; inc_player_log_kills
EXTRN	?null_entity_pointer_message@@3PBDB:DWORD	; null_entity_pointer_message
EXTRN	?global_options@@3UGLOBAL_OPTIONS_DATA@@A:BYTE	; global_options
EXTRN	?system_comms_model@@3W4COMMS_MODEL_TYPES@@A:DWORD ; system_comms_model
EXTRN	?message_responses@@3PAY0GB@P6GHW4ENTITY_MESSAGES@@PAUENTITY@@1PAD@ZA:BYTE ; message_responses
EXTRN	?overload_invalid_list_type_message@@3PBDB:DWORD ; overload_invalid_list_type_message
EXTRN	?fn_get_local_entity_parent@@3PAY0CN@P6GPAUENTITY@@PAU1@W4LIST_TYPES@@@ZA:BYTE ; fn_get_local_entity_parent
EXTRN	?fn_kill_client_server_entity@@3PAY01P6GXPAUENTITY@@@ZA:BYTE ; fn_kill_client_server_entity
EXTRN	?overload_invalid_float_type_message@@3PBDB:DWORD ; overload_invalid_float_type_message
EXTRN	?fn_get_local_entity_float_value@@3PAY0KP@P6GMPAUENTITY@@W4FLOAT_TYPES@@@ZA:BYTE ; fn_get_local_entity_float_value
EXTRN	?overload_invalid_int_type_message@@3PBDB:DWORD	; overload_invalid_int_type_message
EXTRN	?fn_get_local_entity_int_value@@3PAY0BBH@P6GHPAUENTITY@@W4INT_TYPES@@@ZA:BYTE ; fn_get_local_entity_int_value
EXTRN	__fltused:DWORD
;	COMDAT __real@3fe0000000000000
CONST	SEGMENT
__real@3fe0000000000000 DQ 03fe0000000000000r	; 0.5
CONST	ENDS
;	COMDAT ??_C@_0CJ@DMBLBJBK@get_comms_model?5?$CI?$CJ?5?$DN?$DN?5COMMS_MOD@
CONST	SEGMENT
??_C@_0CJ@DMBLBJBK@get_comms_model?5?$CI?$CJ?5?$DN?$DN?5COMMS_MOD@ DB 'ge'
	DB	't_comms_model () == COMMS_MODEL_SERVER', 00H ; `string'
CONST	ENDS
;	COMDAT ??_C@_0EI@KIJDKDIJ@c?3?2users?2nhv90?2projects?2eech?2ap@
CONST	SEGMENT
??_C@_0EI@KIJDKDIJ@c?3?2users?2nhv90?2projects?2eech?2ap@ DB 'c:\users\nh'
	DB	'v90\projects\eech\aphavoc\source\entity\fixed\site\st_msgs.c', 00H ; `string'
CONST	ENDS
;	COMDAT ?__LINE__Var@?0??response_to_collision@@YGHW4ENTITY_MESSAGES@@PAUENTITY@@1PAD@Z@4JA
_DATA	SEGMENT
?__LINE__Var@?0??response_to_collision@@YGHW4ENTITY_MESSAGES@@PAUENTITY@@1PAD@Z@4JA DD 050H ; `response_to_collision'::`1'::__LINE__Var
_DATA	ENDS
; Function compile flags: /Odtp /ZI
; File c:\users\nhv90\projects\eech\aphavoc\source\entity\fixed\site\st_msgs.c
;	COMDAT ?response_to_collision@@YGHW4ENTITY_MESSAGES@@PAUENTITY@@1PAD@Z
_TEXT	SEGMENT
tv284 = -92						; size = 8
tv215 = -84						; size = 4
tv192 = -84						; size = 4
tv172 = -84						; size = 4
tv152 = -84						; size = 4
tv94 = -84						; size = 4
tv231 = -80						; size = 4
tv208 = -80						; size = 4
tv185 = -80						; size = 4
tv165 = -80						; size = 4
tv144 = -80						; size = 4
tv86 = -80						; size = 4
tv78 = -80						; size = 4
_damage_modifier$ = -12					; size = 4
_total_damage_level$ = -8				; size = 4
_aggressor$ = -4					; size = 4
_message$ = 8						; size = 4
_receiver$ = 12						; size = 4
_sender$ = 16						; size = 4
_pargs$ = 20						; size = 4
?response_to_collision@@YGHW4ENTITY_MESSAGES@@PAUENTITY@@1PAD@Z PROC ; response_to_collision, COMDAT

; 80   : {

  00000	55		 push	 ebp
  00001	8b ec		 mov	 ebp, esp
  00003	83 ec 5c	 sub	 esp, 92			; 0000005cH
  00006	53		 push	 ebx
  00007	56		 push	 esi
  00008	57		 push	 edi

; 81   : 	entity
; 82   : 		*aggressor;
; 83   : 
; 84   : 	int
; 85   : 		total_damage_level;
; 86   : 
; 87   : 	float
; 88   : 		damage_modifier;
; 89   : 
; 90   : 	#if DEBUG_MODULE
; 91   : 
; 92   : 	debug_log_entity_message (message, receiver, sender, pargs);
; 93   : 
; 94   : 	#endif
; 95   : 
; 96   : 	damage_modifier = va_arg (pargs, double);

  00009	8b 45 14	 mov	 eax, DWORD PTR _pargs$[ebp]
  0000c	83 c0 08	 add	 eax, 8
  0000f	89 45 14	 mov	 DWORD PTR _pargs$[ebp], eax
  00012	8b 4d 14	 mov	 ecx, DWORD PTR _pargs$[ebp]
  00015	f2 0f 5a 41 f8	 cvtsd2ss xmm0, QWORD PTR [ecx-8]
  0001a	f3 0f 11 45 f4	 movss	 DWORD PTR _damage_modifier$[ebp], xmm0

; 97   : 
; 98   : 	ASSERT (get_comms_model () == COMMS_MODEL_SERVER);

  0001f	83 3d 00 00 00
	00 00		 cmp	 DWORD PTR ?system_comms_model@@3W4COMMS_MODEL_TYPES@@A, 0 ; system_comms_model
  00026	74 18		 je	 SHORT $LN2@response_t
  00028	a1 00 00 00 00	 mov	 eax, DWORD PTR ?__LINE__Var@?0??response_to_collision@@YGHW4ENTITY_MESSAGES@@PAUENTITY@@1PAD@Z@4JA
  0002d	83 c0 12	 add	 eax, 18			; 00000012H
  00030	50		 push	 eax
  00031	68 00 00 00 00	 push	 OFFSET ??_C@_0EI@KIJDKDIJ@c?3?2users?2nhv90?2projects?2eech?2ap@
  00036	68 00 00 00 00	 push	 OFFSET ??_C@_0CJ@DMBLBJBK@get_comms_model?5?$CI?$CJ?5?$DN?$DN?5COMMS_MOD@
  0003b	e8 00 00 00 00	 call	 ?process_assert@@YGXPBD0H@Z ; process_assert
$LN2@response_t:

; 99   : 
; 100  : 	if (sender)

  00040	83 7d 10 00	 cmp	 DWORD PTR _sender$[ebp], 0
  00044	0f 84 d1 00 00
	00		 je	 $LN3@response_t

; 101  : 	{
; 102  : 		if (get_local_entity_type (sender) == ENTITY_TYPE_WEAPON)

  0004a	83 7d 10 00	 cmp	 DWORD PTR _sender$[ebp], 0
  0004e	74 0a		 je	 SHORT $LN15@response_t
  00050	8b 45 10	 mov	 eax, DWORD PTR _sender$[ebp]
  00053	8b 08		 mov	 ecx, DWORD PTR [eax]
  00055	89 4d b0	 mov	 DWORD PTR tv78[ebp], ecx
  00058	eb 1a		 jmp	 SHORT $LN16@response_t
$LN15@response_t:
  0005a	6a 66		 push	 102			; 00000066H
  0005c	68 00 00 00 00	 push	 OFFSET ??_C@_0EI@KIJDKDIJ@c?3?2users?2nhv90?2projects?2eech?2ap@
  00061	8b 15 00 00 00
	00		 mov	 edx, DWORD PTR ?null_entity_pointer_message@@3PBDB ; null_entity_pointer_message
  00067	52		 push	 edx
  00068	e8 00 00 00 00	 call	 ?process_assert@@YGXPBD0H@Z ; process_assert
  0006d	c7 45 b0 00 00
	00 00		 mov	 DWORD PTR tv78[ebp], 0
$LN16@response_t:
  00074	83 7d b0 25	 cmp	 DWORD PTR tv78[ebp], 37	; 00000025H
  00078	0f 85 82 00 00
	00		 jne	 $LN5@response_t

; 103  : 		{
; 104  : 			aggressor = get_local_entity_parent (sender, LIST_TYPE_LAUNCHED_WEAPON);

  0007e	83 7d 10 00	 cmp	 DWORD PTR _sender$[ebp], 0
  00082	74 0a		 je	 SHORT $LN17@response_t
  00084	8b 45 10	 mov	 eax, DWORD PTR _sender$[ebp]
  00087	8b 08		 mov	 ecx, DWORD PTR [eax]
  00089	89 4d b0	 mov	 DWORD PTR tv86[ebp], ecx
  0008c	eb 21		 jmp	 SHORT $LN18@response_t
$LN17@response_t:
  0008e	8b 15 00 00 00
	00		 mov	 edx, DWORD PTR ?__LINE__Var@?0??response_to_collision@@YGHW4ENTITY_MESSAGES@@PAUENTITY@@1PAD@Z@4JA
  00094	83 c2 18	 add	 edx, 24			; 00000018H
  00097	52		 push	 edx
  00098	68 00 00 00 00	 push	 OFFSET ??_C@_0EI@KIJDKDIJ@c?3?2users?2nhv90?2projects?2eech?2ap@
  0009d	a1 00 00 00 00	 mov	 eax, DWORD PTR ?null_entity_pointer_message@@3PBDB ; null_entity_pointer_message
  000a2	50		 push	 eax
  000a3	e8 00 00 00 00	 call	 ?process_assert@@YGXPBD0H@Z ; process_assert
  000a8	c7 45 b0 00 00
	00 00		 mov	 DWORD PTR tv86[ebp], 0
$LN18@response_t:
  000af	b9 01 00 00 00	 mov	 ecx, 1
  000b4	85 c9		 test	 ecx, ecx
  000b6	74 09		 je	 SHORT $LN19@response_t
  000b8	c7 45 ac 18 00
	00 00		 mov	 DWORD PTR tv94[ebp], 24	; 00000018H
  000bf	eb 21		 jmp	 SHORT $LN20@response_t
$LN19@response_t:
  000c1	8b 15 00 00 00
	00		 mov	 edx, DWORD PTR ?__LINE__Var@?0??response_to_collision@@YGHW4ENTITY_MESSAGES@@PAUENTITY@@1PAD@Z@4JA
  000c7	83 c2 18	 add	 edx, 24			; 00000018H
  000ca	52		 push	 edx
  000cb	68 00 00 00 00	 push	 OFFSET ??_C@_0EI@KIJDKDIJ@c?3?2users?2nhv90?2projects?2eech?2ap@
  000d0	a1 00 00 00 00	 mov	 eax, DWORD PTR ?overload_invalid_list_type_message@@3PBDB ; overload_invalid_list_type_message
  000d5	50		 push	 eax
  000d6	e8 00 00 00 00	 call	 ?process_assert@@YGXPBD0H@Z ; process_assert
  000db	c7 45 ac 00 00
	00 00		 mov	 DWORD PTR tv94[ebp], 0
$LN20@response_t:
  000e2	6a 18		 push	 24			; 00000018H
  000e4	8b 4d 10	 mov	 ecx, DWORD PTR _sender$[ebp]
  000e7	51		 push	 ecx
  000e8	69 55 b0 b4 00
	00 00		 imul	 edx, DWORD PTR tv86[ebp], 180
  000ef	8b 45 ac	 mov	 eax, DWORD PTR tv94[ebp]
  000f2	8b 8c 82 00 00
	00 00		 mov	 ecx, DWORD PTR ?fn_get_local_entity_parent@@3PAY0CN@P6GPAUENTITY@@PAU1@W4LIST_TYPES@@@ZA[edx+eax*4]
  000f9	ff d1		 call	 ecx
  000fb	89 45 fc	 mov	 DWORD PTR _aggressor$[ebp], eax

; 105  : 		}
; 106  : 		else

  000fe	eb 06		 jmp	 SHORT $LN6@response_t
$LN5@response_t:

; 107  : 		{
; 108  : 			aggressor = sender;

  00100	8b 45 10	 mov	 eax, DWORD PTR _sender$[ebp]
  00103	89 45 fc	 mov	 DWORD PTR _aggressor$[ebp], eax
$LN6@response_t:

; 109  : 		}
; 110  : 
; 111  : 		if (aggressor)

  00106	83 7d fc 00	 cmp	 DWORD PTR _aggressor$[ebp], 0
  0010a	74 0d		 je	 SHORT $LN7@response_t

; 112  : 		{
; 113  : 			notify_keysite_structure_under_attack (receiver, aggressor);

  0010c	8b 45 fc	 mov	 eax, DWORD PTR _aggressor$[ebp]
  0010f	50		 push	 eax
  00110	8b 4d 0c	 mov	 ecx, DWORD PTR _receiver$[ebp]
  00113	51		 push	 ecx
  00114	e8 00 00 00 00	 call	 ?notify_keysite_structure_under_attack@@YGXPAUENTITY@@0@Z ; notify_keysite_structure_under_attack
$LN7@response_t:

; 114  : 		}
; 115  : 	}
; 116  : 	else

  00119	eb 07		 jmp	 SHORT $LN4@response_t
$LN3@response_t:

; 117  : 	{
; 118  : 		aggressor = NULL;

  0011b	c7 45 fc 00 00
	00 00		 mov	 DWORD PTR _aggressor$[ebp], 0
$LN4@response_t:

; 119  : 	}
; 120  : 
; 121  : 	damage_client_server_entity (receiver, sender, damage_modifier);

  00122	51		 push	 ecx
  00123	f3 0f 10 45 f4	 movss	 xmm0, DWORD PTR _damage_modifier$[ebp]
  00128	f3 0f 11 04 24	 movss	 DWORD PTR [esp], xmm0
  0012d	8b 45 10	 mov	 eax, DWORD PTR _sender$[ebp]
  00130	50		 push	 eax
  00131	8b 4d 0c	 mov	 ecx, DWORD PTR _receiver$[ebp]
  00134	51		 push	 ecx
  00135	e8 00 00 00 00	 call	 ?damage_client_server_entity@@YGHPAUENTITY@@0M@Z ; damage_client_server_entity

; 122  : 
; 123  : 	total_damage_level = get_local_entity_int_value (receiver, INT_TYPE_DAMAGE_LEVEL);

  0013a	83 7d 0c 00	 cmp	 DWORD PTR _receiver$[ebp], 0
  0013e	74 0a		 je	 SHORT $LN21@response_t
  00140	8b 45 0c	 mov	 eax, DWORD PTR _receiver$[ebp]
  00143	8b 08		 mov	 ecx, DWORD PTR [eax]
  00145	89 4d b0	 mov	 DWORD PTR tv144[ebp], ecx
  00148	eb 21		 jmp	 SHORT $LN22@response_t
$LN21@response_t:
  0014a	8b 15 00 00 00
	00		 mov	 edx, DWORD PTR ?__LINE__Var@?0??response_to_collision@@YGHW4ENTITY_MESSAGES@@PAUENTITY@@1PAD@Z@4JA
  00150	83 c2 2b	 add	 edx, 43			; 0000002bH
  00153	52		 push	 edx
  00154	68 00 00 00 00	 push	 OFFSET ??_C@_0EI@KIJDKDIJ@c?3?2users?2nhv90?2projects?2eech?2ap@
  00159	a1 00 00 00 00	 mov	 eax, DWORD PTR ?null_entity_pointer_message@@3PBDB ; null_entity_pointer_message
  0015e	50		 push	 eax
  0015f	e8 00 00 00 00	 call	 ?process_assert@@YGXPBD0H@Z ; process_assert
  00164	c7 45 b0 00 00
	00 00		 mov	 DWORD PTR tv144[ebp], 0
$LN22@response_t:
  0016b	b9 01 00 00 00	 mov	 ecx, 1
  00170	85 c9		 test	 ecx, ecx
  00172	74 09		 je	 SHORT $LN23@response_t
  00174	c7 45 ac 25 00
	00 00		 mov	 DWORD PTR tv152[ebp], 37 ; 00000025H
  0017b	eb 21		 jmp	 SHORT $LN24@response_t
$LN23@response_t:
  0017d	8b 15 00 00 00
	00		 mov	 edx, DWORD PTR ?__LINE__Var@?0??response_to_collision@@YGHW4ENTITY_MESSAGES@@PAUENTITY@@1PAD@Z@4JA
  00183	83 c2 2b	 add	 edx, 43			; 0000002bH
  00186	52		 push	 edx
  00187	68 00 00 00 00	 push	 OFFSET ??_C@_0EI@KIJDKDIJ@c?3?2users?2nhv90?2projects?2eech?2ap@
  0018c	a1 00 00 00 00	 mov	 eax, DWORD PTR ?overload_invalid_int_type_message@@3PBDB ; overload_invalid_int_type_message
  00191	50		 push	 eax
  00192	e8 00 00 00 00	 call	 ?process_assert@@YGXPBD0H@Z ; process_assert
  00197	c7 45 ac 00 00
	00 00		 mov	 DWORD PTR tv152[ebp], 0
$LN24@response_t:
  0019e	6a 25		 push	 37			; 00000025H
  001a0	8b 4d 0c	 mov	 ecx, DWORD PTR _receiver$[ebp]
  001a3	51		 push	 ecx
  001a4	69 55 b0 5c 04
	00 00		 imul	 edx, DWORD PTR tv144[ebp], 1116
  001ab	8b 45 ac	 mov	 eax, DWORD PTR tv152[ebp]
  001ae	8b 8c 82 00 00
	00 00		 mov	 ecx, DWORD PTR ?fn_get_local_entity_int_value@@3PAY0BBH@P6GHPAUENTITY@@W4INT_TYPES@@@ZA[edx+eax*4]
  001b5	ff d1		 call	 ecx
  001b7	89 45 f8	 mov	 DWORD PTR _total_damage_level$[ebp], eax

; 124  : 
; 125  : 	if (total_damage_level <= 0)

  001ba	83 7d f8 00	 cmp	 DWORD PTR _total_damage_level$[ebp], 0
  001be	0f 8f 06 02 00
	00		 jg	 $LN8@response_t

; 126  : 	{
; 127  : 		if (aggressor)

  001c4	83 7d fc 00	 cmp	 DWORD PTR _aggressor$[ebp], 0
  001c8	0f 84 b2 01 00
	00		 je	 $LN13@response_t

; 128  : 		{
; 129  : 			if (get_local_entity_float_value (receiver, FLOAT_TYPE_FIXED_OBJECT_IMPORTANCE) >= 0.5)

  001ce	83 7d 0c 00	 cmp	 DWORD PTR _receiver$[ebp], 0
  001d2	74 0a		 je	 SHORT $LN25@response_t
  001d4	8b 45 0c	 mov	 eax, DWORD PTR _receiver$[ebp]
  001d7	8b 08		 mov	 ecx, DWORD PTR [eax]
  001d9	89 4d b0	 mov	 DWORD PTR tv165[ebp], ecx
  001dc	eb 1d		 jmp	 SHORT $LN26@response_t
$LN25@response_t:
  001de	68 81 00 00 00	 push	 129			; 00000081H
  001e3	68 00 00 00 00	 push	 OFFSET ??_C@_0EI@KIJDKDIJ@c?3?2users?2nhv90?2projects?2eech?2ap@
  001e8	8b 15 00 00 00
	00		 mov	 edx, DWORD PTR ?null_entity_pointer_message@@3PBDB ; null_entity_pointer_message
  001ee	52		 push	 edx
  001ef	e8 00 00 00 00	 call	 ?process_assert@@YGXPBD0H@Z ; process_assert
  001f4	c7 45 b0 00 00
	00 00		 mov	 DWORD PTR tv165[ebp], 0
$LN26@response_t:
  001fb	b8 01 00 00 00	 mov	 eax, 1
  00200	85 c0		 test	 eax, eax
  00202	74 09		 je	 SHORT $LN27@response_t
  00204	c7 45 ac 27 00
	00 00		 mov	 DWORD PTR tv172[ebp], 39 ; 00000027H
  0020b	eb 1d		 jmp	 SHORT $LN28@response_t
$LN27@response_t:
  0020d	68 81 00 00 00	 push	 129			; 00000081H
  00212	68 00 00 00 00	 push	 OFFSET ??_C@_0EI@KIJDKDIJ@c?3?2users?2nhv90?2projects?2eech?2ap@
  00217	8b 0d 00 00 00
	00		 mov	 ecx, DWORD PTR ?overload_invalid_float_type_message@@3PBDB ; overload_invalid_float_type_message
  0021d	51		 push	 ecx
  0021e	e8 00 00 00 00	 call	 ?process_assert@@YGXPBD0H@Z ; process_assert
  00223	c7 45 ac 00 00
	00 00		 mov	 DWORD PTR tv172[ebp], 0
$LN28@response_t:
  0022a	6a 27		 push	 39			; 00000027H
  0022c	8b 55 0c	 mov	 edx, DWORD PTR _receiver$[ebp]
  0022f	52		 push	 edx
  00230	69 45 b0 bc 02
	00 00		 imul	 eax, DWORD PTR tv165[ebp], 700
  00237	8b 4d ac	 mov	 ecx, DWORD PTR tv172[ebp]
  0023a	8b 94 88 00 00
	00 00		 mov	 edx, DWORD PTR ?fn_get_local_entity_float_value@@3PAY0KP@P6GMPAUENTITY@@W4FLOAT_TYPES@@@ZA[eax+ecx*4]
  00241	ff d2		 call	 edx
  00243	dd 5d a4	 fstp	 QWORD PTR tv284[ebp]
  00246	f2 0f 10 45 a4	 movsd	 xmm0, QWORD PTR tv284[ebp]
  0024b	66 0f 2f 05 00
	00 00 00	 comisd	 xmm0, QWORD PTR __real@3fe0000000000000
  00253	0f 82 27 01 00
	00		 jb	 $LN13@response_t

; 130  : 			{
; 131  : 				if (get_local_entity_int_value (aggressor, INT_TYPE_PLAYER) == ENTITY_PLAYER_LOCAL)

  00259	83 7d fc 00	 cmp	 DWORD PTR _aggressor$[ebp], 0
  0025d	74 0a		 je	 SHORT $LN29@response_t
  0025f	8b 45 fc	 mov	 eax, DWORD PTR _aggressor$[ebp]
  00262	8b 08		 mov	 ecx, DWORD PTR [eax]
  00264	89 4d b0	 mov	 DWORD PTR tv185[ebp], ecx
  00267	eb 1d		 jmp	 SHORT $LN30@response_t
$LN29@response_t:
  00269	68 83 00 00 00	 push	 131			; 00000083H
  0026e	68 00 00 00 00	 push	 OFFSET ??_C@_0EI@KIJDKDIJ@c?3?2users?2nhv90?2projects?2eech?2ap@
  00273	8b 15 00 00 00
	00		 mov	 edx, DWORD PTR ?null_entity_pointer_message@@3PBDB ; null_entity_pointer_message
  00279	52		 push	 edx
  0027a	e8 00 00 00 00	 call	 ?process_assert@@YGXPBD0H@Z ; process_assert
  0027f	c7 45 b0 00 00
	00 00		 mov	 DWORD PTR tv185[ebp], 0
$LN30@response_t:
  00286	b8 01 00 00 00	 mov	 eax, 1
  0028b	85 c0		 test	 eax, eax
  0028d	74 09		 je	 SHORT $LN31@response_t
  0028f	c7 45 ac 9c 00
	00 00		 mov	 DWORD PTR tv192[ebp], 156 ; 0000009cH
  00296	eb 1d		 jmp	 SHORT $LN32@response_t
$LN31@response_t:
  00298	68 83 00 00 00	 push	 131			; 00000083H
  0029d	68 00 00 00 00	 push	 OFFSET ??_C@_0EI@KIJDKDIJ@c?3?2users?2nhv90?2projects?2eech?2ap@
  002a2	8b 0d 00 00 00
	00		 mov	 ecx, DWORD PTR ?overload_invalid_int_type_message@@3PBDB ; overload_invalid_int_type_message
  002a8	51		 push	 ecx
  002a9	e8 00 00 00 00	 call	 ?process_assert@@YGXPBD0H@Z ; process_assert
  002ae	c7 45 ac 00 00
	00 00		 mov	 DWORD PTR tv192[ebp], 0
$LN32@response_t:
  002b5	68 9c 00 00 00	 push	 156			; 0000009cH
  002ba	8b 55 fc	 mov	 edx, DWORD PTR _aggressor$[ebp]
  002bd	52		 push	 edx
  002be	69 45 b0 5c 04
	00 00		 imul	 eax, DWORD PTR tv185[ebp], 1116
  002c5	8b 4d ac	 mov	 ecx, DWORD PTR tv192[ebp]
  002c8	8b 94 88 00 00
	00 00		 mov	 edx, DWORD PTR ?fn_get_local_entity_int_value@@3PAY0BBH@P6GHPAUENTITY@@W4INT_TYPES@@@ZA[eax+ecx*4]
  002cf	ff d2		 call	 edx
  002d1	83 f8 01	 cmp	 eax, 1
  002d4	75 1b		 jne	 SHORT $LN11@response_t

; 132  : 				{
; 133  : 					inc_player_log_kills (get_global_gunship_side (), get_current_player_log (), receiver);

  002d6	8b 45 0c	 mov	 eax, DWORD PTR _receiver$[ebp]
  002d9	50		 push	 eax
  002da	e8 00 00 00 00	 call	 ?get_current_player_log@@YGPAUPLAYER_LOG_TYPE@@XZ ; get_current_player_log
  002df	50		 push	 eax
  002e0	8b 0d 08 00 00
	00		 mov	 ecx, DWORD PTR ?global_options@@3UGLOBAL_OPTIONS_DATA@@A+8
  002e6	51		 push	 ecx
  002e7	e8 00 00 00 00	 call	 ?inc_player_log_kills@@YGXHPAUPLAYER_LOG_TYPE@@PAUENTITY@@@Z ; inc_player_log_kills
  002ec	e9 8f 00 00 00	 jmp	 $LN13@response_t
$LN11@response_t:

; 134  : 				}
; 135  : 				else if (get_local_entity_int_value (aggressor, INT_TYPE_PLAYER) == ENTITY_PLAYER_REMOTE)

  002f1	83 7d fc 00	 cmp	 DWORD PTR _aggressor$[ebp], 0
  002f5	74 0a		 je	 SHORT $LN33@response_t
  002f7	8b 45 fc	 mov	 eax, DWORD PTR _aggressor$[ebp]
  002fa	8b 08		 mov	 ecx, DWORD PTR [eax]
  002fc	89 4d b0	 mov	 DWORD PTR tv208[ebp], ecx
  002ff	eb 1d		 jmp	 SHORT $LN34@response_t
$LN33@response_t:
  00301	68 87 00 00 00	 push	 135			; 00000087H
  00306	68 00 00 00 00	 push	 OFFSET ??_C@_0EI@KIJDKDIJ@c?3?2users?2nhv90?2projects?2eech?2ap@
  0030b	8b 15 00 00 00
	00		 mov	 edx, DWORD PTR ?null_entity_pointer_message@@3PBDB ; null_entity_pointer_message
  00311	52		 push	 edx
  00312	e8 00 00 00 00	 call	 ?process_assert@@YGXPBD0H@Z ; process_assert
  00317	c7 45 b0 00 00
	00 00		 mov	 DWORD PTR tv208[ebp], 0
$LN34@response_t:
  0031e	b8 01 00 00 00	 mov	 eax, 1
  00323	85 c0		 test	 eax, eax
  00325	74 09		 je	 SHORT $LN35@response_t
  00327	c7 45 ac 9c 00
	00 00		 mov	 DWORD PTR tv215[ebp], 156 ; 0000009cH
  0032e	eb 1d		 jmp	 SHORT $LN36@response_t
$LN35@response_t:
  00330	68 87 00 00 00	 push	 135			; 00000087H
  00335	68 00 00 00 00	 push	 OFFSET ??_C@_0EI@KIJDKDIJ@c?3?2users?2nhv90?2projects?2eech?2ap@
  0033a	8b 0d 00 00 00
	00		 mov	 ecx, DWORD PTR ?overload_invalid_int_type_message@@3PBDB ; overload_invalid_int_type_message
  00340	51		 push	 ecx
  00341	e8 00 00 00 00	 call	 ?process_assert@@YGXPBD0H@Z ; process_assert
  00346	c7 45 ac 00 00
	00 00		 mov	 DWORD PTR tv215[ebp], 0
$LN36@response_t:
  0034d	68 9c 00 00 00	 push	 156			; 0000009cH
  00352	8b 55 fc	 mov	 edx, DWORD PTR _aggressor$[ebp]
  00355	52		 push	 edx
  00356	69 45 b0 5c 04
	00 00		 imul	 eax, DWORD PTR tv208[ebp], 1116
  0035d	8b 4d ac	 mov	 ecx, DWORD PTR tv215[ebp]
  00360	8b 94 88 00 00
	00 00		 mov	 edx, DWORD PTR ?fn_get_local_entity_int_value@@3PAY0BBH@P6GHPAUENTITY@@W4INT_TYPES@@@ZA[eax+ecx*4]
  00367	ff d2		 call	 edx
  00369	83 f8 02	 cmp	 eax, 2
  0036c	75 12		 jne	 SHORT $LN13@response_t

; 136  : 				{
; 137  : 					transmit_entity_comms_message (ENTITY_COMMS_PLAYER_KILL, aggressor, receiver);

  0036e	8b 45 0c	 mov	 eax, DWORD PTR _receiver$[ebp]
  00371	50		 push	 eax
  00372	8b 4d fc	 mov	 ecx, DWORD PTR _aggressor$[ebp]
  00375	51		 push	 ecx
  00376	6a 25		 push	 37			; 00000025H
  00378	e8 00 00 00 00	 call	 ?transmit_entity_comms_message@@YAXW4ENTITY_COMMS_MESSAGES@@PAUENTITY@@ZZ ; transmit_entity_comms_message
  0037d	83 c4 0c	 add	 esp, 12			; 0000000cH
$LN13@response_t:

; 138  : 				}
; 139  : 			}
; 140  : 		}
; 141  : 
; 142  : 		kill_client_server_entity (receiver);

  00380	83 7d 0c 00	 cmp	 DWORD PTR _receiver$[ebp], 0
  00384	74 0a		 je	 SHORT $LN37@response_t
  00386	8b 45 0c	 mov	 eax, DWORD PTR _receiver$[ebp]
  00389	8b 08		 mov	 ecx, DWORD PTR [eax]
  0038b	89 4d b0	 mov	 DWORD PTR tv231[ebp], ecx
  0038e	eb 21		 jmp	 SHORT $LN38@response_t
$LN37@response_t:
  00390	8b 15 00 00 00
	00		 mov	 edx, DWORD PTR ?__LINE__Var@?0??response_to_collision@@YGHW4ENTITY_MESSAGES@@PAUENTITY@@1PAD@Z@4JA
  00396	83 c2 3e	 add	 edx, 62			; 0000003eH
  00399	52		 push	 edx
  0039a	68 00 00 00 00	 push	 OFFSET ??_C@_0EI@KIJDKDIJ@c?3?2users?2nhv90?2projects?2eech?2ap@
  0039f	a1 00 00 00 00	 mov	 eax, DWORD PTR ?null_entity_pointer_message@@3PBDB ; null_entity_pointer_message
  003a4	50		 push	 eax
  003a5	e8 00 00 00 00	 call	 ?process_assert@@YGXPBD0H@Z ; process_assert
  003aa	c7 45 b0 00 00
	00 00		 mov	 DWORD PTR tv231[ebp], 0
$LN38@response_t:
  003b1	8b 4d 0c	 mov	 ecx, DWORD PTR _receiver$[ebp]
  003b4	51		 push	 ecx
  003b5	8b 15 00 00 00
	00		 mov	 edx, DWORD PTR ?system_comms_model@@3W4COMMS_MODEL_TYPES@@A ; system_comms_model
  003bb	c1 e2 02	 shl	 edx, 2
  003be	8b 45 b0	 mov	 eax, DWORD PTR tv231[ebp]
  003c1	8b 8c c2 00 00
	00 00		 mov	 ecx, DWORD PTR ?fn_kill_client_server_entity@@3PAY01P6GXPAUENTITY@@@ZA[edx+eax*8]
  003c8	ff d1		 call	 ecx
$LN8@response_t:

; 143  : 	}
; 144  : 
; 145  : 	return (TRUE);

  003ca	b8 01 00 00 00	 mov	 eax, 1

; 146  : }

  003cf	5f		 pop	 edi
  003d0	5e		 pop	 esi
  003d1	5b		 pop	 ebx
  003d2	8b e5		 mov	 esp, ebp
  003d4	5d		 pop	 ebp
  003d5	c2 10 00	 ret	 16			; 00000010H
?response_to_collision@@YGHW4ENTITY_MESSAGES@@PAUENTITY@@1PAD@Z ENDP ; response_to_collision
_TEXT	ENDS
; Function compile flags: /Odtp /ZI
; File c:\users\nhv90\projects\eech\aphavoc\source\entity\fixed\site\st_msgs.c
;	COMDAT ?overload_site_message_responses@@YGXXZ
_TEXT	SEGMENT
?overload_site_message_responses@@YGXXZ PROC		; overload_site_message_responses, COMDAT

; 213  : {

  00000	55		 push	 ebp
  00001	8b ec		 mov	 ebp, esp
  00003	83 ec 40	 sub	 esp, 64			; 00000040H
  00006	53		 push	 ebx
  00007	56		 push	 esi
  00008	57		 push	 edi

; 214  : 	overload_fixed_message_responses (ENTITY_TYPE_SITE);

  00009	6a 1d		 push	 29			; 0000001dH
  0000b	e8 00 00 00 00	 call	 ?overload_fixed_message_responses@@YGXW4ENTITY_TYPES@@@Z ; overload_fixed_message_responses

; 215  : 
; 216  : 	message_responses[ENTITY_TYPE_SITE][ENTITY_MESSAGE_COLLISION]		= response_to_collision;

  00010	b8 84 01 00 00	 mov	 eax, 388		; 00000184H
  00015	6b c8 1d	 imul	 ecx, eax, 29
  00018	ba 04 00 00 00	 mov	 edx, 4
  0001d	6b c2 07	 imul	 eax, edx, 7
  00020	c7 84 01 00 00
	00 00 00 00 00
	00		 mov	 DWORD PTR ?message_responses@@3PAY0GB@P6GHW4ENTITY_MESSAGES@@PAUENTITY@@1PAD@ZA[ecx+eax], OFFSET ?response_to_collision@@YGHW4ENTITY_MESSAGES@@PAUENTITY@@1PAD@Z ; response_to_collision

; 217  : 
; 218  : 	#if DEBUG_MODULE
; 219  : 
; 220  : 	message_responses[ENTITY_TYPE_SITE][ENTITY_MESSAGE_LINK_CHILD]		= response_to_link_child;
; 221  : 
; 222  : 	message_responses[ENTITY_TYPE_SITE][ENTITY_MESSAGE_UNLINK_CHILD]	= response_to_unlink_child;
; 223  : 
; 224  : 	message_responses[ENTITY_TYPE_SITE][ENTITY_MESSAGE_LINK_PARENT]	= response_to_link_parent;
; 225  : 
; 226  : 	message_responses[ENTITY_TYPE_SITE][ENTITY_MESSAGE_UNLINK_PARENT]	= response_to_unlink_parent;
; 227  : 
; 228  : 	#endif
; 229  : }

  0002b	5f		 pop	 edi
  0002c	5e		 pop	 esi
  0002d	5b		 pop	 ebx
  0002e	8b e5		 mov	 esp, ebp
  00030	5d		 pop	 ebp
  00031	c3		 ret	 0
?overload_site_message_responses@@YGXXZ ENDP		; overload_site_message_responses
_TEXT	ENDS
END
