; Listing generated by Microsoft (R) Optimizing Compiler Version 19.16.27045.0 

	TITLE	C:\Users\nhv90\Projects\eech\aphavoc\source\entity\fixed\siteupdt\su_dstry.c
	.686P
	.XMM
	include listing.inc
	.model	flat

INCLUDELIB MSVCRTD
INCLUDELIB OLDNAMES

PUBLIC	?overload_site_updatable_destroy_functions@@YGXXZ ; overload_site_updatable_destroy_functions
PUBLIC	?__LINE__Var@?0??destroy_server@@YGXPAUENTITY@@@Z@4JA ; `destroy_server'::`1'::__LINE__Var
PUBLIC	??_C@_0EN@PNJLNLKC@c?3?2users?2nhv90?2projects?2eech?2ap@ ; `string'
PUBLIC	??_C@_0CC@BNNNEGEG@assert_client_server_remote_fn?5@ ; `string'
PUBLIC	??_C@_0CB@CFOCLFOK@assert_client_server_local_fn?5?$CI@ ; `string'
PUBLIC	?__LINE__Var@?0??destroy_client@@YGXPAUENTITY@@@Z@4JA ; `destroy_client'::`1'::__LINE__Var
PUBLIC	?__LINE__Var@?0??kill_local@@YGXPAUENTITY@@@Z@4JA ; `kill_local'::`1'::__LINE__Var
PUBLIC	?__LINE__Var@?0??kill_server@@YGXPAUENTITY@@@Z@4JA ; `kill_server'::`1'::__LINE__Var
PUBLIC	?__LINE__Var@?0??kill_client@@YGXPAUENTITY@@@Z@4JA ; `kill_client'::`1'::__LINE__Var
EXTRN	?process_assert@@YGXPBD0H@Z:PROC		; process_assert
EXTRN	?free_mem@@YGXPAX@Z:PROC			; free_mem
EXTRN	?get_3d_terrain_point_data@@YGMMMPAUTERRAIN_3D_POINT_DATA@@@Z:PROC ; get_3d_terrain_point_data
EXTRN	?notify_local_entity@@YAHW4ENTITY_MESSAGES@@PAUENTITY@@1ZZ:PROC ; notify_local_entity
EXTRN	?delete_local_entity_from_parents_child_list@@YGXPAUENTITY@@W4LIST_TYPES@@@Z:PROC ; delete_local_entity_from_parents_child_list
EXTRN	?unlink_local_entity_children@@YGXPAUENTITY@@W4LIST_TYPES@@@Z:PROC ; unlink_local_entity_children
EXTRN	?destroy_local_entity@@YGXPAUENTITY@@@Z:PROC	; destroy_local_entity
EXTRN	?transmit_entity_comms_message@@YAXW4ENTITY_COMMS_MESSAGES@@PAUENTITY@@ZZ:PROC ; transmit_entity_comms_message
EXTRN	?assert_client_server_local_fn@@YGHXZ:PROC	; assert_client_server_local_fn
EXTRN	?assert_client_server_remote_fn@@YGHXZ:PROC	; assert_client_server_remote_fn
EXTRN	?set_free_entity@@YGXPAUENTITY@@@Z:PROC		; set_free_entity
EXTRN	?create_client_server_crater@@YGXW4CRATER_TYPES@@PAUVEC3D@@@Z:PROC ; create_client_server_crater
EXTRN	?get_3d_object_destroyed_object_index@@YGHH@Z:PROC ; get_3d_object_destroyed_object_index
EXTRN	?create_client_server_object_killed_explosion_effect@@YGXPAUENTITY@@@Z:PROC ; create_client_server_object_killed_explosion_effect
EXTRN	?subtract_local_entity_importance_from_keysite@@YGXPAUENTITY@@@Z:PROC ; subtract_local_entity_importance_from_keysite
EXTRN	?null_entity_pointer_message@@3PBDB:DWORD	; null_entity_pointer_message
EXTRN	?system_comms_model@@3W4COMMS_MODEL_TYPES@@A:DWORD ; system_comms_model
EXTRN	?system_comms_data_flow@@3W4COMMS_DATA_FLOW_TYPES@@A:DWORD ; system_comms_data_flow
EXTRN	?overload_invalid_list_type_message@@3PBDB:DWORD ; overload_invalid_list_type_message
EXTRN	?fn_get_local_entity_first_child@@3PAY0CN@P6GPAUENTITY@@PAU1@W4LIST_TYPES@@@ZA:BYTE ; fn_get_local_entity_first_child
EXTRN	?fn_get_local_entity_child_succ@@3PAY0CN@P6GPAUENTITY@@PAU1@W4LIST_TYPES@@@ZA:BYTE ; fn_get_local_entity_child_succ
EXTRN	?fn_destroy_local_entity@@3PAP6GXPAUENTITY@@@ZA:BYTE ; fn_destroy_local_entity
EXTRN	?fn_destroy_client_server_entity@@3PAY01P6GXPAUENTITY@@@ZA:BYTE ; fn_destroy_client_server_entity
EXTRN	?fn_destroy_local_entity_family@@3PAP6GXPAUENTITY@@@ZA:BYTE ; fn_destroy_local_entity_family
EXTRN	?fn_destroy_client_server_entity_family@@3PAY01P6GXPAUENTITY@@@ZA:BYTE ; fn_destroy_client_server_entity_family
EXTRN	?fn_kill_local_entity@@3PAP6GXPAUENTITY@@@ZA:BYTE ; fn_kill_local_entity
EXTRN	?fn_kill_client_server_entity@@3PAY01P6GXPAUENTITY@@@ZA:BYTE ; fn_kill_client_server_entity
EXTRN	?overload_invalid_int_type_message@@3PBDB:DWORD	; overload_invalid_int_type_message
EXTRN	?fn_set_local_entity_int_value@@3PAY0BBH@P6GXPAUENTITY@@W4INT_TYPES@@H@ZA:BYTE ; fn_set_local_entity_int_value
EXTRN	?overload_invalid_vec3d_type_message@@3PBDB:DWORD ; overload_invalid_vec3d_type_message
EXTRN	?fn_get_local_entity_vec3d@@3PAY0BI@P6GXPAUENTITY@@W4VEC3D_TYPES@@PAUVEC3D@@@ZA:BYTE ; fn_get_local_entity_vec3d
EXTRN	__fltused:DWORD
;	COMDAT ?__LINE__Var@?0??kill_client@@YGXPAUENTITY@@@Z@4JA
_DATA	SEGMENT
?__LINE__Var@?0??kill_client@@YGXPAUENTITY@@@Z@4JA DD 0170H ; `kill_client'::`1'::__LINE__Var
_DATA	ENDS
;	COMDAT ?__LINE__Var@?0??kill_server@@YGXPAUENTITY@@@Z@4JA
_DATA	SEGMENT
?__LINE__Var@?0??kill_server@@YGXPAUENTITY@@@Z@4JA DD 0159H ; `kill_server'::`1'::__LINE__Var
_DATA	ENDS
;	COMDAT ?__LINE__Var@?0??kill_local@@YGXPAUENTITY@@@Z@4JA
_DATA	SEGMENT
?__LINE__Var@?0??kill_local@@YGXPAUENTITY@@@Z@4JA DD 0d8H ; `kill_local'::`1'::__LINE__Var
_DATA	ENDS
;	COMDAT ?__LINE__Var@?0??destroy_client@@YGXPAUENTITY@@@Z@4JA
_DATA	SEGMENT
?__LINE__Var@?0??destroy_client@@YGXPAUENTITY@@@Z@4JA DD 0c0H ; `destroy_client'::`1'::__LINE__Var
_DATA	ENDS
;	COMDAT ??_C@_0CB@CFOCLFOK@assert_client_server_local_fn?5?$CI@
CONST	SEGMENT
??_C@_0CB@CFOCLFOK@assert_client_server_local_fn?5?$CI@ DB 'assert_client'
	DB	'_server_local_fn ()', 00H			; `string'
CONST	ENDS
;	COMDAT ??_C@_0CC@BNNNEGEG@assert_client_server_remote_fn?5@
CONST	SEGMENT
??_C@_0CC@BNNNEGEG@assert_client_server_remote_fn?5@ DB 'assert_client_se'
	DB	'rver_remote_fn ()', 00H			; `string'
CONST	ENDS
;	COMDAT ??_C@_0EN@PNJLNLKC@c?3?2users?2nhv90?2projects?2eech?2ap@
CONST	SEGMENT
??_C@_0EN@PNJLNLKC@c?3?2users?2nhv90?2projects?2eech?2ap@ DB 'c:\users\nh'
	DB	'v90\projects\eech\aphavoc\source\entity\fixed\siteupdt\su_dst'
	DB	'ry.c', 00H					; `string'
CONST	ENDS
;	COMDAT ?__LINE__Var@?0??destroy_server@@YGXPAUENTITY@@@Z@4JA
_DATA	SEGMENT
?__LINE__Var@?0??destroy_server@@YGXPAUENTITY@@@Z@4JA DD 0a9H ; `destroy_server'::`1'::__LINE__Var
_DATA	ENDS
; Function compile flags: /Odtp /ZI
; File c:\users\nhv90\projects\eech\aphavoc\source\entity\fixed\siteupdt\su_dstry.c
;	COMDAT ?kill_client@@YGXPAUENTITY@@@Z
_TEXT	SEGMENT
tv84 = -68						; size = 4
_en$ = 8						; size = 4
?kill_client@@YGXPAUENTITY@@@Z PROC			; kill_client, COMDAT

; 368  : {

  00000	55		 push	 ebp
  00001	8b ec		 mov	 ebp, esp
  00003	83 ec 44	 sub	 esp, 68			; 00000044H
  00006	53		 push	 ebx
  00007	56		 push	 esi
  00008	57		 push	 edi

; 369  : 	if (get_comms_data_flow () == COMMS_DATA_FLOW_TX)

  00009	83 3d 00 00 00
	00 00		 cmp	 DWORD PTR ?system_comms_data_flow@@3W4COMMS_DATA_FLOW_TYPES@@A, 0 ; system_comms_data_flow
  00010	75 2c		 jne	 SHORT $LN2@kill_clien

; 370  : 	{
; 371  : 		validate_client_server_remote_fn ();

  00012	e8 00 00 00 00	 call	 ?assert_client_server_remote_fn@@YGHXZ ; assert_client_server_remote_fn
  00017	85 c0		 test	 eax, eax
  00019	75 18		 jne	 SHORT $LN4@kill_clien
  0001b	a1 00 00 00 00	 mov	 eax, DWORD PTR ?__LINE__Var@?0??kill_client@@YGXPAUENTITY@@@Z@4JA
  00020	83 c0 03	 add	 eax, 3
  00023	50		 push	 eax
  00024	68 00 00 00 00	 push	 OFFSET ??_C@_0EN@PNJLNLKC@c?3?2users?2nhv90?2projects?2eech?2ap@
  00029	68 00 00 00 00	 push	 OFFSET ??_C@_0CC@BNNNEGEG@assert_client_server_remote_fn?5@
  0002e	e8 00 00 00 00	 call	 ?process_assert@@YGXPBD0H@Z ; process_assert
$LN4@kill_clien:

; 372  : 
; 373  : 		kill_remote (en);

  00033	8b 45 08	 mov	 eax, DWORD PTR _en$[ebp]
  00036	50		 push	 eax
  00037	e8 00 00 00 00	 call	 ?kill_remote@@YGXPAUENTITY@@@Z ; kill_remote

; 374  : 	}
; 375  : 	else

  0003c	eb 62		 jmp	 SHORT $LN1@kill_clien
$LN2@kill_clien:

; 376  : 	{
; 377  : 		validate_client_server_local_fn ();

  0003e	e8 00 00 00 00	 call	 ?assert_client_server_local_fn@@YGHXZ ; assert_client_server_local_fn
  00043	85 c0		 test	 eax, eax
  00045	75 18		 jne	 SHORT $LN5@kill_clien
  00047	a1 00 00 00 00	 mov	 eax, DWORD PTR ?__LINE__Var@?0??kill_client@@YGXPAUENTITY@@@Z@4JA
  0004c	83 c0 09	 add	 eax, 9
  0004f	50		 push	 eax
  00050	68 00 00 00 00	 push	 OFFSET ??_C@_0EN@PNJLNLKC@c?3?2users?2nhv90?2projects?2eech?2ap@
  00055	68 00 00 00 00	 push	 OFFSET ??_C@_0CB@CFOCLFOK@assert_client_server_local_fn?5?$CI@
  0005a	e8 00 00 00 00	 call	 ?process_assert@@YGXPBD0H@Z ; process_assert
$LN5@kill_clien:

; 378  : 
; 379  : 		//
; 380  : 		// kill local using 'full' function
; 381  : 		//
; 382  : 
; 383  : 		kill_local_entity (en);

  0005f	83 7d 08 00	 cmp	 DWORD PTR _en$[ebp], 0
  00063	74 0a		 je	 SHORT $LN7@kill_clien
  00065	8b 45 08	 mov	 eax, DWORD PTR _en$[ebp]
  00068	8b 08		 mov	 ecx, DWORD PTR [eax]
  0006a	89 4d bc	 mov	 DWORD PTR tv84[ebp], ecx
  0006d	eb 21		 jmp	 SHORT $LN8@kill_clien
$LN7@kill_clien:
  0006f	8b 15 00 00 00
	00		 mov	 edx, DWORD PTR ?__LINE__Var@?0??kill_client@@YGXPAUENTITY@@@Z@4JA
  00075	83 c2 0f	 add	 edx, 15			; 0000000fH
  00078	52		 push	 edx
  00079	68 00 00 00 00	 push	 OFFSET ??_C@_0EN@PNJLNLKC@c?3?2users?2nhv90?2projects?2eech?2ap@
  0007e	a1 00 00 00 00	 mov	 eax, DWORD PTR ?null_entity_pointer_message@@3PBDB ; null_entity_pointer_message
  00083	50		 push	 eax
  00084	e8 00 00 00 00	 call	 ?process_assert@@YGXPBD0H@Z ; process_assert
  00089	c7 45 bc 00 00
	00 00		 mov	 DWORD PTR tv84[ebp], 0
$LN8@kill_clien:
  00090	8b 4d 08	 mov	 ecx, DWORD PTR _en$[ebp]
  00093	51		 push	 ecx
  00094	8b 55 bc	 mov	 edx, DWORD PTR tv84[ebp]
  00097	8b 04 95 00 00
	00 00		 mov	 eax, DWORD PTR ?fn_kill_local_entity@@3PAP6GXPAUENTITY@@@ZA[edx*4]
  0009e	ff d0		 call	 eax
$LN1@kill_clien:

; 384  : 	}
; 385  : }

  000a0	5f		 pop	 edi
  000a1	5e		 pop	 esi
  000a2	5b		 pop	 ebx
  000a3	8b e5		 mov	 esp, ebp
  000a5	5d		 pop	 ebp
  000a6	c2 04 00	 ret	 4
?kill_client@@YGXPAUENTITY@@@Z ENDP			; kill_client
_TEXT	ENDS
; Function compile flags: /Odtp /ZI
; File c:\users\nhv90\projects\eech\aphavoc\source\entity\fixed\siteupdt\su_dstry.c
;	COMDAT ?kill_server@@YGXPAUENTITY@@@Z
_TEXT	SEGMENT
tv83 = -68						; size = 4
_en$ = 8						; size = 4
?kill_server@@YGXPAUENTITY@@@Z PROC			; kill_server, COMDAT

; 345  : {

  00000	55		 push	 ebp
  00001	8b ec		 mov	 ebp, esp
  00003	83 ec 44	 sub	 esp, 68			; 00000044H
  00006	53		 push	 ebx
  00007	56		 push	 esi
  00008	57		 push	 edi

; 346  : 	//
; 347  : 	// kill remote entity first (keeping local entity valid)
; 348  : 	//
; 349  : 
; 350  : 	validate_client_server_remote_fn ();

  00009	e8 00 00 00 00	 call	 ?assert_client_server_remote_fn@@YGHXZ ; assert_client_server_remote_fn
  0000e	85 c0		 test	 eax, eax
  00010	75 18		 jne	 SHORT $LN2@kill_serve
  00012	a1 00 00 00 00	 mov	 eax, DWORD PTR ?__LINE__Var@?0??kill_server@@YGXPAUENTITY@@@Z@4JA
  00017	83 c0 05	 add	 eax, 5
  0001a	50		 push	 eax
  0001b	68 00 00 00 00	 push	 OFFSET ??_C@_0EN@PNJLNLKC@c?3?2users?2nhv90?2projects?2eech?2ap@
  00020	68 00 00 00 00	 push	 OFFSET ??_C@_0CC@BNNNEGEG@assert_client_server_remote_fn?5@
  00025	e8 00 00 00 00	 call	 ?process_assert@@YGXPBD0H@Z ; process_assert
$LN2@kill_serve:

; 351  : 
; 352  : 	kill_remote (en);

  0002a	8b 45 08	 mov	 eax, DWORD PTR _en$[ebp]
  0002d	50		 push	 eax
  0002e	e8 00 00 00 00	 call	 ?kill_remote@@YGXPAUENTITY@@@Z ; kill_remote

; 353  : 
; 354  : 	validate_client_server_local_fn ();

  00033	e8 00 00 00 00	 call	 ?assert_client_server_local_fn@@YGHXZ ; assert_client_server_local_fn
  00038	85 c0		 test	 eax, eax
  0003a	75 18		 jne	 SHORT $LN3@kill_serve
  0003c	a1 00 00 00 00	 mov	 eax, DWORD PTR ?__LINE__Var@?0??kill_server@@YGXPAUENTITY@@@Z@4JA
  00041	83 c0 09	 add	 eax, 9
  00044	50		 push	 eax
  00045	68 00 00 00 00	 push	 OFFSET ??_C@_0EN@PNJLNLKC@c?3?2users?2nhv90?2projects?2eech?2ap@
  0004a	68 00 00 00 00	 push	 OFFSET ??_C@_0CB@CFOCLFOK@assert_client_server_local_fn?5?$CI@
  0004f	e8 00 00 00 00	 call	 ?process_assert@@YGXPBD0H@Z ; process_assert
$LN3@kill_serve:

; 355  : 
; 356  : 	//
; 357  : 	// kill local using 'full' function
; 358  : 	//
; 359  : 
; 360  : 	kill_local_entity (en);

  00054	83 7d 08 00	 cmp	 DWORD PTR _en$[ebp], 0
  00058	74 0a		 je	 SHORT $LN5@kill_serve
  0005a	8b 45 08	 mov	 eax, DWORD PTR _en$[ebp]
  0005d	8b 08		 mov	 ecx, DWORD PTR [eax]
  0005f	89 4d bc	 mov	 DWORD PTR tv83[ebp], ecx
  00062	eb 21		 jmp	 SHORT $LN6@kill_serve
$LN5@kill_serve:
  00064	8b 15 00 00 00
	00		 mov	 edx, DWORD PTR ?__LINE__Var@?0??kill_server@@YGXPAUENTITY@@@Z@4JA
  0006a	83 c2 0f	 add	 edx, 15			; 0000000fH
  0006d	52		 push	 edx
  0006e	68 00 00 00 00	 push	 OFFSET ??_C@_0EN@PNJLNLKC@c?3?2users?2nhv90?2projects?2eech?2ap@
  00073	a1 00 00 00 00	 mov	 eax, DWORD PTR ?null_entity_pointer_message@@3PBDB ; null_entity_pointer_message
  00078	50		 push	 eax
  00079	e8 00 00 00 00	 call	 ?process_assert@@YGXPBD0H@Z ; process_assert
  0007e	c7 45 bc 00 00
	00 00		 mov	 DWORD PTR tv83[ebp], 0
$LN6@kill_serve:
  00085	8b 4d 08	 mov	 ecx, DWORD PTR _en$[ebp]
  00088	51		 push	 ecx
  00089	8b 55 bc	 mov	 edx, DWORD PTR tv83[ebp]
  0008c	8b 04 95 00 00
	00 00		 mov	 eax, DWORD PTR ?fn_kill_local_entity@@3PAP6GXPAUENTITY@@@ZA[edx*4]
  00093	ff d0		 call	 eax

; 361  : }

  00095	5f		 pop	 edi
  00096	5e		 pop	 esi
  00097	5b		 pop	 ebx
  00098	8b e5		 mov	 esp, ebp
  0009a	5d		 pop	 ebp
  0009b	c2 04 00	 ret	 4
?kill_server@@YGXPAUENTITY@@@Z ENDP			; kill_server
_TEXT	ENDS
; Function compile flags: /Odtp /ZI
; File c:\users\nhv90\projects\eech\aphavoc\source\entity\fixed\siteupdt\su_dstry.c
;	COMDAT ?kill_remote@@YGXPAUENTITY@@@Z
_TEXT	SEGMENT
_en$ = 8						; size = 4
?kill_remote@@YGXPAUENTITY@@@Z PROC			; kill_remote, COMDAT

; 330  : {

  00000	55		 push	 ebp
  00001	8b ec		 mov	 ebp, esp
  00003	83 ec 40	 sub	 esp, 64			; 00000040H
  00006	53		 push	 ebx
  00007	56		 push	 esi
  00008	57		 push	 edi

; 331  : 	#if DEBUG_MODULE
; 332  : 
; 333  : 	debug_log_entity_args (ENTITY_DEBUG_REMOTE, ENTITY_DEBUG_KILL, en);
; 334  : 
; 335  : 	#endif
; 336  : 
; 337  : 	transmit_entity_comms_message (ENTITY_COMMS_KILL, en);

  00009	8b 45 08	 mov	 eax, DWORD PTR _en$[ebp]
  0000c	50		 push	 eax
  0000d	6a 18		 push	 24			; 00000018H
  0000f	e8 00 00 00 00	 call	 ?transmit_entity_comms_message@@YAXW4ENTITY_COMMS_MESSAGES@@PAUENTITY@@ZZ ; transmit_entity_comms_message
  00014	83 c4 08	 add	 esp, 8

; 338  : }

  00017	5f		 pop	 edi
  00018	5e		 pop	 esi
  00019	5b		 pop	 ebx
  0001a	8b e5		 mov	 esp, ebp
  0001c	5d		 pop	 ebp
  0001d	c2 04 00	 ret	 4
?kill_remote@@YGXPAUENTITY@@@Z ENDP			; kill_remote
_TEXT	ENDS
; Function compile flags: /Odtp /ZI
; File c:\users\nhv90\projects\eech\aphavoc\source\entity\fixed\siteupdt\su_dstry.c
;	COMDAT ?kill_local@@YGXPAUENTITY@@@Z
_TEXT	SEGMENT
tv188 = -96						; size = 4
tv166 = -96						; size = 4
tv133 = -96						; size = 4
tv80 = -96						; size = 4
tv208 = -92						; size = 4
tv180 = -92						; size = 4
tv158 = -92						; size = 4
tv93 = -92						; size = 4
tv72 = -92						; size = 4
_destroy_task$ = -24					; size = 4
_task$ = -20						; size = 4
_pos$ = -16						; size = 12
_raw$ = -4						; size = 4
_en$ = 8						; size = 4
?kill_local@@YGXPAUENTITY@@@Z PROC			; kill_local, COMDAT

; 216  : {

  00000	55		 push	 ebp
  00001	8b ec		 mov	 ebp, esp
  00003	83 ec 60	 sub	 esp, 96			; 00000060H
  00006	53		 push	 ebx
  00007	56		 push	 esi
  00008	57		 push	 edi

; 217  : 	site_updatable
; 218  : 		*raw;
; 219  : 
; 220  : 	vec3d
; 221  : 		pos;
; 222  : 
; 223  : 	entity
; 224  : 		*task,
; 225  : 		*destroy_task;
; 226  : 
; 227  : 	////////////////////////////////////////
; 228  : 	//
; 229  : 	// PRE-AMBLE
; 230  : 	//
; 231  : 	////////////////////////////////////////
; 232  : 
; 233  : 	#if DEBUG_MODULE
; 234  : 
; 235  : 	debug_log_entity_args (ENTITY_DEBUG_LOCAL, ENTITY_DEBUG_KILL, en);
; 236  : 
; 237  : 	#endif
; 238  : 
; 239  : 	raw = (site_updatable *) get_local_entity_data (en);

  00009	8b 45 08	 mov	 eax, DWORD PTR _en$[ebp]
  0000c	8b 48 04	 mov	 ecx, DWORD PTR [eax+4]
  0000f	89 4d fc	 mov	 DWORD PTR _raw$[ebp], ecx

; 240  : 
; 241  : 	////////////////////////////////////////
; 242  : 	//
; 243  : 	// UNLINK FROM SYSTEM
; 244  : 	//
; 245  : 	////////////////////////////////////////
; 246  : 
; 247  : 	if (get_comms_model () == COMMS_MODEL_SERVER)

  00012	83 3d 00 00 00
	00 00		 cmp	 DWORD PTR ?system_comms_model@@3W4COMMS_MODEL_TYPES@@A, 0 ; system_comms_model
  00019	0f 85 31 01 00
	00		 jne	 $LN3@kill_local

; 248  : 	{
; 249  : 		task = get_local_entity_first_child (en, LIST_TYPE_TASK_DEPENDENT);

  0001f	83 7d 08 00	 cmp	 DWORD PTR _en$[ebp], 0
  00023	74 0a		 je	 SHORT $LN8@kill_local
  00025	8b 45 08	 mov	 eax, DWORD PTR _en$[ebp]
  00028	8b 08		 mov	 ecx, DWORD PTR [eax]
  0002a	89 4d a4	 mov	 DWORD PTR tv72[ebp], ecx
  0002d	eb 21		 jmp	 SHORT $LN9@kill_local
$LN8@kill_local:
  0002f	8b 15 00 00 00
	00		 mov	 edx, DWORD PTR ?__LINE__Var@?0??kill_local@@YGXPAUENTITY@@@Z@4JA
  00035	83 c2 21	 add	 edx, 33			; 00000021H
  00038	52		 push	 edx
  00039	68 00 00 00 00	 push	 OFFSET ??_C@_0EN@PNJLNLKC@c?3?2users?2nhv90?2projects?2eech?2ap@
  0003e	a1 00 00 00 00	 mov	 eax, DWORD PTR ?null_entity_pointer_message@@3PBDB ; null_entity_pointer_message
  00043	50		 push	 eax
  00044	e8 00 00 00 00	 call	 ?process_assert@@YGXPBD0H@Z ; process_assert
  00049	c7 45 a4 00 00
	00 00		 mov	 DWORD PTR tv72[ebp], 0
$LN9@kill_local:
  00050	b9 01 00 00 00	 mov	 ecx, 1
  00055	85 c9		 test	 ecx, ecx
  00057	74 09		 je	 SHORT $LN10@kill_local
  00059	c7 45 a0 27 00
	00 00		 mov	 DWORD PTR tv80[ebp], 39	; 00000027H
  00060	eb 21		 jmp	 SHORT $LN11@kill_local
$LN10@kill_local:
  00062	8b 15 00 00 00
	00		 mov	 edx, DWORD PTR ?__LINE__Var@?0??kill_local@@YGXPAUENTITY@@@Z@4JA
  00068	83 c2 21	 add	 edx, 33			; 00000021H
  0006b	52		 push	 edx
  0006c	68 00 00 00 00	 push	 OFFSET ??_C@_0EN@PNJLNLKC@c?3?2users?2nhv90?2projects?2eech?2ap@
  00071	a1 00 00 00 00	 mov	 eax, DWORD PTR ?overload_invalid_list_type_message@@3PBDB ; overload_invalid_list_type_message
  00076	50		 push	 eax
  00077	e8 00 00 00 00	 call	 ?process_assert@@YGXPBD0H@Z ; process_assert
  0007c	c7 45 a0 00 00
	00 00		 mov	 DWORD PTR tv80[ebp], 0
$LN11@kill_local:
  00083	6a 27		 push	 39			; 00000027H
  00085	8b 4d 08	 mov	 ecx, DWORD PTR _en$[ebp]
  00088	51		 push	 ecx
  00089	69 55 a4 b4 00
	00 00		 imul	 edx, DWORD PTR tv72[ebp], 180
  00090	8b 45 a0	 mov	 eax, DWORD PTR tv80[ebp]
  00093	8b 8c 82 00 00
	00 00		 mov	 ecx, DWORD PTR ?fn_get_local_entity_first_child@@3PAY0CN@P6GPAUENTITY@@PAU1@W4LIST_TYPES@@@ZA[edx+eax*4]
  0009a	ff d1		 call	 ecx
  0009c	89 45 ec	 mov	 DWORD PTR _task$[ebp], eax
$LN2@kill_local:

; 250  : 
; 251  : 		while (task)

  0009f	83 7d ec 00	 cmp	 DWORD PTR _task$[ebp], 0
  000a3	0f 84 a7 00 00
	00		 je	 $LN3@kill_local

; 252  : 		{
; 253  : 
; 254  : 			destroy_task = task;

  000a9	8b 45 ec	 mov	 eax, DWORD PTR _task$[ebp]
  000ac	89 45 e8	 mov	 DWORD PTR _destroy_task$[ebp], eax

; 255  : 
; 256  : 			task = get_local_entity_child_succ (task, LIST_TYPE_TASK_DEPENDENT);

  000af	83 7d ec 00	 cmp	 DWORD PTR _task$[ebp], 0
  000b3	74 0a		 je	 SHORT $LN12@kill_local
  000b5	8b 45 ec	 mov	 eax, DWORD PTR _task$[ebp]
  000b8	8b 08		 mov	 ecx, DWORD PTR [eax]
  000ba	89 4d a4	 mov	 DWORD PTR tv93[ebp], ecx
  000bd	eb 21		 jmp	 SHORT $LN13@kill_local
$LN12@kill_local:
  000bf	8b 15 00 00 00
	00		 mov	 edx, DWORD PTR ?__LINE__Var@?0??kill_local@@YGXPAUENTITY@@@Z@4JA
  000c5	83 c2 28	 add	 edx, 40			; 00000028H
  000c8	52		 push	 edx
  000c9	68 00 00 00 00	 push	 OFFSET ??_C@_0EN@PNJLNLKC@c?3?2users?2nhv90?2projects?2eech?2ap@
  000ce	a1 00 00 00 00	 mov	 eax, DWORD PTR ?null_entity_pointer_message@@3PBDB ; null_entity_pointer_message
  000d3	50		 push	 eax
  000d4	e8 00 00 00 00	 call	 ?process_assert@@YGXPBD0H@Z ; process_assert
  000d9	c7 45 a4 00 00
	00 00		 mov	 DWORD PTR tv93[ebp], 0
$LN13@kill_local:
  000e0	b9 01 00 00 00	 mov	 ecx, 1
  000e5	85 c9		 test	 ecx, ecx
  000e7	74 09		 je	 SHORT $LN14@kill_local
  000e9	c7 45 a0 27 00
	00 00		 mov	 DWORD PTR tv133[ebp], 39 ; 00000027H
  000f0	eb 21		 jmp	 SHORT $LN15@kill_local
$LN14@kill_local:
  000f2	8b 15 00 00 00
	00		 mov	 edx, DWORD PTR ?__LINE__Var@?0??kill_local@@YGXPAUENTITY@@@Z@4JA
  000f8	83 c2 28	 add	 edx, 40			; 00000028H
  000fb	52		 push	 edx
  000fc	68 00 00 00 00	 push	 OFFSET ??_C@_0EN@PNJLNLKC@c?3?2users?2nhv90?2projects?2eech?2ap@
  00101	a1 00 00 00 00	 mov	 eax, DWORD PTR ?overload_invalid_list_type_message@@3PBDB ; overload_invalid_list_type_message
  00106	50		 push	 eax
  00107	e8 00 00 00 00	 call	 ?process_assert@@YGXPBD0H@Z ; process_assert
  0010c	c7 45 a0 00 00
	00 00		 mov	 DWORD PTR tv133[ebp], 0
$LN15@kill_local:
  00113	6a 27		 push	 39			; 00000027H
  00115	8b 4d ec	 mov	 ecx, DWORD PTR _task$[ebp]
  00118	51		 push	 ecx
  00119	69 55 a4 b4 00
	00 00		 imul	 edx, DWORD PTR tv93[ebp], 180
  00120	8b 45 a0	 mov	 eax, DWORD PTR tv133[ebp]
  00123	8b 8c 82 00 00
	00 00		 mov	 ecx, DWORD PTR ?fn_get_local_entity_child_succ@@3PAY0CN@P6GPAUENTITY@@PAU1@W4LIST_TYPES@@@ZA[edx+eax*4]
  0012a	ff d1		 call	 ecx
  0012c	89 45 ec	 mov	 DWORD PTR _task$[ebp], eax

; 257  : 
; 258  : 			if (destroy_task->type == ENTITY_TYPE_TASK)

  0012f	8b 45 e8	 mov	 eax, DWORD PTR _destroy_task$[ebp]
  00132	83 38 22	 cmp	 DWORD PTR [eax], 34	; 00000022H
  00135	75 14		 jne	 SHORT $LN5@kill_local

; 259  : 			{
; 260  : 
; 261  : 				#if DEBUG_MODULE
; 262  : 
; 263  : 				debug_log ("SU_DSTRY: killing siteupdt, notifying task %s complete", entity_sub_type_task_names [get_local_entity_int_value (destroy_task, INT_TYPE_ENTITY_SUB_TYPE)]);
; 264  : 
; 265  : 				#endif
; 266  : 
; 267  : 				notify_local_entity (ENTITY_MESSAGE_TASK_COMPLETED, destroy_task, en, TASK_TERMINATED_OBJECTIVE_MESSAGE);

  00137	6a 04		 push	 4
  00139	8b 45 08	 mov	 eax, DWORD PTR _en$[ebp]
  0013c	50		 push	 eax
  0013d	8b 4d e8	 mov	 ecx, DWORD PTR _destroy_task$[ebp]
  00140	51		 push	 ecx
  00141	6a 32		 push	 50			; 00000032H
  00143	e8 00 00 00 00	 call	 ?notify_local_entity@@YAHW4ENTITY_MESSAGES@@PAUENTITY@@1ZZ ; notify_local_entity
  00148	83 c4 10	 add	 esp, 16			; 00000010H
$LN5@kill_local:

; 268  : 			}
; 269  : 		}

  0014b	e9 4f ff ff ff	 jmp	 $LN2@kill_local
$LN3@kill_local:

; 270  : 	}
; 271  : 
; 272  : 	//
; 273  : 	// fixed
; 274  : 	//
; 275  : 
; 276  : 	unlink_local_entity_children (en, LIST_TYPE_TASK_DEPENDENT);

  00150	6a 27		 push	 39			; 00000027H
  00152	8b 45 08	 mov	 eax, DWORD PTR _en$[ebp]
  00155	50		 push	 eax
  00156	e8 00 00 00 00	 call	 ?unlink_local_entity_children@@YGXPAUENTITY@@W4LIST_TYPES@@@Z ; unlink_local_entity_children

; 277  : 
; 278  : 	unlink_local_entity_children (en, LIST_TYPE_TARGET);

  0015b	6a 26		 push	 38			; 00000026H
  0015d	8b 45 08	 mov	 eax, DWORD PTR _en$[ebp]
  00160	50		 push	 eax
  00161	e8 00 00 00 00	 call	 ?unlink_local_entity_children@@YGXPAUENTITY@@W4LIST_TYPES@@@Z ; unlink_local_entity_children

; 279  : 
; 280  : 	// gunship_target_link
; 281  : 
; 282  : 	// sector_link
; 283  : 
; 284  : 	//
; 285  : 	// site
; 286  : 	//
; 287  : 
; 288  : 	delete_local_entity_from_parents_child_list (en, LIST_TYPE_UPDATE);

  00166	6a 29		 push	 41			; 00000029H
  00168	8b 45 08	 mov	 eax, DWORD PTR _en$[ebp]
  0016b	50		 push	 eax
  0016c	e8 00 00 00 00	 call	 ?delete_local_entity_from_parents_child_list@@YGXPAUENTITY@@W4LIST_TYPES@@@Z ; delete_local_entity_from_parents_child_list

; 289  : 
; 290  : 	////////////////////////////////////////
; 291  : 	//
; 292  :  	// KILL
; 293  : 	//
; 294  : 	////////////////////////////////////////
; 295  : 
; 296  : 	// must be done BEFORE alive flag set
; 297  : 	subtract_local_entity_importance_from_keysite (en);

  00171	8b 45 08	 mov	 eax, DWORD PTR _en$[ebp]
  00174	50		 push	 eax
  00175	e8 00 00 00 00	 call	 ?subtract_local_entity_importance_from_keysite@@YGXPAUENTITY@@@Z ; subtract_local_entity_importance_from_keysite

; 298  : 
; 299  : 	set_local_entity_int_value (en, INT_TYPE_ALIVE, FALSE);

  0017a	83 7d 08 00	 cmp	 DWORD PTR _en$[ebp], 0
  0017e	74 0a		 je	 SHORT $LN16@kill_local
  00180	8b 45 08	 mov	 eax, DWORD PTR _en$[ebp]
  00183	8b 08		 mov	 ecx, DWORD PTR [eax]
  00185	89 4d a4	 mov	 DWORD PTR tv158[ebp], ecx
  00188	eb 21		 jmp	 SHORT $LN17@kill_local
$LN16@kill_local:
  0018a	8b 15 00 00 00
	00		 mov	 edx, DWORD PTR ?__LINE__Var@?0??kill_local@@YGXPAUENTITY@@@Z@4JA
  00190	83 c2 53	 add	 edx, 83			; 00000053H
  00193	52		 push	 edx
  00194	68 00 00 00 00	 push	 OFFSET ??_C@_0EN@PNJLNLKC@c?3?2users?2nhv90?2projects?2eech?2ap@
  00199	a1 00 00 00 00	 mov	 eax, DWORD PTR ?null_entity_pointer_message@@3PBDB ; null_entity_pointer_message
  0019e	50		 push	 eax
  0019f	e8 00 00 00 00	 call	 ?process_assert@@YGXPBD0H@Z ; process_assert
  001a4	c7 45 a4 00 00
	00 00		 mov	 DWORD PTR tv158[ebp], 0
$LN17@kill_local:
  001ab	b9 01 00 00 00	 mov	 ecx, 1
  001b0	85 c9		 test	 ecx, ecx
  001b2	74 09		 je	 SHORT $LN18@kill_local
  001b4	c7 45 a0 07 00
	00 00		 mov	 DWORD PTR tv166[ebp], 7
  001bb	eb 21		 jmp	 SHORT $LN19@kill_local
$LN18@kill_local:
  001bd	8b 15 00 00 00
	00		 mov	 edx, DWORD PTR ?__LINE__Var@?0??kill_local@@YGXPAUENTITY@@@Z@4JA
  001c3	83 c2 53	 add	 edx, 83			; 00000053H
  001c6	52		 push	 edx
  001c7	68 00 00 00 00	 push	 OFFSET ??_C@_0EN@PNJLNLKC@c?3?2users?2nhv90?2projects?2eech?2ap@
  001cc	a1 00 00 00 00	 mov	 eax, DWORD PTR ?overload_invalid_int_type_message@@3PBDB ; overload_invalid_int_type_message
  001d1	50		 push	 eax
  001d2	e8 00 00 00 00	 call	 ?process_assert@@YGXPBD0H@Z ; process_assert
  001d7	c7 45 a0 00 00
	00 00		 mov	 DWORD PTR tv166[ebp], 0
$LN19@kill_local:
  001de	6a 00		 push	 0
  001e0	6a 07		 push	 7
  001e2	8b 4d 08	 mov	 ecx, DWORD PTR _en$[ebp]
  001e5	51		 push	 ecx
  001e6	69 55 a4 5c 04
	00 00		 imul	 edx, DWORD PTR tv158[ebp], 1116
  001ed	8b 45 a0	 mov	 eax, DWORD PTR tv166[ebp]
  001f0	8b 8c 82 00 00
	00 00		 mov	 ecx, DWORD PTR ?fn_set_local_entity_int_value@@3PAY0BBH@P6GXPAUENTITY@@W4INT_TYPES@@H@ZA[edx+eax*4]
  001f7	ff d1		 call	 ecx

; 300  : 
; 301  : 	////////////////////////////////////////
; 302  : 	//
; 303  : 	// SPECIAL EFFECTS
; 304  : 	//
; 305  : 	////////////////////////////////////////
; 306  : 
; 307  : 	if (get_comms_model () == COMMS_MODEL_SERVER)

  001f9	83 3d 00 00 00
	00 00		 cmp	 DWORD PTR ?system_comms_model@@3W4COMMS_MODEL_TYPES@@A, 0 ; system_comms_model
  00200	0f 85 b2 00 00
	00		 jne	 $LN6@kill_local

; 308  : 	{
; 309  : 		create_client_server_object_killed_explosion_effect (en);

  00206	8b 45 08	 mov	 eax, DWORD PTR _en$[ebp]
  00209	50		 push	 eax
  0020a	e8 00 00 00 00	 call	 ?create_client_server_object_killed_explosion_effect@@YGXPAUENTITY@@@Z ; create_client_server_object_killed_explosion_effect

; 310  : 
; 311  : 		get_local_entity_vec3d (en, VEC3D_TYPE_POSITION, &pos);

  0020f	83 7d 08 00	 cmp	 DWORD PTR _en$[ebp], 0
  00213	74 0a		 je	 SHORT $LN20@kill_local
  00215	8b 45 08	 mov	 eax, DWORD PTR _en$[ebp]
  00218	8b 08		 mov	 ecx, DWORD PTR [eax]
  0021a	89 4d a4	 mov	 DWORD PTR tv180[ebp], ecx
  0021d	eb 21		 jmp	 SHORT $LN21@kill_local
$LN20@kill_local:
  0021f	8b 15 00 00 00
	00		 mov	 edx, DWORD PTR ?__LINE__Var@?0??kill_local@@YGXPAUENTITY@@@Z@4JA
  00225	83 c2 5f	 add	 edx, 95			; 0000005fH
  00228	52		 push	 edx
  00229	68 00 00 00 00	 push	 OFFSET ??_C@_0EN@PNJLNLKC@c?3?2users?2nhv90?2projects?2eech?2ap@
  0022e	a1 00 00 00 00	 mov	 eax, DWORD PTR ?null_entity_pointer_message@@3PBDB ; null_entity_pointer_message
  00233	50		 push	 eax
  00234	e8 00 00 00 00	 call	 ?process_assert@@YGXPBD0H@Z ; process_assert
  00239	c7 45 a4 00 00
	00 00		 mov	 DWORD PTR tv180[ebp], 0
$LN21@kill_local:
  00240	b9 01 00 00 00	 mov	 ecx, 1
  00245	85 c9		 test	 ecx, ecx
  00247	74 09		 je	 SHORT $LN22@kill_local
  00249	c7 45 a0 08 00
	00 00		 mov	 DWORD PTR tv188[ebp], 8
  00250	eb 21		 jmp	 SHORT $LN23@kill_local
$LN22@kill_local:
  00252	8b 15 00 00 00
	00		 mov	 edx, DWORD PTR ?__LINE__Var@?0??kill_local@@YGXPAUENTITY@@@Z@4JA
  00258	83 c2 5f	 add	 edx, 95			; 0000005fH
  0025b	52		 push	 edx
  0025c	68 00 00 00 00	 push	 OFFSET ??_C@_0EN@PNJLNLKC@c?3?2users?2nhv90?2projects?2eech?2ap@
  00261	a1 00 00 00 00	 mov	 eax, DWORD PTR ?overload_invalid_vec3d_type_message@@3PBDB ; overload_invalid_vec3d_type_message
  00266	50		 push	 eax
  00267	e8 00 00 00 00	 call	 ?process_assert@@YGXPBD0H@Z ; process_assert
  0026c	c7 45 a0 00 00
	00 00		 mov	 DWORD PTR tv188[ebp], 0
$LN23@kill_local:
  00273	8d 4d f0	 lea	 ecx, DWORD PTR _pos$[ebp]
  00276	51		 push	 ecx
  00277	6a 08		 push	 8
  00279	8b 55 08	 mov	 edx, DWORD PTR _en$[ebp]
  0027c	52		 push	 edx
  0027d	6b 45 a4 60	 imul	 eax, DWORD PTR tv180[ebp], 96
  00281	8b 4d a0	 mov	 ecx, DWORD PTR tv188[ebp]
  00284	8b 94 88 00 00
	00 00		 mov	 edx, DWORD PTR ?fn_get_local_entity_vec3d@@3PAY0BI@P6GXPAUENTITY@@W4VEC3D_TYPES@@PAUVEC3D@@@ZA[eax+ecx*4]
  0028b	ff d2		 call	 edx

; 312  : 
; 313  : 		pos.y = get_3d_terrain_elevation (pos.x, pos.z);

  0028d	6a 00		 push	 0
  0028f	51		 push	 ecx
  00290	f3 0f 10 45 f8	 movss	 xmm0, DWORD PTR _pos$[ebp+8]
  00295	f3 0f 11 04 24	 movss	 DWORD PTR [esp], xmm0
  0029a	51		 push	 ecx
  0029b	f3 0f 10 45 f0	 movss	 xmm0, DWORD PTR _pos$[ebp]
  002a0	f3 0f 11 04 24	 movss	 DWORD PTR [esp], xmm0
  002a5	e8 00 00 00 00	 call	 ?get_3d_terrain_point_data@@YGMMMPAUTERRAIN_3D_POINT_DATA@@@Z ; get_3d_terrain_point_data
  002aa	d9 5d f4	 fstp	 DWORD PTR _pos$[ebp+4]

; 314  : 
; 315  : 		create_client_server_crater (CRATER_TYPE_LARGE_EXPLOSION, &pos);

  002ad	8d 45 f0	 lea	 eax, DWORD PTR _pos$[ebp]
  002b0	50		 push	 eax
  002b1	6a 05		 push	 5
  002b3	e8 00 00 00 00	 call	 ?create_client_server_crater@@YGXW4CRATER_TYPES@@PAUVEC3D@@@Z ; create_client_server_crater
$LN6@kill_local:

; 316  : 	}
; 317  : 
; 318  : 	//
; 319  : 	// must be done AFTER object explosion
; 320  : 	//
; 321  : 
; 322  : 	raw->fix.object_3d_shape = get_3d_object_destroyed_object_index (raw->fix.object_3d_shape);

  002b8	8b 45 fc	 mov	 eax, DWORD PTR _raw$[ebp]
  002bb	8b 48 38	 mov	 ecx, DWORD PTR [eax+56]
  002be	c1 e9 08	 shr	 ecx, 8
  002c1	81 e1 ff 0f 00
	00		 and	 ecx, 4095		; 00000fffH
  002c7	51		 push	 ecx
  002c8	e8 00 00 00 00	 call	 ?get_3d_object_destroyed_object_index@@YGHH@Z ; get_3d_object_destroyed_object_index
  002cd	89 45 a4	 mov	 DWORD PTR tv208[ebp], eax
  002d0	8b 55 a4	 mov	 edx, DWORD PTR tv208[ebp]
  002d3	81 e2 ff 0f 00
	00		 and	 edx, 4095		; 00000fffH
  002d9	c1 e2 08	 shl	 edx, 8
  002dc	8b 45 fc	 mov	 eax, DWORD PTR _raw$[ebp]
  002df	8b 48 38	 mov	 ecx, DWORD PTR [eax+56]
  002e2	81 e1 ff 00 f0
	ff		 and	 ecx, -1048321		; fff000ffH
  002e8	0b ca		 or	 ecx, edx
  002ea	8b 55 fc	 mov	 edx, DWORD PTR _raw$[ebp]
  002ed	89 4a 38	 mov	 DWORD PTR [edx+56], ecx

; 323  : }

  002f0	5f		 pop	 edi
  002f1	5e		 pop	 esi
  002f2	5b		 pop	 ebx
  002f3	8b e5		 mov	 esp, ebp
  002f5	5d		 pop	 ebp
  002f6	c2 04 00	 ret	 4
?kill_local@@YGXPAUENTITY@@@Z ENDP			; kill_local
_TEXT	ENDS
; Function compile flags: /Odtp /ZI
; File c:\users\nhv90\projects\eech\aphavoc\source\entity\fixed\siteupdt\su_dstry.c
;	COMDAT ?destroy_client@@YGXPAUENTITY@@@Z
_TEXT	SEGMENT
_en$ = 8						; size = 4
?destroy_client@@YGXPAUENTITY@@@Z PROC			; destroy_client, COMDAT

; 192  : {

  00000	55		 push	 ebp
  00001	8b ec		 mov	 ebp, esp
  00003	83 ec 40	 sub	 esp, 64			; 00000040H
  00006	53		 push	 ebx
  00007	56		 push	 esi
  00008	57		 push	 edi

; 193  : 	if (get_comms_data_flow () == COMMS_DATA_FLOW_TX)

  00009	83 3d 00 00 00
	00 00		 cmp	 DWORD PTR ?system_comms_data_flow@@3W4COMMS_DATA_FLOW_TYPES@@A, 0 ; system_comms_data_flow
  00010	75 2c		 jne	 SHORT $LN2@destroy_cl

; 194  : 	{
; 195  : 		validate_client_server_remote_fn ();

  00012	e8 00 00 00 00	 call	 ?assert_client_server_remote_fn@@YGHXZ ; assert_client_server_remote_fn
  00017	85 c0		 test	 eax, eax
  00019	75 18		 jne	 SHORT $LN4@destroy_cl
  0001b	a1 00 00 00 00	 mov	 eax, DWORD PTR ?__LINE__Var@?0??destroy_client@@YGXPAUENTITY@@@Z@4JA
  00020	83 c0 03	 add	 eax, 3
  00023	50		 push	 eax
  00024	68 00 00 00 00	 push	 OFFSET ??_C@_0EN@PNJLNLKC@c?3?2users?2nhv90?2projects?2eech?2ap@
  00029	68 00 00 00 00	 push	 OFFSET ??_C@_0CC@BNNNEGEG@assert_client_server_remote_fn?5@
  0002e	e8 00 00 00 00	 call	 ?process_assert@@YGXPBD0H@Z ; process_assert
$LN4@destroy_cl:

; 196  : 
; 197  : 		destroy_remote (en);

  00033	8b 45 08	 mov	 eax, DWORD PTR _en$[ebp]
  00036	50		 push	 eax
  00037	e8 00 00 00 00	 call	 ?destroy_remote@@YGXPAUENTITY@@@Z ; destroy_remote

; 198  : 	}
; 199  : 	else

  0003c	eb 2a		 jmp	 SHORT $LN1@destroy_cl
$LN2@destroy_cl:

; 200  : 	{
; 201  : 		validate_client_server_local_fn ();

  0003e	e8 00 00 00 00	 call	 ?assert_client_server_local_fn@@YGHXZ ; assert_client_server_local_fn
  00043	85 c0		 test	 eax, eax
  00045	75 18		 jne	 SHORT $LN5@destroy_cl
  00047	a1 00 00 00 00	 mov	 eax, DWORD PTR ?__LINE__Var@?0??destroy_client@@YGXPAUENTITY@@@Z@4JA
  0004c	83 c0 09	 add	 eax, 9
  0004f	50		 push	 eax
  00050	68 00 00 00 00	 push	 OFFSET ??_C@_0EN@PNJLNLKC@c?3?2users?2nhv90?2projects?2eech?2ap@
  00055	68 00 00 00 00	 push	 OFFSET ??_C@_0CB@CFOCLFOK@assert_client_server_local_fn?5?$CI@
  0005a	e8 00 00 00 00	 call	 ?process_assert@@YGXPBD0H@Z ; process_assert
$LN5@destroy_cl:

; 202  : 
; 203  : 		//
; 204  : 		// destroy local using 'full' function
; 205  : 		//
; 206  : 
; 207  : 		destroy_local_entity (en);

  0005f	8b 45 08	 mov	 eax, DWORD PTR _en$[ebp]
  00062	50		 push	 eax
  00063	e8 00 00 00 00	 call	 ?destroy_local_entity@@YGXPAUENTITY@@@Z ; destroy_local_entity
$LN1@destroy_cl:

; 208  : 	}
; 209  : }

  00068	5f		 pop	 edi
  00069	5e		 pop	 esi
  0006a	5b		 pop	 ebx
  0006b	8b e5		 mov	 esp, ebp
  0006d	5d		 pop	 ebp
  0006e	c2 04 00	 ret	 4
?destroy_client@@YGXPAUENTITY@@@Z ENDP			; destroy_client
_TEXT	ENDS
; Function compile flags: /Odtp /ZI
; File c:\users\nhv90\projects\eech\aphavoc\source\entity\fixed\siteupdt\su_dstry.c
;	COMDAT ?destroy_server@@YGXPAUENTITY@@@Z
_TEXT	SEGMENT
_en$ = 8						; size = 4
?destroy_server@@YGXPAUENTITY@@@Z PROC			; destroy_server, COMDAT

; 169  : {

  00000	55		 push	 ebp
  00001	8b ec		 mov	 ebp, esp
  00003	83 ec 40	 sub	 esp, 64			; 00000040H
  00006	53		 push	 ebx
  00007	56		 push	 esi
  00008	57		 push	 edi

; 170  : 	//
; 171  : 	// destroy remote entity first (keeping local entity valid)
; 172  : 	//
; 173  : 
; 174  : 	validate_client_server_remote_fn ();

  00009	e8 00 00 00 00	 call	 ?assert_client_server_remote_fn@@YGHXZ ; assert_client_server_remote_fn
  0000e	85 c0		 test	 eax, eax
  00010	75 18		 jne	 SHORT $LN2@destroy_se
  00012	a1 00 00 00 00	 mov	 eax, DWORD PTR ?__LINE__Var@?0??destroy_server@@YGXPAUENTITY@@@Z@4JA
  00017	83 c0 05	 add	 eax, 5
  0001a	50		 push	 eax
  0001b	68 00 00 00 00	 push	 OFFSET ??_C@_0EN@PNJLNLKC@c?3?2users?2nhv90?2projects?2eech?2ap@
  00020	68 00 00 00 00	 push	 OFFSET ??_C@_0CC@BNNNEGEG@assert_client_server_remote_fn?5@
  00025	e8 00 00 00 00	 call	 ?process_assert@@YGXPBD0H@Z ; process_assert
$LN2@destroy_se:

; 175  : 
; 176  : 	destroy_remote (en);

  0002a	8b 45 08	 mov	 eax, DWORD PTR _en$[ebp]
  0002d	50		 push	 eax
  0002e	e8 00 00 00 00	 call	 ?destroy_remote@@YGXPAUENTITY@@@Z ; destroy_remote

; 177  : 
; 178  : 	validate_client_server_local_fn ();

  00033	e8 00 00 00 00	 call	 ?assert_client_server_local_fn@@YGHXZ ; assert_client_server_local_fn
  00038	85 c0		 test	 eax, eax
  0003a	75 18		 jne	 SHORT $LN3@destroy_se
  0003c	a1 00 00 00 00	 mov	 eax, DWORD PTR ?__LINE__Var@?0??destroy_server@@YGXPAUENTITY@@@Z@4JA
  00041	83 c0 09	 add	 eax, 9
  00044	50		 push	 eax
  00045	68 00 00 00 00	 push	 OFFSET ??_C@_0EN@PNJLNLKC@c?3?2users?2nhv90?2projects?2eech?2ap@
  0004a	68 00 00 00 00	 push	 OFFSET ??_C@_0CB@CFOCLFOK@assert_client_server_local_fn?5?$CI@
  0004f	e8 00 00 00 00	 call	 ?process_assert@@YGXPBD0H@Z ; process_assert
$LN3@destroy_se:

; 179  : 
; 180  : 	//
; 181  : 	// destroy local using 'full' function
; 182  : 	//
; 183  : 
; 184  : 	destroy_local_entity (en);

  00054	8b 45 08	 mov	 eax, DWORD PTR _en$[ebp]
  00057	50		 push	 eax
  00058	e8 00 00 00 00	 call	 ?destroy_local_entity@@YGXPAUENTITY@@@Z ; destroy_local_entity

; 185  : }

  0005d	5f		 pop	 edi
  0005e	5e		 pop	 esi
  0005f	5b		 pop	 ebx
  00060	8b e5		 mov	 esp, ebp
  00062	5d		 pop	 ebp
  00063	c2 04 00	 ret	 4
?destroy_server@@YGXPAUENTITY@@@Z ENDP			; destroy_server
_TEXT	ENDS
; Function compile flags: /Odtp /ZI
; File c:\users\nhv90\projects\eech\aphavoc\source\entity\fixed\siteupdt\su_dstry.c
;	COMDAT ?destroy_remote@@YGXPAUENTITY@@@Z
_TEXT	SEGMENT
_en$ = 8						; size = 4
?destroy_remote@@YGXPAUENTITY@@@Z PROC			; destroy_remote, COMDAT

; 154  : {

  00000	55		 push	 ebp
  00001	8b ec		 mov	 ebp, esp
  00003	83 ec 40	 sub	 esp, 64			; 00000040H
  00006	53		 push	 ebx
  00007	56		 push	 esi
  00008	57		 push	 edi

; 155  : 	#if DEBUG_MODULE
; 156  : 
; 157  : 	debug_log_entity_args (ENTITY_DEBUG_REMOTE, ENTITY_DEBUG_DESTROY, en);
; 158  : 
; 159  : 	#endif
; 160  : 
; 161  : 	transmit_entity_comms_message (ENTITY_COMMS_DESTROY, en);

  00009	8b 45 08	 mov	 eax, DWORD PTR _en$[ebp]
  0000c	50		 push	 eax
  0000d	6a 12		 push	 18			; 00000012H
  0000f	e8 00 00 00 00	 call	 ?transmit_entity_comms_message@@YAXW4ENTITY_COMMS_MESSAGES@@PAUENTITY@@ZZ ; transmit_entity_comms_message
  00014	83 c4 08	 add	 esp, 8

; 162  : }

  00017	5f		 pop	 edi
  00018	5e		 pop	 esi
  00019	5b		 pop	 ebx
  0001a	8b e5		 mov	 esp, ebp
  0001c	5d		 pop	 ebp
  0001d	c2 04 00	 ret	 4
?destroy_remote@@YGXPAUENTITY@@@Z ENDP			; destroy_remote
_TEXT	ENDS
; Function compile flags: /Odtp /ZI
; File c:\users\nhv90\projects\eech\aphavoc\source\entity\fixed\siteupdt\su_dstry.c
;	COMDAT ?destroy_local@@YGXPAUENTITY@@@Z
_TEXT	SEGMENT
_raw$ = -4						; size = 4
_en$ = 8						; size = 4
?destroy_local@@YGXPAUENTITY@@@Z PROC			; destroy_local, COMDAT

; 80   : {

  00000	55		 push	 ebp
  00001	8b ec		 mov	 ebp, esp
  00003	83 ec 44	 sub	 esp, 68			; 00000044H
  00006	53		 push	 ebx
  00007	56		 push	 esi
  00008	57		 push	 edi

; 81   : 	site_updatable
; 82   : 		*raw;
; 83   : 
; 84   : 	////////////////////////////////////////
; 85   : 	//
; 86   : 	// PRE-AMBLE
; 87   : 	//
; 88   : 	////////////////////////////////////////
; 89   : 
; 90   : 	#if DEBUG_MODULE
; 91   : 
; 92   : 	debug_log_entity_args (ENTITY_DEBUG_LOCAL, ENTITY_DEBUG_DESTROY, en);
; 93   : 
; 94   : 	#endif
; 95   : 
; 96   : 	raw = (site_updatable *) get_local_entity_data (en);

  00009	8b 45 08	 mov	 eax, DWORD PTR _en$[ebp]
  0000c	8b 48 04	 mov	 ecx, DWORD PTR [eax+4]
  0000f	89 4d fc	 mov	 DWORD PTR _raw$[ebp], ecx

; 97   : 
; 98   : 	////////////////////////////////////////
; 99   : 	//
; 100  : 	// VALIDATE
; 101  : 	//
; 102  : 	////////////////////////////////////////
; 103  : 
; 104  : 	////////////////////////////////////////
; 105  : 	//
; 106  : 	// DESTROY COMPONENTS
; 107  : 	//
; 108  : 	////////////////////////////////////////
; 109  : 
; 110  : 	////////////////////////////////////////
; 111  : 	//
; 112  : 	// UNLINK FROM SYSTEM
; 113  : 	//
; 114  : 	////////////////////////////////////////
; 115  : 
; 116  : 	//
; 117  : 	// fixed
; 118  : 	//
; 119  : 
; 120  : 	unlink_local_entity_children (en, LIST_TYPE_TASK_DEPENDENT);

  00012	6a 27		 push	 39			; 00000027H
  00014	8b 45 08	 mov	 eax, DWORD PTR _en$[ebp]
  00017	50		 push	 eax
  00018	e8 00 00 00 00	 call	 ?unlink_local_entity_children@@YGXPAUENTITY@@W4LIST_TYPES@@@Z ; unlink_local_entity_children

; 121  : 
; 122  : 	unlink_local_entity_children (en, LIST_TYPE_TARGET);

  0001d	6a 26		 push	 38			; 00000026H
  0001f	8b 45 08	 mov	 eax, DWORD PTR _en$[ebp]
  00022	50		 push	 eax
  00023	e8 00 00 00 00	 call	 ?unlink_local_entity_children@@YGXPAUENTITY@@W4LIST_TYPES@@@Z ; unlink_local_entity_children

; 123  : 
; 124  : 	delete_local_entity_from_parents_child_list (en, LIST_TYPE_DESIGNATED_TARGET);

  00028	6a 0a		 push	 10			; 0000000aH
  0002a	8b 45 08	 mov	 eax, DWORD PTR _en$[ebp]
  0002d	50		 push	 eax
  0002e	e8 00 00 00 00	 call	 ?delete_local_entity_from_parents_child_list@@YGXPAUENTITY@@W4LIST_TYPES@@@Z ; delete_local_entity_from_parents_child_list

; 125  : 
; 126  : 	delete_local_entity_from_parents_child_list (en, LIST_TYPE_GUNSHIP_TARGET);

  00033	6a 12		 push	 18			; 00000012H
  00035	8b 45 08	 mov	 eax, DWORD PTR _en$[ebp]
  00038	50		 push	 eax
  00039	e8 00 00 00 00	 call	 ?delete_local_entity_from_parents_child_list@@YGXPAUENTITY@@W4LIST_TYPES@@@Z ; delete_local_entity_from_parents_child_list

; 127  : 
; 128  : 	delete_local_entity_from_parents_child_list (en, LIST_TYPE_SECTOR);

  0003e	6a 21		 push	 33			; 00000021H
  00040	8b 45 08	 mov	 eax, DWORD PTR _en$[ebp]
  00043	50		 push	 eax
  00044	e8 00 00 00 00	 call	 ?delete_local_entity_from_parents_child_list@@YGXPAUENTITY@@W4LIST_TYPES@@@Z ; delete_local_entity_from_parents_child_list

; 129  : 
; 130  : 	//
; 131  : 	// site_updatable
; 132  : 	//
; 133  : 
; 134  : 	delete_local_entity_from_parents_child_list (en, LIST_TYPE_MEMBER);

  00049	6a 19		 push	 25			; 00000019H
  0004b	8b 45 08	 mov	 eax, DWORD PTR _en$[ebp]
  0004e	50		 push	 eax
  0004f	e8 00 00 00 00	 call	 ?delete_local_entity_from_parents_child_list@@YGXPAUENTITY@@W4LIST_TYPES@@@Z ; delete_local_entity_from_parents_child_list

; 135  : 
; 136  : 	delete_local_entity_from_parents_child_list (en, LIST_TYPE_UPDATE);

  00054	6a 29		 push	 41			; 00000029H
  00056	8b 45 08	 mov	 eax, DWORD PTR _en$[ebp]
  00059	50		 push	 eax
  0005a	e8 00 00 00 00	 call	 ?delete_local_entity_from_parents_child_list@@YGXPAUENTITY@@W4LIST_TYPES@@@Z ; delete_local_entity_from_parents_child_list

; 137  : 
; 138  : 	////////////////////////////////////////
; 139  : 	//
; 140  : 	// FREE ENTITY DATA
; 141  : 	//
; 142  : 	////////////////////////////////////////
; 143  : 
; 144  : 	free_mem (raw);

  0005f	8b 45 fc	 mov	 eax, DWORD PTR _raw$[ebp]
  00062	50		 push	 eax
  00063	e8 00 00 00 00	 call	 ?free_mem@@YGXPAX@Z	; free_mem

; 145  : 
; 146  : 	set_free_entity (en);

  00068	8b 45 08	 mov	 eax, DWORD PTR _en$[ebp]
  0006b	50		 push	 eax
  0006c	e8 00 00 00 00	 call	 ?set_free_entity@@YGXPAUENTITY@@@Z ; set_free_entity

; 147  : }

  00071	5f		 pop	 edi
  00072	5e		 pop	 esi
  00073	5b		 pop	 ebx
  00074	8b e5		 mov	 esp, ebp
  00076	5d		 pop	 ebp
  00077	c2 04 00	 ret	 4
?destroy_local@@YGXPAUENTITY@@@Z ENDP			; destroy_local
_TEXT	ENDS
; Function compile flags: /Odtp /ZI
; File c:\users\nhv90\projects\eech\aphavoc\source\entity\fixed\siteupdt\su_dstry.c
;	COMDAT ?overload_site_updatable_destroy_functions@@YGXXZ
_TEXT	SEGMENT
?overload_site_updatable_destroy_functions@@YGXXZ PROC	; overload_site_updatable_destroy_functions, COMDAT

; 392  : {

  00000	55		 push	 ebp
  00001	8b ec		 mov	 ebp, esp
  00003	83 ec 40	 sub	 esp, 64			; 00000040H
  00006	53		 push	 ebx
  00007	56		 push	 esi
  00008	57		 push	 edi

; 393  : 	fn_destroy_local_entity						[ENTITY_TYPE_SITE_UPDATABLE]								= destroy_local;

  00009	b8 04 00 00 00	 mov	 eax, 4
  0000e	6b c8 1e	 imul	 ecx, eax, 30
  00011	c7 81 00 00 00
	00 00 00 00 00	 mov	 DWORD PTR ?fn_destroy_local_entity@@3PAP6GXPAUENTITY@@@ZA[ecx], OFFSET ?destroy_local@@YGXPAUENTITY@@@Z ; destroy_local

; 394  : 	fn_destroy_client_server_entity			[ENTITY_TYPE_SITE_UPDATABLE][COMMS_MODEL_SERVER]	= destroy_server;

  0001b	b8 08 00 00 00	 mov	 eax, 8
  00020	6b c8 1e	 imul	 ecx, eax, 30
  00023	ba 04 00 00 00	 mov	 edx, 4
  00028	6b c2 00	 imul	 eax, edx, 0
  0002b	c7 84 01 00 00
	00 00 00 00 00
	00		 mov	 DWORD PTR ?fn_destroy_client_server_entity@@3PAY01P6GXPAUENTITY@@@ZA[ecx+eax], OFFSET ?destroy_server@@YGXPAUENTITY@@@Z ; destroy_server

; 395  : 	fn_destroy_client_server_entity 			[ENTITY_TYPE_SITE_UPDATABLE][COMMS_MODEL_CLIENT]	= destroy_client;

  00036	b8 08 00 00 00	 mov	 eax, 8
  0003b	6b c8 1e	 imul	 ecx, eax, 30
  0003e	ba 04 00 00 00	 mov	 edx, 4
  00043	c1 e2 00	 shl	 edx, 0
  00046	c7 84 11 00 00
	00 00 00 00 00
	00		 mov	 DWORD PTR ?fn_destroy_client_server_entity@@3PAY01P6GXPAUENTITY@@@ZA[ecx+edx], OFFSET ?destroy_client@@YGXPAUENTITY@@@Z ; destroy_client

; 396  : 
; 397  : 	fn_destroy_local_entity_family			[ENTITY_TYPE_SITE_UPDATABLE]								= destroy_local;

  00051	b8 04 00 00 00	 mov	 eax, 4
  00056	6b c8 1e	 imul	 ecx, eax, 30
  00059	c7 81 00 00 00
	00 00 00 00 00	 mov	 DWORD PTR ?fn_destroy_local_entity_family@@3PAP6GXPAUENTITY@@@ZA[ecx], OFFSET ?destroy_local@@YGXPAUENTITY@@@Z ; destroy_local

; 398  : 	fn_destroy_client_server_entity_family	[ENTITY_TYPE_SITE_UPDATABLE][COMMS_MODEL_SERVER]	= destroy_server;

  00063	b8 08 00 00 00	 mov	 eax, 8
  00068	6b c8 1e	 imul	 ecx, eax, 30
  0006b	ba 04 00 00 00	 mov	 edx, 4
  00070	6b c2 00	 imul	 eax, edx, 0
  00073	c7 84 01 00 00
	00 00 00 00 00
	00		 mov	 DWORD PTR ?fn_destroy_client_server_entity_family@@3PAY01P6GXPAUENTITY@@@ZA[ecx+eax], OFFSET ?destroy_server@@YGXPAUENTITY@@@Z ; destroy_server

; 399  : 	fn_destroy_client_server_entity_family	[ENTITY_TYPE_SITE_UPDATABLE][COMMS_MODEL_CLIENT]	= destroy_client;

  0007e	b8 08 00 00 00	 mov	 eax, 8
  00083	6b c8 1e	 imul	 ecx, eax, 30
  00086	ba 04 00 00 00	 mov	 edx, 4
  0008b	c1 e2 00	 shl	 edx, 0
  0008e	c7 84 11 00 00
	00 00 00 00 00
	00		 mov	 DWORD PTR ?fn_destroy_client_server_entity_family@@3PAY01P6GXPAUENTITY@@@ZA[ecx+edx], OFFSET ?destroy_client@@YGXPAUENTITY@@@Z ; destroy_client

; 400  : 
; 401  : 	fn_kill_local_entity							[ENTITY_TYPE_SITE_UPDATABLE]								= kill_local;

  00099	b8 04 00 00 00	 mov	 eax, 4
  0009e	6b c8 1e	 imul	 ecx, eax, 30
  000a1	c7 81 00 00 00
	00 00 00 00 00	 mov	 DWORD PTR ?fn_kill_local_entity@@3PAP6GXPAUENTITY@@@ZA[ecx], OFFSET ?kill_local@@YGXPAUENTITY@@@Z ; kill_local

; 402  : 	fn_kill_client_server_entity				[ENTITY_TYPE_SITE_UPDATABLE][COMMS_MODEL_SERVER]	= kill_server;

  000ab	b8 08 00 00 00	 mov	 eax, 8
  000b0	6b c8 1e	 imul	 ecx, eax, 30
  000b3	ba 04 00 00 00	 mov	 edx, 4
  000b8	6b c2 00	 imul	 eax, edx, 0
  000bb	c7 84 01 00 00
	00 00 00 00 00
	00		 mov	 DWORD PTR ?fn_kill_client_server_entity@@3PAY01P6GXPAUENTITY@@@ZA[ecx+eax], OFFSET ?kill_server@@YGXPAUENTITY@@@Z ; kill_server

; 403  : 	fn_kill_client_server_entity				[ENTITY_TYPE_SITE_UPDATABLE][COMMS_MODEL_CLIENT]	= kill_client;

  000c6	b8 08 00 00 00	 mov	 eax, 8
  000cb	6b c8 1e	 imul	 ecx, eax, 30
  000ce	ba 04 00 00 00	 mov	 edx, 4
  000d3	c1 e2 00	 shl	 edx, 0
  000d6	c7 84 11 00 00
	00 00 00 00 00
	00		 mov	 DWORD PTR ?fn_kill_client_server_entity@@3PAY01P6GXPAUENTITY@@@ZA[ecx+edx], OFFSET ?kill_client@@YGXPAUENTITY@@@Z ; kill_client

; 404  : }

  000e1	5f		 pop	 edi
  000e2	5e		 pop	 esi
  000e3	5b		 pop	 ebx
  000e4	8b e5		 mov	 esp, ebp
  000e6	5d		 pop	 ebp
  000e7	c3		 ret	 0
?overload_site_updatable_destroy_functions@@YGXXZ ENDP	; overload_site_updatable_destroy_functions
_TEXT	ENDS
END
