; Listing generated by Microsoft (R) Optimizing Compiler Version 19.16.27045.0 

	TITLE	C:\Users\nhv90\Projects\eech\aphavoc\source\entity\fixed\siteupdt\su_msgs.c
	.686P
	.XMM
	include listing.inc
	.model	flat

INCLUDELIB MSVCRTD
INCLUDELIB OLDNAMES

PUBLIC	?overload_site_updatable_message_responses@@YGXXZ ; overload_site_updatable_message_responses
PUBLIC	?__LINE__Var@?0??response_to_collision@@YGHW4ENTITY_MESSAGES@@PAUENTITY@@1PAD@Z@4JA ; `response_to_collision'::`1'::__LINE__Var
PUBLIC	??_C@_0EM@LNJCOGB@c?3?2users?2nhv90?2projects?2eech?2ap@ ; `string'
PUBLIC	?__LINE__Var@?0??response_to_articulate_loading_doors@@YGHW4ENTITY_MESSAGES@@PAUENTITY@@1PAD@Z@4JA ; `response_to_articulate_loading_doors'::`1'::__LINE__Var
PUBLIC	??_C@_0CJ@DMBLBJBK@get_comms_model?5?$CI?$CJ?5?$DN?$DN?5COMMS_MOD@ ; `string'
PUBLIC	??_C@_08OAGMDKAF@position@			; `string'
PUBLIC	__real@3f800000
PUBLIC	__real@3fe0000000000000
EXTRN	?process_assert@@YGXPBD0H@Z:PROC		; process_assert
EXTRN	?transmit_entity_comms_message@@YAXW4ENTITY_COMMS_MESSAGES@@PAUENTITY@@ZZ:PROC ; transmit_entity_comms_message
EXTRN	?overload_fixed_message_responses@@YGXW4ENTITY_TYPES@@@Z:PROC ; overload_fixed_message_responses
EXTRN	?damage_client_server_entity@@YGHPAUENTITY@@0M@Z:PROC ; damage_client_server_entity
EXTRN	?create_client_server_sound_effect_entity@@YGPAUENTITY@@PAU1@W4ENTITY_SIDES@@HW4SOUND_CHANNEL_TYPES@@W4SOUND_LOCALITY_TYPES@@PAUVEC3D@@MMHHHPAH@Z:PROC ; create_client_server_sound_effect_entity
EXTRN	?notify_keysite_structure_under_attack@@YGXPAUENTITY@@0@Z:PROC ; notify_keysite_structure_under_attack
EXTRN	?get_local_sector_entity@@YGPAUENTITY@@PAUVEC3D@@@Z:PROC ; get_local_sector_entity
EXTRN	?get_current_player_log@@YGPAUPLAYER_LOG_TYPE@@XZ:PROC ; get_current_player_log
EXTRN	?inc_player_log_kills@@YGXHPAUPLAYER_LOG_TYPE@@PAUENTITY@@@Z:PROC ; inc_player_log_kills
EXTRN	?null_entity_pointer_message@@3PBDB:DWORD	; null_entity_pointer_message
EXTRN	?global_options@@3UGLOBAL_OPTIONS_DATA@@A:BYTE	; global_options
EXTRN	?system_comms_model@@3W4COMMS_MODEL_TYPES@@A:DWORD ; system_comms_model
EXTRN	?message_responses@@3PAY0GB@P6GHW4ENTITY_MESSAGES@@PAUENTITY@@1PAD@ZA:BYTE ; message_responses
EXTRN	?overload_invalid_list_type_message@@3PBDB:DWORD ; overload_invalid_list_type_message
EXTRN	?fn_get_local_entity_parent@@3PAY0CN@P6GPAUENTITY@@PAU1@W4LIST_TYPES@@@ZA:BYTE ; fn_get_local_entity_parent
EXTRN	?fn_kill_client_server_entity@@3PAY01P6GXPAUENTITY@@@ZA:BYTE ; fn_kill_client_server_entity
EXTRN	?overload_invalid_float_type_message@@3PBDB:DWORD ; overload_invalid_float_type_message
EXTRN	?fn_get_local_entity_float_value@@3PAY0KP@P6GMPAUENTITY@@W4FLOAT_TYPES@@@ZA:BYTE ; fn_get_local_entity_float_value
EXTRN	?overload_invalid_int_type_message@@3PBDB:DWORD	; overload_invalid_int_type_message
EXTRN	?fn_get_local_entity_int_value@@3PAY0BBH@P6GHPAUENTITY@@W4INT_TYPES@@@ZA:BYTE ; fn_get_local_entity_int_value
EXTRN	?overload_invalid_vec3d_type_message@@3PBDB:DWORD ; overload_invalid_vec3d_type_message
EXTRN	?fn_get_local_entity_vec3d_ptr@@3PAY0BI@P6GPAUVEC3D@@PAUENTITY@@W4VEC3D_TYPES@@@ZA:BYTE ; fn_get_local_entity_vec3d_ptr
EXTRN	__fltused:DWORD
;	COMDAT __real@3fe0000000000000
CONST	SEGMENT
__real@3fe0000000000000 DQ 03fe0000000000000r	; 0.5
CONST	ENDS
;	COMDAT __real@3f800000
CONST	SEGMENT
__real@3f800000 DD 03f800000r			; 1
CONST	ENDS
;	COMDAT ??_C@_08OAGMDKAF@position@
CONST	SEGMENT
??_C@_08OAGMDKAF@position@ DB 'position', 00H		; `string'
CONST	ENDS
;	COMDAT ??_C@_0CJ@DMBLBJBK@get_comms_model?5?$CI?$CJ?5?$DN?$DN?5COMMS_MOD@
CONST	SEGMENT
??_C@_0CJ@DMBLBJBK@get_comms_model?5?$CI?$CJ?5?$DN?$DN?5COMMS_MOD@ DB 'ge'
	DB	't_comms_model () == COMMS_MODEL_SERVER', 00H ; `string'
CONST	ENDS
;	COMDAT ?__LINE__Var@?0??response_to_articulate_loading_doors@@YGHW4ENTITY_MESSAGES@@PAUENTITY@@1PAD@Z@4JA
_DATA	SEGMENT
?__LINE__Var@?0??response_to_articulate_loading_doors@@YGHW4ENTITY_MESSAGES@@PAUENTITY@@1PAD@Z@4JA DD 097H ; `response_to_articulate_loading_doors'::`1'::__LINE__Var
_DATA	ENDS
;	COMDAT ??_C@_0EM@LNJCOGB@c?3?2users?2nhv90?2projects?2eech?2ap@
CONST	SEGMENT
??_C@_0EM@LNJCOGB@c?3?2users?2nhv90?2projects?2eech?2ap@ DB 'c:\users\nhv'
	DB	'90\projects\eech\aphavoc\source\entity\fixed\siteupdt\su_msgs'
	DB	'.c', 00H					; `string'
CONST	ENDS
;	COMDAT ?__LINE__Var@?0??response_to_collision@@YGHW4ENTITY_MESSAGES@@PAUENTITY@@1PAD@Z@4JA
_DATA	SEGMENT
?__LINE__Var@?0??response_to_collision@@YGHW4ENTITY_MESSAGES@@PAUENTITY@@1PAD@Z@4JA DD 050H ; `response_to_collision'::`1'::__LINE__Var
_DATA	ENDS
; Function compile flags: /Odtp /ZI
; File c:\users\nhv90\projects\eech\aphavoc\source\entity\fixed\siteupdt\su_msgs.c
;	COMDAT ?response_to_articulate_loading_doors@@YGHW4ENTITY_MESSAGES@@PAUENTITY@@1PAD@Z
_TEXT	SEGMENT
tv83 = -80						; size = 4
tv75 = -76						; size = 4
_position$ = -8						; size = 4
_sample_index$ = -4					; size = 4
_message$ = 8						; size = 4
_receiver$ = 12						; size = 4
_sender$ = 16						; size = 4
_pargs$ = 20						; size = 4
?response_to_articulate_loading_doors@@YGHW4ENTITY_MESSAGES@@PAUENTITY@@1PAD@Z PROC ; response_to_articulate_loading_doors, COMDAT

; 151  : {

  00000	55		 push	 ebp
  00001	8b ec		 mov	 ebp, esp
  00003	83 ec 50	 sub	 esp, 80			; 00000050H
  00006	53		 push	 ebx
  00007	56		 push	 esi
  00008	57		 push	 edi

; 152  : 	//
; 153  : 	// WATING FOR SOUND EFFECT DATA...
; 154  : 	//
; 155  : 
; 156  : 	sound_sample_indices
; 157  : 		sample_index;
; 158  : 
; 159  : 	vec3d
; 160  : 		*position;
; 161  : 
; 162  : 	#if DEBUG_MODULE
; 163  : 
; 164  : 	debug_log_entity_message (message, receiver, sender, pargs);
; 165  : 
; 166  : 	#endif
; 167  : 
; 168  : 	ASSERT (get_comms_model () == COMMS_MODEL_SERVER);

  00009	83 3d 00 00 00
	00 00		 cmp	 DWORD PTR ?system_comms_model@@3W4COMMS_MODEL_TYPES@@A, 0 ; system_comms_model
  00010	74 18		 je	 SHORT $LN2@response_t
  00012	a1 00 00 00 00	 mov	 eax, DWORD PTR ?__LINE__Var@?0??response_to_articulate_loading_doors@@YGHW4ENTITY_MESSAGES@@PAUENTITY@@1PAD@Z@4JA
  00017	83 c0 11	 add	 eax, 17			; 00000011H
  0001a	50		 push	 eax
  0001b	68 00 00 00 00	 push	 OFFSET ??_C@_0EM@LNJCOGB@c?3?2users?2nhv90?2projects?2eech?2ap@
  00020	68 00 00 00 00	 push	 OFFSET ??_C@_0CJ@DMBLBJBK@get_comms_model?5?$CI?$CJ?5?$DN?$DN?5COMMS_MOD@
  00025	e8 00 00 00 00	 call	 ?process_assert@@YGXPBD0H@Z ; process_assert
$LN2@response_t:

; 169  : 
; 170  : 	position = get_local_entity_vec3d_ptr (receiver, VEC3D_TYPE_POSITION);

  0002a	83 7d 0c 00	 cmp	 DWORD PTR _receiver$[ebp], 0
  0002e	74 0a		 je	 SHORT $LN5@response_t
  00030	8b 45 0c	 mov	 eax, DWORD PTR _receiver$[ebp]
  00033	8b 08		 mov	 ecx, DWORD PTR [eax]
  00035	89 4d b4	 mov	 DWORD PTR tv75[ebp], ecx
  00038	eb 21		 jmp	 SHORT $LN6@response_t
$LN5@response_t:
  0003a	8b 15 00 00 00
	00		 mov	 edx, DWORD PTR ?__LINE__Var@?0??response_to_articulate_loading_doors@@YGHW4ENTITY_MESSAGES@@PAUENTITY@@1PAD@Z@4JA
  00040	83 c2 13	 add	 edx, 19			; 00000013H
  00043	52		 push	 edx
  00044	68 00 00 00 00	 push	 OFFSET ??_C@_0EM@LNJCOGB@c?3?2users?2nhv90?2projects?2eech?2ap@
  00049	a1 00 00 00 00	 mov	 eax, DWORD PTR ?null_entity_pointer_message@@3PBDB ; null_entity_pointer_message
  0004e	50		 push	 eax
  0004f	e8 00 00 00 00	 call	 ?process_assert@@YGXPBD0H@Z ; process_assert
  00054	c7 45 b4 00 00
	00 00		 mov	 DWORD PTR tv75[ebp], 0
$LN6@response_t:
  0005b	b9 01 00 00 00	 mov	 ecx, 1
  00060	85 c9		 test	 ecx, ecx
  00062	74 09		 je	 SHORT $LN7@response_t
  00064	c7 45 b0 08 00
	00 00		 mov	 DWORD PTR tv83[ebp], 8
  0006b	eb 21		 jmp	 SHORT $LN8@response_t
$LN7@response_t:
  0006d	8b 15 00 00 00
	00		 mov	 edx, DWORD PTR ?__LINE__Var@?0??response_to_articulate_loading_doors@@YGHW4ENTITY_MESSAGES@@PAUENTITY@@1PAD@Z@4JA
  00073	83 c2 13	 add	 edx, 19			; 00000013H
  00076	52		 push	 edx
  00077	68 00 00 00 00	 push	 OFFSET ??_C@_0EM@LNJCOGB@c?3?2users?2nhv90?2projects?2eech?2ap@
  0007c	a1 00 00 00 00	 mov	 eax, DWORD PTR ?overload_invalid_vec3d_type_message@@3PBDB ; overload_invalid_vec3d_type_message
  00081	50		 push	 eax
  00082	e8 00 00 00 00	 call	 ?process_assert@@YGXPBD0H@Z ; process_assert
  00087	c7 45 b0 00 00
	00 00		 mov	 DWORD PTR tv83[ebp], 0
$LN8@response_t:
  0008e	6a 08		 push	 8
  00090	8b 4d 0c	 mov	 ecx, DWORD PTR _receiver$[ebp]
  00093	51		 push	 ecx
  00094	6b 55 b4 60	 imul	 edx, DWORD PTR tv75[ebp], 96
  00098	8b 45 b0	 mov	 eax, DWORD PTR tv83[ebp]
  0009b	8b 8c 82 00 00
	00 00		 mov	 ecx, DWORD PTR ?fn_get_local_entity_vec3d_ptr@@3PAY0BI@P6GPAUVEC3D@@PAUENTITY@@W4VEC3D_TYPES@@@ZA[edx+eax*4]
  000a2	ff d1		 call	 ecx
  000a4	89 45 f8	 mov	 DWORD PTR _position$[ebp], eax

; 171  : 
; 172  : 	ASSERT (position);

  000a7	83 7d f8 00	 cmp	 DWORD PTR _position$[ebp], 0
  000ab	75 18		 jne	 SHORT $LN3@response_t
  000ad	a1 00 00 00 00	 mov	 eax, DWORD PTR ?__LINE__Var@?0??response_to_articulate_loading_doors@@YGHW4ENTITY_MESSAGES@@PAUENTITY@@1PAD@Z@4JA
  000b2	83 c0 15	 add	 eax, 21			; 00000015H
  000b5	50		 push	 eax
  000b6	68 00 00 00 00	 push	 OFFSET ??_C@_0EM@LNJCOGB@c?3?2users?2nhv90?2projects?2eech?2ap@
  000bb	68 00 00 00 00	 push	 OFFSET ??_C@_08OAGMDKAF@position@
  000c0	e8 00 00 00 00	 call	 ?process_assert@@YGXPBD0H@Z ; process_assert
$LN3@response_t:

; 173  : 
; 174  : 	sample_index = SOUND_SAMPLE_INDEX_HELICOPTER_DOORS;

  000c5	c7 45 fc 3f 00
	00 00		 mov	 DWORD PTR _sample_index$[ebp], 63 ; 0000003fH

; 175  : 
; 176  : 	create_client_server_sound_effect_entity

  000cc	8d 45 fc	 lea	 eax, DWORD PTR _sample_index$[ebp]
  000cf	50		 push	 eax
  000d0	6a 01		 push	 1
  000d2	6a 00		 push	 0
  000d4	6a 01		 push	 1
  000d6	51		 push	 ecx
  000d7	f3 0f 10 05 00
	00 00 00	 movss	 xmm0, DWORD PTR __real@3f800000
  000df	f3 0f 11 04 24	 movss	 DWORD PTR [esp], xmm0
  000e4	51		 push	 ecx
  000e5	f3 0f 10 05 00
	00 00 00	 movss	 xmm0, DWORD PTR __real@3f800000
  000ed	f3 0f 11 04 24	 movss	 DWORD PTR [esp], xmm0
  000f2	6a 00		 push	 0
  000f4	6a 00		 push	 0
  000f6	6a 00		 push	 0
  000f8	6a 1a		 push	 26			; 0000001aH
  000fa	6a 00		 push	 0
  000fc	8b 4d f8	 mov	 ecx, DWORD PTR _position$[ebp]
  000ff	51		 push	 ecx
  00100	e8 00 00 00 00	 call	 ?get_local_sector_entity@@YGPAUENTITY@@PAUVEC3D@@@Z ; get_local_sector_entity
  00105	50		 push	 eax
  00106	e8 00 00 00 00	 call	 ?create_client_server_sound_effect_entity@@YGPAUENTITY@@PAU1@W4ENTITY_SIDES@@HW4SOUND_CHANNEL_TYPES@@W4SOUND_LOCALITY_TYPES@@PAUVEC3D@@MMHHHPAH@Z ; create_client_server_sound_effect_entity

; 177  : 	(
; 178  : 		get_local_sector_entity (position),
; 179  : 		ENTITY_SIDE_NEUTRAL,
; 180  : 		ENTITY_SUB_TYPE_EFFECT_SOUND_MISC,
; 181  : 		SOUND_CHANNEL_SOUND_EFFECT,
; 182  : 		SOUND_LOCALITY_ALL,
; 183  : 		NULL,												// position
; 184  : 		1.0,												// amplification
; 185  : 		1.0,												// Werewolf pitch
; 186  : 		TRUE,												// valid sound effect
; 187  : 		FALSE,											// looping
; 188  : 		1,													// sample count
; 189  : 		&sample_index									// sample index list
; 190  : 	);
; 191  : 
; 192  : 	return (TRUE);

  0010b	b8 01 00 00 00	 mov	 eax, 1

; 193  : }

  00110	5f		 pop	 edi
  00111	5e		 pop	 esi
  00112	5b		 pop	 ebx
  00113	8b e5		 mov	 esp, ebp
  00115	5d		 pop	 ebp
  00116	c2 10 00	 ret	 16			; 00000010H
?response_to_articulate_loading_doors@@YGHW4ENTITY_MESSAGES@@PAUENTITY@@1PAD@Z ENDP ; response_to_articulate_loading_doors
_TEXT	ENDS
; Function compile flags: /Odtp /ZI
; File c:\users\nhv90\projects\eech\aphavoc\source\entity\fixed\siteupdt\su_msgs.c
;	COMDAT ?response_to_collision@@YGHW4ENTITY_MESSAGES@@PAUENTITY@@1PAD@Z
_TEXT	SEGMENT
tv278 = -92						; size = 8
tv210 = -84						; size = 4
tv187 = -84						; size = 4
tv167 = -84						; size = 4
tv147 = -84						; size = 4
tv89 = -84						; size = 4
tv226 = -80						; size = 4
tv203 = -80						; size = 4
tv180 = -80						; size = 4
tv160 = -80						; size = 4
tv139 = -80						; size = 4
tv81 = -80						; size = 4
tv73 = -80						; size = 4
_damage_modifier$ = -12					; size = 4
_total_damage_level$ = -8				; size = 4
_aggressor$ = -4					; size = 4
_message$ = 8						; size = 4
_receiver$ = 12						; size = 4
_sender$ = 16						; size = 4
_pargs$ = 20						; size = 4
?response_to_collision@@YGHW4ENTITY_MESSAGES@@PAUENTITY@@1PAD@Z PROC ; response_to_collision, COMDAT

; 80   : {

  00000	55		 push	 ebp
  00001	8b ec		 mov	 ebp, esp
  00003	83 ec 5c	 sub	 esp, 92			; 0000005cH
  00006	53		 push	 ebx
  00007	56		 push	 esi
  00008	57		 push	 edi

; 81   : 	entity
; 82   : 		*aggressor;
; 83   : 
; 84   : 	int
; 85   : 		total_damage_level;
; 86   : 
; 87   : 	float
; 88   : 		damage_modifier;
; 89   : 
; 90   : 	#if DEBUG_MODULE
; 91   : 
; 92   : 	debug_log_entity_message (message, receiver, sender, pargs);
; 93   : 
; 94   : 	#endif
; 95   : 
; 96   : 	damage_modifier = va_arg (pargs, double);

  00009	8b 45 14	 mov	 eax, DWORD PTR _pargs$[ebp]
  0000c	83 c0 08	 add	 eax, 8
  0000f	89 45 14	 mov	 DWORD PTR _pargs$[ebp], eax
  00012	8b 4d 14	 mov	 ecx, DWORD PTR _pargs$[ebp]
  00015	f2 0f 5a 41 f8	 cvtsd2ss xmm0, QWORD PTR [ecx-8]
  0001a	f3 0f 11 45 f4	 movss	 DWORD PTR _damage_modifier$[ebp], xmm0

; 97   : 
; 98   : 	if (sender)

  0001f	83 7d 10 00	 cmp	 DWORD PTR _sender$[ebp], 0
  00023	0f 84 d1 00 00
	00		 je	 $LN2@response_t

; 99   : 	{
; 100  : 		if (get_local_entity_type (sender) == ENTITY_TYPE_WEAPON)

  00029	83 7d 10 00	 cmp	 DWORD PTR _sender$[ebp], 0
  0002d	74 0a		 je	 SHORT $LN14@response_t
  0002f	8b 45 10	 mov	 eax, DWORD PTR _sender$[ebp]
  00032	8b 08		 mov	 ecx, DWORD PTR [eax]
  00034	89 4d b0	 mov	 DWORD PTR tv73[ebp], ecx
  00037	eb 1a		 jmp	 SHORT $LN15@response_t
$LN14@response_t:
  00039	6a 64		 push	 100			; 00000064H
  0003b	68 00 00 00 00	 push	 OFFSET ??_C@_0EM@LNJCOGB@c?3?2users?2nhv90?2projects?2eech?2ap@
  00040	8b 15 00 00 00
	00		 mov	 edx, DWORD PTR ?null_entity_pointer_message@@3PBDB ; null_entity_pointer_message
  00046	52		 push	 edx
  00047	e8 00 00 00 00	 call	 ?process_assert@@YGXPBD0H@Z ; process_assert
  0004c	c7 45 b0 00 00
	00 00		 mov	 DWORD PTR tv73[ebp], 0
$LN15@response_t:
  00053	83 7d b0 25	 cmp	 DWORD PTR tv73[ebp], 37	; 00000025H
  00057	0f 85 82 00 00
	00		 jne	 $LN4@response_t

; 101  : 		{
; 102  : 			aggressor = get_local_entity_parent (sender, LIST_TYPE_LAUNCHED_WEAPON);

  0005d	83 7d 10 00	 cmp	 DWORD PTR _sender$[ebp], 0
  00061	74 0a		 je	 SHORT $LN16@response_t
  00063	8b 45 10	 mov	 eax, DWORD PTR _sender$[ebp]
  00066	8b 08		 mov	 ecx, DWORD PTR [eax]
  00068	89 4d b0	 mov	 DWORD PTR tv81[ebp], ecx
  0006b	eb 21		 jmp	 SHORT $LN17@response_t
$LN16@response_t:
  0006d	8b 15 00 00 00
	00		 mov	 edx, DWORD PTR ?__LINE__Var@?0??response_to_collision@@YGHW4ENTITY_MESSAGES@@PAUENTITY@@1PAD@Z@4JA
  00073	83 c2 16	 add	 edx, 22			; 00000016H
  00076	52		 push	 edx
  00077	68 00 00 00 00	 push	 OFFSET ??_C@_0EM@LNJCOGB@c?3?2users?2nhv90?2projects?2eech?2ap@
  0007c	a1 00 00 00 00	 mov	 eax, DWORD PTR ?null_entity_pointer_message@@3PBDB ; null_entity_pointer_message
  00081	50		 push	 eax
  00082	e8 00 00 00 00	 call	 ?process_assert@@YGXPBD0H@Z ; process_assert
  00087	c7 45 b0 00 00
	00 00		 mov	 DWORD PTR tv81[ebp], 0
$LN17@response_t:
  0008e	b9 01 00 00 00	 mov	 ecx, 1
  00093	85 c9		 test	 ecx, ecx
  00095	74 09		 je	 SHORT $LN18@response_t
  00097	c7 45 ac 18 00
	00 00		 mov	 DWORD PTR tv89[ebp], 24	; 00000018H
  0009e	eb 21		 jmp	 SHORT $LN19@response_t
$LN18@response_t:
  000a0	8b 15 00 00 00
	00		 mov	 edx, DWORD PTR ?__LINE__Var@?0??response_to_collision@@YGHW4ENTITY_MESSAGES@@PAUENTITY@@1PAD@Z@4JA
  000a6	83 c2 16	 add	 edx, 22			; 00000016H
  000a9	52		 push	 edx
  000aa	68 00 00 00 00	 push	 OFFSET ??_C@_0EM@LNJCOGB@c?3?2users?2nhv90?2projects?2eech?2ap@
  000af	a1 00 00 00 00	 mov	 eax, DWORD PTR ?overload_invalid_list_type_message@@3PBDB ; overload_invalid_list_type_message
  000b4	50		 push	 eax
  000b5	e8 00 00 00 00	 call	 ?process_assert@@YGXPBD0H@Z ; process_assert
  000ba	c7 45 ac 00 00
	00 00		 mov	 DWORD PTR tv89[ebp], 0
$LN19@response_t:
  000c1	6a 18		 push	 24			; 00000018H
  000c3	8b 4d 10	 mov	 ecx, DWORD PTR _sender$[ebp]
  000c6	51		 push	 ecx
  000c7	69 55 b0 b4 00
	00 00		 imul	 edx, DWORD PTR tv81[ebp], 180
  000ce	8b 45 ac	 mov	 eax, DWORD PTR tv89[ebp]
  000d1	8b 8c 82 00 00
	00 00		 mov	 ecx, DWORD PTR ?fn_get_local_entity_parent@@3PAY0CN@P6GPAUENTITY@@PAU1@W4LIST_TYPES@@@ZA[edx+eax*4]
  000d8	ff d1		 call	 ecx
  000da	89 45 fc	 mov	 DWORD PTR _aggressor$[ebp], eax

; 103  : 		}
; 104  : 		else

  000dd	eb 06		 jmp	 SHORT $LN5@response_t
$LN4@response_t:

; 105  : 		{
; 106  : 			aggressor = sender;

  000df	8b 45 10	 mov	 eax, DWORD PTR _sender$[ebp]
  000e2	89 45 fc	 mov	 DWORD PTR _aggressor$[ebp], eax
$LN5@response_t:

; 107  : 		}
; 108  : 
; 109  : 		if (aggressor)

  000e5	83 7d fc 00	 cmp	 DWORD PTR _aggressor$[ebp], 0
  000e9	74 0d		 je	 SHORT $LN6@response_t

; 110  : 		{
; 111  : 			notify_keysite_structure_under_attack (receiver, aggressor);

  000eb	8b 45 fc	 mov	 eax, DWORD PTR _aggressor$[ebp]
  000ee	50		 push	 eax
  000ef	8b 4d 0c	 mov	 ecx, DWORD PTR _receiver$[ebp]
  000f2	51		 push	 ecx
  000f3	e8 00 00 00 00	 call	 ?notify_keysite_structure_under_attack@@YGXPAUENTITY@@0@Z ; notify_keysite_structure_under_attack
$LN6@response_t:

; 112  : 		}
; 113  : 	}
; 114  : 	else

  000f8	eb 07		 jmp	 SHORT $LN3@response_t
$LN2@response_t:

; 115  : 	{
; 116  : 		aggressor = NULL;

  000fa	c7 45 fc 00 00
	00 00		 mov	 DWORD PTR _aggressor$[ebp], 0
$LN3@response_t:

; 117  : 	}
; 118  : 
; 119  : 	damage_client_server_entity (receiver, sender, damage_modifier);

  00101	51		 push	 ecx
  00102	f3 0f 10 45 f4	 movss	 xmm0, DWORD PTR _damage_modifier$[ebp]
  00107	f3 0f 11 04 24	 movss	 DWORD PTR [esp], xmm0
  0010c	8b 45 10	 mov	 eax, DWORD PTR _sender$[ebp]
  0010f	50		 push	 eax
  00110	8b 4d 0c	 mov	 ecx, DWORD PTR _receiver$[ebp]
  00113	51		 push	 ecx
  00114	e8 00 00 00 00	 call	 ?damage_client_server_entity@@YGHPAUENTITY@@0M@Z ; damage_client_server_entity

; 120  : 
; 121  : 	total_damage_level = get_local_entity_int_value (receiver, INT_TYPE_DAMAGE_LEVEL);

  00119	83 7d 0c 00	 cmp	 DWORD PTR _receiver$[ebp], 0
  0011d	74 0a		 je	 SHORT $LN20@response_t
  0011f	8b 45 0c	 mov	 eax, DWORD PTR _receiver$[ebp]
  00122	8b 08		 mov	 ecx, DWORD PTR [eax]
  00124	89 4d b0	 mov	 DWORD PTR tv139[ebp], ecx
  00127	eb 21		 jmp	 SHORT $LN21@response_t
$LN20@response_t:
  00129	8b 15 00 00 00
	00		 mov	 edx, DWORD PTR ?__LINE__Var@?0??response_to_collision@@YGHW4ENTITY_MESSAGES@@PAUENTITY@@1PAD@Z@4JA
  0012f	83 c2 29	 add	 edx, 41			; 00000029H
  00132	52		 push	 edx
  00133	68 00 00 00 00	 push	 OFFSET ??_C@_0EM@LNJCOGB@c?3?2users?2nhv90?2projects?2eech?2ap@
  00138	a1 00 00 00 00	 mov	 eax, DWORD PTR ?null_entity_pointer_message@@3PBDB ; null_entity_pointer_message
  0013d	50		 push	 eax
  0013e	e8 00 00 00 00	 call	 ?process_assert@@YGXPBD0H@Z ; process_assert
  00143	c7 45 b0 00 00
	00 00		 mov	 DWORD PTR tv139[ebp], 0
$LN21@response_t:
  0014a	b9 01 00 00 00	 mov	 ecx, 1
  0014f	85 c9		 test	 ecx, ecx
  00151	74 09		 je	 SHORT $LN22@response_t
  00153	c7 45 ac 25 00
	00 00		 mov	 DWORD PTR tv147[ebp], 37 ; 00000025H
  0015a	eb 21		 jmp	 SHORT $LN23@response_t
$LN22@response_t:
  0015c	8b 15 00 00 00
	00		 mov	 edx, DWORD PTR ?__LINE__Var@?0??response_to_collision@@YGHW4ENTITY_MESSAGES@@PAUENTITY@@1PAD@Z@4JA
  00162	83 c2 29	 add	 edx, 41			; 00000029H
  00165	52		 push	 edx
  00166	68 00 00 00 00	 push	 OFFSET ??_C@_0EM@LNJCOGB@c?3?2users?2nhv90?2projects?2eech?2ap@
  0016b	a1 00 00 00 00	 mov	 eax, DWORD PTR ?overload_invalid_int_type_message@@3PBDB ; overload_invalid_int_type_message
  00170	50		 push	 eax
  00171	e8 00 00 00 00	 call	 ?process_assert@@YGXPBD0H@Z ; process_assert
  00176	c7 45 ac 00 00
	00 00		 mov	 DWORD PTR tv147[ebp], 0
$LN23@response_t:
  0017d	6a 25		 push	 37			; 00000025H
  0017f	8b 4d 0c	 mov	 ecx, DWORD PTR _receiver$[ebp]
  00182	51		 push	 ecx
  00183	69 55 b0 5c 04
	00 00		 imul	 edx, DWORD PTR tv139[ebp], 1116
  0018a	8b 45 ac	 mov	 eax, DWORD PTR tv147[ebp]
  0018d	8b 8c 82 00 00
	00 00		 mov	 ecx, DWORD PTR ?fn_get_local_entity_int_value@@3PAY0BBH@P6GHPAUENTITY@@W4INT_TYPES@@@ZA[edx+eax*4]
  00194	ff d1		 call	 ecx
  00196	89 45 f8	 mov	 DWORD PTR _total_damage_level$[ebp], eax

; 122  : 
; 123  : 	if (total_damage_level <= 0)

  00199	83 7d f8 00	 cmp	 DWORD PTR _total_damage_level$[ebp], 0
  0019d	0f 8f 00 02 00
	00		 jg	 $LN7@response_t

; 124  : 	{
; 125  : 		if (aggressor)

  001a3	83 7d fc 00	 cmp	 DWORD PTR _aggressor$[ebp], 0
  001a7	0f 84 ac 01 00
	00		 je	 $LN12@response_t

; 126  : 		{
; 127  : 			if (get_local_entity_float_value (receiver, FLOAT_TYPE_FIXED_OBJECT_IMPORTANCE) >= 0.5)

  001ad	83 7d 0c 00	 cmp	 DWORD PTR _receiver$[ebp], 0
  001b1	74 0a		 je	 SHORT $LN24@response_t
  001b3	8b 45 0c	 mov	 eax, DWORD PTR _receiver$[ebp]
  001b6	8b 08		 mov	 ecx, DWORD PTR [eax]
  001b8	89 4d b0	 mov	 DWORD PTR tv160[ebp], ecx
  001bb	eb 1a		 jmp	 SHORT $LN25@response_t
$LN24@response_t:
  001bd	6a 7f		 push	 127			; 0000007fH
  001bf	68 00 00 00 00	 push	 OFFSET ??_C@_0EM@LNJCOGB@c?3?2users?2nhv90?2projects?2eech?2ap@
  001c4	8b 15 00 00 00
	00		 mov	 edx, DWORD PTR ?null_entity_pointer_message@@3PBDB ; null_entity_pointer_message
  001ca	52		 push	 edx
  001cb	e8 00 00 00 00	 call	 ?process_assert@@YGXPBD0H@Z ; process_assert
  001d0	c7 45 b0 00 00
	00 00		 mov	 DWORD PTR tv160[ebp], 0
$LN25@response_t:
  001d7	b8 01 00 00 00	 mov	 eax, 1
  001dc	85 c0		 test	 eax, eax
  001de	74 09		 je	 SHORT $LN26@response_t
  001e0	c7 45 ac 27 00
	00 00		 mov	 DWORD PTR tv167[ebp], 39 ; 00000027H
  001e7	eb 1a		 jmp	 SHORT $LN27@response_t
$LN26@response_t:
  001e9	6a 7f		 push	 127			; 0000007fH
  001eb	68 00 00 00 00	 push	 OFFSET ??_C@_0EM@LNJCOGB@c?3?2users?2nhv90?2projects?2eech?2ap@
  001f0	8b 0d 00 00 00
	00		 mov	 ecx, DWORD PTR ?overload_invalid_float_type_message@@3PBDB ; overload_invalid_float_type_message
  001f6	51		 push	 ecx
  001f7	e8 00 00 00 00	 call	 ?process_assert@@YGXPBD0H@Z ; process_assert
  001fc	c7 45 ac 00 00
	00 00		 mov	 DWORD PTR tv167[ebp], 0
$LN27@response_t:
  00203	6a 27		 push	 39			; 00000027H
  00205	8b 55 0c	 mov	 edx, DWORD PTR _receiver$[ebp]
  00208	52		 push	 edx
  00209	69 45 b0 bc 02
	00 00		 imul	 eax, DWORD PTR tv160[ebp], 700
  00210	8b 4d ac	 mov	 ecx, DWORD PTR tv167[ebp]
  00213	8b 94 88 00 00
	00 00		 mov	 edx, DWORD PTR ?fn_get_local_entity_float_value@@3PAY0KP@P6GMPAUENTITY@@W4FLOAT_TYPES@@@ZA[eax+ecx*4]
  0021a	ff d2		 call	 edx
  0021c	dd 5d a4	 fstp	 QWORD PTR tv278[ebp]
  0021f	f2 0f 10 45 a4	 movsd	 xmm0, QWORD PTR tv278[ebp]
  00224	66 0f 2f 05 00
	00 00 00	 comisd	 xmm0, QWORD PTR __real@3fe0000000000000
  0022c	0f 82 27 01 00
	00		 jb	 $LN12@response_t

; 128  : 			{
; 129  : 				if (get_local_entity_int_value (aggressor, INT_TYPE_PLAYER) == ENTITY_PLAYER_LOCAL)

  00232	83 7d fc 00	 cmp	 DWORD PTR _aggressor$[ebp], 0
  00236	74 0a		 je	 SHORT $LN28@response_t
  00238	8b 45 fc	 mov	 eax, DWORD PTR _aggressor$[ebp]
  0023b	8b 08		 mov	 ecx, DWORD PTR [eax]
  0023d	89 4d b0	 mov	 DWORD PTR tv180[ebp], ecx
  00240	eb 1d		 jmp	 SHORT $LN29@response_t
$LN28@response_t:
  00242	68 81 00 00 00	 push	 129			; 00000081H
  00247	68 00 00 00 00	 push	 OFFSET ??_C@_0EM@LNJCOGB@c?3?2users?2nhv90?2projects?2eech?2ap@
  0024c	8b 15 00 00 00
	00		 mov	 edx, DWORD PTR ?null_entity_pointer_message@@3PBDB ; null_entity_pointer_message
  00252	52		 push	 edx
  00253	e8 00 00 00 00	 call	 ?process_assert@@YGXPBD0H@Z ; process_assert
  00258	c7 45 b0 00 00
	00 00		 mov	 DWORD PTR tv180[ebp], 0
$LN29@response_t:
  0025f	b8 01 00 00 00	 mov	 eax, 1
  00264	85 c0		 test	 eax, eax
  00266	74 09		 je	 SHORT $LN30@response_t
  00268	c7 45 ac 9c 00
	00 00		 mov	 DWORD PTR tv187[ebp], 156 ; 0000009cH
  0026f	eb 1d		 jmp	 SHORT $LN31@response_t
$LN30@response_t:
  00271	68 81 00 00 00	 push	 129			; 00000081H
  00276	68 00 00 00 00	 push	 OFFSET ??_C@_0EM@LNJCOGB@c?3?2users?2nhv90?2projects?2eech?2ap@
  0027b	8b 0d 00 00 00
	00		 mov	 ecx, DWORD PTR ?overload_invalid_int_type_message@@3PBDB ; overload_invalid_int_type_message
  00281	51		 push	 ecx
  00282	e8 00 00 00 00	 call	 ?process_assert@@YGXPBD0H@Z ; process_assert
  00287	c7 45 ac 00 00
	00 00		 mov	 DWORD PTR tv187[ebp], 0
$LN31@response_t:
  0028e	68 9c 00 00 00	 push	 156			; 0000009cH
  00293	8b 55 fc	 mov	 edx, DWORD PTR _aggressor$[ebp]
  00296	52		 push	 edx
  00297	69 45 b0 5c 04
	00 00		 imul	 eax, DWORD PTR tv180[ebp], 1116
  0029e	8b 4d ac	 mov	 ecx, DWORD PTR tv187[ebp]
  002a1	8b 94 88 00 00
	00 00		 mov	 edx, DWORD PTR ?fn_get_local_entity_int_value@@3PAY0BBH@P6GHPAUENTITY@@W4INT_TYPES@@@ZA[eax+ecx*4]
  002a8	ff d2		 call	 edx
  002aa	83 f8 01	 cmp	 eax, 1
  002ad	75 1b		 jne	 SHORT $LN10@response_t

; 130  : 				{
; 131  : 					inc_player_log_kills (get_global_gunship_side (), get_current_player_log (), receiver);

  002af	8b 45 0c	 mov	 eax, DWORD PTR _receiver$[ebp]
  002b2	50		 push	 eax
  002b3	e8 00 00 00 00	 call	 ?get_current_player_log@@YGPAUPLAYER_LOG_TYPE@@XZ ; get_current_player_log
  002b8	50		 push	 eax
  002b9	8b 0d 08 00 00
	00		 mov	 ecx, DWORD PTR ?global_options@@3UGLOBAL_OPTIONS_DATA@@A+8
  002bf	51		 push	 ecx
  002c0	e8 00 00 00 00	 call	 ?inc_player_log_kills@@YGXHPAUPLAYER_LOG_TYPE@@PAUENTITY@@@Z ; inc_player_log_kills
  002c5	e9 8f 00 00 00	 jmp	 $LN12@response_t
$LN10@response_t:

; 132  : 				}
; 133  : 				else if (get_local_entity_int_value (aggressor, INT_TYPE_PLAYER) == ENTITY_PLAYER_REMOTE)

  002ca	83 7d fc 00	 cmp	 DWORD PTR _aggressor$[ebp], 0
  002ce	74 0a		 je	 SHORT $LN32@response_t
  002d0	8b 45 fc	 mov	 eax, DWORD PTR _aggressor$[ebp]
  002d3	8b 08		 mov	 ecx, DWORD PTR [eax]
  002d5	89 4d b0	 mov	 DWORD PTR tv203[ebp], ecx
  002d8	eb 1d		 jmp	 SHORT $LN33@response_t
$LN32@response_t:
  002da	68 85 00 00 00	 push	 133			; 00000085H
  002df	68 00 00 00 00	 push	 OFFSET ??_C@_0EM@LNJCOGB@c?3?2users?2nhv90?2projects?2eech?2ap@
  002e4	8b 15 00 00 00
	00		 mov	 edx, DWORD PTR ?null_entity_pointer_message@@3PBDB ; null_entity_pointer_message
  002ea	52		 push	 edx
  002eb	e8 00 00 00 00	 call	 ?process_assert@@YGXPBD0H@Z ; process_assert
  002f0	c7 45 b0 00 00
	00 00		 mov	 DWORD PTR tv203[ebp], 0
$LN33@response_t:
  002f7	b8 01 00 00 00	 mov	 eax, 1
  002fc	85 c0		 test	 eax, eax
  002fe	74 09		 je	 SHORT $LN34@response_t
  00300	c7 45 ac 9c 00
	00 00		 mov	 DWORD PTR tv210[ebp], 156 ; 0000009cH
  00307	eb 1d		 jmp	 SHORT $LN35@response_t
$LN34@response_t:
  00309	68 85 00 00 00	 push	 133			; 00000085H
  0030e	68 00 00 00 00	 push	 OFFSET ??_C@_0EM@LNJCOGB@c?3?2users?2nhv90?2projects?2eech?2ap@
  00313	8b 0d 00 00 00
	00		 mov	 ecx, DWORD PTR ?overload_invalid_int_type_message@@3PBDB ; overload_invalid_int_type_message
  00319	51		 push	 ecx
  0031a	e8 00 00 00 00	 call	 ?process_assert@@YGXPBD0H@Z ; process_assert
  0031f	c7 45 ac 00 00
	00 00		 mov	 DWORD PTR tv210[ebp], 0
$LN35@response_t:
  00326	68 9c 00 00 00	 push	 156			; 0000009cH
  0032b	8b 55 fc	 mov	 edx, DWORD PTR _aggressor$[ebp]
  0032e	52		 push	 edx
  0032f	69 45 b0 5c 04
	00 00		 imul	 eax, DWORD PTR tv203[ebp], 1116
  00336	8b 4d ac	 mov	 ecx, DWORD PTR tv210[ebp]
  00339	8b 94 88 00 00
	00 00		 mov	 edx, DWORD PTR ?fn_get_local_entity_int_value@@3PAY0BBH@P6GHPAUENTITY@@W4INT_TYPES@@@ZA[eax+ecx*4]
  00340	ff d2		 call	 edx
  00342	83 f8 02	 cmp	 eax, 2
  00345	75 12		 jne	 SHORT $LN12@response_t

; 134  : 				{
; 135  : 					transmit_entity_comms_message (ENTITY_COMMS_PLAYER_KILL, aggressor, receiver);

  00347	8b 45 0c	 mov	 eax, DWORD PTR _receiver$[ebp]
  0034a	50		 push	 eax
  0034b	8b 4d fc	 mov	 ecx, DWORD PTR _aggressor$[ebp]
  0034e	51		 push	 ecx
  0034f	6a 25		 push	 37			; 00000025H
  00351	e8 00 00 00 00	 call	 ?transmit_entity_comms_message@@YAXW4ENTITY_COMMS_MESSAGES@@PAUENTITY@@ZZ ; transmit_entity_comms_message
  00356	83 c4 0c	 add	 esp, 12			; 0000000cH
$LN12@response_t:

; 136  : 				}
; 137  : 			}
; 138  : 		}
; 139  : 
; 140  : 		kill_client_server_entity (receiver);

  00359	83 7d 0c 00	 cmp	 DWORD PTR _receiver$[ebp], 0
  0035d	74 0a		 je	 SHORT $LN36@response_t
  0035f	8b 45 0c	 mov	 eax, DWORD PTR _receiver$[ebp]
  00362	8b 08		 mov	 ecx, DWORD PTR [eax]
  00364	89 4d b0	 mov	 DWORD PTR tv226[ebp], ecx
  00367	eb 21		 jmp	 SHORT $LN37@response_t
$LN36@response_t:
  00369	8b 15 00 00 00
	00		 mov	 edx, DWORD PTR ?__LINE__Var@?0??response_to_collision@@YGHW4ENTITY_MESSAGES@@PAUENTITY@@1PAD@Z@4JA
  0036f	83 c2 3c	 add	 edx, 60			; 0000003cH
  00372	52		 push	 edx
  00373	68 00 00 00 00	 push	 OFFSET ??_C@_0EM@LNJCOGB@c?3?2users?2nhv90?2projects?2eech?2ap@
  00378	a1 00 00 00 00	 mov	 eax, DWORD PTR ?null_entity_pointer_message@@3PBDB ; null_entity_pointer_message
  0037d	50		 push	 eax
  0037e	e8 00 00 00 00	 call	 ?process_assert@@YGXPBD0H@Z ; process_assert
  00383	c7 45 b0 00 00
	00 00		 mov	 DWORD PTR tv226[ebp], 0
$LN37@response_t:
  0038a	8b 4d 0c	 mov	 ecx, DWORD PTR _receiver$[ebp]
  0038d	51		 push	 ecx
  0038e	8b 15 00 00 00
	00		 mov	 edx, DWORD PTR ?system_comms_model@@3W4COMMS_MODEL_TYPES@@A ; system_comms_model
  00394	c1 e2 02	 shl	 edx, 2
  00397	8b 45 b0	 mov	 eax, DWORD PTR tv226[ebp]
  0039a	8b 8c c2 00 00
	00 00		 mov	 ecx, DWORD PTR ?fn_kill_client_server_entity@@3PAY01P6GXPAUENTITY@@@ZA[edx+eax*8]
  003a1	ff d1		 call	 ecx
$LN7@response_t:

; 141  : 	}
; 142  : 
; 143  : 	return (TRUE);

  003a3	b8 01 00 00 00	 mov	 eax, 1

; 144  : }

  003a8	5f		 pop	 edi
  003a9	5e		 pop	 esi
  003aa	5b		 pop	 ebx
  003ab	8b e5		 mov	 esp, ebp
  003ad	5d		 pop	 ebp
  003ae	c2 10 00	 ret	 16			; 00000010H
?response_to_collision@@YGHW4ENTITY_MESSAGES@@PAUENTITY@@1PAD@Z ENDP ; response_to_collision
_TEXT	ENDS
; Function compile flags: /Odtp /ZI
; File c:\users\nhv90\projects\eech\aphavoc\source\entity\fixed\siteupdt\su_msgs.c
;	COMDAT ?overload_site_updatable_message_responses@@YGXXZ
_TEXT	SEGMENT
?overload_site_updatable_message_responses@@YGXXZ PROC	; overload_site_updatable_message_responses, COMDAT

; 260  : {

  00000	55		 push	 ebp
  00001	8b ec		 mov	 ebp, esp
  00003	83 ec 40	 sub	 esp, 64			; 00000040H
  00006	53		 push	 ebx
  00007	56		 push	 esi
  00008	57		 push	 edi

; 261  : 	overload_fixed_message_responses (ENTITY_TYPE_SITE_UPDATABLE);

  00009	6a 1e		 push	 30			; 0000001eH
  0000b	e8 00 00 00 00	 call	 ?overload_fixed_message_responses@@YGXW4ENTITY_TYPES@@@Z ; overload_fixed_message_responses

; 262  : 
; 263  : 	message_responses[ENTITY_TYPE_SITE_UPDATABLE][ENTITY_MESSAGE_COLLISION]						= response_to_collision;

  00010	b8 84 01 00 00	 mov	 eax, 388		; 00000184H
  00015	6b c8 1e	 imul	 ecx, eax, 30
  00018	ba 04 00 00 00	 mov	 edx, 4
  0001d	6b c2 07	 imul	 eax, edx, 7
  00020	c7 84 01 00 00
	00 00 00 00 00
	00		 mov	 DWORD PTR ?message_responses@@3PAY0GB@P6GHW4ENTITY_MESSAGES@@PAUENTITY@@1PAD@ZA[ecx+eax], OFFSET ?response_to_collision@@YGHW4ENTITY_MESSAGES@@PAUENTITY@@1PAD@Z ; response_to_collision

; 264  : 
; 265  : 	message_responses[ENTITY_TYPE_SITE_UPDATABLE][ENTITY_MESSAGE_ARTICULATE_LOADING_DOORS]	= response_to_articulate_loading_doors;

  0002b	b8 84 01 00 00	 mov	 eax, 388		; 00000184H
  00030	6b c8 1e	 imul	 ecx, eax, 30
  00033	ba 04 00 00 00	 mov	 edx, 4
  00038	c1 e2 00	 shl	 edx, 0
  0003b	c7 84 11 00 00
	00 00 00 00 00
	00		 mov	 DWORD PTR ?message_responses@@3PAY0GB@P6GHW4ENTITY_MESSAGES@@PAUENTITY@@1PAD@ZA[ecx+edx], OFFSET ?response_to_articulate_loading_doors@@YGHW4ENTITY_MESSAGES@@PAUENTITY@@1PAD@Z ; response_to_articulate_loading_doors

; 266  : 
; 267  : 	#if DEBUG_MODULE
; 268  : 
; 269  : 	message_responses[ENTITY_TYPE_SITE_UPDATABLE][ENTITY_MESSAGE_LINK_CHILD]		= response_to_link_child;
; 270  : 
; 271  : 	message_responses[ENTITY_TYPE_SITE_UPDATABLE][ENTITY_MESSAGE_UNLINK_CHILD]		= response_to_unlink_child;
; 272  : 
; 273  : 	message_responses[ENTITY_TYPE_SITE_UPDATABLE][ENTITY_MESSAGE_LINK_PARENT]		= response_to_link_parent;
; 274  : 
; 275  : 	message_responses[ENTITY_TYPE_SITE_UPDATABLE][ENTITY_MESSAGE_UNLINK_PARENT]	= response_to_unlink_parent;
; 276  : 
; 277  : 	#endif
; 278  : }

  00046	5f		 pop	 edi
  00047	5e		 pop	 esi
  00048	5b		 pop	 ebx
  00049	8b e5		 mov	 esp, ebp
  0004b	5d		 pop	 ebp
  0004c	c3		 ret	 0
?overload_site_updatable_message_responses@@YGXXZ ENDP	; overload_site_updatable_message_responses
_TEXT	ENDS
END
