; Listing generated by Microsoft (R) Optimizing Compiler Version 19.16.27045.0 

	TITLE	C:\Users\nhv90\Projects\eech\aphavoc\source\misc\terr_db.c
	.686P
	.XMM
	include listing.inc
	.model	flat

INCLUDELIB MSVCRTD
INCLUDELIB OLDNAMES

PUBLIC	?get_terrain_type_class@@YG?AW4TERRAIN_CLASSES@@H@Z ; get_terrain_type_class
PUBLIC	?get_terrain_type_draw_crater@@YGHH@Z		; get_terrain_type_draw_crater
PUBLIC	?get_terrain_type_raised@@YGHH@Z		; get_terrain_type_raised
PUBLIC	?get_terrain_type_suitable_for_ground_vehicle@@YGHH@Z ; get_terrain_type_suitable_for_ground_vehicle
PUBLIC	?initialise_terrain_database@@YGXXZ		; initialise_terrain_database
PUBLIC	?set_terrain_database_element@@YGXHW4TERRAIN_CLASSES@@HHH@Z ; set_terrain_database_element
PUBLIC	?__LINE__Var@?0??set_terrain_database_element@@YGXHW4TERRAIN_CLASSES@@HHH@Z@4JA ; `set_terrain_database_element'::`1'::__LINE__Var
PUBLIC	??_C@_0DL@IOLMKLH@c?3?2users?2nhv90?2projects?2eech?2ap@ ; `string'
PUBLIC	??_C@_0BN@FJDNBEDG@type?5?$DO?$DN?5TERRAIN_TYPE_INVALID@ ; `string'
PUBLIC	??_C@_0BJ@IIOCGBGE@type?5?$DM?5TERRAIN_TYPE_LAST@ ; `string'
PUBLIC	?__LINE__Var@?0??get_terrain_type_class@@YG?AW4TERRAIN_CLASSES@@H@Z@4JA ; `get_terrain_type_class'::`1'::__LINE__Var
PUBLIC	?__LINE__Var@?0??get_terrain_type_draw_crater@@YGHH@Z@4JA ; `get_terrain_type_draw_crater'::`1'::__LINE__Var
PUBLIC	?__LINE__Var@?0??get_terrain_type_raised@@YGHH@Z@4JA ; `get_terrain_type_raised'::`1'::__LINE__Var
PUBLIC	?__LINE__Var@?0??get_terrain_type_suitable_for_ground_vehicle@@YGHH@Z@4JA ; `get_terrain_type_suitable_for_ground_vehicle'::`1'::__LINE__Var
EXTRN	?process_assert@@YGXPBD0H@Z:PROC		; process_assert
_BSS	SEGMENT
?terrain_database@@3PAUTERRAIN_DATABASE_TYPE@@A DQ 03eH DUP (?) ; terrain_database
_BSS	ENDS
;	COMDAT ?__LINE__Var@?0??get_terrain_type_suitable_for_ground_vehicle@@YGHH@Z@4JA
_DATA	SEGMENT
?__LINE__Var@?0??get_terrain_type_suitable_for_ground_vehicle@@YGHH@Z@4JA DD 08eH ; `get_terrain_type_suitable_for_ground_vehicle'::`1'::__LINE__Var
_DATA	ENDS
;	COMDAT ?__LINE__Var@?0??get_terrain_type_raised@@YGHH@Z@4JA
_DATA	SEGMENT
?__LINE__Var@?0??get_terrain_type_raised@@YGHH@Z@4JA DD 082H ; `get_terrain_type_raised'::`1'::__LINE__Var
_DATA	ENDS
;	COMDAT ?__LINE__Var@?0??get_terrain_type_draw_crater@@YGHH@Z@4JA
_DATA	SEGMENT
?__LINE__Var@?0??get_terrain_type_draw_crater@@YGHH@Z@4JA DD 076H ; `get_terrain_type_draw_crater'::`1'::__LINE__Var
_DATA	ENDS
;	COMDAT ?__LINE__Var@?0??get_terrain_type_class@@YG?AW4TERRAIN_CLASSES@@H@Z@4JA
_DATA	SEGMENT
?__LINE__Var@?0??get_terrain_type_class@@YG?AW4TERRAIN_CLASSES@@H@Z@4JA DD 06aH ; `get_terrain_type_class'::`1'::__LINE__Var
_DATA	ENDS
;	COMDAT ??_C@_0BJ@IIOCGBGE@type?5?$DM?5TERRAIN_TYPE_LAST@
CONST	SEGMENT
??_C@_0BJ@IIOCGBGE@type?5?$DM?5TERRAIN_TYPE_LAST@ DB 'type < TERRAIN_TYPE'
	DB	'_LAST', 00H					; `string'
CONST	ENDS
;	COMDAT ??_C@_0BN@FJDNBEDG@type?5?$DO?$DN?5TERRAIN_TYPE_INVALID@
CONST	SEGMENT
??_C@_0BN@FJDNBEDG@type?5?$DO?$DN?5TERRAIN_TYPE_INVALID@ DB 'type >= TERR'
	DB	'AIN_TYPE_INVALID', 00H			; `string'
CONST	ENDS
;	COMDAT ??_C@_0DL@IOLMKLH@c?3?2users?2nhv90?2projects?2eech?2ap@
CONST	SEGMENT
??_C@_0DL@IOLMKLH@c?3?2users?2nhv90?2projects?2eech?2ap@ DB 'c:\users\nhv'
	DB	'90\projects\eech\aphavoc\source\misc\terr_db.c', 00H ; `string'
CONST	ENDS
;	COMDAT ?__LINE__Var@?0??set_terrain_database_element@@YGXHW4TERRAIN_CLASSES@@HHH@Z@4JA
_DATA	SEGMENT
?__LINE__Var@?0??set_terrain_database_element@@YGXHW4TERRAIN_CLASSES@@HHH@Z@4JA DD 057H ; `set_terrain_database_element'::`1'::__LINE__Var
_DATA	ENDS
; Function compile flags: /Odtp /ZI
; File c:\users\nhv90\projects\eech\aphavoc\source\misc\terr_db.c
;	COMDAT ?set_terrain_database_element@@YGXHW4TERRAIN_CLASSES@@HHH@Z
_TEXT	SEGMENT
_type$ = 8						; size = 4
_terr_class$ = 12					; size = 4
_draw_crater$ = 16					; size = 4
_raised$ = 20						; size = 4
_suitable_for_ground_vehicle$ = 24			; size = 4
?set_terrain_database_element@@YGXHW4TERRAIN_CLASSES@@HHH@Z PROC ; set_terrain_database_element, COMDAT

; 87   : {

  00000	55		 push	 ebp
  00001	8b ec		 mov	 ebp, esp
  00003	83 ec 40	 sub	 esp, 64			; 00000040H
  00006	53		 push	 ebx
  00007	56		 push	 esi
  00008	57		 push	 edi

; 88   : 
; 89   : 	ASSERT (type >= TERRAIN_TYPE_INVALID);

  00009	83 7d 08 00	 cmp	 DWORD PTR _type$[ebp], 0
  0000d	7d 18		 jge	 SHORT $LN2@set_terrai
  0000f	a1 00 00 00 00	 mov	 eax, DWORD PTR ?__LINE__Var@?0??set_terrain_database_element@@YGXHW4TERRAIN_CLASSES@@HHH@Z@4JA
  00014	83 c0 02	 add	 eax, 2
  00017	50		 push	 eax
  00018	68 00 00 00 00	 push	 OFFSET ??_C@_0DL@IOLMKLH@c?3?2users?2nhv90?2projects?2eech?2ap@
  0001d	68 00 00 00 00	 push	 OFFSET ??_C@_0BN@FJDNBEDG@type?5?$DO?$DN?5TERRAIN_TYPE_INVALID@
  00022	e8 00 00 00 00	 call	 ?process_assert@@YGXPBD0H@Z ; process_assert
$LN2@set_terrai:

; 90   : 	ASSERT (type < TERRAIN_TYPE_LAST);

  00027	83 7d 08 3e	 cmp	 DWORD PTR _type$[ebp], 62 ; 0000003eH
  0002b	7c 18		 jl	 SHORT $LN3@set_terrai
  0002d	a1 00 00 00 00	 mov	 eax, DWORD PTR ?__LINE__Var@?0??set_terrain_database_element@@YGXHW4TERRAIN_CLASSES@@HHH@Z@4JA
  00032	83 c0 03	 add	 eax, 3
  00035	50		 push	 eax
  00036	68 00 00 00 00	 push	 OFFSET ??_C@_0DL@IOLMKLH@c?3?2users?2nhv90?2projects?2eech?2ap@
  0003b	68 00 00 00 00	 push	 OFFSET ??_C@_0BJ@IIOCGBGE@type?5?$DM?5TERRAIN_TYPE_LAST@
  00040	e8 00 00 00 00	 call	 ?process_assert@@YGXPBD0H@Z ; process_assert
$LN3@set_terrai:

; 91   : 
; 92   : 	terrain_database [type].terr_class = terr_class;

  00045	8b 45 08	 mov	 eax, DWORD PTR _type$[ebp]
  00048	8b 4d 0c	 mov	 ecx, DWORD PTR _terr_class$[ebp]
  0004b	89 0c c5 00 00
	00 00		 mov	 DWORD PTR ?terrain_database@@3PAUTERRAIN_DATABASE_TYPE@@A[eax*8], ecx

; 93   : 
; 94   : 	terrain_database [type].draw_crater = draw_crater;

  00052	8b 45 10	 mov	 eax, DWORD PTR _draw_crater$[ebp]
  00055	83 e0 01	 and	 eax, 1
  00058	8b 4d 08	 mov	 ecx, DWORD PTR _type$[ebp]
  0005b	8b 14 cd 04 00
	00 00		 mov	 edx, DWORD PTR ?terrain_database@@3PAUTERRAIN_DATABASE_TYPE@@A[ecx*8+4]
  00062	83 e2 fe	 and	 edx, -2			; fffffffeH
  00065	0b d0		 or	 edx, eax
  00067	8b 45 08	 mov	 eax, DWORD PTR _type$[ebp]
  0006a	89 14 c5 04 00
	00 00		 mov	 DWORD PTR ?terrain_database@@3PAUTERRAIN_DATABASE_TYPE@@A[eax*8+4], edx

; 95   : 
; 96   : 	terrain_database [type].raised = raised;

  00071	8b 45 14	 mov	 eax, DWORD PTR _raised$[ebp]
  00074	83 e0 01	 and	 eax, 1
  00077	d1 e0		 shl	 eax, 1
  00079	8b 4d 08	 mov	 ecx, DWORD PTR _type$[ebp]
  0007c	8b 14 cd 04 00
	00 00		 mov	 edx, DWORD PTR ?terrain_database@@3PAUTERRAIN_DATABASE_TYPE@@A[ecx*8+4]
  00083	83 e2 fd	 and	 edx, -3			; fffffffdH
  00086	0b d0		 or	 edx, eax
  00088	8b 45 08	 mov	 eax, DWORD PTR _type$[ebp]
  0008b	89 14 c5 04 00
	00 00		 mov	 DWORD PTR ?terrain_database@@3PAUTERRAIN_DATABASE_TYPE@@A[eax*8+4], edx

; 97   : 
; 98   : 	terrain_database [type].suitable_for_ground_vehicle = suitable_for_ground_vehicle;

  00092	8b 45 18	 mov	 eax, DWORD PTR _suitable_for_ground_vehicle$[ebp]
  00095	83 e0 01	 and	 eax, 1
  00098	c1 e0 02	 shl	 eax, 2
  0009b	8b 4d 08	 mov	 ecx, DWORD PTR _type$[ebp]
  0009e	8b 14 cd 04 00
	00 00		 mov	 edx, DWORD PTR ?terrain_database@@3PAUTERRAIN_DATABASE_TYPE@@A[ecx*8+4]
  000a5	83 e2 fb	 and	 edx, -5			; fffffffbH
  000a8	0b d0		 or	 edx, eax
  000aa	8b 45 08	 mov	 eax, DWORD PTR _type$[ebp]
  000ad	89 14 c5 04 00
	00 00		 mov	 DWORD PTR ?terrain_database@@3PAUTERRAIN_DATABASE_TYPE@@A[eax*8+4], edx

; 99   : }

  000b4	5f		 pop	 edi
  000b5	5e		 pop	 esi
  000b6	5b		 pop	 ebx
  000b7	8b e5		 mov	 esp, ebp
  000b9	5d		 pop	 ebp
  000ba	c2 14 00	 ret	 20			; 00000014H
?set_terrain_database_element@@YGXHW4TERRAIN_CLASSES@@HHH@Z ENDP ; set_terrain_database_element
_TEXT	ENDS
; Function compile flags: /Odtp /ZI
; File c:\users\nhv90\projects\eech\aphavoc\source\misc\terr_db.c
;	COMDAT ?initialise_terrain_database@@YGXXZ
_TEXT	SEGMENT
?initialise_terrain_database@@YGXXZ PROC		; initialise_terrain_database, COMDAT

; 154  : {

  00000	55		 push	 ebp
  00001	8b ec		 mov	 ebp, esp
  00003	83 ec 40	 sub	 esp, 64			; 00000040H
  00006	53		 push	 ebx
  00007	56		 push	 esi
  00008	57		 push	 edi

; 155  : 
; 156  : 	//
; 157  : 	// parameters : (type, terr_class, draw_crater, raised, suitable_for_ground_vehicle)
; 158  : 	//
; 159  : 
; 160  : 	set_terrain_database_element (TERRAIN_TYPE_INVALID, TERRAIN_CLASS_INVALID, FALSE, FALSE, FALSE);

  00009	6a 00		 push	 0
  0000b	6a 00		 push	 0
  0000d	6a 00		 push	 0
  0000f	6a 00		 push	 0
  00011	6a 00		 push	 0
  00013	e8 00 00 00 00	 call	 ?set_terrain_database_element@@YGXHW4TERRAIN_CLASSES@@HHH@Z ; set_terrain_database_element

; 161  : 
; 162  : 	// Sunken features tops
; 163  : 	set_terrain_database_element (TERRAIN_TYPE_RIVER, TERRAIN_CLASS_WATER, FALSE, FALSE, FALSE);

  00018	6a 00		 push	 0
  0001a	6a 00		 push	 0
  0001c	6a 00		 push	 0
  0001e	6a 01		 push	 1
  00020	6a 01		 push	 1
  00022	e8 00 00 00 00	 call	 ?set_terrain_database_element@@YGXHW4TERRAIN_CLASSES@@HHH@Z ; set_terrain_database_element

; 164  : 	set_terrain_database_element (TERRAIN_TYPE_RESERVOIR, TERRAIN_CLASS_WATER, FALSE, FALSE, FALSE);

  00027	6a 00		 push	 0
  00029	6a 00		 push	 0
  0002b	6a 00		 push	 0
  0002d	6a 01		 push	 1
  0002f	6a 02		 push	 2
  00031	e8 00 00 00 00	 call	 ?set_terrain_database_element@@YGXHW4TERRAIN_CLASSES@@HHH@Z ; set_terrain_database_element

; 165  : 	set_terrain_database_element (TERRAIN_TYPE_TRENCH, TERRAIN_CLASS_LAND, FALSE, TRUE, FALSE);

  00036	6a 00		 push	 0
  00038	6a 01		 push	 1
  0003a	6a 00		 push	 0
  0003c	6a 03		 push	 3
  0003e	6a 03		 push	 3
  00040	e8 00 00 00 00	 call	 ?set_terrain_database_element@@YGXHW4TERRAIN_CLASSES@@HHH@Z ; set_terrain_database_element

; 166  : 
; 167  : 	// Sunken features banks
; 168  : 	set_terrain_database_element (TERRAIN_TYPE_RIVER_BANK, TERRAIN_CLASS_LAND, TRUE, FALSE, FALSE);

  00045	6a 00		 push	 0
  00047	6a 00		 push	 0
  00049	6a 01		 push	 1
  0004b	6a 03		 push	 3
  0004d	6a 04		 push	 4
  0004f	e8 00 00 00 00	 call	 ?set_terrain_database_element@@YGXHW4TERRAIN_CLASSES@@HHH@Z ; set_terrain_database_element

; 169  : 
; 170  : 	// Regular terrain types
; 171  : 	set_terrain_database_element (TERRAIN_TYPE_SEA, TERRAIN_CLASS_WATER, FALSE, FALSE, FALSE);

  00054	6a 00		 push	 0
  00056	6a 00		 push	 0
  00058	6a 00		 push	 0
  0005a	6a 01		 push	 1
  0005c	6a 07		 push	 7
  0005e	e8 00 00 00 00	 call	 ?set_terrain_database_element@@YGXHW4TERRAIN_CLASSES@@HHH@Z ; set_terrain_database_element

; 172  : 
; 173  : 	set_terrain_database_element (TERRAIN_TYPE_BEACH, TERRAIN_CLASS_LAND, TRUE, FALSE, TRUE);

  00063	6a 01		 push	 1
  00065	6a 00		 push	 0
  00067	6a 01		 push	 1
  00069	6a 03		 push	 3
  0006b	6a 08		 push	 8
  0006d	e8 00 00 00 00	 call	 ?set_terrain_database_element@@YGXHW4TERRAIN_CLASSES@@HHH@Z ; set_terrain_database_element

; 174  : 
; 175  : 	set_terrain_database_element (TERRAIN_TYPE_LAND, TERRAIN_CLASS_LAND, TRUE, FALSE, TRUE);

  00072	6a 01		 push	 1
  00074	6a 00		 push	 0
  00076	6a 01		 push	 1
  00078	6a 03		 push	 3
  0007a	6a 09		 push	 9
  0007c	e8 00 00 00 00	 call	 ?set_terrain_database_element@@YGXHW4TERRAIN_CLASSES@@HHH@Z ; set_terrain_database_element

; 176  : 
; 177  : 	set_terrain_database_element (TERRAIN_TYPE_FIELD1, TERRAIN_CLASS_LAND, TRUE, FALSE, FALSE);

  00081	6a 00		 push	 0
  00083	6a 00		 push	 0
  00085	6a 01		 push	 1
  00087	6a 03		 push	 3
  00089	6a 0a		 push	 10			; 0000000aH
  0008b	e8 00 00 00 00	 call	 ?set_terrain_database_element@@YGXHW4TERRAIN_CLASSES@@HHH@Z ; set_terrain_database_element

; 178  : 	set_terrain_database_element (TERRAIN_TYPE_FIELD2, TERRAIN_CLASS_LAND, TRUE, FALSE, FALSE);

  00090	6a 00		 push	 0
  00092	6a 00		 push	 0
  00094	6a 01		 push	 1
  00096	6a 03		 push	 3
  00098	6a 0b		 push	 11			; 0000000bH
  0009a	e8 00 00 00 00	 call	 ?set_terrain_database_element@@YGXHW4TERRAIN_CLASSES@@HHH@Z ; set_terrain_database_element

; 179  : 	set_terrain_database_element (TERRAIN_TYPE_FIELD3, TERRAIN_CLASS_LAND, TRUE, FALSE, FALSE);

  0009f	6a 00		 push	 0
  000a1	6a 00		 push	 0
  000a3	6a 01		 push	 1
  000a5	6a 03		 push	 3
  000a7	6a 0c		 push	 12			; 0000000cH
  000a9	e8 00 00 00 00	 call	 ?set_terrain_database_element@@YGXHW4TERRAIN_CLASSES@@HHH@Z ; set_terrain_database_element

; 180  : 	set_terrain_database_element (TERRAIN_TYPE_FIELD4, TERRAIN_CLASS_LAND, TRUE, FALSE, FALSE);

  000ae	6a 00		 push	 0
  000b0	6a 00		 push	 0
  000b2	6a 01		 push	 1
  000b4	6a 03		 push	 3
  000b6	6a 0d		 push	 13			; 0000000dH
  000b8	e8 00 00 00 00	 call	 ?set_terrain_database_element@@YGXHW4TERRAIN_CLASSES@@HHH@Z ; set_terrain_database_element

; 181  : 	set_terrain_database_element (TERRAIN_TYPE_FIELD5, TERRAIN_CLASS_LAND, TRUE, FALSE, FALSE);

  000bd	6a 00		 push	 0
  000bf	6a 00		 push	 0
  000c1	6a 01		 push	 1
  000c3	6a 03		 push	 3
  000c5	6a 0e		 push	 14			; 0000000eH
  000c7	e8 00 00 00 00	 call	 ?set_terrain_database_element@@YGXHW4TERRAIN_CLASSES@@HHH@Z ; set_terrain_database_element

; 182  : 	set_terrain_database_element (TERRAIN_TYPE_FIELD6, TERRAIN_CLASS_LAND, TRUE, FALSE, FALSE);

  000cc	6a 00		 push	 0
  000ce	6a 00		 push	 0
  000d0	6a 01		 push	 1
  000d2	6a 03		 push	 3
  000d4	6a 0f		 push	 15			; 0000000fH
  000d6	e8 00 00 00 00	 call	 ?set_terrain_database_element@@YGXHW4TERRAIN_CLASSES@@HHH@Z ; set_terrain_database_element

; 183  : 	set_terrain_database_element (TERRAIN_TYPE_FIELD7, TERRAIN_CLASS_LAND, TRUE, FALSE, FALSE);

  000db	6a 00		 push	 0
  000dd	6a 00		 push	 0
  000df	6a 01		 push	 1
  000e1	6a 03		 push	 3
  000e3	6a 10		 push	 16			; 00000010H
  000e5	e8 00 00 00 00	 call	 ?set_terrain_database_element@@YGXHW4TERRAIN_CLASSES@@HHH@Z ; set_terrain_database_element

; 184  : 	set_terrain_database_element (TERRAIN_TYPE_FIELD8, TERRAIN_CLASS_LAND, TRUE, FALSE, FALSE);

  000ea	6a 00		 push	 0
  000ec	6a 00		 push	 0
  000ee	6a 01		 push	 1
  000f0	6a 03		 push	 3
  000f2	6a 11		 push	 17			; 00000011H
  000f4	e8 00 00 00 00	 call	 ?set_terrain_database_element@@YGXHW4TERRAIN_CLASSES@@HHH@Z ; set_terrain_database_element

; 185  : 	set_terrain_database_element (TERRAIN_TYPE_FIELD9, TERRAIN_CLASS_LAND, TRUE, FALSE, FALSE);

  000f9	6a 00		 push	 0
  000fb	6a 00		 push	 0
  000fd	6a 01		 push	 1
  000ff	6a 03		 push	 3
  00101	6a 12		 push	 18			; 00000012H
  00103	e8 00 00 00 00	 call	 ?set_terrain_database_element@@YGXHW4TERRAIN_CLASSES@@HHH@Z ; set_terrain_database_element

; 186  : 	set_terrain_database_element (TERRAIN_TYPE_FIELD10, TERRAIN_CLASS_LAND, TRUE, FALSE, FALSE);

  00108	6a 00		 push	 0
  0010a	6a 00		 push	 0
  0010c	6a 01		 push	 1
  0010e	6a 03		 push	 3
  00110	6a 13		 push	 19			; 00000013H
  00112	e8 00 00 00 00	 call	 ?set_terrain_database_element@@YGXHW4TERRAIN_CLASSES@@HHH@Z ; set_terrain_database_element

; 187  : 	set_terrain_database_element (TERRAIN_TYPE_FIELD11, TERRAIN_CLASS_LAND, TRUE, FALSE, FALSE);

  00117	6a 00		 push	 0
  00119	6a 00		 push	 0
  0011b	6a 01		 push	 1
  0011d	6a 03		 push	 3
  0011f	6a 14		 push	 20			; 00000014H
  00121	e8 00 00 00 00	 call	 ?set_terrain_database_element@@YGXHW4TERRAIN_CLASSES@@HHH@Z ; set_terrain_database_element

; 188  : 
; 189  : 	set_terrain_database_element (TERRAIN_TYPE_ALTERED_LAND1, TERRAIN_CLASS_LAND, TRUE, FALSE, TRUE);

  00126	6a 01		 push	 1
  00128	6a 00		 push	 0
  0012a	6a 01		 push	 1
  0012c	6a 03		 push	 3
  0012e	6a 15		 push	 21			; 00000015H
  00130	e8 00 00 00 00	 call	 ?set_terrain_database_element@@YGXHW4TERRAIN_CLASSES@@HHH@Z ; set_terrain_database_element

; 190  : 	set_terrain_database_element (TERRAIN_TYPE_ALTERED_LAND2, TERRAIN_CLASS_LAND, TRUE, FALSE, TRUE);

  00135	6a 01		 push	 1
  00137	6a 00		 push	 0
  00139	6a 01		 push	 1
  0013b	6a 03		 push	 3
  0013d	6a 16		 push	 22			; 00000016H
  0013f	e8 00 00 00 00	 call	 ?set_terrain_database_element@@YGXHW4TERRAIN_CLASSES@@HHH@Z ; set_terrain_database_element

; 191  : 	set_terrain_database_element (TERRAIN_TYPE_ALTERED_LAND3, TERRAIN_CLASS_LAND, TRUE, FALSE, TRUE);

  00144	6a 01		 push	 1
  00146	6a 00		 push	 0
  00148	6a 01		 push	 1
  0014a	6a 03		 push	 3
  0014c	6a 17		 push	 23			; 00000017H
  0014e	e8 00 00 00 00	 call	 ?set_terrain_database_element@@YGXHW4TERRAIN_CLASSES@@HHH@Z ; set_terrain_database_element

; 192  : 
; 193  : 	set_terrain_database_element (TERRAIN_TYPE_FOREST_FLOOR, TERRAIN_CLASS_LAND, TRUE, FALSE, FALSE);

  00153	6a 00		 push	 0
  00155	6a 00		 push	 0
  00157	6a 01		 push	 1
  00159	6a 03		 push	 3
  0015b	6a 18		 push	 24			; 00000018H
  0015d	e8 00 00 00 00	 call	 ?set_terrain_database_element@@YGXHW4TERRAIN_CLASSES@@HHH@Z ; set_terrain_database_element

; 194  : 
; 195  : 	// Raised features banks
; 196  : 	set_terrain_database_element (TERRAIN_TYPE_ROAD_BANK, TERRAIN_CLASS_LAND, TRUE, FALSE, TRUE);

  00162	6a 01		 push	 1
  00164	6a 00		 push	 0
  00166	6a 01		 push	 1
  00168	6a 03		 push	 3
  0016a	6a 19		 push	 25			; 00000019H
  0016c	e8 00 00 00 00	 call	 ?set_terrain_database_element@@YGXHW4TERRAIN_CLASSES@@HHH@Z ; set_terrain_database_element

; 197  : 	set_terrain_database_element (TERRAIN_TYPE_RAIL_BANK, TERRAIN_CLASS_LAND, TRUE, FALSE, TRUE);

  00171	6a 01		 push	 1
  00173	6a 00		 push	 0
  00175	6a 01		 push	 1
  00177	6a 03		 push	 3
  00179	6a 1a		 push	 26			; 0000001aH
  0017b	e8 00 00 00 00	 call	 ?set_terrain_database_element@@YGXHW4TERRAIN_CLASSES@@HHH@Z ; set_terrain_database_element

; 198  : 
; 199  : 	// Raised features sides
; 200  : 	set_terrain_database_element (TERRAIN_TYPE_HEDGE_SIDE_X, TERRAIN_CLASS_LAND, FALSE, TRUE, FALSE);

  00180	6a 00		 push	 0
  00182	6a 01		 push	 1
  00184	6a 00		 push	 0
  00186	6a 03		 push	 3
  00188	6a 1b		 push	 27			; 0000001bH
  0018a	e8 00 00 00 00	 call	 ?set_terrain_database_element@@YGXHW4TERRAIN_CLASSES@@HHH@Z ; set_terrain_database_element

; 201  : 	set_terrain_database_element (TERRAIN_TYPE_HEDGE_SIDE_Z, TERRAIN_CLASS_LAND, FALSE, TRUE, FALSE);

  0018f	6a 00		 push	 0
  00191	6a 01		 push	 1
  00193	6a 00		 push	 0
  00195	6a 03		 push	 3
  00197	6a 1c		 push	 28			; 0000001cH
  00199	e8 00 00 00 00	 call	 ?set_terrain_database_element@@YGXHW4TERRAIN_CLASSES@@HHH@Z ; set_terrain_database_element

; 202  : 	set_terrain_database_element (TERRAIN_TYPE_WALL_SIDE_X, TERRAIN_CLASS_LAND, FALSE, TRUE, FALSE);

  0019e	6a 00		 push	 0
  001a0	6a 01		 push	 1
  001a2	6a 00		 push	 0
  001a4	6a 03		 push	 3
  001a6	6a 1d		 push	 29			; 0000001dH
  001a8	e8 00 00 00 00	 call	 ?set_terrain_database_element@@YGXHW4TERRAIN_CLASSES@@HHH@Z ; set_terrain_database_element

; 203  : 	set_terrain_database_element (TERRAIN_TYPE_WALL_SIDE_Z, TERRAIN_CLASS_LAND, FALSE, TRUE, FALSE);

  001ad	6a 00		 push	 0
  001af	6a 01		 push	 1
  001b1	6a 00		 push	 0
  001b3	6a 03		 push	 3
  001b5	6a 1e		 push	 30			; 0000001eH
  001b7	e8 00 00 00 00	 call	 ?set_terrain_database_element@@YGXHW4TERRAIN_CLASSES@@HHH@Z ; set_terrain_database_element

; 204  : 	set_terrain_database_element (TERRAIN_TYPE_TRENCH_SIDE_X, TERRAIN_CLASS_LAND, FALSE, TRUE, FALSE);

  001bc	6a 00		 push	 0
  001be	6a 01		 push	 1
  001c0	6a 00		 push	 0
  001c2	6a 03		 push	 3
  001c4	6a 05		 push	 5
  001c6	e8 00 00 00 00	 call	 ?set_terrain_database_element@@YGXHW4TERRAIN_CLASSES@@HHH@Z ; set_terrain_database_element

; 205  : 	set_terrain_database_element (TERRAIN_TYPE_TRENCH_SIDE_Z, TERRAIN_CLASS_LAND, FALSE, TRUE, FALSE);

  001cb	6a 00		 push	 0
  001cd	6a 01		 push	 1
  001cf	6a 00		 push	 0
  001d1	6a 03		 push	 3
  001d3	6a 06		 push	 6
  001d5	e8 00 00 00 00	 call	 ?set_terrain_database_element@@YGXHW4TERRAIN_CLASSES@@HHH@Z ; set_terrain_database_element

; 206  : 	set_terrain_database_element (TERRAIN_TYPE_FOREST_SIDE_BOTTOM_X, TERRAIN_CLASS_FOREST, FALSE, TRUE, FALSE);

  001da	6a 00		 push	 0
  001dc	6a 01		 push	 1
  001de	6a 00		 push	 0
  001e0	6a 02		 push	 2
  001e2	6a 1f		 push	 31			; 0000001fH
  001e4	e8 00 00 00 00	 call	 ?set_terrain_database_element@@YGXHW4TERRAIN_CLASSES@@HHH@Z ; set_terrain_database_element

; 207  : 	set_terrain_database_element (TERRAIN_TYPE_FOREST_SIDE_BOTTOM_Z, TERRAIN_CLASS_FOREST, FALSE, TRUE, FALSE);

  001e9	6a 00		 push	 0
  001eb	6a 01		 push	 1
  001ed	6a 00		 push	 0
  001ef	6a 02		 push	 2
  001f1	6a 20		 push	 32			; 00000020H
  001f3	e8 00 00 00 00	 call	 ?set_terrain_database_element@@YGXHW4TERRAIN_CLASSES@@HHH@Z ; set_terrain_database_element

; 208  : 	set_terrain_database_element (TERRAIN_TYPE_FOREST_SIDE_MID_X, TERRAIN_CLASS_FOREST, FALSE, TRUE, FALSE);

  001f8	6a 00		 push	 0
  001fa	6a 01		 push	 1
  001fc	6a 00		 push	 0
  001fe	6a 02		 push	 2
  00200	6a 21		 push	 33			; 00000021H
  00202	e8 00 00 00 00	 call	 ?set_terrain_database_element@@YGXHW4TERRAIN_CLASSES@@HHH@Z ; set_terrain_database_element

; 209  : 	set_terrain_database_element (TERRAIN_TYPE_FOREST_SIDE_MID_Z, TERRAIN_CLASS_FOREST, FALSE, TRUE, FALSE);

  00207	6a 00		 push	 0
  00209	6a 01		 push	 1
  0020b	6a 00		 push	 0
  0020d	6a 02		 push	 2
  0020f	6a 22		 push	 34			; 00000022H
  00211	e8 00 00 00 00	 call	 ?set_terrain_database_element@@YGXHW4TERRAIN_CLASSES@@HHH@Z ; set_terrain_database_element

; 210  : 	set_terrain_database_element (TERRAIN_TYPE_FOREST_SIDE_TOP_X, TERRAIN_CLASS_FOREST, FALSE, TRUE, FALSE);

  00216	6a 00		 push	 0
  00218	6a 01		 push	 1
  0021a	6a 00		 push	 0
  0021c	6a 02		 push	 2
  0021e	6a 23		 push	 35			; 00000023H
  00220	e8 00 00 00 00	 call	 ?set_terrain_database_element@@YGXHW4TERRAIN_CLASSES@@HHH@Z ; set_terrain_database_element

; 211  : 	set_terrain_database_element (TERRAIN_TYPE_FOREST_SIDE_TOP_Z, TERRAIN_CLASS_FOREST, FALSE, TRUE, FALSE);

  00225	6a 00		 push	 0
  00227	6a 01		 push	 1
  00229	6a 00		 push	 0
  0022b	6a 02		 push	 2
  0022d	6a 24		 push	 36			; 00000024H
  0022f	e8 00 00 00 00	 call	 ?set_terrain_database_element@@YGXHW4TERRAIN_CLASSES@@HHH@Z ; set_terrain_database_element

; 212  : 
; 213  : 	// Raised features tops
; 214  : 	set_terrain_database_element (TERRAIN_TYPE_BUILT_UP_AREA1, TERRAIN_CLASS_LAND, TRUE, FALSE, TRUE);

  00234	6a 01		 push	 1
  00236	6a 00		 push	 0
  00238	6a 01		 push	 1
  0023a	6a 03		 push	 3
  0023c	6a 25		 push	 37			; 00000025H
  0023e	e8 00 00 00 00	 call	 ?set_terrain_database_element@@YGXHW4TERRAIN_CLASSES@@HHH@Z ; set_terrain_database_element

; 215  : 	set_terrain_database_element (TERRAIN_TYPE_BUILT_UP_AREA2, TERRAIN_CLASS_LAND, TRUE, FALSE, TRUE);

  00243	6a 01		 push	 1
  00245	6a 00		 push	 0
  00247	6a 01		 push	 1
  00249	6a 03		 push	 3
  0024b	6a 26		 push	 38			; 00000026H
  0024d	e8 00 00 00 00	 call	 ?set_terrain_database_element@@YGXHW4TERRAIN_CLASSES@@HHH@Z ; set_terrain_database_element

; 216  : 	set_terrain_database_element (TERRAIN_TYPE_BUILT_UP_AREA3, TERRAIN_CLASS_LAND, TRUE, FALSE, TRUE);

  00252	6a 01		 push	 1
  00254	6a 00		 push	 0
  00256	6a 01		 push	 1
  00258	6a 03		 push	 3
  0025a	6a 27		 push	 39			; 00000027H
  0025c	e8 00 00 00 00	 call	 ?set_terrain_database_element@@YGXHW4TERRAIN_CLASSES@@HHH@Z ; set_terrain_database_element

; 217  : 	set_terrain_database_element (TERRAIN_TYPE_BUILT_UP_AREA4, TERRAIN_CLASS_LAND, TRUE, FALSE, TRUE);

  00261	6a 01		 push	 1
  00263	6a 00		 push	 0
  00265	6a 01		 push	 1
  00267	6a 03		 push	 3
  00269	6a 28		 push	 40			; 00000028H
  0026b	e8 00 00 00 00	 call	 ?set_terrain_database_element@@YGXHW4TERRAIN_CLASSES@@HHH@Z ; set_terrain_database_element

; 218  : 	set_terrain_database_element (TERRAIN_TYPE_ROAD, TERRAIN_CLASS_LAND, TRUE, FALSE, TRUE);

  00270	6a 01		 push	 1
  00272	6a 00		 push	 0
  00274	6a 01		 push	 1
  00276	6a 03		 push	 3
  00278	6a 29		 push	 41			; 00000029H
  0027a	e8 00 00 00 00	 call	 ?set_terrain_database_element@@YGXHW4TERRAIN_CLASSES@@HHH@Z ; set_terrain_database_element

; 219  : 	set_terrain_database_element (TERRAIN_TYPE_TRACK, TERRAIN_CLASS_LAND, TRUE, FALSE, TRUE);

  0027f	6a 01		 push	 1
  00281	6a 00		 push	 0
  00283	6a 01		 push	 1
  00285	6a 03		 push	 3
  00287	6a 2a		 push	 42			; 0000002aH
  00289	e8 00 00 00 00	 call	 ?set_terrain_database_element@@YGXHW4TERRAIN_CLASSES@@HHH@Z ; set_terrain_database_element

; 220  : 	set_terrain_database_element (TERRAIN_TYPE_RAIL, TERRAIN_CLASS_LAND, TRUE, FALSE, TRUE);

  0028e	6a 01		 push	 1
  00290	6a 00		 push	 0
  00292	6a 01		 push	 1
  00294	6a 03		 push	 3
  00296	6a 2b		 push	 43			; 0000002bH
  00298	e8 00 00 00 00	 call	 ?set_terrain_database_element@@YGXHW4TERRAIN_CLASSES@@HHH@Z ; set_terrain_database_element

; 221  : 
; 222  : 	set_terrain_database_element (TERRAIN_TYPE_WALL_TOP, TERRAIN_CLASS_LAND, FALSE, TRUE, FALSE);

  0029d	6a 00		 push	 0
  0029f	6a 01		 push	 1
  002a1	6a 00		 push	 0
  002a3	6a 03		 push	 3
  002a5	6a 2c		 push	 44			; 0000002cH
  002a7	e8 00 00 00 00	 call	 ?set_terrain_database_element@@YGXHW4TERRAIN_CLASSES@@HHH@Z ; set_terrain_database_element

; 223  : 	set_terrain_database_element (TERRAIN_TYPE_HEDGE_TOP, TERRAIN_CLASS_LAND, FALSE, TRUE, FALSE);

  002ac	6a 00		 push	 0
  002ae	6a 01		 push	 1
  002b0	6a 00		 push	 0
  002b2	6a 03		 push	 3
  002b4	6a 2d		 push	 45			; 0000002dH
  002b6	e8 00 00 00 00	 call	 ?set_terrain_database_element@@YGXHW4TERRAIN_CLASSES@@HHH@Z ; set_terrain_database_element

; 224  : 
; 225  : 	set_terrain_database_element (TERRAIN_TYPE_FOREST_TOP, TERRAIN_CLASS_FOREST, FALSE, TRUE, FALSE);

  002bb	6a 00		 push	 0
  002bd	6a 01		 push	 1
  002bf	6a 00		 push	 0
  002c1	6a 02		 push	 2
  002c3	6a 2e		 push	 46			; 0000002eH
  002c5	e8 00 00 00 00	 call	 ?set_terrain_database_element@@YGXHW4TERRAIN_CLASSES@@HHH@Z ; set_terrain_database_element

; 226  : }

  002ca	5f		 pop	 edi
  002cb	5e		 pop	 esi
  002cc	5b		 pop	 ebx
  002cd	8b e5		 mov	 esp, ebp
  002cf	5d		 pop	 ebp
  002d0	c3		 ret	 0
?initialise_terrain_database@@YGXXZ ENDP		; initialise_terrain_database
_TEXT	ENDS
; Function compile flags: /Odtp /ZI
; File c:\users\nhv90\projects\eech\aphavoc\source\misc\terr_db.c
;	COMDAT ?get_terrain_type_suitable_for_ground_vehicle@@YGHH@Z
_TEXT	SEGMENT
_type$ = 8						; size = 4
?get_terrain_type_suitable_for_ground_vehicle@@YGHH@Z PROC ; get_terrain_type_suitable_for_ground_vehicle, COMDAT

; 142  : {

  00000	55		 push	 ebp
  00001	8b ec		 mov	 ebp, esp
  00003	83 ec 40	 sub	 esp, 64			; 00000040H
  00006	53		 push	 ebx
  00007	56		 push	 esi
  00008	57		 push	 edi

; 143  : 	ASSERT (type >= TERRAIN_TYPE_INVALID);

  00009	83 7d 08 00	 cmp	 DWORD PTR _type$[ebp], 0
  0000d	7d 18		 jge	 SHORT $LN2@get_terrai
  0000f	a1 00 00 00 00	 mov	 eax, DWORD PTR ?__LINE__Var@?0??get_terrain_type_suitable_for_ground_vehicle@@YGHH@Z@4JA
  00014	83 c0 01	 add	 eax, 1
  00017	50		 push	 eax
  00018	68 00 00 00 00	 push	 OFFSET ??_C@_0DL@IOLMKLH@c?3?2users?2nhv90?2projects?2eech?2ap@
  0001d	68 00 00 00 00	 push	 OFFSET ??_C@_0BN@FJDNBEDG@type?5?$DO?$DN?5TERRAIN_TYPE_INVALID@
  00022	e8 00 00 00 00	 call	 ?process_assert@@YGXPBD0H@Z ; process_assert
$LN2@get_terrai:

; 144  : 	ASSERT (type < TERRAIN_TYPE_LAST);

  00027	83 7d 08 3e	 cmp	 DWORD PTR _type$[ebp], 62 ; 0000003eH
  0002b	7c 18		 jl	 SHORT $LN3@get_terrai
  0002d	a1 00 00 00 00	 mov	 eax, DWORD PTR ?__LINE__Var@?0??get_terrain_type_suitable_for_ground_vehicle@@YGHH@Z@4JA
  00032	83 c0 02	 add	 eax, 2
  00035	50		 push	 eax
  00036	68 00 00 00 00	 push	 OFFSET ??_C@_0DL@IOLMKLH@c?3?2users?2nhv90?2projects?2eech?2ap@
  0003b	68 00 00 00 00	 push	 OFFSET ??_C@_0BJ@IIOCGBGE@type?5?$DM?5TERRAIN_TYPE_LAST@
  00040	e8 00 00 00 00	 call	 ?process_assert@@YGXPBD0H@Z ; process_assert
$LN3@get_terrai:

; 145  : 
; 146  : 	return terrain_database [type].suitable_for_ground_vehicle;

  00045	8b 45 08	 mov	 eax, DWORD PTR _type$[ebp]
  00048	8b 04 c5 04 00
	00 00		 mov	 eax, DWORD PTR ?terrain_database@@3PAUTERRAIN_DATABASE_TYPE@@A[eax*8+4]
  0004f	c1 e8 02	 shr	 eax, 2
  00052	83 e0 01	 and	 eax, 1

; 147  : }

  00055	5f		 pop	 edi
  00056	5e		 pop	 esi
  00057	5b		 pop	 ebx
  00058	8b e5		 mov	 esp, ebp
  0005a	5d		 pop	 ebp
  0005b	c2 04 00	 ret	 4
?get_terrain_type_suitable_for_ground_vehicle@@YGHH@Z ENDP ; get_terrain_type_suitable_for_ground_vehicle
_TEXT	ENDS
; Function compile flags: /Odtp /ZI
; File c:\users\nhv90\projects\eech\aphavoc\source\misc\terr_db.c
;	COMDAT ?get_terrain_type_raised@@YGHH@Z
_TEXT	SEGMENT
_type$ = 8						; size = 4
?get_terrain_type_raised@@YGHH@Z PROC			; get_terrain_type_raised, COMDAT

; 130  : {

  00000	55		 push	 ebp
  00001	8b ec		 mov	 ebp, esp
  00003	83 ec 40	 sub	 esp, 64			; 00000040H
  00006	53		 push	 ebx
  00007	56		 push	 esi
  00008	57		 push	 edi

; 131  : 	ASSERT (type >= TERRAIN_TYPE_INVALID);

  00009	83 7d 08 00	 cmp	 DWORD PTR _type$[ebp], 0
  0000d	7d 18		 jge	 SHORT $LN2@get_terrai
  0000f	a1 00 00 00 00	 mov	 eax, DWORD PTR ?__LINE__Var@?0??get_terrain_type_raised@@YGHH@Z@4JA
  00014	83 c0 01	 add	 eax, 1
  00017	50		 push	 eax
  00018	68 00 00 00 00	 push	 OFFSET ??_C@_0DL@IOLMKLH@c?3?2users?2nhv90?2projects?2eech?2ap@
  0001d	68 00 00 00 00	 push	 OFFSET ??_C@_0BN@FJDNBEDG@type?5?$DO?$DN?5TERRAIN_TYPE_INVALID@
  00022	e8 00 00 00 00	 call	 ?process_assert@@YGXPBD0H@Z ; process_assert
$LN2@get_terrai:

; 132  : 	ASSERT (type < TERRAIN_TYPE_LAST);

  00027	83 7d 08 3e	 cmp	 DWORD PTR _type$[ebp], 62 ; 0000003eH
  0002b	7c 18		 jl	 SHORT $LN3@get_terrai
  0002d	a1 00 00 00 00	 mov	 eax, DWORD PTR ?__LINE__Var@?0??get_terrain_type_raised@@YGHH@Z@4JA
  00032	83 c0 02	 add	 eax, 2
  00035	50		 push	 eax
  00036	68 00 00 00 00	 push	 OFFSET ??_C@_0DL@IOLMKLH@c?3?2users?2nhv90?2projects?2eech?2ap@
  0003b	68 00 00 00 00	 push	 OFFSET ??_C@_0BJ@IIOCGBGE@type?5?$DM?5TERRAIN_TYPE_LAST@
  00040	e8 00 00 00 00	 call	 ?process_assert@@YGXPBD0H@Z ; process_assert
$LN3@get_terrai:

; 133  : 
; 134  : 	return terrain_database [type].raised;

  00045	8b 45 08	 mov	 eax, DWORD PTR _type$[ebp]
  00048	8b 04 c5 04 00
	00 00		 mov	 eax, DWORD PTR ?terrain_database@@3PAUTERRAIN_DATABASE_TYPE@@A[eax*8+4]
  0004f	d1 e8		 shr	 eax, 1
  00051	83 e0 01	 and	 eax, 1

; 135  : }

  00054	5f		 pop	 edi
  00055	5e		 pop	 esi
  00056	5b		 pop	 ebx
  00057	8b e5		 mov	 esp, ebp
  00059	5d		 pop	 ebp
  0005a	c2 04 00	 ret	 4
?get_terrain_type_raised@@YGHH@Z ENDP			; get_terrain_type_raised
_TEXT	ENDS
; Function compile flags: /Odtp /ZI
; File c:\users\nhv90\projects\eech\aphavoc\source\misc\terr_db.c
;	COMDAT ?get_terrain_type_draw_crater@@YGHH@Z
_TEXT	SEGMENT
_type$ = 8						; size = 4
?get_terrain_type_draw_crater@@YGHH@Z PROC		; get_terrain_type_draw_crater, COMDAT

; 118  : {

  00000	55		 push	 ebp
  00001	8b ec		 mov	 ebp, esp
  00003	83 ec 40	 sub	 esp, 64			; 00000040H
  00006	53		 push	 ebx
  00007	56		 push	 esi
  00008	57		 push	 edi

; 119  : 	ASSERT (type >= TERRAIN_TYPE_INVALID);

  00009	83 7d 08 00	 cmp	 DWORD PTR _type$[ebp], 0
  0000d	7d 18		 jge	 SHORT $LN2@get_terrai
  0000f	a1 00 00 00 00	 mov	 eax, DWORD PTR ?__LINE__Var@?0??get_terrain_type_draw_crater@@YGHH@Z@4JA
  00014	83 c0 01	 add	 eax, 1
  00017	50		 push	 eax
  00018	68 00 00 00 00	 push	 OFFSET ??_C@_0DL@IOLMKLH@c?3?2users?2nhv90?2projects?2eech?2ap@
  0001d	68 00 00 00 00	 push	 OFFSET ??_C@_0BN@FJDNBEDG@type?5?$DO?$DN?5TERRAIN_TYPE_INVALID@
  00022	e8 00 00 00 00	 call	 ?process_assert@@YGXPBD0H@Z ; process_assert
$LN2@get_terrai:

; 120  : 	ASSERT (type < TERRAIN_TYPE_LAST);

  00027	83 7d 08 3e	 cmp	 DWORD PTR _type$[ebp], 62 ; 0000003eH
  0002b	7c 18		 jl	 SHORT $LN3@get_terrai
  0002d	a1 00 00 00 00	 mov	 eax, DWORD PTR ?__LINE__Var@?0??get_terrain_type_draw_crater@@YGHH@Z@4JA
  00032	83 c0 02	 add	 eax, 2
  00035	50		 push	 eax
  00036	68 00 00 00 00	 push	 OFFSET ??_C@_0DL@IOLMKLH@c?3?2users?2nhv90?2projects?2eech?2ap@
  0003b	68 00 00 00 00	 push	 OFFSET ??_C@_0BJ@IIOCGBGE@type?5?$DM?5TERRAIN_TYPE_LAST@
  00040	e8 00 00 00 00	 call	 ?process_assert@@YGXPBD0H@Z ; process_assert
$LN3@get_terrai:

; 121  : 
; 122  : 	return terrain_database [type].draw_crater;

  00045	8b 45 08	 mov	 eax, DWORD PTR _type$[ebp]
  00048	8b 04 c5 04 00
	00 00		 mov	 eax, DWORD PTR ?terrain_database@@3PAUTERRAIN_DATABASE_TYPE@@A[eax*8+4]
  0004f	83 e0 01	 and	 eax, 1

; 123  : }

  00052	5f		 pop	 edi
  00053	5e		 pop	 esi
  00054	5b		 pop	 ebx
  00055	8b e5		 mov	 esp, ebp
  00057	5d		 pop	 ebp
  00058	c2 04 00	 ret	 4
?get_terrain_type_draw_crater@@YGHH@Z ENDP		; get_terrain_type_draw_crater
_TEXT	ENDS
; Function compile flags: /Odtp /ZI
; File c:\users\nhv90\projects\eech\aphavoc\source\misc\terr_db.c
;	COMDAT ?get_terrain_type_class@@YG?AW4TERRAIN_CLASSES@@H@Z
_TEXT	SEGMENT
_type$ = 8						; size = 4
?get_terrain_type_class@@YG?AW4TERRAIN_CLASSES@@H@Z PROC ; get_terrain_type_class, COMDAT

; 106  : {

  00000	55		 push	 ebp
  00001	8b ec		 mov	 ebp, esp
  00003	83 ec 40	 sub	 esp, 64			; 00000040H
  00006	53		 push	 ebx
  00007	56		 push	 esi
  00008	57		 push	 edi

; 107  : 	ASSERT (type >= TERRAIN_TYPE_INVALID);

  00009	83 7d 08 00	 cmp	 DWORD PTR _type$[ebp], 0
  0000d	7d 18		 jge	 SHORT $LN2@get_terrai
  0000f	a1 00 00 00 00	 mov	 eax, DWORD PTR ?__LINE__Var@?0??get_terrain_type_class@@YG?AW4TERRAIN_CLASSES@@H@Z@4JA
  00014	83 c0 01	 add	 eax, 1
  00017	50		 push	 eax
  00018	68 00 00 00 00	 push	 OFFSET ??_C@_0DL@IOLMKLH@c?3?2users?2nhv90?2projects?2eech?2ap@
  0001d	68 00 00 00 00	 push	 OFFSET ??_C@_0BN@FJDNBEDG@type?5?$DO?$DN?5TERRAIN_TYPE_INVALID@
  00022	e8 00 00 00 00	 call	 ?process_assert@@YGXPBD0H@Z ; process_assert
$LN2@get_terrai:

; 108  : 	ASSERT (type < TERRAIN_TYPE_LAST);

  00027	83 7d 08 3e	 cmp	 DWORD PTR _type$[ebp], 62 ; 0000003eH
  0002b	7c 18		 jl	 SHORT $LN3@get_terrai
  0002d	a1 00 00 00 00	 mov	 eax, DWORD PTR ?__LINE__Var@?0??get_terrain_type_class@@YG?AW4TERRAIN_CLASSES@@H@Z@4JA
  00032	83 c0 02	 add	 eax, 2
  00035	50		 push	 eax
  00036	68 00 00 00 00	 push	 OFFSET ??_C@_0DL@IOLMKLH@c?3?2users?2nhv90?2projects?2eech?2ap@
  0003b	68 00 00 00 00	 push	 OFFSET ??_C@_0BJ@IIOCGBGE@type?5?$DM?5TERRAIN_TYPE_LAST@
  00040	e8 00 00 00 00	 call	 ?process_assert@@YGXPBD0H@Z ; process_assert
$LN3@get_terrai:

; 109  : 
; 110  : 	return terrain_database [type].terr_class;

  00045	8b 45 08	 mov	 eax, DWORD PTR _type$[ebp]
  00048	8b 04 c5 00 00
	00 00		 mov	 eax, DWORD PTR ?terrain_database@@3PAUTERRAIN_DATABASE_TYPE@@A[eax*8]

; 111  : }

  0004f	5f		 pop	 edi
  00050	5e		 pop	 esi
  00051	5b		 pop	 ebx
  00052	8b e5		 mov	 esp, ebp
  00054	5d		 pop	 ebp
  00055	c2 04 00	 ret	 4
?get_terrain_type_class@@YG?AW4TERRAIN_CLASSES@@H@Z ENDP ; get_terrain_type_class
_TEXT	ENDS
END
