; Listing generated by Microsoft (R) Optimizing Compiler Version 19.16.27045.0 

	TITLE	C:\Users\nhv90\Projects\eech\modules\3d\terrain\terrdr.c
	.686P
	.XMM
	include listing.inc
	.model	flat

INCLUDELIB MSVCRTD
INCLUDELIB OLDNAMES

PUBLIC	?draw_3d_terrain_unclipped_fan_word_face@@YGXH@Z ; draw_3d_terrain_unclipped_fan_word_face
PUBLIC	?draw_3d_terrain_unclipped_fan_byte_face@@YGXH@Z ; draw_3d_terrain_unclipped_fan_byte_face
PUBLIC	?draw_3d_terrain_unclipped_strip_word_face@@YGXH@Z ; draw_3d_terrain_unclipped_strip_word_face
PUBLIC	?draw_3d_terrain_unclipped_strip_byte_face@@YGXH@Z ; draw_3d_terrain_unclipped_strip_byte_face
PUBLIC	?draw_3d_terrain_texture_x_unclipped_fan_word_face@@YGXH@Z ; draw_3d_terrain_texture_x_unclipped_fan_word_face
PUBLIC	?draw_3d_terrain_texture_x_unclipped_fan_byte_face@@YGXH@Z ; draw_3d_terrain_texture_x_unclipped_fan_byte_face
PUBLIC	?draw_3d_terrain_texture_z_unclipped_fan_word_face@@YGXH@Z ; draw_3d_terrain_texture_z_unclipped_fan_word_face
PUBLIC	?draw_3d_terrain_texture_z_unclipped_fan_byte_face@@YGXH@Z ; draw_3d_terrain_texture_z_unclipped_fan_byte_face
PUBLIC	?draw_3d_terrain_texture_x_unclipped_strip_word_face@@YGXH@Z ; draw_3d_terrain_texture_x_unclipped_strip_word_face
PUBLIC	?draw_3d_terrain_texture_x_unclipped_strip_byte_face@@YGXH@Z ; draw_3d_terrain_texture_x_unclipped_strip_byte_face
PUBLIC	?draw_3d_terrain_texture_z_unclipped_strip_word_face@@YGXH@Z ; draw_3d_terrain_texture_z_unclipped_strip_word_face
PUBLIC	?draw_3d_terrain_texture_z_unclipped_strip_byte_face@@YGXH@Z ; draw_3d_terrain_texture_z_unclipped_strip_byte_face
PUBLIC	?draw_3d_terrain_colour_unclipped_fan_word_face@@YGXH@Z ; draw_3d_terrain_colour_unclipped_fan_word_face
PUBLIC	?draw_3d_terrain_colour_unclipped_fan_byte_face@@YGXH@Z ; draw_3d_terrain_colour_unclipped_fan_byte_face
PUBLIC	?draw_3d_terrain_colour_unclipped_strip_word_face@@YGXH@Z ; draw_3d_terrain_colour_unclipped_strip_word_face
PUBLIC	?draw_3d_terrain_colour_unclipped_strip_byte_face@@YGXH@Z ; draw_3d_terrain_colour_unclipped_strip_byte_face
PUBLIC	?draw_3d_terrain_texture_x_colour_unclipped_fan_word_face@@YGXH@Z ; draw_3d_terrain_texture_x_colour_unclipped_fan_word_face
PUBLIC	?draw_3d_terrain_texture_x_colour_unclipped_fan_byte_face@@YGXH@Z ; draw_3d_terrain_texture_x_colour_unclipped_fan_byte_face
PUBLIC	?draw_3d_terrain_texture_z_colour_unclipped_fan_word_face@@YGXH@Z ; draw_3d_terrain_texture_z_colour_unclipped_fan_word_face
PUBLIC	?draw_3d_terrain_texture_z_colour_unclipped_fan_byte_face@@YGXH@Z ; draw_3d_terrain_texture_z_colour_unclipped_fan_byte_face
PUBLIC	?draw_3d_terrain_texture_x_colour_unclipped_strip_word_face@@YGXH@Z ; draw_3d_terrain_texture_x_colour_unclipped_strip_word_face
PUBLIC	?draw_3d_terrain_texture_x_colour_unclipped_strip_byte_face@@YGXH@Z ; draw_3d_terrain_texture_x_colour_unclipped_strip_byte_face
PUBLIC	?draw_3d_terrain_texture_z_colour_unclipped_strip_word_face@@YGXH@Z ; draw_3d_terrain_texture_z_colour_unclipped_strip_word_face
PUBLIC	?draw_3d_terrain_texture_z_colour_unclipped_strip_byte_face@@YGXH@Z ; draw_3d_terrain_texture_z_colour_unclipped_strip_byte_face
PUBLIC	?draw_3d_terrain_twopass_unclipped_fan_word_face@@YGXH@Z ; draw_3d_terrain_twopass_unclipped_fan_word_face
PUBLIC	?draw_3d_terrain_twopass_unclipped_fan_byte_face@@YGXH@Z ; draw_3d_terrain_twopass_unclipped_fan_byte_face
PUBLIC	?draw_3d_terrain_twopass_unclipped_strip_word_face@@YGXH@Z ; draw_3d_terrain_twopass_unclipped_strip_word_face
PUBLIC	?draw_3d_terrain_twopass_unclipped_strip_byte_face@@YGXH@Z ; draw_3d_terrain_twopass_unclipped_strip_byte_face
PUBLIC	?draw_3d_terrain_twopass_texture_x_unclipped_fan_word_face@@YGXH@Z ; draw_3d_terrain_twopass_texture_x_unclipped_fan_word_face
PUBLIC	?draw_3d_terrain_twopass_texture_x_unclipped_fan_byte_face@@YGXH@Z ; draw_3d_terrain_twopass_texture_x_unclipped_fan_byte_face
PUBLIC	?draw_3d_terrain_twopass_texture_z_unclipped_fan_word_face@@YGXH@Z ; draw_3d_terrain_twopass_texture_z_unclipped_fan_word_face
PUBLIC	?draw_3d_terrain_twopass_texture_z_unclipped_fan_byte_face@@YGXH@Z ; draw_3d_terrain_twopass_texture_z_unclipped_fan_byte_face
PUBLIC	?draw_3d_terrain_twopass_texture_x_unclipped_strip_word_face@@YGXH@Z ; draw_3d_terrain_twopass_texture_x_unclipped_strip_word_face
PUBLIC	?draw_3d_terrain_twopass_texture_x_unclipped_strip_byte_face@@YGXH@Z ; draw_3d_terrain_twopass_texture_x_unclipped_strip_byte_face
PUBLIC	?draw_3d_terrain_twopass_texture_z_unclipped_strip_word_face@@YGXH@Z ; draw_3d_terrain_twopass_texture_z_unclipped_strip_word_face
PUBLIC	?draw_3d_terrain_twopass_texture_z_unclipped_strip_byte_face@@YGXH@Z ; draw_3d_terrain_twopass_texture_z_unclipped_strip_byte_face
PUBLIC	?draw_3d_terrain_twopass_colour_unclipped_fan_word_face@@YGXH@Z ; draw_3d_terrain_twopass_colour_unclipped_fan_word_face
PUBLIC	?draw_3d_terrain_twopass_colour_unclipped_fan_byte_face@@YGXH@Z ; draw_3d_terrain_twopass_colour_unclipped_fan_byte_face
PUBLIC	?draw_3d_terrain_twopass_colour_unclipped_strip_word_face@@YGXH@Z ; draw_3d_terrain_twopass_colour_unclipped_strip_word_face
PUBLIC	?draw_3d_terrain_twopass_colour_unclipped_strip_byte_face@@YGXH@Z ; draw_3d_terrain_twopass_colour_unclipped_strip_byte_face
PUBLIC	?draw_3d_terrain_twopass_texture_x_colour_unclipped_fan_word_face@@YGXH@Z ; draw_3d_terrain_twopass_texture_x_colour_unclipped_fan_word_face
PUBLIC	?draw_3d_terrain_twopass_texture_x_colour_unclipped_fan_byte_face@@YGXH@Z ; draw_3d_terrain_twopass_texture_x_colour_unclipped_fan_byte_face
PUBLIC	?draw_3d_terrain_twopass_texture_z_colour_unclipped_fan_word_face@@YGXH@Z ; draw_3d_terrain_twopass_texture_z_colour_unclipped_fan_word_face
PUBLIC	?draw_3d_terrain_twopass_texture_z_colour_unclipped_fan_byte_face@@YGXH@Z ; draw_3d_terrain_twopass_texture_z_colour_unclipped_fan_byte_face
PUBLIC	?draw_3d_terrain_twopass_texture_x_colour_unclipped_strip_word_face@@YGXH@Z ; draw_3d_terrain_twopass_texture_x_colour_unclipped_strip_word_face
PUBLIC	?draw_3d_terrain_twopass_texture_x_colour_unclipped_strip_byte_face@@YGXH@Z ; draw_3d_terrain_twopass_texture_x_colour_unclipped_strip_byte_face
PUBLIC	?draw_3d_terrain_twopass_texture_z_colour_unclipped_strip_word_face@@YGXH@Z ; draw_3d_terrain_twopass_texture_z_colour_unclipped_strip_word_face
PUBLIC	?draw_3d_terrain_twopass_texture_z_colour_unclipped_strip_byte_face@@YGXH@Z ; draw_3d_terrain_twopass_texture_z_colour_unclipped_strip_byte_face
PUBLIC	?draw_3d_terrain_line_clipped_strip_byte_face@@YGXH@Z ; draw_3d_terrain_line_clipped_strip_byte_face
PUBLIC	?draw_3d_terrain_line_clipped_strip_word_face@@YGXH@Z ; draw_3d_terrain_line_clipped_strip_word_face
PUBLIC	?draw_terrain_line@@YGXHH@Z			; draw_terrain_line
EXTRN	?clip_3d_polygon@@YGPAUVERTEX@@PAU1@H@Z:PROC	; clip_3d_polygon
EXTRN	?draw_wbuffered_plain_line@@YGXPAUVERTEX@@UREAL_COLOUR@@@Z:PROC ; draw_wbuffered_plain_line
EXTRN	?hither_clip_3d_polygon@@YGPAUVERTEX@@PAU1@PAH@Z:PROC ; hither_clip_3d_polygon
EXTRN	?terrain_alpha_visible_word@@YGHHPAUTERRAIN_3D_POINT_WORD_REFERENCE@@@Z:PROC ; terrain_alpha_visible_word
EXTRN	?terrain_alpha_visible_byte@@YGHHPAUTERRAIN_3D_POINT_BYTE_REFERENCE@@@Z:PROC ; terrain_alpha_visible_byte
EXTRN	?render_3d_terrain_word_fan@@YGXH@Z:PROC	; render_3d_terrain_word_fan
EXTRN	?render_3d_terrain_byte_fan@@YGXH@Z:PROC	; render_3d_terrain_byte_fan
EXTRN	?render_3d_terrain_word_strip@@YGXH@Z:PROC	; render_3d_terrain_word_strip
EXTRN	?render_3d_terrain_byte_strip@@YGXH@Z:PROC	; render_3d_terrain_byte_strip
EXTRN	?render_3d_terrain_texture_xy_word_strip@@YGXH@Z:PROC ; render_3d_terrain_texture_xy_word_strip
EXTRN	?render_3d_terrain_texture_xy_byte_strip@@YGXH@Z:PROC ; render_3d_terrain_texture_xy_byte_strip
EXTRN	?render_3d_terrain_texture_zy_word_strip@@YGXH@Z:PROC ; render_3d_terrain_texture_zy_word_strip
EXTRN	?render_3d_terrain_texture_zy_byte_strip@@YGXH@Z:PROC ; render_3d_terrain_texture_zy_byte_strip
EXTRN	?render_3d_terrain_texture_xy_word_fan@@YGXH@Z:PROC ; render_3d_terrain_texture_xy_word_fan
EXTRN	?render_3d_terrain_texture_xy_byte_fan@@YGXH@Z:PROC ; render_3d_terrain_texture_xy_byte_fan
EXTRN	?render_3d_terrain_texture_zy_word_fan@@YGXH@Z:PROC ; render_3d_terrain_texture_zy_word_fan
EXTRN	?render_3d_terrain_texture_zy_byte_fan@@YGXH@Z:PROC ; render_3d_terrain_texture_zy_byte_fan
EXTRN	?render_3d_terrain_word_colour_fan@@YGXH@Z:PROC	; render_3d_terrain_word_colour_fan
EXTRN	?render_3d_terrain_byte_colour_fan@@YGXH@Z:PROC	; render_3d_terrain_byte_colour_fan
EXTRN	?render_3d_terrain_word_colour_strip@@YGXH@Z:PROC ; render_3d_terrain_word_colour_strip
EXTRN	?render_3d_terrain_byte_colour_strip@@YGXH@Z:PROC ; render_3d_terrain_byte_colour_strip
EXTRN	?render_3d_terrain_texture_xy_word_colour_fan@@YGXH@Z:PROC ; render_3d_terrain_texture_xy_word_colour_fan
EXTRN	?render_3d_terrain_texture_xy_byte_colour_fan@@YGXH@Z:PROC ; render_3d_terrain_texture_xy_byte_colour_fan
EXTRN	?render_3d_terrain_texture_zy_word_colour_fan@@YGXH@Z:PROC ; render_3d_terrain_texture_zy_word_colour_fan
EXTRN	?render_3d_terrain_texture_zy_byte_colour_fan@@YGXH@Z:PROC ; render_3d_terrain_texture_zy_byte_colour_fan
EXTRN	?render_3d_terrain_texture_xy_word_colour_strip@@YGXH@Z:PROC ; render_3d_terrain_texture_xy_word_colour_strip
EXTRN	?render_3d_terrain_texture_xy_byte_colour_strip@@YGXH@Z:PROC ; render_3d_terrain_texture_xy_byte_colour_strip
EXTRN	?render_3d_terrain_texture_zy_word_colour_strip@@YGXH@Z:PROC ; render_3d_terrain_texture_zy_word_colour_strip
EXTRN	?render_3d_terrain_texture_zy_byte_colour_strip@@YGXH@Z:PROC ; render_3d_terrain_texture_zy_byte_colour_strip
EXTRN	?render_3d_terrain_secondary_word_fan@@YGXH@Z:PROC ; render_3d_terrain_secondary_word_fan
EXTRN	?render_3d_terrain_secondary_byte_fan@@YGXH@Z:PROC ; render_3d_terrain_secondary_byte_fan
EXTRN	?render_3d_terrain_secondary_word_strip@@YGXH@Z:PROC ; render_3d_terrain_secondary_word_strip
EXTRN	?render_3d_terrain_secondary_byte_strip@@YGXH@Z:PROC ; render_3d_terrain_secondary_byte_strip
EXTRN	?render_3d_terrain_secondary_texture_xy_word_fan@@YGXH@Z:PROC ; render_3d_terrain_secondary_texture_xy_word_fan
EXTRN	?render_3d_terrain_secondary_texture_xy_byte_fan@@YGXH@Z:PROC ; render_3d_terrain_secondary_texture_xy_byte_fan
EXTRN	?render_3d_terrain_secondary_texture_zy_word_fan@@YGXH@Z:PROC ; render_3d_terrain_secondary_texture_zy_word_fan
EXTRN	?render_3d_terrain_secondary_texture_zy_byte_fan@@YGXH@Z:PROC ; render_3d_terrain_secondary_texture_zy_byte_fan
EXTRN	?render_3d_terrain_secondary_texture_xy_word_strip@@YGXH@Z:PROC ; render_3d_terrain_secondary_texture_xy_word_strip
EXTRN	?render_3d_terrain_secondary_texture_xy_byte_strip@@YGXH@Z:PROC ; render_3d_terrain_secondary_texture_xy_byte_strip
EXTRN	?render_3d_terrain_secondary_texture_zy_word_strip@@YGXH@Z:PROC ; render_3d_terrain_secondary_texture_zy_word_strip
EXTRN	?render_3d_terrain_secondary_texture_zy_byte_strip@@YGXH@Z:PROC ; render_3d_terrain_secondary_texture_zy_byte_strip
EXTRN	?clip_3d_coord@@3HA:DWORD			; clip_3d_coord
EXTRN	?d3d_fog_intensity@@3KA:DWORD			; d3d_fog_intensity
EXTRN	?polygon_3d_vertices@@3PAUVERTEX@@A:BYTE	; polygon_3d_vertices
EXTRN	?transformed_3d_point_outcodes@@3PAEA:BYTE	; transformed_3d_point_outcodes
EXTRN	?transformed_3d_3d_points@@3PAUOBJECT_TRANSFORMED_3D_POINT@@A:BYTE ; transformed_3d_3d_points
EXTRN	?transformed_3d_2d_points@@3PAUOBJECT_TRANSFORMED_2D_POINT@@A:BYTE ; transformed_3d_2d_points
EXTRN	?terrain_3d_sector_point_byte_references@@3PAUTERRAIN_3D_POINT_BYTE_REFERENCE@@A:DWORD ; terrain_3d_sector_point_byte_references
EXTRN	?terrain_3d_sector_point_word_references@@3PAUTERRAIN_3D_POINT_WORD_REFERENCE@@A:DWORD ; terrain_3d_sector_point_word_references
EXTRN	__fltused:DWORD
; Function compile flags: /Odtp /ZI
; File c:\users\nhv90\projects\eech\modules\3d\terrain\terrdr.c
;	COMDAT ?draw_terrain_line@@YGXHH@Z
_TEXT	SEGMENT
_colour$1 = -20						; size = 4
_line$2 = -16						; size = 4
_line$ = -12						; size = 4
_outcode2$ = -8						; size = 4
_outcode$ = -4						; size = 4
_index1$ = 8						; size = 4
_index2$ = 12						; size = 4
?draw_terrain_line@@YGXHH@Z PROC			; draw_terrain_line, COMDAT

; 755  : {

  00000	55		 push	 ebp
  00001	8b ec		 mov	 ebp, esp
  00003	83 ec 54	 sub	 esp, 84			; 00000054H
  00006	53		 push	 ebx
  00007	56		 push	 esi
  00008	57		 push	 edi

; 756  : 
; 757  : 	int
; 758  : 		outcode,
; 759  : 		outcode2;
; 760  : 
; 761  : 	vertex
; 762  : 		*line;
; 763  : 
; 764  : 	polygon_3d_vertices[0].x = transformed_3d_3d_points[index1].x;

  00009	b8 40 00 00 00	 mov	 eax, 64			; 00000040H
  0000e	6b c8 00	 imul	 ecx, eax, 0
  00011	8b 55 08	 mov	 edx, DWORD PTR _index1$[ebp]
  00014	8b 04 d5 00 00
	00 00		 mov	 eax, DWORD PTR ?transformed_3d_3d_points@@3PAUOBJECT_TRANSFORMED_3D_POINT@@A[edx*8]
  0001b	89 81 00 00 00
	00		 mov	 DWORD PTR ?polygon_3d_vertices@@3PAUVERTEX@@A[ecx], eax

; 765  : 	polygon_3d_vertices[0].y = transformed_3d_3d_points[index1].y;

  00021	b8 40 00 00 00	 mov	 eax, 64			; 00000040H
  00026	6b c8 00	 imul	 ecx, eax, 0
  00029	8b 55 08	 mov	 edx, DWORD PTR _index1$[ebp]
  0002c	8b 04 d5 04 00
	00 00		 mov	 eax, DWORD PTR ?transformed_3d_3d_points@@3PAUOBJECT_TRANSFORMED_3D_POINT@@A[edx*8+4]
  00033	89 81 04 00 00
	00		 mov	 DWORD PTR ?polygon_3d_vertices@@3PAUVERTEX@@A[ecx+4], eax

; 766  : 	polygon_3d_vertices[0].z = transformed_3d_2d_points[index1].z;

  00039	8b 45 08	 mov	 eax, DWORD PTR _index1$[ebp]
  0003c	c1 e0 04	 shl	 eax, 4
  0003f	b9 40 00 00 00	 mov	 ecx, 64			; 00000040H
  00044	6b d1 00	 imul	 edx, ecx, 0
  00047	8b 80 0c 00 00
	00		 mov	 eax, DWORD PTR ?transformed_3d_2d_points@@3PAUOBJECT_TRANSFORMED_2D_POINT@@A[eax+12]
  0004d	89 82 08 00 00
	00		 mov	 DWORD PTR ?polygon_3d_vertices@@3PAUVERTEX@@A[edx+8], eax

; 767  : 	polygon_3d_vertices[0].i = transformed_3d_2d_points[index1].i;

  00053	8b 45 08	 mov	 eax, DWORD PTR _index1$[ebp]
  00056	c1 e0 04	 shl	 eax, 4
  00059	b9 40 00 00 00	 mov	 ecx, 64			; 00000040H
  0005e	6b d1 00	 imul	 edx, ecx, 0
  00061	8b 80 00 00 00
	00		 mov	 eax, DWORD PTR ?transformed_3d_2d_points@@3PAUOBJECT_TRANSFORMED_2D_POINT@@A[eax]
  00067	89 82 10 00 00
	00		 mov	 DWORD PTR ?polygon_3d_vertices@@3PAUVERTEX@@A[edx+16], eax

; 768  : 	polygon_3d_vertices[0].j = transformed_3d_2d_points[index1].j;

  0006d	8b 45 08	 mov	 eax, DWORD PTR _index1$[ebp]
  00070	c1 e0 04	 shl	 eax, 4
  00073	b9 40 00 00 00	 mov	 ecx, 64			; 00000040H
  00078	6b d1 00	 imul	 edx, ecx, 0
  0007b	8b 80 04 00 00
	00		 mov	 eax, DWORD PTR ?transformed_3d_2d_points@@3PAUOBJECT_TRANSFORMED_2D_POINT@@A[eax+4]
  00081	89 82 14 00 00
	00		 mov	 DWORD PTR ?polygon_3d_vertices@@3PAUVERTEX@@A[edx+20], eax

; 769  : 	polygon_3d_vertices[0].q = transformed_3d_2d_points[index1].q;

  00087	8b 45 08	 mov	 eax, DWORD PTR _index1$[ebp]
  0008a	c1 e0 04	 shl	 eax, 4
  0008d	b9 40 00 00 00	 mov	 ecx, 64			; 00000040H
  00092	6b d1 00	 imul	 edx, ecx, 0
  00095	8b 80 08 00 00
	00		 mov	 eax, DWORD PTR ?transformed_3d_2d_points@@3PAUOBJECT_TRANSFORMED_2D_POINT@@A[eax+8]
  0009b	89 82 0c 00 00
	00		 mov	 DWORD PTR ?polygon_3d_vertices@@3PAUVERTEX@@A[edx+12], eax

; 770  : 	polygon_3d_vertices[0].outcode = transformed_3d_point_outcodes[index1];

  000a1	b8 40 00 00 00	 mov	 eax, 64			; 00000040H
  000a6	6b c8 00	 imul	 ecx, eax, 0
  000a9	8b 55 08	 mov	 edx, DWORD PTR _index1$[ebp]
  000ac	8a 82 00 00 00
	00		 mov	 al, BYTE PTR ?transformed_3d_point_outcodes@@3PAEA[edx]
  000b2	88 81 2c 00 00
	00		 mov	 BYTE PTR ?polygon_3d_vertices@@3PAUVERTEX@@A[ecx+44], al

; 771  : 	polygon_3d_vertices[0].next_vertex = &polygon_3d_vertices[1];

  000b8	b8 40 00 00 00	 mov	 eax, 64			; 00000040H
  000bd	c1 e0 00	 shl	 eax, 0
  000c0	05 00 00 00 00	 add	 eax, OFFSET ?polygon_3d_vertices@@3PAUVERTEX@@A ; polygon_3d_vertices
  000c5	b9 40 00 00 00	 mov	 ecx, 64			; 00000040H
  000ca	6b d1 00	 imul	 edx, ecx, 0
  000cd	89 82 28 00 00
	00		 mov	 DWORD PTR ?polygon_3d_vertices@@3PAUVERTEX@@A[edx+40], eax

; 772  : 
; 773  : 	polygon_3d_vertices[1].x = transformed_3d_3d_points[index2].x;

  000d3	b8 40 00 00 00	 mov	 eax, 64			; 00000040H
  000d8	c1 e0 00	 shl	 eax, 0
  000db	8b 4d 0c	 mov	 ecx, DWORD PTR _index2$[ebp]
  000de	8b 14 cd 00 00
	00 00		 mov	 edx, DWORD PTR ?transformed_3d_3d_points@@3PAUOBJECT_TRANSFORMED_3D_POINT@@A[ecx*8]
  000e5	89 90 00 00 00
	00		 mov	 DWORD PTR ?polygon_3d_vertices@@3PAUVERTEX@@A[eax], edx

; 774  : 	polygon_3d_vertices[1].y = transformed_3d_3d_points[index2].y;

  000eb	b8 40 00 00 00	 mov	 eax, 64			; 00000040H
  000f0	c1 e0 00	 shl	 eax, 0
  000f3	8b 4d 0c	 mov	 ecx, DWORD PTR _index2$[ebp]
  000f6	8b 14 cd 04 00
	00 00		 mov	 edx, DWORD PTR ?transformed_3d_3d_points@@3PAUOBJECT_TRANSFORMED_3D_POINT@@A[ecx*8+4]
  000fd	89 90 04 00 00
	00		 mov	 DWORD PTR ?polygon_3d_vertices@@3PAUVERTEX@@A[eax+4], edx

; 775  : 	polygon_3d_vertices[1].z = transformed_3d_2d_points[index2].z;

  00103	8b 45 0c	 mov	 eax, DWORD PTR _index2$[ebp]
  00106	c1 e0 04	 shl	 eax, 4
  00109	b9 40 00 00 00	 mov	 ecx, 64			; 00000040H
  0010e	c1 e1 00	 shl	 ecx, 0
  00111	8b 90 0c 00 00
	00		 mov	 edx, DWORD PTR ?transformed_3d_2d_points@@3PAUOBJECT_TRANSFORMED_2D_POINT@@A[eax+12]
  00117	89 91 08 00 00
	00		 mov	 DWORD PTR ?polygon_3d_vertices@@3PAUVERTEX@@A[ecx+8], edx

; 776  : 	polygon_3d_vertices[1].i = transformed_3d_2d_points[index2].i;

  0011d	8b 45 0c	 mov	 eax, DWORD PTR _index2$[ebp]
  00120	c1 e0 04	 shl	 eax, 4
  00123	b9 40 00 00 00	 mov	 ecx, 64			; 00000040H
  00128	c1 e1 00	 shl	 ecx, 0
  0012b	8b 90 00 00 00
	00		 mov	 edx, DWORD PTR ?transformed_3d_2d_points@@3PAUOBJECT_TRANSFORMED_2D_POINT@@A[eax]
  00131	89 91 10 00 00
	00		 mov	 DWORD PTR ?polygon_3d_vertices@@3PAUVERTEX@@A[ecx+16], edx

; 777  : 	polygon_3d_vertices[1].j = transformed_3d_2d_points[index2].j;

  00137	8b 45 0c	 mov	 eax, DWORD PTR _index2$[ebp]
  0013a	c1 e0 04	 shl	 eax, 4
  0013d	b9 40 00 00 00	 mov	 ecx, 64			; 00000040H
  00142	c1 e1 00	 shl	 ecx, 0
  00145	8b 90 04 00 00
	00		 mov	 edx, DWORD PTR ?transformed_3d_2d_points@@3PAUOBJECT_TRANSFORMED_2D_POINT@@A[eax+4]
  0014b	89 91 14 00 00
	00		 mov	 DWORD PTR ?polygon_3d_vertices@@3PAUVERTEX@@A[ecx+20], edx

; 778  : 	polygon_3d_vertices[1].q = transformed_3d_2d_points[index2].q;

  00151	8b 45 0c	 mov	 eax, DWORD PTR _index2$[ebp]
  00154	c1 e0 04	 shl	 eax, 4
  00157	b9 40 00 00 00	 mov	 ecx, 64			; 00000040H
  0015c	c1 e1 00	 shl	 ecx, 0
  0015f	8b 90 08 00 00
	00		 mov	 edx, DWORD PTR ?transformed_3d_2d_points@@3PAUOBJECT_TRANSFORMED_2D_POINT@@A[eax+8]
  00165	89 91 0c 00 00
	00		 mov	 DWORD PTR ?polygon_3d_vertices@@3PAUVERTEX@@A[ecx+12], edx

; 779  : 	polygon_3d_vertices[1].outcode = transformed_3d_point_outcodes[index2];

  0016b	b8 40 00 00 00	 mov	 eax, 64			; 00000040H
  00170	c1 e0 00	 shl	 eax, 0
  00173	8b 4d 0c	 mov	 ecx, DWORD PTR _index2$[ebp]
  00176	8a 91 00 00 00
	00		 mov	 dl, BYTE PTR ?transformed_3d_point_outcodes@@3PAEA[ecx]
  0017c	88 90 2c 00 00
	00		 mov	 BYTE PTR ?polygon_3d_vertices@@3PAUVERTEX@@A[eax+44], dl

; 780  : 	polygon_3d_vertices[1].next_vertex = NULL;

  00182	b8 40 00 00 00	 mov	 eax, 64			; 00000040H
  00187	c1 e0 00	 shl	 eax, 0
  0018a	c7 80 28 00 00
	00 00 00 00 00	 mov	 DWORD PTR ?polygon_3d_vertices@@3PAUVERTEX@@A[eax+40], 0

; 781  : 
; 782  : 	line = polygon_3d_vertices;

  00194	c7 45 f4 00 00
	00 00		 mov	 DWORD PTR _line$[ebp], OFFSET ?polygon_3d_vertices@@3PAUVERTEX@@A ; polygon_3d_vertices

; 783  : 
; 784  : 	outcode = line->outcode;

  0019b	8b 45 f4	 mov	 eax, DWORD PTR _line$[ebp]
  0019e	0f b6 48 2c	 movzx	 ecx, BYTE PTR [eax+44]
  001a2	89 4d fc	 mov	 DWORD PTR _outcode$[ebp], ecx

; 785  : 	outcode2 = line->outcode;

  001a5	8b 45 f4	 mov	 eax, DWORD PTR _line$[ebp]
  001a8	0f b6 48 2c	 movzx	 ecx, BYTE PTR [eax+44]
  001ac	89 4d f8	 mov	 DWORD PTR _outcode2$[ebp], ecx

; 786  : 
; 787  : 	outcode |= line->next_vertex->outcode;

  001af	8b 45 f4	 mov	 eax, DWORD PTR _line$[ebp]
  001b2	8b 48 28	 mov	 ecx, DWORD PTR [eax+40]
  001b5	0f b6 51 2c	 movzx	 edx, BYTE PTR [ecx+44]
  001b9	0b 55 fc	 or	 edx, DWORD PTR _outcode$[ebp]
  001bc	89 55 fc	 mov	 DWORD PTR _outcode$[ebp], edx

; 788  : 	outcode2 &= line->next_vertex->outcode;

  001bf	8b 45 f4	 mov	 eax, DWORD PTR _line$[ebp]
  001c2	8b 48 28	 mov	 ecx, DWORD PTR [eax+40]
  001c5	0f b6 51 2c	 movzx	 edx, BYTE PTR [ecx+44]
  001c9	23 55 f8	 and	 edx, DWORD PTR _outcode2$[ebp]
  001cc	89 55 f8	 mov	 DWORD PTR _outcode2$[ebp], edx

; 789  : 
; 790  : 	if ( outcode2 == 0 )

  001cf	75 72		 jne	 SHORT $LN6@draw_terra

; 791  : 	{
; 792  : 
; 793  : 		vertex
; 794  : 			*line;
; 795  : 
; 796  : 		line = polygon_3d_vertices;

  001d1	c7 45 f0 00 00
	00 00		 mov	 DWORD PTR _line$2[ebp], OFFSET ?polygon_3d_vertices@@3PAUVERTEX@@A ; polygon_3d_vertices

; 797  : 
; 798  : 		clip_3d_coord = 0;

  001d8	c7 05 00 00 00
	00 00 00 00 00	 mov	 DWORD PTR ?clip_3d_coord@@3HA, 0 ; clip_3d_coord

; 799  : 
; 800  : 		if ( outcode & CLIP_HITHER )

  001e2	8b 45 fc	 mov	 eax, DWORD PTR _outcode$[ebp]
  001e5	83 e0 20	 and	 eax, 32			; 00000020H
  001e8	74 10		 je	 SHORT $LN3@draw_terra

; 801  : 		{
; 802  : 	
; 803  : 			line = hither_clip_3d_polygon ( line, &outcode );

  001ea	8d 45 fc	 lea	 eax, DWORD PTR _outcode$[ebp]
  001ed	50		 push	 eax
  001ee	8b 4d f0	 mov	 ecx, DWORD PTR _line$2[ebp]
  001f1	51		 push	 ecx
  001f2	e8 00 00 00 00	 call	 ?hither_clip_3d_polygon@@YGPAUVERTEX@@PAU1@PAH@Z ; hither_clip_3d_polygon
  001f7	89 45 f0	 mov	 DWORD PTR _line$2[ebp], eax
$LN3@draw_terra:

; 804  : 		}
; 805  : 	
; 806  : 		if ( line )

  001fa	83 7d f0 00	 cmp	 DWORD PTR _line$2[ebp], 0
  001fe	74 43		 je	 SHORT $LN6@draw_terra

; 807  : 		{
; 808  : 
; 809  : 			if ( outcode )

  00200	83 7d fc 00	 cmp	 DWORD PTR _outcode$[ebp], 0
  00204	74 10		 je	 SHORT $LN5@draw_terra

; 810  : 			{
; 811  : 		
; 812  : 				line = clip_3d_polygon ( line, outcode );

  00206	8b 45 fc	 mov	 eax, DWORD PTR _outcode$[ebp]
  00209	50		 push	 eax
  0020a	8b 4d f0	 mov	 ecx, DWORD PTR _line$2[ebp]
  0020d	51		 push	 ecx
  0020e	e8 00 00 00 00	 call	 ?clip_3d_polygon@@YGPAUVERTEX@@PAU1@H@Z ; clip_3d_polygon
  00213	89 45 f0	 mov	 DWORD PTR _line$2[ebp], eax
$LN5@draw_terra:

; 813  : 			}
; 814  : 
; 815  : 			if ( line )

  00216	83 7d f0 00	 cmp	 DWORD PTR _line$2[ebp], 0
  0021a	74 27		 je	 SHORT $LN6@draw_terra

; 816  : 			{
; 817  : 
; 818  : 				real_colour
; 819  : 					colour;
; 820  : 
; 821  : 				colour.red = 0;

  0021c	c6 45 ee 00	 mov	 BYTE PTR _colour$1[ebp+2], 0

; 822  : 				colour.green = 0;

  00220	c6 45 ed 00	 mov	 BYTE PTR _colour$1[ebp+1], 0

; 823  : 				colour.blue = 0;

  00224	c6 45 ec 00	 mov	 BYTE PTR _colour$1[ebp], 0

; 824  : 				colour.alpha = 0;

  00228	c6 45 ef 00	 mov	 BYTE PTR _colour$1[ebp+3], 0

; 825  : 
; 826  : 				d3d_fog_intensity = RGBA_MAKE ( 0, 0, 0, 255 );

  0022c	c7 05 00 00 00
	00 00 00 00 ff	 mov	 DWORD PTR ?d3d_fog_intensity@@3KA, -16777216 ; d3d_fog_intensity, ff000000H

; 827  : 
; 828  : 				draw_wbuffered_plain_line ( line, colour );

  00236	8b 45 ec	 mov	 eax, DWORD PTR _colour$1[ebp]
  00239	50		 push	 eax
  0023a	8b 4d f0	 mov	 ecx, DWORD PTR _line$2[ebp]
  0023d	51		 push	 ecx
  0023e	e8 00 00 00 00	 call	 ?draw_wbuffered_plain_line@@YGXPAUVERTEX@@UREAL_COLOUR@@@Z ; draw_wbuffered_plain_line
$LN6@draw_terra:

; 829  : 			}
; 830  : 		}
; 831  : 	}
; 832  : }

  00243	5f		 pop	 edi
  00244	5e		 pop	 esi
  00245	5b		 pop	 ebx
  00246	8b e5		 mov	 esp, ebp
  00248	5d		 pop	 ebp
  00249	c2 08 00	 ret	 8
?draw_terrain_line@@YGXHH@Z ENDP			; draw_terrain_line
_TEXT	ENDS
; Function compile flags: /Odtp /ZI
; File c:\users\nhv90\projects\eech\modules\3d\terrain\terrdr.c
;	COMDAT ?draw_3d_terrain_line_clipped_strip_word_face@@YGXH@Z
_TEXT	SEGMENT
_side$ = -4						; size = 4
_number_of_points$ = 8					; size = 4
?draw_3d_terrain_line_clipped_strip_word_face@@YGXH@Z PROC ; draw_3d_terrain_line_clipped_strip_word_face, COMDAT

; 732  : {

  00000	55		 push	 ebp
  00001	8b ec		 mov	 ebp, esp
  00003	83 ec 44	 sub	 esp, 68			; 00000044H
  00006	53		 push	 ebx
  00007	56		 push	 esi
  00008	57		 push	 edi

; 733  : 
; 734  : 	int
; 735  : 		side;
; 736  : 
; 737  : 	for ( side = 0; side < ( number_of_points - 2 ); side++ )

  00009	c7 45 fc 00 00
	00 00		 mov	 DWORD PTR _side$[ebp], 0
  00010	eb 09		 jmp	 SHORT $LN4@draw_3d_te
$LN2@draw_3d_te:
  00012	8b 45 fc	 mov	 eax, DWORD PTR _side$[ebp]
  00015	83 c0 01	 add	 eax, 1
  00018	89 45 fc	 mov	 DWORD PTR _side$[ebp], eax
$LN4@draw_3d_te:
  0001b	8b 45 08	 mov	 eax, DWORD PTR _number_of_points$[ebp]
  0001e	83 e8 02	 sub	 eax, 2
  00021	39 45 fc	 cmp	 DWORD PTR _side$[ebp], eax
  00024	0f 8d d3 00 00
	00		 jge	 $LN1@draw_3d_te

; 738  : 	{
; 739  : 
; 740  : 		draw_terrain_line ( terrain_3d_sector_point_word_references[side].point, terrain_3d_sector_point_word_references[side+1].point );

  0002a	8b 45 fc	 mov	 eax, DWORD PTR _side$[ebp]
  0002d	8b 0d 00 00 00
	00		 mov	 ecx, DWORD PTR ?terrain_3d_sector_point_word_references@@3PAUTERRAIN_3D_POINT_WORD_REFERENCE@@A ; terrain_3d_sector_point_word_references
  00033	0f b7 54 41 02	 movzx	 edx, WORD PTR [ecx+eax*2+2]
  00038	52		 push	 edx
  00039	8b 45 fc	 mov	 eax, DWORD PTR _side$[ebp]
  0003c	8b 0d 00 00 00
	00		 mov	 ecx, DWORD PTR ?terrain_3d_sector_point_word_references@@3PAUTERRAIN_3D_POINT_WORD_REFERENCE@@A ; terrain_3d_sector_point_word_references
  00042	0f b7 14 41	 movzx	 edx, WORD PTR [ecx+eax*2]
  00046	52		 push	 edx
  00047	e8 00 00 00 00	 call	 ?draw_terrain_line@@YGXHH@Z ; draw_terrain_line

; 741  : 		draw_terrain_line ( terrain_3d_sector_point_word_references[side+2].point, terrain_3d_sector_point_word_references[side].point );

  0004c	8b 45 fc	 mov	 eax, DWORD PTR _side$[ebp]
  0004f	8b 0d 00 00 00
	00		 mov	 ecx, DWORD PTR ?terrain_3d_sector_point_word_references@@3PAUTERRAIN_3D_POINT_WORD_REFERENCE@@A ; terrain_3d_sector_point_word_references
  00055	0f b7 14 41	 movzx	 edx, WORD PTR [ecx+eax*2]
  00059	52		 push	 edx
  0005a	8b 45 fc	 mov	 eax, DWORD PTR _side$[ebp]
  0005d	8b 0d 00 00 00
	00		 mov	 ecx, DWORD PTR ?terrain_3d_sector_point_word_references@@3PAUTERRAIN_3D_POINT_WORD_REFERENCE@@A ; terrain_3d_sector_point_word_references
  00063	0f b7 54 41 04	 movzx	 edx, WORD PTR [ecx+eax*2+4]
  00068	52		 push	 edx
  00069	e8 00 00 00 00	 call	 ?draw_terrain_line@@YGXHH@Z ; draw_terrain_line

; 742  : 		draw_terrain_line ( terrain_3d_sector_point_word_references[side+1].point, terrain_3d_sector_point_word_references[side+2].point );

  0006e	8b 45 fc	 mov	 eax, DWORD PTR _side$[ebp]
  00071	8b 0d 00 00 00
	00		 mov	 ecx, DWORD PTR ?terrain_3d_sector_point_word_references@@3PAUTERRAIN_3D_POINT_WORD_REFERENCE@@A ; terrain_3d_sector_point_word_references
  00077	0f b7 54 41 04	 movzx	 edx, WORD PTR [ecx+eax*2+4]
  0007c	52		 push	 edx
  0007d	8b 45 fc	 mov	 eax, DWORD PTR _side$[ebp]
  00080	8b 0d 00 00 00
	00		 mov	 ecx, DWORD PTR ?terrain_3d_sector_point_word_references@@3PAUTERRAIN_3D_POINT_WORD_REFERENCE@@A ; terrain_3d_sector_point_word_references
  00086	0f b7 54 41 02	 movzx	 edx, WORD PTR [ecx+eax*2+2]
  0008b	52		 push	 edx
  0008c	e8 00 00 00 00	 call	 ?draw_terrain_line@@YGXHH@Z ; draw_terrain_line

; 743  : 
; 744  : 		draw_terrain_line ( terrain_3d_sector_point_word_references[side+1].point, terrain_3d_sector_point_word_references[side].point );

  00091	8b 45 fc	 mov	 eax, DWORD PTR _side$[ebp]
  00094	8b 0d 00 00 00
	00		 mov	 ecx, DWORD PTR ?terrain_3d_sector_point_word_references@@3PAUTERRAIN_3D_POINT_WORD_REFERENCE@@A ; terrain_3d_sector_point_word_references
  0009a	0f b7 14 41	 movzx	 edx, WORD PTR [ecx+eax*2]
  0009e	52		 push	 edx
  0009f	8b 45 fc	 mov	 eax, DWORD PTR _side$[ebp]
  000a2	8b 0d 00 00 00
	00		 mov	 ecx, DWORD PTR ?terrain_3d_sector_point_word_references@@3PAUTERRAIN_3D_POINT_WORD_REFERENCE@@A ; terrain_3d_sector_point_word_references
  000a8	0f b7 54 41 02	 movzx	 edx, WORD PTR [ecx+eax*2+2]
  000ad	52		 push	 edx
  000ae	e8 00 00 00 00	 call	 ?draw_terrain_line@@YGXHH@Z ; draw_terrain_line

; 745  : 		draw_terrain_line ( terrain_3d_sector_point_word_references[side].point, terrain_3d_sector_point_word_references[side+2].point );

  000b3	8b 45 fc	 mov	 eax, DWORD PTR _side$[ebp]
  000b6	8b 0d 00 00 00
	00		 mov	 ecx, DWORD PTR ?terrain_3d_sector_point_word_references@@3PAUTERRAIN_3D_POINT_WORD_REFERENCE@@A ; terrain_3d_sector_point_word_references
  000bc	0f b7 54 41 04	 movzx	 edx, WORD PTR [ecx+eax*2+4]
  000c1	52		 push	 edx
  000c2	8b 45 fc	 mov	 eax, DWORD PTR _side$[ebp]
  000c5	8b 0d 00 00 00
	00		 mov	 ecx, DWORD PTR ?terrain_3d_sector_point_word_references@@3PAUTERRAIN_3D_POINT_WORD_REFERENCE@@A ; terrain_3d_sector_point_word_references
  000cb	0f b7 14 41	 movzx	 edx, WORD PTR [ecx+eax*2]
  000cf	52		 push	 edx
  000d0	e8 00 00 00 00	 call	 ?draw_terrain_line@@YGXHH@Z ; draw_terrain_line

; 746  : 		draw_terrain_line ( terrain_3d_sector_point_word_references[side+2].point, terrain_3d_sector_point_word_references[side+1].point );

  000d5	8b 45 fc	 mov	 eax, DWORD PTR _side$[ebp]
  000d8	8b 0d 00 00 00
	00		 mov	 ecx, DWORD PTR ?terrain_3d_sector_point_word_references@@3PAUTERRAIN_3D_POINT_WORD_REFERENCE@@A ; terrain_3d_sector_point_word_references
  000de	0f b7 54 41 02	 movzx	 edx, WORD PTR [ecx+eax*2+2]
  000e3	52		 push	 edx
  000e4	8b 45 fc	 mov	 eax, DWORD PTR _side$[ebp]
  000e7	8b 0d 00 00 00
	00		 mov	 ecx, DWORD PTR ?terrain_3d_sector_point_word_references@@3PAUTERRAIN_3D_POINT_WORD_REFERENCE@@A ; terrain_3d_sector_point_word_references
  000ed	0f b7 54 41 04	 movzx	 edx, WORD PTR [ecx+eax*2+4]
  000f2	52		 push	 edx
  000f3	e8 00 00 00 00	 call	 ?draw_terrain_line@@YGXHH@Z ; draw_terrain_line

; 747  : 	}

  000f8	e9 15 ff ff ff	 jmp	 $LN2@draw_3d_te
$LN1@draw_3d_te:

; 748  : }

  000fd	5f		 pop	 edi
  000fe	5e		 pop	 esi
  000ff	5b		 pop	 ebx
  00100	8b e5		 mov	 esp, ebp
  00102	5d		 pop	 ebp
  00103	c2 04 00	 ret	 4
?draw_3d_terrain_line_clipped_strip_word_face@@YGXH@Z ENDP ; draw_3d_terrain_line_clipped_strip_word_face
_TEXT	ENDS
; Function compile flags: /Odtp /ZI
; File c:\users\nhv90\projects\eech\modules\3d\terrain\terrdr.c
;	COMDAT ?draw_3d_terrain_line_clipped_strip_byte_face@@YGXH@Z
_TEXT	SEGMENT
_side$ = -4						; size = 4
_number_of_points$ = 8					; size = 4
?draw_3d_terrain_line_clipped_strip_byte_face@@YGXH@Z PROC ; draw_3d_terrain_line_clipped_strip_byte_face, COMDAT

; 709  : {

  00000	55		 push	 ebp
  00001	8b ec		 mov	 ebp, esp
  00003	83 ec 44	 sub	 esp, 68			; 00000044H
  00006	53		 push	 ebx
  00007	56		 push	 esi
  00008	57		 push	 edi

; 710  : 
; 711  : 	int
; 712  : 		side;
; 713  : 
; 714  : 	for ( side = 0; side < ( number_of_points - 2 ); side++ )

  00009	c7 45 fc 00 00
	00 00		 mov	 DWORD PTR _side$[ebp], 0
  00010	eb 09		 jmp	 SHORT $LN4@draw_3d_te
$LN2@draw_3d_te:
  00012	8b 45 fc	 mov	 eax, DWORD PTR _side$[ebp]
  00015	83 c0 01	 add	 eax, 1
  00018	89 45 fc	 mov	 DWORD PTR _side$[ebp], eax
$LN4@draw_3d_te:
  0001b	8b 45 08	 mov	 eax, DWORD PTR _number_of_points$[ebp]
  0001e	83 e8 02	 sub	 eax, 2
  00021	39 45 fc	 cmp	 DWORD PTR _side$[ebp], eax
  00024	0f 8d c1 00 00
	00		 jge	 $LN1@draw_3d_te

; 715  : 	{
; 716  : 
; 717  : 		draw_terrain_line ( terrain_3d_sector_point_byte_references[side].point, terrain_3d_sector_point_byte_references[side+1].point );

  0002a	a1 00 00 00 00	 mov	 eax, DWORD PTR ?terrain_3d_sector_point_byte_references@@3PAUTERRAIN_3D_POINT_BYTE_REFERENCE@@A ; terrain_3d_sector_point_byte_references
  0002f	03 45 fc	 add	 eax, DWORD PTR _side$[ebp]
  00032	0f b6 48 01	 movzx	 ecx, BYTE PTR [eax+1]
  00036	51		 push	 ecx
  00037	8b 15 00 00 00
	00		 mov	 edx, DWORD PTR ?terrain_3d_sector_point_byte_references@@3PAUTERRAIN_3D_POINT_BYTE_REFERENCE@@A ; terrain_3d_sector_point_byte_references
  0003d	03 55 fc	 add	 edx, DWORD PTR _side$[ebp]
  00040	0f b6 02	 movzx	 eax, BYTE PTR [edx]
  00043	50		 push	 eax
  00044	e8 00 00 00 00	 call	 ?draw_terrain_line@@YGXHH@Z ; draw_terrain_line

; 718  : 		draw_terrain_line ( terrain_3d_sector_point_byte_references[side+2].point, terrain_3d_sector_point_byte_references[side].point );

  00049	a1 00 00 00 00	 mov	 eax, DWORD PTR ?terrain_3d_sector_point_byte_references@@3PAUTERRAIN_3D_POINT_BYTE_REFERENCE@@A ; terrain_3d_sector_point_byte_references
  0004e	03 45 fc	 add	 eax, DWORD PTR _side$[ebp]
  00051	0f b6 08	 movzx	 ecx, BYTE PTR [eax]
  00054	51		 push	 ecx
  00055	8b 15 00 00 00
	00		 mov	 edx, DWORD PTR ?terrain_3d_sector_point_byte_references@@3PAUTERRAIN_3D_POINT_BYTE_REFERENCE@@A ; terrain_3d_sector_point_byte_references
  0005b	03 55 fc	 add	 edx, DWORD PTR _side$[ebp]
  0005e	0f b6 42 02	 movzx	 eax, BYTE PTR [edx+2]
  00062	50		 push	 eax
  00063	e8 00 00 00 00	 call	 ?draw_terrain_line@@YGXHH@Z ; draw_terrain_line

; 719  : 		draw_terrain_line ( terrain_3d_sector_point_byte_references[side+1].point, terrain_3d_sector_point_byte_references[side+2].point );

  00068	a1 00 00 00 00	 mov	 eax, DWORD PTR ?terrain_3d_sector_point_byte_references@@3PAUTERRAIN_3D_POINT_BYTE_REFERENCE@@A ; terrain_3d_sector_point_byte_references
  0006d	03 45 fc	 add	 eax, DWORD PTR _side$[ebp]
  00070	0f b6 48 02	 movzx	 ecx, BYTE PTR [eax+2]
  00074	51		 push	 ecx
  00075	8b 15 00 00 00
	00		 mov	 edx, DWORD PTR ?terrain_3d_sector_point_byte_references@@3PAUTERRAIN_3D_POINT_BYTE_REFERENCE@@A ; terrain_3d_sector_point_byte_references
  0007b	03 55 fc	 add	 edx, DWORD PTR _side$[ebp]
  0007e	0f b6 42 01	 movzx	 eax, BYTE PTR [edx+1]
  00082	50		 push	 eax
  00083	e8 00 00 00 00	 call	 ?draw_terrain_line@@YGXHH@Z ; draw_terrain_line

; 720  : 
; 721  : 		draw_terrain_line ( terrain_3d_sector_point_byte_references[side+1].point, terrain_3d_sector_point_byte_references[side].point );

  00088	a1 00 00 00 00	 mov	 eax, DWORD PTR ?terrain_3d_sector_point_byte_references@@3PAUTERRAIN_3D_POINT_BYTE_REFERENCE@@A ; terrain_3d_sector_point_byte_references
  0008d	03 45 fc	 add	 eax, DWORD PTR _side$[ebp]
  00090	0f b6 08	 movzx	 ecx, BYTE PTR [eax]
  00093	51		 push	 ecx
  00094	8b 15 00 00 00
	00		 mov	 edx, DWORD PTR ?terrain_3d_sector_point_byte_references@@3PAUTERRAIN_3D_POINT_BYTE_REFERENCE@@A ; terrain_3d_sector_point_byte_references
  0009a	03 55 fc	 add	 edx, DWORD PTR _side$[ebp]
  0009d	0f b6 42 01	 movzx	 eax, BYTE PTR [edx+1]
  000a1	50		 push	 eax
  000a2	e8 00 00 00 00	 call	 ?draw_terrain_line@@YGXHH@Z ; draw_terrain_line

; 722  : 		draw_terrain_line ( terrain_3d_sector_point_byte_references[side].point, terrain_3d_sector_point_byte_references[side+2].point );

  000a7	a1 00 00 00 00	 mov	 eax, DWORD PTR ?terrain_3d_sector_point_byte_references@@3PAUTERRAIN_3D_POINT_BYTE_REFERENCE@@A ; terrain_3d_sector_point_byte_references
  000ac	03 45 fc	 add	 eax, DWORD PTR _side$[ebp]
  000af	0f b6 48 02	 movzx	 ecx, BYTE PTR [eax+2]
  000b3	51		 push	 ecx
  000b4	8b 15 00 00 00
	00		 mov	 edx, DWORD PTR ?terrain_3d_sector_point_byte_references@@3PAUTERRAIN_3D_POINT_BYTE_REFERENCE@@A ; terrain_3d_sector_point_byte_references
  000ba	03 55 fc	 add	 edx, DWORD PTR _side$[ebp]
  000bd	0f b6 02	 movzx	 eax, BYTE PTR [edx]
  000c0	50		 push	 eax
  000c1	e8 00 00 00 00	 call	 ?draw_terrain_line@@YGXHH@Z ; draw_terrain_line

; 723  : 		draw_terrain_line ( terrain_3d_sector_point_byte_references[side+2].point, terrain_3d_sector_point_byte_references[side+1].point );

  000c6	a1 00 00 00 00	 mov	 eax, DWORD PTR ?terrain_3d_sector_point_byte_references@@3PAUTERRAIN_3D_POINT_BYTE_REFERENCE@@A ; terrain_3d_sector_point_byte_references
  000cb	03 45 fc	 add	 eax, DWORD PTR _side$[ebp]
  000ce	0f b6 48 01	 movzx	 ecx, BYTE PTR [eax+1]
  000d2	51		 push	 ecx
  000d3	8b 15 00 00 00
	00		 mov	 edx, DWORD PTR ?terrain_3d_sector_point_byte_references@@3PAUTERRAIN_3D_POINT_BYTE_REFERENCE@@A ; terrain_3d_sector_point_byte_references
  000d9	03 55 fc	 add	 edx, DWORD PTR _side$[ebp]
  000dc	0f b6 42 02	 movzx	 eax, BYTE PTR [edx+2]
  000e0	50		 push	 eax
  000e1	e8 00 00 00 00	 call	 ?draw_terrain_line@@YGXHH@Z ; draw_terrain_line

; 724  : 	}

  000e6	e9 27 ff ff ff	 jmp	 $LN2@draw_3d_te
$LN1@draw_3d_te:

; 725  : }

  000eb	5f		 pop	 edi
  000ec	5e		 pop	 esi
  000ed	5b		 pop	 ebx
  000ee	8b e5		 mov	 esp, ebp
  000f0	5d		 pop	 ebp
  000f1	c2 04 00	 ret	 4
?draw_3d_terrain_line_clipped_strip_byte_face@@YGXH@Z ENDP ; draw_3d_terrain_line_clipped_strip_byte_face
_TEXT	ENDS
; Function compile flags: /Odtp /ZI
; File c:\users\nhv90\projects\eech\modules\3d\terrain\terrdr.c
;	COMDAT ?draw_3d_terrain_twopass_texture_z_colour_unclipped_strip_byte_face@@YGXH@Z
_TEXT	SEGMENT
_number_of_points$ = 8					; size = 4
?draw_3d_terrain_twopass_texture_z_colour_unclipped_strip_byte_face@@YGXH@Z PROC ; draw_3d_terrain_twopass_texture_z_colour_unclipped_strip_byte_face, COMDAT

; 691  : {

  00000	55		 push	 ebp
  00001	8b ec		 mov	 ebp, esp
  00003	83 ec 40	 sub	 esp, 64			; 00000040H
  00006	53		 push	 ebx
  00007	56		 push	 esi
  00008	57		 push	 edi

; 692  : 
; 693  : 	render_3d_terrain_texture_xy_byte_colour_strip ( number_of_points );

  00009	8b 45 08	 mov	 eax, DWORD PTR _number_of_points$[ebp]
  0000c	50		 push	 eax
  0000d	e8 00 00 00 00	 call	 ?render_3d_terrain_texture_xy_byte_colour_strip@@YGXH@Z ; render_3d_terrain_texture_xy_byte_colour_strip

; 694  : 
; 695  : 	if ( terrain_alpha_visible_byte ( number_of_points, terrain_3d_sector_point_byte_references ) )

  00012	a1 00 00 00 00	 mov	 eax, DWORD PTR ?terrain_3d_sector_point_byte_references@@3PAUTERRAIN_3D_POINT_BYTE_REFERENCE@@A ; terrain_3d_sector_point_byte_references
  00017	50		 push	 eax
  00018	8b 4d 08	 mov	 ecx, DWORD PTR _number_of_points$[ebp]
  0001b	51		 push	 ecx
  0001c	e8 00 00 00 00	 call	 ?terrain_alpha_visible_byte@@YGHHPAUTERRAIN_3D_POINT_BYTE_REFERENCE@@@Z ; terrain_alpha_visible_byte
  00021	85 c0		 test	 eax, eax
  00023	74 09		 je	 SHORT $LN1@draw_3d_te

; 696  : 	{
; 697  : 									
; 698  : 		render_3d_terrain_secondary_texture_xy_byte_strip ( number_of_points );

  00025	8b 45 08	 mov	 eax, DWORD PTR _number_of_points$[ebp]
  00028	50		 push	 eax
  00029	e8 00 00 00 00	 call	 ?render_3d_terrain_secondary_texture_xy_byte_strip@@YGXH@Z ; render_3d_terrain_secondary_texture_xy_byte_strip
$LN1@draw_3d_te:

; 699  : 	}
; 700  : }

  0002e	5f		 pop	 edi
  0002f	5e		 pop	 esi
  00030	5b		 pop	 ebx
  00031	8b e5		 mov	 esp, ebp
  00033	5d		 pop	 ebp
  00034	c2 04 00	 ret	 4
?draw_3d_terrain_twopass_texture_z_colour_unclipped_strip_byte_face@@YGXH@Z ENDP ; draw_3d_terrain_twopass_texture_z_colour_unclipped_strip_byte_face
_TEXT	ENDS
; Function compile flags: /Odtp /ZI
; File c:\users\nhv90\projects\eech\modules\3d\terrain\terrdr.c
;	COMDAT ?draw_3d_terrain_twopass_texture_z_colour_unclipped_strip_word_face@@YGXH@Z
_TEXT	SEGMENT
_number_of_points$ = 8					; size = 4
?draw_3d_terrain_twopass_texture_z_colour_unclipped_strip_word_face@@YGXH@Z PROC ; draw_3d_terrain_twopass_texture_z_colour_unclipped_strip_word_face, COMDAT

; 675  : {

  00000	55		 push	 ebp
  00001	8b ec		 mov	 ebp, esp
  00003	83 ec 40	 sub	 esp, 64			; 00000040H
  00006	53		 push	 ebx
  00007	56		 push	 esi
  00008	57		 push	 edi

; 676  : 
; 677  : 	render_3d_terrain_texture_xy_word_colour_strip ( number_of_points );

  00009	8b 45 08	 mov	 eax, DWORD PTR _number_of_points$[ebp]
  0000c	50		 push	 eax
  0000d	e8 00 00 00 00	 call	 ?render_3d_terrain_texture_xy_word_colour_strip@@YGXH@Z ; render_3d_terrain_texture_xy_word_colour_strip

; 678  : 
; 679  : 	if ( terrain_alpha_visible_word ( number_of_points, terrain_3d_sector_point_word_references ) )

  00012	a1 00 00 00 00	 mov	 eax, DWORD PTR ?terrain_3d_sector_point_word_references@@3PAUTERRAIN_3D_POINT_WORD_REFERENCE@@A ; terrain_3d_sector_point_word_references
  00017	50		 push	 eax
  00018	8b 4d 08	 mov	 ecx, DWORD PTR _number_of_points$[ebp]
  0001b	51		 push	 ecx
  0001c	e8 00 00 00 00	 call	 ?terrain_alpha_visible_word@@YGHHPAUTERRAIN_3D_POINT_WORD_REFERENCE@@@Z ; terrain_alpha_visible_word
  00021	85 c0		 test	 eax, eax
  00023	74 09		 je	 SHORT $LN1@draw_3d_te

; 680  : 	{
; 681  : 							
; 682  : 		render_3d_terrain_secondary_texture_xy_word_strip ( number_of_points );

  00025	8b 45 08	 mov	 eax, DWORD PTR _number_of_points$[ebp]
  00028	50		 push	 eax
  00029	e8 00 00 00 00	 call	 ?render_3d_terrain_secondary_texture_xy_word_strip@@YGXH@Z ; render_3d_terrain_secondary_texture_xy_word_strip
$LN1@draw_3d_te:

; 683  : 	}
; 684  : }

  0002e	5f		 pop	 edi
  0002f	5e		 pop	 esi
  00030	5b		 pop	 ebx
  00031	8b e5		 mov	 esp, ebp
  00033	5d		 pop	 ebp
  00034	c2 04 00	 ret	 4
?draw_3d_terrain_twopass_texture_z_colour_unclipped_strip_word_face@@YGXH@Z ENDP ; draw_3d_terrain_twopass_texture_z_colour_unclipped_strip_word_face
_TEXT	ENDS
; Function compile flags: /Odtp /ZI
; File c:\users\nhv90\projects\eech\modules\3d\terrain\terrdr.c
;	COMDAT ?draw_3d_terrain_twopass_texture_x_colour_unclipped_strip_byte_face@@YGXH@Z
_TEXT	SEGMENT
_number_of_points$ = 8					; size = 4
?draw_3d_terrain_twopass_texture_x_colour_unclipped_strip_byte_face@@YGXH@Z PROC ; draw_3d_terrain_twopass_texture_x_colour_unclipped_strip_byte_face, COMDAT

; 659  : {

  00000	55		 push	 ebp
  00001	8b ec		 mov	 ebp, esp
  00003	83 ec 40	 sub	 esp, 64			; 00000040H
  00006	53		 push	 ebx
  00007	56		 push	 esi
  00008	57		 push	 edi

; 660  : 
; 661  : 	render_3d_terrain_texture_zy_byte_colour_strip ( number_of_points );

  00009	8b 45 08	 mov	 eax, DWORD PTR _number_of_points$[ebp]
  0000c	50		 push	 eax
  0000d	e8 00 00 00 00	 call	 ?render_3d_terrain_texture_zy_byte_colour_strip@@YGXH@Z ; render_3d_terrain_texture_zy_byte_colour_strip

; 662  : 
; 663  : 	if ( terrain_alpha_visible_byte ( number_of_points, terrain_3d_sector_point_byte_references ) )

  00012	a1 00 00 00 00	 mov	 eax, DWORD PTR ?terrain_3d_sector_point_byte_references@@3PAUTERRAIN_3D_POINT_BYTE_REFERENCE@@A ; terrain_3d_sector_point_byte_references
  00017	50		 push	 eax
  00018	8b 4d 08	 mov	 ecx, DWORD PTR _number_of_points$[ebp]
  0001b	51		 push	 ecx
  0001c	e8 00 00 00 00	 call	 ?terrain_alpha_visible_byte@@YGHHPAUTERRAIN_3D_POINT_BYTE_REFERENCE@@@Z ; terrain_alpha_visible_byte
  00021	85 c0		 test	 eax, eax
  00023	74 09		 je	 SHORT $LN1@draw_3d_te

; 664  : 	{
; 665  : 								
; 666  : 		render_3d_terrain_secondary_texture_zy_byte_strip ( number_of_points );

  00025	8b 45 08	 mov	 eax, DWORD PTR _number_of_points$[ebp]
  00028	50		 push	 eax
  00029	e8 00 00 00 00	 call	 ?render_3d_terrain_secondary_texture_zy_byte_strip@@YGXH@Z ; render_3d_terrain_secondary_texture_zy_byte_strip
$LN1@draw_3d_te:

; 667  : 	}
; 668  : }

  0002e	5f		 pop	 edi
  0002f	5e		 pop	 esi
  00030	5b		 pop	 ebx
  00031	8b e5		 mov	 esp, ebp
  00033	5d		 pop	 ebp
  00034	c2 04 00	 ret	 4
?draw_3d_terrain_twopass_texture_x_colour_unclipped_strip_byte_face@@YGXH@Z ENDP ; draw_3d_terrain_twopass_texture_x_colour_unclipped_strip_byte_face
_TEXT	ENDS
; Function compile flags: /Odtp /ZI
; File c:\users\nhv90\projects\eech\modules\3d\terrain\terrdr.c
;	COMDAT ?draw_3d_terrain_twopass_texture_x_colour_unclipped_strip_word_face@@YGXH@Z
_TEXT	SEGMENT
_number_of_points$ = 8					; size = 4
?draw_3d_terrain_twopass_texture_x_colour_unclipped_strip_word_face@@YGXH@Z PROC ; draw_3d_terrain_twopass_texture_x_colour_unclipped_strip_word_face, COMDAT

; 643  : {

  00000	55		 push	 ebp
  00001	8b ec		 mov	 ebp, esp
  00003	83 ec 40	 sub	 esp, 64			; 00000040H
  00006	53		 push	 ebx
  00007	56		 push	 esi
  00008	57		 push	 edi

; 644  : 
; 645  : 	render_3d_terrain_texture_zy_word_colour_strip ( number_of_points );

  00009	8b 45 08	 mov	 eax, DWORD PTR _number_of_points$[ebp]
  0000c	50		 push	 eax
  0000d	e8 00 00 00 00	 call	 ?render_3d_terrain_texture_zy_word_colour_strip@@YGXH@Z ; render_3d_terrain_texture_zy_word_colour_strip

; 646  : 
; 647  : 	if ( terrain_alpha_visible_word ( number_of_points, terrain_3d_sector_point_word_references ) )

  00012	a1 00 00 00 00	 mov	 eax, DWORD PTR ?terrain_3d_sector_point_word_references@@3PAUTERRAIN_3D_POINT_WORD_REFERENCE@@A ; terrain_3d_sector_point_word_references
  00017	50		 push	 eax
  00018	8b 4d 08	 mov	 ecx, DWORD PTR _number_of_points$[ebp]
  0001b	51		 push	 ecx
  0001c	e8 00 00 00 00	 call	 ?terrain_alpha_visible_word@@YGHHPAUTERRAIN_3D_POINT_WORD_REFERENCE@@@Z ; terrain_alpha_visible_word
  00021	85 c0		 test	 eax, eax
  00023	74 09		 je	 SHORT $LN1@draw_3d_te

; 648  : 	{
; 649  : 						
; 650  : 		render_3d_terrain_secondary_texture_zy_word_strip ( number_of_points );

  00025	8b 45 08	 mov	 eax, DWORD PTR _number_of_points$[ebp]
  00028	50		 push	 eax
  00029	e8 00 00 00 00	 call	 ?render_3d_terrain_secondary_texture_zy_word_strip@@YGXH@Z ; render_3d_terrain_secondary_texture_zy_word_strip
$LN1@draw_3d_te:

; 651  : 	}
; 652  : }

  0002e	5f		 pop	 edi
  0002f	5e		 pop	 esi
  00030	5b		 pop	 ebx
  00031	8b e5		 mov	 esp, ebp
  00033	5d		 pop	 ebp
  00034	c2 04 00	 ret	 4
?draw_3d_terrain_twopass_texture_x_colour_unclipped_strip_word_face@@YGXH@Z ENDP ; draw_3d_terrain_twopass_texture_x_colour_unclipped_strip_word_face
_TEXT	ENDS
; Function compile flags: /Odtp /ZI
; File c:\users\nhv90\projects\eech\modules\3d\terrain\terrdr.c
;	COMDAT ?draw_3d_terrain_twopass_texture_z_colour_unclipped_fan_byte_face@@YGXH@Z
_TEXT	SEGMENT
_number_of_points$ = 8					; size = 4
?draw_3d_terrain_twopass_texture_z_colour_unclipped_fan_byte_face@@YGXH@Z PROC ; draw_3d_terrain_twopass_texture_z_colour_unclipped_fan_byte_face, COMDAT

; 627  : {

  00000	55		 push	 ebp
  00001	8b ec		 mov	 ebp, esp
  00003	83 ec 40	 sub	 esp, 64			; 00000040H
  00006	53		 push	 ebx
  00007	56		 push	 esi
  00008	57		 push	 edi

; 628  : 
; 629  : 	render_3d_terrain_texture_xy_byte_colour_fan ( number_of_points );

  00009	8b 45 08	 mov	 eax, DWORD PTR _number_of_points$[ebp]
  0000c	50		 push	 eax
  0000d	e8 00 00 00 00	 call	 ?render_3d_terrain_texture_xy_byte_colour_fan@@YGXH@Z ; render_3d_terrain_texture_xy_byte_colour_fan

; 630  : 
; 631  : 	if ( terrain_alpha_visible_byte ( number_of_points, terrain_3d_sector_point_byte_references ) )

  00012	a1 00 00 00 00	 mov	 eax, DWORD PTR ?terrain_3d_sector_point_byte_references@@3PAUTERRAIN_3D_POINT_BYTE_REFERENCE@@A ; terrain_3d_sector_point_byte_references
  00017	50		 push	 eax
  00018	8b 4d 08	 mov	 ecx, DWORD PTR _number_of_points$[ebp]
  0001b	51		 push	 ecx
  0001c	e8 00 00 00 00	 call	 ?terrain_alpha_visible_byte@@YGHHPAUTERRAIN_3D_POINT_BYTE_REFERENCE@@@Z ; terrain_alpha_visible_byte
  00021	85 c0		 test	 eax, eax
  00023	74 09		 je	 SHORT $LN1@draw_3d_te

; 632  : 	{
; 633  : 									
; 634  : 		render_3d_terrain_secondary_texture_xy_byte_fan ( number_of_points );

  00025	8b 45 08	 mov	 eax, DWORD PTR _number_of_points$[ebp]
  00028	50		 push	 eax
  00029	e8 00 00 00 00	 call	 ?render_3d_terrain_secondary_texture_xy_byte_fan@@YGXH@Z ; render_3d_terrain_secondary_texture_xy_byte_fan
$LN1@draw_3d_te:

; 635  : 	}
; 636  : }

  0002e	5f		 pop	 edi
  0002f	5e		 pop	 esi
  00030	5b		 pop	 ebx
  00031	8b e5		 mov	 esp, ebp
  00033	5d		 pop	 ebp
  00034	c2 04 00	 ret	 4
?draw_3d_terrain_twopass_texture_z_colour_unclipped_fan_byte_face@@YGXH@Z ENDP ; draw_3d_terrain_twopass_texture_z_colour_unclipped_fan_byte_face
_TEXT	ENDS
; Function compile flags: /Odtp /ZI
; File c:\users\nhv90\projects\eech\modules\3d\terrain\terrdr.c
;	COMDAT ?draw_3d_terrain_twopass_texture_z_colour_unclipped_fan_word_face@@YGXH@Z
_TEXT	SEGMENT
_number_of_points$ = 8					; size = 4
?draw_3d_terrain_twopass_texture_z_colour_unclipped_fan_word_face@@YGXH@Z PROC ; draw_3d_terrain_twopass_texture_z_colour_unclipped_fan_word_face, COMDAT

; 611  : {

  00000	55		 push	 ebp
  00001	8b ec		 mov	 ebp, esp
  00003	83 ec 40	 sub	 esp, 64			; 00000040H
  00006	53		 push	 ebx
  00007	56		 push	 esi
  00008	57		 push	 edi

; 612  : 
; 613  : 	render_3d_terrain_texture_xy_word_colour_fan ( number_of_points );

  00009	8b 45 08	 mov	 eax, DWORD PTR _number_of_points$[ebp]
  0000c	50		 push	 eax
  0000d	e8 00 00 00 00	 call	 ?render_3d_terrain_texture_xy_word_colour_fan@@YGXH@Z ; render_3d_terrain_texture_xy_word_colour_fan

; 614  : 
; 615  : 	if ( terrain_alpha_visible_word ( number_of_points, terrain_3d_sector_point_word_references ) )

  00012	a1 00 00 00 00	 mov	 eax, DWORD PTR ?terrain_3d_sector_point_word_references@@3PAUTERRAIN_3D_POINT_WORD_REFERENCE@@A ; terrain_3d_sector_point_word_references
  00017	50		 push	 eax
  00018	8b 4d 08	 mov	 ecx, DWORD PTR _number_of_points$[ebp]
  0001b	51		 push	 ecx
  0001c	e8 00 00 00 00	 call	 ?terrain_alpha_visible_word@@YGHHPAUTERRAIN_3D_POINT_WORD_REFERENCE@@@Z ; terrain_alpha_visible_word
  00021	85 c0		 test	 eax, eax
  00023	74 09		 je	 SHORT $LN1@draw_3d_te

; 616  : 	{
; 617  : 							
; 618  : 		render_3d_terrain_secondary_texture_xy_word_fan ( number_of_points );

  00025	8b 45 08	 mov	 eax, DWORD PTR _number_of_points$[ebp]
  00028	50		 push	 eax
  00029	e8 00 00 00 00	 call	 ?render_3d_terrain_secondary_texture_xy_word_fan@@YGXH@Z ; render_3d_terrain_secondary_texture_xy_word_fan
$LN1@draw_3d_te:

; 619  : 	}
; 620  : }

  0002e	5f		 pop	 edi
  0002f	5e		 pop	 esi
  00030	5b		 pop	 ebx
  00031	8b e5		 mov	 esp, ebp
  00033	5d		 pop	 ebp
  00034	c2 04 00	 ret	 4
?draw_3d_terrain_twopass_texture_z_colour_unclipped_fan_word_face@@YGXH@Z ENDP ; draw_3d_terrain_twopass_texture_z_colour_unclipped_fan_word_face
_TEXT	ENDS
; Function compile flags: /Odtp /ZI
; File c:\users\nhv90\projects\eech\modules\3d\terrain\terrdr.c
;	COMDAT ?draw_3d_terrain_twopass_texture_x_colour_unclipped_fan_byte_face@@YGXH@Z
_TEXT	SEGMENT
_number_of_points$ = 8					; size = 4
?draw_3d_terrain_twopass_texture_x_colour_unclipped_fan_byte_face@@YGXH@Z PROC ; draw_3d_terrain_twopass_texture_x_colour_unclipped_fan_byte_face, COMDAT

; 595  : {

  00000	55		 push	 ebp
  00001	8b ec		 mov	 ebp, esp
  00003	83 ec 40	 sub	 esp, 64			; 00000040H
  00006	53		 push	 ebx
  00007	56		 push	 esi
  00008	57		 push	 edi

; 596  : 
; 597  : 	render_3d_terrain_texture_zy_byte_colour_fan ( number_of_points );

  00009	8b 45 08	 mov	 eax, DWORD PTR _number_of_points$[ebp]
  0000c	50		 push	 eax
  0000d	e8 00 00 00 00	 call	 ?render_3d_terrain_texture_zy_byte_colour_fan@@YGXH@Z ; render_3d_terrain_texture_zy_byte_colour_fan

; 598  : 
; 599  : 	if ( terrain_alpha_visible_byte ( number_of_points, terrain_3d_sector_point_byte_references ) )

  00012	a1 00 00 00 00	 mov	 eax, DWORD PTR ?terrain_3d_sector_point_byte_references@@3PAUTERRAIN_3D_POINT_BYTE_REFERENCE@@A ; terrain_3d_sector_point_byte_references
  00017	50		 push	 eax
  00018	8b 4d 08	 mov	 ecx, DWORD PTR _number_of_points$[ebp]
  0001b	51		 push	 ecx
  0001c	e8 00 00 00 00	 call	 ?terrain_alpha_visible_byte@@YGHHPAUTERRAIN_3D_POINT_BYTE_REFERENCE@@@Z ; terrain_alpha_visible_byte
  00021	85 c0		 test	 eax, eax
  00023	74 09		 je	 SHORT $LN1@draw_3d_te

; 600  : 	{
; 601  : 								
; 602  : 		render_3d_terrain_secondary_texture_zy_byte_fan ( number_of_points );

  00025	8b 45 08	 mov	 eax, DWORD PTR _number_of_points$[ebp]
  00028	50		 push	 eax
  00029	e8 00 00 00 00	 call	 ?render_3d_terrain_secondary_texture_zy_byte_fan@@YGXH@Z ; render_3d_terrain_secondary_texture_zy_byte_fan
$LN1@draw_3d_te:

; 603  : 	}
; 604  : }

  0002e	5f		 pop	 edi
  0002f	5e		 pop	 esi
  00030	5b		 pop	 ebx
  00031	8b e5		 mov	 esp, ebp
  00033	5d		 pop	 ebp
  00034	c2 04 00	 ret	 4
?draw_3d_terrain_twopass_texture_x_colour_unclipped_fan_byte_face@@YGXH@Z ENDP ; draw_3d_terrain_twopass_texture_x_colour_unclipped_fan_byte_face
_TEXT	ENDS
; Function compile flags: /Odtp /ZI
; File c:\users\nhv90\projects\eech\modules\3d\terrain\terrdr.c
;	COMDAT ?draw_3d_terrain_twopass_texture_x_colour_unclipped_fan_word_face@@YGXH@Z
_TEXT	SEGMENT
_number_of_points$ = 8					; size = 4
?draw_3d_terrain_twopass_texture_x_colour_unclipped_fan_word_face@@YGXH@Z PROC ; draw_3d_terrain_twopass_texture_x_colour_unclipped_fan_word_face, COMDAT

; 579  : {

  00000	55		 push	 ebp
  00001	8b ec		 mov	 ebp, esp
  00003	83 ec 40	 sub	 esp, 64			; 00000040H
  00006	53		 push	 ebx
  00007	56		 push	 esi
  00008	57		 push	 edi

; 580  : 
; 581  : 	render_3d_terrain_texture_zy_word_colour_fan ( number_of_points );

  00009	8b 45 08	 mov	 eax, DWORD PTR _number_of_points$[ebp]
  0000c	50		 push	 eax
  0000d	e8 00 00 00 00	 call	 ?render_3d_terrain_texture_zy_word_colour_fan@@YGXH@Z ; render_3d_terrain_texture_zy_word_colour_fan

; 582  : 
; 583  : 	if ( terrain_alpha_visible_word ( number_of_points, terrain_3d_sector_point_word_references ) )

  00012	a1 00 00 00 00	 mov	 eax, DWORD PTR ?terrain_3d_sector_point_word_references@@3PAUTERRAIN_3D_POINT_WORD_REFERENCE@@A ; terrain_3d_sector_point_word_references
  00017	50		 push	 eax
  00018	8b 4d 08	 mov	 ecx, DWORD PTR _number_of_points$[ebp]
  0001b	51		 push	 ecx
  0001c	e8 00 00 00 00	 call	 ?terrain_alpha_visible_word@@YGHHPAUTERRAIN_3D_POINT_WORD_REFERENCE@@@Z ; terrain_alpha_visible_word
  00021	85 c0		 test	 eax, eax
  00023	74 09		 je	 SHORT $LN1@draw_3d_te

; 584  : 	{
; 585  : 						
; 586  : 		render_3d_terrain_secondary_texture_zy_word_fan ( number_of_points );

  00025	8b 45 08	 mov	 eax, DWORD PTR _number_of_points$[ebp]
  00028	50		 push	 eax
  00029	e8 00 00 00 00	 call	 ?render_3d_terrain_secondary_texture_zy_word_fan@@YGXH@Z ; render_3d_terrain_secondary_texture_zy_word_fan
$LN1@draw_3d_te:

; 587  : 	}
; 588  : }

  0002e	5f		 pop	 edi
  0002f	5e		 pop	 esi
  00030	5b		 pop	 ebx
  00031	8b e5		 mov	 esp, ebp
  00033	5d		 pop	 ebp
  00034	c2 04 00	 ret	 4
?draw_3d_terrain_twopass_texture_x_colour_unclipped_fan_word_face@@YGXH@Z ENDP ; draw_3d_terrain_twopass_texture_x_colour_unclipped_fan_word_face
_TEXT	ENDS
; Function compile flags: /Odtp /ZI
; File c:\users\nhv90\projects\eech\modules\3d\terrain\terrdr.c
;	COMDAT ?draw_3d_terrain_twopass_colour_unclipped_strip_byte_face@@YGXH@Z
_TEXT	SEGMENT
_number_of_points$ = 8					; size = 4
?draw_3d_terrain_twopass_colour_unclipped_strip_byte_face@@YGXH@Z PROC ; draw_3d_terrain_twopass_colour_unclipped_strip_byte_face, COMDAT

; 563  : {

  00000	55		 push	 ebp
  00001	8b ec		 mov	 ebp, esp
  00003	83 ec 40	 sub	 esp, 64			; 00000040H
  00006	53		 push	 ebx
  00007	56		 push	 esi
  00008	57		 push	 edi

; 564  : 
; 565  : 	render_3d_terrain_byte_colour_strip ( number_of_points );

  00009	8b 45 08	 mov	 eax, DWORD PTR _number_of_points$[ebp]
  0000c	50		 push	 eax
  0000d	e8 00 00 00 00	 call	 ?render_3d_terrain_byte_colour_strip@@YGXH@Z ; render_3d_terrain_byte_colour_strip

; 566  : 
; 567  : 	if ( terrain_alpha_visible_byte ( number_of_points, terrain_3d_sector_point_byte_references ) )

  00012	a1 00 00 00 00	 mov	 eax, DWORD PTR ?terrain_3d_sector_point_byte_references@@3PAUTERRAIN_3D_POINT_BYTE_REFERENCE@@A ; terrain_3d_sector_point_byte_references
  00017	50		 push	 eax
  00018	8b 4d 08	 mov	 ecx, DWORD PTR _number_of_points$[ebp]
  0001b	51		 push	 ecx
  0001c	e8 00 00 00 00	 call	 ?terrain_alpha_visible_byte@@YGHHPAUTERRAIN_3D_POINT_BYTE_REFERENCE@@@Z ; terrain_alpha_visible_byte
  00021	85 c0		 test	 eax, eax
  00023	74 09		 je	 SHORT $LN1@draw_3d_te

; 568  : 	{
; 569  : 							
; 570  : 		render_3d_terrain_secondary_byte_strip ( number_of_points );

  00025	8b 45 08	 mov	 eax, DWORD PTR _number_of_points$[ebp]
  00028	50		 push	 eax
  00029	e8 00 00 00 00	 call	 ?render_3d_terrain_secondary_byte_strip@@YGXH@Z ; render_3d_terrain_secondary_byte_strip
$LN1@draw_3d_te:

; 571  : 	}
; 572  : }

  0002e	5f		 pop	 edi
  0002f	5e		 pop	 esi
  00030	5b		 pop	 ebx
  00031	8b e5		 mov	 esp, ebp
  00033	5d		 pop	 ebp
  00034	c2 04 00	 ret	 4
?draw_3d_terrain_twopass_colour_unclipped_strip_byte_face@@YGXH@Z ENDP ; draw_3d_terrain_twopass_colour_unclipped_strip_byte_face
_TEXT	ENDS
; Function compile flags: /Odtp /ZI
; File c:\users\nhv90\projects\eech\modules\3d\terrain\terrdr.c
;	COMDAT ?draw_3d_terrain_twopass_colour_unclipped_strip_word_face@@YGXH@Z
_TEXT	SEGMENT
_number_of_points$ = 8					; size = 4
?draw_3d_terrain_twopass_colour_unclipped_strip_word_face@@YGXH@Z PROC ; draw_3d_terrain_twopass_colour_unclipped_strip_word_face, COMDAT

; 547  : {

  00000	55		 push	 ebp
  00001	8b ec		 mov	 ebp, esp
  00003	83 ec 40	 sub	 esp, 64			; 00000040H
  00006	53		 push	 ebx
  00007	56		 push	 esi
  00008	57		 push	 edi

; 548  : 
; 549  : 	render_3d_terrain_word_colour_strip ( number_of_points );

  00009	8b 45 08	 mov	 eax, DWORD PTR _number_of_points$[ebp]
  0000c	50		 push	 eax
  0000d	e8 00 00 00 00	 call	 ?render_3d_terrain_word_colour_strip@@YGXH@Z ; render_3d_terrain_word_colour_strip

; 550  : 
; 551  : 	if ( terrain_alpha_visible_word ( number_of_points, terrain_3d_sector_point_word_references ) )

  00012	a1 00 00 00 00	 mov	 eax, DWORD PTR ?terrain_3d_sector_point_word_references@@3PAUTERRAIN_3D_POINT_WORD_REFERENCE@@A ; terrain_3d_sector_point_word_references
  00017	50		 push	 eax
  00018	8b 4d 08	 mov	 ecx, DWORD PTR _number_of_points$[ebp]
  0001b	51		 push	 ecx
  0001c	e8 00 00 00 00	 call	 ?terrain_alpha_visible_word@@YGHHPAUTERRAIN_3D_POINT_WORD_REFERENCE@@@Z ; terrain_alpha_visible_word
  00021	85 c0		 test	 eax, eax
  00023	74 09		 je	 SHORT $LN1@draw_3d_te

; 552  : 	{
; 553  : 					
; 554  : 		render_3d_terrain_secondary_word_strip ( number_of_points );

  00025	8b 45 08	 mov	 eax, DWORD PTR _number_of_points$[ebp]
  00028	50		 push	 eax
  00029	e8 00 00 00 00	 call	 ?render_3d_terrain_secondary_word_strip@@YGXH@Z ; render_3d_terrain_secondary_word_strip
$LN1@draw_3d_te:

; 555  : 	}
; 556  : }

  0002e	5f		 pop	 edi
  0002f	5e		 pop	 esi
  00030	5b		 pop	 ebx
  00031	8b e5		 mov	 esp, ebp
  00033	5d		 pop	 ebp
  00034	c2 04 00	 ret	 4
?draw_3d_terrain_twopass_colour_unclipped_strip_word_face@@YGXH@Z ENDP ; draw_3d_terrain_twopass_colour_unclipped_strip_word_face
_TEXT	ENDS
; Function compile flags: /Odtp /ZI
; File c:\users\nhv90\projects\eech\modules\3d\terrain\terrdr.c
;	COMDAT ?draw_3d_terrain_twopass_colour_unclipped_fan_byte_face@@YGXH@Z
_TEXT	SEGMENT
_number_of_points$ = 8					; size = 4
?draw_3d_terrain_twopass_colour_unclipped_fan_byte_face@@YGXH@Z PROC ; draw_3d_terrain_twopass_colour_unclipped_fan_byte_face, COMDAT

; 531  : {

  00000	55		 push	 ebp
  00001	8b ec		 mov	 ebp, esp
  00003	83 ec 40	 sub	 esp, 64			; 00000040H
  00006	53		 push	 ebx
  00007	56		 push	 esi
  00008	57		 push	 edi

; 532  : 
; 533  : 	render_3d_terrain_byte_colour_fan ( number_of_points );

  00009	8b 45 08	 mov	 eax, DWORD PTR _number_of_points$[ebp]
  0000c	50		 push	 eax
  0000d	e8 00 00 00 00	 call	 ?render_3d_terrain_byte_colour_fan@@YGXH@Z ; render_3d_terrain_byte_colour_fan

; 534  : 
; 535  : 	if ( terrain_alpha_visible_byte ( number_of_points, terrain_3d_sector_point_byte_references ) )

  00012	a1 00 00 00 00	 mov	 eax, DWORD PTR ?terrain_3d_sector_point_byte_references@@3PAUTERRAIN_3D_POINT_BYTE_REFERENCE@@A ; terrain_3d_sector_point_byte_references
  00017	50		 push	 eax
  00018	8b 4d 08	 mov	 ecx, DWORD PTR _number_of_points$[ebp]
  0001b	51		 push	 ecx
  0001c	e8 00 00 00 00	 call	 ?terrain_alpha_visible_byte@@YGHHPAUTERRAIN_3D_POINT_BYTE_REFERENCE@@@Z ; terrain_alpha_visible_byte
  00021	85 c0		 test	 eax, eax
  00023	74 09		 je	 SHORT $LN1@draw_3d_te

; 536  : 	{
; 537  : 							
; 538  : 		render_3d_terrain_secondary_byte_fan ( number_of_points );

  00025	8b 45 08	 mov	 eax, DWORD PTR _number_of_points$[ebp]
  00028	50		 push	 eax
  00029	e8 00 00 00 00	 call	 ?render_3d_terrain_secondary_byte_fan@@YGXH@Z ; render_3d_terrain_secondary_byte_fan
$LN1@draw_3d_te:

; 539  : 	}
; 540  : }

  0002e	5f		 pop	 edi
  0002f	5e		 pop	 esi
  00030	5b		 pop	 ebx
  00031	8b e5		 mov	 esp, ebp
  00033	5d		 pop	 ebp
  00034	c2 04 00	 ret	 4
?draw_3d_terrain_twopass_colour_unclipped_fan_byte_face@@YGXH@Z ENDP ; draw_3d_terrain_twopass_colour_unclipped_fan_byte_face
_TEXT	ENDS
; Function compile flags: /Odtp /ZI
; File c:\users\nhv90\projects\eech\modules\3d\terrain\terrdr.c
;	COMDAT ?draw_3d_terrain_twopass_colour_unclipped_fan_word_face@@YGXH@Z
_TEXT	SEGMENT
_number_of_points$ = 8					; size = 4
?draw_3d_terrain_twopass_colour_unclipped_fan_word_face@@YGXH@Z PROC ; draw_3d_terrain_twopass_colour_unclipped_fan_word_face, COMDAT

; 515  : {

  00000	55		 push	 ebp
  00001	8b ec		 mov	 ebp, esp
  00003	83 ec 40	 sub	 esp, 64			; 00000040H
  00006	53		 push	 ebx
  00007	56		 push	 esi
  00008	57		 push	 edi

; 516  : 
; 517  : 	render_3d_terrain_word_colour_fan ( number_of_points );

  00009	8b 45 08	 mov	 eax, DWORD PTR _number_of_points$[ebp]
  0000c	50		 push	 eax
  0000d	e8 00 00 00 00	 call	 ?render_3d_terrain_word_colour_fan@@YGXH@Z ; render_3d_terrain_word_colour_fan

; 518  : 
; 519  : 	if ( terrain_alpha_visible_word ( number_of_points, terrain_3d_sector_point_word_references ) )

  00012	a1 00 00 00 00	 mov	 eax, DWORD PTR ?terrain_3d_sector_point_word_references@@3PAUTERRAIN_3D_POINT_WORD_REFERENCE@@A ; terrain_3d_sector_point_word_references
  00017	50		 push	 eax
  00018	8b 4d 08	 mov	 ecx, DWORD PTR _number_of_points$[ebp]
  0001b	51		 push	 ecx
  0001c	e8 00 00 00 00	 call	 ?terrain_alpha_visible_word@@YGHHPAUTERRAIN_3D_POINT_WORD_REFERENCE@@@Z ; terrain_alpha_visible_word
  00021	85 c0		 test	 eax, eax
  00023	74 09		 je	 SHORT $LN1@draw_3d_te

; 520  : 	{
; 521  : 					
; 522  : 		render_3d_terrain_secondary_word_fan ( number_of_points );

  00025	8b 45 08	 mov	 eax, DWORD PTR _number_of_points$[ebp]
  00028	50		 push	 eax
  00029	e8 00 00 00 00	 call	 ?render_3d_terrain_secondary_word_fan@@YGXH@Z ; render_3d_terrain_secondary_word_fan
$LN1@draw_3d_te:

; 523  : 	}
; 524  : }

  0002e	5f		 pop	 edi
  0002f	5e		 pop	 esi
  00030	5b		 pop	 ebx
  00031	8b e5		 mov	 esp, ebp
  00033	5d		 pop	 ebp
  00034	c2 04 00	 ret	 4
?draw_3d_terrain_twopass_colour_unclipped_fan_word_face@@YGXH@Z ENDP ; draw_3d_terrain_twopass_colour_unclipped_fan_word_face
_TEXT	ENDS
; Function compile flags: /Odtp /ZI
; File c:\users\nhv90\projects\eech\modules\3d\terrain\terrdr.c
;	COMDAT ?draw_3d_terrain_twopass_texture_z_unclipped_strip_byte_face@@YGXH@Z
_TEXT	SEGMENT
_number_of_points$ = 8					; size = 4
?draw_3d_terrain_twopass_texture_z_unclipped_strip_byte_face@@YGXH@Z PROC ; draw_3d_terrain_twopass_texture_z_unclipped_strip_byte_face, COMDAT

; 499  : {

  00000	55		 push	 ebp
  00001	8b ec		 mov	 ebp, esp
  00003	83 ec 40	 sub	 esp, 64			; 00000040H
  00006	53		 push	 ebx
  00007	56		 push	 esi
  00008	57		 push	 edi

; 500  : 
; 501  : 	render_3d_terrain_texture_xy_byte_strip ( number_of_points );

  00009	8b 45 08	 mov	 eax, DWORD PTR _number_of_points$[ebp]
  0000c	50		 push	 eax
  0000d	e8 00 00 00 00	 call	 ?render_3d_terrain_texture_xy_byte_strip@@YGXH@Z ; render_3d_terrain_texture_xy_byte_strip

; 502  : 
; 503  : 	if ( terrain_alpha_visible_byte ( number_of_points, terrain_3d_sector_point_byte_references ) )

  00012	a1 00 00 00 00	 mov	 eax, DWORD PTR ?terrain_3d_sector_point_byte_references@@3PAUTERRAIN_3D_POINT_BYTE_REFERENCE@@A ; terrain_3d_sector_point_byte_references
  00017	50		 push	 eax
  00018	8b 4d 08	 mov	 ecx, DWORD PTR _number_of_points$[ebp]
  0001b	51		 push	 ecx
  0001c	e8 00 00 00 00	 call	 ?terrain_alpha_visible_byte@@YGHHPAUTERRAIN_3D_POINT_BYTE_REFERENCE@@@Z ; terrain_alpha_visible_byte
  00021	85 c0		 test	 eax, eax
  00023	74 09		 je	 SHORT $LN1@draw_3d_te

; 504  : 	{
; 505  : 						
; 506  : 		render_3d_terrain_secondary_texture_xy_byte_strip ( number_of_points );

  00025	8b 45 08	 mov	 eax, DWORD PTR _number_of_points$[ebp]
  00028	50		 push	 eax
  00029	e8 00 00 00 00	 call	 ?render_3d_terrain_secondary_texture_xy_byte_strip@@YGXH@Z ; render_3d_terrain_secondary_texture_xy_byte_strip
$LN1@draw_3d_te:

; 507  : 	}
; 508  : }

  0002e	5f		 pop	 edi
  0002f	5e		 pop	 esi
  00030	5b		 pop	 ebx
  00031	8b e5		 mov	 esp, ebp
  00033	5d		 pop	 ebp
  00034	c2 04 00	 ret	 4
?draw_3d_terrain_twopass_texture_z_unclipped_strip_byte_face@@YGXH@Z ENDP ; draw_3d_terrain_twopass_texture_z_unclipped_strip_byte_face
_TEXT	ENDS
; Function compile flags: /Odtp /ZI
; File c:\users\nhv90\projects\eech\modules\3d\terrain\terrdr.c
;	COMDAT ?draw_3d_terrain_twopass_texture_z_unclipped_strip_word_face@@YGXH@Z
_TEXT	SEGMENT
_number_of_points$ = 8					; size = 4
?draw_3d_terrain_twopass_texture_z_unclipped_strip_word_face@@YGXH@Z PROC ; draw_3d_terrain_twopass_texture_z_unclipped_strip_word_face, COMDAT

; 483  : {

  00000	55		 push	 ebp
  00001	8b ec		 mov	 ebp, esp
  00003	83 ec 40	 sub	 esp, 64			; 00000040H
  00006	53		 push	 ebx
  00007	56		 push	 esi
  00008	57		 push	 edi

; 484  : 
; 485  : 	render_3d_terrain_texture_xy_word_strip ( number_of_points );

  00009	8b 45 08	 mov	 eax, DWORD PTR _number_of_points$[ebp]
  0000c	50		 push	 eax
  0000d	e8 00 00 00 00	 call	 ?render_3d_terrain_texture_xy_word_strip@@YGXH@Z ; render_3d_terrain_texture_xy_word_strip

; 486  : 
; 487  : 	if ( terrain_alpha_visible_word ( number_of_points, terrain_3d_sector_point_word_references ) )

  00012	a1 00 00 00 00	 mov	 eax, DWORD PTR ?terrain_3d_sector_point_word_references@@3PAUTERRAIN_3D_POINT_WORD_REFERENCE@@A ; terrain_3d_sector_point_word_references
  00017	50		 push	 eax
  00018	8b 4d 08	 mov	 ecx, DWORD PTR _number_of_points$[ebp]
  0001b	51		 push	 ecx
  0001c	e8 00 00 00 00	 call	 ?terrain_alpha_visible_word@@YGHHPAUTERRAIN_3D_POINT_WORD_REFERENCE@@@Z ; terrain_alpha_visible_word
  00021	85 c0		 test	 eax, eax
  00023	74 09		 je	 SHORT $LN1@draw_3d_te

; 488  : 	{
; 489  : 				
; 490  : 		render_3d_terrain_secondary_texture_xy_word_strip ( number_of_points );

  00025	8b 45 08	 mov	 eax, DWORD PTR _number_of_points$[ebp]
  00028	50		 push	 eax
  00029	e8 00 00 00 00	 call	 ?render_3d_terrain_secondary_texture_xy_word_strip@@YGXH@Z ; render_3d_terrain_secondary_texture_xy_word_strip
$LN1@draw_3d_te:

; 491  : 	}
; 492  : }

  0002e	5f		 pop	 edi
  0002f	5e		 pop	 esi
  00030	5b		 pop	 ebx
  00031	8b e5		 mov	 esp, ebp
  00033	5d		 pop	 ebp
  00034	c2 04 00	 ret	 4
?draw_3d_terrain_twopass_texture_z_unclipped_strip_word_face@@YGXH@Z ENDP ; draw_3d_terrain_twopass_texture_z_unclipped_strip_word_face
_TEXT	ENDS
; Function compile flags: /Odtp /ZI
; File c:\users\nhv90\projects\eech\modules\3d\terrain\terrdr.c
;	COMDAT ?draw_3d_terrain_twopass_texture_x_unclipped_strip_byte_face@@YGXH@Z
_TEXT	SEGMENT
_number_of_points$ = 8					; size = 4
?draw_3d_terrain_twopass_texture_x_unclipped_strip_byte_face@@YGXH@Z PROC ; draw_3d_terrain_twopass_texture_x_unclipped_strip_byte_face, COMDAT

; 467  : {

  00000	55		 push	 ebp
  00001	8b ec		 mov	 ebp, esp
  00003	83 ec 40	 sub	 esp, 64			; 00000040H
  00006	53		 push	 ebx
  00007	56		 push	 esi
  00008	57		 push	 edi

; 468  : 
; 469  : 	render_3d_terrain_texture_zy_byte_strip ( number_of_points );

  00009	8b 45 08	 mov	 eax, DWORD PTR _number_of_points$[ebp]
  0000c	50		 push	 eax
  0000d	e8 00 00 00 00	 call	 ?render_3d_terrain_texture_zy_byte_strip@@YGXH@Z ; render_3d_terrain_texture_zy_byte_strip

; 470  : 
; 471  : 	if ( terrain_alpha_visible_byte ( number_of_points, terrain_3d_sector_point_byte_references ) )

  00012	a1 00 00 00 00	 mov	 eax, DWORD PTR ?terrain_3d_sector_point_byte_references@@3PAUTERRAIN_3D_POINT_BYTE_REFERENCE@@A ; terrain_3d_sector_point_byte_references
  00017	50		 push	 eax
  00018	8b 4d 08	 mov	 ecx, DWORD PTR _number_of_points$[ebp]
  0001b	51		 push	 ecx
  0001c	e8 00 00 00 00	 call	 ?terrain_alpha_visible_byte@@YGHHPAUTERRAIN_3D_POINT_BYTE_REFERENCE@@@Z ; terrain_alpha_visible_byte
  00021	85 c0		 test	 eax, eax
  00023	74 09		 je	 SHORT $LN1@draw_3d_te

; 472  : 	{
; 473  : 					
; 474  : 		render_3d_terrain_secondary_texture_zy_byte_strip ( number_of_points );

  00025	8b 45 08	 mov	 eax, DWORD PTR _number_of_points$[ebp]
  00028	50		 push	 eax
  00029	e8 00 00 00 00	 call	 ?render_3d_terrain_secondary_texture_zy_byte_strip@@YGXH@Z ; render_3d_terrain_secondary_texture_zy_byte_strip
$LN1@draw_3d_te:

; 475  : 	}
; 476  : }

  0002e	5f		 pop	 edi
  0002f	5e		 pop	 esi
  00030	5b		 pop	 ebx
  00031	8b e5		 mov	 esp, ebp
  00033	5d		 pop	 ebp
  00034	c2 04 00	 ret	 4
?draw_3d_terrain_twopass_texture_x_unclipped_strip_byte_face@@YGXH@Z ENDP ; draw_3d_terrain_twopass_texture_x_unclipped_strip_byte_face
_TEXT	ENDS
; Function compile flags: /Odtp /ZI
; File c:\users\nhv90\projects\eech\modules\3d\terrain\terrdr.c
;	COMDAT ?draw_3d_terrain_twopass_texture_x_unclipped_strip_word_face@@YGXH@Z
_TEXT	SEGMENT
_number_of_points$ = 8					; size = 4
?draw_3d_terrain_twopass_texture_x_unclipped_strip_word_face@@YGXH@Z PROC ; draw_3d_terrain_twopass_texture_x_unclipped_strip_word_face, COMDAT

; 451  : {

  00000	55		 push	 ebp
  00001	8b ec		 mov	 ebp, esp
  00003	83 ec 40	 sub	 esp, 64			; 00000040H
  00006	53		 push	 ebx
  00007	56		 push	 esi
  00008	57		 push	 edi

; 452  : 
; 453  : 	render_3d_terrain_texture_zy_word_strip ( number_of_points );

  00009	8b 45 08	 mov	 eax, DWORD PTR _number_of_points$[ebp]
  0000c	50		 push	 eax
  0000d	e8 00 00 00 00	 call	 ?render_3d_terrain_texture_zy_word_strip@@YGXH@Z ; render_3d_terrain_texture_zy_word_strip

; 454  : 
; 455  : 	if ( terrain_alpha_visible_word ( number_of_points, terrain_3d_sector_point_word_references ) )

  00012	a1 00 00 00 00	 mov	 eax, DWORD PTR ?terrain_3d_sector_point_word_references@@3PAUTERRAIN_3D_POINT_WORD_REFERENCE@@A ; terrain_3d_sector_point_word_references
  00017	50		 push	 eax
  00018	8b 4d 08	 mov	 ecx, DWORD PTR _number_of_points$[ebp]
  0001b	51		 push	 ecx
  0001c	e8 00 00 00 00	 call	 ?terrain_alpha_visible_word@@YGHHPAUTERRAIN_3D_POINT_WORD_REFERENCE@@@Z ; terrain_alpha_visible_word
  00021	85 c0		 test	 eax, eax
  00023	74 09		 je	 SHORT $LN1@draw_3d_te

; 456  : 	{
; 457  : 			
; 458  : 		render_3d_terrain_secondary_texture_zy_word_strip ( number_of_points );

  00025	8b 45 08	 mov	 eax, DWORD PTR _number_of_points$[ebp]
  00028	50		 push	 eax
  00029	e8 00 00 00 00	 call	 ?render_3d_terrain_secondary_texture_zy_word_strip@@YGXH@Z ; render_3d_terrain_secondary_texture_zy_word_strip
$LN1@draw_3d_te:

; 459  : 	}
; 460  : }

  0002e	5f		 pop	 edi
  0002f	5e		 pop	 esi
  00030	5b		 pop	 ebx
  00031	8b e5		 mov	 esp, ebp
  00033	5d		 pop	 ebp
  00034	c2 04 00	 ret	 4
?draw_3d_terrain_twopass_texture_x_unclipped_strip_word_face@@YGXH@Z ENDP ; draw_3d_terrain_twopass_texture_x_unclipped_strip_word_face
_TEXT	ENDS
; Function compile flags: /Odtp /ZI
; File c:\users\nhv90\projects\eech\modules\3d\terrain\terrdr.c
;	COMDAT ?draw_3d_terrain_twopass_texture_z_unclipped_fan_byte_face@@YGXH@Z
_TEXT	SEGMENT
_number_of_points$ = 8					; size = 4
?draw_3d_terrain_twopass_texture_z_unclipped_fan_byte_face@@YGXH@Z PROC ; draw_3d_terrain_twopass_texture_z_unclipped_fan_byte_face, COMDAT

; 435  : {

  00000	55		 push	 ebp
  00001	8b ec		 mov	 ebp, esp
  00003	83 ec 40	 sub	 esp, 64			; 00000040H
  00006	53		 push	 ebx
  00007	56		 push	 esi
  00008	57		 push	 edi

; 436  : 
; 437  : 	render_3d_terrain_texture_xy_byte_fan ( number_of_points );

  00009	8b 45 08	 mov	 eax, DWORD PTR _number_of_points$[ebp]
  0000c	50		 push	 eax
  0000d	e8 00 00 00 00	 call	 ?render_3d_terrain_texture_xy_byte_fan@@YGXH@Z ; render_3d_terrain_texture_xy_byte_fan

; 438  : 
; 439  : 	if ( terrain_alpha_visible_byte ( number_of_points, terrain_3d_sector_point_byte_references ) )

  00012	a1 00 00 00 00	 mov	 eax, DWORD PTR ?terrain_3d_sector_point_byte_references@@3PAUTERRAIN_3D_POINT_BYTE_REFERENCE@@A ; terrain_3d_sector_point_byte_references
  00017	50		 push	 eax
  00018	8b 4d 08	 mov	 ecx, DWORD PTR _number_of_points$[ebp]
  0001b	51		 push	 ecx
  0001c	e8 00 00 00 00	 call	 ?terrain_alpha_visible_byte@@YGHHPAUTERRAIN_3D_POINT_BYTE_REFERENCE@@@Z ; terrain_alpha_visible_byte
  00021	85 c0		 test	 eax, eax
  00023	74 09		 je	 SHORT $LN1@draw_3d_te

; 440  : 	{
; 441  : 						
; 442  : 		render_3d_terrain_secondary_texture_xy_byte_fan ( number_of_points );

  00025	8b 45 08	 mov	 eax, DWORD PTR _number_of_points$[ebp]
  00028	50		 push	 eax
  00029	e8 00 00 00 00	 call	 ?render_3d_terrain_secondary_texture_xy_byte_fan@@YGXH@Z ; render_3d_terrain_secondary_texture_xy_byte_fan
$LN1@draw_3d_te:

; 443  : 	}
; 444  : }

  0002e	5f		 pop	 edi
  0002f	5e		 pop	 esi
  00030	5b		 pop	 ebx
  00031	8b e5		 mov	 esp, ebp
  00033	5d		 pop	 ebp
  00034	c2 04 00	 ret	 4
?draw_3d_terrain_twopass_texture_z_unclipped_fan_byte_face@@YGXH@Z ENDP ; draw_3d_terrain_twopass_texture_z_unclipped_fan_byte_face
_TEXT	ENDS
; Function compile flags: /Odtp /ZI
; File c:\users\nhv90\projects\eech\modules\3d\terrain\terrdr.c
;	COMDAT ?draw_3d_terrain_twopass_texture_z_unclipped_fan_word_face@@YGXH@Z
_TEXT	SEGMENT
_number_of_points$ = 8					; size = 4
?draw_3d_terrain_twopass_texture_z_unclipped_fan_word_face@@YGXH@Z PROC ; draw_3d_terrain_twopass_texture_z_unclipped_fan_word_face, COMDAT

; 419  : {

  00000	55		 push	 ebp
  00001	8b ec		 mov	 ebp, esp
  00003	83 ec 40	 sub	 esp, 64			; 00000040H
  00006	53		 push	 ebx
  00007	56		 push	 esi
  00008	57		 push	 edi

; 420  : 
; 421  : 	render_3d_terrain_texture_xy_word_fan ( number_of_points );

  00009	8b 45 08	 mov	 eax, DWORD PTR _number_of_points$[ebp]
  0000c	50		 push	 eax
  0000d	e8 00 00 00 00	 call	 ?render_3d_terrain_texture_xy_word_fan@@YGXH@Z ; render_3d_terrain_texture_xy_word_fan

; 422  : 
; 423  : 	if ( terrain_alpha_visible_word ( number_of_points, terrain_3d_sector_point_word_references ) )

  00012	a1 00 00 00 00	 mov	 eax, DWORD PTR ?terrain_3d_sector_point_word_references@@3PAUTERRAIN_3D_POINT_WORD_REFERENCE@@A ; terrain_3d_sector_point_word_references
  00017	50		 push	 eax
  00018	8b 4d 08	 mov	 ecx, DWORD PTR _number_of_points$[ebp]
  0001b	51		 push	 ecx
  0001c	e8 00 00 00 00	 call	 ?terrain_alpha_visible_word@@YGHHPAUTERRAIN_3D_POINT_WORD_REFERENCE@@@Z ; terrain_alpha_visible_word
  00021	85 c0		 test	 eax, eax
  00023	74 09		 je	 SHORT $LN1@draw_3d_te

; 424  : 	{
; 425  : 				
; 426  : 		render_3d_terrain_secondary_texture_xy_word_fan ( number_of_points );

  00025	8b 45 08	 mov	 eax, DWORD PTR _number_of_points$[ebp]
  00028	50		 push	 eax
  00029	e8 00 00 00 00	 call	 ?render_3d_terrain_secondary_texture_xy_word_fan@@YGXH@Z ; render_3d_terrain_secondary_texture_xy_word_fan
$LN1@draw_3d_te:

; 427  : 	}
; 428  : }

  0002e	5f		 pop	 edi
  0002f	5e		 pop	 esi
  00030	5b		 pop	 ebx
  00031	8b e5		 mov	 esp, ebp
  00033	5d		 pop	 ebp
  00034	c2 04 00	 ret	 4
?draw_3d_terrain_twopass_texture_z_unclipped_fan_word_face@@YGXH@Z ENDP ; draw_3d_terrain_twopass_texture_z_unclipped_fan_word_face
_TEXT	ENDS
; Function compile flags: /Odtp /ZI
; File c:\users\nhv90\projects\eech\modules\3d\terrain\terrdr.c
;	COMDAT ?draw_3d_terrain_twopass_texture_x_unclipped_fan_byte_face@@YGXH@Z
_TEXT	SEGMENT
_number_of_points$ = 8					; size = 4
?draw_3d_terrain_twopass_texture_x_unclipped_fan_byte_face@@YGXH@Z PROC ; draw_3d_terrain_twopass_texture_x_unclipped_fan_byte_face, COMDAT

; 403  : {

  00000	55		 push	 ebp
  00001	8b ec		 mov	 ebp, esp
  00003	83 ec 40	 sub	 esp, 64			; 00000040H
  00006	53		 push	 ebx
  00007	56		 push	 esi
  00008	57		 push	 edi

; 404  : 
; 405  : 	render_3d_terrain_texture_zy_byte_fan ( number_of_points );

  00009	8b 45 08	 mov	 eax, DWORD PTR _number_of_points$[ebp]
  0000c	50		 push	 eax
  0000d	e8 00 00 00 00	 call	 ?render_3d_terrain_texture_zy_byte_fan@@YGXH@Z ; render_3d_terrain_texture_zy_byte_fan

; 406  : 
; 407  : 	if ( terrain_alpha_visible_byte ( number_of_points, terrain_3d_sector_point_byte_references ) )

  00012	a1 00 00 00 00	 mov	 eax, DWORD PTR ?terrain_3d_sector_point_byte_references@@3PAUTERRAIN_3D_POINT_BYTE_REFERENCE@@A ; terrain_3d_sector_point_byte_references
  00017	50		 push	 eax
  00018	8b 4d 08	 mov	 ecx, DWORD PTR _number_of_points$[ebp]
  0001b	51		 push	 ecx
  0001c	e8 00 00 00 00	 call	 ?terrain_alpha_visible_byte@@YGHHPAUTERRAIN_3D_POINT_BYTE_REFERENCE@@@Z ; terrain_alpha_visible_byte
  00021	85 c0		 test	 eax, eax
  00023	74 09		 je	 SHORT $LN1@draw_3d_te

; 408  : 	{
; 409  : 					
; 410  : 		render_3d_terrain_secondary_texture_zy_byte_fan ( number_of_points );

  00025	8b 45 08	 mov	 eax, DWORD PTR _number_of_points$[ebp]
  00028	50		 push	 eax
  00029	e8 00 00 00 00	 call	 ?render_3d_terrain_secondary_texture_zy_byte_fan@@YGXH@Z ; render_3d_terrain_secondary_texture_zy_byte_fan
$LN1@draw_3d_te:

; 411  : 	}
; 412  : }

  0002e	5f		 pop	 edi
  0002f	5e		 pop	 esi
  00030	5b		 pop	 ebx
  00031	8b e5		 mov	 esp, ebp
  00033	5d		 pop	 ebp
  00034	c2 04 00	 ret	 4
?draw_3d_terrain_twopass_texture_x_unclipped_fan_byte_face@@YGXH@Z ENDP ; draw_3d_terrain_twopass_texture_x_unclipped_fan_byte_face
_TEXT	ENDS
; Function compile flags: /Odtp /ZI
; File c:\users\nhv90\projects\eech\modules\3d\terrain\terrdr.c
;	COMDAT ?draw_3d_terrain_twopass_texture_x_unclipped_fan_word_face@@YGXH@Z
_TEXT	SEGMENT
_number_of_points$ = 8					; size = 4
?draw_3d_terrain_twopass_texture_x_unclipped_fan_word_face@@YGXH@Z PROC ; draw_3d_terrain_twopass_texture_x_unclipped_fan_word_face, COMDAT

; 387  : {

  00000	55		 push	 ebp
  00001	8b ec		 mov	 ebp, esp
  00003	83 ec 40	 sub	 esp, 64			; 00000040H
  00006	53		 push	 ebx
  00007	56		 push	 esi
  00008	57		 push	 edi

; 388  : 
; 389  : 	render_3d_terrain_texture_zy_word_fan ( number_of_points );

  00009	8b 45 08	 mov	 eax, DWORD PTR _number_of_points$[ebp]
  0000c	50		 push	 eax
  0000d	e8 00 00 00 00	 call	 ?render_3d_terrain_texture_zy_word_fan@@YGXH@Z ; render_3d_terrain_texture_zy_word_fan

; 390  : 
; 391  : 	if ( terrain_alpha_visible_word ( number_of_points, terrain_3d_sector_point_word_references ) )

  00012	a1 00 00 00 00	 mov	 eax, DWORD PTR ?terrain_3d_sector_point_word_references@@3PAUTERRAIN_3D_POINT_WORD_REFERENCE@@A ; terrain_3d_sector_point_word_references
  00017	50		 push	 eax
  00018	8b 4d 08	 mov	 ecx, DWORD PTR _number_of_points$[ebp]
  0001b	51		 push	 ecx
  0001c	e8 00 00 00 00	 call	 ?terrain_alpha_visible_word@@YGHHPAUTERRAIN_3D_POINT_WORD_REFERENCE@@@Z ; terrain_alpha_visible_word
  00021	85 c0		 test	 eax, eax
  00023	74 09		 je	 SHORT $LN1@draw_3d_te

; 392  : 	{
; 393  : 			
; 394  : 		render_3d_terrain_secondary_texture_zy_word_fan ( number_of_points );

  00025	8b 45 08	 mov	 eax, DWORD PTR _number_of_points$[ebp]
  00028	50		 push	 eax
  00029	e8 00 00 00 00	 call	 ?render_3d_terrain_secondary_texture_zy_word_fan@@YGXH@Z ; render_3d_terrain_secondary_texture_zy_word_fan
$LN1@draw_3d_te:

; 395  : 	}
; 396  : }

  0002e	5f		 pop	 edi
  0002f	5e		 pop	 esi
  00030	5b		 pop	 ebx
  00031	8b e5		 mov	 esp, ebp
  00033	5d		 pop	 ebp
  00034	c2 04 00	 ret	 4
?draw_3d_terrain_twopass_texture_x_unclipped_fan_word_face@@YGXH@Z ENDP ; draw_3d_terrain_twopass_texture_x_unclipped_fan_word_face
_TEXT	ENDS
; Function compile flags: /Odtp /ZI
; File c:\users\nhv90\projects\eech\modules\3d\terrain\terrdr.c
;	COMDAT ?draw_3d_terrain_twopass_unclipped_strip_byte_face@@YGXH@Z
_TEXT	SEGMENT
_number_of_points$ = 8					; size = 4
?draw_3d_terrain_twopass_unclipped_strip_byte_face@@YGXH@Z PROC ; draw_3d_terrain_twopass_unclipped_strip_byte_face, COMDAT

; 371  : {

  00000	55		 push	 ebp
  00001	8b ec		 mov	 ebp, esp
  00003	83 ec 40	 sub	 esp, 64			; 00000040H
  00006	53		 push	 ebx
  00007	56		 push	 esi
  00008	57		 push	 edi

; 372  : 
; 373  : 	render_3d_terrain_byte_strip ( number_of_points );

  00009	8b 45 08	 mov	 eax, DWORD PTR _number_of_points$[ebp]
  0000c	50		 push	 eax
  0000d	e8 00 00 00 00	 call	 ?render_3d_terrain_byte_strip@@YGXH@Z ; render_3d_terrain_byte_strip

; 374  : 
; 375  : 	if ( terrain_alpha_visible_byte ( number_of_points, terrain_3d_sector_point_byte_references ) )

  00012	a1 00 00 00 00	 mov	 eax, DWORD PTR ?terrain_3d_sector_point_byte_references@@3PAUTERRAIN_3D_POINT_BYTE_REFERENCE@@A ; terrain_3d_sector_point_byte_references
  00017	50		 push	 eax
  00018	8b 4d 08	 mov	 ecx, DWORD PTR _number_of_points$[ebp]
  0001b	51		 push	 ecx
  0001c	e8 00 00 00 00	 call	 ?terrain_alpha_visible_byte@@YGHHPAUTERRAIN_3D_POINT_BYTE_REFERENCE@@@Z ; terrain_alpha_visible_byte
  00021	85 c0		 test	 eax, eax
  00023	74 09		 je	 SHORT $LN1@draw_3d_te

; 376  : 	{
; 377  : 				
; 378  : 		render_3d_terrain_secondary_byte_strip ( number_of_points );

  00025	8b 45 08	 mov	 eax, DWORD PTR _number_of_points$[ebp]
  00028	50		 push	 eax
  00029	e8 00 00 00 00	 call	 ?render_3d_terrain_secondary_byte_strip@@YGXH@Z ; render_3d_terrain_secondary_byte_strip
$LN1@draw_3d_te:

; 379  : 	}
; 380  : }

  0002e	5f		 pop	 edi
  0002f	5e		 pop	 esi
  00030	5b		 pop	 ebx
  00031	8b e5		 mov	 esp, ebp
  00033	5d		 pop	 ebp
  00034	c2 04 00	 ret	 4
?draw_3d_terrain_twopass_unclipped_strip_byte_face@@YGXH@Z ENDP ; draw_3d_terrain_twopass_unclipped_strip_byte_face
_TEXT	ENDS
; Function compile flags: /Odtp /ZI
; File c:\users\nhv90\projects\eech\modules\3d\terrain\terrdr.c
;	COMDAT ?draw_3d_terrain_twopass_unclipped_strip_word_face@@YGXH@Z
_TEXT	SEGMENT
_number_of_points$ = 8					; size = 4
?draw_3d_terrain_twopass_unclipped_strip_word_face@@YGXH@Z PROC ; draw_3d_terrain_twopass_unclipped_strip_word_face, COMDAT

; 355  : {

  00000	55		 push	 ebp
  00001	8b ec		 mov	 ebp, esp
  00003	83 ec 40	 sub	 esp, 64			; 00000040H
  00006	53		 push	 ebx
  00007	56		 push	 esi
  00008	57		 push	 edi

; 356  : 
; 357  : 	render_3d_terrain_word_strip ( number_of_points );

  00009	8b 45 08	 mov	 eax, DWORD PTR _number_of_points$[ebp]
  0000c	50		 push	 eax
  0000d	e8 00 00 00 00	 call	 ?render_3d_terrain_word_strip@@YGXH@Z ; render_3d_terrain_word_strip

; 358  : 
; 359  : 	if ( terrain_alpha_visible_word ( number_of_points, terrain_3d_sector_point_word_references ) )

  00012	a1 00 00 00 00	 mov	 eax, DWORD PTR ?terrain_3d_sector_point_word_references@@3PAUTERRAIN_3D_POINT_WORD_REFERENCE@@A ; terrain_3d_sector_point_word_references
  00017	50		 push	 eax
  00018	8b 4d 08	 mov	 ecx, DWORD PTR _number_of_points$[ebp]
  0001b	51		 push	 ecx
  0001c	e8 00 00 00 00	 call	 ?terrain_alpha_visible_word@@YGHHPAUTERRAIN_3D_POINT_WORD_REFERENCE@@@Z ; terrain_alpha_visible_word
  00021	85 c0		 test	 eax, eax
  00023	74 09		 je	 SHORT $LN1@draw_3d_te

; 360  : 	{
; 361  : 		
; 362  : 		render_3d_terrain_secondary_word_strip ( number_of_points );

  00025	8b 45 08	 mov	 eax, DWORD PTR _number_of_points$[ebp]
  00028	50		 push	 eax
  00029	e8 00 00 00 00	 call	 ?render_3d_terrain_secondary_word_strip@@YGXH@Z ; render_3d_terrain_secondary_word_strip
$LN1@draw_3d_te:

; 363  : 	}
; 364  : }

  0002e	5f		 pop	 edi
  0002f	5e		 pop	 esi
  00030	5b		 pop	 ebx
  00031	8b e5		 mov	 esp, ebp
  00033	5d		 pop	 ebp
  00034	c2 04 00	 ret	 4
?draw_3d_terrain_twopass_unclipped_strip_word_face@@YGXH@Z ENDP ; draw_3d_terrain_twopass_unclipped_strip_word_face
_TEXT	ENDS
; Function compile flags: /Odtp /ZI
; File c:\users\nhv90\projects\eech\modules\3d\terrain\terrdr.c
;	COMDAT ?draw_3d_terrain_twopass_unclipped_fan_byte_face@@YGXH@Z
_TEXT	SEGMENT
_number_of_points$ = 8					; size = 4
?draw_3d_terrain_twopass_unclipped_fan_byte_face@@YGXH@Z PROC ; draw_3d_terrain_twopass_unclipped_fan_byte_face, COMDAT

; 339  : {

  00000	55		 push	 ebp
  00001	8b ec		 mov	 ebp, esp
  00003	83 ec 40	 sub	 esp, 64			; 00000040H
  00006	53		 push	 ebx
  00007	56		 push	 esi
  00008	57		 push	 edi

; 340  : 		
; 341  : 	render_3d_terrain_byte_fan ( number_of_points );

  00009	8b 45 08	 mov	 eax, DWORD PTR _number_of_points$[ebp]
  0000c	50		 push	 eax
  0000d	e8 00 00 00 00	 call	 ?render_3d_terrain_byte_fan@@YGXH@Z ; render_3d_terrain_byte_fan

; 342  : 
; 343  : 	if ( terrain_alpha_visible_byte ( number_of_points, terrain_3d_sector_point_byte_references ) )

  00012	a1 00 00 00 00	 mov	 eax, DWORD PTR ?terrain_3d_sector_point_byte_references@@3PAUTERRAIN_3D_POINT_BYTE_REFERENCE@@A ; terrain_3d_sector_point_byte_references
  00017	50		 push	 eax
  00018	8b 4d 08	 mov	 ecx, DWORD PTR _number_of_points$[ebp]
  0001b	51		 push	 ecx
  0001c	e8 00 00 00 00	 call	 ?terrain_alpha_visible_byte@@YGHHPAUTERRAIN_3D_POINT_BYTE_REFERENCE@@@Z ; terrain_alpha_visible_byte
  00021	85 c0		 test	 eax, eax
  00023	74 09		 je	 SHORT $LN1@draw_3d_te

; 344  : 	{
; 345  : 			
; 346  : 		render_3d_terrain_secondary_byte_fan ( number_of_points );

  00025	8b 45 08	 mov	 eax, DWORD PTR _number_of_points$[ebp]
  00028	50		 push	 eax
  00029	e8 00 00 00 00	 call	 ?render_3d_terrain_secondary_byte_fan@@YGXH@Z ; render_3d_terrain_secondary_byte_fan
$LN1@draw_3d_te:

; 347  : 	}
; 348  : }

  0002e	5f		 pop	 edi
  0002f	5e		 pop	 esi
  00030	5b		 pop	 ebx
  00031	8b e5		 mov	 esp, ebp
  00033	5d		 pop	 ebp
  00034	c2 04 00	 ret	 4
?draw_3d_terrain_twopass_unclipped_fan_byte_face@@YGXH@Z ENDP ; draw_3d_terrain_twopass_unclipped_fan_byte_face
_TEXT	ENDS
; Function compile flags: /Odtp /ZI
; File c:\users\nhv90\projects\eech\modules\3d\terrain\terrdr.c
;	COMDAT ?draw_3d_terrain_twopass_unclipped_fan_word_face@@YGXH@Z
_TEXT	SEGMENT
_number_of_points$ = 8					; size = 4
?draw_3d_terrain_twopass_unclipped_fan_word_face@@YGXH@Z PROC ; draw_3d_terrain_twopass_unclipped_fan_word_face, COMDAT

; 323  : {

  00000	55		 push	 ebp
  00001	8b ec		 mov	 ebp, esp
  00003	83 ec 40	 sub	 esp, 64			; 00000040H
  00006	53		 push	 ebx
  00007	56		 push	 esi
  00008	57		 push	 edi

; 324  : 		
; 325  : 	render_3d_terrain_word_fan ( number_of_points );

  00009	8b 45 08	 mov	 eax, DWORD PTR _number_of_points$[ebp]
  0000c	50		 push	 eax
  0000d	e8 00 00 00 00	 call	 ?render_3d_terrain_word_fan@@YGXH@Z ; render_3d_terrain_word_fan

; 326  : 
; 327  : 	if ( terrain_alpha_visible_word ( number_of_points, terrain_3d_sector_point_word_references ) )

  00012	a1 00 00 00 00	 mov	 eax, DWORD PTR ?terrain_3d_sector_point_word_references@@3PAUTERRAIN_3D_POINT_WORD_REFERENCE@@A ; terrain_3d_sector_point_word_references
  00017	50		 push	 eax
  00018	8b 4d 08	 mov	 ecx, DWORD PTR _number_of_points$[ebp]
  0001b	51		 push	 ecx
  0001c	e8 00 00 00 00	 call	 ?terrain_alpha_visible_word@@YGHHPAUTERRAIN_3D_POINT_WORD_REFERENCE@@@Z ; terrain_alpha_visible_word
  00021	85 c0		 test	 eax, eax
  00023	74 09		 je	 SHORT $LN1@draw_3d_te

; 328  : 	{
; 329  : 	
; 330  : 		render_3d_terrain_secondary_word_fan ( number_of_points );

  00025	8b 45 08	 mov	 eax, DWORD PTR _number_of_points$[ebp]
  00028	50		 push	 eax
  00029	e8 00 00 00 00	 call	 ?render_3d_terrain_secondary_word_fan@@YGXH@Z ; render_3d_terrain_secondary_word_fan
$LN1@draw_3d_te:

; 331  : 	}
; 332  : }

  0002e	5f		 pop	 edi
  0002f	5e		 pop	 esi
  00030	5b		 pop	 ebx
  00031	8b e5		 mov	 esp, ebp
  00033	5d		 pop	 ebp
  00034	c2 04 00	 ret	 4
?draw_3d_terrain_twopass_unclipped_fan_word_face@@YGXH@Z ENDP ; draw_3d_terrain_twopass_unclipped_fan_word_face
_TEXT	ENDS
; Function compile flags: /Odtp /ZI
; File c:\users\nhv90\projects\eech\modules\3d\terrain\terrdr.c
;	COMDAT ?draw_3d_terrain_texture_z_colour_unclipped_strip_byte_face@@YGXH@Z
_TEXT	SEGMENT
_number_of_points$ = 8					; size = 4
?draw_3d_terrain_texture_z_colour_unclipped_strip_byte_face@@YGXH@Z PROC ; draw_3d_terrain_texture_z_colour_unclipped_strip_byte_face, COMDAT

; 313  : {

  00000	55		 push	 ebp
  00001	8b ec		 mov	 ebp, esp
  00003	83 ec 40	 sub	 esp, 64			; 00000040H
  00006	53		 push	 ebx
  00007	56		 push	 esi
  00008	57		 push	 edi

; 314  : 
; 315  : 	render_3d_terrain_texture_xy_byte_colour_strip ( number_of_points );

  00009	8b 45 08	 mov	 eax, DWORD PTR _number_of_points$[ebp]
  0000c	50		 push	 eax
  0000d	e8 00 00 00 00	 call	 ?render_3d_terrain_texture_xy_byte_colour_strip@@YGXH@Z ; render_3d_terrain_texture_xy_byte_colour_strip

; 316  : }

  00012	5f		 pop	 edi
  00013	5e		 pop	 esi
  00014	5b		 pop	 ebx
  00015	8b e5		 mov	 esp, ebp
  00017	5d		 pop	 ebp
  00018	c2 04 00	 ret	 4
?draw_3d_terrain_texture_z_colour_unclipped_strip_byte_face@@YGXH@Z ENDP ; draw_3d_terrain_texture_z_colour_unclipped_strip_byte_face
_TEXT	ENDS
; Function compile flags: /Odtp /ZI
; File c:\users\nhv90\projects\eech\modules\3d\terrain\terrdr.c
;	COMDAT ?draw_3d_terrain_texture_z_colour_unclipped_strip_word_face@@YGXH@Z
_TEXT	SEGMENT
_number_of_points$ = 8					; size = 4
?draw_3d_terrain_texture_z_colour_unclipped_strip_word_face@@YGXH@Z PROC ; draw_3d_terrain_texture_z_colour_unclipped_strip_word_face, COMDAT

; 303  : {

  00000	55		 push	 ebp
  00001	8b ec		 mov	 ebp, esp
  00003	83 ec 40	 sub	 esp, 64			; 00000040H
  00006	53		 push	 ebx
  00007	56		 push	 esi
  00008	57		 push	 edi

; 304  : 
; 305  : 	render_3d_terrain_texture_xy_word_colour_strip ( number_of_points );

  00009	8b 45 08	 mov	 eax, DWORD PTR _number_of_points$[ebp]
  0000c	50		 push	 eax
  0000d	e8 00 00 00 00	 call	 ?render_3d_terrain_texture_xy_word_colour_strip@@YGXH@Z ; render_3d_terrain_texture_xy_word_colour_strip

; 306  : }

  00012	5f		 pop	 edi
  00013	5e		 pop	 esi
  00014	5b		 pop	 ebx
  00015	8b e5		 mov	 esp, ebp
  00017	5d		 pop	 ebp
  00018	c2 04 00	 ret	 4
?draw_3d_terrain_texture_z_colour_unclipped_strip_word_face@@YGXH@Z ENDP ; draw_3d_terrain_texture_z_colour_unclipped_strip_word_face
_TEXT	ENDS
; Function compile flags: /Odtp /ZI
; File c:\users\nhv90\projects\eech\modules\3d\terrain\terrdr.c
;	COMDAT ?draw_3d_terrain_texture_x_colour_unclipped_strip_byte_face@@YGXH@Z
_TEXT	SEGMENT
_number_of_points$ = 8					; size = 4
?draw_3d_terrain_texture_x_colour_unclipped_strip_byte_face@@YGXH@Z PROC ; draw_3d_terrain_texture_x_colour_unclipped_strip_byte_face, COMDAT

; 293  : {

  00000	55		 push	 ebp
  00001	8b ec		 mov	 ebp, esp
  00003	83 ec 40	 sub	 esp, 64			; 00000040H
  00006	53		 push	 ebx
  00007	56		 push	 esi
  00008	57		 push	 edi

; 294  : 
; 295  : 	render_3d_terrain_texture_zy_byte_colour_strip ( number_of_points );

  00009	8b 45 08	 mov	 eax, DWORD PTR _number_of_points$[ebp]
  0000c	50		 push	 eax
  0000d	e8 00 00 00 00	 call	 ?render_3d_terrain_texture_zy_byte_colour_strip@@YGXH@Z ; render_3d_terrain_texture_zy_byte_colour_strip

; 296  : }

  00012	5f		 pop	 edi
  00013	5e		 pop	 esi
  00014	5b		 pop	 ebx
  00015	8b e5		 mov	 esp, ebp
  00017	5d		 pop	 ebp
  00018	c2 04 00	 ret	 4
?draw_3d_terrain_texture_x_colour_unclipped_strip_byte_face@@YGXH@Z ENDP ; draw_3d_terrain_texture_x_colour_unclipped_strip_byte_face
_TEXT	ENDS
; Function compile flags: /Odtp /ZI
; File c:\users\nhv90\projects\eech\modules\3d\terrain\terrdr.c
;	COMDAT ?draw_3d_terrain_texture_x_colour_unclipped_strip_word_face@@YGXH@Z
_TEXT	SEGMENT
_number_of_points$ = 8					; size = 4
?draw_3d_terrain_texture_x_colour_unclipped_strip_word_face@@YGXH@Z PROC ; draw_3d_terrain_texture_x_colour_unclipped_strip_word_face, COMDAT

; 283  : {

  00000	55		 push	 ebp
  00001	8b ec		 mov	 ebp, esp
  00003	83 ec 40	 sub	 esp, 64			; 00000040H
  00006	53		 push	 ebx
  00007	56		 push	 esi
  00008	57		 push	 edi

; 284  : 
; 285  : 	render_3d_terrain_texture_zy_word_colour_strip ( number_of_points );

  00009	8b 45 08	 mov	 eax, DWORD PTR _number_of_points$[ebp]
  0000c	50		 push	 eax
  0000d	e8 00 00 00 00	 call	 ?render_3d_terrain_texture_zy_word_colour_strip@@YGXH@Z ; render_3d_terrain_texture_zy_word_colour_strip

; 286  : }

  00012	5f		 pop	 edi
  00013	5e		 pop	 esi
  00014	5b		 pop	 ebx
  00015	8b e5		 mov	 esp, ebp
  00017	5d		 pop	 ebp
  00018	c2 04 00	 ret	 4
?draw_3d_terrain_texture_x_colour_unclipped_strip_word_face@@YGXH@Z ENDP ; draw_3d_terrain_texture_x_colour_unclipped_strip_word_face
_TEXT	ENDS
; Function compile flags: /Odtp /ZI
; File c:\users\nhv90\projects\eech\modules\3d\terrain\terrdr.c
;	COMDAT ?draw_3d_terrain_texture_z_colour_unclipped_fan_byte_face@@YGXH@Z
_TEXT	SEGMENT
_number_of_points$ = 8					; size = 4
?draw_3d_terrain_texture_z_colour_unclipped_fan_byte_face@@YGXH@Z PROC ; draw_3d_terrain_texture_z_colour_unclipped_fan_byte_face, COMDAT

; 273  : {

  00000	55		 push	 ebp
  00001	8b ec		 mov	 ebp, esp
  00003	83 ec 40	 sub	 esp, 64			; 00000040H
  00006	53		 push	 ebx
  00007	56		 push	 esi
  00008	57		 push	 edi

; 274  : 
; 275  : 	render_3d_terrain_texture_xy_byte_colour_fan ( number_of_points );

  00009	8b 45 08	 mov	 eax, DWORD PTR _number_of_points$[ebp]
  0000c	50		 push	 eax
  0000d	e8 00 00 00 00	 call	 ?render_3d_terrain_texture_xy_byte_colour_fan@@YGXH@Z ; render_3d_terrain_texture_xy_byte_colour_fan

; 276  : }

  00012	5f		 pop	 edi
  00013	5e		 pop	 esi
  00014	5b		 pop	 ebx
  00015	8b e5		 mov	 esp, ebp
  00017	5d		 pop	 ebp
  00018	c2 04 00	 ret	 4
?draw_3d_terrain_texture_z_colour_unclipped_fan_byte_face@@YGXH@Z ENDP ; draw_3d_terrain_texture_z_colour_unclipped_fan_byte_face
_TEXT	ENDS
; Function compile flags: /Odtp /ZI
; File c:\users\nhv90\projects\eech\modules\3d\terrain\terrdr.c
;	COMDAT ?draw_3d_terrain_texture_z_colour_unclipped_fan_word_face@@YGXH@Z
_TEXT	SEGMENT
_number_of_points$ = 8					; size = 4
?draw_3d_terrain_texture_z_colour_unclipped_fan_word_face@@YGXH@Z PROC ; draw_3d_terrain_texture_z_colour_unclipped_fan_word_face, COMDAT

; 263  : {

  00000	55		 push	 ebp
  00001	8b ec		 mov	 ebp, esp
  00003	83 ec 40	 sub	 esp, 64			; 00000040H
  00006	53		 push	 ebx
  00007	56		 push	 esi
  00008	57		 push	 edi

; 264  : 
; 265  : 	render_3d_terrain_texture_xy_word_colour_fan ( number_of_points );

  00009	8b 45 08	 mov	 eax, DWORD PTR _number_of_points$[ebp]
  0000c	50		 push	 eax
  0000d	e8 00 00 00 00	 call	 ?render_3d_terrain_texture_xy_word_colour_fan@@YGXH@Z ; render_3d_terrain_texture_xy_word_colour_fan

; 266  : }

  00012	5f		 pop	 edi
  00013	5e		 pop	 esi
  00014	5b		 pop	 ebx
  00015	8b e5		 mov	 esp, ebp
  00017	5d		 pop	 ebp
  00018	c2 04 00	 ret	 4
?draw_3d_terrain_texture_z_colour_unclipped_fan_word_face@@YGXH@Z ENDP ; draw_3d_terrain_texture_z_colour_unclipped_fan_word_face
_TEXT	ENDS
; Function compile flags: /Odtp /ZI
; File c:\users\nhv90\projects\eech\modules\3d\terrain\terrdr.c
;	COMDAT ?draw_3d_terrain_texture_x_colour_unclipped_fan_byte_face@@YGXH@Z
_TEXT	SEGMENT
_number_of_points$ = 8					; size = 4
?draw_3d_terrain_texture_x_colour_unclipped_fan_byte_face@@YGXH@Z PROC ; draw_3d_terrain_texture_x_colour_unclipped_fan_byte_face, COMDAT

; 253  : {

  00000	55		 push	 ebp
  00001	8b ec		 mov	 ebp, esp
  00003	83 ec 40	 sub	 esp, 64			; 00000040H
  00006	53		 push	 ebx
  00007	56		 push	 esi
  00008	57		 push	 edi

; 254  : 
; 255  : 	render_3d_terrain_texture_zy_byte_colour_fan ( number_of_points );

  00009	8b 45 08	 mov	 eax, DWORD PTR _number_of_points$[ebp]
  0000c	50		 push	 eax
  0000d	e8 00 00 00 00	 call	 ?render_3d_terrain_texture_zy_byte_colour_fan@@YGXH@Z ; render_3d_terrain_texture_zy_byte_colour_fan

; 256  : }

  00012	5f		 pop	 edi
  00013	5e		 pop	 esi
  00014	5b		 pop	 ebx
  00015	8b e5		 mov	 esp, ebp
  00017	5d		 pop	 ebp
  00018	c2 04 00	 ret	 4
?draw_3d_terrain_texture_x_colour_unclipped_fan_byte_face@@YGXH@Z ENDP ; draw_3d_terrain_texture_x_colour_unclipped_fan_byte_face
_TEXT	ENDS
; Function compile flags: /Odtp /ZI
; File c:\users\nhv90\projects\eech\modules\3d\terrain\terrdr.c
;	COMDAT ?draw_3d_terrain_texture_x_colour_unclipped_fan_word_face@@YGXH@Z
_TEXT	SEGMENT
_number_of_points$ = 8					; size = 4
?draw_3d_terrain_texture_x_colour_unclipped_fan_word_face@@YGXH@Z PROC ; draw_3d_terrain_texture_x_colour_unclipped_fan_word_face, COMDAT

; 243  : {

  00000	55		 push	 ebp
  00001	8b ec		 mov	 ebp, esp
  00003	83 ec 40	 sub	 esp, 64			; 00000040H
  00006	53		 push	 ebx
  00007	56		 push	 esi
  00008	57		 push	 edi

; 244  : 
; 245  : 	render_3d_terrain_texture_zy_word_colour_fan ( number_of_points );

  00009	8b 45 08	 mov	 eax, DWORD PTR _number_of_points$[ebp]
  0000c	50		 push	 eax
  0000d	e8 00 00 00 00	 call	 ?render_3d_terrain_texture_zy_word_colour_fan@@YGXH@Z ; render_3d_terrain_texture_zy_word_colour_fan

; 246  : }

  00012	5f		 pop	 edi
  00013	5e		 pop	 esi
  00014	5b		 pop	 ebx
  00015	8b e5		 mov	 esp, ebp
  00017	5d		 pop	 ebp
  00018	c2 04 00	 ret	 4
?draw_3d_terrain_texture_x_colour_unclipped_fan_word_face@@YGXH@Z ENDP ; draw_3d_terrain_texture_x_colour_unclipped_fan_word_face
_TEXT	ENDS
; Function compile flags: /Odtp /ZI
; File c:\users\nhv90\projects\eech\modules\3d\terrain\terrdr.c
;	COMDAT ?draw_3d_terrain_colour_unclipped_strip_byte_face@@YGXH@Z
_TEXT	SEGMENT
_number_of_points$ = 8					; size = 4
?draw_3d_terrain_colour_unclipped_strip_byte_face@@YGXH@Z PROC ; draw_3d_terrain_colour_unclipped_strip_byte_face, COMDAT

; 233  : {

  00000	55		 push	 ebp
  00001	8b ec		 mov	 ebp, esp
  00003	83 ec 40	 sub	 esp, 64			; 00000040H
  00006	53		 push	 ebx
  00007	56		 push	 esi
  00008	57		 push	 edi

; 234  : 
; 235  : 	render_3d_terrain_byte_colour_strip ( number_of_points );

  00009	8b 45 08	 mov	 eax, DWORD PTR _number_of_points$[ebp]
  0000c	50		 push	 eax
  0000d	e8 00 00 00 00	 call	 ?render_3d_terrain_byte_colour_strip@@YGXH@Z ; render_3d_terrain_byte_colour_strip

; 236  : }

  00012	5f		 pop	 edi
  00013	5e		 pop	 esi
  00014	5b		 pop	 ebx
  00015	8b e5		 mov	 esp, ebp
  00017	5d		 pop	 ebp
  00018	c2 04 00	 ret	 4
?draw_3d_terrain_colour_unclipped_strip_byte_face@@YGXH@Z ENDP ; draw_3d_terrain_colour_unclipped_strip_byte_face
_TEXT	ENDS
; Function compile flags: /Odtp /ZI
; File c:\users\nhv90\projects\eech\modules\3d\terrain\terrdr.c
;	COMDAT ?draw_3d_terrain_colour_unclipped_strip_word_face@@YGXH@Z
_TEXT	SEGMENT
_number_of_points$ = 8					; size = 4
?draw_3d_terrain_colour_unclipped_strip_word_face@@YGXH@Z PROC ; draw_3d_terrain_colour_unclipped_strip_word_face, COMDAT

; 223  : {

  00000	55		 push	 ebp
  00001	8b ec		 mov	 ebp, esp
  00003	83 ec 40	 sub	 esp, 64			; 00000040H
  00006	53		 push	 ebx
  00007	56		 push	 esi
  00008	57		 push	 edi

; 224  : 
; 225  : 	render_3d_terrain_word_colour_strip ( number_of_points );

  00009	8b 45 08	 mov	 eax, DWORD PTR _number_of_points$[ebp]
  0000c	50		 push	 eax
  0000d	e8 00 00 00 00	 call	 ?render_3d_terrain_word_colour_strip@@YGXH@Z ; render_3d_terrain_word_colour_strip

; 226  : }

  00012	5f		 pop	 edi
  00013	5e		 pop	 esi
  00014	5b		 pop	 ebx
  00015	8b e5		 mov	 esp, ebp
  00017	5d		 pop	 ebp
  00018	c2 04 00	 ret	 4
?draw_3d_terrain_colour_unclipped_strip_word_face@@YGXH@Z ENDP ; draw_3d_terrain_colour_unclipped_strip_word_face
_TEXT	ENDS
; Function compile flags: /Odtp /ZI
; File c:\users\nhv90\projects\eech\modules\3d\terrain\terrdr.c
;	COMDAT ?draw_3d_terrain_colour_unclipped_fan_byte_face@@YGXH@Z
_TEXT	SEGMENT
_number_of_points$ = 8					; size = 4
?draw_3d_terrain_colour_unclipped_fan_byte_face@@YGXH@Z PROC ; draw_3d_terrain_colour_unclipped_fan_byte_face, COMDAT

; 213  : {

  00000	55		 push	 ebp
  00001	8b ec		 mov	 ebp, esp
  00003	83 ec 40	 sub	 esp, 64			; 00000040H
  00006	53		 push	 ebx
  00007	56		 push	 esi
  00008	57		 push	 edi

; 214  : 
; 215  : 	render_3d_terrain_byte_colour_fan ( number_of_points );

  00009	8b 45 08	 mov	 eax, DWORD PTR _number_of_points$[ebp]
  0000c	50		 push	 eax
  0000d	e8 00 00 00 00	 call	 ?render_3d_terrain_byte_colour_fan@@YGXH@Z ; render_3d_terrain_byte_colour_fan

; 216  : }

  00012	5f		 pop	 edi
  00013	5e		 pop	 esi
  00014	5b		 pop	 ebx
  00015	8b e5		 mov	 esp, ebp
  00017	5d		 pop	 ebp
  00018	c2 04 00	 ret	 4
?draw_3d_terrain_colour_unclipped_fan_byte_face@@YGXH@Z ENDP ; draw_3d_terrain_colour_unclipped_fan_byte_face
_TEXT	ENDS
; Function compile flags: /Odtp /ZI
; File c:\users\nhv90\projects\eech\modules\3d\terrain\terrdr.c
;	COMDAT ?draw_3d_terrain_colour_unclipped_fan_word_face@@YGXH@Z
_TEXT	SEGMENT
_number_of_points$ = 8					; size = 4
?draw_3d_terrain_colour_unclipped_fan_word_face@@YGXH@Z PROC ; draw_3d_terrain_colour_unclipped_fan_word_face, COMDAT

; 203  : {

  00000	55		 push	 ebp
  00001	8b ec		 mov	 ebp, esp
  00003	83 ec 40	 sub	 esp, 64			; 00000040H
  00006	53		 push	 ebx
  00007	56		 push	 esi
  00008	57		 push	 edi

; 204  : 
; 205  : 	render_3d_terrain_word_colour_fan ( number_of_points );

  00009	8b 45 08	 mov	 eax, DWORD PTR _number_of_points$[ebp]
  0000c	50		 push	 eax
  0000d	e8 00 00 00 00	 call	 ?render_3d_terrain_word_colour_fan@@YGXH@Z ; render_3d_terrain_word_colour_fan

; 206  : }

  00012	5f		 pop	 edi
  00013	5e		 pop	 esi
  00014	5b		 pop	 ebx
  00015	8b e5		 mov	 esp, ebp
  00017	5d		 pop	 ebp
  00018	c2 04 00	 ret	 4
?draw_3d_terrain_colour_unclipped_fan_word_face@@YGXH@Z ENDP ; draw_3d_terrain_colour_unclipped_fan_word_face
_TEXT	ENDS
; Function compile flags: /Odtp /ZI
; File c:\users\nhv90\projects\eech\modules\3d\terrain\terrdr.c
;	COMDAT ?draw_3d_terrain_texture_z_unclipped_strip_byte_face@@YGXH@Z
_TEXT	SEGMENT
_number_of_points$ = 8					; size = 4
?draw_3d_terrain_texture_z_unclipped_strip_byte_face@@YGXH@Z PROC ; draw_3d_terrain_texture_z_unclipped_strip_byte_face, COMDAT

; 193  : {

  00000	55		 push	 ebp
  00001	8b ec		 mov	 ebp, esp
  00003	83 ec 40	 sub	 esp, 64			; 00000040H
  00006	53		 push	 ebx
  00007	56		 push	 esi
  00008	57		 push	 edi

; 194  : 
; 195  : 	render_3d_terrain_texture_xy_byte_strip ( number_of_points );

  00009	8b 45 08	 mov	 eax, DWORD PTR _number_of_points$[ebp]
  0000c	50		 push	 eax
  0000d	e8 00 00 00 00	 call	 ?render_3d_terrain_texture_xy_byte_strip@@YGXH@Z ; render_3d_terrain_texture_xy_byte_strip

; 196  : }

  00012	5f		 pop	 edi
  00013	5e		 pop	 esi
  00014	5b		 pop	 ebx
  00015	8b e5		 mov	 esp, ebp
  00017	5d		 pop	 ebp
  00018	c2 04 00	 ret	 4
?draw_3d_terrain_texture_z_unclipped_strip_byte_face@@YGXH@Z ENDP ; draw_3d_terrain_texture_z_unclipped_strip_byte_face
_TEXT	ENDS
; Function compile flags: /Odtp /ZI
; File c:\users\nhv90\projects\eech\modules\3d\terrain\terrdr.c
;	COMDAT ?draw_3d_terrain_texture_z_unclipped_strip_word_face@@YGXH@Z
_TEXT	SEGMENT
_number_of_points$ = 8					; size = 4
?draw_3d_terrain_texture_z_unclipped_strip_word_face@@YGXH@Z PROC ; draw_3d_terrain_texture_z_unclipped_strip_word_face, COMDAT

; 183  : {

  00000	55		 push	 ebp
  00001	8b ec		 mov	 ebp, esp
  00003	83 ec 40	 sub	 esp, 64			; 00000040H
  00006	53		 push	 ebx
  00007	56		 push	 esi
  00008	57		 push	 edi

; 184  : 
; 185  : 	render_3d_terrain_texture_xy_word_strip ( number_of_points );

  00009	8b 45 08	 mov	 eax, DWORD PTR _number_of_points$[ebp]
  0000c	50		 push	 eax
  0000d	e8 00 00 00 00	 call	 ?render_3d_terrain_texture_xy_word_strip@@YGXH@Z ; render_3d_terrain_texture_xy_word_strip

; 186  : }

  00012	5f		 pop	 edi
  00013	5e		 pop	 esi
  00014	5b		 pop	 ebx
  00015	8b e5		 mov	 esp, ebp
  00017	5d		 pop	 ebp
  00018	c2 04 00	 ret	 4
?draw_3d_terrain_texture_z_unclipped_strip_word_face@@YGXH@Z ENDP ; draw_3d_terrain_texture_z_unclipped_strip_word_face
_TEXT	ENDS
; Function compile flags: /Odtp /ZI
; File c:\users\nhv90\projects\eech\modules\3d\terrain\terrdr.c
;	COMDAT ?draw_3d_terrain_texture_x_unclipped_strip_byte_face@@YGXH@Z
_TEXT	SEGMENT
_number_of_points$ = 8					; size = 4
?draw_3d_terrain_texture_x_unclipped_strip_byte_face@@YGXH@Z PROC ; draw_3d_terrain_texture_x_unclipped_strip_byte_face, COMDAT

; 173  : {

  00000	55		 push	 ebp
  00001	8b ec		 mov	 ebp, esp
  00003	83 ec 40	 sub	 esp, 64			; 00000040H
  00006	53		 push	 ebx
  00007	56		 push	 esi
  00008	57		 push	 edi

; 174  : 
; 175  : 	render_3d_terrain_texture_zy_byte_strip ( number_of_points );

  00009	8b 45 08	 mov	 eax, DWORD PTR _number_of_points$[ebp]
  0000c	50		 push	 eax
  0000d	e8 00 00 00 00	 call	 ?render_3d_terrain_texture_zy_byte_strip@@YGXH@Z ; render_3d_terrain_texture_zy_byte_strip

; 176  : }

  00012	5f		 pop	 edi
  00013	5e		 pop	 esi
  00014	5b		 pop	 ebx
  00015	8b e5		 mov	 esp, ebp
  00017	5d		 pop	 ebp
  00018	c2 04 00	 ret	 4
?draw_3d_terrain_texture_x_unclipped_strip_byte_face@@YGXH@Z ENDP ; draw_3d_terrain_texture_x_unclipped_strip_byte_face
_TEXT	ENDS
; Function compile flags: /Odtp /ZI
; File c:\users\nhv90\projects\eech\modules\3d\terrain\terrdr.c
;	COMDAT ?draw_3d_terrain_texture_x_unclipped_strip_word_face@@YGXH@Z
_TEXT	SEGMENT
_number_of_points$ = 8					; size = 4
?draw_3d_terrain_texture_x_unclipped_strip_word_face@@YGXH@Z PROC ; draw_3d_terrain_texture_x_unclipped_strip_word_face, COMDAT

; 163  : {

  00000	55		 push	 ebp
  00001	8b ec		 mov	 ebp, esp
  00003	83 ec 40	 sub	 esp, 64			; 00000040H
  00006	53		 push	 ebx
  00007	56		 push	 esi
  00008	57		 push	 edi

; 164  : 
; 165  : 	render_3d_terrain_texture_zy_word_strip ( number_of_points );

  00009	8b 45 08	 mov	 eax, DWORD PTR _number_of_points$[ebp]
  0000c	50		 push	 eax
  0000d	e8 00 00 00 00	 call	 ?render_3d_terrain_texture_zy_word_strip@@YGXH@Z ; render_3d_terrain_texture_zy_word_strip

; 166  : }

  00012	5f		 pop	 edi
  00013	5e		 pop	 esi
  00014	5b		 pop	 ebx
  00015	8b e5		 mov	 esp, ebp
  00017	5d		 pop	 ebp
  00018	c2 04 00	 ret	 4
?draw_3d_terrain_texture_x_unclipped_strip_word_face@@YGXH@Z ENDP ; draw_3d_terrain_texture_x_unclipped_strip_word_face
_TEXT	ENDS
; Function compile flags: /Odtp /ZI
; File c:\users\nhv90\projects\eech\modules\3d\terrain\terrdr.c
;	COMDAT ?draw_3d_terrain_texture_z_unclipped_fan_byte_face@@YGXH@Z
_TEXT	SEGMENT
_number_of_points$ = 8					; size = 4
?draw_3d_terrain_texture_z_unclipped_fan_byte_face@@YGXH@Z PROC ; draw_3d_terrain_texture_z_unclipped_fan_byte_face, COMDAT

; 153  : {

  00000	55		 push	 ebp
  00001	8b ec		 mov	 ebp, esp
  00003	83 ec 40	 sub	 esp, 64			; 00000040H
  00006	53		 push	 ebx
  00007	56		 push	 esi
  00008	57		 push	 edi

; 154  : 
; 155  : 	render_3d_terrain_texture_xy_byte_fan ( number_of_points );

  00009	8b 45 08	 mov	 eax, DWORD PTR _number_of_points$[ebp]
  0000c	50		 push	 eax
  0000d	e8 00 00 00 00	 call	 ?render_3d_terrain_texture_xy_byte_fan@@YGXH@Z ; render_3d_terrain_texture_xy_byte_fan

; 156  : }

  00012	5f		 pop	 edi
  00013	5e		 pop	 esi
  00014	5b		 pop	 ebx
  00015	8b e5		 mov	 esp, ebp
  00017	5d		 pop	 ebp
  00018	c2 04 00	 ret	 4
?draw_3d_terrain_texture_z_unclipped_fan_byte_face@@YGXH@Z ENDP ; draw_3d_terrain_texture_z_unclipped_fan_byte_face
_TEXT	ENDS
; Function compile flags: /Odtp /ZI
; File c:\users\nhv90\projects\eech\modules\3d\terrain\terrdr.c
;	COMDAT ?draw_3d_terrain_texture_z_unclipped_fan_word_face@@YGXH@Z
_TEXT	SEGMENT
_number_of_points$ = 8					; size = 4
?draw_3d_terrain_texture_z_unclipped_fan_word_face@@YGXH@Z PROC ; draw_3d_terrain_texture_z_unclipped_fan_word_face, COMDAT

; 143  : {

  00000	55		 push	 ebp
  00001	8b ec		 mov	 ebp, esp
  00003	83 ec 40	 sub	 esp, 64			; 00000040H
  00006	53		 push	 ebx
  00007	56		 push	 esi
  00008	57		 push	 edi

; 144  : 
; 145  : 	render_3d_terrain_texture_xy_word_fan ( number_of_points );

  00009	8b 45 08	 mov	 eax, DWORD PTR _number_of_points$[ebp]
  0000c	50		 push	 eax
  0000d	e8 00 00 00 00	 call	 ?render_3d_terrain_texture_xy_word_fan@@YGXH@Z ; render_3d_terrain_texture_xy_word_fan

; 146  : }

  00012	5f		 pop	 edi
  00013	5e		 pop	 esi
  00014	5b		 pop	 ebx
  00015	8b e5		 mov	 esp, ebp
  00017	5d		 pop	 ebp
  00018	c2 04 00	 ret	 4
?draw_3d_terrain_texture_z_unclipped_fan_word_face@@YGXH@Z ENDP ; draw_3d_terrain_texture_z_unclipped_fan_word_face
_TEXT	ENDS
; Function compile flags: /Odtp /ZI
; File c:\users\nhv90\projects\eech\modules\3d\terrain\terrdr.c
;	COMDAT ?draw_3d_terrain_texture_x_unclipped_fan_byte_face@@YGXH@Z
_TEXT	SEGMENT
_number_of_points$ = 8					; size = 4
?draw_3d_terrain_texture_x_unclipped_fan_byte_face@@YGXH@Z PROC ; draw_3d_terrain_texture_x_unclipped_fan_byte_face, COMDAT

; 133  : {

  00000	55		 push	 ebp
  00001	8b ec		 mov	 ebp, esp
  00003	83 ec 40	 sub	 esp, 64			; 00000040H
  00006	53		 push	 ebx
  00007	56		 push	 esi
  00008	57		 push	 edi

; 134  : 
; 135  : 	render_3d_terrain_texture_zy_byte_fan ( number_of_points );

  00009	8b 45 08	 mov	 eax, DWORD PTR _number_of_points$[ebp]
  0000c	50		 push	 eax
  0000d	e8 00 00 00 00	 call	 ?render_3d_terrain_texture_zy_byte_fan@@YGXH@Z ; render_3d_terrain_texture_zy_byte_fan

; 136  : }

  00012	5f		 pop	 edi
  00013	5e		 pop	 esi
  00014	5b		 pop	 ebx
  00015	8b e5		 mov	 esp, ebp
  00017	5d		 pop	 ebp
  00018	c2 04 00	 ret	 4
?draw_3d_terrain_texture_x_unclipped_fan_byte_face@@YGXH@Z ENDP ; draw_3d_terrain_texture_x_unclipped_fan_byte_face
_TEXT	ENDS
; Function compile flags: /Odtp /ZI
; File c:\users\nhv90\projects\eech\modules\3d\terrain\terrdr.c
;	COMDAT ?draw_3d_terrain_texture_x_unclipped_fan_word_face@@YGXH@Z
_TEXT	SEGMENT
_number_of_points$ = 8					; size = 4
?draw_3d_terrain_texture_x_unclipped_fan_word_face@@YGXH@Z PROC ; draw_3d_terrain_texture_x_unclipped_fan_word_face, COMDAT

; 123  : {

  00000	55		 push	 ebp
  00001	8b ec		 mov	 ebp, esp
  00003	83 ec 40	 sub	 esp, 64			; 00000040H
  00006	53		 push	 ebx
  00007	56		 push	 esi
  00008	57		 push	 edi

; 124  : 
; 125  : 	render_3d_terrain_texture_zy_word_fan ( number_of_points );

  00009	8b 45 08	 mov	 eax, DWORD PTR _number_of_points$[ebp]
  0000c	50		 push	 eax
  0000d	e8 00 00 00 00	 call	 ?render_3d_terrain_texture_zy_word_fan@@YGXH@Z ; render_3d_terrain_texture_zy_word_fan

; 126  : }

  00012	5f		 pop	 edi
  00013	5e		 pop	 esi
  00014	5b		 pop	 ebx
  00015	8b e5		 mov	 esp, ebp
  00017	5d		 pop	 ebp
  00018	c2 04 00	 ret	 4
?draw_3d_terrain_texture_x_unclipped_fan_word_face@@YGXH@Z ENDP ; draw_3d_terrain_texture_x_unclipped_fan_word_face
_TEXT	ENDS
; Function compile flags: /Odtp /ZI
; File c:\users\nhv90\projects\eech\modules\3d\terrain\terrdr.c
;	COMDAT ?draw_3d_terrain_unclipped_strip_byte_face@@YGXH@Z
_TEXT	SEGMENT
_number_of_points$ = 8					; size = 4
?draw_3d_terrain_unclipped_strip_byte_face@@YGXH@Z PROC	; draw_3d_terrain_unclipped_strip_byte_face, COMDAT

; 113  : {

  00000	55		 push	 ebp
  00001	8b ec		 mov	 ebp, esp
  00003	83 ec 40	 sub	 esp, 64			; 00000040H
  00006	53		 push	 ebx
  00007	56		 push	 esi
  00008	57		 push	 edi

; 114  : 
; 115  : 	render_3d_terrain_byte_strip ( number_of_points );

  00009	8b 45 08	 mov	 eax, DWORD PTR _number_of_points$[ebp]
  0000c	50		 push	 eax
  0000d	e8 00 00 00 00	 call	 ?render_3d_terrain_byte_strip@@YGXH@Z ; render_3d_terrain_byte_strip

; 116  : }

  00012	5f		 pop	 edi
  00013	5e		 pop	 esi
  00014	5b		 pop	 ebx
  00015	8b e5		 mov	 esp, ebp
  00017	5d		 pop	 ebp
  00018	c2 04 00	 ret	 4
?draw_3d_terrain_unclipped_strip_byte_face@@YGXH@Z ENDP	; draw_3d_terrain_unclipped_strip_byte_face
_TEXT	ENDS
; Function compile flags: /Odtp /ZI
; File c:\users\nhv90\projects\eech\modules\3d\terrain\terrdr.c
;	COMDAT ?draw_3d_terrain_unclipped_strip_word_face@@YGXH@Z
_TEXT	SEGMENT
_number_of_points$ = 8					; size = 4
?draw_3d_terrain_unclipped_strip_word_face@@YGXH@Z PROC	; draw_3d_terrain_unclipped_strip_word_face, COMDAT

; 103  : {

  00000	55		 push	 ebp
  00001	8b ec		 mov	 ebp, esp
  00003	83 ec 40	 sub	 esp, 64			; 00000040H
  00006	53		 push	 ebx
  00007	56		 push	 esi
  00008	57		 push	 edi

; 104  : 
; 105  : 	render_3d_terrain_word_strip ( number_of_points );

  00009	8b 45 08	 mov	 eax, DWORD PTR _number_of_points$[ebp]
  0000c	50		 push	 eax
  0000d	e8 00 00 00 00	 call	 ?render_3d_terrain_word_strip@@YGXH@Z ; render_3d_terrain_word_strip

; 106  : }

  00012	5f		 pop	 edi
  00013	5e		 pop	 esi
  00014	5b		 pop	 ebx
  00015	8b e5		 mov	 esp, ebp
  00017	5d		 pop	 ebp
  00018	c2 04 00	 ret	 4
?draw_3d_terrain_unclipped_strip_word_face@@YGXH@Z ENDP	; draw_3d_terrain_unclipped_strip_word_face
_TEXT	ENDS
; Function compile flags: /Odtp /ZI
; File c:\users\nhv90\projects\eech\modules\3d\terrain\terrdr.c
;	COMDAT ?draw_3d_terrain_unclipped_fan_byte_face@@YGXH@Z
_TEXT	SEGMENT
_number_of_points$ = 8					; size = 4
?draw_3d_terrain_unclipped_fan_byte_face@@YGXH@Z PROC	; draw_3d_terrain_unclipped_fan_byte_face, COMDAT

; 93   : {

  00000	55		 push	 ebp
  00001	8b ec		 mov	 ebp, esp
  00003	83 ec 40	 sub	 esp, 64			; 00000040H
  00006	53		 push	 ebx
  00007	56		 push	 esi
  00008	57		 push	 edi

; 94   : 		
; 95   : 	render_3d_terrain_byte_fan ( number_of_points );

  00009	8b 45 08	 mov	 eax, DWORD PTR _number_of_points$[ebp]
  0000c	50		 push	 eax
  0000d	e8 00 00 00 00	 call	 ?render_3d_terrain_byte_fan@@YGXH@Z ; render_3d_terrain_byte_fan

; 96   : }

  00012	5f		 pop	 edi
  00013	5e		 pop	 esi
  00014	5b		 pop	 ebx
  00015	8b e5		 mov	 esp, ebp
  00017	5d		 pop	 ebp
  00018	c2 04 00	 ret	 4
?draw_3d_terrain_unclipped_fan_byte_face@@YGXH@Z ENDP	; draw_3d_terrain_unclipped_fan_byte_face
_TEXT	ENDS
; Function compile flags: /Odtp /ZI
; File c:\users\nhv90\projects\eech\modules\3d\terrain\terrdr.c
;	COMDAT ?draw_3d_terrain_unclipped_fan_word_face@@YGXH@Z
_TEXT	SEGMENT
_number_of_points$ = 8					; size = 4
?draw_3d_terrain_unclipped_fan_word_face@@YGXH@Z PROC	; draw_3d_terrain_unclipped_fan_word_face, COMDAT

; 83   : {

  00000	55		 push	 ebp
  00001	8b ec		 mov	 ebp, esp
  00003	83 ec 40	 sub	 esp, 64			; 00000040H
  00006	53		 push	 ebx
  00007	56		 push	 esi
  00008	57		 push	 edi

; 84   : 		
; 85   : 	render_3d_terrain_word_fan ( number_of_points );

  00009	8b 45 08	 mov	 eax, DWORD PTR _number_of_points$[ebp]
  0000c	50		 push	 eax
  0000d	e8 00 00 00 00	 call	 ?render_3d_terrain_word_fan@@YGXH@Z ; render_3d_terrain_word_fan

; 86   : }

  00012	5f		 pop	 edi
  00013	5e		 pop	 esi
  00014	5b		 pop	 ebx
  00015	8b e5		 mov	 esp, ebp
  00017	5d		 pop	 ebp
  00018	c2 04 00	 ret	 4
?draw_3d_terrain_unclipped_fan_word_face@@YGXH@Z ENDP	; draw_3d_terrain_unclipped_fan_word_face
_TEXT	ENDS
END
